; Listing generated by Microsoft (R) Optimizing Compiler Version 19.27.29112.0 

	TITLE	C:\DS Project\DS Files\Source\ClientSource\Client\GameLib\ActorInstanceCollisionDetection.cpp
	.686P
	.XMM
	include listing.inc
	.model	flat

INCLUDELIB LIBCMT
INCLUDELIB OLDNAMES

PUBLIC	??_7?$CDynamicPoolEx@VCTextureAnimationCWDecorator@NEffectUpdateDecorator@@@@6B@ ; CDynamicPoolEx<NEffectUpdateDecorator::CTextureAnimationCWDecorator>::`vftable'
PUBLIC	??_G?$CDynamicPoolEx@VCTextureAnimationCWDecorator@NEffectUpdateDecorator@@@@UAEPAXI@Z ; CDynamicPoolEx<NEffectUpdateDecorator::CTextureAnimationCWDecorator>::`scalar deleting destructor'
PUBLIC	??_7?$CDynamicPoolEx@VCNullDecorator@NEffectUpdateDecorator@@@@6B@ ; CDynamicPoolEx<NEffectUpdateDecorator::CNullDecorator>::`vftable'
PUBLIC	??_G?$CDynamicPoolEx@VCNullDecorator@NEffectUpdateDecorator@@@@UAEPAXI@Z ; CDynamicPoolEx<NEffectUpdateDecorator::CNullDecorator>::`scalar deleting destructor'
PUBLIC	??_7?$CDynamicPoolEx@VCHeaderDecorator@NEffectUpdateDecorator@@@@6B@ ; CDynamicPoolEx<NEffectUpdateDecorator::CHeaderDecorator>::`vftable'
PUBLIC	??_G?$CDynamicPoolEx@VCHeaderDecorator@NEffectUpdateDecorator@@@@UAEPAXI@Z ; CDynamicPoolEx<NEffectUpdateDecorator::CHeaderDecorator>::`scalar deleting destructor'
PUBLIC	??_R4?$CDynamicPoolEx@VCHeaderDecorator@NEffectUpdateDecorator@@@@6B@ ; CDynamicPoolEx<NEffectUpdateDecorator::CHeaderDecorator>::`RTTI Complete Object Locator'
PUBLIC	??_R0?AV?$CDynamicPoolEx@VCHeaderDecorator@NEffectUpdateDecorator@@@@@8 ; CDynamicPoolEx<NEffectUpdateDecorator::CHeaderDecorator> `RTTI Type Descriptor'
PUBLIC	??_R3?$CDynamicPoolEx@VCHeaderDecorator@NEffectUpdateDecorator@@@@8 ; CDynamicPoolEx<NEffectUpdateDecorator::CHeaderDecorator>::`RTTI Class Hierarchy Descriptor'
PUBLIC	??_R2?$CDynamicPoolEx@VCHeaderDecorator@NEffectUpdateDecorator@@@@8 ; CDynamicPoolEx<NEffectUpdateDecorator::CHeaderDecorator>::`RTTI Base Class Array'
PUBLIC	??_R1A@?0A@EA@?$CDynamicPoolEx@VCHeaderDecorator@NEffectUpdateDecorator@@@@8 ; CDynamicPoolEx<NEffectUpdateDecorator::CHeaderDecorator>::`RTTI Base Class Descriptor at (0,-1,0,64)'
PUBLIC	??_R4?$CDynamicPoolEx@VCNullDecorator@NEffectUpdateDecorator@@@@6B@ ; CDynamicPoolEx<NEffectUpdateDecorator::CNullDecorator>::`RTTI Complete Object Locator'
PUBLIC	??_R0?AV?$CDynamicPoolEx@VCNullDecorator@NEffectUpdateDecorator@@@@@8 ; CDynamicPoolEx<NEffectUpdateDecorator::CNullDecorator> `RTTI Type Descriptor'
PUBLIC	??_R3?$CDynamicPoolEx@VCNullDecorator@NEffectUpdateDecorator@@@@8 ; CDynamicPoolEx<NEffectUpdateDecorator::CNullDecorator>::`RTTI Class Hierarchy Descriptor'
PUBLIC	??_R2?$CDynamicPoolEx@VCNullDecorator@NEffectUpdateDecorator@@@@8 ; CDynamicPoolEx<NEffectUpdateDecorator::CNullDecorator>::`RTTI Base Class Array'
PUBLIC	??_R1A@?0A@EA@?$CDynamicPoolEx@VCNullDecorator@NEffectUpdateDecorator@@@@8 ; CDynamicPoolEx<NEffectUpdateDecorator::CNullDecorator>::`RTTI Base Class Descriptor at (0,-1,0,64)'
PUBLIC	??_R4?$CDynamicPoolEx@VCTextureAnimationCWDecorator@NEffectUpdateDecorator@@@@6B@ ; CDynamicPoolEx<NEffectUpdateDecorator::CTextureAnimationCWDecorator>::`RTTI Complete Object Locator'
PUBLIC	??_R0?AV?$CDynamicPoolEx@VCTextureAnimationCWDecorator@NEffectUpdateDecorator@@@@@8 ; CDynamicPoolEx<NEffectUpdateDecorator::CTextureAnimationCWDecorator> `RTTI Type Descriptor'
PUBLIC	??_R3?$CDynamicPoolEx@VCTextureAnimationCWDecorator@NEffectUpdateDecorator@@@@8 ; CDynamicPoolEx<NEffectUpdateDecorator::CTextureAnimationCWDecorator>::`RTTI Class Hierarchy Descriptor'
PUBLIC	??_R2?$CDynamicPoolEx@VCTextureAnimationCWDecorator@NEffectUpdateDecorator@@@@8 ; CDynamicPoolEx<NEffectUpdateDecorator::CTextureAnimationCWDecorator>::`RTTI Base Class Array'
PUBLIC	??_R1A@?0A@EA@?$CDynamicPoolEx@VCTextureAnimationCWDecorator@NEffectUpdateDecorator@@@@8 ; CDynamicPoolEx<NEffectUpdateDecorator::CTextureAnimationCWDecorator>::`RTTI Base Class Descriptor at (0,-1,0,64)'
PUBLIC	??_R4?$CDynamicPoolEx@VCTextureAnimationCCWDecorator@NEffectUpdateDecorator@@@@6B@ ; CDynamicPoolEx<NEffectUpdateDecorator::CTextureAnimationCCWDecorator>::`RTTI Complete Object Locator'
PUBLIC	??_R0?AV?$CDynamicPoolEx@VCTextureAnimationCCWDecorator@NEffectUpdateDecorator@@@@@8 ; CDynamicPoolEx<NEffectUpdateDecorator::CTextureAnimationCCWDecorator> `RTTI Type Descriptor'
PUBLIC	??_R3?$CDynamicPoolEx@VCTextureAnimationCCWDecorator@NEffectUpdateDecorator@@@@8 ; CDynamicPoolEx<NEffectUpdateDecorator::CTextureAnimationCCWDecorator>::`RTTI Class Hierarchy Descriptor'
PUBLIC	??_R2?$CDynamicPoolEx@VCTextureAnimationCCWDecorator@NEffectUpdateDecorator@@@@8 ; CDynamicPoolEx<NEffectUpdateDecorator::CTextureAnimationCCWDecorator>::`RTTI Base Class Array'
PUBLIC	??_R1A@?0A@EA@?$CDynamicPoolEx@VCTextureAnimationCCWDecorator@NEffectUpdateDecorator@@@@8 ; CDynamicPoolEx<NEffectUpdateDecorator::CTextureAnimationCCWDecorator>::`RTTI Base Class Descriptor at (0,-1,0,64)'
PUBLIC	??_R4?$CDynamicPoolEx@VCTextureAnimationRandomDecorator@NEffectUpdateDecorator@@@@6B@ ; CDynamicPoolEx<NEffectUpdateDecorator::CTextureAnimationRandomDecorator>::`RTTI Complete Object Locator'
PUBLIC	??_R0?AV?$CDynamicPoolEx@VCTextureAnimationRandomDecorator@NEffectUpdateDecorator@@@@@8 ; CDynamicPoolEx<NEffectUpdateDecorator::CTextureAnimationRandomDecorator> `RTTI Type Descriptor'
PUBLIC	??_R3?$CDynamicPoolEx@VCTextureAnimationRandomDecorator@NEffectUpdateDecorator@@@@8 ; CDynamicPoolEx<NEffectUpdateDecorator::CTextureAnimationRandomDecorator>::`RTTI Class Hierarchy Descriptor'
PUBLIC	??_R2?$CDynamicPoolEx@VCTextureAnimationRandomDecorator@NEffectUpdateDecorator@@@@8 ; CDynamicPoolEx<NEffectUpdateDecorator::CTextureAnimationRandomDecorator>::`RTTI Base Class Array'
PUBLIC	??_R1A@?0A@EA@?$CDynamicPoolEx@VCTextureAnimationRandomDecorator@NEffectUpdateDecorator@@@@8 ; CDynamicPoolEx<NEffectUpdateDecorator::CTextureAnimationRandomDecorator>::`RTTI Base Class Descriptor at (0,-1,0,64)'
PUBLIC	??_R4?$CDynamicPoolEx@VCAirResistanceDecorator@NEffectUpdateDecorator@@@@6B@ ; CDynamicPoolEx<NEffectUpdateDecorator::CAirResistanceDecorator>::`RTTI Complete Object Locator'
PUBLIC	??_R0?AV?$CDynamicPoolEx@VCAirResistanceDecorator@NEffectUpdateDecorator@@@@@8 ; CDynamicPoolEx<NEffectUpdateDecorator::CAirResistanceDecorator> `RTTI Type Descriptor'
PUBLIC	??_R3?$CDynamicPoolEx@VCAirResistanceDecorator@NEffectUpdateDecorator@@@@8 ; CDynamicPoolEx<NEffectUpdateDecorator::CAirResistanceDecorator>::`RTTI Class Hierarchy Descriptor'
PUBLIC	??_R2?$CDynamicPoolEx@VCAirResistanceDecorator@NEffectUpdateDecorator@@@@8 ; CDynamicPoolEx<NEffectUpdateDecorator::CAirResistanceDecorator>::`RTTI Base Class Array'
PUBLIC	??_R1A@?0A@EA@?$CDynamicPoolEx@VCAirResistanceDecorator@NEffectUpdateDecorator@@@@8 ; CDynamicPoolEx<NEffectUpdateDecorator::CAirResistanceDecorator>::`RTTI Base Class Descriptor at (0,-1,0,64)'
PUBLIC	??_R4?$CDynamicPoolEx@VCGravityDecorator@NEffectUpdateDecorator@@@@6B@ ; CDynamicPoolEx<NEffectUpdateDecorator::CGravityDecorator>::`RTTI Complete Object Locator'
PUBLIC	??_R0?AV?$CDynamicPoolEx@VCGravityDecorator@NEffectUpdateDecorator@@@@@8 ; CDynamicPoolEx<NEffectUpdateDecorator::CGravityDecorator> `RTTI Type Descriptor'
PUBLIC	??_R3?$CDynamicPoolEx@VCGravityDecorator@NEffectUpdateDecorator@@@@8 ; CDynamicPoolEx<NEffectUpdateDecorator::CGravityDecorator>::`RTTI Class Hierarchy Descriptor'
PUBLIC	??_R2?$CDynamicPoolEx@VCGravityDecorator@NEffectUpdateDecorator@@@@8 ; CDynamicPoolEx<NEffectUpdateDecorator::CGravityDecorator>::`RTTI Base Class Array'
PUBLIC	??_R1A@?0A@EA@?$CDynamicPoolEx@VCGravityDecorator@NEffectUpdateDecorator@@@@8 ; CDynamicPoolEx<NEffectUpdateDecorator::CGravityDecorator>::`RTTI Base Class Descriptor at (0,-1,0,64)'
PUBLIC	??_R4?$CDynamicPoolEx@VCRotationDecorator@NEffectUpdateDecorator@@@@6B@ ; CDynamicPoolEx<NEffectUpdateDecorator::CRotationDecorator>::`RTTI Complete Object Locator'
PUBLIC	??_R0?AV?$CDynamicPoolEx@VCRotationDecorator@NEffectUpdateDecorator@@@@@8 ; CDynamicPoolEx<NEffectUpdateDecorator::CRotationDecorator> `RTTI Type Descriptor'
PUBLIC	??_R3?$CDynamicPoolEx@VCRotationDecorator@NEffectUpdateDecorator@@@@8 ; CDynamicPoolEx<NEffectUpdateDecorator::CRotationDecorator>::`RTTI Class Hierarchy Descriptor'
PUBLIC	??_R2?$CDynamicPoolEx@VCRotationDecorator@NEffectUpdateDecorator@@@@8 ; CDynamicPoolEx<NEffectUpdateDecorator::CRotationDecorator>::`RTTI Base Class Array'
PUBLIC	??_R1A@?0A@EA@?$CDynamicPoolEx@VCRotationDecorator@NEffectUpdateDecorator@@@@8 ; CDynamicPoolEx<NEffectUpdateDecorator::CRotationDecorator>::`RTTI Base Class Descriptor at (0,-1,0,64)'
PUBLIC	??_7?$CDynamicPoolEx@VCRotationDecorator@NEffectUpdateDecorator@@@@6B@ ; CDynamicPoolEx<NEffectUpdateDecorator::CRotationDecorator>::`vftable'
PUBLIC	??_G?$CDynamicPoolEx@VCRotationDecorator@NEffectUpdateDecorator@@@@UAEPAXI@Z ; CDynamicPoolEx<NEffectUpdateDecorator::CRotationDecorator>::`scalar deleting destructor'
PUBLIC	??_7?$CDynamicPoolEx@VCGravityDecorator@NEffectUpdateDecorator@@@@6B@ ; CDynamicPoolEx<NEffectUpdateDecorator::CGravityDecorator>::`vftable'
PUBLIC	??_G?$CDynamicPoolEx@VCGravityDecorator@NEffectUpdateDecorator@@@@UAEPAXI@Z ; CDynamicPoolEx<NEffectUpdateDecorator::CGravityDecorator>::`scalar deleting destructor'
PUBLIC	??_7?$CDynamicPoolEx@VCAirResistanceDecorator@NEffectUpdateDecorator@@@@6B@ ; CDynamicPoolEx<NEffectUpdateDecorator::CAirResistanceDecorator>::`vftable'
PUBLIC	??_G?$CDynamicPoolEx@VCAirResistanceDecorator@NEffectUpdateDecorator@@@@UAEPAXI@Z ; CDynamicPoolEx<NEffectUpdateDecorator::CAirResistanceDecorator>::`scalar deleting destructor'
PUBLIC	??_7?$CDynamicPoolEx@VCTextureAnimationRandomDecorator@NEffectUpdateDecorator@@@@6B@ ; CDynamicPoolEx<NEffectUpdateDecorator::CTextureAnimationRandomDecorator>::`vftable'
PUBLIC	??_G?$CDynamicPoolEx@VCTextureAnimationRandomDecorator@NEffectUpdateDecorator@@@@UAEPAXI@Z ; CDynamicPoolEx<NEffectUpdateDecorator::CTextureAnimationRandomDecorator>::`scalar deleting destructor'
PUBLIC	??_7?$CDynamicPoolEx@VCTextureAnimationCCWDecorator@NEffectUpdateDecorator@@@@6B@ ; CDynamicPoolEx<NEffectUpdateDecorator::CTextureAnimationCCWDecorator>::`vftable'
PUBLIC	??_G?$CDynamicPoolEx@VCTextureAnimationCCWDecorator@NEffectUpdateDecorator@@@@UAEPAXI@Z ; CDynamicPoolEx<NEffectUpdateDecorator::CTextureAnimationCCWDecorator>::`scalar deleting destructor'
EXTRN	??_E?$CDynamicPoolEx@VCTextureAnimationCWDecorator@NEffectUpdateDecorator@@@@UAEPAXI@Z:PROC ; CDynamicPoolEx<NEffectUpdateDecorator::CTextureAnimationCWDecorator>::`vector deleting destructor'
EXTRN	??_7type_info@@6B@:QWORD			; type_info::`vftable'
EXTRN	??_E?$CDynamicPoolEx@VCNullDecorator@NEffectUpdateDecorator@@@@UAEPAXI@Z:PROC ; CDynamicPoolEx<NEffectUpdateDecorator::CNullDecorator>::`vector deleting destructor'
EXTRN	??_E?$CDynamicPoolEx@VCHeaderDecorator@NEffectUpdateDecorator@@@@UAEPAXI@Z:PROC ; CDynamicPoolEx<NEffectUpdateDecorator::CHeaderDecorator>::`vector deleting destructor'
EXTRN	??_E?$CDynamicPoolEx@VCRotationDecorator@NEffectUpdateDecorator@@@@UAEPAXI@Z:PROC ; CDynamicPoolEx<NEffectUpdateDecorator::CRotationDecorator>::`vector deleting destructor'
EXTRN	??_E?$CDynamicPoolEx@VCGravityDecorator@NEffectUpdateDecorator@@@@UAEPAXI@Z:PROC ; CDynamicPoolEx<NEffectUpdateDecorator::CGravityDecorator>::`vector deleting destructor'
EXTRN	??_E?$CDynamicPoolEx@VCAirResistanceDecorator@NEffectUpdateDecorator@@@@UAEPAXI@Z:PROC ; CDynamicPoolEx<NEffectUpdateDecorator::CAirResistanceDecorator>::`vector deleting destructor'
EXTRN	??_E?$CDynamicPoolEx@VCTextureAnimationRandomDecorator@NEffectUpdateDecorator@@@@UAEPAXI@Z:PROC ; CDynamicPoolEx<NEffectUpdateDecorator::CTextureAnimationRandomDecorator>::`vector deleting destructor'
EXTRN	??_E?$CDynamicPoolEx@VCTextureAnimationCCWDecorator@NEffectUpdateDecorator@@@@UAEPAXI@Z:PROC ; CDynamicPoolEx<NEffectUpdateDecorator::CTextureAnimationCCWDecorator>::`vector deleting destructor'
;	COMDAT ??_7?$CDynamicPoolEx@VCTextureAnimationCCWDecorator@NEffectUpdateDecorator@@@@6B@
CONST	SEGMENT
??_7?$CDynamicPoolEx@VCTextureAnimationCCWDecorator@NEffectUpdateDecorator@@@@6B@ DD FLAT:??_R4?$CDynamicPoolEx@VCTextureAnimationCCWDecorator@NEffectUpdateDecorator@@@@6B@ ; CDynamicPoolEx<NEffectUpdateDecorator::CTextureAnimationCCWDecorator>::`vftable'
	DD	FLAT:??_E?$CDynamicPoolEx@VCTextureAnimationCCWDecorator@NEffectUpdateDecorator@@@@UAEPAXI@Z
CONST	ENDS
;	COMDAT ??_7?$CDynamicPoolEx@VCTextureAnimationRandomDecorator@NEffectUpdateDecorator@@@@6B@
CONST	SEGMENT
??_7?$CDynamicPoolEx@VCTextureAnimationRandomDecorator@NEffectUpdateDecorator@@@@6B@ DD FLAT:??_R4?$CDynamicPoolEx@VCTextureAnimationRandomDecorator@NEffectUpdateDecorator@@@@6B@ ; CDynamicPoolEx<NEffectUpdateDecorator::CTextureAnimationRandomDecorator>::`vftable'
	DD	FLAT:??_E?$CDynamicPoolEx@VCTextureAnimationRandomDecorator@NEffectUpdateDecorator@@@@UAEPAXI@Z
CONST	ENDS
;	COMDAT ??_7?$CDynamicPoolEx@VCAirResistanceDecorator@NEffectUpdateDecorator@@@@6B@
CONST	SEGMENT
??_7?$CDynamicPoolEx@VCAirResistanceDecorator@NEffectUpdateDecorator@@@@6B@ DD FLAT:??_R4?$CDynamicPoolEx@VCAirResistanceDecorator@NEffectUpdateDecorator@@@@6B@ ; CDynamicPoolEx<NEffectUpdateDecorator::CAirResistanceDecorator>::`vftable'
	DD	FLAT:??_E?$CDynamicPoolEx@VCAirResistanceDecorator@NEffectUpdateDecorator@@@@UAEPAXI@Z
CONST	ENDS
;	COMDAT ??_7?$CDynamicPoolEx@VCGravityDecorator@NEffectUpdateDecorator@@@@6B@
CONST	SEGMENT
??_7?$CDynamicPoolEx@VCGravityDecorator@NEffectUpdateDecorator@@@@6B@ DD FLAT:??_R4?$CDynamicPoolEx@VCGravityDecorator@NEffectUpdateDecorator@@@@6B@ ; CDynamicPoolEx<NEffectUpdateDecorator::CGravityDecorator>::`vftable'
	DD	FLAT:??_E?$CDynamicPoolEx@VCGravityDecorator@NEffectUpdateDecorator@@@@UAEPAXI@Z
CONST	ENDS
;	COMDAT ??_7?$CDynamicPoolEx@VCRotationDecorator@NEffectUpdateDecorator@@@@6B@
CONST	SEGMENT
??_7?$CDynamicPoolEx@VCRotationDecorator@NEffectUpdateDecorator@@@@6B@ DD FLAT:??_R4?$CDynamicPoolEx@VCRotationDecorator@NEffectUpdateDecorator@@@@6B@ ; CDynamicPoolEx<NEffectUpdateDecorator::CRotationDecorator>::`vftable'
	DD	FLAT:??_E?$CDynamicPoolEx@VCRotationDecorator@NEffectUpdateDecorator@@@@UAEPAXI@Z
CONST	ENDS
;	COMDAT ??_R1A@?0A@EA@?$CDynamicPoolEx@VCRotationDecorator@NEffectUpdateDecorator@@@@8
rdata$r	SEGMENT
??_R1A@?0A@EA@?$CDynamicPoolEx@VCRotationDecorator@NEffectUpdateDecorator@@@@8 DD FLAT:??_R0?AV?$CDynamicPoolEx@VCRotationDecorator@NEffectUpdateDecorator@@@@@8 ; CDynamicPoolEx<NEffectUpdateDecorator::CRotationDecorator>::`RTTI Base Class Descriptor at (0,-1,0,64)'
	DD	00H
	DD	00H
	DD	0ffffffffH
	DD	00H
	DD	040H
	DD	FLAT:??_R3?$CDynamicPoolEx@VCRotationDecorator@NEffectUpdateDecorator@@@@8
rdata$r	ENDS
;	COMDAT ??_R2?$CDynamicPoolEx@VCRotationDecorator@NEffectUpdateDecorator@@@@8
rdata$r	SEGMENT
??_R2?$CDynamicPoolEx@VCRotationDecorator@NEffectUpdateDecorator@@@@8 DD FLAT:??_R1A@?0A@EA@?$CDynamicPoolEx@VCRotationDecorator@NEffectUpdateDecorator@@@@8 ; CDynamicPoolEx<NEffectUpdateDecorator::CRotationDecorator>::`RTTI Base Class Array'
rdata$r	ENDS
;	COMDAT ??_R3?$CDynamicPoolEx@VCRotationDecorator@NEffectUpdateDecorator@@@@8
rdata$r	SEGMENT
??_R3?$CDynamicPoolEx@VCRotationDecorator@NEffectUpdateDecorator@@@@8 DD 00H ; CDynamicPoolEx<NEffectUpdateDecorator::CRotationDecorator>::`RTTI Class Hierarchy Descriptor'
	DD	00H
	DD	01H
	DD	FLAT:??_R2?$CDynamicPoolEx@VCRotationDecorator@NEffectUpdateDecorator@@@@8
rdata$r	ENDS
;	COMDAT ??_R0?AV?$CDynamicPoolEx@VCRotationDecorator@NEffectUpdateDecorator@@@@@8
data$r	SEGMENT
??_R0?AV?$CDynamicPoolEx@VCRotationDecorator@NEffectUpdateDecorator@@@@@8 DD FLAT:??_7type_info@@6B@ ; CDynamicPoolEx<NEffectUpdateDecorator::CRotationDecorator> `RTTI Type Descriptor'
	DD	00H
	DB	'.?AV?$CDynamicPoolEx@VCRotationDecorator@NEffectUpdateDe'
	DB	'corator@@@@', 00H
data$r	ENDS
;	COMDAT ??_R4?$CDynamicPoolEx@VCRotationDecorator@NEffectUpdateDecorator@@@@6B@
rdata$r	SEGMENT
??_R4?$CDynamicPoolEx@VCRotationDecorator@NEffectUpdateDecorator@@@@6B@ DD 00H ; CDynamicPoolEx<NEffectUpdateDecorator::CRotationDecorator>::`RTTI Complete Object Locator'
	DD	00H
	DD	00H
	DD	FLAT:??_R0?AV?$CDynamicPoolEx@VCRotationDecorator@NEffectUpdateDecorator@@@@@8
	DD	FLAT:??_R3?$CDynamicPoolEx@VCRotationDecorator@NEffectUpdateDecorator@@@@8
rdata$r	ENDS
;	COMDAT ??_R1A@?0A@EA@?$CDynamicPoolEx@VCGravityDecorator@NEffectUpdateDecorator@@@@8
rdata$r	SEGMENT
??_R1A@?0A@EA@?$CDynamicPoolEx@VCGravityDecorator@NEffectUpdateDecorator@@@@8 DD FLAT:??_R0?AV?$CDynamicPoolEx@VCGravityDecorator@NEffectUpdateDecorator@@@@@8 ; CDynamicPoolEx<NEffectUpdateDecorator::CGravityDecorator>::`RTTI Base Class Descriptor at (0,-1,0,64)'
	DD	00H
	DD	00H
	DD	0ffffffffH
	DD	00H
	DD	040H
	DD	FLAT:??_R3?$CDynamicPoolEx@VCGravityDecorator@NEffectUpdateDecorator@@@@8
rdata$r	ENDS
;	COMDAT ??_R2?$CDynamicPoolEx@VCGravityDecorator@NEffectUpdateDecorator@@@@8
rdata$r	SEGMENT
??_R2?$CDynamicPoolEx@VCGravityDecorator@NEffectUpdateDecorator@@@@8 DD FLAT:??_R1A@?0A@EA@?$CDynamicPoolEx@VCGravityDecorator@NEffectUpdateDecorator@@@@8 ; CDynamicPoolEx<NEffectUpdateDecorator::CGravityDecorator>::`RTTI Base Class Array'
rdata$r	ENDS
;	COMDAT ??_R3?$CDynamicPoolEx@VCGravityDecorator@NEffectUpdateDecorator@@@@8
rdata$r	SEGMENT
??_R3?$CDynamicPoolEx@VCGravityDecorator@NEffectUpdateDecorator@@@@8 DD 00H ; CDynamicPoolEx<NEffectUpdateDecorator::CGravityDecorator>::`RTTI Class Hierarchy Descriptor'
	DD	00H
	DD	01H
	DD	FLAT:??_R2?$CDynamicPoolEx@VCGravityDecorator@NEffectUpdateDecorator@@@@8
rdata$r	ENDS
;	COMDAT ??_R0?AV?$CDynamicPoolEx@VCGravityDecorator@NEffectUpdateDecorator@@@@@8
data$r	SEGMENT
??_R0?AV?$CDynamicPoolEx@VCGravityDecorator@NEffectUpdateDecorator@@@@@8 DD FLAT:??_7type_info@@6B@ ; CDynamicPoolEx<NEffectUpdateDecorator::CGravityDecorator> `RTTI Type Descriptor'
	DD	00H
	DB	'.?AV?$CDynamicPoolEx@VCGravityDecorator@NEffectUpdateDec'
	DB	'orator@@@@', 00H
data$r	ENDS
;	COMDAT ??_R4?$CDynamicPoolEx@VCGravityDecorator@NEffectUpdateDecorator@@@@6B@
rdata$r	SEGMENT
??_R4?$CDynamicPoolEx@VCGravityDecorator@NEffectUpdateDecorator@@@@6B@ DD 00H ; CDynamicPoolEx<NEffectUpdateDecorator::CGravityDecorator>::`RTTI Complete Object Locator'
	DD	00H
	DD	00H
	DD	FLAT:??_R0?AV?$CDynamicPoolEx@VCGravityDecorator@NEffectUpdateDecorator@@@@@8
	DD	FLAT:??_R3?$CDynamicPoolEx@VCGravityDecorator@NEffectUpdateDecorator@@@@8
rdata$r	ENDS
;	COMDAT ??_R1A@?0A@EA@?$CDynamicPoolEx@VCAirResistanceDecorator@NEffectUpdateDecorator@@@@8
rdata$r	SEGMENT
??_R1A@?0A@EA@?$CDynamicPoolEx@VCAirResistanceDecorator@NEffectUpdateDecorator@@@@8 DD FLAT:??_R0?AV?$CDynamicPoolEx@VCAirResistanceDecorator@NEffectUpdateDecorator@@@@@8 ; CDynamicPoolEx<NEffectUpdateDecorator::CAirResistanceDecorator>::`RTTI Base Class Descriptor at (0,-1,0,64)'
	DD	00H
	DD	00H
	DD	0ffffffffH
	DD	00H
	DD	040H
	DD	FLAT:??_R3?$CDynamicPoolEx@VCAirResistanceDecorator@NEffectUpdateDecorator@@@@8
rdata$r	ENDS
;	COMDAT ??_R2?$CDynamicPoolEx@VCAirResistanceDecorator@NEffectUpdateDecorator@@@@8
rdata$r	SEGMENT
??_R2?$CDynamicPoolEx@VCAirResistanceDecorator@NEffectUpdateDecorator@@@@8 DD FLAT:??_R1A@?0A@EA@?$CDynamicPoolEx@VCAirResistanceDecorator@NEffectUpdateDecorator@@@@8 ; CDynamicPoolEx<NEffectUpdateDecorator::CAirResistanceDecorator>::`RTTI Base Class Array'
rdata$r	ENDS
;	COMDAT ??_R3?$CDynamicPoolEx@VCAirResistanceDecorator@NEffectUpdateDecorator@@@@8
rdata$r	SEGMENT
??_R3?$CDynamicPoolEx@VCAirResistanceDecorator@NEffectUpdateDecorator@@@@8 DD 00H ; CDynamicPoolEx<NEffectUpdateDecorator::CAirResistanceDecorator>::`RTTI Class Hierarchy Descriptor'
	DD	00H
	DD	01H
	DD	FLAT:??_R2?$CDynamicPoolEx@VCAirResistanceDecorator@NEffectUpdateDecorator@@@@8
rdata$r	ENDS
;	COMDAT ??_R0?AV?$CDynamicPoolEx@VCAirResistanceDecorator@NEffectUpdateDecorator@@@@@8
data$r	SEGMENT
??_R0?AV?$CDynamicPoolEx@VCAirResistanceDecorator@NEffectUpdateDecorator@@@@@8 DD FLAT:??_7type_info@@6B@ ; CDynamicPoolEx<NEffectUpdateDecorator::CAirResistanceDecorator> `RTTI Type Descriptor'
	DD	00H
	DB	'.?AV?$CDynamicPoolEx@VCAirResistanceDecorator@NEffectUpd'
	DB	'ateDecorator@@@@', 00H
data$r	ENDS
;	COMDAT ??_R4?$CDynamicPoolEx@VCAirResistanceDecorator@NEffectUpdateDecorator@@@@6B@
rdata$r	SEGMENT
??_R4?$CDynamicPoolEx@VCAirResistanceDecorator@NEffectUpdateDecorator@@@@6B@ DD 00H ; CDynamicPoolEx<NEffectUpdateDecorator::CAirResistanceDecorator>::`RTTI Complete Object Locator'
	DD	00H
	DD	00H
	DD	FLAT:??_R0?AV?$CDynamicPoolEx@VCAirResistanceDecorator@NEffectUpdateDecorator@@@@@8
	DD	FLAT:??_R3?$CDynamicPoolEx@VCAirResistanceDecorator@NEffectUpdateDecorator@@@@8
rdata$r	ENDS
;	COMDAT ??_R1A@?0A@EA@?$CDynamicPoolEx@VCTextureAnimationRandomDecorator@NEffectUpdateDecorator@@@@8
rdata$r	SEGMENT
??_R1A@?0A@EA@?$CDynamicPoolEx@VCTextureAnimationRandomDecorator@NEffectUpdateDecorator@@@@8 DD FLAT:??_R0?AV?$CDynamicPoolEx@VCTextureAnimationRandomDecorator@NEffectUpdateDecorator@@@@@8 ; CDynamicPoolEx<NEffectUpdateDecorator::CTextureAnimationRandomDecorator>::`RTTI Base Class Descriptor at (0,-1,0,64)'
	DD	00H
	DD	00H
	DD	0ffffffffH
	DD	00H
	DD	040H
	DD	FLAT:??_R3?$CDynamicPoolEx@VCTextureAnimationRandomDecorator@NEffectUpdateDecorator@@@@8
rdata$r	ENDS
;	COMDAT ??_R2?$CDynamicPoolEx@VCTextureAnimationRandomDecorator@NEffectUpdateDecorator@@@@8
rdata$r	SEGMENT
??_R2?$CDynamicPoolEx@VCTextureAnimationRandomDecorator@NEffectUpdateDecorator@@@@8 DD FLAT:??_R1A@?0A@EA@?$CDynamicPoolEx@VCTextureAnimationRandomDecorator@NEffectUpdateDecorator@@@@8 ; CDynamicPoolEx<NEffectUpdateDecorator::CTextureAnimationRandomDecorator>::`RTTI Base Class Array'
rdata$r	ENDS
;	COMDAT ??_R3?$CDynamicPoolEx@VCTextureAnimationRandomDecorator@NEffectUpdateDecorator@@@@8
rdata$r	SEGMENT
??_R3?$CDynamicPoolEx@VCTextureAnimationRandomDecorator@NEffectUpdateDecorator@@@@8 DD 00H ; CDynamicPoolEx<NEffectUpdateDecorator::CTextureAnimationRandomDecorator>::`RTTI Class Hierarchy Descriptor'
	DD	00H
	DD	01H
	DD	FLAT:??_R2?$CDynamicPoolEx@VCTextureAnimationRandomDecorator@NEffectUpdateDecorator@@@@8
rdata$r	ENDS
;	COMDAT ??_R0?AV?$CDynamicPoolEx@VCTextureAnimationRandomDecorator@NEffectUpdateDecorator@@@@@8
data$r	SEGMENT
??_R0?AV?$CDynamicPoolEx@VCTextureAnimationRandomDecorator@NEffectUpdateDecorator@@@@@8 DD FLAT:??_7type_info@@6B@ ; CDynamicPoolEx<NEffectUpdateDecorator::CTextureAnimationRandomDecorator> `RTTI Type Descriptor'
	DD	00H
	DB	'.?AV?$CDynamicPoolEx@VCTextureAnimationRandomDecorator@N'
	DB	'EffectUpdateDecorator@@@@', 00H
data$r	ENDS
;	COMDAT ??_R4?$CDynamicPoolEx@VCTextureAnimationRandomDecorator@NEffectUpdateDecorator@@@@6B@
rdata$r	SEGMENT
??_R4?$CDynamicPoolEx@VCTextureAnimationRandomDecorator@NEffectUpdateDecorator@@@@6B@ DD 00H ; CDynamicPoolEx<NEffectUpdateDecorator::CTextureAnimationRandomDecorator>::`RTTI Complete Object Locator'
	DD	00H
	DD	00H
	DD	FLAT:??_R0?AV?$CDynamicPoolEx@VCTextureAnimationRandomDecorator@NEffectUpdateDecorator@@@@@8
	DD	FLAT:??_R3?$CDynamicPoolEx@VCTextureAnimationRandomDecorator@NEffectUpdateDecorator@@@@8
rdata$r	ENDS
;	COMDAT ??_R1A@?0A@EA@?$CDynamicPoolEx@VCTextureAnimationCCWDecorator@NEffectUpdateDecorator@@@@8
rdata$r	SEGMENT
??_R1A@?0A@EA@?$CDynamicPoolEx@VCTextureAnimationCCWDecorator@NEffectUpdateDecorator@@@@8 DD FLAT:??_R0?AV?$CDynamicPoolEx@VCTextureAnimationCCWDecorator@NEffectUpdateDecorator@@@@@8 ; CDynamicPoolEx<NEffectUpdateDecorator::CTextureAnimationCCWDecorator>::`RTTI Base Class Descriptor at (0,-1,0,64)'
	DD	00H
	DD	00H
	DD	0ffffffffH
	DD	00H
	DD	040H
	DD	FLAT:??_R3?$CDynamicPoolEx@VCTextureAnimationCCWDecorator@NEffectUpdateDecorator@@@@8
rdata$r	ENDS
;	COMDAT ??_R2?$CDynamicPoolEx@VCTextureAnimationCCWDecorator@NEffectUpdateDecorator@@@@8
rdata$r	SEGMENT
??_R2?$CDynamicPoolEx@VCTextureAnimationCCWDecorator@NEffectUpdateDecorator@@@@8 DD FLAT:??_R1A@?0A@EA@?$CDynamicPoolEx@VCTextureAnimationCCWDecorator@NEffectUpdateDecorator@@@@8 ; CDynamicPoolEx<NEffectUpdateDecorator::CTextureAnimationCCWDecorator>::`RTTI Base Class Array'
rdata$r	ENDS
;	COMDAT ??_R3?$CDynamicPoolEx@VCTextureAnimationCCWDecorator@NEffectUpdateDecorator@@@@8
rdata$r	SEGMENT
??_R3?$CDynamicPoolEx@VCTextureAnimationCCWDecorator@NEffectUpdateDecorator@@@@8 DD 00H ; CDynamicPoolEx<NEffectUpdateDecorator::CTextureAnimationCCWDecorator>::`RTTI Class Hierarchy Descriptor'
	DD	00H
	DD	01H
	DD	FLAT:??_R2?$CDynamicPoolEx@VCTextureAnimationCCWDecorator@NEffectUpdateDecorator@@@@8
rdata$r	ENDS
;	COMDAT ??_R0?AV?$CDynamicPoolEx@VCTextureAnimationCCWDecorator@NEffectUpdateDecorator@@@@@8
data$r	SEGMENT
??_R0?AV?$CDynamicPoolEx@VCTextureAnimationCCWDecorator@NEffectUpdateDecorator@@@@@8 DD FLAT:??_7type_info@@6B@ ; CDynamicPoolEx<NEffectUpdateDecorator::CTextureAnimationCCWDecorator> `RTTI Type Descriptor'
	DD	00H
	DB	'.?AV?$CDynamicPoolEx@VCTextureAnimationCCWDecorator@NEff'
	DB	'ectUpdateDecorator@@@@', 00H
data$r	ENDS
;	COMDAT ??_R4?$CDynamicPoolEx@VCTextureAnimationCCWDecorator@NEffectUpdateDecorator@@@@6B@
rdata$r	SEGMENT
??_R4?$CDynamicPoolEx@VCTextureAnimationCCWDecorator@NEffectUpdateDecorator@@@@6B@ DD 00H ; CDynamicPoolEx<NEffectUpdateDecorator::CTextureAnimationCCWDecorator>::`RTTI Complete Object Locator'
	DD	00H
	DD	00H
	DD	FLAT:??_R0?AV?$CDynamicPoolEx@VCTextureAnimationCCWDecorator@NEffectUpdateDecorator@@@@@8
	DD	FLAT:??_R3?$CDynamicPoolEx@VCTextureAnimationCCWDecorator@NEffectUpdateDecorator@@@@8
rdata$r	ENDS
;	COMDAT ??_R1A@?0A@EA@?$CDynamicPoolEx@VCTextureAnimationCWDecorator@NEffectUpdateDecorator@@@@8
rdata$r	SEGMENT
??_R1A@?0A@EA@?$CDynamicPoolEx@VCTextureAnimationCWDecorator@NEffectUpdateDecorator@@@@8 DD FLAT:??_R0?AV?$CDynamicPoolEx@VCTextureAnimationCWDecorator@NEffectUpdateDecorator@@@@@8 ; CDynamicPoolEx<NEffectUpdateDecorator::CTextureAnimationCWDecorator>::`RTTI Base Class Descriptor at (0,-1,0,64)'
	DD	00H
	DD	00H
	DD	0ffffffffH
	DD	00H
	DD	040H
	DD	FLAT:??_R3?$CDynamicPoolEx@VCTextureAnimationCWDecorator@NEffectUpdateDecorator@@@@8
rdata$r	ENDS
;	COMDAT ??_R2?$CDynamicPoolEx@VCTextureAnimationCWDecorator@NEffectUpdateDecorator@@@@8
rdata$r	SEGMENT
??_R2?$CDynamicPoolEx@VCTextureAnimationCWDecorator@NEffectUpdateDecorator@@@@8 DD FLAT:??_R1A@?0A@EA@?$CDynamicPoolEx@VCTextureAnimationCWDecorator@NEffectUpdateDecorator@@@@8 ; CDynamicPoolEx<NEffectUpdateDecorator::CTextureAnimationCWDecorator>::`RTTI Base Class Array'
rdata$r	ENDS
;	COMDAT ??_R3?$CDynamicPoolEx@VCTextureAnimationCWDecorator@NEffectUpdateDecorator@@@@8
rdata$r	SEGMENT
??_R3?$CDynamicPoolEx@VCTextureAnimationCWDecorator@NEffectUpdateDecorator@@@@8 DD 00H ; CDynamicPoolEx<NEffectUpdateDecorator::CTextureAnimationCWDecorator>::`RTTI Class Hierarchy Descriptor'
	DD	00H
	DD	01H
	DD	FLAT:??_R2?$CDynamicPoolEx@VCTextureAnimationCWDecorator@NEffectUpdateDecorator@@@@8
rdata$r	ENDS
;	COMDAT ??_R0?AV?$CDynamicPoolEx@VCTextureAnimationCWDecorator@NEffectUpdateDecorator@@@@@8
data$r	SEGMENT
??_R0?AV?$CDynamicPoolEx@VCTextureAnimationCWDecorator@NEffectUpdateDecorator@@@@@8 DD FLAT:??_7type_info@@6B@ ; CDynamicPoolEx<NEffectUpdateDecorator::CTextureAnimationCWDecorator> `RTTI Type Descriptor'
	DD	00H
	DB	'.?AV?$CDynamicPoolEx@VCTextureAnimationCWDecorator@NEffe'
	DB	'ctUpdateDecorator@@@@', 00H
data$r	ENDS
;	COMDAT ??_R4?$CDynamicPoolEx@VCTextureAnimationCWDecorator@NEffectUpdateDecorator@@@@6B@
rdata$r	SEGMENT
??_R4?$CDynamicPoolEx@VCTextureAnimationCWDecorator@NEffectUpdateDecorator@@@@6B@ DD 00H ; CDynamicPoolEx<NEffectUpdateDecorator::CTextureAnimationCWDecorator>::`RTTI Complete Object Locator'
	DD	00H
	DD	00H
	DD	FLAT:??_R0?AV?$CDynamicPoolEx@VCTextureAnimationCWDecorator@NEffectUpdateDecorator@@@@@8
	DD	FLAT:??_R3?$CDynamicPoolEx@VCTextureAnimationCWDecorator@NEffectUpdateDecorator@@@@8
rdata$r	ENDS
;	COMDAT ??_R1A@?0A@EA@?$CDynamicPoolEx@VCNullDecorator@NEffectUpdateDecorator@@@@8
rdata$r	SEGMENT
??_R1A@?0A@EA@?$CDynamicPoolEx@VCNullDecorator@NEffectUpdateDecorator@@@@8 DD FLAT:??_R0?AV?$CDynamicPoolEx@VCNullDecorator@NEffectUpdateDecorator@@@@@8 ; CDynamicPoolEx<NEffectUpdateDecorator::CNullDecorator>::`RTTI Base Class Descriptor at (0,-1,0,64)'
	DD	00H
	DD	00H
	DD	0ffffffffH
	DD	00H
	DD	040H
	DD	FLAT:??_R3?$CDynamicPoolEx@VCNullDecorator@NEffectUpdateDecorator@@@@8
rdata$r	ENDS
;	COMDAT ??_R2?$CDynamicPoolEx@VCNullDecorator@NEffectUpdateDecorator@@@@8
rdata$r	SEGMENT
??_R2?$CDynamicPoolEx@VCNullDecorator@NEffectUpdateDecorator@@@@8 DD FLAT:??_R1A@?0A@EA@?$CDynamicPoolEx@VCNullDecorator@NEffectUpdateDecorator@@@@8 ; CDynamicPoolEx<NEffectUpdateDecorator::CNullDecorator>::`RTTI Base Class Array'
rdata$r	ENDS
;	COMDAT ??_R3?$CDynamicPoolEx@VCNullDecorator@NEffectUpdateDecorator@@@@8
rdata$r	SEGMENT
??_R3?$CDynamicPoolEx@VCNullDecorator@NEffectUpdateDecorator@@@@8 DD 00H ; CDynamicPoolEx<NEffectUpdateDecorator::CNullDecorator>::`RTTI Class Hierarchy Descriptor'
	DD	00H
	DD	01H
	DD	FLAT:??_R2?$CDynamicPoolEx@VCNullDecorator@NEffectUpdateDecorator@@@@8
rdata$r	ENDS
;	COMDAT ??_R0?AV?$CDynamicPoolEx@VCNullDecorator@NEffectUpdateDecorator@@@@@8
data$r	SEGMENT
??_R0?AV?$CDynamicPoolEx@VCNullDecorator@NEffectUpdateDecorator@@@@@8 DD FLAT:??_7type_info@@6B@ ; CDynamicPoolEx<NEffectUpdateDecorator::CNullDecorator> `RTTI Type Descriptor'
	DD	00H
	DB	'.?AV?$CDynamicPoolEx@VCNullDecorator@NEffectUpdateDecora'
	DB	'tor@@@@', 00H
data$r	ENDS
;	COMDAT ??_R4?$CDynamicPoolEx@VCNullDecorator@NEffectUpdateDecorator@@@@6B@
rdata$r	SEGMENT
??_R4?$CDynamicPoolEx@VCNullDecorator@NEffectUpdateDecorator@@@@6B@ DD 00H ; CDynamicPoolEx<NEffectUpdateDecorator::CNullDecorator>::`RTTI Complete Object Locator'
	DD	00H
	DD	00H
	DD	FLAT:??_R0?AV?$CDynamicPoolEx@VCNullDecorator@NEffectUpdateDecorator@@@@@8
	DD	FLAT:??_R3?$CDynamicPoolEx@VCNullDecorator@NEffectUpdateDecorator@@@@8
rdata$r	ENDS
;	COMDAT ??_R1A@?0A@EA@?$CDynamicPoolEx@VCHeaderDecorator@NEffectUpdateDecorator@@@@8
rdata$r	SEGMENT
??_R1A@?0A@EA@?$CDynamicPoolEx@VCHeaderDecorator@NEffectUpdateDecorator@@@@8 DD FLAT:??_R0?AV?$CDynamicPoolEx@VCHeaderDecorator@NEffectUpdateDecorator@@@@@8 ; CDynamicPoolEx<NEffectUpdateDecorator::CHeaderDecorator>::`RTTI Base Class Descriptor at (0,-1,0,64)'
	DD	00H
	DD	00H
	DD	0ffffffffH
	DD	00H
	DD	040H
	DD	FLAT:??_R3?$CDynamicPoolEx@VCHeaderDecorator@NEffectUpdateDecorator@@@@8
rdata$r	ENDS
;	COMDAT ??_R2?$CDynamicPoolEx@VCHeaderDecorator@NEffectUpdateDecorator@@@@8
rdata$r	SEGMENT
??_R2?$CDynamicPoolEx@VCHeaderDecorator@NEffectUpdateDecorator@@@@8 DD FLAT:??_R1A@?0A@EA@?$CDynamicPoolEx@VCHeaderDecorator@NEffectUpdateDecorator@@@@8 ; CDynamicPoolEx<NEffectUpdateDecorator::CHeaderDecorator>::`RTTI Base Class Array'
rdata$r	ENDS
;	COMDAT ??_R3?$CDynamicPoolEx@VCHeaderDecorator@NEffectUpdateDecorator@@@@8
rdata$r	SEGMENT
??_R3?$CDynamicPoolEx@VCHeaderDecorator@NEffectUpdateDecorator@@@@8 DD 00H ; CDynamicPoolEx<NEffectUpdateDecorator::CHeaderDecorator>::`RTTI Class Hierarchy Descriptor'
	DD	00H
	DD	01H
	DD	FLAT:??_R2?$CDynamicPoolEx@VCHeaderDecorator@NEffectUpdateDecorator@@@@8
rdata$r	ENDS
;	COMDAT ??_R0?AV?$CDynamicPoolEx@VCHeaderDecorator@NEffectUpdateDecorator@@@@@8
data$r	SEGMENT
??_R0?AV?$CDynamicPoolEx@VCHeaderDecorator@NEffectUpdateDecorator@@@@@8 DD FLAT:??_7type_info@@6B@ ; CDynamicPoolEx<NEffectUpdateDecorator::CHeaderDecorator> `RTTI Type Descriptor'
	DD	00H
	DB	'.?AV?$CDynamicPoolEx@VCHeaderDecorator@NEffectUpdateDeco'
	DB	'rator@@@@', 00H
data$r	ENDS
;	COMDAT ??_R4?$CDynamicPoolEx@VCHeaderDecorator@NEffectUpdateDecorator@@@@6B@
rdata$r	SEGMENT
??_R4?$CDynamicPoolEx@VCHeaderDecorator@NEffectUpdateDecorator@@@@6B@ DD 00H ; CDynamicPoolEx<NEffectUpdateDecorator::CHeaderDecorator>::`RTTI Complete Object Locator'
	DD	00H
	DD	00H
	DD	FLAT:??_R0?AV?$CDynamicPoolEx@VCHeaderDecorator@NEffectUpdateDecorator@@@@@8
	DD	FLAT:??_R3?$CDynamicPoolEx@VCHeaderDecorator@NEffectUpdateDecorator@@@@8
rdata$r	ENDS
;	COMDAT ??_7?$CDynamicPoolEx@VCHeaderDecorator@NEffectUpdateDecorator@@@@6B@
CONST	SEGMENT
??_7?$CDynamicPoolEx@VCHeaderDecorator@NEffectUpdateDecorator@@@@6B@ DD FLAT:??_R4?$CDynamicPoolEx@VCHeaderDecorator@NEffectUpdateDecorator@@@@6B@ ; CDynamicPoolEx<NEffectUpdateDecorator::CHeaderDecorator>::`vftable'
	DD	FLAT:??_E?$CDynamicPoolEx@VCHeaderDecorator@NEffectUpdateDecorator@@@@UAEPAXI@Z
CONST	ENDS
;	COMDAT ??_7?$CDynamicPoolEx@VCNullDecorator@NEffectUpdateDecorator@@@@6B@
CONST	SEGMENT
??_7?$CDynamicPoolEx@VCNullDecorator@NEffectUpdateDecorator@@@@6B@ DD FLAT:??_R4?$CDynamicPoolEx@VCNullDecorator@NEffectUpdateDecorator@@@@6B@ ; CDynamicPoolEx<NEffectUpdateDecorator::CNullDecorator>::`vftable'
	DD	FLAT:??_E?$CDynamicPoolEx@VCNullDecorator@NEffectUpdateDecorator@@@@UAEPAXI@Z
CONST	ENDS
;	COMDAT ??_7?$CDynamicPoolEx@VCTextureAnimationCWDecorator@NEffectUpdateDecorator@@@@6B@
CONST	SEGMENT
??_7?$CDynamicPoolEx@VCTextureAnimationCWDecorator@NEffectUpdateDecorator@@@@6B@ DD FLAT:??_R4?$CDynamicPoolEx@VCTextureAnimationCWDecorator@NEffectUpdateDecorator@@@@6B@ ; CDynamicPoolEx<NEffectUpdateDecorator::CTextureAnimationCWDecorator>::`vftable'
	DD	FLAT:??_E?$CDynamicPoolEx@VCTextureAnimationCWDecorator@NEffectUpdateDecorator@@@@UAEPAXI@Z
CONST	ENDS
PUBLIC	??_H@YGXPAXIIP6EPAX0@Z@Z			; `vector constructor iterator'
PUBLIC	?__empty_global_delete@@YAXPAX@Z		; __empty_global_delete
PUBLIC	?__empty_global_delete@@YAXPAXI@Z		; __empty_global_delete
PUBLIC	??0exception@std@@QAE@ABV01@@Z			; std::exception::exception
PUBLIC	??1exception@std@@UAE@XZ			; std::exception::~exception
PUBLIC	?what@exception@std@@UBEPBDXZ			; std::exception::what
PUBLIC	??_Gexception@std@@UAEPAXI@Z			; std::exception::`scalar deleting destructor'
PUBLIC	??0bad_alloc@std@@QAE@ABV01@@Z			; std::bad_alloc::bad_alloc
PUBLIC	??_Gbad_alloc@std@@UAEPAXI@Z			; std::bad_alloc::`scalar deleting destructor'
PUBLIC	??0bad_array_new_length@std@@QAE@XZ		; std::bad_array_new_length::bad_array_new_length
PUBLIC	??1bad_array_new_length@std@@UAE@XZ		; std::bad_array_new_length::~bad_array_new_length
PUBLIC	??0bad_array_new_length@std@@QAE@ABV01@@Z	; std::bad_array_new_length::bad_array_new_length
PUBLIC	??_Gbad_array_new_length@std@@UAEPAXI@Z		; std::bad_array_new_length::`scalar deleting destructor'
PUBLIC	?_Throw_bad_array_new_length@std@@YAXXZ		; std::_Throw_bad_array_new_length
PUBLIC	??0D3DXMATRIX@@QAE@XZ				; D3DXMATRIX::D3DXMATRIX
PUBLIC	?_Throw_tree_length_error@std@@YAXXZ		; std::_Throw_tree_length_error
PUBLIC	??$_Deallocate@$07$0A@@std@@YAXPAXI@Z		; std::_Deallocate<8,0>
PUBLIC	??$_Allocate@$07U_Default_allocate_traits@std@@$0A@@std@@YAPAXI@Z ; std::_Allocate<8,std::_Default_allocate_traits,0>
PUBLIC	??$_Allocate_manually_vector_aligned@U_Default_allocate_traits@std@@@std@@YAPAXI@Z ; std::_Allocate_manually_vector_aligned<std::_Default_allocate_traits>
PUBLIC	?_Reallocate_exactly@?$vector@UCDynamicSphereInstance@@V?$allocator@UCDynamicSphereInstance@@@std@@@std@@AAEXI@Z ; std::vector<CDynamicSphereInstance,std::allocator<CDynamicSphereInstance> >::_Reallocate_exactly
PUBLIC	?_Change_array@?$vector@UCDynamicSphereInstance@@V?$allocator@UCDynamicSphereInstance@@@std@@@std@@AAEXQAUCDynamicSphereInstance@@II@Z ; std::vector<CDynamicSphereInstance,std::allocator<CDynamicSphereInstance> >::_Change_array
PUBLIC	?_Xlength@?$vector@UCDynamicSphereInstance@@V?$allocator@UCDynamicSphereInstance@@@std@@@std@@CAXXZ ; std::vector<CDynamicSphereInstance,std::allocator<CDynamicSphereInstance> >::_Xlength
PUBLIC	?_Xrange@?$vector@UCDynamicSphereInstance@@V?$allocator@UCDynamicSphereInstance@@@std@@@std@@CAXXZ ; std::vector<CDynamicSphereInstance,std::allocator<CDynamicSphereInstance> >::_Xrange
PUBLIC	?_Getal@?$_Tree@V?$_Tmap_traits@PAVCActorInstance@@MU?$less@PAVCActorInstance@@@std@@V?$allocator@U?$pair@QAVCActorInstance@@M@std@@@3@$0A@@std@@@std@@IAEAAV?$allocator@U?$_Tree_node@U?$pair@QAVCActorInstance@@M@std@@PAX@std@@@2@XZ ; std::_Tree<std::_Tmap_traits<CActorInstance *,float,std::less<CActorInstance *>,std::allocator<std::pair<CActorInstance * const,float> >,0> >::_Getal
PUBLIC	?_Insert_node@?$_Tree_val@U?$_Tree_simple_types@U?$pair@QAVCActorInstance@@M@std@@@std@@@std@@QAEPAU?$_Tree_node@U?$pair@QAVCActorInstance@@M@std@@PAX@2@U?$_Tree_id@PAU?$_Tree_node@U?$pair@QAVCActorInstance@@M@std@@PAX@std@@@2@QAU32@@Z ; std::_Tree_val<std::_Tree_simple_types<std::pair<CActorInstance * const,float> > >::_Insert_node
PUBLIC	??1?$map@PAVCActorInstance@@MU?$less@PAVCActorInstance@@@std@@V?$allocator@U?$pair@QAVCActorInstance@@M@std@@@3@@std@@QAE@XZ ; std::map<CActorInstance *,float,std::less<CActorInstance *>,std::allocator<std::pair<CActorInstance * const,float> > >::~map<CActorInstance *,float,std::less<CActorInstance *>,std::allocator<std::pair<CActorInstance * const,float> > >
PUBLIC	?CreateCollisionInstancePiece@CActorInstance@@QAE_NKPBUSAttachingData@NRaceData@@PAUSCollisionPointInstance@1@@Z ; CActorInstance::CreateCollisionInstancePiece
PUBLIC	?UpdatePointInstance@CActorInstance@@QAEXXZ	; CActorInstance::UpdatePointInstance
PUBLIC	?UpdatePointInstance@CActorInstance@@QAEXPAUSCollisionPointInstance@1@@Z ; CActorInstance::UpdatePointInstance
PUBLIC	?CheckCollisionDetection@CActorInstance@@QAE_NPBV?$vector@UCDynamicSphereInstance@@V?$allocator@UCDynamicSphereInstance@@@std@@@std@@PAUD3DXVECTOR3@@@Z ; CActorInstance::CheckCollisionDetection
PUBLIC	?TestCollisionWithDynamicSphere@CActorInstance@@UAE_NABUCDynamicSphereInstance@@@Z ; CActorInstance::TestCollisionWithDynamicSphere
PUBLIC	?UpdateAdvancingPointInstance@CActorInstance@@QAEXXZ ; CActorInstance::UpdateAdvancingPointInstance
PUBLIC	?AvoidObject@CActorInstance@@QAE_NABVCGraphicObjectInstance@@@Z ; CActorInstance::AvoidObject
PUBLIC	?IsBlockObject@CActorInstance@@QAE_NABVCGraphicObjectInstance@@@Z ; CActorInstance::IsBlockObject
PUBLIC	?BlockMovement@CActorInstance@@QAEXXZ		; CActorInstance::BlockMovement
PUBLIC	?__TestObjectCollision@CActorInstance@@IAEHPBVCGraphicObjectInstance@@@Z ; CActorInstance::__TestObjectCollision
PUBLIC	?TestActorCollision@CActorInstance@@QAEHAAV1@@Z	; CActorInstance::TestActorCollision
PUBLIC	?TestPhysicsBlendingCollision@CActorInstance@@QAEHAAV1@@Z ; CActorInstance::TestPhysicsBlendingCollision
PUBLIC	?AttackingProcess@CActorInstance@@QAEHAAV1@@Z	; CActorInstance::AttackingProcess
PUBLIC	?__SplashAttackProcess@CActorInstance@@QAEHAAV1@@Z ; CActorInstance::__SplashAttackProcess
PUBLIC	?__NormalAttackProcess@CActorInstance@@QAEHAAV1@@Z ; CActorInstance::__NormalAttackProcess
PUBLIC	?_Insert_node@?$_Tree_val@U?$_Tree_simple_types@U?$pair@QBUSHitData@NRaceData@@V?$map@PAVCActorInstance@@MU?$less@PAVCActorInstance@@@std@@V?$allocator@U?$pair@QAVCActorInstance@@M@std@@@3@@std@@@std@@@std@@@std@@QAEPAU?$_Tree_node@U?$pair@QBUSHitData@NRaceData@@V?$map@PAVCActorInstance@@MU?$less@PAVCActorInstance@@@std@@V?$allocator@U?$pair@QAVCActorInstance@@M@std@@@3@@std@@@std@@PAX@2@U?$_Tree_id@PAU?$_Tree_node@U?$pair@QBUSHitData@NRaceData@@V?$map@PAVCActorInstance@@MU?$less@PAVCActorInstance@@@std@@V?$allocator@U?$pair@QAVCActorInstance@@M@std@@@3@@std@@@std@@PAX@std@@@2@QAU32@@Z ; std::_Tree_val<std::_Tree_simple_types<std::pair<NRaceData::SHitData const * const,std::map<CActorInstance *,float,std::less<CActorInstance *>,std::allocator<std::pair<CActorInstance * const,float> > > > > >::_Insert_node
PUBLIC	?EnableSkipCollision@CActorInstance@@QAEXXZ	; CActorInstance::EnableSkipCollision
PUBLIC	?DisableSkipCollision@CActorInstance@@QAEXXZ	; CActorInstance::DisableSkipCollision
PUBLIC	?CanSkipCollision@CActorInstance@@QAE_NXZ	; CActorInstance::CanSkipCollision
PUBLIC	?__InitializeCollisionData@CActorInstance@@IAEXXZ ; CActorInstance::__InitializeCollisionData
PUBLIC	??$insert@U?$pair@PAVCActorInstance@@M@std@@$0A@@?$map@PAVCActorInstance@@MU?$less@PAVCActorInstance@@@std@@V?$allocator@U?$pair@QAVCActorInstance@@M@std@@@3@@std@@QAE?AU?$pair@V?$_Tree_iterator@V?$_Tree_val@U?$_Tree_simple_types@U?$pair@QAVCActorInstance@@M@std@@@std@@@std@@@std@@_N@1@$$QAU?$pair@PAVCActorInstance@@M@1@@Z ; std::map<CActorInstance *,float,std::less<CActorInstance *>,std::allocator<std::pair<CActorInstance * const,float> > >::insert<std::pair<CActorInstance *,float>,0>
PUBLIC	??1?$pair@PBUSHitData@NRaceData@@V?$map@PAVCActorInstance@@MU?$less@PAVCActorInstance@@@std@@V?$allocator@U?$pair@QAVCActorInstance@@M@std@@@3@@std@@@std@@QAE@XZ ; std::pair<NRaceData::SHitData const *,std::map<CActorInstance *,float,std::less<CActorInstance *>,std::allocator<std::pair<CActorInstance * const,float> > > >::~pair<NRaceData::SHitData const *,std::map<CActorInstance *,float,std::less<CActorInstance *>,std::allocator<std::pair<CActorInstance * const,float> > > >
PUBLIC	??$_Const_cast@$$CBUCDynamicSphereInstance@@@std@@YAPAUCDynamicSphereInstance@@PBU1@@Z ; std::_Const_cast<CDynamicSphereInstance const >
PUBLIC	??$_Erase_head@V?$allocator@U?$_Tree_node@U?$pair@QAVCActorInstance@@M@std@@PAX@std@@@std@@@?$_Tree_val@U?$_Tree_simple_types@U?$pair@QAVCActorInstance@@M@std@@@std@@@std@@QAEXAAV?$allocator@U?$_Tree_node@U?$pair@QAVCActorInstance@@M@std@@PAX@std@@@1@@Z ; std::_Tree_val<std::_Tree_simple_types<std::pair<CActorInstance * const,float> > >::_Erase_head<std::allocator<std::_Tree_node<std::pair<CActorInstance * const,float>,void *> > >
PUBLIC	??$_Emplace_reallocate@ABUCDynamicSphereInstance@@@?$vector@UCDynamicSphereInstance@@V?$allocator@UCDynamicSphereInstance@@@std@@@std@@QAEPAUCDynamicSphereInstance@@QAU2@ABU2@@Z ; std::vector<CDynamicSphereInstance,std::allocator<CDynamicSphereInstance> >::_Emplace_reallocate<CDynamicSphereInstance const &>
PUBLIC	??1?$CDynamicPoolEx@VCRotationDecorator@NEffectUpdateDecorator@@@@UAE@XZ ; CDynamicPoolEx<NEffectUpdateDecorator::CRotationDecorator>::~CDynamicPoolEx<NEffectUpdateDecorator::CRotationDecorator>
PUBLIC	?Delete@?$CDynamicPoolEx@VCRotationDecorator@NEffectUpdateDecorator@@@@KAXPAVCRotationDecorator@NEffectUpdateDecorator@@@Z ; CDynamicPoolEx<NEffectUpdateDecorator::CRotationDecorator>::Delete
PUBLIC	??1?$CDynamicPoolEx@VCGravityDecorator@NEffectUpdateDecorator@@@@UAE@XZ ; CDynamicPoolEx<NEffectUpdateDecorator::CGravityDecorator>::~CDynamicPoolEx<NEffectUpdateDecorator::CGravityDecorator>
PUBLIC	?Delete@?$CDynamicPoolEx@VCGravityDecorator@NEffectUpdateDecorator@@@@KAXPAVCGravityDecorator@NEffectUpdateDecorator@@@Z ; CDynamicPoolEx<NEffectUpdateDecorator::CGravityDecorator>::Delete
PUBLIC	??1?$CDynamicPoolEx@VCAirResistanceDecorator@NEffectUpdateDecorator@@@@UAE@XZ ; CDynamicPoolEx<NEffectUpdateDecorator::CAirResistanceDecorator>::~CDynamicPoolEx<NEffectUpdateDecorator::CAirResistanceDecorator>
PUBLIC	?Delete@?$CDynamicPoolEx@VCAirResistanceDecorator@NEffectUpdateDecorator@@@@KAXPAVCAirResistanceDecorator@NEffectUpdateDecorator@@@Z ; CDynamicPoolEx<NEffectUpdateDecorator::CAirResistanceDecorator>::Delete
PUBLIC	??1?$CDynamicPoolEx@VCTextureAnimationRandomDecorator@NEffectUpdateDecorator@@@@UAE@XZ ; CDynamicPoolEx<NEffectUpdateDecorator::CTextureAnimationRandomDecorator>::~CDynamicPoolEx<NEffectUpdateDecorator::CTextureAnimationRandomDecorator>
PUBLIC	?Delete@?$CDynamicPoolEx@VCTextureAnimationRandomDecorator@NEffectUpdateDecorator@@@@KAXPAVCTextureAnimationRandomDecorator@NEffectUpdateDecorator@@@Z ; CDynamicPoolEx<NEffectUpdateDecorator::CTextureAnimationRandomDecorator>::Delete
PUBLIC	??1?$CDynamicPoolEx@VCTextureAnimationCCWDecorator@NEffectUpdateDecorator@@@@UAE@XZ ; CDynamicPoolEx<NEffectUpdateDecorator::CTextureAnimationCCWDecorator>::~CDynamicPoolEx<NEffectUpdateDecorator::CTextureAnimationCCWDecorator>
PUBLIC	?Delete@?$CDynamicPoolEx@VCTextureAnimationCCWDecorator@NEffectUpdateDecorator@@@@KAXPAVCTextureAnimationCCWDecorator@NEffectUpdateDecorator@@@Z ; CDynamicPoolEx<NEffectUpdateDecorator::CTextureAnimationCCWDecorator>::Delete
PUBLIC	??1?$CDynamicPoolEx@VCTextureAnimationCWDecorator@NEffectUpdateDecorator@@@@UAE@XZ ; CDynamicPoolEx<NEffectUpdateDecorator::CTextureAnimationCWDecorator>::~CDynamicPoolEx<NEffectUpdateDecorator::CTextureAnimationCWDecorator>
PUBLIC	?Delete@?$CDynamicPoolEx@VCTextureAnimationCWDecorator@NEffectUpdateDecorator@@@@KAXPAVCTextureAnimationCWDecorator@NEffectUpdateDecorator@@@Z ; CDynamicPoolEx<NEffectUpdateDecorator::CTextureAnimationCWDecorator>::Delete
PUBLIC	??1?$CDynamicPoolEx@VCNullDecorator@NEffectUpdateDecorator@@@@UAE@XZ ; CDynamicPoolEx<NEffectUpdateDecorator::CNullDecorator>::~CDynamicPoolEx<NEffectUpdateDecorator::CNullDecorator>
PUBLIC	?Delete@?$CDynamicPoolEx@VCNullDecorator@NEffectUpdateDecorator@@@@KAXPAVCNullDecorator@NEffectUpdateDecorator@@@Z ; CDynamicPoolEx<NEffectUpdateDecorator::CNullDecorator>::Delete
PUBLIC	??1?$CDynamicPoolEx@VCHeaderDecorator@NEffectUpdateDecorator@@@@UAE@XZ ; CDynamicPoolEx<NEffectUpdateDecorator::CHeaderDecorator>::~CDynamicPoolEx<NEffectUpdateDecorator::CHeaderDecorator>
PUBLIC	?Delete@?$CDynamicPoolEx@VCHeaderDecorator@NEffectUpdateDecorator@@@@KAXPAVCHeaderDecorator@NEffectUpdateDecorator@@@Z ; CDynamicPoolEx<NEffectUpdateDecorator::CHeaderDecorator>::Delete
PUBLIC	??$_Destroy_range@V?$allocator@UCDynamicSphereInstance@@@std@@@std@@YAXPAUCDynamicSphereInstance@@QAU1@AAV?$allocator@UCDynamicSphereInstance@@@0@@Z ; std::_Destroy_range<std::allocator<CDynamicSphereInstance> >
PUBLIC	??$_Uninitialized_move@PAUCDynamicSphereInstance@@V?$allocator@UCDynamicSphereInstance@@@std@@@std@@YAPAUCDynamicSphereInstance@@QAU1@0PAU1@AAV?$allocator@UCDynamicSphereInstance@@@0@@Z ; std::_Uninitialized_move<CDynamicSphereInstance *,std::allocator<CDynamicSphereInstance> >
PUBLIC	??$_Destroy_range@V?$allocator@PAVCHeaderDecorator@NEffectUpdateDecorator@@@std@@@std@@YAXPAPAVCHeaderDecorator@NEffectUpdateDecorator@@QAPAV12@AAV?$allocator@PAVCHeaderDecorator@NEffectUpdateDecorator@@@0@@Z ; std::_Destroy_range<std::allocator<NEffectUpdateDecorator::CHeaderDecorator *> >
PUBLIC	??$_Destroy_range@V?$allocator@PAVCNullDecorator@NEffectUpdateDecorator@@@std@@@std@@YAXPAPAVCNullDecorator@NEffectUpdateDecorator@@QAPAV12@AAV?$allocator@PAVCNullDecorator@NEffectUpdateDecorator@@@0@@Z ; std::_Destroy_range<std::allocator<NEffectUpdateDecorator::CNullDecorator *> >
PUBLIC	??$_Destroy_range@V?$allocator@PAVCTextureAnimationCWDecorator@NEffectUpdateDecorator@@@std@@@std@@YAXPAPAVCTextureAnimationCWDecorator@NEffectUpdateDecorator@@QAPAV12@AAV?$allocator@PAVCTextureAnimationCWDecorator@NEffectUpdateDecorator@@@0@@Z ; std::_Destroy_range<std::allocator<NEffectUpdateDecorator::CTextureAnimationCWDecorator *> >
PUBLIC	??$_Destroy_range@V?$allocator@PAVCTextureAnimationCCWDecorator@NEffectUpdateDecorator@@@std@@@std@@YAXPAPAVCTextureAnimationCCWDecorator@NEffectUpdateDecorator@@QAPAV12@AAV?$allocator@PAVCTextureAnimationCCWDecorator@NEffectUpdateDecorator@@@0@@Z ; std::_Destroy_range<std::allocator<NEffectUpdateDecorator::CTextureAnimationCCWDecorator *> >
PUBLIC	??$_Destroy_range@V?$allocator@PAVCTextureAnimationRandomDecorator@NEffectUpdateDecorator@@@std@@@std@@YAXPAPAVCTextureAnimationRandomDecorator@NEffectUpdateDecorator@@QAPAV12@AAV?$allocator@PAVCTextureAnimationRandomDecorator@NEffectUpdateDecorator@@@0@@Z ; std::_Destroy_range<std::allocator<NEffectUpdateDecorator::CTextureAnimationRandomDecorator *> >
PUBLIC	??$_Destroy_range@V?$allocator@PAVCAirResistanceDecorator@NEffectUpdateDecorator@@@std@@@std@@YAXPAPAVCAirResistanceDecorator@NEffectUpdateDecorator@@QAPAV12@AAV?$allocator@PAVCAirResistanceDecorator@NEffectUpdateDecorator@@@0@@Z ; std::_Destroy_range<std::allocator<NEffectUpdateDecorator::CAirResistanceDecorator *> >
PUBLIC	??$_Destroy_range@V?$allocator@PAVCGravityDecorator@NEffectUpdateDecorator@@@std@@@std@@YAXPAPAVCGravityDecorator@NEffectUpdateDecorator@@QAPAV12@AAV?$allocator@PAVCGravityDecorator@NEffectUpdateDecorator@@@0@@Z ; std::_Destroy_range<std::allocator<NEffectUpdateDecorator::CGravityDecorator *> >
PUBLIC	??$_Destroy_range@V?$allocator@PAVCRotationDecorator@NEffectUpdateDecorator@@@std@@@std@@YAXPAPAVCRotationDecorator@NEffectUpdateDecorator@@QAPAV12@AAV?$allocator@PAVCRotationDecorator@NEffectUpdateDecorator@@@0@@Z ; std::_Destroy_range<std::allocator<NEffectUpdateDecorator::CRotationDecorator *> >
PUBLIC	??$_Find_lower_bound@PBUSHitData@NRaceData@@@?$_Tree@V?$_Tmap_traits@PBUSHitData@NRaceData@@V?$map@PAVCActorInstance@@MU?$less@PAVCActorInstance@@@std@@V?$allocator@U?$pair@QAVCActorInstance@@M@std@@@3@@std@@U?$less@PBUSHitData@NRaceData@@@4@V?$allocator@U?$pair@QBUSHitData@NRaceData@@V?$map@PAVCActorInstance@@MU?$less@PAVCActorInstance@@@std@@V?$allocator@U?$pair@QAVCActorInstance@@M@std@@@3@@std@@@std@@@4@$0A@@std@@@std@@IBE?AU?$_Tree_find_result@PAU?$_Tree_node@U?$pair@QBUSHitData@NRaceData@@V?$map@PAVCActorInstance@@MU?$less@PAVCActorInstance@@@std@@V?$allocator@U?$pair@QAVCActorInstance@@M@std@@@3@@std@@@std@@PAX@std@@@1@ABQBUSHitData@NRaceData@@@Z ; std::_Tree<std::_Tmap_traits<NRaceData::SHitData const *,std::map<CActorInstance *,float,std::less<CActorInstance *>,std::allocator<std::pair<CActorInstance * const,float> > >,std::less<NRaceData::SHitData const *>,std::allocator<std::pair<NRaceData::SHitData const * const,std::map<CActorInstance *,float,std::less<CActorInstance *>,std::allocator<std::pair<CActorInstance * const,float> > > > >,0> >::_Find_lower_bound<NRaceData::SHitData const *>
PUBLIC	??$_Find_lower_bound@PAVCActorInstance@@@?$_Tree@V?$_Tmap_traits@PAVCActorInstance@@MU?$less@PAVCActorInstance@@@std@@V?$allocator@U?$pair@QAVCActorInstance@@M@std@@@3@$0A@@std@@@std@@IBE?AU?$_Tree_find_result@PAU?$_Tree_node@U?$pair@QAVCActorInstance@@M@std@@PAX@std@@@1@ABQAVCActorInstance@@@Z ; std::_Tree<std::_Tmap_traits<CActorInstance *,float,std::less<CActorInstance *>,std::allocator<std::pair<CActorInstance * const,float> >,0> >::_Find_lower_bound<CActorInstance *>
PUBLIC	??$_Erase_tree@V?$allocator@U?$_Tree_node@U?$pair@QAVCActorInstance@@M@std@@PAX@std@@@std@@@?$_Tree_val@U?$_Tree_simple_types@U?$pair@QAVCActorInstance@@M@std@@@std@@@std@@QAEXAAV?$allocator@U?$_Tree_node@U?$pair@QAVCActorInstance@@M@std@@PAX@std@@@1@PAU?$_Tree_node@U?$pair@QAVCActorInstance@@M@std@@PAX@1@@Z ; std::_Tree_val<std::_Tree_simple_types<std::pair<CActorInstance * const,float> > >::_Erase_tree<std::allocator<std::_Tree_node<std::pair<CActorInstance * const,float>,void *> > >
PUBLIC	??$_Construct_in_place@PAU?$_Tree_node@U?$pair@QAVCActorInstance@@M@std@@PAX@std@@ABQAU12@@std@@YAXAAPAU?$_Tree_node@U?$pair@QAVCActorInstance@@M@std@@PAX@0@ABQAU10@@Z ; std::_Construct_in_place<std::_Tree_node<std::pair<CActorInstance * const,float>,void *> *,std::_Tree_node<std::pair<CActorInstance * const,float>,void *> * const &>
PUBLIC	??$_Destroy_in_place@PAU?$_Tree_node@U?$pair@QAVCActorInstance@@M@std@@PAX@std@@@std@@YAXAAPAU?$_Tree_node@U?$pair@QAVCActorInstance@@M@std@@PAX@0@@Z ; std::_Destroy_in_place<std::_Tree_node<std::pair<CActorInstance * const,float>,void *> *>
PUBLIC	??1?$_Alloc_construct_ptr@V?$allocator@U?$_Tree_node@U?$pair@QAVCActorInstance@@M@std@@PAX@std@@@std@@@std@@QAE@XZ ; std::_Alloc_construct_ptr<std::allocator<std::_Tree_node<std::pair<CActorInstance * const,float>,void *> > >::~_Alloc_construct_ptr<std::allocator<std::_Tree_node<std::pair<CActorInstance * const,float>,void *> > >
PUBLIC	??1?$_Alloc_construct_ptr@V?$allocator@U?$_Tree_node@U?$pair@QBUSHitData@NRaceData@@V?$map@PAVCActorInstance@@MU?$less@PAVCActorInstance@@@std@@V?$allocator@U?$pair@QAVCActorInstance@@M@std@@@3@@std@@@std@@PAX@std@@@std@@@std@@QAE@XZ ; std::_Alloc_construct_ptr<std::allocator<std::_Tree_node<std::pair<NRaceData::SHitData const * const,std::map<CActorInstance *,float,std::less<CActorInstance *>,std::allocator<std::pair<CActorInstance * const,float> > > >,void *> > >::~_Alloc_construct_ptr<std::allocator<std::_Tree_node<std::pair<NRaceData::SHitData const * const,std::map<CActorInstance *,float,std::less<CActorInstance *>,std::allocator<std::pair<CActorInstance * const,float> > > >,void *> > >
PUBLIC	??1?$_Tree_temp_node_alloc@V?$allocator@U?$_Tree_node@U?$pair@QBUSHitData@NRaceData@@V?$map@PAVCActorInstance@@MU?$less@PAVCActorInstance@@@std@@V?$allocator@U?$pair@QAVCActorInstance@@M@std@@@3@@std@@@std@@PAX@std@@@std@@@std@@QAE@XZ ; std::_Tree_temp_node_alloc<std::allocator<std::_Tree_node<std::pair<NRaceData::SHitData const * const,std::map<CActorInstance *,float,std::less<CActorInstance *>,std::allocator<std::pair<CActorInstance * const,float> > > >,void *> > >::~_Tree_temp_node_alloc<std::allocator<std::_Tree_node<std::pair<NRaceData::SHitData const * const,std::map<CActorInstance *,float,std::less<CActorInstance *>,std::allocator<std::pair<CActorInstance * const,float> > > >,void *> > >
PUBLIC	??1?$_Tree_head_scoped_ptr@V?$allocator@U?$_Tree_node@U?$pair@QAVCActorInstance@@M@std@@PAX@std@@@std@@V?$_Tree_val@U?$_Tree_simple_types@U?$pair@QAVCActorInstance@@M@std@@@std@@@2@@std@@QAE@XZ ; std::_Tree_head_scoped_ptr<std::allocator<std::_Tree_node<std::pair<CActorInstance * const,float>,void *> >,std::_Tree_val<std::_Tree_simple_types<std::pair<CActorInstance * const,float> > > >::~_Tree_head_scoped_ptr<std::allocator<std::_Tree_node<std::pair<CActorInstance * const,float>,void *> >,std::_Tree_val<std::_Tree_simple_types<std::pair<CActorInstance * const,float> > > >
PUBLIC	??$_Destroy_in_place@PAU?$_Tree_node@U?$pair@QBUSHitData@NRaceData@@V?$map@PAVCActorInstance@@MU?$less@PAVCActorInstance@@@std@@V?$allocator@U?$pair@QAVCActorInstance@@M@std@@@3@@std@@@std@@PAX@std@@@std@@YAXAAPAU?$_Tree_node@U?$pair@QBUSHitData@NRaceData@@V?$map@PAVCActorInstance@@MU?$less@PAVCActorInstance@@@std@@V?$allocator@U?$pair@QAVCActorInstance@@M@std@@@3@@std@@@std@@PAX@0@@Z ; std::_Destroy_in_place<std::_Tree_node<std::pair<NRaceData::SHitData const * const,std::map<CActorInstance *,float,std::less<CActorInstance *>,std::allocator<std::pair<CActorInstance * const,float> > > >,void *> *>
PUBLIC	??$_Construct_in_place@PAU?$_Tree_node@U?$pair@QAVCActorInstance@@M@std@@PAX@std@@AAPAU12@@std@@YAXAAPAU?$_Tree_node@U?$pair@QAVCActorInstance@@M@std@@PAX@0@0@Z ; std::_Construct_in_place<std::_Tree_node<std::pair<CActorInstance * const,float>,void *> *,std::_Tree_node<std::pair<CActorInstance * const,float>,void *> * &>
PUBLIC	??$_Construct_in_place@PAU?$_Tree_node@U?$pair@QBUSHitData@NRaceData@@V?$map@PAVCActorInstance@@MU?$less@PAVCActorInstance@@@std@@V?$allocator@U?$pair@QAVCActorInstance@@M@std@@@3@@std@@@std@@PAX@std@@AAPAU12@@std@@YAXAAPAU?$_Tree_node@U?$pair@QBUSHitData@NRaceData@@V?$map@PAVCActorInstance@@MU?$less@PAVCActorInstance@@@std@@V?$allocator@U?$pair@QAVCActorInstance@@M@std@@@3@@std@@@std@@PAX@0@0@Z ; std::_Construct_in_place<std::_Tree_node<std::pair<NRaceData::SHitData const * const,std::map<CActorInstance *,float,std::less<CActorInstance *>,std::allocator<std::pair<CActorInstance * const,float> > > >,void *> *,std::_Tree_node<std::pair<NRaceData::SHitData const * const,std::map<CActorInstance *,float,std::less<CActorInstance *>,std::allocator<std::pair<CActorInstance * const,float> > > >,void *> * &>
PUBLIC	??$_Copy_nodes@U_Copy_tag@?$_Tree@V?$_Tmap_traits@PAVCActorInstance@@MU?$less@PAVCActorInstance@@@std@@V?$allocator@U?$pair@QAVCActorInstance@@M@std@@@3@$0A@@std@@@std@@@?$_Tree@V?$_Tmap_traits@PAVCActorInstance@@MU?$less@PAVCActorInstance@@@std@@V?$allocator@U?$pair@QAVCActorInstance@@M@std@@@3@$0A@@std@@@std@@IAEPAU?$_Tree_node@U?$pair@QAVCActorInstance@@M@std@@PAX@1@PAU21@0U_Copy_tag@01@@Z ; std::_Tree<std::_Tmap_traits<CActorInstance *,float,std::less<CActorInstance *>,std::allocator<std::pair<CActorInstance * const,float> >,0> >::_Copy_nodes<std::_Tree<std::_Tmap_traits<CActorInstance *,float,std::less<CActorInstance *>,std::allocator<std::pair<CActorInstance * const,float> >,0> >::_Copy_tag>
PUBLIC	??$_Erase_tree_and_orphan@V?$allocator@U?$_Tree_node@U?$pair@QAVCActorInstance@@M@std@@PAX@std@@@std@@@?$_Tree_val@U?$_Tree_simple_types@U?$pair@QAVCActorInstance@@M@std@@@std@@@std@@QAEXAAV?$allocator@U?$_Tree_node@U?$pair@QAVCActorInstance@@M@std@@PAX@std@@@1@PAU?$_Tree_node@U?$pair@QAVCActorInstance@@M@std@@PAX@1@@Z ; std::_Tree_val<std::_Tree_simple_types<std::pair<CActorInstance * const,float> > >::_Erase_tree_and_orphan<std::allocator<std::_Tree_node<std::pair<CActorInstance * const,float>,void *> > >
PUBLIC	??_7exception@std@@6B@				; std::exception::`vftable'
PUBLIC	??_C@_0BC@EOODALEL@Unknown?5exception@		; `string'
PUBLIC	??_7bad_alloc@std@@6B@				; std::bad_alloc::`vftable'
PUBLIC	??_7bad_array_new_length@std@@6B@		; std::bad_array_new_length::`vftable'
PUBLIC	??_C@_0BF@KINCDENJ@bad?5array?5new?5length@	; `string'
PUBLIC	__TI3?AVbad_array_new_length@std@@
PUBLIC	__CTA3?AVbad_array_new_length@std@@
PUBLIC	??_R0?AVbad_array_new_length@std@@@8		; std::bad_array_new_length `RTTI Type Descriptor'
PUBLIC	__CT??_R0?AVbad_array_new_length@std@@@8??0bad_array_new_length@std@@QAE@ABV01@@Z12
PUBLIC	??_R0?AVbad_alloc@std@@@8			; std::bad_alloc `RTTI Type Descriptor'
PUBLIC	__CT??_R0?AVbad_alloc@std@@@8??0bad_alloc@std@@QAE@ABV01@@Z12
PUBLIC	??_R0?AVexception@std@@@8			; std::exception `RTTI Type Descriptor'
PUBLIC	__CT??_R0?AVexception@std@@@8??0exception@std@@QAE@ABV01@@Z12
PUBLIC	??_C@_0BB@GCADKGJO@map?1set?5too?5long@		; `string'
PUBLIC	?ms_singleton@?$CSingleton@VCTimer@@@@0PAVCTimer@@A ; CSingleton<CTimer>::ms_singleton
PUBLIC	??_R4exception@std@@6B@				; std::exception::`RTTI Complete Object Locator'
PUBLIC	??_R3exception@std@@8				; std::exception::`RTTI Class Hierarchy Descriptor'
PUBLIC	??_R2exception@std@@8				; std::exception::`RTTI Base Class Array'
PUBLIC	??_R1A@?0A@EA@exception@std@@8			; std::exception::`RTTI Base Class Descriptor at (0,-1,0,64)'
PUBLIC	??_R4bad_alloc@std@@6B@				; std::bad_alloc::`RTTI Complete Object Locator'
PUBLIC	??_R3bad_alloc@std@@8				; std::bad_alloc::`RTTI Class Hierarchy Descriptor'
PUBLIC	??_R2bad_alloc@std@@8				; std::bad_alloc::`RTTI Base Class Array'
PUBLIC	??_R1A@?0A@EA@bad_alloc@std@@8			; std::bad_alloc::`RTTI Base Class Descriptor at (0,-1,0,64)'
PUBLIC	??_R4bad_array_new_length@std@@6B@		; std::bad_array_new_length::`RTTI Complete Object Locator'
PUBLIC	??_R3bad_array_new_length@std@@8		; std::bad_array_new_length::`RTTI Class Hierarchy Descriptor'
PUBLIC	??_R2bad_array_new_length@std@@8		; std::bad_array_new_length::`RTTI Base Class Array'
PUBLIC	??_R1A@?0A@EA@bad_array_new_length@std@@8	; std::bad_array_new_length::`RTTI Base Class Descriptor at (0,-1,0,64)'
PUBLIC	?ms_kPool@?$CPooledObject@VCHeaderDecorator@NEffectUpdateDecorator@@@@1V?$CDynamicPoolEx@VCHeaderDecorator@NEffectUpdateDecorator@@@@A ; CPooledObject<NEffectUpdateDecorator::CHeaderDecorator>::ms_kPool
PUBLIC	?ms_kPool@?$CPooledObject@VCNullDecorator@NEffectUpdateDecorator@@@@1V?$CDynamicPoolEx@VCNullDecorator@NEffectUpdateDecorator@@@@A ; CPooledObject<NEffectUpdateDecorator::CNullDecorator>::ms_kPool
PUBLIC	?ms_kPool@?$CPooledObject@VCTextureAnimationCWDecorator@NEffectUpdateDecorator@@@@1V?$CDynamicPoolEx@VCTextureAnimationCWDecorator@NEffectUpdateDecorator@@@@A ; CPooledObject<NEffectUpdateDecorator::CTextureAnimationCWDecorator>::ms_kPool
PUBLIC	?ms_kPool@?$CPooledObject@VCTextureAnimationCCWDecorator@NEffectUpdateDecorator@@@@1V?$CDynamicPoolEx@VCTextureAnimationCCWDecorator@NEffectUpdateDecorator@@@@A ; CPooledObject<NEffectUpdateDecorator::CTextureAnimationCCWDecorator>::ms_kPool
PUBLIC	?ms_kPool@?$CPooledObject@VCTextureAnimationRandomDecorator@NEffectUpdateDecorator@@@@1V?$CDynamicPoolEx@VCTextureAnimationRandomDecorator@NEffectUpdateDecorator@@@@A ; CPooledObject<NEffectUpdateDecorator::CTextureAnimationRandomDecorator>::ms_kPool
PUBLIC	?ms_kPool@?$CPooledObject@VCAirResistanceDecorator@NEffectUpdateDecorator@@@@1V?$CDynamicPoolEx@VCAirResistanceDecorator@NEffectUpdateDecorator@@@@A ; CPooledObject<NEffectUpdateDecorator::CAirResistanceDecorator>::ms_kPool
PUBLIC	?ms_kPool@?$CPooledObject@VCGravityDecorator@NEffectUpdateDecorator@@@@1V?$CDynamicPoolEx@VCGravityDecorator@NEffectUpdateDecorator@@@@A ; CPooledObject<NEffectUpdateDecorator::CGravityDecorator>::ms_kPool
PUBLIC	?ms_kPool@?$CPooledObject@VCRotationDecorator@NEffectUpdateDecorator@@@@1V?$CDynamicPoolEx@VCRotationDecorator@NEffectUpdateDecorator@@@@A ; CPooledObject<NEffectUpdateDecorator::CRotationDecorator>::ms_kPool
PUBLIC	??_C@_0GM@IMNFDCHL@CActorInstance?3?3UpdateAdvancing@ ; `string'
PUBLIC	??_C@_0GI@OFDOMPIB@CActorInstance?3?3UpdateAdvancing@ ; `string'
PUBLIC	??_C@_0BJ@DHFDPMIM@invalid?5vector?5subscript@	; `string'
PUBLIC	??_C@_0BA@FOIKENOD@vector?5too?5long@		; `string'
PUBLIC	__real@3c8efa35
PUBLIC	__real@3f000000
PUBLIC	__real@42480000
PUBLIC	__real@47afc800
PUBLIC	__real@48742400
PUBLIC	__real@491c4000
PUBLIC	__real@49742400
EXTRN	??2@YAPAXI@Z:PROC				; operator new
EXTRN	??3@YAXPAX@Z:PROC				; operator delete
EXTRN	??3@YAXPAXI@Z:PROC				; operator delete
EXTRN	_atexit:PROC
EXTRN	__invalid_parameter_noinfo_noreturn:PROC
EXTRN	___std_exception_copy:PROC
EXTRN	___std_exception_destroy:PROC
EXTRN	??_Eexception@std@@UAEPAXI@Z:PROC		; std::exception::`vector deleting destructor'
EXTRN	??_Ebad_alloc@std@@UAEPAXI@Z:PROC		; std::bad_alloc::`vector deleting destructor'
EXTRN	??_Ebad_array_new_length@std@@UAEPAXI@Z:PROC	; std::bad_array_new_length::`vector deleting destructor'
EXTRN	?_Xlength_error@std@@YAXPBD@Z:PROC		; std::_Xlength_error
EXTRN	?_Xout_of_range@std@@YAXPBD@Z:PROC		; std::_Xout_of_range
EXTRN	_D3DXMatrixMultiply@12:PROC
EXTRN	_D3DXMatrixTranslation@16:PROC
EXTRN	?Tracenf@@YAXPBDZZ:PROC				; Tracenf
EXTRN	?GetElapsedSecond@CTimer@@QAEMXZ:PROC		; CTimer::GetElapsedSecond
EXTRN	?GetAttribute@CSphereCollisionInstance@@QBEABUSSphereData@@XZ:PROC ; CSphereCollisionInstance::GetAttribute
EXTRN	?DetectCollisionDynamicSphereVSDynamicSphere@@YA_NABUCDynamicSphereInstance@@0@Z:PROC ; DetectCollisionDynamicSphereVSDynamicSphere
EXTRN	?DetectCollisionDynamicZCylinderVSDynamicZCylinder@@YA_NABUCDynamicSphereInstance@@0@Z:PROC ; DetectCollisionDynamicZCylinderVSDynamicZCylinder
EXTRN	?GetPosition@CGraphicObjectInstance@@QBEABUD3DXVECTOR3@@XZ:PROC ; CGraphicObjectInstance::GetPosition
EXTRN	?MovementCollisionDynamicSphere@CGraphicObjectInstance@@QBE_NABUCDynamicSphereInstance@@@Z:PROC ; CGraphicObjectInstance::MovementCollisionDynamicSphere
EXTRN	?GetMotionAttackDataPointer@CRaceMotionData@@QBEPBUSMotionAttackData@NRaceData@@XZ:PROC ; CRaceMotionData::GetMotionAttackDataPointer
EXTRN	?GetLastPosition@CPhysicsObject@@QAEXPAUD3DXVECTOR3@@@Z:PROC ; CPhysicsObject::GetLastPosition
EXTRN	?GetBoneMatrixPointer@CGrannyModelInstance@@QBEPBMH@Z:PROC ; CGrannyModelInstance::GetBoneMatrixPointer
EXTRN	?GetCompositeBoneMatrixPointer@CGrannyModelInstance@@QBEPBMH@Z:PROC ; CGrannyModelInstance::GetCompositeBoneMatrixPointer
EXTRN	?GetBoneIndexByName@CGrannyModelInstance@@QBE_NPBDPAH@Z:PROC ; CGrannyModelInstance::GetBoneIndexByName
EXTRN	?GetModelInstance@CGrannyLODController@@QAEPAVCGrannyModelInstance@@XZ:PROC ; CGrannyLODController::GetModelInstance
EXTRN	?GetLocalTime@CGraphicThingInstance@@QAEMXZ:PROC ; CGraphicThingInstance::GetLocalTime
EXTRN	?GetRace@CActorInstance@@QAEKXZ:PROC		; CActorInstance::GetRace
EXTRN	?isAttacking@CActorInstance@@QAEHXZ:PROC	; CActorInstance::isAttacking
EXTRN	?GetAttackingElapsedTime@CActorInstance@@QAEMXZ:PROC ; CActorInstance::GetAttackingElapsedTime
EXTRN	?GetBlendingPosition@CActorInstance@@QAEXPAUD3DXVECTOR3@@@Z:PROC ; CActorInstance::GetBlendingPosition
EXTRN	?IsWaiting@CActorInstance@@QAEHXZ:PROC		; CActorInstance::IsWaiting
EXTRN	?IsDead@CActorInstance@@QAEHXZ:PROC		; CActorInstance::IsDead
EXTRN	?NEW_SetAtkPixelPosition@CActorInstance@@QAEXABUD3DXVECTOR3@@@Z:PROC ; CActorInstance::NEW_SetAtkPixelPosition
EXTRN	?NEW_GetCurPixelPositionRef@CActorInstance@@QAEABUD3DXVECTOR3@@XZ:PROC ; CActorInstance::NEW_GetCurPixelPositionRef
EXTRN	?GetRotation@CActorInstance@@QAEMXZ:PROC	; CActorInstance::GetRotation
EXTRN	?__AdjustCollisionMovement@CActorInstance@@IAEXPBVCGraphicObjectInstance@@@Z:PROC ; CActorInstance::__AdjustCollisionMovement
EXTRN	?__IsInSplashTime@CActorInstance@@IAE_NXZ:PROC	; CActorInstance::__IsInSplashTime
EXTRN	?isValidAttacking@CActorInstance@@IAEHXZ:PROC	; CActorInstance::isValidAttacking
EXTRN	?__InitializeMovement@CActorInstance@@IAEXXZ:PROC ; CActorInstance::__InitializeMovement
EXTRN	?__ProcessDataAttackSuccess@CActorInstance@@IAEXABUSAttackData@NRaceData@@AAV1@ABUD3DXVECTOR3@@IH@Z:PROC ; CActorInstance::__ProcessDataAttackSuccess
EXTRN	?__isInvisible@CActorInstance@@IAE_NXZ:PROC	; CActorInstance::__isInvisible
EXTRN	?__GetReachScale@CActorInstance@@IAEMXZ:PROC	; CActorInstance::__GetReachScale
EXTRN	?__IsFlyTargetPC@CActorInstance@@IAE_NXZ:PROC	; CActorInstance::__IsFlyTargetPC
EXTRN	?__IsSameFlyTarget@CActorInstance@@IAE_NPAV1@@Z:PROC ; CActorInstance::__IsSameFlyTarget
EXTRN	?IS_HUGE_RACE@@YA_NI@Z:PROC			; IS_HUGE_RACE
EXTRN	?IS_HUGE_RACE@@YA_NI@Z:PROC			; IS_HUGE_RACE
EXTRN	@__security_check_cookie@4:PROC
EXTRN	__CxxThrowException@8:PROC
EXTRN	___CxxFrameHandler3:PROC
EXTRN	__libm_sse2_cos_precise:PROC
EXTRN	__libm_sse2_sin_precise:PROC
EXTRN	___security_cookie:DWORD
EXTRN	__fltused:DWORD
;	COMDAT ?ms_singleton@?$CSingleton@VCTimer@@@@0PAVCTimer@@A
_BSS	SEGMENT
?ms_singleton@?$CSingleton@VCTimer@@@@0PAVCTimer@@A DD 01H DUP (?) ; CSingleton<CTimer>::ms_singleton
_BSS	ENDS
;	COMDAT CRT$XCU
CRT$XCU	SEGMENT
??ms_kPool$initializer$@?$CPooledObject@VCHeaderDecorator@NEffectUpdateDecorator@@@@1P6AXXZA@@3P6AXXZA DD FLAT:??__E?ms_kPool@?$CPooledObject@VCHeaderDecorator@NEffectUpdateDecorator@@@@1V?$CDynamicPoolEx@VCHeaderDecorator@NEffectUpdateDecorator@@@@A@@YAXXZ ; ??ms_kPool$initializer$@?$CPooledObject@VCHeaderDecorator@NEffectUpdateDecorator@@@@1P6AXXZA@@3P6AXXZA
CRT$XCU	ENDS
;	COMDAT __real@49742400
CONST	SEGMENT
__real@49742400 DD 049742400r			; 1e+06
CONST	ENDS
;	COMDAT __real@491c4000
CONST	SEGMENT
__real@491c4000 DD 0491c4000r			; 640000
CONST	ENDS
;	COMDAT __real@48742400
CONST	SEGMENT
__real@48742400 DD 048742400r			; 250000
CONST	ENDS
;	COMDAT __real@47afc800
CONST	SEGMENT
__real@47afc800 DD 047afc800r			; 90000
CONST	ENDS
;	COMDAT __real@42480000
CONST	SEGMENT
__real@42480000 DD 042480000r			; 50
CONST	ENDS
;	COMDAT __real@3f000000
CONST	SEGMENT
__real@3f000000 DD 03f000000r			; 0.5
CONST	ENDS
;	COMDAT __real@3c8efa35
CONST	SEGMENT
__real@3c8efa35 DD 03c8efa35r			; 0.0174533
CONST	ENDS
;	COMDAT ??_C@_0BA@FOIKENOD@vector?5too?5long@
CONST	SEGMENT
??_C@_0BA@FOIKENOD@vector?5too?5long@ DB 'vector too long', 00H ; `string'
CONST	ENDS
;	COMDAT ??_C@_0BJ@DHFDPMIM@invalid?5vector?5subscript@
CONST	SEGMENT
??_C@_0BJ@DHFDPMIM@invalid?5vector?5subscript@ DB 'invalid vector subscri'
	DB	'pt', 00H					; `string'
CONST	ENDS
;	COMDAT ??_C@_0GI@OFDOMPIB@CActorInstance?3?3UpdateAdvancing@
CONST	SEGMENT
??_C@_0GI@OFDOMPIB@CActorInstance?3?3UpdateAdvancing@ DB 'CActorInstance:'
	DB	':UpdateAdvancingPointInstance - m_LODControllerVector[rInstan'
	DB	'ce.dwModelIndex=%d] is NULL', 00H		; `string'
CONST	ENDS
;	COMDAT ??_C@_0GM@IMNFDCHL@CActorInstance?3?3UpdateAdvancing@
CONST	SEGMENT
??_C@_0GM@IMNFDCHL@CActorInstance?3?3UpdateAdvancing@ DB 'CActorInstance:'
	DB	':UpdateAdvancingPointInstance - rInstance.dwModelIndex=%d >= '
	DB	'm_LODControllerVector.size()=%d', 00H	; `string'
CONST	ENDS
;	COMDAT ?ms_kPool@?$CPooledObject@VCRotationDecorator@NEffectUpdateDecorator@@@@1V?$CDynamicPoolEx@VCRotationDecorator@NEffectUpdateDecorator@@@@A
_DATA	SEGMENT
?ms_kPool@?$CPooledObject@VCRotationDecorator@NEffectUpdateDecorator@@@@1V?$CDynamicPoolEx@VCRotationDecorator@NEffectUpdateDecorator@@@@A DD FLAT:??_7?$CDynamicPoolEx@VCRotationDecorator@NEffectUpdateDecorator@@@@6B@ ; CPooledObject<NEffectUpdateDecorator::CRotationDecorator>::ms_kPool
	DD	00H
	DD	00H
	DD	00H
	DD	00H
	DD	00H
	DD	00H
	DD	00H
	DD	00H
_DATA	ENDS
;	COMDAT ?ms_kPool@?$CPooledObject@VCGravityDecorator@NEffectUpdateDecorator@@@@1V?$CDynamicPoolEx@VCGravityDecorator@NEffectUpdateDecorator@@@@A
_DATA	SEGMENT
?ms_kPool@?$CPooledObject@VCGravityDecorator@NEffectUpdateDecorator@@@@1V?$CDynamicPoolEx@VCGravityDecorator@NEffectUpdateDecorator@@@@A DD FLAT:??_7?$CDynamicPoolEx@VCGravityDecorator@NEffectUpdateDecorator@@@@6B@ ; CPooledObject<NEffectUpdateDecorator::CGravityDecorator>::ms_kPool
	DD	00H
	DD	00H
	DD	00H
	DD	00H
	DD	00H
	DD	00H
	DD	00H
	DD	00H
_DATA	ENDS
;	COMDAT ?ms_kPool@?$CPooledObject@VCAirResistanceDecorator@NEffectUpdateDecorator@@@@1V?$CDynamicPoolEx@VCAirResistanceDecorator@NEffectUpdateDecorator@@@@A
_DATA	SEGMENT
?ms_kPool@?$CPooledObject@VCAirResistanceDecorator@NEffectUpdateDecorator@@@@1V?$CDynamicPoolEx@VCAirResistanceDecorator@NEffectUpdateDecorator@@@@A DD FLAT:??_7?$CDynamicPoolEx@VCAirResistanceDecorator@NEffectUpdateDecorator@@@@6B@ ; CPooledObject<NEffectUpdateDecorator::CAirResistanceDecorator>::ms_kPool
	DD	00H
	DD	00H
	DD	00H
	DD	00H
	DD	00H
	DD	00H
	DD	00H
	DD	00H
_DATA	ENDS
;	COMDAT ?ms_kPool@?$CPooledObject@VCTextureAnimationRandomDecorator@NEffectUpdateDecorator@@@@1V?$CDynamicPoolEx@VCTextureAnimationRandomDecorator@NEffectUpdateDecorator@@@@A
_DATA	SEGMENT
?ms_kPool@?$CPooledObject@VCTextureAnimationRandomDecorator@NEffectUpdateDecorator@@@@1V?$CDynamicPoolEx@VCTextureAnimationRandomDecorator@NEffectUpdateDecorator@@@@A DD FLAT:??_7?$CDynamicPoolEx@VCTextureAnimationRandomDecorator@NEffectUpdateDecorator@@@@6B@ ; CPooledObject<NEffectUpdateDecorator::CTextureAnimationRandomDecorator>::ms_kPool
	DD	00H
	DD	00H
	DD	00H
	DD	00H
	DD	00H
	DD	00H
	DD	00H
	DD	00H
_DATA	ENDS
;	COMDAT ?ms_kPool@?$CPooledObject@VCTextureAnimationCCWDecorator@NEffectUpdateDecorator@@@@1V?$CDynamicPoolEx@VCTextureAnimationCCWDecorator@NEffectUpdateDecorator@@@@A
_DATA	SEGMENT
?ms_kPool@?$CPooledObject@VCTextureAnimationCCWDecorator@NEffectUpdateDecorator@@@@1V?$CDynamicPoolEx@VCTextureAnimationCCWDecorator@NEffectUpdateDecorator@@@@A DD FLAT:??_7?$CDynamicPoolEx@VCTextureAnimationCCWDecorator@NEffectUpdateDecorator@@@@6B@ ; CPooledObject<NEffectUpdateDecorator::CTextureAnimationCCWDecorator>::ms_kPool
	DD	00H
	DD	00H
	DD	00H
	DD	00H
	DD	00H
	DD	00H
	DD	00H
	DD	00H
_DATA	ENDS
;	COMDAT ?ms_kPool@?$CPooledObject@VCTextureAnimationCWDecorator@NEffectUpdateDecorator@@@@1V?$CDynamicPoolEx@VCTextureAnimationCWDecorator@NEffectUpdateDecorator@@@@A
_DATA	SEGMENT
?ms_kPool@?$CPooledObject@VCTextureAnimationCWDecorator@NEffectUpdateDecorator@@@@1V?$CDynamicPoolEx@VCTextureAnimationCWDecorator@NEffectUpdateDecorator@@@@A DD FLAT:??_7?$CDynamicPoolEx@VCTextureAnimationCWDecorator@NEffectUpdateDecorator@@@@6B@ ; CPooledObject<NEffectUpdateDecorator::CTextureAnimationCWDecorator>::ms_kPool
	DD	00H
	DD	00H
	DD	00H
	DD	00H
	DD	00H
	DD	00H
	DD	00H
	DD	00H
_DATA	ENDS
;	COMDAT ?ms_kPool@?$CPooledObject@VCNullDecorator@NEffectUpdateDecorator@@@@1V?$CDynamicPoolEx@VCNullDecorator@NEffectUpdateDecorator@@@@A
_DATA	SEGMENT
?ms_kPool@?$CPooledObject@VCNullDecorator@NEffectUpdateDecorator@@@@1V?$CDynamicPoolEx@VCNullDecorator@NEffectUpdateDecorator@@@@A DD FLAT:??_7?$CDynamicPoolEx@VCNullDecorator@NEffectUpdateDecorator@@@@6B@ ; CPooledObject<NEffectUpdateDecorator::CNullDecorator>::ms_kPool
	DD	00H
	DD	00H
	DD	00H
	DD	00H
	DD	00H
	DD	00H
	DD	00H
	DD	00H
_DATA	ENDS
;	COMDAT ?ms_kPool@?$CPooledObject@VCHeaderDecorator@NEffectUpdateDecorator@@@@1V?$CDynamicPoolEx@VCHeaderDecorator@NEffectUpdateDecorator@@@@A
_DATA	SEGMENT
?ms_kPool@?$CPooledObject@VCHeaderDecorator@NEffectUpdateDecorator@@@@1V?$CDynamicPoolEx@VCHeaderDecorator@NEffectUpdateDecorator@@@@A DD FLAT:??_7?$CDynamicPoolEx@VCHeaderDecorator@NEffectUpdateDecorator@@@@6B@ ; CPooledObject<NEffectUpdateDecorator::CHeaderDecorator>::ms_kPool
	DD	00H
	DD	00H
	DD	00H
	DD	00H
	DD	00H
	DD	00H
	DD	00H
	DD	00H
_DATA	ENDS
;	COMDAT ??_R1A@?0A@EA@bad_array_new_length@std@@8
rdata$r	SEGMENT
??_R1A@?0A@EA@bad_array_new_length@std@@8 DD FLAT:??_R0?AVbad_array_new_length@std@@@8 ; std::bad_array_new_length::`RTTI Base Class Descriptor at (0,-1,0,64)'
	DD	02H
	DD	00H
	DD	0ffffffffH
	DD	00H
	DD	040H
	DD	FLAT:??_R3bad_array_new_length@std@@8
rdata$r	ENDS
;	COMDAT ??_R2bad_array_new_length@std@@8
rdata$r	SEGMENT
??_R2bad_array_new_length@std@@8 DD FLAT:??_R1A@?0A@EA@bad_array_new_length@std@@8 ; std::bad_array_new_length::`RTTI Base Class Array'
	DD	FLAT:??_R1A@?0A@EA@bad_alloc@std@@8
	DD	FLAT:??_R1A@?0A@EA@exception@std@@8
rdata$r	ENDS
;	COMDAT ??_R3bad_array_new_length@std@@8
rdata$r	SEGMENT
??_R3bad_array_new_length@std@@8 DD 00H			; std::bad_array_new_length::`RTTI Class Hierarchy Descriptor'
	DD	00H
	DD	03H
	DD	FLAT:??_R2bad_array_new_length@std@@8
rdata$r	ENDS
;	COMDAT ??_R4bad_array_new_length@std@@6B@
rdata$r	SEGMENT
??_R4bad_array_new_length@std@@6B@ DD 00H		; std::bad_array_new_length::`RTTI Complete Object Locator'
	DD	00H
	DD	00H
	DD	FLAT:??_R0?AVbad_array_new_length@std@@@8
	DD	FLAT:??_R3bad_array_new_length@std@@8
rdata$r	ENDS
;	COMDAT ??_R1A@?0A@EA@bad_alloc@std@@8
rdata$r	SEGMENT
??_R1A@?0A@EA@bad_alloc@std@@8 DD FLAT:??_R0?AVbad_alloc@std@@@8 ; std::bad_alloc::`RTTI Base Class Descriptor at (0,-1,0,64)'
	DD	01H
	DD	00H
	DD	0ffffffffH
	DD	00H
	DD	040H
	DD	FLAT:??_R3bad_alloc@std@@8
rdata$r	ENDS
;	COMDAT ??_R2bad_alloc@std@@8
rdata$r	SEGMENT
??_R2bad_alloc@std@@8 DD FLAT:??_R1A@?0A@EA@bad_alloc@std@@8 ; std::bad_alloc::`RTTI Base Class Array'
	DD	FLAT:??_R1A@?0A@EA@exception@std@@8
rdata$r	ENDS
;	COMDAT ??_R3bad_alloc@std@@8
rdata$r	SEGMENT
??_R3bad_alloc@std@@8 DD 00H				; std::bad_alloc::`RTTI Class Hierarchy Descriptor'
	DD	00H
	DD	02H
	DD	FLAT:??_R2bad_alloc@std@@8
rdata$r	ENDS
;	COMDAT ??_R4bad_alloc@std@@6B@
rdata$r	SEGMENT
??_R4bad_alloc@std@@6B@ DD 00H				; std::bad_alloc::`RTTI Complete Object Locator'
	DD	00H
	DD	00H
	DD	FLAT:??_R0?AVbad_alloc@std@@@8
	DD	FLAT:??_R3bad_alloc@std@@8
rdata$r	ENDS
;	COMDAT ??_R1A@?0A@EA@exception@std@@8
rdata$r	SEGMENT
??_R1A@?0A@EA@exception@std@@8 DD FLAT:??_R0?AVexception@std@@@8 ; std::exception::`RTTI Base Class Descriptor at (0,-1,0,64)'
	DD	00H
	DD	00H
	DD	0ffffffffH
	DD	00H
	DD	040H
	DD	FLAT:??_R3exception@std@@8
rdata$r	ENDS
;	COMDAT ??_R2exception@std@@8
rdata$r	SEGMENT
??_R2exception@std@@8 DD FLAT:??_R1A@?0A@EA@exception@std@@8 ; std::exception::`RTTI Base Class Array'
rdata$r	ENDS
;	COMDAT ??_R3exception@std@@8
rdata$r	SEGMENT
??_R3exception@std@@8 DD 00H				; std::exception::`RTTI Class Hierarchy Descriptor'
	DD	00H
	DD	01H
	DD	FLAT:??_R2exception@std@@8
rdata$r	ENDS
;	COMDAT ??_R4exception@std@@6B@
rdata$r	SEGMENT
??_R4exception@std@@6B@ DD 00H				; std::exception::`RTTI Complete Object Locator'
	DD	00H
	DD	00H
	DD	FLAT:??_R0?AVexception@std@@@8
	DD	FLAT:??_R3exception@std@@8
rdata$r	ENDS
;	COMDAT ??_C@_0BB@GCADKGJO@map?1set?5too?5long@
CONST	SEGMENT
??_C@_0BB@GCADKGJO@map?1set?5too?5long@ DB 'map/set too long', 00H ; `string'
CONST	ENDS
;	COMDAT __CT??_R0?AVexception@std@@@8??0exception@std@@QAE@ABV01@@Z12
xdata$x	SEGMENT
__CT??_R0?AVexception@std@@@8??0exception@std@@QAE@ABV01@@Z12 DD 00H
	DD	FLAT:??_R0?AVexception@std@@@8
	DD	00H
	DD	0ffffffffH
	ORG $+4
	DD	0cH
	DD	FLAT:??0exception@std@@QAE@ABV01@@Z
xdata$x	ENDS
;	COMDAT ??_R0?AVexception@std@@@8
data$r	SEGMENT
??_R0?AVexception@std@@@8 DD FLAT:??_7type_info@@6B@	; std::exception `RTTI Type Descriptor'
	DD	00H
	DB	'.?AVexception@std@@', 00H
data$r	ENDS
;	COMDAT __CT??_R0?AVbad_alloc@std@@@8??0bad_alloc@std@@QAE@ABV01@@Z12
xdata$x	SEGMENT
__CT??_R0?AVbad_alloc@std@@@8??0bad_alloc@std@@QAE@ABV01@@Z12 DD 010H
	DD	FLAT:??_R0?AVbad_alloc@std@@@8
	DD	00H
	DD	0ffffffffH
	ORG $+4
	DD	0cH
	DD	FLAT:??0bad_alloc@std@@QAE@ABV01@@Z
xdata$x	ENDS
;	COMDAT ??_R0?AVbad_alloc@std@@@8
data$r	SEGMENT
??_R0?AVbad_alloc@std@@@8 DD FLAT:??_7type_info@@6B@	; std::bad_alloc `RTTI Type Descriptor'
	DD	00H
	DB	'.?AVbad_alloc@std@@', 00H
data$r	ENDS
;	COMDAT __CT??_R0?AVbad_array_new_length@std@@@8??0bad_array_new_length@std@@QAE@ABV01@@Z12
xdata$x	SEGMENT
__CT??_R0?AVbad_array_new_length@std@@@8??0bad_array_new_length@std@@QAE@ABV01@@Z12 DD 00H
	DD	FLAT:??_R0?AVbad_array_new_length@std@@@8
	DD	00H
	DD	0ffffffffH
	ORG $+4
	DD	0cH
	DD	FLAT:??0bad_array_new_length@std@@QAE@ABV01@@Z
xdata$x	ENDS
;	COMDAT ??_R0?AVbad_array_new_length@std@@@8
data$r	SEGMENT
??_R0?AVbad_array_new_length@std@@@8 DD FLAT:??_7type_info@@6B@ ; std::bad_array_new_length `RTTI Type Descriptor'
	DD	00H
	DB	'.?AVbad_array_new_length@std@@', 00H
data$r	ENDS
;	COMDAT __CTA3?AVbad_array_new_length@std@@
xdata$x	SEGMENT
__CTA3?AVbad_array_new_length@std@@ DD 03H
	DD	FLAT:__CT??_R0?AVbad_array_new_length@std@@@8??0bad_array_new_length@std@@QAE@ABV01@@Z12
	DD	FLAT:__CT??_R0?AVbad_alloc@std@@@8??0bad_alloc@std@@QAE@ABV01@@Z12
	DD	FLAT:__CT??_R0?AVexception@std@@@8??0exception@std@@QAE@ABV01@@Z12
xdata$x	ENDS
;	COMDAT __TI3?AVbad_array_new_length@std@@
xdata$x	SEGMENT
__TI3?AVbad_array_new_length@std@@ DD 00H
	DD	FLAT:??1bad_array_new_length@std@@UAE@XZ
	DD	00H
	DD	FLAT:__CTA3?AVbad_array_new_length@std@@
xdata$x	ENDS
;	COMDAT ??_C@_0BF@KINCDENJ@bad?5array?5new?5length@
CONST	SEGMENT
??_C@_0BF@KINCDENJ@bad?5array?5new?5length@ DB 'bad array new length', 00H ; `string'
CONST	ENDS
;	COMDAT ??_7bad_array_new_length@std@@6B@
CONST	SEGMENT
??_7bad_array_new_length@std@@6B@ DD FLAT:??_R4bad_array_new_length@std@@6B@ ; std::bad_array_new_length::`vftable'
	DD	FLAT:??_Ebad_array_new_length@std@@UAEPAXI@Z
	DD	FLAT:?what@exception@std@@UBEPBDXZ
CONST	ENDS
;	COMDAT ??_7bad_alloc@std@@6B@
CONST	SEGMENT
??_7bad_alloc@std@@6B@ DD FLAT:??_R4bad_alloc@std@@6B@	; std::bad_alloc::`vftable'
	DD	FLAT:??_Ebad_alloc@std@@UAEPAXI@Z
	DD	FLAT:?what@exception@std@@UBEPBDXZ
CONST	ENDS
;	COMDAT ??_C@_0BC@EOODALEL@Unknown?5exception@
CONST	SEGMENT
??_C@_0BC@EOODALEL@Unknown?5exception@ DB 'Unknown exception', 00H ; `string'
CONST	ENDS
;	COMDAT ??_7exception@std@@6B@
CONST	SEGMENT
??_7exception@std@@6B@ DD FLAT:??_R4exception@std@@6B@	; std::exception::`vftable'
	DD	FLAT:??_Eexception@std@@UAEPAXI@Z
	DD	FLAT:?what@exception@std@@UBEPBDXZ
CONST	ENDS
;	COMDAT xdata$x
xdata$x	SEGMENT
__unwindtable$??$_Buynode@V?$allocator@U?$_Tree_node@U?$pair@QAVCActorInstance@@M@std@@PAX@std@@@std@@AAU?$pair@QAVCActorInstance@@M@2@@?$_Tree_node@U?$pair@QAVCActorInstance@@M@std@@PAX@std@@SAPAU01@AAV?$allocator@U?$_Tree_node@U?$pair@QAVCActorInstance@@M@std@@PAX@std@@@1@PAU01@AAU?$pair@QAVCActorInstance@@M@1@@Z DD 0ffffffffH
	DD	FLAT:__unwindfunclet$??$_Buynode@V?$allocator@U?$_Tree_node@U?$pair@QAVCActorInstance@@M@std@@PAX@std@@@std@@AAU?$pair@QAVCActorInstance@@M@2@@?$_Tree_node@U?$pair@QAVCActorInstance@@M@std@@PAX@std@@SAPAU01@AAV?$allocator@U?$_Tree_node@U?$pair@QAVCActorInstance@@M@std@@PAX@std@@@1@PAU01@AAU?$pair@QAVCActorInstance@@M@1@@Z$0
__ehfuncinfo$??$_Buynode@V?$allocator@U?$_Tree_node@U?$pair@QAVCActorInstance@@M@std@@PAX@std@@@std@@AAU?$pair@QAVCActorInstance@@M@2@@?$_Tree_node@U?$pair@QAVCActorInstance@@M@std@@PAX@std@@SAPAU01@AAV?$allocator@U?$_Tree_node@U?$pair@QAVCActorInstance@@M@std@@PAX@std@@@1@PAU01@AAU?$pair@QAVCActorInstance@@M@1@@Z DD 019930522H
	DD	01H
	DD	FLAT:__unwindtable$??$_Buynode@V?$allocator@U?$_Tree_node@U?$pair@QAVCActorInstance@@M@std@@PAX@std@@@std@@AAU?$pair@QAVCActorInstance@@M@2@@?$_Tree_node@U?$pair@QAVCActorInstance@@M@std@@PAX@std@@SAPAU01@AAV?$allocator@U?$_Tree_node@U?$pair@QAVCActorInstance@@M@std@@PAX@std@@@1@PAU01@AAU?$pair@QAVCActorInstance@@M@1@@Z
	DD	2 DUP(00H)
	DD	2 DUP(00H)
	DD	00H
	DD	01H
xdata$x	ENDS
;	COMDAT xdata$x
xdata$x	SEGMENT
__unwindtable$??$_Buynode@AAU?$pair@QAVCActorInstance@@M@std@@@?$_Tree@V?$_Tmap_traits@PAVCActorInstance@@MU?$less@PAVCActorInstance@@@std@@V?$allocator@U?$pair@QAVCActorInstance@@M@std@@@3@$0A@@std@@@std@@IAEPAU?$_Tree_node@U?$pair@QAVCActorInstance@@M@std@@PAX@1@AAU?$pair@QAVCActorInstance@@M@1@@Z DD 0ffffffffH
	DD	FLAT:__unwindfunclet$??$_Buynode@AAU?$pair@QAVCActorInstance@@M@std@@@?$_Tree@V?$_Tmap_traits@PAVCActorInstance@@MU?$less@PAVCActorInstance@@@std@@V?$allocator@U?$pair@QAVCActorInstance@@M@std@@@3@$0A@@std@@@std@@IAEPAU?$_Tree_node@U?$pair@QAVCActorInstance@@M@std@@PAX@1@AAU?$pair@QAVCActorInstance@@M@1@@Z$0
__ehfuncinfo$??$_Buynode@AAU?$pair@QAVCActorInstance@@M@std@@@?$_Tree@V?$_Tmap_traits@PAVCActorInstance@@MU?$less@PAVCActorInstance@@@std@@V?$allocator@U?$pair@QAVCActorInstance@@M@std@@@3@$0A@@std@@@std@@IAEPAU?$_Tree_node@U?$pair@QAVCActorInstance@@M@std@@PAX@1@AAU?$pair@QAVCActorInstance@@M@1@@Z DD 019930522H
	DD	01H
	DD	FLAT:__unwindtable$??$_Buynode@AAU?$pair@QAVCActorInstance@@M@std@@@?$_Tree@V?$_Tmap_traits@PAVCActorInstance@@MU?$less@PAVCActorInstance@@@std@@V?$allocator@U?$pair@QAVCActorInstance@@M@std@@@3@$0A@@std@@@std@@IAEPAU?$_Tree_node@U?$pair@QAVCActorInstance@@M@std@@PAX@1@AAU?$pair@QAVCActorInstance@@M@1@@Z
	DD	2 DUP(00H)
	DD	2 DUP(00H)
	DD	00H
	DD	01H
xdata$x	ENDS
;	COMDAT xdata$x
xdata$x	SEGMENT
__unwindtable$??$_Copy_or_move@U?$pair@QAVCActorInstance@@M@std@@U?$integral_constant@_N$0A@@2@@?$_Tree@V?$_Tmap_traits@PAVCActorInstance@@MU?$less@PAVCActorInstance@@@std@@V?$allocator@U?$pair@QAVCActorInstance@@M@std@@@3@$0A@@std@@@std@@IAEPAU?$_Tree_node@U?$pair@QAVCActorInstance@@M@std@@PAX@1@AAU?$pair@QAVCActorInstance@@M@1@U_Copy_tag@01@U?$integral_constant@_N$0A@@1@@Z DD 0ffffffffH
	DD	FLAT:__unwindfunclet$??$_Copy_or_move@U?$pair@QAVCActorInstance@@M@std@@U?$integral_constant@_N$0A@@2@@?$_Tree@V?$_Tmap_traits@PAVCActorInstance@@MU?$less@PAVCActorInstance@@@std@@V?$allocator@U?$pair@QAVCActorInstance@@M@std@@@3@$0A@@std@@@std@@IAEPAU?$_Tree_node@U?$pair@QAVCActorInstance@@M@std@@PAX@1@AAU?$pair@QAVCActorInstance@@M@1@U_Copy_tag@01@U?$integral_constant@_N$0A@@1@@Z$0
__ehfuncinfo$??$_Copy_or_move@U?$pair@QAVCActorInstance@@M@std@@U?$integral_constant@_N$0A@@2@@?$_Tree@V?$_Tmap_traits@PAVCActorInstance@@MU?$less@PAVCActorInstance@@@std@@V?$allocator@U?$pair@QAVCActorInstance@@M@std@@@3@$0A@@std@@@std@@IAEPAU?$_Tree_node@U?$pair@QAVCActorInstance@@M@std@@PAX@1@AAU?$pair@QAVCActorInstance@@M@1@U_Copy_tag@01@U?$integral_constant@_N$0A@@1@@Z DD 019930522H
	DD	01H
	DD	FLAT:__unwindtable$??$_Copy_or_move@U?$pair@QAVCActorInstance@@M@std@@U?$integral_constant@_N$0A@@2@@?$_Tree@V?$_Tmap_traits@PAVCActorInstance@@MU?$less@PAVCActorInstance@@@std@@V?$allocator@U?$pair@QAVCActorInstance@@M@std@@@3@$0A@@std@@@std@@IAEPAU?$_Tree_node@U?$pair@QAVCActorInstance@@M@std@@PAX@1@AAU?$pair@QAVCActorInstance@@M@1@U_Copy_tag@01@U?$integral_constant@_N$0A@@1@@Z
	DD	2 DUP(00H)
	DD	2 DUP(00H)
	DD	00H
	DD	01H
xdata$x	ENDS
;	COMDAT xdata$x
xdata$x	SEGMENT
__catchsym$??$_Copy_nodes@U_Copy_tag@?$_Tree@V?$_Tmap_traits@PAVCActorInstance@@MU?$less@PAVCActorInstance@@@std@@V?$allocator@U?$pair@QAVCActorInstance@@M@std@@@3@$0A@@std@@@std@@@?$_Tree@V?$_Tmap_traits@PAVCActorInstance@@MU?$less@PAVCActorInstance@@@std@@V?$allocator@U?$pair@QAVCActorInstance@@M@std@@@3@$0A@@std@@@std@@IAEPAU?$_Tree_node@U?$pair@QAVCActorInstance@@M@std@@PAX@1@PAU21@0U_Copy_tag@01@@Z$3 DD 040H
	DD	00H
	DD	00H
	DD	FLAT:__catch$??$_Copy_nodes@U_Copy_tag@?$_Tree@V?$_Tmap_traits@PAVCActorInstance@@MU?$less@PAVCActorInstance@@@std@@V?$allocator@U?$pair@QAVCActorInstance@@M@std@@@3@$0A@@std@@@std@@@?$_Tree@V?$_Tmap_traits@PAVCActorInstance@@MU?$less@PAVCActorInstance@@@std@@V?$allocator@U?$pair@QAVCActorInstance@@M@std@@@3@$0A@@std@@@std@@IAEPAU?$_Tree_node@U?$pair@QAVCActorInstance@@M@std@@PAX@1@PAU21@0U_Copy_tag@01@@Z$0
__tryblocktable$??$_Copy_nodes@U_Copy_tag@?$_Tree@V?$_Tmap_traits@PAVCActorInstance@@MU?$less@PAVCActorInstance@@@std@@V?$allocator@U?$pair@QAVCActorInstance@@M@std@@@3@$0A@@std@@@std@@@?$_Tree@V?$_Tmap_traits@PAVCActorInstance@@MU?$less@PAVCActorInstance@@@std@@V?$allocator@U?$pair@QAVCActorInstance@@M@std@@@3@$0A@@std@@@std@@IAEPAU?$_Tree_node@U?$pair@QAVCActorInstance@@M@std@@PAX@1@PAU21@0U_Copy_tag@01@@Z DD 01H
	DD	01H
	DD	02H
	DD	01H
	DD	FLAT:__catchsym$??$_Copy_nodes@U_Copy_tag@?$_Tree@V?$_Tmap_traits@PAVCActorInstance@@MU?$less@PAVCActorInstance@@@std@@V?$allocator@U?$pair@QAVCActorInstance@@M@std@@@3@$0A@@std@@@std@@@?$_Tree@V?$_Tmap_traits@PAVCActorInstance@@MU?$less@PAVCActorInstance@@@std@@V?$allocator@U?$pair@QAVCActorInstance@@M@std@@@3@$0A@@std@@@std@@IAEPAU?$_Tree_node@U?$pair@QAVCActorInstance@@M@std@@PAX@1@PAU21@0U_Copy_tag@01@@Z$3
__unwindtable$??$_Copy_nodes@U_Copy_tag@?$_Tree@V?$_Tmap_traits@PAVCActorInstance@@MU?$less@PAVCActorInstance@@@std@@V?$allocator@U?$pair@QAVCActorInstance@@M@std@@@3@$0A@@std@@@std@@@?$_Tree@V?$_Tmap_traits@PAVCActorInstance@@MU?$less@PAVCActorInstance@@@std@@V?$allocator@U?$pair@QAVCActorInstance@@M@std@@@3@$0A@@std@@@std@@IAEPAU?$_Tree_node@U?$pair@QAVCActorInstance@@M@std@@PAX@1@PAU21@0U_Copy_tag@01@@Z DD 0ffffffffH
	DD	FLAT:__unwindfunclet$??$_Copy_nodes@U_Copy_tag@?$_Tree@V?$_Tmap_traits@PAVCActorInstance@@MU?$less@PAVCActorInstance@@@std@@V?$allocator@U?$pair@QAVCActorInstance@@M@std@@@3@$0A@@std@@@std@@@?$_Tree@V?$_Tmap_traits@PAVCActorInstance@@MU?$less@PAVCActorInstance@@@std@@V?$allocator@U?$pair@QAVCActorInstance@@M@std@@@3@$0A@@std@@@std@@IAEPAU?$_Tree_node@U?$pair@QAVCActorInstance@@M@std@@PAX@1@PAU21@0U_Copy_tag@01@@Z$2
	DD	0ffffffffH
	DD	00H
	DD	0ffffffffH
	DD	00H
__ehfuncinfo$??$_Copy_nodes@U_Copy_tag@?$_Tree@V?$_Tmap_traits@PAVCActorInstance@@MU?$less@PAVCActorInstance@@@std@@V?$allocator@U?$pair@QAVCActorInstance@@M@std@@@3@$0A@@std@@@std@@@?$_Tree@V?$_Tmap_traits@PAVCActorInstance@@MU?$less@PAVCActorInstance@@@std@@V?$allocator@U?$pair@QAVCActorInstance@@M@std@@@3@$0A@@std@@@std@@IAEPAU?$_Tree_node@U?$pair@QAVCActorInstance@@M@std@@PAX@1@PAU21@0U_Copy_tag@01@@Z DD 019930522H
	DD	03H
	DD	FLAT:__unwindtable$??$_Copy_nodes@U_Copy_tag@?$_Tree@V?$_Tmap_traits@PAVCActorInstance@@MU?$less@PAVCActorInstance@@@std@@V?$allocator@U?$pair@QAVCActorInstance@@M@std@@@3@$0A@@std@@@std@@@?$_Tree@V?$_Tmap_traits@PAVCActorInstance@@MU?$less@PAVCActorInstance@@@std@@V?$allocator@U?$pair@QAVCActorInstance@@M@std@@@3@$0A@@std@@@std@@IAEPAU?$_Tree_node@U?$pair@QAVCActorInstance@@M@std@@PAX@1@PAU21@0U_Copy_tag@01@@Z
	DD	01H
	DD	FLAT:__tryblocktable$??$_Copy_nodes@U_Copy_tag@?$_Tree@V?$_Tmap_traits@PAVCActorInstance@@MU?$less@PAVCActorInstance@@@std@@V?$allocator@U?$pair@QAVCActorInstance@@M@std@@@3@$0A@@std@@@std@@@?$_Tree@V?$_Tmap_traits@PAVCActorInstance@@MU?$less@PAVCActorInstance@@@std@@V?$allocator@U?$pair@QAVCActorInstance@@M@std@@@3@$0A@@std@@@std@@IAEPAU?$_Tree_node@U?$pair@QAVCActorInstance@@M@std@@PAX@1@PAU21@0U_Copy_tag@01@@Z
	DD	2 DUP(00H)
	DD	00H
	DD	01H
xdata$x	ENDS
;	COMDAT xdata$x
xdata$x	SEGMENT
__unwindtable$??$?0U?$pair@PBUSHitData@NRaceData@@V?$map@PAVCActorInstance@@MU?$less@PAVCActorInstance@@@std@@V?$allocator@U?$pair@QAVCActorInstance@@M@std@@@3@@std@@@std@@@?$_Tree_temp_node@V?$allocator@U?$_Tree_node@U?$pair@QBUSHitData@NRaceData@@V?$map@PAVCActorInstance@@MU?$less@PAVCActorInstance@@@std@@V?$allocator@U?$pair@QAVCActorInstance@@M@std@@@3@@std@@@std@@PAX@std@@@std@@@std@@QAE@AAV?$allocator@U?$_Tree_node@U?$pair@QBUSHitData@NRaceData@@V?$map@PAVCActorInstance@@MU?$less@PAVCActorInstance@@@std@@V?$allocator@U?$pair@QAVCActorInstance@@M@std@@@3@@std@@@std@@PAX@std@@@1@PAU?$_Tree_node@U?$pair@QBUSHitData@NRaceData@@V?$map@PAVCActorInstance@@MU?$less@PAVCActorInstance@@@std@@V?$allocator@U?$pair@QAVCActorInstance@@M@std@@@3@@std@@@std@@PAX@1@$$QAU?$pair@PBUSHitData@NRaceData@@V?$map@PAVCActorInstance@@MU?$less@PAVCActorInstance@@@std@@V?$allocator@U?$pair@QAVCActorInstance@@M@std@@@3@@std@@@1@@Z DD 0ffffffffH
	DD	FLAT:__unwindfunclet$??$?0U?$pair@PBUSHitData@NRaceData@@V?$map@PAVCActorInstance@@MU?$less@PAVCActorInstance@@@std@@V?$allocator@U?$pair@QAVCActorInstance@@M@std@@@3@@std@@@std@@@?$_Tree_temp_node@V?$allocator@U?$_Tree_node@U?$pair@QBUSHitData@NRaceData@@V?$map@PAVCActorInstance@@MU?$less@PAVCActorInstance@@@std@@V?$allocator@U?$pair@QAVCActorInstance@@M@std@@@3@@std@@@std@@PAX@std@@@std@@@std@@QAE@AAV?$allocator@U?$_Tree_node@U?$pair@QBUSHitData@NRaceData@@V?$map@PAVCActorInstance@@MU?$less@PAVCActorInstance@@@std@@V?$allocator@U?$pair@QAVCActorInstance@@M@std@@@3@@std@@@std@@PAX@std@@@1@PAU?$_Tree_node@U?$pair@QBUSHitData@NRaceData@@V?$map@PAVCActorInstance@@MU?$less@PAVCActorInstance@@@std@@V?$allocator@U?$pair@QAVCActorInstance@@M@std@@@3@@std@@@std@@PAX@1@$$QAU?$pair@PBUSHitData@NRaceData@@V?$map@PAVCActorInstance@@MU?$less@PAVCActorInstance@@@std@@V?$allocator@U?$pair@QAVCActorInstance@@M@std@@@3@@std@@@1@@Z$1
	DD	0ffffffffH
	DD	FLAT:__unwindfunclet$??$?0U?$pair@PBUSHitData@NRaceData@@V?$map@PAVCActorInstance@@MU?$less@PAVCActorInstance@@@std@@V?$allocator@U?$pair@QAVCActorInstance@@M@std@@@3@@std@@@std@@@?$_Tree_temp_node@V?$allocator@U?$_Tree_node@U?$pair@QBUSHitData@NRaceData@@V?$map@PAVCActorInstance@@MU?$less@PAVCActorInstance@@@std@@V?$allocator@U?$pair@QAVCActorInstance@@M@std@@@3@@std@@@std@@PAX@std@@@std@@@std@@QAE@AAV?$allocator@U?$_Tree_node@U?$pair@QBUSHitData@NRaceData@@V?$map@PAVCActorInstance@@MU?$less@PAVCActorInstance@@@std@@V?$allocator@U?$pair@QAVCActorInstance@@M@std@@@3@@std@@@std@@PAX@std@@@1@PAU?$_Tree_node@U?$pair@QBUSHitData@NRaceData@@V?$map@PAVCActorInstance@@MU?$less@PAVCActorInstance@@@std@@V?$allocator@U?$pair@QAVCActorInstance@@M@std@@@3@@std@@@std@@PAX@1@$$QAU?$pair@PBUSHitData@NRaceData@@V?$map@PAVCActorInstance@@MU?$less@PAVCActorInstance@@@std@@V?$allocator@U?$pair@QAVCActorInstance@@M@std@@@3@@std@@@1@@Z$0
__ehfuncinfo$??$?0U?$pair@PBUSHitData@NRaceData@@V?$map@PAVCActorInstance@@MU?$less@PAVCActorInstance@@@std@@V?$allocator@U?$pair@QAVCActorInstance@@M@std@@@3@@std@@@std@@@?$_Tree_temp_node@V?$allocator@U?$_Tree_node@U?$pair@QBUSHitData@NRaceData@@V?$map@PAVCActorInstance@@MU?$less@PAVCActorInstance@@@std@@V?$allocator@U?$pair@QAVCActorInstance@@M@std@@@3@@std@@@std@@PAX@std@@@std@@@std@@QAE@AAV?$allocator@U?$_Tree_node@U?$pair@QBUSHitData@NRaceData@@V?$map@PAVCActorInstance@@MU?$less@PAVCActorInstance@@@std@@V?$allocator@U?$pair@QAVCActorInstance@@M@std@@@3@@std@@@std@@PAX@std@@@1@PAU?$_Tree_node@U?$pair@QBUSHitData@NRaceData@@V?$map@PAVCActorInstance@@MU?$less@PAVCActorInstance@@@std@@V?$allocator@U?$pair@QAVCActorInstance@@M@std@@@3@@std@@@std@@PAX@1@$$QAU?$pair@PBUSHitData@NRaceData@@V?$map@PAVCActorInstance@@MU?$less@PAVCActorInstance@@@std@@V?$allocator@U?$pair@QAVCActorInstance@@M@std@@@3@@std@@@1@@Z DD 019930522H
	DD	02H
	DD	FLAT:__unwindtable$??$?0U?$pair@PBUSHitData@NRaceData@@V?$map@PAVCActorInstance@@MU?$less@PAVCActorInstance@@@std@@V?$allocator@U?$pair@QAVCActorInstance@@M@std@@@3@@std@@@std@@@?$_Tree_temp_node@V?$allocator@U?$_Tree_node@U?$pair@QBUSHitData@NRaceData@@V?$map@PAVCActorInstance@@MU?$less@PAVCActorInstance@@@std@@V?$allocator@U?$pair@QAVCActorInstance@@M@std@@@3@@std@@@std@@PAX@std@@@std@@@std@@QAE@AAV?$allocator@U?$_Tree_node@U?$pair@QBUSHitData@NRaceData@@V?$map@PAVCActorInstance@@MU?$less@PAVCActorInstance@@@std@@V?$allocator@U?$pair@QAVCActorInstance@@M@std@@@3@@std@@@std@@PAX@std@@@1@PAU?$_Tree_node@U?$pair@QBUSHitData@NRaceData@@V?$map@PAVCActorInstance@@MU?$less@PAVCActorInstance@@@std@@V?$allocator@U?$pair@QAVCActorInstance@@M@std@@@3@@std@@@std@@PAX@1@$$QAU?$pair@PBUSHitData@NRaceData@@V?$map@PAVCActorInstance@@MU?$less@PAVCActorInstance@@@std@@V?$allocator@U?$pair@QAVCActorInstance@@M@std@@@3@@std@@@1@@Z
	DD	2 DUP(00H)
	DD	2 DUP(00H)
	DD	00H
	DD	01H
xdata$x	ENDS
;	COMDAT xdata$x
xdata$x	SEGMENT
__unwindtable$??0?$_Tree_temp_node_alloc@V?$allocator@U?$_Tree_node@U?$pair@QBUSHitData@NRaceData@@V?$map@PAVCActorInstance@@MU?$less@PAVCActorInstance@@@std@@V?$allocator@U?$pair@QAVCActorInstance@@M@std@@@3@@std@@@std@@PAX@std@@@std@@@std@@QAE@AAV?$allocator@U?$_Tree_node@U?$pair@QBUSHitData@NRaceData@@V?$map@PAVCActorInstance@@MU?$less@PAVCActorInstance@@@std@@V?$allocator@U?$pair@QAVCActorInstance@@M@std@@@3@@std@@@std@@PAX@std@@@1@@Z DD 0ffffffffH
	DD	FLAT:__unwindfunclet$??0?$_Tree_temp_node_alloc@V?$allocator@U?$_Tree_node@U?$pair@QBUSHitData@NRaceData@@V?$map@PAVCActorInstance@@MU?$less@PAVCActorInstance@@@std@@V?$allocator@U?$pair@QAVCActorInstance@@M@std@@@3@@std@@@std@@PAX@std@@@std@@@std@@QAE@AAV?$allocator@U?$_Tree_node@U?$pair@QBUSHitData@NRaceData@@V?$map@PAVCActorInstance@@MU?$less@PAVCActorInstance@@@std@@V?$allocator@U?$pair@QAVCActorInstance@@M@std@@@3@@std@@@std@@PAX@std@@@1@@Z$0
__ehfuncinfo$??0?$_Tree_temp_node_alloc@V?$allocator@U?$_Tree_node@U?$pair@QBUSHitData@NRaceData@@V?$map@PAVCActorInstance@@MU?$less@PAVCActorInstance@@@std@@V?$allocator@U?$pair@QAVCActorInstance@@M@std@@@3@@std@@@std@@PAX@std@@@std@@@std@@QAE@AAV?$allocator@U?$_Tree_node@U?$pair@QBUSHitData@NRaceData@@V?$map@PAVCActorInstance@@MU?$less@PAVCActorInstance@@@std@@V?$allocator@U?$pair@QAVCActorInstance@@M@std@@@3@@std@@@std@@PAX@std@@@1@@Z DD 019930522H
	DD	01H
	DD	FLAT:__unwindtable$??0?$_Tree_temp_node_alloc@V?$allocator@U?$_Tree_node@U?$pair@QBUSHitData@NRaceData@@V?$map@PAVCActorInstance@@MU?$less@PAVCActorInstance@@@std@@V?$allocator@U?$pair@QAVCActorInstance@@M@std@@@3@@std@@@std@@PAX@std@@@std@@@std@@QAE@AAV?$allocator@U?$_Tree_node@U?$pair@QBUSHitData@NRaceData@@V?$map@PAVCActorInstance@@MU?$less@PAVCActorInstance@@@std@@V?$allocator@U?$pair@QAVCActorInstance@@M@std@@@3@@std@@@std@@PAX@std@@@1@@Z
	DD	2 DUP(00H)
	DD	2 DUP(00H)
	DD	00H
	DD	01H
xdata$x	ENDS
;	COMDAT xdata$x
xdata$x	SEGMENT
__unwindtable$??$?0U?$pair@PAVCActorInstance@@M@std@@@?$_Tree_temp_node@V?$allocator@U?$_Tree_node@U?$pair@QAVCActorInstance@@M@std@@PAX@std@@@std@@@std@@QAE@AAV?$allocator@U?$_Tree_node@U?$pair@QAVCActorInstance@@M@std@@PAX@std@@@1@PAU?$_Tree_node@U?$pair@QAVCActorInstance@@M@std@@PAX@1@$$QAU?$pair@PAVCActorInstance@@M@1@@Z DD 0ffffffffH
	DD	FLAT:__unwindfunclet$??$?0U?$pair@PAVCActorInstance@@M@std@@@?$_Tree_temp_node@V?$allocator@U?$_Tree_node@U?$pair@QAVCActorInstance@@M@std@@PAX@std@@@std@@@std@@QAE@AAV?$allocator@U?$_Tree_node@U?$pair@QAVCActorInstance@@M@std@@PAX@std@@@1@PAU?$_Tree_node@U?$pair@QAVCActorInstance@@M@std@@PAX@1@$$QAU?$pair@PAVCActorInstance@@M@1@@Z$1
__ehfuncinfo$??$?0U?$pair@PAVCActorInstance@@M@std@@@?$_Tree_temp_node@V?$allocator@U?$_Tree_node@U?$pair@QAVCActorInstance@@M@std@@PAX@std@@@std@@@std@@QAE@AAV?$allocator@U?$_Tree_node@U?$pair@QAVCActorInstance@@M@std@@PAX@std@@@1@PAU?$_Tree_node@U?$pair@QAVCActorInstance@@M@std@@PAX@1@$$QAU?$pair@PAVCActorInstance@@M@1@@Z DD 019930522H
	DD	01H
	DD	FLAT:__unwindtable$??$?0U?$pair@PAVCActorInstance@@M@std@@@?$_Tree_temp_node@V?$allocator@U?$_Tree_node@U?$pair@QAVCActorInstance@@M@std@@PAX@std@@@std@@@std@@QAE@AAV?$allocator@U?$_Tree_node@U?$pair@QAVCActorInstance@@M@std@@PAX@std@@@1@PAU?$_Tree_node@U?$pair@QAVCActorInstance@@M@std@@PAX@1@$$QAU?$pair@PAVCActorInstance@@M@1@@Z
	DD	2 DUP(00H)
	DD	2 DUP(00H)
	DD	00H
	DD	01H
xdata$x	ENDS
;	COMDAT xdata$x
xdata$x	SEGMENT
__unwindtable$??0?$_Tree_temp_node_alloc@V?$allocator@U?$_Tree_node@U?$pair@QAVCActorInstance@@M@std@@PAX@std@@@std@@@std@@QAE@AAV?$allocator@U?$_Tree_node@U?$pair@QAVCActorInstance@@M@std@@PAX@std@@@1@@Z DD 0ffffffffH
	DD	FLAT:__unwindfunclet$??0?$_Tree_temp_node_alloc@V?$allocator@U?$_Tree_node@U?$pair@QAVCActorInstance@@M@std@@PAX@std@@@std@@@std@@QAE@AAV?$allocator@U?$_Tree_node@U?$pair@QAVCActorInstance@@M@std@@PAX@std@@@1@@Z$0
__ehfuncinfo$??0?$_Tree_temp_node_alloc@V?$allocator@U?$_Tree_node@U?$pair@QAVCActorInstance@@M@std@@PAX@std@@@std@@@std@@QAE@AAV?$allocator@U?$_Tree_node@U?$pair@QAVCActorInstance@@M@std@@PAX@std@@@1@@Z DD 019930522H
	DD	01H
	DD	FLAT:__unwindtable$??0?$_Tree_temp_node_alloc@V?$allocator@U?$_Tree_node@U?$pair@QAVCActorInstance@@M@std@@PAX@std@@@std@@@std@@QAE@AAV?$allocator@U?$_Tree_node@U?$pair@QAVCActorInstance@@M@std@@PAX@std@@@1@@Z
	DD	2 DUP(00H)
	DD	2 DUP(00H)
	DD	00H
	DD	01H
xdata$x	ENDS
;	COMDAT xdata$x
xdata$x	SEGMENT
__unwindtable$??$?0V?$allocator@U?$_Tree_node@U?$pair@QAVCActorInstance@@M@std@@PAX@std@@@std@@@?$_Tree@V?$_Tmap_traits@PAVCActorInstance@@MU?$less@PAVCActorInstance@@@std@@V?$allocator@U?$pair@QAVCActorInstance@@M@std@@@3@$0A@@std@@@std@@QAE@ABV01@$$QAV?$allocator@U?$_Tree_node@U?$pair@QAVCActorInstance@@M@std@@PAX@std@@@1@@Z DD 0ffffffffH
	DD	FLAT:__unwindfunclet$??$?0V?$allocator@U?$_Tree_node@U?$pair@QAVCActorInstance@@M@std@@PAX@std@@@std@@@?$_Tree@V?$_Tmap_traits@PAVCActorInstance@@MU?$less@PAVCActorInstance@@@std@@V?$allocator@U?$pair@QAVCActorInstance@@M@std@@@3@$0A@@std@@@std@@QAE@ABV01@$$QAV?$allocator@U?$_Tree_node@U?$pair@QAVCActorInstance@@M@std@@PAX@std@@@1@@Z$0
__ehfuncinfo$??$?0V?$allocator@U?$_Tree_node@U?$pair@QAVCActorInstance@@M@std@@PAX@std@@@std@@@?$_Tree@V?$_Tmap_traits@PAVCActorInstance@@MU?$less@PAVCActorInstance@@@std@@V?$allocator@U?$pair@QAVCActorInstance@@M@std@@@3@$0A@@std@@@std@@QAE@ABV01@$$QAV?$allocator@U?$_Tree_node@U?$pair@QAVCActorInstance@@M@std@@PAX@std@@@1@@Z DD 019930522H
	DD	01H
	DD	FLAT:__unwindtable$??$?0V?$allocator@U?$_Tree_node@U?$pair@QAVCActorInstance@@M@std@@PAX@std@@@std@@@?$_Tree@V?$_Tmap_traits@PAVCActorInstance@@MU?$less@PAVCActorInstance@@@std@@V?$allocator@U?$pair@QAVCActorInstance@@M@std@@@3@$0A@@std@@@std@@QAE@ABV01@$$QAV?$allocator@U?$_Tree_node@U?$pair@QAVCActorInstance@@M@std@@PAX@std@@@1@@Z
	DD	2 DUP(00H)
	DD	2 DUP(00H)
	DD	00H
	DD	01H
xdata$x	ENDS
;	COMDAT xdata$x
xdata$x	SEGMENT
__unwindtable$??$_Emplace@U?$pair@PBUSHitData@NRaceData@@V?$map@PAVCActorInstance@@MU?$less@PAVCActorInstance@@@std@@V?$allocator@U?$pair@QAVCActorInstance@@M@std@@@3@@std@@@std@@@?$_Tree@V?$_Tmap_traits@PBUSHitData@NRaceData@@V?$map@PAVCActorInstance@@MU?$less@PAVCActorInstance@@@std@@V?$allocator@U?$pair@QAVCActorInstance@@M@std@@@3@@std@@U?$less@PBUSHitData@NRaceData@@@4@V?$allocator@U?$pair@QBUSHitData@NRaceData@@V?$map@PAVCActorInstance@@MU?$less@PAVCActorInstance@@@std@@V?$allocator@U?$pair@QAVCActorInstance@@M@std@@@3@@std@@@std@@@4@$0A@@std@@@std@@IAE?AU?$pair@PAU?$_Tree_node@U?$pair@QBUSHitData@NRaceData@@V?$map@PAVCActorInstance@@MU?$less@PAVCActorInstance@@@std@@V?$allocator@U?$pair@QAVCActorInstance@@M@std@@@3@@std@@@std@@PAX@std@@_N@1@$$QAU?$pair@PBUSHitData@NRaceData@@V?$map@PAVCActorInstance@@MU?$less@PAVCActorInstance@@@std@@V?$allocator@U?$pair@QAVCActorInstance@@M@std@@@3@@std@@@1@@Z DD 0ffffffffH
	DD	FLAT:__unwindfunclet$??$_Emplace@U?$pair@PBUSHitData@NRaceData@@V?$map@PAVCActorInstance@@MU?$less@PAVCActorInstance@@@std@@V?$allocator@U?$pair@QAVCActorInstance@@M@std@@@3@@std@@@std@@@?$_Tree@V?$_Tmap_traits@PBUSHitData@NRaceData@@V?$map@PAVCActorInstance@@MU?$less@PAVCActorInstance@@@std@@V?$allocator@U?$pair@QAVCActorInstance@@M@std@@@3@@std@@U?$less@PBUSHitData@NRaceData@@@4@V?$allocator@U?$pair@QBUSHitData@NRaceData@@V?$map@PAVCActorInstance@@MU?$less@PAVCActorInstance@@@std@@V?$allocator@U?$pair@QAVCActorInstance@@M@std@@@3@@std@@@std@@@4@$0A@@std@@@std@@IAE?AU?$pair@PAU?$_Tree_node@U?$pair@QBUSHitData@NRaceData@@V?$map@PAVCActorInstance@@MU?$less@PAVCActorInstance@@@std@@V?$allocator@U?$pair@QAVCActorInstance@@M@std@@@3@@std@@@std@@PAX@std@@_N@1@$$QAU?$pair@PBUSHitData@NRaceData@@V?$map@PAVCActorInstance@@MU?$less@PAVCActorInstance@@@std@@V?$allocator@U?$pair@QAVCActorInstance@@M@std@@@3@@std@@@1@@Z$2
	DD	0ffffffffH
	DD	FLAT:__unwindfunclet$??$_Emplace@U?$pair@PBUSHitData@NRaceData@@V?$map@PAVCActorInstance@@MU?$less@PAVCActorInstance@@@std@@V?$allocator@U?$pair@QAVCActorInstance@@M@std@@@3@@std@@@std@@@?$_Tree@V?$_Tmap_traits@PBUSHitData@NRaceData@@V?$map@PAVCActorInstance@@MU?$less@PAVCActorInstance@@@std@@V?$allocator@U?$pair@QAVCActorInstance@@M@std@@@3@@std@@U?$less@PBUSHitData@NRaceData@@@4@V?$allocator@U?$pair@QBUSHitData@NRaceData@@V?$map@PAVCActorInstance@@MU?$less@PAVCActorInstance@@@std@@V?$allocator@U?$pair@QAVCActorInstance@@M@std@@@3@@std@@@std@@@4@$0A@@std@@@std@@IAE?AU?$pair@PAU?$_Tree_node@U?$pair@QBUSHitData@NRaceData@@V?$map@PAVCActorInstance@@MU?$less@PAVCActorInstance@@@std@@V?$allocator@U?$pair@QAVCActorInstance@@M@std@@@3@@std@@@std@@PAX@std@@_N@1@$$QAU?$pair@PBUSHitData@NRaceData@@V?$map@PAVCActorInstance@@MU?$less@PAVCActorInstance@@@std@@V?$allocator@U?$pair@QAVCActorInstance@@M@std@@@3@@std@@@1@@Z$1
__ehfuncinfo$??$_Emplace@U?$pair@PBUSHitData@NRaceData@@V?$map@PAVCActorInstance@@MU?$less@PAVCActorInstance@@@std@@V?$allocator@U?$pair@QAVCActorInstance@@M@std@@@3@@std@@@std@@@?$_Tree@V?$_Tmap_traits@PBUSHitData@NRaceData@@V?$map@PAVCActorInstance@@MU?$less@PAVCActorInstance@@@std@@V?$allocator@U?$pair@QAVCActorInstance@@M@std@@@3@@std@@U?$less@PBUSHitData@NRaceData@@@4@V?$allocator@U?$pair@QBUSHitData@NRaceData@@V?$map@PAVCActorInstance@@MU?$less@PAVCActorInstance@@@std@@V?$allocator@U?$pair@QAVCActorInstance@@M@std@@@3@@std@@@std@@@4@$0A@@std@@@std@@IAE?AU?$pair@PAU?$_Tree_node@U?$pair@QBUSHitData@NRaceData@@V?$map@PAVCActorInstance@@MU?$less@PAVCActorInstance@@@std@@V?$allocator@U?$pair@QAVCActorInstance@@M@std@@@3@@std@@@std@@PAX@std@@_N@1@$$QAU?$pair@PBUSHitData@NRaceData@@V?$map@PAVCActorInstance@@MU?$less@PAVCActorInstance@@@std@@V?$allocator@U?$pair@QAVCActorInstance@@M@std@@@3@@std@@@1@@Z DD 019930522H
	DD	02H
	DD	FLAT:__unwindtable$??$_Emplace@U?$pair@PBUSHitData@NRaceData@@V?$map@PAVCActorInstance@@MU?$less@PAVCActorInstance@@@std@@V?$allocator@U?$pair@QAVCActorInstance@@M@std@@@3@@std@@@std@@@?$_Tree@V?$_Tmap_traits@PBUSHitData@NRaceData@@V?$map@PAVCActorInstance@@MU?$less@PAVCActorInstance@@@std@@V?$allocator@U?$pair@QAVCActorInstance@@M@std@@@3@@std@@U?$less@PBUSHitData@NRaceData@@@4@V?$allocator@U?$pair@QBUSHitData@NRaceData@@V?$map@PAVCActorInstance@@MU?$less@PAVCActorInstance@@@std@@V?$allocator@U?$pair@QAVCActorInstance@@M@std@@@3@@std@@@std@@@4@$0A@@std@@@std@@IAE?AU?$pair@PAU?$_Tree_node@U?$pair@QBUSHitData@NRaceData@@V?$map@PAVCActorInstance@@MU?$less@PAVCActorInstance@@@std@@V?$allocator@U?$pair@QAVCActorInstance@@M@std@@@3@@std@@@std@@PAX@std@@_N@1@$$QAU?$pair@PBUSHitData@NRaceData@@V?$map@PAVCActorInstance@@MU?$less@PAVCActorInstance@@@std@@V?$allocator@U?$pair@QAVCActorInstance@@M@std@@@3@@std@@@1@@Z
	DD	2 DUP(00H)
	DD	2 DUP(00H)
	DD	00H
	DD	01H
xdata$x	ENDS
;	COMDAT xdata$x
xdata$x	SEGMENT
__unwindtable$??$_Emplace@U?$pair@PAVCActorInstance@@M@std@@@?$_Tree@V?$_Tmap_traits@PAVCActorInstance@@MU?$less@PAVCActorInstance@@@std@@V?$allocator@U?$pair@QAVCActorInstance@@M@std@@@3@$0A@@std@@@std@@IAE?AU?$pair@PAU?$_Tree_node@U?$pair@QAVCActorInstance@@M@std@@PAX@std@@_N@1@$$QAU?$pair@PAVCActorInstance@@M@1@@Z DD 0ffffffffH
	DD	FLAT:__unwindfunclet$??$_Emplace@U?$pair@PAVCActorInstance@@M@std@@@?$_Tree@V?$_Tmap_traits@PAVCActorInstance@@MU?$less@PAVCActorInstance@@@std@@V?$allocator@U?$pair@QAVCActorInstance@@M@std@@@3@$0A@@std@@@std@@IAE?AU?$pair@PAU?$_Tree_node@U?$pair@QAVCActorInstance@@M@std@@PAX@std@@_N@1@$$QAU?$pair@PAVCActorInstance@@M@1@@Z$2
__ehfuncinfo$??$_Emplace@U?$pair@PAVCActorInstance@@M@std@@@?$_Tree@V?$_Tmap_traits@PAVCActorInstance@@MU?$less@PAVCActorInstance@@@std@@V?$allocator@U?$pair@QAVCActorInstance@@M@std@@@3@$0A@@std@@@std@@IAE?AU?$pair@PAU?$_Tree_node@U?$pair@QAVCActorInstance@@M@std@@PAX@std@@_N@1@$$QAU?$pair@PAVCActorInstance@@M@1@@Z DD 019930522H
	DD	01H
	DD	FLAT:__unwindtable$??$_Emplace@U?$pair@PAVCActorInstance@@M@std@@@?$_Tree@V?$_Tmap_traits@PAVCActorInstance@@MU?$less@PAVCActorInstance@@@std@@V?$allocator@U?$pair@QAVCActorInstance@@M@std@@@3@$0A@@std@@@std@@IAE?AU?$pair@PAU?$_Tree_node@U?$pair@QAVCActorInstance@@M@std@@PAX@std@@_N@1@$$QAU?$pair@PAVCActorInstance@@M@1@@Z
	DD	2 DUP(00H)
	DD	2 DUP(00H)
	DD	00H
	DD	01H
xdata$x	ENDS
;	COMDAT xdata$x
xdata$x	SEGMENT
__unwindtable$??$emplace@U?$pair@PBUSHitData@NRaceData@@V?$map@PAVCActorInstance@@MU?$less@PAVCActorInstance@@@std@@V?$allocator@U?$pair@QAVCActorInstance@@M@std@@@3@@std@@@std@@@?$_Tree@V?$_Tmap_traits@PBUSHitData@NRaceData@@V?$map@PAVCActorInstance@@MU?$less@PAVCActorInstance@@@std@@V?$allocator@U?$pair@QAVCActorInstance@@M@std@@@3@@std@@U?$less@PBUSHitData@NRaceData@@@4@V?$allocator@U?$pair@QBUSHitData@NRaceData@@V?$map@PAVCActorInstance@@MU?$less@PAVCActorInstance@@@std@@V?$allocator@U?$pair@QAVCActorInstance@@M@std@@@3@@std@@@std@@@4@$0A@@std@@@std@@QAE?AU?$pair@V?$_Tree_iterator@V?$_Tree_val@U?$_Tree_simple_types@U?$pair@QBUSHitData@NRaceData@@V?$map@PAVCActorInstance@@MU?$less@PAVCActorInstance@@@std@@V?$allocator@U?$pair@QAVCActorInstance@@M@std@@@3@@std@@@std@@@std@@@std@@@std@@_N@1@$$QAU?$pair@PBUSHitData@NRaceData@@V?$map@PAVCActorInstance@@MU?$less@PAVCActorInstance@@@std@@V?$allocator@U?$pair@QAVCActorInstance@@M@std@@@3@@std@@@1@@Z DD 0ffffffffH
	DD	FLAT:__unwindfunclet$??$emplace@U?$pair@PBUSHitData@NRaceData@@V?$map@PAVCActorInstance@@MU?$less@PAVCActorInstance@@@std@@V?$allocator@U?$pair@QAVCActorInstance@@M@std@@@3@@std@@@std@@@?$_Tree@V?$_Tmap_traits@PBUSHitData@NRaceData@@V?$map@PAVCActorInstance@@MU?$less@PAVCActorInstance@@@std@@V?$allocator@U?$pair@QAVCActorInstance@@M@std@@@3@@std@@U?$less@PBUSHitData@NRaceData@@@4@V?$allocator@U?$pair@QBUSHitData@NRaceData@@V?$map@PAVCActorInstance@@MU?$less@PAVCActorInstance@@@std@@V?$allocator@U?$pair@QAVCActorInstance@@M@std@@@3@@std@@@std@@@4@$0A@@std@@@std@@QAE?AU?$pair@V?$_Tree_iterator@V?$_Tree_val@U?$_Tree_simple_types@U?$pair@QBUSHitData@NRaceData@@V?$map@PAVCActorInstance@@MU?$less@PAVCActorInstance@@@std@@V?$allocator@U?$pair@QAVCActorInstance@@M@std@@@3@@std@@@std@@@std@@@std@@@std@@_N@1@$$QAU?$pair@PBUSHitData@NRaceData@@V?$map@PAVCActorInstance@@MU?$less@PAVCActorInstance@@@std@@V?$allocator@U?$pair@QAVCActorInstance@@M@std@@@3@@std@@@1@@Z$2
	DD	0ffffffffH
	DD	FLAT:__unwindfunclet$??$emplace@U?$pair@PBUSHitData@NRaceData@@V?$map@PAVCActorInstance@@MU?$less@PAVCActorInstance@@@std@@V?$allocator@U?$pair@QAVCActorInstance@@M@std@@@3@@std@@@std@@@?$_Tree@V?$_Tmap_traits@PBUSHitData@NRaceData@@V?$map@PAVCActorInstance@@MU?$less@PAVCActorInstance@@@std@@V?$allocator@U?$pair@QAVCActorInstance@@M@std@@@3@@std@@U?$less@PBUSHitData@NRaceData@@@4@V?$allocator@U?$pair@QBUSHitData@NRaceData@@V?$map@PAVCActorInstance@@MU?$less@PAVCActorInstance@@@std@@V?$allocator@U?$pair@QAVCActorInstance@@M@std@@@3@@std@@@std@@@4@$0A@@std@@@std@@QAE?AU?$pair@V?$_Tree_iterator@V?$_Tree_val@U?$_Tree_simple_types@U?$pair@QBUSHitData@NRaceData@@V?$map@PAVCActorInstance@@MU?$less@PAVCActorInstance@@@std@@V?$allocator@U?$pair@QAVCActorInstance@@M@std@@@3@@std@@@std@@@std@@@std@@@std@@_N@1@$$QAU?$pair@PBUSHitData@NRaceData@@V?$map@PAVCActorInstance@@MU?$less@PAVCActorInstance@@@std@@V?$allocator@U?$pair@QAVCActorInstance@@M@std@@@3@@std@@@1@@Z$1
__ehfuncinfo$??$emplace@U?$pair@PBUSHitData@NRaceData@@V?$map@PAVCActorInstance@@MU?$less@PAVCActorInstance@@@std@@V?$allocator@U?$pair@QAVCActorInstance@@M@std@@@3@@std@@@std@@@?$_Tree@V?$_Tmap_traits@PBUSHitData@NRaceData@@V?$map@PAVCActorInstance@@MU?$less@PAVCActorInstance@@@std@@V?$allocator@U?$pair@QAVCActorInstance@@M@std@@@3@@std@@U?$less@PBUSHitData@NRaceData@@@4@V?$allocator@U?$pair@QBUSHitData@NRaceData@@V?$map@PAVCActorInstance@@MU?$less@PAVCActorInstance@@@std@@V?$allocator@U?$pair@QAVCActorInstance@@M@std@@@3@@std@@@std@@@4@$0A@@std@@@std@@QAE?AU?$pair@V?$_Tree_iterator@V?$_Tree_val@U?$_Tree_simple_types@U?$pair@QBUSHitData@NRaceData@@V?$map@PAVCActorInstance@@MU?$less@PAVCActorInstance@@@std@@V?$allocator@U?$pair@QAVCActorInstance@@M@std@@@3@@std@@@std@@@std@@@std@@@std@@_N@1@$$QAU?$pair@PBUSHitData@NRaceData@@V?$map@PAVCActorInstance@@MU?$less@PAVCActorInstance@@@std@@V?$allocator@U?$pair@QAVCActorInstance@@M@std@@@3@@std@@@1@@Z DD 019930522H
	DD	02H
	DD	FLAT:__unwindtable$??$emplace@U?$pair@PBUSHitData@NRaceData@@V?$map@PAVCActorInstance@@MU?$less@PAVCActorInstance@@@std@@V?$allocator@U?$pair@QAVCActorInstance@@M@std@@@3@@std@@@std@@@?$_Tree@V?$_Tmap_traits@PBUSHitData@NRaceData@@V?$map@PAVCActorInstance@@MU?$less@PAVCActorInstance@@@std@@V?$allocator@U?$pair@QAVCActorInstance@@M@std@@@3@@std@@U?$less@PBUSHitData@NRaceData@@@4@V?$allocator@U?$pair@QBUSHitData@NRaceData@@V?$map@PAVCActorInstance@@MU?$less@PAVCActorInstance@@@std@@V?$allocator@U?$pair@QAVCActorInstance@@M@std@@@3@@std@@@std@@@4@$0A@@std@@@std@@QAE?AU?$pair@V?$_Tree_iterator@V?$_Tree_val@U?$_Tree_simple_types@U?$pair@QBUSHitData@NRaceData@@V?$map@PAVCActorInstance@@MU?$less@PAVCActorInstance@@@std@@V?$allocator@U?$pair@QAVCActorInstance@@M@std@@@3@@std@@@std@@@std@@@std@@@std@@_N@1@$$QAU?$pair@PBUSHitData@NRaceData@@V?$map@PAVCActorInstance@@MU?$less@PAVCActorInstance@@@std@@V?$allocator@U?$pair@QAVCActorInstance@@M@std@@@3@@std@@@1@@Z
	DD	2 DUP(00H)
	DD	2 DUP(00H)
	DD	00H
	DD	01H
xdata$x	ENDS
;	COMDAT xdata$x
xdata$x	SEGMENT
__unwindtable$??$?0PBUSHitData@NRaceData@@AAV?$map@PAVCActorInstance@@MU?$less@PAVCActorInstance@@@std@@V?$allocator@U?$pair@QAVCActorInstance@@M@std@@@3@@std@@$0A@@?$pair@PBUSHitData@NRaceData@@V?$map@PAVCActorInstance@@MU?$less@PAVCActorInstance@@@std@@V?$allocator@U?$pair@QAVCActorInstance@@M@std@@@3@@std@@@std@@QAE@$$QAPBUSHitData@NRaceData@@AAV?$map@PAVCActorInstance@@MU?$less@PAVCActorInstance@@@std@@V?$allocator@U?$pair@QAVCActorInstance@@M@std@@@3@@1@@Z DD 0ffffffffH
	DD	FLAT:__unwindfunclet$??$?0PBUSHitData@NRaceData@@AAV?$map@PAVCActorInstance@@MU?$less@PAVCActorInstance@@@std@@V?$allocator@U?$pair@QAVCActorInstance@@M@std@@@3@@std@@$0A@@?$pair@PBUSHitData@NRaceData@@V?$map@PAVCActorInstance@@MU?$less@PAVCActorInstance@@@std@@V?$allocator@U?$pair@QAVCActorInstance@@M@std@@@3@@std@@@std@@QAE@$$QAPBUSHitData@NRaceData@@AAV?$map@PAVCActorInstance@@MU?$less@PAVCActorInstance@@@std@@V?$allocator@U?$pair@QAVCActorInstance@@M@std@@@3@@1@@Z$2
__ehfuncinfo$??$?0PBUSHitData@NRaceData@@AAV?$map@PAVCActorInstance@@MU?$less@PAVCActorInstance@@@std@@V?$allocator@U?$pair@QAVCActorInstance@@M@std@@@3@@std@@$0A@@?$pair@PBUSHitData@NRaceData@@V?$map@PAVCActorInstance@@MU?$less@PAVCActorInstance@@@std@@V?$allocator@U?$pair@QAVCActorInstance@@M@std@@@3@@std@@@std@@QAE@$$QAPBUSHitData@NRaceData@@AAV?$map@PAVCActorInstance@@MU?$less@PAVCActorInstance@@@std@@V?$allocator@U?$pair@QAVCActorInstance@@M@std@@@3@@1@@Z DD 019930522H
	DD	01H
	DD	FLAT:__unwindtable$??$?0PBUSHitData@NRaceData@@AAV?$map@PAVCActorInstance@@MU?$less@PAVCActorInstance@@@std@@V?$allocator@U?$pair@QAVCActorInstance@@M@std@@@3@@std@@$0A@@?$pair@PBUSHitData@NRaceData@@V?$map@PAVCActorInstance@@MU?$less@PAVCActorInstance@@@std@@V?$allocator@U?$pair@QAVCActorInstance@@M@std@@@3@@std@@@std@@QAE@$$QAPBUSHitData@NRaceData@@AAV?$map@PAVCActorInstance@@MU?$less@PAVCActorInstance@@@std@@V?$allocator@U?$pair@QAVCActorInstance@@M@std@@@3@@1@@Z
	DD	2 DUP(00H)
	DD	2 DUP(00H)
	DD	00H
	DD	01H
xdata$x	ENDS
;	COMDAT xdata$x
xdata$x	SEGMENT
__unwindtable$??$emplace@U?$pair@PAVCActorInstance@@M@std@@@?$_Tree@V?$_Tmap_traits@PAVCActorInstance@@MU?$less@PAVCActorInstance@@@std@@V?$allocator@U?$pair@QAVCActorInstance@@M@std@@@3@$0A@@std@@@std@@QAE?AU?$pair@V?$_Tree_iterator@V?$_Tree_val@U?$_Tree_simple_types@U?$pair@QAVCActorInstance@@M@std@@@std@@@std@@@std@@_N@1@$$QAU?$pair@PAVCActorInstance@@M@1@@Z DD 0ffffffffH
	DD	FLAT:__unwindfunclet$??$emplace@U?$pair@PAVCActorInstance@@M@std@@@?$_Tree@V?$_Tmap_traits@PAVCActorInstance@@MU?$less@PAVCActorInstance@@@std@@V?$allocator@U?$pair@QAVCActorInstance@@M@std@@@3@$0A@@std@@@std@@QAE?AU?$pair@V?$_Tree_iterator@V?$_Tree_val@U?$_Tree_simple_types@U?$pair@QAVCActorInstance@@M@std@@@std@@@std@@@std@@_N@1@$$QAU?$pair@PAVCActorInstance@@M@1@@Z$2
__ehfuncinfo$??$emplace@U?$pair@PAVCActorInstance@@M@std@@@?$_Tree@V?$_Tmap_traits@PAVCActorInstance@@MU?$less@PAVCActorInstance@@@std@@V?$allocator@U?$pair@QAVCActorInstance@@M@std@@@3@$0A@@std@@@std@@QAE?AU?$pair@V?$_Tree_iterator@V?$_Tree_val@U?$_Tree_simple_types@U?$pair@QAVCActorInstance@@M@std@@@std@@@std@@@std@@_N@1@$$QAU?$pair@PAVCActorInstance@@M@1@@Z DD 019930522H
	DD	01H
	DD	FLAT:__unwindtable$??$emplace@U?$pair@PAVCActorInstance@@M@std@@@?$_Tree@V?$_Tmap_traits@PAVCActorInstance@@MU?$less@PAVCActorInstance@@@std@@V?$allocator@U?$pair@QAVCActorInstance@@M@std@@@3@$0A@@std@@@std@@QAE?AU?$pair@V?$_Tree_iterator@V?$_Tree_val@U?$_Tree_simple_types@U?$pair@QAVCActorInstance@@M@std@@@std@@@std@@@std@@_N@1@$$QAU?$pair@PAVCActorInstance@@M@1@@Z
	DD	2 DUP(00H)
	DD	2 DUP(00H)
	DD	00H
	DD	01H
xdata$x	ENDS
;	COMDAT xdata$x
xdata$x	SEGMENT
__unwindtable$??$insert@U?$pair@PBUSHitData@NRaceData@@V?$map@PAVCActorInstance@@MU?$less@PAVCActorInstance@@@std@@V?$allocator@U?$pair@QAVCActorInstance@@M@std@@@3@@std@@@std@@$0A@@?$map@PBUSHitData@NRaceData@@V?$map@PAVCActorInstance@@MU?$less@PAVCActorInstance@@@std@@V?$allocator@U?$pair@QAVCActorInstance@@M@std@@@3@@std@@U?$less@PBUSHitData@NRaceData@@@4@V?$allocator@U?$pair@QBUSHitData@NRaceData@@V?$map@PAVCActorInstance@@MU?$less@PAVCActorInstance@@@std@@V?$allocator@U?$pair@QAVCActorInstance@@M@std@@@3@@std@@@std@@@4@@std@@QAE?AU?$pair@V?$_Tree_iterator@V?$_Tree_val@U?$_Tree_simple_types@U?$pair@QBUSHitData@NRaceData@@V?$map@PAVCActorInstance@@MU?$less@PAVCActorInstance@@@std@@V?$allocator@U?$pair@QAVCActorInstance@@M@std@@@3@@std@@@std@@@std@@@std@@@std@@_N@1@$$QAU?$pair@PBUSHitData@NRaceData@@V?$map@PAVCActorInstance@@MU?$less@PAVCActorInstance@@@std@@V?$allocator@U?$pair@QAVCActorInstance@@M@std@@@3@@std@@@1@@Z DD 0ffffffffH
	DD	FLAT:__unwindfunclet$??$insert@U?$pair@PBUSHitData@NRaceData@@V?$map@PAVCActorInstance@@MU?$less@PAVCActorInstance@@@std@@V?$allocator@U?$pair@QAVCActorInstance@@M@std@@@3@@std@@@std@@$0A@@?$map@PBUSHitData@NRaceData@@V?$map@PAVCActorInstance@@MU?$less@PAVCActorInstance@@@std@@V?$allocator@U?$pair@QAVCActorInstance@@M@std@@@3@@std@@U?$less@PBUSHitData@NRaceData@@@4@V?$allocator@U?$pair@QBUSHitData@NRaceData@@V?$map@PAVCActorInstance@@MU?$less@PAVCActorInstance@@@std@@V?$allocator@U?$pair@QAVCActorInstance@@M@std@@@3@@std@@@std@@@4@@std@@QAE?AU?$pair@V?$_Tree_iterator@V?$_Tree_val@U?$_Tree_simple_types@U?$pair@QBUSHitData@NRaceData@@V?$map@PAVCActorInstance@@MU?$less@PAVCActorInstance@@@std@@V?$allocator@U?$pair@QAVCActorInstance@@M@std@@@3@@std@@@std@@@std@@@std@@@std@@_N@1@$$QAU?$pair@PBUSHitData@NRaceData@@V?$map@PAVCActorInstance@@MU?$less@PAVCActorInstance@@@std@@V?$allocator@U?$pair@QAVCActorInstance@@M@std@@@3@@std@@@1@@Z$2
	DD	0ffffffffH
	DD	FLAT:__unwindfunclet$??$insert@U?$pair@PBUSHitData@NRaceData@@V?$map@PAVCActorInstance@@MU?$less@PAVCActorInstance@@@std@@V?$allocator@U?$pair@QAVCActorInstance@@M@std@@@3@@std@@@std@@$0A@@?$map@PBUSHitData@NRaceData@@V?$map@PAVCActorInstance@@MU?$less@PAVCActorInstance@@@std@@V?$allocator@U?$pair@QAVCActorInstance@@M@std@@@3@@std@@U?$less@PBUSHitData@NRaceData@@@4@V?$allocator@U?$pair@QBUSHitData@NRaceData@@V?$map@PAVCActorInstance@@MU?$less@PAVCActorInstance@@@std@@V?$allocator@U?$pair@QAVCActorInstance@@M@std@@@3@@std@@@std@@@4@@std@@QAE?AU?$pair@V?$_Tree_iterator@V?$_Tree_val@U?$_Tree_simple_types@U?$pair@QBUSHitData@NRaceData@@V?$map@PAVCActorInstance@@MU?$less@PAVCActorInstance@@@std@@V?$allocator@U?$pair@QAVCActorInstance@@M@std@@@3@@std@@@std@@@std@@@std@@@std@@_N@1@$$QAU?$pair@PBUSHitData@NRaceData@@V?$map@PAVCActorInstance@@MU?$less@PAVCActorInstance@@@std@@V?$allocator@U?$pair@QAVCActorInstance@@M@std@@@3@@std@@@1@@Z$1
__ehfuncinfo$??$insert@U?$pair@PBUSHitData@NRaceData@@V?$map@PAVCActorInstance@@MU?$less@PAVCActorInstance@@@std@@V?$allocator@U?$pair@QAVCActorInstance@@M@std@@@3@@std@@@std@@$0A@@?$map@PBUSHitData@NRaceData@@V?$map@PAVCActorInstance@@MU?$less@PAVCActorInstance@@@std@@V?$allocator@U?$pair@QAVCActorInstance@@M@std@@@3@@std@@U?$less@PBUSHitData@NRaceData@@@4@V?$allocator@U?$pair@QBUSHitData@NRaceData@@V?$map@PAVCActorInstance@@MU?$less@PAVCActorInstance@@@std@@V?$allocator@U?$pair@QAVCActorInstance@@M@std@@@3@@std@@@std@@@4@@std@@QAE?AU?$pair@V?$_Tree_iterator@V?$_Tree_val@U?$_Tree_simple_types@U?$pair@QBUSHitData@NRaceData@@V?$map@PAVCActorInstance@@MU?$less@PAVCActorInstance@@@std@@V?$allocator@U?$pair@QAVCActorInstance@@M@std@@@3@@std@@@std@@@std@@@std@@@std@@_N@1@$$QAU?$pair@PBUSHitData@NRaceData@@V?$map@PAVCActorInstance@@MU?$less@PAVCActorInstance@@@std@@V?$allocator@U?$pair@QAVCActorInstance@@M@std@@@3@@std@@@1@@Z DD 019930522H
	DD	02H
	DD	FLAT:__unwindtable$??$insert@U?$pair@PBUSHitData@NRaceData@@V?$map@PAVCActorInstance@@MU?$less@PAVCActorInstance@@@std@@V?$allocator@U?$pair@QAVCActorInstance@@M@std@@@3@@std@@@std@@$0A@@?$map@PBUSHitData@NRaceData@@V?$map@PAVCActorInstance@@MU?$less@PAVCActorInstance@@@std@@V?$allocator@U?$pair@QAVCActorInstance@@M@std@@@3@@std@@U?$less@PBUSHitData@NRaceData@@@4@V?$allocator@U?$pair@QBUSHitData@NRaceData@@V?$map@PAVCActorInstance@@MU?$less@PAVCActorInstance@@@std@@V?$allocator@U?$pair@QAVCActorInstance@@M@std@@@3@@std@@@std@@@4@@std@@QAE?AU?$pair@V?$_Tree_iterator@V?$_Tree_val@U?$_Tree_simple_types@U?$pair@QBUSHitData@NRaceData@@V?$map@PAVCActorInstance@@MU?$less@PAVCActorInstance@@@std@@V?$allocator@U?$pair@QAVCActorInstance@@M@std@@@3@@std@@@std@@@std@@@std@@@std@@_N@1@$$QAU?$pair@PBUSHitData@NRaceData@@V?$map@PAVCActorInstance@@MU?$less@PAVCActorInstance@@@std@@V?$allocator@U?$pair@QAVCActorInstance@@M@std@@@3@@std@@@1@@Z
	DD	2 DUP(00H)
	DD	2 DUP(00H)
	DD	00H
	DD	01H
xdata$x	ENDS
;	COMDAT xdata$x
xdata$x	SEGMENT
__unwindtable$??$make_pair@PBUSHitData@NRaceData@@AAV?$map@PAVCActorInstance@@MU?$less@PAVCActorInstance@@@std@@V?$allocator@U?$pair@QAVCActorInstance@@M@std@@@3@@std@@@std@@YA?AU?$pair@PBUSHitData@NRaceData@@V?$map@PAVCActorInstance@@MU?$less@PAVCActorInstance@@@std@@V?$allocator@U?$pair@QAVCActorInstance@@M@std@@@3@@std@@@0@$$QAPBUSHitData@NRaceData@@AAV?$map@PAVCActorInstance@@MU?$less@PAVCActorInstance@@@std@@V?$allocator@U?$pair@QAVCActorInstance@@M@std@@@3@@0@@Z DD 0ffffffffH
	DD	FLAT:__unwindfunclet$??$make_pair@PBUSHitData@NRaceData@@AAV?$map@PAVCActorInstance@@MU?$less@PAVCActorInstance@@@std@@V?$allocator@U?$pair@QAVCActorInstance@@M@std@@@3@@std@@@std@@YA?AU?$pair@PBUSHitData@NRaceData@@V?$map@PAVCActorInstance@@MU?$less@PAVCActorInstance@@@std@@V?$allocator@U?$pair@QAVCActorInstance@@M@std@@@3@@std@@@0@$$QAPBUSHitData@NRaceData@@AAV?$map@PAVCActorInstance@@MU?$less@PAVCActorInstance@@@std@@V?$allocator@U?$pair@QAVCActorInstance@@M@std@@@3@@0@@Z$3
__ehfuncinfo$??$make_pair@PBUSHitData@NRaceData@@AAV?$map@PAVCActorInstance@@MU?$less@PAVCActorInstance@@@std@@V?$allocator@U?$pair@QAVCActorInstance@@M@std@@@3@@std@@@std@@YA?AU?$pair@PBUSHitData@NRaceData@@V?$map@PAVCActorInstance@@MU?$less@PAVCActorInstance@@@std@@V?$allocator@U?$pair@QAVCActorInstance@@M@std@@@3@@std@@@0@$$QAPBUSHitData@NRaceData@@AAV?$map@PAVCActorInstance@@MU?$less@PAVCActorInstance@@@std@@V?$allocator@U?$pair@QAVCActorInstance@@M@std@@@3@@0@@Z DD 019930522H
	DD	01H
	DD	FLAT:__unwindtable$??$make_pair@PBUSHitData@NRaceData@@AAV?$map@PAVCActorInstance@@MU?$less@PAVCActorInstance@@@std@@V?$allocator@U?$pair@QAVCActorInstance@@M@std@@@3@@std@@@std@@YA?AU?$pair@PBUSHitData@NRaceData@@V?$map@PAVCActorInstance@@MU?$less@PAVCActorInstance@@@std@@V?$allocator@U?$pair@QAVCActorInstance@@M@std@@@3@@std@@@0@$$QAPBUSHitData@NRaceData@@AAV?$map@PAVCActorInstance@@MU?$less@PAVCActorInstance@@@std@@V?$allocator@U?$pair@QAVCActorInstance@@M@std@@@3@@0@@Z
	DD	2 DUP(00H)
	DD	2 DUP(00H)
	DD	00H
	DD	01H
xdata$x	ENDS
;	COMDAT xdata$x
xdata$x	SEGMENT
__unwindtable$??$insert@U?$pair@PAVCActorInstance@@M@std@@$0A@@?$map@PAVCActorInstance@@MU?$less@PAVCActorInstance@@@std@@V?$allocator@U?$pair@QAVCActorInstance@@M@std@@@3@@std@@QAE?AU?$pair@V?$_Tree_iterator@V?$_Tree_val@U?$_Tree_simple_types@U?$pair@QAVCActorInstance@@M@std@@@std@@@std@@@std@@_N@1@$$QAU?$pair@PAVCActorInstance@@M@1@@Z DD 0ffffffffH
	DD	FLAT:__unwindfunclet$??$insert@U?$pair@PAVCActorInstance@@M@std@@$0A@@?$map@PAVCActorInstance@@MU?$less@PAVCActorInstance@@@std@@V?$allocator@U?$pair@QAVCActorInstance@@M@std@@@3@@std@@QAE?AU?$pair@V?$_Tree_iterator@V?$_Tree_val@U?$_Tree_simple_types@U?$pair@QAVCActorInstance@@M@std@@@std@@@std@@@std@@_N@1@$$QAU?$pair@PAVCActorInstance@@M@1@@Z$2
__ehfuncinfo$??$insert@U?$pair@PAVCActorInstance@@M@std@@$0A@@?$map@PAVCActorInstance@@MU?$less@PAVCActorInstance@@@std@@V?$allocator@U?$pair@QAVCActorInstance@@M@std@@@3@@std@@QAE?AU?$pair@V?$_Tree_iterator@V?$_Tree_val@U?$_Tree_simple_types@U?$pair@QAVCActorInstance@@M@std@@@std@@@std@@@std@@_N@1@$$QAU?$pair@PAVCActorInstance@@M@1@@Z DD 019930522H
	DD	01H
	DD	FLAT:__unwindtable$??$insert@U?$pair@PAVCActorInstance@@M@std@@$0A@@?$map@PAVCActorInstance@@MU?$less@PAVCActorInstance@@@std@@V?$allocator@U?$pair@QAVCActorInstance@@M@std@@@3@@std@@QAE?AU?$pair@V?$_Tree_iterator@V?$_Tree_val@U?$_Tree_simple_types@U?$pair@QAVCActorInstance@@M@std@@@std@@@std@@@std@@_N@1@$$QAU?$pair@PAVCActorInstance@@M@1@@Z
	DD	2 DUP(00H)
	DD	2 DUP(00H)
	DD	00H
	DD	01H
xdata$x	ENDS
;	COMDAT xdata$x
xdata$x	SEGMENT
__ehfuncinfo$?__NormalAttackProcess@CActorInstance@@QAEHAAV1@@Z DD 019930522H
	DD	06H
	DD	FLAT:__unwindtable$?__NormalAttackProcess@CActorInstance@@QAEHAAV1@@Z
	DD	2 DUP(00H)
	DD	2 DUP(00H)
	DD	00H
	DD	01H
__unwindtable$?__NormalAttackProcess@CActorInstance@@QAEHAAV1@@Z DD 0ffffffffH
	DD	FLAT:__unwindfunclet$?__NormalAttackProcess@CActorInstance@@QAEHAAV1@@Z$0
	DD	00H
	DD	FLAT:__unwindfunclet$?__NormalAttackProcess@CActorInstance@@QAEHAAV1@@Z$5
	DD	00H
	DD	FLAT:__unwindfunclet$?__NormalAttackProcess@CActorInstance@@QAEHAAV1@@Z$11
	DD	00H
	DD	FLAT:__unwindfunclet$?__NormalAttackProcess@CActorInstance@@QAEHAAV1@@Z$1
	DD	03H
	DD	FLAT:__unwindfunclet$?__NormalAttackProcess@CActorInstance@@QAEHAAV1@@Z$14
	DD	03H
	DD	FLAT:__unwindfunclet$?__NormalAttackProcess@CActorInstance@@QAEHAAV1@@Z$13
xdata$x	ENDS
;	COMDAT xdata$x
xdata$x	SEGMENT
__unwindtable$??0?$map@PAVCActorInstance@@MU?$less@PAVCActorInstance@@@std@@V?$allocator@U?$pair@QAVCActorInstance@@M@std@@@3@@std@@QAE@ABV01@@Z DD 0ffffffffH
	DD	FLAT:__unwindfunclet$??0?$map@PAVCActorInstance@@MU?$less@PAVCActorInstance@@@std@@V?$allocator@U?$pair@QAVCActorInstance@@M@std@@@3@@std@@QAE@ABV01@@Z$1
__ehfuncinfo$??0?$map@PAVCActorInstance@@MU?$less@PAVCActorInstance@@@std@@V?$allocator@U?$pair@QAVCActorInstance@@M@std@@@3@@std@@QAE@ABV01@@Z DD 019930522H
	DD	01H
	DD	FLAT:__unwindtable$??0?$map@PAVCActorInstance@@MU?$less@PAVCActorInstance@@@std@@V?$allocator@U?$pair@QAVCActorInstance@@M@std@@@3@@std@@QAE@ABV01@@Z
	DD	2 DUP(00H)
	DD	2 DUP(00H)
	DD	00H
	DD	01H
xdata$x	ENDS
;	COMDAT CRT$XCU
CRT$XCU	SEGMENT
??ms_kPool$initializer$@?$CPooledObject@VCNullDecorator@NEffectUpdateDecorator@@@@1P6AXXZA@@3P6AXXZA DD FLAT:??__E?ms_kPool@?$CPooledObject@VCNullDecorator@NEffectUpdateDecorator@@@@1V?$CDynamicPoolEx@VCNullDecorator@NEffectUpdateDecorator@@@@A@@YAXXZ ; ??ms_kPool$initializer$@?$CPooledObject@VCNullDecorator@NEffectUpdateDecorator@@@@1P6AXXZA@@3P6AXXZA
CRT$XCU	ENDS
;	COMDAT CRT$XCU
CRT$XCU	SEGMENT
??ms_kPool$initializer$@?$CPooledObject@VCTextureAnimationCWDecorator@NEffectUpdateDecorator@@@@1P6AXXZA@@3P6AXXZA DD FLAT:??__E?ms_kPool@?$CPooledObject@VCTextureAnimationCWDecorator@NEffectUpdateDecorator@@@@1V?$CDynamicPoolEx@VCTextureAnimationCWDecorator@NEffectUpdateDecorator@@@@A@@YAXXZ ; ??ms_kPool$initializer$@?$CPooledObject@VCTextureAnimationCWDecorator@NEffectUpdateDecorator@@@@1P6AXXZA@@3P6AXXZA
CRT$XCU	ENDS
;	COMDAT CRT$XCU
CRT$XCU	SEGMENT
??ms_kPool$initializer$@?$CPooledObject@VCTextureAnimationCCWDecorator@NEffectUpdateDecorator@@@@1P6AXXZA@@3P6AXXZA DD FLAT:??__E?ms_kPool@?$CPooledObject@VCTextureAnimationCCWDecorator@NEffectUpdateDecorator@@@@1V?$CDynamicPoolEx@VCTextureAnimationCCWDecorator@NEffectUpdateDecorator@@@@A@@YAXXZ ; ??ms_kPool$initializer$@?$CPooledObject@VCTextureAnimationCCWDecorator@NEffectUpdateDecorator@@@@1P6AXXZA@@3P6AXXZA
CRT$XCU	ENDS
;	COMDAT CRT$XCU
CRT$XCU	SEGMENT
??ms_kPool$initializer$@?$CPooledObject@VCTextureAnimationRandomDecorator@NEffectUpdateDecorator@@@@1P6AXXZA@@3P6AXXZA DD FLAT:??__E?ms_kPool@?$CPooledObject@VCTextureAnimationRandomDecorator@NEffectUpdateDecorator@@@@1V?$CDynamicPoolEx@VCTextureAnimationRandomDecorator@NEffectUpdateDecorator@@@@A@@YAXXZ ; ??ms_kPool$initializer$@?$CPooledObject@VCTextureAnimationRandomDecorator@NEffectUpdateDecorator@@@@1P6AXXZA@@3P6AXXZA
CRT$XCU	ENDS
;	COMDAT CRT$XCU
CRT$XCU	SEGMENT
??ms_kPool$initializer$@?$CPooledObject@VCAirResistanceDecorator@NEffectUpdateDecorator@@@@1P6AXXZA@@3P6AXXZA DD FLAT:??__E?ms_kPool@?$CPooledObject@VCAirResistanceDecorator@NEffectUpdateDecorator@@@@1V?$CDynamicPoolEx@VCAirResistanceDecorator@NEffectUpdateDecorator@@@@A@@YAXXZ ; ??ms_kPool$initializer$@?$CPooledObject@VCAirResistanceDecorator@NEffectUpdateDecorator@@@@1P6AXXZA@@3P6AXXZA
CRT$XCU	ENDS
;	COMDAT CRT$XCU
CRT$XCU	SEGMENT
??ms_kPool$initializer$@?$CPooledObject@VCGravityDecorator@NEffectUpdateDecorator@@@@1P6AXXZA@@3P6AXXZA DD FLAT:??__E?ms_kPool@?$CPooledObject@VCGravityDecorator@NEffectUpdateDecorator@@@@1V?$CDynamicPoolEx@VCGravityDecorator@NEffectUpdateDecorator@@@@A@@YAXXZ ; ??ms_kPool$initializer$@?$CPooledObject@VCGravityDecorator@NEffectUpdateDecorator@@@@1P6AXXZA@@3P6AXXZA
CRT$XCU	ENDS
;	COMDAT CRT$XCU
CRT$XCU	SEGMENT
??ms_kPool$initializer$@?$CPooledObject@VCRotationDecorator@NEffectUpdateDecorator@@@@1P6AXXZA@@3P6AXXZA DD FLAT:??__E?ms_kPool@?$CPooledObject@VCRotationDecorator@NEffectUpdateDecorator@@@@1V?$CDynamicPoolEx@VCRotationDecorator@NEffectUpdateDecorator@@@@A@@YAXXZ ; ??ms_kPool$initializer$@?$CPooledObject@VCRotationDecorator@NEffectUpdateDecorator@@@@1P6AXXZA@@3P6AXXZA
CRT$XCU	ENDS
; Function compile flags: /Ogtp
; File C:\Program Files (x86)\Microsoft Visual Studio\2019\Community\VC\Tools\MSVC\14.27.29110\include\xtree
; File C:\Program Files (x86)\Microsoft Visual Studio\2019\Community\VC\Tools\MSVC\14.27.29110\include\utility
; File C:\Program Files (x86)\Microsoft Visual Studio\2019\Community\VC\Tools\MSVC\14.27.29110\include\xmemory
; File C:\Program Files (x86)\Microsoft Visual Studio\2019\Community\VC\Tools\MSVC\14.27.29110\include\xtree
;	COMDAT ??$_Erase_tree_and_orphan@V?$allocator@U?$_Tree_node@U?$pair@QAVCActorInstance@@M@std@@PAX@std@@@std@@@?$_Tree_val@U?$_Tree_simple_types@U?$pair@QAVCActorInstance@@M@std@@@std@@@std@@QAEXAAV?$allocator@U?$_Tree_node@U?$pair@QAVCActorInstance@@M@std@@PAX@std@@@1@PAU?$_Tree_node@U?$pair@QAVCActorInstance@@M@std@@PAX@1@@Z
_TEXT	SEGMENT
__Al$ = 8						; size = 4
__Rootnode$ = 12					; size = 4
??$_Erase_tree_and_orphan@V?$allocator@U?$_Tree_node@U?$pair@QAVCActorInstance@@M@std@@PAX@std@@@std@@@?$_Tree_val@U?$_Tree_simple_types@U?$pair@QAVCActorInstance@@M@std@@@std@@@std@@QAEXAAV?$allocator@U?$_Tree_node@U?$pair@QAVCActorInstance@@M@std@@PAX@std@@@1@PAU?$_Tree_node@U?$pair@QAVCActorInstance@@M@std@@PAX@1@@Z PROC ; std::_Tree_val<std::_Tree_simple_types<std::pair<CActorInstance * const,float> > >::_Erase_tree_and_orphan<std::allocator<std::_Tree_node<std::pair<CActorInstance * const,float>,void *> > >, COMDAT
; _this$ = ecx

; 732  :     void _Erase_tree_and_orphan(_Alnode& _Al, _Nodeptr _Rootnode) noexcept {

  00000	55		 push	 ebp
  00001	8b ec		 mov	 ebp, esp
  00003	53		 push	 ebx
  00004	56		 push	 esi

; 733  :         while (!_Rootnode->_Isnil) { // free subtrees, then node

  00005	8b 75 0c	 mov	 esi, DWORD PTR __Rootnode$[ebp]
  00008	8b d9		 mov	 ebx, ecx
  0000a	80 7e 0d 00	 cmp	 BYTE PTR [esi+13], 0
  0000e	75 25		 jne	 SHORT $LN3@Erase_tree
  00010	57		 push	 edi
  00011	8b 7d 08	 mov	 edi, DWORD PTR __Al$[ebp]
$LL2@Erase_tree:

; 734  :             _Erase_tree_and_orphan(_Al, _Rootnode->_Right);

  00014	ff 76 08	 push	 DWORD PTR [esi+8]
  00017	8b cb		 mov	 ecx, ebx
  00019	57		 push	 edi
  0001a	e8 00 00 00 00	 call	 ??$_Erase_tree_and_orphan@V?$allocator@U?$_Tree_node@U?$pair@QAVCActorInstance@@M@std@@PAX@std@@@std@@@?$_Tree_val@U?$_Tree_simple_types@U?$pair@QAVCActorInstance@@M@std@@@std@@@std@@QAEXAAV?$allocator@U?$_Tree_node@U?$pair@QAVCActorInstance@@M@std@@PAX@std@@@1@PAU?$_Tree_node@U?$pair@QAVCActorInstance@@M@std@@PAX@1@@Z ; std::_Tree_val<std::_Tree_simple_types<std::pair<CActorInstance * const,float> > >::_Erase_tree_and_orphan<std::allocator<std::_Tree_node<std::pair<CActorInstance * const,float>,void *> > >
; File C:\Program Files (x86)\Microsoft Visual Studio\2019\Community\VC\Tools\MSVC\14.27.29110\include\utility

; 599  :     _Ty _Old_val = static_cast<_Ty&&>(_Val);

  0001f	8b c6		 mov	 eax, esi

; 600  :     _Val         = static_cast<_Other&&>(_New_val);

  00021	8b 36		 mov	 esi, DWORD PTR [esi]
; File C:\Program Files (x86)\Microsoft Visual Studio\2019\Community\VC\Tools\MSVC\14.27.29110\include\xmemory

; 689  :         _Deallocate<_New_alignof<value_type>>(_Ptr, sizeof(value_type) * _Count);

  00023	6a 18		 push	 24			; 00000018H
  00025	50		 push	 eax
  00026	e8 00 00 00 00	 call	 ??$_Deallocate@$07$0A@@std@@YAXPAXI@Z ; std::_Deallocate<8,0>
  0002b	83 c4 08	 add	 esp, 8
; File C:\Program Files (x86)\Microsoft Visual Studio\2019\Community\VC\Tools\MSVC\14.27.29110\include\xtree

; 733  :         while (!_Rootnode->_Isnil) { // free subtrees, then node

  0002e	80 7e 0d 00	 cmp	 BYTE PTR [esi+13], 0
  00032	74 e0		 je	 SHORT $LL2@Erase_tree
  00034	5f		 pop	 edi
$LN3@Erase_tree:
  00035	5e		 pop	 esi

; 735  :             auto _To_delete = _STD exchange(_Rootnode, _Rootnode->_Left);
; 736  :             _Orphan_ptr(_To_delete);
; 737  :             _Alnode::value_type::_Freenode(_Al, _To_delete);
; 738  :         }
; 739  :     }

  00036	5b		 pop	 ebx
  00037	5d		 pop	 ebp
  00038	c2 08 00	 ret	 8
??$_Erase_tree_and_orphan@V?$allocator@U?$_Tree_node@U?$pair@QAVCActorInstance@@M@std@@PAX@std@@@std@@@?$_Tree_val@U?$_Tree_simple_types@U?$pair@QAVCActorInstance@@M@std@@@std@@@std@@QAEXAAV?$allocator@U?$_Tree_node@U?$pair@QAVCActorInstance@@M@std@@PAX@std@@@1@PAU?$_Tree_node@U?$pair@QAVCActorInstance@@M@std@@PAX@1@@Z ENDP ; std::_Tree_val<std::_Tree_simple_types<std::pair<CActorInstance * const,float> > >::_Erase_tree_and_orphan<std::allocator<std::_Tree_node<std::pair<CActorInstance * const,float>,void *> > >
_TEXT	ENDS
; Function compile flags: /Ogtp
; File C:\Program Files (x86)\Microsoft Visual Studio\2019\Community\VC\Tools\MSVC\14.27.29110\include\xtree
; File C:\Program Files (x86)\Microsoft Visual Studio\2019\Community\VC\Tools\MSVC\14.27.29110\include\xmemory
; File C:\Program Files (x86)\Microsoft Visual Studio\2019\Community\VC\Tools\MSVC\14.27.29110\include\xtree
; File C:\Program Files (x86)\Microsoft Visual Studio\2019\Community\VC\Tools\MSVC\14.27.29110\include\xmemory
; File C:\Program Files (x86)\Microsoft Visual Studio\2019\Community\VC\Tools\MSVC\14.27.29110\include\xtree
;	COMDAT ??$_Copy_nodes@U_Copy_tag@?$_Tree@V?$_Tmap_traits@PAVCActorInstance@@MU?$less@PAVCActorInstance@@@std@@V?$allocator@U?$pair@QAVCActorInstance@@M@std@@@3@$0A@@std@@@std@@@?$_Tree@V?$_Tmap_traits@PAVCActorInstance@@MU?$less@PAVCActorInstance@@@std@@V?$allocator@U?$pair@QAVCActorInstance@@M@std@@@3@$0A@@std@@@std@@IAEPAU?$_Tree_node@U?$pair@QAVCActorInstance@@M@std@@PAX@1@PAU21@0U_Copy_tag@01@@Z
_TEXT	SEGMENT
__Newnode$2 = -36					; size = 8
_this$ = -28						; size = 4
__Newroot$1$ = -24					; size = 4
__Myhead$3 = -20					; size = 4
__$EHRec$ = -16						; size = 16
__Newroot$ = 8						; size = 4
__Rootnode$ = 8						; size = 4
__Wherenode$ = 12					; size = 4
__Movefl$ = 16						; size = 1
??$_Copy_nodes@U_Copy_tag@?$_Tree@V?$_Tmap_traits@PAVCActorInstance@@MU?$less@PAVCActorInstance@@@std@@V?$allocator@U?$pair@QAVCActorInstance@@M@std@@@3@$0A@@std@@@std@@@?$_Tree@V?$_Tmap_traits@PAVCActorInstance@@MU?$less@PAVCActorInstance@@@std@@V?$allocator@U?$pair@QAVCActorInstance@@M@std@@@3@$0A@@std@@@std@@IAEPAU?$_Tree_node@U?$pair@QAVCActorInstance@@M@std@@PAX@1@PAU21@0U_Copy_tag@01@@Z PROC ; std::_Tree<std::_Tmap_traits<CActorInstance *,float,std::less<CActorInstance *>,std::allocator<std::pair<CActorInstance * const,float> >,0> >::_Copy_nodes<std::_Tree<std::_Tmap_traits<CActorInstance *,float,std::less<CActorInstance *>,std::allocator<std::pair<CActorInstance * const,float> >,0> >::_Copy_tag>, COMDAT
; _this$ = ecx

; 1755 :     _Nodeptr _Copy_nodes(_Nodeptr _Rootnode, _Nodeptr _Wherenode, _Moveit _Movefl) {

  00000	55		 push	 ebp
  00001	8b ec		 mov	 ebp, esp
  00003	6a ff		 push	 -1
  00005	68 00 00 00 00	 push	 __ehhandler$??$_Copy_nodes@U_Copy_tag@?$_Tree@V?$_Tmap_traits@PAVCActorInstance@@MU?$less@PAVCActorInstance@@@std@@V?$allocator@U?$pair@QAVCActorInstance@@M@std@@@3@$0A@@std@@@std@@@?$_Tree@V?$_Tmap_traits@PAVCActorInstance@@MU?$less@PAVCActorInstance@@@std@@V?$allocator@U?$pair@QAVCActorInstance@@M@std@@@3@$0A@@std@@@std@@IAEPAU?$_Tree_node@U?$pair@QAVCActorInstance@@M@std@@PAX@1@PAU21@0U_Copy_tag@01@@Z
  0000a	64 a1 00 00 00
	00		 mov	 eax, DWORD PTR fs:0
  00010	50		 push	 eax
  00011	83 ec 18	 sub	 esp, 24			; 00000018H
  00014	53		 push	 ebx
  00015	56		 push	 esi
  00016	57		 push	 edi
  00017	a1 00 00 00 00	 mov	 eax, DWORD PTR ___security_cookie
  0001c	33 c5		 xor	 eax, ebp
  0001e	50		 push	 eax
  0001f	8d 45 f4	 lea	 eax, DWORD PTR __$EHRec$[ebp+4]
  00022	64 a3 00 00 00
	00		 mov	 DWORD PTR fs:0, eax
  00028	89 65 f0	 mov	 DWORD PTR __$EHRec$[ebp], esp
  0002b	8b f9		 mov	 edi, ecx
  0002d	89 7d e4	 mov	 DWORD PTR _this$[ebp], edi

; 1756 :         // copy entire subtree, recursively
; 1757 :         const auto _Scary = _Get_scary();
; 1758 :         _Nodeptr _Newroot = _Scary->_Myhead; // point at nil node
; 1759 : 
; 1760 :         if (!_Rootnode->_Isnil) { // copy or move a node, then any subtrees

  00030	8b 75 08	 mov	 esi, DWORD PTR __Rootnode$[ebp]
  00033	8b 07		 mov	 eax, DWORD PTR [edi]
  00035	89 45 e8	 mov	 DWORD PTR __Newroot$1$[ebp], eax
  00038	80 7e 0d 00	 cmp	 BYTE PTR [esi+13], 0
  0003c	0f 85 9e 00 00
	00		 jne	 $LN5@Copy_nodes

; 2027 :         return _Node::_Buynode(_Getal(), _Get_scary()->_Myhead, _STD forward<_Valty>(_Val)...);

  00042	89 45 ec	 mov	 DWORD PTR __Myhead$3[ebp], eax
; File C:\Program Files (x86)\Microsoft Visual Studio\2019\Community\VC\Tools\MSVC\14.27.29110\include\xmemory

; 1040 :     explicit _Alloc_construct_ptr(_Alloc& _Al_) : _Al(_Al_), _Ptr(nullptr) {}

  00045	89 7d dc	 mov	 DWORD PTR __Newnode$2[ebp], edi

; 807  :         return static_cast<_Ty*>(_Allocate<_New_alignof<_Ty>>(_Get_size_of_n<sizeof(_Ty)>(_Count)));

  00048	6a 18		 push	 24			; 00000018H
; File C:\Program Files (x86)\Microsoft Visual Studio\2019\Community\VC\Tools\MSVC\14.27.29110\include\xtree

; 356  :         _Alloc_construct_ptr<_Alloc> _Newnode(_Al);

  0004a	c7 45 fc 00 00
	00 00		 mov	 DWORD PTR __$EHRec$[ebp+12], 0
; File C:\Program Files (x86)\Microsoft Visual Studio\2019\Community\VC\Tools\MSVC\14.27.29110\include\xmemory

; 1047 :         _Ptr = nullptr; // if allocate throws, prevents double-free

  00051	c7 45 e0 00 00
	00 00		 mov	 DWORD PTR __Newnode$2[ebp+4], 0

; 807  :         return static_cast<_Ty*>(_Allocate<_New_alignof<_Ty>>(_Get_size_of_n<sizeof(_Ty)>(_Count)));

  00058	e8 00 00 00 00	 call	 ??$_Allocate@$07U_Default_allocate_traits@std@@$0A@@std@@YAPAXI@Z ; std::_Allocate<8,std::_Default_allocate_traits,0>

; 1048 :         _Ptr = _Al.allocate(1);

  0005d	8b d8		 mov	 ebx, eax
; File C:\Program Files (x86)\Microsoft Visual Studio\2019\Community\VC\Tools\MSVC\14.27.29110\include\xtree

; 358  :         allocator_traits<_Alloc>::construct(_Al, _STD addressof(_Newnode._Ptr->_Myval), _STD forward<_Valty>(_Val)...);

  0005f	8b 46 10	 mov	 eax, DWORD PTR [esi+16]
  00062	89 43 10	 mov	 DWORD PTR [ebx+16], eax
  00065	8b 46 14	 mov	 eax, DWORD PTR [esi+20]
  00068	89 43 14	 mov	 DWORD PTR [ebx+20], eax

; 359  :         _Construct_in_place(_Newnode._Ptr->_Left, _Myhead);

  0006b	8d 45 ec	 lea	 eax, DWORD PTR __Myhead$3[ebp]
  0006e	50		 push	 eax
  0006f	53		 push	 ebx
  00070	e8 00 00 00 00	 call	 ??$_Construct_in_place@PAU?$_Tree_node@U?$pair@QAVCActorInstance@@M@std@@PAX@std@@AAPAU12@@std@@YAXAAPAU?$_Tree_node@U?$pair@QAVCActorInstance@@M@std@@PAX@0@0@Z ; std::_Construct_in_place<std::_Tree_node<std::pair<CActorInstance * const,float>,void *> *,std::_Tree_node<std::pair<CActorInstance * const,float>,void *> * &>

; 360  :         _Construct_in_place(_Newnode._Ptr->_Parent, _Myhead);

  00075	8d 45 ec	 lea	 eax, DWORD PTR __Myhead$3[ebp]
  00078	50		 push	 eax
  00079	8d 73 04	 lea	 esi, DWORD PTR [ebx+4]
  0007c	56		 push	 esi
  0007d	e8 00 00 00 00	 call	 ??$_Construct_in_place@PAU?$_Tree_node@U?$pair@QAVCActorInstance@@M@std@@PAX@std@@AAPAU12@@std@@YAXAAPAU?$_Tree_node@U?$pair@QAVCActorInstance@@M@std@@PAX@0@0@Z ; std::_Construct_in_place<std::_Tree_node<std::pair<CActorInstance * const,float>,void *> *,std::_Tree_node<std::pair<CActorInstance * const,float>,void *> * &>

; 361  :         _Construct_in_place(_Newnode._Ptr->_Right, _Myhead);

  00082	8d 4d ec	 lea	 ecx, DWORD PTR __Myhead$3[ebp]
  00085	8d 43 08	 lea	 eax, DWORD PTR [ebx+8]
  00088	51		 push	 ecx
  00089	50		 push	 eax
  0008a	e8 00 00 00 00	 call	 ??$_Construct_in_place@PAU?$_Tree_node@U?$pair@QAVCActorInstance@@M@std@@PAX@std@@AAPAU12@@std@@YAXAAPAU?$_Tree_node@U?$pair@QAVCActorInstance@@M@std@@PAX@0@0@Z ; std::_Construct_in_place<std::_Tree_node<std::pair<CActorInstance * const,float>,void *> *,std::_Tree_node<std::pair<CActorInstance * const,float>,void *> * &>

; 1761 :             typename is_same<key_type, value_type>::type _Is_set;
; 1762 :             _Nodeptr _Pnode = _Copy_or_move(_Rootnode->_Myval, _Movefl, _Is_set);
; 1763 :             _Pnode->_Parent = _Wherenode;

  0008f	8b 45 0c	 mov	 eax, DWORD PTR __Wherenode$[ebp]

; 361  :         _Construct_in_place(_Newnode._Ptr->_Right, _Myhead);

  00092	83 c4 1c	 add	 esp, 28			; 0000001cH

; 362  :         _Newnode._Ptr->_Color = _Red;

  00095	66 c7 43 0c 00
	00		 mov	 WORD PTR [ebx+12], 0

; 1764 :             _Pnode->_Color  = _Rootnode->_Color;
; 1765 :             if (_Newroot->_Isnil) {
; 1766 :                 _Newroot = _Pnode; // memorize new root
; 1767 :             }
; 1768 : 
; 1769 :             _TRY_BEGIN
; 1770 :             _Pnode->_Left  = _Copy_nodes(_Rootnode->_Left, _Pnode, _Movefl);

  0009b	8b cf		 mov	 ecx, edi
  0009d	89 06		 mov	 DWORD PTR [esi], eax
  0009f	8b 75 08	 mov	 esi, DWORD PTR __Rootnode$[ebp]
  000a2	c7 45 fc 01 00
	00 00		 mov	 DWORD PTR __$EHRec$[ebp+12], 1
  000a9	8a 46 0c	 mov	 al, BYTE PTR [esi+12]
  000ac	88 43 0c	 mov	 BYTE PTR [ebx+12], al
  000af	8b 45 e8	 mov	 eax, DWORD PTR __Newroot$1$[ebp]
  000b2	ff 75 10	 push	 DWORD PTR __Movefl$[ebp]
  000b5	53		 push	 ebx
  000b6	80 78 0d 00	 cmp	 BYTE PTR [eax+13], 0
  000ba	ff 36		 push	 DWORD PTR [esi]
  000bc	0f 45 c3	 cmovne	 eax, ebx
  000bf	89 45 e8	 mov	 DWORD PTR __Newroot$1$[ebp], eax
  000c2	89 45 08	 mov	 DWORD PTR __Newroot$[ebp], eax
  000c5	e8 00 00 00 00	 call	 ??$_Copy_nodes@U_Copy_tag@?$_Tree@V?$_Tmap_traits@PAVCActorInstance@@MU?$less@PAVCActorInstance@@@std@@V?$allocator@U?$pair@QAVCActorInstance@@M@std@@@3@$0A@@std@@@std@@@?$_Tree@V?$_Tmap_traits@PAVCActorInstance@@MU?$less@PAVCActorInstance@@@std@@V?$allocator@U?$pair@QAVCActorInstance@@M@std@@@3@$0A@@std@@@std@@IAEPAU?$_Tree_node@U?$pair@QAVCActorInstance@@M@std@@PAX@1@PAU21@0U_Copy_tag@01@@Z ; std::_Tree<std::_Tmap_traits<CActorInstance *,float,std::less<CActorInstance *>,std::allocator<std::pair<CActorInstance * const,float> >,0> >::_Copy_nodes<std::_Tree<std::_Tmap_traits<CActorInstance *,float,std::less<CActorInstance *>,std::allocator<std::pair<CActorInstance * const,float> >,0> >::_Copy_tag>
  000ca	89 03		 mov	 DWORD PTR [ebx], eax

; 1771 :             _Pnode->_Right = _Copy_nodes(_Rootnode->_Right, _Pnode, _Movefl);

  000cc	8b cf		 mov	 ecx, edi
  000ce	ff 75 10	 push	 DWORD PTR __Movefl$[ebp]
  000d1	53		 push	 ebx
  000d2	ff 76 08	 push	 DWORD PTR [esi+8]
  000d5	e8 00 00 00 00	 call	 ??$_Copy_nodes@U_Copy_tag@?$_Tree@V?$_Tmap_traits@PAVCActorInstance@@MU?$less@PAVCActorInstance@@@std@@V?$allocator@U?$pair@QAVCActorInstance@@M@std@@@3@$0A@@std@@@std@@@?$_Tree@V?$_Tmap_traits@PAVCActorInstance@@MU?$less@PAVCActorInstance@@@std@@V?$allocator@U?$pair@QAVCActorInstance@@M@std@@@3@$0A@@std@@@std@@IAEPAU?$_Tree_node@U?$pair@QAVCActorInstance@@M@std@@PAX@1@PAU21@0U_Copy_tag@01@@Z ; std::_Tree<std::_Tmap_traits<CActorInstance *,float,std::less<CActorInstance *>,std::allocator<std::pair<CActorInstance * const,float> >,0> >::_Copy_nodes<std::_Tree<std::_Tmap_traits<CActorInstance *,float,std::less<CActorInstance *>,std::allocator<std::pair<CActorInstance * const,float> >,0> >::_Copy_tag>
  000da	89 43 08	 mov	 DWORD PTR [ebx+8], eax
  000dd	8b 45 e8	 mov	 eax, DWORD PTR __Newroot$1$[ebp]
$LN5@Copy_nodes:

; 1775 :             _CATCH_END
; 1776 :         }
; 1777 : 
; 1778 :         return _Newroot; // return newly constructed tree
; 1779 :     }

  000e0	8b 4d f4	 mov	 ecx, DWORD PTR __$EHRec$[ebp+4]
  000e3	64 89 0d 00 00
	00 00		 mov	 DWORD PTR fs:0, ecx
  000ea	59		 pop	 ecx
  000eb	5f		 pop	 edi
  000ec	5e		 pop	 esi
  000ed	5b		 pop	 ebx
  000ee	8b e5		 mov	 esp, ebp
  000f0	5d		 pop	 ebp
  000f1	c2 0c 00	 ret	 12			; 0000000cH
__catch$??$_Copy_nodes@U_Copy_tag@?$_Tree@V?$_Tmap_traits@PAVCActorInstance@@MU?$less@PAVCActorInstance@@@std@@V?$allocator@U?$pair@QAVCActorInstance@@M@std@@@3@$0A@@std@@@std@@@?$_Tree@V?$_Tmap_traits@PAVCActorInstance@@MU?$less@PAVCActorInstance@@@std@@V?$allocator@U?$pair@QAVCActorInstance@@M@std@@@3@$0A@@std@@@std@@IAEPAU?$_Tree_node@U?$pair@QAVCActorInstance@@M@std@@PAX@1@PAU21@0U_Copy_tag@01@@Z$0:

; 1772 :             _CATCH_ALL
; 1773 :             _Scary->_Erase_tree_and_orphan(_Getal(), _Newroot); // subtree copy failed, bail out

  000f4	ff 75 08	 push	 DWORD PTR __Newroot$[ebp]
  000f7	8b 4d e4	 mov	 ecx, DWORD PTR _this$[ebp]
  000fa	e8 00 00 00 00	 call	 ?_Getal@?$_Tree@V?$_Tmap_traits@PAVCActorInstance@@MU?$less@PAVCActorInstance@@@std@@V?$allocator@U?$pair@QAVCActorInstance@@M@std@@@3@$0A@@std@@@std@@IAEAAV?$allocator@U?$_Tree_node@U?$pair@QAVCActorInstance@@M@std@@PAX@std@@@2@XZ ; std::_Tree<std::_Tmap_traits<CActorInstance *,float,std::less<CActorInstance *>,std::allocator<std::pair<CActorInstance * const,float> >,0> >::_Getal
  000ff	8b 4d e4	 mov	 ecx, DWORD PTR _this$[ebp]
  00102	50		 push	 eax
  00103	e8 00 00 00 00	 call	 ??$_Erase_tree_and_orphan@V?$allocator@U?$_Tree_node@U?$pair@QAVCActorInstance@@M@std@@PAX@std@@@std@@@?$_Tree_val@U?$_Tree_simple_types@U?$pair@QAVCActorInstance@@M@std@@@std@@@std@@QAEXAAV?$allocator@U?$_Tree_node@U?$pair@QAVCActorInstance@@M@std@@PAX@std@@@1@PAU?$_Tree_node@U?$pair@QAVCActorInstance@@M@std@@PAX@1@@Z ; std::_Tree_val<std::_Tree_simple_types<std::pair<CActorInstance * const,float> > >::_Erase_tree_and_orphan<std::allocator<std::_Tree_node<std::pair<CActorInstance * const,float>,void *> > >

; 1774 :             _RERAISE;

  00108	6a 00		 push	 0
  0010a	6a 00		 push	 0
  0010c	e8 00 00 00 00	 call	 __CxxThrowException@8
$LN42@Copy_nodes:
  00111	cc		 int	 3
_TEXT	ENDS
;	COMDAT text$x
text$x	SEGMENT
__unwindfunclet$??$_Copy_nodes@U_Copy_tag@?$_Tree@V?$_Tmap_traits@PAVCActorInstance@@MU?$less@PAVCActorInstance@@@std@@V?$allocator@U?$pair@QAVCActorInstance@@M@std@@@3@$0A@@std@@@std@@@?$_Tree@V?$_Tmap_traits@PAVCActorInstance@@MU?$less@PAVCActorInstance@@@std@@V?$allocator@U?$pair@QAVCActorInstance@@M@std@@@3@$0A@@std@@@std@@IAEPAU?$_Tree_node@U?$pair@QAVCActorInstance@@M@std@@PAX@1@PAU21@0U_Copy_tag@01@@Z$2:
  00000	8d 4d dc	 lea	 ecx, DWORD PTR __Newnode$2[ebp]
  00003	e9 00 00 00 00	 jmp	 ??1?$_Alloc_construct_ptr@V?$allocator@U?$_Tree_node@U?$pair@QAVCActorInstance@@M@std@@PAX@std@@@std@@@std@@QAE@XZ ; std::_Alloc_construct_ptr<std::allocator<std::_Tree_node<std::pair<CActorInstance * const,float>,void *> > >::~_Alloc_construct_ptr<std::allocator<std::_Tree_node<std::pair<CActorInstance * const,float>,void *> > >
  00008	cc		 int	 3
  00009	cc		 int	 3
  0000a	cc		 int	 3
  0000b	cc		 int	 3
  0000c	cc		 int	 3
__ehhandler$??$_Copy_nodes@U_Copy_tag@?$_Tree@V?$_Tmap_traits@PAVCActorInstance@@MU?$less@PAVCActorInstance@@@std@@V?$allocator@U?$pair@QAVCActorInstance@@M@std@@@3@$0A@@std@@@std@@@?$_Tree@V?$_Tmap_traits@PAVCActorInstance@@MU?$less@PAVCActorInstance@@@std@@V?$allocator@U?$pair@QAVCActorInstance@@M@std@@@3@$0A@@std@@@std@@IAEPAU?$_Tree_node@U?$pair@QAVCActorInstance@@M@std@@PAX@1@PAU21@0U_Copy_tag@01@@Z:
  0000d	90		 npad	 1
  0000e	90		 npad	 1
  0000f	8b 54 24 08	 mov	 edx, DWORD PTR [esp+8]
  00013	8d 42 0c	 lea	 eax, DWORD PTR [edx+12]
  00016	8b 4a d8	 mov	 ecx, DWORD PTR [edx-40]
  00019	33 c8		 xor	 ecx, eax
  0001b	e8 00 00 00 00	 call	 @__security_check_cookie@4
  00020	b8 00 00 00 00	 mov	 eax, OFFSET __ehfuncinfo$??$_Copy_nodes@U_Copy_tag@?$_Tree@V?$_Tmap_traits@PAVCActorInstance@@MU?$less@PAVCActorInstance@@@std@@V?$allocator@U?$pair@QAVCActorInstance@@M@std@@@3@$0A@@std@@@std@@@?$_Tree@V?$_Tmap_traits@PAVCActorInstance@@MU?$less@PAVCActorInstance@@@std@@V?$allocator@U?$pair@QAVCActorInstance@@M@std@@@3@$0A@@std@@@std@@IAEPAU?$_Tree_node@U?$pair@QAVCActorInstance@@M@std@@PAX@1@PAU21@0U_Copy_tag@01@@Z
  00025	e9 00 00 00 00	 jmp	 ___CxxFrameHandler3
text$x	ENDS
??$_Copy_nodes@U_Copy_tag@?$_Tree@V?$_Tmap_traits@PAVCActorInstance@@MU?$less@PAVCActorInstance@@@std@@V?$allocator@U?$pair@QAVCActorInstance@@M@std@@@3@$0A@@std@@@std@@@?$_Tree@V?$_Tmap_traits@PAVCActorInstance@@MU?$less@PAVCActorInstance@@@std@@V?$allocator@U?$pair@QAVCActorInstance@@M@std@@@3@$0A@@std@@@std@@IAEPAU?$_Tree_node@U?$pair@QAVCActorInstance@@M@std@@PAX@1@PAU21@0U_Copy_tag@01@@Z ENDP ; std::_Tree<std::_Tmap_traits<CActorInstance *,float,std::less<CActorInstance *>,std::allocator<std::pair<CActorInstance * const,float> >,0> >::_Copy_nodes<std::_Tree<std::_Tmap_traits<CActorInstance *,float,std::less<CActorInstance *>,std::allocator<std::pair<CActorInstance * const,float> >,0> >::_Copy_tag>
; Function compile flags: /Ogtp
; File C:\Program Files (x86)\Microsoft Visual Studio\2019\Community\VC\Tools\MSVC\14.27.29110\include\xmemory
;	COMDAT ??$_Construct_in_place@PAU?$_Tree_node@U?$pair@QBUSHitData@NRaceData@@V?$map@PAVCActorInstance@@MU?$less@PAVCActorInstance@@@std@@V?$allocator@U?$pair@QAVCActorInstance@@M@std@@@3@@std@@@std@@PAX@std@@AAPAU12@@std@@YAXAAPAU?$_Tree_node@U?$pair@QBUSHitData@NRaceData@@V?$map@PAVCActorInstance@@MU?$less@PAVCActorInstance@@@std@@V?$allocator@U?$pair@QAVCActorInstance@@M@std@@@3@@std@@@std@@PAX@0@0@Z
_TEXT	SEGMENT
__Obj$ = 8						; size = 4
_<_Args_0>$ = 12					; size = 4
??$_Construct_in_place@PAU?$_Tree_node@U?$pair@QBUSHitData@NRaceData@@V?$map@PAVCActorInstance@@MU?$less@PAVCActorInstance@@@std@@V?$allocator@U?$pair@QAVCActorInstance@@M@std@@@3@@std@@@std@@PAX@std@@AAPAU12@@std@@YAXAAPAU?$_Tree_node@U?$pair@QBUSHitData@NRaceData@@V?$map@PAVCActorInstance@@MU?$less@PAVCActorInstance@@@std@@V?$allocator@U?$pair@QAVCActorInstance@@M@std@@@3@@std@@@std@@PAX@0@0@Z PROC ; std::_Construct_in_place<std::_Tree_node<std::pair<NRaceData::SHitData const * const,std::map<CActorInstance *,float,std::less<CActorInstance *>,std::allocator<std::pair<CActorInstance * const,float> > > >,void *> *,std::_Tree_node<std::pair<NRaceData::SHitData const * const,std::map<CActorInstance *,float,std::less<CActorInstance *>,std::allocator<std::pair<CActorInstance * const,float> > > >,void *> * &>, COMDAT

; 228  : void _Construct_in_place(_Ty& _Obj, _Types&&... _Args) noexcept(is_nothrow_constructible_v<_Ty, _Types...>) {

  00000	55		 push	 ebp
  00001	8b ec		 mov	 ebp, esp

; 229  :     ::new (const_cast<void*>(static_cast<const volatile void*>(_STD addressof(_Obj))))

  00003	8b 45 0c	 mov	 eax, DWORD PTR _<_Args_0>$[ebp]
  00006	8b 08		 mov	 ecx, DWORD PTR [eax]
  00008	8b 45 08	 mov	 eax, DWORD PTR __Obj$[ebp]
  0000b	89 08		 mov	 DWORD PTR [eax], ecx

; 230  :         _Ty(_STD forward<_Types>(_Args)...);
; 231  : }

  0000d	5d		 pop	 ebp
  0000e	c3		 ret	 0
??$_Construct_in_place@PAU?$_Tree_node@U?$pair@QBUSHitData@NRaceData@@V?$map@PAVCActorInstance@@MU?$less@PAVCActorInstance@@@std@@V?$allocator@U?$pair@QAVCActorInstance@@M@std@@@3@@std@@@std@@PAX@std@@AAPAU12@@std@@YAXAAPAU?$_Tree_node@U?$pair@QBUSHitData@NRaceData@@V?$map@PAVCActorInstance@@MU?$less@PAVCActorInstance@@@std@@V?$allocator@U?$pair@QAVCActorInstance@@M@std@@@3@@std@@@std@@PAX@0@0@Z ENDP ; std::_Construct_in_place<std::_Tree_node<std::pair<NRaceData::SHitData const * const,std::map<CActorInstance *,float,std::less<CActorInstance *>,std::allocator<std::pair<CActorInstance * const,float> > > >,void *> *,std::_Tree_node<std::pair<NRaceData::SHitData const * const,std::map<CActorInstance *,float,std::less<CActorInstance *>,std::allocator<std::pair<CActorInstance * const,float> > > >,void *> * &>
_TEXT	ENDS
; Function compile flags: /Ogtp
; File C:\Program Files (x86)\Microsoft Visual Studio\2019\Community\VC\Tools\MSVC\14.27.29110\include\xmemory
;	COMDAT ??$_Construct_in_place@PAU?$_Tree_node@U?$pair@QAVCActorInstance@@M@std@@PAX@std@@AAPAU12@@std@@YAXAAPAU?$_Tree_node@U?$pair@QAVCActorInstance@@M@std@@PAX@0@0@Z
_TEXT	SEGMENT
__Obj$ = 8						; size = 4
_<_Args_0>$ = 12					; size = 4
??$_Construct_in_place@PAU?$_Tree_node@U?$pair@QAVCActorInstance@@M@std@@PAX@std@@AAPAU12@@std@@YAXAAPAU?$_Tree_node@U?$pair@QAVCActorInstance@@M@std@@PAX@0@0@Z PROC ; std::_Construct_in_place<std::_Tree_node<std::pair<CActorInstance * const,float>,void *> *,std::_Tree_node<std::pair<CActorInstance * const,float>,void *> * &>, COMDAT

; 228  : void _Construct_in_place(_Ty& _Obj, _Types&&... _Args) noexcept(is_nothrow_constructible_v<_Ty, _Types...>) {

  00000	55		 push	 ebp
  00001	8b ec		 mov	 ebp, esp

; 229  :     ::new (const_cast<void*>(static_cast<const volatile void*>(_STD addressof(_Obj))))

  00003	8b 45 0c	 mov	 eax, DWORD PTR _<_Args_0>$[ebp]
  00006	8b 08		 mov	 ecx, DWORD PTR [eax]
  00008	8b 45 08	 mov	 eax, DWORD PTR __Obj$[ebp]
  0000b	89 08		 mov	 DWORD PTR [eax], ecx

; 230  :         _Ty(_STD forward<_Types>(_Args)...);
; 231  : }

  0000d	5d		 pop	 ebp
  0000e	c3		 ret	 0
??$_Construct_in_place@PAU?$_Tree_node@U?$pair@QAVCActorInstance@@M@std@@PAX@std@@AAPAU12@@std@@YAXAAPAU?$_Tree_node@U?$pair@QAVCActorInstance@@M@std@@PAX@0@0@Z ENDP ; std::_Construct_in_place<std::_Tree_node<std::pair<CActorInstance * const,float>,void *> *,std::_Tree_node<std::pair<CActorInstance * const,float>,void *> * &>
_TEXT	ENDS
; Function compile flags: /Ogtp
; File C:\Program Files (x86)\Microsoft Visual Studio\2019\Community\VC\Tools\MSVC\14.27.29110\include\xmemory
;	COMDAT ??$_Destroy_in_place@PAU?$_Tree_node@U?$pair@QBUSHitData@NRaceData@@V?$map@PAVCActorInstance@@MU?$less@PAVCActorInstance@@@std@@V?$allocator@U?$pair@QAVCActorInstance@@M@std@@@3@@std@@@std@@PAX@std@@@std@@YAXAAPAU?$_Tree_node@U?$pair@QBUSHitData@NRaceData@@V?$map@PAVCActorInstance@@MU?$less@PAVCActorInstance@@@std@@V?$allocator@U?$pair@QAVCActorInstance@@M@std@@@3@@std@@@std@@PAX@0@@Z
_TEXT	SEGMENT
__Obj$ = 8						; size = 4
??$_Destroy_in_place@PAU?$_Tree_node@U?$pair@QBUSHitData@NRaceData@@V?$map@PAVCActorInstance@@MU?$less@PAVCActorInstance@@@std@@V?$allocator@U?$pair@QAVCActorInstance@@M@std@@@3@@std@@@std@@PAX@std@@@std@@YAXAAPAU?$_Tree_node@U?$pair@QBUSHitData@NRaceData@@V?$map@PAVCActorInstance@@MU?$less@PAVCActorInstance@@@std@@V?$allocator@U?$pair@QAVCActorInstance@@M@std@@@3@@std@@@std@@PAX@0@@Z PROC ; std::_Destroy_in_place<std::_Tree_node<std::pair<NRaceData::SHitData const * const,std::map<CActorInstance *,float,std::less<CActorInstance *>,std::allocator<std::pair<CActorInstance * const,float> > > >,void *> *>, COMDAT

; 268  :     _Obj.~_Ty();
; 269  : }

  00000	c2 00 00	 ret	 0
??$_Destroy_in_place@PAU?$_Tree_node@U?$pair@QBUSHitData@NRaceData@@V?$map@PAVCActorInstance@@MU?$less@PAVCActorInstance@@@std@@V?$allocator@U?$pair@QAVCActorInstance@@M@std@@@3@@std@@@std@@PAX@std@@@std@@YAXAAPAU?$_Tree_node@U?$pair@QBUSHitData@NRaceData@@V?$map@PAVCActorInstance@@MU?$less@PAVCActorInstance@@@std@@V?$allocator@U?$pair@QAVCActorInstance@@M@std@@@3@@std@@@std@@PAX@0@@Z ENDP ; std::_Destroy_in_place<std::_Tree_node<std::pair<NRaceData::SHitData const * const,std::map<CActorInstance *,float,std::less<CActorInstance *>,std::allocator<std::pair<CActorInstance * const,float> > > >,void *> *>
_TEXT	ENDS
; Function compile flags: /Ogtp
; File C:\Program Files (x86)\Microsoft Visual Studio\2019\Community\VC\Tools\MSVC\14.27.29110\include\xtree
;	COMDAT ??1?$_Tree_head_scoped_ptr@V?$allocator@U?$_Tree_node@U?$pair@QAVCActorInstance@@M@std@@PAX@std@@@std@@V?$_Tree_val@U?$_Tree_simple_types@U?$pair@QAVCActorInstance@@M@std@@@std@@@2@@std@@QAE@XZ
_TEXT	SEGMENT
??1?$_Tree_head_scoped_ptr@V?$allocator@U?$_Tree_node@U?$pair@QAVCActorInstance@@M@std@@PAX@std@@@std@@V?$_Tree_val@U?$_Tree_simple_types@U?$pair@QAVCActorInstance@@M@std@@@std@@@2@@std@@QAE@XZ PROC ; std::_Tree_head_scoped_ptr<std::allocator<std::_Tree_node<std::pair<CActorInstance * const,float>,void *> >,std::_Tree_val<std::_Tree_simple_types<std::pair<CActorInstance * const,float> > > >::~_Tree_head_scoped_ptr<std::allocator<std::_Tree_node<std::pair<CActorInstance * const,float>,void *> >,std::_Tree_val<std::_Tree_simple_types<std::pair<CActorInstance * const,float> > > >, COMDAT
; _this$ = ecx

; 775  :         if (_Mycont) {

  00000	8b 41 04	 mov	 eax, DWORD PTR [ecx+4]
  00003	85 c0		 test	 eax, eax
  00005	74 09		 je	 SHORT $LN2@Tree_head_

; 776  :             _Mycont->_Erase_head(_Al);

  00007	ff 31		 push	 DWORD PTR [ecx]
  00009	8b c8		 mov	 ecx, eax
  0000b	e8 00 00 00 00	 call	 ??$_Erase_head@V?$allocator@U?$_Tree_node@U?$pair@QAVCActorInstance@@M@std@@PAX@std@@@std@@@?$_Tree_val@U?$_Tree_simple_types@U?$pair@QAVCActorInstance@@M@std@@@std@@@std@@QAEXAAV?$allocator@U?$_Tree_node@U?$pair@QAVCActorInstance@@M@std@@PAX@std@@@1@@Z ; std::_Tree_val<std::_Tree_simple_types<std::pair<CActorInstance * const,float> > >::_Erase_head<std::allocator<std::_Tree_node<std::pair<CActorInstance * const,float>,void *> > >
$LN2@Tree_head_:

; 777  :         }
; 778  :     }

  00010	c3		 ret	 0
??1?$_Tree_head_scoped_ptr@V?$allocator@U?$_Tree_node@U?$pair@QAVCActorInstance@@M@std@@PAX@std@@@std@@V?$_Tree_val@U?$_Tree_simple_types@U?$pair@QAVCActorInstance@@M@std@@@std@@@2@@std@@QAE@XZ ENDP ; std::_Tree_head_scoped_ptr<std::allocator<std::_Tree_node<std::pair<CActorInstance * const,float>,void *> >,std::_Tree_val<std::_Tree_simple_types<std::pair<CActorInstance * const,float> > > >::~_Tree_head_scoped_ptr<std::allocator<std::_Tree_node<std::pair<CActorInstance * const,float>,void *> >,std::_Tree_val<std::_Tree_simple_types<std::pair<CActorInstance * const,float> > > >
_TEXT	ENDS
; Function compile flags: /Ogtp
; File C:\Program Files (x86)\Microsoft Visual Studio\2019\Community\VC\Tools\MSVC\14.27.29110\include\xmemory
;	COMDAT ??1?$_Tree_temp_node_alloc@V?$allocator@U?$_Tree_node@U?$pair@QBUSHitData@NRaceData@@V?$map@PAVCActorInstance@@MU?$less@PAVCActorInstance@@@std@@V?$allocator@U?$pair@QAVCActorInstance@@M@std@@@3@@std@@@std@@PAX@std@@@std@@@std@@QAE@XZ
_TEXT	SEGMENT
??1?$_Tree_temp_node_alloc@V?$allocator@U?$_Tree_node@U?$pair@QBUSHitData@NRaceData@@V?$map@PAVCActorInstance@@MU?$less@PAVCActorInstance@@@std@@V?$allocator@U?$pair@QAVCActorInstance@@M@std@@@3@@std@@@std@@PAX@std@@@std@@@std@@QAE@XZ PROC ; std::_Tree_temp_node_alloc<std::allocator<std::_Tree_node<std::pair<NRaceData::SHitData const * const,std::map<CActorInstance *,float,std::less<CActorInstance *>,std::allocator<std::pair<CActorInstance * const,float> > > >,void *> > >::~_Tree_temp_node_alloc<std::allocator<std::_Tree_node<std::pair<NRaceData::SHitData const * const,std::map<CActorInstance *,float,std::less<CActorInstance *>,std::allocator<std::pair<CActorInstance * const,float> > > >,void *> > >, COMDAT
; _this$ = ecx

; 1052 :         if (_Ptr) {

  00000	8b 41 04	 mov	 eax, DWORD PTR [ecx+4]
  00003	85 c0		 test	 eax, eax
  00005	74 0b		 je	 SHORT $LN4@Tree_temp_

; 803  :         _Deallocate<_New_alignof<_Ty>>(_Ptr, sizeof(_Ty) * _Count);

  00007	6a 1c		 push	 28			; 0000001cH
  00009	50		 push	 eax
  0000a	e8 00 00 00 00	 call	 ??$_Deallocate@$07$0A@@std@@YAXPAXI@Z ; std::_Deallocate<8,0>
  0000f	83 c4 08	 add	 esp, 8
$LN4@Tree_temp_:
  00012	c3		 ret	 0
??1?$_Tree_temp_node_alloc@V?$allocator@U?$_Tree_node@U?$pair@QBUSHitData@NRaceData@@V?$map@PAVCActorInstance@@MU?$less@PAVCActorInstance@@@std@@V?$allocator@U?$pair@QAVCActorInstance@@M@std@@@3@@std@@@std@@PAX@std@@@std@@@std@@QAE@XZ ENDP ; std::_Tree_temp_node_alloc<std::allocator<std::_Tree_node<std::pair<NRaceData::SHitData const * const,std::map<CActorInstance *,float,std::less<CActorInstance *>,std::allocator<std::pair<CActorInstance * const,float> > > >,void *> > >::~_Tree_temp_node_alloc<std::allocator<std::_Tree_node<std::pair<NRaceData::SHitData const * const,std::map<CActorInstance *,float,std::less<CActorInstance *>,std::allocator<std::pair<CActorInstance * const,float> > > >,void *> > >
_TEXT	ENDS
; Function compile flags: /Ogtp
; File C:\Program Files (x86)\Microsoft Visual Studio\2019\Community\VC\Tools\MSVC\14.27.29110\include\xmemory
;	COMDAT ??1?$_Alloc_construct_ptr@V?$allocator@U?$_Tree_node@U?$pair@QBUSHitData@NRaceData@@V?$map@PAVCActorInstance@@MU?$less@PAVCActorInstance@@@std@@V?$allocator@U?$pair@QAVCActorInstance@@M@std@@@3@@std@@@std@@PAX@std@@@std@@@std@@QAE@XZ
_TEXT	SEGMENT
??1?$_Alloc_construct_ptr@V?$allocator@U?$_Tree_node@U?$pair@QBUSHitData@NRaceData@@V?$map@PAVCActorInstance@@MU?$less@PAVCActorInstance@@@std@@V?$allocator@U?$pair@QAVCActorInstance@@M@std@@@3@@std@@@std@@PAX@std@@@std@@@std@@QAE@XZ PROC ; std::_Alloc_construct_ptr<std::allocator<std::_Tree_node<std::pair<NRaceData::SHitData const * const,std::map<CActorInstance *,float,std::less<CActorInstance *>,std::allocator<std::pair<CActorInstance * const,float> > > >,void *> > >::~_Alloc_construct_ptr<std::allocator<std::_Tree_node<std::pair<NRaceData::SHitData const * const,std::map<CActorInstance *,float,std::less<CActorInstance *>,std::allocator<std::pair<CActorInstance * const,float> > > >,void *> > >, COMDAT
; _this$ = ecx

; 1052 :         if (_Ptr) {

  00000	8b 41 04	 mov	 eax, DWORD PTR [ecx+4]
  00003	85 c0		 test	 eax, eax
  00005	74 0b		 je	 SHORT $LN2@Alloc_cons

; 803  :         _Deallocate<_New_alignof<_Ty>>(_Ptr, sizeof(_Ty) * _Count);

  00007	6a 1c		 push	 28			; 0000001cH
  00009	50		 push	 eax
  0000a	e8 00 00 00 00	 call	 ??$_Deallocate@$07$0A@@std@@YAXPAXI@Z ; std::_Deallocate<8,0>
  0000f	83 c4 08	 add	 esp, 8
$LN2@Alloc_cons:

; 1053 :             _Al.deallocate(_Ptr, 1);
; 1054 :         }
; 1055 :     }

  00012	c3		 ret	 0
??1?$_Alloc_construct_ptr@V?$allocator@U?$_Tree_node@U?$pair@QBUSHitData@NRaceData@@V?$map@PAVCActorInstance@@MU?$less@PAVCActorInstance@@@std@@V?$allocator@U?$pair@QAVCActorInstance@@M@std@@@3@@std@@@std@@PAX@std@@@std@@@std@@QAE@XZ ENDP ; std::_Alloc_construct_ptr<std::allocator<std::_Tree_node<std::pair<NRaceData::SHitData const * const,std::map<CActorInstance *,float,std::less<CActorInstance *>,std::allocator<std::pair<CActorInstance * const,float> > > >,void *> > >::~_Alloc_construct_ptr<std::allocator<std::_Tree_node<std::pair<NRaceData::SHitData const * const,std::map<CActorInstance *,float,std::less<CActorInstance *>,std::allocator<std::pair<CActorInstance * const,float> > > >,void *> > >
_TEXT	ENDS
; Function compile flags: /Ogtp
; File C:\Program Files (x86)\Microsoft Visual Studio\2019\Community\VC\Tools\MSVC\14.27.29110\include\xmemory
;	COMDAT ??1?$_Alloc_construct_ptr@V?$allocator@U?$_Tree_node@U?$pair@QAVCActorInstance@@M@std@@PAX@std@@@std@@@std@@QAE@XZ
_TEXT	SEGMENT
??1?$_Alloc_construct_ptr@V?$allocator@U?$_Tree_node@U?$pair@QAVCActorInstance@@M@std@@PAX@std@@@std@@@std@@QAE@XZ PROC ; std::_Alloc_construct_ptr<std::allocator<std::_Tree_node<std::pair<CActorInstance * const,float>,void *> > >::~_Alloc_construct_ptr<std::allocator<std::_Tree_node<std::pair<CActorInstance * const,float>,void *> > >, COMDAT
; _this$ = ecx

; 1052 :         if (_Ptr) {

  00000	8b 41 04	 mov	 eax, DWORD PTR [ecx+4]
  00003	85 c0		 test	 eax, eax
  00005	74 0b		 je	 SHORT $LN2@Alloc_cons

; 803  :         _Deallocate<_New_alignof<_Ty>>(_Ptr, sizeof(_Ty) * _Count);

  00007	6a 18		 push	 24			; 00000018H
  00009	50		 push	 eax
  0000a	e8 00 00 00 00	 call	 ??$_Deallocate@$07$0A@@std@@YAXPAXI@Z ; std::_Deallocate<8,0>
  0000f	83 c4 08	 add	 esp, 8
$LN2@Alloc_cons:

; 1053 :             _Al.deallocate(_Ptr, 1);
; 1054 :         }
; 1055 :     }

  00012	c3		 ret	 0
??1?$_Alloc_construct_ptr@V?$allocator@U?$_Tree_node@U?$pair@QAVCActorInstance@@M@std@@PAX@std@@@std@@@std@@QAE@XZ ENDP ; std::_Alloc_construct_ptr<std::allocator<std::_Tree_node<std::pair<CActorInstance * const,float>,void *> > >::~_Alloc_construct_ptr<std::allocator<std::_Tree_node<std::pair<CActorInstance * const,float>,void *> > >
_TEXT	ENDS
; Function compile flags: /Ogtp
; File C:\Program Files (x86)\Microsoft Visual Studio\2019\Community\VC\Tools\MSVC\14.27.29110\include\xmemory
;	COMDAT ??$_Destroy_in_place@PAU?$_Tree_node@U?$pair@QAVCActorInstance@@M@std@@PAX@std@@@std@@YAXAAPAU?$_Tree_node@U?$pair@QAVCActorInstance@@M@std@@PAX@0@@Z
_TEXT	SEGMENT
__Obj$ = 8						; size = 4
??$_Destroy_in_place@PAU?$_Tree_node@U?$pair@QAVCActorInstance@@M@std@@PAX@std@@@std@@YAXAAPAU?$_Tree_node@U?$pair@QAVCActorInstance@@M@std@@PAX@0@@Z PROC ; std::_Destroy_in_place<std::_Tree_node<std::pair<CActorInstance * const,float>,void *> *>, COMDAT

; 268  :     _Obj.~_Ty();
; 269  : }

  00000	c2 00 00	 ret	 0
??$_Destroy_in_place@PAU?$_Tree_node@U?$pair@QAVCActorInstance@@M@std@@PAX@std@@@std@@YAXAAPAU?$_Tree_node@U?$pair@QAVCActorInstance@@M@std@@PAX@0@@Z ENDP ; std::_Destroy_in_place<std::_Tree_node<std::pair<CActorInstance * const,float>,void *> *>
_TEXT	ENDS
; Function compile flags: /Ogtp
; File C:\Program Files (x86)\Microsoft Visual Studio\2019\Community\VC\Tools\MSVC\14.27.29110\include\xmemory
;	COMDAT ??$_Construct_in_place@PAU?$_Tree_node@U?$pair@QAVCActorInstance@@M@std@@PAX@std@@ABQAU12@@std@@YAXAAPAU?$_Tree_node@U?$pair@QAVCActorInstance@@M@std@@PAX@0@ABQAU10@@Z
_TEXT	SEGMENT
__Obj$ = 8						; size = 4
_<_Args_0>$ = 12					; size = 4
??$_Construct_in_place@PAU?$_Tree_node@U?$pair@QAVCActorInstance@@M@std@@PAX@std@@ABQAU12@@std@@YAXAAPAU?$_Tree_node@U?$pair@QAVCActorInstance@@M@std@@PAX@0@ABQAU10@@Z PROC ; std::_Construct_in_place<std::_Tree_node<std::pair<CActorInstance * const,float>,void *> *,std::_Tree_node<std::pair<CActorInstance * const,float>,void *> * const &>, COMDAT

; 228  : void _Construct_in_place(_Ty& _Obj, _Types&&... _Args) noexcept(is_nothrow_constructible_v<_Ty, _Types...>) {

  00000	55		 push	 ebp
  00001	8b ec		 mov	 ebp, esp

; 229  :     ::new (const_cast<void*>(static_cast<const volatile void*>(_STD addressof(_Obj))))

  00003	8b 45 0c	 mov	 eax, DWORD PTR _<_Args_0>$[ebp]
  00006	8b 08		 mov	 ecx, DWORD PTR [eax]
  00008	8b 45 08	 mov	 eax, DWORD PTR __Obj$[ebp]
  0000b	89 08		 mov	 DWORD PTR [eax], ecx

; 230  :         _Ty(_STD forward<_Types>(_Args)...);
; 231  : }

  0000d	5d		 pop	 ebp
  0000e	c3		 ret	 0
??$_Construct_in_place@PAU?$_Tree_node@U?$pair@QAVCActorInstance@@M@std@@PAX@std@@ABQAU12@@std@@YAXAAPAU?$_Tree_node@U?$pair@QAVCActorInstance@@M@std@@PAX@0@ABQAU10@@Z ENDP ; std::_Construct_in_place<std::_Tree_node<std::pair<CActorInstance * const,float>,void *> *,std::_Tree_node<std::pair<CActorInstance * const,float>,void *> * const &>
_TEXT	ENDS
; Function compile flags: /Ogtp
; File C:\Program Files (x86)\Microsoft Visual Studio\2019\Community\VC\Tools\MSVC\14.27.29110\include\xtree
; File C:\Program Files (x86)\Microsoft Visual Studio\2019\Community\VC\Tools\MSVC\14.27.29110\include\utility
; File C:\Program Files (x86)\Microsoft Visual Studio\2019\Community\VC\Tools\MSVC\14.27.29110\include\xmemory
; File C:\Program Files (x86)\Microsoft Visual Studio\2019\Community\VC\Tools\MSVC\14.27.29110\include\xtree
;	COMDAT ??$_Erase_tree@V?$allocator@U?$_Tree_node@U?$pair@QAVCActorInstance@@M@std@@PAX@std@@@std@@@?$_Tree_val@U?$_Tree_simple_types@U?$pair@QAVCActorInstance@@M@std@@@std@@@std@@QAEXAAV?$allocator@U?$_Tree_node@U?$pair@QAVCActorInstance@@M@std@@PAX@std@@@1@PAU?$_Tree_node@U?$pair@QAVCActorInstance@@M@std@@PAX@1@@Z
_TEXT	SEGMENT
__Al$ = 8						; size = 4
__Rootnode$ = 12					; size = 4
??$_Erase_tree@V?$allocator@U?$_Tree_node@U?$pair@QAVCActorInstance@@M@std@@PAX@std@@@std@@@?$_Tree_val@U?$_Tree_simple_types@U?$pair@QAVCActorInstance@@M@std@@@std@@@std@@QAEXAAV?$allocator@U?$_Tree_node@U?$pair@QAVCActorInstance@@M@std@@PAX@std@@@1@PAU?$_Tree_node@U?$pair@QAVCActorInstance@@M@std@@PAX@1@@Z PROC ; std::_Tree_val<std::_Tree_simple_types<std::pair<CActorInstance * const,float> > >::_Erase_tree<std::allocator<std::_Tree_node<std::pair<CActorInstance * const,float>,void *> > >, COMDAT
; _this$ = ecx

; 742  :     void _Erase_tree(_Alnode& _Al, _Nodeptr _Rootnode) noexcept {

  00000	55		 push	 ebp
  00001	8b ec		 mov	 ebp, esp
  00003	53		 push	 ebx
  00004	56		 push	 esi

; 743  :         while (!_Rootnode->_Isnil) { // free subtrees, then node

  00005	8b 75 0c	 mov	 esi, DWORD PTR __Rootnode$[ebp]
  00008	8b d9		 mov	 ebx, ecx
  0000a	80 7e 0d 00	 cmp	 BYTE PTR [esi+13], 0
  0000e	75 25		 jne	 SHORT $LN3@Erase_tree
  00010	57		 push	 edi
  00011	8b 7d 08	 mov	 edi, DWORD PTR __Al$[ebp]
$LL2@Erase_tree:

; 744  :             _Erase_tree(_Al, _Rootnode->_Right);

  00014	ff 76 08	 push	 DWORD PTR [esi+8]
  00017	8b cb		 mov	 ecx, ebx
  00019	57		 push	 edi
  0001a	e8 00 00 00 00	 call	 ??$_Erase_tree@V?$allocator@U?$_Tree_node@U?$pair@QAVCActorInstance@@M@std@@PAX@std@@@std@@@?$_Tree_val@U?$_Tree_simple_types@U?$pair@QAVCActorInstance@@M@std@@@std@@@std@@QAEXAAV?$allocator@U?$_Tree_node@U?$pair@QAVCActorInstance@@M@std@@PAX@std@@@1@PAU?$_Tree_node@U?$pair@QAVCActorInstance@@M@std@@PAX@1@@Z ; std::_Tree_val<std::_Tree_simple_types<std::pair<CActorInstance * const,float> > >::_Erase_tree<std::allocator<std::_Tree_node<std::pair<CActorInstance * const,float>,void *> > >
; File C:\Program Files (x86)\Microsoft Visual Studio\2019\Community\VC\Tools\MSVC\14.27.29110\include\utility

; 599  :     _Ty _Old_val = static_cast<_Ty&&>(_Val);

  0001f	8b c6		 mov	 eax, esi

; 600  :     _Val         = static_cast<_Other&&>(_New_val);

  00021	8b 36		 mov	 esi, DWORD PTR [esi]
; File C:\Program Files (x86)\Microsoft Visual Studio\2019\Community\VC\Tools\MSVC\14.27.29110\include\xmemory

; 689  :         _Deallocate<_New_alignof<value_type>>(_Ptr, sizeof(value_type) * _Count);

  00023	6a 18		 push	 24			; 00000018H
  00025	50		 push	 eax
  00026	e8 00 00 00 00	 call	 ??$_Deallocate@$07$0A@@std@@YAXPAXI@Z ; std::_Deallocate<8,0>
  0002b	83 c4 08	 add	 esp, 8
; File C:\Program Files (x86)\Microsoft Visual Studio\2019\Community\VC\Tools\MSVC\14.27.29110\include\xtree

; 743  :         while (!_Rootnode->_Isnil) { // free subtrees, then node

  0002e	80 7e 0d 00	 cmp	 BYTE PTR [esi+13], 0
  00032	74 e0		 je	 SHORT $LL2@Erase_tree
  00034	5f		 pop	 edi
$LN3@Erase_tree:
  00035	5e		 pop	 esi

; 745  :             _Alnode::value_type::_Freenode(_Al, _STD exchange(_Rootnode, _Rootnode->_Left));
; 746  :         }
; 747  :     }

  00036	5b		 pop	 ebx
  00037	5d		 pop	 ebp
  00038	c2 08 00	 ret	 8
??$_Erase_tree@V?$allocator@U?$_Tree_node@U?$pair@QAVCActorInstance@@M@std@@PAX@std@@@std@@@?$_Tree_val@U?$_Tree_simple_types@U?$pair@QAVCActorInstance@@M@std@@@std@@@std@@QAEXAAV?$allocator@U?$_Tree_node@U?$pair@QAVCActorInstance@@M@std@@PAX@std@@@1@PAU?$_Tree_node@U?$pair@QAVCActorInstance@@M@std@@PAX@1@@Z ENDP ; std::_Tree_val<std::_Tree_simple_types<std::pair<CActorInstance * const,float> > >::_Erase_tree<std::allocator<std::_Tree_node<std::pair<CActorInstance * const,float>,void *> > >
_TEXT	ENDS
; Function compile flags: /Ogtp
; File C:\Program Files (x86)\Microsoft Visual Studio\2019\Community\VC\Tools\MSVC\14.27.29110\include\xtree
; File C:\Program Files (x86)\Microsoft Visual Studio\2019\Community\VC\Tools\MSVC\14.27.29110\include\xstddef
; File C:\Program Files (x86)\Microsoft Visual Studio\2019\Community\VC\Tools\MSVC\14.27.29110\include\xtree
; File C:\Program Files (x86)\Microsoft Visual Studio\2019\Community\VC\Tools\MSVC\14.27.29110\include\xstddef
; File C:\Program Files (x86)\Microsoft Visual Studio\2019\Community\VC\Tools\MSVC\14.27.29110\include\xtree
;	COMDAT ??$_Find_lower_bound@PAVCActorInstance@@@?$_Tree@V?$_Tmap_traits@PAVCActorInstance@@MU?$less@PAVCActorInstance@@@std@@V?$allocator@U?$pair@QAVCActorInstance@@M@std@@@3@$0A@@std@@@std@@IBE?AU?$_Tree_find_result@PAU?$_Tree_node@U?$pair@QAVCActorInstance@@M@std@@PAX@std@@@1@ABQAVCActorInstance@@@Z
_TEXT	SEGMENT
___$ReturnUdt$ = 8					; size = 4
__Keyval$ = 12						; size = 4
??$_Find_lower_bound@PAVCActorInstance@@@?$_Tree@V?$_Tmap_traits@PAVCActorInstance@@MU?$less@PAVCActorInstance@@@std@@V?$allocator@U?$pair@QAVCActorInstance@@M@std@@@3@$0A@@std@@@std@@IBE?AU?$_Tree_find_result@PAU?$_Tree_node@U?$pair@QAVCActorInstance@@M@std@@PAX@std@@@1@ABQAVCActorInstance@@@Z PROC ; std::_Tree<std::_Tmap_traits<CActorInstance *,float,std::less<CActorInstance *>,std::allocator<std::pair<CActorInstance * const,float> >,0> >::_Find_lower_bound<CActorInstance *>, COMDAT
; _this$ = ecx

; 1699 :     _Tree_find_result<_Nodeptr> _Find_lower_bound(const _Keyty& _Keyval) const {

  00000	55		 push	 ebp
  00001	8b ec		 mov	 ebp, esp

; 1700 :         const auto _Scary = _Get_scary();
; 1701 :         _Tree_find_result<_Nodeptr> _Result{{_Scary->_Myhead->_Parent, _Tree_child::_Right}, _Scary->_Myhead};

  00003	8b 09		 mov	 ecx, DWORD PTR [ecx]
  00005	8b 55 08	 mov	 edx, DWORD PTR ___$ReturnUdt$[ebp]
  00008	8b 41 04	 mov	 eax, DWORD PTR [ecx+4]
  0000b	89 02		 mov	 DWORD PTR [edx], eax
  0000d	c7 42 04 00 00
	00 00		 mov	 DWORD PTR [edx+4], 0
  00014	89 4a 08	 mov	 DWORD PTR [edx+8], ecx

; 1702 :         _Nodeptr _Trynode = _Result._Location._Parent;
; 1703 :         while (!_Trynode->_Isnil) {

  00017	80 78 0d 00	 cmp	 BYTE PTR [eax+13], 0
  0001b	75 28		 jne	 SHORT $LN12@Find_lower
; File C:\Program Files (x86)\Microsoft Visual Studio\2019\Community\VC\Tools\MSVC\14.27.29110\include\xstddef

; 127  :         return _Left < _Right;

  0001d	8b 4d 0c	 mov	 ecx, DWORD PTR __Keyval$[ebp]
  00020	56		 push	 esi
  00021	8b 31		 mov	 esi, DWORD PTR [ecx]
$LL2@Find_lower:
; File C:\Program Files (x86)\Microsoft Visual Studio\2019\Community\VC\Tools\MSVC\14.27.29110\include\xtree

; 1704 :             _Result._Location._Parent = _Trynode;

  00023	89 02		 mov	 DWORD PTR [edx], eax
; File C:\Program Files (x86)\Microsoft Visual Studio\2019\Community\VC\Tools\MSVC\14.27.29110\include\xstddef

; 127  :         return _Left < _Right;

  00025	39 70 10	 cmp	 DWORD PTR [eax+16], esi
; File C:\Program Files (x86)\Microsoft Visual Studio\2019\Community\VC\Tools\MSVC\14.27.29110\include\xtree

; 1705 :             if (_DEBUG_LT_PRED(_Getcomp(), _Traits::_Kfn(_Trynode->_Myval), _Keyval)) {

  00028	73 07		 jae	 SHORT $LN4@Find_lower

; 1706 :                 _Result._Location._Child = _Tree_child::_Right;
; 1707 :                 _Trynode                 = _Trynode->_Right;

  0002a	8b 40 08	 mov	 eax, DWORD PTR [eax+8]
  0002d	33 c9		 xor	 ecx, ecx

; 1708 :             } else {

  0002f	eb 0a		 jmp	 SHORT $LN5@Find_lower
$LN4@Find_lower:

; 1709 :                 _Result._Location._Child = _Tree_child::_Left;
; 1710 :                 _Result._Bound           = _Trynode;

  00031	89 42 08	 mov	 DWORD PTR [edx+8], eax

; 1711 :                 _Trynode                 = _Trynode->_Left;

  00034	b9 01 00 00 00	 mov	 ecx, 1
  00039	8b 00		 mov	 eax, DWORD PTR [eax]
$LN5@Find_lower:

; 1702 :         _Nodeptr _Trynode = _Result._Location._Parent;
; 1703 :         while (!_Trynode->_Isnil) {

  0003b	89 4a 04	 mov	 DWORD PTR [edx+4], ecx
  0003e	80 78 0d 00	 cmp	 BYTE PTR [eax+13], 0
  00042	74 df		 je	 SHORT $LL2@Find_lower

; 1712 :             }
; 1713 :         }
; 1714 : 
; 1715 :         return _Result;

  00044	5e		 pop	 esi
$LN12@Find_lower:

; 1716 :     }

  00045	8b c2		 mov	 eax, edx
  00047	5d		 pop	 ebp
  00048	c2 08 00	 ret	 8
??$_Find_lower_bound@PAVCActorInstance@@@?$_Tree@V?$_Tmap_traits@PAVCActorInstance@@MU?$less@PAVCActorInstance@@@std@@V?$allocator@U?$pair@QAVCActorInstance@@M@std@@@3@$0A@@std@@@std@@IBE?AU?$_Tree_find_result@PAU?$_Tree_node@U?$pair@QAVCActorInstance@@M@std@@PAX@std@@@1@ABQAVCActorInstance@@@Z ENDP ; std::_Tree<std::_Tmap_traits<CActorInstance *,float,std::less<CActorInstance *>,std::allocator<std::pair<CActorInstance * const,float> >,0> >::_Find_lower_bound<CActorInstance *>
_TEXT	ENDS
; Function compile flags: /Ogtp
; File C:\Program Files (x86)\Microsoft Visual Studio\2019\Community\VC\Tools\MSVC\14.27.29110\include\xtree
; File C:\Program Files (x86)\Microsoft Visual Studio\2019\Community\VC\Tools\MSVC\14.27.29110\include\xstddef
; File C:\Program Files (x86)\Microsoft Visual Studio\2019\Community\VC\Tools\MSVC\14.27.29110\include\xtree
; File C:\Program Files (x86)\Microsoft Visual Studio\2019\Community\VC\Tools\MSVC\14.27.29110\include\xstddef
; File C:\Program Files (x86)\Microsoft Visual Studio\2019\Community\VC\Tools\MSVC\14.27.29110\include\xtree
;	COMDAT ??$_Find_lower_bound@PBUSHitData@NRaceData@@@?$_Tree@V?$_Tmap_traits@PBUSHitData@NRaceData@@V?$map@PAVCActorInstance@@MU?$less@PAVCActorInstance@@@std@@V?$allocator@U?$pair@QAVCActorInstance@@M@std@@@3@@std@@U?$less@PBUSHitData@NRaceData@@@4@V?$allocator@U?$pair@QBUSHitData@NRaceData@@V?$map@PAVCActorInstance@@MU?$less@PAVCActorInstance@@@std@@V?$allocator@U?$pair@QAVCActorInstance@@M@std@@@3@@std@@@std@@@4@$0A@@std@@@std@@IBE?AU?$_Tree_find_result@PAU?$_Tree_node@U?$pair@QBUSHitData@NRaceData@@V?$map@PAVCActorInstance@@MU?$less@PAVCActorInstance@@@std@@V?$allocator@U?$pair@QAVCActorInstance@@M@std@@@3@@std@@@std@@PAX@std@@@1@ABQBUSHitData@NRaceData@@@Z
_TEXT	SEGMENT
___$ReturnUdt$ = 8					; size = 4
__Keyval$ = 12						; size = 4
??$_Find_lower_bound@PBUSHitData@NRaceData@@@?$_Tree@V?$_Tmap_traits@PBUSHitData@NRaceData@@V?$map@PAVCActorInstance@@MU?$less@PAVCActorInstance@@@std@@V?$allocator@U?$pair@QAVCActorInstance@@M@std@@@3@@std@@U?$less@PBUSHitData@NRaceData@@@4@V?$allocator@U?$pair@QBUSHitData@NRaceData@@V?$map@PAVCActorInstance@@MU?$less@PAVCActorInstance@@@std@@V?$allocator@U?$pair@QAVCActorInstance@@M@std@@@3@@std@@@std@@@4@$0A@@std@@@std@@IBE?AU?$_Tree_find_result@PAU?$_Tree_node@U?$pair@QBUSHitData@NRaceData@@V?$map@PAVCActorInstance@@MU?$less@PAVCActorInstance@@@std@@V?$allocator@U?$pair@QAVCActorInstance@@M@std@@@3@@std@@@std@@PAX@std@@@1@ABQBUSHitData@NRaceData@@@Z PROC ; std::_Tree<std::_Tmap_traits<NRaceData::SHitData const *,std::map<CActorInstance *,float,std::less<CActorInstance *>,std::allocator<std::pair<CActorInstance * const,float> > >,std::less<NRaceData::SHitData const *>,std::allocator<std::pair<NRaceData::SHitData const * const,std::map<CActorInstance *,float,std::less<CActorInstance *>,std::allocator<std::pair<CActorInstance * const,float> > > > >,0> >::_Find_lower_bound<NRaceData::SHitData const *>, COMDAT
; _this$ = ecx

; 1699 :     _Tree_find_result<_Nodeptr> _Find_lower_bound(const _Keyty& _Keyval) const {

  00000	55		 push	 ebp
  00001	8b ec		 mov	 ebp, esp

; 1700 :         const auto _Scary = _Get_scary();
; 1701 :         _Tree_find_result<_Nodeptr> _Result{{_Scary->_Myhead->_Parent, _Tree_child::_Right}, _Scary->_Myhead};

  00003	8b 09		 mov	 ecx, DWORD PTR [ecx]
  00005	8b 55 08	 mov	 edx, DWORD PTR ___$ReturnUdt$[ebp]
  00008	8b 41 04	 mov	 eax, DWORD PTR [ecx+4]
  0000b	89 02		 mov	 DWORD PTR [edx], eax
  0000d	c7 42 04 00 00
	00 00		 mov	 DWORD PTR [edx+4], 0
  00014	89 4a 08	 mov	 DWORD PTR [edx+8], ecx

; 1702 :         _Nodeptr _Trynode = _Result._Location._Parent;
; 1703 :         while (!_Trynode->_Isnil) {

  00017	80 78 0d 00	 cmp	 BYTE PTR [eax+13], 0
  0001b	75 28		 jne	 SHORT $LN12@Find_lower
; File C:\Program Files (x86)\Microsoft Visual Studio\2019\Community\VC\Tools\MSVC\14.27.29110\include\xstddef

; 127  :         return _Left < _Right;

  0001d	8b 4d 0c	 mov	 ecx, DWORD PTR __Keyval$[ebp]
  00020	56		 push	 esi
  00021	8b 31		 mov	 esi, DWORD PTR [ecx]
$LL2@Find_lower:
; File C:\Program Files (x86)\Microsoft Visual Studio\2019\Community\VC\Tools\MSVC\14.27.29110\include\xtree

; 1704 :             _Result._Location._Parent = _Trynode;

  00023	89 02		 mov	 DWORD PTR [edx], eax
; File C:\Program Files (x86)\Microsoft Visual Studio\2019\Community\VC\Tools\MSVC\14.27.29110\include\xstddef

; 127  :         return _Left < _Right;

  00025	39 70 10	 cmp	 DWORD PTR [eax+16], esi
; File C:\Program Files (x86)\Microsoft Visual Studio\2019\Community\VC\Tools\MSVC\14.27.29110\include\xtree

; 1705 :             if (_DEBUG_LT_PRED(_Getcomp(), _Traits::_Kfn(_Trynode->_Myval), _Keyval)) {

  00028	73 07		 jae	 SHORT $LN4@Find_lower

; 1706 :                 _Result._Location._Child = _Tree_child::_Right;
; 1707 :                 _Trynode                 = _Trynode->_Right;

  0002a	8b 40 08	 mov	 eax, DWORD PTR [eax+8]
  0002d	33 c9		 xor	 ecx, ecx

; 1708 :             } else {

  0002f	eb 0a		 jmp	 SHORT $LN5@Find_lower
$LN4@Find_lower:

; 1709 :                 _Result._Location._Child = _Tree_child::_Left;
; 1710 :                 _Result._Bound           = _Trynode;

  00031	89 42 08	 mov	 DWORD PTR [edx+8], eax

; 1711 :                 _Trynode                 = _Trynode->_Left;

  00034	b9 01 00 00 00	 mov	 ecx, 1
  00039	8b 00		 mov	 eax, DWORD PTR [eax]
$LN5@Find_lower:

; 1702 :         _Nodeptr _Trynode = _Result._Location._Parent;
; 1703 :         while (!_Trynode->_Isnil) {

  0003b	89 4a 04	 mov	 DWORD PTR [edx+4], ecx
  0003e	80 78 0d 00	 cmp	 BYTE PTR [eax+13], 0
  00042	74 df		 je	 SHORT $LL2@Find_lower

; 1712 :             }
; 1713 :         }
; 1714 : 
; 1715 :         return _Result;

  00044	5e		 pop	 esi
$LN12@Find_lower:

; 1716 :     }

  00045	8b c2		 mov	 eax, edx
  00047	5d		 pop	 ebp
  00048	c2 08 00	 ret	 8
??$_Find_lower_bound@PBUSHitData@NRaceData@@@?$_Tree@V?$_Tmap_traits@PBUSHitData@NRaceData@@V?$map@PAVCActorInstance@@MU?$less@PAVCActorInstance@@@std@@V?$allocator@U?$pair@QAVCActorInstance@@M@std@@@3@@std@@U?$less@PBUSHitData@NRaceData@@@4@V?$allocator@U?$pair@QBUSHitData@NRaceData@@V?$map@PAVCActorInstance@@MU?$less@PAVCActorInstance@@@std@@V?$allocator@U?$pair@QAVCActorInstance@@M@std@@@3@@std@@@std@@@4@$0A@@std@@@std@@IBE?AU?$_Tree_find_result@PAU?$_Tree_node@U?$pair@QBUSHitData@NRaceData@@V?$map@PAVCActorInstance@@MU?$less@PAVCActorInstance@@@std@@V?$allocator@U?$pair@QAVCActorInstance@@M@std@@@3@@std@@@std@@PAX@std@@@1@ABQBUSHitData@NRaceData@@@Z ENDP ; std::_Tree<std::_Tmap_traits<NRaceData::SHitData const *,std::map<CActorInstance *,float,std::less<CActorInstance *>,std::allocator<std::pair<CActorInstance * const,float> > >,std::less<NRaceData::SHitData const *>,std::allocator<std::pair<NRaceData::SHitData const * const,std::map<CActorInstance *,float,std::less<CActorInstance *>,std::allocator<std::pair<CActorInstance * const,float> > > > >,0> >::_Find_lower_bound<NRaceData::SHitData const *>
_TEXT	ENDS
; Function compile flags: /Ogtp
;	COMDAT ??__F?ms_kPool@?$CPooledObject@VCRotationDecorator@NEffectUpdateDecorator@@@@1V?$CDynamicPoolEx@VCRotationDecorator@NEffectUpdateDecorator@@@@A@@YAXXZ
text$yd	SEGMENT
??__F?ms_kPool@?$CPooledObject@VCRotationDecorator@NEffectUpdateDecorator@@@@1V?$CDynamicPoolEx@VCRotationDecorator@NEffectUpdateDecorator@@@@A@@YAXXZ PROC ; `dynamic atexit destructor for 'CPooledObject<NEffectUpdateDecorator::CRotationDecorator>::ms_kPool'', COMDAT
  00000	b9 00 00 00 00	 mov	 ecx, OFFSET ?ms_kPool@?$CPooledObject@VCRotationDecorator@NEffectUpdateDecorator@@@@1V?$CDynamicPoolEx@VCRotationDecorator@NEffectUpdateDecorator@@@@A ; CPooledObject<NEffectUpdateDecorator::CRotationDecorator>::ms_kPool
  00005	e9 00 00 00 00	 jmp	 ??1?$CDynamicPoolEx@VCRotationDecorator@NEffectUpdateDecorator@@@@UAE@XZ ; CDynamicPoolEx<NEffectUpdateDecorator::CRotationDecorator>::~CDynamicPoolEx<NEffectUpdateDecorator::CRotationDecorator>
??__F?ms_kPool@?$CPooledObject@VCRotationDecorator@NEffectUpdateDecorator@@@@1V?$CDynamicPoolEx@VCRotationDecorator@NEffectUpdateDecorator@@@@A@@YAXXZ ENDP ; `dynamic atexit destructor for 'CPooledObject<NEffectUpdateDecorator::CRotationDecorator>::ms_kPool''
text$yd	ENDS
; Function compile flags: /Ogtp
; File C:\DS Project\DS Files\Source\ClientSource\Client\eterLib\Pool.h
;	COMDAT ??__E?ms_kPool@?$CPooledObject@VCRotationDecorator@NEffectUpdateDecorator@@@@1V?$CDynamicPoolEx@VCRotationDecorator@NEffectUpdateDecorator@@@@A@@YAXXZ
text$di	SEGMENT
??__E?ms_kPool@?$CPooledObject@VCRotationDecorator@NEffectUpdateDecorator@@@@1V?$CDynamicPoolEx@VCRotationDecorator@NEffectUpdateDecorator@@@@A@@YAXXZ PROC ; `dynamic initializer for 'CPooledObject<NEffectUpdateDecorator::CRotationDecorator>::ms_kPool'', COMDAT

; 272  : template <class T> CDynamicPoolEx<T> CPooledObject<T>::ms_kPool;

  00000	68 00 00 00 00	 push	 OFFSET ??__F?ms_kPool@?$CPooledObject@VCRotationDecorator@NEffectUpdateDecorator@@@@1V?$CDynamicPoolEx@VCRotationDecorator@NEffectUpdateDecorator@@@@A@@YAXXZ ; `dynamic atexit destructor for 'CPooledObject<NEffectUpdateDecorator::CRotationDecorator>::ms_kPool''
  00005	e8 00 00 00 00	 call	 _atexit
  0000a	59		 pop	 ecx
  0000b	c3		 ret	 0
??__E?ms_kPool@?$CPooledObject@VCRotationDecorator@NEffectUpdateDecorator@@@@1V?$CDynamicPoolEx@VCRotationDecorator@NEffectUpdateDecorator@@@@A@@YAXXZ ENDP ; `dynamic initializer for 'CPooledObject<NEffectUpdateDecorator::CRotationDecorator>::ms_kPool''
text$di	ENDS
; Function compile flags: /Ogtp
;	COMDAT ??__F?ms_kPool@?$CPooledObject@VCGravityDecorator@NEffectUpdateDecorator@@@@1V?$CDynamicPoolEx@VCGravityDecorator@NEffectUpdateDecorator@@@@A@@YAXXZ
text$yd	SEGMENT
??__F?ms_kPool@?$CPooledObject@VCGravityDecorator@NEffectUpdateDecorator@@@@1V?$CDynamicPoolEx@VCGravityDecorator@NEffectUpdateDecorator@@@@A@@YAXXZ PROC ; `dynamic atexit destructor for 'CPooledObject<NEffectUpdateDecorator::CGravityDecorator>::ms_kPool'', COMDAT
  00000	b9 00 00 00 00	 mov	 ecx, OFFSET ?ms_kPool@?$CPooledObject@VCGravityDecorator@NEffectUpdateDecorator@@@@1V?$CDynamicPoolEx@VCGravityDecorator@NEffectUpdateDecorator@@@@A ; CPooledObject<NEffectUpdateDecorator::CGravityDecorator>::ms_kPool
  00005	e9 00 00 00 00	 jmp	 ??1?$CDynamicPoolEx@VCGravityDecorator@NEffectUpdateDecorator@@@@UAE@XZ ; CDynamicPoolEx<NEffectUpdateDecorator::CGravityDecorator>::~CDynamicPoolEx<NEffectUpdateDecorator::CGravityDecorator>
??__F?ms_kPool@?$CPooledObject@VCGravityDecorator@NEffectUpdateDecorator@@@@1V?$CDynamicPoolEx@VCGravityDecorator@NEffectUpdateDecorator@@@@A@@YAXXZ ENDP ; `dynamic atexit destructor for 'CPooledObject<NEffectUpdateDecorator::CGravityDecorator>::ms_kPool''
text$yd	ENDS
; Function compile flags: /Ogtp
; File C:\DS Project\DS Files\Source\ClientSource\Client\eterLib\Pool.h
;	COMDAT ??__E?ms_kPool@?$CPooledObject@VCGravityDecorator@NEffectUpdateDecorator@@@@1V?$CDynamicPoolEx@VCGravityDecorator@NEffectUpdateDecorator@@@@A@@YAXXZ
text$di	SEGMENT
??__E?ms_kPool@?$CPooledObject@VCGravityDecorator@NEffectUpdateDecorator@@@@1V?$CDynamicPoolEx@VCGravityDecorator@NEffectUpdateDecorator@@@@A@@YAXXZ PROC ; `dynamic initializer for 'CPooledObject<NEffectUpdateDecorator::CGravityDecorator>::ms_kPool'', COMDAT

; 272  : template <class T> CDynamicPoolEx<T> CPooledObject<T>::ms_kPool;

  00000	68 00 00 00 00	 push	 OFFSET ??__F?ms_kPool@?$CPooledObject@VCGravityDecorator@NEffectUpdateDecorator@@@@1V?$CDynamicPoolEx@VCGravityDecorator@NEffectUpdateDecorator@@@@A@@YAXXZ ; `dynamic atexit destructor for 'CPooledObject<NEffectUpdateDecorator::CGravityDecorator>::ms_kPool''
  00005	e8 00 00 00 00	 call	 _atexit
  0000a	59		 pop	 ecx
  0000b	c3		 ret	 0
??__E?ms_kPool@?$CPooledObject@VCGravityDecorator@NEffectUpdateDecorator@@@@1V?$CDynamicPoolEx@VCGravityDecorator@NEffectUpdateDecorator@@@@A@@YAXXZ ENDP ; `dynamic initializer for 'CPooledObject<NEffectUpdateDecorator::CGravityDecorator>::ms_kPool''
text$di	ENDS
; Function compile flags: /Ogtp
;	COMDAT ??__F?ms_kPool@?$CPooledObject@VCAirResistanceDecorator@NEffectUpdateDecorator@@@@1V?$CDynamicPoolEx@VCAirResistanceDecorator@NEffectUpdateDecorator@@@@A@@YAXXZ
text$yd	SEGMENT
??__F?ms_kPool@?$CPooledObject@VCAirResistanceDecorator@NEffectUpdateDecorator@@@@1V?$CDynamicPoolEx@VCAirResistanceDecorator@NEffectUpdateDecorator@@@@A@@YAXXZ PROC ; `dynamic atexit destructor for 'CPooledObject<NEffectUpdateDecorator::CAirResistanceDecorator>::ms_kPool'', COMDAT
  00000	b9 00 00 00 00	 mov	 ecx, OFFSET ?ms_kPool@?$CPooledObject@VCAirResistanceDecorator@NEffectUpdateDecorator@@@@1V?$CDynamicPoolEx@VCAirResistanceDecorator@NEffectUpdateDecorator@@@@A ; CPooledObject<NEffectUpdateDecorator::CAirResistanceDecorator>::ms_kPool
  00005	e9 00 00 00 00	 jmp	 ??1?$CDynamicPoolEx@VCAirResistanceDecorator@NEffectUpdateDecorator@@@@UAE@XZ ; CDynamicPoolEx<NEffectUpdateDecorator::CAirResistanceDecorator>::~CDynamicPoolEx<NEffectUpdateDecorator::CAirResistanceDecorator>
??__F?ms_kPool@?$CPooledObject@VCAirResistanceDecorator@NEffectUpdateDecorator@@@@1V?$CDynamicPoolEx@VCAirResistanceDecorator@NEffectUpdateDecorator@@@@A@@YAXXZ ENDP ; `dynamic atexit destructor for 'CPooledObject<NEffectUpdateDecorator::CAirResistanceDecorator>::ms_kPool''
text$yd	ENDS
; Function compile flags: /Ogtp
; File C:\DS Project\DS Files\Source\ClientSource\Client\eterLib\Pool.h
;	COMDAT ??__E?ms_kPool@?$CPooledObject@VCAirResistanceDecorator@NEffectUpdateDecorator@@@@1V?$CDynamicPoolEx@VCAirResistanceDecorator@NEffectUpdateDecorator@@@@A@@YAXXZ
text$di	SEGMENT
??__E?ms_kPool@?$CPooledObject@VCAirResistanceDecorator@NEffectUpdateDecorator@@@@1V?$CDynamicPoolEx@VCAirResistanceDecorator@NEffectUpdateDecorator@@@@A@@YAXXZ PROC ; `dynamic initializer for 'CPooledObject<NEffectUpdateDecorator::CAirResistanceDecorator>::ms_kPool'', COMDAT

; 272  : template <class T> CDynamicPoolEx<T> CPooledObject<T>::ms_kPool;

  00000	68 00 00 00 00	 push	 OFFSET ??__F?ms_kPool@?$CPooledObject@VCAirResistanceDecorator@NEffectUpdateDecorator@@@@1V?$CDynamicPoolEx@VCAirResistanceDecorator@NEffectUpdateDecorator@@@@A@@YAXXZ ; `dynamic atexit destructor for 'CPooledObject<NEffectUpdateDecorator::CAirResistanceDecorator>::ms_kPool''
  00005	e8 00 00 00 00	 call	 _atexit
  0000a	59		 pop	 ecx
  0000b	c3		 ret	 0
??__E?ms_kPool@?$CPooledObject@VCAirResistanceDecorator@NEffectUpdateDecorator@@@@1V?$CDynamicPoolEx@VCAirResistanceDecorator@NEffectUpdateDecorator@@@@A@@YAXXZ ENDP ; `dynamic initializer for 'CPooledObject<NEffectUpdateDecorator::CAirResistanceDecorator>::ms_kPool''
text$di	ENDS
; Function compile flags: /Ogtp
;	COMDAT ??__F?ms_kPool@?$CPooledObject@VCTextureAnimationRandomDecorator@NEffectUpdateDecorator@@@@1V?$CDynamicPoolEx@VCTextureAnimationRandomDecorator@NEffectUpdateDecorator@@@@A@@YAXXZ
text$yd	SEGMENT
??__F?ms_kPool@?$CPooledObject@VCTextureAnimationRandomDecorator@NEffectUpdateDecorator@@@@1V?$CDynamicPoolEx@VCTextureAnimationRandomDecorator@NEffectUpdateDecorator@@@@A@@YAXXZ PROC ; `dynamic atexit destructor for 'CPooledObject<NEffectUpdateDecorator::CTextureAnimationRandomDecorator>::ms_kPool'', COMDAT
  00000	b9 00 00 00 00	 mov	 ecx, OFFSET ?ms_kPool@?$CPooledObject@VCTextureAnimationRandomDecorator@NEffectUpdateDecorator@@@@1V?$CDynamicPoolEx@VCTextureAnimationRandomDecorator@NEffectUpdateDecorator@@@@A ; CPooledObject<NEffectUpdateDecorator::CTextureAnimationRandomDecorator>::ms_kPool
  00005	e9 00 00 00 00	 jmp	 ??1?$CDynamicPoolEx@VCTextureAnimationRandomDecorator@NEffectUpdateDecorator@@@@UAE@XZ ; CDynamicPoolEx<NEffectUpdateDecorator::CTextureAnimationRandomDecorator>::~CDynamicPoolEx<NEffectUpdateDecorator::CTextureAnimationRandomDecorator>
??__F?ms_kPool@?$CPooledObject@VCTextureAnimationRandomDecorator@NEffectUpdateDecorator@@@@1V?$CDynamicPoolEx@VCTextureAnimationRandomDecorator@NEffectUpdateDecorator@@@@A@@YAXXZ ENDP ; `dynamic atexit destructor for 'CPooledObject<NEffectUpdateDecorator::CTextureAnimationRandomDecorator>::ms_kPool''
text$yd	ENDS
; Function compile flags: /Ogtp
; File C:\DS Project\DS Files\Source\ClientSource\Client\eterLib\Pool.h
;	COMDAT ??__E?ms_kPool@?$CPooledObject@VCTextureAnimationRandomDecorator@NEffectUpdateDecorator@@@@1V?$CDynamicPoolEx@VCTextureAnimationRandomDecorator@NEffectUpdateDecorator@@@@A@@YAXXZ
text$di	SEGMENT
??__E?ms_kPool@?$CPooledObject@VCTextureAnimationRandomDecorator@NEffectUpdateDecorator@@@@1V?$CDynamicPoolEx@VCTextureAnimationRandomDecorator@NEffectUpdateDecorator@@@@A@@YAXXZ PROC ; `dynamic initializer for 'CPooledObject<NEffectUpdateDecorator::CTextureAnimationRandomDecorator>::ms_kPool'', COMDAT

; 272  : template <class T> CDynamicPoolEx<T> CPooledObject<T>::ms_kPool;

  00000	68 00 00 00 00	 push	 OFFSET ??__F?ms_kPool@?$CPooledObject@VCTextureAnimationRandomDecorator@NEffectUpdateDecorator@@@@1V?$CDynamicPoolEx@VCTextureAnimationRandomDecorator@NEffectUpdateDecorator@@@@A@@YAXXZ ; `dynamic atexit destructor for 'CPooledObject<NEffectUpdateDecorator::CTextureAnimationRandomDecorator>::ms_kPool''
  00005	e8 00 00 00 00	 call	 _atexit
  0000a	59		 pop	 ecx
  0000b	c3		 ret	 0
??__E?ms_kPool@?$CPooledObject@VCTextureAnimationRandomDecorator@NEffectUpdateDecorator@@@@1V?$CDynamicPoolEx@VCTextureAnimationRandomDecorator@NEffectUpdateDecorator@@@@A@@YAXXZ ENDP ; `dynamic initializer for 'CPooledObject<NEffectUpdateDecorator::CTextureAnimationRandomDecorator>::ms_kPool''
text$di	ENDS
; Function compile flags: /Ogtp
;	COMDAT ??__F?ms_kPool@?$CPooledObject@VCTextureAnimationCCWDecorator@NEffectUpdateDecorator@@@@1V?$CDynamicPoolEx@VCTextureAnimationCCWDecorator@NEffectUpdateDecorator@@@@A@@YAXXZ
text$yd	SEGMENT
??__F?ms_kPool@?$CPooledObject@VCTextureAnimationCCWDecorator@NEffectUpdateDecorator@@@@1V?$CDynamicPoolEx@VCTextureAnimationCCWDecorator@NEffectUpdateDecorator@@@@A@@YAXXZ PROC ; `dynamic atexit destructor for 'CPooledObject<NEffectUpdateDecorator::CTextureAnimationCCWDecorator>::ms_kPool'', COMDAT
  00000	b9 00 00 00 00	 mov	 ecx, OFFSET ?ms_kPool@?$CPooledObject@VCTextureAnimationCCWDecorator@NEffectUpdateDecorator@@@@1V?$CDynamicPoolEx@VCTextureAnimationCCWDecorator@NEffectUpdateDecorator@@@@A ; CPooledObject<NEffectUpdateDecorator::CTextureAnimationCCWDecorator>::ms_kPool
  00005	e9 00 00 00 00	 jmp	 ??1?$CDynamicPoolEx@VCTextureAnimationCCWDecorator@NEffectUpdateDecorator@@@@UAE@XZ ; CDynamicPoolEx<NEffectUpdateDecorator::CTextureAnimationCCWDecorator>::~CDynamicPoolEx<NEffectUpdateDecorator::CTextureAnimationCCWDecorator>
??__F?ms_kPool@?$CPooledObject@VCTextureAnimationCCWDecorator@NEffectUpdateDecorator@@@@1V?$CDynamicPoolEx@VCTextureAnimationCCWDecorator@NEffectUpdateDecorator@@@@A@@YAXXZ ENDP ; `dynamic atexit destructor for 'CPooledObject<NEffectUpdateDecorator::CTextureAnimationCCWDecorator>::ms_kPool''
text$yd	ENDS
; Function compile flags: /Ogtp
; File C:\DS Project\DS Files\Source\ClientSource\Client\eterLib\Pool.h
;	COMDAT ??__E?ms_kPool@?$CPooledObject@VCTextureAnimationCCWDecorator@NEffectUpdateDecorator@@@@1V?$CDynamicPoolEx@VCTextureAnimationCCWDecorator@NEffectUpdateDecorator@@@@A@@YAXXZ
text$di	SEGMENT
??__E?ms_kPool@?$CPooledObject@VCTextureAnimationCCWDecorator@NEffectUpdateDecorator@@@@1V?$CDynamicPoolEx@VCTextureAnimationCCWDecorator@NEffectUpdateDecorator@@@@A@@YAXXZ PROC ; `dynamic initializer for 'CPooledObject<NEffectUpdateDecorator::CTextureAnimationCCWDecorator>::ms_kPool'', COMDAT

; 272  : template <class T> CDynamicPoolEx<T> CPooledObject<T>::ms_kPool;

  00000	68 00 00 00 00	 push	 OFFSET ??__F?ms_kPool@?$CPooledObject@VCTextureAnimationCCWDecorator@NEffectUpdateDecorator@@@@1V?$CDynamicPoolEx@VCTextureAnimationCCWDecorator@NEffectUpdateDecorator@@@@A@@YAXXZ ; `dynamic atexit destructor for 'CPooledObject<NEffectUpdateDecorator::CTextureAnimationCCWDecorator>::ms_kPool''
  00005	e8 00 00 00 00	 call	 _atexit
  0000a	59		 pop	 ecx
  0000b	c3		 ret	 0
??__E?ms_kPool@?$CPooledObject@VCTextureAnimationCCWDecorator@NEffectUpdateDecorator@@@@1V?$CDynamicPoolEx@VCTextureAnimationCCWDecorator@NEffectUpdateDecorator@@@@A@@YAXXZ ENDP ; `dynamic initializer for 'CPooledObject<NEffectUpdateDecorator::CTextureAnimationCCWDecorator>::ms_kPool''
text$di	ENDS
; Function compile flags: /Ogtp
;	COMDAT ??__F?ms_kPool@?$CPooledObject@VCTextureAnimationCWDecorator@NEffectUpdateDecorator@@@@1V?$CDynamicPoolEx@VCTextureAnimationCWDecorator@NEffectUpdateDecorator@@@@A@@YAXXZ
text$yd	SEGMENT
??__F?ms_kPool@?$CPooledObject@VCTextureAnimationCWDecorator@NEffectUpdateDecorator@@@@1V?$CDynamicPoolEx@VCTextureAnimationCWDecorator@NEffectUpdateDecorator@@@@A@@YAXXZ PROC ; `dynamic atexit destructor for 'CPooledObject<NEffectUpdateDecorator::CTextureAnimationCWDecorator>::ms_kPool'', COMDAT
  00000	b9 00 00 00 00	 mov	 ecx, OFFSET ?ms_kPool@?$CPooledObject@VCTextureAnimationCWDecorator@NEffectUpdateDecorator@@@@1V?$CDynamicPoolEx@VCTextureAnimationCWDecorator@NEffectUpdateDecorator@@@@A ; CPooledObject<NEffectUpdateDecorator::CTextureAnimationCWDecorator>::ms_kPool
  00005	e9 00 00 00 00	 jmp	 ??1?$CDynamicPoolEx@VCTextureAnimationCWDecorator@NEffectUpdateDecorator@@@@UAE@XZ ; CDynamicPoolEx<NEffectUpdateDecorator::CTextureAnimationCWDecorator>::~CDynamicPoolEx<NEffectUpdateDecorator::CTextureAnimationCWDecorator>
??__F?ms_kPool@?$CPooledObject@VCTextureAnimationCWDecorator@NEffectUpdateDecorator@@@@1V?$CDynamicPoolEx@VCTextureAnimationCWDecorator@NEffectUpdateDecorator@@@@A@@YAXXZ ENDP ; `dynamic atexit destructor for 'CPooledObject<NEffectUpdateDecorator::CTextureAnimationCWDecorator>::ms_kPool''
text$yd	ENDS
; Function compile flags: /Ogtp
; File C:\DS Project\DS Files\Source\ClientSource\Client\eterLib\Pool.h
;	COMDAT ??__E?ms_kPool@?$CPooledObject@VCTextureAnimationCWDecorator@NEffectUpdateDecorator@@@@1V?$CDynamicPoolEx@VCTextureAnimationCWDecorator@NEffectUpdateDecorator@@@@A@@YAXXZ
text$di	SEGMENT
??__E?ms_kPool@?$CPooledObject@VCTextureAnimationCWDecorator@NEffectUpdateDecorator@@@@1V?$CDynamicPoolEx@VCTextureAnimationCWDecorator@NEffectUpdateDecorator@@@@A@@YAXXZ PROC ; `dynamic initializer for 'CPooledObject<NEffectUpdateDecorator::CTextureAnimationCWDecorator>::ms_kPool'', COMDAT

; 272  : template <class T> CDynamicPoolEx<T> CPooledObject<T>::ms_kPool;

  00000	68 00 00 00 00	 push	 OFFSET ??__F?ms_kPool@?$CPooledObject@VCTextureAnimationCWDecorator@NEffectUpdateDecorator@@@@1V?$CDynamicPoolEx@VCTextureAnimationCWDecorator@NEffectUpdateDecorator@@@@A@@YAXXZ ; `dynamic atexit destructor for 'CPooledObject<NEffectUpdateDecorator::CTextureAnimationCWDecorator>::ms_kPool''
  00005	e8 00 00 00 00	 call	 _atexit
  0000a	59		 pop	 ecx
  0000b	c3		 ret	 0
??__E?ms_kPool@?$CPooledObject@VCTextureAnimationCWDecorator@NEffectUpdateDecorator@@@@1V?$CDynamicPoolEx@VCTextureAnimationCWDecorator@NEffectUpdateDecorator@@@@A@@YAXXZ ENDP ; `dynamic initializer for 'CPooledObject<NEffectUpdateDecorator::CTextureAnimationCWDecorator>::ms_kPool''
text$di	ENDS
; Function compile flags: /Ogtp
;	COMDAT ??__F?ms_kPool@?$CPooledObject@VCNullDecorator@NEffectUpdateDecorator@@@@1V?$CDynamicPoolEx@VCNullDecorator@NEffectUpdateDecorator@@@@A@@YAXXZ
text$yd	SEGMENT
??__F?ms_kPool@?$CPooledObject@VCNullDecorator@NEffectUpdateDecorator@@@@1V?$CDynamicPoolEx@VCNullDecorator@NEffectUpdateDecorator@@@@A@@YAXXZ PROC ; `dynamic atexit destructor for 'CPooledObject<NEffectUpdateDecorator::CNullDecorator>::ms_kPool'', COMDAT
  00000	b9 00 00 00 00	 mov	 ecx, OFFSET ?ms_kPool@?$CPooledObject@VCNullDecorator@NEffectUpdateDecorator@@@@1V?$CDynamicPoolEx@VCNullDecorator@NEffectUpdateDecorator@@@@A ; CPooledObject<NEffectUpdateDecorator::CNullDecorator>::ms_kPool
  00005	e9 00 00 00 00	 jmp	 ??1?$CDynamicPoolEx@VCNullDecorator@NEffectUpdateDecorator@@@@UAE@XZ ; CDynamicPoolEx<NEffectUpdateDecorator::CNullDecorator>::~CDynamicPoolEx<NEffectUpdateDecorator::CNullDecorator>
??__F?ms_kPool@?$CPooledObject@VCNullDecorator@NEffectUpdateDecorator@@@@1V?$CDynamicPoolEx@VCNullDecorator@NEffectUpdateDecorator@@@@A@@YAXXZ ENDP ; `dynamic atexit destructor for 'CPooledObject<NEffectUpdateDecorator::CNullDecorator>::ms_kPool''
text$yd	ENDS
; Function compile flags: /Ogtp
; File C:\DS Project\DS Files\Source\ClientSource\Client\eterLib\Pool.h
;	COMDAT ??__E?ms_kPool@?$CPooledObject@VCNullDecorator@NEffectUpdateDecorator@@@@1V?$CDynamicPoolEx@VCNullDecorator@NEffectUpdateDecorator@@@@A@@YAXXZ
text$di	SEGMENT
??__E?ms_kPool@?$CPooledObject@VCNullDecorator@NEffectUpdateDecorator@@@@1V?$CDynamicPoolEx@VCNullDecorator@NEffectUpdateDecorator@@@@A@@YAXXZ PROC ; `dynamic initializer for 'CPooledObject<NEffectUpdateDecorator::CNullDecorator>::ms_kPool'', COMDAT

; 272  : template <class T> CDynamicPoolEx<T> CPooledObject<T>::ms_kPool;

  00000	68 00 00 00 00	 push	 OFFSET ??__F?ms_kPool@?$CPooledObject@VCNullDecorator@NEffectUpdateDecorator@@@@1V?$CDynamicPoolEx@VCNullDecorator@NEffectUpdateDecorator@@@@A@@YAXXZ ; `dynamic atexit destructor for 'CPooledObject<NEffectUpdateDecorator::CNullDecorator>::ms_kPool''
  00005	e8 00 00 00 00	 call	 _atexit
  0000a	59		 pop	 ecx
  0000b	c3		 ret	 0
??__E?ms_kPool@?$CPooledObject@VCNullDecorator@NEffectUpdateDecorator@@@@1V?$CDynamicPoolEx@VCNullDecorator@NEffectUpdateDecorator@@@@A@@YAXXZ ENDP ; `dynamic initializer for 'CPooledObject<NEffectUpdateDecorator::CNullDecorator>::ms_kPool''
text$di	ENDS
; Function compile flags: /Ogtp
;	COMDAT ??__F?ms_kPool@?$CPooledObject@VCHeaderDecorator@NEffectUpdateDecorator@@@@1V?$CDynamicPoolEx@VCHeaderDecorator@NEffectUpdateDecorator@@@@A@@YAXXZ
text$yd	SEGMENT
??__F?ms_kPool@?$CPooledObject@VCHeaderDecorator@NEffectUpdateDecorator@@@@1V?$CDynamicPoolEx@VCHeaderDecorator@NEffectUpdateDecorator@@@@A@@YAXXZ PROC ; `dynamic atexit destructor for 'CPooledObject<NEffectUpdateDecorator::CHeaderDecorator>::ms_kPool'', COMDAT
  00000	b9 00 00 00 00	 mov	 ecx, OFFSET ?ms_kPool@?$CPooledObject@VCHeaderDecorator@NEffectUpdateDecorator@@@@1V?$CDynamicPoolEx@VCHeaderDecorator@NEffectUpdateDecorator@@@@A ; CPooledObject<NEffectUpdateDecorator::CHeaderDecorator>::ms_kPool
  00005	e9 00 00 00 00	 jmp	 ??1?$CDynamicPoolEx@VCHeaderDecorator@NEffectUpdateDecorator@@@@UAE@XZ ; CDynamicPoolEx<NEffectUpdateDecorator::CHeaderDecorator>::~CDynamicPoolEx<NEffectUpdateDecorator::CHeaderDecorator>
??__F?ms_kPool@?$CPooledObject@VCHeaderDecorator@NEffectUpdateDecorator@@@@1V?$CDynamicPoolEx@VCHeaderDecorator@NEffectUpdateDecorator@@@@A@@YAXXZ ENDP ; `dynamic atexit destructor for 'CPooledObject<NEffectUpdateDecorator::CHeaderDecorator>::ms_kPool''
text$yd	ENDS
; Function compile flags: /Ogtp
; File C:\DS Project\DS Files\Source\ClientSource\Client\eterLib\Pool.h
;	COMDAT ??__E?ms_kPool@?$CPooledObject@VCHeaderDecorator@NEffectUpdateDecorator@@@@1V?$CDynamicPoolEx@VCHeaderDecorator@NEffectUpdateDecorator@@@@A@@YAXXZ
text$di	SEGMENT
??__E?ms_kPool@?$CPooledObject@VCHeaderDecorator@NEffectUpdateDecorator@@@@1V?$CDynamicPoolEx@VCHeaderDecorator@NEffectUpdateDecorator@@@@A@@YAXXZ PROC ; `dynamic initializer for 'CPooledObject<NEffectUpdateDecorator::CHeaderDecorator>::ms_kPool'', COMDAT

; 272  : template <class T> CDynamicPoolEx<T> CPooledObject<T>::ms_kPool;

  00000	68 00 00 00 00	 push	 OFFSET ??__F?ms_kPool@?$CPooledObject@VCHeaderDecorator@NEffectUpdateDecorator@@@@1V?$CDynamicPoolEx@VCHeaderDecorator@NEffectUpdateDecorator@@@@A@@YAXXZ ; `dynamic atexit destructor for 'CPooledObject<NEffectUpdateDecorator::CHeaderDecorator>::ms_kPool''
  00005	e8 00 00 00 00	 call	 _atexit
  0000a	59		 pop	 ecx
  0000b	c3		 ret	 0
??__E?ms_kPool@?$CPooledObject@VCHeaderDecorator@NEffectUpdateDecorator@@@@1V?$CDynamicPoolEx@VCHeaderDecorator@NEffectUpdateDecorator@@@@A@@YAXXZ ENDP ; `dynamic initializer for 'CPooledObject<NEffectUpdateDecorator::CHeaderDecorator>::ms_kPool''
text$di	ENDS
; Function compile flags: /Ogtp
; File C:\Program Files (x86)\Microsoft Visual Studio\2019\Community\VC\Tools\MSVC\14.27.29110\include\xmemory
;	COMDAT ??$_Destroy_range@V?$allocator@PAVCRotationDecorator@NEffectUpdateDecorator@@@std@@@std@@YAXPAPAVCRotationDecorator@NEffectUpdateDecorator@@QAPAV12@AAV?$allocator@PAVCRotationDecorator@NEffectUpdateDecorator@@@0@@Z
_TEXT	SEGMENT
__First$ = 8						; size = 4
__Last$ = 12						; size = 4
__Al$ = 16						; size = 4
??$_Destroy_range@V?$allocator@PAVCRotationDecorator@NEffectUpdateDecorator@@@std@@@std@@YAXPAPAVCRotationDecorator@NEffectUpdateDecorator@@QAPAV12@AAV?$allocator@PAVCRotationDecorator@NEffectUpdateDecorator@@@0@@Z PROC ; std::_Destroy_range<std::allocator<NEffectUpdateDecorator::CRotationDecorator *> >, COMDAT

; 956  :     // note that this is an optimization for debug mode codegen; in release mode the BE removes all of this
; 957  :     using _Ty = typename _Alloc::value_type;
; 958  :     if _CONSTEXPR_IF (!conjunction_v<is_trivially_destructible<_Ty>, _Uses_default_destroy<_Alloc, _Ty*>>) {
; 959  :         for (; _First != _Last; ++_First) {
; 960  :             allocator_traits<_Alloc>::destroy(_Al, _Unfancy(_First));
; 961  :         }
; 962  :     }
; 963  : }

  00000	c2 00 00	 ret	 0
??$_Destroy_range@V?$allocator@PAVCRotationDecorator@NEffectUpdateDecorator@@@std@@@std@@YAXPAPAVCRotationDecorator@NEffectUpdateDecorator@@QAPAV12@AAV?$allocator@PAVCRotationDecorator@NEffectUpdateDecorator@@@0@@Z ENDP ; std::_Destroy_range<std::allocator<NEffectUpdateDecorator::CRotationDecorator *> >
_TEXT	ENDS
; Function compile flags: /Ogtp
; File C:\Program Files (x86)\Microsoft Visual Studio\2019\Community\VC\Tools\MSVC\14.27.29110\include\xmemory
;	COMDAT ??$_Destroy_range@V?$allocator@PAVCGravityDecorator@NEffectUpdateDecorator@@@std@@@std@@YAXPAPAVCGravityDecorator@NEffectUpdateDecorator@@QAPAV12@AAV?$allocator@PAVCGravityDecorator@NEffectUpdateDecorator@@@0@@Z
_TEXT	SEGMENT
__First$ = 8						; size = 4
__Last$ = 12						; size = 4
__Al$ = 16						; size = 4
??$_Destroy_range@V?$allocator@PAVCGravityDecorator@NEffectUpdateDecorator@@@std@@@std@@YAXPAPAVCGravityDecorator@NEffectUpdateDecorator@@QAPAV12@AAV?$allocator@PAVCGravityDecorator@NEffectUpdateDecorator@@@0@@Z PROC ; std::_Destroy_range<std::allocator<NEffectUpdateDecorator::CGravityDecorator *> >, COMDAT

; 956  :     // note that this is an optimization for debug mode codegen; in release mode the BE removes all of this
; 957  :     using _Ty = typename _Alloc::value_type;
; 958  :     if _CONSTEXPR_IF (!conjunction_v<is_trivially_destructible<_Ty>, _Uses_default_destroy<_Alloc, _Ty*>>) {
; 959  :         for (; _First != _Last; ++_First) {
; 960  :             allocator_traits<_Alloc>::destroy(_Al, _Unfancy(_First));
; 961  :         }
; 962  :     }
; 963  : }

  00000	c2 00 00	 ret	 0
??$_Destroy_range@V?$allocator@PAVCGravityDecorator@NEffectUpdateDecorator@@@std@@@std@@YAXPAPAVCGravityDecorator@NEffectUpdateDecorator@@QAPAV12@AAV?$allocator@PAVCGravityDecorator@NEffectUpdateDecorator@@@0@@Z ENDP ; std::_Destroy_range<std::allocator<NEffectUpdateDecorator::CGravityDecorator *> >
_TEXT	ENDS
; Function compile flags: /Ogtp
; File C:\Program Files (x86)\Microsoft Visual Studio\2019\Community\VC\Tools\MSVC\14.27.29110\include\xmemory
;	COMDAT ??$_Destroy_range@V?$allocator@PAVCAirResistanceDecorator@NEffectUpdateDecorator@@@std@@@std@@YAXPAPAVCAirResistanceDecorator@NEffectUpdateDecorator@@QAPAV12@AAV?$allocator@PAVCAirResistanceDecorator@NEffectUpdateDecorator@@@0@@Z
_TEXT	SEGMENT
__First$ = 8						; size = 4
__Last$ = 12						; size = 4
__Al$ = 16						; size = 4
??$_Destroy_range@V?$allocator@PAVCAirResistanceDecorator@NEffectUpdateDecorator@@@std@@@std@@YAXPAPAVCAirResistanceDecorator@NEffectUpdateDecorator@@QAPAV12@AAV?$allocator@PAVCAirResistanceDecorator@NEffectUpdateDecorator@@@0@@Z PROC ; std::_Destroy_range<std::allocator<NEffectUpdateDecorator::CAirResistanceDecorator *> >, COMDAT

; 956  :     // note that this is an optimization for debug mode codegen; in release mode the BE removes all of this
; 957  :     using _Ty = typename _Alloc::value_type;
; 958  :     if _CONSTEXPR_IF (!conjunction_v<is_trivially_destructible<_Ty>, _Uses_default_destroy<_Alloc, _Ty*>>) {
; 959  :         for (; _First != _Last; ++_First) {
; 960  :             allocator_traits<_Alloc>::destroy(_Al, _Unfancy(_First));
; 961  :         }
; 962  :     }
; 963  : }

  00000	c2 00 00	 ret	 0
??$_Destroy_range@V?$allocator@PAVCAirResistanceDecorator@NEffectUpdateDecorator@@@std@@@std@@YAXPAPAVCAirResistanceDecorator@NEffectUpdateDecorator@@QAPAV12@AAV?$allocator@PAVCAirResistanceDecorator@NEffectUpdateDecorator@@@0@@Z ENDP ; std::_Destroy_range<std::allocator<NEffectUpdateDecorator::CAirResistanceDecorator *> >
_TEXT	ENDS
; Function compile flags: /Ogtp
; File C:\Program Files (x86)\Microsoft Visual Studio\2019\Community\VC\Tools\MSVC\14.27.29110\include\xmemory
;	COMDAT ??$_Destroy_range@V?$allocator@PAVCTextureAnimationRandomDecorator@NEffectUpdateDecorator@@@std@@@std@@YAXPAPAVCTextureAnimationRandomDecorator@NEffectUpdateDecorator@@QAPAV12@AAV?$allocator@PAVCTextureAnimationRandomDecorator@NEffectUpdateDecorator@@@0@@Z
_TEXT	SEGMENT
__First$ = 8						; size = 4
__Last$ = 12						; size = 4
__Al$ = 16						; size = 4
??$_Destroy_range@V?$allocator@PAVCTextureAnimationRandomDecorator@NEffectUpdateDecorator@@@std@@@std@@YAXPAPAVCTextureAnimationRandomDecorator@NEffectUpdateDecorator@@QAPAV12@AAV?$allocator@PAVCTextureAnimationRandomDecorator@NEffectUpdateDecorator@@@0@@Z PROC ; std::_Destroy_range<std::allocator<NEffectUpdateDecorator::CTextureAnimationRandomDecorator *> >, COMDAT

; 956  :     // note that this is an optimization for debug mode codegen; in release mode the BE removes all of this
; 957  :     using _Ty = typename _Alloc::value_type;
; 958  :     if _CONSTEXPR_IF (!conjunction_v<is_trivially_destructible<_Ty>, _Uses_default_destroy<_Alloc, _Ty*>>) {
; 959  :         for (; _First != _Last; ++_First) {
; 960  :             allocator_traits<_Alloc>::destroy(_Al, _Unfancy(_First));
; 961  :         }
; 962  :     }
; 963  : }

  00000	c2 00 00	 ret	 0
??$_Destroy_range@V?$allocator@PAVCTextureAnimationRandomDecorator@NEffectUpdateDecorator@@@std@@@std@@YAXPAPAVCTextureAnimationRandomDecorator@NEffectUpdateDecorator@@QAPAV12@AAV?$allocator@PAVCTextureAnimationRandomDecorator@NEffectUpdateDecorator@@@0@@Z ENDP ; std::_Destroy_range<std::allocator<NEffectUpdateDecorator::CTextureAnimationRandomDecorator *> >
_TEXT	ENDS
; Function compile flags: /Ogtp
; File C:\Program Files (x86)\Microsoft Visual Studio\2019\Community\VC\Tools\MSVC\14.27.29110\include\xmemory
;	COMDAT ??$_Destroy_range@V?$allocator@PAVCTextureAnimationCCWDecorator@NEffectUpdateDecorator@@@std@@@std@@YAXPAPAVCTextureAnimationCCWDecorator@NEffectUpdateDecorator@@QAPAV12@AAV?$allocator@PAVCTextureAnimationCCWDecorator@NEffectUpdateDecorator@@@0@@Z
_TEXT	SEGMENT
__First$ = 8						; size = 4
__Last$ = 12						; size = 4
__Al$ = 16						; size = 4
??$_Destroy_range@V?$allocator@PAVCTextureAnimationCCWDecorator@NEffectUpdateDecorator@@@std@@@std@@YAXPAPAVCTextureAnimationCCWDecorator@NEffectUpdateDecorator@@QAPAV12@AAV?$allocator@PAVCTextureAnimationCCWDecorator@NEffectUpdateDecorator@@@0@@Z PROC ; std::_Destroy_range<std::allocator<NEffectUpdateDecorator::CTextureAnimationCCWDecorator *> >, COMDAT

; 956  :     // note that this is an optimization for debug mode codegen; in release mode the BE removes all of this
; 957  :     using _Ty = typename _Alloc::value_type;
; 958  :     if _CONSTEXPR_IF (!conjunction_v<is_trivially_destructible<_Ty>, _Uses_default_destroy<_Alloc, _Ty*>>) {
; 959  :         for (; _First != _Last; ++_First) {
; 960  :             allocator_traits<_Alloc>::destroy(_Al, _Unfancy(_First));
; 961  :         }
; 962  :     }
; 963  : }

  00000	c2 00 00	 ret	 0
??$_Destroy_range@V?$allocator@PAVCTextureAnimationCCWDecorator@NEffectUpdateDecorator@@@std@@@std@@YAXPAPAVCTextureAnimationCCWDecorator@NEffectUpdateDecorator@@QAPAV12@AAV?$allocator@PAVCTextureAnimationCCWDecorator@NEffectUpdateDecorator@@@0@@Z ENDP ; std::_Destroy_range<std::allocator<NEffectUpdateDecorator::CTextureAnimationCCWDecorator *> >
_TEXT	ENDS
; Function compile flags: /Ogtp
; File C:\Program Files (x86)\Microsoft Visual Studio\2019\Community\VC\Tools\MSVC\14.27.29110\include\xmemory
;	COMDAT ??$_Destroy_range@V?$allocator@PAVCTextureAnimationCWDecorator@NEffectUpdateDecorator@@@std@@@std@@YAXPAPAVCTextureAnimationCWDecorator@NEffectUpdateDecorator@@QAPAV12@AAV?$allocator@PAVCTextureAnimationCWDecorator@NEffectUpdateDecorator@@@0@@Z
_TEXT	SEGMENT
__First$ = 8						; size = 4
__Last$ = 12						; size = 4
__Al$ = 16						; size = 4
??$_Destroy_range@V?$allocator@PAVCTextureAnimationCWDecorator@NEffectUpdateDecorator@@@std@@@std@@YAXPAPAVCTextureAnimationCWDecorator@NEffectUpdateDecorator@@QAPAV12@AAV?$allocator@PAVCTextureAnimationCWDecorator@NEffectUpdateDecorator@@@0@@Z PROC ; std::_Destroy_range<std::allocator<NEffectUpdateDecorator::CTextureAnimationCWDecorator *> >, COMDAT

; 956  :     // note that this is an optimization for debug mode codegen; in release mode the BE removes all of this
; 957  :     using _Ty = typename _Alloc::value_type;
; 958  :     if _CONSTEXPR_IF (!conjunction_v<is_trivially_destructible<_Ty>, _Uses_default_destroy<_Alloc, _Ty*>>) {
; 959  :         for (; _First != _Last; ++_First) {
; 960  :             allocator_traits<_Alloc>::destroy(_Al, _Unfancy(_First));
; 961  :         }
; 962  :     }
; 963  : }

  00000	c2 00 00	 ret	 0
??$_Destroy_range@V?$allocator@PAVCTextureAnimationCWDecorator@NEffectUpdateDecorator@@@std@@@std@@YAXPAPAVCTextureAnimationCWDecorator@NEffectUpdateDecorator@@QAPAV12@AAV?$allocator@PAVCTextureAnimationCWDecorator@NEffectUpdateDecorator@@@0@@Z ENDP ; std::_Destroy_range<std::allocator<NEffectUpdateDecorator::CTextureAnimationCWDecorator *> >
_TEXT	ENDS
; Function compile flags: /Ogtp
; File C:\Program Files (x86)\Microsoft Visual Studio\2019\Community\VC\Tools\MSVC\14.27.29110\include\xmemory
;	COMDAT ??$_Destroy_range@V?$allocator@PAVCNullDecorator@NEffectUpdateDecorator@@@std@@@std@@YAXPAPAVCNullDecorator@NEffectUpdateDecorator@@QAPAV12@AAV?$allocator@PAVCNullDecorator@NEffectUpdateDecorator@@@0@@Z
_TEXT	SEGMENT
__First$ = 8						; size = 4
__Last$ = 12						; size = 4
__Al$ = 16						; size = 4
??$_Destroy_range@V?$allocator@PAVCNullDecorator@NEffectUpdateDecorator@@@std@@@std@@YAXPAPAVCNullDecorator@NEffectUpdateDecorator@@QAPAV12@AAV?$allocator@PAVCNullDecorator@NEffectUpdateDecorator@@@0@@Z PROC ; std::_Destroy_range<std::allocator<NEffectUpdateDecorator::CNullDecorator *> >, COMDAT

; 956  :     // note that this is an optimization for debug mode codegen; in release mode the BE removes all of this
; 957  :     using _Ty = typename _Alloc::value_type;
; 958  :     if _CONSTEXPR_IF (!conjunction_v<is_trivially_destructible<_Ty>, _Uses_default_destroy<_Alloc, _Ty*>>) {
; 959  :         for (; _First != _Last; ++_First) {
; 960  :             allocator_traits<_Alloc>::destroy(_Al, _Unfancy(_First));
; 961  :         }
; 962  :     }
; 963  : }

  00000	c2 00 00	 ret	 0
??$_Destroy_range@V?$allocator@PAVCNullDecorator@NEffectUpdateDecorator@@@std@@@std@@YAXPAPAVCNullDecorator@NEffectUpdateDecorator@@QAPAV12@AAV?$allocator@PAVCNullDecorator@NEffectUpdateDecorator@@@0@@Z ENDP ; std::_Destroy_range<std::allocator<NEffectUpdateDecorator::CNullDecorator *> >
_TEXT	ENDS
; Function compile flags: /Ogtp
; File C:\Program Files (x86)\Microsoft Visual Studio\2019\Community\VC\Tools\MSVC\14.27.29110\include\xmemory
;	COMDAT ??$_Destroy_range@V?$allocator@PAVCHeaderDecorator@NEffectUpdateDecorator@@@std@@@std@@YAXPAPAVCHeaderDecorator@NEffectUpdateDecorator@@QAPAV12@AAV?$allocator@PAVCHeaderDecorator@NEffectUpdateDecorator@@@0@@Z
_TEXT	SEGMENT
__First$ = 8						; size = 4
__Last$ = 12						; size = 4
__Al$ = 16						; size = 4
??$_Destroy_range@V?$allocator@PAVCHeaderDecorator@NEffectUpdateDecorator@@@std@@@std@@YAXPAPAVCHeaderDecorator@NEffectUpdateDecorator@@QAPAV12@AAV?$allocator@PAVCHeaderDecorator@NEffectUpdateDecorator@@@0@@Z PROC ; std::_Destroy_range<std::allocator<NEffectUpdateDecorator::CHeaderDecorator *> >, COMDAT

; 956  :     // note that this is an optimization for debug mode codegen; in release mode the BE removes all of this
; 957  :     using _Ty = typename _Alloc::value_type;
; 958  :     if _CONSTEXPR_IF (!conjunction_v<is_trivially_destructible<_Ty>, _Uses_default_destroy<_Alloc, _Ty*>>) {
; 959  :         for (; _First != _Last; ++_First) {
; 960  :             allocator_traits<_Alloc>::destroy(_Al, _Unfancy(_First));
; 961  :         }
; 962  :     }
; 963  : }

  00000	c2 00 00	 ret	 0
??$_Destroy_range@V?$allocator@PAVCHeaderDecorator@NEffectUpdateDecorator@@@std@@@std@@YAXPAPAVCHeaderDecorator@NEffectUpdateDecorator@@QAPAV12@AAV?$allocator@PAVCHeaderDecorator@NEffectUpdateDecorator@@@0@@Z ENDP ; std::_Destroy_range<std::allocator<NEffectUpdateDecorator::CHeaderDecorator *> >
_TEXT	ENDS
; Function compile flags: /Ogtp
; File C:\Program Files (x86)\Microsoft Visual Studio\2019\Community\VC\Tools\MSVC\14.27.29110\include\xmemory
;	COMDAT ??$_Uninitialized_move@PAUCDynamicSphereInstance@@V?$allocator@UCDynamicSphereInstance@@@std@@@std@@YAPAUCDynamicSphereInstance@@QAU1@0PAU1@AAV?$allocator@UCDynamicSphereInstance@@@0@@Z
_TEXT	SEGMENT
__First$ = 8						; size = 4
__Last$ = 12						; size = 4
__Dest$ = 16						; size = 4
__Al$ = 20						; size = 4
??$_Uninitialized_move@PAUCDynamicSphereInstance@@V?$allocator@UCDynamicSphereInstance@@@std@@@std@@YAPAUCDynamicSphereInstance@@QAU1@0PAU1@AAV?$allocator@UCDynamicSphereInstance@@@0@@Z PROC ; std::_Uninitialized_move<CDynamicSphereInstance *,std::allocator<CDynamicSphereInstance> >, COMDAT

; 1647 :     const _InIt _First, const _InIt _Last, _Alloc_ptr_t<_Alloc> _Dest, _Alloc& _Al) {

  00000	55		 push	 ebp
  00001	8b ec		 mov	 ebp, esp

; 1648 :     // move [_First, _Last) to raw _Dest, using _Al
; 1649 :     // note: only called internally from elsewhere in the STL
; 1650 :     using _Ptrval     = typename _Alloc::value_type*;
; 1651 :     auto _UFirst      = _Get_unwrapped(_First);
; 1652 :     const auto _ULast = _Get_unwrapped(_Last);
; 1653 :     if constexpr (conjunction_v<bool_constant<_Ptr_move_cat<decltype(_UFirst), _Ptrval>::_Really_trivial>,
; 1654 :                       _Uses_default_construct<_Alloc, _Ptrval, decltype(_STD move(*_UFirst))>>) {
; 1655 :         _Copy_memmove(_UFirst, _ULast, _Unfancy(_Dest));
; 1656 :         return _Dest + (_ULast - _UFirst);
; 1657 :     } else {
; 1658 :         _Uninitialized_backout_al<_Alloc> _Backout{_Dest, _Al};
; 1659 :         for (; _UFirst != _ULast; ++_UFirst) {

  00003	8b 4d 08	 mov	 ecx, DWORD PTR __First$[ebp]

; 1497 :     _Uninitialized_backout_al(pointer _Dest, _Alloc& _Al_) : _First(_Dest), _Last(_Dest), _Al(_Al_) {}

  00006	8b 45 10	 mov	 eax, DWORD PTR __Dest$[ebp]

; 1647 :     const _InIt _First, const _InIt _Last, _Alloc_ptr_t<_Alloc> _Dest, _Alloc& _Al) {

  00009	56		 push	 esi

; 1648 :     // move [_First, _Last) to raw _Dest, using _Al
; 1649 :     // note: only called internally from elsewhere in the STL
; 1650 :     using _Ptrval     = typename _Alloc::value_type*;
; 1651 :     auto _UFirst      = _Get_unwrapped(_First);
; 1652 :     const auto _ULast = _Get_unwrapped(_Last);
; 1653 :     if constexpr (conjunction_v<bool_constant<_Ptr_move_cat<decltype(_UFirst), _Ptrval>::_Really_trivial>,
; 1654 :                       _Uses_default_construct<_Alloc, _Ptrval, decltype(_STD move(*_UFirst))>>) {
; 1655 :         _Copy_memmove(_UFirst, _ULast, _Unfancy(_Dest));
; 1656 :         return _Dest + (_ULast - _UFirst);
; 1657 :     } else {
; 1658 :         _Uninitialized_backout_al<_Alloc> _Backout{_Dest, _Al};
; 1659 :         for (; _UFirst != _ULast; ++_UFirst) {

  0000a	8b 75 0c	 mov	 esi, DWORD PTR __Last$[ebp]
  0000d	3b ce		 cmp	 ecx, esi
  0000f	74 20		 je	 SHORT $LN3@Uninitiali
$LL4@Uninitiali:

; 694  :         ::new (const_cast<void*>(static_cast<const volatile void*>(_Ptr))) _Objty(_STD forward<_Types>(_Args)...);

  00011	0f 10 01	 movups	 xmm0, XMMWORD PTR [ecx]
  00014	0f 11 00	 movups	 XMMWORD PTR [eax], xmm0
  00017	f3 0f 7e 41 10	 movq	 xmm0, QWORD PTR [ecx+16]
  0001c	66 0f d6 40 10	 movq	 QWORD PTR [eax+16], xmm0
  00021	8b 51 18	 mov	 edx, DWORD PTR [ecx+24]

; 1509 :         ++_Last;

  00024	83 c1 1c	 add	 ecx, 28			; 0000001cH

; 694  :         ::new (const_cast<void*>(static_cast<const volatile void*>(_Ptr))) _Objty(_STD forward<_Types>(_Args)...);

  00027	89 50 18	 mov	 DWORD PTR [eax+24], edx

; 1509 :         ++_Last;

  0002a	83 c0 1c	 add	 eax, 28			; 0000001cH

; 1648 :     // move [_First, _Last) to raw _Dest, using _Al
; 1649 :     // note: only called internally from elsewhere in the STL
; 1650 :     using _Ptrval     = typename _Alloc::value_type*;
; 1651 :     auto _UFirst      = _Get_unwrapped(_First);
; 1652 :     const auto _ULast = _Get_unwrapped(_Last);
; 1653 :     if constexpr (conjunction_v<bool_constant<_Ptr_move_cat<decltype(_UFirst), _Ptrval>::_Really_trivial>,
; 1654 :                       _Uses_default_construct<_Alloc, _Ptrval, decltype(_STD move(*_UFirst))>>) {
; 1655 :         _Copy_memmove(_UFirst, _ULast, _Unfancy(_Dest));
; 1656 :         return _Dest + (_ULast - _UFirst);
; 1657 :     } else {
; 1658 :         _Uninitialized_backout_al<_Alloc> _Backout{_Dest, _Al};
; 1659 :         for (; _UFirst != _ULast; ++_UFirst) {

  0002d	3b ce		 cmp	 ecx, esi
  0002f	75 e0		 jne	 SHORT $LL4@Uninitiali
$LN3@Uninitiali:
  00031	5e		 pop	 esi

; 1660 :             _Backout._Emplace_back(_STD move(*_UFirst));
; 1661 :         }
; 1662 : 
; 1663 :         return _Backout._Release();
; 1664 :     }
; 1665 : }

  00032	5d		 pop	 ebp
  00033	c3		 ret	 0
??$_Uninitialized_move@PAUCDynamicSphereInstance@@V?$allocator@UCDynamicSphereInstance@@@std@@@std@@YAPAUCDynamicSphereInstance@@QAU1@0PAU1@AAV?$allocator@UCDynamicSphereInstance@@@0@@Z ENDP ; std::_Uninitialized_move<CDynamicSphereInstance *,std::allocator<CDynamicSphereInstance> >
_TEXT	ENDS
; Function compile flags: /Ogtp
; File C:\Program Files (x86)\Microsoft Visual Studio\2019\Community\VC\Tools\MSVC\14.27.29110\include\xmemory
;	COMDAT ??$_Destroy_range@V?$allocator@UCDynamicSphereInstance@@@std@@@std@@YAXPAUCDynamicSphereInstance@@QAU1@AAV?$allocator@UCDynamicSphereInstance@@@0@@Z
_TEXT	SEGMENT
__First$ = 8						; size = 4
__Last$ = 12						; size = 4
__Al$ = 16						; size = 4
??$_Destroy_range@V?$allocator@UCDynamicSphereInstance@@@std@@@std@@YAXPAUCDynamicSphereInstance@@QAU1@AAV?$allocator@UCDynamicSphereInstance@@@0@@Z PROC ; std::_Destroy_range<std::allocator<CDynamicSphereInstance> >, COMDAT

; 956  :     // note that this is an optimization for debug mode codegen; in release mode the BE removes all of this
; 957  :     using _Ty = typename _Alloc::value_type;
; 958  :     if _CONSTEXPR_IF (!conjunction_v<is_trivially_destructible<_Ty>, _Uses_default_destroy<_Alloc, _Ty*>>) {
; 959  :         for (; _First != _Last; ++_First) {
; 960  :             allocator_traits<_Alloc>::destroy(_Al, _Unfancy(_First));
; 961  :         }
; 962  :     }
; 963  : }

  00000	c2 00 00	 ret	 0
??$_Destroy_range@V?$allocator@UCDynamicSphereInstance@@@std@@@std@@YAXPAUCDynamicSphereInstance@@QAU1@AAV?$allocator@UCDynamicSphereInstance@@@0@@Z ENDP ; std::_Destroy_range<std::allocator<CDynamicSphereInstance> >
_TEXT	ENDS
; Function compile flags: /Ogtp
;	COMDAT ??_G?$CDynamicPoolEx@VCHeaderDecorator@NEffectUpdateDecorator@@@@UAEPAXI@Z
_TEXT	SEGMENT
___flags$ = 8						; size = 4
??_G?$CDynamicPoolEx@VCHeaderDecorator@NEffectUpdateDecorator@@@@UAEPAXI@Z PROC ; CDynamicPoolEx<NEffectUpdateDecorator::CHeaderDecorator>::`scalar deleting destructor', COMDAT
; _this$ = ecx
  00000	55		 push	 ebp
  00001	8b ec		 mov	 ebp, esp
  00003	56		 push	 esi
  00004	8b f1		 mov	 esi, ecx
  00006	e8 00 00 00 00	 call	 ??1?$CDynamicPoolEx@VCHeaderDecorator@NEffectUpdateDecorator@@@@UAE@XZ ; CDynamicPoolEx<NEffectUpdateDecorator::CHeaderDecorator>::~CDynamicPoolEx<NEffectUpdateDecorator::CHeaderDecorator>
  0000b	f6 45 08 01	 test	 BYTE PTR ___flags$[ebp], 1
  0000f	74 0b		 je	 SHORT $LN4@scalar
  00011	6a 24		 push	 36			; 00000024H
  00013	56		 push	 esi
  00014	e8 00 00 00 00	 call	 ??3@YAXPAXI@Z		; operator delete
  00019	83 c4 08	 add	 esp, 8
$LN4@scalar:
  0001c	8b c6		 mov	 eax, esi
  0001e	5e		 pop	 esi
  0001f	5d		 pop	 ebp
  00020	c2 04 00	 ret	 4
??_G?$CDynamicPoolEx@VCHeaderDecorator@NEffectUpdateDecorator@@@@UAEPAXI@Z ENDP ; CDynamicPoolEx<NEffectUpdateDecorator::CHeaderDecorator>::`scalar deleting destructor'
_TEXT	ENDS
; Function compile flags: /Ogtp
; File C:\DS Project\DS Files\Source\ClientSource\Client\eterLib\Pool.h
;	COMDAT ?Delete@?$CDynamicPoolEx@VCHeaderDecorator@NEffectUpdateDecorator@@@@KAXPAVCHeaderDecorator@NEffectUpdateDecorator@@@Z
_TEXT	SEGMENT
_pkData$ = 8						; size = 4
?Delete@?$CDynamicPoolEx@VCHeaderDecorator@NEffectUpdateDecorator@@@@KAXPAVCHeaderDecorator@NEffectUpdateDecorator@@@Z PROC ; CDynamicPoolEx<NEffectUpdateDecorator::CHeaderDecorator>::Delete, COMDAT

; 224  : 			::operator delete(pkData);

  00000	e9 00 00 00 00	 jmp	 ??3@YAXPAX@Z		; operator delete
?Delete@?$CDynamicPoolEx@VCHeaderDecorator@NEffectUpdateDecorator@@@@KAXPAVCHeaderDecorator@NEffectUpdateDecorator@@@Z ENDP ; CDynamicPoolEx<NEffectUpdateDecorator::CHeaderDecorator>::Delete
_TEXT	ENDS
; Function compile flags: /Ogtp
; File C:\DS Project\DS Files\Source\ClientSource\Client\eterLib\Pool.h
; File C:\Program Files (x86)\Microsoft Visual Studio\2019\Community\VC\Tools\MSVC\14.27.29110\include\vector
; File C:\Program Files (x86)\Microsoft Visual Studio\2019\Community\VC\Tools\MSVC\14.27.29110\include\algorithm
; File C:\DS Project\DS Files\Source\ClientSource\Client\eterLib\Pool.h
; File C:\Program Files (x86)\Microsoft Visual Studio\2019\Community\VC\Tools\MSVC\14.27.29110\include\algorithm
; File C:\DS Project\DS Files\Source\ClientSource\Client\eterLib\Pool.h
; File C:\Program Files (x86)\Microsoft Visual Studio\2019\Community\VC\Tools\MSVC\14.27.29110\include\algorithm
; File C:\DS Project\DS Files\Source\ClientSource\Client\eterLib\Pool.h
; File C:\Program Files (x86)\Microsoft Visual Studio\2019\Community\VC\Tools\MSVC\14.27.29110\include\vector
; File C:\Program Files (x86)\Microsoft Visual Studio\2019\Community\VC\Tools\MSVC\14.27.29110\include\xmemory
; File C:\Program Files (x86)\Microsoft Visual Studio\2019\Community\VC\Tools\MSVC\14.27.29110\include\vector
; File C:\Program Files (x86)\Microsoft Visual Studio\2019\Community\VC\Tools\MSVC\14.27.29110\include\xmemory
; File C:\Program Files (x86)\Microsoft Visual Studio\2019\Community\VC\Tools\MSVC\14.27.29110\include\vector
; File C:\Program Files (x86)\Microsoft Visual Studio\2019\Community\VC\Tools\MSVC\14.27.29110\include\xmemory
; File C:\Program Files (x86)\Microsoft Visual Studio\2019\Community\VC\Tools\MSVC\14.27.29110\include\vector
; File C:\Program Files (x86)\Microsoft Visual Studio\2019\Community\VC\Tools\MSVC\14.27.29110\include\xmemory
; File C:\Program Files (x86)\Microsoft Visual Studio\2019\Community\VC\Tools\MSVC\14.27.29110\include\vector
; File C:\DS Project\DS Files\Source\ClientSource\Client\eterLib\Pool.h
;	COMDAT ??1?$CDynamicPoolEx@VCHeaderDecorator@NEffectUpdateDecorator@@@@UAE@XZ
_TEXT	SEGMENT
??1?$CDynamicPoolEx@VCHeaderDecorator@NEffectUpdateDecorator@@@@UAE@XZ PROC ; CDynamicPoolEx<NEffectUpdateDecorator::CHeaderDecorator>::~CDynamicPoolEx<NEffectUpdateDecorator::CHeaderDecorator>, COMDAT
; _this$ = ecx

; 132  : 		{

  00000	53		 push	 ebx
  00001	56		 push	 esi
  00002	57		 push	 edi
  00003	8b f9		 mov	 edi, ecx
  00005	c7 07 00 00 00
	00		 mov	 DWORD PTR [edi], OFFSET ??_7?$CDynamicPoolEx@VCHeaderDecorator@NEffectUpdateDecorator@@@@6B@
; File C:\Program Files (x86)\Microsoft Visual Studio\2019\Community\VC\Tools\MSVC\14.27.29110\include\vector

; 42   :     _Vector_const_iterator(_Tptr _Parg, const _Container_base* _Pvector) noexcept : _Ptr(_Parg) {

  0000b	8b 5f 08	 mov	 ebx, DWORD PTR [edi+8]
  0000e	8b 77 04	 mov	 esi, DWORD PTR [edi+4]
; File C:\Program Files (x86)\Microsoft Visual Studio\2019\Community\VC\Tools\MSVC\14.27.29110\include\algorithm

; 235  :     for (; _UFirst != _ULast; ++_UFirst) {

  00011	3b f3		 cmp	 esi, ebx
  00013	74 14		 je	 SHORT $LN19@CDynamicPo
$LL20@CDynamicPo:
; File C:\DS Project\DS Files\Source\ClientSource\Client\eterLib\Pool.h

; 224  : 			::operator delete(pkData);

  00015	ff 36		 push	 DWORD PTR [esi]
  00017	e8 00 00 00 00	 call	 ??3@YAXPAX@Z		; operator delete
; File C:\Program Files (x86)\Microsoft Visual Studio\2019\Community\VC\Tools\MSVC\14.27.29110\include\algorithm

; 235  :     for (; _UFirst != _ULast; ++_UFirst) {

  0001c	83 c6 04	 add	 esi, 4
; File C:\DS Project\DS Files\Source\ClientSource\Client\eterLib\Pool.h

; 224  : 			::operator delete(pkData);

  0001f	83 c4 04	 add	 esp, 4
; File C:\Program Files (x86)\Microsoft Visual Studio\2019\Community\VC\Tools\MSVC\14.27.29110\include\algorithm

; 235  :     for (; _UFirst != _ULast; ++_UFirst) {

  00022	3b f3		 cmp	 esi, ebx
  00024	75 ef		 jne	 SHORT $LL20@CDynamicPo
  00026	8b 77 04	 mov	 esi, DWORD PTR [edi+4]
$LN19@CDynamicPo:
; File C:\DS Project\DS Files\Source\ClientSource\Client\eterLib\Pool.h

; 162  : 			m_kVct_pkFree.clear();

  00029	8b 4f 10	 mov	 ecx, DWORD PTR [edi+16]
  0002c	89 77 08	 mov	 DWORD PTR [edi+8], esi
  0002f	89 4f 14	 mov	 DWORD PTR [edi+20], ecx
; File C:\Program Files (x86)\Microsoft Visual Studio\2019\Community\VC\Tools\MSVC\14.27.29110\include\vector

; 1693 :         if (_Myfirst) { // destroy and deallocate old array

  00032	85 c9		 test	 ecx, ecx
  00034	74 27		 je	 SHORT $LN27@CDynamicPo

; 1694 :             _Destroy(_Myfirst, _Mylast);
; 1695 :             _Getal().deallocate(_Myfirst, static_cast<size_type>(_Myend - _Myfirst));

  00036	8b 47 18	 mov	 eax, DWORD PTR [edi+24]
  00039	2b c1		 sub	 eax, ecx
; File C:\Program Files (x86)\Microsoft Visual Studio\2019\Community\VC\Tools\MSVC\14.27.29110\include\xmemory

; 803  :         _Deallocate<_New_alignof<_Ty>>(_Ptr, sizeof(_Ty) * _Count);

  0003b	83 e0 fc	 and	 eax, -4			; fffffffcH
  0003e	50		 push	 eax
  0003f	51		 push	 ecx
  00040	e8 00 00 00 00	 call	 ??$_Deallocate@$07$0A@@std@@YAXPAXI@Z ; std::_Deallocate<8,0>
; File C:\Program Files (x86)\Microsoft Visual Studio\2019\Community\VC\Tools\MSVC\14.27.29110\include\vector

; 1697 :             _Myfirst = pointer();

  00045	c7 47 10 00 00
	00 00		 mov	 DWORD PTR [edi+16], 0
; File C:\Program Files (x86)\Microsoft Visual Studio\2019\Community\VC\Tools\MSVC\14.27.29110\include\xmemory

; 803  :         _Deallocate<_New_alignof<_Ty>>(_Ptr, sizeof(_Ty) * _Count);

  0004c	83 c4 08	 add	 esp, 8
; File C:\Program Files (x86)\Microsoft Visual Studio\2019\Community\VC\Tools\MSVC\14.27.29110\include\vector

; 1698 :             _Mylast  = pointer();

  0004f	c7 47 14 00 00
	00 00		 mov	 DWORD PTR [edi+20], 0

; 1699 :             _Myend   = pointer();

  00056	c7 47 18 00 00
	00 00		 mov	 DWORD PTR [edi+24], 0
$LN27@CDynamicPo:

; 1693 :         if (_Myfirst) { // destroy and deallocate old array

  0005d	8b 4f 04	 mov	 ecx, DWORD PTR [edi+4]
  00060	85 c9		 test	 ecx, ecx
  00062	74 27		 je	 SHORT $LN34@CDynamicPo

; 1694 :             _Destroy(_Myfirst, _Mylast);
; 1695 :             _Getal().deallocate(_Myfirst, static_cast<size_type>(_Myend - _Myfirst));

  00064	8b 47 0c	 mov	 eax, DWORD PTR [edi+12]
  00067	2b c1		 sub	 eax, ecx
; File C:\Program Files (x86)\Microsoft Visual Studio\2019\Community\VC\Tools\MSVC\14.27.29110\include\xmemory

; 803  :         _Deallocate<_New_alignof<_Ty>>(_Ptr, sizeof(_Ty) * _Count);

  00069	83 e0 fc	 and	 eax, -4			; fffffffcH
  0006c	50		 push	 eax
  0006d	51		 push	 ecx
  0006e	e8 00 00 00 00	 call	 ??$_Deallocate@$07$0A@@std@@YAXPAXI@Z ; std::_Deallocate<8,0>
; File C:\Program Files (x86)\Microsoft Visual Studio\2019\Community\VC\Tools\MSVC\14.27.29110\include\vector

; 1697 :             _Myfirst = pointer();

  00073	c7 47 04 00 00
	00 00		 mov	 DWORD PTR [edi+4], 0
; File C:\Program Files (x86)\Microsoft Visual Studio\2019\Community\VC\Tools\MSVC\14.27.29110\include\xmemory

; 803  :         _Deallocate<_New_alignof<_Ty>>(_Ptr, sizeof(_Ty) * _Count);

  0007a	83 c4 08	 add	 esp, 8
; File C:\Program Files (x86)\Microsoft Visual Studio\2019\Community\VC\Tools\MSVC\14.27.29110\include\vector

; 1698 :             _Mylast  = pointer();

  0007d	c7 47 08 00 00
	00 00		 mov	 DWORD PTR [edi+8], 0

; 1699 :             _Myend   = pointer();

  00084	c7 47 0c 00 00
	00 00		 mov	 DWORD PTR [edi+12], 0
$LN34@CDynamicPo:
  0008b	5f		 pop	 edi
; File C:\DS Project\DS Files\Source\ClientSource\Client\eterLib\Pool.h

; 142  : 		}

  0008c	5e		 pop	 esi
  0008d	5b		 pop	 ebx
  0008e	c3		 ret	 0
??1?$CDynamicPoolEx@VCHeaderDecorator@NEffectUpdateDecorator@@@@UAE@XZ ENDP ; CDynamicPoolEx<NEffectUpdateDecorator::CHeaderDecorator>::~CDynamicPoolEx<NEffectUpdateDecorator::CHeaderDecorator>
_TEXT	ENDS
; Function compile flags: /Ogtp
;	COMDAT ??_G?$CDynamicPoolEx@VCNullDecorator@NEffectUpdateDecorator@@@@UAEPAXI@Z
_TEXT	SEGMENT
___flags$ = 8						; size = 4
??_G?$CDynamicPoolEx@VCNullDecorator@NEffectUpdateDecorator@@@@UAEPAXI@Z PROC ; CDynamicPoolEx<NEffectUpdateDecorator::CNullDecorator>::`scalar deleting destructor', COMDAT
; _this$ = ecx
  00000	55		 push	 ebp
  00001	8b ec		 mov	 ebp, esp
  00003	56		 push	 esi
  00004	8b f1		 mov	 esi, ecx
  00006	e8 00 00 00 00	 call	 ??1?$CDynamicPoolEx@VCNullDecorator@NEffectUpdateDecorator@@@@UAE@XZ ; CDynamicPoolEx<NEffectUpdateDecorator::CNullDecorator>::~CDynamicPoolEx<NEffectUpdateDecorator::CNullDecorator>
  0000b	f6 45 08 01	 test	 BYTE PTR ___flags$[ebp], 1
  0000f	74 0b		 je	 SHORT $LN4@scalar
  00011	6a 24		 push	 36			; 00000024H
  00013	56		 push	 esi
  00014	e8 00 00 00 00	 call	 ??3@YAXPAXI@Z		; operator delete
  00019	83 c4 08	 add	 esp, 8
$LN4@scalar:
  0001c	8b c6		 mov	 eax, esi
  0001e	5e		 pop	 esi
  0001f	5d		 pop	 ebp
  00020	c2 04 00	 ret	 4
??_G?$CDynamicPoolEx@VCNullDecorator@NEffectUpdateDecorator@@@@UAEPAXI@Z ENDP ; CDynamicPoolEx<NEffectUpdateDecorator::CNullDecorator>::`scalar deleting destructor'
_TEXT	ENDS
; Function compile flags: /Ogtp
; File C:\DS Project\DS Files\Source\ClientSource\Client\eterLib\Pool.h
;	COMDAT ?Delete@?$CDynamicPoolEx@VCNullDecorator@NEffectUpdateDecorator@@@@KAXPAVCNullDecorator@NEffectUpdateDecorator@@@Z
_TEXT	SEGMENT
_pkData$ = 8						; size = 4
?Delete@?$CDynamicPoolEx@VCNullDecorator@NEffectUpdateDecorator@@@@KAXPAVCNullDecorator@NEffectUpdateDecorator@@@Z PROC ; CDynamicPoolEx<NEffectUpdateDecorator::CNullDecorator>::Delete, COMDAT

; 224  : 			::operator delete(pkData);

  00000	e9 00 00 00 00	 jmp	 ??3@YAXPAX@Z		; operator delete
?Delete@?$CDynamicPoolEx@VCNullDecorator@NEffectUpdateDecorator@@@@KAXPAVCNullDecorator@NEffectUpdateDecorator@@@Z ENDP ; CDynamicPoolEx<NEffectUpdateDecorator::CNullDecorator>::Delete
_TEXT	ENDS
; Function compile flags: /Ogtp
; File C:\DS Project\DS Files\Source\ClientSource\Client\eterLib\Pool.h
; File C:\Program Files (x86)\Microsoft Visual Studio\2019\Community\VC\Tools\MSVC\14.27.29110\include\vector
; File C:\Program Files (x86)\Microsoft Visual Studio\2019\Community\VC\Tools\MSVC\14.27.29110\include\algorithm
; File C:\DS Project\DS Files\Source\ClientSource\Client\eterLib\Pool.h
; File C:\Program Files (x86)\Microsoft Visual Studio\2019\Community\VC\Tools\MSVC\14.27.29110\include\algorithm
; File C:\DS Project\DS Files\Source\ClientSource\Client\eterLib\Pool.h
; File C:\Program Files (x86)\Microsoft Visual Studio\2019\Community\VC\Tools\MSVC\14.27.29110\include\algorithm
; File C:\DS Project\DS Files\Source\ClientSource\Client\eterLib\Pool.h
; File C:\Program Files (x86)\Microsoft Visual Studio\2019\Community\VC\Tools\MSVC\14.27.29110\include\vector
; File C:\Program Files (x86)\Microsoft Visual Studio\2019\Community\VC\Tools\MSVC\14.27.29110\include\xmemory
; File C:\Program Files (x86)\Microsoft Visual Studio\2019\Community\VC\Tools\MSVC\14.27.29110\include\vector
; File C:\Program Files (x86)\Microsoft Visual Studio\2019\Community\VC\Tools\MSVC\14.27.29110\include\xmemory
; File C:\Program Files (x86)\Microsoft Visual Studio\2019\Community\VC\Tools\MSVC\14.27.29110\include\vector
; File C:\Program Files (x86)\Microsoft Visual Studio\2019\Community\VC\Tools\MSVC\14.27.29110\include\xmemory
; File C:\Program Files (x86)\Microsoft Visual Studio\2019\Community\VC\Tools\MSVC\14.27.29110\include\vector
; File C:\Program Files (x86)\Microsoft Visual Studio\2019\Community\VC\Tools\MSVC\14.27.29110\include\xmemory
; File C:\Program Files (x86)\Microsoft Visual Studio\2019\Community\VC\Tools\MSVC\14.27.29110\include\vector
; File C:\DS Project\DS Files\Source\ClientSource\Client\eterLib\Pool.h
;	COMDAT ??1?$CDynamicPoolEx@VCNullDecorator@NEffectUpdateDecorator@@@@UAE@XZ
_TEXT	SEGMENT
??1?$CDynamicPoolEx@VCNullDecorator@NEffectUpdateDecorator@@@@UAE@XZ PROC ; CDynamicPoolEx<NEffectUpdateDecorator::CNullDecorator>::~CDynamicPoolEx<NEffectUpdateDecorator::CNullDecorator>, COMDAT
; _this$ = ecx

; 132  : 		{

  00000	53		 push	 ebx
  00001	56		 push	 esi
  00002	57		 push	 edi
  00003	8b f9		 mov	 edi, ecx
  00005	c7 07 00 00 00
	00		 mov	 DWORD PTR [edi], OFFSET ??_7?$CDynamicPoolEx@VCNullDecorator@NEffectUpdateDecorator@@@@6B@
; File C:\Program Files (x86)\Microsoft Visual Studio\2019\Community\VC\Tools\MSVC\14.27.29110\include\vector

; 42   :     _Vector_const_iterator(_Tptr _Parg, const _Container_base* _Pvector) noexcept : _Ptr(_Parg) {

  0000b	8b 5f 08	 mov	 ebx, DWORD PTR [edi+8]
  0000e	8b 77 04	 mov	 esi, DWORD PTR [edi+4]
; File C:\Program Files (x86)\Microsoft Visual Studio\2019\Community\VC\Tools\MSVC\14.27.29110\include\algorithm

; 235  :     for (; _UFirst != _ULast; ++_UFirst) {

  00011	3b f3		 cmp	 esi, ebx
  00013	74 14		 je	 SHORT $LN19@CDynamicPo
$LL20@CDynamicPo:
; File C:\DS Project\DS Files\Source\ClientSource\Client\eterLib\Pool.h

; 224  : 			::operator delete(pkData);

  00015	ff 36		 push	 DWORD PTR [esi]
  00017	e8 00 00 00 00	 call	 ??3@YAXPAX@Z		; operator delete
; File C:\Program Files (x86)\Microsoft Visual Studio\2019\Community\VC\Tools\MSVC\14.27.29110\include\algorithm

; 235  :     for (; _UFirst != _ULast; ++_UFirst) {

  0001c	83 c6 04	 add	 esi, 4
; File C:\DS Project\DS Files\Source\ClientSource\Client\eterLib\Pool.h

; 224  : 			::operator delete(pkData);

  0001f	83 c4 04	 add	 esp, 4
; File C:\Program Files (x86)\Microsoft Visual Studio\2019\Community\VC\Tools\MSVC\14.27.29110\include\algorithm

; 235  :     for (; _UFirst != _ULast; ++_UFirst) {

  00022	3b f3		 cmp	 esi, ebx
  00024	75 ef		 jne	 SHORT $LL20@CDynamicPo
  00026	8b 77 04	 mov	 esi, DWORD PTR [edi+4]
$LN19@CDynamicPo:
; File C:\DS Project\DS Files\Source\ClientSource\Client\eterLib\Pool.h

; 162  : 			m_kVct_pkFree.clear();

  00029	8b 4f 10	 mov	 ecx, DWORD PTR [edi+16]
  0002c	89 77 08	 mov	 DWORD PTR [edi+8], esi
  0002f	89 4f 14	 mov	 DWORD PTR [edi+20], ecx
; File C:\Program Files (x86)\Microsoft Visual Studio\2019\Community\VC\Tools\MSVC\14.27.29110\include\vector

; 1693 :         if (_Myfirst) { // destroy and deallocate old array

  00032	85 c9		 test	 ecx, ecx
  00034	74 27		 je	 SHORT $LN27@CDynamicPo

; 1694 :             _Destroy(_Myfirst, _Mylast);
; 1695 :             _Getal().deallocate(_Myfirst, static_cast<size_type>(_Myend - _Myfirst));

  00036	8b 47 18	 mov	 eax, DWORD PTR [edi+24]
  00039	2b c1		 sub	 eax, ecx
; File C:\Program Files (x86)\Microsoft Visual Studio\2019\Community\VC\Tools\MSVC\14.27.29110\include\xmemory

; 803  :         _Deallocate<_New_alignof<_Ty>>(_Ptr, sizeof(_Ty) * _Count);

  0003b	83 e0 fc	 and	 eax, -4			; fffffffcH
  0003e	50		 push	 eax
  0003f	51		 push	 ecx
  00040	e8 00 00 00 00	 call	 ??$_Deallocate@$07$0A@@std@@YAXPAXI@Z ; std::_Deallocate<8,0>
; File C:\Program Files (x86)\Microsoft Visual Studio\2019\Community\VC\Tools\MSVC\14.27.29110\include\vector

; 1697 :             _Myfirst = pointer();

  00045	c7 47 10 00 00
	00 00		 mov	 DWORD PTR [edi+16], 0
; File C:\Program Files (x86)\Microsoft Visual Studio\2019\Community\VC\Tools\MSVC\14.27.29110\include\xmemory

; 803  :         _Deallocate<_New_alignof<_Ty>>(_Ptr, sizeof(_Ty) * _Count);

  0004c	83 c4 08	 add	 esp, 8
; File C:\Program Files (x86)\Microsoft Visual Studio\2019\Community\VC\Tools\MSVC\14.27.29110\include\vector

; 1698 :             _Mylast  = pointer();

  0004f	c7 47 14 00 00
	00 00		 mov	 DWORD PTR [edi+20], 0

; 1699 :             _Myend   = pointer();

  00056	c7 47 18 00 00
	00 00		 mov	 DWORD PTR [edi+24], 0
$LN27@CDynamicPo:

; 1693 :         if (_Myfirst) { // destroy and deallocate old array

  0005d	8b 4f 04	 mov	 ecx, DWORD PTR [edi+4]
  00060	85 c9		 test	 ecx, ecx
  00062	74 27		 je	 SHORT $LN34@CDynamicPo

; 1694 :             _Destroy(_Myfirst, _Mylast);
; 1695 :             _Getal().deallocate(_Myfirst, static_cast<size_type>(_Myend - _Myfirst));

  00064	8b 47 0c	 mov	 eax, DWORD PTR [edi+12]
  00067	2b c1		 sub	 eax, ecx
; File C:\Program Files (x86)\Microsoft Visual Studio\2019\Community\VC\Tools\MSVC\14.27.29110\include\xmemory

; 803  :         _Deallocate<_New_alignof<_Ty>>(_Ptr, sizeof(_Ty) * _Count);

  00069	83 e0 fc	 and	 eax, -4			; fffffffcH
  0006c	50		 push	 eax
  0006d	51		 push	 ecx
  0006e	e8 00 00 00 00	 call	 ??$_Deallocate@$07$0A@@std@@YAXPAXI@Z ; std::_Deallocate<8,0>
; File C:\Program Files (x86)\Microsoft Visual Studio\2019\Community\VC\Tools\MSVC\14.27.29110\include\vector

; 1697 :             _Myfirst = pointer();

  00073	c7 47 04 00 00
	00 00		 mov	 DWORD PTR [edi+4], 0
; File C:\Program Files (x86)\Microsoft Visual Studio\2019\Community\VC\Tools\MSVC\14.27.29110\include\xmemory

; 803  :         _Deallocate<_New_alignof<_Ty>>(_Ptr, sizeof(_Ty) * _Count);

  0007a	83 c4 08	 add	 esp, 8
; File C:\Program Files (x86)\Microsoft Visual Studio\2019\Community\VC\Tools\MSVC\14.27.29110\include\vector

; 1698 :             _Mylast  = pointer();

  0007d	c7 47 08 00 00
	00 00		 mov	 DWORD PTR [edi+8], 0

; 1699 :             _Myend   = pointer();

  00084	c7 47 0c 00 00
	00 00		 mov	 DWORD PTR [edi+12], 0
$LN34@CDynamicPo:
  0008b	5f		 pop	 edi
; File C:\DS Project\DS Files\Source\ClientSource\Client\eterLib\Pool.h

; 142  : 		}

  0008c	5e		 pop	 esi
  0008d	5b		 pop	 ebx
  0008e	c3		 ret	 0
??1?$CDynamicPoolEx@VCNullDecorator@NEffectUpdateDecorator@@@@UAE@XZ ENDP ; CDynamicPoolEx<NEffectUpdateDecorator::CNullDecorator>::~CDynamicPoolEx<NEffectUpdateDecorator::CNullDecorator>
_TEXT	ENDS
; Function compile flags: /Ogtp
;	COMDAT ??_G?$CDynamicPoolEx@VCTextureAnimationCWDecorator@NEffectUpdateDecorator@@@@UAEPAXI@Z
_TEXT	SEGMENT
___flags$ = 8						; size = 4
??_G?$CDynamicPoolEx@VCTextureAnimationCWDecorator@NEffectUpdateDecorator@@@@UAEPAXI@Z PROC ; CDynamicPoolEx<NEffectUpdateDecorator::CTextureAnimationCWDecorator>::`scalar deleting destructor', COMDAT
; _this$ = ecx
  00000	55		 push	 ebp
  00001	8b ec		 mov	 ebp, esp
  00003	56		 push	 esi
  00004	8b f1		 mov	 esi, ecx
  00006	e8 00 00 00 00	 call	 ??1?$CDynamicPoolEx@VCTextureAnimationCWDecorator@NEffectUpdateDecorator@@@@UAE@XZ ; CDynamicPoolEx<NEffectUpdateDecorator::CTextureAnimationCWDecorator>::~CDynamicPoolEx<NEffectUpdateDecorator::CTextureAnimationCWDecorator>
  0000b	f6 45 08 01	 test	 BYTE PTR ___flags$[ebp], 1
  0000f	74 0b		 je	 SHORT $LN4@scalar
  00011	6a 24		 push	 36			; 00000024H
  00013	56		 push	 esi
  00014	e8 00 00 00 00	 call	 ??3@YAXPAXI@Z		; operator delete
  00019	83 c4 08	 add	 esp, 8
$LN4@scalar:
  0001c	8b c6		 mov	 eax, esi
  0001e	5e		 pop	 esi
  0001f	5d		 pop	 ebp
  00020	c2 04 00	 ret	 4
??_G?$CDynamicPoolEx@VCTextureAnimationCWDecorator@NEffectUpdateDecorator@@@@UAEPAXI@Z ENDP ; CDynamicPoolEx<NEffectUpdateDecorator::CTextureAnimationCWDecorator>::`scalar deleting destructor'
_TEXT	ENDS
; Function compile flags: /Ogtp
; File C:\DS Project\DS Files\Source\ClientSource\Client\eterLib\Pool.h
;	COMDAT ?Delete@?$CDynamicPoolEx@VCTextureAnimationCWDecorator@NEffectUpdateDecorator@@@@KAXPAVCTextureAnimationCWDecorator@NEffectUpdateDecorator@@@Z
_TEXT	SEGMENT
_pkData$ = 8						; size = 4
?Delete@?$CDynamicPoolEx@VCTextureAnimationCWDecorator@NEffectUpdateDecorator@@@@KAXPAVCTextureAnimationCWDecorator@NEffectUpdateDecorator@@@Z PROC ; CDynamicPoolEx<NEffectUpdateDecorator::CTextureAnimationCWDecorator>::Delete, COMDAT

; 224  : 			::operator delete(pkData);

  00000	e9 00 00 00 00	 jmp	 ??3@YAXPAX@Z		; operator delete
?Delete@?$CDynamicPoolEx@VCTextureAnimationCWDecorator@NEffectUpdateDecorator@@@@KAXPAVCTextureAnimationCWDecorator@NEffectUpdateDecorator@@@Z ENDP ; CDynamicPoolEx<NEffectUpdateDecorator::CTextureAnimationCWDecorator>::Delete
_TEXT	ENDS
; Function compile flags: /Ogtp
; File C:\DS Project\DS Files\Source\ClientSource\Client\eterLib\Pool.h
; File C:\Program Files (x86)\Microsoft Visual Studio\2019\Community\VC\Tools\MSVC\14.27.29110\include\vector
; File C:\Program Files (x86)\Microsoft Visual Studio\2019\Community\VC\Tools\MSVC\14.27.29110\include\algorithm
; File C:\DS Project\DS Files\Source\ClientSource\Client\eterLib\Pool.h
; File C:\Program Files (x86)\Microsoft Visual Studio\2019\Community\VC\Tools\MSVC\14.27.29110\include\algorithm
; File C:\DS Project\DS Files\Source\ClientSource\Client\eterLib\Pool.h
; File C:\Program Files (x86)\Microsoft Visual Studio\2019\Community\VC\Tools\MSVC\14.27.29110\include\algorithm
; File C:\DS Project\DS Files\Source\ClientSource\Client\eterLib\Pool.h
; File C:\Program Files (x86)\Microsoft Visual Studio\2019\Community\VC\Tools\MSVC\14.27.29110\include\vector
; File C:\Program Files (x86)\Microsoft Visual Studio\2019\Community\VC\Tools\MSVC\14.27.29110\include\xmemory
; File C:\Program Files (x86)\Microsoft Visual Studio\2019\Community\VC\Tools\MSVC\14.27.29110\include\vector
; File C:\Program Files (x86)\Microsoft Visual Studio\2019\Community\VC\Tools\MSVC\14.27.29110\include\xmemory
; File C:\Program Files (x86)\Microsoft Visual Studio\2019\Community\VC\Tools\MSVC\14.27.29110\include\vector
; File C:\Program Files (x86)\Microsoft Visual Studio\2019\Community\VC\Tools\MSVC\14.27.29110\include\xmemory
; File C:\Program Files (x86)\Microsoft Visual Studio\2019\Community\VC\Tools\MSVC\14.27.29110\include\vector
; File C:\Program Files (x86)\Microsoft Visual Studio\2019\Community\VC\Tools\MSVC\14.27.29110\include\xmemory
; File C:\Program Files (x86)\Microsoft Visual Studio\2019\Community\VC\Tools\MSVC\14.27.29110\include\vector
; File C:\DS Project\DS Files\Source\ClientSource\Client\eterLib\Pool.h
;	COMDAT ??1?$CDynamicPoolEx@VCTextureAnimationCWDecorator@NEffectUpdateDecorator@@@@UAE@XZ
_TEXT	SEGMENT
??1?$CDynamicPoolEx@VCTextureAnimationCWDecorator@NEffectUpdateDecorator@@@@UAE@XZ PROC ; CDynamicPoolEx<NEffectUpdateDecorator::CTextureAnimationCWDecorator>::~CDynamicPoolEx<NEffectUpdateDecorator::CTextureAnimationCWDecorator>, COMDAT
; _this$ = ecx

; 132  : 		{

  00000	53		 push	 ebx
  00001	56		 push	 esi
  00002	57		 push	 edi
  00003	8b f9		 mov	 edi, ecx
  00005	c7 07 00 00 00
	00		 mov	 DWORD PTR [edi], OFFSET ??_7?$CDynamicPoolEx@VCTextureAnimationCWDecorator@NEffectUpdateDecorator@@@@6B@
; File C:\Program Files (x86)\Microsoft Visual Studio\2019\Community\VC\Tools\MSVC\14.27.29110\include\vector

; 42   :     _Vector_const_iterator(_Tptr _Parg, const _Container_base* _Pvector) noexcept : _Ptr(_Parg) {

  0000b	8b 5f 08	 mov	 ebx, DWORD PTR [edi+8]
  0000e	8b 77 04	 mov	 esi, DWORD PTR [edi+4]
; File C:\Program Files (x86)\Microsoft Visual Studio\2019\Community\VC\Tools\MSVC\14.27.29110\include\algorithm

; 235  :     for (; _UFirst != _ULast; ++_UFirst) {

  00011	3b f3		 cmp	 esi, ebx
  00013	74 14		 je	 SHORT $LN19@CDynamicPo
$LL20@CDynamicPo:
; File C:\DS Project\DS Files\Source\ClientSource\Client\eterLib\Pool.h

; 224  : 			::operator delete(pkData);

  00015	ff 36		 push	 DWORD PTR [esi]
  00017	e8 00 00 00 00	 call	 ??3@YAXPAX@Z		; operator delete
; File C:\Program Files (x86)\Microsoft Visual Studio\2019\Community\VC\Tools\MSVC\14.27.29110\include\algorithm

; 235  :     for (; _UFirst != _ULast; ++_UFirst) {

  0001c	83 c6 04	 add	 esi, 4
; File C:\DS Project\DS Files\Source\ClientSource\Client\eterLib\Pool.h

; 224  : 			::operator delete(pkData);

  0001f	83 c4 04	 add	 esp, 4
; File C:\Program Files (x86)\Microsoft Visual Studio\2019\Community\VC\Tools\MSVC\14.27.29110\include\algorithm

; 235  :     for (; _UFirst != _ULast; ++_UFirst) {

  00022	3b f3		 cmp	 esi, ebx
  00024	75 ef		 jne	 SHORT $LL20@CDynamicPo
  00026	8b 77 04	 mov	 esi, DWORD PTR [edi+4]
$LN19@CDynamicPo:
; File C:\DS Project\DS Files\Source\ClientSource\Client\eterLib\Pool.h

; 162  : 			m_kVct_pkFree.clear();

  00029	8b 4f 10	 mov	 ecx, DWORD PTR [edi+16]
  0002c	89 77 08	 mov	 DWORD PTR [edi+8], esi
  0002f	89 4f 14	 mov	 DWORD PTR [edi+20], ecx
; File C:\Program Files (x86)\Microsoft Visual Studio\2019\Community\VC\Tools\MSVC\14.27.29110\include\vector

; 1693 :         if (_Myfirst) { // destroy and deallocate old array

  00032	85 c9		 test	 ecx, ecx
  00034	74 27		 je	 SHORT $LN27@CDynamicPo

; 1694 :             _Destroy(_Myfirst, _Mylast);
; 1695 :             _Getal().deallocate(_Myfirst, static_cast<size_type>(_Myend - _Myfirst));

  00036	8b 47 18	 mov	 eax, DWORD PTR [edi+24]
  00039	2b c1		 sub	 eax, ecx
; File C:\Program Files (x86)\Microsoft Visual Studio\2019\Community\VC\Tools\MSVC\14.27.29110\include\xmemory

; 803  :         _Deallocate<_New_alignof<_Ty>>(_Ptr, sizeof(_Ty) * _Count);

  0003b	83 e0 fc	 and	 eax, -4			; fffffffcH
  0003e	50		 push	 eax
  0003f	51		 push	 ecx
  00040	e8 00 00 00 00	 call	 ??$_Deallocate@$07$0A@@std@@YAXPAXI@Z ; std::_Deallocate<8,0>
; File C:\Program Files (x86)\Microsoft Visual Studio\2019\Community\VC\Tools\MSVC\14.27.29110\include\vector

; 1697 :             _Myfirst = pointer();

  00045	c7 47 10 00 00
	00 00		 mov	 DWORD PTR [edi+16], 0
; File C:\Program Files (x86)\Microsoft Visual Studio\2019\Community\VC\Tools\MSVC\14.27.29110\include\xmemory

; 803  :         _Deallocate<_New_alignof<_Ty>>(_Ptr, sizeof(_Ty) * _Count);

  0004c	83 c4 08	 add	 esp, 8
; File C:\Program Files (x86)\Microsoft Visual Studio\2019\Community\VC\Tools\MSVC\14.27.29110\include\vector

; 1698 :             _Mylast  = pointer();

  0004f	c7 47 14 00 00
	00 00		 mov	 DWORD PTR [edi+20], 0

; 1699 :             _Myend   = pointer();

  00056	c7 47 18 00 00
	00 00		 mov	 DWORD PTR [edi+24], 0
$LN27@CDynamicPo:

; 1693 :         if (_Myfirst) { // destroy and deallocate old array

  0005d	8b 4f 04	 mov	 ecx, DWORD PTR [edi+4]
  00060	85 c9		 test	 ecx, ecx
  00062	74 27		 je	 SHORT $LN34@CDynamicPo

; 1694 :             _Destroy(_Myfirst, _Mylast);
; 1695 :             _Getal().deallocate(_Myfirst, static_cast<size_type>(_Myend - _Myfirst));

  00064	8b 47 0c	 mov	 eax, DWORD PTR [edi+12]
  00067	2b c1		 sub	 eax, ecx
; File C:\Program Files (x86)\Microsoft Visual Studio\2019\Community\VC\Tools\MSVC\14.27.29110\include\xmemory

; 803  :         _Deallocate<_New_alignof<_Ty>>(_Ptr, sizeof(_Ty) * _Count);

  00069	83 e0 fc	 and	 eax, -4			; fffffffcH
  0006c	50		 push	 eax
  0006d	51		 push	 ecx
  0006e	e8 00 00 00 00	 call	 ??$_Deallocate@$07$0A@@std@@YAXPAXI@Z ; std::_Deallocate<8,0>
; File C:\Program Files (x86)\Microsoft Visual Studio\2019\Community\VC\Tools\MSVC\14.27.29110\include\vector

; 1697 :             _Myfirst = pointer();

  00073	c7 47 04 00 00
	00 00		 mov	 DWORD PTR [edi+4], 0
; File C:\Program Files (x86)\Microsoft Visual Studio\2019\Community\VC\Tools\MSVC\14.27.29110\include\xmemory

; 803  :         _Deallocate<_New_alignof<_Ty>>(_Ptr, sizeof(_Ty) * _Count);

  0007a	83 c4 08	 add	 esp, 8
; File C:\Program Files (x86)\Microsoft Visual Studio\2019\Community\VC\Tools\MSVC\14.27.29110\include\vector

; 1698 :             _Mylast  = pointer();

  0007d	c7 47 08 00 00
	00 00		 mov	 DWORD PTR [edi+8], 0

; 1699 :             _Myend   = pointer();

  00084	c7 47 0c 00 00
	00 00		 mov	 DWORD PTR [edi+12], 0
$LN34@CDynamicPo:
  0008b	5f		 pop	 edi
; File C:\DS Project\DS Files\Source\ClientSource\Client\eterLib\Pool.h

; 142  : 		}

  0008c	5e		 pop	 esi
  0008d	5b		 pop	 ebx
  0008e	c3		 ret	 0
??1?$CDynamicPoolEx@VCTextureAnimationCWDecorator@NEffectUpdateDecorator@@@@UAE@XZ ENDP ; CDynamicPoolEx<NEffectUpdateDecorator::CTextureAnimationCWDecorator>::~CDynamicPoolEx<NEffectUpdateDecorator::CTextureAnimationCWDecorator>
_TEXT	ENDS
; Function compile flags: /Ogtp
;	COMDAT ??_G?$CDynamicPoolEx@VCTextureAnimationCCWDecorator@NEffectUpdateDecorator@@@@UAEPAXI@Z
_TEXT	SEGMENT
___flags$ = 8						; size = 4
??_G?$CDynamicPoolEx@VCTextureAnimationCCWDecorator@NEffectUpdateDecorator@@@@UAEPAXI@Z PROC ; CDynamicPoolEx<NEffectUpdateDecorator::CTextureAnimationCCWDecorator>::`scalar deleting destructor', COMDAT
; _this$ = ecx
  00000	55		 push	 ebp
  00001	8b ec		 mov	 ebp, esp
  00003	56		 push	 esi
  00004	8b f1		 mov	 esi, ecx
  00006	e8 00 00 00 00	 call	 ??1?$CDynamicPoolEx@VCTextureAnimationCCWDecorator@NEffectUpdateDecorator@@@@UAE@XZ ; CDynamicPoolEx<NEffectUpdateDecorator::CTextureAnimationCCWDecorator>::~CDynamicPoolEx<NEffectUpdateDecorator::CTextureAnimationCCWDecorator>
  0000b	f6 45 08 01	 test	 BYTE PTR ___flags$[ebp], 1
  0000f	74 0b		 je	 SHORT $LN4@scalar
  00011	6a 24		 push	 36			; 00000024H
  00013	56		 push	 esi
  00014	e8 00 00 00 00	 call	 ??3@YAXPAXI@Z		; operator delete
  00019	83 c4 08	 add	 esp, 8
$LN4@scalar:
  0001c	8b c6		 mov	 eax, esi
  0001e	5e		 pop	 esi
  0001f	5d		 pop	 ebp
  00020	c2 04 00	 ret	 4
??_G?$CDynamicPoolEx@VCTextureAnimationCCWDecorator@NEffectUpdateDecorator@@@@UAEPAXI@Z ENDP ; CDynamicPoolEx<NEffectUpdateDecorator::CTextureAnimationCCWDecorator>::`scalar deleting destructor'
_TEXT	ENDS
; Function compile flags: /Ogtp
; File C:\DS Project\DS Files\Source\ClientSource\Client\eterLib\Pool.h
;	COMDAT ?Delete@?$CDynamicPoolEx@VCTextureAnimationCCWDecorator@NEffectUpdateDecorator@@@@KAXPAVCTextureAnimationCCWDecorator@NEffectUpdateDecorator@@@Z
_TEXT	SEGMENT
_pkData$ = 8						; size = 4
?Delete@?$CDynamicPoolEx@VCTextureAnimationCCWDecorator@NEffectUpdateDecorator@@@@KAXPAVCTextureAnimationCCWDecorator@NEffectUpdateDecorator@@@Z PROC ; CDynamicPoolEx<NEffectUpdateDecorator::CTextureAnimationCCWDecorator>::Delete, COMDAT

; 224  : 			::operator delete(pkData);

  00000	e9 00 00 00 00	 jmp	 ??3@YAXPAX@Z		; operator delete
?Delete@?$CDynamicPoolEx@VCTextureAnimationCCWDecorator@NEffectUpdateDecorator@@@@KAXPAVCTextureAnimationCCWDecorator@NEffectUpdateDecorator@@@Z ENDP ; CDynamicPoolEx<NEffectUpdateDecorator::CTextureAnimationCCWDecorator>::Delete
_TEXT	ENDS
; Function compile flags: /Ogtp
; File C:\DS Project\DS Files\Source\ClientSource\Client\eterLib\Pool.h
; File C:\Program Files (x86)\Microsoft Visual Studio\2019\Community\VC\Tools\MSVC\14.27.29110\include\vector
; File C:\Program Files (x86)\Microsoft Visual Studio\2019\Community\VC\Tools\MSVC\14.27.29110\include\algorithm
; File C:\DS Project\DS Files\Source\ClientSource\Client\eterLib\Pool.h
; File C:\Program Files (x86)\Microsoft Visual Studio\2019\Community\VC\Tools\MSVC\14.27.29110\include\algorithm
; File C:\DS Project\DS Files\Source\ClientSource\Client\eterLib\Pool.h
; File C:\Program Files (x86)\Microsoft Visual Studio\2019\Community\VC\Tools\MSVC\14.27.29110\include\algorithm
; File C:\DS Project\DS Files\Source\ClientSource\Client\eterLib\Pool.h
; File C:\Program Files (x86)\Microsoft Visual Studio\2019\Community\VC\Tools\MSVC\14.27.29110\include\vector
; File C:\Program Files (x86)\Microsoft Visual Studio\2019\Community\VC\Tools\MSVC\14.27.29110\include\xmemory
; File C:\Program Files (x86)\Microsoft Visual Studio\2019\Community\VC\Tools\MSVC\14.27.29110\include\vector
; File C:\Program Files (x86)\Microsoft Visual Studio\2019\Community\VC\Tools\MSVC\14.27.29110\include\xmemory
; File C:\Program Files (x86)\Microsoft Visual Studio\2019\Community\VC\Tools\MSVC\14.27.29110\include\vector
; File C:\Program Files (x86)\Microsoft Visual Studio\2019\Community\VC\Tools\MSVC\14.27.29110\include\xmemory
; File C:\Program Files (x86)\Microsoft Visual Studio\2019\Community\VC\Tools\MSVC\14.27.29110\include\vector
; File C:\Program Files (x86)\Microsoft Visual Studio\2019\Community\VC\Tools\MSVC\14.27.29110\include\xmemory
; File C:\Program Files (x86)\Microsoft Visual Studio\2019\Community\VC\Tools\MSVC\14.27.29110\include\vector
; File C:\DS Project\DS Files\Source\ClientSource\Client\eterLib\Pool.h
;	COMDAT ??1?$CDynamicPoolEx@VCTextureAnimationCCWDecorator@NEffectUpdateDecorator@@@@UAE@XZ
_TEXT	SEGMENT
??1?$CDynamicPoolEx@VCTextureAnimationCCWDecorator@NEffectUpdateDecorator@@@@UAE@XZ PROC ; CDynamicPoolEx<NEffectUpdateDecorator::CTextureAnimationCCWDecorator>::~CDynamicPoolEx<NEffectUpdateDecorator::CTextureAnimationCCWDecorator>, COMDAT
; _this$ = ecx

; 132  : 		{

  00000	53		 push	 ebx
  00001	56		 push	 esi
  00002	57		 push	 edi
  00003	8b f9		 mov	 edi, ecx
  00005	c7 07 00 00 00
	00		 mov	 DWORD PTR [edi], OFFSET ??_7?$CDynamicPoolEx@VCTextureAnimationCCWDecorator@NEffectUpdateDecorator@@@@6B@
; File C:\Program Files (x86)\Microsoft Visual Studio\2019\Community\VC\Tools\MSVC\14.27.29110\include\vector

; 42   :     _Vector_const_iterator(_Tptr _Parg, const _Container_base* _Pvector) noexcept : _Ptr(_Parg) {

  0000b	8b 5f 08	 mov	 ebx, DWORD PTR [edi+8]
  0000e	8b 77 04	 mov	 esi, DWORD PTR [edi+4]
; File C:\Program Files (x86)\Microsoft Visual Studio\2019\Community\VC\Tools\MSVC\14.27.29110\include\algorithm

; 235  :     for (; _UFirst != _ULast; ++_UFirst) {

  00011	3b f3		 cmp	 esi, ebx
  00013	74 14		 je	 SHORT $LN19@CDynamicPo
$LL20@CDynamicPo:
; File C:\DS Project\DS Files\Source\ClientSource\Client\eterLib\Pool.h

; 224  : 			::operator delete(pkData);

  00015	ff 36		 push	 DWORD PTR [esi]
  00017	e8 00 00 00 00	 call	 ??3@YAXPAX@Z		; operator delete
; File C:\Program Files (x86)\Microsoft Visual Studio\2019\Community\VC\Tools\MSVC\14.27.29110\include\algorithm

; 235  :     for (; _UFirst != _ULast; ++_UFirst) {

  0001c	83 c6 04	 add	 esi, 4
; File C:\DS Project\DS Files\Source\ClientSource\Client\eterLib\Pool.h

; 224  : 			::operator delete(pkData);

  0001f	83 c4 04	 add	 esp, 4
; File C:\Program Files (x86)\Microsoft Visual Studio\2019\Community\VC\Tools\MSVC\14.27.29110\include\algorithm

; 235  :     for (; _UFirst != _ULast; ++_UFirst) {

  00022	3b f3		 cmp	 esi, ebx
  00024	75 ef		 jne	 SHORT $LL20@CDynamicPo
  00026	8b 77 04	 mov	 esi, DWORD PTR [edi+4]
$LN19@CDynamicPo:
; File C:\DS Project\DS Files\Source\ClientSource\Client\eterLib\Pool.h

; 162  : 			m_kVct_pkFree.clear();

  00029	8b 4f 10	 mov	 ecx, DWORD PTR [edi+16]
  0002c	89 77 08	 mov	 DWORD PTR [edi+8], esi
  0002f	89 4f 14	 mov	 DWORD PTR [edi+20], ecx
; File C:\Program Files (x86)\Microsoft Visual Studio\2019\Community\VC\Tools\MSVC\14.27.29110\include\vector

; 1693 :         if (_Myfirst) { // destroy and deallocate old array

  00032	85 c9		 test	 ecx, ecx
  00034	74 27		 je	 SHORT $LN27@CDynamicPo

; 1694 :             _Destroy(_Myfirst, _Mylast);
; 1695 :             _Getal().deallocate(_Myfirst, static_cast<size_type>(_Myend - _Myfirst));

  00036	8b 47 18	 mov	 eax, DWORD PTR [edi+24]
  00039	2b c1		 sub	 eax, ecx
; File C:\Program Files (x86)\Microsoft Visual Studio\2019\Community\VC\Tools\MSVC\14.27.29110\include\xmemory

; 803  :         _Deallocate<_New_alignof<_Ty>>(_Ptr, sizeof(_Ty) * _Count);

  0003b	83 e0 fc	 and	 eax, -4			; fffffffcH
  0003e	50		 push	 eax
  0003f	51		 push	 ecx
  00040	e8 00 00 00 00	 call	 ??$_Deallocate@$07$0A@@std@@YAXPAXI@Z ; std::_Deallocate<8,0>
; File C:\Program Files (x86)\Microsoft Visual Studio\2019\Community\VC\Tools\MSVC\14.27.29110\include\vector

; 1697 :             _Myfirst = pointer();

  00045	c7 47 10 00 00
	00 00		 mov	 DWORD PTR [edi+16], 0
; File C:\Program Files (x86)\Microsoft Visual Studio\2019\Community\VC\Tools\MSVC\14.27.29110\include\xmemory

; 803  :         _Deallocate<_New_alignof<_Ty>>(_Ptr, sizeof(_Ty) * _Count);

  0004c	83 c4 08	 add	 esp, 8
; File C:\Program Files (x86)\Microsoft Visual Studio\2019\Community\VC\Tools\MSVC\14.27.29110\include\vector

; 1698 :             _Mylast  = pointer();

  0004f	c7 47 14 00 00
	00 00		 mov	 DWORD PTR [edi+20], 0

; 1699 :             _Myend   = pointer();

  00056	c7 47 18 00 00
	00 00		 mov	 DWORD PTR [edi+24], 0
$LN27@CDynamicPo:

; 1693 :         if (_Myfirst) { // destroy and deallocate old array

  0005d	8b 4f 04	 mov	 ecx, DWORD PTR [edi+4]
  00060	85 c9		 test	 ecx, ecx
  00062	74 27		 je	 SHORT $LN34@CDynamicPo

; 1694 :             _Destroy(_Myfirst, _Mylast);
; 1695 :             _Getal().deallocate(_Myfirst, static_cast<size_type>(_Myend - _Myfirst));

  00064	8b 47 0c	 mov	 eax, DWORD PTR [edi+12]
  00067	2b c1		 sub	 eax, ecx
; File C:\Program Files (x86)\Microsoft Visual Studio\2019\Community\VC\Tools\MSVC\14.27.29110\include\xmemory

; 803  :         _Deallocate<_New_alignof<_Ty>>(_Ptr, sizeof(_Ty) * _Count);

  00069	83 e0 fc	 and	 eax, -4			; fffffffcH
  0006c	50		 push	 eax
  0006d	51		 push	 ecx
  0006e	e8 00 00 00 00	 call	 ??$_Deallocate@$07$0A@@std@@YAXPAXI@Z ; std::_Deallocate<8,0>
; File C:\Program Files (x86)\Microsoft Visual Studio\2019\Community\VC\Tools\MSVC\14.27.29110\include\vector

; 1697 :             _Myfirst = pointer();

  00073	c7 47 04 00 00
	00 00		 mov	 DWORD PTR [edi+4], 0
; File C:\Program Files (x86)\Microsoft Visual Studio\2019\Community\VC\Tools\MSVC\14.27.29110\include\xmemory

; 803  :         _Deallocate<_New_alignof<_Ty>>(_Ptr, sizeof(_Ty) * _Count);

  0007a	83 c4 08	 add	 esp, 8
; File C:\Program Files (x86)\Microsoft Visual Studio\2019\Community\VC\Tools\MSVC\14.27.29110\include\vector

; 1698 :             _Mylast  = pointer();

  0007d	c7 47 08 00 00
	00 00		 mov	 DWORD PTR [edi+8], 0

; 1699 :             _Myend   = pointer();

  00084	c7 47 0c 00 00
	00 00		 mov	 DWORD PTR [edi+12], 0
$LN34@CDynamicPo:
  0008b	5f		 pop	 edi
; File C:\DS Project\DS Files\Source\ClientSource\Client\eterLib\Pool.h

; 142  : 		}

  0008c	5e		 pop	 esi
  0008d	5b		 pop	 ebx
  0008e	c3		 ret	 0
??1?$CDynamicPoolEx@VCTextureAnimationCCWDecorator@NEffectUpdateDecorator@@@@UAE@XZ ENDP ; CDynamicPoolEx<NEffectUpdateDecorator::CTextureAnimationCCWDecorator>::~CDynamicPoolEx<NEffectUpdateDecorator::CTextureAnimationCCWDecorator>
_TEXT	ENDS
; Function compile flags: /Ogtp
;	COMDAT ??_G?$CDynamicPoolEx@VCTextureAnimationRandomDecorator@NEffectUpdateDecorator@@@@UAEPAXI@Z
_TEXT	SEGMENT
___flags$ = 8						; size = 4
??_G?$CDynamicPoolEx@VCTextureAnimationRandomDecorator@NEffectUpdateDecorator@@@@UAEPAXI@Z PROC ; CDynamicPoolEx<NEffectUpdateDecorator::CTextureAnimationRandomDecorator>::`scalar deleting destructor', COMDAT
; _this$ = ecx
  00000	55		 push	 ebp
  00001	8b ec		 mov	 ebp, esp
  00003	56		 push	 esi
  00004	8b f1		 mov	 esi, ecx
  00006	e8 00 00 00 00	 call	 ??1?$CDynamicPoolEx@VCTextureAnimationRandomDecorator@NEffectUpdateDecorator@@@@UAE@XZ ; CDynamicPoolEx<NEffectUpdateDecorator::CTextureAnimationRandomDecorator>::~CDynamicPoolEx<NEffectUpdateDecorator::CTextureAnimationRandomDecorator>
  0000b	f6 45 08 01	 test	 BYTE PTR ___flags$[ebp], 1
  0000f	74 0b		 je	 SHORT $LN4@scalar
  00011	6a 24		 push	 36			; 00000024H
  00013	56		 push	 esi
  00014	e8 00 00 00 00	 call	 ??3@YAXPAXI@Z		; operator delete
  00019	83 c4 08	 add	 esp, 8
$LN4@scalar:
  0001c	8b c6		 mov	 eax, esi
  0001e	5e		 pop	 esi
  0001f	5d		 pop	 ebp
  00020	c2 04 00	 ret	 4
??_G?$CDynamicPoolEx@VCTextureAnimationRandomDecorator@NEffectUpdateDecorator@@@@UAEPAXI@Z ENDP ; CDynamicPoolEx<NEffectUpdateDecorator::CTextureAnimationRandomDecorator>::`scalar deleting destructor'
_TEXT	ENDS
; Function compile flags: /Ogtp
; File C:\DS Project\DS Files\Source\ClientSource\Client\eterLib\Pool.h
;	COMDAT ?Delete@?$CDynamicPoolEx@VCTextureAnimationRandomDecorator@NEffectUpdateDecorator@@@@KAXPAVCTextureAnimationRandomDecorator@NEffectUpdateDecorator@@@Z
_TEXT	SEGMENT
_pkData$ = 8						; size = 4
?Delete@?$CDynamicPoolEx@VCTextureAnimationRandomDecorator@NEffectUpdateDecorator@@@@KAXPAVCTextureAnimationRandomDecorator@NEffectUpdateDecorator@@@Z PROC ; CDynamicPoolEx<NEffectUpdateDecorator::CTextureAnimationRandomDecorator>::Delete, COMDAT

; 224  : 			::operator delete(pkData);

  00000	e9 00 00 00 00	 jmp	 ??3@YAXPAX@Z		; operator delete
?Delete@?$CDynamicPoolEx@VCTextureAnimationRandomDecorator@NEffectUpdateDecorator@@@@KAXPAVCTextureAnimationRandomDecorator@NEffectUpdateDecorator@@@Z ENDP ; CDynamicPoolEx<NEffectUpdateDecorator::CTextureAnimationRandomDecorator>::Delete
_TEXT	ENDS
; Function compile flags: /Ogtp
; File C:\DS Project\DS Files\Source\ClientSource\Client\eterLib\Pool.h
; File C:\Program Files (x86)\Microsoft Visual Studio\2019\Community\VC\Tools\MSVC\14.27.29110\include\vector
; File C:\Program Files (x86)\Microsoft Visual Studio\2019\Community\VC\Tools\MSVC\14.27.29110\include\algorithm
; File C:\DS Project\DS Files\Source\ClientSource\Client\eterLib\Pool.h
; File C:\Program Files (x86)\Microsoft Visual Studio\2019\Community\VC\Tools\MSVC\14.27.29110\include\algorithm
; File C:\DS Project\DS Files\Source\ClientSource\Client\eterLib\Pool.h
; File C:\Program Files (x86)\Microsoft Visual Studio\2019\Community\VC\Tools\MSVC\14.27.29110\include\algorithm
; File C:\DS Project\DS Files\Source\ClientSource\Client\eterLib\Pool.h
; File C:\Program Files (x86)\Microsoft Visual Studio\2019\Community\VC\Tools\MSVC\14.27.29110\include\vector
; File C:\Program Files (x86)\Microsoft Visual Studio\2019\Community\VC\Tools\MSVC\14.27.29110\include\xmemory
; File C:\Program Files (x86)\Microsoft Visual Studio\2019\Community\VC\Tools\MSVC\14.27.29110\include\vector
; File C:\Program Files (x86)\Microsoft Visual Studio\2019\Community\VC\Tools\MSVC\14.27.29110\include\xmemory
; File C:\Program Files (x86)\Microsoft Visual Studio\2019\Community\VC\Tools\MSVC\14.27.29110\include\vector
; File C:\Program Files (x86)\Microsoft Visual Studio\2019\Community\VC\Tools\MSVC\14.27.29110\include\xmemory
; File C:\Program Files (x86)\Microsoft Visual Studio\2019\Community\VC\Tools\MSVC\14.27.29110\include\vector
; File C:\Program Files (x86)\Microsoft Visual Studio\2019\Community\VC\Tools\MSVC\14.27.29110\include\xmemory
; File C:\Program Files (x86)\Microsoft Visual Studio\2019\Community\VC\Tools\MSVC\14.27.29110\include\vector
; File C:\DS Project\DS Files\Source\ClientSource\Client\eterLib\Pool.h
;	COMDAT ??1?$CDynamicPoolEx@VCTextureAnimationRandomDecorator@NEffectUpdateDecorator@@@@UAE@XZ
_TEXT	SEGMENT
??1?$CDynamicPoolEx@VCTextureAnimationRandomDecorator@NEffectUpdateDecorator@@@@UAE@XZ PROC ; CDynamicPoolEx<NEffectUpdateDecorator::CTextureAnimationRandomDecorator>::~CDynamicPoolEx<NEffectUpdateDecorator::CTextureAnimationRandomDecorator>, COMDAT
; _this$ = ecx

; 132  : 		{

  00000	53		 push	 ebx
  00001	56		 push	 esi
  00002	57		 push	 edi
  00003	8b f9		 mov	 edi, ecx
  00005	c7 07 00 00 00
	00		 mov	 DWORD PTR [edi], OFFSET ??_7?$CDynamicPoolEx@VCTextureAnimationRandomDecorator@NEffectUpdateDecorator@@@@6B@
; File C:\Program Files (x86)\Microsoft Visual Studio\2019\Community\VC\Tools\MSVC\14.27.29110\include\vector

; 42   :     _Vector_const_iterator(_Tptr _Parg, const _Container_base* _Pvector) noexcept : _Ptr(_Parg) {

  0000b	8b 5f 08	 mov	 ebx, DWORD PTR [edi+8]
  0000e	8b 77 04	 mov	 esi, DWORD PTR [edi+4]
; File C:\Program Files (x86)\Microsoft Visual Studio\2019\Community\VC\Tools\MSVC\14.27.29110\include\algorithm

; 235  :     for (; _UFirst != _ULast; ++_UFirst) {

  00011	3b f3		 cmp	 esi, ebx
  00013	74 14		 je	 SHORT $LN19@CDynamicPo
$LL20@CDynamicPo:
; File C:\DS Project\DS Files\Source\ClientSource\Client\eterLib\Pool.h

; 224  : 			::operator delete(pkData);

  00015	ff 36		 push	 DWORD PTR [esi]
  00017	e8 00 00 00 00	 call	 ??3@YAXPAX@Z		; operator delete
; File C:\Program Files (x86)\Microsoft Visual Studio\2019\Community\VC\Tools\MSVC\14.27.29110\include\algorithm

; 235  :     for (; _UFirst != _ULast; ++_UFirst) {

  0001c	83 c6 04	 add	 esi, 4
; File C:\DS Project\DS Files\Source\ClientSource\Client\eterLib\Pool.h

; 224  : 			::operator delete(pkData);

  0001f	83 c4 04	 add	 esp, 4
; File C:\Program Files (x86)\Microsoft Visual Studio\2019\Community\VC\Tools\MSVC\14.27.29110\include\algorithm

; 235  :     for (; _UFirst != _ULast; ++_UFirst) {

  00022	3b f3		 cmp	 esi, ebx
  00024	75 ef		 jne	 SHORT $LL20@CDynamicPo
  00026	8b 77 04	 mov	 esi, DWORD PTR [edi+4]
$LN19@CDynamicPo:
; File C:\DS Project\DS Files\Source\ClientSource\Client\eterLib\Pool.h

; 162  : 			m_kVct_pkFree.clear();

  00029	8b 4f 10	 mov	 ecx, DWORD PTR [edi+16]
  0002c	89 77 08	 mov	 DWORD PTR [edi+8], esi
  0002f	89 4f 14	 mov	 DWORD PTR [edi+20], ecx
; File C:\Program Files (x86)\Microsoft Visual Studio\2019\Community\VC\Tools\MSVC\14.27.29110\include\vector

; 1693 :         if (_Myfirst) { // destroy and deallocate old array

  00032	85 c9		 test	 ecx, ecx
  00034	74 27		 je	 SHORT $LN27@CDynamicPo

; 1694 :             _Destroy(_Myfirst, _Mylast);
; 1695 :             _Getal().deallocate(_Myfirst, static_cast<size_type>(_Myend - _Myfirst));

  00036	8b 47 18	 mov	 eax, DWORD PTR [edi+24]
  00039	2b c1		 sub	 eax, ecx
; File C:\Program Files (x86)\Microsoft Visual Studio\2019\Community\VC\Tools\MSVC\14.27.29110\include\xmemory

; 803  :         _Deallocate<_New_alignof<_Ty>>(_Ptr, sizeof(_Ty) * _Count);

  0003b	83 e0 fc	 and	 eax, -4			; fffffffcH
  0003e	50		 push	 eax
  0003f	51		 push	 ecx
  00040	e8 00 00 00 00	 call	 ??$_Deallocate@$07$0A@@std@@YAXPAXI@Z ; std::_Deallocate<8,0>
; File C:\Program Files (x86)\Microsoft Visual Studio\2019\Community\VC\Tools\MSVC\14.27.29110\include\vector

; 1697 :             _Myfirst = pointer();

  00045	c7 47 10 00 00
	00 00		 mov	 DWORD PTR [edi+16], 0
; File C:\Program Files (x86)\Microsoft Visual Studio\2019\Community\VC\Tools\MSVC\14.27.29110\include\xmemory

; 803  :         _Deallocate<_New_alignof<_Ty>>(_Ptr, sizeof(_Ty) * _Count);

  0004c	83 c4 08	 add	 esp, 8
; File C:\Program Files (x86)\Microsoft Visual Studio\2019\Community\VC\Tools\MSVC\14.27.29110\include\vector

; 1698 :             _Mylast  = pointer();

  0004f	c7 47 14 00 00
	00 00		 mov	 DWORD PTR [edi+20], 0

; 1699 :             _Myend   = pointer();

  00056	c7 47 18 00 00
	00 00		 mov	 DWORD PTR [edi+24], 0
$LN27@CDynamicPo:

; 1693 :         if (_Myfirst) { // destroy and deallocate old array

  0005d	8b 4f 04	 mov	 ecx, DWORD PTR [edi+4]
  00060	85 c9		 test	 ecx, ecx
  00062	74 27		 je	 SHORT $LN34@CDynamicPo

; 1694 :             _Destroy(_Myfirst, _Mylast);
; 1695 :             _Getal().deallocate(_Myfirst, static_cast<size_type>(_Myend - _Myfirst));

  00064	8b 47 0c	 mov	 eax, DWORD PTR [edi+12]
  00067	2b c1		 sub	 eax, ecx
; File C:\Program Files (x86)\Microsoft Visual Studio\2019\Community\VC\Tools\MSVC\14.27.29110\include\xmemory

; 803  :         _Deallocate<_New_alignof<_Ty>>(_Ptr, sizeof(_Ty) * _Count);

  00069	83 e0 fc	 and	 eax, -4			; fffffffcH
  0006c	50		 push	 eax
  0006d	51		 push	 ecx
  0006e	e8 00 00 00 00	 call	 ??$_Deallocate@$07$0A@@std@@YAXPAXI@Z ; std::_Deallocate<8,0>
; File C:\Program Files (x86)\Microsoft Visual Studio\2019\Community\VC\Tools\MSVC\14.27.29110\include\vector

; 1697 :             _Myfirst = pointer();

  00073	c7 47 04 00 00
	00 00		 mov	 DWORD PTR [edi+4], 0
; File C:\Program Files (x86)\Microsoft Visual Studio\2019\Community\VC\Tools\MSVC\14.27.29110\include\xmemory

; 803  :         _Deallocate<_New_alignof<_Ty>>(_Ptr, sizeof(_Ty) * _Count);

  0007a	83 c4 08	 add	 esp, 8
; File C:\Program Files (x86)\Microsoft Visual Studio\2019\Community\VC\Tools\MSVC\14.27.29110\include\vector

; 1698 :             _Mylast  = pointer();

  0007d	c7 47 08 00 00
	00 00		 mov	 DWORD PTR [edi+8], 0

; 1699 :             _Myend   = pointer();

  00084	c7 47 0c 00 00
	00 00		 mov	 DWORD PTR [edi+12], 0
$LN34@CDynamicPo:
  0008b	5f		 pop	 edi
; File C:\DS Project\DS Files\Source\ClientSource\Client\eterLib\Pool.h

; 142  : 		}

  0008c	5e		 pop	 esi
  0008d	5b		 pop	 ebx
  0008e	c3		 ret	 0
??1?$CDynamicPoolEx@VCTextureAnimationRandomDecorator@NEffectUpdateDecorator@@@@UAE@XZ ENDP ; CDynamicPoolEx<NEffectUpdateDecorator::CTextureAnimationRandomDecorator>::~CDynamicPoolEx<NEffectUpdateDecorator::CTextureAnimationRandomDecorator>
_TEXT	ENDS
; Function compile flags: /Ogtp
;	COMDAT ??_G?$CDynamicPoolEx@VCAirResistanceDecorator@NEffectUpdateDecorator@@@@UAEPAXI@Z
_TEXT	SEGMENT
___flags$ = 8						; size = 4
??_G?$CDynamicPoolEx@VCAirResistanceDecorator@NEffectUpdateDecorator@@@@UAEPAXI@Z PROC ; CDynamicPoolEx<NEffectUpdateDecorator::CAirResistanceDecorator>::`scalar deleting destructor', COMDAT
; _this$ = ecx
  00000	55		 push	 ebp
  00001	8b ec		 mov	 ebp, esp
  00003	56		 push	 esi
  00004	8b f1		 mov	 esi, ecx
  00006	e8 00 00 00 00	 call	 ??1?$CDynamicPoolEx@VCAirResistanceDecorator@NEffectUpdateDecorator@@@@UAE@XZ ; CDynamicPoolEx<NEffectUpdateDecorator::CAirResistanceDecorator>::~CDynamicPoolEx<NEffectUpdateDecorator::CAirResistanceDecorator>
  0000b	f6 45 08 01	 test	 BYTE PTR ___flags$[ebp], 1
  0000f	74 0b		 je	 SHORT $LN4@scalar
  00011	6a 24		 push	 36			; 00000024H
  00013	56		 push	 esi
  00014	e8 00 00 00 00	 call	 ??3@YAXPAXI@Z		; operator delete
  00019	83 c4 08	 add	 esp, 8
$LN4@scalar:
  0001c	8b c6		 mov	 eax, esi
  0001e	5e		 pop	 esi
  0001f	5d		 pop	 ebp
  00020	c2 04 00	 ret	 4
??_G?$CDynamicPoolEx@VCAirResistanceDecorator@NEffectUpdateDecorator@@@@UAEPAXI@Z ENDP ; CDynamicPoolEx<NEffectUpdateDecorator::CAirResistanceDecorator>::`scalar deleting destructor'
_TEXT	ENDS
; Function compile flags: /Ogtp
; File C:\DS Project\DS Files\Source\ClientSource\Client\eterLib\Pool.h
;	COMDAT ?Delete@?$CDynamicPoolEx@VCAirResistanceDecorator@NEffectUpdateDecorator@@@@KAXPAVCAirResistanceDecorator@NEffectUpdateDecorator@@@Z
_TEXT	SEGMENT
_pkData$ = 8						; size = 4
?Delete@?$CDynamicPoolEx@VCAirResistanceDecorator@NEffectUpdateDecorator@@@@KAXPAVCAirResistanceDecorator@NEffectUpdateDecorator@@@Z PROC ; CDynamicPoolEx<NEffectUpdateDecorator::CAirResistanceDecorator>::Delete, COMDAT

; 224  : 			::operator delete(pkData);

  00000	e9 00 00 00 00	 jmp	 ??3@YAXPAX@Z		; operator delete
?Delete@?$CDynamicPoolEx@VCAirResistanceDecorator@NEffectUpdateDecorator@@@@KAXPAVCAirResistanceDecorator@NEffectUpdateDecorator@@@Z ENDP ; CDynamicPoolEx<NEffectUpdateDecorator::CAirResistanceDecorator>::Delete
_TEXT	ENDS
; Function compile flags: /Ogtp
; File C:\DS Project\DS Files\Source\ClientSource\Client\eterLib\Pool.h
; File C:\Program Files (x86)\Microsoft Visual Studio\2019\Community\VC\Tools\MSVC\14.27.29110\include\vector
; File C:\Program Files (x86)\Microsoft Visual Studio\2019\Community\VC\Tools\MSVC\14.27.29110\include\algorithm
; File C:\DS Project\DS Files\Source\ClientSource\Client\eterLib\Pool.h
; File C:\Program Files (x86)\Microsoft Visual Studio\2019\Community\VC\Tools\MSVC\14.27.29110\include\algorithm
; File C:\DS Project\DS Files\Source\ClientSource\Client\eterLib\Pool.h
; File C:\Program Files (x86)\Microsoft Visual Studio\2019\Community\VC\Tools\MSVC\14.27.29110\include\algorithm
; File C:\DS Project\DS Files\Source\ClientSource\Client\eterLib\Pool.h
; File C:\Program Files (x86)\Microsoft Visual Studio\2019\Community\VC\Tools\MSVC\14.27.29110\include\vector
; File C:\Program Files (x86)\Microsoft Visual Studio\2019\Community\VC\Tools\MSVC\14.27.29110\include\xmemory
; File C:\Program Files (x86)\Microsoft Visual Studio\2019\Community\VC\Tools\MSVC\14.27.29110\include\vector
; File C:\Program Files (x86)\Microsoft Visual Studio\2019\Community\VC\Tools\MSVC\14.27.29110\include\xmemory
; File C:\Program Files (x86)\Microsoft Visual Studio\2019\Community\VC\Tools\MSVC\14.27.29110\include\vector
; File C:\Program Files (x86)\Microsoft Visual Studio\2019\Community\VC\Tools\MSVC\14.27.29110\include\xmemory
; File C:\Program Files (x86)\Microsoft Visual Studio\2019\Community\VC\Tools\MSVC\14.27.29110\include\vector
; File C:\Program Files (x86)\Microsoft Visual Studio\2019\Community\VC\Tools\MSVC\14.27.29110\include\xmemory
; File C:\Program Files (x86)\Microsoft Visual Studio\2019\Community\VC\Tools\MSVC\14.27.29110\include\vector
; File C:\DS Project\DS Files\Source\ClientSource\Client\eterLib\Pool.h
;	COMDAT ??1?$CDynamicPoolEx@VCAirResistanceDecorator@NEffectUpdateDecorator@@@@UAE@XZ
_TEXT	SEGMENT
??1?$CDynamicPoolEx@VCAirResistanceDecorator@NEffectUpdateDecorator@@@@UAE@XZ PROC ; CDynamicPoolEx<NEffectUpdateDecorator::CAirResistanceDecorator>::~CDynamicPoolEx<NEffectUpdateDecorator::CAirResistanceDecorator>, COMDAT
; _this$ = ecx

; 132  : 		{

  00000	53		 push	 ebx
  00001	56		 push	 esi
  00002	57		 push	 edi
  00003	8b f9		 mov	 edi, ecx
  00005	c7 07 00 00 00
	00		 mov	 DWORD PTR [edi], OFFSET ??_7?$CDynamicPoolEx@VCAirResistanceDecorator@NEffectUpdateDecorator@@@@6B@
; File C:\Program Files (x86)\Microsoft Visual Studio\2019\Community\VC\Tools\MSVC\14.27.29110\include\vector

; 42   :     _Vector_const_iterator(_Tptr _Parg, const _Container_base* _Pvector) noexcept : _Ptr(_Parg) {

  0000b	8b 5f 08	 mov	 ebx, DWORD PTR [edi+8]
  0000e	8b 77 04	 mov	 esi, DWORD PTR [edi+4]
; File C:\Program Files (x86)\Microsoft Visual Studio\2019\Community\VC\Tools\MSVC\14.27.29110\include\algorithm

; 235  :     for (; _UFirst != _ULast; ++_UFirst) {

  00011	3b f3		 cmp	 esi, ebx
  00013	74 14		 je	 SHORT $LN19@CDynamicPo
$LL20@CDynamicPo:
; File C:\DS Project\DS Files\Source\ClientSource\Client\eterLib\Pool.h

; 224  : 			::operator delete(pkData);

  00015	ff 36		 push	 DWORD PTR [esi]
  00017	e8 00 00 00 00	 call	 ??3@YAXPAX@Z		; operator delete
; File C:\Program Files (x86)\Microsoft Visual Studio\2019\Community\VC\Tools\MSVC\14.27.29110\include\algorithm

; 235  :     for (; _UFirst != _ULast; ++_UFirst) {

  0001c	83 c6 04	 add	 esi, 4
; File C:\DS Project\DS Files\Source\ClientSource\Client\eterLib\Pool.h

; 224  : 			::operator delete(pkData);

  0001f	83 c4 04	 add	 esp, 4
; File C:\Program Files (x86)\Microsoft Visual Studio\2019\Community\VC\Tools\MSVC\14.27.29110\include\algorithm

; 235  :     for (; _UFirst != _ULast; ++_UFirst) {

  00022	3b f3		 cmp	 esi, ebx
  00024	75 ef		 jne	 SHORT $LL20@CDynamicPo
  00026	8b 77 04	 mov	 esi, DWORD PTR [edi+4]
$LN19@CDynamicPo:
; File C:\DS Project\DS Files\Source\ClientSource\Client\eterLib\Pool.h

; 162  : 			m_kVct_pkFree.clear();

  00029	8b 4f 10	 mov	 ecx, DWORD PTR [edi+16]
  0002c	89 77 08	 mov	 DWORD PTR [edi+8], esi
  0002f	89 4f 14	 mov	 DWORD PTR [edi+20], ecx
; File C:\Program Files (x86)\Microsoft Visual Studio\2019\Community\VC\Tools\MSVC\14.27.29110\include\vector

; 1693 :         if (_Myfirst) { // destroy and deallocate old array

  00032	85 c9		 test	 ecx, ecx
  00034	74 27		 je	 SHORT $LN27@CDynamicPo

; 1694 :             _Destroy(_Myfirst, _Mylast);
; 1695 :             _Getal().deallocate(_Myfirst, static_cast<size_type>(_Myend - _Myfirst));

  00036	8b 47 18	 mov	 eax, DWORD PTR [edi+24]
  00039	2b c1		 sub	 eax, ecx
; File C:\Program Files (x86)\Microsoft Visual Studio\2019\Community\VC\Tools\MSVC\14.27.29110\include\xmemory

; 803  :         _Deallocate<_New_alignof<_Ty>>(_Ptr, sizeof(_Ty) * _Count);

  0003b	83 e0 fc	 and	 eax, -4			; fffffffcH
  0003e	50		 push	 eax
  0003f	51		 push	 ecx
  00040	e8 00 00 00 00	 call	 ??$_Deallocate@$07$0A@@std@@YAXPAXI@Z ; std::_Deallocate<8,0>
; File C:\Program Files (x86)\Microsoft Visual Studio\2019\Community\VC\Tools\MSVC\14.27.29110\include\vector

; 1697 :             _Myfirst = pointer();

  00045	c7 47 10 00 00
	00 00		 mov	 DWORD PTR [edi+16], 0
; File C:\Program Files (x86)\Microsoft Visual Studio\2019\Community\VC\Tools\MSVC\14.27.29110\include\xmemory

; 803  :         _Deallocate<_New_alignof<_Ty>>(_Ptr, sizeof(_Ty) * _Count);

  0004c	83 c4 08	 add	 esp, 8
; File C:\Program Files (x86)\Microsoft Visual Studio\2019\Community\VC\Tools\MSVC\14.27.29110\include\vector

; 1698 :             _Mylast  = pointer();

  0004f	c7 47 14 00 00
	00 00		 mov	 DWORD PTR [edi+20], 0

; 1699 :             _Myend   = pointer();

  00056	c7 47 18 00 00
	00 00		 mov	 DWORD PTR [edi+24], 0
$LN27@CDynamicPo:

; 1693 :         if (_Myfirst) { // destroy and deallocate old array

  0005d	8b 4f 04	 mov	 ecx, DWORD PTR [edi+4]
  00060	85 c9		 test	 ecx, ecx
  00062	74 27		 je	 SHORT $LN34@CDynamicPo

; 1694 :             _Destroy(_Myfirst, _Mylast);
; 1695 :             _Getal().deallocate(_Myfirst, static_cast<size_type>(_Myend - _Myfirst));

  00064	8b 47 0c	 mov	 eax, DWORD PTR [edi+12]
  00067	2b c1		 sub	 eax, ecx
; File C:\Program Files (x86)\Microsoft Visual Studio\2019\Community\VC\Tools\MSVC\14.27.29110\include\xmemory

; 803  :         _Deallocate<_New_alignof<_Ty>>(_Ptr, sizeof(_Ty) * _Count);

  00069	83 e0 fc	 and	 eax, -4			; fffffffcH
  0006c	50		 push	 eax
  0006d	51		 push	 ecx
  0006e	e8 00 00 00 00	 call	 ??$_Deallocate@$07$0A@@std@@YAXPAXI@Z ; std::_Deallocate<8,0>
; File C:\Program Files (x86)\Microsoft Visual Studio\2019\Community\VC\Tools\MSVC\14.27.29110\include\vector

; 1697 :             _Myfirst = pointer();

  00073	c7 47 04 00 00
	00 00		 mov	 DWORD PTR [edi+4], 0
; File C:\Program Files (x86)\Microsoft Visual Studio\2019\Community\VC\Tools\MSVC\14.27.29110\include\xmemory

; 803  :         _Deallocate<_New_alignof<_Ty>>(_Ptr, sizeof(_Ty) * _Count);

  0007a	83 c4 08	 add	 esp, 8
; File C:\Program Files (x86)\Microsoft Visual Studio\2019\Community\VC\Tools\MSVC\14.27.29110\include\vector

; 1698 :             _Mylast  = pointer();

  0007d	c7 47 08 00 00
	00 00		 mov	 DWORD PTR [edi+8], 0

; 1699 :             _Myend   = pointer();

  00084	c7 47 0c 00 00
	00 00		 mov	 DWORD PTR [edi+12], 0
$LN34@CDynamicPo:
  0008b	5f		 pop	 edi
; File C:\DS Project\DS Files\Source\ClientSource\Client\eterLib\Pool.h

; 142  : 		}

  0008c	5e		 pop	 esi
  0008d	5b		 pop	 ebx
  0008e	c3		 ret	 0
??1?$CDynamicPoolEx@VCAirResistanceDecorator@NEffectUpdateDecorator@@@@UAE@XZ ENDP ; CDynamicPoolEx<NEffectUpdateDecorator::CAirResistanceDecorator>::~CDynamicPoolEx<NEffectUpdateDecorator::CAirResistanceDecorator>
_TEXT	ENDS
; Function compile flags: /Ogtp
;	COMDAT ??_G?$CDynamicPoolEx@VCGravityDecorator@NEffectUpdateDecorator@@@@UAEPAXI@Z
_TEXT	SEGMENT
___flags$ = 8						; size = 4
??_G?$CDynamicPoolEx@VCGravityDecorator@NEffectUpdateDecorator@@@@UAEPAXI@Z PROC ; CDynamicPoolEx<NEffectUpdateDecorator::CGravityDecorator>::`scalar deleting destructor', COMDAT
; _this$ = ecx
  00000	55		 push	 ebp
  00001	8b ec		 mov	 ebp, esp
  00003	56		 push	 esi
  00004	8b f1		 mov	 esi, ecx
  00006	e8 00 00 00 00	 call	 ??1?$CDynamicPoolEx@VCGravityDecorator@NEffectUpdateDecorator@@@@UAE@XZ ; CDynamicPoolEx<NEffectUpdateDecorator::CGravityDecorator>::~CDynamicPoolEx<NEffectUpdateDecorator::CGravityDecorator>
  0000b	f6 45 08 01	 test	 BYTE PTR ___flags$[ebp], 1
  0000f	74 0b		 je	 SHORT $LN4@scalar
  00011	6a 24		 push	 36			; 00000024H
  00013	56		 push	 esi
  00014	e8 00 00 00 00	 call	 ??3@YAXPAXI@Z		; operator delete
  00019	83 c4 08	 add	 esp, 8
$LN4@scalar:
  0001c	8b c6		 mov	 eax, esi
  0001e	5e		 pop	 esi
  0001f	5d		 pop	 ebp
  00020	c2 04 00	 ret	 4
??_G?$CDynamicPoolEx@VCGravityDecorator@NEffectUpdateDecorator@@@@UAEPAXI@Z ENDP ; CDynamicPoolEx<NEffectUpdateDecorator::CGravityDecorator>::`scalar deleting destructor'
_TEXT	ENDS
; Function compile flags: /Ogtp
; File C:\DS Project\DS Files\Source\ClientSource\Client\eterLib\Pool.h
;	COMDAT ?Delete@?$CDynamicPoolEx@VCGravityDecorator@NEffectUpdateDecorator@@@@KAXPAVCGravityDecorator@NEffectUpdateDecorator@@@Z
_TEXT	SEGMENT
_pkData$ = 8						; size = 4
?Delete@?$CDynamicPoolEx@VCGravityDecorator@NEffectUpdateDecorator@@@@KAXPAVCGravityDecorator@NEffectUpdateDecorator@@@Z PROC ; CDynamicPoolEx<NEffectUpdateDecorator::CGravityDecorator>::Delete, COMDAT

; 224  : 			::operator delete(pkData);

  00000	e9 00 00 00 00	 jmp	 ??3@YAXPAX@Z		; operator delete
?Delete@?$CDynamicPoolEx@VCGravityDecorator@NEffectUpdateDecorator@@@@KAXPAVCGravityDecorator@NEffectUpdateDecorator@@@Z ENDP ; CDynamicPoolEx<NEffectUpdateDecorator::CGravityDecorator>::Delete
_TEXT	ENDS
; Function compile flags: /Ogtp
; File C:\DS Project\DS Files\Source\ClientSource\Client\eterLib\Pool.h
; File C:\Program Files (x86)\Microsoft Visual Studio\2019\Community\VC\Tools\MSVC\14.27.29110\include\vector
; File C:\Program Files (x86)\Microsoft Visual Studio\2019\Community\VC\Tools\MSVC\14.27.29110\include\algorithm
; File C:\DS Project\DS Files\Source\ClientSource\Client\eterLib\Pool.h
; File C:\Program Files (x86)\Microsoft Visual Studio\2019\Community\VC\Tools\MSVC\14.27.29110\include\algorithm
; File C:\DS Project\DS Files\Source\ClientSource\Client\eterLib\Pool.h
; File C:\Program Files (x86)\Microsoft Visual Studio\2019\Community\VC\Tools\MSVC\14.27.29110\include\algorithm
; File C:\DS Project\DS Files\Source\ClientSource\Client\eterLib\Pool.h
; File C:\Program Files (x86)\Microsoft Visual Studio\2019\Community\VC\Tools\MSVC\14.27.29110\include\vector
; File C:\Program Files (x86)\Microsoft Visual Studio\2019\Community\VC\Tools\MSVC\14.27.29110\include\xmemory
; File C:\Program Files (x86)\Microsoft Visual Studio\2019\Community\VC\Tools\MSVC\14.27.29110\include\vector
; File C:\Program Files (x86)\Microsoft Visual Studio\2019\Community\VC\Tools\MSVC\14.27.29110\include\xmemory
; File C:\Program Files (x86)\Microsoft Visual Studio\2019\Community\VC\Tools\MSVC\14.27.29110\include\vector
; File C:\Program Files (x86)\Microsoft Visual Studio\2019\Community\VC\Tools\MSVC\14.27.29110\include\xmemory
; File C:\Program Files (x86)\Microsoft Visual Studio\2019\Community\VC\Tools\MSVC\14.27.29110\include\vector
; File C:\Program Files (x86)\Microsoft Visual Studio\2019\Community\VC\Tools\MSVC\14.27.29110\include\xmemory
; File C:\Program Files (x86)\Microsoft Visual Studio\2019\Community\VC\Tools\MSVC\14.27.29110\include\vector
; File C:\DS Project\DS Files\Source\ClientSource\Client\eterLib\Pool.h
;	COMDAT ??1?$CDynamicPoolEx@VCGravityDecorator@NEffectUpdateDecorator@@@@UAE@XZ
_TEXT	SEGMENT
??1?$CDynamicPoolEx@VCGravityDecorator@NEffectUpdateDecorator@@@@UAE@XZ PROC ; CDynamicPoolEx<NEffectUpdateDecorator::CGravityDecorator>::~CDynamicPoolEx<NEffectUpdateDecorator::CGravityDecorator>, COMDAT
; _this$ = ecx

; 132  : 		{

  00000	53		 push	 ebx
  00001	56		 push	 esi
  00002	57		 push	 edi
  00003	8b f9		 mov	 edi, ecx
  00005	c7 07 00 00 00
	00		 mov	 DWORD PTR [edi], OFFSET ??_7?$CDynamicPoolEx@VCGravityDecorator@NEffectUpdateDecorator@@@@6B@
; File C:\Program Files (x86)\Microsoft Visual Studio\2019\Community\VC\Tools\MSVC\14.27.29110\include\vector

; 42   :     _Vector_const_iterator(_Tptr _Parg, const _Container_base* _Pvector) noexcept : _Ptr(_Parg) {

  0000b	8b 5f 08	 mov	 ebx, DWORD PTR [edi+8]
  0000e	8b 77 04	 mov	 esi, DWORD PTR [edi+4]
; File C:\Program Files (x86)\Microsoft Visual Studio\2019\Community\VC\Tools\MSVC\14.27.29110\include\algorithm

; 235  :     for (; _UFirst != _ULast; ++_UFirst) {

  00011	3b f3		 cmp	 esi, ebx
  00013	74 14		 je	 SHORT $LN19@CDynamicPo
$LL20@CDynamicPo:
; File C:\DS Project\DS Files\Source\ClientSource\Client\eterLib\Pool.h

; 224  : 			::operator delete(pkData);

  00015	ff 36		 push	 DWORD PTR [esi]
  00017	e8 00 00 00 00	 call	 ??3@YAXPAX@Z		; operator delete
; File C:\Program Files (x86)\Microsoft Visual Studio\2019\Community\VC\Tools\MSVC\14.27.29110\include\algorithm

; 235  :     for (; _UFirst != _ULast; ++_UFirst) {

  0001c	83 c6 04	 add	 esi, 4
; File C:\DS Project\DS Files\Source\ClientSource\Client\eterLib\Pool.h

; 224  : 			::operator delete(pkData);

  0001f	83 c4 04	 add	 esp, 4
; File C:\Program Files (x86)\Microsoft Visual Studio\2019\Community\VC\Tools\MSVC\14.27.29110\include\algorithm

; 235  :     for (; _UFirst != _ULast; ++_UFirst) {

  00022	3b f3		 cmp	 esi, ebx
  00024	75 ef		 jne	 SHORT $LL20@CDynamicPo
  00026	8b 77 04	 mov	 esi, DWORD PTR [edi+4]
$LN19@CDynamicPo:
; File C:\DS Project\DS Files\Source\ClientSource\Client\eterLib\Pool.h

; 162  : 			m_kVct_pkFree.clear();

  00029	8b 4f 10	 mov	 ecx, DWORD PTR [edi+16]
  0002c	89 77 08	 mov	 DWORD PTR [edi+8], esi
  0002f	89 4f 14	 mov	 DWORD PTR [edi+20], ecx
; File C:\Program Files (x86)\Microsoft Visual Studio\2019\Community\VC\Tools\MSVC\14.27.29110\include\vector

; 1693 :         if (_Myfirst) { // destroy and deallocate old array

  00032	85 c9		 test	 ecx, ecx
  00034	74 27		 je	 SHORT $LN27@CDynamicPo

; 1694 :             _Destroy(_Myfirst, _Mylast);
; 1695 :             _Getal().deallocate(_Myfirst, static_cast<size_type>(_Myend - _Myfirst));

  00036	8b 47 18	 mov	 eax, DWORD PTR [edi+24]
  00039	2b c1		 sub	 eax, ecx
; File C:\Program Files (x86)\Microsoft Visual Studio\2019\Community\VC\Tools\MSVC\14.27.29110\include\xmemory

; 803  :         _Deallocate<_New_alignof<_Ty>>(_Ptr, sizeof(_Ty) * _Count);

  0003b	83 e0 fc	 and	 eax, -4			; fffffffcH
  0003e	50		 push	 eax
  0003f	51		 push	 ecx
  00040	e8 00 00 00 00	 call	 ??$_Deallocate@$07$0A@@std@@YAXPAXI@Z ; std::_Deallocate<8,0>
; File C:\Program Files (x86)\Microsoft Visual Studio\2019\Community\VC\Tools\MSVC\14.27.29110\include\vector

; 1697 :             _Myfirst = pointer();

  00045	c7 47 10 00 00
	00 00		 mov	 DWORD PTR [edi+16], 0
; File C:\Program Files (x86)\Microsoft Visual Studio\2019\Community\VC\Tools\MSVC\14.27.29110\include\xmemory

; 803  :         _Deallocate<_New_alignof<_Ty>>(_Ptr, sizeof(_Ty) * _Count);

  0004c	83 c4 08	 add	 esp, 8
; File C:\Program Files (x86)\Microsoft Visual Studio\2019\Community\VC\Tools\MSVC\14.27.29110\include\vector

; 1698 :             _Mylast  = pointer();

  0004f	c7 47 14 00 00
	00 00		 mov	 DWORD PTR [edi+20], 0

; 1699 :             _Myend   = pointer();

  00056	c7 47 18 00 00
	00 00		 mov	 DWORD PTR [edi+24], 0
$LN27@CDynamicPo:

; 1693 :         if (_Myfirst) { // destroy and deallocate old array

  0005d	8b 4f 04	 mov	 ecx, DWORD PTR [edi+4]
  00060	85 c9		 test	 ecx, ecx
  00062	74 27		 je	 SHORT $LN34@CDynamicPo

; 1694 :             _Destroy(_Myfirst, _Mylast);
; 1695 :             _Getal().deallocate(_Myfirst, static_cast<size_type>(_Myend - _Myfirst));

  00064	8b 47 0c	 mov	 eax, DWORD PTR [edi+12]
  00067	2b c1		 sub	 eax, ecx
; File C:\Program Files (x86)\Microsoft Visual Studio\2019\Community\VC\Tools\MSVC\14.27.29110\include\xmemory

; 803  :         _Deallocate<_New_alignof<_Ty>>(_Ptr, sizeof(_Ty) * _Count);

  00069	83 e0 fc	 and	 eax, -4			; fffffffcH
  0006c	50		 push	 eax
  0006d	51		 push	 ecx
  0006e	e8 00 00 00 00	 call	 ??$_Deallocate@$07$0A@@std@@YAXPAXI@Z ; std::_Deallocate<8,0>
; File C:\Program Files (x86)\Microsoft Visual Studio\2019\Community\VC\Tools\MSVC\14.27.29110\include\vector

; 1697 :             _Myfirst = pointer();

  00073	c7 47 04 00 00
	00 00		 mov	 DWORD PTR [edi+4], 0
; File C:\Program Files (x86)\Microsoft Visual Studio\2019\Community\VC\Tools\MSVC\14.27.29110\include\xmemory

; 803  :         _Deallocate<_New_alignof<_Ty>>(_Ptr, sizeof(_Ty) * _Count);

  0007a	83 c4 08	 add	 esp, 8
; File C:\Program Files (x86)\Microsoft Visual Studio\2019\Community\VC\Tools\MSVC\14.27.29110\include\vector

; 1698 :             _Mylast  = pointer();

  0007d	c7 47 08 00 00
	00 00		 mov	 DWORD PTR [edi+8], 0

; 1699 :             _Myend   = pointer();

  00084	c7 47 0c 00 00
	00 00		 mov	 DWORD PTR [edi+12], 0
$LN34@CDynamicPo:
  0008b	5f		 pop	 edi
; File C:\DS Project\DS Files\Source\ClientSource\Client\eterLib\Pool.h

; 142  : 		}

  0008c	5e		 pop	 esi
  0008d	5b		 pop	 ebx
  0008e	c3		 ret	 0
??1?$CDynamicPoolEx@VCGravityDecorator@NEffectUpdateDecorator@@@@UAE@XZ ENDP ; CDynamicPoolEx<NEffectUpdateDecorator::CGravityDecorator>::~CDynamicPoolEx<NEffectUpdateDecorator::CGravityDecorator>
_TEXT	ENDS
; Function compile flags: /Ogtp
;	COMDAT ??_G?$CDynamicPoolEx@VCRotationDecorator@NEffectUpdateDecorator@@@@UAEPAXI@Z
_TEXT	SEGMENT
___flags$ = 8						; size = 4
??_G?$CDynamicPoolEx@VCRotationDecorator@NEffectUpdateDecorator@@@@UAEPAXI@Z PROC ; CDynamicPoolEx<NEffectUpdateDecorator::CRotationDecorator>::`scalar deleting destructor', COMDAT
; _this$ = ecx
  00000	55		 push	 ebp
  00001	8b ec		 mov	 ebp, esp
  00003	56		 push	 esi
  00004	8b f1		 mov	 esi, ecx
  00006	e8 00 00 00 00	 call	 ??1?$CDynamicPoolEx@VCRotationDecorator@NEffectUpdateDecorator@@@@UAE@XZ ; CDynamicPoolEx<NEffectUpdateDecorator::CRotationDecorator>::~CDynamicPoolEx<NEffectUpdateDecorator::CRotationDecorator>
  0000b	f6 45 08 01	 test	 BYTE PTR ___flags$[ebp], 1
  0000f	74 0b		 je	 SHORT $LN4@scalar
  00011	6a 24		 push	 36			; 00000024H
  00013	56		 push	 esi
  00014	e8 00 00 00 00	 call	 ??3@YAXPAXI@Z		; operator delete
  00019	83 c4 08	 add	 esp, 8
$LN4@scalar:
  0001c	8b c6		 mov	 eax, esi
  0001e	5e		 pop	 esi
  0001f	5d		 pop	 ebp
  00020	c2 04 00	 ret	 4
??_G?$CDynamicPoolEx@VCRotationDecorator@NEffectUpdateDecorator@@@@UAEPAXI@Z ENDP ; CDynamicPoolEx<NEffectUpdateDecorator::CRotationDecorator>::`scalar deleting destructor'
_TEXT	ENDS
; Function compile flags: /Ogtp
; File C:\DS Project\DS Files\Source\ClientSource\Client\eterLib\Pool.h
;	COMDAT ?Delete@?$CDynamicPoolEx@VCRotationDecorator@NEffectUpdateDecorator@@@@KAXPAVCRotationDecorator@NEffectUpdateDecorator@@@Z
_TEXT	SEGMENT
_pkData$ = 8						; size = 4
?Delete@?$CDynamicPoolEx@VCRotationDecorator@NEffectUpdateDecorator@@@@KAXPAVCRotationDecorator@NEffectUpdateDecorator@@@Z PROC ; CDynamicPoolEx<NEffectUpdateDecorator::CRotationDecorator>::Delete, COMDAT

; 224  : 			::operator delete(pkData);

  00000	e9 00 00 00 00	 jmp	 ??3@YAXPAX@Z		; operator delete
?Delete@?$CDynamicPoolEx@VCRotationDecorator@NEffectUpdateDecorator@@@@KAXPAVCRotationDecorator@NEffectUpdateDecorator@@@Z ENDP ; CDynamicPoolEx<NEffectUpdateDecorator::CRotationDecorator>::Delete
_TEXT	ENDS
; Function compile flags: /Ogtp
; File C:\DS Project\DS Files\Source\ClientSource\Client\eterLib\Pool.h
; File C:\Program Files (x86)\Microsoft Visual Studio\2019\Community\VC\Tools\MSVC\14.27.29110\include\vector
; File C:\Program Files (x86)\Microsoft Visual Studio\2019\Community\VC\Tools\MSVC\14.27.29110\include\algorithm
; File C:\DS Project\DS Files\Source\ClientSource\Client\eterLib\Pool.h
; File C:\Program Files (x86)\Microsoft Visual Studio\2019\Community\VC\Tools\MSVC\14.27.29110\include\algorithm
; File C:\DS Project\DS Files\Source\ClientSource\Client\eterLib\Pool.h
; File C:\Program Files (x86)\Microsoft Visual Studio\2019\Community\VC\Tools\MSVC\14.27.29110\include\algorithm
; File C:\DS Project\DS Files\Source\ClientSource\Client\eterLib\Pool.h
; File C:\Program Files (x86)\Microsoft Visual Studio\2019\Community\VC\Tools\MSVC\14.27.29110\include\vector
; File C:\Program Files (x86)\Microsoft Visual Studio\2019\Community\VC\Tools\MSVC\14.27.29110\include\xmemory
; File C:\Program Files (x86)\Microsoft Visual Studio\2019\Community\VC\Tools\MSVC\14.27.29110\include\vector
; File C:\Program Files (x86)\Microsoft Visual Studio\2019\Community\VC\Tools\MSVC\14.27.29110\include\xmemory
; File C:\Program Files (x86)\Microsoft Visual Studio\2019\Community\VC\Tools\MSVC\14.27.29110\include\vector
; File C:\Program Files (x86)\Microsoft Visual Studio\2019\Community\VC\Tools\MSVC\14.27.29110\include\xmemory
; File C:\Program Files (x86)\Microsoft Visual Studio\2019\Community\VC\Tools\MSVC\14.27.29110\include\vector
; File C:\Program Files (x86)\Microsoft Visual Studio\2019\Community\VC\Tools\MSVC\14.27.29110\include\xmemory
; File C:\Program Files (x86)\Microsoft Visual Studio\2019\Community\VC\Tools\MSVC\14.27.29110\include\vector
; File C:\DS Project\DS Files\Source\ClientSource\Client\eterLib\Pool.h
;	COMDAT ??1?$CDynamicPoolEx@VCRotationDecorator@NEffectUpdateDecorator@@@@UAE@XZ
_TEXT	SEGMENT
??1?$CDynamicPoolEx@VCRotationDecorator@NEffectUpdateDecorator@@@@UAE@XZ PROC ; CDynamicPoolEx<NEffectUpdateDecorator::CRotationDecorator>::~CDynamicPoolEx<NEffectUpdateDecorator::CRotationDecorator>, COMDAT
; _this$ = ecx

; 132  : 		{

  00000	53		 push	 ebx
  00001	56		 push	 esi
  00002	57		 push	 edi
  00003	8b f9		 mov	 edi, ecx
  00005	c7 07 00 00 00
	00		 mov	 DWORD PTR [edi], OFFSET ??_7?$CDynamicPoolEx@VCRotationDecorator@NEffectUpdateDecorator@@@@6B@
; File C:\Program Files (x86)\Microsoft Visual Studio\2019\Community\VC\Tools\MSVC\14.27.29110\include\vector

; 42   :     _Vector_const_iterator(_Tptr _Parg, const _Container_base* _Pvector) noexcept : _Ptr(_Parg) {

  0000b	8b 5f 08	 mov	 ebx, DWORD PTR [edi+8]
  0000e	8b 77 04	 mov	 esi, DWORD PTR [edi+4]
; File C:\Program Files (x86)\Microsoft Visual Studio\2019\Community\VC\Tools\MSVC\14.27.29110\include\algorithm

; 235  :     for (; _UFirst != _ULast; ++_UFirst) {

  00011	3b f3		 cmp	 esi, ebx
  00013	74 14		 je	 SHORT $LN19@CDynamicPo
$LL20@CDynamicPo:
; File C:\DS Project\DS Files\Source\ClientSource\Client\eterLib\Pool.h

; 224  : 			::operator delete(pkData);

  00015	ff 36		 push	 DWORD PTR [esi]
  00017	e8 00 00 00 00	 call	 ??3@YAXPAX@Z		; operator delete
; File C:\Program Files (x86)\Microsoft Visual Studio\2019\Community\VC\Tools\MSVC\14.27.29110\include\algorithm

; 235  :     for (; _UFirst != _ULast; ++_UFirst) {

  0001c	83 c6 04	 add	 esi, 4
; File C:\DS Project\DS Files\Source\ClientSource\Client\eterLib\Pool.h

; 224  : 			::operator delete(pkData);

  0001f	83 c4 04	 add	 esp, 4
; File C:\Program Files (x86)\Microsoft Visual Studio\2019\Community\VC\Tools\MSVC\14.27.29110\include\algorithm

; 235  :     for (; _UFirst != _ULast; ++_UFirst) {

  00022	3b f3		 cmp	 esi, ebx
  00024	75 ef		 jne	 SHORT $LL20@CDynamicPo
  00026	8b 77 04	 mov	 esi, DWORD PTR [edi+4]
$LN19@CDynamicPo:
; File C:\DS Project\DS Files\Source\ClientSource\Client\eterLib\Pool.h

; 162  : 			m_kVct_pkFree.clear();

  00029	8b 4f 10	 mov	 ecx, DWORD PTR [edi+16]
  0002c	89 77 08	 mov	 DWORD PTR [edi+8], esi
  0002f	89 4f 14	 mov	 DWORD PTR [edi+20], ecx
; File C:\Program Files (x86)\Microsoft Visual Studio\2019\Community\VC\Tools\MSVC\14.27.29110\include\vector

; 1693 :         if (_Myfirst) { // destroy and deallocate old array

  00032	85 c9		 test	 ecx, ecx
  00034	74 27		 je	 SHORT $LN27@CDynamicPo

; 1694 :             _Destroy(_Myfirst, _Mylast);
; 1695 :             _Getal().deallocate(_Myfirst, static_cast<size_type>(_Myend - _Myfirst));

  00036	8b 47 18	 mov	 eax, DWORD PTR [edi+24]
  00039	2b c1		 sub	 eax, ecx
; File C:\Program Files (x86)\Microsoft Visual Studio\2019\Community\VC\Tools\MSVC\14.27.29110\include\xmemory

; 803  :         _Deallocate<_New_alignof<_Ty>>(_Ptr, sizeof(_Ty) * _Count);

  0003b	83 e0 fc	 and	 eax, -4			; fffffffcH
  0003e	50		 push	 eax
  0003f	51		 push	 ecx
  00040	e8 00 00 00 00	 call	 ??$_Deallocate@$07$0A@@std@@YAXPAXI@Z ; std::_Deallocate<8,0>
; File C:\Program Files (x86)\Microsoft Visual Studio\2019\Community\VC\Tools\MSVC\14.27.29110\include\vector

; 1697 :             _Myfirst = pointer();

  00045	c7 47 10 00 00
	00 00		 mov	 DWORD PTR [edi+16], 0
; File C:\Program Files (x86)\Microsoft Visual Studio\2019\Community\VC\Tools\MSVC\14.27.29110\include\xmemory

; 803  :         _Deallocate<_New_alignof<_Ty>>(_Ptr, sizeof(_Ty) * _Count);

  0004c	83 c4 08	 add	 esp, 8
; File C:\Program Files (x86)\Microsoft Visual Studio\2019\Community\VC\Tools\MSVC\14.27.29110\include\vector

; 1698 :             _Mylast  = pointer();

  0004f	c7 47 14 00 00
	00 00		 mov	 DWORD PTR [edi+20], 0

; 1699 :             _Myend   = pointer();

  00056	c7 47 18 00 00
	00 00		 mov	 DWORD PTR [edi+24], 0
$LN27@CDynamicPo:

; 1693 :         if (_Myfirst) { // destroy and deallocate old array

  0005d	8b 4f 04	 mov	 ecx, DWORD PTR [edi+4]
  00060	85 c9		 test	 ecx, ecx
  00062	74 27		 je	 SHORT $LN34@CDynamicPo

; 1694 :             _Destroy(_Myfirst, _Mylast);
; 1695 :             _Getal().deallocate(_Myfirst, static_cast<size_type>(_Myend - _Myfirst));

  00064	8b 47 0c	 mov	 eax, DWORD PTR [edi+12]
  00067	2b c1		 sub	 eax, ecx
; File C:\Program Files (x86)\Microsoft Visual Studio\2019\Community\VC\Tools\MSVC\14.27.29110\include\xmemory

; 803  :         _Deallocate<_New_alignof<_Ty>>(_Ptr, sizeof(_Ty) * _Count);

  00069	83 e0 fc	 and	 eax, -4			; fffffffcH
  0006c	50		 push	 eax
  0006d	51		 push	 ecx
  0006e	e8 00 00 00 00	 call	 ??$_Deallocate@$07$0A@@std@@YAXPAXI@Z ; std::_Deallocate<8,0>
; File C:\Program Files (x86)\Microsoft Visual Studio\2019\Community\VC\Tools\MSVC\14.27.29110\include\vector

; 1697 :             _Myfirst = pointer();

  00073	c7 47 04 00 00
	00 00		 mov	 DWORD PTR [edi+4], 0
; File C:\Program Files (x86)\Microsoft Visual Studio\2019\Community\VC\Tools\MSVC\14.27.29110\include\xmemory

; 803  :         _Deallocate<_New_alignof<_Ty>>(_Ptr, sizeof(_Ty) * _Count);

  0007a	83 c4 08	 add	 esp, 8
; File C:\Program Files (x86)\Microsoft Visual Studio\2019\Community\VC\Tools\MSVC\14.27.29110\include\vector

; 1698 :             _Mylast  = pointer();

  0007d	c7 47 08 00 00
	00 00		 mov	 DWORD PTR [edi+8], 0

; 1699 :             _Myend   = pointer();

  00084	c7 47 0c 00 00
	00 00		 mov	 DWORD PTR [edi+12], 0
$LN34@CDynamicPo:
  0008b	5f		 pop	 edi
; File C:\DS Project\DS Files\Source\ClientSource\Client\eterLib\Pool.h

; 142  : 		}

  0008c	5e		 pop	 esi
  0008d	5b		 pop	 ebx
  0008e	c3		 ret	 0
??1?$CDynamicPoolEx@VCRotationDecorator@NEffectUpdateDecorator@@@@UAE@XZ ENDP ; CDynamicPoolEx<NEffectUpdateDecorator::CRotationDecorator>::~CDynamicPoolEx<NEffectUpdateDecorator::CRotationDecorator>
_TEXT	ENDS
; Function compile flags: /Ogtp
; File C:\Program Files (x86)\Microsoft Visual Studio\2019\Community\VC\Tools\MSVC\14.27.29110\include\vector
; File C:\Program Files (x86)\Microsoft Visual Studio\2019\Community\VC\Tools\MSVC\14.27.29110\include\xmemory
; File C:\Program Files (x86)\Microsoft Visual Studio\2019\Community\VC\Tools\MSVC\14.27.29110\include\vector
; File C:\Program Files (x86)\Microsoft Visual Studio\2019\Community\VC\Tools\MSVC\14.27.29110\include\xmemory
; File C:\Program Files (x86)\Microsoft Visual Studio\2019\Community\VC\Tools\MSVC\14.27.29110\include\vector
; File C:\Program Files (x86)\Microsoft Visual Studio\2019\Community\VC\Tools\MSVC\14.27.29110\include\xmemory
; File C:\Program Files (x86)\Microsoft Visual Studio\2019\Community\VC\Tools\MSVC\14.27.29110\include\vector
; File C:\Program Files (x86)\Microsoft Visual Studio\2019\Community\VC\Tools\MSVC\14.27.29110\include\xmemory
; File C:\Program Files (x86)\Microsoft Visual Studio\2019\Community\VC\Tools\MSVC\14.27.29110\include\vector
; File C:\Program Files (x86)\Microsoft Visual Studio\2019\Community\VC\Tools\MSVC\14.27.29110\include\xmemory
; File C:\Program Files (x86)\Microsoft Visual Studio\2019\Community\VC\Tools\MSVC\14.27.29110\include\vector
;	COMDAT ??$_Emplace_reallocate@ABUCDynamicSphereInstance@@@?$vector@UCDynamicSphereInstance@@V?$allocator@UCDynamicSphereInstance@@@std@@@std@@QAEPAUCDynamicSphereInstance@@QAU2@ABU2@@Z
_TEXT	SEGMENT
__Newvec$1$ = -8					; size = 4
__Whereoff$1$ = -4					; size = 4
tv289 = -4						; size = 4
__Whereptr$ = 8						; size = 4
_<_Val_0>$ = 12						; size = 4
??$_Emplace_reallocate@ABUCDynamicSphereInstance@@@?$vector@UCDynamicSphereInstance@@V?$allocator@UCDynamicSphereInstance@@@std@@@std@@QAEPAUCDynamicSphereInstance@@QAU2@ABU2@@Z PROC ; std::vector<CDynamicSphereInstance,std::allocator<CDynamicSphereInstance> >::_Emplace_reallocate<CDynamicSphereInstance const &>, COMDAT
; _this$ = ecx

; 725  :     pointer _Emplace_reallocate(const pointer _Whereptr, _Valty&&... _Val) {

  00000	55		 push	 ebp
  00001	8b ec		 mov	 ebp, esp
  00003	83 ec 08	 sub	 esp, 8
  00006	53		 push	 ebx
  00007	56		 push	 esi

; 726  :         // reallocate and insert by perfectly forwarding _Val at _Whereptr
; 727  :         _Alty& _Al        = _Getal();
; 728  :         auto& _My_data    = _Mypair._Myval2;
; 729  :         pointer& _Myfirst = _My_data._Myfirst;
; 730  :         pointer& _Mylast  = _My_data._Mylast;
; 731  : 
; 732  :         _STL_INTERNAL_CHECK(_Mylast == _My_data._Myend); // check that we have no unused capacity
; 733  : 
; 734  :         const auto _Whereoff = static_cast<size_type>(_Whereptr - _Myfirst);

  00008	8b 75 08	 mov	 esi, DWORD PTR __Whereptr$[ebp]
  0000b	b8 93 24 49 92	 mov	 eax, -1840700269	; 92492493H
  00010	57		 push	 edi
  00011	8b f9		 mov	 edi, ecx
  00013	2b 37		 sub	 esi, DWORD PTR [edi]

; 735  :         const auto _Oldsize  = static_cast<size_type>(_Mylast - _Myfirst);

  00015	8b 4f 04	 mov	 ecx, DWORD PTR [edi+4]
  00018	2b 0f		 sub	 ecx, DWORD PTR [edi]
  0001a	f7 ee		 imul	 esi
  0001c	03 d6		 add	 edx, esi
  0001e	c1 fa 04	 sar	 edx, 4
  00021	8b c2		 mov	 eax, edx
  00023	c1 e8 1f	 shr	 eax, 31			; 0000001fH
  00026	03 c2		 add	 eax, edx
  00028	89 45 fc	 mov	 DWORD PTR __Whereoff$1$[ebp], eax
  0002b	b8 93 24 49 92	 mov	 eax, -1840700269	; 92492493H
  00030	f7 e9		 imul	 ecx
  00032	03 d1		 add	 edx, ecx
  00034	c1 fa 04	 sar	 edx, 4
  00037	8b da		 mov	 ebx, edx
  00039	c1 eb 1f	 shr	 ebx, 31			; 0000001fH
  0003c	03 da		 add	 ebx, edx

; 736  : 
; 737  :         if (_Oldsize == max_size()) {

  0003e	81 fb 49 92 24
	09		 cmp	 ebx, 153391689		; 09249249H
  00044	0f 84 cd 00 00
	00		 je	 $LN36@Emplace_re

; 1494 :         return static_cast<size_type>(_My_data._Myend - _My_data._Myfirst);

  0004a	8b 4f 08	 mov	 ecx, DWORD PTR [edi+8]
  0004d	b8 93 24 49 92	 mov	 eax, -1840700269	; 92492493H
  00052	2b 0f		 sub	 ecx, DWORD PTR [edi]

; 739  :         }
; 740  : 
; 741  :         const size_type _Newsize     = _Oldsize + 1;

  00054	43		 inc	 ebx

; 1494 :         return static_cast<size_type>(_My_data._Myend - _My_data._Myfirst);

  00055	f7 e9		 imul	 ecx

; 1619 :         if (_Oldcapacity > max_size() - _Oldcapacity / 2) {

  00057	b8 49 92 24 09	 mov	 eax, 153391689		; 09249249H

; 1494 :         return static_cast<size_type>(_My_data._Myend - _My_data._Myfirst);

  0005c	03 d1		 add	 edx, ecx
  0005e	c1 fa 04	 sar	 edx, 4
  00061	8b ca		 mov	 ecx, edx
  00063	c1 e9 1f	 shr	 ecx, 31			; 0000001fH
  00066	03 ca		 add	 ecx, edx

; 1619 :         if (_Oldcapacity > max_size() - _Oldcapacity / 2) {

  00068	8b d1		 mov	 edx, ecx
  0006a	d1 ea		 shr	 edx, 1
  0006c	2b c2		 sub	 eax, edx
  0006e	3b c8		 cmp	 ecx, eax
  00070	76 04		 jbe	 SHORT $LN12@Emplace_re

; 1620 :             return _Newsize; // geometric growth would overflow

  00072	8b f3		 mov	 esi, ebx
  00074	eb 08		 jmp	 SHORT $LN13@Emplace_re
$LN12@Emplace_re:

; 1621 :         }
; 1622 : 
; 1623 :         const size_type _Geometric = _Oldcapacity + _Oldcapacity / 2;

  00076	8d 34 0a	 lea	 esi, DWORD PTR [edx+ecx]

; 1624 : 
; 1625 :         if (_Geometric < _Newsize) {

  00079	3b f3		 cmp	 esi, ebx
  0007b	0f 42 f3	 cmovb	 esi, ebx
$LN13@Emplace_re:
; File C:\Program Files (x86)\Microsoft Visual Studio\2019\Community\VC\Tools\MSVC\14.27.29110\include\xmemory

; 60   :         if (_Count > _Max_possible) {

  0007e	81 fe 49 92 24
	09		 cmp	 esi, 153391689		; 09249249H
  00084	0f 87 92 00 00
	00		 ja	 $LN37@Emplace_re

; 62   :         }
; 63   :     }
; 64   : 
; 65   :     return _Count * _Ty_size;

  0008a	8d 04 f5 00 00
	00 00		 lea	 eax, DWORD PTR [esi*8]
  00091	2b c6		 sub	 eax, esi
  00093	c1 e0 02	 shl	 eax, 2

; 807  :         return static_cast<_Ty*>(_Allocate<_New_alignof<_Ty>>(_Get_size_of_n<sizeof(_Ty)>(_Count)));

  00096	50		 push	 eax
  00097	e8 00 00 00 00	 call	 ??$_Allocate@$07U_Default_allocate_traits@std@@$0A@@std@@YAPAXI@Z ; std::_Allocate<8,std::_Default_allocate_traits,0>
  0009c	8b d0		 mov	 edx, eax
  0009e	83 c4 04	 add	 esp, 4
; File C:\Program Files (x86)\Microsoft Visual Studio\2019\Community\VC\Tools\MSVC\14.27.29110\include\vector

; 749  :         _Alty_traits::construct(_Al, _Unfancy(_Newvec + _Whereoff), _STD forward<_Valty>(_Val)...);

  000a1	8b 45 fc	 mov	 eax, DWORD PTR __Whereoff$1$[ebp]
; File C:\Program Files (x86)\Microsoft Visual Studio\2019\Community\VC\Tools\MSVC\14.27.29110\include\xmemory

; 807  :         return static_cast<_Ty*>(_Allocate<_New_alignof<_Ty>>(_Get_size_of_n<sizeof(_Ty)>(_Count)));

  000a4	89 55 f8	 mov	 DWORD PTR __Newvec$1$[ebp], edx
; File C:\Program Files (x86)\Microsoft Visual Studio\2019\Community\VC\Tools\MSVC\14.27.29110\include\vector

; 749  :         _Alty_traits::construct(_Al, _Unfancy(_Newvec + _Whereoff), _STD forward<_Valty>(_Val)...);

  000a7	8d 0c c5 00 00
	00 00		 lea	 ecx, DWORD PTR [eax*8]
  000ae	2b c8		 sub	 ecx, eax
; File C:\Program Files (x86)\Microsoft Visual Studio\2019\Community\VC\Tools\MSVC\14.27.29110\include\xmemory

; 694  :         ::new (const_cast<void*>(static_cast<const volatile void*>(_Ptr))) _Objty(_STD forward<_Types>(_Args)...);

  000b0	8b 45 0c	 mov	 eax, DWORD PTR _<_Val_0>$[ebp]
; File C:\Program Files (x86)\Microsoft Visual Studio\2019\Community\VC\Tools\MSVC\14.27.29110\include\vector

; 749  :         _Alty_traits::construct(_Al, _Unfancy(_Newvec + _Whereoff), _STD forward<_Valty>(_Val)...);

  000b3	8d 0c 8a	 lea	 ecx, DWORD PTR [edx+ecx*4]
  000b6	89 4d fc	 mov	 DWORD PTR tv289[ebp], ecx
; File C:\Program Files (x86)\Microsoft Visual Studio\2019\Community\VC\Tools\MSVC\14.27.29110\include\xmemory

; 694  :         ::new (const_cast<void*>(static_cast<const volatile void*>(_Ptr))) _Objty(_STD forward<_Types>(_Args)...);

  000b9	0f 10 00	 movups	 xmm0, XMMWORD PTR [eax]
  000bc	0f 11 01	 movups	 XMMWORD PTR [ecx], xmm0
  000bf	f3 0f 7e 40 10	 movq	 xmm0, QWORD PTR [eax+16]
  000c4	66 0f d6 41 10	 movq	 QWORD PTR [ecx+16], xmm0
  000c9	8b 40 18	 mov	 eax, DWORD PTR [eax+24]
  000cc	89 41 18	 mov	 DWORD PTR [ecx+24], eax
; File C:\Program Files (x86)\Microsoft Visual Studio\2019\Community\VC\Tools\MSVC\14.27.29110\include\vector

; 752  :         if (_Whereptr == _Mylast) { // at back, provide strong guarantee

  000cf	8b 47 04	 mov	 eax, DWORD PTR [edi+4]
  000d2	8b 0f		 mov	 ecx, DWORD PTR [edi]
  000d4	39 45 08	 cmp	 DWORD PTR __Whereptr$[ebp], eax
  000d7	74 1a		 je	 SHORT $LN5@Emplace_re

; 1592 :         return _Uninitialized_move(_First, _Last, _Dest, _Getal());

  000d9	57		 push	 edi
  000da	52		 push	 edx
  000db	ff 75 08	 push	 DWORD PTR __Whereptr$[ebp]
  000de	51		 push	 ecx
  000df	e8 00 00 00 00	 call	 ??$_Uninitialized_move@PAUCDynamicSphereInstance@@V?$allocator@UCDynamicSphereInstance@@@std@@@std@@YAPAUCDynamicSphereInstance@@QAU1@0PAU1@AAV?$allocator@UCDynamicSphereInstance@@@0@@Z ; std::_Uninitialized_move<CDynamicSphereInstance *,std::allocator<CDynamicSphereInstance> >

; 753  :             _Umove_if_noexcept(_Myfirst, _Mylast, _Newvec);
; 754  :         } else { // provide basic guarantee
; 755  :             _Umove(_Myfirst, _Whereptr, _Newvec);
; 756  :             _Constructed_first = _Newvec;
; 757  :             _Umove(_Whereptr, _Mylast, _Newvec + _Whereoff + 1);

  000e4	8b 55 fc	 mov	 edx, DWORD PTR tv289[ebp]

; 1592 :         return _Uninitialized_move(_First, _Last, _Dest, _Getal());

  000e7	83 c4 10	 add	 esp, 16			; 00000010H
  000ea	8b 4d 08	 mov	 ecx, DWORD PTR __Whereptr$[ebp]

; 753  :             _Umove_if_noexcept(_Myfirst, _Mylast, _Newvec);
; 754  :         } else { // provide basic guarantee
; 755  :             _Umove(_Myfirst, _Whereptr, _Newvec);
; 756  :             _Constructed_first = _Newvec;
; 757  :             _Umove(_Whereptr, _Mylast, _Newvec + _Whereoff + 1);

  000ed	83 c2 1c	 add	 edx, 28			; 0000001cH

; 1592 :         return _Uninitialized_move(_First, _Last, _Dest, _Getal());

  000f0	8b 47 04	 mov	 eax, DWORD PTR [edi+4]
$LN5@Emplace_re:

; 753  :             _Umove_if_noexcept(_Myfirst, _Mylast, _Newvec);
; 754  :         } else { // provide basic guarantee
; 755  :             _Umove(_Myfirst, _Whereptr, _Newvec);
; 756  :             _Constructed_first = _Newvec;
; 757  :             _Umove(_Whereptr, _Mylast, _Newvec + _Whereoff + 1);

  000f3	57		 push	 edi
  000f4	52		 push	 edx
  000f5	50		 push	 eax
  000f6	51		 push	 ecx
  000f7	e8 00 00 00 00	 call	 ??$_Uninitialized_move@PAUCDynamicSphereInstance@@V?$allocator@UCDynamicSphereInstance@@@std@@@std@@YAPAUCDynamicSphereInstance@@QAU1@0PAU1@AAV?$allocator@UCDynamicSphereInstance@@@0@@Z ; std::_Uninitialized_move<CDynamicSphereInstance *,std::allocator<CDynamicSphereInstance> >
  000fc	83 c4 10	 add	 esp, 16			; 00000010H

; 758  :         }
; 759  :         _CATCH_ALL
; 760  :         _Destroy(_Constructed_first, _Constructed_last);
; 761  :         _Al.deallocate(_Newvec, _Newcapacity);
; 762  :         _RERAISE;
; 763  :         _CATCH_END
; 764  : 
; 765  :         _Change_array(_Newvec, _Newsize, _Newcapacity);

  000ff	8b cf		 mov	 ecx, edi
  00101	56		 push	 esi
  00102	53		 push	 ebx
  00103	ff 75 f8	 push	 DWORD PTR __Newvec$1$[ebp]
  00106	e8 00 00 00 00	 call	 ?_Change_array@?$vector@UCDynamicSphereInstance@@V?$allocator@UCDynamicSphereInstance@@@std@@@std@@AAEXQAUCDynamicSphereInstance@@II@Z ; std::vector<CDynamicSphereInstance,std::allocator<CDynamicSphereInstance> >::_Change_array

; 766  :         return _Newvec + _Whereoff;

  0010b	8b 45 fc	 mov	 eax, DWORD PTR tv289[ebp]
  0010e	5f		 pop	 edi
  0010f	5e		 pop	 esi
  00110	5b		 pop	 ebx

; 767  :     }

  00111	8b e5		 mov	 esp, ebp
  00113	5d		 pop	 ebp
  00114	c2 08 00	 ret	 8
$LN36@Emplace_re:

; 738  :             _Xlength();

  00117	e8 00 00 00 00	 call	 ?_Xlength@?$vector@UCDynamicSphereInstance@@V?$allocator@UCDynamicSphereInstance@@@std@@@std@@CAXXZ ; std::vector<CDynamicSphereInstance,std::allocator<CDynamicSphereInstance> >::_Xlength
$LN37@Emplace_re:
; File C:\Program Files (x86)\Microsoft Visual Studio\2019\Community\VC\Tools\MSVC\14.27.29110\include\xmemory

; 61   :             _Throw_bad_array_new_length(); // multiply overflow

  0011c	e8 00 00 00 00	 call	 ?_Throw_bad_array_new_length@std@@YAXXZ ; std::_Throw_bad_array_new_length
$LN34@Emplace_re:
  00121	cc		 int	 3
??$_Emplace_reallocate@ABUCDynamicSphereInstance@@@?$vector@UCDynamicSphereInstance@@V?$allocator@UCDynamicSphereInstance@@@std@@@std@@QAEPAUCDynamicSphereInstance@@QAU2@ABU2@@Z ENDP ; std::vector<CDynamicSphereInstance,std::allocator<CDynamicSphereInstance> >::_Emplace_reallocate<CDynamicSphereInstance const &>
_TEXT	ENDS
; Function compile flags: /Ogtp
; File C:\Program Files (x86)\Microsoft Visual Studio\2019\Community\VC\Tools\MSVC\14.27.29110\include\xtree
; File C:\Program Files (x86)\Microsoft Visual Studio\2019\Community\VC\Tools\MSVC\14.27.29110\include\utility
; File C:\Program Files (x86)\Microsoft Visual Studio\2019\Community\VC\Tools\MSVC\14.27.29110\include\xmemory
; File C:\Program Files (x86)\Microsoft Visual Studio\2019\Community\VC\Tools\MSVC\14.27.29110\include\xtree
; File C:\Program Files (x86)\Microsoft Visual Studio\2019\Community\VC\Tools\MSVC\14.27.29110\include\xmemory
; File C:\Program Files (x86)\Microsoft Visual Studio\2019\Community\VC\Tools\MSVC\14.27.29110\include\xtree
;	COMDAT ??$_Erase_head@V?$allocator@U?$_Tree_node@U?$pair@QAVCActorInstance@@M@std@@PAX@std@@@std@@@?$_Tree_val@U?$_Tree_simple_types@U?$pair@QAVCActorInstance@@M@std@@@std@@@std@@QAEXAAV?$allocator@U?$_Tree_node@U?$pair@QAVCActorInstance@@M@std@@PAX@std@@@1@@Z
_TEXT	SEGMENT
__Al$ = 8						; size = 4
??$_Erase_head@V?$allocator@U?$_Tree_node@U?$pair@QAVCActorInstance@@M@std@@PAX@std@@@std@@@?$_Tree_val@U?$_Tree_simple_types@U?$pair@QAVCActorInstance@@M@std@@@std@@@std@@QAEXAAV?$allocator@U?$_Tree_node@U?$pair@QAVCActorInstance@@M@std@@PAX@std@@@1@@Z PROC ; std::_Tree_val<std::_Tree_simple_types<std::pair<CActorInstance * const,float> > >::_Erase_head<std::allocator<std::_Tree_node<std::pair<CActorInstance * const,float>,void *> > >, COMDAT
; _this$ = ecx

; 750  :     void _Erase_head(_Alnode& _Al) noexcept {

  00000	55		 push	 ebp
  00001	8b ec		 mov	 ebp, esp
  00003	56		 push	 esi
  00004	57		 push	 edi
  00005	8b f9		 mov	 edi, ecx

; 751  :         this->_Orphan_all();
; 752  :         _Erase_tree(_Al, _Myhead->_Parent);

  00007	8b 07		 mov	 eax, DWORD PTR [edi]
  00009	8b 70 04	 mov	 esi, DWORD PTR [eax+4]

; 743  :         while (!_Rootnode->_Isnil) { // free subtrees, then node

  0000c	80 7e 0d 00	 cmp	 BYTE PTR [esi+13], 0
  00010	75 27		 jne	 SHORT $LN5@Erase_head
  00012	53		 push	 ebx
  00013	8b 5d 08	 mov	 ebx, DWORD PTR __Al$[ebp]
$LL4@Erase_head:

; 744  :             _Erase_tree(_Al, _Rootnode->_Right);

  00016	ff 76 08	 push	 DWORD PTR [esi+8]
  00019	8b cf		 mov	 ecx, edi
  0001b	53		 push	 ebx
  0001c	e8 00 00 00 00	 call	 ??$_Erase_tree@V?$allocator@U?$_Tree_node@U?$pair@QAVCActorInstance@@M@std@@PAX@std@@@std@@@?$_Tree_val@U?$_Tree_simple_types@U?$pair@QAVCActorInstance@@M@std@@@std@@@std@@QAEXAAV?$allocator@U?$_Tree_node@U?$pair@QAVCActorInstance@@M@std@@PAX@std@@@1@PAU?$_Tree_node@U?$pair@QAVCActorInstance@@M@std@@PAX@1@@Z ; std::_Tree_val<std::_Tree_simple_types<std::pair<CActorInstance * const,float> > >::_Erase_tree<std::allocator<std::_Tree_node<std::pair<CActorInstance * const,float>,void *> > >
; File C:\Program Files (x86)\Microsoft Visual Studio\2019\Community\VC\Tools\MSVC\14.27.29110\include\utility

; 599  :     _Ty _Old_val = static_cast<_Ty&&>(_Val);

  00021	8b c6		 mov	 eax, esi

; 600  :     _Val         = static_cast<_Other&&>(_New_val);

  00023	8b 36		 mov	 esi, DWORD PTR [esi]
; File C:\Program Files (x86)\Microsoft Visual Studio\2019\Community\VC\Tools\MSVC\14.27.29110\include\xmemory

; 689  :         _Deallocate<_New_alignof<value_type>>(_Ptr, sizeof(value_type) * _Count);

  00025	6a 18		 push	 24			; 00000018H
  00027	50		 push	 eax
  00028	e8 00 00 00 00	 call	 ??$_Deallocate@$07$0A@@std@@YAXPAXI@Z ; std::_Deallocate<8,0>
  0002d	83 c4 08	 add	 esp, 8
; File C:\Program Files (x86)\Microsoft Visual Studio\2019\Community\VC\Tools\MSVC\14.27.29110\include\xtree

; 743  :         while (!_Rootnode->_Isnil) { // free subtrees, then node

  00030	80 7e 0d 00	 cmp	 BYTE PTR [esi+13], 0
  00034	74 e0		 je	 SHORT $LL4@Erase_head
  00036	8b 07		 mov	 eax, DWORD PTR [edi]
  00038	5b		 pop	 ebx
$LN5@Erase_head:
; File C:\Program Files (x86)\Microsoft Visual Studio\2019\Community\VC\Tools\MSVC\14.27.29110\include\xmemory

; 689  :         _Deallocate<_New_alignof<value_type>>(_Ptr, sizeof(value_type) * _Count);

  00039	6a 18		 push	 24			; 00000018H
  0003b	50		 push	 eax
  0003c	e8 00 00 00 00	 call	 ??$_Deallocate@$07$0A@@std@@YAXPAXI@Z ; std::_Deallocate<8,0>
  00041	83 c4 08	 add	 esp, 8
  00044	5f		 pop	 edi
  00045	5e		 pop	 esi
; File C:\Program Files (x86)\Microsoft Visual Studio\2019\Community\VC\Tools\MSVC\14.27.29110\include\xtree

; 754  :     }

  00046	5d		 pop	 ebp
  00047	c2 04 00	 ret	 4
??$_Erase_head@V?$allocator@U?$_Tree_node@U?$pair@QAVCActorInstance@@M@std@@PAX@std@@@std@@@?$_Tree_val@U?$_Tree_simple_types@U?$pair@QAVCActorInstance@@M@std@@@std@@@std@@QAEXAAV?$allocator@U?$_Tree_node@U?$pair@QAVCActorInstance@@M@std@@PAX@std@@@1@@Z ENDP ; std::_Tree_val<std::_Tree_simple_types<std::pair<CActorInstance * const,float> > >::_Erase_head<std::allocator<std::_Tree_node<std::pair<CActorInstance * const,float>,void *> > >
_TEXT	ENDS
; Function compile flags: /Ogtp
; File C:\Program Files (x86)\Microsoft Visual Studio\2019\Community\VC\Tools\MSVC\14.27.29110\include\xmemory
;	COMDAT ??$_Const_cast@$$CBUCDynamicSphereInstance@@@std@@YAPAUCDynamicSphereInstance@@PBU1@@Z
_TEXT	SEGMENT
__Ptr$ = 8						; size = 4
??$_Const_cast@$$CBUCDynamicSphereInstance@@@std@@YAPAUCDynamicSphereInstance@@PBU1@@Z PROC ; std::_Const_cast<CDynamicSphereInstance const >, COMDAT

; 282  : auto _Const_cast(_Ty* _Ptr) noexcept {

  00000	55		 push	 ebp
  00001	8b ec		 mov	 ebp, esp

; 283  :     return const_cast<remove_const_t<_Ty>*>(_Ptr);

  00003	8b 45 08	 mov	 eax, DWORD PTR __Ptr$[ebp]

; 284  : }

  00006	5d		 pop	 ebp
  00007	c3		 ret	 0
??$_Const_cast@$$CBUCDynamicSphereInstance@@@std@@YAPAUCDynamicSphereInstance@@PBU1@@Z ENDP ; std::_Const_cast<CDynamicSphereInstance const >
_TEXT	ENDS
; Function compile flags: /Ogtp
; File C:\Program Files (x86)\Microsoft Visual Studio\2019\Community\VC\Tools\MSVC\14.27.29110\include\xtree
;	COMDAT ??1?$pair@PBUSHitData@NRaceData@@V?$map@PAVCActorInstance@@MU?$less@PAVCActorInstance@@@std@@V?$allocator@U?$pair@QAVCActorInstance@@M@std@@@3@@std@@@std@@QAE@XZ
_TEXT	SEGMENT
??1?$pair@PBUSHitData@NRaceData@@V?$map@PAVCActorInstance@@MU?$less@PAVCActorInstance@@@std@@V?$allocator@U?$pair@QAVCActorInstance@@M@std@@@3@@std@@@std@@QAE@XZ PROC ; std::pair<NRaceData::SHitData const *,std::map<CActorInstance *,float,std::less<CActorInstance *>,std::allocator<std::pair<CActorInstance * const,float> > > >::~pair<NRaceData::SHitData const *,std::map<CActorInstance *,float,std::less<CActorInstance *>,std::allocator<std::pair<CActorInstance * const,float> > > >, COMDAT
; _this$ = ecx
  00000	83 c1 04	 add	 ecx, 4

; 1191 :         _Scary->_Erase_head(_Getal());

  00003	51		 push	 ecx
  00004	e8 00 00 00 00	 call	 ??$_Erase_head@V?$allocator@U?$_Tree_node@U?$pair@QAVCActorInstance@@M@std@@PAX@std@@@std@@@?$_Tree_val@U?$_Tree_simple_types@U?$pair@QAVCActorInstance@@M@std@@@std@@@std@@QAEXAAV?$allocator@U?$_Tree_node@U?$pair@QAVCActorInstance@@M@std@@PAX@std@@@1@@Z ; std::_Tree_val<std::_Tree_simple_types<std::pair<CActorInstance * const,float> > >::_Erase_head<std::allocator<std::_Tree_node<std::pair<CActorInstance * const,float>,void *> > >
  00009	c3		 ret	 0
??1?$pair@PBUSHitData@NRaceData@@V?$map@PAVCActorInstance@@MU?$less@PAVCActorInstance@@@std@@V?$allocator@U?$pair@QAVCActorInstance@@M@std@@@3@@std@@@std@@QAE@XZ ENDP ; std::pair<NRaceData::SHitData const *,std::map<CActorInstance *,float,std::less<CActorInstance *>,std::allocator<std::pair<CActorInstance * const,float> > > >::~pair<NRaceData::SHitData const *,std::map<CActorInstance *,float,std::less<CActorInstance *>,std::allocator<std::pair<CActorInstance * const,float> > > >
_TEXT	ENDS
; Function compile flags: /Ogtp
; File C:\Program Files (x86)\Microsoft Visual Studio\2019\Community\VC\Tools\MSVC\14.27.29110\include\map
; File C:\Program Files (x86)\Microsoft Visual Studio\2019\Community\VC\Tools\MSVC\14.27.29110\include\xtree
; File C:\Program Files (x86)\Microsoft Visual Studio\2019\Community\VC\Tools\MSVC\14.27.29110\include\xstddef
; File C:\Program Files (x86)\Microsoft Visual Studio\2019\Community\VC\Tools\MSVC\14.27.29110\include\xtree
; File C:\Program Files (x86)\Microsoft Visual Studio\2019\Community\VC\Tools\MSVC\14.27.29110\include\utility
; File C:\Program Files (x86)\Microsoft Visual Studio\2019\Community\VC\Tools\MSVC\14.27.29110\include\xtree
; File C:\Program Files (x86)\Microsoft Visual Studio\2019\Community\VC\Tools\MSVC\14.27.29110\include\xmemory
; File C:\Program Files (x86)\Microsoft Visual Studio\2019\Community\VC\Tools\MSVC\14.27.29110\include\xtree
; File C:\Program Files (x86)\Microsoft Visual Studio\2019\Community\VC\Tools\MSVC\14.27.29110\include\xmemory
; File C:\Program Files (x86)\Microsoft Visual Studio\2019\Community\VC\Tools\MSVC\14.27.29110\include\utility
; File C:\Program Files (x86)\Microsoft Visual Studio\2019\Community\VC\Tools\MSVC\14.27.29110\include\xmemory
; File C:\Program Files (x86)\Microsoft Visual Studio\2019\Community\VC\Tools\MSVC\14.27.29110\include\xtree
; File C:\Program Files (x86)\Microsoft Visual Studio\2019\Community\VC\Tools\MSVC\14.27.29110\include\utility
; File C:\Program Files (x86)\Microsoft Visual Studio\2019\Community\VC\Tools\MSVC\14.27.29110\include\xtree
; File C:\Program Files (x86)\Microsoft Visual Studio\2019\Community\VC\Tools\MSVC\14.27.29110\include\utility
; File C:\Program Files (x86)\Microsoft Visual Studio\2019\Community\VC\Tools\MSVC\14.27.29110\include\map
; File C:\Program Files (x86)\Microsoft Visual Studio\2019\Community\VC\Tools\MSVC\14.27.29110\include\xtree
; File C:\Program Files (x86)\Microsoft Visual Studio\2019\Community\VC\Tools\MSVC\14.27.29110\include\map
;	COMDAT ??$insert@U?$pair@PAVCActorInstance@@M@std@@$0A@@?$map@PAVCActorInstance@@MU?$less@PAVCActorInstance@@@std@@V?$allocator@U?$pair@QAVCActorInstance@@M@std@@@3@@std@@QAE?AU?$pair@V?$_Tree_iterator@V?$_Tree_val@U?$_Tree_simple_types@U?$pair@QAVCActorInstance@@M@std@@@std@@@std@@@std@@_N@1@$$QAU?$pair@PAVCActorInstance@@M@1@@Z
_TEXT	SEGMENT
__Loc$3 = -36						; size = 12
$T4 = -24						; size = 12
$T5 = -20						; size = 8
__$EHRec$ = -12						; size = 12
___$ReturnUdt$ = 8					; size = 4
__Myhead$6 = 12						; size = 4
__Val$ = 12						; size = 4
??$insert@U?$pair@PAVCActorInstance@@M@std@@$0A@@?$map@PAVCActorInstance@@MU?$less@PAVCActorInstance@@@std@@V?$allocator@U?$pair@QAVCActorInstance@@M@std@@@3@@std@@QAE?AU?$pair@V?$_Tree_iterator@V?$_Tree_val@U?$_Tree_simple_types@U?$pair@QAVCActorInstance@@M@std@@@std@@@std@@@std@@_N@1@$$QAU?$pair@PAVCActorInstance@@M@1@@Z PROC ; std::map<CActorInstance *,float,std::less<CActorInstance *>,std::allocator<std::pair<CActorInstance * const,float> > >::insert<std::pair<CActorInstance *,float>,0>, COMDAT
; _this$ = ecx

; 164  :     pair<iterator, bool> insert(_Valty&& _Val) {

  00000	55		 push	 ebp
  00001	8b ec		 mov	 ebp, esp
  00003	6a ff		 push	 -1
  00005	68 00 00 00 00	 push	 __ehhandler$??$insert@U?$pair@PAVCActorInstance@@M@std@@$0A@@?$map@PAVCActorInstance@@MU?$less@PAVCActorInstance@@@std@@V?$allocator@U?$pair@QAVCActorInstance@@M@std@@@3@@std@@QAE?AU?$pair@V?$_Tree_iterator@V?$_Tree_val@U?$_Tree_simple_types@U?$pair@QAVCActorInstance@@M@std@@@std@@@std@@@std@@_N@1@$$QAU?$pair@PAVCActorInstance@@M@1@@Z
  0000a	64 a1 00 00 00
	00		 mov	 eax, DWORD PTR fs:0
  00010	50		 push	 eax
  00011	83 ec 18	 sub	 esp, 24			; 00000018H
  00014	53		 push	 ebx
  00015	56		 push	 esi
  00016	57		 push	 edi
  00017	a1 00 00 00 00	 mov	 eax, DWORD PTR ___security_cookie
  0001c	33 c5		 xor	 eax, ebp
  0001e	50		 push	 eax
  0001f	8d 45 f4	 lea	 eax, DWORD PTR __$EHRec$[ebp]
  00022	64 a3 00 00 00
	00		 mov	 DWORD PTR fs:0, eax
  00028	8b f9		 mov	 edi, ecx
; File C:\Program Files (x86)\Microsoft Visual Studio\2019\Community\VC\Tools\MSVC\14.27.29110\include\xtree

; 1009 :             _Loc                = _Find_lower_bound(_Keyval);

  0002a	8b 5d 0c	 mov	 ebx, DWORD PTR __Val$[ebp]
  0002d	8d 45 e8	 lea	 eax, DWORD PTR $T4[ebp]
  00030	53		 push	 ebx
  00031	50		 push	 eax
  00032	e8 00 00 00 00	 call	 ??$_Find_lower_bound@PAVCActorInstance@@@?$_Tree@V?$_Tmap_traits@PAVCActorInstance@@MU?$less@PAVCActorInstance@@@std@@V?$allocator@U?$pair@QAVCActorInstance@@M@std@@@3@$0A@@std@@@std@@IBE?AU?$_Tree_find_result@PAU?$_Tree_node@U?$pair@QAVCActorInstance@@M@std@@PAX@std@@@1@ABQAVCActorInstance@@@Z ; std::_Tree<std::_Tmap_traits<CActorInstance *,float,std::less<CActorInstance *>,std::allocator<std::pair<CActorInstance * const,float> >,0> >::_Find_lower_bound<CActorInstance *>
  00037	8b 48 08	 mov	 ecx, DWORD PTR [eax+8]
  0003a	f3 0f 7e 00	 movq	 xmm0, QWORD PTR [eax]
  0003e	66 0f d6 45 dc	 movq	 QWORD PTR __Loc$3[ebp], xmm0

; 1695 :         return !_Bound->_Isnil && !_DEBUG_LT_PRED(_Getcomp(), _Keyval, _Traits::_Kfn(_Bound->_Myval));

  00043	80 79 0d 00	 cmp	 BYTE PTR [ecx+13], 0
  00047	75 0b		 jne	 SHORT $LN6@insert
; File C:\Program Files (x86)\Microsoft Visual Studio\2019\Community\VC\Tools\MSVC\14.27.29110\include\xstddef

; 127  :         return _Left < _Right;

  00049	8b 03		 mov	 eax, DWORD PTR [ebx]
  0004b	3b 41 10	 cmp	 eax, DWORD PTR [ecx+16]
; File C:\Program Files (x86)\Microsoft Visual Studio\2019\Community\VC\Tools\MSVC\14.27.29110\include\xtree

; 1695 :         return !_Bound->_Isnil && !_DEBUG_LT_PRED(_Getcomp(), _Keyval, _Traits::_Kfn(_Bound->_Myval));

  0004e	72 04		 jb	 SHORT $LN6@insert
; File C:\Program Files (x86)\Microsoft Visual Studio\2019\Community\VC\Tools\MSVC\14.27.29110\include\utility

; 192  :         : first(_STD forward<_Other1>(_Val1)), second(_STD forward<_Other2>(_Val2)) {}

  00050	32 d2		 xor	 dl, dl
; File C:\Program Files (x86)\Microsoft Visual Studio\2019\Community\VC\Tools\MSVC\14.27.29110\include\xtree

; 1011 :                 return {_Loc._Bound, false};

  00052	eb 76		 jmp	 SHORT $LN61@insert
$LN6@insert:

; 1719 :         if (max_size() == _Get_scary()->_Mysize) {

  00054	81 7f 04 aa aa
	aa 0a		 cmp	 DWORD PTR [edi+4], 178956970 ; 0aaaaaaaH
  0005b	0f 84 85 00 00
	00		 je	 $LN78@insert

; 1015 :             _Inserted = _Tree_temp_node<_Alnode>(_Getal(), _Scary->_Myhead, _STD forward<_Valtys>(_Vals)...)._Release();

  00061	8b 07		 mov	 eax, DWORD PTR [edi]
  00063	89 45 0c	 mov	 DWORD PTR __Myhead$6[ebp], eax
; File C:\Program Files (x86)\Microsoft Visual Studio\2019\Community\VC\Tools\MSVC\14.27.29110\include\xmemory

; 1040 :     explicit _Alloc_construct_ptr(_Alloc& _Al_) : _Al(_Al_), _Ptr(nullptr) {}

  00066	89 7d ec	 mov	 DWORD PTR $T5[ebp], edi

; 807  :         return static_cast<_Ty*>(_Allocate<_New_alignof<_Ty>>(_Get_size_of_n<sizeof(_Ty)>(_Count)));

  00069	6a 18		 push	 24			; 00000018H
; File C:\Program Files (x86)\Microsoft Visual Studio\2019\Community\VC\Tools\MSVC\14.27.29110\include\xtree

; 784  :     explicit _Tree_temp_node_alloc(_Alnode& _Al_) : _Alloc_construct_ptr<_Alnode>(_Al_) {

  0006b	c7 45 fc 00 00
	00 00		 mov	 DWORD PTR __$EHRec$[ebp+8], 0
; File C:\Program Files (x86)\Microsoft Visual Studio\2019\Community\VC\Tools\MSVC\14.27.29110\include\xmemory

; 1047 :         _Ptr = nullptr; // if allocate throws, prevents double-free

  00072	c7 45 f0 00 00
	00 00		 mov	 DWORD PTR $T5[ebp+4], 0

; 807  :         return static_cast<_Ty*>(_Allocate<_New_alignof<_Ty>>(_Get_size_of_n<sizeof(_Ty)>(_Count)));

  00079	e8 00 00 00 00	 call	 ??$_Allocate@$07U_Default_allocate_traits@std@@$0A@@std@@YAPAXI@Z ; std::_Allocate<8,std::_Default_allocate_traits,0>
; File C:\Program Files (x86)\Microsoft Visual Studio\2019\Community\VC\Tools\MSVC\14.27.29110\include\utility

; 248  :         : first(_STD forward<_Other1>(_Right.first)), second(_STD forward<_Other2>(_Right.second)) {}

  0007e	8b 0b		 mov	 ecx, DWORD PTR [ebx]
; File C:\Program Files (x86)\Microsoft Visual Studio\2019\Community\VC\Tools\MSVC\14.27.29110\include\xmemory

; 1048 :         _Ptr = _Al.allocate(1);

  00080	8b f0		 mov	 esi, eax
; File C:\Program Files (x86)\Microsoft Visual Studio\2019\Community\VC\Tools\MSVC\14.27.29110\include\xtree

; 807  :         _Construct_in_place(this->_Ptr->_Left, _Myhead);

  00082	8d 45 0c	 lea	 eax, DWORD PTR __Myhead$6[ebp]
  00085	50		 push	 eax
  00086	56		 push	 esi
; File C:\Program Files (x86)\Microsoft Visual Studio\2019\Community\VC\Tools\MSVC\14.27.29110\include\utility

; 248  :         : first(_STD forward<_Other1>(_Right.first)), second(_STD forward<_Other2>(_Right.second)) {}

  00087	89 4e 10	 mov	 DWORD PTR [esi+16], ecx
  0008a	8b 4b 04	 mov	 ecx, DWORD PTR [ebx+4]
  0008d	89 4e 14	 mov	 DWORD PTR [esi+20], ecx
; File C:\Program Files (x86)\Microsoft Visual Studio\2019\Community\VC\Tools\MSVC\14.27.29110\include\xtree

; 807  :         _Construct_in_place(this->_Ptr->_Left, _Myhead);

  00090	e8 00 00 00 00	 call	 ??$_Construct_in_place@PAU?$_Tree_node@U?$pair@QAVCActorInstance@@M@std@@PAX@std@@AAPAU12@@std@@YAXAAPAU?$_Tree_node@U?$pair@QAVCActorInstance@@M@std@@PAX@0@0@Z ; std::_Construct_in_place<std::_Tree_node<std::pair<CActorInstance * const,float>,void *> *,std::_Tree_node<std::pair<CActorInstance * const,float>,void *> * &>

; 808  :         _Construct_in_place(this->_Ptr->_Parent, _Myhead);

  00095	8d 45 0c	 lea	 eax, DWORD PTR __Myhead$6[ebp]
  00098	50		 push	 eax
  00099	8d 46 04	 lea	 eax, DWORD PTR [esi+4]
  0009c	50		 push	 eax
  0009d	e8 00 00 00 00	 call	 ??$_Construct_in_place@PAU?$_Tree_node@U?$pair@QAVCActorInstance@@M@std@@PAX@std@@AAPAU12@@std@@YAXAAPAU?$_Tree_node@U?$pair@QAVCActorInstance@@M@std@@PAX@0@0@Z ; std::_Construct_in_place<std::_Tree_node<std::pair<CActorInstance * const,float>,void *> *,std::_Tree_node<std::pair<CActorInstance * const,float>,void *> * &>

; 809  :         _Construct_in_place(this->_Ptr->_Right, _Myhead);

  000a2	8d 45 0c	 lea	 eax, DWORD PTR __Myhead$6[ebp]
  000a5	50		 push	 eax
  000a6	8d 46 08	 lea	 eax, DWORD PTR [esi+8]
  000a9	50		 push	 eax
  000aa	e8 00 00 00 00	 call	 ??$_Construct_in_place@PAU?$_Tree_node@U?$pair@QAVCActorInstance@@M@std@@PAX@std@@AAPAU12@@std@@YAXAAPAU?$_Tree_node@U?$pair@QAVCActorInstance@@M@std@@PAX@0@0@Z ; std::_Construct_in_place<std::_Tree_node<std::pair<CActorInstance * const,float>,void *> *,std::_Tree_node<std::pair<CActorInstance * const,float>,void *> * &>
  000af	83 c4 1c	 add	 esp, 28			; 0000001cH

; 810  :         this->_Ptr->_Color = _Red;

  000b2	66 c7 46 0c 00
	00		 mov	 WORD PTR [esi+12], 0

; 1034 :         return {_Scary->_Insert_node(_Loc._Location, _Inserted), true};

  000b8	8b cf		 mov	 ecx, edi
  000ba	56		 push	 esi
  000bb	ff 75 e0	 push	 DWORD PTR __Loc$3[ebp+4]
  000be	ff 75 dc	 push	 DWORD PTR __Loc$3[ebp]
  000c1	e8 00 00 00 00	 call	 ?_Insert_node@?$_Tree_val@U?$_Tree_simple_types@U?$pair@QAVCActorInstance@@M@std@@@std@@@std@@QAEPAU?$_Tree_node@U?$pair@QAVCActorInstance@@M@std@@PAX@2@U?$_Tree_id@PAU?$_Tree_node@U?$pair@QAVCActorInstance@@M@std@@PAX@std@@@2@QAU32@@Z ; std::_Tree_val<std::_Tree_simple_types<std::pair<CActorInstance * const,float> > >::_Insert_node
; File C:\Program Files (x86)\Microsoft Visual Studio\2019\Community\VC\Tools\MSVC\14.27.29110\include\utility

; 192  :         : first(_STD forward<_Other1>(_Val1)), second(_STD forward<_Other2>(_Val2)) {}

  000c6	8b c8		 mov	 ecx, eax
  000c8	b2 01		 mov	 dl, 1
$LN61@insert:
  000ca	8b 45 08	 mov	 eax, DWORD PTR ___$ReturnUdt$[ebp]
  000cd	89 08		 mov	 DWORD PTR [eax], ecx
  000cf	88 50 04	 mov	 BYTE PTR [eax+4], dl
; File C:\Program Files (x86)\Microsoft Visual Studio\2019\Community\VC\Tools\MSVC\14.27.29110\include\map

; 166  :     }

  000d2	8b 4d f4	 mov	 ecx, DWORD PTR __$EHRec$[ebp]
  000d5	64 89 0d 00 00
	00 00		 mov	 DWORD PTR fs:0, ecx
  000dc	59		 pop	 ecx
  000dd	5f		 pop	 edi
  000de	5e		 pop	 esi
  000df	5b		 pop	 ebx
  000e0	8b e5		 mov	 esp, ebp
  000e2	5d		 pop	 ebp
  000e3	c2 08 00	 ret	 8
$LN78@insert:
; File C:\Program Files (x86)\Microsoft Visual Studio\2019\Community\VC\Tools\MSVC\14.27.29110\include\xtree

; 1720 :             _Throw_tree_length_error();

  000e6	e8 00 00 00 00	 call	 ?_Throw_tree_length_error@std@@YAXXZ ; std::_Throw_tree_length_error
$LN76@insert:
  000eb	cc		 int	 3
_TEXT	ENDS
;	COMDAT text$x
text$x	SEGMENT
__unwindfunclet$??$insert@U?$pair@PAVCActorInstance@@M@std@@$0A@@?$map@PAVCActorInstance@@MU?$less@PAVCActorInstance@@@std@@V?$allocator@U?$pair@QAVCActorInstance@@M@std@@@3@@std@@QAE?AU?$pair@V?$_Tree_iterator@V?$_Tree_val@U?$_Tree_simple_types@U?$pair@QAVCActorInstance@@M@std@@@std@@@std@@@std@@_N@1@$$QAU?$pair@PAVCActorInstance@@M@1@@Z$2:
  00000	8d 4d ec	 lea	 ecx, DWORD PTR $T5[ebp]
  00003	e9 00 00 00 00	 jmp	 ??1?$_Alloc_construct_ptr@V?$allocator@U?$_Tree_node@U?$pair@QAVCActorInstance@@M@std@@PAX@std@@@std@@@std@@QAE@XZ ; std::_Alloc_construct_ptr<std::allocator<std::_Tree_node<std::pair<CActorInstance * const,float>,void *> > >::~_Alloc_construct_ptr<std::allocator<std::_Tree_node<std::pair<CActorInstance * const,float>,void *> > >
  00008	cc		 int	 3
  00009	cc		 int	 3
  0000a	cc		 int	 3
  0000b	cc		 int	 3
  0000c	cc		 int	 3
__ehhandler$??$insert@U?$pair@PAVCActorInstance@@M@std@@$0A@@?$map@PAVCActorInstance@@MU?$less@PAVCActorInstance@@@std@@V?$allocator@U?$pair@QAVCActorInstance@@M@std@@@3@@std@@QAE?AU?$pair@V?$_Tree_iterator@V?$_Tree_val@U?$_Tree_simple_types@U?$pair@QAVCActorInstance@@M@std@@@std@@@std@@@std@@_N@1@$$QAU?$pair@PAVCActorInstance@@M@1@@Z:
  0000d	90		 npad	 1
  0000e	90		 npad	 1
  0000f	8b 54 24 08	 mov	 edx, DWORD PTR [esp+8]
  00013	8d 42 0c	 lea	 eax, DWORD PTR [edx+12]
  00016	8b 4a d8	 mov	 ecx, DWORD PTR [edx-40]
  00019	33 c8		 xor	 ecx, eax
  0001b	e8 00 00 00 00	 call	 @__security_check_cookie@4
  00020	b8 00 00 00 00	 mov	 eax, OFFSET __ehfuncinfo$??$insert@U?$pair@PAVCActorInstance@@M@std@@$0A@@?$map@PAVCActorInstance@@MU?$less@PAVCActorInstance@@@std@@V?$allocator@U?$pair@QAVCActorInstance@@M@std@@@3@@std@@QAE?AU?$pair@V?$_Tree_iterator@V?$_Tree_val@U?$_Tree_simple_types@U?$pair@QAVCActorInstance@@M@std@@@std@@@std@@@std@@_N@1@$$QAU?$pair@PAVCActorInstance@@M@1@@Z
  00025	e9 00 00 00 00	 jmp	 ___CxxFrameHandler3
text$x	ENDS
??$insert@U?$pair@PAVCActorInstance@@M@std@@$0A@@?$map@PAVCActorInstance@@MU?$less@PAVCActorInstance@@@std@@V?$allocator@U?$pair@QAVCActorInstance@@M@std@@@3@@std@@QAE?AU?$pair@V?$_Tree_iterator@V?$_Tree_val@U?$_Tree_simple_types@U?$pair@QAVCActorInstance@@M@std@@@std@@@std@@@std@@_N@1@$$QAU?$pair@PAVCActorInstance@@M@1@@Z ENDP ; std::map<CActorInstance *,float,std::less<CActorInstance *>,std::allocator<std::pair<CActorInstance * const,float> > >::insert<std::pair<CActorInstance *,float>,0>
; Function compile flags: /Ogtp
; File C:\DS Project\DS Files\Source\ClientSource\Client\GameLib\ActorInstanceCollisionDetection.cpp
;	COMDAT ?__InitializeCollisionData@CActorInstance@@IAEXXZ
_TEXT	SEGMENT
?__InitializeCollisionData@CActorInstance@@IAEXXZ PROC	; CActorInstance::__InitializeCollisionData, COMDAT
; _this$ = ecx

; 8    : 	m_canSkipCollision=false;

  00000	c6 81 60 05 00
	00 00		 mov	 BYTE PTR [ecx+1376], 0

; 9    : }

  00007	c3		 ret	 0
?__InitializeCollisionData@CActorInstance@@IAEXXZ ENDP	; CActorInstance::__InitializeCollisionData
_TEXT	ENDS
; Function compile flags: /Ogtp
; File C:\DS Project\DS Files\Source\ClientSource\Client\GameLib\ActorInstanceCollisionDetection.cpp
;	COMDAT ?CanSkipCollision@CActorInstance@@QAE_NXZ
_TEXT	SEGMENT
?CanSkipCollision@CActorInstance@@QAE_NXZ PROC		; CActorInstance::CanSkipCollision, COMDAT
; _this$ = ecx

; 23   : 	return m_canSkipCollision;

  00000	8a 81 60 05 00
	00		 mov	 al, BYTE PTR [ecx+1376]

; 24   : }

  00006	c3		 ret	 0
?CanSkipCollision@CActorInstance@@QAE_NXZ ENDP		; CActorInstance::CanSkipCollision
_TEXT	ENDS
; Function compile flags: /Ogtp
; File C:\DS Project\DS Files\Source\ClientSource\Client\GameLib\ActorInstanceCollisionDetection.cpp
;	COMDAT ?DisableSkipCollision@CActorInstance@@QAEXXZ
_TEXT	SEGMENT
?DisableSkipCollision@CActorInstance@@QAEXXZ PROC	; CActorInstance::DisableSkipCollision, COMDAT
; _this$ = ecx

; 18   : 	m_canSkipCollision=false;

  00000	c6 81 60 05 00
	00 00		 mov	 BYTE PTR [ecx+1376], 0

; 19   : }

  00007	c3		 ret	 0
?DisableSkipCollision@CActorInstance@@QAEXXZ ENDP	; CActorInstance::DisableSkipCollision
_TEXT	ENDS
; Function compile flags: /Ogtp
; File C:\DS Project\DS Files\Source\ClientSource\Client\GameLib\ActorInstanceCollisionDetection.cpp
;	COMDAT ?EnableSkipCollision@CActorInstance@@QAEXXZ
_TEXT	SEGMENT
?EnableSkipCollision@CActorInstance@@QAEXXZ PROC	; CActorInstance::EnableSkipCollision, COMDAT
; _this$ = ecx

; 13   : 	m_canSkipCollision=true;

  00000	c6 81 60 05 00
	00 01		 mov	 BYTE PTR [ecx+1376], 1

; 14   : }

  00007	c3		 ret	 0
?EnableSkipCollision@CActorInstance@@QAEXXZ ENDP	; CActorInstance::EnableSkipCollision
_TEXT	ENDS
; Function compile flags: /Ogtp
; File C:\Program Files (x86)\Microsoft Visual Studio\2019\Community\VC\Tools\MSVC\14.27.29110\include\xtree
;	COMDAT ?_Insert_node@?$_Tree_val@U?$_Tree_simple_types@U?$pair@QBUSHitData@NRaceData@@V?$map@PAVCActorInstance@@MU?$less@PAVCActorInstance@@@std@@V?$allocator@U?$pair@QAVCActorInstance@@M@std@@@3@@std@@@std@@@std@@@std@@QAEPAU?$_Tree_node@U?$pair@QBUSHitData@NRaceData@@V?$map@PAVCActorInstance@@MU?$less@PAVCActorInstance@@@std@@V?$allocator@U?$pair@QAVCActorInstance@@M@std@@@3@@std@@@std@@PAX@2@U?$_Tree_id@PAU?$_Tree_node@U?$pair@QBUSHitData@NRaceData@@V?$map@PAVCActorInstance@@MU?$less@PAVCActorInstance@@@std@@V?$allocator@U?$pair@QAVCActorInstance@@M@std@@@3@@std@@@std@@PAX@std@@@2@QAU32@@Z
_TEXT	SEGMENT
__Head$1$ = -8						; size = 4
_this$1$ = -4						; size = 4
__Loc$ = 8						; size = 8
__Newnode$ = 16						; size = 4
?_Insert_node@?$_Tree_val@U?$_Tree_simple_types@U?$pair@QBUSHitData@NRaceData@@V?$map@PAVCActorInstance@@MU?$less@PAVCActorInstance@@@std@@V?$allocator@U?$pair@QAVCActorInstance@@M@std@@@3@@std@@@std@@@std@@@std@@QAEPAU?$_Tree_node@U?$pair@QBUSHitData@NRaceData@@V?$map@PAVCActorInstance@@MU?$less@PAVCActorInstance@@@std@@V?$allocator@U?$pair@QAVCActorInstance@@M@std@@@3@@std@@@std@@PAX@2@U?$_Tree_id@PAU?$_Tree_node@U?$pair@QBUSHitData@NRaceData@@V?$map@PAVCActorInstance@@MU?$less@PAVCActorInstance@@@std@@V?$allocator@U?$pair@QAVCActorInstance@@M@std@@@3@@std@@@std@@PAX@std@@@2@QAU32@@Z PROC ; std::_Tree_val<std::_Tree_simple_types<std::pair<NRaceData::SHitData const * const,std::map<CActorInstance *,float,std::less<CActorInstance *>,std::allocator<std::pair<CActorInstance * const,float> > > > > >::_Insert_node, COMDAT
; _this$ = ecx

; 644  :     _Nodeptr _Insert_node(const _Tree_id<_Nodeptr> _Loc, const _Nodeptr _Newnode) noexcept {

  00000	55		 push	 ebp
  00001	8b ec		 mov	 ebp, esp
  00003	83 ec 08	 sub	 esp, 8

; 645  :         ++_Mysize;
; 646  :         const auto _Head  = _Myhead;
; 647  :         _Newnode->_Parent = _Loc._Parent;

  00006	8b 55 08	 mov	 edx, DWORD PTR __Loc$[ebp]
  00009	8b c1		 mov	 eax, ecx
  0000b	89 45 fc	 mov	 DWORD PTR _this$1$[ebp], eax
  0000e	8b 08		 mov	 ecx, DWORD PTR [eax]
  00010	ff 40 04	 inc	 DWORD PTR [eax+4]
  00013	8b 45 10	 mov	 eax, DWORD PTR __Newnode$[ebp]
  00016	89 4d f8	 mov	 DWORD PTR __Head$1$[ebp], ecx
  00019	89 50 04	 mov	 DWORD PTR [eax+4], edx

; 648  :         if (_Loc._Parent == _Head) { // first node in tree, just set head values

  0001c	3b d1		 cmp	 edx, ecx
  0001e	75 12		 jne	 SHORT $LN5@Insert_nod

; 649  :             _Head->_Left     = _Newnode;

  00020	89 01		 mov	 DWORD PTR [ecx], eax

; 650  :             _Head->_Parent   = _Newnode;

  00022	89 41 04	 mov	 DWORD PTR [ecx+4], eax

; 651  :             _Head->_Right    = _Newnode;

  00025	89 41 08	 mov	 DWORD PTR [ecx+8], eax

; 652  :             _Newnode->_Color = _Black; // the root is black

  00028	c6 40 0c 01	 mov	 BYTE PTR [eax+12], 1

; 711  :     }

  0002c	8b e5		 mov	 esp, ebp
  0002e	5d		 pop	 ebp
  0002f	c2 0c 00	 ret	 12			; 0000000cH
$LN5@Insert_nod:

; 653  :             return _Newnode;
; 654  :         }
; 655  : 
; 656  :         _STL_INTERNAL_CHECK(_Loc._Child != _Tree_child::_Unused);
; 657  :         if (_Loc._Child == _Tree_child::_Right) { // add to right of _Loc._Parent

  00032	83 7d 0c 00	 cmp	 DWORD PTR __Loc$[ebp+4], 0
  00036	75 0d		 jne	 SHORT $LN6@Insert_nod

; 658  :             _STL_INTERNAL_CHECK(_Loc._Parent->_Right->_Isnil);
; 659  :             _Loc._Parent->_Right = _Newnode;

  00038	89 42 08	 mov	 DWORD PTR [edx+8], eax

; 660  :             if (_Loc._Parent == _Head->_Right) { // remember rightmost node

  0003b	3b 51 08	 cmp	 edx, DWORD PTR [ecx+8]
  0003e	75 0d		 jne	 SHORT $LN9@Insert_nod

; 661  :                 _Head->_Right = _Newnode;

  00040	89 41 08	 mov	 DWORD PTR [ecx+8], eax

; 662  :             }
; 663  :         } else { // add to left of _Loc._Parent

  00043	eb 08		 jmp	 SHORT $LN9@Insert_nod
$LN6@Insert_nod:

; 664  :             _STL_INTERNAL_CHECK(_Loc._Parent->_Left->_Isnil);
; 665  :             _Loc._Parent->_Left = _Newnode;

  00045	89 02		 mov	 DWORD PTR [edx], eax

; 666  :             if (_Loc._Parent == _Head->_Left) { // remember leftmost node

  00047	3b 11		 cmp	 edx, DWORD PTR [ecx]
  00049	75 02		 jne	 SHORT $LN9@Insert_nod

; 667  :                 _Head->_Left = _Newnode;

  0004b	89 01		 mov	 DWORD PTR [ecx], eax
$LN9@Insert_nod:

; 668  :             }
; 669  :         }
; 670  : 
; 671  :         for (_Nodeptr _Pnode = _Newnode; _Pnode->_Parent->_Color == _Red;) {

  0004d	8b d0		 mov	 edx, eax
  0004f	8b 40 04	 mov	 eax, DWORD PTR [eax+4]
  00052	80 78 0c 00	 cmp	 BYTE PTR [eax+12], 0
  00056	0f 85 99 01 00
	00		 jne	 $LN3@Insert_nod
  0005c	53		 push	 ebx
  0005d	56		 push	 esi
  0005e	57		 push	 edi
  0005f	90		 npad	 1
$LL2@Insert_nod:

; 672  :             if (_Pnode->_Parent == _Pnode->_Parent->_Parent->_Left) { // fixup red-red in left subtree

  00060	8b 4a 04	 mov	 ecx, DWORD PTR [edx+4]
  00063	8d 7a 04	 lea	 edi, DWORD PTR [edx+4]
  00066	8b 71 04	 mov	 esi, DWORD PTR [ecx+4]
  00069	8d 59 04	 lea	 ebx, DWORD PTR [ecx+4]
  0006c	8b 06		 mov	 eax, DWORD PTR [esi]
  0006e	3b c8		 cmp	 ecx, eax
  00070	0f 85 ba 00 00
	00		 jne	 $LN10@Insert_nod

; 673  :                 const auto _Parent_sibling = _Pnode->_Parent->_Parent->_Right;

  00076	8b 46 08	 mov	 eax, DWORD PTR [esi+8]

; 674  :                 if (_Parent_sibling->_Color == _Red) { // parent's sibling has two red children, blacken both

  00079	80 78 0c 00	 cmp	 BYTE PTR [eax+12], 0
  0007d	0f 84 b3 00 00
	00		 je	 $LN53@Insert_nod

; 675  :                     _Pnode->_Parent->_Color          = _Black;
; 676  :                     _Parent_sibling->_Color          = _Black;
; 677  :                     _Pnode->_Parent->_Parent->_Color = _Red;
; 678  :                     _Pnode                           = _Pnode->_Parent->_Parent;
; 679  :                 } else { // parent's sibling has red and black children
; 680  :                     if (_Pnode == _Pnode->_Parent->_Right) { // rotate right child to left

  00083	8b 71 08	 mov	 esi, DWORD PTR [ecx+8]
  00086	3b d6		 cmp	 edx, esi
  00088	75 47		 jne	 SHORT $LN51@Insert_nod

; 460  :         _Wherenode->_Right = _Pnode->_Left;

  0008a	8b 06		 mov	 eax, DWORD PTR [esi]

; 681  :                         _Pnode = _Pnode->_Parent;

  0008c	8b d1		 mov	 edx, ecx

; 460  :         _Wherenode->_Right = _Pnode->_Left;

  0008e	89 42 08	 mov	 DWORD PTR [edx+8], eax

; 461  : 
; 462  :         if (!_Pnode->_Left->_Isnil) {

  00091	8b 06		 mov	 eax, DWORD PTR [esi]
  00093	80 78 0d 00	 cmp	 BYTE PTR [eax+13], 0
  00097	75 03		 jne	 SHORT $LN20@Insert_nod

; 463  :             _Pnode->_Left->_Parent = _Wherenode;

  00099	89 50 04	 mov	 DWORD PTR [eax+4], edx
$LN20@Insert_nod:

; 464  :         }
; 465  : 
; 466  :         _Pnode->_Parent = _Wherenode->_Parent;

  0009c	8b 03		 mov	 eax, DWORD PTR [ebx]
  0009e	89 46 04	 mov	 DWORD PTR [esi+4], eax

; 467  : 
; 468  :         if (_Wherenode == _Myhead->_Parent) {

  000a1	8b 45 fc	 mov	 eax, DWORD PTR _this$1$[ebp]
  000a4	8b 00		 mov	 eax, DWORD PTR [eax]
  000a6	3b 50 04	 cmp	 edx, DWORD PTR [eax+4]
  000a9	75 0b		 jne	 SHORT $LN21@Insert_nod

; 469  :             _Myhead->_Parent = _Pnode;

  000ab	89 70 04	 mov	 DWORD PTR [eax+4], esi

; 477  :         _Wherenode->_Parent = _Pnode;

  000ae	8b fb		 mov	 edi, ebx
  000b0	89 16		 mov	 DWORD PTR [esi], edx
  000b2	89 33		 mov	 DWORD PTR [ebx], esi
  000b4	eb 1d		 jmp	 SHORT $LN49@Insert_nod
$LN21@Insert_nod:

; 470  :         } else if (_Wherenode == _Wherenode->_Parent->_Left) {

  000b6	8b 03		 mov	 eax, DWORD PTR [ebx]
  000b8	3b 10		 cmp	 edx, DWORD PTR [eax]
  000ba	75 0a		 jne	 SHORT $LN23@Insert_nod

; 471  :             _Wherenode->_Parent->_Left = _Pnode;

  000bc	89 30		 mov	 DWORD PTR [eax], esi

; 477  :         _Wherenode->_Parent = _Pnode;

  000be	8b fb		 mov	 edi, ebx
  000c0	89 16		 mov	 DWORD PTR [esi], edx
  000c2	89 33		 mov	 DWORD PTR [ebx], esi
  000c4	eb 0d		 jmp	 SHORT $LN49@Insert_nod
$LN23@Insert_nod:

; 473  :             _Wherenode->_Parent->_Right = _Pnode;

  000c6	89 70 08	 mov	 DWORD PTR [eax+8], esi

; 477  :         _Wherenode->_Parent = _Pnode;

  000c9	8b fb		 mov	 edi, ebx
  000cb	89 16		 mov	 DWORD PTR [esi], edx
  000cd	89 33		 mov	 DWORD PTR [ebx], esi
  000cf	eb 02		 jmp	 SHORT $LN49@Insert_nod
$LN51@Insert_nod:
  000d1	8b f1		 mov	 esi, ecx
$LN49@Insert_nod:

; 682  :                         _Lrotate(_Pnode);
; 683  :                     }
; 684  : 
; 685  :                     _Pnode->_Parent->_Color          = _Black; // propagate red up

  000d3	c6 46 0c 01	 mov	 BYTE PTR [esi+12], 1

; 686  :                     _Pnode->_Parent->_Parent->_Color = _Red;

  000d7	8b 07		 mov	 eax, DWORD PTR [edi]
  000d9	8b 40 04	 mov	 eax, DWORD PTR [eax+4]
  000dc	c6 40 0c 00	 mov	 BYTE PTR [eax+12], 0

; 687  :                     _Rrotate(_Pnode->_Parent->_Parent);

  000e0	8b 07		 mov	 eax, DWORD PTR [edi]
  000e2	8b 48 04	 mov	 ecx, DWORD PTR [eax+4]

; 481  :         _Nodeptr _Pnode   = _Wherenode->_Left;

  000e5	8b 31		 mov	 esi, DWORD PTR [ecx]

; 482  :         _Wherenode->_Left = _Pnode->_Right;

  000e7	8b 46 08	 mov	 eax, DWORD PTR [esi+8]
  000ea	89 01		 mov	 DWORD PTR [ecx], eax

; 483  : 
; 484  :         if (!_Pnode->_Right->_Isnil) {

  000ec	8b 46 08	 mov	 eax, DWORD PTR [esi+8]
  000ef	80 78 0d 00	 cmp	 BYTE PTR [eax+13], 0
  000f3	75 03		 jne	 SHORT $LN27@Insert_nod

; 485  :             _Pnode->_Right->_Parent = _Wherenode;

  000f5	89 48 04	 mov	 DWORD PTR [eax+4], ecx
$LN27@Insert_nod:

; 486  :         }
; 487  : 
; 488  :         _Pnode->_Parent = _Wherenode->_Parent;

  000f8	8b 41 04	 mov	 eax, DWORD PTR [ecx+4]
  000fb	89 46 04	 mov	 DWORD PTR [esi+4], eax

; 489  : 
; 490  :         if (_Wherenode == _Myhead->_Parent) {

  000fe	8b 45 fc	 mov	 eax, DWORD PTR _this$1$[ebp]
  00101	8b 00		 mov	 eax, DWORD PTR [eax]
  00103	3b 48 04	 cmp	 ecx, DWORD PTR [eax+4]
  00106	75 0b		 jne	 SHORT $LN28@Insert_nod

; 491  :             _Myhead->_Parent = _Pnode;

  00108	89 70 04	 mov	 DWORD PTR [eax+4], esi

; 496  :         }
; 497  : 
; 498  :         _Pnode->_Right      = _Wherenode;

  0010b	89 4e 08	 mov	 DWORD PTR [esi+8], ecx

; 688  :                 }
; 689  :             } else { // fixup red-red in right subtree

  0010e	e9 cc 00 00 00	 jmp	 $LN52@Insert_nod
$LN28@Insert_nod:

; 492  :         } else if (_Wherenode == _Wherenode->_Parent->_Right) {

  00113	8b 41 04	 mov	 eax, DWORD PTR [ecx+4]
  00116	3b 48 08	 cmp	 ecx, DWORD PTR [eax+8]
  00119	75 0b		 jne	 SHORT $LN30@Insert_nod

; 493  :             _Wherenode->_Parent->_Right = _Pnode;

  0011b	89 70 08	 mov	 DWORD PTR [eax+8], esi

; 496  :         }
; 497  : 
; 498  :         _Pnode->_Right      = _Wherenode;

  0011e	89 4e 08	 mov	 DWORD PTR [esi+8], ecx

; 688  :                 }
; 689  :             } else { // fixup red-red in right subtree

  00121	e9 b9 00 00 00	 jmp	 $LN52@Insert_nod
$LN30@Insert_nod:

; 495  :             _Wherenode->_Parent->_Left = _Pnode;

  00126	89 30		 mov	 DWORD PTR [eax], esi

; 496  :         }
; 497  : 
; 498  :         _Pnode->_Right      = _Wherenode;

  00128	89 4e 08	 mov	 DWORD PTR [esi+8], ecx

; 688  :                 }
; 689  :             } else { // fixup red-red in right subtree

  0012b	e9 af 00 00 00	 jmp	 $LN52@Insert_nod
$LN10@Insert_nod:

; 690  :                 const auto _Parent_sibling = _Pnode->_Parent->_Parent->_Left;
; 691  :                 if (_Parent_sibling->_Color == _Red) { // parent's sibling has two red children, blacken both

  00130	80 78 0c 00	 cmp	 BYTE PTR [eax+12], 0
  00134	75 1b		 jne	 SHORT $LN15@Insert_nod
$LN53@Insert_nod:

; 668  :             }
; 669  :         }
; 670  : 
; 671  :         for (_Nodeptr _Pnode = _Newnode; _Pnode->_Parent->_Color == _Red;) {

  00136	c6 41 0c 01	 mov	 BYTE PTR [ecx+12], 1
  0013a	c6 40 0c 01	 mov	 BYTE PTR [eax+12], 1
  0013e	8b 07		 mov	 eax, DWORD PTR [edi]
  00140	8b 40 04	 mov	 eax, DWORD PTR [eax+4]
  00143	c6 40 0c 00	 mov	 BYTE PTR [eax+12], 0
  00147	8b 07		 mov	 eax, DWORD PTR [edi]
  00149	8b 50 04	 mov	 edx, DWORD PTR [eax+4]
  0014c	e9 91 00 00 00	 jmp	 $LN46@Insert_nod
$LN15@Insert_nod:

; 692  :                     _Pnode->_Parent->_Color          = _Black;
; 693  :                     _Parent_sibling->_Color          = _Black;
; 694  :                     _Pnode->_Parent->_Parent->_Color = _Red;
; 695  :                     _Pnode                           = _Pnode->_Parent->_Parent;
; 696  :                 } else { // parent's sibling has red and black children
; 697  :                     if (_Pnode == _Pnode->_Parent->_Left) { // rotate left child to right

  00151	8b 01		 mov	 eax, DWORD PTR [ecx]
  00153	3b d0		 cmp	 edx, eax
  00155	75 3e		 jne	 SHORT $LN39@Insert_nod

; 698  :                         _Pnode = _Pnode->_Parent;

  00157	8b d1		 mov	 edx, ecx

; 481  :         _Nodeptr _Pnode   = _Wherenode->_Left;

  00159	8b c8		 mov	 ecx, eax

; 482  :         _Wherenode->_Left = _Pnode->_Right;

  0015b	8b 41 08	 mov	 eax, DWORD PTR [ecx+8]
  0015e	89 02		 mov	 DWORD PTR [edx], eax

; 483  : 
; 484  :         if (!_Pnode->_Right->_Isnil) {

  00160	8b 41 08	 mov	 eax, DWORD PTR [ecx+8]
  00163	80 78 0d 00	 cmp	 BYTE PTR [eax+13], 0
  00167	75 03		 jne	 SHORT $LN34@Insert_nod

; 485  :             _Pnode->_Right->_Parent = _Wherenode;

  00169	89 50 04	 mov	 DWORD PTR [eax+4], edx
$LN34@Insert_nod:

; 486  :         }
; 487  : 
; 488  :         _Pnode->_Parent = _Wherenode->_Parent;

  0016c	8b 03		 mov	 eax, DWORD PTR [ebx]
  0016e	89 41 04	 mov	 DWORD PTR [ecx+4], eax

; 489  : 
; 490  :         if (_Wherenode == _Myhead->_Parent) {

  00171	8b 45 fc	 mov	 eax, DWORD PTR _this$1$[ebp]
  00174	8b 00		 mov	 eax, DWORD PTR [eax]
  00176	3b 50 04	 cmp	 edx, DWORD PTR [eax+4]
  00179	75 05		 jne	 SHORT $LN35@Insert_nod

; 491  :             _Myhead->_Parent = _Pnode;

  0017b	89 48 04	 mov	 DWORD PTR [eax+4], ecx
  0017e	eb 0e		 jmp	 SHORT $LN38@Insert_nod
$LN35@Insert_nod:

; 492  :         } else if (_Wherenode == _Wherenode->_Parent->_Right) {

  00180	8b 03		 mov	 eax, DWORD PTR [ebx]
  00182	3b 50 08	 cmp	 edx, DWORD PTR [eax+8]
  00185	75 05		 jne	 SHORT $LN37@Insert_nod

; 493  :             _Wherenode->_Parent->_Right = _Pnode;

  00187	89 48 08	 mov	 DWORD PTR [eax+8], ecx

; 494  :         } else {

  0018a	eb 02		 jmp	 SHORT $LN38@Insert_nod
$LN37@Insert_nod:

; 495  :             _Wherenode->_Parent->_Left = _Pnode;

  0018c	89 08		 mov	 DWORD PTR [eax], ecx
$LN38@Insert_nod:

; 496  :         }
; 497  : 
; 498  :         _Pnode->_Right      = _Wherenode;

  0018e	89 51 08	 mov	 DWORD PTR [ecx+8], edx

; 499  :         _Wherenode->_Parent = _Pnode;

  00191	8b fb		 mov	 edi, ebx
  00193	89 0b		 mov	 DWORD PTR [ebx], ecx
$LN39@Insert_nod:

; 699  :                         _Rrotate(_Pnode);
; 700  :                     }
; 701  : 
; 702  :                     _Pnode->_Parent->_Color          = _Black; // propagate red up

  00195	c6 41 0c 01	 mov	 BYTE PTR [ecx+12], 1

; 703  :                     _Pnode->_Parent->_Parent->_Color = _Red;

  00199	8b 07		 mov	 eax, DWORD PTR [edi]
  0019b	8b 40 04	 mov	 eax, DWORD PTR [eax+4]
  0019e	c6 40 0c 00	 mov	 BYTE PTR [eax+12], 0

; 704  :                     _Lrotate(_Pnode->_Parent->_Parent);

  001a2	8b 07		 mov	 eax, DWORD PTR [edi]
  001a4	8b 48 04	 mov	 ecx, DWORD PTR [eax+4]

; 459  :         _Nodeptr _Pnode    = _Wherenode->_Right;

  001a7	8b 71 08	 mov	 esi, DWORD PTR [ecx+8]

; 460  :         _Wherenode->_Right = _Pnode->_Left;

  001aa	8b 06		 mov	 eax, DWORD PTR [esi]
  001ac	89 41 08	 mov	 DWORD PTR [ecx+8], eax

; 461  : 
; 462  :         if (!_Pnode->_Left->_Isnil) {

  001af	8b 06		 mov	 eax, DWORD PTR [esi]
  001b1	80 78 0d 00	 cmp	 BYTE PTR [eax+13], 0
  001b5	75 03		 jne	 SHORT $LN41@Insert_nod

; 463  :             _Pnode->_Left->_Parent = _Wherenode;

  001b7	89 48 04	 mov	 DWORD PTR [eax+4], ecx
$LN41@Insert_nod:

; 464  :         }
; 465  : 
; 466  :         _Pnode->_Parent = _Wherenode->_Parent;

  001ba	8b 41 04	 mov	 eax, DWORD PTR [ecx+4]
  001bd	89 46 04	 mov	 DWORD PTR [esi+4], eax

; 467  : 
; 468  :         if (_Wherenode == _Myhead->_Parent) {

  001c0	8b 45 fc	 mov	 eax, DWORD PTR _this$1$[ebp]
  001c3	8b 00		 mov	 eax, DWORD PTR [eax]
  001c5	3b 48 04	 cmp	 ecx, DWORD PTR [eax+4]
  001c8	75 05		 jne	 SHORT $LN42@Insert_nod

; 469  :             _Myhead->_Parent = _Pnode;

  001ca	89 70 04	 mov	 DWORD PTR [eax+4], esi
  001cd	eb 0e		 jmp	 SHORT $LN45@Insert_nod
$LN42@Insert_nod:

; 470  :         } else if (_Wherenode == _Wherenode->_Parent->_Left) {

  001cf	8b 41 04	 mov	 eax, DWORD PTR [ecx+4]
  001d2	3b 08		 cmp	 ecx, DWORD PTR [eax]
  001d4	75 04		 jne	 SHORT $LN44@Insert_nod

; 471  :             _Wherenode->_Parent->_Left = _Pnode;

  001d6	89 30		 mov	 DWORD PTR [eax], esi

; 472  :         } else {

  001d8	eb 03		 jmp	 SHORT $LN45@Insert_nod
$LN44@Insert_nod:

; 473  :             _Wherenode->_Parent->_Right = _Pnode;

  001da	89 70 08	 mov	 DWORD PTR [eax+8], esi
$LN45@Insert_nod:

; 474  :         }
; 475  : 
; 476  :         _Pnode->_Left       = _Wherenode;

  001dd	89 0e		 mov	 DWORD PTR [esi], ecx
$LN52@Insert_nod:

; 668  :             }
; 669  :         }
; 670  : 
; 671  :         for (_Nodeptr _Pnode = _Newnode; _Pnode->_Parent->_Color == _Red;) {

  001df	89 71 04	 mov	 DWORD PTR [ecx+4], esi
$LN46@Insert_nod:
  001e2	8b 42 04	 mov	 eax, DWORD PTR [edx+4]
  001e5	80 78 0c 00	 cmp	 BYTE PTR [eax+12], 0
  001e9	0f 84 71 fe ff
	ff		 je	 $LL2@Insert_nod
  001ef	8b 4d f8	 mov	 ecx, DWORD PTR __Head$1$[ebp]
  001f2	5f		 pop	 edi
  001f3	5e		 pop	 esi
  001f4	5b		 pop	 ebx
$LN3@Insert_nod:

; 705  :                 }
; 706  :             }
; 707  :         }
; 708  : 
; 709  :         _Head->_Parent->_Color = _Black; // root is always black

  001f5	8b 41 04	 mov	 eax, DWORD PTR [ecx+4]
  001f8	c6 40 0c 01	 mov	 BYTE PTR [eax+12], 1

; 710  :         return _Newnode;

  001fc	8b 45 10	 mov	 eax, DWORD PTR __Newnode$[ebp]

; 711  :     }

  001ff	8b e5		 mov	 esp, ebp
  00201	5d		 pop	 ebp
  00202	c2 0c 00	 ret	 12			; 0000000cH
?_Insert_node@?$_Tree_val@U?$_Tree_simple_types@U?$pair@QBUSHitData@NRaceData@@V?$map@PAVCActorInstance@@MU?$less@PAVCActorInstance@@@std@@V?$allocator@U?$pair@QAVCActorInstance@@M@std@@@3@@std@@@std@@@std@@@std@@QAEPAU?$_Tree_node@U?$pair@QBUSHitData@NRaceData@@V?$map@PAVCActorInstance@@MU?$less@PAVCActorInstance@@@std@@V?$allocator@U?$pair@QAVCActorInstance@@M@std@@@3@@std@@@std@@PAX@2@U?$_Tree_id@PAU?$_Tree_node@U?$pair@QBUSHitData@NRaceData@@V?$map@PAVCActorInstance@@MU?$less@PAVCActorInstance@@@std@@V?$allocator@U?$pair@QAVCActorInstance@@M@std@@@3@@std@@@std@@PAX@std@@@2@QAU32@@Z ENDP ; std::_Tree_val<std::_Tree_simple_types<std::pair<NRaceData::SHitData const * const,std::map<CActorInstance *,float,std::less<CActorInstance *>,std::allocator<std::pair<CActorInstance * const,float> > > > > >::_Insert_node
_TEXT	ENDS
; Function compile flags: /Ogtp
; File C:\DS Project\DS Files\Source\ClientSource\Client\GameLib\ActorInstanceCollisionDetection.cpp
; File C:\DS Project\DS Files\Source\ClientSource\extern\include\d3dx8math.inl
; File C:\DS Project\DS Files\Source\ClientSource\Client\GameLib\ActorInstanceCollisionDetection.cpp
; File C:\Program Files (x86)\Microsoft Visual Studio\2019\Community\VC\Tools\MSVC\14.27.29110\include\vector
; File C:\DS Project\DS Files\Source\ClientSource\Client\GameLib\ActorInstanceCollisionDetection.cpp
; File C:\Program Files (x86)\Microsoft Visual Studio\2019\Community\VC\Tools\MSVC\14.27.29110\include\vector
; File C:\DS Project\DS Files\Source\ClientSource\Client\GameLib\ActorInstanceCollisionDetection.cpp
; File C:\Program Files (x86)\Microsoft Visual Studio\2019\Community\VC\Tools\MSVC\14.27.29110\include\xtree
; File C:\DS Project\DS Files\Source\ClientSource\Client\GameLib\ActorInstanceCollisionDetection.cpp
; File C:\Program Files (x86)\Microsoft Visual Studio\2019\Community\VC\Tools\MSVC\14.27.29110\include\xtree
; File C:\Program Files (x86)\Microsoft Visual Studio\2019\Community\VC\Tools\MSVC\14.27.29110\include\xstddef
; File C:\Program Files (x86)\Microsoft Visual Studio\2019\Community\VC\Tools\MSVC\14.27.29110\include\xtree
; File C:\DS Project\DS Files\Source\ClientSource\Client\GameLib\ActorInstanceCollisionDetection.cpp
; File C:\Program Files (x86)\Microsoft Visual Studio\2019\Community\VC\Tools\MSVC\14.27.29110\include\xtree
; File C:\DS Project\DS Files\Source\ClientSource\Client\GameLib\ActorInstanceCollisionDetection.cpp
; File C:\Program Files (x86)\Microsoft Visual Studio\2019\Community\VC\Tools\MSVC\14.27.29110\include\xtree
; File C:\DS Project\DS Files\Source\ClientSource\Client\GameLib\ActorInstanceCollisionDetection.cpp
; File C:\Program Files (x86)\Microsoft Visual Studio\2019\Community\VC\Tools\MSVC\14.27.29110\include\xtree
; File C:\DS Project\DS Files\Source\ClientSource\Client\GameLib\ActorInstanceCollisionDetection.cpp
; File C:\Program Files (x86)\Microsoft Visual Studio\2019\Community\VC\Tools\MSVC\14.27.29110\include\xtree
; File C:\Program Files (x86)\Microsoft Visual Studio\2019\Community\VC\Tools\MSVC\14.27.29110\include\xstddef
; File C:\Program Files (x86)\Microsoft Visual Studio\2019\Community\VC\Tools\MSVC\14.27.29110\include\xtree
; File C:\DS Project\DS Files\Source\ClientSource\Client\GameLib\ActorInstanceCollisionDetection.cpp
; File C:\Program Files (x86)\Microsoft Visual Studio\2019\Community\VC\Tools\MSVC\14.27.29110\include\xtree
; File C:\DS Project\DS Files\Source\ClientSource\Client\GameLib\ActorInstanceCollisionDetection.cpp
; File C:\Program Files (x86)\Microsoft Visual Studio\2019\Community\VC\Tools\MSVC\14.27.29110\include\xtree
; File C:\DS Project\DS Files\Source\ClientSource\Client\GameLib\ActorInstanceCollisionDetection.cpp
; File C:\Program Files (x86)\Microsoft Visual Studio\2019\Community\VC\Tools\MSVC\14.27.29110\include\xtree
; File C:\Program Files (x86)\Microsoft Visual Studio\2019\Community\VC\Tools\MSVC\14.27.29110\include\xstddef
; File C:\Program Files (x86)\Microsoft Visual Studio\2019\Community\VC\Tools\MSVC\14.27.29110\include\xtree
; File C:\DS Project\DS Files\Source\ClientSource\Client\GameLib\ActorInstanceCollisionDetection.cpp
; File C:\Program Files (x86)\Microsoft Visual Studio\2019\Community\VC\Tools\MSVC\14.27.29110\include\xstddef
; File C:\Program Files (x86)\Microsoft Visual Studio\2019\Community\VC\Tools\MSVC\14.27.29110\include\xtree
; File C:\Program Files (x86)\Microsoft Visual Studio\2019\Community\VC\Tools\MSVC\14.27.29110\include\xstddef
; File C:\Program Files (x86)\Microsoft Visual Studio\2019\Community\VC\Tools\MSVC\14.27.29110\include\xtree
; File C:\Program Files (x86)\Microsoft Visual Studio\2019\Community\VC\Tools\MSVC\14.27.29110\include\xstddef
; File C:\Program Files (x86)\Microsoft Visual Studio\2019\Community\VC\Tools\MSVC\14.27.29110\include\xtree
; File C:\DS Project\DS Files\Source\ClientSource\Client\GameLib\ActorInstanceCollisionDetection.cpp
; File C:\Program Files (x86)\Microsoft Visual Studio\2019\Community\VC\Tools\MSVC\14.27.29110\include\xtree
; File C:\DS Project\DS Files\Source\ClientSource\Client\GameLib\ActorInstanceCollisionDetection.cpp
; File C:\Program Files (x86)\Windows Kits\10\Include\10.0.18362.0\ucrt\corecrt_math.h
; File C:\DS Project\DS Files\Source\ClientSource\Client\GameLib\ActorInstanceCollisionDetection.cpp
; File C:\Program Files (x86)\Windows Kits\10\Include\10.0.18362.0\ucrt\corecrt_math.h
; File C:\DS Project\DS Files\Source\ClientSource\Client\GameLib\ActorInstanceCollisionDetection.cpp
; File C:\Program Files (x86)\Windows Kits\10\Include\10.0.18362.0\ucrt\corecrt_math.h
; File C:\Program Files (x86)\Microsoft Visual Studio\2019\Community\VC\Tools\MSVC\14.27.29110\include\xtree
; File C:\Program Files (x86)\Windows Kits\10\Include\10.0.18362.0\ucrt\corecrt_math.h
; File C:\Program Files (x86)\Microsoft Visual Studio\2019\Community\VC\Tools\MSVC\14.27.29110\include\xtree
; File C:\DS Project\DS Files\Source\ClientSource\Client\GameLib\ActorInstanceCollisionDetection.cpp
; File C:\DS Project\DS Files\Source\ClientSource\extern\include\d3dx8math.inl
; File C:\DS Project\DS Files\Source\ClientSource\Client\GameLib\ActorInstanceCollisionDetection.cpp
; File C:\DS Project\DS Files\Source\ClientSource\extern\include\d3dx8math.inl
; File C:\DS Project\DS Files\Source\ClientSource\Client\GameLib\ActorInstanceCollisionDetection.cpp
; File C:\DS Project\DS Files\Source\ClientSource\extern\include\d3dx8math.inl
; File C:\DS Project\DS Files\Source\ClientSource\Client\GameLib\ActorInstanceCollisionDetection.cpp
; File C:\DS Project\DS Files\Source\ClientSource\extern\include\d3dx8math.inl
; File C:\DS Project\DS Files\Source\ClientSource\Client\GameLib\ActorInstanceCollisionDetection.cpp
; File C:\DS Project\DS Files\Source\ClientSource\extern\include\d3dx8math.inl
; File C:\DS Project\DS Files\Source\ClientSource\Client\GameLib\ActorInstanceCollisionDetection.cpp
; File C:\DS Project\DS Files\Source\ClientSource\extern\include\d3dx8math.inl
; File C:\Program Files (x86)\Microsoft Visual Studio\2019\Community\VC\Tools\MSVC\14.27.29110\include\list
; File C:\DS Project\DS Files\Source\ClientSource\extern\include\d3dx8math.inl
; File C:\Program Files (x86)\Microsoft Visual Studio\2019\Community\VC\Tools\MSVC\14.27.29110\include\list
; File C:\DS Project\DS Files\Source\ClientSource\extern\include\d3dx8math.inl
; File C:\Program Files (x86)\Microsoft Visual Studio\2019\Community\VC\Tools\MSVC\14.27.29110\include\list
; File C:\DS Project\DS Files\Source\ClientSource\Client\GameLib\ActorInstanceCollisionDetection.cpp
; File C:\Program Files (x86)\Microsoft Visual Studio\2019\Community\VC\Tools\MSVC\14.27.29110\include\vector
; File C:\DS Project\DS Files\Source\ClientSource\Client\GameLib\ActorInstanceCollisionDetection.cpp
; File C:\Program Files (x86)\Microsoft Visual Studio\2019\Community\VC\Tools\MSVC\14.27.29110\include\vector
; File C:\DS Project\DS Files\Source\ClientSource\Client\GameLib\ActorInstanceCollisionDetection.cpp
; File C:\Program Files (x86)\Microsoft Visual Studio\2019\Community\VC\Tools\MSVC\14.27.29110\include\list
; File C:\DS Project\DS Files\Source\ClientSource\Client\GameLib\ActorInstanceCollisionDetection.cpp
; File C:\Program Files (x86)\Microsoft Visual Studio\2019\Community\VC\Tools\MSVC\14.27.29110\include\xtree
; File C:\DS Project\DS Files\Source\ClientSource\Client\GameLib\ActorInstanceCollisionDetection.cpp
; File C:\Program Files (x86)\Microsoft Visual Studio\2019\Community\VC\Tools\MSVC\14.27.29110\include\vector
; File C:\DS Project\DS Files\Source\ClientSource\Client\GameLib\ActorInstanceCollisionDetection.cpp
; File C:\Program Files (x86)\Microsoft Visual Studio\2019\Community\VC\Tools\MSVC\14.27.29110\include\xtree
; File C:\DS Project\DS Files\Source\ClientSource\Client\GameLib\ActorInstanceCollisionDetection.cpp
; File C:\Program Files (x86)\Microsoft Visual Studio\2019\Community\VC\Tools\MSVC\14.27.29110\include\xtree
; File C:\Program Files (x86)\Microsoft Visual Studio\2019\Community\VC\Tools\MSVC\14.27.29110\include\xstddef
; File C:\Program Files (x86)\Microsoft Visual Studio\2019\Community\VC\Tools\MSVC\14.27.29110\include\xtree
; File C:\DS Project\DS Files\Source\ClientSource\Client\GameLib\ActorInstanceCollisionDetection.cpp
; File C:\Program Files (x86)\Microsoft Visual Studio\2019\Community\VC\Tools\MSVC\14.27.29110\include\xmemory
; File C:\Program Files (x86)\Microsoft Visual Studio\2019\Community\VC\Tools\MSVC\14.27.29110\include\xtree
; File C:\Program Files (x86)\Microsoft Visual Studio\2019\Community\VC\Tools\MSVC\14.27.29110\include\xmemory
; File C:\Program Files (x86)\Microsoft Visual Studio\2019\Community\VC\Tools\MSVC\14.27.29110\include\xtree
; File C:\DS Project\DS Files\Source\ClientSource\Client\GameLib\ActorInstanceCollisionDetection.cpp
; File C:\Program Files (x86)\Microsoft Visual Studio\2019\Community\VC\Tools\MSVC\14.27.29110\include\xtree
; File C:\DS Project\DS Files\Source\ClientSource\Client\GameLib\ActorInstanceCollisionDetection.cpp
; File C:\Program Files (x86)\Microsoft Visual Studio\2019\Community\VC\Tools\MSVC\14.27.29110\include\utility
; File C:\Program Files (x86)\Microsoft Visual Studio\2019\Community\VC\Tools\MSVC\14.27.29110\include\xtree
; File C:\DS Project\DS Files\Source\ClientSource\Client\GameLib\ActorInstanceCollisionDetection.cpp
; File C:\Program Files (x86)\Microsoft Visual Studio\2019\Community\VC\Tools\MSVC\14.27.29110\include\utility
; File C:\Program Files (x86)\Microsoft Visual Studio\2019\Community\VC\Tools\MSVC\14.27.29110\include\xtree
; File C:\Program Files (x86)\Microsoft Visual Studio\2019\Community\VC\Tools\MSVC\14.27.29110\include\utility
; File C:\Program Files (x86)\Microsoft Visual Studio\2019\Community\VC\Tools\MSVC\14.27.29110\include\xtree
; File C:\Program Files (x86)\Microsoft Visual Studio\2019\Community\VC\Tools\MSVC\14.27.29110\include\xstddef
; File C:\Program Files (x86)\Microsoft Visual Studio\2019\Community\VC\Tools\MSVC\14.27.29110\include\xtree
; File C:\Program Files (x86)\Microsoft Visual Studio\2019\Community\VC\Tools\MSVC\14.27.29110\include\xmemory
; File C:\Program Files (x86)\Microsoft Visual Studio\2019\Community\VC\Tools\MSVC\14.27.29110\include\xtree
; File C:\Program Files (x86)\Microsoft Visual Studio\2019\Community\VC\Tools\MSVC\14.27.29110\include\xmemory
; File C:\Program Files (x86)\Microsoft Visual Studio\2019\Community\VC\Tools\MSVC\14.27.29110\include\utility
; File C:\Program Files (x86)\Microsoft Visual Studio\2019\Community\VC\Tools\MSVC\14.27.29110\include\xmemory
; File C:\Program Files (x86)\Microsoft Visual Studio\2019\Community\VC\Tools\MSVC\14.27.29110\include\utility
; File C:\Program Files (x86)\Microsoft Visual Studio\2019\Community\VC\Tools\MSVC\14.27.29110\include\xtree
; File C:\Program Files (x86)\Microsoft Visual Studio\2019\Community\VC\Tools\MSVC\14.27.29110\include\utility
; File C:\Program Files (x86)\Microsoft Visual Studio\2019\Community\VC\Tools\MSVC\14.27.29110\include\xtree
; File C:\Program Files (x86)\Microsoft Visual Studio\2019\Community\VC\Tools\MSVC\14.27.29110\include\utility
; File C:\Program Files (x86)\Microsoft Visual Studio\2019\Community\VC\Tools\MSVC\14.27.29110\include\xmemory
; File C:\Program Files (x86)\Microsoft Visual Studio\2019\Community\VC\Tools\MSVC\14.27.29110\include\xtree
; File C:\Program Files (x86)\Microsoft Visual Studio\2019\Community\VC\Tools\MSVC\14.27.29110\include\xmemory
; File C:\Program Files (x86)\Microsoft Visual Studio\2019\Community\VC\Tools\MSVC\14.27.29110\include\xtree
; File C:\DS Project\DS Files\Source\ClientSource\Client\GameLib\ActorInstanceCollisionDetection.cpp
; File C:\Program Files (x86)\Microsoft Visual Studio\2019\Community\VC\Tools\MSVC\14.27.29110\include\xtree
; File C:\Program Files (x86)\Microsoft Visual Studio\2019\Community\VC\Tools\MSVC\14.27.29110\include\xstddef
; File C:\Program Files (x86)\Microsoft Visual Studio\2019\Community\VC\Tools\MSVC\14.27.29110\include\xtree
; File C:\Program Files (x86)\Microsoft Visual Studio\2019\Community\VC\Tools\MSVC\14.27.29110\include\xmemory
; File C:\Program Files (x86)\Microsoft Visual Studio\2019\Community\VC\Tools\MSVC\14.27.29110\include\xtree
; File C:\Program Files (x86)\Microsoft Visual Studio\2019\Community\VC\Tools\MSVC\14.27.29110\include\xmemory
; File C:\Program Files (x86)\Microsoft Visual Studio\2019\Community\VC\Tools\MSVC\14.27.29110\include\utility
; File C:\Program Files (x86)\Microsoft Visual Studio\2019\Community\VC\Tools\MSVC\14.27.29110\include\xmemory
; File C:\Program Files (x86)\Microsoft Visual Studio\2019\Community\VC\Tools\MSVC\14.27.29110\include\xtree
; File C:\Program Files (x86)\Microsoft Visual Studio\2019\Community\VC\Tools\MSVC\14.27.29110\include\xmemory
; File C:\Program Files (x86)\Microsoft Visual Studio\2019\Community\VC\Tools\MSVC\14.27.29110\include\xtree
; File C:\Program Files (x86)\Microsoft Visual Studio\2019\Community\VC\Tools\MSVC\14.27.29110\include\utility
; File C:\Program Files (x86)\Microsoft Visual Studio\2019\Community\VC\Tools\MSVC\14.27.29110\include\xtree
; File C:\Program Files (x86)\Microsoft Visual Studio\2019\Community\VC\Tools\MSVC\14.27.29110\include\utility
; File C:\Program Files (x86)\Microsoft Visual Studio\2019\Community\VC\Tools\MSVC\14.27.29110\include\xtree
; File C:\DS Project\DS Files\Source\ClientSource\Client\GameLib\ActorInstanceCollisionDetection.cpp
; File C:\Program Files (x86)\Microsoft Visual Studio\2019\Community\VC\Tools\MSVC\14.27.29110\include\xtree
; File C:\DS Project\DS Files\Source\ClientSource\Client\GameLib\ActorInstanceCollisionDetection.cpp
; File C:\Program Files (x86)\Microsoft Visual Studio\2019\Community\VC\Tools\MSVC\14.27.29110\include\utility
; File C:\DS Project\DS Files\Source\ClientSource\Client\GameLib\ActorInstanceCollisionDetection.cpp
; File C:\Program Files (x86)\Microsoft Visual Studio\2019\Community\VC\Tools\MSVC\14.27.29110\include\utility
; File C:\DS Project\DS Files\Source\ClientSource\Client\GameLib\ActorInstanceCollisionDetection.cpp
; File C:\Program Files (x86)\Microsoft Visual Studio\2019\Community\VC\Tools\MSVC\14.27.29110\include\utility
; File C:\DS Project\DS Files\Source\ClientSource\Client\GameLib\ActorInstanceCollisionDetection.cpp
; File C:\DS Project\DS Files\Source\ClientSource\extern\include\d3dx8math.inl
; File C:\DS Project\DS Files\Source\ClientSource\Client\GameLib\ActorInstanceCollisionDetection.cpp
; File C:\DS Project\DS Files\Source\ClientSource\extern\include\d3dx8math.inl
; File C:\DS Project\DS Files\Source\ClientSource\Client\GameLib\ActorInstanceCollisionDetection.cpp
; File C:\DS Project\DS Files\Source\ClientSource\extern\include\d3dx8math.inl
; File C:\DS Project\DS Files\Source\ClientSource\Client\GameLib\ActorInstanceCollisionDetection.cpp
; File C:\DS Project\DS Files\Source\ClientSource\extern\include\d3dx8math.inl
; File C:\DS Project\DS Files\Source\ClientSource\Client\GameLib\ActorInstanceCollisionDetection.cpp
; File C:\DS Project\DS Files\Source\ClientSource\extern\include\d3dx8math.inl
; File C:\DS Project\DS Files\Source\ClientSource\Client\GameLib\ActorInstanceCollisionDetection.cpp
; File C:\Program Files (x86)\Microsoft Visual Studio\2019\Community\VC\Tools\MSVC\14.27.29110\include\xtree
; File C:\DS Project\DS Files\Source\ClientSource\Client\GameLib\ActorInstanceCollisionDetection.cpp
;	COMDAT ?__NormalAttackProcess@CActorInstance@@QAEHAAV1@@Z
_TEXT	SEGMENT
__Loc$4 = -148						; size = 12
$T5 = -148						; size = 12
__Loc$6 = -148						; size = 12
__Loc$7 = -148						; size = 12
_motiontime$ = -136					; size = 4
_c$1$ = -132						; size = 4
_rHittedInstanceMap$1$ = -132				; size = 4
$T1$sroa$2558$3$ = -128					; size = 4
tv273 = -128						; size = 4
$T8 = -124						; size = 12
__Sentinel$9 = -120					; size = 8
$T10 = -120						; size = 8
$T11 = -120						; size = 8
$T12 = -120						; size = 8
_fy$1$ = -116						; size = 4
$T13 = -116						; size = 1
_this$14 = -116						; size = 4
$T15 = -116						; size = 4
$T16 = -112						; size = 8
_HittedInstanceMap$17 = -112				; size = 8
_fx$1$ = -108						; size = 4
__Loc$18 = -104						; size = 12
$T19 = -104						; size = 12
_this$1$ = -92						; size = 4
_pad$1$ = -88						; size = 4
_this$GSCopy$1$ = -84					; size = 4
_rVictim$GSCopy$1$ = -80				; size = 4
$T20 = -76						; size = 8
_s$1$ = -72						; size = 4
$T21 = -72						; size = 4
tv4660 = -72						; size = 4
tv4492 = -72						; size = 4
tv3187 = -72						; size = 4
__X$ = -72						; size = 4
__X$ = -72						; size = 4
$T22 = -72						; size = 4
$T23 = -72						; size = 4
$T24 = -72						; size = 4
$T25 = -68						; size = 4
_range_start$2$ = -68					; size = 4
__Myhead$26 = -68					; size = 4
$T2$sroa$2557$2$ = -64					; size = 4
__Pnode$27 = -64					; size = 4
_fDistance$1$ = -60					; size = 4
_itorHitData$1$ = -60					; size = 4
__Pnode$28 = -60					; size = 4
__Pnode$29 = -60					; size = 4
__Myhead$30 = -60					; size = 4
_dsi$31 = -56						; size = 28
__Loc$32 = -28						; size = 12
_v3HitPosition$33 = -28					; size = 12
__$ArrayPad$ = -16					; size = 4
__$EHRec$ = -12						; size = 12
_rVictim$ = 8						; size = 4
?__NormalAttackProcess@CActorInstance@@QAEHAAV1@@Z PROC	; CActorInstance::__NormalAttackProcess, COMDAT
; _this$ = ecx

; 317  : {

  00000	55		 push	 ebp
  00001	8b ec		 mov	 ebp, esp
  00003	6a ff		 push	 -1
  00005	68 00 00 00 00	 push	 __ehhandler$?__NormalAttackProcess@CActorInstance@@QAEHAAV1@@Z
  0000a	64 a1 00 00 00
	00		 mov	 eax, DWORD PTR fs:0
  00010	50		 push	 eax
  00011	81 ec 88 00 00
	00		 sub	 esp, 136		; 00000088H
  00017	a1 00 00 00 00	 mov	 eax, DWORD PTR ___security_cookie
  0001c	33 c5		 xor	 eax, ebp
  0001e	89 45 f0	 mov	 DWORD PTR __$ArrayPad$[ebp], eax
  00021	56		 push	 esi
  00022	57		 push	 edi
  00023	50		 push	 eax
  00024	8d 45 f4	 lea	 eax, DWORD PTR __$EHRec$[ebp]
  00027	64 a3 00 00 00
	00		 mov	 DWORD PTR fs:0, eax
  0002d	8b f9		 mov	 edi, ecx
  0002f	89 7d ac	 mov	 DWORD PTR _this$GSCopy$1$[ebp], edi
  00032	8b 75 08	 mov	 esi, DWORD PTR _rVictim$[ebp]

; 323  : 	if (IS_HUGE_RACE(rVictim.GetRace()))

  00035	8b ce		 mov	 ecx, esi
  00037	89 75 b0	 mov	 DWORD PTR _rVictim$GSCopy$1$[ebp], esi
  0003a	f3 0f 10 8e 68
	04 00 00	 movss	 xmm1, DWORD PTR [esi+1128]
  00042	f3 0f 5c 8f 68
	04 00 00	 subss	 xmm1, DWORD PTR [edi+1128]
  0004a	f3 0f 10 86 70
	04 00 00	 movss	 xmm0, DWORD PTR [esi+1136]
  00052	f3 0f 5c 87 70
	04 00 00	 subss	 xmm0, DWORD PTR [edi+1136]
; File C:\DS Project\DS Files\Source\ClientSource\extern\include\d3dx8math.inl

; 182  :     z = fz;

  0005a	f3 0f 59 c9	 mulss	 xmm1, xmm1

; 1253 :     return pV->x * pV->x + pV->y * pV->y + pV->z * pV->z;

  0005e	f3 0f 59 c0	 mulss	 xmm0, xmm0
  00062	f3 0f 58 c8	 addss	 xmm1, xmm0
  00066	f3 0f 58 c8	 addss	 xmm1, xmm0
  0006a	f3 0f 11 4d c4	 movss	 DWORD PTR _fDistance$1$[ebp], xmm1
; File C:\DS Project\DS Files\Source\ClientSource\Client\GameLib\ActorInstanceCollisionDetection.cpp

; 323  : 	if (IS_HUGE_RACE(rVictim.GetRace()))

  0006f	e8 00 00 00 00	 call	 ?GetRace@CActorInstance@@QAEKXZ ; CActorInstance::GetRace
  00074	50		 push	 eax
  00075	e8 00 00 00 00	 call	 ?IS_HUGE_RACE@@YA_NI@Z	; IS_HUGE_RACE
  0007a	f3 0f 10 45 c4	 movss	 xmm0, DWORD PTR _fDistance$1$[ebp]
  0007f	83 c4 04	 add	 esp, 4
  00082	84 c0		 test	 al, al
  00084	74 28		 je	 SHORT $LN14@NormalAtta

; 324  : 	{
; 325  : 		if (fDistance >= 500.0f*500.0f)

  00086	0f 2f 05 00 00
	00 00		 comiss	 xmm0, DWORD PTR __real@48742400
  0008d	72 28		 jb	 SHORT $LN17@NormalAtta
$LN647@NormalAtta:

; 449  : 					}
; 450  : 				}
; 451  : 			}
; 452  : 		}
; 453  : 	}
; 454  : 
; 455  : 	return FALSE;

  0008f	33 c0		 xor	 eax, eax
$LN1@NormalAtta:

; 456  : }

  00091	8b 4d f4	 mov	 ecx, DWORD PTR __$EHRec$[ebp]
  00094	64 89 0d 00 00
	00 00		 mov	 DWORD PTR fs:0, ecx
  0009b	59		 pop	 ecx
  0009c	5f		 pop	 edi
  0009d	5e		 pop	 esi
  0009e	8b 4d f0	 mov	 ecx, DWORD PTR __$ArrayPad$[ebp]
  000a1	33 cd		 xor	 ecx, ebp
  000a3	e8 00 00 00 00	 call	 @__security_check_cookie@4
  000a8	8b e5		 mov	 esp, ebp
  000aa	5d		 pop	 ebp
  000ab	c2 04 00	 ret	 4
$LN14@NormalAtta:

; 326  : 			return FALSE;
; 327  : 	}
; 328  : 	else
; 329  : 	{
; 330  : 		if (fDistance >= 300.0f*300.0f)

  000ae	0f 2f 05 00 00
	00 00		 comiss	 xmm0, DWORD PTR __real@47afc800
  000b5	73 d8		 jae	 SHORT $LN647@NormalAtta
$LN17@NormalAtta:

; 331  : 			return FALSE;
; 332  : 	}
; 333  : 
; 334  : 	if (!isValidAttacking())

  000b7	8b cf		 mov	 ecx, edi
  000b9	e8 00 00 00 00	 call	 ?isValidAttacking@CActorInstance@@IAEHXZ ; CActorInstance::isValidAttacking
  000be	85 c0		 test	 eax, eax
  000c0	74 cd		 je	 SHORT $LN647@NormalAtta

; 335  : 		return FALSE;
; 336  : 
; 337  : 	const float c_fAttackRadius = 20.0f;
; 338  : 	const NRaceData::TMotionAttackData * pad = m_pkCurRaceMotionData->GetMotionAttackDataPointer();

  000c2	8b 8f 24 04 00
	00		 mov	 ecx, DWORD PTR [edi+1060]
  000c8	e8 00 00 00 00	 call	 ?GetMotionAttackDataPointer@CRaceMotionData@@QBEPBUSMotionAttackData@NRaceData@@XZ ; CRaceMotionData::GetMotionAttackDataPointer

; 340  : 	const float motiontime = GetAttackingElapsedTime();

  000cd	8b cf		 mov	 ecx, edi
  000cf	89 45 a8	 mov	 DWORD PTR _pad$1$[ebp], eax
  000d2	e8 00 00 00 00	 call	 ?GetAttackingElapsedTime@CActorInstance@@QAEMXZ ; CActorInstance::GetAttackingElapsedTime
; File C:\Program Files (x86)\Microsoft Visual Studio\2019\Community\VC\Tools\MSVC\14.27.29110\include\vector

; 42   :     _Vector_const_iterator(_Tptr _Parg, const _Container_base* _Pvector) noexcept : _Ptr(_Parg) {

  000d7	8b 45 a8	 mov	 eax, DWORD PTR _pad$1$[ebp]
; File C:\DS Project\DS Files\Source\ClientSource\Client\GameLib\ActorInstanceCollisionDetection.cpp

; 340  : 	const float motiontime = GetAttackingElapsedTime();

  000da	d9 9d 78 ff ff
	ff		 fstp	 DWORD PTR _motiontime$[ebp]
; File C:\Program Files (x86)\Microsoft Visual Studio\2019\Community\VC\Tools\MSVC\14.27.29110\include\vector

; 42   :     _Vector_const_iterator(_Tptr _Parg, const _Container_base* _Pvector) noexcept : _Ptr(_Parg) {

  000e0	8b 78 1c	 mov	 edi, DWORD PTR [eax+28]
  000e3	89 7d c4	 mov	 DWORD PTR _itorHitData$1$[ebp], edi
  000e6	3b 78 20	 cmp	 edi, DWORD PTR [eax+32]
; File C:\DS Project\DS Files\Source\ClientSource\Client\GameLib\ActorInstanceCollisionDetection.cpp

; 343  : 	for (; itorHitData != pad->HitDataContainer.end(); ++itorHitData)

  000e9	74 a4		 je	 SHORT $LN647@NormalAtta
  000eb	8b 45 ac	 mov	 eax, DWORD PTR _this$GSCopy$1$[ebp]
  000ee	05 48 05 00 00	 add	 eax, 1352		; 00000548H
  000f3	89 45 a4	 mov	 DWORD PTR _this$1$[ebp], eax
$LL4@NormalAtta:
; File C:\Program Files (x86)\Microsoft Visual Studio\2019\Community\VC\Tools\MSVC\14.27.29110\include\xtree

; 1458 :         const _Tree_find_result<_Nodeptr> _Loc = _Find_lower_bound(_Keyval);

  000f6	8d 4d b8	 lea	 ecx, DWORD PTR $T24[ebp]
; File C:\DS Project\DS Files\Source\ClientSource\Client\GameLib\ActorInstanceCollisionDetection.cpp

; 347  : 		THitDataMap::iterator itHitData = m_HitDataMap.find(&c_rHitData);

  000f9	89 7d b8	 mov	 DWORD PTR $T24[ebp], edi
; File C:\Program Files (x86)\Microsoft Visual Studio\2019\Community\VC\Tools\MSVC\14.27.29110\include\xtree

; 1458 :         const _Tree_find_result<_Nodeptr> _Loc = _Find_lower_bound(_Keyval);

  000fc	51		 push	 ecx
  000fd	8d 8d 6c ff ff
	ff		 lea	 ecx, DWORD PTR __Loc$7[ebp]
  00103	51		 push	 ecx
  00104	8b c8		 mov	 ecx, eax
  00106	e8 00 00 00 00	 call	 ??$_Find_lower_bound@PBUSHitData@NRaceData@@@?$_Tree@V?$_Tmap_traits@PBUSHitData@NRaceData@@V?$map@PAVCActorInstance@@MU?$less@PAVCActorInstance@@@std@@V?$allocator@U?$pair@QAVCActorInstance@@M@std@@@3@@std@@U?$less@PBUSHitData@NRaceData@@@4@V?$allocator@U?$pair@QBUSHitData@NRaceData@@V?$map@PAVCActorInstance@@MU?$less@PAVCActorInstance@@@std@@V?$allocator@U?$pair@QAVCActorInstance@@M@std@@@3@@std@@@std@@@4@$0A@@std@@@std@@IBE?AU?$_Tree_find_result@PAU?$_Tree_node@U?$pair@QBUSHitData@NRaceData@@V?$map@PAVCActorInstance@@MU?$less@PAVCActorInstance@@@std@@V?$allocator@U?$pair@QAVCActorInstance@@M@std@@@3@@std@@@std@@PAX@std@@@1@ABQBUSHitData@NRaceData@@@Z ; std::_Tree<std::_Tmap_traits<NRaceData::SHitData const *,std::map<CActorInstance *,float,std::less<CActorInstance *>,std::allocator<std::pair<CActorInstance * const,float> > >,std::less<NRaceData::SHitData const *>,std::allocator<std::pair<NRaceData::SHitData const * const,std::map<CActorInstance *,float,std::less<CActorInstance *>,std::allocator<std::pair<CActorInstance * const,float> > > > >,0> >::_Find_lower_bound<NRaceData::SHitData const *>

; 1695 :         return !_Bound->_Isnil && !_DEBUG_LT_PRED(_Getcomp(), _Keyval, _Traits::_Kfn(_Bound->_Myval));

  0010b	8b 85 74 ff ff
	ff		 mov	 eax, DWORD PTR __Loc$7[ebp+8]
  00111	80 78 0d 00	 cmp	 BYTE PTR [eax+13], 0
  00115	75 0a		 jne	 SHORT $LN56@NormalAtta
; File C:\Program Files (x86)\Microsoft Visual Studio\2019\Community\VC\Tools\MSVC\14.27.29110\include\xstddef

; 127  :         return _Left < _Right;

  00117	3b 78 10	 cmp	 edi, DWORD PTR [eax+16]
; File C:\Program Files (x86)\Microsoft Visual Studio\2019\Community\VC\Tools\MSVC\14.27.29110\include\xtree

; 1695 :         return !_Bound->_Isnil && !_DEBUG_LT_PRED(_Getcomp(), _Keyval, _Traits::_Kfn(_Bound->_Myval));

  0011a	72 05		 jb	 SHORT $LN56@NormalAtta

; 1460 :             return _Loc._Bound;

  0011c	8b 4d a4	 mov	 ecx, DWORD PTR _this$1$[ebp]
  0011f	eb 05		 jmp	 SHORT $LN55@NormalAtta
$LN56@NormalAtta:

; 1461 :         }
; 1462 : 
; 1463 :         return _Get_scary()->_Myhead;

  00121	8b 4d a4	 mov	 ecx, DWORD PTR _this$1$[ebp]
  00124	8b 01		 mov	 eax, DWORD PTR [ecx]
$LN55@NormalAtta:

; 39   :     _Tree_unchecked_const_iterator(_Nodeptr _Pnode, const _Mytree* _Plist) noexcept : _Ptr(_Pnode) {

  00126	3b 01		 cmp	 eax, DWORD PTR [ecx]
; File C:\DS Project\DS Files\Source\ClientSource\Client\GameLib\ActorInstanceCollisionDetection.cpp

; 348  : 		if (itHitData != m_HitDataMap.end())

  00128	74 5d		 je	 SHORT $LN21@NormalAtta
; File C:\Program Files (x86)\Microsoft Visual Studio\2019\Community\VC\Tools\MSVC\14.27.29110\include\xtree

; 1458 :         const _Tree_find_result<_Nodeptr> _Loc = _Find_lower_bound(_Keyval);

  0012a	8d 4d b8	 lea	 ecx, DWORD PTR $T23[ebp]
; File C:\DS Project\DS Files\Source\ClientSource\Client\GameLib\ActorInstanceCollisionDetection.cpp

; 353  : 			if ((itInstance=rHittedInstanceMap.find(&rVictim)) != rHittedInstanceMap.end())

  0012d	89 75 b8	 mov	 DWORD PTR $T23[ebp], esi
; File C:\Program Files (x86)\Microsoft Visual Studio\2019\Community\VC\Tools\MSVC\14.27.29110\include\xtree

; 1458 :         const _Tree_find_result<_Nodeptr> _Loc = _Find_lower_bound(_Keyval);

  00130	51		 push	 ecx
; File C:\DS Project\DS Files\Source\ClientSource\Client\GameLib\ActorInstanceCollisionDetection.cpp

; 350  : 			THittedInstanceMap & rHittedInstanceMap = itHitData->second;

  00131	83 c0 14	 add	 eax, 20			; 00000014H
; File C:\Program Files (x86)\Microsoft Visual Studio\2019\Community\VC\Tools\MSVC\14.27.29110\include\xtree

; 1458 :         const _Tree_find_result<_Nodeptr> _Loc = _Find_lower_bound(_Keyval);

  00134	8d 4d e4	 lea	 ecx, DWORD PTR __Loc$32[ebp]
  00137	51		 push	 ecx
  00138	8b c8		 mov	 ecx, eax
; File C:\DS Project\DS Files\Source\ClientSource\Client\GameLib\ActorInstanceCollisionDetection.cpp

; 350  : 			THittedInstanceMap & rHittedInstanceMap = itHitData->second;

  0013a	89 85 7c ff ff
	ff		 mov	 DWORD PTR _rHittedInstanceMap$1$[ebp], eax
; File C:\Program Files (x86)\Microsoft Visual Studio\2019\Community\VC\Tools\MSVC\14.27.29110\include\xtree

; 1458 :         const _Tree_find_result<_Nodeptr> _Loc = _Find_lower_bound(_Keyval);

  00140	e8 00 00 00 00	 call	 ??$_Find_lower_bound@PAVCActorInstance@@@?$_Tree@V?$_Tmap_traits@PAVCActorInstance@@MU?$less@PAVCActorInstance@@@std@@V?$allocator@U?$pair@QAVCActorInstance@@M@std@@@3@$0A@@std@@@std@@IBE?AU?$_Tree_find_result@PAU?$_Tree_node@U?$pair@QAVCActorInstance@@M@std@@PAX@std@@@1@ABQAVCActorInstance@@@Z ; std::_Tree<std::_Tmap_traits<CActorInstance *,float,std::less<CActorInstance *>,std::allocator<std::pair<CActorInstance * const,float> >,0> >::_Find_lower_bound<CActorInstance *>

; 1695 :         return !_Bound->_Isnil && !_DEBUG_LT_PRED(_Getcomp(), _Keyval, _Traits::_Kfn(_Bound->_Myval));

  00145	8b 45 ec	 mov	 eax, DWORD PTR __Loc$32[ebp+8]
  00148	80 78 0d 00	 cmp	 BYTE PTR [eax+13], 0
  0014c	75 39		 jne	 SHORT $LN21@NormalAtta
; File C:\Program Files (x86)\Microsoft Visual Studio\2019\Community\VC\Tools\MSVC\14.27.29110\include\xstddef

; 127  :         return _Left < _Right;

  0014e	3b 70 10	 cmp	 esi, DWORD PTR [eax+16]
; File C:\Program Files (x86)\Microsoft Visual Studio\2019\Community\VC\Tools\MSVC\14.27.29110\include\xtree

; 1695 :         return !_Bound->_Isnil && !_DEBUG_LT_PRED(_Getcomp(), _Keyval, _Traits::_Kfn(_Bound->_Myval));

  00151	72 34		 jb	 SHORT $LN21@NormalAtta

; 39   :     _Tree_unchecked_const_iterator(_Nodeptr _Pnode, const _Mytree* _Plist) noexcept : _Ptr(_Pnode) {

  00153	8b 8d 7c ff ff
	ff		 mov	 ecx, DWORD PTR _rHittedInstanceMap$1$[ebp]
  00159	3b 01		 cmp	 eax, DWORD PTR [ecx]
; File C:\DS Project\DS Files\Source\ClientSource\Client\GameLib\ActorInstanceCollisionDetection.cpp

; 353  : 			if ((itInstance=rHittedInstanceMap.find(&rVictim)) != rHittedInstanceMap.end())

  0015b	74 2a		 je	 SHORT $LN21@NormalAtta

; 354  : 			{
; 355  : 				if (pad->iMotionType==NRaceData::MOTION_TYPE_COMBO || itInstance->second > GetLocalTime())

  0015d	8b 45 a8	 mov	 eax, DWORD PTR _pad$1$[ebp]
  00160	83 78 18 02	 cmp	 DWORD PTR [eax+24], 2
  00164	0f 84 e7 02 00
	00		 je	 $LN2@NormalAtta
  0016a	8b 4d ac	 mov	 ecx, DWORD PTR _this$GSCopy$1$[ebp]
  0016d	e8 00 00 00 00	 call	 ?GetLocalTime@CGraphicThingInstance@@QAEMXZ ; CGraphicThingInstance::GetLocalTime
  00172	8b 45 ec	 mov	 eax, DWORD PTR __Loc$32[ebp+8]
  00175	d9 5d b8	 fstp	 DWORD PTR tv4660[ebp]
  00178	f3 0f 10 40 14	 movss	 xmm0, DWORD PTR [eax+20]
  0017d	0f 2f 45 b8	 comiss	 xmm0, DWORD PTR tv4660[ebp]
  00181	0f 87 c7 02 00
	00		 ja	 $LN650@NormalAtta
$LN21@NormalAtta:

; 361  : 		range_start = c_rHitData.mapHitPosition.lower_bound(motiontime-CTimer::Instance().GetElapsedSecond());

  00187	8b 0d 00 00 00
	00		 mov	 ecx, DWORD PTR ?ms_singleton@?$CSingleton@VCTimer@@@@0PAVCTimer@@A ; CSingleton<CTimer>::ms_singleton
  0018d	e8 00 00 00 00	 call	 ?GetElapsedSecond@CTimer@@QAEMXZ ; CTimer::GetElapsedSecond
; File C:\Program Files (x86)\Microsoft Visual Studio\2019\Community\VC\Tools\MSVC\14.27.29110\include\xtree

; 1701 :         _Tree_find_result<_Nodeptr> _Result{{_Scary->_Myhead->_Parent, _Tree_child::_Right}, _Scary->_Myhead};

  00192	8b 47 24	 mov	 eax, DWORD PTR [edi+36]
  00195	8b d0		 mov	 edx, eax
; File C:\DS Project\DS Files\Source\ClientSource\Client\GameLib\ActorInstanceCollisionDetection.cpp

; 361  : 		range_start = c_rHitData.mapHitPosition.lower_bound(motiontime-CTimer::Instance().GetElapsedSecond());

  00197	d8 ad 78 ff ff
	ff		 fsubr	 DWORD PTR _motiontime$[ebp]
; File C:\Program Files (x86)\Microsoft Visual Studio\2019\Community\VC\Tools\MSVC\14.27.29110\include\xtree

; 1701 :         _Tree_find_result<_Nodeptr> _Result{{_Scary->_Myhead->_Parent, _Tree_child::_Right}, _Scary->_Myhead};

  0019d	89 45 c0	 mov	 DWORD PTR $T2$sroa$2557$2$[ebp], eax
  001a0	8b 48 04	 mov	 ecx, DWORD PTR [eax+4]
; File C:\DS Project\DS Files\Source\ClientSource\Client\GameLib\ActorInstanceCollisionDetection.cpp

; 361  : 		range_start = c_rHitData.mapHitPosition.lower_bound(motiontime-CTimer::Instance().GetElapsedSecond());

  001a3	d9 5d b8	 fstp	 DWORD PTR tv3187[ebp]
; File C:\Program Files (x86)\Microsoft Visual Studio\2019\Community\VC\Tools\MSVC\14.27.29110\include\xtree

; 1703 :         while (!_Trynode->_Isnil) {

  001a6	80 79 0d 00	 cmp	 BYTE PTR [ecx+13], 0
  001aa	75 60		 jne	 SHORT $LN141@NormalAtta
  001ac	f3 0f 10 45 b8	 movss	 xmm0, DWORD PTR tv3187[ebp]
  001b1	8b c1		 mov	 eax, ecx
$LL140@NormalAtta:
; File C:\Program Files (x86)\Microsoft Visual Studio\2019\Community\VC\Tools\MSVC\14.27.29110\include\xstddef

; 127  :         return _Left < _Right;

  001b3	0f 2f 40 10	 comiss	 xmm0, DWORD PTR [eax+16]
; File C:\Program Files (x86)\Microsoft Visual Studio\2019\Community\VC\Tools\MSVC\14.27.29110\include\xtree

; 1705 :             if (_DEBUG_LT_PRED(_Getcomp(), _Traits::_Kfn(_Trynode->_Myval), _Keyval)) {

  001b7	76 05		 jbe	 SHORT $LN142@NormalAtta

; 1706 :                 _Result._Location._Child = _Tree_child::_Right;
; 1707 :                 _Trynode                 = _Trynode->_Right;

  001b9	8b 40 08	 mov	 eax, DWORD PTR [eax+8]

; 1708 :             } else {

  001bc	eb 04		 jmp	 SHORT $LN143@NormalAtta
$LN142@NormalAtta:

; 1709 :                 _Result._Location._Child = _Tree_child::_Left;
; 1710 :                 _Result._Bound           = _Trynode;

  001be	8b d0		 mov	 edx, eax

; 1711 :                 _Trynode                 = _Trynode->_Left;

  001c0	8b 00		 mov	 eax, DWORD PTR [eax]
$LN143@NormalAtta:

; 1703 :         while (!_Trynode->_Isnil) {

  001c2	80 78 0d 00	 cmp	 BYTE PTR [eax+13], 0
  001c6	74 eb		 je	 SHORT $LL140@NormalAtta
; File C:\DS Project\DS Files\Source\ClientSource\Client\GameLib\ActorInstanceCollisionDetection.cpp

; 398  : 				for(dsit = c_DefendingSphereVector.begin(); dsit!= c_DefendingSphereVector.end();++dsit, ++index)

  001c8	f3 0f 10 8d 78
	ff ff ff	 movss	 xmm1, DWORD PTR _motiontime$[ebp]
  001d0	8b f2		 mov	 esi, edx
  001d2	8b 45 c0	 mov	 eax, DWORD PTR $T2$sroa$2557$2$[ebp]
$LL154@NormalAtta:
; File C:\Program Files (x86)\Microsoft Visual Studio\2019\Community\VC\Tools\MSVC\14.27.29110\include\xstddef

; 127  :         return _Left < _Right;

  001d5	f3 0f 10 41 10	 movss	 xmm0, DWORD PTR [ecx+16]
; File C:\Program Files (x86)\Microsoft Visual Studio\2019\Community\VC\Tools\MSVC\14.27.29110\include\xtree

; 1680 :             if (_DEBUG_LT_PRED(_Getcomp(), _Keyval, _Traits::_Kfn(_Trynode->_Myval))) {

  001da	8b f9		 mov	 edi, ecx
; File C:\Program Files (x86)\Microsoft Visual Studio\2019\Community\VC\Tools\MSVC\14.27.29110\include\xstddef

; 127  :         return _Left < _Right;

  001dc	0f 2f c1	 comiss	 xmm0, xmm1
; File C:\Program Files (x86)\Microsoft Visual Studio\2019\Community\VC\Tools\MSVC\14.27.29110\include\xtree

; 1680 :             if (_DEBUG_LT_PRED(_Getcomp(), _Keyval, _Traits::_Kfn(_Trynode->_Myval))) {

  001df	89 45 b8	 mov	 DWORD PTR tv4492[ebp], eax
; File C:\Program Files (x86)\Microsoft Visual Studio\2019\Community\VC\Tools\MSVC\14.27.29110\include\xstddef

; 127  :         return _Left < _Right;

  001e2	0f 97 c0	 seta	 al
; File C:\Program Files (x86)\Microsoft Visual Studio\2019\Community\VC\Tools\MSVC\14.27.29110\include\xtree

; 1680 :             if (_DEBUG_LT_PRED(_Getcomp(), _Keyval, _Traits::_Kfn(_Trynode->_Myval))) {

  001e5	84 c0		 test	 al, al
  001e7	74 04		 je	 SHORT $LN156@NormalAtta

; 1681 :                 _Result._Location._Child = _Tree_child::_Left;
; 1682 :                 _Result._Bound           = _Trynode;
; 1683 :                 _Trynode                 = _Trynode->_Left;

  001e9	8b 09		 mov	 ecx, DWORD PTR [ecx]

; 1684 :             } else {

  001eb	eb 03		 jmp	 SHORT $LN157@NormalAtta
$LN156@NormalAtta:

; 1685 :                 _Result._Location._Child = _Tree_child::_Right;
; 1686 :                 _Trynode                 = _Trynode->_Right;

  001ed	8b 49 08	 mov	 ecx, DWORD PTR [ecx+8]
$LN157@NormalAtta:

; 1677 :         _Nodeptr _Trynode = _Result._Location._Parent;
; 1678 :         while (!_Trynode->_Isnil) {

  001f0	84 c0		 test	 al, al
  001f2	89 7d c0	 mov	 DWORD PTR $T2$sroa$2557$2$[ebp], edi
  001f5	8b c7		 mov	 eax, edi
  001f7	0f 44 45 b8	 cmove	 eax, DWORD PTR tv4492[ebp]
  001fb	80 79 0d 00	 cmp	 BYTE PTR [ecx+13], 0
  001ff	89 45 c0	 mov	 DWORD PTR $T2$sroa$2557$2$[ebp], eax
  00202	74 d1		 je	 SHORT $LL154@NormalAtta
; File C:\DS Project\DS Files\Source\ClientSource\Client\GameLib\ActorInstanceCollisionDetection.cpp

; 398  : 				for(dsit = c_DefendingSphereVector.begin(); dsit!= c_DefendingSphereVector.end();++dsit, ++index)

  00204	8b 7d c4	 mov	 edi, DWORD PTR _itorHitData$1$[ebp]
  00207	89 55 80	 mov	 DWORD PTR $T1$sroa$2558$3$[ebp], edx
  0020a	eb 08		 jmp	 SHORT $LN653@NormalAtta
$LN141@NormalAtta:

; 361  : 		range_start = c_rHitData.mapHitPosition.lower_bound(motiontime-CTimer::Instance().GetElapsedSecond());

  0020c	8b f2		 mov	 esi, edx
; File C:\Program Files (x86)\Microsoft Visual Studio\2019\Community\VC\Tools\MSVC\14.27.29110\include\xtree

; 1676 :         _Tree_find_result<_Nodeptr> _Result{{_Scary->_Myhead->_Parent, _Tree_child::_Right}, _Scary->_Myhead};

  0020e	89 45 c0	 mov	 DWORD PTR $T2$sroa$2557$2$[ebp], eax
  00211	89 45 80	 mov	 DWORD PTR $T1$sroa$2558$3$[ebp], eax
$LN653@NormalAtta:
; File C:\DS Project\DS Files\Source\ClientSource\Client\GameLib\ActorInstanceCollisionDetection.cpp

; 363  : 		float c = cosf(D3DXToRadian(GetRotation()));

  00214	8b 4d ac	 mov	 ecx, DWORD PTR _this$GSCopy$1$[ebp]
  00217	89 75 bc	 mov	 DWORD PTR _range_start$2$[ebp], esi
  0021a	e8 00 00 00 00	 call	 ?GetRotation@CActorInstance@@QAEMXZ ; CActorInstance::GetRotation
  0021f	d8 0d 00 00 00
	00		 fmul	 DWORD PTR __real@3c8efa35
  00225	d9 5d b8	 fstp	 DWORD PTR __X$[ebp]
  00228	f3 0f 10 45 b8	 movss	 xmm0, DWORD PTR __X$[ebp]
; File C:\Program Files (x86)\Windows Kits\10\Include\10.0.18362.0\ucrt\corecrt_math.h

; 649  :             return (float)cos(_X);

  0022d	0f 5a c0	 cvtps2pd xmm0, xmm0
  00230	e8 00 00 00 00	 call	 __libm_sse2_cos_precise
; File C:\DS Project\DS Files\Source\ClientSource\Client\GameLib\ActorInstanceCollisionDetection.cpp

; 364  : 		float s = sinf(D3DXToRadian(GetRotation()));

  00235	8b 4d ac	 mov	 ecx, DWORD PTR _this$GSCopy$1$[ebp]
; File C:\Program Files (x86)\Windows Kits\10\Include\10.0.18362.0\ucrt\corecrt_math.h

; 649  :             return (float)cos(_X);

  00238	f2 0f 5a c0	 cvtsd2ss xmm0, xmm0
  0023c	f3 0f 11 85 7c
	ff ff ff	 movss	 DWORD PTR _c$1$[ebp], xmm0
; File C:\DS Project\DS Files\Source\ClientSource\Client\GameLib\ActorInstanceCollisionDetection.cpp

; 364  : 		float s = sinf(D3DXToRadian(GetRotation()));

  00244	e8 00 00 00 00	 call	 ?GetRotation@CActorInstance@@QAEMXZ ; CActorInstance::GetRotation
  00249	d8 0d 00 00 00
	00		 fmul	 DWORD PTR __real@3c8efa35
  0024f	d9 5d b8	 fstp	 DWORD PTR __X$[ebp]
  00252	f3 0f 10 45 b8	 movss	 xmm0, DWORD PTR __X$[ebp]
; File C:\Program Files (x86)\Windows Kits\10\Include\10.0.18362.0\ucrt\corecrt_math.h

; 750  :             return (float)sin(_X);

  00257	0f 5a c0	 cvtps2pd xmm0, xmm0
  0025a	e8 00 00 00 00	 call	 __libm_sse2_sin_precise
; File C:\Program Files (x86)\Microsoft Visual Studio\2019\Community\VC\Tools\MSVC\14.27.29110\include\xtree

; 232  :         return this->_Ptr == _Right._Ptr;

  0025f	8b 45 c0	 mov	 eax, DWORD PTR $T2$sroa$2557$2$[ebp]
; File C:\Program Files (x86)\Windows Kits\10\Include\10.0.18362.0\ucrt\corecrt_math.h

; 750  :             return (float)sin(_X);

  00262	f2 0f 5a c0	 cvtsd2ss xmm0, xmm0
  00266	f3 0f 11 45 b8	 movss	 DWORD PTR _s$1$[ebp], xmm0
; File C:\Program Files (x86)\Microsoft Visual Studio\2019\Community\VC\Tools\MSVC\14.27.29110\include\xtree

; 232  :         return this->_Ptr == _Right._Ptr;

  0026b	39 45 80	 cmp	 DWORD PTR $T1$sroa$2558$3$[ebp], eax
; File C:\DS Project\DS Files\Source\ClientSource\Client\GameLib\ActorInstanceCollisionDetection.cpp

; 366  : 		for(;range_start!=range_end;++range_start)

  0026e	0f 84 d7 01 00
	00		 je	 $LN649@NormalAtta
$LL175@NormalAtta:

; 367  : 		{
; 368  : 			const CDynamicSphereInstance& dsiSrc=range_start->second;
; 369  : 
; 370  : 			CDynamicSphereInstance dsi;
; 371  : 			dsi = dsiSrc;

  00274	0f 10 46 14	 movups	 xmm0, XMMWORD PTR [esi+20]

; 375  : 				v3SrcDir*=__GetReachScale();

  00278	8b 7d ac	 mov	 edi, DWORD PTR _this$GSCopy$1$[ebp]
  0027b	8b cf		 mov	 ecx, edi
  0027d	c7 45 e0 00 00
	a0 41		 mov	 DWORD PTR _dsi$31[ebp+24], 1101004800 ; 41a00000H
  00284	0f 11 45 c8	 movups	 XMMWORD PTR _dsi$31[ebp], xmm0
  00288	f3 0f 7e 46 24	 movq	 xmm0, QWORD PTR [esi+36]
  0028d	66 0f d6 45 d8	 movq	 QWORD PTR _dsi$31[ebp+16], xmm0
; File C:\DS Project\DS Files\Source\ClientSource\extern\include\d3dx8math.inl

; 263  :     return D3DXVECTOR3(x - v.x, y - v.y, z - v.z);

  00292	f3 0f 10 46 14	 movss	 xmm0, DWORD PTR [esi+20]
  00297	f3 0f 5c 46 20	 subss	 xmm0, DWORD PTR [esi+32]
  0029c	f3 0f 11 45 94	 movss	 DWORD PTR _fx$1$[ebp], xmm0
  002a1	f3 0f 10 46 18	 movss	 xmm0, DWORD PTR [esi+24]
  002a6	f3 0f 5c 46 24	 subss	 xmm0, DWORD PTR [esi+36]
  002ab	f3 0f 11 45 8c	 movss	 DWORD PTR _fy$1$[ebp], xmm0
; File C:\DS Project\DS Files\Source\ClientSource\Client\GameLib\ActorInstanceCollisionDetection.cpp

; 375  : 				v3SrcDir*=__GetReachScale();

  002b0	e8 00 00 00 00	 call	 ?__GetReachScale@CActorInstance@@IAEMXZ ; CActorInstance::__GetReachScale
  002b5	f3 0f 10 5d 94	 movss	 xmm3, DWORD PTR _fx$1$[ebp]

; 381  : 				v3Dst += GetPosition();

  002ba	8b cf		 mov	 ecx, edi
; File C:\DS Project\DS Files\Source\ClientSource\extern\include\d3dx8math.inl

; 222  :     x *= f;

  002bc	f3 0f 10 55 8c	 movss	 xmm2, DWORD PTR _fy$1$[ebp]
; File C:\DS Project\DS Files\Source\ClientSource\Client\GameLib\ActorInstanceCollisionDetection.cpp

; 375  : 				v3SrcDir*=__GetReachScale();

  002c1	d9 5d 80	 fstp	 DWORD PTR tv273[ebp]
  002c4	f3 0f 59 5d 80	 mulss	 xmm3, DWORD PTR tv273[ebp]
; File C:\DS Project\DS Files\Source\ClientSource\extern\include\d3dx8math.inl

; 222  :     x *= f;

  002c9	f3 0f 59 55 80	 mulss	 xmm2, DWORD PTR tv273[ebp]

; 257  :     return D3DXVECTOR3(x + v.x, y + v.y, z + v.z);

  002ce	f3 0f 58 5e 20	 addss	 xmm3, DWORD PTR [esi+32]
  002d3	f3 0f 58 56 24	 addss	 xmm2, DWORD PTR [esi+36]
; File C:\DS Project\DS Files\Source\ClientSource\Client\GameLib\ActorInstanceCollisionDetection.cpp

; 379  : 				v3Dst.x = v3Src.x * c - v3Src.y * s;

  002d8	0f 28 cb	 movaps	 xmm1, xmm3

; 380  : 				v3Dst.y = v3Src.x * s + v3Src.y * c;

  002db	f3 0f 59 5d b8	 mulss	 xmm3, DWORD PTR _s$1$[ebp]
  002e0	f3 0f 59 8d 7c
	ff ff ff	 mulss	 xmm1, DWORD PTR _c$1$[ebp]
  002e8	0f 28 c2	 movaps	 xmm0, xmm2
  002eb	f3 0f 59 45 b8	 mulss	 xmm0, DWORD PTR _s$1$[ebp]
  002f0	f3 0f 59 95 7c
	ff ff ff	 mulss	 xmm2, DWORD PTR _c$1$[ebp]
  002f8	f3 0f 5c c8	 subss	 xmm1, xmm0
  002fc	f3 0f 58 da	 addss	 xmm3, xmm2
  00300	f3 0f 11 4d c8	 movss	 DWORD PTR _dsi$31[ebp], xmm1
  00305	f3 0f 11 5d cc	 movss	 DWORD PTR _dsi$31[ebp+4], xmm3

; 381  : 				v3Dst += GetPosition();

  0030a	e8 00 00 00 00	 call	 ?GetPosition@CGraphicObjectInstance@@QBEABUD3DXVECTOR3@@XZ ; CGraphicObjectInstance::GetPosition

; 386  : 				v3Dst.x = v3Src.x * c - v3Src.y * s;

  0030f	f3 0f 10 5e 20	 movss	 xmm3, DWORD PTR [esi+32]

; 388  : 				v3Dst += GetPosition();

  00314	8b cf		 mov	 ecx, edi
  00316	f3 0f 10 56 24	 movss	 xmm2, DWORD PTR [esi+36]
  0031b	0f 28 cb	 movaps	 xmm1, xmm3
  0031e	f3 0f 59 8d 7c
	ff ff ff	 mulss	 xmm1, DWORD PTR _c$1$[ebp]
; File C:\DS Project\DS Files\Source\ClientSource\extern\include\d3dx8math.inl

; 204  :     x += v.x;

  00326	f3 0f 10 00	 movss	 xmm0, DWORD PTR [eax]
  0032a	f3 0f 58 45 c8	 addss	 xmm0, DWORD PTR _dsi$31[ebp]
; File C:\DS Project\DS Files\Source\ClientSource\Client\GameLib\ActorInstanceCollisionDetection.cpp

; 387  : 				v3Dst.y = v3Src.x * s + v3Src.y * c;

  0032f	f3 0f 59 5d b8	 mulss	 xmm3, DWORD PTR _s$1$[ebp]
; File C:\DS Project\DS Files\Source\ClientSource\extern\include\d3dx8math.inl

; 204  :     x += v.x;

  00334	f3 0f 11 45 c8	 movss	 DWORD PTR _dsi$31[ebp], xmm0

; 205  :     y += v.y;

  00339	f3 0f 10 40 04	 movss	 xmm0, DWORD PTR [eax+4]
  0033e	f3 0f 58 45 cc	 addss	 xmm0, DWORD PTR _dsi$31[ebp+4]
  00343	f3 0f 11 45 cc	 movss	 DWORD PTR _dsi$31[ebp+4], xmm0

; 206  :     z += v.z;

  00348	f3 0f 10 40 08	 movss	 xmm0, DWORD PTR [eax+8]
  0034d	f3 0f 58 45 d0	 addss	 xmm0, DWORD PTR _dsi$31[ebp+8]
  00352	f3 0f 11 45 d0	 movss	 DWORD PTR _dsi$31[ebp+8], xmm0
; File C:\DS Project\DS Files\Source\ClientSource\Client\GameLib\ActorInstanceCollisionDetection.cpp

; 386  : 				v3Dst.x = v3Src.x * c - v3Src.y * s;

  00357	0f 28 c2	 movaps	 xmm0, xmm2
  0035a	f3 0f 59 45 b8	 mulss	 xmm0, DWORD PTR _s$1$[ebp]

; 387  : 				v3Dst.y = v3Src.x * s + v3Src.y * c;

  0035f	f3 0f 59 95 7c
	ff ff ff	 mulss	 xmm2, DWORD PTR _c$1$[ebp]
  00367	f3 0f 5c c8	 subss	 xmm1, xmm0
  0036b	f3 0f 58 d3	 addss	 xmm2, xmm3
  0036f	f3 0f 11 4d d4	 movss	 DWORD PTR _dsi$31[ebp+12], xmm1
  00374	f3 0f 11 55 d8	 movss	 DWORD PTR _dsi$31[ebp+16], xmm2

; 388  : 				v3Dst += GetPosition();

  00379	e8 00 00 00 00	 call	 ?GetPosition@CGraphicObjectInstance@@QBEABUD3DXVECTOR3@@XZ ; CGraphicObjectInstance::GetPosition
; File C:\DS Project\DS Files\Source\ClientSource\extern\include\d3dx8math.inl

; 204  :     x += v.x;

  0037e	f3 0f 10 00	 movss	 xmm0, DWORD PTR [eax]
  00382	f3 0f 58 45 d4	 addss	 xmm0, DWORD PTR _dsi$31[ebp+12]
  00387	f3 0f 11 45 d4	 movss	 DWORD PTR _dsi$31[ebp+12], xmm0

; 205  :     y += v.y;

  0038c	f3 0f 10 40 04	 movss	 xmm0, DWORD PTR [eax+4]
  00391	f3 0f 58 45 d8	 addss	 xmm0, DWORD PTR _dsi$31[ebp+16]
  00396	f3 0f 11 45 d8	 movss	 DWORD PTR _dsi$31[ebp+16], xmm0

; 206  :     z += v.z;

  0039b	f3 0f 10 40 08	 movss	 xmm0, DWORD PTR [eax+8]
; File C:\Program Files (x86)\Microsoft Visual Studio\2019\Community\VC\Tools\MSVC\14.27.29110\include\list

; 1092 :         return iterator(_Mypair._Myval2._Myhead->_Next, _STD addressof(_Mypair._Myval2));

  003a0	8b 45 b0	 mov	 eax, DWORD PTR _rVictim$GSCopy$1$[ebp]
; File C:\DS Project\DS Files\Source\ClientSource\extern\include\d3dx8math.inl

; 206  :     z += v.z;

  003a3	f3 0f 58 45 dc	 addss	 xmm0, DWORD PTR _dsi$31[ebp+20]
; File C:\Program Files (x86)\Microsoft Visual Studio\2019\Community\VC\Tools\MSVC\14.27.29110\include\list

; 1092 :         return iterator(_Mypair._Myval2._Myhead->_Next, _STD addressof(_Mypair._Myval2));

  003a8	8b 80 40 03 00
	00		 mov	 eax, DWORD PTR [eax+832]
; File C:\DS Project\DS Files\Source\ClientSource\extern\include\d3dx8math.inl

; 206  :     z += v.z;

  003ae	f3 0f 11 45 dc	 movss	 DWORD PTR _dsi$31[ebp+20], xmm0
; File C:\Program Files (x86)\Microsoft Visual Studio\2019\Community\VC\Tools\MSVC\14.27.29110\include\list

; 39   :     _List_unchecked_const_iterator(_Nodeptr _Pnode, const _Mylist* _Plist) noexcept : _Ptr(_Pnode) {

  003b3	8b 38		 mov	 edi, DWORD PTR [eax]
  003b5	3b f8		 cmp	 edi, eax
; File C:\DS Project\DS Files\Source\ClientSource\Client\GameLib\ActorInstanceCollisionDetection.cpp

; 393  : 			for(cpit = rVictim.m_DefendingPointInstanceList.begin(); cpit!=rVictim.m_DefendingPointInstanceList.end();++cpit)

  003b7	74 3c		 je	 SHORT $LN5@NormalAtta
  003b9	8b 45 b0	 mov	 eax, DWORD PTR _rVictim$GSCopy$1$[ebp]
  003bc	0f 1f 40 00	 npad	 4
$LL10@NormalAtta:
; File C:\Program Files (x86)\Microsoft Visual Studio\2019\Community\VC\Tools\MSVC\14.27.29110\include\vector

; 42   :     _Vector_const_iterator(_Tptr _Parg, const _Container_base* _Pvector) noexcept : _Ptr(_Parg) {

  003c0	8b 77 18	 mov	 esi, DWORD PTR [edi+24]

; 149  :         return _Ptr == _Right._Ptr;

  003c3	3b 77 1c	 cmp	 esi, DWORD PTR [edi+28]
; File C:\DS Project\DS Files\Source\ClientSource\Client\GameLib\ActorInstanceCollisionDetection.cpp

; 398  : 				for(dsit = c_DefendingSphereVector.begin(); dsit!= c_DefendingSphereVector.end();++dsit, ++index)

  003c6	74 20		 je	 SHORT $LN8@NormalAtta
$LL13@NormalAtta:

; 399  : 				{
; 400  : 					const CDynamicSphereInstance& sub = *dsit;
; 401  : 					if (DetectCollisionDynamicZCylinderVSDynamicZCylinder(dsi, sub))

  003c8	8d 45 c8	 lea	 eax, DWORD PTR _dsi$31[ebp]
  003cb	56		 push	 esi
  003cc	50		 push	 eax
  003cd	e8 00 00 00 00	 call	 ?DetectCollisionDynamicZCylinderVSDynamicZCylinder@@YA_NABUCDynamicSphereInstance@@0@Z ; DetectCollisionDynamicZCylinderVSDynamicZCylinder
  003d2	83 c4 08	 add	 esp, 8
  003d5	84 c0		 test	 al, al
  003d7	0f 85 8b 00 00
	00		 jne	 $LN608@NormalAtta
; File C:\Program Files (x86)\Microsoft Visual Studio\2019\Community\VC\Tools\MSVC\14.27.29110\include\vector

; 75   :         ++_Ptr;

  003dd	83 c6 1c	 add	 esi, 28			; 0000001cH

; 149  :         return _Ptr == _Right._Ptr;

  003e0	3b 77 1c	 cmp	 esi, DWORD PTR [edi+28]
; File C:\DS Project\DS Files\Source\ClientSource\Client\GameLib\ActorInstanceCollisionDetection.cpp

; 398  : 				for(dsit = c_DefendingSphereVector.begin(); dsit!= c_DefendingSphereVector.end();++dsit, ++index)

  003e3	75 e3		 jne	 SHORT $LL13@NormalAtta
  003e5	8b 45 b0	 mov	 eax, DWORD PTR _rVictim$GSCopy$1$[ebp]
$LN8@NormalAtta:
; File C:\Program Files (x86)\Microsoft Visual Studio\2019\Community\VC\Tools\MSVC\14.27.29110\include\list

; 166  :         this->_Ptr = this->_Ptr->_Next;

  003e8	8b 3f		 mov	 edi, DWORD PTR [edi]

; 199  :         return this->_Ptr == _Right._Ptr;

  003ea	3b b8 40 03 00
	00		 cmp	 edi, DWORD PTR [eax+832]
; File C:\DS Project\DS Files\Source\ClientSource\Client\GameLib\ActorInstanceCollisionDetection.cpp

; 393  : 			for(cpit = rVictim.m_DefendingPointInstanceList.begin(); cpit!=rVictim.m_DefendingPointInstanceList.end();++cpit)

  003f0	75 ce		 jne	 SHORT $LL10@NormalAtta
  003f2	8b 75 bc	 mov	 esi, DWORD PTR _range_start$2$[ebp]
$LN5@NormalAtta:
; File C:\Program Files (x86)\Microsoft Visual Studio\2019\Community\VC\Tools\MSVC\14.27.29110\include\xtree

; 52   :         if (_Ptr->_Right->_Isnil) { // climb looking for right subtree

  003f5	8b 46 08	 mov	 eax, DWORD PTR [esi+8]
  003f8	80 78 0d 00	 cmp	 BYTE PTR [eax+13], 0
  003fc	74 20		 je	 SHORT $LN174@NormalAtta

; 53   :             _Nodeptr _Pnode;
; 54   :             while (!(_Pnode = _Ptr->_Parent)->_Isnil && _Ptr == _Pnode->_Right) {

  003fe	8b 46 04	 mov	 eax, DWORD PTR [esi+4]
  00401	80 78 0d 00	 cmp	 BYTE PTR [eax+13], 0
  00405	75 10		 jne	 SHORT $LN648@NormalAtta
$LL172@NormalAtta:
  00407	3b 70 08	 cmp	 esi, DWORD PTR [eax+8]
  0040a	75 0b		 jne	 SHORT $LN648@NormalAtta

; 55   :                 _Ptr = _Pnode; // ==> parent while right subtree

  0040c	8b f0		 mov	 esi, eax
  0040e	8b 40 04	 mov	 eax, DWORD PTR [eax+4]
  00411	80 78 0d 00	 cmp	 BYTE PTR [eax+13], 0
  00415	74 f0		 je	 SHORT $LL172@NormalAtta
$LN648@NormalAtta:

; 56   :             }
; 57   : 
; 58   :             _Ptr = _Pnode; // ==> parent (head if end())

  00417	8b f0		 mov	 esi, eax
  00419	89 75 bc	 mov	 DWORD PTR _range_start$2$[ebp], esi

; 59   :         } else {

  0041c	eb 21		 jmp	 SHORT $LN179@NormalAtta
$LN174@NormalAtta:

; 60   :             _Ptr = _Mytree::_Min(_Ptr->_Right); // ==> smallest of right subtree

  0041e	8b f0		 mov	 esi, eax
  00420	89 75 bc	 mov	 DWORD PTR _range_start$2$[ebp], esi

; 451  :         while (!_Pnode->_Left->_Isnil) {

  00423	8b 0e		 mov	 ecx, DWORD PTR [esi]
  00425	80 79 0d 00	 cmp	 BYTE PTR [ecx+13], 0
  00429	75 14		 jne	 SHORT $LN179@NormalAtta
  0042b	0f 1f 44 00 00	 npad	 5
$LL178@NormalAtta:
  00430	8b 01		 mov	 eax, DWORD PTR [ecx]

; 452  :             _Pnode = _Pnode->_Left;

  00432	8b f1		 mov	 esi, ecx
  00434	89 75 bc	 mov	 DWORD PTR _range_start$2$[ebp], esi
  00437	8b c8		 mov	 ecx, eax
  00439	80 78 0d 00	 cmp	 BYTE PTR [eax+13], 0
  0043d	74 f1		 je	 SHORT $LL178@NormalAtta
$LN179@NormalAtta:

; 232  :         return this->_Ptr == _Right._Ptr;

  0043f	3b 75 c0	 cmp	 esi, DWORD PTR $T2$sroa$2557$2$[ebp]
; File C:\DS Project\DS Files\Source\ClientSource\Client\GameLib\ActorInstanceCollisionDetection.cpp

; 366  : 		for(;range_start!=range_end;++range_start)

  00442	0f 85 2c fe ff
	ff		 jne	 $LL175@NormalAtta
  00448	8b 7d c4	 mov	 edi, DWORD PTR _itorHitData$1$[ebp]
$LN649@NormalAtta:
; File C:\Program Files (x86)\Microsoft Visual Studio\2019\Community\VC\Tools\MSVC\14.27.29110\include\vector

; 75   :         ++_Ptr;

  0044b	8b 75 b0	 mov	 esi, DWORD PTR _rVictim$GSCopy$1$[ebp]
$LN650@NormalAtta:
  0044e	8b 45 a8	 mov	 eax, DWORD PTR _pad$1$[ebp]
$LN2@NormalAtta:
  00451	83 c7 2c	 add	 edi, 44			; 0000002cH
  00454	89 7d c4	 mov	 DWORD PTR _itorHitData$1$[ebp], edi

; 149  :         return _Ptr == _Right._Ptr;

  00457	3b 78 20	 cmp	 edi, DWORD PTR [eax+32]
; File C:\DS Project\DS Files\Source\ClientSource\Client\GameLib\ActorInstanceCollisionDetection.cpp

; 343  : 	for (; itorHitData != pad->HitDataContainer.end(); ++itorHitData)

  0045a	0f 84 2f fc ff
	ff		 je	 $LN647@NormalAtta
  00460	8b 45 a4	 mov	 eax, DWORD PTR _this$1$[ebp]
  00463	e9 8e fc ff ff	 jmp	 $LL4@NormalAtta
$LN608@NormalAtta:

; 403  : 						THitDataMap::iterator itHitData = m_HitDataMap.find(&c_rHitData);

  00468	8b 7d c4	 mov	 edi, DWORD PTR _itorHitData$1$[ebp]
; File C:\Program Files (x86)\Microsoft Visual Studio\2019\Community\VC\Tools\MSVC\14.27.29110\include\xtree

; 1458 :         const _Tree_find_result<_Nodeptr> _Loc = _Find_lower_bound(_Keyval);

  0046b	8d 45 8c	 lea	 eax, DWORD PTR $T15[ebp]
  0046e	8b 4d a4	 mov	 ecx, DWORD PTR _this$1$[ebp]
  00471	50		 push	 eax
  00472	8d 85 6c ff ff
	ff		 lea	 eax, DWORD PTR __Loc$6[ebp]
; File C:\DS Project\DS Files\Source\ClientSource\Client\GameLib\ActorInstanceCollisionDetection.cpp

; 403  : 						THitDataMap::iterator itHitData = m_HitDataMap.find(&c_rHitData);

  00478	89 7d 8c	 mov	 DWORD PTR $T15[ebp], edi
; File C:\Program Files (x86)\Microsoft Visual Studio\2019\Community\VC\Tools\MSVC\14.27.29110\include\xtree

; 1458 :         const _Tree_find_result<_Nodeptr> _Loc = _Find_lower_bound(_Keyval);

  0047b	50		 push	 eax
  0047c	e8 00 00 00 00	 call	 ??$_Find_lower_bound@PBUSHitData@NRaceData@@@?$_Tree@V?$_Tmap_traits@PBUSHitData@NRaceData@@V?$map@PAVCActorInstance@@MU?$less@PAVCActorInstance@@@std@@V?$allocator@U?$pair@QAVCActorInstance@@M@std@@@3@@std@@U?$less@PBUSHitData@NRaceData@@@4@V?$allocator@U?$pair@QBUSHitData@NRaceData@@V?$map@PAVCActorInstance@@MU?$less@PAVCActorInstance@@@std@@V?$allocator@U?$pair@QAVCActorInstance@@M@std@@@3@@std@@@std@@@4@$0A@@std@@@std@@IBE?AU?$_Tree_find_result@PAU?$_Tree_node@U?$pair@QBUSHitData@NRaceData@@V?$map@PAVCActorInstance@@MU?$less@PAVCActorInstance@@@std@@V?$allocator@U?$pair@QAVCActorInstance@@M@std@@@3@@std@@@std@@PAX@std@@@1@ABQBUSHitData@NRaceData@@@Z ; std::_Tree<std::_Tmap_traits<NRaceData::SHitData const *,std::map<CActorInstance *,float,std::less<CActorInstance *>,std::allocator<std::pair<CActorInstance * const,float> > >,std::less<NRaceData::SHitData const *>,std::allocator<std::pair<NRaceData::SHitData const * const,std::map<CActorInstance *,float,std::less<CActorInstance *>,std::allocator<std::pair<CActorInstance * const,float> > > > >,0> >::_Find_lower_bound<NRaceData::SHitData const *>

; 1695 :         return !_Bound->_Isnil && !_DEBUG_LT_PRED(_Getcomp(), _Keyval, _Traits::_Kfn(_Bound->_Myval));

  00481	8b 85 74 ff ff
	ff		 mov	 eax, DWORD PTR __Loc$6[ebp+8]
  00487	89 45 b8	 mov	 DWORD PTR $T21[ebp], eax
  0048a	80 78 0d 00	 cmp	 BYTE PTR [eax+13], 0
  0048e	75 05		 jne	 SHORT $LN258@NormalAtta
; File C:\Program Files (x86)\Microsoft Visual Studio\2019\Community\VC\Tools\MSVC\14.27.29110\include\xstddef

; 127  :         return _Left < _Right;

  00490	3b 78 10	 cmp	 edi, DWORD PTR [eax+16]
; File C:\Program Files (x86)\Microsoft Visual Studio\2019\Community\VC\Tools\MSVC\14.27.29110\include\xtree

; 1695 :         return !_Bound->_Isnil && !_DEBUG_LT_PRED(_Getcomp(), _Keyval, _Traits::_Kfn(_Bound->_Myval));

  00493	73 08		 jae	 SHORT $LN257@NormalAtta
$LN258@NormalAtta:

; 1463 :         return _Get_scary()->_Myhead;

  00495	8b 45 a4	 mov	 eax, DWORD PTR _this$1$[ebp]
  00498	8b 00		 mov	 eax, DWORD PTR [eax]
  0049a	89 45 b8	 mov	 DWORD PTR $T21[ebp], eax
$LN257@NormalAtta:

; 39   :     _Tree_unchecked_const_iterator(_Nodeptr _Pnode, const _Mytree* _Plist) noexcept : _Ptr(_Pnode) {

  0049d	8b 4d a4	 mov	 ecx, DWORD PTR _this$1$[ebp]
  004a0	3b 01		 cmp	 eax, DWORD PTR [ecx]
; File C:\DS Project\DS Files\Source\ClientSource\Client\GameLib\ActorInstanceCollisionDetection.cpp

; 404  : 						if (itHitData == m_HitDataMap.end())

  004a2	0f 85 24 03 00
	00		 jne	 $LN24@NormalAtta
; File C:\Program Files (x86)\Microsoft Visual Studio\2019\Community\VC\Tools\MSVC\14.27.29110\include\xmemory

; 807  :         return static_cast<_Ty*>(_Allocate<_New_alignof<_Ty>>(_Get_size_of_n<sizeof(_Ty)>(_Count)));

  004a8	6a 18		 push	 24			; 00000018H
; File C:\Program Files (x86)\Microsoft Visual Studio\2019\Community\VC\Tools\MSVC\14.27.29110\include\xtree

; 435  :     _Tree_val() noexcept : _Myhead(), _Mysize(0) {}

  004aa	c7 45 90 00 00
	00 00		 mov	 DWORD PTR _HittedInstanceMap$17[ebp], 0
  004b1	c7 45 94 00 00
	00 00		 mov	 DWORD PTR _HittedInstanceMap$17[ebp+4], 0
; File C:\Program Files (x86)\Microsoft Visual Studio\2019\Community\VC\Tools\MSVC\14.27.29110\include\xmemory

; 807  :         return static_cast<_Ty*>(_Allocate<_New_alignof<_Ty>>(_Get_size_of_n<sizeof(_Ty)>(_Count)));

  004b8	e8 00 00 00 00	 call	 ??$_Allocate@$07U_Default_allocate_traits@std@@$0A@@std@@YAPAXI@Z ; std::_Allocate<8,std::_Default_allocate_traits,0>
; File C:\Program Files (x86)\Microsoft Visual Studio\2019\Community\VC\Tools\MSVC\14.27.29110\include\xtree

; 344  :         _Construct_in_place(_Pnode->_Left, _Pnode);

  004bd	8d 4d c0	 lea	 ecx, DWORD PTR __Pnode$27[ebp]
  004c0	89 45 c0	 mov	 DWORD PTR __Pnode$27[ebp], eax
  004c3	51		 push	 ecx
  004c4	50		 push	 eax
  004c5	e8 00 00 00 00	 call	 ??$_Construct_in_place@PAU?$_Tree_node@U?$pair@QAVCActorInstance@@M@std@@PAX@std@@ABQAU12@@std@@YAXAAPAU?$_Tree_node@U?$pair@QAVCActorInstance@@M@std@@PAX@0@ABQAU10@@Z ; std::_Construct_in_place<std::_Tree_node<std::pair<CActorInstance * const,float>,void *> *,std::_Tree_node<std::pair<CActorInstance * const,float>,void *> * const &>

; 345  :         _Construct_in_place(_Pnode->_Parent, _Pnode);

  004ca	8b 4d c0	 mov	 ecx, DWORD PTR __Pnode$27[ebp]
  004cd	8d 45 c0	 lea	 eax, DWORD PTR __Pnode$27[ebp]
  004d0	50		 push	 eax
  004d1	83 c1 04	 add	 ecx, 4
  004d4	51		 push	 ecx
  004d5	e8 00 00 00 00	 call	 ??$_Construct_in_place@PAU?$_Tree_node@U?$pair@QAVCActorInstance@@M@std@@PAX@std@@ABQAU12@@std@@YAXAAPAU?$_Tree_node@U?$pair@QAVCActorInstance@@M@std@@PAX@0@ABQAU10@@Z ; std::_Construct_in_place<std::_Tree_node<std::pair<CActorInstance * const,float>,void *> *,std::_Tree_node<std::pair<CActorInstance * const,float>,void *> * const &>

; 346  :         _Construct_in_place(_Pnode->_Right, _Pnode);

  004da	8d 45 c0	 lea	 eax, DWORD PTR __Pnode$27[ebp]
  004dd	50		 push	 eax
  004de	8b 45 c0	 mov	 eax, DWORD PTR __Pnode$27[ebp]
  004e1	83 c0 08	 add	 eax, 8
  004e4	50		 push	 eax
  004e5	e8 00 00 00 00	 call	 ??$_Construct_in_place@PAU?$_Tree_node@U?$pair@QAVCActorInstance@@M@std@@PAX@std@@ABQAU12@@std@@YAXAAPAU?$_Tree_node@U?$pair@QAVCActorInstance@@M@std@@PAX@0@ABQAU10@@Z ; std::_Construct_in_place<std::_Tree_node<std::pair<CActorInstance * const,float>,void *> *,std::_Tree_node<std::pair<CActorInstance * const,float>,void *> * const &>

; 347  :         _Pnode->_Color = _Black;

  004ea	8b 45 c0	 mov	 eax, DWORD PTR __Pnode$27[ebp]
  004ed	83 c4 1c	 add	 esp, 28			; 0000001cH
  004f0	66 c7 40 0c 01
	01		 mov	 WORD PTR [eax+12], 257	; 00000101H

; 2021 :         _Scary->_Myhead = _Node::_Buyheadnode(_Getal());

  004f6	89 45 90	 mov	 DWORD PTR _HittedInstanceMap$17[ebp], eax
; File C:\DS Project\DS Files\Source\ClientSource\Client\GameLib\ActorInstanceCollisionDetection.cpp

; 407  : 							HittedInstanceMap.insert(make_pair(&rVictim, GetLocalTime()+pad->fInvisibleTime));

  004f9	8b 4d ac	 mov	 ecx, DWORD PTR _this$GSCopy$1$[ebp]
  004fc	c7 45 fc 00 00
	00 00		 mov	 DWORD PTR __$EHRec$[ebp+8], 0
  00503	e8 00 00 00 00	 call	 ?GetLocalTime@CGraphicThingInstance@@QAEMXZ ; CGraphicThingInstance::GetLocalTime
  00508	8b 45 a8	 mov	 eax, DWORD PTR _pad$1$[ebp]
; File C:\Program Files (x86)\Microsoft Visual Studio\2019\Community\VC\Tools\MSVC\14.27.29110\include\xtree

; 1009 :             _Loc                = _Find_lower_bound(_Keyval);

  0050b	8d 4d 90	 lea	 ecx, DWORD PTR _HittedInstanceMap$17[ebp]
; File C:\DS Project\DS Files\Source\ClientSource\Client\GameLib\ActorInstanceCollisionDetection.cpp

; 407  : 							HittedInstanceMap.insert(make_pair(&rVictim, GetLocalTime()+pad->fInvisibleTime));

  0050e	d8 40 08	 fadd	 DWORD PTR [eax+8]
; File C:\Program Files (x86)\Microsoft Visual Studio\2019\Community\VC\Tools\MSVC\14.27.29110\include\utility

; 192  :         : first(_STD forward<_Other1>(_Val1)), second(_STD forward<_Other2>(_Val2)) {}

  00511	8b 45 b0	 mov	 eax, DWORD PTR _rVictim$GSCopy$1$[ebp]
  00514	89 45 88	 mov	 DWORD PTR $T12[ebp], eax
; File C:\Program Files (x86)\Microsoft Visual Studio\2019\Community\VC\Tools\MSVC\14.27.29110\include\xtree

; 1009 :             _Loc                = _Find_lower_bound(_Keyval);

  00517	8d 45 88	 lea	 eax, DWORD PTR $T12[ebp]
  0051a	50		 push	 eax
  0051b	8d 85 6c ff ff
	ff		 lea	 eax, DWORD PTR $T5[ebp]
; File C:\DS Project\DS Files\Source\ClientSource\Client\GameLib\ActorInstanceCollisionDetection.cpp

; 407  : 							HittedInstanceMap.insert(make_pair(&rVictim, GetLocalTime()+pad->fInvisibleTime));

  00521	d9 5d b8	 fstp	 DWORD PTR $T22[ebp]
; File C:\Program Files (x86)\Microsoft Visual Studio\2019\Community\VC\Tools\MSVC\14.27.29110\include\utility

; 192  :         : first(_STD forward<_Other1>(_Val1)), second(_STD forward<_Other2>(_Val2)) {}

  00524	f3 0f 10 45 b8	 movss	 xmm0, DWORD PTR $T22[ebp]
; File C:\Program Files (x86)\Microsoft Visual Studio\2019\Community\VC\Tools\MSVC\14.27.29110\include\xtree

; 1009 :             _Loc                = _Find_lower_bound(_Keyval);

  00529	50		 push	 eax
; File C:\Program Files (x86)\Microsoft Visual Studio\2019\Community\VC\Tools\MSVC\14.27.29110\include\utility

; 192  :         : first(_STD forward<_Other1>(_Val1)), second(_STD forward<_Other2>(_Val2)) {}

  0052a	f3 0f 11 45 8c	 movss	 DWORD PTR $T12[ebp+4], xmm0
; File C:\Program Files (x86)\Microsoft Visual Studio\2019\Community\VC\Tools\MSVC\14.27.29110\include\xtree

; 1009 :             _Loc                = _Find_lower_bound(_Keyval);

  0052f	e8 00 00 00 00	 call	 ??$_Find_lower_bound@PAVCActorInstance@@@?$_Tree@V?$_Tmap_traits@PAVCActorInstance@@MU?$less@PAVCActorInstance@@@std@@V?$allocator@U?$pair@QAVCActorInstance@@M@std@@@3@$0A@@std@@@std@@IBE?AU?$_Tree_find_result@PAU?$_Tree_node@U?$pair@QAVCActorInstance@@M@std@@PAX@std@@@1@ABQAVCActorInstance@@@Z ; std::_Tree<std::_Tmap_traits<CActorInstance *,float,std::less<CActorInstance *>,std::allocator<std::pair<CActorInstance * const,float> >,0> >::_Find_lower_bound<CActorInstance *>
  00534	8b 48 08	 mov	 ecx, DWORD PTR [eax+8]
  00537	f3 0f 7e 00	 movq	 xmm0, QWORD PTR [eax]
  0053b	66 0f d6 45 98	 movq	 QWORD PTR __Loc$18[ebp], xmm0

; 1695 :         return !_Bound->_Isnil && !_DEBUG_LT_PRED(_Getcomp(), _Keyval, _Traits::_Kfn(_Bound->_Myval));

  00540	80 79 0d 00	 cmp	 BYTE PTR [ecx+13], 0
  00544	75 0c		 jne	 SHORT $LN322@NormalAtta
; File C:\Program Files (x86)\Microsoft Visual Studio\2019\Community\VC\Tools\MSVC\14.27.29110\include\xstddef

; 127  :         return _Left < _Right;

  00546	8b 45 b0	 mov	 eax, DWORD PTR _rVictim$GSCopy$1$[ebp]
  00549	3b 41 10	 cmp	 eax, DWORD PTR [ecx+16]
; File C:\Program Files (x86)\Microsoft Visual Studio\2019\Community\VC\Tools\MSVC\14.27.29110\include\xtree

; 1695 :         return !_Bound->_Isnil && !_DEBUG_LT_PRED(_Getcomp(), _Keyval, _Traits::_Kfn(_Bound->_Myval));

  0054c	0f 83 87 00 00
	00		 jae	 $LN372@NormalAtta
$LN322@NormalAtta:

; 1719 :         if (max_size() == _Get_scary()->_Mysize) {

  00552	81 7d 94 aa aa
	aa 0a		 cmp	 DWORD PTR _HittedInstanceMap$17[ebp+4], 178956970 ; 0aaaaaaaH
  00559	0f 84 a0 03 00
	00		 je	 $LN655@NormalAtta

; 1015 :             _Inserted = _Tree_temp_node<_Alnode>(_Getal(), _Scary->_Myhead, _STD forward<_Valtys>(_Vals)...)._Release();

  0055f	8b 45 90	 mov	 eax, DWORD PTR _HittedInstanceMap$17[ebp]
  00562	89 45 c4	 mov	 DWORD PTR __Myhead$30[ebp], eax
; File C:\Program Files (x86)\Microsoft Visual Studio\2019\Community\VC\Tools\MSVC\14.27.29110\include\xmemory

; 1040 :     explicit _Alloc_construct_ptr(_Alloc& _Al_) : _Al(_Al_), _Ptr(nullptr) {}

  00565	8d 45 90	 lea	 eax, DWORD PTR _HittedInstanceMap$17[ebp]
  00568	89 45 88	 mov	 DWORD PTR $T10[ebp], eax

; 807  :         return static_cast<_Ty*>(_Allocate<_New_alignof<_Ty>>(_Get_size_of_n<sizeof(_Ty)>(_Count)));

  0056b	6a 18		 push	 24			; 00000018H
; File C:\Program Files (x86)\Microsoft Visual Studio\2019\Community\VC\Tools\MSVC\14.27.29110\include\xtree

; 784  :     explicit _Tree_temp_node_alloc(_Alnode& _Al_) : _Alloc_construct_ptr<_Alnode>(_Al_) {

  0056d	c6 45 fc 01	 mov	 BYTE PTR __$EHRec$[ebp+8], 1
; File C:\Program Files (x86)\Microsoft Visual Studio\2019\Community\VC\Tools\MSVC\14.27.29110\include\xmemory

; 1047 :         _Ptr = nullptr; // if allocate throws, prevents double-free

  00571	c7 45 8c 00 00
	00 00		 mov	 DWORD PTR $T10[ebp+4], 0

; 807  :         return static_cast<_Ty*>(_Allocate<_New_alignof<_Ty>>(_Get_size_of_n<sizeof(_Ty)>(_Count)));

  00578	e8 00 00 00 00	 call	 ??$_Allocate@$07U_Default_allocate_traits@std@@$0A@@std@@YAPAXI@Z ; std::_Allocate<8,std::_Default_allocate_traits,0>
; File C:\Program Files (x86)\Microsoft Visual Studio\2019\Community\VC\Tools\MSVC\14.27.29110\include\utility

; 248  :         : first(_STD forward<_Other1>(_Right.first)), second(_STD forward<_Other2>(_Right.second)) {}

  0057d	8b 4d b0	 mov	 ecx, DWORD PTR _rVictim$GSCopy$1$[ebp]
  00580	f3 0f 10 45 b8	 movss	 xmm0, DWORD PTR $T22[ebp]
; File C:\Program Files (x86)\Microsoft Visual Studio\2019\Community\VC\Tools\MSVC\14.27.29110\include\xmemory

; 1048 :         _Ptr = _Al.allocate(1);

  00585	89 45 bc	 mov	 DWORD PTR $T25[ebp], eax
; File C:\Program Files (x86)\Microsoft Visual Studio\2019\Community\VC\Tools\MSVC\14.27.29110\include\utility

; 248  :         : first(_STD forward<_Other1>(_Right.first)), second(_STD forward<_Other2>(_Right.second)) {}

  00588	89 48 10	 mov	 DWORD PTR [eax+16], ecx
; File C:\Program Files (x86)\Microsoft Visual Studio\2019\Community\VC\Tools\MSVC\14.27.29110\include\xtree

; 807  :         _Construct_in_place(this->_Ptr->_Left, _Myhead);

  0058b	8d 4d c4	 lea	 ecx, DWORD PTR __Myhead$30[ebp]
  0058e	51		 push	 ecx
  0058f	50		 push	 eax

; 786  :     }

  00590	c6 45 fc 00	 mov	 BYTE PTR __$EHRec$[ebp+8], 0
; File C:\Program Files (x86)\Microsoft Visual Studio\2019\Community\VC\Tools\MSVC\14.27.29110\include\utility

; 248  :         : first(_STD forward<_Other1>(_Right.first)), second(_STD forward<_Other2>(_Right.second)) {}

  00594	f3 0f 11 40 14	 movss	 DWORD PTR [eax+20], xmm0
; File C:\Program Files (x86)\Microsoft Visual Studio\2019\Community\VC\Tools\MSVC\14.27.29110\include\xtree

; 807  :         _Construct_in_place(this->_Ptr->_Left, _Myhead);

  00599	e8 00 00 00 00	 call	 ??$_Construct_in_place@PAU?$_Tree_node@U?$pair@QAVCActorInstance@@M@std@@PAX@std@@AAPAU12@@std@@YAXAAPAU?$_Tree_node@U?$pair@QAVCActorInstance@@M@std@@PAX@0@0@Z ; std::_Construct_in_place<std::_Tree_node<std::pair<CActorInstance * const,float>,void *> *,std::_Tree_node<std::pair<CActorInstance * const,float>,void *> * &>

; 808  :         _Construct_in_place(this->_Ptr->_Parent, _Myhead);

  0059e	8d 45 c4	 lea	 eax, DWORD PTR __Myhead$30[ebp]
  005a1	50		 push	 eax
  005a2	8b 45 bc	 mov	 eax, DWORD PTR $T25[ebp]
  005a5	83 c0 04	 add	 eax, 4
  005a8	50		 push	 eax
  005a9	e8 00 00 00 00	 call	 ??$_Construct_in_place@PAU?$_Tree_node@U?$pair@QAVCActorInstance@@M@std@@PAX@std@@AAPAU12@@std@@YAXAAPAU?$_Tree_node@U?$pair@QAVCActorInstance@@M@std@@PAX@0@0@Z ; std::_Construct_in_place<std::_Tree_node<std::pair<CActorInstance * const,float>,void *> *,std::_Tree_node<std::pair<CActorInstance * const,float>,void *> * &>

; 809  :         _Construct_in_place(this->_Ptr->_Right, _Myhead);

  005ae	8d 45 c4	 lea	 eax, DWORD PTR __Myhead$30[ebp]
  005b1	50		 push	 eax
  005b2	8b 45 bc	 mov	 eax, DWORD PTR $T25[ebp]
  005b5	83 c0 08	 add	 eax, 8
  005b8	50		 push	 eax
  005b9	e8 00 00 00 00	 call	 ??$_Construct_in_place@PAU?$_Tree_node@U?$pair@QAVCActorInstance@@M@std@@PAX@std@@AAPAU12@@std@@YAXAAPAU?$_Tree_node@U?$pair@QAVCActorInstance@@M@std@@PAX@0@0@Z ; std::_Construct_in_place<std::_Tree_node<std::pair<CActorInstance * const,float>,void *> *,std::_Tree_node<std::pair<CActorInstance * const,float>,void *> * &>

; 810  :         this->_Ptr->_Color = _Red;

  005be	8b 45 bc	 mov	 eax, DWORD PTR $T25[ebp]

; 1034 :         return {_Scary->_Insert_node(_Loc._Location, _Inserted), true};

  005c1	8d 4d 90	 lea	 ecx, DWORD PTR _HittedInstanceMap$17[ebp]

; 809  :         _Construct_in_place(this->_Ptr->_Right, _Myhead);

  005c4	83 c4 1c	 add	 esp, 28			; 0000001cH

; 810  :         this->_Ptr->_Color = _Red;

  005c7	66 c7 40 0c 00
	00		 mov	 WORD PTR [eax+12], 0

; 1034 :         return {_Scary->_Insert_node(_Loc._Location, _Inserted), true};

  005cd	50		 push	 eax
  005ce	ff 75 9c	 push	 DWORD PTR __Loc$18[ebp+4]
  005d1	ff 75 98	 push	 DWORD PTR __Loc$18[ebp]
  005d4	e8 00 00 00 00	 call	 ?_Insert_node@?$_Tree_val@U?$_Tree_simple_types@U?$pair@QAVCActorInstance@@M@std@@@std@@@std@@QAEPAU?$_Tree_node@U?$pair@QAVCActorInstance@@M@std@@PAX@2@U?$_Tree_id@PAU?$_Tree_node@U?$pair@QAVCActorInstance@@M@std@@PAX@std@@@2@QAU32@@Z ; std::_Tree_val<std::_Tree_simple_types<std::pair<CActorInstance * const,float> > >::_Insert_node
$LN372@NormalAtta:

; 766  :     _Tree_head_scoped_ptr(_Alnode& _Al_, _Scary_val& _Mycont_) : _Al(_Al_), _Mycont(_STD addressof(_Mycont_)) {

  005d9	8d 45 9c	 lea	 eax, DWORD PTR $T19[ebp+4]
; File C:\Program Files (x86)\Microsoft Visual Studio\2019\Community\VC\Tools\MSVC\14.27.29110\include\utility

; 192  :         : first(_STD forward<_Other1>(_Val1)), second(_STD forward<_Other2>(_Val2)) {}

  005dc	89 7d 98	 mov	 DWORD PTR $T19[ebp], edi
; File C:\Program Files (x86)\Microsoft Visual Studio\2019\Community\VC\Tools\MSVC\14.27.29110\include\xmemory

; 807  :         return static_cast<_Ty*>(_Allocate<_New_alignof<_Ty>>(_Get_size_of_n<sizeof(_Ty)>(_Count)));

  005df	6a 18		 push	 24			; 00000018H
; File C:\Program Files (x86)\Microsoft Visual Studio\2019\Community\VC\Tools\MSVC\14.27.29110\include\xtree

; 435  :     _Tree_val() noexcept : _Myhead(), _Mysize(0) {}

  005e1	c7 45 9c 00 00
	00 00		 mov	 DWORD PTR $T19[ebp+4], 0
  005e8	c7 45 a0 00 00
	00 00		 mov	 DWORD PTR $T19[ebp+8], 0

; 766  :     _Tree_head_scoped_ptr(_Alnode& _Al_, _Scary_val& _Mycont_) : _Al(_Al_), _Mycont(_STD addressof(_Mycont_)) {

  005ef	89 45 88	 mov	 DWORD PTR __Sentinel$9[ebp], eax
  005f2	89 45 8c	 mov	 DWORD PTR __Sentinel$9[ebp+4], eax
; File C:\Program Files (x86)\Microsoft Visual Studio\2019\Community\VC\Tools\MSVC\14.27.29110\include\xmemory

; 807  :         return static_cast<_Ty*>(_Allocate<_New_alignof<_Ty>>(_Get_size_of_n<sizeof(_Ty)>(_Count)));

  005f5	e8 00 00 00 00	 call	 ??$_Allocate@$07U_Default_allocate_traits@std@@$0A@@std@@YAPAXI@Z ; std::_Allocate<8,std::_Default_allocate_traits,0>
; File C:\Program Files (x86)\Microsoft Visual Studio\2019\Community\VC\Tools\MSVC\14.27.29110\include\xtree

; 343  :         const auto _Pnode = _Al.allocate(1);

  005fa	8b f8		 mov	 edi, eax

; 344  :         _Construct_in_place(_Pnode->_Left, _Pnode);

  005fc	8d 45 c4	 lea	 eax, DWORD PTR __Pnode$29[ebp]
  005ff	50		 push	 eax
  00600	57		 push	 edi
  00601	89 7d c4	 mov	 DWORD PTR __Pnode$29[ebp], edi
  00604	e8 00 00 00 00	 call	 ??$_Construct_in_place@PAU?$_Tree_node@U?$pair@QAVCActorInstance@@M@std@@PAX@std@@ABQAU12@@std@@YAXAAPAU?$_Tree_node@U?$pair@QAVCActorInstance@@M@std@@PAX@0@ABQAU10@@Z ; std::_Construct_in_place<std::_Tree_node<std::pair<CActorInstance * const,float>,void *> *,std::_Tree_node<std::pair<CActorInstance * const,float>,void *> * const &>

; 345  :         _Construct_in_place(_Pnode->_Parent, _Pnode);

  00609	8d 45 c4	 lea	 eax, DWORD PTR __Pnode$29[ebp]
  0060c	50		 push	 eax
  0060d	8d 4f 04	 lea	 ecx, DWORD PTR [edi+4]
  00610	51		 push	 ecx
  00611	e8 00 00 00 00	 call	 ??$_Construct_in_place@PAU?$_Tree_node@U?$pair@QAVCActorInstance@@M@std@@PAX@std@@ABQAU12@@std@@YAXAAPAU?$_Tree_node@U?$pair@QAVCActorInstance@@M@std@@PAX@0@ABQAU10@@Z ; std::_Construct_in_place<std::_Tree_node<std::pair<CActorInstance * const,float>,void *> *,std::_Tree_node<std::pair<CActorInstance * const,float>,void *> * const &>

; 346  :         _Construct_in_place(_Pnode->_Right, _Pnode);

  00616	8d 45 c4	 lea	 eax, DWORD PTR __Pnode$29[ebp]
  00619	50		 push	 eax
  0061a	8d 47 08	 lea	 eax, DWORD PTR [edi+8]
  0061d	50		 push	 eax
  0061e	e8 00 00 00 00	 call	 ??$_Construct_in_place@PAU?$_Tree_node@U?$pair@QAVCActorInstance@@M@std@@PAX@std@@ABQAU12@@std@@YAXAAPAU?$_Tree_node@U?$pair@QAVCActorInstance@@M@std@@PAX@0@ABQAU10@@Z ; std::_Construct_in_place<std::_Tree_node<std::pair<CActorInstance * const,float>,void *> *,std::_Tree_node<std::pair<CActorInstance * const,float>,void *> * const &>

; 347  :         _Pnode->_Color = _Black;

  00623	66 c7 47 0c 01
	01		 mov	 WORD PTR [edi+12], 257	; 00000101H
  00629	83 c4 1c	 add	 esp, 28			; 0000001cH

; 767  :         _Mycont->_Myhead = _Alnode::value_type::_Buyheadnode(_Al);

  0062c	89 7d 9c	 mov	 DWORD PTR $T19[ebp+4], edi

; 1728 :         _Scary->_Myhead->_Parent = _Copy_nodes(_Right_scary->_Myhead->_Parent, _Scary->_Myhead, _Movefl);

  0062f	ff 75 8c	 push	 DWORD PTR $T13[ebp]
  00632	8b 45 90	 mov	 eax, DWORD PTR _HittedInstanceMap$17[ebp]
  00635	8d 4d 9c	 lea	 ecx, DWORD PTR $T19[ebp+4]
  00638	57		 push	 edi

; 901  :         _Tree_head_scoped_ptr<_Alnode, _Scary_val> _Sentinel(_Getal(), *_Scary);

  00639	c6 45 fc 02	 mov	 BYTE PTR __$EHRec$[ebp+8], 2

; 1728 :         _Scary->_Myhead->_Parent = _Copy_nodes(_Right_scary->_Myhead->_Parent, _Scary->_Myhead, _Movefl);

  0063d	ff 70 04	 push	 DWORD PTR [eax+4]
  00640	e8 00 00 00 00	 call	 ??$_Copy_nodes@U_Copy_tag@?$_Tree@V?$_Tmap_traits@PAVCActorInstance@@MU?$less@PAVCActorInstance@@@std@@V?$allocator@U?$pair@QAVCActorInstance@@M@std@@@3@$0A@@std@@@std@@@?$_Tree@V?$_Tmap_traits@PAVCActorInstance@@MU?$less@PAVCActorInstance@@@std@@V?$allocator@U?$pair@QAVCActorInstance@@M@std@@@3@$0A@@std@@@std@@IAEPAU?$_Tree_node@U?$pair@QAVCActorInstance@@M@std@@PAX@1@PAU21@0U_Copy_tag@01@@Z ; std::_Tree<std::_Tmap_traits<CActorInstance *,float,std::less<CActorInstance *>,std::allocator<std::pair<CActorInstance * const,float> >,0> >::_Copy_nodes<std::_Tree<std::_Tmap_traits<CActorInstance *,float,std::less<CActorInstance *>,std::allocator<std::pair<CActorInstance * const,float> >,0> >::_Copy_tag>
  00645	8b 4d 9c	 mov	 ecx, DWORD PTR $T19[ebp+4]
  00648	89 41 04	 mov	 DWORD PTR [ecx+4], eax

; 1729 :         _Scary->_Mysize          = _Right_scary->_Mysize;
; 1730 :         if (!_Scary->_Myhead->_Parent->_Isnil) { // nonempty tree, look for new smallest and largest

  0064b	8b 7d 9c	 mov	 edi, DWORD PTR $T19[ebp+4]
  0064e	8b 45 94	 mov	 eax, DWORD PTR _HittedInstanceMap$17[ebp+4]
  00651	89 45 a0	 mov	 DWORD PTR $T19[ebp+8], eax
  00654	8b 57 04	 mov	 edx, DWORD PTR [edi+4]
  00657	80 7a 0d 00	 cmp	 BYTE PTR [edx+13], 0
  0065b	75 35		 jne	 SHORT $LN416@NormalAtta

; 451  :         while (!_Pnode->_Left->_Isnil) {

  0065d	8b 0a		 mov	 ecx, DWORD PTR [edx]
  0065f	80 79 0d 00	 cmp	 BYTE PTR [ecx+13], 0
  00663	75 0c		 jne	 SHORT $LN421@NormalAtta
$LL420@NormalAtta:
  00665	8b 01		 mov	 eax, DWORD PTR [ecx]

; 452  :             _Pnode = _Pnode->_Left;

  00667	8b d1		 mov	 edx, ecx
  00669	8b c8		 mov	 ecx, eax
  0066b	80 78 0d 00	 cmp	 BYTE PTR [eax+13], 0
  0066f	74 f4		 je	 SHORT $LL420@NormalAtta
$LN421@NormalAtta:

; 1731 :             _Scary->_Myhead->_Left  = _Scary_val::_Min(_Scary->_Myhead->_Parent);

  00671	89 17		 mov	 DWORD PTR [edi], edx

; 1732 :             _Scary->_Myhead->_Right = _Scary_val::_Max(_Scary->_Myhead->_Parent);

  00673	8b 55 9c	 mov	 edx, DWORD PTR $T19[ebp+4]
  00676	8b 4a 04	 mov	 ecx, DWORD PTR [edx+4]

; 443  :         while (!_Pnode->_Right->_Isnil) {

  00679	8b 41 08	 mov	 eax, DWORD PTR [ecx+8]
  0067c	80 78 0d 00	 cmp	 BYTE PTR [eax+13], 0
  00680	75 0b		 jne	 SHORT $LN425@NormalAtta
$LL424@NormalAtta:

; 444  :             _Pnode = _Pnode->_Right;

  00682	8b c8		 mov	 ecx, eax
  00684	8b 41 08	 mov	 eax, DWORD PTR [ecx+8]
  00687	80 78 0d 00	 cmp	 BYTE PTR [eax+13], 0
  0068b	74 f5		 je	 SHORT $LL424@NormalAtta
$LN425@NormalAtta:

; 1732 :             _Scary->_Myhead->_Right = _Scary_val::_Max(_Scary->_Myhead->_Parent);

  0068d	89 4a 08	 mov	 DWORD PTR [edx+8], ecx

; 1733 :         } else { // empty tree, just tidy head pointers

  00690	eb 08		 jmp	 SHORT $LN417@NormalAtta
$LN416@NormalAtta:

; 1734 :             _Scary->_Myhead->_Left  = _Scary->_Myhead;

  00692	89 3f		 mov	 DWORD PTR [edi], edi

; 1735 :             _Scary->_Myhead->_Right = _Scary->_Myhead;

  00694	8b 45 9c	 mov	 eax, DWORD PTR $T19[ebp+4]
  00697	89 40 08	 mov	 DWORD PTR [eax+8], eax
$LN417@NormalAtta:

; 1009 :             _Loc                = _Find_lower_bound(_Keyval);

  0069a	8b 7d a4	 mov	 edi, DWORD PTR _this$1$[ebp]
  0069d	8d 45 98	 lea	 eax, DWORD PTR $T19[ebp]
  006a0	50		 push	 eax
  006a1	8d 45 84	 lea	 eax, DWORD PTR $T8[ebp]
; File C:\DS Project\DS Files\Source\ClientSource\Client\GameLib\ActorInstanceCollisionDetection.cpp

; 409  : 							m_HitDataMap.insert(make_pair(&c_rHitData, HittedInstanceMap));

  006a4	c6 45 fc 03	 mov	 BYTE PTR __$EHRec$[ebp+8], 3
; File C:\Program Files (x86)\Microsoft Visual Studio\2019\Community\VC\Tools\MSVC\14.27.29110\include\xtree

; 1009 :             _Loc                = _Find_lower_bound(_Keyval);

  006a8	50		 push	 eax
  006a9	8b cf		 mov	 ecx, edi
  006ab	e8 00 00 00 00	 call	 ??$_Find_lower_bound@PBUSHitData@NRaceData@@@?$_Tree@V?$_Tmap_traits@PBUSHitData@NRaceData@@V?$map@PAVCActorInstance@@MU?$less@PAVCActorInstance@@@std@@V?$allocator@U?$pair@QAVCActorInstance@@M@std@@@3@@std@@U?$less@PBUSHitData@NRaceData@@@4@V?$allocator@U?$pair@QBUSHitData@NRaceData@@V?$map@PAVCActorInstance@@MU?$less@PAVCActorInstance@@@std@@V?$allocator@U?$pair@QAVCActorInstance@@M@std@@@3@@std@@@std@@@4@$0A@@std@@@std@@IBE?AU?$_Tree_find_result@PAU?$_Tree_node@U?$pair@QBUSHitData@NRaceData@@V?$map@PAVCActorInstance@@MU?$less@PAVCActorInstance@@@std@@V?$allocator@U?$pair@QAVCActorInstance@@M@std@@@3@@std@@@std@@PAX@std@@@1@ABQBUSHitData@NRaceData@@@Z ; std::_Tree<std::_Tmap_traits<NRaceData::SHitData const *,std::map<CActorInstance *,float,std::less<CActorInstance *>,std::allocator<std::pair<CActorInstance * const,float> > >,std::less<NRaceData::SHitData const *>,std::allocator<std::pair<NRaceData::SHitData const * const,std::map<CActorInstance *,float,std::less<CActorInstance *>,std::allocator<std::pair<CActorInstance * const,float> > > > >,0> >::_Find_lower_bound<NRaceData::SHitData const *>
  006b0	8b 48 08	 mov	 ecx, DWORD PTR [eax+8]
  006b3	f3 0f 7e 00	 movq	 xmm0, QWORD PTR [eax]
  006b7	66 0f d6 85 6c
	ff ff ff	 movq	 QWORD PTR __Loc$4[ebp], xmm0

; 1695 :         return !_Bound->_Isnil && !_DEBUG_LT_PRED(_Getcomp(), _Keyval, _Traits::_Kfn(_Bound->_Myval));

  006bf	80 79 0d 00	 cmp	 BYTE PTR [ecx+13], 0
  006c3	75 0c		 jne	 SHORT $LN443@NormalAtta
; File C:\Program Files (x86)\Microsoft Visual Studio\2019\Community\VC\Tools\MSVC\14.27.29110\include\xstddef

; 127  :         return _Left < _Right;

  006c5	8b 45 98	 mov	 eax, DWORD PTR $T19[ebp]
  006c8	3b 41 10	 cmp	 eax, DWORD PTR [ecx+16]
; File C:\Program Files (x86)\Microsoft Visual Studio\2019\Community\VC\Tools\MSVC\14.27.29110\include\xtree

; 1695 :         return !_Bound->_Isnil && !_DEBUG_LT_PRED(_Getcomp(), _Keyval, _Traits::_Kfn(_Bound->_Myval));

  006cb	0f 83 dc 00 00
	00		 jae	 $LN542@NormalAtta
$LN443@NormalAtta:

; 1719 :         if (max_size() == _Get_scary()->_Mysize) {

  006d1	81 7f 04 49 92
	24 09		 cmp	 DWORD PTR [edi+4], 153391689 ; 09249249H
  006d8	0f 84 26 02 00
	00		 je	 $LN656@NormalAtta

; 1015 :             _Inserted = _Tree_temp_node<_Alnode>(_Getal(), _Scary->_Myhead, _STD forward<_Valtys>(_Vals)...)._Release();

  006de	8b 07		 mov	 eax, DWORD PTR [edi]
  006e0	89 45 bc	 mov	 DWORD PTR __Myhead$26[ebp], eax
; File C:\Program Files (x86)\Microsoft Visual Studio\2019\Community\VC\Tools\MSVC\14.27.29110\include\xmemory

; 1040 :     explicit _Alloc_construct_ptr(_Alloc& _Al_) : _Al(_Al_), _Ptr(nullptr) {}

  006e3	89 7d b4	 mov	 DWORD PTR $T20[ebp], edi

; 807  :         return static_cast<_Ty*>(_Allocate<_New_alignof<_Ty>>(_Get_size_of_n<sizeof(_Ty)>(_Count)));

  006e6	6a 1c		 push	 28			; 0000001cH
; File C:\Program Files (x86)\Microsoft Visual Studio\2019\Community\VC\Tools\MSVC\14.27.29110\include\xtree

; 784  :     explicit _Tree_temp_node_alloc(_Alnode& _Al_) : _Alloc_construct_ptr<_Alnode>(_Al_) {

  006e8	c6 45 fc 04	 mov	 BYTE PTR __$EHRec$[ebp+8], 4
; File C:\Program Files (x86)\Microsoft Visual Studio\2019\Community\VC\Tools\MSVC\14.27.29110\include\xmemory

; 1047 :         _Ptr = nullptr; // if allocate throws, prevents double-free

  006ec	c7 45 b8 00 00
	00 00		 mov	 DWORD PTR $T20[ebp+4], 0

; 807  :         return static_cast<_Ty*>(_Allocate<_New_alignof<_Ty>>(_Get_size_of_n<sizeof(_Ty)>(_Count)));

  006f3	e8 00 00 00 00	 call	 ??$_Allocate@$07U_Default_allocate_traits@std@@$0A@@std@@YAPAXI@Z ; std::_Allocate<8,std::_Default_allocate_traits,0>

; 1048 :         _Ptr = _Al.allocate(1);

  006f8	89 45 b8	 mov	 DWORD PTR $T20[ebp+4], eax
; File C:\Program Files (x86)\Microsoft Visual Studio\2019\Community\VC\Tools\MSVC\14.27.29110\include\utility

; 248  :         : first(_STD forward<_Other1>(_Right.first)), second(_STD forward<_Other2>(_Right.second)) {}

  006fb	8b 4d 98	 mov	 ecx, DWORD PTR $T19[ebp]
  006fe	89 48 10	 mov	 DWORD PTR [eax+16], ecx
  00701	83 c0 14	 add	 eax, 20			; 00000014H
  00704	89 45 8c	 mov	 DWORD PTR _this$14[ebp], eax
; File C:\Program Files (x86)\Microsoft Visual Studio\2019\Community\VC\Tools\MSVC\14.27.29110\include\xmemory

; 807  :         return static_cast<_Ty*>(_Allocate<_New_alignof<_Ty>>(_Get_size_of_n<sizeof(_Ty)>(_Count)));

  00707	6a 18		 push	 24			; 00000018H
; File C:\Program Files (x86)\Microsoft Visual Studio\2019\Community\VC\Tools\MSVC\14.27.29110\include\xtree

; 805  :         : _Tree_temp_node_alloc<_Alnode>(_Al_) {

  00709	c6 45 fc 05	 mov	 BYTE PTR __$EHRec$[ebp+8], 5

; 435  :     _Tree_val() noexcept : _Myhead(), _Mysize(0) {}

  0070d	c7 00 00 00 00
	00		 mov	 DWORD PTR [eax], 0
  00713	c7 40 04 00 00
	00 00		 mov	 DWORD PTR [eax+4], 0
; File C:\Program Files (x86)\Microsoft Visual Studio\2019\Community\VC\Tools\MSVC\14.27.29110\include\xmemory

; 807  :         return static_cast<_Ty*>(_Allocate<_New_alignof<_Ty>>(_Get_size_of_n<sizeof(_Ty)>(_Count)));

  0071a	e8 00 00 00 00	 call	 ??$_Allocate@$07U_Default_allocate_traits@std@@$0A@@std@@YAPAXI@Z ; std::_Allocate<8,std::_Default_allocate_traits,0>
; File C:\Program Files (x86)\Microsoft Visual Studio\2019\Community\VC\Tools\MSVC\14.27.29110\include\xtree

; 343  :         const auto _Pnode = _Al.allocate(1);

  0071f	8b f8		 mov	 edi, eax

; 344  :         _Construct_in_place(_Pnode->_Left, _Pnode);

  00721	8d 45 c4	 lea	 eax, DWORD PTR __Pnode$28[ebp]
  00724	50		 push	 eax
  00725	57		 push	 edi
  00726	89 7d c4	 mov	 DWORD PTR __Pnode$28[ebp], edi
  00729	e8 00 00 00 00	 call	 ??$_Construct_in_place@PAU?$_Tree_node@U?$pair@QAVCActorInstance@@M@std@@PAX@std@@ABQAU12@@std@@YAXAAPAU?$_Tree_node@U?$pair@QAVCActorInstance@@M@std@@PAX@0@ABQAU10@@Z ; std::_Construct_in_place<std::_Tree_node<std::pair<CActorInstance * const,float>,void *> *,std::_Tree_node<std::pair<CActorInstance * const,float>,void *> * const &>

; 345  :         _Construct_in_place(_Pnode->_Parent, _Pnode);

  0072e	8d 45 c4	 lea	 eax, DWORD PTR __Pnode$28[ebp]
  00731	50		 push	 eax
  00732	8d 4f 04	 lea	 ecx, DWORD PTR [edi+4]
  00735	51		 push	 ecx
  00736	e8 00 00 00 00	 call	 ??$_Construct_in_place@PAU?$_Tree_node@U?$pair@QAVCActorInstance@@M@std@@PAX@std@@ABQAU12@@std@@YAXAAPAU?$_Tree_node@U?$pair@QAVCActorInstance@@M@std@@PAX@0@ABQAU10@@Z ; std::_Construct_in_place<std::_Tree_node<std::pair<CActorInstance * const,float>,void *> *,std::_Tree_node<std::pair<CActorInstance * const,float>,void *> * const &>

; 346  :         _Construct_in_place(_Pnode->_Right, _Pnode);

  0073b	8d 45 c4	 lea	 eax, DWORD PTR __Pnode$28[ebp]
  0073e	50		 push	 eax
  0073f	8d 47 08	 lea	 eax, DWORD PTR [edi+8]
  00742	50		 push	 eax
  00743	e8 00 00 00 00	 call	 ??$_Construct_in_place@PAU?$_Tree_node@U?$pair@QAVCActorInstance@@M@std@@PAX@std@@ABQAU12@@std@@YAXAAPAU?$_Tree_node@U?$pair@QAVCActorInstance@@M@std@@PAX@0@ABQAU10@@Z ; std::_Construct_in_place<std::_Tree_node<std::pair<CActorInstance * const,float>,void *> *,std::_Tree_node<std::pair<CActorInstance * const,float>,void *> * const &>

; 2021 :         _Scary->_Myhead = _Node::_Buyheadnode(_Getal());

  00748	8b 4d b8	 mov	 ecx, DWORD PTR $T20[ebp+4]

; 347  :         _Pnode->_Color = _Black;

  0074b	66 c7 47 0c 01
	01		 mov	 WORD PTR [edi+12], 257	; 00000101H

; 2021 :         _Scary->_Myhead = _Node::_Buyheadnode(_Getal());

  00751	89 79 14	 mov	 DWORD PTR [ecx+20], edi
; File C:\Program Files (x86)\Microsoft Visual Studio\2019\Community\VC\Tools\MSVC\14.27.29110\include\utility

; 107  :     _Left    = _STD move(_Right);

  00754	8b 45 9c	 mov	 eax, DWORD PTR $T19[ebp+4]
  00757	89 41 14	 mov	 DWORD PTR [ecx+20], eax
  0075a	8b 45 a0	 mov	 eax, DWORD PTR $T19[ebp+8]

; 108  :     _Right   = _STD move(_Tmp);

  0075d	89 7d 9c	 mov	 DWORD PTR $T19[ebp+4], edi

; 106  :     _Ty _Tmp = _STD move(_Left);

  00760	8b f9		 mov	 edi, ecx
  00762	8b 4f 18	 mov	 ecx, DWORD PTR [edi+24]

; 107  :     _Left    = _STD move(_Right);

  00765	89 47 18	 mov	 DWORD PTR [edi+24], eax
; File C:\Program Files (x86)\Microsoft Visual Studio\2019\Community\VC\Tools\MSVC\14.27.29110\include\xtree

; 807  :         _Construct_in_place(this->_Ptr->_Left, _Myhead);

  00768	8d 45 bc	 lea	 eax, DWORD PTR __Myhead$26[ebp]
  0076b	50		 push	 eax
  0076c	57		 push	 edi
; File C:\Program Files (x86)\Microsoft Visual Studio\2019\Community\VC\Tools\MSVC\14.27.29110\include\utility

; 108  :     _Right   = _STD move(_Tmp);

  0076d	89 4d a0	 mov	 DWORD PTR $T19[ebp+8], ecx
; File C:\Program Files (x86)\Microsoft Visual Studio\2019\Community\VC\Tools\MSVC\14.27.29110\include\xtree

; 807  :         _Construct_in_place(this->_Ptr->_Left, _Myhead);

  00770	e8 00 00 00 00	 call	 ??$_Construct_in_place@PAU?$_Tree_node@U?$pair@QBUSHitData@NRaceData@@V?$map@PAVCActorInstance@@MU?$less@PAVCActorInstance@@@std@@V?$allocator@U?$pair@QAVCActorInstance@@M@std@@@3@@std@@@std@@PAX@std@@AAPAU12@@std@@YAXAAPAU?$_Tree_node@U?$pair@QBUSHitData@NRaceData@@V?$map@PAVCActorInstance@@MU?$less@PAVCActorInstance@@@std@@V?$allocator@U?$pair@QAVCActorInstance@@M@std@@@3@@std@@@std@@PAX@0@0@Z ; std::_Construct_in_place<std::_Tree_node<std::pair<NRaceData::SHitData const * const,std::map<CActorInstance *,float,std::less<CActorInstance *>,std::allocator<std::pair<CActorInstance * const,float> > > >,void *> *,std::_Tree_node<std::pair<NRaceData::SHitData const * const,std::map<CActorInstance *,float,std::less<CActorInstance *>,std::allocator<std::pair<CActorInstance * const,float> > > >,void *> * &>

; 808  :         _Construct_in_place(this->_Ptr->_Parent, _Myhead);

  00775	8d 45 bc	 lea	 eax, DWORD PTR __Myhead$26[ebp]
  00778	50		 push	 eax
  00779	8d 47 04	 lea	 eax, DWORD PTR [edi+4]
  0077c	50		 push	 eax
  0077d	e8 00 00 00 00	 call	 ??$_Construct_in_place@PAU?$_Tree_node@U?$pair@QBUSHitData@NRaceData@@V?$map@PAVCActorInstance@@MU?$less@PAVCActorInstance@@@std@@V?$allocator@U?$pair@QAVCActorInstance@@M@std@@@3@@std@@@std@@PAX@std@@AAPAU12@@std@@YAXAAPAU?$_Tree_node@U?$pair@QBUSHitData@NRaceData@@V?$map@PAVCActorInstance@@MU?$less@PAVCActorInstance@@@std@@V?$allocator@U?$pair@QAVCActorInstance@@M@std@@@3@@std@@@std@@PAX@0@0@Z ; std::_Construct_in_place<std::_Tree_node<std::pair<NRaceData::SHitData const * const,std::map<CActorInstance *,float,std::less<CActorInstance *>,std::allocator<std::pair<CActorInstance * const,float> > > >,void *> *,std::_Tree_node<std::pair<NRaceData::SHitData const * const,std::map<CActorInstance *,float,std::less<CActorInstance *>,std::allocator<std::pair<CActorInstance * const,float> > > >,void *> * &>

; 809  :         _Construct_in_place(this->_Ptr->_Right, _Myhead);

  00782	8d 45 bc	 lea	 eax, DWORD PTR __Myhead$26[ebp]
  00785	50		 push	 eax
  00786	8d 47 08	 lea	 eax, DWORD PTR [edi+8]
  00789	50		 push	 eax
  0078a	e8 00 00 00 00	 call	 ??$_Construct_in_place@PAU?$_Tree_node@U?$pair@QBUSHitData@NRaceData@@V?$map@PAVCActorInstance@@MU?$less@PAVCActorInstance@@@std@@V?$allocator@U?$pair@QAVCActorInstance@@M@std@@@3@@std@@@std@@PAX@std@@AAPAU12@@std@@YAXAAPAU?$_Tree_node@U?$pair@QBUSHitData@NRaceData@@V?$map@PAVCActorInstance@@MU?$less@PAVCActorInstance@@@std@@V?$allocator@U?$pair@QAVCActorInstance@@M@std@@@3@@std@@@std@@PAX@0@0@Z ; std::_Construct_in_place<std::_Tree_node<std::pair<NRaceData::SHitData const * const,std::map<CActorInstance *,float,std::less<CActorInstance *>,std::allocator<std::pair<CActorInstance * const,float> > > >,void *> *,std::_Tree_node<std::pair<NRaceData::SHitData const * const,std::map<CActorInstance *,float,std::less<CActorInstance *>,std::allocator<std::pair<CActorInstance * const,float> > > >,void *> * &>

; 1034 :         return {_Scary->_Insert_node(_Loc._Location, _Inserted), true};

  0078f	8b 4d a4	 mov	 ecx, DWORD PTR _this$1$[ebp]

; 809  :         _Construct_in_place(this->_Ptr->_Right, _Myhead);

  00792	83 c4 38	 add	 esp, 56			; 00000038H

; 810  :         this->_Ptr->_Color = _Red;

  00795	66 c7 47 0c 00
	00		 mov	 WORD PTR [edi+12], 0

; 1034 :         return {_Scary->_Insert_node(_Loc._Location, _Inserted), true};

  0079b	57		 push	 edi
  0079c	ff b5 70 ff ff
	ff		 push	 DWORD PTR __Loc$4[ebp+4]
  007a2	ff b5 6c ff ff
	ff		 push	 DWORD PTR __Loc$4[ebp]
  007a8	e8 00 00 00 00	 call	 ?_Insert_node@?$_Tree_val@U?$_Tree_simple_types@U?$pair@QBUSHitData@NRaceData@@V?$map@PAVCActorInstance@@MU?$less@PAVCActorInstance@@@std@@V?$allocator@U?$pair@QAVCActorInstance@@M@std@@@3@@std@@@std@@@std@@@std@@QAEPAU?$_Tree_node@U?$pair@QBUSHitData@NRaceData@@V?$map@PAVCActorInstance@@MU?$less@PAVCActorInstance@@@std@@V?$allocator@U?$pair@QAVCActorInstance@@M@std@@@3@@std@@@std@@PAX@2@U?$_Tree_id@PAU?$_Tree_node@U?$pair@QBUSHitData@NRaceData@@V?$map@PAVCActorInstance@@MU?$less@PAVCActorInstance@@@std@@V?$allocator@U?$pair@QAVCActorInstance@@M@std@@@3@@std@@@std@@PAX@std@@@2@QAU32@@Z ; std::_Tree_val<std::_Tree_simple_types<std::pair<NRaceData::SHitData const * const,std::map<CActorInstance *,float,std::less<CActorInstance *>,std::allocator<std::pair<CActorInstance * const,float> > > > > >::_Insert_node
$LN542@NormalAtta:

; 1191 :         _Scary->_Erase_head(_Getal());

  007ad	8d 45 9c	 lea	 eax, DWORD PTR $T19[ebp+4]
  007b0	50		 push	 eax
  007b1	8b c8		 mov	 ecx, eax
  007b3	e8 00 00 00 00	 call	 ??$_Erase_head@V?$allocator@U?$_Tree_node@U?$pair@QAVCActorInstance@@M@std@@PAX@std@@@std@@@?$_Tree_val@U?$_Tree_simple_types@U?$pair@QAVCActorInstance@@M@std@@@std@@@std@@QAEXAAV?$allocator@U?$_Tree_node@U?$pair@QAVCActorInstance@@M@std@@PAX@std@@@1@@Z ; std::_Tree_val<std::_Tree_simple_types<std::pair<CActorInstance * const,float> > >::_Erase_head<std::allocator<std::_Tree_node<std::pair<CActorInstance * const,float>,void *> > >
  007b8	8d 45 90	 lea	 eax, DWORD PTR _HittedInstanceMap$17[ebp]
; File C:\DS Project\DS Files\Source\ClientSource\Client\GameLib\ActorInstanceCollisionDetection.cpp

; 412  : 						}

  007bb	c7 45 fc ff ff
	ff ff		 mov	 DWORD PTR __$EHRec$[ebp+8], -1
; File C:\Program Files (x86)\Microsoft Visual Studio\2019\Community\VC\Tools\MSVC\14.27.29110\include\xtree

; 1191 :         _Scary->_Erase_head(_Getal());

  007c2	50		 push	 eax
  007c3	8b c8		 mov	 ecx, eax
  007c5	e8 00 00 00 00	 call	 ??$_Erase_head@V?$allocator@U?$_Tree_node@U?$pair@QAVCActorInstance@@M@std@@PAX@std@@@std@@@?$_Tree_val@U?$_Tree_simple_types@U?$pair@QAVCActorInstance@@M@std@@@std@@@std@@QAEXAAV?$allocator@U?$_Tree_node@U?$pair@QAVCActorInstance@@M@std@@PAX@std@@@1@@Z ; std::_Tree_val<std::_Tree_simple_types<std::pair<CActorInstance * const,float> > >::_Erase_head<std::allocator<std::_Tree_node<std::pair<CActorInstance * const,float>,void *> > >
; File C:\DS Project\DS Files\Source\ClientSource\Client\GameLib\ActorInstanceCollisionDetection.cpp

; 412  : 						}

  007ca	eb 50		 jmp	 SHORT $LN29@NormalAtta
$LN24@NormalAtta:
; File C:\Program Files (x86)\Microsoft Visual Studio\2019\Community\VC\Tools\MSVC\14.27.29110\include\utility

; 192  :         : first(_STD forward<_Other1>(_Val1)), second(_STD forward<_Other2>(_Val2)) {}

  007cc	8b 45 b0	 mov	 eax, DWORD PTR _rVictim$GSCopy$1$[ebp]
; File C:\DS Project\DS Files\Source\ClientSource\Client\GameLib\ActorInstanceCollisionDetection.cpp

; 415  : 							itHitData->second.insert(make_pair(&rVictim, GetLocalTime()+pad->fInvisibleTime));

  007cf	8b 4d ac	 mov	 ecx, DWORD PTR _this$GSCopy$1$[ebp]
; File C:\Program Files (x86)\Microsoft Visual Studio\2019\Community\VC\Tools\MSVC\14.27.29110\include\utility

; 192  :         : first(_STD forward<_Other1>(_Val1)), second(_STD forward<_Other2>(_Val2)) {}

  007d2	89 45 88	 mov	 DWORD PTR $T11[ebp], eax
; File C:\DS Project\DS Files\Source\ClientSource\Client\GameLib\ActorInstanceCollisionDetection.cpp

; 415  : 							itHitData->second.insert(make_pair(&rVictim, GetLocalTime()+pad->fInvisibleTime));

  007d5	e8 00 00 00 00	 call	 ?GetLocalTime@CGraphicThingInstance@@QAEMXZ ; CGraphicThingInstance::GetLocalTime
  007da	8b 45 a8	 mov	 eax, DWORD PTR _pad$1$[ebp]
  007dd	8b 7d b8	 mov	 edi, DWORD PTR $T21[ebp]
  007e0	d8 40 08	 fadd	 DWORD PTR [eax+8]
  007e3	8d 45 88	 lea	 eax, DWORD PTR $T11[ebp]
  007e6	50		 push	 eax
  007e7	8d 45 90	 lea	 eax, DWORD PTR $T16[ebp]
  007ea	50		 push	 eax
  007eb	8d 4f 14	 lea	 ecx, DWORD PTR [edi+20]
; File C:\Program Files (x86)\Microsoft Visual Studio\2019\Community\VC\Tools\MSVC\14.27.29110\include\utility

; 192  :         : first(_STD forward<_Other1>(_Val1)), second(_STD forward<_Other2>(_Val2)) {}

  007ee	d9 5d 8c	 fstp	 DWORD PTR $T11[ebp+4]
; File C:\DS Project\DS Files\Source\ClientSource\Client\GameLib\ActorInstanceCollisionDetection.cpp

; 415  : 							itHitData->second.insert(make_pair(&rVictim, GetLocalTime()+pad->fInvisibleTime));

  007f1	e8 00 00 00 00	 call	 ??$insert@U?$pair@PAVCActorInstance@@M@std@@$0A@@?$map@PAVCActorInstance@@MU?$less@PAVCActorInstance@@@std@@V?$allocator@U?$pair@QAVCActorInstance@@M@std@@@3@@std@@QAE?AU?$pair@V?$_Tree_iterator@V?$_Tree_val@U?$_Tree_simple_types@U?$pair@QAVCActorInstance@@M@std@@@std@@@std@@@std@@_N@1@$$QAU?$pair@PAVCActorInstance@@M@1@@Z ; std::map<CActorInstance *,float,std::less<CActorInstance *>,std::allocator<std::pair<CActorInstance * const,float> > >::insert<std::pair<CActorInstance *,float>,0>

; 416  : 							//itHitData->second.insert(make_pair(&rVictim, GetLocalTime()+HIT_COOL_TIME));
; 417  : 
; 418  : 							//Tracef(" ----------- Next Hit : %d\n", itHitData->second.size());
; 419  : 
; 420  : 							int iCurrentHitCount = itHitData->second.size();
; 421  : 							if (NRaceData::MOTION_TYPE_COMBO == pad->iMotionType || NRaceData::MOTION_TYPE_NORMAL == pad->iMotionType)

  007f6	8b 55 a8	 mov	 edx, DWORD PTR _pad$1$[ebp]
  007f9	8b 47 18	 mov	 eax, DWORD PTR [edi+24]
  007fc	8b 4a 18	 mov	 ecx, DWORD PTR [edx+24]
  007ff	83 f9 02	 cmp	 ecx, 2
  00802	74 0f		 je	 SHORT $LN28@NormalAtta
  00804	83 f9 01	 cmp	 ecx, 1
  00807	74 0a		 je	 SHORT $LN28@NormalAtta

; 424  : 								{
; 425  : 									//Tracef(" Type NORMAL :: Overflow - Can't process, skip\n");
; 426  : 									return FALSE;
; 427  : 								}
; 428  : 							}
; 429  : 							else
; 430  : 							{
; 431  : 								if (iCurrentHitCount > pad->iHitLimitCount)

  00809	3b 42 14	 cmp	 eax, DWORD PTR [edx+20]
  0080c	7e 0e		 jle	 SHORT $LN29@NormalAtta

; 398  : 				for(dsit = c_DefendingSphereVector.begin(); dsit!= c_DefendingSphereVector.end();++dsit, ++index)

  0080e	e9 7c f8 ff ff	 jmp	 $LN647@NormalAtta
$LN28@NormalAtta:

; 422  : 							{
; 423  : 								if (iCurrentHitCount > 16)

  00813	83 f8 10	 cmp	 eax, 16			; 00000010H
  00816	0f 8f 73 f8 ff
	ff		 jg	 $LN647@NormalAtta
$LN29@NormalAtta:

; 432  : 								{
; 433  : 									//Tracef(" Type SKILL :: Overflow - Can't process, skip\n");
; 434  : 									return FALSE;
; 435  : 								}
; 436  : 							}
; 437  : 						}
; 438  : 
; 439  : 						D3DXVECTOR3 v3HitPosition = (GetPosition() + rVictim.GetPosition()) *0.5f;

  0081c	8b 4d b0	 mov	 ecx, DWORD PTR _rVictim$GSCopy$1$[ebp]
  0081f	e8 00 00 00 00	 call	 ?GetPosition@CGraphicObjectInstance@@QBEABUD3DXVECTOR3@@XZ ; CGraphicObjectInstance::GetPosition
  00824	8b 4d ac	 mov	 ecx, DWORD PTR _this$GSCopy$1$[ebp]
  00827	8b f8		 mov	 edi, eax
  00829	e8 00 00 00 00	 call	 ?GetPosition@CGraphicObjectInstance@@QBEABUD3DXVECTOR3@@XZ ; CGraphicObjectInstance::GetPosition
; File C:\DS Project\DS Files\Source\ClientSource\extern\include\d3dx8math.inl

; 257  :     return D3DXVECTOR3(x + v.x, y + v.y, z + v.z);

  0082e	f3 0f 10 5f 04	 movss	 xmm3, DWORD PTR [edi+4]
  00833	f3 0f 10 67 08	 movss	 xmm4, DWORD PTR [edi+8]

; 182  :     z = fz;

  00838	f3 0f 10 2d 00
	00 00 00	 movss	 xmm5, DWORD PTR __real@3f000000

; 257  :     return D3DXVECTOR3(x + v.x, y + v.y, z + v.z);

  00840	f3 0f 10 48 04	 movss	 xmm1, DWORD PTR [eax+4]
  00845	f3 0f 10 50 08	 movss	 xmm2, DWORD PTR [eax+8]
  0084a	f3 0f 58 d9	 addss	 xmm3, xmm1
  0084e	f3 0f 10 00	 movss	 xmm0, DWORD PTR [eax]
  00852	f3 0f 58 e2	 addss	 xmm4, xmm2
  00856	f3 0f 58 07	 addss	 xmm0, DWORD PTR [edi]
; File C:\DS Project\DS Files\Source\ClientSource\Client\GameLib\ActorInstanceCollisionDetection.cpp

; 442  : 						if (IS_HUGE_RACE(rVictim.GetRace()))

  0085a	8b 7d b0	 mov	 edi, DWORD PTR _rVictim$GSCopy$1$[ebp]
  0085d	8b cf		 mov	 ecx, edi
; File C:\DS Project\DS Files\Source\ClientSource\extern\include\d3dx8math.inl

; 180  :     x = fx;

  0085f	f3 0f 59 dd	 mulss	 xmm3, xmm5

; 182  :     z = fz;

  00863	f3 0f 59 c5	 mulss	 xmm0, xmm5

; 181  :     y = fy;

  00867	f3 0f 59 e5	 mulss	 xmm4, xmm5
  0086b	f3 0f 11 45 e4	 movss	 DWORD PTR _v3HitPosition$33[ebp], xmm0
  00870	f3 0f 11 5d e8	 movss	 DWORD PTR _v3HitPosition$33[ebp+4], xmm3

; 182  :     z = fz;

  00875	f3 0f 11 65 ec	 movss	 DWORD PTR _v3HitPosition$33[ebp+8], xmm4
; File C:\DS Project\DS Files\Source\ClientSource\Client\GameLib\ActorInstanceCollisionDetection.cpp

; 442  : 						if (IS_HUGE_RACE(rVictim.GetRace()))

  0087a	e8 00 00 00 00	 call	 ?GetRace@CActorInstance@@QAEKXZ ; CActorInstance::GetRace
  0087f	50		 push	 eax
  00880	e8 00 00 00 00	 call	 ?IS_HUGE_RACE@@YA_NI@Z	; IS_HUGE_RACE
  00885	83 c4 04	 add	 esp, 4
  00888	84 c0		 test	 al, al
  0088a	74 4f		 je	 SHORT $LN31@NormalAtta

; 444  : 							v3HitPosition = (GetPosition() + sub.v3Position) * 0.5f;

  0088c	8b 4d ac	 mov	 ecx, DWORD PTR _this$GSCopy$1$[ebp]
  0088f	e8 00 00 00 00	 call	 ?GetPosition@CGraphicObjectInstance@@QBEABUD3DXVECTOR3@@XZ ; CGraphicObjectInstance::GetPosition
; File C:\DS Project\DS Files\Source\ClientSource\extern\include\d3dx8math.inl

; 257  :     return D3DXVECTOR3(x + v.x, y + v.y, z + v.z);

  00894	f3 0f 10 06	 movss	 xmm0, DWORD PTR [esi]

; 182  :     z = fz;

  00898	f3 0f 10 1d 00
	00 00 00	 movss	 xmm3, DWORD PTR __real@3f000000

; 257  :     return D3DXVECTOR3(x + v.x, y + v.y, z + v.z);

  008a0	f3 0f 58 00	 addss	 xmm0, DWORD PTR [eax]
  008a4	f3 0f 10 48 04	 movss	 xmm1, DWORD PTR [eax+4]
  008a9	f3 0f 10 50 08	 movss	 xmm2, DWORD PTR [eax+8]

; 182  :     z = fz;

  008ae	f3 0f 59 c3	 mulss	 xmm0, xmm3
; File C:\DS Project\DS Files\Source\ClientSource\Client\GameLib\ActorInstanceCollisionDetection.cpp

; 444  : 							v3HitPosition = (GetPosition() + sub.v3Position) * 0.5f;

  008b2	f3 0f 11 45 e4	 movss	 DWORD PTR _v3HitPosition$33[ebp], xmm0
; File C:\DS Project\DS Files\Source\ClientSource\extern\include\d3dx8math.inl

; 257  :     return D3DXVECTOR3(x + v.x, y + v.y, z + v.z);

  008b7	f3 0f 10 46 04	 movss	 xmm0, DWORD PTR [esi+4]
  008bc	f3 0f 58 c1	 addss	 xmm0, xmm1

; 180  :     x = fx;

  008c0	f3 0f 59 c3	 mulss	 xmm0, xmm3
; File C:\DS Project\DS Files\Source\ClientSource\Client\GameLib\ActorInstanceCollisionDetection.cpp

; 444  : 							v3HitPosition = (GetPosition() + sub.v3Position) * 0.5f;

  008c4	f3 0f 11 45 e8	 movss	 DWORD PTR _v3HitPosition$33[ebp+4], xmm0
; File C:\DS Project\DS Files\Source\ClientSource\extern\include\d3dx8math.inl

; 257  :     return D3DXVECTOR3(x + v.x, y + v.y, z + v.z);

  008c9	f3 0f 10 46 08	 movss	 xmm0, DWORD PTR [esi+8]
  008ce	f3 0f 58 c2	 addss	 xmm0, xmm2

; 181  :     y = fy;

  008d2	f3 0f 59 c3	 mulss	 xmm0, xmm3
; File C:\DS Project\DS Files\Source\ClientSource\Client\GameLib\ActorInstanceCollisionDetection.cpp

; 444  : 							v3HitPosition = (GetPosition() + sub.v3Position) * 0.5f;

  008d6	f3 0f 11 45 ec	 movss	 DWORD PTR _v3HitPosition$33[ebp+8], xmm0
$LN31@NormalAtta:

; 445  : 						}
; 446  : 
; 447  : 						__ProcessDataAttackSuccess(*pad, rVictim, v3HitPosition, m_kCurMotNode.uSkill);

  008db	8b 45 ac	 mov	 eax, DWORD PTR _this$GSCopy$1$[ebp]
  008de	8d 4d e4	 lea	 ecx, DWORD PTR _v3HitPosition$33[ebp]
  008e1	6a 01		 push	 1
  008e3	ff b0 30 03 00
	00		 push	 DWORD PTR [eax+816]
  008e9	51		 push	 ecx
  008ea	57		 push	 edi
  008eb	ff 75 a8	 push	 DWORD PTR _pad$1$[ebp]
  008ee	8b c8		 mov	 ecx, eax
  008f0	e8 00 00 00 00	 call	 ?__ProcessDataAttackSuccess@CActorInstance@@IAEXABUSAttackData@NRaceData@@AAV1@ABUD3DXVECTOR3@@IH@Z ; CActorInstance::__ProcessDataAttackSuccess

; 448  : 						return TRUE;

  008f5	b8 01 00 00 00	 mov	 eax, 1
  008fa	e9 92 f7 ff ff	 jmp	 $LN1@NormalAtta
$LN655@NormalAtta:
; File C:\Program Files (x86)\Microsoft Visual Studio\2019\Community\VC\Tools\MSVC\14.27.29110\include\xtree

; 1720 :             _Throw_tree_length_error();

  008ff	e8 00 00 00 00	 call	 ?_Throw_tree_length_error@std@@YAXXZ ; std::_Throw_tree_length_error
$LN656@NormalAtta:
  00904	e8 00 00 00 00	 call	 ?_Throw_tree_length_error@std@@YAXXZ ; std::_Throw_tree_length_error
$LN652@NormalAtta:
  00909	cc		 int	 3
_TEXT	ENDS
;	COMDAT text$x
text$x	SEGMENT
__unwindfunclet$?__NormalAttackProcess@CActorInstance@@QAEHAAV1@@Z$0:
  00000	8d 4d 90	 lea	 ecx, DWORD PTR _HittedInstanceMap$17[ebp]
  00003	e9 00 00 00 00	 jmp	 ??1?$map@PAVCActorInstance@@MU?$less@PAVCActorInstance@@@std@@V?$allocator@U?$pair@QAVCActorInstance@@M@std@@@3@@std@@QAE@XZ
__unwindfunclet$?__NormalAttackProcess@CActorInstance@@QAEHAAV1@@Z$5:
  00008	8d 4d 88	 lea	 ecx, DWORD PTR $T10[ebp]
  0000b	e9 00 00 00 00	 jmp	 ??1?$_Alloc_construct_ptr@V?$allocator@U?$_Tree_node@U?$pair@QAVCActorInstance@@M@std@@PAX@std@@@std@@@std@@QAE@XZ ; std::_Alloc_construct_ptr<std::allocator<std::_Tree_node<std::pair<CActorInstance * const,float>,void *> > >::~_Alloc_construct_ptr<std::allocator<std::_Tree_node<std::pair<CActorInstance * const,float>,void *> > >
__unwindfunclet$?__NormalAttackProcess@CActorInstance@@QAEHAAV1@@Z$11:
  00010	8d 4d 88	 lea	 ecx, DWORD PTR __Sentinel$9[ebp]
  00013	e9 00 00 00 00	 jmp	 ??1?$_Tree_head_scoped_ptr@V?$allocator@U?$_Tree_node@U?$pair@QAVCActorInstance@@M@std@@PAX@std@@@std@@V?$_Tree_val@U?$_Tree_simple_types@U?$pair@QAVCActorInstance@@M@std@@@std@@@2@@std@@QAE@XZ ; std::_Tree_head_scoped_ptr<std::allocator<std::_Tree_node<std::pair<CActorInstance * const,float>,void *> >,std::_Tree_val<std::_Tree_simple_types<std::pair<CActorInstance * const,float> > > >::~_Tree_head_scoped_ptr<std::allocator<std::_Tree_node<std::pair<CActorInstance * const,float>,void *> >,std::_Tree_val<std::_Tree_simple_types<std::pair<CActorInstance * const,float> > > >
__unwindfunclet$?__NormalAttackProcess@CActorInstance@@QAEHAAV1@@Z$1:
  00018	8d 4d 98	 lea	 ecx, DWORD PTR $T19[ebp]
  0001b	e9 00 00 00 00	 jmp	 ??1?$pair@PBUSHitData@NRaceData@@V?$map@PAVCActorInstance@@MU?$less@PAVCActorInstance@@@std@@V?$allocator@U?$pair@QAVCActorInstance@@M@std@@@3@@std@@@std@@QAE@XZ
__unwindfunclet$?__NormalAttackProcess@CActorInstance@@QAEHAAV1@@Z$14:
  00020	8d 4d b4	 lea	 ecx, DWORD PTR $T20[ebp]
  00023	e9 00 00 00 00	 jmp	 ??1?$_Alloc_construct_ptr@V?$allocator@U?$_Tree_node@U?$pair@QBUSHitData@NRaceData@@V?$map@PAVCActorInstance@@MU?$less@PAVCActorInstance@@@std@@V?$allocator@U?$pair@QAVCActorInstance@@M@std@@@3@@std@@@std@@PAX@std@@@std@@@std@@QAE@XZ ; std::_Alloc_construct_ptr<std::allocator<std::_Tree_node<std::pair<NRaceData::SHitData const * const,std::map<CActorInstance *,float,std::less<CActorInstance *>,std::allocator<std::pair<CActorInstance * const,float> > > >,void *> > >::~_Alloc_construct_ptr<std::allocator<std::_Tree_node<std::pair<NRaceData::SHitData const * const,std::map<CActorInstance *,float,std::less<CActorInstance *>,std::allocator<std::pair<CActorInstance * const,float> > > >,void *> > >
__unwindfunclet$?__NormalAttackProcess@CActorInstance@@QAEHAAV1@@Z$13:
  00028	8d 4d b4	 lea	 ecx, DWORD PTR $T20[ebp]
  0002b	e9 00 00 00 00	 jmp	 ??1?$_Tree_temp_node_alloc@V?$allocator@U?$_Tree_node@U?$pair@QBUSHitData@NRaceData@@V?$map@PAVCActorInstance@@MU?$less@PAVCActorInstance@@@std@@V?$allocator@U?$pair@QAVCActorInstance@@M@std@@@3@@std@@@std@@PAX@std@@@std@@@std@@QAE@XZ
  00030	cc		 int	 3
  00031	cc		 int	 3
  00032	cc		 int	 3
  00033	cc		 int	 3
  00034	cc		 int	 3
__ehhandler$?__NormalAttackProcess@CActorInstance@@QAEHAAV1@@Z:
  00035	90		 npad	 1
  00036	90		 npad	 1
  00037	8b 54 24 08	 mov	 edx, DWORD PTR [esp+8]
  0003b	8d 42 0c	 lea	 eax, DWORD PTR [edx+12]
  0003e	8b 8a 6c ff ff
	ff		 mov	 ecx, DWORD PTR [edx-148]
  00044	33 c8		 xor	 ecx, eax
  00046	e8 00 00 00 00	 call	 @__security_check_cookie@4
  0004b	8b 4a fc	 mov	 ecx, DWORD PTR [edx-4]
  0004e	33 c8		 xor	 ecx, eax
  00050	e8 00 00 00 00	 call	 @__security_check_cookie@4
  00055	b8 00 00 00 00	 mov	 eax, OFFSET __ehfuncinfo$?__NormalAttackProcess@CActorInstance@@QAEHAAV1@@Z
  0005a	e9 00 00 00 00	 jmp	 ___CxxFrameHandler3
text$x	ENDS
?__NormalAttackProcess@CActorInstance@@QAEHAAV1@@Z ENDP	; CActorInstance::__NormalAttackProcess
; Function compile flags: /Ogtp
; File C:\DS Project\DS Files\Source\ClientSource\Client\GameLib\ActorInstanceCollisionDetection.cpp
; File C:\DS Project\DS Files\Source\ClientSource\extern\include\d3dx8math.inl
; File C:\DS Project\DS Files\Source\ClientSource\Client\GameLib\ActorInstanceCollisionDetection.cpp
; File C:\Program Files (x86)\Microsoft Visual Studio\2019\Community\VC\Tools\MSVC\14.27.29110\include\xtree
; File C:\DS Project\DS Files\Source\ClientSource\Client\GameLib\ActorInstanceCollisionDetection.cpp
; File C:\Program Files (x86)\Microsoft Visual Studio\2019\Community\VC\Tools\MSVC\14.27.29110\include\xtree
; File C:\DS Project\DS Files\Source\ClientSource\Client\GameLib\ActorInstanceCollisionDetection.cpp
; File C:\Program Files (x86)\Microsoft Visual Studio\2019\Community\VC\Tools\MSVC\14.27.29110\include\xtree
; File C:\Program Files (x86)\Microsoft Visual Studio\2019\Community\VC\Tools\MSVC\14.27.29110\include\xstddef
; File C:\Program Files (x86)\Microsoft Visual Studio\2019\Community\VC\Tools\MSVC\14.27.29110\include\xtree
; File C:\DS Project\DS Files\Source\ClientSource\Client\GameLib\ActorInstanceCollisionDetection.cpp
; File C:\Program Files (x86)\Microsoft Visual Studio\2019\Community\VC\Tools\MSVC\14.27.29110\include\utility
; File C:\DS Project\DS Files\Source\ClientSource\Client\GameLib\ActorInstanceCollisionDetection.cpp
; File C:\Program Files (x86)\Microsoft Visual Studio\2019\Community\VC\Tools\MSVC\14.27.29110\include\utility
; File C:\DS Project\DS Files\Source\ClientSource\Client\GameLib\ActorInstanceCollisionDetection.cpp
;	COMDAT ?__SplashAttackProcess@CActorInstance@@QAEHAAV1@@Z
_TEXT	SEGMENT
__Loc$1 = -36						; size = 12
$T2 = -32						; size = 8
$T3 = -24						; size = 8
$T4 = -20						; size = 4
_v3HitPosition$ = -16					; size = 12
__$ArrayPad$ = -4					; size = 4
_rVictim$ = 8						; size = 4
?__SplashAttackProcess@CActorInstance@@QAEHAAV1@@Z PROC	; CActorInstance::__SplashAttackProcess, COMDAT
; _this$ = ecx

; 265  : {

  00000	55		 push	 ebp
  00001	8b ec		 mov	 ebp, esp
  00003	83 ec 24	 sub	 esp, 36			; 00000024H
  00006	a1 00 00 00 00	 mov	 eax, DWORD PTR ___security_cookie
  0000b	33 c5		 xor	 eax, ebp
  0000d	89 45 fc	 mov	 DWORD PTR __$ArrayPad$[ebp], eax
  00010	53		 push	 ebx
  00011	56		 push	 esi
  00012	57		 push	 edi
  00013	8b 7d 08	 mov	 edi, DWORD PTR _rVictim$[ebp]
  00016	8b f1		 mov	 esi, ecx

; 266  : 	D3DXVECTOR3 v3Distance(rVictim.m_x - m_x, rVictim.m_z - m_z, rVictim.m_z - m_z);

  00018	f3 0f 10 8f 68
	04 00 00	 movss	 xmm1, DWORD PTR [edi+1128]
  00020	f3 0f 5c 8e 68
	04 00 00	 subss	 xmm1, DWORD PTR [esi+1128]
  00028	f3 0f 10 87 70
	04 00 00	 movss	 xmm0, DWORD PTR [edi+1136]
  00030	f3 0f 5c 86 70
	04 00 00	 subss	 xmm0, DWORD PTR [esi+1136]
; File C:\DS Project\DS Files\Source\ClientSource\extern\include\d3dx8math.inl

; 1253 :     return pV->x * pV->x + pV->y * pV->y + pV->z * pV->z;

  00038	f3 0f 59 c9	 mulss	 xmm1, xmm1

; 182  :     z = fz;

  0003c	f3 0f 59 c0	 mulss	 xmm0, xmm0

; 1253 :     return pV->x * pV->x + pV->y * pV->y + pV->z * pV->z;

  00040	f3 0f 58 c8	 addss	 xmm1, xmm0
  00044	f3 0f 58 c8	 addss	 xmm1, xmm0
; File C:\DS Project\DS Files\Source\ClientSource\Client\GameLib\ActorInstanceCollisionDetection.cpp

; 268  : 	if (fDistance >= 1000.0f*1000.0f)

  00048	0f 2f 0d 00 00
	00 00		 comiss	 xmm1, DWORD PTR __real@49742400
  0004f	0f 83 f4 00 00
	00		 jae	 $LN8@SplashAtta

; 269  : 		return FALSE;
; 270  : 
; 271  : 	// Check Distance
; 272  : 	if (!__IsInSplashTime())

  00055	e8 00 00 00 00	 call	 ?__IsInSplashTime@CActorInstance@@IAE_NXZ ; CActorInstance::__IsInSplashTime
  0005a	84 c0		 test	 al, al
  0005c	0f 84 e7 00 00
	00		 je	 $LN8@SplashAtta

; 276  : 	const NRaceData::TAttackData & c_rAttackData = c_pAttackingEvent->AttackData;

  00062	8b 9e 58 03 00
	00		 mov	 ebx, DWORD PTR [esi+856]
; File C:\Program Files (x86)\Microsoft Visual Studio\2019\Community\VC\Tools\MSVC\14.27.29110\include\xtree

; 1458 :         const _Tree_find_result<_Nodeptr> _Loc = _Find_lower_bound(_Keyval);

  00068	8d 4d ec	 lea	 ecx, DWORD PTR $T4[ebp]
  0006b	51		 push	 ecx
  0006c	8d 4d dc	 lea	 ecx, DWORD PTR __Loc$1[ebp]
; File C:\DS Project\DS Files\Source\ClientSource\Client\GameLib\ActorInstanceCollisionDetection.cpp

; 279  : 	if (rHittedInstanceMap.end() != rHittedInstanceMap.find(&rVictim))

  0006f	89 7d ec	 mov	 DWORD PTR $T4[ebp], edi
; File C:\Program Files (x86)\Microsoft Visual Studio\2019\Community\VC\Tools\MSVC\14.27.29110\include\xtree

; 1458 :         const _Tree_find_result<_Nodeptr> _Loc = _Find_lower_bound(_Keyval);

  00072	51		 push	 ecx
  00073	8d 8e 68 03 00
	00		 lea	 ecx, DWORD PTR [esi+872]
; File C:\DS Project\DS Files\Source\ClientSource\Client\GameLib\ActorInstanceCollisionDetection.cpp

; 276  : 	const NRaceData::TAttackData & c_rAttackData = c_pAttackingEvent->AttackData;

  00079	83 c3 28	 add	 ebx, 40			; 00000028H
; File C:\Program Files (x86)\Microsoft Visual Studio\2019\Community\VC\Tools\MSVC\14.27.29110\include\xtree

; 1458 :         const _Tree_find_result<_Nodeptr> _Loc = _Find_lower_bound(_Keyval);

  0007c	e8 00 00 00 00	 call	 ??$_Find_lower_bound@PAVCActorInstance@@@?$_Tree@V?$_Tmap_traits@PAVCActorInstance@@MU?$less@PAVCActorInstance@@@std@@V?$allocator@U?$pair@QAVCActorInstance@@M@std@@@3@$0A@@std@@@std@@IBE?AU?$_Tree_find_result@PAU?$_Tree_node@U?$pair@QAVCActorInstance@@M@std@@PAX@std@@@1@ABQAVCActorInstance@@@Z ; std::_Tree<std::_Tmap_traits<CActorInstance *,float,std::less<CActorInstance *>,std::allocator<std::pair<CActorInstance * const,float> >,0> >::_Find_lower_bound<CActorInstance *>

; 1695 :         return !_Bound->_Isnil && !_DEBUG_LT_PRED(_Getcomp(), _Keyval, _Traits::_Kfn(_Bound->_Myval));

  00081	8b 45 e4	 mov	 eax, DWORD PTR __Loc$1[ebp+8]
  00084	80 78 0d 00	 cmp	 BYTE PTR [eax+13], 0
  00088	75 11		 jne	 SHORT $LN4@SplashAtta
; File C:\Program Files (x86)\Microsoft Visual Studio\2019\Community\VC\Tools\MSVC\14.27.29110\include\xstddef

; 127  :         return _Left < _Right;

  0008a	3b 78 10	 cmp	 edi, DWORD PTR [eax+16]
; File C:\Program Files (x86)\Microsoft Visual Studio\2019\Community\VC\Tools\MSVC\14.27.29110\include\xtree

; 1695 :         return !_Bound->_Isnil && !_DEBUG_LT_PRED(_Getcomp(), _Keyval, _Traits::_Kfn(_Bound->_Myval));

  0008d	72 0c		 jb	 SHORT $LN4@SplashAtta

; 232  :         return this->_Ptr == _Right._Ptr;

  0008f	39 86 68 03 00
	00		 cmp	 DWORD PTR [esi+872], eax
; File C:\DS Project\DS Files\Source\ClientSource\Client\GameLib\ActorInstanceCollisionDetection.cpp

; 279  : 	if (rHittedInstanceMap.end() != rHittedInstanceMap.find(&rVictim))

  00095	0f 85 ae 00 00
	00		 jne	 $LN8@SplashAtta
$LN4@SplashAtta:

; 280  : 	{
; 281  : 		return FALSE;
; 282  : 	}
; 283  : 
; 284  : 	if (NRaceData::ATTACK_TYPE_SNIPE == c_rAttackData.iAttackType)

  0009b	83 3b 01	 cmp	 DWORD PTR [ebx], 1
  0009e	75 1b		 jne	 SHORT $LN7@SplashAtta

; 285  : 	{
; 286  : 		if (__IsFlyTargetPC())

  000a0	8b ce		 mov	 ecx, esi
  000a2	e8 00 00 00 00	 call	 ?__IsFlyTargetPC@CActorInstance@@IAE_NXZ ; CActorInstance::__IsFlyTargetPC
  000a7	84 c0		 test	 al, al
  000a9	74 10		 je	 SHORT $LN7@SplashAtta

; 287  : 			if (!__IsSameFlyTarget(&rVictim))

  000ab	57		 push	 edi
  000ac	8b ce		 mov	 ecx, esi
  000ae	e8 00 00 00 00	 call	 ?__IsSameFlyTarget@CActorInstance@@IAE_NPAV1@@Z ; CActorInstance::__IsSameFlyTarget
  000b3	84 c0		 test	 al, al
  000b5	0f 84 8e 00 00
	00		 je	 $LN8@SplashAtta
$LN7@SplashAtta:

; 288  : 				return FALSE;
; 289  : 
; 290  : 
; 291  : 	}
; 292  : 
; 293  : 	D3DXVECTOR3 v3HitPosition;
; 294  : 	if (rVictim.CheckCollisionDetection(&m_kSplashArea.SphereInstanceVector, &v3HitPosition))

  000bb	8d 45 f0	 lea	 eax, DWORD PTR _v3HitPosition$[ebp]
  000be	8b cf		 mov	 ecx, edi
  000c0	50		 push	 eax
  000c1	8d 86 5c 03 00
	00		 lea	 eax, DWORD PTR [esi+860]
  000c7	50		 push	 eax
  000c8	e8 00 00 00 00	 call	 ?CheckCollisionDetection@CActorInstance@@QAE_NPBV?$vector@UCDynamicSphereInstance@@V?$allocator@UCDynamicSphereInstance@@@std@@@std@@PAUD3DXVECTOR3@@@Z ; CActorInstance::CheckCollisionDetection
  000cd	84 c0		 test	 al, al
  000cf	74 78		 je	 SHORT $LN8@SplashAtta

; 296  : 		rHittedInstanceMap.insert(make_pair(&rVictim, GetLocalTime()+c_rAttackData.fInvisibleTime));

  000d1	8b ce		 mov	 ecx, esi
; File C:\Program Files (x86)\Microsoft Visual Studio\2019\Community\VC\Tools\MSVC\14.27.29110\include\utility

; 192  :         : first(_STD forward<_Other1>(_Val1)), second(_STD forward<_Other2>(_Val2)) {}

  000d3	89 7d e8	 mov	 DWORD PTR $T3[ebp], edi
; File C:\DS Project\DS Files\Source\ClientSource\Client\GameLib\ActorInstanceCollisionDetection.cpp

; 296  : 		rHittedInstanceMap.insert(make_pair(&rVictim, GetLocalTime()+c_rAttackData.fInvisibleTime));

  000d6	e8 00 00 00 00	 call	 ?GetLocalTime@CGraphicThingInstance@@QAEMXZ ; CGraphicThingInstance::GetLocalTime
  000db	d8 43 08	 fadd	 DWORD PTR [ebx+8]
  000de	8d 45 e8	 lea	 eax, DWORD PTR $T3[ebp]
  000e1	50		 push	 eax
  000e2	8d 45 e0	 lea	 eax, DWORD PTR $T2[ebp]
  000e5	50		 push	 eax
  000e6	8d 8e 68 03 00
	00		 lea	 ecx, DWORD PTR [esi+872]
; File C:\Program Files (x86)\Microsoft Visual Studio\2019\Community\VC\Tools\MSVC\14.27.29110\include\utility

; 192  :         : first(_STD forward<_Other1>(_Val1)), second(_STD forward<_Other2>(_Val2)) {}

  000ec	d9 5d ec	 fstp	 DWORD PTR $T3[ebp+4]
; File C:\DS Project\DS Files\Source\ClientSource\Client\GameLib\ActorInstanceCollisionDetection.cpp

; 296  : 		rHittedInstanceMap.insert(make_pair(&rVictim, GetLocalTime()+c_rAttackData.fInvisibleTime));

  000ef	e8 00 00 00 00	 call	 ??$insert@U?$pair@PAVCActorInstance@@M@std@@$0A@@?$map@PAVCActorInstance@@MU?$less@PAVCActorInstance@@@std@@V?$allocator@U?$pair@QAVCActorInstance@@M@std@@@3@@std@@QAE?AU?$pair@V?$_Tree_iterator@V?$_Tree_val@U?$_Tree_simple_types@U?$pair@QAVCActorInstance@@M@std@@@std@@@std@@@std@@_N@1@$$QAU?$pair@PAVCActorInstance@@M@1@@Z ; std::map<CActorInstance *,float,std::less<CActorInstance *>,std::allocator<std::pair<CActorInstance * const,float> > >::insert<std::pair<CActorInstance *,float>,0>

; 297  : 
; 298  : 		int iCurrentHitCount = rHittedInstanceMap.size();
; 299  : 		int iMaxHitCount = (0 == c_rAttackData.iHitLimitCount ? 16 : c_rAttackData.iHitLimitCount);

  000f4	8b 43 14	 mov	 eax, DWORD PTR [ebx+20]
  000f7	b9 10 00 00 00	 mov	 ecx, 16			; 00000010H
  000fc	85 c0		 test	 eax, eax
  000fe	0f 44 c1	 cmove	 eax, ecx

; 300  : 		//Tracef(" ------------------- Splash Hit : %d\n", iCurrentHitCount);
; 301  : 
; 302  : 		if (iCurrentHitCount > iMaxHitCount)

  00101	39 86 6c 03 00
	00		 cmp	 DWORD PTR [esi+876], eax
  00107	7f 40		 jg	 SHORT $LN8@SplashAtta

; 303  : 		{
; 304  : 			//Tracef(" ------------------- OVER FLOW :: Splash Hit Count : %d\n", iCurrentHitCount);
; 305  : 			return FALSE;
; 306  : 		}
; 307  : 
; 308  : 		NEW_SetAtkPixelPosition(NEW_GetCurPixelPositionRef());

  00109	8b ce		 mov	 ecx, esi
  0010b	e8 00 00 00 00	 call	 ?NEW_GetCurPixelPositionRef@CActorInstance@@QAEABUD3DXVECTOR3@@XZ ; CActorInstance::NEW_GetCurPixelPositionRef
  00110	50		 push	 eax
  00111	8b ce		 mov	 ecx, esi
  00113	e8 00 00 00 00	 call	 ?NEW_SetAtkPixelPosition@CActorInstance@@QAEXABUD3DXVECTOR3@@@Z ; CActorInstance::NEW_SetAtkPixelPosition

; 309  : 		__ProcessDataAttackSuccess(c_rAttackData, rVictim, v3HitPosition, m_kSplashArea.uSkill, m_kSplashArea.isEnableHitProcess);

  00118	ff b6 48 03 00
	00		 push	 DWORD PTR [esi+840]
  0011e	8d 45 f0	 lea	 eax, DWORD PTR _v3HitPosition$[ebp]
  00121	8b ce		 mov	 ecx, esi
  00123	ff b6 4c 03 00
	00		 push	 DWORD PTR [esi+844]
  00129	50		 push	 eax
  0012a	57		 push	 edi
  0012b	53		 push	 ebx
  0012c	e8 00 00 00 00	 call	 ?__ProcessDataAttackSuccess@CActorInstance@@IAEXABUSAttackData@NRaceData@@AAV1@ABUD3DXVECTOR3@@IH@Z ; CActorInstance::__ProcessDataAttackSuccess
  00131	5f		 pop	 edi

; 310  : 		return TRUE;
; 311  : 	}
; 312  : 
; 313  : 	return FALSE;
; 314  : }

  00132	5e		 pop	 esi
  00133	b8 01 00 00 00	 mov	 eax, 1
  00138	5b		 pop	 ebx
  00139	8b 4d fc	 mov	 ecx, DWORD PTR __$ArrayPad$[ebp]
  0013c	33 cd		 xor	 ecx, ebp
  0013e	e8 00 00 00 00	 call	 @__security_check_cookie@4
  00143	8b e5		 mov	 esp, ebp
  00145	5d		 pop	 ebp
  00146	c2 04 00	 ret	 4
$LN8@SplashAtta:
  00149	8b 4d fc	 mov	 ecx, DWORD PTR __$ArrayPad$[ebp]
  0014c	33 c0		 xor	 eax, eax
  0014e	5f		 pop	 edi
  0014f	5e		 pop	 esi
  00150	33 cd		 xor	 ecx, ebp
  00152	5b		 pop	 ebx
  00153	e8 00 00 00 00	 call	 @__security_check_cookie@4
  00158	8b e5		 mov	 esp, ebp
  0015a	5d		 pop	 ebp
  0015b	c2 04 00	 ret	 4
?__SplashAttackProcess@CActorInstance@@QAEHAAV1@@Z ENDP	; CActorInstance::__SplashAttackProcess
_TEXT	ENDS
; Function compile flags: /Ogtp
; File C:\DS Project\DS Files\Source\ClientSource\Client\GameLib\ActorInstanceCollisionDetection.cpp
;	COMDAT ?AttackingProcess@CActorInstance@@QAEHAAV1@@Z
_TEXT	SEGMENT
_rVictim$ = 8						; size = 4
?AttackingProcess@CActorInstance@@QAEHAAV1@@Z PROC	; CActorInstance::AttackingProcess, COMDAT
; _this$ = ecx

; 459  : {

  00000	55		 push	 ebp
  00001	8b ec		 mov	 ebp, esp
  00003	56		 push	 esi

; 460  : 	if (rVictim.__isInvisible())

  00004	8b 75 08	 mov	 esi, DWORD PTR _rVictim$[ebp]
  00007	57		 push	 edi
  00008	8b f9		 mov	 edi, ecx
  0000a	8b ce		 mov	 ecx, esi
  0000c	e8 00 00 00 00	 call	 ?__isInvisible@CActorInstance@@IAE_NXZ ; CActorInstance::__isInvisible
  00011	84 c0		 test	 al, al
  00013	75 23		 jne	 SHORT $LN4@AttackingP

; 461  : 		return FALSE;
; 462  : 
; 463  : 	if (__SplashAttackProcess(rVictim))

  00015	56		 push	 esi
  00016	8b cf		 mov	 ecx, edi
  00018	e8 00 00 00 00	 call	 ?__SplashAttackProcess@CActorInstance@@QAEHAAV1@@Z ; CActorInstance::__SplashAttackProcess
  0001d	85 c0		 test	 eax, eax
  0001f	75 0c		 jne	 SHORT $LN6@AttackingP

; 464  : 		return TRUE;
; 465  : 
; 466  : 	if (__NormalAttackProcess(rVictim))

  00021	56		 push	 esi
  00022	8b cf		 mov	 ecx, edi
  00024	e8 00 00 00 00	 call	 ?__NormalAttackProcess@CActorInstance@@QAEHAAV1@@Z ; CActorInstance::__NormalAttackProcess
  00029	85 c0		 test	 eax, eax
  0002b	74 0b		 je	 SHORT $LN4@AttackingP
$LN6@AttackingP:
  0002d	5f		 pop	 edi

; 467  : 		return TRUE;

  0002e	b8 01 00 00 00	 mov	 eax, 1

; 470  : }

  00033	5e		 pop	 esi
  00034	5d		 pop	 ebp
  00035	c2 04 00	 ret	 4
$LN4@AttackingP:
  00038	5f		 pop	 edi

; 468  : 
; 469  : 	return FALSE;

  00039	33 c0		 xor	 eax, eax

; 470  : }

  0003b	5e		 pop	 esi
  0003c	5d		 pop	 ebp
  0003d	c2 04 00	 ret	 4
?AttackingProcess@CActorInstance@@QAEHAAV1@@Z ENDP	; CActorInstance::AttackingProcess
_TEXT	ENDS
; Function compile flags: /Ogtp
; File C:\DS Project\DS Files\Source\ClientSource\Client\GameLib\ActorInstanceCollisionDetection.cpp
; File C:\DS Project\DS Files\Source\ClientSource\extern\include\d3dx8math.inl
; File C:\DS Project\DS Files\Source\ClientSource\Client\GameLib\ActorInstanceCollisionDetection.cpp
; File C:\Program Files (x86)\Microsoft Visual Studio\2019\Community\VC\Tools\MSVC\14.27.29110\include\list
; File C:\DS Project\DS Files\Source\ClientSource\Client\GameLib\ActorInstanceCollisionDetection.cpp
; File C:\Program Files (x86)\Microsoft Visual Studio\2019\Community\VC\Tools\MSVC\14.27.29110\include\list
; File C:\DS Project\DS Files\Source\ClientSource\Client\GameLib\ActorInstanceCollisionDetection.cpp
; File C:\Program Files (x86)\Microsoft Visual Studio\2019\Community\VC\Tools\MSVC\14.27.29110\include\vector
; File C:\DS Project\DS Files\Source\ClientSource\Client\GameLib\ActorInstanceCollisionDetection.cpp
; File C:\Program Files (x86)\Microsoft Visual Studio\2019\Community\VC\Tools\MSVC\14.27.29110\include\vector
; File C:\DS Project\DS Files\Source\ClientSource\Client\GameLib\ActorInstanceCollisionDetection.cpp
; File C:\Program Files (x86)\Microsoft Visual Studio\2019\Community\VC\Tools\MSVC\14.27.29110\include\vector
; File C:\DS Project\DS Files\Source\ClientSource\Client\GameLib\ActorInstanceCollisionDetection.cpp
; File C:\Program Files (x86)\Microsoft Visual Studio\2019\Community\VC\Tools\MSVC\14.27.29110\include\vector
; File C:\DS Project\DS Files\Source\ClientSource\Client\GameLib\ActorInstanceCollisionDetection.cpp
; File C:\Program Files (x86)\Microsoft Visual Studio\2019\Community\VC\Tools\MSVC\14.27.29110\include\vector
; File C:\DS Project\DS Files\Source\ClientSource\Client\GameLib\ActorInstanceCollisionDetection.cpp
; File C:\Program Files (x86)\Microsoft Visual Studio\2019\Community\VC\Tools\MSVC\14.27.29110\include\vector
; File C:\DS Project\DS Files\Source\ClientSource\Client\GameLib\ActorInstanceCollisionDetection.cpp
; File C:\DS Project\DS Files\Source\ClientSource\extern\include\d3dx8math.inl
; File C:\DS Project\DS Files\Source\ClientSource\Client\GameLib\ActorInstanceCollisionDetection.cpp
; File C:\Program Files (x86)\Microsoft Visual Studio\2019\Community\VC\Tools\MSVC\14.27.29110\include\vector
; File C:\DS Project\DS Files\Source\ClientSource\Client\GameLib\ActorInstanceCollisionDetection.cpp
; File C:\Program Files (x86)\Microsoft Visual Studio\2019\Community\VC\Tools\MSVC\14.27.29110\include\vector
; File C:\DS Project\DS Files\Source\ClientSource\Client\GameLib\ActorInstanceCollisionDetection.cpp
; File C:\Program Files (x86)\Microsoft Visual Studio\2019\Community\VC\Tools\MSVC\14.27.29110\include\vector
; File C:\DS Project\DS Files\Source\ClientSource\Client\GameLib\ActorInstanceCollisionDetection.cpp
; File C:\Program Files (x86)\Microsoft Visual Studio\2019\Community\VC\Tools\MSVC\14.27.29110\include\vector
; File C:\DS Project\DS Files\Source\ClientSource\Client\GameLib\ActorInstanceCollisionDetection.cpp
; File C:\Program Files (x86)\Microsoft Visual Studio\2019\Community\VC\Tools\MSVC\14.27.29110\include\vector
; File C:\DS Project\DS Files\Source\ClientSource\Client\GameLib\ActorInstanceCollisionDetection.cpp
; File C:\Program Files (x86)\Microsoft Visual Studio\2019\Community\VC\Tools\MSVC\14.27.29110\include\vector
; File C:\DS Project\DS Files\Source\ClientSource\Client\GameLib\ActorInstanceCollisionDetection.cpp
; File C:\Program Files (x86)\Microsoft Visual Studio\2019\Community\VC\Tools\MSVC\14.27.29110\include\list
; File C:\DS Project\DS Files\Source\ClientSource\Client\GameLib\ActorInstanceCollisionDetection.cpp
; File C:\Program Files (x86)\Microsoft Visual Studio\2019\Community\VC\Tools\MSVC\14.27.29110\include\list
; File C:\DS Project\DS Files\Source\ClientSource\Client\GameLib\ActorInstanceCollisionDetection.cpp
; File C:\DS Project\DS Files\Source\ClientSource\Client\eterLib\GrpMath.h
; File C:\DS Project\DS Files\Source\ClientSource\Client\GameLib\ActorInstanceCollisionDetection.cpp
; File C:\DS Project\DS Files\Source\ClientSource\Client\eterLib\GrpMath.h
; File C:\DS Project\DS Files\Source\ClientSource\Client\GameLib\ActorInstanceCollisionDetection.cpp
; File C:\DS Project\DS Files\Source\ClientSource\Client\eterLib\GrpMath.h
; File C:\DS Project\DS Files\Source\ClientSource\Client\GameLib\ActorInstanceCollisionDetection.cpp
; File C:\DS Project\DS Files\Source\ClientSource\Client\eterLib\GrpMath.h
; File C:\DS Project\DS Files\Source\ClientSource\Client\GameLib\ActorInstanceCollisionDetection.cpp
; File C:\DS Project\DS Files\Source\ClientSource\Client\eterLib\GrpMath.h
; File C:\DS Project\DS Files\Source\ClientSource\Client\GameLib\ActorInstanceCollisionDetection.cpp
; File C:\DS Project\DS Files\Source\ClientSource\Client\eterLib\GrpMath.h
; File C:\DS Project\DS Files\Source\ClientSource\Client\GameLib\ActorInstanceCollisionDetection.cpp
;	COMDAT ?TestPhysicsBlendingCollision@CActorInstance@@QAEHAAV1@@Z
_TEXT	SEGMENT
_prevPosition$4$ = -112					; size = 8
_prevLastPosition$1$ = -104				; size = 8
_prevPosition$ = -96					; size = 12
_c_rVictimSphere$1$ = -84				; size = 4
_rVictim$GSCopy$1$ = -80				; size = 4
_prevPosition$1$ = -76					; size = 4
_prevPosition$2$ = -72					; size = 4
_prevPosition$3$ = -68					; size = 4
_prevPosition$5$ = -64					; size = 4
_prevLastPosition$2$ = -60				; size = 4
_this$GSCopy$1$ = -56					; size = 4
$T1 = -52						; size = 4
_i$1$ = -48						; size = 4
_c_rMainSphere$1$ = -44					; size = 4
tv1113 = -40						; size = 4
_i$1$ = -36						; size = 4
_j$1$ = -32						; size = 4
_kPDelta$ = -28						; size = 12
_kPPosLast$ = -16					; size = 12
__$ArrayPad$ = -4					; size = 4
_rVictim$ = 8						; size = 4
?TestPhysicsBlendingCollision@CActorInstance@@QAEHAAV1@@Z PROC ; CActorInstance::TestPhysicsBlendingCollision, COMDAT
; _this$ = ecx

; 473  : {

  00000	55		 push	 ebp
  00001	8b ec		 mov	 ebp, esp
  00003	83 ec 70	 sub	 esp, 112		; 00000070H
  00006	a1 00 00 00 00	 mov	 eax, DWORD PTR ___security_cookie
  0000b	33 c5		 xor	 eax, ebp
  0000d	89 45 fc	 mov	 DWORD PTR __$ArrayPad$[ebp], eax
  00010	53		 push	 ebx
  00011	56		 push	 esi
  00012	8b 75 08	 mov	 esi, DWORD PTR _rVictim$[ebp]
  00015	57		 push	 edi
  00016	8b f9		 mov	 edi, ecx
  00018	89 75 b0	 mov	 DWORD PTR _rVictim$GSCopy$1$[ebp], esi

; 474  : 	if (rVictim.IsDead())

  0001b	8b ce		 mov	 ecx, esi
  0001d	89 7d c8	 mov	 DWORD PTR _this$GSCopy$1$[ebp], edi
  00020	e8 00 00 00 00	 call	 ?IsDead@CActorInstance@@QAEHXZ ; CActorInstance::IsDead
  00025	85 c0		 test	 eax, eax
  00027	0f 85 6f 02 00
	00		 jne	 $LN132@TestPhysic

; 475  : 		return FALSE;
; 476  : 
; 477  : 	TPixelPosition kPPosLast;
; 478  : 	GetBlendingPosition( &kPPosLast );

  0002d	8d 45 f0	 lea	 eax, DWORD PTR _kPPosLast$[ebp]
  00030	8b cf		 mov	 ecx, edi
  00032	50		 push	 eax
  00033	e8 00 00 00 00	 call	 ?GetBlendingPosition@CActorInstance@@QAEXPAUD3DXVECTOR3@@@Z ; CActorInstance::GetBlendingPosition

; 479  : 
; 480  : 	D3DXVECTOR3 v3Distance = D3DXVECTOR3(rVictim.m_x - kPPosLast.x, rVictim.m_y - kPPosLast.y, rVictim.m_z - kPPosLast.z);

  00038	f3 0f 10 8e 68
	04 00 00	 movss	 xmm1, DWORD PTR [esi+1128]
  00040	f3 0f 10 96 6c
	04 00 00	 movss	 xmm2, DWORD PTR [esi+1132]
  00048	f3 0f 5c 55 f4	 subss	 xmm2, DWORD PTR _kPPosLast$[ebp+4]
  0004d	f3 0f 5c 4d f0	 subss	 xmm1, DWORD PTR _kPPosLast$[ebp]
  00052	f3 0f 10 86 70
	04 00 00	 movss	 xmm0, DWORD PTR [esi+1136]
  0005a	f3 0f 5c 45 f8	 subss	 xmm0, DWORD PTR _kPPosLast$[ebp+8]
; File C:\DS Project\DS Files\Source\ClientSource\extern\include\d3dx8math.inl

; 182  :     z = fz;

  0005f	f3 0f 59 d2	 mulss	 xmm2, xmm2

; 1253 :     return pV->x * pV->x + pV->y * pV->y + pV->z * pV->z;

  00063	f3 0f 59 c9	 mulss	 xmm1, xmm1
  00067	f3 0f 59 c0	 mulss	 xmm0, xmm0
  0006b	f3 0f 58 d1	 addss	 xmm2, xmm1
  0006f	f3 0f 58 d0	 addss	 xmm2, xmm0
; File C:\DS Project\DS Files\Source\ClientSource\Client\GameLib\ActorInstanceCollisionDetection.cpp

; 482  : 	if (fDistance > 800.0f*800.0f)

  00073	0f 2f 15 00 00
	00 00		 comiss	 xmm2, DWORD PTR __real@491c4000
  0007a	0f 87 1c 02 00
	00		 ja	 $LN132@TestPhysic

; 483  : 		return FALSE;
; 484  : 
; 485  : 	TCollisionPointInstanceList * pMainList;
; 486  : 	TCollisionPointInstanceList * pVictimList;
; 487  : 	if (isAttacking() || IsWaiting())

  00080	8b cf		 mov	 ecx, edi
  00082	e8 00 00 00 00	 call	 ?isAttacking@CActorInstance@@QAEHXZ ; CActorInstance::isAttacking
  00087	85 c0		 test	 eax, eax
  00089	75 10		 jne	 SHORT $LN21@TestPhysic
  0008b	8b cf		 mov	 ecx, edi
  0008d	e8 00 00 00 00	 call	 ?IsWaiting@CActorInstance@@QAEHXZ ; CActorInstance::IsWaiting

; 491  : 	}
; 492  : 	else
; 493  : 	{
; 494  : 		pMainList = &m_BodyPointInstanceList;
; 495  : 		pVictimList = &rVictim.m_BodyPointInstanceList;

  00092	bb 38 03 00 00	 mov	 ebx, 824		; 00000338H
  00097	85 c0		 test	 eax, eax
  00099	74 05		 je	 SHORT $LN136@TestPhysic
$LN21@TestPhysic:

; 488  : 	{
; 489  : 		pMainList = &m_DefendingPointInstanceList;
; 490  : 		pVictimList = &rVictim.m_DefendingPointInstanceList;

  0009b	bb 40 03 00 00	 mov	 ebx, 832		; 00000340H
$LN136@TestPhysic:

; 496  : 	}
; 497  : 
; 498  : 	TPixelPosition kPDelta;
; 499  : 	m_PhysicsObject.GetLastPosition(&kPDelta);

  000a0	8d 45 e4	 lea	 eax, DWORD PTR _kPDelta$[ebp]
  000a3	89 5d cc	 mov	 DWORD PTR $T1[ebp], ebx
  000a6	50		 push	 eax
  000a7	8d 8f 80 03 00
	00		 lea	 ecx, DWORD PTR [edi+896]
  000ad	e8 00 00 00 00	 call	 ?GetLastPosition@CPhysicsObject@@QAEXPAUD3DXVECTOR3@@@Z ; CPhysicsObject::GetLastPosition
; File C:\Program Files (x86)\Microsoft Visual Studio\2019\Community\VC\Tools\MSVC\14.27.29110\include\list

; 1092 :         return iterator(_Mypair._Myval2._Myhead->_Next, _STD addressof(_Mypair._Myval2));

  000b2	8b 0c 1f	 mov	 ecx, DWORD PTR [edi+ebx]
  000b5	8b 04 1e	 mov	 eax, DWORD PTR [esi+ebx]

; 39   :     _List_unchecked_const_iterator(_Nodeptr _Pnode, const _Mylist* _Plist) noexcept : _Ptr(_Pnode) {

  000b8	8b 39		 mov	 edi, DWORD PTR [ecx]
  000ba	8b 30		 mov	 esi, DWORD PTR [eax]
  000bc	3b f9		 cmp	 edi, ecx
; File C:\DS Project\DS Files\Source\ClientSource\Client\GameLib\ActorInstanceCollisionDetection.cpp

; 506  : 	for (; itorMain != pMainList->end(); ++itorMain)

  000be	0f 84 d8 01 00
	00		 je	 $LN132@TestPhysic
  000c4	f3 0f 10 1d 00
	00 00 00	 movss	 xmm3, DWORD PTR __real@42480000
  000cc	8b 4d c8	 mov	 ecx, DWORD PTR _this$GSCopy$1$[ebp]
  000cf	90		 npad	 1
$LL4@TestPhysic:
; File C:\Program Files (x86)\Microsoft Visual Studio\2019\Community\VC\Tools\MSVC\14.27.29110\include\list

; 39   :     _List_unchecked_const_iterator(_Nodeptr _Pnode, const _Mylist* _Plist) noexcept : _Ptr(_Pnode) {

  000d0	3b f0		 cmp	 esi, eax
; File C:\DS Project\DS Files\Source\ClientSource\Client\GameLib\ActorInstanceCollisionDetection.cpp

; 508  : 		for (; itorVictim != pVictimList->end(); ++itorVictim)

  000d2	0f 84 b9 01 00
	00		 je	 $LN2@TestPhysic
$LL7@TestPhysic:
; File C:\Program Files (x86)\Microsoft Visual Studio\2019\Community\VC\Tools\MSVC\14.27.29110\include\vector

; 1484 :         return static_cast<size_type>(_My_data._Mylast - _My_data._Myfirst);

  000d8	8b 5f 18	 mov	 ebx, DWORD PTR [edi+24]
; File C:\DS Project\DS Files\Source\ClientSource\Client\GameLib\ActorInstanceCollisionDetection.cpp

; 513  : 			for (DWORD i = 0; i < c_rMainSphereVector.size(); ++i)

  000db	33 c9		 xor	 ecx, ecx
  000dd	89 4d dc	 mov	 DWORD PTR _i$1$[ebp], ecx
; File C:\Program Files (x86)\Microsoft Visual Studio\2019\Community\VC\Tools\MSVC\14.27.29110\include\vector

; 1484 :         return static_cast<size_type>(_My_data._Mylast - _My_data._Myfirst);

  000e0	b8 93 24 49 92	 mov	 eax, -1840700269	; 92492493H
  000e5	8b 4f 1c	 mov	 ecx, DWORD PTR [edi+28]
  000e8	2b cb		 sub	 ecx, ebx
  000ea	f7 e9		 imul	 ecx
  000ec	03 d1		 add	 edx, ecx
  000ee	c1 fa 04	 sar	 edx, 4
  000f1	8b c2		 mov	 eax, edx
  000f3	c1 e8 1f	 shr	 eax, 31			; 0000001fH
  000f6	03 c2		 add	 eax, edx
; File C:\DS Project\DS Files\Source\ClientSource\Client\GameLib\ActorInstanceCollisionDetection.cpp

; 513  : 			for (DWORD i = 0; i < c_rMainSphereVector.size(); ++i)

  000f8	0f 84 7d 01 00
	00		 je	 $LN5@TestPhysic
; File C:\Program Files (x86)\Microsoft Visual Studio\2019\Community\VC\Tools\MSVC\14.27.29110\include\vector

; 1483 :         auto& _My_data = _Mypair._Myval2;

  000fe	33 c0		 xor	 eax, eax
  00100	89 45 d8	 mov	 DWORD PTR tv1113[ebp], eax
$LL10@TestPhysic:
; File C:\DS Project\DS Files\Source\ClientSource\Client\GameLib\ActorInstanceCollisionDetection.cpp

; 517  : 				prevLastPosition = c_rMainSphere.v3LastPosition;

  00103	f3 0f 7e 44 03
	0c		 movq	 xmm0, QWORD PTR [ebx+eax+12]
; File C:\Program Files (x86)\Microsoft Visual Studio\2019\Community\VC\Tools\MSVC\14.27.29110\include\vector

; 1504 :         return _My_data._Myfirst[_Pos];

  00109	03 d8		 add	 ebx, eax
; File C:\DS Project\DS Files\Source\ClientSource\Client\GameLib\ActorInstanceCollisionDetection.cpp

; 517  : 				prevLastPosition = c_rMainSphere.v3LastPosition;

  0010b	66 0f d6 45 98	 movq	 QWORD PTR _prevLastPosition$1$[ebp], xmm0
; File C:\Program Files (x86)\Microsoft Visual Studio\2019\Community\VC\Tools\MSVC\14.27.29110\include\vector

; 1504 :         return _My_data._Myfirst[_Pos];

  00110	89 5d d4	 mov	 DWORD PTR _c_rMainSphere$1$[ebp], ebx
; File C:\DS Project\DS Files\Source\ClientSource\Client\GameLib\ActorInstanceCollisionDetection.cpp

; 518  : 				prevPosition	 = c_rMainSphere.v3Position;

  00113	f3 0f 7e 03	 movq	 xmm0, QWORD PTR [ebx]
  00117	8b 43 14	 mov	 eax, DWORD PTR [ebx+20]
  0011a	66 0f d6 45 a0	 movq	 QWORD PTR _prevPosition$[ebp], xmm0

; 519  : 
; 520  : 				c_rMainSphere.v3LastPosition = prevPosition;
; 521  : 
; 522  : 				for( int i = 1; i <= nSubCheckCount; ++ i )

  0011f	f3 0f 10 4d a4	 movss	 xmm1, DWORD PTR _prevPosition$[ebp+4]
  00124	f3 0f 10 65 a0	 movss	 xmm4, DWORD PTR _prevPosition$[ebp]
  00129	66 0f d6 45 90	 movq	 QWORD PTR _prevPosition$4$[ebp], xmm0
  0012e	f3 0f 7e c0	 movq	 xmm0, xmm0
  00132	89 45 c4	 mov	 DWORD PTR _prevLastPosition$2$[ebp], eax
  00135	8b 43 08	 mov	 eax, DWORD PTR [ebx+8]
  00138	66 0f d6 43 0c	 movq	 QWORD PTR [ebx+12], xmm0
  0013d	89 45 a8	 mov	 DWORD PTR _prevPosition$[ebp+8], eax
  00140	f3 0f 10 45 a8	 movss	 xmm0, DWORD PTR _prevPosition$[ebp+8]
  00145	89 45 c0	 mov	 DWORD PTR _prevPosition$5$[ebp], eax
  00148	89 43 14	 mov	 DWORD PTR [ebx+20], eax
  0014b	b8 01 00 00 00	 mov	 eax, 1
  00150	89 45 d0	 mov	 DWORD PTR _i$1$[ebp], eax
  00153	f3 0f 11 45 b8	 movss	 DWORD PTR _prevPosition$2$[ebp], xmm0
  00158	f3 0f 11 4d b4	 movss	 DWORD PTR _prevPosition$1$[ebp], xmm1
  0015d	f3 0f 11 65 bc	 movss	 DWORD PTR _prevPosition$3$[ebp], xmm4
$LL13@TestPhysic:

; 526  : 					for (DWORD j = 0; j < c_rVictimSphereVector.size(); ++j)

  00162	66 0f 6e d0	 movd	 xmm2, eax
  00166	33 c9		 xor	 ecx, ecx
  00168	0f 5b d2	 cvtdq2ps xmm2, xmm2
  0016b	89 4d e0	 mov	 DWORD PTR _j$1$[ebp], ecx
; File C:\Program Files (x86)\Microsoft Visual Studio\2019\Community\VC\Tools\MSVC\14.27.29110\include\vector

; 1484 :         return static_cast<size_type>(_My_data._Mylast - _My_data._Myfirst);

  0016e	b8 93 24 49 92	 mov	 eax, -1840700269	; 92492493H
; File C:\DS Project\DS Files\Source\ClientSource\Client\GameLib\ActorInstanceCollisionDetection.cpp

; 524  : 					c_rMainSphere.v3Position = prevPosition + (float)(i/(float)nSubCheckCount) * kPDelta;

  00173	f3 0f 5e d3	 divss	 xmm2, xmm3
; File C:\DS Project\DS Files\Source\ClientSource\extern\include\d3dx8math.inl

; 283  :     return D3DXVECTOR3(f * v.x, f * v.y, f * v.z);

  00177	f3 0f 10 5d e8	 movss	 xmm3, DWORD PTR _kPDelta$[ebp+4]
  0017c	f3 0f 59 da	 mulss	 xmm3, xmm2

; 180  :     x = fx;

  00180	f3 0f 58 d9	 addss	 xmm3, xmm1

; 283  :     return D3DXVECTOR3(f * v.x, f * v.y, f * v.z);

  00184	f3 0f 10 4d ec	 movss	 xmm1, DWORD PTR _kPDelta$[ebp+8]
  00189	f3 0f 59 ca	 mulss	 xmm1, xmm2

; 181  :     y = fy;

  0018d	f3 0f 58 c8	 addss	 xmm1, xmm0

; 283  :     return D3DXVECTOR3(f * v.x, f * v.y, f * v.z);

  00191	f3 0f 10 45 e4	 movss	 xmm0, DWORD PTR _kPDelta$[ebp]
  00196	f3 0f 59 c2	 mulss	 xmm0, xmm2

; 182  :     z = fz;

  0019a	f3 0f 58 c4	 addss	 xmm0, xmm4
; File C:\DS Project\DS Files\Source\ClientSource\Client\GameLib\ActorInstanceCollisionDetection.cpp

; 524  : 					c_rMainSphere.v3Position = prevPosition + (float)(i/(float)nSubCheckCount) * kPDelta;

  0019e	f3 0f 11 03	 movss	 DWORD PTR [ebx], xmm0
  001a2	f3 0f 11 5b 04	 movss	 DWORD PTR [ebx+4], xmm3
  001a7	f3 0f 11 4b 08	 movss	 DWORD PTR [ebx+8], xmm1
; File C:\Program Files (x86)\Microsoft Visual Studio\2019\Community\VC\Tools\MSVC\14.27.29110\include\vector

; 1484 :         return static_cast<size_type>(_My_data._Mylast - _My_data._Myfirst);

  001ac	8b 4e 1c	 mov	 ecx, DWORD PTR [esi+28]
  001af	2b 4e 18	 sub	 ecx, DWORD PTR [esi+24]
  001b2	f7 e9		 imul	 ecx
  001b4	03 d1		 add	 edx, ecx
  001b6	c1 fa 04	 sar	 edx, 4
  001b9	8b c2		 mov	 eax, edx
  001bb	c1 e8 1f	 shr	 eax, 31			; 0000001fH
  001be	03 c2		 add	 eax, edx
; File C:\DS Project\DS Files\Source\ClientSource\Client\GameLib\ActorInstanceCollisionDetection.cpp

; 526  : 					for (DWORD j = 0; j < c_rVictimSphereVector.size(); ++j)

  001c0	74 4a		 je	 SHORT $LN11@TestPhysic
  001c2	33 db		 xor	 ebx, ebx
$LL16@TestPhysic:
; File C:\Program Files (x86)\Microsoft Visual Studio\2019\Community\VC\Tools\MSVC\14.27.29110\include\vector

; 1504 :         return _My_data._Myfirst[_Pos];

  001c4	8b 46 18	 mov	 eax, DWORD PTR [esi+24]
  001c7	03 c3		 add	 eax, ebx
; File C:\DS Project\DS Files\Source\ClientSource\Client\GameLib\ActorInstanceCollisionDetection.cpp

; 530  : 						if (DetectCollisionDynamicSphereVSDynamicSphere(c_rMainSphere, c_rVictimSphere))

  001c9	50		 push	 eax
  001ca	ff 75 d4	 push	 DWORD PTR _c_rMainSphere$1$[ebp]
; File C:\Program Files (x86)\Microsoft Visual Studio\2019\Community\VC\Tools\MSVC\14.27.29110\include\vector

; 1504 :         return _My_data._Myfirst[_Pos];

  001cd	89 45 ac	 mov	 DWORD PTR _c_rVictimSphere$1$[ebp], eax
; File C:\DS Project\DS Files\Source\ClientSource\Client\GameLib\ActorInstanceCollisionDetection.cpp

; 530  : 						if (DetectCollisionDynamicSphereVSDynamicSphere(c_rMainSphere, c_rVictimSphere))

  001d0	e8 00 00 00 00	 call	 ?DetectCollisionDynamicSphereVSDynamicSphere@@YA_NABUCDynamicSphereInstance@@0@Z ; DetectCollisionDynamicSphereVSDynamicSphere
  001d5	83 c4 08	 add	 esp, 8
  001d8	84 c0		 test	 al, al
  001da	0f 85 d1 00 00
	00		 jne	 $LN109@TestPhysic
; File C:\Program Files (x86)\Microsoft Visual Studio\2019\Community\VC\Tools\MSVC\14.27.29110\include\vector

; 1484 :         return static_cast<size_type>(_My_data._Mylast - _My_data._Myfirst);

  001e0	8b 4e 1c	 mov	 ecx, DWORD PTR [esi+28]
  001e3	b8 93 24 49 92	 mov	 eax, -1840700269	; 92492493H
  001e8	2b 4e 18	 sub	 ecx, DWORD PTR [esi+24]
; File C:\DS Project\DS Files\Source\ClientSource\Client\GameLib\ActorInstanceCollisionDetection.cpp

; 526  : 					for (DWORD j = 0; j < c_rVictimSphereVector.size(); ++j)

  001eb	83 c3 1c	 add	 ebx, 28			; 0000001cH
  001ee	ff 45 e0	 inc	 DWORD PTR _j$1$[ebp]
; File C:\Program Files (x86)\Microsoft Visual Studio\2019\Community\VC\Tools\MSVC\14.27.29110\include\vector

; 1484 :         return static_cast<size_type>(_My_data._Mylast - _My_data._Myfirst);

  001f1	f7 e9		 imul	 ecx
  001f3	03 d1		 add	 edx, ecx
  001f5	c1 fa 04	 sar	 edx, 4
  001f8	8b c2		 mov	 eax, edx
  001fa	c1 e8 1f	 shr	 eax, 31			; 0000001fH
  001fd	03 c2		 add	 eax, edx
; File C:\DS Project\DS Files\Source\ClientSource\Client\GameLib\ActorInstanceCollisionDetection.cpp

; 526  : 					for (DWORD j = 0; j < c_rVictimSphereVector.size(); ++j)

  001ff	39 45 e0	 cmp	 DWORD PTR _j$1$[ebp], eax
  00202	72 c0		 jb	 SHORT $LL16@TestPhysic
  00204	f3 0f 10 65 bc	 movss	 xmm4, DWORD PTR _prevPosition$3$[ebp]
  00209	8b 5d d4	 mov	 ebx, DWORD PTR _c_rMainSphere$1$[ebp]
$LN11@TestPhysic:

; 519  : 
; 520  : 				c_rMainSphere.v3LastPosition = prevPosition;
; 521  : 
; 522  : 				for( int i = 1; i <= nSubCheckCount; ++ i )

  0020c	8b 45 d0	 mov	 eax, DWORD PTR _i$1$[ebp]
  0020f	f3 0f 10 45 b8	 movss	 xmm0, DWORD PTR _prevPosition$2$[ebp]
  00214	40		 inc	 eax
  00215	f3 0f 10 4d b4	 movss	 xmm1, DWORD PTR _prevPosition$1$[ebp]
  0021a	f3 0f 10 1d 00
	00 00 00	 movss	 xmm3, DWORD PTR __real@42480000
  00222	89 45 d0	 mov	 DWORD PTR _i$1$[ebp], eax
  00225	83 f8 32	 cmp	 eax, 50			; 00000032H
  00228	0f 8e 34 ff ff
	ff		 jle	 $LL13@TestPhysic

; 536  : 
; 537  : 							return bResult;
; 538  : 						}
; 539  : 					}
; 540  : 				}
; 541  : 
; 542  : 				//restore
; 543  : 				c_rMainSphere.v3LastPosition = prevLastPosition;

  0022e	f3 0f 7e 45 98	 movq	 xmm0, QWORD PTR _prevLastPosition$1$[ebp]
  00233	8b 45 c4	 mov	 eax, DWORD PTR _prevLastPosition$2$[ebp]
  00236	ff 45 dc	 inc	 DWORD PTR _i$1$[ebp]
  00239	83 45 d8 1c	 add	 DWORD PTR tv1113[ebp], 28 ; 0000001cH
  0023d	66 0f d6 43 0c	 movq	 QWORD PTR [ebx+12], xmm0

; 544  : 				c_rMainSphere.v3Position	 = prevPosition;

  00242	f3 0f 7e 45 90	 movq	 xmm0, QWORD PTR _prevPosition$4$[ebp]
  00247	89 43 14	 mov	 DWORD PTR [ebx+20], eax
  0024a	8b 45 c0	 mov	 eax, DWORD PTR _prevPosition$5$[ebp]
  0024d	66 0f d6 03	 movq	 QWORD PTR [ebx], xmm0
  00251	89 43 08	 mov	 DWORD PTR [ebx+8], eax
; File C:\Program Files (x86)\Microsoft Visual Studio\2019\Community\VC\Tools\MSVC\14.27.29110\include\vector

; 1484 :         return static_cast<size_type>(_My_data._Mylast - _My_data._Myfirst);

  00254	b8 93 24 49 92	 mov	 eax, -1840700269	; 92492493H
  00259	8b 4f 1c	 mov	 ecx, DWORD PTR [edi+28]
  0025c	8b 5f 18	 mov	 ebx, DWORD PTR [edi+24]
  0025f	2b cb		 sub	 ecx, ebx
  00261	f7 e9		 imul	 ecx
  00263	03 d1		 add	 edx, ecx
  00265	c1 fa 04	 sar	 edx, 4
  00268	8b c2		 mov	 eax, edx
  0026a	c1 e8 1f	 shr	 eax, 31			; 0000001fH
  0026d	03 c2		 add	 eax, edx
; File C:\DS Project\DS Files\Source\ClientSource\Client\GameLib\ActorInstanceCollisionDetection.cpp

; 513  : 			for (DWORD i = 0; i < c_rMainSphereVector.size(); ++i)

  0026f	39 45 dc	 cmp	 DWORD PTR _i$1$[ebp], eax
  00272	8b 45 d8	 mov	 eax, DWORD PTR tv1113[ebp]
  00275	0f 82 88 fe ff
	ff		 jb	 $LL10@TestPhysic
$LN5@TestPhysic:
; File C:\Program Files (x86)\Microsoft Visual Studio\2019\Community\VC\Tools\MSVC\14.27.29110\include\list

; 39   :     _List_unchecked_const_iterator(_Nodeptr _Pnode, const _Mylist* _Plist) noexcept : _Ptr(_Pnode) {

  0027b	8b 5d cc	 mov	 ebx, DWORD PTR $T1[ebp]
  0027e	8b 45 b0	 mov	 eax, DWORD PTR _rVictim$GSCopy$1$[ebp]

; 166  :         this->_Ptr = this->_Ptr->_Next;

  00281	8b 36		 mov	 esi, DWORD PTR [esi]

; 39   :     _List_unchecked_const_iterator(_Nodeptr _Pnode, const _Mylist* _Plist) noexcept : _Ptr(_Pnode) {

  00283	8b 04 18	 mov	 eax, DWORD PTR [eax+ebx]

; 199  :         return this->_Ptr == _Right._Ptr;

  00286	3b f0		 cmp	 esi, eax
; File C:\DS Project\DS Files\Source\ClientSource\Client\GameLib\ActorInstanceCollisionDetection.cpp

; 508  : 		for (; itorVictim != pVictimList->end(); ++itorVictim)

  00288	0f 85 4a fe ff
	ff		 jne	 $LL7@TestPhysic
  0028e	8b 4d c8	 mov	 ecx, DWORD PTR _this$GSCopy$1$[ebp]
$LN2@TestPhysic:
; File C:\Program Files (x86)\Microsoft Visual Studio\2019\Community\VC\Tools\MSVC\14.27.29110\include\list

; 166  :         this->_Ptr = this->_Ptr->_Next;

  00291	8b 3f		 mov	 edi, DWORD PTR [edi]

; 199  :         return this->_Ptr == _Right._Ptr;

  00293	3b 3c 19	 cmp	 edi, DWORD PTR [ecx+ebx]
; File C:\DS Project\DS Files\Source\ClientSource\Client\GameLib\ActorInstanceCollisionDetection.cpp

; 506  : 	for (; itorMain != pMainList->end(); ++itorMain)

  00296	0f 85 34 fe ff
	ff		 jne	 $LL4@TestPhysic
$LN132@TestPhysic:
  0029c	5f		 pop	 edi

; 550  : }

  0029d	5e		 pop	 esi
  0029e	33 c0		 xor	 eax, eax
  002a0	5b		 pop	 ebx
  002a1	8b 4d fc	 mov	 ecx, DWORD PTR __$ArrayPad$[ebp]
  002a4	33 cd		 xor	 ecx, ebp
  002a6	e8 00 00 00 00	 call	 @__security_check_cookie@4
  002ab	8b e5		 mov	 esp, ebp
  002ad	5d		 pop	 ebp
  002ae	c2 04 00	 ret	 4
$LN109@TestPhysic:
; File C:\DS Project\DS Files\Source\ClientSource\Client\eterLib\GrpMath.h

; 44   : 	return (c_rv3Source.x-c_rv3Target.x)*(c_rv3Source.x-c_rv3Target.x) + (c_rv3Source.y-c_rv3Target.y)*(c_rv3Source.y-c_rv3Target.y);

  002b1	8b 4d d4	 mov	 ecx, DWORD PTR _c_rMainSphere$1$[ebp]
  002b4	8b 45 ac	 mov	 eax, DWORD PTR _c_rVictimSphere$1$[ebp]
; File C:\DS Project\DS Files\Source\ClientSource\Client\GameLib\ActorInstanceCollisionDetection.cpp

; 534  : 							c_rMainSphere.v3LastPosition = prevLastPosition;

  002b7	f3 0f 7e 45 98	 movq	 xmm0, QWORD PTR _prevLastPosition$1$[ebp]
  002bc	5f		 pop	 edi
; File C:\DS Project\DS Files\Source\ClientSource\Client\eterLib\GrpMath.h

; 44   : 	return (c_rv3Source.x-c_rv3Target.x)*(c_rv3Source.x-c_rv3Target.x) + (c_rv3Source.y-c_rv3Target.y)*(c_rv3Source.y-c_rv3Target.y);

  002bd	f3 0f 10 61 04	 movss	 xmm4, DWORD PTR [ecx+4]
  002c2	f3 0f 5c 60 04	 subss	 xmm4, DWORD PTR [eax+4]
  002c7	f3 0f 10 11	 movss	 xmm2, DWORD PTR [ecx]
  002cb	f3 0f 5c 10	 subss	 xmm2, DWORD PTR [eax]
  002cf	f3 0f 10 59 10	 movss	 xmm3, DWORD PTR [ecx+16]
  002d4	f3 0f 5c 58 04	 subss	 xmm3, DWORD PTR [eax+4]
  002d9	f3 0f 10 49 0c	 movss	 xmm1, DWORD PTR [ecx+12]
  002de	f3 0f 5c 08	 subss	 xmm1, DWORD PTR [eax]
; File C:\DS Project\DS Files\Source\ClientSource\Client\GameLib\ActorInstanceCollisionDetection.cpp

; 534  : 							c_rMainSphere.v3LastPosition = prevLastPosition;

  002e2	8b 45 c4	 mov	 eax, DWORD PTR _prevLastPosition$2$[ebp]
; File C:\DS Project\DS Files\Source\ClientSource\Client\eterLib\GrpMath.h

; 44   : 	return (c_rv3Source.x-c_rv3Target.x)*(c_rv3Source.x-c_rv3Target.x) + (c_rv3Source.y-c_rv3Target.y)*(c_rv3Source.y-c_rv3Target.y);

  002e5	f3 0f 59 e4	 mulss	 xmm4, xmm4
; File C:\DS Project\DS Files\Source\ClientSource\Client\GameLib\ActorInstanceCollisionDetection.cpp

; 550  : }

  002e9	5e		 pop	 esi
; File C:\DS Project\DS Files\Source\ClientSource\Client\eterLib\GrpMath.h

; 44   : 	return (c_rv3Source.x-c_rv3Target.x)*(c_rv3Source.x-c_rv3Target.x) + (c_rv3Source.y-c_rv3Target.y)*(c_rv3Source.y-c_rv3Target.y);

  002ea	f3 0f 59 d2	 mulss	 xmm2, xmm2
; File C:\DS Project\DS Files\Source\ClientSource\Client\GameLib\ActorInstanceCollisionDetection.cpp

; 550  : }

  002ee	5b		 pop	 ebx
; File C:\DS Project\DS Files\Source\ClientSource\Client\eterLib\GrpMath.h

; 44   : 	return (c_rv3Source.x-c_rv3Target.x)*(c_rv3Source.x-c_rv3Target.x) + (c_rv3Source.y-c_rv3Target.y)*(c_rv3Source.y-c_rv3Target.y);

  002ef	f3 0f 59 db	 mulss	 xmm3, xmm3
  002f3	f3 0f 59 c9	 mulss	 xmm1, xmm1
  002f7	f3 0f 58 e2	 addss	 xmm4, xmm2
; File C:\DS Project\DS Files\Source\ClientSource\Client\GameLib\ActorInstanceCollisionDetection.cpp

; 534  : 							c_rMainSphere.v3LastPosition = prevLastPosition;

  002fb	66 0f d6 41 0c	 movq	 QWORD PTR [ecx+12], xmm0

; 535  : 							c_rMainSphere.v3Position	 = prevPosition;

  00300	f3 0f 7e 45 90	 movq	 xmm0, QWORD PTR _prevPosition$4$[ebp]
  00305	89 41 14	 mov	 DWORD PTR [ecx+20], eax
; File C:\DS Project\DS Files\Source\ClientSource\Client\eterLib\GrpMath.h

; 44   : 	return (c_rv3Source.x-c_rv3Target.x)*(c_rv3Source.x-c_rv3Target.x) + (c_rv3Source.y-c_rv3Target.y)*(c_rv3Source.y-c_rv3Target.y);

  00308	f3 0f 58 d9	 addss	 xmm3, xmm1
; File C:\DS Project\DS Files\Source\ClientSource\Client\GameLib\ActorInstanceCollisionDetection.cpp

; 535  : 							c_rMainSphere.v3Position	 = prevPosition;

  0030c	8b 45 c0	 mov	 eax, DWORD PTR _prevPosition$5$[ebp]
  0030f	66 0f d6 01	 movq	 QWORD PTR [ecx], xmm0
  00313	89 41 08	 mov	 DWORD PTR [ecx+8], eax
  00316	33 c0		 xor	 eax, eax

; 550  : }

  00318	8b 4d fc	 mov	 ecx, DWORD PTR __$ArrayPad$[ebp]
  0031b	0f 2f dc	 comiss	 xmm3, xmm4
  0031e	0f 93 c0	 setae	 al
  00321	33 cd		 xor	 ecx, ebp
  00323	e8 00 00 00 00	 call	 @__security_check_cookie@4
  00328	8b e5		 mov	 esp, ebp
  0032a	5d		 pop	 ebp
  0032b	c2 04 00	 ret	 4
?TestPhysicsBlendingCollision@CActorInstance@@QAEHAAV1@@Z ENDP ; CActorInstance::TestPhysicsBlendingCollision
_TEXT	ENDS
; Function compile flags: /Ogtp
; File C:\DS Project\DS Files\Source\ClientSource\Client\GameLib\ActorInstanceCollisionDetection.cpp
; File C:\DS Project\DS Files\Source\ClientSource\extern\include\d3dx8math.inl
; File C:\DS Project\DS Files\Source\ClientSource\Client\GameLib\ActorInstanceCollisionDetection.cpp
; File C:\Program Files (x86)\Microsoft Visual Studio\2019\Community\VC\Tools\MSVC\14.27.29110\include\list
; File C:\DS Project\DS Files\Source\ClientSource\Client\GameLib\ActorInstanceCollisionDetection.cpp
; File C:\Program Files (x86)\Microsoft Visual Studio\2019\Community\VC\Tools\MSVC\14.27.29110\include\list
; File C:\DS Project\DS Files\Source\ClientSource\Client\GameLib\ActorInstanceCollisionDetection.cpp
; File C:\Program Files (x86)\Microsoft Visual Studio\2019\Community\VC\Tools\MSVC\14.27.29110\include\vector
; File C:\DS Project\DS Files\Source\ClientSource\Client\GameLib\ActorInstanceCollisionDetection.cpp
; File C:\Program Files (x86)\Microsoft Visual Studio\2019\Community\VC\Tools\MSVC\14.27.29110\include\vector
; File C:\DS Project\DS Files\Source\ClientSource\Client\GameLib\ActorInstanceCollisionDetection.cpp
; File C:\Program Files (x86)\Microsoft Visual Studio\2019\Community\VC\Tools\MSVC\14.27.29110\include\vector
; File C:\DS Project\DS Files\Source\ClientSource\Client\GameLib\ActorInstanceCollisionDetection.cpp
; File C:\Program Files (x86)\Microsoft Visual Studio\2019\Community\VC\Tools\MSVC\14.27.29110\include\vector
; File C:\DS Project\DS Files\Source\ClientSource\Client\GameLib\ActorInstanceCollisionDetection.cpp
; File C:\Program Files (x86)\Microsoft Visual Studio\2019\Community\VC\Tools\MSVC\14.27.29110\include\vector
; File C:\DS Project\DS Files\Source\ClientSource\Client\GameLib\ActorInstanceCollisionDetection.cpp
; File C:\Program Files (x86)\Microsoft Visual Studio\2019\Community\VC\Tools\MSVC\14.27.29110\include\vector
; File C:\DS Project\DS Files\Source\ClientSource\Client\GameLib\ActorInstanceCollisionDetection.cpp
; File C:\Program Files (x86)\Microsoft Visual Studio\2019\Community\VC\Tools\MSVC\14.27.29110\include\vector
; File C:\DS Project\DS Files\Source\ClientSource\Client\GameLib\ActorInstanceCollisionDetection.cpp
; File C:\Program Files (x86)\Microsoft Visual Studio\2019\Community\VC\Tools\MSVC\14.27.29110\include\vector
; File C:\DS Project\DS Files\Source\ClientSource\Client\GameLib\ActorInstanceCollisionDetection.cpp
; File C:\Program Files (x86)\Microsoft Visual Studio\2019\Community\VC\Tools\MSVC\14.27.29110\include\vector
; File C:\DS Project\DS Files\Source\ClientSource\Client\GameLib\ActorInstanceCollisionDetection.cpp
; File C:\Program Files (x86)\Microsoft Visual Studio\2019\Community\VC\Tools\MSVC\14.27.29110\include\vector
; File C:\DS Project\DS Files\Source\ClientSource\Client\GameLib\ActorInstanceCollisionDetection.cpp
; File C:\Program Files (x86)\Microsoft Visual Studio\2019\Community\VC\Tools\MSVC\14.27.29110\include\vector
; File C:\DS Project\DS Files\Source\ClientSource\Client\GameLib\ActorInstanceCollisionDetection.cpp
; File C:\Program Files (x86)\Microsoft Visual Studio\2019\Community\VC\Tools\MSVC\14.27.29110\include\vector
; File C:\DS Project\DS Files\Source\ClientSource\Client\GameLib\ActorInstanceCollisionDetection.cpp
; File C:\Program Files (x86)\Microsoft Visual Studio\2019\Community\VC\Tools\MSVC\14.27.29110\include\list
; File C:\DS Project\DS Files\Source\ClientSource\Client\GameLib\ActorInstanceCollisionDetection.cpp
; File C:\Program Files (x86)\Microsoft Visual Studio\2019\Community\VC\Tools\MSVC\14.27.29110\include\list
; File C:\DS Project\DS Files\Source\ClientSource\Client\GameLib\ActorInstanceCollisionDetection.cpp
; File C:\DS Project\DS Files\Source\ClientSource\Client\eterLib\GrpMath.h
; File C:\DS Project\DS Files\Source\ClientSource\Client\GameLib\ActorInstanceCollisionDetection.cpp
;	COMDAT ?TestActorCollision@CActorInstance@@QAEHAAV1@@Z
_TEXT	SEGMENT
_c_rVictimSphere$1$ = -28				; size = 4
_this$1$ = -24						; size = 4
_j$1$ = -20						; size = 4
_i$1$ = -16						; size = 4
tv944 = -12						; size = 4
tv948 = -8						; size = 4
$T1 = -4						; size = 4
_rVictim$ = 8						; size = 4
?TestActorCollision@CActorInstance@@QAEHAAV1@@Z PROC	; CActorInstance::TestActorCollision, COMDAT
; _this$ = ecx

; 556  : {

  00000	55		 push	 ebp
  00001	8b ec		 mov	 ebp, esp
  00003	83 ec 1c	 sub	 esp, 28			; 0000001cH
  00006	53		 push	 ebx

; 557  : /*
; 558  : 	if (m_pkHorse)
; 559  : 	{
; 560  : 		if (m_pkHorse->TestActorCollision(rVictim))
; 561  : 			return TRUE;
; 562  : 
; 563  : 		return FALSE;
; 564  : 	}
; 565  : */
; 566  : 
; 567  : 	if (rVictim.IsDead())

  00007	8b 5d 08	 mov	 ebx, DWORD PTR _rVictim$[ebp]
  0000a	56		 push	 esi
  0000b	8b f1		 mov	 esi, ecx
  0000d	8b cb		 mov	 ecx, ebx
  0000f	57		 push	 edi
  00010	89 75 e8	 mov	 DWORD PTR _this$1$[ebp], esi
  00013	e8 00 00 00 00	 call	 ?IsDead@CActorInstance@@QAEHXZ ; CActorInstance::IsDead
  00018	85 c0		 test	 eax, eax
  0001a	0f 85 f2 01 00
	00		 jne	 $LN120@TestActorC

; 568  : 		return FALSE;
; 569  : 
; 570  : #ifdef ENABLE_PETS_WITHOUT_COLLISIONS
; 571  : 	if (rVictim.GetRace()>=34001 && rVictim.GetRace()<=34099)

  00020	8b cb		 mov	 ecx, ebx
  00022	e8 00 00 00 00	 call	 ?GetRace@CActorInstance@@QAEKXZ ; CActorInstance::GetRace
  00027	3d d1 84 00 00	 cmp	 eax, 34001		; 000084d1H
  0002c	72 12		 jb	 SHORT $LN15@TestActorC
  0002e	8b cb		 mov	 ecx, ebx
  00030	e8 00 00 00 00	 call	 ?GetRace@CActorInstance@@QAEKXZ ; CActorInstance::GetRace
  00035	3d 33 85 00 00	 cmp	 eax, 34099		; 00008533H
  0003a	0f 86 d2 01 00
	00		 jbe	 $LN120@TestActorC
$LN15@TestActorC:

; 572  : 		return FALSE;
; 573  : #endif
; 574  : 
; 575  : #ifdef ENABLE_SHOPS_WITHOUT_COLLISIONS
; 576  : 	if (rVictim.GetRace()>=30000 && rVictim.GetRace()<=30001)

  00040	8b cb		 mov	 ecx, ebx
  00042	e8 00 00 00 00	 call	 ?GetRace@CActorInstance@@QAEKXZ ; CActorInstance::GetRace
  00047	3d 30 75 00 00	 cmp	 eax, 30000		; 00007530H
  0004c	72 12		 jb	 SHORT $LN16@TestActorC
  0004e	8b cb		 mov	 ecx, ebx
  00050	e8 00 00 00 00	 call	 ?GetRace@CActorInstance@@QAEKXZ ; CActorInstance::GetRace
  00055	3d 31 75 00 00	 cmp	 eax, 30001		; 00007531H
  0005a	0f 86 b2 01 00
	00		 jbe	 $LN120@TestActorC
$LN16@TestActorC:

; 577  : 		return FALSE;
; 578  : #endif
; 579  : 
; 580  : #ifdef ENABLE_MOUNTS_WITHOUT_COLLISIONS
; 581  : 	if (rVictim.GetRace()>=20101 && rVictim.GetRace()<=20299)

  00060	8b cb		 mov	 ecx, ebx
  00062	e8 00 00 00 00	 call	 ?GetRace@CActorInstance@@QAEKXZ ; CActorInstance::GetRace
  00067	3d 85 4e 00 00	 cmp	 eax, 20101		; 00004e85H
  0006c	72 12		 jb	 SHORT $LN17@TestActorC
  0006e	8b cb		 mov	 ecx, ebx
  00070	e8 00 00 00 00	 call	 ?GetRace@CActorInstance@@QAEKXZ ; CActorInstance::GetRace
  00075	3d 4b 4f 00 00	 cmp	 eax, 20299		; 00004f4bH
  0007a	0f 86 92 01 00
	00		 jbe	 $LN120@TestActorC
$LN17@TestActorC:

; 582  : 		return FALSE;
; 583  : #endif
; 584  : 
; 585  : 	// Check Distance
; 586  : 	D3DXVECTOR3 v3Distance = D3DXVECTOR3(rVictim.m_x - m_x, rVictim.m_y - m_y, rVictim.m_z - m_z);

  00080	f3 0f 10 8b 68
	04 00 00	 movss	 xmm1, DWORD PTR [ebx+1128]
  00088	f3 0f 10 93 6c
	04 00 00	 movss	 xmm2, DWORD PTR [ebx+1132]
  00090	f3 0f 5c 96 6c
	04 00 00	 subss	 xmm2, DWORD PTR [esi+1132]
  00098	f3 0f 5c 8e 68
	04 00 00	 subss	 xmm1, DWORD PTR [esi+1128]
  000a0	f3 0f 10 83 70
	04 00 00	 movss	 xmm0, DWORD PTR [ebx+1136]
  000a8	f3 0f 5c 86 70
	04 00 00	 subss	 xmm0, DWORD PTR [esi+1136]
; File C:\DS Project\DS Files\Source\ClientSource\extern\include\d3dx8math.inl

; 182  :     z = fz;

  000b0	f3 0f 59 d2	 mulss	 xmm2, xmm2

; 1253 :     return pV->x * pV->x + pV->y * pV->y + pV->z * pV->z;

  000b4	f3 0f 59 c9	 mulss	 xmm1, xmm1
  000b8	f3 0f 59 c0	 mulss	 xmm0, xmm0
  000bc	f3 0f 58 d1	 addss	 xmm2, xmm1
  000c0	f3 0f 58 d0	 addss	 xmm2, xmm0
; File C:\DS Project\DS Files\Source\ClientSource\Client\GameLib\ActorInstanceCollisionDetection.cpp

; 588  : 	if (fDistance > 800.0f*800.0f)

  000c4	0f 2f 15 00 00
	00 00		 comiss	 xmm2, DWORD PTR __real@491c4000
  000cb	0f 87 41 01 00
	00		 ja	 $LN120@TestActorC

; 589  : 		return FALSE;
; 590  : 
; 591  : 	TCollisionPointInstanceList * pMainList;
; 592  : 	TCollisionPointInstanceList * pVictimList;
; 593  : 	if (isAttacking() || IsWaiting())

  000d1	8b ce		 mov	 ecx, esi
  000d3	e8 00 00 00 00	 call	 ?isAttacking@CActorInstance@@QAEHXZ ; CActorInstance::isAttacking
  000d8	85 c0		 test	 eax, eax
  000da	75 10		 jne	 SHORT $LN21@TestActorC
  000dc	8b ce		 mov	 ecx, esi
  000de	e8 00 00 00 00	 call	 ?IsWaiting@CActorInstance@@QAEHXZ ; CActorInstance::IsWaiting
  000e3	85 c0		 test	 eax, eax

; 597  : 	}
; 598  : 	else
; 599  : 	{
; 600  : 		pMainList = &m_BodyPointInstanceList;
; 601  : 		pVictimList = &rVictim.m_BodyPointInstanceList;

  000e5	b8 38 03 00 00	 mov	 eax, 824		; 00000338H
  000ea	74 05		 je	 SHORT $LN121@TestActorC
$LN21@TestActorC:

; 594  : 	{
; 595  : 		pMainList = &m_DefendingPointInstanceList;
; 596  : 		pVictimList = &rVictim.m_DefendingPointInstanceList;

  000ec	b8 40 03 00 00	 mov	 eax, 832		; 00000340H
$LN121@TestActorC:
; File C:\Program Files (x86)\Microsoft Visual Studio\2019\Community\VC\Tools\MSVC\14.27.29110\include\list

; 1092 :         return iterator(_Mypair._Myval2._Myhead->_Next, _STD addressof(_Mypair._Myval2));

  000f1	8b 0c 30	 mov	 ecx, DWORD PTR [eax+esi]
  000f4	89 45 fc	 mov	 DWORD PTR $T1[ebp], eax
  000f7	8b 04 18	 mov	 eax, DWORD PTR [eax+ebx]

; 39   :     _List_unchecked_const_iterator(_Nodeptr _Pnode, const _Mylist* _Plist) noexcept : _Ptr(_Pnode) {

  000fa	8b 39		 mov	 edi, DWORD PTR [ecx]
  000fc	8b 30		 mov	 esi, DWORD PTR [eax]
  000fe	3b f9		 cmp	 edi, ecx
; File C:\DS Project\DS Files\Source\ClientSource\Client\GameLib\ActorInstanceCollisionDetection.cpp

; 606  : 	for (; itorMain != pMainList->end(); ++itorMain)

  00100	0f 84 0c 01 00
	00		 je	 $LN120@TestActorC
  00106	8b 4d fc	 mov	 ecx, DWORD PTR $T1[ebp]
  00109	8b 55 e8	 mov	 edx, DWORD PTR _this$1$[ebp]
  0010c	0f 1f 40 00	 npad	 4
$LL4@TestActorC:
; File C:\Program Files (x86)\Microsoft Visual Studio\2019\Community\VC\Tools\MSVC\14.27.29110\include\list

; 39   :     _List_unchecked_const_iterator(_Nodeptr _Pnode, const _Mylist* _Plist) noexcept : _Ptr(_Pnode) {

  00110	3b f0		 cmp	 esi, eax
; File C:\DS Project\DS Files\Source\ClientSource\Client\GameLib\ActorInstanceCollisionDetection.cpp

; 607  : 	for (; itorVictim != pVictimList->end(); ++itorVictim)

  00112	0f 84 ef 00 00
	00		 je	 $LN2@TestActorC
  00118	0f 1f 84 00 00
	00 00 00	 npad	 8
$LL7@TestActorC:

; 612  : 		for (DWORD i = 0; i < c_rMainSphereVector.size(); ++i)

  00120	33 c9		 xor	 ecx, ecx
; File C:\Program Files (x86)\Microsoft Visual Studio\2019\Community\VC\Tools\MSVC\14.27.29110\include\vector

; 1484 :         return static_cast<size_type>(_My_data._Mylast - _My_data._Myfirst);

  00122	b8 93 24 49 92	 mov	 eax, -1840700269	; 92492493H
; File C:\DS Project\DS Files\Source\ClientSource\Client\GameLib\ActorInstanceCollisionDetection.cpp

; 612  : 		for (DWORD i = 0; i < c_rMainSphereVector.size(); ++i)

  00127	89 4d f0	 mov	 DWORD PTR _i$1$[ebp], ecx
; File C:\Program Files (x86)\Microsoft Visual Studio\2019\Community\VC\Tools\MSVC\14.27.29110\include\vector

; 1484 :         return static_cast<size_type>(_My_data._Mylast - _My_data._Myfirst);

  0012a	8b 4f 1c	 mov	 ecx, DWORD PTR [edi+28]
  0012d	2b 4f 18	 sub	 ecx, DWORD PTR [edi+24]
  00130	f7 e9		 imul	 ecx
  00132	03 d1		 add	 edx, ecx
  00134	c1 fa 04	 sar	 edx, 4
  00137	8b c2		 mov	 eax, edx
  00139	c1 e8 1f	 shr	 eax, 31			; 0000001fH
  0013c	03 c2		 add	 eax, edx
; File C:\DS Project\DS Files\Source\ClientSource\Client\GameLib\ActorInstanceCollisionDetection.cpp

; 612  : 		for (DWORD i = 0; i < c_rMainSphereVector.size(); ++i)

  0013e	0f 84 ad 00 00
	00		 je	 $LN5@TestActorC
  00144	33 db		 xor	 ebx, ebx
  00146	89 5d f4	 mov	 DWORD PTR tv944[ebp], ebx
  00149	0f 1f 80 00 00
	00 00		 npad	 7
$LL10@TestActorC:
; File C:\Program Files (x86)\Microsoft Visual Studio\2019\Community\VC\Tools\MSVC\14.27.29110\include\vector

; 1484 :         return static_cast<size_type>(_My_data._Mylast - _My_data._Myfirst);

  00150	8b 4e 1c	 mov	 ecx, DWORD PTR [esi+28]
  00153	b8 93 24 49 92	 mov	 eax, -1840700269	; 92492493H
  00158	2b 4e 18	 sub	 ecx, DWORD PTR [esi+24]
  0015b	f7 e9		 imul	 ecx
; File C:\DS Project\DS Files\Source\ClientSource\Client\GameLib\ActorInstanceCollisionDetection.cpp

; 613  : 		for (DWORD j = 0; j < c_rVictimSphereVector.size(); ++j)

  0015d	c7 45 ec 00 00
	00 00		 mov	 DWORD PTR _j$1$[ebp], 0
; File C:\Program Files (x86)\Microsoft Visual Studio\2019\Community\VC\Tools\MSVC\14.27.29110\include\vector

; 1484 :         return static_cast<size_type>(_My_data._Mylast - _My_data._Myfirst);

  00164	03 d1		 add	 edx, ecx
  00166	c1 fa 04	 sar	 edx, 4
  00169	8b c2		 mov	 eax, edx
  0016b	c1 e8 1f	 shr	 eax, 31			; 0000001fH
  0016e	03 c2		 add	 eax, edx
; File C:\DS Project\DS Files\Source\ClientSource\Client\GameLib\ActorInstanceCollisionDetection.cpp

; 613  : 		for (DWORD j = 0; j < c_rVictimSphereVector.size(); ++j)

  00170	74 51		 je	 SHORT $LN8@TestActorC
  00172	33 c0		 xor	 eax, eax
  00174	89 45 f8	 mov	 DWORD PTR tv948[ebp], eax
$LL13@TestActorC:
; File C:\Program Files (x86)\Microsoft Visual Studio\2019\Community\VC\Tools\MSVC\14.27.29110\include\vector

; 1514 :         return _My_data._Myfirst[_Pos];

  00177	03 46 18	 add	 eax, DWORD PTR [esi+24]
  0017a	8b 5f 18	 mov	 ebx, DWORD PTR [edi+24]
  0017d	03 5d f4	 add	 ebx, DWORD PTR tv944[ebp]
; File C:\DS Project\DS Files\Source\ClientSource\Client\GameLib\ActorInstanceCollisionDetection.cpp

; 618  : 			if (DetectCollisionDynamicSphereVSDynamicSphere(c_rMainSphere, c_rVictimSphere))

  00180	50		 push	 eax
  00181	53		 push	 ebx
; File C:\Program Files (x86)\Microsoft Visual Studio\2019\Community\VC\Tools\MSVC\14.27.29110\include\vector

; 1514 :         return _My_data._Myfirst[_Pos];

  00182	89 45 e4	 mov	 DWORD PTR _c_rVictimSphere$1$[ebp], eax
; File C:\DS Project\DS Files\Source\ClientSource\Client\GameLib\ActorInstanceCollisionDetection.cpp

; 618  : 			if (DetectCollisionDynamicSphereVSDynamicSphere(c_rMainSphere, c_rVictimSphere))

  00185	e8 00 00 00 00	 call	 ?DetectCollisionDynamicSphereVSDynamicSphere@@YA_NABUCDynamicSphereInstance@@0@Z ; DetectCollisionDynamicSphereVSDynamicSphere
  0018a	83 c4 08	 add	 esp, 8
  0018d	84 c0		 test	 al, al
  0018f	0f 85 88 00 00
	00		 jne	 $LN101@TestActorC
; File C:\Program Files (x86)\Microsoft Visual Studio\2019\Community\VC\Tools\MSVC\14.27.29110\include\vector

; 1484 :         return static_cast<size_type>(_My_data._Mylast - _My_data._Myfirst);

  00195	8b 4e 1c	 mov	 ecx, DWORD PTR [esi+28]
  00198	b8 93 24 49 92	 mov	 eax, -1840700269	; 92492493H
  0019d	2b 4e 18	 sub	 ecx, DWORD PTR [esi+24]
; File C:\DS Project\DS Files\Source\ClientSource\Client\GameLib\ActorInstanceCollisionDetection.cpp

; 613  : 		for (DWORD j = 0; j < c_rVictimSphereVector.size(); ++j)

  001a0	8b 5d ec	 mov	 ebx, DWORD PTR _j$1$[ebp]
  001a3	83 45 f8 1c	 add	 DWORD PTR tv948[ebp], 28 ; 0000001cH
  001a7	43		 inc	 ebx
; File C:\Program Files (x86)\Microsoft Visual Studio\2019\Community\VC\Tools\MSVC\14.27.29110\include\vector

; 1484 :         return static_cast<size_type>(_My_data._Mylast - _My_data._Myfirst);

  001a8	f7 e9		 imul	 ecx
; File C:\DS Project\DS Files\Source\ClientSource\Client\GameLib\ActorInstanceCollisionDetection.cpp

; 613  : 		for (DWORD j = 0; j < c_rVictimSphereVector.size(); ++j)

  001aa	89 5d ec	 mov	 DWORD PTR _j$1$[ebp], ebx
; File C:\Program Files (x86)\Microsoft Visual Studio\2019\Community\VC\Tools\MSVC\14.27.29110\include\vector

; 1484 :         return static_cast<size_type>(_My_data._Mylast - _My_data._Myfirst);

  001ad	03 d1		 add	 edx, ecx
  001af	c1 fa 04	 sar	 edx, 4
  001b2	8b c2		 mov	 eax, edx
  001b4	c1 e8 1f	 shr	 eax, 31			; 0000001fH
  001b7	03 c2		 add	 eax, edx
; File C:\DS Project\DS Files\Source\ClientSource\Client\GameLib\ActorInstanceCollisionDetection.cpp

; 613  : 		for (DWORD j = 0; j < c_rVictimSphereVector.size(); ++j)

  001b9	3b d8		 cmp	 ebx, eax
  001bb	8b 45 f8	 mov	 eax, DWORD PTR tv948[ebp]
  001be	72 b7		 jb	 SHORT $LL13@TestActorC
  001c0	8b 5d f4	 mov	 ebx, DWORD PTR tv944[ebp]
$LN8@TestActorC:
; File C:\Program Files (x86)\Microsoft Visual Studio\2019\Community\VC\Tools\MSVC\14.27.29110\include\vector

; 1484 :         return static_cast<size_type>(_My_data._Mylast - _My_data._Myfirst);

  001c3	8b 4f 1c	 mov	 ecx, DWORD PTR [edi+28]
  001c6	b8 93 24 49 92	 mov	 eax, -1840700269	; 92492493H
  001cb	2b 4f 18	 sub	 ecx, DWORD PTR [edi+24]
; File C:\DS Project\DS Files\Source\ClientSource\Client\GameLib\ActorInstanceCollisionDetection.cpp

; 612  : 		for (DWORD i = 0; i < c_rMainSphereVector.size(); ++i)

  001ce	83 c3 1c	 add	 ebx, 28			; 0000001cH
  001d1	ff 45 f0	 inc	 DWORD PTR _i$1$[ebp]
; File C:\Program Files (x86)\Microsoft Visual Studio\2019\Community\VC\Tools\MSVC\14.27.29110\include\vector

; 1484 :         return static_cast<size_type>(_My_data._Mylast - _My_data._Myfirst);

  001d4	f7 e9		 imul	 ecx
; File C:\DS Project\DS Files\Source\ClientSource\Client\GameLib\ActorInstanceCollisionDetection.cpp

; 612  : 		for (DWORD i = 0; i < c_rMainSphereVector.size(); ++i)

  001d6	89 5d f4	 mov	 DWORD PTR tv944[ebp], ebx
; File C:\Program Files (x86)\Microsoft Visual Studio\2019\Community\VC\Tools\MSVC\14.27.29110\include\vector

; 1484 :         return static_cast<size_type>(_My_data._Mylast - _My_data._Myfirst);

  001d9	03 d1		 add	 edx, ecx
  001db	c1 fa 04	 sar	 edx, 4
  001de	8b c2		 mov	 eax, edx
  001e0	c1 e8 1f	 shr	 eax, 31			; 0000001fH
  001e3	03 c2		 add	 eax, edx
; File C:\DS Project\DS Files\Source\ClientSource\Client\GameLib\ActorInstanceCollisionDetection.cpp

; 612  : 		for (DWORD i = 0; i < c_rMainSphereVector.size(); ++i)

  001e5	39 45 f0	 cmp	 DWORD PTR _i$1$[ebp], eax
  001e8	0f 82 62 ff ff
	ff		 jb	 $LL10@TestActorC
  001ee	8b 5d 08	 mov	 ebx, DWORD PTR _rVictim$[ebp]
$LN5@TestActorC:
; File C:\Program Files (x86)\Microsoft Visual Studio\2019\Community\VC\Tools\MSVC\14.27.29110\include\list

; 39   :     _List_unchecked_const_iterator(_Nodeptr _Pnode, const _Mylist* _Plist) noexcept : _Ptr(_Pnode) {

  001f1	8b 45 fc	 mov	 eax, DWORD PTR $T1[ebp]

; 166  :         this->_Ptr = this->_Ptr->_Next;

  001f4	8b 36		 mov	 esi, DWORD PTR [esi]

; 39   :     _List_unchecked_const_iterator(_Nodeptr _Pnode, const _Mylist* _Plist) noexcept : _Ptr(_Pnode) {

  001f6	8b 04 18	 mov	 eax, DWORD PTR [eax+ebx]

; 199  :         return this->_Ptr == _Right._Ptr;

  001f9	3b f0		 cmp	 esi, eax
; File C:\DS Project\DS Files\Source\ClientSource\Client\GameLib\ActorInstanceCollisionDetection.cpp

; 607  : 	for (; itorVictim != pVictimList->end(); ++itorVictim)

  001fb	0f 85 1f ff ff
	ff		 jne	 $LL7@TestActorC
  00201	8b 4d fc	 mov	 ecx, DWORD PTR $T1[ebp]
  00204	8b 55 e8	 mov	 edx, DWORD PTR _this$1$[ebp]
$LN2@TestActorC:
; File C:\Program Files (x86)\Microsoft Visual Studio\2019\Community\VC\Tools\MSVC\14.27.29110\include\list

; 166  :         this->_Ptr = this->_Ptr->_Next;

  00207	8b 3f		 mov	 edi, DWORD PTR [edi]

; 199  :         return this->_Ptr == _Right._Ptr;

  00209	3b 3c 11	 cmp	 edi, DWORD PTR [ecx+edx]
; File C:\DS Project\DS Files\Source\ClientSource\Client\GameLib\ActorInstanceCollisionDetection.cpp

; 606  : 	for (; itorMain != pMainList->end(); ++itorMain)

  0020c	0f 85 fe fe ff
	ff		 jne	 $LL4@TestActorC
$LN120@TestActorC:
  00212	5f		 pop	 edi

; 621  : 					GetVector3Distance(c_rMainSphere.v3LastPosition, c_rVictimSphere.v3Position))
; 622  : 				{
; 623  : 					return TRUE;
; 624  : 				}
; 625  : 				return FALSE;
; 626  : 			}
; 627  : 		}
; 628  : 	}
; 629  : 
; 630  : 	return FALSE;
; 631  : }

  00213	5e		 pop	 esi
  00214	33 c0		 xor	 eax, eax
  00216	5b		 pop	 ebx
  00217	8b e5		 mov	 esp, ebp
  00219	5d		 pop	 ebp
  0021a	c2 04 00	 ret	 4
$LN101@TestActorC:
; File C:\DS Project\DS Files\Source\ClientSource\Client\eterLib\GrpMath.h

; 44   : 	return (c_rv3Source.x-c_rv3Target.x)*(c_rv3Source.x-c_rv3Target.x) + (c_rv3Source.y-c_rv3Target.y)*(c_rv3Source.y-c_rv3Target.y);

  0021d	8b 45 e4	 mov	 eax, DWORD PTR _c_rVictimSphere$1$[ebp]
  00220	f3 0f 10 63 04	 movss	 xmm4, DWORD PTR [ebx+4]
  00225	f3 0f 10 13	 movss	 xmm2, DWORD PTR [ebx]
  00229	f3 0f 10 5b 10	 movss	 xmm3, DWORD PTR [ebx+16]
  0022e	f3 0f 10 4b 0c	 movss	 xmm1, DWORD PTR [ebx+12]
  00233	f3 0f 5c 60 04	 subss	 xmm4, DWORD PTR [eax+4]
  00238	f3 0f 5c 08	 subss	 xmm1, DWORD PTR [eax]
  0023c	f3 0f 5c 10	 subss	 xmm2, DWORD PTR [eax]
  00240	f3 0f 5c 58 04	 subss	 xmm3, DWORD PTR [eax+4]
  00245	f3 0f 59 e4	 mulss	 xmm4, xmm4
  00249	f3 0f 59 d2	 mulss	 xmm2, xmm2
  0024d	f3 0f 59 c9	 mulss	 xmm1, xmm1
  00251	f3 0f 59 db	 mulss	 xmm3, xmm3
  00255	f3 0f 58 e2	 addss	 xmm4, xmm2
  00259	f3 0f 58 cb	 addss	 xmm1, xmm3
; File C:\DS Project\DS Files\Source\ClientSource\Client\GameLib\ActorInstanceCollisionDetection.cpp

; 620  : 				if (GetVector3Distance(c_rMainSphere.v3Position, c_rVictimSphere.v3Position) <=

  0025d	0f 2f cc	 comiss	 xmm1, xmm4
  00260	72 b0		 jb	 SHORT $LN120@TestActorC

; 621  : 					GetVector3Distance(c_rMainSphere.v3LastPosition, c_rVictimSphere.v3Position))
; 622  : 				{
; 623  : 					return TRUE;
; 624  : 				}
; 625  : 				return FALSE;
; 626  : 			}
; 627  : 		}
; 628  : 	}
; 629  : 
; 630  : 	return FALSE;
; 631  : }

  00262	5f		 pop	 edi
  00263	5e		 pop	 esi
  00264	b8 01 00 00 00	 mov	 eax, 1
  00269	5b		 pop	 ebx
  0026a	8b e5		 mov	 esp, ebp
  0026c	5d		 pop	 ebp
  0026d	c2 04 00	 ret	 4
?TestActorCollision@CActorInstance@@QAEHAAV1@@Z ENDP	; CActorInstance::TestActorCollision
_TEXT	ENDS
; Function compile flags: /Ogtp
; File C:\DS Project\DS Files\Source\ClientSource\Client\GameLib\ActorInstanceCollisionDetection.cpp
; File C:\Program Files (x86)\Microsoft Visual Studio\2019\Community\VC\Tools\MSVC\14.27.29110\include\list
; File C:\DS Project\DS Files\Source\ClientSource\Client\GameLib\ActorInstanceCollisionDetection.cpp
; File C:\Program Files (x86)\Microsoft Visual Studio\2019\Community\VC\Tools\MSVC\14.27.29110\include\vector
; File C:\DS Project\DS Files\Source\ClientSource\Client\GameLib\ActorInstanceCollisionDetection.cpp
; File C:\Program Files (x86)\Microsoft Visual Studio\2019\Community\VC\Tools\MSVC\14.27.29110\include\vector
; File C:\DS Project\DS Files\Source\ClientSource\Client\GameLib\ActorInstanceCollisionDetection.cpp
; File C:\Program Files (x86)\Microsoft Visual Studio\2019\Community\VC\Tools\MSVC\14.27.29110\include\vector
; File C:\DS Project\DS Files\Source\ClientSource\Client\GameLib\ActorInstanceCollisionDetection.cpp
; File C:\Program Files (x86)\Microsoft Visual Studio\2019\Community\VC\Tools\MSVC\14.27.29110\include\vector
; File C:\DS Project\DS Files\Source\ClientSource\Client\GameLib\ActorInstanceCollisionDetection.cpp
; File C:\Program Files (x86)\Microsoft Visual Studio\2019\Community\VC\Tools\MSVC\14.27.29110\include\vector
; File C:\DS Project\DS Files\Source\ClientSource\Client\GameLib\ActorInstanceCollisionDetection.cpp
; File C:\Program Files (x86)\Microsoft Visual Studio\2019\Community\VC\Tools\MSVC\14.27.29110\include\vector
; File C:\DS Project\DS Files\Source\ClientSource\Client\GameLib\ActorInstanceCollisionDetection.cpp
; File C:\Program Files (x86)\Microsoft Visual Studio\2019\Community\VC\Tools\MSVC\14.27.29110\include\list
; File C:\DS Project\DS Files\Source\ClientSource\Client\GameLib\ActorInstanceCollisionDetection.cpp
;	COMDAT ?__TestObjectCollision@CActorInstance@@IAEHPBVCGraphicObjectInstance@@@Z
_TEXT	SEGMENT
_this$1$ = -8						; size = 4
_i$1$ = -4						; size = 4
_c_pObjectInstance$ = 8					; size = 4
?__TestObjectCollision@CActorInstance@@IAEHPBVCGraphicObjectInstance@@@Z PROC ; CActorInstance::__TestObjectCollision, COMDAT
; _this$ = ecx

; 673  : {

  00000	55		 push	 ebp
  00001	8b ec		 mov	 ebp, esp
  00003	83 ec 08	 sub	 esp, 8

; 674  : 	if (m_pkHorse)

  00006	8b 81 50 05 00
	00		 mov	 eax, DWORD PTR [ecx+1360]
  0000c	89 4d f8	 mov	 DWORD PTR _this$1$[ebp], ecx
  0000f	53		 push	 ebx
  00010	56		 push	 esi
  00011	57		 push	 edi
  00012	85 c0		 test	 eax, eax
  00014	74 20		 je	 SHORT $LN8@TestObject

; 675  : 	{
; 676  : 		if (m_pkHorse->__TestObjectCollision(c_pObjectInstance))

  00016	ff 75 08	 push	 DWORD PTR _c_pObjectInstance$[ebp]
  00019	8b c8		 mov	 ecx, eax
  0001b	e8 00 00 00 00	 call	 ?__TestObjectCollision@CActorInstance@@IAEHPBVCGraphicObjectInstance@@@Z ; CActorInstance::__TestObjectCollision
  00020	85 c0		 test	 eax, eax
  00022	0f 84 cf 00 00
	00		 je	 $LN57@TestObject
$LN48@TestObject:
  00028	5f		 pop	 edi

; 697  : 			{
; 698  : 				//const D3DXVECTOR3 & c_rv3Position = c_pObjectInstance->GetPosition();
; 699  : 				//if (GetVector3Distance(c_rMainSphere.v3Position, c_rv3Position) <
; 700  : 				//	GetVector3Distance(c_rMainSphere.v3LastPosition, c_rv3Position))
; 701  : 				{
; 702  : 					return TRUE;
; 703  : 				}
; 704  : 
; 705  : 				//return FALSE;
; 706  : 			}
; 707  : 		}
; 708  : 	}
; 709  : 
; 710  : 	return FALSE;
; 711  : }

  00029	5e		 pop	 esi
  0002a	b8 01 00 00 00	 mov	 eax, 1
  0002f	5b		 pop	 ebx
  00030	8b e5		 mov	 esp, ebp
  00032	5d		 pop	 ebp
  00033	c2 04 00	 ret	 4
$LN8@TestObject:

; 677  : 			return TRUE;
; 678  : 
; 679  : 		return FALSE;
; 680  : 	}
; 681  : 
; 682  : 	if (m_canSkipCollision)

  00036	80 b9 60 05 00
	00 00		 cmp	 BYTE PTR [ecx+1376], 0
  0003d	0f 85 b4 00 00
	00		 jne	 $LN57@TestObject

; 683  : 		return FALSE;
; 684  : 
; 685  : 	if (m_v3Movement.x == 0.0f && m_v3Movement.y == 0.0f && m_v3Movement.z == 0.0f)

  00043	f3 0f 10 81 80
	04 00 00	 movss	 xmm0, DWORD PTR [ecx+1152]
  0004b	0f 57 c9	 xorps	 xmm1, xmm1
  0004e	0f 2e c1	 ucomiss xmm0, xmm1
  00051	9f		 lahf
  00052	f6 c4 44	 test	 ah, 68			; 00000044H
  00055	7a 22		 jp	 SHORT $LN11@TestObject
  00057	f3 0f 10 81 84
	04 00 00	 movss	 xmm0, DWORD PTR [ecx+1156]
  0005f	0f 2e c1	 ucomiss xmm0, xmm1
  00062	9f		 lahf
  00063	f6 c4 44	 test	 ah, 68			; 00000044H
  00066	7a 11		 jp	 SHORT $LN11@TestObject
  00068	f3 0f 10 81 88
	04 00 00	 movss	 xmm0, DWORD PTR [ecx+1160]
  00070	0f 2e c1	 ucomiss xmm0, xmm1
  00073	9f		 lahf
  00074	f6 c4 44	 test	 ah, 68			; 00000044H
  00077	7b 7e		 jnp	 SHORT $LN57@TestObject
$LN11@TestObject:
; File C:\Program Files (x86)\Microsoft Visual Studio\2019\Community\VC\Tools\MSVC\14.27.29110\include\list

; 1092 :         return iterator(_Mypair._Myval2._Myhead->_Next, _STD addressof(_Mypair._Myval2));

  00079	8b 81 38 03 00
	00		 mov	 eax, DWORD PTR [ecx+824]

; 39   :     _List_unchecked_const_iterator(_Nodeptr _Pnode, const _Mylist* _Plist) noexcept : _Ptr(_Pnode) {

  0007f	8b 30		 mov	 esi, DWORD PTR [eax]
  00081	3b f0		 cmp	 esi, eax
; File C:\DS Project\DS Files\Source\ClientSource\Client\GameLib\ActorInstanceCollisionDetection.cpp

; 689  : 	for (; itorMain != m_BodyPointInstanceList.end(); ++itorMain)

  00083	74 72		 je	 SHORT $LN57@TestObject
$LL4@TestObject:
; File C:\Program Files (x86)\Microsoft Visual Studio\2019\Community\VC\Tools\MSVC\14.27.29110\include\vector

; 1484 :         return static_cast<size_type>(_My_data._Mylast - _My_data._Myfirst);

  00085	8b 5e 18	 mov	 ebx, DWORD PTR [esi+24]
; File C:\DS Project\DS Files\Source\ClientSource\Client\GameLib\ActorInstanceCollisionDetection.cpp

; 692  : 		for (DWORD i = 0; i < c_rMainSphereVector.size(); ++i)

  00088	33 c9		 xor	 ecx, ecx
  0008a	89 4d fc	 mov	 DWORD PTR _i$1$[ebp], ecx
; File C:\Program Files (x86)\Microsoft Visual Studio\2019\Community\VC\Tools\MSVC\14.27.29110\include\vector

; 1484 :         return static_cast<size_type>(_My_data._Mylast - _My_data._Myfirst);

  0008d	b8 93 24 49 92	 mov	 eax, -1840700269	; 92492493H
  00092	8b 4e 1c	 mov	 ecx, DWORD PTR [esi+28]
  00095	2b cb		 sub	 ecx, ebx
  00097	f7 e9		 imul	 ecx
  00099	03 d1		 add	 edx, ecx
  0009b	c1 fa 04	 sar	 edx, 4
  0009e	8b c2		 mov	 eax, edx
  000a0	c1 e8 1f	 shr	 eax, 31			; 0000001fH
  000a3	03 c2		 add	 eax, edx
; File C:\DS Project\DS Files\Source\ClientSource\Client\GameLib\ActorInstanceCollisionDetection.cpp

; 692  : 		for (DWORD i = 0; i < c_rMainSphereVector.size(); ++i)

  000a5	74 43		 je	 SHORT $LN2@TestObject
; File C:\Program Files (x86)\Microsoft Visual Studio\2019\Community\VC\Tools\MSVC\14.27.29110\include\vector

; 1483 :         auto& _My_data = _Mypair._Myval2;

  000a7	33 ff		 xor	 edi, edi
  000a9	0f 1f 80 00 00
	00 00		 npad	 7
$LL7@TestObject:
; File C:\DS Project\DS Files\Source\ClientSource\Client\GameLib\ActorInstanceCollisionDetection.cpp

; 696  : 			if (c_pObjectInstance->MovementCollisionDynamicSphere(c_rMainSphere))

  000b0	8b 4d 08	 mov	 ecx, DWORD PTR _c_pObjectInstance$[ebp]
; File C:\Program Files (x86)\Microsoft Visual Studio\2019\Community\VC\Tools\MSVC\14.27.29110\include\vector

; 1514 :         return _My_data._Myfirst[_Pos];

  000b3	8d 04 1f	 lea	 eax, DWORD PTR [edi+ebx]
; File C:\DS Project\DS Files\Source\ClientSource\Client\GameLib\ActorInstanceCollisionDetection.cpp

; 696  : 			if (c_pObjectInstance->MovementCollisionDynamicSphere(c_rMainSphere))

  000b6	50		 push	 eax
  000b7	e8 00 00 00 00	 call	 ?MovementCollisionDynamicSphere@CGraphicObjectInstance@@QBE_NABUCDynamicSphereInstance@@@Z ; CGraphicObjectInstance::MovementCollisionDynamicSphere
  000bc	84 c0		 test	 al, al
  000be	0f 85 64 ff ff
	ff		 jne	 $LN48@TestObject
; File C:\Program Files (x86)\Microsoft Visual Studio\2019\Community\VC\Tools\MSVC\14.27.29110\include\vector

; 1484 :         return static_cast<size_type>(_My_data._Mylast - _My_data._Myfirst);

  000c4	8b 4e 1c	 mov	 ecx, DWORD PTR [esi+28]
  000c7	b8 93 24 49 92	 mov	 eax, -1840700269	; 92492493H
  000cc	8b 5e 18	 mov	 ebx, DWORD PTR [esi+24]
; File C:\DS Project\DS Files\Source\ClientSource\Client\GameLib\ActorInstanceCollisionDetection.cpp

; 692  : 		for (DWORD i = 0; i < c_rMainSphereVector.size(); ++i)

  000cf	83 c7 1c	 add	 edi, 28			; 0000001cH
  000d2	ff 45 fc	 inc	 DWORD PTR _i$1$[ebp]
; File C:\Program Files (x86)\Microsoft Visual Studio\2019\Community\VC\Tools\MSVC\14.27.29110\include\vector

; 1484 :         return static_cast<size_type>(_My_data._Mylast - _My_data._Myfirst);

  000d5	2b cb		 sub	 ecx, ebx
  000d7	f7 e9		 imul	 ecx
  000d9	03 d1		 add	 edx, ecx
  000db	c1 fa 04	 sar	 edx, 4
  000de	8b c2		 mov	 eax, edx
  000e0	c1 e8 1f	 shr	 eax, 31			; 0000001fH
  000e3	03 c2		 add	 eax, edx
; File C:\DS Project\DS Files\Source\ClientSource\Client\GameLib\ActorInstanceCollisionDetection.cpp

; 692  : 		for (DWORD i = 0; i < c_rMainSphereVector.size(); ++i)

  000e5	39 45 fc	 cmp	 DWORD PTR _i$1$[ebp], eax
  000e8	72 c6		 jb	 SHORT $LL7@TestObject
$LN2@TestObject:
; File C:\Program Files (x86)\Microsoft Visual Studio\2019\Community\VC\Tools\MSVC\14.27.29110\include\list

; 199  :         return this->_Ptr == _Right._Ptr;

  000ea	8b 45 f8	 mov	 eax, DWORD PTR _this$1$[ebp]

; 166  :         this->_Ptr = this->_Ptr->_Next;

  000ed	8b 36		 mov	 esi, DWORD PTR [esi]

; 199  :         return this->_Ptr == _Right._Ptr;

  000ef	3b b0 38 03 00
	00		 cmp	 esi, DWORD PTR [eax+824]
; File C:\DS Project\DS Files\Source\ClientSource\Client\GameLib\ActorInstanceCollisionDetection.cpp

; 689  : 	for (; itorMain != m_BodyPointInstanceList.end(); ++itorMain)

  000f5	75 8e		 jne	 SHORT $LL4@TestObject
$LN57@TestObject:
  000f7	5f		 pop	 edi

; 697  : 			{
; 698  : 				//const D3DXVECTOR3 & c_rv3Position = c_pObjectInstance->GetPosition();
; 699  : 				//if (GetVector3Distance(c_rMainSphere.v3Position, c_rv3Position) <
; 700  : 				//	GetVector3Distance(c_rMainSphere.v3LastPosition, c_rv3Position))
; 701  : 				{
; 702  : 					return TRUE;
; 703  : 				}
; 704  : 
; 705  : 				//return FALSE;
; 706  : 			}
; 707  : 		}
; 708  : 	}
; 709  : 
; 710  : 	return FALSE;
; 711  : }

  000f8	5e		 pop	 esi
  000f9	33 c0		 xor	 eax, eax
  000fb	5b		 pop	 ebx
  000fc	8b e5		 mov	 esp, ebp
  000fe	5d		 pop	 ebp
  000ff	c2 04 00	 ret	 4
?__TestObjectCollision@CActorInstance@@IAEHPBVCGraphicObjectInstance@@@Z ENDP ; CActorInstance::__TestObjectCollision
_TEXT	ENDS
; Function compile flags: /Ogtp
; File C:\DS Project\DS Files\Source\ClientSource\Client\GameLib\ActorInstanceCollisionDetection.cpp
;	COMDAT ?BlockMovement@CActorInstance@@QAEXXZ
_TEXT	SEGMENT
?BlockMovement@CActorInstance@@QAEXXZ PROC		; CActorInstance::BlockMovement, COMDAT
; _this$ = ecx

; 663  : 	if (m_pkHorse)

  00000	8b 81 50 05 00
	00		 mov	 eax, DWORD PTR [ecx+1360]
  00006	85 c0		 test	 eax, eax
  00008	0f 45 c8	 cmovne	 ecx, eax

; 664  : 	{
; 665  : 		m_pkHorse->__InitializeMovement();
; 666  : 		return;
; 667  : 	}
; 668  : 
; 669  : 	__InitializeMovement();
; 670  : }

  0000b	e9 00 00 00 00	 jmp	 ?__InitializeMovement@CActorInstance@@IAEXXZ ; CActorInstance::__InitializeMovement
?BlockMovement@CActorInstance@@QAEXXZ ENDP		; CActorInstance::BlockMovement
_TEXT	ENDS
; Function compile flags: /Ogtp
; File C:\DS Project\DS Files\Source\ClientSource\Client\GameLib\ActorInstanceCollisionDetection.cpp
;	COMDAT ?IsBlockObject@CActorInstance@@QAE_NABVCGraphicObjectInstance@@@Z
_TEXT	SEGMENT
_c_rkBGObj$ = 8						; size = 4
?IsBlockObject@CActorInstance@@QAE_NABVCGraphicObjectInstance@@@Z PROC ; CActorInstance::IsBlockObject, COMDAT
; _this$ = ecx

; 651  : {

  00000	55		 push	 ebp
  00001	8b ec		 mov	 ebp, esp

; 652  : 	if (this==&c_rkBGObj)

  00003	8b 45 08	 mov	 eax, DWORD PTR _c_rkBGObj$[ebp]
  00006	3b c8		 cmp	 ecx, eax
  00008	74 10		 je	 SHORT $LN5@IsBlockObj

; 653  : 		return false;
; 654  : 
; 655  : 	if (!__TestObjectCollision(&c_rkBGObj))

  0000a	50		 push	 eax
  0000b	e8 00 00 00 00	 call	 ?__TestObjectCollision@CActorInstance@@IAEHPBVCGraphicObjectInstance@@@Z ; CActorInstance::__TestObjectCollision
  00010	85 c0		 test	 eax, eax
  00012	74 06		 je	 SHORT $LN5@IsBlockObj

; 657  : 
; 658  : 	return true;

  00014	b0 01		 mov	 al, 1

; 659  : }

  00016	5d		 pop	 ebp
  00017	c2 04 00	 ret	 4
$LN5@IsBlockObj:

; 656  : 		return false;

  0001a	32 c0		 xor	 al, al

; 659  : }

  0001c	5d		 pop	 ebp
  0001d	c2 04 00	 ret	 4
?IsBlockObject@CActorInstance@@QAE_NABVCGraphicObjectInstance@@@Z ENDP ; CActorInstance::IsBlockObject
_TEXT	ENDS
; Function compile flags: /Ogtp
; File C:\DS Project\DS Files\Source\ClientSource\Client\GameLib\ActorInstanceCollisionDetection.cpp
;	COMDAT ?AvoidObject@CActorInstance@@QAE_NABVCGraphicObjectInstance@@@Z
_TEXT	SEGMENT
_c_rkBGObj$ = 8						; size = 4
?AvoidObject@CActorInstance@@QAE_NABVCGraphicObjectInstance@@@Z PROC ; CActorInstance::AvoidObject, COMDAT
; _this$ = ecx

; 634  : {

  00000	55		 push	 ebp
  00001	8b ec		 mov	 ebp, esp
  00003	56		 push	 esi
  00004	57		 push	 edi

; 635  : #ifdef __MOVIE_MODE__
; 636  : 	if (IsMovieMode())
; 637  : 		return false;
; 638  : #endif
; 639  : 
; 640  : 	if (this==&c_rkBGObj)

  00005	8b 7d 08	 mov	 edi, DWORD PTR _c_rkBGObj$[ebp]
  00008	8b f1		 mov	 esi, ecx
  0000a	3b f7		 cmp	 esi, edi
  0000c	74 1a		 je	 SHORT $LN5@AvoidObjec

; 641  : 		return false;
; 642  : 
; 643  : 	if (!__TestObjectCollision(&c_rkBGObj))

  0000e	57		 push	 edi
  0000f	e8 00 00 00 00	 call	 ?__TestObjectCollision@CActorInstance@@IAEHPBVCGraphicObjectInstance@@@Z ; CActorInstance::__TestObjectCollision
  00014	85 c0		 test	 eax, eax
  00016	74 10		 je	 SHORT $LN5@AvoidObjec

; 645  : 
; 646  : 	__AdjustCollisionMovement(&c_rkBGObj);

  00018	57		 push	 edi
  00019	8b ce		 mov	 ecx, esi
  0001b	e8 00 00 00 00	 call	 ?__AdjustCollisionMovement@CActorInstance@@IAEXPBVCGraphicObjectInstance@@@Z ; CActorInstance::__AdjustCollisionMovement
  00020	5f		 pop	 edi

; 647  : 	return true;

  00021	b0 01		 mov	 al, 1

; 648  : }

  00023	5e		 pop	 esi
  00024	5d		 pop	 ebp
  00025	c2 04 00	 ret	 4
$LN5@AvoidObjec:
  00028	5f		 pop	 edi

; 644  : 		return false;

  00029	32 c0		 xor	 al, al

; 648  : }

  0002b	5e		 pop	 esi
  0002c	5d		 pop	 ebp
  0002d	c2 04 00	 ret	 4
?AvoidObject@CActorInstance@@QAE_NABVCGraphicObjectInstance@@@Z ENDP ; CActorInstance::AvoidObject
_TEXT	ENDS
; Function compile flags: /Ogtp
; File C:\DS Project\DS Files\Source\ClientSource\Client\GameLib\ActorInstanceCollisionDetection.cpp
; File C:\Program Files (x86)\Microsoft Visual Studio\2019\Community\VC\Tools\MSVC\14.27.29110\include\list
; File C:\DS Project\DS Files\Source\ClientSource\Client\GameLib\ActorInstanceCollisionDetection.cpp
; File C:\Program Files (x86)\Microsoft Visual Studio\2019\Community\VC\Tools\MSVC\14.27.29110\include\vector
; File C:\DS Project\DS Files\Source\ClientSource\Client\GameLib\ActorInstanceCollisionDetection.cpp
; File C:\Program Files (x86)\Microsoft Visual Studio\2019\Community\VC\Tools\MSVC\14.27.29110\include\vector
; File C:\DS Project\DS Files\Source\ClientSource\Client\GameLib\ActorInstanceCollisionDetection.cpp
; File C:\DS Project\DS Files\Source\ClientSource\extern\include\d3dx8math.inl
; File C:\DS Project\DS Files\Source\ClientSource\Client\GameLib\ActorInstanceCollisionDetection.cpp
; File C:\DS Project\DS Files\Source\ClientSource\extern\include\d3dx8math.inl
; File C:\DS Project\DS Files\Source\ClientSource\Client\GameLib\ActorInstanceCollisionDetection.cpp
; File C:\Program Files (x86)\Microsoft Visual Studio\2019\Community\VC\Tools\MSVC\14.27.29110\include\vector
; File C:\DS Project\DS Files\Source\ClientSource\Client\GameLib\ActorInstanceCollisionDetection.cpp
; File C:\Program Files (x86)\Microsoft Visual Studio\2019\Community\VC\Tools\MSVC\14.27.29110\include\vector
; File C:\DS Project\DS Files\Source\ClientSource\Client\GameLib\ActorInstanceCollisionDetection.cpp
; File C:\Program Files (x86)\Microsoft Visual Studio\2019\Community\VC\Tools\MSVC\14.27.29110\include\vector
; File C:\DS Project\DS Files\Source\ClientSource\Client\GameLib\ActorInstanceCollisionDetection.cpp
; File C:\Program Files (x86)\Microsoft Visual Studio\2019\Community\VC\Tools\MSVC\14.27.29110\include\vector
; File C:\DS Project\DS Files\Source\ClientSource\Client\GameLib\ActorInstanceCollisionDetection.cpp
; File C:\DS Project\DS Files\Source\ClientSource\extern\include\d3dx8math.inl
; File C:\DS Project\DS Files\Source\ClientSource\Client\GameLib\ActorInstanceCollisionDetection.cpp
; File C:\Program Files (x86)\Microsoft Visual Studio\2019\Community\VC\Tools\MSVC\14.27.29110\include\vector
; File C:\DS Project\DS Files\Source\ClientSource\extern\include\d3dx8math.inl
; File C:\Program Files (x86)\Microsoft Visual Studio\2019\Community\VC\Tools\MSVC\14.27.29110\include\vector
; File C:\DS Project\DS Files\Source\ClientSource\Client\GameLib\ActorInstanceCollisionDetection.cpp
; File C:\Program Files (x86)\Microsoft Visual Studio\2019\Community\VC\Tools\MSVC\14.27.29110\include\vector
; File C:\DS Project\DS Files\Source\ClientSource\Client\GameLib\ActorInstanceCollisionDetection.cpp
; File C:\Program Files (x86)\Microsoft Visual Studio\2019\Community\VC\Tools\MSVC\14.27.29110\include\vector
; File C:\DS Project\DS Files\Source\ClientSource\Client\GameLib\ActorInstanceCollisionDetection.cpp
; File C:\Program Files (x86)\Microsoft Visual Studio\2019\Community\VC\Tools\MSVC\14.27.29110\include\vector
; File C:\DS Project\DS Files\Source\ClientSource\Client\GameLib\ActorInstanceCollisionDetection.cpp
; File C:\Program Files (x86)\Microsoft Visual Studio\2019\Community\VC\Tools\MSVC\14.27.29110\include\list
; File C:\DS Project\DS Files\Source\ClientSource\Client\GameLib\ActorInstanceCollisionDetection.cpp
;	COMDAT ?UpdateAdvancingPointInstance@CActorInstance@@QAEXXZ
_TEXT	SEGMENT
_this$GSCopy$1$ = -228					; size = 4
_c_pCollisionData$1$ = -224				; size = 4
_v3Movement$ = -220					; size = 12
tv637 = -208						; size = 4
_j$1$ = -204						; size = 4
tv638 = -200						; size = 4
$T1 = -196						; size = 64
_matPoint$ = -132					; size = 64
_matCenter$ = -68					; size = 64
__$ArrayPad$ = -4					; size = 4
?UpdateAdvancingPointInstance@CActorInstance@@QAEXXZ PROC ; CActorInstance::UpdateAdvancingPointInstance, COMDAT
; _this$ = ecx

; 97   : {

  00000	55		 push	 ebp
  00001	8b ec		 mov	 ebp, esp
  00003	81 ec e4 00 00
	00		 sub	 esp, 228		; 000000e4H
  00009	a1 00 00 00 00	 mov	 eax, DWORD PTR ___security_cookie
  0000e	33 c5		 xor	 eax, ebp
  00010	89 45 fc	 mov	 DWORD PTR __$ArrayPad$[ebp], eax
  00013	53		 push	 ebx
  00014	8b d9		 mov	 ebx, ecx
  00016	56		 push	 esi
  00017	89 9d 1c ff ff
	ff		 mov	 DWORD PTR _this$GSCopy$1$[ebp], ebx

; 98   : 	D3DXVECTOR3 v3Movement = m_v3Movement;

  0001d	f3 0f 7e 83 80
	04 00 00	 movq	 xmm0, QWORD PTR [ebx+1152]

; 99   : 	if (m_pkHorse)

  00025	8b 8b 50 05 00
	00		 mov	 ecx, DWORD PTR [ebx+1360]
  0002b	8b 83 88 04 00
	00		 mov	 eax, DWORD PTR [ebx+1160]
  00031	66 0f d6 85 24
	ff ff ff	 movq	 QWORD PTR _v3Movement$[ebp], xmm0
  00039	89 85 2c ff ff
	ff		 mov	 DWORD PTR _v3Movement$[ebp+8], eax
  0003f	85 c9		 test	 ecx, ecx
  00041	74 21		 je	 SHORT $LN9@UpdateAdva

; 100  : 		v3Movement = m_pkHorse->m_v3Movement;

  00043	f3 0f 7e 81 80
	04 00 00	 movq	 xmm0, QWORD PTR [ecx+1152]
  0004b	8b 81 88 04 00
	00		 mov	 eax, DWORD PTR [ecx+1160]
  00051	66 0f d6 85 24
	ff ff ff	 movq	 QWORD PTR _v3Movement$[ebp], xmm0
  00059	89 85 2c ff ff
	ff		 mov	 DWORD PTR _v3Movement$[ebp+8], eax

; 101  : 
; 102  : 	if (m_pkHorse)
; 103  : 		m_pkHorse->UpdateAdvancingPointInstance();

  0005f	e8 00 00 00 00	 call	 ?UpdateAdvancingPointInstance@CActorInstance@@QAEXXZ ; CActorInstance::UpdateAdvancingPointInstance
$LN9@UpdateAdva:
; File C:\Program Files (x86)\Microsoft Visual Studio\2019\Community\VC\Tools\MSVC\14.27.29110\include\list

; 1092 :         return iterator(_Mypair._Myval2._Myhead->_Next, _STD addressof(_Mypair._Myval2));

  00064	8b 83 38 03 00
	00		 mov	 eax, DWORD PTR [ebx+824]

; 39   :     _List_unchecked_const_iterator(_Nodeptr _Pnode, const _Mylist* _Plist) noexcept : _Ptr(_Pnode) {

  0006a	8b 30		 mov	 esi, DWORD PTR [eax]
  0006c	3b f0		 cmp	 esi, eax
; File C:\DS Project\DS Files\Source\ClientSource\Client\GameLib\ActorInstanceCollisionDetection.cpp

; 109  : 	for (; itor != m_BodyPointInstanceList.end(); ++itor)

  0006e	0f 84 44 02 00
	00		 je	 $LN3@UpdateAdva
  00074	57		 push	 edi
$LL4@UpdateAdva:

; 110  : 	{
; 111  : 		TCollisionPointInstance & rInstance = *itor;
; 112  : 
; 113  : 		if (rInstance.isAttached)

  00075	83 7e 0c 00	 cmp	 DWORD PTR [esi+12], 0
  00079	0f 84 8e 00 00
	00		 je	 $LN10@UpdateAdva
; File C:\Program Files (x86)\Microsoft Visual Studio\2019\Community\VC\Tools\MSVC\14.27.29110\include\vector

; 1484 :         return static_cast<size_type>(_My_data._Mylast - _My_data._Myfirst);

  0007f	8b 83 8c 02 00
	00		 mov	 eax, DWORD PTR [ebx+652]
  00085	8b 93 88 02 00
	00		 mov	 edx, DWORD PTR [ebx+648]
  0008b	2b c2		 sub	 eax, edx
; File C:\DS Project\DS Files\Source\ClientSource\Client\GameLib\ActorInstanceCollisionDetection.cpp

; 115  : 			if (rInstance.dwModelIndex>=m_LODControllerVector.size())

  0008d	8b 4e 10	 mov	 ecx, DWORD PTR [esi+16]
; File C:\Program Files (x86)\Microsoft Visual Studio\2019\Community\VC\Tools\MSVC\14.27.29110\include\vector

; 1484 :         return static_cast<size_type>(_My_data._Mylast - _My_data._Myfirst);

  00090	c1 f8 02	 sar	 eax, 2
; File C:\DS Project\DS Files\Source\ClientSource\Client\GameLib\ActorInstanceCollisionDetection.cpp

; 115  : 			if (rInstance.dwModelIndex>=m_LODControllerVector.size())

  00093	3b c8		 cmp	 ecx, eax
  00095	72 14		 jb	 SHORT $LN12@UpdateAdva

; 116  : 			{
; 117  : 				Tracenf("CActorInstance::UpdateAdvancingPointInstance - rInstance.dwModelIndex=%d >= m_LODControllerVector.size()=%d",

  00097	50		 push	 eax
  00098	51		 push	 ecx
  00099	68 00 00 00 00	 push	 OFFSET ??_C@_0GM@IMNFDCHL@CActorInstance?3?3UpdateAdvancing@
  0009e	e8 00 00 00 00	 call	 ?Tracenf@@YAXPBDZZ	; Tracenf
  000a3	83 c4 0c	 add	 esp, 12			; 0000000cH

; 118  : 					rInstance.dwModelIndex, m_LODControllerVector.size());
; 119  : 				continue;

  000a6	e9 fe 01 00 00	 jmp	 $LN2@UpdateAdva
$LN12@UpdateAdva:

; 120  : 			}
; 121  : 
; 122  : 			CGrannyLODController* pGrnLODController=m_LODControllerVector[rInstance.dwModelIndex];

  000ab	8b 04 8a	 mov	 eax, DWORD PTR [edx+ecx*4]

; 123  : 			if (!pGrnLODController)

  000ae	85 c0		 test	 eax, eax
  000b0	75 13		 jne	 SHORT $LN13@UpdateAdva

; 124  : 			{
; 125  : 				Tracenf("CActorInstance::UpdateAdvancingPointInstance - m_LODControllerVector[rInstance.dwModelIndex=%d] is NULL", rInstance.dwModelIndex);

  000b2	51		 push	 ecx
  000b3	68 00 00 00 00	 push	 OFFSET ??_C@_0GI@OFDOMPIB@CActorInstance?3?3UpdateAdvancing@
  000b8	e8 00 00 00 00	 call	 ?Tracenf@@YAXPBDZZ	; Tracenf
  000bd	83 c4 08	 add	 esp, 8

; 126  : 				continue;

  000c0	e9 e4 01 00 00	 jmp	 $LN2@UpdateAdva
$LN13@UpdateAdva:

; 127  : 			}
; 128  : 
; 129  : 			CGrannyModelInstance * pModelInstance = pGrnLODController->GetModelInstance();

  000c5	8b c8		 mov	 ecx, eax
  000c7	e8 00 00 00 00	 call	 ?GetModelInstance@CGrannyLODController@@QAEPAVCGrannyModelInstance@@XZ ; CGrannyLODController::GetModelInstance

; 130  : 			if (!pModelInstance)

  000cc	85 c0		 test	 eax, eax
  000ce	0f 84 d5 01 00
	00		 je	 $LN2@UpdateAdva

; 136  : 			matCenter = *(D3DXMATRIX *)pModelInstance->GetBoneMatrixPointer(rInstance.dwBoneIndex);

  000d4	ff 76 14	 push	 DWORD PTR [esi+20]
  000d7	8b c8		 mov	 ecx, eax
  000d9	e8 00 00 00 00	 call	 ?GetBoneMatrixPointer@CGrannyModelInstance@@QBEPBMH@Z ; CGrannyModelInstance::GetBoneMatrixPointer
  000de	0f 10 00	 movups	 xmm0, XMMWORD PTR [eax]
  000e1	0f 11 45 bc	 movups	 XMMWORD PTR _matCenter$[ebp], xmm0
  000e5	0f 10 40 10	 movups	 xmm0, XMMWORD PTR [eax+16]
  000e9	0f 11 45 cc	 movups	 XMMWORD PTR _matCenter$[ebp+16], xmm0
  000ed	0f 10 40 20	 movups	 xmm0, XMMWORD PTR [eax+32]
  000f1	0f 11 45 dc	 movups	 XMMWORD PTR _matCenter$[ebp+32], xmm0
  000f5	0f 10 40 30	 movups	 xmm0, XMMWORD PTR [eax+48]

; 137  : 			matCenter *= m_worldMatrix;

  000f9	8d 43 6c	 lea	 eax, DWORD PTR [ebx+108]
; File C:\DS Project\DS Files\Source\ClientSource\extern\include\d3dx8math.inl

; 512  :     D3DXMatrixMultiply(this, this, &mat);

  000fc	50		 push	 eax
  000fd	8d 45 bc	 lea	 eax, DWORD PTR _matCenter$[ebp]
  00100	50		 push	 eax
  00101	50		 push	 eax
; File C:\DS Project\DS Files\Source\ClientSource\Client\GameLib\ActorInstanceCollisionDetection.cpp

; 136  : 			matCenter = *(D3DXMATRIX *)pModelInstance->GetBoneMatrixPointer(rInstance.dwBoneIndex);

  00102	0f 11 45 ec	 movups	 XMMWORD PTR _matCenter$[ebp+48], xmm0
; File C:\DS Project\DS Files\Source\ClientSource\extern\include\d3dx8math.inl

; 512  :     D3DXMatrixMultiply(this, this, &mat);

  00106	e8 00 00 00 00	 call	 _D3DXMatrixMultiply@12
; File C:\DS Project\DS Files\Source\ClientSource\Client\GameLib\ActorInstanceCollisionDetection.cpp

; 138  : 		}

  0010b	eb 26		 jmp	 SHORT $LN11@UpdateAdva
$LN10@UpdateAdva:

; 139  : 		else
; 140  : 		{
; 141  : 			matCenter = m_worldMatrix;

  0010d	0f 10 43 6c	 movups	 xmm0, XMMWORD PTR [ebx+108]
  00111	0f 11 45 bc	 movups	 XMMWORD PTR _matCenter$[ebp], xmm0
  00115	0f 10 43 7c	 movups	 xmm0, XMMWORD PTR [ebx+124]
  00119	0f 11 45 cc	 movups	 XMMWORD PTR _matCenter$[ebp+16], xmm0
  0011d	0f 10 83 8c 00
	00 00		 movups	 xmm0, XMMWORD PTR [ebx+140]
  00124	0f 11 45 dc	 movups	 XMMWORD PTR _matCenter$[ebp+32], xmm0
  00128	0f 10 83 9c 00
	00 00		 movups	 xmm0, XMMWORD PTR [ebx+156]
  0012f	0f 11 45 ec	 movups	 XMMWORD PTR _matCenter$[ebp+48], xmm0
$LN11@UpdateAdva:

; 142  : 		}
; 143  : 
; 144  : 		// Update Collision Sphere
; 145  : 		const NRaceData::TCollisionData * c_pCollisionData = rInstance.c_pCollisionData;

  00133	8b 46 08	 mov	 eax, DWORD PTR [esi+8]
  00136	89 85 20 ff ff
	ff		 mov	 DWORD PTR _c_pCollisionData$1$[ebp], eax

; 146  : 		if (c_pCollisionData)

  0013c	85 c0		 test	 eax, eax
  0013e	0f 84 65 01 00
	00		 je	 $LN2@UpdateAdva

; 148  : 			for (DWORD j = 0; j < c_pCollisionData->SphereDataVector.size(); ++j)

  00144	33 c9		 xor	 ecx, ecx
  00146	89 8d 34 ff ff
	ff		 mov	 DWORD PTR _j$1$[ebp], ecx
; File C:\Program Files (x86)\Microsoft Visual Studio\2019\Community\VC\Tools\MSVC\14.27.29110\include\vector

; 1484 :         return static_cast<size_type>(_My_data._Mylast - _My_data._Myfirst);

  0014c	8b 48 0c	 mov	 ecx, DWORD PTR [eax+12]
  0014f	2b 48 08	 sub	 ecx, DWORD PTR [eax+8]
  00152	b8 67 66 66 66	 mov	 eax, 1717986919		; 66666667H
  00157	f7 e9		 imul	 ecx
  00159	c1 fa 03	 sar	 edx, 3
  0015c	8b c2		 mov	 eax, edx
  0015e	c1 e8 1f	 shr	 eax, 31			; 0000001fH
  00161	03 c2		 add	 eax, edx
; File C:\DS Project\DS Files\Source\ClientSource\Client\GameLib\ActorInstanceCollisionDetection.cpp

; 148  : 			for (DWORD j = 0; j < c_pCollisionData->SphereDataVector.size(); ++j)

  00163	0f 84 40 01 00
	00		 je	 $LN2@UpdateAdva
  00169	8b 9d 20 ff ff
	ff		 mov	 ebx, DWORD PTR _c_pCollisionData$1$[ebp]
; File C:\Program Files (x86)\Microsoft Visual Studio\2019\Community\VC\Tools\MSVC\14.27.29110\include\vector

; 1483 :         auto& _My_data = _Mypair._Myval2;

  0016f	33 ff		 xor	 edi, edi
  00171	c7 85 38 ff ff
	ff 00 00 00 00	 mov	 DWORD PTR tv638[ebp], 0
  0017b	89 bd 30 ff ff
	ff		 mov	 DWORD PTR tv637[ebp], edi
$LL7@UpdateAdva:

; 1514 :         return _My_data._Myfirst[_Pos];

  00181	8b 4b 08	 mov	 ecx, DWORD PTR [ebx+8]
  00184	03 cf		 add	 ecx, edi
; File C:\DS Project\DS Files\Source\ClientSource\Client\GameLib\ActorInstanceCollisionDetection.cpp

; 150  : 				const TSphereData & c = c_pCollisionData->SphereDataVector[j].GetAttribute();

  00186	e8 00 00 00 00	 call	 ?GetAttribute@CSphereCollisionInstance@@QBEABUSSphereData@@XZ ; CSphereCollisionInstance::GetAttribute
; File C:\Program Files (x86)\Microsoft Visual Studio\2019\Community\VC\Tools\MSVC\14.27.29110\include\vector

; 1504 :         return _My_data._Myfirst[_Pos];

  0018b	8b 7e 18	 mov	 edi, DWORD PTR [esi+24]
; File C:\DS Project\DS Files\Source\ClientSource\Client\GameLib\ActorInstanceCollisionDetection.cpp

; 153  : 				D3DXMatrixTranslation(&matPoint, c.v3Position.x, c.v3Position.y, c.v3Position.z);

  0018e	83 ec 0c	 sub	 esp, 12			; 0000000cH
; File C:\Program Files (x86)\Microsoft Visual Studio\2019\Community\VC\Tools\MSVC\14.27.29110\include\vector

; 1504 :         return _My_data._Myfirst[_Pos];

  00191	03 bd 38 ff ff
	ff		 add	 edi, DWORD PTR tv638[ebp]
; File C:\DS Project\DS Files\Source\ClientSource\Client\GameLib\ActorInstanceCollisionDetection.cpp

; 153  : 				D3DXMatrixTranslation(&matPoint, c.v3Position.x, c.v3Position.y, c.v3Position.z);

  00197	f3 0f 10 40 08	 movss	 xmm0, DWORD PTR [eax+8]
  0019c	f3 0f 11 44 24
	08		 movss	 DWORD PTR [esp+8], xmm0
  001a2	f3 0f 10 40 04	 movss	 xmm0, DWORD PTR [eax+4]
  001a7	f3 0f 11 44 24
	04		 movss	 DWORD PTR [esp+4], xmm0
  001ad	f3 0f 10 00	 movss	 xmm0, DWORD PTR [eax]
  001b1	8d 85 7c ff ff
	ff		 lea	 eax, DWORD PTR _matPoint$[ebp]
  001b7	f3 0f 11 04 24	 movss	 DWORD PTR [esp], xmm0
  001bc	50		 push	 eax
  001bd	e8 00 00 00 00	 call	 _D3DXMatrixTranslation@16
; File C:\DS Project\DS Files\Source\ClientSource\extern\include\d3dx8math.inl

; 580  :     D3DXMatrixMultiply(&matT, this, &mat);

  001c2	8d 45 bc	 lea	 eax, DWORD PTR _matCenter$[ebp]
  001c5	50		 push	 eax
  001c6	8d 85 7c ff ff
	ff		 lea	 eax, DWORD PTR _matPoint$[ebp]
  001cc	50		 push	 eax
  001cd	8d 85 3c ff ff
	ff		 lea	 eax, DWORD PTR $T1[ebp]
  001d3	50		 push	 eax
  001d4	e8 00 00 00 00	 call	 _D3DXMatrixMultiply@12
; File C:\DS Project\DS Files\Source\ClientSource\Client\GameLib\ActorInstanceCollisionDetection.cpp

; 154  : 				matPoint = matPoint * matCenter;

  001d9	0f 10 85 3c ff
	ff ff		 movups	 xmm0, XMMWORD PTR $T1[ebp]
  001e0	ff 85 34 ff ff
	ff		 inc	 DWORD PTR _j$1$[ebp]
  001e6	83 85 38 ff ff
	ff 1c		 add	 DWORD PTR tv638[ebp], 28 ; 0000001cH
  001ed	0f 11 85 7c ff
	ff ff		 movups	 XMMWORD PTR _matPoint$[ebp], xmm0
  001f4	0f 10 85 4c ff
	ff ff		 movups	 xmm0, XMMWORD PTR $T1[ebp+16]
  001fb	0f 11 45 8c	 movups	 XMMWORD PTR _matPoint$[ebp+16], xmm0
  001ff	0f 10 85 5c ff
	ff ff		 movups	 xmm0, XMMWORD PTR $T1[ebp+32]
  00206	0f 11 45 9c	 movups	 XMMWORD PTR _matPoint$[ebp+32], xmm0
  0020a	0f 10 85 6c ff
	ff ff		 movups	 xmm0, XMMWORD PTR $T1[ebp+48]
  00211	0f 11 45 ac	 movups	 XMMWORD PTR _matPoint$[ebp+48], xmm0

; 155  : 
; 156  : 				rSphereInstance.v3LastPosition.x = matPoint._41;

  00215	f3 0f 11 47 0c	 movss	 DWORD PTR [edi+12], xmm0

; 157  : 				rSphereInstance.v3LastPosition.y = matPoint._42;

  0021a	f3 0f 10 45 b0	 movss	 xmm0, DWORD PTR _matPoint$[ebp+52]
  0021f	f3 0f 11 47 10	 movss	 DWORD PTR [edi+16], xmm0

; 158  : 				rSphereInstance.v3LastPosition.z = matPoint._43;

  00224	f3 0f 10 45 b4	 movss	 xmm0, DWORD PTR _matPoint$[ebp+56]
  00229	f3 0f 11 47 14	 movss	 DWORD PTR [edi+20], xmm0

; 159  : 				rSphereInstance.v3Position = rSphereInstance.v3LastPosition;

  0022e	f3 0f 7e 47 0c	 movq	 xmm0, QWORD PTR [edi+12]
  00233	8b 47 14	 mov	 eax, DWORD PTR [edi+20]
  00236	66 0f d6 07	 movq	 QWORD PTR [edi], xmm0
  0023a	89 47 08	 mov	 DWORD PTR [edi+8], eax
; File C:\Program Files (x86)\Microsoft Visual Studio\2019\Community\VC\Tools\MSVC\14.27.29110\include\vector

; 1484 :         return static_cast<size_type>(_My_data._Mylast - _My_data._Myfirst);

  0023d	b8 67 66 66 66	 mov	 eax, 1717986919		; 66666667H
; File C:\DS Project\DS Files\Source\ClientSource\extern\include\d3dx8math.inl

; 204  :     x += v.x;

  00242	f3 0f 10 07	 movss	 xmm0, DWORD PTR [edi]
  00246	f3 0f 58 85 24
	ff ff ff	 addss	 xmm0, DWORD PTR _v3Movement$[ebp]
  0024e	f3 0f 11 07	 movss	 DWORD PTR [edi], xmm0

; 205  :     y += v.y;

  00252	f3 0f 10 47 04	 movss	 xmm0, DWORD PTR [edi+4]
  00257	f3 0f 58 85 28
	ff ff ff	 addss	 xmm0, DWORD PTR _v3Movement$[ebp+4]
  0025f	f3 0f 11 47 04	 movss	 DWORD PTR [edi+4], xmm0

; 206  :     z += v.z;

  00264	f3 0f 10 47 08	 movss	 xmm0, DWORD PTR [edi+8]
  00269	f3 0f 58 85 2c
	ff ff ff	 addss	 xmm0, DWORD PTR _v3Movement$[ebp+8]
  00271	f3 0f 11 47 08	 movss	 DWORD PTR [edi+8], xmm0
; File C:\Program Files (x86)\Microsoft Visual Studio\2019\Community\VC\Tools\MSVC\14.27.29110\include\vector

; 1484 :         return static_cast<size_type>(_My_data._Mylast - _My_data._Myfirst);

  00276	8b 4b 0c	 mov	 ecx, DWORD PTR [ebx+12]
  00279	2b 4b 08	 sub	 ecx, DWORD PTR [ebx+8]
; File C:\DS Project\DS Files\Source\ClientSource\Client\GameLib\ActorInstanceCollisionDetection.cpp

; 148  : 			for (DWORD j = 0; j < c_pCollisionData->SphereDataVector.size(); ++j)

  0027c	8b bd 30 ff ff
	ff		 mov	 edi, DWORD PTR tv637[ebp]
; File C:\Program Files (x86)\Microsoft Visual Studio\2019\Community\VC\Tools\MSVC\14.27.29110\include\vector

; 1484 :         return static_cast<size_type>(_My_data._Mylast - _My_data._Myfirst);

  00282	f7 e9		 imul	 ecx
; File C:\DS Project\DS Files\Source\ClientSource\Client\GameLib\ActorInstanceCollisionDetection.cpp

; 148  : 			for (DWORD j = 0; j < c_pCollisionData->SphereDataVector.size(); ++j)

  00284	83 c7 14	 add	 edi, 20			; 00000014H
; File C:\Program Files (x86)\Microsoft Visual Studio\2019\Community\VC\Tools\MSVC\14.27.29110\include\vector

; 1484 :         return static_cast<size_type>(_My_data._Mylast - _My_data._Myfirst);

  00287	c1 fa 03	 sar	 edx, 3
  0028a	8b c2		 mov	 eax, edx
; File C:\DS Project\DS Files\Source\ClientSource\Client\GameLib\ActorInstanceCollisionDetection.cpp

; 148  : 			for (DWORD j = 0; j < c_pCollisionData->SphereDataVector.size(); ++j)

  0028c	89 bd 30 ff ff
	ff		 mov	 DWORD PTR tv637[ebp], edi
; File C:\Program Files (x86)\Microsoft Visual Studio\2019\Community\VC\Tools\MSVC\14.27.29110\include\vector

; 1484 :         return static_cast<size_type>(_My_data._Mylast - _My_data._Myfirst);

  00292	c1 e8 1f	 shr	 eax, 31			; 0000001fH
  00295	03 c2		 add	 eax, edx
; File C:\DS Project\DS Files\Source\ClientSource\Client\GameLib\ActorInstanceCollisionDetection.cpp

; 148  : 			for (DWORD j = 0; j < c_pCollisionData->SphereDataVector.size(); ++j)

  00297	39 85 34 ff ff
	ff		 cmp	 DWORD PTR _j$1$[ebp], eax
  0029d	0f 82 de fe ff
	ff		 jb	 $LL7@UpdateAdva
  002a3	8b 9d 1c ff ff
	ff		 mov	 ebx, DWORD PTR _this$GSCopy$1$[ebp]
$LN2@UpdateAdva:
; File C:\Program Files (x86)\Microsoft Visual Studio\2019\Community\VC\Tools\MSVC\14.27.29110\include\list

; 166  :         this->_Ptr = this->_Ptr->_Next;

  002a9	8b 36		 mov	 esi, DWORD PTR [esi]

; 199  :         return this->_Ptr == _Right._Ptr;

  002ab	3b b3 38 03 00
	00		 cmp	 esi, DWORD PTR [ebx+824]
; File C:\DS Project\DS Files\Source\ClientSource\Client\GameLib\ActorInstanceCollisionDetection.cpp

; 109  : 	for (; itor != m_BodyPointInstanceList.end(); ++itor)

  002b1	0f 85 be fd ff
	ff		 jne	 $LL4@UpdateAdva
  002b7	5f		 pop	 edi
$LN3@UpdateAdva:

; 160  : 				rSphereInstance.v3Position += v3Movement;
; 161  : 			}
; 162  : 		}
; 163  : 	}
; 164  : }

  002b8	8b 4d fc	 mov	 ecx, DWORD PTR __$ArrayPad$[ebp]
  002bb	5e		 pop	 esi
  002bc	33 cd		 xor	 ecx, ebp
  002be	5b		 pop	 ebx
  002bf	e8 00 00 00 00	 call	 @__security_check_cookie@4
  002c4	8b e5		 mov	 esp, ebp
  002c6	5d		 pop	 ebp
  002c7	c3		 ret	 0
?UpdateAdvancingPointInstance@CActorInstance@@QAEXXZ ENDP ; CActorInstance::UpdateAdvancingPointInstance
_TEXT	ENDS
; Function compile flags: /Ogtp
; File C:\DS Project\DS Files\Source\ClientSource\Client\GameLib\ActorInstanceCollisionDetection.cpp
; File C:\Program Files (x86)\Microsoft Visual Studio\2019\Community\VC\Tools\MSVC\14.27.29110\include\list
; File C:\DS Project\DS Files\Source\ClientSource\Client\GameLib\ActorInstanceCollisionDetection.cpp
; File C:\Program Files (x86)\Microsoft Visual Studio\2019\Community\VC\Tools\MSVC\14.27.29110\include\list
; File C:\DS Project\DS Files\Source\ClientSource\Client\GameLib\ActorInstanceCollisionDetection.cpp
; File C:\Program Files (x86)\Microsoft Visual Studio\2019\Community\VC\Tools\MSVC\14.27.29110\include\vector
; File C:\DS Project\DS Files\Source\ClientSource\Client\GameLib\ActorInstanceCollisionDetection.cpp
; File C:\Program Files (x86)\Microsoft Visual Studio\2019\Community\VC\Tools\MSVC\14.27.29110\include\vector
; File C:\DS Project\DS Files\Source\ClientSource\Client\GameLib\ActorInstanceCollisionDetection.cpp
; File C:\Program Files (x86)\Microsoft Visual Studio\2019\Community\VC\Tools\MSVC\14.27.29110\include\vector
; File C:\DS Project\DS Files\Source\ClientSource\Client\GameLib\ActorInstanceCollisionDetection.cpp
; File C:\Program Files (x86)\Microsoft Visual Studio\2019\Community\VC\Tools\MSVC\14.27.29110\include\vector
; File C:\DS Project\DS Files\Source\ClientSource\Client\GameLib\ActorInstanceCollisionDetection.cpp
; File C:\Program Files (x86)\Microsoft Visual Studio\2019\Community\VC\Tools\MSVC\14.27.29110\include\vector
; File C:\DS Project\DS Files\Source\ClientSource\Client\GameLib\ActorInstanceCollisionDetection.cpp
; File C:\Program Files (x86)\Microsoft Visual Studio\2019\Community\VC\Tools\MSVC\14.27.29110\include\vector
; File C:\DS Project\DS Files\Source\ClientSource\Client\GameLib\ActorInstanceCollisionDetection.cpp
; File C:\Program Files (x86)\Microsoft Visual Studio\2019\Community\VC\Tools\MSVC\14.27.29110\include\list
; File C:\DS Project\DS Files\Source\ClientSource\Client\GameLib\ActorInstanceCollisionDetection.cpp
;	COMDAT ?TestCollisionWithDynamicSphere@CActorInstance@@UAE_NABUCDynamicSphereInstance@@@Z
_TEXT	SEGMENT
_this$1$ = -8						; size = 4
_i$1$ = -4						; size = 4
_dsi$ = 8						; size = 4
?TestCollisionWithDynamicSphere@CActorInstance@@UAE_NABUCDynamicSphereInstance@@@Z PROC ; CActorInstance::TestCollisionWithDynamicSphere, COMDAT
; _this$ = ecx

; 715  : {

  00000	55		 push	 ebp
  00001	8b ec		 mov	 ebp, esp
  00003	83 ec 08	 sub	 esp, 8
  00006	8b c1		 mov	 eax, ecx
  00008	89 45 f8	 mov	 DWORD PTR _this$1$[ebp], eax
  0000b	53		 push	 ebx
  0000c	56		 push	 esi
; File C:\Program Files (x86)\Microsoft Visual Studio\2019\Community\VC\Tools\MSVC\14.27.29110\include\list

; 1092 :         return iterator(_Mypair._Myval2._Myhead->_Next, _STD addressof(_Mypair._Myval2));

  0000d	8b 80 38 03 00
	00		 mov	 eax, DWORD PTR [eax+824]
; File C:\DS Project\DS Files\Source\ClientSource\Client\GameLib\ActorInstanceCollisionDetection.cpp

; 715  : {

  00013	57		 push	 edi
; File C:\Program Files (x86)\Microsoft Visual Studio\2019\Community\VC\Tools\MSVC\14.27.29110\include\list

; 39   :     _List_unchecked_const_iterator(_Nodeptr _Pnode, const _Mylist* _Plist) noexcept : _Ptr(_Pnode) {

  00014	8b 30		 mov	 esi, DWORD PTR [eax]
  00016	3b f0		 cmp	 esi, eax
; File C:\DS Project\DS Files\Source\ClientSource\Client\GameLib\ActorInstanceCollisionDetection.cpp

; 717  : 	for (; itorMain != m_BodyPointInstanceList.end(); ++itorMain)

  00018	74 70		 je	 SHORT $LN53@TestCollis
  0001a	66 0f 1f 44 00
	00		 npad	 6
$LL4@TestCollis:
; File C:\Program Files (x86)\Microsoft Visual Studio\2019\Community\VC\Tools\MSVC\14.27.29110\include\vector

; 1484 :         return static_cast<size_type>(_My_data._Mylast - _My_data._Myfirst);

  00020	8b 5e 18	 mov	 ebx, DWORD PTR [esi+24]
; File C:\DS Project\DS Files\Source\ClientSource\Client\GameLib\ActorInstanceCollisionDetection.cpp

; 720  : 		for (DWORD i = 0; i < c_rMainSphereVector.size(); ++i)

  00023	33 c9		 xor	 ecx, ecx
  00025	89 4d fc	 mov	 DWORD PTR _i$1$[ebp], ecx
; File C:\Program Files (x86)\Microsoft Visual Studio\2019\Community\VC\Tools\MSVC\14.27.29110\include\vector

; 1484 :         return static_cast<size_type>(_My_data._Mylast - _My_data._Myfirst);

  00028	b8 93 24 49 92	 mov	 eax, -1840700269	; 92492493H
  0002d	8b 4e 1c	 mov	 ecx, DWORD PTR [esi+28]
  00030	2b cb		 sub	 ecx, ebx
  00032	f7 e9		 imul	 ecx
  00034	03 d1		 add	 edx, ecx
  00036	c1 fa 04	 sar	 edx, 4
  00039	8b c2		 mov	 eax, edx
  0003b	c1 e8 1f	 shr	 eax, 31			; 0000001fH
  0003e	03 c2		 add	 eax, edx
; File C:\DS Project\DS Files\Source\ClientSource\Client\GameLib\ActorInstanceCollisionDetection.cpp

; 720  : 		for (DWORD i = 0; i < c_rMainSphereVector.size(); ++i)

  00040	74 3b		 je	 SHORT $LN2@TestCollis
; File C:\Program Files (x86)\Microsoft Visual Studio\2019\Community\VC\Tools\MSVC\14.27.29110\include\vector

; 1483 :         auto& _My_data = _Mypair._Myval2;

  00042	33 ff		 xor	 edi, edi
$LL7@TestCollis:
; File C:\DS Project\DS Files\Source\ClientSource\Client\GameLib\ActorInstanceCollisionDetection.cpp

; 724  : 			if (DetectCollisionDynamicSphereVSDynamicSphere(c_rMainSphere, dsi))

  00044	ff 75 08	 push	 DWORD PTR _dsi$[ebp]
; File C:\Program Files (x86)\Microsoft Visual Studio\2019\Community\VC\Tools\MSVC\14.27.29110\include\vector

; 1514 :         return _My_data._Myfirst[_Pos];

  00047	8d 04 1f	 lea	 eax, DWORD PTR [edi+ebx]
; File C:\DS Project\DS Files\Source\ClientSource\Client\GameLib\ActorInstanceCollisionDetection.cpp

; 724  : 			if (DetectCollisionDynamicSphereVSDynamicSphere(c_rMainSphere, dsi))

  0004a	50		 push	 eax
  0004b	e8 00 00 00 00	 call	 ?DetectCollisionDynamicSphereVSDynamicSphere@@YA_NABUCDynamicSphereInstance@@0@Z ; DetectCollisionDynamicSphereVSDynamicSphere
  00050	83 c4 08	 add	 esp, 8
  00053	84 c0		 test	 al, al
  00055	75 3e		 jne	 SHORT $LN44@TestCollis
; File C:\Program Files (x86)\Microsoft Visual Studio\2019\Community\VC\Tools\MSVC\14.27.29110\include\vector

; 1484 :         return static_cast<size_type>(_My_data._Mylast - _My_data._Myfirst);

  00057	8b 4e 1c	 mov	 ecx, DWORD PTR [esi+28]
  0005a	b8 93 24 49 92	 mov	 eax, -1840700269	; 92492493H
  0005f	8b 5e 18	 mov	 ebx, DWORD PTR [esi+24]
; File C:\DS Project\DS Files\Source\ClientSource\Client\GameLib\ActorInstanceCollisionDetection.cpp

; 720  : 		for (DWORD i = 0; i < c_rMainSphereVector.size(); ++i)

  00062	83 c7 1c	 add	 edi, 28			; 0000001cH
  00065	ff 45 fc	 inc	 DWORD PTR _i$1$[ebp]
; File C:\Program Files (x86)\Microsoft Visual Studio\2019\Community\VC\Tools\MSVC\14.27.29110\include\vector

; 1484 :         return static_cast<size_type>(_My_data._Mylast - _My_data._Myfirst);

  00068	2b cb		 sub	 ecx, ebx
  0006a	f7 e9		 imul	 ecx
  0006c	03 d1		 add	 edx, ecx
  0006e	c1 fa 04	 sar	 edx, 4
  00071	8b c2		 mov	 eax, edx
  00073	c1 e8 1f	 shr	 eax, 31			; 0000001fH
  00076	03 c2		 add	 eax, edx
; File C:\DS Project\DS Files\Source\ClientSource\Client\GameLib\ActorInstanceCollisionDetection.cpp

; 720  : 		for (DWORD i = 0; i < c_rMainSphereVector.size(); ++i)

  00078	39 45 fc	 cmp	 DWORD PTR _i$1$[ebp], eax
  0007b	72 c7		 jb	 SHORT $LL7@TestCollis
$LN2@TestCollis:
; File C:\Program Files (x86)\Microsoft Visual Studio\2019\Community\VC\Tools\MSVC\14.27.29110\include\list

; 199  :         return this->_Ptr == _Right._Ptr;

  0007d	8b 45 f8	 mov	 eax, DWORD PTR _this$1$[ebp]

; 166  :         this->_Ptr = this->_Ptr->_Next;

  00080	8b 36		 mov	 esi, DWORD PTR [esi]

; 199  :         return this->_Ptr == _Right._Ptr;

  00082	3b b0 38 03 00
	00		 cmp	 esi, DWORD PTR [eax+824]
; File C:\DS Project\DS Files\Source\ClientSource\Client\GameLib\ActorInstanceCollisionDetection.cpp

; 717  : 	for (; itorMain != m_BodyPointInstanceList.end(); ++itorMain)

  00088	75 96		 jne	 SHORT $LL4@TestCollis
$LN53@TestCollis:
  0008a	5f		 pop	 edi

; 725  : 			{
; 726  : 				return true;
; 727  : 			}
; 728  : 		}
; 729  : 	}
; 730  : 
; 731  : 	return false;
; 732  : }

  0008b	5e		 pop	 esi
  0008c	32 c0		 xor	 al, al
  0008e	5b		 pop	 ebx
  0008f	8b e5		 mov	 esp, ebp
  00091	5d		 pop	 ebp
  00092	c2 04 00	 ret	 4
$LN44@TestCollis:
  00095	5f		 pop	 edi
  00096	5e		 pop	 esi
  00097	b0 01		 mov	 al, 1
  00099	5b		 pop	 ebx
  0009a	8b e5		 mov	 esp, ebp
  0009c	5d		 pop	 ebp
  0009d	c2 04 00	 ret	 4
?TestCollisionWithDynamicSphere@CActorInstance@@UAE_NABUCDynamicSphereInstance@@@Z ENDP ; CActorInstance::TestCollisionWithDynamicSphere
_TEXT	ENDS
; Function compile flags: /Ogtp
; File C:\DS Project\DS Files\Source\ClientSource\Client\GameLib\ActorInstanceCollisionDetection.cpp
; File C:\Program Files (x86)\Microsoft Visual Studio\2019\Community\VC\Tools\MSVC\14.27.29110\include\list
; File C:\DS Project\DS Files\Source\ClientSource\Client\GameLib\ActorInstanceCollisionDetection.cpp
; File C:\Program Files (x86)\Microsoft Visual Studio\2019\Community\VC\Tools\MSVC\14.27.29110\include\vector
; File C:\DS Project\DS Files\Source\ClientSource\Client\GameLib\ActorInstanceCollisionDetection.cpp
; File C:\Program Files (x86)\Microsoft Visual Studio\2019\Community\VC\Tools\MSVC\14.27.29110\include\vector
; File C:\DS Project\DS Files\Source\ClientSource\Client\GameLib\ActorInstanceCollisionDetection.cpp
; File C:\Program Files (x86)\Microsoft Visual Studio\2019\Community\VC\Tools\MSVC\14.27.29110\include\vector
; File C:\DS Project\DS Files\Source\ClientSource\Client\GameLib\ActorInstanceCollisionDetection.cpp
; File C:\Program Files (x86)\Microsoft Visual Studio\2019\Community\VC\Tools\MSVC\14.27.29110\include\vector
; File C:\DS Project\DS Files\Source\ClientSource\Client\GameLib\ActorInstanceCollisionDetection.cpp
; File C:\Program Files (x86)\Microsoft Visual Studio\2019\Community\VC\Tools\MSVC\14.27.29110\include\vector
; File C:\DS Project\DS Files\Source\ClientSource\Client\GameLib\ActorInstanceCollisionDetection.cpp
; File C:\Program Files (x86)\Microsoft Visual Studio\2019\Community\VC\Tools\MSVC\14.27.29110\include\vector
; File C:\DS Project\DS Files\Source\ClientSource\Client\GameLib\ActorInstanceCollisionDetection.cpp
; File C:\Program Files (x86)\Microsoft Visual Studio\2019\Community\VC\Tools\MSVC\14.27.29110\include\vector
; File C:\DS Project\DS Files\Source\ClientSource\Client\GameLib\ActorInstanceCollisionDetection.cpp
; File C:\Program Files (x86)\Microsoft Visual Studio\2019\Community\VC\Tools\MSVC\14.27.29110\include\vector
; File C:\DS Project\DS Files\Source\ClientSource\Client\GameLib\ActorInstanceCollisionDetection.cpp
; File C:\Program Files (x86)\Microsoft Visual Studio\2019\Community\VC\Tools\MSVC\14.27.29110\include\vector
; File C:\DS Project\DS Files\Source\ClientSource\Client\GameLib\ActorInstanceCollisionDetection.cpp
; File C:\Program Files (x86)\Microsoft Visual Studio\2019\Community\VC\Tools\MSVC\14.27.29110\include\vector
; File C:\DS Project\DS Files\Source\ClientSource\Client\GameLib\ActorInstanceCollisionDetection.cpp
; File C:\Program Files (x86)\Microsoft Visual Studio\2019\Community\VC\Tools\MSVC\14.27.29110\include\list
; File C:\DS Project\DS Files\Source\ClientSource\Client\GameLib\ActorInstanceCollisionDetection.cpp
; File C:\DS Project\DS Files\Source\ClientSource\extern\include\d3dx8math.inl
; File C:\DS Project\DS Files\Source\ClientSource\Client\GameLib\ActorInstanceCollisionDetection.cpp
; File C:\DS Project\DS Files\Source\ClientSource\extern\include\d3dx8math.inl
; File C:\DS Project\DS Files\Source\ClientSource\Client\GameLib\ActorInstanceCollisionDetection.cpp
; File C:\DS Project\DS Files\Source\ClientSource\extern\include\d3dx8math.inl
; File C:\DS Project\DS Files\Source\ClientSource\Client\GameLib\ActorInstanceCollisionDetection.cpp
; File C:\Program Files (x86)\Microsoft Visual Studio\2019\Community\VC\Tools\MSVC\14.27.29110\include\vector
; File C:\DS Project\DS Files\Source\ClientSource\Client\GameLib\ActorInstanceCollisionDetection.cpp
;	COMDAT ?CheckCollisionDetection@CActorInstance@@QAE_NPBV?$vector@UCDynamicSphereInstance@@V?$allocator@UCDynamicSphereInstance@@@std@@@std@@PAUD3DXVECTOR3@@@Z
_TEXT	SEGMENT
_c_rAttackingSphere$1$ = -24				; size = 4
_this$1$ = -20						; size = 4
tv708 = -16						; size = 4
_i$1$ = -12						; size = 4
tv712 = -8						; size = 4
_j$1$ = -4						; size = 4
_c_pAttackingSphereVector$ = 8				; size = 4
_pv3Position$ = 12					; size = 4
?CheckCollisionDetection@CActorInstance@@QAE_NPBV?$vector@UCDynamicSphereInstance@@V?$allocator@UCDynamicSphereInstance@@@std@@@std@@PAUD3DXVECTOR3@@@Z PROC ; CActorInstance::CheckCollisionDetection, COMDAT
; _this$ = ecx

; 167  : {

  00000	55		 push	 ebp
  00001	8b ec		 mov	 ebp, esp
  00003	83 ec 18	 sub	 esp, 24			; 00000018H
  00006	53		 push	 ebx

; 168  : 	if (!c_pAttackingSphereVector)

  00007	8b 5d 08	 mov	 ebx, DWORD PTR _c_pAttackingSphereVector$[ebp]
  0000a	8b c1		 mov	 eax, ecx
  0000c	89 45 ec	 mov	 DWORD PTR _this$1$[ebp], eax
  0000f	56		 push	 esi
  00010	57		 push	 edi
  00011	85 db		 test	 ebx, ebx
  00013	0f 84 48 01 00
	00		 je	 $LN87@CheckColli
; File C:\Program Files (x86)\Microsoft Visual Studio\2019\Community\VC\Tools\MSVC\14.27.29110\include\list

; 1092 :         return iterator(_Mypair._Myval2._Myhead->_Next, _STD addressof(_Mypair._Myval2));

  00019	8b 80 40 03 00
	00		 mov	 eax, DWORD PTR [eax+832]

; 39   :     _List_unchecked_const_iterator(_Nodeptr _Pnode, const _Mylist* _Plist) noexcept : _Ptr(_Pnode) {

  0001f	8b 30		 mov	 esi, DWORD PTR [eax]
  00021	3b f0		 cmp	 esi, eax
; File C:\DS Project\DS Files\Source\ClientSource\Client\GameLib\ActorInstanceCollisionDetection.cpp

; 175  : 	for (itor = m_DefendingPointInstanceList.begin(); itor != m_DefendingPointInstanceList.end(); ++itor)

  00023	0f 84 38 01 00
	00		 je	 $LN87@CheckColli
  00029	0f 1f 80 00 00
	00 00		 npad	 7
$LL4@CheckColli:
; File C:\Program Files (x86)\Microsoft Visual Studio\2019\Community\VC\Tools\MSVC\14.27.29110\include\vector

; 1484 :         return static_cast<size_type>(_My_data._Mylast - _My_data._Myfirst);

  00030	8b 4b 04	 mov	 ecx, DWORD PTR [ebx+4]
  00033	b8 93 24 49 92	 mov	 eax, -1840700269	; 92492493H
  00038	2b 0b		 sub	 ecx, DWORD PTR [ebx]
  0003a	f7 e9		 imul	 ecx
; File C:\DS Project\DS Files\Source\ClientSource\Client\GameLib\ActorInstanceCollisionDetection.cpp

; 179  : 		for (DWORD i = 0; i < c_pAttackingSphereVector->size(); ++i)

  0003c	c7 45 f4 00 00
	00 00		 mov	 DWORD PTR _i$1$[ebp], 0
; File C:\Program Files (x86)\Microsoft Visual Studio\2019\Community\VC\Tools\MSVC\14.27.29110\include\vector

; 1484 :         return static_cast<size_type>(_My_data._Mylast - _My_data._Myfirst);

  00043	03 d1		 add	 edx, ecx
  00045	c1 fa 04	 sar	 edx, 4
  00048	8b c2		 mov	 eax, edx
  0004a	c1 e8 1f	 shr	 eax, 31			; 0000001fH
  0004d	03 c2		 add	 eax, edx
; File C:\DS Project\DS Files\Source\ClientSource\Client\GameLib\ActorInstanceCollisionDetection.cpp

; 179  : 		for (DWORD i = 0; i < c_pAttackingSphereVector->size(); ++i)

  0004f	0f 84 fb 00 00
	00		 je	 $LN2@CheckColli
  00055	c7 45 f0 00 00
	00 00		 mov	 DWORD PTR tv708[ebp], 0
  0005c	0f 1f 40 00	 npad	 4
$LL7@CheckColli:
; File C:\Program Files (x86)\Microsoft Visual Studio\2019\Community\VC\Tools\MSVC\14.27.29110\include\vector

; 1484 :         return static_cast<size_type>(_My_data._Mylast - _My_data._Myfirst);

  00060	8b 7e 1c	 mov	 edi, DWORD PTR [esi+28]
  00063	b8 93 24 49 92	 mov	 eax, -1840700269	; 92492493H
  00068	8b 5e 18	 mov	 ebx, DWORD PTR [esi+24]
  0006b	8b cf		 mov	 ecx, edi
  0006d	2b cb		 sub	 ecx, ebx
; File C:\DS Project\DS Files\Source\ClientSource\Client\GameLib\ActorInstanceCollisionDetection.cpp

; 180  : 		for (DWORD j = 0; j < c_pDefendingSphereVector->size(); ++j)

  0006f	c7 45 fc 00 00
	00 00		 mov	 DWORD PTR _j$1$[ebp], 0
; File C:\Program Files (x86)\Microsoft Visual Studio\2019\Community\VC\Tools\MSVC\14.27.29110\include\vector

; 1484 :         return static_cast<size_type>(_My_data._Mylast - _My_data._Myfirst);

  00076	f7 e9		 imul	 ecx
  00078	03 d1		 add	 edx, ecx
  0007a	c1 fa 04	 sar	 edx, 4
  0007d	8b c2		 mov	 eax, edx
  0007f	c1 e8 1f	 shr	 eax, 31			; 0000001fH
  00082	03 c2		 add	 eax, edx
; File C:\DS Project\DS Files\Source\ClientSource\Client\GameLib\ActorInstanceCollisionDetection.cpp

; 180  : 		for (DWORD j = 0; j < c_pDefendingSphereVector->size(); ++j)

  00084	0f 84 98 00 00
	00		 je	 $LN5@CheckColli
  0008a	c7 45 f8 00 00
	00 00		 mov	 DWORD PTR tv712[ebp], 0
$LL10@CheckColli:
; File C:\Program Files (x86)\Microsoft Visual Studio\2019\Community\VC\Tools\MSVC\14.27.29110\include\vector

; 1528 :         if (static_cast<size_type>(_My_data._Mylast - _My_data._Myfirst) <= _Pos) {

  00091	8b 4d 08	 mov	 ecx, DWORD PTR _c_pAttackingSphereVector$[ebp]
  00094	8b 01		 mov	 eax, DWORD PTR [ecx]
  00096	8b 49 04	 mov	 ecx, DWORD PTR [ecx+4]
  00099	2b c8		 sub	 ecx, eax
  0009b	b8 93 24 49 92	 mov	 eax, -1840700269	; 92492493H
  000a0	f7 e9		 imul	 ecx
  000a2	03 d1		 add	 edx, ecx
  000a4	c1 fa 04	 sar	 edx, 4
  000a7	8b c2		 mov	 eax, edx
  000a9	c1 e8 1f	 shr	 eax, 31			; 0000001fH
  000ac	03 c2		 add	 eax, edx
  000ae	3b 45 f4	 cmp	 eax, DWORD PTR _i$1$[ebp]
  000b1	0f 86 04 01 00
	00		 jbe	 $LN71@CheckColli

; 1530 :         }
; 1531 : 
; 1532 :         return _My_data._Myfirst[_Pos];

  000b7	8b 4d 08	 mov	 ecx, DWORD PTR _c_pAttackingSphereVector$[ebp]

; 1528 :         if (static_cast<size_type>(_My_data._Mylast - _My_data._Myfirst) <= _Pos) {

  000ba	2b fb		 sub	 edi, ebx

; 1532 :         return _My_data._Myfirst[_Pos];

  000bc	8b 01		 mov	 eax, DWORD PTR [ecx]
  000be	8b 4d f0	 mov	 ecx, DWORD PTR tv708[ebp]
  000c1	03 c8		 add	 ecx, eax

; 1528 :         if (static_cast<size_type>(_My_data._Mylast - _My_data._Myfirst) <= _Pos) {

  000c3	b8 93 24 49 92	 mov	 eax, -1840700269	; 92492493H
  000c8	f7 ef		 imul	 edi

; 1532 :         return _My_data._Myfirst[_Pos];

  000ca	89 4d e8	 mov	 DWORD PTR _c_rAttackingSphere$1$[ebp], ecx

; 1528 :         if (static_cast<size_type>(_My_data._Mylast - _My_data._Myfirst) <= _Pos) {

  000cd	03 d7		 add	 edx, edi
  000cf	c1 fa 04	 sar	 edx, 4
  000d2	8b c2		 mov	 eax, edx
  000d4	c1 e8 1f	 shr	 eax, 31			; 0000001fH
  000d7	03 c2		 add	 eax, edx
  000d9	3b 45 fc	 cmp	 eax, DWORD PTR _j$1$[ebp]
  000dc	0f 86 d9 00 00
	00		 jbe	 $LN71@CheckColli

; 1530 :         }
; 1531 : 
; 1532 :         return _My_data._Myfirst[_Pos];

  000e2	8b 7d f8	 mov	 edi, DWORD PTR tv712[ebp]
  000e5	03 fb		 add	 edi, ebx
; File C:\DS Project\DS Files\Source\ClientSource\Client\GameLib\ActorInstanceCollisionDetection.cpp

; 185  : 			if (DetectCollisionDynamicSphereVSDynamicSphere(c_rAttackingSphere, c_rDefendingSphere))

  000e7	57		 push	 edi
  000e8	51		 push	 ecx
  000e9	e8 00 00 00 00	 call	 ?DetectCollisionDynamicSphereVSDynamicSphere@@YA_NABUCDynamicSphereInstance@@0@Z ; DetectCollisionDynamicSphereVSDynamicSphere
  000ee	83 c4 08	 add	 esp, 8
  000f1	84 c0		 test	 al, al
  000f3	75 77		 jne	 SHORT $LN72@CheckColli
; File C:\Program Files (x86)\Microsoft Visual Studio\2019\Community\VC\Tools\MSVC\14.27.29110\include\vector

; 1484 :         return static_cast<size_type>(_My_data._Mylast - _My_data._Myfirst);

  000f5	8b 7e 1c	 mov	 edi, DWORD PTR [esi+28]
  000f8	b8 93 24 49 92	 mov	 eax, -1840700269	; 92492493H
  000fd	8b 5e 18	 mov	 ebx, DWORD PTR [esi+24]
  00100	8b cf		 mov	 ecx, edi
; File C:\DS Project\DS Files\Source\ClientSource\Client\GameLib\ActorInstanceCollisionDetection.cpp

; 180  : 		for (DWORD j = 0; j < c_pDefendingSphereVector->size(); ++j)

  00102	ff 45 fc	 inc	 DWORD PTR _j$1$[ebp]
; File C:\Program Files (x86)\Microsoft Visual Studio\2019\Community\VC\Tools\MSVC\14.27.29110\include\vector

; 1484 :         return static_cast<size_type>(_My_data._Mylast - _My_data._Myfirst);

  00105	2b cb		 sub	 ecx, ebx
; File C:\DS Project\DS Files\Source\ClientSource\Client\GameLib\ActorInstanceCollisionDetection.cpp

; 180  : 		for (DWORD j = 0; j < c_pDefendingSphereVector->size(); ++j)

  00107	83 45 f8 1c	 add	 DWORD PTR tv712[ebp], 28 ; 0000001cH
; File C:\Program Files (x86)\Microsoft Visual Studio\2019\Community\VC\Tools\MSVC\14.27.29110\include\vector

; 1484 :         return static_cast<size_type>(_My_data._Mylast - _My_data._Myfirst);

  0010b	f7 e9		 imul	 ecx
  0010d	03 d1		 add	 edx, ecx
  0010f	c1 fa 04	 sar	 edx, 4
  00112	8b c2		 mov	 eax, edx
  00114	c1 e8 1f	 shr	 eax, 31			; 0000001fH
  00117	03 c2		 add	 eax, edx
; File C:\DS Project\DS Files\Source\ClientSource\Client\GameLib\ActorInstanceCollisionDetection.cpp

; 180  : 		for (DWORD j = 0; j < c_pDefendingSphereVector->size(); ++j)

  00119	39 45 fc	 cmp	 DWORD PTR _j$1$[ebp], eax
  0011c	0f 82 6f ff ff
	ff		 jb	 $LL10@CheckColli
$LN5@CheckColli:
; File C:\Program Files (x86)\Microsoft Visual Studio\2019\Community\VC\Tools\MSVC\14.27.29110\include\vector

; 1484 :         return static_cast<size_type>(_My_data._Mylast - _My_data._Myfirst);

  00122	8b 5d 08	 mov	 ebx, DWORD PTR _c_pAttackingSphereVector$[ebp]
  00125	b8 93 24 49 92	 mov	 eax, -1840700269	; 92492493H
; File C:\DS Project\DS Files\Source\ClientSource\Client\GameLib\ActorInstanceCollisionDetection.cpp

; 179  : 		for (DWORD i = 0; i < c_pAttackingSphereVector->size(); ++i)

  0012a	8b 7d f4	 mov	 edi, DWORD PTR _i$1$[ebp]
  0012d	83 45 f0 1c	 add	 DWORD PTR tv708[ebp], 28 ; 0000001cH
  00131	47		 inc	 edi
  00132	89 7d f4	 mov	 DWORD PTR _i$1$[ebp], edi
; File C:\Program Files (x86)\Microsoft Visual Studio\2019\Community\VC\Tools\MSVC\14.27.29110\include\vector

; 1484 :         return static_cast<size_type>(_My_data._Mylast - _My_data._Myfirst);

  00135	8b 4b 04	 mov	 ecx, DWORD PTR [ebx+4]
  00138	2b 0b		 sub	 ecx, DWORD PTR [ebx]
  0013a	f7 e9		 imul	 ecx
  0013c	03 d1		 add	 edx, ecx
  0013e	c1 fa 04	 sar	 edx, 4
  00141	8b c2		 mov	 eax, edx
  00143	c1 e8 1f	 shr	 eax, 31			; 0000001fH
  00146	03 c2		 add	 eax, edx
; File C:\DS Project\DS Files\Source\ClientSource\Client\GameLib\ActorInstanceCollisionDetection.cpp

; 179  : 		for (DWORD i = 0; i < c_pAttackingSphereVector->size(); ++i)

  00148	3b f8		 cmp	 edi, eax
  0014a	0f 82 10 ff ff
	ff		 jb	 $LL7@CheckColli
$LN2@CheckColli:
; File C:\Program Files (x86)\Microsoft Visual Studio\2019\Community\VC\Tools\MSVC\14.27.29110\include\list

; 199  :         return this->_Ptr == _Right._Ptr;

  00150	8b 45 ec	 mov	 eax, DWORD PTR _this$1$[ebp]

; 166  :         this->_Ptr = this->_Ptr->_Next;

  00153	8b 36		 mov	 esi, DWORD PTR [esi]

; 199  :         return this->_Ptr == _Right._Ptr;

  00155	3b b0 40 03 00
	00		 cmp	 esi, DWORD PTR [eax+832]
; File C:\DS Project\DS Files\Source\ClientSource\Client\GameLib\ActorInstanceCollisionDetection.cpp

; 175  : 	for (itor = m_DefendingPointInstanceList.begin(); itor != m_DefendingPointInstanceList.end(); ++itor)

  0015b	0f 85 cf fe ff
	ff		 jne	 $LL4@CheckColli
$LN87@CheckColli:
  00161	5f		 pop	 edi

; 194  : }

  00162	5e		 pop	 esi
  00163	32 c0		 xor	 al, al
  00165	5b		 pop	 ebx
  00166	8b e5		 mov	 esp, ebp
  00168	5d		 pop	 ebp
  00169	c2 08 00	 ret	 8
$LN72@CheckColli:
; File C:\DS Project\DS Files\Source\ClientSource\extern\include\d3dx8math.inl

; 257  :     return D3DXVECTOR3(x + v.x, y + v.y, z + v.z);

  0016c	8b 45 e8	 mov	 eax, DWORD PTR _c_rAttackingSphere$1$[ebp]
  0016f	f3 0f 10 07	 movss	 xmm0, DWORD PTR [edi]
  00173	f3 0f 10 5f 04	 movss	 xmm3, DWORD PTR [edi+4]
  00178	f3 0f 10 57 08	 movss	 xmm2, DWORD PTR [edi+8]
  0017d	f3 0f 58 00	 addss	 xmm0, DWORD PTR [eax]
  00181	f3 0f 58 58 04	 addss	 xmm3, DWORD PTR [eax+4]
  00186	f3 0f 58 50 08	 addss	 xmm2, DWORD PTR [eax+8]

; 180  :     x = fx;

  0018b	f3 0f 10 0d 00
	00 00 00	 movss	 xmm1, DWORD PTR __real@3f000000
; File C:\DS Project\DS Files\Source\ClientSource\Client\GameLib\ActorInstanceCollisionDetection.cpp

; 187  : 				*pv3Position = (c_rAttackingSphere.v3Position + c_rDefendingSphere.v3Position) / 2.0f;

  00193	8b 45 0c	 mov	 eax, DWORD PTR _pv3Position$[ebp]
; File C:\DS Project\DS Files\Source\ClientSource\extern\include\d3dx8math.inl

; 275  :     FLOAT fInv = 1.0f / f;

  00196	f3 0f 59 c1	 mulss	 xmm0, xmm1
  0019a	5f		 pop	 edi

; 180  :     x = fx;

  0019b	f3 0f 59 d9	 mulss	 xmm3, xmm1
; File C:\DS Project\DS Files\Source\ClientSource\Client\GameLib\ActorInstanceCollisionDetection.cpp

; 194  : }

  0019f	5e		 pop	 esi
; File C:\DS Project\DS Files\Source\ClientSource\extern\include\d3dx8math.inl

; 181  :     y = fy;

  001a0	f3 0f 59 d1	 mulss	 xmm2, xmm1
; File C:\DS Project\DS Files\Source\ClientSource\Client\GameLib\ActorInstanceCollisionDetection.cpp

; 194  : }

  001a4	5b		 pop	 ebx
  001a5	f3 0f 11 00	 movss	 DWORD PTR [eax], xmm0
  001a9	f3 0f 11 58 04	 movss	 DWORD PTR [eax+4], xmm3
  001ae	f3 0f 11 50 08	 movss	 DWORD PTR [eax+8], xmm2
  001b3	b0 01		 mov	 al, 1
  001b5	8b e5		 mov	 esp, ebp
  001b7	5d		 pop	 ebp
  001b8	c2 08 00	 ret	 8
$LN71@CheckColli:
; File C:\Program Files (x86)\Microsoft Visual Studio\2019\Community\VC\Tools\MSVC\14.27.29110\include\vector

; 1529 :             _Xrange();

  001bb	e8 00 00 00 00	 call	 ?_Xrange@?$vector@UCDynamicSphereInstance@@V?$allocator@UCDynamicSphereInstance@@@std@@@std@@CAXXZ ; std::vector<CDynamicSphereInstance,std::allocator<CDynamicSphereInstance> >::_Xrange
$LN88@CheckColli:
  001c0	cc		 int	 3
?CheckCollisionDetection@CActorInstance@@QAE_NPBV?$vector@UCDynamicSphereInstance@@V?$allocator@UCDynamicSphereInstance@@@std@@@std@@PAUD3DXVECTOR3@@@Z ENDP ; CActorInstance::CheckCollisionDetection
_TEXT	ENDS
; Function compile flags: /Ogtp
; File C:\DS Project\DS Files\Source\ClientSource\Client\GameLib\ActorInstanceCollisionDetection.cpp
; File C:\Program Files (x86)\Microsoft Visual Studio\2019\Community\VC\Tools\MSVC\14.27.29110\include\vector
; File C:\DS Project\DS Files\Source\ClientSource\Client\GameLib\ActorInstanceCollisionDetection.cpp
; File C:\Program Files (x86)\Microsoft Visual Studio\2019\Community\VC\Tools\MSVC\14.27.29110\include\vector
; File C:\DS Project\DS Files\Source\ClientSource\Client\GameLib\ActorInstanceCollisionDetection.cpp
; File C:\DS Project\DS Files\Source\ClientSource\extern\include\d3dx8math.inl
; File C:\DS Project\DS Files\Source\ClientSource\Client\GameLib\ActorInstanceCollisionDetection.cpp
; File C:\DS Project\DS Files\Source\ClientSource\extern\include\d3dx8math.inl
; File C:\DS Project\DS Files\Source\ClientSource\Client\GameLib\ActorInstanceCollisionDetection.cpp
; File C:\DS Project\DS Files\Source\ClientSource\extern\include\d3dx8math.inl
; File C:\DS Project\DS Files\Source\ClientSource\Client\GameLib\ActorInstanceCollisionDetection.cpp
; File C:\DS Project\DS Files\Source\ClientSource\extern\include\d3dx8math.inl
; File C:\DS Project\DS Files\Source\ClientSource\Client\GameLib\ActorInstanceCollisionDetection.cpp
; File C:\Program Files (x86)\Microsoft Visual Studio\2019\Community\VC\Tools\MSVC\14.27.29110\include\vector
; File C:\DS Project\DS Files\Source\ClientSource\Client\GameLib\ActorInstanceCollisionDetection.cpp
; File C:\DS Project\DS Files\Source\ClientSource\extern\include\d3dx8math.inl
; File C:\DS Project\DS Files\Source\ClientSource\Client\GameLib\ActorInstanceCollisionDetection.cpp
; File C:\Program Files (x86)\Microsoft Visual Studio\2019\Community\VC\Tools\MSVC\14.27.29110\include\vector
; File C:\DS Project\DS Files\Source\ClientSource\Client\GameLib\ActorInstanceCollisionDetection.cpp
; File C:\Program Files (x86)\Microsoft Visual Studio\2019\Community\VC\Tools\MSVC\14.27.29110\include\vector
; File C:\DS Project\DS Files\Source\ClientSource\Client\GameLib\ActorInstanceCollisionDetection.cpp
; File C:\Program Files (x86)\Microsoft Visual Studio\2019\Community\VC\Tools\MSVC\14.27.29110\include\vector
; File C:\DS Project\DS Files\Source\ClientSource\Client\GameLib\ActorInstanceCollisionDetection.cpp
;	COMDAT ?UpdatePointInstance@CActorInstance@@QAEXPAUSCollisionPointInstance@1@@Z
_TEXT	SEGMENT
_pModelInstance$1$ = -200				; size = 4
$T1 = -196						; size = 64
_matPoint$2 = -132					; size = 64
_matBone$ = -68						; size = 64
__$ArrayPad$ = -4					; size = 4
_pPointInstance$ = 8					; size = 4
?UpdatePointInstance@CActorInstance@@QAEXPAUSCollisionPointInstance@1@@Z PROC ; CActorInstance::UpdatePointInstance, COMDAT
; _this$ = ecx

; 34   : {

  00000	55		 push	 ebp
  00001	8b ec		 mov	 ebp, esp
  00003	81 ec c8 00 00
	00		 sub	 esp, 200		; 000000c8H
  00009	a1 00 00 00 00	 mov	 eax, DWORD PTR ___security_cookie
  0000e	33 c5		 xor	 eax, ebp
  00010	89 45 fc	 mov	 DWORD PTR __$ArrayPad$[ebp], eax
  00013	53		 push	 ebx
  00014	8b 5d 08	 mov	 ebx, DWORD PTR _pPointInstance$[ebp]
  00017	57		 push	 edi
  00018	8b f9		 mov	 edi, ecx

; 35   : 	if (!pPointInstance)

  0001a	85 db		 test	 ebx, ebx
  0001c	0f 84 a5 01 00
	00		 je	 $LN3@UpdatePoin

; 36   : 	{
; 37   : 		assert(!"CActorInstance::UpdatePointInstance - pPointInstance is NULL");
; 38   : 		return;
; 39   : 	}
; 40   : 
; 41   : 	D3DXMATRIX matBone;
; 42   : 
; 43   : 	if (pPointInstance->isAttached)

  00022	83 7b 04 00	 cmp	 DWORD PTR [ebx+4], 0
  00026	56		 push	 esi
  00027	0f 84 a1 00 00
	00		 je	 $LN6@UpdatePoin
; File C:\Program Files (x86)\Microsoft Visual Studio\2019\Community\VC\Tools\MSVC\14.27.29110\include\vector

; 1484 :         return static_cast<size_type>(_My_data._Mylast - _My_data._Myfirst);

  0002d	8b 87 8c 02 00
	00		 mov	 eax, DWORD PTR [edi+652]
  00033	8b 8f 88 02 00
	00		 mov	 ecx, DWORD PTR [edi+648]
  00039	2b c1		 sub	 eax, ecx
; File C:\DS Project\DS Files\Source\ClientSource\Client\GameLib\ActorInstanceCollisionDetection.cpp

; 45   : 		if (pPointInstance->dwModelIndex>=m_LODControllerVector.size())

  0003b	8b 53 08	 mov	 edx, DWORD PTR [ebx+8]
; File C:\Program Files (x86)\Microsoft Visual Studio\2019\Community\VC\Tools\MSVC\14.27.29110\include\vector

; 1484 :         return static_cast<size_type>(_My_data._Mylast - _My_data._Myfirst);

  0003e	c1 f8 02	 sar	 eax, 2
; File C:\DS Project\DS Files\Source\ClientSource\Client\GameLib\ActorInstanceCollisionDetection.cpp

; 45   : 		if (pPointInstance->dwModelIndex>=m_LODControllerVector.size())

  00041	3b d0		 cmp	 edx, eax
  00043	0f 83 7d 01 00
	00		 jae	 $LN58@UpdatePoin

; 46   : 		{
; 47   : 			//Tracenf("CActorInstance::UpdatePointInstance - rInstance.dwModelIndex=%d >= m_LODControllerVector.size()=%d",
; 48   : 			//		pPointInstance->dwModelIndex>m_LODControllerVector.size());
; 49   : 			return;
; 50   : 		}
; 51   : 
; 52   : 		CGrannyLODController* pGrnLODController=m_LODControllerVector[pPointInstance->dwModelIndex];

  00049	8b 0c 91	 mov	 ecx, DWORD PTR [ecx+edx*4]

; 53   : 		if (!pGrnLODController)

  0004c	85 c9		 test	 ecx, ecx
  0004e	0f 84 72 01 00
	00		 je	 $LN58@UpdatePoin

; 54   : 		{
; 55   : 			//Tracenf("CActorInstance::UpdatePointInstance - m_LODControllerVector[pPointInstance->dwModelIndex=%d] is NULL", pPointInstance->dwModelIndex);
; 56   : 			return;
; 57   : 		}
; 58   : 
; 59   : 		CGrannyModelInstance * pModelInstance = pGrnLODController->GetModelInstance();

  00054	e8 00 00 00 00	 call	 ?GetModelInstance@CGrannyLODController@@QAEPAVCGrannyModelInstance@@XZ ; CGrannyLODController::GetModelInstance
  00059	89 85 38 ff ff
	ff		 mov	 DWORD PTR _pModelInstance$1$[ebp], eax

; 60   : 		if (!pModelInstance)

  0005f	85 c0		 test	 eax, eax
  00061	0f 84 5f 01 00
	00		 je	 $LN58@UpdatePoin

; 61   : 		{
; 62   : 			//Tracenf("CActorInstance::UpdatePointInstance - pGrnLODController->GetModelInstance() is NULL");
; 63   : 			return;
; 64   : 		}
; 65   : 
; 66   : 		D3DXMATRIX * pmatBone = (D3DXMATRIX *)pModelInstance->GetBoneMatrixPointer(pPointInstance->dwBoneIndex);

  00067	ff 73 0c	 push	 DWORD PTR [ebx+12]
  0006a	8b c8		 mov	 ecx, eax
  0006c	e8 00 00 00 00	 call	 ?GetBoneMatrixPointer@CGrannyModelInstance@@QBEPBMH@Z ; CGrannyModelInstance::GetBoneMatrixPointer

; 67   : 		matBone = *(D3DXMATRIX *)pModelInstance->GetCompositeBoneMatrixPointer(pPointInstance->dwBoneIndex);

  00071	ff 73 0c	 push	 DWORD PTR [ebx+12]
  00074	8b 8d 38 ff ff
	ff		 mov	 ecx, DWORD PTR _pModelInstance$1$[ebp]
  0007a	8b f0		 mov	 esi, eax
  0007c	e8 00 00 00 00	 call	 ?GetCompositeBoneMatrixPointer@CGrannyModelInstance@@QBEPBMH@Z ; CGrannyModelInstance::GetCompositeBoneMatrixPointer
  00081	0f 10 00	 movups	 xmm0, XMMWORD PTR [eax]
  00084	0f 11 45 bc	 movups	 XMMWORD PTR _matBone$[ebp], xmm0
  00088	0f 10 40 10	 movups	 xmm0, XMMWORD PTR [eax+16]
  0008c	0f 11 45 cc	 movups	 XMMWORD PTR _matBone$[ebp+16], xmm0
  00090	0f 10 40 20	 movups	 xmm0, XMMWORD PTR [eax+32]
  00094	0f 11 45 dc	 movups	 XMMWORD PTR _matBone$[ebp+32], xmm0
  00098	0f 10 40 30	 movups	 xmm0, XMMWORD PTR [eax+48]

; 71   : 		matBone *= m_worldMatrix;

  0009c	8d 47 6c	 lea	 eax, DWORD PTR [edi+108]
; File C:\DS Project\DS Files\Source\ClientSource\extern\include\d3dx8math.inl

; 512  :     D3DXMatrixMultiply(this, this, &mat);

  0009f	50		 push	 eax
; File C:\DS Project\DS Files\Source\ClientSource\Client\GameLib\ActorInstanceCollisionDetection.cpp

; 67   : 		matBone = *(D3DXMATRIX *)pModelInstance->GetCompositeBoneMatrixPointer(pPointInstance->dwBoneIndex);

  000a0	0f 11 45 ec	 movups	 XMMWORD PTR _matBone$[ebp+48], xmm0
; File C:\DS Project\DS Files\Source\ClientSource\extern\include\d3dx8math.inl

; 512  :     D3DXMatrixMultiply(this, this, &mat);

  000a4	8d 45 bc	 lea	 eax, DWORD PTR _matBone$[ebp]
; File C:\DS Project\DS Files\Source\ClientSource\Client\GameLib\ActorInstanceCollisionDetection.cpp

; 68   : 		matBone._41 = pmatBone->_41;

  000a7	f3 0f 10 46 30	 movss	 xmm0, DWORD PTR [esi+48]
  000ac	f3 0f 11 45 ec	 movss	 DWORD PTR _matBone$[ebp+48], xmm0

; 69   : 		matBone._42 = pmatBone->_42;

  000b1	f3 0f 10 46 34	 movss	 xmm0, DWORD PTR [esi+52]
  000b6	f3 0f 11 45 f0	 movss	 DWORD PTR _matBone$[ebp+52], xmm0

; 70   : 		matBone._43 = pmatBone->_43;

  000bb	f3 0f 10 46 38	 movss	 xmm0, DWORD PTR [esi+56]
; File C:\DS Project\DS Files\Source\ClientSource\extern\include\d3dx8math.inl

; 512  :     D3DXMatrixMultiply(this, this, &mat);

  000c0	50		 push	 eax
  000c1	50		 push	 eax
; File C:\DS Project\DS Files\Source\ClientSource\Client\GameLib\ActorInstanceCollisionDetection.cpp

; 70   : 		matBone._43 = pmatBone->_43;

  000c2	f3 0f 11 45 f4	 movss	 DWORD PTR _matBone$[ebp+56], xmm0
; File C:\DS Project\DS Files\Source\ClientSource\extern\include\d3dx8math.inl

; 512  :     D3DXMatrixMultiply(this, this, &mat);

  000c7	e8 00 00 00 00	 call	 _D3DXMatrixMultiply@12
; File C:\DS Project\DS Files\Source\ClientSource\Client\GameLib\ActorInstanceCollisionDetection.cpp

; 72   : 	}

  000cc	eb 26		 jmp	 SHORT $LN7@UpdatePoin
$LN6@UpdatePoin:

; 73   : 	else
; 74   : 	{
; 75   : 		matBone = m_worldMatrix;

  000ce	0f 10 47 6c	 movups	 xmm0, XMMWORD PTR [edi+108]
  000d2	0f 11 45 bc	 movups	 XMMWORD PTR _matBone$[ebp], xmm0
  000d6	0f 10 47 7c	 movups	 xmm0, XMMWORD PTR [edi+124]
  000da	0f 11 45 cc	 movups	 XMMWORD PTR _matBone$[ebp+16], xmm0
  000de	0f 10 87 8c 00
	00 00		 movups	 xmm0, XMMWORD PTR [edi+140]
  000e5	0f 11 45 dc	 movups	 XMMWORD PTR _matBone$[ebp+32], xmm0
  000e9	0f 10 87 9c 00
	00 00		 movups	 xmm0, XMMWORD PTR [edi+156]
  000f0	0f 11 45 ec	 movups	 XMMWORD PTR _matBone$[ebp+48], xmm0
$LN7@UpdatePoin:
; File C:\Program Files (x86)\Microsoft Visual Studio\2019\Community\VC\Tools\MSVC\14.27.29110\include\vector

; 1416 :         return const_iterator(_My_data._Myfirst, _STD addressof(_My_data));

  000f4	8b 03		 mov	 eax, DWORD PTR [ebx]

; 42   :     _Vector_const_iterator(_Tptr _Parg, const _Container_base* _Pvector) noexcept : _Ptr(_Parg) {

  000f6	8b 7b 10	 mov	 edi, DWORD PTR [ebx+16]
  000f9	8b 70 08	 mov	 esi, DWORD PTR [eax+8]
  000fc	3b 70 0c	 cmp	 esi, DWORD PTR [eax+12]
; File C:\DS Project\DS Files\Source\ClientSource\Client\GameLib\ActorInstanceCollisionDetection.cpp

; 81   : 	for (;sit!=pPointInstance->c_pCollisionData->SphereDataVector.end();++sit,++dit)

  000ff	0f 84 c1 00 00
	00		 je	 $LN58@UpdatePoin
$LL4@UpdatePoin:

; 82   : 	{
; 83   : 		const TSphereData & c = sit->GetAttribute();//c_pCollisionData->SphereDataVector[j].GetAttribute();

  00105	8b ce		 mov	 ecx, esi
  00107	e8 00 00 00 00	 call	 ?GetAttribute@CSphereCollisionInstance@@QBEABUSSphereData@@XZ ; CSphereCollisionInstance::GetAttribute

; 84   : 
; 85   : 		D3DXMATRIX matPoint;
; 86   : 		D3DXMatrixTranslation(&matPoint, c.v3Position.x, c.v3Position.y, c.v3Position.z);

  0010c	83 ec 0c	 sub	 esp, 12			; 0000000cH
  0010f	f3 0f 10 40 08	 movss	 xmm0, DWORD PTR [eax+8]
  00114	f3 0f 11 44 24
	08		 movss	 DWORD PTR [esp+8], xmm0
  0011a	f3 0f 10 40 04	 movss	 xmm0, DWORD PTR [eax+4]
  0011f	f3 0f 11 44 24
	04		 movss	 DWORD PTR [esp+4], xmm0
  00125	f3 0f 10 00	 movss	 xmm0, DWORD PTR [eax]
  00129	8d 85 7c ff ff
	ff		 lea	 eax, DWORD PTR _matPoint$2[ebp]
  0012f	f3 0f 11 04 24	 movss	 DWORD PTR [esp], xmm0
  00134	50		 push	 eax
  00135	e8 00 00 00 00	 call	 _D3DXMatrixTranslation@16
; File C:\DS Project\DS Files\Source\ClientSource\extern\include\d3dx8math.inl

; 580  :     D3DXMatrixMultiply(&matT, this, &mat);

  0013a	8d 45 bc	 lea	 eax, DWORD PTR _matBone$[ebp]
  0013d	50		 push	 eax
  0013e	8d 85 7c ff ff
	ff		 lea	 eax, DWORD PTR _matPoint$2[ebp]
  00144	50		 push	 eax
  00145	8d 85 3c ff ff
	ff		 lea	 eax, DWORD PTR $T1[ebp]
  0014b	50		 push	 eax
  0014c	e8 00 00 00 00	 call	 _D3DXMatrixMultiply@12
; File C:\DS Project\DS Files\Source\ClientSource\Client\GameLib\ActorInstanceCollisionDetection.cpp

; 87   : 		matPoint = matPoint * matBone;

  00151	0f 10 85 3c ff
	ff ff		 movups	 xmm0, XMMWORD PTR $T1[ebp]
; File C:\Program Files (x86)\Microsoft Visual Studio\2019\Community\VC\Tools\MSVC\14.27.29110\include\vector

; 256  :         return _Const_cast(_Mybase::operator->());

  00158	57		 push	 edi
; File C:\DS Project\DS Files\Source\ClientSource\Client\GameLib\ActorInstanceCollisionDetection.cpp

; 87   : 		matPoint = matPoint * matBone;

  00159	0f 11 85 7c ff
	ff ff		 movups	 XMMWORD PTR _matPoint$2[ebp], xmm0
  00160	0f 10 85 4c ff
	ff ff		 movups	 xmm0, XMMWORD PTR $T1[ebp+16]
  00167	0f 11 45 8c	 movups	 XMMWORD PTR _matPoint$2[ebp+16], xmm0
  0016b	0f 10 85 5c ff
	ff ff		 movups	 xmm0, XMMWORD PTR $T1[ebp+32]
  00172	0f 11 45 9c	 movups	 XMMWORD PTR _matPoint$2[ebp+32], xmm0
  00176	0f 10 85 6c ff
	ff ff		 movups	 xmm0, XMMWORD PTR $T1[ebp+48]
  0017d	0f 11 45 ac	 movups	 XMMWORD PTR _matPoint$2[ebp+48], xmm0
; File C:\Program Files (x86)\Microsoft Visual Studio\2019\Community\VC\Tools\MSVC\14.27.29110\include\vector

; 256  :         return _Const_cast(_Mybase::operator->());

  00181	e8 00 00 00 00	 call	 ??$_Const_cast@$$CBUCDynamicSphereInstance@@@std@@YAPAUCDynamicSphereInstance@@PBU1@@Z ; std::_Const_cast<CDynamicSphereInstance const >

; 75   :         ++_Ptr;

  00186	83 c6 14	 add	 esi, 20			; 00000014H

; 256  :         return _Const_cast(_Mybase::operator->());

  00189	83 c4 04	 add	 esp, 4

; 75   :         ++_Ptr;

  0018c	83 c7 1c	 add	 edi, 28			; 0000001cH
; File C:\DS Project\DS Files\Source\ClientSource\Client\GameLib\ActorInstanceCollisionDetection.cpp

; 89   : 		dit->v3LastPosition = dit->v3Position;

  0018f	f3 0f 7e 00	 movq	 xmm0, QWORD PTR [eax]
  00193	66 0f d6 40 0c	 movq	 QWORD PTR [eax+12], xmm0
  00198	8b 48 08	 mov	 ecx, DWORD PTR [eax+8]
  0019b	89 48 14	 mov	 DWORD PTR [eax+20], ecx

; 90   : 		dit->v3Position.x = matPoint._41;

  0019e	f3 0f 10 45 ac	 movss	 xmm0, DWORD PTR _matPoint$2[ebp+48]
  001a3	f3 0f 11 00	 movss	 DWORD PTR [eax], xmm0

; 91   : 		dit->v3Position.y = matPoint._42;

  001a7	f3 0f 10 45 b0	 movss	 xmm0, DWORD PTR _matPoint$2[ebp+52]
  001ac	f3 0f 11 40 04	 movss	 DWORD PTR [eax+4], xmm0

; 92   : 		dit->v3Position.z = matPoint._43;

  001b1	f3 0f 10 45 b4	 movss	 xmm0, DWORD PTR _matPoint$2[ebp+56]
  001b6	f3 0f 11 40 08	 movss	 DWORD PTR [eax+8], xmm0
; File C:\Program Files (x86)\Microsoft Visual Studio\2019\Community\VC\Tools\MSVC\14.27.29110\include\vector

; 42   :     _Vector_const_iterator(_Tptr _Parg, const _Container_base* _Pvector) noexcept : _Ptr(_Parg) {

  001bb	8b 03		 mov	 eax, DWORD PTR [ebx]

; 149  :         return _Ptr == _Right._Ptr;

  001bd	3b 70 0c	 cmp	 esi, DWORD PTR [eax+12]
; File C:\DS Project\DS Files\Source\ClientSource\Client\GameLib\ActorInstanceCollisionDetection.cpp

; 81   : 	for (;sit!=pPointInstance->c_pCollisionData->SphereDataVector.end();++sit,++dit)

  001c0	0f 85 3f ff ff
	ff		 jne	 $LL4@UpdatePoin
$LN58@UpdatePoin:
  001c6	5e		 pop	 esi
$LN3@UpdatePoin:

; 93   : 	}
; 94   : }

  001c7	8b 4d fc	 mov	 ecx, DWORD PTR __$ArrayPad$[ebp]
  001ca	5f		 pop	 edi
  001cb	33 cd		 xor	 ecx, ebp
  001cd	5b		 pop	 ebx
  001ce	e8 00 00 00 00	 call	 @__security_check_cookie@4
  001d3	8b e5		 mov	 esp, ebp
  001d5	5d		 pop	 ebp
  001d6	c2 04 00	 ret	 4
?UpdatePointInstance@CActorInstance@@QAEXPAUSCollisionPointInstance@1@@Z ENDP ; CActorInstance::UpdatePointInstance
_TEXT	ENDS
; Function compile flags: /Ogtp
; File C:\DS Project\DS Files\Source\ClientSource\Client\GameLib\ActorInstanceCollisionDetection.cpp
; File C:\Program Files (x86)\Microsoft Visual Studio\2019\Community\VC\Tools\MSVC\14.27.29110\include\list
; File C:\DS Project\DS Files\Source\ClientSource\Client\GameLib\ActorInstanceCollisionDetection.cpp
; File C:\Program Files (x86)\Microsoft Visual Studio\2019\Community\VC\Tools\MSVC\14.27.29110\include\list
; File C:\DS Project\DS Files\Source\ClientSource\Client\GameLib\ActorInstanceCollisionDetection.cpp
; File C:\Program Files (x86)\Microsoft Visual Studio\2019\Community\VC\Tools\MSVC\14.27.29110\include\list
; File C:\DS Project\DS Files\Source\ClientSource\Client\GameLib\ActorInstanceCollisionDetection.cpp
;	COMDAT ?UpdatePointInstance@CActorInstance@@QAEXXZ
_TEXT	SEGMENT
?UpdatePointInstance@CActorInstance@@QAEXXZ PROC	; CActorInstance::UpdatePointInstance, COMDAT
; _this$ = ecx

; 27   : {

  00000	56		 push	 esi
  00001	57		 push	 edi
  00002	8b f9		 mov	 edi, ecx
; File C:\Program Files (x86)\Microsoft Visual Studio\2019\Community\VC\Tools\MSVC\14.27.29110\include\list

; 1092 :         return iterator(_Mypair._Myval2._Myhead->_Next, _STD addressof(_Mypair._Myval2));

  00004	8b 87 40 03 00
	00		 mov	 eax, DWORD PTR [edi+832]

; 39   :     _List_unchecked_const_iterator(_Nodeptr _Pnode, const _Mylist* _Plist) noexcept : _Ptr(_Pnode) {

  0000a	8b 30		 mov	 esi, DWORD PTR [eax]
  0000c	3b f0		 cmp	 esi, eax
; File C:\DS Project\DS Files\Source\ClientSource\Client\GameLib\ActorInstanceCollisionDetection.cpp

; 29   : 	for (itor = m_DefendingPointInstanceList.begin(); itor != m_DefendingPointInstanceList.end(); ++itor)

  0000e	74 15		 je	 SHORT $LN3@UpdatePoin
$LL4@UpdatePoin:
; File C:\Program Files (x86)\Microsoft Visual Studio\2019\Community\VC\Tools\MSVC\14.27.29110\include\list

; 152  :         return this->_Ptr->_Myval;

  00010	8d 46 08	 lea	 eax, DWORD PTR [esi+8]
; File C:\DS Project\DS Files\Source\ClientSource\Client\GameLib\ActorInstanceCollisionDetection.cpp

; 30   : 		UpdatePointInstance(&(*itor));

  00013	8b cf		 mov	 ecx, edi
  00015	50		 push	 eax
  00016	e8 00 00 00 00	 call	 ?UpdatePointInstance@CActorInstance@@QAEXPAUSCollisionPointInstance@1@@Z ; CActorInstance::UpdatePointInstance
; File C:\Program Files (x86)\Microsoft Visual Studio\2019\Community\VC\Tools\MSVC\14.27.29110\include\list

; 166  :         this->_Ptr = this->_Ptr->_Next;

  0001b	8b 36		 mov	 esi, DWORD PTR [esi]

; 199  :         return this->_Ptr == _Right._Ptr;

  0001d	3b b7 40 03 00
	00		 cmp	 esi, DWORD PTR [edi+832]
; File C:\DS Project\DS Files\Source\ClientSource\Client\GameLib\ActorInstanceCollisionDetection.cpp

; 29   : 	for (itor = m_DefendingPointInstanceList.begin(); itor != m_DefendingPointInstanceList.end(); ++itor)

  00023	75 eb		 jne	 SHORT $LL4@UpdatePoin
$LN3@UpdatePoin:
  00025	5f		 pop	 edi

; 31   : }

  00026	5e		 pop	 esi
  00027	c3		 ret	 0
?UpdatePointInstance@CActorInstance@@QAEXXZ ENDP	; CActorInstance::UpdatePointInstance
_TEXT	ENDS
; Function compile flags: /Ogtp
; File C:\DS Project\DS Files\Source\ClientSource\Client\GameLib\ActorInstanceCollisionDetection.cpp
; File C:\Program Files (x86)\Microsoft Visual Studio\2019\Community\VC\Tools\MSVC\14.27.29110\include\vector
; File C:\DS Project\DS Files\Source\ClientSource\Client\GameLib\ActorInstanceCollisionDetection.cpp
; File C:\Program Files (x86)\Microsoft Visual Studio\2019\Community\VC\Tools\MSVC\14.27.29110\include\xstring
; File C:\DS Project\DS Files\Source\ClientSource\Client\GameLib\ActorInstanceCollisionDetection.cpp
; File C:\Program Files (x86)\Microsoft Visual Studio\2019\Community\VC\Tools\MSVC\14.27.29110\include\vector
; File C:\DS Project\DS Files\Source\ClientSource\Client\GameLib\ActorInstanceCollisionDetection.cpp
; File C:\Program Files (x86)\Microsoft Visual Studio\2019\Community\VC\Tools\MSVC\14.27.29110\include\vector
; File C:\DS Project\DS Files\Source\ClientSource\Client\GameLib\ActorInstanceCollisionDetection.cpp
; File C:\Program Files (x86)\Microsoft Visual Studio\2019\Community\VC\Tools\MSVC\14.27.29110\include\vector
; File C:\DS Project\DS Files\Source\ClientSource\Client\GameLib\ActorInstanceCollisionDetection.cpp
; File C:\Program Files (x86)\Microsoft Visual Studio\2019\Community\VC\Tools\MSVC\14.27.29110\include\vector
; File C:\DS Project\DS Files\Source\ClientSource\Client\GameLib\ActorInstanceCollisionDetection.cpp
; File C:\Program Files (x86)\Microsoft Visual Studio\2019\Community\VC\Tools\MSVC\14.27.29110\include\vector
; File C:\Program Files (x86)\Microsoft Visual Studio\2019\Community\VC\Tools\MSVC\14.27.29110\include\xmemory
; File C:\Program Files (x86)\Microsoft Visual Studio\2019\Community\VC\Tools\MSVC\14.27.29110\include\vector
; File C:\DS Project\DS Files\Source\ClientSource\Client\GameLib\ActorInstanceCollisionDetection.cpp
; File C:\Program Files (x86)\Microsoft Visual Studio\2019\Community\VC\Tools\MSVC\14.27.29110\include\vector
; File C:\DS Project\DS Files\Source\ClientSource\Client\GameLib\ActorInstanceCollisionDetection.cpp
;	COMDAT ?CreateCollisionInstancePiece@CActorInstance@@QAE_NKPBUSAttachingData@NRaceData@@PAUSCollisionPointInstance@1@@Z
_TEXT	SEGMENT
_dsi$ = -28						; size = 28
$T1 = 8							; size = 4
_dwAttachingModelIndex$ = 8				; size = 4
tv580 = 12						; size = 4
_iAttachingBoneIndex$2 = 12				; size = 4
_c_pAttachingData$ = 12					; size = 4
$T3 = 16						; size = 4
_pPointInstance$ = 16					; size = 4
?CreateCollisionInstancePiece@CActorInstance@@QAE_NKPBUSAttachingData@NRaceData@@PAUSCollisionPointInstance@1@@Z PROC ; CActorInstance::CreateCollisionInstancePiece, COMDAT
; _this$ = ecx

; 197  : {

  00000	55		 push	 ebp
  00001	8b ec		 mov	 ebp, esp
  00003	83 ec 1c	 sub	 esp, 28			; 0000001cH
  00006	53		 push	 ebx
  00007	56		 push	 esi

; 198  : 	if (!c_pAttachingData)

  00008	8b 75 0c	 mov	 esi, DWORD PTR _c_pAttachingData$[ebp]
  0000b	85 f6		 test	 esi, esi
  0000d	0f 84 73 01 00
	00		 je	 $LN63@CreateColl

; 199  : 	{
; 200  : 		assert(!"CActorInstance::CreateCollisionInstancePiece - c_pAttachingData is NULL");
; 201  : 		return false;
; 202  : 	}
; 203  : 
; 204  : 	if (!c_pAttachingData->pCollisionData)

  00013	83 7e 24 00	 cmp	 DWORD PTR [esi+36], 0
  00017	0f 84 69 01 00
	00		 je	 $LN63@CreateColl

; 205  : 	{
; 206  : 		assert(!"CActorInstance::CreateCollisionInstancePiece - c_pAttachingData->pCollisionData is NULL");
; 207  : 		return false;
; 208  : 	}
; 209  : 
; 210  : 	if (!pPointInstance)

  0001d	8b 5d 10	 mov	 ebx, DWORD PTR _pPointInstance$[ebp]
  00020	85 db		 test	 ebx, ebx
  00022	0f 84 5e 01 00
	00		 je	 $LN63@CreateColl

; 214  : 	}
; 215  : 
; 216  : 	pPointInstance->dwModelIndex = dwAttachingModelIndex;

  00028	8b 55 08	 mov	 edx, DWORD PTR _dwAttachingModelIndex$[ebp]
  0002b	89 53 08	 mov	 DWORD PTR [ebx+8], edx

; 217  : 	pPointInstance->isAttached = FALSE;

  0002e	c7 43 04 00 00
	00 00		 mov	 DWORD PTR [ebx+4], 0

; 218  : 	pPointInstance->dwBoneIndex = 0;

  00035	c7 43 0c 00 00
	00 00		 mov	 DWORD PTR [ebx+12], 0

; 219  : 	pPointInstance->c_pCollisionData = c_pAttachingData->pCollisionData;

  0003c	8b 46 24	 mov	 eax, DWORD PTR [esi+36]
  0003f	89 03		 mov	 DWORD PTR [ebx], eax

; 220  : 
; 221  : 	if (c_pAttachingData->isAttaching)

  00041	83 7e 04 00	 cmp	 DWORD PTR [esi+4], 0
  00045	74 43		 je	 SHORT $LN10@CreateColl
; File C:\Program Files (x86)\Microsoft Visual Studio\2019\Community\VC\Tools\MSVC\14.27.29110\include\vector

; 1504 :         return _My_data._Myfirst[_Pos];

  00047	8b 89 88 02 00
	00		 mov	 ecx, DWORD PTR [ecx+648]
; File C:\DS Project\DS Files\Source\ClientSource\Client\GameLib\ActorInstanceCollisionDetection.cpp

; 225  : 		CGrannyModelInstance * pModelInstance = m_LODControllerVector[dwAttachingModelIndex]->GetModelInstance();

  0004d	8b 0c 91	 mov	 ecx, DWORD PTR [ecx+edx*4]
  00050	e8 00 00 00 00	 call	 ?GetModelInstance@CGrannyLODController@@QAEPAVCGrannyModelInstance@@XZ ; CGrannyLODController::GetModelInstance

; 227  : 		if (pModelInstance && pModelInstance->GetBoneIndexByName(c_pAttachingData->strAttachingBoneName.c_str(),

  00055	85 c0		 test	 eax, eax
  00057	74 23		 je	 SHORT $LN9@CreateColl
; File C:\Program Files (x86)\Microsoft Visual Studio\2019\Community\VC\Tools\MSVC\14.27.29110\include\xstring

; 2153 :         return _BUF_SIZE <= _Myres;

  00059	83 7e 20 10	 cmp	 DWORD PTR [esi+32], 16	; 00000010H

; 3668 :         return _Mypair._Myval2._Myptr();

  0005d	8d 4e 0c	 lea	 ecx, DWORD PTR [esi+12]

; 2145 :         if (_Large_string_engaged()) {

  00060	72 02		 jb	 SHORT $LN17@CreateColl

; 2146 :             _Result = _Unfancy(_Bx._Ptr);

  00062	8b 09		 mov	 ecx, DWORD PTR [ecx]
$LN17@CreateColl:
; File C:\DS Project\DS Files\Source\ClientSource\Client\GameLib\ActorInstanceCollisionDetection.cpp

; 227  : 		if (pModelInstance && pModelInstance->GetBoneIndexByName(c_pAttachingData->strAttachingBoneName.c_str(),

  00064	8d 55 0c	 lea	 edx, DWORD PTR _iAttachingBoneIndex$2[ebp]
  00067	52		 push	 edx
  00068	51		 push	 ecx
  00069	8b c8		 mov	 ecx, eax
  0006b	e8 00 00 00 00	 call	 ?GetBoneIndexByName@CGrannyModelInstance@@QBE_NPBDPAH@Z ; CGrannyModelInstance::GetBoneIndexByName
  00070	84 c0		 test	 al, al
  00072	74 08		 je	 SHORT $LN9@CreateColl

; 228  : 												&iAttachingBoneIndex))
; 229  : 		{
; 230  : 			pPointInstance->isAttached = TRUE;
; 231  : 			pPointInstance->dwBoneIndex = iAttachingBoneIndex;

  00074	8b 45 0c	 mov	 eax, DWORD PTR _iAttachingBoneIndex$2[ebp]
  00077	89 43 0c	 mov	 DWORD PTR [ebx+12], eax

; 232  : 		}

  0007a	eb 07		 jmp	 SHORT $LN66@CreateColl
$LN9@CreateColl:

; 233  : 		else
; 234  : 		{
; 235  : 			//TraceError("CActorInstance::CreateCollisionInstancePiece: Cannot get matrix of bone %s ModelInstance 0x%p",	c_pAttachingData->strAttachingBoneName.c_str(), pModelInstance);
; 236  : 			pPointInstance->isAttached = TRUE;
; 237  : 			pPointInstance->dwBoneIndex = 0;

  0007c	c7 43 0c 00 00
	00 00		 mov	 DWORD PTR [ebx+12], 0
$LN66@CreateColl:

; 242  : 	const CSphereCollisionInstanceVector & c_rSphereDataVector = c_pAttachingData->pCollisionData->SphereDataVector;

  00083	c7 43 04 01 00
	00 00		 mov	 DWORD PTR [ebx+4], 1
$LN10@CreateColl:
  0008a	8b 76 24	 mov	 esi, DWORD PTR [esi+36]
  0008d	57		 push	 edi

; 243  : 
; 244  : 	pPointInstance->SphereInstanceVector.clear();

  0008e	8b 7b 10	 mov	 edi, DWORD PTR [ebx+16]
  00091	89 7b 14	 mov	 DWORD PTR [ebx+20], edi
; File C:\Program Files (x86)\Microsoft Visual Studio\2019\Community\VC\Tools\MSVC\14.27.29110\include\vector

; 1484 :         return static_cast<size_type>(_My_data._Mylast - _My_data._Myfirst);

  00094	8b 46 0c	 mov	 eax, DWORD PTR [esi+12]
  00097	8b c8		 mov	 ecx, eax
  00099	89 45 08	 mov	 DWORD PTR $T1[ebp], eax
  0009c	b8 67 66 66 66	 mov	 eax, 1717986919		; 66666667H
; File C:\DS Project\DS Files\Source\ClientSource\Client\GameLib\ActorInstanceCollisionDetection.cpp

; 242  : 	const CSphereCollisionInstanceVector & c_rSphereDataVector = c_pAttachingData->pCollisionData->SphereDataVector;

  000a1	89 75 0c	 mov	 DWORD PTR tv580[ebp], esi
; File C:\Program Files (x86)\Microsoft Visual Studio\2019\Community\VC\Tools\MSVC\14.27.29110\include\vector

; 1484 :         return static_cast<size_type>(_My_data._Mylast - _My_data._Myfirst);

  000a4	8b 76 08	 mov	 esi, DWORD PTR [esi+8]
  000a7	2b ce		 sub	 ecx, esi
  000a9	f7 e9		 imul	 ecx

; 1494 :         return static_cast<size_type>(_My_data._Myend - _My_data._Myfirst);

  000ab	8b 4b 18	 mov	 ecx, DWORD PTR [ebx+24]

; 1484 :         return static_cast<size_type>(_My_data._Mylast - _My_data._Myfirst);

  000ae	c1 fa 03	 sar	 edx, 3

; 1494 :         return static_cast<size_type>(_My_data._Myend - _My_data._Myfirst);

  000b1	2b cf		 sub	 ecx, edi

; 1484 :         return static_cast<size_type>(_My_data._Mylast - _My_data._Myfirst);

  000b3	8b c2		 mov	 eax, edx
  000b5	c1 e8 1f	 shr	 eax, 31			; 0000001fH
  000b8	03 c2		 add	 eax, edx
  000ba	89 45 10	 mov	 DWORD PTR $T3[ebp], eax

; 1494 :         return static_cast<size_type>(_My_data._Myend - _My_data._Myfirst);

  000bd	b8 93 24 49 92	 mov	 eax, -1840700269	; 92492493H
  000c2	f7 e9		 imul	 ecx
  000c4	03 d1		 add	 edx, ecx

; 1306 :         if (_Newcapacity > capacity()) { // something to do (reserve() never shrinks)

  000c6	8b 4d 10	 mov	 ecx, DWORD PTR $T3[ebp]

; 1494 :         return static_cast<size_type>(_My_data._Myend - _My_data._Myfirst);

  000c9	c1 fa 04	 sar	 edx, 4
  000cc	8b c2		 mov	 eax, edx
  000ce	c1 e8 1f	 shr	 eax, 31			; 0000001fH
  000d1	03 c2		 add	 eax, edx

; 1306 :         if (_Newcapacity > capacity()) { // something to do (reserve() never shrinks)

  000d3	3b c8		 cmp	 ecx, eax
  000d5	76 20		 jbe	 SHORT $LN64@CreateColl

; 1307 :             if (_Newcapacity > max_size()) {

  000d7	81 f9 49 92 24
	09		 cmp	 ecx, 153391689		; 09249249H
  000dd	0f 87 ad 00 00
	00		 ja	 $LN68@CreateColl

; 1309 :             }
; 1310 : 
; 1311 :             _Reallocate_exactly(_Newcapacity);

  000e3	51		 push	 ecx
  000e4	8d 4b 10	 lea	 ecx, DWORD PTR [ebx+16]
  000e7	e8 00 00 00 00	 call	 ?_Reallocate_exactly@?$vector@UCDynamicSphereInstance@@V?$allocator@UCDynamicSphereInstance@@@std@@@std@@AAEXI@Z ; std::vector<CDynamicSphereInstance,std::allocator<CDynamicSphereInstance> >::_Reallocate_exactly
  000ec	8b 7d 0c	 mov	 edi, DWORD PTR tv580[ebp]
  000ef	8b 77 08	 mov	 esi, DWORD PTR [edi+8]
  000f2	8b 47 0c	 mov	 eax, DWORD PTR [edi+12]
  000f5	eb 06		 jmp	 SHORT $LN24@CreateColl
$LN64@CreateColl:

; 709  : #if _HAS_CXX17
; 710  :         return _Result;
; 711  : #else // ^^^ _HAS_CXX17 ^^^ // vvv !_HAS_CXX17 vvv
; 712  :         (void) _Result;
; 713  : #endif // _HAS_CXX17
; 714  :     }
; 715  : 
; 716  :     void push_back(const _Ty& _Val) { // insert element at end, provide strong guarantee
; 717  :         emplace_back(_Val);
; 718  :     }
; 719  : 
; 720  :     void push_back(_Ty&& _Val) { // insert by moving into element at end, provide strong guarantee
; 721  :         emplace_back(_STD move(_Val));
; 722  :     }
; 723  : 
; 724  :     template <class... _Valty>
; 725  :     pointer _Emplace_reallocate(const pointer _Whereptr, _Valty&&... _Val) {
; 726  :         // reallocate and insert by perfectly forwarding _Val at _Whereptr
; 727  :         _Alty& _Al        = _Getal();
; 728  :         auto& _My_data    = _Mypair._Myval2;
; 729  :         pointer& _Myfirst = _My_data._Myfirst;
; 730  :         pointer& _Mylast  = _My_data._Mylast;
; 731  : 
; 732  :         _STL_INTERNAL_CHECK(_Mylast == _My_data._Myend); // check that we have no unused capacity
; 733  : 
; 734  :         const auto _Whereoff = static_cast<size_type>(_Whereptr - _Myfirst);
; 735  :         const auto _Oldsize  = static_cast<size_type>(_Mylast - _Myfirst);
; 736  : 
; 737  :         if (_Oldsize == max_size()) {
; 738  :             _Xlength();
; 739  :         }
; 740  : 
; 741  :         const size_type _Newsize     = _Oldsize + 1;
; 742  :         const size_type _Newcapacity = _Calculate_growth(_Newsize);
; 743  : 
; 744  :         const pointer _Newvec           = _Al.allocate(_Newcapacity);
; 745  :         const pointer _Constructed_last = _Newvec + _Whereoff + 1;
; 746  :         pointer _Constructed_first      = _Constructed_last;
; 747  : 
; 748  :         _TRY_BEGIN
; 749  :         _Alty_traits::construct(_Al, _Unfancy(_Newvec + _Whereoff), _STD forward<_Valty>(_Val)...);
; 750  :         _Constructed_first = _Newvec + _Whereoff;
; 751  : 
; 752  :         if (_Whereptr == _Mylast) { // at back, provide strong guarantee
; 753  :             _Umove_if_noexcept(_Myfirst, _Mylast, _Newvec);
; 754  :         } else { // provide basic guarantee
; 755  :             _Umove(_Myfirst, _Whereptr, _Newvec);
; 756  :             _Constructed_first = _Newvec;
; 757  :             _Umove(_Whereptr, _Mylast, _Newvec + _Whereoff + 1);
; 758  :         }
; 759  :         _CATCH_ALL
; 760  :         _Destroy(_Constructed_first, _Constructed_last);
; 761  :         _Al.deallocate(_Newvec, _Newcapacity);
; 762  :         _RERAISE;
; 763  :         _CATCH_END
; 764  : 
; 765  :         _Change_array(_Newvec, _Newsize, _Newcapacity);
; 766  :         return _Newvec + _Whereoff;
; 767  :     }
; 768  : 
; 769  :     template <class... _Valty>
; 770  :     iterator emplace(const_iterator _Where, _Valty&&... _Val) { // insert by perfectly forwarding _Val at _Where
; 771  :         const pointer _Whereptr = _Where._Ptr;
; 772  :         auto& _My_data          = _Mypair._Myval2;
; 773  :         const pointer _Oldlast  = _My_data._Mylast;
; 774  : #if _ITERATOR_DEBUG_LEVEL == 2
; 775  :         _STL_VERIFY(
; 776  :             _Where._Getcont() == _STD addressof(_My_data) && _Whereptr >= _My_data._Myfirst && _Oldlast >= _Whereptr,
; 777  :             "vector emplace iterator outside range");
; 778  : #endif // _ITERATOR_DEBUG_LEVEL == 2
; 779  : 
; 780  :         if (_Oldlast != _My_data._Myend) {
; 781  :             if (_Whereptr == _Oldlast) { // at back, provide strong guarantee
; 782  :                 _Emplace_back_with_unused_capacity(_STD forward<_Valty>(_Val)...);
; 783  :             } else {
; 784  :                 auto& _Al = _Getal();
; 785  :                 _Alloc_temporary<_Alty> _Obj(_Al, _STD forward<_Valty>(_Val)...); // handle aliasing
; 786  :                 // after constructing _Obj, provide basic guarantee
; 787  :                 _Orphan_range(_Whereptr, _Oldlast);
; 788  :                 _Alty_traits::construct(_Al, _Unfancy(_Oldlast), _STD move(_Oldlast[-1]));
; 789  :                 ++_My_data._Mylast;
; 790  :                 _Move_backward_unchecked(_Whereptr, _Oldlast - 1, _Oldlast);
; 791  :                 *_Whereptr = _STD move(_Obj._Storage._Value);
; 792  :             }
; 793  : 
; 794  :             return _Make_iterator(_Whereptr);
; 795  :         }
; 796  : 
; 797  :         return _Make_iterator(_Emplace_reallocate(_Whereptr, _STD forward<_Valty>(_Val)...));
; 798  :     }
; 799  : 
; 800  :     iterator insert(const_iterator _Where, const _Ty& _Val) { // insert _Val at _Where
; 801  :         return emplace(_Where, _Val);
; 802  :     }
; 803  : 
; 804  :     iterator insert(const_iterator _Where, _Ty&& _Val) { // insert by moving _Val at _Where
; 805  :         return emplace(_Where, _STD move(_Val));
; 806  :     }
; 807  : 
; 808  :     iterator insert(const_iterator _Where, _CRT_GUARDOVERFLOW const size_type _Count, const _Ty& _Val) {
; 809  :         // insert _Count * _Val at _Where
; 810  :         const pointer _Whereptr = _Where._Ptr;
; 811  : 
; 812  :         auto& _My_data   = _Mypair._Myval2;
; 813  :         pointer& _Mylast = _My_data._Mylast;
; 814  : 
; 815  :         const pointer _Oldfirst = _My_data._Myfirst;
; 816  :         const pointer _Oldlast  = _Mylast;
; 817  : #if _ITERATOR_DEBUG_LEVEL == 2
; 818  :         _STL_VERIFY(_Where._Getcont() == _STD addressof(_My_data) && _Whereptr >= _Oldfirst && _Oldlast >= _Whereptr,
; 819  :             "vector insert iterator outside range");
; 820  : #endif // _ITERATOR_DEBUG_LEVEL == 2
; 821  : 
; 822  :         const auto _Whereoff        = static_cast<size_type>(_Whereptr - _Oldfirst);
; 823  :         const auto _Unused_capacity = static_cast<size_type>(_My_data._Myend - _Oldlast);
; 824  :         const bool _One_at_back     = _Count == 1 && _Whereptr == _Oldlast;
; 825  :         if (_Count == 0) { // nothing to do, avoid invalidating iterators
; 826  :         } else if (_Count > _Unused_capacity) { // reallocate
; 827  :             const auto _Oldsize = static_cast<size_type>(_Oldlast - _Oldfirst);
; 828  : 
; 829  :             if (_Count > max_size() - _Oldsize) {
; 830  :                 _Xlength();
; 831  :             }
; 832  : 
; 833  :             const size_type _Newsize     = _Oldsize + _Count;
; 834  :             const size_type _Newcapacity = _Calculate_growth(_Newsize);
; 835  : 
; 836  :             const pointer _Newvec           = _Getal().allocate(_Newcapacity);
; 837  :             const pointer _Constructed_last = _Newvec + _Whereoff + _Count;
; 838  :             pointer _Constructed_first      = _Constructed_last;
; 839  : 
; 840  :             _TRY_BEGIN
; 841  :             _Ufill(_Newvec + _Whereoff, _Count, _Val);
; 842  :             _Constructed_first = _Newvec + _Whereoff;
; 843  : 
; 844  :             if (_One_at_back) { // provide strong guarantee
; 845  :                 _Umove_if_noexcept(_Oldfirst, _Oldlast, _Newvec);
; 846  :             } else { // provide basic guarantee
; 847  :                 _Umove(_Oldfirst, _Whereptr, _Newvec);
; 848  :                 _Constructed_first = _Newvec;
; 849  :                 _Umove(_Whereptr, _Oldlast, _Newvec + _Whereoff + _Count);
; 850  :             }
; 851  :             _CATCH_ALL
; 852  :             _Destroy(_Constructed_first, _Constructed_last);
; 853  :             _Getal().deallocate(_Newvec, _Newcapacity);
; 854  :             _RERAISE;
; 855  :             _CATCH_END
; 856  : 
; 857  :             _Change_array(_Newvec, _Newsize, _Newcapacity);
; 858  :         } else if (_One_at_back) { // provide strong guarantee
; 859  :             _Emplace_back_with_unused_capacity(_Val);
; 860  :         } else { // provide basic guarantee
; 861  :             const _Alloc_temporary<_Alty> _Tmp_storage(_Getal(), _Val); // handle aliasing
; 862  :             const auto& _Tmp              = _Tmp_storage._Storage._Value;
; 863  :             const auto _Affected_elements = static_cast<size_type>(_Oldlast - _Whereptr);
; 864  :             _Orphan_range(_Whereptr, _Oldlast);
; 865  : 
; 866  :             if (_Count > _Affected_elements) { // new stuff spills off end
; 867  :                 _Mylast = _Ufill(_Oldlast, _Count - _Affected_elements, _Tmp);
; 868  :                 _Mylast = _Umove(_Whereptr, _Oldlast, _Mylast);
; 869  :                 _STD fill(_Whereptr, _Oldlast, _Tmp);
; 870  :             } else { // new stuff can all be assigned
; 871  :                 _Mylast = _Umove(_Oldlast - _Count, _Oldlast, _Oldlast);
; 872  :                 _Move_backward_unchecked(_Whereptr, _Oldlast - _Count, _Oldlast);
; 873  :                 _STD fill(_Whereptr, _Whereptr + _Count, _Tmp);
; 874  :             }
; 875  :         }
; 876  : 
; 877  :         return _Make_iterator_offset(_Whereoff);
; 878  :     }
; 879  : 
; 880  : private:
; 881  :     template <class _Iter>
; 882  :     void _Insert_range(const_iterator _Where, _Iter _First, _Iter _Last, input_iterator_tag) {
; 883  :         // insert input range [_First, _Last) at _Where
; 884  :         if (_First == _Last) {
; 885  :             return; // nothing to do, avoid invalidating iterators
; 886  :         }
; 887  : 
; 888  :         auto& _My_data       = _Mypair._Myval2;
; 889  :         pointer& _Myfirst    = _My_data._Myfirst;
; 890  :         pointer& _Mylast     = _My_data._Mylast;
; 891  :         const auto _Whereoff = static_cast<size_type>(_Where._Ptr - _Myfirst);
; 892  :         const auto _Oldsize  = static_cast<size_type>(_Mylast - _Myfirst);
; 893  : 
; 894  :         // For one-at-back, provide strong guarantee.
; 895  :         // Otherwise, provide basic guarantee (despite N4659 26.3.11.5 [vector.modifiers]/1).
; 896  :         // Performance note: except for one-at-back, emplace_back()'s strong guarantee is unnecessary here.
; 897  : 
; 898  :         for (; _First != _Last; ++_First) {
; 899  :             emplace_back(*_First);
; 900  :         }
; 901  : 
; 902  :         _Orphan_range(_Myfirst + _Whereoff, _Myfirst + _Oldsize);
; 903  : 
; 904  :         _STD rotate(_Myfirst + _Whereoff, _Myfirst + _Oldsize, _Mylast);
; 905  :     }
; 906  : 
; 907  :     template <class _Iter>
; 908  :     void _Insert_range(const_iterator _Where, _Iter _First, _Iter _Last, forward_iterator_tag) {
; 909  :         // insert forward range [_First, _Last) at _Where
; 910  :         const pointer _Whereptr = _Where._Ptr;
; 911  :         const auto _Count       = _Convert_size<size_type>(static_cast<size_t>(_STD distance(_First, _Last)));
; 912  : 
; 913  :         auto& _My_data   = _Mypair._Myval2;
; 914  :         pointer& _Mylast = _My_data._Mylast;
; 915  : 
; 916  :         const pointer _Oldfirst     = _My_data._Myfirst;
; 917  :         const pointer _Oldlast      = _Mylast;
; 918  :         const auto _Unused_capacity = static_cast<size_type>(_My_data._Myend - _Oldlast);
; 919  : 
; 920  :         if (_Count == 0) { // nothing to do, avoid invalidating iterators
; 921  :         } else if (_Count > _Unused_capacity) { // reallocate
; 922  :             const auto _Oldsize = static_cast<size_type>(_Oldlast - _Oldfirst);
; 923  : 
; 924  :             if (_Count > max_size() - _Oldsize) {
; 925  :                 _Xlength();
; 926  :             }
; 927  : 
; 928  :             const size_type _Newsize     = _Oldsize + _Count;
; 929  :             const size_type _Newcapacity = _Calculate_growth(_Newsize);
; 930  : 
; 931  :             const pointer _Newvec           = _Getal().allocate(_Newcapacity);
; 932  :             const auto _Whereoff            = static_cast<size_type>(_Whereptr - _Oldfirst);
; 933  :             const pointer _Constructed_last = _Newvec + _Whereoff + _Count;
; 934  :             pointer _Constructed_first      = _Constructed_last;
; 935  : 
; 936  :             _TRY_BEGIN
; 937  :             _Ucopy(_First, _Last, _Newvec + _Whereoff);
; 938  :             _Constructed_first = _Newvec + _Whereoff;
; 939  : 
; 940  :             if (_Count == 1 && _Whereptr == _Oldlast) { // one at back, provide strong guarantee
; 941  :                 _Umove_if_noexcept(_Oldfirst, _Oldlast, _Newvec);
; 942  :             } else { // provide basic guarantee
; 943  :                 _Umove(_Oldfirst, _Whereptr, _Newvec);
; 944  :                 _Constructed_first = _Newvec;
; 945  :                 _Umove(_Whereptr, _Oldlast, _Newvec + _Whereoff + _Count);
; 946  :             }
; 947  :             _CATCH_ALL
; 948  :             _Destroy(_Constructed_first, _Constructed_last);
; 949  :             _Getal().deallocate(_Newvec, _Newcapacity);
; 950  :             _RERAISE;
; 951  :             _CATCH_END
; 952  : 
; 953  :             _Change_array(_Newvec, _Newsize, _Newcapacity);
; 954  :         } else { // Attempt to provide the strong guarantee for EmplaceConstructible failure.
; 955  :                  // If we encounter copy/move construction/assignment failure, provide the basic guarantee.
; 956  :                  // (For one-at-back, this provides the strong guarantee.)
; 957  : 
; 958  :             const auto _Affected_elements = static_cast<size_type>(_Oldlast - _Whereptr);
; 959  : 
; 960  :             if (_Count < _Affected_elements) { // some affected elements must be assigned
; 961  :                 _Mylast = _Umove(_Oldlast - _Count, _Oldlast, _Oldlast);
; 962  :                 _Move_backward_unchecked(_Whereptr, _Oldlast - _Count, _Oldlast);
; 963  :                 _Destroy(_Whereptr, _Whereptr + _Count);
; 964  : 
; 965  :                 _TRY_BEGIN
; 966  :                 _Ucopy(_First, _Last, _Whereptr);
; 967  :                 _CATCH_ALL
; 968  :                 // glue the broken pieces back together
; 969  : 
; 970  :                 _TRY_BEGIN
; 971  :                 _Umove(_Whereptr + _Count, _Whereptr + 2 * _Count, _Whereptr);
; 972  :                 _CATCH_ALL
; 973  :                 // vaporize the detached piece
; 974  :                 _Orphan_range(_Whereptr, _Oldlast);
; 975  :                 _Destroy(_Whereptr + _Count, _Mylast);
; 976  :                 _Mylast = _Whereptr;
; 977  :                 _RERAISE;
; 978  :                 _CATCH_END
; 979  : 
; 980  :                 _Move_unchecked(_Whereptr + 2 * _Count, _Mylast, _Whereptr + _Count);
; 981  :                 _Destroy(_Oldlast, _Mylast);
; 982  :                 _Mylast = _Oldlast;
; 983  :                 _RERAISE;
; 984  :                 _CATCH_END
; 985  :             } else { // affected elements don't overlap before/after
; 986  :                 const pointer _Relocated = _Whereptr + _Count;
; 987  :                 _Mylast                  = _Umove(_Whereptr, _Oldlast, _Relocated);
; 988  :                 _Destroy(_Whereptr, _Oldlast);
; 989  : 
; 990  :                 _TRY_BEGIN
; 991  :                 _Ucopy(_First, _Last, _Whereptr);
; 992  :                 _CATCH_ALL
; 993  :                 // glue the broken pieces back together
; 994  : 
; 995  :                 _TRY_BEGIN
; 996  :                 _Umove(_Relocated, _Mylast, _Whereptr);
; 997  :                 _CATCH_ALL
; 998  :                 // vaporize the detached piece
; 999  :                 _Orphan_range(_Whereptr, _Oldlast);
; 1000 :                 _Destroy(_Relocated, _Mylast);
; 1001 :                 _Mylast = _Whereptr;
; 1002 :                 _RERAISE;
; 1003 :                 _CATCH_END
; 1004 : 
; 1005 :                 _Destroy(_Relocated, _Mylast);
; 1006 :                 _Mylast = _Oldlast;
; 1007 :                 _RERAISE;
; 1008 :                 _CATCH_END
; 1009 :             }
; 1010 : 
; 1011 :             _Orphan_range(_Whereptr, _Oldlast);
; 1012 :         }
; 1013 :     }
; 1014 : 
; 1015 : public:
; 1016 :     template <class _Iter, enable_if_t<_Is_iterator_v<_Iter>, int> = 0>
; 1017 :     iterator insert(const_iterator _Where, _Iter _First, _Iter _Last) {
; 1018 :         const pointer _Whereptr = _Where._Ptr;
; 1019 :         auto& _My_data          = _Mypair._Myval2;
; 1020 :         const pointer _Oldfirst = _My_data._Myfirst;
; 1021 : #if _ITERATOR_DEBUG_LEVEL == 2
; 1022 :         _STL_VERIFY(
; 1023 :             _Where._Getcont() == _STD addressof(_My_data) && _Whereptr >= _Oldfirst && _My_data._Mylast >= _Whereptr,
; 1024 :             "vector insert iterator outside range");
; 1025 : #endif // _ITERATOR_DEBUG_LEVEL == 2
; 1026 : 
; 1027 :         _Adl_verify_range(_First, _Last);
; 1028 :         const auto _Whereoff = static_cast<size_type>(_Whereptr - _Oldfirst);
; 1029 :         _Insert_range(_Where, _Get_unwrapped(_First), _Get_unwrapped(_Last), _Iter_cat_t<_Iter>{});
; 1030 :         return _Make_iterator_offset(_Whereoff);
; 1031 :     }
; 1032 : 
; 1033 :     iterator insert(const_iterator _Where, initializer_list<_Ty> _Ilist) {
; 1034 :         return insert(_Where, _Ilist.begin(), _Ilist.end());
; 1035 :     }
; 1036 : 
; 1037 :     void assign(_CRT_GUARDOVERFLOW const size_type _Newsize, const _Ty& _Val) { // assign _Newsize * _Val
; 1038 :         auto& _My_data    = _Mypair._Myval2;
; 1039 :         pointer& _Myfirst = _My_data._Myfirst;
; 1040 :         pointer& _Mylast  = _My_data._Mylast;
; 1041 : 
; 1042 :         _My_data._Orphan_all();
; 1043 : 
; 1044 :         auto _Oldsize = static_cast<size_type>(_Mylast - _Myfirst);
; 1045 :         if (_Newsize > _Oldsize) {
; 1046 :             const auto _Oldcapacity = static_cast<size_type>(_My_data._Myend - _Myfirst);
; 1047 :             if (_Newsize > _Oldcapacity) { // reallocate
; 1048 :                 _Clear_and_reserve_geometric(_Newsize);
; 1049 :                 _Oldsize = 0;
; 1050 :             } else {
; 1051 :                 _STD fill(_Myfirst, _Mylast, _Val);
; 1052 :             }
; 1053 : 
; 1054 :             _Mylast = _Ufill(_Mylast, _Newsize - _Oldsize, _Val);
; 1055 :         } else {
; 1056 :             const pointer _Newlast = _Myfirst + _Newsize;
; 1057 :             _STD fill(_Myfirst, _Newlast, _Val);
; 1058 :             _Destroy(_Newlast, _Mylast);
; 1059 :             _Mylast = _Newlast;
; 1060 :         }
; 1061 :     }
; 1062 : 
; 1063 : private:
; 1064 :     template <class _Iter>
; 1065 :     void _Assign_range(_Iter _First, _Iter _Last, input_iterator_tag) { // assign input range [_First, _Last)
; 1066 :         auto& _My_data    = _Mypair._Myval2;
; 1067 :         pointer& _Myfirst = _My_data._Myfirst;
; 1068 :         pointer& _Mylast  = _My_data._Mylast;
; 1069 : 
; 1070 :         _My_data._Orphan_all();
; 1071 : 
; 1072 :         pointer _Next = _Myfirst;
; 1073 : 
; 1074 :         for (; _First != _Last && _Next != _Mylast; ++_First, (void) ++_Next) {
; 1075 :             *_Next = *_First;
; 1076 :         }
; 1077 : 
; 1078 :         // Code size optimization: we've exhausted only the source, only the dest, or both.
; 1079 :         // If we've exhausted only the source: we Trim, then Append does nothing.
; 1080 :         // If we've exhausted only the dest: Trim does nothing, then we Append.
; 1081 :         // If we've exhausted both: Trim does nothing, then Append does nothing.
; 1082 : 
; 1083 :         // Trim.
; 1084 :         _Destroy(_Next, _Mylast);
; 1085 :         _Mylast = _Next;
; 1086 : 
; 1087 :         // Append.
; 1088 :         for (; _First != _Last; ++_First) {
; 1089 :             emplace_back(*_First); // performance note: emplace_back()'s strong guarantee is unnecessary here
; 1090 :         }
; 1091 :     }
; 1092 : 
; 1093 :     template <class _Iter>
; 1094 :     void _Assign_range(_Iter _First, _Iter _Last, forward_iterator_tag) { // assign forward range [_First, _Last)
; 1095 :         const auto _Newsize = _Convert_size<size_type>(static_cast<size_t>(_STD distance(_First, _Last)));
; 1096 :         auto& _My_data      = _Mypair._Myval2;
; 1097 :         pointer& _Myfirst   = _My_data._Myfirst;
; 1098 :         pointer& _Mylast    = _My_data._Mylast;
; 1099 :         pointer& _Myend     = _My_data._Myend;
; 1100 : 
; 1101 :         _My_data._Orphan_all();
; 1102 : 
; 1103 : #if _HAS_IF_CONSTEXPR
; 1104 :         if constexpr (conjunction_v<bool_constant<_Ptr_copy_cat<_Iter, _Ty*>::_Trivially_copyable>,
; 1105 :                           _Uses_default_construct<_Alty, _Ty*, decltype(*_First)>,
; 1106 :                           _Uses_default_destroy<_Alty, _Ty*>>) {
; 1107 :             const auto _Oldcapacity = static_cast<size_type>(_Myend - _Myfirst);
; 1108 :             if (_Newsize > _Oldcapacity) {
; 1109 :                 _Clear_and_reserve_geometric(_Newsize);
; 1110 :             }
; 1111 : 
; 1112 :             _Mylast = _Refancy<pointer>(_Copy_memmove(_First, _Last, _Unfancy(_Myfirst)));
; 1113 :         } else
; 1114 : #endif // _HAS_IF_CONSTEXPR
; 1115 :         {
; 1116 :             auto _Oldsize = static_cast<size_type>(_Mylast - _Myfirst);
; 1117 : 
; 1118 :             if (_Newsize > _Oldsize) {
; 1119 :                 const auto _Oldcapacity = static_cast<size_type>(_Myend - _Myfirst);
; 1120 :                 if (_Newsize > _Oldcapacity) { // reallocate
; 1121 :                     _Clear_and_reserve_geometric(_Newsize);
; 1122 :                     _Oldsize = 0;
; 1123 :                 }
; 1124 : 
; 1125 :                 // performance note: traversing [_First, _Mid) twice
; 1126 :                 const _Iter _Mid = _STD next(_First, static_cast<difference_type>(_Oldsize));
; 1127 :                 _Copy_unchecked(_First, _Mid, _Myfirst);
; 1128 :                 _Mylast = _Ucopy(_Mid, _Last, _Mylast);
; 1129 :             } else {
; 1130 :                 const pointer _Newlast = _Myfirst + _Newsize;
; 1131 :                 _Copy_unchecked(_First, _Last, _Myfirst);
; 1132 :                 _Destroy(_Newlast, _Mylast);
; 1133 :                 _Mylast = _Newlast;
; 1134 :             }
; 1135 :         }
; 1136 :     }
; 1137 : 
; 1138 : public:
; 1139 :     template <class _Iter, enable_if_t<_Is_iterator_v<_Iter>, int> = 0>
; 1140 :     void assign(_Iter _First, _Iter _Last) {
; 1141 :         _Adl_verify_range(_First, _Last);
; 1142 :         _Assign_range(_Get_unwrapped(_First), _Get_unwrapped(_Last), _Iter_cat_t<_Iter>{});
; 1143 :     }
; 1144 : 
; 1145 :     void assign(initializer_list<_Ty> _Ilist) {
; 1146 :         _Assign_range(_Ilist.begin(), _Ilist.end(), random_access_iterator_tag{});
; 1147 :     }
; 1148 : 
; 1149 : private:
; 1150 :     void _Copy_assign(const vector& _Right, false_type) {
; 1151 :         _Pocca(_Getal(), _Right._Getal());
; 1152 :         auto& _Right_data = _Right._Mypair._Myval2;
; 1153 :         assign(_Right_data._Myfirst, _Right_data._Mylast);
; 1154 :     }
; 1155 : 
; 1156 :     void _Copy_assign(const vector& _Right, true_type) {
; 1157 :         if (_Getal() != _Right._Getal()) {
; 1158 :             _Tidy();
; 1159 :             _Mypair._Myval2._Reload_proxy(
; 1160 :                 _GET_PROXY_ALLOCATOR(_Alty, _Getal()), _GET_PROXY_ALLOCATOR(_Alty, _Right._Getal()));
; 1161 :         }
; 1162 : 
; 1163 :         _Copy_assign(_Right, false_type{});
; 1164 :     }
; 1165 : 
; 1166 : public:
; 1167 :     vector& operator=(const vector& _Right) {
; 1168 :         if (this != _STD addressof(_Right)) {
; 1169 :             _Copy_assign(_Right, _Choose_pocca<_Alty>{});
; 1170 :         }
; 1171 : 
; 1172 :         return *this;
; 1173 :     }
; 1174 : 
; 1175 :     vector& operator=(initializer_list<_Ty> _Ilist) {
; 1176 :         _Assign_range(_Ilist.begin(), _Ilist.end(), random_access_iterator_tag{});
; 1177 :         return *this;
; 1178 :     }
; 1179 : 
; 1180 : private:
; 1181 :     template <class _Ty2>
; 1182 :     void _Resize_reallocate(const size_type _Newsize, const _Ty2& _Val) {
; 1183 :         if (_Newsize > max_size()) {
; 1184 :             _Xlength();
; 1185 :         }
; 1186 : 
; 1187 :         auto& _My_data    = _Mypair._Myval2;
; 1188 :         pointer& _Myfirst = _My_data._Myfirst;
; 1189 :         pointer& _Mylast  = _My_data._Mylast;
; 1190 : 
; 1191 :         const auto _Oldsize          = static_cast<size_type>(_Mylast - _Myfirst);
; 1192 :         const size_type _Newcapacity = _Calculate_growth(_Newsize);
; 1193 : 
; 1194 :         const pointer _Newvec         = _Getal().allocate(_Newcapacity);
; 1195 :         const pointer _Appended_first = _Newvec + _Oldsize;
; 1196 :         pointer _Appended_last        = _Appended_first;
; 1197 : 
; 1198 :         _TRY_BEGIN
; 1199 :         _Appended_last = _Ufill(_Appended_first, _Newsize - _Oldsize, _Val);
; 1200 :         _Umove_if_noexcept(_Myfirst, _Mylast, _Newvec);
; 1201 :         _CATCH_ALL
; 1202 :         _Destroy(_Appended_first, _Appended_last);
; 1203 :         _Getal().deallocate(_Newvec, _Newcapacity);
; 1204 :         _RERAISE;
; 1205 :         _CATCH_END
; 1206 : 
; 1207 :         _Change_array(_Newvec, _Newsize, _Newcapacity);
; 1208 :     }
; 1209 : 
; 1210 :     template <class _Ty2>
; 1211 :     void _Resize(const size_type _Newsize, const _Ty2& _Val) { // trim or append elements, provide strong guarantee
; 1212 :         auto& _My_data      = _Mypair._Myval2;
; 1213 :         pointer& _Myfirst   = _My_data._Myfirst;
; 1214 :         pointer& _Mylast    = _My_data._Mylast;
; 1215 :         const auto _Oldsize = static_cast<size_type>(_Mylast - _Myfirst);
; 1216 :         if (_Newsize < _Oldsize) { // trim
; 1217 :             const pointer _Newlast = _Myfirst + _Newsize;
; 1218 :             _Orphan_range(_Newlast, _Mylast);
; 1219 :             _Destroy(_Newlast, _Mylast);
; 1220 :             _Mylast = _Newlast;
; 1221 :             return;
; 1222 :         }
; 1223 : 
; 1224 :         if (_Newsize > _Oldsize) { // append
; 1225 :             const auto _Oldcapacity = static_cast<size_type>(_My_data._Myend - _Myfirst);
; 1226 :             if (_Newsize > _Oldcapacity) { // reallocate
; 1227 :                 _Resize_reallocate(_Newsize, _Val);
; 1228 :                 return;
; 1229 :             }
; 1230 : 
; 1231 :             const pointer _Oldlast = _Mylast;
; 1232 :             _Mylast                = _Ufill(_Oldlast, _Newsize - _Oldsize, _Val);
; 1233 :             _Orphan_range(_Oldlast, _Oldlast);
; 1234 :         }
; 1235 : 
; 1236 :         // if _Newsize == _Oldsize, do nothing; avoid invalidating iterators
; 1237 :     }
; 1238 : 
; 1239 : public:
; 1240 :     void resize(_CRT_GUARDOVERFLOW const size_type _Newsize) {
; 1241 :         // trim or append value-initialized elements, provide strong guarantee
; 1242 :         _Resize(_Newsize, _Value_init_tag{});
; 1243 :     }
; 1244 : 
; 1245 :     void resize(_CRT_GUARDOVERFLOW const size_type _Newsize, const _Ty& _Val) {
; 1246 :         // trim or append copies of _Val, provide strong guarantee
; 1247 :         _Resize(_Newsize, _Val);
; 1248 :     }
; 1249 : 
; 1250 : private:
; 1251 :     void _Reallocate_exactly(const size_type _Newcapacity) {
; 1252 :         // set capacity to _Newcapacity (without geometric growth), provide strong guarantee
; 1253 :         auto& _My_data    = _Mypair._Myval2;
; 1254 :         pointer& _Myfirst = _My_data._Myfirst;
; 1255 :         pointer& _Mylast  = _My_data._Mylast;
; 1256 : 
; 1257 :         const auto _Size = static_cast<size_type>(_Mylast - _Myfirst);
; 1258 : 
; 1259 :         const pointer _Newvec = _Getal().allocate(_Newcapacity);
; 1260 : 
; 1261 :         _TRY_BEGIN
; 1262 :         _Umove_if_noexcept(_Myfirst, _Mylast, _Newvec);
; 1263 :         _CATCH_ALL
; 1264 :         _Getal().deallocate(_Newvec, _Newcapacity);
; 1265 :         _RERAISE;
; 1266 :         _CATCH_END
; 1267 : 
; 1268 :         _Change_array(_Newvec, _Size, _Newcapacity);
; 1269 :     }
; 1270 : 
; 1271 :     void _Clear_and_reserve_geometric(const size_type _Newsize) {
; 1272 :         auto& _My_data    = _Mypair._Myval2;
; 1273 :         pointer& _Myfirst = _My_data._Myfirst;
; 1274 :         pointer& _Mylast  = _My_data._Mylast;
; 1275 :         pointer& _Myend   = _My_data._Myend;
; 1276 : 
; 1277 : #if _ITERATOR_DEBUG_LEVEL != 0 && defined(_ENABLE_STL_INTERNAL_CHECK)
; 1278 :         _STL_INTERNAL_CHECK(_Newsize != 0);
; 1279 :         {
; 1280 :             _Lockit _Lock(_LOCK_DEBUG);
; 1281 :             _STL_INTERNAL_CHECK(!_My_data._Myproxy->_Myfirstiter); // asserts that all iterators are orphaned
; 1282 :         } // unlock
; 1283 : #endif // _ITERATOR_DEBUG_LEVEL != 0 && defined(_ENABLE_STL_INTERNAL_CHECK)
; 1284 : 
; 1285 :         if (_Newsize > max_size()) {
; 1286 :             _Xlength();
; 1287 :         }
; 1288 : 
; 1289 :         const size_type _Newcapacity = _Calculate_growth(_Newsize);
; 1290 : 
; 1291 :         if (_Myfirst) { // destroy and deallocate old array
; 1292 :             _Destroy(_Myfirst, _Mylast);
; 1293 :             _Getal().deallocate(_Myfirst, static_cast<size_type>(_Myend - _Myfirst));
; 1294 : 
; 1295 :             _Myfirst = pointer();
; 1296 :             _Mylast  = pointer();
; 1297 :             _Myend   = pointer();
; 1298 :         }
; 1299 : 
; 1300 :         _Buy_raw(_Newcapacity);
; 1301 :     }
; 1302 : 
; 1303 : public:
; 1304 :     void reserve(_CRT_GUARDOVERFLOW const size_type _Newcapacity) {
; 1305 :         // increase capacity to _Newcapacity (without geometric growth), provide strong guarantee
; 1306 :         if (_Newcapacity > capacity()) { // something to do (reserve() never shrinks)

  000f7	8b 7d 0c	 mov	 edi, DWORD PTR tv580[ebp]
  000fa	8b 45 08	 mov	 eax, DWORD PTR $T1[ebp]
$LN24@CreateColl:
; File C:\DS Project\DS Files\Source\ClientSource\Client\GameLib\ActorInstanceCollisionDetection.cpp

; 250  : 	dsi.v3LastPosition = D3DXVECTOR3(0.0f,0.0f,0.0f);

  000fd	c7 45 f0 00 00
	00 00		 mov	 DWORD PTR _dsi$[ebp+12], 0
  00104	c7 45 f4 00 00
	00 00		 mov	 DWORD PTR _dsi$[ebp+16], 0
  0010b	c7 45 f8 00 00
	00 00		 mov	 DWORD PTR _dsi$[ebp+20], 0

; 251  : 	dsi.v3Position = D3DXVECTOR3(0.0f,0.0f,0.0f);

  00112	c7 45 e4 00 00
	00 00		 mov	 DWORD PTR _dsi$[ebp], 0
  00119	c7 45 e8 00 00
	00 00		 mov	 DWORD PTR _dsi$[ebp+4], 0
  00120	c7 45 ec 00 00
	00 00		 mov	 DWORD PTR _dsi$[ebp+8], 0
; File C:\Program Files (x86)\Microsoft Visual Studio\2019\Community\VC\Tools\MSVC\14.27.29110\include\vector

; 42   :     _Vector_const_iterator(_Tptr _Parg, const _Container_base* _Pvector) noexcept : _Ptr(_Parg) {

  00127	3b f0		 cmp	 esi, eax
; File C:\DS Project\DS Files\Source\ClientSource\Client\GameLib\ActorInstanceCollisionDetection.cpp

; 252  : 	for (it = c_rSphereDataVector.begin(); it!=c_rSphereDataVector.end(); ++it)

  00129	74 50		 je	 SHORT $LN3@CreateColl
  0012b	0f 1f 44 00 00	 npad	 5
$LL4@CreateColl:

; 253  : 	{
; 254  : 		const TSphereData & c_rSphereData = it->GetAttribute();

  00130	8b ce		 mov	 ecx, esi
  00132	e8 00 00 00 00	 call	 ?GetAttribute@CSphereCollisionInstance@@QBEABUSSphereData@@XZ ; CSphereCollisionInstance::GetAttribute
; File C:\Program Files (x86)\Microsoft Visual Studio\2019\Community\VC\Tools\MSVC\14.27.29110\include\vector

; 704  :         if (_Mylast != _My_data._Myend) {

  00137	8b 4b 14	 mov	 ecx, DWORD PTR [ebx+20]
; File C:\DS Project\DS Files\Source\ClientSource\Client\GameLib\ActorInstanceCollisionDetection.cpp

; 255  : 		dsi.fRadius = c_rSphereData.fRadius;

  0013a	f3 0f 10 40 0c	 movss	 xmm0, DWORD PTR [eax+12]
  0013f	f3 0f 11 45 fc	 movss	 DWORD PTR _dsi$[ebp+24], xmm0
; File C:\Program Files (x86)\Microsoft Visual Studio\2019\Community\VC\Tools\MSVC\14.27.29110\include\vector

; 704  :         if (_Mylast != _My_data._Myend) {

  00144	3b 4b 18	 cmp	 ecx, DWORD PTR [ebx+24]
  00147	74 1d		 je	 SHORT $LN53@CreateColl
; File C:\Program Files (x86)\Microsoft Visual Studio\2019\Community\VC\Tools\MSVC\14.27.29110\include\xmemory

; 694  :         ::new (const_cast<void*>(static_cast<const volatile void*>(_Ptr))) _Objty(_STD forward<_Types>(_Args)...);

  00149	0f 10 45 e4	 movups	 xmm0, XMMWORD PTR _dsi$[ebp]
  0014d	8b 45 fc	 mov	 eax, DWORD PTR _dsi$[ebp+24]
  00150	0f 11 01	 movups	 XMMWORD PTR [ecx], xmm0
  00153	f3 0f 7e 45 f4	 movq	 xmm0, QWORD PTR _dsi$[ebp+16]
  00158	66 0f d6 41 10	 movq	 QWORD PTR [ecx+16], xmm0
  0015d	89 41 18	 mov	 DWORD PTR [ecx+24], eax
; File C:\Program Files (x86)\Microsoft Visual Studio\2019\Community\VC\Tools\MSVC\14.27.29110\include\vector

; 690  :         ++_Mylast;

  00160	83 43 14 1c	 add	 DWORD PTR [ebx+20], 28	; 0000001cH

; 705  :             return _Emplace_back_with_unused_capacity(_STD forward<_Valty>(_Val)...);

  00164	eb 0d		 jmp	 SHORT $LN2@CreateColl
$LN53@CreateColl:

; 706  :         }
; 707  : 
; 708  :         _Ty& _Result = *_Emplace_reallocate(_Mylast, _STD forward<_Valty>(_Val)...);

  00166	8d 45 e4	 lea	 eax, DWORD PTR _dsi$[ebp]
  00169	50		 push	 eax
  0016a	51		 push	 ecx
  0016b	8d 4b 10	 lea	 ecx, DWORD PTR [ebx+16]
  0016e	e8 00 00 00 00	 call	 ??$_Emplace_reallocate@ABUCDynamicSphereInstance@@@?$vector@UCDynamicSphereInstance@@V?$allocator@UCDynamicSphereInstance@@@std@@@std@@QAEPAUCDynamicSphereInstance@@QAU2@ABU2@@Z ; std::vector<CDynamicSphereInstance,std::allocator<CDynamicSphereInstance> >::_Emplace_reallocate<CDynamicSphereInstance const &>
$LN2@CreateColl:

; 75   :         ++_Ptr;

  00173	83 c6 14	 add	 esi, 20			; 00000014H

; 149  :         return _Ptr == _Right._Ptr;

  00176	3b 77 0c	 cmp	 esi, DWORD PTR [edi+12]
; File C:\DS Project\DS Files\Source\ClientSource\Client\GameLib\ActorInstanceCollisionDetection.cpp

; 252  : 	for (it = c_rSphereDataVector.begin(); it!=c_rSphereDataVector.end(); ++it)

  00179	75 b5		 jne	 SHORT $LL4@CreateColl
$LN3@CreateColl:

; 256  : 		pPointInstance->SphereInstanceVector.push_back(dsi);
; 257  : 	}
; 258  : 
; 259  : 	return true;

  0017b	5f		 pop	 edi
  0017c	5e		 pop	 esi
  0017d	b0 01		 mov	 al, 1

; 260  : }

  0017f	5b		 pop	 ebx
  00180	8b e5		 mov	 esp, ebp
  00182	5d		 pop	 ebp
  00183	c2 0c 00	 ret	 12			; 0000000cH
$LN63@CreateColl:
  00186	5e		 pop	 esi

; 211  : 	{
; 212  : 		assert(!"CActorInstance::CreateCollisionInstancePiece - pPointInstance is NULL");
; 213  : 		return false;

  00187	32 c0		 xor	 al, al

; 260  : }

  00189	5b		 pop	 ebx
  0018a	8b e5		 mov	 esp, ebp
  0018c	5d		 pop	 ebp
  0018d	c2 0c 00	 ret	 12			; 0000000cH
$LN68@CreateColl:
; File C:\Program Files (x86)\Microsoft Visual Studio\2019\Community\VC\Tools\MSVC\14.27.29110\include\vector

; 1308 :                 _Xlength();

  00190	e8 00 00 00 00	 call	 ?_Xlength@?$vector@UCDynamicSphereInstance@@V?$allocator@UCDynamicSphereInstance@@@std@@@std@@CAXXZ ; std::vector<CDynamicSphereInstance,std::allocator<CDynamicSphereInstance> >::_Xlength
$LN65@CreateColl:
  00195	cc		 int	 3
?CreateCollisionInstancePiece@CActorInstance@@QAE_NKPBUSAttachingData@NRaceData@@PAUSCollisionPointInstance@1@@Z ENDP ; CActorInstance::CreateCollisionInstancePiece
_TEXT	ENDS
; Function compile flags: /Ogtp
; File C:\Program Files (x86)\Microsoft Visual Studio\2019\Community\VC\Tools\MSVC\14.27.29110\include\xtree
;	COMDAT ??1?$map@PAVCActorInstance@@MU?$less@PAVCActorInstance@@@std@@V?$allocator@U?$pair@QAVCActorInstance@@M@std@@@3@@std@@QAE@XZ
_TEXT	SEGMENT
??1?$map@PAVCActorInstance@@MU?$less@PAVCActorInstance@@@std@@V?$allocator@U?$pair@QAVCActorInstance@@M@std@@@3@@std@@QAE@XZ PROC ; std::map<CActorInstance *,float,std::less<CActorInstance *>,std::allocator<std::pair<CActorInstance * const,float> > >::~map<CActorInstance *,float,std::less<CActorInstance *>,std::allocator<std::pair<CActorInstance * const,float> > >, COMDAT
; _this$ = ecx

; 1191 :         _Scary->_Erase_head(_Getal());

  00000	51		 push	 ecx
  00001	e8 00 00 00 00	 call	 ??$_Erase_head@V?$allocator@U?$_Tree_node@U?$pair@QAVCActorInstance@@M@std@@PAX@std@@@std@@@?$_Tree_val@U?$_Tree_simple_types@U?$pair@QAVCActorInstance@@M@std@@@std@@@std@@QAEXAAV?$allocator@U?$_Tree_node@U?$pair@QAVCActorInstance@@M@std@@PAX@std@@@1@@Z ; std::_Tree_val<std::_Tree_simple_types<std::pair<CActorInstance * const,float> > >::_Erase_head<std::allocator<std::_Tree_node<std::pair<CActorInstance * const,float>,void *> > >
  00006	c3		 ret	 0
??1?$map@PAVCActorInstance@@MU?$less@PAVCActorInstance@@@std@@V?$allocator@U?$pair@QAVCActorInstance@@M@std@@@3@@std@@QAE@XZ ENDP ; std::map<CActorInstance *,float,std::less<CActorInstance *>,std::allocator<std::pair<CActorInstance * const,float> > >::~map<CActorInstance *,float,std::less<CActorInstance *>,std::allocator<std::pair<CActorInstance * const,float> > >
_TEXT	ENDS
; Function compile flags: /Ogtp
; File C:\Program Files (x86)\Microsoft Visual Studio\2019\Community\VC\Tools\MSVC\14.27.29110\include\xtree
;	COMDAT ?_Insert_node@?$_Tree_val@U?$_Tree_simple_types@U?$pair@QAVCActorInstance@@M@std@@@std@@@std@@QAEPAU?$_Tree_node@U?$pair@QAVCActorInstance@@M@std@@PAX@2@U?$_Tree_id@PAU?$_Tree_node@U?$pair@QAVCActorInstance@@M@std@@PAX@std@@@2@QAU32@@Z
_TEXT	SEGMENT
__Head$1$ = -8						; size = 4
_this$1$ = -4						; size = 4
__Loc$ = 8						; size = 8
__Newnode$ = 16						; size = 4
?_Insert_node@?$_Tree_val@U?$_Tree_simple_types@U?$pair@QAVCActorInstance@@M@std@@@std@@@std@@QAEPAU?$_Tree_node@U?$pair@QAVCActorInstance@@M@std@@PAX@2@U?$_Tree_id@PAU?$_Tree_node@U?$pair@QAVCActorInstance@@M@std@@PAX@std@@@2@QAU32@@Z PROC ; std::_Tree_val<std::_Tree_simple_types<std::pair<CActorInstance * const,float> > >::_Insert_node, COMDAT
; _this$ = ecx

; 644  :     _Nodeptr _Insert_node(const _Tree_id<_Nodeptr> _Loc, const _Nodeptr _Newnode) noexcept {

  00000	55		 push	 ebp
  00001	8b ec		 mov	 ebp, esp
  00003	83 ec 08	 sub	 esp, 8

; 645  :         ++_Mysize;
; 646  :         const auto _Head  = _Myhead;
; 647  :         _Newnode->_Parent = _Loc._Parent;

  00006	8b 55 08	 mov	 edx, DWORD PTR __Loc$[ebp]
  00009	8b c1		 mov	 eax, ecx
  0000b	89 45 fc	 mov	 DWORD PTR _this$1$[ebp], eax
  0000e	8b 08		 mov	 ecx, DWORD PTR [eax]
  00010	ff 40 04	 inc	 DWORD PTR [eax+4]
  00013	8b 45 10	 mov	 eax, DWORD PTR __Newnode$[ebp]
  00016	89 4d f8	 mov	 DWORD PTR __Head$1$[ebp], ecx
  00019	89 50 04	 mov	 DWORD PTR [eax+4], edx

; 648  :         if (_Loc._Parent == _Head) { // first node in tree, just set head values

  0001c	3b d1		 cmp	 edx, ecx
  0001e	75 12		 jne	 SHORT $LN5@Insert_nod

; 649  :             _Head->_Left     = _Newnode;

  00020	89 01		 mov	 DWORD PTR [ecx], eax

; 650  :             _Head->_Parent   = _Newnode;

  00022	89 41 04	 mov	 DWORD PTR [ecx+4], eax

; 651  :             _Head->_Right    = _Newnode;

  00025	89 41 08	 mov	 DWORD PTR [ecx+8], eax

; 652  :             _Newnode->_Color = _Black; // the root is black

  00028	c6 40 0c 01	 mov	 BYTE PTR [eax+12], 1

; 711  :     }

  0002c	8b e5		 mov	 esp, ebp
  0002e	5d		 pop	 ebp
  0002f	c2 0c 00	 ret	 12			; 0000000cH
$LN5@Insert_nod:

; 653  :             return _Newnode;
; 654  :         }
; 655  : 
; 656  :         _STL_INTERNAL_CHECK(_Loc._Child != _Tree_child::_Unused);
; 657  :         if (_Loc._Child == _Tree_child::_Right) { // add to right of _Loc._Parent

  00032	83 7d 0c 00	 cmp	 DWORD PTR __Loc$[ebp+4], 0
  00036	75 0d		 jne	 SHORT $LN6@Insert_nod

; 658  :             _STL_INTERNAL_CHECK(_Loc._Parent->_Right->_Isnil);
; 659  :             _Loc._Parent->_Right = _Newnode;

  00038	89 42 08	 mov	 DWORD PTR [edx+8], eax

; 660  :             if (_Loc._Parent == _Head->_Right) { // remember rightmost node

  0003b	3b 51 08	 cmp	 edx, DWORD PTR [ecx+8]
  0003e	75 0d		 jne	 SHORT $LN9@Insert_nod

; 661  :                 _Head->_Right = _Newnode;

  00040	89 41 08	 mov	 DWORD PTR [ecx+8], eax

; 662  :             }
; 663  :         } else { // add to left of _Loc._Parent

  00043	eb 08		 jmp	 SHORT $LN9@Insert_nod
$LN6@Insert_nod:

; 664  :             _STL_INTERNAL_CHECK(_Loc._Parent->_Left->_Isnil);
; 665  :             _Loc._Parent->_Left = _Newnode;

  00045	89 02		 mov	 DWORD PTR [edx], eax

; 666  :             if (_Loc._Parent == _Head->_Left) { // remember leftmost node

  00047	3b 11		 cmp	 edx, DWORD PTR [ecx]
  00049	75 02		 jne	 SHORT $LN9@Insert_nod

; 667  :                 _Head->_Left = _Newnode;

  0004b	89 01		 mov	 DWORD PTR [ecx], eax
$LN9@Insert_nod:

; 668  :             }
; 669  :         }
; 670  : 
; 671  :         for (_Nodeptr _Pnode = _Newnode; _Pnode->_Parent->_Color == _Red;) {

  0004d	8b d0		 mov	 edx, eax
  0004f	8b 40 04	 mov	 eax, DWORD PTR [eax+4]
  00052	80 78 0c 00	 cmp	 BYTE PTR [eax+12], 0
  00056	0f 85 99 01 00
	00		 jne	 $LN3@Insert_nod
  0005c	53		 push	 ebx
  0005d	56		 push	 esi
  0005e	57		 push	 edi
  0005f	90		 npad	 1
$LL2@Insert_nod:

; 672  :             if (_Pnode->_Parent == _Pnode->_Parent->_Parent->_Left) { // fixup red-red in left subtree

  00060	8b 4a 04	 mov	 ecx, DWORD PTR [edx+4]
  00063	8d 7a 04	 lea	 edi, DWORD PTR [edx+4]
  00066	8b 71 04	 mov	 esi, DWORD PTR [ecx+4]
  00069	8d 59 04	 lea	 ebx, DWORD PTR [ecx+4]
  0006c	8b 06		 mov	 eax, DWORD PTR [esi]
  0006e	3b c8		 cmp	 ecx, eax
  00070	0f 85 ba 00 00
	00		 jne	 $LN10@Insert_nod

; 673  :                 const auto _Parent_sibling = _Pnode->_Parent->_Parent->_Right;

  00076	8b 46 08	 mov	 eax, DWORD PTR [esi+8]

; 674  :                 if (_Parent_sibling->_Color == _Red) { // parent's sibling has two red children, blacken both

  00079	80 78 0c 00	 cmp	 BYTE PTR [eax+12], 0
  0007d	0f 84 b3 00 00
	00		 je	 $LN53@Insert_nod

; 675  :                     _Pnode->_Parent->_Color          = _Black;
; 676  :                     _Parent_sibling->_Color          = _Black;
; 677  :                     _Pnode->_Parent->_Parent->_Color = _Red;
; 678  :                     _Pnode                           = _Pnode->_Parent->_Parent;
; 679  :                 } else { // parent's sibling has red and black children
; 680  :                     if (_Pnode == _Pnode->_Parent->_Right) { // rotate right child to left

  00083	8b 71 08	 mov	 esi, DWORD PTR [ecx+8]
  00086	3b d6		 cmp	 edx, esi
  00088	75 47		 jne	 SHORT $LN51@Insert_nod

; 460  :         _Wherenode->_Right = _Pnode->_Left;

  0008a	8b 06		 mov	 eax, DWORD PTR [esi]

; 681  :                         _Pnode = _Pnode->_Parent;

  0008c	8b d1		 mov	 edx, ecx

; 460  :         _Wherenode->_Right = _Pnode->_Left;

  0008e	89 42 08	 mov	 DWORD PTR [edx+8], eax

; 461  : 
; 462  :         if (!_Pnode->_Left->_Isnil) {

  00091	8b 06		 mov	 eax, DWORD PTR [esi]
  00093	80 78 0d 00	 cmp	 BYTE PTR [eax+13], 0
  00097	75 03		 jne	 SHORT $LN20@Insert_nod

; 463  :             _Pnode->_Left->_Parent = _Wherenode;

  00099	89 50 04	 mov	 DWORD PTR [eax+4], edx
$LN20@Insert_nod:

; 464  :         }
; 465  : 
; 466  :         _Pnode->_Parent = _Wherenode->_Parent;

  0009c	8b 03		 mov	 eax, DWORD PTR [ebx]
  0009e	89 46 04	 mov	 DWORD PTR [esi+4], eax

; 467  : 
; 468  :         if (_Wherenode == _Myhead->_Parent) {

  000a1	8b 45 fc	 mov	 eax, DWORD PTR _this$1$[ebp]
  000a4	8b 00		 mov	 eax, DWORD PTR [eax]
  000a6	3b 50 04	 cmp	 edx, DWORD PTR [eax+4]
  000a9	75 0b		 jne	 SHORT $LN21@Insert_nod

; 469  :             _Myhead->_Parent = _Pnode;

  000ab	89 70 04	 mov	 DWORD PTR [eax+4], esi

; 477  :         _Wherenode->_Parent = _Pnode;

  000ae	8b fb		 mov	 edi, ebx
  000b0	89 16		 mov	 DWORD PTR [esi], edx
  000b2	89 33		 mov	 DWORD PTR [ebx], esi
  000b4	eb 1d		 jmp	 SHORT $LN49@Insert_nod
$LN21@Insert_nod:

; 470  :         } else if (_Wherenode == _Wherenode->_Parent->_Left) {

  000b6	8b 03		 mov	 eax, DWORD PTR [ebx]
  000b8	3b 10		 cmp	 edx, DWORD PTR [eax]
  000ba	75 0a		 jne	 SHORT $LN23@Insert_nod

; 471  :             _Wherenode->_Parent->_Left = _Pnode;

  000bc	89 30		 mov	 DWORD PTR [eax], esi

; 477  :         _Wherenode->_Parent = _Pnode;

  000be	8b fb		 mov	 edi, ebx
  000c0	89 16		 mov	 DWORD PTR [esi], edx
  000c2	89 33		 mov	 DWORD PTR [ebx], esi
  000c4	eb 0d		 jmp	 SHORT $LN49@Insert_nod
$LN23@Insert_nod:

; 473  :             _Wherenode->_Parent->_Right = _Pnode;

  000c6	89 70 08	 mov	 DWORD PTR [eax+8], esi

; 477  :         _Wherenode->_Parent = _Pnode;

  000c9	8b fb		 mov	 edi, ebx
  000cb	89 16		 mov	 DWORD PTR [esi], edx
  000cd	89 33		 mov	 DWORD PTR [ebx], esi
  000cf	eb 02		 jmp	 SHORT $LN49@Insert_nod
$LN51@Insert_nod:
  000d1	8b f1		 mov	 esi, ecx
$LN49@Insert_nod:

; 682  :                         _Lrotate(_Pnode);
; 683  :                     }
; 684  : 
; 685  :                     _Pnode->_Parent->_Color          = _Black; // propagate red up

  000d3	c6 46 0c 01	 mov	 BYTE PTR [esi+12], 1

; 686  :                     _Pnode->_Parent->_Parent->_Color = _Red;

  000d7	8b 07		 mov	 eax, DWORD PTR [edi]
  000d9	8b 40 04	 mov	 eax, DWORD PTR [eax+4]
  000dc	c6 40 0c 00	 mov	 BYTE PTR [eax+12], 0

; 687  :                     _Rrotate(_Pnode->_Parent->_Parent);

  000e0	8b 07		 mov	 eax, DWORD PTR [edi]
  000e2	8b 48 04	 mov	 ecx, DWORD PTR [eax+4]

; 481  :         _Nodeptr _Pnode   = _Wherenode->_Left;

  000e5	8b 31		 mov	 esi, DWORD PTR [ecx]

; 482  :         _Wherenode->_Left = _Pnode->_Right;

  000e7	8b 46 08	 mov	 eax, DWORD PTR [esi+8]
  000ea	89 01		 mov	 DWORD PTR [ecx], eax

; 483  : 
; 484  :         if (!_Pnode->_Right->_Isnil) {

  000ec	8b 46 08	 mov	 eax, DWORD PTR [esi+8]
  000ef	80 78 0d 00	 cmp	 BYTE PTR [eax+13], 0
  000f3	75 03		 jne	 SHORT $LN27@Insert_nod

; 485  :             _Pnode->_Right->_Parent = _Wherenode;

  000f5	89 48 04	 mov	 DWORD PTR [eax+4], ecx
$LN27@Insert_nod:

; 486  :         }
; 487  : 
; 488  :         _Pnode->_Parent = _Wherenode->_Parent;

  000f8	8b 41 04	 mov	 eax, DWORD PTR [ecx+4]
  000fb	89 46 04	 mov	 DWORD PTR [esi+4], eax

; 489  : 
; 490  :         if (_Wherenode == _Myhead->_Parent) {

  000fe	8b 45 fc	 mov	 eax, DWORD PTR _this$1$[ebp]
  00101	8b 00		 mov	 eax, DWORD PTR [eax]
  00103	3b 48 04	 cmp	 ecx, DWORD PTR [eax+4]
  00106	75 0b		 jne	 SHORT $LN28@Insert_nod

; 491  :             _Myhead->_Parent = _Pnode;

  00108	89 70 04	 mov	 DWORD PTR [eax+4], esi

; 496  :         }
; 497  : 
; 498  :         _Pnode->_Right      = _Wherenode;

  0010b	89 4e 08	 mov	 DWORD PTR [esi+8], ecx

; 688  :                 }
; 689  :             } else { // fixup red-red in right subtree

  0010e	e9 cc 00 00 00	 jmp	 $LN52@Insert_nod
$LN28@Insert_nod:

; 492  :         } else if (_Wherenode == _Wherenode->_Parent->_Right) {

  00113	8b 41 04	 mov	 eax, DWORD PTR [ecx+4]
  00116	3b 48 08	 cmp	 ecx, DWORD PTR [eax+8]
  00119	75 0b		 jne	 SHORT $LN30@Insert_nod

; 493  :             _Wherenode->_Parent->_Right = _Pnode;

  0011b	89 70 08	 mov	 DWORD PTR [eax+8], esi

; 496  :         }
; 497  : 
; 498  :         _Pnode->_Right      = _Wherenode;

  0011e	89 4e 08	 mov	 DWORD PTR [esi+8], ecx

; 688  :                 }
; 689  :             } else { // fixup red-red in right subtree

  00121	e9 b9 00 00 00	 jmp	 $LN52@Insert_nod
$LN30@Insert_nod:

; 495  :             _Wherenode->_Parent->_Left = _Pnode;

  00126	89 30		 mov	 DWORD PTR [eax], esi

; 496  :         }
; 497  : 
; 498  :         _Pnode->_Right      = _Wherenode;

  00128	89 4e 08	 mov	 DWORD PTR [esi+8], ecx

; 688  :                 }
; 689  :             } else { // fixup red-red in right subtree

  0012b	e9 af 00 00 00	 jmp	 $LN52@Insert_nod
$LN10@Insert_nod:

; 690  :                 const auto _Parent_sibling = _Pnode->_Parent->_Parent->_Left;
; 691  :                 if (_Parent_sibling->_Color == _Red) { // parent's sibling has two red children, blacken both

  00130	80 78 0c 00	 cmp	 BYTE PTR [eax+12], 0
  00134	75 1b		 jne	 SHORT $LN15@Insert_nod
$LN53@Insert_nod:

; 668  :             }
; 669  :         }
; 670  : 
; 671  :         for (_Nodeptr _Pnode = _Newnode; _Pnode->_Parent->_Color == _Red;) {

  00136	c6 41 0c 01	 mov	 BYTE PTR [ecx+12], 1
  0013a	c6 40 0c 01	 mov	 BYTE PTR [eax+12], 1
  0013e	8b 07		 mov	 eax, DWORD PTR [edi]
  00140	8b 40 04	 mov	 eax, DWORD PTR [eax+4]
  00143	c6 40 0c 00	 mov	 BYTE PTR [eax+12], 0
  00147	8b 07		 mov	 eax, DWORD PTR [edi]
  00149	8b 50 04	 mov	 edx, DWORD PTR [eax+4]
  0014c	e9 91 00 00 00	 jmp	 $LN46@Insert_nod
$LN15@Insert_nod:

; 692  :                     _Pnode->_Parent->_Color          = _Black;
; 693  :                     _Parent_sibling->_Color          = _Black;
; 694  :                     _Pnode->_Parent->_Parent->_Color = _Red;
; 695  :                     _Pnode                           = _Pnode->_Parent->_Parent;
; 696  :                 } else { // parent's sibling has red and black children
; 697  :                     if (_Pnode == _Pnode->_Parent->_Left) { // rotate left child to right

  00151	8b 01		 mov	 eax, DWORD PTR [ecx]
  00153	3b d0		 cmp	 edx, eax
  00155	75 3e		 jne	 SHORT $LN39@Insert_nod

; 698  :                         _Pnode = _Pnode->_Parent;

  00157	8b d1		 mov	 edx, ecx

; 481  :         _Nodeptr _Pnode   = _Wherenode->_Left;

  00159	8b c8		 mov	 ecx, eax

; 482  :         _Wherenode->_Left = _Pnode->_Right;

  0015b	8b 41 08	 mov	 eax, DWORD PTR [ecx+8]
  0015e	89 02		 mov	 DWORD PTR [edx], eax

; 483  : 
; 484  :         if (!_Pnode->_Right->_Isnil) {

  00160	8b 41 08	 mov	 eax, DWORD PTR [ecx+8]
  00163	80 78 0d 00	 cmp	 BYTE PTR [eax+13], 0
  00167	75 03		 jne	 SHORT $LN34@Insert_nod

; 485  :             _Pnode->_Right->_Parent = _Wherenode;

  00169	89 50 04	 mov	 DWORD PTR [eax+4], edx
$LN34@Insert_nod:

; 486  :         }
; 487  : 
; 488  :         _Pnode->_Parent = _Wherenode->_Parent;

  0016c	8b 03		 mov	 eax, DWORD PTR [ebx]
  0016e	89 41 04	 mov	 DWORD PTR [ecx+4], eax

; 489  : 
; 490  :         if (_Wherenode == _Myhead->_Parent) {

  00171	8b 45 fc	 mov	 eax, DWORD PTR _this$1$[ebp]
  00174	8b 00		 mov	 eax, DWORD PTR [eax]
  00176	3b 50 04	 cmp	 edx, DWORD PTR [eax+4]
  00179	75 05		 jne	 SHORT $LN35@Insert_nod

; 491  :             _Myhead->_Parent = _Pnode;

  0017b	89 48 04	 mov	 DWORD PTR [eax+4], ecx
  0017e	eb 0e		 jmp	 SHORT $LN38@Insert_nod
$LN35@Insert_nod:

; 492  :         } else if (_Wherenode == _Wherenode->_Parent->_Right) {

  00180	8b 03		 mov	 eax, DWORD PTR [ebx]
  00182	3b 50 08	 cmp	 edx, DWORD PTR [eax+8]
  00185	75 05		 jne	 SHORT $LN37@Insert_nod

; 493  :             _Wherenode->_Parent->_Right = _Pnode;

  00187	89 48 08	 mov	 DWORD PTR [eax+8], ecx

; 494  :         } else {

  0018a	eb 02		 jmp	 SHORT $LN38@Insert_nod
$LN37@Insert_nod:

; 495  :             _Wherenode->_Parent->_Left = _Pnode;

  0018c	89 08		 mov	 DWORD PTR [eax], ecx
$LN38@Insert_nod:

; 496  :         }
; 497  : 
; 498  :         _Pnode->_Right      = _Wherenode;

  0018e	89 51 08	 mov	 DWORD PTR [ecx+8], edx

; 499  :         _Wherenode->_Parent = _Pnode;

  00191	8b fb		 mov	 edi, ebx
  00193	89 0b		 mov	 DWORD PTR [ebx], ecx
$LN39@Insert_nod:

; 699  :                         _Rrotate(_Pnode);
; 700  :                     }
; 701  : 
; 702  :                     _Pnode->_Parent->_Color          = _Black; // propagate red up

  00195	c6 41 0c 01	 mov	 BYTE PTR [ecx+12], 1

; 703  :                     _Pnode->_Parent->_Parent->_Color = _Red;

  00199	8b 07		 mov	 eax, DWORD PTR [edi]
  0019b	8b 40 04	 mov	 eax, DWORD PTR [eax+4]
  0019e	c6 40 0c 00	 mov	 BYTE PTR [eax+12], 0

; 704  :                     _Lrotate(_Pnode->_Parent->_Parent);

  001a2	8b 07		 mov	 eax, DWORD PTR [edi]
  001a4	8b 48 04	 mov	 ecx, DWORD PTR [eax+4]

; 459  :         _Nodeptr _Pnode    = _Wherenode->_Right;

  001a7	8b 71 08	 mov	 esi, DWORD PTR [ecx+8]

; 460  :         _Wherenode->_Right = _Pnode->_Left;

  001aa	8b 06		 mov	 eax, DWORD PTR [esi]
  001ac	89 41 08	 mov	 DWORD PTR [ecx+8], eax

; 461  : 
; 462  :         if (!_Pnode->_Left->_Isnil) {

  001af	8b 06		 mov	 eax, DWORD PTR [esi]
  001b1	80 78 0d 00	 cmp	 BYTE PTR [eax+13], 0
  001b5	75 03		 jne	 SHORT $LN41@Insert_nod

; 463  :             _Pnode->_Left->_Parent = _Wherenode;

  001b7	89 48 04	 mov	 DWORD PTR [eax+4], ecx
$LN41@Insert_nod:

; 464  :         }
; 465  : 
; 466  :         _Pnode->_Parent = _Wherenode->_Parent;

  001ba	8b 41 04	 mov	 eax, DWORD PTR [ecx+4]
  001bd	89 46 04	 mov	 DWORD PTR [esi+4], eax

; 467  : 
; 468  :         if (_Wherenode == _Myhead->_Parent) {

  001c0	8b 45 fc	 mov	 eax, DWORD PTR _this$1$[ebp]
  001c3	8b 00		 mov	 eax, DWORD PTR [eax]
  001c5	3b 48 04	 cmp	 ecx, DWORD PTR [eax+4]
  001c8	75 05		 jne	 SHORT $LN42@Insert_nod

; 469  :             _Myhead->_Parent = _Pnode;

  001ca	89 70 04	 mov	 DWORD PTR [eax+4], esi
  001cd	eb 0e		 jmp	 SHORT $LN45@Insert_nod
$LN42@Insert_nod:

; 470  :         } else if (_Wherenode == _Wherenode->_Parent->_Left) {

  001cf	8b 41 04	 mov	 eax, DWORD PTR [ecx+4]
  001d2	3b 08		 cmp	 ecx, DWORD PTR [eax]
  001d4	75 04		 jne	 SHORT $LN44@Insert_nod

; 471  :             _Wherenode->_Parent->_Left = _Pnode;

  001d6	89 30		 mov	 DWORD PTR [eax], esi

; 472  :         } else {

  001d8	eb 03		 jmp	 SHORT $LN45@Insert_nod
$LN44@Insert_nod:

; 473  :             _Wherenode->_Parent->_Right = _Pnode;

  001da	89 70 08	 mov	 DWORD PTR [eax+8], esi
$LN45@Insert_nod:

; 474  :         }
; 475  : 
; 476  :         _Pnode->_Left       = _Wherenode;

  001dd	89 0e		 mov	 DWORD PTR [esi], ecx
$LN52@Insert_nod:

; 668  :             }
; 669  :         }
; 670  : 
; 671  :         for (_Nodeptr _Pnode = _Newnode; _Pnode->_Parent->_Color == _Red;) {

  001df	89 71 04	 mov	 DWORD PTR [ecx+4], esi
$LN46@Insert_nod:
  001e2	8b 42 04	 mov	 eax, DWORD PTR [edx+4]
  001e5	80 78 0c 00	 cmp	 BYTE PTR [eax+12], 0
  001e9	0f 84 71 fe ff
	ff		 je	 $LL2@Insert_nod
  001ef	8b 4d f8	 mov	 ecx, DWORD PTR __Head$1$[ebp]
  001f2	5f		 pop	 edi
  001f3	5e		 pop	 esi
  001f4	5b		 pop	 ebx
$LN3@Insert_nod:

; 705  :                 }
; 706  :             }
; 707  :         }
; 708  : 
; 709  :         _Head->_Parent->_Color = _Black; // root is always black

  001f5	8b 41 04	 mov	 eax, DWORD PTR [ecx+4]
  001f8	c6 40 0c 01	 mov	 BYTE PTR [eax+12], 1

; 710  :         return _Newnode;

  001fc	8b 45 10	 mov	 eax, DWORD PTR __Newnode$[ebp]

; 711  :     }

  001ff	8b e5		 mov	 esp, ebp
  00201	5d		 pop	 ebp
  00202	c2 0c 00	 ret	 12			; 0000000cH
?_Insert_node@?$_Tree_val@U?$_Tree_simple_types@U?$pair@QAVCActorInstance@@M@std@@@std@@@std@@QAEPAU?$_Tree_node@U?$pair@QAVCActorInstance@@M@std@@PAX@2@U?$_Tree_id@PAU?$_Tree_node@U?$pair@QAVCActorInstance@@M@std@@PAX@std@@@2@QAU32@@Z ENDP ; std::_Tree_val<std::_Tree_simple_types<std::pair<CActorInstance * const,float> > >::_Insert_node
_TEXT	ENDS
; Function compile flags: /Ogtp
; File C:\Program Files (x86)\Microsoft Visual Studio\2019\Community\VC\Tools\MSVC\14.27.29110\include\xtree
;	COMDAT ?_Getal@?$_Tree@V?$_Tmap_traits@PAVCActorInstance@@MU?$less@PAVCActorInstance@@@std@@V?$allocator@U?$pair@QAVCActorInstance@@M@std@@@3@$0A@@std@@@std@@IAEAAV?$allocator@U?$_Tree_node@U?$pair@QAVCActorInstance@@M@std@@PAX@std@@@2@XZ
_TEXT	SEGMENT
?_Getal@?$_Tree@V?$_Tmap_traits@PAVCActorInstance@@MU?$less@PAVCActorInstance@@@std@@V?$allocator@U?$pair@QAVCActorInstance@@M@std@@@3@$0A@@std@@@std@@IAEAAV?$allocator@U?$_Tree_node@U?$pair@QAVCActorInstance@@M@std@@PAX@std@@@2@XZ PROC ; std::_Tree<std::_Tmap_traits<CActorInstance *,float,std::less<CActorInstance *>,std::allocator<std::pair<CActorInstance * const,float> >,0> >::_Getal, COMDAT
; _this$ = ecx

; 2039 :         return _Mypair._Myval2._Get_first();

  00000	8b c1		 mov	 eax, ecx

; 2040 :     }

  00002	c3		 ret	 0
?_Getal@?$_Tree@V?$_Tmap_traits@PAVCActorInstance@@MU?$less@PAVCActorInstance@@@std@@V?$allocator@U?$pair@QAVCActorInstance@@M@std@@@3@$0A@@std@@@std@@IAEAAV?$allocator@U?$_Tree_node@U?$pair@QAVCActorInstance@@M@std@@PAX@std@@@2@XZ ENDP ; std::_Tree<std::_Tmap_traits<CActorInstance *,float,std::less<CActorInstance *>,std::allocator<std::pair<CActorInstance * const,float> >,0> >::_Getal
_TEXT	ENDS
; Function compile flags: /Ogtp
; File C:\Program Files (x86)\Microsoft Visual Studio\2019\Community\VC\Tools\MSVC\14.27.29110\include\vector
;	COMDAT ?_Xrange@?$vector@UCDynamicSphereInstance@@V?$allocator@UCDynamicSphereInstance@@@std@@@std@@CAXXZ
_TEXT	SEGMENT
?_Xrange@?$vector@UCDynamicSphereInstance@@V?$allocator@UCDynamicSphereInstance@@@std@@@std@@CAXXZ PROC ; std::vector<CDynamicSphereInstance,std::allocator<CDynamicSphereInstance> >::_Xrange, COMDAT

; 1708 :         _Xout_of_range("invalid vector subscript");

  00000	68 00 00 00 00	 push	 OFFSET ??_C@_0BJ@DHFDPMIM@invalid?5vector?5subscript@
  00005	e8 00 00 00 00	 call	 ?_Xout_of_range@std@@YAXPBD@Z ; std::_Xout_of_range
$LN3@Xrange:
  0000a	cc		 int	 3
?_Xrange@?$vector@UCDynamicSphereInstance@@V?$allocator@UCDynamicSphereInstance@@@std@@@std@@CAXXZ ENDP ; std::vector<CDynamicSphereInstance,std::allocator<CDynamicSphereInstance> >::_Xrange
_TEXT	ENDS
; Function compile flags: /Ogtp
; File C:\Program Files (x86)\Microsoft Visual Studio\2019\Community\VC\Tools\MSVC\14.27.29110\include\vector
;	COMDAT ?_Xlength@?$vector@UCDynamicSphereInstance@@V?$allocator@UCDynamicSphereInstance@@@std@@@std@@CAXXZ
_TEXT	SEGMENT
?_Xlength@?$vector@UCDynamicSphereInstance@@V?$allocator@UCDynamicSphereInstance@@@std@@@std@@CAXXZ PROC ; std::vector<CDynamicSphereInstance,std::allocator<CDynamicSphereInstance> >::_Xlength, COMDAT

; 1704 :         _Xlength_error("vector too long");

  00000	68 00 00 00 00	 push	 OFFSET ??_C@_0BA@FOIKENOD@vector?5too?5long@
  00005	e8 00 00 00 00	 call	 ?_Xlength_error@std@@YAXPBD@Z ; std::_Xlength_error
$LN3@Xlength:
  0000a	cc		 int	 3
?_Xlength@?$vector@UCDynamicSphereInstance@@V?$allocator@UCDynamicSphereInstance@@@std@@@std@@CAXXZ ENDP ; std::vector<CDynamicSphereInstance,std::allocator<CDynamicSphereInstance> >::_Xlength
_TEXT	ENDS
; Function compile flags: /Ogtp
; File C:\Program Files (x86)\Microsoft Visual Studio\2019\Community\VC\Tools\MSVC\14.27.29110\include\vector
; File C:\Program Files (x86)\Microsoft Visual Studio\2019\Community\VC\Tools\MSVC\14.27.29110\include\xmemory
; File C:\Program Files (x86)\Microsoft Visual Studio\2019\Community\VC\Tools\MSVC\14.27.29110\include\vector
;	COMDAT ?_Change_array@?$vector@UCDynamicSphereInstance@@V?$allocator@UCDynamicSphereInstance@@@std@@@std@@AAEXQAUCDynamicSphereInstance@@II@Z
_TEXT	SEGMENT
__Newvec$ = 8						; size = 4
__Newsize$ = 12						; size = 4
__Newcapacity$ = 16					; size = 4
?_Change_array@?$vector@UCDynamicSphereInstance@@V?$allocator@UCDynamicSphereInstance@@@std@@@std@@AAEXQAUCDynamicSphereInstance@@II@Z PROC ; std::vector<CDynamicSphereInstance,std::allocator<CDynamicSphereInstance> >::_Change_array, COMDAT
; _this$ = ecx

; 1666 :     void _Change_array(const pointer _Newvec, const size_type _Newsize, const size_type _Newcapacity) {

  00000	55		 push	 ebp
  00001	8b ec		 mov	 ebp, esp
  00003	56		 push	 esi
  00004	8b f1		 mov	 esi, ecx
  00006	57		 push	 edi

; 1667 :         // orphan all iterators, discard old array, acquire new array
; 1668 :         auto& _My_data    = _Mypair._Myval2;
; 1669 :         pointer& _Myfirst = _My_data._Myfirst;
; 1670 :         pointer& _Mylast  = _My_data._Mylast;
; 1671 :         pointer& _Myend   = _My_data._Myend;
; 1672 : 
; 1673 :         _My_data._Orphan_all();
; 1674 : 
; 1675 :         if (_Myfirst) { // destroy and deallocate old array

  00007	8b 3e		 mov	 edi, DWORD PTR [esi]
  00009	85 ff		 test	 edi, edi
  0000b	74 2e		 je	 SHORT $LN2@Change_arr

; 1676 :             _Destroy(_Myfirst, _Mylast);
; 1677 :             _Getal().deallocate(_Myfirst, static_cast<size_type>(_Myend - _Myfirst));

  0000d	8b 4e 08	 mov	 ecx, DWORD PTR [esi+8]
  00010	b8 93 24 49 92	 mov	 eax, -1840700269	; 92492493H
  00015	2b cf		 sub	 ecx, edi
  00017	f7 e9		 imul	 ecx
  00019	03 d1		 add	 edx, ecx
  0001b	c1 fa 04	 sar	 edx, 4
  0001e	8b ca		 mov	 ecx, edx
  00020	c1 e9 1f	 shr	 ecx, 31			; 0000001fH
  00023	03 ca		 add	 ecx, edx
; File C:\Program Files (x86)\Microsoft Visual Studio\2019\Community\VC\Tools\MSVC\14.27.29110\include\xmemory

; 803  :         _Deallocate<_New_alignof<_Ty>>(_Ptr, sizeof(_Ty) * _Count);

  00025	8d 04 cd 00 00
	00 00		 lea	 eax, DWORD PTR [ecx*8]
  0002c	2b c1		 sub	 eax, ecx
  0002e	c1 e0 02	 shl	 eax, 2
  00031	50		 push	 eax
  00032	57		 push	 edi
  00033	e8 00 00 00 00	 call	 ??$_Deallocate@$07$0A@@std@@YAXPAXI@Z ; std::_Deallocate<8,0>
  00038	83 c4 08	 add	 esp, 8
$LN2@Change_arr:
; File C:\Program Files (x86)\Microsoft Visual Studio\2019\Community\VC\Tools\MSVC\14.27.29110\include\vector

; 1681 :         _Mylast  = _Newvec + _Newsize;

  0003b	8b 45 0c	 mov	 eax, DWORD PTR __Newsize$[ebp]
  0003e	8b 55 08	 mov	 edx, DWORD PTR __Newvec$[ebp]
  00041	89 16		 mov	 DWORD PTR [esi], edx

; 1682 :         _Myend   = _Newvec + _Newcapacity;

  00043	5f		 pop	 edi
  00044	8d 0c c5 00 00
	00 00		 lea	 ecx, DWORD PTR [eax*8]
  0004b	2b c8		 sub	 ecx, eax
  0004d	8d 04 8a	 lea	 eax, DWORD PTR [edx+ecx*4]
  00050	89 46 04	 mov	 DWORD PTR [esi+4], eax
  00053	8b 45 10	 mov	 eax, DWORD PTR __Newcapacity$[ebp]
  00056	8d 0c c5 00 00
	00 00		 lea	 ecx, DWORD PTR [eax*8]
  0005d	2b c8		 sub	 ecx, eax
  0005f	8d 04 8a	 lea	 eax, DWORD PTR [edx+ecx*4]
  00062	89 46 08	 mov	 DWORD PTR [esi+8], eax
  00065	5e		 pop	 esi

; 1683 :     }

  00066	5d		 pop	 ebp
  00067	c2 0c 00	 ret	 12			; 0000000cH
?_Change_array@?$vector@UCDynamicSphereInstance@@V?$allocator@UCDynamicSphereInstance@@@std@@@std@@AAEXQAUCDynamicSphereInstance@@II@Z ENDP ; std::vector<CDynamicSphereInstance,std::allocator<CDynamicSphereInstance> >::_Change_array
_TEXT	ENDS
; Function compile flags: /Ogtp
; File C:\Program Files (x86)\Microsoft Visual Studio\2019\Community\VC\Tools\MSVC\14.27.29110\include\vector
; File C:\Program Files (x86)\Microsoft Visual Studio\2019\Community\VC\Tools\MSVC\14.27.29110\include\xmemory
; File C:\Program Files (x86)\Microsoft Visual Studio\2019\Community\VC\Tools\MSVC\14.27.29110\include\vector
; File C:\Program Files (x86)\Microsoft Visual Studio\2019\Community\VC\Tools\MSVC\14.27.29110\include\xmemory
; File C:\Program Files (x86)\Microsoft Visual Studio\2019\Community\VC\Tools\MSVC\14.27.29110\include\vector
; File C:\Program Files (x86)\Microsoft Visual Studio\2019\Community\VC\Tools\MSVC\14.27.29110\include\xmemory
; File C:\Program Files (x86)\Microsoft Visual Studio\2019\Community\VC\Tools\MSVC\14.27.29110\include\vector
; File C:\Program Files (x86)\Microsoft Visual Studio\2019\Community\VC\Tools\MSVC\14.27.29110\include\xmemory
; File C:\Program Files (x86)\Microsoft Visual Studio\2019\Community\VC\Tools\MSVC\14.27.29110\include\vector
;	COMDAT ?_Reallocate_exactly@?$vector@UCDynamicSphereInstance@@V?$allocator@UCDynamicSphereInstance@@@std@@@std@@AAEXI@Z
_TEXT	SEGMENT
__Newcapacity$ = 8					; size = 4
?_Reallocate_exactly@?$vector@UCDynamicSphereInstance@@V?$allocator@UCDynamicSphereInstance@@@std@@@std@@AAEXI@Z PROC ; std::vector<CDynamicSphereInstance,std::allocator<CDynamicSphereInstance> >::_Reallocate_exactly, COMDAT
; _this$ = ecx

; 1251 :     void _Reallocate_exactly(const size_type _Newcapacity) {

  00000	55		 push	 ebp
  00001	8b ec		 mov	 ebp, esp
  00003	53		 push	 ebx
  00004	56		 push	 esi
  00005	57		 push	 edi
  00006	8b f9		 mov	 edi, ecx

; 1257 :         const auto _Size = static_cast<size_type>(_Mylast - _Myfirst);

  00008	b8 93 24 49 92	 mov	 eax, -1840700269	; 92492493H
; File C:\Program Files (x86)\Microsoft Visual Studio\2019\Community\VC\Tools\MSVC\14.27.29110\include\xmemory

; 60   :         if (_Count > _Max_possible) {

  0000d	8b 4d 08	 mov	 ecx, DWORD PTR __Newcapacity$[ebp]
; File C:\Program Files (x86)\Microsoft Visual Studio\2019\Community\VC\Tools\MSVC\14.27.29110\include\vector

; 1257 :         const auto _Size = static_cast<size_type>(_Mylast - _Myfirst);

  00010	8b 77 04	 mov	 esi, DWORD PTR [edi+4]
  00013	2b 37		 sub	 esi, DWORD PTR [edi]
  00015	f7 ee		 imul	 esi
  00017	03 d6		 add	 edx, esi
  00019	c1 fa 04	 sar	 edx, 4
  0001c	8b da		 mov	 ebx, edx
  0001e	c1 eb 1f	 shr	 ebx, 31			; 0000001fH
  00021	03 da		 add	 ebx, edx
; File C:\Program Files (x86)\Microsoft Visual Studio\2019\Community\VC\Tools\MSVC\14.27.29110\include\xmemory

; 60   :         if (_Count > _Max_possible) {

  00023	81 f9 49 92 24
	09		 cmp	 ecx, 153391689		; 09249249H
  00029	77 36		 ja	 SHORT $LN21@Reallocate

; 62   :         }
; 63   :     }
; 64   : 
; 65   :     return _Count * _Ty_size;

  0002b	8d 04 cd 00 00
	00 00		 lea	 eax, DWORD PTR [ecx*8]
  00032	2b c1		 sub	 eax, ecx
  00034	c1 e0 02	 shl	 eax, 2

; 807  :         return static_cast<_Ty*>(_Allocate<_New_alignof<_Ty>>(_Get_size_of_n<sizeof(_Ty)>(_Count)));

  00037	50		 push	 eax
  00038	e8 00 00 00 00	 call	 ??$_Allocate@$07U_Default_allocate_traits@std@@$0A@@std@@YAPAXI@Z ; std::_Allocate<8,std::_Default_allocate_traits,0>
; File C:\Program Files (x86)\Microsoft Visual Studio\2019\Community\VC\Tools\MSVC\14.27.29110\include\vector

; 1597 :         _Uninitialized_move(_First, _Last, _Dest, _Getal());

  0003d	57		 push	 edi
; File C:\Program Files (x86)\Microsoft Visual Studio\2019\Community\VC\Tools\MSVC\14.27.29110\include\xmemory

; 807  :         return static_cast<_Ty*>(_Allocate<_New_alignof<_Ty>>(_Get_size_of_n<sizeof(_Ty)>(_Count)));

  0003e	8b f0		 mov	 esi, eax
; File C:\Program Files (x86)\Microsoft Visual Studio\2019\Community\VC\Tools\MSVC\14.27.29110\include\vector

; 1597 :         _Uninitialized_move(_First, _Last, _Dest, _Getal());

  00040	56		 push	 esi
  00041	ff 77 04	 push	 DWORD PTR [edi+4]
  00044	ff 37		 push	 DWORD PTR [edi]
  00046	e8 00 00 00 00	 call	 ??$_Uninitialized_move@PAUCDynamicSphereInstance@@V?$allocator@UCDynamicSphereInstance@@@std@@@std@@YAPAUCDynamicSphereInstance@@QAU1@0PAU1@AAV?$allocator@UCDynamicSphereInstance@@@0@@Z ; std::_Uninitialized_move<CDynamicSphereInstance *,std::allocator<CDynamicSphereInstance> >
  0004b	83 c4 14	 add	 esp, 20			; 00000014H

; 1258 : 
; 1259 :         const pointer _Newvec = _Getal().allocate(_Newcapacity);
; 1260 : 
; 1261 :         _TRY_BEGIN
; 1262 :         _Umove_if_noexcept(_Myfirst, _Mylast, _Newvec);
; 1263 :         _CATCH_ALL
; 1264 :         _Getal().deallocate(_Newvec, _Newcapacity);
; 1265 :         _RERAISE;
; 1266 :         _CATCH_END
; 1267 : 
; 1268 :         _Change_array(_Newvec, _Size, _Newcapacity);

  0004e	8b cf		 mov	 ecx, edi
  00050	ff 75 08	 push	 DWORD PTR __Newcapacity$[ebp]
  00053	53		 push	 ebx
  00054	56		 push	 esi
  00055	e8 00 00 00 00	 call	 ?_Change_array@?$vector@UCDynamicSphereInstance@@V?$allocator@UCDynamicSphereInstance@@@std@@@std@@AAEXQAUCDynamicSphereInstance@@II@Z ; std::vector<CDynamicSphereInstance,std::allocator<CDynamicSphereInstance> >::_Change_array
  0005a	5f		 pop	 edi
  0005b	5e		 pop	 esi
  0005c	5b		 pop	 ebx

; 1269 :     }

  0005d	5d		 pop	 ebp
  0005e	c2 04 00	 ret	 4
$LN21@Reallocate:
; File C:\Program Files (x86)\Microsoft Visual Studio\2019\Community\VC\Tools\MSVC\14.27.29110\include\xmemory

; 61   :             _Throw_bad_array_new_length(); // multiply overflow

  00061	e8 00 00 00 00	 call	 ?_Throw_bad_array_new_length@std@@YAXXZ ; std::_Throw_bad_array_new_length
$LN19@Reallocate:
  00066	cc		 int	 3
?_Reallocate_exactly@?$vector@UCDynamicSphereInstance@@V?$allocator@UCDynamicSphereInstance@@@std@@@std@@AAEXI@Z ENDP ; std::vector<CDynamicSphereInstance,std::allocator<CDynamicSphereInstance> >::_Reallocate_exactly
_TEXT	ENDS
; Function compile flags: /Ogtp
; File C:\Program Files (x86)\Microsoft Visual Studio\2019\Community\VC\Tools\MSVC\14.27.29110\include\xmemory
;	COMDAT ??$_Allocate_manually_vector_aligned@U_Default_allocate_traits@std@@@std@@YAPAXI@Z
_TEXT	SEGMENT
__Bytes$ = 8						; size = 4
??$_Allocate_manually_vector_aligned@U_Default_allocate_traits@std@@@std@@YAPAXI@Z PROC ; std::_Allocate_manually_vector_aligned<std::_Default_allocate_traits>, COMDAT

; 113  : __declspec(allocator) void* _Allocate_manually_vector_aligned(const size_t _Bytes) {

  00000	55		 push	 ebp
  00001	8b ec		 mov	 ebp, esp

; 114  :     // allocate _Bytes manually aligned to at least _Big_allocation_alignment
; 115  :     const size_t _Block_size = _Non_user_size + _Bytes;

  00003	8b 45 08	 mov	 eax, DWORD PTR __Bytes$[ebp]
  00006	8d 48 23	 lea	 ecx, DWORD PTR [eax+35]

; 116  :     if (_Block_size <= _Bytes) {

  00009	3b c8		 cmp	 ecx, eax
  0000b	0f 86 00 00 00
	00		 jbe	 ?_Throw_bad_array_new_length@std@@YAXXZ ; std::_Throw_bad_array_new_length

; 77   :         return ::operator new(_Bytes);

  00011	51		 push	 ecx
  00012	e8 00 00 00 00	 call	 ??2@YAPAXI@Z		; operator new

; 117  :         _Throw_bad_array_new_length(); // add overflow
; 118  :     }
; 119  : 
; 120  :     const uintptr_t _Ptr_container = reinterpret_cast<uintptr_t>(_Traits::_Allocate(_Block_size));

  00017	8b c8		 mov	 ecx, eax

; 77   :         return ::operator new(_Bytes);

  00019	83 c4 04	 add	 esp, 4

; 121  :     _STL_VERIFY(_Ptr_container != 0, "invalid argument"); // validate even in release since we're doing p[-1]

  0001c	85 c9		 test	 ecx, ecx
  0001e	74 0b		 je	 SHORT $LN7@Allocate_m

; 122  :     void* const _Ptr = reinterpret_cast<void*>((_Ptr_container + _Non_user_size) & ~(_Big_allocation_alignment - 1));

  00020	8d 41 23	 lea	 eax, DWORD PTR [ecx+35]
  00023	83 e0 e0	 and	 eax, -32		; ffffffe0H

; 123  :     static_cast<uintptr_t*>(_Ptr)[-1] = _Ptr_container;

  00026	89 48 fc	 mov	 DWORD PTR [eax-4], ecx

; 124  : 
; 125  : #ifdef _DEBUG
; 126  :     static_cast<uintptr_t*>(_Ptr)[-2] = _Big_allocation_sentinel;
; 127  : #endif // _DEBUG
; 128  :     return _Ptr;
; 129  : }

  00029	5d		 pop	 ebp
  0002a	c3		 ret	 0
$LN7@Allocate_m:

; 121  :     _STL_VERIFY(_Ptr_container != 0, "invalid argument"); // validate even in release since we're doing p[-1]

  0002b	e9 00 00 00 00	 jmp	 __invalid_parameter_noinfo_noreturn
??$_Allocate_manually_vector_aligned@U_Default_allocate_traits@std@@@std@@YAPAXI@Z ENDP ; std::_Allocate_manually_vector_aligned<std::_Default_allocate_traits>
_TEXT	ENDS
; Function compile flags: /Ogtp
; File C:\Program Files (x86)\Microsoft Visual Studio\2019\Community\VC\Tools\MSVC\14.27.29110\include\xmemory
;	COMDAT ??$_Allocate@$07U_Default_allocate_traits@std@@$0A@@std@@YAPAXI@Z
_TEXT	SEGMENT
__Bytes$ = 8						; size = 4
??$_Allocate@$07U_Default_allocate_traits@std@@$0A@@std@@YAPAXI@Z PROC ; std::_Allocate<8,std::_Default_allocate_traits,0>, COMDAT

; 197  : __declspec(allocator) void* _Allocate(const size_t _Bytes) {

  00000	55		 push	 ebp
  00001	8b ec		 mov	 ebp, esp

; 198  :     // allocate _Bytes when !_HAS_ALIGNED_NEW || _Align <= __STDCPP_DEFAULT_NEW_ALIGNMENT__
; 199  : #if defined(_M_IX86) || defined(_M_X64)
; 200  :     if (_Bytes >= _Big_allocation_threshold) { // boost the alignment of big allocations to help autovectorization

  00003	8b 45 08	 mov	 eax, DWORD PTR __Bytes$[ebp]
  00006	3d 00 10 00 00	 cmp	 eax, 4096		; 00001000H
  0000b	72 09		 jb	 SHORT $LN2@Allocate

; 201  :         return _Allocate_manually_vector_aligned<_Traits>(_Bytes);

  0000d	89 45 08	 mov	 DWORD PTR __Bytes$[ebp], eax

; 210  : }

  00010	5d		 pop	 ebp

; 201  :         return _Allocate_manually_vector_aligned<_Traits>(_Bytes);

  00011	e9 00 00 00 00	 jmp	 ??$_Allocate_manually_vector_aligned@U_Default_allocate_traits@std@@@std@@YAPAXI@Z ; std::_Allocate_manually_vector_aligned<std::_Default_allocate_traits>
$LN2@Allocate:

; 202  :     }
; 203  : #endif // defined(_M_IX86) || defined(_M_X64)
; 204  : 
; 205  :     if (_Bytes != 0) {

  00016	85 c0		 test	 eax, eax
  00018	74 09		 je	 SHORT $LN3@Allocate

; 77   :         return ::operator new(_Bytes);

  0001a	89 45 08	 mov	 DWORD PTR __Bytes$[ebp], eax

; 210  : }

  0001d	5d		 pop	 ebp

; 77   :         return ::operator new(_Bytes);

  0001e	e9 00 00 00 00	 jmp	 ??2@YAPAXI@Z		; operator new
$LN3@Allocate:

; 206  :         return _Traits::_Allocate(_Bytes);
; 207  :     }
; 208  : 
; 209  :     return nullptr;

  00023	33 c0		 xor	 eax, eax

; 210  : }

  00025	5d		 pop	 ebp
  00026	c3		 ret	 0
??$_Allocate@$07U_Default_allocate_traits@std@@$0A@@std@@YAPAXI@Z ENDP ; std::_Allocate<8,std::_Default_allocate_traits,0>
_TEXT	ENDS
; Function compile flags: /Ogtp
; File C:\Program Files (x86)\Microsoft Visual Studio\2019\Community\VC\Tools\MSVC\14.27.29110\include\xmemory
;	COMDAT ??$_Deallocate@$07$0A@@std@@YAXPAXI@Z
_TEXT	SEGMENT
__Ptr$ = 8						; size = 4
__Bytes$ = 12						; size = 4
??$_Deallocate@$07$0A@@std@@YAXPAXI@Z PROC		; std::_Deallocate<8,0>, COMDAT

; 213  : void _Deallocate(void* _Ptr, size_t _Bytes) noexcept {

  00000	55		 push	 ebp
  00001	8b ec		 mov	 ebp, esp

; 214  :     // deallocate storage allocated by _Allocate when !_HAS_ALIGNED_NEW || _Align <= __STDCPP_DEFAULT_NEW_ALIGNMENT__
; 215  : #if defined(_M_IX86) || defined(_M_X64)
; 216  :     if (_Bytes >= _Big_allocation_threshold) { // boost the alignment of big allocations to help autovectorization

  00003	8b 4d 0c	 mov	 ecx, DWORD PTR __Bytes$[ebp]
  00006	81 f9 00 10 00
	00		 cmp	 ecx, 4096		; 00001000H
  0000c	72 18		 jb	 SHORT $LN15@Deallocate

; 137  :     const uintptr_t _Ptr_container   = _Ptr_user[-1];

  0000e	8b 45 08	 mov	 eax, DWORD PTR __Ptr$[ebp]
  00011	83 c1 23	 add	 ecx, 35			; 00000023H
  00014	8b 50 fc	 mov	 edx, DWORD PTR [eax-4]

; 138  : 
; 139  :     // If the following asserts, it likely means that we are performing
; 140  :     // an aligned delete on memory coming from an unaligned allocation.
; 141  :     _STL_ASSERT(_Ptr_user[-2] == _Big_allocation_sentinel, "invalid argument");
; 142  : 
; 143  :     // Extra paranoia on aligned allocation/deallocation; ensure _Ptr_container is
; 144  :     // in range [_Min_back_shift, _Non_user_size]
; 145  : #ifdef _DEBUG
; 146  :     constexpr uintptr_t _Min_back_shift = 2 * sizeof(void*);
; 147  : #else // ^^^ _DEBUG ^^^ // vvv !_DEBUG vvv
; 148  :     constexpr uintptr_t _Min_back_shift = sizeof(void*);
; 149  : #endif // _DEBUG
; 150  :     const uintptr_t _Back_shift = reinterpret_cast<uintptr_t>(_Ptr) - _Ptr_container;

  00017	2b c2		 sub	 eax, edx

; 151  :     _STL_VERIFY(_Back_shift >= _Min_back_shift && _Back_shift <= _Non_user_size, "invalid argument");

  00019	83 c0 fc	 add	 eax, -4			; fffffffcH
  0001c	83 f8 1f	 cmp	 eax, 31			; 0000001fH
  0001f	76 08		 jbe	 SHORT $LN13@Deallocate
  00021	e9 00 00 00 00	 jmp	 __invalid_parameter_noinfo_noreturn
$LN15@Deallocate:

; 214  :     // deallocate storage allocated by _Allocate when !_HAS_ALIGNED_NEW || _Align <= __STDCPP_DEFAULT_NEW_ALIGNMENT__
; 215  : #if defined(_M_IX86) || defined(_M_X64)
; 216  :     if (_Bytes >= _Big_allocation_threshold) { // boost the alignment of big allocations to help autovectorization

  00026	8b 55 08	 mov	 edx, DWORD PTR __Ptr$[ebp]
$LN13@Deallocate:

; 217  :         _Adjust_manually_vector_aligned(_Ptr, _Bytes);
; 218  :     }
; 219  : #endif // defined(_M_IX86) || defined(_M_X64)
; 220  : 
; 221  :     ::operator delete(_Ptr, _Bytes);

  00029	89 4d 0c	 mov	 DWORD PTR __Bytes$[ebp], ecx
  0002c	89 55 08	 mov	 DWORD PTR __Ptr$[ebp], edx

; 222  : }

  0002f	5d		 pop	 ebp

; 217  :         _Adjust_manually_vector_aligned(_Ptr, _Bytes);
; 218  :     }
; 219  : #endif // defined(_M_IX86) || defined(_M_X64)
; 220  : 
; 221  :     ::operator delete(_Ptr, _Bytes);

  00030	e9 00 00 00 00	 jmp	 ??3@YAXPAXI@Z		; operator delete
??$_Deallocate@$07$0A@@std@@YAXPAXI@Z ENDP		; std::_Deallocate<8,0>
_TEXT	ENDS
; Function compile flags: /Ogtp
; File C:\Program Files (x86)\Microsoft Visual Studio\2019\Community\VC\Tools\MSVC\14.27.29110\include\xtree
;	COMDAT ?_Throw_tree_length_error@std@@YAXXZ
_TEXT	SEGMENT
?_Throw_tree_length_error@std@@YAXXZ PROC		; std::_Throw_tree_length_error, COMDAT

; 415  :     _Xlength_error("map/set too long");

  00000	68 00 00 00 00	 push	 OFFSET ??_C@_0BB@GCADKGJO@map?1set?5too?5long@
  00005	e8 00 00 00 00	 call	 ?_Xlength_error@std@@YAXPBD@Z ; std::_Xlength_error
$LN3@Throw_tree:
  0000a	cc		 int	 3
?_Throw_tree_length_error@std@@YAXXZ ENDP		; std::_Throw_tree_length_error
_TEXT	ENDS
; Function compile flags: /Ogtp
; File C:\DS Project\DS Files\Source\ClientSource\extern\include\d3dx8math.h
;	COMDAT ??0D3DXMATRIX@@QAE@XZ
_TEXT	SEGMENT
??0D3DXMATRIX@@QAE@XZ PROC				; D3DXMATRIX::D3DXMATRIX, COMDAT
; _this$ = ecx

; 177  :     D3DXMATRIX() {};

  00000	8b c1		 mov	 eax, ecx
  00002	c3		 ret	 0
??0D3DXMATRIX@@QAE@XZ ENDP				; D3DXMATRIX::D3DXMATRIX
_TEXT	ENDS
; Function compile flags: /Ogtp
; File C:\Program Files (x86)\Microsoft Visual Studio\2019\Community\VC\Tools\MSVC\14.27.29110\include\exception
;	COMDAT ?_Throw_bad_array_new_length@std@@YAXXZ
_TEXT	SEGMENT
$T1 = -12						; size = 12
?_Throw_bad_array_new_length@std@@YAXXZ PROC		; std::_Throw_bad_array_new_length, COMDAT

; 320  : [[noreturn]] inline void _Throw_bad_array_new_length() {

  00000	55		 push	 ebp
  00001	8b ec		 mov	 ebp, esp
  00003	83 ec 0c	 sub	 esp, 12			; 0000000cH

; 321  :     _THROW(bad_array_new_length{});

  00006	8d 4d f4	 lea	 ecx, DWORD PTR $T1[ebp]
  00009	e8 00 00 00 00	 call	 ??0bad_array_new_length@std@@QAE@XZ ; std::bad_array_new_length::bad_array_new_length
  0000e	68 00 00 00 00	 push	 OFFSET __TI3?AVbad_array_new_length@std@@
  00013	8d 45 f4	 lea	 eax, DWORD PTR $T1[ebp]
  00016	50		 push	 eax
  00017	e8 00 00 00 00	 call	 __CxxThrowException@8
$LN3@Throw_bad_:
  0001c	cc		 int	 3
?_Throw_bad_array_new_length@std@@YAXXZ ENDP		; std::_Throw_bad_array_new_length
_TEXT	ENDS
; Function compile flags: /Ogtp
; File C:\Program Files (x86)\Microsoft Visual Studio\2019\Community\VC\Tools\MSVC\14.27.29110\include\vcruntime_exception.h
;	COMDAT ??_Gbad_array_new_length@std@@UAEPAXI@Z
_TEXT	SEGMENT
___flags$ = 8						; size = 4
??_Gbad_array_new_length@std@@UAEPAXI@Z PROC		; std::bad_array_new_length::`scalar deleting destructor', COMDAT
; _this$ = ecx
  00000	55		 push	 ebp
  00001	8b ec		 mov	 ebp, esp

; 89   :     {

  00003	56		 push	 esi
  00004	8b f1		 mov	 esi, ecx

; 90   :         __std_exception_destroy(&_Data);

  00006	8d 46 04	 lea	 eax, DWORD PTR [esi+4]
  00009	c7 06 00 00 00
	00		 mov	 DWORD PTR [esi], OFFSET ??_7exception@std@@6B@
  0000f	50		 push	 eax
  00010	e8 00 00 00 00	 call	 ___std_exception_destroy
  00015	83 c4 04	 add	 esp, 4
  00018	f6 45 08 01	 test	 BYTE PTR ___flags$[ebp], 1
  0001c	74 0b		 je	 SHORT $LN12@scalar
  0001e	6a 0c		 push	 12			; 0000000cH
  00020	56		 push	 esi
  00021	e8 00 00 00 00	 call	 ??3@YAXPAXI@Z		; operator delete
  00026	83 c4 08	 add	 esp, 8
$LN12@scalar:
  00029	8b c6		 mov	 eax, esi
  0002b	5e		 pop	 esi
  0002c	5d		 pop	 ebp
  0002d	c2 04 00	 ret	 4
??_Gbad_array_new_length@std@@UAEPAXI@Z ENDP		; std::bad_array_new_length::`scalar deleting destructor'
_TEXT	ENDS
; Function compile flags: /Ogtp
; File C:\Program Files (x86)\Microsoft Visual Studio\2019\Community\VC\Tools\MSVC\14.27.29110\include\vcruntime_exception.h
;	COMDAT ??0bad_array_new_length@std@@QAE@ABV01@@Z
_TEXT	SEGMENT
___that$ = 8						; size = 4
??0bad_array_new_length@std@@QAE@ABV01@@Z PROC		; std::bad_array_new_length::bad_array_new_length, COMDAT
; _this$ = ecx
  00000	55		 push	 ebp
  00001	8b ec		 mov	 ebp, esp

; 72   :     {

  00003	56		 push	 esi
  00004	8b f1		 mov	 esi, ecx
  00006	0f 57 c0	 xorps	 xmm0, xmm0

; 71   :         : _Data()

  00009	8d 46 04	 lea	 eax, DWORD PTR [esi+4]

; 73   :         __std_exception_copy(&_Other._Data, &_Data);

  0000c	50		 push	 eax
  0000d	c7 06 00 00 00
	00		 mov	 DWORD PTR [esi], OFFSET ??_7exception@std@@6B@
  00013	66 0f d6 00	 movq	 QWORD PTR [eax], xmm0
  00017	8b 45 08	 mov	 eax, DWORD PTR ___that$[ebp]
  0001a	83 c0 04	 add	 eax, 4
  0001d	50		 push	 eax
  0001e	e8 00 00 00 00	 call	 ___std_exception_copy
  00023	83 c4 08	 add	 esp, 8
  00026	c7 06 00 00 00
	00		 mov	 DWORD PTR [esi], OFFSET ??_7bad_array_new_length@std@@6B@
  0002c	8b c6		 mov	 eax, esi
  0002e	5e		 pop	 esi
  0002f	5d		 pop	 ebp
  00030	c2 04 00	 ret	 4
??0bad_array_new_length@std@@QAE@ABV01@@Z ENDP		; std::bad_array_new_length::bad_array_new_length
_TEXT	ENDS
; Function compile flags: /Ogtp
; File C:\Program Files (x86)\Microsoft Visual Studio\2019\Community\VC\Tools\MSVC\14.27.29110\include\vcruntime_exception.h
;	COMDAT ??1bad_array_new_length@std@@UAE@XZ
_TEXT	SEGMENT
??1bad_array_new_length@std@@UAE@XZ PROC		; std::bad_array_new_length::~bad_array_new_length, COMDAT
; _this$ = ecx

; 90   :         __std_exception_destroy(&_Data);

  00000	8d 41 04	 lea	 eax, DWORD PTR [ecx+4]
  00003	c7 01 00 00 00
	00		 mov	 DWORD PTR [ecx], OFFSET ??_7exception@std@@6B@
  00009	50		 push	 eax
  0000a	e8 00 00 00 00	 call	 ___std_exception_destroy
  0000f	59		 pop	 ecx
  00010	c3		 ret	 0
??1bad_array_new_length@std@@UAE@XZ ENDP		; std::bad_array_new_length::~bad_array_new_length
_TEXT	ENDS
; Function compile flags: /Ogtp
; File C:\Program Files (x86)\Microsoft Visual Studio\2019\Community\VC\Tools\MSVC\14.27.29110\include\vcruntime_exception.h
;	COMDAT ??0bad_array_new_length@std@@QAE@XZ
_TEXT	SEGMENT
??0bad_array_new_length@std@@QAE@XZ PROC		; std::bad_array_new_length::bad_array_new_length, COMDAT
; _this$ = ecx

; 141  :     {

  00000	0f 57 c0	 xorps	 xmm0, xmm0

; 142  :     }

  00003	8b c1		 mov	 eax, ecx

; 65   :         : _Data()

  00005	66 0f d6 41 04	 movq	 QWORD PTR [ecx+4], xmm0

; 66   :     {
; 67   :         _Data._What = _Message;

  0000a	c7 41 04 00 00
	00 00		 mov	 DWORD PTR [ecx+4], OFFSET ??_C@_0BF@KINCDENJ@bad?5array?5new?5length@

; 141  :     {

  00011	c7 01 00 00 00
	00		 mov	 DWORD PTR [ecx], OFFSET ??_7bad_array_new_length@std@@6B@

; 142  :     }

  00017	c3		 ret	 0
??0bad_array_new_length@std@@QAE@XZ ENDP		; std::bad_array_new_length::bad_array_new_length
_TEXT	ENDS
; Function compile flags: /Ogtp
; File C:\Program Files (x86)\Microsoft Visual Studio\2019\Community\VC\Tools\MSVC\14.27.29110\include\vcruntime_exception.h
;	COMDAT ??_Gbad_alloc@std@@UAEPAXI@Z
_TEXT	SEGMENT
___flags$ = 8						; size = 4
??_Gbad_alloc@std@@UAEPAXI@Z PROC			; std::bad_alloc::`scalar deleting destructor', COMDAT
; _this$ = ecx
  00000	55		 push	 ebp
  00001	8b ec		 mov	 ebp, esp

; 89   :     {

  00003	56		 push	 esi
  00004	8b f1		 mov	 esi, ecx

; 90   :         __std_exception_destroy(&_Data);

  00006	8d 46 04	 lea	 eax, DWORD PTR [esi+4]
  00009	c7 06 00 00 00
	00		 mov	 DWORD PTR [esi], OFFSET ??_7exception@std@@6B@
  0000f	50		 push	 eax
  00010	e8 00 00 00 00	 call	 ___std_exception_destroy
  00015	83 c4 04	 add	 esp, 4
  00018	f6 45 08 01	 test	 BYTE PTR ___flags$[ebp], 1
  0001c	74 0b		 je	 SHORT $LN9@scalar
  0001e	6a 0c		 push	 12			; 0000000cH
  00020	56		 push	 esi
  00021	e8 00 00 00 00	 call	 ??3@YAXPAXI@Z		; operator delete
  00026	83 c4 08	 add	 esp, 8
$LN9@scalar:
  00029	8b c6		 mov	 eax, esi
  0002b	5e		 pop	 esi
  0002c	5d		 pop	 ebp
  0002d	c2 04 00	 ret	 4
??_Gbad_alloc@std@@UAEPAXI@Z ENDP			; std::bad_alloc::`scalar deleting destructor'
_TEXT	ENDS
; Function compile flags: /Ogtp
; File C:\Program Files (x86)\Microsoft Visual Studio\2019\Community\VC\Tools\MSVC\14.27.29110\include\vcruntime_exception.h
;	COMDAT ??0bad_alloc@std@@QAE@ABV01@@Z
_TEXT	SEGMENT
___that$ = 8						; size = 4
??0bad_alloc@std@@QAE@ABV01@@Z PROC			; std::bad_alloc::bad_alloc, COMDAT
; _this$ = ecx
  00000	55		 push	 ebp
  00001	8b ec		 mov	 ebp, esp

; 72   :     {

  00003	56		 push	 esi
  00004	8b f1		 mov	 esi, ecx
  00006	0f 57 c0	 xorps	 xmm0, xmm0

; 71   :         : _Data()

  00009	8d 46 04	 lea	 eax, DWORD PTR [esi+4]

; 73   :         __std_exception_copy(&_Other._Data, &_Data);

  0000c	50		 push	 eax
  0000d	c7 06 00 00 00
	00		 mov	 DWORD PTR [esi], OFFSET ??_7exception@std@@6B@
  00013	66 0f d6 00	 movq	 QWORD PTR [eax], xmm0
  00017	8b 45 08	 mov	 eax, DWORD PTR ___that$[ebp]
  0001a	83 c0 04	 add	 eax, 4
  0001d	50		 push	 eax
  0001e	e8 00 00 00 00	 call	 ___std_exception_copy
  00023	83 c4 08	 add	 esp, 8
  00026	c7 06 00 00 00
	00		 mov	 DWORD PTR [esi], OFFSET ??_7bad_alloc@std@@6B@
  0002c	8b c6		 mov	 eax, esi
  0002e	5e		 pop	 esi
  0002f	5d		 pop	 ebp
  00030	c2 04 00	 ret	 4
??0bad_alloc@std@@QAE@ABV01@@Z ENDP			; std::bad_alloc::bad_alloc
_TEXT	ENDS
; Function compile flags: /Ogtp
; File C:\Program Files (x86)\Microsoft Visual Studio\2019\Community\VC\Tools\MSVC\14.27.29110\include\vcruntime_exception.h
;	COMDAT ??_Gexception@std@@UAEPAXI@Z
_TEXT	SEGMENT
___flags$ = 8						; size = 4
??_Gexception@std@@UAEPAXI@Z PROC			; std::exception::`scalar deleting destructor', COMDAT
; _this$ = ecx
  00000	55		 push	 ebp
  00001	8b ec		 mov	 ebp, esp

; 89   :     {

  00003	56		 push	 esi
  00004	8b f1		 mov	 esi, ecx

; 90   :         __std_exception_destroy(&_Data);

  00006	8d 46 04	 lea	 eax, DWORD PTR [esi+4]
  00009	c7 06 00 00 00
	00		 mov	 DWORD PTR [esi], OFFSET ??_7exception@std@@6B@
  0000f	50		 push	 eax
  00010	e8 00 00 00 00	 call	 ___std_exception_destroy
  00015	83 c4 04	 add	 esp, 4
  00018	f6 45 08 01	 test	 BYTE PTR ___flags$[ebp], 1
  0001c	74 0b		 je	 SHORT $LN6@scalar
  0001e	6a 0c		 push	 12			; 0000000cH
  00020	56		 push	 esi
  00021	e8 00 00 00 00	 call	 ??3@YAXPAXI@Z		; operator delete
  00026	83 c4 08	 add	 esp, 8
$LN6@scalar:
  00029	8b c6		 mov	 eax, esi
  0002b	5e		 pop	 esi
  0002c	5d		 pop	 ebp
  0002d	c2 04 00	 ret	 4
??_Gexception@std@@UAEPAXI@Z ENDP			; std::exception::`scalar deleting destructor'
_TEXT	ENDS
; Function compile flags: /Ogtp
; File C:\Program Files (x86)\Microsoft Visual Studio\2019\Community\VC\Tools\MSVC\14.27.29110\include\vcruntime_exception.h
;	COMDAT ?what@exception@std@@UBEPBDXZ
_TEXT	SEGMENT
?what@exception@std@@UBEPBDXZ PROC			; std::exception::what, COMDAT
; _this$ = ecx

; 95   :         return _Data._What ? _Data._What : "Unknown exception";

  00000	8b 49 04	 mov	 ecx, DWORD PTR [ecx+4]
  00003	b8 00 00 00 00	 mov	 eax, OFFSET ??_C@_0BC@EOODALEL@Unknown?5exception@
  00008	85 c9		 test	 ecx, ecx
  0000a	0f 45 c1	 cmovne	 eax, ecx

; 96   :     }

  0000d	c3		 ret	 0
?what@exception@std@@UBEPBDXZ ENDP			; std::exception::what
_TEXT	ENDS
; Function compile flags: /Ogtp
; File C:\Program Files (x86)\Microsoft Visual Studio\2019\Community\VC\Tools\MSVC\14.27.29110\include\vcruntime_exception.h
;	COMDAT ??1exception@std@@UAE@XZ
_TEXT	SEGMENT
??1exception@std@@UAE@XZ PROC				; std::exception::~exception, COMDAT
; _this$ = ecx

; 90   :         __std_exception_destroy(&_Data);

  00000	8d 41 04	 lea	 eax, DWORD PTR [ecx+4]
  00003	c7 01 00 00 00
	00		 mov	 DWORD PTR [ecx], OFFSET ??_7exception@std@@6B@
  00009	50		 push	 eax
  0000a	e8 00 00 00 00	 call	 ___std_exception_destroy
  0000f	59		 pop	 ecx

; 91   :     }

  00010	c3		 ret	 0
??1exception@std@@UAE@XZ ENDP				; std::exception::~exception
_TEXT	ENDS
; Function compile flags: /Ogtp
; File C:\Program Files (x86)\Microsoft Visual Studio\2019\Community\VC\Tools\MSVC\14.27.29110\include\vcruntime_exception.h
;	COMDAT ??0exception@std@@QAE@ABV01@@Z
_TEXT	SEGMENT
__Other$ = 8						; size = 4
??0exception@std@@QAE@ABV01@@Z PROC			; std::exception::exception, COMDAT
; _this$ = ecx

; 72   :     {

  00000	55		 push	 ebp
  00001	8b ec		 mov	 ebp, esp
  00003	56		 push	 esi
  00004	8b f1		 mov	 esi, ecx
  00006	0f 57 c0	 xorps	 xmm0, xmm0
  00009	8d 46 04	 lea	 eax, DWORD PTR [esi+4]

; 73   :         __std_exception_copy(&_Other._Data, &_Data);

  0000c	50		 push	 eax
  0000d	c7 06 00 00 00
	00		 mov	 DWORD PTR [esi], OFFSET ??_7exception@std@@6B@
  00013	66 0f d6 00	 movq	 QWORD PTR [eax], xmm0
  00017	8b 45 08	 mov	 eax, DWORD PTR __Other$[ebp]
  0001a	83 c0 04	 add	 eax, 4
  0001d	50		 push	 eax
  0001e	e8 00 00 00 00	 call	 ___std_exception_copy
  00023	83 c4 08	 add	 esp, 8

; 74   :     }

  00026	8b c6		 mov	 eax, esi
  00028	5e		 pop	 esi
  00029	5d		 pop	 ebp
  0002a	c2 04 00	 ret	 4
??0exception@std@@QAE@ABV01@@Z ENDP			; std::exception::exception
_TEXT	ENDS
; Function compile flags: /Ogtp
; File C:\DS Project\DS Files\Source\ClientSource\Client\GameLib\ActorInstanceCollisionDetection.cpp
;	COMDAT ?__empty_global_delete@@YAXPAXI@Z
_TEXT	SEGMENT
___formal$ = 8						; size = 4
___formal$ = 12						; size = 4
?__empty_global_delete@@YAXPAXI@Z PROC			; __empty_global_delete, COMDAT

  00000	c2 00 00	 ret	 0
?__empty_global_delete@@YAXPAXI@Z ENDP			; __empty_global_delete
_TEXT	ENDS
; Function compile flags: /Ogtp
; File C:\DS Project\DS Files\Source\ClientSource\Client\GameLib\ActorInstanceCollisionDetection.cpp
;	COMDAT ?__empty_global_delete@@YAXPAX@Z
_TEXT	SEGMENT
___formal$ = 8						; size = 4
?__empty_global_delete@@YAXPAX@Z PROC			; __empty_global_delete, COMDAT

  00000	c2 00 00	 ret	 0
?__empty_global_delete@@YAXPAX@Z ENDP			; __empty_global_delete
_TEXT	ENDS
; Function compile flags: /Ogtp
;	COMDAT ??_H@YGXPAXIIP6EPAX0@Z@Z
_TEXT	SEGMENT
___t$ = 8						; size = 4
___s$ = 12						; size = 4
___n$ = 16						; size = 4
___f$ = 20						; size = 4
??_H@YGXPAXIIP6EPAX0@Z@Z PROC				; `vector constructor iterator', COMDAT
  00000	55		 push	 ebp
  00001	8b ec		 mov	 ebp, esp
  00003	56		 push	 esi
  00004	8b 75 10	 mov	 esi, DWORD PTR ___n$[ebp]
  00007	85 f6		 test	 esi, esi
  00009	74 16		 je	 SHORT $LN6@vector
  0000b	53		 push	 ebx
  0000c	8b 5d 14	 mov	 ebx, DWORD PTR ___f$[ebp]
  0000f	57		 push	 edi
  00010	8b 7d 08	 mov	 edi, DWORD PTR ___t$[ebp]
$LL2@vector:
  00013	8b cf		 mov	 ecx, edi
  00015	ff d3		 call	 ebx
  00017	03 7d 0c	 add	 edi, DWORD PTR ___s$[ebp]
  0001a	83 ee 01	 sub	 esi, 1
  0001d	75 f4		 jne	 SHORT $LL2@vector
  0001f	5f		 pop	 edi
  00020	5b		 pop	 ebx
$LN6@vector:
  00021	5e		 pop	 esi
  00022	5d		 pop	 ebp
  00023	c2 10 00	 ret	 16			; 00000010H
??_H@YGXPAXIIP6EPAX0@Z@Z ENDP				; `vector constructor iterator'
_TEXT	ENDS
END
