; Listing generated by Microsoft (R) Optimizing Compiler Version 19.27.29112.0 

	TITLE	C:\DS Project\DS Files\Source\ClientSource\Client\GameLib\Area.cpp
	.686P
	.XMM
	include listing.inc
	.model	flat

INCLUDELIB LIBCMT
INCLUDELIB OLDNAMES

PUBLIC	??_7?$CDynamicPool@VCDungeonBlock@@@@6B@	; CDynamicPool<CDungeonBlock>::`vftable'
PUBLIC	??_G?$CDynamicPool@VCDungeonBlock@@@@UAEPAXI@Z	; CDynamicPool<CDungeonBlock>::`scalar deleting destructor'
PUBLIC	??_7?$CDynamicPoolEx@VCGravityDecorator@NEffectUpdateDecorator@@@@6B@ ; CDynamicPoolEx<NEffectUpdateDecorator::CGravityDecorator>::`vftable'
PUBLIC	??_G?$CDynamicPoolEx@VCGravityDecorator@NEffectUpdateDecorator@@@@UAEPAXI@Z ; CDynamicPoolEx<NEffectUpdateDecorator::CGravityDecorator>::`scalar deleting destructor'
PUBLIC	??_7?$CDynamicPool@VCArea@@@@6B@		; CDynamicPool<CArea>::`vftable'
PUBLIC	??_G?$CDynamicPool@VCArea@@@@UAEPAXI@Z		; CDynamicPool<CArea>::`scalar deleting destructor'
PUBLIC	??_7?$CDynamicPoolEx@VCAirResistanceDecorator@NEffectUpdateDecorator@@@@6B@ ; CDynamicPoolEx<NEffectUpdateDecorator::CAirResistanceDecorator>::`vftable'
PUBLIC	??_G?$CDynamicPoolEx@VCAirResistanceDecorator@NEffectUpdateDecorator@@@@UAEPAXI@Z ; CDynamicPoolEx<NEffectUpdateDecorator::CAirResistanceDecorator>::`scalar deleting destructor'
PUBLIC	??_7?$CDynamicPoolEx@VCTextureAnimationRandomDecorator@NEffectUpdateDecorator@@@@6B@ ; CDynamicPoolEx<NEffectUpdateDecorator::CTextureAnimationRandomDecorator>::`vftable'
PUBLIC	??_G?$CDynamicPoolEx@VCTextureAnimationRandomDecorator@NEffectUpdateDecorator@@@@UAEPAXI@Z ; CDynamicPoolEx<NEffectUpdateDecorator::CTextureAnimationRandomDecorator>::`scalar deleting destructor'
PUBLIC	??_7?$CDynamicPoolEx@VCTextureAnimationCCWDecorator@NEffectUpdateDecorator@@@@6B@ ; CDynamicPoolEx<NEffectUpdateDecorator::CTextureAnimationCCWDecorator>::`vftable'
PUBLIC	??_G?$CDynamicPoolEx@VCTextureAnimationCCWDecorator@NEffectUpdateDecorator@@@@UAEPAXI@Z ; CDynamicPoolEx<NEffectUpdateDecorator::CTextureAnimationCCWDecorator>::`scalar deleting destructor'
PUBLIC	??_7?$CDynamicPoolEx@VCTextureAnimationCWDecorator@NEffectUpdateDecorator@@@@6B@ ; CDynamicPoolEx<NEffectUpdateDecorator::CTextureAnimationCWDecorator>::`vftable'
PUBLIC	??_G?$CDynamicPoolEx@VCTextureAnimationCWDecorator@NEffectUpdateDecorator@@@@UAEPAXI@Z ; CDynamicPoolEx<NEffectUpdateDecorator::CTextureAnimationCWDecorator>::`scalar deleting destructor'
PUBLIC	??_7?$CDynamicPoolEx@VCNullDecorator@NEffectUpdateDecorator@@@@6B@ ; CDynamicPoolEx<NEffectUpdateDecorator::CNullDecorator>::`vftable'
PUBLIC	??_G?$CDynamicPoolEx@VCNullDecorator@NEffectUpdateDecorator@@@@UAEPAXI@Z ; CDynamicPoolEx<NEffectUpdateDecorator::CNullDecorator>::`scalar deleting destructor'
PUBLIC	??_7?$CDynamicPoolEx@VCHeaderDecorator@NEffectUpdateDecorator@@@@6B@ ; CDynamicPoolEx<NEffectUpdateDecorator::CHeaderDecorator>::`vftable'
PUBLIC	??_G?$CDynamicPoolEx@VCHeaderDecorator@NEffectUpdateDecorator@@@@UAEPAXI@Z ; CDynamicPoolEx<NEffectUpdateDecorator::CHeaderDecorator>::`scalar deleting destructor'
PUBLIC	??_7?$CDynamicPool@USObjectInstance@CArea@@@@6B@ ; CDynamicPool<CArea::SObjectInstance>::`vftable'
PUBLIC	??_G?$CDynamicPool@USObjectInstance@CArea@@@@UAEPAXI@Z ; CDynamicPool<CArea::SObjectInstance>::`scalar deleting destructor'
PUBLIC	??_R4?$CDynamicPool@VCAttributeInstance@@@@6B@	; CDynamicPool<CAttributeInstance>::`RTTI Complete Object Locator'
PUBLIC	??_R0?AV?$CDynamicPool@VCAttributeInstance@@@@@8 ; CDynamicPool<CAttributeInstance> `RTTI Type Descriptor'
PUBLIC	??_R3?$CDynamicPool@VCAttributeInstance@@@@8	; CDynamicPool<CAttributeInstance>::`RTTI Class Hierarchy Descriptor'
PUBLIC	??_R2?$CDynamicPool@VCAttributeInstance@@@@8	; CDynamicPool<CAttributeInstance>::`RTTI Base Class Array'
PUBLIC	??_R1A@?0A@EA@?$CDynamicPool@VCAttributeInstance@@@@8 ; CDynamicPool<CAttributeInstance>::`RTTI Base Class Descriptor at (0,-1,0,64)'
PUBLIC	??_R4?$CDynamicPoolEx@VCHeaderDecorator@NEffectUpdateDecorator@@@@6B@ ; CDynamicPoolEx<NEffectUpdateDecorator::CHeaderDecorator>::`RTTI Complete Object Locator'
PUBLIC	??_R0?AV?$CDynamicPoolEx@VCHeaderDecorator@NEffectUpdateDecorator@@@@@8 ; CDynamicPoolEx<NEffectUpdateDecorator::CHeaderDecorator> `RTTI Type Descriptor'
PUBLIC	??_R3?$CDynamicPoolEx@VCHeaderDecorator@NEffectUpdateDecorator@@@@8 ; CDynamicPoolEx<NEffectUpdateDecorator::CHeaderDecorator>::`RTTI Class Hierarchy Descriptor'
PUBLIC	??_R2?$CDynamicPoolEx@VCHeaderDecorator@NEffectUpdateDecorator@@@@8 ; CDynamicPoolEx<NEffectUpdateDecorator::CHeaderDecorator>::`RTTI Base Class Array'
PUBLIC	??_R1A@?0A@EA@?$CDynamicPoolEx@VCHeaderDecorator@NEffectUpdateDecorator@@@@8 ; CDynamicPoolEx<NEffectUpdateDecorator::CHeaderDecorator>::`RTTI Base Class Descriptor at (0,-1,0,64)'
PUBLIC	??_R4?$CDynamicPoolEx@VCNullDecorator@NEffectUpdateDecorator@@@@6B@ ; CDynamicPoolEx<NEffectUpdateDecorator::CNullDecorator>::`RTTI Complete Object Locator'
PUBLIC	??_R0?AV?$CDynamicPoolEx@VCNullDecorator@NEffectUpdateDecorator@@@@@8 ; CDynamicPoolEx<NEffectUpdateDecorator::CNullDecorator> `RTTI Type Descriptor'
PUBLIC	??_R3?$CDynamicPoolEx@VCNullDecorator@NEffectUpdateDecorator@@@@8 ; CDynamicPoolEx<NEffectUpdateDecorator::CNullDecorator>::`RTTI Class Hierarchy Descriptor'
PUBLIC	??_R2?$CDynamicPoolEx@VCNullDecorator@NEffectUpdateDecorator@@@@8 ; CDynamicPoolEx<NEffectUpdateDecorator::CNullDecorator>::`RTTI Base Class Array'
PUBLIC	??_R1A@?0A@EA@?$CDynamicPoolEx@VCNullDecorator@NEffectUpdateDecorator@@@@8 ; CDynamicPoolEx<NEffectUpdateDecorator::CNullDecorator>::`RTTI Base Class Descriptor at (0,-1,0,64)'
PUBLIC	??_R4?$CDynamicPoolEx@VCTextureAnimationCWDecorator@NEffectUpdateDecorator@@@@6B@ ; CDynamicPoolEx<NEffectUpdateDecorator::CTextureAnimationCWDecorator>::`RTTI Complete Object Locator'
PUBLIC	??_R0?AV?$CDynamicPoolEx@VCTextureAnimationCWDecorator@NEffectUpdateDecorator@@@@@8 ; CDynamicPoolEx<NEffectUpdateDecorator::CTextureAnimationCWDecorator> `RTTI Type Descriptor'
PUBLIC	??_R3?$CDynamicPoolEx@VCTextureAnimationCWDecorator@NEffectUpdateDecorator@@@@8 ; CDynamicPoolEx<NEffectUpdateDecorator::CTextureAnimationCWDecorator>::`RTTI Class Hierarchy Descriptor'
PUBLIC	??_R2?$CDynamicPoolEx@VCTextureAnimationCWDecorator@NEffectUpdateDecorator@@@@8 ; CDynamicPoolEx<NEffectUpdateDecorator::CTextureAnimationCWDecorator>::`RTTI Base Class Array'
PUBLIC	??_R1A@?0A@EA@?$CDynamicPoolEx@VCTextureAnimationCWDecorator@NEffectUpdateDecorator@@@@8 ; CDynamicPoolEx<NEffectUpdateDecorator::CTextureAnimationCWDecorator>::`RTTI Base Class Descriptor at (0,-1,0,64)'
PUBLIC	??_R4?$CDynamicPoolEx@VCTextureAnimationCCWDecorator@NEffectUpdateDecorator@@@@6B@ ; CDynamicPoolEx<NEffectUpdateDecorator::CTextureAnimationCCWDecorator>::`RTTI Complete Object Locator'
PUBLIC	??_R0?AV?$CDynamicPoolEx@VCTextureAnimationCCWDecorator@NEffectUpdateDecorator@@@@@8 ; CDynamicPoolEx<NEffectUpdateDecorator::CTextureAnimationCCWDecorator> `RTTI Type Descriptor'
PUBLIC	??_R3?$CDynamicPoolEx@VCTextureAnimationCCWDecorator@NEffectUpdateDecorator@@@@8 ; CDynamicPoolEx<NEffectUpdateDecorator::CTextureAnimationCCWDecorator>::`RTTI Class Hierarchy Descriptor'
PUBLIC	??_R2?$CDynamicPoolEx@VCTextureAnimationCCWDecorator@NEffectUpdateDecorator@@@@8 ; CDynamicPoolEx<NEffectUpdateDecorator::CTextureAnimationCCWDecorator>::`RTTI Base Class Array'
PUBLIC	??_R1A@?0A@EA@?$CDynamicPoolEx@VCTextureAnimationCCWDecorator@NEffectUpdateDecorator@@@@8 ; CDynamicPoolEx<NEffectUpdateDecorator::CTextureAnimationCCWDecorator>::`RTTI Base Class Descriptor at (0,-1,0,64)'
PUBLIC	??_7?$CDynamicPoolEx@VCRotationDecorator@NEffectUpdateDecorator@@@@6B@ ; CDynamicPoolEx<NEffectUpdateDecorator::CRotationDecorator>::`vftable'
PUBLIC	??_G?$CDynamicPoolEx@VCRotationDecorator@NEffectUpdateDecorator@@@@UAEPAXI@Z ; CDynamicPoolEx<NEffectUpdateDecorator::CRotationDecorator>::`scalar deleting destructor'
PUBLIC	??_R4?$CDynamicPoolEx@VCTextureAnimationRandomDecorator@NEffectUpdateDecorator@@@@6B@ ; CDynamicPoolEx<NEffectUpdateDecorator::CTextureAnimationRandomDecorator>::`RTTI Complete Object Locator'
PUBLIC	??_R0?AV?$CDynamicPoolEx@VCTextureAnimationRandomDecorator@NEffectUpdateDecorator@@@@@8 ; CDynamicPoolEx<NEffectUpdateDecorator::CTextureAnimationRandomDecorator> `RTTI Type Descriptor'
PUBLIC	??_R3?$CDynamicPoolEx@VCTextureAnimationRandomDecorator@NEffectUpdateDecorator@@@@8 ; CDynamicPoolEx<NEffectUpdateDecorator::CTextureAnimationRandomDecorator>::`RTTI Class Hierarchy Descriptor'
PUBLIC	??_R2?$CDynamicPoolEx@VCTextureAnimationRandomDecorator@NEffectUpdateDecorator@@@@8 ; CDynamicPoolEx<NEffectUpdateDecorator::CTextureAnimationRandomDecorator>::`RTTI Base Class Array'
PUBLIC	??_R1A@?0A@EA@?$CDynamicPoolEx@VCTextureAnimationRandomDecorator@NEffectUpdateDecorator@@@@8 ; CDynamicPoolEx<NEffectUpdateDecorator::CTextureAnimationRandomDecorator>::`RTTI Base Class Descriptor at (0,-1,0,64)'
PUBLIC	??_R4?$CDynamicPoolEx@VCAirResistanceDecorator@NEffectUpdateDecorator@@@@6B@ ; CDynamicPoolEx<NEffectUpdateDecorator::CAirResistanceDecorator>::`RTTI Complete Object Locator'
PUBLIC	??_R0?AV?$CDynamicPoolEx@VCAirResistanceDecorator@NEffectUpdateDecorator@@@@@8 ; CDynamicPoolEx<NEffectUpdateDecorator::CAirResistanceDecorator> `RTTI Type Descriptor'
PUBLIC	??_R3?$CDynamicPoolEx@VCAirResistanceDecorator@NEffectUpdateDecorator@@@@8 ; CDynamicPoolEx<NEffectUpdateDecorator::CAirResistanceDecorator>::`RTTI Class Hierarchy Descriptor'
PUBLIC	??_R2?$CDynamicPoolEx@VCAirResistanceDecorator@NEffectUpdateDecorator@@@@8 ; CDynamicPoolEx<NEffectUpdateDecorator::CAirResistanceDecorator>::`RTTI Base Class Array'
PUBLIC	??_R1A@?0A@EA@?$CDynamicPoolEx@VCAirResistanceDecorator@NEffectUpdateDecorator@@@@8 ; CDynamicPoolEx<NEffectUpdateDecorator::CAirResistanceDecorator>::`RTTI Base Class Descriptor at (0,-1,0,64)'
PUBLIC	??_R4?$CDynamicPoolEx@VCGravityDecorator@NEffectUpdateDecorator@@@@6B@ ; CDynamicPoolEx<NEffectUpdateDecorator::CGravityDecorator>::`RTTI Complete Object Locator'
PUBLIC	??_R0?AV?$CDynamicPoolEx@VCGravityDecorator@NEffectUpdateDecorator@@@@@8 ; CDynamicPoolEx<NEffectUpdateDecorator::CGravityDecorator> `RTTI Type Descriptor'
PUBLIC	??_R3?$CDynamicPoolEx@VCGravityDecorator@NEffectUpdateDecorator@@@@8 ; CDynamicPoolEx<NEffectUpdateDecorator::CGravityDecorator>::`RTTI Class Hierarchy Descriptor'
PUBLIC	??_R2?$CDynamicPoolEx@VCGravityDecorator@NEffectUpdateDecorator@@@@8 ; CDynamicPoolEx<NEffectUpdateDecorator::CGravityDecorator>::`RTTI Base Class Array'
PUBLIC	??_R1A@?0A@EA@?$CDynamicPoolEx@VCGravityDecorator@NEffectUpdateDecorator@@@@8 ; CDynamicPoolEx<NEffectUpdateDecorator::CGravityDecorator>::`RTTI Base Class Descriptor at (0,-1,0,64)'
PUBLIC	??_R4?$CDynamicPoolEx@VCRotationDecorator@NEffectUpdateDecorator@@@@6B@ ; CDynamicPoolEx<NEffectUpdateDecorator::CRotationDecorator>::`RTTI Complete Object Locator'
PUBLIC	??_R0?AV?$CDynamicPoolEx@VCRotationDecorator@NEffectUpdateDecorator@@@@@8 ; CDynamicPoolEx<NEffectUpdateDecorator::CRotationDecorator> `RTTI Type Descriptor'
PUBLIC	??_R3?$CDynamicPoolEx@VCRotationDecorator@NEffectUpdateDecorator@@@@8 ; CDynamicPoolEx<NEffectUpdateDecorator::CRotationDecorator>::`RTTI Class Hierarchy Descriptor'
PUBLIC	??_R2?$CDynamicPoolEx@VCRotationDecorator@NEffectUpdateDecorator@@@@8 ; CDynamicPoolEx<NEffectUpdateDecorator::CRotationDecorator>::`RTTI Base Class Array'
PUBLIC	??_R1A@?0A@EA@?$CDynamicPoolEx@VCRotationDecorator@NEffectUpdateDecorator@@@@8 ; CDynamicPoolEx<NEffectUpdateDecorator::CRotationDecorator>::`RTTI Base Class Descriptor at (0,-1,0,64)'
PUBLIC	??_R4?$CDynamicPool@USObjectInstance@CArea@@@@6B@ ; CDynamicPool<CArea::SObjectInstance>::`RTTI Complete Object Locator'
PUBLIC	??_R0?AV?$CDynamicPool@USObjectInstance@CArea@@@@@8 ; CDynamicPool<CArea::SObjectInstance> `RTTI Type Descriptor'
PUBLIC	??_R3?$CDynamicPool@USObjectInstance@CArea@@@@8	; CDynamicPool<CArea::SObjectInstance>::`RTTI Class Hierarchy Descriptor'
PUBLIC	??_R2?$CDynamicPool@USObjectInstance@CArea@@@@8	; CDynamicPool<CArea::SObjectInstance>::`RTTI Base Class Array'
PUBLIC	??_R1A@?0A@EA@?$CDynamicPool@USObjectInstance@CArea@@@@8 ; CDynamicPool<CArea::SObjectInstance>::`RTTI Base Class Descriptor at (0,-1,0,64)'
PUBLIC	??_R4?$CDynamicPool@USAmbienceInstance@CArea@@@@6B@ ; CDynamicPool<CArea::SAmbienceInstance>::`RTTI Complete Object Locator'
PUBLIC	??_R0?AV?$CDynamicPool@USAmbienceInstance@CArea@@@@@8 ; CDynamicPool<CArea::SAmbienceInstance> `RTTI Type Descriptor'
PUBLIC	??_R3?$CDynamicPool@USAmbienceInstance@CArea@@@@8 ; CDynamicPool<CArea::SAmbienceInstance>::`RTTI Class Hierarchy Descriptor'
PUBLIC	??_R2?$CDynamicPool@USAmbienceInstance@CArea@@@@8 ; CDynamicPool<CArea::SAmbienceInstance>::`RTTI Base Class Array'
PUBLIC	??_R1A@?0A@EA@?$CDynamicPool@USAmbienceInstance@CArea@@@@8 ; CDynamicPool<CArea::SAmbienceInstance>::`RTTI Base Class Descriptor at (0,-1,0,64)'
PUBLIC	??_R4?$CDynamicPool@VCDungeonBlock@@@@6B@	; CDynamicPool<CDungeonBlock>::`RTTI Complete Object Locator'
PUBLIC	??_R0?AV?$CDynamicPool@VCDungeonBlock@@@@@8	; CDynamicPool<CDungeonBlock> `RTTI Type Descriptor'
PUBLIC	??_R3?$CDynamicPool@VCDungeonBlock@@@@8		; CDynamicPool<CDungeonBlock>::`RTTI Class Hierarchy Descriptor'
PUBLIC	??_R2?$CDynamicPool@VCDungeonBlock@@@@8		; CDynamicPool<CDungeonBlock>::`RTTI Base Class Array'
PUBLIC	??_R1A@?0A@EA@?$CDynamicPool@VCDungeonBlock@@@@8 ; CDynamicPool<CDungeonBlock>::`RTTI Base Class Descriptor at (0,-1,0,64)'
PUBLIC	??_R4?$CDynamicPool@VCArea@@@@6B@		; CDynamicPool<CArea>::`RTTI Complete Object Locator'
PUBLIC	??_R0?AV?$CDynamicPool@VCArea@@@@@8		; CDynamicPool<CArea> `RTTI Type Descriptor'
PUBLIC	??_R3?$CDynamicPool@VCArea@@@@8			; CDynamicPool<CArea>::`RTTI Class Hierarchy Descriptor'
PUBLIC	??_R2?$CDynamicPool@VCArea@@@@8			; CDynamicPool<CArea>::`RTTI Base Class Array'
PUBLIC	??_R1A@?0A@EA@?$CDynamicPool@VCArea@@@@8	; CDynamicPool<CArea>::`RTTI Base Class Descriptor at (0,-1,0,64)'
PUBLIC	??_7?$CDynamicPool@VCAttributeInstance@@@@6B@	; CDynamicPool<CAttributeInstance>::`vftable'
PUBLIC	??_G?$CDynamicPool@VCAttributeInstance@@@@UAEPAXI@Z ; CDynamicPool<CAttributeInstance>::`scalar deleting destructor'
PUBLIC	??_7?$CDynamicPool@USAmbienceInstance@CArea@@@@6B@ ; CDynamicPool<CArea::SAmbienceInstance>::`vftable'
PUBLIC	??_G?$CDynamicPool@USAmbienceInstance@CArea@@@@UAEPAXI@Z ; CDynamicPool<CArea::SAmbienceInstance>::`scalar deleting destructor'
EXTRN	??_E?$CDynamicPool@VCDungeonBlock@@@@UAEPAXI@Z:PROC ; CDynamicPool<CDungeonBlock>::`vector deleting destructor'
EXTRN	??_E?$CDynamicPoolEx@VCGravityDecorator@NEffectUpdateDecorator@@@@UAEPAXI@Z:PROC ; CDynamicPoolEx<NEffectUpdateDecorator::CGravityDecorator>::`vector deleting destructor'
EXTRN	??_7type_info@@6B@:QWORD			; type_info::`vftable'
EXTRN	??_E?$CDynamicPool@VCArea@@@@UAEPAXI@Z:PROC	; CDynamicPool<CArea>::`vector deleting destructor'
EXTRN	??_E?$CDynamicPoolEx@VCAirResistanceDecorator@NEffectUpdateDecorator@@@@UAEPAXI@Z:PROC ; CDynamicPoolEx<NEffectUpdateDecorator::CAirResistanceDecorator>::`vector deleting destructor'
EXTRN	??_E?$CDynamicPoolEx@VCTextureAnimationRandomDecorator@NEffectUpdateDecorator@@@@UAEPAXI@Z:PROC ; CDynamicPoolEx<NEffectUpdateDecorator::CTextureAnimationRandomDecorator>::`vector deleting destructor'
EXTRN	??_E?$CDynamicPoolEx@VCTextureAnimationCCWDecorator@NEffectUpdateDecorator@@@@UAEPAXI@Z:PROC ; CDynamicPoolEx<NEffectUpdateDecorator::CTextureAnimationCCWDecorator>::`vector deleting destructor'
EXTRN	??_E?$CDynamicPoolEx@VCTextureAnimationCWDecorator@NEffectUpdateDecorator@@@@UAEPAXI@Z:PROC ; CDynamicPoolEx<NEffectUpdateDecorator::CTextureAnimationCWDecorator>::`vector deleting destructor'
EXTRN	??_E?$CDynamicPoolEx@VCNullDecorator@NEffectUpdateDecorator@@@@UAEPAXI@Z:PROC ; CDynamicPoolEx<NEffectUpdateDecorator::CNullDecorator>::`vector deleting destructor'
EXTRN	??_E?$CDynamicPoolEx@VCHeaderDecorator@NEffectUpdateDecorator@@@@UAEPAXI@Z:PROC ; CDynamicPoolEx<NEffectUpdateDecorator::CHeaderDecorator>::`vector deleting destructor'
EXTRN	??_E?$CDynamicPool@USObjectInstance@CArea@@@@UAEPAXI@Z:PROC ; CDynamicPool<CArea::SObjectInstance>::`vector deleting destructor'
EXTRN	??_E?$CDynamicPoolEx@VCRotationDecorator@NEffectUpdateDecorator@@@@UAEPAXI@Z:PROC ; CDynamicPoolEx<NEffectUpdateDecorator::CRotationDecorator>::`vector deleting destructor'
EXTRN	??_E?$CDynamicPool@VCAttributeInstance@@@@UAEPAXI@Z:PROC ; CDynamicPool<CAttributeInstance>::`vector deleting destructor'
EXTRN	??_E?$CDynamicPool@USAmbienceInstance@CArea@@@@UAEPAXI@Z:PROC ; CDynamicPool<CArea::SAmbienceInstance>::`vector deleting destructor'
;	COMDAT ??_7?$CDynamicPool@USAmbienceInstance@CArea@@@@6B@
CONST	SEGMENT
??_7?$CDynamicPool@USAmbienceInstance@CArea@@@@6B@ DD FLAT:??_R4?$CDynamicPool@USAmbienceInstance@CArea@@@@6B@ ; CDynamicPool<CArea::SAmbienceInstance>::`vftable'
	DD	FLAT:??_E?$CDynamicPool@USAmbienceInstance@CArea@@@@UAEPAXI@Z
CONST	ENDS
;	COMDAT ??_7?$CDynamicPool@VCAttributeInstance@@@@6B@
CONST	SEGMENT
??_7?$CDynamicPool@VCAttributeInstance@@@@6B@ DD FLAT:??_R4?$CDynamicPool@VCAttributeInstance@@@@6B@ ; CDynamicPool<CAttributeInstance>::`vftable'
	DD	FLAT:??_E?$CDynamicPool@VCAttributeInstance@@@@UAEPAXI@Z
CONST	ENDS
;	COMDAT ??_R1A@?0A@EA@?$CDynamicPool@VCArea@@@@8
rdata$r	SEGMENT
??_R1A@?0A@EA@?$CDynamicPool@VCArea@@@@8 DD FLAT:??_R0?AV?$CDynamicPool@VCArea@@@@@8 ; CDynamicPool<CArea>::`RTTI Base Class Descriptor at (0,-1,0,64)'
	DD	00H
	DD	00H
	DD	0ffffffffH
	DD	00H
	DD	040H
	DD	FLAT:??_R3?$CDynamicPool@VCArea@@@@8
rdata$r	ENDS
;	COMDAT ??_R2?$CDynamicPool@VCArea@@@@8
rdata$r	SEGMENT
??_R2?$CDynamicPool@VCArea@@@@8 DD FLAT:??_R1A@?0A@EA@?$CDynamicPool@VCArea@@@@8 ; CDynamicPool<CArea>::`RTTI Base Class Array'
rdata$r	ENDS
;	COMDAT ??_R3?$CDynamicPool@VCArea@@@@8
rdata$r	SEGMENT
??_R3?$CDynamicPool@VCArea@@@@8 DD 00H			; CDynamicPool<CArea>::`RTTI Class Hierarchy Descriptor'
	DD	00H
	DD	01H
	DD	FLAT:??_R2?$CDynamicPool@VCArea@@@@8
rdata$r	ENDS
;	COMDAT ??_R0?AV?$CDynamicPool@VCArea@@@@@8
data$r	SEGMENT
??_R0?AV?$CDynamicPool@VCArea@@@@@8 DD FLAT:??_7type_info@@6B@ ; CDynamicPool<CArea> `RTTI Type Descriptor'
	DD	00H
	DB	'.?AV?$CDynamicPool@VCArea@@@@', 00H
data$r	ENDS
;	COMDAT ??_R4?$CDynamicPool@VCArea@@@@6B@
rdata$r	SEGMENT
??_R4?$CDynamicPool@VCArea@@@@6B@ DD 00H		; CDynamicPool<CArea>::`RTTI Complete Object Locator'
	DD	00H
	DD	00H
	DD	FLAT:??_R0?AV?$CDynamicPool@VCArea@@@@@8
	DD	FLAT:??_R3?$CDynamicPool@VCArea@@@@8
rdata$r	ENDS
;	COMDAT ??_R1A@?0A@EA@?$CDynamicPool@VCDungeonBlock@@@@8
rdata$r	SEGMENT
??_R1A@?0A@EA@?$CDynamicPool@VCDungeonBlock@@@@8 DD FLAT:??_R0?AV?$CDynamicPool@VCDungeonBlock@@@@@8 ; CDynamicPool<CDungeonBlock>::`RTTI Base Class Descriptor at (0,-1,0,64)'
	DD	00H
	DD	00H
	DD	0ffffffffH
	DD	00H
	DD	040H
	DD	FLAT:??_R3?$CDynamicPool@VCDungeonBlock@@@@8
rdata$r	ENDS
;	COMDAT ??_R2?$CDynamicPool@VCDungeonBlock@@@@8
rdata$r	SEGMENT
??_R2?$CDynamicPool@VCDungeonBlock@@@@8 DD FLAT:??_R1A@?0A@EA@?$CDynamicPool@VCDungeonBlock@@@@8 ; CDynamicPool<CDungeonBlock>::`RTTI Base Class Array'
rdata$r	ENDS
;	COMDAT ??_R3?$CDynamicPool@VCDungeonBlock@@@@8
rdata$r	SEGMENT
??_R3?$CDynamicPool@VCDungeonBlock@@@@8 DD 00H		; CDynamicPool<CDungeonBlock>::`RTTI Class Hierarchy Descriptor'
	DD	00H
	DD	01H
	DD	FLAT:??_R2?$CDynamicPool@VCDungeonBlock@@@@8
rdata$r	ENDS
;	COMDAT ??_R0?AV?$CDynamicPool@VCDungeonBlock@@@@@8
data$r	SEGMENT
??_R0?AV?$CDynamicPool@VCDungeonBlock@@@@@8 DD FLAT:??_7type_info@@6B@ ; CDynamicPool<CDungeonBlock> `RTTI Type Descriptor'
	DD	00H
	DB	'.?AV?$CDynamicPool@VCDungeonBlock@@@@', 00H
data$r	ENDS
;	COMDAT ??_R4?$CDynamicPool@VCDungeonBlock@@@@6B@
rdata$r	SEGMENT
??_R4?$CDynamicPool@VCDungeonBlock@@@@6B@ DD 00H	; CDynamicPool<CDungeonBlock>::`RTTI Complete Object Locator'
	DD	00H
	DD	00H
	DD	FLAT:??_R0?AV?$CDynamicPool@VCDungeonBlock@@@@@8
	DD	FLAT:??_R3?$CDynamicPool@VCDungeonBlock@@@@8
rdata$r	ENDS
;	COMDAT ??_R1A@?0A@EA@?$CDynamicPool@USAmbienceInstance@CArea@@@@8
rdata$r	SEGMENT
??_R1A@?0A@EA@?$CDynamicPool@USAmbienceInstance@CArea@@@@8 DD FLAT:??_R0?AV?$CDynamicPool@USAmbienceInstance@CArea@@@@@8 ; CDynamicPool<CArea::SAmbienceInstance>::`RTTI Base Class Descriptor at (0,-1,0,64)'
	DD	00H
	DD	00H
	DD	0ffffffffH
	DD	00H
	DD	040H
	DD	FLAT:??_R3?$CDynamicPool@USAmbienceInstance@CArea@@@@8
rdata$r	ENDS
;	COMDAT ??_R2?$CDynamicPool@USAmbienceInstance@CArea@@@@8
rdata$r	SEGMENT
??_R2?$CDynamicPool@USAmbienceInstance@CArea@@@@8 DD FLAT:??_R1A@?0A@EA@?$CDynamicPool@USAmbienceInstance@CArea@@@@8 ; CDynamicPool<CArea::SAmbienceInstance>::`RTTI Base Class Array'
rdata$r	ENDS
;	COMDAT ??_R3?$CDynamicPool@USAmbienceInstance@CArea@@@@8
rdata$r	SEGMENT
??_R3?$CDynamicPool@USAmbienceInstance@CArea@@@@8 DD 00H ; CDynamicPool<CArea::SAmbienceInstance>::`RTTI Class Hierarchy Descriptor'
	DD	00H
	DD	01H
	DD	FLAT:??_R2?$CDynamicPool@USAmbienceInstance@CArea@@@@8
rdata$r	ENDS
;	COMDAT ??_R0?AV?$CDynamicPool@USAmbienceInstance@CArea@@@@@8
data$r	SEGMENT
??_R0?AV?$CDynamicPool@USAmbienceInstance@CArea@@@@@8 DD FLAT:??_7type_info@@6B@ ; CDynamicPool<CArea::SAmbienceInstance> `RTTI Type Descriptor'
	DD	00H
	DB	'.?AV?$CDynamicPool@USAmbienceInstance@CArea@@@@', 00H
data$r	ENDS
;	COMDAT ??_R4?$CDynamicPool@USAmbienceInstance@CArea@@@@6B@
rdata$r	SEGMENT
??_R4?$CDynamicPool@USAmbienceInstance@CArea@@@@6B@ DD 00H ; CDynamicPool<CArea::SAmbienceInstance>::`RTTI Complete Object Locator'
	DD	00H
	DD	00H
	DD	FLAT:??_R0?AV?$CDynamicPool@USAmbienceInstance@CArea@@@@@8
	DD	FLAT:??_R3?$CDynamicPool@USAmbienceInstance@CArea@@@@8
rdata$r	ENDS
;	COMDAT ??_R1A@?0A@EA@?$CDynamicPool@USObjectInstance@CArea@@@@8
rdata$r	SEGMENT
??_R1A@?0A@EA@?$CDynamicPool@USObjectInstance@CArea@@@@8 DD FLAT:??_R0?AV?$CDynamicPool@USObjectInstance@CArea@@@@@8 ; CDynamicPool<CArea::SObjectInstance>::`RTTI Base Class Descriptor at (0,-1,0,64)'
	DD	00H
	DD	00H
	DD	0ffffffffH
	DD	00H
	DD	040H
	DD	FLAT:??_R3?$CDynamicPool@USObjectInstance@CArea@@@@8
rdata$r	ENDS
;	COMDAT ??_R2?$CDynamicPool@USObjectInstance@CArea@@@@8
rdata$r	SEGMENT
??_R2?$CDynamicPool@USObjectInstance@CArea@@@@8 DD FLAT:??_R1A@?0A@EA@?$CDynamicPool@USObjectInstance@CArea@@@@8 ; CDynamicPool<CArea::SObjectInstance>::`RTTI Base Class Array'
rdata$r	ENDS
;	COMDAT ??_R3?$CDynamicPool@USObjectInstance@CArea@@@@8
rdata$r	SEGMENT
??_R3?$CDynamicPool@USObjectInstance@CArea@@@@8 DD 00H	; CDynamicPool<CArea::SObjectInstance>::`RTTI Class Hierarchy Descriptor'
	DD	00H
	DD	01H
	DD	FLAT:??_R2?$CDynamicPool@USObjectInstance@CArea@@@@8
rdata$r	ENDS
;	COMDAT ??_R0?AV?$CDynamicPool@USObjectInstance@CArea@@@@@8
data$r	SEGMENT
??_R0?AV?$CDynamicPool@USObjectInstance@CArea@@@@@8 DD FLAT:??_7type_info@@6B@ ; CDynamicPool<CArea::SObjectInstance> `RTTI Type Descriptor'
	DD	00H
	DB	'.?AV?$CDynamicPool@USObjectInstance@CArea@@@@', 00H
data$r	ENDS
;	COMDAT ??_R4?$CDynamicPool@USObjectInstance@CArea@@@@6B@
rdata$r	SEGMENT
??_R4?$CDynamicPool@USObjectInstance@CArea@@@@6B@ DD 00H ; CDynamicPool<CArea::SObjectInstance>::`RTTI Complete Object Locator'
	DD	00H
	DD	00H
	DD	FLAT:??_R0?AV?$CDynamicPool@USObjectInstance@CArea@@@@@8
	DD	FLAT:??_R3?$CDynamicPool@USObjectInstance@CArea@@@@8
rdata$r	ENDS
;	COMDAT ??_R1A@?0A@EA@?$CDynamicPoolEx@VCRotationDecorator@NEffectUpdateDecorator@@@@8
rdata$r	SEGMENT
??_R1A@?0A@EA@?$CDynamicPoolEx@VCRotationDecorator@NEffectUpdateDecorator@@@@8 DD FLAT:??_R0?AV?$CDynamicPoolEx@VCRotationDecorator@NEffectUpdateDecorator@@@@@8 ; CDynamicPoolEx<NEffectUpdateDecorator::CRotationDecorator>::`RTTI Base Class Descriptor at (0,-1,0,64)'
	DD	00H
	DD	00H
	DD	0ffffffffH
	DD	00H
	DD	040H
	DD	FLAT:??_R3?$CDynamicPoolEx@VCRotationDecorator@NEffectUpdateDecorator@@@@8
rdata$r	ENDS
;	COMDAT ??_R2?$CDynamicPoolEx@VCRotationDecorator@NEffectUpdateDecorator@@@@8
rdata$r	SEGMENT
??_R2?$CDynamicPoolEx@VCRotationDecorator@NEffectUpdateDecorator@@@@8 DD FLAT:??_R1A@?0A@EA@?$CDynamicPoolEx@VCRotationDecorator@NEffectUpdateDecorator@@@@8 ; CDynamicPoolEx<NEffectUpdateDecorator::CRotationDecorator>::`RTTI Base Class Array'
rdata$r	ENDS
;	COMDAT ??_R3?$CDynamicPoolEx@VCRotationDecorator@NEffectUpdateDecorator@@@@8
rdata$r	SEGMENT
??_R3?$CDynamicPoolEx@VCRotationDecorator@NEffectUpdateDecorator@@@@8 DD 00H ; CDynamicPoolEx<NEffectUpdateDecorator::CRotationDecorator>::`RTTI Class Hierarchy Descriptor'
	DD	00H
	DD	01H
	DD	FLAT:??_R2?$CDynamicPoolEx@VCRotationDecorator@NEffectUpdateDecorator@@@@8
rdata$r	ENDS
;	COMDAT ??_R0?AV?$CDynamicPoolEx@VCRotationDecorator@NEffectUpdateDecorator@@@@@8
data$r	SEGMENT
??_R0?AV?$CDynamicPoolEx@VCRotationDecorator@NEffectUpdateDecorator@@@@@8 DD FLAT:??_7type_info@@6B@ ; CDynamicPoolEx<NEffectUpdateDecorator::CRotationDecorator> `RTTI Type Descriptor'
	DD	00H
	DB	'.?AV?$CDynamicPoolEx@VCRotationDecorator@NEffectUpdateDe'
	DB	'corator@@@@', 00H
data$r	ENDS
;	COMDAT ??_R4?$CDynamicPoolEx@VCRotationDecorator@NEffectUpdateDecorator@@@@6B@
rdata$r	SEGMENT
??_R4?$CDynamicPoolEx@VCRotationDecorator@NEffectUpdateDecorator@@@@6B@ DD 00H ; CDynamicPoolEx<NEffectUpdateDecorator::CRotationDecorator>::`RTTI Complete Object Locator'
	DD	00H
	DD	00H
	DD	FLAT:??_R0?AV?$CDynamicPoolEx@VCRotationDecorator@NEffectUpdateDecorator@@@@@8
	DD	FLAT:??_R3?$CDynamicPoolEx@VCRotationDecorator@NEffectUpdateDecorator@@@@8
rdata$r	ENDS
;	COMDAT ??_R1A@?0A@EA@?$CDynamicPoolEx@VCGravityDecorator@NEffectUpdateDecorator@@@@8
rdata$r	SEGMENT
??_R1A@?0A@EA@?$CDynamicPoolEx@VCGravityDecorator@NEffectUpdateDecorator@@@@8 DD FLAT:??_R0?AV?$CDynamicPoolEx@VCGravityDecorator@NEffectUpdateDecorator@@@@@8 ; CDynamicPoolEx<NEffectUpdateDecorator::CGravityDecorator>::`RTTI Base Class Descriptor at (0,-1,0,64)'
	DD	00H
	DD	00H
	DD	0ffffffffH
	DD	00H
	DD	040H
	DD	FLAT:??_R3?$CDynamicPoolEx@VCGravityDecorator@NEffectUpdateDecorator@@@@8
rdata$r	ENDS
;	COMDAT ??_R2?$CDynamicPoolEx@VCGravityDecorator@NEffectUpdateDecorator@@@@8
rdata$r	SEGMENT
??_R2?$CDynamicPoolEx@VCGravityDecorator@NEffectUpdateDecorator@@@@8 DD FLAT:??_R1A@?0A@EA@?$CDynamicPoolEx@VCGravityDecorator@NEffectUpdateDecorator@@@@8 ; CDynamicPoolEx<NEffectUpdateDecorator::CGravityDecorator>::`RTTI Base Class Array'
rdata$r	ENDS
;	COMDAT ??_R3?$CDynamicPoolEx@VCGravityDecorator@NEffectUpdateDecorator@@@@8
rdata$r	SEGMENT
??_R3?$CDynamicPoolEx@VCGravityDecorator@NEffectUpdateDecorator@@@@8 DD 00H ; CDynamicPoolEx<NEffectUpdateDecorator::CGravityDecorator>::`RTTI Class Hierarchy Descriptor'
	DD	00H
	DD	01H
	DD	FLAT:??_R2?$CDynamicPoolEx@VCGravityDecorator@NEffectUpdateDecorator@@@@8
rdata$r	ENDS
;	COMDAT ??_R0?AV?$CDynamicPoolEx@VCGravityDecorator@NEffectUpdateDecorator@@@@@8
data$r	SEGMENT
??_R0?AV?$CDynamicPoolEx@VCGravityDecorator@NEffectUpdateDecorator@@@@@8 DD FLAT:??_7type_info@@6B@ ; CDynamicPoolEx<NEffectUpdateDecorator::CGravityDecorator> `RTTI Type Descriptor'
	DD	00H
	DB	'.?AV?$CDynamicPoolEx@VCGravityDecorator@NEffectUpdateDec'
	DB	'orator@@@@', 00H
data$r	ENDS
;	COMDAT ??_R4?$CDynamicPoolEx@VCGravityDecorator@NEffectUpdateDecorator@@@@6B@
rdata$r	SEGMENT
??_R4?$CDynamicPoolEx@VCGravityDecorator@NEffectUpdateDecorator@@@@6B@ DD 00H ; CDynamicPoolEx<NEffectUpdateDecorator::CGravityDecorator>::`RTTI Complete Object Locator'
	DD	00H
	DD	00H
	DD	FLAT:??_R0?AV?$CDynamicPoolEx@VCGravityDecorator@NEffectUpdateDecorator@@@@@8
	DD	FLAT:??_R3?$CDynamicPoolEx@VCGravityDecorator@NEffectUpdateDecorator@@@@8
rdata$r	ENDS
;	COMDAT ??_R1A@?0A@EA@?$CDynamicPoolEx@VCAirResistanceDecorator@NEffectUpdateDecorator@@@@8
rdata$r	SEGMENT
??_R1A@?0A@EA@?$CDynamicPoolEx@VCAirResistanceDecorator@NEffectUpdateDecorator@@@@8 DD FLAT:??_R0?AV?$CDynamicPoolEx@VCAirResistanceDecorator@NEffectUpdateDecorator@@@@@8 ; CDynamicPoolEx<NEffectUpdateDecorator::CAirResistanceDecorator>::`RTTI Base Class Descriptor at (0,-1,0,64)'
	DD	00H
	DD	00H
	DD	0ffffffffH
	DD	00H
	DD	040H
	DD	FLAT:??_R3?$CDynamicPoolEx@VCAirResistanceDecorator@NEffectUpdateDecorator@@@@8
rdata$r	ENDS
;	COMDAT ??_R2?$CDynamicPoolEx@VCAirResistanceDecorator@NEffectUpdateDecorator@@@@8
rdata$r	SEGMENT
??_R2?$CDynamicPoolEx@VCAirResistanceDecorator@NEffectUpdateDecorator@@@@8 DD FLAT:??_R1A@?0A@EA@?$CDynamicPoolEx@VCAirResistanceDecorator@NEffectUpdateDecorator@@@@8 ; CDynamicPoolEx<NEffectUpdateDecorator::CAirResistanceDecorator>::`RTTI Base Class Array'
rdata$r	ENDS
;	COMDAT ??_R3?$CDynamicPoolEx@VCAirResistanceDecorator@NEffectUpdateDecorator@@@@8
rdata$r	SEGMENT
??_R3?$CDynamicPoolEx@VCAirResistanceDecorator@NEffectUpdateDecorator@@@@8 DD 00H ; CDynamicPoolEx<NEffectUpdateDecorator::CAirResistanceDecorator>::`RTTI Class Hierarchy Descriptor'
	DD	00H
	DD	01H
	DD	FLAT:??_R2?$CDynamicPoolEx@VCAirResistanceDecorator@NEffectUpdateDecorator@@@@8
rdata$r	ENDS
;	COMDAT ??_R0?AV?$CDynamicPoolEx@VCAirResistanceDecorator@NEffectUpdateDecorator@@@@@8
data$r	SEGMENT
??_R0?AV?$CDynamicPoolEx@VCAirResistanceDecorator@NEffectUpdateDecorator@@@@@8 DD FLAT:??_7type_info@@6B@ ; CDynamicPoolEx<NEffectUpdateDecorator::CAirResistanceDecorator> `RTTI Type Descriptor'
	DD	00H
	DB	'.?AV?$CDynamicPoolEx@VCAirResistanceDecorator@NEffectUpd'
	DB	'ateDecorator@@@@', 00H
data$r	ENDS
;	COMDAT ??_R4?$CDynamicPoolEx@VCAirResistanceDecorator@NEffectUpdateDecorator@@@@6B@
rdata$r	SEGMENT
??_R4?$CDynamicPoolEx@VCAirResistanceDecorator@NEffectUpdateDecorator@@@@6B@ DD 00H ; CDynamicPoolEx<NEffectUpdateDecorator::CAirResistanceDecorator>::`RTTI Complete Object Locator'
	DD	00H
	DD	00H
	DD	FLAT:??_R0?AV?$CDynamicPoolEx@VCAirResistanceDecorator@NEffectUpdateDecorator@@@@@8
	DD	FLAT:??_R3?$CDynamicPoolEx@VCAirResistanceDecorator@NEffectUpdateDecorator@@@@8
rdata$r	ENDS
;	COMDAT ??_R1A@?0A@EA@?$CDynamicPoolEx@VCTextureAnimationRandomDecorator@NEffectUpdateDecorator@@@@8
rdata$r	SEGMENT
??_R1A@?0A@EA@?$CDynamicPoolEx@VCTextureAnimationRandomDecorator@NEffectUpdateDecorator@@@@8 DD FLAT:??_R0?AV?$CDynamicPoolEx@VCTextureAnimationRandomDecorator@NEffectUpdateDecorator@@@@@8 ; CDynamicPoolEx<NEffectUpdateDecorator::CTextureAnimationRandomDecorator>::`RTTI Base Class Descriptor at (0,-1,0,64)'
	DD	00H
	DD	00H
	DD	0ffffffffH
	DD	00H
	DD	040H
	DD	FLAT:??_R3?$CDynamicPoolEx@VCTextureAnimationRandomDecorator@NEffectUpdateDecorator@@@@8
rdata$r	ENDS
;	COMDAT ??_R2?$CDynamicPoolEx@VCTextureAnimationRandomDecorator@NEffectUpdateDecorator@@@@8
rdata$r	SEGMENT
??_R2?$CDynamicPoolEx@VCTextureAnimationRandomDecorator@NEffectUpdateDecorator@@@@8 DD FLAT:??_R1A@?0A@EA@?$CDynamicPoolEx@VCTextureAnimationRandomDecorator@NEffectUpdateDecorator@@@@8 ; CDynamicPoolEx<NEffectUpdateDecorator::CTextureAnimationRandomDecorator>::`RTTI Base Class Array'
rdata$r	ENDS
;	COMDAT ??_R3?$CDynamicPoolEx@VCTextureAnimationRandomDecorator@NEffectUpdateDecorator@@@@8
rdata$r	SEGMENT
??_R3?$CDynamicPoolEx@VCTextureAnimationRandomDecorator@NEffectUpdateDecorator@@@@8 DD 00H ; CDynamicPoolEx<NEffectUpdateDecorator::CTextureAnimationRandomDecorator>::`RTTI Class Hierarchy Descriptor'
	DD	00H
	DD	01H
	DD	FLAT:??_R2?$CDynamicPoolEx@VCTextureAnimationRandomDecorator@NEffectUpdateDecorator@@@@8
rdata$r	ENDS
;	COMDAT ??_R0?AV?$CDynamicPoolEx@VCTextureAnimationRandomDecorator@NEffectUpdateDecorator@@@@@8
data$r	SEGMENT
??_R0?AV?$CDynamicPoolEx@VCTextureAnimationRandomDecorator@NEffectUpdateDecorator@@@@@8 DD FLAT:??_7type_info@@6B@ ; CDynamicPoolEx<NEffectUpdateDecorator::CTextureAnimationRandomDecorator> `RTTI Type Descriptor'
	DD	00H
	DB	'.?AV?$CDynamicPoolEx@VCTextureAnimationRandomDecorator@N'
	DB	'EffectUpdateDecorator@@@@', 00H
data$r	ENDS
;	COMDAT ??_R4?$CDynamicPoolEx@VCTextureAnimationRandomDecorator@NEffectUpdateDecorator@@@@6B@
rdata$r	SEGMENT
??_R4?$CDynamicPoolEx@VCTextureAnimationRandomDecorator@NEffectUpdateDecorator@@@@6B@ DD 00H ; CDynamicPoolEx<NEffectUpdateDecorator::CTextureAnimationRandomDecorator>::`RTTI Complete Object Locator'
	DD	00H
	DD	00H
	DD	FLAT:??_R0?AV?$CDynamicPoolEx@VCTextureAnimationRandomDecorator@NEffectUpdateDecorator@@@@@8
	DD	FLAT:??_R3?$CDynamicPoolEx@VCTextureAnimationRandomDecorator@NEffectUpdateDecorator@@@@8
rdata$r	ENDS
;	COMDAT ??_7?$CDynamicPoolEx@VCRotationDecorator@NEffectUpdateDecorator@@@@6B@
CONST	SEGMENT
??_7?$CDynamicPoolEx@VCRotationDecorator@NEffectUpdateDecorator@@@@6B@ DD FLAT:??_R4?$CDynamicPoolEx@VCRotationDecorator@NEffectUpdateDecorator@@@@6B@ ; CDynamicPoolEx<NEffectUpdateDecorator::CRotationDecorator>::`vftable'
	DD	FLAT:??_E?$CDynamicPoolEx@VCRotationDecorator@NEffectUpdateDecorator@@@@UAEPAXI@Z
CONST	ENDS
;	COMDAT ??_R1A@?0A@EA@?$CDynamicPoolEx@VCTextureAnimationCCWDecorator@NEffectUpdateDecorator@@@@8
rdata$r	SEGMENT
??_R1A@?0A@EA@?$CDynamicPoolEx@VCTextureAnimationCCWDecorator@NEffectUpdateDecorator@@@@8 DD FLAT:??_R0?AV?$CDynamicPoolEx@VCTextureAnimationCCWDecorator@NEffectUpdateDecorator@@@@@8 ; CDynamicPoolEx<NEffectUpdateDecorator::CTextureAnimationCCWDecorator>::`RTTI Base Class Descriptor at (0,-1,0,64)'
	DD	00H
	DD	00H
	DD	0ffffffffH
	DD	00H
	DD	040H
	DD	FLAT:??_R3?$CDynamicPoolEx@VCTextureAnimationCCWDecorator@NEffectUpdateDecorator@@@@8
rdata$r	ENDS
;	COMDAT ??_R2?$CDynamicPoolEx@VCTextureAnimationCCWDecorator@NEffectUpdateDecorator@@@@8
rdata$r	SEGMENT
??_R2?$CDynamicPoolEx@VCTextureAnimationCCWDecorator@NEffectUpdateDecorator@@@@8 DD FLAT:??_R1A@?0A@EA@?$CDynamicPoolEx@VCTextureAnimationCCWDecorator@NEffectUpdateDecorator@@@@8 ; CDynamicPoolEx<NEffectUpdateDecorator::CTextureAnimationCCWDecorator>::`RTTI Base Class Array'
rdata$r	ENDS
;	COMDAT ??_R3?$CDynamicPoolEx@VCTextureAnimationCCWDecorator@NEffectUpdateDecorator@@@@8
rdata$r	SEGMENT
??_R3?$CDynamicPoolEx@VCTextureAnimationCCWDecorator@NEffectUpdateDecorator@@@@8 DD 00H ; CDynamicPoolEx<NEffectUpdateDecorator::CTextureAnimationCCWDecorator>::`RTTI Class Hierarchy Descriptor'
	DD	00H
	DD	01H
	DD	FLAT:??_R2?$CDynamicPoolEx@VCTextureAnimationCCWDecorator@NEffectUpdateDecorator@@@@8
rdata$r	ENDS
;	COMDAT ??_R0?AV?$CDynamicPoolEx@VCTextureAnimationCCWDecorator@NEffectUpdateDecorator@@@@@8
data$r	SEGMENT
??_R0?AV?$CDynamicPoolEx@VCTextureAnimationCCWDecorator@NEffectUpdateDecorator@@@@@8 DD FLAT:??_7type_info@@6B@ ; CDynamicPoolEx<NEffectUpdateDecorator::CTextureAnimationCCWDecorator> `RTTI Type Descriptor'
	DD	00H
	DB	'.?AV?$CDynamicPoolEx@VCTextureAnimationCCWDecorator@NEff'
	DB	'ectUpdateDecorator@@@@', 00H
data$r	ENDS
;	COMDAT ??_R4?$CDynamicPoolEx@VCTextureAnimationCCWDecorator@NEffectUpdateDecorator@@@@6B@
rdata$r	SEGMENT
??_R4?$CDynamicPoolEx@VCTextureAnimationCCWDecorator@NEffectUpdateDecorator@@@@6B@ DD 00H ; CDynamicPoolEx<NEffectUpdateDecorator::CTextureAnimationCCWDecorator>::`RTTI Complete Object Locator'
	DD	00H
	DD	00H
	DD	FLAT:??_R0?AV?$CDynamicPoolEx@VCTextureAnimationCCWDecorator@NEffectUpdateDecorator@@@@@8
	DD	FLAT:??_R3?$CDynamicPoolEx@VCTextureAnimationCCWDecorator@NEffectUpdateDecorator@@@@8
rdata$r	ENDS
;	COMDAT ??_R1A@?0A@EA@?$CDynamicPoolEx@VCTextureAnimationCWDecorator@NEffectUpdateDecorator@@@@8
rdata$r	SEGMENT
??_R1A@?0A@EA@?$CDynamicPoolEx@VCTextureAnimationCWDecorator@NEffectUpdateDecorator@@@@8 DD FLAT:??_R0?AV?$CDynamicPoolEx@VCTextureAnimationCWDecorator@NEffectUpdateDecorator@@@@@8 ; CDynamicPoolEx<NEffectUpdateDecorator::CTextureAnimationCWDecorator>::`RTTI Base Class Descriptor at (0,-1,0,64)'
	DD	00H
	DD	00H
	DD	0ffffffffH
	DD	00H
	DD	040H
	DD	FLAT:??_R3?$CDynamicPoolEx@VCTextureAnimationCWDecorator@NEffectUpdateDecorator@@@@8
rdata$r	ENDS
;	COMDAT ??_R2?$CDynamicPoolEx@VCTextureAnimationCWDecorator@NEffectUpdateDecorator@@@@8
rdata$r	SEGMENT
??_R2?$CDynamicPoolEx@VCTextureAnimationCWDecorator@NEffectUpdateDecorator@@@@8 DD FLAT:??_R1A@?0A@EA@?$CDynamicPoolEx@VCTextureAnimationCWDecorator@NEffectUpdateDecorator@@@@8 ; CDynamicPoolEx<NEffectUpdateDecorator::CTextureAnimationCWDecorator>::`RTTI Base Class Array'
rdata$r	ENDS
;	COMDAT ??_R3?$CDynamicPoolEx@VCTextureAnimationCWDecorator@NEffectUpdateDecorator@@@@8
rdata$r	SEGMENT
??_R3?$CDynamicPoolEx@VCTextureAnimationCWDecorator@NEffectUpdateDecorator@@@@8 DD 00H ; CDynamicPoolEx<NEffectUpdateDecorator::CTextureAnimationCWDecorator>::`RTTI Class Hierarchy Descriptor'
	DD	00H
	DD	01H
	DD	FLAT:??_R2?$CDynamicPoolEx@VCTextureAnimationCWDecorator@NEffectUpdateDecorator@@@@8
rdata$r	ENDS
;	COMDAT ??_R0?AV?$CDynamicPoolEx@VCTextureAnimationCWDecorator@NEffectUpdateDecorator@@@@@8
data$r	SEGMENT
??_R0?AV?$CDynamicPoolEx@VCTextureAnimationCWDecorator@NEffectUpdateDecorator@@@@@8 DD FLAT:??_7type_info@@6B@ ; CDynamicPoolEx<NEffectUpdateDecorator::CTextureAnimationCWDecorator> `RTTI Type Descriptor'
	DD	00H
	DB	'.?AV?$CDynamicPoolEx@VCTextureAnimationCWDecorator@NEffe'
	DB	'ctUpdateDecorator@@@@', 00H
data$r	ENDS
;	COMDAT ??_R4?$CDynamicPoolEx@VCTextureAnimationCWDecorator@NEffectUpdateDecorator@@@@6B@
rdata$r	SEGMENT
??_R4?$CDynamicPoolEx@VCTextureAnimationCWDecorator@NEffectUpdateDecorator@@@@6B@ DD 00H ; CDynamicPoolEx<NEffectUpdateDecorator::CTextureAnimationCWDecorator>::`RTTI Complete Object Locator'
	DD	00H
	DD	00H
	DD	FLAT:??_R0?AV?$CDynamicPoolEx@VCTextureAnimationCWDecorator@NEffectUpdateDecorator@@@@@8
	DD	FLAT:??_R3?$CDynamicPoolEx@VCTextureAnimationCWDecorator@NEffectUpdateDecorator@@@@8
rdata$r	ENDS
;	COMDAT ??_R1A@?0A@EA@?$CDynamicPoolEx@VCNullDecorator@NEffectUpdateDecorator@@@@8
rdata$r	SEGMENT
??_R1A@?0A@EA@?$CDynamicPoolEx@VCNullDecorator@NEffectUpdateDecorator@@@@8 DD FLAT:??_R0?AV?$CDynamicPoolEx@VCNullDecorator@NEffectUpdateDecorator@@@@@8 ; CDynamicPoolEx<NEffectUpdateDecorator::CNullDecorator>::`RTTI Base Class Descriptor at (0,-1,0,64)'
	DD	00H
	DD	00H
	DD	0ffffffffH
	DD	00H
	DD	040H
	DD	FLAT:??_R3?$CDynamicPoolEx@VCNullDecorator@NEffectUpdateDecorator@@@@8
rdata$r	ENDS
;	COMDAT ??_R2?$CDynamicPoolEx@VCNullDecorator@NEffectUpdateDecorator@@@@8
rdata$r	SEGMENT
??_R2?$CDynamicPoolEx@VCNullDecorator@NEffectUpdateDecorator@@@@8 DD FLAT:??_R1A@?0A@EA@?$CDynamicPoolEx@VCNullDecorator@NEffectUpdateDecorator@@@@8 ; CDynamicPoolEx<NEffectUpdateDecorator::CNullDecorator>::`RTTI Base Class Array'
rdata$r	ENDS
;	COMDAT ??_R3?$CDynamicPoolEx@VCNullDecorator@NEffectUpdateDecorator@@@@8
rdata$r	SEGMENT
??_R3?$CDynamicPoolEx@VCNullDecorator@NEffectUpdateDecorator@@@@8 DD 00H ; CDynamicPoolEx<NEffectUpdateDecorator::CNullDecorator>::`RTTI Class Hierarchy Descriptor'
	DD	00H
	DD	01H
	DD	FLAT:??_R2?$CDynamicPoolEx@VCNullDecorator@NEffectUpdateDecorator@@@@8
rdata$r	ENDS
;	COMDAT ??_R0?AV?$CDynamicPoolEx@VCNullDecorator@NEffectUpdateDecorator@@@@@8
data$r	SEGMENT
??_R0?AV?$CDynamicPoolEx@VCNullDecorator@NEffectUpdateDecorator@@@@@8 DD FLAT:??_7type_info@@6B@ ; CDynamicPoolEx<NEffectUpdateDecorator::CNullDecorator> `RTTI Type Descriptor'
	DD	00H
	DB	'.?AV?$CDynamicPoolEx@VCNullDecorator@NEffectUpdateDecora'
	DB	'tor@@@@', 00H
data$r	ENDS
;	COMDAT ??_R4?$CDynamicPoolEx@VCNullDecorator@NEffectUpdateDecorator@@@@6B@
rdata$r	SEGMENT
??_R4?$CDynamicPoolEx@VCNullDecorator@NEffectUpdateDecorator@@@@6B@ DD 00H ; CDynamicPoolEx<NEffectUpdateDecorator::CNullDecorator>::`RTTI Complete Object Locator'
	DD	00H
	DD	00H
	DD	FLAT:??_R0?AV?$CDynamicPoolEx@VCNullDecorator@NEffectUpdateDecorator@@@@@8
	DD	FLAT:??_R3?$CDynamicPoolEx@VCNullDecorator@NEffectUpdateDecorator@@@@8
rdata$r	ENDS
;	COMDAT ??_R1A@?0A@EA@?$CDynamicPoolEx@VCHeaderDecorator@NEffectUpdateDecorator@@@@8
rdata$r	SEGMENT
??_R1A@?0A@EA@?$CDynamicPoolEx@VCHeaderDecorator@NEffectUpdateDecorator@@@@8 DD FLAT:??_R0?AV?$CDynamicPoolEx@VCHeaderDecorator@NEffectUpdateDecorator@@@@@8 ; CDynamicPoolEx<NEffectUpdateDecorator::CHeaderDecorator>::`RTTI Base Class Descriptor at (0,-1,0,64)'
	DD	00H
	DD	00H
	DD	0ffffffffH
	DD	00H
	DD	040H
	DD	FLAT:??_R3?$CDynamicPoolEx@VCHeaderDecorator@NEffectUpdateDecorator@@@@8
rdata$r	ENDS
;	COMDAT ??_R2?$CDynamicPoolEx@VCHeaderDecorator@NEffectUpdateDecorator@@@@8
rdata$r	SEGMENT
??_R2?$CDynamicPoolEx@VCHeaderDecorator@NEffectUpdateDecorator@@@@8 DD FLAT:??_R1A@?0A@EA@?$CDynamicPoolEx@VCHeaderDecorator@NEffectUpdateDecorator@@@@8 ; CDynamicPoolEx<NEffectUpdateDecorator::CHeaderDecorator>::`RTTI Base Class Array'
rdata$r	ENDS
;	COMDAT ??_R3?$CDynamicPoolEx@VCHeaderDecorator@NEffectUpdateDecorator@@@@8
rdata$r	SEGMENT
??_R3?$CDynamicPoolEx@VCHeaderDecorator@NEffectUpdateDecorator@@@@8 DD 00H ; CDynamicPoolEx<NEffectUpdateDecorator::CHeaderDecorator>::`RTTI Class Hierarchy Descriptor'
	DD	00H
	DD	01H
	DD	FLAT:??_R2?$CDynamicPoolEx@VCHeaderDecorator@NEffectUpdateDecorator@@@@8
rdata$r	ENDS
;	COMDAT ??_R0?AV?$CDynamicPoolEx@VCHeaderDecorator@NEffectUpdateDecorator@@@@@8
data$r	SEGMENT
??_R0?AV?$CDynamicPoolEx@VCHeaderDecorator@NEffectUpdateDecorator@@@@@8 DD FLAT:??_7type_info@@6B@ ; CDynamicPoolEx<NEffectUpdateDecorator::CHeaderDecorator> `RTTI Type Descriptor'
	DD	00H
	DB	'.?AV?$CDynamicPoolEx@VCHeaderDecorator@NEffectUpdateDeco'
	DB	'rator@@@@', 00H
data$r	ENDS
;	COMDAT ??_R4?$CDynamicPoolEx@VCHeaderDecorator@NEffectUpdateDecorator@@@@6B@
rdata$r	SEGMENT
??_R4?$CDynamicPoolEx@VCHeaderDecorator@NEffectUpdateDecorator@@@@6B@ DD 00H ; CDynamicPoolEx<NEffectUpdateDecorator::CHeaderDecorator>::`RTTI Complete Object Locator'
	DD	00H
	DD	00H
	DD	FLAT:??_R0?AV?$CDynamicPoolEx@VCHeaderDecorator@NEffectUpdateDecorator@@@@@8
	DD	FLAT:??_R3?$CDynamicPoolEx@VCHeaderDecorator@NEffectUpdateDecorator@@@@8
rdata$r	ENDS
;	COMDAT ??_R1A@?0A@EA@?$CDynamicPool@VCAttributeInstance@@@@8
rdata$r	SEGMENT
??_R1A@?0A@EA@?$CDynamicPool@VCAttributeInstance@@@@8 DD FLAT:??_R0?AV?$CDynamicPool@VCAttributeInstance@@@@@8 ; CDynamicPool<CAttributeInstance>::`RTTI Base Class Descriptor at (0,-1,0,64)'
	DD	00H
	DD	00H
	DD	0ffffffffH
	DD	00H
	DD	040H
	DD	FLAT:??_R3?$CDynamicPool@VCAttributeInstance@@@@8
rdata$r	ENDS
;	COMDAT ??_R2?$CDynamicPool@VCAttributeInstance@@@@8
rdata$r	SEGMENT
??_R2?$CDynamicPool@VCAttributeInstance@@@@8 DD FLAT:??_R1A@?0A@EA@?$CDynamicPool@VCAttributeInstance@@@@8 ; CDynamicPool<CAttributeInstance>::`RTTI Base Class Array'
rdata$r	ENDS
;	COMDAT ??_R3?$CDynamicPool@VCAttributeInstance@@@@8
rdata$r	SEGMENT
??_R3?$CDynamicPool@VCAttributeInstance@@@@8 DD 00H	; CDynamicPool<CAttributeInstance>::`RTTI Class Hierarchy Descriptor'
	DD	00H
	DD	01H
	DD	FLAT:??_R2?$CDynamicPool@VCAttributeInstance@@@@8
rdata$r	ENDS
;	COMDAT ??_R0?AV?$CDynamicPool@VCAttributeInstance@@@@@8
data$r	SEGMENT
??_R0?AV?$CDynamicPool@VCAttributeInstance@@@@@8 DD FLAT:??_7type_info@@6B@ ; CDynamicPool<CAttributeInstance> `RTTI Type Descriptor'
	DD	00H
	DB	'.?AV?$CDynamicPool@VCAttributeInstance@@@@', 00H
data$r	ENDS
;	COMDAT ??_R4?$CDynamicPool@VCAttributeInstance@@@@6B@
rdata$r	SEGMENT
??_R4?$CDynamicPool@VCAttributeInstance@@@@6B@ DD 00H	; CDynamicPool<CAttributeInstance>::`RTTI Complete Object Locator'
	DD	00H
	DD	00H
	DD	FLAT:??_R0?AV?$CDynamicPool@VCAttributeInstance@@@@@8
	DD	FLAT:??_R3?$CDynamicPool@VCAttributeInstance@@@@8
rdata$r	ENDS
;	COMDAT ??_7?$CDynamicPool@USObjectInstance@CArea@@@@6B@
CONST	SEGMENT
??_7?$CDynamicPool@USObjectInstance@CArea@@@@6B@ DD FLAT:??_R4?$CDynamicPool@USObjectInstance@CArea@@@@6B@ ; CDynamicPool<CArea::SObjectInstance>::`vftable'
	DD	FLAT:??_E?$CDynamicPool@USObjectInstance@CArea@@@@UAEPAXI@Z
CONST	ENDS
;	COMDAT ??_7?$CDynamicPoolEx@VCHeaderDecorator@NEffectUpdateDecorator@@@@6B@
CONST	SEGMENT
??_7?$CDynamicPoolEx@VCHeaderDecorator@NEffectUpdateDecorator@@@@6B@ DD FLAT:??_R4?$CDynamicPoolEx@VCHeaderDecorator@NEffectUpdateDecorator@@@@6B@ ; CDynamicPoolEx<NEffectUpdateDecorator::CHeaderDecorator>::`vftable'
	DD	FLAT:??_E?$CDynamicPoolEx@VCHeaderDecorator@NEffectUpdateDecorator@@@@UAEPAXI@Z
CONST	ENDS
;	COMDAT ??_7?$CDynamicPoolEx@VCNullDecorator@NEffectUpdateDecorator@@@@6B@
CONST	SEGMENT
??_7?$CDynamicPoolEx@VCNullDecorator@NEffectUpdateDecorator@@@@6B@ DD FLAT:??_R4?$CDynamicPoolEx@VCNullDecorator@NEffectUpdateDecorator@@@@6B@ ; CDynamicPoolEx<NEffectUpdateDecorator::CNullDecorator>::`vftable'
	DD	FLAT:??_E?$CDynamicPoolEx@VCNullDecorator@NEffectUpdateDecorator@@@@UAEPAXI@Z
CONST	ENDS
;	COMDAT ??_7?$CDynamicPoolEx@VCTextureAnimationCWDecorator@NEffectUpdateDecorator@@@@6B@
CONST	SEGMENT
??_7?$CDynamicPoolEx@VCTextureAnimationCWDecorator@NEffectUpdateDecorator@@@@6B@ DD FLAT:??_R4?$CDynamicPoolEx@VCTextureAnimationCWDecorator@NEffectUpdateDecorator@@@@6B@ ; CDynamicPoolEx<NEffectUpdateDecorator::CTextureAnimationCWDecorator>::`vftable'
	DD	FLAT:??_E?$CDynamicPoolEx@VCTextureAnimationCWDecorator@NEffectUpdateDecorator@@@@UAEPAXI@Z
CONST	ENDS
;	COMDAT ??_7?$CDynamicPoolEx@VCTextureAnimationCCWDecorator@NEffectUpdateDecorator@@@@6B@
CONST	SEGMENT
??_7?$CDynamicPoolEx@VCTextureAnimationCCWDecorator@NEffectUpdateDecorator@@@@6B@ DD FLAT:??_R4?$CDynamicPoolEx@VCTextureAnimationCCWDecorator@NEffectUpdateDecorator@@@@6B@ ; CDynamicPoolEx<NEffectUpdateDecorator::CTextureAnimationCCWDecorator>::`vftable'
	DD	FLAT:??_E?$CDynamicPoolEx@VCTextureAnimationCCWDecorator@NEffectUpdateDecorator@@@@UAEPAXI@Z
CONST	ENDS
;	COMDAT ??_7?$CDynamicPoolEx@VCTextureAnimationRandomDecorator@NEffectUpdateDecorator@@@@6B@
CONST	SEGMENT
??_7?$CDynamicPoolEx@VCTextureAnimationRandomDecorator@NEffectUpdateDecorator@@@@6B@ DD FLAT:??_R4?$CDynamicPoolEx@VCTextureAnimationRandomDecorator@NEffectUpdateDecorator@@@@6B@ ; CDynamicPoolEx<NEffectUpdateDecorator::CTextureAnimationRandomDecorator>::`vftable'
	DD	FLAT:??_E?$CDynamicPoolEx@VCTextureAnimationRandomDecorator@NEffectUpdateDecorator@@@@UAEPAXI@Z
CONST	ENDS
;	COMDAT ??_7?$CDynamicPoolEx@VCAirResistanceDecorator@NEffectUpdateDecorator@@@@6B@
CONST	SEGMENT
??_7?$CDynamicPoolEx@VCAirResistanceDecorator@NEffectUpdateDecorator@@@@6B@ DD FLAT:??_R4?$CDynamicPoolEx@VCAirResistanceDecorator@NEffectUpdateDecorator@@@@6B@ ; CDynamicPoolEx<NEffectUpdateDecorator::CAirResistanceDecorator>::`vftable'
	DD	FLAT:??_E?$CDynamicPoolEx@VCAirResistanceDecorator@NEffectUpdateDecorator@@@@UAEPAXI@Z
CONST	ENDS
CONST	SEGMENT
?piecewise_construct@std@@3Upiecewise_construct_t@1@B	ORG $+1 ; std::piecewise_construct
CONST	ENDS
;	COMDAT ??_7?$CDynamicPool@VCArea@@@@6B@
CONST	SEGMENT
??_7?$CDynamicPool@VCArea@@@@6B@ DD FLAT:??_R4?$CDynamicPool@VCArea@@@@6B@ ; CDynamicPool<CArea>::`vftable'
	DD	FLAT:??_E?$CDynamicPool@VCArea@@@@UAEPAXI@Z
CONST	ENDS
;	COMDAT ??_7?$CDynamicPoolEx@VCGravityDecorator@NEffectUpdateDecorator@@@@6B@
CONST	SEGMENT
??_7?$CDynamicPoolEx@VCGravityDecorator@NEffectUpdateDecorator@@@@6B@ DD FLAT:??_R4?$CDynamicPoolEx@VCGravityDecorator@NEffectUpdateDecorator@@@@6B@ ; CDynamicPoolEx<NEffectUpdateDecorator::CGravityDecorator>::`vftable'
	DD	FLAT:??_E?$CDynamicPoolEx@VCGravityDecorator@NEffectUpdateDecorator@@@@UAEPAXI@Z
CONST	ENDS
;	COMDAT ??_7?$CDynamicPool@VCDungeonBlock@@@@6B@
CONST	SEGMENT
??_7?$CDynamicPool@VCDungeonBlock@@@@6B@ DD FLAT:??_R4?$CDynamicPool@VCDungeonBlock@@@@6B@ ; CDynamicPool<CDungeonBlock>::`vftable'
	DD	FLAT:??_E?$CDynamicPool@VCDungeonBlock@@@@UAEPAXI@Z
CONST	ENDS
PUBLIC	??_H@YGXPAXIIP6EPAX0@Z@Z			; `vector constructor iterator'
PUBLIC	?__empty_global_delete@@YAXPAX@Z		; __empty_global_delete
PUBLIC	?__empty_global_delete@@YAXPAXI@Z		; __empty_global_delete
PUBLIC	___local_stdio_printf_options
PUBLIC	_sprintf
PUBLIC	__snprintf
PUBLIC	??0exception@std@@QAE@ABV01@@Z			; std::exception::exception
PUBLIC	??1exception@std@@UAE@XZ			; std::exception::~exception
PUBLIC	?what@exception@std@@UBEPBDXZ			; std::exception::what
PUBLIC	??_Gexception@std@@UAEPAXI@Z			; std::exception::`scalar deleting destructor'
PUBLIC	??0bad_alloc@std@@QAE@ABV01@@Z			; std::bad_alloc::bad_alloc
PUBLIC	??_Gbad_alloc@std@@UAEPAXI@Z			; std::bad_alloc::`scalar deleting destructor'
PUBLIC	??0bad_array_new_length@std@@QAE@XZ		; std::bad_array_new_length::bad_array_new_length
PUBLIC	??1bad_array_new_length@std@@UAE@XZ		; std::bad_array_new_length::~bad_array_new_length
PUBLIC	??0bad_array_new_length@std@@QAE@ABV01@@Z	; std::bad_array_new_length::bad_array_new_length
PUBLIC	??_Gbad_array_new_length@std@@UAEPAXI@Z		; std::bad_array_new_length::`scalar deleting destructor'
PUBLIC	?_Throw_bad_array_new_length@std@@YAXXZ		; std::_Throw_bad_array_new_length
PUBLIC	?_Xlen_string@std@@YAXXZ			; std::_Xlen_string
PUBLIC	?_Xran@?$_String_val@U?$_Simple_types@D@std@@@std@@SAXXZ ; std::_String_val<std::_Simple_types<char> >::_Xran
PUBLIC	??0?$basic_string@DU?$char_traits@D@std@@V?$allocator@D@2@@std@@QAE@ABV01@@Z ; std::basic_string<char,std::char_traits<char>,std::allocator<char> >::basic_string<char,std::char_traits<char>,std::allocator<char> >
PUBLIC	??1?$basic_string@DU?$char_traits@D@std@@V?$allocator@D@2@@std@@QAE@XZ ; std::basic_string<char,std::char_traits<char>,std::allocator<char> >::~basic_string<char,std::char_traits<char>,std::allocator<char> >
PUBLIC	?assign@?$basic_string@DU?$char_traits@D@std@@V?$allocator@D@2@@std@@QAEAAV12@QBDI@Z ; std::basic_string<char,std::char_traits<char>,std::allocator<char> >::assign
PUBLIC	?insert@?$basic_string@DU?$char_traits@D@std@@V?$allocator@D@2@@std@@QAEAAV12@IQBDI@Z ; std::basic_string<char,std::char_traits<char>,std::allocator<char> >::insert
PUBLIC	?find@?$basic_string@DU?$char_traits@D@std@@V?$allocator@D@2@@std@@QBEIQBDI@Z ; std::basic_string<char,std::char_traits<char>,std::allocator<char> >::find
PUBLIC	??0D3DXMATRIX@@QAE@XZ				; D3DXMATRIX::D3DXMATRIX
PUBLIC	?_Throw_tree_length_error@std@@YAXXZ		; std::_Throw_tree_length_error
PUBLIC	??0bad_cast@std@@QAE@XZ				; std::bad_cast::bad_cast
PUBLIC	??1bad_cast@std@@UAE@XZ				; std::bad_cast::~bad_cast
PUBLIC	??0bad_cast@std@@QAE@ABV01@@Z			; std::bad_cast::bad_cast
PUBLIC	??_Gbad_cast@std@@UAEPAXI@Z			; std::bad_cast::`scalar deleting destructor'
PUBLIC	?_Throw_bad_cast@std@@YAXXZ			; std::_Throw_bad_cast
PUBLIC	??1_Facet_base@std@@UAE@XZ			; std::_Facet_base::~_Facet_base
PUBLIC	??_G_Facet_base@std@@UAEPAXI@Z			; std::_Facet_base::`scalar deleting destructor'
PUBLIC	??1?$_Yarn@D@std@@QAE@XZ			; std::_Yarn<char>::~_Yarn<char>
PUBLIC	??1?$_Yarn@_W@std@@QAE@XZ			; std::_Yarn<wchar_t>::~_Yarn<wchar_t>
PUBLIC	?_Incref@facet@locale@std@@UAEXXZ		; std::locale::facet::_Incref
PUBLIC	?_Decref@facet@locale@std@@UAEPAV_Facet_base@3@XZ ; std::locale::facet::_Decref
PUBLIC	??1facet@locale@std@@MAE@XZ			; std::locale::facet::~facet
PUBLIC	??_Gfacet@locale@std@@MAEPAXI@Z			; std::locale::facet::`scalar deleting destructor'
PUBLIC	??1locale@std@@QAE@XZ				; std::locale::~locale
PUBLIC	??_Gctype_base@std@@UAEPAXI@Z			; std::ctype_base::`scalar deleting destructor'
PUBLIC	?_Getcat@?$ctype@D@std@@SAIPAPBVfacet@locale@2@PBV42@@Z ; std::ctype<char>::_Getcat
PUBLIC	??1?$ctype@D@std@@MAE@XZ			; std::ctype<char>::~ctype<char>
PUBLIC	?do_tolower@?$ctype@D@std@@MBEDD@Z		; std::ctype<char>::do_tolower
PUBLIC	?do_tolower@?$ctype@D@std@@MBEPBDPADPBD@Z	; std::ctype<char>::do_tolower
PUBLIC	?do_toupper@?$ctype@D@std@@MBEDD@Z		; std::ctype<char>::do_toupper
PUBLIC	?do_toupper@?$ctype@D@std@@MBEPBDPADPBD@Z	; std::ctype<char>::do_toupper
PUBLIC	?do_widen@?$ctype@D@std@@MBEDD@Z		; std::ctype<char>::do_widen
PUBLIC	?do_widen@?$ctype@D@std@@MBEPBDPBD0PAD@Z	; std::ctype<char>::do_widen
PUBLIC	?do_narrow@?$ctype@D@std@@MBEDDD@Z		; std::ctype<char>::do_narrow
PUBLIC	?do_narrow@?$ctype@D@std@@MBEPBDPBD0DPAD@Z	; std::ctype<char>::do_narrow
PUBLIC	??_G?$ctype@D@std@@MAEPAXI@Z			; std::ctype<char>::`scalar deleting destructor'
PUBLIC	??$use_facet@V?$ctype@D@std@@@std@@YAABV?$ctype@D@0@ABVlocale@0@@Z ; std::use_facet<std::ctype<char> >
PUBLIC	??1TPropertyBuilding@prt@@QAE@XZ		; prt::TPropertyBuilding::~TPropertyBuilding
PUBLIC	??1TPropertyEffect@prt@@QAE@XZ			; prt::TPropertyEffect::~TPropertyEffect
PUBLIC	??1TPropertyAmbience@prt@@QAE@XZ		; prt::TPropertyAmbience::~TPropertyAmbience
PUBLIC	??1TPropertyDungeonBlock@prt@@QAE@XZ		; prt::TPropertyDungeonBlock::~TPropertyDungeonBlock
PUBLIC	??$_Traits_compare@U?$char_traits@D@std@@@std@@YAHQBDI0I@Z ; std::_Traits_compare<std::char_traits<char> >
PUBLIC	??$_Destroy_in_place@PAD@std@@YAXAAPAD@Z	; std::_Destroy_in_place<char *>
PUBLIC	??$_Construct_in_place@PADABQAD@std@@YAXAAPADABQAD@Z ; std::_Construct_in_place<char *,char * const &>
PUBLIC	??$_Pocma@V?$allocator@D@std@@@std@@YAXAAV?$allocator@D@0@0@Z ; std::_Pocma<std::allocator<char> >
PUBLIC	??$_Deallocate@$07$0A@@std@@YAXPAXI@Z		; std::_Deallocate<8,0>
PUBLIC	??$_Allocate@$07U_Default_allocate_traits@std@@$0A@@std@@YAPAXI@Z ; std::_Allocate<8,std::_Default_allocate_traits,0>
PUBLIC	??1?$unique_ptr@V_Facet_base@std@@U?$default_delete@V_Facet_base@std@@@2@@std@@QAE@XZ ; std::unique_ptr<std::_Facet_base,std::default_delete<std::_Facet_base> >::~unique_ptr<std::_Facet_base,std::default_delete<std::_Facet_base> >
PUBLIC	??$_Allocate_manually_vector_aligned@U_Default_allocate_traits@std@@@std@@YAPAXI@Z ; std::_Allocate_manually_vector_aligned<std::_Default_allocate_traits>
PUBLIC	??1?$_Tree@V?$_Tmap_traits@KPAVCEffectInstance@@U?$less@K@std@@V?$allocator@U?$pair@$$CBKPAVCEffectInstance@@@std@@@3@$0A@@std@@@std@@QAE@XZ ; std::_Tree<std::_Tmap_traits<unsigned long,CEffectInstance *,std::less<unsigned long>,std::allocator<std::pair<unsigned long const ,CEffectInstance *> >,0> >::~_Tree<std::_Tmap_traits<unsigned long,CEffectInstance *,std::less<unsigned long>,std::allocator<std::pair<unsigned long const ,CEffectInstance *> >,0> >
PUBLIC	?_Lrotate@?$_Tree_val@U?$_Tree_simple_types@U?$pair@$$CBKPAVCEffectInstance@@@std@@@std@@@std@@QAEXPAU?$_Tree_node@U?$pair@$$CBKPAVCEffectInstance@@@std@@PAX@2@@Z ; std::_Tree_val<std::_Tree_simple_types<std::pair<unsigned long const ,CEffectInstance *> > >::_Lrotate
PUBLIC	?_Rrotate@?$_Tree_val@U?$_Tree_simple_types@U?$pair@$$CBKPAVCEffectInstance@@@std@@@std@@@std@@QAEXPAU?$_Tree_node@U?$pair@$$CBKPAVCEffectInstance@@@std@@PAX@2@@Z ; std::_Tree_val<std::_Tree_simple_types<std::pair<unsigned long const ,CEffectInstance *> > >::_Rrotate
PUBLIC	?_Extract@?$_Tree_val@U?$_Tree_simple_types@U?$pair@$$CBKPAVCEffectInstance@@@std@@@std@@@std@@QAEPAU?$_Tree_node@U?$pair@$$CBKPAVCEffectInstance@@@std@@PAX@2@V?$_Tree_unchecked_const_iterator@V?$_Tree_val@U?$_Tree_simple_types@U?$pair@$$CBKPAVCEffectInstance@@@std@@@std@@@std@@U_Iterator_base0@2@@2@@Z ; std::_Tree_val<std::_Tree_simple_types<std::pair<unsigned long const ,CEffectInstance *> > >::_Extract
PUBLIC	?_Insert_node@?$_Tree_val@U?$_Tree_simple_types@U?$pair@$$CBKPAVCEffectInstance@@@std@@@std@@@std@@QAEPAU?$_Tree_node@U?$pair@$$CBKPAVCEffectInstance@@@std@@PAX@2@U?$_Tree_id@PAU?$_Tree_node@U?$pair@$$CBKPAVCEffectInstance@@@std@@PAX@std@@@2@QAU32@@Z ; std::_Tree_val<std::_Tree_simple_types<std::pair<unsigned long const ,CEffectInstance *> > >::_Insert_node
PUBLIC	??1?$map@KPAVCEffectInstance@@U?$less@K@std@@V?$allocator@U?$pair@$$CBKPAVCEffectInstance@@@std@@@3@@std@@QAE@XZ ; std::map<unsigned long,CEffectInstance *,std::less<unsigned long>,std::allocator<std::pair<unsigned long const ,CEffectInstance *> > >::~map<unsigned long,CEffectInstance *,std::less<unsigned long>,std::allocator<std::pair<unsigned long const ,CEffectInstance *> > >
PUBLIC	??1?$vector@PAVCSpeedTreeWrapper@@V?$allocator@PAVCSpeedTreeWrapper@@@std@@@std@@QAE@XZ ; std::vector<CSpeedTreeWrapper *,std::allocator<CSpeedTreeWrapper *> >::~vector<CSpeedTreeWrapper *,std::allocator<CSpeedTreeWrapper *> >
PUBLIC	?_Xlength@?$vector@PAVCSpeedTreeWrapper@@V?$allocator@PAVCSpeedTreeWrapper@@@std@@@std@@CAXXZ ; std::vector<CSpeedTreeWrapper *,std::allocator<CSpeedTreeWrapper *> >::_Xlength
PUBLIC	?InitializeRotation@SObjectData@CArea@@QAEXXZ	; CArea::SObjectData::InitializeRotation
PUBLIC	??1?$vector@USObjectData@CArea@@V?$allocator@USObjectData@CArea@@@std@@@std@@QAE@XZ ; std::vector<CArea::SObjectData,std::allocator<CArea::SObjectData> >::~vector<CArea::SObjectData,std::allocator<CArea::SObjectData> >
PUBLIC	?_Xlength@?$vector@USObjectData@CArea@@V?$allocator@USObjectData@CArea@@@std@@@std@@CAXXZ ; std::vector<CArea::SObjectData,std::allocator<CArea::SObjectData> >::_Xlength
PUBLIC	??0SAmbienceInstance@CArea@@QAE@XZ		; CArea::SAmbienceInstance::SAmbienceInstance
PUBLIC	??1SAmbienceInstance@CArea@@UAE@XZ		; CArea::SAmbienceInstance::~SAmbienceInstance
PUBLIC	?__Update@SAmbienceInstance@CArea@@QAEXMMM@Z	; CArea::SAmbienceInstance::__Update
PUBLIC	?UpdateOnceSound@SAmbienceInstance@CArea@@QAEXMMM@Z ; CArea::SAmbienceInstance::UpdateOnceSound
PUBLIC	?UpdateStepSound@SAmbienceInstance@CArea@@QAEXMMM@Z ; CArea::SAmbienceInstance::UpdateStepSound
PUBLIC	?UpdateLoopSound@SAmbienceInstance@CArea@@QAEXMMM@Z ; CArea::SAmbienceInstance::UpdateLoopSound
PUBLIC	?Render@SAmbienceInstance@CArea@@QAEXXZ		; CArea::SAmbienceInstance::Render
PUBLIC	?Picking@SAmbienceInstance@CArea@@QAE_NXZ	; CArea::SAmbienceInstance::Picking
PUBLIC	?__GetVolumeFromDistance@SAmbienceInstance@CArea@@QAEMM@Z ; CArea::SAmbienceInstance::__GetVolumeFromDistance
PUBLIC	??_GSAmbienceInstance@CArea@@UAEPAXI@Z		; CArea::SAmbienceInstance::`scalar deleting destructor'
PUBLIC	?SetTree@SObjectInstance@CArea@@QAEXMMMKPBD@Z	; CArea::SObjectInstance::SetTree
PUBLIC	??1SObjectInstance@CArea@@UAE@XZ		; CArea::SObjectInstance::~SObjectInstance
PUBLIC	??_GSObjectInstance@CArea@@UAEPAXI@Z		; CArea::SObjectInstance::`scalar deleting destructor'
PUBLIC	??0CArea@@QAE@XZ				; CArea::CArea
PUBLIC	??1CArea@@UAE@XZ				; CArea::~CArea
PUBLIC	?CollectRenderingObject@CArea@@QAEXAAV?$vector@PAVCGraphicThingInstance@@V?$allocator@PAVCGraphicThingInstance@@@std@@@std@@@Z ; CArea::CollectRenderingObject
PUBLIC	?CollectBlendRenderingObject@CArea@@QAEXAAV?$vector@PAVCGraphicThingInstance@@V?$allocator@PAVCGraphicThingInstance@@@std@@@std@@@Z ; CArea::CollectBlendRenderingObject
PUBLIC	?SetMapOutDoor@CArea@@QAEXPAVCMapOutdoor@@@Z	; CArea::SetMapOutDoor
PUBLIC	?Clear@CArea@@QAEXXZ				; CArea::Clear
PUBLIC	?Load@CArea@@QAE_NPBD@Z				; CArea::Load
PUBLIC	?GetObjectDataCount@CArea@@QAEKXZ		; CArea::GetObjectDataCount
PUBLIC	?GetObjectDataPointer@CArea@@QBE_NKPAPBUSObjectData@1@@Z ; CArea::GetObjectDataPointer
PUBLIC	?GetObjectInstanceCount@CArea@@QBE?BKXZ		; CArea::GetObjectInstanceCount
PUBLIC	?GetObjectInstancePointer@CArea@@QBE?B_NABKPAPBUSObjectInstance@1@@Z ; CArea::GetObjectInstancePointer
PUBLIC	?EnablePortal@CArea@@QAEXH@Z			; CArea::EnablePortal
PUBLIC	?ClearPortal@CArea@@QAEXXZ			; CArea::ClearPortal
PUBLIC	?AddShowingPortalID@CArea@@QAEXH@Z		; CArea::AddShowingPortalID
PUBLIC	?RefreshPortal@CArea@@QAEXXZ			; CArea::RefreshPortal
PUBLIC	?Update@CArea@@QAEXXZ				; CArea::Update
PUBLIC	?UpdateAroundAmbience@CArea@@QAEXMMM@Z		; CArea::UpdateAroundAmbience
PUBLIC	?Render@CArea@@QAEXXZ				; CArea::Render
PUBLIC	?RenderEffect@CArea@@QAEXXZ			; CArea::RenderEffect
PUBLIC	?RenderCollision@CArea@@QAEXXZ			; CArea::RenderCollision
PUBLIC	?RenderAmbience@CArea@@QAEXXZ			; CArea::RenderAmbience
PUBLIC	?RenderDungeon@CArea@@QAEXXZ			; CArea::RenderDungeon
PUBLIC	?Refresh@CArea@@QAEXXZ				; CArea::Refresh
PUBLIC	?SetCoordinate@CArea@@QAEXABG0@Z		; CArea::SetCoordinate
PUBLIC	?GetCoordinate@CArea@@QAEXPAG0@Z		; CArea::GetCoordinate
PUBLIC	?DEBUG_GetRenderedCRCNum@CArea@@QAEKXZ		; CArea::DEBUG_GetRenderedCRCNum
PUBLIC	?DEBUG_GetRenderedCRCWithNumVector@CArea@@QAEAAV?$vector@USCRCWithNumber@CArea@@V?$allocator@USCRCWithNumber@CArea@@@std@@@std@@XZ ; CArea::DEBUG_GetRenderedCRCWithNumVector
PUBLIC	?DEBUG_GetRenderedGrapphicThingInstanceNum@CArea@@QAEKXZ ; CArea::DEBUG_GetRenderedGrapphicThingInstanceNum
PUBLIC	?CheckObjectIndex@CArea@@IBE_NK@Z		; CArea::CheckObjectIndex
PUBLIC	?__Load_LoadObject@CArea@@IAE_NPBD@Z		; CArea::__Load_LoadObject
PUBLIC	?__Load_LoadAmbience@CArea@@IAE_NPBD@Z		; CArea::__Load_LoadAmbience
PUBLIC	?__Load_BuildObjectInstances@CArea@@IAEXXZ	; CArea::__Load_BuildObjectInstances
PUBLIC	?__UpdateAniThingList@CArea@@IAEXXZ		; CArea::__UpdateAniThingList
PUBLIC	?__UpdateEffectList@CArea@@IAEXXZ		; CArea::__UpdateEffectList
PUBLIC	?__LoadAttribute@CArea@@IAEXPAUSObjectInstance@1@PBD@Z ; CArea::__LoadAttribute
PUBLIC	?__Clear_DestroyObjectInstance@CArea@@IAEXPAUSObjectInstance@1@@Z ; CArea::__Clear_DestroyObjectInstance
PUBLIC	?__SetObjectInstance@CArea@@IAEXPAUSObjectInstance@1@PBUSObjectData@1@@Z ; CArea::__SetObjectInstance
PUBLIC	?__SetObjectInstance_SetTree@CArea@@IAEXPAUSObjectInstance@1@PBUSObjectData@1@PAVCProperty@@@Z ; CArea::__SetObjectInstance_SetTree
PUBLIC	?__SetObjectInstance_SetBuilding@CArea@@IAEXPAUSObjectInstance@1@PBUSObjectData@1@PAVCProperty@@@Z ; CArea::__SetObjectInstance_SetBuilding
PUBLIC	?__SetObjectInstance_SetEffect@CArea@@IAEXPAUSObjectInstance@1@PBUSObjectData@1@PAVCProperty@@@Z ; CArea::__SetObjectInstance_SetEffect
PUBLIC	?__SetObjectInstance_SetAmbience@CArea@@IAEXPAUSObjectInstance@1@PBUSObjectData@1@PAVCProperty@@@Z ; CArea::__SetObjectInstance_SetAmbience
PUBLIC	?__SetObjectInstance_SetDungeonBlock@CArea@@IAEXPAUSObjectInstance@1@PBUSObjectData@1@PAVCProperty@@@Z ; CArea::__SetObjectInstance_SetDungeonBlock
PUBLIC	??1?$vector@PAUSObjectInstance@CArea@@V?$allocator@PAUSObjectInstance@CArea@@@std@@@std@@QAE@XZ ; std::vector<CArea::SObjectInstance *,std::allocator<CArea::SObjectInstance *> >::~vector<CArea::SObjectInstance *,std::allocator<CArea::SObjectInstance *> >
PUBLIC	?_Xlength@?$vector@PAUSObjectInstance@CArea@@V?$allocator@PAUSObjectInstance@CArea@@@std@@@std@@CAXXZ ; std::vector<CArea::SObjectInstance *,std::allocator<CArea::SObjectInstance *> >::_Xlength
PUBLIC	??1?$vector@PAVCGraphicThingInstance@@V?$allocator@PAVCGraphicThingInstance@@@std@@@std@@QAE@XZ ; std::vector<CGraphicThingInstance *,std::allocator<CGraphicThingInstance *> >::~vector<CGraphicThingInstance *,std::allocator<CGraphicThingInstance *> >
PUBLIC	?_Xlength@?$vector@PAVCGraphicThingInstance@@V?$allocator@PAVCGraphicThingInstance@@@std@@@std@@CAXXZ ; std::vector<CGraphicThingInstance *,std::allocator<CGraphicThingInstance *> >::_Xlength
PUBLIC	??1?$vector@PAVCDungeonBlock@@V?$allocator@PAVCDungeonBlock@@@std@@@std@@QAE@XZ ; std::vector<CDungeonBlock *,std::allocator<CDungeonBlock *> >::~vector<CDungeonBlock *,std::allocator<CDungeonBlock *> >
PUBLIC	?_Xlength@?$vector@PAVCDungeonBlock@@V?$allocator@PAVCDungeonBlock@@@std@@@std@@CAXXZ ; std::vector<CDungeonBlock *,std::allocator<CDungeonBlock *> >::_Xlength
PUBLIC	??1?$vector@PAUSAmbienceInstance@CArea@@V?$allocator@PAUSAmbienceInstance@CArea@@@std@@@std@@QAE@XZ ; std::vector<CArea::SAmbienceInstance *,std::allocator<CArea::SAmbienceInstance *> >::~vector<CArea::SAmbienceInstance *,std::allocator<CArea::SAmbienceInstance *> >
PUBLIC	?_Xlength@?$vector@PAUSAmbienceInstance@CArea@@V?$allocator@PAUSAmbienceInstance@CArea@@@std@@@std@@CAXXZ ; std::vector<CArea::SAmbienceInstance *,std::allocator<CArea::SAmbienceInstance *> >::_Xlength
PUBLIC	??1?$_Tree@V?$_Tmap_traits@PAVCGraphicThingInstance@@KU?$less@PAVCGraphicThingInstance@@@std@@V?$allocator@U?$pair@QAVCGraphicThingInstance@@K@std@@@3@$0A@@std@@@std@@QAE@XZ ; std::_Tree<std::_Tmap_traits<CGraphicThingInstance *,unsigned long,std::less<CGraphicThingInstance *>,std::allocator<std::pair<CGraphicThingInstance * const,unsigned long> >,0> >::~_Tree<std::_Tmap_traits<CGraphicThingInstance *,unsigned long,std::less<CGraphicThingInstance *>,std::allocator<std::pair<CGraphicThingInstance * const,unsigned long> >,0> >
PUBLIC	?clear@?$_Tree@V?$_Tmap_traits@PAVCGraphicThingInstance@@KU?$less@PAVCGraphicThingInstance@@@std@@V?$allocator@U?$pair@QAVCGraphicThingInstance@@K@std@@@3@$0A@@std@@@std@@QAEXXZ ; std::_Tree<std::_Tmap_traits<CGraphicThingInstance *,unsigned long,std::less<CGraphicThingInstance *>,std::allocator<std::pair<CGraphicThingInstance * const,unsigned long> >,0> >::clear
PUBLIC	?_Insert_node@?$_Tree_val@U?$_Tree_simple_types@U?$pair@QAVCGraphicThingInstance@@K@std@@@std@@@std@@QAEPAU?$_Tree_node@U?$pair@QAVCGraphicThingInstance@@K@std@@PAX@2@U?$_Tree_id@PAU?$_Tree_node@U?$pair@QAVCGraphicThingInstance@@K@std@@PAX@std@@@2@QAU32@@Z ; std::_Tree_val<std::_Tree_simple_types<std::pair<CGraphicThingInstance * const,unsigned long> > >::_Insert_node
PUBLIC	??1?$map@PAVCGraphicThingInstance@@KU?$less@PAVCGraphicThingInstance@@@std@@V?$allocator@U?$pair@QAVCGraphicThingInstance@@K@std@@@3@@std@@QAE@XZ ; std::map<CGraphicThingInstance *,unsigned long,std::less<CGraphicThingInstance *>,std::allocator<std::pair<CGraphicThingInstance * const,unsigned long> > >::~map<CGraphicThingInstance *,unsigned long,std::less<CGraphicThingInstance *>,std::allocator<std::pair<CGraphicThingInstance * const,unsigned long> > >
PUBLIC	??1?$vector@USCRCWithNumber@CArea@@V?$allocator@USCRCWithNumber@CArea@@@std@@@std@@QAE@XZ ; std::vector<CArea::SCRCWithNumber,std::allocator<CArea::SCRCWithNumber> >::~vector<CArea::SCRCWithNumber,std::allocator<CArea::SCRCWithNumber> >
PUBLIC	?_Xlength@?$vector@USCRCWithNumber@CArea@@V?$allocator@USCRCWithNumber@CArea@@@std@@@std@@CAXXZ ; std::vector<CArea::SCRCWithNumber,std::allocator<CArea::SCRCWithNumber> >::_Xlength
PUBLIC	??1?$_Tree@V?$_Tset_traits@HU?$less@H@std@@V?$allocator@H@2@$0A@@std@@@std@@QAE@XZ ; std::_Tree<std::_Tset_traits<int,std::less<int>,std::allocator<int>,0> >::~_Tree<std::_Tset_traits<int,std::less<int>,std::allocator<int>,0> >
PUBLIC	?_Insert_node@?$_Tree_val@U?$_Tree_simple_types@H@std@@@std@@QAEPAU?$_Tree_node@HPAX@2@U?$_Tree_id@PAU?$_Tree_node@HPAX@std@@@2@QAU32@@Z ; std::_Tree_val<std::_Tree_simple_types<int> >::_Insert_node
PUBLIC	?DestroySystem@CArea@@SAXXZ			; CArea::DestroySystem
PUBLIC	?New@CArea@@SAPAV1@XZ				; CArea::New
PUBLIC	?Delete@CArea@@SAXPAV1@@Z			; CArea::Delete
PUBLIC	??_GCArea@@UAEPAXI@Z				; CArea::`scalar deleting destructor'
PUBLIC	?_Insert_node@?$_Tree_val@U?$_Tree_simple_types@U?$pair@$$CBV?$basic_string@DU?$char_traits@D@std@@V?$allocator@D@2@@std@@V?$vector@V?$basic_string@DU?$char_traits@D@std@@V?$allocator@D@2@@std@@V?$allocator@V?$basic_string@DU?$char_traits@D@std@@V?$allocator@D@2@@std@@@2@@2@@std@@@std@@@std@@QAEPAU?$_Tree_node@U?$pair@$$CBV?$basic_string@DU?$char_traits@D@std@@V?$allocator@D@2@@std@@V?$vector@V?$basic_string@DU?$char_traits@D@std@@V?$allocator@D@2@@std@@V?$allocator@V?$basic_string@DU?$char_traits@D@std@@V?$allocator@D@2@@std@@@2@@2@@std@@PAX@2@U?$_Tree_id@PAU?$_Tree_node@U?$pair@$$CBV?$basic_string@DU?$char_traits@D@std@@V?$allocator@D@2@@std@@V?$vector@V?$basic_string@DU?$char_traits@D@std@@V?$allocator@D@2@@std@@V?$allocator@V?$basic_string@DU?$char_traits@D@std@@V?$allocator@D@2@@std@@@2@@2@@std@@PAX@std@@@2@QAU32@@Z ; std::_Tree_val<std::_Tree_simple_types<std::pair<std::basic_string<char,std::char_traits<char>,std::allocator<char> > const ,std::vector<std::basic_string<char,std::char_traits<char>,std::allocator<char> >,std::allocator<std::basic_string<char,std::char_traits<char>,std::allocator<char> > > > > > >::_Insert_node
PUBLIC	??1?$map@V?$basic_string@DU?$char_traits@D@std@@V?$allocator@D@2@@std@@V?$vector@V?$basic_string@DU?$char_traits@D@std@@V?$allocator@D@2@@std@@V?$allocator@V?$basic_string@DU?$char_traits@D@std@@V?$allocator@D@2@@std@@@2@@2@U?$less@V?$basic_string@DU?$char_traits@D@std@@V?$allocator@D@2@@std@@@2@V?$allocator@U?$pair@$$CBV?$basic_string@DU?$char_traits@D@std@@V?$allocator@D@2@@std@@V?$vector@V?$basic_string@DU?$char_traits@D@std@@V?$allocator@D@2@@std@@V?$allocator@V?$basic_string@DU?$char_traits@D@std@@V?$allocator@D@2@@std@@@2@@2@@std@@@2@@std@@QAE@XZ ; std::map<std::basic_string<char,std::char_traits<char>,std::allocator<char> >,std::vector<std::basic_string<char,std::char_traits<char>,std::allocator<char> >,std::allocator<std::basic_string<char,std::char_traits<char>,std::allocator<char> > > >,std::less<std::basic_string<char,std::char_traits<char>,std::allocator<char> > >,std::allocator<std::pair<std::basic_string<char,std::char_traits<char>,std::allocator<char> > const ,std::vector<std::basic_string<char,std::char_traits<char>,std::allocator<char> >,std::allocator<std::basic_string<char,std::char_traits<char>,std::allocator<char> > > > > > >::~map<std::basic_string<char,std::char_traits<char>,std::allocator<char> >,std::vector<std::basic_string<char,std::char_traits<char>,std::allocator<char> >,std::allocator<std::basic_string<char,std::char_traits<char>,std::allocator<char> > > >,std::less<std::basic_string<char,std::char_traits<char>,std::allocator<char> > >,std::allocator<std::pair<std::basic_string<char,std::char_traits<char>,std::allocator<char> > const ,std::vector<std::basic_string<char,std::char_traits<char>,std::allocator<char> >,std::allocator<std::basic_string<char,std::char_traits<char>,std::allocator<char> > > > > > >
PUBLIC	??1?$CDynamicPool@USObjectInstance@CArea@@@@UAE@XZ ; CDynamicPool<CArea::SObjectInstance>::~CDynamicPool<CArea::SObjectInstance>
PUBLIC	?Delete@?$CDynamicPool@USObjectInstance@CArea@@@@KAXPAUSObjectInstance@CArea@@@Z ; CDynamicPool<CArea::SObjectInstance>::Delete
PUBLIC	??1?$CDynamicPool@VCAttributeInstance@@@@UAE@XZ	; CDynamicPool<CAttributeInstance>::~CDynamicPool<CAttributeInstance>
PUBLIC	?Delete@?$CDynamicPool@VCAttributeInstance@@@@KAXPAVCAttributeInstance@@@Z ; CDynamicPool<CAttributeInstance>::Delete
PUBLIC	?_Xlength@?$vector@PAVCAttributeInstance@@V?$allocator@PAVCAttributeInstance@@@std@@@std@@CAXXZ ; std::vector<CAttributeInstance *,std::allocator<CAttributeInstance *> >::_Xlength
PUBLIC	??1?$CDynamicPool@USAmbienceInstance@CArea@@@@UAE@XZ ; CDynamicPool<CArea::SAmbienceInstance>::~CDynamicPool<CArea::SAmbienceInstance>
PUBLIC	?Delete@?$CDynamicPool@USAmbienceInstance@CArea@@@@KAXPAUSAmbienceInstance@CArea@@@Z ; CDynamicPool<CArea::SAmbienceInstance>::Delete
PUBLIC	??1?$CDynamicPool@VCDungeonBlock@@@@UAE@XZ	; CDynamicPool<CDungeonBlock>::~CDynamicPool<CDungeonBlock>
PUBLIC	?Delete@?$CDynamicPool@VCDungeonBlock@@@@KAXPAVCDungeonBlock@@@Z ; CDynamicPool<CDungeonBlock>::Delete
PUBLIC	??1?$CDynamicPool@VCArea@@@@UAE@XZ		; CDynamicPool<CArea>::~CDynamicPool<CArea>
PUBLIC	?Delete@?$CDynamicPool@VCArea@@@@KAXPAVCArea@@@Z ; CDynamicPool<CArea>::Delete
PUBLIC	?_Xlength@?$vector@PAVCArea@@V?$allocator@PAVCArea@@@std@@@std@@CAXXZ ; std::vector<CArea *,std::allocator<CArea *> >::_Xlength
PUBLIC	??E?$_Tree_unchecked_const_iterator@V?$_Tree_val@U?$_Tree_simple_types@U?$pair@$$CBKPAVCEffectInstance@@@std@@@std@@@std@@U_Iterator_base0@2@@std@@QAEAAV01@XZ ; std::_Tree_unchecked_const_iterator<std::_Tree_val<std::_Tree_simple_types<std::pair<unsigned long const ,CEffectInstance *> > >,std::_Iterator_base0>::operator++
PUBLIC	?_Xlength@?$vector@PAVCEffectInstance@@V?$allocator@PAVCEffectInstance@@@std@@@std@@CAXXZ ; std::vector<CEffectInstance *,std::allocator<CEffectInstance *> >::_Xlength
PUBLIC	??$?HDU?$char_traits@D@std@@V?$allocator@D@1@@std@@YA?AV?$basic_string@DU?$char_traits@D@std@@V?$allocator@D@2@@0@$$QAV10@QBD@Z ; std::operator+<char,std::char_traits<char>,std::allocator<char> >
PUBLIC	??$?HDU?$char_traits@D@std@@V?$allocator@D@1@@std@@YA?AV?$basic_string@DU?$char_traits@D@std@@V?$allocator@D@2@@0@QBD$$QAV10@@Z ; std::operator+<char,std::char_traits<char>,std::allocator<char> >
PUBLIC	??1?$pair@$$CBV?$basic_string@DU?$char_traits@D@std@@V?$allocator@D@2@@std@@V?$vector@V?$basic_string@DU?$char_traits@D@std@@V?$allocator@D@2@@std@@V?$allocator@V?$basic_string@DU?$char_traits@D@std@@V?$allocator@D@2@@std@@@2@@2@@std@@QAE@XZ ; std::pair<std::basic_string<char,std::char_traits<char>,std::allocator<char> > const ,std::vector<std::basic_string<char,std::char_traits<char>,std::allocator<char> >,std::allocator<std::basic_string<char,std::char_traits<char>,std::allocator<char> > > > >::~pair<std::basic_string<char,std::char_traits<char>,std::allocator<char> > const ,std::vector<std::basic_string<char,std::char_traits<char>,std::allocator<char> >,std::allocator<std::basic_string<char,std::char_traits<char>,std::allocator<char> > > > >
PUBLIC	??1?$_Tree@V?$_Tset_traits@PAUSObjectInstance@CArea@@U?$less@PAUSObjectInstance@CArea@@@std@@V?$allocator@PAUSObjectInstance@CArea@@@4@$0A@@std@@@std@@QAE@XZ ; std::_Tree<std::_Tset_traits<CArea::SObjectInstance *,std::less<CArea::SObjectInstance *>,std::allocator<CArea::SObjectInstance *>,0> >::~_Tree<std::_Tset_traits<CArea::SObjectInstance *,std::less<CArea::SObjectInstance *>,std::allocator<CArea::SObjectInstance *>,0> >
PUBLIC	?_Insert_node@?$_Tree_val@U?$_Tree_simple_types@PAUSObjectInstance@CArea@@@std@@@std@@QAEPAU?$_Tree_node@PAUSObjectInstance@CArea@@PAX@2@U?$_Tree_id@PAU?$_Tree_node@PAUSObjectInstance@CArea@@PAX@std@@@2@QAU32@@Z ; std::_Tree_val<std::_Tree_simple_types<CArea::SObjectInstance *> >::_Insert_node
PUBLIC	??1?$set@PAUSObjectInstance@CArea@@U?$less@PAUSObjectInstance@CArea@@@std@@V?$allocator@PAUSObjectInstance@CArea@@@4@@std@@QAE@XZ ; std::set<CArea::SObjectInstance *,std::less<CArea::SObjectInstance *>,std::allocator<CArea::SObjectInstance *> >::~set<CArea::SObjectInstance *,std::less<CArea::SObjectInstance *>,std::allocator<CArea::SObjectInstance *> >
PUBLIC	??$_Erase_tree@V?$allocator@U?$_Tree_node@PAUSObjectInstance@CArea@@PAX@std@@@std@@@?$_Tree_val@U?$_Tree_simple_types@PAUSObjectInstance@CArea@@@std@@@std@@QAEXAAV?$allocator@U?$_Tree_node@PAUSObjectInstance@CArea@@PAX@std@@@1@PAU?$_Tree_node@PAUSObjectInstance@CArea@@PAX@1@@Z ; std::_Tree_val<std::_Tree_simple_types<CArea::SObjectInstance *> >::_Erase_tree<std::allocator<std::_Tree_node<CArea::SObjectInstance *,void *> > >
PUBLIC	??$_Emplace_reallocate@ABQAVCEffectInstance@@@?$vector@PAVCEffectInstance@@V?$allocator@PAVCEffectInstance@@@std@@@std@@QAEPAPAVCEffectInstance@@QAPAV2@ABQAV2@@Z ; std::vector<CEffectInstance *,std::allocator<CEffectInstance *> >::_Emplace_reallocate<CEffectInstance * const &>
PUBLIC	??$_Erase_tree@V?$allocator@U?$_Tree_node@HPAX@std@@@std@@@?$_Tree_val@U?$_Tree_simple_types@H@std@@@std@@QAEXAAV?$allocator@U?$_Tree_node@HPAX@std@@@1@PAU?$_Tree_node@HPAX@1@@Z ; std::_Tree_val<std::_Tree_simple_types<int> >::_Erase_tree<std::allocator<std::_Tree_node<int,void *> > >
PUBLIC	??$_Emplace_reallocate@ABUSCRCWithNumber@CArea@@@?$vector@USCRCWithNumber@CArea@@V?$allocator@USCRCWithNumber@CArea@@@std@@@std@@QAEPAUSCRCWithNumber@CArea@@QAU23@ABU23@@Z ; std::vector<CArea::SCRCWithNumber,std::allocator<CArea::SCRCWithNumber> >::_Emplace_reallocate<CArea::SCRCWithNumber const &>
PUBLIC	??$_Erase_tree@V?$allocator@U?$_Tree_node@U?$pair@QAVCGraphicThingInstance@@K@std@@PAX@std@@@std@@@?$_Tree_val@U?$_Tree_simple_types@U?$pair@QAVCGraphicThingInstance@@K@std@@@std@@@std@@QAEXAAV?$allocator@U?$_Tree_node@U?$pair@QAVCGraphicThingInstance@@K@std@@PAX@std@@@1@PAU?$_Tree_node@U?$pair@QAVCGraphicThingInstance@@K@std@@PAX@1@@Z ; std::_Tree_val<std::_Tree_simple_types<std::pair<CGraphicThingInstance * const,unsigned long> > >::_Erase_tree<std::allocator<std::_Tree_node<std::pair<CGraphicThingInstance * const,unsigned long>,void *> > >
PUBLIC	??$_Emplace_reallocate@ABQAUSAmbienceInstance@CArea@@@?$vector@PAUSAmbienceInstance@CArea@@V?$allocator@PAUSAmbienceInstance@CArea@@@std@@@std@@QAEPAPAUSAmbienceInstance@CArea@@QAPAU23@ABQAU23@@Z ; std::vector<CArea::SAmbienceInstance *,std::allocator<CArea::SAmbienceInstance *> >::_Emplace_reallocate<CArea::SAmbienceInstance * const &>
PUBLIC	??$_Emplace_reallocate@ABQAVCDungeonBlock@@@?$vector@PAVCDungeonBlock@@V?$allocator@PAVCDungeonBlock@@@std@@@std@@QAEPAPAVCDungeonBlock@@QAPAV2@ABQAV2@@Z ; std::vector<CDungeonBlock *,std::allocator<CDungeonBlock *> >::_Emplace_reallocate<CDungeonBlock * const &>
PUBLIC	??$_Emplace_reallocate@ABQAVCGraphicThingInstance@@@?$vector@PAVCGraphicThingInstance@@V?$allocator@PAVCGraphicThingInstance@@@std@@@std@@QAEPAPAVCGraphicThingInstance@@QAPAV2@ABQAV2@@Z ; std::vector<CGraphicThingInstance *,std::allocator<CGraphicThingInstance *> >::_Emplace_reallocate<CGraphicThingInstance * const &>
PUBLIC	??$_Emplace_reallocate@ABUSObjectData@CArea@@@?$vector@USObjectData@CArea@@V?$allocator@USObjectData@CArea@@@std@@@std@@QAEPAUSObjectData@CArea@@QAU23@ABU23@@Z ; std::vector<CArea::SObjectData,std::allocator<CArea::SObjectData> >::_Emplace_reallocate<CArea::SObjectData const &>
PUBLIC	??$_Emplace_reallocate@ABQAVCSpeedTreeWrapper@@@?$vector@PAVCSpeedTreeWrapper@@V?$allocator@PAVCSpeedTreeWrapper@@@std@@@std@@QAEPAPAVCSpeedTreeWrapper@@QAPAV2@ABQAV2@@Z ; std::vector<CSpeedTreeWrapper *,std::allocator<CSpeedTreeWrapper *> >::_Emplace_reallocate<CSpeedTreeWrapper * const &>
PUBLIC	??$_Erase_tree@V?$allocator@U?$_Tree_node@U?$pair@$$CBKPAVCEffectInstance@@@std@@PAX@std@@@std@@@?$_Tree_val@U?$_Tree_simple_types@U?$pair@$$CBKPAVCEffectInstance@@@std@@@std@@@std@@QAEXAAV?$allocator@U?$_Tree_node@U?$pair@$$CBKPAVCEffectInstance@@@std@@PAX@std@@@1@PAU?$_Tree_node@U?$pair@$$CBKPAVCEffectInstance@@@std@@PAX@1@@Z ; std::_Tree_val<std::_Tree_simple_types<std::pair<unsigned long const ,CEffectInstance *> > >::_Erase_tree<std::allocator<std::_Tree_node<std::pair<unsigned long const ,CEffectInstance *>,void *> > >
PUBLIC	??1?$CDynamicPoolEx@VCRotationDecorator@NEffectUpdateDecorator@@@@UAE@XZ ; CDynamicPoolEx<NEffectUpdateDecorator::CRotationDecorator>::~CDynamicPoolEx<NEffectUpdateDecorator::CRotationDecorator>
PUBLIC	?Delete@?$CDynamicPoolEx@VCRotationDecorator@NEffectUpdateDecorator@@@@KAXPAVCRotationDecorator@NEffectUpdateDecorator@@@Z ; CDynamicPoolEx<NEffectUpdateDecorator::CRotationDecorator>::Delete
PUBLIC	??1?$CDynamicPoolEx@VCGravityDecorator@NEffectUpdateDecorator@@@@UAE@XZ ; CDynamicPoolEx<NEffectUpdateDecorator::CGravityDecorator>::~CDynamicPoolEx<NEffectUpdateDecorator::CGravityDecorator>
PUBLIC	?Delete@?$CDynamicPoolEx@VCGravityDecorator@NEffectUpdateDecorator@@@@KAXPAVCGravityDecorator@NEffectUpdateDecorator@@@Z ; CDynamicPoolEx<NEffectUpdateDecorator::CGravityDecorator>::Delete
PUBLIC	??1?$CDynamicPoolEx@VCAirResistanceDecorator@NEffectUpdateDecorator@@@@UAE@XZ ; CDynamicPoolEx<NEffectUpdateDecorator::CAirResistanceDecorator>::~CDynamicPoolEx<NEffectUpdateDecorator::CAirResistanceDecorator>
PUBLIC	?Delete@?$CDynamicPoolEx@VCAirResistanceDecorator@NEffectUpdateDecorator@@@@KAXPAVCAirResistanceDecorator@NEffectUpdateDecorator@@@Z ; CDynamicPoolEx<NEffectUpdateDecorator::CAirResistanceDecorator>::Delete
PUBLIC	??1?$CDynamicPoolEx@VCTextureAnimationRandomDecorator@NEffectUpdateDecorator@@@@UAE@XZ ; CDynamicPoolEx<NEffectUpdateDecorator::CTextureAnimationRandomDecorator>::~CDynamicPoolEx<NEffectUpdateDecorator::CTextureAnimationRandomDecorator>
PUBLIC	?Delete@?$CDynamicPoolEx@VCTextureAnimationRandomDecorator@NEffectUpdateDecorator@@@@KAXPAVCTextureAnimationRandomDecorator@NEffectUpdateDecorator@@@Z ; CDynamicPoolEx<NEffectUpdateDecorator::CTextureAnimationRandomDecorator>::Delete
PUBLIC	??1?$CDynamicPoolEx@VCTextureAnimationCCWDecorator@NEffectUpdateDecorator@@@@UAE@XZ ; CDynamicPoolEx<NEffectUpdateDecorator::CTextureAnimationCCWDecorator>::~CDynamicPoolEx<NEffectUpdateDecorator::CTextureAnimationCCWDecorator>
PUBLIC	?Delete@?$CDynamicPoolEx@VCTextureAnimationCCWDecorator@NEffectUpdateDecorator@@@@KAXPAVCTextureAnimationCCWDecorator@NEffectUpdateDecorator@@@Z ; CDynamicPoolEx<NEffectUpdateDecorator::CTextureAnimationCCWDecorator>::Delete
PUBLIC	??1?$CDynamicPoolEx@VCTextureAnimationCWDecorator@NEffectUpdateDecorator@@@@UAE@XZ ; CDynamicPoolEx<NEffectUpdateDecorator::CTextureAnimationCWDecorator>::~CDynamicPoolEx<NEffectUpdateDecorator::CTextureAnimationCWDecorator>
PUBLIC	?Delete@?$CDynamicPoolEx@VCTextureAnimationCWDecorator@NEffectUpdateDecorator@@@@KAXPAVCTextureAnimationCWDecorator@NEffectUpdateDecorator@@@Z ; CDynamicPoolEx<NEffectUpdateDecorator::CTextureAnimationCWDecorator>::Delete
PUBLIC	??1?$CDynamicPoolEx@VCNullDecorator@NEffectUpdateDecorator@@@@UAE@XZ ; CDynamicPoolEx<NEffectUpdateDecorator::CNullDecorator>::~CDynamicPoolEx<NEffectUpdateDecorator::CNullDecorator>
PUBLIC	?Delete@?$CDynamicPoolEx@VCNullDecorator@NEffectUpdateDecorator@@@@KAXPAVCNullDecorator@NEffectUpdateDecorator@@@Z ; CDynamicPoolEx<NEffectUpdateDecorator::CNullDecorator>::Delete
PUBLIC	??1?$CDynamicPoolEx@VCHeaderDecorator@NEffectUpdateDecorator@@@@UAE@XZ ; CDynamicPoolEx<NEffectUpdateDecorator::CHeaderDecorator>::~CDynamicPoolEx<NEffectUpdateDecorator::CHeaderDecorator>
PUBLIC	?Delete@?$CDynamicPoolEx@VCHeaderDecorator@NEffectUpdateDecorator@@@@KAXPAVCHeaderDecorator@NEffectUpdateDecorator@@@Z ; CDynamicPoolEx<NEffectUpdateDecorator::CHeaderDecorator>::Delete
PUBLIC	??$_Destroy_range@V?$allocator@PAVCEffectInstance@@@std@@@std@@YAXPAPAVCEffectInstance@@QAPAV1@AAV?$allocator@PAVCEffectInstance@@@0@@Z ; std::_Destroy_range<std::allocator<CEffectInstance *> >
PUBLIC	??$_Emplace_reallocate@ABQAVCArea@@@?$vector@PAVCArea@@V?$allocator@PAVCArea@@@std@@@std@@QAEPAPAVCArea@@QAPAV2@ABQAV2@@Z ; std::vector<CArea *,std::allocator<CArea *> >::_Emplace_reallocate<CArea * const &>
PUBLIC	??$_Emplace_reallocate@ABQAVCAttributeInstance@@@?$vector@PAVCAttributeInstance@@V?$allocator@PAVCAttributeInstance@@@std@@@std@@QAEPAPAVCAttributeInstance@@QAPAV2@ABQAV2@@Z ; std::vector<CAttributeInstance *,std::allocator<CAttributeInstance *> >::_Emplace_reallocate<CAttributeInstance * const &>
PUBLIC	??$_Destroy_range@V?$allocator@USCRCWithNumber@CArea@@@std@@@std@@YAXPAUSCRCWithNumber@CArea@@QAU12@AAV?$allocator@USCRCWithNumber@CArea@@@0@@Z ; std::_Destroy_range<std::allocator<CArea::SCRCWithNumber> >
PUBLIC	??$_Destroy_range@V?$allocator@PAUSAmbienceInstance@CArea@@@std@@@std@@YAXPAPAUSAmbienceInstance@CArea@@QAPAU12@AAV?$allocator@PAUSAmbienceInstance@CArea@@@0@@Z ; std::_Destroy_range<std::allocator<CArea::SAmbienceInstance *> >
PUBLIC	??$_Destroy_range@V?$allocator@PAVCDungeonBlock@@@std@@@std@@YAXPAPAVCDungeonBlock@@QAPAV1@AAV?$allocator@PAVCDungeonBlock@@@0@@Z ; std::_Destroy_range<std::allocator<CDungeonBlock *> >
PUBLIC	??$_Destroy_range@V?$allocator@PAVCGraphicThingInstance@@@std@@@std@@YAXPAPAVCGraphicThingInstance@@QAPAV1@AAV?$allocator@PAVCGraphicThingInstance@@@0@@Z ; std::_Destroy_range<std::allocator<CGraphicThingInstance *> >
PUBLIC	??$_Destroy_range@V?$allocator@PAUSObjectInstance@CArea@@@std@@@std@@YAXPAPAUSObjectInstance@CArea@@QAPAU12@AAV?$allocator@PAUSObjectInstance@CArea@@@0@@Z ; std::_Destroy_range<std::allocator<CArea::SObjectInstance *> >
PUBLIC	??$_Emplace_reallocate@ABQAUSObjectInstance@CArea@@@?$vector@PAUSObjectInstance@CArea@@V?$allocator@PAUSObjectInstance@CArea@@@std@@@std@@QAEPAPAUSObjectInstance@CArea@@QAPAU23@ABQAU23@@Z ; std::vector<CArea::SObjectInstance *,std::allocator<CArea::SObjectInstance *> >::_Emplace_reallocate<CArea::SObjectInstance * const &>
PUBLIC	??$_Destroy_range@V?$allocator@USObjectData@CArea@@@std@@@std@@YAXPAUSObjectData@CArea@@QAU12@AAV?$allocator@USObjectData@CArea@@@0@@Z ; std::_Destroy_range<std::allocator<CArea::SObjectData> >
PUBLIC	??$_Destroy_range@V?$allocator@PAVCSpeedTreeWrapper@@@std@@@std@@YAXPAPAVCSpeedTreeWrapper@@QAPAV1@AAV?$allocator@PAVCSpeedTreeWrapper@@@0@@Z ; std::_Destroy_range<std::allocator<CSpeedTreeWrapper *> >
PUBLIC	??$_Destroy_range@V?$allocator@PAVCArea@@@std@@@std@@YAXPAPAVCArea@@QAPAV1@AAV?$allocator@PAVCArea@@@0@@Z ; std::_Destroy_range<std::allocator<CArea *> >
PUBLIC	??$_Destroy_range@V?$allocator@PAVCAttributeInstance@@@std@@@std@@YAXPAPAVCAttributeInstance@@QAPAV1@AAV?$allocator@PAVCAttributeInstance@@@0@@Z ; std::_Destroy_range<std::allocator<CAttributeInstance *> >
PUBLIC	??$_Destroy_range@V?$allocator@V?$basic_string@DU?$char_traits@D@std@@V?$allocator@D@2@@std@@@std@@@std@@YAXPAV?$basic_string@DU?$char_traits@D@std@@V?$allocator@D@2@@0@QAV10@AAV?$allocator@V?$basic_string@DU?$char_traits@D@std@@V?$allocator@D@2@@std@@@0@@Z ; std::_Destroy_range<std::allocator<std::basic_string<char,std::char_traits<char>,std::allocator<char> > > >
PUBLIC	??$_Destroy_range@V?$allocator@PAVCHeaderDecorator@NEffectUpdateDecorator@@@std@@@std@@YAXPAPAVCHeaderDecorator@NEffectUpdateDecorator@@QAPAV12@AAV?$allocator@PAVCHeaderDecorator@NEffectUpdateDecorator@@@0@@Z ; std::_Destroy_range<std::allocator<NEffectUpdateDecorator::CHeaderDecorator *> >
PUBLIC	??$_Destroy_range@V?$allocator@PAVCNullDecorator@NEffectUpdateDecorator@@@std@@@std@@YAXPAPAVCNullDecorator@NEffectUpdateDecorator@@QAPAV12@AAV?$allocator@PAVCNullDecorator@NEffectUpdateDecorator@@@0@@Z ; std::_Destroy_range<std::allocator<NEffectUpdateDecorator::CNullDecorator *> >
PUBLIC	??$_Destroy_range@V?$allocator@PAVCTextureAnimationCWDecorator@NEffectUpdateDecorator@@@std@@@std@@YAXPAPAVCTextureAnimationCWDecorator@NEffectUpdateDecorator@@QAPAV12@AAV?$allocator@PAVCTextureAnimationCWDecorator@NEffectUpdateDecorator@@@0@@Z ; std::_Destroy_range<std::allocator<NEffectUpdateDecorator::CTextureAnimationCWDecorator *> >
PUBLIC	??$_Destroy_range@V?$allocator@PAVCTextureAnimationCCWDecorator@NEffectUpdateDecorator@@@std@@@std@@YAXPAPAVCTextureAnimationCCWDecorator@NEffectUpdateDecorator@@QAPAV12@AAV?$allocator@PAVCTextureAnimationCCWDecorator@NEffectUpdateDecorator@@@0@@Z ; std::_Destroy_range<std::allocator<NEffectUpdateDecorator::CTextureAnimationCCWDecorator *> >
PUBLIC	??$_Destroy_range@V?$allocator@PAVCTextureAnimationRandomDecorator@NEffectUpdateDecorator@@@std@@@std@@YAXPAPAVCTextureAnimationRandomDecorator@NEffectUpdateDecorator@@QAPAV12@AAV?$allocator@PAVCTextureAnimationRandomDecorator@NEffectUpdateDecorator@@@0@@Z ; std::_Destroy_range<std::allocator<NEffectUpdateDecorator::CTextureAnimationRandomDecorator *> >
PUBLIC	??$_Destroy_range@V?$allocator@PAVCAirResistanceDecorator@NEffectUpdateDecorator@@@std@@@std@@YAXPAPAVCAirResistanceDecorator@NEffectUpdateDecorator@@QAPAV12@AAV?$allocator@PAVCAirResistanceDecorator@NEffectUpdateDecorator@@@0@@Z ; std::_Destroy_range<std::allocator<NEffectUpdateDecorator::CAirResistanceDecorator *> >
PUBLIC	??$_Destroy_range@V?$allocator@PAVCGravityDecorator@NEffectUpdateDecorator@@@std@@@std@@YAXPAPAVCGravityDecorator@NEffectUpdateDecorator@@QAPAV12@AAV?$allocator@PAVCGravityDecorator@NEffectUpdateDecorator@@@0@@Z ; std::_Destroy_range<std::allocator<NEffectUpdateDecorator::CGravityDecorator *> >
PUBLIC	??$_Destroy_range@V?$allocator@PAVCRotationDecorator@NEffectUpdateDecorator@@@std@@@std@@YAXPAPAVCRotationDecorator@NEffectUpdateDecorator@@QAPAV12@AAV?$allocator@PAVCRotationDecorator@NEffectUpdateDecorator@@@0@@Z ; std::_Destroy_range<std::allocator<NEffectUpdateDecorator::CRotationDecorator *> >
PUBLIC	??$_Sort_unchecked@PAPAVCEffectInstance@@UCArea_LessEffectInstancePtrRenderOrder@@@std@@YAXPAPAVCEffectInstance@@0HUCArea_LessEffectInstancePtrRenderOrder@@@Z ; std::_Sort_unchecked<CEffectInstance * *,CArea_LessEffectInstancePtrRenderOrder>
PUBLIC	??$_Sort_unchecked@PAUSCRCWithNumber@CArea@@UCRCNumComp@2@@std@@YAXPAUSCRCWithNumber@CArea@@0HUCRCNumComp@2@@Z ; std::_Sort_unchecked<CArea::SCRCWithNumber *,CArea::CRCNumComp>
PUBLIC	??$_Sort_unchecked@PAUSObjectData@CArea@@UObjectDataComp@2@@std@@YAXPAUSObjectData@CArea@@0HUObjectDataComp@2@@Z ; std::_Sort_unchecked<CArea::SObjectData *,CArea::ObjectDataComp>
PUBLIC	??$transform_range@V?$iterator_range@V?$_String_iterator@V?$_String_val@U?$_Simple_types@D@std@@@std@@@std@@@boost@@U?$to_lowerF@D@detail@algorithm@2@@detail@algorithm@boost@@YAXABV?$iterator_range@V?$_String_iterator@V?$_String_val@U?$_Simple_types@D@std@@@std@@@std@@@2@U?$to_lowerF@D@012@@Z ; boost::algorithm::detail::transform_range<boost::iterator_range<std::_String_iterator<std::_String_val<std::_Simple_types<char> > > >,boost::algorithm::detail::to_lowerF<char> >
PUBLIC	??$_Find_lower_bound@PAUSObjectInstance@CArea@@@?$_Tree@V?$_Tset_traits@PAUSObjectInstance@CArea@@U?$less@PAUSObjectInstance@CArea@@@std@@V?$allocator@PAUSObjectInstance@CArea@@@4@$0A@@std@@@std@@IBE?AU?$_Tree_find_result@PAU?$_Tree_node@PAUSObjectInstance@CArea@@PAX@std@@@1@ABQAUSObjectInstance@CArea@@@Z ; std::_Tree<std::_Tset_traits<CArea::SObjectInstance *,std::less<CArea::SObjectInstance *>,std::allocator<CArea::SObjectInstance *>,0> >::_Find_lower_bound<CArea::SObjectInstance *>
PUBLIC	??$_Find_lower_bound@V?$basic_string@DU?$char_traits@D@std@@V?$allocator@D@2@@std@@@?$_Tree@V?$_Tmap_traits@V?$basic_string@DU?$char_traits@D@std@@V?$allocator@D@2@@std@@V?$vector@V?$basic_string@DU?$char_traits@D@std@@V?$allocator@D@2@@std@@V?$allocator@V?$basic_string@DU?$char_traits@D@std@@V?$allocator@D@2@@std@@@2@@2@U?$less@V?$basic_string@DU?$char_traits@D@std@@V?$allocator@D@2@@std@@@2@V?$allocator@U?$pair@$$CBV?$basic_string@DU?$char_traits@D@std@@V?$allocator@D@2@@std@@V?$vector@V?$basic_string@DU?$char_traits@D@std@@V?$allocator@D@2@@std@@V?$allocator@V?$basic_string@DU?$char_traits@D@std@@V?$allocator@D@2@@std@@@2@@2@@std@@@2@$0A@@std@@@std@@IBE?AU?$_Tree_find_result@PAU?$_Tree_node@U?$pair@$$CBV?$basic_string@DU?$char_traits@D@std@@V?$allocator@D@2@@std@@V?$vector@V?$basic_string@DU?$char_traits@D@std@@V?$allocator@D@2@@std@@V?$allocator@V?$basic_string@DU?$char_traits@D@std@@V?$allocator@D@2@@std@@@2@@2@@std@@PAX@std@@@1@ABV?$basic_string@DU?$char_traits@D@std@@V?$allocator@D@2@@1@@Z ; std::_Tree<std::_Tmap_traits<std::basic_string<char,std::char_traits<char>,std::allocator<char> >,std::vector<std::basic_string<char,std::char_traits<char>,std::allocator<char> >,std::allocator<std::basic_string<char,std::char_traits<char>,std::allocator<char> > > >,std::less<std::basic_string<char,std::char_traits<char>,std::allocator<char> > >,std::allocator<std::pair<std::basic_string<char,std::char_traits<char>,std::allocator<char> > const ,std::vector<std::basic_string<char,std::char_traits<char>,std::allocator<char> >,std::allocator<std::basic_string<char,std::char_traits<char>,std::allocator<char> > > > > >,0> >::_Find_lower_bound<std::basic_string<char,std::char_traits<char>,std::allocator<char> > >
PUBLIC	??1?$_Alloc_construct_ptr@V?$allocator@U?$_Tree_node@U?$pair@$$CBV?$basic_string@DU?$char_traits@D@std@@V?$allocator@D@2@@std@@V?$vector@V?$basic_string@DU?$char_traits@D@std@@V?$allocator@D@2@@std@@V?$allocator@V?$basic_string@DU?$char_traits@D@std@@V?$allocator@D@2@@std@@@2@@2@@std@@PAX@std@@@std@@@std@@QAE@XZ ; std::_Alloc_construct_ptr<std::allocator<std::_Tree_node<std::pair<std::basic_string<char,std::char_traits<char>,std::allocator<char> > const ,std::vector<std::basic_string<char,std::char_traits<char>,std::allocator<char> >,std::allocator<std::basic_string<char,std::char_traits<char>,std::allocator<char> > > > >,void *> > >::~_Alloc_construct_ptr<std::allocator<std::_Tree_node<std::pair<std::basic_string<char,std::char_traits<char>,std::allocator<char> > const ,std::vector<std::basic_string<char,std::char_traits<char>,std::allocator<char> >,std::allocator<std::basic_string<char,std::char_traits<char>,std::allocator<char> > > > >,void *> > >
PUBLIC	??$_Erase_tree@V?$allocator@U?$_Tree_node@U?$pair@$$CBV?$basic_string@DU?$char_traits@D@std@@V?$allocator@D@2@@std@@V?$vector@V?$basic_string@DU?$char_traits@D@std@@V?$allocator@D@2@@std@@V?$allocator@V?$basic_string@DU?$char_traits@D@std@@V?$allocator@D@2@@std@@@2@@2@@std@@PAX@std@@@std@@@?$_Tree_val@U?$_Tree_simple_types@U?$pair@$$CBV?$basic_string@DU?$char_traits@D@std@@V?$allocator@D@2@@std@@V?$vector@V?$basic_string@DU?$char_traits@D@std@@V?$allocator@D@2@@std@@V?$allocator@V?$basic_string@DU?$char_traits@D@std@@V?$allocator@D@2@@std@@@2@@2@@std@@@std@@@std@@QAEXAAV?$allocator@U?$_Tree_node@U?$pair@$$CBV?$basic_string@DU?$char_traits@D@std@@V?$allocator@D@2@@std@@V?$vector@V?$basic_string@DU?$char_traits@D@std@@V?$allocator@D@2@@std@@V?$allocator@V?$basic_string@DU?$char_traits@D@std@@V?$allocator@D@2@@std@@@2@@2@@std@@PAX@std@@@1@PAU?$_Tree_node@U?$pair@$$CBV?$basic_string@DU?$char_traits@D@std@@V?$allocator@D@2@@std@@V?$vector@V?$basic_string@DU?$char_traits@D@std@@V?$allocator@D@2@@std@@V?$allocator@V?$basic_string@DU?$char_traits@D@std@@V?$allocator@D@2@@std@@@2@@2@@std@@PAX@1@@Z ; std::_Tree_val<std::_Tree_simple_types<std::pair<std::basic_string<char,std::char_traits<char>,std::allocator<char> > const ,std::vector<std::basic_string<char,std::char_traits<char>,std::allocator<char> >,std::allocator<std::basic_string<char,std::char_traits<char>,std::allocator<char> > > > > > >::_Erase_tree<std::allocator<std::_Tree_node<std::pair<std::basic_string<char,std::char_traits<char>,std::allocator<char> > const ,std::vector<std::basic_string<char,std::char_traits<char>,std::allocator<char> >,std::allocator<std::basic_string<char,std::char_traits<char>,std::allocator<char> > > > >,void *> > >
PUBLIC	??$_Find_lower_bound@H@?$_Tree@V?$_Tset_traits@HU?$less@H@std@@V?$allocator@H@2@$0A@@std@@@std@@IBE?AU?$_Tree_find_result@PAU?$_Tree_node@HPAX@std@@@1@ABH@Z ; std::_Tree<std::_Tset_traits<int,std::less<int>,std::allocator<int>,0> >::_Find_lower_bound<int>
PUBLIC	??$_Find_lower_bound@PAVCGraphicThingInstance@@@?$_Tree@V?$_Tmap_traits@PAVCGraphicThingInstance@@KU?$less@PAVCGraphicThingInstance@@@std@@V?$allocator@U?$pair@QAVCGraphicThingInstance@@K@std@@@3@$0A@@std@@@std@@IBE?AU?$_Tree_find_result@PAU?$_Tree_node@U?$pair@QAVCGraphicThingInstance@@K@std@@PAX@std@@@1@ABQAVCGraphicThingInstance@@@Z ; std::_Tree<std::_Tmap_traits<CGraphicThingInstance *,unsigned long,std::less<CGraphicThingInstance *>,std::allocator<std::pair<CGraphicThingInstance * const,unsigned long> >,0> >::_Find_lower_bound<CGraphicThingInstance *>
PUBLIC	??$_Resize_reallocate@U_Value_init_tag@std@@@?$vector@PAUSObjectInstance@CArea@@V?$allocator@PAUSObjectInstance@CArea@@@std@@@std@@AAEXIABU_Value_init_tag@1@@Z ; std::vector<CArea::SObjectInstance *,std::allocator<CArea::SObjectInstance *> >::_Resize_reallocate<std::_Value_init_tag>
PUBLIC	??$_Find_lower_bound@K@?$_Tree@V?$_Tmap_traits@KPAVCEffectInstance@@U?$less@K@std@@V?$allocator@U?$pair@$$CBKPAVCEffectInstance@@@std@@@3@$0A@@std@@@std@@IBE?AU?$_Tree_find_result@PAU?$_Tree_node@U?$pair@$$CBKPAVCEffectInstance@@@std@@PAX@std@@@1@ABK@Z ; std::_Tree<std::_Tmap_traits<unsigned long,CEffectInstance *,std::less<unsigned long>,std::allocator<std::pair<unsigned long const ,CEffectInstance *> >,0> >::_Find_lower_bound<unsigned long>
PUBLIC	??$_Construct_in_place@PAU?$_Tree_node@PAUSObjectInstance@CArea@@PAX@std@@ABQAU12@@std@@YAXAAPAU?$_Tree_node@PAUSObjectInstance@CArea@@PAX@0@ABQAU10@@Z ; std::_Construct_in_place<std::_Tree_node<CArea::SObjectInstance *,void *> *,std::_Tree_node<CArea::SObjectInstance *,void *> * const &>
PUBLIC	??$_Construct_in_place@PAU?$_Tree_node@U?$pair@$$CBV?$basic_string@DU?$char_traits@D@std@@V?$allocator@D@2@@std@@V?$vector@V?$basic_string@DU?$char_traits@D@std@@V?$allocator@D@2@@std@@V?$allocator@V?$basic_string@DU?$char_traits@D@std@@V?$allocator@D@2@@std@@@2@@2@@std@@PAX@std@@ABQAU12@@std@@YAXAAPAU?$_Tree_node@U?$pair@$$CBV?$basic_string@DU?$char_traits@D@std@@V?$allocator@D@2@@std@@V?$vector@V?$basic_string@DU?$char_traits@D@std@@V?$allocator@D@2@@std@@V?$allocator@V?$basic_string@DU?$char_traits@D@std@@V?$allocator@D@2@@std@@@2@@2@@std@@PAX@0@ABQAU10@@Z ; std::_Construct_in_place<std::_Tree_node<std::pair<std::basic_string<char,std::char_traits<char>,std::allocator<char> > const ,std::vector<std::basic_string<char,std::char_traits<char>,std::allocator<char> >,std::allocator<std::basic_string<char,std::char_traits<char>,std::allocator<char> > > > >,void *> *,std::_Tree_node<std::pair<std::basic_string<char,std::char_traits<char>,std::allocator<char> > const ,std::vector<std::basic_string<char,std::char_traits<char>,std::allocator<char> >,std::allocator<std::basic_string<char,std::char_traits<char>,std::allocator<char> > > > >,void *> * const &>
PUBLIC	??$_Construct_in_place@PAU?$_Tree_node@HPAX@std@@ABQAU12@@std@@YAXAAPAU?$_Tree_node@HPAX@0@ABQAU10@@Z ; std::_Construct_in_place<std::_Tree_node<int,void *> *,std::_Tree_node<int,void *> * const &>
PUBLIC	??$_Construct_in_place@PAU?$_Tree_node@U?$pair@QAVCGraphicThingInstance@@K@std@@PAX@std@@ABQAU12@@std@@YAXAAPAU?$_Tree_node@U?$pair@QAVCGraphicThingInstance@@K@std@@PAX@0@ABQAU10@@Z ; std::_Construct_in_place<std::_Tree_node<std::pair<CGraphicThingInstance * const,unsigned long>,void *> *,std::_Tree_node<std::pair<CGraphicThingInstance * const,unsigned long>,void *> * const &>
PUBLIC	??$_Construct_in_place@PAU?$_Tree_node@U?$pair@$$CBKPAVCEffectInstance@@@std@@PAX@std@@ABQAU12@@std@@YAXAAPAU?$_Tree_node@U?$pair@$$CBKPAVCEffectInstance@@@std@@PAX@0@ABQAU10@@Z ; std::_Construct_in_place<std::_Tree_node<std::pair<unsigned long const ,CEffectInstance *>,void *> *,std::_Tree_node<std::pair<unsigned long const ,CEffectInstance *>,void *> * const &>
PUBLIC	??$_Destroy_in_place@PAU?$_Tree_node@U?$pair@$$CBV?$basic_string@DU?$char_traits@D@std@@V?$allocator@D@2@@std@@V?$vector@V?$basic_string@DU?$char_traits@D@std@@V?$allocator@D@2@@std@@V?$allocator@V?$basic_string@DU?$char_traits@D@std@@V?$allocator@D@2@@std@@@2@@2@@std@@PAX@std@@@std@@YAXAAPAU?$_Tree_node@U?$pair@$$CBV?$basic_string@DU?$char_traits@D@std@@V?$allocator@D@2@@std@@V?$vector@V?$basic_string@DU?$char_traits@D@std@@V?$allocator@D@2@@std@@V?$allocator@V?$basic_string@DU?$char_traits@D@std@@V?$allocator@D@2@@std@@@2@@2@@std@@PAX@0@@Z ; std::_Destroy_in_place<std::_Tree_node<std::pair<std::basic_string<char,std::char_traits<char>,std::allocator<char> > const ,std::vector<std::basic_string<char,std::char_traits<char>,std::allocator<char> >,std::allocator<std::basic_string<char,std::char_traits<char>,std::allocator<char> > > > >,void *> *>
PUBLIC	??$_Uninitialized_move@PAPAVCEffectInstance@@V?$allocator@PAVCEffectInstance@@@std@@@std@@YAPAPAVCEffectInstance@@QAPAV1@0PAPAV1@AAV?$allocator@PAVCEffectInstance@@@0@@Z ; std::_Uninitialized_move<CEffectInstance * *,std::allocator<CEffectInstance *> >
PUBLIC	??$_Uninitialized_move@PAPAVCArea@@V?$allocator@PAVCArea@@@std@@@std@@YAPAPAVCArea@@QAPAV1@0PAPAV1@AAV?$allocator@PAVCArea@@@0@@Z ; std::_Uninitialized_move<CArea * *,std::allocator<CArea *> >
PUBLIC	??$_Uninitialized_move@PAPAVCAttributeInstance@@V?$allocator@PAVCAttributeInstance@@@std@@@std@@YAPAPAVCAttributeInstance@@QAPAV1@0PAPAV1@AAV?$allocator@PAVCAttributeInstance@@@0@@Z ; std::_Uninitialized_move<CAttributeInstance * *,std::allocator<CAttributeInstance *> >
PUBLIC	??$_Uninitialized_move@PAUSCRCWithNumber@CArea@@V?$allocator@USCRCWithNumber@CArea@@@std@@@std@@YAPAUSCRCWithNumber@CArea@@QAU12@0PAU12@AAV?$allocator@USCRCWithNumber@CArea@@@0@@Z ; std::_Uninitialized_move<CArea::SCRCWithNumber *,std::allocator<CArea::SCRCWithNumber> >
PUBLIC	??$_Uninitialized_move@PAPAUSAmbienceInstance@CArea@@V?$allocator@PAUSAmbienceInstance@CArea@@@std@@@std@@YAPAPAUSAmbienceInstance@CArea@@QAPAU12@0PAPAU12@AAV?$allocator@PAUSAmbienceInstance@CArea@@@0@@Z ; std::_Uninitialized_move<CArea::SAmbienceInstance * *,std::allocator<CArea::SAmbienceInstance *> >
PUBLIC	??$_Uninitialized_move@PAPAVCDungeonBlock@@V?$allocator@PAVCDungeonBlock@@@std@@@std@@YAPAPAVCDungeonBlock@@QAPAV1@0PAPAV1@AAV?$allocator@PAVCDungeonBlock@@@0@@Z ; std::_Uninitialized_move<CDungeonBlock * *,std::allocator<CDungeonBlock *> >
PUBLIC	??$_Uninitialized_move@PAPAVCGraphicThingInstance@@V?$allocator@PAVCGraphicThingInstance@@@std@@@std@@YAPAPAVCGraphicThingInstance@@QAPAV1@0PAPAV1@AAV?$allocator@PAVCGraphicThingInstance@@@0@@Z ; std::_Uninitialized_move<CGraphicThingInstance * *,std::allocator<CGraphicThingInstance *> >
PUBLIC	??$_Uninitialized_move@PAPAUSObjectInstance@CArea@@V?$allocator@PAUSObjectInstance@CArea@@@std@@@std@@YAPAPAUSObjectInstance@CArea@@QAPAU12@0PAPAU12@AAV?$allocator@PAUSObjectInstance@CArea@@@0@@Z ; std::_Uninitialized_move<CArea::SObjectInstance * *,std::allocator<CArea::SObjectInstance *> >
PUBLIC	??$_Uninitialized_value_construct_n@V?$allocator@PAUSObjectInstance@CArea@@@std@@@std@@YAPAPAUSObjectInstance@CArea@@PAPAU12@IAAV?$allocator@PAUSObjectInstance@CArea@@@0@@Z ; std::_Uninitialized_value_construct_n<std::allocator<CArea::SObjectInstance *> >
PUBLIC	??$_Uninitialized_move@PAUSObjectData@CArea@@V?$allocator@USObjectData@CArea@@@std@@@std@@YAPAUSObjectData@CArea@@QAU12@0PAU12@AAV?$allocator@USObjectData@CArea@@@0@@Z ; std::_Uninitialized_move<CArea::SObjectData *,std::allocator<CArea::SObjectData> >
PUBLIC	??$_Uninitialized_move@PAPAVCSpeedTreeWrapper@@V?$allocator@PAVCSpeedTreeWrapper@@@std@@@std@@YAPAPAVCSpeedTreeWrapper@@QAPAV1@0PAPAV1@AAV?$allocator@PAVCSpeedTreeWrapper@@@0@@Z ; std::_Uninitialized_move<CSpeedTreeWrapper * *,std::allocator<CSpeedTreeWrapper *> >
PUBLIC	??$_Refancy@PBD$0A@@std@@YAPBDPBD@Z		; std::_Refancy<char const *,0>
PUBLIC	??$_Partition_by_median_guess_unchecked@PAPAVCEffectInstance@@UCArea_LessEffectInstancePtrRenderOrder@@@std@@YA?AU?$pair@PAPAVCEffectInstance@@PAPAV1@@0@PAPAVCEffectInstance@@0UCArea_LessEffectInstancePtrRenderOrder@@@Z ; std::_Partition_by_median_guess_unchecked<CEffectInstance * *,CArea_LessEffectInstancePtrRenderOrder>
PUBLIC	??$_Partition_by_median_guess_unchecked@PAUSCRCWithNumber@CArea@@UCRCNumComp@2@@std@@YA?AU?$pair@PAUSCRCWithNumber@CArea@@PAU12@@0@PAUSCRCWithNumber@CArea@@0UCRCNumComp@3@@Z ; std::_Partition_by_median_guess_unchecked<CArea::SCRCWithNumber *,CArea::CRCNumComp>
PUBLIC	??$_Make_heap_unchecked@PAUSObjectData@CArea@@UObjectDataComp@2@@std@@YAXPAUSObjectData@CArea@@0UObjectDataComp@2@@Z ; std::_Make_heap_unchecked<CArea::SObjectData *,CArea::ObjectDataComp>
PUBLIC	??$_Partition_by_median_guess_unchecked@PAUSObjectData@CArea@@UObjectDataComp@2@@std@@YA?AU?$pair@PAUSObjectData@CArea@@PAU12@@0@PAUSObjectData@CArea@@0UObjectDataComp@3@@Z ; std::_Partition_by_median_guess_unchecked<CArea::SObjectData *,CArea::ObjectDataComp>
PUBLIC	??1?$_Alloc_construct_ptr@V?$allocator@U?$_Tree_node@U?$pair@QAVCGraphicThingInstance@@K@std@@PAX@std@@@std@@@std@@QAE@XZ ; std::_Alloc_construct_ptr<std::allocator<std::_Tree_node<std::pair<CGraphicThingInstance * const,unsigned long>,void *> > >::~_Alloc_construct_ptr<std::allocator<std::_Tree_node<std::pair<CGraphicThingInstance * const,unsigned long>,void *> > >
PUBLIC	??1?$_Alloc_construct_ptr@V?$allocator@U?$_Tree_node@U?$pair@$$CBKPAVCEffectInstance@@@std@@PAX@std@@@std@@@std@@QAE@XZ ; std::_Alloc_construct_ptr<std::allocator<std::_Tree_node<std::pair<unsigned long const ,CEffectInstance *>,void *> > >::~_Alloc_construct_ptr<std::allocator<std::_Tree_node<std::pair<unsigned long const ,CEffectInstance *>,void *> > >
PUBLIC	??1?$_Alloc_construct_ptr@V?$allocator@U?$_Tree_node@HPAX@std@@@std@@@std@@QAE@XZ ; std::_Alloc_construct_ptr<std::allocator<std::_Tree_node<int,void *> > >::~_Alloc_construct_ptr<std::allocator<std::_Tree_node<int,void *> > >
PUBLIC	??1?$_Alloc_construct_ptr@V?$allocator@U?$_Tree_node@PAUSObjectInstance@CArea@@PAX@std@@@std@@@std@@QAE@XZ ; std::_Alloc_construct_ptr<std::allocator<std::_Tree_node<CArea::SObjectInstance *,void *> > >::~_Alloc_construct_ptr<std::allocator<std::_Tree_node<CArea::SObjectInstance *,void *> > >
PUBLIC	??$_Destroy_in_place@PAU?$_Tree_node@PAUSObjectInstance@CArea@@PAX@std@@@std@@YAXAAPAU?$_Tree_node@PAUSObjectInstance@CArea@@PAX@0@@Z ; std::_Destroy_in_place<std::_Tree_node<CArea::SObjectInstance *,void *> *>
PUBLIC	??$_Construct_in_place@PAU?$_Tree_node@U?$pair@$$CBV?$basic_string@DU?$char_traits@D@std@@V?$allocator@D@2@@std@@V?$vector@V?$basic_string@DU?$char_traits@D@std@@V?$allocator@D@2@@std@@V?$allocator@V?$basic_string@DU?$char_traits@D@std@@V?$allocator@D@2@@std@@@2@@2@@std@@PAX@std@@AAPAU12@@std@@YAXAAPAU?$_Tree_node@U?$pair@$$CBV?$basic_string@DU?$char_traits@D@std@@V?$allocator@D@2@@std@@V?$vector@V?$basic_string@DU?$char_traits@D@std@@V?$allocator@D@2@@std@@V?$allocator@V?$basic_string@DU?$char_traits@D@std@@V?$allocator@D@2@@std@@@2@@2@@std@@PAX@0@0@Z ; std::_Construct_in_place<std::_Tree_node<std::pair<std::basic_string<char,std::char_traits<char>,std::allocator<char> > const ,std::vector<std::basic_string<char,std::char_traits<char>,std::allocator<char> >,std::allocator<std::basic_string<char,std::char_traits<char>,std::allocator<char> > > > >,void *> *,std::_Tree_node<std::pair<std::basic_string<char,std::char_traits<char>,std::allocator<char> > const ,std::vector<std::basic_string<char,std::char_traits<char>,std::allocator<char> >,std::allocator<std::basic_string<char,std::char_traits<char>,std::allocator<char> > > > >,void *> * &>
PUBLIC	??$_Destroy_in_place@PAU?$_Tree_node@HPAX@std@@@std@@YAXAAPAU?$_Tree_node@HPAX@0@@Z ; std::_Destroy_in_place<std::_Tree_node<int,void *> *>
PUBLIC	??$_Destroy_in_place@PAU?$_Tree_node@U?$pair@QAVCGraphicThingInstance@@K@std@@PAX@std@@@std@@YAXAAPAU?$_Tree_node@U?$pair@QAVCGraphicThingInstance@@K@std@@PAX@0@@Z ; std::_Destroy_in_place<std::_Tree_node<std::pair<CGraphicThingInstance * const,unsigned long>,void *> *>
PUBLIC	??$_Destroy_in_place@PAU?$_Tree_node@U?$pair@$$CBKPAVCEffectInstance@@@std@@PAX@std@@@std@@YAXAAPAU?$_Tree_node@U?$pair@$$CBKPAVCEffectInstance@@@std@@PAX@0@@Z ; std::_Destroy_in_place<std::_Tree_node<std::pair<unsigned long const ,CEffectInstance *>,void *> *>
PUBLIC	??$_Copy_memmove@PAPAVCEffectInstance@@PAPAV1@@std@@YAPAPAVCEffectInstance@@PAPAV1@00@Z ; std::_Copy_memmove<CEffectInstance * *,CEffectInstance * *>
PUBLIC	??$_Copy_memmove@PAPAVCArea@@PAPAV1@@std@@YAPAPAVCArea@@PAPAV1@00@Z ; std::_Copy_memmove<CArea * *,CArea * *>
PUBLIC	??$_Copy_memmove@PAPAVCAttributeInstance@@PAPAV1@@std@@YAPAPAVCAttributeInstance@@PAPAV1@00@Z ; std::_Copy_memmove<CAttributeInstance * *,CAttributeInstance * *>
PUBLIC	??$_Copy_memmove@PAUSCRCWithNumber@CArea@@PAU12@@std@@YAPAUSCRCWithNumber@CArea@@PAU12@00@Z ; std::_Copy_memmove<CArea::SCRCWithNumber *,CArea::SCRCWithNumber *>
PUBLIC	??$_Copy_memmove@PAPAUSAmbienceInstance@CArea@@PAPAU12@@std@@YAPAPAUSAmbienceInstance@CArea@@PAPAU12@00@Z ; std::_Copy_memmove<CArea::SAmbienceInstance * *,CArea::SAmbienceInstance * *>
PUBLIC	??$_Copy_memmove@PAPAVCDungeonBlock@@PAPAV1@@std@@YAPAPAVCDungeonBlock@@PAPAV1@00@Z ; std::_Copy_memmove<CDungeonBlock * *,CDungeonBlock * *>
PUBLIC	??$_Copy_memmove@PAPAVCGraphicThingInstance@@PAPAV1@@std@@YAPAPAVCGraphicThingInstance@@PAPAV1@00@Z ; std::_Copy_memmove<CGraphicThingInstance * *,CGraphicThingInstance * *>
PUBLIC	??$_Copy_memmove@PAPAUSObjectInstance@CArea@@PAPAU12@@std@@YAPAPAUSObjectInstance@CArea@@PAPAU12@00@Z ; std::_Copy_memmove<CArea::SObjectInstance * *,CArea::SObjectInstance * *>
PUBLIC	??$_Zero_range@PAPAUSObjectInstance@CArea@@@std@@YAPAPAUSObjectInstance@CArea@@QAPAU12@0@Z ; std::_Zero_range<CArea::SObjectInstance * *>
PUBLIC	??$_Copy_memmove@PAPAVCSpeedTreeWrapper@@PAPAV1@@std@@YAPAPAVCSpeedTreeWrapper@@PAPAV1@00@Z ; std::_Copy_memmove<CSpeedTreeWrapper * *,CSpeedTreeWrapper * *>
PUBLIC	??$_Refancy@PAUSCRCWithNumber@CArea@@$0A@@std@@YAPAUSCRCWithNumber@CArea@@PAU12@@Z ; std::_Refancy<CArea::SCRCWithNumber *,0>
PUBLIC	??$?MDU?$char_traits@D@std@@V?$allocator@D@1@@std@@YA_NABV?$basic_string@DU?$char_traits@D@std@@V?$allocator@D@2@@0@0@Z ; std::operator<<char,std::char_traits<char>,std::allocator<char> >
PUBLIC	??$_Pop_heap_hole_by_index@PAPAVCEffectInstance@@PAV1@UCArea_LessEffectInstancePtrRenderOrder@@@std@@YAXPAPAVCEffectInstance@@HH$$QAPAV1@UCArea_LessEffectInstancePtrRenderOrder@@@Z ; std::_Pop_heap_hole_by_index<CEffectInstance * *,CEffectInstance *,CArea_LessEffectInstancePtrRenderOrder>
PUBLIC	??$_Guess_median_unchecked@PAPAVCEffectInstance@@UCArea_LessEffectInstancePtrRenderOrder@@@std@@YAXPAPAVCEffectInstance@@00UCArea_LessEffectInstancePtrRenderOrder@@@Z ; std::_Guess_median_unchecked<CEffectInstance * *,CArea_LessEffectInstancePtrRenderOrder>
PUBLIC	??$_Pop_heap_hole_by_index@PAUSCRCWithNumber@CArea@@U12@UCRCNumComp@2@@std@@YAXPAUSCRCWithNumber@CArea@@HH$$QAU12@UCRCNumComp@2@@Z ; std::_Pop_heap_hole_by_index<CArea::SCRCWithNumber *,CArea::SCRCWithNumber,CArea::CRCNumComp>
PUBLIC	??$_Pop_heap_hole_by_index@PAUSObjectData@CArea@@U12@UObjectDataComp@2@@std@@YAXPAUSObjectData@CArea@@HH$$QAU12@UObjectDataComp@2@@Z ; std::_Pop_heap_hole_by_index<CArea::SObjectData *,CArea::SObjectData,CArea::ObjectDataComp>
PUBLIC	??$_Construct_in_place@PAU?$_Tree_node@U?$pair@QAVCGraphicThingInstance@@K@std@@PAX@std@@AAPAU12@@std@@YAXAAPAU?$_Tree_node@U?$pair@QAVCGraphicThingInstance@@K@std@@PAX@0@0@Z ; std::_Construct_in_place<std::_Tree_node<std::pair<CGraphicThingInstance * const,unsigned long>,void *> *,std::_Tree_node<std::pair<CGraphicThingInstance * const,unsigned long>,void *> * &>
PUBLIC	??$_Construct_in_place@PAU?$_Tree_node@U?$pair@$$CBKPAVCEffectInstance@@@std@@PAX@std@@AAPAU12@@std@@YAXAAPAU?$_Tree_node@U?$pair@$$CBKPAVCEffectInstance@@@std@@PAX@0@0@Z ; std::_Construct_in_place<std::_Tree_node<std::pair<unsigned long const ,CEffectInstance *>,void *> *,std::_Tree_node<std::pair<unsigned long const ,CEffectInstance *>,void *> * &>
PUBLIC	??$_Construct_in_place@PAU?$_Tree_node@HPAX@std@@AAPAU12@@std@@YAXAAPAU?$_Tree_node@HPAX@0@0@Z ; std::_Construct_in_place<std::_Tree_node<int,void *> *,std::_Tree_node<int,void *> * &>
PUBLIC	??$_Construct_in_place@PAU?$_Tree_node@PAUSObjectInstance@CArea@@PAX@std@@AAPAU12@@std@@YAXAAPAU?$_Tree_node@PAUSObjectInstance@CArea@@PAX@0@0@Z ; std::_Construct_in_place<std::_Tree_node<CArea::SObjectInstance *,void *> *,std::_Tree_node<CArea::SObjectInstance *,void *> * &>
PUBLIC	??$?0$$QAV?$basic_string@DU?$char_traits@D@std@@V?$allocator@D@2@@std@@$$Z$$V@?$pair@$$CBV?$basic_string@DU?$char_traits@D@std@@V?$allocator@D@2@@std@@V?$vector@V?$basic_string@DU?$char_traits@D@std@@V?$allocator@D@2@@std@@V?$allocator@V?$basic_string@DU?$char_traits@D@std@@V?$allocator@D@2@@std@@@2@@2@@std@@QAE@Upiecewise_construct_t@1@V?$tuple@$$QAV?$basic_string@DU?$char_traits@D@std@@V?$allocator@D@2@@std@@@1@V?$tuple@$$V@1@@Z ; std::pair<std::basic_string<char,std::char_traits<char>,std::allocator<char> > const ,std::vector<std::basic_string<char,std::char_traits<char>,std::allocator<char> >,std::allocator<std::basic_string<char,std::char_traits<char>,std::allocator<char> > > > >::pair<std::basic_string<char,std::char_traits<char>,std::allocator<char> > const ,std::vector<std::basic_string<char,std::char_traits<char>,std::allocator<char> >,std::allocator<std::basic_string<char,std::char_traits<char>,std::allocator<char> > > > ><std::basic_string<char,std::char_traits<char>,std::allocator<char> > &&>
PUBLIC	??$tolower@D@std@@YADDABVlocale@0@@Z		; std::tolower<char>
PUBLIC	??$_Copy_backward_memmove@PAPAVCEffectInstance@@PAPAV1@@std@@YAPAPAVCEffectInstance@@PAPAV1@00@Z ; std::_Copy_backward_memmove<CEffectInstance * *,CEffectInstance * *>
PUBLIC	??$_Copy_backward_memmove@PAUSCRCWithNumber@CArea@@PAU12@@std@@YAPAUSCRCWithNumber@CArea@@PAU12@00@Z ; std::_Copy_backward_memmove<CArea::SCRCWithNumber *,CArea::SCRCWithNumber *>
PUBLIC	??$_Med3_unchecked@PAUSCRCWithNumber@CArea@@UCRCNumComp@2@@std@@YAXPAUSCRCWithNumber@CArea@@00UCRCNumComp@2@@Z ; std::_Med3_unchecked<CArea::SCRCWithNumber *,CArea::CRCNumComp>
PUBLIC	??$_Copy_backward_memmove@PAUSObjectData@CArea@@PAU12@@std@@YAPAUSObjectData@CArea@@PAU12@00@Z ; std::_Copy_backward_memmove<CArea::SObjectData *,CArea::SObjectData *>
PUBLIC	??$_Med3_unchecked@PAUSObjectData@CArea@@UObjectDataComp@2@@std@@YAXPAUSObjectData@CArea@@00UObjectDataComp@2@@Z ; std::_Med3_unchecked<CArea::SObjectData *,CArea::ObjectDataComp>
PUBLIC	??$?0V?$tuple@$$QAV?$basic_string@DU?$char_traits@D@std@@V?$allocator@D@2@@std@@@std@@V?$tuple@$$V@1@$0A@$$Z$S@?$pair@$$CBV?$basic_string@DU?$char_traits@D@std@@V?$allocator@D@2@@std@@V?$vector@V?$basic_string@DU?$char_traits@D@std@@V?$allocator@D@2@@std@@V?$allocator@V?$basic_string@DU?$char_traits@D@std@@V?$allocator@D@2@@std@@@2@@2@@std@@QAE@AAV?$tuple@$$QAV?$basic_string@DU?$char_traits@D@std@@V?$allocator@D@2@@std@@@1@AAV?$tuple@$$V@1@U?$integer_sequence@I$0A@@1@U?$integer_sequence@I$S@1@@Z ; std::pair<std::basic_string<char,std::char_traits<char>,std::allocator<char> > const ,std::vector<std::basic_string<char,std::char_traits<char>,std::allocator<char> >,std::allocator<std::basic_string<char,std::char_traits<char>,std::allocator<char> > > > >::pair<std::basic_string<char,std::char_traits<char>,std::allocator<char> > const ,std::vector<std::basic_string<char,std::char_traits<char>,std::allocator<char> >,std::allocator<std::basic_string<char,std::char_traits<char>,std::allocator<char> > > > ><std::tuple<std::basic_string<char,std::char_traits<char>,std::allocator<char> > &&>,std::tuple<>,0>
PUBLIC	??$_Refancy@PAD$0A@@std@@YAPADPAD@Z		; std::_Refancy<char *,0>
PUBLIC	?_OptionsStorage@?1??__local_stdio_printf_options@@9@4_KA ; `__local_stdio_printf_options'::`2'::_OptionsStorage
PUBLIC	??_7exception@std@@6B@				; std::exception::`vftable'
PUBLIC	??_C@_0BC@EOODALEL@Unknown?5exception@		; `string'
PUBLIC	??_7bad_alloc@std@@6B@				; std::bad_alloc::`vftable'
PUBLIC	??_7bad_array_new_length@std@@6B@		; std::bad_array_new_length::`vftable'
PUBLIC	??_C@_0BF@KINCDENJ@bad?5array?5new?5length@	; `string'
PUBLIC	__TI3?AVbad_array_new_length@std@@
PUBLIC	__CTA3?AVbad_array_new_length@std@@
PUBLIC	??_R0?AVbad_array_new_length@std@@@8		; std::bad_array_new_length `RTTI Type Descriptor'
PUBLIC	__CT??_R0?AVbad_array_new_length@std@@@8??0bad_array_new_length@std@@QAE@ABV01@@Z12
PUBLIC	??_R0?AVbad_alloc@std@@@8			; std::bad_alloc `RTTI Type Descriptor'
PUBLIC	__CT??_R0?AVbad_alloc@std@@@8??0bad_alloc@std@@QAE@ABV01@@Z12
PUBLIC	??_R0?AVexception@std@@@8			; std::exception `RTTI Type Descriptor'
PUBLIC	__CT??_R0?AVexception@std@@@8??0exception@std@@QAE@ABV01@@Z12
PUBLIC	??_C@_0BA@JFNIOLAK@string?5too?5long@		; `string'
PUBLIC	??_C@_0BB@GCADKGJO@map?1set?5too?5long@		; `string'
PUBLIC	?ms_singleton@?$CSingleton@VCTimer@@@@0PAVCTimer@@A ; CSingleton<CTimer>::ms_singleton
PUBLIC	??_7bad_cast@std@@6B@				; std::bad_cast::`vftable'
PUBLIC	??_C@_08EPJLHIJG@bad?5cast@			; `string'
PUBLIC	__TI2?AVbad_cast@std@@
PUBLIC	__CTA2?AVbad_cast@std@@
PUBLIC	??_R0?AVbad_cast@std@@@8			; std::bad_cast `RTTI Type Descriptor'
PUBLIC	__CT??_R0?AVbad_cast@std@@@8??0bad_cast@std@@QAE@ABV01@@Z12
PUBLIC	??_C@_00CNPNBAHC@@				; `string'
PUBLIC	??_7_Facet_base@std@@6B@			; std::_Facet_base::`vftable'
PUBLIC	??_C@_0BA@ELKIONDK@bad?5locale?5name@		; `string'
PUBLIC	??_7facet@locale@std@@6B@			; std::locale::facet::`vftable'
PUBLIC	??_7ctype_base@std@@6B@				; std::ctype_base::`vftable'
PUBLIC	??_7?$ctype@D@std@@6B@				; std::ctype<char>::`vftable'
PUBLIC	?ms_singleton@?$CSingleton@VCSoundManager@@@@0PAVCSoundManager@@A ; CSingleton<CSoundManager>::ms_singleton
PUBLIC	??_C@_0BI@CFPLBAOH@invalid?5string?5position@	; `string'
PUBLIC	?_Psave@?$_Facetptr@V?$ctype@D@std@@@std@@2PBVfacet@locale@2@B ; std::_Facetptr<std::ctype<char> >::_Psave
PUBLIC	??_R4exception@std@@6B@				; std::exception::`RTTI Complete Object Locator'
PUBLIC	??_R3exception@std@@8				; std::exception::`RTTI Class Hierarchy Descriptor'
PUBLIC	??_R2exception@std@@8				; std::exception::`RTTI Base Class Array'
PUBLIC	??_R1A@?0A@EA@exception@std@@8			; std::exception::`RTTI Base Class Descriptor at (0,-1,0,64)'
PUBLIC	??_R4bad_alloc@std@@6B@				; std::bad_alloc::`RTTI Complete Object Locator'
PUBLIC	??_R3bad_alloc@std@@8				; std::bad_alloc::`RTTI Class Hierarchy Descriptor'
PUBLIC	??_R2bad_alloc@std@@8				; std::bad_alloc::`RTTI Base Class Array'
PUBLIC	??_R1A@?0A@EA@bad_alloc@std@@8			; std::bad_alloc::`RTTI Base Class Descriptor at (0,-1,0,64)'
PUBLIC	??_R4bad_array_new_length@std@@6B@		; std::bad_array_new_length::`RTTI Complete Object Locator'
PUBLIC	??_R3bad_array_new_length@std@@8		; std::bad_array_new_length::`RTTI Class Hierarchy Descriptor'
PUBLIC	??_R2bad_array_new_length@std@@8		; std::bad_array_new_length::`RTTI Base Class Array'
PUBLIC	??_R1A@?0A@EA@bad_array_new_length@std@@8	; std::bad_array_new_length::`RTTI Base Class Descriptor at (0,-1,0,64)'
PUBLIC	??_R4bad_cast@std@@6B@				; std::bad_cast::`RTTI Complete Object Locator'
PUBLIC	??_R3bad_cast@std@@8				; std::bad_cast::`RTTI Class Hierarchy Descriptor'
PUBLIC	??_R2bad_cast@std@@8				; std::bad_cast::`RTTI Base Class Array'
PUBLIC	??_R1A@?0A@EA@bad_cast@std@@8			; std::bad_cast::`RTTI Base Class Descriptor at (0,-1,0,64)'
PUBLIC	??_R4_Facet_base@std@@6B@			; std::_Facet_base::`RTTI Complete Object Locator'
PUBLIC	??_R0?AV_Facet_base@std@@@8			; std::_Facet_base `RTTI Type Descriptor'
PUBLIC	??_R3_Facet_base@std@@8				; std::_Facet_base::`RTTI Class Hierarchy Descriptor'
PUBLIC	??_R2_Facet_base@std@@8				; std::_Facet_base::`RTTI Base Class Array'
PUBLIC	??_R1A@?0A@EA@_Facet_base@std@@8		; std::_Facet_base::`RTTI Base Class Descriptor at (0,-1,0,64)'
PUBLIC	??_R1A@?0A@EA@facet@locale@std@@8		; std::locale::facet::`RTTI Base Class Descriptor at (0,-1,0,64)'
PUBLIC	??_R0?AVfacet@locale@std@@@8			; std::locale::facet `RTTI Type Descriptor'
PUBLIC	??_R3facet@locale@std@@8			; std::locale::facet::`RTTI Class Hierarchy Descriptor'
PUBLIC	??_R2facet@locale@std@@8			; std::locale::facet::`RTTI Base Class Array'
PUBLIC	??_R13?0A@EA@_Crt_new_delete@std@@8		; std::_Crt_new_delete::`RTTI Base Class Descriptor at (4,-1,0,64)'
PUBLIC	??_R0?AU_Crt_new_delete@std@@@8			; std::_Crt_new_delete `RTTI Type Descriptor'
PUBLIC	??_R3_Crt_new_delete@std@@8			; std::_Crt_new_delete::`RTTI Class Hierarchy Descriptor'
PUBLIC	??_R2_Crt_new_delete@std@@8			; std::_Crt_new_delete::`RTTI Base Class Array'
PUBLIC	??_R1A@?0A@EA@_Crt_new_delete@std@@8		; std::_Crt_new_delete::`RTTI Base Class Descriptor at (0,-1,0,64)'
PUBLIC	??_R4facet@locale@std@@6B@			; std::locale::facet::`RTTI Complete Object Locator'
PUBLIC	??_R4ctype_base@std@@6B@			; std::ctype_base::`RTTI Complete Object Locator'
PUBLIC	??_R0?AUctype_base@std@@@8			; std::ctype_base `RTTI Type Descriptor'
PUBLIC	??_R3ctype_base@std@@8				; std::ctype_base::`RTTI Class Hierarchy Descriptor'
PUBLIC	??_R2ctype_base@std@@8				; std::ctype_base::`RTTI Base Class Array'
PUBLIC	??_R1A@?0A@EA@ctype_base@std@@8			; std::ctype_base::`RTTI Base Class Descriptor at (0,-1,0,64)'
PUBLIC	??_R4?$ctype@D@std@@6B@				; std::ctype<char>::`RTTI Complete Object Locator'
PUBLIC	??_R0?AV?$ctype@D@std@@@8			; std::ctype<char> `RTTI Type Descriptor'
PUBLIC	??_R3?$ctype@D@std@@8				; std::ctype<char>::`RTTI Class Hierarchy Descriptor'
PUBLIC	??_R2?$ctype@D@std@@8				; std::ctype<char>::`RTTI Base Class Array'
PUBLIC	??_R1A@?0A@EA@?$ctype@D@std@@8			; std::ctype<char>::`RTTI Base Class Descriptor at (0,-1,0,64)'
PUBLIC	?ms_singleton@?$CSingleton@VCResourceManager@@@@0PAVCResourceManager@@A ; CSingleton<CResourceManager>::ms_singleton
PUBLIC	?ms_singleton@?$CSingleton@VCStateManager@@@@0PAVCStateManager@@A ; CSingleton<CStateManager>::ms_singleton
PUBLIC	?ms_kPool@?$CPooledObject@VCHeaderDecorator@NEffectUpdateDecorator@@@@1V?$CDynamicPoolEx@VCHeaderDecorator@NEffectUpdateDecorator@@@@A ; CPooledObject<NEffectUpdateDecorator::CHeaderDecorator>::ms_kPool
PUBLIC	?ms_kPool@?$CPooledObject@VCNullDecorator@NEffectUpdateDecorator@@@@1V?$CDynamicPoolEx@VCNullDecorator@NEffectUpdateDecorator@@@@A ; CPooledObject<NEffectUpdateDecorator::CNullDecorator>::ms_kPool
PUBLIC	?ms_kPool@?$CPooledObject@VCTextureAnimationCWDecorator@NEffectUpdateDecorator@@@@1V?$CDynamicPoolEx@VCTextureAnimationCWDecorator@NEffectUpdateDecorator@@@@A ; CPooledObject<NEffectUpdateDecorator::CTextureAnimationCWDecorator>::ms_kPool
PUBLIC	?ms_kPool@?$CPooledObject@VCTextureAnimationCCWDecorator@NEffectUpdateDecorator@@@@1V?$CDynamicPoolEx@VCTextureAnimationCCWDecorator@NEffectUpdateDecorator@@@@A ; CPooledObject<NEffectUpdateDecorator::CTextureAnimationCCWDecorator>::ms_kPool
PUBLIC	?ms_kPool@?$CPooledObject@VCTextureAnimationRandomDecorator@NEffectUpdateDecorator@@@@1V?$CDynamicPoolEx@VCTextureAnimationRandomDecorator@NEffectUpdateDecorator@@@@A ; CPooledObject<NEffectUpdateDecorator::CTextureAnimationRandomDecorator>::ms_kPool
PUBLIC	?ms_kPool@?$CPooledObject@VCAirResistanceDecorator@NEffectUpdateDecorator@@@@1V?$CDynamicPoolEx@VCAirResistanceDecorator@NEffectUpdateDecorator@@@@A ; CPooledObject<NEffectUpdateDecorator::CAirResistanceDecorator>::ms_kPool
PUBLIC	?ms_kPool@?$CPooledObject@VCGravityDecorator@NEffectUpdateDecorator@@@@1V?$CDynamicPoolEx@VCGravityDecorator@NEffectUpdateDecorator@@@@A ; CPooledObject<NEffectUpdateDecorator::CGravityDecorator>::ms_kPool
PUBLIC	?ms_kPool@?$CPooledObject@VCRotationDecorator@NEffectUpdateDecorator@@@@1V?$CDynamicPoolEx@VCRotationDecorator@NEffectUpdateDecorator@@@@A ; CPooledObject<NEffectUpdateDecorator::CRotationDecorator>::ms_kPool
PUBLIC	?ms_singleton@?$CSingleton@VCEffectManager@@@@0PAVCEffectManager@@A ; CSingleton<CEffectManager>::ms_singleton
PUBLIC	?ms_singleton@?$CSingleton@VCSpeedTreeForestDirectX8@@@@0PAVCSpeedTreeForestDirectX8@@A ; CSingleton<CSpeedTreeForestDirectX8>::ms_singleton
PUBLIC	??_7SAmbienceInstance@CArea@@6B@		; CArea::SAmbienceInstance::`vftable'
PUBLIC	??_7SObjectInstance@CArea@@6B@			; CArea::SObjectInstance::`vftable'
PUBLIC	?ms_ObjectInstancePool@CArea@@1V?$CDynamicPool@USObjectInstance@CArea@@@@A ; CArea::ms_ObjectInstancePool
PUBLIC	?ms_AttributeInstancePool@CArea@@1V?$CDynamicPool@VCAttributeInstance@@@@A ; CArea::ms_AttributeInstancePool
PUBLIC	?ms_AmbienceInstancePool@CArea@@1V?$CDynamicPool@USAmbienceInstance@CArea@@@@A ; CArea::ms_AmbienceInstancePool
PUBLIC	?ms_DungeonBlockInstancePool@CArea@@1V?$CDynamicPool@VCDungeonBlock@@@@A ; CArea::ms_DungeonBlockInstancePool
PUBLIC	?ms_kPool@CArea@@2V?$CDynamicPool@VCArea@@@@A	; CArea::ms_kPool
PUBLIC	??_7CArea@@6B@					; CArea::`vftable'
PUBLIC	?ms_singleton@?$CSingleton@VCPropertyManager@@@@0PAVCPropertyManager@@A ; CSingleton<CPropertyManager>::ms_singleton
PUBLIC	??_C@_0N@FPEBPNJJ@PropertyType@			; `string'
PUBLIC	??_C@_0CL@BOJNBGJP@CArea?3?3SetEffect?5effect?5registe@ ; `string'
PUBLIC	??_C@_08JBFACIKL@TreeFile@			; `string'
PUBLIC	??_C@_0O@NDEAKJNP@_lod_?$CF?42d?4gr2@		; `string'
PUBLIC	??_C@_04GHGHGAKN@ONCE@				; `string'
PUBLIC	??_C@_04MOOLDHHD@STEP@				; `string'
PUBLIC	??_C@_04KGNEGCGI@LOOP@				; `string'
PUBLIC	??_C@_09OLKGEJPN@?1dungeon?1@			; `string'
PUBLIC	??_C@_09PCMKFNFD@?2dungeon?2@			; `string'
PUBLIC	??_C@_0BC@NJPKAPFJ@DummyCollisionOBB@		; `string'
PUBLIC	??_C@_0N@IIOKECFB@AreaData?4txt@		; `string'
PUBLIC	??_C@_0BF@EMGBEFOB@AreaAmbienceData?4txt@	; `string'
PUBLIC	??_C@_0CA@NNOAMPKE@?5CArea?3?3Load?5File?5Load?5?$CFs?5ERROR@ ; `string'
PUBLIC	??_C@_0N@DLGDDPHB@areadatafile@			; `string'
PUBLIC	??_C@_0CM@CJHDNGEF@?5CArea?3?3__LoadObject?5File?5Forma@ ; `string'
PUBLIC	??_C@_0M@IANPHBDM@objectcount@			; `string'
PUBLIC	??_C@_0CM@CFOIFIG@?5CArea?3?3__LoadObject?5File?5Forma@ ; `string'
PUBLIC	??_C@_0L@CHFLOJFF@object?$CF03d@		; `string'
PUBLIC	??_C@_0CL@HHDKLHOE@?5CArea?3?3LoadObject?5Property?$CI?$CFu?$CJ@ ; `string'
PUBLIC	??_C@_0BF@PFPNGEBG@areaambiencedatafile@	; `string'
PUBLIC	??_C@_0CO@ECPJGBAI@?5CArea?3?3__LoadAmbience?5File?5For@ ; `string'
PUBLIC	??_C@_0CO@GJNEDCML@?5CArea?3?3__LoadAmbience?5File?5For@ ; `string'
PUBLIC	??_C@_0CN@BAHENMHD@?5CArea?3?3LoadAmbience?5Property?$CI?$CF@ ; `string'
PUBLIC	??_C@_0BA@FOIKENOD@vector?5too?5long@		; `string'
PUBLIC	??_R4CArea@@6B@					; CArea::`RTTI Complete Object Locator'
PUBLIC	??_R0?AVCArea@@@8				; CArea `RTTI Type Descriptor'
PUBLIC	??_R3CArea@@8					; CArea::`RTTI Class Hierarchy Descriptor'
PUBLIC	??_R2CArea@@8					; CArea::`RTTI Base Class Array'
PUBLIC	??_R1A@?0A@EA@CArea@@8				; CArea::`RTTI Base Class Descriptor at (0,-1,0,64)'
PUBLIC	??_R4SAmbienceInstance@CArea@@6B@		; CArea::SAmbienceInstance::`RTTI Complete Object Locator'
PUBLIC	??_R0?AUSAmbienceInstance@CArea@@@8		; CArea::SAmbienceInstance `RTTI Type Descriptor'
PUBLIC	??_R3SAmbienceInstance@CArea@@8			; CArea::SAmbienceInstance::`RTTI Class Hierarchy Descriptor'
PUBLIC	??_R2SAmbienceInstance@CArea@@8			; CArea::SAmbienceInstance::`RTTI Base Class Array'
PUBLIC	??_R1A@?0A@EA@SAmbienceInstance@CArea@@8	; CArea::SAmbienceInstance::`RTTI Base Class Descriptor at (0,-1,0,64)'
PUBLIC	??_R1A@?0A@EA@CScreen@@8			; CScreen::`RTTI Base Class Descriptor at (0,-1,0,64)'
PUBLIC	??_R0?AVCScreen@@@8				; CScreen `RTTI Type Descriptor'
PUBLIC	??_R3CScreen@@8					; CScreen::`RTTI Class Hierarchy Descriptor'
PUBLIC	??_R2CScreen@@8					; CScreen::`RTTI Base Class Array'
PUBLIC	??_R1A@?0A@EA@CGraphicCollisionObject@@8	; CGraphicCollisionObject::`RTTI Base Class Descriptor at (0,-1,0,64)'
PUBLIC	??_R0?AVCGraphicCollisionObject@@@8		; CGraphicCollisionObject `RTTI Type Descriptor'
PUBLIC	??_R3CGraphicCollisionObject@@8			; CGraphicCollisionObject::`RTTI Class Hierarchy Descriptor'
PUBLIC	??_R2CGraphicCollisionObject@@8			; CGraphicCollisionObject::`RTTI Base Class Array'
PUBLIC	??_R1A@?0A@EA@CGraphicBase@@8			; CGraphicBase::`RTTI Base Class Descriptor at (0,-1,0,64)'
PUBLIC	??_R0?AVCGraphicBase@@@8			; CGraphicBase `RTTI Type Descriptor'
PUBLIC	??_R3CGraphicBase@@8				; CGraphicBase::`RTTI Class Hierarchy Descriptor'
PUBLIC	??_R2CGraphicBase@@8				; CGraphicBase::`RTTI Base Class Array'
PUBLIC	??_R4SObjectInstance@CArea@@6B@			; CArea::SObjectInstance::`RTTI Complete Object Locator'
PUBLIC	??_R0?AUSObjectInstance@CArea@@@8		; CArea::SObjectInstance `RTTI Type Descriptor'
PUBLIC	??_R3SObjectInstance@CArea@@8			; CArea::SObjectInstance::`RTTI Class Hierarchy Descriptor'
PUBLIC	??_R2SObjectInstance@CArea@@8			; CArea::SObjectInstance::`RTTI Base Class Array'
PUBLIC	??_R1A@?0A@EA@SObjectInstance@CArea@@8		; CArea::SObjectInstance::`RTTI Base Class Descriptor at (0,-1,0,64)'
PUBLIC	__real@3c8efa35
PUBLIC	__real@3e800000
PUBLIC	__real@3f000000
PUBLIC	__real@3f800000
PUBLIC	__real@40490fdb
PUBLIC	__real@41200000
PUBLIC	__xmm@41f00000000000000000000000000000
EXTRN	__purecall:PROC
EXTRN	??2@YAPAXI@Z:PROC				; operator new
EXTRN	??3@YAXPAX@Z:PROC				; operator delete
EXTRN	??3@YAXPAXI@Z:PROC				; operator delete
EXTRN	??_V@YAXPAX@Z:PROC				; operator delete[]
EXTRN	_atexit:PROC
EXTRN	__Init_thread_header:PROC
EXTRN	__Init_thread_footer:PROC
EXTRN	___std_terminate:PROC
EXTRN	__invalid_parameter_noinfo_noreturn:PROC
EXTRN	_free:PROC
EXTRN	_atof:PROC
EXTRN	__atoi64:PROC
EXTRN	??0_Lockit@std@@QAE@H@Z:PROC			; std::_Lockit::_Lockit
EXTRN	??1_Lockit@std@@QAE@XZ:PROC			; std::_Lockit::~_Lockit
EXTRN	___stdio_common_vsprintf:PROC
EXTRN	___std_exception_copy:PROC
EXTRN	___std_exception_destroy:PROC
EXTRN	??_Eexception@std@@UAEPAXI@Z:PROC		; std::exception::`vector deleting destructor'
EXTRN	??_Ebad_alloc@std@@UAEPAXI@Z:PROC		; std::bad_alloc::`vector deleting destructor'
EXTRN	??_Ebad_array_new_length@std@@UAEPAXI@Z:PROC	; std::bad_array_new_length::`vector deleting destructor'
EXTRN	?_Xlength_error@std@@YAXPBD@Z:PROC		; std::_Xlength_error
EXTRN	?_Xout_of_range@std@@YAXPBD@Z:PROC		; std::_Xout_of_range
EXTRN	?_Xruntime_error@std@@YAXPBD@Z:PROC		; std::_Xruntime_error
EXTRN	?GetCaseCRC32@@YAKPBDI@Z:PROC			; GetCaseCRC32
EXTRN	?frandom@@YAMMM@Z:PROC				; frandom
EXTRN	_D3DXMatrixRotationYawPitchRoll@16:PROC
EXTRN	_D3DXQuaternionRotationYawPitchRoll@16:PROC
EXTRN	?TraceError@@YAXPBDZZ:PROC			; TraceError
EXTRN	?GetCurrentSecond@CTimer@@QAEMXZ:PROC		; CTimer::GetCurrentSecond
EXTRN	??_Ebad_cast@std@@UAEPAXI@Z:PROC		; std::bad_cast::`vector deleting destructor'
EXTRN	??_E_Facet_base@std@@UAEPAXI@Z:PROC		; std::_Facet_base::`vector deleting destructor'
EXTRN	?_Facet_Register@std@@YAXPAV_Facet_base@1@@Z:PROC ; std::_Facet_Register
EXTRN	__Getctype:PROC
EXTRN	__Tolower:PROC
EXTRN	__Toupper:PROC
EXTRN	?_Locinfo_ctor@_Locinfo@std@@SAXPAV12@PBD@Z:PROC ; std::_Locinfo::_Locinfo_ctor
EXTRN	?_Locinfo_dtor@_Locinfo@std@@SAXPAV12@@Z:PROC	; std::_Locinfo::_Locinfo_dtor
EXTRN	??_Efacet@locale@std@@MAEPAXI@Z:PROC		; std::locale::facet::`vector deleting destructor'
EXTRN	?_Init@locale@std@@CAPAV_Locimp@12@_N@Z:PROC	; std::locale::_Init
EXTRN	?_Getgloballocale@locale@std@@CAPAV_Locimp@12@XZ:PROC ; std::locale::_Getgloballocale
EXTRN	??_Ectype_base@std@@UAEPAXI@Z:PROC		; std::ctype_base::`vector deleting destructor'
EXTRN	??_E?$ctype@D@std@@MAEPAXI@Z:PROC		; std::ctype<char>::`vector deleting destructor'
EXTRN	?LoadMultipleTextData@@YA_NPBDAAV?$map@V?$basic_string@DU?$char_traits@D@std@@V?$allocator@D@2@@std@@V?$vector@V?$basic_string@DU?$char_traits@D@std@@V?$allocator@D@2@@std@@V?$allocator@V?$basic_string@DU?$char_traits@D@std@@V?$allocator@D@2@@std@@@2@@2@U?$less@V?$basic_string@DU?$char_traits@D@std@@V?$allocator@D@2@@std@@@2@V?$allocator@U?$pair@$$CBV?$basic_string@DU?$char_traits@D@std@@V?$allocator@D@2@@std@@V?$vector@V?$basic_string@DU?$char_traits@D@std@@V?$allocator@D@2@@std@@V?$allocator@V?$basic_string@DU?$char_traits@D@std@@V?$allocator@D@2@@std@@@2@@2@@std@@@2@@std@@@Z:PROC ; LoadMultipleTextData
EXTRN	?IntersectSphere@CGraphicCollisionObject@@IAE_NABUD3DXVECTOR3@@M@Z:PROC ; CGraphicCollisionObject::IntersectSphere
EXTRN	??0CScreen@@QAE@XZ:PROC				; CScreen::CScreen
EXTRN	??1CScreen@@UAE@XZ:PROC				; CScreen::~CScreen
EXTRN	?Clear@CScreen@@QAEXXZ:PROC			; CScreen::Clear
EXTRN	?RenderLine2d@CScreen@@QAEXMMMMM@Z:PROC		; CScreen::RenderLine2d
EXTRN	?RenderCircle2d@CScreen@@QAEXMMMMH@Z:PROC	; CScreen::RenderCircle2d
EXTRN	?RenderCube@CScreen@@QAEXMMMMMM@Z:PROC		; CScreen::RenderCube
EXTRN	?RenderSphere@CScreen@@QAEXPBUD3DXMATRIX@@MMMMW4_D3DFILLMODE@@@Z:PROC ; CScreen::RenderSphere
EXTRN	?AddReference@CReferenceObject@@QAEXXZ:PROC	; CReferenceObject::AddReference
EXTRN	?Release@CReferenceObject@@QAEXXZ:PROC		; CReferenceObject::Release
EXTRN	?IsEmpty@CResource@@QBE_NXZ:PROC		; CResource::IsEmpty
EXTRN	?StopSound3D@CSoundManager@@QAEXH@Z:PROC	; CSoundManager::StopSound3D
EXTRN	?PlayAmbienceSound3D@CSoundManager@@QAEHMMMPBDH@Z:PROC ; CSoundManager::PlayAmbienceSound3D
EXTRN	?SetSoundVolume3D@CSoundManager@@QAEXHM@Z:PROC	; CSoundManager::SetSoundVolume3D
EXTRN	?GetPropertyType@prt@@YAKPBD@Z:PROC		; prt::GetPropertyType
EXTRN	?PropertyBuildingStringToData@prt@@YA_NPAVCProperty@@PAUTPropertyBuilding@1@@Z:PROC ; prt::PropertyBuildingStringToData
EXTRN	?PropertyEffectStringToData@prt@@YA_NPAVCProperty@@PAUTPropertyEffect@1@@Z:PROC ; prt::PropertyEffectStringToData
EXTRN	?PropertyAmbienceStringToData@prt@@YA_NPAVCProperty@@PAUTPropertyAmbience@1@@Z:PROC ; prt::PropertyAmbienceStringToData
EXTRN	?PropertyDungeonBlockStringToData@prt@@YA_NPAVCProperty@@PAUTPropertyDungeonBlock@1@@Z:PROC ; prt::PropertyDungeonBlockStringToData
EXTRN	?GetResourcePointer@CResourceManager@@QAEPAVCResource@@PBD@Z:PROC ; CResourceManager::GetResourcePointer
EXTRN	?IsFileExist@CResourceManager@@QAE_NPBD@Z:PROC	; CResourceManager::IsFileExist
EXTRN	?SaveRenderState@CStateManager@@QAEXW4_D3DRENDERSTATETYPE@@K@Z:PROC ; CStateManager::SaveRenderState
EXTRN	?RestoreRenderState@CStateManager@@QAEXW4_D3DRENDERSTATETYPE@@@Z:PROC ; CStateManager::RestoreRenderState
EXTRN	?SetRenderState@CStateManager@@QAEXW4_D3DRENDERSTATETYPE@@K@Z:PROC ; CStateManager::SetRenderState
EXTRN	?SetTexture@CStateManager@@QAEXKPAUIDirect3DBaseTexture8@@@Z:PROC ; CStateManager::SetTexture
EXTRN	?SetTextureStageState@CStateManager@@QAEXKW4_D3DTEXTURESTAGESTATETYPE@@K@Z:PROC ; CStateManager::SetTextureStageState
EXTRN	?GetTextureStageState@CStateManager@@QAEXKW4_D3DTEXTURESTAGESTATETYPE@@PAK@Z:PROC ; CStateManager::GetTextureStageState
EXTRN	?GetCollisionDataVector@CAttributeData@@QBEABV?$vector@VCStaticCollisionData@@V?$allocator@VCStaticCollisionData@@@std@@@std@@XZ:PROC ; CAttributeData::GetCollisionDataVector
EXTRN	?AddCollisionData@CAttributeData@@QAEIABVCStaticCollisionData@@@Z:PROC ; CAttributeData::AddCollisionData
EXTRN	??0CAttributeInstance@@QAE@XZ:PROC		; CAttributeInstance::CAttributeInstance
EXTRN	?Clear@CAttributeInstance@@QAEXXZ:PROC		; CAttributeInstance::Clear
EXTRN	?SetObjectPointer@CAttributeInstance@@QAEXPAVCAttributeData@@@Z:PROC ; CAttributeInstance::SetObjectPointer
EXTRN	?RefreshObject@CAttributeInstance@@QAEXABUD3DXMATRIX@@@Z:PROC ; CAttributeInstance::RefreshObject
EXTRN	?GetObjectPointer@CAttributeInstance@@QBEPAVCAttributeData@@XZ:PROC ; CAttributeInstance::GetObjectPointer
EXTRN	?GetYaw@CGraphicObjectInstance@@QAEMXZ:PROC	; CGraphicObjectInstance::GetYaw
EXTRN	?GetPitch@CGraphicObjectInstance@@QAEMXZ:PROC	; CGraphicObjectInstance::GetPitch
EXTRN	?GetRoll@CGraphicObjectInstance@@QAEMXZ:PROC	; CGraphicObjectInstance::GetRoll
EXTRN	?SetPosition@CGraphicObjectInstance@@QAEXMMM@Z:PROC ; CGraphicObjectInstance::SetPosition
EXTRN	?SetRotation@CGraphicObjectInstance@@QAEXMMM@Z:PROC ; CGraphicObjectInstance::SetRotation
EXTRN	?Clear@CGraphicObjectInstance@@QAEXXZ:PROC	; CGraphicObjectInstance::Clear
EXTRN	?Update@CGraphicObjectInstance@@QAEXXZ:PROC	; CGraphicObjectInstance::Update
EXTRN	?Render@CGraphicObjectInstance@@QAE_NXZ:PROC	; CGraphicObjectInstance::Render
EXTRN	?Deform@CGraphicObjectInstance@@QAEXXZ:PROC	; CGraphicObjectInstance::Deform
EXTRN	?Transform@CGraphicObjectInstance@@QAEXXZ:PROC	; CGraphicObjectInstance::Transform
EXTRN	?Show@CGraphicObjectInstance@@QAEXXZ:PROC	; CGraphicObjectInstance::Show
EXTRN	?isShow@CGraphicObjectInstance@@QAE_NXZ:PROC	; CGraphicObjectInstance::isShow
EXTRN	?GetTransform@CGraphicObjectInstance@@QAEAAUD3DXMATRIX@@XZ:PROC ; CGraphicObjectInstance::GetTransform
EXTRN	?SetPortal@CGraphicObjectInstance@@QAEXKH@Z:PROC ; CGraphicObjectInstance::SetPortal
EXTRN	?Initialize@CGraphicObjectInstance@@QAEXXZ:PROC	; CGraphicObjectInstance::Initialize
EXTRN	?UpdateBoundingSphere@CGraphicObjectInstance@@QAEXXZ:PROC ; CGraphicObjectInstance::UpdateBoundingSphere
EXTRN	?RegisterBoundingSphere@CGraphicObjectInstance@@QAEXXZ:PROC ; CGraphicObjectInstance::RegisterBoundingSphere
EXTRN	?UpdateCollisionData@CGraphicObjectInstance@@QAEXPBV?$vector@VCStaticCollisionData@@V?$allocator@VCStaticCollisionData@@@std@@@std@@@Z:PROC ; CGraphicObjectInstance::UpdateCollisionData
EXTRN	?GetCollisionInstanceCount@CGraphicObjectInstance@@QAEKXZ:PROC ; CGraphicObjectInstance::GetCollisionInstanceCount
EXTRN	?GetCollisionInstanceData@CGraphicObjectInstance@@QAEPAVCBaseCollisionInstance@@K@Z:PROC ; CGraphicObjectInstance::GetCollisionInstanceData
EXTRN	?UpdateHeightInstance@CGraphicObjectInstance@@QAEXPAVCAttributeInstance@@@Z:PROC ; CGraphicObjectInstance::UpdateHeightInstance
EXTRN	?LessRenderOrder@CEffectInstance@@QAE_NPAV1@@Z:PROC ; CEffectInstance::LessRenderOrder
EXTRN	?isAlive@CEffectInstance@@QAEHXZ:PROC		; CEffectInstance::isAlive
EXTRN	?SetGlobalMatrix@CEffectInstance@@QAEXABUD3DXMATRIX@@@Z:PROC ; CEffectInstance::SetGlobalMatrix
EXTRN	?RegisterEffect@CEffectManager@@QAEHPBD_N1@Z:PROC ; CEffectManager::RegisterEffect
EXTRN	?GetEffectData@CEffectManager@@QAE_NKPAPAVCEffectData@@@Z:PROC ; CEffectManager::GetEffectData
EXTRN	?CreateUnsafeEffectInstance@CEffectManager@@QAEXKPAPAVCEffectInstance@@@Z:PROC ; CEffectManager::CreateUnsafeEffectInstance
EXTRN	?DestroyUnsafeEffectInstance@CEffectManager@@QAE_NPAVCEffectInstance@@@Z:PROC ; CEffectManager::DestroyUnsafeEffectInstance
EXTRN	?GetPosition@CSpeedTreeWrapper@@QAEPBMXZ:PROC	; CSpeedTreeWrapper::GetPosition
EXTRN	?CreateInstance@CSpeedTreeForest@@QAEPAVCSpeedTreeWrapper@@MMMKPBD@Z:PROC ; CSpeedTreeForest::CreateInstance
EXTRN	?DeleteInstance@CSpeedTreeForest@@QAEXPAVCSpeedTreeWrapper@@@Z:PROC ; CSpeedTreeForest::DeleteInstance
EXTRN	?GetModelCount@CGraphicThing@@QBEHXZ:PROC	; CGraphicThing::GetModelCount
EXTRN	?GetMotionCount@CGraphicThing@@QBEHXZ:PROC	; CGraphicThing::GetMotionCount
EXTRN	?UpdateLODLevel@CGraphicThingInstance@@QAEXXZ:PROC ; CGraphicThingInstance::UpdateLODLevel
EXTRN	?DeformAll@CGraphicThingInstance@@QAEXXZ:PROC	; CGraphicThingInstance::DeformAll
EXTRN	?ReserveModelInstance@CGraphicThingInstance@@QAEXH@Z:PROC ; CGraphicThingInstance::ReserveModelInstance
EXTRN	?ReserveModelThing@CGraphicThingInstance@@QAEXH@Z:PROC ; CGraphicThingInstance::ReserveModelThing
EXTRN	?IsMotionThing@CGraphicThingInstance@@QAE_NXZ:PROC ; CGraphicThingInstance::IsMotionThing
EXTRN	?RegisterModelThing@CGraphicThingInstance@@QAEXHPAVCGraphicThing@@@Z:PROC ; CGraphicThingInstance::RegisterModelThing
EXTRN	?RegisterLODThing@CGraphicThingInstance@@QAEXHPAVCGraphicThing@@@Z:PROC ; CGraphicThingInstance::RegisterLODThing
EXTRN	?RegisterMotionThing@CGraphicThingInstance@@QAEXKPAVCGraphicThing@@@Z:PROC ; CGraphicThingInstance::RegisterMotionThing
EXTRN	?SetModelInstance@CGraphicThingInstance@@QAE_NHHHH@Z:PROC ; CGraphicThingInstance::SetModelInstance
EXTRN	?SetMotion@CGraphicThingInstance@@QAE_NKMHM@Z:PROC ; CGraphicThingInstance::SetMotion
EXTRN	?BuildBoundingSphere@CGraphicThingInstance@@QAEXXZ:PROC ; CGraphicThingInstance::BuildBoundingSphere
EXTRN	?New@CGraphicThingInstance@@SAPAV1@XZ:PROC	; CGraphicThingInstance::New
EXTRN	?Delete@CGraphicThingInstance@@SAXPAV1@@Z:PROC	; CGraphicThingInstance::Delete
EXTRN	?HaveBlendThing@CGraphicThingInstance@@QAE_NXZ:PROC ; CGraphicThingInstance::HaveBlendThing
EXTRN	??0CDungeonBlock@@QAE@XZ:PROC			; CDungeonBlock::CDungeonBlock
EXTRN	?BuildBoundingSphere@CDungeonBlock@@QAEXXZ:PROC	; CDungeonBlock::BuildBoundingSphere
EXTRN	?Load@CDungeonBlock@@QAE_NPBD@Z:PROC		; CDungeonBlock::Load
EXTRN	?Update@CDungeonBlock@@QAEXXZ:PROC		; CDungeonBlock::Update
EXTRN	?Render@CDungeonBlock@@QAEXXZ:PROC		; CDungeonBlock::Render
EXTRN	??_ESAmbienceInstance@CArea@@UAEPAXI@Z:PROC	; CArea::SAmbienceInstance::`vector deleting destructor'
EXTRN	??_ESObjectInstance@CArea@@UAEPAXI@Z:PROC	; CArea::SObjectInstance::`vector deleting destructor'
EXTRN	??_ECArea@@UAEPAXI@Z:PROC			; CArea::`vector deleting destructor'
EXTRN	?Get@CPropertyManager@@QAE_NKPAPAVCProperty@@@Z:PROC ; CPropertyManager::Get
EXTRN	?GetString@CProperty@@QAE_NPBDPAPBD@Z:PROC	; CProperty::GetString
EXTRN	@__security_check_cookie@4:PROC
EXTRN	__CxxThrowException@8:PROC
EXTRN	___CxxFrameHandler3:PROC
EXTRN	__ftoui3:PROC
EXTRN	__libm_sse2_cos_precise:PROC
EXTRN	__libm_sse2_sin_precise:PROC
EXTRN	__libm_sse2_sqrt_precise:PROC
EXTRN	__ltod3:PROC
EXTRN	_memchr:PROC
EXTRN	_memcpy:PROC
EXTRN	_memmove:PROC
EXTRN	_memset:PROC
EXTRN	__Init_thread_epoch:DWORD
EXTRN	?_Id_cnt@id@locale@std@@0HA:DWORD		; std::locale::id::_Id_cnt
EXTRN	?id@?$ctype@D@std@@2V0locale@2@A:DWORD		; std::ctype<char>::id
EXTRN	___security_cookie:DWORD
EXTRN	__fltused:DWORD
EXTRN	__tls_array:DWORD
EXTRN	__tls_index:DWORD
;	COMDAT ?_OptionsStorage@?1??__local_stdio_printf_options@@9@4_KA
_BSS	SEGMENT
?_OptionsStorage@?1??__local_stdio_printf_options@@9@4_KA DQ 01H DUP (?) ; `__local_stdio_printf_options'::`2'::_OptionsStorage
_BSS	ENDS
;	COMDAT ?ms_singleton@?$CSingleton@VCTimer@@@@0PAVCTimer@@A
_BSS	SEGMENT
?ms_singleton@?$CSingleton@VCTimer@@@@0PAVCTimer@@A DD 01H DUP (?) ; CSingleton<CTimer>::ms_singleton
_BSS	ENDS
;	COMDAT ?ms_singleton@?$CSingleton@VCSoundManager@@@@0PAVCSoundManager@@A
_BSS	SEGMENT
?ms_singleton@?$CSingleton@VCSoundManager@@@@0PAVCSoundManager@@A DD 01H DUP (?) ; CSingleton<CSoundManager>::ms_singleton
_BSS	ENDS
;	COMDAT ?_Psave@?$_Facetptr@V?$ctype@D@std@@@std@@2PBVfacet@locale@2@B
_BSS	SEGMENT
?_Psave@?$_Facetptr@V?$ctype@D@std@@@std@@2PBVfacet@locale@2@B DD 01H DUP (?) ; std::_Facetptr<std::ctype<char> >::_Psave
_BSS	ENDS
;	COMDAT ?ms_singleton@?$CSingleton@VCResourceManager@@@@0PAVCResourceManager@@A
_BSS	SEGMENT
?ms_singleton@?$CSingleton@VCResourceManager@@@@0PAVCResourceManager@@A DD 01H DUP (?) ; CSingleton<CResourceManager>::ms_singleton
_BSS	ENDS
;	COMDAT ?ms_singleton@?$CSingleton@VCStateManager@@@@0PAVCStateManager@@A
_BSS	SEGMENT
?ms_singleton@?$CSingleton@VCStateManager@@@@0PAVCStateManager@@A DD 01H DUP (?) ; CSingleton<CStateManager>::ms_singleton
_BSS	ENDS
;	COMDAT ?ms_singleton@?$CSingleton@VCEffectManager@@@@0PAVCEffectManager@@A
_BSS	SEGMENT
?ms_singleton@?$CSingleton@VCEffectManager@@@@0PAVCEffectManager@@A DD 01H DUP (?) ; CSingleton<CEffectManager>::ms_singleton
_BSS	ENDS
;	COMDAT ?ms_singleton@?$CSingleton@VCSpeedTreeForestDirectX8@@@@0PAVCSpeedTreeForestDirectX8@@A
_BSS	SEGMENT
?ms_singleton@?$CSingleton@VCSpeedTreeForestDirectX8@@@@0PAVCSpeedTreeForestDirectX8@@A DD 01H DUP (?) ; CSingleton<CSpeedTreeForestDirectX8>::ms_singleton
_BSS	ENDS
;	COMDAT ?ms_singleton@?$CSingleton@VCPropertyManager@@@@0PAVCPropertyManager@@A
_BSS	SEGMENT
?ms_singleton@?$CSingleton@VCPropertyManager@@@@0PAVCPropertyManager@@A DD 01H DUP (?) ; CSingleton<CPropertyManager>::ms_singleton
_BSS	ENDS
;	COMDAT ?s_kVct_pkEftInstSort@?8??RenderEffect@CArea@@QAEXXZ@4V?$vector@PAVCEffectInstance@@V?$allocator@PAVCEffectInstance@@@std@@@std@@A
_BSS	SEGMENT
?s_kVct_pkEftInstSort@?8??RenderEffect@CArea@@QAEXXZ@4V?$vector@PAVCEffectInstance@@V?$allocator@PAVCEffectInstance@@@std@@@std@@A DB 0cH DUP (?) ; `CArea::RenderEffect'::`9'::s_kVct_pkEftInstSort
_BSS	ENDS
;	COMDAT ?$TSS0@?8??RenderEffect@CArea@@QAEXXZ@4HA
_BSS	SEGMENT
?$TSS0@?8??RenderEffect@CArea@@QAEXXZ@4HA DD 01H DUP (?) ; `CArea::RenderEffect'::`9'::$TSS0
_BSS	ENDS
CRT$XCU	SEGMENT
??ms_ObjectInstancePool$initializer$@CArea@@1P6AXXZA@@3P6AXXZA DD FLAT:??__E?ms_ObjectInstancePool@CArea@@1V?$CDynamicPool@USObjectInstance@CArea@@@@A@@YAXXZ ; ??ms_ObjectInstancePool$initializer$@CArea@@1P6AXXZA@@3P6AXXZA
CRT$XCU	ENDS
;	COMDAT __xmm@41f00000000000000000000000000000
CONST	SEGMENT
__xmm@41f00000000000000000000000000000 DB 00H, 00H, 00H, 00H, 00H, 00H, 00H
	DB	00H, 00H, 00H, 00H, 00H, 00H, 00H, 0f0H, 'A'
CONST	ENDS
;	COMDAT __real@41200000
CONST	SEGMENT
__real@41200000 DD 041200000r			; 10
CONST	ENDS
;	COMDAT __real@40490fdb
CONST	SEGMENT
__real@40490fdb DD 040490fdbr			; 3.14159
CONST	ENDS
;	COMDAT __real@3f800000
CONST	SEGMENT
__real@3f800000 DD 03f800000r			; 1
CONST	ENDS
;	COMDAT __real@3f000000
CONST	SEGMENT
__real@3f000000 DD 03f000000r			; 0.5
CONST	ENDS
;	COMDAT __real@3e800000
CONST	SEGMENT
__real@3e800000 DD 03e800000r			; 0.25
CONST	ENDS
;	COMDAT __real@3c8efa35
CONST	SEGMENT
__real@3c8efa35 DD 03c8efa35r			; 0.0174533
CONST	ENDS
;	COMDAT ??_R1A@?0A@EA@SObjectInstance@CArea@@8
rdata$r	SEGMENT
??_R1A@?0A@EA@SObjectInstance@CArea@@8 DD FLAT:??_R0?AUSObjectInstance@CArea@@@8 ; CArea::SObjectInstance::`RTTI Base Class Descriptor at (0,-1,0,64)'
	DD	00H
	DD	00H
	DD	0ffffffffH
	DD	00H
	DD	040H
	DD	FLAT:??_R3SObjectInstance@CArea@@8
rdata$r	ENDS
;	COMDAT ??_R2SObjectInstance@CArea@@8
rdata$r	SEGMENT
??_R2SObjectInstance@CArea@@8 DD FLAT:??_R1A@?0A@EA@SObjectInstance@CArea@@8 ; CArea::SObjectInstance::`RTTI Base Class Array'
rdata$r	ENDS
;	COMDAT ??_R3SObjectInstance@CArea@@8
rdata$r	SEGMENT
??_R3SObjectInstance@CArea@@8 DD 00H			; CArea::SObjectInstance::`RTTI Class Hierarchy Descriptor'
	DD	00H
	DD	01H
	DD	FLAT:??_R2SObjectInstance@CArea@@8
rdata$r	ENDS
;	COMDAT ??_R0?AUSObjectInstance@CArea@@@8
data$r	SEGMENT
??_R0?AUSObjectInstance@CArea@@@8 DD FLAT:??_7type_info@@6B@ ; CArea::SObjectInstance `RTTI Type Descriptor'
	DD	00H
	DB	'.?AUSObjectInstance@CArea@@', 00H
data$r	ENDS
;	COMDAT ??_R4SObjectInstance@CArea@@6B@
rdata$r	SEGMENT
??_R4SObjectInstance@CArea@@6B@ DD 00H			; CArea::SObjectInstance::`RTTI Complete Object Locator'
	DD	00H
	DD	00H
	DD	FLAT:??_R0?AUSObjectInstance@CArea@@@8
	DD	FLAT:??_R3SObjectInstance@CArea@@8
rdata$r	ENDS
;	COMDAT ??_R2CGraphicBase@@8
rdata$r	SEGMENT
??_R2CGraphicBase@@8 DD FLAT:??_R1A@?0A@EA@CGraphicBase@@8 ; CGraphicBase::`RTTI Base Class Array'
rdata$r	ENDS
;	COMDAT ??_R3CGraphicBase@@8
rdata$r	SEGMENT
??_R3CGraphicBase@@8 DD 00H				; CGraphicBase::`RTTI Class Hierarchy Descriptor'
	DD	00H
	DD	01H
	DD	FLAT:??_R2CGraphicBase@@8
rdata$r	ENDS
;	COMDAT ??_R0?AVCGraphicBase@@@8
data$r	SEGMENT
??_R0?AVCGraphicBase@@@8 DD FLAT:??_7type_info@@6B@	; CGraphicBase `RTTI Type Descriptor'
	DD	00H
	DB	'.?AVCGraphicBase@@', 00H
data$r	ENDS
;	COMDAT ??_R1A@?0A@EA@CGraphicBase@@8
rdata$r	SEGMENT
??_R1A@?0A@EA@CGraphicBase@@8 DD FLAT:??_R0?AVCGraphicBase@@@8 ; CGraphicBase::`RTTI Base Class Descriptor at (0,-1,0,64)'
	DD	00H
	DD	00H
	DD	0ffffffffH
	DD	00H
	DD	040H
	DD	FLAT:??_R3CGraphicBase@@8
rdata$r	ENDS
;	COMDAT ??_R2CGraphicCollisionObject@@8
rdata$r	SEGMENT
??_R2CGraphicCollisionObject@@8 DD FLAT:??_R1A@?0A@EA@CGraphicCollisionObject@@8 ; CGraphicCollisionObject::`RTTI Base Class Array'
	DD	FLAT:??_R1A@?0A@EA@CGraphicBase@@8
rdata$r	ENDS
;	COMDAT ??_R3CGraphicCollisionObject@@8
rdata$r	SEGMENT
??_R3CGraphicCollisionObject@@8 DD 00H			; CGraphicCollisionObject::`RTTI Class Hierarchy Descriptor'
	DD	00H
	DD	02H
	DD	FLAT:??_R2CGraphicCollisionObject@@8
rdata$r	ENDS
;	COMDAT ??_R0?AVCGraphicCollisionObject@@@8
data$r	SEGMENT
??_R0?AVCGraphicCollisionObject@@@8 DD FLAT:??_7type_info@@6B@ ; CGraphicCollisionObject `RTTI Type Descriptor'
	DD	00H
	DB	'.?AVCGraphicCollisionObject@@', 00H
data$r	ENDS
;	COMDAT ??_R1A@?0A@EA@CGraphicCollisionObject@@8
rdata$r	SEGMENT
??_R1A@?0A@EA@CGraphicCollisionObject@@8 DD FLAT:??_R0?AVCGraphicCollisionObject@@@8 ; CGraphicCollisionObject::`RTTI Base Class Descriptor at (0,-1,0,64)'
	DD	01H
	DD	00H
	DD	0ffffffffH
	DD	00H
	DD	040H
	DD	FLAT:??_R3CGraphicCollisionObject@@8
rdata$r	ENDS
;	COMDAT ??_R2CScreen@@8
rdata$r	SEGMENT
??_R2CScreen@@8 DD FLAT:??_R1A@?0A@EA@CScreen@@8	; CScreen::`RTTI Base Class Array'
	DD	FLAT:??_R1A@?0A@EA@CGraphicCollisionObject@@8
	DD	FLAT:??_R1A@?0A@EA@CGraphicBase@@8
rdata$r	ENDS
;	COMDAT ??_R3CScreen@@8
rdata$r	SEGMENT
??_R3CScreen@@8 DD 00H					; CScreen::`RTTI Class Hierarchy Descriptor'
	DD	00H
	DD	03H
	DD	FLAT:??_R2CScreen@@8
rdata$r	ENDS
;	COMDAT ??_R0?AVCScreen@@@8
data$r	SEGMENT
??_R0?AVCScreen@@@8 DD FLAT:??_7type_info@@6B@		; CScreen `RTTI Type Descriptor'
	DD	00H
	DB	'.?AVCScreen@@', 00H
data$r	ENDS
;	COMDAT ??_R1A@?0A@EA@CScreen@@8
rdata$r	SEGMENT
??_R1A@?0A@EA@CScreen@@8 DD FLAT:??_R0?AVCScreen@@@8	; CScreen::`RTTI Base Class Descriptor at (0,-1,0,64)'
	DD	02H
	DD	00H
	DD	0ffffffffH
	DD	00H
	DD	040H
	DD	FLAT:??_R3CScreen@@8
rdata$r	ENDS
;	COMDAT ??_R1A@?0A@EA@SAmbienceInstance@CArea@@8
rdata$r	SEGMENT
??_R1A@?0A@EA@SAmbienceInstance@CArea@@8 DD FLAT:??_R0?AUSAmbienceInstance@CArea@@@8 ; CArea::SAmbienceInstance::`RTTI Base Class Descriptor at (0,-1,0,64)'
	DD	03H
	DD	00H
	DD	0ffffffffH
	DD	00H
	DD	040H
	DD	FLAT:??_R3SAmbienceInstance@CArea@@8
rdata$r	ENDS
;	COMDAT ??_R2SAmbienceInstance@CArea@@8
rdata$r	SEGMENT
??_R2SAmbienceInstance@CArea@@8 DD FLAT:??_R1A@?0A@EA@SAmbienceInstance@CArea@@8 ; CArea::SAmbienceInstance::`RTTI Base Class Array'
	DD	FLAT:??_R1A@?0A@EA@CScreen@@8
	DD	FLAT:??_R1A@?0A@EA@CGraphicCollisionObject@@8
	DD	FLAT:??_R1A@?0A@EA@CGraphicBase@@8
rdata$r	ENDS
;	COMDAT ??_R3SAmbienceInstance@CArea@@8
rdata$r	SEGMENT
??_R3SAmbienceInstance@CArea@@8 DD 00H			; CArea::SAmbienceInstance::`RTTI Class Hierarchy Descriptor'
	DD	00H
	DD	04H
	DD	FLAT:??_R2SAmbienceInstance@CArea@@8
rdata$r	ENDS
;	COMDAT ??_R0?AUSAmbienceInstance@CArea@@@8
data$r	SEGMENT
??_R0?AUSAmbienceInstance@CArea@@@8 DD FLAT:??_7type_info@@6B@ ; CArea::SAmbienceInstance `RTTI Type Descriptor'
	DD	00H
	DB	'.?AUSAmbienceInstance@CArea@@', 00H
data$r	ENDS
;	COMDAT ??_R4SAmbienceInstance@CArea@@6B@
rdata$r	SEGMENT
??_R4SAmbienceInstance@CArea@@6B@ DD 00H		; CArea::SAmbienceInstance::`RTTI Complete Object Locator'
	DD	00H
	DD	00H
	DD	FLAT:??_R0?AUSAmbienceInstance@CArea@@@8
	DD	FLAT:??_R3SAmbienceInstance@CArea@@8
rdata$r	ENDS
;	COMDAT ??_R1A@?0A@EA@CArea@@8
rdata$r	SEGMENT
??_R1A@?0A@EA@CArea@@8 DD FLAT:??_R0?AVCArea@@@8	; CArea::`RTTI Base Class Descriptor at (0,-1,0,64)'
	DD	00H
	DD	00H
	DD	0ffffffffH
	DD	00H
	DD	040H
	DD	FLAT:??_R3CArea@@8
rdata$r	ENDS
;	COMDAT ??_R2CArea@@8
rdata$r	SEGMENT
??_R2CArea@@8 DD FLAT:??_R1A@?0A@EA@CArea@@8		; CArea::`RTTI Base Class Array'
rdata$r	ENDS
;	COMDAT ??_R3CArea@@8
rdata$r	SEGMENT
??_R3CArea@@8 DD 00H					; CArea::`RTTI Class Hierarchy Descriptor'
	DD	00H
	DD	01H
	DD	FLAT:??_R2CArea@@8
rdata$r	ENDS
;	COMDAT ??_R0?AVCArea@@@8
data$r	SEGMENT
??_R0?AVCArea@@@8 DD FLAT:??_7type_info@@6B@		; CArea `RTTI Type Descriptor'
	DD	00H
	DB	'.?AVCArea@@', 00H
data$r	ENDS
;	COMDAT ??_R4CArea@@6B@
rdata$r	SEGMENT
??_R4CArea@@6B@ DD 00H					; CArea::`RTTI Complete Object Locator'
	DD	00H
	DD	00H
	DD	FLAT:??_R0?AVCArea@@@8
	DD	FLAT:??_R3CArea@@8
rdata$r	ENDS
;	COMDAT ??_C@_0BA@FOIKENOD@vector?5too?5long@
CONST	SEGMENT
??_C@_0BA@FOIKENOD@vector?5too?5long@ DB 'vector too long', 00H ; `string'
CONST	ENDS
;	COMDAT ??_C@_0CN@BAHENMHD@?5CArea?3?3LoadAmbience?5Property?$CI?$CF@
CONST	SEGMENT
??_C@_0CN@BAHENMHD@?5CArea?3?3LoadAmbience?5Property?$CI?$CF@ DB ' CArea:'
	DB	':LoadAmbience Property(%d) Load ERROR', 00H	; `string'
CONST	ENDS
;	COMDAT ??_C@_0CO@GJNEDCML@?5CArea?3?3__LoadAmbience?5File?5For@
CONST	SEGMENT
??_C@_0CO@GJNEDCML@?5CArea?3?3__LoadAmbience?5File?5For@ DB ' CArea::__Lo'
	DB	'adAmbience File Format %s ERROR 2', 00H	; `string'
CONST	ENDS
;	COMDAT ??_C@_0CO@ECPJGBAI@?5CArea?3?3__LoadAmbience?5File?5For@
CONST	SEGMENT
??_C@_0CO@ECPJGBAI@?5CArea?3?3__LoadAmbience?5File?5For@ DB ' CArea::__Lo'
	DB	'adAmbience File Format %s ERROR 1', 00H	; `string'
CONST	ENDS
;	COMDAT ??_C@_0BF@PFPNGEBG@areaambiencedatafile@
CONST	SEGMENT
??_C@_0BF@PFPNGEBG@areaambiencedatafile@ DB 'areaambiencedatafile', 00H ; `string'
CONST	ENDS
;	COMDAT ??_C@_0CL@HHDKLHOE@?5CArea?3?3LoadObject?5Property?$CI?$CFu?$CJ@
CONST	SEGMENT
??_C@_0CL@HHDKLHOE@?5CArea?3?3LoadObject?5Property?$CI?$CFu?$CJ@ DB ' CAr'
	DB	'ea::LoadObject Property(%u) Load ERROR', 00H ; `string'
CONST	ENDS
;	COMDAT ??_C@_0L@CHFLOJFF@object?$CF03d@
CONST	SEGMENT
??_C@_0L@CHFLOJFF@object?$CF03d@ DB 'object%03d', 00H	; `string'
CONST	ENDS
;	COMDAT ??_C@_0CM@CFOIFIG@?5CArea?3?3__LoadObject?5File?5Forma@
CONST	SEGMENT
??_C@_0CM@CFOIFIG@?5CArea?3?3__LoadObject?5File?5Forma@ DB ' CArea::__Loa'
	DB	'dObject File Format %s ERROR 2', 00H	; `string'
CONST	ENDS
;	COMDAT ??_C@_0M@IANPHBDM@objectcount@
CONST	SEGMENT
??_C@_0M@IANPHBDM@objectcount@ DB 'objectcount', 00H	; `string'
CONST	ENDS
;	COMDAT ??_C@_0CM@CJHDNGEF@?5CArea?3?3__LoadObject?5File?5Forma@
CONST	SEGMENT
??_C@_0CM@CJHDNGEF@?5CArea?3?3__LoadObject?5File?5Forma@ DB ' CArea::__Lo'
	DB	'adObject File Format %s ERROR 1', 00H	; `string'
CONST	ENDS
;	COMDAT ??_C@_0N@DLGDDPHB@areadatafile@
CONST	SEGMENT
??_C@_0N@DLGDDPHB@areadatafile@ DB 'areadatafile', 00H	; `string'
CONST	ENDS
;	COMDAT ??_C@_0CA@NNOAMPKE@?5CArea?3?3Load?5File?5Load?5?$CFs?5ERROR@
CONST	SEGMENT
??_C@_0CA@NNOAMPKE@?5CArea?3?3Load?5File?5Load?5?$CFs?5ERROR@ DB ' CArea:'
	DB	':Load File Load %s ERROR', 00H		; `string'
CONST	ENDS
;	COMDAT ??_C@_0BF@EMGBEFOB@AreaAmbienceData?4txt@
CONST	SEGMENT
??_C@_0BF@EMGBEFOB@AreaAmbienceData?4txt@ DB 'AreaAmbienceData.txt', 00H ; `string'
CONST	ENDS
;	COMDAT ??_C@_0N@IIOKECFB@AreaData?4txt@
CONST	SEGMENT
??_C@_0N@IIOKECFB@AreaData?4txt@ DB 'AreaData.txt', 00H	; `string'
CONST	ENDS
;	COMDAT ??_C@_0BC@NJPKAPFJ@DummyCollisionOBB@
CONST	SEGMENT
??_C@_0BC@NJPKAPFJ@DummyCollisionOBB@ DB 'DummyCollisionOBB', 00H ; `string'
CONST	ENDS
;	COMDAT ??_C@_09PCMKFNFD@?2dungeon?2@
CONST	SEGMENT
??_C@_09PCMKFNFD@?2dungeon?2@ DB '\dungeon\', 00H	; `string'
CONST	ENDS
;	COMDAT ??_C@_09OLKGEJPN@?1dungeon?1@
CONST	SEGMENT
??_C@_09OLKGEJPN@?1dungeon?1@ DB '/dungeon/', 00H	; `string'
CONST	ENDS
;	COMDAT ??_C@_04KGNEGCGI@LOOP@
CONST	SEGMENT
??_C@_04KGNEGCGI@LOOP@ DB 'LOOP', 00H			; `string'
CONST	ENDS
;	COMDAT ??_C@_04MOOLDHHD@STEP@
CONST	SEGMENT
??_C@_04MOOLDHHD@STEP@ DB 'STEP', 00H			; `string'
CONST	ENDS
;	COMDAT ??_C@_04GHGHGAKN@ONCE@
CONST	SEGMENT
??_C@_04GHGHGAKN@ONCE@ DB 'ONCE', 00H			; `string'
CONST	ENDS
;	COMDAT ??_C@_0O@NDEAKJNP@_lod_?$CF?42d?4gr2@
CONST	SEGMENT
??_C@_0O@NDEAKJNP@_lod_?$CF?42d?4gr2@ DB '_lod_%.2d.gr2', 00H ; `string'
CONST	ENDS
;	COMDAT ??_C@_08JBFACIKL@TreeFile@
CONST	SEGMENT
??_C@_08JBFACIKL@TreeFile@ DB 'TreeFile', 00H		; `string'
CONST	ENDS
;	COMDAT ??_C@_0CL@BOJNBGJP@CArea?3?3SetEffect?5effect?5registe@
CONST	SEGMENT
??_C@_0CL@BOJNBGJP@CArea?3?3SetEffect?5effect?5registe@ DB 'CArea::SetEff'
	DB	'ect effect register error %s', 0aH, 00H	; `string'
CONST	ENDS
;	COMDAT ??_C@_0N@FPEBPNJJ@PropertyType@
CONST	SEGMENT
??_C@_0N@FPEBPNJJ@PropertyType@ DB 'PropertyType', 00H	; `string'
CONST	ENDS
;	COMDAT ??_7CArea@@6B@
CONST	SEGMENT
??_7CArea@@6B@ DD FLAT:??_R4CArea@@6B@			; CArea::`vftable'
	DD	FLAT:??_ECArea@@UAEPAXI@Z
CONST	ENDS
_DATA	SEGMENT
?ms_ObjectInstancePool@CArea@@1V?$CDynamicPool@USObjectInstance@CArea@@@@A DD FLAT:??_7?$CDynamicPool@USObjectInstance@CArea@@@@6B@ ; CArea::ms_ObjectInstancePool
	DD	00H
	DD	00H
	DD	00H
	DD	00H
	DD	00H
	DD	00H
	DD	00H
	DD	00H
?ms_AttributeInstancePool@CArea@@1V?$CDynamicPool@VCAttributeInstance@@@@A DD FLAT:??_7?$CDynamicPool@VCAttributeInstance@@@@6B@ ; CArea::ms_AttributeInstancePool
	DD	00H
	DD	00H
	DD	00H
	DD	00H
	DD	00H
	DD	00H
	DD	00H
	DD	00H
?ms_AmbienceInstancePool@CArea@@1V?$CDynamicPool@USAmbienceInstance@CArea@@@@A DD FLAT:??_7?$CDynamicPool@USAmbienceInstance@CArea@@@@6B@ ; CArea::ms_AmbienceInstancePool
	DD	00H
	DD	00H
	DD	00H
	DD	00H
	DD	00H
	DD	00H
	DD	00H
	DD	00H
?ms_DungeonBlockInstancePool@CArea@@1V?$CDynamicPool@VCDungeonBlock@@@@A DD FLAT:??_7?$CDynamicPool@VCDungeonBlock@@@@6B@ ; CArea::ms_DungeonBlockInstancePool
	DD	00H
	DD	00H
	DD	00H
	DD	00H
	DD	00H
	DD	00H
	DD	00H
	DD	00H
?ms_kPool@CArea@@2V?$CDynamicPool@VCArea@@@@A DD FLAT:??_7?$CDynamicPool@VCArea@@@@6B@ ; CArea::ms_kPool
	DD	00H
	DD	00H
	DD	00H
	DD	00H
	DD	00H
	DD	00H
	DD	00H
	DD	00H
_DATA	ENDS
;	COMDAT ??_7SObjectInstance@CArea@@6B@
CONST	SEGMENT
??_7SObjectInstance@CArea@@6B@ DD FLAT:??_R4SObjectInstance@CArea@@6B@ ; CArea::SObjectInstance::`vftable'
	DD	FLAT:??_ESObjectInstance@CArea@@UAEPAXI@Z
CONST	ENDS
;	COMDAT ??_7SAmbienceInstance@CArea@@6B@
CONST	SEGMENT
??_7SAmbienceInstance@CArea@@6B@ DD FLAT:??_R4SAmbienceInstance@CArea@@6B@ ; CArea::SAmbienceInstance::`vftable'
	DD	FLAT:??_ESAmbienceInstance@CArea@@UAEPAXI@Z
CONST	ENDS
;	COMDAT ?ms_kPool@?$CPooledObject@VCRotationDecorator@NEffectUpdateDecorator@@@@1V?$CDynamicPoolEx@VCRotationDecorator@NEffectUpdateDecorator@@@@A
_DATA	SEGMENT
?ms_kPool@?$CPooledObject@VCRotationDecorator@NEffectUpdateDecorator@@@@1V?$CDynamicPoolEx@VCRotationDecorator@NEffectUpdateDecorator@@@@A DD FLAT:??_7?$CDynamicPoolEx@VCRotationDecorator@NEffectUpdateDecorator@@@@6B@ ; CPooledObject<NEffectUpdateDecorator::CRotationDecorator>::ms_kPool
	DD	00H
	DD	00H
	DD	00H
	DD	00H
	DD	00H
	DD	00H
	DD	00H
	DD	00H
_DATA	ENDS
;	COMDAT ?ms_kPool@?$CPooledObject@VCGravityDecorator@NEffectUpdateDecorator@@@@1V?$CDynamicPoolEx@VCGravityDecorator@NEffectUpdateDecorator@@@@A
_DATA	SEGMENT
?ms_kPool@?$CPooledObject@VCGravityDecorator@NEffectUpdateDecorator@@@@1V?$CDynamicPoolEx@VCGravityDecorator@NEffectUpdateDecorator@@@@A DD FLAT:??_7?$CDynamicPoolEx@VCGravityDecorator@NEffectUpdateDecorator@@@@6B@ ; CPooledObject<NEffectUpdateDecorator::CGravityDecorator>::ms_kPool
	DD	00H
	DD	00H
	DD	00H
	DD	00H
	DD	00H
	DD	00H
	DD	00H
	DD	00H
_DATA	ENDS
;	COMDAT ?ms_kPool@?$CPooledObject@VCAirResistanceDecorator@NEffectUpdateDecorator@@@@1V?$CDynamicPoolEx@VCAirResistanceDecorator@NEffectUpdateDecorator@@@@A
_DATA	SEGMENT
?ms_kPool@?$CPooledObject@VCAirResistanceDecorator@NEffectUpdateDecorator@@@@1V?$CDynamicPoolEx@VCAirResistanceDecorator@NEffectUpdateDecorator@@@@A DD FLAT:??_7?$CDynamicPoolEx@VCAirResistanceDecorator@NEffectUpdateDecorator@@@@6B@ ; CPooledObject<NEffectUpdateDecorator::CAirResistanceDecorator>::ms_kPool
	DD	00H
	DD	00H
	DD	00H
	DD	00H
	DD	00H
	DD	00H
	DD	00H
	DD	00H
_DATA	ENDS
;	COMDAT ?ms_kPool@?$CPooledObject@VCTextureAnimationRandomDecorator@NEffectUpdateDecorator@@@@1V?$CDynamicPoolEx@VCTextureAnimationRandomDecorator@NEffectUpdateDecorator@@@@A
_DATA	SEGMENT
?ms_kPool@?$CPooledObject@VCTextureAnimationRandomDecorator@NEffectUpdateDecorator@@@@1V?$CDynamicPoolEx@VCTextureAnimationRandomDecorator@NEffectUpdateDecorator@@@@A DD FLAT:??_7?$CDynamicPoolEx@VCTextureAnimationRandomDecorator@NEffectUpdateDecorator@@@@6B@ ; CPooledObject<NEffectUpdateDecorator::CTextureAnimationRandomDecorator>::ms_kPool
	DD	00H
	DD	00H
	DD	00H
	DD	00H
	DD	00H
	DD	00H
	DD	00H
	DD	00H
_DATA	ENDS
;	COMDAT ?ms_kPool@?$CPooledObject@VCTextureAnimationCCWDecorator@NEffectUpdateDecorator@@@@1V?$CDynamicPoolEx@VCTextureAnimationCCWDecorator@NEffectUpdateDecorator@@@@A
_DATA	SEGMENT
?ms_kPool@?$CPooledObject@VCTextureAnimationCCWDecorator@NEffectUpdateDecorator@@@@1V?$CDynamicPoolEx@VCTextureAnimationCCWDecorator@NEffectUpdateDecorator@@@@A DD FLAT:??_7?$CDynamicPoolEx@VCTextureAnimationCCWDecorator@NEffectUpdateDecorator@@@@6B@ ; CPooledObject<NEffectUpdateDecorator::CTextureAnimationCCWDecorator>::ms_kPool
	DD	00H
	DD	00H
	DD	00H
	DD	00H
	DD	00H
	DD	00H
	DD	00H
	DD	00H
_DATA	ENDS
;	COMDAT ?ms_kPool@?$CPooledObject@VCTextureAnimationCWDecorator@NEffectUpdateDecorator@@@@1V?$CDynamicPoolEx@VCTextureAnimationCWDecorator@NEffectUpdateDecorator@@@@A
_DATA	SEGMENT
?ms_kPool@?$CPooledObject@VCTextureAnimationCWDecorator@NEffectUpdateDecorator@@@@1V?$CDynamicPoolEx@VCTextureAnimationCWDecorator@NEffectUpdateDecorator@@@@A DD FLAT:??_7?$CDynamicPoolEx@VCTextureAnimationCWDecorator@NEffectUpdateDecorator@@@@6B@ ; CPooledObject<NEffectUpdateDecorator::CTextureAnimationCWDecorator>::ms_kPool
	DD	00H
	DD	00H
	DD	00H
	DD	00H
	DD	00H
	DD	00H
	DD	00H
	DD	00H
_DATA	ENDS
;	COMDAT ?ms_kPool@?$CPooledObject@VCNullDecorator@NEffectUpdateDecorator@@@@1V?$CDynamicPoolEx@VCNullDecorator@NEffectUpdateDecorator@@@@A
_DATA	SEGMENT
?ms_kPool@?$CPooledObject@VCNullDecorator@NEffectUpdateDecorator@@@@1V?$CDynamicPoolEx@VCNullDecorator@NEffectUpdateDecorator@@@@A DD FLAT:??_7?$CDynamicPoolEx@VCNullDecorator@NEffectUpdateDecorator@@@@6B@ ; CPooledObject<NEffectUpdateDecorator::CNullDecorator>::ms_kPool
	DD	00H
	DD	00H
	DD	00H
	DD	00H
	DD	00H
	DD	00H
	DD	00H
	DD	00H
_DATA	ENDS
;	COMDAT ?ms_kPool@?$CPooledObject@VCHeaderDecorator@NEffectUpdateDecorator@@@@1V?$CDynamicPoolEx@VCHeaderDecorator@NEffectUpdateDecorator@@@@A
_DATA	SEGMENT
?ms_kPool@?$CPooledObject@VCHeaderDecorator@NEffectUpdateDecorator@@@@1V?$CDynamicPoolEx@VCHeaderDecorator@NEffectUpdateDecorator@@@@A DD FLAT:??_7?$CDynamicPoolEx@VCHeaderDecorator@NEffectUpdateDecorator@@@@6B@ ; CPooledObject<NEffectUpdateDecorator::CHeaderDecorator>::ms_kPool
	DD	00H
	DD	00H
	DD	00H
	DD	00H
	DD	00H
	DD	00H
	DD	00H
	DD	00H
_DATA	ENDS
;	COMDAT ??_R1A@?0A@EA@?$ctype@D@std@@8
rdata$r	SEGMENT
??_R1A@?0A@EA@?$ctype@D@std@@8 DD FLAT:??_R0?AV?$ctype@D@std@@@8 ; std::ctype<char>::`RTTI Base Class Descriptor at (0,-1,0,64)'
	DD	04H
	DD	00H
	DD	0ffffffffH
	DD	00H
	DD	040H
	DD	FLAT:??_R3?$ctype@D@std@@8
rdata$r	ENDS
;	COMDAT ??_R2?$ctype@D@std@@8
rdata$r	SEGMENT
??_R2?$ctype@D@std@@8 DD FLAT:??_R1A@?0A@EA@?$ctype@D@std@@8 ; std::ctype<char>::`RTTI Base Class Array'
	DD	FLAT:??_R1A@?0A@EA@ctype_base@std@@8
	DD	FLAT:??_R1A@?0A@EA@facet@locale@std@@8
	DD	FLAT:??_R1A@?0A@EA@_Facet_base@std@@8
	DD	FLAT:??_R13?0A@EA@_Crt_new_delete@std@@8
rdata$r	ENDS
;	COMDAT ??_R3?$ctype@D@std@@8
rdata$r	SEGMENT
??_R3?$ctype@D@std@@8 DD 00H				; std::ctype<char>::`RTTI Class Hierarchy Descriptor'
	DD	01H
	DD	05H
	DD	FLAT:??_R2?$ctype@D@std@@8
rdata$r	ENDS
;	COMDAT ??_R0?AV?$ctype@D@std@@@8
data$r	SEGMENT
??_R0?AV?$ctype@D@std@@@8 DD FLAT:??_7type_info@@6B@	; std::ctype<char> `RTTI Type Descriptor'
	DD	00H
	DB	'.?AV?$ctype@D@std@@', 00H
data$r	ENDS
;	COMDAT ??_R4?$ctype@D@std@@6B@
rdata$r	SEGMENT
??_R4?$ctype@D@std@@6B@ DD 00H				; std::ctype<char>::`RTTI Complete Object Locator'
	DD	00H
	DD	00H
	DD	FLAT:??_R0?AV?$ctype@D@std@@@8
	DD	FLAT:??_R3?$ctype@D@std@@8
rdata$r	ENDS
;	COMDAT ??_R1A@?0A@EA@ctype_base@std@@8
rdata$r	SEGMENT
??_R1A@?0A@EA@ctype_base@std@@8 DD FLAT:??_R0?AUctype_base@std@@@8 ; std::ctype_base::`RTTI Base Class Descriptor at (0,-1,0,64)'
	DD	03H
	DD	00H
	DD	0ffffffffH
	DD	00H
	DD	040H
	DD	FLAT:??_R3ctype_base@std@@8
rdata$r	ENDS
;	COMDAT ??_R2ctype_base@std@@8
rdata$r	SEGMENT
??_R2ctype_base@std@@8 DD FLAT:??_R1A@?0A@EA@ctype_base@std@@8 ; std::ctype_base::`RTTI Base Class Array'
	DD	FLAT:??_R1A@?0A@EA@facet@locale@std@@8
	DD	FLAT:??_R1A@?0A@EA@_Facet_base@std@@8
	DD	FLAT:??_R13?0A@EA@_Crt_new_delete@std@@8
rdata$r	ENDS
;	COMDAT ??_R3ctype_base@std@@8
rdata$r	SEGMENT
??_R3ctype_base@std@@8 DD 00H				; std::ctype_base::`RTTI Class Hierarchy Descriptor'
	DD	01H
	DD	04H
	DD	FLAT:??_R2ctype_base@std@@8
rdata$r	ENDS
;	COMDAT ??_R0?AUctype_base@std@@@8
data$r	SEGMENT
??_R0?AUctype_base@std@@@8 DD FLAT:??_7type_info@@6B@	; std::ctype_base `RTTI Type Descriptor'
	DD	00H
	DB	'.?AUctype_base@std@@', 00H
data$r	ENDS
;	COMDAT ??_R4ctype_base@std@@6B@
rdata$r	SEGMENT
??_R4ctype_base@std@@6B@ DD 00H				; std::ctype_base::`RTTI Complete Object Locator'
	DD	00H
	DD	00H
	DD	FLAT:??_R0?AUctype_base@std@@@8
	DD	FLAT:??_R3ctype_base@std@@8
rdata$r	ENDS
;	COMDAT ??_R4facet@locale@std@@6B@
rdata$r	SEGMENT
??_R4facet@locale@std@@6B@ DD 00H			; std::locale::facet::`RTTI Complete Object Locator'
	DD	00H
	DD	00H
	DD	FLAT:??_R0?AVfacet@locale@std@@@8
	DD	FLAT:??_R3facet@locale@std@@8
rdata$r	ENDS
;	COMDAT ??_R1A@?0A@EA@_Crt_new_delete@std@@8
rdata$r	SEGMENT
??_R1A@?0A@EA@_Crt_new_delete@std@@8 DD FLAT:??_R0?AU_Crt_new_delete@std@@@8 ; std::_Crt_new_delete::`RTTI Base Class Descriptor at (0,-1,0,64)'
	DD	00H
	DD	00H
	DD	0ffffffffH
	DD	00H
	DD	040H
	DD	FLAT:??_R3_Crt_new_delete@std@@8
rdata$r	ENDS
;	COMDAT ??_R2_Crt_new_delete@std@@8
rdata$r	SEGMENT
??_R2_Crt_new_delete@std@@8 DD FLAT:??_R1A@?0A@EA@_Crt_new_delete@std@@8 ; std::_Crt_new_delete::`RTTI Base Class Array'
rdata$r	ENDS
;	COMDAT ??_R3_Crt_new_delete@std@@8
rdata$r	SEGMENT
??_R3_Crt_new_delete@std@@8 DD 00H			; std::_Crt_new_delete::`RTTI Class Hierarchy Descriptor'
	DD	00H
	DD	01H
	DD	FLAT:??_R2_Crt_new_delete@std@@8
rdata$r	ENDS
;	COMDAT ??_R0?AU_Crt_new_delete@std@@@8
data$r	SEGMENT
??_R0?AU_Crt_new_delete@std@@@8 DD FLAT:??_7type_info@@6B@ ; std::_Crt_new_delete `RTTI Type Descriptor'
	DD	00H
	DB	'.?AU_Crt_new_delete@std@@', 00H
data$r	ENDS
;	COMDAT ??_R13?0A@EA@_Crt_new_delete@std@@8
rdata$r	SEGMENT
??_R13?0A@EA@_Crt_new_delete@std@@8 DD FLAT:??_R0?AU_Crt_new_delete@std@@@8 ; std::_Crt_new_delete::`RTTI Base Class Descriptor at (4,-1,0,64)'
	DD	00H
	DD	04H
	DD	0ffffffffH
	DD	00H
	DD	040H
	DD	FLAT:??_R3_Crt_new_delete@std@@8
rdata$r	ENDS
;	COMDAT ??_R2facet@locale@std@@8
rdata$r	SEGMENT
??_R2facet@locale@std@@8 DD FLAT:??_R1A@?0A@EA@facet@locale@std@@8 ; std::locale::facet::`RTTI Base Class Array'
	DD	FLAT:??_R1A@?0A@EA@_Facet_base@std@@8
	DD	FLAT:??_R13?0A@EA@_Crt_new_delete@std@@8
rdata$r	ENDS
;	COMDAT ??_R3facet@locale@std@@8
rdata$r	SEGMENT
??_R3facet@locale@std@@8 DD 00H				; std::locale::facet::`RTTI Class Hierarchy Descriptor'
	DD	01H
	DD	03H
	DD	FLAT:??_R2facet@locale@std@@8
rdata$r	ENDS
;	COMDAT ??_R0?AVfacet@locale@std@@@8
data$r	SEGMENT
??_R0?AVfacet@locale@std@@@8 DD FLAT:??_7type_info@@6B@	; std::locale::facet `RTTI Type Descriptor'
	DD	00H
	DB	'.?AVfacet@locale@std@@', 00H
data$r	ENDS
;	COMDAT ??_R1A@?0A@EA@facet@locale@std@@8
rdata$r	SEGMENT
??_R1A@?0A@EA@facet@locale@std@@8 DD FLAT:??_R0?AVfacet@locale@std@@@8 ; std::locale::facet::`RTTI Base Class Descriptor at (0,-1,0,64)'
	DD	02H
	DD	00H
	DD	0ffffffffH
	DD	00H
	DD	040H
	DD	FLAT:??_R3facet@locale@std@@8
rdata$r	ENDS
;	COMDAT ??_R1A@?0A@EA@_Facet_base@std@@8
rdata$r	SEGMENT
??_R1A@?0A@EA@_Facet_base@std@@8 DD FLAT:??_R0?AV_Facet_base@std@@@8 ; std::_Facet_base::`RTTI Base Class Descriptor at (0,-1,0,64)'
	DD	00H
	DD	00H
	DD	0ffffffffH
	DD	00H
	DD	040H
	DD	FLAT:??_R3_Facet_base@std@@8
rdata$r	ENDS
;	COMDAT ??_R2_Facet_base@std@@8
rdata$r	SEGMENT
??_R2_Facet_base@std@@8 DD FLAT:??_R1A@?0A@EA@_Facet_base@std@@8 ; std::_Facet_base::`RTTI Base Class Array'
rdata$r	ENDS
;	COMDAT ??_R3_Facet_base@std@@8
rdata$r	SEGMENT
??_R3_Facet_base@std@@8 DD 00H				; std::_Facet_base::`RTTI Class Hierarchy Descriptor'
	DD	00H
	DD	01H
	DD	FLAT:??_R2_Facet_base@std@@8
rdata$r	ENDS
;	COMDAT ??_R0?AV_Facet_base@std@@@8
data$r	SEGMENT
??_R0?AV_Facet_base@std@@@8 DD FLAT:??_7type_info@@6B@	; std::_Facet_base `RTTI Type Descriptor'
	DD	00H
	DB	'.?AV_Facet_base@std@@', 00H
data$r	ENDS
;	COMDAT ??_R4_Facet_base@std@@6B@
rdata$r	SEGMENT
??_R4_Facet_base@std@@6B@ DD 00H			; std::_Facet_base::`RTTI Complete Object Locator'
	DD	00H
	DD	00H
	DD	FLAT:??_R0?AV_Facet_base@std@@@8
	DD	FLAT:??_R3_Facet_base@std@@8
rdata$r	ENDS
;	COMDAT ??_R1A@?0A@EA@bad_cast@std@@8
rdata$r	SEGMENT
??_R1A@?0A@EA@bad_cast@std@@8 DD FLAT:??_R0?AVbad_cast@std@@@8 ; std::bad_cast::`RTTI Base Class Descriptor at (0,-1,0,64)'
	DD	01H
	DD	00H
	DD	0ffffffffH
	DD	00H
	DD	040H
	DD	FLAT:??_R3bad_cast@std@@8
rdata$r	ENDS
;	COMDAT ??_R2bad_cast@std@@8
rdata$r	SEGMENT
??_R2bad_cast@std@@8 DD FLAT:??_R1A@?0A@EA@bad_cast@std@@8 ; std::bad_cast::`RTTI Base Class Array'
	DD	FLAT:??_R1A@?0A@EA@exception@std@@8
rdata$r	ENDS
;	COMDAT ??_R3bad_cast@std@@8
rdata$r	SEGMENT
??_R3bad_cast@std@@8 DD 00H				; std::bad_cast::`RTTI Class Hierarchy Descriptor'
	DD	00H
	DD	02H
	DD	FLAT:??_R2bad_cast@std@@8
rdata$r	ENDS
;	COMDAT ??_R4bad_cast@std@@6B@
rdata$r	SEGMENT
??_R4bad_cast@std@@6B@ DD 00H				; std::bad_cast::`RTTI Complete Object Locator'
	DD	00H
	DD	00H
	DD	FLAT:??_R0?AVbad_cast@std@@@8
	DD	FLAT:??_R3bad_cast@std@@8
rdata$r	ENDS
;	COMDAT ??_R1A@?0A@EA@bad_array_new_length@std@@8
rdata$r	SEGMENT
??_R1A@?0A@EA@bad_array_new_length@std@@8 DD FLAT:??_R0?AVbad_array_new_length@std@@@8 ; std::bad_array_new_length::`RTTI Base Class Descriptor at (0,-1,0,64)'
	DD	02H
	DD	00H
	DD	0ffffffffH
	DD	00H
	DD	040H
	DD	FLAT:??_R3bad_array_new_length@std@@8
rdata$r	ENDS
;	COMDAT ??_R2bad_array_new_length@std@@8
rdata$r	SEGMENT
??_R2bad_array_new_length@std@@8 DD FLAT:??_R1A@?0A@EA@bad_array_new_length@std@@8 ; std::bad_array_new_length::`RTTI Base Class Array'
	DD	FLAT:??_R1A@?0A@EA@bad_alloc@std@@8
	DD	FLAT:??_R1A@?0A@EA@exception@std@@8
rdata$r	ENDS
;	COMDAT ??_R3bad_array_new_length@std@@8
rdata$r	SEGMENT
??_R3bad_array_new_length@std@@8 DD 00H			; std::bad_array_new_length::`RTTI Class Hierarchy Descriptor'
	DD	00H
	DD	03H
	DD	FLAT:??_R2bad_array_new_length@std@@8
rdata$r	ENDS
;	COMDAT ??_R4bad_array_new_length@std@@6B@
rdata$r	SEGMENT
??_R4bad_array_new_length@std@@6B@ DD 00H		; std::bad_array_new_length::`RTTI Complete Object Locator'
	DD	00H
	DD	00H
	DD	FLAT:??_R0?AVbad_array_new_length@std@@@8
	DD	FLAT:??_R3bad_array_new_length@std@@8
rdata$r	ENDS
;	COMDAT ??_R1A@?0A@EA@bad_alloc@std@@8
rdata$r	SEGMENT
??_R1A@?0A@EA@bad_alloc@std@@8 DD FLAT:??_R0?AVbad_alloc@std@@@8 ; std::bad_alloc::`RTTI Base Class Descriptor at (0,-1,0,64)'
	DD	01H
	DD	00H
	DD	0ffffffffH
	DD	00H
	DD	040H
	DD	FLAT:??_R3bad_alloc@std@@8
rdata$r	ENDS
;	COMDAT ??_R2bad_alloc@std@@8
rdata$r	SEGMENT
??_R2bad_alloc@std@@8 DD FLAT:??_R1A@?0A@EA@bad_alloc@std@@8 ; std::bad_alloc::`RTTI Base Class Array'
	DD	FLAT:??_R1A@?0A@EA@exception@std@@8
rdata$r	ENDS
;	COMDAT ??_R3bad_alloc@std@@8
rdata$r	SEGMENT
??_R3bad_alloc@std@@8 DD 00H				; std::bad_alloc::`RTTI Class Hierarchy Descriptor'
	DD	00H
	DD	02H
	DD	FLAT:??_R2bad_alloc@std@@8
rdata$r	ENDS
;	COMDAT ??_R4bad_alloc@std@@6B@
rdata$r	SEGMENT
??_R4bad_alloc@std@@6B@ DD 00H				; std::bad_alloc::`RTTI Complete Object Locator'
	DD	00H
	DD	00H
	DD	FLAT:??_R0?AVbad_alloc@std@@@8
	DD	FLAT:??_R3bad_alloc@std@@8
rdata$r	ENDS
;	COMDAT ??_R1A@?0A@EA@exception@std@@8
rdata$r	SEGMENT
??_R1A@?0A@EA@exception@std@@8 DD FLAT:??_R0?AVexception@std@@@8 ; std::exception::`RTTI Base Class Descriptor at (0,-1,0,64)'
	DD	00H
	DD	00H
	DD	0ffffffffH
	DD	00H
	DD	040H
	DD	FLAT:??_R3exception@std@@8
rdata$r	ENDS
;	COMDAT ??_R2exception@std@@8
rdata$r	SEGMENT
??_R2exception@std@@8 DD FLAT:??_R1A@?0A@EA@exception@std@@8 ; std::exception::`RTTI Base Class Array'
rdata$r	ENDS
;	COMDAT ??_R3exception@std@@8
rdata$r	SEGMENT
??_R3exception@std@@8 DD 00H				; std::exception::`RTTI Class Hierarchy Descriptor'
	DD	00H
	DD	01H
	DD	FLAT:??_R2exception@std@@8
rdata$r	ENDS
;	COMDAT ??_R4exception@std@@6B@
rdata$r	SEGMENT
??_R4exception@std@@6B@ DD 00H				; std::exception::`RTTI Complete Object Locator'
	DD	00H
	DD	00H
	DD	FLAT:??_R0?AVexception@std@@@8
	DD	FLAT:??_R3exception@std@@8
rdata$r	ENDS
;	COMDAT ??_C@_0BI@CFPLBAOH@invalid?5string?5position@
CONST	SEGMENT
??_C@_0BI@CFPLBAOH@invalid?5string?5position@ DB 'invalid string position'
	DB	00H						; `string'
CONST	ENDS
;	COMDAT ??_7?$ctype@D@std@@6B@
CONST	SEGMENT
??_7?$ctype@D@std@@6B@ DD FLAT:??_R4?$ctype@D@std@@6B@	; std::ctype<char>::`vftable'
	DD	FLAT:??_E?$ctype@D@std@@MAEPAXI@Z
	DD	FLAT:?_Incref@facet@locale@std@@UAEXXZ
	DD	FLAT:?_Decref@facet@locale@std@@UAEPAV_Facet_base@3@XZ
	DD	FLAT:?do_tolower@?$ctype@D@std@@MBEPBDPADPBD@Z
	DD	FLAT:?do_tolower@?$ctype@D@std@@MBEDD@Z
	DD	FLAT:?do_toupper@?$ctype@D@std@@MBEPBDPADPBD@Z
	DD	FLAT:?do_toupper@?$ctype@D@std@@MBEDD@Z
	DD	FLAT:?do_widen@?$ctype@D@std@@MBEPBDPBD0PAD@Z
	DD	FLAT:?do_widen@?$ctype@D@std@@MBEDD@Z
	DD	FLAT:?do_narrow@?$ctype@D@std@@MBEPBDPBD0DPAD@Z
	DD	FLAT:?do_narrow@?$ctype@D@std@@MBEDDD@Z
CONST	ENDS
;	COMDAT ??_7ctype_base@std@@6B@
CONST	SEGMENT
??_7ctype_base@std@@6B@ DD FLAT:??_R4ctype_base@std@@6B@ ; std::ctype_base::`vftable'
	DD	FLAT:??_Ectype_base@std@@UAEPAXI@Z
	DD	FLAT:?_Incref@facet@locale@std@@UAEXXZ
	DD	FLAT:?_Decref@facet@locale@std@@UAEPAV_Facet_base@3@XZ
CONST	ENDS
;	COMDAT ??_7facet@locale@std@@6B@
CONST	SEGMENT
??_7facet@locale@std@@6B@ DD FLAT:??_R4facet@locale@std@@6B@ ; std::locale::facet::`vftable'
	DD	FLAT:??_Efacet@locale@std@@MAEPAXI@Z
	DD	FLAT:?_Incref@facet@locale@std@@UAEXXZ
	DD	FLAT:?_Decref@facet@locale@std@@UAEPAV_Facet_base@3@XZ
CONST	ENDS
;	COMDAT ??_C@_0BA@ELKIONDK@bad?5locale?5name@
CONST	SEGMENT
??_C@_0BA@ELKIONDK@bad?5locale?5name@ DB 'bad locale name', 00H ; `string'
CONST	ENDS
;	COMDAT ??_7_Facet_base@std@@6B@
CONST	SEGMENT
??_7_Facet_base@std@@6B@ DD FLAT:??_R4_Facet_base@std@@6B@ ; std::_Facet_base::`vftable'
	DD	FLAT:??_E_Facet_base@std@@UAEPAXI@Z
	DD	FLAT:__purecall
	DD	FLAT:__purecall
CONST	ENDS
;	COMDAT ??_C@_00CNPNBAHC@@
CONST	SEGMENT
??_C@_00CNPNBAHC@@ DB 00H				; `string'
CONST	ENDS
;	COMDAT __CT??_R0?AVbad_cast@std@@@8??0bad_cast@std@@QAE@ABV01@@Z12
xdata$x	SEGMENT
__CT??_R0?AVbad_cast@std@@@8??0bad_cast@std@@QAE@ABV01@@Z12 DD 00H
	DD	FLAT:??_R0?AVbad_cast@std@@@8
	DD	00H
	DD	0ffffffffH
	ORG $+4
	DD	0cH
	DD	FLAT:??0bad_cast@std@@QAE@ABV01@@Z
xdata$x	ENDS
;	COMDAT ??_R0?AVbad_cast@std@@@8
data$r	SEGMENT
??_R0?AVbad_cast@std@@@8 DD FLAT:??_7type_info@@6B@	; std::bad_cast `RTTI Type Descriptor'
	DD	00H
	DB	'.?AVbad_cast@std@@', 00H
data$r	ENDS
;	COMDAT __CTA2?AVbad_cast@std@@
xdata$x	SEGMENT
__CTA2?AVbad_cast@std@@ DD 02H
	DD	FLAT:__CT??_R0?AVbad_cast@std@@@8??0bad_cast@std@@QAE@ABV01@@Z12
	DD	FLAT:__CT??_R0?AVexception@std@@@8??0exception@std@@QAE@ABV01@@Z12
xdata$x	ENDS
;	COMDAT __TI2?AVbad_cast@std@@
xdata$x	SEGMENT
__TI2?AVbad_cast@std@@ DD 00H
	DD	FLAT:??1bad_cast@std@@UAE@XZ
	DD	00H
	DD	FLAT:__CTA2?AVbad_cast@std@@
xdata$x	ENDS
;	COMDAT ??_C@_08EPJLHIJG@bad?5cast@
CONST	SEGMENT
??_C@_08EPJLHIJG@bad?5cast@ DB 'bad cast', 00H		; `string'
CONST	ENDS
;	COMDAT ??_7bad_cast@std@@6B@
CONST	SEGMENT
??_7bad_cast@std@@6B@ DD FLAT:??_R4bad_cast@std@@6B@	; std::bad_cast::`vftable'
	DD	FLAT:??_Ebad_cast@std@@UAEPAXI@Z
	DD	FLAT:?what@exception@std@@UBEPBDXZ
CONST	ENDS
;	COMDAT ??_C@_0BB@GCADKGJO@map?1set?5too?5long@
CONST	SEGMENT
??_C@_0BB@GCADKGJO@map?1set?5too?5long@ DB 'map/set too long', 00H ; `string'
CONST	ENDS
;	COMDAT ??_C@_0BA@JFNIOLAK@string?5too?5long@
CONST	SEGMENT
??_C@_0BA@JFNIOLAK@string?5too?5long@ DB 'string too long', 00H ; `string'
CONST	ENDS
;	COMDAT __CT??_R0?AVexception@std@@@8??0exception@std@@QAE@ABV01@@Z12
xdata$x	SEGMENT
__CT??_R0?AVexception@std@@@8??0exception@std@@QAE@ABV01@@Z12 DD 00H
	DD	FLAT:??_R0?AVexception@std@@@8
	DD	00H
	DD	0ffffffffH
	ORG $+4
	DD	0cH
	DD	FLAT:??0exception@std@@QAE@ABV01@@Z
xdata$x	ENDS
;	COMDAT ??_R0?AVexception@std@@@8
data$r	SEGMENT
??_R0?AVexception@std@@@8 DD FLAT:??_7type_info@@6B@	; std::exception `RTTI Type Descriptor'
	DD	00H
	DB	'.?AVexception@std@@', 00H
data$r	ENDS
;	COMDAT __CT??_R0?AVbad_alloc@std@@@8??0bad_alloc@std@@QAE@ABV01@@Z12
xdata$x	SEGMENT
__CT??_R0?AVbad_alloc@std@@@8??0bad_alloc@std@@QAE@ABV01@@Z12 DD 010H
	DD	FLAT:??_R0?AVbad_alloc@std@@@8
	DD	00H
	DD	0ffffffffH
	ORG $+4
	DD	0cH
	DD	FLAT:??0bad_alloc@std@@QAE@ABV01@@Z
xdata$x	ENDS
;	COMDAT ??_R0?AVbad_alloc@std@@@8
data$r	SEGMENT
??_R0?AVbad_alloc@std@@@8 DD FLAT:??_7type_info@@6B@	; std::bad_alloc `RTTI Type Descriptor'
	DD	00H
	DB	'.?AVbad_alloc@std@@', 00H
data$r	ENDS
;	COMDAT __CT??_R0?AVbad_array_new_length@std@@@8??0bad_array_new_length@std@@QAE@ABV01@@Z12
xdata$x	SEGMENT
__CT??_R0?AVbad_array_new_length@std@@@8??0bad_array_new_length@std@@QAE@ABV01@@Z12 DD 00H
	DD	FLAT:??_R0?AVbad_array_new_length@std@@@8
	DD	00H
	DD	0ffffffffH
	ORG $+4
	DD	0cH
	DD	FLAT:??0bad_array_new_length@std@@QAE@ABV01@@Z
xdata$x	ENDS
;	COMDAT ??_R0?AVbad_array_new_length@std@@@8
data$r	SEGMENT
??_R0?AVbad_array_new_length@std@@@8 DD FLAT:??_7type_info@@6B@ ; std::bad_array_new_length `RTTI Type Descriptor'
	DD	00H
	DB	'.?AVbad_array_new_length@std@@', 00H
data$r	ENDS
;	COMDAT __CTA3?AVbad_array_new_length@std@@
xdata$x	SEGMENT
__CTA3?AVbad_array_new_length@std@@ DD 03H
	DD	FLAT:__CT??_R0?AVbad_array_new_length@std@@@8??0bad_array_new_length@std@@QAE@ABV01@@Z12
	DD	FLAT:__CT??_R0?AVbad_alloc@std@@@8??0bad_alloc@std@@QAE@ABV01@@Z12
	DD	FLAT:__CT??_R0?AVexception@std@@@8??0exception@std@@QAE@ABV01@@Z12
xdata$x	ENDS
;	COMDAT __TI3?AVbad_array_new_length@std@@
xdata$x	SEGMENT
__TI3?AVbad_array_new_length@std@@ DD 00H
	DD	FLAT:??1bad_array_new_length@std@@UAE@XZ
	DD	00H
	DD	FLAT:__CTA3?AVbad_array_new_length@std@@
xdata$x	ENDS
;	COMDAT ??_C@_0BF@KINCDENJ@bad?5array?5new?5length@
CONST	SEGMENT
??_C@_0BF@KINCDENJ@bad?5array?5new?5length@ DB 'bad array new length', 00H ; `string'
CONST	ENDS
;	COMDAT ??_7bad_array_new_length@std@@6B@
CONST	SEGMENT
??_7bad_array_new_length@std@@6B@ DD FLAT:??_R4bad_array_new_length@std@@6B@ ; std::bad_array_new_length::`vftable'
	DD	FLAT:??_Ebad_array_new_length@std@@UAEPAXI@Z
	DD	FLAT:?what@exception@std@@UBEPBDXZ
CONST	ENDS
;	COMDAT ??_7bad_alloc@std@@6B@
CONST	SEGMENT
??_7bad_alloc@std@@6B@ DD FLAT:??_R4bad_alloc@std@@6B@	; std::bad_alloc::`vftable'
	DD	FLAT:??_Ebad_alloc@std@@UAEPAXI@Z
	DD	FLAT:?what@exception@std@@UBEPBDXZ
CONST	ENDS
;	COMDAT ??_C@_0BC@EOODALEL@Unknown?5exception@
CONST	SEGMENT
??_C@_0BC@EOODALEL@Unknown?5exception@ DB 'Unknown exception', 00H ; `string'
CONST	ENDS
;	COMDAT ??_7exception@std@@6B@
CONST	SEGMENT
??_7exception@std@@6B@ DD FLAT:??_R4exception@std@@6B@	; std::exception::`vftable'
	DD	FLAT:??_Eexception@std@@UAEPAXI@Z
	DD	FLAT:?what@exception@std@@UBEPBDXZ
CONST	ENDS
;	COMDAT xdata$x
xdata$x	SEGMENT
__unwindtable$??$?0ABQAUSObjectInstance@CArea@@@?$_Tree_temp_node@V?$allocator@U?$_Tree_node@PAUSObjectInstance@CArea@@PAX@std@@@std@@@std@@QAE@AAV?$allocator@U?$_Tree_node@PAUSObjectInstance@CArea@@PAX@std@@@1@PAU?$_Tree_node@PAUSObjectInstance@CArea@@PAX@1@ABQAUSObjectInstance@CArea@@@Z DD 0ffffffffH
	DD	FLAT:__unwindfunclet$??$?0ABQAUSObjectInstance@CArea@@@?$_Tree_temp_node@V?$allocator@U?$_Tree_node@PAUSObjectInstance@CArea@@PAX@std@@@std@@@std@@QAE@AAV?$allocator@U?$_Tree_node@PAUSObjectInstance@CArea@@PAX@std@@@1@PAU?$_Tree_node@PAUSObjectInstance@CArea@@PAX@1@ABQAUSObjectInstance@CArea@@@Z$1
__ehfuncinfo$??$?0ABQAUSObjectInstance@CArea@@@?$_Tree_temp_node@V?$allocator@U?$_Tree_node@PAUSObjectInstance@CArea@@PAX@std@@@std@@@std@@QAE@AAV?$allocator@U?$_Tree_node@PAUSObjectInstance@CArea@@PAX@std@@@1@PAU?$_Tree_node@PAUSObjectInstance@CArea@@PAX@1@ABQAUSObjectInstance@CArea@@@Z DD 019930522H
	DD	01H
	DD	FLAT:__unwindtable$??$?0ABQAUSObjectInstance@CArea@@@?$_Tree_temp_node@V?$allocator@U?$_Tree_node@PAUSObjectInstance@CArea@@PAX@std@@@std@@@std@@QAE@AAV?$allocator@U?$_Tree_node@PAUSObjectInstance@CArea@@PAX@std@@@1@PAU?$_Tree_node@PAUSObjectInstance@CArea@@PAX@1@ABQAUSObjectInstance@CArea@@@Z
	DD	2 DUP(00H)
	DD	2 DUP(00H)
	DD	00H
	DD	01H
xdata$x	ENDS
;	COMDAT xdata$x
xdata$x	SEGMENT
__unwindtable$??0?$_Tree_temp_node_alloc@V?$allocator@U?$_Tree_node@PAUSObjectInstance@CArea@@PAX@std@@@std@@@std@@QAE@AAV?$allocator@U?$_Tree_node@PAUSObjectInstance@CArea@@PAX@std@@@1@@Z DD 0ffffffffH
	DD	FLAT:__unwindfunclet$??0?$_Tree_temp_node_alloc@V?$allocator@U?$_Tree_node@PAUSObjectInstance@CArea@@PAX@std@@@std@@@std@@QAE@AAV?$allocator@U?$_Tree_node@PAUSObjectInstance@CArea@@PAX@std@@@1@@Z$0
__ehfuncinfo$??0?$_Tree_temp_node_alloc@V?$allocator@U?$_Tree_node@PAUSObjectInstance@CArea@@PAX@std@@@std@@@std@@QAE@AAV?$allocator@U?$_Tree_node@PAUSObjectInstance@CArea@@PAX@std@@@1@@Z DD 019930522H
	DD	01H
	DD	FLAT:__unwindtable$??0?$_Tree_temp_node_alloc@V?$allocator@U?$_Tree_node@PAUSObjectInstance@CArea@@PAX@std@@@std@@@std@@QAE@AAV?$allocator@U?$_Tree_node@PAUSObjectInstance@CArea@@PAX@std@@@1@@Z
	DD	2 DUP(00H)
	DD	2 DUP(00H)
	DD	00H
	DD	01H
xdata$x	ENDS
;	COMDAT xdata$x
xdata$x	SEGMENT
__unwindtable$??$?0ABH@?$_Tree_temp_node@V?$allocator@U?$_Tree_node@HPAX@std@@@std@@@std@@QAE@AAV?$allocator@U?$_Tree_node@HPAX@std@@@1@PAU?$_Tree_node@HPAX@1@ABH@Z DD 0ffffffffH
	DD	FLAT:__unwindfunclet$??$?0ABH@?$_Tree_temp_node@V?$allocator@U?$_Tree_node@HPAX@std@@@std@@@std@@QAE@AAV?$allocator@U?$_Tree_node@HPAX@std@@@1@PAU?$_Tree_node@HPAX@1@ABH@Z$1
__ehfuncinfo$??$?0ABH@?$_Tree_temp_node@V?$allocator@U?$_Tree_node@HPAX@std@@@std@@@std@@QAE@AAV?$allocator@U?$_Tree_node@HPAX@std@@@1@PAU?$_Tree_node@HPAX@1@ABH@Z DD 019930522H
	DD	01H
	DD	FLAT:__unwindtable$??$?0ABH@?$_Tree_temp_node@V?$allocator@U?$_Tree_node@HPAX@std@@@std@@@std@@QAE@AAV?$allocator@U?$_Tree_node@HPAX@std@@@1@PAU?$_Tree_node@HPAX@1@ABH@Z
	DD	2 DUP(00H)
	DD	2 DUP(00H)
	DD	00H
	DD	01H
xdata$x	ENDS
;	COMDAT xdata$x
xdata$x	SEGMENT
__unwindtable$??0?$_Tree_temp_node_alloc@V?$allocator@U?$_Tree_node@HPAX@std@@@std@@@std@@QAE@AAV?$allocator@U?$_Tree_node@HPAX@std@@@1@@Z DD 0ffffffffH
	DD	FLAT:__unwindfunclet$??0?$_Tree_temp_node_alloc@V?$allocator@U?$_Tree_node@HPAX@std@@@std@@@std@@QAE@AAV?$allocator@U?$_Tree_node@HPAX@std@@@1@@Z$0
__ehfuncinfo$??0?$_Tree_temp_node_alloc@V?$allocator@U?$_Tree_node@HPAX@std@@@std@@@std@@QAE@AAV?$allocator@U?$_Tree_node@HPAX@std@@@1@@Z DD 019930522H
	DD	01H
	DD	FLAT:__unwindtable$??0?$_Tree_temp_node_alloc@V?$allocator@U?$_Tree_node@HPAX@std@@@std@@@std@@QAE@AAV?$allocator@U?$_Tree_node@HPAX@std@@@1@@Z
	DD	2 DUP(00H)
	DD	2 DUP(00H)
	DD	00H
	DD	01H
xdata$x	ENDS
;	COMDAT xdata$x
xdata$x	SEGMENT
__unwindtable$??$?0U?$pair@$$CBKPAVCEffectInstance@@@std@@@?$_Tree_temp_node@V?$allocator@U?$_Tree_node@U?$pair@$$CBKPAVCEffectInstance@@@std@@PAX@std@@@std@@@std@@QAE@AAV?$allocator@U?$_Tree_node@U?$pair@$$CBKPAVCEffectInstance@@@std@@PAX@std@@@1@PAU?$_Tree_node@U?$pair@$$CBKPAVCEffectInstance@@@std@@PAX@1@$$QAU?$pair@$$CBKPAVCEffectInstance@@@1@@Z DD 0ffffffffH
	DD	FLAT:__unwindfunclet$??$?0U?$pair@$$CBKPAVCEffectInstance@@@std@@@?$_Tree_temp_node@V?$allocator@U?$_Tree_node@U?$pair@$$CBKPAVCEffectInstance@@@std@@PAX@std@@@std@@@std@@QAE@AAV?$allocator@U?$_Tree_node@U?$pair@$$CBKPAVCEffectInstance@@@std@@PAX@std@@@1@PAU?$_Tree_node@U?$pair@$$CBKPAVCEffectInstance@@@std@@PAX@1@$$QAU?$pair@$$CBKPAVCEffectInstance@@@1@@Z$1
__ehfuncinfo$??$?0U?$pair@$$CBKPAVCEffectInstance@@@std@@@?$_Tree_temp_node@V?$allocator@U?$_Tree_node@U?$pair@$$CBKPAVCEffectInstance@@@std@@PAX@std@@@std@@@std@@QAE@AAV?$allocator@U?$_Tree_node@U?$pair@$$CBKPAVCEffectInstance@@@std@@PAX@std@@@1@PAU?$_Tree_node@U?$pair@$$CBKPAVCEffectInstance@@@std@@PAX@1@$$QAU?$pair@$$CBKPAVCEffectInstance@@@1@@Z DD 019930522H
	DD	01H
	DD	FLAT:__unwindtable$??$?0U?$pair@$$CBKPAVCEffectInstance@@@std@@@?$_Tree_temp_node@V?$allocator@U?$_Tree_node@U?$pair@$$CBKPAVCEffectInstance@@@std@@PAX@std@@@std@@@std@@QAE@AAV?$allocator@U?$_Tree_node@U?$pair@$$CBKPAVCEffectInstance@@@std@@PAX@std@@@1@PAU?$_Tree_node@U?$pair@$$CBKPAVCEffectInstance@@@std@@PAX@1@$$QAU?$pair@$$CBKPAVCEffectInstance@@@1@@Z
	DD	2 DUP(00H)
	DD	2 DUP(00H)
	DD	00H
	DD	01H
xdata$x	ENDS
;	COMDAT xdata$x
xdata$x	SEGMENT
__unwindtable$??0?$_Tree_temp_node_alloc@V?$allocator@U?$_Tree_node@U?$pair@$$CBKPAVCEffectInstance@@@std@@PAX@std@@@std@@@std@@QAE@AAV?$allocator@U?$_Tree_node@U?$pair@$$CBKPAVCEffectInstance@@@std@@PAX@std@@@1@@Z DD 0ffffffffH
	DD	FLAT:__unwindfunclet$??0?$_Tree_temp_node_alloc@V?$allocator@U?$_Tree_node@U?$pair@$$CBKPAVCEffectInstance@@@std@@PAX@std@@@std@@@std@@QAE@AAV?$allocator@U?$_Tree_node@U?$pair@$$CBKPAVCEffectInstance@@@std@@PAX@std@@@1@@Z$0
__ehfuncinfo$??0?$_Tree_temp_node_alloc@V?$allocator@U?$_Tree_node@U?$pair@$$CBKPAVCEffectInstance@@@std@@PAX@std@@@std@@@std@@QAE@AAV?$allocator@U?$_Tree_node@U?$pair@$$CBKPAVCEffectInstance@@@std@@PAX@std@@@1@@Z DD 019930522H
	DD	01H
	DD	FLAT:__unwindtable$??0?$_Tree_temp_node_alloc@V?$allocator@U?$_Tree_node@U?$pair@$$CBKPAVCEffectInstance@@@std@@PAX@std@@@std@@@std@@QAE@AAV?$allocator@U?$_Tree_node@U?$pair@$$CBKPAVCEffectInstance@@@std@@PAX@std@@@1@@Z
	DD	2 DUP(00H)
	DD	2 DUP(00H)
	DD	00H
	DD	01H
xdata$x	ENDS
;	COMDAT xdata$x
xdata$x	SEGMENT
__unwindtable$??$?0U?$pair@QAVCGraphicThingInstance@@K@std@@@?$_Tree_temp_node@V?$allocator@U?$_Tree_node@U?$pair@QAVCGraphicThingInstance@@K@std@@PAX@std@@@std@@@std@@QAE@AAV?$allocator@U?$_Tree_node@U?$pair@QAVCGraphicThingInstance@@K@std@@PAX@std@@@1@PAU?$_Tree_node@U?$pair@QAVCGraphicThingInstance@@K@std@@PAX@1@$$QAU?$pair@QAVCGraphicThingInstance@@K@1@@Z DD 0ffffffffH
	DD	FLAT:__unwindfunclet$??$?0U?$pair@QAVCGraphicThingInstance@@K@std@@@?$_Tree_temp_node@V?$allocator@U?$_Tree_node@U?$pair@QAVCGraphicThingInstance@@K@std@@PAX@std@@@std@@@std@@QAE@AAV?$allocator@U?$_Tree_node@U?$pair@QAVCGraphicThingInstance@@K@std@@PAX@std@@@1@PAU?$_Tree_node@U?$pair@QAVCGraphicThingInstance@@K@std@@PAX@1@$$QAU?$pair@QAVCGraphicThingInstance@@K@1@@Z$1
__ehfuncinfo$??$?0U?$pair@QAVCGraphicThingInstance@@K@std@@@?$_Tree_temp_node@V?$allocator@U?$_Tree_node@U?$pair@QAVCGraphicThingInstance@@K@std@@PAX@std@@@std@@@std@@QAE@AAV?$allocator@U?$_Tree_node@U?$pair@QAVCGraphicThingInstance@@K@std@@PAX@std@@@1@PAU?$_Tree_node@U?$pair@QAVCGraphicThingInstance@@K@std@@PAX@1@$$QAU?$pair@QAVCGraphicThingInstance@@K@1@@Z DD 019930522H
	DD	01H
	DD	FLAT:__unwindtable$??$?0U?$pair@QAVCGraphicThingInstance@@K@std@@@?$_Tree_temp_node@V?$allocator@U?$_Tree_node@U?$pair@QAVCGraphicThingInstance@@K@std@@PAX@std@@@std@@@std@@QAE@AAV?$allocator@U?$_Tree_node@U?$pair@QAVCGraphicThingInstance@@K@std@@PAX@std@@@1@PAU?$_Tree_node@U?$pair@QAVCGraphicThingInstance@@K@std@@PAX@1@$$QAU?$pair@QAVCGraphicThingInstance@@K@1@@Z
	DD	2 DUP(00H)
	DD	2 DUP(00H)
	DD	00H
	DD	01H
xdata$x	ENDS
;	COMDAT xdata$x
xdata$x	SEGMENT
__unwindtable$??0?$_Tree_temp_node_alloc@V?$allocator@U?$_Tree_node@U?$pair@QAVCGraphicThingInstance@@K@std@@PAX@std@@@std@@@std@@QAE@AAV?$allocator@U?$_Tree_node@U?$pair@QAVCGraphicThingInstance@@K@std@@PAX@std@@@1@@Z DD 0ffffffffH
	DD	FLAT:__unwindfunclet$??0?$_Tree_temp_node_alloc@V?$allocator@U?$_Tree_node@U?$pair@QAVCGraphicThingInstance@@K@std@@PAX@std@@@std@@@std@@QAE@AAV?$allocator@U?$_Tree_node@U?$pair@QAVCGraphicThingInstance@@K@std@@PAX@std@@@1@@Z$0
__ehfuncinfo$??0?$_Tree_temp_node_alloc@V?$allocator@U?$_Tree_node@U?$pair@QAVCGraphicThingInstance@@K@std@@PAX@std@@@std@@@std@@QAE@AAV?$allocator@U?$_Tree_node@U?$pair@QAVCGraphicThingInstance@@K@std@@PAX@std@@@1@@Z DD 019930522H
	DD	01H
	DD	FLAT:__unwindtable$??0?$_Tree_temp_node_alloc@V?$allocator@U?$_Tree_node@U?$pair@QAVCGraphicThingInstance@@K@std@@PAX@std@@@std@@@std@@QAE@AAV?$allocator@U?$_Tree_node@U?$pair@QAVCGraphicThingInstance@@K@std@@PAX@std@@@1@@Z
	DD	2 DUP(00H)
	DD	2 DUP(00H)
	DD	00H
	DD	01H
xdata$x	ENDS
;	COMDAT xdata$x
xdata$x	SEGMENT
__unwindtable$??$?0ABUpiecewise_construct_t@std@@V?$tuple@$$QAV?$basic_string@DU?$char_traits@D@std@@V?$allocator@D@2@@std@@@1@V?$tuple@$$V@1@@?$_Tree_temp_node@V?$allocator@U?$_Tree_node@U?$pair@$$CBV?$basic_string@DU?$char_traits@D@std@@V?$allocator@D@2@@std@@V?$vector@V?$basic_string@DU?$char_traits@D@std@@V?$allocator@D@2@@std@@V?$allocator@V?$basic_string@DU?$char_traits@D@std@@V?$allocator@D@2@@std@@@2@@2@@std@@PAX@std@@@std@@@std@@QAE@AAV?$allocator@U?$_Tree_node@U?$pair@$$CBV?$basic_string@DU?$char_traits@D@std@@V?$allocator@D@2@@std@@V?$vector@V?$basic_string@DU?$char_traits@D@std@@V?$allocator@D@2@@std@@V?$allocator@V?$basic_string@DU?$char_traits@D@std@@V?$allocator@D@2@@std@@@2@@2@@std@@PAX@std@@@1@PAU?$_Tree_node@U?$pair@$$CBV?$basic_string@DU?$char_traits@D@std@@V?$allocator@D@2@@std@@V?$vector@V?$basic_string@DU?$char_traits@D@std@@V?$allocator@D@2@@std@@V?$allocator@V?$basic_string@DU?$char_traits@D@std@@V?$allocator@D@2@@std@@@2@@2@@std@@PAX@1@ABUpiecewise_construct_t@1@$$QAV?$tuple@$$QAV?$basic_string@DU?$char_traits@D@std@@V?$allocator@D@2@@std@@@1@$$QAV?$tuple@$$V@1@@Z DD 0ffffffffH
	DD	FLAT:__unwindfunclet$??$?0ABUpiecewise_construct_t@std@@V?$tuple@$$QAV?$basic_string@DU?$char_traits@D@std@@V?$allocator@D@2@@std@@@1@V?$tuple@$$V@1@@?$_Tree_temp_node@V?$allocator@U?$_Tree_node@U?$pair@$$CBV?$basic_string@DU?$char_traits@D@std@@V?$allocator@D@2@@std@@V?$vector@V?$basic_string@DU?$char_traits@D@std@@V?$allocator@D@2@@std@@V?$allocator@V?$basic_string@DU?$char_traits@D@std@@V?$allocator@D@2@@std@@@2@@2@@std@@PAX@std@@@std@@@std@@QAE@AAV?$allocator@U?$_Tree_node@U?$pair@$$CBV?$basic_string@DU?$char_traits@D@std@@V?$allocator@D@2@@std@@V?$vector@V?$basic_string@DU?$char_traits@D@std@@V?$allocator@D@2@@std@@V?$allocator@V?$basic_string@DU?$char_traits@D@std@@V?$allocator@D@2@@std@@@2@@2@@std@@PAX@std@@@1@PAU?$_Tree_node@U?$pair@$$CBV?$basic_string@DU?$char_traits@D@std@@V?$allocator@D@2@@std@@V?$vector@V?$basic_string@DU?$char_traits@D@std@@V?$allocator@D@2@@std@@V?$allocator@V?$basic_string@DU?$char_traits@D@std@@V?$allocator@D@2@@std@@@2@@2@@std@@PAX@1@ABUpiecewise_construct_t@1@$$QAV?$tuple@$$QAV?$basic_string@DU?$char_traits@D@std@@V?$allocator@D@2@@std@@@1@$$QAV?$tuple@$$V@1@@Z$1
__ehfuncinfo$??$?0ABUpiecewise_construct_t@std@@V?$tuple@$$QAV?$basic_string@DU?$char_traits@D@std@@V?$allocator@D@2@@std@@@1@V?$tuple@$$V@1@@?$_Tree_temp_node@V?$allocator@U?$_Tree_node@U?$pair@$$CBV?$basic_string@DU?$char_traits@D@std@@V?$allocator@D@2@@std@@V?$vector@V?$basic_string@DU?$char_traits@D@std@@V?$allocator@D@2@@std@@V?$allocator@V?$basic_string@DU?$char_traits@D@std@@V?$allocator@D@2@@std@@@2@@2@@std@@PAX@std@@@std@@@std@@QAE@AAV?$allocator@U?$_Tree_node@U?$pair@$$CBV?$basic_string@DU?$char_traits@D@std@@V?$allocator@D@2@@std@@V?$vector@V?$basic_string@DU?$char_traits@D@std@@V?$allocator@D@2@@std@@V?$allocator@V?$basic_string@DU?$char_traits@D@std@@V?$allocator@D@2@@std@@@2@@2@@std@@PAX@std@@@1@PAU?$_Tree_node@U?$pair@$$CBV?$basic_string@DU?$char_traits@D@std@@V?$allocator@D@2@@std@@V?$vector@V?$basic_string@DU?$char_traits@D@std@@V?$allocator@D@2@@std@@V?$allocator@V?$basic_string@DU?$char_traits@D@std@@V?$allocator@D@2@@std@@@2@@2@@std@@PAX@1@ABUpiecewise_construct_t@1@$$QAV?$tuple@$$QAV?$basic_string@DU?$char_traits@D@std@@V?$allocator@D@2@@std@@@1@$$QAV?$tuple@$$V@1@@Z DD 019930522H
	DD	01H
	DD	FLAT:__unwindtable$??$?0ABUpiecewise_construct_t@std@@V?$tuple@$$QAV?$basic_string@DU?$char_traits@D@std@@V?$allocator@D@2@@std@@@1@V?$tuple@$$V@1@@?$_Tree_temp_node@V?$allocator@U?$_Tree_node@U?$pair@$$CBV?$basic_string@DU?$char_traits@D@std@@V?$allocator@D@2@@std@@V?$vector@V?$basic_string@DU?$char_traits@D@std@@V?$allocator@D@2@@std@@V?$allocator@V?$basic_string@DU?$char_traits@D@std@@V?$allocator@D@2@@std@@@2@@2@@std@@PAX@std@@@std@@@std@@QAE@AAV?$allocator@U?$_Tree_node@U?$pair@$$CBV?$basic_string@DU?$char_traits@D@std@@V?$allocator@D@2@@std@@V?$vector@V?$basic_string@DU?$char_traits@D@std@@V?$allocator@D@2@@std@@V?$allocator@V?$basic_string@DU?$char_traits@D@std@@V?$allocator@D@2@@std@@@2@@2@@std@@PAX@std@@@1@PAU?$_Tree_node@U?$pair@$$CBV?$basic_string@DU?$char_traits@D@std@@V?$allocator@D@2@@std@@V?$vector@V?$basic_string@DU?$char_traits@D@std@@V?$allocator@D@2@@std@@V?$allocator@V?$basic_string@DU?$char_traits@D@std@@V?$allocator@D@2@@std@@@2@@2@@std@@PAX@1@ABUpiecewise_construct_t@1@$$QAV?$tuple@$$QAV?$basic_string@DU?$char_traits@D@std@@V?$allocator@D@2@@std@@@1@$$QAV?$tuple@$$V@1@@Z
	DD	2 DUP(00H)
	DD	2 DUP(00H)
	DD	00H
	DD	01H
xdata$x	ENDS
;	COMDAT xdata$x
xdata$x	SEGMENT
__unwindtable$??0?$_Tree_temp_node_alloc@V?$allocator@U?$_Tree_node@U?$pair@$$CBV?$basic_string@DU?$char_traits@D@std@@V?$allocator@D@2@@std@@V?$vector@V?$basic_string@DU?$char_traits@D@std@@V?$allocator@D@2@@std@@V?$allocator@V?$basic_string@DU?$char_traits@D@std@@V?$allocator@D@2@@std@@@2@@2@@std@@PAX@std@@@std@@@std@@QAE@AAV?$allocator@U?$_Tree_node@U?$pair@$$CBV?$basic_string@DU?$char_traits@D@std@@V?$allocator@D@2@@std@@V?$vector@V?$basic_string@DU?$char_traits@D@std@@V?$allocator@D@2@@std@@V?$allocator@V?$basic_string@DU?$char_traits@D@std@@V?$allocator@D@2@@std@@@2@@2@@std@@PAX@std@@@1@@Z DD 0ffffffffH
	DD	FLAT:__unwindfunclet$??0?$_Tree_temp_node_alloc@V?$allocator@U?$_Tree_node@U?$pair@$$CBV?$basic_string@DU?$char_traits@D@std@@V?$allocator@D@2@@std@@V?$vector@V?$basic_string@DU?$char_traits@D@std@@V?$allocator@D@2@@std@@V?$allocator@V?$basic_string@DU?$char_traits@D@std@@V?$allocator@D@2@@std@@@2@@2@@std@@PAX@std@@@std@@@std@@QAE@AAV?$allocator@U?$_Tree_node@U?$pair@$$CBV?$basic_string@DU?$char_traits@D@std@@V?$allocator@D@2@@std@@V?$vector@V?$basic_string@DU?$char_traits@D@std@@V?$allocator@D@2@@std@@V?$allocator@V?$basic_string@DU?$char_traits@D@std@@V?$allocator@D@2@@std@@@2@@2@@std@@PAX@std@@@1@@Z$0
__ehfuncinfo$??0?$_Tree_temp_node_alloc@V?$allocator@U?$_Tree_node@U?$pair@$$CBV?$basic_string@DU?$char_traits@D@std@@V?$allocator@D@2@@std@@V?$vector@V?$basic_string@DU?$char_traits@D@std@@V?$allocator@D@2@@std@@V?$allocator@V?$basic_string@DU?$char_traits@D@std@@V?$allocator@D@2@@std@@@2@@2@@std@@PAX@std@@@std@@@std@@QAE@AAV?$allocator@U?$_Tree_node@U?$pair@$$CBV?$basic_string@DU?$char_traits@D@std@@V?$allocator@D@2@@std@@V?$vector@V?$basic_string@DU?$char_traits@D@std@@V?$allocator@D@2@@std@@V?$allocator@V?$basic_string@DU?$char_traits@D@std@@V?$allocator@D@2@@std@@@2@@2@@std@@PAX@std@@@1@@Z DD 019930522H
	DD	01H
	DD	FLAT:__unwindtable$??0?$_Tree_temp_node_alloc@V?$allocator@U?$_Tree_node@U?$pair@$$CBV?$basic_string@DU?$char_traits@D@std@@V?$allocator@D@2@@std@@V?$vector@V?$basic_string@DU?$char_traits@D@std@@V?$allocator@D@2@@std@@V?$allocator@V?$basic_string@DU?$char_traits@D@std@@V?$allocator@D@2@@std@@@2@@2@@std@@PAX@std@@@std@@@std@@QAE@AAV?$allocator@U?$_Tree_node@U?$pair@$$CBV?$basic_string@DU?$char_traits@D@std@@V?$allocator@D@2@@std@@V?$vector@V?$basic_string@DU?$char_traits@D@std@@V?$allocator@D@2@@std@@V?$allocator@V?$basic_string@DU?$char_traits@D@std@@V?$allocator@D@2@@std@@@2@@2@@std@@PAX@std@@@1@@Z
	DD	2 DUP(00H)
	DD	2 DUP(00H)
	DD	00H
	DD	01H
xdata$x	ENDS
;	COMDAT xdata$x
xdata$x	SEGMENT
__unwindtable$??$_Emplace@ABQAUSObjectInstance@CArea@@@?$_Tree@V?$_Tset_traits@PAUSObjectInstance@CArea@@U?$less@PAUSObjectInstance@CArea@@@std@@V?$allocator@PAUSObjectInstance@CArea@@@4@$0A@@std@@@std@@IAE?AU?$pair@PAU?$_Tree_node@PAUSObjectInstance@CArea@@PAX@std@@_N@1@ABQAUSObjectInstance@CArea@@@Z DD 0ffffffffH
	DD	FLAT:__unwindfunclet$??$_Emplace@ABQAUSObjectInstance@CArea@@@?$_Tree@V?$_Tset_traits@PAUSObjectInstance@CArea@@U?$less@PAUSObjectInstance@CArea@@@std@@V?$allocator@PAUSObjectInstance@CArea@@@4@$0A@@std@@@std@@IAE?AU?$pair@PAU?$_Tree_node@PAUSObjectInstance@CArea@@PAX@std@@_N@1@ABQAUSObjectInstance@CArea@@@Z$2
__ehfuncinfo$??$_Emplace@ABQAUSObjectInstance@CArea@@@?$_Tree@V?$_Tset_traits@PAUSObjectInstance@CArea@@U?$less@PAUSObjectInstance@CArea@@@std@@V?$allocator@PAUSObjectInstance@CArea@@@4@$0A@@std@@@std@@IAE?AU?$pair@PAU?$_Tree_node@PAUSObjectInstance@CArea@@PAX@std@@_N@1@ABQAUSObjectInstance@CArea@@@Z DD 019930522H
	DD	01H
	DD	FLAT:__unwindtable$??$_Emplace@ABQAUSObjectInstance@CArea@@@?$_Tree@V?$_Tset_traits@PAUSObjectInstance@CArea@@U?$less@PAUSObjectInstance@CArea@@@std@@V?$allocator@PAUSObjectInstance@CArea@@@4@$0A@@std@@@std@@IAE?AU?$pair@PAU?$_Tree_node@PAUSObjectInstance@CArea@@PAX@std@@_N@1@ABQAUSObjectInstance@CArea@@@Z
	DD	2 DUP(00H)
	DD	2 DUP(00H)
	DD	00H
	DD	01H
xdata$x	ENDS
;	COMDAT xdata$x
xdata$x	SEGMENT
__unwindtable$??$_Emplace@ABH@?$_Tree@V?$_Tset_traits@HU?$less@H@std@@V?$allocator@H@2@$0A@@std@@@std@@IAE?AU?$pair@PAU?$_Tree_node@HPAX@std@@_N@1@ABH@Z DD 0ffffffffH
	DD	FLAT:__unwindfunclet$??$_Emplace@ABH@?$_Tree@V?$_Tset_traits@HU?$less@H@std@@V?$allocator@H@2@$0A@@std@@@std@@IAE?AU?$pair@PAU?$_Tree_node@HPAX@std@@_N@1@ABH@Z$2
__ehfuncinfo$??$_Emplace@ABH@?$_Tree@V?$_Tset_traits@HU?$less@H@std@@V?$allocator@H@2@$0A@@std@@@std@@IAE?AU?$pair@PAU?$_Tree_node@HPAX@std@@_N@1@ABH@Z DD 019930522H
	DD	01H
	DD	FLAT:__unwindtable$??$_Emplace@ABH@?$_Tree@V?$_Tset_traits@HU?$less@H@std@@V?$allocator@H@2@$0A@@std@@@std@@IAE?AU?$pair@PAU?$_Tree_node@HPAX@std@@_N@1@ABH@Z
	DD	2 DUP(00H)
	DD	2 DUP(00H)
	DD	00H
	DD	01H
xdata$x	ENDS
;	COMDAT xdata$x
xdata$x	SEGMENT
__unwindtable$??$_Emplace@U?$pair@$$CBKPAVCEffectInstance@@@std@@@?$_Tree@V?$_Tmap_traits@KPAVCEffectInstance@@U?$less@K@std@@V?$allocator@U?$pair@$$CBKPAVCEffectInstance@@@std@@@3@$0A@@std@@@std@@IAE?AU?$pair@PAU?$_Tree_node@U?$pair@$$CBKPAVCEffectInstance@@@std@@PAX@std@@_N@1@$$QAU?$pair@$$CBKPAVCEffectInstance@@@1@@Z DD 0ffffffffH
	DD	FLAT:__unwindfunclet$??$_Emplace@U?$pair@$$CBKPAVCEffectInstance@@@std@@@?$_Tree@V?$_Tmap_traits@KPAVCEffectInstance@@U?$less@K@std@@V?$allocator@U?$pair@$$CBKPAVCEffectInstance@@@std@@@3@$0A@@std@@@std@@IAE?AU?$pair@PAU?$_Tree_node@U?$pair@$$CBKPAVCEffectInstance@@@std@@PAX@std@@_N@1@$$QAU?$pair@$$CBKPAVCEffectInstance@@@1@@Z$2
__ehfuncinfo$??$_Emplace@U?$pair@$$CBKPAVCEffectInstance@@@std@@@?$_Tree@V?$_Tmap_traits@KPAVCEffectInstance@@U?$less@K@std@@V?$allocator@U?$pair@$$CBKPAVCEffectInstance@@@std@@@3@$0A@@std@@@std@@IAE?AU?$pair@PAU?$_Tree_node@U?$pair@$$CBKPAVCEffectInstance@@@std@@PAX@std@@_N@1@$$QAU?$pair@$$CBKPAVCEffectInstance@@@1@@Z DD 019930522H
	DD	01H
	DD	FLAT:__unwindtable$??$_Emplace@U?$pair@$$CBKPAVCEffectInstance@@@std@@@?$_Tree@V?$_Tmap_traits@KPAVCEffectInstance@@U?$less@K@std@@V?$allocator@U?$pair@$$CBKPAVCEffectInstance@@@std@@@3@$0A@@std@@@std@@IAE?AU?$pair@PAU?$_Tree_node@U?$pair@$$CBKPAVCEffectInstance@@@std@@PAX@std@@_N@1@$$QAU?$pair@$$CBKPAVCEffectInstance@@@1@@Z
	DD	2 DUP(00H)
	DD	2 DUP(00H)
	DD	00H
	DD	01H
xdata$x	ENDS
;	COMDAT xdata$x
xdata$x	SEGMENT
__unwindtable$??$_Emplace@U?$pair@QAVCGraphicThingInstance@@K@std@@@?$_Tree@V?$_Tmap_traits@PAVCGraphicThingInstance@@KU?$less@PAVCGraphicThingInstance@@@std@@V?$allocator@U?$pair@QAVCGraphicThingInstance@@K@std@@@3@$0A@@std@@@std@@IAE?AU?$pair@PAU?$_Tree_node@U?$pair@QAVCGraphicThingInstance@@K@std@@PAX@std@@_N@1@$$QAU?$pair@QAVCGraphicThingInstance@@K@1@@Z DD 0ffffffffH
	DD	FLAT:__unwindfunclet$??$_Emplace@U?$pair@QAVCGraphicThingInstance@@K@std@@@?$_Tree@V?$_Tmap_traits@PAVCGraphicThingInstance@@KU?$less@PAVCGraphicThingInstance@@@std@@V?$allocator@U?$pair@QAVCGraphicThingInstance@@K@std@@@3@$0A@@std@@@std@@IAE?AU?$pair@PAU?$_Tree_node@U?$pair@QAVCGraphicThingInstance@@K@std@@PAX@std@@_N@1@$$QAU?$pair@QAVCGraphicThingInstance@@K@1@@Z$2
__ehfuncinfo$??$_Emplace@U?$pair@QAVCGraphicThingInstance@@K@std@@@?$_Tree@V?$_Tmap_traits@PAVCGraphicThingInstance@@KU?$less@PAVCGraphicThingInstance@@@std@@V?$allocator@U?$pair@QAVCGraphicThingInstance@@K@std@@@3@$0A@@std@@@std@@IAE?AU?$pair@PAU?$_Tree_node@U?$pair@QAVCGraphicThingInstance@@K@std@@PAX@std@@_N@1@$$QAU?$pair@QAVCGraphicThingInstance@@K@1@@Z DD 019930522H
	DD	01H
	DD	FLAT:__unwindtable$??$_Emplace@U?$pair@QAVCGraphicThingInstance@@K@std@@@?$_Tree@V?$_Tmap_traits@PAVCGraphicThingInstance@@KU?$less@PAVCGraphicThingInstance@@@std@@V?$allocator@U?$pair@QAVCGraphicThingInstance@@K@std@@@3@$0A@@std@@@std@@IAE?AU?$pair@PAU?$_Tree_node@U?$pair@QAVCGraphicThingInstance@@K@std@@PAX@std@@_N@1@$$QAU?$pair@QAVCGraphicThingInstance@@K@1@@Z
	DD	2 DUP(00H)
	DD	2 DUP(00H)
	DD	00H
	DD	01H
xdata$x	ENDS
;	COMDAT xdata$x
xdata$x	SEGMENT
__unwindtable$??$_Try_emplace@V?$basic_string@DU?$char_traits@D@std@@V?$allocator@D@2@@std@@$$V@?$map@V?$basic_string@DU?$char_traits@D@std@@V?$allocator@D@2@@std@@V?$vector@V?$basic_string@DU?$char_traits@D@std@@V?$allocator@D@2@@std@@V?$allocator@V?$basic_string@DU?$char_traits@D@std@@V?$allocator@D@2@@std@@@2@@2@U?$less@V?$basic_string@DU?$char_traits@D@std@@V?$allocator@D@2@@std@@@2@V?$allocator@U?$pair@$$CBV?$basic_string@DU?$char_traits@D@std@@V?$allocator@D@2@@std@@V?$vector@V?$basic_string@DU?$char_traits@D@std@@V?$allocator@D@2@@std@@V?$allocator@V?$basic_string@DU?$char_traits@D@std@@V?$allocator@D@2@@std@@@2@@2@@std@@@2@@std@@AAE?AU?$pair@PAU?$_Tree_node@U?$pair@$$CBV?$basic_string@DU?$char_traits@D@std@@V?$allocator@D@2@@std@@V?$vector@V?$basic_string@DU?$char_traits@D@std@@V?$allocator@D@2@@std@@V?$allocator@V?$basic_string@DU?$char_traits@D@std@@V?$allocator@D@2@@std@@@2@@2@@std@@PAX@std@@_N@1@$$QAV?$basic_string@DU?$char_traits@D@std@@V?$allocator@D@2@@1@@Z DD 0ffffffffH
	DD	FLAT:__unwindfunclet$??$_Try_emplace@V?$basic_string@DU?$char_traits@D@std@@V?$allocator@D@2@@std@@$$V@?$map@V?$basic_string@DU?$char_traits@D@std@@V?$allocator@D@2@@std@@V?$vector@V?$basic_string@DU?$char_traits@D@std@@V?$allocator@D@2@@std@@V?$allocator@V?$basic_string@DU?$char_traits@D@std@@V?$allocator@D@2@@std@@@2@@2@U?$less@V?$basic_string@DU?$char_traits@D@std@@V?$allocator@D@2@@std@@@2@V?$allocator@U?$pair@$$CBV?$basic_string@DU?$char_traits@D@std@@V?$allocator@D@2@@std@@V?$vector@V?$basic_string@DU?$char_traits@D@std@@V?$allocator@D@2@@std@@V?$allocator@V?$basic_string@DU?$char_traits@D@std@@V?$allocator@D@2@@std@@@2@@2@@std@@@2@@std@@AAE?AU?$pair@PAU?$_Tree_node@U?$pair@$$CBV?$basic_string@DU?$char_traits@D@std@@V?$allocator@D@2@@std@@V?$vector@V?$basic_string@DU?$char_traits@D@std@@V?$allocator@D@2@@std@@V?$allocator@V?$basic_string@DU?$char_traits@D@std@@V?$allocator@D@2@@std@@@2@@2@@std@@PAX@std@@_N@1@$$QAV?$basic_string@DU?$char_traits@D@std@@V?$allocator@D@2@@1@@Z$2
__ehfuncinfo$??$_Try_emplace@V?$basic_string@DU?$char_traits@D@std@@V?$allocator@D@2@@std@@$$V@?$map@V?$basic_string@DU?$char_traits@D@std@@V?$allocator@D@2@@std@@V?$vector@V?$basic_string@DU?$char_traits@D@std@@V?$allocator@D@2@@std@@V?$allocator@V?$basic_string@DU?$char_traits@D@std@@V?$allocator@D@2@@std@@@2@@2@U?$less@V?$basic_string@DU?$char_traits@D@std@@V?$allocator@D@2@@std@@@2@V?$allocator@U?$pair@$$CBV?$basic_string@DU?$char_traits@D@std@@V?$allocator@D@2@@std@@V?$vector@V?$basic_string@DU?$char_traits@D@std@@V?$allocator@D@2@@std@@V?$allocator@V?$basic_string@DU?$char_traits@D@std@@V?$allocator@D@2@@std@@@2@@2@@std@@@2@@std@@AAE?AU?$pair@PAU?$_Tree_node@U?$pair@$$CBV?$basic_string@DU?$char_traits@D@std@@V?$allocator@D@2@@std@@V?$vector@V?$basic_string@DU?$char_traits@D@std@@V?$allocator@D@2@@std@@V?$allocator@V?$basic_string@DU?$char_traits@D@std@@V?$allocator@D@2@@std@@@2@@2@@std@@PAX@std@@_N@1@$$QAV?$basic_string@DU?$char_traits@D@std@@V?$allocator@D@2@@1@@Z DD 019930522H
	DD	01H
	DD	FLAT:__unwindtable$??$_Try_emplace@V?$basic_string@DU?$char_traits@D@std@@V?$allocator@D@2@@std@@$$V@?$map@V?$basic_string@DU?$char_traits@D@std@@V?$allocator@D@2@@std@@V?$vector@V?$basic_string@DU?$char_traits@D@std@@V?$allocator@D@2@@std@@V?$allocator@V?$basic_string@DU?$char_traits@D@std@@V?$allocator@D@2@@std@@@2@@2@U?$less@V?$basic_string@DU?$char_traits@D@std@@V?$allocator@D@2@@std@@@2@V?$allocator@U?$pair@$$CBV?$basic_string@DU?$char_traits@D@std@@V?$allocator@D@2@@std@@V?$vector@V?$basic_string@DU?$char_traits@D@std@@V?$allocator@D@2@@std@@V?$allocator@V?$basic_string@DU?$char_traits@D@std@@V?$allocator@D@2@@std@@@2@@2@@std@@@2@@std@@AAE?AU?$pair@PAU?$_Tree_node@U?$pair@$$CBV?$basic_string@DU?$char_traits@D@std@@V?$allocator@D@2@@std@@V?$vector@V?$basic_string@DU?$char_traits@D@std@@V?$allocator@D@2@@std@@V?$allocator@V?$basic_string@DU?$char_traits@D@std@@V?$allocator@D@2@@std@@@2@@2@@std@@PAX@std@@_N@1@$$QAV?$basic_string@DU?$char_traits@D@std@@V?$allocator@D@2@@1@@Z
	DD	2 DUP(00H)
	DD	2 DUP(00H)
	DD	00H
	DD	01H
xdata$x	ENDS
;	COMDAT xdata$x
xdata$x	SEGMENT
__unwindtable$??$insert@$0A@$0A@@?$_Tree@V?$_Tset_traits@PAUSObjectInstance@CArea@@U?$less@PAUSObjectInstance@CArea@@@std@@V?$allocator@PAUSObjectInstance@CArea@@@4@$0A@@std@@@std@@QAE?AU?$pair@V?$_Tree_const_iterator@V?$_Tree_val@U?$_Tree_simple_types@PAUSObjectInstance@CArea@@@std@@@std@@@std@@_N@1@ABQAUSObjectInstance@CArea@@@Z DD 0ffffffffH
	DD	FLAT:__unwindfunclet$??$insert@$0A@$0A@@?$_Tree@V?$_Tset_traits@PAUSObjectInstance@CArea@@U?$less@PAUSObjectInstance@CArea@@@std@@V?$allocator@PAUSObjectInstance@CArea@@@4@$0A@@std@@@std@@QAE?AU?$pair@V?$_Tree_const_iterator@V?$_Tree_val@U?$_Tree_simple_types@PAUSObjectInstance@CArea@@@std@@@std@@@std@@_N@1@ABQAUSObjectInstance@CArea@@@Z$2
__ehfuncinfo$??$insert@$0A@$0A@@?$_Tree@V?$_Tset_traits@PAUSObjectInstance@CArea@@U?$less@PAUSObjectInstance@CArea@@@std@@V?$allocator@PAUSObjectInstance@CArea@@@4@$0A@@std@@@std@@QAE?AU?$pair@V?$_Tree_const_iterator@V?$_Tree_val@U?$_Tree_simple_types@PAUSObjectInstance@CArea@@@std@@@std@@@std@@_N@1@ABQAUSObjectInstance@CArea@@@Z DD 019930522H
	DD	01H
	DD	FLAT:__unwindtable$??$insert@$0A@$0A@@?$_Tree@V?$_Tset_traits@PAUSObjectInstance@CArea@@U?$less@PAUSObjectInstance@CArea@@@std@@V?$allocator@PAUSObjectInstance@CArea@@@4@$0A@@std@@@std@@QAE?AU?$pair@V?$_Tree_const_iterator@V?$_Tree_val@U?$_Tree_simple_types@PAUSObjectInstance@CArea@@@std@@@std@@@std@@_N@1@ABQAUSObjectInstance@CArea@@@Z
	DD	2 DUP(00H)
	DD	2 DUP(00H)
	DD	00H
	DD	01H
xdata$x	ENDS
;	COMDAT xdata$x
xdata$x	SEGMENT
__unwindtable$??$insert@$0A@$0A@@?$_Tree@V?$_Tset_traits@HU?$less@H@std@@V?$allocator@H@2@$0A@@std@@@std@@QAE?AU?$pair@V?$_Tree_const_iterator@V?$_Tree_val@U?$_Tree_simple_types@H@std@@@std@@@std@@_N@1@ABH@Z DD 0ffffffffH
	DD	FLAT:__unwindfunclet$??$insert@$0A@$0A@@?$_Tree@V?$_Tset_traits@HU?$less@H@std@@V?$allocator@H@2@$0A@@std@@@std@@QAE?AU?$pair@V?$_Tree_const_iterator@V?$_Tree_val@U?$_Tree_simple_types@H@std@@@std@@@std@@_N@1@ABH@Z$2
__ehfuncinfo$??$insert@$0A@$0A@@?$_Tree@V?$_Tset_traits@HU?$less@H@std@@V?$allocator@H@2@$0A@@std@@@std@@QAE?AU?$pair@V?$_Tree_const_iterator@V?$_Tree_val@U?$_Tree_simple_types@H@std@@@std@@@std@@_N@1@ABH@Z DD 019930522H
	DD	01H
	DD	FLAT:__unwindtable$??$insert@$0A@$0A@@?$_Tree@V?$_Tset_traits@HU?$less@H@std@@V?$allocator@H@2@$0A@@std@@@std@@QAE?AU?$pair@V?$_Tree_const_iterator@V?$_Tree_val@U?$_Tree_simple_types@H@std@@@std@@@std@@_N@1@ABH@Z
	DD	2 DUP(00H)
	DD	2 DUP(00H)
	DD	00H
	DD	01H
xdata$x	ENDS
;	COMDAT xdata$x
xdata$x	SEGMENT
__unwindtable$??$insert@$0A@$0A@@?$_Tree@V?$_Tmap_traits@KPAVCEffectInstance@@U?$less@K@std@@V?$allocator@U?$pair@$$CBKPAVCEffectInstance@@@std@@@3@$0A@@std@@@std@@QAE?AU?$pair@V?$_Tree_iterator@V?$_Tree_val@U?$_Tree_simple_types@U?$pair@$$CBKPAVCEffectInstance@@@std@@@std@@@std@@@std@@_N@1@$$QAU?$pair@$$CBKPAVCEffectInstance@@@1@@Z DD 0ffffffffH
	DD	FLAT:__unwindfunclet$??$insert@$0A@$0A@@?$_Tree@V?$_Tmap_traits@KPAVCEffectInstance@@U?$less@K@std@@V?$allocator@U?$pair@$$CBKPAVCEffectInstance@@@std@@@3@$0A@@std@@@std@@QAE?AU?$pair@V?$_Tree_iterator@V?$_Tree_val@U?$_Tree_simple_types@U?$pair@$$CBKPAVCEffectInstance@@@std@@@std@@@std@@@std@@_N@1@$$QAU?$pair@$$CBKPAVCEffectInstance@@@1@@Z$2
__ehfuncinfo$??$insert@$0A@$0A@@?$_Tree@V?$_Tmap_traits@KPAVCEffectInstance@@U?$less@K@std@@V?$allocator@U?$pair@$$CBKPAVCEffectInstance@@@std@@@3@$0A@@std@@@std@@QAE?AU?$pair@V?$_Tree_iterator@V?$_Tree_val@U?$_Tree_simple_types@U?$pair@$$CBKPAVCEffectInstance@@@std@@@std@@@std@@@std@@_N@1@$$QAU?$pair@$$CBKPAVCEffectInstance@@@1@@Z DD 019930522H
	DD	01H
	DD	FLAT:__unwindtable$??$insert@$0A@$0A@@?$_Tree@V?$_Tmap_traits@KPAVCEffectInstance@@U?$less@K@std@@V?$allocator@U?$pair@$$CBKPAVCEffectInstance@@@std@@@3@$0A@@std@@@std@@QAE?AU?$pair@V?$_Tree_iterator@V?$_Tree_val@U?$_Tree_simple_types@U?$pair@$$CBKPAVCEffectInstance@@@std@@@std@@@std@@@std@@_N@1@$$QAU?$pair@$$CBKPAVCEffectInstance@@@1@@Z
	DD	2 DUP(00H)
	DD	2 DUP(00H)
	DD	00H
	DD	01H
xdata$x	ENDS
;	COMDAT xdata$x
xdata$x	SEGMENT
__unwindtable$??$insert@$0A@$0A@@?$_Tree@V?$_Tmap_traits@PAVCGraphicThingInstance@@KU?$less@PAVCGraphicThingInstance@@@std@@V?$allocator@U?$pair@QAVCGraphicThingInstance@@K@std@@@3@$0A@@std@@@std@@QAE?AU?$pair@V?$_Tree_iterator@V?$_Tree_val@U?$_Tree_simple_types@U?$pair@QAVCGraphicThingInstance@@K@std@@@std@@@std@@@std@@_N@1@$$QAU?$pair@QAVCGraphicThingInstance@@K@1@@Z DD 0ffffffffH
	DD	FLAT:__unwindfunclet$??$insert@$0A@$0A@@?$_Tree@V?$_Tmap_traits@PAVCGraphicThingInstance@@KU?$less@PAVCGraphicThingInstance@@@std@@V?$allocator@U?$pair@QAVCGraphicThingInstance@@K@std@@@3@$0A@@std@@@std@@QAE?AU?$pair@V?$_Tree_iterator@V?$_Tree_val@U?$_Tree_simple_types@U?$pair@QAVCGraphicThingInstance@@K@std@@@std@@@std@@@std@@_N@1@$$QAU?$pair@QAVCGraphicThingInstance@@K@1@@Z$2
__ehfuncinfo$??$insert@$0A@$0A@@?$_Tree@V?$_Tmap_traits@PAVCGraphicThingInstance@@KU?$less@PAVCGraphicThingInstance@@@std@@V?$allocator@U?$pair@QAVCGraphicThingInstance@@K@std@@@3@$0A@@std@@@std@@QAE?AU?$pair@V?$_Tree_iterator@V?$_Tree_val@U?$_Tree_simple_types@U?$pair@QAVCGraphicThingInstance@@K@std@@@std@@@std@@@std@@_N@1@$$QAU?$pair@QAVCGraphicThingInstance@@K@1@@Z DD 019930522H
	DD	01H
	DD	FLAT:__unwindtable$??$insert@$0A@$0A@@?$_Tree@V?$_Tmap_traits@PAVCGraphicThingInstance@@KU?$less@PAVCGraphicThingInstance@@@std@@V?$allocator@U?$pair@QAVCGraphicThingInstance@@K@std@@@3@$0A@@std@@@std@@QAE?AU?$pair@V?$_Tree_iterator@V?$_Tree_val@U?$_Tree_simple_types@U?$pair@QAVCGraphicThingInstance@@K@std@@@std@@@std@@@std@@_N@1@$$QAU?$pair@QAVCGraphicThingInstance@@K@1@@Z
	DD	2 DUP(00H)
	DD	2 DUP(00H)
	DD	00H
	DD	01H
xdata$x	ENDS
;	COMDAT xdata$x
xdata$x	SEGMENT
__unwindtable$?Alloc@?$CDynamicPool@VCArea@@@@QAEPAVCArea@@XZ DD 0ffffffffH
	DD	FLAT:__unwindfunclet$?Alloc@?$CDynamicPool@VCArea@@@@QAEPAVCArea@@XZ$0
__ehfuncinfo$?Alloc@?$CDynamicPool@VCArea@@@@QAEPAVCArea@@XZ DD 019930522H
	DD	01H
	DD	FLAT:__unwindtable$?Alloc@?$CDynamicPool@VCArea@@@@QAEPAVCArea@@XZ
	DD	2 DUP(00H)
	DD	2 DUP(00H)
	DD	00H
	DD	01H
xdata$x	ENDS
;	COMDAT xdata$x
xdata$x	SEGMENT
__unwindtable$?Alloc@?$CDynamicPool@VCDungeonBlock@@@@QAEPAVCDungeonBlock@@XZ DD 0ffffffffH
	DD	FLAT:__unwindfunclet$?Alloc@?$CDynamicPool@VCDungeonBlock@@@@QAEPAVCDungeonBlock@@XZ$0
__ehfuncinfo$?Alloc@?$CDynamicPool@VCDungeonBlock@@@@QAEPAVCDungeonBlock@@XZ DD 019930522H
	DD	01H
	DD	FLAT:__unwindtable$?Alloc@?$CDynamicPool@VCDungeonBlock@@@@QAEPAVCDungeonBlock@@XZ
	DD	2 DUP(00H)
	DD	2 DUP(00H)
	DD	00H
	DD	01H
xdata$x	ENDS
;	COMDAT xdata$x
xdata$x	SEGMENT
__unwindtable$?Alloc@?$CDynamicPool@USAmbienceInstance@CArea@@@@QAEPAUSAmbienceInstance@CArea@@XZ DD 0ffffffffH
	DD	FLAT:__unwindfunclet$?Alloc@?$CDynamicPool@USAmbienceInstance@CArea@@@@QAEPAUSAmbienceInstance@CArea@@XZ$0
__ehfuncinfo$?Alloc@?$CDynamicPool@USAmbienceInstance@CArea@@@@QAEPAUSAmbienceInstance@CArea@@XZ DD 019930522H
	DD	01H
	DD	FLAT:__unwindtable$?Alloc@?$CDynamicPool@USAmbienceInstance@CArea@@@@QAEPAUSAmbienceInstance@CArea@@XZ
	DD	2 DUP(00H)
	DD	2 DUP(00H)
	DD	00H
	DD	01H
xdata$x	ENDS
;	COMDAT xdata$x
xdata$x	SEGMENT
__unwindtable$?Alloc@?$CDynamicPool@VCAttributeInstance@@@@QAEPAVCAttributeInstance@@XZ DD 0ffffffffH
	DD	FLAT:__unwindfunclet$?Alloc@?$CDynamicPool@VCAttributeInstance@@@@QAEPAVCAttributeInstance@@XZ$0
__ehfuncinfo$?Alloc@?$CDynamicPool@VCAttributeInstance@@@@QAEPAVCAttributeInstance@@XZ DD 019930522H
	DD	01H
	DD	FLAT:__unwindtable$?Alloc@?$CDynamicPool@VCAttributeInstance@@@@QAEPAVCAttributeInstance@@XZ
	DD	2 DUP(00H)
	DD	2 DUP(00H)
	DD	00H
	DD	01H
xdata$x	ENDS
;	COMDAT xdata$x
xdata$x	SEGMENT
__unwindtable$??A?$map@V?$basic_string@DU?$char_traits@D@std@@V?$allocator@D@2@@std@@V?$vector@V?$basic_string@DU?$char_traits@D@std@@V?$allocator@D@2@@std@@V?$allocator@V?$basic_string@DU?$char_traits@D@std@@V?$allocator@D@2@@std@@@2@@2@U?$less@V?$basic_string@DU?$char_traits@D@std@@V?$allocator@D@2@@std@@@2@V?$allocator@U?$pair@$$CBV?$basic_string@DU?$char_traits@D@std@@V?$allocator@D@2@@std@@V?$vector@V?$basic_string@DU?$char_traits@D@std@@V?$allocator@D@2@@std@@V?$allocator@V?$basic_string@DU?$char_traits@D@std@@V?$allocator@D@2@@std@@@2@@2@@std@@@2@@std@@QAEAAV?$vector@V?$basic_string@DU?$char_traits@D@std@@V?$allocator@D@2@@std@@V?$allocator@V?$basic_string@DU?$char_traits@D@std@@V?$allocator@D@2@@std@@@2@@1@$$QAV?$basic_string@DU?$char_traits@D@std@@V?$allocator@D@2@@1@@Z DD 0ffffffffH
	DD	FLAT:__unwindfunclet$??A?$map@V?$basic_string@DU?$char_traits@D@std@@V?$allocator@D@2@@std@@V?$vector@V?$basic_string@DU?$char_traits@D@std@@V?$allocator@D@2@@std@@V?$allocator@V?$basic_string@DU?$char_traits@D@std@@V?$allocator@D@2@@std@@@2@@2@U?$less@V?$basic_string@DU?$char_traits@D@std@@V?$allocator@D@2@@std@@@2@V?$allocator@U?$pair@$$CBV?$basic_string@DU?$char_traits@D@std@@V?$allocator@D@2@@std@@V?$vector@V?$basic_string@DU?$char_traits@D@std@@V?$allocator@D@2@@std@@V?$allocator@V?$basic_string@DU?$char_traits@D@std@@V?$allocator@D@2@@std@@@2@@2@@std@@@2@@std@@QAEAAV?$vector@V?$basic_string@DU?$char_traits@D@std@@V?$allocator@D@2@@std@@V?$allocator@V?$basic_string@DU?$char_traits@D@std@@V?$allocator@D@2@@std@@@2@@1@$$QAV?$basic_string@DU?$char_traits@D@std@@V?$allocator@D@2@@1@@Z$2
__ehfuncinfo$??A?$map@V?$basic_string@DU?$char_traits@D@std@@V?$allocator@D@2@@std@@V?$vector@V?$basic_string@DU?$char_traits@D@std@@V?$allocator@D@2@@std@@V?$allocator@V?$basic_string@DU?$char_traits@D@std@@V?$allocator@D@2@@std@@@2@@2@U?$less@V?$basic_string@DU?$char_traits@D@std@@V?$allocator@D@2@@std@@@2@V?$allocator@U?$pair@$$CBV?$basic_string@DU?$char_traits@D@std@@V?$allocator@D@2@@std@@V?$vector@V?$basic_string@DU?$char_traits@D@std@@V?$allocator@D@2@@std@@V?$allocator@V?$basic_string@DU?$char_traits@D@std@@V?$allocator@D@2@@std@@@2@@2@@std@@@2@@std@@QAEAAV?$vector@V?$basic_string@DU?$char_traits@D@std@@V?$allocator@D@2@@std@@V?$allocator@V?$basic_string@DU?$char_traits@D@std@@V?$allocator@D@2@@std@@@2@@1@$$QAV?$basic_string@DU?$char_traits@D@std@@V?$allocator@D@2@@1@@Z DD 019930522H
	DD	01H
	DD	FLAT:__unwindtable$??A?$map@V?$basic_string@DU?$char_traits@D@std@@V?$allocator@D@2@@std@@V?$vector@V?$basic_string@DU?$char_traits@D@std@@V?$allocator@D@2@@std@@V?$allocator@V?$basic_string@DU?$char_traits@D@std@@V?$allocator@D@2@@std@@@2@@2@U?$less@V?$basic_string@DU?$char_traits@D@std@@V?$allocator@D@2@@std@@@2@V?$allocator@U?$pair@$$CBV?$basic_string@DU?$char_traits@D@std@@V?$allocator@D@2@@std@@V?$vector@V?$basic_string@DU?$char_traits@D@std@@V?$allocator@D@2@@std@@V?$allocator@V?$basic_string@DU?$char_traits@D@std@@V?$allocator@D@2@@std@@@2@@2@@std@@@2@@std@@QAEAAV?$vector@V?$basic_string@DU?$char_traits@D@std@@V?$allocator@D@2@@std@@V?$allocator@V?$basic_string@DU?$char_traits@D@std@@V?$allocator@D@2@@std@@@2@@1@$$QAV?$basic_string@DU?$char_traits@D@std@@V?$allocator@D@2@@1@@Z
	DD	2 DUP(00H)
	DD	2 DUP(00H)
	DD	00H
	DD	01H
xdata$x	ENDS
;	COMDAT xdata$x
xdata$x	SEGMENT
__unwindtable$?New@CArea@@SAPAV1@XZ DD 0ffffffffH
	DD	FLAT:__unwindfunclet$?New@CArea@@SAPAV1@XZ$0
__ehfuncinfo$?New@CArea@@SAPAV1@XZ DD 019930522H
	DD	01H
	DD	FLAT:__unwindtable$?New@CArea@@SAPAV1@XZ
	DD	2 DUP(00H)
	DD	2 DUP(00H)
	DD	00H
	DD	01H
xdata$x	ENDS
;	COMDAT xdata$x
xdata$x	SEGMENT
__unwindtable$?__SetObjectInstance_SetDungeonBlock@CArea@@IAEXPAUSObjectInstance@1@PBUSObjectData@1@PAVCProperty@@@Z DD 0ffffffffH
	DD	FLAT:__unwindfunclet$?__SetObjectInstance_SetDungeonBlock@CArea@@IAEXPAUSObjectInstance@1@PBUSObjectData@1@PAVCProperty@@@Z$0
	DD	00H
	DD	FLAT:__unwindfunclet$?__SetObjectInstance_SetDungeonBlock@CArea@@IAEXPAUSObjectInstance@1@PBUSObjectData@1@PAVCProperty@@@Z$5
__ehfuncinfo$?__SetObjectInstance_SetDungeonBlock@CArea@@IAEXPAUSObjectInstance@1@PBUSObjectData@1@PAVCProperty@@@Z DD 019930522H
	DD	02H
	DD	FLAT:__unwindtable$?__SetObjectInstance_SetDungeonBlock@CArea@@IAEXPAUSObjectInstance@1@PBUSObjectData@1@PAVCProperty@@@Z
	DD	2 DUP(00H)
	DD	2 DUP(00H)
	DD	00H
	DD	01H
xdata$x	ENDS
;	COMDAT xdata$x
xdata$x	SEGMENT
__unwindtable$?__SetObjectInstance_SetAmbience@CArea@@IAEXPAUSObjectInstance@1@PBUSObjectData@1@PAVCProperty@@@Z DD 0ffffffffH
	DD	FLAT:__unwindfunclet$?__SetObjectInstance_SetAmbience@CArea@@IAEXPAUSObjectInstance@1@PBUSObjectData@1@PAVCProperty@@@Z$0
__ehfuncinfo$?__SetObjectInstance_SetAmbience@CArea@@IAEXPAUSObjectInstance@1@PBUSObjectData@1@PAVCProperty@@@Z DD 019930522H
	DD	01H
	DD	FLAT:__unwindtable$?__SetObjectInstance_SetAmbience@CArea@@IAEXPAUSObjectInstance@1@PBUSObjectData@1@PAVCProperty@@@Z
	DD	2 DUP(00H)
	DD	2 DUP(00H)
	DD	00H
	DD	01H
xdata$x	ENDS
;	COMDAT xdata$x
xdata$x	SEGMENT
__unwindtable$?__SetObjectInstance_SetEffect@CArea@@IAEXPAUSObjectInstance@1@PBUSObjectData@1@PAVCProperty@@@Z DD 0ffffffffH
	DD	FLAT:__unwindfunclet$?__SetObjectInstance_SetEffect@CArea@@IAEXPAUSObjectInstance@1@PBUSObjectData@1@PAVCProperty@@@Z$0
	DD	00H
	DD	FLAT:__unwindfunclet$?__SetObjectInstance_SetEffect@CArea@@IAEXPAUSObjectInstance@1@PBUSObjectData@1@PAVCProperty@@@Z$6
__ehfuncinfo$?__SetObjectInstance_SetEffect@CArea@@IAEXPAUSObjectInstance@1@PBUSObjectData@1@PAVCProperty@@@Z DD 019930522H
	DD	02H
	DD	FLAT:__unwindtable$?__SetObjectInstance_SetEffect@CArea@@IAEXPAUSObjectInstance@1@PBUSObjectData@1@PAVCProperty@@@Z
	DD	2 DUP(00H)
	DD	2 DUP(00H)
	DD	00H
	DD	01H
xdata$x	ENDS
;	COMDAT xdata$x
xdata$x	SEGMENT
__unwindtable$?__SetObjectInstance_SetBuilding@CArea@@IAEXPAUSObjectInstance@1@PBUSObjectData@1@PAVCProperty@@@Z DD 0ffffffffH
	DD	FLAT:__unwindfunclet$?__SetObjectInstance_SetBuilding@CArea@@IAEXPAUSObjectInstance@1@PBUSObjectData@1@PAVCProperty@@@Z$0
	DD	00H
	DD	FLAT:__unwindfunclet$?__SetObjectInstance_SetBuilding@CArea@@IAEXPAUSObjectInstance@1@PBUSObjectData@1@PAVCProperty@@@Z$1
	DD	01H
	DD	FLAT:__unwindfunclet$?__SetObjectInstance_SetBuilding@CArea@@IAEXPAUSObjectInstance@1@PBUSObjectData@1@PAVCProperty@@@Z$2
	DD	02H
	DD	FLAT:__unwindfunclet$?__SetObjectInstance_SetBuilding@CArea@@IAEXPAUSObjectInstance@1@PBUSObjectData@1@PAVCProperty@@@Z$3
__ehfuncinfo$?__SetObjectInstance_SetBuilding@CArea@@IAEXPAUSObjectInstance@1@PBUSObjectData@1@PAVCProperty@@@Z DD 019930522H
	DD	04H
	DD	FLAT:__unwindtable$?__SetObjectInstance_SetBuilding@CArea@@IAEXPAUSObjectInstance@1@PBUSObjectData@1@PAVCProperty@@@Z
	DD	2 DUP(00H)
	DD	2 DUP(00H)
	DD	00H
	DD	01H
xdata$x	ENDS
;	COMDAT xdata$x
xdata$x	SEGMENT
__unwindtable$?__LoadAttribute@CArea@@IAEXPAUSObjectInstance@1@PBD@Z DD 0ffffffffH
	DD	FLAT:__unwindfunclet$?__LoadAttribute@CArea@@IAEXPAUSObjectInstance@1@PBD@Z$2
	DD	0ffffffffH
	DD	FLAT:__unwindfunclet$?__LoadAttribute@CArea@@IAEXPAUSObjectInstance@1@PBD@Z$0
	DD	01H
	DD	FLAT:___std_terminate
	DD	01H
	DD	FLAT:__unwindfunclet$?__LoadAttribute@CArea@@IAEXPAUSObjectInstance@1@PBD@Z$1
__ehfuncinfo$?__LoadAttribute@CArea@@IAEXPAUSObjectInstance@1@PBD@Z DD 019930522H
	DD	04H
	DD	FLAT:__unwindtable$?__LoadAttribute@CArea@@IAEXPAUSObjectInstance@1@PBD@Z
	DD	2 DUP(00H)
	DD	2 DUP(00H)
	DD	00H
	DD	01H
xdata$x	ENDS
;	COMDAT xdata$x
xdata$x	SEGMENT
__unwindtable$?__Load_BuildObjectInstances@CArea@@IAEXXZ DD 0ffffffffH
	DD	FLAT:__unwindfunclet$?__Load_BuildObjectInstances@CArea@@IAEXXZ$3
__ehfuncinfo$?__Load_BuildObjectInstances@CArea@@IAEXXZ DD 019930522H
	DD	01H
	DD	FLAT:__unwindtable$?__Load_BuildObjectInstances@CArea@@IAEXXZ
	DD	2 DUP(00H)
	DD	2 DUP(00H)
	DD	00H
	DD	01H
xdata$x	ENDS
;	COMDAT xdata$x
xdata$x	SEGMENT
__ehfuncinfo$?__Load_LoadAmbience@CArea@@IAE_NPBD@Z DD 019930522H
	DD	0aH
	DD	FLAT:__unwindtable$?__Load_LoadAmbience@CArea@@IAE_NPBD@Z
	DD	2 DUP(00H)
	DD	2 DUP(00H)
	DD	00H
	DD	01H
__unwindtable$?__Load_LoadAmbience@CArea@@IAE_NPBD@Z DD 0ffffffffH
	DD	FLAT:__unwindfunclet$?__Load_LoadAmbience@CArea@@IAE_NPBD@Z$0
	DD	00H
	DD	FLAT:__unwindfunclet$?__Load_LoadAmbience@CArea@@IAE_NPBD@Z$3
	DD	01H
	DD	FLAT:__unwindfunclet$?__Load_LoadAmbience@CArea@@IAE_NPBD@Z$17
	DD	00H
	DD	FLAT:__unwindfunclet$?__Load_LoadAmbience@CArea@@IAE_NPBD@Z$5
	DD	03H
	DD	FLAT:__unwindfunclet$?__Load_LoadAmbience@CArea@@IAE_NPBD@Z$24
	DD	00H
	DD	FLAT:__unwindfunclet$?__Load_LoadAmbience@CArea@@IAE_NPBD@Z$6
	DD	05H
	DD	FLAT:__unwindfunclet$?__Load_LoadAmbience@CArea@@IAE_NPBD@Z$7
	DD	06H
	DD	FLAT:__unwindfunclet$?__Load_LoadAmbience@CArea@@IAE_NPBD@Z$8
	DD	07H
	DD	FLAT:__unwindfunclet$?__Load_LoadAmbience@CArea@@IAE_NPBD@Z$9
	DD	08H
	DD	FLAT:__unwindfunclet$?__Load_LoadAmbience@CArea@@IAE_NPBD@Z$10
xdata$x	ENDS
;	COMDAT xdata$x
xdata$x	SEGMENT
__ehfuncinfo$?__Load_LoadObject@CArea@@IAE_NPBD@Z DD 019930522H
	DD	09H
	DD	FLAT:__unwindtable$?__Load_LoadObject@CArea@@IAE_NPBD@Z
	DD	2 DUP(00H)
	DD	2 DUP(00H)
	DD	00H
	DD	01H
__unwindtable$?__Load_LoadObject@CArea@@IAE_NPBD@Z DD 0ffffffffH
	DD	FLAT:__unwindfunclet$?__Load_LoadObject@CArea@@IAE_NPBD@Z$0
	DD	00H
	DD	FLAT:__unwindfunclet$?__Load_LoadObject@CArea@@IAE_NPBD@Z$3
	DD	01H
	DD	FLAT:__unwindfunclet$?__Load_LoadObject@CArea@@IAE_NPBD@Z$18
	DD	00H
	DD	FLAT:__unwindfunclet$?__Load_LoadObject@CArea@@IAE_NPBD@Z$5
	DD	03H
	DD	FLAT:__unwindfunclet$?__Load_LoadObject@CArea@@IAE_NPBD@Z$25
	DD	00H
	DD	FLAT:__unwindfunclet$?__Load_LoadObject@CArea@@IAE_NPBD@Z$6
	DD	05H
	DD	FLAT:__unwindfunclet$?__Load_LoadObject@CArea@@IAE_NPBD@Z$7
	DD	06H
	DD	FLAT:__unwindfunclet$?__Load_LoadObject@CArea@@IAE_NPBD@Z$8
	DD	07H
	DD	FLAT:__unwindfunclet$?__Load_LoadObject@CArea@@IAE_NPBD@Z$9
xdata$x	ENDS
;	COMDAT xdata$x
xdata$x	SEGMENT
__unwindtable$?RefreshPortal@CArea@@QAEXXZ DD 0ffffffffH
	DD	FLAT:__unwindfunclet$?RefreshPortal@CArea@@QAEXXZ$0
	DD	00H
	DD	FLAT:__unwindfunclet$?RefreshPortal@CArea@@QAEXXZ$4
__ehfuncinfo$?RefreshPortal@CArea@@QAEXXZ DD 019930522H
	DD	02H
	DD	FLAT:__unwindtable$?RefreshPortal@CArea@@QAEXXZ
	DD	2 DUP(00H)
	DD	2 DUP(00H)
	DD	00H
	DD	01H
xdata$x	ENDS
;	COMDAT xdata$x
xdata$x	SEGMENT
__unwindtable$?AddShowingPortalID@CArea@@QAEXH@Z DD 0ffffffffH
	DD	FLAT:__unwindfunclet$?AddShowingPortalID@CArea@@QAEXH@Z$2
__ehfuncinfo$?AddShowingPortalID@CArea@@QAEXH@Z DD 019930522H
	DD	01H
	DD	FLAT:__unwindtable$?AddShowingPortalID@CArea@@QAEXH@Z
	DD	2 DUP(00H)
	DD	2 DUP(00H)
	DD	00H
	DD	01H
xdata$x	ENDS
;	COMDAT xdata$x
xdata$x	SEGMENT
__ehfuncinfo$?Load@CArea@@QAE_NPBD@Z DD 019930522H
	DD	06H
	DD	FLAT:__unwindtable$?Load@CArea@@QAE_NPBD@Z
	DD	2 DUP(00H)
	DD	2 DUP(00H)
	DD	00H
	DD	01H
__unwindtable$?Load@CArea@@QAE_NPBD@Z DD 0ffffffffH
	DD	FLAT:__unwindfunclet$?Load@CArea@@QAE_NPBD@Z$0
	DD	00H
	DD	FLAT:__unwindfunclet$?Load@CArea@@QAE_NPBD@Z$1
	DD	0ffffffffH
	DD	FLAT:__unwindfunclet$?Load@CArea@@QAE_NPBD@Z$1
	DD	02H
	DD	FLAT:__unwindfunclet$?Load@CArea@@QAE_NPBD@Z$2
	DD	03H
	DD	FLAT:__unwindfunclet$?Load@CArea@@QAE_NPBD@Z$3
	DD	02H
	DD	FLAT:__unwindfunclet$?Load@CArea@@QAE_NPBD@Z$3
xdata$x	ENDS
;	COMDAT xdata$x
xdata$x	SEGMENT
__ehfuncinfo$??1CArea@@UAE@XZ DD 019930522H
	DD	00H
	DD	00H
	DD	2 DUP(00H)
	DD	2 DUP(00H)
	DD	00H
	DD	05H
xdata$x	ENDS
;	COMDAT xdata$x
xdata$x	SEGMENT
__ehfuncinfo$??0CArea@@QAE@XZ DD 019930522H
	DD	0cH
	DD	FLAT:__unwindtable$??0CArea@@QAE@XZ
	DD	2 DUP(00H)
	DD	2 DUP(00H)
	DD	00H
	DD	01H
__unwindtable$??0CArea@@QAE@XZ DD 0ffffffffH
	DD	FLAT:__unwindfunclet$??0CArea@@QAE@XZ$0
	DD	00H
	DD	FLAT:__unwindfunclet$??0CArea@@QAE@XZ$1
	DD	01H
	DD	FLAT:__unwindfunclet$??0CArea@@QAE@XZ$2
	DD	02H
	DD	FLAT:__unwindfunclet$??0CArea@@QAE@XZ$3
	DD	03H
	DD	FLAT:__unwindfunclet$??0CArea@@QAE@XZ$4
	DD	04H
	DD	FLAT:__unwindfunclet$??0CArea@@QAE@XZ$5
	DD	05H
	DD	FLAT:__unwindfunclet$??0CArea@@QAE@XZ$6
	DD	06H
	DD	FLAT:__unwindfunclet$??0CArea@@QAE@XZ$7
	DD	07H
	DD	FLAT:__unwindfunclet$??0CArea@@QAE@XZ$8
	DD	08H
	DD	FLAT:__unwindfunclet$??0CArea@@QAE@XZ$9
	DD	09H
	DD	FLAT:__unwindfunclet$??0CArea@@QAE@XZ$10
	DD	0aH
	DD	FLAT:__unwindfunclet$??0CArea@@QAE@XZ$11
xdata$x	ENDS
;	COMDAT xdata$x
xdata$x	SEGMENT
__unwindtable$??$use_facet@V?$ctype@D@std@@@std@@YAABV?$ctype@D@0@ABVlocale@0@@Z DD 0ffffffffH
	DD	FLAT:__unwindfunclet$??$use_facet@V?$ctype@D@std@@@std@@YAABV?$ctype@D@0@ABVlocale@0@@Z$0
	DD	00H
	DD	FLAT:__unwindfunclet$??$use_facet@V?$ctype@D@std@@@std@@YAABV?$ctype@D@0@ABVlocale@0@@Z$1
__ehfuncinfo$??$use_facet@V?$ctype@D@std@@@std@@YAABV?$ctype@D@0@ABVlocale@0@@Z DD 019930522H
	DD	02H
	DD	FLAT:__unwindtable$??$use_facet@V?$ctype@D@std@@@std@@YAABV?$ctype@D@0@ABVlocale@0@@Z
	DD	2 DUP(00H)
	DD	2 DUP(00H)
	DD	00H
	DD	01H
xdata$x	ENDS
;	COMDAT xdata$x
xdata$x	SEGMENT
__ehfuncinfo$?_Getcat@?$ctype@D@std@@SAIPAPBVfacet@locale@2@PBV42@@Z DD 019930522H
	DD	09H
	DD	FLAT:__unwindtable$?_Getcat@?$ctype@D@std@@SAIPAPBVfacet@locale@2@PBV42@@Z
	DD	2 DUP(00H)
	DD	2 DUP(00H)
	DD	00H
	DD	01H
__unwindtable$?_Getcat@?$ctype@D@std@@SAIPAPBVfacet@locale@2@PBV42@@Z DD 0ffffffffH
	DD	FLAT:__unwindfunclet$?_Getcat@?$ctype@D@std@@SAIPAPBVfacet@locale@2@PBV42@@Z$0
	DD	00H
	DD	FLAT:__unwindfunclet$?_Getcat@?$ctype@D@std@@SAIPAPBVfacet@locale@2@PBV42@@Z$2
	DD	01H
	DD	FLAT:__unwindfunclet$?_Getcat@?$ctype@D@std@@SAIPAPBVfacet@locale@2@PBV42@@Z$3
	DD	02H
	DD	FLAT:__unwindfunclet$?_Getcat@?$ctype@D@std@@SAIPAPBVfacet@locale@2@PBV42@@Z$4
	DD	03H
	DD	FLAT:__unwindfunclet$?_Getcat@?$ctype@D@std@@SAIPAPBVfacet@locale@2@PBV42@@Z$5
	DD	04H
	DD	FLAT:__unwindfunclet$?_Getcat@?$ctype@D@std@@SAIPAPBVfacet@locale@2@PBV42@@Z$6
	DD	05H
	DD	FLAT:__unwindfunclet$?_Getcat@?$ctype@D@std@@SAIPAPBVfacet@locale@2@PBV42@@Z$7
	DD	06H
	DD	FLAT:__unwindfunclet$?_Getcat@?$ctype@D@std@@SAIPAPBVfacet@locale@2@PBV42@@Z$8
	DD	0ffffffffH
	DD	FLAT:___std_terminate
xdata$x	ENDS
;	COMDAT xdata$x
xdata$x	SEGMENT
__ehfuncinfo$??0locale@std@@QAE@XZ DD 019930522H
	DD	00H
	DD	00H
	DD	2 DUP(00H)
	DD	2 DUP(00H)
	DD	00H
	DD	05H
xdata$x	ENDS
;	COMDAT xdata$x
xdata$x	SEGMENT
__ehfuncinfo$??1_Locinfo@std@@QAE@XZ DD 019930522H
	DD	00H
	DD	00H
	DD	2 DUP(00H)
	DD	2 DUP(00H)
	DD	00H
	DD	05H
xdata$x	ENDS
;	COMDAT xdata$x
xdata$x	SEGMENT
__ehfuncinfo$??0_Locinfo@std@@QAE@PBD@Z DD 019930522H
	DD	07H
	DD	FLAT:__unwindtable$??0_Locinfo@std@@QAE@PBD@Z
	DD	2 DUP(00H)
	DD	2 DUP(00H)
	DD	00H
	DD	01H
__unwindtable$??0_Locinfo@std@@QAE@PBD@Z DD 0ffffffffH
	DD	FLAT:__unwindfunclet$??0_Locinfo@std@@QAE@PBD@Z$0
	DD	00H
	DD	FLAT:__unwindfunclet$??0_Locinfo@std@@QAE@PBD@Z$1
	DD	01H
	DD	FLAT:__unwindfunclet$??0_Locinfo@std@@QAE@PBD@Z$2
	DD	02H
	DD	FLAT:__unwindfunclet$??0_Locinfo@std@@QAE@PBD@Z$3
	DD	03H
	DD	FLAT:__unwindfunclet$??0_Locinfo@std@@QAE@PBD@Z$4
	DD	04H
	DD	FLAT:__unwindfunclet$??0_Locinfo@std@@QAE@PBD@Z$5
	DD	05H
	DD	FLAT:__unwindfunclet$??0_Locinfo@std@@QAE@PBD@Z$6
xdata$x	ENDS
CRT$XCU	SEGMENT
??ms_AttributeInstancePool$initializer$@CArea@@1P6AXXZA@@3P6AXXZA DD FLAT:??__E?ms_AttributeInstancePool@CArea@@1V?$CDynamicPool@VCAttributeInstance@@@@A@@YAXXZ ; ??ms_AttributeInstancePool$initializer$@CArea@@1P6AXXZA@@3P6AXXZA
CRT$XCU	ENDS
CRT$XCU	SEGMENT
??ms_AmbienceInstancePool$initializer$@CArea@@1P6AXXZA@@3P6AXXZA DD FLAT:??__E?ms_AmbienceInstancePool@CArea@@1V?$CDynamicPool@USAmbienceInstance@CArea@@@@A@@YAXXZ ; ??ms_AmbienceInstancePool$initializer$@CArea@@1P6AXXZA@@3P6AXXZA
CRT$XCU	ENDS
CRT$XCU	SEGMENT
??ms_DungeonBlockInstancePool$initializer$@CArea@@1P6AXXZA@@3P6AXXZA DD FLAT:??__E?ms_DungeonBlockInstancePool@CArea@@1V?$CDynamicPool@VCDungeonBlock@@@@A@@YAXXZ ; ??ms_DungeonBlockInstancePool$initializer$@CArea@@1P6AXXZA@@3P6AXXZA
CRT$XCU	ENDS
CRT$XCU	SEGMENT
??ms_kPool$initializer$@CArea@@2P6AXXZA@@3P6AXXZA DD FLAT:??__E?ms_kPool@CArea@@2V?$CDynamicPool@VCArea@@@@A@@YAXXZ ; ??ms_kPool$initializer$@CArea@@2P6AXXZA@@3P6AXXZA
CRT$XCU	ENDS
;	COMDAT CRT$XCU
CRT$XCU	SEGMENT
??ms_kPool$initializer$@?$CPooledObject@VCHeaderDecorator@NEffectUpdateDecorator@@@@1P6AXXZA@@3P6AXXZA DD FLAT:??__E?ms_kPool@?$CPooledObject@VCHeaderDecorator@NEffectUpdateDecorator@@@@1V?$CDynamicPoolEx@VCHeaderDecorator@NEffectUpdateDecorator@@@@A@@YAXXZ ; ??ms_kPool$initializer$@?$CPooledObject@VCHeaderDecorator@NEffectUpdateDecorator@@@@1P6AXXZA@@3P6AXXZA
CRT$XCU	ENDS
;	COMDAT CRT$XCU
CRT$XCU	SEGMENT
??ms_kPool$initializer$@?$CPooledObject@VCNullDecorator@NEffectUpdateDecorator@@@@1P6AXXZA@@3P6AXXZA DD FLAT:??__E?ms_kPool@?$CPooledObject@VCNullDecorator@NEffectUpdateDecorator@@@@1V?$CDynamicPoolEx@VCNullDecorator@NEffectUpdateDecorator@@@@A@@YAXXZ ; ??ms_kPool$initializer$@?$CPooledObject@VCNullDecorator@NEffectUpdateDecorator@@@@1P6AXXZA@@3P6AXXZA
CRT$XCU	ENDS
;	COMDAT CRT$XCU
CRT$XCU	SEGMENT
??ms_kPool$initializer$@?$CPooledObject@VCTextureAnimationCWDecorator@NEffectUpdateDecorator@@@@1P6AXXZA@@3P6AXXZA DD FLAT:??__E?ms_kPool@?$CPooledObject@VCTextureAnimationCWDecorator@NEffectUpdateDecorator@@@@1V?$CDynamicPoolEx@VCTextureAnimationCWDecorator@NEffectUpdateDecorator@@@@A@@YAXXZ ; ??ms_kPool$initializer$@?$CPooledObject@VCTextureAnimationCWDecorator@NEffectUpdateDecorator@@@@1P6AXXZA@@3P6AXXZA
CRT$XCU	ENDS
;	COMDAT CRT$XCU
CRT$XCU	SEGMENT
??ms_kPool$initializer$@?$CPooledObject@VCTextureAnimationCCWDecorator@NEffectUpdateDecorator@@@@1P6AXXZA@@3P6AXXZA DD FLAT:??__E?ms_kPool@?$CPooledObject@VCTextureAnimationCCWDecorator@NEffectUpdateDecorator@@@@1V?$CDynamicPoolEx@VCTextureAnimationCCWDecorator@NEffectUpdateDecorator@@@@A@@YAXXZ ; ??ms_kPool$initializer$@?$CPooledObject@VCTextureAnimationCCWDecorator@NEffectUpdateDecorator@@@@1P6AXXZA@@3P6AXXZA
CRT$XCU	ENDS
;	COMDAT CRT$XCU
CRT$XCU	SEGMENT
??ms_kPool$initializer$@?$CPooledObject@VCTextureAnimationRandomDecorator@NEffectUpdateDecorator@@@@1P6AXXZA@@3P6AXXZA DD FLAT:??__E?ms_kPool@?$CPooledObject@VCTextureAnimationRandomDecorator@NEffectUpdateDecorator@@@@1V?$CDynamicPoolEx@VCTextureAnimationRandomDecorator@NEffectUpdateDecorator@@@@A@@YAXXZ ; ??ms_kPool$initializer$@?$CPooledObject@VCTextureAnimationRandomDecorator@NEffectUpdateDecorator@@@@1P6AXXZA@@3P6AXXZA
CRT$XCU	ENDS
;	COMDAT CRT$XCU
CRT$XCU	SEGMENT
??ms_kPool$initializer$@?$CPooledObject@VCAirResistanceDecorator@NEffectUpdateDecorator@@@@1P6AXXZA@@3P6AXXZA DD FLAT:??__E?ms_kPool@?$CPooledObject@VCAirResistanceDecorator@NEffectUpdateDecorator@@@@1V?$CDynamicPoolEx@VCAirResistanceDecorator@NEffectUpdateDecorator@@@@A@@YAXXZ ; ??ms_kPool$initializer$@?$CPooledObject@VCAirResistanceDecorator@NEffectUpdateDecorator@@@@1P6AXXZA@@3P6AXXZA
CRT$XCU	ENDS
;	COMDAT CRT$XCU
CRT$XCU	SEGMENT
??ms_kPool$initializer$@?$CPooledObject@VCGravityDecorator@NEffectUpdateDecorator@@@@1P6AXXZA@@3P6AXXZA DD FLAT:??__E?ms_kPool@?$CPooledObject@VCGravityDecorator@NEffectUpdateDecorator@@@@1V?$CDynamicPoolEx@VCGravityDecorator@NEffectUpdateDecorator@@@@A@@YAXXZ ; ??ms_kPool$initializer$@?$CPooledObject@VCGravityDecorator@NEffectUpdateDecorator@@@@1P6AXXZA@@3P6AXXZA
CRT$XCU	ENDS
;	COMDAT CRT$XCU
CRT$XCU	SEGMENT
??ms_kPool$initializer$@?$CPooledObject@VCRotationDecorator@NEffectUpdateDecorator@@@@1P6AXXZA@@3P6AXXZA DD FLAT:??__E?ms_kPool@?$CPooledObject@VCRotationDecorator@NEffectUpdateDecorator@@@@1V?$CDynamicPoolEx@VCRotationDecorator@NEffectUpdateDecorator@@@@A@@YAXXZ ; ??ms_kPool$initializer$@?$CPooledObject@VCRotationDecorator@NEffectUpdateDecorator@@@@1P6AXXZA@@3P6AXXZA
CRT$XCU	ENDS
; Function compile flags: /Ogtp
; File C:\Program Files (x86)\Microsoft Visual Studio\2019\Community\VC\Tools\MSVC\14.27.29110\include\xmemory
;	COMDAT ??$_Refancy@PAD$0A@@std@@YAPADPAD@Z
_TEXT	SEGMENT
__Ptr$ = 8						; size = 4
??$_Refancy@PAD$0A@@std@@YAPADPAD@Z PROC		; std::_Refancy<char *,0>, COMDAT

; 261  : _Pointer _Refancy(_Pointer _Ptr) noexcept {

  00000	55		 push	 ebp
  00001	8b ec		 mov	 ebp, esp

; 262  :     return _Ptr;

  00003	8b 45 08	 mov	 eax, DWORD PTR __Ptr$[ebp]

; 263  : }

  00006	5d		 pop	 ebp
  00007	c3		 ret	 0
??$_Refancy@PAD$0A@@std@@YAPADPAD@Z ENDP		; std::_Refancy<char *,0>
_TEXT	ENDS
; Function compile flags: /Ogtp
; File C:\Program Files (x86)\Microsoft Visual Studio\2019\Community\VC\Tools\MSVC\14.27.29110\include\tuple
; File C:\Program Files (x86)\Microsoft Visual Studio\2019\Community\VC\Tools\MSVC\14.27.29110\include\xstring
; File C:\Program Files (x86)\Microsoft Visual Studio\2019\Community\VC\Tools\MSVC\14.27.29110\include\tuple
; File C:\Program Files (x86)\Microsoft Visual Studio\2019\Community\VC\Tools\MSVC\14.27.29110\include\vector
; File C:\Program Files (x86)\Microsoft Visual Studio\2019\Community\VC\Tools\MSVC\14.27.29110\include\tuple
;	COMDAT ??$?0V?$tuple@$$QAV?$basic_string@DU?$char_traits@D@std@@V?$allocator@D@2@@std@@@std@@V?$tuple@$$V@1@$0A@$$Z$S@?$pair@$$CBV?$basic_string@DU?$char_traits@D@std@@V?$allocator@D@2@@std@@V?$vector@V?$basic_string@DU?$char_traits@D@std@@V?$allocator@D@2@@std@@V?$allocator@V?$basic_string@DU?$char_traits@D@std@@V?$allocator@D@2@@std@@@2@@2@@std@@QAE@AAV?$tuple@$$QAV?$basic_string@DU?$char_traits@D@std@@V?$allocator@D@2@@std@@@1@AAV?$tuple@$$V@1@U?$integer_sequence@I$0A@@1@U?$integer_sequence@I$S@1@@Z
_TEXT	SEGMENT
_this$ = -4						; size = 4
__Val1$ = 8						; size = 4
__Val2$ = 12						; size = 4
___formal$ = 16						; size = 1
___formal$ = 20						; size = 1
??$?0V?$tuple@$$QAV?$basic_string@DU?$char_traits@D@std@@V?$allocator@D@2@@std@@@std@@V?$tuple@$$V@1@$0A@$$Z$S@?$pair@$$CBV?$basic_string@DU?$char_traits@D@std@@V?$allocator@D@2@@std@@V?$vector@V?$basic_string@DU?$char_traits@D@std@@V?$allocator@D@2@@std@@V?$allocator@V?$basic_string@DU?$char_traits@D@std@@V?$allocator@D@2@@std@@@2@@2@@std@@QAE@AAV?$tuple@$$QAV?$basic_string@DU?$char_traits@D@std@@V?$allocator@D@2@@std@@@1@AAV?$tuple@$$V@1@U?$integer_sequence@I$0A@@1@U?$integer_sequence@I$S@1@@Z PROC ; std::pair<std::basic_string<char,std::char_traits<char>,std::allocator<char> > const ,std::vector<std::basic_string<char,std::char_traits<char>,std::allocator<char> >,std::allocator<std::basic_string<char,std::char_traits<char>,std::allocator<char> > > > >::pair<std::basic_string<char,std::char_traits<char>,std::allocator<char> > const ,std::vector<std::basic_string<char,std::char_traits<char>,std::allocator<char> >,std::allocator<std::basic_string<char,std::char_traits<char>,std::allocator<char> > > > ><std::tuple<std::basic_string<char,std::char_traits<char>,std::allocator<char> > &&>,std::tuple<>,0>, COMDAT
; _this$ = ecx

; 975  :     : first(_STD get<_Indexes1>(_STD move(_Val1))...), second(_STD get<_Indexes2>(_STD move(_Val2))...) {}

  00000	55		 push	 ebp
  00001	8b ec		 mov	 ebp, esp
  00003	51		 push	 ecx
  00004	8b 45 08	 mov	 eax, DWORD PTR __Val1$[ebp]
  00007	89 4d fc	 mov	 DWORD PTR _this$[ebp], ecx
  0000a	8b 00		 mov	 eax, DWORD PTR [eax]
; File C:\Program Files (x86)\Microsoft Visual Studio\2019\Community\VC\Tools\MSVC\14.27.29110\include\xstring

; 2124 :     _String_val() : _Bx(), _Mysize(0), _Myres(0) {}

  0000c	c7 41 10 00 00
	00 00		 mov	 DWORD PTR [ecx+16], 0
  00013	c7 41 14 00 00
	00 00		 mov	 DWORD PTR [ecx+20], 0

; 2606 :         _CSTD memcpy(_My_data_mem, _Right_data_mem, _Memcpy_val_size);

  0001a	0f 10 00	 movups	 xmm0, XMMWORD PTR [eax]
  0001d	0f 11 01	 movups	 XMMWORD PTR [ecx], xmm0
  00020	f3 0f 7e 40 10	 movq	 xmm0, QWORD PTR [eax+16]
  00025	66 0f d6 41 10	 movq	 QWORD PTR [ecx+16], xmm0

; 4293 :         _Mypair._Myval2._Mysize = 0;

  0002a	c7 40 10 00 00
	00 00		 mov	 DWORD PTR [eax+16], 0

; 4294 :         _Mypair._Myval2._Myres  = _BUF_SIZE - 1;

  00031	c7 40 14 0f 00
	00 00		 mov	 DWORD PTR [eax+20], 15	; 0000000fH

; 4295 :         // the _Traits::assign is last so the codegen doesn't think the char write can alias this
; 4296 :         _Traits::assign(_Mypair._Myval2._Bx._Buf[0], _Elem());

  00038	c6 00 00	 mov	 BYTE PTR [eax], 0
; File C:\Program Files (x86)\Microsoft Visual Studio\2019\Community\VC\Tools\MSVC\14.27.29110\include\tuple

; 975  :     : first(_STD get<_Indexes1>(_STD move(_Val1))...), second(_STD get<_Indexes2>(_STD move(_Val2))...) {}

  0003b	8b c1		 mov	 eax, ecx
; File C:\Program Files (x86)\Microsoft Visual Studio\2019\Community\VC\Tools\MSVC\14.27.29110\include\vector

; 375  :     _Vector_val() noexcept : _Myfirst(), _Mylast(), _Myend() {}

  0003d	c7 41 18 00 00
	00 00		 mov	 DWORD PTR [ecx+24], 0
  00044	c7 41 1c 00 00
	00 00		 mov	 DWORD PTR [ecx+28], 0
  0004b	c7 41 20 00 00
	00 00		 mov	 DWORD PTR [ecx+32], 0
; File C:\Program Files (x86)\Microsoft Visual Studio\2019\Community\VC\Tools\MSVC\14.27.29110\include\tuple

; 975  :     : first(_STD get<_Indexes1>(_STD move(_Val1))...), second(_STD get<_Indexes2>(_STD move(_Val2))...) {}

  00052	8b e5		 mov	 esp, ebp
  00054	5d		 pop	 ebp
  00055	c2 10 00	 ret	 16			; 00000010H
??$?0V?$tuple@$$QAV?$basic_string@DU?$char_traits@D@std@@V?$allocator@D@2@@std@@@std@@V?$tuple@$$V@1@$0A@$$Z$S@?$pair@$$CBV?$basic_string@DU?$char_traits@D@std@@V?$allocator@D@2@@std@@V?$vector@V?$basic_string@DU?$char_traits@D@std@@V?$allocator@D@2@@std@@V?$allocator@V?$basic_string@DU?$char_traits@D@std@@V?$allocator@D@2@@std@@@2@@2@@std@@QAE@AAV?$tuple@$$QAV?$basic_string@DU?$char_traits@D@std@@V?$allocator@D@2@@std@@@1@AAV?$tuple@$$V@1@U?$integer_sequence@I$0A@@1@U?$integer_sequence@I$S@1@@Z ENDP ; std::pair<std::basic_string<char,std::char_traits<char>,std::allocator<char> > const ,std::vector<std::basic_string<char,std::char_traits<char>,std::allocator<char> >,std::allocator<std::basic_string<char,std::char_traits<char>,std::allocator<char> > > > >::pair<std::basic_string<char,std::char_traits<char>,std::allocator<char> > const ,std::vector<std::basic_string<char,std::char_traits<char>,std::allocator<char> >,std::allocator<std::basic_string<char,std::char_traits<char>,std::allocator<char> > > > ><std::tuple<std::basic_string<char,std::char_traits<char>,std::allocator<char> > &&>,std::tuple<>,0>
_TEXT	ENDS
; Function compile flags: /Ogtp
; File C:\Program Files (x86)\Microsoft Visual Studio\2019\Community\VC\Tools\MSVC\14.27.29110\include\algorithm
; File C:\DS Project\DS Files\Source\ClientSource\Client\GameLib\Area.h
; File C:\Program Files (x86)\Microsoft Visual Studio\2019\Community\VC\Tools\MSVC\14.27.29110\include\algorithm
; File C:\DS Project\DS Files\Source\ClientSource\Client\GameLib\Area.h
; File C:\Program Files (x86)\Microsoft Visual Studio\2019\Community\VC\Tools\MSVC\14.27.29110\include\algorithm
; File C:\Program Files (x86)\Microsoft Visual Studio\2019\Community\VC\Tools\MSVC\14.27.29110\include\utility
; File C:\DS Project\DS Files\Source\ClientSource\Client\GameLib\Area.h
; File C:\Program Files (x86)\Microsoft Visual Studio\2019\Community\VC\Tools\MSVC\14.27.29110\include\algorithm
; File C:\Program Files (x86)\Microsoft Visual Studio\2019\Community\VC\Tools\MSVC\14.27.29110\include\utility
; File C:\DS Project\DS Files\Source\ClientSource\Client\GameLib\Area.h
; File C:\Program Files (x86)\Microsoft Visual Studio\2019\Community\VC\Tools\MSVC\14.27.29110\include\algorithm
; File C:\Program Files (x86)\Microsoft Visual Studio\2019\Community\VC\Tools\MSVC\14.27.29110\include\utility
; File C:\Program Files (x86)\Microsoft Visual Studio\2019\Community\VC\Tools\MSVC\14.27.29110\include\algorithm
;	COMDAT ??$_Med3_unchecked@PAUSObjectData@CArea@@UObjectDataComp@2@@std@@YAXPAUSObjectData@CArea@@00UObjectDataComp@2@@Z
_TEXT	SEGMENT
__First$ = 8						; size = 4
__Mid$ = 12						; size = 4
__Last$ = 16						; size = 4
__Pred$ = 20						; size = 1
??$_Med3_unchecked@PAUSObjectData@CArea@@UObjectDataComp@2@@std@@YAXPAUSObjectData@CArea@@00UObjectDataComp@2@@Z PROC ; std::_Med3_unchecked<CArea::SObjectData *,CArea::ObjectDataComp>, COMDAT

; 4003 : _CONSTEXPR20 void _Med3_unchecked(_RanIt _First, _RanIt _Mid, _RanIt _Last, _Pr _Pred) {

  00000	55		 push	 ebp
  00001	8b ec		 mov	 ebp, esp
; File C:\DS Project\DS Files\Source\ClientSource\Client\GameLib\Area.h

; 57   : 				return lhs.dwCRC < rhs.dwCRC;

  00003	8b 55 0c	 mov	 edx, DWORD PTR __Mid$[ebp]
  00006	8b 4d 08	 mov	 ecx, DWORD PTR __First$[ebp]
; File C:\Program Files (x86)\Microsoft Visual Studio\2019\Community\VC\Tools\MSVC\14.27.29110\include\algorithm

; 4003 : _CONSTEXPR20 void _Med3_unchecked(_RanIt _First, _RanIt _Mid, _RanIt _Last, _Pr _Pred) {

  00009	56		 push	 esi
; File C:\DS Project\DS Files\Source\ClientSource\Client\GameLib\Area.h

; 57   : 				return lhs.dwCRC < rhs.dwCRC;

  0000a	8b 72 0c	 mov	 esi, DWORD PTR [edx+12]
  0000d	3b 71 0c	 cmp	 esi, DWORD PTR [ecx+12]
; File C:\Program Files (x86)\Microsoft Visual Studio\2019\Community\VC\Tools\MSVC\14.27.29110\include\algorithm

; 4005 :     if (_DEBUG_LT_PRED(_Pred, *_Mid, *_First)) {

  00010	73 2f		 jae	 SHORT $LN11@Med3_unche
; File C:\Program Files (x86)\Microsoft Visual Studio\2019\Community\VC\Tools\MSVC\14.27.29110\include\utility

; 107  :     _Left    = _STD move(_Right);

  00012	0f 10 01	 movups	 xmm0, XMMWORD PTR [ecx]
  00015	0f 10 0a	 movups	 xmm1, XMMWORD PTR [edx]
  00018	0f 10 52 10	 movups	 xmm2, XMMWORD PTR [edx+16]
  0001c	0f 10 5a 20	 movups	 xmm3, XMMWORD PTR [edx+32]
  00020	0f 11 02	 movups	 XMMWORD PTR [edx], xmm0
  00023	0f 10 41 10	 movups	 xmm0, XMMWORD PTR [ecx+16]
  00027	0f 11 42 10	 movups	 XMMWORD PTR [edx+16], xmm0
  0002b	0f 10 41 20	 movups	 xmm0, XMMWORD PTR [ecx+32]
  0002f	0f 11 42 20	 movups	 XMMWORD PTR [edx+32], xmm0

; 108  :     _Right   = _STD move(_Tmp);

  00033	0f 11 09	 movups	 XMMWORD PTR [ecx], xmm1
  00036	0f 11 51 10	 movups	 XMMWORD PTR [ecx+16], xmm2
  0003a	0f 11 59 20	 movups	 XMMWORD PTR [ecx+32], xmm3
  0003e	8b 72 0c	 mov	 esi, DWORD PTR [edx+12]
$LN11@Med3_unche:
; File C:\DS Project\DS Files\Source\ClientSource\Client\GameLib\Area.h

; 57   : 				return lhs.dwCRC < rhs.dwCRC;

  00041	8b 45 10	 mov	 eax, DWORD PTR __Last$[ebp]
  00044	39 70 0c	 cmp	 DWORD PTR [eax+12], esi
  00047	5e		 pop	 esi
; File C:\Program Files (x86)\Microsoft Visual Studio\2019\Community\VC\Tools\MSVC\14.27.29110\include\algorithm

; 4009 :     if (_DEBUG_LT_PRED(_Pred, *_Last, *_Mid)) { // swap middle and last, then test first again

  00048	73 55		 jae	 SHORT $LN23@Med3_unche
; File C:\Program Files (x86)\Microsoft Visual Studio\2019\Community\VC\Tools\MSVC\14.27.29110\include\utility

; 107  :     _Left    = _STD move(_Right);

  0004a	0f 10 02	 movups	 xmm0, XMMWORD PTR [edx]
  0004d	0f 10 08	 movups	 xmm1, XMMWORD PTR [eax]
  00050	0f 10 50 10	 movups	 xmm2, XMMWORD PTR [eax+16]
  00054	0f 10 58 20	 movups	 xmm3, XMMWORD PTR [eax+32]
  00058	0f 11 00	 movups	 XMMWORD PTR [eax], xmm0
  0005b	0f 10 42 10	 movups	 xmm0, XMMWORD PTR [edx+16]
  0005f	0f 11 40 10	 movups	 XMMWORD PTR [eax+16], xmm0
  00063	0f 10 42 20	 movups	 xmm0, XMMWORD PTR [edx+32]
  00067	0f 11 40 20	 movups	 XMMWORD PTR [eax+32], xmm0

; 108  :     _Right   = _STD move(_Tmp);

  0006b	0f 11 0a	 movups	 XMMWORD PTR [edx], xmm1
  0006e	0f 11 52 10	 movups	 XMMWORD PTR [edx+16], xmm2
  00072	0f 11 5a 20	 movups	 XMMWORD PTR [edx+32], xmm3
; File C:\DS Project\DS Files\Source\ClientSource\Client\GameLib\Area.h

; 57   : 				return lhs.dwCRC < rhs.dwCRC;

  00076	8b 42 0c	 mov	 eax, DWORD PTR [edx+12]
  00079	3b 41 0c	 cmp	 eax, DWORD PTR [ecx+12]
; File C:\Program Files (x86)\Microsoft Visual Studio\2019\Community\VC\Tools\MSVC\14.27.29110\include\algorithm

; 4012 :         if (_DEBUG_LT_PRED(_Pred, *_Mid, *_First)) {

  0007c	73 21		 jae	 SHORT $LN23@Med3_unche
; File C:\Program Files (x86)\Microsoft Visual Studio\2019\Community\VC\Tools\MSVC\14.27.29110\include\utility

; 107  :     _Left    = _STD move(_Right);

  0007e	0f 10 01	 movups	 xmm0, XMMWORD PTR [ecx]
  00081	0f 11 02	 movups	 XMMWORD PTR [edx], xmm0
  00084	0f 10 41 10	 movups	 xmm0, XMMWORD PTR [ecx+16]
  00088	0f 11 42 10	 movups	 XMMWORD PTR [edx+16], xmm0
  0008c	0f 10 41 20	 movups	 xmm0, XMMWORD PTR [ecx+32]
  00090	0f 11 42 20	 movups	 XMMWORD PTR [edx+32], xmm0

; 108  :     _Right   = _STD move(_Tmp);

  00094	0f 11 09	 movups	 XMMWORD PTR [ecx], xmm1
  00097	0f 11 51 10	 movups	 XMMWORD PTR [ecx+16], xmm2
  0009b	0f 11 59 20	 movups	 XMMWORD PTR [ecx+32], xmm3
$LN23@Med3_unche:
; File C:\Program Files (x86)\Microsoft Visual Studio\2019\Community\VC\Tools\MSVC\14.27.29110\include\algorithm

; 4016 : }

  0009f	5d		 pop	 ebp
  000a0	c3		 ret	 0
??$_Med3_unchecked@PAUSObjectData@CArea@@UObjectDataComp@2@@std@@YAXPAUSObjectData@CArea@@00UObjectDataComp@2@@Z ENDP ; std::_Med3_unchecked<CArea::SObjectData *,CArea::ObjectDataComp>
_TEXT	ENDS
; Function compile flags: /Ogtp
; File C:\Program Files (x86)\Microsoft Visual Studio\2019\Community\VC\Tools\MSVC\14.27.29110\include\xutility
;	COMDAT ??$_Copy_backward_memmove@PAUSObjectData@CArea@@PAU12@@std@@YAPAUSObjectData@CArea@@PAU12@00@Z
_TEXT	SEGMENT
__First$ = 8						; size = 4
__Last$ = 12						; size = 4
__Dest$ = 16						; size = 4
??$_Copy_backward_memmove@PAUSObjectData@CArea@@PAU12@@std@@YAPAUSObjectData@CArea@@PAU12@00@Z PROC ; std::_Copy_backward_memmove<CArea::SObjectData *,CArea::SObjectData *>, COMDAT

; 4284 : _BidIt2 _Copy_backward_memmove(_BidIt1 _First, _BidIt1 _Last, _BidIt2 _Dest) {

  00000	55		 push	 ebp
  00001	8b ec		 mov	 ebp, esp

; 4285 :     // implement copy_backward-like function as memmove
; 4286 :     const char* const _First_ch = const_cast<const char*>(reinterpret_cast<const volatile char*>(_First));
; 4287 :     const char* const _Last_ch  = const_cast<const char*>(reinterpret_cast<const volatile char*>(_Last));
; 4288 :     char* const _Dest_ch        = const_cast<char*>(reinterpret_cast<volatile char*>(_Dest));
; 4289 :     const auto _Count           = static_cast<size_t>(_Last_ch - _First_ch);

  00003	8b 45 08	 mov	 eax, DWORD PTR __First$[ebp]
  00006	8b 4d 0c	 mov	 ecx, DWORD PTR __Last$[ebp]
  00009	2b c8		 sub	 ecx, eax

; 4290 :     return static_cast<_BidIt2>(_CSTD memmove(_Dest_ch - _Count, _First_ch, _Count));

  0000b	51		 push	 ecx
  0000c	50		 push	 eax
  0000d	8b 45 10	 mov	 eax, DWORD PTR __Dest$[ebp]
  00010	2b c1		 sub	 eax, ecx
  00012	50		 push	 eax
  00013	e8 00 00 00 00	 call	 _memmove
  00018	83 c4 0c	 add	 esp, 12			; 0000000cH

; 4291 : }

  0001b	5d		 pop	 ebp
  0001c	c3		 ret	 0
??$_Copy_backward_memmove@PAUSObjectData@CArea@@PAU12@@std@@YAPAUSObjectData@CArea@@PAU12@00@Z ENDP ; std::_Copy_backward_memmove<CArea::SObjectData *,CArea::SObjectData *>
_TEXT	ENDS
; Function compile flags: /Ogtp
; File C:\Program Files (x86)\Microsoft Visual Studio\2019\Community\VC\Tools\MSVC\14.27.29110\include\algorithm
; File C:\DS Project\DS Files\Source\ClientSource\Client\GameLib\Area.h
; File C:\Program Files (x86)\Microsoft Visual Studio\2019\Community\VC\Tools\MSVC\14.27.29110\include\algorithm
; File C:\DS Project\DS Files\Source\ClientSource\Client\GameLib\Area.h
; File C:\Program Files (x86)\Microsoft Visual Studio\2019\Community\VC\Tools\MSVC\14.27.29110\include\algorithm
; File C:\Program Files (x86)\Microsoft Visual Studio\2019\Community\VC\Tools\MSVC\14.27.29110\include\utility
; File C:\DS Project\DS Files\Source\ClientSource\Client\GameLib\Area.h
; File C:\Program Files (x86)\Microsoft Visual Studio\2019\Community\VC\Tools\MSVC\14.27.29110\include\algorithm
; File C:\Program Files (x86)\Microsoft Visual Studio\2019\Community\VC\Tools\MSVC\14.27.29110\include\utility
; File C:\DS Project\DS Files\Source\ClientSource\Client\GameLib\Area.h
; File C:\Program Files (x86)\Microsoft Visual Studio\2019\Community\VC\Tools\MSVC\14.27.29110\include\algorithm
; File C:\Program Files (x86)\Microsoft Visual Studio\2019\Community\VC\Tools\MSVC\14.27.29110\include\utility
; File C:\Program Files (x86)\Microsoft Visual Studio\2019\Community\VC\Tools\MSVC\14.27.29110\include\algorithm
;	COMDAT ??$_Med3_unchecked@PAUSCRCWithNumber@CArea@@UCRCNumComp@2@@std@@YAXPAUSCRCWithNumber@CArea@@00UCRCNumComp@2@@Z
_TEXT	SEGMENT
__First$ = 8						; size = 4
__Mid$ = 12						; size = 4
__Last$ = 16						; size = 4
__Pred$ = 20						; size = 1
??$_Med3_unchecked@PAUSCRCWithNumber@CArea@@UCRCNumComp@2@@std@@YAXPAUSCRCWithNumber@CArea@@00UCRCNumComp@2@@Z PROC ; std::_Med3_unchecked<CArea::SCRCWithNumber *,CArea::CRCNumComp>, COMDAT

; 4003 : _CONSTEXPR20 void _Med3_unchecked(_RanIt _First, _RanIt _Mid, _RanIt _Last, _Pr _Pred) {

  00000	55		 push	 ebp
  00001	8b ec		 mov	 ebp, esp
  00003	56		 push	 esi
; File C:\DS Project\DS Files\Source\ClientSource\Client\GameLib\Area.h

; 190  : 				return lhs.dwNumber > rhs.dwNumber;

  00004	8b 75 08	 mov	 esi, DWORD PTR __First$[ebp]
; File C:\Program Files (x86)\Microsoft Visual Studio\2019\Community\VC\Tools\MSVC\14.27.29110\include\algorithm

; 4003 : _CONSTEXPR20 void _Med3_unchecked(_RanIt _First, _RanIt _Mid, _RanIt _Last, _Pr _Pred) {

  00007	57		 push	 edi
; File C:\DS Project\DS Files\Source\ClientSource\Client\GameLib\Area.h

; 190  : 				return lhs.dwNumber > rhs.dwNumber;

  00008	8b 7d 0c	 mov	 edi, DWORD PTR __Mid$[ebp]
  0000b	8b 47 04	 mov	 eax, DWORD PTR [edi+4]
  0000e	3b 46 04	 cmp	 eax, DWORD PTR [esi+4]
; File C:\Program Files (x86)\Microsoft Visual Studio\2019\Community\VC\Tools\MSVC\14.27.29110\include\algorithm

; 4005 :     if (_DEBUG_LT_PRED(_Pred, *_Mid, *_First)) {

  00011	76 16		 jbe	 SHORT $LN25@Med3_unche
; File C:\Program Files (x86)\Microsoft Visual Studio\2019\Community\VC\Tools\MSVC\14.27.29110\include\utility

; 106  :     _Ty _Tmp = _STD move(_Left);

  00013	8b 0f		 mov	 ecx, DWORD PTR [edi]
  00015	8b d0		 mov	 edx, eax

; 107  :     _Left    = _STD move(_Right);

  00017	8b 06		 mov	 eax, DWORD PTR [esi]
  00019	89 07		 mov	 DWORD PTR [edi], eax
  0001b	8b 46 04	 mov	 eax, DWORD PTR [esi+4]
  0001e	89 47 04	 mov	 DWORD PTR [edi+4], eax

; 108  :     _Right   = _STD move(_Tmp);

  00021	89 0e		 mov	 DWORD PTR [esi], ecx
  00023	89 56 04	 mov	 DWORD PTR [esi+4], edx
  00026	8b 47 04	 mov	 eax, DWORD PTR [edi+4]
$LN25@Med3_unche:
; File C:\DS Project\DS Files\Source\ClientSource\Client\GameLib\Area.h

; 190  : 				return lhs.dwNumber > rhs.dwNumber;

  00029	8b 4d 10	 mov	 ecx, DWORD PTR __Last$[ebp]
  0002c	39 41 04	 cmp	 DWORD PTR [ecx+4], eax
; File C:\Program Files (x86)\Microsoft Visual Studio\2019\Community\VC\Tools\MSVC\14.27.29110\include\algorithm

; 4009 :     if (_DEBUG_LT_PRED(_Pred, *_Last, *_Mid)) { // swap middle and last, then test first again

  0002f	76 2a		 jbe	 SHORT $LN23@Med3_unche
; File C:\Program Files (x86)\Microsoft Visual Studio\2019\Community\VC\Tools\MSVC\14.27.29110\include\utility

; 107  :     _Left    = _STD move(_Right);

  00031	8b 07		 mov	 eax, DWORD PTR [edi]
  00033	8b 51 04	 mov	 edx, DWORD PTR [ecx+4]
  00036	53		 push	 ebx
  00037	8b 19		 mov	 ebx, DWORD PTR [ecx]
  00039	89 01		 mov	 DWORD PTR [ecx], eax
  0003b	8b 47 04	 mov	 eax, DWORD PTR [edi+4]
  0003e	89 41 04	 mov	 DWORD PTR [ecx+4], eax

; 108  :     _Right   = _STD move(_Tmp);

  00041	89 1f		 mov	 DWORD PTR [edi], ebx
  00043	89 57 04	 mov	 DWORD PTR [edi+4], edx
; File C:\DS Project\DS Files\Source\ClientSource\Client\GameLib\Area.h

; 190  : 				return lhs.dwNumber > rhs.dwNumber;

  00046	3b 56 04	 cmp	 edx, DWORD PTR [esi+4]
; File C:\Program Files (x86)\Microsoft Visual Studio\2019\Community\VC\Tools\MSVC\14.27.29110\include\algorithm

; 4012 :         if (_DEBUG_LT_PRED(_Pred, *_Mid, *_First)) {

  00049	76 0f		 jbe	 SHORT $LN26@Med3_unche
; File C:\Program Files (x86)\Microsoft Visual Studio\2019\Community\VC\Tools\MSVC\14.27.29110\include\utility

; 107  :     _Left    = _STD move(_Right);

  0004b	8b 06		 mov	 eax, DWORD PTR [esi]
  0004d	89 07		 mov	 DWORD PTR [edi], eax
  0004f	8b 46 04	 mov	 eax, DWORD PTR [esi+4]
  00052	89 47 04	 mov	 DWORD PTR [edi+4], eax

; 108  :     _Right   = _STD move(_Tmp);

  00055	89 1e		 mov	 DWORD PTR [esi], ebx
  00057	89 56 04	 mov	 DWORD PTR [esi+4], edx
$LN26@Med3_unche:
  0005a	5b		 pop	 ebx
$LN23@Med3_unche:
  0005b	5f		 pop	 edi
; File C:\Program Files (x86)\Microsoft Visual Studio\2019\Community\VC\Tools\MSVC\14.27.29110\include\algorithm

; 4016 : }

  0005c	5e		 pop	 esi
  0005d	5d		 pop	 ebp
  0005e	c3		 ret	 0
??$_Med3_unchecked@PAUSCRCWithNumber@CArea@@UCRCNumComp@2@@std@@YAXPAUSCRCWithNumber@CArea@@00UCRCNumComp@2@@Z ENDP ; std::_Med3_unchecked<CArea::SCRCWithNumber *,CArea::CRCNumComp>
_TEXT	ENDS
; Function compile flags: /Ogtp
; File C:\Program Files (x86)\Microsoft Visual Studio\2019\Community\VC\Tools\MSVC\14.27.29110\include\xutility
;	COMDAT ??$_Copy_backward_memmove@PAUSCRCWithNumber@CArea@@PAU12@@std@@YAPAUSCRCWithNumber@CArea@@PAU12@00@Z
_TEXT	SEGMENT
__First$ = 8						; size = 4
__Last$ = 12						; size = 4
__Dest$ = 16						; size = 4
??$_Copy_backward_memmove@PAUSCRCWithNumber@CArea@@PAU12@@std@@YAPAUSCRCWithNumber@CArea@@PAU12@00@Z PROC ; std::_Copy_backward_memmove<CArea::SCRCWithNumber *,CArea::SCRCWithNumber *>, COMDAT

; 4284 : _BidIt2 _Copy_backward_memmove(_BidIt1 _First, _BidIt1 _Last, _BidIt2 _Dest) {

  00000	55		 push	 ebp
  00001	8b ec		 mov	 ebp, esp

; 4285 :     // implement copy_backward-like function as memmove
; 4286 :     const char* const _First_ch = const_cast<const char*>(reinterpret_cast<const volatile char*>(_First));
; 4287 :     const char* const _Last_ch  = const_cast<const char*>(reinterpret_cast<const volatile char*>(_Last));
; 4288 :     char* const _Dest_ch        = const_cast<char*>(reinterpret_cast<volatile char*>(_Dest));
; 4289 :     const auto _Count           = static_cast<size_t>(_Last_ch - _First_ch);

  00003	8b 45 08	 mov	 eax, DWORD PTR __First$[ebp]
  00006	8b 4d 0c	 mov	 ecx, DWORD PTR __Last$[ebp]
  00009	2b c8		 sub	 ecx, eax

; 4290 :     return static_cast<_BidIt2>(_CSTD memmove(_Dest_ch - _Count, _First_ch, _Count));

  0000b	51		 push	 ecx
  0000c	50		 push	 eax
  0000d	8b 45 10	 mov	 eax, DWORD PTR __Dest$[ebp]
  00010	2b c1		 sub	 eax, ecx
  00012	50		 push	 eax
  00013	e8 00 00 00 00	 call	 _memmove
  00018	83 c4 0c	 add	 esp, 12			; 0000000cH

; 4291 : }

  0001b	5d		 pop	 ebp
  0001c	c3		 ret	 0
??$_Copy_backward_memmove@PAUSCRCWithNumber@CArea@@PAU12@@std@@YAPAUSCRCWithNumber@CArea@@PAU12@00@Z ENDP ; std::_Copy_backward_memmove<CArea::SCRCWithNumber *,CArea::SCRCWithNumber *>
_TEXT	ENDS
; Function compile flags: /Ogtp
; File C:\Program Files (x86)\Microsoft Visual Studio\2019\Community\VC\Tools\MSVC\14.27.29110\include\xutility
;	COMDAT ??$_Copy_backward_memmove@PAPAVCEffectInstance@@PAPAV1@@std@@YAPAPAVCEffectInstance@@PAPAV1@00@Z
_TEXT	SEGMENT
__First$ = 8						; size = 4
__Last$ = 12						; size = 4
__Dest$ = 16						; size = 4
??$_Copy_backward_memmove@PAPAVCEffectInstance@@PAPAV1@@std@@YAPAPAVCEffectInstance@@PAPAV1@00@Z PROC ; std::_Copy_backward_memmove<CEffectInstance * *,CEffectInstance * *>, COMDAT

; 4284 : _BidIt2 _Copy_backward_memmove(_BidIt1 _First, _BidIt1 _Last, _BidIt2 _Dest) {

  00000	55		 push	 ebp
  00001	8b ec		 mov	 ebp, esp

; 4285 :     // implement copy_backward-like function as memmove
; 4286 :     const char* const _First_ch = const_cast<const char*>(reinterpret_cast<const volatile char*>(_First));
; 4287 :     const char* const _Last_ch  = const_cast<const char*>(reinterpret_cast<const volatile char*>(_Last));
; 4288 :     char* const _Dest_ch        = const_cast<char*>(reinterpret_cast<volatile char*>(_Dest));
; 4289 :     const auto _Count           = static_cast<size_t>(_Last_ch - _First_ch);

  00003	8b 45 08	 mov	 eax, DWORD PTR __First$[ebp]
  00006	8b 4d 0c	 mov	 ecx, DWORD PTR __Last$[ebp]
  00009	2b c8		 sub	 ecx, eax

; 4290 :     return static_cast<_BidIt2>(_CSTD memmove(_Dest_ch - _Count, _First_ch, _Count));

  0000b	51		 push	 ecx
  0000c	50		 push	 eax
  0000d	8b 45 10	 mov	 eax, DWORD PTR __Dest$[ebp]
  00010	2b c1		 sub	 eax, ecx
  00012	50		 push	 eax
  00013	e8 00 00 00 00	 call	 _memmove
  00018	83 c4 0c	 add	 esp, 12			; 0000000cH

; 4291 : }

  0001b	5d		 pop	 ebp
  0001c	c3		 ret	 0
??$_Copy_backward_memmove@PAPAVCEffectInstance@@PAPAV1@@std@@YAPAPAVCEffectInstance@@PAPAV1@00@Z ENDP ; std::_Copy_backward_memmove<CEffectInstance * *,CEffectInstance * *>
_TEXT	ENDS
; Function compile flags: /Ogtp
; File C:\Program Files (x86)\Microsoft Visual Studio\2019\Community\VC\Tools\MSVC\14.27.29110\include\locale
; File C:\Program Files (x86)\Microsoft Visual Studio\2019\Community\VC\Tools\MSVC\14.27.29110\include\xlocale
; File C:\Program Files (x86)\Microsoft Visual Studio\2019\Community\VC\Tools\MSVC\14.27.29110\include\locale
;	COMDAT ??$tolower@D@std@@YADDABVlocale@0@@Z
_TEXT	SEGMENT
__Ch$ = 8						; size = 1
__Loc$ = 12						; size = 4
??$tolower@D@std@@YADDABVlocale@0@@Z PROC		; std::tolower<char>, COMDAT

; 243  : _Elem(tolower)(_Elem _Ch, const locale& _Loc) {

  00000	55		 push	 ebp
  00001	8b ec		 mov	 ebp, esp

; 244  :     return _STD use_facet<ctype<_Elem>>(_Loc).tolower(_Ch);

  00003	ff 75 0c	 push	 DWORD PTR __Loc$[ebp]
  00006	e8 00 00 00 00	 call	 ??$use_facet@V?$ctype@D@std@@@std@@YAABV?$ctype@D@0@ABVlocale@0@@Z ; std::use_facet<std::ctype<char> >
  0000b	83 c4 04	 add	 esp, 4
; File C:\Program Files (x86)\Microsoft Visual Studio\2019\Community\VC\Tools\MSVC\14.27.29110\include\xlocale

; 2691 :         return do_tolower(_Ch);

  0000e	8b c8		 mov	 ecx, eax
  00010	8b 10		 mov	 edx, DWORD PTR [eax]
  00012	ff 75 08	 push	 DWORD PTR __Ch$[ebp]
  00015	8b 42 10	 mov	 eax, DWORD PTR [edx+16]
