; Listing generated by Microsoft (R) Optimizing Compiler Version 19.27.29112.0 

	TITLE	C:\DS Project\DS Files\Source\ClientSource\Client\GameLib\GameType.cpp
	.686P
	.XMM
	include listing.inc
	.model	flat

INCLUDELIB LIBCMT
INCLUDELIB OLDNAMES

PUBLIC	??_7?$CDynamicPool@USAttachingEffectData@NRaceData@@@@6B@ ; CDynamicPool<NRaceData::SAttachingEffectData>::`vftable'
PUBLIC	??_G?$CDynamicPool@USAttachingEffectData@NRaceData@@@@UAEPAXI@Z ; CDynamicPool<NRaceData::SAttachingEffectData>::`scalar deleting destructor'
PUBLIC	??_7?$CDynamicPool@USAttachingObjectData@NRaceData@@@@6B@ ; CDynamicPool<NRaceData::SAttachingObjectData>::`vftable'
PUBLIC	??_G?$CDynamicPool@USAttachingObjectData@NRaceData@@@@UAEPAXI@Z ; CDynamicPool<NRaceData::SAttachingObjectData>::`scalar deleting destructor'
PUBLIC	??_R4?$CDynamicPool@USCollisionData@NRaceData@@@@6B@ ; CDynamicPool<NRaceData::SCollisionData>::`RTTI Complete Object Locator'
PUBLIC	??_R0?AV?$CDynamicPool@USCollisionData@NRaceData@@@@@8 ; CDynamicPool<NRaceData::SCollisionData> `RTTI Type Descriptor'
PUBLIC	??_R3?$CDynamicPool@USCollisionData@NRaceData@@@@8 ; CDynamicPool<NRaceData::SCollisionData>::`RTTI Class Hierarchy Descriptor'
PUBLIC	??_R2?$CDynamicPool@USCollisionData@NRaceData@@@@8 ; CDynamicPool<NRaceData::SCollisionData>::`RTTI Base Class Array'
PUBLIC	??_R1A@?0A@EA@?$CDynamicPool@USCollisionData@NRaceData@@@@8 ; CDynamicPool<NRaceData::SCollisionData>::`RTTI Base Class Descriptor at (0,-1,0,64)'
PUBLIC	??_R4?$CDynamicPool@USAttachingEffectData@NRaceData@@@@6B@ ; CDynamicPool<NRaceData::SAttachingEffectData>::`RTTI Complete Object Locator'
PUBLIC	??_R0?AV?$CDynamicPool@USAttachingEffectData@NRaceData@@@@@8 ; CDynamicPool<NRaceData::SAttachingEffectData> `RTTI Type Descriptor'
PUBLIC	??_R3?$CDynamicPool@USAttachingEffectData@NRaceData@@@@8 ; CDynamicPool<NRaceData::SAttachingEffectData>::`RTTI Class Hierarchy Descriptor'
PUBLIC	??_R2?$CDynamicPool@USAttachingEffectData@NRaceData@@@@8 ; CDynamicPool<NRaceData::SAttachingEffectData>::`RTTI Base Class Array'
PUBLIC	??_R1A@?0A@EA@?$CDynamicPool@USAttachingEffectData@NRaceData@@@@8 ; CDynamicPool<NRaceData::SAttachingEffectData>::`RTTI Base Class Descriptor at (0,-1,0,64)'
PUBLIC	??_R4?$CDynamicPool@USAttachingObjectData@NRaceData@@@@6B@ ; CDynamicPool<NRaceData::SAttachingObjectData>::`RTTI Complete Object Locator'
PUBLIC	??_R0?AV?$CDynamicPool@USAttachingObjectData@NRaceData@@@@@8 ; CDynamicPool<NRaceData::SAttachingObjectData> `RTTI Type Descriptor'
PUBLIC	??_R3?$CDynamicPool@USAttachingObjectData@NRaceData@@@@8 ; CDynamicPool<NRaceData::SAttachingObjectData>::`RTTI Class Hierarchy Descriptor'
PUBLIC	??_R2?$CDynamicPool@USAttachingObjectData@NRaceData@@@@8 ; CDynamicPool<NRaceData::SAttachingObjectData>::`RTTI Base Class Array'
PUBLIC	??_R1A@?0A@EA@?$CDynamicPool@USAttachingObjectData@NRaceData@@@@8 ; CDynamicPool<NRaceData::SAttachingObjectData>::`RTTI Base Class Descriptor at (0,-1,0,64)'
PUBLIC	??_R4?$CDynamicPoolEx@VCHeaderDecorator@NEffectUpdateDecorator@@@@6B@ ; CDynamicPoolEx<NEffectUpdateDecorator::CHeaderDecorator>::`RTTI Complete Object Locator'
PUBLIC	??_R0?AV?$CDynamicPoolEx@VCHeaderDecorator@NEffectUpdateDecorator@@@@@8 ; CDynamicPoolEx<NEffectUpdateDecorator::CHeaderDecorator> `RTTI Type Descriptor'
PUBLIC	??_R3?$CDynamicPoolEx@VCHeaderDecorator@NEffectUpdateDecorator@@@@8 ; CDynamicPoolEx<NEffectUpdateDecorator::CHeaderDecorator>::`RTTI Class Hierarchy Descriptor'
PUBLIC	??_R2?$CDynamicPoolEx@VCHeaderDecorator@NEffectUpdateDecorator@@@@8 ; CDynamicPoolEx<NEffectUpdateDecorator::CHeaderDecorator>::`RTTI Base Class Array'
PUBLIC	??_R1A@?0A@EA@?$CDynamicPoolEx@VCHeaderDecorator@NEffectUpdateDecorator@@@@8 ; CDynamicPoolEx<NEffectUpdateDecorator::CHeaderDecorator>::`RTTI Base Class Descriptor at (0,-1,0,64)'
PUBLIC	??_R4?$CDynamicPoolEx@VCNullDecorator@NEffectUpdateDecorator@@@@6B@ ; CDynamicPoolEx<NEffectUpdateDecorator::CNullDecorator>::`RTTI Complete Object Locator'
PUBLIC	??_R0?AV?$CDynamicPoolEx@VCNullDecorator@NEffectUpdateDecorator@@@@@8 ; CDynamicPoolEx<NEffectUpdateDecorator::CNullDecorator> `RTTI Type Descriptor'
PUBLIC	??_R3?$CDynamicPoolEx@VCNullDecorator@NEffectUpdateDecorator@@@@8 ; CDynamicPoolEx<NEffectUpdateDecorator::CNullDecorator>::`RTTI Class Hierarchy Descriptor'
PUBLIC	??_R2?$CDynamicPoolEx@VCNullDecorator@NEffectUpdateDecorator@@@@8 ; CDynamicPoolEx<NEffectUpdateDecorator::CNullDecorator>::`RTTI Base Class Array'
PUBLIC	??_R1A@?0A@EA@?$CDynamicPoolEx@VCNullDecorator@NEffectUpdateDecorator@@@@8 ; CDynamicPoolEx<NEffectUpdateDecorator::CNullDecorator>::`RTTI Base Class Descriptor at (0,-1,0,64)'
PUBLIC	??_R4?$CDynamicPoolEx@VCTextureAnimationCWDecorator@NEffectUpdateDecorator@@@@6B@ ; CDynamicPoolEx<NEffectUpdateDecorator::CTextureAnimationCWDecorator>::`RTTI Complete Object Locator'
PUBLIC	??_R0?AV?$CDynamicPoolEx@VCTextureAnimationCWDecorator@NEffectUpdateDecorator@@@@@8 ; CDynamicPoolEx<NEffectUpdateDecorator::CTextureAnimationCWDecorator> `RTTI Type Descriptor'
PUBLIC	??_R3?$CDynamicPoolEx@VCTextureAnimationCWDecorator@NEffectUpdateDecorator@@@@8 ; CDynamicPoolEx<NEffectUpdateDecorator::CTextureAnimationCWDecorator>::`RTTI Class Hierarchy Descriptor'
PUBLIC	??_R2?$CDynamicPoolEx@VCTextureAnimationCWDecorator@NEffectUpdateDecorator@@@@8 ; CDynamicPoolEx<NEffectUpdateDecorator::CTextureAnimationCWDecorator>::`RTTI Base Class Array'
PUBLIC	??_R1A@?0A@EA@?$CDynamicPoolEx@VCTextureAnimationCWDecorator@NEffectUpdateDecorator@@@@8 ; CDynamicPoolEx<NEffectUpdateDecorator::CTextureAnimationCWDecorator>::`RTTI Base Class Descriptor at (0,-1,0,64)'
PUBLIC	??_R4?$CDynamicPoolEx@VCTextureAnimationCCWDecorator@NEffectUpdateDecorator@@@@6B@ ; CDynamicPoolEx<NEffectUpdateDecorator::CTextureAnimationCCWDecorator>::`RTTI Complete Object Locator'
PUBLIC	??_R0?AV?$CDynamicPoolEx@VCTextureAnimationCCWDecorator@NEffectUpdateDecorator@@@@@8 ; CDynamicPoolEx<NEffectUpdateDecorator::CTextureAnimationCCWDecorator> `RTTI Type Descriptor'
PUBLIC	??_R3?$CDynamicPoolEx@VCTextureAnimationCCWDecorator@NEffectUpdateDecorator@@@@8 ; CDynamicPoolEx<NEffectUpdateDecorator::CTextureAnimationCCWDecorator>::`RTTI Class Hierarchy Descriptor'
PUBLIC	??_R2?$CDynamicPoolEx@VCTextureAnimationCCWDecorator@NEffectUpdateDecorator@@@@8 ; CDynamicPoolEx<NEffectUpdateDecorator::CTextureAnimationCCWDecorator>::`RTTI Base Class Array'
PUBLIC	??_R1A@?0A@EA@?$CDynamicPoolEx@VCTextureAnimationCCWDecorator@NEffectUpdateDecorator@@@@8 ; CDynamicPoolEx<NEffectUpdateDecorator::CTextureAnimationCCWDecorator>::`RTTI Base Class Descriptor at (0,-1,0,64)'
PUBLIC	??_R4?$CDynamicPoolEx@VCTextureAnimationRandomDecorator@NEffectUpdateDecorator@@@@6B@ ; CDynamicPoolEx<NEffectUpdateDecorator::CTextureAnimationRandomDecorator>::`RTTI Complete Object Locator'
PUBLIC	??_R0?AV?$CDynamicPoolEx@VCTextureAnimationRandomDecorator@NEffectUpdateDecorator@@@@@8 ; CDynamicPoolEx<NEffectUpdateDecorator::CTextureAnimationRandomDecorator> `RTTI Type Descriptor'
PUBLIC	??_R3?$CDynamicPoolEx@VCTextureAnimationRandomDecorator@NEffectUpdateDecorator@@@@8 ; CDynamicPoolEx<NEffectUpdateDecorator::CTextureAnimationRandomDecorator>::`RTTI Class Hierarchy Descriptor'
PUBLIC	??_R2?$CDynamicPoolEx@VCTextureAnimationRandomDecorator@NEffectUpdateDecorator@@@@8 ; CDynamicPoolEx<NEffectUpdateDecorator::CTextureAnimationRandomDecorator>::`RTTI Base Class Array'
PUBLIC	??_R1A@?0A@EA@?$CDynamicPoolEx@VCTextureAnimationRandomDecorator@NEffectUpdateDecorator@@@@8 ; CDynamicPoolEx<NEffectUpdateDecorator::CTextureAnimationRandomDecorator>::`RTTI Base Class Descriptor at (0,-1,0,64)'
PUBLIC	??_R4?$CDynamicPoolEx@VCAirResistanceDecorator@NEffectUpdateDecorator@@@@6B@ ; CDynamicPoolEx<NEffectUpdateDecorator::CAirResistanceDecorator>::`RTTI Complete Object Locator'
PUBLIC	??_R0?AV?$CDynamicPoolEx@VCAirResistanceDecorator@NEffectUpdateDecorator@@@@@8 ; CDynamicPoolEx<NEffectUpdateDecorator::CAirResistanceDecorator> `RTTI Type Descriptor'
PUBLIC	??_R3?$CDynamicPoolEx@VCAirResistanceDecorator@NEffectUpdateDecorator@@@@8 ; CDynamicPoolEx<NEffectUpdateDecorator::CAirResistanceDecorator>::`RTTI Class Hierarchy Descriptor'
PUBLIC	??_R2?$CDynamicPoolEx@VCAirResistanceDecorator@NEffectUpdateDecorator@@@@8 ; CDynamicPoolEx<NEffectUpdateDecorator::CAirResistanceDecorator>::`RTTI Base Class Array'
PUBLIC	??_R1A@?0A@EA@?$CDynamicPoolEx@VCAirResistanceDecorator@NEffectUpdateDecorator@@@@8 ; CDynamicPoolEx<NEffectUpdateDecorator::CAirResistanceDecorator>::`RTTI Base Class Descriptor at (0,-1,0,64)'
PUBLIC	??_R4?$CDynamicPoolEx@VCGravityDecorator@NEffectUpdateDecorator@@@@6B@ ; CDynamicPoolEx<NEffectUpdateDecorator::CGravityDecorator>::`RTTI Complete Object Locator'
PUBLIC	??_R0?AV?$CDynamicPoolEx@VCGravityDecorator@NEffectUpdateDecorator@@@@@8 ; CDynamicPoolEx<NEffectUpdateDecorator::CGravityDecorator> `RTTI Type Descriptor'
PUBLIC	??_R3?$CDynamicPoolEx@VCGravityDecorator@NEffectUpdateDecorator@@@@8 ; CDynamicPoolEx<NEffectUpdateDecorator::CGravityDecorator>::`RTTI Class Hierarchy Descriptor'
PUBLIC	??_R2?$CDynamicPoolEx@VCGravityDecorator@NEffectUpdateDecorator@@@@8 ; CDynamicPoolEx<NEffectUpdateDecorator::CGravityDecorator>::`RTTI Base Class Array'
PUBLIC	??_R1A@?0A@EA@?$CDynamicPoolEx@VCGravityDecorator@NEffectUpdateDecorator@@@@8 ; CDynamicPoolEx<NEffectUpdateDecorator::CGravityDecorator>::`RTTI Base Class Descriptor at (0,-1,0,64)'
PUBLIC	??_R4?$CDynamicPoolEx@VCRotationDecorator@NEffectUpdateDecorator@@@@6B@ ; CDynamicPoolEx<NEffectUpdateDecorator::CRotationDecorator>::`RTTI Complete Object Locator'
PUBLIC	??_R0?AV?$CDynamicPoolEx@VCRotationDecorator@NEffectUpdateDecorator@@@@@8 ; CDynamicPoolEx<NEffectUpdateDecorator::CRotationDecorator> `RTTI Type Descriptor'
PUBLIC	??_R3?$CDynamicPoolEx@VCRotationDecorator@NEffectUpdateDecorator@@@@8 ; CDynamicPoolEx<NEffectUpdateDecorator::CRotationDecorator>::`RTTI Class Hierarchy Descriptor'
PUBLIC	??_R2?$CDynamicPoolEx@VCRotationDecorator@NEffectUpdateDecorator@@@@8 ; CDynamicPoolEx<NEffectUpdateDecorator::CRotationDecorator>::`RTTI Base Class Array'
PUBLIC	??_R1A@?0A@EA@?$CDynamicPoolEx@VCRotationDecorator@NEffectUpdateDecorator@@@@8 ; CDynamicPoolEx<NEffectUpdateDecorator::CRotationDecorator>::`RTTI Base Class Descriptor at (0,-1,0,64)'
PUBLIC	??_7?$CDynamicPoolEx@VCRotationDecorator@NEffectUpdateDecorator@@@@6B@ ; CDynamicPoolEx<NEffectUpdateDecorator::CRotationDecorator>::`vftable'
PUBLIC	??_G?$CDynamicPoolEx@VCRotationDecorator@NEffectUpdateDecorator@@@@UAEPAXI@Z ; CDynamicPoolEx<NEffectUpdateDecorator::CRotationDecorator>::`scalar deleting destructor'
PUBLIC	??_7?$CDynamicPoolEx@VCGravityDecorator@NEffectUpdateDecorator@@@@6B@ ; CDynamicPoolEx<NEffectUpdateDecorator::CGravityDecorator>::`vftable'
PUBLIC	??_G?$CDynamicPoolEx@VCGravityDecorator@NEffectUpdateDecorator@@@@UAEPAXI@Z ; CDynamicPoolEx<NEffectUpdateDecorator::CGravityDecorator>::`scalar deleting destructor'
PUBLIC	??_7?$CDynamicPoolEx@VCAirResistanceDecorator@NEffectUpdateDecorator@@@@6B@ ; CDynamicPoolEx<NEffectUpdateDecorator::CAirResistanceDecorator>::`vftable'
PUBLIC	??_G?$CDynamicPoolEx@VCAirResistanceDecorator@NEffectUpdateDecorator@@@@UAEPAXI@Z ; CDynamicPoolEx<NEffectUpdateDecorator::CAirResistanceDecorator>::`scalar deleting destructor'
PUBLIC	??_7?$CDynamicPoolEx@VCTextureAnimationRandomDecorator@NEffectUpdateDecorator@@@@6B@ ; CDynamicPoolEx<NEffectUpdateDecorator::CTextureAnimationRandomDecorator>::`vftable'
PUBLIC	??_G?$CDynamicPoolEx@VCTextureAnimationRandomDecorator@NEffectUpdateDecorator@@@@UAEPAXI@Z ; CDynamicPoolEx<NEffectUpdateDecorator::CTextureAnimationRandomDecorator>::`scalar deleting destructor'
PUBLIC	??_7?$CDynamicPoolEx@VCTextureAnimationCCWDecorator@NEffectUpdateDecorator@@@@6B@ ; CDynamicPoolEx<NEffectUpdateDecorator::CTextureAnimationCCWDecorator>::`vftable'
PUBLIC	??_G?$CDynamicPoolEx@VCTextureAnimationCCWDecorator@NEffectUpdateDecorator@@@@UAEPAXI@Z ; CDynamicPoolEx<NEffectUpdateDecorator::CTextureAnimationCCWDecorator>::`scalar deleting destructor'
PUBLIC	??_7?$CDynamicPoolEx@VCTextureAnimationCWDecorator@NEffectUpdateDecorator@@@@6B@ ; CDynamicPoolEx<NEffectUpdateDecorator::CTextureAnimationCWDecorator>::`vftable'
PUBLIC	??_G?$CDynamicPoolEx@VCTextureAnimationCWDecorator@NEffectUpdateDecorator@@@@UAEPAXI@Z ; CDynamicPoolEx<NEffectUpdateDecorator::CTextureAnimationCWDecorator>::`scalar deleting destructor'
PUBLIC	?g_fGameFPS@@3MA				; g_fGameFPS
PUBLIC	??_7?$CDynamicPoolEx@VCNullDecorator@NEffectUpdateDecorator@@@@6B@ ; CDynamicPoolEx<NEffectUpdateDecorator::CNullDecorator>::`vftable'
PUBLIC	??_G?$CDynamicPoolEx@VCNullDecorator@NEffectUpdateDecorator@@@@UAEPAXI@Z ; CDynamicPoolEx<NEffectUpdateDecorator::CNullDecorator>::`scalar deleting destructor'
PUBLIC	??_7?$CDynamicPoolEx@VCHeaderDecorator@NEffectUpdateDecorator@@@@6B@ ; CDynamicPoolEx<NEffectUpdateDecorator::CHeaderDecorator>::`vftable'
PUBLIC	??_G?$CDynamicPoolEx@VCHeaderDecorator@NEffectUpdateDecorator@@@@UAEPAXI@Z ; CDynamicPoolEx<NEffectUpdateDecorator::CHeaderDecorator>::`scalar deleting destructor'
PUBLIC	??_7?$CDynamicPool@USCollisionData@NRaceData@@@@6B@ ; CDynamicPool<NRaceData::SCollisionData>::`vftable'
PUBLIC	??_G?$CDynamicPool@USCollisionData@NRaceData@@@@UAEPAXI@Z ; CDynamicPool<NRaceData::SCollisionData>::`scalar deleting destructor'
EXTRN	??_E?$CDynamicPool@USAttachingEffectData@NRaceData@@@@UAEPAXI@Z:PROC ; CDynamicPool<NRaceData::SAttachingEffectData>::`vector deleting destructor'
EXTRN	??_7type_info@@6B@:QWORD			; type_info::`vftable'
EXTRN	??_E?$CDynamicPool@USAttachingObjectData@NRaceData@@@@UAEPAXI@Z:PROC ; CDynamicPool<NRaceData::SAttachingObjectData>::`vector deleting destructor'
EXTRN	??_E?$CDynamicPoolEx@VCRotationDecorator@NEffectUpdateDecorator@@@@UAEPAXI@Z:PROC ; CDynamicPoolEx<NEffectUpdateDecorator::CRotationDecorator>::`vector deleting destructor'
EXTRN	??_E?$CDynamicPoolEx@VCGravityDecorator@NEffectUpdateDecorator@@@@UAEPAXI@Z:PROC ; CDynamicPoolEx<NEffectUpdateDecorator::CGravityDecorator>::`vector deleting destructor'
EXTRN	??_E?$CDynamicPoolEx@VCAirResistanceDecorator@NEffectUpdateDecorator@@@@UAEPAXI@Z:PROC ; CDynamicPoolEx<NEffectUpdateDecorator::CAirResistanceDecorator>::`vector deleting destructor'
EXTRN	??_E?$CDynamicPoolEx@VCTextureAnimationRandomDecorator@NEffectUpdateDecorator@@@@UAEPAXI@Z:PROC ; CDynamicPoolEx<NEffectUpdateDecorator::CTextureAnimationRandomDecorator>::`vector deleting destructor'
EXTRN	??_E?$CDynamicPoolEx@VCTextureAnimationCCWDecorator@NEffectUpdateDecorator@@@@UAEPAXI@Z:PROC ; CDynamicPoolEx<NEffectUpdateDecorator::CTextureAnimationCCWDecorator>::`vector deleting destructor'
EXTRN	??_E?$CDynamicPoolEx@VCTextureAnimationCWDecorator@NEffectUpdateDecorator@@@@UAEPAXI@Z:PROC ; CDynamicPoolEx<NEffectUpdateDecorator::CTextureAnimationCWDecorator>::`vector deleting destructor'
EXTRN	??_E?$CDynamicPoolEx@VCNullDecorator@NEffectUpdateDecorator@@@@UAEPAXI@Z:PROC ; CDynamicPoolEx<NEffectUpdateDecorator::CNullDecorator>::`vector deleting destructor'
EXTRN	??_E?$CDynamicPoolEx@VCHeaderDecorator@NEffectUpdateDecorator@@@@UAEPAXI@Z:PROC ; CDynamicPoolEx<NEffectUpdateDecorator::CHeaderDecorator>::`vector deleting destructor'
EXTRN	??_E?$CDynamicPool@USCollisionData@NRaceData@@@@UAEPAXI@Z:PROC ; CDynamicPool<NRaceData::SCollisionData>::`vector deleting destructor'
;	COMDAT ??_7?$CDynamicPool@USCollisionData@NRaceData@@@@6B@
CONST	SEGMENT
??_7?$CDynamicPool@USCollisionData@NRaceData@@@@6B@ DD FLAT:??_R4?$CDynamicPool@USCollisionData@NRaceData@@@@6B@ ; CDynamicPool<NRaceData::SCollisionData>::`vftable'
	DD	FLAT:??_E?$CDynamicPool@USCollisionData@NRaceData@@@@UAEPAXI@Z
CONST	ENDS
;	COMDAT ??_7?$CDynamicPoolEx@VCHeaderDecorator@NEffectUpdateDecorator@@@@6B@
CONST	SEGMENT
??_7?$CDynamicPoolEx@VCHeaderDecorator@NEffectUpdateDecorator@@@@6B@ DD FLAT:??_R4?$CDynamicPoolEx@VCHeaderDecorator@NEffectUpdateDecorator@@@@6B@ ; CDynamicPoolEx<NEffectUpdateDecorator::CHeaderDecorator>::`vftable'
	DD	FLAT:??_E?$CDynamicPoolEx@VCHeaderDecorator@NEffectUpdateDecorator@@@@UAEPAXI@Z
CONST	ENDS
;	COMDAT ??_7?$CDynamicPoolEx@VCNullDecorator@NEffectUpdateDecorator@@@@6B@
CONST	SEGMENT
??_7?$CDynamicPoolEx@VCNullDecorator@NEffectUpdateDecorator@@@@6B@ DD FLAT:??_R4?$CDynamicPoolEx@VCNullDecorator@NEffectUpdateDecorator@@@@6B@ ; CDynamicPoolEx<NEffectUpdateDecorator::CNullDecorator>::`vftable'
	DD	FLAT:??_E?$CDynamicPoolEx@VCNullDecorator@NEffectUpdateDecorator@@@@UAEPAXI@Z
CONST	ENDS
_DATA	SEGMENT
?g_fGameFPS@@3MA DD 042700000r			; 60	; g_fGameFPS
_DATA	ENDS
;	COMDAT ??_7?$CDynamicPoolEx@VCTextureAnimationCWDecorator@NEffectUpdateDecorator@@@@6B@
CONST	SEGMENT
??_7?$CDynamicPoolEx@VCTextureAnimationCWDecorator@NEffectUpdateDecorator@@@@6B@ DD FLAT:??_R4?$CDynamicPoolEx@VCTextureAnimationCWDecorator@NEffectUpdateDecorator@@@@6B@ ; CDynamicPoolEx<NEffectUpdateDecorator::CTextureAnimationCWDecorator>::`vftable'
	DD	FLAT:??_E?$CDynamicPoolEx@VCTextureAnimationCWDecorator@NEffectUpdateDecorator@@@@UAEPAXI@Z
CONST	ENDS
;	COMDAT ??_7?$CDynamicPoolEx@VCTextureAnimationCCWDecorator@NEffectUpdateDecorator@@@@6B@
CONST	SEGMENT
??_7?$CDynamicPoolEx@VCTextureAnimationCCWDecorator@NEffectUpdateDecorator@@@@6B@ DD FLAT:??_R4?$CDynamicPoolEx@VCTextureAnimationCCWDecorator@NEffectUpdateDecorator@@@@6B@ ; CDynamicPoolEx<NEffectUpdateDecorator::CTextureAnimationCCWDecorator>::`vftable'
	DD	FLAT:??_E?$CDynamicPoolEx@VCTextureAnimationCCWDecorator@NEffectUpdateDecorator@@@@UAEPAXI@Z
CONST	ENDS
;	COMDAT ??_7?$CDynamicPoolEx@VCTextureAnimationRandomDecorator@NEffectUpdateDecorator@@@@6B@
CONST	SEGMENT
??_7?$CDynamicPoolEx@VCTextureAnimationRandomDecorator@NEffectUpdateDecorator@@@@6B@ DD FLAT:??_R4?$CDynamicPoolEx@VCTextureAnimationRandomDecorator@NEffectUpdateDecorator@@@@6B@ ; CDynamicPoolEx<NEffectUpdateDecorator::CTextureAnimationRandomDecorator>::`vftable'
	DD	FLAT:??_E?$CDynamicPoolEx@VCTextureAnimationRandomDecorator@NEffectUpdateDecorator@@@@UAEPAXI@Z
CONST	ENDS
;	COMDAT ??_7?$CDynamicPoolEx@VCAirResistanceDecorator@NEffectUpdateDecorator@@@@6B@
CONST	SEGMENT
??_7?$CDynamicPoolEx@VCAirResistanceDecorator@NEffectUpdateDecorator@@@@6B@ DD FLAT:??_R4?$CDynamicPoolEx@VCAirResistanceDecorator@NEffectUpdateDecorator@@@@6B@ ; CDynamicPoolEx<NEffectUpdateDecorator::CAirResistanceDecorator>::`vftable'
	DD	FLAT:??_E?$CDynamicPoolEx@VCAirResistanceDecorator@NEffectUpdateDecorator@@@@UAEPAXI@Z
CONST	ENDS
;	COMDAT ??_7?$CDynamicPoolEx@VCGravityDecorator@NEffectUpdateDecorator@@@@6B@
CONST	SEGMENT
??_7?$CDynamicPoolEx@VCGravityDecorator@NEffectUpdateDecorator@@@@6B@ DD FLAT:??_R4?$CDynamicPoolEx@VCGravityDecorator@NEffectUpdateDecorator@@@@6B@ ; CDynamicPoolEx<NEffectUpdateDecorator::CGravityDecorator>::`vftable'
	DD	FLAT:??_E?$CDynamicPoolEx@VCGravityDecorator@NEffectUpdateDecorator@@@@UAEPAXI@Z
CONST	ENDS
;	COMDAT ??_7?$CDynamicPoolEx@VCRotationDecorator@NEffectUpdateDecorator@@@@6B@
CONST	SEGMENT
??_7?$CDynamicPoolEx@VCRotationDecorator@NEffectUpdateDecorator@@@@6B@ DD FLAT:??_R4?$CDynamicPoolEx@VCRotationDecorator@NEffectUpdateDecorator@@@@6B@ ; CDynamicPoolEx<NEffectUpdateDecorator::CRotationDecorator>::`vftable'
	DD	FLAT:??_E?$CDynamicPoolEx@VCRotationDecorator@NEffectUpdateDecorator@@@@UAEPAXI@Z
CONST	ENDS
;	COMDAT ??_R1A@?0A@EA@?$CDynamicPoolEx@VCRotationDecorator@NEffectUpdateDecorator@@@@8
rdata$r	SEGMENT
??_R1A@?0A@EA@?$CDynamicPoolEx@VCRotationDecorator@NEffectUpdateDecorator@@@@8 DD FLAT:??_R0?AV?$CDynamicPoolEx@VCRotationDecorator@NEffectUpdateDecorator@@@@@8 ; CDynamicPoolEx<NEffectUpdateDecorator::CRotationDecorator>::`RTTI Base Class Descriptor at (0,-1,0,64)'
	DD	00H
	DD	00H
	DD	0ffffffffH
	DD	00H
	DD	040H
	DD	FLAT:??_R3?$CDynamicPoolEx@VCRotationDecorator@NEffectUpdateDecorator@@@@8
rdata$r	ENDS
;	COMDAT ??_R2?$CDynamicPoolEx@VCRotationDecorator@NEffectUpdateDecorator@@@@8
rdata$r	SEGMENT
??_R2?$CDynamicPoolEx@VCRotationDecorator@NEffectUpdateDecorator@@@@8 DD FLAT:??_R1A@?0A@EA@?$CDynamicPoolEx@VCRotationDecorator@NEffectUpdateDecorator@@@@8 ; CDynamicPoolEx<NEffectUpdateDecorator::CRotationDecorator>::`RTTI Base Class Array'
rdata$r	ENDS
;	COMDAT ??_R3?$CDynamicPoolEx@VCRotationDecorator@NEffectUpdateDecorator@@@@8
rdata$r	SEGMENT
??_R3?$CDynamicPoolEx@VCRotationDecorator@NEffectUpdateDecorator@@@@8 DD 00H ; CDynamicPoolEx<NEffectUpdateDecorator::CRotationDecorator>::`RTTI Class Hierarchy Descriptor'
	DD	00H
	DD	01H
	DD	FLAT:??_R2?$CDynamicPoolEx@VCRotationDecorator@NEffectUpdateDecorator@@@@8
rdata$r	ENDS
;	COMDAT ??_R0?AV?$CDynamicPoolEx@VCRotationDecorator@NEffectUpdateDecorator@@@@@8
data$r	SEGMENT
??_R0?AV?$CDynamicPoolEx@VCRotationDecorator@NEffectUpdateDecorator@@@@@8 DD FLAT:??_7type_info@@6B@ ; CDynamicPoolEx<NEffectUpdateDecorator::CRotationDecorator> `RTTI Type Descriptor'
	DD	00H
	DB	'.?AV?$CDynamicPoolEx@VCRotationDecorator@NEffectUpdateDe'
	DB	'corator@@@@', 00H
data$r	ENDS
;	COMDAT ??_R4?$CDynamicPoolEx@VCRotationDecorator@NEffectUpdateDecorator@@@@6B@
rdata$r	SEGMENT
??_R4?$CDynamicPoolEx@VCRotationDecorator@NEffectUpdateDecorator@@@@6B@ DD 00H ; CDynamicPoolEx<NEffectUpdateDecorator::CRotationDecorator>::`RTTI Complete Object Locator'
	DD	00H
	DD	00H
	DD	FLAT:??_R0?AV?$CDynamicPoolEx@VCRotationDecorator@NEffectUpdateDecorator@@@@@8
	DD	FLAT:??_R3?$CDynamicPoolEx@VCRotationDecorator@NEffectUpdateDecorator@@@@8
rdata$r	ENDS
;	COMDAT ??_R1A@?0A@EA@?$CDynamicPoolEx@VCGravityDecorator@NEffectUpdateDecorator@@@@8
rdata$r	SEGMENT
??_R1A@?0A@EA@?$CDynamicPoolEx@VCGravityDecorator@NEffectUpdateDecorator@@@@8 DD FLAT:??_R0?AV?$CDynamicPoolEx@VCGravityDecorator@NEffectUpdateDecorator@@@@@8 ; CDynamicPoolEx<NEffectUpdateDecorator::CGravityDecorator>::`RTTI Base Class Descriptor at (0,-1,0,64)'
	DD	00H
	DD	00H
	DD	0ffffffffH
	DD	00H
	DD	040H
	DD	FLAT:??_R3?$CDynamicPoolEx@VCGravityDecorator@NEffectUpdateDecorator@@@@8
rdata$r	ENDS
;	COMDAT ??_R2?$CDynamicPoolEx@VCGravityDecorator@NEffectUpdateDecorator@@@@8
rdata$r	SEGMENT
??_R2?$CDynamicPoolEx@VCGravityDecorator@NEffectUpdateDecorator@@@@8 DD FLAT:??_R1A@?0A@EA@?$CDynamicPoolEx@VCGravityDecorator@NEffectUpdateDecorator@@@@8 ; CDynamicPoolEx<NEffectUpdateDecorator::CGravityDecorator>::`RTTI Base Class Array'
rdata$r	ENDS
;	COMDAT ??_R3?$CDynamicPoolEx@VCGravityDecorator@NEffectUpdateDecorator@@@@8
rdata$r	SEGMENT
??_R3?$CDynamicPoolEx@VCGravityDecorator@NEffectUpdateDecorator@@@@8 DD 00H ; CDynamicPoolEx<NEffectUpdateDecorator::CGravityDecorator>::`RTTI Class Hierarchy Descriptor'
	DD	00H
	DD	01H
	DD	FLAT:??_R2?$CDynamicPoolEx@VCGravityDecorator@NEffectUpdateDecorator@@@@8
rdata$r	ENDS
;	COMDAT ??_R0?AV?$CDynamicPoolEx@VCGravityDecorator@NEffectUpdateDecorator@@@@@8
data$r	SEGMENT
??_R0?AV?$CDynamicPoolEx@VCGravityDecorator@NEffectUpdateDecorator@@@@@8 DD FLAT:??_7type_info@@6B@ ; CDynamicPoolEx<NEffectUpdateDecorator::CGravityDecorator> `RTTI Type Descriptor'
	DD	00H
	DB	'.?AV?$CDynamicPoolEx@VCGravityDecorator@NEffectUpdateDec'
	DB	'orator@@@@', 00H
data$r	ENDS
;	COMDAT ??_R4?$CDynamicPoolEx@VCGravityDecorator@NEffectUpdateDecorator@@@@6B@
rdata$r	SEGMENT
??_R4?$CDynamicPoolEx@VCGravityDecorator@NEffectUpdateDecorator@@@@6B@ DD 00H ; CDynamicPoolEx<NEffectUpdateDecorator::CGravityDecorator>::`RTTI Complete Object Locator'
	DD	00H
	DD	00H
	DD	FLAT:??_R0?AV?$CDynamicPoolEx@VCGravityDecorator@NEffectUpdateDecorator@@@@@8
	DD	FLAT:??_R3?$CDynamicPoolEx@VCGravityDecorator@NEffectUpdateDecorator@@@@8
rdata$r	ENDS
;	COMDAT ??_R1A@?0A@EA@?$CDynamicPoolEx@VCAirResistanceDecorator@NEffectUpdateDecorator@@@@8
rdata$r	SEGMENT
??_R1A@?0A@EA@?$CDynamicPoolEx@VCAirResistanceDecorator@NEffectUpdateDecorator@@@@8 DD FLAT:??_R0?AV?$CDynamicPoolEx@VCAirResistanceDecorator@NEffectUpdateDecorator@@@@@8 ; CDynamicPoolEx<NEffectUpdateDecorator::CAirResistanceDecorator>::`RTTI Base Class Descriptor at (0,-1,0,64)'
	DD	00H
	DD	00H
	DD	0ffffffffH
	DD	00H
	DD	040H
	DD	FLAT:??_R3?$CDynamicPoolEx@VCAirResistanceDecorator@NEffectUpdateDecorator@@@@8
rdata$r	ENDS
;	COMDAT ??_R2?$CDynamicPoolEx@VCAirResistanceDecorator@NEffectUpdateDecorator@@@@8
rdata$r	SEGMENT
??_R2?$CDynamicPoolEx@VCAirResistanceDecorator@NEffectUpdateDecorator@@@@8 DD FLAT:??_R1A@?0A@EA@?$CDynamicPoolEx@VCAirResistanceDecorator@NEffectUpdateDecorator@@@@8 ; CDynamicPoolEx<NEffectUpdateDecorator::CAirResistanceDecorator>::`RTTI Base Class Array'
rdata$r	ENDS
;	COMDAT ??_R3?$CDynamicPoolEx@VCAirResistanceDecorator@NEffectUpdateDecorator@@@@8
rdata$r	SEGMENT
??_R3?$CDynamicPoolEx@VCAirResistanceDecorator@NEffectUpdateDecorator@@@@8 DD 00H ; CDynamicPoolEx<NEffectUpdateDecorator::CAirResistanceDecorator>::`RTTI Class Hierarchy Descriptor'
	DD	00H
	DD	01H
	DD	FLAT:??_R2?$CDynamicPoolEx@VCAirResistanceDecorator@NEffectUpdateDecorator@@@@8
rdata$r	ENDS
;	COMDAT ??_R0?AV?$CDynamicPoolEx@VCAirResistanceDecorator@NEffectUpdateDecorator@@@@@8
data$r	SEGMENT
??_R0?AV?$CDynamicPoolEx@VCAirResistanceDecorator@NEffectUpdateDecorator@@@@@8 DD FLAT:??_7type_info@@6B@ ; CDynamicPoolEx<NEffectUpdateDecorator::CAirResistanceDecorator> `RTTI Type Descriptor'
	DD	00H
	DB	'.?AV?$CDynamicPoolEx@VCAirResistanceDecorator@NEffectUpd'
	DB	'ateDecorator@@@@', 00H
data$r	ENDS
;	COMDAT ??_R4?$CDynamicPoolEx@VCAirResistanceDecorator@NEffectUpdateDecorator@@@@6B@
rdata$r	SEGMENT
??_R4?$CDynamicPoolEx@VCAirResistanceDecorator@NEffectUpdateDecorator@@@@6B@ DD 00H ; CDynamicPoolEx<NEffectUpdateDecorator::CAirResistanceDecorator>::`RTTI Complete Object Locator'
	DD	00H
	DD	00H
	DD	FLAT:??_R0?AV?$CDynamicPoolEx@VCAirResistanceDecorator@NEffectUpdateDecorator@@@@@8
	DD	FLAT:??_R3?$CDynamicPoolEx@VCAirResistanceDecorator@NEffectUpdateDecorator@@@@8
rdata$r	ENDS
;	COMDAT ??_R1A@?0A@EA@?$CDynamicPoolEx@VCTextureAnimationRandomDecorator@NEffectUpdateDecorator@@@@8
rdata$r	SEGMENT
??_R1A@?0A@EA@?$CDynamicPoolEx@VCTextureAnimationRandomDecorator@NEffectUpdateDecorator@@@@8 DD FLAT:??_R0?AV?$CDynamicPoolEx@VCTextureAnimationRandomDecorator@NEffectUpdateDecorator@@@@@8 ; CDynamicPoolEx<NEffectUpdateDecorator::CTextureAnimationRandomDecorator>::`RTTI Base Class Descriptor at (0,-1,0,64)'
	DD	00H
	DD	00H
	DD	0ffffffffH
	DD	00H
	DD	040H
	DD	FLAT:??_R3?$CDynamicPoolEx@VCTextureAnimationRandomDecorator@NEffectUpdateDecorator@@@@8
rdata$r	ENDS
;	COMDAT ??_R2?$CDynamicPoolEx@VCTextureAnimationRandomDecorator@NEffectUpdateDecorator@@@@8
rdata$r	SEGMENT
??_R2?$CDynamicPoolEx@VCTextureAnimationRandomDecorator@NEffectUpdateDecorator@@@@8 DD FLAT:??_R1A@?0A@EA@?$CDynamicPoolEx@VCTextureAnimationRandomDecorator@NEffectUpdateDecorator@@@@8 ; CDynamicPoolEx<NEffectUpdateDecorator::CTextureAnimationRandomDecorator>::`RTTI Base Class Array'
rdata$r	ENDS
;	COMDAT ??_R3?$CDynamicPoolEx@VCTextureAnimationRandomDecorator@NEffectUpdateDecorator@@@@8
rdata$r	SEGMENT
??_R3?$CDynamicPoolEx@VCTextureAnimationRandomDecorator@NEffectUpdateDecorator@@@@8 DD 00H ; CDynamicPoolEx<NEffectUpdateDecorator::CTextureAnimationRandomDecorator>::`RTTI Class Hierarchy Descriptor'
	DD	00H
	DD	01H
	DD	FLAT:??_R2?$CDynamicPoolEx@VCTextureAnimationRandomDecorator@NEffectUpdateDecorator@@@@8
rdata$r	ENDS
;	COMDAT ??_R0?AV?$CDynamicPoolEx@VCTextureAnimationRandomDecorator@NEffectUpdateDecorator@@@@@8
data$r	SEGMENT
??_R0?AV?$CDynamicPoolEx@VCTextureAnimationRandomDecorator@NEffectUpdateDecorator@@@@@8 DD FLAT:??_7type_info@@6B@ ; CDynamicPoolEx<NEffectUpdateDecorator::CTextureAnimationRandomDecorator> `RTTI Type Descriptor'
	DD	00H
	DB	'.?AV?$CDynamicPoolEx@VCTextureAnimationRandomDecorator@N'
	DB	'EffectUpdateDecorator@@@@', 00H
data$r	ENDS
;	COMDAT ??_R4?$CDynamicPoolEx@VCTextureAnimationRandomDecorator@NEffectUpdateDecorator@@@@6B@
rdata$r	SEGMENT
??_R4?$CDynamicPoolEx@VCTextureAnimationRandomDecorator@NEffectUpdateDecorator@@@@6B@ DD 00H ; CDynamicPoolEx<NEffectUpdateDecorator::CTextureAnimationRandomDecorator>::`RTTI Complete Object Locator'
	DD	00H
	DD	00H
	DD	FLAT:??_R0?AV?$CDynamicPoolEx@VCTextureAnimationRandomDecorator@NEffectUpdateDecorator@@@@@8
	DD	FLAT:??_R3?$CDynamicPoolEx@VCTextureAnimationRandomDecorator@NEffectUpdateDecorator@@@@8
rdata$r	ENDS
;	COMDAT ??_R1A@?0A@EA@?$CDynamicPoolEx@VCTextureAnimationCCWDecorator@NEffectUpdateDecorator@@@@8
rdata$r	SEGMENT
??_R1A@?0A@EA@?$CDynamicPoolEx@VCTextureAnimationCCWDecorator@NEffectUpdateDecorator@@@@8 DD FLAT:??_R0?AV?$CDynamicPoolEx@VCTextureAnimationCCWDecorator@NEffectUpdateDecorator@@@@@8 ; CDynamicPoolEx<NEffectUpdateDecorator::CTextureAnimationCCWDecorator>::`RTTI Base Class Descriptor at (0,-1,0,64)'
	DD	00H
	DD	00H
	DD	0ffffffffH
	DD	00H
	DD	040H
	DD	FLAT:??_R3?$CDynamicPoolEx@VCTextureAnimationCCWDecorator@NEffectUpdateDecorator@@@@8
rdata$r	ENDS
;	COMDAT ??_R2?$CDynamicPoolEx@VCTextureAnimationCCWDecorator@NEffectUpdateDecorator@@@@8
rdata$r	SEGMENT
??_R2?$CDynamicPoolEx@VCTextureAnimationCCWDecorator@NEffectUpdateDecorator@@@@8 DD FLAT:??_R1A@?0A@EA@?$CDynamicPoolEx@VCTextureAnimationCCWDecorator@NEffectUpdateDecorator@@@@8 ; CDynamicPoolEx<NEffectUpdateDecorator::CTextureAnimationCCWDecorator>::`RTTI Base Class Array'
rdata$r	ENDS
;	COMDAT ??_R3?$CDynamicPoolEx@VCTextureAnimationCCWDecorator@NEffectUpdateDecorator@@@@8
rdata$r	SEGMENT
??_R3?$CDynamicPoolEx@VCTextureAnimationCCWDecorator@NEffectUpdateDecorator@@@@8 DD 00H ; CDynamicPoolEx<NEffectUpdateDecorator::CTextureAnimationCCWDecorator>::`RTTI Class Hierarchy Descriptor'
	DD	00H
	DD	01H
	DD	FLAT:??_R2?$CDynamicPoolEx@VCTextureAnimationCCWDecorator@NEffectUpdateDecorator@@@@8
rdata$r	ENDS
;	COMDAT ??_R0?AV?$CDynamicPoolEx@VCTextureAnimationCCWDecorator@NEffectUpdateDecorator@@@@@8
data$r	SEGMENT
??_R0?AV?$CDynamicPoolEx@VCTextureAnimationCCWDecorator@NEffectUpdateDecorator@@@@@8 DD FLAT:??_7type_info@@6B@ ; CDynamicPoolEx<NEffectUpdateDecorator::CTextureAnimationCCWDecorator> `RTTI Type Descriptor'
	DD	00H
	DB	'.?AV?$CDynamicPoolEx@VCTextureAnimationCCWDecorator@NEff'
	DB	'ectUpdateDecorator@@@@', 00H
data$r	ENDS
;	COMDAT ??_R4?$CDynamicPoolEx@VCTextureAnimationCCWDecorator@NEffectUpdateDecorator@@@@6B@
rdata$r	SEGMENT
??_R4?$CDynamicPoolEx@VCTextureAnimationCCWDecorator@NEffectUpdateDecorator@@@@6B@ DD 00H ; CDynamicPoolEx<NEffectUpdateDecorator::CTextureAnimationCCWDecorator>::`RTTI Complete Object Locator'
	DD	00H
	DD	00H
	DD	FLAT:??_R0?AV?$CDynamicPoolEx@VCTextureAnimationCCWDecorator@NEffectUpdateDecorator@@@@@8
	DD	FLAT:??_R3?$CDynamicPoolEx@VCTextureAnimationCCWDecorator@NEffectUpdateDecorator@@@@8
rdata$r	ENDS
;	COMDAT ??_R1A@?0A@EA@?$CDynamicPoolEx@VCTextureAnimationCWDecorator@NEffectUpdateDecorator@@@@8
rdata$r	SEGMENT
??_R1A@?0A@EA@?$CDynamicPoolEx@VCTextureAnimationCWDecorator@NEffectUpdateDecorator@@@@8 DD FLAT:??_R0?AV?$CDynamicPoolEx@VCTextureAnimationCWDecorator@NEffectUpdateDecorator@@@@@8 ; CDynamicPoolEx<NEffectUpdateDecorator::CTextureAnimationCWDecorator>::`RTTI Base Class Descriptor at (0,-1,0,64)'
	DD	00H
	DD	00H
	DD	0ffffffffH
	DD	00H
	DD	040H
	DD	FLAT:??_R3?$CDynamicPoolEx@VCTextureAnimationCWDecorator@NEffectUpdateDecorator@@@@8
rdata$r	ENDS
;	COMDAT ??_R2?$CDynamicPoolEx@VCTextureAnimationCWDecorator@NEffectUpdateDecorator@@@@8
rdata$r	SEGMENT
??_R2?$CDynamicPoolEx@VCTextureAnimationCWDecorator@NEffectUpdateDecorator@@@@8 DD FLAT:??_R1A@?0A@EA@?$CDynamicPoolEx@VCTextureAnimationCWDecorator@NEffectUpdateDecorator@@@@8 ; CDynamicPoolEx<NEffectUpdateDecorator::CTextureAnimationCWDecorator>::`RTTI Base Class Array'
rdata$r	ENDS
;	COMDAT ??_R3?$CDynamicPoolEx@VCTextureAnimationCWDecorator@NEffectUpdateDecorator@@@@8
rdata$r	SEGMENT
??_R3?$CDynamicPoolEx@VCTextureAnimationCWDecorator@NEffectUpdateDecorator@@@@8 DD 00H ; CDynamicPoolEx<NEffectUpdateDecorator::CTextureAnimationCWDecorator>::`RTTI Class Hierarchy Descriptor'
	DD	00H
	DD	01H
	DD	FLAT:??_R2?$CDynamicPoolEx@VCTextureAnimationCWDecorator@NEffectUpdateDecorator@@@@8
rdata$r	ENDS
;	COMDAT ??_R0?AV?$CDynamicPoolEx@VCTextureAnimationCWDecorator@NEffectUpdateDecorator@@@@@8
data$r	SEGMENT
??_R0?AV?$CDynamicPoolEx@VCTextureAnimationCWDecorator@NEffectUpdateDecorator@@@@@8 DD FLAT:??_7type_info@@6B@ ; CDynamicPoolEx<NEffectUpdateDecorator::CTextureAnimationCWDecorator> `RTTI Type Descriptor'
	DD	00H
	DB	'.?AV?$CDynamicPoolEx@VCTextureAnimationCWDecorator@NEffe'
	DB	'ctUpdateDecorator@@@@', 00H
data$r	ENDS
;	COMDAT ??_R4?$CDynamicPoolEx@VCTextureAnimationCWDecorator@NEffectUpdateDecorator@@@@6B@
rdata$r	SEGMENT
??_R4?$CDynamicPoolEx@VCTextureAnimationCWDecorator@NEffectUpdateDecorator@@@@6B@ DD 00H ; CDynamicPoolEx<NEffectUpdateDecorator::CTextureAnimationCWDecorator>::`RTTI Complete Object Locator'
	DD	00H
	DD	00H
	DD	FLAT:??_R0?AV?$CDynamicPoolEx@VCTextureAnimationCWDecorator@NEffectUpdateDecorator@@@@@8
	DD	FLAT:??_R3?$CDynamicPoolEx@VCTextureAnimationCWDecorator@NEffectUpdateDecorator@@@@8
rdata$r	ENDS
;	COMDAT ??_R1A@?0A@EA@?$CDynamicPoolEx@VCNullDecorator@NEffectUpdateDecorator@@@@8
rdata$r	SEGMENT
??_R1A@?0A@EA@?$CDynamicPoolEx@VCNullDecorator@NEffectUpdateDecorator@@@@8 DD FLAT:??_R0?AV?$CDynamicPoolEx@VCNullDecorator@NEffectUpdateDecorator@@@@@8 ; CDynamicPoolEx<NEffectUpdateDecorator::CNullDecorator>::`RTTI Base Class Descriptor at (0,-1,0,64)'
	DD	00H
	DD	00H
	DD	0ffffffffH
	DD	00H
	DD	040H
	DD	FLAT:??_R3?$CDynamicPoolEx@VCNullDecorator@NEffectUpdateDecorator@@@@8
rdata$r	ENDS
;	COMDAT ??_R2?$CDynamicPoolEx@VCNullDecorator@NEffectUpdateDecorator@@@@8
rdata$r	SEGMENT
??_R2?$CDynamicPoolEx@VCNullDecorator@NEffectUpdateDecorator@@@@8 DD FLAT:??_R1A@?0A@EA@?$CDynamicPoolEx@VCNullDecorator@NEffectUpdateDecorator@@@@8 ; CDynamicPoolEx<NEffectUpdateDecorator::CNullDecorator>::`RTTI Base Class Array'
rdata$r	ENDS
;	COMDAT ??_R3?$CDynamicPoolEx@VCNullDecorator@NEffectUpdateDecorator@@@@8
rdata$r	SEGMENT
??_R3?$CDynamicPoolEx@VCNullDecorator@NEffectUpdateDecorator@@@@8 DD 00H ; CDynamicPoolEx<NEffectUpdateDecorator::CNullDecorator>::`RTTI Class Hierarchy Descriptor'
	DD	00H
	DD	01H
	DD	FLAT:??_R2?$CDynamicPoolEx@VCNullDecorator@NEffectUpdateDecorator@@@@8
rdata$r	ENDS
;	COMDAT ??_R0?AV?$CDynamicPoolEx@VCNullDecorator@NEffectUpdateDecorator@@@@@8
data$r	SEGMENT
??_R0?AV?$CDynamicPoolEx@VCNullDecorator@NEffectUpdateDecorator@@@@@8 DD FLAT:??_7type_info@@6B@ ; CDynamicPoolEx<NEffectUpdateDecorator::CNullDecorator> `RTTI Type Descriptor'
	DD	00H
	DB	'.?AV?$CDynamicPoolEx@VCNullDecorator@NEffectUpdateDecora'
	DB	'tor@@@@', 00H
data$r	ENDS
;	COMDAT ??_R4?$CDynamicPoolEx@VCNullDecorator@NEffectUpdateDecorator@@@@6B@
rdata$r	SEGMENT
??_R4?$CDynamicPoolEx@VCNullDecorator@NEffectUpdateDecorator@@@@6B@ DD 00H ; CDynamicPoolEx<NEffectUpdateDecorator::CNullDecorator>::`RTTI Complete Object Locator'
	DD	00H
	DD	00H
	DD	FLAT:??_R0?AV?$CDynamicPoolEx@VCNullDecorator@NEffectUpdateDecorator@@@@@8
	DD	FLAT:??_R3?$CDynamicPoolEx@VCNullDecorator@NEffectUpdateDecorator@@@@8
rdata$r	ENDS
;	COMDAT ??_R1A@?0A@EA@?$CDynamicPoolEx@VCHeaderDecorator@NEffectUpdateDecorator@@@@8
rdata$r	SEGMENT
??_R1A@?0A@EA@?$CDynamicPoolEx@VCHeaderDecorator@NEffectUpdateDecorator@@@@8 DD FLAT:??_R0?AV?$CDynamicPoolEx@VCHeaderDecorator@NEffectUpdateDecorator@@@@@8 ; CDynamicPoolEx<NEffectUpdateDecorator::CHeaderDecorator>::`RTTI Base Class Descriptor at (0,-1,0,64)'
	DD	00H
	DD	00H
	DD	0ffffffffH
	DD	00H
	DD	040H
	DD	FLAT:??_R3?$CDynamicPoolEx@VCHeaderDecorator@NEffectUpdateDecorator@@@@8
rdata$r	ENDS
;	COMDAT ??_R2?$CDynamicPoolEx@VCHeaderDecorator@NEffectUpdateDecorator@@@@8
rdata$r	SEGMENT
??_R2?$CDynamicPoolEx@VCHeaderDecorator@NEffectUpdateDecorator@@@@8 DD FLAT:??_R1A@?0A@EA@?$CDynamicPoolEx@VCHeaderDecorator@NEffectUpdateDecorator@@@@8 ; CDynamicPoolEx<NEffectUpdateDecorator::CHeaderDecorator>::`RTTI Base Class Array'
rdata$r	ENDS
;	COMDAT ??_R3?$CDynamicPoolEx@VCHeaderDecorator@NEffectUpdateDecorator@@@@8
rdata$r	SEGMENT
??_R3?$CDynamicPoolEx@VCHeaderDecorator@NEffectUpdateDecorator@@@@8 DD 00H ; CDynamicPoolEx<NEffectUpdateDecorator::CHeaderDecorator>::`RTTI Class Hierarchy Descriptor'
	DD	00H
	DD	01H
	DD	FLAT:??_R2?$CDynamicPoolEx@VCHeaderDecorator@NEffectUpdateDecorator@@@@8
rdata$r	ENDS
;	COMDAT ??_R0?AV?$CDynamicPoolEx@VCHeaderDecorator@NEffectUpdateDecorator@@@@@8
data$r	SEGMENT
??_R0?AV?$CDynamicPoolEx@VCHeaderDecorator@NEffectUpdateDecorator@@@@@8 DD FLAT:??_7type_info@@6B@ ; CDynamicPoolEx<NEffectUpdateDecorator::CHeaderDecorator> `RTTI Type Descriptor'
	DD	00H
	DB	'.?AV?$CDynamicPoolEx@VCHeaderDecorator@NEffectUpdateDeco'
	DB	'rator@@@@', 00H
data$r	ENDS
;	COMDAT ??_R4?$CDynamicPoolEx@VCHeaderDecorator@NEffectUpdateDecorator@@@@6B@
rdata$r	SEGMENT
??_R4?$CDynamicPoolEx@VCHeaderDecorator@NEffectUpdateDecorator@@@@6B@ DD 00H ; CDynamicPoolEx<NEffectUpdateDecorator::CHeaderDecorator>::`RTTI Complete Object Locator'
	DD	00H
	DD	00H
	DD	FLAT:??_R0?AV?$CDynamicPoolEx@VCHeaderDecorator@NEffectUpdateDecorator@@@@@8
	DD	FLAT:??_R3?$CDynamicPoolEx@VCHeaderDecorator@NEffectUpdateDecorator@@@@8
rdata$r	ENDS
;	COMDAT ??_R1A@?0A@EA@?$CDynamicPool@USAttachingObjectData@NRaceData@@@@8
rdata$r	SEGMENT
??_R1A@?0A@EA@?$CDynamicPool@USAttachingObjectData@NRaceData@@@@8 DD FLAT:??_R0?AV?$CDynamicPool@USAttachingObjectData@NRaceData@@@@@8 ; CDynamicPool<NRaceData::SAttachingObjectData>::`RTTI Base Class Descriptor at (0,-1,0,64)'
	DD	00H
	DD	00H
	DD	0ffffffffH
	DD	00H
	DD	040H
	DD	FLAT:??_R3?$CDynamicPool@USAttachingObjectData@NRaceData@@@@8
rdata$r	ENDS
;	COMDAT ??_R2?$CDynamicPool@USAttachingObjectData@NRaceData@@@@8
rdata$r	SEGMENT
??_R2?$CDynamicPool@USAttachingObjectData@NRaceData@@@@8 DD FLAT:??_R1A@?0A@EA@?$CDynamicPool@USAttachingObjectData@NRaceData@@@@8 ; CDynamicPool<NRaceData::SAttachingObjectData>::`RTTI Base Class Array'
rdata$r	ENDS
;	COMDAT ??_R3?$CDynamicPool@USAttachingObjectData@NRaceData@@@@8
rdata$r	SEGMENT
??_R3?$CDynamicPool@USAttachingObjectData@NRaceData@@@@8 DD 00H ; CDynamicPool<NRaceData::SAttachingObjectData>::`RTTI Class Hierarchy Descriptor'
	DD	00H
	DD	01H
	DD	FLAT:??_R2?$CDynamicPool@USAttachingObjectData@NRaceData@@@@8
rdata$r	ENDS
;	COMDAT ??_R0?AV?$CDynamicPool@USAttachingObjectData@NRaceData@@@@@8
data$r	SEGMENT
??_R0?AV?$CDynamicPool@USAttachingObjectData@NRaceData@@@@@8 DD FLAT:??_7type_info@@6B@ ; CDynamicPool<NRaceData::SAttachingObjectData> `RTTI Type Descriptor'
	DD	00H
	DB	'.?AV?$CDynamicPool@USAttachingObjectData@NRaceData@@@@', 00H
data$r	ENDS
;	COMDAT ??_R4?$CDynamicPool@USAttachingObjectData@NRaceData@@@@6B@
rdata$r	SEGMENT
??_R4?$CDynamicPool@USAttachingObjectData@NRaceData@@@@6B@ DD 00H ; CDynamicPool<NRaceData::SAttachingObjectData>::`RTTI Complete Object Locator'
	DD	00H
	DD	00H
	DD	FLAT:??_R0?AV?$CDynamicPool@USAttachingObjectData@NRaceData@@@@@8
	DD	FLAT:??_R3?$CDynamicPool@USAttachingObjectData@NRaceData@@@@8
rdata$r	ENDS
;	COMDAT ??_R1A@?0A@EA@?$CDynamicPool@USAttachingEffectData@NRaceData@@@@8
rdata$r	SEGMENT
??_R1A@?0A@EA@?$CDynamicPool@USAttachingEffectData@NRaceData@@@@8 DD FLAT:??_R0?AV?$CDynamicPool@USAttachingEffectData@NRaceData@@@@@8 ; CDynamicPool<NRaceData::SAttachingEffectData>::`RTTI Base Class Descriptor at (0,-1,0,64)'
	DD	00H
	DD	00H
	DD	0ffffffffH
	DD	00H
	DD	040H
	DD	FLAT:??_R3?$CDynamicPool@USAttachingEffectData@NRaceData@@@@8
rdata$r	ENDS
;	COMDAT ??_R2?$CDynamicPool@USAttachingEffectData@NRaceData@@@@8
rdata$r	SEGMENT
??_R2?$CDynamicPool@USAttachingEffectData@NRaceData@@@@8 DD FLAT:??_R1A@?0A@EA@?$CDynamicPool@USAttachingEffectData@NRaceData@@@@8 ; CDynamicPool<NRaceData::SAttachingEffectData>::`RTTI Base Class Array'
rdata$r	ENDS
;	COMDAT ??_R3?$CDynamicPool@USAttachingEffectData@NRaceData@@@@8
rdata$r	SEGMENT
??_R3?$CDynamicPool@USAttachingEffectData@NRaceData@@@@8 DD 00H ; CDynamicPool<NRaceData::SAttachingEffectData>::`RTTI Class Hierarchy Descriptor'
	DD	00H
	DD	01H
	DD	FLAT:??_R2?$CDynamicPool@USAttachingEffectData@NRaceData@@@@8
rdata$r	ENDS
;	COMDAT ??_R0?AV?$CDynamicPool@USAttachingEffectData@NRaceData@@@@@8
data$r	SEGMENT
??_R0?AV?$CDynamicPool@USAttachingEffectData@NRaceData@@@@@8 DD FLAT:??_7type_info@@6B@ ; CDynamicPool<NRaceData::SAttachingEffectData> `RTTI Type Descriptor'
	DD	00H
	DB	'.?AV?$CDynamicPool@USAttachingEffectData@NRaceData@@@@', 00H
data$r	ENDS
;	COMDAT ??_R4?$CDynamicPool@USAttachingEffectData@NRaceData@@@@6B@
rdata$r	SEGMENT
??_R4?$CDynamicPool@USAttachingEffectData@NRaceData@@@@6B@ DD 00H ; CDynamicPool<NRaceData::SAttachingEffectData>::`RTTI Complete Object Locator'
	DD	00H
	DD	00H
	DD	FLAT:??_R0?AV?$CDynamicPool@USAttachingEffectData@NRaceData@@@@@8
	DD	FLAT:??_R3?$CDynamicPool@USAttachingEffectData@NRaceData@@@@8
rdata$r	ENDS
;	COMDAT ??_R1A@?0A@EA@?$CDynamicPool@USCollisionData@NRaceData@@@@8
rdata$r	SEGMENT
??_R1A@?0A@EA@?$CDynamicPool@USCollisionData@NRaceData@@@@8 DD FLAT:??_R0?AV?$CDynamicPool@USCollisionData@NRaceData@@@@@8 ; CDynamicPool<NRaceData::SCollisionData>::`RTTI Base Class Descriptor at (0,-1,0,64)'
	DD	00H
	DD	00H
	DD	0ffffffffH
	DD	00H
	DD	040H
	DD	FLAT:??_R3?$CDynamicPool@USCollisionData@NRaceData@@@@8
rdata$r	ENDS
;	COMDAT ??_R2?$CDynamicPool@USCollisionData@NRaceData@@@@8
rdata$r	SEGMENT
??_R2?$CDynamicPool@USCollisionData@NRaceData@@@@8 DD FLAT:??_R1A@?0A@EA@?$CDynamicPool@USCollisionData@NRaceData@@@@8 ; CDynamicPool<NRaceData::SCollisionData>::`RTTI Base Class Array'
rdata$r	ENDS
;	COMDAT ??_R3?$CDynamicPool@USCollisionData@NRaceData@@@@8
rdata$r	SEGMENT
??_R3?$CDynamicPool@USCollisionData@NRaceData@@@@8 DD 00H ; CDynamicPool<NRaceData::SCollisionData>::`RTTI Class Hierarchy Descriptor'
	DD	00H
	DD	01H
	DD	FLAT:??_R2?$CDynamicPool@USCollisionData@NRaceData@@@@8
rdata$r	ENDS
;	COMDAT ??_R0?AV?$CDynamicPool@USCollisionData@NRaceData@@@@@8
data$r	SEGMENT
??_R0?AV?$CDynamicPool@USCollisionData@NRaceData@@@@@8 DD FLAT:??_7type_info@@6B@ ; CDynamicPool<NRaceData::SCollisionData> `RTTI Type Descriptor'
	DD	00H
	DB	'.?AV?$CDynamicPool@USCollisionData@NRaceData@@@@', 00H
data$r	ENDS
;	COMDAT ??_R4?$CDynamicPool@USCollisionData@NRaceData@@@@6B@
rdata$r	SEGMENT
??_R4?$CDynamicPool@USCollisionData@NRaceData@@@@6B@ DD 00H ; CDynamicPool<NRaceData::SCollisionData>::`RTTI Complete Object Locator'
	DD	00H
	DD	00H
	DD	FLAT:??_R0?AV?$CDynamicPool@USCollisionData@NRaceData@@@@@8
	DD	FLAT:??_R3?$CDynamicPool@USCollisionData@NRaceData@@@@8
rdata$r	ENDS
CONST	SEGMENT
?piecewise_construct@std@@3Upiecewise_construct_t@1@B	ORG $+1 ; std::piecewise_construct
CONST	ENDS
;	COMDAT ??_7?$CDynamicPool@USAttachingObjectData@NRaceData@@@@6B@
CONST	SEGMENT
??_7?$CDynamicPool@USAttachingObjectData@NRaceData@@@@6B@ DD FLAT:??_R4?$CDynamicPool@USAttachingObjectData@NRaceData@@@@6B@ ; CDynamicPool<NRaceData::SAttachingObjectData>::`vftable'
	DD	FLAT:??_E?$CDynamicPool@USAttachingObjectData@NRaceData@@@@UAEPAXI@Z
CONST	ENDS
;	COMDAT ??_7?$CDynamicPool@USAttachingEffectData@NRaceData@@@@6B@
CONST	SEGMENT
??_7?$CDynamicPool@USAttachingEffectData@NRaceData@@@@6B@ DD FLAT:??_R4?$CDynamicPool@USAttachingEffectData@NRaceData@@@@6B@ ; CDynamicPool<NRaceData::SAttachingEffectData>::`vftable'
	DD	FLAT:??_E?$CDynamicPool@USAttachingEffectData@NRaceData@@@@UAEPAXI@Z
CONST	ENDS
PUBLIC	??_H@YGXPAXIIP6EPAX0@Z@Z			; `vector constructor iterator'
PUBLIC	?__empty_global_delete@@YAXPAX@Z		; __empty_global_delete
PUBLIC	?__empty_global_delete@@YAXPAXI@Z		; __empty_global_delete
PUBLIC	??0exception@std@@QAE@ABV01@@Z			; std::exception::exception
PUBLIC	??1exception@std@@UAE@XZ			; std::exception::~exception
PUBLIC	?what@exception@std@@UBEPBDXZ			; std::exception::what
PUBLIC	??_Gexception@std@@UAEPAXI@Z			; std::exception::`scalar deleting destructor'
PUBLIC	??0bad_alloc@std@@QAE@ABV01@@Z			; std::bad_alloc::bad_alloc
PUBLIC	??_Gbad_alloc@std@@UAEPAXI@Z			; std::bad_alloc::`scalar deleting destructor'
PUBLIC	??0bad_array_new_length@std@@QAE@XZ		; std::bad_array_new_length::bad_array_new_length
PUBLIC	??1bad_array_new_length@std@@UAE@XZ		; std::bad_array_new_length::~bad_array_new_length
PUBLIC	??0bad_array_new_length@std@@QAE@ABV01@@Z	; std::bad_array_new_length::bad_array_new_length
PUBLIC	??_Gbad_array_new_length@std@@UAEPAXI@Z		; std::bad_array_new_length::`scalar deleting destructor'
PUBLIC	?_Throw_bad_array_new_length@std@@YAXXZ		; std::_Throw_bad_array_new_length
PUBLIC	?_Xlen_string@std@@YAXXZ			; std::_Xlen_string
PUBLIC	??1?$basic_string@DU?$char_traits@D@std@@V?$allocator@D@2@@std@@QAE@XZ ; std::basic_string<char,std::char_traits<char>,std::allocator<char> >::~basic_string<char,std::char_traits<char>,std::allocator<char> >
PUBLIC	?assign@?$basic_string@DU?$char_traits@D@std@@V?$allocator@D@2@@std@@QAEAAV12@QBD@Z ; std::basic_string<char,std::char_traits<char>,std::allocator<char> >::assign
PUBLIC	?_Throw_tree_length_error@std@@YAXXZ		; std::_Throw_tree_length_error
PUBLIC	?_Getal@?$_Tree@V?$_Tmap_traits@MUCDynamicSphereInstance@@U?$less@M@std@@V?$allocator@U?$pair@$$CBMUCDynamicSphereInstance@@@std@@@3@$0A@@std@@@std@@IAEAAV?$allocator@U?$_Tree_node@U?$pair@$$CBMUCDynamicSphereInstance@@@std@@PAX@std@@@2@XZ ; std::_Tree<std::_Tmap_traits<float,CDynamicSphereInstance,std::less<float>,std::allocator<std::pair<float const ,CDynamicSphereInstance> >,0> >::_Getal
PUBLIC	?_Insert_node@?$_Tree_val@U?$_Tree_simple_types@U?$pair@$$CBMUCDynamicSphereInstance@@@std@@@std@@@std@@QAEPAU?$_Tree_node@U?$pair@$$CBMUCDynamicSphereInstance@@@std@@PAX@2@U?$_Tree_id@PAU?$_Tree_node@U?$pair@$$CBMUCDynamicSphereInstance@@@std@@PAX@std@@@2@QAU32@@Z ; std::_Tree_val<std::_Tree_simple_types<std::pair<float const ,CDynamicSphereInstance> > >::_Insert_node
PUBLIC	?Load@SHitData@NRaceData@@QAE_NAAVCTextFileLoader@@@Z ; NRaceData::SHitData::Load
PUBLIC	??0SHitData@NRaceData@@QAE@XZ			; NRaceData::SHitData::SHitData
PUBLIC	??1SHitData@NRaceData@@QAE@XZ			; NRaceData::SHitData::~SHitData
PUBLIC	??0SHitData@NRaceData@@QAE@ABU01@@Z		; NRaceData::SHitData::SHitData
PUBLIC	?deallocate@?$allocator@USHitData@NRaceData@@@std@@QAEXQAUSHitData@NRaceData@@I@Z ; std::allocator<NRaceData::SHitData>::deallocate
PUBLIC	?_Destroy@?$vector@USHitData@NRaceData@@V?$allocator@USHitData@NRaceData@@@std@@@std@@AAEXPAUSHitData@NRaceData@@0@Z ; std::vector<NRaceData::SHitData,std::allocator<NRaceData::SHitData> >::_Destroy
PUBLIC	?_Xlength@?$vector@USHitData@NRaceData@@V?$allocator@USHitData@NRaceData@@@std@@@std@@CAXXZ ; std::vector<NRaceData::SHitData,std::allocator<NRaceData::SHitData> >::_Xlength
PUBLIC	?_Xlength@?$vector@VCSphereCollisionInstance@@V?$allocator@VCSphereCollisionInstance@@@std@@@std@@CAXXZ ; std::vector<CSphereCollisionInstance,std::allocator<CSphereCollisionInstance> >::_Xlength
PUBLIC	??1SCollisionData@NRaceData@@UAE@XZ		; NRaceData::SCollisionData::~SCollisionData
PUBLIC	??_GSCollisionData@NRaceData@@UAEPAXI@Z		; NRaceData::SCollisionData::`scalar deleting destructor'
PUBLIC	??1SAttachingEffectData@NRaceData@@UAE@XZ	; NRaceData::SAttachingEffectData::~SAttachingEffectData
PUBLIC	??_GSAttachingEffectData@NRaceData@@UAEPAXI@Z	; NRaceData::SAttachingEffectData::`scalar deleting destructor'
PUBLIC	??1SAttachingObjectData@NRaceData@@UAE@XZ	; NRaceData::SAttachingObjectData::~SAttachingObjectData
PUBLIC	??_GSAttachingObjectData@NRaceData@@UAEPAXI@Z	; NRaceData::SAttachingObjectData::`scalar deleting destructor'
PUBLIC	?DestroySystem@NRaceData@@YAXXZ			; NRaceData::DestroySystem
PUBLIC	?SaveAttackData@NRaceData@@YAXPAU_iobuf@@HABUSAttackData@1@@Z ; NRaceData::SaveAttackData
PUBLIC	?SaveMotionAttackData@NRaceData@@YAXPAU_iobuf@@HABUSMotionAttackData@1@@Z ; NRaceData::SaveMotionAttackData
PUBLIC	?SaveCollisionData@NRaceData@@YAXPAU_iobuf@@HABUSCollisionData@1@@Z ; NRaceData::SaveCollisionData
PUBLIC	?SaveEffectData@NRaceData@@YAXPAU_iobuf@@HABUSAttachingEffectData@1@@Z ; NRaceData::SaveEffectData
PUBLIC	?SaveObjectData@NRaceData@@YAXPAU_iobuf@@HABUSAttachingObjectData@1@@Z ; NRaceData::SaveObjectData
PUBLIC	?LoadAttackData@NRaceData@@YAHAAVCTextFileLoader@@PAUSAttackData@1@@Z ; NRaceData::LoadAttackData
PUBLIC	?LoadMotionAttackData@NRaceData@@YAHAAVCTextFileLoader@@PAUSMotionAttackData@1@@Z ; NRaceData::LoadMotionAttackData
PUBLIC	?LoadCollisionData@NRaceData@@YAHAAVCTextFileLoader@@PAUSCollisionData@1@@Z ; NRaceData::LoadCollisionData
PUBLIC	?LoadEffectData@NRaceData@@YAHAAVCTextFileLoader@@PAUSAttachingEffectData@1@@Z ; NRaceData::LoadEffectData
PUBLIC	?LoadObjectData@NRaceData@@YAHAAVCTextFileLoader@@PAUSAttachingObjectData@1@@Z ; NRaceData::LoadObjectData
PUBLIC	?SaveAttachingData@NRaceData@@YAXPAU_iobuf@@HABV?$vector@USAttachingData@NRaceData@@V?$allocator@USAttachingData@NRaceData@@@std@@@std@@@Z ; NRaceData::SaveAttachingData
PUBLIC	?LoadAttachingData@NRaceData@@YAHAAVCTextFileLoader@@PAV?$vector@USAttachingData@NRaceData@@V?$allocator@USAttachingData@NRaceData@@@std@@@std@@@Z ; NRaceData::LoadAttachingData
PUBLIC	??$_Destroy_in_place@PAD@std@@YAXAAPAD@Z	; std::_Destroy_in_place<char *>
PUBLIC	??$_Construct_in_place@PADABQAD@std@@YAXAAPADABQAD@Z ; std::_Construct_in_place<char *,char * const &>
PUBLIC	??$_Destroy_range@V?$allocator@VCSphereCollisionInstance@@@std@@@std@@YAXPAVCSphereCollisionInstance@@QAV1@AAV?$allocator@VCSphereCollisionInstance@@@0@@Z ; std::_Destroy_range<std::allocator<CSphereCollisionInstance> >
PUBLIC	??$_Deallocate@$07$0A@@std@@YAXPAXI@Z		; std::_Deallocate<8,0>
PUBLIC	??$_Allocate@$07U_Default_allocate_traits@std@@$0A@@std@@YAPAXI@Z ; std::_Allocate<8,std::_Default_allocate_traits,0>
PUBLIC	??$_Allocate_manually_vector_aligned@U_Default_allocate_traits@std@@@std@@YAPAXI@Z ; std::_Allocate_manually_vector_aligned<std::_Default_allocate_traits>
PUBLIC	??1?$CDynamicPool@USCollisionData@NRaceData@@@@UAE@XZ ; CDynamicPool<NRaceData::SCollisionData>::~CDynamicPool<NRaceData::SCollisionData>
PUBLIC	?Delete@?$CDynamicPool@USCollisionData@NRaceData@@@@KAXPAUSCollisionData@NRaceData@@@Z ; CDynamicPool<NRaceData::SCollisionData>::Delete
PUBLIC	?_Xlength@?$vector@PAUSCollisionData@NRaceData@@V?$allocator@PAUSCollisionData@NRaceData@@@std@@@std@@CAXXZ ; std::vector<NRaceData::SCollisionData *,std::allocator<NRaceData::SCollisionData *> >::_Xlength
PUBLIC	??1?$CDynamicPool@USAttachingEffectData@NRaceData@@@@UAE@XZ ; CDynamicPool<NRaceData::SAttachingEffectData>::~CDynamicPool<NRaceData::SAttachingEffectData>
PUBLIC	?Delete@?$CDynamicPool@USAttachingEffectData@NRaceData@@@@KAXPAUSAttachingEffectData@NRaceData@@@Z ; CDynamicPool<NRaceData::SAttachingEffectData>::Delete
PUBLIC	?_Xlength@?$vector@PAUSAttachingEffectData@NRaceData@@V?$allocator@PAUSAttachingEffectData@NRaceData@@@std@@@std@@CAXXZ ; std::vector<NRaceData::SAttachingEffectData *,std::allocator<NRaceData::SAttachingEffectData *> >::_Xlength
PUBLIC	??1?$CDynamicPool@USAttachingObjectData@NRaceData@@@@UAE@XZ ; CDynamicPool<NRaceData::SAttachingObjectData>::~CDynamicPool<NRaceData::SAttachingObjectData>
PUBLIC	?Delete@?$CDynamicPool@USAttachingObjectData@NRaceData@@@@KAXPAUSAttachingObjectData@NRaceData@@@Z ; CDynamicPool<NRaceData::SAttachingObjectData>::Delete
PUBLIC	?_Xlength@?$vector@PAUSAttachingObjectData@NRaceData@@V?$allocator@PAUSAttachingObjectData@NRaceData@@@std@@@std@@CAXXZ ; std::vector<NRaceData::SAttachingObjectData *,std::allocator<NRaceData::SAttachingObjectData *> >::_Xlength
PUBLIC	?_Xlength@?$vector@USAttachingData@NRaceData@@V?$allocator@USAttachingData@NRaceData@@@std@@@std@@CAXXZ ; std::vector<NRaceData::SAttachingData,std::allocator<NRaceData::SAttachingData> >::_Xlength
PUBLIC	?_Xrange@?$vector@USAttachingData@NRaceData@@V?$allocator@USAttachingData@NRaceData@@@std@@@std@@CAXXZ ; std::vector<NRaceData::SAttachingData,std::allocator<NRaceData::SAttachingData> >::_Xrange
PUBLIC	??$_Const_cast@$$CBV?$basic_string@DU?$char_traits@D@std@@V?$allocator@D@2@@std@@@std@@YAPAV?$basic_string@DU?$char_traits@D@std@@V?$allocator@D@2@@0@PBV10@@Z ; std::_Const_cast<std::basic_string<char,std::char_traits<char>,std::allocator<char> > const >
PUBLIC	??1?$CDynamicPoolEx@VCRotationDecorator@NEffectUpdateDecorator@@@@UAE@XZ ; CDynamicPoolEx<NEffectUpdateDecorator::CRotationDecorator>::~CDynamicPoolEx<NEffectUpdateDecorator::CRotationDecorator>
PUBLIC	?Delete@?$CDynamicPoolEx@VCRotationDecorator@NEffectUpdateDecorator@@@@KAXPAVCRotationDecorator@NEffectUpdateDecorator@@@Z ; CDynamicPoolEx<NEffectUpdateDecorator::CRotationDecorator>::Delete
PUBLIC	??1?$CDynamicPoolEx@VCGravityDecorator@NEffectUpdateDecorator@@@@UAE@XZ ; CDynamicPoolEx<NEffectUpdateDecorator::CGravityDecorator>::~CDynamicPoolEx<NEffectUpdateDecorator::CGravityDecorator>
PUBLIC	?Delete@?$CDynamicPoolEx@VCGravityDecorator@NEffectUpdateDecorator@@@@KAXPAVCGravityDecorator@NEffectUpdateDecorator@@@Z ; CDynamicPoolEx<NEffectUpdateDecorator::CGravityDecorator>::Delete
PUBLIC	??1?$CDynamicPoolEx@VCAirResistanceDecorator@NEffectUpdateDecorator@@@@UAE@XZ ; CDynamicPoolEx<NEffectUpdateDecorator::CAirResistanceDecorator>::~CDynamicPoolEx<NEffectUpdateDecorator::CAirResistanceDecorator>
PUBLIC	?Delete@?$CDynamicPoolEx@VCAirResistanceDecorator@NEffectUpdateDecorator@@@@KAXPAVCAirResistanceDecorator@NEffectUpdateDecorator@@@Z ; CDynamicPoolEx<NEffectUpdateDecorator::CAirResistanceDecorator>::Delete
PUBLIC	??1?$CDynamicPoolEx@VCTextureAnimationRandomDecorator@NEffectUpdateDecorator@@@@UAE@XZ ; CDynamicPoolEx<NEffectUpdateDecorator::CTextureAnimationRandomDecorator>::~CDynamicPoolEx<NEffectUpdateDecorator::CTextureAnimationRandomDecorator>
PUBLIC	?Delete@?$CDynamicPoolEx@VCTextureAnimationRandomDecorator@NEffectUpdateDecorator@@@@KAXPAVCTextureAnimationRandomDecorator@NEffectUpdateDecorator@@@Z ; CDynamicPoolEx<NEffectUpdateDecorator::CTextureAnimationRandomDecorator>::Delete
PUBLIC	??1?$CDynamicPoolEx@VCTextureAnimationCCWDecorator@NEffectUpdateDecorator@@@@UAE@XZ ; CDynamicPoolEx<NEffectUpdateDecorator::CTextureAnimationCCWDecorator>::~CDynamicPoolEx<NEffectUpdateDecorator::CTextureAnimationCCWDecorator>
PUBLIC	?Delete@?$CDynamicPoolEx@VCTextureAnimationCCWDecorator@NEffectUpdateDecorator@@@@KAXPAVCTextureAnimationCCWDecorator@NEffectUpdateDecorator@@@Z ; CDynamicPoolEx<NEffectUpdateDecorator::CTextureAnimationCCWDecorator>::Delete
PUBLIC	??1?$CDynamicPoolEx@VCTextureAnimationCWDecorator@NEffectUpdateDecorator@@@@UAE@XZ ; CDynamicPoolEx<NEffectUpdateDecorator::CTextureAnimationCWDecorator>::~CDynamicPoolEx<NEffectUpdateDecorator::CTextureAnimationCWDecorator>
PUBLIC	?Delete@?$CDynamicPoolEx@VCTextureAnimationCWDecorator@NEffectUpdateDecorator@@@@KAXPAVCTextureAnimationCWDecorator@NEffectUpdateDecorator@@@Z ; CDynamicPoolEx<NEffectUpdateDecorator::CTextureAnimationCWDecorator>::Delete
PUBLIC	??1?$CDynamicPoolEx@VCNullDecorator@NEffectUpdateDecorator@@@@UAE@XZ ; CDynamicPoolEx<NEffectUpdateDecorator::CNullDecorator>::~CDynamicPoolEx<NEffectUpdateDecorator::CNullDecorator>
PUBLIC	?Delete@?$CDynamicPoolEx@VCNullDecorator@NEffectUpdateDecorator@@@@KAXPAVCNullDecorator@NEffectUpdateDecorator@@@Z ; CDynamicPoolEx<NEffectUpdateDecorator::CNullDecorator>::Delete
PUBLIC	??1?$CDynamicPoolEx@VCHeaderDecorator@NEffectUpdateDecorator@@@@UAE@XZ ; CDynamicPoolEx<NEffectUpdateDecorator::CHeaderDecorator>::~CDynamicPoolEx<NEffectUpdateDecorator::CHeaderDecorator>
PUBLIC	?Delete@?$CDynamicPoolEx@VCHeaderDecorator@NEffectUpdateDecorator@@@@KAXPAVCHeaderDecorator@NEffectUpdateDecorator@@@Z ; CDynamicPoolEx<NEffectUpdateDecorator::CHeaderDecorator>::Delete
PUBLIC	??$construct@USHitData@NRaceData@@U12@@?$_Default_allocator_traits@V?$allocator@USHitData@NRaceData@@@std@@@std@@SAXAAV?$allocator@USHitData@NRaceData@@@1@QAUSHitData@NRaceData@@$$QAU34@@Z ; std::_Default_allocator_traits<std::allocator<NRaceData::SHitData> >::construct<NRaceData::SHitData,NRaceData::SHitData>
PUBLIC	??$_Emplace_reallocate@USHitData@NRaceData@@@?$vector@USHitData@NRaceData@@V?$allocator@USHitData@NRaceData@@@std@@@std@@QAEPAUSHitData@NRaceData@@QAU23@$$QAU23@@Z ; std::vector<NRaceData::SHitData,std::allocator<NRaceData::SHitData> >::_Emplace_reallocate<NRaceData::SHitData>
PUBLIC	??$_Erase_tree@V?$allocator@U?$_Tree_node@U?$pair@$$CBMUCDynamicSphereInstance@@@std@@PAX@std@@@std@@@?$_Tree_val@U?$_Tree_simple_types@U?$pair@$$CBMUCDynamicSphereInstance@@@std@@@std@@@std@@QAEXAAV?$allocator@U?$_Tree_node@U?$pair@$$CBMUCDynamicSphereInstance@@@std@@PAX@std@@@1@PAU?$_Tree_node@U?$pair@$$CBMUCDynamicSphereInstance@@@std@@PAX@1@@Z ; std::_Tree_val<std::_Tree_simple_types<std::pair<float const ,CDynamicSphereInstance> > >::_Erase_tree<std::allocator<std::_Tree_node<std::pair<float const ,CDynamicSphereInstance>,void *> > >
PUBLIC	??$_Erase_head@V?$allocator@U?$_Tree_node@U?$pair@$$CBMUCDynamicSphereInstance@@@std@@PAX@std@@@std@@@?$_Tree_val@U?$_Tree_simple_types@U?$pair@$$CBMUCDynamicSphereInstance@@@std@@@std@@@std@@QAEXAAV?$allocator@U?$_Tree_node@U?$pair@$$CBMUCDynamicSphereInstance@@@std@@PAX@std@@@1@@Z ; std::_Tree_val<std::_Tree_simple_types<std::pair<float const ,CDynamicSphereInstance> > >::_Erase_head<std::allocator<std::_Tree_node<std::pair<float const ,CDynamicSphereInstance>,void *> > >
PUBLIC	??$_Destroy_range@V?$allocator@USAttachingData@NRaceData@@@std@@@std@@YAXPAUSAttachingData@NRaceData@@QAU12@AAV?$allocator@USAttachingData@NRaceData@@@0@@Z ; std::_Destroy_range<std::allocator<NRaceData::SAttachingData> >
PUBLIC	??$_Emplace_reallocate@ABQAUSAttachingObjectData@NRaceData@@@?$vector@PAUSAttachingObjectData@NRaceData@@V?$allocator@PAUSAttachingObjectData@NRaceData@@@std@@@std@@QAEPAPAUSAttachingObjectData@NRaceData@@QAPAU23@ABQAU23@@Z ; std::vector<NRaceData::SAttachingObjectData *,std::allocator<NRaceData::SAttachingObjectData *> >::_Emplace_reallocate<NRaceData::SAttachingObjectData * const &>
PUBLIC	??$_Emplace_reallocate@ABQAUSAttachingEffectData@NRaceData@@@?$vector@PAUSAttachingEffectData@NRaceData@@V?$allocator@PAUSAttachingEffectData@NRaceData@@@std@@@std@@QAEPAPAUSAttachingEffectData@NRaceData@@QAPAU23@ABQAU23@@Z ; std::vector<NRaceData::SAttachingEffectData *,std::allocator<NRaceData::SAttachingEffectData *> >::_Emplace_reallocate<NRaceData::SAttachingEffectData * const &>
PUBLIC	??$_Emplace_reallocate@ABQAUSCollisionData@NRaceData@@@?$vector@PAUSCollisionData@NRaceData@@V?$allocator@PAUSCollisionData@NRaceData@@@std@@@std@@QAEPAPAUSCollisionData@NRaceData@@QAPAU23@ABQAU23@@Z ; std::vector<NRaceData::SCollisionData *,std::allocator<NRaceData::SCollisionData *> >::_Emplace_reallocate<NRaceData::SCollisionData * const &>
PUBLIC	??$_Destroy_range@V?$allocator@USHitData@NRaceData@@@std@@@std@@YAXPAUSHitData@NRaceData@@QAU12@AAV?$allocator@USHitData@NRaceData@@@0@@Z ; std::_Destroy_range<std::allocator<NRaceData::SHitData> >
PUBLIC	??$_Destroy_range@V?$allocator@PAUSAttachingObjectData@NRaceData@@@std@@@std@@YAXPAPAUSAttachingObjectData@NRaceData@@QAPAU12@AAV?$allocator@PAUSAttachingObjectData@NRaceData@@@0@@Z ; std::_Destroy_range<std::allocator<NRaceData::SAttachingObjectData *> >
PUBLIC	??$_Destroy_range@V?$allocator@PAUSAttachingEffectData@NRaceData@@@std@@@std@@YAXPAPAUSAttachingEffectData@NRaceData@@QAPAU12@AAV?$allocator@PAUSAttachingEffectData@NRaceData@@@0@@Z ; std::_Destroy_range<std::allocator<NRaceData::SAttachingEffectData *> >
PUBLIC	??$_Destroy_range@V?$allocator@PAUSCollisionData@NRaceData@@@std@@@std@@YAXPAPAUSCollisionData@NRaceData@@QAPAU12@AAV?$allocator@PAUSCollisionData@NRaceData@@@0@@Z ; std::_Destroy_range<std::allocator<NRaceData::SCollisionData *> >
PUBLIC	??$_Destroy_range@V?$allocator@PAVCHeaderDecorator@NEffectUpdateDecorator@@@std@@@std@@YAXPAPAVCHeaderDecorator@NEffectUpdateDecorator@@QAPAV12@AAV?$allocator@PAVCHeaderDecorator@NEffectUpdateDecorator@@@0@@Z ; std::_Destroy_range<std::allocator<NEffectUpdateDecorator::CHeaderDecorator *> >
PUBLIC	??$_Destroy_range@V?$allocator@PAVCNullDecorator@NEffectUpdateDecorator@@@std@@@std@@YAXPAPAVCNullDecorator@NEffectUpdateDecorator@@QAPAV12@AAV?$allocator@PAVCNullDecorator@NEffectUpdateDecorator@@@0@@Z ; std::_Destroy_range<std::allocator<NEffectUpdateDecorator::CNullDecorator *> >
PUBLIC	??$_Destroy_range@V?$allocator@PAVCTextureAnimationCWDecorator@NEffectUpdateDecorator@@@std@@@std@@YAXPAPAVCTextureAnimationCWDecorator@NEffectUpdateDecorator@@QAPAV12@AAV?$allocator@PAVCTextureAnimationCWDecorator@NEffectUpdateDecorator@@@0@@Z ; std::_Destroy_range<std::allocator<NEffectUpdateDecorator::CTextureAnimationCWDecorator *> >
PUBLIC	??$_Destroy_range@V?$allocator@PAVCTextureAnimationCCWDecorator@NEffectUpdateDecorator@@@std@@@std@@YAXPAPAVCTextureAnimationCCWDecorator@NEffectUpdateDecorator@@QAPAV12@AAV?$allocator@PAVCTextureAnimationCCWDecorator@NEffectUpdateDecorator@@@0@@Z ; std::_Destroy_range<std::allocator<NEffectUpdateDecorator::CTextureAnimationCCWDecorator *> >
PUBLIC	??$_Destroy_range@V?$allocator@PAVCTextureAnimationRandomDecorator@NEffectUpdateDecorator@@@std@@@std@@YAXPAPAVCTextureAnimationRandomDecorator@NEffectUpdateDecorator@@QAPAV12@AAV?$allocator@PAVCTextureAnimationRandomDecorator@NEffectUpdateDecorator@@@0@@Z ; std::_Destroy_range<std::allocator<NEffectUpdateDecorator::CTextureAnimationRandomDecorator *> >
PUBLIC	??$_Destroy_range@V?$allocator@PAVCAirResistanceDecorator@NEffectUpdateDecorator@@@std@@@std@@YAXPAPAVCAirResistanceDecorator@NEffectUpdateDecorator@@QAPAV12@AAV?$allocator@PAVCAirResistanceDecorator@NEffectUpdateDecorator@@@0@@Z ; std::_Destroy_range<std::allocator<NEffectUpdateDecorator::CAirResistanceDecorator *> >
PUBLIC	??$_Destroy_range@V?$allocator@PAVCGravityDecorator@NEffectUpdateDecorator@@@std@@@std@@YAXPAPAVCGravityDecorator@NEffectUpdateDecorator@@QAPAV12@AAV?$allocator@PAVCGravityDecorator@NEffectUpdateDecorator@@@0@@Z ; std::_Destroy_range<std::allocator<NEffectUpdateDecorator::CGravityDecorator *> >
PUBLIC	??$_Destroy_range@V?$allocator@PAVCRotationDecorator@NEffectUpdateDecorator@@@std@@@std@@YAXPAPAVCRotationDecorator@NEffectUpdateDecorator@@QAPAV12@AAV?$allocator@PAVCRotationDecorator@NEffectUpdateDecorator@@@0@@Z ; std::_Destroy_range<std::allocator<NEffectUpdateDecorator::CRotationDecorator *> >
PUBLIC	??$_Resize_reallocate@U_Value_init_tag@std@@@?$vector@USAttachingData@NRaceData@@V?$allocator@USAttachingData@NRaceData@@@std@@@std@@AAEXIABU_Value_init_tag@1@@Z ; std::vector<NRaceData::SAttachingData,std::allocator<NRaceData::SAttachingData> >::_Resize_reallocate<std::_Value_init_tag>
PUBLIC	??$_Resize_reallocate@U_Value_init_tag@std@@@?$vector@VCSphereCollisionInstance@@V?$allocator@VCSphereCollisionInstance@@@std@@@std@@AAEXIABU_Value_init_tag@1@@Z ; std::vector<CSphereCollisionInstance,std::allocator<CSphereCollisionInstance> >::_Resize_reallocate<std::_Value_init_tag>
PUBLIC	??1?$_Alloc_construct_ptr@V?$allocator@U?$_Tree_node@U?$pair@$$CBMUCDynamicSphereInstance@@@std@@PAX@std@@@std@@@std@@QAE@XZ ; std::_Alloc_construct_ptr<std::allocator<std::_Tree_node<std::pair<float const ,CDynamicSphereInstance>,void *> > >::~_Alloc_construct_ptr<std::allocator<std::_Tree_node<std::pair<float const ,CDynamicSphereInstance>,void *> > >
PUBLIC	??$_Construct_in_place@PAU?$_Tree_node@U?$pair@$$CBMUCDynamicSphereInstance@@@std@@PAX@std@@ABQAU12@@std@@YAXAAPAU?$_Tree_node@U?$pair@$$CBMUCDynamicSphereInstance@@@std@@PAX@0@ABQAU10@@Z ; std::_Construct_in_place<std::_Tree_node<std::pair<float const ,CDynamicSphereInstance>,void *> *,std::_Tree_node<std::pair<float const ,CDynamicSphereInstance>,void *> * const &>
PUBLIC	??$_Destroy_in_place@PAU?$_Tree_node@U?$pair@$$CBMUCDynamicSphereInstance@@@std@@PAX@std@@@std@@YAXAAPAU?$_Tree_node@U?$pair@$$CBMUCDynamicSphereInstance@@@std@@PAX@0@@Z ; std::_Destroy_in_place<std::_Tree_node<std::pair<float const ,CDynamicSphereInstance>,void *> *>
PUBLIC	??$_Uninitialized_value_construct_n@V?$allocator@USAttachingData@NRaceData@@@std@@@std@@YAPAUSAttachingData@NRaceData@@PAU12@IAAV?$allocator@USAttachingData@NRaceData@@@0@@Z ; std::_Uninitialized_value_construct_n<std::allocator<NRaceData::SAttachingData> >
PUBLIC	??$_Uninitialized_move@PAPAUSAttachingObjectData@NRaceData@@V?$allocator@PAUSAttachingObjectData@NRaceData@@@std@@@std@@YAPAPAUSAttachingObjectData@NRaceData@@QAPAU12@0PAPAU12@AAV?$allocator@PAUSAttachingObjectData@NRaceData@@@0@@Z ; std::_Uninitialized_move<NRaceData::SAttachingObjectData * *,std::allocator<NRaceData::SAttachingObjectData *> >
PUBLIC	??$_Uninitialized_move@PAPAUSAttachingEffectData@NRaceData@@V?$allocator@PAUSAttachingEffectData@NRaceData@@@std@@@std@@YAPAPAUSAttachingEffectData@NRaceData@@QAPAU12@0PAPAU12@AAV?$allocator@PAUSAttachingEffectData@NRaceData@@@0@@Z ; std::_Uninitialized_move<NRaceData::SAttachingEffectData * *,std::allocator<NRaceData::SAttachingEffectData *> >
PUBLIC	??$_Uninitialized_move@PAPAUSCollisionData@NRaceData@@V?$allocator@PAUSCollisionData@NRaceData@@@std@@@std@@YAPAPAUSCollisionData@NRaceData@@QAPAU12@0PAPAU12@AAV?$allocator@PAUSCollisionData@NRaceData@@@0@@Z ; std::_Uninitialized_move<NRaceData::SCollisionData * *,std::allocator<NRaceData::SCollisionData *> >
PUBLIC	??$_Uninitialized_value_construct_n@V?$allocator@VCSphereCollisionInstance@@@std@@@std@@YAPAVCSphereCollisionInstance@@PAV1@IAAV?$allocator@VCSphereCollisionInstance@@@0@@Z ; std::_Uninitialized_value_construct_n<std::allocator<CSphereCollisionInstance> >
PUBLIC	??$_Uninitialized_move@PAUSHitData@NRaceData@@V?$allocator@USHitData@NRaceData@@@std@@@std@@YAPAUSHitData@NRaceData@@QAU12@0PAU12@AAV?$allocator@USHitData@NRaceData@@@0@@Z ; std::_Uninitialized_move<NRaceData::SHitData *,std::allocator<NRaceData::SHitData> >
PUBLIC	??$_Uninitialized_copy@PAUSHitData@NRaceData@@V?$allocator@USHitData@NRaceData@@@std@@@std@@YAPAUSHitData@NRaceData@@QAU12@0PAU12@AAV?$allocator@USHitData@NRaceData@@@0@@Z ; std::_Uninitialized_copy<NRaceData::SHitData *,std::allocator<NRaceData::SHitData> >
PUBLIC	??$_Construct_in_place@PAU?$_Tree_node@U?$pair@$$CBMUCDynamicSphereInstance@@@std@@PAX@std@@AAPAU12@@std@@YAXAAPAU?$_Tree_node@U?$pair@$$CBMUCDynamicSphereInstance@@@std@@PAX@0@0@Z ; std::_Construct_in_place<std::_Tree_node<std::pair<float const ,CDynamicSphereInstance>,void *> *,std::_Tree_node<std::pair<float const ,CDynamicSphereInstance>,void *> * &>
PUBLIC	??$_Copy_memmove@PAPAUSAttachingObjectData@NRaceData@@PAPAU12@@std@@YAPAPAUSAttachingObjectData@NRaceData@@PAPAU12@00@Z ; std::_Copy_memmove<NRaceData::SAttachingObjectData * *,NRaceData::SAttachingObjectData * *>
PUBLIC	??$_Copy_memmove@PAPAUSAttachingEffectData@NRaceData@@PAPAU12@@std@@YAPAPAUSAttachingEffectData@NRaceData@@PAPAU12@00@Z ; std::_Copy_memmove<NRaceData::SAttachingEffectData * *,NRaceData::SAttachingEffectData * *>
PUBLIC	??$_Copy_memmove@PAPAUSCollisionData@NRaceData@@PAPAU12@@std@@YAPAPAUSCollisionData@NRaceData@@PAPAU12@00@Z ; std::_Copy_memmove<NRaceData::SCollisionData * *,NRaceData::SCollisionData * *>
PUBLIC	??1?$_Uninitialized_backout_al@V?$allocator@USHitData@NRaceData@@@std@@@std@@QAE@XZ ; std::_Uninitialized_backout_al<std::allocator<NRaceData::SHitData> >::~_Uninitialized_backout_al<std::allocator<NRaceData::SHitData> >
PUBLIC	??$_Uninitialized_move@PAUSAttachingData@NRaceData@@V?$allocator@USAttachingData@NRaceData@@@std@@@std@@YAPAUSAttachingData@NRaceData@@QAU12@0PAU12@AAV?$allocator@USAttachingData@NRaceData@@@0@@Z ; std::_Uninitialized_move<NRaceData::SAttachingData *,std::allocator<NRaceData::SAttachingData> >
PUBLIC	??$_Uninitialized_move@PAVCSphereCollisionInstance@@V?$allocator@VCSphereCollisionInstance@@@std@@@std@@YAPAVCSphereCollisionInstance@@QAV1@0PAV1@AAV?$allocator@VCSphereCollisionInstance@@@0@@Z ; std::_Uninitialized_move<CSphereCollisionInstance *,std::allocator<CSphereCollisionInstance> >
PUBLIC	??$?0ABM$$Z$$V@?$pair@$$CBMUCDynamicSphereInstance@@@std@@QAE@Upiecewise_construct_t@1@V?$tuple@ABM@1@V?$tuple@$$V@1@@Z ; std::pair<float const ,CDynamicSphereInstance>::pair<float const ,CDynamicSphereInstance><float const &>
PUBLIC	??$?0V?$tuple@ABM@std@@V?$tuple@$$V@1@$0A@$$Z$S@?$pair@$$CBMUCDynamicSphereInstance@@@std@@QAE@AAV?$tuple@ABM@1@AAV?$tuple@$$V@1@U?$integer_sequence@I$0A@@1@U?$integer_sequence@I$S@1@@Z ; std::pair<float const ,CDynamicSphereInstance>::pair<float const ,CDynamicSphereInstance><std::tuple<float const &>,std::tuple<>,0>
PUBLIC	??1?$_Tree_head_scoped_ptr@V?$allocator@U?$_Tree_node@U?$pair@$$CBMUCDynamicSphereInstance@@@std@@PAX@std@@@std@@V?$_Tree_val@U?$_Tree_simple_types@U?$pair@$$CBMUCDynamicSphereInstance@@@std@@@std@@@2@@std@@QAE@XZ ; std::_Tree_head_scoped_ptr<std::allocator<std::_Tree_node<std::pair<float const ,CDynamicSphereInstance>,void *> >,std::_Tree_val<std::_Tree_simple_types<std::pair<float const ,CDynamicSphereInstance> > > >::~_Tree_head_scoped_ptr<std::allocator<std::_Tree_node<std::pair<float const ,CDynamicSphereInstance>,void *> >,std::_Tree_val<std::_Tree_simple_types<std::pair<float const ,CDynamicSphereInstance> > > >
PUBLIC	??$_Copy_nodes@U_Copy_tag@?$_Tree@V?$_Tmap_traits@MUCDynamicSphereInstance@@U?$less@M@std@@V?$allocator@U?$pair@$$CBMUCDynamicSphereInstance@@@std@@@3@$0A@@std@@@std@@@?$_Tree@V?$_Tmap_traits@MUCDynamicSphereInstance@@U?$less@M@std@@V?$allocator@U?$pair@$$CBMUCDynamicSphereInstance@@@std@@@3@$0A@@std@@@std@@IAEPAU?$_Tree_node@U?$pair@$$CBMUCDynamicSphereInstance@@@std@@PAX@1@PAU21@0U_Copy_tag@01@@Z ; std::_Tree<std::_Tmap_traits<float,CDynamicSphereInstance,std::less<float>,std::allocator<std::pair<float const ,CDynamicSphereInstance> >,0> >::_Copy_nodes<std::_Tree<std::_Tmap_traits<float,CDynamicSphereInstance,std::less<float>,std::allocator<std::pair<float const ,CDynamicSphereInstance> >,0> >::_Copy_tag>
PUBLIC	??$_Erase_tree_and_orphan@V?$allocator@U?$_Tree_node@U?$pair@$$CBMUCDynamicSphereInstance@@@std@@PAX@std@@@std@@@?$_Tree_val@U?$_Tree_simple_types@U?$pair@$$CBMUCDynamicSphereInstance@@@std@@@std@@@std@@QAEXAAV?$allocator@U?$_Tree_node@U?$pair@$$CBMUCDynamicSphereInstance@@@std@@PAX@std@@@1@PAU?$_Tree_node@U?$pair@$$CBMUCDynamicSphereInstance@@@std@@PAX@1@@Z ; std::_Tree_val<std::_Tree_simple_types<std::pair<float const ,CDynamicSphereInstance> > >::_Erase_tree_and_orphan<std::allocator<std::_Tree_node<std::pair<float const ,CDynamicSphereInstance>,void *> > >
PUBLIC	??_7exception@std@@6B@				; std::exception::`vftable'
PUBLIC	??_C@_0BC@EOODALEL@Unknown?5exception@		; `string'
PUBLIC	??_7bad_alloc@std@@6B@				; std::bad_alloc::`vftable'
PUBLIC	??_7bad_array_new_length@std@@6B@		; std::bad_array_new_length::`vftable'
PUBLIC	??_C@_0BF@KINCDENJ@bad?5array?5new?5length@	; `string'
PUBLIC	__TI3?AVbad_array_new_length@std@@
PUBLIC	__CTA3?AVbad_array_new_length@std@@
PUBLIC	??_R0?AVbad_array_new_length@std@@@8		; std::bad_array_new_length `RTTI Type Descriptor'
PUBLIC	__CT??_R0?AVbad_array_new_length@std@@@8??0bad_array_new_length@std@@QAE@ABV01@@Z12
PUBLIC	??_R0?AVbad_alloc@std@@@8			; std::bad_alloc `RTTI Type Descriptor'
PUBLIC	__CT??_R0?AVbad_alloc@std@@@8??0bad_alloc@std@@QAE@ABV01@@Z12
PUBLIC	??_R0?AVexception@std@@@8			; std::exception `RTTI Type Descriptor'
PUBLIC	__CT??_R0?AVexception@std@@@8??0exception@std@@QAE@ABV01@@Z12
PUBLIC	??_C@_0BA@JFNIOLAK@string?5too?5long@		; `string'
PUBLIC	??_C@_0BB@GCADKGJO@map?1set?5too?5long@		; `string'
PUBLIC	??_C@_00CNPNBAHC@@				; `string'
PUBLIC	??_7CBaseCollisionInstance@@6B@			; CBaseCollisionInstance::`vftable'
PUBLIC	??_7CSphereCollisionInstance@@6B@		; CSphereCollisionInstance::`vftable'
PUBLIC	??_7SCollisionData@NRaceData@@6B@		; NRaceData::SCollisionData::`vftable'
PUBLIC	??_7SAttachingEffectData@NRaceData@@6B@		; NRaceData::SAttachingEffectData::`vftable'
PUBLIC	??_7SAttachingObjectData@NRaceData@@6B@		; NRaceData::SAttachingObjectData::`vftable'
PUBLIC	?g_CollisionDataPool@NRaceData@@3V?$CDynamicPool@USCollisionData@NRaceData@@@@A ; NRaceData::g_CollisionDataPool
PUBLIC	?g_EffectDataPool@NRaceData@@3V?$CDynamicPool@USAttachingEffectData@NRaceData@@@@A ; NRaceData::g_EffectDataPool
PUBLIC	?g_ObjectDataPool@NRaceData@@3V?$CDynamicPool@USAttachingObjectData@NRaceData@@@@A ; NRaceData::g_ObjectDataPool
PUBLIC	??_R4exception@std@@6B@				; std::exception::`RTTI Complete Object Locator'
PUBLIC	??_R3exception@std@@8				; std::exception::`RTTI Class Hierarchy Descriptor'
PUBLIC	??_R2exception@std@@8				; std::exception::`RTTI Base Class Array'
PUBLIC	??_R1A@?0A@EA@exception@std@@8			; std::exception::`RTTI Base Class Descriptor at (0,-1,0,64)'
PUBLIC	??_R4bad_alloc@std@@6B@				; std::bad_alloc::`RTTI Complete Object Locator'
PUBLIC	??_R3bad_alloc@std@@8				; std::bad_alloc::`RTTI Class Hierarchy Descriptor'
PUBLIC	??_R2bad_alloc@std@@8				; std::bad_alloc::`RTTI Base Class Array'
PUBLIC	??_R1A@?0A@EA@bad_alloc@std@@8			; std::bad_alloc::`RTTI Base Class Descriptor at (0,-1,0,64)'
PUBLIC	??_R4bad_array_new_length@std@@6B@		; std::bad_array_new_length::`RTTI Complete Object Locator'
PUBLIC	??_R3bad_array_new_length@std@@8		; std::bad_array_new_length::`RTTI Class Hierarchy Descriptor'
PUBLIC	??_R2bad_array_new_length@std@@8		; std::bad_array_new_length::`RTTI Base Class Array'
PUBLIC	??_R1A@?0A@EA@bad_array_new_length@std@@8	; std::bad_array_new_length::`RTTI Base Class Descriptor at (0,-1,0,64)'
PUBLIC	??_R4SCollisionData@NRaceData@@6B@		; NRaceData::SCollisionData::`RTTI Complete Object Locator'
PUBLIC	??_R0?AUSCollisionData@NRaceData@@@8		; NRaceData::SCollisionData `RTTI Type Descriptor'
PUBLIC	??_R3SCollisionData@NRaceData@@8		; NRaceData::SCollisionData::`RTTI Class Hierarchy Descriptor'
PUBLIC	??_R2SCollisionData@NRaceData@@8		; NRaceData::SCollisionData::`RTTI Base Class Array'
PUBLIC	??_R1A@?0A@EA@SCollisionData@NRaceData@@8	; NRaceData::SCollisionData::`RTTI Base Class Descriptor at (0,-1,0,64)'
PUBLIC	??_R4SAttachingEffectData@NRaceData@@6B@	; NRaceData::SAttachingEffectData::`RTTI Complete Object Locator'
PUBLIC	??_R0?AUSAttachingEffectData@NRaceData@@@8	; NRaceData::SAttachingEffectData `RTTI Type Descriptor'
PUBLIC	??_R3SAttachingEffectData@NRaceData@@8		; NRaceData::SAttachingEffectData::`RTTI Class Hierarchy Descriptor'
PUBLIC	??_R2SAttachingEffectData@NRaceData@@8		; NRaceData::SAttachingEffectData::`RTTI Base Class Array'
PUBLIC	??_R1A@?0A@EA@SAttachingEffectData@NRaceData@@8	; NRaceData::SAttachingEffectData::`RTTI Base Class Descriptor at (0,-1,0,64)'
PUBLIC	??_R4SAttachingObjectData@NRaceData@@6B@	; NRaceData::SAttachingObjectData::`RTTI Complete Object Locator'
PUBLIC	??_R0?AUSAttachingObjectData@NRaceData@@@8	; NRaceData::SAttachingObjectData `RTTI Type Descriptor'
PUBLIC	??_R3SAttachingObjectData@NRaceData@@8		; NRaceData::SAttachingObjectData::`RTTI Class Hierarchy Descriptor'
PUBLIC	??_R2SAttachingObjectData@NRaceData@@8		; NRaceData::SAttachingObjectData::`RTTI Base Class Array'
PUBLIC	??_R1A@?0A@EA@SAttachingObjectData@NRaceData@@8	; NRaceData::SAttachingObjectData::`RTTI Base Class Descriptor at (0,-1,0,64)'
PUBLIC	?ms_kPool@?$CPooledObject@VCHeaderDecorator@NEffectUpdateDecorator@@@@1V?$CDynamicPoolEx@VCHeaderDecorator@NEffectUpdateDecorator@@@@A ; CPooledObject<NEffectUpdateDecorator::CHeaderDecorator>::ms_kPool
PUBLIC	?ms_kPool@?$CPooledObject@VCNullDecorator@NEffectUpdateDecorator@@@@1V?$CDynamicPoolEx@VCNullDecorator@NEffectUpdateDecorator@@@@A ; CPooledObject<NEffectUpdateDecorator::CNullDecorator>::ms_kPool
PUBLIC	?ms_kPool@?$CPooledObject@VCTextureAnimationCWDecorator@NEffectUpdateDecorator@@@@1V?$CDynamicPoolEx@VCTextureAnimationCWDecorator@NEffectUpdateDecorator@@@@A ; CPooledObject<NEffectUpdateDecorator::CTextureAnimationCWDecorator>::ms_kPool
PUBLIC	?ms_kPool@?$CPooledObject@VCTextureAnimationCCWDecorator@NEffectUpdateDecorator@@@@1V?$CDynamicPoolEx@VCTextureAnimationCCWDecorator@NEffectUpdateDecorator@@@@A ; CPooledObject<NEffectUpdateDecorator::CTextureAnimationCCWDecorator>::ms_kPool
PUBLIC	?ms_kPool@?$CPooledObject@VCTextureAnimationRandomDecorator@NEffectUpdateDecorator@@@@1V?$CDynamicPoolEx@VCTextureAnimationRandomDecorator@NEffectUpdateDecorator@@@@A ; CPooledObject<NEffectUpdateDecorator::CTextureAnimationRandomDecorator>::ms_kPool
PUBLIC	?ms_kPool@?$CPooledObject@VCAirResistanceDecorator@NEffectUpdateDecorator@@@@1V?$CDynamicPoolEx@VCAirResistanceDecorator@NEffectUpdateDecorator@@@@A ; CPooledObject<NEffectUpdateDecorator::CAirResistanceDecorator>::ms_kPool
PUBLIC	?ms_kPool@?$CPooledObject@VCGravityDecorator@NEffectUpdateDecorator@@@@1V?$CDynamicPoolEx@VCGravityDecorator@NEffectUpdateDecorator@@@@A ; CPooledObject<NEffectUpdateDecorator::CGravityDecorator>::ms_kPool
PUBLIC	?ms_kPool@?$CPooledObject@VCRotationDecorator@NEffectUpdateDecorator@@@@1V?$CDynamicPoolEx@VCRotationDecorator@NEffectUpdateDecorator@@@@A ; CPooledObject<NEffectUpdateDecorator::CRotationDecorator>::ms_kPool
PUBLIC	?ms_singleton@?$CSingleton@VCEffectManager@@@@0PAVCEffectManager@@A ; CSingleton<CEffectManager>::ms_singleton
PUBLIC	??_C@_0L@MFPNOHLP@attacktype@			; `string'
PUBLIC	??_C@_0M@IEMCNBIB@hittingtype@			; `string'
PUBLIC	??_C@_0M@HEIDABDC@stiffentime@			; `string'
PUBLIC	??_C@_0O@GBJCIDNL@invisibletime@		; `string'
PUBLIC	??_C@_0O@KAKKEPBE@externalforce@		; `string'
PUBLIC	??_C@_0O@PCIAOIBK@hitlimitcount@		; `string'
PUBLIC	??_C@_0BD@CPENFGPA@attackingstarttime@		; `string'
PUBLIC	??_C@_0BB@KAKEFPLI@attackingendtime@		; `string'
PUBLIC	??_C@_0O@MMIDKEHG@attackingbone@		; `string'
PUBLIC	??_C@_0N@MMFFHHOI@weaponlength@			; `string'
PUBLIC	??_C@_0M@IHNFHPGN@hitposition@			; `string'
PUBLIC	??_C@_0L@FECBOPBF@motiontype@			; `string'
PUBLIC	??_C@_0O@EAOJEAGN@attackingtype@		; `string'
PUBLIC	??_C@_0N@JENLJGO@hitdatacount@			; `string'
PUBLIC	??_C@_0O@LCILGBGA@collisiontype@		; `string'
PUBLIC	??_C@_0BA@PACKMKGG@spheredatacount@		; `string'
PUBLIC	??_C@_0L@JJLJPGHA@spheredata@			; `string'
PUBLIC	??_C@_06KGHINEPG@radius@			; `string'
PUBLIC	??_C@_08OAGMDKAF@position@			; `string'
PUBLIC	??_C@_0BL@NLAHNABK@EffectScriptName?5?5?5?5?5?$CC?$CFs?$CC?6@ ; `string'
PUBLIC	??_C@_0BP@CFDDPJAK@EffectPosition?5?5?5?5?5?5?5?$CFf?5?$CFf?5?$CFf?6@ ; `string'
PUBLIC	??_C@_0BP@HKKPGBPJ@EffectRotation?5?5?5?5?5?5?5?$CFf?5?$CFf?5?$CFf?6@ ; `string'
PUBLIC	??_C@_0BL@DJLPHPIA@ObjectScriptName?5?5?5?5?5?$CC?$CFs?$CC?6@ ; `string'
PUBLIC	??_C@_0BB@OKGDPHII@effectscriptname@		; `string'
PUBLIC	??_C@_0P@PMGDNJPL@effectposition@		; `string'
PUBLIC	??_C@_0P@PLGBENJO@effectrotation@		; `string'
PUBLIC	??_C@_0BB@EJILMNLC@objectscriptname@		; `string'
PUBLIC	??_C@_0BJ@EGAIMMNM@AttackType?5?5?5?5?5?5?5?5?5?5?5?$CFd?6@ ; `string'
PUBLIC	??_C@_0BJ@LOMGAMME@HittingType?5?5?5?5?5?5?5?5?5?5?$CFd?6@ ; `string'
PUBLIC	??_C@_0BJ@PMKNADAG@StiffenTime?5?5?5?5?5?5?5?5?5?5?$CFf?6@ ; `string'
PUBLIC	??_C@_0BJ@PMIBIGHB@InvisibleTime?5?5?5?5?5?5?5?5?$CFf?6@ ; `string'
PUBLIC	??_C@_0BJ@LGCKNMAM@ExternalForce?5?5?5?5?5?5?5?5?$CFf?6@ ; `string'
PUBLIC	??_C@_0BJ@CEBPFMIJ@HitLimitCount?5?5?5?5?5?5?5?5?$CFd?6@ ; `string'
PUBLIC	??_C@_01EEMJAFIK@?6@				; `string'
PUBLIC	??_C@_0BJ@MBAEAEOJ@MotionType?5?5?5?5?5?5?5?5?5?5?5?$CFd?6@ ; `string'
PUBLIC	??_C@_0BJ@HFLBJKFP@HitDataCount?5?5?5?5?5?5?5?5?5?$CFd?6@ ; `string'
PUBLIC	??_C@_0BD@OJFCEOOP@Group?5HitData?$CF02d?6@	; `string'
PUBLIC	??_C@_02KCPFEJNG@?$HL?6@			; `string'
PUBLIC	??_C@_0BJ@PBKKALID@AttackingStartTime?5?5?5?$CFf?6@ ; `string'
PUBLIC	??_C@_0BJ@GFEFBFDJ@AttackingEndTime?5?5?5?5?5?$CFf?6@ ; `string'
PUBLIC	??_C@_0BL@OMPHLDJB@AttackingBone?5?5?5?5?5?5?5?5?$CC?$CFs?$CC?6@ ; `string'
PUBLIC	??_C@_0BJ@DPGEFILL@WeaponLength?5?5?5?5?5?5?5?5?5?$CFf?6@ ; `string'
PUBLIC	??_C@_0BC@FOOKPLLP@List?5HitPosition?6@		; `string'
PUBLIC	??_C@_0BG@DHJNNNIC@?$CFf?5?$CFf?5?$CFf?5?$CFf?5?$CFf?5?$CFf?5?$CFf?6@ ; `string'
PUBLIC	??_C@_02KGHIDFGE@?$HN?6@			; `string'
PUBLIC	??_C@_0BJ@DIEJPDEB@CollisionType?5?5?5?5?5?5?5?5?$CFd?6@ ; `string'
PUBLIC	??_C@_0BJ@LLPIPOLN@SphereDataCount?5?5?5?5?5?5?$CFd?6@ ; `string'
PUBLIC	??_C@_0BG@KEPKCEAC@Group?5SphereData?$CF02d?6@	; `string'
PUBLIC	??_C@_0BF@CAOAGEDL@Radius?5?5?5?5?5?5?5?5?5?5?5?$CFf?6@ ; `string'
PUBLIC	??_C@_0BL@DHPAPBDL@Position?5?5?5?5?5?5?5?5?5?$CFf?5?$CFf?5?$CFf?6@ ; `string'
PUBLIC	??_C@_0BN@MFLPMEFJ@AttachingDataCount?5?5?5?5?5?5?5?$CFd?6@ ; `string'
PUBLIC	??_C@_0BJ@DLPFDMOE@Group?5AttachingData?$CF02d?6@ ; `string'
PUBLIC	??_C@_0BJ@IOEHDAIG@AttachingDataType?5?5?5?5?$CFd?6@ ; `string'
PUBLIC	??_C@_0BJ@CHCKAAIO@isAttaching?5?5?5?5?5?5?5?5?5?5?$CFd?6@ ; `string'
PUBLIC	??_C@_0BJ@HNFALFHA@AttachingModelIndex?5?5?$CFd?6@ ; `string'
PUBLIC	??_C@_0BL@PLABIPOF@AttachingBoneName?5?5?5?5?$CC?$CFs?$CC?6@ ; `string'
PUBLIC	??_C@_0BD@FANHLGEG@attachingdatacount@		; `string'
PUBLIC	??_C@_0O@OPEMPJIC@attachingdata@		; `string'
PUBLIC	??_C@_0BC@MHCCJHKE@attachingdatatype@		; `string'
PUBLIC	??_C@_0M@MJFJJMOM@isattaching@			; `string'
PUBLIC	??_C@_0BE@HAHPJOBE@attachingmodelindex@		; `string'
PUBLIC	??_C@_0BC@FCIOLNPK@attachingbonename@		; `string'
PUBLIC	??_C@_0BJ@DHFDPMIM@invalid?5vector?5subscript@	; `string'
PUBLIC	??_C@_0BA@FOIKENOD@vector?5too?5long@		; `string'
PUBLIC	??_R4CBaseCollisionInstance@@6B@		; CBaseCollisionInstance::`RTTI Complete Object Locator'
PUBLIC	??_R0?AVCBaseCollisionInstance@@@8		; CBaseCollisionInstance `RTTI Type Descriptor'
PUBLIC	??_R3CBaseCollisionInstance@@8			; CBaseCollisionInstance::`RTTI Class Hierarchy Descriptor'
PUBLIC	??_R2CBaseCollisionInstance@@8			; CBaseCollisionInstance::`RTTI Base Class Array'
PUBLIC	??_R1A@?0A@EA@CBaseCollisionInstance@@8		; CBaseCollisionInstance::`RTTI Base Class Descriptor at (0,-1,0,64)'
PUBLIC	??_R4CSphereCollisionInstance@@6B@		; CSphereCollisionInstance::`RTTI Complete Object Locator'
PUBLIC	??_R0?AVCSphereCollisionInstance@@@8		; CSphereCollisionInstance `RTTI Type Descriptor'
PUBLIC	??_R3CSphereCollisionInstance@@8		; CSphereCollisionInstance::`RTTI Class Hierarchy Descriptor'
PUBLIC	??_R2CSphereCollisionInstance@@8		; CSphereCollisionInstance::`RTTI Base Class Array'
PUBLIC	??_R1A@?0A@EA@CSphereCollisionInstance@@8	; CSphereCollisionInstance::`RTTI Base Class Descriptor at (0,-1,0,64)'
EXTRN	__purecall:PROC
EXTRN	??2@YAPAXI@Z:PROC				; operator new
EXTRN	??3@YAXPAX@Z:PROC				; operator delete
EXTRN	??3@YAXPAXI@Z:PROC				; operator delete
EXTRN	_atexit:PROC
EXTRN	__invalid_parameter_noinfo_noreturn:PROC
EXTRN	_atof:PROC
EXTRN	___std_exception_copy:PROC
EXTRN	___std_exception_destroy:PROC
EXTRN	??_Eexception@std@@UAEPAXI@Z:PROC		; std::exception::`vector deleting destructor'
EXTRN	??_Ebad_alloc@std@@UAEPAXI@Z:PROC		; std::bad_alloc::`vector deleting destructor'
EXTRN	??_Ebad_array_new_length@std@@UAEPAXI@Z:PROC	; std::bad_array_new_length::`vector deleting destructor'
EXTRN	?_Xlength_error@std@@YAXPBD@Z:PROC		; std::_Xlength_error
EXTRN	?_Xout_of_range@std@@YAXPBD@Z:PROC		; std::_Xout_of_range
EXTRN	?PrintfTabs@@YAXPAU_iobuf@@HPBDZZ:PROC		; PrintfTabs
EXTRN	?SetChildNode@CTextFileLoader@@QAEHABV?$basic_string@DU?$char_traits@D@std@@V?$allocator@D@2@@std@@K@Z:PROC ; CTextFileLoader::SetChildNode
EXTRN	?SetChildNode@CTextFileLoader@@QAEHK@Z:PROC	; CTextFileLoader::SetChildNode
EXTRN	?SetParentNode@CTextFileLoader@@QAEHXZ:PROC	; CTextFileLoader::SetParentNode
EXTRN	?GetTokenVector@CTextFileLoader@@QAEHABV?$basic_string@DU?$char_traits@D@std@@V?$allocator@D@2@@std@@PAPAV?$vector@V?$basic_string@DU?$char_traits@D@std@@V?$allocator@D@2@@std@@V?$allocator@V?$basic_string@DU?$char_traits@D@std@@V?$allocator@D@2@@std@@@2@@3@@Z:PROC ; CTextFileLoader::GetTokenVector
EXTRN	?GetTokenInteger@CTextFileLoader@@QAEHABV?$basic_string@DU?$char_traits@D@std@@V?$allocator@D@2@@std@@PAH@Z:PROC ; CTextFileLoader::GetTokenInteger
EXTRN	?GetTokenDoubleWord@CTextFileLoader@@QAEHABV?$basic_string@DU?$char_traits@D@std@@V?$allocator@D@2@@std@@PAK@Z:PROC ; CTextFileLoader::GetTokenDoubleWord
EXTRN	?GetTokenFloat@CTextFileLoader@@QAEHABV?$basic_string@DU?$char_traits@D@std@@V?$allocator@D@2@@std@@PAM@Z:PROC ; CTextFileLoader::GetTokenFloat
EXTRN	?GetTokenPosition@CTextFileLoader@@QAEHABV?$basic_string@DU?$char_traits@D@std@@V?$allocator@D@2@@std@@PAUD3DXVECTOR3@@@Z:PROC ; CTextFileLoader::GetTokenPosition
EXTRN	?GetTokenString@CTextFileLoader@@QAEHABV?$basic_string@DU?$char_traits@D@std@@V?$allocator@D@2@@std@@PAV23@@Z:PROC ; CTextFileLoader::GetTokenString
EXTRN	?GetAttribute@CSphereCollisionInstance@@QAEAAUSSphereData@@XZ:PROC ; CSphereCollisionInstance::GetAttribute
EXTRN	?GetAttribute@CSphereCollisionInstance@@QBEABUSSphereData@@XZ:PROC ; CSphereCollisionInstance::GetAttribute
EXTRN	?Render@CSphereCollisionInstance@@UAEXW4_D3DFILLMODE@@@Z:PROC ; CSphereCollisionInstance::Render
EXTRN	?OnDestroy@CSphereCollisionInstance@@MAEXXZ:PROC ; CSphereCollisionInstance::OnDestroy
EXTRN	?OnMovementCollisionDynamicSphere@CSphereCollisionInstance@@MBE_NABUCDynamicSphereInstance@@@Z:PROC ; CSphereCollisionInstance::OnMovementCollisionDynamicSphere
EXTRN	?OnCollisionDynamicSphere@CSphereCollisionInstance@@MBE_NABUCDynamicSphereInstance@@@Z:PROC ; CSphereCollisionInstance::OnCollisionDynamicSphere
EXTRN	?OnGetCollisionMovementAdjust@CSphereCollisionInstance@@MBE?AUD3DXVECTOR3@@ABUCDynamicSphereInstance@@@Z:PROC ; CSphereCollisionInstance::OnGetCollisionMovementAdjust
EXTRN	??_ESCollisionData@NRaceData@@UAEPAXI@Z:PROC	; NRaceData::SCollisionData::`vector deleting destructor'
EXTRN	??_ESAttachingEffectData@NRaceData@@UAEPAXI@Z:PROC ; NRaceData::SAttachingEffectData::`vector deleting destructor'
EXTRN	??_ESAttachingObjectData@NRaceData@@UAEPAXI@Z:PROC ; NRaceData::SAttachingObjectData::`vector deleting destructor'
EXTRN	?RegisterEffect@CEffectManager@@QAEHPBD_N1@Z:PROC ; CEffectManager::RegisterEffect
EXTRN	@__security_check_cookie@4:PROC
EXTRN	__CxxThrowException@8:PROC
EXTRN	___CxxFrameHandler3:PROC
EXTRN	_memcpy:PROC
EXTRN	_memmove:PROC
EXTRN	_memset:PROC
EXTRN	___security_cookie:DWORD
EXTRN	__fltused:DWORD
;	COMDAT ?ms_singleton@?$CSingleton@VCEffectManager@@@@0PAVCEffectManager@@A
_BSS	SEGMENT
?ms_singleton@?$CSingleton@VCEffectManager@@@@0PAVCEffectManager@@A DD 01H DUP (?) ; CSingleton<CEffectManager>::ms_singleton
_BSS	ENDS
CRT$XCU	SEGMENT
?g_CollisionDataPool$initializer$@NRaceData@@3P6AXXZA DD FLAT:??__Eg_CollisionDataPool@NRaceData@@YAXXZ ; NRaceData::g_CollisionDataPool$initializer$
CRT$XCU	ENDS
;	COMDAT ??_R1A@?0A@EA@CSphereCollisionInstance@@8
rdata$r	SEGMENT
??_R1A@?0A@EA@CSphereCollisionInstance@@8 DD FLAT:??_R0?AVCSphereCollisionInstance@@@8 ; CSphereCollisionInstance::`RTTI Base Class Descriptor at (0,-1,0,64)'
	DD	01H
	DD	00H
	DD	0ffffffffH
	DD	00H
	DD	040H
	DD	FLAT:??_R3CSphereCollisionInstance@@8
rdata$r	ENDS
;	COMDAT ??_R2CSphereCollisionInstance@@8
rdata$r	SEGMENT
??_R2CSphereCollisionInstance@@8 DD FLAT:??_R1A@?0A@EA@CSphereCollisionInstance@@8 ; CSphereCollisionInstance::`RTTI Base Class Array'
	DD	FLAT:??_R1A@?0A@EA@CBaseCollisionInstance@@8
rdata$r	ENDS
;	COMDAT ??_R3CSphereCollisionInstance@@8
rdata$r	SEGMENT
??_R3CSphereCollisionInstance@@8 DD 00H			; CSphereCollisionInstance::`RTTI Class Hierarchy Descriptor'
	DD	00H
	DD	02H
	DD	FLAT:??_R2CSphereCollisionInstance@@8
rdata$r	ENDS
;	COMDAT ??_R0?AVCSphereCollisionInstance@@@8
data$r	SEGMENT
??_R0?AVCSphereCollisionInstance@@@8 DD FLAT:??_7type_info@@6B@ ; CSphereCollisionInstance `RTTI Type Descriptor'
	DD	00H
	DB	'.?AVCSphereCollisionInstance@@', 00H
data$r	ENDS
;	COMDAT ??_R4CSphereCollisionInstance@@6B@
rdata$r	SEGMENT
??_R4CSphereCollisionInstance@@6B@ DD 00H		; CSphereCollisionInstance::`RTTI Complete Object Locator'
	DD	00H
	DD	00H
	DD	FLAT:??_R0?AVCSphereCollisionInstance@@@8
	DD	FLAT:??_R3CSphereCollisionInstance@@8
rdata$r	ENDS
;	COMDAT ??_R1A@?0A@EA@CBaseCollisionInstance@@8
rdata$r	SEGMENT
??_R1A@?0A@EA@CBaseCollisionInstance@@8 DD FLAT:??_R0?AVCBaseCollisionInstance@@@8 ; CBaseCollisionInstance::`RTTI Base Class Descriptor at (0,-1,0,64)'
	DD	00H
	DD	00H
	DD	0ffffffffH
	DD	00H
	DD	040H
	DD	FLAT:??_R3CBaseCollisionInstance@@8
rdata$r	ENDS
;	COMDAT ??_R2CBaseCollisionInstance@@8
rdata$r	SEGMENT
??_R2CBaseCollisionInstance@@8 DD FLAT:??_R1A@?0A@EA@CBaseCollisionInstance@@8 ; CBaseCollisionInstance::`RTTI Base Class Array'
rdata$r	ENDS
;	COMDAT ??_R3CBaseCollisionInstance@@8
rdata$r	SEGMENT
??_R3CBaseCollisionInstance@@8 DD 00H			; CBaseCollisionInstance::`RTTI Class Hierarchy Descriptor'
	DD	00H
	DD	01H
	DD	FLAT:??_R2CBaseCollisionInstance@@8
rdata$r	ENDS
;	COMDAT ??_R0?AVCBaseCollisionInstance@@@8
data$r	SEGMENT
??_R0?AVCBaseCollisionInstance@@@8 DD FLAT:??_7type_info@@6B@ ; CBaseCollisionInstance `RTTI Type Descriptor'
	DD	00H
	DB	'.?AVCBaseCollisionInstance@@', 00H
data$r	ENDS
;	COMDAT ??_R4CBaseCollisionInstance@@6B@
rdata$r	SEGMENT
??_R4CBaseCollisionInstance@@6B@ DD 00H			; CBaseCollisionInstance::`RTTI Complete Object Locator'
	DD	00H
	DD	00H
	DD	FLAT:??_R0?AVCBaseCollisionInstance@@@8
	DD	FLAT:??_R3CBaseCollisionInstance@@8
rdata$r	ENDS
;	COMDAT ??_C@_0BA@FOIKENOD@vector?5too?5long@
CONST	SEGMENT
??_C@_0BA@FOIKENOD@vector?5too?5long@ DB 'vector too long', 00H ; `string'
CONST	ENDS
;	COMDAT ??_C@_0BJ@DHFDPMIM@invalid?5vector?5subscript@
CONST	SEGMENT
??_C@_0BJ@DHFDPMIM@invalid?5vector?5subscript@ DB 'invalid vector subscri'
	DB	'pt', 00H					; `string'
CONST	ENDS
;	COMDAT ??_C@_0BC@FCIOLNPK@attachingbonename@
CONST	SEGMENT
??_C@_0BC@FCIOLNPK@attachingbonename@ DB 'attachingbonename', 00H ; `string'
CONST	ENDS
;	COMDAT ??_C@_0BE@HAHPJOBE@attachingmodelindex@
CONST	SEGMENT
??_C@_0BE@HAHPJOBE@attachingmodelindex@ DB 'attachingmodelindex', 00H ; `string'
CONST	ENDS
;	COMDAT ??_C@_0M@MJFJJMOM@isattaching@
CONST	SEGMENT
??_C@_0M@MJFJJMOM@isattaching@ DB 'isattaching', 00H	; `string'
CONST	ENDS
;	COMDAT ??_C@_0BC@MHCCJHKE@attachingdatatype@
CONST	SEGMENT
??_C@_0BC@MHCCJHKE@attachingdatatype@ DB 'attachingdatatype', 00H ; `string'
CONST	ENDS
;	COMDAT ??_C@_0O@OPEMPJIC@attachingdata@
CONST	SEGMENT
??_C@_0O@OPEMPJIC@attachingdata@ DB 'attachingdata', 00H ; `string'
CONST	ENDS
;	COMDAT ??_C@_0BD@FANHLGEG@attachingdatacount@
CONST	SEGMENT
??_C@_0BD@FANHLGEG@attachingdatacount@ DB 'attachingdatacount', 00H ; `string'
CONST	ENDS
;	COMDAT ??_C@_0BL@PLABIPOF@AttachingBoneName?5?5?5?5?$CC?$CFs?$CC?6@
CONST	SEGMENT
??_C@_0BL@PLABIPOF@AttachingBoneName?5?5?5?5?$CC?$CFs?$CC?6@ DB 'Attachin'
	DB	'gBoneName    "%s"', 0aH, 00H		; `string'
CONST	ENDS
;	COMDAT ??_C@_0BJ@HNFALFHA@AttachingModelIndex?5?5?$CFd?6@
CONST	SEGMENT
??_C@_0BJ@HNFALFHA@AttachingModelIndex?5?5?$CFd?6@ DB 'AttachingModelInde'
	DB	'x  %d', 0aH, 00H				; `string'
CONST	ENDS
;	COMDAT ??_C@_0BJ@CHCKAAIO@isAttaching?5?5?5?5?5?5?5?5?5?5?$CFd?6@
CONST	SEGMENT
??_C@_0BJ@CHCKAAIO@isAttaching?5?5?5?5?5?5?5?5?5?5?$CFd?6@ DB 'isAttachin'
	DB	'g          %d', 0aH, 00H			; `string'
CONST	ENDS
;	COMDAT ??_C@_0BJ@IOEHDAIG@AttachingDataType?5?5?5?5?$CFd?6@
CONST	SEGMENT
??_C@_0BJ@IOEHDAIG@AttachingDataType?5?5?5?5?$CFd?6@ DB 'AttachingDataTyp'
	DB	'e    %d', 0aH, 00H				; `string'
CONST	ENDS
;	COMDAT ??_C@_0BJ@DLPFDMOE@Group?5AttachingData?$CF02d?6@
CONST	SEGMENT
??_C@_0BJ@DLPFDMOE@Group?5AttachingData?$CF02d?6@ DB 'Group AttachingData'
	DB	'%02d', 0aH, 00H				; `string'
CONST	ENDS
;	COMDAT ??_C@_0BN@MFLPMEFJ@AttachingDataCount?5?5?5?5?5?5?5?$CFd?6@
CONST	SEGMENT
??_C@_0BN@MFLPMEFJ@AttachingDataCount?5?5?5?5?5?5?5?$CFd?6@ DB 'Attaching'
	DB	'DataCount       %d', 0aH, 00H		; `string'
CONST	ENDS
;	COMDAT ??_C@_0BL@DHPAPBDL@Position?5?5?5?5?5?5?5?5?5?$CFf?5?$CFf?5?$CFf?6@
CONST	SEGMENT
??_C@_0BL@DHPAPBDL@Position?5?5?5?5?5?5?5?5?5?$CFf?5?$CFf?5?$CFf?6@ DB 'P'
	DB	'osition         %f %f %f', 0aH, 00H		; `string'
CONST	ENDS
;	COMDAT ??_C@_0BF@CAOAGEDL@Radius?5?5?5?5?5?5?5?5?5?5?5?$CFf?6@
CONST	SEGMENT
??_C@_0BF@CAOAGEDL@Radius?5?5?5?5?5?5?5?5?5?5?5?$CFf?6@ DB 'Radius       '
	DB	'    %f', 0aH, 00H				; `string'
CONST	ENDS
;	COMDAT ??_C@_0BG@KEPKCEAC@Group?5SphereData?$CF02d?6@
CONST	SEGMENT
??_C@_0BG@KEPKCEAC@Group?5SphereData?$CF02d?6@ DB 'Group SphereData%02d', 0aH
	DB	00H						; `string'
CONST	ENDS
;	COMDAT ??_C@_0BJ@LLPIPOLN@SphereDataCount?5?5?5?5?5?5?$CFd?6@
CONST	SEGMENT
??_C@_0BJ@LLPIPOLN@SphereDataCount?5?5?5?5?5?5?$CFd?6@ DB 'SphereDataCoun'
	DB	't      %d', 0aH, 00H			; `string'
CONST	ENDS
;	COMDAT ??_C@_0BJ@DIEJPDEB@CollisionType?5?5?5?5?5?5?5?5?$CFd?6@
CONST	SEGMENT
??_C@_0BJ@DIEJPDEB@CollisionType?5?5?5?5?5?5?5?5?$CFd?6@ DB 'CollisionTyp'
	DB	'e        %d', 0aH, 00H			; `string'
CONST	ENDS
;	COMDAT ??_C@_02KGHIDFGE@?$HN?6@
CONST	SEGMENT
??_C@_02KGHIDFGE@?$HN?6@ DB '}', 0aH, 00H		; `string'
CONST	ENDS
;	COMDAT ??_C@_0BG@DHJNNNIC@?$CFf?5?$CFf?5?$CFf?5?$CFf?5?$CFf?5?$CFf?5?$CFf?6@
CONST	SEGMENT
??_C@_0BG@DHJNNNIC@?$CFf?5?$CFf?5?$CFf?5?$CFf?5?$CFf?5?$CFf?5?$CFf?6@ DB '%'
	DB	'f %f %f %f %f %f %f', 0aH, 00H		; `string'
CONST	ENDS
;	COMDAT ??_C@_0BC@FOOKPLLP@List?5HitPosition?6@
CONST	SEGMENT
??_C@_0BC@FOOKPLLP@List?5HitPosition?6@ DB 'List HitPosition', 0aH, 00H ; `string'
CONST	ENDS
;	COMDAT ??_C@_0BJ@DPGEFILL@WeaponLength?5?5?5?5?5?5?5?5?5?$CFf?6@
CONST	SEGMENT
??_C@_0BJ@DPGEFILL@WeaponLength?5?5?5?5?5?5?5?5?5?$CFf?6@ DB 'WeaponLengt'
	DB	'h         %f', 0aH, 00H			; `string'
CONST	ENDS
;	COMDAT ??_C@_0BL@OMPHLDJB@AttackingBone?5?5?5?5?5?5?5?5?$CC?$CFs?$CC?6@
CONST	SEGMENT
??_C@_0BL@OMPHLDJB@AttackingBone?5?5?5?5?5?5?5?5?$CC?$CFs?$CC?6@ DB 'Atta'
	DB	'ckingBone        "%s"', 0aH, 00H		; `string'
CONST	ENDS
;	COMDAT ??_C@_0BJ@GFEFBFDJ@AttackingEndTime?5?5?5?5?5?$CFf?6@
CONST	SEGMENT
??_C@_0BJ@GFEFBFDJ@AttackingEndTime?5?5?5?5?5?$CFf?6@ DB 'AttackingEndTim'
	DB	'e     %f', 0aH, 00H				; `string'
CONST	ENDS
;	COMDAT ??_C@_0BJ@PBKKALID@AttackingStartTime?5?5?5?$CFf?6@
CONST	SEGMENT
??_C@_0BJ@PBKKALID@AttackingStartTime?5?5?5?$CFf?6@ DB 'AttackingStartTim'
	DB	'e   %f', 0aH, 00H				; `string'
CONST	ENDS
;	COMDAT ??_C@_02KCPFEJNG@?$HL?6@
CONST	SEGMENT
??_C@_02KCPFEJNG@?$HL?6@ DB '{', 0aH, 00H		; `string'
CONST	ENDS
;	COMDAT ??_C@_0BD@OJFCEOOP@Group?5HitData?$CF02d?6@
CONST	SEGMENT
??_C@_0BD@OJFCEOOP@Group?5HitData?$CF02d?6@ DB 'Group HitData%02d', 0aH, 00H ; `string'
CONST	ENDS
;	COMDAT ??_C@_0BJ@HFLBJKFP@HitDataCount?5?5?5?5?5?5?5?5?5?$CFd?6@
CONST	SEGMENT
??_C@_0BJ@HFLBJKFP@HitDataCount?5?5?5?5?5?5?5?5?5?$CFd?6@ DB 'HitDataCoun'
	DB	't         %d', 0aH, 00H			; `string'
CONST	ENDS
;	COMDAT ??_C@_0BJ@MBAEAEOJ@MotionType?5?5?5?5?5?5?5?5?5?5?5?$CFd?6@
CONST	SEGMENT
??_C@_0BJ@MBAEAEOJ@MotionType?5?5?5?5?5?5?5?5?5?5?5?$CFd?6@ DB 'MotionTyp'
	DB	'e           %d', 0aH, 00H			; `string'
CONST	ENDS
;	COMDAT ??_C@_01EEMJAFIK@?6@
CONST	SEGMENT
??_C@_01EEMJAFIK@?6@ DB 0aH, 00H			; `string'
CONST	ENDS
;	COMDAT ??_C@_0BJ@CEBPFMIJ@HitLimitCount?5?5?5?5?5?5?5?5?$CFd?6@
CONST	SEGMENT
??_C@_0BJ@CEBPFMIJ@HitLimitCount?5?5?5?5?5?5?5?5?$CFd?6@ DB 'HitLimitCoun'
	DB	't        %d', 0aH, 00H			; `string'
CONST	ENDS
;	COMDAT ??_C@_0BJ@LGCKNMAM@ExternalForce?5?5?5?5?5?5?5?5?$CFf?6@
CONST	SEGMENT
??_C@_0BJ@LGCKNMAM@ExternalForce?5?5?5?5?5?5?5?5?$CFf?6@ DB 'ExternalForc'
	DB	'e        %f', 0aH, 00H			; `string'
CONST	ENDS
;	COMDAT ??_C@_0BJ@PMIBIGHB@InvisibleTime?5?5?5?5?5?5?5?5?$CFf?6@
CONST	SEGMENT
??_C@_0BJ@PMIBIGHB@InvisibleTime?5?5?5?5?5?5?5?5?$CFf?6@ DB 'InvisibleTim'
	DB	'e        %f', 0aH, 00H			; `string'
CONST	ENDS
;	COMDAT ??_C@_0BJ@PMKNADAG@StiffenTime?5?5?5?5?5?5?5?5?5?5?$CFf?6@
CONST	SEGMENT
??_C@_0BJ@PMKNADAG@StiffenTime?5?5?5?5?5?5?5?5?5?5?$CFf?6@ DB 'StiffenTim'
	DB	'e          %f', 0aH, 00H			; `string'
CONST	ENDS
;	COMDAT ??_C@_0BJ@LOMGAMME@HittingType?5?5?5?5?5?5?5?5?5?5?$CFd?6@
CONST	SEGMENT
??_C@_0BJ@LOMGAMME@HittingType?5?5?5?5?5?5?5?5?5?5?$CFd?6@ DB 'HittingTyp'
	DB	'e          %d', 0aH, 00H			; `string'
CONST	ENDS
;	COMDAT ??_C@_0BJ@EGAIMMNM@AttackType?5?5?5?5?5?5?5?5?5?5?5?$CFd?6@
CONST	SEGMENT
??_C@_0BJ@EGAIMMNM@AttackType?5?5?5?5?5?5?5?5?5?5?5?$CFd?6@ DB 'AttackTyp'
	DB	'e           %d', 0aH, 00H			; `string'
CONST	ENDS
;	COMDAT ??_C@_0BB@EJILMNLC@objectscriptname@
CONST	SEGMENT
??_C@_0BB@EJILMNLC@objectscriptname@ DB 'objectscriptname', 00H ; `string'
CONST	ENDS
;	COMDAT ??_C@_0P@PLGBENJO@effectrotation@
CONST	SEGMENT
??_C@_0P@PLGBENJO@effectrotation@ DB 'effectrotation', 00H ; `string'
CONST	ENDS
;	COMDAT ??_C@_0P@PMGDNJPL@effectposition@
CONST	SEGMENT
??_C@_0P@PMGDNJPL@effectposition@ DB 'effectposition', 00H ; `string'
CONST	ENDS
;	COMDAT ??_C@_0BB@OKGDPHII@effectscriptname@
CONST	SEGMENT
??_C@_0BB@OKGDPHII@effectscriptname@ DB 'effectscriptname', 00H ; `string'
CONST	ENDS
;	COMDAT ??_C@_0BL@DJLPHPIA@ObjectScriptName?5?5?5?5?5?$CC?$CFs?$CC?6@
CONST	SEGMENT
??_C@_0BL@DJLPHPIA@ObjectScriptName?5?5?5?5?5?$CC?$CFs?$CC?6@ DB 'ObjectS'
	DB	'criptName     "%s"', 0aH, 00H		; `string'
CONST	ENDS
;	COMDAT ??_C@_0BP@HKKPGBPJ@EffectRotation?5?5?5?5?5?5?5?$CFf?5?$CFf?5?$CFf?6@
CONST	SEGMENT
??_C@_0BP@HKKPGBPJ@EffectRotation?5?5?5?5?5?5?5?$CFf?5?$CFf?5?$CFf?6@ DB 'E'
	DB	'ffectRotation       %f %f %f', 0aH, 00H	; `string'
CONST	ENDS
;	COMDAT ??_C@_0BP@CFDDPJAK@EffectPosition?5?5?5?5?5?5?5?$CFf?5?$CFf?5?$CFf?6@
CONST	SEGMENT
??_C@_0BP@CFDDPJAK@EffectPosition?5?5?5?5?5?5?5?$CFf?5?$CFf?5?$CFf?6@ DB 'E'
	DB	'ffectPosition       %f %f %f', 0aH, 00H	; `string'
CONST	ENDS
;	COMDAT ??_C@_0BL@NLAHNABK@EffectScriptName?5?5?5?5?5?$CC?$CFs?$CC?6@
CONST	SEGMENT
??_C@_0BL@NLAHNABK@EffectScriptName?5?5?5?5?5?$CC?$CFs?$CC?6@ DB 'EffectS'
	DB	'criptName     "%s"', 0aH, 00H		; `string'
CONST	ENDS
;	COMDAT ??_C@_08OAGMDKAF@position@
CONST	SEGMENT
??_C@_08OAGMDKAF@position@ DB 'position', 00H		; `string'
CONST	ENDS
;	COMDAT ??_C@_06KGHINEPG@radius@
CONST	SEGMENT
??_C@_06KGHINEPG@radius@ DB 'radius', 00H		; `string'
CONST	ENDS
;	COMDAT ??_C@_0L@JJLJPGHA@spheredata@
CONST	SEGMENT
??_C@_0L@JJLJPGHA@spheredata@ DB 'spheredata', 00H	; `string'
CONST	ENDS
;	COMDAT ??_C@_0BA@PACKMKGG@spheredatacount@
CONST	SEGMENT
??_C@_0BA@PACKMKGG@spheredatacount@ DB 'spheredatacount', 00H ; `string'
CONST	ENDS
;	COMDAT ??_C@_0O@LCILGBGA@collisiontype@
CONST	SEGMENT
??_C@_0O@LCILGBGA@collisiontype@ DB 'collisiontype', 00H ; `string'
CONST	ENDS
;	COMDAT ??_C@_0N@JENLJGO@hitdatacount@
CONST	SEGMENT
??_C@_0N@JENLJGO@hitdatacount@ DB 'hitdatacount', 00H	; `string'
CONST	ENDS
;	COMDAT ??_C@_0O@EAOJEAGN@attackingtype@
CONST	SEGMENT
??_C@_0O@EAOJEAGN@attackingtype@ DB 'attackingtype', 00H ; `string'
CONST	ENDS
;	COMDAT ??_C@_0L@FECBOPBF@motiontype@
CONST	SEGMENT
??_C@_0L@FECBOPBF@motiontype@ DB 'motiontype', 00H	; `string'
CONST	ENDS
;	COMDAT ??_C@_0M@IHNFHPGN@hitposition@
CONST	SEGMENT
??_C@_0M@IHNFHPGN@hitposition@ DB 'hitposition', 00H	; `string'
CONST	ENDS
;	COMDAT ??_C@_0N@MMFFHHOI@weaponlength@
CONST	SEGMENT
??_C@_0N@MMFFHHOI@weaponlength@ DB 'weaponlength', 00H	; `string'
CONST	ENDS
;	COMDAT ??_C@_0O@MMIDKEHG@attackingbone@
CONST	SEGMENT
??_C@_0O@MMIDKEHG@attackingbone@ DB 'attackingbone', 00H ; `string'
CONST	ENDS
;	COMDAT ??_C@_0BB@KAKEFPLI@attackingendtime@
CONST	SEGMENT
??_C@_0BB@KAKEFPLI@attackingendtime@ DB 'attackingendtime', 00H ; `string'
CONST	ENDS
;	COMDAT ??_C@_0BD@CPENFGPA@attackingstarttime@
CONST	SEGMENT
??_C@_0BD@CPENFGPA@attackingstarttime@ DB 'attackingstarttime', 00H ; `string'
CONST	ENDS
;	COMDAT ??_C@_0O@PCIAOIBK@hitlimitcount@
CONST	SEGMENT
??_C@_0O@PCIAOIBK@hitlimitcount@ DB 'hitlimitcount', 00H ; `string'
CONST	ENDS
;	COMDAT ??_C@_0O@KAKKEPBE@externalforce@
CONST	SEGMENT
??_C@_0O@KAKKEPBE@externalforce@ DB 'externalforce', 00H ; `string'
CONST	ENDS
;	COMDAT ??_C@_0O@GBJCIDNL@invisibletime@
CONST	SEGMENT
??_C@_0O@GBJCIDNL@invisibletime@ DB 'invisibletime', 00H ; `string'
CONST	ENDS
;	COMDAT ??_C@_0M@HEIDABDC@stiffentime@
CONST	SEGMENT
??_C@_0M@HEIDABDC@stiffentime@ DB 'stiffentime', 00H	; `string'
CONST	ENDS
;	COMDAT ??_C@_0M@IEMCNBIB@hittingtype@
CONST	SEGMENT
??_C@_0M@IEMCNBIB@hittingtype@ DB 'hittingtype', 00H	; `string'
CONST	ENDS
;	COMDAT ??_C@_0L@MFPNOHLP@attacktype@
CONST	SEGMENT
??_C@_0L@MFPNOHLP@attacktype@ DB 'attacktype', 00H	; `string'
CONST	ENDS
;	COMDAT ?ms_kPool@?$CPooledObject@VCRotationDecorator@NEffectUpdateDecorator@@@@1V?$CDynamicPoolEx@VCRotationDecorator@NEffectUpdateDecorator@@@@A
_DATA	SEGMENT
?ms_kPool@?$CPooledObject@VCRotationDecorator@NEffectUpdateDecorator@@@@1V?$CDynamicPoolEx@VCRotationDecorator@NEffectUpdateDecorator@@@@A DD FLAT:??_7?$CDynamicPoolEx@VCRotationDecorator@NEffectUpdateDecorator@@@@6B@ ; CPooledObject<NEffectUpdateDecorator::CRotationDecorator>::ms_kPool
	DD	00H
	DD	00H
	DD	00H
	DD	00H
	DD	00H
	DD	00H
	DD	00H
	DD	00H
_DATA	ENDS
;	COMDAT ?ms_kPool@?$CPooledObject@VCGravityDecorator@NEffectUpdateDecorator@@@@1V?$CDynamicPoolEx@VCGravityDecorator@NEffectUpdateDecorator@@@@A
_DATA	SEGMENT
?ms_kPool@?$CPooledObject@VCGravityDecorator@NEffectUpdateDecorator@@@@1V?$CDynamicPoolEx@VCGravityDecorator@NEffectUpdateDecorator@@@@A DD FLAT:??_7?$CDynamicPoolEx@VCGravityDecorator@NEffectUpdateDecorator@@@@6B@ ; CPooledObject<NEffectUpdateDecorator::CGravityDecorator>::ms_kPool
	DD	00H
	DD	00H
	DD	00H
	DD	00H
	DD	00H
	DD	00H
	DD	00H
	DD	00H
_DATA	ENDS
;	COMDAT ?ms_kPool@?$CPooledObject@VCAirResistanceDecorator@NEffectUpdateDecorator@@@@1V?$CDynamicPoolEx@VCAirResistanceDecorator@NEffectUpdateDecorator@@@@A
_DATA	SEGMENT
?ms_kPool@?$CPooledObject@VCAirResistanceDecorator@NEffectUpdateDecorator@@@@1V?$CDynamicPoolEx@VCAirResistanceDecorator@NEffectUpdateDecorator@@@@A DD FLAT:??_7?$CDynamicPoolEx@VCAirResistanceDecorator@NEffectUpdateDecorator@@@@6B@ ; CPooledObject<NEffectUpdateDecorator::CAirResistanceDecorator>::ms_kPool
	DD	00H
	DD	00H
	DD	00H
	DD	00H
	DD	00H
	DD	00H
	DD	00H
	DD	00H
_DATA	ENDS
;	COMDAT ?ms_kPool@?$CPooledObject@VCTextureAnimationRandomDecorator@NEffectUpdateDecorator@@@@1V?$CDynamicPoolEx@VCTextureAnimationRandomDecorator@NEffectUpdateDecorator@@@@A
_DATA	SEGMENT
?ms_kPool@?$CPooledObject@VCTextureAnimationRandomDecorator@NEffectUpdateDecorator@@@@1V?$CDynamicPoolEx@VCTextureAnimationRandomDecorator@NEffectUpdateDecorator@@@@A DD FLAT:??_7?$CDynamicPoolEx@VCTextureAnimationRandomDecorator@NEffectUpdateDecorator@@@@6B@ ; CPooledObject<NEffectUpdateDecorator::CTextureAnimationRandomDecorator>::ms_kPool
	DD	00H
	DD	00H
	DD	00H
	DD	00H
	DD	00H
	DD	00H
	DD	00H
	DD	00H
_DATA	ENDS
;	COMDAT ?ms_kPool@?$CPooledObject@VCTextureAnimationCCWDecorator@NEffectUpdateDecorator@@@@1V?$CDynamicPoolEx@VCTextureAnimationCCWDecorator@NEffectUpdateDecorator@@@@A
_DATA	SEGMENT
?ms_kPool@?$CPooledObject@VCTextureAnimationCCWDecorator@NEffectUpdateDecorator@@@@1V?$CDynamicPoolEx@VCTextureAnimationCCWDecorator@NEffectUpdateDecorator@@@@A DD FLAT:??_7?$CDynamicPoolEx@VCTextureAnimationCCWDecorator@NEffectUpdateDecorator@@@@6B@ ; CPooledObject<NEffectUpdateDecorator::CTextureAnimationCCWDecorator>::ms_kPool
	DD	00H
	DD	00H
	DD	00H
	DD	00H
	DD	00H
	DD	00H
	DD	00H
	DD	00H
_DATA	ENDS
;	COMDAT ?ms_kPool@?$CPooledObject@VCTextureAnimationCWDecorator@NEffectUpdateDecorator@@@@1V?$CDynamicPoolEx@VCTextureAnimationCWDecorator@NEffectUpdateDecorator@@@@A
_DATA	SEGMENT
?ms_kPool@?$CPooledObject@VCTextureAnimationCWDecorator@NEffectUpdateDecorator@@@@1V?$CDynamicPoolEx@VCTextureAnimationCWDecorator@NEffectUpdateDecorator@@@@A DD FLAT:??_7?$CDynamicPoolEx@VCTextureAnimationCWDecorator@NEffectUpdateDecorator@@@@6B@ ; CPooledObject<NEffectUpdateDecorator::CTextureAnimationCWDecorator>::ms_kPool
	DD	00H
	DD	00H
	DD	00H
	DD	00H
	DD	00H
	DD	00H
	DD	00H
	DD	00H
_DATA	ENDS
;	COMDAT ?ms_kPool@?$CPooledObject@VCNullDecorator@NEffectUpdateDecorator@@@@1V?$CDynamicPoolEx@VCNullDecorator@NEffectUpdateDecorator@@@@A
_DATA	SEGMENT
?ms_kPool@?$CPooledObject@VCNullDecorator@NEffectUpdateDecorator@@@@1V?$CDynamicPoolEx@VCNullDecorator@NEffectUpdateDecorator@@@@A DD FLAT:??_7?$CDynamicPoolEx@VCNullDecorator@NEffectUpdateDecorator@@@@6B@ ; CPooledObject<NEffectUpdateDecorator::CNullDecorator>::ms_kPool
	DD	00H
	DD	00H
	DD	00H
	DD	00H
	DD	00H
	DD	00H
	DD	00H
	DD	00H
_DATA	ENDS
;	COMDAT ?ms_kPool@?$CPooledObject@VCHeaderDecorator@NEffectUpdateDecorator@@@@1V?$CDynamicPoolEx@VCHeaderDecorator@NEffectUpdateDecorator@@@@A
_DATA	SEGMENT
?ms_kPool@?$CPooledObject@VCHeaderDecorator@NEffectUpdateDecorator@@@@1V?$CDynamicPoolEx@VCHeaderDecorator@NEffectUpdateDecorator@@@@A DD FLAT:??_7?$CDynamicPoolEx@VCHeaderDecorator@NEffectUpdateDecorator@@@@6B@ ; CPooledObject<NEffectUpdateDecorator::CHeaderDecorator>::ms_kPool
	DD	00H
	DD	00H
	DD	00H
	DD	00H
	DD	00H
	DD	00H
	DD	00H
	DD	00H
_DATA	ENDS
;	COMDAT ??_R1A@?0A@EA@SAttachingObjectData@NRaceData@@8
rdata$r	SEGMENT
??_R1A@?0A@EA@SAttachingObjectData@NRaceData@@8 DD FLAT:??_R0?AUSAttachingObjectData@NRaceData@@@8 ; NRaceData::SAttachingObjectData::`RTTI Base Class Descriptor at (0,-1,0,64)'
	DD	00H
	DD	00H
	DD	0ffffffffH
	DD	00H
	DD	040H
	DD	FLAT:??_R3SAttachingObjectData@NRaceData@@8
rdata$r	ENDS
;	COMDAT ??_R2SAttachingObjectData@NRaceData@@8
rdata$r	SEGMENT
??_R2SAttachingObjectData@NRaceData@@8 DD FLAT:??_R1A@?0A@EA@SAttachingObjectData@NRaceData@@8 ; NRaceData::SAttachingObjectData::`RTTI Base Class Array'
rdata$r	ENDS
;	COMDAT ??_R3SAttachingObjectData@NRaceData@@8
rdata$r	SEGMENT
??_R3SAttachingObjectData@NRaceData@@8 DD 00H		; NRaceData::SAttachingObjectData::`RTTI Class Hierarchy Descriptor'
	DD	00H
	DD	01H
	DD	FLAT:??_R2SAttachingObjectData@NRaceData@@8
rdata$r	ENDS
;	COMDAT ??_R0?AUSAttachingObjectData@NRaceData@@@8
data$r	SEGMENT
??_R0?AUSAttachingObjectData@NRaceData@@@8 DD FLAT:??_7type_info@@6B@ ; NRaceData::SAttachingObjectData `RTTI Type Descriptor'
	DD	00H
	DB	'.?AUSAttachingObjectData@NRaceData@@', 00H
data$r	ENDS
;	COMDAT ??_R4SAttachingObjectData@NRaceData@@6B@
rdata$r	SEGMENT
??_R4SAttachingObjectData@NRaceData@@6B@ DD 00H		; NRaceData::SAttachingObjectData::`RTTI Complete Object Locator'
	DD	00H
	DD	00H
	DD	FLAT:??_R0?AUSAttachingObjectData@NRaceData@@@8
	DD	FLAT:??_R3SAttachingObjectData@NRaceData@@8
rdata$r	ENDS
;	COMDAT ??_R1A@?0A@EA@SAttachingEffectData@NRaceData@@8
rdata$r	SEGMENT
??_R1A@?0A@EA@SAttachingEffectData@NRaceData@@8 DD FLAT:??_R0?AUSAttachingEffectData@NRaceData@@@8 ; NRaceData::SAttachingEffectData::`RTTI Base Class Descriptor at (0,-1,0,64)'
	DD	00H
	DD	00H
	DD	0ffffffffH
	DD	00H
	DD	040H
	DD	FLAT:??_R3SAttachingEffectData@NRaceData@@8
rdata$r	ENDS
;	COMDAT ??_R2SAttachingEffectData@NRaceData@@8
rdata$r	SEGMENT
??_R2SAttachingEffectData@NRaceData@@8 DD FLAT:??_R1A@?0A@EA@SAttachingEffectData@NRaceData@@8 ; NRaceData::SAttachingEffectData::`RTTI Base Class Array'
rdata$r	ENDS
;	COMDAT ??_R3SAttachingEffectData@NRaceData@@8
rdata$r	SEGMENT
??_R3SAttachingEffectData@NRaceData@@8 DD 00H		; NRaceData::SAttachingEffectData::`RTTI Class Hierarchy Descriptor'
	DD	00H
	DD	01H
	DD	FLAT:??_R2SAttachingEffectData@NRaceData@@8
rdata$r	ENDS
;	COMDAT ??_R0?AUSAttachingEffectData@NRaceData@@@8
data$r	SEGMENT
??_R0?AUSAttachingEffectData@NRaceData@@@8 DD FLAT:??_7type_info@@6B@ ; NRaceData::SAttachingEffectData `RTTI Type Descriptor'
	DD	00H
	DB	'.?AUSAttachingEffectData@NRaceData@@', 00H
data$r	ENDS
;	COMDAT ??_R4SAttachingEffectData@NRaceData@@6B@
rdata$r	SEGMENT
??_R4SAttachingEffectData@NRaceData@@6B@ DD 00H		; NRaceData::SAttachingEffectData::`RTTI Complete Object Locator'
	DD	00H
	DD	00H
	DD	FLAT:??_R0?AUSAttachingEffectData@NRaceData@@@8
	DD	FLAT:??_R3SAttachingEffectData@NRaceData@@8
rdata$r	ENDS
;	COMDAT ??_R1A@?0A@EA@SCollisionData@NRaceData@@8
rdata$r	SEGMENT
??_R1A@?0A@EA@SCollisionData@NRaceData@@8 DD FLAT:??_R0?AUSCollisionData@NRaceData@@@8 ; NRaceData::SCollisionData::`RTTI Base Class Descriptor at (0,-1,0,64)'
	DD	00H
	DD	00H
	DD	0ffffffffH
	DD	00H
	DD	040H
	DD	FLAT:??_R3SCollisionData@NRaceData@@8
rdata$r	ENDS
;	COMDAT ??_R2SCollisionData@NRaceData@@8
rdata$r	SEGMENT
??_R2SCollisionData@NRaceData@@8 DD FLAT:??_R1A@?0A@EA@SCollisionData@NRaceData@@8 ; NRaceData::SCollisionData::`RTTI Base Class Array'
rdata$r	ENDS
;	COMDAT ??_R3SCollisionData@NRaceData@@8
rdata$r	SEGMENT
??_R3SCollisionData@NRaceData@@8 DD 00H			; NRaceData::SCollisionData::`RTTI Class Hierarchy Descriptor'
	DD	00H
	DD	01H
	DD	FLAT:??_R2SCollisionData@NRaceData@@8
rdata$r	ENDS
;	COMDAT ??_R0?AUSCollisionData@NRaceData@@@8
data$r	SEGMENT
??_R0?AUSCollisionData@NRaceData@@@8 DD FLAT:??_7type_info@@6B@ ; NRaceData::SCollisionData `RTTI Type Descriptor'
	DD	00H
	DB	'.?AUSCollisionData@NRaceData@@', 00H
data$r	ENDS
;	COMDAT ??_R4SCollisionData@NRaceData@@6B@
rdata$r	SEGMENT
??_R4SCollisionData@NRaceData@@6B@ DD 00H		; NRaceData::SCollisionData::`RTTI Complete Object Locator'
	DD	00H
	DD	00H
	DD	FLAT:??_R0?AUSCollisionData@NRaceData@@@8
	DD	FLAT:??_R3SCollisionData@NRaceData@@8
rdata$r	ENDS
;	COMDAT ??_R1A@?0A@EA@bad_array_new_length@std@@8
rdata$r	SEGMENT
??_R1A@?0A@EA@bad_array_new_length@std@@8 DD FLAT:??_R0?AVbad_array_new_length@std@@@8 ; std::bad_array_new_length::`RTTI Base Class Descriptor at (0,-1,0,64)'
	DD	02H
	DD	00H
	DD	0ffffffffH
	DD	00H
	DD	040H
	DD	FLAT:??_R3bad_array_new_length@std@@8
rdata$r	ENDS
;	COMDAT ??_R2bad_array_new_length@std@@8
rdata$r	SEGMENT
??_R2bad_array_new_length@std@@8 DD FLAT:??_R1A@?0A@EA@bad_array_new_length@std@@8 ; std::bad_array_new_length::`RTTI Base Class Array'
	DD	FLAT:??_R1A@?0A@EA@bad_alloc@std@@8
	DD	FLAT:??_R1A@?0A@EA@exception@std@@8
rdata$r	ENDS
;	COMDAT ??_R3bad_array_new_length@std@@8
rdata$r	SEGMENT
??_R3bad_array_new_length@std@@8 DD 00H			; std::bad_array_new_length::`RTTI Class Hierarchy Descriptor'
	DD	00H
	DD	03H
	DD	FLAT:??_R2bad_array_new_length@std@@8
rdata$r	ENDS
;	COMDAT ??_R4bad_array_new_length@std@@6B@
rdata$r	SEGMENT
??_R4bad_array_new_length@std@@6B@ DD 00H		; std::bad_array_new_length::`RTTI Complete Object Locator'
	DD	00H
	DD	00H
	DD	FLAT:??_R0?AVbad_array_new_length@std@@@8
	DD	FLAT:??_R3bad_array_new_length@std@@8
rdata$r	ENDS
;	COMDAT ??_R1A@?0A@EA@bad_alloc@std@@8
rdata$r	SEGMENT
??_R1A@?0A@EA@bad_alloc@std@@8 DD FLAT:??_R0?AVbad_alloc@std@@@8 ; std::bad_alloc::`RTTI Base Class Descriptor at (0,-1,0,64)'
	DD	01H
	DD	00H
	DD	0ffffffffH
	DD	00H
	DD	040H
	DD	FLAT:??_R3bad_alloc@std@@8
rdata$r	ENDS
;	COMDAT ??_R2bad_alloc@std@@8
rdata$r	SEGMENT
??_R2bad_alloc@std@@8 DD FLAT:??_R1A@?0A@EA@bad_alloc@std@@8 ; std::bad_alloc::`RTTI Base Class Array'
	DD	FLAT:??_R1A@?0A@EA@exception@std@@8
rdata$r	ENDS
;	COMDAT ??_R3bad_alloc@std@@8
rdata$r	SEGMENT
??_R3bad_alloc@std@@8 DD 00H				; std::bad_alloc::`RTTI Class Hierarchy Descriptor'
	DD	00H
	DD	02H
	DD	FLAT:??_R2bad_alloc@std@@8
rdata$r	ENDS
;	COMDAT ??_R4bad_alloc@std@@6B@
rdata$r	SEGMENT
??_R4bad_alloc@std@@6B@ DD 00H				; std::bad_alloc::`RTTI Complete Object Locator'
	DD	00H
	DD	00H
	DD	FLAT:??_R0?AVbad_alloc@std@@@8
	DD	FLAT:??_R3bad_alloc@std@@8
rdata$r	ENDS
;	COMDAT ??_R1A@?0A@EA@exception@std@@8
rdata$r	SEGMENT
??_R1A@?0A@EA@exception@std@@8 DD FLAT:??_R0?AVexception@std@@@8 ; std::exception::`RTTI Base Class Descriptor at (0,-1,0,64)'
	DD	00H
	DD	00H
	DD	0ffffffffH
	DD	00H
	DD	040H
	DD	FLAT:??_R3exception@std@@8
rdata$r	ENDS
;	COMDAT ??_R2exception@std@@8
rdata$r	SEGMENT
??_R2exception@std@@8 DD FLAT:??_R1A@?0A@EA@exception@std@@8 ; std::exception::`RTTI Base Class Array'
rdata$r	ENDS
;	COMDAT ??_R3exception@std@@8
rdata$r	SEGMENT
??_R3exception@std@@8 DD 00H				; std::exception::`RTTI Class Hierarchy Descriptor'
	DD	00H
	DD	01H
	DD	FLAT:??_R2exception@std@@8
rdata$r	ENDS
;	COMDAT ??_R4exception@std@@6B@
rdata$r	SEGMENT
??_R4exception@std@@6B@ DD 00H				; std::exception::`RTTI Complete Object Locator'
	DD	00H
	DD	00H
	DD	FLAT:??_R0?AVexception@std@@@8
	DD	FLAT:??_R3exception@std@@8
rdata$r	ENDS
_DATA	SEGMENT
?g_CollisionDataPool@NRaceData@@3V?$CDynamicPool@USCollisionData@NRaceData@@@@A DD FLAT:??_7?$CDynamicPool@USCollisionData@NRaceData@@@@6B@ ; NRaceData::g_CollisionDataPool
	DD	00H
	DD	00H
	DD	00H
	DD	00H
	DD	00H
	DD	00H
	DD	00H
	DD	00H
?g_EffectDataPool@NRaceData@@3V?$CDynamicPool@USAttachingEffectData@NRaceData@@@@A DD FLAT:??_7?$CDynamicPool@USAttachingEffectData@NRaceData@@@@6B@ ; NRaceData::g_EffectDataPool
	DD	00H
	DD	00H
	DD	00H
	DD	00H
	DD	00H
	DD	00H
	DD	00H
	DD	00H
?g_ObjectDataPool@NRaceData@@3V?$CDynamicPool@USAttachingObjectData@NRaceData@@@@A DD FLAT:??_7?$CDynamicPool@USAttachingObjectData@NRaceData@@@@6B@ ; NRaceData::g_ObjectDataPool
	DD	00H
	DD	00H
	DD	00H
	DD	00H
	DD	00H
	DD	00H
	DD	00H
	DD	00H
_DATA	ENDS
;	COMDAT ??_7SAttachingObjectData@NRaceData@@6B@
CONST	SEGMENT
??_7SAttachingObjectData@NRaceData@@6B@ DD FLAT:??_R4SAttachingObjectData@NRaceData@@6B@ ; NRaceData::SAttachingObjectData::`vftable'
	DD	FLAT:??_ESAttachingObjectData@NRaceData@@UAEPAXI@Z
CONST	ENDS
;	COMDAT ??_7SAttachingEffectData@NRaceData@@6B@
CONST	SEGMENT
??_7SAttachingEffectData@NRaceData@@6B@ DD FLAT:??_R4SAttachingEffectData@NRaceData@@6B@ ; NRaceData::SAttachingEffectData::`vftable'
	DD	FLAT:??_ESAttachingEffectData@NRaceData@@UAEPAXI@Z
CONST	ENDS
;	COMDAT ??_7SCollisionData@NRaceData@@6B@
CONST	SEGMENT
??_7SCollisionData@NRaceData@@6B@ DD FLAT:??_R4SCollisionData@NRaceData@@6B@ ; NRaceData::SCollisionData::`vftable'
	DD	FLAT:??_ESCollisionData@NRaceData@@UAEPAXI@Z
CONST	ENDS
;	COMDAT ??_7CSphereCollisionInstance@@6B@
CONST	SEGMENT
??_7CSphereCollisionInstance@@6B@ DD FLAT:??_R4CSphereCollisionInstance@@6B@ ; CSphereCollisionInstance::`vftable'
	DD	FLAT:?Render@CSphereCollisionInstance@@UAEXW4_D3DFILLMODE@@@Z
	DD	FLAT:?OnGetCollisionMovementAdjust@CSphereCollisionInstance@@MBE?AUD3DXVECTOR3@@ABUCDynamicSphereInstance@@@Z
	DD	FLAT:?OnMovementCollisionDynamicSphere@CSphereCollisionInstance@@MBE_NABUCDynamicSphereInstance@@@Z
	DD	FLAT:?OnCollisionDynamicSphere@CSphereCollisionInstance@@MBE_NABUCDynamicSphereInstance@@@Z
	DD	FLAT:?OnDestroy@CSphereCollisionInstance@@MAEXXZ
CONST	ENDS
;	COMDAT ??_7CBaseCollisionInstance@@6B@
CONST	SEGMENT
??_7CBaseCollisionInstance@@6B@ DD FLAT:??_R4CBaseCollisionInstance@@6B@ ; CBaseCollisionInstance::`vftable'
	DD	FLAT:__purecall
	DD	FLAT:__purecall
	DD	FLAT:__purecall
	DD	FLAT:__purecall
	DD	FLAT:__purecall
CONST	ENDS
;	COMDAT ??_C@_00CNPNBAHC@@
CONST	SEGMENT
??_C@_00CNPNBAHC@@ DB 00H				; `string'
CONST	ENDS
;	COMDAT ??_C@_0BB@GCADKGJO@map?1set?5too?5long@
CONST	SEGMENT
??_C@_0BB@GCADKGJO@map?1set?5too?5long@ DB 'map/set too long', 00H ; `string'
CONST	ENDS
;	COMDAT ??_C@_0BA@JFNIOLAK@string?5too?5long@
CONST	SEGMENT
??_C@_0BA@JFNIOLAK@string?5too?5long@ DB 'string too long', 00H ; `string'
CONST	ENDS
;	COMDAT __CT??_R0?AVexception@std@@@8??0exception@std@@QAE@ABV01@@Z12
xdata$x	SEGMENT
__CT??_R0?AVexception@std@@@8??0exception@std@@QAE@ABV01@@Z12 DD 00H
	DD	FLAT:??_R0?AVexception@std@@@8
	DD	00H
	DD	0ffffffffH
	ORG $+4
	DD	0cH
	DD	FLAT:??0exception@std@@QAE@ABV01@@Z
xdata$x	ENDS
;	COMDAT ??_R0?AVexception@std@@@8
data$r	SEGMENT
??_R0?AVexception@std@@@8 DD FLAT:??_7type_info@@6B@	; std::exception `RTTI Type Descriptor'
	DD	00H
	DB	'.?AVexception@std@@', 00H
data$r	ENDS
;	COMDAT __CT??_R0?AVbad_alloc@std@@@8??0bad_alloc@std@@QAE@ABV01@@Z12
xdata$x	SEGMENT
__CT??_R0?AVbad_alloc@std@@@8??0bad_alloc@std@@QAE@ABV01@@Z12 DD 010H
	DD	FLAT:??_R0?AVbad_alloc@std@@@8
	DD	00H
	DD	0ffffffffH
	ORG $+4
	DD	0cH
	DD	FLAT:??0bad_alloc@std@@QAE@ABV01@@Z
xdata$x	ENDS
;	COMDAT ??_R0?AVbad_alloc@std@@@8
data$r	SEGMENT
??_R0?AVbad_alloc@std@@@8 DD FLAT:??_7type_info@@6B@	; std::bad_alloc `RTTI Type Descriptor'
	DD	00H
	DB	'.?AVbad_alloc@std@@', 00H
data$r	ENDS
;	COMDAT __CT??_R0?AVbad_array_new_length@std@@@8??0bad_array_new_length@std@@QAE@ABV01@@Z12
xdata$x	SEGMENT
__CT??_R0?AVbad_array_new_length@std@@@8??0bad_array_new_length@std@@QAE@ABV01@@Z12 DD 00H
	DD	FLAT:??_R0?AVbad_array_new_length@std@@@8
	DD	00H
	DD	0ffffffffH
	ORG $+4
	DD	0cH
	DD	FLAT:??0bad_array_new_length@std@@QAE@ABV01@@Z
xdata$x	ENDS
;	COMDAT ??_R0?AVbad_array_new_length@std@@@8
data$r	SEGMENT
??_R0?AVbad_array_new_length@std@@@8 DD FLAT:??_7type_info@@6B@ ; std::bad_array_new_length `RTTI Type Descriptor'
	DD	00H
	DB	'.?AVbad_array_new_length@std@@', 00H
data$r	ENDS
;	COMDAT __CTA3?AVbad_array_new_length@std@@
xdata$x	SEGMENT
__CTA3?AVbad_array_new_length@std@@ DD 03H
	DD	FLAT:__CT??_R0?AVbad_array_new_length@std@@@8??0bad_array_new_length@std@@QAE@ABV01@@Z12
	DD	FLAT:__CT??_R0?AVbad_alloc@std@@@8??0bad_alloc@std@@QAE@ABV01@@Z12
	DD	FLAT:__CT??_R0?AVexception@std@@@8??0exception@std@@QAE@ABV01@@Z12
xdata$x	ENDS
;	COMDAT __TI3?AVbad_array_new_length@std@@
xdata$x	SEGMENT
__TI3?AVbad_array_new_length@std@@ DD 00H
	DD	FLAT:??1bad_array_new_length@std@@UAE@XZ
	DD	00H
	DD	FLAT:__CTA3?AVbad_array_new_length@std@@
xdata$x	ENDS
;	COMDAT ??_C@_0BF@KINCDENJ@bad?5array?5new?5length@
CONST	SEGMENT
??_C@_0BF@KINCDENJ@bad?5array?5new?5length@ DB 'bad array new length', 00H ; `string'
CONST	ENDS
;	COMDAT ??_7bad_array_new_length@std@@6B@
CONST	SEGMENT
??_7bad_array_new_length@std@@6B@ DD FLAT:??_R4bad_array_new_length@std@@6B@ ; std::bad_array_new_length::`vftable'
	DD	FLAT:??_Ebad_array_new_length@std@@UAEPAXI@Z
	DD	FLAT:?what@exception@std@@UBEPBDXZ
CONST	ENDS
;	COMDAT ??_7bad_alloc@std@@6B@
CONST	SEGMENT
??_7bad_alloc@std@@6B@ DD FLAT:??_R4bad_alloc@std@@6B@	; std::bad_alloc::`vftable'
	DD	FLAT:??_Ebad_alloc@std@@UAEPAXI@Z
	DD	FLAT:?what@exception@std@@UBEPBDXZ
CONST	ENDS
;	COMDAT ??_C@_0BC@EOODALEL@Unknown?5exception@
CONST	SEGMENT
??_C@_0BC@EOODALEL@Unknown?5exception@ DB 'Unknown exception', 00H ; `string'
CONST	ENDS
;	COMDAT ??_7exception@std@@6B@
CONST	SEGMENT
??_7exception@std@@6B@ DD FLAT:??_R4exception@std@@6B@	; std::exception::`vftable'
	DD	FLAT:??_Eexception@std@@UAEPAXI@Z
	DD	FLAT:?what@exception@std@@UBEPBDXZ
CONST	ENDS
;	COMDAT xdata$x
xdata$x	SEGMENT
__unwindtable$??$_Buynode@V?$allocator@U?$_Tree_node@U?$pair@$$CBMUCDynamicSphereInstance@@@std@@PAX@std@@@std@@AAU?$pair@$$CBMUCDynamicSphereInstance@@@2@@?$_Tree_node@U?$pair@$$CBMUCDynamicSphereInstance@@@std@@PAX@std@@SAPAU01@AAV?$allocator@U?$_Tree_node@U?$pair@$$CBMUCDynamicSphereInstance@@@std@@PAX@std@@@1@PAU01@AAU?$pair@$$CBMUCDynamicSphereInstance@@@1@@Z DD 0ffffffffH
	DD	FLAT:__unwindfunclet$??$_Buynode@V?$allocator@U?$_Tree_node@U?$pair@$$CBMUCDynamicSphereInstance@@@std@@PAX@std@@@std@@AAU?$pair@$$CBMUCDynamicSphereInstance@@@2@@?$_Tree_node@U?$pair@$$CBMUCDynamicSphereInstance@@@std@@PAX@std@@SAPAU01@AAV?$allocator@U?$_Tree_node@U?$pair@$$CBMUCDynamicSphereInstance@@@std@@PAX@std@@@1@PAU01@AAU?$pair@$$CBMUCDynamicSphereInstance@@@1@@Z$0
__ehfuncinfo$??$_Buynode@V?$allocator@U?$_Tree_node@U?$pair@$$CBMUCDynamicSphereInstance@@@std@@PAX@std@@@std@@AAU?$pair@$$CBMUCDynamicSphereInstance@@@2@@?$_Tree_node@U?$pair@$$CBMUCDynamicSphereInstance@@@std@@PAX@std@@SAPAU01@AAV?$allocator@U?$_Tree_node@U?$pair@$$CBMUCDynamicSphereInstance@@@std@@PAX@std@@@1@PAU01@AAU?$pair@$$CBMUCDynamicSphereInstance@@@1@@Z DD 019930522H
	DD	01H
	DD	FLAT:__unwindtable$??$_Buynode@V?$allocator@U?$_Tree_node@U?$pair@$$CBMUCDynamicSphereInstance@@@std@@PAX@std@@@std@@AAU?$pair@$$CBMUCDynamicSphereInstance@@@2@@?$_Tree_node@U?$pair@$$CBMUCDynamicSphereInstance@@@std@@PAX@std@@SAPAU01@AAV?$allocator@U?$_Tree_node@U?$pair@$$CBMUCDynamicSphereInstance@@@std@@PAX@std@@@1@PAU01@AAU?$pair@$$CBMUCDynamicSphereInstance@@@1@@Z
	DD	2 DUP(00H)
	DD	2 DUP(00H)
	DD	00H
	DD	01H
xdata$x	ENDS
;	COMDAT xdata$x
xdata$x	SEGMENT
__unwindtable$??$_Buynode@AAU?$pair@$$CBMUCDynamicSphereInstance@@@std@@@?$_Tree@V?$_Tmap_traits@MUCDynamicSphereInstance@@U?$less@M@std@@V?$allocator@U?$pair@$$CBMUCDynamicSphereInstance@@@std@@@3@$0A@@std@@@std@@IAEPAU?$_Tree_node@U?$pair@$$CBMUCDynamicSphereInstance@@@std@@PAX@1@AAU?$pair@$$CBMUCDynamicSphereInstance@@@1@@Z DD 0ffffffffH
	DD	FLAT:__unwindfunclet$??$_Buynode@AAU?$pair@$$CBMUCDynamicSphereInstance@@@std@@@?$_Tree@V?$_Tmap_traits@MUCDynamicSphereInstance@@U?$less@M@std@@V?$allocator@U?$pair@$$CBMUCDynamicSphereInstance@@@std@@@3@$0A@@std@@@std@@IAEPAU?$_Tree_node@U?$pair@$$CBMUCDynamicSphereInstance@@@std@@PAX@1@AAU?$pair@$$CBMUCDynamicSphereInstance@@@1@@Z$0
__ehfuncinfo$??$_Buynode@AAU?$pair@$$CBMUCDynamicSphereInstance@@@std@@@?$_Tree@V?$_Tmap_traits@MUCDynamicSphereInstance@@U?$less@M@std@@V?$allocator@U?$pair@$$CBMUCDynamicSphereInstance@@@std@@@3@$0A@@std@@@std@@IAEPAU?$_Tree_node@U?$pair@$$CBMUCDynamicSphereInstance@@@std@@PAX@1@AAU?$pair@$$CBMUCDynamicSphereInstance@@@1@@Z DD 019930522H
	DD	01H
	DD	FLAT:__unwindtable$??$_Buynode@AAU?$pair@$$CBMUCDynamicSphereInstance@@@std@@@?$_Tree@V?$_Tmap_traits@MUCDynamicSphereInstance@@U?$less@M@std@@V?$allocator@U?$pair@$$CBMUCDynamicSphereInstance@@@std@@@3@$0A@@std@@@std@@IAEPAU?$_Tree_node@U?$pair@$$CBMUCDynamicSphereInstance@@@std@@PAX@1@AAU?$pair@$$CBMUCDynamicSphereInstance@@@1@@Z
	DD	2 DUP(00H)
	DD	2 DUP(00H)
	DD	00H
	DD	01H
xdata$x	ENDS
;	COMDAT xdata$x
xdata$x	SEGMENT
__unwindtable$??$_Copy_or_move@U?$pair@$$CBMUCDynamicSphereInstance@@@std@@U?$integral_constant@_N$0A@@2@@?$_Tree@V?$_Tmap_traits@MUCDynamicSphereInstance@@U?$less@M@std@@V?$allocator@U?$pair@$$CBMUCDynamicSphereInstance@@@std@@@3@$0A@@std@@@std@@IAEPAU?$_Tree_node@U?$pair@$$CBMUCDynamicSphereInstance@@@std@@PAX@1@AAU?$pair@$$CBMUCDynamicSphereInstance@@@1@U_Copy_tag@01@U?$integral_constant@_N$0A@@1@@Z DD 0ffffffffH
	DD	FLAT:__unwindfunclet$??$_Copy_or_move@U?$pair@$$CBMUCDynamicSphereInstance@@@std@@U?$integral_constant@_N$0A@@2@@?$_Tree@V?$_Tmap_traits@MUCDynamicSphereInstance@@U?$less@M@std@@V?$allocator@U?$pair@$$CBMUCDynamicSphereInstance@@@std@@@3@$0A@@std@@@std@@IAEPAU?$_Tree_node@U?$pair@$$CBMUCDynamicSphereInstance@@@std@@PAX@1@AAU?$pair@$$CBMUCDynamicSphereInstance@@@1@U_Copy_tag@01@U?$integral_constant@_N$0A@@1@@Z$0
__ehfuncinfo$??$_Copy_or_move@U?$pair@$$CBMUCDynamicSphereInstance@@@std@@U?$integral_constant@_N$0A@@2@@?$_Tree@V?$_Tmap_traits@MUCDynamicSphereInstance@@U?$less@M@std@@V?$allocator@U?$pair@$$CBMUCDynamicSphereInstance@@@std@@@3@$0A@@std@@@std@@IAEPAU?$_Tree_node@U?$pair@$$CBMUCDynamicSphereInstance@@@std@@PAX@1@AAU?$pair@$$CBMUCDynamicSphereInstance@@@1@U_Copy_tag@01@U?$integral_constant@_N$0A@@1@@Z DD 019930522H
	DD	01H
	DD	FLAT:__unwindtable$??$_Copy_or_move@U?$pair@$$CBMUCDynamicSphereInstance@@@std@@U?$integral_constant@_N$0A@@2@@?$_Tree@V?$_Tmap_traits@MUCDynamicSphereInstance@@U?$less@M@std@@V?$allocator@U?$pair@$$CBMUCDynamicSphereInstance@@@std@@@3@$0A@@std@@@std@@IAEPAU?$_Tree_node@U?$pair@$$CBMUCDynamicSphereInstance@@@std@@PAX@1@AAU?$pair@$$CBMUCDynamicSphereInstance@@@1@U_Copy_tag@01@U?$integral_constant@_N$0A@@1@@Z
	DD	2 DUP(00H)
	DD	2 DUP(00H)
	DD	00H
	DD	01H
xdata$x	ENDS
;	COMDAT xdata$x
xdata$x	SEGMENT
__catchsym$??$_Copy_nodes@U_Copy_tag@?$_Tree@V?$_Tmap_traits@MUCDynamicSphereInstance@@U?$less@M@std@@V?$allocator@U?$pair@$$CBMUCDynamicSphereInstance@@@std@@@3@$0A@@std@@@std@@@?$_Tree@V?$_Tmap_traits@MUCDynamicSphereInstance@@U?$less@M@std@@V?$allocator@U?$pair@$$CBMUCDynamicSphereInstance@@@std@@@3@$0A@@std@@@std@@IAEPAU?$_Tree_node@U?$pair@$$CBMUCDynamicSphereInstance@@@std@@PAX@1@PAU21@0U_Copy_tag@01@@Z$3 DD 040H
	DD	00H
	DD	00H
	DD	FLAT:__catch$??$_Copy_nodes@U_Copy_tag@?$_Tree@V?$_Tmap_traits@MUCDynamicSphereInstance@@U?$less@M@std@@V?$allocator@U?$pair@$$CBMUCDynamicSphereInstance@@@std@@@3@$0A@@std@@@std@@@?$_Tree@V?$_Tmap_traits@MUCDynamicSphereInstance@@U?$less@M@std@@V?$allocator@U?$pair@$$CBMUCDynamicSphereInstance@@@std@@@3@$0A@@std@@@std@@IAEPAU?$_Tree_node@U?$pair@$$CBMUCDynamicSphereInstance@@@std@@PAX@1@PAU21@0U_Copy_tag@01@@Z$0
__tryblocktable$??$_Copy_nodes@U_Copy_tag@?$_Tree@V?$_Tmap_traits@MUCDynamicSphereInstance@@U?$less@M@std@@V?$allocator@U?$pair@$$CBMUCDynamicSphereInstance@@@std@@@3@$0A@@std@@@std@@@?$_Tree@V?$_Tmap_traits@MUCDynamicSphereInstance@@U?$less@M@std@@V?$allocator@U?$pair@$$CBMUCDynamicSphereInstance@@@std@@@3@$0A@@std@@@std@@IAEPAU?$_Tree_node@U?$pair@$$CBMUCDynamicSphereInstance@@@std@@PAX@1@PAU21@0U_Copy_tag@01@@Z DD 01H
	DD	01H
	DD	02H
	DD	01H
	DD	FLAT:__catchsym$??$_Copy_nodes@U_Copy_tag@?$_Tree@V?$_Tmap_traits@MUCDynamicSphereInstance@@U?$less@M@std@@V?$allocator@U?$pair@$$CBMUCDynamicSphereInstance@@@std@@@3@$0A@@std@@@std@@@?$_Tree@V?$_Tmap_traits@MUCDynamicSphereInstance@@U?$less@M@std@@V?$allocator@U?$pair@$$CBMUCDynamicSphereInstance@@@std@@@3@$0A@@std@@@std@@IAEPAU?$_Tree_node@U?$pair@$$CBMUCDynamicSphereInstance@@@std@@PAX@1@PAU21@0U_Copy_tag@01@@Z$3
__unwindtable$??$_Copy_nodes@U_Copy_tag@?$_Tree@V?$_Tmap_traits@MUCDynamicSphereInstance@@U?$less@M@std@@V?$allocator@U?$pair@$$CBMUCDynamicSphereInstance@@@std@@@3@$0A@@std@@@std@@@?$_Tree@V?$_Tmap_traits@MUCDynamicSphereInstance@@U?$less@M@std@@V?$allocator@U?$pair@$$CBMUCDynamicSphereInstance@@@std@@@3@$0A@@std@@@std@@IAEPAU?$_Tree_node@U?$pair@$$CBMUCDynamicSphereInstance@@@std@@PAX@1@PAU21@0U_Copy_tag@01@@Z DD 0ffffffffH
	DD	FLAT:__unwindfunclet$??$_Copy_nodes@U_Copy_tag@?$_Tree@V?$_Tmap_traits@MUCDynamicSphereInstance@@U?$less@M@std@@V?$allocator@U?$pair@$$CBMUCDynamicSphereInstance@@@std@@@3@$0A@@std@@@std@@@?$_Tree@V?$_Tmap_traits@MUCDynamicSphereInstance@@U?$less@M@std@@V?$allocator@U?$pair@$$CBMUCDynamicSphereInstance@@@std@@@3@$0A@@std@@@std@@IAEPAU?$_Tree_node@U?$pair@$$CBMUCDynamicSphereInstance@@@std@@PAX@1@PAU21@0U_Copy_tag@01@@Z$2
	DD	0ffffffffH
	DD	00H
	DD	0ffffffffH
	DD	00H
__ehfuncinfo$??$_Copy_nodes@U_Copy_tag@?$_Tree@V?$_Tmap_traits@MUCDynamicSphereInstance@@U?$less@M@std@@V?$allocator@U?$pair@$$CBMUCDynamicSphereInstance@@@std@@@3@$0A@@std@@@std@@@?$_Tree@V?$_Tmap_traits@MUCDynamicSphereInstance@@U?$less@M@std@@V?$allocator@U?$pair@$$CBMUCDynamicSphereInstance@@@std@@@3@$0A@@std@@@std@@IAEPAU?$_Tree_node@U?$pair@$$CBMUCDynamicSphereInstance@@@std@@PAX@1@PAU21@0U_Copy_tag@01@@Z DD 019930522H
	DD	03H
	DD	FLAT:__unwindtable$??$_Copy_nodes@U_Copy_tag@?$_Tree@V?$_Tmap_traits@MUCDynamicSphereInstance@@U?$less@M@std@@V?$allocator@U?$pair@$$CBMUCDynamicSphereInstance@@@std@@@3@$0A@@std@@@std@@@?$_Tree@V?$_Tmap_traits@MUCDynamicSphereInstance@@U?$less@M@std@@V?$allocator@U?$pair@$$CBMUCDynamicSphereInstance@@@std@@@3@$0A@@std@@@std@@IAEPAU?$_Tree_node@U?$pair@$$CBMUCDynamicSphereInstance@@@std@@PAX@1@PAU21@0U_Copy_tag@01@@Z
	DD	01H
	DD	FLAT:__tryblocktable$??$_Copy_nodes@U_Copy_tag@?$_Tree@V?$_Tmap_traits@MUCDynamicSphereInstance@@U?$less@M@std@@V?$allocator@U?$pair@$$CBMUCDynamicSphereInstance@@@std@@@3@$0A@@std@@@std@@@?$_Tree@V?$_Tmap_traits@MUCDynamicSphereInstance@@U?$less@M@std@@V?$allocator@U?$pair@$$CBMUCDynamicSphereInstance@@@std@@@3@$0A@@std@@@std@@IAEPAU?$_Tree_node@U?$pair@$$CBMUCDynamicSphereInstance@@@std@@PAX@1@PAU21@0U_Copy_tag@01@@Z
	DD	2 DUP(00H)
	DD	00H
	DD	01H
xdata$x	ENDS
;	COMDAT xdata$x
xdata$x	SEGMENT
__unwindtable$??$?0V?$allocator@U?$_Tree_node@U?$pair@$$CBMUCDynamicSphereInstance@@@std@@PAX@std@@@std@@@?$_Tree@V?$_Tmap_traits@MUCDynamicSphereInstance@@U?$less@M@std@@V?$allocator@U?$pair@$$CBMUCDynamicSphereInstance@@@std@@@3@$0A@@std@@@std@@QAE@ABV01@$$QAV?$allocator@U?$_Tree_node@U?$pair@$$CBMUCDynamicSphereInstance@@@std@@PAX@std@@@1@@Z DD 0ffffffffH
	DD	FLAT:__unwindfunclet$??$?0V?$allocator@U?$_Tree_node@U?$pair@$$CBMUCDynamicSphereInstance@@@std@@PAX@std@@@std@@@?$_Tree@V?$_Tmap_traits@MUCDynamicSphereInstance@@U?$less@M@std@@V?$allocator@U?$pair@$$CBMUCDynamicSphereInstance@@@std@@@3@$0A@@std@@@std@@QAE@ABV01@$$QAV?$allocator@U?$_Tree_node@U?$pair@$$CBMUCDynamicSphereInstance@@@std@@PAX@std@@@1@@Z$0
__ehfuncinfo$??$?0V?$allocator@U?$_Tree_node@U?$pair@$$CBMUCDynamicSphereInstance@@@std@@PAX@std@@@std@@@?$_Tree@V?$_Tmap_traits@MUCDynamicSphereInstance@@U?$less@M@std@@V?$allocator@U?$pair@$$CBMUCDynamicSphereInstance@@@std@@@3@$0A@@std@@@std@@QAE@ABV01@$$QAV?$allocator@U?$_Tree_node@U?$pair@$$CBMUCDynamicSphereInstance@@@std@@PAX@std@@@1@@Z DD 019930522H
	DD	01H
	DD	FLAT:__unwindtable$??$?0V?$allocator@U?$_Tree_node@U?$pair@$$CBMUCDynamicSphereInstance@@@std@@PAX@std@@@std@@@?$_Tree@V?$_Tmap_traits@MUCDynamicSphereInstance@@U?$less@M@std@@V?$allocator@U?$pair@$$CBMUCDynamicSphereInstance@@@std@@@3@$0A@@std@@@std@@QAE@ABV01@$$QAV?$allocator@U?$_Tree_node@U?$pair@$$CBMUCDynamicSphereInstance@@@std@@PAX@std@@@1@@Z
	DD	2 DUP(00H)
	DD	2 DUP(00H)
	DD	00H
	DD	01H
xdata$x	ENDS
;	COMDAT xdata$x
xdata$x	SEGMENT
__unwindtable$??$_Uninitialized_copy@PAUSHitData@NRaceData@@V?$allocator@USHitData@NRaceData@@@std@@@std@@YAPAUSHitData@NRaceData@@QAU12@0PAU12@AAV?$allocator@USHitData@NRaceData@@@0@@Z DD 0ffffffffH
	DD	FLAT:__unwindfunclet$??$_Uninitialized_copy@PAUSHitData@NRaceData@@V?$allocator@USHitData@NRaceData@@@std@@@std@@YAPAUSHitData@NRaceData@@QAU12@0PAU12@AAV?$allocator@USHitData@NRaceData@@@0@@Z$0
__ehfuncinfo$??$_Uninitialized_copy@PAUSHitData@NRaceData@@V?$allocator@USHitData@NRaceData@@@std@@@std@@YAPAUSHitData@NRaceData@@QAU12@0PAU12@AAV?$allocator@USHitData@NRaceData@@@0@@Z DD 019930522H
	DD	01H
	DD	FLAT:__unwindtable$??$_Uninitialized_copy@PAUSHitData@NRaceData@@V?$allocator@USHitData@NRaceData@@@std@@@std@@YAPAUSHitData@NRaceData@@QAU12@0PAU12@AAV?$allocator@USHitData@NRaceData@@@0@@Z
	DD	2 DUP(00H)
	DD	2 DUP(00H)
	DD	00H
	DD	01H
xdata$x	ENDS
;	COMDAT xdata$x
xdata$x	SEGMENT
__unwindtable$??$_Uninitialized_move@PAUSHitData@NRaceData@@V?$allocator@USHitData@NRaceData@@@std@@@std@@YAPAUSHitData@NRaceData@@QAU12@0PAU12@AAV?$allocator@USHitData@NRaceData@@@0@@Z DD 0ffffffffH
	DD	FLAT:__unwindfunclet$??$_Uninitialized_move@PAUSHitData@NRaceData@@V?$allocator@USHitData@NRaceData@@@std@@@std@@YAPAUSHitData@NRaceData@@QAU12@0PAU12@AAV?$allocator@USHitData@NRaceData@@@0@@Z$0
__ehfuncinfo$??$_Uninitialized_move@PAUSHitData@NRaceData@@V?$allocator@USHitData@NRaceData@@@std@@@std@@YAPAUSHitData@NRaceData@@QAU12@0PAU12@AAV?$allocator@USHitData@NRaceData@@@0@@Z DD 019930522H
	DD	01H
	DD	FLAT:__unwindtable$??$_Uninitialized_move@PAUSHitData@NRaceData@@V?$allocator@USHitData@NRaceData@@@std@@@std@@YAPAUSHitData@NRaceData@@QAU12@0PAU12@AAV?$allocator@USHitData@NRaceData@@@0@@Z
	DD	2 DUP(00H)
	DD	2 DUP(00H)
	DD	00H
	DD	01H
xdata$x	ENDS
;	COMDAT xdata$x
xdata$x	SEGMENT
__unwindtable$??$?0ABUpiecewise_construct_t@std@@V?$tuple@ABM@1@V?$tuple@$$V@1@@?$_Tree_temp_node@V?$allocator@U?$_Tree_node@U?$pair@$$CBMUCDynamicSphereInstance@@@std@@PAX@std@@@std@@@std@@QAE@AAV?$allocator@U?$_Tree_node@U?$pair@$$CBMUCDynamicSphereInstance@@@std@@PAX@std@@@1@PAU?$_Tree_node@U?$pair@$$CBMUCDynamicSphereInstance@@@std@@PAX@1@ABUpiecewise_construct_t@1@$$QAV?$tuple@ABM@1@$$QAV?$tuple@$$V@1@@Z DD 0ffffffffH
	DD	FLAT:__unwindfunclet$??$?0ABUpiecewise_construct_t@std@@V?$tuple@ABM@1@V?$tuple@$$V@1@@?$_Tree_temp_node@V?$allocator@U?$_Tree_node@U?$pair@$$CBMUCDynamicSphereInstance@@@std@@PAX@std@@@std@@@std@@QAE@AAV?$allocator@U?$_Tree_node@U?$pair@$$CBMUCDynamicSphereInstance@@@std@@PAX@std@@@1@PAU?$_Tree_node@U?$pair@$$CBMUCDynamicSphereInstance@@@std@@PAX@1@ABUpiecewise_construct_t@1@$$QAV?$tuple@ABM@1@$$QAV?$tuple@$$V@1@@Z$1
__ehfuncinfo$??$?0ABUpiecewise_construct_t@std@@V?$tuple@ABM@1@V?$tuple@$$V@1@@?$_Tree_temp_node@V?$allocator@U?$_Tree_node@U?$pair@$$CBMUCDynamicSphereInstance@@@std@@PAX@std@@@std@@@std@@QAE@AAV?$allocator@U?$_Tree_node@U?$pair@$$CBMUCDynamicSphereInstance@@@std@@PAX@std@@@1@PAU?$_Tree_node@U?$pair@$$CBMUCDynamicSphereInstance@@@std@@PAX@1@ABUpiecewise_construct_t@1@$$QAV?$tuple@ABM@1@$$QAV?$tuple@$$V@1@@Z DD 019930522H
	DD	01H
	DD	FLAT:__unwindtable$??$?0ABUpiecewise_construct_t@std@@V?$tuple@ABM@1@V?$tuple@$$V@1@@?$_Tree_temp_node@V?$allocator@U?$_Tree_node@U?$pair@$$CBMUCDynamicSphereInstance@@@std@@PAX@std@@@std@@@std@@QAE@AAV?$allocator@U?$_Tree_node@U?$pair@$$CBMUCDynamicSphereInstance@@@std@@PAX@std@@@1@PAU?$_Tree_node@U?$pair@$$CBMUCDynamicSphereInstance@@@std@@PAX@1@ABUpiecewise_construct_t@1@$$QAV?$tuple@ABM@1@$$QAV?$tuple@$$V@1@@Z
	DD	2 DUP(00H)
	DD	2 DUP(00H)
	DD	00H
	DD	01H
xdata$x	ENDS
;	COMDAT xdata$x
xdata$x	SEGMENT
__unwindtable$??0?$_Tree_temp_node_alloc@V?$allocator@U?$_Tree_node@U?$pair@$$CBMUCDynamicSphereInstance@@@std@@PAX@std@@@std@@@std@@QAE@AAV?$allocator@U?$_Tree_node@U?$pair@$$CBMUCDynamicSphereInstance@@@std@@PAX@std@@@1@@Z DD 0ffffffffH
	DD	FLAT:__unwindfunclet$??0?$_Tree_temp_node_alloc@V?$allocator@U?$_Tree_node@U?$pair@$$CBMUCDynamicSphereInstance@@@std@@PAX@std@@@std@@@std@@QAE@AAV?$allocator@U?$_Tree_node@U?$pair@$$CBMUCDynamicSphereInstance@@@std@@PAX@std@@@1@@Z$0
__ehfuncinfo$??0?$_Tree_temp_node_alloc@V?$allocator@U?$_Tree_node@U?$pair@$$CBMUCDynamicSphereInstance@@@std@@PAX@std@@@std@@@std@@QAE@AAV?$allocator@U?$_Tree_node@U?$pair@$$CBMUCDynamicSphereInstance@@@std@@PAX@std@@@1@@Z DD 019930522H
	DD	01H
	DD	FLAT:__unwindtable$??0?$_Tree_temp_node_alloc@V?$allocator@U?$_Tree_node@U?$pair@$$CBMUCDynamicSphereInstance@@@std@@PAX@std@@@std@@@std@@QAE@AAV?$allocator@U?$_Tree_node@U?$pair@$$CBMUCDynamicSphereInstance@@@std@@PAX@std@@@1@@Z
	DD	2 DUP(00H)
	DD	2 DUP(00H)
	DD	00H
	DD	01H
xdata$x	ENDS
;	COMDAT xdata$x
xdata$x	SEGMENT
__unwindtable$??$_Try_emplace@ABM$$V@?$map@MUCDynamicSphereInstance@@U?$less@M@std@@V?$allocator@U?$pair@$$CBMUCDynamicSphereInstance@@@std@@@3@@std@@AAE?AU?$pair@PAU?$_Tree_node@U?$pair@$$CBMUCDynamicSphereInstance@@@std@@PAX@std@@_N@1@ABM@Z DD 0ffffffffH
	DD	FLAT:__unwindfunclet$??$_Try_emplace@ABM$$V@?$map@MUCDynamicSphereInstance@@U?$less@M@std@@V?$allocator@U?$pair@$$CBMUCDynamicSphereInstance@@@std@@@3@@std@@AAE?AU?$pair@PAU?$_Tree_node@U?$pair@$$CBMUCDynamicSphereInstance@@@std@@PAX@std@@_N@1@ABM@Z$2
__ehfuncinfo$??$_Try_emplace@ABM$$V@?$map@MUCDynamicSphereInstance@@U?$less@M@std@@V?$allocator@U?$pair@$$CBMUCDynamicSphereInstance@@@std@@@3@@std@@AAE?AU?$pair@PAU?$_Tree_node@U?$pair@$$CBMUCDynamicSphereInstance@@@std@@PAX@std@@_N@1@ABM@Z DD 019930522H
	DD	01H
	DD	FLAT:__unwindtable$??$_Try_emplace@ABM$$V@?$map@MUCDynamicSphereInstance@@U?$less@M@std@@V?$allocator@U?$pair@$$CBMUCDynamicSphereInstance@@@std@@@3@@std@@AAE?AU?$pair@PAU?$_Tree_node@U?$pair@$$CBMUCDynamicSphereInstance@@@std@@PAX@std@@_N@1@ABM@Z
	DD	2 DUP(00H)
	DD	2 DUP(00H)
	DD	00H
	DD	01H
xdata$x	ENDS
;	COMDAT xdata$x
xdata$x	SEGMENT
__catchsym$??$_Emplace_reallocate@USHitData@NRaceData@@@?$vector@USHitData@NRaceData@@V?$allocator@USHitData@NRaceData@@@std@@@std@@QAEPAUSHitData@NRaceData@@QAU23@$$QAU23@@Z$2 DD 040H
	DD	00H
	DD	00H
	DD	FLAT:__catch$??$_Emplace_reallocate@USHitData@NRaceData@@@?$vector@USHitData@NRaceData@@V?$allocator@USHitData@NRaceData@@@std@@@std@@QAEPAUSHitData@NRaceData@@QAU23@$$QAU23@@Z$0
__unwindtable$??$_Emplace_reallocate@USHitData@NRaceData@@@?$vector@USHitData@NRaceData@@V?$allocator@USHitData@NRaceData@@@std@@@std@@QAEPAUSHitData@NRaceData@@QAU23@$$QAU23@@Z DD 0ffffffffH
	DD	00H
	DD	0ffffffffH
	DD	00H
__tryblocktable$??$_Emplace_reallocate@USHitData@NRaceData@@@?$vector@USHitData@NRaceData@@V?$allocator@USHitData@NRaceData@@@std@@@std@@QAEPAUSHitData@NRaceData@@QAU23@$$QAU23@@Z DD 00H
	DD	00H
	DD	01H
	DD	01H
	DD	FLAT:__catchsym$??$_Emplace_reallocate@USHitData@NRaceData@@@?$vector@USHitData@NRaceData@@V?$allocator@USHitData@NRaceData@@@std@@@std@@QAEPAUSHitData@NRaceData@@QAU23@$$QAU23@@Z$2
__ehfuncinfo$??$_Emplace_reallocate@USHitData@NRaceData@@@?$vector@USHitData@NRaceData@@V?$allocator@USHitData@NRaceData@@@std@@@std@@QAEPAUSHitData@NRaceData@@QAU23@$$QAU23@@Z DD 019930522H
	DD	02H
	DD	FLAT:__unwindtable$??$_Emplace_reallocate@USHitData@NRaceData@@@?$vector@USHitData@NRaceData@@V?$allocator@USHitData@NRaceData@@@std@@@std@@QAEPAUSHitData@NRaceData@@QAU23@$$QAU23@@Z
	DD	01H
	DD	FLAT:__tryblocktable$??$_Emplace_reallocate@USHitData@NRaceData@@@?$vector@USHitData@NRaceData@@V?$allocator@USHitData@NRaceData@@@std@@@std@@QAEPAUSHitData@NRaceData@@QAU23@$$QAU23@@Z
	DD	2 DUP(00H)
	DD	00H
	DD	01H
xdata$x	ENDS
;	COMDAT xdata$x
xdata$x	SEGMENT
__unwindtable$??$construct@USHitData@NRaceData@@U12@@?$_Default_allocator_traits@V?$allocator@USHitData@NRaceData@@@std@@@std@@SAXAAV?$allocator@USHitData@NRaceData@@@1@QAUSHitData@NRaceData@@$$QAU34@@Z DD 0ffffffffH
	DD	FLAT:__unwindfunclet$??$construct@USHitData@NRaceData@@U12@@?$_Default_allocator_traits@V?$allocator@USHitData@NRaceData@@@std@@@std@@SAXAAV?$allocator@USHitData@NRaceData@@@1@QAUSHitData@NRaceData@@$$QAU34@@Z$0
__ehfuncinfo$??$construct@USHitData@NRaceData@@U12@@?$_Default_allocator_traits@V?$allocator@USHitData@NRaceData@@@std@@@std@@SAXAAV?$allocator@USHitData@NRaceData@@@1@QAUSHitData@NRaceData@@$$QAU34@@Z DD 019930522H
	DD	01H
	DD	FLAT:__unwindtable$??$construct@USHitData@NRaceData@@U12@@?$_Default_allocator_traits@V?$allocator@USHitData@NRaceData@@@std@@@std@@SAXAAV?$allocator@USHitData@NRaceData@@@1@QAUSHitData@NRaceData@@$$QAU34@@Z
	DD	2 DUP(00H)
	DD	2 DUP(00H)
	DD	00H
	DD	01H
xdata$x	ENDS
;	COMDAT xdata$x
xdata$x	SEGMENT
__ehfuncinfo$?LoadAttachingData@NRaceData@@YAHAAVCTextFileLoader@@PAV?$vector@USAttachingData@NRaceData@@V?$allocator@USAttachingData@NRaceData@@@std@@@std@@@Z DD 019930522H
	DD	06H
	DD	FLAT:__unwindtable$?LoadAttachingData@NRaceData@@YAHAAVCTextFileLoader@@PAV?$vector@USAttachingData@NRaceData@@V?$allocator@USAttachingData@NRaceData@@@std@@@std@@@Z
	DD	2 DUP(00H)
	DD	2 DUP(00H)
	DD	00H
	DD	01H
__unwindtable$?LoadAttachingData@NRaceData@@YAHAAVCTextFileLoader@@PAV?$vector@USAttachingData@NRaceData@@V?$allocator@USAttachingData@NRaceData@@@std@@@std@@@Z DD 0ffffffffH
	DD	FLAT:__unwindfunclet$?LoadAttachingData@NRaceData@@YAHAAVCTextFileLoader@@PAV?$vector@USAttachingData@NRaceData@@V?$allocator@USAttachingData@NRaceData@@@std@@@std@@@Z$0
	DD	0ffffffffH
	DD	FLAT:__unwindfunclet$?LoadAttachingData@NRaceData@@YAHAAVCTextFileLoader@@PAV?$vector@USAttachingData@NRaceData@@V?$allocator@USAttachingData@NRaceData@@@std@@@std@@@Z$1
	DD	0ffffffffH
	DD	FLAT:__unwindfunclet$?LoadAttachingData@NRaceData@@YAHAAVCTextFileLoader@@PAV?$vector@USAttachingData@NRaceData@@V?$allocator@USAttachingData@NRaceData@@@std@@@std@@@Z$2
	DD	0ffffffffH
	DD	FLAT:__unwindfunclet$?LoadAttachingData@NRaceData@@YAHAAVCTextFileLoader@@PAV?$vector@USAttachingData@NRaceData@@V?$allocator@USAttachingData@NRaceData@@@std@@@std@@@Z$3
	DD	0ffffffffH
	DD	FLAT:__unwindfunclet$?LoadAttachingData@NRaceData@@YAHAAVCTextFileLoader@@PAV?$vector@USAttachingData@NRaceData@@V?$allocator@USAttachingData@NRaceData@@@std@@@std@@@Z$4
	DD	0ffffffffH
	DD	FLAT:__unwindfunclet$?LoadAttachingData@NRaceData@@YAHAAVCTextFileLoader@@PAV?$vector@USAttachingData@NRaceData@@V?$allocator@USAttachingData@NRaceData@@@std@@@std@@@Z$5
xdata$x	ENDS
;	COMDAT xdata$x
xdata$x	SEGMENT
__unwindtable$?LoadObjectData@NRaceData@@YAHAAVCTextFileLoader@@PAUSAttachingObjectData@1@@Z DD 0ffffffffH
	DD	FLAT:__unwindfunclet$?LoadObjectData@NRaceData@@YAHAAVCTextFileLoader@@PAUSAttachingObjectData@1@@Z$0
__ehfuncinfo$?LoadObjectData@NRaceData@@YAHAAVCTextFileLoader@@PAUSAttachingObjectData@1@@Z DD 019930522H
	DD	01H
	DD	FLAT:__unwindtable$?LoadObjectData@NRaceData@@YAHAAVCTextFileLoader@@PAUSAttachingObjectData@1@@Z
	DD	2 DUP(00H)
	DD	2 DUP(00H)
	DD	00H
	DD	01H
xdata$x	ENDS
;	COMDAT xdata$x
xdata$x	SEGMENT
__unwindtable$?LoadEffectData@NRaceData@@YAHAAVCTextFileLoader@@PAUSAttachingEffectData@1@@Z DD 0ffffffffH
	DD	FLAT:__unwindfunclet$?LoadEffectData@NRaceData@@YAHAAVCTextFileLoader@@PAUSAttachingEffectData@1@@Z$0
	DD	0ffffffffH
	DD	FLAT:__unwindfunclet$?LoadEffectData@NRaceData@@YAHAAVCTextFileLoader@@PAUSAttachingEffectData@1@@Z$1
	DD	0ffffffffH
	DD	FLAT:__unwindfunclet$?LoadEffectData@NRaceData@@YAHAAVCTextFileLoader@@PAUSAttachingEffectData@1@@Z$2
__ehfuncinfo$?LoadEffectData@NRaceData@@YAHAAVCTextFileLoader@@PAUSAttachingEffectData@1@@Z DD 019930522H
	DD	03H
	DD	FLAT:__unwindtable$?LoadEffectData@NRaceData@@YAHAAVCTextFileLoader@@PAUSAttachingEffectData@1@@Z
	DD	2 DUP(00H)
	DD	2 DUP(00H)
	DD	00H
	DD	01H
xdata$x	ENDS
;	COMDAT xdata$x
xdata$x	SEGMENT
__ehfuncinfo$?LoadCollisionData@NRaceData@@YAHAAVCTextFileLoader@@PAUSCollisionData@1@@Z DD 019930522H
	DD	05H
	DD	FLAT:__unwindtable$?LoadCollisionData@NRaceData@@YAHAAVCTextFileLoader@@PAUSCollisionData@1@@Z
	DD	2 DUP(00H)
	DD	2 DUP(00H)
	DD	00H
	DD	01H
__unwindtable$?LoadCollisionData@NRaceData@@YAHAAVCTextFileLoader@@PAUSCollisionData@1@@Z DD 0ffffffffH
	DD	FLAT:__unwindfunclet$?LoadCollisionData@NRaceData@@YAHAAVCTextFileLoader@@PAUSCollisionData@1@@Z$0
	DD	0ffffffffH
	DD	FLAT:__unwindfunclet$?LoadCollisionData@NRaceData@@YAHAAVCTextFileLoader@@PAUSCollisionData@1@@Z$1
	DD	0ffffffffH
	DD	FLAT:__unwindfunclet$?LoadCollisionData@NRaceData@@YAHAAVCTextFileLoader@@PAUSCollisionData@1@@Z$2
	DD	0ffffffffH
	DD	FLAT:__unwindfunclet$?LoadCollisionData@NRaceData@@YAHAAVCTextFileLoader@@PAUSCollisionData@1@@Z$3
	DD	0ffffffffH
	DD	FLAT:__unwindfunclet$?LoadCollisionData@NRaceData@@YAHAAVCTextFileLoader@@PAUSCollisionData@1@@Z$4
xdata$x	ENDS
;	COMDAT xdata$x
xdata$x	SEGMENT
__ehfuncinfo$?LoadMotionAttackData@NRaceData@@YAHAAVCTextFileLoader@@PAUSMotionAttackData@1@@Z DD 019930522H
	DD	05H
	DD	FLAT:__unwindtable$?LoadMotionAttackData@NRaceData@@YAHAAVCTextFileLoader@@PAUSMotionAttackData@1@@Z
	DD	2 DUP(00H)
	DD	2 DUP(00H)
	DD	00H
	DD	01H
__unwindtable$?LoadMotionAttackData@NRaceData@@YAHAAVCTextFileLoader@@PAUSMotionAttackData@1@@Z DD 0ffffffffH
	DD	FLAT:__unwindfunclet$?LoadMotionAttackData@NRaceData@@YAHAAVCTextFileLoader@@PAUSMotionAttackData@1@@Z$0
	DD	0ffffffffH
	DD	FLAT:__unwindfunclet$?LoadMotionAttackData@NRaceData@@YAHAAVCTextFileLoader@@PAUSMotionAttackData@1@@Z$1
	DD	0ffffffffH
	DD	FLAT:__unwindfunclet$?LoadMotionAttackData@NRaceData@@YAHAAVCTextFileLoader@@PAUSMotionAttackData@1@@Z$2
	DD	0ffffffffH
	DD	FLAT:__unwindfunclet$?LoadMotionAttackData@NRaceData@@YAHAAVCTextFileLoader@@PAUSMotionAttackData@1@@Z$3
	DD	0ffffffffH
	DD	FLAT:__unwindfunclet$?LoadMotionAttackData@NRaceData@@YAHAAVCTextFileLoader@@PAUSMotionAttackData@1@@Z$4
xdata$x	ENDS
;	COMDAT xdata$x
xdata$x	SEGMENT
__ehfuncinfo$?LoadAttackData@NRaceData@@YAHAAVCTextFileLoader@@PAUSAttackData@1@@Z DD 019930522H
	DD	06H
	DD	FLAT:__unwindtable$?LoadAttackData@NRaceData@@YAHAAVCTextFileLoader@@PAUSAttackData@1@@Z
	DD	2 DUP(00H)
	DD	2 DUP(00H)
	DD	00H
	DD	01H
__unwindtable$?LoadAttackData@NRaceData@@YAHAAVCTextFileLoader@@PAUSAttackData@1@@Z DD 0ffffffffH
	DD	FLAT:__unwindfunclet$?LoadAttackData@NRaceData@@YAHAAVCTextFileLoader@@PAUSAttackData@1@@Z$0
	DD	0ffffffffH
	DD	FLAT:__unwindfunclet$?LoadAttackData@NRaceData@@YAHAAVCTextFileLoader@@PAUSAttackData@1@@Z$1
	DD	0ffffffffH
	DD	FLAT:__unwindfunclet$?LoadAttackData@NRaceData@@YAHAAVCTextFileLoader@@PAUSAttackData@1@@Z$2
	DD	0ffffffffH
	DD	FLAT:__unwindfunclet$?LoadAttackData@NRaceData@@YAHAAVCTextFileLoader@@PAUSAttackData@1@@Z$3
	DD	0ffffffffH
	DD	FLAT:__unwindfunclet$?LoadAttackData@NRaceData@@YAHAAVCTextFileLoader@@PAUSAttackData@1@@Z$4
	DD	0ffffffffH
	DD	FLAT:__unwindfunclet$?LoadAttackData@NRaceData@@YAHAAVCTextFileLoader@@PAUSAttackData@1@@Z$5
xdata$x	ENDS
;	COMDAT xdata$x
xdata$x	SEGMENT
__unwindtable$??0SHitData@NRaceData@@QAE@$$QAU01@@Z DD 0ffffffffH
	DD	FLAT:__unwindfunclet$??0SHitData@NRaceData@@QAE@$$QAU01@@Z$0
__ehfuncinfo$??0SHitData@NRaceData@@QAE@$$QAU01@@Z DD 019930522H
	DD	01H
	DD	FLAT:__unwindtable$??0SHitData@NRaceData@@QAE@$$QAU01@@Z
	DD	2 DUP(00H)
	DD	2 DUP(00H)
	DD	00H
	DD	01H
xdata$x	ENDS
;	COMDAT xdata$x
xdata$x	SEGMENT
__unwindtable$??0SHitData@NRaceData@@QAE@ABU01@@Z DD 0ffffffffH
	DD	FLAT:__unwindfunclet$??0SHitData@NRaceData@@QAE@ABU01@@Z$0
	DD	00H
	DD	FLAT:__unwindfunclet$??0SHitData@NRaceData@@QAE@ABU01@@Z$3
__ehfuncinfo$??0SHitData@NRaceData@@QAE@ABU01@@Z DD 019930522H
	DD	02H
	DD	FLAT:__unwindtable$??0SHitData@NRaceData@@QAE@ABU01@@Z
	DD	2 DUP(00H)
	DD	2 DUP(00H)
	DD	00H
	DD	01H
xdata$x	ENDS
;	COMDAT xdata$x
xdata$x	SEGMENT
__unwindtable$??0SHitData@NRaceData@@QAE@XZ DD 0ffffffffH
	DD	FLAT:__unwindfunclet$??0SHitData@NRaceData@@QAE@XZ$0
__ehfuncinfo$??0SHitData@NRaceData@@QAE@XZ DD 019930522H
	DD	01H
	DD	FLAT:__unwindtable$??0SHitData@NRaceData@@QAE@XZ
	DD	2 DUP(00H)
	DD	2 DUP(00H)
	DD	00H
	DD	01H
xdata$x	ENDS
;	COMDAT xdata$x
xdata$x	SEGMENT
__ehfuncinfo$?Load@SHitData@NRaceData@@QAE_NAAVCTextFileLoader@@@Z DD 019930522H
	DD	06H
	DD	FLAT:__unwindtable$?Load@SHitData@NRaceData@@QAE_NAAVCTextFileLoader@@@Z
	DD	2 DUP(00H)
	DD	2 DUP(00H)
	DD	00H
	DD	01H
__unwindtable$?Load@SHitData@NRaceData@@QAE_NAAVCTextFileLoader@@@Z DD 0ffffffffH
	DD	FLAT:__unwindfunclet$?Load@SHitData@NRaceData@@QAE_NAAVCTextFileLoader@@@Z$0
	DD	0ffffffffH
	DD	FLAT:__unwindfunclet$?Load@SHitData@NRaceData@@QAE_NAAVCTextFileLoader@@@Z$1
	DD	0ffffffffH
	DD	FLAT:__unwindfunclet$?Load@SHitData@NRaceData@@QAE_NAAVCTextFileLoader@@@Z$2
	DD	0ffffffffH
	DD	FLAT:__unwindfunclet$?Load@SHitData@NRaceData@@QAE_NAAVCTextFileLoader@@@Z$3
	DD	0ffffffffH
	DD	FLAT:__unwindfunclet$?Load@SHitData@NRaceData@@QAE_NAAVCTextFileLoader@@@Z$4
	DD	0ffffffffH
	DD	FLAT:__unwindfunclet$?Load@SHitData@NRaceData@@QAE_NAAVCTextFileLoader@@@Z$12
xdata$x	ENDS
;	COMDAT xdata$x
xdata$x	SEGMENT
__unwindtable$??A?$map@MUCDynamicSphereInstance@@U?$less@M@std@@V?$allocator@U?$pair@$$CBMUCDynamicSphereInstance@@@std@@@3@@std@@QAEAAUCDynamicSphereInstance@@ABM@Z DD 0ffffffffH
	DD	FLAT:__unwindfunclet$??A?$map@MUCDynamicSphereInstance@@U?$less@M@std@@V?$allocator@U?$pair@$$CBMUCDynamicSphereInstance@@@std@@@3@@std@@QAEAAUCDynamicSphereInstance@@ABM@Z$2
__ehfuncinfo$??A?$map@MUCDynamicSphereInstance@@U?$less@M@std@@V?$allocator@U?$pair@$$CBMUCDynamicSphereInstance@@@std@@@3@@std@@QAEAAUCDynamicSphereInstance@@ABM@Z DD 019930522H
	DD	01H
	DD	FLAT:__unwindtable$??A?$map@MUCDynamicSphereInstance@@U?$less@M@std@@V?$allocator@U?$pair@$$CBMUCDynamicSphereInstance@@@std@@@3@@std@@QAEAAUCDynamicSphereInstance@@ABM@Z
	DD	2 DUP(00H)
	DD	2 DUP(00H)
	DD	00H
	DD	01H
xdata$x	ENDS
;	COMDAT xdata$x
xdata$x	SEGMENT
__unwindtable$??0?$map@MUCDynamicSphereInstance@@U?$less@M@std@@V?$allocator@U?$pair@$$CBMUCDynamicSphereInstance@@@std@@@3@@std@@QAE@ABV01@@Z DD 0ffffffffH
	DD	FLAT:__unwindfunclet$??0?$map@MUCDynamicSphereInstance@@U?$less@M@std@@V?$allocator@U?$pair@$$CBMUCDynamicSphereInstance@@@std@@@3@@std@@QAE@ABV01@@Z$1
__ehfuncinfo$??0?$map@MUCDynamicSphereInstance@@U?$less@M@std@@V?$allocator@U?$pair@$$CBMUCDynamicSphereInstance@@@std@@@3@@std@@QAE@ABV01@@Z DD 019930522H
	DD	01H
	DD	FLAT:__unwindtable$??0?$map@MUCDynamicSphereInstance@@U?$less@M@std@@V?$allocator@U?$pair@$$CBMUCDynamicSphereInstance@@@std@@@3@@std@@QAE@ABV01@@Z
	DD	2 DUP(00H)
	DD	2 DUP(00H)
	DD	00H
	DD	01H
xdata$x	ENDS
CRT$XCU	SEGMENT
?g_EffectDataPool$initializer$@NRaceData@@3P6AXXZA DD FLAT:??__Eg_EffectDataPool@NRaceData@@YAXXZ ; NRaceData::g_EffectDataPool$initializer$
CRT$XCU	ENDS
CRT$XCU	SEGMENT
?g_ObjectDataPool$initializer$@NRaceData@@3P6AXXZA DD FLAT:??__Eg_ObjectDataPool@NRaceData@@YAXXZ ; NRaceData::g_ObjectDataPool$initializer$
CRT$XCU	ENDS
;	COMDAT CRT$XCU
CRT$XCU	SEGMENT
??ms_kPool$initializer$@?$CPooledObject@VCHeaderDecorator@NEffectUpdateDecorator@@@@1P6AXXZA@@3P6AXXZA DD FLAT:??__E?ms_kPool@?$CPooledObject@VCHeaderDecorator@NEffectUpdateDecorator@@@@1V?$CDynamicPoolEx@VCHeaderDecorator@NEffectUpdateDecorator@@@@A@@YAXXZ ; ??ms_kPool$initializer$@?$CPooledObject@VCHeaderDecorator@NEffectUpdateDecorator@@@@1P6AXXZA@@3P6AXXZA
CRT$XCU	ENDS
;	COMDAT CRT$XCU
CRT$XCU	SEGMENT
??ms_kPool$initializer$@?$CPooledObject@VCNullDecorator@NEffectUpdateDecorator@@@@1P6AXXZA@@3P6AXXZA DD FLAT:??__E?ms_kPool@?$CPooledObject@VCNullDecorator@NEffectUpdateDecorator@@@@1V?$CDynamicPoolEx@VCNullDecorator@NEffectUpdateDecorator@@@@A@@YAXXZ ; ??ms_kPool$initializer$@?$CPooledObject@VCNullDecorator@NEffectUpdateDecorator@@@@1P6AXXZA@@3P6AXXZA
CRT$XCU	ENDS
;	COMDAT CRT$XCU
CRT$XCU	SEGMENT
??ms_kPool$initializer$@?$CPooledObject@VCTextureAnimationCWDecorator@NEffectUpdateDecorator@@@@1P6AXXZA@@3P6AXXZA DD FLAT:??__E?ms_kPool@?$CPooledObject@VCTextureAnimationCWDecorator@NEffectUpdateDecorator@@@@1V?$CDynamicPoolEx@VCTextureAnimationCWDecorator@NEffectUpdateDecorator@@@@A@@YAXXZ ; ??ms_kPool$initializer$@?$CPooledObject@VCTextureAnimationCWDecorator@NEffectUpdateDecorator@@@@1P6AXXZA@@3P6AXXZA
CRT$XCU	ENDS
;	COMDAT CRT$XCU
CRT$XCU	SEGMENT
??ms_kPool$initializer$@?$CPooledObject@VCTextureAnimationCCWDecorator@NEffectUpdateDecorator@@@@1P6AXXZA@@3P6AXXZA DD FLAT:??__E?ms_kPool@?$CPooledObject@VCTextureAnimationCCWDecorator@NEffectUpdateDecorator@@@@1V?$CDynamicPoolEx@VCTextureAnimationCCWDecorator@NEffectUpdateDecorator@@@@A@@YAXXZ ; ??ms_kPool$initializer$@?$CPooledObject@VCTextureAnimationCCWDecorator@NEffectUpdateDecorator@@@@1P6AXXZA@@3P6AXXZA
CRT$XCU	ENDS
;	COMDAT CRT$XCU
CRT$XCU	SEGMENT
??ms_kPool$initializer$@?$CPooledObject@VCTextureAnimationRandomDecorator@NEffectUpdateDecorator@@@@1P6AXXZA@@3P6AXXZA DD FLAT:??__E?ms_kPool@?$CPooledObject@VCTextureAnimationRandomDecorator@NEffectUpdateDecorator@@@@1V?$CDynamicPoolEx@VCTextureAnimationRandomDecorator@NEffectUpdateDecorator@@@@A@@YAXXZ ; ??ms_kPool$initializer$@?$CPooledObject@VCTextureAnimationRandomDecorator@NEffectUpdateDecorator@@@@1P6AXXZA@@3P6AXXZA
CRT$XCU	ENDS
;	COMDAT CRT$XCU
CRT$XCU	SEGMENT
??ms_kPool$initializer$@?$CPooledObject@VCAirResistanceDecorator@NEffectUpdateDecorator@@@@1P6AXXZA@@3P6AXXZA DD FLAT:??__E?ms_kPool@?$CPooledObject@VCAirResistanceDecorator@NEffectUpdateDecorator@@@@1V?$CDynamicPoolEx@VCAirResistanceDecorator@NEffectUpdateDecorator@@@@A@@YAXXZ ; ??ms_kPool$initializer$@?$CPooledObject@VCAirResistanceDecorator@NEffectUpdateDecorator@@@@1P6AXXZA@@3P6AXXZA
CRT$XCU	ENDS
;	COMDAT CRT$XCU
CRT$XCU	SEGMENT
??ms_kPool$initializer$@?$CPooledObject@VCGravityDecorator@NEffectUpdateDecorator@@@@1P6AXXZA@@3P6AXXZA DD FLAT:??__E?ms_kPool@?$CPooledObject@VCGravityDecorator@NEffectUpdateDecorator@@@@1V?$CDynamicPoolEx@VCGravityDecorator@NEffectUpdateDecorator@@@@A@@YAXXZ ; ??ms_kPool$initializer$@?$CPooledObject@VCGravityDecorator@NEffectUpdateDecorator@@@@1P6AXXZA@@3P6AXXZA
CRT$XCU	ENDS
;	COMDAT CRT$XCU
CRT$XCU	SEGMENT
??ms_kPool$initializer$@?$CPooledObject@VCRotationDecorator@NEffectUpdateDecorator@@@@1P6AXXZA@@3P6AXXZA DD FLAT:??__E?ms_kPool@?$CPooledObject@VCRotationDecorator@NEffectUpdateDecorator@@@@1V?$CDynamicPoolEx@VCRotationDecorator@NEffectUpdateDecorator@@@@A@@YAXXZ ; ??ms_kPool$initializer$@?$CPooledObject@VCRotationDecorator@NEffectUpdateDecorator@@@@1P6AXXZA@@3P6AXXZA
CRT$XCU	ENDS
; Function compile flags: /Ogtp
; File C:\Program Files (x86)\Microsoft Visual Studio\2019\Community\VC\Tools\MSVC\14.27.29110\include\xtree
; File C:\Program Files (x86)\Microsoft Visual Studio\2019\Community\VC\Tools\MSVC\14.27.29110\include\utility
; File C:\Program Files (x86)\Microsoft Visual Studio\2019\Community\VC\Tools\MSVC\14.27.29110\include\xmemory
; File C:\Program Files (x86)\Microsoft Visual Studio\2019\Community\VC\Tools\MSVC\14.27.29110\include\xtree
;	COMDAT ??$_Erase_tree_and_orphan@V?$allocator@U?$_Tree_node@U?$pair@$$CBMUCDynamicSphereInstance@@@std@@PAX@std@@@std@@@?$_Tree_val@U?$_Tree_simple_types@U?$pair@$$CBMUCDynamicSphereInstance@@@std@@@std@@@std@@QAEXAAV?$allocator@U?$_Tree_node@U?$pair@$$CBMUCDynamicSphereInstance@@@std@@PAX@std@@@1@PAU?$_Tree_node@U?$pair@$$CBMUCDynamicSphereInstance@@@std@@PAX@1@@Z
_TEXT	SEGMENT
__Al$ = 8						; size = 4
__Rootnode$ = 12					; size = 4
??$_Erase_tree_and_orphan@V?$allocator@U?$_Tree_node@U?$pair@$$CBMUCDynamicSphereInstance@@@std@@PAX@std@@@std@@@?$_Tree_val@U?$_Tree_simple_types@U?$pair@$$CBMUCDynamicSphereInstance@@@std@@@std@@@std@@QAEXAAV?$allocator@U?$_Tree_node@U?$pair@$$CBMUCDynamicSphereInstance@@@std@@PAX@std@@@1@PAU?$_Tree_node@U?$pair@$$CBMUCDynamicSphereInstance@@@std@@PAX@1@@Z PROC ; std::_Tree_val<std::_Tree_simple_types<std::pair<float const ,CDynamicSphereInstance> > >::_Erase_tree_and_orphan<std::allocator<std::_Tree_node<std::pair<float const ,CDynamicSphereInstance>,void *> > >, COMDAT
; _this$ = ecx

; 732  :     void _Erase_tree_and_orphan(_Alnode& _Al, _Nodeptr _Rootnode) noexcept {

  00000	55		 push	 ebp
  00001	8b ec		 mov	 ebp, esp
  00003	53		 push	 ebx
  00004	56		 push	 esi

; 733  :         while (!_Rootnode->_Isnil) { // free subtrees, then node

  00005	8b 75 0c	 mov	 esi, DWORD PTR __Rootnode$[ebp]
  00008	8b d9		 mov	 ebx, ecx
  0000a	80 7e 0d 00	 cmp	 BYTE PTR [esi+13], 0
  0000e	75 25		 jne	 SHORT $LN3@Erase_tree
  00010	57		 push	 edi
  00011	8b 7d 08	 mov	 edi, DWORD PTR __Al$[ebp]
$LL2@Erase_tree:

; 734  :             _Erase_tree_and_orphan(_Al, _Rootnode->_Right);

  00014	ff 76 08	 push	 DWORD PTR [esi+8]
  00017	8b cb		 mov	 ecx, ebx
  00019	57		 push	 edi
  0001a	e8 00 00 00 00	 call	 ??$_Erase_tree_and_orphan@V?$allocator@U?$_Tree_node@U?$pair@$$CBMUCDynamicSphereInstance@@@std@@PAX@std@@@std@@@?$_Tree_val@U?$_Tree_simple_types@U?$pair@$$CBMUCDynamicSphereInstance@@@std@@@std@@@std@@QAEXAAV?$allocator@U?$_Tree_node@U?$pair@$$CBMUCDynamicSphereInstance@@@std@@PAX@std@@@1@PAU?$_Tree_node@U?$pair@$$CBMUCDynamicSphereInstance@@@std@@PAX@1@@Z ; std::_Tree_val<std::_Tree_simple_types<std::pair<float const ,CDynamicSphereInstance> > >::_Erase_tree_and_orphan<std::allocator<std::_Tree_node<std::pair<float const ,CDynamicSphereInstance>,void *> > >
; File C:\Program Files (x86)\Microsoft Visual Studio\2019\Community\VC\Tools\MSVC\14.27.29110\include\utility

; 599  :     _Ty _Old_val = static_cast<_Ty&&>(_Val);

  0001f	8b c6		 mov	 eax, esi

; 600  :     _Val         = static_cast<_Other&&>(_New_val);

  00021	8b 36		 mov	 esi, DWORD PTR [esi]
; File C:\Program Files (x86)\Microsoft Visual Studio\2019\Community\VC\Tools\MSVC\14.27.29110\include\xmemory

; 689  :         _Deallocate<_New_alignof<value_type>>(_Ptr, sizeof(value_type) * _Count);

  00023	6a 30		 push	 48			; 00000030H
  00025	50		 push	 eax
  00026	e8 00 00 00 00	 call	 ??$_Deallocate@$07$0A@@std@@YAXPAXI@Z ; std::_Deallocate<8,0>
  0002b	83 c4 08	 add	 esp, 8
; File C:\Program Files (x86)\Microsoft Visual Studio\2019\Community\VC\Tools\MSVC\14.27.29110\include\xtree

; 733  :         while (!_Rootnode->_Isnil) { // free subtrees, then node

  0002e	80 7e 0d 00	 cmp	 BYTE PTR [esi+13], 0
  00032	74 e0		 je	 SHORT $LL2@Erase_tree
  00034	5f		 pop	 edi
$LN3@Erase_tree:
  00035	5e		 pop	 esi

; 735  :             auto _To_delete = _STD exchange(_Rootnode, _Rootnode->_Left);
; 736  :             _Orphan_ptr(_To_delete);
; 737  :             _Alnode::value_type::_Freenode(_Al, _To_delete);
; 738  :         }
; 739  :     }

  00036	5b		 pop	 ebx
  00037	5d		 pop	 ebp
  00038	c2 08 00	 ret	 8
??$_Erase_tree_and_orphan@V?$allocator@U?$_Tree_node@U?$pair@$$CBMUCDynamicSphereInstance@@@std@@PAX@std@@@std@@@?$_Tree_val@U?$_Tree_simple_types@U?$pair@$$CBMUCDynamicSphereInstance@@@std@@@std@@@std@@QAEXAAV?$allocator@U?$_Tree_node@U?$pair@$$CBMUCDynamicSphereInstance@@@std@@PAX@std@@@1@PAU?$_Tree_node@U?$pair@$$CBMUCDynamicSphereInstance@@@std@@PAX@1@@Z ENDP ; std::_Tree_val<std::_Tree_simple_types<std::pair<float const ,CDynamicSphereInstance> > >::_Erase_tree_and_orphan<std::allocator<std::_Tree_node<std::pair<float const ,CDynamicSphereInstance>,void *> > >
_TEXT	ENDS
; Function compile flags: /Ogtp
; File C:\Program Files (x86)\Microsoft Visual Studio\2019\Community\VC\Tools\MSVC\14.27.29110\include\xtree
; File C:\Program Files (x86)\Microsoft Visual Studio\2019\Community\VC\Tools\MSVC\14.27.29110\include\xmemory
; File C:\Program Files (x86)\Microsoft Visual Studio\2019\Community\VC\Tools\MSVC\14.27.29110\include\xtree
; File C:\Program Files (x86)\Microsoft Visual Studio\2019\Community\VC\Tools\MSVC\14.27.29110\include\xmemory
; File C:\Program Files (x86)\Microsoft Visual Studio\2019\Community\VC\Tools\MSVC\14.27.29110\include\xtree
; File C:\Program Files (x86)\Microsoft Visual Studio\2019\Community\VC\Tools\MSVC\14.27.29110\include\xmemory
; File C:\Program Files (x86)\Microsoft Visual Studio\2019\Community\VC\Tools\MSVC\14.27.29110\include\xtree
;	COMDAT ??$_Copy_nodes@U_Copy_tag@?$_Tree@V?$_Tmap_traits@MUCDynamicSphereInstance@@U?$less@M@std@@V?$allocator@U?$pair@$$CBMUCDynamicSphereInstance@@@std@@@3@$0A@@std@@@std@@@?$_Tree@V?$_Tmap_traits@MUCDynamicSphereInstance@@U?$less@M@std@@V?$allocator@U?$pair@$$CBMUCDynamicSphereInstance@@@std@@@3@$0A@@std@@@std@@IAEPAU?$_Tree_node@U?$pair@$$CBMUCDynamicSphereInstance@@@std@@PAX@1@PAU21@0U_Copy_tag@01@@Z
_TEXT	SEGMENT
_this$ = -40						; size = 4
__Newnode$2 = -36					; size = 8
tv342 = -32						; size = 4
__Newroot$1$ = -28					; size = 4
__Newnode$1$ = -24					; size = 4
__Myhead$3 = -20					; size = 4
__$EHRec$ = -16						; size = 16
__Newroot$ = 8						; size = 4
__Rootnode$ = 8						; size = 4
__Wherenode$ = 12					; size = 4
__Movefl$ = 16						; size = 1
??$_Copy_nodes@U_Copy_tag@?$_Tree@V?$_Tmap_traits@MUCDynamicSphereInstance@@U?$less@M@std@@V?$allocator@U?$pair@$$CBMUCDynamicSphereInstance@@@std@@@3@$0A@@std@@@std@@@?$_Tree@V?$_Tmap_traits@MUCDynamicSphereInstance@@U?$less@M@std@@V?$allocator@U?$pair@$$CBMUCDynamicSphereInstance@@@std@@@3@$0A@@std@@@std@@IAEPAU?$_Tree_node@U?$pair@$$CBMUCDynamicSphereInstance@@@std@@PAX@1@PAU21@0U_Copy_tag@01@@Z PROC ; std::_Tree<std::_Tmap_traits<float,CDynamicSphereInstance,std::less<float>,std::allocator<std::pair<float const ,CDynamicSphereInstance> >,0> >::_Copy_nodes<std::_Tree<std::_Tmap_traits<float,CDynamicSphereInstance,std::less<float>,std::allocator<std::pair<float const ,CDynamicSphereInstance> >,0> >::_Copy_tag>, COMDAT
; _this$ = ecx

; 1755 :     _Nodeptr _Copy_nodes(_Nodeptr _Rootnode, _Nodeptr _Wherenode, _Moveit _Movefl) {

  00000	55		 push	 ebp
  00001	8b ec		 mov	 ebp, esp
  00003	6a ff		 push	 -1
  00005	68 00 00 00 00	 push	 __ehhandler$??$_Copy_nodes@U_Copy_tag@?$_Tree@V?$_Tmap_traits@MUCDynamicSphereInstance@@U?$less@M@std@@V?$allocator@U?$pair@$$CBMUCDynamicSphereInstance@@@std@@@3@$0A@@std@@@std@@@?$_Tree@V?$_Tmap_traits@MUCDynamicSphereInstance@@U?$less@M@std@@V?$allocator@U?$pair@$$CBMUCDynamicSphereInstance@@@std@@@3@$0A@@std@@@std@@IAEPAU?$_Tree_node@U?$pair@$$CBMUCDynamicSphereInstance@@@std@@PAX@1@PAU21@0U_Copy_tag@01@@Z
  0000a	64 a1 00 00 00
	00		 mov	 eax, DWORD PTR fs:0
  00010	50		 push	 eax
  00011	83 ec 1c	 sub	 esp, 28			; 0000001cH
  00014	53		 push	 ebx
  00015	56		 push	 esi
  00016	57		 push	 edi
  00017	a1 00 00 00 00	 mov	 eax, DWORD PTR ___security_cookie
  0001c	33 c5		 xor	 eax, ebp
  0001e	50		 push	 eax
  0001f	8d 45 f4	 lea	 eax, DWORD PTR __$EHRec$[ebp+4]
  00022	64 a3 00 00 00
	00		 mov	 DWORD PTR fs:0, eax
  00028	89 65 f0	 mov	 DWORD PTR __$EHRec$[ebp], esp
  0002b	8b f9		 mov	 edi, ecx
  0002d	89 7d d8	 mov	 DWORD PTR _this$[ebp], edi

; 1756 :         // copy entire subtree, recursively
; 1757 :         const auto _Scary = _Get_scary();
; 1758 :         _Nodeptr _Newroot = _Scary->_Myhead; // point at nil node
; 1759 : 
; 1760 :         if (!_Rootnode->_Isnil) { // copy or move a node, then any subtrees

  00030	8b 45 08	 mov	 eax, DWORD PTR __Rootnode$[ebp]
  00033	8b 0f		 mov	 ecx, DWORD PTR [edi]
  00035	89 4d e4	 mov	 DWORD PTR __Newroot$1$[ebp], ecx
  00038	80 78 0d 00	 cmp	 BYTE PTR [eax+13], 0
  0003c	0f 85 b8 00 00
	00		 jne	 $LN8@Copy_nodes

; 2027 :         return _Node::_Buynode(_Getal(), _Get_scary()->_Myhead, _STD forward<_Valty>(_Val)...);

  00042	89 4d ec	 mov	 DWORD PTR __Myhead$3[ebp], ecx
; File C:\Program Files (x86)\Microsoft Visual Studio\2019\Community\VC\Tools\MSVC\14.27.29110\include\xmemory

; 1040 :     explicit _Alloc_construct_ptr(_Alloc& _Al_) : _Al(_Al_), _Ptr(nullptr) {}

  00045	89 7d dc	 mov	 DWORD PTR __Newnode$2[ebp], edi

; 807  :         return static_cast<_Ty*>(_Allocate<_New_alignof<_Ty>>(_Get_size_of_n<sizeof(_Ty)>(_Count)));

  00048	6a 30		 push	 48			; 00000030H
; File C:\Program Files (x86)\Microsoft Visual Studio\2019\Community\VC\Tools\MSVC\14.27.29110\include\xtree

; 356  :         _Alloc_construct_ptr<_Alloc> _Newnode(_Al);

  0004a	c7 45 fc 00 00
	00 00		 mov	 DWORD PTR __$EHRec$[ebp+12], 0
; File C:\Program Files (x86)\Microsoft Visual Studio\2019\Community\VC\Tools\MSVC\14.27.29110\include\xmemory

; 1047 :         _Ptr = nullptr; // if allocate throws, prevents double-free

  00051	c7 45 e0 00 00
	00 00		 mov	 DWORD PTR __Newnode$2[ebp+4], 0

; 807  :         return static_cast<_Ty*>(_Allocate<_New_alignof<_Ty>>(_Get_size_of_n<sizeof(_Ty)>(_Count)));

  00058	e8 00 00 00 00	 call	 ??$_Allocate@$07U_Default_allocate_traits@std@@$0A@@std@@YAPAXI@Z ; std::_Allocate<8,std::_Default_allocate_traits,0>

; 1048 :         _Ptr = _Al.allocate(1);

  0005d	8b f0		 mov	 esi, eax

; 694  :         ::new (const_cast<void*>(static_cast<const volatile void*>(_Ptr))) _Objty(_STD forward<_Types>(_Args)...);

  0005f	8b 45 08	 mov	 eax, DWORD PTR __Rootnode$[ebp]

; 1048 :         _Ptr = _Al.allocate(1);

  00062	89 75 e8	 mov	 DWORD PTR __Newnode$1$[ebp], esi

; 694  :         ::new (const_cast<void*>(static_cast<const volatile void*>(_Ptr))) _Objty(_STD forward<_Types>(_Args)...);

  00065	0f 10 40 10	 movups	 xmm0, XMMWORD PTR [eax+16]
  00069	0f 11 46 10	 movups	 XMMWORD PTR [esi+16], xmm0
  0006d	0f 10 40 20	 movups	 xmm0, XMMWORD PTR [eax+32]
; File C:\Program Files (x86)\Microsoft Visual Studio\2019\Community\VC\Tools\MSVC\14.27.29110\include\xtree

; 359  :         _Construct_in_place(_Newnode._Ptr->_Left, _Myhead);

  00071	8d 45 ec	 lea	 eax, DWORD PTR __Myhead$3[ebp]
  00074	50		 push	 eax
  00075	56		 push	 esi
; File C:\Program Files (x86)\Microsoft Visual Studio\2019\Community\VC\Tools\MSVC\14.27.29110\include\xmemory

; 694  :         ::new (const_cast<void*>(static_cast<const volatile void*>(_Ptr))) _Objty(_STD forward<_Types>(_Args)...);

  00076	0f 11 46 20	 movups	 XMMWORD PTR [esi+32], xmm0
; File C:\Program Files (x86)\Microsoft Visual Studio\2019\Community\VC\Tools\MSVC\14.27.29110\include\xtree

; 359  :         _Construct_in_place(_Newnode._Ptr->_Left, _Myhead);

  0007a	e8 00 00 00 00	 call	 ??$_Construct_in_place@PAU?$_Tree_node@U?$pair@$$CBMUCDynamicSphereInstance@@@std@@PAX@std@@AAPAU12@@std@@YAXAAPAU?$_Tree_node@U?$pair@$$CBMUCDynamicSphereInstance@@@std@@PAX@0@0@Z ; std::_Construct_in_place<std::_Tree_node<std::pair<float const ,CDynamicSphereInstance>,void *> *,std::_Tree_node<std::pair<float const ,CDynamicSphereInstance>,void *> * &>

; 360  :         _Construct_in_place(_Newnode._Ptr->_Parent, _Myhead);

  0007f	8d 45 ec	 lea	 eax, DWORD PTR __Myhead$3[ebp]
  00082	83 c6 04	 add	 esi, 4
  00085	50		 push	 eax
  00086	56		 push	 esi
  00087	e8 00 00 00 00	 call	 ??$_Construct_in_place@PAU?$_Tree_node@U?$pair@$$CBMUCDynamicSphereInstance@@@std@@PAX@std@@AAPAU12@@std@@YAXAAPAU?$_Tree_node@U?$pair@$$CBMUCDynamicSphereInstance@@@std@@PAX@0@0@Z ; std::_Construct_in_place<std::_Tree_node<std::pair<float const ,CDynamicSphereInstance>,void *> *,std::_Tree_node<std::pair<float const ,CDynamicSphereInstance>,void *> * &>

; 361  :         _Construct_in_place(_Newnode._Ptr->_Right, _Myhead);

  0008c	8b 45 e8	 mov	 eax, DWORD PTR __Newnode$1$[ebp]
  0008f	8d 4d ec	 lea	 ecx, DWORD PTR __Myhead$3[ebp]
  00092	83 c0 08	 add	 eax, 8
  00095	51		 push	 ecx
  00096	50		 push	 eax
  00097	89 45 e0	 mov	 DWORD PTR tv342[ebp], eax
  0009a	e8 00 00 00 00	 call	 ??$_Construct_in_place@PAU?$_Tree_node@U?$pair@$$CBMUCDynamicSphereInstance@@@std@@PAX@std@@AAPAU12@@std@@YAXAAPAU?$_Tree_node@U?$pair@$$CBMUCDynamicSphereInstance@@@std@@PAX@0@0@Z ; std::_Construct_in_place<std::_Tree_node<std::pair<float const ,CDynamicSphereInstance>,void *> *,std::_Tree_node<std::pair<float const ,CDynamicSphereInstance>,void *> * &>

; 362  :         _Newnode._Ptr->_Color = _Red;

  0009f	8b 4d e8	 mov	 ecx, DWORD PTR __Newnode$1$[ebp]
  000a2	83 c4 1c	 add	 esp, 28			; 0000001cH

; 1761 :             typename is_same<key_type, value_type>::type _Is_set;
; 1762 :             _Nodeptr _Pnode = _Copy_or_move(_Rootnode->_Myval, _Movefl, _Is_set);
; 1763 :             _Pnode->_Parent = _Wherenode;

  000a5	8b 45 0c	 mov	 eax, DWORD PTR __Wherenode$[ebp]

; 1766 :                 _Newroot = _Pnode; // memorize new root
; 1767 :             }
; 1768 : 
; 1769 :             _TRY_BEGIN

  000a8	c7 45 fc 01 00
	00 00		 mov	 DWORD PTR __$EHRec$[ebp+12], 1

; 362  :         _Newnode._Ptr->_Color = _Red;

  000af	66 c7 41 0c 00
	00		 mov	 WORD PTR [ecx+12], 0

; 1761 :             typename is_same<key_type, value_type>::type _Is_set;
; 1762 :             _Nodeptr _Pnode = _Copy_or_move(_Rootnode->_Myval, _Movefl, _Is_set);
; 1763 :             _Pnode->_Parent = _Wherenode;

  000b5	89 06		 mov	 DWORD PTR [esi], eax

; 1764 :             _Pnode->_Color  = _Rootnode->_Color;

  000b7	8b 75 08	 mov	 esi, DWORD PTR __Rootnode$[ebp]
  000ba	8a 46 0c	 mov	 al, BYTE PTR [esi+12]
  000bd	88 41 0c	 mov	 BYTE PTR [ecx+12], al

; 1765 :             if (_Newroot->_Isnil) {

  000c0	8b 45 e4	 mov	 eax, DWORD PTR __Newroot$1$[ebp]

; 1770 :             _Pnode->_Left  = _Copy_nodes(_Rootnode->_Left, _Pnode, _Movefl);

  000c3	ff 75 10	 push	 DWORD PTR __Movefl$[ebp]
  000c6	51		 push	 ecx
  000c7	80 78 0d 00	 cmp	 BYTE PTR [eax+13], 0
  000cb	ff 36		 push	 DWORD PTR [esi]
  000cd	0f 45 c1	 cmovne	 eax, ecx
  000d0	8b cf		 mov	 ecx, edi
  000d2	89 45 e4	 mov	 DWORD PTR __Newroot$1$[ebp], eax
  000d5	89 45 08	 mov	 DWORD PTR __Newroot$[ebp], eax
  000d8	e8 00 00 00 00	 call	 ??$_Copy_nodes@U_Copy_tag@?$_Tree@V?$_Tmap_traits@MUCDynamicSphereInstance@@U?$less@M@std@@V?$allocator@U?$pair@$$CBMUCDynamicSphereInstance@@@std@@@3@$0A@@std@@@std@@@?$_Tree@V?$_Tmap_traits@MUCDynamicSphereInstance@@U?$less@M@std@@V?$allocator@U?$pair@$$CBMUCDynamicSphereInstance@@@std@@@3@$0A@@std@@@std@@IAEPAU?$_Tree_node@U?$pair@$$CBMUCDynamicSphereInstance@@@std@@PAX@1@PAU21@0U_Copy_tag@01@@Z ; std::_Tree<std::_Tmap_traits<float,CDynamicSphereInstance,std::less<float>,std::allocator<std::pair<float const ,CDynamicSphereInstance> >,0> >::_Copy_nodes<std::_Tree<std::_Tmap_traits<float,CDynamicSphereInstance,std::less<float>,std::allocator<std::pair<float const ,CDynamicSphereInstance> >,0> >::_Copy_tag>
  000dd	8b c8		 mov	 ecx, eax
  000df	8b 45 e8	 mov	 eax, DWORD PTR __Newnode$1$[ebp]
  000e2	89 08		 mov	 DWORD PTR [eax], ecx

; 1771 :             _Pnode->_Right = _Copy_nodes(_Rootnode->_Right, _Pnode, _Movefl);

  000e4	8b cf		 mov	 ecx, edi
  000e6	ff 75 10	 push	 DWORD PTR __Movefl$[ebp]
  000e9	50		 push	 eax
  000ea	ff 76 08	 push	 DWORD PTR [esi+8]
  000ed	e8 00 00 00 00	 call	 ??$_Copy_nodes@U_Copy_tag@?$_Tree@V?$_Tmap_traits@MUCDynamicSphereInstance@@U?$less@M@std@@V?$allocator@U?$pair@$$CBMUCDynamicSphereInstance@@@std@@@3@$0A@@std@@@std@@@?$_Tree@V?$_Tmap_traits@MUCDynamicSphereInstance@@U?$less@M@std@@V?$allocator@U?$pair@$$CBMUCDynamicSphereInstance@@@std@@@3@$0A@@std@@@std@@IAEPAU?$_Tree_node@U?$pair@$$CBMUCDynamicSphereInstance@@@std@@PAX@1@PAU21@0U_Copy_tag@01@@Z ; std::_Tree<std::_Tmap_traits<float,CDynamicSphereInstance,std::less<float>,std::allocator<std::pair<float const ,CDynamicSphereInstance> >,0> >::_Copy_nodes<std::_Tree<std::_Tmap_traits<float,CDynamicSphereInstance,std::less<float>,std::allocator<std::pair<float const ,CDynamicSphereInstance> >,0> >::_Copy_tag>
  000f2	8b 4d e0	 mov	 ecx, DWORD PTR tv342[ebp]
  000f5	89 01		 mov	 DWORD PTR [ecx], eax
  000f7	8b 4d e4	 mov	 ecx, DWORD PTR __Newroot$1$[ebp]
$LN8@Copy_nodes:

; 1775 :             _CATCH_END
; 1776 :         }
; 1777 : 
; 1778 :         return _Newroot; // return newly constructed tree

  000fa	8b c1		 mov	 eax, ecx

; 1779 :     }

  000fc	8b 4d f4	 mov	 ecx, DWORD PTR __$EHRec$[ebp+4]
  000ff	64 89 0d 00 00
	00 00		 mov	 DWORD PTR fs:0, ecx
  00106	59		 pop	 ecx
  00107	5f		 pop	 edi
  00108	5e		 pop	 esi
  00109	5b		 pop	 ebx
  0010a	8b e5		 mov	 esp, ebp
  0010c	5d		 pop	 ebp
  0010d	c2 0c 00	 ret	 12			; 0000000cH
__catch$??$_Copy_nodes@U_Copy_tag@?$_Tree@V?$_Tmap_traits@MUCDynamicSphereInstance@@U?$less@M@std@@V?$allocator@U?$pair@$$CBMUCDynamicSphereInstance@@@std@@@3@$0A@@std@@@std@@@?$_Tree@V?$_Tmap_traits@MUCDynamicSphereInstance@@U?$less@M@std@@V?$allocator@U?$pair@$$CBMUCDynamicSphereInstance@@@std@@@3@$0A@@std@@@std@@IAEPAU?$_Tree_node@U?$pair@$$CBMUCDynamicSphereInstance@@@std@@PAX@1@PAU21@0U_Copy_tag@01@@Z$0:

; 1772 :             _CATCH_ALL
; 1773 :             _Scary->_Erase_tree_and_orphan(_Getal(), _Newroot); // subtree copy failed, bail out

  00110	ff 75 08	 push	 DWORD PTR __Newroot$[ebp]
  00113	8b 4d d8	 mov	 ecx, DWORD PTR _this$[ebp]
  00116	e8 00 00 00 00	 call	 ?_Getal@?$_Tree@V?$_Tmap_traits@MUCDynamicSphereInstance@@U?$less@M@std@@V?$allocator@U?$pair@$$CBMUCDynamicSphereInstance@@@std@@@3@$0A@@std@@@std@@IAEAAV?$allocator@U?$_Tree_node@U?$pair@$$CBMUCDynamicSphereInstance@@@std@@PAX@std@@@2@XZ ; std::_Tree<std::_Tmap_traits<float,CDynamicSphereInstance,std::less<float>,std::allocator<std::pair<float const ,CDynamicSphereInstance> >,0> >::_Getal
  0011b	8b 4d d8	 mov	 ecx, DWORD PTR _this$[ebp]
  0011e	50		 push	 eax
  0011f	e8 00 00 00 00	 call	 ??$_Erase_tree_and_orphan@V?$allocator@U?$_Tree_node@U?$pair@$$CBMUCDynamicSphereInstance@@@std@@PAX@std@@@std@@@?$_Tree_val@U?$_Tree_simple_types@U?$pair@$$CBMUCDynamicSphereInstance@@@std@@@std@@@std@@QAEXAAV?$allocator@U?$_Tree_node@U?$pair@$$CBMUCDynamicSphereInstance@@@std@@PAX@std@@@1@PAU?$_Tree_node@U?$pair@$$CBMUCDynamicSphereInstance@@@std@@PAX@1@@Z ; std::_Tree_val<std::_Tree_simple_types<std::pair<float const ,CDynamicSphereInstance> > >::_Erase_tree_and_orphan<std::allocator<std::_Tree_node<std::pair<float const ,CDynamicSphereInstance>,void *> > >

; 1774 :             _RERAISE;

  00124	6a 00		 push	 0
  00126	6a 00		 push	 0
  00128	e8 00 00 00 00	 call	 __CxxThrowException@8
$LN44@Copy_nodes:
  0012d	cc		 int	 3
_TEXT	ENDS
;	COMDAT text$x
text$x	SEGMENT
__unwindfunclet$??$_Copy_nodes@U_Copy_tag@?$_Tree@V?$_Tmap_traits@MUCDynamicSphereInstance@@U?$less@M@std@@V?$allocator@U?$pair@$$CBMUCDynamicSphereInstance@@@std@@@3@$0A@@std@@@std@@@?$_Tree@V?$_Tmap_traits@MUCDynamicSphereInstance@@U?$less@M@std@@V?$allocator@U?$pair@$$CBMUCDynamicSphereInstance@@@std@@@3@$0A@@std@@@std@@IAEPAU?$_Tree_node@U?$pair@$$CBMUCDynamicSphereInstance@@@std@@PAX@1@PAU21@0U_Copy_tag@01@@Z$2:
  00000	8d 4d dc	 lea	 ecx, DWORD PTR __Newnode$2[ebp]
  00003	e9 00 00 00 00	 jmp	 ??1?$_Alloc_construct_ptr@V?$allocator@U?$_Tree_node@U?$pair@$$CBMUCDynamicSphereInstance@@@std@@PAX@std@@@std@@@std@@QAE@XZ ; std::_Alloc_construct_ptr<std::allocator<std::_Tree_node<std::pair<float const ,CDynamicSphereInstance>,void *> > >::~_Alloc_construct_ptr<std::allocator<std::_Tree_node<std::pair<float const ,CDynamicSphereInstance>,void *> > >
  00008	cc		 int	 3
  00009	cc		 int	 3
  0000a	cc		 int	 3
  0000b	cc		 int	 3
  0000c	cc		 int	 3
__ehhandler$??$_Copy_nodes@U_Copy_tag@?$_Tree@V?$_Tmap_traits@MUCDynamicSphereInstance@@U?$less@M@std@@V?$allocator@U?$pair@$$CBMUCDynamicSphereInstance@@@std@@@3@$0A@@std@@@std@@@?$_Tree@V?$_Tmap_traits@MUCDynamicSphereInstance@@U?$less@M@std@@V?$allocator@U?$pair@$$CBMUCDynamicSphereInstance@@@std@@@3@$0A@@std@@@std@@IAEPAU?$_Tree_node@U?$pair@$$CBMUCDynamicSphereInstance@@@std@@PAX@1@PAU21@0U_Copy_tag@01@@Z:
  0000d	90		 npad	 1
  0000e	90		 npad	 1
  0000f	8b 54 24 08	 mov	 edx, DWORD PTR [esp+8]
  00013	8d 42 0c	 lea	 eax, DWORD PTR [edx+12]
  00016	8b 4a d4	 mov	 ecx, DWORD PTR [edx-44]
  00019	33 c8		 xor	 ecx, eax
  0001b	e8 00 00 00 00	 call	 @__security_check_cookie@4
  00020	b8 00 00 00 00	 mov	 eax, OFFSET __ehfuncinfo$??$_Copy_nodes@U_Copy_tag@?$_Tree@V?$_Tmap_traits@MUCDynamicSphereInstance@@U?$less@M@std@@V?$allocator@U?$pair@$$CBMUCDynamicSphereInstance@@@std@@@3@$0A@@std@@@std@@@?$_Tree@V?$_Tmap_traits@MUCDynamicSphereInstance@@U?$less@M@std@@V?$allocator@U?$pair@$$CBMUCDynamicSphereInstance@@@std@@@3@$0A@@std@@@std@@IAEPAU?$_Tree_node@U?$pair@$$CBMUCDynamicSphereInstance@@@std@@PAX@1@PAU21@0U_Copy_tag@01@@Z
  00025	e9 00 00 00 00	 jmp	 ___CxxFrameHandler3
text$x	ENDS
??$_Copy_nodes@U_Copy_tag@?$_Tree@V?$_Tmap_traits@MUCDynamicSphereInstance@@U?$less@M@std@@V?$allocator@U?$pair@$$CBMUCDynamicSphereInstance@@@std@@@3@$0A@@std@@@std@@@?$_Tree@V?$_Tmap_traits@MUCDynamicSphereInstance@@U?$less@M@std@@V?$allocator@U?$pair@$$CBMUCDynamicSphereInstance@@@std@@@3@$0A@@std@@@std@@IAEPAU?$_Tree_node@U?$pair@$$CBMUCDynamicSphereInstance@@@std@@PAX@1@PAU21@0U_Copy_tag@01@@Z ENDP ; std::_Tree<std::_Tmap_traits<float,CDynamicSphereInstance,std::less<float>,std::allocator<std::pair<float const ,CDynamicSphereInstance> >,0> >::_Copy_nodes<std::_Tree<std::_Tmap_traits<float,CDynamicSphereInstance,std::less<float>,std::allocator<std::pair<float const ,CDynamicSphereInstance> >,0> >::_Copy_tag>
; Function compile flags: /Ogtp
; File C:\Program Files (x86)\Microsoft Visual Studio\2019\Community\VC\Tools\MSVC\14.27.29110\include\xtree
;	COMDAT ??1?$_Tree_head_scoped_ptr@V?$allocator@U?$_Tree_node@U?$pair@$$CBMUCDynamicSphereInstance@@@std@@PAX@std@@@std@@V?$_Tree_val@U?$_Tree_simple_types@U?$pair@$$CBMUCDynamicSphereInstance@@@std@@@std@@@2@@std@@QAE@XZ
_TEXT	SEGMENT
??1?$_Tree_head_scoped_ptr@V?$allocator@U?$_Tree_node@U?$pair@$$CBMUCDynamicSphereInstance@@@std@@PAX@std@@@std@@V?$_Tree_val@U?$_Tree_simple_types@U?$pair@$$CBMUCDynamicSphereInstance@@@std@@@std@@@2@@std@@QAE@XZ PROC ; std::_Tree_head_scoped_ptr<std::allocator<std::_Tree_node<std::pair<float const ,CDynamicSphereInstance>,void *> >,std::_Tree_val<std::_Tree_simple_types<std::pair<float const ,CDynamicSphereInstance> > > >::~_Tree_head_scoped_ptr<std::allocator<std::_Tree_node<std::pair<float const ,CDynamicSphereInstance>,void *> >,std::_Tree_val<std::_Tree_simple_types<std::pair<float const ,CDynamicSphereInstance> > > >, COMDAT
; _this$ = ecx

; 775  :         if (_Mycont) {

  00000	8b 41 04	 mov	 eax, DWORD PTR [ecx+4]
  00003	85 c0		 test	 eax, eax
  00005	74 09		 je	 SHORT $LN2@Tree_head_

; 776  :             _Mycont->_Erase_head(_Al);

  00007	ff 31		 push	 DWORD PTR [ecx]
  00009	8b c8		 mov	 ecx, eax
  0000b	e8 00 00 00 00	 call	 ??$_Erase_head@V?$allocator@U?$_Tree_node@U?$pair@$$CBMUCDynamicSphereInstance@@@std@@PAX@std@@@std@@@?$_Tree_val@U?$_Tree_simple_types@U?$pair@$$CBMUCDynamicSphereInstance@@@std@@@std@@@std@@QAEXAAV?$allocator@U?$_Tree_node@U?$pair@$$CBMUCDynamicSphereInstance@@@std@@PAX@std@@@1@@Z ; std::_Tree_val<std::_Tree_simple_types<std::pair<float const ,CDynamicSphereInstance> > >::_Erase_head<std::allocator<std::_Tree_node<std::pair<float const ,CDynamicSphereInstance>,void *> > >
$LN2@Tree_head_:

; 777  :         }
; 778  :     }

  00010	c3		 ret	 0
??1?$_Tree_head_scoped_ptr@V?$allocator@U?$_Tree_node@U?$pair@$$CBMUCDynamicSphereInstance@@@std@@PAX@std@@@std@@V?$_Tree_val@U?$_Tree_simple_types@U?$pair@$$CBMUCDynamicSphereInstance@@@std@@@std@@@2@@std@@QAE@XZ ENDP ; std::_Tree_head_scoped_ptr<std::allocator<std::_Tree_node<std::pair<float const ,CDynamicSphereInstance>,void *> >,std::_Tree_val<std::_Tree_simple_types<std::pair<float const ,CDynamicSphereInstance> > > >::~_Tree_head_scoped_ptr<std::allocator<std::_Tree_node<std::pair<float const ,CDynamicSphereInstance>,void *> >,std::_Tree_val<std::_Tree_simple_types<std::pair<float const ,CDynamicSphereInstance> > > >
_TEXT	ENDS
; Function compile flags: /Ogtp
; File C:\Program Files (x86)\Microsoft Visual Studio\2019\Community\VC\Tools\MSVC\14.27.29110\include\tuple
;	COMDAT ??$?0V?$tuple@ABM@std@@V?$tuple@$$V@1@$0A@$$Z$S@?$pair@$$CBMUCDynamicSphereInstance@@@std@@QAE@AAV?$tuple@ABM@1@AAV?$tuple@$$V@1@U?$integer_sequence@I$0A@@1@U?$integer_sequence@I$S@1@@Z
_TEXT	SEGMENT
__Val1$ = 8						; size = 4
__Val2$ = 12						; size = 4
___formal$ = 16						; size = 1
___formal$ = 20						; size = 1
??$?0V?$tuple@ABM@std@@V?$tuple@$$V@1@$0A@$$Z$S@?$pair@$$CBMUCDynamicSphereInstance@@@std@@QAE@AAV?$tuple@ABM@1@AAV?$tuple@$$V@1@U?$integer_sequence@I$0A@@1@U?$integer_sequence@I$S@1@@Z PROC ; std::pair<float const ,CDynamicSphereInstance>::pair<float const ,CDynamicSphereInstance><std::tuple<float const &>,std::tuple<>,0>, COMDAT
; _this$ = ecx

; 975  :     : first(_STD get<_Indexes1>(_STD move(_Val1))...), second(_STD get<_Indexes2>(_STD move(_Val2))...) {}

  00000	55		 push	 ebp
  00001	8b ec		 mov	 ebp, esp
  00003	8b 45 08	 mov	 eax, DWORD PTR __Val1$[ebp]
  00006	0f 57 c0	 xorps	 xmm0, xmm0
  00009	8b 00		 mov	 eax, DWORD PTR [eax]
  0000b	8b 00		 mov	 eax, DWORD PTR [eax]
  0000d	89 01		 mov	 DWORD PTR [ecx], eax
  0000f	8b c1		 mov	 eax, ecx
  00011	0f 11 41 04	 movups	 XMMWORD PTR [ecx+4], xmm0
  00015	66 0f d6 41 14	 movq	 QWORD PTR [ecx+20], xmm0
  0001a	c7 41 1c 00 00
	00 00		 mov	 DWORD PTR [ecx+28], 0
  00021	5d		 pop	 ebp
  00022	c2 10 00	 ret	 16			; 00000010H
??$?0V?$tuple@ABM@std@@V?$tuple@$$V@1@$0A@$$Z$S@?$pair@$$CBMUCDynamicSphereInstance@@@std@@QAE@AAV?$tuple@ABM@1@AAV?$tuple@$$V@1@U?$integer_sequence@I$0A@@1@U?$integer_sequence@I$S@1@@Z ENDP ; std::pair<float const ,CDynamicSphereInstance>::pair<float const ,CDynamicSphereInstance><std::tuple<float const &>,std::tuple<>,0>
_TEXT	ENDS
; Function compile flags: /Ogtp
; File C:\Program Files (x86)\Microsoft Visual Studio\2019\Community\VC\Tools\MSVC\14.27.29110\include\tuple
;	COMDAT ??$?0ABM$$Z$$V@?$pair@$$CBMUCDynamicSphereInstance@@@std@@QAE@Upiecewise_construct_t@1@V?$tuple@ABM@1@V?$tuple@$$V@1@@Z
_TEXT	SEGMENT
$T1 = -8						; size = 1
$T2 = -4						; size = 1
___formal$ = 8						; size = 1
__Val1$ = 12						; size = 4
__Val2$ = 16						; size = 1
??$?0ABM$$Z$$V@?$pair@$$CBMUCDynamicSphereInstance@@@std@@QAE@Upiecewise_construct_t@1@V?$tuple@ABM@1@V?$tuple@$$V@1@@Z PROC ; std::pair<float const ,CDynamicSphereInstance>::pair<float const ,CDynamicSphereInstance><float const &>, COMDAT
; _this$ = ecx

; 981  :     : pair(_Val1, _Val2, index_sequence_for<_Types1...>{}, index_sequence_for<_Types2...>{}) {}

  00000	55		 push	 ebp
  00001	8b ec		 mov	 ebp, esp
  00003	83 ec 08	 sub	 esp, 8
  00006	56		 push	 esi
  00007	c6 45 fc 00	 mov	 BYTE PTR $T2[ebp], 0
  0000b	8d 45 10	 lea	 eax, DWORD PTR __Val2$[ebp]
  0000e	ff 75 fc	 push	 DWORD PTR $T2[ebp]
  00011	c6 45 f8 00	 mov	 BYTE PTR $T1[ebp], 0
  00015	8b f1		 mov	 esi, ecx
  00017	ff 75 f8	 push	 DWORD PTR $T1[ebp]
  0001a	50		 push	 eax
  0001b	8d 45 0c	 lea	 eax, DWORD PTR __Val1$[ebp]
  0001e	50		 push	 eax
  0001f	e8 00 00 00 00	 call	 ??$?0V?$tuple@ABM@std@@V?$tuple@$$V@1@$0A@$$Z$S@?$pair@$$CBMUCDynamicSphereInstance@@@std@@QAE@AAV?$tuple@ABM@1@AAV?$tuple@$$V@1@U?$integer_sequence@I$0A@@1@U?$integer_sequence@I$S@1@@Z ; std::pair<float const ,CDynamicSphereInstance>::pair<float const ,CDynamicSphereInstance><std::tuple<float const &>,std::tuple<>,0>
  00024	8b c6		 mov	 eax, esi
  00026	5e		 pop	 esi
  00027	8b e5		 mov	 esp, ebp
  00029	5d		 pop	 ebp
  0002a	c2 0c 00	 ret	 12			; 0000000cH
??$?0ABM$$Z$$V@?$pair@$$CBMUCDynamicSphereInstance@@@std@@QAE@Upiecewise_construct_t@1@V?$tuple@ABM@1@V?$tuple@$$V@1@@Z ENDP ; std::pair<float const ,CDynamicSphereInstance>::pair<float const ,CDynamicSphereInstance><float const &>
_TEXT	ENDS
; Function compile flags: /Ogtp
; File C:\Program Files (x86)\Microsoft Visual Studio\2019\Community\VC\Tools\MSVC\14.27.29110\include\xmemory
;	COMDAT ??$_Uninitialized_move@PAVCSphereCollisionInstance@@V?$allocator@VCSphereCollisionInstance@@@std@@@std@@YAPAVCSphereCollisionInstance@@QAV1@0PAV1@AAV?$allocator@VCSphereCollisionInstance@@@0@@Z
_TEXT	SEGMENT
__First$ = 8						; size = 4
__Last$ = 12						; size = 4
__Dest$ = 16						; size = 4
__Al$ = 20						; size = 4
??$_Uninitialized_move@PAVCSphereCollisionInstance@@V?$allocator@VCSphereCollisionInstance@@@std@@@std@@YAPAVCSphereCollisionInstance@@QAV1@0PAV1@AAV?$allocator@VCSphereCollisionInstance@@@0@@Z PROC ; std::_Uninitialized_move<CSphereCollisionInstance *,std::allocator<CSphereCollisionInstance> >, COMDAT

; 1647 :     const _InIt _First, const _InIt _Last, _Alloc_ptr_t<_Alloc> _Dest, _Alloc& _Al) {

  00000	55		 push	 ebp
  00001	8b ec		 mov	 ebp, esp

; 1497 :     _Uninitialized_backout_al(pointer _Dest, _Alloc& _Al_) : _First(_Dest), _Last(_Dest), _Al(_Al_) {}

  00003	8b 45 10	 mov	 eax, DWORD PTR __Dest$[ebp]

; 1647 :     const _InIt _First, const _InIt _Last, _Alloc_ptr_t<_Alloc> _Dest, _Alloc& _Al) {

  00006	56		 push	 esi

; 1648 :     // move [_First, _Last) to raw _Dest, using _Al
; 1649 :     // note: only called internally from elsewhere in the STL
; 1650 :     using _Ptrval     = typename _Alloc::value_type*;
; 1651 :     auto _UFirst      = _Get_unwrapped(_First);
; 1652 :     const auto _ULast = _Get_unwrapped(_Last);
; 1653 :     if constexpr (conjunction_v<bool_constant<_Ptr_move_cat<decltype(_UFirst), _Ptrval>::_Really_trivial>,
; 1654 :                       _Uses_default_construct<_Alloc, _Ptrval, decltype(_STD move(*_UFirst))>>) {
; 1655 :         _Copy_memmove(_UFirst, _ULast, _Unfancy(_Dest));
; 1656 :         return _Dest + (_ULast - _UFirst);
; 1657 :     } else {
; 1658 :         _Uninitialized_backout_al<_Alloc> _Backout{_Dest, _Al};
; 1659 :         for (; _UFirst != _ULast; ++_UFirst) {

  00007	8b 75 08	 mov	 esi, DWORD PTR __First$[ebp]
  0000a	57		 push	 edi
  0000b	8b 7d 0c	 mov	 edi, DWORD PTR __Last$[ebp]
  0000e	3b f7		 cmp	 esi, edi
  00010	74 2a		 je	 SHORT $LN3@Uninitiali

; 1497 :     _Uninitialized_backout_al(pointer _Dest, _Alloc& _Al_) : _First(_Dest), _Last(_Dest), _Al(_Al_) {}

  00012	8d 50 04	 lea	 edx, DWORD PTR [eax+4]
  00015	2b f0		 sub	 esi, eax
  00017	66 0f 1f 84 00
	00 00 00 00	 npad	 9
$LL4@Uninitiali:
  00020	c7 00 00 00 00
	00		 mov	 DWORD PTR [eax], OFFSET ??_7CSphereCollisionInstance@@6B@

; 1509 :         ++_Last;

  00026	8d 52 14	 lea	 edx, DWORD PTR [edx+20]
  00029	0f 10 44 32 ec	 movups	 xmm0, XMMWORD PTR [edx+esi-20]
  0002e	83 c0 14	 add	 eax, 20			; 00000014H
  00031	0f 11 42 ec	 movups	 XMMWORD PTR [edx-20], xmm0

; 1648 :     // move [_First, _Last) to raw _Dest, using _Al
; 1649 :     // note: only called internally from elsewhere in the STL
; 1650 :     using _Ptrval     = typename _Alloc::value_type*;
; 1651 :     auto _UFirst      = _Get_unwrapped(_First);
; 1652 :     const auto _ULast = _Get_unwrapped(_Last);
; 1653 :     if constexpr (conjunction_v<bool_constant<_Ptr_move_cat<decltype(_UFirst), _Ptrval>::_Really_trivial>,
; 1654 :                       _Uses_default_construct<_Alloc, _Ptrval, decltype(_STD move(*_UFirst))>>) {
; 1655 :         _Copy_memmove(_UFirst, _ULast, _Unfancy(_Dest));
; 1656 :         return _Dest + (_ULast - _UFirst);
; 1657 :     } else {
; 1658 :         _Uninitialized_backout_al<_Alloc> _Backout{_Dest, _Al};
; 1659 :         for (; _UFirst != _ULast; ++_UFirst) {

  00035	8d 0c 06	 lea	 ecx, DWORD PTR [esi+eax]
  00038	3b cf		 cmp	 ecx, edi
  0003a	75 e4		 jne	 SHORT $LL4@Uninitiali
$LN3@Uninitiali:
  0003c	5f		 pop	 edi

; 1660 :             _Backout._Emplace_back(_STD move(*_UFirst));
; 1661 :         }
; 1662 : 
; 1663 :         return _Backout._Release();
; 1664 :     }
; 1665 : }

  0003d	5e		 pop	 esi
  0003e	5d		 pop	 ebp
  0003f	c3		 ret	 0
??$_Uninitialized_move@PAVCSphereCollisionInstance@@V?$allocator@VCSphereCollisionInstance@@@std@@@std@@YAPAVCSphereCollisionInstance@@QAV1@0PAV1@AAV?$allocator@VCSphereCollisionInstance@@@0@@Z ENDP ; std::_Uninitialized_move<CSphereCollisionInstance *,std::allocator<CSphereCollisionInstance> >
_TEXT	ENDS
; Function compile flags: /Ogtp
; File C:\Program Files (x86)\Microsoft Visual Studio\2019\Community\VC\Tools\MSVC\14.27.29110\include\xmemory
; File C:\Program Files (x86)\Microsoft Visual Studio\2019\Community\VC\Tools\MSVC\14.27.29110\include\xstring
; File C:\Program Files (x86)\Microsoft Visual Studio\2019\Community\VC\Tools\MSVC\14.27.29110\include\xmemory
;	COMDAT ??$_Uninitialized_move@PAUSAttachingData@NRaceData@@V?$allocator@USAttachingData@NRaceData@@@std@@@std@@YAPAUSAttachingData@NRaceData@@QAU12@0PAU12@AAV?$allocator@USAttachingData@NRaceData@@@0@@Z
_TEXT	SEGMENT
__First$ = 8						; size = 4
__Last$ = 12						; size = 4
__Dest$ = 16						; size = 4
__Al$ = 20						; size = 4
??$_Uninitialized_move@PAUSAttachingData@NRaceData@@V?$allocator@USAttachingData@NRaceData@@@std@@@std@@YAPAUSAttachingData@NRaceData@@QAU12@0PAU12@AAV?$allocator@USAttachingData@NRaceData@@@0@@Z PROC ; std::_Uninitialized_move<NRaceData::SAttachingData *,std::allocator<NRaceData::SAttachingData> >, COMDAT

; 1647 :     const _InIt _First, const _InIt _Last, _Alloc_ptr_t<_Alloc> _Dest, _Alloc& _Al) {

  00000	55		 push	 ebp
  00001	8b ec		 mov	 ebp, esp

; 1659 :         for (; _UFirst != _ULast; ++_UFirst) {

  00003	8b 45 08	 mov	 eax, DWORD PTR __First$[ebp]
  00006	56		 push	 esi

; 1497 :     _Uninitialized_backout_al(pointer _Dest, _Alloc& _Al_) : _First(_Dest), _Last(_Dest), _Al(_Al_) {}

  00007	8b 75 10	 mov	 esi, DWORD PTR __Dest$[ebp]

; 1647 :     const _InIt _First, const _InIt _Last, _Alloc_ptr_t<_Alloc> _Dest, _Alloc& _Al) {

  0000a	57		 push	 edi

; 1659 :         for (; _UFirst != _ULast; ++_UFirst) {

  0000b	8b 7d 0c	 mov	 edi, DWORD PTR __Last$[ebp]
  0000e	3b c7		 cmp	 eax, edi
  00010	74 71		 je	 SHORT $LN3@Uninitiali

; 1497 :     _Uninitialized_backout_al(pointer _Dest, _Alloc& _Al_) : _First(_Dest), _Last(_Dest), _Al(_Al_) {}

  00012	8b d6		 mov	 edx, esi
  00014	8d 48 20	 lea	 ecx, DWORD PTR [eax+32]
  00017	2b d0		 sub	 edx, eax
  00019	0f 1f 80 00 00
	00 00		 npad	 7
$LL4@Uninitiali:
  00020	8b 41 e0	 mov	 eax, DWORD PTR [ecx-32]

; 1509 :         ++_Last;

  00023	8d 49 30	 lea	 ecx, DWORD PTR [ecx+48]
  00026	89 06		 mov	 DWORD PTR [esi], eax
  00028	8b 41 b4	 mov	 eax, DWORD PTR [ecx-76]
  0002b	89 46 04	 mov	 DWORD PTR [esi+4], eax
  0002e	8b 41 b8	 mov	 eax, DWORD PTR [ecx-72]
; File C:\Program Files (x86)\Microsoft Visual Studio\2019\Community\VC\Tools\MSVC\14.27.29110\include\xstring

; 2124 :     _String_val() : _Bx(), _Mysize(0), _Myres(0) {}

  00031	c7 46 1c 00 00
	00 00		 mov	 DWORD PTR [esi+28], 0
  00038	c7 44 0a d0 00
	00 00 00	 mov	 DWORD PTR [edx+ecx-48], 0
  00040	89 46 08	 mov	 DWORD PTR [esi+8], eax

; 2606 :         _CSTD memcpy(_My_data_mem, _Right_data_mem, _Memcpy_val_size);

  00043	0f 10 41 bc	 movups	 xmm0, XMMWORD PTR [ecx-68]
  00047	0f 11 46 0c	 movups	 XMMWORD PTR [esi+12], xmm0
  0004b	f3 0f 7e 41 cc	 movq	 xmm0, QWORD PTR [ecx-52]
  00050	66 0f d6 46 1c	 movq	 QWORD PTR [esi+28], xmm0

; 4293 :         _Mypair._Myval2._Mysize = 0;

  00055	c7 41 cc 00 00
	00 00		 mov	 DWORD PTR [ecx-52], 0

; 4294 :         _Mypair._Myval2._Myres  = _BUF_SIZE - 1;

  0005c	c7 41 d0 0f 00
	00 00		 mov	 DWORD PTR [ecx-48], 15	; 0000000fH

; 4295 :         // the _Traits::assign is last so the codegen doesn't think the char write can alias this
; 4296 :         _Traits::assign(_Mypair._Myval2._Bx._Buf[0], _Elem());

  00063	c6 41 bc 00	 mov	 BYTE PTR [ecx-68], 0
  00067	8b 41 d4	 mov	 eax, DWORD PTR [ecx-44]
  0006a	89 46 24	 mov	 DWORD PTR [esi+36], eax
  0006d	8b 41 d8	 mov	 eax, DWORD PTR [ecx-40]
  00070	89 46 28	 mov	 DWORD PTR [esi+40], eax
  00073	8b 41 dc	 mov	 eax, DWORD PTR [ecx-36]
  00076	89 46 2c	 mov	 DWORD PTR [esi+44], eax
; File C:\Program Files (x86)\Microsoft Visual Studio\2019\Community\VC\Tools\MSVC\14.27.29110\include\xmemory

; 1659 :         for (; _UFirst != _ULast; ++_UFirst) {

  00079	8d 41 e0	 lea	 eax, DWORD PTR [ecx-32]

; 1509 :         ++_Last;

  0007c	83 c6 30	 add	 esi, 48			; 00000030H

; 1659 :         for (; _UFirst != _ULast; ++_UFirst) {

  0007f	3b c7		 cmp	 eax, edi
  00081	75 9d		 jne	 SHORT $LL4@Uninitiali
$LN3@Uninitiali:

; 1503 :         _Destroy_range(_First, _Last, _Al);

  00083	ff 75 14	 push	 DWORD PTR __Al$[ebp]
  00086	56		 push	 esi
  00087	56		 push	 esi
  00088	e8 00 00 00 00	 call	 ??$_Destroy_range@V?$allocator@USAttachingData@NRaceData@@@std@@@std@@YAXPAUSAttachingData@NRaceData@@QAU12@AAV?$allocator@USAttachingData@NRaceData@@@0@@Z ; std::_Destroy_range<std::allocator<NRaceData::SAttachingData> >
  0008d	83 c4 0c	 add	 esp, 12			; 0000000cH

; 1660 :             _Backout._Emplace_back(_STD move(*_UFirst));
; 1661 :         }
; 1662 : 
; 1663 :         return _Backout._Release();

  00090	8b c6		 mov	 eax, esi
  00092	5f		 pop	 edi
  00093	5e		 pop	 esi

; 1664 :     }
; 1665 : }

  00094	5d		 pop	 ebp
  00095	c3		 ret	 0
??$_Uninitialized_move@PAUSAttachingData@NRaceData@@V?$allocator@USAttachingData@NRaceData@@@std@@@std@@YAPAUSAttachingData@NRaceData@@QAU12@0PAU12@AAV?$allocator@USAttachingData@NRaceData@@@0@@Z ENDP ; std::_Uninitialized_move<NRaceData::SAttachingData *,std::allocator<NRaceData::SAttachingData> >
_TEXT	ENDS
; Function compile flags: /Ogtp
; File C:\Program Files (x86)\Microsoft Visual Studio\2019\Community\VC\Tools\MSVC\14.27.29110\include\xmemory
;	COMDAT ??1?$_Uninitialized_backout_al@V?$allocator@USHitData@NRaceData@@@std@@@std@@QAE@XZ
_TEXT	SEGMENT
??1?$_Uninitialized_backout_al@V?$allocator@USHitData@NRaceData@@@std@@@std@@QAE@XZ PROC ; std::_Uninitialized_backout_al<std::allocator<NRaceData::SHitData> >::~_Uninitialized_backout_al<std::allocator<NRaceData::SHitData> >, COMDAT
; _this$ = ecx

; 1503 :         _Destroy_range(_First, _Last, _Al);

  00000	ff 71 08	 push	 DWORD PTR [ecx+8]
  00003	ff 71 04	 push	 DWORD PTR [ecx+4]
  00006	ff 31		 push	 DWORD PTR [ecx]
  00008	e8 00 00 00 00	 call	 ??$_Destroy_range@V?$allocator@USHitData@NRaceData@@@std@@@std@@YAXPAUSHitData@NRaceData@@QAU12@AAV?$allocator@USHitData@NRaceData@@@0@@Z ; std::_Destroy_range<std::allocator<NRaceData::SHitData> >
  0000d	83 c4 0c	 add	 esp, 12			; 0000000cH

; 1504 :     }

  00010	c3		 ret	 0
??1?$_Uninitialized_backout_al@V?$allocator@USHitData@NRaceData@@@std@@@std@@QAE@XZ ENDP ; std::_Uninitialized_backout_al<std::allocator<NRaceData::SHitData> >::~_Uninitialized_backout_al<std::allocator<NRaceData::SHitData> >
_TEXT	ENDS
; Function compile flags: /Ogtp
; File C:\Program Files (x86)\Microsoft Visual Studio\2019\Community\VC\Tools\MSVC\14.27.29110\include\xutility
;	COMDAT ??$_Copy_memmove@PAPAUSCollisionData@NRaceData@@PAPAU12@@std@@YAPAPAUSCollisionData@NRaceData@@PAPAU12@00@Z
_TEXT	SEGMENT
__First$ = 8						; size = 4
__Last$ = 12						; size = 4
__Dest$ = 16						; size = 4
??$_Copy_memmove@PAPAUSCollisionData@NRaceData@@PAPAU12@@std@@YAPAPAUSCollisionData@NRaceData@@PAPAU12@00@Z PROC ; std::_Copy_memmove<NRaceData::SCollisionData * *,NRaceData::SCollisionData * *>, COMDAT

; 4113 : _OutIt _Copy_memmove(_InIt _First, _InIt _Last, _OutIt _Dest) {

  00000	55		 push	 ebp
  00001	8b ec		 mov	 ebp, esp

; 4114 :     const char* const _First_ch = const_cast<const char*>(reinterpret_cast<const volatile char*>(_First));
; 4115 :     const char* const _Last_ch  = const_cast<const char*>(reinterpret_cast<const volatile char*>(_Last));
; 4116 :     char* const _Dest_ch        = const_cast<char*>(reinterpret_cast<volatile char*>(_Dest));
; 4117 :     const auto _Count           = static_cast<size_t>(_Last_ch - _First_ch);

  00003	8b 45 08	 mov	 eax, DWORD PTR __First$[ebp]
  00006	56		 push	 esi

; 4118 :     _CSTD memmove(_Dest_ch, _First_ch, _Count);

  00007	8b 75 10	 mov	 esi, DWORD PTR __Dest$[ebp]
  0000a	57		 push	 edi
  0000b	8b 7d 0c	 mov	 edi, DWORD PTR __Last$[ebp]
  0000e	2b f8		 sub	 edi, eax
  00010	57		 push	 edi
  00011	50		 push	 eax
  00012	56		 push	 esi
  00013	e8 00 00 00 00	 call	 _memmove
  00018	83 c4 0c	 add	 esp, 12			; 0000000cH

; 4119 :     return reinterpret_cast<_OutIt>(_Dest_ch + _Count);

  0001b	8d 04 37	 lea	 eax, DWORD PTR [edi+esi]
  0001e	5f		 pop	 edi
  0001f	5e		 pop	 esi

; 4120 : }

  00020	5d		 pop	 ebp
  00021	c3		 ret	 0
??$_Copy_memmove@PAPAUSCollisionData@NRaceData@@PAPAU12@@std@@YAPAPAUSCollisionData@NRaceData@@PAPAU12@00@Z ENDP ; std::_Copy_memmove<NRaceData::SCollisionData * *,NRaceData::SCollisionData * *>
_TEXT	ENDS
; Function compile flags: /Ogtp
; File C:\Program Files (x86)\Microsoft Visual Studio\2019\Community\VC\Tools\MSVC\14.27.29110\include\xutility
;	COMDAT ??$_Copy_memmove@PAPAUSAttachingEffectData@NRaceData@@PAPAU12@@std@@YAPAPAUSAttachingEffectData@NRaceData@@PAPAU12@00@Z
_TEXT	SEGMENT
__First$ = 8						; size = 4
__Last$ = 12						; size = 4
__Dest$ = 16						; size = 4
??$_Copy_memmove@PAPAUSAttachingEffectData@NRaceData@@PAPAU12@@std@@YAPAPAUSAttachingEffectData@NRaceData@@PAPAU12@00@Z PROC ; std::_Copy_memmove<NRaceData::SAttachingEffectData * *,NRaceData::SAttachingEffectData * *>, COMDAT

; 4113 : _OutIt _Copy_memmove(_InIt _First, _InIt _Last, _OutIt _Dest) {

  00000	55		 push	 ebp
  00001	8b ec		 mov	 ebp, esp

; 4114 :     const char* const _First_ch = const_cast<const char*>(reinterpret_cast<const volatile char*>(_First));
; 4115 :     const char* const _Last_ch  = const_cast<const char*>(reinterpret_cast<const volatile char*>(_Last));
; 4116 :     char* const _Dest_ch        = const_cast<char*>(reinterpret_cast<volatile char*>(_Dest));
; 4117 :     const auto _Count           = static_cast<size_t>(_Last_ch - _First_ch);

  00003	8b 45 08	 mov	 eax, DWORD PTR __First$[ebp]
  00006	56		 push	 esi

; 4118 :     _CSTD memmove(_Dest_ch, _First_ch, _Count);

  00007	8b 75 10	 mov	 esi, DWORD PTR __Dest$[ebp]
  0000a	57		 push	 edi
  0000b	8b 7d 0c	 mov	 edi, DWORD PTR __Last$[ebp]
  0000e	2b f8		 sub	 edi, eax
  00010	57		 push	 edi
  00011	50		 push	 eax
  00012	56		 push	 esi
  00013	e8 00 00 00 00	 call	 _memmove
  00018	83 c4 0c	 add	 esp, 12			; 0000000cH

; 4119 :     return reinterpret_cast<_OutIt>(_Dest_ch + _Count);

  0001b	8d 04 37	 lea	 eax, DWORD PTR [edi+esi]
  0001e	5f		 pop	 edi
  0001f	5e		 pop	 esi

; 4120 : }

  00020	5d		 pop	 ebp
  00021	c3		 ret	 0
??$_Copy_memmove@PAPAUSAttachingEffectData@NRaceData@@PAPAU12@@std@@YAPAPAUSAttachingEffectData@NRaceData@@PAPAU12@00@Z ENDP ; std::_Copy_memmove<NRaceData::SAttachingEffectData * *,NRaceData::SAttachingEffectData * *>
_TEXT	ENDS
; Function compile flags: /Ogtp
; File C:\Program Files (x86)\Microsoft Visual Studio\2019\Community\VC\Tools\MSVC\14.27.29110\include\xutility
;	COMDAT ??$_Copy_memmove@PAPAUSAttachingObjectData@NRaceData@@PAPAU12@@std@@YAPAPAUSAttachingObjectData@NRaceData@@PAPAU12@00@Z
_TEXT	SEGMENT
__First$ = 8						; size = 4
__Last$ = 12						; size = 4
__Dest$ = 16						; size = 4
??$_Copy_memmove@PAPAUSAttachingObjectData@NRaceData@@PAPAU12@@std@@YAPAPAUSAttachingObjectData@NRaceData@@PAPAU12@00@Z PROC ; std::_Copy_memmove<NRaceData::SAttachingObjectData * *,NRaceData::SAttachingObjectData * *>, COMDAT

; 4113 : _OutIt _Copy_memmove(_InIt _First, _InIt _Last, _OutIt _Dest) {

  00000	55		 push	 ebp
  00001	8b ec		 mov	 ebp, esp

; 4114 :     const char* const _First_ch = const_cast<const char*>(reinterpret_cast<const volatile char*>(_First));
; 4115 :     const char* const _Last_ch  = const_cast<const char*>(reinterpret_cast<const volatile char*>(_Last));
; 4116 :     char* const _Dest_ch        = const_cast<char*>(reinterpret_cast<volatile char*>(_Dest));
; 4117 :     const auto _Count           = static_cast<size_t>(_Last_ch - _First_ch);

  00003	8b 45 08	 mov	 eax, DWORD PTR __First$[ebp]
  00006	56		 push	 esi

; 4118 :     _CSTD memmove(_Dest_ch, _First_ch, _Count);

  00007	8b 75 10	 mov	 esi, DWORD PTR __Dest$[ebp]
  0000a	57		 push	 edi
  0000b	8b 7d 0c	 mov	 edi, DWORD PTR __Last$[ebp]
  0000e	2b f8		 sub	 edi, eax
  00010	57		 push	 edi
  00011	50		 push	 eax
  00012	56		 push	 esi
  00013	e8 00 00 00 00	 call	 _memmove
  00018	83 c4 0c	 add	 esp, 12			; 0000000cH

; 4119 :     return reinterpret_cast<_OutIt>(_Dest_ch + _Count);

  0001b	8d 04 37	 lea	 eax, DWORD PTR [edi+esi]
  0001e	5f		 pop	 edi
  0001f	5e		 pop	 esi

; 4120 : }

  00020	5d		 pop	 ebp
  00021	c3		 ret	 0
??$_Copy_memmove@PAPAUSAttachingObjectData@NRaceData@@PAPAU12@@std@@YAPAPAUSAttachingObjectData@NRaceData@@PAPAU12@00@Z ENDP ; std::_Copy_memmove<NRaceData::SAttachingObjectData * *,NRaceData::SAttachingObjectData * *>
_TEXT	ENDS
; Function compile flags: /Ogtp
; File C:\Program Files (x86)\Microsoft Visual Studio\2019\Community\VC\Tools\MSVC\14.27.29110\include\xmemory
;	COMDAT ??$_Construct_in_place@PAU?$_Tree_node@U?$pair@$$CBMUCDynamicSphereInstance@@@std@@PAX@std@@AAPAU12@@std@@YAXAAPAU?$_Tree_node@U?$pair@$$CBMUCDynamicSphereInstance@@@std@@PAX@0@0@Z
_TEXT	SEGMENT
__Obj$ = 8						; size = 4
_<_Args_0>$ = 12					; size = 4
??$_Construct_in_place@PAU?$_Tree_node@U?$pair@$$CBMUCDynamicSphereInstance@@@std@@PAX@std@@AAPAU12@@std@@YAXAAPAU?$_Tree_node@U?$pair@$$CBMUCDynamicSphereInstance@@@std@@PAX@0@0@Z PROC ; std::_Construct_in_place<std::_Tree_node<std::pair<float const ,CDynamicSphereInstance>,void *> *,std::_Tree_node<std::pair<float const ,CDynamicSphereInstance>,void *> * &>, COMDAT

; 228  : void _Construct_in_place(_Ty& _Obj, _Types&&... _Args) noexcept(is_nothrow_constructible_v<_Ty, _Types...>) {

  00000	55		 push	 ebp
  00001	8b ec		 mov	 ebp, esp

; 229  :     ::new (const_cast<void*>(static_cast<const volatile void*>(_STD addressof(_Obj))))

  00003	8b 45 0c	 mov	 eax, DWORD PTR _<_Args_0>$[ebp]
  00006	8b 08		 mov	 ecx, DWORD PTR [eax]
  00008	8b 45 08	 mov	 eax, DWORD PTR __Obj$[ebp]
  0000b	89 08		 mov	 DWORD PTR [eax], ecx

; 230  :         _Ty(_STD forward<_Types>(_Args)...);
; 231  : }

  0000d	5d		 pop	 ebp
  0000e	c3		 ret	 0
??$_Construct_in_place@PAU?$_Tree_node@U?$pair@$$CBMUCDynamicSphereInstance@@@std@@PAX@std@@AAPAU12@@std@@YAXAAPAU?$_Tree_node@U?$pair@$$CBMUCDynamicSphereInstance@@@std@@PAX@0@0@Z ENDP ; std::_Construct_in_place<std::_Tree_node<std::pair<float const ,CDynamicSphereInstance>,void *> *,std::_Tree_node<std::pair<float const ,CDynamicSphereInstance>,void *> * &>
_TEXT	ENDS
; Function compile flags: /Ogtp
; File C:\Program Files (x86)\Microsoft Visual Studio\2019\Community\VC\Tools\MSVC\14.27.29110\include\xmemory
;	COMDAT ??$_Uninitialized_copy@PAUSHitData@NRaceData@@V?$allocator@USHitData@NRaceData@@@std@@@std@@YAPAUSHitData@NRaceData@@QAU12@0PAU12@AAV?$allocator@USHitData@NRaceData@@@0@@Z
_TEXT	SEGMENT
__Backout$2 = -24					; size = 12
__$EHRec$ = -12						; size = 12
__First$ = 8						; size = 4
__Last$ = 12						; size = 4
__Dest$ = 16						; size = 4
__Al$ = 20						; size = 4
??$_Uninitialized_copy@PAUSHitData@NRaceData@@V?$allocator@USHitData@NRaceData@@@std@@@std@@YAPAUSHitData@NRaceData@@QAU12@0PAU12@AAV?$allocator@USHitData@NRaceData@@@0@@Z PROC ; std::_Uninitialized_copy<NRaceData::SHitData *,std::allocator<NRaceData::SHitData> >, COMDAT

; 1527 :     const _InIt _First, const _InIt _Last, _Alloc_ptr_t<_Alloc> _Dest, _Alloc& _Al) {

  00000	55		 push	 ebp
  00001	8b ec		 mov	 ebp, esp
  00003	6a ff		 push	 -1
  00005	68 00 00 00 00	 push	 __ehhandler$??$_Uninitialized_copy@PAUSHitData@NRaceData@@V?$allocator@USHitData@NRaceData@@@std@@@std@@YAPAUSHitData@NRaceData@@QAU12@0PAU12@AAV?$allocator@USHitData@NRaceData@@@0@@Z
  0000a	64 a1 00 00 00
	00		 mov	 eax, DWORD PTR fs:0
  00010	50		 push	 eax
  00011	83 ec 0c	 sub	 esp, 12			; 0000000cH
  00014	53		 push	 ebx
  00015	56		 push	 esi
  00016	57		 push	 edi
  00017	a1 00 00 00 00	 mov	 eax, DWORD PTR ___security_cookie
  0001c	33 c5		 xor	 eax, ebp
  0001e	50		 push	 eax
  0001f	8d 45 f4	 lea	 eax, DWORD PTR __$EHRec$[ebp]
  00022	64 a3 00 00 00
	00		 mov	 DWORD PTR fs:0, eax

; 1497 :     _Uninitialized_backout_al(pointer _Dest, _Alloc& _Al_) : _First(_Dest), _Last(_Dest), _Al(_Al_) {}

  00028	8b 7d 10	 mov	 edi, DWORD PTR __Dest$[ebp]
  0002b	8b 45 14	 mov	 eax, DWORD PTR __Al$[ebp]

; 1528 :     // copy [_First, _Last) to raw _Dest, using _Al
; 1529 :     // note: only called internally from elsewhere in the STL
; 1530 :     using _Ptrval = typename _Alloc::value_type*;
; 1531 : 
; 1532 :     auto _UFirst      = _Get_unwrapped(_First);

  0002e	8b 75 08	 mov	 esi, DWORD PTR __First$[ebp]

; 1497 :     _Uninitialized_backout_al(pointer _Dest, _Alloc& _Al_) : _First(_Dest), _Last(_Dest), _Al(_Al_) {}

  00031	89 7d e8	 mov	 DWORD PTR __Backout$2[ebp], edi
  00034	89 7d ec	 mov	 DWORD PTR __Backout$2[ebp+4], edi
  00037	89 45 f0	 mov	 DWORD PTR __Backout$2[ebp+8], eax

; 1533 :     const auto _ULast = _Get_unwrapped(_Last);
; 1534 : 
; 1535 :     if constexpr (conjunction_v<bool_constant<_Ptr_copy_cat<decltype(_UFirst), _Ptrval>::_Really_trivial>,
; 1536 :                       _Uses_default_construct<_Alloc, _Ptrval, decltype(*_UFirst)>>) {
; 1537 :         _Copy_memmove(_UFirst, _ULast, _Unfancy(_Dest));
; 1538 :         _Dest += _ULast - _UFirst;
; 1539 :     } else {
; 1540 :         _Uninitialized_backout_al<_Alloc> _Backout{_Dest, _Al};
; 1541 :         for (; _UFirst != _ULast; ++_UFirst) {

  0003a	8b 5d 0c	 mov	 ebx, DWORD PTR __Last$[ebp]
  0003d	c7 45 fc 00 00
	00 00		 mov	 DWORD PTR __$EHRec$[ebp+8], 0
  00044	3b f3		 cmp	 esi, ebx
  00046	74 18		 je	 SHORT $LN3@Uninitiali
$LL4@Uninitiali:

; 694  :         ::new (const_cast<void*>(static_cast<const volatile void*>(_Ptr))) _Objty(_STD forward<_Types>(_Args)...);

  00048	56		 push	 esi
  00049	8b cf		 mov	 ecx, edi
  0004b	e8 00 00 00 00	 call	 ??0SHitData@NRaceData@@QAE@ABU01@@Z

; 1509 :         ++_Last;

  00050	83 c7 2c	 add	 edi, 44			; 0000002cH

; 1533 :     const auto _ULast = _Get_unwrapped(_Last);
; 1534 : 
; 1535 :     if constexpr (conjunction_v<bool_constant<_Ptr_copy_cat<decltype(_UFirst), _Ptrval>::_Really_trivial>,
; 1536 :                       _Uses_default_construct<_Alloc, _Ptrval, decltype(*_UFirst)>>) {
; 1537 :         _Copy_memmove(_UFirst, _ULast, _Unfancy(_Dest));
; 1538 :         _Dest += _ULast - _UFirst;
; 1539 :     } else {
; 1540 :         _Uninitialized_backout_al<_Alloc> _Backout{_Dest, _Al};
; 1541 :         for (; _UFirst != _ULast; ++_UFirst) {

  00053	83 c6 2c	 add	 esi, 44			; 0000002cH

; 1509 :         ++_Last;

  00056	89 7d ec	 mov	 DWORD PTR __Backout$2[ebp+4], edi

; 1533 :     const auto _ULast = _Get_unwrapped(_Last);
; 1534 : 
; 1535 :     if constexpr (conjunction_v<bool_constant<_Ptr_copy_cat<decltype(_UFirst), _Ptrval>::_Really_trivial>,
; 1536 :                       _Uses_default_construct<_Alloc, _Ptrval, decltype(*_UFirst)>>) {
; 1537 :         _Copy_memmove(_UFirst, _ULast, _Unfancy(_Dest));
; 1538 :         _Dest += _ULast - _UFirst;
; 1539 :     } else {
; 1540 :         _Uninitialized_backout_al<_Alloc> _Backout{_Dest, _Al};
; 1541 :         for (; _UFirst != _ULast; ++_UFirst) {

  00059	3b f3		 cmp	 esi, ebx
  0005b	75 eb		 jne	 SHORT $LL4@Uninitiali
  0005d	8b 45 14	 mov	 eax, DWORD PTR __Al$[ebp]
$LN3@Uninitiali:

; 1503 :         _Destroy_range(_First, _Last, _Al);

  00060	50		 push	 eax
  00061	57		 push	 edi
  00062	57		 push	 edi
  00063	e8 00 00 00 00	 call	 ??$_Destroy_range@V?$allocator@USHitData@NRaceData@@@std@@@std@@YAXPAUSHitData@NRaceData@@QAU12@AAV?$allocator@USHitData@NRaceData@@@0@@Z ; std::_Destroy_range<std::allocator<NRaceData::SHitData> >
  00068	83 c4 0c	 add	 esp, 12			; 0000000cH

; 1542 :             _Backout._Emplace_back(*_UFirst);
; 1543 :         }
; 1544 : 
; 1545 :         _Dest = _Backout._Release();
; 1546 :     }
; 1547 : 
; 1548 :     return _Dest;

  0006b	8b c7		 mov	 eax, edi

; 1549 : }

  0006d	8b 4d f4	 mov	 ecx, DWORD PTR __$EHRec$[ebp]
  00070	64 89 0d 00 00
	00 00		 mov	 DWORD PTR fs:0, ecx
  00077	59		 pop	 ecx
  00078	5f		 pop	 edi
  00079	5e		 pop	 esi
  0007a	5b		 pop	 ebx
  0007b	8b e5		 mov	 esp, ebp
  0007d	5d		 pop	 ebp
  0007e	c3		 ret	 0
_TEXT	ENDS
;	COMDAT text$x
text$x	SEGMENT
__unwindfunclet$??$_Uninitialized_copy@PAUSHitData@NRaceData@@V?$allocator@USHitData@NRaceData@@@std@@@std@@YAPAUSHitData@NRaceData@@QAU12@0PAU12@AAV?$allocator@USHitData@NRaceData@@@0@@Z$0:
  00000	8d 4d e8	 lea	 ecx, DWORD PTR __Backout$2[ebp]
  00003	e9 00 00 00 00	 jmp	 ??1?$_Uninitialized_backout_al@V?$allocator@USHitData@NRaceData@@@std@@@std@@QAE@XZ ; std::_Uninitialized_backout_al<std::allocator<NRaceData::SHitData> >::~_Uninitialized_backout_al<std::allocator<NRaceData::SHitData> >
  00008	cc		 int	 3
  00009	cc		 int	 3
  0000a	cc		 int	 3
  0000b	cc		 int	 3
  0000c	cc		 int	 3
__ehhandler$??$_Uninitialized_copy@PAUSHitData@NRaceData@@V?$allocator@USHitData@NRaceData@@@std@@@std@@YAPAUSHitData@NRaceData@@QAU12@0PAU12@AAV?$allocator@USHitData@NRaceData@@@0@@Z:
  0000d	90		 npad	 1
  0000e	90		 npad	 1
  0000f	8b 54 24 08	 mov	 edx, DWORD PTR [esp+8]
  00013	8d 42 0c	 lea	 eax, DWORD PTR [edx+12]
  00016	8b 4a e4	 mov	 ecx, DWORD PTR [edx-28]
  00019	33 c8		 xor	 ecx, eax
  0001b	e8 00 00 00 00	 call	 @__security_check_cookie@4
  00020	b8 00 00 00 00	 mov	 eax, OFFSET __ehfuncinfo$??$_Uninitialized_copy@PAUSHitData@NRaceData@@V?$allocator@USHitData@NRaceData@@@std@@@std@@YAPAUSHitData@NRaceData@@QAU12@0PAU12@AAV?$allocator@USHitData@NRaceData@@@0@@Z
  00025	e9 00 00 00 00	 jmp	 ___CxxFrameHandler3
text$x	ENDS
??$_Uninitialized_copy@PAUSHitData@NRaceData@@V?$allocator@USHitData@NRaceData@@@std@@@std@@YAPAUSHitData@NRaceData@@QAU12@0PAU12@AAV?$allocator@USHitData@NRaceData@@@0@@Z ENDP ; std::_Uninitialized_copy<NRaceData::SHitData *,std::allocator<NRaceData::SHitData> >
; Function compile flags: /Ogtp
; File C:\Program Files (x86)\Microsoft Visual Studio\2019\Community\VC\Tools\MSVC\14.27.29110\include\xmemory
;	COMDAT ??$_Uninitialized_move@PAUSHitData@NRaceData@@V?$allocator@USHitData@NRaceData@@@std@@@std@@YAPAUSHitData@NRaceData@@QAU12@0PAU12@AAV?$allocator@USHitData@NRaceData@@@0@@Z
_TEXT	SEGMENT
__Backout$2 = -24					; size = 12
__$EHRec$ = -12						; size = 12
__First$ = 8						; size = 4
__Last$ = 12						; size = 4
__Dest$ = 16						; size = 4
__Al$ = 20						; size = 4
??$_Uninitialized_move@PAUSHitData@NRaceData@@V?$allocator@USHitData@NRaceData@@@std@@@std@@YAPAUSHitData@NRaceData@@QAU12@0PAU12@AAV?$allocator@USHitData@NRaceData@@@0@@Z PROC ; std::_Uninitialized_move<NRaceData::SHitData *,std::allocator<NRaceData::SHitData> >, COMDAT

; 1647 :     const _InIt _First, const _InIt _Last, _Alloc_ptr_t<_Alloc> _Dest, _Alloc& _Al) {

  00000	55		 push	 ebp
  00001	8b ec		 mov	 ebp, esp
  00003	6a ff		 push	 -1
  00005	68 00 00 00 00	 push	 __ehhandler$??$_Uninitialized_move@PAUSHitData@NRaceData@@V?$allocator@USHitData@NRaceData@@@std@@@std@@YAPAUSHitData@NRaceData@@QAU12@0PAU12@AAV?$allocator@USHitData@NRaceData@@@0@@Z
  0000a	64 a1 00 00 00
	00		 mov	 eax, DWORD PTR fs:0
  00010	50		 push	 eax
  00011	83 ec 0c	 sub	 esp, 12			; 0000000cH
  00014	53		 push	 ebx
  00015	56		 push	 esi
  00016	57		 push	 edi
  00017	a1 00 00 00 00	 mov	 eax, DWORD PTR ___security_cookie
  0001c	33 c5		 xor	 eax, ebp
  0001e	50		 push	 eax
  0001f	8d 45 f4	 lea	 eax, DWORD PTR __$EHRec$[ebp]
  00022	64 a3 00 00 00
	00		 mov	 DWORD PTR fs:0, eax

; 1497 :     _Uninitialized_backout_al(pointer _Dest, _Alloc& _Al_) : _First(_Dest), _Last(_Dest), _Al(_Al_) {}

  00028	8b 7d 10	 mov	 edi, DWORD PTR __Dest$[ebp]
  0002b	8b 5d 14	 mov	 ebx, DWORD PTR __Al$[ebp]

; 1648 :     // move [_First, _Last) to raw _Dest, using _Al
; 1649 :     // note: only called internally from elsewhere in the STL
; 1650 :     using _Ptrval     = typename _Alloc::value_type*;
; 1651 :     auto _UFirst      = _Get_unwrapped(_First);

  0002e	8b 75 08	 mov	 esi, DWORD PTR __First$[ebp]

; 1497 :     _Uninitialized_backout_al(pointer _Dest, _Alloc& _Al_) : _First(_Dest), _Last(_Dest), _Al(_Al_) {}

  00031	89 7d e8	 mov	 DWORD PTR __Backout$2[ebp], edi
  00034	89 7d ec	 mov	 DWORD PTR __Backout$2[ebp+4], edi
  00037	89 5d f0	 mov	 DWORD PTR __Backout$2[ebp+8], ebx

; 1652 :     const auto _ULast = _Get_unwrapped(_Last);
; 1653 :     if constexpr (conjunction_v<bool_constant<_Ptr_move_cat<decltype(_UFirst), _Ptrval>::_Really_trivial>,
; 1654 :                       _Uses_default_construct<_Alloc, _Ptrval, decltype(_STD move(*_UFirst))>>) {
; 1655 :         _Copy_memmove(_UFirst, _ULast, _Unfancy(_Dest));
; 1656 :         return _Dest + (_ULast - _UFirst);
; 1657 :     } else {
; 1658 :         _Uninitialized_backout_al<_Alloc> _Backout{_Dest, _Al};

  0003a	c7 45 fc 00 00
	00 00		 mov	 DWORD PTR __$EHRec$[ebp+8], 0

; 1659 :         for (; _UFirst != _ULast; ++_UFirst) {

  00041	3b 75 0c	 cmp	 esi, DWORD PTR __Last$[ebp]
  00044	74 19		 je	 SHORT $LN3@Uninitiali
$LL4@Uninitiali:

; 1508 :         allocator_traits<_Alloc>::construct(_Al, _Unfancy(_Last), _STD forward<_Types>(_Vals)...);

  00046	56		 push	 esi
  00047	57		 push	 edi
  00048	53		 push	 ebx
  00049	e8 00 00 00 00	 call	 ??$construct@USHitData@NRaceData@@U12@@?$_Default_allocator_traits@V?$allocator@USHitData@NRaceData@@@std@@@std@@SAXAAV?$allocator@USHitData@NRaceData@@@1@QAUSHitData@NRaceData@@$$QAU34@@Z ; std::_Default_allocator_traits<std::allocator<NRaceData::SHitData> >::construct<NRaceData::SHitData,NRaceData::SHitData>

; 1509 :         ++_Last;

  0004e	83 c7 2c	 add	 edi, 44			; 0000002cH

; 1659 :         for (; _UFirst != _ULast; ++_UFirst) {

  00051	83 c6 2c	 add	 esi, 44			; 0000002cH

; 1508 :         allocator_traits<_Alloc>::construct(_Al, _Unfancy(_Last), _STD forward<_Types>(_Vals)...);

  00054	83 c4 0c	 add	 esp, 12			; 0000000cH

; 1509 :         ++_Last;

  00057	89 7d ec	 mov	 DWORD PTR __Backout$2[ebp+4], edi

; 1659 :         for (; _UFirst != _ULast; ++_UFirst) {

  0005a	3b 75 0c	 cmp	 esi, DWORD PTR __Last$[ebp]
  0005d	75 e7		 jne	 SHORT $LL4@Uninitiali
$LN3@Uninitiali:

; 1503 :         _Destroy_range(_First, _Last, _Al);

  0005f	53		 push	 ebx
  00060	57		 push	 edi
  00061	57		 push	 edi
  00062	e8 00 00 00 00	 call	 ??$_Destroy_range@V?$allocator@USHitData@NRaceData@@@std@@@std@@YAXPAUSHitData@NRaceData@@QAU12@AAV?$allocator@USHitData@NRaceData@@@0@@Z ; std::_Destroy_range<std::allocator<NRaceData::SHitData> >
  00067	83 c4 0c	 add	 esp, 12			; 0000000cH

; 1660 :             _Backout._Emplace_back(_STD move(*_UFirst));
; 1661 :         }
; 1662 : 
; 1663 :         return _Backout._Release();

  0006a	8b c7		 mov	 eax, edi

; 1664 :     }
; 1665 : }

  0006c	8b 4d f4	 mov	 ecx, DWORD PTR __$EHRec$[ebp]
  0006f	64 89 0d 00 00
	00 00		 mov	 DWORD PTR fs:0, ecx
  00076	59		 pop	 ecx
  00077	5f		 pop	 edi
  00078	5e		 pop	 esi
  00079	5b		 pop	 ebx
  0007a	8b e5		 mov	 esp, ebp
  0007c	5d		 pop	 ebp
  0007d	c3		 ret	 0
_TEXT	ENDS
;	COMDAT text$x
text$x	SEGMENT
__unwindfunclet$??$_Uninitialized_move@PAUSHitData@NRaceData@@V?$allocator@USHitData@NRaceData@@@std@@@std@@YAPAUSHitData@NRaceData@@QAU12@0PAU12@AAV?$allocator@USHitData@NRaceData@@@0@@Z$0:
  00000	8d 4d e8	 lea	 ecx, DWORD PTR __Backout$2[ebp]
  00003	e9 00 00 00 00	 jmp	 ??1?$_Uninitialized_backout_al@V?$allocator@USHitData@NRaceData@@@std@@@std@@QAE@XZ ; std::_Uninitialized_backout_al<std::allocator<NRaceData::SHitData> >::~_Uninitialized_backout_al<std::allocator<NRaceData::SHitData> >
  00008	cc		 int	 3
  00009	cc		 int	 3
  0000a	cc		 int	 3
  0000b	cc		 int	 3
  0000c	cc		 int	 3
__ehhandler$??$_Uninitialized_move@PAUSHitData@NRaceData@@V?$allocator@USHitData@NRaceData@@@std@@@std@@YAPAUSHitData@NRaceData@@QAU12@0PAU12@AAV?$allocator@USHitData@NRaceData@@@0@@Z:
  0000d	90		 npad	 1
  0000e	90		 npad	 1
  0000f	8b 54 24 08	 mov	 edx, DWORD PTR [esp+8]
  00013	8d 42 0c	 lea	 eax, DWORD PTR [edx+12]
  00016	8b 4a e4	 mov	 ecx, DWORD PTR [edx-28]
  00019	33 c8		 xor	 ecx, eax
  0001b	e8 00 00 00 00	 call	 @__security_check_cookie@4
  00020	b8 00 00 00 00	 mov	 eax, OFFSET __ehfuncinfo$??$_Uninitialized_move@PAUSHitData@NRaceData@@V?$allocator@USHitData@NRaceData@@@std@@@std@@YAPAUSHitData@NRaceData@@QAU12@0PAU12@AAV?$allocator@USHitData@NRaceData@@@0@@Z
  00025	e9 00 00 00 00	 jmp	 ___CxxFrameHandler3
text$x	ENDS
??$_Uninitialized_move@PAUSHitData@NRaceData@@V?$allocator@USHitData@NRaceData@@@std@@@std@@YAPAUSHitData@NRaceData@@QAU12@0PAU12@AAV?$allocator@USHitData@NRaceData@@@0@@Z ENDP ; std::_Uninitialized_move<NRaceData::SHitData *,std::allocator<NRaceData::SHitData> >
; Function compile flags: /Ogtp
; File C:\Program Files (x86)\Microsoft Visual Studio\2019\Community\VC\Tools\MSVC\14.27.29110\include\xmemory
;	COMDAT ??$_Uninitialized_value_construct_n@V?$allocator@VCSphereCollisionInstance@@@std@@@std@@YAPAVCSphereCollisionInstance@@PAV1@IAAV?$allocator@VCSphereCollisionInstance@@@0@@Z
_TEXT	SEGMENT
__First$ = 8						; size = 4
__Count$ = 12						; size = 4
__Al$ = 16						; size = 4
??$_Uninitialized_value_construct_n@V?$allocator@VCSphereCollisionInstance@@@std@@@std@@YAPAVCSphereCollisionInstance@@PAV1@IAAV?$allocator@VCSphereCollisionInstance@@@0@@Z PROC ; std::_Uninitialized_value_construct_n<std::allocator<CSphereCollisionInstance> >, COMDAT

; 1824 :     _Alloc_ptr_t<_Alloc> _First, _Alloc_size_t<_Alloc> _Count, _Alloc& _Al) {

  00000	55		 push	 ebp
  00001	8b ec		 mov	 ebp, esp

; 1825 :     // value-initialize _Count objects to raw _First, using _Al
; 1826 :     using _Ptrty = typename _Alloc::value_type*;
; 1827 :     if constexpr (_Use_memset_value_construct_v<_Ptrty> && _Uses_default_construct<_Alloc, _Ptrty>::value) {
; 1828 :         auto _PFirst = _Unfancy(_First);
; 1829 :         _Zero_range(_PFirst, _PFirst + _Count);
; 1830 :         return _First + _Count;
; 1831 :     } else {
; 1832 :         _Uninitialized_backout_al<_Alloc> _Backout{_First, _Al};
; 1833 :         for (; 0 < _Count; --_Count) {

  00003	8b 4d 0c	 mov	 ecx, DWORD PTR __Count$[ebp]

; 1497 :     _Uninitialized_backout_al(pointer _Dest, _Alloc& _Al_) : _First(_Dest), _Last(_Dest), _Al(_Al_) {}

  00006	8b 45 08	 mov	 eax, DWORD PTR __First$[ebp]

; 1825 :     // value-initialize _Count objects to raw _First, using _Al
; 1826 :     using _Ptrty = typename _Alloc::value_type*;
; 1827 :     if constexpr (_Use_memset_value_construct_v<_Ptrty> && _Uses_default_construct<_Alloc, _Ptrty>::value) {
; 1828 :         auto _PFirst = _Unfancy(_First);
; 1829 :         _Zero_range(_PFirst, _PFirst + _Count);
; 1830 :         return _First + _Count;
; 1831 :     } else {
; 1832 :         _Uninitialized_backout_al<_Alloc> _Backout{_First, _Al};
; 1833 :         for (; 0 < _Count; --_Count) {

  00009	85 c9		 test	 ecx, ecx
  0000b	74 2d		 je	 SHORT $LN3@Uninitiali
  0000d	0f 1f 00	 npad	 3
$LL4@Uninitiali:

; 694  :         ::new (const_cast<void*>(static_cast<const volatile void*>(_Ptr))) _Objty(_STD forward<_Types>(_Args)...);

  00010	c7 40 04 00 00
	00 00		 mov	 DWORD PTR [eax+4], 0
  00017	c7 40 08 00 00
	00 00		 mov	 DWORD PTR [eax+8], 0
  0001e	c7 40 0c 00 00
	00 00		 mov	 DWORD PTR [eax+12], 0
  00025	c7 40 10 00 00
	00 00		 mov	 DWORD PTR [eax+16], 0
  0002c	c7 00 00 00 00
	00		 mov	 DWORD PTR [eax], OFFSET ??_7CSphereCollisionInstance@@6B@

; 1509 :         ++_Last;

  00032	83 c0 14	 add	 eax, 20			; 00000014H

; 1825 :     // value-initialize _Count objects to raw _First, using _Al
; 1826 :     using _Ptrty = typename _Alloc::value_type*;
; 1827 :     if constexpr (_Use_memset_value_construct_v<_Ptrty> && _Uses_default_construct<_Alloc, _Ptrty>::value) {
; 1828 :         auto _PFirst = _Unfancy(_First);
; 1829 :         _Zero_range(_PFirst, _PFirst + _Count);
; 1830 :         return _First + _Count;
; 1831 :     } else {
; 1832 :         _Uninitialized_backout_al<_Alloc> _Backout{_First, _Al};
; 1833 :         for (; 0 < _Count; --_Count) {

  00035	83 e9 01	 sub	 ecx, 1
  00038	75 d6		 jne	 SHORT $LL4@Uninitiali
$LN3@Uninitiali:

; 1834 :             _Backout._Emplace_back();
; 1835 :         }
; 1836 : 
; 1837 :         return _Backout._Release();
; 1838 :     }
; 1839 : }

  0003a	5d		 pop	 ebp
  0003b	c3		 ret	 0
??$_Uninitialized_value_construct_n@V?$allocator@VCSphereCollisionInstance@@@std@@@std@@YAPAVCSphereCollisionInstance@@PAV1@IAAV?$allocator@VCSphereCollisionInstance@@@0@@Z ENDP ; std::_Uninitialized_value_construct_n<std::allocator<CSphereCollisionInstance> >
_TEXT	ENDS
; Function compile flags: /Ogtp
; File C:\Program Files (x86)\Microsoft Visual Studio\2019\Community\VC\Tools\MSVC\14.27.29110\include\xmemory
;	COMDAT ??$_Uninitialized_move@PAPAUSCollisionData@NRaceData@@V?$allocator@PAUSCollisionData@NRaceData@@@std@@@std@@YAPAPAUSCollisionData@NRaceData@@QAPAU12@0PAPAU12@AAV?$allocator@PAUSCollisionData@NRaceData@@@0@@Z
_TEXT	SEGMENT
__First$ = 8						; size = 4
__Last$ = 12						; size = 4
__Dest$ = 16						; size = 4
__Al$ = 20						; size = 4
??$_Uninitialized_move@PAPAUSCollisionData@NRaceData@@V?$allocator@PAUSCollisionData@NRaceData@@@std@@@std@@YAPAPAUSCollisionData@NRaceData@@QAPAU12@0PAPAU12@AAV?$allocator@PAUSCollisionData@NRaceData@@@0@@Z PROC ; std::_Uninitialized_move<NRaceData::SCollisionData * *,std::allocator<NRaceData::SCollisionData *> >, COMDAT

; 1647 :     const _InIt _First, const _InIt _Last, _Alloc_ptr_t<_Alloc> _Dest, _Alloc& _Al) {

  00000	55		 push	 ebp
  00001	8b ec		 mov	 ebp, esp
  00003	53		 push	 ebx

; 1648 :     // move [_First, _Last) to raw _Dest, using _Al
; 1649 :     // note: only called internally from elsewhere in the STL
; 1650 :     using _Ptrval     = typename _Alloc::value_type*;
; 1651 :     auto _UFirst      = _Get_unwrapped(_First);
; 1652 :     const auto _ULast = _Get_unwrapped(_Last);
; 1653 :     if constexpr (conjunction_v<bool_constant<_Ptr_move_cat<decltype(_UFirst), _Ptrval>::_Really_trivial>,
; 1654 :                       _Uses_default_construct<_Alloc, _Ptrval, decltype(_STD move(*_UFirst))>>) {
; 1655 :         _Copy_memmove(_UFirst, _ULast, _Unfancy(_Dest));

  00004	8b 5d 10	 mov	 ebx, DWORD PTR __Dest$[ebp]
  00007	57		 push	 edi
  00008	8b 7d 0c	 mov	 edi, DWORD PTR __Last$[ebp]
  0000b	53		 push	 ebx
  0000c	57		 push	 edi
  0000d	ff 75 08	 push	 DWORD PTR __First$[ebp]
  00010	e8 00 00 00 00	 call	 ??$_Copy_memmove@PAPAUSCollisionData@NRaceData@@PAPAU12@@std@@YAPAPAUSCollisionData@NRaceData@@PAPAU12@00@Z ; std::_Copy_memmove<NRaceData::SCollisionData * *,NRaceData::SCollisionData * *>

; 1656 :         return _Dest + (_ULast - _UFirst);

  00015	2b 7d 08	 sub	 edi, DWORD PTR __First$[ebp]
  00018	83 c4 0c	 add	 esp, 12			; 0000000cH
  0001b	c1 ff 02	 sar	 edi, 2
  0001e	8d 04 bb	 lea	 eax, DWORD PTR [ebx+edi*4]
  00021	5f		 pop	 edi
  00022	5b		 pop	 ebx

; 1657 :     } else {
; 1658 :         _Uninitialized_backout_al<_Alloc> _Backout{_Dest, _Al};
; 1659 :         for (; _UFirst != _ULast; ++_UFirst) {
; 1660 :             _Backout._Emplace_back(_STD move(*_UFirst));
; 1661 :         }
; 1662 : 
; 1663 :         return _Backout._Release();
; 1664 :     }
; 1665 : }

  00023	5d		 pop	 ebp
  00024	c3		 ret	 0
??$_Uninitialized_move@PAPAUSCollisionData@NRaceData@@V?$allocator@PAUSCollisionData@NRaceData@@@std@@@std@@YAPAPAUSCollisionData@NRaceData@@QAPAU12@0PAPAU12@AAV?$allocator@PAUSCollisionData@NRaceData@@@0@@Z ENDP ; std::_Uninitialized_move<NRaceData::SCollisionData * *,std::allocator<NRaceData::SCollisionData *> >
_TEXT	ENDS
; Function compile flags: /Ogtp
; File C:\Program Files (x86)\Microsoft Visual Studio\2019\Community\VC\Tools\MSVC\14.27.29110\include\xmemory
;	COMDAT ??$_Uninitialized_move@PAPAUSAttachingEffectData@NRaceData@@V?$allocator@PAUSAttachingEffectData@NRaceData@@@std@@@std@@YAPAPAUSAttachingEffectData@NRaceData@@QAPAU12@0PAPAU12@AAV?$allocator@PAUSAttachingEffectData@NRaceData@@@0@@Z
_TEXT	SEGMENT
__First$ = 8						; size = 4
__Last$ = 12						; size = 4
__Dest$ = 16						; size = 4
__Al$ = 20						; size = 4
??$_Uninitialized_move@PAPAUSAttachingEffectData@NRaceData@@V?$allocator@PAUSAttachingEffectData@NRaceData@@@std@@@std@@YAPAPAUSAttachingEffectData@NRaceData@@QAPAU12@0PAPAU12@AAV?$allocator@PAUSAttachingEffectData@NRaceData@@@0@@Z PROC ; std::_Uninitialized_move<NRaceData::SAttachingEffectData * *,std::allocator<NRaceData::SAttachingEffectData *> >, COMDAT

; 1647 :     const _InIt _First, const _InIt _Last, _Alloc_ptr_t<_Alloc> _Dest, _Alloc& _Al) {

  00000	55		 push	 ebp
  00001	8b ec		 mov	 ebp, esp
  00003	53		 push	 ebx

; 1648 :     // move [_First, _Last) to raw _Dest, using _Al
; 1649 :     // note: only called internally from elsewhere in the STL
; 1650 :     using _Ptrval     = typename _Alloc::value_type*;
; 1651 :     auto _UFirst      = _Get_unwrapped(_First);
; 1652 :     const auto _ULast = _Get_unwrapped(_Last);
; 1653 :     if constexpr (conjunction_v<bool_constant<_Ptr_move_cat<decltype(_UFirst), _Ptrval>::_Really_trivial>,
; 1654 :                       _Uses_default_construct<_Alloc, _Ptrval, decltype(_STD move(*_UFirst))>>) {
; 1655 :         _Copy_memmove(_UFirst, _ULast, _Unfancy(_Dest));

  00004	8b 5d 10	 mov	 ebx, DWORD PTR __Dest$[ebp]
  00007	57		 push	 edi
  00008	8b 7d 0c	 mov	 edi, DWORD PTR __Last$[ebp]
  0000b	53		 push	 ebx
  0000c	57		 push	 edi
  0000d	ff 75 08	 push	 DWORD PTR __First$[ebp]
  00010	e8 00 00 00 00	 call	 ??$_Copy_memmove@PAPAUSAttachingEffectData@NRaceData@@PAPAU12@@std@@YAPAPAUSAttachingEffectData@NRaceData@@PAPAU12@00@Z ; std::_Copy_memmove<NRaceData::SAttachingEffectData * *,NRaceData::SAttachingEffectData * *>

; 1656 :         return _Dest + (_ULast - _UFirst);

  00015	2b 7d 08	 sub	 edi, DWORD PTR __First$[ebp]
  00018	83 c4 0c	 add	 esp, 12			; 0000000cH
  0001b	c1 ff 02	 sar	 edi, 2
  0001e	8d 04 bb	 lea	 eax, DWORD PTR [ebx+edi*4]
  00021	5f		 pop	 edi
  00022	5b		 pop	 ebx

; 1657 :     } else {
; 1658 :         _Uninitialized_backout_al<_Alloc> _Backout{_Dest, _Al};
; 1659 :         for (; _UFirst != _ULast; ++_UFirst) {
; 1660 :             _Backout._Emplace_back(_STD move(*_UFirst));
; 1661 :         }
; 1662 : 
; 1663 :         return _Backout._Release();
; 1664 :     }
; 1665 : }

  00023	5d		 pop	 ebp
  00024	c3		 ret	 0
??$_Uninitialized_move@PAPAUSAttachingEffectData@NRaceData@@V?$allocator@PAUSAttachingEffectData@NRaceData@@@std@@@std@@YAPAPAUSAttachingEffectData@NRaceData@@QAPAU12@0PAPAU12@AAV?$allocator@PAUSAttachingEffectData@NRaceData@@@0@@Z ENDP ; std::_Uninitialized_move<NRaceData::SAttachingEffectData * *,std::allocator<NRaceData::SAttachingEffectData *> >
_TEXT	ENDS
; Function compile flags: /Ogtp
; File C:\Program Files (x86)\Microsoft Visual Studio\2019\Community\VC\Tools\MSVC\14.27.29110\include\xmemory
;	COMDAT ??$_Uninitialized_move@PAPAUSAttachingObjectData@NRaceData@@V?$allocator@PAUSAttachingObjectData@NRaceData@@@std@@@std@@YAPAPAUSAttachingObjectData@NRaceData@@QAPAU12@0PAPAU12@AAV?$allocator@PAUSAttachingObjectData@NRaceData@@@0@@Z
_TEXT	SEGMENT
__First$ = 8						; size = 4
__Last$ = 12						; size = 4
__Dest$ = 16						; size = 4
__Al$ = 20						; size = 4
??$_Uninitialized_move@PAPAUSAttachingObjectData@NRaceData@@V?$allocator@PAUSAttachingObjectData@NRaceData@@@std@@@std@@YAPAPAUSAttachingObjectData@NRaceData@@QAPAU12@0PAPAU12@AAV?$allocator@PAUSAttachingObjectData@NRaceData@@@0@@Z PROC ; std::_Uninitialized_move<NRaceData::SAttachingObjectData * *,std::allocator<NRaceData::SAttachingObjectData *> >, COMDAT

; 1647 :     const _InIt _First, const _InIt _Last, _Alloc_ptr_t<_Alloc> _Dest, _Alloc& _Al) {

  00000	55		 push	 ebp
  00001	8b ec		 mov	 ebp, esp
  00003	53		 push	 ebx

; 1648 :     // move [_First, _Last) to raw _Dest, using _Al
; 1649 :     // note: only called internally from elsewhere in the STL
; 1650 :     using _Ptrval     = typename _Alloc::value_type*;
; 1651 :     auto _UFirst      = _Get_unwrapped(_First);
; 1652 :     const auto _ULast = _Get_unwrapped(_Last);
; 1653 :     if constexpr (conjunction_v<bool_constant<_Ptr_move_cat<decltype(_UFirst), _Ptrval>::_Really_trivial>,
; 1654 :                       _Uses_default_construct<_Alloc, _Ptrval, decltype(_STD move(*_UFirst))>>) {
; 1655 :         _Copy_memmove(_UFirst, _ULast, _Unfancy(_Dest));

  00004	8b 5d 10	 mov	 ebx, DWORD PTR __Dest$[ebp]
  00007	57		 push	 edi
  00008	8b 7d 0c	 mov	 edi, DWORD PTR __Last$[ebp]
  0000b	53		 push	 ebx
  0000c	57		 push	 edi
  0000d	ff 75 08	 push	 DWORD PTR __First$[ebp]
  00010	e8 00 00 00 00	 call	 ??$_Copy_memmove@PAPAUSAttachingObjectData@NRaceData@@PAPAU12@@std@@YAPAPAUSAttachingObjectData@NRaceData@@PAPAU12@00@Z ; std::_Copy_memmove<NRaceData::SAttachingObjectData * *,NRaceData::SAttachingObjectData * *>

; 1656 :         return _Dest + (_ULast - _UFirst);

  00015	2b 7d 08	 sub	 edi, DWORD PTR __First$[ebp]
  00018	83 c4 0c	 add	 esp, 12			; 0000000cH
  0001b	c1 ff 02	 sar	 edi, 2
  0001e	8d 04 bb	 lea	 eax, DWORD PTR [ebx+edi*4]
  00021	5f		 pop	 edi
  00022	5b		 pop	 ebx

; 1657 :     } else {
; 1658 :         _Uninitialized_backout_al<_Alloc> _Backout{_Dest, _Al};
; 1659 :         for (; _UFirst != _ULast; ++_UFirst) {
; 1660 :             _Backout._Emplace_back(_STD move(*_UFirst));
; 1661 :         }
; 1662 : 
; 1663 :         return _Backout._Release();
; 1664 :     }
; 1665 : }

  00023	5d		 pop	 ebp
  00024	c3		 ret	 0
??$_Uninitialized_move@PAPAUSAttachingObjectData@NRaceData@@V?$allocator@PAUSAttachingObjectData@NRaceData@@@std@@@std@@YAPAPAUSAttachingObjectData@NRaceData@@QAPAU12@0PAPAU12@AAV?$allocator@PAUSAttachingObjectData@NRaceData@@@0@@Z ENDP ; std::_Uninitialized_move<NRaceData::SAttachingObjectData * *,std::allocator<NRaceData::SAttachingObjectData *> >
_TEXT	ENDS
; Function compile flags: /Ogtp
; File C:\Program Files (x86)\Microsoft Visual Studio\2019\Community\VC\Tools\MSVC\14.27.29110\include\xmemory
; File C:\DS Project\DS Files\Source\ClientSource\Client\GameLib\GameType.h
; File C:\Program Files (x86)\Microsoft Visual Studio\2019\Community\VC\Tools\MSVC\14.27.29110\include\xmemory
; File C:\DS Project\DS Files\Source\ClientSource\Client\GameLib\GameType.h
; File C:\Program Files (x86)\Microsoft Visual Studio\2019\Community\VC\Tools\MSVC\14.27.29110\include\xstring
; File C:\DS Project\DS Files\Source\ClientSource\Client\GameLib\GameType.h
; File C:\Program Files (x86)\Microsoft Visual Studio\2019\Community\VC\Tools\MSVC\14.27.29110\include\xmemory
;	COMDAT ??$_Uninitialized_value_construct_n@V?$allocator@USAttachingData@NRaceData@@@std@@@std@@YAPAUSAttachingData@NRaceData@@PAU12@IAAV?$allocator@USAttachingData@NRaceData@@@0@@Z
_TEXT	SEGMENT
__First$ = 8						; size = 4
__Count$ = 12						; size = 4
__Al$ = 16						; size = 4
??$_Uninitialized_value_construct_n@V?$allocator@USAttachingData@NRaceData@@@std@@@std@@YAPAUSAttachingData@NRaceData@@PAU12@IAAV?$allocator@USAttachingData@NRaceData@@@0@@Z PROC ; std::_Uninitialized_value_construct_n<std::allocator<NRaceData::SAttachingData> >, COMDAT

; 1824 :     _Alloc_ptr_t<_Alloc> _First, _Alloc_size_t<_Alloc> _Count, _Alloc& _Al) {

  00000	55		 push	 ebp
  00001	8b ec		 mov	 ebp, esp

; 1833 :         for (; 0 < _Count; --_Count) {

  00003	8b 4d 0c	 mov	 ecx, DWORD PTR __Count$[ebp]
  00006	56		 push	 esi

; 1497 :     _Uninitialized_backout_al(pointer _Dest, _Alloc& _Al_) : _First(_Dest), _Last(_Dest), _Al(_Al_) {}

  00007	8b 75 08	 mov	 esi, DWORD PTR __First$[ebp]

; 1833 :         for (; 0 < _Count; --_Count) {

  0000a	85 c9		 test	 ecx, ecx
  0000c	74 49		 je	 SHORT $LN3@Uninitiali
  0000e	8d 46 20	 lea	 eax, DWORD PTR [esi+32]
$LL4@Uninitiali:
; File C:\DS Project\DS Files\Source\ClientSource\Client\GameLib\GameType.h

; 173  : 			: dwType(0)

  00011	c7 06 00 00 00
	00		 mov	 DWORD PTR [esi], 0
; File C:\Program Files (x86)\Microsoft Visual Studio\2019\Community\VC\Tools\MSVC\14.27.29110\include\xmemory

; 1509 :         ++_Last;

  00017	8d 40 30	 lea	 eax, DWORD PTR [eax+48]
  0001a	83 c6 30	 add	 esi, 48			; 00000030H
; File C:\DS Project\DS Files\Source\ClientSource\Client\GameLib\GameType.h

; 174  : 			, isAttaching(false)

  0001d	c7 40 b4 00 00
	00 00		 mov	 DWORD PTR [eax-76], 0

; 175  : 			, dwAttachingModelIndex(0)

  00024	c7 40 b8 00 00
	00 00		 mov	 DWORD PTR [eax-72], 0
; File C:\Program Files (x86)\Microsoft Visual Studio\2019\Community\VC\Tools\MSVC\14.27.29110\include\xstring

; 4293 :         _Mypair._Myval2._Mysize = 0;

  0002b	c7 40 cc 00 00
	00 00		 mov	 DWORD PTR [eax-52], 0

; 4294 :         _Mypair._Myval2._Myres  = _BUF_SIZE - 1;

  00032	c7 40 d0 0f 00
	00 00		 mov	 DWORD PTR [eax-48], 15	; 0000000fH

; 4295 :         // the _Traits::assign is last so the codegen doesn't think the char write can alias this
; 4296 :         _Traits::assign(_Mypair._Myval2._Bx._Buf[0], _Elem());

  00039	c6 40 bc 00	 mov	 BYTE PTR [eax-68], 0
; File C:\DS Project\DS Files\Source\ClientSource\Client\GameLib\GameType.h

; 176  : 			, pCollisionData(NULL)

  0003d	c7 40 d4 00 00
	00 00		 mov	 DWORD PTR [eax-44], 0

; 177  : 			, pEffectData(NULL)

  00044	c7 40 d8 00 00
	00 00		 mov	 DWORD PTR [eax-40], 0

; 178  : 			, pObjectData(NULL)

  0004b	c7 40 dc 00 00
	00 00		 mov	 DWORD PTR [eax-36], 0
; File C:\Program Files (x86)\Microsoft Visual Studio\2019\Community\VC\Tools\MSVC\14.27.29110\include\xmemory

; 1833 :         for (; 0 < _Count; --_Count) {

  00052	83 e9 01	 sub	 ecx, 1
  00055	75 ba		 jne	 SHORT $LL4@Uninitiali
$LN3@Uninitiali:

; 1503 :         _Destroy_range(_First, _Last, _Al);

  00057	ff 75 10	 push	 DWORD PTR __Al$[ebp]
  0005a	56		 push	 esi
  0005b	56		 push	 esi
  0005c	e8 00 00 00 00	 call	 ??$_Destroy_range@V?$allocator@USAttachingData@NRaceData@@@std@@@std@@YAXPAUSAttachingData@NRaceData@@QAU12@AAV?$allocator@USAttachingData@NRaceData@@@0@@Z ; std::_Destroy_range<std::allocator<NRaceData::SAttachingData> >
  00061	83 c4 0c	 add	 esp, 12			; 0000000cH

; 1834 :             _Backout._Emplace_back();
; 1835 :         }
; 1836 : 
; 1837 :         return _Backout._Release();

  00064	8b c6		 mov	 eax, esi
  00066	5e		 pop	 esi

; 1838 :     }
; 1839 : }

  00067	5d		 pop	 ebp
  00068	c3		 ret	 0
??$_Uninitialized_value_construct_n@V?$allocator@USAttachingData@NRaceData@@@std@@@std@@YAPAUSAttachingData@NRaceData@@PAU12@IAAV?$allocator@USAttachingData@NRaceData@@@0@@Z ENDP ; std::_Uninitialized_value_construct_n<std::allocator<NRaceData::SAttachingData> >
_TEXT	ENDS
; Function compile flags: /Ogtp
; File C:\Program Files (x86)\Microsoft Visual Studio\2019\Community\VC\Tools\MSVC\14.27.29110\include\xmemory
;	COMDAT ??$_Destroy_in_place@PAU?$_Tree_node@U?$pair@$$CBMUCDynamicSphereInstance@@@std@@PAX@std@@@std@@YAXAAPAU?$_Tree_node@U?$pair@$$CBMUCDynamicSphereInstance@@@std@@PAX@0@@Z
_TEXT	SEGMENT
__Obj$ = 8						; size = 4
??$_Destroy_in_place@PAU?$_Tree_node@U?$pair@$$CBMUCDynamicSphereInstance@@@std@@PAX@std@@@std@@YAXAAPAU?$_Tree_node@U?$pair@$$CBMUCDynamicSphereInstance@@@std@@PAX@0@@Z PROC ; std::_Destroy_in_place<std::_Tree_node<std::pair<float const ,CDynamicSphereInstance>,void *> *>, COMDAT

; 268  :     _Obj.~_Ty();
; 269  : }

  00000	c2 00 00	 ret	 0
??$_Destroy_in_place@PAU?$_Tree_node@U?$pair@$$CBMUCDynamicSphereInstance@@@std@@PAX@std@@@std@@YAXAAPAU?$_Tree_node@U?$pair@$$CBMUCDynamicSphereInstance@@@std@@PAX@0@@Z ENDP ; std::_Destroy_in_place<std::_Tree_node<std::pair<float const ,CDynamicSphereInstance>,void *> *>
_TEXT	ENDS
; Function compile flags: /Ogtp
; File C:\Program Files (x86)\Microsoft Visual Studio\2019\Community\VC\Tools\MSVC\14.27.29110\include\xmemory
;	COMDAT ??$_Construct_in_place@PAU?$_Tree_node@U?$pair@$$CBMUCDynamicSphereInstance@@@std@@PAX@std@@ABQAU12@@std@@YAXAAPAU?$_Tree_node@U?$pair@$$CBMUCDynamicSphereInstance@@@std@@PAX@0@ABQAU10@@Z
_TEXT	SEGMENT
__Obj$ = 8						; size = 4
_<_Args_0>$ = 12					; size = 4
??$_Construct_in_place@PAU?$_Tree_node@U?$pair@$$CBMUCDynamicSphereInstance@@@std@@PAX@std@@ABQAU12@@std@@YAXAAPAU?$_Tree_node@U?$pair@$$CBMUCDynamicSphereInstance@@@std@@PAX@0@ABQAU10@@Z PROC ; std::_Construct_in_place<std::_Tree_node<std::pair<float const ,CDynamicSphereInstance>,void *> *,std::_Tree_node<std::pair<float const ,CDynamicSphereInstance>,void *> * const &>, COMDAT

; 228  : void _Construct_in_place(_Ty& _Obj, _Types&&... _Args) noexcept(is_nothrow_constructible_v<_Ty, _Types...>) {

  00000	55		 push	 ebp
  00001	8b ec		 mov	 ebp, esp

; 229  :     ::new (const_cast<void*>(static_cast<const volatile void*>(_STD addressof(_Obj))))

  00003	8b 45 0c	 mov	 eax, DWORD PTR _<_Args_0>$[ebp]
  00006	8b 08		 mov	 ecx, DWORD PTR [eax]
  00008	8b 45 08	 mov	 eax, DWORD PTR __Obj$[ebp]
  0000b	89 08		 mov	 DWORD PTR [eax], ecx

; 230  :         _Ty(_STD forward<_Types>(_Args)...);
; 231  : }

  0000d	5d		 pop	 ebp
  0000e	c3		 ret	 0
??$_Construct_in_place@PAU?$_Tree_node@U?$pair@$$CBMUCDynamicSphereInstance@@@std@@PAX@std@@ABQAU12@@std@@YAXAAPAU?$_Tree_node@U?$pair@$$CBMUCDynamicSphereInstance@@@std@@PAX@0@ABQAU10@@Z ENDP ; std::_Construct_in_place<std::_Tree_node<std::pair<float const ,CDynamicSphereInstance>,void *> *,std::_Tree_node<std::pair<float const ,CDynamicSphereInstance>,void *> * const &>
_TEXT	ENDS
; Function compile flags: /Ogtp
; File C:\Program Files (x86)\Microsoft Visual Studio\2019\Community\VC\Tools\MSVC\14.27.29110\include\xmemory
;	COMDAT ??1?$_Alloc_construct_ptr@V?$allocator@U?$_Tree_node@U?$pair@$$CBMUCDynamicSphereInstance@@@std@@PAX@std@@@std@@@std@@QAE@XZ
_TEXT	SEGMENT
??1?$_Alloc_construct_ptr@V?$allocator@U?$_Tree_node@U?$pair@$$CBMUCDynamicSphereInstance@@@std@@PAX@std@@@std@@@std@@QAE@XZ PROC ; std::_Alloc_construct_ptr<std::allocator<std::_Tree_node<std::pair<float const ,CDynamicSphereInstance>,void *> > >::~_Alloc_construct_ptr<std::allocator<std::_Tree_node<std::pair<float const ,CDynamicSphereInstance>,void *> > >, COMDAT
; _this$ = ecx

; 1052 :         if (_Ptr) {

  00000	8b 41 04	 mov	 eax, DWORD PTR [ecx+4]
  00003	85 c0		 test	 eax, eax
  00005	74 0b		 je	 SHORT $LN2@Alloc_cons

; 803  :         _Deallocate<_New_alignof<_Ty>>(_Ptr, sizeof(_Ty) * _Count);

  00007	6a 30		 push	 48			; 00000030H
  00009	50		 push	 eax
  0000a	e8 00 00 00 00	 call	 ??$_Deallocate@$07$0A@@std@@YAXPAXI@Z ; std::_Deallocate<8,0>
  0000f	83 c4 08	 add	 esp, 8
$LN2@Alloc_cons:

; 1053 :             _Al.deallocate(_Ptr, 1);
; 1054 :         }
; 1055 :     }

  00012	c3		 ret	 0
??1?$_Alloc_construct_ptr@V?$allocator@U?$_Tree_node@U?$pair@$$CBMUCDynamicSphereInstance@@@std@@PAX@std@@@std@@@std@@QAE@XZ ENDP ; std::_Alloc_construct_ptr<std::allocator<std::_Tree_node<std::pair<float const ,CDynamicSphereInstance>,void *> > >::~_Alloc_construct_ptr<std::allocator<std::_Tree_node<std::pair<float const ,CDynamicSphereInstance>,void *> > >
_TEXT	ENDS
; Function compile flags: /Ogtp
; File C:\Program Files (x86)\Microsoft Visual Studio\2019\Community\VC\Tools\MSVC\14.27.29110\include\vector
; File C:\Program Files (x86)\Microsoft Visual Studio\2019\Community\VC\Tools\MSVC\14.27.29110\include\xmemory
; File C:\Program Files (x86)\Microsoft Visual Studio\2019\Community\VC\Tools\MSVC\14.27.29110\include\vector
; File C:\Program Files (x86)\Microsoft Visual Studio\2019\Community\VC\Tools\MSVC\14.27.29110\include\xmemory
; File C:\Program Files (x86)\Microsoft Visual Studio\2019\Community\VC\Tools\MSVC\14.27.29110\include\vector
; File C:\Program Files (x86)\Microsoft Visual Studio\2019\Community\VC\Tools\MSVC\14.27.29110\include\xmemory
; File C:\Program Files (x86)\Microsoft Visual Studio\2019\Community\VC\Tools\MSVC\14.27.29110\include\vector
; File C:\Program Files (x86)\Microsoft Visual Studio\2019\Community\VC\Tools\MSVC\14.27.29110\include\xmemory
; File C:\Program Files (x86)\Microsoft Visual Studio\2019\Community\VC\Tools\MSVC\14.27.29110\include\vector
;	COMDAT ??$_Resize_reallocate@U_Value_init_tag@std@@@?$vector@VCSphereCollisionInstance@@V?$allocator@VCSphereCollisionInstance@@@std@@@std@@AAEXIABU_Value_init_tag@1@@Z
_TEXT	SEGMENT
tv299 = -4						; size = 4
__Oldsize$1$ = 8					; size = 4
__Newsize$ = 8						; size = 4
__Val$ = 12						; size = 4
??$_Resize_reallocate@U_Value_init_tag@std@@@?$vector@VCSphereCollisionInstance@@V?$allocator@VCSphereCollisionInstance@@@std@@@std@@AAEXIABU_Value_init_tag@1@@Z PROC ; std::vector<CSphereCollisionInstance,std::allocator<CSphereCollisionInstance> >::_Resize_reallocate<std::_Value_init_tag>, COMDAT
; _this$ = ecx

; 1182 :     void _Resize_reallocate(const size_type _Newsize, const _Ty2& _Val) {

  00000	55		 push	 ebp
  00001	8b ec		 mov	 ebp, esp
  00003	51		 push	 ecx
  00004	53		 push	 ebx
  00005	56		 push	 esi
  00006	57		 push	 edi

; 1183 :         if (_Newsize > max_size()) {

  00007	8b 7d 08	 mov	 edi, DWORD PTR __Newsize$[ebp]
  0000a	8b d9		 mov	 ebx, ecx
  0000c	81 ff cc cc cc
	0c		 cmp	 edi, 214748364		; 0cccccccH
  00012	0f 87 d2 00 00
	00		 ja	 $LN36@Resize_rea

; 1185 :         }
; 1186 : 
; 1187 :         auto& _My_data    = _Mypair._Myval2;
; 1188 :         pointer& _Myfirst = _My_data._Myfirst;
; 1189 :         pointer& _Mylast  = _My_data._Mylast;
; 1190 : 
; 1191 :         const auto _Oldsize          = static_cast<size_type>(_Mylast - _Myfirst);

  00018	8b 4b 04	 mov	 ecx, DWORD PTR [ebx+4]
  0001b	b8 67 66 66 66	 mov	 eax, 1717986919		; 66666667H
  00020	2b 0b		 sub	 ecx, DWORD PTR [ebx]
  00022	f7 e9		 imul	 ecx

; 1494 :         return static_cast<size_type>(_My_data._Myend - _My_data._Myfirst);

  00024	8b 4b 08	 mov	 ecx, DWORD PTR [ebx+8]
  00027	2b 0b		 sub	 ecx, DWORD PTR [ebx]

; 1185 :         }
; 1186 : 
; 1187 :         auto& _My_data    = _Mypair._Myval2;
; 1188 :         pointer& _Myfirst = _My_data._Myfirst;
; 1189 :         pointer& _Mylast  = _My_data._Mylast;
; 1190 : 
; 1191 :         const auto _Oldsize          = static_cast<size_type>(_Mylast - _Myfirst);

  00029	c1 fa 03	 sar	 edx, 3
  0002c	8b c2		 mov	 eax, edx
  0002e	c1 e8 1f	 shr	 eax, 31			; 0000001fH
  00031	03 c2		 add	 eax, edx
  00033	89 45 08	 mov	 DWORD PTR __Oldsize$1$[ebp], eax

; 1494 :         return static_cast<size_type>(_My_data._Myend - _My_data._Myfirst);

  00036	b8 67 66 66 66	 mov	 eax, 1717986919		; 66666667H
  0003b	f7 e9		 imul	 ecx

; 1619 :         if (_Oldcapacity > max_size() - _Oldcapacity / 2) {

  0003d	b8 cc cc cc 0c	 mov	 eax, 214748364		; 0cccccccH

; 1494 :         return static_cast<size_type>(_My_data._Myend - _My_data._Myfirst);

  00042	c1 fa 03	 sar	 edx, 3
  00045	8b ca		 mov	 ecx, edx
  00047	c1 e9 1f	 shr	 ecx, 31			; 0000001fH
  0004a	03 ca		 add	 ecx, edx

; 1619 :         if (_Oldcapacity > max_size() - _Oldcapacity / 2) {

  0004c	8b d1		 mov	 edx, ecx
  0004e	d1 ea		 shr	 edx, 1
  00050	2b c2		 sub	 eax, edx
  00052	3b c8		 cmp	 ecx, eax
  00054	77 14		 ja	 SHORT $LN34@Resize_rea

; 1620 :             return _Newsize; // geometric growth would overflow
; 1621 :         }
; 1622 : 
; 1623 :         const size_type _Geometric = _Oldcapacity + _Oldcapacity / 2;

  00056	8d 04 0a	 lea	 eax, DWORD PTR [edx+ecx]

; 1624 : 
; 1625 :         if (_Geometric < _Newsize) {

  00059	3b c7		 cmp	 eax, edi
  0005b	72 0d		 jb	 SHORT $LN34@Resize_rea
; File C:\Program Files (x86)\Microsoft Visual Studio\2019\Community\VC\Tools\MSVC\14.27.29110\include\xmemory

; 60   :         if (_Count > _Max_possible) {

  0005d	3d cc cc cc 0c	 cmp	 eax, 214748364		; 0cccccccH
  00062	0f 87 87 00 00
	00		 ja	 $LN37@Resize_rea
  00068	eb 02		 jmp	 SHORT $LN18@Resize_rea
$LN34@Resize_rea:

; 62   :         }
; 63   :     }
; 64   : 
; 65   :     return _Count * _Ty_size;

  0006a	8b c7		 mov	 eax, edi
$LN18@Resize_rea:
  0006c	8d 04 80	 lea	 eax, DWORD PTR [eax+eax*4]
  0006f	c1 e0 02	 shl	 eax, 2

; 807  :         return static_cast<_Ty*>(_Allocate<_New_alignof<_Ty>>(_Get_size_of_n<sizeof(_Ty)>(_Count)));

  00072	50		 push	 eax

; 65   :     return _Count * _Ty_size;

  00073	89 45 fc	 mov	 DWORD PTR tv299[ebp], eax

; 807  :         return static_cast<_Ty*>(_Allocate<_New_alignof<_Ty>>(_Get_size_of_n<sizeof(_Ty)>(_Count)));

  00076	e8 00 00 00 00	 call	 ??$_Allocate@$07U_Default_allocate_traits@std@@$0A@@std@@YAPAXI@Z ; std::_Allocate<8,std::_Default_allocate_traits,0>
; File C:\Program Files (x86)\Microsoft Visual Studio\2019\Community\VC\Tools\MSVC\14.27.29110\include\vector

; 1199 :         _Appended_last = _Ufill(_Appended_first, _Newsize - _Oldsize, _Val);

  0007b	8b 4d 08	 mov	 ecx, DWORD PTR __Oldsize$1$[ebp]
; File C:\Program Files (x86)\Microsoft Visual Studio\2019\Community\VC\Tools\MSVC\14.27.29110\include\xmemory

; 807  :         return static_cast<_Ty*>(_Allocate<_New_alignof<_Ty>>(_Get_size_of_n<sizeof(_Ty)>(_Count)));

  0007e	8b f0		 mov	 esi, eax
; File C:\Program Files (x86)\Microsoft Visual Studio\2019\Community\VC\Tools\MSVC\14.27.29110\include\vector

; 1199 :         _Appended_last = _Ufill(_Appended_first, _Newsize - _Oldsize, _Val);

  00080	8b c7		 mov	 eax, edi
  00082	2b c1		 sub	 eax, ecx

; 1583 :         return _Uninitialized_value_construct_n(_Dest, _Count, _Getal());

  00084	53		 push	 ebx
  00085	50		 push	 eax

; 1192 :         const size_type _Newcapacity = _Calculate_growth(_Newsize);
; 1193 : 
; 1194 :         const pointer _Newvec         = _Getal().allocate(_Newcapacity);
; 1195 :         const pointer _Appended_first = _Newvec + _Oldsize;

  00086	8d 04 89	 lea	 eax, DWORD PTR [ecx+ecx*4]
  00089	8d 04 86	 lea	 eax, DWORD PTR [esi+eax*4]

; 1583 :         return _Uninitialized_value_construct_n(_Dest, _Count, _Getal());

  0008c	50		 push	 eax
  0008d	e8 00 00 00 00	 call	 ??$_Uninitialized_value_construct_n@V?$allocator@VCSphereCollisionInstance@@@std@@@std@@YAPAVCSphereCollisionInstance@@PAV1@IAAV?$allocator@VCSphereCollisionInstance@@@0@@Z ; std::_Uninitialized_value_construct_n<std::allocator<CSphereCollisionInstance> >

; 1597 :         _Uninitialized_move(_First, _Last, _Dest, _Getal());

  00092	53		 push	 ebx
  00093	56		 push	 esi
  00094	ff 73 04	 push	 DWORD PTR [ebx+4]
  00097	ff 33		 push	 DWORD PTR [ebx]
  00099	e8 00 00 00 00	 call	 ??$_Uninitialized_move@PAVCSphereCollisionInstance@@V?$allocator@VCSphereCollisionInstance@@@std@@@std@@YAPAVCSphereCollisionInstance@@QAV1@0PAV1@AAV?$allocator@VCSphereCollisionInstance@@@0@@Z ; std::_Uninitialized_move<CSphereCollisionInstance *,std::allocator<CSphereCollisionInstance> >

; 1675 :         if (_Myfirst) { // destroy and deallocate old array

  0009e	8b 03		 mov	 eax, DWORD PTR [ebx]

; 1597 :         _Uninitialized_move(_First, _Last, _Dest, _Getal());

  000a0	83 c4 20	 add	 esp, 32			; 00000020H

; 1675 :         if (_Myfirst) { // destroy and deallocate old array

  000a3	85 c0		 test	 eax, eax
  000a5	74 27		 je	 SHORT $LN29@Resize_rea

; 1676 :             _Destroy(_Myfirst, _Mylast);
; 1677 :             _Getal().deallocate(_Myfirst, static_cast<size_type>(_Myend - _Myfirst));

  000a7	8b 4b 08	 mov	 ecx, DWORD PTR [ebx+8]
  000aa	2b c8		 sub	 ecx, eax
  000ac	b8 67 66 66 66	 mov	 eax, 1717986919		; 66666667H
  000b1	f7 e9		 imul	 ecx
  000b3	c1 fa 03	 sar	 edx, 3
  000b6	8b c2		 mov	 eax, edx
  000b8	c1 e8 1f	 shr	 eax, 31			; 0000001fH
  000bb	03 c2		 add	 eax, edx
; File C:\Program Files (x86)\Microsoft Visual Studio\2019\Community\VC\Tools\MSVC\14.27.29110\include\xmemory

; 803  :         _Deallocate<_New_alignof<_Ty>>(_Ptr, sizeof(_Ty) * _Count);

  000bd	8d 04 80	 lea	 eax, DWORD PTR [eax+eax*4]
  000c0	c1 e0 02	 shl	 eax, 2
  000c3	50		 push	 eax
  000c4	ff 33		 push	 DWORD PTR [ebx]
  000c6	e8 00 00 00 00	 call	 ??$_Deallocate@$07$0A@@std@@YAXPAXI@Z ; std::_Deallocate<8,0>
  000cb	83 c4 08	 add	 esp, 8
$LN29@Resize_rea:
; File C:\Program Files (x86)\Microsoft Visual Studio\2019\Community\VC\Tools\MSVC\14.27.29110\include\vector

; 1681 :         _Mylast  = _Newvec + _Newsize;

  000ce	8d 04 bf	 lea	 eax, DWORD PTR [edi+edi*4]
  000d1	89 33		 mov	 DWORD PTR [ebx], esi
  000d3	8d 04 86	 lea	 eax, DWORD PTR [esi+eax*4]
  000d6	89 43 04	 mov	 DWORD PTR [ebx+4], eax

; 1682 :         _Myend   = _Newvec + _Newcapacity;

  000d9	8b 45 fc	 mov	 eax, DWORD PTR tv299[ebp]
  000dc	5f		 pop	 edi
  000dd	03 c6		 add	 eax, esi
  000df	5e		 pop	 esi
  000e0	89 43 08	 mov	 DWORD PTR [ebx+8], eax
  000e3	5b		 pop	 ebx

; 1208 :     }

  000e4	8b e5		 mov	 esp, ebp
  000e6	5d		 pop	 ebp
  000e7	c2 08 00	 ret	 8
$LN36@Resize_rea:

; 1184 :             _Xlength();

  000ea	e8 00 00 00 00	 call	 ?_Xlength@?$vector@VCSphereCollisionInstance@@V?$allocator@VCSphereCollisionInstance@@@std@@@std@@CAXXZ ; std::vector<CSphereCollisionInstance,std::allocator<CSphereCollisionInstance> >::_Xlength
$LN37@Resize_rea:
; File C:\Program Files (x86)\Microsoft Visual Studio\2019\Community\VC\Tools\MSVC\14.27.29110\include\xmemory

; 61   :             _Throw_bad_array_new_length(); // multiply overflow

  000ef	e8 00 00 00 00	 call	 ?_Throw_bad_array_new_length@std@@YAXXZ ; std::_Throw_bad_array_new_length
$LN33@Resize_rea:
  000f4	cc		 int	 3
??$_Resize_reallocate@U_Value_init_tag@std@@@?$vector@VCSphereCollisionInstance@@V?$allocator@VCSphereCollisionInstance@@@std@@@std@@AAEXIABU_Value_init_tag@1@@Z ENDP ; std::vector<CSphereCollisionInstance,std::allocator<CSphereCollisionInstance> >::_Resize_reallocate<std::_Value_init_tag>
_TEXT	ENDS
; Function compile flags: /Ogtp
; File C:\Program Files (x86)\Microsoft Visual Studio\2019\Community\VC\Tools\MSVC\14.27.29110\include\vector
; File C:\Program Files (x86)\Microsoft Visual Studio\2019\Community\VC\Tools\MSVC\14.27.29110\include\xmemory
; File C:\Program Files (x86)\Microsoft Visual Studio\2019\Community\VC\Tools\MSVC\14.27.29110\include\vector
; File C:\Program Files (x86)\Microsoft Visual Studio\2019\Community\VC\Tools\MSVC\14.27.29110\include\xmemory
; File C:\Program Files (x86)\Microsoft Visual Studio\2019\Community\VC\Tools\MSVC\14.27.29110\include\vector
; File C:\Program Files (x86)\Microsoft Visual Studio\2019\Community\VC\Tools\MSVC\14.27.29110\include\xmemory
; File C:\Program Files (x86)\Microsoft Visual Studio\2019\Community\VC\Tools\MSVC\14.27.29110\include\vector
; File C:\Program Files (x86)\Microsoft Visual Studio\2019\Community\VC\Tools\MSVC\14.27.29110\include\xmemory
; File C:\Program Files (x86)\Microsoft Visual Studio\2019\Community\VC\Tools\MSVC\14.27.29110\include\vector
; File C:\Program Files (x86)\Microsoft Visual Studio\2019\Community\VC\Tools\MSVC\14.27.29110\include\xmemory
; File C:\Program Files (x86)\Microsoft Visual Studio\2019\Community\VC\Tools\MSVC\14.27.29110\include\vector
;	COMDAT ??$_Resize_reallocate@U_Value_init_tag@std@@@?$vector@USAttachingData@NRaceData@@V?$allocator@USAttachingData@NRaceData@@@std@@@std@@AAEXIABU_Value_init_tag@1@@Z
_TEXT	SEGMENT
tv302 = -8						; size = 4
__Newvec$1$ = -4					; size = 4
__Oldsize$1$ = 8					; size = 4
__Newsize$ = 8						; size = 4
__Val$ = 12						; size = 4
??$_Resize_reallocate@U_Value_init_tag@std@@@?$vector@USAttachingData@NRaceData@@V?$allocator@USAttachingData@NRaceData@@@std@@@std@@AAEXIABU_Value_init_tag@1@@Z PROC ; std::vector<NRaceData::SAttachingData,std::allocator<NRaceData::SAttachingData> >::_Resize_reallocate<std::_Value_init_tag>, COMDAT
; _this$ = ecx

; 1182 :     void _Resize_reallocate(const size_type _Newsize, const _Ty2& _Val) {

  00000	55		 push	 ebp
  00001	8b ec		 mov	 ebp, esp
  00003	83 ec 08	 sub	 esp, 8
  00006	53		 push	 ebx

; 1183 :         if (_Newsize > max_size()) {

  00007	8b 5d 08	 mov	 ebx, DWORD PTR __Newsize$[ebp]
  0000a	56		 push	 esi
  0000b	57		 push	 edi
  0000c	8b f9		 mov	 edi, ecx
  0000e	81 fb 55 55 55
	05		 cmp	 ebx, 89478485		; 05555555H
  00014	0f 87 e7 00 00
	00		 ja	 $LN38@Resize_rea

; 1185 :         }
; 1186 : 
; 1187 :         auto& _My_data    = _Mypair._Myval2;
; 1188 :         pointer& _Myfirst = _My_data._Myfirst;
; 1189 :         pointer& _Mylast  = _My_data._Mylast;
; 1190 : 
; 1191 :         const auto _Oldsize          = static_cast<size_type>(_Mylast - _Myfirst);

  0001a	8b 4f 04	 mov	 ecx, DWORD PTR [edi+4]
  0001d	b8 ab aa aa 2a	 mov	 eax, 715827883		; 2aaaaaabH
  00022	2b 0f		 sub	 ecx, DWORD PTR [edi]
  00024	f7 e9		 imul	 ecx

; 1494 :         return static_cast<size_type>(_My_data._Myend - _My_data._Myfirst);

  00026	8b 4f 08	 mov	 ecx, DWORD PTR [edi+8]
  00029	2b 0f		 sub	 ecx, DWORD PTR [edi]

; 1185 :         }
; 1186 : 
; 1187 :         auto& _My_data    = _Mypair._Myval2;
; 1188 :         pointer& _Myfirst = _My_data._Myfirst;
; 1189 :         pointer& _Mylast  = _My_data._Mylast;
; 1190 : 
; 1191 :         const auto _Oldsize          = static_cast<size_type>(_Mylast - _Myfirst);

  0002b	c1 fa 03	 sar	 edx, 3
  0002e	8b c2		 mov	 eax, edx
  00030	c1 e8 1f	 shr	 eax, 31			; 0000001fH
  00033	03 c2		 add	 eax, edx
  00035	89 45 08	 mov	 DWORD PTR __Oldsize$1$[ebp], eax

; 1494 :         return static_cast<size_type>(_My_data._Myend - _My_data._Myfirst);

  00038	b8 ab aa aa 2a	 mov	 eax, 715827883		; 2aaaaaabH
  0003d	f7 e9		 imul	 ecx

; 1619 :         if (_Oldcapacity > max_size() - _Oldcapacity / 2) {

  0003f	b8 55 55 55 05	 mov	 eax, 89478485		; 05555555H

; 1494 :         return static_cast<size_type>(_My_data._Myend - _My_data._Myfirst);

  00044	c1 fa 03	 sar	 edx, 3
  00047	8b ca		 mov	 ecx, edx
  00049	c1 e9 1f	 shr	 ecx, 31			; 0000001fH
  0004c	03 ca		 add	 ecx, edx

; 1619 :         if (_Oldcapacity > max_size() - _Oldcapacity / 2) {

  0004e	8b d1		 mov	 edx, ecx
  00050	d1 ea		 shr	 edx, 1
  00052	2b c2		 sub	 eax, edx
  00054	3b c8		 cmp	 ecx, eax
  00056	77 14		 ja	 SHORT $LN36@Resize_rea

; 1620 :             return _Newsize; // geometric growth would overflow
; 1621 :         }
; 1622 : 
; 1623 :         const size_type _Geometric = _Oldcapacity + _Oldcapacity / 2;

  00058	8d 04 0a	 lea	 eax, DWORD PTR [edx+ecx]

; 1624 : 
; 1625 :         if (_Geometric < _Newsize) {

  0005b	3b c3		 cmp	 eax, ebx
  0005d	72 0d		 jb	 SHORT $LN36@Resize_rea
; File C:\Program Files (x86)\Microsoft Visual Studio\2019\Community\VC\Tools\MSVC\14.27.29110\include\xmemory

; 60   :         if (_Count > _Max_possible) {

  0005f	3d 55 55 55 05	 cmp	 eax, 89478485		; 05555555H
  00064	0f 87 9c 00 00
	00		 ja	 $LN39@Resize_rea
  0006a	eb 02		 jmp	 SHORT $LN18@Resize_rea
$LN36@Resize_rea:

; 62   :         }
; 63   :     }
; 64   : 
; 65   :     return _Count * _Ty_size;

  0006c	8b c3		 mov	 eax, ebx
$LN18@Resize_rea:
  0006e	8d 04 40	 lea	 eax, DWORD PTR [eax+eax*2]
  00071	c1 e0 04	 shl	 eax, 4

; 807  :         return static_cast<_Ty*>(_Allocate<_New_alignof<_Ty>>(_Get_size_of_n<sizeof(_Ty)>(_Count)));

  00074	50		 push	 eax

; 65   :     return _Count * _Ty_size;

  00075	89 45 f8	 mov	 DWORD PTR tv302[ebp], eax

; 807  :         return static_cast<_Ty*>(_Allocate<_New_alignof<_Ty>>(_Get_size_of_n<sizeof(_Ty)>(_Count)));

  00078	e8 00 00 00 00	 call	 ??$_Allocate@$07U_Default_allocate_traits@std@@$0A@@std@@YAPAXI@Z ; std::_Allocate<8,std::_Default_allocate_traits,0>
; File C:\Program Files (x86)\Microsoft Visual Studio\2019\Community\VC\Tools\MSVC\14.27.29110\include\vector

; 1199 :         _Appended_last = _Ufill(_Appended_first, _Newsize - _Oldsize, _Val);

  0007d	8b 4d 08	 mov	 ecx, DWORD PTR __Oldsize$1$[ebp]
; File C:\Program Files (x86)\Microsoft Visual Studio\2019\Community\VC\Tools\MSVC\14.27.29110\include\xmemory

; 807  :         return static_cast<_Ty*>(_Allocate<_New_alignof<_Ty>>(_Get_size_of_n<sizeof(_Ty)>(_Count)));

  00080	8b f0		 mov	 esi, eax
; File C:\Program Files (x86)\Microsoft Visual Studio\2019\Community\VC\Tools\MSVC\14.27.29110\include\vector

; 1199 :         _Appended_last = _Ufill(_Appended_first, _Newsize - _Oldsize, _Val);

  00082	8b c3		 mov	 eax, ebx
; File C:\Program Files (x86)\Microsoft Visual Studio\2019\Community\VC\Tools\MSVC\14.27.29110\include\xmemory

; 807  :         return static_cast<_Ty*>(_Allocate<_New_alignof<_Ty>>(_Get_size_of_n<sizeof(_Ty)>(_Count)));

  00084	89 75 fc	 mov	 DWORD PTR __Newvec$1$[ebp], esi
; File C:\Program Files (x86)\Microsoft Visual Studio\2019\Community\VC\Tools\MSVC\14.27.29110\include\vector

; 1199 :         _Appended_last = _Ufill(_Appended_first, _Newsize - _Oldsize, _Val);

  00087	2b c1		 sub	 eax, ecx

; 1583 :         return _Uninitialized_value_construct_n(_Dest, _Count, _Getal());

  00089	57		 push	 edi
  0008a	50		 push	 eax

; 1192 :         const size_type _Newcapacity = _Calculate_growth(_Newsize);
; 1193 : 
; 1194 :         const pointer _Newvec         = _Getal().allocate(_Newcapacity);
; 1195 :         const pointer _Appended_first = _Newvec + _Oldsize;

  0008b	8d 04 49	 lea	 eax, DWORD PTR [ecx+ecx*2]
  0008e	c1 e0 04	 shl	 eax, 4
  00091	03 c6		 add	 eax, esi

; 1583 :         return _Uninitialized_value_construct_n(_Dest, _Count, _Getal());

  00093	50		 push	 eax
  00094	e8 00 00 00 00	 call	 ??$_Uninitialized_value_construct_n@V?$allocator@USAttachingData@NRaceData@@@std@@@std@@YAPAUSAttachingData@NRaceData@@PAU12@IAAV?$allocator@USAttachingData@NRaceData@@@0@@Z ; std::_Uninitialized_value_construct_n<std::allocator<NRaceData::SAttachingData> >

; 1597 :         _Uninitialized_move(_First, _Last, _Dest, _Getal());

  00099	57		 push	 edi
  0009a	56		 push	 esi
  0009b	ff 77 04	 push	 DWORD PTR [edi+4]
  0009e	ff 37		 push	 DWORD PTR [edi]
  000a0	e8 00 00 00 00	 call	 ??$_Uninitialized_move@PAUSAttachingData@NRaceData@@V?$allocator@USAttachingData@NRaceData@@@std@@@std@@YAPAUSAttachingData@NRaceData@@QAU12@0PAU12@AAV?$allocator@USAttachingData@NRaceData@@@0@@Z ; std::_Uninitialized_move<NRaceData::SAttachingData *,std::allocator<NRaceData::SAttachingData> >

; 1675 :         if (_Myfirst) { // destroy and deallocate old array

  000a5	8b 0f		 mov	 ecx, DWORD PTR [edi]

