; Listing generated by Microsoft (R) Optimizing Compiler Version 19.27.29112.0 

	TITLE	C:\DS Project\DS Files\Source\ClientSource\Client\GameLib\MapManager.cpp
	.686P
	.XMM
	include listing.inc
	.model	flat

INCLUDELIB LIBCMT
INCLUDELIB OLDNAMES

PUBLIC	??_H@YGXPAXIIP6EPAX0@Z@Z			; `vector constructor iterator'
PUBLIC	___local_stdio_scanf_options
PUBLIC	_sscanf
PUBLIC	??0exception@std@@QAE@ABV01@@Z			; std::exception::exception
PUBLIC	??1exception@std@@UAE@XZ			; std::exception::~exception
PUBLIC	?what@exception@std@@UBEPBDXZ			; std::exception::what
PUBLIC	??_Gexception@std@@UAEPAXI@Z			; std::exception::`scalar deleting destructor'
PUBLIC	??0bad_alloc@std@@QAE@ABV01@@Z			; std::bad_alloc::bad_alloc
PUBLIC	??_Gbad_alloc@std@@UAEPAXI@Z			; std::bad_alloc::`scalar deleting destructor'
PUBLIC	??0bad_array_new_length@std@@QAE@XZ		; std::bad_array_new_length::bad_array_new_length
PUBLIC	??1bad_array_new_length@std@@UAE@XZ		; std::bad_array_new_length::~bad_array_new_length
PUBLIC	??0bad_array_new_length@std@@QAE@ABV01@@Z	; std::bad_array_new_length::bad_array_new_length
PUBLIC	??_Gbad_array_new_length@std@@UAEPAXI@Z		; std::bad_array_new_length::`scalar deleting destructor'
PUBLIC	?_Throw_bad_array_new_length@std@@YAXXZ		; std::_Throw_bad_array_new_length
PUBLIC	?_Xlen_string@std@@YAXXZ			; std::_Xlen_string
PUBLIC	??0?$basic_string@DU?$char_traits@D@std@@V?$allocator@D@2@@std@@QAE@XZ ; std::basic_string<char,std::char_traits<char>,std::allocator<char> >::basic_string<char,std::char_traits<char>,std::allocator<char> >
PUBLIC	??1?$basic_string@DU?$char_traits@D@std@@V?$allocator@D@2@@std@@QAE@XZ ; std::basic_string<char,std::char_traits<char>,std::allocator<char> >::~basic_string<char,std::char_traits<char>,std::allocator<char> >
PUBLIC	?assign@?$basic_string@DU?$char_traits@D@std@@V?$allocator@D@2@@std@@QAEAAV12@QBDI@Z ; std::basic_string<char,std::char_traits<char>,std::allocator<char> >::assign
PUBLIC	?_Throw_tree_length_error@std@@YAXXZ		; std::_Throw_tree_length_error
PUBLIC	??$?8DU?$char_traits@D@std@@V?$allocator@D@1@@std@@YA_NABV?$basic_string@DU?$char_traits@D@std@@V?$allocator@D@2@@0@0@Z ; std::operator==<char,std::char_traits<char>,std::allocator<char> >
PUBLIC	??_GSEnvironmentData@@QAEPAXI@Z			; SEnvironmentData::`scalar deleting destructor'
PUBLIC	??$_Destroy_in_place@PAD@std@@YAXAAPAD@Z	; std::_Destroy_in_place<char *>
PUBLIC	??$_Pocca@V?$allocator@D@std@@@std@@YAXAAV?$allocator@D@0@ABV10@@Z ; std::_Pocca<std::allocator<char> >
PUBLIC	??$_Construct_in_place@PADABQAD@std@@YAXAAPADABQAD@Z ; std::_Construct_in_place<char *,char * const &>
PUBLIC	??$_Deallocate@$07$0A@@std@@YAXPAXI@Z		; std::_Deallocate<8,0>
PUBLIC	??$_Allocate@$07U_Default_allocate_traits@std@@$0A@@std@@YAPAXI@Z ; std::_Allocate<8,std::_Default_allocate_traits,0>
PUBLIC	??$_Allocate_manually_vector_aligned@U_Default_allocate_traits@std@@@std@@YAPAXI@Z ; std::_Allocate_manually_vector_aligned<std::_Default_allocate_traits>
PUBLIC	??$_Traits_equal@U?$char_traits@D@std@@@std@@YA_NQBDI0I@Z ; std::_Traits_equal<std::char_traits<char> >
PUBLIC	??1IPhysicsWorld@@UAE@XZ			; IPhysicsWorld::~IPhysicsWorld
PUBLIC	??_GIPhysicsWorld@@UAEPAXI@Z			; IPhysicsWorld::`scalar deleting destructor'
PUBLIC	??0CMapManager@@QAE@XZ				; CMapManager::CMapManager
PUBLIC	??1CMapManager@@UAE@XZ				; CMapManager::~CMapManager
PUBLIC	?IsMapOutdoor@CMapManager@@QAE_NXZ		; CMapManager::IsMapOutdoor
PUBLIC	?GetMapOutdoorRef@CMapManager@@QAEAAVCMapOutdoor@@XZ ; CMapManager::GetMapOutdoorRef
PUBLIC	?IsSoftwareTilingEnable@CMapManager@@QAE_NXZ	; CMapManager::IsSoftwareTilingEnable
PUBLIC	?ReserveSoftwareTilingEnable@CMapManager@@QAEX_N@Z ; CMapManager::ReserveSoftwareTilingEnable
PUBLIC	?Initialize@CMapManager@@QAEXXZ			; CMapManager::Initialize
PUBLIC	?Destroy@CMapManager@@QAEXXZ			; CMapManager::Destroy
PUBLIC	?Create@CMapManager@@QAEXXZ			; CMapManager::Create
PUBLIC	?Clear@CMapManager@@UAEXXZ			; CMapManager::Clear
PUBLIC	?AllocMap@CMapManager@@UAEPAVCMapBase@@XZ	; CMapManager::AllocMap
PUBLIC	?IsMapReady@CMapManager@@QAE_NXZ		; CMapManager::IsMapReady
PUBLIC	?LoadMap@CMapManager@@UAE_NABV?$basic_string@DU?$char_traits@D@std@@V?$allocator@D@2@@std@@MMM@Z ; CMapManager::LoadMap
PUBLIC	?UnloadMap@CMapManager@@QAE_NV?$basic_string@DU?$char_traits@D@std@@V?$allocator@D@2@@std@@@Z ; CMapManager::UnloadMap
PUBLIC	?UpdateMap@CMapManager@@QAE_NMMM@Z		; CMapManager::UpdateMap
PUBLIC	?UpdateAroundAmbience@CMapManager@@QAEXMMM@Z	; CMapManager::UpdateAroundAmbience
PUBLIC	?GetHeight@CMapManager@@QAEMMM@Z		; CMapManager::GetHeight
PUBLIC	?GetTerrainHeight@CMapManager@@QAEMMM@Z		; CMapManager::GetTerrainHeight
PUBLIC	?GetWaterHeight@CMapManager@@QAE_NHHPAJ@Z	; CMapManager::GetWaterHeight
PUBLIC	?GetNormal@CMapManager@@QAE_NHHPAUD3DXVECTOR3@@@Z ; CMapManager::GetNormal
PUBLIC	?SetEnvironmentDataPtr@CMapManager@@QAEXPBUSEnvironmentData@@@Z ; CMapManager::SetEnvironmentDataPtr
PUBLIC	?ResetEnvironmentDataPtr@CMapManager@@QAEXPBUSEnvironmentData@@@Z ; CMapManager::ResetEnvironmentDataPtr
PUBLIC	?SetEnvironmentData@CMapManager@@QAEXH@Z	; CMapManager::SetEnvironmentData
PUBLIC	?BeginEnvironment@CMapManager@@QAEXXZ		; CMapManager::BeginEnvironment
PUBLIC	?EndEnvironment@CMapManager@@QAEXXZ		; CMapManager::EndEnvironment
PUBLIC	?BlendEnvironmentData@CMapManager@@QAEXPBUSEnvironmentData@@H@Z ; CMapManager::BlendEnvironmentData
PUBLIC	?GetCurrentEnvironmentData@CMapManager@@QAEXPAPBUSEnvironmentData@@@Z ; CMapManager::GetCurrentEnvironmentData
PUBLIC	?RegisterEnvironmentData@CMapManager@@QAE_NKPBD@Z ; CMapManager::RegisterEnvironmentData
PUBLIC	?GetEnvironmentData@CMapManager@@QAE_NKPAPBUSEnvironmentData@@@Z ; CMapManager::GetEnvironmentData
PUBLIC	?RefreshPortal@CMapManager@@QAEXXZ		; CMapManager::RefreshPortal
PUBLIC	?ClearPortal@CMapManager@@QAEXXZ		; CMapManager::ClearPortal
PUBLIC	?AddShowingPortalID@CMapManager@@QAEXH@Z	; CMapManager::AddShowingPortalID
PUBLIC	?LoadProperty@CMapManager@@QAEXXZ		; CMapManager::LoadProperty
PUBLIC	?GetShadowMapColor@CMapManager@@QAEKMM@Z	; CMapManager::GetShadowMapColor
PUBLIC	?isPhysicalCollision@CMapManager@@UAE_NABUD3DXVECTOR3@@@Z ; CMapManager::isPhysicalCollision
PUBLIC	?isAttrOn@CMapManager@@QAE_NMME@Z		; CMapManager::isAttrOn
PUBLIC	?GetAttr@CMapManager@@QAE_NMMPAE@Z		; CMapManager::GetAttr
PUBLIC	?isAttrOn@CMapManager@@QAE_NHHE@Z		; CMapManager::isAttrOn
PUBLIC	?GetAttr@CMapManager@@QAE_NHHPAE@Z		; CMapManager::GetAttr
PUBLIC	?GetRenderedSplatNum@CMapManager@@QAEAAV?$vector@HV?$allocator@H@std@@@std@@PAH0PAM@Z ; CMapManager::GetRenderedSplatNum
PUBLIC	?GetRenderedGraphicThingInstanceNum@CMapManager@@QAEAAV?$vector@USCRCWithNumber@CArea@@V?$allocator@USCRCWithNumber@CArea@@@std@@@std@@PAK0@Z ; CMapManager::GetRenderedGraphicThingInstanceNum
PUBLIC	?AllocEnvironmentData@CMapManager@@IAEPAUSEnvironmentData@@XZ ; CMapManager::AllocEnvironmentData
PUBLIC	?DeleteEnvironmentData@CMapManager@@IAEXPAUSEnvironmentData@@@Z ; CMapManager::DeleteEnvironmentData
PUBLIC	?LoadEnvironmentData@CMapManager@@IAEHPBDPAUSEnvironmentData@@@Z ; CMapManager::LoadEnvironmentData
PUBLIC	??1?$_Tree@V?$_Tmap_traits@KPAUSEnvironmentData@@U?$less@K@std@@V?$allocator@U?$pair@$$CBKPAUSEnvironmentData@@@std@@@3@$0A@@std@@@std@@QAE@XZ ; std::_Tree<std::_Tmap_traits<unsigned long,SEnvironmentData *,std::less<unsigned long>,std::allocator<std::pair<unsigned long const ,SEnvironmentData *> >,0> >::~_Tree<std::_Tmap_traits<unsigned long,SEnvironmentData *,std::less<unsigned long>,std::allocator<std::pair<unsigned long const ,SEnvironmentData *> >,0> >
PUBLIC	?_Insert_node@?$_Tree_val@U?$_Tree_simple_types@U?$pair@$$CBKPAUSEnvironmentData@@@std@@@std@@@std@@QAEPAU?$_Tree_node@U?$pair@$$CBKPAUSEnvironmentData@@@std@@PAX@2@U?$_Tree_id@PAU?$_Tree_node@U?$pair@$$CBKPAUSEnvironmentData@@@std@@PAX@std@@@2@QAU32@@Z ; std::_Tree_val<std::_Tree_simple_types<std::pair<unsigned long const ,SEnvironmentData *> > >::_Insert_node
PUBLIC	??1?$map@KPAUSEnvironmentData@@U?$less@K@std@@V?$allocator@U?$pair@$$CBKPAUSEnvironmentData@@@std@@@3@@std@@QAE@XZ ; std::map<unsigned long,SEnvironmentData *,std::less<unsigned long>,std::allocator<std::pair<unsigned long const ,SEnvironmentData *> > >::~map<unsigned long,SEnvironmentData *,std::less<unsigned long>,std::allocator<std::pair<unsigned long const ,SEnvironmentData *> > >
PUBLIC	?SetTerrainRenderSort@CMapManager@@QAEXW4ETerrainRenderSort@CMapOutdoor@@@Z ; CMapManager::SetTerrainRenderSort
PUBLIC	?GetTerrainRenderSort@CMapManager@@QAE?AW4ETerrainRenderSort@CMapOutdoor@@XZ ; CMapManager::GetTerrainRenderSort
PUBLIC	?GetBaseXY@CMapManager@@QAEXPAK0@Z		; CMapManager::GetBaseXY
PUBLIC	?SetTransparentTree@CMapManager@@QAEX_N@Z	; CMapManager::SetTransparentTree
PUBLIC	??1TMapInfo@CMapManager@@QAE@XZ			; CMapManager::TMapInfo::~TMapInfo
PUBLIC	?deallocate@?$allocator@UTMapInfo@CMapManager@@@std@@QAEXQAUTMapInfo@CMapManager@@I@Z ; std::allocator<CMapManager::TMapInfo>::deallocate
PUBLIC	?_Destroy@?$vector@UTMapInfo@CMapManager@@V?$allocator@UTMapInfo@CMapManager@@@std@@@std@@AAEXPAUTMapInfo@CMapManager@@0@Z ; std::vector<CMapManager::TMapInfo,std::allocator<CMapManager::TMapInfo> >::_Destroy
PUBLIC	?_Xlength@?$vector@UTMapInfo@CMapManager@@V?$allocator@UTMapInfo@CMapManager@@@std@@@std@@CAXXZ ; std::vector<CMapManager::TMapInfo,std::allocator<CMapManager::TMapInfo> >::_Xlength
PUBLIC	?__LoadMapInfoVector@CMapManager@@IAEXXZ	; CMapManager::__LoadMapInfoVector
PUBLIC	??_GCMapManager@@UAEPAXI@Z			; CMapManager::`scalar deleting destructor'
PUBLIC	??$stl_wipe_second@V?$map@KPAUSEnvironmentData@@U?$less@K@std@@V?$allocator@U?$pair@$$CBKPAUSEnvironmentData@@@std@@@3@@std@@@@YAXAAV?$map@KPAUSEnvironmentData@@U?$less@K@std@@V?$allocator@U?$pair@$$CBKPAUSEnvironmentData@@@std@@@3@@std@@@Z ; stl_wipe_second<std::map<unsigned long,SEnvironmentData *,std::less<unsigned long>,std::allocator<std::pair<unsigned long const ,SEnvironmentData *> > > >
PUBLIC	??$?9DU?$char_traits@D@std@@V?$allocator@D@1@@std@@YA_NABV?$basic_string@DU?$char_traits@D@std@@V?$allocator@D@2@@0@0@Z ; std::operator!=<char,std::char_traits<char>,std::allocator<char> >
PUBLIC	??$?9DU?$char_traits@D@std@@V?$allocator@D@1@@std@@YA_NQBDABV?$basic_string@DU?$char_traits@D@std@@V?$allocator@D@2@@0@@Z ; std::operator!=<char,std::char_traits<char>,std::allocator<char> >
PUBLIC	??$construct@UTMapInfo@CMapManager@@ABU12@@?$_Default_allocator_traits@V?$allocator@UTMapInfo@CMapManager@@@std@@@std@@SAXAAV?$allocator@UTMapInfo@CMapManager@@@1@QAUTMapInfo@CMapManager@@ABU34@@Z ; std::_Default_allocator_traits<std::allocator<CMapManager::TMapInfo> >::construct<CMapManager::TMapInfo,CMapManager::TMapInfo const &>
PUBLIC	??$_Emplace_reallocate@ABUTMapInfo@CMapManager@@@?$vector@UTMapInfo@CMapManager@@V?$allocator@UTMapInfo@CMapManager@@@std@@@std@@QAEPAUTMapInfo@CMapManager@@QAU23@ABU23@@Z ; std::vector<CMapManager::TMapInfo,std::allocator<CMapManager::TMapInfo> >::_Emplace_reallocate<CMapManager::TMapInfo const &>
PUBLIC	??$_Destroy_range@V?$allocator@UTMapInfo@CMapManager@@@std@@@std@@YAXPAUTMapInfo@CMapManager@@QAU12@AAV?$allocator@UTMapInfo@CMapManager@@@0@@Z ; std::_Destroy_range<std::allocator<CMapManager::TMapInfo> >
PUBLIC	??$_Destroy_range@V?$allocator@H@std@@@std@@YAXPAHQAHAAV?$allocator@H@0@@Z ; std::_Destroy_range<std::allocator<int> >
PUBLIC	??$_Destroy_range@V?$allocator@USCRCWithNumber@CArea@@@std@@@std@@YAXPAUSCRCWithNumber@CArea@@QAU12@AAV?$allocator@USCRCWithNumber@CArea@@@0@@Z ; std::_Destroy_range<std::allocator<CArea::SCRCWithNumber> >
PUBLIC	??$_Destroy_range@V?$allocator@UTGradientColor@@@std@@@std@@YAXPAUTGradientColor@@QAU1@AAV?$allocator@UTGradientColor@@@0@@Z ; std::_Destroy_range<std::allocator<TGradientColor> >
PUBLIC	??$?8DU?$char_traits@D@std@@V?$allocator@D@1@@std@@YA_NQBDABV?$basic_string@DU?$char_traits@D@std@@V?$allocator@D@2@@0@@Z ; std::operator==<char,std::char_traits<char>,std::allocator<char> >
PUBLIC	??$_Find_lower_bound@K@?$_Tree@V?$_Tmap_traits@KPAUSEnvironmentData@@U?$less@K@std@@V?$allocator@U?$pair@$$CBKPAUSEnvironmentData@@@std@@@3@$0A@@std@@@std@@IBE?AU?$_Tree_find_result@PAU?$_Tree_node@U?$pair@$$CBKPAUSEnvironmentData@@@std@@PAX@std@@@1@ABK@Z ; std::_Tree<std::_Tmap_traits<unsigned long,SEnvironmentData *,std::less<unsigned long>,std::allocator<std::pair<unsigned long const ,SEnvironmentData *> >,0> >::_Find_lower_bound<unsigned long>
PUBLIC	??$_Erase_tree@V?$allocator@U?$_Tree_node@U?$pair@$$CBKPAUSEnvironmentData@@@std@@PAX@std@@@std@@@?$_Tree_val@U?$_Tree_simple_types@U?$pair@$$CBKPAUSEnvironmentData@@@std@@@std@@@std@@QAEXAAV?$allocator@U?$_Tree_node@U?$pair@$$CBKPAUSEnvironmentData@@@std@@PAX@std@@@1@PAU?$_Tree_node@U?$pair@$$CBKPAUSEnvironmentData@@@std@@PAX@1@@Z ; std::_Tree_val<std::_Tree_simple_types<std::pair<unsigned long const ,SEnvironmentData *> > >::_Erase_tree<std::allocator<std::_Tree_node<std::pair<unsigned long const ,SEnvironmentData *>,void *> > >
PUBLIC	??$_Construct_in_place@PAU?$_Tree_node@U?$pair@$$CBKPAUSEnvironmentData@@@std@@PAX@std@@ABQAU12@@std@@YAXAAPAU?$_Tree_node@U?$pair@$$CBKPAUSEnvironmentData@@@std@@PAX@0@ABQAU10@@Z ; std::_Construct_in_place<std::_Tree_node<std::pair<unsigned long const ,SEnvironmentData *>,void *> *,std::_Tree_node<std::pair<unsigned long const ,SEnvironmentData *>,void *> * const &>
PUBLIC	??$_Uninitialized_move@PAUTMapInfo@CMapManager@@V?$allocator@UTMapInfo@CMapManager@@@std@@@std@@YAPAUTMapInfo@CMapManager@@QAU12@0PAU12@AAV?$allocator@UTMapInfo@CMapManager@@@0@@Z ; std::_Uninitialized_move<CMapManager::TMapInfo *,std::allocator<CMapManager::TMapInfo> >
PUBLIC	??1?$_Alloc_construct_ptr@V?$allocator@U?$_Tree_node@U?$pair@$$CBKPAUSEnvironmentData@@@std@@PAX@std@@@std@@@std@@QAE@XZ ; std::_Alloc_construct_ptr<std::allocator<std::_Tree_node<std::pair<unsigned long const ,SEnvironmentData *>,void *> > >::~_Alloc_construct_ptr<std::allocator<std::_Tree_node<std::pair<unsigned long const ,SEnvironmentData *>,void *> > >
PUBLIC	??$_Destroy_in_place@PAU?$_Tree_node@U?$pair@$$CBKPAUSEnvironmentData@@@std@@PAX@std@@@std@@YAXAAPAU?$_Tree_node@U?$pair@$$CBKPAUSEnvironmentData@@@std@@PAX@0@@Z ; std::_Destroy_in_place<std::_Tree_node<std::pair<unsigned long const ,SEnvironmentData *>,void *> *>
PUBLIC	??$_Construct_in_place@PAU?$_Tree_node@U?$pair@$$CBKPAUSEnvironmentData@@@std@@PAX@std@@AAPAU12@@std@@YAXAAPAU?$_Tree_node@U?$pair@$$CBKPAUSEnvironmentData@@@std@@PAX@0@0@Z ; std::_Construct_in_place<std::_Tree_node<std::pair<unsigned long const ,SEnvironmentData *>,void *> *,std::_Tree_node<std::pair<unsigned long const ,SEnvironmentData *>,void *> * &>
PUBLIC	??_ECMapManager@@W3AEPAXI@Z			; [thunk]:CMapManager::`vector deleting destructor'
PUBLIC	?_OptionsStorage@?1??__local_stdio_scanf_options@@9@4_KA ; `__local_stdio_scanf_options'::`2'::_OptionsStorage
PUBLIC	??_7exception@std@@6B@				; std::exception::`vftable'
PUBLIC	??_C@_0BC@EOODALEL@Unknown?5exception@		; `string'
PUBLIC	??_7bad_alloc@std@@6B@				; std::bad_alloc::`vftable'
PUBLIC	??_7bad_array_new_length@std@@6B@		; std::bad_array_new_length::`vftable'
PUBLIC	??_C@_0BF@KINCDENJ@bad?5array?5new?5length@	; `string'
PUBLIC	__TI3?AVbad_array_new_length@std@@
PUBLIC	__CTA3?AVbad_array_new_length@std@@
PUBLIC	??_R0?AVbad_array_new_length@std@@@8		; std::bad_array_new_length `RTTI Type Descriptor'
PUBLIC	__CT??_R0?AVbad_array_new_length@std@@@8??0bad_array_new_length@std@@QAE@ABV01@@Z12
PUBLIC	??_R0?AVbad_alloc@std@@@8			; std::bad_alloc `RTTI Type Descriptor'
PUBLIC	__CT??_R0?AVbad_alloc@std@@@8??0bad_alloc@std@@QAE@ABV01@@Z12
PUBLIC	??_R0?AVexception@std@@@8			; std::exception `RTTI Type Descriptor'
PUBLIC	__CT??_R0?AVexception@std@@@8??0exception@std@@QAE@ABV01@@Z12
PUBLIC	??_C@_0BA@JFNIOLAK@string?5too?5long@		; `string'
PUBLIC	??_C@_0BB@GCADKGJO@map?1set?5too?5long@		; `string'
PUBLIC	??_C@_00CNPNBAHC@@				; `string'
PUBLIC	??_R4exception@std@@6B@				; std::exception::`RTTI Complete Object Locator'
PUBLIC	??_R3exception@std@@8				; std::exception::`RTTI Class Hierarchy Descriptor'
PUBLIC	??_R2exception@std@@8				; std::exception::`RTTI Base Class Array'
PUBLIC	??_R1A@?0A@EA@exception@std@@8			; std::exception::`RTTI Base Class Descriptor at (0,-1,0,64)'
PUBLIC	??_R4bad_alloc@std@@6B@				; std::bad_alloc::`RTTI Complete Object Locator'
PUBLIC	??_R3bad_alloc@std@@8				; std::bad_alloc::`RTTI Class Hierarchy Descriptor'
PUBLIC	??_R2bad_alloc@std@@8				; std::bad_alloc::`RTTI Base Class Array'
PUBLIC	??_R1A@?0A@EA@bad_alloc@std@@8			; std::bad_alloc::`RTTI Base Class Descriptor at (0,-1,0,64)'
PUBLIC	??_R4bad_array_new_length@std@@6B@		; std::bad_array_new_length::`RTTI Complete Object Locator'
PUBLIC	??_R3bad_array_new_length@std@@8		; std::bad_array_new_length::`RTTI Class Hierarchy Descriptor'
PUBLIC	??_R2bad_array_new_length@std@@8		; std::bad_array_new_length::`RTTI Base Class Array'
PUBLIC	??_R1A@?0A@EA@bad_array_new_length@std@@8	; std::bad_array_new_length::`RTTI Base Class Descriptor at (0,-1,0,64)'
PUBLIC	?ms_singleton@?$CSingleton@VCStateManager@@@@0PAVCStateManager@@A ; CSingleton<CStateManager>::ms_singleton
PUBLIC	?ms_singleton@?$CSingleton@VCEterPackManager@@@@0PAVCEterPackManager@@A ; CSingleton<CEterPackManager>::ms_singleton
PUBLIC	?ms_singleton@?$CSingleton@VCSpeedTreeForestDirectX8@@@@0PAVCSpeedTreeForestDirectX8@@A ; CSingleton<CSpeedTreeForestDirectX8>::ms_singleton
PUBLIC	??_7IPhysicsWorld@@6B@				; IPhysicsWorld::`vftable'
PUBLIC	??_7CMapManager@@6BCScreen@@@			; CMapManager::`vftable'
PUBLIC	??_7CMapManager@@6BIPhysicsWorld@@@		; CMapManager::`vftable'
PUBLIC	??_C@_08MOOMJPBO@Property@			; `string'
PUBLIC	??_C@_03EMIMMIHL@?$CK?4?$CK@			; `string'
PUBLIC	??_C@_0CO@NOKMKMGJ@CMapManager?3?3LoadMap?$CI?$CJ?5Indoor?5M@ ; `string'
PUBLIC	??_C@_0CP@DDEONFBH@CMapManager?3?3LoadMap?$CI?$CJ?5Outdoor?5@ ; `string'
PUBLIC	??_C@_0CI@JGDAGOMB@CMapManager?3?3LoadMap?$CI?$CJ?5Invalid?5@ ; `string'
PUBLIC	??_C@_0BG@CFNBDNBB@?$CFs?3?5Unload?5Map?5Failed@ ; `string'
PUBLIC	??_C@_0EE@MJBLHJKJ@CMapManager?3?3GetHeight?$CI?$CFf?0?5?$CFf?$CJ?5@ ; `string'
PUBLIC	??_C@_0EL@GOMDBDNM@CMapManager?3?3GetTerrainHeight?$CI?$CF@ ; `string'
PUBLIC	??_C@_0BG@GDDCGLNK@null?5environment?5data@	; `string'
PUBLIC	??_C@_0O@EEKDAHG@AtlasInfo?4txt@		; `string'
PUBLIC	??_C@_0P@GOFAHLEL@?$CFs?5?$CFd?5?$CFd?5?$CFd?5?$CFd@ ; `string'
PUBLIC	??_C@_0BA@FOIKENOD@vector?5too?5long@		; `string'
PUBLIC	??_R1A@?0A@EA@CScreen@@8			; CScreen::`RTTI Base Class Descriptor at (0,-1,0,64)'
PUBLIC	??_R0?AVCScreen@@@8				; CScreen `RTTI Type Descriptor'
PUBLIC	??_R3CScreen@@8					; CScreen::`RTTI Class Hierarchy Descriptor'
PUBLIC	??_R2CScreen@@8					; CScreen::`RTTI Base Class Array'
PUBLIC	??_R1A@?0A@EA@CGraphicCollisionObject@@8	; CGraphicCollisionObject::`RTTI Base Class Descriptor at (0,-1,0,64)'
PUBLIC	??_R0?AVCGraphicCollisionObject@@@8		; CGraphicCollisionObject `RTTI Type Descriptor'
PUBLIC	??_R3CGraphicCollisionObject@@8			; CGraphicCollisionObject::`RTTI Class Hierarchy Descriptor'
PUBLIC	??_R2CGraphicCollisionObject@@8			; CGraphicCollisionObject::`RTTI Base Class Array'
PUBLIC	??_R1A@?0A@EA@CGraphicBase@@8			; CGraphicBase::`RTTI Base Class Descriptor at (0,-1,0,64)'
PUBLIC	??_R0?AVCGraphicBase@@@8			; CGraphicBase `RTTI Type Descriptor'
PUBLIC	??_R3CGraphicBase@@8				; CGraphicBase::`RTTI Class Hierarchy Descriptor'
PUBLIC	??_R2CGraphicBase@@8				; CGraphicBase::`RTTI Base Class Array'
PUBLIC	??_R4IPhysicsWorld@@6B@				; IPhysicsWorld::`RTTI Complete Object Locator'
PUBLIC	??_R0?AVIPhysicsWorld@@@8			; IPhysicsWorld `RTTI Type Descriptor'
PUBLIC	??_R3IPhysicsWorld@@8				; IPhysicsWorld::`RTTI Class Hierarchy Descriptor'
PUBLIC	??_R2IPhysicsWorld@@8				; IPhysicsWorld::`RTTI Base Class Array'
PUBLIC	??_R1A@?0A@EA@IPhysicsWorld@@8			; IPhysicsWorld::`RTTI Base Class Descriptor at (0,-1,0,64)'
PUBLIC	??_R4CMapManager@@6BCScreen@@@			; CMapManager::`RTTI Complete Object Locator'
PUBLIC	??_R0?AVCMapManager@@@8				; CMapManager `RTTI Type Descriptor'
PUBLIC	??_R3CMapManager@@8				; CMapManager::`RTTI Class Hierarchy Descriptor'
PUBLIC	??_R2CMapManager@@8				; CMapManager::`RTTI Base Class Array'
PUBLIC	??_R1A@?0A@EA@CMapManager@@8			; CMapManager::`RTTI Base Class Descriptor at (0,-1,0,64)'
PUBLIC	??_R13?0A@EA@IPhysicsWorld@@8			; IPhysicsWorld::`RTTI Base Class Descriptor at (4,-1,0,64)'
PUBLIC	??_R4CMapManager@@6BIPhysicsWorld@@@		; CMapManager::`RTTI Complete Object Locator'
PUBLIC	__real@00000000
PUBLIC	__real@3f000000
PUBLIC	__real@3f800000
PUBLIC	__real@437f0000
PUBLIC	__xmm@80000000800000008000000080000000
EXTRN	??_L@YGXPAXIIP6EX0@Z1@Z:PROC			; `eh vector constructor iterator'
EXTRN	??_M@YGXPAXIIP6EX0@Z@Z:PROC			; `eh vector destructor iterator'
EXTRN	__purecall:PROC
EXTRN	??2@YAPAXI@Z:PROC				; operator new
EXTRN	??3@YAXPAXI@Z:PROC				; operator delete
EXTRN	_atexit:PROC
EXTRN	__Init_thread_header:PROC
EXTRN	__Init_thread_footer:PROC
EXTRN	___std_terminate:PROC
EXTRN	__invalid_parameter_noinfo_noreturn:PROC
EXTRN	___stdio_common_vsscanf:PROC
EXTRN	___std_exception_copy:PROC
EXTRN	___std_exception_destroy:PROC
EXTRN	??_Eexception@std@@UAEPAXI@Z:PROC		; std::exception::`vector deleting destructor'
EXTRN	??_Ebad_alloc@std@@UAEPAXI@Z:PROC		; std::bad_alloc::`vector deleting destructor'
EXTRN	??_Ebad_array_new_length@std@@UAEPAXI@Z:PROC	; std::bad_array_new_length::`vector deleting destructor'
EXTRN	?_Xlength_error@std@@YAXPBD@Z:PROC		; std::_Xlength_error
EXTRN	?TraceError@@YAXPBDZZ:PROC			; TraceError
EXTRN	?LogBoxf@@YAXPBDZZ:PROC				; LogBoxf
EXTRN	??0CMemoryTextFileLoader@@QAE@XZ:PROC		; CMemoryTextFileLoader::CMemoryTextFileLoader
EXTRN	??1CMemoryTextFileLoader@@UAE@XZ:PROC		; CMemoryTextFileLoader::~CMemoryTextFileLoader
EXTRN	?Bind@CMemoryTextFileLoader@@QAEXHPBX@Z:PROC	; CMemoryTextFileLoader::Bind
EXTRN	?GetLineCount@CMemoryTextFileLoader@@QAEKXZ:PROC ; CMemoryTextFileLoader::GetLineCount
EXTRN	?GetLineString@CMemoryTextFileLoader@@QAEABV?$basic_string@DU?$char_traits@D@std@@V?$allocator@D@2@@std@@K@Z:PROC ; CMemoryTextFileLoader::GetLineString
EXTRN	??0CMappedFile@@QAE@XZ:PROC			; CMappedFile::CMappedFile
EXTRN	??1CMappedFile@@UAE@XZ:PROC			; CMappedFile::~CMappedFile
EXTRN	?Size@CMappedFile@@QAEKXZ:PROC			; CMappedFile::Size
EXTRN	??0CScreen@@QAE@XZ:PROC				; CScreen::CScreen
EXTRN	??1CScreen@@UAE@XZ:PROC				; CScreen::~CScreen
EXTRN	?GetFogNearDistance@SEnvironmentData@@QBEMXZ:PROC ; SEnvironmentData::GetFogNearDistance
EXTRN	?GetFogFarDistance@SEnvironmentData@@QBEMXZ:PROC ; SEnvironmentData::GetFogFarDistance
EXTRN	?Environment_Init@@YAXAAUSEnvironmentData@@@Z:PROC ; Environment_Init
EXTRN	?Environment_Load@@YA_NAAUSEnvironmentData@@PBD@Z:PROC ; Environment_Load
EXTRN	?SetMaterial@CStateManager@@QAEXPBU_D3DMATERIAL8@@@Z:PROC ; CStateManager::SetMaterial
EXTRN	?SaveRenderState@CStateManager@@QAEXW4_D3DRENDERSTATETYPE@@K@Z:PROC ; CStateManager::SaveRenderState
EXTRN	?RestoreRenderState@CStateManager@@QAEXW4_D3DRENDERSTATETYPE@@@Z:PROC ; CStateManager::RestoreRenderState
EXTRN	?SetRenderState@CStateManager@@QAEXW4_D3DRENDERSTATETYPE@@K@Z:PROC ; CStateManager::SetRenderState
EXTRN	?Get@CEterPackManager@@QAE_NAAVCMappedFile@@PBDPAPBX@Z:PROC ; CEterPackManager::Get
EXTRN	?SetFog@CSpeedTreeForest@@QAEXMM@Z:PROC		; CSpeedTreeForest::SetFog
EXTRN	??0CSpeedTreeForestDirectX8@@QAE@XZ:PROC	; CSpeedTreeForestDirectX8::CSpeedTreeForestDirectX8
EXTRN	??1CSpeedTreeForestDirectX8@@UAE@XZ:PROC	; CSpeedTreeForestDirectX8::~CSpeedTreeForestDirectX8
EXTRN	?SetEnvironmentDataPtr@CMapBase@@QAEXPBUSEnvironmentData@@@Z:PROC ; CMapBase::SetEnvironmentDataPtr
EXTRN	?ResetEnvironmentDataPtr@CMapBase@@QAEXPBUSEnvironmentData@@@Z:PROC ; CMapBase::ResetEnvironmentDataPtr
EXTRN	?Enter@CMapBase@@QAE_NXZ:PROC			; CMapBase::Enter
EXTRN	?Leave@CMapBase@@QAE_NXZ:PROC			; CMapBase::Leave
EXTRN	?LoadProperty@CMapBase@@QAE_NXZ:PROC		; CMapBase::LoadProperty
EXTRN	?ClearPortal@CArea@@QAEXXZ:PROC			; CArea::ClearPortal
EXTRN	?AddShowingPortalID@CArea@@QAEXH@Z:PROC		; CArea::AddShowingPortalID
EXTRN	?RefreshPortal@CArea@@QAEXXZ:PROC		; CArea::RefreshPortal
EXTRN	??0CMapOutdoor@@QAE@XZ:PROC			; CMapOutdoor::CMapOutdoor
EXTRN	?GetRenderedSplatNum@CMapOutdoor@@QAEAAV?$vector@HV?$allocator@H@std@@@std@@PAH0PAM@Z:PROC ; CMapOutdoor::GetRenderedSplatNum
EXTRN	?GetRenderedGraphicThingInstanceNum@CMapOutdoor@@QAEAAV?$vector@USCRCWithNumber@CArea@@V?$allocator@USCRCWithNumber@CArea@@@std@@@std@@PAK0@Z:PROC ; CMapOutdoor::GetRenderedGraphicThingInstanceNum
EXTRN	?GetShadowMapColor@CMapOutdoor@@QAEKMM@Z:PROC	; CMapOutdoor::GetShadowMapColor
EXTRN	?GetTerrainHeight@CMapOutdoor@@QAEMMM@Z:PROC	; CMapOutdoor::GetTerrainHeight
EXTRN	?GetWaterHeight@CMapOutdoor@@QAE_NHHPAJ@Z:PROC	; CMapOutdoor::GetWaterHeight
EXTRN	?GetNormal@CMapOutdoor@@QAE_NHHPAUD3DXVECTOR3@@@Z:PROC ; CMapOutdoor::GetNormal
EXTRN	?GetAreaPointer@CMapOutdoor@@QAEHEPAPAVCArea@@@Z:PROC ; CMapOutdoor::GetAreaPointer
EXTRN	?isAttrOn@CMapOutdoor@@QAE_NMME@Z:PROC		; CMapOutdoor::isAttrOn
EXTRN	?GetAttr@CMapOutdoor@@QAE_NMMPAE@Z:PROC		; CMapOutdoor::GetAttr
EXTRN	?isAttrOn@CMapOutdoor@@QAE_NHHE@Z:PROC		; CMapOutdoor::isAttrOn
EXTRN	?GetAttr@CMapOutdoor@@QAE_NHHPAE@Z:PROC		; CMapOutdoor::GetAttr
EXTRN	?GetBaseXY@CMapOutdoor@@QAEXPAK0@Z:PROC		; CMapOutdoor::GetBaseXY
EXTRN	?GetEnvironmentDataName@CMapOutdoor@@QAEAAV?$basic_string@DU?$char_traits@D@std@@V?$allocator@D@2@@std@@XZ:PROC ; CMapOutdoor::GetEnvironmentDataName
EXTRN	??0CPropertyManager@@QAE@XZ:PROC		; CPropertyManager::CPropertyManager
EXTRN	??1CPropertyManager@@UAE@XZ:PROC		; CPropertyManager::~CPropertyManager
EXTRN	??_EIPhysicsWorld@@UAEPAXI@Z:PROC		; IPhysicsWorld::`vector deleting destructor'
EXTRN	??_ECMapManager@@UAEPAXI@Z:PROC			; CMapManager::`vector deleting destructor'
EXTRN	?Create@CDir@@QAE_NPBD0H@Z:PROC			; CDir::Create
EXTRN	??0CPropertyLoader@@QAE@XZ:PROC			; CPropertyLoader::CPropertyLoader
EXTRN	??1CPropertyLoader@@UAE@XZ:PROC			; CPropertyLoader::~CPropertyLoader
EXTRN	?SetPropertyManager@CPropertyLoader@@QAEXPAVCPropertyManager@@@Z:PROC ; CPropertyLoader::SetPropertyManager
EXTRN	@__security_check_cookie@4:PROC
EXTRN	__CxxThrowException@8:PROC
EXTRN	___CxxFrameHandler3:PROC
EXTRN	__ftoui3:PROC
EXTRN	_memcpy:PROC
EXTRN	_memmove:PROC
EXTRN	__Init_thread_epoch:DWORD
EXTRN	??_7type_info@@6B@:QWORD			; type_info::`vftable'
EXTRN	?ms_lpd3dDevice@CGraphicBase@@1PAUIDirect3DDevice8@@A:DWORD ; CGraphicBase::ms_lpd3dDevice
EXTRN	?SOFTWARE_TRANSFORM_PATCH_ENABLE@CTerrainPatch@@2_NA:BYTE ; CTerrainPatch::SOFTWARE_TRANSFORM_PATCH_ENABLE
EXTRN	?ms_pWorld@IPhysicsWorld@@0PAV1@A:DWORD		; IPhysicsWorld::ms_pWorld
EXTRN	___security_cookie:DWORD
EXTRN	__fltused:DWORD
EXTRN	__tls_array:DWORD
EXTRN	__tls_index:DWORD
;	COMDAT ?_OptionsStorage@?1??__local_stdio_scanf_options@@9@4_KA
_BSS	SEGMENT
?_OptionsStorage@?1??__local_stdio_scanf_options@@9@4_KA DQ 01H DUP (?) ; `__local_stdio_scanf_options'::`2'::_OptionsStorage
_BSS	ENDS
;	COMDAT ?ms_singleton@?$CSingleton@VCStateManager@@@@0PAVCStateManager@@A
_BSS	SEGMENT
?ms_singleton@?$CSingleton@VCStateManager@@@@0PAVCStateManager@@A DD 01H DUP (?) ; CSingleton<CStateManager>::ms_singleton
_BSS	ENDS
;	COMDAT ?ms_singleton@?$CSingleton@VCEterPackManager@@@@0PAVCEterPackManager@@A
_BSS	SEGMENT
?ms_singleton@?$CSingleton@VCEterPackManager@@@@0PAVCEterPackManager@@A DD 01H DUP (?) ; CSingleton<CEterPackManager>::ms_singleton
_BSS	ENDS
;	COMDAT ?ms_singleton@?$CSingleton@VCSpeedTreeForestDirectX8@@@@0PAVCSpeedTreeForestDirectX8@@A
_BSS	SEGMENT
?ms_singleton@?$CSingleton@VCSpeedTreeForestDirectX8@@@@0PAVCSpeedTreeForestDirectX8@@A DD 01H DUP (?) ; CSingleton<CSpeedTreeForestDirectX8>::ms_singleton
_BSS	ENDS
;	COMDAT ?s_emptyVector@?4??GetRenderedSplatNum@CMapManager@@QAEAAV?$vector@HV?$allocator@H@std@@@std@@PAH0PAM@Z@4V34@A
_BSS	SEGMENT
?s_emptyVector@?4??GetRenderedSplatNum@CMapManager@@QAEAAV?$vector@HV?$allocator@H@std@@@std@@PAH0PAM@Z@4V34@A DB 0cH DUP (?) ; `CMapManager::GetRenderedSplatNum'::`5'::s_emptyVector
_BSS	ENDS
;	COMDAT ?$TSS0@?4??GetRenderedSplatNum@CMapManager@@QAEAAV?$vector@HV?$allocator@H@std@@@std@@PAH0PAM@Z@4HA
_BSS	SEGMENT
?$TSS0@?4??GetRenderedSplatNum@CMapManager@@QAEAAV?$vector@HV?$allocator@H@std@@@std@@PAH0PAM@Z@4HA DD 01H DUP (?) ; `CMapManager::GetRenderedSplatNum'::`5'::$TSS0
_BSS	ENDS
;	COMDAT ?s_emptyVector@?4??GetRenderedGraphicThingInstanceNum@CMapManager@@QAEAAV?$vector@USCRCWithNumber@CArea@@V?$allocator@USCRCWithNumber@CArea@@@std@@@std@@PAK0@Z@4V34@A
_BSS	SEGMENT
?s_emptyVector@?4??GetRenderedGraphicThingInstanceNum@CMapManager@@QAEAAV?$vector@USCRCWithNumber@CArea@@V?$allocator@USCRCWithNumber@CArea@@@std@@@std@@PAK0@Z@4V34@A DB 0cH DUP (?) ; `CMapManager::GetRenderedGraphicThingInstanceNum'::`5'::s_emptyVector
_BSS	ENDS
;	COMDAT ?$TSS0@?4??GetRenderedGraphicThingInstanceNum@CMapManager@@QAEAAV?$vector@USCRCWithNumber@CArea@@V?$allocator@USCRCWithNumber@CArea@@@std@@@std@@PAK0@Z@4HA
_BSS	SEGMENT
?$TSS0@?4??GetRenderedGraphicThingInstanceNum@CMapManager@@QAEAAV?$vector@USCRCWithNumber@CArea@@V?$allocator@USCRCWithNumber@CArea@@@std@@@std@@PAK0@Z@4HA DD 01H DUP (?) ; `CMapManager::GetRenderedGraphicThingInstanceNum'::`5'::$TSS0
_BSS	ENDS
;	COMDAT __xmm@80000000800000008000000080000000
CONST	SEGMENT
__xmm@80000000800000008000000080000000 DB 00H, 00H, 00H, 080H, 00H, 00H, 00H
	DB	080H, 00H, 00H, 00H, 080H, 00H, 00H, 00H, 080H
CONST	ENDS
;	COMDAT __real@437f0000
CONST	SEGMENT
__real@437f0000 DD 0437f0000r			; 255
CONST	ENDS
;	COMDAT __real@3f800000
CONST	SEGMENT
__real@3f800000 DD 03f800000r			; 1
CONST	ENDS
;	COMDAT __real@3f000000
CONST	SEGMENT
__real@3f000000 DD 03f000000r			; 0.5
CONST	ENDS
;	COMDAT __real@00000000
CONST	SEGMENT
__real@00000000 DD 000000000r			; 0
CONST	ENDS
;	COMDAT ??_R4CMapManager@@6BIPhysicsWorld@@@
rdata$r	SEGMENT
??_R4CMapManager@@6BIPhysicsWorld@@@ DD 00H		; CMapManager::`RTTI Complete Object Locator'
	DD	04H
	DD	00H
	DD	FLAT:??_R0?AVCMapManager@@@8
	DD	FLAT:??_R3CMapManager@@8
rdata$r	ENDS
;	COMDAT ??_R13?0A@EA@IPhysicsWorld@@8
rdata$r	SEGMENT
??_R13?0A@EA@IPhysicsWorld@@8 DD FLAT:??_R0?AVIPhysicsWorld@@@8 ; IPhysicsWorld::`RTTI Base Class Descriptor at (4,-1,0,64)'
	DD	00H
	DD	04H
	DD	0ffffffffH
	DD	00H
	DD	040H
	DD	FLAT:??_R3IPhysicsWorld@@8
rdata$r	ENDS
;	COMDAT ??_R1A@?0A@EA@CMapManager@@8
rdata$r	SEGMENT
??_R1A@?0A@EA@CMapManager@@8 DD FLAT:??_R0?AVCMapManager@@@8 ; CMapManager::`RTTI Base Class Descriptor at (0,-1,0,64)'
	DD	04H
	DD	00H
	DD	0ffffffffH
	DD	00H
	DD	040H
	DD	FLAT:??_R3CMapManager@@8
rdata$r	ENDS
;	COMDAT ??_R2CMapManager@@8
rdata$r	SEGMENT
??_R2CMapManager@@8 DD FLAT:??_R1A@?0A@EA@CMapManager@@8 ; CMapManager::`RTTI Base Class Array'
	DD	FLAT:??_R1A@?0A@EA@CScreen@@8
	DD	FLAT:??_R1A@?0A@EA@CGraphicCollisionObject@@8
	DD	FLAT:??_R1A@?0A@EA@CGraphicBase@@8
	DD	FLAT:??_R13?0A@EA@IPhysicsWorld@@8
rdata$r	ENDS
;	COMDAT ??_R3CMapManager@@8
rdata$r	SEGMENT
??_R3CMapManager@@8 DD 00H				; CMapManager::`RTTI Class Hierarchy Descriptor'
	DD	01H
	DD	05H
	DD	FLAT:??_R2CMapManager@@8
rdata$r	ENDS
;	COMDAT ??_R0?AVCMapManager@@@8
data$r	SEGMENT
??_R0?AVCMapManager@@@8 DD FLAT:??_7type_info@@6B@	; CMapManager `RTTI Type Descriptor'
	DD	00H
	DB	'.?AVCMapManager@@', 00H
data$r	ENDS
;	COMDAT ??_R4CMapManager@@6BCScreen@@@
rdata$r	SEGMENT
??_R4CMapManager@@6BCScreen@@@ DD 00H			; CMapManager::`RTTI Complete Object Locator'
	DD	00H
	DD	00H
	DD	FLAT:??_R0?AVCMapManager@@@8
	DD	FLAT:??_R3CMapManager@@8
rdata$r	ENDS
;	COMDAT ??_R1A@?0A@EA@IPhysicsWorld@@8
rdata$r	SEGMENT
??_R1A@?0A@EA@IPhysicsWorld@@8 DD FLAT:??_R0?AVIPhysicsWorld@@@8 ; IPhysicsWorld::`RTTI Base Class Descriptor at (0,-1,0,64)'
	DD	00H
	DD	00H
	DD	0ffffffffH
	DD	00H
	DD	040H
	DD	FLAT:??_R3IPhysicsWorld@@8
rdata$r	ENDS
;	COMDAT ??_R2IPhysicsWorld@@8
rdata$r	SEGMENT
??_R2IPhysicsWorld@@8 DD FLAT:??_R1A@?0A@EA@IPhysicsWorld@@8 ; IPhysicsWorld::`RTTI Base Class Array'
rdata$r	ENDS
;	COMDAT ??_R3IPhysicsWorld@@8
rdata$r	SEGMENT
??_R3IPhysicsWorld@@8 DD 00H				; IPhysicsWorld::`RTTI Class Hierarchy Descriptor'
	DD	00H
	DD	01H
	DD	FLAT:??_R2IPhysicsWorld@@8
rdata$r	ENDS
;	COMDAT ??_R0?AVIPhysicsWorld@@@8
data$r	SEGMENT
??_R0?AVIPhysicsWorld@@@8 DD FLAT:??_7type_info@@6B@	; IPhysicsWorld `RTTI Type Descriptor'
	DD	00H
	DB	'.?AVIPhysicsWorld@@', 00H
data$r	ENDS
;	COMDAT ??_R4IPhysicsWorld@@6B@
rdata$r	SEGMENT
??_R4IPhysicsWorld@@6B@ DD 00H				; IPhysicsWorld::`RTTI Complete Object Locator'
	DD	00H
	DD	00H
	DD	FLAT:??_R0?AVIPhysicsWorld@@@8
	DD	FLAT:??_R3IPhysicsWorld@@8
rdata$r	ENDS
;	COMDAT ??_R2CGraphicBase@@8
rdata$r	SEGMENT
??_R2CGraphicBase@@8 DD FLAT:??_R1A@?0A@EA@CGraphicBase@@8 ; CGraphicBase::`RTTI Base Class Array'
rdata$r	ENDS
;	COMDAT ??_R3CGraphicBase@@8
rdata$r	SEGMENT
??_R3CGraphicBase@@8 DD 00H				; CGraphicBase::`RTTI Class Hierarchy Descriptor'
	DD	00H
	DD	01H
	DD	FLAT:??_R2CGraphicBase@@8
rdata$r	ENDS
;	COMDAT ??_R0?AVCGraphicBase@@@8
data$r	SEGMENT
??_R0?AVCGraphicBase@@@8 DD FLAT:??_7type_info@@6B@	; CGraphicBase `RTTI Type Descriptor'
	DD	00H
	DB	'.?AVCGraphicBase@@', 00H
data$r	ENDS
;	COMDAT ??_R1A@?0A@EA@CGraphicBase@@8
rdata$r	SEGMENT
??_R1A@?0A@EA@CGraphicBase@@8 DD FLAT:??_R0?AVCGraphicBase@@@8 ; CGraphicBase::`RTTI Base Class Descriptor at (0,-1,0,64)'
	DD	00H
	DD	00H
	DD	0ffffffffH
	DD	00H
	DD	040H
	DD	FLAT:??_R3CGraphicBase@@8
rdata$r	ENDS
;	COMDAT ??_R2CGraphicCollisionObject@@8
rdata$r	SEGMENT
??_R2CGraphicCollisionObject@@8 DD FLAT:??_R1A@?0A@EA@CGraphicCollisionObject@@8 ; CGraphicCollisionObject::`RTTI Base Class Array'
	DD	FLAT:??_R1A@?0A@EA@CGraphicBase@@8
rdata$r	ENDS
;	COMDAT ??_R3CGraphicCollisionObject@@8
rdata$r	SEGMENT
??_R3CGraphicCollisionObject@@8 DD 00H			; CGraphicCollisionObject::`RTTI Class Hierarchy Descriptor'
	DD	00H
	DD	02H
	DD	FLAT:??_R2CGraphicCollisionObject@@8
rdata$r	ENDS
;	COMDAT ??_R0?AVCGraphicCollisionObject@@@8
data$r	SEGMENT
??_R0?AVCGraphicCollisionObject@@@8 DD FLAT:??_7type_info@@6B@ ; CGraphicCollisionObject `RTTI Type Descriptor'
	DD	00H
	DB	'.?AVCGraphicCollisionObject@@', 00H
data$r	ENDS
;	COMDAT ??_R1A@?0A@EA@CGraphicCollisionObject@@8
rdata$r	SEGMENT
??_R1A@?0A@EA@CGraphicCollisionObject@@8 DD FLAT:??_R0?AVCGraphicCollisionObject@@@8 ; CGraphicCollisionObject::`RTTI Base Class Descriptor at (0,-1,0,64)'
	DD	01H
	DD	00H
	DD	0ffffffffH
	DD	00H
	DD	040H
	DD	FLAT:??_R3CGraphicCollisionObject@@8
rdata$r	ENDS
;	COMDAT ??_R2CScreen@@8
rdata$r	SEGMENT
??_R2CScreen@@8 DD FLAT:??_R1A@?0A@EA@CScreen@@8	; CScreen::`RTTI Base Class Array'
	DD	FLAT:??_R1A@?0A@EA@CGraphicCollisionObject@@8
	DD	FLAT:??_R1A@?0A@EA@CGraphicBase@@8
rdata$r	ENDS
;	COMDAT ??_R3CScreen@@8
rdata$r	SEGMENT
??_R3CScreen@@8 DD 00H					; CScreen::`RTTI Class Hierarchy Descriptor'
	DD	00H
	DD	03H
	DD	FLAT:??_R2CScreen@@8
rdata$r	ENDS
;	COMDAT ??_R0?AVCScreen@@@8
data$r	SEGMENT
??_R0?AVCScreen@@@8 DD FLAT:??_7type_info@@6B@		; CScreen `RTTI Type Descriptor'
	DD	00H
	DB	'.?AVCScreen@@', 00H
data$r	ENDS
;	COMDAT ??_R1A@?0A@EA@CScreen@@8
rdata$r	SEGMENT
??_R1A@?0A@EA@CScreen@@8 DD FLAT:??_R0?AVCScreen@@@8	; CScreen::`RTTI Base Class Descriptor at (0,-1,0,64)'
	DD	02H
	DD	00H
	DD	0ffffffffH
	DD	00H
	DD	040H
	DD	FLAT:??_R3CScreen@@8
rdata$r	ENDS
;	COMDAT ??_C@_0BA@FOIKENOD@vector?5too?5long@
CONST	SEGMENT
??_C@_0BA@FOIKENOD@vector?5too?5long@ DB 'vector too long', 00H ; `string'
CONST	ENDS
;	COMDAT ??_C@_0P@GOFAHLEL@?$CFs?5?$CFd?5?$CFd?5?$CFd?5?$CFd@
CONST	SEGMENT
??_C@_0P@GOFAHLEL@?$CFs?5?$CFd?5?$CFd?5?$CFd?5?$CFd@ DB '%s %d %d %d %d', 00H ; `string'
CONST	ENDS
;	COMDAT ??_C@_0O@EEKDAHG@AtlasInfo?4txt@
CONST	SEGMENT
??_C@_0O@EEKDAHG@AtlasInfo?4txt@ DB 'AtlasInfo.txt', 00H ; `string'
CONST	ENDS
;	COMDAT ??_C@_0BG@GDDCGLNK@null?5environment?5data@
CONST	SEGMENT
??_C@_0BG@GDDCGLNK@null?5environment?5data@ DB 'null environment data', 00H ; `string'
CONST	ENDS
;	COMDAT ??_C@_0EL@GOMDBDNM@CMapManager?3?3GetTerrainHeight?$CI?$CF@
CONST	SEGMENT
??_C@_0EL@GOMDBDNM@CMapManager?3?3GetTerrainHeight?$CI?$CF@ DB 'CMapManag'
	DB	'er::GetTerrainHeight(%f, %f) - Accessing in a not initialized'
	DB	' map', 00H					; `string'
CONST	ENDS
;	COMDAT ??_C@_0EE@MJBLHJKJ@CMapManager?3?3GetHeight?$CI?$CFf?0?5?$CFf?$CJ?5@
CONST	SEGMENT
??_C@_0EE@MJBLHJKJ@CMapManager?3?3GetHeight?$CI?$CFf?0?5?$CFf?$CJ?5@ DB 'C'
	DB	'MapManager::GetHeight(%f, %f) - Accessing in a not initialize'
	DB	'd map', 00H					; `string'
CONST	ENDS
;	COMDAT ??_C@_0BG@CFNBDNBB@?$CFs?3?5Unload?5Map?5Failed@
CONST	SEGMENT
??_C@_0BG@CFNBDNBB@?$CFs?3?5Unload?5Map?5Failed@ DB '%s: Unload Map Faile'
	DB	'd', 00H					; `string'
CONST	ENDS
;	COMDAT ??_C@_0CI@JGDAGOMB@CMapManager?3?3LoadMap?$CI?$CJ?5Invalid?5@
CONST	SEGMENT
??_C@_0CI@JGDAGOMB@CMapManager?3?3LoadMap?$CI?$CJ?5Invalid?5@ DB 'CMapMan'
	DB	'ager::LoadMap() Invalid Map Type', 00H	; `string'
CONST	ENDS
;	COMDAT ??_C@_0CP@DDEONFBH@CMapManager?3?3LoadMap?$CI?$CJ?5Outdoor?5@
CONST	SEGMENT
??_C@_0CP@DDEONFBH@CMapManager?3?3LoadMap?$CI?$CJ?5Outdoor?5@ DB 'CMapMan'
	DB	'ager::LoadMap() Outdoor Map Load Failed', 00H ; `string'
CONST	ENDS
;	COMDAT ??_C@_0CO@NOKMKMGJ@CMapManager?3?3LoadMap?$CI?$CJ?5Indoor?5M@
CONST	SEGMENT
??_C@_0CO@NOKMKMGJ@CMapManager?3?3LoadMap?$CI?$CJ?5Indoor?5M@ DB 'CMapMan'
	DB	'ager::LoadMap() Indoor Map Load Failed', 00H ; `string'
CONST	ENDS
;	COMDAT ??_C@_03EMIMMIHL@?$CK?4?$CK@
CONST	SEGMENT
??_C@_03EMIMMIHL@?$CK?4?$CK@ DB '*.*', 00H		; `string'
CONST	ENDS
;	COMDAT ??_C@_08MOOMJPBO@Property@
CONST	SEGMENT
??_C@_08MOOMJPBO@Property@ DB 'Property', 00H		; `string'
CONST	ENDS
;	COMDAT ??_7CMapManager@@6BIPhysicsWorld@@@
CONST	SEGMENT
??_7CMapManager@@6BIPhysicsWorld@@@ DD FLAT:??_R4CMapManager@@6BIPhysicsWorld@@@ ; CMapManager::`vftable'
	DD	FLAT:??_ECMapManager@@W3AEPAXI@Z
	DD	FLAT:?isPhysicalCollision@CMapManager@@UAE_NABUD3DXVECTOR3@@@Z
CONST	ENDS
;	COMDAT ??_7CMapManager@@6BCScreen@@@
CONST	SEGMENT
??_7CMapManager@@6BCScreen@@@ DD FLAT:??_R4CMapManager@@6BCScreen@@@ ; CMapManager::`vftable'
	DD	FLAT:??_ECMapManager@@UAEPAXI@Z
	DD	FLAT:?Clear@CMapManager@@UAEXXZ
	DD	FLAT:?AllocMap@CMapManager@@UAEPAVCMapBase@@XZ
	DD	FLAT:?LoadMap@CMapManager@@UAE_NABV?$basic_string@DU?$char_traits@D@std@@V?$allocator@D@2@@std@@MMM@Z
CONST	ENDS
;	COMDAT ??_7IPhysicsWorld@@6B@
CONST	SEGMENT
??_7IPhysicsWorld@@6B@ DD FLAT:??_R4IPhysicsWorld@@6B@	; IPhysicsWorld::`vftable'
	DD	FLAT:??_EIPhysicsWorld@@UAEPAXI@Z
	DD	FLAT:__purecall
CONST	ENDS
;	COMDAT ??_R1A@?0A@EA@bad_array_new_length@std@@8
rdata$r	SEGMENT
??_R1A@?0A@EA@bad_array_new_length@std@@8 DD FLAT:??_R0?AVbad_array_new_length@std@@@8 ; std::bad_array_new_length::`RTTI Base Class Descriptor at (0,-1,0,64)'
	DD	02H
	DD	00H
	DD	0ffffffffH
	DD	00H
	DD	040H
	DD	FLAT:??_R3bad_array_new_length@std@@8
rdata$r	ENDS
;	COMDAT ??_R2bad_array_new_length@std@@8
rdata$r	SEGMENT
??_R2bad_array_new_length@std@@8 DD FLAT:??_R1A@?0A@EA@bad_array_new_length@std@@8 ; std::bad_array_new_length::`RTTI Base Class Array'
	DD	FLAT:??_R1A@?0A@EA@bad_alloc@std@@8
	DD	FLAT:??_R1A@?0A@EA@exception@std@@8
rdata$r	ENDS
;	COMDAT ??_R3bad_array_new_length@std@@8
rdata$r	SEGMENT
??_R3bad_array_new_length@std@@8 DD 00H			; std::bad_array_new_length::`RTTI Class Hierarchy Descriptor'
	DD	00H
	DD	03H
	DD	FLAT:??_R2bad_array_new_length@std@@8
rdata$r	ENDS
;	COMDAT ??_R4bad_array_new_length@std@@6B@
rdata$r	SEGMENT
??_R4bad_array_new_length@std@@6B@ DD 00H		; std::bad_array_new_length::`RTTI Complete Object Locator'
	DD	00H
	DD	00H
	DD	FLAT:??_R0?AVbad_array_new_length@std@@@8
	DD	FLAT:??_R3bad_array_new_length@std@@8
rdata$r	ENDS
;	COMDAT ??_R1A@?0A@EA@bad_alloc@std@@8
rdata$r	SEGMENT
??_R1A@?0A@EA@bad_alloc@std@@8 DD FLAT:??_R0?AVbad_alloc@std@@@8 ; std::bad_alloc::`RTTI Base Class Descriptor at (0,-1,0,64)'
	DD	01H
	DD	00H
	DD	0ffffffffH
	DD	00H
	DD	040H
	DD	FLAT:??_R3bad_alloc@std@@8
rdata$r	ENDS
;	COMDAT ??_R2bad_alloc@std@@8
rdata$r	SEGMENT
??_R2bad_alloc@std@@8 DD FLAT:??_R1A@?0A@EA@bad_alloc@std@@8 ; std::bad_alloc::`RTTI Base Class Array'
	DD	FLAT:??_R1A@?0A@EA@exception@std@@8
rdata$r	ENDS
;	COMDAT ??_R3bad_alloc@std@@8
rdata$r	SEGMENT
??_R3bad_alloc@std@@8 DD 00H				; std::bad_alloc::`RTTI Class Hierarchy Descriptor'
	DD	00H
	DD	02H
	DD	FLAT:??_R2bad_alloc@std@@8
rdata$r	ENDS
;	COMDAT ??_R4bad_alloc@std@@6B@
rdata$r	SEGMENT
??_R4bad_alloc@std@@6B@ DD 00H				; std::bad_alloc::`RTTI Complete Object Locator'
	DD	00H
	DD	00H
	DD	FLAT:??_R0?AVbad_alloc@std@@@8
	DD	FLAT:??_R3bad_alloc@std@@8
rdata$r	ENDS
;	COMDAT ??_R1A@?0A@EA@exception@std@@8
rdata$r	SEGMENT
??_R1A@?0A@EA@exception@std@@8 DD FLAT:??_R0?AVexception@std@@@8 ; std::exception::`RTTI Base Class Descriptor at (0,-1,0,64)'
	DD	00H
	DD	00H
	DD	0ffffffffH
	DD	00H
	DD	040H
	DD	FLAT:??_R3exception@std@@8
rdata$r	ENDS
;	COMDAT ??_R2exception@std@@8
rdata$r	SEGMENT
??_R2exception@std@@8 DD FLAT:??_R1A@?0A@EA@exception@std@@8 ; std::exception::`RTTI Base Class Array'
rdata$r	ENDS
;	COMDAT ??_R3exception@std@@8
rdata$r	SEGMENT
??_R3exception@std@@8 DD 00H				; std::exception::`RTTI Class Hierarchy Descriptor'
	DD	00H
	DD	01H
	DD	FLAT:??_R2exception@std@@8
rdata$r	ENDS
;	COMDAT ??_R4exception@std@@6B@
rdata$r	SEGMENT
??_R4exception@std@@6B@ DD 00H				; std::exception::`RTTI Complete Object Locator'
	DD	00H
	DD	00H
	DD	FLAT:??_R0?AVexception@std@@@8
	DD	FLAT:??_R3exception@std@@8
rdata$r	ENDS
;	COMDAT ??_C@_00CNPNBAHC@@
CONST	SEGMENT
??_C@_00CNPNBAHC@@ DB 00H				; `string'
CONST	ENDS
;	COMDAT ??_C@_0BB@GCADKGJO@map?1set?5too?5long@
CONST	SEGMENT
??_C@_0BB@GCADKGJO@map?1set?5too?5long@ DB 'map/set too long', 00H ; `string'
CONST	ENDS
;	COMDAT ??_C@_0BA@JFNIOLAK@string?5too?5long@
CONST	SEGMENT
??_C@_0BA@JFNIOLAK@string?5too?5long@ DB 'string too long', 00H ; `string'
CONST	ENDS
;	COMDAT __CT??_R0?AVexception@std@@@8??0exception@std@@QAE@ABV01@@Z12
xdata$x	SEGMENT
__CT??_R0?AVexception@std@@@8??0exception@std@@QAE@ABV01@@Z12 DD 00H
	DD	FLAT:??_R0?AVexception@std@@@8
	DD	00H
	DD	0ffffffffH
	ORG $+4
	DD	0cH
	DD	FLAT:??0exception@std@@QAE@ABV01@@Z
xdata$x	ENDS
;	COMDAT ??_R0?AVexception@std@@@8
data$r	SEGMENT
??_R0?AVexception@std@@@8 DD FLAT:??_7type_info@@6B@	; std::exception `RTTI Type Descriptor'
	DD	00H
	DB	'.?AVexception@std@@', 00H
data$r	ENDS
;	COMDAT __CT??_R0?AVbad_alloc@std@@@8??0bad_alloc@std@@QAE@ABV01@@Z12
xdata$x	SEGMENT
__CT??_R0?AVbad_alloc@std@@@8??0bad_alloc@std@@QAE@ABV01@@Z12 DD 010H
	DD	FLAT:??_R0?AVbad_alloc@std@@@8
	DD	00H
	DD	0ffffffffH
	ORG $+4
	DD	0cH
	DD	FLAT:??0bad_alloc@std@@QAE@ABV01@@Z
xdata$x	ENDS
;	COMDAT ??_R0?AVbad_alloc@std@@@8
data$r	SEGMENT
??_R0?AVbad_alloc@std@@@8 DD FLAT:??_7type_info@@6B@	; std::bad_alloc `RTTI Type Descriptor'
	DD	00H
	DB	'.?AVbad_alloc@std@@', 00H
data$r	ENDS
;	COMDAT __CT??_R0?AVbad_array_new_length@std@@@8??0bad_array_new_length@std@@QAE@ABV01@@Z12
xdata$x	SEGMENT
__CT??_R0?AVbad_array_new_length@std@@@8??0bad_array_new_length@std@@QAE@ABV01@@Z12 DD 00H
	DD	FLAT:??_R0?AVbad_array_new_length@std@@@8
	DD	00H
	DD	0ffffffffH
	ORG $+4
	DD	0cH
	DD	FLAT:??0bad_array_new_length@std@@QAE@ABV01@@Z
xdata$x	ENDS
;	COMDAT ??_R0?AVbad_array_new_length@std@@@8
data$r	SEGMENT
??_R0?AVbad_array_new_length@std@@@8 DD FLAT:??_7type_info@@6B@ ; std::bad_array_new_length `RTTI Type Descriptor'
	DD	00H
	DB	'.?AVbad_array_new_length@std@@', 00H
data$r	ENDS
;	COMDAT __CTA3?AVbad_array_new_length@std@@
xdata$x	SEGMENT
__CTA3?AVbad_array_new_length@std@@ DD 03H
	DD	FLAT:__CT??_R0?AVbad_array_new_length@std@@@8??0bad_array_new_length@std@@QAE@ABV01@@Z12
	DD	FLAT:__CT??_R0?AVbad_alloc@std@@@8??0bad_alloc@std@@QAE@ABV01@@Z12
	DD	FLAT:__CT??_R0?AVexception@std@@@8??0exception@std@@QAE@ABV01@@Z12
xdata$x	ENDS
;	COMDAT __TI3?AVbad_array_new_length@std@@
xdata$x	SEGMENT
__TI3?AVbad_array_new_length@std@@ DD 00H
	DD	FLAT:??1bad_array_new_length@std@@UAE@XZ
	DD	00H
	DD	FLAT:__CTA3?AVbad_array_new_length@std@@
xdata$x	ENDS
;	COMDAT ??_C@_0BF@KINCDENJ@bad?5array?5new?5length@
CONST	SEGMENT
??_C@_0BF@KINCDENJ@bad?5array?5new?5length@ DB 'bad array new length', 00H ; `string'
CONST	ENDS
;	COMDAT ??_7bad_array_new_length@std@@6B@
CONST	SEGMENT
??_7bad_array_new_length@std@@6B@ DD FLAT:??_R4bad_array_new_length@std@@6B@ ; std::bad_array_new_length::`vftable'
	DD	FLAT:??_Ebad_array_new_length@std@@UAEPAXI@Z
	DD	FLAT:?what@exception@std@@UBEPBDXZ
CONST	ENDS
;	COMDAT ??_7bad_alloc@std@@6B@
CONST	SEGMENT
??_7bad_alloc@std@@6B@ DD FLAT:??_R4bad_alloc@std@@6B@	; std::bad_alloc::`vftable'
	DD	FLAT:??_Ebad_alloc@std@@UAEPAXI@Z
	DD	FLAT:?what@exception@std@@UBEPBDXZ
CONST	ENDS
;	COMDAT ??_C@_0BC@EOODALEL@Unknown?5exception@
CONST	SEGMENT
??_C@_0BC@EOODALEL@Unknown?5exception@ DB 'Unknown exception', 00H ; `string'
CONST	ENDS
;	COMDAT ??_7exception@std@@6B@
CONST	SEGMENT
??_7exception@std@@6B@ DD FLAT:??_R4exception@std@@6B@	; std::exception::`vftable'
	DD	FLAT:??_Eexception@std@@UAEPAXI@Z
	DD	FLAT:?what@exception@std@@UBEPBDXZ
CONST	ENDS
;	COMDAT xdata$x
xdata$x	SEGMENT
__unwindtable$??$?0U?$pair@$$CBKPAUSEnvironmentData@@@std@@@?$_Tree_temp_node@V?$allocator@U?$_Tree_node@U?$pair@$$CBKPAUSEnvironmentData@@@std@@PAX@std@@@std@@@std@@QAE@AAV?$allocator@U?$_Tree_node@U?$pair@$$CBKPAUSEnvironmentData@@@std@@PAX@std@@@1@PAU?$_Tree_node@U?$pair@$$CBKPAUSEnvironmentData@@@std@@PAX@1@$$QAU?$pair@$$CBKPAUSEnvironmentData@@@1@@Z DD 0ffffffffH
	DD	FLAT:__unwindfunclet$??$?0U?$pair@$$CBKPAUSEnvironmentData@@@std@@@?$_Tree_temp_node@V?$allocator@U?$_Tree_node@U?$pair@$$CBKPAUSEnvironmentData@@@std@@PAX@std@@@std@@@std@@QAE@AAV?$allocator@U?$_Tree_node@U?$pair@$$CBKPAUSEnvironmentData@@@std@@PAX@std@@@1@PAU?$_Tree_node@U?$pair@$$CBKPAUSEnvironmentData@@@std@@PAX@1@$$QAU?$pair@$$CBKPAUSEnvironmentData@@@1@@Z$1
__ehfuncinfo$??$?0U?$pair@$$CBKPAUSEnvironmentData@@@std@@@?$_Tree_temp_node@V?$allocator@U?$_Tree_node@U?$pair@$$CBKPAUSEnvironmentData@@@std@@PAX@std@@@std@@@std@@QAE@AAV?$allocator@U?$_Tree_node@U?$pair@$$CBKPAUSEnvironmentData@@@std@@PAX@std@@@1@PAU?$_Tree_node@U?$pair@$$CBKPAUSEnvironmentData@@@std@@PAX@1@$$QAU?$pair@$$CBKPAUSEnvironmentData@@@1@@Z DD 019930522H
	DD	01H
	DD	FLAT:__unwindtable$??$?0U?$pair@$$CBKPAUSEnvironmentData@@@std@@@?$_Tree_temp_node@V?$allocator@U?$_Tree_node@U?$pair@$$CBKPAUSEnvironmentData@@@std@@PAX@std@@@std@@@std@@QAE@AAV?$allocator@U?$_Tree_node@U?$pair@$$CBKPAUSEnvironmentData@@@std@@PAX@std@@@1@PAU?$_Tree_node@U?$pair@$$CBKPAUSEnvironmentData@@@std@@PAX@1@$$QAU?$pair@$$CBKPAUSEnvironmentData@@@1@@Z
	DD	2 DUP(00H)
	DD	2 DUP(00H)
	DD	00H
	DD	01H
xdata$x	ENDS
;	COMDAT xdata$x
xdata$x	SEGMENT
__unwindtable$??0?$_Tree_temp_node_alloc@V?$allocator@U?$_Tree_node@U?$pair@$$CBKPAUSEnvironmentData@@@std@@PAX@std@@@std@@@std@@QAE@AAV?$allocator@U?$_Tree_node@U?$pair@$$CBKPAUSEnvironmentData@@@std@@PAX@std@@@1@@Z DD 0ffffffffH
	DD	FLAT:__unwindfunclet$??0?$_Tree_temp_node_alloc@V?$allocator@U?$_Tree_node@U?$pair@$$CBKPAUSEnvironmentData@@@std@@PAX@std@@@std@@@std@@QAE@AAV?$allocator@U?$_Tree_node@U?$pair@$$CBKPAUSEnvironmentData@@@std@@PAX@std@@@1@@Z$0
__ehfuncinfo$??0?$_Tree_temp_node_alloc@V?$allocator@U?$_Tree_node@U?$pair@$$CBKPAUSEnvironmentData@@@std@@PAX@std@@@std@@@std@@QAE@AAV?$allocator@U?$_Tree_node@U?$pair@$$CBKPAUSEnvironmentData@@@std@@PAX@std@@@1@@Z DD 019930522H
	DD	01H
	DD	FLAT:__unwindtable$??0?$_Tree_temp_node_alloc@V?$allocator@U?$_Tree_node@U?$pair@$$CBKPAUSEnvironmentData@@@std@@PAX@std@@@std@@@std@@QAE@AAV?$allocator@U?$_Tree_node@U?$pair@$$CBKPAUSEnvironmentData@@@std@@PAX@std@@@1@@Z
	DD	2 DUP(00H)
	DD	2 DUP(00H)
	DD	00H
	DD	01H
xdata$x	ENDS
;	COMDAT xdata$x
xdata$x	SEGMENT
__unwindtable$??$_Emplace@U?$pair@$$CBKPAUSEnvironmentData@@@std@@@?$_Tree@V?$_Tmap_traits@KPAUSEnvironmentData@@U?$less@K@std@@V?$allocator@U?$pair@$$CBKPAUSEnvironmentData@@@std@@@3@$0A@@std@@@std@@IAE?AU?$pair@PAU?$_Tree_node@U?$pair@$$CBKPAUSEnvironmentData@@@std@@PAX@std@@_N@1@$$QAU?$pair@$$CBKPAUSEnvironmentData@@@1@@Z DD 0ffffffffH
	DD	FLAT:__unwindfunclet$??$_Emplace@U?$pair@$$CBKPAUSEnvironmentData@@@std@@@?$_Tree@V?$_Tmap_traits@KPAUSEnvironmentData@@U?$less@K@std@@V?$allocator@U?$pair@$$CBKPAUSEnvironmentData@@@std@@@3@$0A@@std@@@std@@IAE?AU?$pair@PAU?$_Tree_node@U?$pair@$$CBKPAUSEnvironmentData@@@std@@PAX@std@@_N@1@$$QAU?$pair@$$CBKPAUSEnvironmentData@@@1@@Z$2
__ehfuncinfo$??$_Emplace@U?$pair@$$CBKPAUSEnvironmentData@@@std@@@?$_Tree@V?$_Tmap_traits@KPAUSEnvironmentData@@U?$less@K@std@@V?$allocator@U?$pair@$$CBKPAUSEnvironmentData@@@std@@@3@$0A@@std@@@std@@IAE?AU?$pair@PAU?$_Tree_node@U?$pair@$$CBKPAUSEnvironmentData@@@std@@PAX@std@@_N@1@$$QAU?$pair@$$CBKPAUSEnvironmentData@@@1@@Z DD 019930522H
	DD	01H
	DD	FLAT:__unwindtable$??$_Emplace@U?$pair@$$CBKPAUSEnvironmentData@@@std@@@?$_Tree@V?$_Tmap_traits@KPAUSEnvironmentData@@U?$less@K@std@@V?$allocator@U?$pair@$$CBKPAUSEnvironmentData@@@std@@@3@$0A@@std@@@std@@IAE?AU?$pair@PAU?$_Tree_node@U?$pair@$$CBKPAUSEnvironmentData@@@std@@PAX@std@@_N@1@$$QAU?$pair@$$CBKPAUSEnvironmentData@@@1@@Z
	DD	2 DUP(00H)
	DD	2 DUP(00H)
	DD	00H
	DD	01H
xdata$x	ENDS
;	COMDAT xdata$x
xdata$x	SEGMENT
__catchsym$??$_Emplace_reallocate@ABUTMapInfo@CMapManager@@@?$vector@UTMapInfo@CMapManager@@V?$allocator@UTMapInfo@CMapManager@@@std@@@std@@QAEPAUTMapInfo@CMapManager@@QAU23@ABU23@@Z$2 DD 040H
	DD	00H
	DD	00H
	DD	FLAT:__catch$??$_Emplace_reallocate@ABUTMapInfo@CMapManager@@@?$vector@UTMapInfo@CMapManager@@V?$allocator@UTMapInfo@CMapManager@@@std@@@std@@QAEPAUTMapInfo@CMapManager@@QAU23@ABU23@@Z$0
__unwindtable$??$_Emplace_reallocate@ABUTMapInfo@CMapManager@@@?$vector@UTMapInfo@CMapManager@@V?$allocator@UTMapInfo@CMapManager@@@std@@@std@@QAEPAUTMapInfo@CMapManager@@QAU23@ABU23@@Z DD 0ffffffffH
	DD	00H
	DD	0ffffffffH
	DD	00H
__tryblocktable$??$_Emplace_reallocate@ABUTMapInfo@CMapManager@@@?$vector@UTMapInfo@CMapManager@@V?$allocator@UTMapInfo@CMapManager@@@std@@@std@@QAEPAUTMapInfo@CMapManager@@QAU23@ABU23@@Z DD 00H
	DD	00H
	DD	01H
	DD	01H
	DD	FLAT:__catchsym$??$_Emplace_reallocate@ABUTMapInfo@CMapManager@@@?$vector@UTMapInfo@CMapManager@@V?$allocator@UTMapInfo@CMapManager@@@std@@@std@@QAEPAUTMapInfo@CMapManager@@QAU23@ABU23@@Z$2
__ehfuncinfo$??$_Emplace_reallocate@ABUTMapInfo@CMapManager@@@?$vector@UTMapInfo@CMapManager@@V?$allocator@UTMapInfo@CMapManager@@@std@@@std@@QAEPAUTMapInfo@CMapManager@@QAU23@ABU23@@Z DD 019930522H
	DD	02H
	DD	FLAT:__unwindtable$??$_Emplace_reallocate@ABUTMapInfo@CMapManager@@@?$vector@UTMapInfo@CMapManager@@V?$allocator@UTMapInfo@CMapManager@@@std@@@std@@QAEPAUTMapInfo@CMapManager@@QAU23@ABU23@@Z
	DD	01H
	DD	FLAT:__tryblocktable$??$_Emplace_reallocate@ABUTMapInfo@CMapManager@@@?$vector@UTMapInfo@CMapManager@@V?$allocator@UTMapInfo@CMapManager@@@std@@@std@@QAEPAUTMapInfo@CMapManager@@QAU23@ABU23@@Z
	DD	2 DUP(00H)
	DD	00H
	DD	01H
xdata$x	ENDS
;	COMDAT xdata$x
xdata$x	SEGMENT
__unwindtable$??$insert@$0A@$0A@@?$_Tree@V?$_Tmap_traits@KPAUSEnvironmentData@@U?$less@K@std@@V?$allocator@U?$pair@$$CBKPAUSEnvironmentData@@@std@@@3@$0A@@std@@@std@@QAE?AU?$pair@V?$_Tree_iterator@V?$_Tree_val@U?$_Tree_simple_types@U?$pair@$$CBKPAUSEnvironmentData@@@std@@@std@@@std@@@std@@_N@1@$$QAU?$pair@$$CBKPAUSEnvironmentData@@@1@@Z DD 0ffffffffH
	DD	FLAT:__unwindfunclet$??$insert@$0A@$0A@@?$_Tree@V?$_Tmap_traits@KPAUSEnvironmentData@@U?$less@K@std@@V?$allocator@U?$pair@$$CBKPAUSEnvironmentData@@@std@@@3@$0A@@std@@@std@@QAE?AU?$pair@V?$_Tree_iterator@V?$_Tree_val@U?$_Tree_simple_types@U?$pair@$$CBKPAUSEnvironmentData@@@std@@@std@@@std@@@std@@_N@1@$$QAU?$pair@$$CBKPAUSEnvironmentData@@@1@@Z$2
__ehfuncinfo$??$insert@$0A@$0A@@?$_Tree@V?$_Tmap_traits@KPAUSEnvironmentData@@U?$less@K@std@@V?$allocator@U?$pair@$$CBKPAUSEnvironmentData@@@std@@@3@$0A@@std@@@std@@QAE?AU?$pair@V?$_Tree_iterator@V?$_Tree_val@U?$_Tree_simple_types@U?$pair@$$CBKPAUSEnvironmentData@@@std@@@std@@@std@@@std@@_N@1@$$QAU?$pair@$$CBKPAUSEnvironmentData@@@1@@Z DD 019930522H
	DD	01H
	DD	FLAT:__unwindtable$??$insert@$0A@$0A@@?$_Tree@V?$_Tmap_traits@KPAUSEnvironmentData@@U?$less@K@std@@V?$allocator@U?$pair@$$CBKPAUSEnvironmentData@@@std@@@3@$0A@@std@@@std@@QAE?AU?$pair@V?$_Tree_iterator@V?$_Tree_val@U?$_Tree_simple_types@U?$pair@$$CBKPAUSEnvironmentData@@@std@@@std@@@std@@@std@@_N@1@$$QAU?$pair@$$CBKPAUSEnvironmentData@@@1@@Z
	DD	2 DUP(00H)
	DD	2 DUP(00H)
	DD	00H
	DD	01H
xdata$x	ENDS
;	COMDAT xdata$x
xdata$x	SEGMENT
__unwindtable$??$stl_wipe_second@V?$map@KPAUSEnvironmentData@@U?$less@K@std@@V?$allocator@U?$pair@$$CBKPAUSEnvironmentData@@@std@@@3@@std@@@@YAXAAV?$map@KPAUSEnvironmentData@@U?$less@K@std@@V?$allocator@U?$pair@$$CBKPAUSEnvironmentData@@@std@@@3@@std@@@Z DD 0ffffffffH
	DD	FLAT:___std_terminate
__ehfuncinfo$??$stl_wipe_second@V?$map@KPAUSEnvironmentData@@U?$less@K@std@@V?$allocator@U?$pair@$$CBKPAUSEnvironmentData@@@std@@@3@@std@@@@YAXAAV?$map@KPAUSEnvironmentData@@U?$less@K@std@@V?$allocator@U?$pair@$$CBKPAUSEnvironmentData@@@std@@@3@@std@@@Z DD 019930522H
	DD	01H
	DD	FLAT:__unwindtable$??$stl_wipe_second@V?$map@KPAUSEnvironmentData@@U?$less@K@std@@V?$allocator@U?$pair@$$CBKPAUSEnvironmentData@@@std@@@3@@std@@@@YAXAAV?$map@KPAUSEnvironmentData@@U?$less@K@std@@V?$allocator@U?$pair@$$CBKPAUSEnvironmentData@@@std@@@3@@std@@@Z
	DD	2 DUP(00H)
	DD	2 DUP(00H)
	DD	00H
	DD	01H
xdata$x	ENDS
;	COMDAT xdata$x
xdata$x	SEGMENT
__unwindtable$?__LoadMapInfoVector@CMapManager@@IAEXXZ DD 0ffffffffH
	DD	FLAT:__unwindfunclet$?__LoadMapInfoVector@CMapManager@@IAEXXZ$0
	DD	00H
	DD	FLAT:__unwindfunclet$?__LoadMapInfoVector@CMapManager@@IAEXXZ$1
	DD	01H
	DD	FLAT:__unwindfunclet$?__LoadMapInfoVector@CMapManager@@IAEXXZ$2
__ehfuncinfo$?__LoadMapInfoVector@CMapManager@@IAEXXZ DD 019930522H
	DD	03H
	DD	FLAT:__unwindtable$?__LoadMapInfoVector@CMapManager@@IAEXXZ
	DD	2 DUP(00H)
	DD	2 DUP(00H)
	DD	00H
	DD	01H
xdata$x	ENDS
;	COMDAT xdata$x
xdata$x	SEGMENT
__unwindtable$?AllocEnvironmentData@CMapManager@@IAEPAUSEnvironmentData@@XZ DD 0ffffffffH
	DD	FLAT:__unwindfunclet$?AllocEnvironmentData@CMapManager@@IAEPAUSEnvironmentData@@XZ$0
__ehfuncinfo$?AllocEnvironmentData@CMapManager@@IAEPAUSEnvironmentData@@XZ DD 019930522H
	DD	01H
	DD	FLAT:__unwindtable$?AllocEnvironmentData@CMapManager@@IAEPAUSEnvironmentData@@XZ
	DD	2 DUP(00H)
	DD	2 DUP(00H)
	DD	00H
	DD	01H
xdata$x	ENDS
;	COMDAT xdata$x
xdata$x	SEGMENT
__unwindtable$?LoadProperty@CMapManager@@QAEXXZ DD 0ffffffffH
	DD	FLAT:__unwindfunclet$?LoadProperty@CMapManager@@QAEXXZ$0
__ehfuncinfo$?LoadProperty@CMapManager@@QAEXXZ DD 019930522H
	DD	01H
	DD	FLAT:__unwindtable$?LoadProperty@CMapManager@@QAEXXZ
	DD	2 DUP(00H)
	DD	2 DUP(00H)
	DD	00H
	DD	01H
xdata$x	ENDS
;	COMDAT xdata$x
xdata$x	SEGMENT
__unwindtable$?RegisterEnvironmentData@CMapManager@@QAE_NKPBD@Z DD 0ffffffffH
	DD	FLAT:__unwindfunclet$?RegisterEnvironmentData@CMapManager@@QAE_NKPBD@Z$2
__ehfuncinfo$?RegisterEnvironmentData@CMapManager@@QAE_NKPBD@Z DD 019930522H
	DD	01H
	DD	FLAT:__unwindtable$?RegisterEnvironmentData@CMapManager@@QAE_NKPBD@Z
	DD	2 DUP(00H)
	DD	2 DUP(00H)
	DD	00H
	DD	01H
xdata$x	ENDS
;	COMDAT xdata$x
xdata$x	SEGMENT
__unwindtable$?UnloadMap@CMapManager@@QAE_NV?$basic_string@DU?$char_traits@D@std@@V?$allocator@D@2@@std@@@Z DD 0ffffffffH
	DD	FLAT:__unwindfunclet$?UnloadMap@CMapManager@@QAE_NV?$basic_string@DU?$char_traits@D@std@@V?$allocator@D@2@@std@@@Z$0
__ehfuncinfo$?UnloadMap@CMapManager@@QAE_NV?$basic_string@DU?$char_traits@D@std@@V?$allocator@D@2@@std@@@Z DD 019930522H
	DD	01H
	DD	FLAT:__unwindtable$?UnloadMap@CMapManager@@QAE_NV?$basic_string@DU?$char_traits@D@std@@V?$allocator@D@2@@std@@@Z
	DD	2 DUP(00H)
	DD	2 DUP(00H)
	DD	00H
	DD	01H
xdata$x	ENDS
;	COMDAT xdata$x
xdata$x	SEGMENT
__unwindtable$?AllocMap@CMapManager@@UAEPAVCMapBase@@XZ DD 0ffffffffH
	DD	FLAT:__unwindfunclet$?AllocMap@CMapManager@@UAEPAVCMapBase@@XZ$0
__ehfuncinfo$?AllocMap@CMapManager@@UAEPAVCMapBase@@XZ DD 019930522H
	DD	01H
	DD	FLAT:__unwindtable$?AllocMap@CMapManager@@UAEPAVCMapBase@@XZ
	DD	2 DUP(00H)
	DD	2 DUP(00H)
	DD	00H
	DD	01H
xdata$x	ENDS
;	COMDAT xdata$x
xdata$x	SEGMENT
__ehfuncinfo$??1CMapManager@@UAE@XZ DD 019930522H
	DD	00H
	DD	00H
	DD	2 DUP(00H)
	DD	2 DUP(00H)
	DD	00H
	DD	05H
xdata$x	ENDS
;	COMDAT xdata$x
xdata$x	SEGMENT
__unwindtable$??0CMapManager@@QAE@XZ DD 0ffffffffH
	DD	FLAT:__unwindfunclet$??0CMapManager@@QAE@XZ$0
	DD	00H
	DD	FLAT:__unwindfunclet$??0CMapManager@@QAE@XZ$1
	DD	01H
	DD	FLAT:__unwindfunclet$??0CMapManager@@QAE@XZ$2
	DD	02H
	DD	FLAT:__unwindfunclet$??0CMapManager@@QAE@XZ$3
__ehfuncinfo$??0CMapManager@@QAE@XZ DD 019930522H
	DD	04H
	DD	FLAT:__unwindtable$??0CMapManager@@QAE@XZ
	DD	2 DUP(00H)
	DD	2 DUP(00H)
	DD	00H
	DD	01H
xdata$x	ENDS
;	COMDAT xdata$x
xdata$x	SEGMENT
__unwindtable$??_GSEnvironmentData@@QAEPAXI@Z DD 0ffffffffH
	DD	FLAT:___std_terminate
__ehfuncinfo$??_GSEnvironmentData@@QAEPAXI@Z DD 019930522H
	DD	01H
	DD	FLAT:__unwindtable$??_GSEnvironmentData@@QAEPAXI@Z
	DD	2 DUP(00H)
	DD	2 DUP(00H)
	DD	00H
	DD	05H
xdata$x	ENDS
;	COMDAT xdata$x
xdata$x	SEGMENT
__ehfuncinfo$??1SEnvironmentData@@QAE@XZ DD 019930522H
	DD	00H
	DD	00H
	DD	2 DUP(00H)
	DD	2 DUP(00H)
	DD	00H
	DD	05H
xdata$x	ENDS
; Function compile flags: /Odsp
;	COMDAT ??_ECMapManager@@W3AEPAXI@Z
_TEXT	SEGMENT
??_ECMapManager@@W3AEPAXI@Z PROC			; [thunk]:CMapManager::`vector deleting destructor', COMDAT
  00000	83 e9 04	 sub	 ecx, 4
  00003	e9 00 00 00 00	 jmp	 ??_ECMapManager@@UAEPAXI@Z
??_ECMapManager@@W3AEPAXI@Z ENDP			; [thunk]:CMapManager::`vector deleting destructor'
_TEXT	ENDS
; Function compile flags: /Ogtp
; File C:\Program Files (x86)\Microsoft Visual Studio\2019\Community\VC\Tools\MSVC\14.27.29110\include\xmemory
;	COMDAT ??$_Construct_in_place@PAU?$_Tree_node@U?$pair@$$CBKPAUSEnvironmentData@@@std@@PAX@std@@AAPAU12@@std@@YAXAAPAU?$_Tree_node@U?$pair@$$CBKPAUSEnvironmentData@@@std@@PAX@0@0@Z
_TEXT	SEGMENT
__Obj$ = 8						; size = 4
_<_Args_0>$ = 12					; size = 4
??$_Construct_in_place@PAU?$_Tree_node@U?$pair@$$CBKPAUSEnvironmentData@@@std@@PAX@std@@AAPAU12@@std@@YAXAAPAU?$_Tree_node@U?$pair@$$CBKPAUSEnvironmentData@@@std@@PAX@0@0@Z PROC ; std::_Construct_in_place<std::_Tree_node<std::pair<unsigned long const ,SEnvironmentData *>,void *> *,std::_Tree_node<std::pair<unsigned long const ,SEnvironmentData *>,void *> * &>, COMDAT

; 228  : void _Construct_in_place(_Ty& _Obj, _Types&&... _Args) noexcept(is_nothrow_constructible_v<_Ty, _Types...>) {

  00000	55		 push	 ebp
  00001	8b ec		 mov	 ebp, esp

; 229  :     ::new (const_cast<void*>(static_cast<const volatile void*>(_STD addressof(_Obj))))

  00003	8b 45 0c	 mov	 eax, DWORD PTR _<_Args_0>$[ebp]
  00006	8b 08		 mov	 ecx, DWORD PTR [eax]
  00008	8b 45 08	 mov	 eax, DWORD PTR __Obj$[ebp]
  0000b	89 08		 mov	 DWORD PTR [eax], ecx

; 230  :         _Ty(_STD forward<_Types>(_Args)...);
; 231  : }

  0000d	5d		 pop	 ebp
  0000e	c3		 ret	 0
??$_Construct_in_place@PAU?$_Tree_node@U?$pair@$$CBKPAUSEnvironmentData@@@std@@PAX@std@@AAPAU12@@std@@YAXAAPAU?$_Tree_node@U?$pair@$$CBKPAUSEnvironmentData@@@std@@PAX@0@0@Z ENDP ; std::_Construct_in_place<std::_Tree_node<std::pair<unsigned long const ,SEnvironmentData *>,void *> *,std::_Tree_node<std::pair<unsigned long const ,SEnvironmentData *>,void *> * &>
_TEXT	ENDS
; Function compile flags: /Ogtp
; File C:\Program Files (x86)\Microsoft Visual Studio\2019\Community\VC\Tools\MSVC\14.27.29110\include\xmemory
;	COMDAT ??$_Destroy_in_place@PAU?$_Tree_node@U?$pair@$$CBKPAUSEnvironmentData@@@std@@PAX@std@@@std@@YAXAAPAU?$_Tree_node@U?$pair@$$CBKPAUSEnvironmentData@@@std@@PAX@0@@Z
_TEXT	SEGMENT
__Obj$ = 8						; size = 4
??$_Destroy_in_place@PAU?$_Tree_node@U?$pair@$$CBKPAUSEnvironmentData@@@std@@PAX@std@@@std@@YAXAAPAU?$_Tree_node@U?$pair@$$CBKPAUSEnvironmentData@@@std@@PAX@0@@Z PROC ; std::_Destroy_in_place<std::_Tree_node<std::pair<unsigned long const ,SEnvironmentData *>,void *> *>, COMDAT

; 268  :     _Obj.~_Ty();
; 269  : }

  00000	c2 00 00	 ret	 0
??$_Destroy_in_place@PAU?$_Tree_node@U?$pair@$$CBKPAUSEnvironmentData@@@std@@PAX@std@@@std@@YAXAAPAU?$_Tree_node@U?$pair@$$CBKPAUSEnvironmentData@@@std@@PAX@0@@Z ENDP ; std::_Destroy_in_place<std::_Tree_node<std::pair<unsigned long const ,SEnvironmentData *>,void *> *>
_TEXT	ENDS
; Function compile flags: /Ogtp
; File C:\Program Files (x86)\Microsoft Visual Studio\2019\Community\VC\Tools\MSVC\14.27.29110\include\xmemory
;	COMDAT ??1?$_Alloc_construct_ptr@V?$allocator@U?$_Tree_node@U?$pair@$$CBKPAUSEnvironmentData@@@std@@PAX@std@@@std@@@std@@QAE@XZ
_TEXT	SEGMENT
??1?$_Alloc_construct_ptr@V?$allocator@U?$_Tree_node@U?$pair@$$CBKPAUSEnvironmentData@@@std@@PAX@std@@@std@@@std@@QAE@XZ PROC ; std::_Alloc_construct_ptr<std::allocator<std::_Tree_node<std::pair<unsigned long const ,SEnvironmentData *>,void *> > >::~_Alloc_construct_ptr<std::allocator<std::_Tree_node<std::pair<unsigned long const ,SEnvironmentData *>,void *> > >, COMDAT
; _this$ = ecx

; 1052 :         if (_Ptr) {

  00000	8b 41 04	 mov	 eax, DWORD PTR [ecx+4]
  00003	85 c0		 test	 eax, eax
  00005	74 0b		 je	 SHORT $LN2@Alloc_cons

; 803  :         _Deallocate<_New_alignof<_Ty>>(_Ptr, sizeof(_Ty) * _Count);

  00007	6a 18		 push	 24			; 00000018H
  00009	50		 push	 eax
  0000a	e8 00 00 00 00	 call	 ??$_Deallocate@$07$0A@@std@@YAXPAXI@Z ; std::_Deallocate<8,0>
  0000f	83 c4 08	 add	 esp, 8
$LN2@Alloc_cons:

; 1053 :             _Al.deallocate(_Ptr, 1);
; 1054 :         }
; 1055 :     }

  00012	c3		 ret	 0
??1?$_Alloc_construct_ptr@V?$allocator@U?$_Tree_node@U?$pair@$$CBKPAUSEnvironmentData@@@std@@PAX@std@@@std@@@std@@QAE@XZ ENDP ; std::_Alloc_construct_ptr<std::allocator<std::_Tree_node<std::pair<unsigned long const ,SEnvironmentData *>,void *> > >::~_Alloc_construct_ptr<std::allocator<std::_Tree_node<std::pair<unsigned long const ,SEnvironmentData *>,void *> > >
_TEXT	ENDS
; Function compile flags: /Ogtp
; File C:\Program Files (x86)\Microsoft Visual Studio\2019\Community\VC\Tools\MSVC\14.27.29110\include\xmemory
; File C:\Program Files (x86)\Microsoft Visual Studio\2019\Community\VC\Tools\MSVC\14.27.29110\include\xstring
; File C:\Program Files (x86)\Microsoft Visual Studio\2019\Community\VC\Tools\MSVC\14.27.29110\include\xmemory
; File C:\Program Files (x86)\Microsoft Visual Studio\2019\Community\VC\Tools\MSVC\14.27.29110\include\xstring
; File C:\Program Files (x86)\Microsoft Visual Studio\2019\Community\VC\Tools\MSVC\14.27.29110\include\xmemory
;	COMDAT ??$_Uninitialized_move@PAUTMapInfo@CMapManager@@V?$allocator@UTMapInfo@CMapManager@@@std@@@std@@YAPAUTMapInfo@CMapManager@@QAU12@0PAU12@AAV?$allocator@UTMapInfo@CMapManager@@@0@@Z
_TEXT	SEGMENT
__First$ = 8						; size = 4
__Last$ = 12						; size = 4
__Dest$ = 16						; size = 4
__Al$ = 20						; size = 4
??$_Uninitialized_move@PAUTMapInfo@CMapManager@@V?$allocator@UTMapInfo@CMapManager@@@std@@@std@@YAPAUTMapInfo@CMapManager@@QAU12@0PAU12@AAV?$allocator@UTMapInfo@CMapManager@@@0@@Z PROC ; std::_Uninitialized_move<CMapManager::TMapInfo *,std::allocator<CMapManager::TMapInfo> >, COMDAT

; 1647 :     const _InIt _First, const _InIt _Last, _Alloc_ptr_t<_Alloc> _Dest, _Alloc& _Al) {

  00000	55		 push	 ebp
  00001	8b ec		 mov	 ebp, esp

; 1659 :         for (; _UFirst != _ULast; ++_UFirst) {

  00003	8b 4d 08	 mov	 ecx, DWORD PTR __First$[ebp]
  00006	56		 push	 esi

; 1497 :     _Uninitialized_backout_al(pointer _Dest, _Alloc& _Al_) : _First(_Dest), _Last(_Dest), _Al(_Al_) {}

  00007	8b 75 10	 mov	 esi, DWORD PTR __Dest$[ebp]

; 1647 :     const _InIt _First, const _InIt _Last, _Alloc_ptr_t<_Alloc> _Dest, _Alloc& _Al) {

  0000a	57		 push	 edi

; 1659 :         for (; _UFirst != _ULast; ++_UFirst) {

  0000b	8b 7d 0c	 mov	 edi, DWORD PTR __Last$[ebp]
  0000e	3b cf		 cmp	 ecx, edi
  00010	74 71		 je	 SHORT $LN3@Uninitiali

; 1497 :     _Uninitialized_backout_al(pointer _Dest, _Alloc& _Al_) : _First(_Dest), _Last(_Dest), _Al(_Al_) {}

  00012	8b d6		 mov	 edx, esi
  00014	8d 41 14	 lea	 eax, DWORD PTR [ecx+20]
  00017	2b d1		 sub	 edx, ecx
  00019	0f 1f 80 00 00
	00 00		 npad	 7
$LL4@Uninitiali:
; File C:\Program Files (x86)\Microsoft Visual Studio\2019\Community\VC\Tools\MSVC\14.27.29110\include\xstring

; 2124 :     _String_val() : _Bx(), _Mysize(0), _Myres(0) {}

  00020	c7 46 10 00 00
	00 00		 mov	 DWORD PTR [esi+16], 0
; File C:\Program Files (x86)\Microsoft Visual Studio\2019\Community\VC\Tools\MSVC\14.27.29110\include\xmemory

; 1509 :         ++_Last;

  00027	8d 40 30	 lea	 eax, DWORD PTR [eax+48]
; File C:\Program Files (x86)\Microsoft Visual Studio\2019\Community\VC\Tools\MSVC\14.27.29110\include\xstring

; 2124 :     _String_val() : _Bx(), _Mysize(0), _Myres(0) {}

  0002a	c7 44 02 d0 00
	00 00 00	 mov	 DWORD PTR [edx+eax-48], 0

; 2606 :         _CSTD memcpy(_My_data_mem, _Right_data_mem, _Memcpy_val_size);

  00032	0f 10 40 bc	 movups	 xmm0, XMMWORD PTR [eax-68]
  00036	0f 11 06	 movups	 XMMWORD PTR [esi], xmm0
  00039	f3 0f 7e 40 cc	 movq	 xmm0, QWORD PTR [eax-52]
  0003e	66 0f d6 46 10	 movq	 QWORD PTR [esi+16], xmm0

; 4293 :         _Mypair._Myval2._Mysize = 0;

  00043	c7 40 cc 00 00
	00 00		 mov	 DWORD PTR [eax-52], 0

; 4294 :         _Mypair._Myval2._Myres  = _BUF_SIZE - 1;

  0004a	c7 40 d0 0f 00
	00 00		 mov	 DWORD PTR [eax-48], 15	; 0000000fH

; 4295 :         // the _Traits::assign is last so the codegen doesn't think the char write can alias this
; 4296 :         _Traits::assign(_Mypair._Myval2._Bx._Buf[0], _Elem());

  00051	c6 40 bc 00	 mov	 BYTE PTR [eax-68], 0
  00055	8b 48 d4	 mov	 ecx, DWORD PTR [eax-44]
  00058	89 4e 18	 mov	 DWORD PTR [esi+24], ecx
  0005b	8b 48 d8	 mov	 ecx, DWORD PTR [eax-40]
  0005e	89 4e 1c	 mov	 DWORD PTR [esi+28], ecx
  00061	8b 48 dc	 mov	 ecx, DWORD PTR [eax-36]
  00064	89 4e 20	 mov	 DWORD PTR [esi+32], ecx
  00067	8b 48 e0	 mov	 ecx, DWORD PTR [eax-32]
  0006a	89 4e 24	 mov	 DWORD PTR [esi+36], ecx
  0006d	8b 48 e4	 mov	 ecx, DWORD PTR [eax-28]
  00070	89 4e 28	 mov	 DWORD PTR [esi+40], ecx
  00073	8b 48 e8	 mov	 ecx, DWORD PTR [eax-24]
  00076	89 4e 2c	 mov	 DWORD PTR [esi+44], ecx
; File C:\Program Files (x86)\Microsoft Visual Studio\2019\Community\VC\Tools\MSVC\14.27.29110\include\xmemory

; 1659 :         for (; _UFirst != _ULast; ++_UFirst) {

  00079	8d 48 ec	 lea	 ecx, DWORD PTR [eax-20]

; 1509 :         ++_Last;

  0007c	83 c6 30	 add	 esi, 48			; 00000030H

; 1659 :         for (; _UFirst != _ULast; ++_UFirst) {

  0007f	3b cf		 cmp	 ecx, edi
  00081	75 9d		 jne	 SHORT $LL4@Uninitiali
$LN3@Uninitiali:

; 1503 :         _Destroy_range(_First, _Last, _Al);

  00083	ff 75 14	 push	 DWORD PTR __Al$[ebp]
  00086	56		 push	 esi
  00087	56		 push	 esi
  00088	e8 00 00 00 00	 call	 ??$_Destroy_range@V?$allocator@UTMapInfo@CMapManager@@@std@@@std@@YAXPAUTMapInfo@CMapManager@@QAU12@AAV?$allocator@UTMapInfo@CMapManager@@@0@@Z ; std::_Destroy_range<std::allocator<CMapManager::TMapInfo> >
  0008d	83 c4 0c	 add	 esp, 12			; 0000000cH

; 1660 :             _Backout._Emplace_back(_STD move(*_UFirst));
; 1661 :         }
; 1662 : 
; 1663 :         return _Backout._Release();

  00090	8b c6		 mov	 eax, esi
  00092	5f		 pop	 edi
  00093	5e		 pop	 esi

; 1664 :     }
; 1665 : }

  00094	5d		 pop	 ebp
  00095	c3		 ret	 0
??$_Uninitialized_move@PAUTMapInfo@CMapManager@@V?$allocator@UTMapInfo@CMapManager@@@std@@@std@@YAPAUTMapInfo@CMapManager@@QAU12@0PAU12@AAV?$allocator@UTMapInfo@CMapManager@@@0@@Z ENDP ; std::_Uninitialized_move<CMapManager::TMapInfo *,std::allocator<CMapManager::TMapInfo> >
_TEXT	ENDS
; Function compile flags: /Ogtp
; File C:\Program Files (x86)\Microsoft Visual Studio\2019\Community\VC\Tools\MSVC\14.27.29110\include\xmemory
;	COMDAT ??$_Construct_in_place@PAU?$_Tree_node@U?$pair@$$CBKPAUSEnvironmentData@@@std@@PAX@std@@ABQAU12@@std@@YAXAAPAU?$_Tree_node@U?$pair@$$CBKPAUSEnvironmentData@@@std@@PAX@0@ABQAU10@@Z
_TEXT	SEGMENT
__Obj$ = 8						; size = 4
_<_Args_0>$ = 12					; size = 4
??$_Construct_in_place@PAU?$_Tree_node@U?$pair@$$CBKPAUSEnvironmentData@@@std@@PAX@std@@ABQAU12@@std@@YAXAAPAU?$_Tree_node@U?$pair@$$CBKPAUSEnvironmentData@@@std@@PAX@0@ABQAU10@@Z PROC ; std::_Construct_in_place<std::_Tree_node<std::pair<unsigned long const ,SEnvironmentData *>,void *> *,std::_Tree_node<std::pair<unsigned long const ,SEnvironmentData *>,void *> * const &>, COMDAT

; 228  : void _Construct_in_place(_Ty& _Obj, _Types&&... _Args) noexcept(is_nothrow_constructible_v<_Ty, _Types...>) {

  00000	55		 push	 ebp
  00001	8b ec		 mov	 ebp, esp

; 229  :     ::new (const_cast<void*>(static_cast<const volatile void*>(_STD addressof(_Obj))))

  00003	8b 45 0c	 mov	 eax, DWORD PTR _<_Args_0>$[ebp]
  00006	8b 08		 mov	 ecx, DWORD PTR [eax]
  00008	8b 45 08	 mov	 eax, DWORD PTR __Obj$[ebp]
  0000b	89 08		 mov	 DWORD PTR [eax], ecx

; 230  :         _Ty(_STD forward<_Types>(_Args)...);
; 231  : }

  0000d	5d		 pop	 ebp
  0000e	c3		 ret	 0
??$_Construct_in_place@PAU?$_Tree_node@U?$pair@$$CBKPAUSEnvironmentData@@@std@@PAX@std@@ABQAU12@@std@@YAXAAPAU?$_Tree_node@U?$pair@$$CBKPAUSEnvironmentData@@@std@@PAX@0@ABQAU10@@Z ENDP ; std::_Construct_in_place<std::_Tree_node<std::pair<unsigned long const ,SEnvironmentData *>,void *> *,std::_Tree_node<std::pair<unsigned long const ,SEnvironmentData *>,void *> * const &>
_TEXT	ENDS
; Function compile flags: /Ogtp
; File C:\Program Files (x86)\Microsoft Visual Studio\2019\Community\VC\Tools\MSVC\14.27.29110\include\xtree
; File C:\Program Files (x86)\Microsoft Visual Studio\2019\Community\VC\Tools\MSVC\14.27.29110\include\utility
; File C:\Program Files (x86)\Microsoft Visual Studio\2019\Community\VC\Tools\MSVC\14.27.29110\include\xmemory
; File C:\Program Files (x86)\Microsoft Visual Studio\2019\Community\VC\Tools\MSVC\14.27.29110\include\xtree
;	COMDAT ??$_Erase_tree@V?$allocator@U?$_Tree_node@U?$pair@$$CBKPAUSEnvironmentData@@@std@@PAX@std@@@std@@@?$_Tree_val@U?$_Tree_simple_types@U?$pair@$$CBKPAUSEnvironmentData@@@std@@@std@@@std@@QAEXAAV?$allocator@U?$_Tree_node@U?$pair@$$CBKPAUSEnvironmentData@@@std@@PAX@std@@@1@PAU?$_Tree_node@U?$pair@$$CBKPAUSEnvironmentData@@@std@@PAX@1@@Z
_TEXT	SEGMENT
__Al$ = 8						; size = 4
__Rootnode$ = 12					; size = 4
??$_Erase_tree@V?$allocator@U?$_Tree_node@U?$pair@$$CBKPAUSEnvironmentData@@@std@@PAX@std@@@std@@@?$_Tree_val@U?$_Tree_simple_types@U?$pair@$$CBKPAUSEnvironmentData@@@std@@@std@@@std@@QAEXAAV?$allocator@U?$_Tree_node@U?$pair@$$CBKPAUSEnvironmentData@@@std@@PAX@std@@@1@PAU?$_Tree_node@U?$pair@$$CBKPAUSEnvironmentData@@@std@@PAX@1@@Z PROC ; std::_Tree_val<std::_Tree_simple_types<std::pair<unsigned long const ,SEnvironmentData *> > >::_Erase_tree<std::allocator<std::_Tree_node<std::pair<unsigned long const ,SEnvironmentData *>,void *> > >, COMDAT
; _this$ = ecx

; 742  :     void _Erase_tree(_Alnode& _Al, _Nodeptr _Rootnode) noexcept {

  00000	55		 push	 ebp
  00001	8b ec		 mov	 ebp, esp
  00003	53		 push	 ebx
  00004	56		 push	 esi

; 743  :         while (!_Rootnode->_Isnil) { // free subtrees, then node

  00005	8b 75 0c	 mov	 esi, DWORD PTR __Rootnode$[ebp]
  00008	8b d9		 mov	 ebx, ecx
  0000a	80 7e 0d 00	 cmp	 BYTE PTR [esi+13], 0
  0000e	75 25		 jne	 SHORT $LN3@Erase_tree
  00010	57		 push	 edi
  00011	8b 7d 08	 mov	 edi, DWORD PTR __Al$[ebp]
$LL2@Erase_tree:

; 744  :             _Erase_tree(_Al, _Rootnode->_Right);

  00014	ff 76 08	 push	 DWORD PTR [esi+8]
  00017	8b cb		 mov	 ecx, ebx
  00019	57		 push	 edi
  0001a	e8 00 00 00 00	 call	 ??$_Erase_tree@V?$allocator@U?$_Tree_node@U?$pair@$$CBKPAUSEnvironmentData@@@std@@PAX@std@@@std@@@?$_Tree_val@U?$_Tree_simple_types@U?$pair@$$CBKPAUSEnvironmentData@@@std@@@std@@@std@@QAEXAAV?$allocator@U?$_Tree_node@U?$pair@$$CBKPAUSEnvironmentData@@@std@@PAX@std@@@1@PAU?$_Tree_node@U?$pair@$$CBKPAUSEnvironmentData@@@std@@PAX@1@@Z ; std::_Tree_val<std::_Tree_simple_types<std::pair<unsigned long const ,SEnvironmentData *> > >::_Erase_tree<std::allocator<std::_Tree_node<std::pair<unsigned long const ,SEnvironmentData *>,void *> > >
; File C:\Program Files (x86)\Microsoft Visual Studio\2019\Community\VC\Tools\MSVC\14.27.29110\include\utility

; 599  :     _Ty _Old_val = static_cast<_Ty&&>(_Val);

  0001f	8b c6		 mov	 eax, esi

; 600  :     _Val         = static_cast<_Other&&>(_New_val);

  00021	8b 36		 mov	 esi, DWORD PTR [esi]
; File C:\Program Files (x86)\Microsoft Visual Studio\2019\Community\VC\Tools\MSVC\14.27.29110\include\xmemory

; 689  :         _Deallocate<_New_alignof<value_type>>(_Ptr, sizeof(value_type) * _Count);

  00023	6a 18		 push	 24			; 00000018H
  00025	50		 push	 eax
  00026	e8 00 00 00 00	 call	 ??$_Deallocate@$07$0A@@std@@YAXPAXI@Z ; std::_Deallocate<8,0>
  0002b	83 c4 08	 add	 esp, 8
; File C:\Program Files (x86)\Microsoft Visual Studio\2019\Community\VC\Tools\MSVC\14.27.29110\include\xtree

; 743  :         while (!_Rootnode->_Isnil) { // free subtrees, then node

  0002e	80 7e 0d 00	 cmp	 BYTE PTR [esi+13], 0
  00032	74 e0		 je	 SHORT $LL2@Erase_tree
  00034	5f		 pop	 edi
$LN3@Erase_tree:
  00035	5e		 pop	 esi

; 745  :             _Alnode::value_type::_Freenode(_Al, _STD exchange(_Rootnode, _Rootnode->_Left));
; 746  :         }
; 747  :     }

  00036	5b		 pop	 ebx
  00037	5d		 pop	 ebp
  00038	c2 08 00	 ret	 8
??$_Erase_tree@V?$allocator@U?$_Tree_node@U?$pair@$$CBKPAUSEnvironmentData@@@std@@PAX@std@@@std@@@?$_Tree_val@U?$_Tree_simple_types@U?$pair@$$CBKPAUSEnvironmentData@@@std@@@std@@@std@@QAEXAAV?$allocator@U?$_Tree_node@U?$pair@$$CBKPAUSEnvironmentData@@@std@@PAX@std@@@1@PAU?$_Tree_node@U?$pair@$$CBKPAUSEnvironmentData@@@std@@PAX@1@@Z ENDP ; std::_Tree_val<std::_Tree_simple_types<std::pair<unsigned long const ,SEnvironmentData *> > >::_Erase_tree<std::allocator<std::_Tree_node<std::pair<unsigned long const ,SEnvironmentData *>,void *> > >
_TEXT	ENDS
; Function compile flags: /Ogtp
; File C:\Program Files (x86)\Microsoft Visual Studio\2019\Community\VC\Tools\MSVC\14.27.29110\include\xtree
; File C:\Program Files (x86)\Microsoft Visual Studio\2019\Community\VC\Tools\MSVC\14.27.29110\include\xstddef
; File C:\Program Files (x86)\Microsoft Visual Studio\2019\Community\VC\Tools\MSVC\14.27.29110\include\xtree
; File C:\Program Files (x86)\Microsoft Visual Studio\2019\Community\VC\Tools\MSVC\14.27.29110\include\xstddef
; File C:\Program Files (x86)\Microsoft Visual Studio\2019\Community\VC\Tools\MSVC\14.27.29110\include\xtree
;	COMDAT ??$_Find_lower_bound@K@?$_Tree@V?$_Tmap_traits@KPAUSEnvironmentData@@U?$less@K@std@@V?$allocator@U?$pair@$$CBKPAUSEnvironmentData@@@std@@@3@$0A@@std@@@std@@IBE?AU?$_Tree_find_result@PAU?$_Tree_node@U?$pair@$$CBKPAUSEnvironmentData@@@std@@PAX@std@@@1@ABK@Z
_TEXT	SEGMENT
___$ReturnUdt$ = 8					; size = 4
__Keyval$ = 12						; size = 4
??$_Find_lower_bound@K@?$_Tree@V?$_Tmap_traits@KPAUSEnvironmentData@@U?$less@K@std@@V?$allocator@U?$pair@$$CBKPAUSEnvironmentData@@@std@@@3@$0A@@std@@@std@@IBE?AU?$_Tree_find_result@PAU?$_Tree_node@U?$pair@$$CBKPAUSEnvironmentData@@@std@@PAX@std@@@1@ABK@Z PROC ; std::_Tree<std::_Tmap_traits<unsigned long,SEnvironmentData *,std::less<unsigned long>,std::allocator<std::pair<unsigned long const ,SEnvironmentData *> >,0> >::_Find_lower_bound<unsigned long>, COMDAT
; _this$ = ecx

; 1699 :     _Tree_find_result<_Nodeptr> _Find_lower_bound(const _Keyty& _Keyval) const {

  00000	55		 push	 ebp
  00001	8b ec		 mov	 ebp, esp

; 1700 :         const auto _Scary = _Get_scary();
; 1701 :         _Tree_find_result<_Nodeptr> _Result{{_Scary->_Myhead->_Parent, _Tree_child::_Right}, _Scary->_Myhead};

  00003	8b 09		 mov	 ecx, DWORD PTR [ecx]
  00005	8b 55 08	 mov	 edx, DWORD PTR ___$ReturnUdt$[ebp]
  00008	8b 41 04	 mov	 eax, DWORD PTR [ecx+4]
  0000b	89 02		 mov	 DWORD PTR [edx], eax
  0000d	c7 42 04 00 00
	00 00		 mov	 DWORD PTR [edx+4], 0
  00014	89 4a 08	 mov	 DWORD PTR [edx+8], ecx

; 1702 :         _Nodeptr _Trynode = _Result._Location._Parent;
; 1703 :         while (!_Trynode->_Isnil) {

  00017	80 78 0d 00	 cmp	 BYTE PTR [eax+13], 0
  0001b	75 28		 jne	 SHORT $LN12@Find_lower
; File C:\Program Files (x86)\Microsoft Visual Studio\2019\Community\VC\Tools\MSVC\14.27.29110\include\xstddef

; 127  :         return _Left < _Right;

  0001d	8b 4d 0c	 mov	 ecx, DWORD PTR __Keyval$[ebp]
  00020	56		 push	 esi
  00021	8b 31		 mov	 esi, DWORD PTR [ecx]
$LL2@Find_lower:
; File C:\Program Files (x86)\Microsoft Visual Studio\2019\Community\VC\Tools\MSVC\14.27.29110\include\xtree

; 1704 :             _Result._Location._Parent = _Trynode;

  00023	89 02		 mov	 DWORD PTR [edx], eax
; File C:\Program Files (x86)\Microsoft Visual Studio\2019\Community\VC\Tools\MSVC\14.27.29110\include\xstddef

; 127  :         return _Left < _Right;

  00025	39 70 10	 cmp	 DWORD PTR [eax+16], esi
; File C:\Program Files (x86)\Microsoft Visual Studio\2019\Community\VC\Tools\MSVC\14.27.29110\include\xtree

; 1705 :             if (_DEBUG_LT_PRED(_Getcomp(), _Traits::_Kfn(_Trynode->_Myval), _Keyval)) {

  00028	73 07		 jae	 SHORT $LN4@Find_lower

; 1706 :                 _Result._Location._Child = _Tree_child::_Right;
; 1707 :                 _Trynode                 = _Trynode->_Right;

  0002a	8b 40 08	 mov	 eax, DWORD PTR [eax+8]
  0002d	33 c9		 xor	 ecx, ecx

; 1708 :             } else {

  0002f	eb 0a		 jmp	 SHORT $LN5@Find_lower
$LN4@Find_lower:

; 1709 :                 _Result._Location._Child = _Tree_child::_Left;
; 1710 :                 _Result._Bound           = _Trynode;

  00031	89 42 08	 mov	 DWORD PTR [edx+8], eax

; 1711 :                 _Trynode                 = _Trynode->_Left;

  00034	b9 01 00 00 00	 mov	 ecx, 1
  00039	8b 00		 mov	 eax, DWORD PTR [eax]
$LN5@Find_lower:

; 1702 :         _Nodeptr _Trynode = _Result._Location._Parent;
; 1703 :         while (!_Trynode->_Isnil) {

  0003b	89 4a 04	 mov	 DWORD PTR [edx+4], ecx
  0003e	80 78 0d 00	 cmp	 BYTE PTR [eax+13], 0
  00042	74 df		 je	 SHORT $LL2@Find_lower

; 1712 :             }
; 1713 :         }
; 1714 : 
; 1715 :         return _Result;

  00044	5e		 pop	 esi
$LN12@Find_lower:

; 1716 :     }

  00045	8b c2		 mov	 eax, edx
  00047	5d		 pop	 ebp
  00048	c2 08 00	 ret	 8
??$_Find_lower_bound@K@?$_Tree@V?$_Tmap_traits@KPAUSEnvironmentData@@U?$less@K@std@@V?$allocator@U?$pair@$$CBKPAUSEnvironmentData@@@std@@@3@$0A@@std@@@std@@IBE?AU?$_Tree_find_result@PAU?$_Tree_node@U?$pair@$$CBKPAUSEnvironmentData@@@std@@PAX@std@@@1@ABK@Z ENDP ; std::_Tree<std::_Tmap_traits<unsigned long,SEnvironmentData *,std::less<unsigned long>,std::allocator<std::pair<unsigned long const ,SEnvironmentData *> >,0> >::_Find_lower_bound<unsigned long>
_TEXT	ENDS
; Function compile flags: /Ogtp
; File C:\Program Files (x86)\Microsoft Visual Studio\2019\Community\VC\Tools\MSVC\14.27.29110\include\xstring
;	COMDAT ??$?8DU?$char_traits@D@std@@V?$allocator@D@1@@std@@YA_NQBDABV?$basic_string@DU?$char_traits@D@std@@V?$allocator@D@2@@0@@Z
_TEXT	SEGMENT
__Left$ = 8						; size = 4
__Right$ = 12						; size = 4
??$?8DU?$char_traits@D@std@@V?$allocator@D@1@@std@@YA_NQBDABV?$basic_string@DU?$char_traits@D@std@@V?$allocator@D@2@@0@@Z PROC ; std::operator==<char,std::char_traits<char>,std::allocator<char> >, COMDAT

; 4475 : _NODISCARD bool operator==(_In_z_ const _Elem* const _Left, const basic_string<_Elem, _Traits, _Alloc>& _Right) {

  00000	55		 push	 ebp
  00001	8b ec		 mov	 ebp, esp

; 321  :         return _CSTD strlen(reinterpret_cast<const char*>(_First));

  00003	8b 4d 08	 mov	 ecx, DWORD PTR __Left$[ebp]
  00006	8d 51 01	 lea	 edx, DWORD PTR [ecx+1]
  00009	0f 1f 80 00 00
	00 00		 npad	 7
$LL12@operator:
  00010	8a 01		 mov	 al, BYTE PTR [ecx]
  00012	41		 inc	 ecx
  00013	84 c0		 test	 al, al
  00015	75 f9		 jne	 SHORT $LL12@operator

; 2144 :         const value_type* _Result = _Bx._Buf;

  00017	8b 45 0c	 mov	 eax, DWORD PTR __Right$[ebp]

; 321  :         return _CSTD strlen(reinterpret_cast<const char*>(_First));

  0001a	2b ca		 sub	 ecx, edx

; 2144 :         const value_type* _Result = _Bx._Buf;

  0001c	8b d0		 mov	 edx, eax

; 2153 :         return _BUF_SIZE <= _Myres;

  0001e	83 78 14 10	 cmp	 DWORD PTR [eax+20], 16	; 00000010H

; 2145 :         if (_Large_string_engaged()) {

  00022	72 02		 jb	 SHORT $LN8@operator

; 2146 :             _Result = _Unfancy(_Bx._Ptr);

  00024	8b 10		 mov	 edx, DWORD PTR [eax]
$LN8@operator:

; 4096 :         return _Traits_equal<_Traits>(_Mypair._Myval2._Myptr(), _Mypair._Myval2._Mysize, _Ptr, _Traits::length(_Ptr));

  00026	51		 push	 ecx
  00027	ff 75 08	 push	 DWORD PTR __Left$[ebp]
  0002a	ff 70 10	 push	 DWORD PTR [eax+16]
  0002d	52		 push	 edx
  0002e	e8 00 00 00 00	 call	 ??$_Traits_equal@U?$char_traits@D@std@@@std@@YA_NQBDI0I@Z ; std::_Traits_equal<std::char_traits<char> >
  00033	83 c4 10	 add	 esp, 16			; 00000010H

; 4476 :     return _Right._Equal(_Left);
; 4477 : }

  00036	5d		 pop	 ebp
  00037	c3		 ret	 0
??$?8DU?$char_traits@D@std@@V?$allocator@D@1@@std@@YA_NQBDABV?$basic_string@DU?$char_traits@D@std@@V?$allocator@D@2@@0@@Z ENDP ; std::operator==<char,std::char_traits<char>,std::allocator<char> >
_TEXT	ENDS
; Function compile flags: /Ogtp
; File C:\Program Files (x86)\Microsoft Visual Studio\2019\Community\VC\Tools\MSVC\14.27.29110\include\xmemory
;	COMDAT ??$_Destroy_range@V?$allocator@UTGradientColor@@@std@@@std@@YAXPAUTGradientColor@@QAU1@AAV?$allocator@UTGradientColor@@@0@@Z
_TEXT	SEGMENT
__First$ = 8						; size = 4
__Last$ = 12						; size = 4
__Al$ = 16						; size = 4
??$_Destroy_range@V?$allocator@UTGradientColor@@@std@@@std@@YAXPAUTGradientColor@@QAU1@AAV?$allocator@UTGradientColor@@@0@@Z PROC ; std::_Destroy_range<std::allocator<TGradientColor> >, COMDAT

; 956  :     // note that this is an optimization for debug mode codegen; in release mode the BE removes all of this
; 957  :     using _Ty = typename _Alloc::value_type;
; 958  :     if _CONSTEXPR_IF (!conjunction_v<is_trivially_destructible<_Ty>, _Uses_default_destroy<_Alloc, _Ty*>>) {
; 959  :         for (; _First != _Last; ++_First) {
; 960  :             allocator_traits<_Alloc>::destroy(_Al, _Unfancy(_First));
; 961  :         }
; 962  :     }
; 963  : }

  00000	c2 00 00	 ret	 0
??$_Destroy_range@V?$allocator@UTGradientColor@@@std@@@std@@YAXPAUTGradientColor@@QAU1@AAV?$allocator@UTGradientColor@@@0@@Z ENDP ; std::_Destroy_range<std::allocator<TGradientColor> >
_TEXT	ENDS
; Function compile flags: /Ogtp
; File C:\Program Files (x86)\Microsoft Visual Studio\2019\Community\VC\Tools\MSVC\14.27.29110\include\xmemory
;	COMDAT ??$_Destroy_range@V?$allocator@USCRCWithNumber@CArea@@@std@@@std@@YAXPAUSCRCWithNumber@CArea@@QAU12@AAV?$allocator@USCRCWithNumber@CArea@@@0@@Z
_TEXT	SEGMENT
__First$ = 8						; size = 4
__Last$ = 12						; size = 4
__Al$ = 16						; size = 4
??$_Destroy_range@V?$allocator@USCRCWithNumber@CArea@@@std@@@std@@YAXPAUSCRCWithNumber@CArea@@QAU12@AAV?$allocator@USCRCWithNumber@CArea@@@0@@Z PROC ; std::_Destroy_range<std::allocator<CArea::SCRCWithNumber> >, COMDAT

; 956  :     // note that this is an optimization for debug mode codegen; in release mode the BE removes all of this
; 957  :     using _Ty = typename _Alloc::value_type;
; 958  :     if _CONSTEXPR_IF (!conjunction_v<is_trivially_destructible<_Ty>, _Uses_default_destroy<_Alloc, _Ty*>>) {
; 959  :         for (; _First != _Last; ++_First) {
; 960  :             allocator_traits<_Alloc>::destroy(_Al, _Unfancy(_First));
; 961  :         }
; 962  :     }
; 963  : }

  00000	c2 00 00	 ret	 0
??$_Destroy_range@V?$allocator@USCRCWithNumber@CArea@@@std@@@std@@YAXPAUSCRCWithNumber@CArea@@QAU12@AAV?$allocator@USCRCWithNumber@CArea@@@0@@Z ENDP ; std::_Destroy_range<std::allocator<CArea::SCRCWithNumber> >
_TEXT	ENDS
; Function compile flags: /Ogtp
; File C:\Program Files (x86)\Microsoft Visual Studio\2019\Community\VC\Tools\MSVC\14.27.29110\include\xmemory
;	COMDAT ??$_Destroy_range@V?$allocator@H@std@@@std@@YAXPAHQAHAAV?$allocator@H@0@@Z
_TEXT	SEGMENT
__First$ = 8						; size = 4
__Last$ = 12						; size = 4
__Al$ = 16						; size = 4
??$_Destroy_range@V?$allocator@H@std@@@std@@YAXPAHQAHAAV?$allocator@H@0@@Z PROC ; std::_Destroy_range<std::allocator<int> >, COMDAT

; 956  :     // note that this is an optimization for debug mode codegen; in release mode the BE removes all of this
; 957  :     using _Ty = typename _Alloc::value_type;
; 958  :     if _CONSTEXPR_IF (!conjunction_v<is_trivially_destructible<_Ty>, _Uses_default_destroy<_Alloc, _Ty*>>) {
; 959  :         for (; _First != _Last; ++_First) {
; 960  :             allocator_traits<_Alloc>::destroy(_Al, _Unfancy(_First));
; 961  :         }
; 962  :     }
; 963  : }

  00000	c2 00 00	 ret	 0
??$_Destroy_range@V?$allocator@H@std@@@std@@YAXPAHQAHAAV?$allocator@H@0@@Z ENDP ; std::_Destroy_range<std::allocator<int> >
_TEXT	ENDS
; Function compile flags: /Ogtp
; File C:\Program Files (x86)\Microsoft Visual Studio\2019\Community\VC\Tools\MSVC\14.27.29110\include\xmemory
; File C:\Program Files (x86)\Microsoft Visual Studio\2019\Community\VC\Tools\MSVC\14.27.29110\include\xstring
; File C:\Program Files (x86)\Microsoft Visual Studio\2019\Community\VC\Tools\MSVC\14.27.29110\include\xmemory
; File C:\Program Files (x86)\Microsoft Visual Studio\2019\Community\VC\Tools\MSVC\14.27.29110\include\xstring
; File C:\Program Files (x86)\Microsoft Visual Studio\2019\Community\VC\Tools\MSVC\14.27.29110\include\xmemory
;	COMDAT ??$_Destroy_range@V?$allocator@UTMapInfo@CMapManager@@@std@@@std@@YAXPAUTMapInfo@CMapManager@@QAU12@AAV?$allocator@UTMapInfo@CMapManager@@@0@@Z
_TEXT	SEGMENT
__First$ = 8						; size = 4
__Last$ = 12						; size = 4
__Al$ = 16						; size = 4
??$_Destroy_range@V?$allocator@UTMapInfo@CMapManager@@@std@@@std@@YAXPAUTMapInfo@CMapManager@@QAU12@AAV?$allocator@UTMapInfo@CMapManager@@@0@@Z PROC ; std::_Destroy_range<std::allocator<CMapManager::TMapInfo> >, COMDAT

; 955  : void _Destroy_range(_Alloc_ptr_t<_Alloc> _First, const _Alloc_ptr_t<_Alloc> _Last, _Alloc& _Al) noexcept {

  00000	55		 push	 ebp
  00001	8b ec		 mov	 ebp, esp
  00003	56		 push	 esi

; 959  :         for (; _First != _Last; ++_First) {

  00004	8b 75 08	 mov	 esi, DWORD PTR __First$[ebp]
  00007	57		 push	 edi
  00008	8b 7d 0c	 mov	 edi, DWORD PTR __Last$[ebp]
  0000b	3b f7		 cmp	 esi, edi
  0000d	74 2d		 je	 SHORT $LN3@Destroy_ra
  0000f	90		 npad	 1
$LL4@Destroy_ra:
; File C:\Program Files (x86)\Microsoft Visual Studio\2019\Community\VC\Tools\MSVC\14.27.29110\include\xstring

; 2153 :         return _BUF_SIZE <= _Myres;

  00010	8b 46 14	 mov	 eax, DWORD PTR [esi+20]
  00013	83 f8 10	 cmp	 eax, 16			; 00000010H

; 4301 :         if (_Mypair._Myval2._Large_string_engaged()) {

  00016	72 0c		 jb	 SHORT $LN18@Destroy_ra

; 4302 :             const pointer _Ptr = _Mypair._Myval2._Bx._Ptr;
; 4303 :             auto& _Al          = _Getal();
; 4304 :             _Destroy_in_place(_Mypair._Myval2._Bx._Ptr);
; 4305 :             _Al.deallocate(_Ptr, _Mypair._Myval2._Myres + 1);

  00018	40		 inc	 eax
; File C:\Program Files (x86)\Microsoft Visual Studio\2019\Community\VC\Tools\MSVC\14.27.29110\include\xmemory

; 803  :         _Deallocate<_New_alignof<_Ty>>(_Ptr, sizeof(_Ty) * _Count);

  00019	50		 push	 eax
  0001a	ff 36		 push	 DWORD PTR [esi]
  0001c	e8 00 00 00 00	 call	 ??$_Deallocate@$07$0A@@std@@YAXPAXI@Z ; std::_Deallocate<8,0>
  00021	83 c4 08	 add	 esp, 8
$LN18@Destroy_ra:
; File C:\Program Files (x86)\Microsoft Visual Studio\2019\Community\VC\Tools\MSVC\14.27.29110\include\xstring

; 4308 :         _Mypair._Myval2._Mysize = 0;

  00024	c7 46 10 00 00
	00 00		 mov	 DWORD PTR [esi+16], 0

; 4309 :         _Mypair._Myval2._Myres  = _BUF_SIZE - 1;

  0002b	c7 46 14 0f 00
	00 00		 mov	 DWORD PTR [esi+20], 15	; 0000000fH

; 4310 :         // the _Traits::assign is last so the codegen doesn't think the char write can alias this
; 4311 :         _Traits::assign(_Mypair._Myval2._Bx._Buf[0], _Elem());

  00032	c6 06 00	 mov	 BYTE PTR [esi], 0
; File C:\Program Files (x86)\Microsoft Visual Studio\2019\Community\VC\Tools\MSVC\14.27.29110\include\xmemory

; 959  :         for (; _First != _Last; ++_First) {

  00035	83 c6 30	 add	 esi, 48			; 00000030H
  00038	3b f7		 cmp	 esi, edi
  0003a	75 d4		 jne	 SHORT $LL4@Destroy_ra
$LN3@Destroy_ra:
  0003c	5f		 pop	 edi

; 960  :             allocator_traits<_Alloc>::destroy(_Al, _Unfancy(_First));
; 961  :         }
; 962  :     }
; 963  : }

  0003d	5e		 pop	 esi
  0003e	5d		 pop	 ebp
  0003f	c3		 ret	 0
??$_Destroy_range@V?$allocator@UTMapInfo@CMapManager@@@std@@@std@@YAXPAUTMapInfo@CMapManager@@QAU12@AAV?$allocator@UTMapInfo@CMapManager@@@0@@Z ENDP ; std::_Destroy_range<std::allocator<CMapManager::TMapInfo> >
_TEXT	ENDS
; Function compile flags: /Ogtp
; File C:\Program Files (x86)\Microsoft Visual Studio\2019\Community\VC\Tools\MSVC\14.27.29110\include\vector
; File C:\Program Files (x86)\Microsoft Visual Studio\2019\Community\VC\Tools\MSVC\14.27.29110\include\xmemory
; File C:\Program Files (x86)\Microsoft Visual Studio\2019\Community\VC\Tools\MSVC\14.27.29110\include\vector
; File C:\Program Files (x86)\Microsoft Visual Studio\2019\Community\VC\Tools\MSVC\14.27.29110\include\xmemory
; File C:\Program Files (x86)\Microsoft Visual Studio\2019\Community\VC\Tools\MSVC\14.27.29110\include\vector
; File C:\Program Files (x86)\Microsoft Visual Studio\2019\Community\VC\Tools\MSVC\14.27.29110\include\xmemory
; File C:\Program Files (x86)\Microsoft Visual Studio\2019\Community\VC\Tools\MSVC\14.27.29110\include\vector
; File C:\Program Files (x86)\Microsoft Visual Studio\2019\Community\VC\Tools\MSVC\14.27.29110\include\xmemory
; File C:\Program Files (x86)\Microsoft Visual Studio\2019\Community\VC\Tools\MSVC\14.27.29110\include\vector
; File C:\Program Files (x86)\Microsoft Visual Studio\2019\Community\VC\Tools\MSVC\14.27.29110\include\xmemory
; File C:\Program Files (x86)\Microsoft Visual Studio\2019\Community\VC\Tools\MSVC\14.27.29110\include\vector
;	COMDAT ??$_Emplace_reallocate@ABUTMapInfo@CMapManager@@@?$vector@UTMapInfo@CMapManager@@V?$allocator@UTMapInfo@CMapManager@@@std@@@std@@QAEPAUTMapInfo@CMapManager@@QAU23@ABU23@@Z
_TEXT	SEGMENT
__Newvec$ = -44						; size = 4
_this$ = -40						; size = 4
tv383 = -36						; size = 4
tv384 = -32						; size = 4
__Newsize$1$ = -28					; size = 4
__Newcapacity$ = -24					; size = 4
__Whereoff$1$ = -20					; size = 4
__Constructed_last$ = -20				; size = 4
__$EHRec$ = -16						; size = 16
__Whereptr$ = 8						; size = 4
_<_Val_0>$ = 12						; size = 4
??$_Emplace_reallocate@ABUTMapInfo@CMapManager@@@?$vector@UTMapInfo@CMapManager@@V?$allocator@UTMapInfo@CMapManager@@@std@@@std@@QAEPAUTMapInfo@CMapManager@@QAU23@ABU23@@Z PROC ; std::vector<CMapManager::TMapInfo,std::allocator<CMapManager::TMapInfo> >::_Emplace_reallocate<CMapManager::TMapInfo const &>, COMDAT
; _this$ = ecx

; 725  :     pointer _Emplace_reallocate(const pointer _Whereptr, _Valty&&... _Val) {

  00000	55		 push	 ebp
  00001	8b ec		 mov	 ebp, esp
  00003	6a ff		 push	 -1
  00005	68 00 00 00 00	 push	 __ehhandler$??$_Emplace_reallocate@ABUTMapInfo@CMapManager@@@?$vector@UTMapInfo@CMapManager@@V?$allocator@UTMapInfo@CMapManager@@@std@@@std@@QAEPAUTMapInfo@CMapManager@@QAU23@ABU23@@Z
  0000a	64 a1 00 00 00
	00		 mov	 eax, DWORD PTR fs:0
  00010	50		 push	 eax
  00011	83 ec 20	 sub	 esp, 32			; 00000020H
  00014	53		 push	 ebx
  00015	56		 push	 esi
  00016	57		 push	 edi
  00017	a1 00 00 00 00	 mov	 eax, DWORD PTR ___security_cookie
  0001c	33 c5		 xor	 eax, ebp
  0001e	50		 push	 eax
  0001f	8d 45 f4	 lea	 eax, DWORD PTR __$EHRec$[ebp+4]
  00022	64 a3 00 00 00
	00		 mov	 DWORD PTR fs:0, eax
  00028	89 65 f0	 mov	 DWORD PTR __$EHRec$[ebp], esp
  0002b	8b f9		 mov	 edi, ecx
  0002d	89 7d d8	 mov	 DWORD PTR _this$[ebp], edi

; 726  :         // reallocate and insert by perfectly forwarding _Val at _Whereptr
; 727  :         _Alty& _Al        = _Getal();
; 728  :         auto& _My_data    = _Mypair._Myval2;
; 729  :         pointer& _Myfirst = _My_data._Myfirst;
; 730  :         pointer& _Mylast  = _My_data._Mylast;
; 731  : 
; 732  :         _STL_INTERNAL_CHECK(_Mylast == _My_data._Myend); // check that we have no unused capacity
; 733  : 
; 734  :         const auto _Whereoff = static_cast<size_type>(_Whereptr - _Myfirst);

  00030	8b 1f		 mov	 ebx, DWORD PTR [edi]
  00032	b8 ab aa aa 2a	 mov	 eax, 715827883		; 2aaaaaabH
  00037	8b 55 08	 mov	 edx, DWORD PTR __Whereptr$[ebp]

; 735  :         const auto _Oldsize  = static_cast<size_type>(_Mylast - _Myfirst);

  0003a	8b 4f 04	 mov	 ecx, DWORD PTR [edi+4]
  0003d	2b d3		 sub	 edx, ebx
  0003f	f7 ea		 imul	 edx
  00041	2b cb		 sub	 ecx, ebx
  00043	c1 fa 03	 sar	 edx, 3
  00046	8b c2		 mov	 eax, edx
  00048	c1 e8 1f	 shr	 eax, 31			; 0000001fH
  0004b	03 c2		 add	 eax, edx
  0004d	89 45 ec	 mov	 DWORD PTR __Whereoff$1$[ebp], eax
  00050	b8 ab aa aa 2a	 mov	 eax, 715827883		; 2aaaaaabH
  00055	f7 e9		 imul	 ecx
  00057	c1 fa 03	 sar	 edx, 3
  0005a	8b f2		 mov	 esi, edx
  0005c	c1 ee 1f	 shr	 esi, 31			; 0000001fH
  0005f	03 f2		 add	 esi, edx

; 736  : 
; 737  :         if (_Oldsize == max_size()) {

  00061	81 fe 55 55 55
	05		 cmp	 esi, 89478485		; 05555555H
  00067	0f 84 3e 01 00
	00		 je	 $LN42@Emplace_re

; 1494 :         return static_cast<size_type>(_My_data._Myend - _My_data._Myfirst);

  0006d	8b 4f 08	 mov	 ecx, DWORD PTR [edi+8]
  00070	b8 ab aa aa 2a	 mov	 eax, 715827883		; 2aaaaaabH
  00075	2b cb		 sub	 ecx, ebx

; 739  :         }
; 740  : 
; 741  :         const size_type _Newsize     = _Oldsize + 1;

  00077	46		 inc	 esi

; 1494 :         return static_cast<size_type>(_My_data._Myend - _My_data._Myfirst);

  00078	f7 e9		 imul	 ecx

; 1619 :         if (_Oldcapacity > max_size() - _Oldcapacity / 2) {

  0007a	b8 55 55 55 05	 mov	 eax, 89478485		; 05555555H

; 739  :         }
; 740  : 
; 741  :         const size_type _Newsize     = _Oldsize + 1;

  0007f	89 75 e4	 mov	 DWORD PTR __Newsize$1$[ebp], esi

; 1494 :         return static_cast<size_type>(_My_data._Myend - _My_data._Myfirst);

  00082	c1 fa 03	 sar	 edx, 3
  00085	8b ca		 mov	 ecx, edx
  00087	c1 e9 1f	 shr	 ecx, 31			; 0000001fH
  0008a	03 ca		 add	 ecx, edx

; 1619 :         if (_Oldcapacity > max_size() - _Oldcapacity / 2) {

  0008c	8b d1		 mov	 edx, ecx
  0008e	d1 ea		 shr	 edx, 1
  00090	2b c2		 sub	 eax, edx
  00092	3b c8		 cmp	 ecx, eax
  00094	76 07		 jbe	 SHORT $LN12@Emplace_re

; 1620 :             return _Newsize; // geometric growth would overflow

  00096	8b c6		 mov	 eax, esi
  00098	89 75 e8	 mov	 DWORD PTR __Newcapacity$[ebp], esi
  0009b	eb 0b		 jmp	 SHORT $LN13@Emplace_re
$LN12@Emplace_re:

; 1621 :         }
; 1622 : 
; 1623 :         const size_type _Geometric = _Oldcapacity + _Oldcapacity / 2;

  0009d	8d 04 0a	 lea	 eax, DWORD PTR [edx+ecx]

; 1624 : 
; 1625 :         if (_Geometric < _Newsize) {

  000a0	3b c6		 cmp	 eax, esi
  000a2	0f 42 c6	 cmovb	 eax, esi
  000a5	89 45 e8	 mov	 DWORD PTR __Newcapacity$[ebp], eax
$LN13@Emplace_re:
; File C:\Program Files (x86)\Microsoft Visual Studio\2019\Community\VC\Tools\MSVC\14.27.29110\include\xmemory

; 60   :         if (_Count > _Max_possible) {

  000a8	3d 55 55 55 05	 cmp	 eax, 89478485		; 05555555H
  000ad	0f 87 fd 00 00
	00		 ja	 $LN43@Emplace_re

; 62   :         }
; 63   :     }
; 64   : 
; 65   :     return _Count * _Ty_size;

  000b3	8d 04 40	 lea	 eax, DWORD PTR [eax+eax*2]
  000b6	c1 e0 04	 shl	 eax, 4

; 807  :         return static_cast<_Ty*>(_Allocate<_New_alignof<_Ty>>(_Get_size_of_n<sizeof(_Ty)>(_Count)));

  000b9	50		 push	 eax

; 65   :     return _Count * _Ty_size;

  000ba	89 45 e0	 mov	 DWORD PTR tv384[ebp], eax

; 807  :         return static_cast<_Ty*>(_Allocate<_New_alignof<_Ty>>(_Get_size_of_n<sizeof(_Ty)>(_Count)));

  000bd	e8 00 00 00 00	 call	 ??$_Allocate@$07U_Default_allocate_traits@std@@$0A@@std@@YAPAXI@Z ; std::_Allocate<8,std::_Default_allocate_traits,0>
; File C:\Program Files (x86)\Microsoft Visual Studio\2019\Community\VC\Tools\MSVC\14.27.29110\include\vector

; 749  :         _Alty_traits::construct(_Al, _Unfancy(_Newvec + _Whereoff), _STD forward<_Valty>(_Val)...);

  000c2	ff 75 0c	 push	 DWORD PTR _<_Val_0>$[ebp]
; File C:\Program Files (x86)\Microsoft Visual Studio\2019\Community\VC\Tools\MSVC\14.27.29110\include\xmemory

; 807  :         return static_cast<_Ty*>(_Allocate<_New_alignof<_Ty>>(_Get_size_of_n<sizeof(_Ty)>(_Count)));

  000c5	8b d8		 mov	 ebx, eax
; File C:\Program Files (x86)\Microsoft Visual Studio\2019\Community\VC\Tools\MSVC\14.27.29110\include\vector

; 748  :         _TRY_BEGIN

  000c7	c7 45 fc 00 00
	00 00		 mov	 DWORD PTR __$EHRec$[ebp+12], 0
  000ce	8b 45 ec	 mov	 eax, DWORD PTR __Whereoff$1$[ebp]
; File C:\Program Files (x86)\Microsoft Visual Studio\2019\Community\VC\Tools\MSVC\14.27.29110\include\xmemory

; 807  :         return static_cast<_Ty*>(_Allocate<_New_alignof<_Ty>>(_Get_size_of_n<sizeof(_Ty)>(_Count)));

  000d1	89 5d d4	 mov	 DWORD PTR __Newvec$[ebp], ebx
; File C:\Program Files (x86)\Microsoft Visual Studio\2019\Community\VC\Tools\MSVC\14.27.29110\include\vector

; 745  :         const pointer _Constructed_last = _Newvec + _Whereoff + 1;

  000d4	8d 0c 40	 lea	 ecx, DWORD PTR [eax+eax*2]
  000d7	c1 e1 04	 shl	 ecx, 4
  000da	03 cb		 add	 ecx, ebx

; 749  :         _Alty_traits::construct(_Al, _Unfancy(_Newvec + _Whereoff), _STD forward<_Valty>(_Val)...);

  000dc	51		 push	 ecx
  000dd	57		 push	 edi
  000de	89 4d dc	 mov	 DWORD PTR tv383[ebp], ecx
  000e1	8d 41 30	 lea	 eax, DWORD PTR [ecx+48]
  000e4	89 45 ec	 mov	 DWORD PTR __Constructed_last$[ebp], eax
  000e7	e8 00 00 00 00	 call	 ??$construct@UTMapInfo@CMapManager@@ABU12@@?$_Default_allocator_traits@V?$allocator@UTMapInfo@CMapManager@@@std@@@std@@SAXAAV?$allocator@UTMapInfo@CMapManager@@@1@QAUTMapInfo@CMapManager@@ABU34@@Z ; std::_Default_allocator_traits<std::allocator<CMapManager::TMapInfo> >::construct<CMapManager::TMapInfo,CMapManager::TMapInfo const &>

; 750  :         _Constructed_first = _Newvec + _Whereoff;
; 751  : 
; 752  :         if (_Whereptr == _Mylast) { // at back, provide strong guarantee

  000ec	8b 47 04	 mov	 eax, DWORD PTR [edi+4]
  000ef	83 c4 10	 add	 esp, 16			; 00000010H
  000f2	8b 55 08	 mov	 edx, DWORD PTR __Whereptr$[ebp]
  000f5	8b 0f		 mov	 ecx, DWORD PTR [edi]
  000f7	3b d0		 cmp	 edx, eax
  000f9	75 04		 jne	 SHORT $LN4@Emplace_re

; 1597 :         _Uninitialized_move(_First, _Last, _Dest, _Getal());

  000fb	8b d3		 mov	 edx, ebx

; 753  :             _Umove_if_noexcept(_Myfirst, _Mylast, _Newvec);
; 754  :         } else { // provide basic guarantee

  000fd	eb 15		 jmp	 SHORT $LN5@Emplace_re
$LN4@Emplace_re:

; 1592 :         return _Uninitialized_move(_First, _Last, _Dest, _Getal());

  000ff	57		 push	 edi
  00100	53		 push	 ebx
  00101	52		 push	 edx
  00102	51		 push	 ecx
  00103	e8 00 00 00 00	 call	 ??$_Uninitialized_move@PAUTMapInfo@CMapManager@@V?$allocator@UTMapInfo@CMapManager@@@std@@@std@@YAPAUTMapInfo@CMapManager@@QAU12@0PAU12@AAV?$allocator@UTMapInfo@CMapManager@@@0@@Z ; std::_Uninitialized_move<CMapManager::TMapInfo *,std::allocator<CMapManager::TMapInfo> >
  00108	8b 4d 08	 mov	 ecx, DWORD PTR __Whereptr$[ebp]
  0010b	83 c4 10	 add	 esp, 16			; 00000010H
  0010e	8b 47 04	 mov	 eax, DWORD PTR [edi+4]
  00111	8b 55 ec	 mov	 edx, DWORD PTR __Constructed_last$[ebp]
$LN5@Emplace_re:

; 755  :             _Umove(_Myfirst, _Whereptr, _Newvec);
; 756  :             _Constructed_first = _Newvec;
; 757  :             _Umove(_Whereptr, _Mylast, _Newvec + _Whereoff + 1);

  00114	57		 push	 edi
  00115	52		 push	 edx
  00116	50		 push	 eax
  00117	51		 push	 ecx
  00118	e8 00 00 00 00	 call	 ??$_Uninitialized_move@PAUTMapInfo@CMapManager@@V?$allocator@UTMapInfo@CMapManager@@@std@@@std@@YAPAUTMapInfo@CMapManager@@QAU12@0PAU12@AAV?$allocator@UTMapInfo@CMapManager@@@0@@Z ; std::_Uninitialized_move<CMapManager::TMapInfo *,std::allocator<CMapManager::TMapInfo> >

; 1675 :         if (_Myfirst) { // destroy and deallocate old array

  0011d	8b 0f		 mov	 ecx, DWORD PTR [edi]

; 755  :             _Umove(_Myfirst, _Whereptr, _Newvec);
; 756  :             _Constructed_first = _Newvec;
; 757  :             _Umove(_Whereptr, _Mylast, _Newvec + _Whereoff + 1);

  0011f	83 c4 10	 add	 esp, 16			; 00000010H

; 1675 :         if (_Myfirst) { // destroy and deallocate old array

  00122	85 c9		 test	 ecx, ecx
  00124	74 35		 je	 SHORT $LN33@Emplace_re

; 1612 :         _Destroy_range(_First, _Last, _Getal());

  00126	57		 push	 edi
  00127	ff 77 04	 push	 DWORD PTR [edi+4]
  0012a	51		 push	 ecx
  0012b	e8 00 00 00 00	 call	 ??$_Destroy_range@V?$allocator@UTMapInfo@CMapManager@@@std@@@std@@YAXPAUTMapInfo@CMapManager@@QAU12@AAV?$allocator@UTMapInfo@CMapManager@@@0@@Z ; std::_Destroy_range<std::allocator<CMapManager::TMapInfo> >

; 1677 :             _Getal().deallocate(_Myfirst, static_cast<size_type>(_Myend - _Myfirst));

  00130	8b 37		 mov	 esi, DWORD PTR [edi]
  00132	b8 ab aa aa 2a	 mov	 eax, 715827883		; 2aaaaaabH
  00137	8b 4f 08	 mov	 ecx, DWORD PTR [edi+8]
  0013a	2b ce		 sub	 ecx, esi
  0013c	f7 e9		 imul	 ecx
  0013e	c1 fa 03	 sar	 edx, 3
  00141	8b c2		 mov	 eax, edx
  00143	c1 e8 1f	 shr	 eax, 31			; 0000001fH
  00146	03 c2		 add	 eax, edx
; File C:\Program Files (x86)\Microsoft Visual Studio\2019\Community\VC\Tools\MSVC\14.27.29110\include\xmemory

; 803  :         _Deallocate<_New_alignof<_Ty>>(_Ptr, sizeof(_Ty) * _Count);

  00148	8d 04 40	 lea	 eax, DWORD PTR [eax+eax*2]
  0014b	c1 e0 04	 shl	 eax, 4
  0014e	50		 push	 eax
  0014f	56		 push	 esi
  00150	e8 00 00 00 00	 call	 ??$_Deallocate@$07$0A@@std@@YAXPAXI@Z ; std::_Deallocate<8,0>
  00155	8b 75 e4	 mov	 esi, DWORD PTR __Newsize$1$[ebp]
  00158	83 c4 14	 add	 esp, 20			; 00000014H
$LN33@Emplace_re:
; File C:\Program Files (x86)\Microsoft Visual Studio\2019\Community\VC\Tools\MSVC\14.27.29110\include\vector

; 766  :         return _Newvec + _Whereoff;

  0015b	8b 45 dc	 mov	 eax, DWORD PTR tv383[ebp]

; 1681 :         _Mylast  = _Newvec + _Newsize;

  0015e	8d 0c 76	 lea	 ecx, DWORD PTR [esi+esi*2]
  00161	c1 e1 04	 shl	 ecx, 4
  00164	03 cb		 add	 ecx, ebx
  00166	89 1f		 mov	 DWORD PTR [edi], ebx
  00168	89 4f 04	 mov	 DWORD PTR [edi+4], ecx

; 1682 :         _Myend   = _Newvec + _Newcapacity;

  0016b	8b 4d e0	 mov	 ecx, DWORD PTR tv384[ebp]
  0016e	03 cb		 add	 ecx, ebx
  00170	89 4f 08	 mov	 DWORD PTR [edi+8], ecx

; 767  :     }

  00173	8b 4d f4	 mov	 ecx, DWORD PTR __$EHRec$[ebp+4]
  00176	64 89 0d 00 00
	00 00		 mov	 DWORD PTR fs:0, ecx
  0017d	59		 pop	 ecx
  0017e	5f		 pop	 edi
  0017f	5e		 pop	 esi
  00180	5b		 pop	 ebx
  00181	8b e5		 mov	 esp, ebp
  00183	5d		 pop	 ebp
  00184	c2 08 00	 ret	 8
__catch$??$_Emplace_reallocate@ABUTMapInfo@CMapManager@@@?$vector@UTMapInfo@CMapManager@@V?$allocator@UTMapInfo@CMapManager@@@std@@@std@@QAEPAUTMapInfo@CMapManager@@QAU23@ABU23@@Z$0:

; 758  :         }
; 759  :         _CATCH_ALL
; 760  :         _Destroy(_Constructed_first, _Constructed_last);

  00187	8b 45 ec	 mov	 eax, DWORD PTR __Constructed_last$[ebp]
  0018a	8b 4d d8	 mov	 ecx, DWORD PTR _this$[ebp]
  0018d	50		 push	 eax
  0018e	50		 push	 eax
  0018f	e8 00 00 00 00	 call	 ?_Destroy@?$vector@UTMapInfo@CMapManager@@V?$allocator@UTMapInfo@CMapManager@@@std@@@std@@AAEXPAUTMapInfo@CMapManager@@0@Z ; std::vector<CMapManager::TMapInfo,std::allocator<CMapManager::TMapInfo> >::_Destroy

; 761  :         _Al.deallocate(_Newvec, _Newcapacity);

  00194	ff 75 e8	 push	 DWORD PTR __Newcapacity$[ebp]
  00197	8b 4d d8	 mov	 ecx, DWORD PTR _this$[ebp]
  0019a	ff 75 d4	 push	 DWORD PTR __Newvec$[ebp]
  0019d	e8 00 00 00 00	 call	 ?deallocate@?$allocator@UTMapInfo@CMapManager@@@std@@QAEXQAUTMapInfo@CMapManager@@I@Z ; std::allocator<CMapManager::TMapInfo>::deallocate

; 762  :         _RERAISE;

  001a2	6a 00		 push	 0
  001a4	6a 00		 push	 0
  001a6	e8 00 00 00 00	 call	 __CxxThrowException@8
$LN42@Emplace_re:

; 738  :             _Xlength();

  001ab	e8 00 00 00 00	 call	 ?_Xlength@?$vector@UTMapInfo@CMapManager@@V?$allocator@UTMapInfo@CMapManager@@@std@@@std@@CAXXZ ; std::vector<CMapManager::TMapInfo,std::allocator<CMapManager::TMapInfo> >::_Xlength
$LN43@Emplace_re:
; File C:\Program Files (x86)\Microsoft Visual Studio\2019\Community\VC\Tools\MSVC\14.27.29110\include\xmemory

; 61   :             _Throw_bad_array_new_length(); // multiply overflow

  001b0	e8 00 00 00 00	 call	 ?_Throw_bad_array_new_length@std@@YAXXZ ; std::_Throw_bad_array_new_length
$LN40@Emplace_re:
  001b5	cc		 int	 3
  001b6	cc		 int	 3
  001b7	cc		 int	 3
  001b8	cc		 int	 3
  001b9	cc		 int	 3
  001ba	cc		 int	 3
_TEXT	ENDS
;	COMDAT text$x
text$x	SEGMENT
__ehhandler$??$_Emplace_reallocate@ABUTMapInfo@CMapManager@@@?$vector@UTMapInfo@CMapManager@@V?$allocator@UTMapInfo@CMapManager@@@std@@@std@@QAEPAUTMapInfo@CMapManager@@QAU23@ABU23@@Z:
  00000	90		 npad	 1
  00001	90		 npad	 1
  00002	8b 54 24 08	 mov	 edx, DWORD PTR [esp+8]
  00006	8d 42 0c	 lea	 eax, DWORD PTR [edx+12]
  00009	8b 4a d0	 mov	 ecx, DWORD PTR [edx-48]
  0000c	33 c8		 xor	 ecx, eax
  0000e	e8 00 00 00 00	 call	 @__security_check_cookie@4
  00013	b8 00 00 00 00	 mov	 eax, OFFSET __ehfuncinfo$??$_Emplace_reallocate@ABUTMapInfo@CMapManager@@@?$vector@UTMapInfo@CMapManager@@V?$allocator@UTMapInfo@CMapManager@@@std@@@std@@QAEPAUTMapInfo@CMapManager@@QAU23@ABU23@@Z
  00018	e9 00 00 00 00	 jmp	 ___CxxFrameHandler3
text$x	ENDS
??$_Emplace_reallocate@ABUTMapInfo@CMapManager@@@?$vector@UTMapInfo@CMapManager@@V?$allocator@UTMapInfo@CMapManager@@@std@@@std@@QAEPAUTMapInfo@CMapManager@@QAU23@ABU23@@Z ENDP ; std::vector<CMapManager::TMapInfo,std::allocator<CMapManager::TMapInfo> >::_Emplace_reallocate<CMapManager::TMapInfo const &>
; Function compile flags: /Ogtp
; File C:\Program Files (x86)\Microsoft Visual Studio\2019\Community\VC\Tools\MSVC\14.27.29110\include\xmemory
; File C:\Program Files (x86)\Microsoft Visual Studio\2019\Community\VC\Tools\MSVC\14.27.29110\include\xstring
; File C:\Program Files (x86)\Microsoft Visual Studio\2019\Community\VC\Tools\MSVC\14.27.29110\include\xmemory
; File C:\Program Files (x86)\Microsoft Visual Studio\2019\Community\VC\Tools\MSVC\14.27.29110\include\xstring
; File C:\Program Files (x86)\Microsoft Visual Studio\2019\Community\VC\Tools\MSVC\14.27.29110\include\utility
; File C:\Program Files (x86)\Microsoft Visual Studio\2019\Community\VC\Tools\MSVC\14.27.29110\include\xstring
; File C:\Program Files (x86)\Microsoft Visual Studio\2019\Community\VC\Tools\MSVC\14.27.29110\include\utility
; File C:\Program Files (x86)\Microsoft Visual Studio\2019\Community\VC\Tools\MSVC\14.27.29110\include\xstring
; File C:\Program Files (x86)\Microsoft Visual Studio\2019\Community\VC\Tools\MSVC\14.27.29110\include\xmemory
; File C:\Program Files (x86)\Microsoft Visual Studio\2019\Community\VC\Tools\MSVC\14.27.29110\include\xstring
; File C:\Program Files (x86)\Microsoft Visual Studio\2019\Community\VC\Tools\MSVC\14.27.29110\include\xmemory
;	COMDAT ??$construct@UTMapInfo@CMapManager@@ABU12@@?$_Default_allocator_traits@V?$allocator@UTMapInfo@CMapManager@@@std@@@std@@SAXAAV?$allocator@UTMapInfo@CMapManager@@@1@QAUTMapInfo@CMapManager@@ABU34@@Z
_TEXT	SEGMENT
$T1 = -8						; size = 4
__New_array$2 = -4					; size = 4
___formal$ = 8						; size = 4
__Result$1$ = 12					; size = 4
__Ptr$ = 12						; size = 4
__Right_size$1$ = 16					; size = 4
_<_Args_0>$ = 16					; size = 4
??$construct@UTMapInfo@CMapManager@@ABU12@@?$_Default_allocator_traits@V?$allocator@UTMapInfo@CMapManager@@@std@@@std@@SAXAAV?$allocator@UTMapInfo@CMapManager@@@1@QAUTMapInfo@CMapManager@@ABU34@@Z PROC ; std::_Default_allocator_traits<std::allocator<CMapManager::TMapInfo> >::construct<CMapManager::TMapInfo,CMapManager::TMapInfo const &>, COMDAT

; 693  :     static void construct(_Alloc&, _Objty* const _Ptr, _Types&&... _Args) {

  00000	55		 push	 ebp
  00001	8b ec		 mov	 ebp, esp
  00003	83 ec 08	 sub	 esp, 8
  00006	53		 push	 ebx
; File C:\Program Files (x86)\Microsoft Visual Studio\2019\Community\VC\Tools\MSVC\14.27.29110\include\xstring

; 2656 :         const size_type _Right_size   = _Right_data._Mysize;

  00007	8b 5d 10	 mov	 ebx, DWORD PTR _<_Args_0>$[ebp]

; 2144 :         const value_type* _Result = _Bx._Buf;

  0000a	8b c3		 mov	 eax, ebx
; File C:\Program Files (x86)\Microsoft Visual Studio\2019\Community\VC\Tools\MSVC\14.27.29110\include\xmemory

; 693  :     static void construct(_Alloc&, _Objty* const _Ptr, _Types&&... _Args) {

  0000c	57		 push	 edi
; File C:\Program Files (x86)\Microsoft Visual Studio\2019\Community\VC\Tools\MSVC\14.27.29110\include\xstring

; 2124 :     _String_val() : _Bx(), _Mysize(0), _Myres(0) {}

  0000d	8b 7d 0c	 mov	 edi, DWORD PTR __Ptr$[ebp]

; 2144 :         const value_type* _Result = _Bx._Buf;

  00010	89 5d 0c	 mov	 DWORD PTR __Result$1$[ebp], ebx

; 2124 :     _String_val() : _Bx(), _Mysize(0), _Myres(0) {}

  00013	c7 47 10 00 00
	00 00		 mov	 DWORD PTR [edi+16], 0
  0001a	c7 47 14 00 00
	00 00		 mov	 DWORD PTR [edi+20], 0

; 2153 :         return _BUF_SIZE <= _Myres;

  00021	83 7b 14 10	 cmp	 DWORD PTR [ebx+20], 16	; 00000010H

; 2656 :         const size_type _Right_size   = _Right_data._Mysize;

  00025	8b 4b 10	 mov	 ecx, DWORD PTR [ebx+16]
  00028	89 4d 10	 mov	 DWORD PTR __Right_size$1$[ebp], ecx

; 2145 :         if (_Large_string_engaged()) {

  0002b	72 05		 jb	 SHORT $LN16@construct

; 2146 :             _Result = _Unfancy(_Bx._Ptr);

  0002d	8b 03		 mov	 eax, DWORD PTR [ebx]
  0002f	89 45 0c	 mov	 DWORD PTR __Result$1$[ebp], eax
$LN16@construct:

; 2659 :         if (_Right_size < _BUF_SIZE) { // stay small, don't allocate

  00032	83 f9 10	 cmp	 ecx, 16			; 00000010H
  00035	73 0d		 jae	 SHORT $LN13@construct

; 328  :         return static_cast<_Elem*>(_CSTD memcpy(_First1, _First2, _Count));

  00037	0f 10 00	 movups	 xmm0, XMMWORD PTR [eax]

; 2662 :             _My_data._Myres  = _BUF_SIZE - 1;

  0003a	b8 0f 00 00 00	 mov	 eax, 15			; 0000000fH

; 328  :         return static_cast<_Elem*>(_CSTD memcpy(_First1, _First2, _Count));

  0003f	0f 11 07	 movups	 XMMWORD PTR [edi], xmm0

; 2663 :             return;

  00042	eb 41		 jmp	 SHORT $LN12@construct
$LN13@construct:

; 2667 :         const size_type _New_capacity = (_STD min)(_Right_size | _ALLOC_MASK, max_size());

  00044	8b c1		 mov	 eax, ecx
; File C:\Program Files (x86)\Microsoft Visual Studio\2019\Community\VC\Tools\MSVC\14.27.29110\include\utility

; 69   :     return _Right < _Left ? _Right : _Left;

  00046	b9 ff ff ff 7f	 mov	 ecx, 2147483647		; 7fffffffH
; File C:\Program Files (x86)\Microsoft Visual Studio\2019\Community\VC\Tools\MSVC\14.27.29110\include\xstring

; 2667 :         const size_type _New_capacity = (_STD min)(_Right_size | _ALLOC_MASK, max_size());

  0004b	83 c8 0f	 or	 eax, 15			; 0000000fH
; File C:\Program Files (x86)\Microsoft Visual Studio\2019\Community\VC\Tools\MSVC\14.27.29110\include\utility

; 69   :     return _Right < _Left ? _Right : _Left;

  0004e	3b c1		 cmp	 eax, ecx
  00050	56		 push	 esi
  00051	0f 47 c1	 cmova	 eax, ecx
  00054	89 45 f8	 mov	 DWORD PTR $T1[ebp], eax
; File C:\Program Files (x86)\Microsoft Visual Studio\2019\Community\VC\Tools\MSVC\14.27.29110\include\xstring

; 2668 :         const pointer _New_array      = _Al.allocate(_New_capacity + 1); // throws

  00057	40		 inc	 eax
; File C:\Program Files (x86)\Microsoft Visual Studio\2019\Community\VC\Tools\MSVC\14.27.29110\include\xmemory

; 807  :         return static_cast<_Ty*>(_Allocate<_New_alignof<_Ty>>(_Get_size_of_n<sizeof(_Ty)>(_Count)));

  00058	50		 push	 eax
  00059	e8 00 00 00 00	 call	 ??$_Allocate@$07U_Default_allocate_traits@std@@$0A@@std@@YAPAXI@Z ; std::_Allocate<8,std::_Default_allocate_traits,0>
; File C:\Program Files (x86)\Microsoft Visual Studio\2019\Community\VC\Tools\MSVC\14.27.29110\include\xstring

; 2668 :         const pointer _New_array      = _Al.allocate(_New_capacity + 1); // throws

  0005e	8b f0		 mov	 esi, eax

; 2669 :         _Construct_in_place(_My_data._Bx._Ptr, _New_array);

  00060	8d 45 fc	 lea	 eax, DWORD PTR __New_array$2[ebp]
  00063	50		 push	 eax
  00064	57		 push	 edi
  00065	89 75 fc	 mov	 DWORD PTR __New_array$2[ebp], esi
  00068	e8 00 00 00 00	 call	 ??$_Construct_in_place@PADABQAD@std@@YAXAAPADABQAD@Z ; std::_Construct_in_place<char *,char * const &>

; 2670 :         _Traits::copy(_Unfancy(_New_array), _Right_ptr, _Right_size + 1);

  0006d	8b 4d 10	 mov	 ecx, DWORD PTR __Right_size$1$[ebp]
  00070	41		 inc	 ecx

; 328  :         return static_cast<_Elem*>(_CSTD memcpy(_First1, _First2, _Count));

  00071	51		 push	 ecx
  00072	ff 75 0c	 push	 DWORD PTR __Result$1$[ebp]
  00075	56		 push	 esi
  00076	e8 00 00 00 00	 call	 _memcpy
  0007b	8b 45 f8	 mov	 eax, DWORD PTR $T1[ebp]
  0007e	83 c4 18	 add	 esp, 24			; 00000018H
  00081	8b 4d 10	 mov	 ecx, DWORD PTR __Right_size$1$[ebp]
  00084	5e		 pop	 esi
$LN12@construct:
; File C:\Program Files (x86)\Microsoft Visual Studio\2019\Community\VC\Tools\MSVC\14.27.29110\include\xmemory

; 695  :     }

  00085	89 4f 10	 mov	 DWORD PTR [edi+16], ecx
  00088	89 47 14	 mov	 DWORD PTR [edi+20], eax
  0008b	8b 43 18	 mov	 eax, DWORD PTR [ebx+24]
  0008e	89 47 18	 mov	 DWORD PTR [edi+24], eax
  00091	8b 43 1c	 mov	 eax, DWORD PTR [ebx+28]
  00094	89 47 1c	 mov	 DWORD PTR [edi+28], eax
  00097	8b 43 20	 mov	 eax, DWORD PTR [ebx+32]
  0009a	89 47 20	 mov	 DWORD PTR [edi+32], eax
  0009d	8b 43 24	 mov	 eax, DWORD PTR [ebx+36]
  000a0	89 47 24	 mov	 DWORD PTR [edi+36], eax
  000a3	8b 43 28	 mov	 eax, DWORD PTR [ebx+40]
  000a6	89 47 28	 mov	 DWORD PTR [edi+40], eax
  000a9	8b 43 2c	 mov	 eax, DWORD PTR [ebx+44]
  000ac	89 47 2c	 mov	 DWORD PTR [edi+44], eax
  000af	5f		 pop	 edi
  000b0	5b		 pop	 ebx
  000b1	8b e5		 mov	 esp, ebp
  000b3	5d		 pop	 ebp
  000b4	c3		 ret	 0
??$construct@UTMapInfo@CMapManager@@ABU12@@?$_Default_allocator_traits@V?$allocator@UTMapInfo@CMapManager@@@std@@@std@@SAXAAV?$allocator@UTMapInfo@CMapManager@@@1@QAUTMapInfo@CMapManager@@ABU34@@Z ENDP ; std::_Default_allocator_traits<std::allocator<CMapManager::TMapInfo> >::construct<CMapManager::TMapInfo,CMapManager::TMapInfo const &>
_TEXT	ENDS
; Function compile flags: /Ogtp
; File C:\Program Files (x86)\Microsoft Visual Studio\2019\Community\VC\Tools\MSVC\14.27.29110\include\vector
; File C:\Program Files (x86)\Microsoft Visual Studio\2019\Community\VC\Tools\MSVC\14.27.29110\include\xmemory
; File C:\Program Files (x86)\Microsoft Visual Studio\2019\Community\VC\Tools\MSVC\14.27.29110\include\vector
;	COMDAT ??__Fs_emptyVector@?4??GetRenderedGraphicThingInstanceNum@CMapManager@@QAEAAV?$vector@USCRCWithNumber@CArea@@V?$allocator@USCRCWithNumber@CArea@@@std@@@std@@PAK0@Z@YAXXZ
text$yd	SEGMENT
??__Fs_emptyVector@?4??GetRenderedGraphicThingInstanceNum@CMapManager@@QAEAAV?$vector@USCRCWithNumber@CArea@@V?$allocator@USCRCWithNumber@CArea@@@std@@@std@@PAK0@Z@YAXXZ PROC ; `CMapManager::GetRenderedGraphicThingInstanceNum'::`5'::`dynamic atexit destructor for 's_emptyVector'', COMDAT

; 1693 :         if (_Myfirst) { // destroy and deallocate old array

  00000	8b 0d 00 00 00
	00		 mov	 ecx, DWORD PTR ?s_emptyVector@?4??GetRenderedGraphicThingInstanceNum@CMapManager@@QAEAAV?$vector@USCRCWithNumber@CArea@@V?$allocator@USCRCWithNumber@CArea@@@std@@@std@@PAK0@Z@4V34@A
  00006	85 c9		 test	 ecx, ecx
  00008	74 32		 je	 SHORT $LN6@dynamic

; 1694 :             _Destroy(_Myfirst, _Mylast);
; 1695 :             _Getal().deallocate(_Myfirst, static_cast<size_type>(_Myend - _Myfirst));

  0000a	a1 08 00 00 00	 mov	 eax, DWORD PTR ?s_emptyVector@?4??GetRenderedGraphicThingInstanceNum@CMapManager@@QAEAAV?$vector@USCRCWithNumber@CArea@@V?$allocator@USCRCWithNumber@CArea@@@std@@@std@@PAK0@Z@4V34@A+8
  0000f	2b c1		 sub	 eax, ecx
; File C:\Program Files (x86)\Microsoft Visual Studio\2019\Community\VC\Tools\MSVC\14.27.29110\include\xmemory

; 803  :         _Deallocate<_New_alignof<_Ty>>(_Ptr, sizeof(_Ty) * _Count);

  00011	83 e0 f8	 and	 eax, -8			; fffffff8H
  00014	50		 push	 eax
  00015	51		 push	 ecx
  00016	e8 00 00 00 00	 call	 ??$_Deallocate@$07$0A@@std@@YAXPAXI@Z ; std::_Deallocate<8,0>
  0001b	83 c4 08	 add	 esp, 8
; File C:\Program Files (x86)\Microsoft Visual Studio\2019\Community\VC\Tools\MSVC\14.27.29110\include\vector

; 1697 :             _Myfirst = pointer();

  0001e	c7 05 00 00 00
	00 00 00 00 00	 mov	 DWORD PTR ?s_emptyVector@?4??GetRenderedGraphicThingInstanceNum@CMapManager@@QAEAAV?$vector@USCRCWithNumber@CArea@@V?$allocator@USCRCWithNumber@CArea@@@std@@@std@@PAK0@Z@4V34@A, 0

; 1698 :             _Mylast  = pointer();

  00028	c7 05 04 00 00
	00 00 00 00 00	 mov	 DWORD PTR ?s_emptyVector@?4??GetRenderedGraphicThingInstanceNum@CMapManager@@QAEAAV?$vector@USCRCWithNumber@CArea@@V?$allocator@USCRCWithNumber@CArea@@@std@@@std@@PAK0@Z@4V34@A+4, 0

; 1699 :             _Myend   = pointer();

  00032	c7 05 08 00 00
	00 00 00 00 00	 mov	 DWORD PTR ?s_emptyVector@?4??GetRenderedGraphicThingInstanceNum@CMapManager@@QAEAAV?$vector@USCRCWithNumber@CArea@@V?$allocator@USCRCWithNumber@CArea@@@std@@@std@@PAK0@Z@4V34@A+8, 0
$LN6@dynamic:
  0003c	c3		 ret	 0
??__Fs_emptyVector@?4??GetRenderedGraphicThingInstanceNum@CMapManager@@QAEAAV?$vector@USCRCWithNumber@CArea@@V?$allocator@USCRCWithNumber@CArea@@@std@@@std@@PAK0@Z@YAXXZ ENDP ; `CMapManager::GetRenderedGraphicThingInstanceNum'::`5'::`dynamic atexit destructor for 's_emptyVector''
text$yd	ENDS
; Function compile flags: /Ogtp
; File C:\Program Files (x86)\Microsoft Visual Studio\2019\Community\VC\Tools\MSVC\14.27.29110\include\vector
; File C:\Program Files (x86)\Microsoft Visual Studio\2019\Community\VC\Tools\MSVC\14.27.29110\include\xmemory
; File C:\Program Files (x86)\Microsoft Visual Studio\2019\Community\VC\Tools\MSVC\14.27.29110\include\vector
;	COMDAT ??__Fs_emptyVector@?4??GetRenderedSplatNum@CMapManager@@QAEAAV?$vector@HV?$allocator@H@std@@@std@@PAH0PAM@Z@YAXXZ
text$yd	SEGMENT
??__Fs_emptyVector@?4??GetRenderedSplatNum@CMapManager@@QAEAAV?$vector@HV?$allocator@H@std@@@std@@PAH0PAM@Z@YAXXZ PROC ; `CMapManager::GetRenderedSplatNum'::`5'::`dynamic atexit destructor for 's_emptyVector'', COMDAT

; 1693 :         if (_Myfirst) { // destroy and deallocate old array

  00000	8b 0d 00 00 00
	00		 mov	 ecx, DWORD PTR ?s_emptyVector@?4??GetRenderedSplatNum@CMapManager@@QAEAAV?$vector@HV?$allocator@H@std@@@std@@PAH0PAM@Z@4V34@A
  00006	85 c9		 test	 ecx, ecx
  00008	74 32		 je	 SHORT $LN6@dynamic

; 1694 :             _Destroy(_Myfirst, _Mylast);
; 1695 :             _Getal().deallocate(_Myfirst, static_cast<size_type>(_Myend - _Myfirst));

  0000a	a1 08 00 00 00	 mov	 eax, DWORD PTR ?s_emptyVector@?4??GetRenderedSplatNum@CMapManager@@QAEAAV?$vector@HV?$allocator@H@std@@@std@@PAH0PAM@Z@4V34@A+8
  0000f	2b c1		 sub	 eax, ecx
; File C:\Program Files (x86)\Microsoft Visual Studio\2019\Community\VC\Tools\MSVC\14.27.29110\include\xmemory

; 803  :         _Deallocate<_New_alignof<_Ty>>(_Ptr, sizeof(_Ty) * _Count);

  00011	83 e0 fc	 and	 eax, -4			; fffffffcH
  00014	50		 push	 eax
  00015	51		 push	 ecx
  00016	e8 00 00 00 00	 call	 ??$_Deallocate@$07$0A@@std@@YAXPAXI@Z ; std::_Deallocate<8,0>
  0001b	83 c4 08	 add	 esp, 8
; File C:\Program Files (x86)\Microsoft Visual Studio\2019\Community\VC\Tools\MSVC\14.27.29110\include\vector

; 1697 :             _Myfirst = pointer();

  0001e	c7 05 00 00 00
	00 00 00 00 00	 mov	 DWORD PTR ?s_emptyVector@?4??GetRenderedSplatNum@CMapManager@@QAEAAV?$vector@HV?$allocator@H@std@@@std@@PAH0PAM@Z@4V34@A, 0

; 1698 :             _Mylast  = pointer();

  00028	c7 05 04 00 00
	00 00 00 00 00	 mov	 DWORD PTR ?s_emptyVector@?4??GetRenderedSplatNum@CMapManager@@QAEAAV?$vector@HV?$allocator@H@std@@@std@@PAH0PAM@Z@4V34@A+4, 0

; 1699 :             _Myend   = pointer();

  00032	c7 05 08 00 00
	00 00 00 00 00	 mov	 DWORD PTR ?s_emptyVector@?4??GetRenderedSplatNum@CMapManager@@QAEAAV?$vector@HV?$allocator@H@std@@@std@@PAH0PAM@Z@4V34@A+8, 0
$LN6@dynamic:
  0003c	c3		 ret	 0
??__Fs_emptyVector@?4??GetRenderedSplatNum@CMapManager@@QAEAAV?$vector@HV?$allocator@H@std@@@std@@PAH0PAM@Z@YAXXZ ENDP ; `CMapManager::GetRenderedSplatNum'::`5'::`dynamic atexit destructor for 's_emptyVector''
text$yd	ENDS
; Function compile flags: /Ogtp
; File C:\Program Files (x86)\Microsoft Visual Studio\2019\Community\VC\Tools\MSVC\14.27.29110\include\xstring
;	COMDAT ??$?9DU?$char_traits@D@std@@V?$allocator@D@1@@std@@YA_NQBDABV?$basic_string@DU?$char_traits@D@std@@V?$allocator@D@2@@0@@Z
_TEXT	SEGMENT
__Left$ = 8						; size = 4
__Right$ = 12						; size = 4
??$?9DU?$char_traits@D@std@@V?$allocator@D@1@@std@@YA_NQBDABV?$basic_string@DU?$char_traits@D@std@@V?$allocator@D@2@@0@@Z PROC ; std::operator!=<char,std::char_traits<char>,std::allocator<char> >, COMDAT

; 4491 : _NODISCARD bool operator!=(_In_z_ const _Elem* const _Left, const basic_string<_Elem, _Traits, _Alloc>& _Right) {

  00000	55		 push	 ebp
  00001	8b ec		 mov	 ebp, esp

; 4492 :     return !(_Left == _Right);

  00003	ff 75 0c	 push	 DWORD PTR __Right$[ebp]
  00006	ff 75 08	 push	 DWORD PTR __Left$[ebp]
  00009	e8 00 00 00 00	 call	 ??$?8DU?$char_traits@D@std@@V?$allocator@D@1@@std@@YA_NQBDABV?$basic_string@DU?$char_traits@D@std@@V?$allocator@D@2@@0@@Z ; std::operator==<char,std::char_traits<char>,std::allocator<char> >
  0000e	83 c4 08	 add	 esp, 8
  00011	34 01		 xor	 al, 1

; 4493 : }

  00013	5d		 pop	 ebp
  00014	c3		 ret	 0
??$?9DU?$char_traits@D@std@@V?$allocator@D@1@@std@@YA_NQBDABV?$basic_string@DU?$char_traits@D@std@@V?$allocator@D@2@@0@@Z ENDP ; std::operator!=<char,std::char_traits<char>,std::allocator<char> >
_TEXT	ENDS
; Function compile flags: /Ogtp
; File C:\Program Files (x86)\Microsoft Visual Studio\2019\Community\VC\Tools\MSVC\14.27.29110\include\xstring
;	COMDAT ??$?9DU?$char_traits@D@std@@V?$allocator@D@1@@std@@YA_NABV?$basic_string@DU?$char_traits@D@std@@V?$allocator@D@2@@0@0@Z
_TEXT	SEGMENT
__Left$ = 8						; size = 4
__Right$ = 12						; size = 4
??$?9DU?$char_traits@D@std@@V?$allocator@D@1@@std@@YA_NABV?$basic_string@DU?$char_traits@D@std@@V?$allocator@D@2@@0@0@Z PROC ; std::operator!=<char,std::char_traits<char>,std::allocator<char> >, COMDAT

; 4486 :     const basic_string<_Elem, _Traits, _Alloc>& _Left, const basic_string<_Elem, _Traits, _Alloc>& _Right) noexcept {

  00000	55		 push	 ebp
  00001	8b ec		 mov	 ebp, esp

; 4487 :     return !(_Left == _Right);

  00003	ff 75 0c	 push	 DWORD PTR __Right$[ebp]
  00006	ff 75 08	 push	 DWORD PTR __Left$[ebp]
  00009	e8 00 00 00 00	 call	 ??$?8DU?$char_traits@D@std@@V?$allocator@D@1@@std@@YA_NABV?$basic_string@DU?$char_traits@D@std@@V?$allocator@D@2@@0@0@Z ; std::operator==<char,std::char_traits<char>,std::allocator<char> >
  0000e	83 c4 08	 add	 esp, 8
  00011	34 01		 xor	 al, 1

; 4488 : }

  00013	5d		 pop	 ebp
  00014	c3		 ret	 0
??$?9DU?$char_traits@D@std@@V?$allocator@D@1@@std@@YA_NABV?$basic_string@DU?$char_traits@D@std@@V?$allocator@D@2@@0@0@Z ENDP ; std::operator!=<char,std::char_traits<char>,std::allocator<char> >
_TEXT	ENDS
; Function compile flags: /Ogtp
; File C:\DS Project\DS Files\Source\ClientSource\Client\eterBase\Stl.h
; File C:\Program Files (x86)\Microsoft Visual Studio\2019\Community\VC\Tools\MSVC\14.27.29110\include\xtree
; File C:\DS Project\DS Files\Source\ClientSource\Client\eterBase\Stl.h
; File C:\Program Files (x86)\Microsoft Visual Studio\2019\Community\VC\Tools\MSVC\14.27.29110\include\xstring
; File C:\Program Files (x86)\Microsoft Visual Studio\2019\Community\VC\Tools\MSVC\14.27.29110\include\xmemory
; File C:\Program Files (x86)\Microsoft Visual Studio\2019\Community\VC\Tools\MSVC\14.27.29110\include\xstring
; File C:\Program Files (x86)\Microsoft Visual Studio\2019\Community\VC\Tools\MSVC\14.27.29110\include\vector
; File C:\Program Files (x86)\Microsoft Visual Studio\2019\Community\VC\Tools\MSVC\14.27.29110\include\xmemory
; File C:\Program Files (x86)\Microsoft Visual Studio\2019\Community\VC\Tools\MSVC\14.27.29110\include\vector
; File C:\Program Files (x86)\Microsoft Visual Studio\2019\Community\VC\Tools\MSVC\14.27.29110\include\xmemory
; File C:\Program Files (x86)\Microsoft Visual Studio\2019\Community\VC\Tools\MSVC\14.27.29110\include\vector
; File C:\Program Files (x86)\Microsoft Visual Studio\2019\Community\VC\Tools\MSVC\14.27.29110\include\xstring
; File C:\Program Files (x86)\Microsoft Visual Studio\2019\Community\VC\Tools\MSVC\14.27.29110\include\xmemory
; File C:\Program Files (x86)\Microsoft Visual Studio\2019\Community\VC\Tools\MSVC\14.27.29110\include\xstring
; File C:\Program Files (x86)\Microsoft Visual Studio\2019\Community\VC\Tools\MSVC\14.27.29110\include\xtree
; File C:\DS Project\DS Files\Source\ClientSource\Client\eterBase\Stl.h
; File C:\Program Files (x86)\Microsoft Visual Studio\2019\Community\VC\Tools\MSVC\14.27.29110\include\xtree
; File C:\Program Files (x86)\Microsoft Visual Studio\2019\Community\VC\Tools\MSVC\14.27.29110\include\utility
; File C:\Program Files (x86)\Microsoft Visual Studio\2019\Community\VC\Tools\MSVC\14.27.29110\include\xmemory
; File C:\Program Files (x86)\Microsoft Visual Studio\2019\Community\VC\Tools\MSVC\14.27.29110\include\xtree
; File C:\DS Project\DS Files\Source\ClientSource\Client\eterBase\Stl.h
;	COMDAT ??$stl_wipe_second@V?$map@KPAUSEnvironmentData@@U?$less@K@std@@V?$allocator@U?$pair@$$CBKPAUSEnvironmentData@@@std@@@3@@std@@@@YAXAAV?$map@KPAUSEnvironmentData@@U?$less@K@std@@V?$allocator@U?$pair@$$CBKPAUSEnvironmentData@@@std@@@3@@std@@@Z
_TEXT	SEGMENT
__$EHRec$ = -12						; size = 12
_container$ = 8						; size = 4
??$stl_wipe_second@V?$map@KPAUSEnvironmentData@@U?$less@K@std@@V?$allocator@U?$pair@$$CBKPAUSEnvironmentData@@@std@@@3@@std@@@@YAXAAV?$map@KPAUSEnvironmentData@@U?$less@K@std@@V?$allocator@U?$pair@$$CBKPAUSEnvironmentData@@@std@@@3@@std@@@Z PROC ; stl_wipe_second<std::map<unsigned long,SEnvironmentData *,std::less<unsigned long>,std::allocator<std::pair<unsigned long const ,SEnvironmentData *> > > >, COMDAT

; 126  : {

  00000	55		 push	 ebp
  00001	8b ec		 mov	 ebp, esp
  00003	6a ff		 push	 -1
  00005	68 00 00 00 00	 push	 __ehhandler$??$stl_wipe_second@V?$map@KPAUSEnvironmentData@@U?$less@K@std@@V?$allocator@U?$pair@$$CBKPAUSEnvironmentData@@@std@@@3@@std@@@@YAXAAV?$map@KPAUSEnvironmentData@@U?$less@K@std@@V?$allocator@U?$pair@$$CBKPAUSEnvironmentData@@@std@@@3@@std@@@Z
  0000a	64 a1 00 00 00
	00		 mov	 eax, DWORD PTR fs:0
  00010	50		 push	 eax
  00011	53		 push	 ebx
  00012	56		 push	 esi
  00013	57		 push	 edi
  00014	a1 00 00 00 00	 mov	 eax, DWORD PTR ___security_cookie
  00019	33 c5		 xor	 eax, ebp
  0001b	50		 push	 eax
  0001c	8d 45 f4	 lea	 eax, DWORD PTR __$EHRec$[ebp]
  0001f	64 a3 00 00 00
	00		 mov	 DWORD PTR fs:0, eax
; File C:\Program Files (x86)\Microsoft Visual Studio\2019\Community\VC\Tools\MSVC\14.27.29110\include\xtree

; 1240 :         return iterator(_Scary->_Myhead->_Left, _Scary);

  00025	8b 5d 08	 mov	 ebx, DWORD PTR _container$[ebp]
  00028	8b 3b		 mov	 edi, DWORD PTR [ebx]

; 39   :     _Tree_unchecked_const_iterator(_Nodeptr _Pnode, const _Mytree* _Plist) noexcept : _Ptr(_Pnode) {

  0002a	8b 37		 mov	 esi, DWORD PTR [edi]
  0002c	3b f7		 cmp	 esi, edi
; File C:\DS Project\DS Files\Source\ClientSource\Client\eterBase\Stl.h

; 127  : 	for (TContainer::iterator i = container.begin(); i != container.end(); ++i)

  0002e	0f 84 32 01 00
	00		 je	 $LN3@stl_wipe_s
$LL24@stl_wipe_s:

; 128  : 	{
; 129  : 		delete i->second;

  00034	8b 7e 14	 mov	 edi, DWORD PTR [esi+20]
  00037	85 ff		 test	 edi, edi
  00039	0f 84 da 00 00
	00		 je	 $LN2@stl_wipe_s
; File C:\Program Files (x86)\Microsoft Visual Studio\2019\Community\VC\Tools\MSVC\14.27.29110\include\xstring

; 2153 :         return _BUF_SIZE <= _Myres;

  0003f	8b 87 90 02 00
	00		 mov	 eax, DWORD PTR [edi+656]
  00045	c7 45 fc 00 00
	00 00		 mov	 DWORD PTR __$EHRec$[ebp+8], 0

; 4301 :         if (_Mypair._Myval2._Large_string_engaged()) {

  0004c	83 f8 10	 cmp	 eax, 16			; 00000010H
  0004f	72 10		 jb	 SHORT $LN58@stl_wipe_s

; 4302 :             const pointer _Ptr = _Mypair._Myval2._Bx._Ptr;
; 4303 :             auto& _Al          = _Getal();
; 4304 :             _Destroy_in_place(_Mypair._Myval2._Bx._Ptr);
; 4305 :             _Al.deallocate(_Ptr, _Mypair._Myval2._Myres + 1);

  00051	40		 inc	 eax
; File C:\Program Files (x86)\Microsoft Visual Studio\2019\Community\VC\Tools\MSVC\14.27.29110\include\xmemory

; 803  :         _Deallocate<_New_alignof<_Ty>>(_Ptr, sizeof(_Ty) * _Count);

  00052	50		 push	 eax
  00053	ff b7 7c 02 00
	00		 push	 DWORD PTR [edi+636]
  00059	e8 00 00 00 00	 call	 ??$_Deallocate@$07$0A@@std@@YAXPAXI@Z ; std::_Deallocate<8,0>
  0005e	83 c4 08	 add	 esp, 8
$LN58@stl_wipe_s:
; File C:\Program Files (x86)\Microsoft Visual Studio\2019\Community\VC\Tools\MSVC\14.27.29110\include\xstring

; 4308 :         _Mypair._Myval2._Mysize = 0;

  00061	c7 87 8c 02 00
	00 00 00 00 00	 mov	 DWORD PTR [edi+652], 0

; 4309 :         _Mypair._Myval2._Myres  = _BUF_SIZE - 1;

  0006b	c7 87 90 02 00
	00 0f 00 00 00	 mov	 DWORD PTR [edi+656], 15	; 0000000fH

; 4310 :         // the _Traits::assign is last so the codegen doesn't think the char write can alias this
; 4311 :         _Traits::assign(_Mypair._Myval2._Bx._Buf[0], _Elem());

  00075	c6 87 7c 02 00
	00 00		 mov	 BYTE PTR [edi+636], 0
; File C:\Program Files (x86)\Microsoft Visual Studio\2019\Community\VC\Tools\MSVC\14.27.29110\include\vector

; 1693 :         if (_Myfirst) { // destroy and deallocate old array

  0007c	8b 8f 54 02 00
	00		 mov	 ecx, DWORD PTR [edi+596]
  00082	85 c9		 test	 ecx, ecx
  00084	74 33		 je	 SHORT $LN67@stl_wipe_s

; 1694 :             _Destroy(_Myfirst, _Mylast);
; 1695 :             _Getal().deallocate(_Myfirst, static_cast<size_type>(_Myend - _Myfirst));

  00086	8b 87 5c 02 00
	00		 mov	 eax, DWORD PTR [edi+604]
  0008c	2b c1		 sub	 eax, ecx
; File C:\Program Files (x86)\Microsoft Visual Studio\2019\Community\VC\Tools\MSVC\14.27.29110\include\xmemory

; 803  :         _Deallocate<_New_alignof<_Ty>>(_Ptr, sizeof(_Ty) * _Count);

  0008e	83 e0 e0	 and	 eax, -32		; ffffffe0H
  00091	50		 push	 eax
  00092	51		 push	 ecx
  00093	e8 00 00 00 00	 call	 ??$_Deallocate@$07$0A@@std@@YAXPAXI@Z ; std::_Deallocate<8,0>
; File C:\Program Files (x86)\Microsoft Visual Studio\2019\Community\VC\Tools\MSVC\14.27.29110\include\vector

; 1697 :             _Myfirst = pointer();

  00098	c7 87 54 02 00
	00 00 00 00 00	 mov	 DWORD PTR [edi+596], 0
; File C:\Program Files (x86)\Microsoft Visual Studio\2019\Community\VC\Tools\MSVC\14.27.29110\include\xmemory

; 803  :         _Deallocate<_New_alignof<_Ty>>(_Ptr, sizeof(_Ty) * _Count);

  000a2	83 c4 08	 add	 esp, 8
; File C:\Program Files (x86)\Microsoft Visual Studio\2019\Community\VC\Tools\MSVC\14.27.29110\include\vector

; 1698 :             _Mylast  = pointer();

  000a5	c7 87 58 02 00
	00 00 00 00 00	 mov	 DWORD PTR [edi+600], 0

; 1699 :             _Myend   = pointer();

  000af	c7 87 5c 02 00
	00 00 00 00 00	 mov	 DWORD PTR [edi+604], 0
$LN67@stl_wipe_s:
; File C:\Program Files (x86)\Microsoft Visual Studio\2019\Community\VC\Tools\MSVC\14.27.29110\include\xstring

; 2153 :         return _BUF_SIZE <= _Myres;

  000b9	8b 87 30 02 00
	00		 mov	 eax, DWORD PTR [edi+560]

; 4301 :         if (_Mypair._Myval2._Large_string_engaged()) {

  000bf	83 f8 10	 cmp	 eax, 16			; 00000010H
  000c2	72 10		 jb	 SHORT $LN75@stl_wipe_s

; 4302 :             const pointer _Ptr = _Mypair._Myval2._Bx._Ptr;
; 4303 :             auto& _Al          = _Getal();
; 4304 :             _Destroy_in_place(_Mypair._Myval2._Bx._Ptr);
; 4305 :             _Al.deallocate(_Ptr, _Mypair._Myval2._Myres + 1);

  000c4	40		 inc	 eax
; File C:\Program Files (x86)\Microsoft Visual Studio\2019\Community\VC\Tools\MSVC\14.27.29110\include\xmemory

; 803  :         _Deallocate<_New_alignof<_Ty>>(_Ptr, sizeof(_Ty) * _Count);

  000c5	50		 push	 eax
  000c6	ff b7 1c 02 00
	00		 push	 DWORD PTR [edi+540]
  000cc	e8 00 00 00 00	 call	 ??$_Deallocate@$07$0A@@std@@YAXPAXI@Z ; std::_Deallocate<8,0>
  000d1	83 c4 08	 add	 esp, 8
$LN75@stl_wipe_s:
  000d4	68 00 00 00 00	 push	 OFFSET ??1?$basic_string@DU?$char_traits@D@std@@V?$allocator@D@2@@std@@QAE@XZ ; std::basic_string<char,std::char_traits<char>,std::allocator<char> >::~basic_string<char,std::char_traits<char>,std::allocator<char> >
  000d9	6a 06		 push	 6
  000db	6a 18		 push	 24			; 00000018H
  000dd	8d 87 70 01 00
	00		 lea	 eax, DWORD PTR [edi+368]
; File C:\Program Files (x86)\Microsoft Visual Studio\2019\Community\VC\Tools\MSVC\14.27.29110\include\xstring

; 4308 :         _Mypair._Myval2._Mysize = 0;

  000e3	c7 87 2c 02 00
	00 00 00 00 00	 mov	 DWORD PTR [edi+556], 0
  000ed	50		 push	 eax

; 4309 :         _Mypair._Myval2._Myres  = _BUF_SIZE - 1;

  000ee	c7 87 30 02 00
	00 0f 00 00 00	 mov	 DWORD PTR [edi+560], 15	; 0000000fH

; 4310 :         // the _Traits::assign is last so the codegen doesn't think the char write can alias this
; 4311 :         _Traits::assign(_Mypair._Myval2._Bx._Buf[0], _Elem());

  000f8	c6 87 1c 02 00
	00 00		 mov	 BYTE PTR [edi+540], 0
  000ff	e8 00 00 00 00	 call	 ??_M@YGXPAXIIP6EX0@Z@Z
  00104	68 9c 02 00 00	 push	 668			; 0000029cH
  00109	57		 push	 edi
  0010a	c7 45 fc ff ff
	ff ff		 mov	 DWORD PTR __$EHRec$[ebp+8], -1
  00111	e8 00 00 00 00	 call	 ??3@YAXPAXI@Z		; operator delete
  00116	83 c4 08	 add	 esp, 8
$LN2@stl_wipe_s:
; File C:\Program Files (x86)\Microsoft Visual Studio\2019\Community\VC\Tools\MSVC\14.27.29110\include\xtree

; 52   :         if (_Ptr->_Right->_Isnil) { // climb looking for right subtree

  00119	8b 46 08	 mov	 eax, DWORD PTR [esi+8]
  0011c	80 78 0d 00	 cmp	 BYTE PTR [eax+13], 0
  00120	74 22		 je	 SHORT $LN23@stl_wipe_s

; 53   :             _Nodeptr _Pnode;
; 54   :             while (!(_Pnode = _Ptr->_Parent)->_Isnil && _Ptr == _Pnode->_Right) {

  00122	8b 46 04	 mov	 eax, DWORD PTR [esi+4]
  00125	80 78 0d 00	 cmp	 BYTE PTR [eax+13], 0
  00129	75 15		 jne	 SHORT $LN22@stl_wipe_s
  0012b	0f 1f 44 00 00	 npad	 5
$LL21@stl_wipe_s:
  00130	3b 70 08	 cmp	 esi, DWORD PTR [eax+8]
  00133	75 0b		 jne	 SHORT $LN22@stl_wipe_s

; 55   :                 _Ptr = _Pnode; // ==> parent while right subtree

  00135	8b f0		 mov	 esi, eax
  00137	8b 40 04	 mov	 eax, DWORD PTR [eax+4]
  0013a	80 78 0d 00	 cmp	 BYTE PTR [eax+13], 0
  0013e	74 f0		 je	 SHORT $LL21@stl_wipe_s
$LN22@stl_wipe_s:

; 56   :             }
; 57   : 
; 58   :             _Ptr = _Pnode; // ==> parent (head if end())

  00140	8b f0		 mov	 esi, eax

; 59   :         } else {

  00142	eb 18		 jmp	 SHORT $LN101@stl_wipe_s
$LN23@stl_wipe_s:

; 60   :             _Ptr = _Mytree::_Min(_Ptr->_Right); // ==> smallest of right subtree

  00144	8b f0		 mov	 esi, eax

; 451  :         while (!_Pnode->_Left->_Isnil) {

  00146	8b 0e		 mov	 ecx, DWORD PTR [esi]
  00148	80 79 0d 00	 cmp	 BYTE PTR [ecx+13], 0
  0014c	75 0e		 jne	 SHORT $LN101@stl_wipe_s
  0014e	66 90		 npad	 2
$LL27@stl_wipe_s:
  00150	8b 01		 mov	 eax, DWORD PTR [ecx]

; 452  :             _Pnode = _Pnode->_Left;

  00152	8b f1		 mov	 esi, ecx
  00154	8b c8		 mov	 ecx, eax
  00156	80 78 0d 00	 cmp	 BYTE PTR [eax+13], 0
  0015a	74 f4		 je	 SHORT $LL27@stl_wipe_s
$LN101@stl_wipe_s:

; 39   :     _Tree_unchecked_const_iterator(_Nodeptr _Pnode, const _Mytree* _Plist) noexcept : _Ptr(_Pnode) {

  0015c	8b 3b		 mov	 edi, DWORD PTR [ebx]

; 232  :         return this->_Ptr == _Right._Ptr;

  0015e	3b f7		 cmp	 esi, edi
; File C:\DS Project\DS Files\Source\ClientSource\Client\eterBase\Stl.h

; 127  : 	for (TContainer::iterator i = container.begin(); i != container.end(); ++i)

  00160	0f 85 ce fe ff
	ff		 jne	 $LL24@stl_wipe_s
$LN3@stl_wipe_s:
; File C:\Program Files (x86)\Microsoft Visual Studio\2019\Community\VC\Tools\MSVC\14.27.29110\include\xtree

; 1448 :         _Scary->_Erase_tree(_Getal(), _Head->_Parent);

  00166	8b 77 04	 mov	 esi, DWORD PTR [edi+4]

; 743  :         while (!_Rootnode->_Isnil) { // free subtrees, then node

  00169	80 7e 0d 00	 cmp	 BYTE PTR [esi+13], 0
  0016d	75 21		 jne	 SHORT $LN85@stl_wipe_s
  0016f	90		 npad	 1
$LL84@stl_wipe_s:

; 744  :             _Erase_tree(_Al, _Rootnode->_Right);

  00170	ff 76 08	 push	 DWORD PTR [esi+8]
  00173	8b cb		 mov	 ecx, ebx
  00175	53		 push	 ebx
  00176	e8 00 00 00 00	 call	 ??$_Erase_tree@V?$allocator@U?$_Tree_node@U?$pair@$$CBKPAUSEnvironmentData@@@std@@PAX@std@@@std@@@?$_Tree_val@U?$_Tree_simple_types@U?$pair@$$CBKPAUSEnvironmentData@@@std@@@std@@@std@@QAEXAAV?$allocator@U?$_Tree_node@U?$pair@$$CBKPAUSEnvironmentData@@@std@@PAX@std@@@1@PAU?$_Tree_node@U?$pair@$$CBKPAUSEnvironmentData@@@std@@PAX@1@@Z ; std::_Tree_val<std::_Tree_simple_types<std::pair<unsigned long const ,SEnvironmentData *> > >::_Erase_tree<std::allocator<std::_Tree_node<std::pair<unsigned long const ,SEnvironmentData *>,void *> > >
; File C:\Program Files (x86)\Microsoft Visual Studio\2019\Community\VC\Tools\MSVC\14.27.29110\include\utility

; 599  :     _Ty _Old_val = static_cast<_Ty&&>(_Val);

  0017b	8b c6		 mov	 eax, esi

; 600  :     _Val         = static_cast<_Other&&>(_New_val);

  0017d	8b 36		 mov	 esi, DWORD PTR [esi]
; File C:\Program Files (x86)\Microsoft Visual Studio\2019\Community\VC\Tools\MSVC\14.27.29110\include\xmemory

; 689  :         _Deallocate<_New_alignof<value_type>>(_Ptr, sizeof(value_type) * _Count);

  0017f	6a 18		 push	 24			; 00000018H
  00181	50		 push	 eax
  00182	e8 00 00 00 00	 call	 ??$_Deallocate@$07$0A@@std@@YAXPAXI@Z ; std::_Deallocate<8,0>
  00187	83 c4 08	 add	 esp, 8
; File C:\Program Files (x86)\Microsoft Visual Studio\2019\Community\VC\Tools\MSVC\14.27.29110\include\xtree

; 743  :         while (!_Rootnode->_Isnil) { // free subtrees, then node

  0018a	80 7e 0d 00	 cmp	 BYTE PTR [esi+13], 0
  0018e	74 e0		 je	 SHORT $LL84@stl_wipe_s
$LN85@stl_wipe_s:

; 1449 :         _Head->_Parent  = _Head;

  00190	89 7f 04	 mov	 DWORD PTR [edi+4], edi

; 1450 :         _Head->_Left    = _Head;

  00193	89 3f		 mov	 DWORD PTR [edi], edi

; 1451 :         _Head->_Right   = _Head;

  00195	89 7f 08	 mov	 DWORD PTR [edi+8], edi

; 1452 :         _Scary->_Mysize = 0;

  00198	c7 43 04 00 00
	00 00		 mov	 DWORD PTR [ebx+4], 0
; File C:\DS Project\DS Files\Source\ClientSource\Client\eterBase\Stl.h

; 133  : }

  0019f	8b 4d f4	 mov	 ecx, DWORD PTR __$EHRec$[ebp]
  001a2	64 89 0d 00 00
	00 00		 mov	 DWORD PTR fs:0, ecx
  001a9	59		 pop	 ecx
  001aa	5f		 pop	 edi
  001ab	5e		 pop	 esi
  001ac	5b		 pop	 ebx
  001ad	8b e5		 mov	 esp, ebp
  001af	5d		 pop	 ebp
  001b0	c3		 ret	 0
  001b1	cc		 int	 3
  001b2	cc		 int	 3
  001b3	cc		 int	 3
  001b4	cc		 int	 3
  001b5	cc		 int	 3
_TEXT	ENDS
;	COMDAT text$x
text$x	SEGMENT
__ehhandler$??$stl_wipe_second@V?$map@KPAUSEnvironmentData@@U?$less@K@std@@V?$allocator@U?$pair@$$CBKPAUSEnvironmentData@@@std@@@3@@std@@@@YAXAAV?$map@KPAUSEnvironmentData@@U?$less@K@std@@V?$allocator@U?$pair@$$CBKPAUSEnvironmentData@@@std@@@3@@std@@@Z:
  00000	90		 npad	 1
  00001	90		 npad	 1
  00002	8b 54 24 08	 mov	 edx, DWORD PTR [esp+8]
  00006	8d 42 0c	 lea	 eax, DWORD PTR [edx+12]
  00009	8b 4a f0	 mov	 ecx, DWORD PTR [edx-16]
  0000c	33 c8		 xor	 ecx, eax
  0000e	e8 00 00 00 00	 call	 @__security_check_cookie@4
  00013	b8 00 00 00 00	 mov	 eax, OFFSET __ehfuncinfo$??$stl_wipe_second@V?$map@KPAUSEnvironmentData@@U?$less@K@std@@V?$allocator@U?$pair@$$CBKPAUSEnvironmentData@@@std@@@3@@std@@@@YAXAAV?$map@KPAUSEnvironmentData@@U?$less@K@std@@V?$allocator@U?$pair@$$CBKPAUSEnvironmentData@@@std@@@3@@std@@@Z
  00018	e9 00 00 00 00	 jmp	 ___CxxFrameHandler3
text$x	ENDS
??$stl_wipe_second@V?$map@KPAUSEnvironmentData@@U?$less@K@std@@V?$allocator@U?$pair@$$CBKPAUSEnvironmentData@@@std@@@3@@std@@@@YAXAAV?$map@KPAUSEnvironmentData@@U?$less@K@std@@V?$allocator@U?$pair@$$CBKPAUSEnvironmentData@@@std@@@3@@std@@@Z ENDP ; stl_wipe_second<std::map<unsigned long,SEnvironmentData *,std::less<unsigned long>,std::allocator<std::pair<unsigned long const ,SEnvironmentData *> > > >
; Function compile flags: /Ogtp
;	COMDAT ??_GCMapManager@@UAEPAXI@Z
_TEXT	SEGMENT
___flags$ = 8						; size = 4
??_GCMapManager@@UAEPAXI@Z PROC				; CMapManager::`scalar deleting destructor', COMDAT
; _this$ = ecx
  00000	55		 push	 ebp
  00001	8b ec		 mov	 ebp, esp
  00003	56		 push	 esi
  00004	8b f1		 mov	 esi, ecx
  00006	e8 00 00 00 00	 call	 ??1CMapManager@@UAE@XZ	; CMapManager::~CMapManager
  0000b	f6 45 08 01	 test	 BYTE PTR ___flags$[ebp], 1
  0000f	74 0e		 je	 SHORT $LN4@scalar
  00011	68 dc 14 00 00	 push	 5340			; 000014dcH
  00016	56		 push	 esi
  00017	e8 00 00 00 00	 call	 ??3@YAXPAXI@Z		; operator delete
  0001c	83 c4 08	 add	 esp, 8
$LN4@scalar:
  0001f	8b c6		 mov	 eax, esi
  00021	5e		 pop	 esi
  00022	5d		 pop	 ebp
  00023	c2 04 00	 ret	 4
??_GCMapManager@@UAEPAXI@Z ENDP				; CMapManager::`scalar deleting destructor'
_TEXT	ENDS
; Function compile flags: /Ogtp
; File C:\DS Project\DS Files\Source\ClientSource\Client\GameLib\MapManager.cpp
; File C:\Program Files (x86)\Microsoft Visual Studio\2019\Community\VC\Tools\MSVC\14.27.29110\include\xstring
; File C:\DS Project\DS Files\Source\ClientSource\Client\GameLib\MapManager.cpp
; File C:\Program Files (x86)\Microsoft Visual Studio\2019\Community\VC\Tools\MSVC\14.27.29110\include\xstring
; File C:\DS Project\DS Files\Source\ClientSource\Client\GameLib\MapManager.cpp
; File C:\Program Files (x86)\Microsoft Visual Studio\2019\Community\VC\Tools\MSVC\14.27.29110\include\xstring
; File C:\DS Project\DS Files\Source\ClientSource\Client\GameLib\MapManager.cpp
; File C:\Program Files (x86)\Microsoft Visual Studio\2019\Community\VC\Tools\MSVC\14.27.29110\include\xstring
; File C:\DS Project\DS Files\Source\ClientSource\Client\GameLib\MapManager.cpp
; File C:\Program Files (x86)\Microsoft Visual Studio\2019\Community\VC\Tools\MSVC\14.27.29110\include\xstring
; File C:\DS Project\DS Files\Source\ClientSource\Client\GameLib\MapManager.cpp
; File C:\Program Files (x86)\Microsoft Visual Studio\2019\Community\VC\Tools\MSVC\14.27.29110\include\vector
; File C:\DS Project\DS Files\Source\ClientSource\Client\GameLib\MapManager.cpp
; File C:\Program Files (x86)\Microsoft Visual Studio\2019\Community\VC\Tools\MSVC\14.27.29110\include\vector
; File C:\Program Files (x86)\Microsoft Visual Studio\2019\Community\VC\Tools\MSVC\14.27.29110\include\xstring
; File C:\DS Project\DS Files\Source\ClientSource\Client\GameLib\MapManager.cpp
; File C:\Program Files (x86)\Microsoft Visual Studio\2019\Community\VC\Tools\MSVC\14.27.29110\include\xstring
; File C:\Program Files (x86)\Microsoft Visual Studio\2019\Community\VC\Tools\MSVC\14.27.29110\include\xmemory
; File C:\DS Project\DS Files\Source\ClientSource\Client\GameLib\MapManager.cpp
;	COMDAT ?__LoadMapInfoVector@CMapManager@@IAEXXZ
_TEXT	SEGMENT
_textFileLoader$ = -680					; size = 16
_height$ = -664						; size = 4
_width$ = -660						; size = 4
_y$ = -656						; size = 4
_x$ = -652						; size = 4
_pData$ = -648						; size = 4
_kFile$ = -644						; size = 324
_kMapInfo$2 = -320					; size = 48
_szMapName$ = -272					; size = 256
__$ArrayPad$ = -16					; size = 4
__$EHRec$ = -12						; size = 12
?__LoadMapInfoVector@CMapManager@@IAEXXZ PROC		; CMapManager::__LoadMapInfoVector, COMDAT
; _this$ = ecx

; 598  : {

  00000	55		 push	 ebp
  00001	8b ec		 mov	 ebp, esp
  00003	6a ff		 push	 -1
  00005	68 00 00 00 00	 push	 __ehhandler$?__LoadMapInfoVector@CMapManager@@IAEXXZ
  0000a	64 a1 00 00 00
	00		 mov	 eax, DWORD PTR fs:0
  00010	50		 push	 eax
  00011	81 ec 9c 02 00
	00		 sub	 esp, 668		; 0000029cH
  00017	a1 00 00 00 00	 mov	 eax, DWORD PTR ___security_cookie
  0001c	33 c5		 xor	 eax, ebp
  0001e	89 45 f0	 mov	 DWORD PTR __$ArrayPad$[ebp], eax
  00021	53		 push	 ebx
  00022	56		 push	 esi
  00023	57		 push	 edi
  00024	50		 push	 eax
  00025	8d 45 f4	 lea	 eax, DWORD PTR __$EHRec$[ebp]
  00028	64 a3 00 00 00
	00		 mov	 DWORD PTR fs:0, eax
  0002e	8b d9		 mov	 ebx, ecx

; 599  : 	CMappedFile kFile;

  00030	8d 8d 7c fd ff
	ff		 lea	 ecx, DWORD PTR _kFile$[ebp]
  00036	e8 00 00 00 00	 call	 ??0CMappedFile@@QAE@XZ	; CMappedFile::CMappedFile
; File C:\Program Files (x86)\Microsoft Visual Studio\2019\Community\VC\Tools\MSVC\14.27.29110\include\xstring

; 2145 :         if (_Large_string_engaged()) {

  0003b	83 bb d8 14 00
	00 10		 cmp	 DWORD PTR [ebx+5336], 16 ; 00000010H

; 3668 :         return _Mypair._Myval2._Myptr();

  00042	8d 83 c4 14 00
	00		 lea	 eax, DWORD PTR [ebx+5316]
; File C:\DS Project\DS Files\Source\ClientSource\Client\GameLib\MapManager.cpp

; 599  : 	CMappedFile kFile;

  00048	c7 45 fc 00 00
	00 00		 mov	 DWORD PTR __$EHRec$[ebp+8], 0
; File C:\Program Files (x86)\Microsoft Visual Studio\2019\Community\VC\Tools\MSVC\14.27.29110\include\xstring

; 2145 :         if (_Large_string_engaged()) {

  0004f	72 02		 jb	 SHORT $LN16@LoadMapInf

; 2146 :             _Result = _Unfancy(_Bx._Ptr);

  00051	8b 00		 mov	 eax, DWORD PTR [eax]
$LN16@LoadMapInf:
; File C:\DS Project\DS Files\Source\ClientSource\Client\GameLib\MapManager.cpp

; 601  : 	if (!CEterPackManager::Instance().Get(kFile, m_stAtlasInfoFileName.c_str(), &pData))

  00053	8d 8d 78 fd ff
	ff		 lea	 ecx, DWORD PTR _pData$[ebp]
  00059	51		 push	 ecx
  0005a	8b 0d 00 00 00
	00		 mov	 ecx, DWORD PTR ?ms_singleton@?$CSingleton@VCEterPackManager@@@@0PAVCEterPackManager@@A ; CSingleton<CEterPackManager>::ms_singleton
  00060	50		 push	 eax
  00061	8d 85 7c fd ff
	ff		 lea	 eax, DWORD PTR _kFile$[ebp]
  00067	50		 push	 eax
  00068	e8 00 00 00 00	 call	 ?Get@CEterPackManager@@QAE_NAAVCMappedFile@@PBDPAPBX@Z ; CEterPackManager::Get
  0006d	84 c0		 test	 al, al
  0006f	75 26		 jne	 SHORT $LN6@LoadMapInf

; 602  : 		if (!CEterPackManager::Instance().Get(kFile, "AtlasInfo.txt", &pData))

  00071	8b 0d 00 00 00
	00		 mov	 ecx, DWORD PTR ?ms_singleton@?$CSingleton@VCEterPackManager@@@@0PAVCEterPackManager@@A ; CSingleton<CEterPackManager>::ms_singleton
  00077	8d 85 78 fd ff
	ff		 lea	 eax, DWORD PTR _pData$[ebp]
  0007d	50		 push	 eax
  0007e	68 00 00 00 00	 push	 OFFSET ??_C@_0O@EEKDAHG@AtlasInfo?4txt@
  00083	8d 85 7c fd ff
	ff		 lea	 eax, DWORD PTR _kFile$[ebp]
  00089	50		 push	 eax
  0008a	e8 00 00 00 00	 call	 ?Get@CEterPackManager@@QAE_NAAVCMappedFile@@PBDPAPBX@Z ; CEterPackManager::Get
  0008f	84 c0		 test	 al, al
  00091	0f 84 9b 01 00
	00		 je	 $LN12@LoadMapInf
$LN6@LoadMapInf:

; 603  : 			return;
; 604  : 
; 605  : 	CMemoryTextFileLoader textFileLoader;

  00097	8d 8d 58 fd ff
	ff		 lea	 ecx, DWORD PTR _textFileLoader$[ebp]
  0009d	e8 00 00 00 00	 call	 ??0CMemoryTextFileLoader@@QAE@XZ ; CMemoryTextFileLoader::CMemoryTextFileLoader

; 606  : 	textFileLoader.Bind(kFile.Size(), pData);

  000a2	ff b5 78 fd ff
	ff		 push	 DWORD PTR _pData$[ebp]
  000a8	8d 8d 7c fd ff
	ff		 lea	 ecx, DWORD PTR _kFile$[ebp]
  000ae	c6 45 fc 01	 mov	 BYTE PTR __$EHRec$[ebp+8], 1
  000b2	e8 00 00 00 00	 call	 ?Size@CMappedFile@@QAEKXZ ; CMappedFile::Size
  000b7	50		 push	 eax
  000b8	8d 8d 58 fd ff
	ff		 lea	 ecx, DWORD PTR _textFileLoader$[ebp]
  000be	e8 00 00 00 00	 call	 ?Bind@CMemoryTextFileLoader@@QAEXHPBX@Z ; CMemoryTextFileLoader::Bind

; 611  : 	for (UINT uLineIndex=0; uLineIndex<textFileLoader.GetLineCount(); ++uLineIndex)

  000c3	8d 8d 58 fd ff
	ff		 lea	 ecx, DWORD PTR _textFileLoader$[ebp]
  000c9	33 ff		 xor	 edi, edi
  000cb	e8 00 00 00 00	 call	 ?GetLineCount@CMemoryTextFileLoader@@QAEKXZ ; CMemoryTextFileLoader::GetLineCount
  000d0	85 c0		 test	 eax, eax
  000d2	0f 84 4f 01 00
	00		 je	 $LN3@LoadMapInf
  000d8	0f 1f 84 00 00
	00 00 00	 npad	 8
$LL4@LoadMapInf:

; 612  : 	{
; 613  : 		const std::string& c_rstLine=textFileLoader.GetLineString(uLineIndex);

  000e0	57		 push	 edi
  000e1	8d 8d 58 fd ff
	ff		 lea	 ecx, DWORD PTR _textFileLoader$[ebp]
  000e7	e8 00 00 00 00	 call	 ?GetLineString@CMemoryTextFileLoader@@QAEABV?$basic_string@DU?$char_traits@D@std@@V?$allocator@D@2@@std@@K@Z ; CMemoryTextFileLoader::GetLineString
; File C:\Program Files (x86)\Microsoft Visual Studio\2019\Community\VC\Tools\MSVC\14.27.29110\include\xstring

; 2145 :         if (_Large_string_engaged()) {

  000ec	83 78 14 10	 cmp	 DWORD PTR [eax+20], 16	; 00000010H
  000f0	72 02		 jb	 SHORT $LN23@LoadMapInf

; 2146 :             _Result = _Unfancy(_Bx._Ptr);

  000f2	8b 00		 mov	 eax, DWORD PTR [eax]
$LN23@LoadMapInf:
; File C:\DS Project\DS Files\Source\ClientSource\Client\GameLib\MapManager.cpp

; 614  : 		sscanf(c_rstLine.c_str(), "%s %d %d %d %d",

  000f4	8d 8d 68 fd ff
	ff		 lea	 ecx, DWORD PTR _height$[ebp]
  000fa	51		 push	 ecx
  000fb	8d 8d 6c fd ff
	ff		 lea	 ecx, DWORD PTR _width$[ebp]
  00101	51		 push	 ecx
  00102	8d 8d 70 fd ff
	ff		 lea	 ecx, DWORD PTR _y$[ebp]
  00108	51		 push	 ecx
  00109	8d 8d 74 fd ff
	ff		 lea	 ecx, DWORD PTR _x$[ebp]
  0010f	51		 push	 ecx
  00110	8d 8d f0 fe ff
	ff		 lea	 ecx, DWORD PTR _szMapName$[ebp]
  00116	51		 push	 ecx
  00117	68 00 00 00 00	 push	 OFFSET ??_C@_0P@GOFAHLEL@?$CFs?5?$CFd?5?$CFd?5?$CFd?5?$CFd@
  0011c	50		 push	 eax
  0011d	e8 00 00 00 00	 call	 _sscanf
  00122	83 c4 1c	 add	 esp, 28			; 0000001cH

; 615  : 			szMapName,
; 616  : 			&x, &y, &width, &height);
; 617  : 
; 618  : 		if ('\0'==szMapName[0])

  00125	80 bd f0 fe ff
	ff 00		 cmp	 BYTE PTR _szMapName$[ebp], 0
  0012c	0f 84 e1 00 00
	00		 je	 $LN2@LoadMapInf
; File C:\Program Files (x86)\Microsoft Visual Studio\2019\Community\VC\Tools\MSVC\14.27.29110\include\xstring

; 4293 :         _Mypair._Myval2._Mysize = 0;

  00132	c7 85 d0 fe ff
	ff 00 00 00 00	 mov	 DWORD PTR _kMapInfo$2[ebp+16], 0

; 4294 :         _Mypair._Myval2._Myres  = _BUF_SIZE - 1;

  0013c	c7 85 d4 fe ff
	ff 0f 00 00 00	 mov	 DWORD PTR _kMapInfo$2[ebp+20], 15 ; 0000000fH

; 4295 :         // the _Traits::assign is last so the codegen doesn't think the char write can alias this
; 4296 :         _Traits::assign(_Mypair._Myval2._Bx._Buf[0], _Elem());

  00146	c6 85 c0 fe ff
	ff 00		 mov	 BYTE PTR _kMapInfo$2[ebp], 0

; 321  :         return _CSTD strlen(reinterpret_cast<const char*>(_First));

  0014d	8d 85 f0 fe ff
	ff		 lea	 eax, DWORD PTR _szMapName$[ebp]
; File C:\DS Project\DS Files\Source\ClientSource\Client\GameLib\MapManager.cpp

; 621  : 		TMapInfo kMapInfo;

  00153	c6 45 fc 02	 mov	 BYTE PTR __$EHRec$[ebp+8], 2
; File C:\Program Files (x86)\Microsoft Visual Studio\2019\Community\VC\Tools\MSVC\14.27.29110\include\xstring

; 321  :         return _CSTD strlen(reinterpret_cast<const char*>(_First));

  00157	8d 50 01	 lea	 edx, DWORD PTR [eax+1]
  0015a	66 0f 1f 44 00
	00		 npad	 6
$LL69@LoadMapInf:
  00160	8a 08		 mov	 cl, BYTE PTR [eax]
  00162	40		 inc	 eax
  00163	84 c9		 test	 cl, cl
  00165	75 f9		 jne	 SHORT $LL69@LoadMapInf
  00167	2b c2		 sub	 eax, edx

; 2984 :         return assign(_Ptr, _Convert_size<size_type>(_Traits::length(_Ptr)));

  00169	8d 8d c0 fe ff
	ff		 lea	 ecx, DWORD PTR _kMapInfo$2[ebp]
  0016f	50		 push	 eax
  00170	8d 85 f0 fe ff
	ff		 lea	 eax, DWORD PTR _szMapName$[ebp]
  00176	50		 push	 eax
  00177	e8 00 00 00 00	 call	 ?assign@?$basic_string@DU?$char_traits@D@std@@V?$allocator@D@2@@std@@QAEAAV12@QBDI@Z ; std::basic_string<char,std::char_traits<char>,std::allocator<char> >::assign
; File C:\DS Project\DS Files\Source\ClientSource\Client\GameLib\MapManager.cpp

; 626  : 		kMapInfo.m_dwSizeX = width;

  0017c	8b 85 6c fd ff
	ff		 mov	 eax, DWORD PTR _width$[ebp]
  00182	8b 95 74 fd ff
	ff		 mov	 edx, DWORD PTR _x$[ebp]

; 627  : 		kMapInfo.m_dwSizeY = height;

  00188	8b 8d 68 fd ff
	ff		 mov	 ecx, DWORD PTR _height$[ebp]
  0018e	8b b5 70 fd ff
	ff		 mov	 esi, DWORD PTR _y$[ebp]
  00194	89 85 e0 fe ff
	ff		 mov	 DWORD PTR _kMapInfo$2[ebp+32], eax

; 628  : 
; 629  : 		kMapInfo.m_dwEndX = kMapInfo.m_dwBaseX + kMapInfo.m_dwSizeX * CTerrainImpl::TERRAIN_XSIZE;

  0019a	69 c0 00 64 00
	00		 imul	 eax, eax, 25600
  001a0	89 b5 dc fe ff
	ff		 mov	 DWORD PTR _kMapInfo$2[ebp+28], esi
  001a6	89 8d e4 fe ff
	ff		 mov	 DWORD PTR _kMapInfo$2[ebp+36], ecx
  001ac	89 95 d8 fe ff
	ff		 mov	 DWORD PTR _kMapInfo$2[ebp+24], edx
  001b2	03 c2		 add	 eax, edx
  001b4	89 85 e8 fe ff
	ff		 mov	 DWORD PTR _kMapInfo$2[ebp+40], eax

; 630  : 		kMapInfo.m_dwEndY = kMapInfo.m_dwBaseY + kMapInfo.m_dwSizeY * CTerrainImpl::TERRAIN_YSIZE;

  001ba	69 c1 00 64 00
	00		 imul	 eax, ecx, 25600
; File C:\Program Files (x86)\Microsoft Visual Studio\2019\Community\VC\Tools\MSVC\14.27.29110\include\vector

; 704  :         if (_Mylast != _My_data._Myend) {

  001c0	8d 8d c0 fe ff
	ff		 lea	 ecx, DWORD PTR _kMapInfo$2[ebp]
  001c6	51		 push	 ecx
; File C:\DS Project\DS Files\Source\ClientSource\Client\GameLib\MapManager.cpp

; 630  : 		kMapInfo.m_dwEndY = kMapInfo.m_dwBaseY + kMapInfo.m_dwSizeY * CTerrainImpl::TERRAIN_YSIZE;

  001c7	03 c6		 add	 eax, esi

; 631  : 
; 632  : 		m_kVct_kMapInfo.push_back(kMapInfo);

  001c9	8d b3 b4 14 00
	00		 lea	 esi, DWORD PTR [ebx+5300]
  001cf	89 85 ec fe ff
	ff		 mov	 DWORD PTR _kMapInfo$2[ebp+44], eax
; File C:\Program Files (x86)\Microsoft Visual Studio\2019\Community\VC\Tools\MSVC\14.27.29110\include\vector

; 704  :         if (_Mylast != _My_data._Myend) {

  001d5	8b 46 04	 mov	 eax, DWORD PTR [esi+4]
  001d8	50		 push	 eax
  001d9	3b 46 08	 cmp	 eax, DWORD PTR [esi+8]
  001dc	74 0f		 je	 SHORT $LN48@LoadMapInf

; 687  :         _Alty_traits::construct(_Getal(), _Unfancy(_Mylast), _STD forward<_Valty>(_Val)...);

  001de	56		 push	 esi
  001df	e8 00 00 00 00	 call	 ??$construct@UTMapInfo@CMapManager@@ABU12@@?$_Default_allocator_traits@V?$allocator@UTMapInfo@CMapManager@@@std@@@std@@SAXAAV?$allocator@UTMapInfo@CMapManager@@@1@QAUTMapInfo@CMapManager@@ABU34@@Z ; std::_Default_allocator_traits<std::allocator<CMapManager::TMapInfo> >::construct<CMapManager::TMapInfo,CMapManager::TMapInfo const &>
  001e4	83 c4 0c	 add	 esp, 12			; 0000000cH

; 688  :         _Orphan_range(_Mylast, _Mylast);
; 689  :         _Ty& _Result = *_Mylast;
; 690  :         ++_Mylast;

  001e7	83 46 04 30	 add	 DWORD PTR [esi+4], 48	; 00000030H

; 705  :             return _Emplace_back_with_unused_capacity(_STD forward<_Valty>(_Val)...);

  001eb	eb 07		 jmp	 SHORT $LN47@LoadMapInf
$LN48@LoadMapInf:

; 706  :         }
; 707  : 
; 708  :         _Ty& _Result = *_Emplace_reallocate(_Mylast, _STD forward<_Valty>(_Val)...);

  001ed	8b ce		 mov	 ecx, esi
  001ef	e8 00 00 00 00	 call	 ??$_Emplace_reallocate@ABUTMapInfo@CMapManager@@@?$vector@UTMapInfo@CMapManager@@V?$allocator@UTMapInfo@CMapManager@@@std@@@std@@QAEPAUTMapInfo@CMapManager@@QAU23@ABU23@@Z ; std::vector<CMapManager::TMapInfo,std::allocator<CMapManager::TMapInfo> >::_Emplace_reallocate<CMapManager::TMapInfo const &>
$LN47@LoadMapInf:
; File C:\Program Files (x86)\Microsoft Visual Studio\2019\Community\VC\Tools\MSVC\14.27.29110\include\xstring

; 2153 :         return _BUF_SIZE <= _Myres;

  001f4	8b 85 d4 fe ff
	ff		 mov	 eax, DWORD PTR _kMapInfo$2[ebp+20]
; File C:\DS Project\DS Files\Source\ClientSource\Client\GameLib\MapManager.cpp

; 633  : 	}

  001fa	c6 45 fc 01	 mov	 BYTE PTR __$EHRec$[ebp+8], 1
; File C:\Program Files (x86)\Microsoft Visual Studio\2019\Community\VC\Tools\MSVC\14.27.29110\include\xstring

; 2153 :         return _BUF_SIZE <= _Myres;

  001fe	83 f8 10	 cmp	 eax, 16			; 00000010H

; 4301 :         if (_Mypair._Myval2._Large_string_engaged()) {

  00201	72 10		 jb	 SHORT $LN2@LoadMapInf

; 4302 :             const pointer _Ptr = _Mypair._Myval2._Bx._Ptr;
; 4303 :             auto& _Al          = _Getal();
; 4304 :             _Destroy_in_place(_Mypair._Myval2._Bx._Ptr);
; 4305 :             _Al.deallocate(_Ptr, _Mypair._Myval2._Myres + 1);

  00203	40		 inc	 eax
; File C:\Program Files (x86)\Microsoft Visual Studio\2019\Community\VC\Tools\MSVC\14.27.29110\include\xmemory

; 803  :         _Deallocate<_New_alignof<_Ty>>(_Ptr, sizeof(_Ty) * _Count);

  00204	50		 push	 eax
  00205	ff b5 c0 fe ff
	ff		 push	 DWORD PTR _kMapInfo$2[ebp]
  0020b	e8 00 00 00 00	 call	 ??$_Deallocate@$07$0A@@std@@YAXPAXI@Z ; std::_Deallocate<8,0>
  00210	83 c4 08	 add	 esp, 8
$LN2@LoadMapInf:
; File C:\DS Project\DS Files\Source\ClientSource\Client\GameLib\MapManager.cpp

; 611  : 	for (UINT uLineIndex=0; uLineIndex<textFileLoader.GetLineCount(); ++uLineIndex)

  00213	8d 8d 58 fd ff
	ff		 lea	 ecx, DWORD PTR _textFileLoader$[ebp]
  00219	47		 inc	 edi
  0021a	e8 00 00 00 00	 call	 ?GetLineCount@CMemoryTextFileLoader@@QAEKXZ ; CMemoryTextFileLoader::GetLineCount
  0021f	3b f8		 cmp	 edi, eax
  00221	0f 82 b9 fe ff
	ff		 jb	 $LL4@LoadMapInf
$LN3@LoadMapInf:

; 634  : 
; 635  : 	return;

  00227	8d 8d 58 fd ff
	ff		 lea	 ecx, DWORD PTR _textFileLoader$[ebp]
  0022d	e8 00 00 00 00	 call	 ??1CMemoryTextFileLoader@@UAE@XZ ; CMemoryTextFileLoader::~CMemoryTextFileLoader
$LN12@LoadMapInf:
  00232	8d 8d 7c fd ff
	ff		 lea	 ecx, DWORD PTR _kFile$[ebp]
  00238	e8 00 00 00 00	 call	 ??1CMappedFile@@UAE@XZ	; CMappedFile::~CMappedFile

; 636  : }

  0023d	8b 4d f4	 mov	 ecx, DWORD PTR __$EHRec$[ebp]
  00240	64 89 0d 00 00
	00 00		 mov	 DWORD PTR fs:0, ecx
  00247	59		 pop	 ecx
  00248	5f		 pop	 edi
  00249	5e		 pop	 esi
  0024a	5b		 pop	 ebx
  0024b	8b 4d f0	 mov	 ecx, DWORD PTR __$ArrayPad$[ebp]
  0024e	33 cd		 xor	 ecx, ebp
  00250	e8 00 00 00 00	 call	 @__security_check_cookie@4
  00255	8b e5		 mov	 esp, ebp
  00257	5d		 pop	 ebp
  00258	c3		 ret	 0
_TEXT	ENDS
;	COMDAT text$x
text$x	SEGMENT
__unwindfunclet$?__LoadMapInfoVector@CMapManager@@IAEXXZ$0:
  00000	8d 8d 7c fd ff
	ff		 lea	 ecx, DWORD PTR _kFile$[ebp]
  00006	e9 00 00 00 00	 jmp	 ??1CMappedFile@@UAE@XZ	; CMappedFile::~CMappedFile
__unwindfunclet$?__LoadMapInfoVector@CMapManager@@IAEXXZ$1:
  0000b	8d 8d 58 fd ff
	ff		 lea	 ecx, DWORD PTR _textFileLoader$[ebp]
  00011	e9 00 00 00 00	 jmp	 ??1CMemoryTextFileLoader@@UAE@XZ ; CMemoryTextFileLoader::~CMemoryTextFileLoader
__unwindfunclet$?__LoadMapInfoVector@CMapManager@@IAEXXZ$2:
  00016	8d 8d c0 fe ff
	ff		 lea	 ecx, DWORD PTR _kMapInfo$2[ebp]
  0001c	e9 00 00 00 00	 jmp	 ??1TMapInfo@CMapManager@@QAE@XZ
  00021	cc		 int	 3
  00022	cc		 int	 3
  00023	cc		 int	 3
  00024	cc		 int	 3
  00025	cc		 int	 3
__ehhandler$?__LoadMapInfoVector@CMapManager@@IAEXXZ:
  00026	90		 npad	 1
  00027	90		 npad	 1
  00028	8b 54 24 08	 mov	 edx, DWORD PTR [esp+8]
  0002c	8d 42 0c	 lea	 eax, DWORD PTR [edx+12]
  0002f	8b 8a 54 fd ff
	ff		 mov	 ecx, DWORD PTR [edx-684]
  00035	33 c8		 xor	 ecx, eax
  00037	e8 00 00 00 00	 call	 @__security_check_cookie@4
  0003c	8b 4a fc	 mov	 ecx, DWORD PTR [edx-4]
  0003f	33 c8		 xor	 ecx, eax
  00041	e8 00 00 00 00	 call	 @__security_check_cookie@4
  00046	b8 00 00 00 00	 mov	 eax, OFFSET __ehfuncinfo$?__LoadMapInfoVector@CMapManager@@IAEXXZ
  0004b	e9 00 00 00 00	 jmp	 ___CxxFrameHandler3
text$x	ENDS
?__LoadMapInfoVector@CMapManager@@IAEXXZ ENDP		; CMapManager::__LoadMapInfoVector
; Function compile flags: /Ogtp
; File C:\Program Files (x86)\Microsoft Visual Studio\2019\Community\VC\Tools\MSVC\14.27.29110\include\vector
;	COMDAT ?_Xlength@?$vector@UTMapInfo@CMapManager@@V?$allocator@UTMapInfo@CMapManager@@@std@@@std@@CAXXZ
_TEXT	SEGMENT
?_Xlength@?$vector@UTMapInfo@CMapManager@@V?$allocator@UTMapInfo@CMapManager@@@std@@@std@@CAXXZ PROC ; std::vector<CMapManager::TMapInfo,std::allocator<CMapManager::TMapInfo> >::_Xlength, COMDAT

; 1704 :         _Xlength_error("vector too long");

  00000	68 00 00 00 00	 push	 OFFSET ??_C@_0BA@FOIKENOD@vector?5too?5long@
  00005	e8 00 00 00 00	 call	 ?_Xlength_error@std@@YAXPBD@Z ; std::_Xlength_error
$LN3@Xlength:
  0000a	cc		 int	 3
?_Xlength@?$vector@UTMapInfo@CMapManager@@V?$allocator@UTMapInfo@CMapManager@@@std@@@std@@CAXXZ ENDP ; std::vector<CMapManager::TMapInfo,std::allocator<CMapManager::TMapInfo> >::_Xlength
_TEXT	ENDS
; Function compile flags: /Ogtp
; File C:\Program Files (x86)\Microsoft Visual Studio\2019\Community\VC\Tools\MSVC\14.27.29110\include\vector
;	COMDAT ?_Destroy@?$vector@UTMapInfo@CMapManager@@V?$allocator@UTMapInfo@CMapManager@@@std@@@std@@AAEXPAUTMapInfo@CMapManager@@0@Z
_TEXT	SEGMENT
__First$ = 8						; size = 4
__Last$ = 12						; size = 4
?_Destroy@?$vector@UTMapInfo@CMapManager@@V?$allocator@UTMapInfo@CMapManager@@@std@@@std@@AAEXPAUTMapInfo@CMapManager@@0@Z PROC ; std::vector<CMapManager::TMapInfo,std::allocator<CMapManager::TMapInfo> >::_Destroy, COMDAT
; _this$ = ecx

; 1611 :     void _Destroy(pointer _First, pointer _Last) { // destroy [_First, _Last) using allocator

  00000	55		 push	 ebp
  00001	8b ec		 mov	 ebp, esp

; 1612 :         _Destroy_range(_First, _Last, _Getal());

  00003	51		 push	 ecx
  00004	ff 75 0c	 push	 DWORD PTR __Last$[ebp]
  00007	ff 75 08	 push	 DWORD PTR __First$[ebp]
  0000a	e8 00 00 00 00	 call	 ??$_Destroy_range@V?$allocator@UTMapInfo@CMapManager@@@std@@@std@@YAXPAUTMapInfo@CMapManager@@QAU12@AAV?$allocator@UTMapInfo@CMapManager@@@0@@Z ; std::_Destroy_range<std::allocator<CMapManager::TMapInfo> >
  0000f	83 c4 0c	 add	 esp, 12			; 0000000cH

; 1613 :     }

  00012	5d		 pop	 ebp
  00013	c2 08 00	 ret	 8
?_Destroy@?$vector@UTMapInfo@CMapManager@@V?$allocator@UTMapInfo@CMapManager@@@std@@@std@@AAEXPAUTMapInfo@CMapManager@@0@Z ENDP ; std::vector<CMapManager::TMapInfo,std::allocator<CMapManager::TMapInfo> >::_Destroy
_TEXT	ENDS
; Function compile flags: /Ogtp
; File C:\Program Files (x86)\Microsoft Visual Studio\2019\Community\VC\Tools\MSVC\14.27.29110\include\xmemory
;	COMDAT ?deallocate@?$allocator@UTMapInfo@CMapManager@@@std@@QAEXQAUTMapInfo@CMapManager@@I@Z
_TEXT	SEGMENT
__Ptr$ = 8						; size = 4
__Count$ = 12						; size = 4
?deallocate@?$allocator@UTMapInfo@CMapManager@@@std@@QAEXQAUTMapInfo@CMapManager@@I@Z PROC ; std::allocator<CMapManager::TMapInfo>::deallocate, COMDAT
; _this$ = ecx

; 801  :     void deallocate(_Ty* const _Ptr, const size_t _Count) {

  00000	55		 push	 ebp
  00001	8b ec		 mov	 ebp, esp

; 802  :         // no overflow check on the following multiply; we assume _Allocate did that check
; 803  :         _Deallocate<_New_alignof<_Ty>>(_Ptr, sizeof(_Ty) * _Count);

  00003	8b 45 0c	 mov	 eax, DWORD PTR __Count$[ebp]
  00006	8d 04 40	 lea	 eax, DWORD PTR [eax+eax*2]
  00009	c1 e0 04	 shl	 eax, 4
  0000c	50		 push	 eax
  0000d	ff 75 08	 push	 DWORD PTR __Ptr$[ebp]
  00010	e8 00 00 00 00	 call	 ??$_Deallocate@$07$0A@@std@@YAXPAXI@Z ; std::_Deallocate<8,0>
  00015	83 c4 08	 add	 esp, 8

; 804  :     }

  00018	5d		 pop	 ebp
  00019	c2 08 00	 ret	 8
?deallocate@?$allocator@UTMapInfo@CMapManager@@@std@@QAEXQAUTMapInfo@CMapManager@@I@Z ENDP ; std::allocator<CMapManager::TMapInfo>::deallocate
_TEXT	ENDS
; Function compile flags: /Ogtp
; File C:\Program Files (x86)\Microsoft Visual Studio\2019\Community\VC\Tools\MSVC\14.27.29110\include\xstring
; File C:\Program Files (x86)\Microsoft Visual Studio\2019\Community\VC\Tools\MSVC\14.27.29110\include\xmemory
; File C:\Program Files (x86)\Microsoft Visual Studio\2019\Community\VC\Tools\MSVC\14.27.29110\include\xstring
;	COMDAT ??1TMapInfo@CMapManager@@QAE@XZ
_TEXT	SEGMENT
??1TMapInfo@CMapManager@@QAE@XZ PROC			; CMapManager::TMapInfo::~TMapInfo, COMDAT
; _this$ = ecx

; 2153 :         return _BUF_SIZE <= _Myres;

  00000	56		 push	 esi
  00001	8b f1		 mov	 esi, ecx
  00003	8b 46 14	 mov	 eax, DWORD PTR [esi+20]
  00006	83 f8 10	 cmp	 eax, 16			; 00000010H

; 4301 :         if (_Mypair._Myval2._Large_string_engaged()) {

  00009	72 0c		 jb	 SHORT $LN7@TMapInfo

; 4302 :             const pointer _Ptr = _Mypair._Myval2._Bx._Ptr;
; 4303 :             auto& _Al          = _Getal();
; 4304 :             _Destroy_in_place(_Mypair._Myval2._Bx._Ptr);
; 4305 :             _Al.deallocate(_Ptr, _Mypair._Myval2._Myres + 1);

  0000b	40		 inc	 eax
; File C:\Program Files (x86)\Microsoft Visual Studio\2019\Community\VC\Tools\MSVC\14.27.29110\include\xmemory

; 803  :         _Deallocate<_New_alignof<_Ty>>(_Ptr, sizeof(_Ty) * _Count);

  0000c	50		 push	 eax
  0000d	ff 36		 push	 DWORD PTR [esi]
  0000f	e8 00 00 00 00	 call	 ??$_Deallocate@$07$0A@@std@@YAXPAXI@Z ; std::_Deallocate<8,0>
  00014	83 c4 08	 add	 esp, 8
$LN7@TMapInfo:
; File C:\Program Files (x86)\Microsoft Visual Studio\2019\Community\VC\Tools\MSVC\14.27.29110\include\xstring

; 4308 :         _Mypair._Myval2._Mysize = 0;

  00017	c7 46 10 00 00
	00 00		 mov	 DWORD PTR [esi+16], 0

; 4309 :         _Mypair._Myval2._Myres  = _BUF_SIZE - 1;

  0001e	c7 46 14 0f 00
	00 00		 mov	 DWORD PTR [esi+20], 15	; 0000000fH

; 4310 :         // the _Traits::assign is last so the codegen doesn't think the char write can alias this
; 4311 :         _Traits::assign(_Mypair._Myval2._Bx._Buf[0], _Elem());

  00025	c6 06 00	 mov	 BYTE PTR [esi], 0
  00028	5e		 pop	 esi
  00029	c3		 ret	 0
??1TMapInfo@CMapManager@@QAE@XZ ENDP			; CMapManager::TMapInfo::~TMapInfo
_TEXT	ENDS
; Function compile flags: /Ogtp
; File C:\DS Project\DS Files\Source\ClientSource\Client\GameLib\MapManager.cpp
;	COMDAT ?SetTransparentTree@CMapManager@@QAEX_N@Z
_TEXT	SEGMENT
_bTransparenTree$ = 8					; size = 1
?SetTransparentTree@CMapManager@@QAEX_N@Z PROC		; CMapManager::SetTransparentTree, COMDAT
; _this$ = ecx

; 568  : {

  00000	55		 push	 ebp
  00001	8b ec		 mov	 ebp, esp
  00003	56		 push	 esi
  00004	8b f1		 mov	 esi, ecx

; 569  : 	if (!IsMapReady())

  00006	e8 00 00 00 00	 call	 ?IsMapReady@CMapManager@@QAE_NXZ ; CMapManager::IsMapReady
  0000b	84 c0		 test	 al, al
  0000d	74 10		 je	 SHORT $LN1@SetTranspa

; 570  : 		return;
; 571  : 
; 572  : 	CMapOutdoor& rkMap=GetMapOutdoorRef();

  0000f	8b ce		 mov	 ecx, esi
  00011	e8 00 00 00 00	 call	 ?GetMapOutdoorRef@CMapManager@@QAEAAVCMapOutdoor@@XZ ; CMapManager::GetMapOutdoorRef

; 573  : 	rkMap.SetTransparentTree(bTransparenTree);

  00016	8a 4d 08	 mov	 cl, BYTE PTR _bTransparenTree$[ebp]
  00019	88 88 b5 0e 00
	00		 mov	 BYTE PTR [eax+3765], cl
$LN1@SetTranspa:
  0001f	5e		 pop	 esi

; 574  : }

  00020	5d		 pop	 ebp
  00021	c2 04 00	 ret	 4
?SetTransparentTree@CMapManager@@QAEX_N@Z ENDP		; CMapManager::SetTransparentTree
_TEXT	ENDS
; Function compile flags: /Ogtp
; File C:\DS Project\DS Files\Source\ClientSource\Client\GameLib\MapManager.cpp
;	COMDAT ?GetBaseXY@CMapManager@@QAEXPAK0@Z
_TEXT	SEGMENT
_pdwBaseX$ = 8						; size = 4
_pdwBaseY$ = 12						; size = 4
?GetBaseXY@CMapManager@@QAEXPAK0@Z PROC			; CMapManager::GetBaseXY, COMDAT
; _this$ = ecx

; 586  : {

  00000	55		 push	 ebp
  00001	8b ec		 mov	 ebp, esp
  00003	53		 push	 ebx
  00004	56		 push	 esi
  00005	57		 push	 edi
  00006	8b d9		 mov	 ebx, ecx

; 587  : 	if (!IsMapReady())

  00008	e8 00 00 00 00	 call	 ?IsMapReady@CMapManager@@QAE_NXZ ; CMapManager::IsMapReady
  0000d	8b 75 0c	 mov	 esi, DWORD PTR _pdwBaseY$[ebp]
  00010	8b 7d 08	 mov	 edi, DWORD PTR _pdwBaseX$[ebp]
  00013	84 c0		 test	 al, al
  00015	75 0c		 jne	 SHORT $LN2@GetBaseXY

; 588  : 	{
; 589  : 		*pdwBaseX = 0;

  00017	c7 07 00 00 00
	00		 mov	 DWORD PTR [edi], 0

; 590  : 		*pdwBaseY = 0;

  0001d	c7 06 00 00 00
	00		 mov	 DWORD PTR [esi], 0
$LN2@GetBaseXY:

; 591  : 	}
; 592  : 
; 593  : 	CMapOutdoor& rkMap=GetMapOutdoorRef();

  00023	8b cb		 mov	 ecx, ebx
  00025	e8 00 00 00 00	 call	 ?GetMapOutdoorRef@CMapManager@@QAEAAVCMapOutdoor@@XZ ; CMapManager::GetMapOutdoorRef

; 594  : 	rkMap.GetBaseXY(pdwBaseX, pdwBaseY);

  0002a	56		 push	 esi
  0002b	57		 push	 edi
  0002c	8b c8		 mov	 ecx, eax
  0002e	e8 00 00 00 00	 call	 ?GetBaseXY@CMapOutdoor@@QAEXPAK0@Z ; CMapOutdoor::GetBaseXY
  00033	5f		 pop	 edi
  00034	5e		 pop	 esi
  00035	5b		 pop	 ebx

; 595  : }

  00036	5d		 pop	 ebp
  00037	c2 08 00	 ret	 8
?GetBaseXY@CMapManager@@QAEXPAK0@Z ENDP			; CMapManager::GetBaseXY
_TEXT	ENDS
; Function compile flags: /Ogtp
; File C:\DS Project\DS Files\Source\ClientSource\Client\GameLib\MapManager.cpp
;	COMDAT ?GetTerrainRenderSort@CMapManager@@QAE?AW4ETerrainRenderSort@CMapOutdoor@@XZ
_TEXT	SEGMENT
?GetTerrainRenderSort@CMapManager@@QAE?AW4ETerrainRenderSort@CMapOutdoor@@XZ PROC ; CMapManager::GetTerrainRenderSort, COMDAT
; _this$ = ecx

; 577  : {

  00000	56		 push	 esi
  00001	8b f1		 mov	 esi, ecx

; 578  : 	if (!IsMapReady())

  00003	e8 00 00 00 00	 call	 ?IsMapReady@CMapManager@@QAE_NXZ ; CMapManager::IsMapReady
  00008	84 c0		 test	 al, al
  0000a	75 04		 jne	 SHORT $LN2@GetTerrain

; 579  : 		return CMapOutdoor::DISTANCE_SORT;

  0000c	33 c0		 xor	 eax, eax
  0000e	5e		 pop	 esi

; 583  : }

  0000f	c3		 ret	 0
$LN2@GetTerrain:

; 580  : 
; 581  : 	CMapOutdoor& rkMap=GetMapOutdoorRef();

  00010	8b ce		 mov	 ecx, esi
  00012	e8 00 00 00 00	 call	 ?GetMapOutdoorRef@CMapManager@@QAEAAVCMapOutdoor@@XZ ; CMapManager::GetMapOutdoorRef
  00017	5e		 pop	 esi

; 582  : 	return rkMap.GetTerrainRenderSort();

  00018	8b 80 e8 0d 00
	00		 mov	 eax, DWORD PTR [eax+3560]

; 583  : }

  0001e	c3		 ret	 0
?GetTerrainRenderSort@CMapManager@@QAE?AW4ETerrainRenderSort@CMapOutdoor@@XZ ENDP ; CMapManager::GetTerrainRenderSort
_TEXT	ENDS
; Function compile flags: /Ogtp
; File C:\DS Project\DS Files\Source\ClientSource\Client\GameLib\MapManager.cpp
;	COMDAT ?SetTerrainRenderSort@CMapManager@@QAEXW4ETerrainRenderSort@CMapOutdoor@@@Z
_TEXT	SEGMENT
_eTerrainRenderSort$ = 8				; size = 4
?SetTerrainRenderSort@CMapManager@@QAEXW4ETerrainRenderSort@CMapOutdoor@@@Z PROC ; CMapManager::SetTerrainRenderSort, COMDAT
; _this$ = ecx

; 559  : {

  00000	55		 push	 ebp
  00001	8b ec		 mov	 ebp, esp
  00003	56		 push	 esi
  00004	8b f1		 mov	 esi, ecx

; 560  : 	if (!IsMapReady())

  00006	e8 00 00 00 00	 call	 ?IsMapReady@CMapManager@@QAE_NXZ ; CMapManager::IsMapReady
  0000b	84 c0		 test	 al, al
  0000d	74 10		 je	 SHORT $LN1@SetTerrain

; 561  : 		return;
; 562  : 
; 563  : 	CMapOutdoor& rkMap=GetMapOutdoorRef();

  0000f	8b ce		 mov	 ecx, esi
  00011	e8 00 00 00 00	 call	 ?GetMapOutdoorRef@CMapManager@@QAEAAVCMapOutdoor@@XZ ; CMapManager::GetMapOutdoorRef

; 564  : 	rkMap.SetTerrainRenderSort(eTerrainRenderSort);

  00016	8b 4d 08	 mov	 ecx, DWORD PTR _eTerrainRenderSort$[ebp]
  00019	89 88 e8 0d 00
	00		 mov	 DWORD PTR [eax+3560], ecx
$LN1@SetTerrain:
  0001f	5e		 pop	 esi

; 565  : }

  00020	5d		 pop	 ebp
  00021	c2 04 00	 ret	 4
?SetTerrainRenderSort@CMapManager@@QAEXW4ETerrainRenderSort@CMapOutdoor@@@Z ENDP ; CMapManager::SetTerrainRenderSort
_TEXT	ENDS
; Function compile flags: /Ogtp
;	COMDAT ??1?$map@KPAUSEnvironmentData@@U?$less@K@std@@V?$allocator@U?$pair@$$CBKPAUSEnvironmentData@@@std@@@3@@std@@QAE@XZ
_TEXT	SEGMENT
??1?$map@KPAUSEnvironmentData@@U?$less@K@std@@V?$allocator@U?$pair@$$CBKPAUSEnvironmentData@@@std@@@3@@std@@QAE@XZ PROC ; std::map<unsigned long,SEnvironmentData *,std::less<unsigned long>,std::allocator<std::pair<unsigned long const ,SEnvironmentData *> > >::~map<unsigned long,SEnvironmentData *,std::less<unsigned long>,std::allocator<std::pair<unsigned long const ,SEnvironmentData *> > >, COMDAT
; _this$ = ecx
  00000	e9 00 00 00 00	 jmp	 ??1?$_Tree@V?$_Tmap_traits@KPAUSEnvironmentData@@U?$less@K@std@@V?$allocator@U?$pair@$$CBKPAUSEnvironmentData@@@std@@@3@$0A@@std@@@std@@QAE@XZ ; std::_Tree<std::_Tmap_traits<unsigned long,SEnvironmentData *,std::less<unsigned long>,std::allocator<std::pair<unsigned long const ,SEnvironmentData *> >,0> >::~_Tree<std::_Tmap_traits<unsigned long,SEnvironmentData *,std::less<unsigned long>,std::allocator<std::pair<unsigned long const ,SEnvironmentData *> >,0> >
??1?$map@KPAUSEnvironmentData@@U?$less@K@std@@V?$allocator@U?$pair@$$CBKPAUSEnvironmentData@@@std@@@3@@std@@QAE@XZ ENDP ; std::map<unsigned long,SEnvironmentData *,std::less<unsigned long>,std::allocator<std::pair<unsigned long const ,SEnvironmentData *> > >::~map<unsigned long,SEnvironmentData *,std::less<unsigned long>,std::allocator<std::pair<unsigned long const ,SEnvironmentData *> > >
_TEXT	ENDS
; Function compile flags: /Ogtp
; File C:\Program Files (x86)\Microsoft Visual Studio\2019\Community\VC\Tools\MSVC\14.27.29110\include\xtree
;	COMDAT ?_Insert_node@?$_Tree_val@U?$_Tree_simple_types@U?$pair@$$CBKPAUSEnvironmentData@@@std@@@std@@@std@@QAEPAU?$_Tree_node@U?$pair@$$CBKPAUSEnvironmentData@@@std@@PAX@2@U?$_Tree_id@PAU?$_Tree_node@U?$pair@$$CBKPAUSEnvironmentData@@@std@@PAX@std@@@2@QAU32@@Z
_TEXT	SEGMENT
__Head$1$ = -8						; size = 4
_this$1$ = -4						; size = 4
__Loc$ = 8						; size = 8
__Newnode$ = 16						; size = 4
?_Insert_node@?$_Tree_val@U?$_Tree_simple_types@U?$pair@$$CBKPAUSEnvironmentData@@@std@@@std@@@std@@QAEPAU?$_Tree_node@U?$pair@$$CBKPAUSEnvironmentData@@@std@@PAX@2@U?$_Tree_id@PAU?$_Tree_node@U?$pair@$$CBKPAUSEnvironmentData@@@std@@PAX@std@@@2@QAU32@@Z PROC ; std::_Tree_val<std::_Tree_simple_types<std::pair<unsigned long const ,SEnvironmentData *> > >::_Insert_node, COMDAT
; _this$ = ecx

; 644  :     _Nodeptr _Insert_node(const _Tree_id<_Nodeptr> _Loc, const _Nodeptr _Newnode) noexcept {

  00000	55		 push	 ebp
  00001	8b ec		 mov	 ebp, esp
  00003	83 ec 08	 sub	 esp, 8

; 645  :         ++_Mysize;
; 646  :         const auto _Head  = _Myhead;
; 647  :         _Newnode->_Parent = _Loc._Parent;

  00006	8b 55 08	 mov	 edx, DWORD PTR __Loc$[ebp]
  00009	8b c1		 mov	 eax, ecx
  0000b	89 45 fc	 mov	 DWORD PTR _this$1$[ebp], eax
  0000e	8b 08		 mov	 ecx, DWORD PTR [eax]
  00010	ff 40 04	 inc	 DWORD PTR [eax+4]
  00013	8b 45 10	 mov	 eax, DWORD PTR __Newnode$[ebp]
  00016	89 4d f8	 mov	 DWORD PTR __Head$1$[ebp], ecx
  00019	89 50 04	 mov	 DWORD PTR [eax+4], edx

; 648  :         if (_Loc._Parent == _Head) { // first node in tree, just set head values

  0001c	3b d1		 cmp	 edx, ecx
  0001e	75 12		 jne	 SHORT $LN5@Insert_nod

; 649  :             _Head->_Left     = _Newnode;

  00020	89 01		 mov	 DWORD PTR [ecx], eax

; 650  :             _Head->_Parent   = _Newnode;

  00022	89 41 04	 mov	 DWORD PTR [ecx+4], eax

; 651  :             _Head->_Right    = _Newnode;

  00025	89 41 08	 mov	 DWORD PTR [ecx+8], eax

; 652  :             _Newnode->_Color = _Black; // the root is black

  00028	c6 40 0c 01	 mov	 BYTE PTR [eax+12], 1

; 711  :     }

  0002c	8b e5		 mov	 esp, ebp
  0002e	5d		 pop	 ebp
  0002f	c2 0c 00	 ret	 12			; 0000000cH
$LN5@Insert_nod:

; 653  :             return _Newnode;
; 654  :         }
; 655  : 
; 656  :         _STL_INTERNAL_CHECK(_Loc._Child != _Tree_child::_Unused);
; 657  :         if (_Loc._Child == _Tree_child::_Right) { // add to right of _Loc._Parent

  00032	83 7d 0c 00	 cmp	 DWORD PTR __Loc$[ebp+4], 0
  00036	75 0d		 jne	 SHORT $LN6@Insert_nod

; 658  :             _STL_INTERNAL_CHECK(_Loc._Parent->_Right->_Isnil);
; 659  :             _Loc._Parent->_Right = _Newnode;

  00038	89 42 08	 mov	 DWORD PTR [edx+8], eax

; 660  :             if (_Loc._Parent == _Head->_Right) { // remember rightmost node

  0003b	3b 51 08	 cmp	 edx, DWORD PTR [ecx+8]
  0003e	75 0d		 jne	 SHORT $LN9@Insert_nod

; 661  :                 _Head->_Right = _Newnode;

  00040	89 41 08	 mov	 DWORD PTR [ecx+8], eax

; 662  :             }
; 663  :         } else { // add to left of _Loc._Parent

  00043	eb 08		 jmp	 SHORT $LN9@Insert_nod
$LN6@Insert_nod:

; 664  :             _STL_INTERNAL_CHECK(_Loc._Parent->_Left->_Isnil);
; 665  :             _Loc._Parent->_Left = _Newnode;

  00045	89 02		 mov	 DWORD PTR [edx], eax

; 666  :             if (_Loc._Parent == _Head->_Left) { // remember leftmost node

  00047	3b 11		 cmp	 edx, DWORD PTR [ecx]
  00049	75 02		 jne	 SHORT $LN9@Insert_nod

; 667  :                 _Head->_Left = _Newnode;

  0004b	89 01		 mov	 DWORD PTR [ecx], eax
$LN9@Insert_nod:

; 668  :             }
; 669  :         }
; 670  : 
; 671  :         for (_Nodeptr _Pnode = _Newnode; _Pnode->_Parent->_Color == _Red;) {

  0004d	8b d0		 mov	 edx, eax
  0004f	8b 40 04	 mov	 eax, DWORD PTR [eax+4]
  00052	80 78 0c 00	 cmp	 BYTE PTR [eax+12], 0
  00056	0f 85 99 01 00
	00		 jne	 $LN3@Insert_nod
  0005c	53		 push	 ebx
  0005d	56		 push	 esi
  0005e	57		 push	 edi
  0005f	90		 npad	 1
$LL2@Insert_nod:

; 672  :             if (_Pnode->_Parent == _Pnode->_Parent->_Parent->_Left) { // fixup red-red in left subtree

  00060	8b 4a 04	 mov	 ecx, DWORD PTR [edx+4]
  00063	8d 7a 04	 lea	 edi, DWORD PTR [edx+4]
  00066	8b 71 04	 mov	 esi, DWORD PTR [ecx+4]
  00069	8d 59 04	 lea	 ebx, DWORD PTR [ecx+4]
  0006c	8b 06		 mov	 eax, DWORD PTR [esi]
  0006e	3b c8		 cmp	 ecx, eax
  00070	0f 85 ba 00 00
	00		 jne	 $LN10@Insert_nod

; 673  :                 const auto _Parent_sibling = _Pnode->_Parent->_Parent->_Right;

  00076	8b 46 08	 mov	 eax, DWORD PTR [esi+8]

; 674  :                 if (_Parent_sibling->_Color == _Red) { // parent's sibling has two red children, blacken both

  00079	80 78 0c 00	 cmp	 BYTE PTR [eax+12], 0
  0007d	0f 84 b3 00 00
	00		 je	 $LN53@Insert_nod

; 675  :                     _Pnode->_Parent->_Color          = _Black;
; 676  :                     _Parent_sibling->_Color          = _Black;
; 677  :                     _Pnode->_Parent->_Parent->_Color = _Red;
; 678  :                     _Pnode                           = _Pnode->_Parent->_Parent;
; 679  :                 } else { // parent's sibling has red and black children
; 680  :                     if (_Pnode == _Pnode->_Parent->_Right) { // rotate right child to left

  00083	8b 71 08	 mov	 esi, DWORD PTR [ecx+8]
  00086	3b d6		 cmp	 edx, esi
  00088	75 47		 jne	 SHORT $LN51@Insert_nod

; 460  :         _Wherenode->_Right = _Pnode->_Left;

  0008a	8b 06		 mov	 eax, DWORD PTR [esi]

; 681  :                         _Pnode = _Pnode->_Parent;

  0008c	8b d1		 mov	 edx, ecx

; 460  :         _Wherenode->_Right = _Pnode->_Left;

  0008e	89 42 08	 mov	 DWORD PTR [edx+8], eax

; 461  : 
; 462  :         if (!_Pnode->_Left->_Isnil) {

  00091	8b 06		 mov	 eax, DWORD PTR [esi]
  00093	80 78 0d 00	 cmp	 BYTE PTR [eax+13], 0
  00097	75 03		 jne	 SHORT $LN20@Insert_nod

; 463  :             _Pnode->_Left->_Parent = _Wherenode;

  00099	89 50 04	 mov	 DWORD PTR [eax+4], edx
$LN20@Insert_nod:

; 464  :         }
; 465  : 
; 466  :         _Pnode->_Parent = _Wherenode->_Parent;

  0009c	8b 03		 mov	 eax, DWORD PTR [ebx]
  0009e	89 46 04	 mov	 DWORD PTR [esi+4], eax

; 467  : 
; 468  :         if (_Wherenode == _Myhead->_Parent) {

  000a1	8b 45 fc	 mov	 eax, DWORD PTR _this$1$[ebp]
  000a4	8b 00		 mov	 eax, DWORD PTR [eax]
  000a6	3b 50 04	 cmp	 edx, DWORD PTR [eax+4]
  000a9	75 0b		 jne	 SHORT $LN21@Insert_nod

; 469  :             _Myhead->_Parent = _Pnode;

  000ab	89 70 04	 mov	 DWORD PTR [eax+4], esi

; 477  :         _Wherenode->_Parent = _Pnode;

  000ae	8b fb		 mov	 edi, ebx
  000b0	89 16		 mov	 DWORD PTR [esi], edx
  000b2	89 33		 mov	 DWORD PTR [ebx], esi
  000b4	eb 1d		 jmp	 SHORT $LN49@Insert_nod
$LN21@Insert_nod:

; 470  :         } else if (_Wherenode == _Wherenode->_Parent->_Left) {

  000b6	8b 03		 mov	 eax, DWORD PTR [ebx]
  000b8	3b 10		 cmp	 edx, DWORD PTR [eax]
  000ba	75 0a		 jne	 SHORT $LN23@Insert_nod

; 471  :             _Wherenode->_Parent->_Left = _Pnode;

  000bc	89 30		 mov	 DWORD PTR [eax], esi

; 477  :         _Wherenode->_Parent = _Pnode;

  000be	8b fb		 mov	 edi, ebx
  000c0	89 16		 mov	 DWORD PTR [esi], edx
  000c2	89 33		 mov	 DWORD PTR [ebx], esi
  000c4	eb 0d		 jmp	 SHORT $LN49@Insert_nod
$LN23@Insert_nod:

; 473  :             _Wherenode->_Parent->_Right = _Pnode;

  000c6	89 70 08	 mov	 DWORD PTR [eax+8], esi

; 477  :         _Wherenode->_Parent = _Pnode;

  000c9	8b fb		 mov	 edi, ebx
  000cb	89 16		 mov	 DWORD PTR [esi], edx
  000cd	89 33		 mov	 DWORD PTR [ebx], esi
  000cf	eb 02		 jmp	 SHORT $LN49@Insert_nod
$LN51@Insert_nod:
  000d1	8b f1		 mov	 esi, ecx
$LN49@Insert_nod:

; 682  :                         _Lrotate(_Pnode);
; 683  :                     }
; 684  : 
; 685  :                     _Pnode->_Parent->_Color          = _Black; // propagate red up

  000d3	c6 46 0c 01	 mov	 BYTE PTR [esi+12], 1

; 686  :                     _Pnode->_Parent->_Parent->_Color = _Red;

  000d7	8b 07		 mov	 eax, DWORD PTR [edi]
  000d9	8b 40 04	 mov	 eax, DWORD PTR [eax+4]
  000dc	c6 40 0c 00	 mov	 BYTE PTR [eax+12], 0

; 687  :                     _Rrotate(_Pnode->_Parent->_Parent);

  000e0	8b 07		 mov	 eax, DWORD PTR [edi]
  000e2	8b 48 04	 mov	 ecx, DWORD PTR [eax+4]

; 481  :         _Nodeptr _Pnode   = _Wherenode->_Left;

  000e5	8b 31		 mov	 esi, DWORD PTR [ecx]

; 482  :         _Wherenode->_Left = _Pnode->_Right;

  000e7	8b 46 08	 mov	 eax, DWORD PTR [esi+8]
  000ea	89 01		 mov	 DWORD PTR [ecx], eax

; 483  : 
; 484  :         if (!_Pnode->_Right->_Isnil) {

  000ec	8b 46 08	 mov	 eax, DWORD PTR [esi+8]
  000ef	80 78 0d 00	 cmp	 BYTE PTR [eax+13], 0
  000f3	75 03		 jne	 SHORT $LN27@Insert_nod

; 485  :             _Pnode->_Right->_Parent = _Wherenode;

  000f5	89 48 04	 mov	 DWORD PTR [eax+4], ecx
$LN27@Insert_nod:

; 486  :         }
; 487  : 
; 488  :         _Pnode->_Parent = _Wherenode->_Parent;

  000f8	8b 41 04	 mov	 eax, DWORD PTR [ecx+4]
  000fb	89 46 04	 mov	 DWORD PTR [esi+4], eax

; 489  : 
; 490  :         if (_Wherenode == _Myhead->_Parent) {

  000fe	8b 45 fc	 mov	 eax, DWORD PTR _this$1$[ebp]
  00101	8b 00		 mov	 eax, DWORD PTR [eax]
  00103	3b 48 04	 cmp	 ecx, DWORD PTR [eax+4]
  00106	75 0b		 jne	 SHORT $LN28@Insert_nod

; 491  :             _Myhead->_Parent = _Pnode;

  00108	89 70 04	 mov	 DWORD PTR [eax+4], esi

; 496  :         }
; 497  : 
; 498  :         _Pnode->_Right      = _Wherenode;

  0010b	89 4e 08	 mov	 DWORD PTR [esi+8], ecx

; 688  :                 }
; 689  :             } else { // fixup red-red in right subtree

  0010e	e9 cc 00 00 00	 jmp	 $LN52@Insert_nod
$LN28@Insert_nod:

; 492  :         } else if (_Wherenode == _Wherenode->_Parent->_Right) {

  00113	8b 41 04	 mov	 eax, DWORD PTR [ecx+4]
  00116	3b 48 08	 cmp	 ecx, DWORD PTR [eax+8]
  00119	75 0b		 jne	 SHORT $LN30@Insert_nod

; 493  :             _Wherenode->_Parent->_Right = _Pnode;

  0011b	89 70 08	 mov	 DWORD PTR [eax+8], esi

; 496  :         }
; 497  : 
; 498  :         _Pnode->_Right      = _Wherenode;

  0011e	89 4e 08	 mov	 DWORD PTR [esi+8], ecx

; 688  :                 }
; 689  :             } else { // fixup red-red in right subtree

  00121	e9 b9 00 00 00	 jmp	 $LN52@Insert_nod
$LN30@Insert_nod:

; 495  :             _Wherenode->_Parent->_Left = _Pnode;

  00126	89 30		 mov	 DWORD PTR [eax], esi

; 496  :         }
; 497  : 
; 498  :         _Pnode->_Right      = _Wherenode;

  00128	89 4e 08	 mov	 DWORD PTR [esi+8], ecx

; 688  :                 }
; 689  :             } else { // fixup red-red in right subtree

  0012b	e9 af 00 00 00	 jmp	 $LN52@Insert_nod
$LN10@Insert_nod:

; 690  :                 const auto _Parent_sibling = _Pnode->_Parent->_Parent->_Left;
; 691  :                 if (_Parent_sibling->_Color == _Red) { // parent's sibling has two red children, blacken both

  00130	80 78 0c 00	 cmp	 BYTE PTR [eax+12], 0
  00134	75 1b		 jne	 SHORT $LN15@Insert_nod
$LN53@Insert_nod:

; 668  :             }
; 669  :         }
; 670  : 
; 671  :         for (_Nodeptr _Pnode = _Newnode; _Pnode->_Parent->_Color == _Red;) {

  00136	c6 41 0c 01	 mov	 BYTE PTR [ecx+12], 1
  0013a	c6 40 0c 01	 mov	 BYTE PTR [eax+12], 1
  0013e	8b 07		 mov	 eax, DWORD PTR [edi]
  00140	8b 40 04	 mov	 eax, DWORD PTR [eax+4]
  00143	c6 40 0c 00	 mov	 BYTE PTR [eax+12], 0
  00147	8b 07		 mov	 eax, DWORD PTR [edi]
  00149	8b 50 04	 mov	 edx, DWORD PTR [eax+4]
  0014c	e9 91 00 00 00	 jmp	 $LN46@Insert_nod
$LN15@Insert_nod:

; 692  :                     _Pnode->_Parent->_Color          = _Black;
; 693  :                     _Parent_sibling->_Color          = _Black;
; 694  :                     _Pnode->_Parent->_Parent->_Color = _Red;
; 695  :                     _Pnode                           = _Pnode->_Parent->_Parent;
; 696  :                 } else { // parent's sibling has red and black children
; 697  :                     if (_Pnode == _Pnode->_Parent->_Left) { // rotate left child to right

  00151	8b 01		 mov	 eax, DWORD PTR [ecx]
  00153	3b d0		 cmp	 edx, eax
  00155	75 3e		 jne	 SHORT $LN39@Insert_nod

; 698  :                         _Pnode = _Pnode->_Parent;

  00157	8b d1		 mov	 edx, ecx

; 481  :         _Nodeptr _Pnode   = _Wherenode->_Left;

  00159	8b c8		 mov	 ecx, eax

; 482  :         _Wherenode->_Left = _Pnode->_Right;

  0015b	8b 41 08	 mov	 eax, DWORD PTR [ecx+8]
  0015e	89 02		 mov	 DWORD PTR [edx], eax

; 483  : 
; 484  :         if (!_Pnode->_Right->_Isnil) {

  00160	8b 41 08	 mov	 eax, DWORD PTR [ecx+8]
  00163	80 78 0d 00	 cmp	 BYTE PTR [eax+13], 0
  00167	75 03		 jne	 SHORT $LN34@Insert_nod

; 485  :             _Pnode->_Right->_Parent = _Wherenode;

  00169	89 50 04	 mov	 DWORD PTR [eax+4], edx
$LN34@Insert_nod:

; 486  :         }
; 487  : 
; 488  :         _Pnode->_Parent = _Wherenode->_Parent;

  0016c	8b 03		 mov	 eax, DWORD PTR [ebx]
  0016e	89 41 04	 mov	 DWORD PTR [ecx+4], eax

; 489  : 
; 490  :         if (_Wherenode == _Myhead->_Parent) {

  00171	8b 45 fc	 mov	 eax, DWORD PTR _this$1$[ebp]
  00174	8b 00		 mov	 eax, DWORD PTR [eax]
  00176	3b 50 04	 cmp	 edx, DWORD PTR [eax+4]
  00179	75 05		 jne	 SHORT $LN35@Insert_nod

; 491  :             _Myhead->_Parent = _Pnode;

  0017b	89 48 04	 mov	 DWORD PTR [eax+4], ecx
  0017e	eb 0e		 jmp	 SHORT $LN38@Insert_nod
$LN35@Insert_nod:

; 492  :         } else if (_Wherenode == _Wherenode->_Parent->_Right) {

  00180	8b 03		 mov	 eax, DWORD PTR [ebx]
  00182	3b 50 08	 cmp	 edx, DWORD PTR [eax+8]
  00185	75 05		 jne	 SHORT $LN37@Insert_nod

; 493  :             _Wherenode->_Parent->_Right = _Pnode;

  00187	89 48 08	 mov	 DWORD PTR [eax+8], ecx

; 494  :         } else {

  0018a	eb 02		 jmp	 SHORT $LN38@Insert_nod
$LN37@Insert_nod:

; 495  :             _Wherenode->_Parent->_Left = _Pnode;

  0018c	89 08		 mov	 DWORD PTR [eax], ecx
$LN38@Insert_nod:

; 496  :         }
; 497  : 
; 498  :         _Pnode->_Right      = _Wherenode;

  0018e	89 51 08	 mov	 DWORD PTR [ecx+8], edx

; 499  :         _Wherenode->_Parent = _Pnode;

  00191	8b fb		 mov	 edi, ebx
  00193	89 0b		 mov	 DWORD PTR [ebx], ecx
$LN39@Insert_nod:

; 699  :                         _Rrotate(_Pnode);
; 700  :                     }
; 701  : 
; 702  :                     _Pnode->_Parent->_Color          = _Black; // propagate red up

  00195	c6 41 0c 01	 mov	 BYTE PTR [ecx+12], 1

; 703  :                     _Pnode->_Parent->_Parent->_Color = _Red;

  00199	8b 07		 mov	 eax, DWORD PTR [edi]
  0019b	8b 40 04	 mov	 eax, DWORD PTR [eax+4]
  0019e	c6 40 0c 00	 mov	 BYTE PTR [eax+12], 0

; 704  :                     _Lrotate(_Pnode->_Parent->_Parent);

  001a2	8b 07		 mov	 eax, DWORD PTR [edi]
  001a4	8b 48 04	 mov	 ecx, DWORD PTR [eax+4]

; 459  :         _Nodeptr _Pnode    = _Wherenode->_Right;

  001a7	8b 71 08	 mov	 esi, DWORD PTR [ecx+8]

; 460  :         _Wherenode->_Right = _Pnode->_Left;

  001aa	8b 06		 mov	 eax, DWORD PTR [esi]
  001ac	89 41 08	 mov	 DWORD PTR [ecx+8], eax

; 461  : 
; 462  :         if (!_Pnode->_Left->_Isnil) {

  001af	8b 06		 mov	 eax, DWORD PTR [esi]
  001b1	80 78 0d 00	 cmp	 BYTE PTR [eax+13], 0
  001b5	75 03		 jne	 SHORT $LN41@Insert_nod

; 463  :             _Pnode->_Left->_Parent = _Wherenode;

  001b7	89 48 04	 mov	 DWORD PTR [eax+4], ecx
$LN41@Insert_nod:

; 464  :         }
; 465  : 
; 466  :         _Pnode->_Parent = _Wherenode->_Parent;

  001ba	8b 41 04	 mov	 eax, DWORD PTR [ecx+4]
  001bd	89 46 04	 mov	 DWORD PTR [esi+4], eax

; 467  : 
; 468  :         if (_Wherenode == _Myhead->_Parent) {

  001c0	8b 45 fc	 mov	 eax, DWORD PTR _this$1$[ebp]
  001c3	8b 00		 mov	 eax, DWORD PTR [eax]
  001c5	3b 48 04	 cmp	 ecx, DWORD PTR [eax+4]
  001c8	75 05		 jne	 SHORT $LN42@Insert_nod

; 469  :             _Myhead->_Parent = _Pnode;

  001ca	89 70 04	 mov	 DWORD PTR [eax+4], esi
  001cd	eb 0e		 jmp	 SHORT $LN45@Insert_nod
$LN42@Insert_nod:

; 470  :         } else if (_Wherenode == _Wherenode->_Parent->_Left) {

  001cf	8b 41 04	 mov	 eax, DWORD PTR [ecx+4]
  001d2	3b 08		 cmp	 ecx, DWORD PTR [eax]
  001d4	75 04		 jne	 SHORT $LN44@Insert_nod

; 471  :             _Wherenode->_Parent->_Left = _Pnode;

  001d6	89 30		 mov	 DWORD PTR [eax], esi

; 472  :         } else {

  001d8	eb 03		 jmp	 SHORT $LN45@Insert_nod
$LN44@Insert_nod:

; 473  :             _Wherenode->_Parent->_Right = _Pnode;

  001da	89 70 08	 mov	 DWORD PTR [eax+8], esi
$LN45@Insert_nod:

; 474  :         }
; 475  : 
; 476  :         _Pnode->_Left       = _Wherenode;

  001dd	89 0e		 mov	 DWORD PTR [esi], ecx
$LN52@Insert_nod:

; 668  :             }
; 669  :         }
; 670  : 
; 671  :         for (_Nodeptr _Pnode = _Newnode; _Pnode->_Parent->_Color == _Red;) {

  001df	89 71 04	 mov	 DWORD PTR [ecx+4], esi
$LN46@Insert_nod:
  001e2	8b 42 04	 mov	 eax, DWORD PTR [edx+4]
  001e5	80 78 0c 00	 cmp	 BYTE PTR [eax+12], 0
  001e9	0f 84 71 fe ff
	ff		 je	 $LL2@Insert_nod
  001ef	8b 4d f8	 mov	 ecx, DWORD PTR __Head$1$[ebp]
  001f2	5f		 pop	 edi
  001f3	5e		 pop	 esi
  001f4	5b		 pop	 ebx
$LN3@Insert_nod:

; 705  :                 }
; 706  :             }
; 707  :         }
; 708  : 
; 709  :         _Head->_Parent->_Color = _Black; // root is always black

  001f5	8b 41 04	 mov	 eax, DWORD PTR [ecx+4]
  001f8	c6 40 0c 01	 mov	 BYTE PTR [eax+12], 1

; 710  :         return _Newnode;

  001fc	8b 45 10	 mov	 eax, DWORD PTR __Newnode$[ebp]

; 711  :     }

  001ff	8b e5		 mov	 esp, ebp
  00201	5d		 pop	 ebp
  00202	c2 0c 00	 ret	 12			; 0000000cH
?_Insert_node@?$_Tree_val@U?$_Tree_simple_types@U?$pair@$$CBKPAUSEnvironmentData@@@std@@@std@@@std@@QAEPAU?$_Tree_node@U?$pair@$$CBKPAUSEnvironmentData@@@std@@PAX@2@U?$_Tree_id@PAU?$_Tree_node@U?$pair@$$CBKPAUSEnvironmentData@@@std@@PAX@std@@@2@QAU32@@Z ENDP ; std::_Tree_val<std::_Tree_simple_types<std::pair<unsigned long const ,SEnvironmentData *> > >::_Insert_node
_TEXT	ENDS
; Function compile flags: /Ogtp
; File C:\Program Files (x86)\Microsoft Visual Studio\2019\Community\VC\Tools\MSVC\14.27.29110\include\xtree
; File C:\Program Files (x86)\Microsoft Visual Studio\2019\Community\VC\Tools\MSVC\14.27.29110\include\utility
; File C:\Program Files (x86)\Microsoft Visual Studio\2019\Community\VC\Tools\MSVC\14.27.29110\include\xmemory
; File C:\Program Files (x86)\Microsoft Visual Studio\2019\Community\VC\Tools\MSVC\14.27.29110\include\xtree
; File C:\Program Files (x86)\Microsoft Visual Studio\2019\Community\VC\Tools\MSVC\14.27.29110\include\xmemory
; File C:\Program Files (x86)\Microsoft Visual Studio\2019\Community\VC\Tools\MSVC\14.27.29110\include\xtree
;	COMDAT ??1?$_Tree@V?$_Tmap_traits@KPAUSEnvironmentData@@U?$less@K@std@@V?$allocator@U?$pair@$$CBKPAUSEnvironmentData@@@std@@@3@$0A@@std@@@std@@QAE@XZ
_TEXT	SEGMENT
??1?$_Tree@V?$_Tmap_traits@KPAUSEnvironmentData@@U?$less@K@std@@V?$allocator@U?$pair@$$CBKPAUSEnvironmentData@@@std@@@3@$0A@@std@@@std@@QAE@XZ PROC ; std::_Tree<std::_Tmap_traits<unsigned long,SEnvironmentData *,std::less<unsigned long>,std::allocator<std::pair<unsigned long const ,SEnvironmentData *> >,0> >::~_Tree<std::_Tmap_traits<unsigned long,SEnvironmentData *,std::less<unsigned long>,std::allocator<std::pair<unsigned long const ,SEnvironmentData *> >,0> >, COMDAT
; _this$ = ecx

; 1189 :     ~_Tree() noexcept {

  00000	56		 push	 esi
  00001	57		 push	 edi
  00002	8b f9		 mov	 edi, ecx

; 752  :         _Erase_tree(_Al, _Myhead->_Parent);

  00004	8b 07		 mov	 eax, DWORD PTR [edi]
  00006	8b 70 04	 mov	 esi, DWORD PTR [eax+4]

; 743  :         while (!_Rootnode->_Isnil) { // free subtrees, then node

  00009	80 7e 0d 00	 cmp	 BYTE PTR [esi+13], 0
  0000d	75 23		 jne	 SHORT $LN7@Tree
  0000f	90		 npad	 1
$LL6@Tree:

; 744  :             _Erase_tree(_Al, _Rootnode->_Right);

  00010	ff 76 08	 push	 DWORD PTR [esi+8]
  00013	8b cf		 mov	 ecx, edi
  00015	57		 push	 edi
  00016	e8 00 00 00 00	 call	 ??$_Erase_tree@V?$allocator@U?$_Tree_node@U?$pair@$$CBKPAUSEnvironmentData@@@std@@PAX@std@@@std@@@?$_Tree_val@U?$_Tree_simple_types@U?$pair@$$CBKPAUSEnvironmentData@@@std@@@std@@@std@@QAEXAAV?$allocator@U?$_Tree_node@U?$pair@$$CBKPAUSEnvironmentData@@@std@@PAX@std@@@1@PAU?$_Tree_node@U?$pair@$$CBKPAUSEnvironmentData@@@std@@PAX@1@@Z ; std::_Tree_val<std::_Tree_simple_types<std::pair<unsigned long const ,SEnvironmentData *> > >::_Erase_tree<std::allocator<std::_Tree_node<std::pair<unsigned long const ,SEnvironmentData *>,void *> > >
; File C:\Program Files (x86)\Microsoft Visual Studio\2019\Community\VC\Tools\MSVC\14.27.29110\include\utility

; 599  :     _Ty _Old_val = static_cast<_Ty&&>(_Val);

  0001b	8b c6		 mov	 eax, esi

; 600  :     _Val         = static_cast<_Other&&>(_New_val);

  0001d	8b 36		 mov	 esi, DWORD PTR [esi]
; File C:\Program Files (x86)\Microsoft Visual Studio\2019\Community\VC\Tools\MSVC\14.27.29110\include\xmemory

; 689  :         _Deallocate<_New_alignof<value_type>>(_Ptr, sizeof(value_type) * _Count);

  0001f	6a 18		 push	 24			; 00000018H
  00021	50		 push	 eax
  00022	e8 00 00 00 00	 call	 ??$_Deallocate@$07$0A@@std@@YAXPAXI@Z ; std::_Deallocate<8,0>
  00027	83 c4 08	 add	 esp, 8
; File C:\Program Files (x86)\Microsoft Visual Studio\2019\Community\VC\Tools\MSVC\14.27.29110\include\xtree

; 743  :         while (!_Rootnode->_Isnil) { // free subtrees, then node

  0002a	80 7e 0d 00	 cmp	 BYTE PTR [esi+13], 0
  0002e	74 e0		 je	 SHORT $LL6@Tree
  00030	8b 07		 mov	 eax, DWORD PTR [edi]
$LN7@Tree:
; File C:\Program Files (x86)\Microsoft Visual Studio\2019\Community\VC\Tools\MSVC\14.27.29110\include\xmemory

; 689  :         _Deallocate<_New_alignof<value_type>>(_Ptr, sizeof(value_type) * _Count);

  00032	6a 18		 push	 24			; 00000018H
  00034	50		 push	 eax
  00035	e8 00 00 00 00	 call	 ??$_Deallocate@$07$0A@@std@@YAXPAXI@Z ; std::_Deallocate<8,0>
  0003a	83 c4 08	 add	 esp, 8
  0003d	5f		 pop	 edi
  0003e	5e		 pop	 esi
; File C:\Program Files (x86)\Microsoft Visual Studio\2019\Community\VC\Tools\MSVC\14.27.29110\include\xtree

; 1196 :     }

  0003f	c3		 ret	 0
??1?$_Tree@V?$_Tmap_traits@KPAUSEnvironmentData@@U?$less@K@std@@V?$allocator@U?$pair@$$CBKPAUSEnvironmentData@@@std@@@3@$0A@@std@@@std@@QAE@XZ ENDP ; std::_Tree<std::_Tmap_traits<unsigned long,SEnvironmentData *,std::less<unsigned long>,std::allocator<std::pair<unsigned long const ,SEnvironmentData *> >,0> >::~_Tree<std::_Tmap_traits<unsigned long,SEnvironmentData *,std::less<unsigned long>,std::allocator<std::pair<unsigned long const ,SEnvironmentData *> >,0> >
_TEXT	ENDS
; Function compile flags: /Ogtp
; File C:\DS Project\DS Files\Source\ClientSource\Client\GameLib\MapManager.cpp
;	COMDAT ?LoadEnvironmentData@CMapManager@@IAEHPBDPAUSEnvironmentData@@@Z
_TEXT	SEGMENT
_c_szFileName$ = 8					; size = 4
_pEnvironmentData$ = 12					; size = 4
?LoadEnvironmentData@CMapManager@@IAEHPBDPAUSEnvironmentData@@@Z PROC ; CMapManager::LoadEnvironmentData, COMDAT
; _this$ = ecx

; 443  : {

  00000	55		 push	 ebp
  00001	8b ec		 mov	 ebp, esp

; 444  : 	if (!pEnvironmentData)

  00003	8b 45 0c	 mov	 eax, DWORD PTR _pEnvironmentData$[ebp]
  00006	85 c0		 test	 eax, eax
  00008	75 04		 jne	 SHORT $LN2@LoadEnviro

; 448  : }

  0000a	5d		 pop	 ebp
  0000b	c2 08 00	 ret	 8
$LN2@LoadEnviro:

; 445  : 		return FALSE;
; 446  : 
; 447  : 	return (BOOL)Environment_Load(*pEnvironmentData, c_szFileName);

  0000e	ff 75 08	 push	 DWORD PTR _c_szFileName$[ebp]
  00011	50		 push	 eax
  00012	e8 00 00 00 00	 call	 ?Environment_Load@@YA_NAAUSEnvironmentData@@PBD@Z ; Environment_Load
  00017	83 c4 08	 add	 esp, 8
  0001a	0f b6 c0	 movzx	 eax, al

; 448  : }

  0001d	5d		 pop	 ebp
  0001e	c2 08 00	 ret	 8
?LoadEnvironmentData@CMapManager@@IAEHPBDPAUSEnvironmentData@@@Z ENDP ; CMapManager::LoadEnvironmentData
_TEXT	ENDS
; Function compile flags: /Ogtp
; File C:\DS Project\DS Files\Source\ClientSource\Client\GameLib\MapManager.cpp
;	COMDAT ?DeleteEnvironmentData@CMapManager@@IAEXPAUSEnvironmentData@@@Z
_TEXT	SEGMENT
_pEnvironmentData$ = 8					; size = 4
?DeleteEnvironmentData@CMapManager@@IAEXPAUSEnvironmentData@@@Z PROC ; CMapManager::DeleteEnvironmentData, COMDAT
; _this$ = ecx

; 437  : {

  00000	55		 push	 ebp
  00001	8b ec		 mov	 ebp, esp

; 438  : 	delete pEnvironmentData;

  00003	8b 4d 08	 mov	 ecx, DWORD PTR _pEnvironmentData$[ebp]
  00006	85 c9		 test	 ecx, ecx
  00008	74 0d		 je	 SHORT $LN3@DeleteEnvi
  0000a	c7 45 08 01 00
	00 00		 mov	 DWORD PTR _pEnvironmentData$[ebp], 1

; 439  : 	pEnvironmentData = NULL;
; 440  : }

  00011	5d		 pop	 ebp

; 438  : 	delete pEnvironmentData;

  00012	e9 00 00 00 00	 jmp	 ??_GSEnvironmentData@@QAEPAXI@Z
$LN3@DeleteEnvi:

; 439  : 	pEnvironmentData = NULL;
; 440  : }

  00017	5d		 pop	 ebp
  00018	c2 04 00	 ret	 4
?DeleteEnvironmentData@CMapManager@@IAEXPAUSEnvironmentData@@@Z ENDP ; CMapManager::DeleteEnvironmentData
_TEXT	ENDS
; Function compile flags: /Ogtp
; File C:\DS Project\DS Files\Source\ClientSource\Client\GameLib\MapManager.cpp
; File C:\Program Files (x86)\Microsoft Visual Studio\2019\Community\VC\Tools\MSVC\14.27.29110\include\xstring
; File C:\DS Project\DS Files\Source\ClientSource\Client\eterLib\SkyBox.h
; File C:\Program Files (x86)\Microsoft Visual Studio\2019\Community\VC\Tools\MSVC\14.27.29110\include\vector
; File C:\Program Files (x86)\Microsoft Visual Studio\2019\Community\VC\Tools\MSVC\14.27.29110\include\xstring
; File C:\DS Project\DS Files\Source\ClientSource\Client\GameLib\MapManager.cpp
;	COMDAT ?AllocEnvironmentData@CMapManager@@IAEPAUSEnvironmentData@@XZ
_TEXT	SEGMENT
$T2 = -16						; size = 4
__$EHRec$ = -12						; size = 12
?AllocEnvironmentData@CMapManager@@IAEPAUSEnvironmentData@@XZ PROC ; CMapManager::AllocEnvironmentData, COMDAT
; _this$ = ecx

; 430  : {

  00000	55		 push	 ebp
  00001	8b ec		 mov	 ebp, esp
  00003	6a ff		 push	 -1
  00005	68 00 00 00 00	 push	 __ehhandler$?AllocEnvironmentData@CMapManager@@IAEPAUSEnvironmentData@@XZ
  0000a	64 a1 00 00 00
	00		 mov	 eax, DWORD PTR fs:0
  00010	50		 push	 eax
  00011	51		 push	 ecx
  00012	56		 push	 esi
  00013	a1 00 00 00 00	 mov	 eax, DWORD PTR ___security_cookie
  00018	33 c5		 xor	 eax, ebp
  0001a	50		 push	 eax
  0001b	8d 45 f4	 lea	 eax, DWORD PTR __$EHRec$[ebp]
  0001e	64 a3 00 00 00
	00		 mov	 DWORD PTR fs:0, eax

; 431  : 	TEnvironmentData * pEnvironmentData = new TEnvironmentData;

  00024	68 9c 02 00 00	 push	 668			; 0000029cH
  00029	e8 00 00 00 00	 call	 ??2@YAPAXI@Z		; operator new
  0002e	8b f0		 mov	 esi, eax
  00030	83 c4 04	 add	 esp, 4
  00033	89 75 f0	 mov	 DWORD PTR $T2[ebp], esi
  00036	c7 45 fc 00 00
	00 00		 mov	 DWORD PTR __$EHRec$[ebp+8], 0
  0003d	85 f6		 test	 esi, esi
  0003f	0f 84 c0 00 00
	00		 je	 $LN3@AllocEnvir
  00045	68 00 00 00 00	 push	 OFFSET ??1?$basic_string@DU?$char_traits@D@std@@V?$allocator@D@2@@std@@QAE@XZ ; std::basic_string<char,std::char_traits<char>,std::allocator<char> >::~basic_string<char,std::char_traits<char>,std::allocator<char> >
  0004a	68 00 00 00 00	 push	 OFFSET ??0?$basic_string@DU?$char_traits@D@std@@V?$allocator@D@2@@std@@QAE@XZ ; std::basic_string<char,std::char_traits<char>,std::allocator<char> >::basic_string<char,std::char_traits<char>,std::allocator<char> >
  0004f	6a 06		 push	 6
  00051	6a 18		 push	 24			; 00000018H
  00053	8d 86 70 01 00
	00		 lea	 eax, DWORD PTR [esi+368]
  00059	50		 push	 eax
  0005a	e8 00 00 00 00	 call	 ??_L@YGXPAXIIP6EX0@Z1@Z
; File C:\Program Files (x86)\Microsoft Visual Studio\2019\Community\VC\Tools\MSVC\14.27.29110\include\xstring

; 4293 :         _Mypair._Myval2._Mysize = 0;

  0005f	c7 86 2c 02 00
	00 00 00 00 00	 mov	 DWORD PTR [esi+556], 0

; 4294 :         _Mypair._Myval2._Myres  = _BUF_SIZE - 1;

  00069	c7 86 30 02 00
	00 0f 00 00 00	 mov	 DWORD PTR [esi+560], 15	; 0000000fH

; 4295 :         // the _Traits::assign is last so the codegen doesn't think the char write can alias this
; 4296 :         _Traits::assign(_Mypair._Myval2._Bx._Buf[0], _Elem());

  00073	c6 86 1c 02 00
	00 00		 mov	 BYTE PTR [esi+540], 0
; File C:\DS Project\DS Files\Source\ClientSource\Client\eterLib\SkyBox.h

; 22   : 	SColor(float _r = 0.0f, float _g = 0.0f, float _b = 0.0f, float _a = 0.0f) : r(_r), g(_g), b(_b), a(_a){}

  0007a	c7 86 34 02 00
	00 00 00 00 00	 mov	 DWORD PTR [esi+564], 0
  00084	c7 86 38 02 00
	00 00 00 00 00	 mov	 DWORD PTR [esi+568], 0
  0008e	c7 86 3c 02 00
	00 00 00 00 00	 mov	 DWORD PTR [esi+572], 0
  00098	c7 86 40 02 00
	00 00 00 00 00	 mov	 DWORD PTR [esi+576], 0
  000a2	c7 86 44 02 00
	00 00 00 00 00	 mov	 DWORD PTR [esi+580], 0
  000ac	c7 86 48 02 00
	00 00 00 00 00	 mov	 DWORD PTR [esi+584], 0
  000b6	c7 86 4c 02 00
	00 00 00 00 00	 mov	 DWORD PTR [esi+588], 0
  000c0	c7 86 50 02 00
	00 00 00 00 00	 mov	 DWORD PTR [esi+592], 0
; File C:\Program Files (x86)\Microsoft Visual Studio\2019\Community\VC\Tools\MSVC\14.27.29110\include\vector

; 375  :     _Vector_val() noexcept : _Myfirst(), _Mylast(), _Myend() {}

  000ca	c7 86 54 02 00
	00 00 00 00 00	 mov	 DWORD PTR [esi+596], 0
  000d4	c7 86 58 02 00
	00 00 00 00 00	 mov	 DWORD PTR [esi+600], 0
  000de	c7 86 5c 02 00
	00 00 00 00 00	 mov	 DWORD PTR [esi+604], 0
; File C:\Program Files (x86)\Microsoft Visual Studio\2019\Community\VC\Tools\MSVC\14.27.29110\include\xstring

; 4293 :         _Mypair._Myval2._Mysize = 0;

  000e8	c7 86 8c 02 00
	00 00 00 00 00	 mov	 DWORD PTR [esi+652], 0

; 4294 :         _Mypair._Myval2._Myres  = _BUF_SIZE - 1;

  000f2	c7 86 90 02 00
	00 0f 00 00 00	 mov	 DWORD PTR [esi+656], 15	; 0000000fH

; 4295 :         // the _Traits::assign is last so the codegen doesn't think the char write can alias this
; 4296 :         _Traits::assign(_Mypair._Myval2._Bx._Buf[0], _Elem());

  000fc	c6 86 7c 02 00
	00 00		 mov	 BYTE PTR [esi+636], 0
; File C:\DS Project\DS Files\Source\ClientSource\Client\GameLib\MapManager.cpp

; 431  : 	TEnvironmentData * pEnvironmentData = new TEnvironmentData;

  00103	eb 02		 jmp	 SHORT $LN4@AllocEnvir
$LN3@AllocEnvir:
  00105	33 f6		 xor	 esi, esi
$LN4@AllocEnvir:

; 432  : 	Environment_Init(*pEnvironmentData);

  00107	56		 push	 esi
  00108	c7 45 fc ff ff
	ff ff		 mov	 DWORD PTR __$EHRec$[ebp+8], -1
  0010f	e8 00 00 00 00	 call	 ?Environment_Init@@YAXAAUSEnvironmentData@@@Z ; Environment_Init
  00114	83 c4 04	 add	 esp, 4

; 433  : 	return pEnvironmentData;

  00117	8b c6		 mov	 eax, esi

; 434  : }

  00119	8b 4d f4	 mov	 ecx, DWORD PTR __$EHRec$[ebp]
  0011c	64 89 0d 00 00
	00 00		 mov	 DWORD PTR fs:0, ecx
  00123	59		 pop	 ecx
  00124	5e		 pop	 esi
  00125	8b e5		 mov	 esp, ebp
  00127	5d		 pop	 ebp
  00128	c3		 ret	 0
_TEXT	ENDS
;	COMDAT text$x
text$x	SEGMENT
__unwindfunclet$?AllocEnvironmentData@CMapManager@@IAEPAUSEnvironmentData@@XZ$0:
  00000	68 9c 02 00 00	 push	 668			; 0000029cH
  00005	8b 45 f0	 mov	 eax, DWORD PTR $T2[ebp]
  00008	50		 push	 eax
  00009	e8 00 00 00 00	 call	 ??3@YAXPAXI@Z		; operator delete
  0000e	83 c4 08	 add	 esp, 8
  00011	c3		 ret	 0
  00012	cc		 int	 3
  00013	cc		 int	 3
  00014	cc		 int	 3
  00015	cc		 int	 3
  00016	cc		 int	 3
__ehhandler$?AllocEnvironmentData@CMapManager@@IAEPAUSEnvironmentData@@XZ:
  00017	90		 npad	 1
  00018	90		 npad	 1
  00019	8b 54 24 08	 mov	 edx, DWORD PTR [esp+8]
  0001d	8d 42 0c	 lea	 eax, DWORD PTR [edx+12]
  00020	8b 4a f4	 mov	 ecx, DWORD PTR [edx-12]
  00023	33 c8		 xor	 ecx, eax
  00025	e8 00 00 00 00	 call	 @__security_check_cookie@4
  0002a	b8 00 00 00 00	 mov	 eax, OFFSET __ehfuncinfo$?AllocEnvironmentData@CMapManager@@IAEPAUSEnvironmentData@@XZ
  0002f	e9 00 00 00 00	 jmp	 ___CxxFrameHandler3
text$x	ENDS
?AllocEnvironmentData@CMapManager@@IAEPAUSEnvironmentData@@XZ ENDP ; CMapManager::AllocEnvironmentData
; Function compile flags: /Ogtp
; File C:\DS Project\DS Files\Source\ClientSource\Client\GameLib\MapManager.cpp
;	COMDAT ?GetRenderedGraphicThingInstanceNum@CMapManager@@QAEAAV?$vector@USCRCWithNumber@CArea@@V?$allocator@USCRCWithNumber@CArea@@@std@@@std@@PAK0@Z
_TEXT	SEGMENT
_pdwGraphicThingInstanceNum$ = 8			; size = 4
_pdwCRCNum$ = 12					; size = 4
?GetRenderedGraphicThingInstanceNum@CMapManager@@QAEAAV?$vector@USCRCWithNumber@CArea@@V?$allocator@USCRCWithNumber@CArea@@@std@@@std@@PAK0@Z PROC ; CMapManager::GetRenderedGraphicThingInstanceNum, COMDAT
; _this$ = ecx

; 474  : {

  00000	55		 push	 ebp
  00001	8b ec		 mov	 ebp, esp

; 475  : 	if (!m_pkMap)

  00003	83 b9 30 14 00
	00 00		 cmp	 DWORD PTR [ecx+5168], 0
  0000a	75 37		 jne	 SHORT $LN3@GetRendere

; 476  : 	{
; 477  : 		static CArea::TCRCWithNumberVector s_emptyVector;

  0000c	64 a1 00 00 00
	00		 mov	 eax, DWORD PTR fs:__tls_array
  00012	8b 0d 00 00 00
	00		 mov	 ecx, DWORD PTR __tls_index
  00018	8b 0c 88	 mov	 ecx, DWORD PTR [eax+ecx*4]
  0001b	a1 00 00 00 00	 mov	 eax, DWORD PTR ?$TSS0@?4??GetRenderedGraphicThingInstanceNum@CMapManager@@QAEAAV?$vector@USCRCWithNumber@CArea@@V?$allocator@USCRCWithNumber@CArea@@@std@@@std@@PAK0@Z@4HA
  00020	3b 81 00 00 00
	00		 cmp	 eax, DWORD PTR __Init_thread_epoch[ecx]
  00026	7f 28		 jg	 SHORT $LN14@GetRendere
$LN2@GetRendere:

; 478  : 		*pdwGraphicThingInstanceNum = 0;

  00028	8b 45 08	 mov	 eax, DWORD PTR _pdwGraphicThingInstanceNum$[ebp]
  0002b	c7 00 00 00 00
	00		 mov	 DWORD PTR [eax], 0

; 479  : 		*pdwCRCNum = 0;

  00031	8b 45 0c	 mov	 eax, DWORD PTR _pdwCRCNum$[ebp]
  00034	c7 00 00 00 00
	00		 mov	 DWORD PTR [eax], 0

; 480  : 		return s_emptyVector;

  0003a	b8 00 00 00 00	 mov	 eax, OFFSET ?s_emptyVector@?4??GetRenderedGraphicThingInstanceNum@CMapManager@@QAEAAV?$vector@USCRCWithNumber@CArea@@V?$allocator@USCRCWithNumber@CArea@@@std@@@std@@PAK0@Z@4V34@A

; 485  : }

  0003f	5d		 pop	 ebp
  00040	c2 08 00	 ret	 8
$LN3@GetRendere:

; 481  : 	}
; 482  : 
; 483  : 	CMapOutdoor& rkMap=GetMapOutdoorRef();

  00043	e8 00 00 00 00	 call	 ?GetMapOutdoorRef@CMapManager@@QAEAAVCMapOutdoor@@XZ ; CMapManager::GetMapOutdoorRef

; 484  : 	return rkMap.GetRenderedGraphicThingInstanceNum(pdwGraphicThingInstanceNum, pdwCRCNum);

  00048	8b c8		 mov	 ecx, eax

; 485  : }

  0004a	5d		 pop	 ebp

; 484  : 	return rkMap.GetRenderedGraphicThingInstanceNum(pdwGraphicThingInstanceNum, pdwCRCNum);

  0004b	e9 00 00 00 00	 jmp	 ?GetRenderedGraphicThingInstanceNum@CMapOutdoor@@QAEAAV?$vector@USCRCWithNumber@CArea@@V?$allocator@USCRCWithNumber@CArea@@@std@@@std@@PAK0@Z ; CMapOutdoor::GetRenderedGraphicThingInstanceNum
$LN14@GetRendere:

; 476  : 	{
; 477  : 		static CArea::TCRCWithNumberVector s_emptyVector;

  00050	68 00 00 00 00	 push	 OFFSET ?$TSS0@?4??GetRenderedGraphicThingInstanceNum@CMapManager@@QAEAAV?$vector@USCRCWithNumber@CArea@@V?$allocator@USCRCWithNumber@CArea@@@std@@@std@@PAK0@Z@4HA
  00055	e8 00 00 00 00	 call	 __Init_thread_header
  0005a	83 c4 04	 add	 esp, 4
  0005d	83 3d 00 00 00
	00 ff		 cmp	 DWORD PTR ?$TSS0@?4??GetRenderedGraphicThingInstanceNum@CMapManager@@QAEAAV?$vector@USCRCWithNumber@CArea@@V?$allocator@USCRCWithNumber@CArea@@@std@@@std@@PAK0@Z@4HA, -1
  00064	75 c2		 jne	 SHORT $LN2@GetRendere
  00066	68 00 00 00 00	 push	 OFFSET ??__Fs_emptyVector@?4??GetRenderedGraphicThingInstanceNum@CMapManager@@QAEAAV?$vector@USCRCWithNumber@CArea@@V?$allocator@USCRCWithNumber@CArea@@@std@@@std@@PAK0@Z@YAXXZ ; `CMapManager::GetRenderedGraphicThingInstanceNum'::`5'::`dynamic atexit destructor for 's_emptyVector''
  0006b	e8 00 00 00 00	 call	 _atexit
  00070	68 00 00 00 00	 push	 OFFSET ?$TSS0@?4??GetRenderedGraphicThingInstanceNum@CMapManager@@QAEAAV?$vector@USCRCWithNumber@CArea@@V?$allocator@USCRCWithNumber@CArea@@@std@@@std@@PAK0@Z@4HA
  00075	e8 00 00 00 00	 call	 __Init_thread_footer
  0007a	83 c4 08	 add	 esp, 8
  0007d	eb a9		 jmp	 SHORT $LN2@GetRendere
?GetRenderedGraphicThingInstanceNum@CMapManager@@QAEAAV?$vector@USCRCWithNumber@CArea@@V?$allocator@USCRCWithNumber@CArea@@@std@@@std@@PAK0@Z ENDP ; CMapManager::GetRenderedGraphicThingInstanceNum
_TEXT	ENDS
; Function compile flags: /Ogtp
; File C:\DS Project\DS Files\Source\ClientSource\Client\GameLib\MapManager.cpp
;	COMDAT ?GetRenderedSplatNum@CMapManager@@QAEAAV?$vector@HV?$allocator@H@std@@@std@@PAH0PAM@Z
_TEXT	SEGMENT
_piPatch$ = 8						; size = 4
_piSplat$ = 12						; size = 4
_pfSplatRatio$ = 16					; size = 4
?GetRenderedSplatNum@CMapManager@@QAEAAV?$vector@HV?$allocator@H@std@@@std@@PAH0PAM@Z PROC ; CMapManager::GetRenderedSplatNum, COMDAT
; _this$ = ecx

; 460  : {

  00000	55		 push	 ebp
  00001	8b ec		 mov	 ebp, esp

; 461  : 	if (!m_pkMap)

  00003	83 b9 30 14 00
	00 00		 cmp	 DWORD PTR [ecx+5168], 0
  0000a	75 37		 jne	 SHORT $LN3@GetRendere

; 462  : 	{
; 463  : 		static std::vector<int> s_emptyVector;

  0000c	64 a1 00 00 00
	00		 mov	 eax, DWORD PTR fs:__tls_array
  00012	8b 0d 00 00 00
	00		 mov	 ecx, DWORD PTR __tls_index
  00018	8b 0c 88	 mov	 ecx, DWORD PTR [eax+ecx*4]
  0001b	a1 00 00 00 00	 mov	 eax, DWORD PTR ?$TSS0@?4??GetRenderedSplatNum@CMapManager@@QAEAAV?$vector@HV?$allocator@H@std@@@std@@PAH0PAM@Z@4HA
  00020	3b 81 00 00 00
	00		 cmp	 eax, DWORD PTR __Init_thread_epoch[ecx]
  00026	7f 28		 jg	 SHORT $LN14@GetRendere
$LN2@GetRendere:

; 464  : 		*piPatch = 0;

  00028	8b 45 08	 mov	 eax, DWORD PTR _piPatch$[ebp]
  0002b	c7 00 00 00 00
	00		 mov	 DWORD PTR [eax], 0

; 465  : 		*piSplat = 0;

  00031	8b 45 0c	 mov	 eax, DWORD PTR _piSplat$[ebp]
  00034	c7 00 00 00 00
	00		 mov	 DWORD PTR [eax], 0

; 466  : 		return s_emptyVector;

  0003a	b8 00 00 00 00	 mov	 eax, OFFSET ?s_emptyVector@?4??GetRenderedSplatNum@CMapManager@@QAEAAV?$vector@HV?$allocator@H@std@@@std@@PAH0PAM@Z@4V34@A

; 471  : }

  0003f	5d		 pop	 ebp
  00040	c2 0c 00	 ret	 12			; 0000000cH
$LN3@GetRendere:

; 467  : 	}
; 468  : 
; 469  : 	CMapOutdoor& rkMap=GetMapOutdoorRef();

  00043	e8 00 00 00 00	 call	 ?GetMapOutdoorRef@CMapManager@@QAEAAVCMapOutdoor@@XZ ; CMapManager::GetMapOutdoorRef

; 470  : 	return rkMap.GetRenderedSplatNum(piPatch, piSplat, pfSplatRatio);

  00048	8b c8		 mov	 ecx, eax

; 471  : }

  0004a	5d		 pop	 ebp

; 470  : 	return rkMap.GetRenderedSplatNum(piPatch, piSplat, pfSplatRatio);

  0004b	e9 00 00 00 00	 jmp	 ?GetRenderedSplatNum@CMapOutdoor@@QAEAAV?$vector@HV?$allocator@H@std@@@std@@PAH0PAM@Z ; CMapOutdoor::GetRenderedSplatNum
$LN14@GetRendere:

; 462  : 	{
; 463  : 		static std::vector<int> s_emptyVector;

  00050	68 00 00 00 00	 push	 OFFSET ?$TSS0@?4??GetRenderedSplatNum@CMapManager@@QAEAAV?$vector@HV?$allocator@H@std@@@std@@PAH0PAM@Z@4HA
  00055	e8 00 00 00 00	 call	 __Init_thread_header
  0005a	83 c4 04	 add	 esp, 4
  0005d	83 3d 00 00 00
	00 ff		 cmp	 DWORD PTR ?$TSS0@?4??GetRenderedSplatNum@CMapManager@@QAEAAV?$vector@HV?$allocator@H@std@@@std@@PAH0PAM@Z@4HA, -1
  00064	75 c2		 jne	 SHORT $LN2@GetRendere
  00066	68 00 00 00 00	 push	 OFFSET ??__Fs_emptyVector@?4??GetRenderedSplatNum@CMapManager@@QAEAAV?$vector@HV?$allocator@H@std@@@std@@PAH0PAM@Z@YAXXZ ; `CMapManager::GetRenderedSplatNum'::`5'::`dynamic atexit destructor for 's_emptyVector''
  0006b	e8 00 00 00 00	 call	 _atexit
  00070	68 00 00 00 00	 push	 OFFSET ?$TSS0@?4??GetRenderedSplatNum@CMapManager@@QAEAAV?$vector@HV?$allocator@H@std@@@std@@PAH0PAM@Z@4HA
  00075	e8 00 00 00 00	 call	 __Init_thread_footer
  0007a	83 c4 08	 add	 esp, 8
  0007d	eb a9		 jmp	 SHORT $LN2@GetRendere
?GetRenderedSplatNum@CMapManager@@QAEAAV?$vector@HV?$allocator@H@std@@@std@@PAH0PAM@Z ENDP ; CMapManager::GetRenderedSplatNum
_TEXT	ENDS
; Function compile flags: /Ogtp
; File C:\DS Project\DS Files\Source\ClientSource\Client\GameLib\MapManager.cpp
;	COMDAT ?GetAttr@CMapManager@@QAE_NHHPAE@Z
_TEXT	SEGMENT
_iX$ = 8						; size = 4
_iY$ = 12						; size = 4
_pbyAttr$ = 16						; size = 4
?GetAttr@CMapManager@@QAE_NHHPAE@Z PROC			; CMapManager::GetAttr, COMDAT
; _this$ = ecx

; 533  : {

  00000	55		 push	 ebp
  00001	8b ec		 mov	 ebp, esp
  00003	56		 push	 esi
  00004	8b f1		 mov	 esi, ecx

; 534  : 	if (!IsMapReady())

  00006	e8 00 00 00 00	 call	 ?IsMapReady@CMapManager@@QAE_NXZ ; CMapManager::IsMapReady
  0000b	84 c0		 test	 al, al
  0000d	75 05		 jne	 SHORT $LN2@GetAttr
  0000f	5e		 pop	 esi

; 539  : }

  00010	5d		 pop	 ebp
  00011	c2 0c 00	 ret	 12			; 0000000cH
$LN2@GetAttr:

; 535  : 		return false;
; 536  : 
; 537  : 	CMapOutdoor& rkMap=GetMapOutdoorRef();

  00014	8b ce		 mov	 ecx, esi
  00016	e8 00 00 00 00	 call	 ?GetMapOutdoorRef@CMapManager@@QAEAAVCMapOutdoor@@XZ ; CMapManager::GetMapOutdoorRef
  0001b	5e		 pop	 esi

; 538  : 	return rkMap.GetAttr(iX, iY, pbyAttr);

  0001c	8b c8		 mov	 ecx, eax

; 539  : }

  0001e	5d		 pop	 ebp

; 538  : 	return rkMap.GetAttr(iX, iY, pbyAttr);

  0001f	e9 00 00 00 00	 jmp	 ?GetAttr@CMapOutdoor@@QAE_NHHPAE@Z ; CMapOutdoor::GetAttr
?GetAttr@CMapManager@@QAE_NHHPAE@Z ENDP			; CMapManager::GetAttr
_TEXT	ENDS
; Function compile flags: /Ogtp
; File C:\DS Project\DS Files\Source\ClientSource\Client\GameLib\MapManager.cpp
;	COMDAT ?isAttrOn@CMapManager@@QAE_NHHE@Z
_TEXT	SEGMENT
_iX$ = 8						; size = 4
_iY$ = 12						; size = 4
_byAttr$ = 16						; size = 1
?isAttrOn@CMapManager@@QAE_NHHE@Z PROC			; CMapManager::isAttrOn, COMDAT
; _this$ = ecx

; 524  : {

  00000	55		 push	 ebp
  00001	8b ec		 mov	 ebp, esp
  00003	56		 push	 esi
  00004	8b f1		 mov	 esi, ecx

; 525  : 	if (!IsMapReady())

  00006	e8 00 00 00 00	 call	 ?IsMapReady@CMapManager@@QAE_NXZ ; CMapManager::IsMapReady
  0000b	84 c0		 test	 al, al
  0000d	75 05		 jne	 SHORT $LN2@isAttrOn
  0000f	5e		 pop	 esi

; 530  : }

  00010	5d		 pop	 ebp
  00011	c2 0c 00	 ret	 12			; 0000000cH
$LN2@isAttrOn:

; 526  : 		return false;
; 527  : 
; 528  : 	CMapOutdoor& rkMap=GetMapOutdoorRef();

  00014	8b ce		 mov	 ecx, esi
  00016	e8 00 00 00 00	 call	 ?GetMapOutdoorRef@CMapManager@@QAEAAVCMapOutdoor@@XZ ; CMapManager::GetMapOutdoorRef
  0001b	5e		 pop	 esi

; 529  : 	return rkMap.isAttrOn(iX, iY, byAttr);

  0001c	8b c8		 mov	 ecx, eax

; 530  : }

  0001e	5d		 pop	 ebp

; 529  : 	return rkMap.isAttrOn(iX, iY, byAttr);

  0001f	e9 00 00 00 00	 jmp	 ?isAttrOn@CMapOutdoor@@QAE_NHHE@Z ; CMapOutdoor::isAttrOn
?isAttrOn@CMapManager@@QAE_NHHE@Z ENDP			; CMapManager::isAttrOn
_TEXT	ENDS
; Function compile flags: /Ogtp
; File C:\DS Project\DS Files\Source\ClientSource\Client\GameLib\MapManager.cpp
;	COMDAT ?GetAttr@CMapManager@@QAE_NMMPAE@Z
_TEXT	SEGMENT
_fX$ = 8						; size = 4
_fY$ = 12						; size = 4
_pbyAttr$ = 16						; size = 4
?GetAttr@CMapManager@@QAE_NMMPAE@Z PROC			; CMapManager::GetAttr, COMDAT
; _this$ = ecx

; 515  : {

  00000	55		 push	 ebp
  00001	8b ec		 mov	 ebp, esp
  00003	56		 push	 esi
  00004	8b f1		 mov	 esi, ecx

; 516  : 	if (!IsMapReady())

  00006	e8 00 00 00 00	 call	 ?IsMapReady@CMapManager@@QAE_NXZ ; CMapManager::IsMapReady
  0000b	84 c0		 test	 al, al
  0000d	75 05		 jne	 SHORT $LN2@GetAttr
  0000f	5e		 pop	 esi

; 521  : }

  00010	5d		 pop	 ebp
  00011	c2 0c 00	 ret	 12			; 0000000cH
$LN2@GetAttr:

; 517  : 		return false;
; 518  : 
; 519  : 	CMapOutdoor& rkMap=GetMapOutdoorRef();

  00014	8b ce		 mov	 ecx, esi
  00016	e8 00 00 00 00	 call	 ?GetMapOutdoorRef@CMapManager@@QAEAAVCMapOutdoor@@XZ ; CMapManager::GetMapOutdoorRef

; 520  : 	return rkMap.GetAttr(fX, fY, pbyAttr);

  0001b	ff 75 10	 push	 DWORD PTR _pbyAttr$[ebp]
  0001e	f3 0f 10 45 0c	 movss	 xmm0, DWORD PTR _fY$[ebp]
  00023	8b c8		 mov	 ecx, eax
  00025	83 ec 08	 sub	 esp, 8
  00028	f3 0f 11 44 24
	04		 movss	 DWORD PTR [esp+4], xmm0
  0002e	f3 0f 10 45 08	 movss	 xmm0, DWORD PTR _fX$[ebp]
  00033	f3 0f 11 04 24	 movss	 DWORD PTR [esp], xmm0
  00038	e8 00 00 00 00	 call	 ?GetAttr@CMapOutdoor@@QAE_NMMPAE@Z ; CMapOutdoor::GetAttr
  0003d	5e		 pop	 esi

; 521  : }

  0003e	5d		 pop	 ebp
  0003f	c2 0c 00	 ret	 12			; 0000000cH
?GetAttr@CMapManager@@QAE_NMMPAE@Z ENDP			; CMapManager::GetAttr
_TEXT	ENDS
; Function compile flags: /Ogtp
; File C:\DS Project\DS Files\Source\ClientSource\Client\GameLib\MapManager.cpp
;	COMDAT ?isAttrOn@CMapManager@@QAE_NMME@Z
_TEXT	SEGMENT
_fX$ = 8						; size = 4
_fY$ = 12						; size = 4
_byAttr$ = 16						; size = 1
?isAttrOn@CMapManager@@QAE_NMME@Z PROC			; CMapManager::isAttrOn, COMDAT
; _this$ = ecx

; 506  : {

  00000	55		 push	 ebp
  00001	8b ec		 mov	 ebp, esp
  00003	56		 push	 esi
  00004	8b f1		 mov	 esi, ecx

; 507  : 	if (!IsMapReady())

  00006	e8 00 00 00 00	 call	 ?IsMapReady@CMapManager@@QAE_NXZ ; CMapManager::IsMapReady
  0000b	84 c0		 test	 al, al
  0000d	75 05		 jne	 SHORT $LN2@isAttrOn
  0000f	5e		 pop	 esi

; 512  : }

  00010	5d		 pop	 ebp
  00011	c2 0c 00	 ret	 12			; 0000000cH
$LN2@isAttrOn:

; 508  : 		return false;
; 509  : 
; 510  : 	CMapOutdoor& rkMap=GetMapOutdoorRef();

  00014	8b ce		 mov	 ecx, esi
  00016	e8 00 00 00 00	 call	 ?GetMapOutdoorRef@CMapManager@@QAEAAVCMapOutdoor@@XZ ; CMapManager::GetMapOutdoorRef

; 511  : 	return rkMap.isAttrOn(fX, fY, byAttr);

  0001b	ff 75 10	 push	 DWORD PTR _byAttr$[ebp]
  0001e	f3 0f 10 45 0c	 movss	 xmm0, DWORD PTR _fY$[ebp]
  00023	8b c8		 mov	 ecx, eax
  00025	83 ec 08	 sub	 esp, 8
  00028	f3 0f 11 44 24
	04		 movss	 DWORD PTR [esp+4], xmm0
  0002e	f3 0f 10 45 08	 movss	 xmm0, DWORD PTR _fX$[ebp]
  00033	f3 0f 11 04 24	 movss	 DWORD PTR [esp], xmm0
  00038	e8 00 00 00 00	 call	 ?isAttrOn@CMapOutdoor@@QAE_NMME@Z ; CMapOutdoor::isAttrOn
  0003d	5e		 pop	 esi

; 512  : }

  0003e	5d		 pop	 ebp
  0003f	c2 0c 00	 ret	 12			; 0000000cH
?isAttrOn@CMapManager@@QAE_NMME@Z ENDP			; CMapManager::isAttrOn
_TEXT	ENDS
; Function compile flags: /Ogtp
; File C:\DS Project\DS Files\Source\ClientSource\Client\GameLib\MapManager.cpp
;	COMDAT ?isPhysicalCollision@CMapManager@@UAE_NABUD3DXVECTOR3@@@Z
_TEXT	SEGMENT
_c_rvCheckPosition$ = 8					; size = 4
?isPhysicalCollision@CMapManager@@UAE_NABUD3DXVECTOR3@@@Z PROC ; CMapManager::isPhysicalCollision, COMDAT
; _this$ = ecx

; 497  : {

  00000	55		 push	 ebp
  00001	8b ec		 mov	 ebp, esp
  00003	56		 push	 esi

; 498  : 	if (!IsMapReady())

  00004	8d 71 fc	 lea	 esi, DWORD PTR [ecx-4]
  00007	8b ce		 mov	 ecx, esi
  00009	e8 00 00 00 00	 call	 ?IsMapReady@CMapManager@@QAE_NXZ ; CMapManager::IsMapReady
  0000e	84 c0		 test	 al, al
  00010	75 05		 jne	 SHORT $LN2@isPhysical
  00012	5e		 pop	 esi

; 503  : }

  00013	5d		 pop	 ebp
  00014	c2 04 00	 ret	 4
$LN2@isPhysical:

; 499  : 		return false;
; 500  : 
; 501  : 	CMapOutdoor& rkMap=GetMapOutdoorRef();

  00017	8b ce		 mov	 ecx, esi
  00019	e8 00 00 00 00	 call	 ?GetMapOutdoorRef@CMapManager@@QAEAAVCMapOutdoor@@XZ ; CMapManager::GetMapOutdoorRef

; 502  : 	return rkMap.isAttrOn(c_rvCheckPosition.x, -c_rvCheckPosition.y, CTerrainImpl::ATTRIBUTE_BLOCK);

  0001e	8b 4d 08	 mov	 ecx, DWORD PTR _c_rvCheckPosition$[ebp]
  00021	6a 01		 push	 1
  00023	83 ec 08	 sub	 esp, 8
  00026	f3 0f 10 41 04	 movss	 xmm0, DWORD PTR [ecx+4]
  0002b	0f 57 05 00 00
	00 00		 xorps	 xmm0, DWORD PTR __xmm@80000000800000008000000080000000
  00032	f3 0f 11 44 24
	04		 movss	 DWORD PTR [esp+4], xmm0
  00038	f3 0f 10 01	 movss	 xmm0, DWORD PTR [ecx]
  0003c	8b c8		 mov	 ecx, eax
  0003e	f3 0f 11 04 24	 movss	 DWORD PTR [esp], xmm0
  00043	e8 00 00 00 00	 call	 ?isAttrOn@CMapOutdoor@@QAE_NMME@Z ; CMapOutdoor::isAttrOn
  00048	5e		 pop	 esi

; 503  : }

  00049	5d		 pop	 ebp
  0004a	c2 04 00	 ret	 4
?isPhysicalCollision@CMapManager@@UAE_NABUD3DXVECTOR3@@@Z ENDP ; CMapManager::isPhysicalCollision
_TEXT	ENDS
; Function compile flags: /Ogtp
; File C:\DS Project\DS Files\Source\ClientSource\Client\GameLib\MapManager.cpp
;	COMDAT ?GetShadowMapColor@CMapManager@@QAEKMM@Z
_TEXT	SEGMENT
_fx$ = 8						; size = 4
_fy$ = 12						; size = 4
?GetShadowMapColor@CMapManager@@QAEKMM@Z PROC		; CMapManager::GetShadowMapColor, COMDAT
; _this$ = ecx

; 451  : {

  00000	55		 push	 ebp
  00001	8b ec		 mov	 ebp, esp
  00003	56		 push	 esi
  00004	8b f1		 mov	 esi, ecx

; 452  : 	if (!IsMapReady())

  00006	e8 00 00 00 00	 call	 ?IsMapReady@CMapManager@@QAE_NXZ ; CMapManager::IsMapReady
  0000b	84 c0		 test	 al, al
  0000d	75 08		 jne	 SHORT $LN2@GetShadowM

; 453  : 		return 0xFFFFFFFF;

  0000f	83 c8 ff	 or	 eax, -1
  00012	5e		 pop	 esi

; 457  : }

  00013	5d		 pop	 ebp
  00014	c2 08 00	 ret	 8
$LN2@GetShadowM:

; 454  : 
; 455  : 	CMapOutdoor& rkMap=GetMapOutdoorRef();

  00017	8b ce		 mov	 ecx, esi
  00019	e8 00 00 00 00	 call	 ?GetMapOutdoorRef@CMapManager@@QAEAAVCMapOutdoor@@XZ ; CMapManager::GetMapOutdoorRef

; 456  : 	return rkMap.GetShadowMapColor(fx, fy);

  0001e	f3 0f 10 45 0c	 movss	 xmm0, DWORD PTR _fy$[ebp]
  00023	83 ec 08	 sub	 esp, 8
  00026	8b c8		 mov	 ecx, eax
  00028	f3 0f 11 44 24
	04		 movss	 DWORD PTR [esp+4], xmm0
  0002e	f3 0f 10 45 08	 movss	 xmm0, DWORD PTR _fx$[ebp]
  00033	f3 0f 11 04 24	 movss	 DWORD PTR [esp], xmm0
  00038	e8 00 00 00 00	 call	 ?GetShadowMapColor@CMapOutdoor@@QAEKMM@Z ; CMapOutdoor::GetShadowMapColor
  0003d	5e		 pop	 esi

; 457  : }

  0003e	5d		 pop	 ebp
  0003f	c2 08 00	 ret	 8
?GetShadowMapColor@CMapManager@@QAEKMM@Z ENDP		; CMapManager::GetShadowMapColor
_TEXT	ENDS
; Function compile flags: /Ogtp
; File C:\DS Project\DS Files\Source\ClientSource\Client\GameLib\MapManager.cpp
;	COMDAT ?LoadProperty@CMapManager@@QAEXXZ
_TEXT	SEGMENT
_PropertyLoader$ = -348					; size = 332
__$ArrayPad$ = -16					; size = 4
__$EHRec$ = -12						; size = 12
?LoadProperty@CMapManager@@QAEXXZ PROC			; CMapManager::LoadProperty, COMDAT
; _this$ = ecx

; 102  : {

  00000	55		 push	 ebp
  00001	8b ec		 mov	 ebp, esp
  00003	6a ff		 push	 -1
  00005	68 00 00 00 00	 push	 __ehhandler$?LoadProperty@CMapManager@@QAEXXZ
  0000a	64 a1 00 00 00
	00		 mov	 eax, DWORD PTR fs:0
  00010	50		 push	 eax
  00011	81 ec 50 01 00
	00		 sub	 esp, 336		; 00000150H
  00017	a1 00 00 00 00	 mov	 eax, DWORD PTR ___security_cookie
  0001c	33 c5		 xor	 eax, ebp
  0001e	89 45 f0	 mov	 DWORD PTR __$ArrayPad$[ebp], eax
  00021	56		 push	 esi
  00022	50		 push	 eax
  00023	8d 45 f4	 lea	 eax, DWORD PTR __$EHRec$[ebp]
  00026	64 a3 00 00 00
	00		 mov	 DWORD PTR fs:0, eax
  0002c	8b f1		 mov	 esi, ecx

; 103  : 	CPropertyLoader PropertyLoader;

  0002e	8d 8d a4 fe ff
	ff		 lea	 ecx, DWORD PTR _PropertyLoader$[ebp]
  00034	e8 00 00 00 00	 call	 ??0CPropertyLoader@@QAE@XZ ; CPropertyLoader::CPropertyLoader

; 104  : 	PropertyLoader.SetPropertyManager(&m_PropertyManager);

  00039	8d 46 08	 lea	 eax, DWORD PTR [esi+8]
  0003c	c7 45 fc 00 00
	00 00		 mov	 DWORD PTR __$EHRec$[ebp+8], 0
  00043	50		 push	 eax
  00044	8d 8d a4 fe ff
	ff		 lea	 ecx, DWORD PTR _PropertyLoader$[ebp]
  0004a	e8 00 00 00 00	 call	 ?SetPropertyManager@CPropertyLoader@@QAEXPAVCPropertyManager@@@Z ; CPropertyLoader::SetPropertyManager

; 105  : 	PropertyLoader.Create("*.*", "Property");

  0004f	6a 00		 push	 0
  00051	68 00 00 00 00	 push	 OFFSET ??_C@_08MOOMJPBO@Property@
  00056	68 00 00 00 00	 push	 OFFSET ??_C@_03EMIMMIHL@?$CK?4?$CK@
  0005b	8d 8d a4 fe ff
	ff		 lea	 ecx, DWORD PTR _PropertyLoader$[ebp]
  00061	e8 00 00 00 00	 call	 ?Create@CDir@@QAE_NPBD0H@Z ; CDir::Create

; 106  : }

  00066	8d 8d a4 fe ff
	ff		 lea	 ecx, DWORD PTR _PropertyLoader$[ebp]
  0006c	e8 00 00 00 00	 call	 ??1CPropertyLoader@@UAE@XZ ; CPropertyLoader::~CPropertyLoader
  00071	8b 4d f4	 mov	 ecx, DWORD PTR __$EHRec$[ebp]
  00074	64 89 0d 00 00
	00 00		 mov	 DWORD PTR fs:0, ecx
  0007b	59		 pop	 ecx
  0007c	5e		 pop	 esi
  0007d	8b 4d f0	 mov	 ecx, DWORD PTR __$ArrayPad$[ebp]
  00080	33 cd		 xor	 ecx, ebp
  00082	e8 00 00 00 00	 call	 @__security_check_cookie@4
  00087	8b e5		 mov	 esp, ebp
  00089	5d		 pop	 ebp
  0008a	c3		 ret	 0
_TEXT	ENDS
;	COMDAT text$x
text$x	SEGMENT
__unwindfunclet$?LoadProperty@CMapManager@@QAEXXZ$0:
  00000	8d 8d a4 fe ff
	ff		 lea	 ecx, DWORD PTR _PropertyLoader$[ebp]
  00006	e9 00 00 00 00	 jmp	 ??1CPropertyLoader@@UAE@XZ ; CPropertyLoader::~CPropertyLoader
  0000b	cc		 int	 3
  0000c	cc		 int	 3
  0000d	cc		 int	 3
  0000e	cc		 int	 3
  0000f	cc		 int	 3
__ehhandler$?LoadProperty@CMapManager@@QAEXXZ:
  00010	90		 npad	 1
  00011	90		 npad	 1
  00012	8b 54 24 08	 mov	 edx, DWORD PTR [esp+8]
  00016	8d 42 0c	 lea	 eax, DWORD PTR [edx+12]
  00019	8b 8a a8 fe ff
	ff		 mov	 ecx, DWORD PTR [edx-344]
  0001f	33 c8		 xor	 ecx, eax
  00021	e8 00 00 00 00	 call	 @__security_check_cookie@4
  00026	8b 4a fc	 mov	 ecx, DWORD PTR [edx-4]
  00029	33 c8		 xor	 ecx, eax
  0002b	e8 00 00 00 00	 call	 @__security_check_cookie@4
  00030	b8 00 00 00 00	 mov	 eax, OFFSET __ehfuncinfo$?LoadProperty@CMapManager@@QAEXXZ
  00035	e9 00 00 00 00	 jmp	 ___CxxFrameHandler3
text$x	ENDS
?LoadProperty@CMapManager@@QAEXXZ ENDP			; CMapManager::LoadProperty
; Function compile flags: /Ogtp
; File C:\DS Project\DS Files\Source\ClientSource\Client\GameLib\MapManager.cpp
;	COMDAT ?AddShowingPortalID@CMapManager@@QAEXH@Z
_TEXT	SEGMENT
_pArea$1 = 8						; size = 4
_iID$ = 8						; size = 4
?AddShowingPortalID@CMapManager@@QAEXH@Z PROC		; CMapManager::AddShowingPortalID, COMDAT
; _this$ = ecx

; 414  : {

  00000	55		 push	 ebp
  00001	8b ec		 mov	 ebp, esp
  00003	56		 push	 esi
  00004	8b f1		 mov	 esi, ecx

; 415  : 	if (!IsMapReady())

  00006	e8 00 00 00 00	 call	 ?IsMapReady@CMapManager@@QAE_NXZ ; CMapManager::IsMapReady
  0000b	84 c0		 test	 al, al
  0000d	74 32		 je	 SHORT $LN3@AddShowing

; 416  : 		return;
; 417  : 
; 418  : 	CMapOutdoor & rMap = GetMapOutdoorRef();

  0000f	53		 push	 ebx
  00010	57		 push	 edi
  00011	8b ce		 mov	 ecx, esi
  00013	e8 00 00 00 00	 call	 ?GetMapOutdoorRef@CMapManager@@QAEAAVCMapOutdoor@@XZ ; CMapManager::GetMapOutdoorRef

; 419  : 	for (int i = 0; i < AROUND_AREA_NUM; ++i)

  00018	8b 7d 08	 mov	 edi, DWORD PTR _iID$[ebp]
  0001b	8b d8		 mov	 ebx, eax
  0001d	33 f6		 xor	 esi, esi
  0001f	90		 npad	 1
$LL4@AddShowing:

; 420  : 	{
; 421  : 		CArea * pArea;
; 422  : 		if (!rMap.GetAreaPointer(i, &pArea))

  00020	8d 45 08	 lea	 eax, DWORD PTR _pArea$1[ebp]
  00023	8b cb		 mov	 ecx, ebx
  00025	50		 push	 eax
  00026	56		 push	 esi
  00027	e8 00 00 00 00	 call	 ?GetAreaPointer@CMapOutdoor@@QAEHEPAPAVCArea@@@Z ; CMapOutdoor::GetAreaPointer
  0002c	85 c0		 test	 eax, eax
  0002e	74 09		 je	 SHORT $LN2@AddShowing

; 423  : 			continue;
; 424  : 
; 425  : 		pArea->AddShowingPortalID(iID);

  00030	8b 4d 08	 mov	 ecx, DWORD PTR _pArea$1[ebp]
  00033	57		 push	 edi
  00034	e8 00 00 00 00	 call	 ?AddShowingPortalID@CArea@@QAEXH@Z ; CArea::AddShowingPortalID
$LN2@AddShowing:

; 419  : 	for (int i = 0; i < AROUND_AREA_NUM; ++i)

  00039	46		 inc	 esi
  0003a	83 fe 09	 cmp	 esi, 9
  0003d	7c e1		 jl	 SHORT $LL4@AddShowing
  0003f	5f		 pop	 edi
  00040	5b		 pop	 ebx
$LN3@AddShowing:
  00041	5e		 pop	 esi

; 426  : 	}
; 427  : }

  00042	5d		 pop	 ebp
  00043	c2 04 00	 ret	 4
?AddShowingPortalID@CMapManager@@QAEXH@Z ENDP		; CMapManager::AddShowingPortalID
_TEXT	ENDS
; Function compile flags: /Ogtp
; File C:\DS Project\DS Files\Source\ClientSource\Client\GameLib\MapManager.cpp
;	COMDAT ?ClearPortal@CMapManager@@QAEXXZ
_TEXT	SEGMENT
_pArea$1 = -4						; size = 4
?ClearPortal@CMapManager@@QAEXXZ PROC			; CMapManager::ClearPortal, COMDAT
; _this$ = ecx

; 398  : {

  00000	55		 push	 ebp
  00001	8b ec		 mov	 ebp, esp
  00003	51		 push	 ecx
  00004	56		 push	 esi
  00005	8b f1		 mov	 esi, ecx

; 399  : 	if (!IsMapReady())

  00007	e8 00 00 00 00	 call	 ?IsMapReady@CMapManager@@QAE_NXZ ; CMapManager::IsMapReady
  0000c	84 c0		 test	 al, al
  0000e	74 2f		 je	 SHORT $LN3@ClearPorta

; 400  : 		return;
; 401  : 
; 402  : 	CMapOutdoor & rMap = GetMapOutdoorRef();

  00010	57		 push	 edi
  00011	8b ce		 mov	 ecx, esi
  00013	e8 00 00 00 00	 call	 ?GetMapOutdoorRef@CMapManager@@QAEAAVCMapOutdoor@@XZ ; CMapManager::GetMapOutdoorRef
  00018	8b f8		 mov	 edi, eax

; 403  : 	for (int i = 0; i < AROUND_AREA_NUM; ++i)

  0001a	33 f6		 xor	 esi, esi
  0001c	0f 1f 40 00	 npad	 4
$LL4@ClearPorta:

; 404  : 	{
; 405  : 		CArea * pArea;
; 406  : 		if (!rMap.GetAreaPointer(i, &pArea))

  00020	8d 45 fc	 lea	 eax, DWORD PTR _pArea$1[ebp]
  00023	8b cf		 mov	 ecx, edi
  00025	50		 push	 eax
  00026	56		 push	 esi
  00027	e8 00 00 00 00	 call	 ?GetAreaPointer@CMapOutdoor@@QAEHEPAPAVCArea@@@Z ; CMapOutdoor::GetAreaPointer
  0002c	85 c0		 test	 eax, eax
  0002e	74 08		 je	 SHORT $LN2@ClearPorta

; 407  : 			continue;
; 408  : 
; 409  : 		pArea->ClearPortal();

  00030	8b 4d fc	 mov	 ecx, DWORD PTR _pArea$1[ebp]
  00033	e8 00 00 00 00	 call	 ?ClearPortal@CArea@@QAEXXZ ; CArea::ClearPortal
$LN2@ClearPorta:

; 403  : 	for (int i = 0; i < AROUND_AREA_NUM; ++i)

  00038	46		 inc	 esi
  00039	83 fe 09	 cmp	 esi, 9
  0003c	7c e2		 jl	 SHORT $LL4@ClearPorta
  0003e	5f		 pop	 edi
$LN3@ClearPorta:
  0003f	5e		 pop	 esi

; 410  : 	}
; 411  : }

  00040	8b e5		 mov	 esp, ebp
  00042	5d		 pop	 ebp
  00043	c3		 ret	 0
?ClearPortal@CMapManager@@QAEXXZ ENDP			; CMapManager::ClearPortal
_TEXT	ENDS
; Function compile flags: /Ogtp
; File C:\DS Project\DS Files\Source\ClientSource\Client\GameLib\MapManager.cpp
;	COMDAT ?RefreshPortal@CMapManager@@QAEXXZ
_TEXT	SEGMENT
_pArea$1 = -4						; size = 4
?RefreshPortal@CMapManager@@QAEXXZ PROC			; CMapManager::RefreshPortal, COMDAT
; _this$ = ecx

; 382  : {

  00000	55		 push	 ebp
  00001	8b ec		 mov	 ebp, esp
  00003	51		 push	 ecx
  00004	56		 push	 esi
  00005	8b f1		 mov	 esi, ecx

; 383  : 	if (!IsMapReady())

  00007	e8 00 00 00 00	 call	 ?IsMapReady@CMapManager@@QAE_NXZ ; CMapManager::IsMapReady
  0000c	84 c0		 test	 al, al
  0000e	74 2f		 je	 SHORT $LN3@RefreshPor

; 384  : 		return;
; 385  : 
; 386  : 	CMapOutdoor & rMap = GetMapOutdoorRef();

  00010	57		 push	 edi
  00011	8b ce		 mov	 ecx, esi
  00013	e8 00 00 00 00	 call	 ?GetMapOutdoorRef@CMapManager@@QAEAAVCMapOutdoor@@XZ ; CMapManager::GetMapOutdoorRef
  00018	8b f8		 mov	 edi, eax

; 387  : 	for (int i = 0; i < AROUND_AREA_NUM; ++i)

  0001a	33 f6		 xor	 esi, esi
  0001c	0f 1f 40 00	 npad	 4
$LL4@RefreshPor:

; 388  : 	{
; 389  : 		CArea * pArea;
; 390  : 		if (!rMap.GetAreaPointer(i, &pArea))

  00020	8d 45 fc	 lea	 eax, DWORD PTR _pArea$1[ebp]
  00023	8b cf		 mov	 ecx, edi
  00025	50		 push	 eax
  00026	56		 push	 esi
  00027	e8 00 00 00 00	 call	 ?GetAreaPointer@CMapOutdoor@@QAEHEPAPAVCArea@@@Z ; CMapOutdoor::GetAreaPointer
  0002c	85 c0		 test	 eax, eax
  0002e	74 08		 je	 SHORT $LN2@RefreshPor

; 391  : 			continue;
; 392  : 
; 393  : 		pArea->RefreshPortal();

  00030	8b 4d fc	 mov	 ecx, DWORD PTR _pArea$1[ebp]
  00033	e8 00 00 00 00	 call	 ?RefreshPortal@CArea@@QAEXXZ ; CArea::RefreshPortal
$LN2@RefreshPor:

; 387  : 	for (int i = 0; i < AROUND_AREA_NUM; ++i)

  00038	46		 inc	 esi
  00039	83 fe 09	 cmp	 esi, 9
  0003c	7c e2		 jl	 SHORT $LL4@RefreshPor
  0003e	5f		 pop	 edi
$LN3@RefreshPor:
  0003f	5e		 pop	 esi

; 394  : 	}
; 395  : }

  00040	8b e5		 mov	 esp, ebp
  00042	5d		 pop	 ebp
  00043	c3		 ret	 0
?RefreshPortal@CMapManager@@QAEXXZ ENDP			; CMapManager::RefreshPortal
_TEXT	ENDS
; Function compile flags: /Ogtp
; File C:\DS Project\DS Files\Source\ClientSource\Client\GameLib\MapManager.cpp
; File C:\Program Files (x86)\Microsoft Visual Studio\2019\Community\VC\Tools\MSVC\14.27.29110\include\xtree
; File C:\DS Project\DS Files\Source\ClientSource\Client\GameLib\MapManager.cpp
; File C:\Program Files (x86)\Microsoft Visual Studio\2019\Community\VC\Tools\MSVC\14.27.29110\include\xtree
; File C:\Program Files (x86)\Microsoft Visual Studio\2019\Community\VC\Tools\MSVC\14.27.29110\include\xstddef
; File C:\Program Files (x86)\Microsoft Visual Studio\2019\Community\VC\Tools\MSVC\14.27.29110\include\xtree
; File C:\DS Project\DS Files\Source\ClientSource\Client\GameLib\MapManager.cpp
;	COMDAT ?GetEnvironmentData@CMapManager@@QAE_NKPAPBUSEnvironmentData@@@Z
_TEXT	SEGMENT
__Loc$1 = -12						; size = 12
_dwIndex$ = 8						; size = 4
_c_ppEnvironmentData$ = 12				; size = 4
?GetEnvironmentData@CMapManager@@QAE_NKPAPBUSEnvironmentData@@@Z PROC ; CMapManager::GetEnvironmentData, COMDAT
; _this$ = ecx

; 368  : {

  00000	55		 push	 ebp
  00001	8b ec		 mov	 ebp, esp
  00003	83 ec 0c	 sub	 esp, 12			; 0000000cH
  00006	56		 push	 esi
; File C:\Program Files (x86)\Microsoft Visual Studio\2019\Community\VC\Tools\MSVC\14.27.29110\include\xtree

; 1458 :         const _Tree_find_result<_Nodeptr> _Loc = _Find_lower_bound(_Keyval);

  00007	8d 45 08	 lea	 eax, DWORD PTR _dwIndex$[ebp]
  0000a	50		 push	 eax
; File C:\DS Project\DS Files\Source\ClientSource\Client\GameLib\MapManager.cpp

; 369  : 	TEnvironmentDataMap::iterator itor = m_EnvironmentDataMap.find(dwIndex);

  0000b	8d b1 24 14 00
	00		 lea	 esi, DWORD PTR [ecx+5156]
; File C:\Program Files (x86)\Microsoft Visual Studio\2019\Community\VC\Tools\MSVC\14.27.29110\include\xtree

; 1458 :         const _Tree_find_result<_Nodeptr> _Loc = _Find_lower_bound(_Keyval);

  00011	8d 45 f4	 lea	 eax, DWORD PTR __Loc$1[ebp]
  00014	8b ce		 mov	 ecx, esi
  00016	50		 push	 eax
  00017	e8 00 00 00 00	 call	 ??$_Find_lower_bound@K@?$_Tree@V?$_Tmap_traits@KPAUSEnvironmentData@@U?$less@K@std@@V?$allocator@U?$pair@$$CBKPAUSEnvironmentData@@@std@@@3@$0A@@std@@@std@@IBE?AU?$_Tree_find_result@PAU?$_Tree_node@U?$pair@$$CBKPAUSEnvironmentData@@@std@@PAX@std@@@1@ABK@Z ; std::_Tree<std::_Tmap_traits<unsigned long,SEnvironmentData *,std::less<unsigned long>,std::allocator<std::pair<unsigned long const ,SEnvironmentData *> >,0> >::_Find_lower_bound<unsigned long>

; 1695 :         return !_Bound->_Isnil && !_DEBUG_LT_PRED(_Getcomp(), _Keyval, _Traits::_Kfn(_Bound->_Myval));

  0001c	8b 4d fc	 mov	 ecx, DWORD PTR __Loc$1[ebp+8]
  0001f	80 79 0d 00	 cmp	 BYTE PTR [ecx+13], 0
  00023	75 1d		 jne	 SHORT $LN38@GetEnviron
; File C:\Program Files (x86)\Microsoft Visual Studio\2019\Community\VC\Tools\MSVC\14.27.29110\include\xstddef

; 127  :         return _Left < _Right;

  00025	8b 45 08	 mov	 eax, DWORD PTR _dwIndex$[ebp]
  00028	3b 41 10	 cmp	 eax, DWORD PTR [ecx+16]
; File C:\Program Files (x86)\Microsoft Visual Studio\2019\Community\VC\Tools\MSVC\14.27.29110\include\xtree

; 1695 :         return !_Bound->_Isnil && !_DEBUG_LT_PRED(_Getcomp(), _Keyval, _Traits::_Kfn(_Bound->_Myval));

  0002b	72 15		 jb	 SHORT $LN38@GetEnviron

; 232  :         return this->_Ptr == _Right._Ptr;

  0002d	39 0e		 cmp	 DWORD PTR [esi], ecx
; File C:\DS Project\DS Files\Source\ClientSource\Client\GameLib\MapManager.cpp

; 371  : 	if (m_EnvironmentDataMap.end() == itor)

  0002f	74 11		 je	 SHORT $LN38@GetEnviron

; 375  : 	}
; 376  : 
; 377  : 	*c_ppEnvironmentData = itor->second;

  00031	8b 45 0c	 mov	 eax, DWORD PTR _c_ppEnvironmentData$[ebp]
  00034	8b 49 14	 mov	 ecx, DWORD PTR [ecx+20]
  00037	5e		 pop	 esi
  00038	89 08		 mov	 DWORD PTR [eax], ecx

; 378  : 	return true;

  0003a	b0 01		 mov	 al, 1

; 379  : }

  0003c	8b e5		 mov	 esp, ebp
  0003e	5d		 pop	 ebp
  0003f	c2 08 00	 ret	 8
$LN38@GetEnviron:

; 372  : 	{
; 373  : 		*c_ppEnvironmentData = NULL;

  00042	8b 45 0c	 mov	 eax, DWORD PTR _c_ppEnvironmentData$[ebp]
  00045	5e		 pop	 esi
  00046	c7 00 00 00 00
	00		 mov	 DWORD PTR [eax], 0

; 374  : 		return false;

  0004c	32 c0		 xor	 al, al

; 379  : }

  0004e	8b e5		 mov	 esp, ebp
  00050	5d		 pop	 ebp
  00051	c2 08 00	 ret	 8
?GetEnvironmentData@CMapManager@@QAE_NKPAPBUSEnvironmentData@@@Z ENDP ; CMapManager::GetEnvironmentData
_TEXT	ENDS
; Function compile flags: /Ogtp
; File C:\DS Project\DS Files\Source\ClientSource\Client\GameLib\MapManager.cpp
; File C:\Program Files (x86)\Microsoft Visual Studio\2019\Community\VC\Tools\MSVC\14.27.29110\include\xtree
; File C:\DS Project\DS Files\Source\ClientSource\Client\GameLib\MapManager.cpp
; File C:\Program Files (x86)\Microsoft Visual Studio\2019\Community\VC\Tools\MSVC\14.27.29110\include\xtree
; File C:\Program Files (x86)\Microsoft Visual Studio\2019\Community\VC\Tools\MSVC\14.27.29110\include\xstddef
; File C:\Program Files (x86)\Microsoft Visual Studio\2019\Community\VC\Tools\MSVC\14.27.29110\include\xtree
; File C:\DS Project\DS Files\Source\ClientSource\Client\GameLib\MapManager.cpp
; File C:\Program Files (x86)\Microsoft Visual Studio\2019\Community\VC\Tools\MSVC\14.27.29110\include\utility
; File C:\Program Files (x86)\Microsoft Visual Studio\2019\Community\VC\Tools\MSVC\14.27.29110\include\xtree
; File C:\Program Files (x86)\Microsoft Visual Studio\2019\Community\VC\Tools\MSVC\14.27.29110\include\utility
; File C:\Program Files (x86)\Microsoft Visual Studio\2019\Community\VC\Tools\MSVC\14.27.29110\include\xtree
; File C:\Program Files (x86)\Microsoft Visual Studio\2019\Community\VC\Tools\MSVC\14.27.29110\include\xstddef
; File C:\Program Files (x86)\Microsoft Visual Studio\2019\Community\VC\Tools\MSVC\14.27.29110\include\xtree
; File C:\Program Files (x86)\Microsoft Visual Studio\2019\Community\VC\Tools\MSVC\14.27.29110\include\xmemory
; File C:\Program Files (x86)\Microsoft Visual Studio\2019\Community\VC\Tools\MSVC\14.27.29110\include\xtree
; File C:\Program Files (x86)\Microsoft Visual Studio\2019\Community\VC\Tools\MSVC\14.27.29110\include\xmemory
; File C:\Program Files (x86)\Microsoft Visual Studio\2019\Community\VC\Tools\MSVC\14.27.29110\include\xtree
; File C:\DS Project\DS Files\Source\ClientSource\Client\GameLib\MapManager.cpp
; File C:\Program Files (x86)\Microsoft Visual Studio\2019\Community\VC\Tools\MSVC\14.27.29110\include\xtree
; File C:\DS Project\DS Files\Source\ClientSource\Client\GameLib\MapManager.cpp
;	COMDAT ?RegisterEnvironmentData@CMapManager@@QAE_NKPBD@Z
_TEXT	SEGMENT
$T2 = -44						; size = 12
__Loc$3 = -32						; size = 12
__Loc$4 = -32						; size = 12
$T5 = -20						; size = 8
$T6 = -20						; size = 8
__$EHRec$ = -12						; size = 12
_dwIndex$ = 8						; size = 4
__Myhead$7 = 12						; size = 4
_c_szFileName$ = 12					; size = 4
?RegisterEnvironmentData@CMapManager@@QAE_NKPBD@Z PROC	; CMapManager::RegisterEnvironmentData, COMDAT
; _this$ = ecx

; 340  : {

  00000	55		 push	 ebp
  00001	8b ec		 mov	 ebp, esp
  00003	6a ff		 push	 -1
  00005	68 00 00 00 00	 push	 __ehhandler$?RegisterEnvironmentData@CMapManager@@QAE_NKPBD@Z
  0000a	64 a1 00 00 00
	00		 mov	 eax, DWORD PTR fs:0
  00010	50		 push	 eax
  00011	83 ec 20	 sub	 esp, 32			; 00000020H
  00014	53		 push	 ebx
  00015	56		 push	 esi
  00016	57		 push	 edi
  00017	a1 00 00 00 00	 mov	 eax, DWORD PTR ___security_cookie
  0001c	33 c5		 xor	 eax, ebp
  0001e	50		 push	 eax
  0001f	8d 45 f4	 lea	 eax, DWORD PTR __$EHRec$[ebp]
  00022	64 a3 00 00 00
	00		 mov	 DWORD PTR fs:0, eax
  00028	8b f9		 mov	 edi, ecx

; 341  : 	TEnvironmentData * pEnvironmentData = AllocEnvironmentData();

  0002a	e8 00 00 00 00	 call	 ?AllocEnvironmentData@CMapManager@@IAEPAUSEnvironmentData@@XZ ; CMapManager::AllocEnvironmentData
  0002f	8b d8		 mov	 ebx, eax

; 342  : 
; 343  : 	if (!LoadEnvironmentData(c_szFileName, pEnvironmentData))

  00031	8b cf		 mov	 ecx, edi
  00033	53		 push	 ebx
  00034	ff 75 0c	 push	 DWORD PTR _c_szFileName$[ebp]
  00037	e8 00 00 00 00	 call	 ?LoadEnvironmentData@CMapManager@@IAEHPBDPAUSEnvironmentData@@@Z ; CMapManager::LoadEnvironmentData
  0003c	85 c0		 test	 eax, eax
  0003e	75 1e		 jne	 SHORT $LN2@RegisterEn

; 344  : 	{
; 345  : 		DeleteEnvironmentData(pEnvironmentData);

  00040	53		 push	 ebx
  00041	8b cf		 mov	 ecx, edi
  00043	e8 00 00 00 00	 call	 ?DeleteEnvironmentData@CMapManager@@IAEXPAUSEnvironmentData@@@Z ; CMapManager::DeleteEnvironmentData

; 346  : 		return false;

  00048	32 c0		 xor	 al, al

; 360  : }

  0004a	8b 4d f4	 mov	 ecx, DWORD PTR __$EHRec$[ebp]
  0004d	64 89 0d 00 00
	00 00		 mov	 DWORD PTR fs:0, ecx
  00054	59		 pop	 ecx
  00055	5f		 pop	 edi
  00056	5e		 pop	 esi
  00057	5b		 pop	 ebx
  00058	8b e5		 mov	 esp, ebp
  0005a	5d		 pop	 ebp
  0005b	c2 08 00	 ret	 8
$LN2@RegisterEn:
; File C:\Program Files (x86)\Microsoft Visual Studio\2019\Community\VC\Tools\MSVC\14.27.29110\include\xtree

; 1458 :         const _Tree_find_result<_Nodeptr> _Loc = _Find_lower_bound(_Keyval);

  0005e	8d 45 08	 lea	 eax, DWORD PTR _dwIndex$[ebp]
; File C:\DS Project\DS Files\Source\ClientSource\Client\GameLib\MapManager.cpp

; 349  : 	TEnvironmentDataMap::iterator f=m_EnvironmentDataMap.find(dwIndex);

  00061	81 c7 24 14 00
	00		 add	 edi, 5156		; 00001424H
; File C:\Program Files (x86)\Microsoft Visual Studio\2019\Community\VC\Tools\MSVC\14.27.29110\include\xtree

; 1458 :         const _Tree_find_result<_Nodeptr> _Loc = _Find_lower_bound(_Keyval);

  00067	50		 push	 eax
  00068	8d 45 e0	 lea	 eax, DWORD PTR __Loc$4[ebp]
  0006b	8b cf		 mov	 ecx, edi
  0006d	50		 push	 eax
  0006e	e8 00 00 00 00	 call	 ??$_Find_lower_bound@K@?$_Tree@V?$_Tmap_traits@KPAUSEnvironmentData@@U?$less@K@std@@V?$allocator@U?$pair@$$CBKPAUSEnvironmentData@@@std@@@3@$0A@@std@@@std@@IBE?AU?$_Tree_find_result@PAU?$_Tree_node@U?$pair@$$CBKPAUSEnvironmentData@@@std@@PAX@std@@@1@ABK@Z ; std::_Tree<std::_Tmap_traits<unsigned long,SEnvironmentData *,std::less<unsigned long>,std::allocator<std::pair<unsigned long const ,SEnvironmentData *> >,0> >::_Find_lower_bound<unsigned long>

; 1695 :         return !_Bound->_Isnil && !_DEBUG_LT_PRED(_Getcomp(), _Keyval, _Traits::_Kfn(_Bound->_Myval));

  00073	8b 75 e8	 mov	 esi, DWORD PTR __Loc$4[ebp+8]
  00076	8b 45 08	 mov	 eax, DWORD PTR _dwIndex$[ebp]
  00079	80 7e 0d 00	 cmp	 BYTE PTR [esi+13], 0
  0007d	75 05		 jne	 SHORT $LN11@RegisterEn
; File C:\Program Files (x86)\Microsoft Visual Studio\2019\Community\VC\Tools\MSVC\14.27.29110\include\xstddef

; 127  :         return _Left < _Right;

  0007f	3b 46 10	 cmp	 eax, DWORD PTR [esi+16]
; File C:\Program Files (x86)\Microsoft Visual Studio\2019\Community\VC\Tools\MSVC\14.27.29110\include\xtree

; 1695 :         return !_Bound->_Isnil && !_DEBUG_LT_PRED(_Getcomp(), _Keyval, _Traits::_Kfn(_Bound->_Myval));

  00082	73 02		 jae	 SHORT $LN10@RegisterEn
$LN11@RegisterEn:

; 1463 :         return _Get_scary()->_Myhead;

  00084	8b 37		 mov	 esi, DWORD PTR [edi]
$LN10@RegisterEn:

; 39   :     _Tree_unchecked_const_iterator(_Nodeptr _Pnode, const _Mytree* _Plist) noexcept : _Ptr(_Pnode) {

  00086	39 37		 cmp	 DWORD PTR [edi], esi
; File C:\DS Project\DS Files\Source\ClientSource\Client\GameLib\MapManager.cpp

; 350  : 	if (m_EnvironmentDataMap.end()==f)

  00088	0f 85 a5 00 00
	00		 jne	 $LN3@RegisterEn
; File C:\Program Files (x86)\Microsoft Visual Studio\2019\Community\VC\Tools\MSVC\14.27.29110\include\utility

; 192  :         : first(_STD forward<_Other1>(_Val1)), second(_STD forward<_Other2>(_Val2)) {}

  0008e	89 45 ec	 mov	 DWORD PTR $T6[ebp], eax
; File C:\Program Files (x86)\Microsoft Visual Studio\2019\Community\VC\Tools\MSVC\14.27.29110\include\xtree

; 1009 :             _Loc                = _Find_lower_bound(_Keyval);

  00091	8b cf		 mov	 ecx, edi
  00093	8d 45 ec	 lea	 eax, DWORD PTR $T6[ebp]
; File C:\Program Files (x86)\Microsoft Visual Studio\2019\Community\VC\Tools\MSVC\14.27.29110\include\utility

; 192  :         : first(_STD forward<_Other1>(_Val1)), second(_STD forward<_Other2>(_Val2)) {}

  00096	89 5d f0	 mov	 DWORD PTR $T6[ebp+4], ebx
; File C:\Program Files (x86)\Microsoft Visual Studio\2019\Community\VC\Tools\MSVC\14.27.29110\include\xtree

; 1009 :             _Loc                = _Find_lower_bound(_Keyval);

  00099	50		 push	 eax
  0009a	8d 45 d4	 lea	 eax, DWORD PTR $T2[ebp]
  0009d	50		 push	 eax
  0009e	e8 00 00 00 00	 call	 ??$_Find_lower_bound@K@?$_Tree@V?$_Tmap_traits@KPAUSEnvironmentData@@U?$less@K@std@@V?$allocator@U?$pair@$$CBKPAUSEnvironmentData@@@std@@@3@$0A@@std@@@std@@IBE?AU?$_Tree_find_result@PAU?$_Tree_node@U?$pair@$$CBKPAUSEnvironmentData@@@std@@PAX@std@@@1@ABK@Z ; std::_Tree<std::_Tmap_traits<unsigned long,SEnvironmentData *,std::less<unsigned long>,std::allocator<std::pair<unsigned long const ,SEnvironmentData *> >,0> >::_Find_lower_bound<unsigned long>
  000a3	8b 48 08	 mov	 ecx, DWORD PTR [eax+8]
  000a6	f3 0f 7e 00	 movq	 xmm0, QWORD PTR [eax]
  000aa	66 0f d6 45 e0	 movq	 QWORD PTR __Loc$3[ebp], xmm0

; 1695 :         return !_Bound->_Isnil && !_DEBUG_LT_PRED(_Getcomp(), _Keyval, _Traits::_Kfn(_Bound->_Myval));

  000af	80 79 0d 00	 cmp	 BYTE PTR [ecx+13], 0
  000b3	75 0c		 jne	 SHORT $LN45@RegisterEn
; File C:\Program Files (x86)\Microsoft Visual Studio\2019\Community\VC\Tools\MSVC\14.27.29110\include\xstddef

; 127  :         return _Left < _Right;

  000b5	8b 45 08	 mov	 eax, DWORD PTR _dwIndex$[ebp]
  000b8	3b 41 10	 cmp	 eax, DWORD PTR [ecx+16]
; File C:\Program Files (x86)\Microsoft Visual Studio\2019\Community\VC\Tools\MSVC\14.27.29110\include\xtree

; 1695 :         return !_Bound->_Isnil && !_DEBUG_LT_PRED(_Getcomp(), _Keyval, _Traits::_Kfn(_Bound->_Myval));

  000bb	0f 83 83 00 00
	00		 jae	 $LN4@RegisterEn
$LN45@RegisterEn:

; 1719 :         if (max_size() == _Get_scary()->_Mysize) {

  000c1	81 7f 04 aa aa
	aa 0a		 cmp	 DWORD PTR [edi+4], 178956970 ; 0aaaaaaaH
  000c8	0f 84 8c 00 00
	00		 je	 $LN120@RegisterEn

; 1015 :             _Inserted = _Tree_temp_node<_Alnode>(_Getal(), _Scary->_Myhead, _STD forward<_Valtys>(_Vals)...)._Release();

  000ce	8b 07		 mov	 eax, DWORD PTR [edi]
  000d0	89 45 0c	 mov	 DWORD PTR __Myhead$7[ebp], eax
; File C:\Program Files (x86)\Microsoft Visual Studio\2019\Community\VC\Tools\MSVC\14.27.29110\include\xmemory

; 1040 :     explicit _Alloc_construct_ptr(_Alloc& _Al_) : _Al(_Al_), _Ptr(nullptr) {}

  000d3	89 7d ec	 mov	 DWORD PTR $T5[ebp], edi

; 807  :         return static_cast<_Ty*>(_Allocate<_New_alignof<_Ty>>(_Get_size_of_n<sizeof(_Ty)>(_Count)));

  000d6	6a 18		 push	 24			; 00000018H
; File C:\Program Files (x86)\Microsoft Visual Studio\2019\Community\VC\Tools\MSVC\14.27.29110\include\xtree

; 784  :     explicit _Tree_temp_node_alloc(_Alnode& _Al_) : _Alloc_construct_ptr<_Alnode>(_Al_) {

  000d8	c7 45 fc 00 00
	00 00		 mov	 DWORD PTR __$EHRec$[ebp+8], 0
; File C:\Program Files (x86)\Microsoft Visual Studio\2019\Community\VC\Tools\MSVC\14.27.29110\include\xmemory

; 1047 :         _Ptr = nullptr; // if allocate throws, prevents double-free

  000df	c7 45 f0 00 00
	00 00		 mov	 DWORD PTR $T5[ebp+4], 0

; 807  :         return static_cast<_Ty*>(_Allocate<_New_alignof<_Ty>>(_Get_size_of_n<sizeof(_Ty)>(_Count)));

  000e6	e8 00 00 00 00	 call	 ??$_Allocate@$07U_Default_allocate_traits@std@@$0A@@std@@YAPAXI@Z ; std::_Allocate<8,std::_Default_allocate_traits,0>

; 1048 :         _Ptr = _Al.allocate(1);

  000eb	8b f0		 mov	 esi, eax
; File C:\Program Files (x86)\Microsoft Visual Studio\2019\Community\VC\Tools\MSVC\14.27.29110\include\xtree

; 806  :         _Alnode_traits::construct(this->_Al, _STD addressof(this->_Ptr->_Myval), _STD forward<_Valtys>(_Vals)...);

  000ed	8b 45 08	 mov	 eax, DWORD PTR _dwIndex$[ebp]
  000f0	89 46 10	 mov	 DWORD PTR [esi+16], eax

; 807  :         _Construct_in_place(this->_Ptr->_Left, _Myhead);

  000f3	8d 45 0c	 lea	 eax, DWORD PTR __Myhead$7[ebp]
  000f6	50		 push	 eax
  000f7	56		 push	 esi
  000f8	89 5e 14	 mov	 DWORD PTR [esi+20], ebx
  000fb	e8 00 00 00 00	 call	 ??$_Construct_in_place@PAU?$_Tree_node@U?$pair@$$CBKPAUSEnvironmentData@@@std@@PAX@std@@AAPAU12@@std@@YAXAAPAU?$_Tree_node@U?$pair@$$CBKPAUSEnvironmentData@@@std@@PAX@0@0@Z ; std::_Construct_in_place<std::_Tree_node<std::pair<unsigned long const ,SEnvironmentData *>,void *> *,std::_Tree_node<std::pair<unsigned long const ,SEnvironmentData *>,void *> * &>

; 808  :         _Construct_in_place(this->_Ptr->_Parent, _Myhead);

  00100	8d 45 0c	 lea	 eax, DWORD PTR __Myhead$7[ebp]
  00103	50		 push	 eax
  00104	8d 46 04	 lea	 eax, DWORD PTR [esi+4]
  00107	50		 push	 eax
  00108	e8 00 00 00 00	 call	 ??$_Construct_in_place@PAU?$_Tree_node@U?$pair@$$CBKPAUSEnvironmentData@@@std@@PAX@std@@AAPAU12@@std@@YAXAAPAU?$_Tree_node@U?$pair@$$CBKPAUSEnvironmentData@@@std@@PAX@0@0@Z ; std::_Construct_in_place<std::_Tree_node<std::pair<unsigned long const ,SEnvironmentData *>,void *> *,std::_Tree_node<std::pair<unsigned long const ,SEnvironmentData *>,void *> * &>

; 809  :         _Construct_in_place(this->_Ptr->_Right, _Myhead);

  0010d	8d 45 0c	 lea	 eax, DWORD PTR __Myhead$7[ebp]
  00110	50		 push	 eax
  00111	8d 46 08	 lea	 eax, DWORD PTR [esi+8]
  00114	50		 push	 eax
  00115	e8 00 00 00 00	 call	 ??$_Construct_in_place@PAU?$_Tree_node@U?$pair@$$CBKPAUSEnvironmentData@@@std@@PAX@std@@AAPAU12@@std@@YAXAAPAU?$_Tree_node@U?$pair@$$CBKPAUSEnvironmentData@@@std@@PAX@0@0@Z ; std::_Construct_in_place<std::_Tree_node<std::pair<unsigned long const ,SEnvironmentData *>,void *> *,std::_Tree_node<std::pair<unsigned long const ,SEnvironmentData *>,void *> * &>
  0011a	83 c4 1c	 add	 esp, 28			; 0000001cH

; 810  :         this->_Ptr->_Color = _Red;

  0011d	66 c7 46 0c 00
	00		 mov	 WORD PTR [esi+12], 0

; 1034 :         return {_Scary->_Insert_node(_Loc._Location, _Inserted), true};

  00123	8b cf		 mov	 ecx, edi
  00125	56		 push	 esi
  00126	ff 75 e4	 push	 DWORD PTR __Loc$3[ebp+4]
  00129	ff 75 e0	 push	 DWORD PTR __Loc$3[ebp]
  0012c	e8 00 00 00 00	 call	 ?_Insert_node@?$_Tree_val@U?$_Tree_simple_types@U?$pair@$$CBKPAUSEnvironmentData@@@std@@@std@@@std@@QAEPAU?$_Tree_node@U?$pair@$$CBKPAUSEnvironmentData@@@std@@PAX@2@U?$_Tree_id@PAU?$_Tree_node@U?$pair@$$CBKPAUSEnvironmentData@@@std@@PAX@std@@@2@QAU32@@Z ; std::_Tree_val<std::_Tree_simple_types<std::pair<unsigned long const ,SEnvironmentData *> > >::_Insert_node
; File C:\DS Project\DS Files\Source\ClientSource\Client\GameLib\MapManager.cpp

; 353  : 	}

  00131	eb 11		 jmp	 SHORT $LN4@RegisterEn
$LN3@RegisterEn:

; 354  : 	else
; 355  : 	{
; 356  : 		delete f->second;

  00133	8b 4e 14	 mov	 ecx, DWORD PTR [esi+20]
  00136	85 c9		 test	 ecx, ecx
  00138	74 07		 je	 SHORT $LN6@RegisterEn
  0013a	6a 01		 push	 1
  0013c	e8 00 00 00 00	 call	 ??_GSEnvironmentData@@QAEPAXI@Z
$LN6@RegisterEn:

; 357  : 		f->second=pEnvironmentData;

  00141	89 5e 14	 mov	 DWORD PTR [esi+20], ebx
$LN4@RegisterEn:

; 358  : 	}
; 359  : 	return true;

  00144	b0 01		 mov	 al, 1

; 360  : }

  00146	8b 4d f4	 mov	 ecx, DWORD PTR __$EHRec$[ebp]
  00149	64 89 0d 00 00
	00 00		 mov	 DWORD PTR fs:0, ecx
  00150	59		 pop	 ecx
  00151	5f		 pop	 edi
  00152	5e		 pop	 esi
  00153	5b		 pop	 ebx
  00154	8b e5		 mov	 esp, ebp
  00156	5d		 pop	 ebp
  00157	c2 08 00	 ret	 8
$LN120@RegisterEn:
; File C:\Program Files (x86)\Microsoft Visual Studio\2019\Community\VC\Tools\MSVC\14.27.29110\include\xtree

; 1720 :             _Throw_tree_length_error();

  0015a	e8 00 00 00 00	 call	 ?_Throw_tree_length_error@std@@YAXXZ ; std::_Throw_tree_length_error
$LN118@RegisterEn:
  0015f	cc		 int	 3
_TEXT	ENDS
;	COMDAT text$x
text$x	SEGMENT
__unwindfunclet$?RegisterEnvironmentData@CMapManager@@QAE_NKPBD@Z$2:
  00000	8d 4d ec	 lea	 ecx, DWORD PTR $T5[ebp]
  00003	e9 00 00 00 00	 jmp	 ??1?$_Alloc_construct_ptr@V?$allocator@U?$_Tree_node@U?$pair@$$CBKPAUSEnvironmentData@@@std@@PAX@std@@@std@@@std@@QAE@XZ ; std::_Alloc_construct_ptr<std::allocator<std::_Tree_node<std::pair<unsigned long const ,SEnvironmentData *>,void *> > >::~_Alloc_construct_ptr<std::allocator<std::_Tree_node<std::pair<unsigned long const ,SEnvironmentData *>,void *> > >
  00008	cc		 int	 3
  00009	cc		 int	 3
  0000a	cc		 int	 3
  0000b	cc		 int	 3
  0000c	cc		 int	 3
__ehhandler$?RegisterEnvironmentData@CMapManager@@QAE_NKPBD@Z:
  0000d	90		 npad	 1
  0000e	90		 npad	 1
  0000f	8b 54 24 08	 mov	 edx, DWORD PTR [esp+8]
  00013	8d 42 0c	 lea	 eax, DWORD PTR [edx+12]
  00016	8b 4a d0	 mov	 ecx, DWORD PTR [edx-48]
  00019	33 c8		 xor	 ecx, eax
  0001b	e8 00 00 00 00	 call	 @__security_check_cookie@4
  00020	b8 00 00 00 00	 mov	 eax, OFFSET __ehfuncinfo$?RegisterEnvironmentData@CMapManager@@QAE_NKPBD@Z
  00025	e9 00 00 00 00	 jmp	 ___CxxFrameHandler3
text$x	ENDS
?RegisterEnvironmentData@CMapManager@@QAE_NKPBD@Z ENDP	; CMapManager::RegisterEnvironmentData
; Function compile flags: /Ogtp
; File C:\DS Project\DS Files\Source\ClientSource\Client\GameLib\MapManager.cpp
;	COMDAT ?GetCurrentEnvironmentData@CMapManager@@QAEXPAPBUSEnvironmentData@@@Z
_TEXT	SEGMENT
_c_ppEnvironmentData$ = 8				; size = 4
?GetCurrentEnvironmentData@CMapManager@@QAEXPAPBUSEnvironmentData@@@Z PROC ; CMapManager::GetCurrentEnvironmentData, COMDAT
; _this$ = ecx

; 363  : {

  00000	55		 push	 ebp
  00001	8b ec		 mov	 ebp, esp

; 364  : 	*c_ppEnvironmentData = mc_pcurEnvironmentData;

  00003	8b 45 08	 mov	 eax, DWORD PTR _c_ppEnvironmentData$[ebp]
  00006	8b 89 2c 14 00
	00		 mov	 ecx, DWORD PTR [ecx+5164]
  0000c	89 08		 mov	 DWORD PTR [eax], ecx

; 365  : }

  0000e	5d		 pop	 ebp
  0000f	c2 04 00	 ret	 4
?GetCurrentEnvironmentData@CMapManager@@QAEXPAPBUSEnvironmentData@@@Z ENDP ; CMapManager::GetCurrentEnvironmentData
_TEXT	ENDS
; Function compile flags: /Ogtp
; File C:\DS Project\DS Files\Source\ClientSource\Client\GameLib\MapManager.cpp
;	COMDAT ?BlendEnvironmentData@CMapManager@@QAEXPBUSEnvironmentData@@H@Z
_TEXT	SEGMENT
_c_pEnvironmentData$ = 8				; size = 4
_iTransitionTime$ = 12					; size = 4
?BlendEnvironmentData@CMapManager@@QAEXPBUSEnvironmentData@@H@Z PROC ; CMapManager::BlendEnvironmentData, COMDAT
; _this$ = ecx

; 337  : }

  00000	c2 08 00	 ret	 8
?BlendEnvironmentData@CMapManager@@QAEXPBUSEnvironmentData@@H@Z ENDP ; CMapManager::BlendEnvironmentData
_TEXT	ENDS
; Function compile flags: /Ogtp
; File C:\DS Project\DS Files\Source\ClientSource\Client\GameLib\MapManager.cpp
;	COMDAT ?EndEnvironment@CMapManager@@QAEXXZ
_TEXT	SEGMENT
?EndEnvironment@CMapManager@@QAEXXZ PROC		; CMapManager::EndEnvironment, COMDAT
; _this$ = ecx

; 281  : 	if (!mc_pcurEnvironmentData)

  00000	83 b9 2c 14 00
	00 00		 cmp	 DWORD PTR [ecx+5164], 0
  00007	74 1d		 je	 SHORT $LN1@EndEnviron

; 282  : 		return;
; 283  : 
; 284  : 	STATEMANAGER.RestoreRenderState(D3DRS_LIGHTING);

  00009	8b 0d 00 00 00
	00		 mov	 ecx, DWORD PTR ?ms_singleton@?$CSingleton@VCStateManager@@@@0PAVCStateManager@@A ; CSingleton<CStateManager>::ms_singleton
  0000f	68 89 00 00 00	 push	 137			; 00000089H
  00014	e8 00 00 00 00	 call	 ?RestoreRenderState@CStateManager@@QAEXW4_D3DRENDERSTATETYPE@@@Z ; CStateManager::RestoreRenderState

; 285  : 	STATEMANAGER.RestoreRenderState(D3DRS_FOGENABLE);

  00019	8b 0d 00 00 00
	00		 mov	 ecx, DWORD PTR ?ms_singleton@?$CSingleton@VCStateManager@@@@0PAVCStateManager@@A ; CSingleton<CStateManager>::ms_singleton
  0001f	6a 1c		 push	 28			; 0000001cH
  00021	e8 00 00 00 00	 call	 ?RestoreRenderState@CStateManager@@QAEXW4_D3DRENDERSTATETYPE@@@Z ; CStateManager::RestoreRenderState
$LN1@EndEnviron:

; 286  : }

  00026	c3		 ret	 0
?EndEnvironment@CMapManager@@QAEXXZ ENDP		; CMapManager::EndEnvironment
_TEXT	ENDS
; Function compile flags: /Ogtp
; File C:\DS Project\DS Files\Source\ClientSource\Client\GameLib\MapManager.cpp
; File C:\DS Project\DS Files\Source\ClientSource\extern\include\d3dx8math.inl
; File C:\DS Project\DS Files\Source\ClientSource\Client\GameLib\MapManager.cpp
; File C:\DS Project\DS Files\Source\ClientSource\extern\include\d3dx8math.inl
; File C:\DS Project\DS Files\Source\ClientSource\Client\GameLib\MapManager.cpp
;	COMDAT ?BeginEnvironment@CMapManager@@QAEXXZ
_TEXT	SEGMENT
_dwB$1$ = -12						; size = 4
_fFogNear$1 = -12					; size = 4
_fDensity$2 = -12					; size = 4
_dwG$1$ = -8						; size = 4
_fFogFar$3 = -8						; size = 4
_dwR$1$ = -4						; size = 4
?BeginEnvironment@CMapManager@@QAEXXZ PROC		; CMapManager::BeginEnvironment, COMDAT
; _this$ = ecx

; 220  : {

  00000	55		 push	 ebp
  00001	8b ec		 mov	 ebp, esp
  00003	83 ec 0c	 sub	 esp, 12			; 0000000cH
  00006	57		 push	 edi
  00007	8b f9		 mov	 edi, ecx

; 221  : 	if (!m_pkMap)

  00009	83 bf 30 14 00
	00 00		 cmp	 DWORD PTR [edi+5168], 0
  00010	0f 84 93 02 00
	00		 je	 $LN1@BeginEnvir

; 222  : 		return;
; 223  : 
; 224  : 	if (!mc_pcurEnvironmentData)

  00016	83 bf 2c 14 00
	00 00		 cmp	 DWORD PTR [edi+5164], 0
  0001d	0f 84 86 02 00
	00		 je	 $LN1@BeginEnvir

; 225  : 		return;
; 226  : 
; 227  : 	CMapOutdoor& rkMap=GetMapOutdoorRef();

  00023	53		 push	 ebx
  00024	56		 push	 esi
  00025	e8 00 00 00 00	 call	 ?GetMapOutdoorRef@CMapManager@@QAEAAVCMapOutdoor@@XZ ; CMapManager::GetMapOutdoorRef

; 228  : 
; 229  : 	// Light always on
; 230  :  	STATEMANAGER.SaveRenderState(D3DRS_LIGHTING, TRUE);

  0002a	8b 0d 00 00 00
	00		 mov	 ecx, DWORD PTR ?ms_singleton@?$CSingleton@VCStateManager@@@@0PAVCStateManager@@A ; CSingleton<CStateManager>::ms_singleton
  00030	8b d8		 mov	 ebx, eax
  00032	6a 01		 push	 1
  00034	68 89 00 00 00	 push	 137			; 00000089H
  00039	e8 00 00 00 00	 call	 ?SaveRenderState@CStateManager@@QAEXW4_D3DRENDERSTATETYPE@@K@Z ; CStateManager::SaveRenderState

; 231  : 
; 232  : 	// Fog
; 233  :  	STATEMANAGER.SaveRenderState(D3DRS_FOGENABLE, mc_pcurEnvironmentData->bFogEnable);

  0003e	8b 8f 2c 14 00
	00		 mov	 ecx, DWORD PTR [edi+5164]
  00044	ff b1 1c 01 00
	00		 push	 DWORD PTR [ecx+284]
  0004a	8b 0d 00 00 00
	00		 mov	 ecx, DWORD PTR ?ms_singleton@?$CSingleton@VCStateManager@@@@0PAVCStateManager@@A ; CSingleton<CStateManager>::ms_singleton
  00050	6a 1c		 push	 28			; 0000001cH
  00052	e8 00 00 00 00	 call	 ?SaveRenderState@CStateManager@@QAEXW4_D3DRENDERSTATETYPE@@K@Z ; CStateManager::SaveRenderState

; 234  : 
; 235  : 	// Material
; 236  : 	STATEMANAGER.SetMaterial(&mc_pcurEnvironmentData->Material);

  00057	8b 87 2c 14 00
	00		 mov	 eax, DWORD PTR [edi+5164]
  0005d	8b 0d 00 00 00
	00		 mov	 ecx, DWORD PTR ?ms_singleton@?$CSingleton@VCStateManager@@@@0PAVCStateManager@@A ; CSingleton<CStateManager>::ms_singleton
  00063	05 d8 00 00 00	 add	 eax, 216		; 000000d8H
  00068	50		 push	 eax
  00069	e8 00 00 00 00	 call	 ?SetMaterial@CStateManager@@QAEXPBU_D3DMATERIAL8@@@Z ; CStateManager::SetMaterial

; 237  : 
; 238  : 	// Directional Light
; 239  : 	if (mc_pcurEnvironmentData->bDirLightsEnable[ENV_DIRLIGHT_BACKGROUND])

  0006e	8b 87 2c 14 00
	00		 mov	 eax, DWORD PTR [edi+5164]
  00074	83 38 00	 cmp	 DWORD PTR [eax], 0
  00077	a1 00 00 00 00	 mov	 eax, DWORD PTR ?ms_lpd3dDevice@CGraphicBase@@1PAUIDirect3DDevice8@@A ; CGraphicBase::ms_lpd3dDevice
  0007c	8b 08		 mov	 ecx, DWORD PTR [eax]
  0007e	74 1f		 je	 SHORT $LN4@BeginEnvir

; 240  : 	{
; 241  : 		ms_lpd3dDevice->LightEnable(0, TRUE);

  00080	6a 01		 push	 1
  00082	6a 00		 push	 0
  00084	50		 push	 eax
  00085	ff 91 b8 00 00
	00		 call	 DWORD PTR [ecx+184]

; 242  : 
; 243  : 		rkMap.ApplyLight((DWORD)mc_pcurEnvironmentData, mc_pcurEnvironmentData->DirLights[ENV_DIRLIGHT_BACKGROUND]);

  0008b	8b 8f 2c 14 00
	00		 mov	 ecx, DWORD PTR [edi+5164]
  00091	8b 13		 mov	 edx, DWORD PTR [ebx]
  00093	8d 41 08	 lea	 eax, DWORD PTR [ecx+8]
  00096	50		 push	 eax
  00097	51		 push	 ecx
  00098	8b cb		 mov	 ecx, ebx
  0009a	ff 52 24	 call	 DWORD PTR [edx+36]

; 244  : 	}

  0009d	eb 0b		 jmp	 SHORT $LN5@BeginEnvir
$LN4@BeginEnvir:

; 245  : 	else
; 246  : 		ms_lpd3dDevice->LightEnable(0, FALSE);

  0009f	6a 00		 push	 0
  000a1	6a 00		 push	 0
  000a3	50		 push	 eax
  000a4	ff 91 b8 00 00
	00		 call	 DWORD PTR [ecx+184]
$LN5@BeginEnvir:

; 247  : 
; 248  : 	if (mc_pcurEnvironmentData->bFogEnable)

  000aa	8b b7 2c 14 00
	00		 mov	 esi, DWORD PTR [edi+5164]
  000b0	83 be 1c 01 00
	00 00		 cmp	 DWORD PTR [esi+284], 0
  000b7	0f 84 e3 01 00
	00		 je	 $LN8@BeginEnvir
; File C:\DS Project\DS Files\Source\ClientSource\extern\include\d3dx8math.inl

; 931  :     DWORD dwR = r >= 1.0f ? 0xff : r <= 0.0f ? 0x00 : (DWORD) (r * 255.0f + 0.5f);

  000bd	f3 0f 10 86 2c
	01 00 00	 movss	 xmm0, DWORD PTR [esi+300]
  000c5	0f 57 c9	 xorps	 xmm1, xmm1
  000c8	0f 2f 05 00 00
	00 00		 comiss	 xmm0, DWORD PTR __real@3f800000
  000cf	f3 0f 10 1d 00
	00 00 00	 movss	 xmm3, DWORD PTR __real@437f0000
  000d7	f3 0f 10 25 00
	00 00 00	 movss	 xmm4, DWORD PTR __real@3f000000
  000df	72 09		 jb	 SHORT $LN14@BeginEnvir
  000e1	c7 45 fc ff 00
	00 00		 mov	 DWORD PTR _dwR$1$[ebp], 255 ; 000000ffH
  000e8	eb 31		 jmp	 SHORT $LN13@BeginEnvir
$LN14@BeginEnvir:
  000ea	0f 2f c8	 comiss	 xmm1, xmm0
  000ed	72 09		 jb	 SHORT $LN12@BeginEnvir
  000ef	c7 45 fc 00 00
	00 00		 mov	 DWORD PTR _dwR$1$[ebp], 0
  000f6	eb 23		 jmp	 SHORT $LN13@BeginEnvir
$LN12@BeginEnvir:
  000f8	f3 0f 59 c3	 mulss	 xmm0, xmm3
  000fc	f3 0f 58 c4	 addss	 xmm0, xmm4
  00100	e8 00 00 00 00	 call	 __ftoui3
  00105	f3 0f 10 1d 00
	00 00 00	 movss	 xmm3, DWORD PTR __real@437f0000
  0010d	0f 57 c9	 xorps	 xmm1, xmm1
  00110	f3 0f 10 25 00
	00 00 00	 movss	 xmm4, DWORD PTR __real@3f000000
  00118	89 45 fc	 mov	 DWORD PTR _dwR$1$[ebp], eax
$LN13@BeginEnvir:

; 932  :     DWORD dwG = g >= 1.0f ? 0xff : g <= 0.0f ? 0x00 : (DWORD) (g * 255.0f + 0.5f);

  0011b	f3 0f 10 86 30
	01 00 00	 movss	 xmm0, DWORD PTR [esi+304]
  00123	0f 2f 05 00 00
	00 00		 comiss	 xmm0, DWORD PTR __real@3f800000
  0012a	72 09		 jb	 SHORT $LN18@BeginEnvir
  0012c	c7 45 f8 ff 00
	00 00		 mov	 DWORD PTR _dwG$1$[ebp], 255 ; 000000ffH
  00133	eb 1e		 jmp	 SHORT $LN17@BeginEnvir
$LN18@BeginEnvir:
  00135	0f 2f c8	 comiss	 xmm1, xmm0
  00138	72 09		 jb	 SHORT $LN16@BeginEnvir
  0013a	c7 45 f8 00 00
	00 00		 mov	 DWORD PTR _dwG$1$[ebp], 0
  00141	eb 10		 jmp	 SHORT $LN17@BeginEnvir
$LN16@BeginEnvir:
  00143	f3 0f 59 c3	 mulss	 xmm0, xmm3
  00147	f3 0f 58 c4	 addss	 xmm0, xmm4
  0014b	e8 00 00 00 00	 call	 __ftoui3
  00150	89 45 f8	 mov	 DWORD PTR _dwG$1$[ebp], eax
$LN17@BeginEnvir:

; 933  :     DWORD dwB = b >= 1.0f ? 0xff : b <= 0.0f ? 0x00 : (DWORD) (b * 255.0f + 0.5f);

  00153	f3 0f 10 86 34
	01 00 00	 movss	 xmm0, DWORD PTR [esi+308]
  0015b	0f 57 c9	 xorps	 xmm1, xmm1
  0015e	0f 2f 05 00 00
	00 00		 comiss	 xmm0, DWORD PTR __real@3f800000
  00165	72 09		 jb	 SHORT $LN22@BeginEnvir
  00167	c7 45 f4 ff 00
	00 00		 mov	 DWORD PTR _dwB$1$[ebp], 255 ; 000000ffH
  0016e	eb 29		 jmp	 SHORT $LN21@BeginEnvir
$LN22@BeginEnvir:
  00170	0f 2f c8	 comiss	 xmm1, xmm0
  00173	72 09		 jb	 SHORT $LN20@BeginEnvir
  00175	c7 45 f4 00 00
	00 00		 mov	 DWORD PTR _dwB$1$[ebp], 0
  0017c	eb 1b		 jmp	 SHORT $LN21@BeginEnvir
$LN20@BeginEnvir:
  0017e	f3 0f 59 05 00
	00 00 00	 mulss	 xmm0, DWORD PTR __real@437f0000
  00186	f3 0f 58 05 00
	00 00 00	 addss	 xmm0, DWORD PTR __real@3f000000
  0018e	e8 00 00 00 00	 call	 __ftoui3
  00193	89 45 f4	 mov	 DWORD PTR _dwB$1$[ebp], eax
  00196	0f 57 c9	 xorps	 xmm1, xmm1
$LN21@BeginEnvir:

; 934  :     DWORD dwA = a >= 1.0f ? 0xff : a <= 0.0f ? 0x00 : (DWORD) (a * 255.0f + 0.5f);

  00199	f3 0f 10 86 38
	01 00 00	 movss	 xmm0, DWORD PTR [esi+312]
  001a1	0f 2f 05 00 00
	00 00		 comiss	 xmm0, DWORD PTR __real@3f800000
  001a8	72 07		 jb	 SHORT $LN26@BeginEnvir
  001aa	b8 ff 00 00 00	 mov	 eax, 255		; 000000ffH
  001af	eb 1e		 jmp	 SHORT $LN25@BeginEnvir
$LN26@BeginEnvir:
  001b1	0f 2f c8	 comiss	 xmm1, xmm0
  001b4	72 04		 jb	 SHORT $LN24@BeginEnvir
  001b6	33 c0		 xor	 eax, eax
  001b8	eb 15		 jmp	 SHORT $LN25@BeginEnvir
$LN24@BeginEnvir:
  001ba	f3 0f 59 05 00
	00 00 00	 mulss	 xmm0, DWORD PTR __real@437f0000
  001c2	f3 0f 58 05 00
	00 00 00	 addss	 xmm0, DWORD PTR __real@3f000000
  001ca	e8 00 00 00 00	 call	 __ftoui3
$LN25@BeginEnvir:
; File C:\DS Project\DS Files\Source\ClientSource\Client\GameLib\MapManager.cpp

; 251  : 		STATEMANAGER.SetRenderState(D3DRS_FOGCOLOR, dwFogColor);

  001cf	8b 0d 00 00 00
	00		 mov	 ecx, DWORD PTR ?ms_singleton@?$CSingleton@VCStateManager@@@@0PAVCStateManager@@A ; CSingleton<CStateManager>::ms_singleton
; File C:\DS Project\DS Files\Source\ClientSource\extern\include\d3dx8math.inl

; 936  :     return (dwA << 24) | (dwR << 16) | (dwG << 8) | dwB;

  001d5	c1 e0 08	 shl	 eax, 8
  001d8	0b 45 fc	 or	 eax, DWORD PTR _dwR$1$[ebp]
  001db	c1 e0 08	 shl	 eax, 8
  001de	0b 45 f8	 or	 eax, DWORD PTR _dwG$1$[ebp]
  001e1	c1 e0 08	 shl	 eax, 8
  001e4	0b 45 f4	 or	 eax, DWORD PTR _dwB$1$[ebp]
; File C:\DS Project\DS Files\Source\ClientSource\Client\GameLib\MapManager.cpp

; 251  : 		STATEMANAGER.SetRenderState(D3DRS_FOGCOLOR, dwFogColor);

  001e7	50		 push	 eax
  001e8	6a 22		 push	 34			; 00000022H
  001ea	e8 00 00 00 00	 call	 ?SetRenderState@CStateManager@@QAEXW4_D3DRENDERSTATETYPE@@K@Z ; CStateManager::SetRenderState

; 252  : 
; 253  : 		if (mc_pcurEnvironmentData->bDensityFog)

  001ef	8b 8f 2c 14 00
	00		 mov	 ecx, DWORD PTR [edi+5164]
  001f5	83 b9 20 01 00
	00 00		 cmp	 DWORD PTR [ecx+288], 0
  001fc	74 20		 je	 SHORT $LN7@BeginEnvir

; 254  : 		{
; 255  : 			float fDensity = 0.00015f;
; 256  : 			STATEMANAGER.SetRenderState(D3DRS_FOGVERTEXMODE, D3DFOG_EXP);					// pixel fog

  001fe	8b 0d 00 00 00
	00		 mov	 ecx, DWORD PTR ?ms_singleton@?$CSingleton@VCStateManager@@@@0PAVCStateManager@@A ; CSingleton<CStateManager>::ms_singleton
  00204	6a 01		 push	 1
  00206	68 8c 00 00 00	 push	 140			; 0000008cH
  0020b	c7 45 f4 52 49
	1d 39		 mov	 DWORD PTR _fDensity$2[ebp], 958220626 ; 391d4952H
  00212	e8 00 00 00 00	 call	 ?SetRenderState@CStateManager@@QAEXW4_D3DRENDERSTATETYPE@@K@Z ; CStateManager::SetRenderState

; 257  : 			STATEMANAGER.SetRenderState(D3DRS_FOGDENSITY, *((DWORD *) &fDensity));			// vertex fog

  00217	ff 75 f4	 push	 DWORD PTR _fDensity$2[ebp]
  0021a	6a 26		 push	 38			; 00000026H

; 258  : 		}

  0021c	eb 77		 jmp	 SHORT $LN28@BeginEnvir
$LN7@BeginEnvir:

; 259  : 		else
; 260  : 		{
; 261  : 			CSpeedTreeForestDirectX8& rkForest=CSpeedTreeForestDirectX8::Instance();

  0021e	8b 35 00 00 00
	00		 mov	 esi, DWORD PTR ?ms_singleton@?$CSingleton@VCSpeedTreeForestDirectX8@@@@0PAVCSpeedTreeForestDirectX8@@A ; CSingleton<CSpeedTreeForestDirectX8>::ms_singleton

; 262  : 			rkForest.SetFog(

  00224	e8 00 00 00 00	 call	 ?GetFogFarDistance@SEnvironmentData@@QBEMXZ ; SEnvironmentData::GetFogFarDistance
  00229	51		 push	 ecx
  0022a	8b 8f 2c 14 00
	00		 mov	 ecx, DWORD PTR [edi+5164]
  00230	d9 1c 24	 fstp	 DWORD PTR [esp]
  00233	e8 00 00 00 00	 call	 ?GetFogNearDistance@SEnvironmentData@@QBEMXZ ; SEnvironmentData::GetFogNearDistance
  00238	51		 push	 ecx
  00239	8b ce		 mov	 ecx, esi
  0023b	d9 1c 24	 fstp	 DWORD PTR [esp]
  0023e	e8 00 00 00 00	 call	 ?SetFog@CSpeedTreeForest@@QAEXMM@Z ; CSpeedTreeForest::SetFog

; 263  : 				mc_pcurEnvironmentData->GetFogNearDistance(),
; 264  : 				mc_pcurEnvironmentData->GetFogFarDistance()
; 265  : 			);
; 266  : 
; 267  : 			float fFogNear=mc_pcurEnvironmentData->GetFogNearDistance();

  00243	8b 8f 2c 14 00
	00		 mov	 ecx, DWORD PTR [edi+5164]
  00249	e8 00 00 00 00	 call	 ?GetFogNearDistance@SEnvironmentData@@QBEMXZ ; SEnvironmentData::GetFogNearDistance

; 268  : 			float fFogFar=mc_pcurEnvironmentData->GetFogFarDistance();

  0024e	8b 8f 2c 14 00
	00		 mov	 ecx, DWORD PTR [edi+5164]
  00254	d9 5d f4	 fstp	 DWORD PTR _fFogNear$1[ebp]
  00257	e8 00 00 00 00	 call	 ?GetFogFarDistance@SEnvironmentData@@QBEMXZ ; SEnvironmentData::GetFogFarDistance

; 269  : 			STATEMANAGER.SetRenderState(D3DRS_FOGVERTEXMODE, D3DFOG_LINEAR);								// vertex fox

  0025c	8b 0d 00 00 00
	00		 mov	 ecx, DWORD PTR ?ms_singleton@?$CSingleton@VCStateManager@@@@0PAVCStateManager@@A ; CSingleton<CStateManager>::ms_singleton
  00262	6a 03		 push	 3
  00264	68 8c 00 00 00	 push	 140			; 0000008cH
  00269	d9 5d f8	 fstp	 DWORD PTR _fFogFar$3[ebp]
  0026c	e8 00 00 00 00	 call	 ?SetRenderState@CStateManager@@QAEXW4_D3DRENDERSTATETYPE@@K@Z ; CStateManager::SetRenderState

; 270  : 			STATEMANAGER.SetRenderState(D3DRS_RANGEFOGENABLE, TRUE);											// vertex fox

  00271	8b 0d 00 00 00
	00		 mov	 ecx, DWORD PTR ?ms_singleton@?$CSingleton@VCStateManager@@@@0PAVCStateManager@@A ; CSingleton<CStateManager>::ms_singleton
  00277	6a 01		 push	 1
  00279	6a 30		 push	 48			; 00000030H
  0027b	e8 00 00 00 00	 call	 ?SetRenderState@CStateManager@@QAEXW4_D3DRENDERSTATETYPE@@K@Z ; CStateManager::SetRenderState

; 271  : 			STATEMANAGER.SetRenderState(D3DRS_FOGSTART, *((DWORD *) &fFogNear));	// USED BY D3DFOG_LINEAR

  00280	ff 75 f4	 push	 DWORD PTR _fFogNear$1[ebp]
  00283	8b 0d 00 00 00
	00		 mov	 ecx, DWORD PTR ?ms_singleton@?$CSingleton@VCStateManager@@@@0PAVCStateManager@@A ; CSingleton<CStateManager>::ms_singleton
  00289	6a 24		 push	 36			; 00000024H
  0028b	e8 00 00 00 00	 call	 ?SetRenderState@CStateManager@@QAEXW4_D3DRENDERSTATETYPE@@K@Z ; CStateManager::SetRenderState

; 272  : 			STATEMANAGER.SetRenderState(D3DRS_FOGEND, *((DWORD *) &fFogFar));		// USED BY D3DFOG_LINEAR

  00290	ff 75 f8	 push	 DWORD PTR _fFogFar$3[ebp]
  00293	6a 25		 push	 37			; 00000025H
$LN28@BeginEnvir:

; 273  : 		}
; 274  : 	}
; 275  : 
; 276  : 	rkMap.OnBeginEnvironment();

  00295	8b 0d 00 00 00
	00		 mov	 ecx, DWORD PTR ?ms_singleton@?$CSingleton@VCStateManager@@@@0PAVCStateManager@@A ; CSingleton<CStateManager>::ms_singleton
  0029b	e8 00 00 00 00	 call	 ?SetRenderState@CStateManager@@QAEXW4_D3DRENDERSTATETYPE@@K@Z ; CStateManager::SetRenderState
$LN8@BeginEnvir:
  002a0	8b 03		 mov	 eax, DWORD PTR [ebx]
  002a2	8b cb		 mov	 ecx, ebx
  002a4	ff 50 20	 call	 DWORD PTR [eax+32]
  002a7	5e		 pop	 esi
  002a8	5b		 pop	 ebx
$LN1@BeginEnvir:
  002a9	5f		 pop	 edi

; 277  : }

  002aa	8b e5		 mov	 esp, ebp
  002ac	5d		 pop	 ebp
  002ad	c3		 ret	 0
?BeginEnvironment@CMapManager@@QAEXXZ ENDP		; CMapManager::BeginEnvironment
_TEXT	ENDS
; Function compile flags: /Ogtp
; File C:\DS Project\DS Files\Source\ClientSource\Client\GameLib\MapManager.cpp
;	COMDAT ?SetEnvironmentData@CMapManager@@QAEXH@Z
_TEXT	SEGMENT
_c_pEnvironmenData$ = -4				; size = 4
_nEnvDataIndex$ = 8					; size = 4
?SetEnvironmentData@CMapManager@@QAEXH@Z PROC		; CMapManager::SetEnvironmentData, COMDAT
; _this$ = ecx

; 289  : {

  00000	55		 push	 ebp
  00001	8b ec		 mov	 ebp, esp
  00003	51		 push	 ecx
  00004	56		 push	 esi

; 290  : 	const TEnvironmentData * c_pEnvironmenData;
; 291  : 
; 292  : 	if (GetEnvironmentData(nEnvDataIndex, &c_pEnvironmenData))

  00005	8d 45 fc	 lea	 eax, DWORD PTR _c_pEnvironmenData$[ebp]
  00008	8b f1		 mov	 esi, ecx
  0000a	50		 push	 eax
  0000b	ff 75 08	 push	 DWORD PTR _nEnvDataIndex$[ebp]
  0000e	e8 00 00 00 00	 call	 ?GetEnvironmentData@CMapManager@@QAE_NKPAPBUSEnvironmentData@@@Z ; CMapManager::GetEnvironmentData
  00013	84 c0		 test	 al, al
  00015	74 0a		 je	 SHORT $LN2@SetEnviron

; 293  : 		SetEnvironmentDataPtr(c_pEnvironmenData);

  00017	ff 75 fc	 push	 DWORD PTR _c_pEnvironmenData$[ebp]
  0001a	8b ce		 mov	 ecx, esi
  0001c	e8 00 00 00 00	 call	 ?SetEnvironmentDataPtr@CMapManager@@QAEXPBUSEnvironmentData@@@Z ; CMapManager::SetEnvironmentDataPtr
$LN2@SetEnviron:
  00021	5e		 pop	 esi

; 294  : }

  00022	8b e5		 mov	 esp, ebp
  00024	5d		 pop	 ebp
  00025	c2 04 00	 ret	 4
?SetEnvironmentData@CMapManager@@QAEXH@Z ENDP		; CMapManager::SetEnvironmentData
_TEXT	ENDS
; Function compile flags: /Ogtp
; File C:\DS Project\DS Files\Source\ClientSource\Client\GameLib\MapManager.cpp
;	COMDAT ?ResetEnvironmentDataPtr@CMapManager@@QAEXPBUSEnvironmentData@@@Z
_TEXT	SEGMENT
_c_pEnvironmentData$ = 8				; size = 4
?ResetEnvironmentDataPtr@CMapManager@@QAEXPBUSEnvironmentData@@@Z PROC ; CMapManager::ResetEnvironmentDataPtr, COMDAT
; _this$ = ecx

; 318  : {

  00000	55		 push	 ebp
  00001	8b ec		 mov	 ebp, esp
  00003	57		 push	 edi
  00004	8b f9		 mov	 edi, ecx

; 319  : 	if (!m_pkMap)

  00006	83 bf 30 14 00
	00 00		 cmp	 DWORD PTR [edi+5168], 0
  0000d	74 2f		 je	 SHORT $LN1@ResetEnvir

; 320  : 		return;
; 321  : 
; 322  : 	if (!c_pEnvironmentData)

  0000f	56		 push	 esi
  00010	8b 75 08	 mov	 esi, DWORD PTR _c_pEnvironmentData$[ebp]
  00013	85 f6		 test	 esi, esi
  00015	75 13		 jne	 SHORT $LN3@ResetEnvir

; 323  : 	{
; 324  : 		assert(!"null environment data");
; 325  : 		TraceError("null environment data");

  00017	68 00 00 00 00	 push	 OFFSET ??_C@_0BG@GDDCGLNK@null?5environment?5data@
  0001c	e8 00 00 00 00	 call	 ?TraceError@@YAXPBDZZ	; TraceError
  00021	83 c4 04	 add	 esp, 4
  00024	5e		 pop	 esi
  00025	5f		 pop	 edi

; 333  : }

  00026	5d		 pop	 ebp
  00027	c2 04 00	 ret	 4
$LN3@ResetEnvir:

; 326  : 		return;
; 327  : 	}
; 328  : 
; 329  : 	CMapOutdoor& rkMap=GetMapOutdoorRef();

  0002a	e8 00 00 00 00	 call	 ?GetMapOutdoorRef@CMapManager@@QAEAAVCMapOutdoor@@XZ ; CMapManager::GetMapOutdoorRef

; 330  : 
; 331  : 	mc_pcurEnvironmentData = c_pEnvironmentData;
; 332  : 	rkMap.ResetEnvironmentDataPtr(mc_pcurEnvironmentData);

  0002f	56		 push	 esi
  00030	8b c8		 mov	 ecx, eax
  00032	89 b7 2c 14 00
	00		 mov	 DWORD PTR [edi+5164], esi
  00038	e8 00 00 00 00	 call	 ?ResetEnvironmentDataPtr@CMapBase@@QAEXPBUSEnvironmentData@@@Z ; CMapBase::ResetEnvironmentDataPtr
  0003d	5e		 pop	 esi
$LN1@ResetEnvir:
  0003e	5f		 pop	 edi

; 333  : }

  0003f	5d		 pop	 ebp
  00040	c2 04 00	 ret	 4
?ResetEnvironmentDataPtr@CMapManager@@QAEXPBUSEnvironmentData@@@Z ENDP ; CMapManager::ResetEnvironmentDataPtr
_TEXT	ENDS
; Function compile flags: /Ogtp
; File C:\DS Project\DS Files\Source\ClientSource\Client\GameLib\MapManager.cpp
;	COMDAT ?SetEnvironmentDataPtr@CMapManager@@QAEXPBUSEnvironmentData@@@Z
_TEXT	SEGMENT
_c_pEnvironmentData$ = 8				; size = 4
?SetEnvironmentDataPtr@CMapManager@@QAEXPBUSEnvironmentData@@@Z PROC ; CMapManager::SetEnvironmentDataPtr, COMDAT
; _this$ = ecx

; 297  : {

  00000	55		 push	 ebp
  00001	8b ec		 mov	 ebp, esp
  00003	57		 push	 edi
  00004	8b f9		 mov	 edi, ecx

; 298  : 	if (!m_pkMap)

  00006	83 bf 30 14 00
	00 00		 cmp	 DWORD PTR [edi+5168], 0
  0000d	74 2f		 je	 SHORT $LN1@SetEnviron

; 299  : 		return;
; 300  : 
; 301  : 	if (!c_pEnvironmentData)

  0000f	56		 push	 esi
  00010	8b 75 08	 mov	 esi, DWORD PTR _c_pEnvironmentData$[ebp]
  00013	85 f6		 test	 esi, esi
  00015	75 13		 jne	 SHORT $LN3@SetEnviron

; 302  : 	{
; 303  : 		assert(!"null environment data");
; 304  : 		TraceError("null environment data");

  00017	68 00 00 00 00	 push	 OFFSET ??_C@_0BG@GDDCGLNK@null?5environment?5data@
  0001c	e8 00 00 00 00	 call	 ?TraceError@@YAXPBDZZ	; TraceError
  00021	83 c4 04	 add	 esp, 4
  00024	5e		 pop	 esi
  00025	5f		 pop	 edi

; 315  : }

  00026	5d		 pop	 ebp
  00027	c2 04 00	 ret	 4
$LN3@SetEnviron:

; 305  : 		return;
; 306  : 	}
; 307  : 
; 308  : 	CMapOutdoor& rkMap=GetMapOutdoorRef();

  0002a	e8 00 00 00 00	 call	 ?GetMapOutdoorRef@CMapManager@@QAEAAVCMapOutdoor@@XZ ; CMapManager::GetMapOutdoorRef

; 309  : 
; 310  : 
; 311  : 	mc_pcurEnvironmentData = c_pEnvironmentData;
; 312  : 
; 313  : 
; 314  : 	rkMap.SetEnvironmentDataPtr(mc_pcurEnvironmentData);

  0002f	56		 push	 esi
  00030	8b c8		 mov	 ecx, eax
  00032	89 b7 2c 14 00
	00		 mov	 DWORD PTR [edi+5164], esi
  00038	e8 00 00 00 00	 call	 ?SetEnvironmentDataPtr@CMapBase@@QAEXPBUSEnvironmentData@@@Z ; CMapBase::SetEnvironmentDataPtr
  0003d	5e		 pop	 esi
$LN1@SetEnviron:
  0003e	5f		 pop	 edi

; 315  : }

  0003f	5d		 pop	 ebp
  00040	c2 04 00	 ret	 4
?SetEnvironmentDataPtr@CMapManager@@QAEXPBUSEnvironmentData@@@Z ENDP ; CMapManager::SetEnvironmentDataPtr
_TEXT	ENDS
; Function compile flags: /Ogtp
; File C:\DS Project\DS Files\Source\ClientSource\Client\GameLib\MapManager.cpp
;	COMDAT ?GetNormal@CMapManager@@QAE_NHHPAUD3DXVECTOR3@@@Z
_TEXT	SEGMENT
_ix$ = 8						; size = 4
_iy$ = 12						; size = 4
_pv3Normal$ = 16					; size = 4
?GetNormal@CMapManager@@QAE_NHHPAUD3DXVECTOR3@@@Z PROC	; CMapManager::GetNormal, COMDAT
; _this$ = ecx

; 488  : {

  00000	55		 push	 ebp
  00001	8b ec		 mov	 ebp, esp
  00003	56		 push	 esi
  00004	8b f1		 mov	 esi, ecx

; 489  : 	if (!IsMapReady())

  00006	e8 00 00 00 00	 call	 ?IsMapReady@CMapManager@@QAE_NXZ ; CMapManager::IsMapReady
  0000b	84 c0		 test	 al, al
  0000d	75 05		 jne	 SHORT $LN2@GetNormal
  0000f	5e		 pop	 esi

; 494  : }

  00010	5d		 pop	 ebp
  00011	c2 0c 00	 ret	 12			; 0000000cH
$LN2@GetNormal:

; 490  : 		return false;
; 491  : 
; 492  : 	CMapOutdoor& rkMap=GetMapOutdoorRef();

  00014	8b ce		 mov	 ecx, esi
  00016	e8 00 00 00 00	 call	 ?GetMapOutdoorRef@CMapManager@@QAEAAVCMapOutdoor@@XZ ; CMapManager::GetMapOutdoorRef
  0001b	5e		 pop	 esi

; 493  : 	return rkMap.GetNormal(ix, iy, pv3Normal);

  0001c	8b c8		 mov	 ecx, eax

; 494  : }

  0001e	5d		 pop	 ebp

; 493  : 	return rkMap.GetNormal(ix, iy, pv3Normal);

  0001f	e9 00 00 00 00	 jmp	 ?GetNormal@CMapOutdoor@@QAE_NHHPAUD3DXVECTOR3@@@Z ; CMapOutdoor::GetNormal
?GetNormal@CMapManager@@QAE_NHHPAUD3DXVECTOR3@@@Z ENDP	; CMapManager::GetNormal
_TEXT	ENDS
; Function compile flags: /Ogtp
; File C:\DS Project\DS Files\Source\ClientSource\Client\GameLib\MapManager.cpp
;	COMDAT ?GetWaterHeight@CMapManager@@QAE_NHHPAJ@Z
_TEXT	SEGMENT
_iX$ = 8						; size = 4
_iY$ = 12						; size = 4
_plWaterHeight$ = 16					; size = 4
?GetWaterHeight@CMapManager@@QAE_NHHPAJ@Z PROC		; CMapManager::GetWaterHeight, COMDAT
; _this$ = ecx

; 205  : {

  00000	55		 push	 ebp
  00001	8b ec		 mov	 ebp, esp

; 206  : 	if (!m_pkMap)

  00003	83 b9 30 14 00
	00 00		 cmp	 DWORD PTR [ecx+5168], 0
  0000a	75 19		 jne	 SHORT $LN2@GetWaterHe

; 207  : 	{
; 208  : 		TraceError("CMapManager::GetTerrainHeight(%f, %f) - Accessing in a not initialized map", iX, iY);

  0000c	ff 75 0c	 push	 DWORD PTR _iY$[ebp]
  0000f	ff 75 08	 push	 DWORD PTR _iX$[ebp]
  00012	68 00 00 00 00	 push	 OFFSET ??_C@_0EL@GOMDBDNM@CMapManager?3?3GetTerrainHeight?$CI?$CF@
  00017	e8 00 00 00 00	 call	 ?TraceError@@YAXPBDZZ	; TraceError
  0001c	83 c4 0c	 add	 esp, 12			; 0000000cH

; 209  : 		return false;

  0001f	32 c0		 xor	 al, al

; 214  : }

  00021	5d		 pop	 ebp
  00022	c2 0c 00	 ret	 12			; 0000000cH
$LN2@GetWaterHe:

; 210  : 	}
; 211  : 
; 212  : 	CMapOutdoor& rkMap=GetMapOutdoorRef();

  00025	e8 00 00 00 00	 call	 ?GetMapOutdoorRef@CMapManager@@QAEAAVCMapOutdoor@@XZ ; CMapManager::GetMapOutdoorRef

; 213  : 	return rkMap.GetWaterHeight(iX, iY, plWaterHeight);

  0002a	8b c8		 mov	 ecx, eax

; 214  : }

  0002c	5d		 pop	 ebp

; 213  : 	return rkMap.GetWaterHeight(iX, iY, plWaterHeight);

  0002d	e9 00 00 00 00	 jmp	 ?GetWaterHeight@CMapOutdoor@@QAE_NHHPAJ@Z ; CMapOutdoor::GetWaterHeight
?GetWaterHeight@CMapManager@@QAE_NHHPAJ@Z ENDP		; CMapManager::GetWaterHeight
_TEXT	ENDS
; Function compile flags: /Ogtp
; File C:\DS Project\DS Files\Source\ClientSource\Client\GameLib\MapManager.cpp
;	COMDAT ?GetTerrainHeight@CMapManager@@QAEMMM@Z
_TEXT	SEGMENT
_fx$ = 8						; size = 4
_fy$ = 12						; size = 4
?GetTerrainHeight@CMapManager@@QAEMMM@Z PROC		; CMapManager::GetTerrainHeight, COMDAT
; _this$ = ecx

; 194  : {

  00000	55		 push	 ebp
  00001	8b ec		 mov	 ebp, esp

; 195  : 	if (!m_pkMap)

  00003	83 b9 30 14 00
	00 00		 cmp	 DWORD PTR [ecx+5168], 0
  0000a	75 31		 jne	 SHORT $LN2@GetTerrain

; 196  : 	{
; 197  : 		TraceError("CMapManager::GetTerrainHeight(%f, %f) - Accessing in a not initialized map", fx, fy);

  0000c	f3 0f 10 45 0c	 movss	 xmm0, DWORD PTR _fy$[ebp]
  00011	83 ec 10	 sub	 esp, 16			; 00000010H
  00014	0f 5a c0	 cvtps2pd xmm0, xmm0
  00017	f2 0f 11 44 24
	08		 movsd	 QWORD PTR [esp+8], xmm0
  0001d	f3 0f 10 45 08	 movss	 xmm0, DWORD PTR _fx$[ebp]
  00022	0f 5a c0	 cvtps2pd xmm0, xmm0
  00025	f2 0f 11 04 24	 movsd	 QWORD PTR [esp], xmm0
  0002a	68 00 00 00 00	 push	 OFFSET ??_C@_0EL@GOMDBDNM@CMapManager?3?3GetTerrainHeight?$CI?$CF@
  0002f	e8 00 00 00 00	 call	 ?TraceError@@YAXPBDZZ	; TraceError

; 198  : 		return 0.0f;

  00034	d9 ee		 fldz
  00036	83 c4 14	 add	 esp, 20			; 00000014H

; 202  : }

  00039	5d		 pop	 ebp
  0003a	c2 08 00	 ret	 8
$LN2@GetTerrain:

; 199  : 	}
; 200  : 	CMapOutdoor& rkMap=GetMapOutdoorRef();

  0003d	e8 00 00 00 00	 call	 ?GetMapOutdoorRef@CMapManager@@QAEAAVCMapOutdoor@@XZ ; CMapManager::GetMapOutdoorRef

; 201  : 	return rkMap.GetTerrainHeight(fx, fy);

  00042	f3 0f 10 45 0c	 movss	 xmm0, DWORD PTR _fy$[ebp]
  00047	83 ec 08	 sub	 esp, 8
  0004a	8b c8		 mov	 ecx, eax
  0004c	f3 0f 11 44 24
	04		 movss	 DWORD PTR [esp+4], xmm0
  00052	f3 0f 10 45 08	 movss	 xmm0, DWORD PTR _fx$[ebp]
  00057	f3 0f 11 04 24	 movss	 DWORD PTR [esp], xmm0
  0005c	e8 00 00 00 00	 call	 ?GetTerrainHeight@CMapOutdoor@@QAEMMM@Z ; CMapOutdoor::GetTerrainHeight

; 202  : }

  00061	5d		 pop	 ebp
  00062	c2 08 00	 ret	 8
?GetTerrainHeight@CMapManager@@QAEMMM@Z ENDP		; CMapManager::GetTerrainHeight
_TEXT	ENDS
; Function compile flags: /Ogtp
; File C:\DS Project\DS Files\Source\ClientSource\Client\GameLib\MapManager.cpp
;	COMDAT ?GetHeight@CMapManager@@QAEMMM@Z
_TEXT	SEGMENT
_fx$ = 8						; size = 4
_fy$ = 12						; size = 4
?GetHeight@CMapManager@@QAEMMM@Z PROC			; CMapManager::GetHeight, COMDAT
; _this$ = ecx

; 183  : {

  00000	55		 push	 ebp
  00001	8b ec		 mov	 ebp, esp

; 184  : 	if (!m_pkMap)

  00003	83 b9 30 14 00
	00 00		 cmp	 DWORD PTR [ecx+5168], 0
  0000a	75 31		 jne	 SHORT $LN2@GetHeight

; 185  : 	{
; 186  : 		TraceError("CMapManager::GetHeight(%f, %f) - Accessing in a not initialized map", fx, fy);

  0000c	f3 0f 10 45 0c	 movss	 xmm0, DWORD PTR _fy$[ebp]
  00011	83 ec 10	 sub	 esp, 16			; 00000010H
  00014	0f 5a c0	 cvtps2pd xmm0, xmm0
  00017	f2 0f 11 44 24
	08		 movsd	 QWORD PTR [esp+8], xmm0
  0001d	f3 0f 10 45 08	 movss	 xmm0, DWORD PTR _fx$[ebp]
  00022	0f 5a c0	 cvtps2pd xmm0, xmm0
  00025	f2 0f 11 04 24	 movsd	 QWORD PTR [esp], xmm0
  0002a	68 00 00 00 00	 push	 OFFSET ??_C@_0EE@MJBLHJKJ@CMapManager?3?3GetHeight?$CI?$CFf?0?5?$CFf?$CJ?5@
  0002f	e8 00 00 00 00	 call	 ?TraceError@@YAXPBDZZ	; TraceError

; 187  : 		return 0.0f;

  00034	d9 ee		 fldz
  00036	83 c4 14	 add	 esp, 20			; 00000014H

; 191  : }

  00039	5d		 pop	 ebp
  0003a	c2 08 00	 ret	 8
$LN2@GetHeight:

; 188  : 	}
; 189  : 	CMapOutdoor& rkMap=GetMapOutdoorRef();

  0003d	e8 00 00 00 00	 call	 ?GetMapOutdoorRef@CMapManager@@QAEAAVCMapOutdoor@@XZ ; CMapManager::GetMapOutdoorRef

; 190  : 	return rkMap.GetHeight(fx, fy);

  00042	f3 0f 10 45 0c	 movss	 xmm0, DWORD PTR _fy$[ebp]
  00047	83 ec 08	 sub	 esp, 8
  0004a	8b c8		 mov	 ecx, eax
  0004c	8b 10		 mov	 edx, DWORD PTR [eax]
  0004e	f3 0f 11 44 24
	04		 movss	 DWORD PTR [esp+4], xmm0
  00054	f3 0f 10 45 08	 movss	 xmm0, DWORD PTR _fx$[ebp]
  00059	f3 0f 11 04 24	 movss	 DWORD PTR [esp], xmm0
  0005e	8b 42 1c	 mov	 eax, DWORD PTR [edx+28]
  00061	ff d0		 call	 eax

; 191  : }

  00063	5d		 pop	 ebp
  00064	c2 08 00	 ret	 8
?GetHeight@CMapManager@@QAEMMM@Z ENDP			; CMapManager::GetHeight
_TEXT	ENDS
; Function compile flags: /Ogtp
; File C:\DS Project\DS Files\Source\ClientSource\Client\GameLib\MapManager.cpp
;	COMDAT ?UpdateAroundAmbience@CMapManager@@QAEXMMM@Z
_TEXT	SEGMENT
_fx$ = 8						; size = 4
_fy$ = 12						; size = 4
_fz$ = 16						; size = 4
?UpdateAroundAmbience@CMapManager@@QAEXMMM@Z PROC	; CMapManager::UpdateAroundAmbience, COMDAT
; _this$ = ecx

; 174  : {

  00000	55		 push	 ebp
  00001	8b ec		 mov	 ebp, esp

; 175  : 	if (!m_pkMap)

  00003	83 b9 30 14 00
	00 00		 cmp	 DWORD PTR [ecx+5168], 0
  0000a	74 36		 je	 SHORT $LN1@UpdateArou

; 176  : 		return;
; 177  : 
; 178  : 	CMapOutdoor& rkMap=GetMapOutdoorRef();

  0000c	e8 00 00 00 00	 call	 ?GetMapOutdoorRef@CMapManager@@QAEAAVCMapOutdoor@@XZ ; CMapManager::GetMapOutdoorRef

; 179  : 	rkMap.UpdateAroundAmbience(fx, -fy, fz);

  00011	f3 0f 10 45 10	 movss	 xmm0, DWORD PTR _fz$[ebp]
  00016	83 ec 0c	 sub	 esp, 12			; 0000000cH
  00019	8b c8		 mov	 ecx, eax
  0001b	8b 10		 mov	 edx, DWORD PTR [eax]
  0001d	f3 0f 11 44 24
	08		 movss	 DWORD PTR [esp+8], xmm0
  00023	f3 0f 10 45 0c	 movss	 xmm0, DWORD PTR _fy$[ebp]
  00028	0f 57 05 00 00
	00 00		 xorps	 xmm0, DWORD PTR __xmm@80000000800000008000000080000000
  0002f	f3 0f 11 44 24
	04		 movss	 DWORD PTR [esp+4], xmm0
  00035	f3 0f 10 45 08	 movss	 xmm0, DWORD PTR _fx$[ebp]
  0003a	f3 0f 11 04 24	 movss	 DWORD PTR [esp], xmm0
  0003f	ff 52 18	 call	 DWORD PTR [edx+24]
$LN1@UpdateArou:

; 180  : }

  00042	5d		 pop	 ebp
  00043	c2 0c 00	 ret	 12			; 0000000cH
?UpdateAroundAmbience@CMapManager@@QAEXMMM@Z ENDP	; CMapManager::UpdateAroundAmbience
_TEXT	ENDS
; Function compile flags: /Ogtp
; File C:\DS Project\DS Files\Source\ClientSource\Client\GameLib\MapManager.cpp
;	COMDAT ?UpdateMap@CMapManager@@QAE_NMMM@Z
_TEXT	SEGMENT
_fx$ = 8						; size = 4
_fy$ = 12						; size = 4
_fz$ = 16						; size = 4
?UpdateMap@CMapManager@@QAE_NMMM@Z PROC			; CMapManager::UpdateMap, COMDAT
; _this$ = ecx

; 165  : {

  00000	55		 push	 ebp
  00001	8b ec		 mov	 ebp, esp

; 166  : 	if (!m_pkMap)

  00003	83 b9 30 14 00
	00 00		 cmp	 DWORD PTR [ecx+5168], 0
  0000a	75 06		 jne	 SHORT $LN2@UpdateMap

; 167  : 		return false;

  0000c	32 c0		 xor	 al, al

; 171  : }

  0000e	5d		 pop	 ebp
  0000f	c2 0c 00	 ret	 12			; 0000000cH
$LN2@UpdateMap:

; 168  : 
; 169  : 	CMapOutdoor& rkMap=GetMapOutdoorRef();

  00012	e8 00 00 00 00	 call	 ?GetMapOutdoorRef@CMapManager@@QAEAAVCMapOutdoor@@XZ ; CMapManager::GetMapOutdoorRef

; 170  : 	return rkMap.Update(fx, -fy, fz);

  00017	f3 0f 10 45 10	 movss	 xmm0, DWORD PTR _fz$[ebp]
  0001c	83 ec 0c	 sub	 esp, 12			; 0000000cH
  0001f	8b c8		 mov	 ecx, eax
  00021	8b 10		 mov	 edx, DWORD PTR [eax]
  00023	f3 0f 11 44 24
	08		 movss	 DWORD PTR [esp+8], xmm0
  00029	f3 0f 10 45 0c	 movss	 xmm0, DWORD PTR _fy$[ebp]
  0002e	0f 57 05 00 00
	00 00		 xorps	 xmm0, DWORD PTR __xmm@80000000800000008000000080000000
  00035	8b 42 14	 mov	 eax, DWORD PTR [edx+20]
  00038	f3 0f 11 44 24
	04		 movss	 DWORD PTR [esp+4], xmm0
  0003e	f3 0f 10 45 08	 movss	 xmm0, DWORD PTR _fx$[ebp]
  00043	f3 0f 11 04 24	 movss	 DWORD PTR [esp], xmm0
  00048	ff d0		 call	 eax

; 171  : }

  0004a	5d		 pop	 ebp
  0004b	c2 0c 00	 ret	 12			; 0000000cH
?UpdateMap@CMapManager@@QAE_NMMM@Z ENDP			; CMapManager::UpdateMap
_TEXT	ENDS
; Function compile flags: /Ogtp
; File C:\DS Project\DS Files\Source\ClientSource\Client\GameLib\MapManager.cpp
; File C:\Program Files (x86)\Microsoft Visual Studio\2019\Community\VC\Tools\MSVC\14.27.29110\include\xstring
; File C:\DS Project\DS Files\Source\ClientSource\Client\GameLib\MapManager.cpp
; File C:\Program Files (x86)\Microsoft Visual Studio\2019\Community\VC\Tools\MSVC\14.27.29110\include\xstring
; File C:\Program Files (x86)\Microsoft Visual Studio\2019\Community\VC\Tools\MSVC\14.27.29110\include\xmemory
; File C:\DS Project\DS Files\Source\ClientSource\Client\GameLib\MapManager.cpp
;	COMDAT ?UnloadMap@CMapManager@@QAE_NV?$basic_string@DU?$char_traits@D@std@@V?$allocator@D@2@@std@@@Z
_TEXT	SEGMENT
__$EHRec$ = -12						; size = 12
_c_strMapName$ = 8					; size = 24
?UnloadMap@CMapManager@@QAE_NV?$basic_string@DU?$char_traits@D@std@@V?$allocator@D@2@@std@@@Z PROC ; CMapManager::UnloadMap, COMDAT
; _this$ = ecx

; 152  : {

  00000	55		 push	 ebp
  00001	8b ec		 mov	 ebp, esp
  00003	6a ff		 push	 -1
  00005	68 00 00 00 00	 push	 __ehhandler$?UnloadMap@CMapManager@@QAE_NV?$basic_string@DU?$char_traits@D@std@@V?$allocator@D@2@@std@@@Z
  0000a	64 a1 00 00 00
	00		 mov	 eax, DWORD PTR fs:0
  00010	50		 push	 eax
  00011	53		 push	 ebx
  00012	56		 push	 esi
  00013	57		 push	 edi
  00014	a1 00 00 00 00	 mov	 eax, DWORD PTR ___security_cookie
  00019	33 c5		 xor	 eax, ebp
  0001b	50		 push	 eax
  0001c	8d 45 f4	 lea	 eax, DWORD PTR __$EHRec$[ebp]
  0001f	64 a3 00 00 00
	00		 mov	 DWORD PTR fs:0, eax
  00025	8b f1		 mov	 esi, ecx
  00027	c7 45 fc 00 00
	00 00		 mov	 DWORD PTR __$EHRec$[ebp+8], 0

; 153  : 	CMapOutdoor& rkMap=GetMapOutdoorRef();

  0002e	e8 00 00 00 00	 call	 ?GetMapOutdoorRef@CMapManager@@QAEAAVCMapOutdoor@@XZ ; CMapManager::GetMapOutdoorRef

; 154  : 	if (c_strMapName != rkMap.GetName() && "" != rkMap.GetName())

  00033	8d 78 08	 lea	 edi, DWORD PTR [eax+8]
  00036	8d 45 08	 lea	 eax, DWORD PTR _c_strMapName$[ebp]
  00039	57		 push	 edi
  0003a	50		 push	 eax
  0003b	e8 00 00 00 00	 call	 ??$?9DU?$char_traits@D@std@@V?$allocator@D@1@@std@@YA_NABV?$basic_string@DU?$char_traits@D@std@@V?$allocator@D@2@@0@0@Z ; std::operator!=<char,std::char_traits<char>,std::allocator<char> >
  00040	83 c4 08	 add	 esp, 8
  00043	84 c0		 test	 al, al
  00045	74 2f		 je	 SHORT $LN2@UnloadMap
  00047	57		 push	 edi
  00048	68 00 00 00 00	 push	 OFFSET ??_C@_00CNPNBAHC@@
  0004d	e8 00 00 00 00	 call	 ??$?9DU?$char_traits@D@std@@V?$allocator@D@1@@std@@YA_NQBDABV?$basic_string@DU?$char_traits@D@std@@V?$allocator@D@2@@0@@Z ; std::operator!=<char,std::char_traits<char>,std::allocator<char> >
  00052	83 c4 08	 add	 esp, 8
  00055	84 c0		 test	 al, al
  00057	74 1d		 je	 SHORT $LN2@UnloadMap
; File C:\Program Files (x86)\Microsoft Visual Studio\2019\Community\VC\Tools\MSVC\14.27.29110\include\xstring

; 2153 :         return _BUF_SIZE <= _Myres;

  00059	83 7d 1c 10	 cmp	 DWORD PTR _c_strMapName$[ebp+20], 16 ; 00000010H

; 2144 :         const value_type* _Result = _Bx._Buf;

  0005d	8d 45 08	 lea	 eax, DWORD PTR _c_strMapName$[ebp]

; 2145 :         if (_Large_string_engaged()) {

  00060	0f 43 45 08	 cmovae	 eax, DWORD PTR _c_strMapName$[ebp]
; File C:\DS Project\DS Files\Source\ClientSource\Client\GameLib\MapManager.cpp

; 156  : 		LogBoxf("%s: Unload Map Failed", c_strMapName.c_str());

  00064	50		 push	 eax
  00065	68 00 00 00 00	 push	 OFFSET ??_C@_0BG@CFNBDNBB@?$CFs?3?5Unload?5Map?5Failed@
  0006a	e8 00 00 00 00	 call	 ?LogBoxf@@YAXPBDZZ	; LogBoxf
  0006f	83 c4 08	 add	 esp, 8
  00072	32 db		 xor	 bl, bl
  00074	eb 09		 jmp	 SHORT $LN5@UnloadMap
$LN2@UnloadMap:

; 157  : 		return false;
; 158  : 	}
; 159  : 
; 160  : 	Clear();

  00076	8b 06		 mov	 eax, DWORD PTR [esi]
  00078	8b ce		 mov	 ecx, esi
  0007a	ff 50 04	 call	 DWORD PTR [eax+4]

; 161  : 	return true;

  0007d	b3 01		 mov	 bl, 1
$LN5@UnloadMap:
; File C:\Program Files (x86)\Microsoft Visual Studio\2019\Community\VC\Tools\MSVC\14.27.29110\include\xstring

; 2153 :         return _BUF_SIZE <= _Myres;

  0007f	8b 4d 1c	 mov	 ecx, DWORD PTR _c_strMapName$[ebp+20]
  00082	83 f9 10	 cmp	 ecx, 16			; 00000010H

; 4301 :         if (_Mypair._Myval2._Large_string_engaged()) {

  00085	72 0d		 jb	 SHORT $LN23@UnloadMap

; 4302 :             const pointer _Ptr = _Mypair._Myval2._Bx._Ptr;
; 4303 :             auto& _Al          = _Getal();
; 4304 :             _Destroy_in_place(_Mypair._Myval2._Bx._Ptr);
; 4305 :             _Al.deallocate(_Ptr, _Mypair._Myval2._Myres + 1);

  00087	41		 inc	 ecx
; File C:\Program Files (x86)\Microsoft Visual Studio\2019\Community\VC\Tools\MSVC\14.27.29110\include\xmemory

; 803  :         _Deallocate<_New_alignof<_Ty>>(_Ptr, sizeof(_Ty) * _Count);

  00088	51		 push	 ecx
  00089	ff 75 08	 push	 DWORD PTR _c_strMapName$[ebp]
  0008c	e8 00 00 00 00	 call	 ??$_Deallocate@$07$0A@@std@@YAXPAXI@Z ; std::_Deallocate<8,0>
  00091	83 c4 08	 add	 esp, 8
$LN23@UnloadMap:
; File C:\DS Project\DS Files\Source\ClientSource\Client\GameLib\MapManager.cpp

; 162  : }

  00094	8a c3		 mov	 al, bl
  00096	8b 4d f4	 mov	 ecx, DWORD PTR __$EHRec$[ebp]
  00099	64 89 0d 00 00
	00 00		 mov	 DWORD PTR fs:0, ecx
  000a0	59		 pop	 ecx
  000a1	5f		 pop	 edi
  000a2	5e		 pop	 esi
  000a3	5b		 pop	 ebx
  000a4	8b e5		 mov	 esp, ebp
  000a6	5d		 pop	 ebp
  000a7	c2 18 00	 ret	 24			; 00000018H
_TEXT	ENDS
;	COMDAT text$x
text$x	SEGMENT
__unwindfunclet$?UnloadMap@CMapManager@@QAE_NV?$basic_string@DU?$char_traits@D@std@@V?$allocator@D@2@@std@@@Z$0:
  00000	8d 4d 08	 lea	 ecx, DWORD PTR _c_strMapName$[ebp]
  00003	e9 00 00 00 00	 jmp	 ??1?$basic_string@DU?$char_traits@D@std@@V?$allocator@D@2@@std@@QAE@XZ ; std::basic_string<char,std::char_traits<char>,std::allocator<char> >::~basic_string<char,std::char_traits<char>,std::allocator<char> >
  00008	cc		 int	 3
  00009	cc		 int	 3
  0000a	cc		 int	 3
  0000b	cc		 int	 3
  0000c	cc		 int	 3
__ehhandler$?UnloadMap@CMapManager@@QAE_NV?$basic_string@DU?$char_traits@D@std@@V?$allocator@D@2@@std@@@Z:
  0000d	90		 npad	 1
  0000e	90		 npad	 1
  0000f	8b 54 24 08	 mov	 edx, DWORD PTR [esp+8]
  00013	8d 42 0c	 lea	 eax, DWORD PTR [edx+12]
  00016	8b 4a f0	 mov	 ecx, DWORD PTR [edx-16]
  00019	33 c8		 xor	 ecx, eax
  0001b	e8 00 00 00 00	 call	 @__security_check_cookie@4
  00020	b8 00 00 00 00	 mov	 eax, OFFSET __ehfuncinfo$?UnloadMap@CMapManager@@QAE_NV?$basic_string@DU?$char_traits@D@std@@V?$allocator@D@2@@std@@@Z
  00025	e9 00 00 00 00	 jmp	 ___CxxFrameHandler3
text$x	ENDS
?UnloadMap@CMapManager@@QAE_NV?$basic_string@DU?$char_traits@D@std@@V?$allocator@D@2@@std@@@Z ENDP ; CMapManager::UnloadMap
; Function compile flags: /Ogtp
; File C:\DS Project\DS Files\Source\ClientSource\Client\GameLib\MapManager.cpp
; File C:\Program Files (x86)\Microsoft Visual Studio\2019\Community\VC\Tools\MSVC\14.27.29110\include\xstring
; File C:\DS Project\DS Files\Source\ClientSource\Client\GameLib\MapBase.h
; File C:\Program Files (x86)\Microsoft Visual Studio\2019\Community\VC\Tools\MSVC\14.27.29110\include\xstring
; File C:\DS Project\DS Files\Source\ClientSource\Client\GameLib\MapManager.cpp
; File C:\Program Files (x86)\Microsoft Visual Studio\2019\Community\VC\Tools\MSVC\14.27.29110\include\xstring
; File C:\DS Project\DS Files\Source\ClientSource\Client\GameLib\MapManager.cpp
;	COMDAT ?LoadMap@CMapManager@@UAE_NABV?$basic_string@DU?$char_traits@D@std@@V?$allocator@D@2@@std@@MMM@Z
_TEXT	SEGMENT
_c_rstrMapName$ = 8					; size = 4
_x$ = 12						; size = 4
_y$ = 16						; size = 4
_z$ = 20						; size = 4
?LoadMap@CMapManager@@UAE_NABV?$basic_string@DU?$char_traits@D@std@@V?$allocator@D@2@@std@@MMM@Z PROC ; CMapManager::LoadMap, COMDAT
; _this$ = ecx

; 109  : {

  00000	55		 push	 ebp
  00001	8b ec		 mov	 ebp, esp
  00003	56		 push	 esi
  00004	57		 push	 edi
  00005	8b f9		 mov	 edi, ecx

; 110  : 	CMapOutdoor& rkMap = GetMapOutdoorRef();

  00007	e8 00 00 00 00	 call	 ?GetMapOutdoorRef@CMapManager@@QAEAAVCMapOutdoor@@XZ ; CMapManager::GetMapOutdoorRef
  0000c	8b f0		 mov	 esi, eax

; 111  : 
; 112  : 	rkMap.Leave();

  0000e	8b ce		 mov	 ecx, esi
  00010	e8 00 00 00 00	 call	 ?Leave@CMapBase@@QAE_NXZ ; CMapBase::Leave
; File C:\Program Files (x86)\Microsoft Visual Studio\2019\Community\VC\Tools\MSVC\14.27.29110\include\xstring

; 2785 :         if (this != _STD addressof(_Right)) {

  00015	8b 45 08	 mov	 eax, DWORD PTR _c_rstrMapName$[ebp]
; File C:\DS Project\DS Files\Source\ClientSource\Client\GameLib\MapBase.h

; 51   : 		void SetName(const std::string & cr_strName) { m_strName = cr_strName; }

  00018	8d 4e 08	 lea	 ecx, DWORD PTR [esi+8]
; File C:\Program Files (x86)\Microsoft Visual Studio\2019\Community\VC\Tools\MSVC\14.27.29110\include\xstring

; 2785 :         if (this != _STD addressof(_Right)) {

  0001b	3b c8		 cmp	 ecx, eax
  0001d	74 13		 je	 SHORT $LN11@LoadMap

; 2153 :         return _BUF_SIZE <= _Myres;

  0001f	83 78 14 10	 cmp	 DWORD PTR [eax+20], 16	; 00000010H

; 2144 :         const value_type* _Result = _Bx._Buf;

  00023	8b d0		 mov	 edx, eax

; 2145 :         if (_Large_string_engaged()) {

  00025	72 02		 jb	 SHORT $LN16@LoadMap

; 2146 :             _Result = _Unfancy(_Bx._Ptr);

  00027	8b 10		 mov	 edx, DWORD PTR [eax]
$LN16@LoadMap:

; 2750 :         assign(_Right._Mypair._Myval2._Myptr(), _Right._Mypair._Myval2._Mysize);

  00029	ff 70 10	 push	 DWORD PTR [eax+16]
  0002c	52		 push	 edx
  0002d	e8 00 00 00 00	 call	 ?assign@?$basic_string@DU?$char_traits@D@std@@V?$allocator@D@2@@std@@QAEAAV12@QBDI@Z ; std::basic_string<char,std::char_traits<char>,std::allocator<char> >::assign
$LN11@LoadMap:
; File C:\DS Project\DS Files\Source\ClientSource\Client\GameLib\MapManager.cpp

; 114  : 	rkMap.LoadProperty();

  00032	8b ce		 mov	 ecx, esi
  00034	e8 00 00 00 00	 call	 ?LoadProperty@CMapBase@@QAE_NXZ ; CMapBase::LoadProperty

; 115  : 
; 116  : 	if ( CMapBase::MAPTYPE_INDOOR == rkMap.GetType())

  00039	8b 46 04	 mov	 eax, DWORD PTR [esi+4]
  0003c	83 f8 01	 cmp	 eax, 1
  0003f	75 15		 jne	 SHORT $LN2@LoadMap

; 117  : 	{
; 118  : 		TraceError("CMapManager::LoadMap() Indoor Map Load Failed");

  00041	68 00 00 00 00	 push	 OFFSET ??_C@_0CO@NOKMKMGJ@CMapManager?3?3LoadMap?$CI?$CJ?5Indoor?5M@

; 141  : }

  00046	e8 00 00 00 00	 call	 ?TraceError@@YAXPBDZZ	; TraceError
  0004b	83 c4 04	 add	 esp, 4
  0004e	32 c0		 xor	 al, al
  00050	5f		 pop	 edi
  00051	5e		 pop	 esi
  00052	5d		 pop	 ebp
  00053	c2 10 00	 ret	 16			; 00000010H
$LN2@LoadMap:

; 119  : 		return false;
; 120  : 	}
; 121  : 	else if (CMapBase::MAPTYPE_OUTDOOR == rkMap.GetType())

  00056	83 f8 02	 cmp	 eax, 2
  00059	75 76		 jne	 SHORT $LN4@LoadMap

; 122  : 	{
; 123  : 		if (!rkMap.Load(x, y, z))

  0005b	f3 0f 10 45 14	 movss	 xmm0, DWORD PTR _z$[ebp]
  00060	83 ec 0c	 sub	 esp, 12			; 0000000cH
  00063	8b 06		 mov	 eax, DWORD PTR [esi]
  00065	8b ce		 mov	 ecx, esi
  00067	f3 0f 11 44 24
	08		 movss	 DWORD PTR [esp+8], xmm0
  0006d	f3 0f 10 45 10	 movss	 xmm0, DWORD PTR _y$[ebp]
  00072	8b 40 10	 mov	 eax, DWORD PTR [eax+16]
  00075	f3 0f 11 44 24
	04		 movss	 DWORD PTR [esp+4], xmm0
  0007b	f3 0f 10 45 0c	 movss	 xmm0, DWORD PTR _x$[ebp]
  00080	f3 0f 11 04 24	 movss	 DWORD PTR [esp], xmm0
  00085	ff d0		 call	 eax
  00087	84 c0		 test	 al, al
  00089	75 15		 jne	 SHORT $LN6@LoadMap

; 124  : 		{
; 125  : 			TraceError("CMapManager::LoadMap() Outdoor Map Load Failed");

  0008b	68 00 00 00 00	 push	 OFFSET ??_C@_0CP@DDEONFBH@CMapManager?3?3LoadMap?$CI?$CJ?5Outdoor?5@

; 141  : }

  00090	e8 00 00 00 00	 call	 ?TraceError@@YAXPBDZZ	; TraceError
  00095	83 c4 04	 add	 esp, 4
  00098	32 c0		 xor	 al, al
  0009a	5f		 pop	 edi
  0009b	5e		 pop	 esi
  0009c	5d		 pop	 ebp
  0009d	c2 10 00	 ret	 16			; 00000010H
$LN6@LoadMap:

; 129  : 		RegisterEnvironmentData(0, rkMap.GetEnvironmentDataName().c_str());

  000a0	8b ce		 mov	 ecx, esi
  000a2	e8 00 00 00 00	 call	 ?GetEnvironmentDataName@CMapOutdoor@@QAEAAV?$basic_string@DU?$char_traits@D@std@@V?$allocator@D@2@@std@@XZ ; CMapOutdoor::GetEnvironmentDataName
; File C:\Program Files (x86)\Microsoft Visual Studio\2019\Community\VC\Tools\MSVC\14.27.29110\include\xstring

; 2153 :         return _BUF_SIZE <= _Myres;

  000a7	83 78 14 10	 cmp	 DWORD PTR [eax+20], 16	; 00000010H

; 2145 :         if (_Large_string_engaged()) {

  000ab	72 02		 jb	 SHORT $LN23@LoadMap

; 2146 :             _Result = _Unfancy(_Bx._Ptr);

  000ad	8b 00		 mov	 eax, DWORD PTR [eax]
$LN23@LoadMap:
; File C:\DS Project\DS Files\Source\ClientSource\Client\GameLib\MapManager.cpp

; 129  : 		RegisterEnvironmentData(0, rkMap.GetEnvironmentDataName().c_str());

  000af	50		 push	 eax
  000b0	6a 00		 push	 0
  000b2	8b cf		 mov	 ecx, edi
  000b4	e8 00 00 00 00	 call	 ?RegisterEnvironmentData@CMapManager@@QAE_NKPBD@Z ; CMapManager::RegisterEnvironmentData

; 130  : 
; 131  : 		SetEnvironmentData(0);

  000b9	6a 00		 push	 0
  000bb	8b cf		 mov	 ecx, edi
  000bd	e8 00 00 00 00	 call	 ?SetEnvironmentData@CMapManager@@QAEXH@Z ; CMapManager::SetEnvironmentData

; 136  : 		return false;
; 137  : 	}
; 138  : 
; 139  : 	rkMap.Enter();

  000c2	8b ce		 mov	 ecx, esi
  000c4	e8 00 00 00 00	 call	 ?Enter@CMapBase@@QAE_NXZ ; CMapBase::Enter
  000c9	5f		 pop	 edi

; 140  : 	return true;

  000ca	b0 01		 mov	 al, 1

; 141  : }

  000cc	5e		 pop	 esi
  000cd	5d		 pop	 ebp
  000ce	c2 10 00	 ret	 16			; 00000010H
$LN4@LoadMap:

; 132  : 	}
; 133  : 	else
; 134  : 	{
; 135  : 		TraceError("CMapManager::LoadMap() Invalid Map Type");

  000d1	68 00 00 00 00	 push	 OFFSET ??_C@_0CI@JGDAGOMB@CMapManager?3?3LoadMap?$CI?$CJ?5Invalid?5@

; 141  : }

  000d6	e8 00 00 00 00	 call	 ?TraceError@@YAXPBDZZ	; TraceError
  000db	83 c4 04	 add	 esp, 4
  000de	32 c0		 xor	 al, al
  000e0	5f		 pop	 edi
  000e1	5e		 pop	 esi
  000e2	5d		 pop	 ebp
  000e3	c2 10 00	 ret	 16			; 00000010H
?LoadMap@CMapManager@@UAE_NABV?$basic_string@DU?$char_traits@D@std@@V?$allocator@D@2@@std@@MMM@Z ENDP ; CMapManager::LoadMap
_TEXT	ENDS
; Function compile flags: /Ogtp
; File C:\DS Project\DS Files\Source\ClientSource\Client\GameLib\MapManager.cpp
;	COMDAT ?IsMapReady@CMapManager@@QAE_NXZ
_TEXT	SEGMENT
?IsMapReady@CMapManager@@QAE_NXZ PROC			; CMapManager::IsMapReady, COMDAT
; _this$ = ecx

; 145  : 	if (!m_pkMap)

  00000	8b 81 30 14 00
	00		 mov	 eax, DWORD PTR [ecx+5168]
  00006	85 c0		 test	 eax, eax
  00008	75 03		 jne	 SHORT $LN2@IsMapReady

; 146  : 		return false;

  0000a	32 c0		 xor	 al, al

; 149  : }

  0000c	c3		 ret	 0
$LN2@IsMapReady:

; 147  : 
; 148  : 	return m_pkMap->IsReady();

  0000d	8a 40 38	 mov	 al, BYTE PTR [eax+56]

; 149  : }

  00010	c3		 ret	 0
?IsMapReady@CMapManager@@QAE_NXZ ENDP			; CMapManager::IsMapReady
_TEXT	ENDS
; Function compile flags: /Ogtp
; File C:\DS Project\DS Files\Source\ClientSource\Client\GameLib\MapManager.cpp
;	COMDAT ?AllocMap@CMapManager@@UAEPAVCMapBase@@XZ
_TEXT	SEGMENT
$T2 = -16						; size = 4
__$EHRec$ = -12						; size = 12
?AllocMap@CMapManager@@UAEPAVCMapBase@@XZ PROC		; CMapManager::AllocMap, COMDAT
; _this$ = ecx

; 94   : {

  00000	55		 push	 ebp
  00001	8b ec		 mov	 ebp, esp
  00003	6a ff		 push	 -1
  00005	68 00 00 00 00	 push	 __ehhandler$?AllocMap@CMapManager@@UAEPAVCMapBase@@XZ
  0000a	64 a1 00 00 00
	00		 mov	 eax, DWORD PTR fs:0
  00010	50		 push	 eax
  00011	51		 push	 ecx
  00012	a1 00 00 00 00	 mov	 eax, DWORD PTR ___security_cookie
  00017	33 c5		 xor	 eax, ebp
  00019	50		 push	 eax
  0001a	8d 45 f4	 lea	 eax, DWORD PTR __$EHRec$[ebp]
  0001d	64 a3 00 00 00
	00		 mov	 DWORD PTR fs:0, eax

; 95   : 	return new CMapOutdoor;

  00023	68 b0 13 00 00	 push	 5040			; 000013b0H
  00028	e8 00 00 00 00	 call	 ??2@YAPAXI@Z		; operator new
  0002d	83 c4 04	 add	 esp, 4
  00030	89 45 f0	 mov	 DWORD PTR $T2[ebp], eax
  00033	c7 45 fc 00 00
	00 00		 mov	 DWORD PTR __$EHRec$[ebp+8], 0
  0003a	85 c0		 test	 eax, eax
  0003c	74 16		 je	 SHORT $LN3@AllocMap
  0003e	8b c8		 mov	 ecx, eax
  00040	e8 00 00 00 00	 call	 ??0CMapOutdoor@@QAE@XZ	; CMapOutdoor::CMapOutdoor

; 96   : }

  00045	8b 4d f4	 mov	 ecx, DWORD PTR __$EHRec$[ebp]
  00048	64 89 0d 00 00
	00 00		 mov	 DWORD PTR fs:0, ecx
  0004f	59		 pop	 ecx
  00050	8b e5		 mov	 esp, ebp
  00052	5d		 pop	 ebp
  00053	c3		 ret	 0
$LN3@AllocMap:

; 95   : 	return new CMapOutdoor;

  00054	33 c0		 xor	 eax, eax

; 96   : }

  00056	8b 4d f4	 mov	 ecx, DWORD PTR __$EHRec$[ebp]
  00059	64 89 0d 00 00
	00 00		 mov	 DWORD PTR fs:0, ecx
  00060	59		 pop	 ecx
  00061	8b e5		 mov	 esp, ebp
  00063	5d		 pop	 ebp
  00064	c3		 ret	 0
_TEXT	ENDS
;	COMDAT text$x
text$x	SEGMENT
__unwindfunclet$?AllocMap@CMapManager@@UAEPAVCMapBase@@XZ$0:
  00000	68 b0 13 00 00	 push	 5040			; 000013b0H
  00005	8b 45 f0	 mov	 eax, DWORD PTR $T2[ebp]
  00008	50		 push	 eax
  00009	e8 00 00 00 00	 call	 ??3@YAXPAXI@Z		; operator delete
  0000e	83 c4 08	 add	 esp, 8
  00011	c3		 ret	 0
  00012	cc		 int	 3
  00013	cc		 int	 3
  00014	cc		 int	 3
  00015	cc		 int	 3
  00016	cc		 int	 3
__ehhandler$?AllocMap@CMapManager@@UAEPAVCMapBase@@XZ:
  00017	90		 npad	 1
  00018	90		 npad	 1
  00019	8b 54 24 08	 mov	 edx, DWORD PTR [esp+8]
  0001d	8d 42 0c	 lea	 eax, DWORD PTR [edx+12]
  00020	8b 4a f8	 mov	 ecx, DWORD PTR [edx-8]
  00023	33 c8		 xor	 ecx, eax
  00025	e8 00 00 00 00	 call	 @__security_check_cookie@4
  0002a	b8 00 00 00 00	 mov	 eax, OFFSET __ehfuncinfo$?AllocMap@CMapManager@@UAEPAVCMapBase@@XZ
  0002f	e9 00 00 00 00	 jmp	 ___CxxFrameHandler3
text$x	ENDS
?AllocMap@CMapManager@@UAEPAVCMapBase@@XZ ENDP		; CMapManager::AllocMap
; Function compile flags: /Ogtp
; File C:\DS Project\DS Files\Source\ClientSource\Client\GameLib\MapManager.cpp
;	COMDAT ?Clear@CMapManager@@UAEXXZ
_TEXT	SEGMENT
?Clear@CMapManager@@UAEXXZ PROC				; CMapManager::Clear, COMDAT
; _this$ = ecx

; 89   : 	if (m_pkMap)

  00000	8b 89 30 14 00
	00		 mov	 ecx, DWORD PTR [ecx+5168]
  00006	85 c9		 test	 ecx, ecx
  00008	74 05		 je	 SHORT $LN2@Clear

; 90   : 		m_pkMap->Clear();

  0000a	8b 01		 mov	 eax, DWORD PTR [ecx]
  0000c	ff 60 04	 jmp	 DWORD PTR [eax+4]
$LN2@Clear:

; 91   : }

  0000f	c3		 ret	 0
?Clear@CMapManager@@UAEXXZ ENDP				; CMapManager::Clear
_TEXT	ENDS
; Function compile flags: /Ogtp
; File C:\DS Project\DS Files\Source\ClientSource\Client\GameLib\MapManager.cpp
;	COMDAT ?Create@CMapManager@@QAEXXZ
_TEXT	SEGMENT
?Create@CMapManager@@QAEXXZ PROC			; CMapManager::Create, COMDAT
; _this$ = ecx

; 59   : {

  00000	56		 push	 esi
  00001	8b f1		 mov	 esi, ecx

; 60   : 	assert(NULL==m_pkMap && "CMapManager::Create");
; 61   : 	if (m_pkMap)

  00003	83 be 30 14 00
	00 00		 cmp	 DWORD PTR [esi+5168], 0
  0000a	74 06		 je	 SHORT $LN2@Create

; 62   : 	{
; 63   : 		Clear();

  0000c	8b 06		 mov	 eax, DWORD PTR [esi]
  0000e	5e		 pop	 esi
  0000f	ff 60 04	 jmp	 DWORD PTR [eax+4]
$LN2@Create:

; 64   : 		return;
; 65   : 	}
; 66   : 
; 67   : 	CTerrainPatch::SOFTWARE_TRANSFORM_PATCH_ENABLE=m_isSoftwareTilingEnableReserved;

  00012	8a 86 c0 14 00
	00		 mov	 al, BYTE PTR [esi+5312]
  00018	a2 00 00 00 00	 mov	 BYTE PTR ?SOFTWARE_TRANSFORM_PATCH_ENABLE@CTerrainPatch@@2_NA, al ; CTerrainPatch::SOFTWARE_TRANSFORM_PATCH_ENABLE

; 68   : 
; 69   : 	m_pkMap = (CMapOutdoor*)AllocMap();

  0001d	8b 06		 mov	 eax, DWORD PTR [esi]
  0001f	ff 50 08	 call	 DWORD PTR [eax+8]
  00022	89 86 30 14 00
	00		 mov	 DWORD PTR [esi+5168], eax
  00028	5e		 pop	 esi

; 70   : 
; 71   : 	assert(NULL!=m_pkMap && "CMapManager::Create MAP is NULL");
; 72   : 
; 73   : }

  00029	c3		 ret	 0
?Create@CMapManager@@QAEXXZ ENDP			; CMapManager::Create
_TEXT	ENDS
; Function compile flags: /Ogtp
; File C:\DS Project\DS Files\Source\ClientSource\Client\GameLib\MapManager.cpp
;	COMDAT ?Destroy@CMapManager@@QAEXXZ
_TEXT	SEGMENT
?Destroy@CMapManager@@QAEXXZ PROC			; CMapManager::Destroy, COMDAT
; _this$ = ecx

; 76   : {

  00000	56		 push	 esi
  00001	8b f1		 mov	 esi, ecx

; 77   : 	stl_wipe_second(m_EnvironmentDataMap);

  00003	8d 86 24 14 00
	00		 lea	 eax, DWORD PTR [esi+5156]
  00009	50		 push	 eax
  0000a	e8 00 00 00 00	 call	 ??$stl_wipe_second@V?$map@KPAUSEnvironmentData@@U?$less@K@std@@V?$allocator@U?$pair@$$CBKPAUSEnvironmentData@@@std@@@3@@std@@@@YAXAAV?$map@KPAUSEnvironmentData@@U?$less@K@std@@V?$allocator@U?$pair@$$CBKPAUSEnvironmentData@@@std@@@3@@std@@@Z ; stl_wipe_second<std::map<unsigned long,SEnvironmentData *,std::less<unsigned long>,std::allocator<std::pair<unsigned long const ,SEnvironmentData *> > > >

; 78   : 
; 79   : 	if (m_pkMap)

  0000f	8b 8e 30 14 00
	00		 mov	 ecx, DWORD PTR [esi+5168]
  00015	83 c4 04	 add	 esp, 4
  00018	85 c9		 test	 ecx, ecx
  0001a	74 1f		 je	 SHORT $LN2@Destroy

; 80   : 	{
; 81   : 		m_pkMap->Clear();

  0001c	8b 01		 mov	 eax, DWORD PTR [ecx]
  0001e	ff 50 04	 call	 DWORD PTR [eax+4]

; 82   : 		delete m_pkMap;

  00021	8b 8e 30 14 00
	00		 mov	 ecx, DWORD PTR [esi+5168]
  00027	85 c9		 test	 ecx, ecx
  00029	74 06		 je	 SHORT $LN4@Destroy
  0002b	8b 01		 mov	 eax, DWORD PTR [ecx]
  0002d	6a 01		 push	 1
  0002f	ff 10		 call	 DWORD PTR [eax]
$LN4@Destroy:

; 83   : 		m_pkMap = NULL;

  00031	c7 86 30 14 00
	00 00 00 00 00	 mov	 DWORD PTR [esi+5168], 0
$LN2@Destroy:
  0003b	5e		 pop	 esi

; 84   : 	}
; 85   : }

  0003c	c3		 ret	 0
?Destroy@CMapManager@@QAEXXZ ENDP			; CMapManager::Destroy
_TEXT	ENDS
; Function compile flags: /Ogtp
; File C:\DS Project\DS Files\Source\ClientSource\Client\GameLib\MapManager.cpp
;	COMDAT ?Initialize@CMapManager@@QAEXXZ
_TEXT	SEGMENT
?Initialize@CMapManager@@QAEXXZ PROC			; CMapManager::Initialize, COMDAT
; _this$ = ecx

; 54   : 	mc_pcurEnvironmentData = NULL;

  00000	c7 81 2c 14 00
	00 00 00 00 00	 mov	 DWORD PTR [ecx+5164], 0

; 55   : 	__LoadMapInfoVector();

  0000a	e9 00 00 00 00	 jmp	 ?__LoadMapInfoVector@CMapManager@@IAEXXZ ; CMapManager::__LoadMapInfoVector
?Initialize@CMapManager@@QAEXXZ ENDP			; CMapManager::Initialize
_TEXT	ENDS
; Function compile flags: /Ogtp
; File C:\DS Project\DS Files\Source\ClientSource\Client\GameLib\MapManager.cpp
;	COMDAT ?ReserveSoftwareTilingEnable@CMapManager@@QAEX_N@Z
_TEXT	SEGMENT
_isEnable$ = 8						; size = 1
?ReserveSoftwareTilingEnable@CMapManager@@QAEX_N@Z PROC	; CMapManager::ReserveSoftwareTilingEnable, COMDAT
; _this$ = ecx

; 47   : {

  00000	55		 push	 ebp
  00001	8b ec		 mov	 ebp, esp

; 48   : 	m_isSoftwareTilingEnableReserved=isEnable;

  00003	8a 45 08	 mov	 al, BYTE PTR _isEnable$[ebp]
  00006	88 81 c0 14 00
	00		 mov	 BYTE PTR [ecx+5312], al

; 49   : }

  0000c	5d		 pop	 ebp
  0000d	c2 04 00	 ret	 4
?ReserveSoftwareTilingEnable@CMapManager@@QAEX_N@Z ENDP	; CMapManager::ReserveSoftwareTilingEnable
_TEXT	ENDS
; Function compile flags: /Ogtp
; File C:\DS Project\DS Files\Source\ClientSource\Client\GameLib\MapManager.cpp
;	COMDAT ?IsSoftwareTilingEnable@CMapManager@@QAE_NXZ
_TEXT	SEGMENT
?IsSoftwareTilingEnable@CMapManager@@QAE_NXZ PROC	; CMapManager::IsSoftwareTilingEnable, COMDAT
; _this$ = ecx

; 43   : 	return CTerrainPatch::SOFTWARE_TRANSFORM_PATCH_ENABLE;

  00000	a0 00 00 00 00	 mov	 al, BYTE PTR ?SOFTWARE_TRANSFORM_PATCH_ENABLE@CTerrainPatch@@2_NA ; CTerrainPatch::SOFTWARE_TRANSFORM_PATCH_ENABLE

; 44   : }

  00005	c3		 ret	 0
?IsSoftwareTilingEnable@CMapManager@@QAE_NXZ ENDP	; CMapManager::IsSoftwareTilingEnable
_TEXT	ENDS
; Function compile flags: /Ogtp
; File C:\DS Project\DS Files\Source\ClientSource\Client\GameLib\MapManager.cpp
;	COMDAT ?GetMapOutdoorRef@CMapManager@@QAEAAVCMapOutdoor@@XZ
_TEXT	SEGMENT
?GetMapOutdoorRef@CMapManager@@QAEAAVCMapOutdoor@@XZ PROC ; CMapManager::GetMapOutdoorRef, COMDAT
; _this$ = ecx

; 23   : 	assert(NULL!=m_pkMap);
; 24   : 	return *m_pkMap;

  00000	8b 81 30 14 00
	00		 mov	 eax, DWORD PTR [ecx+5168]

; 25   : }

  00006	c3		 ret	 0
?GetMapOutdoorRef@CMapManager@@QAEAAVCMapOutdoor@@XZ ENDP ; CMapManager::GetMapOutdoorRef
_TEXT	ENDS
; Function compile flags: /Ogtp
; File C:\DS Project\DS Files\Source\ClientSource\Client\GameLib\MapManager.cpp
;	COMDAT ?IsMapOutdoor@CMapManager@@QAE_NXZ
_TEXT	SEGMENT
?IsMapOutdoor@CMapManager@@QAE_NXZ PROC			; CMapManager::IsMapOutdoor, COMDAT
; _this$ = ecx

; 15   : 	if (m_pkMap)

  00000	83 b9 30 14 00
	00 00		 cmp	 DWORD PTR [ecx+5168], 0
  00007	0f 95 c0	 setne	 al

; 16   : 		return true;
; 17   : 
; 18   : 	return false;
; 19   : }

  0000a	c3		 ret	 0
?IsMapOutdoor@CMapManager@@QAE_NXZ ENDP			; CMapManager::IsMapOutdoor
_TEXT	ENDS
; Function compile flags: /Ogtp
; File C:\DS Project\DS Files\Source\ClientSource\Client\GameLib\MapManager.cpp
; File C:\Program Files (x86)\Microsoft Visual Studio\2019\Community\VC\Tools\MSVC\14.27.29110\include\xstring
; File C:\Program Files (x86)\Microsoft Visual Studio\2019\Community\VC\Tools\MSVC\14.27.29110\include\xmemory
; File C:\DS Project\DS Files\Source\ClientSource\Client\GameLib\MapManager.cpp
; File C:\Program Files (x86)\Microsoft Visual Studio\2019\Community\VC\Tools\MSVC\14.27.29110\include\xstring
; File C:\Program Files (x86)\Microsoft Visual Studio\2019\Community\VC\Tools\MSVC\14.27.29110\include\vector
; File C:\Program Files (x86)\Microsoft Visual Studio\2019\Community\VC\Tools\MSVC\14.27.29110\include\xmemory
; File C:\Program Files (x86)\Microsoft Visual Studio\2019\Community\VC\Tools\MSVC\14.27.29110\include\vector
; File C:\Program Files (x86)\Microsoft Visual Studio\2019\Community\VC\Tools\MSVC\14.27.29110\include\xmemory
; File C:\Program Files (x86)\Microsoft Visual Studio\2019\Community\VC\Tools\MSVC\14.27.29110\include\vector
; File C:\DS Project\DS Files\Source\ClientSource\Client\GameLib\MapManager.cpp
; File C:\DS Project\DS Files\Source\ClientSource\Client\GameLib\PhysicsObject.h
; File C:\DS Project\DS Files\Source\ClientSource\Client\GameLib\MapManager.cpp
; File C:\DS Project\DS Files\Source\ClientSource\Client\GameLib\PhysicsObject.h
; File C:\DS Project\DS Files\Source\ClientSource\Client\GameLib\MapManager.cpp
;	COMDAT ??1CMapManager@@UAE@XZ
_TEXT	SEGMENT
__$EHRec$ = -12						; size = 12
??1CMapManager@@UAE@XZ PROC				; CMapManager::~CMapManager, COMDAT
; _this$ = ecx

; 37   : {

  00000	55		 push	 ebp
  00001	8b ec		 mov	 ebp, esp
  00003	6a ff		 push	 -1
  00005	68 00 00 00 00	 push	 __ehhandler$??1CMapManager@@UAE@XZ
  0000a	64 a1 00 00 00
	00		 mov	 eax, DWORD PTR fs:0
  00010	50		 push	 eax
  00011	53		 push	 ebx
  00012	56		 push	 esi
  00013	57		 push	 edi
  00014	a1 00 00 00 00	 mov	 eax, DWORD PTR ___security_cookie
  00019	33 c5		 xor	 eax, ebp
  0001b	50		 push	 eax
  0001c	8d 45 f4	 lea	 eax, DWORD PTR __$EHRec$[ebp]
  0001f	64 a3 00 00 00
	00		 mov	 DWORD PTR fs:0, eax
  00025	8b f9		 mov	 edi, ecx
  00027	8d 77 04	 lea	 esi, DWORD PTR [edi+4]
  0002a	c7 07 00 00 00
	00		 mov	 DWORD PTR [edi], OFFSET ??_7CMapManager@@6BCScreen@@@
  00030	c7 06 00 00 00
	00		 mov	 DWORD PTR [esi], OFFSET ??_7CMapManager@@6BIPhysicsWorld@@@

; 38   : 	Destroy();

  00036	e8 00 00 00 00	 call	 ?Destroy@CMapManager@@QAEXXZ ; CMapManager::Destroy
; File C:\Program Files (x86)\Microsoft Visual Studio\2019\Community\VC\Tools\MSVC\14.27.29110\include\xstring

; 2153 :         return _BUF_SIZE <= _Myres;

  0003b	8b 87 d8 14 00
	00		 mov	 eax, DWORD PTR [edi+5336]
  00041	83 f8 10	 cmp	 eax, 16			; 00000010H

; 4301 :         if (_Mypair._Myval2._Large_string_engaged()) {

  00044	72 10		 jb	 SHORT $LN7@CMapManage

; 4302 :             const pointer _Ptr = _Mypair._Myval2._Bx._Ptr;
; 4303 :             auto& _Al          = _Getal();
; 4304 :             _Destroy_in_place(_Mypair._Myval2._Bx._Ptr);
; 4305 :             _Al.deallocate(_Ptr, _Mypair._Myval2._Myres + 1);

  00046	40		 inc	 eax
; File C:\Program Files (x86)\Microsoft Visual Studio\2019\Community\VC\Tools\MSVC\14.27.29110\include\xmemory

; 803  :         _Deallocate<_New_alignof<_Ty>>(_Ptr, sizeof(_Ty) * _Count);

  00047	50		 push	 eax
  00048	ff b7 c4 14 00
	00		 push	 DWORD PTR [edi+5316]
  0004e	e8 00 00 00 00	 call	 ??$_Deallocate@$07$0A@@std@@YAXPAXI@Z ; std::_Deallocate<8,0>
  00053	83 c4 08	 add	 esp, 8
$LN7@CMapManage:
; File C:\DS Project\DS Files\Source\ClientSource\Client\GameLib\MapManager.cpp

; 39   : }

  00056	8d 9f b4 14 00
	00		 lea	 ebx, DWORD PTR [edi+5300]
; File C:\Program Files (x86)\Microsoft Visual Studio\2019\Community\VC\Tools\MSVC\14.27.29110\include\xstring

; 4308 :         _Mypair._Myval2._Mysize = 0;

  0005c	c7 87 d4 14 00
	00 00 00 00 00	 mov	 DWORD PTR [edi+5332], 0

; 4309 :         _Mypair._Myval2._Myres  = _BUF_SIZE - 1;

  00066	c7 87 d8 14 00
	00 0f 00 00 00	 mov	 DWORD PTR [edi+5336], 15 ; 0000000fH

; 4310 :         // the _Traits::assign is last so the codegen doesn't think the char write can alias this
; 4311 :         _Traits::assign(_Mypair._Myval2._Bx._Buf[0], _Elem());

  00070	c6 87 c4 14 00
	00 00		 mov	 BYTE PTR [edi+5316], 0
; File C:\Program Files (x86)\Microsoft Visual Studio\2019\Community\VC\Tools\MSVC\14.27.29110\include\vector

; 1693 :         if (_Myfirst) { // destroy and deallocate old array

  00077	8b 03		 mov	 eax, DWORD PTR [ebx]
  00079	85 c0		 test	 eax, eax
  0007b	74 49		 je	 SHORT $LN16@CMapManage

; 1612 :         _Destroy_range(_First, _Last, _Getal());

  0007d	53		 push	 ebx
  0007e	ff 73 04	 push	 DWORD PTR [ebx+4]
  00081	50		 push	 eax
  00082	e8 00 00 00 00	 call	 ??$_Destroy_range@V?$allocator@UTMapInfo@CMapManager@@@std@@@std@@YAXPAUTMapInfo@CMapManager@@QAU12@AAV?$allocator@UTMapInfo@CMapManager@@@0@@Z ; std::_Destroy_range<std::allocator<CMapManager::TMapInfo> >

; 1695 :             _Getal().deallocate(_Myfirst, static_cast<size_type>(_Myend - _Myfirst));

  00087	8b 33		 mov	 esi, DWORD PTR [ebx]
  00089	b8 ab aa aa 2a	 mov	 eax, 715827883		; 2aaaaaabH
  0008e	8b 4b 08	 mov	 ecx, DWORD PTR [ebx+8]
  00091	2b ce		 sub	 ecx, esi
  00093	f7 e9		 imul	 ecx
  00095	c1 fa 03	 sar	 edx, 3
  00098	8b c2		 mov	 eax, edx
  0009a	c1 e8 1f	 shr	 eax, 31			; 0000001fH
  0009d	03 c2		 add	 eax, edx
; File C:\Program Files (x86)\Microsoft Visual Studio\2019\Community\VC\Tools\MSVC\14.27.29110\include\xmemory

; 803  :         _Deallocate<_New_alignof<_Ty>>(_Ptr, sizeof(_Ty) * _Count);

  0009f	8d 04 40	 lea	 eax, DWORD PTR [eax+eax*2]
  000a2	c1 e0 04	 shl	 eax, 4
  000a5	50		 push	 eax
  000a6	56		 push	 esi
  000a7	e8 00 00 00 00	 call	 ??$_Deallocate@$07$0A@@std@@YAXPAXI@Z ; std::_Deallocate<8,0>
; File C:\Program Files (x86)\Microsoft Visual Studio\2019\Community\VC\Tools\MSVC\14.27.29110\include\vector

; 1697 :             _Myfirst = pointer();

  000ac	c7 03 00 00 00
	00		 mov	 DWORD PTR [ebx], 0

; 1699 :             _Myend   = pointer();

  000b2	8d 77 04	 lea	 esi, DWORD PTR [edi+4]
  000b5	c7 43 04 00 00
	00 00		 mov	 DWORD PTR [ebx+4], 0
; File C:\Program Files (x86)\Microsoft Visual Studio\2019\Community\VC\Tools\MSVC\14.27.29110\include\xmemory

; 803  :         _Deallocate<_New_alignof<_Ty>>(_Ptr, sizeof(_Ty) * _Count);

  000bc	83 c4 14	 add	 esp, 20			; 00000014H
; File C:\Program Files (x86)\Microsoft Visual Studio\2019\Community\VC\Tools\MSVC\14.27.29110\include\vector

; 1699 :             _Myend   = pointer();

  000bf	c7 43 08 00 00
	00 00		 mov	 DWORD PTR [ebx+8], 0
$LN16@CMapManage:
; File C:\DS Project\DS Files\Source\ClientSource\Client\GameLib\MapManager.cpp

; 39   : }

  000c6	8d 8f 34 14 00
	00		 lea	 ecx, DWORD PTR [edi+5172]
  000cc	e8 00 00 00 00	 call	 ??1CSpeedTreeForestDirectX8@@UAE@XZ ; CSpeedTreeForestDirectX8::~CSpeedTreeForestDirectX8
  000d1	8d 8f 24 14 00
	00		 lea	 ecx, DWORD PTR [edi+5156]
  000d7	e8 00 00 00 00	 call	 ??1?$_Tree@V?$_Tmap_traits@KPAUSEnvironmentData@@U?$less@K@std@@V?$allocator@U?$pair@$$CBKPAUSEnvironmentData@@@std@@@3@$0A@@std@@@std@@QAE@XZ ; std::_Tree<std::_Tmap_traits<unsigned long,SEnvironmentData *,std::less<unsigned long>,std::allocator<std::pair<unsigned long const ,SEnvironmentData *> >,0> >::~_Tree<std::_Tmap_traits<unsigned long,SEnvironmentData *,std::less<unsigned long>,std::allocator<std::pair<unsigned long const ,SEnvironmentData *> >,0> >
  000dc	8d 4f 08	 lea	 ecx, DWORD PTR [edi+8]
  000df	e8 00 00 00 00	 call	 ??1CPropertyManager@@UAE@XZ ; CPropertyManager::~CPropertyManager
; File C:\DS Project\DS Files\Source\ClientSource\Client\GameLib\PhysicsObject.h

; 15   : 	{

  000e4	c7 06 00 00 00
	00		 mov	 DWORD PTR [esi], OFFSET ??_7IPhysicsWorld@@6B@

; 16   : 		if (this == ms_pWorld)

  000ea	33 c9		 xor	 ecx, ecx
  000ec	a1 00 00 00 00	 mov	 eax, DWORD PTR ?ms_pWorld@IPhysicsWorld@@0PAV1@A ; IPhysicsWorld::ms_pWorld
  000f1	3b f0		 cmp	 esi, eax
  000f3	0f 44 c1	 cmove	 eax, ecx
; File C:\DS Project\DS Files\Source\ClientSource\Client\GameLib\MapManager.cpp

; 39   : }

  000f6	8b cf		 mov	 ecx, edi
; File C:\DS Project\DS Files\Source\ClientSource\Client\GameLib\PhysicsObject.h

; 16   : 		if (this == ms_pWorld)

  000f8	a3 00 00 00 00	 mov	 DWORD PTR ?ms_pWorld@IPhysicsWorld@@0PAV1@A, eax ; IPhysicsWorld::ms_pWorld
; File C:\DS Project\DS Files\Source\ClientSource\Client\GameLib\MapManager.cpp

; 39   : }

  000fd	e8 00 00 00 00	 call	 ??1CScreen@@UAE@XZ	; CScreen::~CScreen
  00102	8b 4d f4	 mov	 ecx, DWORD PTR __$EHRec$[ebp]
  00105	64 89 0d 00 00
	00 00		 mov	 DWORD PTR fs:0, ecx
  0010c	59		 pop	 ecx
  0010d	5f		 pop	 edi
  0010e	5e		 pop	 esi
  0010f	5b		 pop	 ebx
  00110	8b e5		 mov	 esp, ebp
  00112	5d		 pop	 ebp
  00113	c3		 ret	 0
  00114	cc		 int	 3
  00115	cc		 int	 3
  00116	cc		 int	 3
  00117	cc		 int	 3
  00118	cc		 int	 3
_TEXT	ENDS
;	COMDAT text$x
text$x	SEGMENT
__ehhandler$??1CMapManager@@UAE@XZ:
  00000	90		 npad	 1
  00001	90		 npad	 1
  00002	8b 54 24 08	 mov	 edx, DWORD PTR [esp+8]
  00006	8d 42 0c	 lea	 eax, DWORD PTR [edx+12]
  00009	8b 4a f0	 mov	 ecx, DWORD PTR [edx-16]
  0000c	33 c8		 xor	 ecx, eax
  0000e	e8 00 00 00 00	 call	 @__security_check_cookie@4
  00013	b8 00 00 00 00	 mov	 eax, OFFSET __ehfuncinfo$??1CMapManager@@UAE@XZ
  00018	e9 00 00 00 00	 jmp	 ___CxxFrameHandler3
text$x	ENDS
??1CMapManager@@UAE@XZ ENDP				; CMapManager::~CMapManager
; Function compile flags: /Ogtp
; File C:\DS Project\DS Files\Source\ClientSource\Client\GameLib\MapManager.cpp
; File C:\DS Project\DS Files\Source\ClientSource\Client\GameLib\PhysicsObject.h
; File C:\DS Project\DS Files\Source\ClientSource\Client\GameLib\MapManager.cpp
; File C:\Program Files (x86)\Microsoft Visual Studio\2019\Community\VC\Tools\MSVC\14.27.29110\include\xmemory
; File C:\Program Files (x86)\Microsoft Visual Studio\2019\Community\VC\Tools\MSVC\14.27.29110\include\xtree
; File C:\Program Files (x86)\Microsoft Visual Studio\2019\Community\VC\Tools\MSVC\14.27.29110\include\xmemory
; File C:\Program Files (x86)\Microsoft Visual Studio\2019\Community\VC\Tools\MSVC\14.27.29110\include\xtree
; File C:\DS Project\DS Files\Source\ClientSource\Client\GameLib\MapManager.cpp
; File C:\Program Files (x86)\Microsoft Visual Studio\2019\Community\VC\Tools\MSVC\14.27.29110\include\vector
; File C:\DS Project\DS Files\Source\ClientSource\Client\GameLib\MapManager.cpp
; File C:\Program Files (x86)\Microsoft Visual Studio\2019\Community\VC\Tools\MSVC\14.27.29110\include\vector
; File C:\Program Files (x86)\Microsoft Visual Studio\2019\Community\VC\Tools\MSVC\14.27.29110\include\xstring
; File C:\DS Project\DS Files\Source\ClientSource\Client\GameLib\MapManager.cpp
;	COMDAT ??0CMapManager@@QAE@XZ
_TEXT	SEGMENT
_this$ = -20						; size = 4
__Pnode$2 = -16						; size = 4
_this$ = -16						; size = 4
__$EHRec$ = -12						; size = 12
??0CMapManager@@QAE@XZ PROC				; CMapManager::CMapManager, COMDAT
; _this$ = ecx

; 29   : {

  00000	55		 push	 ebp
  00001	8b ec		 mov	 ebp, esp
  00003	6a ff		 push	 -1
  00005	68 00 00 00 00	 push	 __ehhandler$??0CMapManager@@QAE@XZ
  0000a	64 a1 00 00 00
	00		 mov	 eax, DWORD PTR fs:0
  00010	50		 push	 eax
  00011	83 ec 08	 sub	 esp, 8
  00014	53		 push	 ebx
  00015	56		 push	 esi
  00016	57		 push	 edi
  00017	a1 00 00 00 00	 mov	 eax, DWORD PTR ___security_cookie
  0001c	33 c5		 xor	 eax, ebp
  0001e	50		 push	 eax
  0001f	8d 45 f4	 lea	 eax, DWORD PTR __$EHRec$[ebp]
  00022	64 a3 00 00 00
	00		 mov	 DWORD PTR fs:0, eax
  00028	8b d9		 mov	 ebx, ecx
  0002a	89 5d ec	 mov	 DWORD PTR _this$[ebp], ebx
  0002d	e8 00 00 00 00	 call	 ??0CScreen@@QAE@XZ	; CScreen::CScreen
  00032	8d 43 04	 lea	 eax, DWORD PTR [ebx+4]
  00035	c7 45 fc 00 00
	00 00		 mov	 DWORD PTR __$EHRec$[ebp+8], 0
; File C:\DS Project\DS Files\Source\ClientSource\Client\GameLib\PhysicsObject.h

; 8    : 	IPhysicsWorld()

  0003c	c7 00 00 00 00
	00		 mov	 DWORD PTR [eax], OFFSET ??_7IPhysicsWorld@@6B@

; 9    : 	{
; 10   : 		assert(ms_pWorld == NULL);
; 11   : 		ms_pWorld = this;

  00042	a3 00 00 00 00	 mov	 DWORD PTR ?ms_pWorld@IPhysicsWorld@@0PAV1@A, eax ; IPhysicsWorld::ms_pWorld
; File C:\DS Project\DS Files\Source\ClientSource\Client\GameLib\MapManager.cpp

; 29   : {

  00047	8d 4b 08	 lea	 ecx, DWORD PTR [ebx+8]
  0004a	c6 45 fc 01	 mov	 BYTE PTR __$EHRec$[ebp+8], 1
  0004e	c7 03 00 00 00
	00		 mov	 DWORD PTR [ebx], OFFSET ??_7CMapManager@@6BCScreen@@@
  00054	c7 00 00 00 00
	00		 mov	 DWORD PTR [eax], OFFSET ??_7CMapManager@@6BIPhysicsWorld@@@
  0005a	e8 00 00 00 00	 call	 ??0CPropertyManager@@QAE@XZ ; CPropertyManager::CPropertyManager
  0005f	8d bb 24 14 00
	00		 lea	 edi, DWORD PTR [ebx+5156]
  00065	c6 45 fc 02	 mov	 BYTE PTR __$EHRec$[ebp+8], 2
  00069	89 7d f0	 mov	 DWORD PTR _this$[ebp], edi
; File C:\Program Files (x86)\Microsoft Visual Studio\2019\Community\VC\Tools\MSVC\14.27.29110\include\xmemory

; 807  :         return static_cast<_Ty*>(_Allocate<_New_alignof<_Ty>>(_Get_size_of_n<sizeof(_Ty)>(_Count)));

  0006c	6a 18		 push	 24			; 00000018H
; File C:\Program Files (x86)\Microsoft Visual Studio\2019\Community\VC\Tools\MSVC\14.27.29110\include\xtree

; 435  :     _Tree_val() noexcept : _Myhead(), _Mysize(0) {}

  0006e	c7 07 00 00 00
	00		 mov	 DWORD PTR [edi], 0
  00074	c7 47 04 00 00
	00 00		 mov	 DWORD PTR [edi+4], 0
; File C:\Program Files (x86)\Microsoft Visual Studio\2019\Community\VC\Tools\MSVC\14.27.29110\include\xmemory

; 807  :         return static_cast<_Ty*>(_Allocate<_New_alignof<_Ty>>(_Get_size_of_n<sizeof(_Ty)>(_Count)));

  0007b	e8 00 00 00 00	 call	 ??$_Allocate@$07U_Default_allocate_traits@std@@$0A@@std@@YAPAXI@Z ; std::_Allocate<8,std::_Default_allocate_traits,0>
; File C:\Program Files (x86)\Microsoft Visual Studio\2019\Community\VC\Tools\MSVC\14.27.29110\include\xtree

; 343  :         const auto _Pnode = _Al.allocate(1);

  00080	8b f0		 mov	 esi, eax

; 344  :         _Construct_in_place(_Pnode->_Left, _Pnode);

  00082	8d 45 f0	 lea	 eax, DWORD PTR __Pnode$2[ebp]
  00085	50		 push	 eax
  00086	56		 push	 esi
  00087	89 75 f0	 mov	 DWORD PTR __Pnode$2[ebp], esi
  0008a	e8 00 00 00 00	 call	 ??$_Construct_in_place@PAU?$_Tree_node@U?$pair@$$CBKPAUSEnvironmentData@@@std@@PAX@std@@ABQAU12@@std@@YAXAAPAU?$_Tree_node@U?$pair@$$CBKPAUSEnvironmentData@@@std@@PAX@0@ABQAU10@@Z ; std::_Construct_in_place<std::_Tree_node<std::pair<unsigned long const ,SEnvironmentData *>,void *> *,std::_Tree_node<std::pair<unsigned long const ,SEnvironmentData *>,void *> * const &>

; 345  :         _Construct_in_place(_Pnode->_Parent, _Pnode);

  0008f	8d 45 f0	 lea	 eax, DWORD PTR __Pnode$2[ebp]
  00092	50		 push	 eax
  00093	8d 4e 04	 lea	 ecx, DWORD PTR [esi+4]
  00096	51		 push	 ecx
  00097	e8 00 00 00 00	 call	 ??$_Construct_in_place@PAU?$_Tree_node@U?$pair@$$CBKPAUSEnvironmentData@@@std@@PAX@std@@ABQAU12@@std@@YAXAAPAU?$_Tree_node@U?$pair@$$CBKPAUSEnvironmentData@@@std@@PAX@0@ABQAU10@@Z ; std::_Construct_in_place<std::_Tree_node<std::pair<unsigned long const ,SEnvironmentData *>,void *> *,std::_Tree_node<std::pair<unsigned long const ,SEnvironmentData *>,void *> * const &>

; 346  :         _Construct_in_place(_Pnode->_Right, _Pnode);

  0009c	8d 45 f0	 lea	 eax, DWORD PTR __Pnode$2[ebp]
  0009f	50		 push	 eax
  000a0	8d 46 08	 lea	 eax, DWORD PTR [esi+8]
  000a3	50		 push	 eax
  000a4	e8 00 00 00 00	 call	 ??$_Construct_in_place@PAU?$_Tree_node@U?$pair@$$CBKPAUSEnvironmentData@@@std@@PAX@std@@ABQAU12@@std@@YAXAAPAU?$_Tree_node@U?$pair@$$CBKPAUSEnvironmentData@@@std@@PAX@0@ABQAU10@@Z ; std::_Construct_in_place<std::_Tree_node<std::pair<unsigned long const ,SEnvironmentData *>,void *> *,std::_Tree_node<std::pair<unsigned long const ,SEnvironmentData *>,void *> * const &>

; 347  :         _Pnode->_Color = _Black;

  000a9	66 c7 46 0c 01
	01		 mov	 WORD PTR [esi+12], 257	; 00000101H
  000af	83 c4 1c	 add	 esp, 28			; 0000001cH

; 2021 :         _Scary->_Myhead = _Node::_Buyheadnode(_Getal());

  000b2	89 37		 mov	 DWORD PTR [edi], esi
; File C:\DS Project\DS Files\Source\ClientSource\Client\GameLib\MapManager.cpp

; 29   : {

  000b4	8d 8b 34 14 00
	00		 lea	 ecx, DWORD PTR [ebx+5172]
  000ba	c6 45 fc 03	 mov	 BYTE PTR __$EHRec$[ebp+8], 3
  000be	c7 83 2c 14 00
	00 00 00 00 00	 mov	 DWORD PTR [ebx+5164], 0
  000c8	e8 00 00 00 00	 call	 ??0CSpeedTreeForestDirectX8@@QAE@XZ ; CSpeedTreeForestDirectX8::CSpeedTreeForestDirectX8
; File C:\Program Files (x86)\Microsoft Visual Studio\2019\Community\VC\Tools\MSVC\14.27.29110\include\vector

; 375  :     _Vector_val() noexcept : _Myfirst(), _Mylast(), _Myend() {}

  000cd	c7 83 b4 14 00
	00 00 00 00 00	 mov	 DWORD PTR [ebx+5300], 0
; File C:\DS Project\DS Files\Source\ClientSource\Client\GameLib\MapManager.cpp

; 34   : }

  000d7	8b c3		 mov	 eax, ebx
; File C:\Program Files (x86)\Microsoft Visual Studio\2019\Community\VC\Tools\MSVC\14.27.29110\include\vector

; 375  :     _Vector_val() noexcept : _Myfirst(), _Mylast(), _Myend() {}

  000d9	c7 83 b8 14 00
	00 00 00 00 00	 mov	 DWORD PTR [ebx+5304], 0
  000e3	c7 83 bc 14 00
	00 00 00 00 00	 mov	 DWORD PTR [ebx+5308], 0
; File C:\Program Files (x86)\Microsoft Visual Studio\2019\Community\VC\Tools\MSVC\14.27.29110\include\xstring

; 4293 :         _Mypair._Myval2._Mysize = 0;

  000ed	c7 83 d4 14 00
	00 00 00 00 00	 mov	 DWORD PTR [ebx+5332], 0

; 4294 :         _Mypair._Myval2._Myres  = _BUF_SIZE - 1;

  000f7	c7 83 d8 14 00
	00 0f 00 00 00	 mov	 DWORD PTR [ebx+5336], 15 ; 0000000fH

; 4295 :         // the _Traits::assign is last so the codegen doesn't think the char write can alias this
; 4296 :         _Traits::assign(_Mypair._Myval2._Bx._Buf[0], _Elem());

  00101	c6 83 c4 14 00
	00 00		 mov	 BYTE PTR [ebx+5316], 0
; File C:\DS Project\DS Files\Source\ClientSource\Client\GameLib\MapManager.cpp

; 30   : 	m_pkMap = NULL;

  00108	c7 83 30 14 00
	00 00 00 00 00	 mov	 DWORD PTR [ebx+5168], 0

; 31   : 	m_isSoftwareTilingEnableReserved=false;

  00112	c6 83 c0 14 00
	00 00		 mov	 BYTE PTR [ebx+5312], 0

; 34   : }

  00119	8b 4d f4	 mov	 ecx, DWORD PTR __$EHRec$[ebp]
  0011c	64 89 0d 00 00
	00 00		 mov	 DWORD PTR fs:0, ecx
  00123	59		 pop	 ecx
  00124	5f		 pop	 edi
  00125	5e		 pop	 esi
  00126	5b		 pop	 ebx
  00127	8b e5		 mov	 esp, ebp
  00129	5d		 pop	 ebp
  0012a	c3		 ret	 0
_TEXT	ENDS
;	COMDAT text$x
text$x	SEGMENT
__unwindfunclet$??0CMapManager@@QAE@XZ$0:
  00000	8b 4d ec	 mov	 ecx, DWORD PTR _this$[ebp]
  00003	e9 00 00 00 00	 jmp	 ??1CScreen@@UAE@XZ	; CScreen::~CScreen
__unwindfunclet$??0CMapManager@@QAE@XZ$1:
  00008	8b 4d ec	 mov	 ecx, DWORD PTR _this$[ebp]
  0000b	83 c1 04	 add	 ecx, 4
  0000e	e9 00 00 00 00	 jmp	 ??1IPhysicsWorld@@UAE@XZ ; IPhysicsWorld::~IPhysicsWorld
__unwindfunclet$??0CMapManager@@QAE@XZ$2:
  00013	8b 4d ec	 mov	 ecx, DWORD PTR _this$[ebp]
  00016	83 c1 08	 add	 ecx, 8
  00019	e9 00 00 00 00	 jmp	 ??1CPropertyManager@@UAE@XZ ; CPropertyManager::~CPropertyManager
__unwindfunclet$??0CMapManager@@QAE@XZ$3:
  0001e	8b 4d ec	 mov	 ecx, DWORD PTR _this$[ebp]
  00021	81 c1 24 14 00
	00		 add	 ecx, 5156		; 00001424H
  00027	e9 00 00 00 00	 jmp	 ??1?$map@KPAUSEnvironmentData@@U?$less@K@std@@V?$allocator@U?$pair@$$CBKPAUSEnvironmentData@@@std@@@3@@std@@QAE@XZ
  0002c	cc		 int	 3
  0002d	cc		 int	 3
  0002e	cc		 int	 3
  0002f	cc		 int	 3
  00030	cc		 int	 3
__ehhandler$??0CMapManager@@QAE@XZ:
  00031	90		 npad	 1
  00032	90		 npad	 1
  00033	8b 54 24 08	 mov	 edx, DWORD PTR [esp+8]
  00037	8d 42 0c	 lea	 eax, DWORD PTR [edx+12]
  0003a	8b 4a e8	 mov	 ecx, DWORD PTR [edx-24]
  0003d	33 c8		 xor	 ecx, eax
  0003f	e8 00 00 00 00	 call	 @__security_check_cookie@4
  00044	b8 00 00 00 00	 mov	 eax, OFFSET __ehfuncinfo$??0CMapManager@@QAE@XZ
  00049	e9 00 00 00 00	 jmp	 ___CxxFrameHandler3
text$x	ENDS
??0CMapManager@@QAE@XZ ENDP				; CMapManager::CMapManager
; Function compile flags: /Ogtp
; File C:\DS Project\DS Files\Source\ClientSource\Client\GameLib\PhysicsObject.h
;	COMDAT ??_GIPhysicsWorld@@UAEPAXI@Z
_TEXT	SEGMENT
___flags$ = 8						; size = 4
??_GIPhysicsWorld@@UAEPAXI@Z PROC			; IPhysicsWorld::`scalar deleting destructor', COMDAT
; _this$ = ecx
  00000	55		 push	 ebp
  00001	8b ec		 mov	 ebp, esp

; 15   : 	{

  00003	56		 push	 esi
  00004	8b f1		 mov	 esi, ecx

; 16   : 		if (this == ms_pWorld)

  00006	33 c9		 xor	 ecx, ecx
  00008	c7 06 00 00 00
	00		 mov	 DWORD PTR [esi], OFFSET ??_7IPhysicsWorld@@6B@
  0000e	a1 00 00 00 00	 mov	 eax, DWORD PTR ?ms_pWorld@IPhysicsWorld@@0PAV1@A ; IPhysicsWorld::ms_pWorld
  00013	3b f0		 cmp	 esi, eax
  00015	0f 44 c1	 cmove	 eax, ecx
  00018	f6 45 08 01	 test	 BYTE PTR ___flags$[ebp], 1
  0001c	a3 00 00 00 00	 mov	 DWORD PTR ?ms_pWorld@IPhysicsWorld@@0PAV1@A, eax ; IPhysicsWorld::ms_pWorld
  00021	74 0b		 je	 SHORT $LN7@scalar
  00023	6a 04		 push	 4
  00025	56		 push	 esi
  00026	e8 00 00 00 00	 call	 ??3@YAXPAXI@Z		; operator delete
  0002b	83 c4 08	 add	 esp, 8
$LN7@scalar:
  0002e	8b c6		 mov	 eax, esi
  00030	5e		 pop	 esi
  00031	5d		 pop	 ebp
  00032	c2 04 00	 ret	 4
??_GIPhysicsWorld@@UAEPAXI@Z ENDP			; IPhysicsWorld::`scalar deleting destructor'
_TEXT	ENDS
; Function compile flags: /Ogtp
; File C:\DS Project\DS Files\Source\ClientSource\Client\GameLib\PhysicsObject.h
;	COMDAT ??1IPhysicsWorld@@UAE@XZ
_TEXT	SEGMENT
??1IPhysicsWorld@@UAE@XZ PROC				; IPhysicsWorld::~IPhysicsWorld, COMDAT
; _this$ = ecx

; 15   : 	{

  00000	c7 01 00 00 00
	00		 mov	 DWORD PTR [ecx], OFFSET ??_7IPhysicsWorld@@6B@

; 16   : 		if (this == ms_pWorld)

  00006	33 d2		 xor	 edx, edx
  00008	a1 00 00 00 00	 mov	 eax, DWORD PTR ?ms_pWorld@IPhysicsWorld@@0PAV1@A ; IPhysicsWorld::ms_pWorld
  0000d	3b c8		 cmp	 ecx, eax
  0000f	0f 44 c2	 cmove	 eax, edx
  00012	a3 00 00 00 00	 mov	 DWORD PTR ?ms_pWorld@IPhysicsWorld@@0PAV1@A, eax ; IPhysicsWorld::ms_pWorld

; 17   : 			ms_pWorld = NULL;
; 18   : 	}

  00017	c3		 ret	 0
??1IPhysicsWorld@@UAE@XZ ENDP				; IPhysicsWorld::~IPhysicsWorld
_TEXT	ENDS
; Function compile flags: /Ogtp
; File C:\Program Files (x86)\Microsoft Visual Studio\2019\Community\VC\Tools\MSVC\14.27.29110\include\xstring
;	COMDAT ??$_Traits_equal@U?$char_traits@D@std@@@std@@YA_NQBDI0I@Z
_TEXT	SEGMENT
__Left$ = 8						; size = 4
__Left_size$ = 12					; size = 4
__Right$ = 16						; size = 4
__Right_size$ = 20					; size = 4
??$_Traits_equal@U?$char_traits@D@std@@@std@@YA_NQBDI0I@Z PROC ; std::_Traits_equal<std::char_traits<char> >, COMDAT

; 502  :     _In_reads_(_Right_size) const _Traits_ptr_t<_Traits> _Right, const size_t _Right_size) noexcept {

  00000	55		 push	 ebp
  00001	8b ec		 mov	 ebp, esp

; 503  :     // compare [_Left, _Left + _Left_size) to [_Right, _Right + _Right_size) for equality using _Traits
; 504  :     return _Left_size == _Right_size && _Traits::compare(_Left, _Right, _Left_size) == 0;

  00003	8b 4d 0c	 mov	 ecx, DWORD PTR __Left_size$[ebp]
  00006	3b 4d 14	 cmp	 ecx, DWORD PTR __Right_size$[ebp]
  00009	75 61		 jne	 SHORT $LN3@Traits_equ

; 301  :         return _CSTD memcmp(_First1, _First2, _Count);

  0000b	8b 55 08	 mov	 edx, DWORD PTR __Left$[ebp]
  0000e	56		 push	 esi
  0000f	8b 75 10	 mov	 esi, DWORD PTR __Right$[ebp]
  00012	83 e9 04	 sub	 ecx, 4
  00015	72 11		 jb	 SHORT $LN9@Traits_equ
$LL10@Traits_equ:
  00017	8b 02		 mov	 eax, DWORD PTR [edx]
  00019	3b 06		 cmp	 eax, DWORD PTR [esi]
  0001b	75 10		 jne	 SHORT $LN8@Traits_equ
  0001d	83 c2 04	 add	 edx, 4
  00020	83 c6 04	 add	 esi, 4
  00023	83 e9 04	 sub	 ecx, 4
  00026	73 ef		 jae	 SHORT $LL10@Traits_equ
$LN9@Traits_equ:
  00028	83 f9 fc	 cmp	 ecx, -4			; fffffffcH
  0002b	74 34		 je	 SHORT $LN7@Traits_equ
$LN8@Traits_equ:
  0002d	8a 02		 mov	 al, BYTE PTR [edx]
  0002f	3a 06		 cmp	 al, BYTE PTR [esi]
  00031	75 27		 jne	 SHORT $LN11@Traits_equ
  00033	83 f9 fd	 cmp	 ecx, -3			; fffffffdH
  00036	74 29		 je	 SHORT $LN7@Traits_equ
  00038	8a 42 01	 mov	 al, BYTE PTR [edx+1]
  0003b	3a 46 01	 cmp	 al, BYTE PTR [esi+1]
  0003e	75 1a		 jne	 SHORT $LN11@Traits_equ
  00040	83 f9 fe	 cmp	 ecx, -2			; fffffffeH
  00043	74 1c		 je	 SHORT $LN7@Traits_equ
  00045	8a 42 02	 mov	 al, BYTE PTR [edx+2]
  00048	3a 46 02	 cmp	 al, BYTE PTR [esi+2]
  0004b	75 0d		 jne	 SHORT $LN11@Traits_equ
  0004d	83 f9 ff	 cmp	 ecx, -1
  00050	74 0f		 je	 SHORT $LN7@Traits_equ
  00052	8a 42 03	 mov	 al, BYTE PTR [edx+3]
  00055	3a 46 03	 cmp	 al, BYTE PTR [esi+3]
  00058	74 07		 je	 SHORT $LN7@Traits_equ
$LN11@Traits_equ:
  0005a	1b c0		 sbb	 eax, eax
  0005c	83 c8 01	 or	 eax, 1
  0005f	eb 02		 jmp	 SHORT $LN12@Traits_equ
$LN7@Traits_equ:
  00061	33 c0		 xor	 eax, eax
$LN12@Traits_equ:
  00063	5e		 pop	 esi

; 503  :     // compare [_Left, _Left + _Left_size) to [_Right, _Right + _Right_size) for equality using _Traits
; 504  :     return _Left_size == _Right_size && _Traits::compare(_Left, _Right, _Left_size) == 0;

  00064	85 c0		 test	 eax, eax
  00066	75 04		 jne	 SHORT $LN3@Traits_equ
  00068	b0 01		 mov	 al, 1

; 505  : }

  0006a	5d		 pop	 ebp
  0006b	c3		 ret	 0
$LN3@Traits_equ:

; 503  :     // compare [_Left, _Left + _Left_size) to [_Right, _Right + _Right_size) for equality using _Traits
; 504  :     return _Left_size == _Right_size && _Traits::compare(_Left, _Right, _Left_size) == 0;

  0006c	32 c0		 xor	 al, al

; 505  : }

  0006e	5d		 pop	 ebp
  0006f	c3		 ret	 0
??$_Traits_equal@U?$char_traits@D@std@@@std@@YA_NQBDI0I@Z ENDP ; std::_Traits_equal<std::char_traits<char> >
_TEXT	ENDS
; Function compile flags: /Ogtp
; File C:\Program Files (x86)\Microsoft Visual Studio\2019\Community\VC\Tools\MSVC\14.27.29110\include\xmemory
;	COMDAT ??$_Allocate_manually_vector_aligned@U_Default_allocate_traits@std@@@std@@YAPAXI@Z
_TEXT	SEGMENT
__Bytes$ = 8						; size = 4
??$_Allocate_manually_vector_aligned@U_Default_allocate_traits@std@@@std@@YAPAXI@Z PROC ; std::_Allocate_manually_vector_aligned<std::_Default_allocate_traits>, COMDAT

; 113  : __declspec(allocator) void* _Allocate_manually_vector_aligned(const size_t _Bytes) {

  00000	55		 push	 ebp
  00001	8b ec		 mov	 ebp, esp

; 114  :     // allocate _Bytes manually aligned to at least _Big_allocation_alignment
; 115  :     const size_t _Block_size = _Non_user_size + _Bytes;

  00003	8b 45 08	 mov	 eax, DWORD PTR __Bytes$[ebp]
  00006	8d 48 23	 lea	 ecx, DWORD PTR [eax+35]

; 116  :     if (_Block_size <= _Bytes) {

  00009	3b c8		 cmp	 ecx, eax
  0000b	0f 86 00 00 00
	00		 jbe	 ?_Throw_bad_array_new_length@std@@YAXXZ ; std::_Throw_bad_array_new_length

; 77   :         return ::operator new(_Bytes);

  00011	51		 push	 ecx
  00012	e8 00 00 00 00	 call	 ??2@YAPAXI@Z		; operator new

; 117  :         _Throw_bad_array_new_length(); // add overflow
; 118  :     }
; 119  : 
; 120  :     const uintptr_t _Ptr_container = reinterpret_cast<uintptr_t>(_Traits::_Allocate(_Block_size));

  00017	8b c8		 mov	 ecx, eax

; 77   :         return ::operator new(_Bytes);

  00019	83 c4 04	 add	 esp, 4

; 121  :     _STL_VERIFY(_Ptr_container != 0, "invalid argument"); // validate even in release since we're doing p[-1]

  0001c	85 c9		 test	 ecx, ecx
  0001e	74 0b		 je	 SHORT $LN7@Allocate_m

; 122  :     void* const _Ptr = reinterpret_cast<void*>((_Ptr_container + _Non_user_size) & ~(_Big_allocation_alignment - 1));

  00020	8d 41 23	 lea	 eax, DWORD PTR [ecx+35]
  00023	83 e0 e0	 and	 eax, -32		; ffffffe0H

; 123  :     static_cast<uintptr_t*>(_Ptr)[-1] = _Ptr_container;

  00026	89 48 fc	 mov	 DWORD PTR [eax-4], ecx

; 124  : 
; 125  : #ifdef _DEBUG
; 126  :     static_cast<uintptr_t*>(_Ptr)[-2] = _Big_allocation_sentinel;
; 127  : #endif // _DEBUG
; 128  :     return _Ptr;
; 129  : }

  00029	5d		 pop	 ebp
  0002a	c3		 ret	 0
$LN7@Allocate_m:

; 121  :     _STL_VERIFY(_Ptr_container != 0, "invalid argument"); // validate even in release since we're doing p[-1]

  0002b	e9 00 00 00 00	 jmp	 __invalid_parameter_noinfo_noreturn
??$_Allocate_manually_vector_aligned@U_Default_allocate_traits@std@@@std@@YAPAXI@Z ENDP ; std::_Allocate_manually_vector_aligned<std::_Default_allocate_traits>
_TEXT	ENDS
; Function compile flags: /Ogtp
; File C:\Program Files (x86)\Microsoft Visual Studio\2019\Community\VC\Tools\MSVC\14.27.29110\include\xmemory
;	COMDAT ??$_Allocate@$07U_Default_allocate_traits@std@@$0A@@std@@YAPAXI@Z
_TEXT	SEGMENT
__Bytes$ = 8						; size = 4
??$_Allocate@$07U_Default_allocate_traits@std@@$0A@@std@@YAPAXI@Z PROC ; std::_Allocate<8,std::_Default_allocate_traits,0>, COMDAT

; 197  : __declspec(allocator) void* _Allocate(const size_t _Bytes) {

  00000	55		 push	 ebp
  00001	8b ec		 mov	 ebp, esp

; 198  :     // allocate _Bytes when !_HAS_ALIGNED_NEW || _Align <= __STDCPP_DEFAULT_NEW_ALIGNMENT__
; 199  : #if defined(_M_IX86) || defined(_M_X64)
; 200  :     if (_Bytes >= _Big_allocation_threshold) { // boost the alignment of big allocations to help autovectorization

  00003	8b 45 08	 mov	 eax, DWORD PTR __Bytes$[ebp]
  00006	3d 00 10 00 00	 cmp	 eax, 4096		; 00001000H
  0000b	72 09		 jb	 SHORT $LN2@Allocate

; 201  :         return _Allocate_manually_vector_aligned<_Traits>(_Bytes);

  0000d	89 45 08	 mov	 DWORD PTR __Bytes$[ebp], eax

; 210  : }

  00010	5d		 pop	 ebp

; 201  :         return _Allocate_manually_vector_aligned<_Traits>(_Bytes);

  00011	e9 00 00 00 00	 jmp	 ??$_Allocate_manually_vector_aligned@U_Default_allocate_traits@std@@@std@@YAPAXI@Z ; std::_Allocate_manually_vector_aligned<std::_Default_allocate_traits>
$LN2@Allocate:

; 202  :     }
; 203  : #endif // defined(_M_IX86) || defined(_M_X64)
; 204  : 
; 205  :     if (_Bytes != 0) {

  00016	85 c0		 test	 eax, eax
  00018	74 09		 je	 SHORT $LN3@Allocate

; 77   :         return ::operator new(_Bytes);

  0001a	89 45 08	 mov	 DWORD PTR __Bytes$[ebp], eax

; 210  : }

  0001d	5d		 pop	 ebp

; 77   :         return ::operator new(_Bytes);

  0001e	e9 00 00 00 00	 jmp	 ??2@YAPAXI@Z		; operator new
$LN3@Allocate:

; 206  :         return _Traits::_Allocate(_Bytes);
; 207  :     }
; 208  : 
; 209  :     return nullptr;

  00023	33 c0		 xor	 eax, eax

; 210  : }

  00025	5d		 pop	 ebp
  00026	c3		 ret	 0
??$_Allocate@$07U_Default_allocate_traits@std@@$0A@@std@@YAPAXI@Z ENDP ; std::_Allocate<8,std::_Default_allocate_traits,0>
_TEXT	ENDS
; Function compile flags: /Ogtp
; File C:\Program Files (x86)\Microsoft Visual Studio\2019\Community\VC\Tools\MSVC\14.27.29110\include\xmemory
;	COMDAT ??$_Deallocate@$07$0A@@std@@YAXPAXI@Z
_TEXT	SEGMENT
__Ptr$ = 8						; size = 4
__Bytes$ = 12						; size = 4
??$_Deallocate@$07$0A@@std@@YAXPAXI@Z PROC		; std::_Deallocate<8,0>, COMDAT

; 213  : void _Deallocate(void* _Ptr, size_t _Bytes) noexcept {

  00000	55		 push	 ebp
  00001	8b ec		 mov	 ebp, esp

; 214  :     // deallocate storage allocated by _Allocate when !_HAS_ALIGNED_NEW || _Align <= __STDCPP_DEFAULT_NEW_ALIGNMENT__
; 215  : #if defined(_M_IX86) || defined(_M_X64)
; 216  :     if (_Bytes >= _Big_allocation_threshold) { // boost the alignment of big allocations to help autovectorization

  00003	8b 4d 0c	 mov	 ecx, DWORD PTR __Bytes$[ebp]
  00006	81 f9 00 10 00
	00		 cmp	 ecx, 4096		; 00001000H
  0000c	72 18		 jb	 SHORT $LN15@Deallocate

; 137  :     const uintptr_t _Ptr_container   = _Ptr_user[-1];

  0000e	8b 45 08	 mov	 eax, DWORD PTR __Ptr$[ebp]
  00011	83 c1 23	 add	 ecx, 35			; 00000023H
  00014	8b 50 fc	 mov	 edx, DWORD PTR [eax-4]

; 138  : 
; 139  :     // If the following asserts, it likely means that we are performing
; 140  :     // an aligned delete on memory coming from an unaligned allocation.
; 141  :     _STL_ASSERT(_Ptr_user[-2] == _Big_allocation_sentinel, "invalid argument");
; 142  : 
; 143  :     // Extra paranoia on aligned allocation/deallocation; ensure _Ptr_container is
; 144  :     // in range [_Min_back_shift, _Non_user_size]
; 145  : #ifdef _DEBUG
; 146  :     constexpr uintptr_t _Min_back_shift = 2 * sizeof(void*);
; 147  : #else // ^^^ _DEBUG ^^^ // vvv !_DEBUG vvv
; 148  :     constexpr uintptr_t _Min_back_shift = sizeof(void*);
; 149  : #endif // _DEBUG
; 150  :     const uintptr_t _Back_shift = reinterpret_cast<uintptr_t>(_Ptr) - _Ptr_container;

  00017	2b c2		 sub	 eax, edx

; 151  :     _STL_VERIFY(_Back_shift >= _Min_back_shift && _Back_shift <= _Non_user_size, "invalid argument");

  00019	83 c0 fc	 add	 eax, -4			; fffffffcH
  0001c	83 f8 1f	 cmp	 eax, 31			; 0000001fH
  0001f	76 08		 jbe	 SHORT $LN13@Deallocate
  00021	e9 00 00 00 00	 jmp	 __invalid_parameter_noinfo_noreturn
$LN15@Deallocate:

; 214  :     // deallocate storage allocated by _Allocate when !_HAS_ALIGNED_NEW || _Align <= __STDCPP_DEFAULT_NEW_ALIGNMENT__
; 215  : #if defined(_M_IX86) || defined(_M_X64)
; 216  :     if (_Bytes >= _Big_allocation_threshold) { // boost the alignment of big allocations to help autovectorization

  00026	8b 55 08	 mov	 edx, DWORD PTR __Ptr$[ebp]
$LN13@Deallocate:

; 217  :         _Adjust_manually_vector_aligned(_Ptr, _Bytes);
; 218  :     }
; 219  : #endif // defined(_M_IX86) || defined(_M_X64)
; 220  : 
; 221  :     ::operator delete(_Ptr, _Bytes);

  00029	89 4d 0c	 mov	 DWORD PTR __Bytes$[ebp], ecx
  0002c	89 55 08	 mov	 DWORD PTR __Ptr$[ebp], edx

; 222  : }

  0002f	5d		 pop	 ebp

; 217  :         _Adjust_manually_vector_aligned(_Ptr, _Bytes);
; 218  :     }
; 219  : #endif // defined(_M_IX86) || defined(_M_X64)
; 220  : 
; 221  :     ::operator delete(_Ptr, _Bytes);

  00030	e9 00 00 00 00	 jmp	 ??3@YAXPAXI@Z		; operator delete
??$_Deallocate@$07$0A@@std@@YAXPAXI@Z ENDP		; std::_Deallocate<8,0>
_TEXT	ENDS
; Function compile flags: /Ogtp
; File C:\Program Files (x86)\Microsoft Visual Studio\2019\Community\VC\Tools\MSVC\14.27.29110\include\xmemory
;	COMDAT ??$_Construct_in_place@PADABQAD@std@@YAXAAPADABQAD@Z
_TEXT	SEGMENT
__Obj$ = 8						; size = 4
_<_Args_0>$ = 12					; size = 4
??$_Construct_in_place@PADABQAD@std@@YAXAAPADABQAD@Z PROC ; std::_Construct_in_place<char *,char * const &>, COMDAT

; 228  : void _Construct_in_place(_Ty& _Obj, _Types&&... _Args) noexcept(is_nothrow_constructible_v<_Ty, _Types...>) {

  00000	55		 push	 ebp
  00001	8b ec		 mov	 ebp, esp

; 229  :     ::new (const_cast<void*>(static_cast<const volatile void*>(_STD addressof(_Obj))))

  00003	8b 45 0c	 mov	 eax, DWORD PTR _<_Args_0>$[ebp]
  00006	8b 08		 mov	 ecx, DWORD PTR [eax]
  00008	8b 45 08	 mov	 eax, DWORD PTR __Obj$[ebp]
  0000b	89 08		 mov	 DWORD PTR [eax], ecx

; 230  :         _Ty(_STD forward<_Types>(_Args)...);
; 231  : }

  0000d	5d		 pop	 ebp
  0000e	c3		 ret	 0
??$_Construct_in_place@PADABQAD@std@@YAXAAPADABQAD@Z ENDP ; std::_Construct_in_place<char *,char * const &>
_TEXT	ENDS
; Function compile flags: /Ogtp
; File C:\Program Files (x86)\Microsoft Visual Studio\2019\Community\VC\Tools\MSVC\14.27.29110\include\xmemory
;	COMDAT ??$_Pocca@V?$allocator@D@std@@@std@@YAXAAV?$allocator@D@0@ABV10@@Z
_TEXT	SEGMENT
__Left$ = 8						; size = 4
__Right$ = 12						; size = 4
??$_Pocca@V?$allocator@D@std@@@std@@YAXAAV?$allocator@D@0@ABV10@@Z PROC ; std::_Pocca<std::allocator<char> >, COMDAT

; 879  :     if constexpr (allocator_traits<_Alloc>::propagate_on_container_copy_assignment::value) {
; 880  :         _Left = _Right;
; 881  :     }
; 882  : }

  00000	c2 00 00	 ret	 0
??$_Pocca@V?$allocator@D@std@@@std@@YAXAAV?$allocator@D@0@ABV10@@Z ENDP ; std::_Pocca<std::allocator<char> >
_TEXT	ENDS
; Function compile flags: /Ogtp
; File C:\Program Files (x86)\Microsoft Visual Studio\2019\Community\VC\Tools\MSVC\14.27.29110\include\xmemory
;	COMDAT ??$_Destroy_in_place@PAD@std@@YAXAAPAD@Z
_TEXT	SEGMENT
__Obj$ = 8						; size = 4
??$_Destroy_in_place@PAD@std@@YAXAAPAD@Z PROC		; std::_Destroy_in_place<char *>, COMDAT

; 268  :     _Obj.~_Ty();
; 269  : }

  00000	c2 00 00	 ret	 0
??$_Destroy_in_place@PAD@std@@YAXAAPAD@Z ENDP		; std::_Destroy_in_place<char *>
_TEXT	ENDS
; Function compile flags: /Ogtp
; File C:\Program Files (x86)\Microsoft Visual Studio\2019\Community\VC\Tools\MSVC\14.27.29110\include\xstring
; File C:\Program Files (x86)\Microsoft Visual Studio\2019\Community\VC\Tools\MSVC\14.27.29110\include\xmemory
; File C:\Program Files (x86)\Microsoft Visual Studio\2019\Community\VC\Tools\MSVC\14.27.29110\include\xstring
; File C:\Program Files (x86)\Microsoft Visual Studio\2019\Community\VC\Tools\MSVC\14.27.29110\include\vector
; File C:\Program Files (x86)\Microsoft Visual Studio\2019\Community\VC\Tools\MSVC\14.27.29110\include\xmemory
; File C:\Program Files (x86)\Microsoft Visual Studio\2019\Community\VC\Tools\MSVC\14.27.29110\include\vector
; File C:\Program Files (x86)\Microsoft Visual Studio\2019\Community\VC\Tools\MSVC\14.27.29110\include\xmemory
; File C:\Program Files (x86)\Microsoft Visual Studio\2019\Community\VC\Tools\MSVC\14.27.29110\include\vector
; File C:\Program Files (x86)\Microsoft Visual Studio\2019\Community\VC\Tools\MSVC\14.27.29110\include\xstring
; File C:\Program Files (x86)\Microsoft Visual Studio\2019\Community\VC\Tools\MSVC\14.27.29110\include\xmemory
; File C:\Program Files (x86)\Microsoft Visual Studio\2019\Community\VC\Tools\MSVC\14.27.29110\include\xstring
;	COMDAT ??_GSEnvironmentData@@QAEPAXI@Z
_TEXT	SEGMENT
__$EHRec$ = -12						; size = 12
___flags$ = 8						; size = 4
??_GSEnvironmentData@@QAEPAXI@Z PROC			; SEnvironmentData::`scalar deleting destructor', COMDAT
; _this$ = ecx
  00000	55		 push	 ebp
  00001	8b ec		 mov	 ebp, esp
  00003	6a ff		 push	 -1
  00005	68 00 00 00 00	 push	 __ehhandler$??_GSEnvironmentData@@QAEPAXI@Z
  0000a	64 a1 00 00 00
	00		 mov	 eax, DWORD PTR fs:0
  00010	50		 push	 eax
  00011	56		 push	 esi
  00012	a1 00 00 00 00	 mov	 eax, DWORD PTR ___security_cookie
  00017	33 c5		 xor	 eax, ebp
  00019	50		 push	 eax
  0001a	8d 45 f4	 lea	 eax, DWORD PTR __$EHRec$[ebp]
  0001d	64 a3 00 00 00
	00		 mov	 DWORD PTR fs:0, eax
  00023	8b f1		 mov	 esi, ecx

; 2153 :         return _BUF_SIZE <= _Myres;

  00025	8b 86 90 02 00
	00		 mov	 eax, DWORD PTR [esi+656]
  0002b	c7 45 fc 00 00
	00 00		 mov	 DWORD PTR __$EHRec$[ebp+8], 0
  00032	83 f8 10	 cmp	 eax, 16			; 00000010H

; 4301 :         if (_Mypair._Myval2._Large_string_engaged()) {

  00035	72 10		 jb	 SHORT $LN11@scalar

; 4302 :             const pointer _Ptr = _Mypair._Myval2._Bx._Ptr;
; 4303 :             auto& _Al          = _Getal();
; 4304 :             _Destroy_in_place(_Mypair._Myval2._Bx._Ptr);
; 4305 :             _Al.deallocate(_Ptr, _Mypair._Myval2._Myres + 1);

  00037	40		 inc	 eax
; File C:\Program Files (x86)\Microsoft Visual Studio\2019\Community\VC\Tools\MSVC\14.27.29110\include\xmemory

; 803  :         _Deallocate<_New_alignof<_Ty>>(_Ptr, sizeof(_Ty) * _Count);

  00038	50		 push	 eax
  00039	ff b6 7c 02 00
	00		 push	 DWORD PTR [esi+636]
  0003f	e8 00 00 00 00	 call	 ??$_Deallocate@$07$0A@@std@@YAXPAXI@Z ; std::_Deallocate<8,0>
  00044	83 c4 08	 add	 esp, 8
$LN11@scalar:
; File C:\Program Files (x86)\Microsoft Visual Studio\2019\Community\VC\Tools\MSVC\14.27.29110\include\xstring

; 4308 :         _Mypair._Myval2._Mysize = 0;

  00047	c7 86 8c 02 00
	00 00 00 00 00	 mov	 DWORD PTR [esi+652], 0

; 4309 :         _Mypair._Myval2._Myres  = _BUF_SIZE - 1;

  00051	c7 86 90 02 00
	00 0f 00 00 00	 mov	 DWORD PTR [esi+656], 15	; 0000000fH

; 4310 :         // the _Traits::assign is last so the codegen doesn't think the char write can alias this
; 4311 :         _Traits::assign(_Mypair._Myval2._Bx._Buf[0], _Elem());

  0005b	c6 86 7c 02 00
	00 00		 mov	 BYTE PTR [esi+636], 0
; File C:\Program Files (x86)\Microsoft Visual Studio\2019\Community\VC\Tools\MSVC\14.27.29110\include\vector

; 1693 :         if (_Myfirst) { // destroy and deallocate old array

  00062	8b 8e 54 02 00
	00		 mov	 ecx, DWORD PTR [esi+596]
  00068	85 c9		 test	 ecx, ecx
  0006a	74 33		 je	 SHORT $LN20@scalar

; 1694 :             _Destroy(_Myfirst, _Mylast);
; 1695 :             _Getal().deallocate(_Myfirst, static_cast<size_type>(_Myend - _Myfirst));

  0006c	8b 86 5c 02 00
	00		 mov	 eax, DWORD PTR [esi+604]
  00072	2b c1		 sub	 eax, ecx
; File C:\Program Files (x86)\Microsoft Visual Studio\2019\Community\VC\Tools\MSVC\14.27.29110\include\xmemory

; 803  :         _Deallocate<_New_alignof<_Ty>>(_Ptr, sizeof(_Ty) * _Count);

  00074	83 e0 e0	 and	 eax, -32		; ffffffe0H
  00077	50		 push	 eax
  00078	51		 push	 ecx
  00079	e8 00 00 00 00	 call	 ??$_Deallocate@$07$0A@@std@@YAXPAXI@Z ; std::_Deallocate<8,0>
; File C:\Program Files (x86)\Microsoft Visual Studio\2019\Community\VC\Tools\MSVC\14.27.29110\include\vector

; 1697 :             _Myfirst = pointer();

  0007e	c7 86 54 02 00
	00 00 00 00 00	 mov	 DWORD PTR [esi+596], 0
; File C:\Program Files (x86)\Microsoft Visual Studio\2019\Community\VC\Tools\MSVC\14.27.29110\include\xmemory

; 803  :         _Deallocate<_New_alignof<_Ty>>(_Ptr, sizeof(_Ty) * _Count);

  00088	83 c4 08	 add	 esp, 8
; File C:\Program Files (x86)\Microsoft Visual Studio\2019\Community\VC\Tools\MSVC\14.27.29110\include\vector

; 1698 :             _Mylast  = pointer();

  0008b	c7 86 58 02 00
	00 00 00 00 00	 mov	 DWORD PTR [esi+600], 0

; 1699 :             _Myend   = pointer();

  00095	c7 86 5c 02 00
	00 00 00 00 00	 mov	 DWORD PTR [esi+604], 0
$LN20@scalar:
; File C:\Program Files (x86)\Microsoft Visual Studio\2019\Community\VC\Tools\MSVC\14.27.29110\include\xstring

; 2153 :         return _BUF_SIZE <= _Myres;

  0009f	8b 86 30 02 00
	00		 mov	 eax, DWORD PTR [esi+560]
  000a5	83 f8 10	 cmp	 eax, 16			; 00000010H

; 4301 :         if (_Mypair._Myval2._Large_string_engaged()) {

  000a8	72 10		 jb	 SHORT $LN28@scalar

; 4302 :             const pointer _Ptr = _Mypair._Myval2._Bx._Ptr;
; 4303 :             auto& _Al          = _Getal();
; 4304 :             _Destroy_in_place(_Mypair._Myval2._Bx._Ptr);
; 4305 :             _Al.deallocate(_Ptr, _Mypair._Myval2._Myres + 1);

  000aa	40		 inc	 eax
; File C:\Program Files (x86)\Microsoft Visual Studio\2019\Community\VC\Tools\MSVC\14.27.29110\include\xmemory

; 803  :         _Deallocate<_New_alignof<_Ty>>(_Ptr, sizeof(_Ty) * _Count);

  000ab	50		 push	 eax
  000ac	ff b6 1c 02 00
	00		 push	 DWORD PTR [esi+540]
  000b2	e8 00 00 00 00	 call	 ??$_Deallocate@$07$0A@@std@@YAXPAXI@Z ; std::_Deallocate<8,0>
  000b7	83 c4 08	 add	 esp, 8
$LN28@scalar:
  000ba	68 00 00 00 00	 push	 OFFSET ??1?$basic_string@DU?$char_traits@D@std@@V?$allocator@D@2@@std@@QAE@XZ ; std::basic_string<char,std::char_traits<char>,std::allocator<char> >::~basic_string<char,std::char_traits<char>,std::allocator<char> >
  000bf	6a 06		 push	 6
  000c1	6a 18		 push	 24			; 00000018H
  000c3	8d 86 70 01 00
	00		 lea	 eax, DWORD PTR [esi+368]
; File C:\Program Files (x86)\Microsoft Visual Studio\2019\Community\VC\Tools\MSVC\14.27.29110\include\xstring

; 4308 :         _Mypair._Myval2._Mysize = 0;

  000c9	c7 86 2c 02 00
	00 00 00 00 00	 mov	 DWORD PTR [esi+556], 0
  000d3	50		 push	 eax

; 4309 :         _Mypair._Myval2._Myres  = _BUF_SIZE - 1;

  000d4	c7 86 30 02 00
	00 0f 00 00 00	 mov	 DWORD PTR [esi+560], 15	; 0000000fH

; 4310 :         // the _Traits::assign is last so the codegen doesn't think the char write can alias this
; 4311 :         _Traits::assign(_Mypair._Myval2._Bx._Buf[0], _Elem());

  000de	c6 86 1c 02 00
	00 00		 mov	 BYTE PTR [esi+540], 0
  000e5	e8 00 00 00 00	 call	 ??_M@YGXPAXIIP6EX0@Z@Z
  000ea	f6 45 08 01	 test	 BYTE PTR ___flags$[ebp], 1
  000ee	74 0e		 je	 SHORT $LN34@scalar
  000f0	68 9c 02 00 00	 push	 668			; 0000029cH
  000f5	56		 push	 esi
  000f6	e8 00 00 00 00	 call	 ??3@YAXPAXI@Z		; operator delete
  000fb	83 c4 08	 add	 esp, 8
$LN34@scalar:
  000fe	8b c6		 mov	 eax, esi
  00100	8b 4d f4	 mov	 ecx, DWORD PTR __$EHRec$[ebp]
  00103	64 89 0d 00 00
	00 00		 mov	 DWORD PTR fs:0, ecx
  0010a	59		 pop	 ecx
  0010b	5e		 pop	 esi
  0010c	8b e5		 mov	 esp, ebp
  0010e	5d		 pop	 ebp
  0010f	c2 04 00	 ret	 4
  00112	cc		 int	 3
  00113	cc		 int	 3
  00114	cc		 int	 3
  00115	cc		 int	 3
  00116	cc		 int	 3
_TEXT	ENDS
;	COMDAT text$x
text$x	SEGMENT
__ehhandler$??_GSEnvironmentData@@QAEPAXI@Z:
  00000	90		 npad	 1
  00001	90		 npad	 1
  00002	8b 54 24 08	 mov	 edx, DWORD PTR [esp+8]
  00006	8d 42 0c	 lea	 eax, DWORD PTR [edx+12]
  00009	8b 4a f8	 mov	 ecx, DWORD PTR [edx-8]
  0000c	33 c8		 xor	 ecx, eax
  0000e	e8 00 00 00 00	 call	 @__security_check_cookie@4
  00013	b8 00 00 00 00	 mov	 eax, OFFSET __ehfuncinfo$??_GSEnvironmentData@@QAEPAXI@Z
  00018	e9 00 00 00 00	 jmp	 ___CxxFrameHandler3
text$x	ENDS
??_GSEnvironmentData@@QAEPAXI@Z ENDP			; SEnvironmentData::`scalar deleting destructor'
; Function compile flags: /Ogtp
; File C:\Program Files (x86)\Microsoft Visual Studio\2019\Community\VC\Tools\MSVC\14.27.29110\include\xstring
;	COMDAT ??$?8DU?$char_traits@D@std@@V?$allocator@D@1@@std@@YA_NABV?$basic_string@DU?$char_traits@D@std@@V?$allocator@D@2@@0@0@Z
_TEXT	SEGMENT
__Left$ = 8						; size = 4
__Right$ = 12						; size = 4
??$?8DU?$char_traits@D@std@@V?$allocator@D@1@@std@@YA_NABV?$basic_string@DU?$char_traits@D@std@@V?$allocator@D@2@@0@0@Z PROC ; std::operator==<char,std::char_traits<char>,std::allocator<char> >, COMDAT

; 4470 :     const basic_string<_Elem, _Traits, _Alloc>& _Left, const basic_string<_Elem, _Traits, _Alloc>& _Right) noexcept {

  00000	55		 push	 ebp
  00001	8b ec		 mov	 ebp, esp

; 2144 :         const value_type* _Result = _Bx._Buf;

  00003	8b 45 0c	 mov	 eax, DWORD PTR __Right$[ebp]
  00006	8b d0		 mov	 edx, eax

; 2153 :         return _BUF_SIZE <= _Myres;

  00008	83 78 14 10	 cmp	 DWORD PTR [eax+20], 16	; 00000010H

; 2145 :         if (_Large_string_engaged()) {

  0000c	72 02		 jb	 SHORT $LN6@operator

; 2146 :             _Result = _Unfancy(_Bx._Ptr);

  0000e	8b 10		 mov	 edx, DWORD PTR [eax]
$LN6@operator:

; 2144 :         const value_type* _Result = _Bx._Buf;

  00010	8b 4d 08	 mov	 ecx, DWORD PTR __Left$[ebp]
  00013	56		 push	 esi
  00014	8b f1		 mov	 esi, ecx

; 2153 :         return _BUF_SIZE <= _Myres;

  00016	83 79 14 10	 cmp	 DWORD PTR [ecx+20], 16	; 00000010H

; 2145 :         if (_Large_string_engaged()) {

  0001a	72 02		 jb	 SHORT $LN11@operator

; 2146 :             _Result = _Unfancy(_Bx._Ptr);

  0001c	8b 31		 mov	 esi, DWORD PTR [ecx]
$LN11@operator:

; 4091 :         return _Traits_equal<_Traits>(_Mypair._Myval2._Myptr(), _Mypair._Myval2._Mysize,

  0001e	ff 70 10	 push	 DWORD PTR [eax+16]
  00021	52		 push	 edx
  00022	ff 71 10	 push	 DWORD PTR [ecx+16]
  00025	56		 push	 esi
  00026	e8 00 00 00 00	 call	 ??$_Traits_equal@U?$char_traits@D@std@@@std@@YA_NQBDI0I@Z ; std::_Traits_equal<std::char_traits<char> >
  0002b	83 c4 10	 add	 esp, 16			; 00000010H

; 4471 :     return _Left._Equal(_Right);

  0002e	5e		 pop	 esi

; 4472 : }

  0002f	5d		 pop	 ebp
  00030	c3		 ret	 0
??$?8DU?$char_traits@D@std@@V?$allocator@D@1@@std@@YA_NABV?$basic_string@DU?$char_traits@D@std@@V?$allocator@D@2@@0@0@Z ENDP ; std::operator==<char,std::char_traits<char>,std::allocator<char> >
_TEXT	ENDS
; Function compile flags: /Ogtp
; File C:\Program Files (x86)\Microsoft Visual Studio\2019\Community\VC\Tools\MSVC\14.27.29110\include\xtree
;	COMDAT ?_Throw_tree_length_error@std@@YAXXZ
_TEXT	SEGMENT
?_Throw_tree_length_error@std@@YAXXZ PROC		; std::_Throw_tree_length_error, COMDAT

; 415  :     _Xlength_error("map/set too long");

  00000	68 00 00 00 00	 push	 OFFSET ??_C@_0BB@GCADKGJO@map?1set?5too?5long@
  00005	e8 00 00 00 00	 call	 ?_Xlength_error@std@@YAXPBD@Z ; std::_Xlength_error
$LN3@Throw_tree:
  0000a	cc		 int	 3
?_Throw_tree_length_error@std@@YAXXZ ENDP		; std::_Throw_tree_length_error
_TEXT	ENDS
; Function compile flags: /Ogtp
; File C:\Program Files (x86)\Microsoft Visual Studio\2019\Community\VC\Tools\MSVC\14.27.29110\include\xstring
; File C:\Program Files (x86)\Microsoft Visual Studio\2019\Community\VC\Tools\MSVC\14.27.29110\include\utility
; File C:\Program Files (x86)\Microsoft Visual Studio\2019\Community\VC\Tools\MSVC\14.27.29110\include\xstring
; File C:\Program Files (x86)\Microsoft Visual Studio\2019\Community\VC\Tools\MSVC\14.27.29110\include\xmemory
; File C:\Program Files (x86)\Microsoft Visual Studio\2019\Community\VC\Tools\MSVC\14.27.29110\include\xstring
; File C:\Program Files (x86)\Microsoft Visual Studio\2019\Community\VC\Tools\MSVC\14.27.29110\include\xmemory
; File C:\Program Files (x86)\Microsoft Visual Studio\2019\Community\VC\Tools\MSVC\14.27.29110\include\xstring
;	COMDAT ?assign@?$basic_string@DU?$char_traits@D@std@@V?$allocator@D@2@@std@@QAEAAV12@QBDI@Z
_TEXT	SEGMENT
__Old$1$ = -4						; size = 4
__Ptr$ = 8						; size = 4
__New_ptr$1 = 12					; size = 4
__Count$ = 12						; size = 4
?assign@?$basic_string@DU?$char_traits@D@std@@V?$allocator@D@2@@std@@QAEAAV12@QBDI@Z PROC ; std::basic_string<char,std::char_traits<char>,std::allocator<char> >::assign, COMDAT
; _this$ = ecx

; 2964 :     basic_string& assign(_In_reads_(_Count) const _Elem* const _Ptr, _CRT_GUARDOVERFLOW const size_type _Count) {

  00000	55		 push	 ebp
  00001	8b ec		 mov	 ebp, esp
  00003	51		 push	 ecx
  00004	53		 push	 ebx
  00005	56		 push	 esi
  00006	8b f1		 mov	 esi, ecx
  00008	57		 push	 edi

; 2965 :         // assign [_Ptr, _Ptr + _Count)
; 2966 :         if (_Count <= _Mypair._Myval2._Myres) {

  00009	8b 7d 0c	 mov	 edi, DWORD PTR __Count$[ebp]
  0000c	8b 4e 14	 mov	 ecx, DWORD PTR [esi+20]
  0000f	89 4d fc	 mov	 DWORD PTR __Old$1$[ebp], ecx
  00012	3b f9		 cmp	 edi, ecx
  00014	77 28		 ja	 SHORT $LN2@assign

; 2135 :         value_type* _Result = _Bx._Buf;

  00016	8b de		 mov	 ebx, esi

; 2153 :         return _BUF_SIZE <= _Myres;

  00018	83 f9 10	 cmp	 ecx, 16			; 00000010H

; 2136 :         if (_Large_string_engaged()) {

  0001b	72 02		 jb	 SHORT $LN5@assign

; 2137 :             _Result = _Unfancy(_Bx._Ptr);

  0001d	8b 1e		 mov	 ebx, DWORD PTR [esi]
$LN5@assign:

; 363  :         return static_cast<_Elem*>(_CSTD memmove(_First1, _First2, _Count));

  0001f	57		 push	 edi
  00020	ff 75 08	 push	 DWORD PTR __Ptr$[ebp]

; 2967 :             _Elem* const _Old_ptr   = _Mypair._Myval2._Myptr();
; 2968 :             _Mypair._Myval2._Mysize = _Count;

  00023	89 7e 10	 mov	 DWORD PTR [esi+16], edi

; 363  :         return static_cast<_Elem*>(_CSTD memmove(_First1, _First2, _Count));

  00026	53		 push	 ebx
  00027	e8 00 00 00 00	 call	 _memmove
  0002c	83 c4 0c	 add	 esp, 12			; 0000000cH

; 2969 :             _Traits::move(_Old_ptr, _Ptr, _Count);
; 2970 :             _Traits::assign(_Old_ptr[_Count], _Elem());

  0002f	c6 04 3b 00	 mov	 BYTE PTR [ebx+edi], 0

; 2981 :     }

  00033	8b c6		 mov	 eax, esi
  00035	5f		 pop	 edi
  00036	5e		 pop	 esi
  00037	5b		 pop	 ebx
  00038	8b e5		 mov	 esp, ebp
  0003a	5d		 pop	 ebp
  0003b	c2 08 00	 ret	 8
$LN2@assign:

; 4221 :         if (_New_size > max_size()) {

  0003e	81 ff ff ff ff
	7f		 cmp	 edi, 2147483647		; 7fffffffH
  00044	0f 87 91 00 00
	00		 ja	 $LN36@assign

; 4201 :         const size_type _Masked = _Requested | _ALLOC_MASK;

  0004a	8b df		 mov	 ebx, edi
  0004c	83 cb 0f	 or	 ebx, 15			; 0000000fH
  0004f	81 fb ff ff ff
	7f		 cmp	 ebx, 2147483647		; 7fffffffH

; 4202 :         if (_Masked > _Max) { // the mask overflows, settle for max_size()

  00055	76 07		 jbe	 SHORT $LN19@assign

; 4203 :             return _Max;

  00057	bb ff ff ff 7f	 mov	 ebx, 2147483647		; 7fffffffH
  0005c	eb 1e		 jmp	 SHORT $LN18@assign
$LN19@assign:

; 4204 :         }
; 4205 : 
; 4206 :         if (_Old > _Max - _Old / 2) { // similarly, geometric overflows

  0005e	8b d1		 mov	 edx, ecx
  00060	b8 ff ff ff 7f	 mov	 eax, 2147483647		; 7fffffffH
  00065	d1 ea		 shr	 edx, 1
  00067	2b c2		 sub	 eax, edx
  00069	3b c8		 cmp	 ecx, eax
  0006b	76 07		 jbe	 SHORT $LN20@assign

; 4207 :             return _Max;

  0006d	bb ff ff ff 7f	 mov	 ebx, 2147483647		; 7fffffffH
  00072	eb 08		 jmp	 SHORT $LN18@assign
$LN20@assign:

; 4208 :         }
; 4209 : 
; 4210 :         return (_STD max)(_Masked, _Old + _Old / 2);

  00074	8d 04 0a	 lea	 eax, DWORD PTR [edx+ecx]
; File C:\Program Files (x86)\Microsoft Visual Studio\2019\Community\VC\Tools\MSVC\14.27.29110\include\utility

; 44   :     return _Left < _Right ? _Right : _Left;

  00077	3b d8		 cmp	 ebx, eax
  00079	0f 42 d8	 cmovb	 ebx, eax
$LN18@assign:
; File C:\Program Files (x86)\Microsoft Visual Studio\2019\Community\VC\Tools\MSVC\14.27.29110\include\xstring

; 4228 :         const pointer _New_ptr        = _Al.allocate(_New_capacity + 1); // throws

  0007c	8d 43 01	 lea	 eax, DWORD PTR [ebx+1]
; File C:\Program Files (x86)\Microsoft Visual Studio\2019\Community\VC\Tools\MSVC\14.27.29110\include\xmemory

; 807  :         return static_cast<_Ty*>(_Allocate<_New_alignof<_Ty>>(_Get_size_of_n<sizeof(_Ty)>(_Count)));

  0007f	50		 push	 eax
  00080	e8 00 00 00 00	 call	 ??$_Allocate@$07U_Default_allocate_traits@std@@$0A@@std@@YAPAXI@Z ; std::_Allocate<8,std::_Default_allocate_traits,0>
; File C:\Program Files (x86)\Microsoft Visual Studio\2019\Community\VC\Tools\MSVC\14.27.29110\include\xstring

; 328  :         return static_cast<_Elem*>(_CSTD memcpy(_First1, _First2, _Count));

  00085	57		 push	 edi
  00086	ff 75 08	 push	 DWORD PTR __Ptr$[ebp]

; 4228 :         const pointer _New_ptr        = _Al.allocate(_New_capacity + 1); // throws

  00089	89 45 0c	 mov	 DWORD PTR __New_ptr$1[ebp], eax

; 328  :         return static_cast<_Elem*>(_CSTD memcpy(_First1, _First2, _Count));

  0008c	50		 push	 eax

; 4230 :         _Mypair._Myval2._Mysize = _New_size;

  0008d	89 7e 10	 mov	 DWORD PTR [esi+16], edi

; 4231 :         _Mypair._Myval2._Myres  = _New_capacity;

  00090	89 5e 14	 mov	 DWORD PTR [esi+20], ebx

; 328  :         return static_cast<_Elem*>(_CSTD memcpy(_First1, _First2, _Count));

  00093	e8 00 00 00 00	 call	 _memcpy

; 2978 :                 _Traits::assign(_New_ptr[_Count], _Elem());

  00098	8b 5d 0c	 mov	 ebx, DWORD PTR __New_ptr$1[ebp]

; 328  :         return static_cast<_Elem*>(_CSTD memcpy(_First1, _First2, _Count));

  0009b	83 c4 10	 add	 esp, 16			; 00000010H

; 4233 :         if (_BUF_SIZE <= _Old_capacity) {

  0009e	8b 45 fc	 mov	 eax, DWORD PTR __Old$1$[ebp]

; 2978 :                 _Traits::assign(_New_ptr[_Count], _Elem());

  000a1	c6 04 3b 00	 mov	 BYTE PTR [ebx+edi], 0

; 4233 :         if (_BUF_SIZE <= _Old_capacity) {

  000a5	83 f8 10	 cmp	 eax, 16			; 00000010H
  000a8	72 19		 jb	 SHORT $LN13@assign

; 4234 :             _Al.deallocate(_Mypair._Myval2._Bx._Ptr, _Old_capacity + 1);

  000aa	40		 inc	 eax
; File C:\Program Files (x86)\Microsoft Visual Studio\2019\Community\VC\Tools\MSVC\14.27.29110\include\xmemory

; 803  :         _Deallocate<_New_alignof<_Ty>>(_Ptr, sizeof(_Ty) * _Count);

  000ab	50		 push	 eax
  000ac	ff 36		 push	 DWORD PTR [esi]
  000ae	e8 00 00 00 00	 call	 ??$_Deallocate@$07$0A@@std@@YAXPAXI@Z ; std::_Deallocate<8,0>
; File C:\Program Files (x86)\Microsoft Visual Studio\2019\Community\VC\Tools\MSVC\14.27.29110\include\xstring

; 2981 :     }

  000b3	83 c4 08	 add	 esp, 8

; 4235 :             _Mypair._Myval2._Bx._Ptr = _New_ptr;

  000b6	89 1e		 mov	 DWORD PTR [esi], ebx

; 2981 :     }

  000b8	8b c6		 mov	 eax, esi
  000ba	5f		 pop	 edi
  000bb	5e		 pop	 esi
  000bc	5b		 pop	 ebx
  000bd	8b e5		 mov	 esp, ebp
  000bf	5d		 pop	 ebp
  000c0	c2 08 00	 ret	 8
$LN13@assign:

; 4237 :             _Construct_in_place(_Mypair._Myval2._Bx._Ptr, _New_ptr);

  000c3	8d 45 0c	 lea	 eax, DWORD PTR __New_ptr$1[ebp]
  000c6	50		 push	 eax
  000c7	56		 push	 esi
  000c8	e8 00 00 00 00	 call	 ??$_Construct_in_place@PADABQAD@std@@YAXAAPADABQAD@Z ; std::_Construct_in_place<char *,char * const &>

; 2981 :     }

  000cd	83 c4 08	 add	 esp, 8
  000d0	8b c6		 mov	 eax, esi
  000d2	5f		 pop	 edi
  000d3	5e		 pop	 esi
  000d4	5b		 pop	 ebx
  000d5	8b e5		 mov	 esp, ebp
  000d7	5d		 pop	 ebp
  000d8	c2 08 00	 ret	 8
$LN36@assign:

; 4222 :             _Xlen_string(); // result too long

  000db	e8 00 00 00 00	 call	 ?_Xlen_string@std@@YAXXZ ; std::_Xlen_string
$LN33@assign:
  000e0	cc		 int	 3
?assign@?$basic_string@DU?$char_traits@D@std@@V?$allocator@D@2@@std@@QAEAAV12@QBDI@Z ENDP ; std::basic_string<char,std::char_traits<char>,std::allocator<char> >::assign
_TEXT	ENDS
; Function compile flags: /Ogtp
; File C:\Program Files (x86)\Microsoft Visual Studio\2019\Community\VC\Tools\MSVC\14.27.29110\include\xstring
; File C:\Program Files (x86)\Microsoft Visual Studio\2019\Community\VC\Tools\MSVC\14.27.29110\include\xmemory
; File C:\Program Files (x86)\Microsoft Visual Studio\2019\Community\VC\Tools\MSVC\14.27.29110\include\xstring
;	COMDAT ??1?$basic_string@DU?$char_traits@D@std@@V?$allocator@D@2@@std@@QAE@XZ
_TEXT	SEGMENT
??1?$basic_string@DU?$char_traits@D@std@@V?$allocator@D@2@@std@@QAE@XZ PROC ; std::basic_string<char,std::char_traits<char>,std::allocator<char> >::~basic_string<char,std::char_traits<char>,std::allocator<char> >, COMDAT
; _this$ = ecx

; 2722 :     ~basic_string() noexcept {

  00000	56		 push	 esi
  00001	8b f1		 mov	 esi, ecx

; 2153 :         return _BUF_SIZE <= _Myres;

  00003	8b 46 14	 mov	 eax, DWORD PTR [esi+20]
  00006	83 f8 10	 cmp	 eax, 16			; 00000010H

; 4301 :         if (_Mypair._Myval2._Large_string_engaged()) {

  00009	72 0c		 jb	 SHORT $LN4@basic_stri

; 4302 :             const pointer _Ptr = _Mypair._Myval2._Bx._Ptr;
; 4303 :             auto& _Al          = _Getal();
; 4304 :             _Destroy_in_place(_Mypair._Myval2._Bx._Ptr);
; 4305 :             _Al.deallocate(_Ptr, _Mypair._Myval2._Myres + 1);

  0000b	40		 inc	 eax
; File C:\Program Files (x86)\Microsoft Visual Studio\2019\Community\VC\Tools\MSVC\14.27.29110\include\xmemory

; 803  :         _Deallocate<_New_alignof<_Ty>>(_Ptr, sizeof(_Ty) * _Count);

  0000c	50		 push	 eax
  0000d	ff 36		 push	 DWORD PTR [esi]
  0000f	e8 00 00 00 00	 call	 ??$_Deallocate@$07$0A@@std@@YAXPAXI@Z ; std::_Deallocate<8,0>
  00014	83 c4 08	 add	 esp, 8
$LN4@basic_stri:
; File C:\Program Files (x86)\Microsoft Visual Studio\2019\Community\VC\Tools\MSVC\14.27.29110\include\xstring

; 4308 :         _Mypair._Myval2._Mysize = 0;

  00017	c7 46 10 00 00
	00 00		 mov	 DWORD PTR [esi+16], 0

; 4309 :         _Mypair._Myval2._Myres  = _BUF_SIZE - 1;

  0001e	c7 46 14 0f 00
	00 00		 mov	 DWORD PTR [esi+20], 15	; 0000000fH

; 4310 :         // the _Traits::assign is last so the codegen doesn't think the char write can alias this
; 4311 :         _Traits::assign(_Mypair._Myval2._Bx._Buf[0], _Elem());

  00025	c6 06 00	 mov	 BYTE PTR [esi], 0
  00028	5e		 pop	 esi

; 2723 :         _Tidy_deallocate();
; 2724 : #if _ITERATOR_DEBUG_LEVEL != 0
; 2725 :         auto&& _Alproxy          = _GET_PROXY_ALLOCATOR(_Alty, _Getal());
; 2726 :         const auto _To_delete    = _Mypair._Myval2._Myproxy;
; 2727 :         _Mypair._Myval2._Myproxy = nullptr;
; 2728 :         _Delete_plain_internal(_Alproxy, _To_delete);
; 2729 : #endif // _ITERATOR_DEBUG_LEVEL != 0
; 2730 :     }

  00029	c3		 ret	 0
??1?$basic_string@DU?$char_traits@D@std@@V?$allocator@D@2@@std@@QAE@XZ ENDP ; std::basic_string<char,std::char_traits<char>,std::allocator<char> >::~basic_string<char,std::char_traits<char>,std::allocator<char> >
_TEXT	ENDS
; Function compile flags: /Ogtp
; File C:\Program Files (x86)\Microsoft Visual Studio\2019\Community\VC\Tools\MSVC\14.27.29110\include\xstring
;	COMDAT ??0?$basic_string@DU?$char_traits@D@std@@V?$allocator@D@2@@std@@QAE@XZ
_TEXT	SEGMENT
??0?$basic_string@DU?$char_traits@D@std@@V?$allocator@D@2@@std@@QAE@XZ PROC ; std::basic_string<char,std::char_traits<char>,std::allocator<char> >::basic_string<char,std::char_traits<char>,std::allocator<char> >, COMDAT
; _this$ = ecx

; 4293 :         _Mypair._Myval2._Mysize = 0;

  00000	c7 41 10 00 00
	00 00		 mov	 DWORD PTR [ecx+16], 0

; 2288 :         _Mypair._Myval2._Alloc_proxy(_GET_PROXY_ALLOCATOR(_Alty, _Getal()));
; 2289 :         _Tidy_init();
; 2290 :     }

  00007	8b c1		 mov	 eax, ecx

; 4294 :         _Mypair._Myval2._Myres  = _BUF_SIZE - 1;

  00009	c7 41 14 0f 00
	00 00		 mov	 DWORD PTR [ecx+20], 15	; 0000000fH

; 4295 :         // the _Traits::assign is last so the codegen doesn't think the char write can alias this
; 4296 :         _Traits::assign(_Mypair._Myval2._Bx._Buf[0], _Elem());

  00010	c6 01 00	 mov	 BYTE PTR [ecx], 0

; 2288 :         _Mypair._Myval2._Alloc_proxy(_GET_PROXY_ALLOCATOR(_Alty, _Getal()));
; 2289 :         _Tidy_init();
; 2290 :     }

  00013	c3		 ret	 0
??0?$basic_string@DU?$char_traits@D@std@@V?$allocator@D@2@@std@@QAE@XZ ENDP ; std::basic_string<char,std::char_traits<char>,std::allocator<char> >::basic_string<char,std::char_traits<char>,std::allocator<char> >
_TEXT	ENDS
; Function compile flags: /Ogtp
; File C:\Program Files (x86)\Microsoft Visual Studio\2019\Community\VC\Tools\MSVC\14.27.29110\include\xstring
;	COMDAT ?_Xlen_string@std@@YAXXZ
_TEXT	SEGMENT
?_Xlen_string@std@@YAXXZ PROC				; std::_Xlen_string, COMDAT

; 2201 :     _Xlength_error("string too long");

  00000	68 00 00 00 00	 push	 OFFSET ??_C@_0BA@JFNIOLAK@string?5too?5long@
  00005	e8 00 00 00 00	 call	 ?_Xlength_error@std@@YAXPBD@Z ; std::_Xlength_error
$LN3@Xlen_strin:
  0000a	cc		 int	 3
?_Xlen_string@std@@YAXXZ ENDP				; std::_Xlen_string
_TEXT	ENDS
; Function compile flags: /Ogtp
; File C:\Program Files (x86)\Microsoft Visual Studio\2019\Community\VC\Tools\MSVC\14.27.29110\include\exception
;	COMDAT ?_Throw_bad_array_new_length@std@@YAXXZ
_TEXT	SEGMENT
$T1 = -12						; size = 12
?_Throw_bad_array_new_length@std@@YAXXZ PROC		; std::_Throw_bad_array_new_length, COMDAT

; 320  : [[noreturn]] inline void _Throw_bad_array_new_length() {

  00000	55		 push	 ebp
  00001	8b ec		 mov	 ebp, esp
  00003	83 ec 0c	 sub	 esp, 12			; 0000000cH

; 321  :     _THROW(bad_array_new_length{});

  00006	8d 4d f4	 lea	 ecx, DWORD PTR $T1[ebp]
  00009	e8 00 00 00 00	 call	 ??0bad_array_new_length@std@@QAE@XZ ; std::bad_array_new_length::bad_array_new_length
  0000e	68 00 00 00 00	 push	 OFFSET __TI3?AVbad_array_new_length@std@@
  00013	8d 45 f4	 lea	 eax, DWORD PTR $T1[ebp]
  00016	50		 push	 eax
  00017	e8 00 00 00 00	 call	 __CxxThrowException@8
$LN3@Throw_bad_:
  0001c	cc		 int	 3
?_Throw_bad_array_new_length@std@@YAXXZ ENDP		; std::_Throw_bad_array_new_length
_TEXT	ENDS
; Function compile flags: /Ogtp
; File C:\Program Files (x86)\Microsoft Visual Studio\2019\Community\VC\Tools\MSVC\14.27.29110\include\vcruntime_exception.h
;	COMDAT ??_Gbad_array_new_length@std@@UAEPAXI@Z
_TEXT	SEGMENT
___flags$ = 8						; size = 4
??_Gbad_array_new_length@std@@UAEPAXI@Z PROC		; std::bad_array_new_length::`scalar deleting destructor', COMDAT
; _this$ = ecx
  00000	55		 push	 ebp
  00001	8b ec		 mov	 ebp, esp

; 89   :     {

  00003	56		 push	 esi
  00004	8b f1		 mov	 esi, ecx

; 90   :         __std_exception_destroy(&_Data);

  00006	8d 46 04	 lea	 eax, DWORD PTR [esi+4]
  00009	c7 06 00 00 00
	00		 mov	 DWORD PTR [esi], OFFSET ??_7exception@std@@6B@
  0000f	50		 push	 eax
  00010	e8 00 00 00 00	 call	 ___std_exception_destroy
  00015	83 c4 04	 add	 esp, 4
  00018	f6 45 08 01	 test	 BYTE PTR ___flags$[ebp], 1
  0001c	74 0b		 je	 SHORT $LN12@scalar
  0001e	6a 0c		 push	 12			; 0000000cH
  00020	56		 push	 esi
  00021	e8 00 00 00 00	 call	 ??3@YAXPAXI@Z		; operator delete
  00026	83 c4 08	 add	 esp, 8
$LN12@scalar:
  00029	8b c6		 mov	 eax, esi
  0002b	5e		 pop	 esi
  0002c	5d		 pop	 ebp
  0002d	c2 04 00	 ret	 4
??_Gbad_array_new_length@std@@UAEPAXI@Z ENDP		; std::bad_array_new_length::`scalar deleting destructor'
_TEXT	ENDS
; Function compile flags: /Ogtp
; File C:\Program Files (x86)\Microsoft Visual Studio\2019\Community\VC\Tools\MSVC\14.27.29110\include\vcruntime_exception.h
;	COMDAT ??0bad_array_new_length@std@@QAE@ABV01@@Z
_TEXT	SEGMENT
___that$ = 8						; size = 4
??0bad_array_new_length@std@@QAE@ABV01@@Z PROC		; std::bad_array_new_length::bad_array_new_length, COMDAT
; _this$ = ecx
  00000	55		 push	 ebp
  00001	8b ec		 mov	 ebp, esp

; 72   :     {

  00003	56		 push	 esi
  00004	8b f1		 mov	 esi, ecx
  00006	0f 57 c0	 xorps	 xmm0, xmm0

; 71   :         : _Data()

  00009	8d 46 04	 lea	 eax, DWORD PTR [esi+4]

; 73   :         __std_exception_copy(&_Other._Data, &_Data);

  0000c	50		 push	 eax
  0000d	c7 06 00 00 00
	00		 mov	 DWORD PTR [esi], OFFSET ??_7exception@std@@6B@
  00013	66 0f d6 00	 movq	 QWORD PTR [eax], xmm0
  00017	8b 45 08	 mov	 eax, DWORD PTR ___that$[ebp]
  0001a	83 c0 04	 add	 eax, 4
  0001d	50		 push	 eax
  0001e	e8 00 00 00 00	 call	 ___std_exception_copy
  00023	83 c4 08	 add	 esp, 8
  00026	c7 06 00 00 00
	00		 mov	 DWORD PTR [esi], OFFSET ??_7bad_array_new_length@std@@6B@
  0002c	8b c6		 mov	 eax, esi
  0002e	5e		 pop	 esi
  0002f	5d		 pop	 ebp
  00030	c2 04 00	 ret	 4
??0bad_array_new_length@std@@QAE@ABV01@@Z ENDP		; std::bad_array_new_length::bad_array_new_length
_TEXT	ENDS
; Function compile flags: /Ogtp
; File C:\Program Files (x86)\Microsoft Visual Studio\2019\Community\VC\Tools\MSVC\14.27.29110\include\vcruntime_exception.h
;	COMDAT ??1bad_array_new_length@std@@UAE@XZ
_TEXT	SEGMENT
??1bad_array_new_length@std@@UAE@XZ PROC		; std::bad_array_new_length::~bad_array_new_length, COMDAT
; _this$ = ecx

; 90   :         __std_exception_destroy(&_Data);

  00000	8d 41 04	 lea	 eax, DWORD PTR [ecx+4]
  00003	c7 01 00 00 00
	00		 mov	 DWORD PTR [ecx], OFFSET ??_7exception@std@@6B@
  00009	50		 push	 eax
  0000a	e8 00 00 00 00	 call	 ___std_exception_destroy
  0000f	59		 pop	 ecx
  00010	c3		 ret	 0
??1bad_array_new_length@std@@UAE@XZ ENDP		; std::bad_array_new_length::~bad_array_new_length
_TEXT	ENDS
; Function compile flags: /Ogtp
; File C:\Program Files (x86)\Microsoft Visual Studio\2019\Community\VC\Tools\MSVC\14.27.29110\include\vcruntime_exception.h
;	COMDAT ??0bad_array_new_length@std@@QAE@XZ
_TEXT	SEGMENT
??0bad_array_new_length@std@@QAE@XZ PROC		; std::bad_array_new_length::bad_array_new_length, COMDAT
; _this$ = ecx

; 141  :     {

  00000	0f 57 c0	 xorps	 xmm0, xmm0

; 142  :     }

  00003	8b c1		 mov	 eax, ecx

; 65   :         : _Data()

  00005	66 0f d6 41 04	 movq	 QWORD PTR [ecx+4], xmm0

; 66   :     {
; 67   :         _Data._What = _Message;

  0000a	c7 41 04 00 00
	00 00		 mov	 DWORD PTR [ecx+4], OFFSET ??_C@_0BF@KINCDENJ@bad?5array?5new?5length@

; 141  :     {

  00011	c7 01 00 00 00
	00		 mov	 DWORD PTR [ecx], OFFSET ??_7bad_array_new_length@std@@6B@

; 142  :     }

  00017	c3		 ret	 0
??0bad_array_new_length@std@@QAE@XZ ENDP		; std::bad_array_new_length::bad_array_new_length
_TEXT	ENDS
; Function compile flags: /Ogtp
; File C:\Program Files (x86)\Microsoft Visual Studio\2019\Community\VC\Tools\MSVC\14.27.29110\include\vcruntime_exception.h
;	COMDAT ??_Gbad_alloc@std@@UAEPAXI@Z
_TEXT	SEGMENT
___flags$ = 8						; size = 4
??_Gbad_alloc@std@@UAEPAXI@Z PROC			; std::bad_alloc::`scalar deleting destructor', COMDAT
; _this$ = ecx
  00000	55		 push	 ebp
  00001	8b ec		 mov	 ebp, esp

; 89   :     {

  00003	56		 push	 esi
  00004	8b f1		 mov	 esi, ecx

; 90   :         __std_exception_destroy(&_Data);

  00006	8d 46 04	 lea	 eax, DWORD PTR [esi+4]
  00009	c7 06 00 00 00
	00		 mov	 DWORD PTR [esi], OFFSET ??_7exception@std@@6B@
  0000f	50		 push	 eax
  00010	e8 00 00 00 00	 call	 ___std_exception_destroy
  00015	83 c4 04	 add	 esp, 4
  00018	f6 45 08 01	 test	 BYTE PTR ___flags$[ebp], 1
  0001c	74 0b		 je	 SHORT $LN9@scalar
  0001e	6a 0c		 push	 12			; 0000000cH
  00020	56		 push	 esi
  00021	e8 00 00 00 00	 call	 ??3@YAXPAXI@Z		; operator delete
  00026	83 c4 08	 add	 esp, 8
$LN9@scalar:
  00029	8b c6		 mov	 eax, esi
  0002b	5e		 pop	 esi
  0002c	5d		 pop	 ebp
  0002d	c2 04 00	 ret	 4
??_Gbad_alloc@std@@UAEPAXI@Z ENDP			; std::bad_alloc::`scalar deleting destructor'
_TEXT	ENDS
; Function compile flags: /Ogtp
; File C:\Program Files (x86)\Microsoft Visual Studio\2019\Community\VC\Tools\MSVC\14.27.29110\include\vcruntime_exception.h
;	COMDAT ??0bad_alloc@std@@QAE@ABV01@@Z
_TEXT	SEGMENT
___that$ = 8						; size = 4
??0bad_alloc@std@@QAE@ABV01@@Z PROC			; std::bad_alloc::bad_alloc, COMDAT
; _this$ = ecx
  00000	55		 push	 ebp
  00001	8b ec		 mov	 ebp, esp

; 72   :     {

  00003	56		 push	 esi
  00004	8b f1		 mov	 esi, ecx
  00006	0f 57 c0	 xorps	 xmm0, xmm0

; 71   :         : _Data()

  00009	8d 46 04	 lea	 eax, DWORD PTR [esi+4]

; 73   :         __std_exception_copy(&_Other._Data, &_Data);

  0000c	50		 push	 eax
  0000d	c7 06 00 00 00
	00		 mov	 DWORD PTR [esi], OFFSET ??_7exception@std@@6B@
  00013	66 0f d6 00	 movq	 QWORD PTR [eax], xmm0
  00017	8b 45 08	 mov	 eax, DWORD PTR ___that$[ebp]
  0001a	83 c0 04	 add	 eax, 4
  0001d	50		 push	 eax
  0001e	e8 00 00 00 00	 call	 ___std_exception_copy
  00023	83 c4 08	 add	 esp, 8
  00026	c7 06 00 00 00
	00		 mov	 DWORD PTR [esi], OFFSET ??_7bad_alloc@std@@6B@
  0002c	8b c6		 mov	 eax, esi
  0002e	5e		 pop	 esi
  0002f	5d		 pop	 ebp
  00030	c2 04 00	 ret	 4
??0bad_alloc@std@@QAE@ABV01@@Z ENDP			; std::bad_alloc::bad_alloc
_TEXT	ENDS
; Function compile flags: /Ogtp
; File C:\Program Files (x86)\Microsoft Visual Studio\2019\Community\VC\Tools\MSVC\14.27.29110\include\vcruntime_exception.h
;	COMDAT ??_Gexception@std@@UAEPAXI@Z
_TEXT	SEGMENT
___flags$ = 8						; size = 4
??_Gexception@std@@UAEPAXI@Z PROC			; std::exception::`scalar deleting destructor', COMDAT
; _this$ = ecx
  00000	55		 push	 ebp
  00001	8b ec		 mov	 ebp, esp

; 89   :     {

  00003	56		 push	 esi
  00004	8b f1		 mov	 esi, ecx

; 90   :         __std_exception_destroy(&_Data);

  00006	8d 46 04	 lea	 eax, DWORD PTR [esi+4]
  00009	c7 06 00 00 00
	00		 mov	 DWORD PTR [esi], OFFSET ??_7exception@std@@6B@
  0000f	50		 push	 eax
  00010	e8 00 00 00 00	 call	 ___std_exception_destroy
  00015	83 c4 04	 add	 esp, 4
  00018	f6 45 08 01	 test	 BYTE PTR ___flags$[ebp], 1
  0001c	74 0b		 je	 SHORT $LN6@scalar
  0001e	6a 0c		 push	 12			; 0000000cH
  00020	56		 push	 esi
  00021	e8 00 00 00 00	 call	 ??3@YAXPAXI@Z		; operator delete
  00026	83 c4 08	 add	 esp, 8
$LN6@scalar:
  00029	8b c6		 mov	 eax, esi
  0002b	5e		 pop	 esi
  0002c	5d		 pop	 ebp
  0002d	c2 04 00	 ret	 4
??_Gexception@std@@UAEPAXI@Z ENDP			; std::exception::`scalar deleting destructor'
_TEXT	ENDS
; Function compile flags: /Ogtp
; File C:\Program Files (x86)\Microsoft Visual Studio\2019\Community\VC\Tools\MSVC\14.27.29110\include\vcruntime_exception.h
;	COMDAT ?what@exception@std@@UBEPBDXZ
_TEXT	SEGMENT
?what@exception@std@@UBEPBDXZ PROC			; std::exception::what, COMDAT
; _this$ = ecx

; 95   :         return _Data._What ? _Data._What : "Unknown exception";

  00000	8b 49 04	 mov	 ecx, DWORD PTR [ecx+4]
  00003	b8 00 00 00 00	 mov	 eax, OFFSET ??_C@_0BC@EOODALEL@Unknown?5exception@
  00008	85 c9		 test	 ecx, ecx
  0000a	0f 45 c1	 cmovne	 eax, ecx

; 96   :     }

  0000d	c3		 ret	 0
?what@exception@std@@UBEPBDXZ ENDP			; std::exception::what
_TEXT	ENDS
; Function compile flags: /Ogtp
; File C:\Program Files (x86)\Microsoft Visual Studio\2019\Community\VC\Tools\MSVC\14.27.29110\include\vcruntime_exception.h
;	COMDAT ??1exception@std@@UAE@XZ
_TEXT	SEGMENT
??1exception@std@@UAE@XZ PROC				; std::exception::~exception, COMDAT
; _this$ = ecx

; 90   :         __std_exception_destroy(&_Data);

  00000	8d 41 04	 lea	 eax, DWORD PTR [ecx+4]
  00003	c7 01 00 00 00
	00		 mov	 DWORD PTR [ecx], OFFSET ??_7exception@std@@6B@
  00009	50		 push	 eax
  0000a	e8 00 00 00 00	 call	 ___std_exception_destroy
  0000f	59		 pop	 ecx

; 91   :     }

  00010	c3		 ret	 0
??1exception@std@@UAE@XZ ENDP				; std::exception::~exception
_TEXT	ENDS
; Function compile flags: /Ogtp
; File C:\Program Files (x86)\Microsoft Visual Studio\2019\Community\VC\Tools\MSVC\14.27.29110\include\vcruntime_exception.h
;	COMDAT ??0exception@std@@QAE@ABV01@@Z
_TEXT	SEGMENT
__Other$ = 8						; size = 4
??0exception@std@@QAE@ABV01@@Z PROC			; std::exception::exception, COMDAT
; _this$ = ecx

; 72   :     {

  00000	55		 push	 ebp
  00001	8b ec		 mov	 ebp, esp
  00003	56		 push	 esi
  00004	8b f1		 mov	 esi, ecx
  00006	0f 57 c0	 xorps	 xmm0, xmm0
  00009	8d 46 04	 lea	 eax, DWORD PTR [esi+4]

; 73   :         __std_exception_copy(&_Other._Data, &_Data);

  0000c	50		 push	 eax
  0000d	c7 06 00 00 00
	00		 mov	 DWORD PTR [esi], OFFSET ??_7exception@std@@6B@
  00013	66 0f d6 00	 movq	 QWORD PTR [eax], xmm0
  00017	8b 45 08	 mov	 eax, DWORD PTR __Other$[ebp]
  0001a	83 c0 04	 add	 eax, 4
  0001d	50		 push	 eax
  0001e	e8 00 00 00 00	 call	 ___std_exception_copy
  00023	83 c4 08	 add	 esp, 8

; 74   :     }

  00026	8b c6		 mov	 eax, esi
  00028	5e		 pop	 esi
  00029	5d		 pop	 ebp
  0002a	c2 04 00	 ret	 4
??0exception@std@@QAE@ABV01@@Z ENDP			; std::exception::exception
_TEXT	ENDS
; Function compile flags: /Ogtp
; File C:\Program Files (x86)\Windows Kits\10\Include\10.0.18362.0\ucrt\stdio.h
;	COMDAT _sscanf
_TEXT	SEGMENT
__Buffer$ = 8						; size = 4
__Format$ = 12						; size = 4
_sscanf	PROC						; COMDAT

; 2270 :     {

  00000	55		 push	 ebp
  00001	8b ec		 mov	 ebp, esp

; 2176 :         return __stdio_common_vsscanf(

  00003	8d 45 10	 lea	 eax, DWORD PTR __Format$[ebp+4]
  00006	50		 push	 eax
  00007	6a 00		 push	 0
  00009	ff 75 0c	 push	 DWORD PTR __Format$[ebp]
  0000c	6a ff		 push	 -1
  0000e	ff 75 08	 push	 DWORD PTR __Buffer$[ebp]
  00011	e8 00 00 00 00	 call	 ___local_stdio_scanf_options
  00016	ff 70 04	 push	 DWORD PTR [eax+4]
  00019	ff 30		 push	 DWORD PTR [eax]
  0001b	e8 00 00 00 00	 call	 ___stdio_common_vsscanf
  00020	83 c4 1c	 add	 esp, 28			; 0000001cH

; 2271 :         int _Result;
; 2272 :         va_list _ArgList;
; 2273 :         __crt_va_start(_ArgList, _Format);
; 2274 :         _Result = _vsscanf_l(_Buffer, _Format, NULL, _ArgList);
; 2275 :         __crt_va_end(_ArgList);
; 2276 :         return _Result;
; 2277 :     }

  00023	5d		 pop	 ebp
  00024	c3		 ret	 0
_sscanf	ENDP
_TEXT	ENDS
; Function compile flags: /Ogtp
; File C:\Program Files (x86)\Windows Kits\10\Include\10.0.18362.0\ucrt\corecrt_stdio_config.h
;	COMDAT ___local_stdio_scanf_options
_TEXT	SEGMENT
___local_stdio_scanf_options PROC			; COMDAT

; 97   :         static unsigned __int64 _OptionsStorage;
; 98   :         return &_OptionsStorage;

  00000	b8 00 00 00 00	 mov	 eax, OFFSET ?_OptionsStorage@?1??__local_stdio_scanf_options@@9@4_KA ; `__local_stdio_scanf_options'::`2'::_OptionsStorage

; 99   :     }

  00005	c3		 ret	 0
___local_stdio_scanf_options ENDP
_TEXT	ENDS
; Function compile flags: /Ogtp
;	COMDAT ??_H@YGXPAXIIP6EPAX0@Z@Z
_TEXT	SEGMENT
___t$ = 8						; size = 4
___s$ = 12						; size = 4
___n$ = 16						; size = 4
___f$ = 20						; size = 4
??_H@YGXPAXIIP6EPAX0@Z@Z PROC				; `vector constructor iterator', COMDAT
  00000	55		 push	 ebp
  00001	8b ec		 mov	 ebp, esp
  00003	56		 push	 esi
  00004	8b 75 10	 mov	 esi, DWORD PTR ___n$[ebp]
  00007	85 f6		 test	 esi, esi
  00009	74 16		 je	 SHORT $LN6@vector
  0000b	53		 push	 ebx
  0000c	8b 5d 14	 mov	 ebx, DWORD PTR ___f$[ebp]
  0000f	57		 push	 edi
  00010	8b 7d 08	 mov	 edi, DWORD PTR ___t$[ebp]
$LL2@vector:
  00013	8b cf		 mov	 ecx, edi
  00015	ff d3		 call	 ebx
  00017	03 7d 0c	 add	 edi, DWORD PTR ___s$[ebp]
  0001a	83 ee 01	 sub	 esi, 1
  0001d	75 f4		 jne	 SHORT $LL2@vector
  0001f	5f		 pop	 edi
  00020	5b		 pop	 ebx
$LN6@vector:
  00021	5e		 pop	 esi
  00022	5d		 pop	 ebp
  00023	c2 10 00	 ret	 16			; 00000010H
??_H@YGXPAXIIP6EPAX0@Z@Z ENDP				; `vector constructor iterator'
_TEXT	ENDS
END
