; Listing generated by Microsoft (R) Optimizing Compiler Version 19.27.29112.0 

	TITLE	C:\DS Project\DS Files\Source\ClientSource\Client\GameLib\MapOutdoorUpdate.cpp
	.686P
	.XMM
	include listing.inc
	.model	flat

INCLUDELIB LIBCMT
INCLUDELIB OLDNAMES

PUBLIC	??_R4?$CDynamicPoolEx@VCHeaderDecorator@NEffectUpdateDecorator@@@@6B@ ; CDynamicPoolEx<NEffectUpdateDecorator::CHeaderDecorator>::`RTTI Complete Object Locator'
PUBLIC	??_R0?AV?$CDynamicPoolEx@VCHeaderDecorator@NEffectUpdateDecorator@@@@@8 ; CDynamicPoolEx<NEffectUpdateDecorator::CHeaderDecorator> `RTTI Type Descriptor'
PUBLIC	??_R3?$CDynamicPoolEx@VCHeaderDecorator@NEffectUpdateDecorator@@@@8 ; CDynamicPoolEx<NEffectUpdateDecorator::CHeaderDecorator>::`RTTI Class Hierarchy Descriptor'
PUBLIC	??_R2?$CDynamicPoolEx@VCHeaderDecorator@NEffectUpdateDecorator@@@@8 ; CDynamicPoolEx<NEffectUpdateDecorator::CHeaderDecorator>::`RTTI Base Class Array'
PUBLIC	??_R1A@?0A@EA@?$CDynamicPoolEx@VCHeaderDecorator@NEffectUpdateDecorator@@@@8 ; CDynamicPoolEx<NEffectUpdateDecorator::CHeaderDecorator>::`RTTI Base Class Descriptor at (0,-1,0,64)'
PUBLIC	??_R4?$CDynamicPoolEx@VCNullDecorator@NEffectUpdateDecorator@@@@6B@ ; CDynamicPoolEx<NEffectUpdateDecorator::CNullDecorator>::`RTTI Complete Object Locator'
PUBLIC	??_R0?AV?$CDynamicPoolEx@VCNullDecorator@NEffectUpdateDecorator@@@@@8 ; CDynamicPoolEx<NEffectUpdateDecorator::CNullDecorator> `RTTI Type Descriptor'
PUBLIC	??_R3?$CDynamicPoolEx@VCNullDecorator@NEffectUpdateDecorator@@@@8 ; CDynamicPoolEx<NEffectUpdateDecorator::CNullDecorator>::`RTTI Class Hierarchy Descriptor'
PUBLIC	??_R2?$CDynamicPoolEx@VCNullDecorator@NEffectUpdateDecorator@@@@8 ; CDynamicPoolEx<NEffectUpdateDecorator::CNullDecorator>::`RTTI Base Class Array'
PUBLIC	??_R1A@?0A@EA@?$CDynamicPoolEx@VCNullDecorator@NEffectUpdateDecorator@@@@8 ; CDynamicPoolEx<NEffectUpdateDecorator::CNullDecorator>::`RTTI Base Class Descriptor at (0,-1,0,64)'
PUBLIC	??_R4?$CDynamicPoolEx@VCTextureAnimationCWDecorator@NEffectUpdateDecorator@@@@6B@ ; CDynamicPoolEx<NEffectUpdateDecorator::CTextureAnimationCWDecorator>::`RTTI Complete Object Locator'
PUBLIC	??_R0?AV?$CDynamicPoolEx@VCTextureAnimationCWDecorator@NEffectUpdateDecorator@@@@@8 ; CDynamicPoolEx<NEffectUpdateDecorator::CTextureAnimationCWDecorator> `RTTI Type Descriptor'
PUBLIC	??_R3?$CDynamicPoolEx@VCTextureAnimationCWDecorator@NEffectUpdateDecorator@@@@8 ; CDynamicPoolEx<NEffectUpdateDecorator::CTextureAnimationCWDecorator>::`RTTI Class Hierarchy Descriptor'
PUBLIC	??_R2?$CDynamicPoolEx@VCTextureAnimationCWDecorator@NEffectUpdateDecorator@@@@8 ; CDynamicPoolEx<NEffectUpdateDecorator::CTextureAnimationCWDecorator>::`RTTI Base Class Array'
PUBLIC	??_R1A@?0A@EA@?$CDynamicPoolEx@VCTextureAnimationCWDecorator@NEffectUpdateDecorator@@@@8 ; CDynamicPoolEx<NEffectUpdateDecorator::CTextureAnimationCWDecorator>::`RTTI Base Class Descriptor at (0,-1,0,64)'
PUBLIC	??_R4?$CDynamicPoolEx@VCTextureAnimationCCWDecorator@NEffectUpdateDecorator@@@@6B@ ; CDynamicPoolEx<NEffectUpdateDecorator::CTextureAnimationCCWDecorator>::`RTTI Complete Object Locator'
PUBLIC	??_R0?AV?$CDynamicPoolEx@VCTextureAnimationCCWDecorator@NEffectUpdateDecorator@@@@@8 ; CDynamicPoolEx<NEffectUpdateDecorator::CTextureAnimationCCWDecorator> `RTTI Type Descriptor'
PUBLIC	??_R3?$CDynamicPoolEx@VCTextureAnimationCCWDecorator@NEffectUpdateDecorator@@@@8 ; CDynamicPoolEx<NEffectUpdateDecorator::CTextureAnimationCCWDecorator>::`RTTI Class Hierarchy Descriptor'
PUBLIC	??_R2?$CDynamicPoolEx@VCTextureAnimationCCWDecorator@NEffectUpdateDecorator@@@@8 ; CDynamicPoolEx<NEffectUpdateDecorator::CTextureAnimationCCWDecorator>::`RTTI Base Class Array'
PUBLIC	??_R1A@?0A@EA@?$CDynamicPoolEx@VCTextureAnimationCCWDecorator@NEffectUpdateDecorator@@@@8 ; CDynamicPoolEx<NEffectUpdateDecorator::CTextureAnimationCCWDecorator>::`RTTI Base Class Descriptor at (0,-1,0,64)'
PUBLIC	??_R4?$CDynamicPoolEx@VCTextureAnimationRandomDecorator@NEffectUpdateDecorator@@@@6B@ ; CDynamicPoolEx<NEffectUpdateDecorator::CTextureAnimationRandomDecorator>::`RTTI Complete Object Locator'
PUBLIC	??_R0?AV?$CDynamicPoolEx@VCTextureAnimationRandomDecorator@NEffectUpdateDecorator@@@@@8 ; CDynamicPoolEx<NEffectUpdateDecorator::CTextureAnimationRandomDecorator> `RTTI Type Descriptor'
PUBLIC	??_R3?$CDynamicPoolEx@VCTextureAnimationRandomDecorator@NEffectUpdateDecorator@@@@8 ; CDynamicPoolEx<NEffectUpdateDecorator::CTextureAnimationRandomDecorator>::`RTTI Class Hierarchy Descriptor'
PUBLIC	??_R2?$CDynamicPoolEx@VCTextureAnimationRandomDecorator@NEffectUpdateDecorator@@@@8 ; CDynamicPoolEx<NEffectUpdateDecorator::CTextureAnimationRandomDecorator>::`RTTI Base Class Array'
PUBLIC	??_R1A@?0A@EA@?$CDynamicPoolEx@VCTextureAnimationRandomDecorator@NEffectUpdateDecorator@@@@8 ; CDynamicPoolEx<NEffectUpdateDecorator::CTextureAnimationRandomDecorator>::`RTTI Base Class Descriptor at (0,-1,0,64)'
PUBLIC	??_R4?$CDynamicPoolEx@VCAirResistanceDecorator@NEffectUpdateDecorator@@@@6B@ ; CDynamicPoolEx<NEffectUpdateDecorator::CAirResistanceDecorator>::`RTTI Complete Object Locator'
PUBLIC	??_R0?AV?$CDynamicPoolEx@VCAirResistanceDecorator@NEffectUpdateDecorator@@@@@8 ; CDynamicPoolEx<NEffectUpdateDecorator::CAirResistanceDecorator> `RTTI Type Descriptor'
PUBLIC	??_R3?$CDynamicPoolEx@VCAirResistanceDecorator@NEffectUpdateDecorator@@@@8 ; CDynamicPoolEx<NEffectUpdateDecorator::CAirResistanceDecorator>::`RTTI Class Hierarchy Descriptor'
PUBLIC	??_R2?$CDynamicPoolEx@VCAirResistanceDecorator@NEffectUpdateDecorator@@@@8 ; CDynamicPoolEx<NEffectUpdateDecorator::CAirResistanceDecorator>::`RTTI Base Class Array'
PUBLIC	??_R1A@?0A@EA@?$CDynamicPoolEx@VCAirResistanceDecorator@NEffectUpdateDecorator@@@@8 ; CDynamicPoolEx<NEffectUpdateDecorator::CAirResistanceDecorator>::`RTTI Base Class Descriptor at (0,-1,0,64)'
PUBLIC	??_R4?$CDynamicPoolEx@VCGravityDecorator@NEffectUpdateDecorator@@@@6B@ ; CDynamicPoolEx<NEffectUpdateDecorator::CGravityDecorator>::`RTTI Complete Object Locator'
PUBLIC	??_R0?AV?$CDynamicPoolEx@VCGravityDecorator@NEffectUpdateDecorator@@@@@8 ; CDynamicPoolEx<NEffectUpdateDecorator::CGravityDecorator> `RTTI Type Descriptor'
PUBLIC	??_R3?$CDynamicPoolEx@VCGravityDecorator@NEffectUpdateDecorator@@@@8 ; CDynamicPoolEx<NEffectUpdateDecorator::CGravityDecorator>::`RTTI Class Hierarchy Descriptor'
PUBLIC	??_R2?$CDynamicPoolEx@VCGravityDecorator@NEffectUpdateDecorator@@@@8 ; CDynamicPoolEx<NEffectUpdateDecorator::CGravityDecorator>::`RTTI Base Class Array'
PUBLIC	??_R1A@?0A@EA@?$CDynamicPoolEx@VCGravityDecorator@NEffectUpdateDecorator@@@@8 ; CDynamicPoolEx<NEffectUpdateDecorator::CGravityDecorator>::`RTTI Base Class Descriptor at (0,-1,0,64)'
PUBLIC	??_R4?$CDynamicPoolEx@VCRotationDecorator@NEffectUpdateDecorator@@@@6B@ ; CDynamicPoolEx<NEffectUpdateDecorator::CRotationDecorator>::`RTTI Complete Object Locator'
PUBLIC	??_R0?AV?$CDynamicPoolEx@VCRotationDecorator@NEffectUpdateDecorator@@@@@8 ; CDynamicPoolEx<NEffectUpdateDecorator::CRotationDecorator> `RTTI Type Descriptor'
PUBLIC	??_R3?$CDynamicPoolEx@VCRotationDecorator@NEffectUpdateDecorator@@@@8 ; CDynamicPoolEx<NEffectUpdateDecorator::CRotationDecorator>::`RTTI Class Hierarchy Descriptor'
PUBLIC	??_R2?$CDynamicPoolEx@VCRotationDecorator@NEffectUpdateDecorator@@@@8 ; CDynamicPoolEx<NEffectUpdateDecorator::CRotationDecorator>::`RTTI Base Class Array'
PUBLIC	??_R1A@?0A@EA@?$CDynamicPoolEx@VCRotationDecorator@NEffectUpdateDecorator@@@@8 ; CDynamicPoolEx<NEffectUpdateDecorator::CRotationDecorator>::`RTTI Base Class Descriptor at (0,-1,0,64)'
PUBLIC	??_7?$CDynamicPoolEx@VCRotationDecorator@NEffectUpdateDecorator@@@@6B@ ; CDynamicPoolEx<NEffectUpdateDecorator::CRotationDecorator>::`vftable'
PUBLIC	??_G?$CDynamicPoolEx@VCRotationDecorator@NEffectUpdateDecorator@@@@UAEPAXI@Z ; CDynamicPoolEx<NEffectUpdateDecorator::CRotationDecorator>::`scalar deleting destructor'
PUBLIC	??_7?$CDynamicPoolEx@VCGravityDecorator@NEffectUpdateDecorator@@@@6B@ ; CDynamicPoolEx<NEffectUpdateDecorator::CGravityDecorator>::`vftable'
PUBLIC	??_G?$CDynamicPoolEx@VCGravityDecorator@NEffectUpdateDecorator@@@@UAEPAXI@Z ; CDynamicPoolEx<NEffectUpdateDecorator::CGravityDecorator>::`scalar deleting destructor'
PUBLIC	??_7?$CDynamicPoolEx@VCAirResistanceDecorator@NEffectUpdateDecorator@@@@6B@ ; CDynamicPoolEx<NEffectUpdateDecorator::CAirResistanceDecorator>::`vftable'
PUBLIC	??_G?$CDynamicPoolEx@VCAirResistanceDecorator@NEffectUpdateDecorator@@@@UAEPAXI@Z ; CDynamicPoolEx<NEffectUpdateDecorator::CAirResistanceDecorator>::`scalar deleting destructor'
PUBLIC	??_7?$CDynamicPoolEx@VCTextureAnimationRandomDecorator@NEffectUpdateDecorator@@@@6B@ ; CDynamicPoolEx<NEffectUpdateDecorator::CTextureAnimationRandomDecorator>::`vftable'
PUBLIC	??_G?$CDynamicPoolEx@VCTextureAnimationRandomDecorator@NEffectUpdateDecorator@@@@UAEPAXI@Z ; CDynamicPoolEx<NEffectUpdateDecorator::CTextureAnimationRandomDecorator>::`scalar deleting destructor'
PUBLIC	??_7?$CDynamicPoolEx@VCTextureAnimationCCWDecorator@NEffectUpdateDecorator@@@@6B@ ; CDynamicPoolEx<NEffectUpdateDecorator::CTextureAnimationCCWDecorator>::`vftable'
PUBLIC	??_G?$CDynamicPoolEx@VCTextureAnimationCCWDecorator@NEffectUpdateDecorator@@@@UAEPAXI@Z ; CDynamicPoolEx<NEffectUpdateDecorator::CTextureAnimationCCWDecorator>::`scalar deleting destructor'
PUBLIC	??_7?$CDynamicPoolEx@VCTextureAnimationCWDecorator@NEffectUpdateDecorator@@@@6B@ ; CDynamicPoolEx<NEffectUpdateDecorator::CTextureAnimationCWDecorator>::`vftable'
PUBLIC	??_G?$CDynamicPoolEx@VCTextureAnimationCWDecorator@NEffectUpdateDecorator@@@@UAEPAXI@Z ; CDynamicPoolEx<NEffectUpdateDecorator::CTextureAnimationCWDecorator>::`scalar deleting destructor'
PUBLIC	??_7?$CDynamicPoolEx@VCNullDecorator@NEffectUpdateDecorator@@@@6B@ ; CDynamicPoolEx<NEffectUpdateDecorator::CNullDecorator>::`vftable'
PUBLIC	??_G?$CDynamicPoolEx@VCNullDecorator@NEffectUpdateDecorator@@@@UAEPAXI@Z ; CDynamicPoolEx<NEffectUpdateDecorator::CNullDecorator>::`scalar deleting destructor'
PUBLIC	??_7?$CDynamicPoolEx@VCHeaderDecorator@NEffectUpdateDecorator@@@@6B@ ; CDynamicPoolEx<NEffectUpdateDecorator::CHeaderDecorator>::`vftable'
PUBLIC	??_G?$CDynamicPoolEx@VCHeaderDecorator@NEffectUpdateDecorator@@@@UAEPAXI@Z ; CDynamicPoolEx<NEffectUpdateDecorator::CHeaderDecorator>::`scalar deleting destructor'
EXTRN	??_7type_info@@6B@:QWORD			; type_info::`vftable'
EXTRN	??_E?$CDynamicPoolEx@VCRotationDecorator@NEffectUpdateDecorator@@@@UAEPAXI@Z:PROC ; CDynamicPoolEx<NEffectUpdateDecorator::CRotationDecorator>::`vector deleting destructor'
EXTRN	??_E?$CDynamicPoolEx@VCGravityDecorator@NEffectUpdateDecorator@@@@UAEPAXI@Z:PROC ; CDynamicPoolEx<NEffectUpdateDecorator::CGravityDecorator>::`vector deleting destructor'
EXTRN	??_E?$CDynamicPoolEx@VCAirResistanceDecorator@NEffectUpdateDecorator@@@@UAEPAXI@Z:PROC ; CDynamicPoolEx<NEffectUpdateDecorator::CAirResistanceDecorator>::`vector deleting destructor'
EXTRN	??_E?$CDynamicPoolEx@VCTextureAnimationRandomDecorator@NEffectUpdateDecorator@@@@UAEPAXI@Z:PROC ; CDynamicPoolEx<NEffectUpdateDecorator::CTextureAnimationRandomDecorator>::`vector deleting destructor'
EXTRN	??_E?$CDynamicPoolEx@VCTextureAnimationCCWDecorator@NEffectUpdateDecorator@@@@UAEPAXI@Z:PROC ; CDynamicPoolEx<NEffectUpdateDecorator::CTextureAnimationCCWDecorator>::`vector deleting destructor'
EXTRN	??_E?$CDynamicPoolEx@VCTextureAnimationCWDecorator@NEffectUpdateDecorator@@@@UAEPAXI@Z:PROC ; CDynamicPoolEx<NEffectUpdateDecorator::CTextureAnimationCWDecorator>::`vector deleting destructor'
EXTRN	??_E?$CDynamicPoolEx@VCNullDecorator@NEffectUpdateDecorator@@@@UAEPAXI@Z:PROC ; CDynamicPoolEx<NEffectUpdateDecorator::CNullDecorator>::`vector deleting destructor'
EXTRN	??_E?$CDynamicPoolEx@VCHeaderDecorator@NEffectUpdateDecorator@@@@UAEPAXI@Z:PROC ; CDynamicPoolEx<NEffectUpdateDecorator::CHeaderDecorator>::`vector deleting destructor'
;	COMDAT ??_7?$CDynamicPoolEx@VCHeaderDecorator@NEffectUpdateDecorator@@@@6B@
CONST	SEGMENT
??_7?$CDynamicPoolEx@VCHeaderDecorator@NEffectUpdateDecorator@@@@6B@ DD FLAT:??_R4?$CDynamicPoolEx@VCHeaderDecorator@NEffectUpdateDecorator@@@@6B@ ; CDynamicPoolEx<NEffectUpdateDecorator::CHeaderDecorator>::`vftable'
	DD	FLAT:??_E?$CDynamicPoolEx@VCHeaderDecorator@NEffectUpdateDecorator@@@@UAEPAXI@Z
CONST	ENDS
;	COMDAT ??_7?$CDynamicPoolEx@VCNullDecorator@NEffectUpdateDecorator@@@@6B@
CONST	SEGMENT
??_7?$CDynamicPoolEx@VCNullDecorator@NEffectUpdateDecorator@@@@6B@ DD FLAT:??_R4?$CDynamicPoolEx@VCNullDecorator@NEffectUpdateDecorator@@@@6B@ ; CDynamicPoolEx<NEffectUpdateDecorator::CNullDecorator>::`vftable'
	DD	FLAT:??_E?$CDynamicPoolEx@VCNullDecorator@NEffectUpdateDecorator@@@@UAEPAXI@Z
CONST	ENDS
;	COMDAT ??_7?$CDynamicPoolEx@VCTextureAnimationCWDecorator@NEffectUpdateDecorator@@@@6B@
CONST	SEGMENT
??_7?$CDynamicPoolEx@VCTextureAnimationCWDecorator@NEffectUpdateDecorator@@@@6B@ DD FLAT:??_R4?$CDynamicPoolEx@VCTextureAnimationCWDecorator@NEffectUpdateDecorator@@@@6B@ ; CDynamicPoolEx<NEffectUpdateDecorator::CTextureAnimationCWDecorator>::`vftable'
	DD	FLAT:??_E?$CDynamicPoolEx@VCTextureAnimationCWDecorator@NEffectUpdateDecorator@@@@UAEPAXI@Z
CONST	ENDS
;	COMDAT ??_7?$CDynamicPoolEx@VCTextureAnimationCCWDecorator@NEffectUpdateDecorator@@@@6B@
CONST	SEGMENT
??_7?$CDynamicPoolEx@VCTextureAnimationCCWDecorator@NEffectUpdateDecorator@@@@6B@ DD FLAT:??_R4?$CDynamicPoolEx@VCTextureAnimationCCWDecorator@NEffectUpdateDecorator@@@@6B@ ; CDynamicPoolEx<NEffectUpdateDecorator::CTextureAnimationCCWDecorator>::`vftable'
	DD	FLAT:??_E?$CDynamicPoolEx@VCTextureAnimationCCWDecorator@NEffectUpdateDecorator@@@@UAEPAXI@Z
CONST	ENDS
;	COMDAT ??_7?$CDynamicPoolEx@VCTextureAnimationRandomDecorator@NEffectUpdateDecorator@@@@6B@
CONST	SEGMENT
??_7?$CDynamicPoolEx@VCTextureAnimationRandomDecorator@NEffectUpdateDecorator@@@@6B@ DD FLAT:??_R4?$CDynamicPoolEx@VCTextureAnimationRandomDecorator@NEffectUpdateDecorator@@@@6B@ ; CDynamicPoolEx<NEffectUpdateDecorator::CTextureAnimationRandomDecorator>::`vftable'
	DD	FLAT:??_E?$CDynamicPoolEx@VCTextureAnimationRandomDecorator@NEffectUpdateDecorator@@@@UAEPAXI@Z
CONST	ENDS
;	COMDAT ??_7?$CDynamicPoolEx@VCAirResistanceDecorator@NEffectUpdateDecorator@@@@6B@
CONST	SEGMENT
??_7?$CDynamicPoolEx@VCAirResistanceDecorator@NEffectUpdateDecorator@@@@6B@ DD FLAT:??_R4?$CDynamicPoolEx@VCAirResistanceDecorator@NEffectUpdateDecorator@@@@6B@ ; CDynamicPoolEx<NEffectUpdateDecorator::CAirResistanceDecorator>::`vftable'
	DD	FLAT:??_E?$CDynamicPoolEx@VCAirResistanceDecorator@NEffectUpdateDecorator@@@@UAEPAXI@Z
CONST	ENDS
;	COMDAT ??_7?$CDynamicPoolEx@VCGravityDecorator@NEffectUpdateDecorator@@@@6B@
CONST	SEGMENT
??_7?$CDynamicPoolEx@VCGravityDecorator@NEffectUpdateDecorator@@@@6B@ DD FLAT:??_R4?$CDynamicPoolEx@VCGravityDecorator@NEffectUpdateDecorator@@@@6B@ ; CDynamicPoolEx<NEffectUpdateDecorator::CGravityDecorator>::`vftable'
	DD	FLAT:??_E?$CDynamicPoolEx@VCGravityDecorator@NEffectUpdateDecorator@@@@UAEPAXI@Z
CONST	ENDS
;	COMDAT ??_7?$CDynamicPoolEx@VCRotationDecorator@NEffectUpdateDecorator@@@@6B@
CONST	SEGMENT
??_7?$CDynamicPoolEx@VCRotationDecorator@NEffectUpdateDecorator@@@@6B@ DD FLAT:??_R4?$CDynamicPoolEx@VCRotationDecorator@NEffectUpdateDecorator@@@@6B@ ; CDynamicPoolEx<NEffectUpdateDecorator::CRotationDecorator>::`vftable'
	DD	FLAT:??_E?$CDynamicPoolEx@VCRotationDecorator@NEffectUpdateDecorator@@@@UAEPAXI@Z
CONST	ENDS
;	COMDAT ??_R1A@?0A@EA@?$CDynamicPoolEx@VCRotationDecorator@NEffectUpdateDecorator@@@@8
rdata$r	SEGMENT
??_R1A@?0A@EA@?$CDynamicPoolEx@VCRotationDecorator@NEffectUpdateDecorator@@@@8 DD FLAT:??_R0?AV?$CDynamicPoolEx@VCRotationDecorator@NEffectUpdateDecorator@@@@@8 ; CDynamicPoolEx<NEffectUpdateDecorator::CRotationDecorator>::`RTTI Base Class Descriptor at (0,-1,0,64)'
	DD	00H
	DD	00H
	DD	0ffffffffH
	DD	00H
	DD	040H
	DD	FLAT:??_R3?$CDynamicPoolEx@VCRotationDecorator@NEffectUpdateDecorator@@@@8
rdata$r	ENDS
;	COMDAT ??_R2?$CDynamicPoolEx@VCRotationDecorator@NEffectUpdateDecorator@@@@8
rdata$r	SEGMENT
??_R2?$CDynamicPoolEx@VCRotationDecorator@NEffectUpdateDecorator@@@@8 DD FLAT:??_R1A@?0A@EA@?$CDynamicPoolEx@VCRotationDecorator@NEffectUpdateDecorator@@@@8 ; CDynamicPoolEx<NEffectUpdateDecorator::CRotationDecorator>::`RTTI Base Class Array'
rdata$r	ENDS
;	COMDAT ??_R3?$CDynamicPoolEx@VCRotationDecorator@NEffectUpdateDecorator@@@@8
rdata$r	SEGMENT
??_R3?$CDynamicPoolEx@VCRotationDecorator@NEffectUpdateDecorator@@@@8 DD 00H ; CDynamicPoolEx<NEffectUpdateDecorator::CRotationDecorator>::`RTTI Class Hierarchy Descriptor'
	DD	00H
	DD	01H
	DD	FLAT:??_R2?$CDynamicPoolEx@VCRotationDecorator@NEffectUpdateDecorator@@@@8
rdata$r	ENDS
;	COMDAT ??_R0?AV?$CDynamicPoolEx@VCRotationDecorator@NEffectUpdateDecorator@@@@@8
data$r	SEGMENT
??_R0?AV?$CDynamicPoolEx@VCRotationDecorator@NEffectUpdateDecorator@@@@@8 DD FLAT:??_7type_info@@6B@ ; CDynamicPoolEx<NEffectUpdateDecorator::CRotationDecorator> `RTTI Type Descriptor'
	DD	00H
	DB	'.?AV?$CDynamicPoolEx@VCRotationDecorator@NEffectUpdateDe'
	DB	'corator@@@@', 00H
data$r	ENDS
;	COMDAT ??_R4?$CDynamicPoolEx@VCRotationDecorator@NEffectUpdateDecorator@@@@6B@
rdata$r	SEGMENT
??_R4?$CDynamicPoolEx@VCRotationDecorator@NEffectUpdateDecorator@@@@6B@ DD 00H ; CDynamicPoolEx<NEffectUpdateDecorator::CRotationDecorator>::`RTTI Complete Object Locator'
	DD	00H
	DD	00H
	DD	FLAT:??_R0?AV?$CDynamicPoolEx@VCRotationDecorator@NEffectUpdateDecorator@@@@@8
	DD	FLAT:??_R3?$CDynamicPoolEx@VCRotationDecorator@NEffectUpdateDecorator@@@@8
rdata$r	ENDS
;	COMDAT ??_R1A@?0A@EA@?$CDynamicPoolEx@VCGravityDecorator@NEffectUpdateDecorator@@@@8
rdata$r	SEGMENT
??_R1A@?0A@EA@?$CDynamicPoolEx@VCGravityDecorator@NEffectUpdateDecorator@@@@8 DD FLAT:??_R0?AV?$CDynamicPoolEx@VCGravityDecorator@NEffectUpdateDecorator@@@@@8 ; CDynamicPoolEx<NEffectUpdateDecorator::CGravityDecorator>::`RTTI Base Class Descriptor at (0,-1,0,64)'
	DD	00H
	DD	00H
	DD	0ffffffffH
	DD	00H
	DD	040H
	DD	FLAT:??_R3?$CDynamicPoolEx@VCGravityDecorator@NEffectUpdateDecorator@@@@8
rdata$r	ENDS
;	COMDAT ??_R2?$CDynamicPoolEx@VCGravityDecorator@NEffectUpdateDecorator@@@@8
rdata$r	SEGMENT
??_R2?$CDynamicPoolEx@VCGravityDecorator@NEffectUpdateDecorator@@@@8 DD FLAT:??_R1A@?0A@EA@?$CDynamicPoolEx@VCGravityDecorator@NEffectUpdateDecorator@@@@8 ; CDynamicPoolEx<NEffectUpdateDecorator::CGravityDecorator>::`RTTI Base Class Array'
rdata$r	ENDS
;	COMDAT ??_R3?$CDynamicPoolEx@VCGravityDecorator@NEffectUpdateDecorator@@@@8
rdata$r	SEGMENT
??_R3?$CDynamicPoolEx@VCGravityDecorator@NEffectUpdateDecorator@@@@8 DD 00H ; CDynamicPoolEx<NEffectUpdateDecorator::CGravityDecorator>::`RTTI Class Hierarchy Descriptor'
	DD	00H
	DD	01H
	DD	FLAT:??_R2?$CDynamicPoolEx@VCGravityDecorator@NEffectUpdateDecorator@@@@8
rdata$r	ENDS
;	COMDAT ??_R0?AV?$CDynamicPoolEx@VCGravityDecorator@NEffectUpdateDecorator@@@@@8
data$r	SEGMENT
??_R0?AV?$CDynamicPoolEx@VCGravityDecorator@NEffectUpdateDecorator@@@@@8 DD FLAT:??_7type_info@@6B@ ; CDynamicPoolEx<NEffectUpdateDecorator::CGravityDecorator> `RTTI Type Descriptor'
	DD	00H
	DB	'.?AV?$CDynamicPoolEx@VCGravityDecorator@NEffectUpdateDec'
	DB	'orator@@@@', 00H
data$r	ENDS
;	COMDAT ??_R4?$CDynamicPoolEx@VCGravityDecorator@NEffectUpdateDecorator@@@@6B@
rdata$r	SEGMENT
??_R4?$CDynamicPoolEx@VCGravityDecorator@NEffectUpdateDecorator@@@@6B@ DD 00H ; CDynamicPoolEx<NEffectUpdateDecorator::CGravityDecorator>::`RTTI Complete Object Locator'
	DD	00H
	DD	00H
	DD	FLAT:??_R0?AV?$CDynamicPoolEx@VCGravityDecorator@NEffectUpdateDecorator@@@@@8
	DD	FLAT:??_R3?$CDynamicPoolEx@VCGravityDecorator@NEffectUpdateDecorator@@@@8
rdata$r	ENDS
;	COMDAT ??_R1A@?0A@EA@?$CDynamicPoolEx@VCAirResistanceDecorator@NEffectUpdateDecorator@@@@8
rdata$r	SEGMENT
??_R1A@?0A@EA@?$CDynamicPoolEx@VCAirResistanceDecorator@NEffectUpdateDecorator@@@@8 DD FLAT:??_R0?AV?$CDynamicPoolEx@VCAirResistanceDecorator@NEffectUpdateDecorator@@@@@8 ; CDynamicPoolEx<NEffectUpdateDecorator::CAirResistanceDecorator>::`RTTI Base Class Descriptor at (0,-1,0,64)'
	DD	00H
	DD	00H
	DD	0ffffffffH
	DD	00H
	DD	040H
	DD	FLAT:??_R3?$CDynamicPoolEx@VCAirResistanceDecorator@NEffectUpdateDecorator@@@@8
rdata$r	ENDS
;	COMDAT ??_R2?$CDynamicPoolEx@VCAirResistanceDecorator@NEffectUpdateDecorator@@@@8
rdata$r	SEGMENT
??_R2?$CDynamicPoolEx@VCAirResistanceDecorator@NEffectUpdateDecorator@@@@8 DD FLAT:??_R1A@?0A@EA@?$CDynamicPoolEx@VCAirResistanceDecorator@NEffectUpdateDecorator@@@@8 ; CDynamicPoolEx<NEffectUpdateDecorator::CAirResistanceDecorator>::`RTTI Base Class Array'
rdata$r	ENDS
;	COMDAT ??_R3?$CDynamicPoolEx@VCAirResistanceDecorator@NEffectUpdateDecorator@@@@8
rdata$r	SEGMENT
??_R3?$CDynamicPoolEx@VCAirResistanceDecorator@NEffectUpdateDecorator@@@@8 DD 00H ; CDynamicPoolEx<NEffectUpdateDecorator::CAirResistanceDecorator>::`RTTI Class Hierarchy Descriptor'
	DD	00H
	DD	01H
	DD	FLAT:??_R2?$CDynamicPoolEx@VCAirResistanceDecorator@NEffectUpdateDecorator@@@@8
rdata$r	ENDS
;	COMDAT ??_R0?AV?$CDynamicPoolEx@VCAirResistanceDecorator@NEffectUpdateDecorator@@@@@8
data$r	SEGMENT
??_R0?AV?$CDynamicPoolEx@VCAirResistanceDecorator@NEffectUpdateDecorator@@@@@8 DD FLAT:??_7type_info@@6B@ ; CDynamicPoolEx<NEffectUpdateDecorator::CAirResistanceDecorator> `RTTI Type Descriptor'
	DD	00H
	DB	'.?AV?$CDynamicPoolEx@VCAirResistanceDecorator@NEffectUpd'
	DB	'ateDecorator@@@@', 00H
data$r	ENDS
;	COMDAT ??_R4?$CDynamicPoolEx@VCAirResistanceDecorator@NEffectUpdateDecorator@@@@6B@
rdata$r	SEGMENT
??_R4?$CDynamicPoolEx@VCAirResistanceDecorator@NEffectUpdateDecorator@@@@6B@ DD 00H ; CDynamicPoolEx<NEffectUpdateDecorator::CAirResistanceDecorator>::`RTTI Complete Object Locator'
	DD	00H
	DD	00H
	DD	FLAT:??_R0?AV?$CDynamicPoolEx@VCAirResistanceDecorator@NEffectUpdateDecorator@@@@@8
	DD	FLAT:??_R3?$CDynamicPoolEx@VCAirResistanceDecorator@NEffectUpdateDecorator@@@@8
rdata$r	ENDS
;	COMDAT ??_R1A@?0A@EA@?$CDynamicPoolEx@VCTextureAnimationRandomDecorator@NEffectUpdateDecorator@@@@8
rdata$r	SEGMENT
??_R1A@?0A@EA@?$CDynamicPoolEx@VCTextureAnimationRandomDecorator@NEffectUpdateDecorator@@@@8 DD FLAT:??_R0?AV?$CDynamicPoolEx@VCTextureAnimationRandomDecorator@NEffectUpdateDecorator@@@@@8 ; CDynamicPoolEx<NEffectUpdateDecorator::CTextureAnimationRandomDecorator>::`RTTI Base Class Descriptor at (0,-1,0,64)'
	DD	00H
	DD	00H
	DD	0ffffffffH
	DD	00H
	DD	040H
	DD	FLAT:??_R3?$CDynamicPoolEx@VCTextureAnimationRandomDecorator@NEffectUpdateDecorator@@@@8
rdata$r	ENDS
;	COMDAT ??_R2?$CDynamicPoolEx@VCTextureAnimationRandomDecorator@NEffectUpdateDecorator@@@@8
rdata$r	SEGMENT
??_R2?$CDynamicPoolEx@VCTextureAnimationRandomDecorator@NEffectUpdateDecorator@@@@8 DD FLAT:??_R1A@?0A@EA@?$CDynamicPoolEx@VCTextureAnimationRandomDecorator@NEffectUpdateDecorator@@@@8 ; CDynamicPoolEx<NEffectUpdateDecorator::CTextureAnimationRandomDecorator>::`RTTI Base Class Array'
rdata$r	ENDS
;	COMDAT ??_R3?$CDynamicPoolEx@VCTextureAnimationRandomDecorator@NEffectUpdateDecorator@@@@8
rdata$r	SEGMENT
??_R3?$CDynamicPoolEx@VCTextureAnimationRandomDecorator@NEffectUpdateDecorator@@@@8 DD 00H ; CDynamicPoolEx<NEffectUpdateDecorator::CTextureAnimationRandomDecorator>::`RTTI Class Hierarchy Descriptor'
	DD	00H
	DD	01H
	DD	FLAT:??_R2?$CDynamicPoolEx@VCTextureAnimationRandomDecorator@NEffectUpdateDecorator@@@@8
rdata$r	ENDS
;	COMDAT ??_R0?AV?$CDynamicPoolEx@VCTextureAnimationRandomDecorator@NEffectUpdateDecorator@@@@@8
data$r	SEGMENT
??_R0?AV?$CDynamicPoolEx@VCTextureAnimationRandomDecorator@NEffectUpdateDecorator@@@@@8 DD FLAT:??_7type_info@@6B@ ; CDynamicPoolEx<NEffectUpdateDecorator::CTextureAnimationRandomDecorator> `RTTI Type Descriptor'
	DD	00H
	DB	'.?AV?$CDynamicPoolEx@VCTextureAnimationRandomDecorator@N'
	DB	'EffectUpdateDecorator@@@@', 00H
data$r	ENDS
;	COMDAT ??_R4?$CDynamicPoolEx@VCTextureAnimationRandomDecorator@NEffectUpdateDecorator@@@@6B@
rdata$r	SEGMENT
??_R4?$CDynamicPoolEx@VCTextureAnimationRandomDecorator@NEffectUpdateDecorator@@@@6B@ DD 00H ; CDynamicPoolEx<NEffectUpdateDecorator::CTextureAnimationRandomDecorator>::`RTTI Complete Object Locator'
	DD	00H
	DD	00H
	DD	FLAT:??_R0?AV?$CDynamicPoolEx@VCTextureAnimationRandomDecorator@NEffectUpdateDecorator@@@@@8
	DD	FLAT:??_R3?$CDynamicPoolEx@VCTextureAnimationRandomDecorator@NEffectUpdateDecorator@@@@8
rdata$r	ENDS
;	COMDAT ??_R1A@?0A@EA@?$CDynamicPoolEx@VCTextureAnimationCCWDecorator@NEffectUpdateDecorator@@@@8
rdata$r	SEGMENT
??_R1A@?0A@EA@?$CDynamicPoolEx@VCTextureAnimationCCWDecorator@NEffectUpdateDecorator@@@@8 DD FLAT:??_R0?AV?$CDynamicPoolEx@VCTextureAnimationCCWDecorator@NEffectUpdateDecorator@@@@@8 ; CDynamicPoolEx<NEffectUpdateDecorator::CTextureAnimationCCWDecorator>::`RTTI Base Class Descriptor at (0,-1,0,64)'
	DD	00H
	DD	00H
	DD	0ffffffffH
	DD	00H
	DD	040H
	DD	FLAT:??_R3?$CDynamicPoolEx@VCTextureAnimationCCWDecorator@NEffectUpdateDecorator@@@@8
rdata$r	ENDS
;	COMDAT ??_R2?$CDynamicPoolEx@VCTextureAnimationCCWDecorator@NEffectUpdateDecorator@@@@8
rdata$r	SEGMENT
??_R2?$CDynamicPoolEx@VCTextureAnimationCCWDecorator@NEffectUpdateDecorator@@@@8 DD FLAT:??_R1A@?0A@EA@?$CDynamicPoolEx@VCTextureAnimationCCWDecorator@NEffectUpdateDecorator@@@@8 ; CDynamicPoolEx<NEffectUpdateDecorator::CTextureAnimationCCWDecorator>::`RTTI Base Class Array'
rdata$r	ENDS
;	COMDAT ??_R3?$CDynamicPoolEx@VCTextureAnimationCCWDecorator@NEffectUpdateDecorator@@@@8
rdata$r	SEGMENT
??_R3?$CDynamicPoolEx@VCTextureAnimationCCWDecorator@NEffectUpdateDecorator@@@@8 DD 00H ; CDynamicPoolEx<NEffectUpdateDecorator::CTextureAnimationCCWDecorator>::`RTTI Class Hierarchy Descriptor'
	DD	00H
	DD	01H
	DD	FLAT:??_R2?$CDynamicPoolEx@VCTextureAnimationCCWDecorator@NEffectUpdateDecorator@@@@8
rdata$r	ENDS
;	COMDAT ??_R0?AV?$CDynamicPoolEx@VCTextureAnimationCCWDecorator@NEffectUpdateDecorator@@@@@8
data$r	SEGMENT
??_R0?AV?$CDynamicPoolEx@VCTextureAnimationCCWDecorator@NEffectUpdateDecorator@@@@@8 DD FLAT:??_7type_info@@6B@ ; CDynamicPoolEx<NEffectUpdateDecorator::CTextureAnimationCCWDecorator> `RTTI Type Descriptor'
	DD	00H
	DB	'.?AV?$CDynamicPoolEx@VCTextureAnimationCCWDecorator@NEff'
	DB	'ectUpdateDecorator@@@@', 00H
data$r	ENDS
;	COMDAT ??_R4?$CDynamicPoolEx@VCTextureAnimationCCWDecorator@NEffectUpdateDecorator@@@@6B@
rdata$r	SEGMENT
??_R4?$CDynamicPoolEx@VCTextureAnimationCCWDecorator@NEffectUpdateDecorator@@@@6B@ DD 00H ; CDynamicPoolEx<NEffectUpdateDecorator::CTextureAnimationCCWDecorator>::`RTTI Complete Object Locator'
	DD	00H
	DD	00H
	DD	FLAT:??_R0?AV?$CDynamicPoolEx@VCTextureAnimationCCWDecorator@NEffectUpdateDecorator@@@@@8
	DD	FLAT:??_R3?$CDynamicPoolEx@VCTextureAnimationCCWDecorator@NEffectUpdateDecorator@@@@8
rdata$r	ENDS
;	COMDAT ??_R1A@?0A@EA@?$CDynamicPoolEx@VCTextureAnimationCWDecorator@NEffectUpdateDecorator@@@@8
rdata$r	SEGMENT
??_R1A@?0A@EA@?$CDynamicPoolEx@VCTextureAnimationCWDecorator@NEffectUpdateDecorator@@@@8 DD FLAT:??_R0?AV?$CDynamicPoolEx@VCTextureAnimationCWDecorator@NEffectUpdateDecorator@@@@@8 ; CDynamicPoolEx<NEffectUpdateDecorator::CTextureAnimationCWDecorator>::`RTTI Base Class Descriptor at (0,-1,0,64)'
	DD	00H
	DD	00H
	DD	0ffffffffH
	DD	00H
	DD	040H
	DD	FLAT:??_R3?$CDynamicPoolEx@VCTextureAnimationCWDecorator@NEffectUpdateDecorator@@@@8
rdata$r	ENDS
;	COMDAT ??_R2?$CDynamicPoolEx@VCTextureAnimationCWDecorator@NEffectUpdateDecorator@@@@8
rdata$r	SEGMENT
??_R2?$CDynamicPoolEx@VCTextureAnimationCWDecorator@NEffectUpdateDecorator@@@@8 DD FLAT:??_R1A@?0A@EA@?$CDynamicPoolEx@VCTextureAnimationCWDecorator@NEffectUpdateDecorator@@@@8 ; CDynamicPoolEx<NEffectUpdateDecorator::CTextureAnimationCWDecorator>::`RTTI Base Class Array'
rdata$r	ENDS
;	COMDAT ??_R3?$CDynamicPoolEx@VCTextureAnimationCWDecorator@NEffectUpdateDecorator@@@@8
rdata$r	SEGMENT
??_R3?$CDynamicPoolEx@VCTextureAnimationCWDecorator@NEffectUpdateDecorator@@@@8 DD 00H ; CDynamicPoolEx<NEffectUpdateDecorator::CTextureAnimationCWDecorator>::`RTTI Class Hierarchy Descriptor'
	DD	00H
	DD	01H
	DD	FLAT:??_R2?$CDynamicPoolEx@VCTextureAnimationCWDecorator@NEffectUpdateDecorator@@@@8
rdata$r	ENDS
;	COMDAT ??_R0?AV?$CDynamicPoolEx@VCTextureAnimationCWDecorator@NEffectUpdateDecorator@@@@@8
data$r	SEGMENT
??_R0?AV?$CDynamicPoolEx@VCTextureAnimationCWDecorator@NEffectUpdateDecorator@@@@@8 DD FLAT:??_7type_info@@6B@ ; CDynamicPoolEx<NEffectUpdateDecorator::CTextureAnimationCWDecorator> `RTTI Type Descriptor'
	DD	00H
	DB	'.?AV?$CDynamicPoolEx@VCTextureAnimationCWDecorator@NEffe'
	DB	'ctUpdateDecorator@@@@', 00H
data$r	ENDS
;	COMDAT ??_R4?$CDynamicPoolEx@VCTextureAnimationCWDecorator@NEffectUpdateDecorator@@@@6B@
rdata$r	SEGMENT
??_R4?$CDynamicPoolEx@VCTextureAnimationCWDecorator@NEffectUpdateDecorator@@@@6B@ DD 00H ; CDynamicPoolEx<NEffectUpdateDecorator::CTextureAnimationCWDecorator>::`RTTI Complete Object Locator'
	DD	00H
	DD	00H
	DD	FLAT:??_R0?AV?$CDynamicPoolEx@VCTextureAnimationCWDecorator@NEffectUpdateDecorator@@@@@8
	DD	FLAT:??_R3?$CDynamicPoolEx@VCTextureAnimationCWDecorator@NEffectUpdateDecorator@@@@8
rdata$r	ENDS
;	COMDAT ??_R1A@?0A@EA@?$CDynamicPoolEx@VCNullDecorator@NEffectUpdateDecorator@@@@8
rdata$r	SEGMENT
??_R1A@?0A@EA@?$CDynamicPoolEx@VCNullDecorator@NEffectUpdateDecorator@@@@8 DD FLAT:??_R0?AV?$CDynamicPoolEx@VCNullDecorator@NEffectUpdateDecorator@@@@@8 ; CDynamicPoolEx<NEffectUpdateDecorator::CNullDecorator>::`RTTI Base Class Descriptor at (0,-1,0,64)'
	DD	00H
	DD	00H
	DD	0ffffffffH
	DD	00H
	DD	040H
	DD	FLAT:??_R3?$CDynamicPoolEx@VCNullDecorator@NEffectUpdateDecorator@@@@8
rdata$r	ENDS
;	COMDAT ??_R2?$CDynamicPoolEx@VCNullDecorator@NEffectUpdateDecorator@@@@8
rdata$r	SEGMENT
??_R2?$CDynamicPoolEx@VCNullDecorator@NEffectUpdateDecorator@@@@8 DD FLAT:??_R1A@?0A@EA@?$CDynamicPoolEx@VCNullDecorator@NEffectUpdateDecorator@@@@8 ; CDynamicPoolEx<NEffectUpdateDecorator::CNullDecorator>::`RTTI Base Class Array'
rdata$r	ENDS
;	COMDAT ??_R3?$CDynamicPoolEx@VCNullDecorator@NEffectUpdateDecorator@@@@8
rdata$r	SEGMENT
??_R3?$CDynamicPoolEx@VCNullDecorator@NEffectUpdateDecorator@@@@8 DD 00H ; CDynamicPoolEx<NEffectUpdateDecorator::CNullDecorator>::`RTTI Class Hierarchy Descriptor'
	DD	00H
	DD	01H
	DD	FLAT:??_R2?$CDynamicPoolEx@VCNullDecorator@NEffectUpdateDecorator@@@@8
rdata$r	ENDS
;	COMDAT ??_R0?AV?$CDynamicPoolEx@VCNullDecorator@NEffectUpdateDecorator@@@@@8
data$r	SEGMENT
??_R0?AV?$CDynamicPoolEx@VCNullDecorator@NEffectUpdateDecorator@@@@@8 DD FLAT:??_7type_info@@6B@ ; CDynamicPoolEx<NEffectUpdateDecorator::CNullDecorator> `RTTI Type Descriptor'
	DD	00H
	DB	'.?AV?$CDynamicPoolEx@VCNullDecorator@NEffectUpdateDecora'
	DB	'tor@@@@', 00H
data$r	ENDS
;	COMDAT ??_R4?$CDynamicPoolEx@VCNullDecorator@NEffectUpdateDecorator@@@@6B@
rdata$r	SEGMENT
??_R4?$CDynamicPoolEx@VCNullDecorator@NEffectUpdateDecorator@@@@6B@ DD 00H ; CDynamicPoolEx<NEffectUpdateDecorator::CNullDecorator>::`RTTI Complete Object Locator'
	DD	00H
	DD	00H
	DD	FLAT:??_R0?AV?$CDynamicPoolEx@VCNullDecorator@NEffectUpdateDecorator@@@@@8
	DD	FLAT:??_R3?$CDynamicPoolEx@VCNullDecorator@NEffectUpdateDecorator@@@@8
rdata$r	ENDS
;	COMDAT ??_R1A@?0A@EA@?$CDynamicPoolEx@VCHeaderDecorator@NEffectUpdateDecorator@@@@8
rdata$r	SEGMENT
??_R1A@?0A@EA@?$CDynamicPoolEx@VCHeaderDecorator@NEffectUpdateDecorator@@@@8 DD FLAT:??_R0?AV?$CDynamicPoolEx@VCHeaderDecorator@NEffectUpdateDecorator@@@@@8 ; CDynamicPoolEx<NEffectUpdateDecorator::CHeaderDecorator>::`RTTI Base Class Descriptor at (0,-1,0,64)'
	DD	00H
	DD	00H
	DD	0ffffffffH
	DD	00H
	DD	040H
	DD	FLAT:??_R3?$CDynamicPoolEx@VCHeaderDecorator@NEffectUpdateDecorator@@@@8
rdata$r	ENDS
;	COMDAT ??_R2?$CDynamicPoolEx@VCHeaderDecorator@NEffectUpdateDecorator@@@@8
rdata$r	SEGMENT
??_R2?$CDynamicPoolEx@VCHeaderDecorator@NEffectUpdateDecorator@@@@8 DD FLAT:??_R1A@?0A@EA@?$CDynamicPoolEx@VCHeaderDecorator@NEffectUpdateDecorator@@@@8 ; CDynamicPoolEx<NEffectUpdateDecorator::CHeaderDecorator>::`RTTI Base Class Array'
rdata$r	ENDS
;	COMDAT ??_R3?$CDynamicPoolEx@VCHeaderDecorator@NEffectUpdateDecorator@@@@8
rdata$r	SEGMENT
??_R3?$CDynamicPoolEx@VCHeaderDecorator@NEffectUpdateDecorator@@@@8 DD 00H ; CDynamicPoolEx<NEffectUpdateDecorator::CHeaderDecorator>::`RTTI Class Hierarchy Descriptor'
	DD	00H
	DD	01H
	DD	FLAT:??_R2?$CDynamicPoolEx@VCHeaderDecorator@NEffectUpdateDecorator@@@@8
rdata$r	ENDS
;	COMDAT ??_R0?AV?$CDynamicPoolEx@VCHeaderDecorator@NEffectUpdateDecorator@@@@@8
data$r	SEGMENT
??_R0?AV?$CDynamicPoolEx@VCHeaderDecorator@NEffectUpdateDecorator@@@@@8 DD FLAT:??_7type_info@@6B@ ; CDynamicPoolEx<NEffectUpdateDecorator::CHeaderDecorator> `RTTI Type Descriptor'
	DD	00H
	DB	'.?AV?$CDynamicPoolEx@VCHeaderDecorator@NEffectUpdateDeco'
	DB	'rator@@@@', 00H
data$r	ENDS
;	COMDAT ??_R4?$CDynamicPoolEx@VCHeaderDecorator@NEffectUpdateDecorator@@@@6B@
rdata$r	SEGMENT
??_R4?$CDynamicPoolEx@VCHeaderDecorator@NEffectUpdateDecorator@@@@6B@ DD 00H ; CDynamicPoolEx<NEffectUpdateDecorator::CHeaderDecorator>::`RTTI Complete Object Locator'
	DD	00H
	DD	00H
	DD	FLAT:??_R0?AV?$CDynamicPoolEx@VCHeaderDecorator@NEffectUpdateDecorator@@@@@8
	DD	FLAT:??_R3?$CDynamicPoolEx@VCHeaderDecorator@NEffectUpdateDecorator@@@@8
rdata$r	ENDS
PUBLIC	??_H@YGXPAXIIP6EPAX0@Z@Z			; `vector constructor iterator'
PUBLIC	?__empty_global_delete@@YAXPAX@Z		; __empty_global_delete
PUBLIC	?__empty_global_delete@@YAXPAXI@Z		; __empty_global_delete
PUBLIC	??0exception@std@@QAE@ABV01@@Z			; std::exception::exception
PUBLIC	??1exception@std@@UAE@XZ			; std::exception::~exception
PUBLIC	?what@exception@std@@UBEPBDXZ			; std::exception::what
PUBLIC	??_Gexception@std@@UAEPAXI@Z			; std::exception::`scalar deleting destructor'
PUBLIC	??0bad_alloc@std@@QAE@ABV01@@Z			; std::bad_alloc::bad_alloc
PUBLIC	??_Gbad_alloc@std@@UAEPAXI@Z			; std::bad_alloc::`scalar deleting destructor'
PUBLIC	??0bad_array_new_length@std@@QAE@XZ		; std::bad_array_new_length::bad_array_new_length
PUBLIC	??1bad_array_new_length@std@@UAE@XZ		; std::bad_array_new_length::~bad_array_new_length
PUBLIC	??0bad_array_new_length@std@@QAE@ABV01@@Z	; std::bad_array_new_length::bad_array_new_length
PUBLIC	??_Gbad_array_new_length@std@@UAEPAXI@Z		; std::bad_array_new_length::`scalar deleting destructor'
PUBLIC	?_Throw_bad_array_new_length@std@@YAXXZ		; std::_Throw_bad_array_new_length
PUBLIC	??0CDynamicSphereInstance@@QAE@XZ		; CDynamicSphereInstance::CDynamicSphereInstance
PUBLIC	??$_Deallocate@$07$0A@@std@@YAXPAXI@Z		; std::_Deallocate<8,0>
PUBLIC	??$_Allocate@$07U_Default_allocate_traits@std@@$0A@@std@@YAPAXI@Z ; std::_Allocate<8,std::_Default_allocate_traits,0>
PUBLIC	??$_Allocate_manually_vector_aligned@U_Default_allocate_traits@std@@@std@@YAPAXI@Z ; std::_Allocate_manually_vector_aligned<std::_Default_allocate_traits>
PUBLIC	??1SpherePackCallback@@UAE@XZ			; SpherePackCallback::~SpherePackCallback
PUBLIC	?VisibilityCallback@SpherePackCallback@@UAEXABVFrustum@@PAVSpherePack@@W4ViewState@@@Z ; SpherePackCallback::VisibilityCallback
PUBLIC	?RayTraceCallback@SpherePackCallback@@UAEXABVVector3d@@0M0PAVSpherePack@@@Z ; SpherePackCallback::RayTraceCallback
PUBLIC	?RangeTestCallback@SpherePackCallback@@UAEXABVVector3d@@MPAVSpherePack@@W4ViewState@@@Z ; SpherePackCallback::RangeTestCallback
PUBLIC	?PointTest2dCallback@SpherePackCallback@@UAEXABVVector3d@@PAVSpherePack@@W4ViewState@@@Z ; SpherePackCallback::PointTest2dCallback
PUBLIC	??_GSpherePackCallback@@UAEPAXI@Z		; SpherePackCallback::`scalar deleting destructor'
PUBLIC	??1?$vector@PAVCGraphicObjectInstance@@V?$allocator@PAVCGraphicObjectInstance@@@std@@@std@@QAE@XZ ; std::vector<CGraphicObjectInstance *,std::allocator<CGraphicObjectInstance *> >::~vector<CGraphicObjectInstance *,std::allocator<CGraphicObjectInstance *> >
PUBLIC	?push_back@?$vector@PAVCGraphicObjectInstance@@V?$allocator@PAVCGraphicObjectInstance@@@std@@@std@@QAEXABQAVCGraphicObjectInstance@@@Z ; std::vector<CGraphicObjectInstance *,std::allocator<CGraphicObjectInstance *> >::push_back
PUBLIC	?_Xlength@?$vector@PAVCGraphicObjectInstance@@V?$allocator@PAVCGraphicObjectInstance@@@std@@@std@@CAXXZ ; std::vector<CGraphicObjectInstance *,std::allocator<CGraphicObjectInstance *> >::_Xlength
PUBLIC	?Update@CMapOutdoor@@UAE_NMMM@Z			; CMapOutdoor::Update
PUBLIC	?UpdateAroundAmbience@CMapOutdoor@@UAEXMMM@Z	; CMapOutdoor::UpdateAroundAmbience
PUBLIC	?UpdateSky@CMapOutdoor@@QAEXXZ			; CMapOutdoor::UpdateSky
PUBLIC	?__ClearGarvage@CMapOutdoor@@MAEXXZ		; CMapOutdoor::__ClearGarvage
PUBLIC	?__UpdateGarvage@CMapOutdoor@@MAEXXZ		; CMapOutdoor::__UpdateGarvage
PUBLIC	?UpdateAreaList@CMapOutdoor@@MAEXJJ@Z		; CMapOutdoor::UpdateAreaList
PUBLIC	?UpdateTerrain@CMapOutdoor@@IAEXMM@Z		; CMapOutdoor::UpdateTerrain
PUBLIC	?ConvertTerrainToTnL@CMapOutdoor@@IAEXJJ@Z	; CMapOutdoor::ConvertTerrainToTnL
PUBLIC	?AssignPatch@CMapOutdoor@@IAEXJJJJJ@Z		; CMapOutdoor::AssignPatch
PUBLIC	?__UpdateArea@CMapOutdoor@@IAEXAAUD3DXVECTOR3@@@Z ; CMapOutdoor::__UpdateArea
PUBLIC	?__Game_UpdateArea@CMapOutdoor@@IAEXAAUD3DXVECTOR3@@@Z ; CMapOutdoor::__Game_UpdateArea
PUBLIC	?__CollectShadowReceiver@CMapOutdoor@@IAEXAAUD3DXVECTOR3@@0@Z ; CMapOutdoor::__CollectShadowReceiver
PUBLIC	?__CollectCollisionPCBlocker@CMapOutdoor@@IAEXAAUD3DXVECTOR3@@0M@Z ; CMapOutdoor::__CollectCollisionPCBlocker
PUBLIC	?__CollectCollisionShadowReceiver@CMapOutdoor@@IAEXAAUD3DXVECTOR3@@0@Z ; CMapOutdoor::__CollectCollisionShadowReceiver
PUBLIC	?__UpdateAroundAreaList@CMapOutdoor@@IAEXXZ	; CMapOutdoor::__UpdateAroundAreaList
PUBLIC	?__IsInShadowReceiverList@CMapOutdoor@@IAE_NPAVCGraphicObjectInstance@@@Z ; CMapOutdoor::__IsInShadowReceiverList
PUBLIC	?__IsInPCBlockerList@CMapOutdoor@@IAE_NPAVCGraphicObjectInstance@@@Z ; CMapOutdoor::__IsInPCBlockerList
PUBLIC	?UpdateQuadTreeHeights@CMapOutdoor@@IAEXPAVCTerrainQuadtreeNode@@@Z ; CMapOutdoor::UpdateQuadTreeHeights
PUBLIC	?push_back@?$vector@PAVCTerrain@@V?$allocator@PAVCTerrain@@@std@@@std@@QAEXABQAVCTerrain@@@Z ; std::vector<CTerrain *,std::allocator<CTerrain *> >::push_back
PUBLIC	?_Xlength@?$vector@PAVCTerrain@@V?$allocator@PAVCTerrain@@@std@@@std@@CAXXZ ; std::vector<CTerrain *,std::allocator<CTerrain *> >::_Xlength
PUBLIC	?push_back@?$vector@PAVCArea@@V?$allocator@PAVCArea@@@std@@@std@@QAEXABQAVCArea@@@Z ; std::vector<CArea *,std::allocator<CArea *> >::push_back
PUBLIC	?_Xlength@?$vector@PAVCArea@@V?$allocator@PAVCArea@@@std@@@std@@CAXXZ ; std::vector<CArea *,std::allocator<CArea *> >::_Xlength
PUBLIC	??RFPushTerrainToDeleteVector@CMapOutdoor@@QAEXPAVCTerrain@@@Z ; CMapOutdoor::FPushTerrainToDeleteVector::operator()
PUBLIC	??1FPushTerrainToDeleteVector@CMapOutdoor@@QAE@XZ ; CMapOutdoor::FPushTerrainToDeleteVector::~FPushTerrainToDeleteVector
PUBLIC	??RFPushAreaToDeleteVector@CMapOutdoor@@QAEXPAVCArea@@@Z ; CMapOutdoor::FPushAreaToDeleteVector::operator()
PUBLIC	??1FPushAreaToDeleteVector@CMapOutdoor@@QAE@XZ	; CMapOutdoor::FPushAreaToDeleteVector::~FPushAreaToDeleteVector
PUBLIC	??RPCBlocker_SInstanceList@@QAEXPAVCGraphicObjectInstance@@@Z ; PCBlocker_SInstanceList::operator()
PUBLIC	??1?$RangeTester@UPCBlocker_SInstanceList@@@@UAE@XZ ; RangeTester<PCBlocker_SInstanceList>::~RangeTester<PCBlocker_SInstanceList>
PUBLIC	?RayTraceCallback@?$RangeTester@UPCBlocker_SInstanceList@@@@UAEXABVVector3d@@0M0PAVSpherePack@@@Z ; RangeTester<PCBlocker_SInstanceList>::RayTraceCallback
PUBLIC	?VisibilityCallback@?$RangeTester@UPCBlocker_SInstanceList@@@@UAEXABVFrustum@@PAVSpherePack@@W4ViewState@@@Z ; RangeTester<PCBlocker_SInstanceList>::VisibilityCallback
PUBLIC	?RangeTestCallback@?$RangeTester@UPCBlocker_SInstanceList@@@@UAEXABVVector3d@@MPAVSpherePack@@W4ViewState@@@Z ; RangeTester<PCBlocker_SInstanceList>::RangeTestCallback
PUBLIC	?PointTest2dCallback@?$RangeTester@UPCBlocker_SInstanceList@@@@UAEXABVVector3d@@PAVSpherePack@@W4ViewState@@@Z ; RangeTester<PCBlocker_SInstanceList>::PointTest2dCallback
PUBLIC	??_G?$RangeTester@UPCBlocker_SInstanceList@@@@UAEPAXI@Z ; RangeTester<PCBlocker_SInstanceList>::`scalar deleting destructor'
PUBLIC	??1?$CDynamicPoolEx@VCRotationDecorator@NEffectUpdateDecorator@@@@UAE@XZ ; CDynamicPoolEx<NEffectUpdateDecorator::CRotationDecorator>::~CDynamicPoolEx<NEffectUpdateDecorator::CRotationDecorator>
PUBLIC	?Delete@?$CDynamicPoolEx@VCRotationDecorator@NEffectUpdateDecorator@@@@KAXPAVCRotationDecorator@NEffectUpdateDecorator@@@Z ; CDynamicPoolEx<NEffectUpdateDecorator::CRotationDecorator>::Delete
PUBLIC	??1?$CDynamicPoolEx@VCGravityDecorator@NEffectUpdateDecorator@@@@UAE@XZ ; CDynamicPoolEx<NEffectUpdateDecorator::CGravityDecorator>::~CDynamicPoolEx<NEffectUpdateDecorator::CGravityDecorator>
PUBLIC	?Delete@?$CDynamicPoolEx@VCGravityDecorator@NEffectUpdateDecorator@@@@KAXPAVCGravityDecorator@NEffectUpdateDecorator@@@Z ; CDynamicPoolEx<NEffectUpdateDecorator::CGravityDecorator>::Delete
PUBLIC	??1?$CDynamicPoolEx@VCAirResistanceDecorator@NEffectUpdateDecorator@@@@UAE@XZ ; CDynamicPoolEx<NEffectUpdateDecorator::CAirResistanceDecorator>::~CDynamicPoolEx<NEffectUpdateDecorator::CAirResistanceDecorator>
PUBLIC	?Delete@?$CDynamicPoolEx@VCAirResistanceDecorator@NEffectUpdateDecorator@@@@KAXPAVCAirResistanceDecorator@NEffectUpdateDecorator@@@Z ; CDynamicPoolEx<NEffectUpdateDecorator::CAirResistanceDecorator>::Delete
PUBLIC	??1?$CDynamicPoolEx@VCTextureAnimationRandomDecorator@NEffectUpdateDecorator@@@@UAE@XZ ; CDynamicPoolEx<NEffectUpdateDecorator::CTextureAnimationRandomDecorator>::~CDynamicPoolEx<NEffectUpdateDecorator::CTextureAnimationRandomDecorator>
PUBLIC	?Delete@?$CDynamicPoolEx@VCTextureAnimationRandomDecorator@NEffectUpdateDecorator@@@@KAXPAVCTextureAnimationRandomDecorator@NEffectUpdateDecorator@@@Z ; CDynamicPoolEx<NEffectUpdateDecorator::CTextureAnimationRandomDecorator>::Delete
PUBLIC	??1?$CDynamicPoolEx@VCTextureAnimationCCWDecorator@NEffectUpdateDecorator@@@@UAE@XZ ; CDynamicPoolEx<NEffectUpdateDecorator::CTextureAnimationCCWDecorator>::~CDynamicPoolEx<NEffectUpdateDecorator::CTextureAnimationCCWDecorator>
PUBLIC	?Delete@?$CDynamicPoolEx@VCTextureAnimationCCWDecorator@NEffectUpdateDecorator@@@@KAXPAVCTextureAnimationCCWDecorator@NEffectUpdateDecorator@@@Z ; CDynamicPoolEx<NEffectUpdateDecorator::CTextureAnimationCCWDecorator>::Delete
PUBLIC	??1?$CDynamicPoolEx@VCTextureAnimationCWDecorator@NEffectUpdateDecorator@@@@UAE@XZ ; CDynamicPoolEx<NEffectUpdateDecorator::CTextureAnimationCWDecorator>::~CDynamicPoolEx<NEffectUpdateDecorator::CTextureAnimationCWDecorator>
PUBLIC	?Delete@?$CDynamicPoolEx@VCTextureAnimationCWDecorator@NEffectUpdateDecorator@@@@KAXPAVCTextureAnimationCWDecorator@NEffectUpdateDecorator@@@Z ; CDynamicPoolEx<NEffectUpdateDecorator::CTextureAnimationCWDecorator>::Delete
PUBLIC	??1?$CDynamicPoolEx@VCNullDecorator@NEffectUpdateDecorator@@@@UAE@XZ ; CDynamicPoolEx<NEffectUpdateDecorator::CNullDecorator>::~CDynamicPoolEx<NEffectUpdateDecorator::CNullDecorator>
PUBLIC	?Delete@?$CDynamicPoolEx@VCNullDecorator@NEffectUpdateDecorator@@@@KAXPAVCNullDecorator@NEffectUpdateDecorator@@@Z ; CDynamicPoolEx<NEffectUpdateDecorator::CNullDecorator>::Delete
PUBLIC	??1?$CDynamicPoolEx@VCHeaderDecorator@NEffectUpdateDecorator@@@@UAE@XZ ; CDynamicPoolEx<NEffectUpdateDecorator::CHeaderDecorator>::~CDynamicPoolEx<NEffectUpdateDecorator::CHeaderDecorator>
PUBLIC	?Delete@?$CDynamicPoolEx@VCHeaderDecorator@NEffectUpdateDecorator@@@@KAXPAVCHeaderDecorator@NEffectUpdateDecorator@@@Z ; CDynamicPoolEx<NEffectUpdateDecorator::CHeaderDecorator>::Delete
PUBLIC	??$_Emplace_reallocate@ABQAVCArea@@@?$vector@PAVCArea@@V?$allocator@PAVCArea@@@std@@@std@@QAEPAPAVCArea@@QAPAV2@ABQAV2@@Z ; std::vector<CArea *,std::allocator<CArea *> >::_Emplace_reallocate<CArea * const &>
PUBLIC	??$_Emplace_reallocate@ABQAVCTerrain@@@?$vector@PAVCTerrain@@V?$allocator@PAVCTerrain@@@std@@@std@@QAEPAPAVCTerrain@@QAPAV2@ABQAV2@@Z ; std::vector<CTerrain *,std::allocator<CTerrain *> >::_Emplace_reallocate<CTerrain * const &>
PUBLIC	??$_Emplace_reallocate@ABQAVCGraphicObjectInstance@@@?$vector@PAVCGraphicObjectInstance@@V?$allocator@PAVCGraphicObjectInstance@@@std@@@std@@QAEPAPAVCGraphicObjectInstance@@QAPAV2@ABQAV2@@Z ; std::vector<CGraphicObjectInstance *,std::allocator<CGraphicObjectInstance *> >::_Emplace_reallocate<CGraphicObjectInstance * const &>
PUBLIC	??$_Destroy_range@V?$allocator@PAVCArea@@@std@@@std@@YAXPAPAVCArea@@QAPAV1@AAV?$allocator@PAVCArea@@@0@@Z ; std::_Destroy_range<std::allocator<CArea *> >
PUBLIC	??$_Destroy_range@V?$allocator@PAVCTerrain@@@std@@@std@@YAXPAPAVCTerrain@@QAPAV1@AAV?$allocator@PAVCTerrain@@@0@@Z ; std::_Destroy_range<std::allocator<CTerrain *> >
PUBLIC	??$_Destroy_range@V?$allocator@PAVCGraphicObjectInstance@@@std@@@std@@YAXPAPAVCGraphicObjectInstance@@QAPAV1@AAV?$allocator@PAVCGraphicObjectInstance@@@0@@Z ; std::_Destroy_range<std::allocator<CGraphicObjectInstance *> >
PUBLIC	??$_Destroy_range@V?$allocator@PAVCHeaderDecorator@NEffectUpdateDecorator@@@std@@@std@@YAXPAPAVCHeaderDecorator@NEffectUpdateDecorator@@QAPAV12@AAV?$allocator@PAVCHeaderDecorator@NEffectUpdateDecorator@@@0@@Z ; std::_Destroy_range<std::allocator<NEffectUpdateDecorator::CHeaderDecorator *> >
PUBLIC	??$_Destroy_range@V?$allocator@PAVCNullDecorator@NEffectUpdateDecorator@@@std@@@std@@YAXPAPAVCNullDecorator@NEffectUpdateDecorator@@QAPAV12@AAV?$allocator@PAVCNullDecorator@NEffectUpdateDecorator@@@0@@Z ; std::_Destroy_range<std::allocator<NEffectUpdateDecorator::CNullDecorator *> >
PUBLIC	??$_Destroy_range@V?$allocator@PAVCTextureAnimationCWDecorator@NEffectUpdateDecorator@@@std@@@std@@YAXPAPAVCTextureAnimationCWDecorator@NEffectUpdateDecorator@@QAPAV12@AAV?$allocator@PAVCTextureAnimationCWDecorator@NEffectUpdateDecorator@@@0@@Z ; std::_Destroy_range<std::allocator<NEffectUpdateDecorator::CTextureAnimationCWDecorator *> >
PUBLIC	??$_Destroy_range@V?$allocator@PAVCTextureAnimationCCWDecorator@NEffectUpdateDecorator@@@std@@@std@@YAXPAPAVCTextureAnimationCCWDecorator@NEffectUpdateDecorator@@QAPAV12@AAV?$allocator@PAVCTextureAnimationCCWDecorator@NEffectUpdateDecorator@@@0@@Z ; std::_Destroy_range<std::allocator<NEffectUpdateDecorator::CTextureAnimationCCWDecorator *> >
PUBLIC	??$_Destroy_range@V?$allocator@PAVCTextureAnimationRandomDecorator@NEffectUpdateDecorator@@@std@@@std@@YAXPAPAVCTextureAnimationRandomDecorator@NEffectUpdateDecorator@@QAPAV12@AAV?$allocator@PAVCTextureAnimationRandomDecorator@NEffectUpdateDecorator@@@0@@Z ; std::_Destroy_range<std::allocator<NEffectUpdateDecorator::CTextureAnimationRandomDecorator *> >
PUBLIC	??$_Destroy_range@V?$allocator@PAVCAirResistanceDecorator@NEffectUpdateDecorator@@@std@@@std@@YAXPAPAVCAirResistanceDecorator@NEffectUpdateDecorator@@QAPAV12@AAV?$allocator@PAVCAirResistanceDecorator@NEffectUpdateDecorator@@@0@@Z ; std::_Destroy_range<std::allocator<NEffectUpdateDecorator::CAirResistanceDecorator *> >
PUBLIC	??$_Destroy_range@V?$allocator@PAVCGravityDecorator@NEffectUpdateDecorator@@@std@@@std@@YAXPAPAVCGravityDecorator@NEffectUpdateDecorator@@QAPAV12@AAV?$allocator@PAVCGravityDecorator@NEffectUpdateDecorator@@@0@@Z ; std::_Destroy_range<std::allocator<NEffectUpdateDecorator::CGravityDecorator *> >
PUBLIC	??$_Destroy_range@V?$allocator@PAVCRotationDecorator@NEffectUpdateDecorator@@@std@@@std@@YAXPAPAVCRotationDecorator@NEffectUpdateDecorator@@QAPAV12@AAV?$allocator@PAVCRotationDecorator@NEffectUpdateDecorator@@@0@@Z ; std::_Destroy_range<std::allocator<NEffectUpdateDecorator::CRotationDecorator *> >
PUBLIC	??1?$RangeTester@UFGetShadowReceiverFromHeightData@@@@UAE@XZ ; RangeTester<FGetShadowReceiverFromHeightData>::~RangeTester<FGetShadowReceiverFromHeightData>
PUBLIC	?RayTraceCallback@?$RangeTester@UFGetShadowReceiverFromHeightData@@@@UAEXABVVector3d@@0M0PAVSpherePack@@@Z ; RangeTester<FGetShadowReceiverFromHeightData>::RayTraceCallback
PUBLIC	?VisibilityCallback@?$RangeTester@UFGetShadowReceiverFromHeightData@@@@UAEXABVFrustum@@PAVSpherePack@@W4ViewState@@@Z ; RangeTester<FGetShadowReceiverFromHeightData>::VisibilityCallback
PUBLIC	?RangeTestCallback@?$RangeTester@UFGetShadowReceiverFromHeightData@@@@UAEXABVVector3d@@MPAVSpherePack@@W4ViewState@@@Z ; RangeTester<FGetShadowReceiverFromHeightData>::RangeTestCallback
PUBLIC	?PointTest2dCallback@?$RangeTester@UFGetShadowReceiverFromHeightData@@@@UAEXABVVector3d@@PAVSpherePack@@W4ViewState@@@Z ; RangeTester<FGetShadowReceiverFromHeightData>::PointTest2dCallback
PUBLIC	??_G?$RangeTester@UFGetShadowReceiverFromHeightData@@@@UAEPAXI@Z ; RangeTester<FGetShadowReceiverFromHeightData>::`scalar deleting destructor'
PUBLIC	??$_Sort_unchecked@PAPAVCGraphicObjectInstance@@U?$_Ref_fn@UFPCBlockerDistanceSort@@@std@@@std@@YAXPAPAVCGraphicObjectInstance@@0HU?$_Ref_fn@UFPCBlockerDistanceSort@@@0@@Z ; std::_Sort_unchecked<CGraphicObjectInstance * *,std::_Ref_fn<FPCBlockerDistanceSort> >
PUBLIC	??1?$RangeTester@UFGetShadowReceiverFromCollisionData@@@@UAE@XZ ; RangeTester<FGetShadowReceiverFromCollisionData>::~RangeTester<FGetShadowReceiverFromCollisionData>
PUBLIC	?RayTraceCallback@?$RangeTester@UFGetShadowReceiverFromCollisionData@@@@UAEXABVVector3d@@0M0PAVSpherePack@@@Z ; RangeTester<FGetShadowReceiverFromCollisionData>::RayTraceCallback
PUBLIC	?VisibilityCallback@?$RangeTester@UFGetShadowReceiverFromCollisionData@@@@UAEXABVFrustum@@PAVSpherePack@@W4ViewState@@@Z ; RangeTester<FGetShadowReceiverFromCollisionData>::VisibilityCallback
PUBLIC	?RangeTestCallback@?$RangeTester@UFGetShadowReceiverFromCollisionData@@@@UAEXABVVector3d@@MPAVSpherePack@@W4ViewState@@@Z ; RangeTester<FGetShadowReceiverFromCollisionData>::RangeTestCallback
PUBLIC	?PointTest2dCallback@?$RangeTester@UFGetShadowReceiverFromCollisionData@@@@UAEXABVVector3d@@PAVSpherePack@@W4ViewState@@@Z ; RangeTester<FGetShadowReceiverFromCollisionData>::PointTest2dCallback
PUBLIC	??_G?$RangeTester@UFGetShadowReceiverFromCollisionData@@@@UAEPAXI@Z ; RangeTester<FGetShadowReceiverFromCollisionData>::`scalar deleting destructor'
PUBLIC	??$_Copy_memmove@PAPAVCArea@@PAPAV1@@std@@YAPAPAVCArea@@PAPAV1@00@Z ; std::_Copy_memmove<CArea * *,CArea * *>
PUBLIC	??$_Resize_reallocate@U_Value_init_tag@std@@@?$vector@PAVCArea@@V?$allocator@PAVCArea@@@std@@@std@@AAEXIABU_Value_init_tag@1@@Z ; std::vector<CArea *,std::allocator<CArea *> >::_Resize_reallocate<std::_Value_init_tag>
PUBLIC	??$_Copy_memmove@PAPAVCTerrain@@PAPAV1@@std@@YAPAPAVCTerrain@@PAPAV1@00@Z ; std::_Copy_memmove<CTerrain * *,CTerrain * *>
PUBLIC	??$_Resize_reallocate@U_Value_init_tag@std@@@?$vector@PAVCTerrain@@V?$allocator@PAVCTerrain@@@std@@@std@@AAEXIABU_Value_init_tag@1@@Z ; std::vector<CTerrain *,std::allocator<CTerrain *> >::_Resize_reallocate<std::_Value_init_tag>
PUBLIC	??$_Uninitialized_move@PAPAVCArea@@V?$allocator@PAVCArea@@@std@@@std@@YAPAPAVCArea@@QAPAV1@0PAPAV1@AAV?$allocator@PAVCArea@@@0@@Z ; std::_Uninitialized_move<CArea * *,std::allocator<CArea *> >
PUBLIC	??$_Uninitialized_value_construct_n@V?$allocator@PAVCArea@@@std@@@std@@YAPAPAVCArea@@PAPAV1@IAAV?$allocator@PAVCArea@@@0@@Z ; std::_Uninitialized_value_construct_n<std::allocator<CArea *> >
PUBLIC	??$_Uninitialized_move@PAPAVCTerrain@@V?$allocator@PAVCTerrain@@@std@@@std@@YAPAPAVCTerrain@@QAPAV1@0PAPAV1@AAV?$allocator@PAVCTerrain@@@0@@Z ; std::_Uninitialized_move<CTerrain * *,std::allocator<CTerrain *> >
PUBLIC	??$_Uninitialized_value_construct_n@V?$allocator@PAVCTerrain@@@std@@@std@@YAPAPAVCTerrain@@PAPAV1@IAAV?$allocator@PAVCTerrain@@@0@@Z ; std::_Uninitialized_value_construct_n<std::allocator<CTerrain *> >
PUBLIC	??$_Uninitialized_move@PAPAVCGraphicObjectInstance@@V?$allocator@PAVCGraphicObjectInstance@@@std@@@std@@YAPAPAVCGraphicObjectInstance@@QAPAV1@0PAPAV1@AAV?$allocator@PAVCGraphicObjectInstance@@@0@@Z ; std::_Uninitialized_move<CGraphicObjectInstance * *,std::allocator<CGraphicObjectInstance *> >
PUBLIC	??$_Insertion_sort_unchecked@PAPAVCGraphicObjectInstance@@U?$_Ref_fn@UFPCBlockerDistanceSort@@@std@@@std@@YAPAPAVCGraphicObjectInstance@@PAPAV1@QAPAV1@U?$_Ref_fn@UFPCBlockerDistanceSort@@@0@@Z ; std::_Insertion_sort_unchecked<CGraphicObjectInstance * *,std::_Ref_fn<FPCBlockerDistanceSort> >
PUBLIC	??$_Make_heap_unchecked@PAPAVCGraphicObjectInstance@@U?$_Ref_fn@UFPCBlockerDistanceSort@@@std@@@std@@YAXPAPAVCGraphicObjectInstance@@0U?$_Ref_fn@UFPCBlockerDistanceSort@@@0@@Z ; std::_Make_heap_unchecked<CGraphicObjectInstance * *,std::_Ref_fn<FPCBlockerDistanceSort> >
PUBLIC	??$_Partition_by_median_guess_unchecked@PAPAVCGraphicObjectInstance@@U?$_Ref_fn@UFPCBlockerDistanceSort@@@std@@@std@@YA?AU?$pair@PAPAVCGraphicObjectInstance@@PAPAV1@@0@PAPAVCGraphicObjectInstance@@0U?$_Ref_fn@UFPCBlockerDistanceSort@@@0@@Z ; std::_Partition_by_median_guess_unchecked<CGraphicObjectInstance * *,std::_Ref_fn<FPCBlockerDistanceSort> >
PUBLIC	??$_Zero_range@PAPAVCArea@@@std@@YAPAPAVCArea@@QAPAV1@0@Z ; std::_Zero_range<CArea * *>
PUBLIC	??$_Zero_range@PAPAVCTerrain@@@std@@YAPAPAVCTerrain@@QAPAV1@0@Z ; std::_Zero_range<CTerrain * *>
PUBLIC	??$_Copy_memmove@PAPAVCGraphicObjectInstance@@PAPAV1@@std@@YAPAPAVCGraphicObjectInstance@@PAPAV1@00@Z ; std::_Copy_memmove<CGraphicObjectInstance * *,CGraphicObjectInstance * *>
PUBLIC	??$_Refancy@PAPAVCArea@@$0A@@std@@YAPAPAVCArea@@PAPAV1@@Z ; std::_Refancy<CArea * *,0>
PUBLIC	??$_Refancy@PAPAVCTerrain@@$0A@@std@@YAPAPAVCTerrain@@PAPAV1@@Z ; std::_Refancy<CTerrain * *,0>
PUBLIC	??$_Refancy@PAPAVCGraphicObjectInstance@@$0A@@std@@YAPAPAVCGraphicObjectInstance@@PAPAV1@@Z ; std::_Refancy<CGraphicObjectInstance * *,0>
PUBLIC	??$_Pop_heap_hole_by_index@PAPAVCGraphicObjectInstance@@PAV1@U?$_Ref_fn@UFPCBlockerDistanceSort@@@std@@@std@@YAXPAPAVCGraphicObjectInstance@@HH$$QAPAV1@U?$_Ref_fn@UFPCBlockerDistanceSort@@@0@@Z ; std::_Pop_heap_hole_by_index<CGraphicObjectInstance * *,CGraphicObjectInstance *,std::_Ref_fn<FPCBlockerDistanceSort> >
PUBLIC	??$_Copy_backward_memmove@PAPAVCGraphicObjectInstance@@PAPAV1@@std@@YAPAPAVCGraphicObjectInstance@@PAPAV1@00@Z ; std::_Copy_backward_memmove<CGraphicObjectInstance * *,CGraphicObjectInstance * *>
PUBLIC	??$_Med3_unchecked@PAPAVCGraphicObjectInstance@@U?$_Ref_fn@UFPCBlockerDistanceSort@@@std@@@std@@YAXPAPAVCGraphicObjectInstance@@00U?$_Ref_fn@UFPCBlockerDistanceSort@@@0@@Z ; std::_Med3_unchecked<CGraphicObjectInstance * *,std::_Ref_fn<FPCBlockerDistanceSort> >
PUBLIC	??_7exception@std@@6B@				; std::exception::`vftable'
PUBLIC	??_C@_0BC@EOODALEL@Unknown?5exception@		; `string'
PUBLIC	??_7bad_alloc@std@@6B@				; std::bad_alloc::`vftable'
PUBLIC	??_7bad_array_new_length@std@@6B@		; std::bad_array_new_length::`vftable'
PUBLIC	??_C@_0BF@KINCDENJ@bad?5array?5new?5length@	; `string'
PUBLIC	__TI3?AVbad_array_new_length@std@@
PUBLIC	__CTA3?AVbad_array_new_length@std@@
PUBLIC	??_R0?AVbad_array_new_length@std@@@8		; std::bad_array_new_length `RTTI Type Descriptor'
PUBLIC	__CT??_R0?AVbad_array_new_length@std@@@8??0bad_array_new_length@std@@QAE@ABV01@@Z12
PUBLIC	??_R0?AVbad_alloc@std@@@8			; std::bad_alloc `RTTI Type Descriptor'
PUBLIC	__CT??_R0?AVbad_alloc@std@@@8??0bad_alloc@std@@QAE@ABV01@@Z12
PUBLIC	??_R0?AVexception@std@@@8			; std::exception `RTTI Type Descriptor'
PUBLIC	__CT??_R0?AVexception@std@@@8??0exception@std@@QAE@ABV01@@Z12
PUBLIC	?ms_singleton@?$CSingleton@VCTimer@@@@0PAVCTimer@@A ; CSingleton<CTimer>::ms_singleton
PUBLIC	??_R4exception@std@@6B@				; std::exception::`RTTI Complete Object Locator'
PUBLIC	??_R3exception@std@@8				; std::exception::`RTTI Class Hierarchy Descriptor'
PUBLIC	??_R2exception@std@@8				; std::exception::`RTTI Base Class Array'
PUBLIC	??_R1A@?0A@EA@exception@std@@8			; std::exception::`RTTI Base Class Descriptor at (0,-1,0,64)'
PUBLIC	??_R4bad_alloc@std@@6B@				; std::bad_alloc::`RTTI Complete Object Locator'
PUBLIC	??_R3bad_alloc@std@@8				; std::bad_alloc::`RTTI Class Hierarchy Descriptor'
PUBLIC	??_R2bad_alloc@std@@8				; std::bad_alloc::`RTTI Base Class Array'
PUBLIC	??_R1A@?0A@EA@bad_alloc@std@@8			; std::bad_alloc::`RTTI Base Class Descriptor at (0,-1,0,64)'
PUBLIC	??_R4bad_array_new_length@std@@6B@		; std::bad_array_new_length::`RTTI Complete Object Locator'
PUBLIC	??_R3bad_array_new_length@std@@8		; std::bad_array_new_length::`RTTI Class Hierarchy Descriptor'
PUBLIC	??_R2bad_array_new_length@std@@8		; std::bad_array_new_length::`RTTI Base Class Array'
PUBLIC	??_R1A@?0A@EA@bad_array_new_length@std@@8	; std::bad_array_new_length::`RTTI Base Class Descriptor at (0,-1,0,64)'
PUBLIC	?ms_singleton@?$CSingleton@VCCameraManager@@@@0PAVCCameraManager@@A ; CSingleton<CCameraManager>::ms_singleton
PUBLIC	??_7SpherePackCallback@@6B@			; SpherePackCallback::`vftable'
PUBLIC	?ms_singleton@?$CSingleton@VCCullingManager@@@@0PAVCCullingManager@@A ; CSingleton<CCullingManager>::ms_singleton
PUBLIC	?ms_singleton@?$CSingleton@VCSpeedTreeForestDirectX8@@@@0PAVCSpeedTreeForestDirectX8@@A ; CSingleton<CSpeedTreeForestDirectX8>::ms_singleton
PUBLIC	?ms_kPool@?$CPooledObject@VCHeaderDecorator@NEffectUpdateDecorator@@@@1V?$CDynamicPoolEx@VCHeaderDecorator@NEffectUpdateDecorator@@@@A ; CPooledObject<NEffectUpdateDecorator::CHeaderDecorator>::ms_kPool
PUBLIC	?ms_kPool@?$CPooledObject@VCNullDecorator@NEffectUpdateDecorator@@@@1V?$CDynamicPoolEx@VCNullDecorator@NEffectUpdateDecorator@@@@A ; CPooledObject<NEffectUpdateDecorator::CNullDecorator>::ms_kPool
PUBLIC	?ms_kPool@?$CPooledObject@VCTextureAnimationCWDecorator@NEffectUpdateDecorator@@@@1V?$CDynamicPoolEx@VCTextureAnimationCWDecorator@NEffectUpdateDecorator@@@@A ; CPooledObject<NEffectUpdateDecorator::CTextureAnimationCWDecorator>::ms_kPool
PUBLIC	?ms_kPool@?$CPooledObject@VCTextureAnimationCCWDecorator@NEffectUpdateDecorator@@@@1V?$CDynamicPoolEx@VCTextureAnimationCCWDecorator@NEffectUpdateDecorator@@@@A ; CPooledObject<NEffectUpdateDecorator::CTextureAnimationCCWDecorator>::ms_kPool
PUBLIC	?ms_kPool@?$CPooledObject@VCTextureAnimationRandomDecorator@NEffectUpdateDecorator@@@@1V?$CDynamicPoolEx@VCTextureAnimationRandomDecorator@NEffectUpdateDecorator@@@@A ; CPooledObject<NEffectUpdateDecorator::CTextureAnimationRandomDecorator>::ms_kPool
PUBLIC	?ms_kPool@?$CPooledObject@VCAirResistanceDecorator@NEffectUpdateDecorator@@@@1V?$CDynamicPoolEx@VCAirResistanceDecorator@NEffectUpdateDecorator@@@@A ; CPooledObject<NEffectUpdateDecorator::CAirResistanceDecorator>::ms_kPool
PUBLIC	?ms_kPool@?$CPooledObject@VCGravityDecorator@NEffectUpdateDecorator@@@@1V?$CDynamicPoolEx@VCGravityDecorator@NEffectUpdateDecorator@@@@A ; CPooledObject<NEffectUpdateDecorator::CGravityDecorator>::ms_kPool
PUBLIC	?ms_kPool@?$CPooledObject@VCRotationDecorator@NEffectUpdateDecorator@@@@1V?$CDynamicPoolEx@VCRotationDecorator@NEffectUpdateDecorator@@@@A ; CPooledObject<NEffectUpdateDecorator::CRotationDecorator>::ms_kPool
PUBLIC	??_C@_0BK@IDOOHDBC@Update?3?3Load?5spent?5?$CFd?5ms?6@ ; `string'
PUBLIC	??_7?$RangeTester@UPCBlocker_SInstanceList@@@@6B@ ; RangeTester<PCBlocker_SInstanceList>::`vftable'
PUBLIC	??_C@_0BB@GFILMBNJ@Delete?5Terrain?5?6@		; `string'
PUBLIC	??_C@_0O@MNAKBLAF@Delete?5Area?5?6@		; `string'
PUBLIC	??_7?$RangeTester@UFGetShadowReceiverFromHeightData@@@@6B@ ; RangeTester<FGetShadowReceiverFromHeightData>::`vftable'
PUBLIC	??_7?$RangeTester@UFGetShadowReceiverFromCollisionData@@@@6B@ ; RangeTester<FGetShadowReceiverFromCollisionData>::`vftable'
PUBLIC	??_C@_0BA@FOIKENOD@vector?5too?5long@		; `string'
PUBLIC	??_R4SpherePackCallback@@6B@			; SpherePackCallback::`RTTI Complete Object Locator'
PUBLIC	??_R0?AVSpherePackCallback@@@8			; SpherePackCallback `RTTI Type Descriptor'
PUBLIC	??_R3SpherePackCallback@@8			; SpherePackCallback::`RTTI Class Hierarchy Descriptor'
PUBLIC	??_R2SpherePackCallback@@8			; SpherePackCallback::`RTTI Base Class Array'
PUBLIC	??_R1A@?0A@EA@SpherePackCallback@@8		; SpherePackCallback::`RTTI Base Class Descriptor at (0,-1,0,64)'
PUBLIC	??_R4?$RangeTester@UPCBlocker_SInstanceList@@@@6B@ ; RangeTester<PCBlocker_SInstanceList>::`RTTI Complete Object Locator'
PUBLIC	??_R0?AU?$RangeTester@UPCBlocker_SInstanceList@@@@@8 ; RangeTester<PCBlocker_SInstanceList> `RTTI Type Descriptor'
PUBLIC	??_R3?$RangeTester@UPCBlocker_SInstanceList@@@@8 ; RangeTester<PCBlocker_SInstanceList>::`RTTI Class Hierarchy Descriptor'
PUBLIC	??_R2?$RangeTester@UPCBlocker_SInstanceList@@@@8 ; RangeTester<PCBlocker_SInstanceList>::`RTTI Base Class Array'
PUBLIC	??_R1A@?0A@EA@?$RangeTester@UPCBlocker_SInstanceList@@@@8 ; RangeTester<PCBlocker_SInstanceList>::`RTTI Base Class Descriptor at (0,-1,0,64)'
PUBLIC	??_R4?$RangeTester@UFGetShadowReceiverFromHeightData@@@@6B@ ; RangeTester<FGetShadowReceiverFromHeightData>::`RTTI Complete Object Locator'
PUBLIC	??_R0?AU?$RangeTester@UFGetShadowReceiverFromHeightData@@@@@8 ; RangeTester<FGetShadowReceiverFromHeightData> `RTTI Type Descriptor'
PUBLIC	??_R3?$RangeTester@UFGetShadowReceiverFromHeightData@@@@8 ; RangeTester<FGetShadowReceiverFromHeightData>::`RTTI Class Hierarchy Descriptor'
PUBLIC	??_R2?$RangeTester@UFGetShadowReceiverFromHeightData@@@@8 ; RangeTester<FGetShadowReceiverFromHeightData>::`RTTI Base Class Array'
PUBLIC	??_R1A@?0A@EA@?$RangeTester@UFGetShadowReceiverFromHeightData@@@@8 ; RangeTester<FGetShadowReceiverFromHeightData>::`RTTI Base Class Descriptor at (0,-1,0,64)'
PUBLIC	??_R4?$RangeTester@UFGetShadowReceiverFromCollisionData@@@@6B@ ; RangeTester<FGetShadowReceiverFromCollisionData>::`RTTI Complete Object Locator'
PUBLIC	??_R0?AU?$RangeTester@UFGetShadowReceiverFromCollisionData@@@@@8 ; RangeTester<FGetShadowReceiverFromCollisionData> `RTTI Type Descriptor'
PUBLIC	??_R3?$RangeTester@UFGetShadowReceiverFromCollisionData@@@@8 ; RangeTester<FGetShadowReceiverFromCollisionData>::`RTTI Class Hierarchy Descriptor'
PUBLIC	??_R2?$RangeTester@UFGetShadowReceiverFromCollisionData@@@@8 ; RangeTester<FGetShadowReceiverFromCollisionData>::`RTTI Base Class Array'
PUBLIC	??_R1A@?0A@EA@?$RangeTester@UFGetShadowReceiverFromCollisionData@@@@8 ; RangeTester<FGetShadowReceiverFromCollisionData>::`RTTI Base Class Descriptor at (0,-1,0,64)'
PUBLIC	__real@3f000000
PUBLIC	__real@3fddb22d
PUBLIC	__real@402fff8cc0000000
PUBLIC	__real@42480000
PUBLIC	__real@c05db22d
PUBLIC	__xmm@80000000800000008000000080000000
EXTRN	??2@YAPAXI@Z:PROC				; operator new
EXTRN	??3@YAXPAX@Z:PROC				; operator delete
EXTRN	??3@YAXPAXI@Z:PROC				; operator delete
EXTRN	_atexit:PROC
EXTRN	__Init_thread_header:PROC
EXTRN	__Init_thread_abort:PROC
EXTRN	__Init_thread_footer:PROC
EXTRN	__invalid_parameter_noinfo_noreturn:PROC
EXTRN	__imp__timeGetTime@0:PROC
EXTRN	___std_exception_copy:PROC
EXTRN	___std_exception_destroy:PROC
EXTRN	??_Eexception@std@@UAEPAXI@Z:PROC		; std::exception::`vector deleting destructor'
EXTRN	??_Ebad_alloc@std@@UAEPAXI@Z:PROC		; std::bad_alloc::`vector deleting destructor'
EXTRN	??_Ebad_array_new_length@std@@UAEPAXI@Z:PROC	; std::bad_array_new_length::`vector deleting destructor'
EXTRN	?_Xlength_error@std@@YAXPBD@Z:PROC		; std::_Xlength_error
EXTRN	?MINMAX@@YAHHHH@Z:PROC				; MINMAX
EXTRN	?Trace@@YAXPBD@Z:PROC				; Trace
EXTRN	?Tracenf@@YAXPBDZZ:PROC				; Tracenf
EXTRN	?GetCurrentSecond@CTimer@@QAEMXZ:PROC		; CTimer::GetCurrentSecond
EXTRN	?ELTimer_GetMSec@@YAKXZ:PROC			; ELTimer_GetMSec
EXTRN	?GetCurrentCamera@CCameraManager@@QAEPAVCCamera@@XZ:PROC ; CCameraManager::GetCurrentCamera
EXTRN	??_ESpherePackCallback@@UAEPAXI@Z:PROC		; SpherePackCallback::`vector deleting destructor'
EXTRN	?RangeTest@SpherePackFactory@@QAEXABVVector3d@@MPAVSpherePackCallback@@@Z:PROC ; SpherePackFactory::RangeTest
EXTRN	?GetPosition@CGraphicObjectInstance@@QBEABUD3DXVECTOR3@@XZ:PROC ; CGraphicObjectInstance::GetPosition
EXTRN	?CollisionDynamicSphere@CGraphicObjectInstance@@QBE_NABUCDynamicSphereInstance@@@Z:PROC ; CGraphicObjectInstance::CollisionDynamicSphere
EXTRN	?GetObjectHeight@CGraphicObjectInstance@@QAE_NMMPAM@Z:PROC ; CGraphicObjectInstance::GetObjectHeight
EXTRN	?UpdateSystem@CSpeedTreeForest@@QAEXM@Z:PROC	; CSpeedTreeForest::UpdateSystem
EXTRN	?Update@CArea@@QAEXXZ:PROC			; CArea::Update
EXTRN	?UpdateAroundAmbience@CArea@@QAEXMMM@Z:PROC	; CArea::UpdateAroundAmbience
EXTRN	?GetCoordinate@CArea@@QAEXPAG0@Z:PROC		; CArea::GetCoordinate
EXTRN	?Delete@CArea@@SAXPAV1@@Z:PROC			; CArea::Delete
EXTRN	?GetTerrainPatchPtr@CTerrain@@QAEPAVCTerrainPatch@@EE@Z:PROC ; CTerrain::GetTerrainPatchPtr
EXTRN	?Delete@CTerrain@@SAXPAV1@@Z:PROC		; CTerrain::Delete
EXTRN	?AssignTerrainPtr@CMapOutdoor@@IAEXXZ:PROC	; CMapOutdoor::AssignTerrainPtr
EXTRN	?GetTerrainPointer@CMapOutdoor@@QAEHEPAPAVCTerrain@@@Z:PROC ; CMapOutdoor::GetTerrainPointer
EXTRN	?GetAreaPointer@CMapOutdoor@@QAEHEPAPAVCArea@@@Z:PROC ; CMapOutdoor::GetAreaPointer
EXTRN	?__HeightCache_Update@CMapOutdoor@@AAEXXZ:PROC	; CMapOutdoor::__HeightCache_Update
EXTRN	?IsBuilding@CActorInstance@@QAE_NXZ:PROC	; CActorInstance::IsBuilding
EXTRN	??_E?$RangeTester@UPCBlocker_SInstanceList@@@@UAEPAXI@Z:PROC ; RangeTester<PCBlocker_SInstanceList>::`vector deleting destructor'
EXTRN	??_E?$RangeTester@UFGetShadowReceiverFromHeightData@@@@UAEPAXI@Z:PROC ; RangeTester<FGetShadowReceiverFromHeightData>::`vector deleting destructor'
EXTRN	??_E?$RangeTester@UFGetShadowReceiverFromCollisionData@@@@UAEPAXI@Z:PROC ; RangeTester<FGetShadowReceiverFromCollisionData>::`vector deleting destructor'
EXTRN	@__security_check_cookie@4:PROC
EXTRN	__CxxThrowException@8:PROC
EXTRN	___CxxFrameHandler3:PROC
EXTRN	__libm_sse2_sqrt_precise:PROC
EXTRN	_memmove:PROC
EXTRN	_memset:PROC
EXTRN	__Init_thread_epoch:DWORD
EXTRN	?PR_FCNV@@3MA:DWORD				; PR_FCNV
EXTRN	?PR_ICNV@@3JA:DWORD				; PR_ICNV
EXTRN	___security_cookie:DWORD
EXTRN	__fltused:DWORD
EXTRN	__tls_array:DWORD
EXTRN	__tls_index:DWORD
;	COMDAT ?ms_singleton@?$CSingleton@VCTimer@@@@0PAVCTimer@@A
_BSS	SEGMENT
?ms_singleton@?$CSingleton@VCTimer@@@@0PAVCTimer@@A DD 01H DUP (?) ; CSingleton<CTimer>::ms_singleton
_BSS	ENDS
;	COMDAT ?ms_singleton@?$CSingleton@VCCameraManager@@@@0PAVCCameraManager@@A
_BSS	SEGMENT
?ms_singleton@?$CSingleton@VCCameraManager@@@@0PAVCCameraManager@@A DD 01H DUP (?) ; CSingleton<CCameraManager>::ms_singleton
_BSS	ENDS
;	COMDAT ?ms_singleton@?$CSingleton@VCCullingManager@@@@0PAVCCullingManager@@A
_BSS	SEGMENT
?ms_singleton@?$CSingleton@VCCullingManager@@@@0PAVCCullingManager@@A DD 01H DUP (?) ; CSingleton<CCullingManager>::ms_singleton
_BSS	ENDS
;	COMDAT ?ms_singleton@?$CSingleton@VCSpeedTreeForestDirectX8@@@@0PAVCSpeedTreeForestDirectX8@@A
_BSS	SEGMENT
?ms_singleton@?$CSingleton@VCSpeedTreeForestDirectX8@@@@0PAVCSpeedTreeForestDirectX8@@A DD 01H DUP (?) ; CSingleton<CSpeedTreeForestDirectX8>::ms_singleton
_BSS	ENDS
;	COMDAT ?dwEraseTime@?1??__UpdateGarvage@CMapOutdoor@@MAEXXZ@4KA
_BSS	SEGMENT
?dwEraseTime@?1??__UpdateGarvage@CMapOutdoor@@MAEXXZ@4KA DD 01H DUP (?) ; `CMapOutdoor::__UpdateGarvage'::`2'::dwEraseTime
_BSS	ENDS
;	COMDAT ?$TSS0@?1??__UpdateGarvage@CMapOutdoor@@MAEXXZ@4HA
_BSS	SEGMENT
?$TSS0@?1??__UpdateGarvage@CMapOutdoor@@MAEXXZ@4HA DD 01H DUP (?) ; `CMapOutdoor::__UpdateGarvage'::`2'::$TSS0
_BSS	ENDS
;	COMDAT CRT$XCU
CRT$XCU	SEGMENT
??ms_kPool$initializer$@?$CPooledObject@VCHeaderDecorator@NEffectUpdateDecorator@@@@1P6AXXZA@@3P6AXXZA DD FLAT:??__E?ms_kPool@?$CPooledObject@VCHeaderDecorator@NEffectUpdateDecorator@@@@1V?$CDynamicPoolEx@VCHeaderDecorator@NEffectUpdateDecorator@@@@A@@YAXXZ ; ??ms_kPool$initializer$@?$CPooledObject@VCHeaderDecorator@NEffectUpdateDecorator@@@@1P6AXXZA@@3P6AXXZA
CRT$XCU	ENDS
;	COMDAT __xmm@80000000800000008000000080000000
CONST	SEGMENT
__xmm@80000000800000008000000080000000 DB 00H, 00H, 00H, 080H, 00H, 00H, 00H
	DB	080H, 00H, 00H, 00H, 080H, 00H, 00H, 00H, 080H
CONST	ENDS
;	COMDAT __real@c05db22d
CONST	SEGMENT
__real@c05db22d DD 0c05db22dr			; -3.464
CONST	ENDS
;	COMDAT __real@42480000
CONST	SEGMENT
__real@42480000 DD 042480000r			; 50
CONST	ENDS
;	COMDAT __real@402fff8cc0000000
CONST	SEGMENT
__real@402fff8cc0000000 DQ 0402fff8cc0000000r	; 15.9991
CONST	ENDS
;	COMDAT __real@3fddb22d
CONST	SEGMENT
__real@3fddb22d DD 03fddb22dr			; 1.732
CONST	ENDS
;	COMDAT __real@3f000000
CONST	SEGMENT
__real@3f000000 DD 03f000000r			; 0.5
CONST	ENDS
;	COMDAT ??_R1A@?0A@EA@?$RangeTester@UFGetShadowReceiverFromCollisionData@@@@8
rdata$r	SEGMENT
??_R1A@?0A@EA@?$RangeTester@UFGetShadowReceiverFromCollisionData@@@@8 DD FLAT:??_R0?AU?$RangeTester@UFGetShadowReceiverFromCollisionData@@@@@8 ; RangeTester<FGetShadowReceiverFromCollisionData>::`RTTI Base Class Descriptor at (0,-1,0,64)'
	DD	01H
	DD	00H
	DD	0ffffffffH
	DD	00H
	DD	040H
	DD	FLAT:??_R3?$RangeTester@UFGetShadowReceiverFromCollisionData@@@@8
rdata$r	ENDS
;	COMDAT ??_R2?$RangeTester@UFGetShadowReceiverFromCollisionData@@@@8
rdata$r	SEGMENT
??_R2?$RangeTester@UFGetShadowReceiverFromCollisionData@@@@8 DD FLAT:??_R1A@?0A@EA@?$RangeTester@UFGetShadowReceiverFromCollisionData@@@@8 ; RangeTester<FGetShadowReceiverFromCollisionData>::`RTTI Base Class Array'
	DD	FLAT:??_R1A@?0A@EA@SpherePackCallback@@8
rdata$r	ENDS
;	COMDAT ??_R3?$RangeTester@UFGetShadowReceiverFromCollisionData@@@@8
rdata$r	SEGMENT
??_R3?$RangeTester@UFGetShadowReceiverFromCollisionData@@@@8 DD 00H ; RangeTester<FGetShadowReceiverFromCollisionData>::`RTTI Class Hierarchy Descriptor'
	DD	00H
	DD	02H
	DD	FLAT:??_R2?$RangeTester@UFGetShadowReceiverFromCollisionData@@@@8
rdata$r	ENDS
;	COMDAT ??_R0?AU?$RangeTester@UFGetShadowReceiverFromCollisionData@@@@@8
data$r	SEGMENT
??_R0?AU?$RangeTester@UFGetShadowReceiverFromCollisionData@@@@@8 DD FLAT:??_7type_info@@6B@ ; RangeTester<FGetShadowReceiverFromCollisionData> `RTTI Type Descriptor'
	DD	00H
	DB	'.?AU?$RangeTester@UFGetShadowReceiverFromCollisionData@@'
	DB	'@@', 00H
data$r	ENDS
;	COMDAT ??_R4?$RangeTester@UFGetShadowReceiverFromCollisionData@@@@6B@
rdata$r	SEGMENT
??_R4?$RangeTester@UFGetShadowReceiverFromCollisionData@@@@6B@ DD 00H ; RangeTester<FGetShadowReceiverFromCollisionData>::`RTTI Complete Object Locator'
	DD	00H
	DD	00H
	DD	FLAT:??_R0?AU?$RangeTester@UFGetShadowReceiverFromCollisionData@@@@@8
	DD	FLAT:??_R3?$RangeTester@UFGetShadowReceiverFromCollisionData@@@@8
rdata$r	ENDS
;	COMDAT ??_R1A@?0A@EA@?$RangeTester@UFGetShadowReceiverFromHeightData@@@@8
rdata$r	SEGMENT
??_R1A@?0A@EA@?$RangeTester@UFGetShadowReceiverFromHeightData@@@@8 DD FLAT:??_R0?AU?$RangeTester@UFGetShadowReceiverFromHeightData@@@@@8 ; RangeTester<FGetShadowReceiverFromHeightData>::`RTTI Base Class Descriptor at (0,-1,0,64)'
	DD	01H
	DD	00H
	DD	0ffffffffH
	DD	00H
	DD	040H
	DD	FLAT:??_R3?$RangeTester@UFGetShadowReceiverFromHeightData@@@@8
rdata$r	ENDS
;	COMDAT ??_R2?$RangeTester@UFGetShadowReceiverFromHeightData@@@@8
rdata$r	SEGMENT
??_R2?$RangeTester@UFGetShadowReceiverFromHeightData@@@@8 DD FLAT:??_R1A@?0A@EA@?$RangeTester@UFGetShadowReceiverFromHeightData@@@@8 ; RangeTester<FGetShadowReceiverFromHeightData>::`RTTI Base Class Array'
	DD	FLAT:??_R1A@?0A@EA@SpherePackCallback@@8
rdata$r	ENDS
;	COMDAT ??_R3?$RangeTester@UFGetShadowReceiverFromHeightData@@@@8
rdata$r	SEGMENT
??_R3?$RangeTester@UFGetShadowReceiverFromHeightData@@@@8 DD 00H ; RangeTester<FGetShadowReceiverFromHeightData>::`RTTI Class Hierarchy Descriptor'
	DD	00H
	DD	02H
	DD	FLAT:??_R2?$RangeTester@UFGetShadowReceiverFromHeightData@@@@8
rdata$r	ENDS
;	COMDAT ??_R0?AU?$RangeTester@UFGetShadowReceiverFromHeightData@@@@@8
data$r	SEGMENT
??_R0?AU?$RangeTester@UFGetShadowReceiverFromHeightData@@@@@8 DD FLAT:??_7type_info@@6B@ ; RangeTester<FGetShadowReceiverFromHeightData> `RTTI Type Descriptor'
	DD	00H
	DB	'.?AU?$RangeTester@UFGetShadowReceiverFromHeightData@@@@', 00H
data$r	ENDS
;	COMDAT ??_R4?$RangeTester@UFGetShadowReceiverFromHeightData@@@@6B@
rdata$r	SEGMENT
??_R4?$RangeTester@UFGetShadowReceiverFromHeightData@@@@6B@ DD 00H ; RangeTester<FGetShadowReceiverFromHeightData>::`RTTI Complete Object Locator'
	DD	00H
	DD	00H
	DD	FLAT:??_R0?AU?$RangeTester@UFGetShadowReceiverFromHeightData@@@@@8
	DD	FLAT:??_R3?$RangeTester@UFGetShadowReceiverFromHeightData@@@@8
rdata$r	ENDS
;	COMDAT ??_R1A@?0A@EA@?$RangeTester@UPCBlocker_SInstanceList@@@@8
rdata$r	SEGMENT
??_R1A@?0A@EA@?$RangeTester@UPCBlocker_SInstanceList@@@@8 DD FLAT:??_R0?AU?$RangeTester@UPCBlocker_SInstanceList@@@@@8 ; RangeTester<PCBlocker_SInstanceList>::`RTTI Base Class Descriptor at (0,-1,0,64)'
	DD	01H
	DD	00H
	DD	0ffffffffH
	DD	00H
	DD	040H
	DD	FLAT:??_R3?$RangeTester@UPCBlocker_SInstanceList@@@@8
rdata$r	ENDS
;	COMDAT ??_R2?$RangeTester@UPCBlocker_SInstanceList@@@@8
rdata$r	SEGMENT
??_R2?$RangeTester@UPCBlocker_SInstanceList@@@@8 DD FLAT:??_R1A@?0A@EA@?$RangeTester@UPCBlocker_SInstanceList@@@@8 ; RangeTester<PCBlocker_SInstanceList>::`RTTI Base Class Array'
	DD	FLAT:??_R1A@?0A@EA@SpherePackCallback@@8
rdata$r	ENDS
;	COMDAT ??_R3?$RangeTester@UPCBlocker_SInstanceList@@@@8
rdata$r	SEGMENT
??_R3?$RangeTester@UPCBlocker_SInstanceList@@@@8 DD 00H	; RangeTester<PCBlocker_SInstanceList>::`RTTI Class Hierarchy Descriptor'
	DD	00H
	DD	02H
	DD	FLAT:??_R2?$RangeTester@UPCBlocker_SInstanceList@@@@8
rdata$r	ENDS
;	COMDAT ??_R0?AU?$RangeTester@UPCBlocker_SInstanceList@@@@@8
data$r	SEGMENT
??_R0?AU?$RangeTester@UPCBlocker_SInstanceList@@@@@8 DD FLAT:??_7type_info@@6B@ ; RangeTester<PCBlocker_SInstanceList> `RTTI Type Descriptor'
	DD	00H
	DB	'.?AU?$RangeTester@UPCBlocker_SInstanceList@@@@', 00H
data$r	ENDS
;	COMDAT ??_R4?$RangeTester@UPCBlocker_SInstanceList@@@@6B@
rdata$r	SEGMENT
??_R4?$RangeTester@UPCBlocker_SInstanceList@@@@6B@ DD 00H ; RangeTester<PCBlocker_SInstanceList>::`RTTI Complete Object Locator'
	DD	00H
	DD	00H
	DD	FLAT:??_R0?AU?$RangeTester@UPCBlocker_SInstanceList@@@@@8
	DD	FLAT:??_R3?$RangeTester@UPCBlocker_SInstanceList@@@@8
rdata$r	ENDS
;	COMDAT ??_R1A@?0A@EA@SpherePackCallback@@8
rdata$r	SEGMENT
??_R1A@?0A@EA@SpherePackCallback@@8 DD FLAT:??_R0?AVSpherePackCallback@@@8 ; SpherePackCallback::`RTTI Base Class Descriptor at (0,-1,0,64)'
	DD	00H
	DD	00H
	DD	0ffffffffH
	DD	00H
	DD	040H
	DD	FLAT:??_R3SpherePackCallback@@8
rdata$r	ENDS
;	COMDAT ??_R2SpherePackCallback@@8
rdata$r	SEGMENT
??_R2SpherePackCallback@@8 DD FLAT:??_R1A@?0A@EA@SpherePackCallback@@8 ; SpherePackCallback::`RTTI Base Class Array'
rdata$r	ENDS
;	COMDAT ??_R3SpherePackCallback@@8
rdata$r	SEGMENT
??_R3SpherePackCallback@@8 DD 00H			; SpherePackCallback::`RTTI Class Hierarchy Descriptor'
	DD	00H
	DD	01H
	DD	FLAT:??_R2SpherePackCallback@@8
rdata$r	ENDS
;	COMDAT ??_R0?AVSpherePackCallback@@@8
data$r	SEGMENT
??_R0?AVSpherePackCallback@@@8 DD FLAT:??_7type_info@@6B@ ; SpherePackCallback `RTTI Type Descriptor'
	DD	00H
	DB	'.?AVSpherePackCallback@@', 00H
data$r	ENDS
;	COMDAT ??_R4SpherePackCallback@@6B@
rdata$r	SEGMENT
??_R4SpherePackCallback@@6B@ DD 00H			; SpherePackCallback::`RTTI Complete Object Locator'
	DD	00H
	DD	00H
	DD	FLAT:??_R0?AVSpherePackCallback@@@8
	DD	FLAT:??_R3SpherePackCallback@@8
rdata$r	ENDS
;	COMDAT ??_C@_0BA@FOIKENOD@vector?5too?5long@
CONST	SEGMENT
??_C@_0BA@FOIKENOD@vector?5too?5long@ DB 'vector too long', 00H ; `string'
CONST	ENDS
;	COMDAT ??_7?$RangeTester@UFGetShadowReceiverFromCollisionData@@@@6B@
CONST	SEGMENT
??_7?$RangeTester@UFGetShadowReceiverFromCollisionData@@@@6B@ DD FLAT:??_R4?$RangeTester@UFGetShadowReceiverFromCollisionData@@@@6B@ ; RangeTester<FGetShadowReceiverFromCollisionData>::`vftable'
	DD	FLAT:??_E?$RangeTester@UFGetShadowReceiverFromCollisionData@@@@UAEPAXI@Z
	DD	FLAT:?VisibilityCallback@?$RangeTester@UFGetShadowReceiverFromCollisionData@@@@UAEXABVFrustum@@PAVSpherePack@@W4ViewState@@@Z
	DD	FLAT:?RayTraceCallback@?$RangeTester@UFGetShadowReceiverFromCollisionData@@@@UAEXABVVector3d@@0M0PAVSpherePack@@@Z
	DD	FLAT:?RangeTestCallback@?$RangeTester@UFGetShadowReceiverFromCollisionData@@@@UAEXABVVector3d@@MPAVSpherePack@@W4ViewState@@@Z
	DD	FLAT:?PointTest2dCallback@?$RangeTester@UFGetShadowReceiverFromCollisionData@@@@UAEXABVVector3d@@PAVSpherePack@@W4ViewState@@@Z
CONST	ENDS
;	COMDAT ??_7?$RangeTester@UFGetShadowReceiverFromHeightData@@@@6B@
CONST	SEGMENT
??_7?$RangeTester@UFGetShadowReceiverFromHeightData@@@@6B@ DD FLAT:??_R4?$RangeTester@UFGetShadowReceiverFromHeightData@@@@6B@ ; RangeTester<FGetShadowReceiverFromHeightData>::`vftable'
	DD	FLAT:??_E?$RangeTester@UFGetShadowReceiverFromHeightData@@@@UAEPAXI@Z
	DD	FLAT:?VisibilityCallback@?$RangeTester@UFGetShadowReceiverFromHeightData@@@@UAEXABVFrustum@@PAVSpherePack@@W4ViewState@@@Z
	DD	FLAT:?RayTraceCallback@?$RangeTester@UFGetShadowReceiverFromHeightData@@@@UAEXABVVector3d@@0M0PAVSpherePack@@@Z
	DD	FLAT:?RangeTestCallback@?$RangeTester@UFGetShadowReceiverFromHeightData@@@@UAEXABVVector3d@@MPAVSpherePack@@W4ViewState@@@Z
	DD	FLAT:?PointTest2dCallback@?$RangeTester@UFGetShadowReceiverFromHeightData@@@@UAEXABVVector3d@@PAVSpherePack@@W4ViewState@@@Z
CONST	ENDS
;	COMDAT ??_C@_0O@MNAKBLAF@Delete?5Area?5?6@
CONST	SEGMENT
??_C@_0O@MNAKBLAF@Delete?5Area?5?6@ DB 'Delete Area ', 0aH, 00H ; `string'
CONST	ENDS
;	COMDAT ??_C@_0BB@GFILMBNJ@Delete?5Terrain?5?6@
CONST	SEGMENT
??_C@_0BB@GFILMBNJ@Delete?5Terrain?5?6@ DB 'Delete Terrain ', 0aH, 00H ; `string'
CONST	ENDS
;	COMDAT ??_7?$RangeTester@UPCBlocker_SInstanceList@@@@6B@
CONST	SEGMENT
??_7?$RangeTester@UPCBlocker_SInstanceList@@@@6B@ DD FLAT:??_R4?$RangeTester@UPCBlocker_SInstanceList@@@@6B@ ; RangeTester<PCBlocker_SInstanceList>::`vftable'
	DD	FLAT:??_E?$RangeTester@UPCBlocker_SInstanceList@@@@UAEPAXI@Z
	DD	FLAT:?VisibilityCallback@?$RangeTester@UPCBlocker_SInstanceList@@@@UAEXABVFrustum@@PAVSpherePack@@W4ViewState@@@Z
	DD	FLAT:?RayTraceCallback@?$RangeTester@UPCBlocker_SInstanceList@@@@UAEXABVVector3d@@0M0PAVSpherePack@@@Z
	DD	FLAT:?RangeTestCallback@?$RangeTester@UPCBlocker_SInstanceList@@@@UAEXABVVector3d@@MPAVSpherePack@@W4ViewState@@@Z
	DD	FLAT:?PointTest2dCallback@?$RangeTester@UPCBlocker_SInstanceList@@@@UAEXABVVector3d@@PAVSpherePack@@W4ViewState@@@Z
CONST	ENDS
;	COMDAT ??_C@_0BK@IDOOHDBC@Update?3?3Load?5spent?5?$CFd?5ms?6@
CONST	SEGMENT
??_C@_0BK@IDOOHDBC@Update?3?3Load?5spent?5?$CFd?5ms?6@ DB 'Update::Load s'
	DB	'pent %d ms', 0aH, 00H			; `string'
CONST	ENDS
;	COMDAT ?ms_kPool@?$CPooledObject@VCRotationDecorator@NEffectUpdateDecorator@@@@1V?$CDynamicPoolEx@VCRotationDecorator@NEffectUpdateDecorator@@@@A
_DATA	SEGMENT
?ms_kPool@?$CPooledObject@VCRotationDecorator@NEffectUpdateDecorator@@@@1V?$CDynamicPoolEx@VCRotationDecorator@NEffectUpdateDecorator@@@@A DD FLAT:??_7?$CDynamicPoolEx@VCRotationDecorator@NEffectUpdateDecorator@@@@6B@ ; CPooledObject<NEffectUpdateDecorator::CRotationDecorator>::ms_kPool
	DD	00H
	DD	00H
	DD	00H
	DD	00H
	DD	00H
	DD	00H
	DD	00H
	DD	00H
_DATA	ENDS
;	COMDAT ?ms_kPool@?$CPooledObject@VCGravityDecorator@NEffectUpdateDecorator@@@@1V?$CDynamicPoolEx@VCGravityDecorator@NEffectUpdateDecorator@@@@A
_DATA	SEGMENT
?ms_kPool@?$CPooledObject@VCGravityDecorator@NEffectUpdateDecorator@@@@1V?$CDynamicPoolEx@VCGravityDecorator@NEffectUpdateDecorator@@@@A DD FLAT:??_7?$CDynamicPoolEx@VCGravityDecorator@NEffectUpdateDecorator@@@@6B@ ; CPooledObject<NEffectUpdateDecorator::CGravityDecorator>::ms_kPool
	DD	00H
	DD	00H
	DD	00H
	DD	00H
	DD	00H
	DD	00H
	DD	00H
	DD	00H
_DATA	ENDS
;	COMDAT ?ms_kPool@?$CPooledObject@VCAirResistanceDecorator@NEffectUpdateDecorator@@@@1V?$CDynamicPoolEx@VCAirResistanceDecorator@NEffectUpdateDecorator@@@@A
_DATA	SEGMENT
?ms_kPool@?$CPooledObject@VCAirResistanceDecorator@NEffectUpdateDecorator@@@@1V?$CDynamicPoolEx@VCAirResistanceDecorator@NEffectUpdateDecorator@@@@A DD FLAT:??_7?$CDynamicPoolEx@VCAirResistanceDecorator@NEffectUpdateDecorator@@@@6B@ ; CPooledObject<NEffectUpdateDecorator::CAirResistanceDecorator>::ms_kPool
	DD	00H
	DD	00H
	DD	00H
	DD	00H
	DD	00H
	DD	00H
	DD	00H
	DD	00H
_DATA	ENDS
;	COMDAT ?ms_kPool@?$CPooledObject@VCTextureAnimationRandomDecorator@NEffectUpdateDecorator@@@@1V?$CDynamicPoolEx@VCTextureAnimationRandomDecorator@NEffectUpdateDecorator@@@@A
_DATA	SEGMENT
?ms_kPool@?$CPooledObject@VCTextureAnimationRandomDecorator@NEffectUpdateDecorator@@@@1V?$CDynamicPoolEx@VCTextureAnimationRandomDecorator@NEffectUpdateDecorator@@@@A DD FLAT:??_7?$CDynamicPoolEx@VCTextureAnimationRandomDecorator@NEffectUpdateDecorator@@@@6B@ ; CPooledObject<NEffectUpdateDecorator::CTextureAnimationRandomDecorator>::ms_kPool
	DD	00H
	DD	00H
	DD	00H
	DD	00H
	DD	00H
	DD	00H
	DD	00H
	DD	00H
_DATA	ENDS
;	COMDAT ?ms_kPool@?$CPooledObject@VCTextureAnimationCCWDecorator@NEffectUpdateDecorator@@@@1V?$CDynamicPoolEx@VCTextureAnimationCCWDecorator@NEffectUpdateDecorator@@@@A
_DATA	SEGMENT
?ms_kPool@?$CPooledObject@VCTextureAnimationCCWDecorator@NEffectUpdateDecorator@@@@1V?$CDynamicPoolEx@VCTextureAnimationCCWDecorator@NEffectUpdateDecorator@@@@A DD FLAT:??_7?$CDynamicPoolEx@VCTextureAnimationCCWDecorator@NEffectUpdateDecorator@@@@6B@ ; CPooledObject<NEffectUpdateDecorator::CTextureAnimationCCWDecorator>::ms_kPool
	DD	00H
	DD	00H
	DD	00H
	DD	00H
	DD	00H
	DD	00H
	DD	00H
	DD	00H
_DATA	ENDS
;	COMDAT ?ms_kPool@?$CPooledObject@VCTextureAnimationCWDecorator@NEffectUpdateDecorator@@@@1V?$CDynamicPoolEx@VCTextureAnimationCWDecorator@NEffectUpdateDecorator@@@@A
_DATA	SEGMENT
?ms_kPool@?$CPooledObject@VCTextureAnimationCWDecorator@NEffectUpdateDecorator@@@@1V?$CDynamicPoolEx@VCTextureAnimationCWDecorator@NEffectUpdateDecorator@@@@A DD FLAT:??_7?$CDynamicPoolEx@VCTextureAnimationCWDecorator@NEffectUpdateDecorator@@@@6B@ ; CPooledObject<NEffectUpdateDecorator::CTextureAnimationCWDecorator>::ms_kPool
	DD	00H
	DD	00H
	DD	00H
	DD	00H
	DD	00H
	DD	00H
	DD	00H
	DD	00H
_DATA	ENDS
;	COMDAT ?ms_kPool@?$CPooledObject@VCNullDecorator@NEffectUpdateDecorator@@@@1V?$CDynamicPoolEx@VCNullDecorator@NEffectUpdateDecorator@@@@A
_DATA	SEGMENT
?ms_kPool@?$CPooledObject@VCNullDecorator@NEffectUpdateDecorator@@@@1V?$CDynamicPoolEx@VCNullDecorator@NEffectUpdateDecorator@@@@A DD FLAT:??_7?$CDynamicPoolEx@VCNullDecorator@NEffectUpdateDecorator@@@@6B@ ; CPooledObject<NEffectUpdateDecorator::CNullDecorator>::ms_kPool
	DD	00H
	DD	00H
	DD	00H
	DD	00H
	DD	00H
	DD	00H
	DD	00H
	DD	00H
_DATA	ENDS
;	COMDAT ?ms_kPool@?$CPooledObject@VCHeaderDecorator@NEffectUpdateDecorator@@@@1V?$CDynamicPoolEx@VCHeaderDecorator@NEffectUpdateDecorator@@@@A
_DATA	SEGMENT
?ms_kPool@?$CPooledObject@VCHeaderDecorator@NEffectUpdateDecorator@@@@1V?$CDynamicPoolEx@VCHeaderDecorator@NEffectUpdateDecorator@@@@A DD FLAT:??_7?$CDynamicPoolEx@VCHeaderDecorator@NEffectUpdateDecorator@@@@6B@ ; CPooledObject<NEffectUpdateDecorator::CHeaderDecorator>::ms_kPool
	DD	00H
	DD	00H
	DD	00H
	DD	00H
	DD	00H
	DD	00H
	DD	00H
	DD	00H
_DATA	ENDS
;	COMDAT ??_7SpherePackCallback@@6B@
CONST	SEGMENT
??_7SpherePackCallback@@6B@ DD FLAT:??_R4SpherePackCallback@@6B@ ; SpherePackCallback::`vftable'
	DD	FLAT:??_ESpherePackCallback@@UAEPAXI@Z
	DD	FLAT:?VisibilityCallback@SpherePackCallback@@UAEXABVFrustum@@PAVSpherePack@@W4ViewState@@@Z
	DD	FLAT:?RayTraceCallback@SpherePackCallback@@UAEXABVVector3d@@0M0PAVSpherePack@@@Z
	DD	FLAT:?RangeTestCallback@SpherePackCallback@@UAEXABVVector3d@@MPAVSpherePack@@W4ViewState@@@Z
	DD	FLAT:?PointTest2dCallback@SpherePackCallback@@UAEXABVVector3d@@PAVSpherePack@@W4ViewState@@@Z
CONST	ENDS
;	COMDAT ??_R1A@?0A@EA@bad_array_new_length@std@@8
rdata$r	SEGMENT
??_R1A@?0A@EA@bad_array_new_length@std@@8 DD FLAT:??_R0?AVbad_array_new_length@std@@@8 ; std::bad_array_new_length::`RTTI Base Class Descriptor at (0,-1,0,64)'
	DD	02H
	DD	00H
	DD	0ffffffffH
	DD	00H
	DD	040H
	DD	FLAT:??_R3bad_array_new_length@std@@8
rdata$r	ENDS
;	COMDAT ??_R2bad_array_new_length@std@@8
rdata$r	SEGMENT
??_R2bad_array_new_length@std@@8 DD FLAT:??_R1A@?0A@EA@bad_array_new_length@std@@8 ; std::bad_array_new_length::`RTTI Base Class Array'
	DD	FLAT:??_R1A@?0A@EA@bad_alloc@std@@8
	DD	FLAT:??_R1A@?0A@EA@exception@std@@8
rdata$r	ENDS
;	COMDAT ??_R3bad_array_new_length@std@@8
rdata$r	SEGMENT
??_R3bad_array_new_length@std@@8 DD 00H			; std::bad_array_new_length::`RTTI Class Hierarchy Descriptor'
	DD	00H
	DD	03H
	DD	FLAT:??_R2bad_array_new_length@std@@8
rdata$r	ENDS
;	COMDAT ??_R4bad_array_new_length@std@@6B@
rdata$r	SEGMENT
??_R4bad_array_new_length@std@@6B@ DD 00H		; std::bad_array_new_length::`RTTI Complete Object Locator'
	DD	00H
	DD	00H
	DD	FLAT:??_R0?AVbad_array_new_length@std@@@8
	DD	FLAT:??_R3bad_array_new_length@std@@8
rdata$r	ENDS
;	COMDAT ??_R1A@?0A@EA@bad_alloc@std@@8
rdata$r	SEGMENT
??_R1A@?0A@EA@bad_alloc@std@@8 DD FLAT:??_R0?AVbad_alloc@std@@@8 ; std::bad_alloc::`RTTI Base Class Descriptor at (0,-1,0,64)'
	DD	01H
	DD	00H
	DD	0ffffffffH
	DD	00H
	DD	040H
	DD	FLAT:??_R3bad_alloc@std@@8
rdata$r	ENDS
;	COMDAT ??_R2bad_alloc@std@@8
rdata$r	SEGMENT
??_R2bad_alloc@std@@8 DD FLAT:??_R1A@?0A@EA@bad_alloc@std@@8 ; std::bad_alloc::`RTTI Base Class Array'
	DD	FLAT:??_R1A@?0A@EA@exception@std@@8
rdata$r	ENDS
;	COMDAT ??_R3bad_alloc@std@@8
rdata$r	SEGMENT
??_R3bad_alloc@std@@8 DD 00H				; std::bad_alloc::`RTTI Class Hierarchy Descriptor'
	DD	00H
	DD	02H
	DD	FLAT:??_R2bad_alloc@std@@8
rdata$r	ENDS
;	COMDAT ??_R4bad_alloc@std@@6B@
rdata$r	SEGMENT
??_R4bad_alloc@std@@6B@ DD 00H				; std::bad_alloc::`RTTI Complete Object Locator'
	DD	00H
	DD	00H
	DD	FLAT:??_R0?AVbad_alloc@std@@@8
	DD	FLAT:??_R3bad_alloc@std@@8
rdata$r	ENDS
;	COMDAT ??_R1A@?0A@EA@exception@std@@8
rdata$r	SEGMENT
??_R1A@?0A@EA@exception@std@@8 DD FLAT:??_R0?AVexception@std@@@8 ; std::exception::`RTTI Base Class Descriptor at (0,-1,0,64)'
	DD	00H
	DD	00H
	DD	0ffffffffH
	DD	00H
	DD	040H
	DD	FLAT:??_R3exception@std@@8
rdata$r	ENDS
;	COMDAT ??_R2exception@std@@8
rdata$r	SEGMENT
??_R2exception@std@@8 DD FLAT:??_R1A@?0A@EA@exception@std@@8 ; std::exception::`RTTI Base Class Array'
rdata$r	ENDS
;	COMDAT ??_R3exception@std@@8
rdata$r	SEGMENT
??_R3exception@std@@8 DD 00H				; std::exception::`RTTI Class Hierarchy Descriptor'
	DD	00H
	DD	01H
	DD	FLAT:??_R2exception@std@@8
rdata$r	ENDS
;	COMDAT ??_R4exception@std@@6B@
rdata$r	SEGMENT
??_R4exception@std@@6B@ DD 00H				; std::exception::`RTTI Complete Object Locator'
	DD	00H
	DD	00H
	DD	FLAT:??_R0?AVexception@std@@@8
	DD	FLAT:??_R3exception@std@@8
rdata$r	ENDS
;	COMDAT __CT??_R0?AVexception@std@@@8??0exception@std@@QAE@ABV01@@Z12
xdata$x	SEGMENT
__CT??_R0?AVexception@std@@@8??0exception@std@@QAE@ABV01@@Z12 DD 00H
	DD	FLAT:??_R0?AVexception@std@@@8
	DD	00H
	DD	0ffffffffH
	ORG $+4
	DD	0cH
	DD	FLAT:??0exception@std@@QAE@ABV01@@Z
xdata$x	ENDS
;	COMDAT ??_R0?AVexception@std@@@8
data$r	SEGMENT
??_R0?AVexception@std@@@8 DD FLAT:??_7type_info@@6B@	; std::exception `RTTI Type Descriptor'
	DD	00H
	DB	'.?AVexception@std@@', 00H
data$r	ENDS
;	COMDAT __CT??_R0?AVbad_alloc@std@@@8??0bad_alloc@std@@QAE@ABV01@@Z12
xdata$x	SEGMENT
__CT??_R0?AVbad_alloc@std@@@8??0bad_alloc@std@@QAE@ABV01@@Z12 DD 010H
	DD	FLAT:??_R0?AVbad_alloc@std@@@8
	DD	00H
	DD	0ffffffffH
	ORG $+4
	DD	0cH
	DD	FLAT:??0bad_alloc@std@@QAE@ABV01@@Z
xdata$x	ENDS
;	COMDAT ??_R0?AVbad_alloc@std@@@8
data$r	SEGMENT
??_R0?AVbad_alloc@std@@@8 DD FLAT:??_7type_info@@6B@	; std::bad_alloc `RTTI Type Descriptor'
	DD	00H
	DB	'.?AVbad_alloc@std@@', 00H
data$r	ENDS
;	COMDAT __CT??_R0?AVbad_array_new_length@std@@@8??0bad_array_new_length@std@@QAE@ABV01@@Z12
xdata$x	SEGMENT
__CT??_R0?AVbad_array_new_length@std@@@8??0bad_array_new_length@std@@QAE@ABV01@@Z12 DD 00H
	DD	FLAT:??_R0?AVbad_array_new_length@std@@@8
	DD	00H
	DD	0ffffffffH
	ORG $+4
	DD	0cH
	DD	FLAT:??0bad_array_new_length@std@@QAE@ABV01@@Z
xdata$x	ENDS
;	COMDAT ??_R0?AVbad_array_new_length@std@@@8
data$r	SEGMENT
??_R0?AVbad_array_new_length@std@@@8 DD FLAT:??_7type_info@@6B@ ; std::bad_array_new_length `RTTI Type Descriptor'
	DD	00H
	DB	'.?AVbad_array_new_length@std@@', 00H
data$r	ENDS
;	COMDAT __CTA3?AVbad_array_new_length@std@@
xdata$x	SEGMENT
__CTA3?AVbad_array_new_length@std@@ DD 03H
	DD	FLAT:__CT??_R0?AVbad_array_new_length@std@@@8??0bad_array_new_length@std@@QAE@ABV01@@Z12
	DD	FLAT:__CT??_R0?AVbad_alloc@std@@@8??0bad_alloc@std@@QAE@ABV01@@Z12
	DD	FLAT:__CT??_R0?AVexception@std@@@8??0exception@std@@QAE@ABV01@@Z12
xdata$x	ENDS
;	COMDAT __TI3?AVbad_array_new_length@std@@
xdata$x	SEGMENT
__TI3?AVbad_array_new_length@std@@ DD 00H
	DD	FLAT:??1bad_array_new_length@std@@UAE@XZ
	DD	00H
	DD	FLAT:__CTA3?AVbad_array_new_length@std@@
xdata$x	ENDS
;	COMDAT ??_C@_0BF@KINCDENJ@bad?5array?5new?5length@
CONST	SEGMENT
??_C@_0BF@KINCDENJ@bad?5array?5new?5length@ DB 'bad array new length', 00H ; `string'
CONST	ENDS
;	COMDAT ??_7bad_array_new_length@std@@6B@
CONST	SEGMENT
??_7bad_array_new_length@std@@6B@ DD FLAT:??_R4bad_array_new_length@std@@6B@ ; std::bad_array_new_length::`vftable'
	DD	FLAT:??_Ebad_array_new_length@std@@UAEPAXI@Z
	DD	FLAT:?what@exception@std@@UBEPBDXZ
CONST	ENDS
;	COMDAT ??_7bad_alloc@std@@6B@
CONST	SEGMENT
??_7bad_alloc@std@@6B@ DD FLAT:??_R4bad_alloc@std@@6B@	; std::bad_alloc::`vftable'
	DD	FLAT:??_Ebad_alloc@std@@UAEPAXI@Z
	DD	FLAT:?what@exception@std@@UBEPBDXZ
CONST	ENDS
;	COMDAT ??_C@_0BC@EOODALEL@Unknown?5exception@
CONST	SEGMENT
??_C@_0BC@EOODALEL@Unknown?5exception@ DB 'Unknown exception', 00H ; `string'
CONST	ENDS
;	COMDAT ??_7exception@std@@6B@
CONST	SEGMENT
??_7exception@std@@6B@ DD FLAT:??_R4exception@std@@6B@	; std::exception::`vftable'
	DD	FLAT:??_Eexception@std@@UAEPAXI@Z
	DD	FLAT:?what@exception@std@@UBEPBDXZ
CONST	ENDS
;	COMDAT xdata$x
xdata$x	SEGMENT
__unwindtable$??$for_each@V?$_Vector_iterator@V?$_Vector_val@U?$_Simple_types@PAVCArea@@@std@@@std@@@std@@UFPushAreaToDeleteVector@CMapOutdoor@@@std@@YA?AUFPushAreaToDeleteVector@CMapOutdoor@@V?$_Vector_iterator@V?$_Vector_val@U?$_Simple_types@PAVCArea@@@std@@@std@@@0@0U12@@Z DD 0ffffffffH
	DD	FLAT:__unwindfunclet$??$for_each@V?$_Vector_iterator@V?$_Vector_val@U?$_Simple_types@PAVCArea@@@std@@@std@@@std@@UFPushAreaToDeleteVector@CMapOutdoor@@@std@@YA?AUFPushAreaToDeleteVector@CMapOutdoor@@V?$_Vector_iterator@V?$_Vector_val@U?$_Simple_types@PAVCArea@@@std@@@std@@@0@0U12@@Z$0
__ehfuncinfo$??$for_each@V?$_Vector_iterator@V?$_Vector_val@U?$_Simple_types@PAVCArea@@@std@@@std@@@std@@UFPushAreaToDeleteVector@CMapOutdoor@@@std@@YA?AUFPushAreaToDeleteVector@CMapOutdoor@@V?$_Vector_iterator@V?$_Vector_val@U?$_Simple_types@PAVCArea@@@std@@@std@@@0@0U12@@Z DD 019930522H
	DD	01H
	DD	FLAT:__unwindtable$??$for_each@V?$_Vector_iterator@V?$_Vector_val@U?$_Simple_types@PAVCArea@@@std@@@std@@@std@@UFPushAreaToDeleteVector@CMapOutdoor@@@std@@YA?AUFPushAreaToDeleteVector@CMapOutdoor@@V?$_Vector_iterator@V?$_Vector_val@U?$_Simple_types@PAVCArea@@@std@@@std@@@0@0U12@@Z
	DD	2 DUP(00H)
	DD	2 DUP(00H)
	DD	00H
	DD	01H
xdata$x	ENDS
;	COMDAT xdata$x
xdata$x	SEGMENT
__unwindtable$??$for_each@V?$_Vector_iterator@V?$_Vector_val@U?$_Simple_types@PAVCTerrain@@@std@@@std@@@std@@UFPushTerrainToDeleteVector@CMapOutdoor@@@std@@YA?AUFPushTerrainToDeleteVector@CMapOutdoor@@V?$_Vector_iterator@V?$_Vector_val@U?$_Simple_types@PAVCTerrain@@@std@@@std@@@0@0U12@@Z DD 0ffffffffH
	DD	FLAT:__unwindfunclet$??$for_each@V?$_Vector_iterator@V?$_Vector_val@U?$_Simple_types@PAVCTerrain@@@std@@@std@@@std@@UFPushTerrainToDeleteVector@CMapOutdoor@@@std@@YA?AUFPushTerrainToDeleteVector@CMapOutdoor@@V?$_Vector_iterator@V?$_Vector_val@U?$_Simple_types@PAVCTerrain@@@std@@@std@@@0@0U12@@Z$0
__ehfuncinfo$??$for_each@V?$_Vector_iterator@V?$_Vector_val@U?$_Simple_types@PAVCTerrain@@@std@@@std@@@std@@UFPushTerrainToDeleteVector@CMapOutdoor@@@std@@YA?AUFPushTerrainToDeleteVector@CMapOutdoor@@V?$_Vector_iterator@V?$_Vector_val@U?$_Simple_types@PAVCTerrain@@@std@@@std@@@0@0U12@@Z DD 019930522H
	DD	01H
	DD	FLAT:__unwindtable$??$for_each@V?$_Vector_iterator@V?$_Vector_val@U?$_Simple_types@PAVCTerrain@@@std@@@std@@@std@@UFPushTerrainToDeleteVector@CMapOutdoor@@@std@@YA?AUFPushTerrainToDeleteVector@CMapOutdoor@@V?$_Vector_iterator@V?$_Vector_val@U?$_Simple_types@PAVCTerrain@@@std@@@std@@@0@0U12@@Z
	DD	2 DUP(00H)
	DD	2 DUP(00H)
	DD	00H
	DD	01H
xdata$x	ENDS
;	COMDAT xdata$x
xdata$x	SEGMENT
__unwindtable$??$ForInRange@UFGetShadowReceiverFromCollisionData@@@CCullingManager@@QAEXABVVector3d@@MPAUFGetShadowReceiverFromCollisionData@@@Z DD 0ffffffffH
	DD	FLAT:__unwindfunclet$??$ForInRange@UFGetShadowReceiverFromCollisionData@@@CCullingManager@@QAEXABVVector3d@@MPAUFGetShadowReceiverFromCollisionData@@@Z$0
__ehfuncinfo$??$ForInRange@UFGetShadowReceiverFromCollisionData@@@CCullingManager@@QAEXABVVector3d@@MPAUFGetShadowReceiverFromCollisionData@@@Z DD 019930522H
	DD	01H
	DD	FLAT:__unwindtable$??$ForInRange@UFGetShadowReceiverFromCollisionData@@@CCullingManager@@QAEXABVVector3d@@MPAUFGetShadowReceiverFromCollisionData@@@Z
	DD	2 DUP(00H)
	DD	2 DUP(00H)
	DD	00H
	DD	01H
xdata$x	ENDS
;	COMDAT xdata$x
xdata$x	SEGMENT
__unwindtable$??$ForInRange@UFGetShadowReceiverFromHeightData@@@CCullingManager@@QAEXABVVector3d@@MPAUFGetShadowReceiverFromHeightData@@@Z DD 0ffffffffH
	DD	FLAT:__unwindfunclet$??$ForInRange@UFGetShadowReceiverFromHeightData@@@CCullingManager@@QAEXABVVector3d@@MPAUFGetShadowReceiverFromHeightData@@@Z$0
__ehfuncinfo$??$ForInRange@UFGetShadowReceiverFromHeightData@@@CCullingManager@@QAEXABVVector3d@@MPAUFGetShadowReceiverFromHeightData@@@Z DD 019930522H
	DD	01H
	DD	FLAT:__unwindtable$??$ForInRange@UFGetShadowReceiverFromHeightData@@@CCullingManager@@QAEXABVVector3d@@MPAUFGetShadowReceiverFromHeightData@@@Z
	DD	2 DUP(00H)
	DD	2 DUP(00H)
	DD	00H
	DD	01H
xdata$x	ENDS
;	COMDAT xdata$x
xdata$x	SEGMENT
__unwindtable$?__CollectCollisionShadowReceiver@CMapOutdoor@@IAEXAAUD3DXVECTOR3@@0@Z DD 0ffffffffH
	DD	FLAT:__unwindfunclet$?__CollectCollisionShadowReceiver@CMapOutdoor@@IAEXAAUD3DXVECTOR3@@0@Z$0
	DD	00H
	DD	FLAT:__unwindfunclet$?__CollectCollisionShadowReceiver@CMapOutdoor@@IAEXAAUD3DXVECTOR3@@0@Z$1
__ehfuncinfo$?__CollectCollisionShadowReceiver@CMapOutdoor@@IAEXAAUD3DXVECTOR3@@0@Z DD 019930522H
	DD	02H
	DD	FLAT:__unwindtable$?__CollectCollisionShadowReceiver@CMapOutdoor@@IAEXAAUD3DXVECTOR3@@0@Z
	DD	2 DUP(00H)
	DD	2 DUP(00H)
	DD	00H
	DD	01H
xdata$x	ENDS
;	COMDAT xdata$x
xdata$x	SEGMENT
__unwindtable$?__CollectCollisionPCBlocker@CMapOutdoor@@IAEXAAUD3DXVECTOR3@@0M@Z DD 0ffffffffH
	DD	FLAT:__unwindfunclet$?__CollectCollisionPCBlocker@CMapOutdoor@@IAEXAAUD3DXVECTOR3@@0M@Z$0
__ehfuncinfo$?__CollectCollisionPCBlocker@CMapOutdoor@@IAEXAAUD3DXVECTOR3@@0M@Z DD 019930522H
	DD	01H
	DD	FLAT:__unwindtable$?__CollectCollisionPCBlocker@CMapOutdoor@@IAEXAAUD3DXVECTOR3@@0M@Z
	DD	2 DUP(00H)
	DD	2 DUP(00H)
	DD	00H
	DD	01H
xdata$x	ENDS
;	COMDAT xdata$x
xdata$x	SEGMENT
__unwindtable$?__CollectShadowReceiver@CMapOutdoor@@IAEXAAUD3DXVECTOR3@@0@Z DD 0ffffffffH
	DD	FLAT:__unwindfunclet$?__CollectShadowReceiver@CMapOutdoor@@IAEXAAUD3DXVECTOR3@@0@Z$0
__ehfuncinfo$?__CollectShadowReceiver@CMapOutdoor@@IAEXAAUD3DXVECTOR3@@0@Z DD 019930522H
	DD	01H
	DD	FLAT:__unwindtable$?__CollectShadowReceiver@CMapOutdoor@@IAEXAAUD3DXVECTOR3@@0@Z
	DD	2 DUP(00H)
	DD	2 DUP(00H)
	DD	00H
	DD	01H
xdata$x	ENDS
;	COMDAT xdata$x
xdata$x	SEGMENT
__unwindtable$?UpdateAreaList@CMapOutdoor@@MAEXJJ@Z DD 0ffffffffH
	DD	FLAT:__unwindfunclet$?UpdateAreaList@CMapOutdoor@@MAEXJJ@Z$4
	DD	0ffffffffH
	DD	FLAT:__unwindfunclet$?UpdateAreaList@CMapOutdoor@@MAEXJJ@Z$1
	DD	01H
	DD	FLAT:__unwindfunclet$?UpdateAreaList@CMapOutdoor@@MAEXJJ@Z$8
	DD	01H
	DD	FLAT:__unwindfunclet$?UpdateAreaList@CMapOutdoor@@MAEXJJ@Z$3
__ehfuncinfo$?UpdateAreaList@CMapOutdoor@@MAEXJJ@Z DD 019930522H
	DD	04H
	DD	FLAT:__unwindtable$?UpdateAreaList@CMapOutdoor@@MAEXJJ@Z
	DD	2 DUP(00H)
	DD	2 DUP(00H)
	DD	00H
	DD	01H
xdata$x	ENDS
;	COMDAT xdata$x
xdata$x	SEGMENT
__unwindtable$?__UpdateGarvage@CMapOutdoor@@MAEXXZ DD 0ffffffffH
	DD	FLAT:__unwindfunclet$?__UpdateGarvage@CMapOutdoor@@MAEXXZ$0
__ehfuncinfo$?__UpdateGarvage@CMapOutdoor@@MAEXXZ DD 019930522H
	DD	01H
	DD	FLAT:__unwindtable$?__UpdateGarvage@CMapOutdoor@@MAEXXZ
	DD	2 DUP(00H)
	DD	2 DUP(00H)
	DD	00H
	DD	01H
xdata$x	ENDS
;	COMDAT CRT$XCU
CRT$XCU	SEGMENT
??ms_kPool$initializer$@?$CPooledObject@VCNullDecorator@NEffectUpdateDecorator@@@@1P6AXXZA@@3P6AXXZA DD FLAT:??__E?ms_kPool@?$CPooledObject@VCNullDecorator@NEffectUpdateDecorator@@@@1V?$CDynamicPoolEx@VCNullDecorator@NEffectUpdateDecorator@@@@A@@YAXXZ ; ??ms_kPool$initializer$@?$CPooledObject@VCNullDecorator@NEffectUpdateDecorator@@@@1P6AXXZA@@3P6AXXZA
CRT$XCU	ENDS
;	COMDAT CRT$XCU
CRT$XCU	SEGMENT
??ms_kPool$initializer$@?$CPooledObject@VCTextureAnimationCWDecorator@NEffectUpdateDecorator@@@@1P6AXXZA@@3P6AXXZA DD FLAT:??__E?ms_kPool@?$CPooledObject@VCTextureAnimationCWDecorator@NEffectUpdateDecorator@@@@1V?$CDynamicPoolEx@VCTextureAnimationCWDecorator@NEffectUpdateDecorator@@@@A@@YAXXZ ; ??ms_kPool$initializer$@?$CPooledObject@VCTextureAnimationCWDecorator@NEffectUpdateDecorator@@@@1P6AXXZA@@3P6AXXZA
CRT$XCU	ENDS
;	COMDAT CRT$XCU
CRT$XCU	SEGMENT
??ms_kPool$initializer$@?$CPooledObject@VCTextureAnimationCCWDecorator@NEffectUpdateDecorator@@@@1P6AXXZA@@3P6AXXZA DD FLAT:??__E?ms_kPool@?$CPooledObject@VCTextureAnimationCCWDecorator@NEffectUpdateDecorator@@@@1V?$CDynamicPoolEx@VCTextureAnimationCCWDecorator@NEffectUpdateDecorator@@@@A@@YAXXZ ; ??ms_kPool$initializer$@?$CPooledObject@VCTextureAnimationCCWDecorator@NEffectUpdateDecorator@@@@1P6AXXZA@@3P6AXXZA
CRT$XCU	ENDS
;	COMDAT CRT$XCU
CRT$XCU	SEGMENT
??ms_kPool$initializer$@?$CPooledObject@VCTextureAnimationRandomDecorator@NEffectUpdateDecorator@@@@1P6AXXZA@@3P6AXXZA DD FLAT:??__E?ms_kPool@?$CPooledObject@VCTextureAnimationRandomDecorator@NEffectUpdateDecorator@@@@1V?$CDynamicPoolEx@VCTextureAnimationRandomDecorator@NEffectUpdateDecorator@@@@A@@YAXXZ ; ??ms_kPool$initializer$@?$CPooledObject@VCTextureAnimationRandomDecorator@NEffectUpdateDecorator@@@@1P6AXXZA@@3P6AXXZA
CRT$XCU	ENDS
;	COMDAT CRT$XCU
CRT$XCU	SEGMENT
??ms_kPool$initializer$@?$CPooledObject@VCAirResistanceDecorator@NEffectUpdateDecorator@@@@1P6AXXZA@@3P6AXXZA DD FLAT:??__E?ms_kPool@?$CPooledObject@VCAirResistanceDecorator@NEffectUpdateDecorator@@@@1V?$CDynamicPoolEx@VCAirResistanceDecorator@NEffectUpdateDecorator@@@@A@@YAXXZ ; ??ms_kPool$initializer$@?$CPooledObject@VCAirResistanceDecorator@NEffectUpdateDecorator@@@@1P6AXXZA@@3P6AXXZA
CRT$XCU	ENDS
;	COMDAT CRT$XCU
CRT$XCU	SEGMENT
??ms_kPool$initializer$@?$CPooledObject@VCGravityDecorator@NEffectUpdateDecorator@@@@1P6AXXZA@@3P6AXXZA DD FLAT:??__E?ms_kPool@?$CPooledObject@VCGravityDecorator@NEffectUpdateDecorator@@@@1V?$CDynamicPoolEx@VCGravityDecorator@NEffectUpdateDecorator@@@@A@@YAXXZ ; ??ms_kPool$initializer$@?$CPooledObject@VCGravityDecorator@NEffectUpdateDecorator@@@@1P6AXXZA@@3P6AXXZA
CRT$XCU	ENDS
;	COMDAT CRT$XCU
CRT$XCU	SEGMENT
??ms_kPool$initializer$@?$CPooledObject@VCRotationDecorator@NEffectUpdateDecorator@@@@1P6AXXZA@@3P6AXXZA DD FLAT:??__E?ms_kPool@?$CPooledObject@VCRotationDecorator@NEffectUpdateDecorator@@@@1V?$CDynamicPoolEx@VCRotationDecorator@NEffectUpdateDecorator@@@@A@@YAXXZ ; ??ms_kPool$initializer$@?$CPooledObject@VCRotationDecorator@NEffectUpdateDecorator@@@@1P6AXXZA@@3P6AXXZA
CRT$XCU	ENDS
; Function compile flags: /Ogtp
; File C:\Program Files (x86)\Microsoft Visual Studio\2019\Community\VC\Tools\MSVC\14.27.29110\include\algorithm
; File C:\Program Files (x86)\Microsoft Visual Studio\2019\Community\VC\Tools\MSVC\14.27.29110\include\xutility
; File C:\Program Files (x86)\Microsoft Visual Studio\2019\Community\VC\Tools\MSVC\14.27.29110\include\algorithm
; File C:\Program Files (x86)\Microsoft Visual Studio\2019\Community\VC\Tools\MSVC\14.27.29110\include\xutility
; File C:\Program Files (x86)\Microsoft Visual Studio\2019\Community\VC\Tools\MSVC\14.27.29110\include\algorithm
; File C:\DS Project\DS Files\Source\ClientSource\Client\GameLib\MapOutdoorUpdate.cpp
; File C:\Program Files (x86)\Microsoft Visual Studio\2019\Community\VC\Tools\MSVC\14.27.29110\include\xutility
; File C:\DS Project\DS Files\Source\ClientSource\Client\GameLib\MapOutdoorUpdate.cpp
; File C:\DS Project\DS Files\Source\ClientSource\extern\include\d3dx8math.inl
; File C:\DS Project\DS Files\Source\ClientSource\Client\GameLib\MapOutdoorUpdate.cpp
; File C:\DS Project\DS Files\Source\ClientSource\extern\include\d3dx8math.inl
; File C:\DS Project\DS Files\Source\ClientSource\Client\GameLib\MapOutdoorUpdate.cpp
; File C:\DS Project\DS Files\Source\ClientSource\extern\include\d3dx8math.inl
; File C:\DS Project\DS Files\Source\ClientSource\Client\GameLib\MapOutdoorUpdate.cpp
; File C:\Program Files (x86)\Microsoft Visual Studio\2019\Community\VC\Tools\MSVC\14.27.29110\include\algorithm
; File C:\Program Files (x86)\Microsoft Visual Studio\2019\Community\VC\Tools\MSVC\14.27.29110\include\utility
; File C:\DS Project\DS Files\Source\ClientSource\Client\GameLib\MapOutdoorUpdate.cpp
; File C:\Program Files (x86)\Microsoft Visual Studio\2019\Community\VC\Tools\MSVC\14.27.29110\include\xutility
; File C:\DS Project\DS Files\Source\ClientSource\Client\GameLib\MapOutdoorUpdate.cpp
; File C:\DS Project\DS Files\Source\ClientSource\extern\include\d3dx8math.inl
; File C:\DS Project\DS Files\Source\ClientSource\Client\GameLib\MapOutdoorUpdate.cpp
; File C:\DS Project\DS Files\Source\ClientSource\extern\include\d3dx8math.inl
; File C:\DS Project\DS Files\Source\ClientSource\Client\GameLib\MapOutdoorUpdate.cpp
; File C:\DS Project\DS Files\Source\ClientSource\extern\include\d3dx8math.inl
; File C:\DS Project\DS Files\Source\ClientSource\Client\GameLib\MapOutdoorUpdate.cpp
; File C:\Program Files (x86)\Microsoft Visual Studio\2019\Community\VC\Tools\MSVC\14.27.29110\include\algorithm
; File C:\Program Files (x86)\Microsoft Visual Studio\2019\Community\VC\Tools\MSVC\14.27.29110\include\utility
; File C:\Program Files (x86)\Microsoft Visual Studio\2019\Community\VC\Tools\MSVC\14.27.29110\include\xutility
; File C:\Program Files (x86)\Microsoft Visual Studio\2019\Community\VC\Tools\MSVC\14.27.29110\include\utility
; File C:\Program Files (x86)\Microsoft Visual Studio\2019\Community\VC\Tools\MSVC\14.27.29110\include\xutility
; File C:\Program Files (x86)\Microsoft Visual Studio\2019\Community\VC\Tools\MSVC\14.27.29110\include\utility
; File C:\Program Files (x86)\Microsoft Visual Studio\2019\Community\VC\Tools\MSVC\14.27.29110\include\xutility
; File C:\DS Project\DS Files\Source\ClientSource\Client\GameLib\MapOutdoorUpdate.cpp
; File C:\DS Project\DS Files\Source\ClientSource\extern\include\d3dx8math.inl
; File C:\DS Project\DS Files\Source\ClientSource\Client\GameLib\MapOutdoorUpdate.cpp
; File C:\DS Project\DS Files\Source\ClientSource\extern\include\d3dx8math.inl
; File C:\DS Project\DS Files\Source\ClientSource\Client\GameLib\MapOutdoorUpdate.cpp
; File C:\DS Project\DS Files\Source\ClientSource\extern\include\d3dx8math.inl
; File C:\DS Project\DS Files\Source\ClientSource\Client\GameLib\MapOutdoorUpdate.cpp
; File C:\Program Files (x86)\Microsoft Visual Studio\2019\Community\VC\Tools\MSVC\14.27.29110\include\algorithm
; File C:\Program Files (x86)\Microsoft Visual Studio\2019\Community\VC\Tools\MSVC\14.27.29110\include\utility
; File C:\Program Files (x86)\Microsoft Visual Studio\2019\Community\VC\Tools\MSVC\14.27.29110\include\algorithm
;	COMDAT ??$_Med3_unchecked@PAPAVCGraphicObjectInstance@@U?$_Ref_fn@UFPCBlockerDistanceSort@@@std@@@std@@YAXPAPAVCGraphicObjectInstance@@00U?$_Ref_fn@UFPCBlockerDistanceSort@@@0@@Z
_TEXT	SEGMENT
tv1254 = -8						; size = 4
tv1238 = -8						; size = 4
tv1225 = -8						; size = 4
tv1239 = -4						; size = 4
tv1224 = -4						; size = 4
__First$ = 8						; size = 4
tv1253 = 12						; size = 4
tv1244 = 12						; size = 4
tv1229 = 12						; size = 4
__Mid$ = 12						; size = 4
tv1258 = 16						; size = 4
__Last$ = 16						; size = 4
__Pred$ = 20						; size = 4
??$_Med3_unchecked@PAPAVCGraphicObjectInstance@@U?$_Ref_fn@UFPCBlockerDistanceSort@@@std@@@std@@YAXPAPAVCGraphicObjectInstance@@00U?$_Ref_fn@UFPCBlockerDistanceSort@@@0@@Z PROC ; std::_Med3_unchecked<CGraphicObjectInstance * *,std::_Ref_fn<FPCBlockerDistanceSort> >, COMDAT

; 4003 : _CONSTEXPR20 void _Med3_unchecked(_RanIt _First, _RanIt _Mid, _RanIt _Last, _Pr _Pred) {

  00000	55		 push	 ebp
  00001	8b ec		 mov	 ebp, esp
  00003	83 ec 08	 sub	 esp, 8
  00006	53		 push	 ebx
; File C:\Program Files (x86)\Microsoft Visual Studio\2019\Community\VC\Tools\MSVC\14.27.29110\include\xutility

; 193  :         return _Fn(_STD forward<_Args>(_Vals)...);

  00007	8b 5d 0c	 mov	 ebx, DWORD PTR __Mid$[ebp]
; File C:\Program Files (x86)\Microsoft Visual Studio\2019\Community\VC\Tools\MSVC\14.27.29110\include\algorithm

; 4003 : _CONSTEXPR20 void _Med3_unchecked(_RanIt _First, _RanIt _Mid, _RanIt _Last, _Pr _Pred) {

  0000a	56		 push	 esi
; File C:\Program Files (x86)\Microsoft Visual Studio\2019\Community\VC\Tools\MSVC\14.27.29110\include\xutility

; 193  :         return _Fn(_STD forward<_Args>(_Vals)...);

  0000b	8b 75 08	 mov	 esi, DWORD PTR __First$[ebp]
; File C:\Program Files (x86)\Microsoft Visual Studio\2019\Community\VC\Tools\MSVC\14.27.29110\include\algorithm

; 4003 : _CONSTEXPR20 void _Med3_unchecked(_RanIt _First, _RanIt _Mid, _RanIt _Last, _Pr _Pred) {

  0000e	57		 push	 edi
; File C:\DS Project\DS Files\Source\ClientSource\Client\GameLib\MapOutdoorUpdate.cpp

; 197  : 		return D3DXVec3LengthSq(&(plhs->GetPosition() - m_v3Eye)) > D3DXVec3LengthSq(&(prhs->GetPosition() - m_v3Eye));

  0000f	8b 0b		 mov	 ecx, DWORD PTR [ebx]
; File C:\Program Files (x86)\Microsoft Visual Studio\2019\Community\VC\Tools\MSVC\14.27.29110\include\xutility

; 193  :         return _Fn(_STD forward<_Args>(_Vals)...);

  00011	8b 7d 14	 mov	 edi, DWORD PTR __Pred$[ebp]
  00014	8b 36		 mov	 esi, DWORD PTR [esi]
; File C:\DS Project\DS Files\Source\ClientSource\Client\GameLib\MapOutdoorUpdate.cpp

; 197  : 		return D3DXVec3LengthSq(&(plhs->GetPosition() - m_v3Eye)) > D3DXVec3LengthSq(&(prhs->GetPosition() - m_v3Eye));

  00016	e8 00 00 00 00	 call	 ?GetPosition@CGraphicObjectInstance@@QBEABUD3DXVECTOR3@@XZ ; CGraphicObjectInstance::GetPosition
  0001b	8b ce		 mov	 ecx, esi
; File C:\DS Project\DS Files\Source\ClientSource\extern\include\d3dx8math.inl

; 263  :     return D3DXVECTOR3(x - v.x, y - v.y, z - v.z);

  0001d	f3 0f 10 00	 movss	 xmm0, DWORD PTR [eax]
  00021	f3 0f 5c 07	 subss	 xmm0, DWORD PTR [edi]
  00025	f3 0f 11 45 fc	 movss	 DWORD PTR tv1224[ebp], xmm0
  0002a	f3 0f 10 40 04	 movss	 xmm0, DWORD PTR [eax+4]
  0002f	f3 0f 5c 47 04	 subss	 xmm0, DWORD PTR [edi+4]
  00034	f3 0f 11 45 0c	 movss	 DWORD PTR tv1229[ebp], xmm0
  00039	f3 0f 10 40 08	 movss	 xmm0, DWORD PTR [eax+8]
  0003e	f3 0f 5c 47 08	 subss	 xmm0, DWORD PTR [edi+8]
  00043	f3 0f 11 45 f8	 movss	 DWORD PTR tv1225[ebp], xmm0
; File C:\DS Project\DS Files\Source\ClientSource\Client\GameLib\MapOutdoorUpdate.cpp

; 197  : 		return D3DXVec3LengthSq(&(plhs->GetPosition() - m_v3Eye)) > D3DXVec3LengthSq(&(prhs->GetPosition() - m_v3Eye));

  00048	e8 00 00 00 00	 call	 ?GetPosition@CGraphicObjectInstance@@QBEABUD3DXVECTOR3@@XZ ; CGraphicObjectInstance::GetPosition
; File C:\DS Project\DS Files\Source\ClientSource\extern\include\d3dx8math.inl

; 182  :     z = fz;

  0004d	f3 0f 10 55 fc	 movss	 xmm2, DWORD PTR tv1224[ebp]

; 1253 :     return pV->x * pV->x + pV->y * pV->y + pV->z * pV->z;

  00052	f3 0f 10 65 0c	 movss	 xmm4, DWORD PTR tv1229[ebp]

; 182  :     z = fz;

  00057	f3 0f 59 d2	 mulss	 xmm2, xmm2

; 263  :     return D3DXVECTOR3(x - v.x, y - v.y, z - v.z);

  0005b	f3 0f 10 08	 movss	 xmm1, DWORD PTR [eax]
  0005f	f3 0f 10 58 04	 movss	 xmm3, DWORD PTR [eax+4]
  00064	f3 0f 5c 5f 04	 subss	 xmm3, DWORD PTR [edi+4]
  00069	f3 0f 5c 0f	 subss	 xmm1, DWORD PTR [edi]
  0006d	f3 0f 10 40 08	 movss	 xmm0, DWORD PTR [eax+8]
  00072	f3 0f 5c 47 08	 subss	 xmm0, DWORD PTR [edi+8]

; 1253 :     return pV->x * pV->x + pV->y * pV->y + pV->z * pV->z;

  00077	f3 0f 59 e4	 mulss	 xmm4, xmm4
  0007b	f3 0f 59 db	 mulss	 xmm3, xmm3
; File C:\DS Project\DS Files\Source\ClientSource\Client\GameLib\MapOutdoorUpdate.cpp

; 197  : 		return D3DXVec3LengthSq(&(plhs->GetPosition() - m_v3Eye)) > D3DXVec3LengthSq(&(prhs->GetPosition() - m_v3Eye));

  0007f	f3 0f 59 c9	 mulss	 xmm1, xmm1
; File C:\DS Project\DS Files\Source\ClientSource\extern\include\d3dx8math.inl

; 1253 :     return pV->x * pV->x + pV->y * pV->y + pV->z * pV->z;

  00083	f3 0f 58 e2	 addss	 xmm4, xmm2
  00087	f3 0f 10 55 f8	 movss	 xmm2, DWORD PTR tv1225[ebp]
  0008c	f3 0f 59 d2	 mulss	 xmm2, xmm2
  00090	f3 0f 58 d9	 addss	 xmm3, xmm1
  00094	f3 0f 59 c0	 mulss	 xmm0, xmm0
  00098	f3 0f 58 e2	 addss	 xmm4, xmm2
  0009c	f3 0f 58 d8	 addss	 xmm3, xmm0
; File C:\DS Project\DS Files\Source\ClientSource\Client\GameLib\MapOutdoorUpdate.cpp

; 197  : 		return D3DXVec3LengthSq(&(plhs->GetPosition() - m_v3Eye)) > D3DXVec3LengthSq(&(prhs->GetPosition() - m_v3Eye));

  000a0	0f 2f e3	 comiss	 xmm4, xmm3
; File C:\Program Files (x86)\Microsoft Visual Studio\2019\Community\VC\Tools\MSVC\14.27.29110\include\algorithm

; 4005 :     if (_DEBUG_LT_PRED(_Pred, *_Mid, *_First)) {

  000a3	76 0b		 jbe	 SHORT $LN67@Med3_unche
; File C:\Program Files (x86)\Microsoft Visual Studio\2019\Community\VC\Tools\MSVC\14.27.29110\include\utility

; 107  :     _Left    = _STD move(_Right);

  000a5	8b 55 08	 mov	 edx, DWORD PTR __First$[ebp]
  000a8	8b 0b		 mov	 ecx, DWORD PTR [ebx]
  000aa	8b 02		 mov	 eax, DWORD PTR [edx]
  000ac	89 03		 mov	 DWORD PTR [ebx], eax

; 108  :     _Right   = _STD move(_Tmp);

  000ae	89 0a		 mov	 DWORD PTR [edx], ecx
$LN67@Med3_unche:
; File C:\DS Project\DS Files\Source\ClientSource\Client\GameLib\MapOutdoorUpdate.cpp

; 197  : 		return D3DXVec3LengthSq(&(plhs->GetPosition() - m_v3Eye)) > D3DXVec3LengthSq(&(prhs->GetPosition() - m_v3Eye));

  000b0	8b 4d 10	 mov	 ecx, DWORD PTR __Last$[ebp]
; File C:\Program Files (x86)\Microsoft Visual Studio\2019\Community\VC\Tools\MSVC\14.27.29110\include\xutility

; 193  :         return _Fn(_STD forward<_Args>(_Vals)...);

  000b3	8b 33		 mov	 esi, DWORD PTR [ebx]
  000b5	8b 7d 14	 mov	 edi, DWORD PTR __Pred$[ebp]
; File C:\DS Project\DS Files\Source\ClientSource\Client\GameLib\MapOutdoorUpdate.cpp

; 197  : 		return D3DXVec3LengthSq(&(plhs->GetPosition() - m_v3Eye)) > D3DXVec3LengthSq(&(prhs->GetPosition() - m_v3Eye));

  000b8	8b 09		 mov	 ecx, DWORD PTR [ecx]
  000ba	e8 00 00 00 00	 call	 ?GetPosition@CGraphicObjectInstance@@QBEABUD3DXVECTOR3@@XZ ; CGraphicObjectInstance::GetPosition
  000bf	8b ce		 mov	 ecx, esi
; File C:\DS Project\DS Files\Source\ClientSource\extern\include\d3dx8math.inl

; 263  :     return D3DXVECTOR3(x - v.x, y - v.y, z - v.z);

  000c1	f3 0f 10 00	 movss	 xmm0, DWORD PTR [eax]
  000c5	f3 0f 5c 07	 subss	 xmm0, DWORD PTR [edi]
  000c9	f3 0f 11 45 f8	 movss	 DWORD PTR tv1238[ebp], xmm0
  000ce	f3 0f 10 40 04	 movss	 xmm0, DWORD PTR [eax+4]
  000d3	f3 0f 5c 47 04	 subss	 xmm0, DWORD PTR [edi+4]
  000d8	f3 0f 11 45 0c	 movss	 DWORD PTR tv1244[ebp], xmm0
  000dd	f3 0f 10 40 08	 movss	 xmm0, DWORD PTR [eax+8]
  000e2	f3 0f 5c 47 08	 subss	 xmm0, DWORD PTR [edi+8]
  000e7	f3 0f 11 45 fc	 movss	 DWORD PTR tv1239[ebp], xmm0
; File C:\DS Project\DS Files\Source\ClientSource\Client\GameLib\MapOutdoorUpdate.cpp

; 197  : 		return D3DXVec3LengthSq(&(plhs->GetPosition() - m_v3Eye)) > D3DXVec3LengthSq(&(prhs->GetPosition() - m_v3Eye));

  000ec	e8 00 00 00 00	 call	 ?GetPosition@CGraphicObjectInstance@@QBEABUD3DXVECTOR3@@XZ ; CGraphicObjectInstance::GetPosition
; File C:\DS Project\DS Files\Source\ClientSource\extern\include\d3dx8math.inl

; 182  :     z = fz;

  000f1	f3 0f 10 55 f8	 movss	 xmm2, DWORD PTR tv1238[ebp]

; 1253 :     return pV->x * pV->x + pV->y * pV->y + pV->z * pV->z;

  000f6	f3 0f 10 65 0c	 movss	 xmm4, DWORD PTR tv1244[ebp]

; 182  :     z = fz;

  000fb	f3 0f 59 d2	 mulss	 xmm2, xmm2

; 263  :     return D3DXVECTOR3(x - v.x, y - v.y, z - v.z);

  000ff	f3 0f 10 08	 movss	 xmm1, DWORD PTR [eax]
  00103	f3 0f 10 58 04	 movss	 xmm3, DWORD PTR [eax+4]
  00108	f3 0f 5c 5f 04	 subss	 xmm3, DWORD PTR [edi+4]
  0010d	f3 0f 5c 0f	 subss	 xmm1, DWORD PTR [edi]
  00111	f3 0f 10 40 08	 movss	 xmm0, DWORD PTR [eax+8]
  00116	f3 0f 5c 47 08	 subss	 xmm0, DWORD PTR [edi+8]

; 1253 :     return pV->x * pV->x + pV->y * pV->y + pV->z * pV->z;

  0011b	f3 0f 59 e4	 mulss	 xmm4, xmm4
  0011f	f3 0f 59 db	 mulss	 xmm3, xmm3
; File C:\DS Project\DS Files\Source\ClientSource\Client\GameLib\MapOutdoorUpdate.cpp

; 197  : 		return D3DXVec3LengthSq(&(plhs->GetPosition() - m_v3Eye)) > D3DXVec3LengthSq(&(prhs->GetPosition() - m_v3Eye));

  00123	f3 0f 59 c9	 mulss	 xmm1, xmm1
; File C:\DS Project\DS Files\Source\ClientSource\extern\include\d3dx8math.inl

; 1253 :     return pV->x * pV->x + pV->y * pV->y + pV->z * pV->z;

  00127	f3 0f 58 e2	 addss	 xmm4, xmm2
  0012b	f3 0f 10 55 fc	 movss	 xmm2, DWORD PTR tv1239[ebp]
  00130	f3 0f 59 d2	 mulss	 xmm2, xmm2
  00134	f3 0f 58 d9	 addss	 xmm3, xmm1
  00138	f3 0f 59 c0	 mulss	 xmm0, xmm0
  0013c	f3 0f 58 e2	 addss	 xmm4, xmm2
  00140	f3 0f 58 d8	 addss	 xmm3, xmm0
; File C:\DS Project\DS Files\Source\ClientSource\Client\GameLib\MapOutdoorUpdate.cpp

; 197  : 		return D3DXVec3LengthSq(&(plhs->GetPosition() - m_v3Eye)) > D3DXVec3LengthSq(&(prhs->GetPosition() - m_v3Eye));

  00144	0f 2f e3	 comiss	 xmm4, xmm3
; File C:\Program Files (x86)\Microsoft Visual Studio\2019\Community\VC\Tools\MSVC\14.27.29110\include\algorithm

; 4009 :     if (_DEBUG_LT_PRED(_Pred, *_Last, *_Mid)) { // swap middle and last, then test first again

  00147	0f 86 ad 00 00
	00		 jbe	 $LN65@Med3_unche
; File C:\Program Files (x86)\Microsoft Visual Studio\2019\Community\VC\Tools\MSVC\14.27.29110\include\utility

; 106  :     _Ty _Tmp = _STD move(_Left);

  0014d	8b 55 10	 mov	 edx, DWORD PTR __Last$[ebp]

; 107  :     _Left    = _STD move(_Right);

  00150	8b 03		 mov	 eax, DWORD PTR [ebx]
; File C:\Program Files (x86)\Microsoft Visual Studio\2019\Community\VC\Tools\MSVC\14.27.29110\include\xutility

; 193  :         return _Fn(_STD forward<_Args>(_Vals)...);

  00152	8b 7d 14	 mov	 edi, DWORD PTR __Pred$[ebp]
; File C:\Program Files (x86)\Microsoft Visual Studio\2019\Community\VC\Tools\MSVC\14.27.29110\include\utility

; 106  :     _Ty _Tmp = _STD move(_Left);

  00155	8b 0a		 mov	 ecx, DWORD PTR [edx]

; 107  :     _Left    = _STD move(_Right);

  00157	89 02		 mov	 DWORD PTR [edx], eax
; File C:\Program Files (x86)\Microsoft Visual Studio\2019\Community\VC\Tools\MSVC\14.27.29110\include\xutility

; 193  :         return _Fn(_STD forward<_Args>(_Vals)...);

  00159	8b 45 08	 mov	 eax, DWORD PTR __First$[ebp]
; File C:\Program Files (x86)\Microsoft Visual Studio\2019\Community\VC\Tools\MSVC\14.27.29110\include\utility

; 108  :     _Right   = _STD move(_Tmp);

  0015c	89 0b		 mov	 DWORD PTR [ebx], ecx
; File C:\Program Files (x86)\Microsoft Visual Studio\2019\Community\VC\Tools\MSVC\14.27.29110\include\xutility

; 193  :         return _Fn(_STD forward<_Args>(_Vals)...);

  0015e	8b 30		 mov	 esi, DWORD PTR [eax]
; File C:\DS Project\DS Files\Source\ClientSource\Client\GameLib\MapOutdoorUpdate.cpp

; 197  : 		return D3DXVec3LengthSq(&(plhs->GetPosition() - m_v3Eye)) > D3DXVec3LengthSq(&(prhs->GetPosition() - m_v3Eye));

  00160	e8 00 00 00 00	 call	 ?GetPosition@CGraphicObjectInstance@@QBEABUD3DXVECTOR3@@XZ ; CGraphicObjectInstance::GetPosition
  00165	8b ce		 mov	 ecx, esi
; File C:\DS Project\DS Files\Source\ClientSource\extern\include\d3dx8math.inl

; 263  :     return D3DXVECTOR3(x - v.x, y - v.y, z - v.z);

  00167	f3 0f 10 00	 movss	 xmm0, DWORD PTR [eax]
  0016b	f3 0f 5c 07	 subss	 xmm0, DWORD PTR [edi]
  0016f	f3 0f 11 45 0c	 movss	 DWORD PTR tv1253[ebp], xmm0
  00174	f3 0f 10 40 04	 movss	 xmm0, DWORD PTR [eax+4]
  00179	f3 0f 5c 47 04	 subss	 xmm0, DWORD PTR [edi+4]
  0017e	f3 0f 11 45 10	 movss	 DWORD PTR tv1258[ebp], xmm0
  00183	f3 0f 10 40 08	 movss	 xmm0, DWORD PTR [eax+8]
  00188	f3 0f 5c 47 08	 subss	 xmm0, DWORD PTR [edi+8]
  0018d	f3 0f 11 45 f8	 movss	 DWORD PTR tv1254[ebp], xmm0
; File C:\DS Project\DS Files\Source\ClientSource\Client\GameLib\MapOutdoorUpdate.cpp

; 197  : 		return D3DXVec3LengthSq(&(plhs->GetPosition() - m_v3Eye)) > D3DXVec3LengthSq(&(prhs->GetPosition() - m_v3Eye));

  00192	e8 00 00 00 00	 call	 ?GetPosition@CGraphicObjectInstance@@QBEABUD3DXVECTOR3@@XZ ; CGraphicObjectInstance::GetPosition
; File C:\DS Project\DS Files\Source\ClientSource\extern\include\d3dx8math.inl

; 182  :     z = fz;

  00197	f3 0f 10 55 0c	 movss	 xmm2, DWORD PTR tv1253[ebp]

; 1253 :     return pV->x * pV->x + pV->y * pV->y + pV->z * pV->z;

  0019c	f3 0f 10 65 10	 movss	 xmm4, DWORD PTR tv1258[ebp]

; 182  :     z = fz;

  001a1	f3 0f 59 d2	 mulss	 xmm2, xmm2

; 263  :     return D3DXVECTOR3(x - v.x, y - v.y, z - v.z);

  001a5	f3 0f 10 08	 movss	 xmm1, DWORD PTR [eax]
  001a9	f3 0f 10 58 04	 movss	 xmm3, DWORD PTR [eax+4]
  001ae	f3 0f 5c 5f 04	 subss	 xmm3, DWORD PTR [edi+4]
  001b3	f3 0f 5c 0f	 subss	 xmm1, DWORD PTR [edi]
  001b7	f3 0f 10 40 08	 movss	 xmm0, DWORD PTR [eax+8]
  001bc	f3 0f 5c 47 08	 subss	 xmm0, DWORD PTR [edi+8]

; 1253 :     return pV->x * pV->x + pV->y * pV->y + pV->z * pV->z;

  001c1	f3 0f 59 e4	 mulss	 xmm4, xmm4
; File C:\DS Project\DS Files\Source\ClientSource\Client\GameLib\MapOutdoorUpdate.cpp

; 197  : 		return D3DXVec3LengthSq(&(plhs->GetPosition() - m_v3Eye)) > D3DXVec3LengthSq(&(prhs->GetPosition() - m_v3Eye));

  001c5	f3 0f 59 db	 mulss	 xmm3, xmm3
; File C:\DS Project\DS Files\Source\ClientSource\extern\include\d3dx8math.inl

; 1253 :     return pV->x * pV->x + pV->y * pV->y + pV->z * pV->z;

  001c9	f3 0f 59 c9	 mulss	 xmm1, xmm1
  001cd	f3 0f 58 e2	 addss	 xmm4, xmm2
  001d1	f3 0f 10 55 f8	 movss	 xmm2, DWORD PTR tv1254[ebp]
  001d6	f3 0f 59 d2	 mulss	 xmm2, xmm2
  001da	f3 0f 58 d9	 addss	 xmm3, xmm1
  001de	f3 0f 59 c0	 mulss	 xmm0, xmm0
  001e2	f3 0f 58 e2	 addss	 xmm4, xmm2
  001e6	f3 0f 58 d8	 addss	 xmm3, xmm0
; File C:\DS Project\DS Files\Source\ClientSource\Client\GameLib\MapOutdoorUpdate.cpp

; 197  : 		return D3DXVec3LengthSq(&(plhs->GetPosition() - m_v3Eye)) > D3DXVec3LengthSq(&(prhs->GetPosition() - m_v3Eye));

  001ea	0f 2f e3	 comiss	 xmm4, xmm3
; File C:\Program Files (x86)\Microsoft Visual Studio\2019\Community\VC\Tools\MSVC\14.27.29110\include\algorithm

; 4012 :         if (_DEBUG_LT_PRED(_Pred, *_Mid, *_First)) {

  001ed	76 0b		 jbe	 SHORT $LN65@Med3_unche
; File C:\Program Files (x86)\Microsoft Visual Studio\2019\Community\VC\Tools\MSVC\14.27.29110\include\utility

; 107  :     _Left    = _STD move(_Right);

  001ef	8b 55 08	 mov	 edx, DWORD PTR __First$[ebp]
  001f2	8b 0b		 mov	 ecx, DWORD PTR [ebx]
  001f4	8b 02		 mov	 eax, DWORD PTR [edx]
  001f6	89 03		 mov	 DWORD PTR [ebx], eax

; 108  :     _Right   = _STD move(_Tmp);

  001f8	89 0a		 mov	 DWORD PTR [edx], ecx
$LN65@Med3_unche:
  001fa	5f		 pop	 edi
; File C:\Program Files (x86)\Microsoft Visual Studio\2019\Community\VC\Tools\MSVC\14.27.29110\include\algorithm

; 4016 : }

  001fb	5e		 pop	 esi
  001fc	5b		 pop	 ebx
  001fd	8b e5		 mov	 esp, ebp
  001ff	5d		 pop	 ebp
  00200	c3		 ret	 0
??$_Med3_unchecked@PAPAVCGraphicObjectInstance@@U?$_Ref_fn@UFPCBlockerDistanceSort@@@std@@@std@@YAXPAPAVCGraphicObjectInstance@@00U?$_Ref_fn@UFPCBlockerDistanceSort@@@0@@Z ENDP ; std::_Med3_unchecked<CGraphicObjectInstance * *,std::_Ref_fn<FPCBlockerDistanceSort> >
_TEXT	ENDS
; Function compile flags: /Ogtp
; File C:\Program Files (x86)\Microsoft Visual Studio\2019\Community\VC\Tools\MSVC\14.27.29110\include\xutility
;	COMDAT ??$_Copy_backward_memmove@PAPAVCGraphicObjectInstance@@PAPAV1@@std@@YAPAPAVCGraphicObjectInstance@@PAPAV1@00@Z
_TEXT	SEGMENT
__First$ = 8						; size = 4
__Last$ = 12						; size = 4
__Dest$ = 16						; size = 4
??$_Copy_backward_memmove@PAPAVCGraphicObjectInstance@@PAPAV1@@std@@YAPAPAVCGraphicObjectInstance@@PAPAV1@00@Z PROC ; std::_Copy_backward_memmove<CGraphicObjectInstance * *,CGraphicObjectInstance * *>, COMDAT

; 4284 : _BidIt2 _Copy_backward_memmove(_BidIt1 _First, _BidIt1 _Last, _BidIt2 _Dest) {

  00000	55		 push	 ebp
  00001	8b ec		 mov	 ebp, esp

; 4285 :     // implement copy_backward-like function as memmove
; 4286 :     const char* const _First_ch = const_cast<const char*>(reinterpret_cast<const volatile char*>(_First));
; 4287 :     const char* const _Last_ch  = const_cast<const char*>(reinterpret_cast<const volatile char*>(_Last));
; 4288 :     char* const _Dest_ch        = const_cast<char*>(reinterpret_cast<volatile char*>(_Dest));
; 4289 :     const auto _Count           = static_cast<size_t>(_Last_ch - _First_ch);

  00003	8b 45 08	 mov	 eax, DWORD PTR __First$[ebp]
  00006	8b 4d 0c	 mov	 ecx, DWORD PTR __Last$[ebp]
  00009	2b c8		 sub	 ecx, eax

; 4290 :     return static_cast<_BidIt2>(_CSTD memmove(_Dest_ch - _Count, _First_ch, _Count));

  0000b	51		 push	 ecx
  0000c	50		 push	 eax
  0000d	8b 45 10	 mov	 eax, DWORD PTR __Dest$[ebp]
  00010	2b c1		 sub	 eax, ecx
  00012	50		 push	 eax
  00013	e8 00 00 00 00	 call	 _memmove
  00018	83 c4 0c	 add	 esp, 12			; 0000000cH

; 4291 : }

  0001b	5d		 pop	 ebp
  0001c	c3		 ret	 0
??$_Copy_backward_memmove@PAPAVCGraphicObjectInstance@@PAPAV1@@std@@YAPAPAVCGraphicObjectInstance@@PAPAV1@00@Z ENDP ; std::_Copy_backward_memmove<CGraphicObjectInstance * *,CGraphicObjectInstance * *>
_TEXT	ENDS
; Function compile flags: /Ogtp
; File C:\Program Files (x86)\Microsoft Visual Studio\2019\Community\VC\Tools\MSVC\14.27.29110\include\algorithm
; File C:\Program Files (x86)\Microsoft Visual Studio\2019\Community\VC\Tools\MSVC\14.27.29110\include\xutility
; File C:\Program Files (x86)\Microsoft Visual Studio\2019\Community\VC\Tools\MSVC\14.27.29110\include\algorithm
; File C:\DS Project\DS Files\Source\ClientSource\Client\GameLib\MapOutdoorUpdate.cpp
; File C:\Program Files (x86)\Microsoft Visual Studio\2019\Community\VC\Tools\MSVC\14.27.29110\include\xutility
; File C:\DS Project\DS Files\Source\ClientSource\Client\GameLib\MapOutdoorUpdate.cpp
; File C:\DS Project\DS Files\Source\ClientSource\extern\include\d3dx8math.inl
; File C:\DS Project\DS Files\Source\ClientSource\Client\GameLib\MapOutdoorUpdate.cpp
; File C:\DS Project\DS Files\Source\ClientSource\extern\include\d3dx8math.inl
; File C:\Program Files (x86)\Microsoft Visual Studio\2019\Community\VC\Tools\MSVC\14.27.29110\include\algorithm
; File C:\DS Project\DS Files\Source\ClientSource\extern\include\d3dx8math.inl
; File C:\Program Files (x86)\Microsoft Visual Studio\2019\Community\VC\Tools\MSVC\14.27.29110\include\algorithm
; File C:\DS Project\DS Files\Source\ClientSource\extern\include\d3dx8math.inl
; File C:\Program Files (x86)\Microsoft Visual Studio\2019\Community\VC\Tools\MSVC\14.27.29110\include\algorithm
; File C:\DS Project\DS Files\Source\ClientSource\extern\include\d3dx8math.inl
; File C:\DS Project\DS Files\Source\ClientSource\Client\GameLib\MapOutdoorUpdate.cpp
; File C:\DS Project\DS Files\Source\ClientSource\extern\include\d3dx8math.inl
; File C:\Program Files (x86)\Microsoft Visual Studio\2019\Community\VC\Tools\MSVC\14.27.29110\include\algorithm
; File C:\Program Files (x86)\Microsoft Visual Studio\2019\Community\VC\Tools\MSVC\14.27.29110\include\xutility
; File C:\Program Files (x86)\Microsoft Visual Studio\2019\Community\VC\Tools\MSVC\14.27.29110\include\algorithm
; File C:\Program Files (x86)\Microsoft Visual Studio\2019\Community\VC\Tools\MSVC\14.27.29110\include\xutility
; File C:\DS Project\DS Files\Source\ClientSource\Client\GameLib\MapOutdoorUpdate.cpp
; File C:\DS Project\DS Files\Source\ClientSource\extern\include\d3dx8math.inl
; File C:\DS Project\DS Files\Source\ClientSource\Client\GameLib\MapOutdoorUpdate.cpp
; File C:\DS Project\DS Files\Source\ClientSource\extern\include\d3dx8math.inl
; File C:\DS Project\DS Files\Source\ClientSource\Client\GameLib\MapOutdoorUpdate.cpp
; File C:\DS Project\DS Files\Source\ClientSource\extern\include\d3dx8math.inl
; File C:\DS Project\DS Files\Source\ClientSource\Client\GameLib\MapOutdoorUpdate.cpp
; File C:\Program Files (x86)\Microsoft Visual Studio\2019\Community\VC\Tools\MSVC\14.27.29110\include\algorithm
;	COMDAT ??$_Pop_heap_hole_by_index@PAPAVCGraphicObjectInstance@@PAV1@U?$_Ref_fn@UFPCBlockerDistanceSort@@@std@@@std@@YAXPAPAVCGraphicObjectInstance@@HH$$QAPAV1@U?$_Ref_fn@UFPCBlockerDistanceSort@@@0@@Z
_TEXT	SEGMENT
tv1066 = -24						; size = 4
tv1036 = -24						; size = 4
__Idx$1$ = -20						; size = 4
__Max_sequence_non_leaf$1$ = -20			; size = 4
__Idx$1$ = -16						; size = 4
tv1016 = -16						; size = 4
tv1014 = -12						; size = 4
tv1021 = -8						; size = 4
__Top$1$ = -4						; size = 4
__First$ = 8						; size = 4
tv1040 = 12						; size = 4
__Hole$ = 12						; size = 4
tv1034 = 16						; size = 4
__Bottom$ = 16						; size = 4
__Val$ = 20						; size = 4
__Pred$ = 24						; size = 4
??$_Pop_heap_hole_by_index@PAPAVCGraphicObjectInstance@@PAV1@U?$_Ref_fn@UFPCBlockerDistanceSort@@@std@@@std@@YAXPAPAVCGraphicObjectInstance@@HH$$QAPAV1@U?$_Ref_fn@UFPCBlockerDistanceSort@@@0@@Z PROC ; std::_Pop_heap_hole_by_index<CGraphicObjectInstance * *,CGraphicObjectInstance *,std::_Ref_fn<FPCBlockerDistanceSort> >, COMDAT

; 3354 :     _RanIt _First, _Iter_diff_t<_RanIt> _Hole, _Iter_diff_t<_RanIt> _Bottom, _Ty&& _Val, _Pr _Pred) {

  00000	55		 push	 ebp
  00001	8b ec		 mov	 ebp, esp
  00003	83 ec 18	 sub	 esp, 24			; 00000018H

; 3355 :     // percolate _Hole to _Bottom, then push _Val, using _Pred
; 3356 :     _STL_INTERNAL_CHECK(_Bottom != 0);
; 3357 :     using _Diff      = _Iter_diff_t<_RanIt>;
; 3358 :     const _Diff _Top = _Hole;
; 3359 :     _Diff _Idx       = _Hole;
; 3360 : 
; 3361 :     // Check whether _Idx can have a child before calculating that child's index, since
; 3362 :     // calculating the child's index can trigger integer overflows
; 3363 :     const _Diff _Max_sequence_non_leaf = (_Bottom - 1) >> 1; // shift for codegen
; 3364 :     while (_Idx < _Max_sequence_non_leaf) { // move _Hole down to larger child

  00006	8b 55 08	 mov	 edx, DWORD PTR __First$[ebp]
  00009	53		 push	 ebx
  0000a	8b 5d 0c	 mov	 ebx, DWORD PTR __Hole$[ebp]
  0000d	8b c3		 mov	 eax, ebx
  0000f	56		 push	 esi
  00010	8b 75 10	 mov	 esi, DWORD PTR __Bottom$[ebp]
  00013	4e		 dec	 esi
  00014	8b ce		 mov	 ecx, esi
  00016	89 75 e8	 mov	 DWORD PTR tv1066[ebp], esi
  00019	d1 f9		 sar	 ecx, 1
  0001b	89 4d ec	 mov	 DWORD PTR __Max_sequence_non_leaf$1$[ebp], ecx
  0001e	57		 push	 edi
  0001f	8b fb		 mov	 edi, ebx
  00021	89 7d fc	 mov	 DWORD PTR __Top$1$[ebp], edi
  00024	3b d9		 cmp	 ebx, ecx
  00026	0f 8d cf 00 00
	00		 jge	 $LN53@Pop_heap_h
  0002c	0f 1f 40 00	 npad	 4
$LL2@Pop_heap_h:
; File C:\Program Files (x86)\Microsoft Visual Studio\2019\Community\VC\Tools\MSVC\14.27.29110\include\xutility

; 193  :         return _Fn(_STD forward<_Args>(_Vals)...);

  00030	8b 7d 18	 mov	 edi, DWORD PTR __Pred$[ebp]
; File C:\Program Files (x86)\Microsoft Visual Studio\2019\Community\VC\Tools\MSVC\14.27.29110\include\algorithm

; 3365 :         _Idx = 2 * _Idx + 2;

  00033	8d 1c 00	 lea	 ebx, DWORD PTR [eax+eax]
; File C:\DS Project\DS Files\Source\ClientSource\Client\GameLib\MapOutdoorUpdate.cpp

; 197  : 		return D3DXVec3LengthSq(&(plhs->GetPosition() - m_v3Eye)) > D3DXVec3LengthSq(&(prhs->GetPosition() - m_v3Eye));

  00036	8b 4c 9a 08	 mov	 ecx, DWORD PTR [edx+ebx*4+8]
; File C:\Program Files (x86)\Microsoft Visual Studio\2019\Community\VC\Tools\MSVC\14.27.29110\include\xutility

; 193  :         return _Fn(_STD forward<_Args>(_Vals)...);

  0003a	8b 74 9a 04	 mov	 esi, DWORD PTR [edx+ebx*4+4]
; File C:\DS Project\DS Files\Source\ClientSource\Client\GameLib\MapOutdoorUpdate.cpp

; 197  : 		return D3DXVec3LengthSq(&(plhs->GetPosition() - m_v3Eye)) > D3DXVec3LengthSq(&(prhs->GetPosition() - m_v3Eye));

  0003e	e8 00 00 00 00	 call	 ?GetPosition@CGraphicObjectInstance@@QBEABUD3DXVECTOR3@@XZ ; CGraphicObjectInstance::GetPosition
  00043	8b ce		 mov	 ecx, esi
; File C:\DS Project\DS Files\Source\ClientSource\extern\include\d3dx8math.inl

; 263  :     return D3DXVECTOR3(x - v.x, y - v.y, z - v.z);

  00045	f3 0f 10 00	 movss	 xmm0, DWORD PTR [eax]
  00049	f3 0f 5c 07	 subss	 xmm0, DWORD PTR [edi]
  0004d	f3 0f 11 45 f4	 movss	 DWORD PTR tv1014[ebp], xmm0
  00052	f3 0f 10 40 04	 movss	 xmm0, DWORD PTR [eax+4]
  00057	f3 0f 5c 47 04	 subss	 xmm0, DWORD PTR [edi+4]
  0005c	f3 0f 11 45 f8	 movss	 DWORD PTR tv1021[ebp], xmm0
  00061	f3 0f 10 40 08	 movss	 xmm0, DWORD PTR [eax+8]
  00066	f3 0f 5c 47 08	 subss	 xmm0, DWORD PTR [edi+8]
  0006b	f3 0f 11 45 f0	 movss	 DWORD PTR tv1016[ebp], xmm0
; File C:\DS Project\DS Files\Source\ClientSource\Client\GameLib\MapOutdoorUpdate.cpp

; 197  : 		return D3DXVec3LengthSq(&(plhs->GetPosition() - m_v3Eye)) > D3DXVec3LengthSq(&(prhs->GetPosition() - m_v3Eye));

  00070	e8 00 00 00 00	 call	 ?GetPosition@CGraphicObjectInstance@@QBEABUD3DXVECTOR3@@XZ ; CGraphicObjectInstance::GetPosition
; File C:\DS Project\DS Files\Source\ClientSource\extern\include\d3dx8math.inl

; 182  :     z = fz;

  00075	f3 0f 10 55 f4	 movss	 xmm2, DWORD PTR tv1014[ebp]

; 1253 :     return pV->x * pV->x + pV->y * pV->y + pV->z * pV->z;

  0007a	f3 0f 10 65 f8	 movss	 xmm4, DWORD PTR tv1021[ebp]

; 182  :     z = fz;

  0007f	f3 0f 59 d2	 mulss	 xmm2, xmm2
; File C:\Program Files (x86)\Microsoft Visual Studio\2019\Community\VC\Tools\MSVC\14.27.29110\include\algorithm

; 3369 :         *(_First + _Hole) = _STD move(*(_First + _Idx));

  00083	8b 55 08	 mov	 edx, DWORD PTR __First$[ebp]
; File C:\DS Project\DS Files\Source\ClientSource\extern\include\d3dx8math.inl

; 263  :     return D3DXVECTOR3(x - v.x, y - v.y, z - v.z);

  00086	f3 0f 10 08	 movss	 xmm1, DWORD PTR [eax]
  0008a	f3 0f 10 58 04	 movss	 xmm3, DWORD PTR [eax+4]
  0008f	f3 0f 5c 5f 04	 subss	 xmm3, DWORD PTR [edi+4]
  00094	f3 0f 10 40 08	 movss	 xmm0, DWORD PTR [eax+8]
; File C:\Program Files (x86)\Microsoft Visual Studio\2019\Community\VC\Tools\MSVC\14.27.29110\include\algorithm

; 3369 :         *(_First + _Hole) = _STD move(*(_First + _Idx));

  00099	33 c0		 xor	 eax, eax
; File C:\DS Project\DS Files\Source\ClientSource\extern\include\d3dx8math.inl

; 263  :     return D3DXVECTOR3(x - v.x, y - v.y, z - v.z);

  0009b	f3 0f 5c 0f	 subss	 xmm1, DWORD PTR [edi]
  0009f	f3 0f 5c 47 08	 subss	 xmm0, DWORD PTR [edi+8]

; 1253 :     return pV->x * pV->x + pV->y * pV->y + pV->z * pV->z;

  000a4	f3 0f 59 e4	 mulss	 xmm4, xmm4
; File C:\Program Files (x86)\Microsoft Visual Studio\2019\Community\VC\Tools\MSVC\14.27.29110\include\algorithm

; 3369 :         *(_First + _Hole) = _STD move(*(_First + _Idx));

  000a8	8b 4d 0c	 mov	 ecx, DWORD PTR __Hole$[ebp]
; File C:\DS Project\DS Files\Source\ClientSource\extern\include\d3dx8math.inl

; 1253 :     return pV->x * pV->x + pV->y * pV->y + pV->z * pV->z;

  000ab	f3 0f 59 db	 mulss	 xmm3, xmm3
; File C:\DS Project\DS Files\Source\ClientSource\Client\GameLib\MapOutdoorUpdate.cpp

; 197  : 		return D3DXVec3LengthSq(&(plhs->GetPosition() - m_v3Eye)) > D3DXVec3LengthSq(&(prhs->GetPosition() - m_v3Eye));

  000af	f3 0f 59 c9	 mulss	 xmm1, xmm1
; File C:\DS Project\DS Files\Source\ClientSource\extern\include\d3dx8math.inl

; 1253 :     return pV->x * pV->x + pV->y * pV->y + pV->z * pV->z;

  000b3	f3 0f 58 e2	 addss	 xmm4, xmm2
  000b7	f3 0f 10 55 f0	 movss	 xmm2, DWORD PTR tv1016[ebp]
  000bc	f3 0f 59 d2	 mulss	 xmm2, xmm2
  000c0	f3 0f 58 d9	 addss	 xmm3, xmm1
  000c4	f3 0f 59 c0	 mulss	 xmm0, xmm0
  000c8	f3 0f 58 e2	 addss	 xmm4, xmm2
  000cc	f3 0f 58 d8	 addss	 xmm3, xmm0
; File C:\Program Files (x86)\Microsoft Visual Studio\2019\Community\VC\Tools\MSVC\14.27.29110\include\algorithm

; 3369 :         *(_First + _Hole) = _STD move(*(_First + _Idx));

  000d0	0f 2f e3	 comiss	 xmm4, xmm3
  000d3	0f 96 c0	 setbe	 al
  000d6	40		 inc	 eax
  000d7	03 c3		 add	 eax, ebx
  000d9	89 45 f0	 mov	 DWORD PTR __Idx$1$[ebp], eax
  000dc	8b 04 82	 mov	 eax, DWORD PTR [edx+eax*4]
  000df	89 04 8a	 mov	 DWORD PTR [edx+ecx*4], eax

; 3370 :         _Hole             = _Idx;

  000e2	8b 45 f0	 mov	 eax, DWORD PTR __Idx$1$[ebp]
  000e5	8b d8		 mov	 ebx, eax
  000e7	8b 4d ec	 mov	 ecx, DWORD PTR __Max_sequence_non_leaf$1$[ebp]
  000ea	89 5d 0c	 mov	 DWORD PTR __Hole$[ebp], ebx
  000ed	3b c1		 cmp	 eax, ecx
  000ef	0f 8c 3b ff ff
	ff		 jl	 $LL2@Pop_heap_h

; 3355 :     // percolate _Hole to _Bottom, then push _Val, using _Pred
; 3356 :     _STL_INTERNAL_CHECK(_Bottom != 0);
; 3357 :     using _Diff      = _Iter_diff_t<_RanIt>;
; 3358 :     const _Diff _Top = _Hole;
; 3359 :     _Diff _Idx       = _Hole;
; 3360 : 
; 3361 :     // Check whether _Idx can have a child before calculating that child's index, since
; 3362 :     // calculating the child's index can trigger integer overflows
; 3363 :     const _Diff _Max_sequence_non_leaf = (_Bottom - 1) >> 1; // shift for codegen
; 3364 :     while (_Idx < _Max_sequence_non_leaf) { // move _Hole down to larger child

  000f5	8b 7d fc	 mov	 edi, DWORD PTR __Top$1$[ebp]
  000f8	8b 75 e8	 mov	 esi, DWORD PTR tv1066[ebp]
$LN53@Pop_heap_h:

; 3371 :     }
; 3372 : 
; 3373 :     if (_Idx == _Max_sequence_non_leaf && _Bottom % 2 == 0) { // only child at bottom, move _Hole down to it

  000fb	3b c1		 cmp	 eax, ecx
  000fd	75 10		 jne	 SHORT $LN5@Pop_heap_h
  000ff	8b 45 10	 mov	 eax, DWORD PTR __Bottom$[ebp]
  00102	a8 01		 test	 al, 1
  00104	75 09		 jne	 SHORT $LN5@Pop_heap_h

; 3374 :         *(_First + _Hole) = _STD move(*(_First + (_Bottom - 1)));

  00106	8b 44 82 fc	 mov	 eax, DWORD PTR [edx+eax*4-4]
  0010a	89 04 9a	 mov	 DWORD PTR [edx+ebx*4], eax

; 3375 :         _Hole             = _Bottom - 1;

  0010d	8b de		 mov	 ebx, esi
$LN5@Pop_heap_h:

; 3376 :     }
; 3377 : 
; 3378 :     _Push_heap_by_index(_First, _Hole, _Top, _STD move(_Val), _Pred);

  0010f	8b 75 18	 mov	 esi, DWORD PTR __Pred$[ebp]

; 3321 :          _Top < _Hole && _DEBUG_LT_PRED(_Pred, *(_First + _Idx), _Val); //

  00112	3b fb		 cmp	 edi, ebx
  00114	0f 8d bc 00 00
	00		 jge	 $LN54@Pop_heap_h
  0011a	66 0f 1f 44 00
	00		 npad	 6
$LL26@Pop_heap_h:
; File C:\Program Files (x86)\Microsoft Visual Studio\2019\Community\VC\Tools\MSVC\14.27.29110\include\xutility

; 193  :         return _Fn(_STD forward<_Args>(_Vals)...);

  00120	8b 4d 14	 mov	 ecx, DWORD PTR __Val$[ebp]
; File C:\Program Files (x86)\Microsoft Visual Studio\2019\Community\VC\Tools\MSVC\14.27.29110\include\algorithm

; 3320 :     for (_Diff _Idx = (_Hole - 1) >> 1; // shift for codegen

  00123	8d 43 ff	 lea	 eax, DWORD PTR [ebx-1]
  00126	d1 f8		 sar	 eax, 1
  00128	89 45 ec	 mov	 DWORD PTR __Idx$1$[ebp], eax
; File C:\Program Files (x86)\Microsoft Visual Studio\2019\Community\VC\Tools\MSVC\14.27.29110\include\xutility

; 193  :         return _Fn(_STD forward<_Args>(_Vals)...);

  0012b	8b 39		 mov	 edi, DWORD PTR [ecx]
; File C:\DS Project\DS Files\Source\ClientSource\Client\GameLib\MapOutdoorUpdate.cpp

; 197  : 		return D3DXVec3LengthSq(&(plhs->GetPosition() - m_v3Eye)) > D3DXVec3LengthSq(&(prhs->GetPosition() - m_v3Eye));

  0012d	8b 0c 82	 mov	 ecx, DWORD PTR [edx+eax*4]
  00130	e8 00 00 00 00	 call	 ?GetPosition@CGraphicObjectInstance@@QBEABUD3DXVECTOR3@@XZ ; CGraphicObjectInstance::GetPosition
  00135	8b cf		 mov	 ecx, edi
; File C:\DS Project\DS Files\Source\ClientSource\extern\include\d3dx8math.inl

; 263  :     return D3DXVECTOR3(x - v.x, y - v.y, z - v.z);

  00137	f3 0f 10 00	 movss	 xmm0, DWORD PTR [eax]
  0013b	f3 0f 5c 06	 subss	 xmm0, DWORD PTR [esi]
  0013f	f3 0f 11 45 10	 movss	 DWORD PTR tv1034[ebp], xmm0
  00144	f3 0f 10 40 04	 movss	 xmm0, DWORD PTR [eax+4]
  00149	f3 0f 5c 46 04	 subss	 xmm0, DWORD PTR [esi+4]
  0014e	f3 0f 11 45 0c	 movss	 DWORD PTR tv1040[ebp], xmm0
  00153	f3 0f 10 40 08	 movss	 xmm0, DWORD PTR [eax+8]
  00158	f3 0f 5c 46 08	 subss	 xmm0, DWORD PTR [esi+8]
  0015d	f3 0f 11 45 e8	 movss	 DWORD PTR tv1036[ebp], xmm0
; File C:\DS Project\DS Files\Source\ClientSource\Client\GameLib\MapOutdoorUpdate.cpp

; 197  : 		return D3DXVec3LengthSq(&(plhs->GetPosition() - m_v3Eye)) > D3DXVec3LengthSq(&(prhs->GetPosition() - m_v3Eye));

  00162	e8 00 00 00 00	 call	 ?GetPosition@CGraphicObjectInstance@@QBEABUD3DXVECTOR3@@XZ ; CGraphicObjectInstance::GetPosition
; File C:\DS Project\DS Files\Source\ClientSource\extern\include\d3dx8math.inl

; 182  :     z = fz;

  00167	f3 0f 10 55 10	 movss	 xmm2, DWORD PTR tv1034[ebp]

; 1253 :     return pV->x * pV->x + pV->y * pV->y + pV->z * pV->z;

  0016c	f3 0f 10 65 0c	 movss	 xmm4, DWORD PTR tv1040[ebp]

; 182  :     z = fz;

  00171	f3 0f 59 d2	 mulss	 xmm2, xmm2

; 263  :     return D3DXVECTOR3(x - v.x, y - v.y, z - v.z);

  00175	f3 0f 10 08	 movss	 xmm1, DWORD PTR [eax]
  00179	f3 0f 10 58 04	 movss	 xmm3, DWORD PTR [eax+4]
  0017e	f3 0f 5c 5e 04	 subss	 xmm3, DWORD PTR [esi+4]
  00183	f3 0f 5c 0e	 subss	 xmm1, DWORD PTR [esi]
  00187	f3 0f 10 40 08	 movss	 xmm0, DWORD PTR [eax+8]
  0018c	f3 0f 5c 46 08	 subss	 xmm0, DWORD PTR [esi+8]

; 1253 :     return pV->x * pV->x + pV->y * pV->y + pV->z * pV->z;

  00191	f3 0f 59 e4	 mulss	 xmm4, xmm4
  00195	f3 0f 59 db	 mulss	 xmm3, xmm3
; File C:\DS Project\DS Files\Source\ClientSource\Client\GameLib\MapOutdoorUpdate.cpp

; 197  : 		return D3DXVec3LengthSq(&(plhs->GetPosition() - m_v3Eye)) > D3DXVec3LengthSq(&(prhs->GetPosition() - m_v3Eye));

  00199	f3 0f 59 c9	 mulss	 xmm1, xmm1
; File C:\DS Project\DS Files\Source\ClientSource\extern\include\d3dx8math.inl

; 1253 :     return pV->x * pV->x + pV->y * pV->y + pV->z * pV->z;

  0019d	f3 0f 58 e2	 addss	 xmm4, xmm2
  001a1	f3 0f 10 55 e8	 movss	 xmm2, DWORD PTR tv1036[ebp]
  001a6	f3 0f 59 d2	 mulss	 xmm2, xmm2
  001aa	f3 0f 58 d9	 addss	 xmm3, xmm1
  001ae	f3 0f 59 c0	 mulss	 xmm0, xmm0
  001b2	f3 0f 58 e2	 addss	 xmm4, xmm2
  001b6	f3 0f 58 d8	 addss	 xmm3, xmm0
; File C:\DS Project\DS Files\Source\ClientSource\Client\GameLib\MapOutdoorUpdate.cpp

; 197  : 		return D3DXVec3LengthSq(&(plhs->GetPosition() - m_v3Eye)) > D3DXVec3LengthSq(&(prhs->GetPosition() - m_v3Eye));

  001ba	0f 2f e3	 comiss	 xmm4, xmm3
; File C:\Program Files (x86)\Microsoft Visual Studio\2019\Community\VC\Tools\MSVC\14.27.29110\include\algorithm

; 3321 :          _Top < _Hole && _DEBUG_LT_PRED(_Pred, *(_First + _Idx), _Val); //

  001bd	76 26		 jbe	 SHORT $LN55@Pop_heap_h

; 3322 :          _Idx = (_Hole - 1) >> 1) { // shift for codegen
; 3323 :         // move _Hole up to parent
; 3324 :         *(_First + _Hole) = _STD move(*(_First + _Idx));

  001bf	8b 4d ec	 mov	 ecx, DWORD PTR __Idx$1$[ebp]
  001c2	8b 55 08	 mov	 edx, DWORD PTR __First$[ebp]
  001c5	8b 04 8a	 mov	 eax, DWORD PTR [edx+ecx*4]
  001c8	89 04 9a	 mov	 DWORD PTR [edx+ebx*4], eax

; 3325 :         _Hole             = _Idx;

  001cb	8b d9		 mov	 ebx, ecx
  001cd	39 4d fc	 cmp	 DWORD PTR __Top$1$[ebp], ecx
  001d0	0f 8c 4a ff ff
	ff		 jl	 $LL26@Pop_heap_h
$LN54@Pop_heap_h:

; 3379 : }

  001d6	8b 45 14	 mov	 eax, DWORD PTR __Val$[ebp]
  001d9	5f		 pop	 edi
  001da	5e		 pop	 esi
  001db	8b 00		 mov	 eax, DWORD PTR [eax]
  001dd	89 04 9a	 mov	 DWORD PTR [edx+ebx*4], eax
  001e0	5b		 pop	 ebx
  001e1	8b e5		 mov	 esp, ebp
  001e3	5d		 pop	 ebp
  001e4	c3		 ret	 0
$LN55@Pop_heap_h:

; 3328 :     *(_First + _Hole) = _STD move(_Val); // drop _Val into final hole

  001e5	8b 45 14	 mov	 eax, DWORD PTR __Val$[ebp]
  001e8	8b 4d 08	 mov	 ecx, DWORD PTR __First$[ebp]
  001eb	5f		 pop	 edi

; 3379 : }

  001ec	5e		 pop	 esi

; 3328 :     *(_First + _Hole) = _STD move(_Val); // drop _Val into final hole

  001ed	8b 00		 mov	 eax, DWORD PTR [eax]
  001ef	89 04 99	 mov	 DWORD PTR [ecx+ebx*4], eax

; 3379 : }

  001f2	5b		 pop	 ebx
  001f3	8b e5		 mov	 esp, ebp
  001f5	5d		 pop	 ebp
  001f6	c3		 ret	 0
??$_Pop_heap_hole_by_index@PAPAVCGraphicObjectInstance@@PAV1@U?$_Ref_fn@UFPCBlockerDistanceSort@@@std@@@std@@YAXPAPAVCGraphicObjectInstance@@HH$$QAPAV1@U?$_Ref_fn@UFPCBlockerDistanceSort@@@0@@Z ENDP ; std::_Pop_heap_hole_by_index<CGraphicObjectInstance * *,CGraphicObjectInstance *,std::_Ref_fn<FPCBlockerDistanceSort> >
_TEXT	ENDS
; Function compile flags: /Ogtp
; File C:\Program Files (x86)\Microsoft Visual Studio\2019\Community\VC\Tools\MSVC\14.27.29110\include\xmemory
;	COMDAT ??$_Refancy@PAPAVCGraphicObjectInstance@@$0A@@std@@YAPAPAVCGraphicObjectInstance@@PAPAV1@@Z
_TEXT	SEGMENT
__Ptr$ = 8						; size = 4
??$_Refancy@PAPAVCGraphicObjectInstance@@$0A@@std@@YAPAPAVCGraphicObjectInstance@@PAPAV1@@Z PROC ; std::_Refancy<CGraphicObjectInstance * *,0>, COMDAT

; 261  : _Pointer _Refancy(_Pointer _Ptr) noexcept {

  00000	55		 push	 ebp
  00001	8b ec		 mov	 ebp, esp

; 262  :     return _Ptr;

  00003	8b 45 08	 mov	 eax, DWORD PTR __Ptr$[ebp]

; 263  : }

  00006	5d		 pop	 ebp
  00007	c3		 ret	 0
??$_Refancy@PAPAVCGraphicObjectInstance@@$0A@@std@@YAPAPAVCGraphicObjectInstance@@PAPAV1@@Z ENDP ; std::_Refancy<CGraphicObjectInstance * *,0>
_TEXT	ENDS
; Function compile flags: /Ogtp
; File C:\Program Files (x86)\Microsoft Visual Studio\2019\Community\VC\Tools\MSVC\14.27.29110\include\xmemory
;	COMDAT ??$_Refancy@PAPAVCTerrain@@$0A@@std@@YAPAPAVCTerrain@@PAPAV1@@Z
_TEXT	SEGMENT
__Ptr$ = 8						; size = 4
??$_Refancy@PAPAVCTerrain@@$0A@@std@@YAPAPAVCTerrain@@PAPAV1@@Z PROC ; std::_Refancy<CTerrain * *,0>, COMDAT

; 261  : _Pointer _Refancy(_Pointer _Ptr) noexcept {

  00000	55		 push	 ebp
  00001	8b ec		 mov	 ebp, esp

; 262  :     return _Ptr;

  00003	8b 45 08	 mov	 eax, DWORD PTR __Ptr$[ebp]

; 263  : }

  00006	5d		 pop	 ebp
  00007	c3		 ret	 0
??$_Refancy@PAPAVCTerrain@@$0A@@std@@YAPAPAVCTerrain@@PAPAV1@@Z ENDP ; std::_Refancy<CTerrain * *,0>
_TEXT	ENDS
; Function compile flags: /Ogtp
; File C:\Program Files (x86)\Microsoft Visual Studio\2019\Community\VC\Tools\MSVC\14.27.29110\include\xmemory
;	COMDAT ??$_Refancy@PAPAVCArea@@$0A@@std@@YAPAPAVCArea@@PAPAV1@@Z
_TEXT	SEGMENT
__Ptr$ = 8						; size = 4
??$_Refancy@PAPAVCArea@@$0A@@std@@YAPAPAVCArea@@PAPAV1@@Z PROC ; std::_Refancy<CArea * *,0>, COMDAT

; 261  : _Pointer _Refancy(_Pointer _Ptr) noexcept {

  00000	55		 push	 ebp
  00001	8b ec		 mov	 ebp, esp

; 262  :     return _Ptr;

  00003	8b 45 08	 mov	 eax, DWORD PTR __Ptr$[ebp]

; 263  : }

  00006	5d		 pop	 ebp
  00007	c3		 ret	 0
??$_Refancy@PAPAVCArea@@$0A@@std@@YAPAPAVCArea@@PAPAV1@@Z ENDP ; std::_Refancy<CArea * *,0>
_TEXT	ENDS
; Function compile flags: /Ogtp
; File C:\Program Files (x86)\Microsoft Visual Studio\2019\Community\VC\Tools\MSVC\14.27.29110\include\xutility
;	COMDAT ??$_Copy_memmove@PAPAVCGraphicObjectInstance@@PAPAV1@@std@@YAPAPAVCGraphicObjectInstance@@PAPAV1@00@Z
_TEXT	SEGMENT
__First$ = 8						; size = 4
__Last$ = 12						; size = 4
__Dest$ = 16						; size = 4
??$_Copy_memmove@PAPAVCGraphicObjectInstance@@PAPAV1@@std@@YAPAPAVCGraphicObjectInstance@@PAPAV1@00@Z PROC ; std::_Copy_memmove<CGraphicObjectInstance * *,CGraphicObjectInstance * *>, COMDAT

; 4113 : _OutIt _Copy_memmove(_InIt _First, _InIt _Last, _OutIt _Dest) {

  00000	55		 push	 ebp
  00001	8b ec		 mov	 ebp, esp

; 4114 :     const char* const _First_ch = const_cast<const char*>(reinterpret_cast<const volatile char*>(_First));
; 4115 :     const char* const _Last_ch  = const_cast<const char*>(reinterpret_cast<const volatile char*>(_Last));
; 4116 :     char* const _Dest_ch        = const_cast<char*>(reinterpret_cast<volatile char*>(_Dest));
; 4117 :     const auto _Count           = static_cast<size_t>(_Last_ch - _First_ch);

  00003	8b 45 08	 mov	 eax, DWORD PTR __First$[ebp]
  00006	56		 push	 esi

; 4118 :     _CSTD memmove(_Dest_ch, _First_ch, _Count);

  00007	8b 75 10	 mov	 esi, DWORD PTR __Dest$[ebp]
  0000a	57		 push	 edi
  0000b	8b 7d 0c	 mov	 edi, DWORD PTR __Last$[ebp]
  0000e	2b f8		 sub	 edi, eax
  00010	57		 push	 edi
  00011	50		 push	 eax
  00012	56		 push	 esi
  00013	e8 00 00 00 00	 call	 _memmove
  00018	83 c4 0c	 add	 esp, 12			; 0000000cH

; 4119 :     return reinterpret_cast<_OutIt>(_Dest_ch + _Count);

  0001b	8d 04 37	 lea	 eax, DWORD PTR [edi+esi]
  0001e	5f		 pop	 edi
  0001f	5e		 pop	 esi

; 4120 : }

  00020	5d		 pop	 ebp
  00021	c3		 ret	 0
??$_Copy_memmove@PAPAVCGraphicObjectInstance@@PAPAV1@@std@@YAPAPAVCGraphicObjectInstance@@PAPAV1@00@Z ENDP ; std::_Copy_memmove<CGraphicObjectInstance * *,CGraphicObjectInstance * *>
_TEXT	ENDS
; Function compile flags: /Ogtp
; File C:\Program Files (x86)\Microsoft Visual Studio\2019\Community\VC\Tools\MSVC\14.27.29110\include\xmemory
;	COMDAT ??$_Zero_range@PAPAVCTerrain@@@std@@YAPAPAVCTerrain@@QAPAV1@0@Z
_TEXT	SEGMENT
__First$ = 8						; size = 4
__Last$ = 12						; size = 4
??$_Zero_range@PAPAVCTerrain@@@std@@YAPAPAVCTerrain@@QAPAV1@0@Z PROC ; std::_Zero_range<CTerrain * *>, COMDAT

; 1814 : _Ptr _Zero_range(const _Ptr _First, const _Ptr _Last) { // fill [_First, _Last) with zeroes

  00000	55		 push	 ebp
  00001	8b ec		 mov	 ebp, esp

; 1815 :     char* const _First_ch = reinterpret_cast<char*>(_First);
; 1816 :     char* const _Last_ch  = reinterpret_cast<char*>(_Last);
; 1817 :     _CSTD memset(_First_ch, 0, static_cast<size_t>(_Last_ch - _First_ch));

  00003	8b 55 08	 mov	 edx, DWORD PTR __First$[ebp]
  00006	8b 4d 0c	 mov	 ecx, DWORD PTR __Last$[ebp]
  00009	2b ca		 sub	 ecx, edx
  0000b	51		 push	 ecx
  0000c	6a 00		 push	 0
  0000e	52		 push	 edx
  0000f	e8 00 00 00 00	 call	 _memset

; 1818 :     return _Last;

  00014	8b 45 0c	 mov	 eax, DWORD PTR __Last$[ebp]
  00017	83 c4 0c	 add	 esp, 12			; 0000000cH

; 1819 : }

  0001a	5d		 pop	 ebp
  0001b	c3		 ret	 0
??$_Zero_range@PAPAVCTerrain@@@std@@YAPAPAVCTerrain@@QAPAV1@0@Z ENDP ; std::_Zero_range<CTerrain * *>
_TEXT	ENDS
; Function compile flags: /Ogtp
; File C:\Program Files (x86)\Microsoft Visual Studio\2019\Community\VC\Tools\MSVC\14.27.29110\include\xmemory
;	COMDAT ??$_Zero_range@PAPAVCArea@@@std@@YAPAPAVCArea@@QAPAV1@0@Z
_TEXT	SEGMENT
__First$ = 8						; size = 4
__Last$ = 12						; size = 4
??$_Zero_range@PAPAVCArea@@@std@@YAPAPAVCArea@@QAPAV1@0@Z PROC ; std::_Zero_range<CArea * *>, COMDAT

; 1814 : _Ptr _Zero_range(const _Ptr _First, const _Ptr _Last) { // fill [_First, _Last) with zeroes

  00000	55		 push	 ebp
  00001	8b ec		 mov	 ebp, esp

; 1815 :     char* const _First_ch = reinterpret_cast<char*>(_First);
; 1816 :     char* const _Last_ch  = reinterpret_cast<char*>(_Last);
; 1817 :     _CSTD memset(_First_ch, 0, static_cast<size_t>(_Last_ch - _First_ch));

  00003	8b 55 08	 mov	 edx, DWORD PTR __First$[ebp]
  00006	8b 4d 0c	 mov	 ecx, DWORD PTR __Last$[ebp]
  00009	2b ca		 sub	 ecx, edx
  0000b	51		 push	 ecx
  0000c	6a 00		 push	 0
  0000e	52		 push	 edx
  0000f	e8 00 00 00 00	 call	 _memset

; 1818 :     return _Last;

  00014	8b 45 0c	 mov	 eax, DWORD PTR __Last$[ebp]
  00017	83 c4 0c	 add	 esp, 12			; 0000000cH

; 1819 : }

  0001a	5d		 pop	 ebp
  0001b	c3		 ret	 0
??$_Zero_range@PAPAVCArea@@@std@@YAPAPAVCArea@@QAPAV1@0@Z ENDP ; std::_Zero_range<CArea * *>
_TEXT	ENDS
; Function compile flags: /Ogtp
; File C:\Program Files (x86)\Microsoft Visual Studio\2019\Community\VC\Tools\MSVC\14.27.29110\include\algorithm
; File C:\DS Project\DS Files\Source\ClientSource\Client\GameLib\MapOutdoorUpdate.cpp
; File C:\Program Files (x86)\Microsoft Visual Studio\2019\Community\VC\Tools\MSVC\14.27.29110\include\xutility
; File C:\DS Project\DS Files\Source\ClientSource\Client\GameLib\MapOutdoorUpdate.cpp
; File C:\DS Project\DS Files\Source\ClientSource\extern\include\d3dx8math.inl
; File C:\DS Project\DS Files\Source\ClientSource\Client\GameLib\MapOutdoorUpdate.cpp
; File C:\DS Project\DS Files\Source\ClientSource\extern\include\d3dx8math.inl
; File C:\DS Project\DS Files\Source\ClientSource\Client\GameLib\MapOutdoorUpdate.cpp
; File C:\DS Project\DS Files\Source\ClientSource\extern\include\d3dx8math.inl
; File C:\DS Project\DS Files\Source\ClientSource\Client\GameLib\MapOutdoorUpdate.cpp
; File C:\Program Files (x86)\Microsoft Visual Studio\2019\Community\VC\Tools\MSVC\14.27.29110\include\algorithm
; File C:\Program Files (x86)\Microsoft Visual Studio\2019\Community\VC\Tools\MSVC\14.27.29110\include\xutility
; File C:\DS Project\DS Files\Source\ClientSource\Client\GameLib\MapOutdoorUpdate.cpp
; File C:\Program Files (x86)\Microsoft Visual Studio\2019\Community\VC\Tools\MSVC\14.27.29110\include\xutility
; File C:\DS Project\DS Files\Source\ClientSource\Client\GameLib\MapOutdoorUpdate.cpp
; File C:\DS Project\DS Files\Source\ClientSource\extern\include\d3dx8math.inl
; File C:\DS Project\DS Files\Source\ClientSource\Client\GameLib\MapOutdoorUpdate.cpp
; File C:\DS Project\DS Files\Source\ClientSource\extern\include\d3dx8math.inl
; File C:\DS Project\DS Files\Source\ClientSource\Client\GameLib\MapOutdoorUpdate.cpp
; File C:\DS Project\DS Files\Source\ClientSource\extern\include\d3dx8math.inl
; File C:\DS Project\DS Files\Source\ClientSource\Client\GameLib\MapOutdoorUpdate.cpp
; File C:\Program Files (x86)\Microsoft Visual Studio\2019\Community\VC\Tools\MSVC\14.27.29110\include\algorithm
; File C:\DS Project\DS Files\Source\ClientSource\Client\GameLib\MapOutdoorUpdate.cpp
; File C:\Program Files (x86)\Microsoft Visual Studio\2019\Community\VC\Tools\MSVC\14.27.29110\include\xutility
; File C:\DS Project\DS Files\Source\ClientSource\Client\GameLib\MapOutdoorUpdate.cpp
; File C:\DS Project\DS Files\Source\ClientSource\extern\include\d3dx8math.inl
; File C:\DS Project\DS Files\Source\ClientSource\Client\GameLib\MapOutdoorUpdate.cpp
; File C:\DS Project\DS Files\Source\ClientSource\extern\include\d3dx8math.inl
; File C:\DS Project\DS Files\Source\ClientSource\Client\GameLib\MapOutdoorUpdate.cpp
; File C:\DS Project\DS Files\Source\ClientSource\extern\include\d3dx8math.inl
; File C:\DS Project\DS Files\Source\ClientSource\Client\GameLib\MapOutdoorUpdate.cpp
; File C:\Program Files (x86)\Microsoft Visual Studio\2019\Community\VC\Tools\MSVC\14.27.29110\include\algorithm
; File C:\Program Files (x86)\Microsoft Visual Studio\2019\Community\VC\Tools\MSVC\14.27.29110\include\xutility
; File C:\DS Project\DS Files\Source\ClientSource\Client\GameLib\MapOutdoorUpdate.cpp
; File C:\Program Files (x86)\Microsoft Visual Studio\2019\Community\VC\Tools\MSVC\14.27.29110\include\xutility
; File C:\DS Project\DS Files\Source\ClientSource\Client\GameLib\MapOutdoorUpdate.cpp
; File C:\DS Project\DS Files\Source\ClientSource\extern\include\d3dx8math.inl
; File C:\DS Project\DS Files\Source\ClientSource\Client\GameLib\MapOutdoorUpdate.cpp
; File C:\DS Project\DS Files\Source\ClientSource\extern\include\d3dx8math.inl
; File C:\Program Files (x86)\Microsoft Visual Studio\2019\Community\VC\Tools\MSVC\14.27.29110\include\algorithm
; File C:\DS Project\DS Files\Source\ClientSource\extern\include\d3dx8math.inl
; File C:\Program Files (x86)\Microsoft Visual Studio\2019\Community\VC\Tools\MSVC\14.27.29110\include\algorithm
; File C:\DS Project\DS Files\Source\ClientSource\extern\include\d3dx8math.inl
; File C:\DS Project\DS Files\Source\ClientSource\Client\GameLib\MapOutdoorUpdate.cpp
; File C:\DS Project\DS Files\Source\ClientSource\extern\include\d3dx8math.inl
; File C:\DS Project\DS Files\Source\ClientSource\Client\GameLib\MapOutdoorUpdate.cpp
; File C:\Program Files (x86)\Microsoft Visual Studio\2019\Community\VC\Tools\MSVC\14.27.29110\include\algorithm
; File C:\DS Project\DS Files\Source\ClientSource\Client\GameLib\MapOutdoorUpdate.cpp
; File C:\Program Files (x86)\Microsoft Visual Studio\2019\Community\VC\Tools\MSVC\14.27.29110\include\xutility
; File C:\DS Project\DS Files\Source\ClientSource\Client\GameLib\MapOutdoorUpdate.cpp
; File C:\DS Project\DS Files\Source\ClientSource\extern\include\d3dx8math.inl
; File C:\DS Project\DS Files\Source\ClientSource\Client\GameLib\MapOutdoorUpdate.cpp
; File C:\DS Project\DS Files\Source\ClientSource\extern\include\d3dx8math.inl
; File C:\DS Project\DS Files\Source\ClientSource\Client\GameLib\MapOutdoorUpdate.cpp
; File C:\DS Project\DS Files\Source\ClientSource\extern\include\d3dx8math.inl
; File C:\DS Project\DS Files\Source\ClientSource\Client\GameLib\MapOutdoorUpdate.cpp
; File C:\Program Files (x86)\Microsoft Visual Studio\2019\Community\VC\Tools\MSVC\14.27.29110\include\algorithm
; File C:\DS Project\DS Files\Source\ClientSource\Client\GameLib\MapOutdoorUpdate.cpp
; File C:\Program Files (x86)\Microsoft Visual Studio\2019\Community\VC\Tools\MSVC\14.27.29110\include\xutility
; File C:\DS Project\DS Files\Source\ClientSource\Client\GameLib\MapOutdoorUpdate.cpp
; File C:\DS Project\DS Files\Source\ClientSource\extern\include\d3dx8math.inl
; File C:\DS Project\DS Files\Source\ClientSource\Client\GameLib\MapOutdoorUpdate.cpp
; File C:\DS Project\DS Files\Source\ClientSource\extern\include\d3dx8math.inl
; File C:\DS Project\DS Files\Source\ClientSource\Client\GameLib\MapOutdoorUpdate.cpp
; File C:\DS Project\DS Files\Source\ClientSource\extern\include\d3dx8math.inl
; File C:\DS Project\DS Files\Source\ClientSource\Client\GameLib\MapOutdoorUpdate.cpp
; File C:\Program Files (x86)\Microsoft Visual Studio\2019\Community\VC\Tools\MSVC\14.27.29110\include\algorithm
; File C:\Program Files (x86)\Microsoft Visual Studio\2019\Community\VC\Tools\MSVC\14.27.29110\include\utility
; File C:\Program Files (x86)\Microsoft Visual Studio\2019\Community\VC\Tools\MSVC\14.27.29110\include\algorithm
; File C:\DS Project\DS Files\Source\ClientSource\Client\GameLib\MapOutdoorUpdate.cpp
; File C:\Program Files (x86)\Microsoft Visual Studio\2019\Community\VC\Tools\MSVC\14.27.29110\include\xutility
; File C:\DS Project\DS Files\Source\ClientSource\Client\GameLib\MapOutdoorUpdate.cpp
; File C:\DS Project\DS Files\Source\ClientSource\extern\include\d3dx8math.inl
; File C:\DS Project\DS Files\Source\ClientSource\Client\GameLib\MapOutdoorUpdate.cpp
; File C:\DS Project\DS Files\Source\ClientSource\extern\include\d3dx8math.inl
; File C:\DS Project\DS Files\Source\ClientSource\Client\GameLib\MapOutdoorUpdate.cpp
; File C:\DS Project\DS Files\Source\ClientSource\extern\include\d3dx8math.inl
; File C:\DS Project\DS Files\Source\ClientSource\Client\GameLib\MapOutdoorUpdate.cpp
; File C:\Program Files (x86)\Microsoft Visual Studio\2019\Community\VC\Tools\MSVC\14.27.29110\include\algorithm
; File C:\Program Files (x86)\Microsoft Visual Studio\2019\Community\VC\Tools\MSVC\14.27.29110\include\xutility
; File C:\DS Project\DS Files\Source\ClientSource\Client\GameLib\MapOutdoorUpdate.cpp
; File C:\Program Files (x86)\Microsoft Visual Studio\2019\Community\VC\Tools\MSVC\14.27.29110\include\xutility
; File C:\DS Project\DS Files\Source\ClientSource\Client\GameLib\MapOutdoorUpdate.cpp
; File C:\DS Project\DS Files\Source\ClientSource\extern\include\d3dx8math.inl
; File C:\DS Project\DS Files\Source\ClientSource\Client\GameLib\MapOutdoorUpdate.cpp
; File C:\DS Project\DS Files\Source\ClientSource\extern\include\d3dx8math.inl
; File C:\DS Project\DS Files\Source\ClientSource\Client\GameLib\MapOutdoorUpdate.cpp
; File C:\DS Project\DS Files\Source\ClientSource\extern\include\d3dx8math.inl
; File C:\DS Project\DS Files\Source\ClientSource\Client\GameLib\MapOutdoorUpdate.cpp
; File C:\Program Files (x86)\Microsoft Visual Studio\2019\Community\VC\Tools\MSVC\14.27.29110\include\algorithm
; File C:\Program Files (x86)\Microsoft Visual Studio\2019\Community\VC\Tools\MSVC\14.27.29110\include\utility
; File C:\Program Files (x86)\Microsoft Visual Studio\2019\Community\VC\Tools\MSVC\14.27.29110\include\algorithm
; File C:\Program Files (x86)\Microsoft Visual Studio\2019\Community\VC\Tools\MSVC\14.27.29110\include\utility
; File C:\Program Files (x86)\Microsoft Visual Studio\2019\Community\VC\Tools\MSVC\14.27.29110\include\algorithm
; File C:\Program Files (x86)\Microsoft Visual Studio\2019\Community\VC\Tools\MSVC\14.27.29110\include\utility
; File C:\Program Files (x86)\Microsoft Visual Studio\2019\Community\VC\Tools\MSVC\14.27.29110\include\algorithm
; File C:\Program Files (x86)\Microsoft Visual Studio\2019\Community\VC\Tools\MSVC\14.27.29110\include\utility
; File C:\Program Files (x86)\Microsoft Visual Studio\2019\Community\VC\Tools\MSVC\14.27.29110\include\algorithm
; File C:\Program Files (x86)\Microsoft Visual Studio\2019\Community\VC\Tools\MSVC\14.27.29110\include\utility
; File C:\Program Files (x86)\Microsoft Visual Studio\2019\Community\VC\Tools\MSVC\14.27.29110\include\algorithm
; File C:\Program Files (x86)\Microsoft Visual Studio\2019\Community\VC\Tools\MSVC\14.27.29110\include\utility
; File C:\Program Files (x86)\Microsoft Visual Studio\2019\Community\VC\Tools\MSVC\14.27.29110\include\algorithm
; File C:\Program Files (x86)\Microsoft Visual Studio\2019\Community\VC\Tools\MSVC\14.27.29110\include\utility
; File C:\Program Files (x86)\Microsoft Visual Studio\2019\Community\VC\Tools\MSVC\14.27.29110\include\algorithm
; File C:\Program Files (x86)\Microsoft Visual Studio\2019\Community\VC\Tools\MSVC\14.27.29110\include\utility
; File C:\Program Files (x86)\Microsoft Visual Studio\2019\Community\VC\Tools\MSVC\14.27.29110\include\algorithm
; File C:\Program Files (x86)\Microsoft Visual Studio\2019\Community\VC\Tools\MSVC\14.27.29110\include\utility
; File C:\Program Files (x86)\Microsoft Visual Studio\2019\Community\VC\Tools\MSVC\14.27.29110\include\algorithm
; File C:\Program Files (x86)\Microsoft Visual Studio\2019\Community\VC\Tools\MSVC\14.27.29110\include\utility
; File C:\Program Files (x86)\Microsoft Visual Studio\2019\Community\VC\Tools\MSVC\14.27.29110\include\algorithm
; File C:\Program Files (x86)\Microsoft Visual Studio\2019\Community\VC\Tools\MSVC\14.27.29110\include\utility
; File C:\Program Files (x86)\Microsoft Visual Studio\2019\Community\VC\Tools\MSVC\14.27.29110\include\algorithm
;	COMDAT ??$_Partition_by_median_guess_unchecked@PAPAVCGraphicObjectInstance@@U?$_Ref_fn@UFPCBlockerDistanceSort@@@std@@@std@@YA?AU?$pair@PAPAVCGraphicObjectInstance@@PAPAV1@@0@PAPAVCGraphicObjectInstance@@0U?$_Ref_fn@UFPCBlockerDistanceSort@@@0@@Z
_TEXT	SEGMENT
tv3422 = -28						; size = 4
tv3405 = -28						; size = 4
tv3417 = -24						; size = 4
tv3409 = -24						; size = 4
tv3395 = -24						; size = 4
tv3379 = -24						; size = 4
tv3418 = -20						; size = 4
tv3404 = -20						; size = 4
tv3390 = -20						; size = 4
tv3383 = -20						; size = 4
tv3371 = -20						; size = 4
tv3357 = -20						; size = 4
tv3344 = -20						; size = 4
tv3328 = -20						; size = 4
__Pfirst$1$ = -16					; size = 4
tv3437 = -16						; size = 4
tv3430 = -16						; size = 4
tv3391 = -16						; size = 4
tv3378 = -16						; size = 4
tv3365 = -16						; size = 4
tv3352 = -16						; size = 4
__Last$1$ = -12						; size = 4
__Gfirst$1$ = -12					; size = 4
tv3366 = -12						; size = 4
tv3353 = -12						; size = 4
tv3339 = -12						; size = 4
tv3332 = -12						; size = 4
__Glast$1$ = -8						; size = 4
tv3434 = -8						; size = 4
tv3340 = -8						; size = 4
tv3327 = -8						; size = 4
__Plast$1$ = -4						; size = 4
___$ReturnUdt$ = 8					; size = 4
__First$ = 12						; size = 4
__Last$ = 16						; size = 4
__Pred$ = 20						; size = 4
??$_Partition_by_median_guess_unchecked@PAPAVCGraphicObjectInstance@@U?$_Ref_fn@UFPCBlockerDistanceSort@@@std@@@std@@YA?AU?$pair@PAPAVCGraphicObjectInstance@@PAPAV1@@0@PAPAVCGraphicObjectInstance@@0U?$_Ref_fn@UFPCBlockerDistanceSort@@@0@@Z PROC ; std::_Partition_by_median_guess_unchecked<CGraphicObjectInstance * *,std::_Ref_fn<FPCBlockerDistanceSort> >, COMDAT

; 4036 : _CONSTEXPR20 pair<_RanIt, _RanIt> _Partition_by_median_guess_unchecked(_RanIt _First, _RanIt _Last, _Pr _Pred) {

  00000	55		 push	 ebp
  00001	8b ec		 mov	 ebp, esp
  00003	83 ec 1c	 sub	 esp, 28			; 0000001cH

; 4037 :     // partition [_First, _Last), using _Pred
; 4038 :     _RanIt _Mid = _First + ((_Last - _First) >> 1); // shift for codegen

  00006	8b 4d 10	 mov	 ecx, DWORD PTR __Last$[ebp]
  00009	8b c1		 mov	 eax, ecx
  0000b	53		 push	 ebx
  0000c	56		 push	 esi

; 4039 :     _Guess_median_unchecked(_First, _Mid, _Prev_iter(_Last), _Pred);

  0000d	8b 75 14	 mov	 esi, DWORD PTR __Pred$[ebp]
  00010	83 c1 fc	 add	 ecx, -4			; fffffffcH
  00013	57		 push	 edi
  00014	8b 7d 0c	 mov	 edi, DWORD PTR __First$[ebp]
  00017	2b c7		 sub	 eax, edi
  00019	c1 f8 03	 sar	 eax, 3
  0001c	89 4d f4	 mov	 DWORD PTR __Last$1$[ebp], ecx

; 4023 :     if (40 < _Count) { // Tukey's ninther

  0001f	56		 push	 esi

; 4037 :     // partition [_First, _Last), using _Pred
; 4038 :     _RanIt _Mid = _First + ((_Last - _First) >> 1); // shift for codegen

  00020	8d 1c 87	 lea	 ebx, DWORD PTR [edi+eax*4]

; 4022 :     const _Diff _Count = _Last - _First;

  00023	8b c1		 mov	 eax, ecx
  00025	2b c7		 sub	 eax, edi

; 4037 :     // partition [_First, _Last), using _Pred
; 4038 :     _RanIt _Mid = _First + ((_Last - _First) >> 1); // shift for codegen

  00027	89 5d f0	 mov	 DWORD PTR __Pfirst$1$[ebp], ebx

; 4022 :     const _Diff _Count = _Last - _First;

  0002a	c1 f8 02	 sar	 eax, 2

; 4023 :     if (40 < _Count) { // Tukey's ninther

  0002d	83 f8 28	 cmp	 eax, 40			; 00000028H
  00030	7e 60		 jle	 SHORT $LN35@Partition_

; 4024 :         const _Diff _Step     = (_Count + 1) >> 3; // +1 can't overflow because range was made inclusive in caller

  00032	40		 inc	 eax
  00033	c1 f8 03	 sar	 eax, 3

; 4025 :         const _Diff _Two_step = _Step << 1; // note: intentionally discards low-order bit
; 4026 :         _Med3_unchecked(_First, _First + _Step, _First + _Two_step, _Pred);

  00036	8d 0c c5 00 00
	00 00		 lea	 ecx, DWORD PTR [eax*8]
  0003d	8d 1c 85 00 00
	00 00		 lea	 ebx, DWORD PTR [eax*4]
  00044	89 4d f8	 mov	 DWORD PTR tv3434[ebp], ecx
  00047	8d 04 39	 lea	 eax, DWORD PTR [ecx+edi]
  0004a	50		 push	 eax
  0004b	8d 14 3b	 lea	 edx, DWORD PTR [ebx+edi]
  0004e	52		 push	 edx
  0004f	57		 push	 edi
  00050	e8 00 00 00 00	 call	 ??$_Med3_unchecked@PAPAVCGraphicObjectInstance@@U?$_Ref_fn@UFPCBlockerDistanceSort@@@std@@@std@@YAXPAPAVCGraphicObjectInstance@@00U?$_Ref_fn@UFPCBlockerDistanceSort@@@0@@Z ; std::_Med3_unchecked<CGraphicObjectInstance * *,std::_Ref_fn<FPCBlockerDistanceSort> >

; 4027 :         _Med3_unchecked(_Mid - _Step, _Mid, _Mid + _Step, _Pred);

  00055	8b 4d f0	 mov	 ecx, DWORD PTR __Pfirst$1$[ebp]
  00058	56		 push	 esi
  00059	8d 04 0b	 lea	 eax, DWORD PTR [ebx+ecx]
  0005c	50		 push	 eax
  0005d	51		 push	 ecx
  0005e	2b cb		 sub	 ecx, ebx
  00060	51		 push	 ecx
  00061	e8 00 00 00 00	 call	 ??$_Med3_unchecked@PAPAVCGraphicObjectInstance@@U?$_Ref_fn@UFPCBlockerDistanceSort@@@std@@@std@@YAXPAPAVCGraphicObjectInstance@@00U?$_Ref_fn@UFPCBlockerDistanceSort@@@0@@Z ; std::_Med3_unchecked<CGraphicObjectInstance * *,std::_Ref_fn<FPCBlockerDistanceSort> >

; 4028 :         _Med3_unchecked(_Last - _Two_step, _Last - _Step, _Last, _Pred);

  00066	8b 45 f4	 mov	 eax, DWORD PTR __Last$1$[ebp]
  00069	8b f8		 mov	 edi, eax
  0006b	56		 push	 esi
  0006c	50		 push	 eax
  0006d	2b 45 f8	 sub	 eax, DWORD PTR tv3434[ebp]
  00070	2b fb		 sub	 edi, ebx
  00072	57		 push	 edi
  00073	50		 push	 eax
  00074	e8 00 00 00 00	 call	 ??$_Med3_unchecked@PAPAVCGraphicObjectInstance@@U?$_Ref_fn@UFPCBlockerDistanceSort@@@std@@@std@@YAXPAPAVCGraphicObjectInstance@@00U?$_Ref_fn@UFPCBlockerDistanceSort@@@0@@Z ; std::_Med3_unchecked<CGraphicObjectInstance * *,std::_Ref_fn<FPCBlockerDistanceSort> >

; 4029 :         _Med3_unchecked(_First + _Step, _Mid, _Last - _Step, _Pred);

  00079	56		 push	 esi
  0007a	57		 push	 edi
  0007b	8b 7d 0c	 mov	 edi, DWORD PTR __First$[ebp]
  0007e	ff 75 f0	 push	 DWORD PTR __Pfirst$1$[ebp]
  00081	8d 04 3b	 lea	 eax, DWORD PTR [ebx+edi]
  00084	50		 push	 eax
  00085	e8 00 00 00 00	 call	 ??$_Med3_unchecked@PAPAVCGraphicObjectInstance@@U?$_Ref_fn@UFPCBlockerDistanceSort@@@std@@@std@@YAXPAPAVCGraphicObjectInstance@@00U?$_Ref_fn@UFPCBlockerDistanceSort@@@0@@Z ; std::_Med3_unchecked<CGraphicObjectInstance * *,std::_Ref_fn<FPCBlockerDistanceSort> >

; 4030 :     } else {

  0008a	8b 5d f0	 mov	 ebx, DWORD PTR __Pfirst$1$[ebp]
  0008d	83 c4 40	 add	 esp, 64			; 00000040H
  00090	eb 0b		 jmp	 SHORT $LN36@Partition_
$LN35@Partition_:

; 4031 :         _Med3_unchecked(_First, _Mid, _Last, _Pred);

  00092	51		 push	 ecx
  00093	53		 push	 ebx
  00094	57		 push	 edi
  00095	e8 00 00 00 00	 call	 ??$_Med3_unchecked@PAPAVCGraphicObjectInstance@@U?$_Ref_fn@UFPCBlockerDistanceSort@@@std@@@std@@YAXPAPAVCGraphicObjectInstance@@00U?$_Ref_fn@UFPCBlockerDistanceSort@@@0@@Z ; std::_Med3_unchecked<CGraphicObjectInstance * *,std::_Ref_fn<FPCBlockerDistanceSort> >
  0009a	83 c4 10	 add	 esp, 16			; 00000010H
$LN36@Partition_:

; 4040 :     _RanIt _Pfirst = _Mid;
; 4041 :     _RanIt _Plast  = _Next_iter(_Pfirst);

  0009d	8d 73 04	 lea	 esi, DWORD PTR [ebx+4]
  000a0	89 75 fc	 mov	 DWORD PTR __Plast$1$[ebp], esi

; 4044 :            && !_Pred(*_Pfirst, *_Prev_iter(_Pfirst))) {

  000a3	3b fb		 cmp	 edi, ebx
  000a5	0f 83 4e 01 00
	00		 jae	 $LN198@Partition_
  000ab	0f 1f 44 00 00	 npad	 5
$LL2@Partition_:
; File C:\DS Project\DS Files\Source\ClientSource\Client\GameLib\MapOutdoorUpdate.cpp

; 197  : 		return D3DXVec3LengthSq(&(plhs->GetPosition() - m_v3Eye)) > D3DXVec3LengthSq(&(prhs->GetPosition() - m_v3Eye));

  000b0	8b 4b fc	 mov	 ecx, DWORD PTR [ebx-4]
; File C:\Program Files (x86)\Microsoft Visual Studio\2019\Community\VC\Tools\MSVC\14.27.29110\include\xutility

; 193  :         return _Fn(_STD forward<_Args>(_Vals)...);

  000b3	8d 43 fc	 lea	 eax, DWORD PTR [ebx-4]
  000b6	8b 33		 mov	 esi, DWORD PTR [ebx]
  000b8	8b 7d 14	 mov	 edi, DWORD PTR __Pred$[ebp]
  000bb	89 45 f0	 mov	 DWORD PTR tv3437[ebp], eax
; File C:\DS Project\DS Files\Source\ClientSource\Client\GameLib\MapOutdoorUpdate.cpp

; 197  : 		return D3DXVec3LengthSq(&(plhs->GetPosition() - m_v3Eye)) > D3DXVec3LengthSq(&(prhs->GetPosition() - m_v3Eye));

  000be	e8 00 00 00 00	 call	 ?GetPosition@CGraphicObjectInstance@@QBEABUD3DXVECTOR3@@XZ ; CGraphicObjectInstance::GetPosition
  000c3	8b ce		 mov	 ecx, esi
; File C:\DS Project\DS Files\Source\ClientSource\extern\include\d3dx8math.inl

; 263  :     return D3DXVECTOR3(x - v.x, y - v.y, z - v.z);

  000c5	f3 0f 10 00	 movss	 xmm0, DWORD PTR [eax]
  000c9	f3 0f 5c 07	 subss	 xmm0, DWORD PTR [edi]
  000cd	f3 0f 11 45 f8	 movss	 DWORD PTR tv3327[ebp], xmm0
  000d2	f3 0f 10 40 04	 movss	 xmm0, DWORD PTR [eax+4]
  000d7	f3 0f 5c 47 04	 subss	 xmm0, DWORD PTR [edi+4]
  000dc	f3 0f 11 45 f4	 movss	 DWORD PTR tv3332[ebp], xmm0
  000e1	f3 0f 10 40 08	 movss	 xmm0, DWORD PTR [eax+8]
  000e6	f3 0f 5c 47 08	 subss	 xmm0, DWORD PTR [edi+8]
  000eb	f3 0f 11 45 ec	 movss	 DWORD PTR tv3328[ebp], xmm0
; File C:\DS Project\DS Files\Source\ClientSource\Client\GameLib\MapOutdoorUpdate.cpp

; 197  : 		return D3DXVec3LengthSq(&(plhs->GetPosition() - m_v3Eye)) > D3DXVec3LengthSq(&(prhs->GetPosition() - m_v3Eye));

  000f0	e8 00 00 00 00	 call	 ?GetPosition@CGraphicObjectInstance@@QBEABUD3DXVECTOR3@@XZ ; CGraphicObjectInstance::GetPosition
; File C:\DS Project\DS Files\Source\ClientSource\extern\include\d3dx8math.inl

; 1253 :     return pV->x * pV->x + pV->y * pV->y + pV->z * pV->z;

  000f5	f3 0f 10 55 f8	 movss	 xmm2, DWORD PTR tv3327[ebp]

; 182  :     z = fz;

  000fa	f3 0f 10 65 f4	 movss	 xmm4, DWORD PTR tv3332[ebp]

; 1253 :     return pV->x * pV->x + pV->y * pV->y + pV->z * pV->z;

  000ff	f3 0f 59 d2	 mulss	 xmm2, xmm2

; 263  :     return D3DXVECTOR3(x - v.x, y - v.y, z - v.z);

  00103	f3 0f 10 08	 movss	 xmm1, DWORD PTR [eax]
  00107	f3 0f 10 58 04	 movss	 xmm3, DWORD PTR [eax+4]
  0010c	f3 0f 5c 5f 04	 subss	 xmm3, DWORD PTR [edi+4]
  00111	f3 0f 5c 0f	 subss	 xmm1, DWORD PTR [edi]
  00115	f3 0f 10 40 08	 movss	 xmm0, DWORD PTR [eax+8]
  0011a	f3 0f 5c 47 08	 subss	 xmm0, DWORD PTR [edi+8]

; 182  :     z = fz;

  0011f	f3 0f 59 e4	 mulss	 xmm4, xmm4
; File C:\DS Project\DS Files\Source\ClientSource\Client\GameLib\MapOutdoorUpdate.cpp

; 197  : 		return D3DXVec3LengthSq(&(plhs->GetPosition() - m_v3Eye)) > D3DXVec3LengthSq(&(prhs->GetPosition() - m_v3Eye));

  00123	f3 0f 59 db	 mulss	 xmm3, xmm3
; File C:\DS Project\DS Files\Source\ClientSource\extern\include\d3dx8math.inl

; 1253 :     return pV->x * pV->x + pV->y * pV->y + pV->z * pV->z;

  00127	f3 0f 59 c9	 mulss	 xmm1, xmm1
  0012b	f3 0f 58 e2	 addss	 xmm4, xmm2
  0012f	f3 0f 10 55 ec	 movss	 xmm2, DWORD PTR tv3328[ebp]
  00134	f3 0f 59 d2	 mulss	 xmm2, xmm2
  00138	f3 0f 58 d9	 addss	 xmm3, xmm1
  0013c	f3 0f 59 c0	 mulss	 xmm0, xmm0
  00140	f3 0f 58 e2	 addss	 xmm4, xmm2
  00144	f3 0f 58 d8	 addss	 xmm3, xmm0
; File C:\DS Project\DS Files\Source\ClientSource\Client\GameLib\MapOutdoorUpdate.cpp

; 197  : 		return D3DXVec3LengthSq(&(plhs->GetPosition() - m_v3Eye)) > D3DXVec3LengthSq(&(prhs->GetPosition() - m_v3Eye));

  00148	0f 2f e3	 comiss	 xmm4, xmm3
; File C:\Program Files (x86)\Microsoft Visual Studio\2019\Community\VC\Tools\MSVC\14.27.29110\include\algorithm

; 4044 :            && !_Pred(*_Pfirst, *_Prev_iter(_Pfirst))) {

  0014b	0f 87 a5 00 00
	00		 ja	 $LN223@Partition_
; File C:\Program Files (x86)\Microsoft Visual Studio\2019\Community\VC\Tools\MSVC\14.27.29110\include\xutility

; 193  :         return _Fn(_STD forward<_Args>(_Vals)...);

  00151	8b 75 f0	 mov	 esi, DWORD PTR tv3437[ebp]
; File C:\DS Project\DS Files\Source\ClientSource\Client\GameLib\MapOutdoorUpdate.cpp

; 197  : 		return D3DXVec3LengthSq(&(plhs->GetPosition() - m_v3Eye)) > D3DXVec3LengthSq(&(prhs->GetPosition() - m_v3Eye));

  00154	8b 0b		 mov	 ecx, DWORD PTR [ebx]
; File C:\Program Files (x86)\Microsoft Visual Studio\2019\Community\VC\Tools\MSVC\14.27.29110\include\xutility

; 193  :         return _Fn(_STD forward<_Args>(_Vals)...);

  00156	8b 7d 14	 mov	 edi, DWORD PTR __Pred$[ebp]
  00159	8b 36		 mov	 esi, DWORD PTR [esi]
; File C:\DS Project\DS Files\Source\ClientSource\Client\GameLib\MapOutdoorUpdate.cpp

; 197  : 		return D3DXVec3LengthSq(&(plhs->GetPosition() - m_v3Eye)) > D3DXVec3LengthSq(&(prhs->GetPosition() - m_v3Eye));

  0015b	e8 00 00 00 00	 call	 ?GetPosition@CGraphicObjectInstance@@QBEABUD3DXVECTOR3@@XZ ; CGraphicObjectInstance::GetPosition
  00160	8b ce		 mov	 ecx, esi
; File C:\DS Project\DS Files\Source\ClientSource\extern\include\d3dx8math.inl

; 263  :     return D3DXVECTOR3(x - v.x, y - v.y, z - v.z);

  00162	f3 0f 10 00	 movss	 xmm0, DWORD PTR [eax]
  00166	f3 0f 5c 07	 subss	 xmm0, DWORD PTR [edi]
  0016a	f3 0f 11 45 f4	 movss	 DWORD PTR tv3339[ebp], xmm0
  0016f	f3 0f 10 40 04	 movss	 xmm0, DWORD PTR [eax+4]
  00174	f3 0f 5c 47 04	 subss	 xmm0, DWORD PTR [edi+4]
  00179	f3 0f 11 45 ec	 movss	 DWORD PTR tv3344[ebp], xmm0
  0017e	f3 0f 10 40 08	 movss	 xmm0, DWORD PTR [eax+8]
  00183	f3 0f 5c 47 08	 subss	 xmm0, DWORD PTR [edi+8]
  00188	f3 0f 11 45 f8	 movss	 DWORD PTR tv3340[ebp], xmm0
; File C:\DS Project\DS Files\Source\ClientSource\Client\GameLib\MapOutdoorUpdate.cpp

; 197  : 		return D3DXVec3LengthSq(&(plhs->GetPosition() - m_v3Eye)) > D3DXVec3LengthSq(&(prhs->GetPosition() - m_v3Eye));

  0018d	e8 00 00 00 00	 call	 ?GetPosition@CGraphicObjectInstance@@QBEABUD3DXVECTOR3@@XZ ; CGraphicObjectInstance::GetPosition
; File C:\DS Project\DS Files\Source\ClientSource\extern\include\d3dx8math.inl

; 182  :     z = fz;

  00192	f3 0f 10 55 f4	 movss	 xmm2, DWORD PTR tv3339[ebp]

; 1253 :     return pV->x * pV->x + pV->y * pV->y + pV->z * pV->z;

  00197	f3 0f 10 65 ec	 movss	 xmm4, DWORD PTR tv3344[ebp]

; 182  :     z = fz;

  0019c	f3 0f 59 d2	 mulss	 xmm2, xmm2

; 263  :     return D3DXVECTOR3(x - v.x, y - v.y, z - v.z);

  001a0	f3 0f 10 08	 movss	 xmm1, DWORD PTR [eax]
  001a4	f3 0f 10 58 04	 movss	 xmm3, DWORD PTR [eax+4]
  001a9	f3 0f 5c 5f 04	 subss	 xmm3, DWORD PTR [edi+4]
  001ae	f3 0f 5c 0f	 subss	 xmm1, DWORD PTR [edi]
  001b2	f3 0f 10 40 08	 movss	 xmm0, DWORD PTR [eax+8]
  001b7	f3 0f 5c 47 08	 subss	 xmm0, DWORD PTR [edi+8]

; 1253 :     return pV->x * pV->x + pV->y * pV->y + pV->z * pV->z;

  001bc	f3 0f 59 e4	 mulss	 xmm4, xmm4
; File C:\DS Project\DS Files\Source\ClientSource\Client\GameLib\MapOutdoorUpdate.cpp

; 197  : 		return D3DXVec3LengthSq(&(plhs->GetPosition() - m_v3Eye)) > D3DXVec3LengthSq(&(prhs->GetPosition() - m_v3Eye));

  001c0	f3 0f 59 db	 mulss	 xmm3, xmm3
; File C:\DS Project\DS Files\Source\ClientSource\extern\include\d3dx8math.inl

; 1253 :     return pV->x * pV->x + pV->y * pV->y + pV->z * pV->z;

  001c4	f3 0f 59 c9	 mulss	 xmm1, xmm1
  001c8	f3 0f 58 e2	 addss	 xmm4, xmm2
  001cc	f3 0f 10 55 f8	 movss	 xmm2, DWORD PTR tv3340[ebp]
  001d1	f3 0f 59 d2	 mulss	 xmm2, xmm2
  001d5	f3 0f 58 d9	 addss	 xmm3, xmm1
  001d9	f3 0f 59 c0	 mulss	 xmm0, xmm0
  001dd	f3 0f 58 e2	 addss	 xmm4, xmm2
  001e1	f3 0f 58 d8	 addss	 xmm3, xmm0
; File C:\DS Project\DS Files\Source\ClientSource\Client\GameLib\MapOutdoorUpdate.cpp

; 197  : 		return D3DXVec3LengthSq(&(plhs->GetPosition() - m_v3Eye)) > D3DXVec3LengthSq(&(prhs->GetPosition() - m_v3Eye));

  001e5	0f 2f e3	 comiss	 xmm4, xmm3
; File C:\Program Files (x86)\Microsoft Visual Studio\2019\Community\VC\Tools\MSVC\14.27.29110\include\algorithm

; 4044 :            && !_Pred(*_Pfirst, *_Prev_iter(_Pfirst))) {

  001e8	77 0c		 ja	 SHORT $LN223@Partition_

; 4045 :         --_Pfirst;

  001ea	8b 5d f0	 mov	 ebx, DWORD PTR tv3437[ebp]
  001ed	39 5d 0c	 cmp	 DWORD PTR __First$[ebp], ebx
  001f0	0f 82 ba fe ff
	ff		 jb	 $LL2@Partition_
$LN223@Partition_:
  001f6	8b 75 fc	 mov	 esi, DWORD PTR __Plast$1$[ebp]
$LN198@Partition_:

; 4048 :     while (_Plast < _Last && !_DEBUG_LT_PRED(_Pred, *_Plast, *_Pfirst) && !_Pred(*_Pfirst, *_Plast)) {

  001f9	8b 45 10	 mov	 eax, DWORD PTR __Last$[ebp]
  001fc	3b f0		 cmp	 esi, eax
  001fe	0f 83 52 01 00
	00		 jae	 $LN224@Partition_
$LL4@Partition_:
; File C:\DS Project\DS Files\Source\ClientSource\Client\GameLib\MapOutdoorUpdate.cpp

; 197  : 		return D3DXVec3LengthSq(&(plhs->GetPosition() - m_v3Eye)) > D3DXVec3LengthSq(&(prhs->GetPosition() - m_v3Eye));

  00204	8b 4d fc	 mov	 ecx, DWORD PTR __Plast$1$[ebp]
; File C:\Program Files (x86)\Microsoft Visual Studio\2019\Community\VC\Tools\MSVC\14.27.29110\include\xutility

; 193  :         return _Fn(_STD forward<_Args>(_Vals)...);

  00207	8b 33		 mov	 esi, DWORD PTR [ebx]
  00209	8b 7d 14	 mov	 edi, DWORD PTR __Pred$[ebp]
; File C:\DS Project\DS Files\Source\ClientSource\Client\GameLib\MapOutdoorUpdate.cpp

; 197  : 		return D3DXVec3LengthSq(&(plhs->GetPosition() - m_v3Eye)) > D3DXVec3LengthSq(&(prhs->GetPosition() - m_v3Eye));

  0020c	8b 09		 mov	 ecx, DWORD PTR [ecx]
  0020e	e8 00 00 00 00	 call	 ?GetPosition@CGraphicObjectInstance@@QBEABUD3DXVECTOR3@@XZ ; CGraphicObjectInstance::GetPosition
  00213	8b ce		 mov	 ecx, esi
; File C:\DS Project\DS Files\Source\ClientSource\extern\include\d3dx8math.inl

; 263  :     return D3DXVECTOR3(x - v.x, y - v.y, z - v.z);

  00215	f3 0f 10 00	 movss	 xmm0, DWORD PTR [eax]
  00219	f3 0f 5c 07	 subss	 xmm0, DWORD PTR [edi]
  0021d	f3 0f 11 45 f0	 movss	 DWORD PTR tv3352[ebp], xmm0
  00222	f3 0f 10 40 04	 movss	 xmm0, DWORD PTR [eax+4]
  00227	f3 0f 5c 47 04	 subss	 xmm0, DWORD PTR [edi+4]
  0022c	f3 0f 11 45 ec	 movss	 DWORD PTR tv3357[ebp], xmm0
  00231	f3 0f 10 40 08	 movss	 xmm0, DWORD PTR [eax+8]
  00236	f3 0f 5c 47 08	 subss	 xmm0, DWORD PTR [edi+8]
  0023b	f3 0f 11 45 f4	 movss	 DWORD PTR tv3353[ebp], xmm0
; File C:\DS Project\DS Files\Source\ClientSource\Client\GameLib\MapOutdoorUpdate.cpp

; 197  : 		return D3DXVec3LengthSq(&(plhs->GetPosition() - m_v3Eye)) > D3DXVec3LengthSq(&(prhs->GetPosition() - m_v3Eye));

  00240	e8 00 00 00 00	 call	 ?GetPosition@CGraphicObjectInstance@@QBEABUD3DXVECTOR3@@XZ ; CGraphicObjectInstance::GetPosition
; File C:\DS Project\DS Files\Source\ClientSource\extern\include\d3dx8math.inl

; 1253 :     return pV->x * pV->x + pV->y * pV->y + pV->z * pV->z;

  00245	f3 0f 10 55 f0	 movss	 xmm2, DWORD PTR tv3352[ebp]

; 182  :     z = fz;

  0024a	f3 0f 10 65 ec	 movss	 xmm4, DWORD PTR tv3357[ebp]

; 1253 :     return pV->x * pV->x + pV->y * pV->y + pV->z * pV->z;

  0024f	f3 0f 59 d2	 mulss	 xmm2, xmm2

; 263  :     return D3DXVECTOR3(x - v.x, y - v.y, z - v.z);

  00253	f3 0f 10 08	 movss	 xmm1, DWORD PTR [eax]
  00257	f3 0f 10 58 04	 movss	 xmm3, DWORD PTR [eax+4]
  0025c	f3 0f 5c 5f 04	 subss	 xmm3, DWORD PTR [edi+4]
  00261	f3 0f 5c 0f	 subss	 xmm1, DWORD PTR [edi]
  00265	f3 0f 10 40 08	 movss	 xmm0, DWORD PTR [eax+8]
  0026a	f3 0f 5c 47 08	 subss	 xmm0, DWORD PTR [edi+8]

; 182  :     z = fz;

  0026f	f3 0f 59 e4	 mulss	 xmm4, xmm4
; File C:\DS Project\DS Files\Source\ClientSource\Client\GameLib\MapOutdoorUpdate.cpp

; 197  : 		return D3DXVec3LengthSq(&(plhs->GetPosition() - m_v3Eye)) > D3DXVec3LengthSq(&(prhs->GetPosition() - m_v3Eye));

  00273	f3 0f 59 db	 mulss	 xmm3, xmm3
; File C:\DS Project\DS Files\Source\ClientSource\extern\include\d3dx8math.inl

; 1253 :     return pV->x * pV->x + pV->y * pV->y + pV->z * pV->z;

  00277	f3 0f 59 c9	 mulss	 xmm1, xmm1
  0027b	f3 0f 58 e2	 addss	 xmm4, xmm2
  0027f	f3 0f 10 55 f4	 movss	 xmm2, DWORD PTR tv3353[ebp]
  00284	f3 0f 59 d2	 mulss	 xmm2, xmm2
  00288	f3 0f 58 d9	 addss	 xmm3, xmm1
  0028c	f3 0f 59 c0	 mulss	 xmm0, xmm0
  00290	f3 0f 58 e2	 addss	 xmm4, xmm2
  00294	f3 0f 58 d8	 addss	 xmm3, xmm0
; File C:\DS Project\DS Files\Source\ClientSource\Client\GameLib\MapOutdoorUpdate.cpp

; 197  : 		return D3DXVec3LengthSq(&(plhs->GetPosition() - m_v3Eye)) > D3DXVec3LengthSq(&(prhs->GetPosition() - m_v3Eye));

  00298	0f 2f e3	 comiss	 xmm4, xmm3
; File C:\Program Files (x86)\Microsoft Visual Studio\2019\Community\VC\Tools\MSVC\14.27.29110\include\algorithm

; 4048 :     while (_Plast < _Last && !_DEBUG_LT_PRED(_Pred, *_Plast, *_Pfirst) && !_Pred(*_Pfirst, *_Plast)) {

  0029b	0f 87 af 00 00
	00		 ja	 $LN229@Partition_
; File C:\Program Files (x86)\Microsoft Visual Studio\2019\Community\VC\Tools\MSVC\14.27.29110\include\xutility

; 193  :         return _Fn(_STD forward<_Args>(_Vals)...);

  002a1	8b 45 fc	 mov	 eax, DWORD PTR __Plast$1$[ebp]
; File C:\DS Project\DS Files\Source\ClientSource\Client\GameLib\MapOutdoorUpdate.cpp

; 197  : 		return D3DXVec3LengthSq(&(plhs->GetPosition() - m_v3Eye)) > D3DXVec3LengthSq(&(prhs->GetPosition() - m_v3Eye));

  002a4	8b 0b		 mov	 ecx, DWORD PTR [ebx]
; File C:\Program Files (x86)\Microsoft Visual Studio\2019\Community\VC\Tools\MSVC\14.27.29110\include\xutility

; 193  :         return _Fn(_STD forward<_Args>(_Vals)...);

  002a6	8b 7d 14	 mov	 edi, DWORD PTR __Pred$[ebp]
  002a9	8b 30		 mov	 esi, DWORD PTR [eax]
; File C:\DS Project\DS Files\Source\ClientSource\Client\GameLib\MapOutdoorUpdate.cpp

; 197  : 		return D3DXVec3LengthSq(&(plhs->GetPosition() - m_v3Eye)) > D3DXVec3LengthSq(&(prhs->GetPosition() - m_v3Eye));

  002ab	e8 00 00 00 00	 call	 ?GetPosition@CGraphicObjectInstance@@QBEABUD3DXVECTOR3@@XZ ; CGraphicObjectInstance::GetPosition
  002b0	8b ce		 mov	 ecx, esi
; File C:\DS Project\DS Files\Source\ClientSource\extern\include\d3dx8math.inl

; 263  :     return D3DXVECTOR3(x - v.x, y - v.y, z - v.z);

  002b2	f3 0f 10 00	 movss	 xmm0, DWORD PTR [eax]
  002b6	f3 0f 5c 07	 subss	 xmm0, DWORD PTR [edi]
  002ba	f3 0f 11 45 f0	 movss	 DWORD PTR tv3365[ebp], xmm0
  002bf	f3 0f 10 40 04	 movss	 xmm0, DWORD PTR [eax+4]
  002c4	f3 0f 5c 47 04	 subss	 xmm0, DWORD PTR [edi+4]
  002c9	f3 0f 11 45 ec	 movss	 DWORD PTR tv3371[ebp], xmm0
  002ce	f3 0f 10 40 08	 movss	 xmm0, DWORD PTR [eax+8]
  002d3	f3 0f 5c 47 08	 subss	 xmm0, DWORD PTR [edi+8]
  002d8	f3 0f 11 45 f4	 movss	 DWORD PTR tv3366[ebp], xmm0
; File C:\DS Project\DS Files\Source\ClientSource\Client\GameLib\MapOutdoorUpdate.cpp

; 197  : 		return D3DXVec3LengthSq(&(plhs->GetPosition() - m_v3Eye)) > D3DXVec3LengthSq(&(prhs->GetPosition() - m_v3Eye));

  002dd	e8 00 00 00 00	 call	 ?GetPosition@CGraphicObjectInstance@@QBEABUD3DXVECTOR3@@XZ ; CGraphicObjectInstance::GetPosition
; File C:\DS Project\DS Files\Source\ClientSource\extern\include\d3dx8math.inl

; 1253 :     return pV->x * pV->x + pV->y * pV->y + pV->z * pV->z;

  002e2	f3 0f 10 55 f0	 movss	 xmm2, DWORD PTR tv3365[ebp]

; 182  :     z = fz;

  002e7	f3 0f 10 65 ec	 movss	 xmm4, DWORD PTR tv3371[ebp]
; File C:\Program Files (x86)\Microsoft Visual Studio\2019\Community\VC\Tools\MSVC\14.27.29110\include\algorithm

; 4048 :     while (_Plast < _Last && !_DEBUG_LT_PRED(_Pred, *_Plast, *_Pfirst) && !_Pred(*_Pfirst, *_Plast)) {

  002ec	8b 75 fc	 mov	 esi, DWORD PTR __Plast$1$[ebp]
; File C:\DS Project\DS Files\Source\ClientSource\extern\include\d3dx8math.inl

; 263  :     return D3DXVECTOR3(x - v.x, y - v.y, z - v.z);

  002ef	f3 0f 10 08	 movss	 xmm1, DWORD PTR [eax]
  002f3	f3 0f 10 58 04	 movss	 xmm3, DWORD PTR [eax+4]
  002f8	f3 0f 5c 5f 04	 subss	 xmm3, DWORD PTR [edi+4]
  002fd	f3 0f 5c 0f	 subss	 xmm1, DWORD PTR [edi]
  00301	f3 0f 10 40 08	 movss	 xmm0, DWORD PTR [eax+8]
  00306	f3 0f 5c 47 08	 subss	 xmm0, DWORD PTR [edi+8]
; File C:\Program Files (x86)\Microsoft Visual Studio\2019\Community\VC\Tools\MSVC\14.27.29110\include\algorithm

; 4048 :     while (_Plast < _Last && !_DEBUG_LT_PRED(_Pred, *_Plast, *_Pfirst) && !_Pred(*_Pfirst, *_Plast)) {

  0030b	8b 45 10	 mov	 eax, DWORD PTR __Last$[ebp]
; File C:\DS Project\DS Files\Source\ClientSource\extern\include\d3dx8math.inl

; 1253 :     return pV->x * pV->x + pV->y * pV->y + pV->z * pV->z;

  0030e	f3 0f 59 d2	 mulss	 xmm2, xmm2

; 182  :     z = fz;

  00312	f3 0f 59 e4	 mulss	 xmm4, xmm4
; File C:\DS Project\DS Files\Source\ClientSource\Client\GameLib\MapOutdoorUpdate.cpp

; 197  : 		return D3DXVec3LengthSq(&(plhs->GetPosition() - m_v3Eye)) > D3DXVec3LengthSq(&(prhs->GetPosition() - m_v3Eye));

  00316	f3 0f 59 db	 mulss	 xmm3, xmm3
; File C:\DS Project\DS Files\Source\ClientSource\extern\include\d3dx8math.inl

; 1253 :     return pV->x * pV->x + pV->y * pV->y + pV->z * pV->z;

  0031a	f3 0f 59 c9	 mulss	 xmm1, xmm1
  0031e	f3 0f 58 e2	 addss	 xmm4, xmm2
  00322	f3 0f 10 55 f4	 movss	 xmm2, DWORD PTR tv3366[ebp]
  00327	f3 0f 59 d2	 mulss	 xmm2, xmm2
  0032b	f3 0f 58 d9	 addss	 xmm3, xmm1
  0032f	f3 0f 59 c0	 mulss	 xmm0, xmm0
  00333	f3 0f 58 e2	 addss	 xmm4, xmm2
  00337	f3 0f 58 d8	 addss	 xmm3, xmm0
; File C:\DS Project\DS Files\Source\ClientSource\Client\GameLib\MapOutdoorUpdate.cpp

; 197  : 		return D3DXVec3LengthSq(&(plhs->GetPosition() - m_v3Eye)) > D3DXVec3LengthSq(&(prhs->GetPosition() - m_v3Eye));

  0033b	0f 2f e3	 comiss	 xmm4, xmm3
; File C:\Program Files (x86)\Microsoft Visual Studio\2019\Community\VC\Tools\MSVC\14.27.29110\include\algorithm

; 4048 :     while (_Plast < _Last && !_DEBUG_LT_PRED(_Pred, *_Plast, *_Pfirst) && !_Pred(*_Pfirst, *_Plast)) {

  0033e	77 16		 ja	 SHORT $LN224@Partition_

; 4049 :         ++_Plast;

  00340	83 c6 04	 add	 esi, 4
  00343	89 75 fc	 mov	 DWORD PTR __Plast$1$[ebp], esi
  00346	3b f0		 cmp	 esi, eax
  00348	0f 82 b6 fe ff
	ff		 jb	 $LL4@Partition_

; 4048 :     while (_Plast < _Last && !_DEBUG_LT_PRED(_Pred, *_Plast, *_Pfirst) && !_Pred(*_Pfirst, *_Plast)) {

  0034e	eb 06		 jmp	 SHORT $LN224@Partition_
$LN229@Partition_:
  00350	8b 75 fc	 mov	 esi, DWORD PTR __Plast$1$[ebp]
  00353	8b 45 10	 mov	 eax, DWORD PTR __Last$[ebp]
$LN224@Partition_:

; 4050 :     }
; 4051 : 
; 4052 :     _RanIt _Gfirst = _Plast;

  00356	8b d6		 mov	 edx, esi

; 4053 :     _RanIt _Glast  = _Pfirst;

  00358	8b f3		 mov	 esi, ebx
$LN234@Partition_:

; 4054 : 
; 4055 :     for (;;) { // partition
; 4056 :         for (; _Gfirst < _Last; ++_Gfirst) {

  0035a	89 75 f8	 mov	 DWORD PTR __Glast$1$[ebp], esi
$LN233@Partition_:
  0035d	89 55 f4	 mov	 DWORD PTR __Gfirst$1$[ebp], edx
$LL6@Partition_:
  00360	3b d0		 cmp	 edx, eax
  00362	0f 83 62 01 00
	00		 jae	 $LN202@Partition_
$LL11@Partition_:
; File C:\DS Project\DS Files\Source\ClientSource\Client\GameLib\MapOutdoorUpdate.cpp

; 197  : 		return D3DXVec3LengthSq(&(plhs->GetPosition() - m_v3Eye)) > D3DXVec3LengthSq(&(prhs->GetPosition() - m_v3Eye));

  00368	8b 0b		 mov	 ecx, DWORD PTR [ebx]
; File C:\Program Files (x86)\Microsoft Visual Studio\2019\Community\VC\Tools\MSVC\14.27.29110\include\xutility

; 193  :         return _Fn(_STD forward<_Args>(_Vals)...);

  0036a	8b 32		 mov	 esi, DWORD PTR [edx]
  0036c	8b 7d 14	 mov	 edi, DWORD PTR __Pred$[ebp]
; File C:\DS Project\DS Files\Source\ClientSource\Client\GameLib\MapOutdoorUpdate.cpp

; 197  : 		return D3DXVec3LengthSq(&(plhs->GetPosition() - m_v3Eye)) > D3DXVec3LengthSq(&(prhs->GetPosition() - m_v3Eye));

  0036f	e8 00 00 00 00	 call	 ?GetPosition@CGraphicObjectInstance@@QBEABUD3DXVECTOR3@@XZ ; CGraphicObjectInstance::GetPosition
  00374	8b ce		 mov	 ecx, esi
; File C:\DS Project\DS Files\Source\ClientSource\extern\include\d3dx8math.inl

; 263  :     return D3DXVECTOR3(x - v.x, y - v.y, z - v.z);

  00376	f3 0f 10 00	 movss	 xmm0, DWORD PTR [eax]
  0037a	f3 0f 5c 07	 subss	 xmm0, DWORD PTR [edi]
  0037e	f3 0f 11 45 f0	 movss	 DWORD PTR tv3378[ebp], xmm0
  00383	f3 0f 10 40 04	 movss	 xmm0, DWORD PTR [eax+4]
  00388	f3 0f 5c 47 04	 subss	 xmm0, DWORD PTR [edi+4]
  0038d	f3 0f 11 45 ec	 movss	 DWORD PTR tv3383[ebp], xmm0
  00392	f3 0f 10 40 08	 movss	 xmm0, DWORD PTR [eax+8]
  00397	f3 0f 5c 47 08	 subss	 xmm0, DWORD PTR [edi+8]
  0039c	f3 0f 11 45 e8	 movss	 DWORD PTR tv3379[ebp], xmm0
; File C:\DS Project\DS Files\Source\ClientSource\Client\GameLib\MapOutdoorUpdate.cpp

; 197  : 		return D3DXVec3LengthSq(&(plhs->GetPosition() - m_v3Eye)) > D3DXVec3LengthSq(&(prhs->GetPosition() - m_v3Eye));

  003a1	e8 00 00 00 00	 call	 ?GetPosition@CGraphicObjectInstance@@QBEABUD3DXVECTOR3@@XZ ; CGraphicObjectInstance::GetPosition
; File C:\DS Project\DS Files\Source\ClientSource\extern\include\d3dx8math.inl

; 1253 :     return pV->x * pV->x + pV->y * pV->y + pV->z * pV->z;

  003a6	f3 0f 10 55 f0	 movss	 xmm2, DWORD PTR tv3378[ebp]

; 182  :     z = fz;

  003ab	f3 0f 10 65 ec	 movss	 xmm4, DWORD PTR tv3383[ebp]

; 1253 :     return pV->x * pV->x + pV->y * pV->y + pV->z * pV->z;

  003b0	f3 0f 59 d2	 mulss	 xmm2, xmm2

; 263  :     return D3DXVECTOR3(x - v.x, y - v.y, z - v.z);

  003b4	f3 0f 10 08	 movss	 xmm1, DWORD PTR [eax]
  003b8	f3 0f 10 58 04	 movss	 xmm3, DWORD PTR [eax+4]
  003bd	f3 0f 5c 5f 04	 subss	 xmm3, DWORD PTR [edi+4]
  003c2	f3 0f 5c 0f	 subss	 xmm1, DWORD PTR [edi]
  003c6	f3 0f 10 40 08	 movss	 xmm0, DWORD PTR [eax+8]
  003cb	f3 0f 5c 47 08	 subss	 xmm0, DWORD PTR [edi+8]

; 182  :     z = fz;

  003d0	f3 0f 59 e4	 mulss	 xmm4, xmm4
; File C:\DS Project\DS Files\Source\ClientSource\Client\GameLib\MapOutdoorUpdate.cpp

; 197  : 		return D3DXVec3LengthSq(&(plhs->GetPosition() - m_v3Eye)) > D3DXVec3LengthSq(&(prhs->GetPosition() - m_v3Eye));

  003d4	f3 0f 59 db	 mulss	 xmm3, xmm3
; File C:\DS Project\DS Files\Source\ClientSource\extern\include\d3dx8math.inl

; 1253 :     return pV->x * pV->x + pV->y * pV->y + pV->z * pV->z;

  003d8	f3 0f 59 c9	 mulss	 xmm1, xmm1
  003dc	f3 0f 58 e2	 addss	 xmm4, xmm2
  003e0	f3 0f 10 55 e8	 movss	 xmm2, DWORD PTR tv3379[ebp]
  003e5	f3 0f 59 d2	 mulss	 xmm2, xmm2
  003e9	f3 0f 58 d9	 addss	 xmm3, xmm1
  003ed	f3 0f 59 c0	 mulss	 xmm0, xmm0
  003f1	f3 0f 58 e2	 addss	 xmm4, xmm2
  003f5	f3 0f 58 d8	 addss	 xmm3, xmm0
; File C:\DS Project\DS Files\Source\ClientSource\Client\GameLib\MapOutdoorUpdate.cpp

; 197  : 		return D3DXVec3LengthSq(&(plhs->GetPosition() - m_v3Eye)) > D3DXVec3LengthSq(&(prhs->GetPosition() - m_v3Eye));

  003f9	0f 2f e3	 comiss	 xmm4, xmm3
; File C:\Program Files (x86)\Microsoft Visual Studio\2019\Community\VC\Tools\MSVC\14.27.29110\include\algorithm

; 4057 :             if (_DEBUG_LT_PRED(_Pred, *_Pfirst, *_Gfirst)) {

  003fc	0f 87 b3 00 00
	00		 ja	 $LN227@Partition_
; File C:\DS Project\DS Files\Source\ClientSource\Client\GameLib\MapOutdoorUpdate.cpp

; 197  : 		return D3DXVec3LengthSq(&(plhs->GetPosition() - m_v3Eye)) > D3DXVec3LengthSq(&(prhs->GetPosition() - m_v3Eye));

  00402	8b 4d f4	 mov	 ecx, DWORD PTR __Gfirst$1$[ebp]
; File C:\Program Files (x86)\Microsoft Visual Studio\2019\Community\VC\Tools\MSVC\14.27.29110\include\xutility

; 193  :         return _Fn(_STD forward<_Args>(_Vals)...);

  00405	8b 33		 mov	 esi, DWORD PTR [ebx]
  00407	8b 7d 14	 mov	 edi, DWORD PTR __Pred$[ebp]
; File C:\DS Project\DS Files\Source\ClientSource\Client\GameLib\MapOutdoorUpdate.cpp

; 197  : 		return D3DXVec3LengthSq(&(plhs->GetPosition() - m_v3Eye)) > D3DXVec3LengthSq(&(prhs->GetPosition() - m_v3Eye));

  0040a	8b 09		 mov	 ecx, DWORD PTR [ecx]
  0040c	e8 00 00 00 00	 call	 ?GetPosition@CGraphicObjectInstance@@QBEABUD3DXVECTOR3@@XZ ; CGraphicObjectInstance::GetPosition
  00411	8b ce		 mov	 ecx, esi
; File C:\DS Project\DS Files\Source\ClientSource\extern\include\d3dx8math.inl

; 263  :     return D3DXVECTOR3(x - v.x, y - v.y, z - v.z);

  00413	f3 0f 10 00	 movss	 xmm0, DWORD PTR [eax]
  00417	f3 0f 5c 07	 subss	 xmm0, DWORD PTR [edi]
  0041b	f3 0f 11 45 ec	 movss	 DWORD PTR tv3390[ebp], xmm0
  00420	f3 0f 10 40 04	 movss	 xmm0, DWORD PTR [eax+4]
  00425	f3 0f 5c 47 04	 subss	 xmm0, DWORD PTR [edi+4]
  0042a	f3 0f 11 45 e8	 movss	 DWORD PTR tv3395[ebp], xmm0
  0042f	f3 0f 10 40 08	 movss	 xmm0, DWORD PTR [eax+8]
  00434	f3 0f 5c 47 08	 subss	 xmm0, DWORD PTR [edi+8]
  00439	f3 0f 11 45 f0	 movss	 DWORD PTR tv3391[ebp], xmm0
; File C:\DS Project\DS Files\Source\ClientSource\Client\GameLib\MapOutdoorUpdate.cpp

; 197  : 		return D3DXVec3LengthSq(&(plhs->GetPosition() - m_v3Eye)) > D3DXVec3LengthSq(&(prhs->GetPosition() - m_v3Eye));

  0043e	e8 00 00 00 00	 call	 ?GetPosition@CGraphicObjectInstance@@QBEABUD3DXVECTOR3@@XZ ; CGraphicObjectInstance::GetPosition
; File C:\DS Project\DS Files\Source\ClientSource\extern\include\d3dx8math.inl

; 1253 :     return pV->x * pV->x + pV->y * pV->y + pV->z * pV->z;

  00443	f3 0f 10 55 ec	 movss	 xmm2, DWORD PTR tv3390[ebp]

; 182  :     z = fz;

  00448	f3 0f 10 65 e8	 movss	 xmm4, DWORD PTR tv3395[ebp]

; 1253 :     return pV->x * pV->x + pV->y * pV->y + pV->z * pV->z;

  0044d	f3 0f 59 d2	 mulss	 xmm2, xmm2

; 263  :     return D3DXVECTOR3(x - v.x, y - v.y, z - v.z);

  00451	f3 0f 10 08	 movss	 xmm1, DWORD PTR [eax]
  00455	f3 0f 10 58 04	 movss	 xmm3, DWORD PTR [eax+4]
  0045a	f3 0f 5c 5f 04	 subss	 xmm3, DWORD PTR [edi+4]
  0045f	f3 0f 5c 0f	 subss	 xmm1, DWORD PTR [edi]
  00463	f3 0f 10 40 08	 movss	 xmm0, DWORD PTR [eax+8]
  00468	f3 0f 5c 47 08	 subss	 xmm0, DWORD PTR [edi+8]

; 182  :     z = fz;

  0046d	f3 0f 59 e4	 mulss	 xmm4, xmm4
; File C:\DS Project\DS Files\Source\ClientSource\Client\GameLib\MapOutdoorUpdate.cpp

; 197  : 		return D3DXVec3LengthSq(&(plhs->GetPosition() - m_v3Eye)) > D3DXVec3LengthSq(&(prhs->GetPosition() - m_v3Eye));

  00471	f3 0f 59 db	 mulss	 xmm3, xmm3
; File C:\DS Project\DS Files\Source\ClientSource\extern\include\d3dx8math.inl

; 1253 :     return pV->x * pV->x + pV->y * pV->y + pV->z * pV->z;

  00475	f3 0f 59 c9	 mulss	 xmm1, xmm1
  00479	f3 0f 58 e2	 addss	 xmm4, xmm2
  0047d	f3 0f 10 55 f0	 movss	 xmm2, DWORD PTR tv3391[ebp]
  00482	f3 0f 59 d2	 mulss	 xmm2, xmm2
  00486	f3 0f 58 d9	 addss	 xmm3, xmm1
  0048a	f3 0f 59 c0	 mulss	 xmm0, xmm0
  0048e	f3 0f 58 e2	 addss	 xmm4, xmm2
  00492	f3 0f 58 d8	 addss	 xmm3, xmm0
; File C:\DS Project\DS Files\Source\ClientSource\Client\GameLib\MapOutdoorUpdate.cpp

; 197  : 		return D3DXVec3LengthSq(&(plhs->GetPosition() - m_v3Eye)) > D3DXVec3LengthSq(&(prhs->GetPosition() - m_v3Eye));

  00496	0f 2f e3	 comiss	 xmm4, xmm3
; File C:\Program Files (x86)\Microsoft Visual Studio\2019\Community\VC\Tools\MSVC\14.27.29110\include\algorithm

; 4058 :             } else if (_Pred(*_Gfirst, *_Pfirst)) {

  00499	77 2c		 ja	 SHORT $LN225@Partition_

; 4059 :                 break;
; 4060 :             } else if (_Plast != _Gfirst) {

  0049b	8b 75 fc	 mov	 esi, DWORD PTR __Plast$1$[ebp]
  0049e	8b 55 f4	 mov	 edx, DWORD PTR __Gfirst$1$[ebp]
  004a1	8d 7e 04	 lea	 edi, DWORD PTR [esi+4]
  004a4	89 7d fc	 mov	 DWORD PTR __Plast$1$[ebp], edi
  004a7	3b f2		 cmp	 esi, edx
  004a9	74 0d		 je	 SHORT $LN9@Partition_
; File C:\Program Files (x86)\Microsoft Visual Studio\2019\Community\VC\Tools\MSVC\14.27.29110\include\utility

; 106  :     _Ty _Tmp = _STD move(_Left);

  004ab	8b 0e		 mov	 ecx, DWORD PTR [esi]

; 107  :     _Left    = _STD move(_Right);

  004ad	8b 02		 mov	 eax, DWORD PTR [edx]
  004af	89 06		 mov	 DWORD PTR [esi], eax

; 108  :     _Right   = _STD move(_Tmp);

  004b1	89 0a		 mov	 DWORD PTR [edx], ecx
; File C:\Program Files (x86)\Microsoft Visual Studio\2019\Community\VC\Tools\MSVC\14.27.29110\include\algorithm

; 4063 :             } else {

  004b3	eb 03		 jmp	 SHORT $LN9@Partition_
$LN227@Partition_:

; 4057 :             if (_DEBUG_LT_PRED(_Pred, *_Pfirst, *_Gfirst)) {

  004b5	8b 55 f4	 mov	 edx, DWORD PTR __Gfirst$1$[ebp]
$LN9@Partition_:

; 4054 : 
; 4055 :     for (;;) { // partition
; 4056 :         for (; _Gfirst < _Last; ++_Gfirst) {

  004b8	83 c2 04	 add	 edx, 4
  004bb	89 55 f4	 mov	 DWORD PTR __Gfirst$1$[ebp], edx
  004be	3b 55 10	 cmp	 edx, DWORD PTR __Last$[ebp]
  004c1	0f 82 a1 fe ff
	ff		 jb	 $LL11@Partition_
$LN225@Partition_:
  004c7	8b 75 f8	 mov	 esi, DWORD PTR __Glast$1$[ebp]
$LN202@Partition_:

; 4064 :                 ++_Plast;
; 4065 :             }
; 4066 :         }
; 4067 : 
; 4068 :         for (; _First < _Glast; --_Glast) {

  004ca	8b 45 0c	 mov	 eax, DWORD PTR __First$[ebp]
  004cd	3b f0		 cmp	 esi, eax
  004cf	0f 86 79 01 00
	00		 jbe	 $LN232@Partition_
  004d5	8d 56 fc	 lea	 edx, DWORD PTR [esi-4]
  004d8	89 55 f0	 mov	 DWORD PTR tv3430[ebp], edx
  004db	0f 1f 44 00 00	 npad	 5
$LL14@Partition_:
; File C:\DS Project\DS Files\Source\ClientSource\Client\GameLib\MapOutdoorUpdate.cpp

; 197  : 		return D3DXVec3LengthSq(&(plhs->GetPosition() - m_v3Eye)) > D3DXVec3LengthSq(&(prhs->GetPosition() - m_v3Eye));

  004e0	8b 0a		 mov	 ecx, DWORD PTR [edx]
; File C:\Program Files (x86)\Microsoft Visual Studio\2019\Community\VC\Tools\MSVC\14.27.29110\include\xutility

; 193  :         return _Fn(_STD forward<_Args>(_Vals)...);

  004e2	8b 33		 mov	 esi, DWORD PTR [ebx]
  004e4	8b 7d 14	 mov	 edi, DWORD PTR __Pred$[ebp]
; File C:\DS Project\DS Files\Source\ClientSource\Client\GameLib\MapOutdoorUpdate.cpp

; 197  : 		return D3DXVec3LengthSq(&(plhs->GetPosition() - m_v3Eye)) > D3DXVec3LengthSq(&(prhs->GetPosition() - m_v3Eye));

  004e7	e8 00 00 00 00	 call	 ?GetPosition@CGraphicObjectInstance@@QBEABUD3DXVECTOR3@@XZ ; CGraphicObjectInstance::GetPosition
  004ec	8b ce		 mov	 ecx, esi
; File C:\DS Project\DS Files\Source\ClientSource\extern\include\d3dx8math.inl

; 263  :     return D3DXVECTOR3(x - v.x, y - v.y, z - v.z);

  004ee	f3 0f 10 00	 movss	 xmm0, DWORD PTR [eax]
  004f2	f3 0f 5c 07	 subss	 xmm0, DWORD PTR [edi]
  004f6	f3 0f 11 45 ec	 movss	 DWORD PTR tv3404[ebp], xmm0
  004fb	f3 0f 10 40 04	 movss	 xmm0, DWORD PTR [eax+4]
  00500	f3 0f 5c 47 04	 subss	 xmm0, DWORD PTR [edi+4]
  00505	f3 0f 11 45 e8	 movss	 DWORD PTR tv3409[ebp], xmm0
  0050a	f3 0f 10 40 08	 movss	 xmm0, DWORD PTR [eax+8]
  0050f	f3 0f 5c 47 08	 subss	 xmm0, DWORD PTR [edi+8]
  00514	f3 0f 11 45 e4	 movss	 DWORD PTR tv3405[ebp], xmm0
; File C:\DS Project\DS Files\Source\ClientSource\Client\GameLib\MapOutdoorUpdate.cpp

; 197  : 		return D3DXVec3LengthSq(&(plhs->GetPosition() - m_v3Eye)) > D3DXVec3LengthSq(&(prhs->GetPosition() - m_v3Eye));

  00519	e8 00 00 00 00	 call	 ?GetPosition@CGraphicObjectInstance@@QBEABUD3DXVECTOR3@@XZ ; CGraphicObjectInstance::GetPosition
; File C:\DS Project\DS Files\Source\ClientSource\extern\include\d3dx8math.inl

; 1253 :     return pV->x * pV->x + pV->y * pV->y + pV->z * pV->z;

  0051e	f3 0f 10 55 ec	 movss	 xmm2, DWORD PTR tv3404[ebp]

; 182  :     z = fz;

  00523	f3 0f 10 65 e8	 movss	 xmm4, DWORD PTR tv3409[ebp]

; 1253 :     return pV->x * pV->x + pV->y * pV->y + pV->z * pV->z;

  00528	f3 0f 59 d2	 mulss	 xmm2, xmm2

; 263  :     return D3DXVECTOR3(x - v.x, y - v.y, z - v.z);

  0052c	f3 0f 10 08	 movss	 xmm1, DWORD PTR [eax]
  00530	f3 0f 10 58 04	 movss	 xmm3, DWORD PTR [eax+4]
  00535	f3 0f 5c 5f 04	 subss	 xmm3, DWORD PTR [edi+4]
  0053a	f3 0f 5c 0f	 subss	 xmm1, DWORD PTR [edi]
  0053e	f3 0f 10 40 08	 movss	 xmm0, DWORD PTR [eax+8]
  00543	f3 0f 5c 47 08	 subss	 xmm0, DWORD PTR [edi+8]

; 182  :     z = fz;

  00548	f3 0f 59 e4	 mulss	 xmm4, xmm4
; File C:\DS Project\DS Files\Source\ClientSource\Client\GameLib\MapOutdoorUpdate.cpp

; 197  : 		return D3DXVec3LengthSq(&(plhs->GetPosition() - m_v3Eye)) > D3DXVec3LengthSq(&(prhs->GetPosition() - m_v3Eye));

  0054c	f3 0f 59 db	 mulss	 xmm3, xmm3
; File C:\DS Project\DS Files\Source\ClientSource\extern\include\d3dx8math.inl

; 1253 :     return pV->x * pV->x + pV->y * pV->y + pV->z * pV->z;

  00550	f3 0f 59 c9	 mulss	 xmm1, xmm1
  00554	f3 0f 58 e2	 addss	 xmm4, xmm2
  00558	f3 0f 10 55 e4	 movss	 xmm2, DWORD PTR tv3405[ebp]
  0055d	f3 0f 59 d2	 mulss	 xmm2, xmm2
  00561	f3 0f 58 d9	 addss	 xmm3, xmm1
  00565	f3 0f 59 c0	 mulss	 xmm0, xmm0
  00569	f3 0f 58 e2	 addss	 xmm4, xmm2
  0056d	f3 0f 58 d8	 addss	 xmm3, xmm0
; File C:\DS Project\DS Files\Source\ClientSource\Client\GameLib\MapOutdoorUpdate.cpp

; 197  : 		return D3DXVec3LengthSq(&(plhs->GetPosition() - m_v3Eye)) > D3DXVec3LengthSq(&(prhs->GetPosition() - m_v3Eye));

  00571	0f 2f e3	 comiss	 xmm4, xmm3
; File C:\Program Files (x86)\Microsoft Visual Studio\2019\Community\VC\Tools\MSVC\14.27.29110\include\algorithm

; 4069 :             if (_DEBUG_LT_PRED(_Pred, *_Prev_iter(_Glast), *_Pfirst)) {

  00574	0f 87 ad 00 00
	00		 ja	 $LN230@Partition_
; File C:\Program Files (x86)\Microsoft Visual Studio\2019\Community\VC\Tools\MSVC\14.27.29110\include\xutility

; 193  :         return _Fn(_STD forward<_Args>(_Vals)...);

  0057a	8b 75 f0	 mov	 esi, DWORD PTR tv3430[ebp]
; File C:\DS Project\DS Files\Source\ClientSource\Client\GameLib\MapOutdoorUpdate.cpp

; 197  : 		return D3DXVec3LengthSq(&(plhs->GetPosition() - m_v3Eye)) > D3DXVec3LengthSq(&(prhs->GetPosition() - m_v3Eye));

  0057d	8b 0b		 mov	 ecx, DWORD PTR [ebx]
; File C:\Program Files (x86)\Microsoft Visual Studio\2019\Community\VC\Tools\MSVC\14.27.29110\include\xutility

; 193  :         return _Fn(_STD forward<_Args>(_Vals)...);

  0057f	8b 7d 14	 mov	 edi, DWORD PTR __Pred$[ebp]
  00582	8b 36		 mov	 esi, DWORD PTR [esi]
; File C:\DS Project\DS Files\Source\ClientSource\Client\GameLib\MapOutdoorUpdate.cpp

; 197  : 		return D3DXVec3LengthSq(&(plhs->GetPosition() - m_v3Eye)) > D3DXVec3LengthSq(&(prhs->GetPosition() - m_v3Eye));

  00584	e8 00 00 00 00	 call	 ?GetPosition@CGraphicObjectInstance@@QBEABUD3DXVECTOR3@@XZ ; CGraphicObjectInstance::GetPosition
  00589	8b ce		 mov	 ecx, esi
; File C:\DS Project\DS Files\Source\ClientSource\extern\include\d3dx8math.inl

; 263  :     return D3DXVECTOR3(x - v.x, y - v.y, z - v.z);

  0058b	f3 0f 10 00	 movss	 xmm0, DWORD PTR [eax]
  0058f	f3 0f 5c 07	 subss	 xmm0, DWORD PTR [edi]
  00593	f3 0f 11 45 e8	 movss	 DWORD PTR tv3417[ebp], xmm0
  00598	f3 0f 10 40 04	 movss	 xmm0, DWORD PTR [eax+4]
  0059d	f3 0f 5c 47 04	 subss	 xmm0, DWORD PTR [edi+4]
  005a2	f3 0f 11 45 e4	 movss	 DWORD PTR tv3422[ebp], xmm0
  005a7	f3 0f 10 40 08	 movss	 xmm0, DWORD PTR [eax+8]
  005ac	f3 0f 5c 47 08	 subss	 xmm0, DWORD PTR [edi+8]
  005b1	f3 0f 11 45 ec	 movss	 DWORD PTR tv3418[ebp], xmm0
; File C:\DS Project\DS Files\Source\ClientSource\Client\GameLib\MapOutdoorUpdate.cpp

; 197  : 		return D3DXVec3LengthSq(&(plhs->GetPosition() - m_v3Eye)) > D3DXVec3LengthSq(&(prhs->GetPosition() - m_v3Eye));

  005b6	e8 00 00 00 00	 call	 ?GetPosition@CGraphicObjectInstance@@QBEABUD3DXVECTOR3@@XZ ; CGraphicObjectInstance::GetPosition
; File C:\DS Project\DS Files\Source\ClientSource\extern\include\d3dx8math.inl

; 1253 :     return pV->x * pV->x + pV->y * pV->y + pV->z * pV->z;

  005bb	f3 0f 10 55 e8	 movss	 xmm2, DWORD PTR tv3417[ebp]

; 182  :     z = fz;

  005c0	f3 0f 10 65 e4	 movss	 xmm4, DWORD PTR tv3422[ebp]

; 1253 :     return pV->x * pV->x + pV->y * pV->y + pV->z * pV->z;

  005c5	f3 0f 59 d2	 mulss	 xmm2, xmm2

; 263  :     return D3DXVECTOR3(x - v.x, y - v.y, z - v.z);

  005c9	f3 0f 10 18	 movss	 xmm3, DWORD PTR [eax]
  005cd	f3 0f 5c 1f	 subss	 xmm3, DWORD PTR [edi]
  005d1	f3 0f 10 40 04	 movss	 xmm0, DWORD PTR [eax+4]
  005d6	f3 0f 5c 47 04	 subss	 xmm0, DWORD PTR [edi+4]
  005db	f3 0f 10 48 08	 movss	 xmm1, DWORD PTR [eax+8]
  005e0	f3 0f 5c 4f 08	 subss	 xmm1, DWORD PTR [edi+8]

; 182  :     z = fz;

  005e5	f3 0f 59 e4	 mulss	 xmm4, xmm4

; 1253 :     return pV->x * pV->x + pV->y * pV->y + pV->z * pV->z;

  005e9	f3 0f 59 db	 mulss	 xmm3, xmm3
; File C:\DS Project\DS Files\Source\ClientSource\Client\GameLib\MapOutdoorUpdate.cpp

; 197  : 		return D3DXVec3LengthSq(&(plhs->GetPosition() - m_v3Eye)) > D3DXVec3LengthSq(&(prhs->GetPosition() - m_v3Eye));

  005ed	f3 0f 59 c0	 mulss	 xmm0, xmm0
; File C:\DS Project\DS Files\Source\ClientSource\extern\include\d3dx8math.inl

; 1253 :     return pV->x * pV->x + pV->y * pV->y + pV->z * pV->z;

  005f1	f3 0f 58 e2	 addss	 xmm4, xmm2
  005f5	f3 0f 10 55 ec	 movss	 xmm2, DWORD PTR tv3418[ebp]
  005fa	f3 0f 59 d2	 mulss	 xmm2, xmm2
  005fe	f3 0f 58 d8	 addss	 xmm3, xmm0
  00602	f3 0f 59 c9	 mulss	 xmm1, xmm1
  00606	f3 0f 58 e2	 addss	 xmm4, xmm2
  0060a	f3 0f 58 d9	 addss	 xmm3, xmm1
; File C:\DS Project\DS Files\Source\ClientSource\Client\GameLib\MapOutdoorUpdate.cpp

; 197  : 		return D3DXVec3LengthSq(&(plhs->GetPosition() - m_v3Eye)) > D3DXVec3LengthSq(&(prhs->GetPosition() - m_v3Eye));

  0060e	0f 2f e3	 comiss	 xmm4, xmm3
; File C:\Program Files (x86)\Microsoft Visual Studio\2019\Community\VC\Tools\MSVC\14.27.29110\include\algorithm

; 4070 :             } else if (_Pred(*_Pfirst, *_Prev_iter(_Glast))) {

  00611	77 33		 ja	 SHORT $LN231@Partition_

; 4071 :                 break;
; 4072 :             } else if (--_Pfirst != _Prev_iter(_Glast)) {

  00613	8b 55 f0	 mov	 edx, DWORD PTR tv3430[ebp]
  00616	83 eb 04	 sub	 ebx, 4
  00619	3b da		 cmp	 ebx, edx
  0061b	74 0d		 je	 SHORT $LN12@Partition_
; File C:\Program Files (x86)\Microsoft Visual Studio\2019\Community\VC\Tools\MSVC\14.27.29110\include\utility

; 106  :     _Ty _Tmp = _STD move(_Left);

  0061d	8b 0b		 mov	 ecx, DWORD PTR [ebx]

; 107  :     _Left    = _STD move(_Right);

  0061f	8b 02		 mov	 eax, DWORD PTR [edx]
  00621	89 03		 mov	 DWORD PTR [ebx], eax

; 108  :     _Right   = _STD move(_Tmp);

  00623	89 0a		 mov	 DWORD PTR [edx], ecx
; File C:\Program Files (x86)\Microsoft Visual Studio\2019\Community\VC\Tools\MSVC\14.27.29110\include\algorithm

; 4069 :             if (_DEBUG_LT_PRED(_Pred, *_Prev_iter(_Glast), *_Pfirst)) {

  00625	eb 03		 jmp	 SHORT $LN12@Partition_
$LN230@Partition_:
  00627	8b 55 f0	 mov	 edx, DWORD PTR tv3430[ebp]
$LN12@Partition_:

; 4064 :                 ++_Plast;
; 4065 :             }
; 4066 :         }
; 4067 : 
; 4068 :         for (; _First < _Glast; --_Glast) {

  0062a	8b 75 f8	 mov	 esi, DWORD PTR __Glast$1$[ebp]
  0062d	83 ea 04	 sub	 edx, 4
  00630	8b 45 0c	 mov	 eax, DWORD PTR __First$[ebp]
  00633	83 ee 04	 sub	 esi, 4
  00636	89 75 f8	 mov	 DWORD PTR __Glast$1$[ebp], esi
  00639	89 55 f0	 mov	 DWORD PTR tv3430[ebp], edx
  0063c	3b c6		 cmp	 eax, esi
  0063e	0f 82 9c fe ff
	ff		 jb	 $LL14@Partition_

; 4070 :             } else if (_Pred(*_Pfirst, *_Prev_iter(_Glast))) {

  00644	eb 06		 jmp	 SHORT $LN226@Partition_
$LN231@Partition_:
  00646	8b 75 f8	 mov	 esi, DWORD PTR __Glast$1$[ebp]
  00649	8b 45 0c	 mov	 eax, DWORD PTR __First$[ebp]
$LN226@Partition_:

; 4073 :                 _STD iter_swap(_Pfirst, _Prev_iter(_Glast));
; 4074 :             }
; 4075 :         }
; 4076 : 
; 4077 :         if (_Glast == _First && _Gfirst == _Last) {

  0064c	3b f0		 cmp	 esi, eax
$LN232@Partition_:
  0064e	8b 55 f4	 mov	 edx, DWORD PTR __Gfirst$1$[ebp]
  00651	75 33		 jne	 SHORT $LN27@Partition_
  00653	3b 55 10	 cmp	 edx, DWORD PTR __Last$[ebp]
  00656	74 79		 je	 SHORT $LN204@Partition_

; 4079 :         }
; 4080 : 
; 4081 :         if (_Glast == _First) { // no room at bottom, rotate pivot upward
; 4082 :             if (_Plast != _Gfirst) {

  00658	8b 75 fc	 mov	 esi, DWORD PTR __Plast$1$[ebp]
  0065b	3b f2		 cmp	 esi, edx
  0065d	74 08		 je	 SHORT $LN179@Partition_
; File C:\Program Files (x86)\Microsoft Visual Studio\2019\Community\VC\Tools\MSVC\14.27.29110\include\utility

; 106  :     _Ty _Tmp = _STD move(_Left);

  0065f	8b 0b		 mov	 ecx, DWORD PTR [ebx]

; 107  :     _Left    = _STD move(_Right);

  00661	8b 06		 mov	 eax, DWORD PTR [esi]
  00663	89 03		 mov	 DWORD PTR [ebx], eax

; 108  :     _Right   = _STD move(_Tmp);

  00665	89 0e		 mov	 DWORD PTR [esi], ecx
$LN179@Partition_:

; 107  :     _Left    = _STD move(_Right);

  00667	8b 02		 mov	 eax, DWORD PTR [edx]
; File C:\Program Files (x86)\Microsoft Visual Studio\2019\Community\VC\Tools\MSVC\14.27.29110\include\algorithm

; 4086 :             ++_Plast;

  00669	83 c6 04	 add	 esi, 4
; File C:\Program Files (x86)\Microsoft Visual Studio\2019\Community\VC\Tools\MSVC\14.27.29110\include\utility

; 106  :     _Ty _Tmp = _STD move(_Left);

  0066c	8b 0b		 mov	 ecx, DWORD PTR [ebx]

; 107  :     _Left    = _STD move(_Right);

  0066e	89 03		 mov	 DWORD PTR [ebx], eax
; File C:\Program Files (x86)\Microsoft Visual Studio\2019\Community\VC\Tools\MSVC\14.27.29110\include\algorithm

; 4088 :             ++_Pfirst;

  00670	83 c3 04	 add	 ebx, 4

; 4089 :             ++_Gfirst;

  00673	8b 45 10	 mov	 eax, DWORD PTR __Last$[ebp]
  00676	89 75 fc	 mov	 DWORD PTR __Plast$1$[ebp], esi
  00679	8b 75 f8	 mov	 esi, DWORD PTR __Glast$1$[ebp]
; File C:\Program Files (x86)\Microsoft Visual Studio\2019\Community\VC\Tools\MSVC\14.27.29110\include\utility

; 108  :     _Right   = _STD move(_Tmp);

  0067c	89 0a		 mov	 DWORD PTR [edx], ecx
; File C:\Program Files (x86)\Microsoft Visual Studio\2019\Community\VC\Tools\MSVC\14.27.29110\include\algorithm

; 4089 :             ++_Gfirst;

  0067e	83 c2 04	 add	 edx, 4
  00681	e9 d7 fc ff ff	 jmp	 $LN233@Partition_
$LN27@Partition_:

; 4090 :         } else if (_Gfirst == _Last) { // no room at top, rotate pivot downward

  00686	83 c6 fc	 add	 esi, -4			; fffffffcH
  00689	89 75 f8	 mov	 DWORD PTR __Glast$1$[ebp], esi
  0068c	3b 55 10	 cmp	 edx, DWORD PTR __Last$[ebp]
  0068f	75 2d		 jne	 SHORT $LN30@Partition_

; 4091 :             if (--_Glast != --_Pfirst) {

  00691	83 eb 04	 sub	 ebx, 4
  00694	3b f3		 cmp	 esi, ebx
  00696	74 0a		 je	 SHORT $LN214@Partition_
; File C:\Program Files (x86)\Microsoft Visual Studio\2019\Community\VC\Tools\MSVC\14.27.29110\include\utility

; 106  :     _Ty _Tmp = _STD move(_Left);

  00698	8b 0e		 mov	 ecx, DWORD PTR [esi]

; 107  :     _Left    = _STD move(_Right);

  0069a	8b 03		 mov	 eax, DWORD PTR [ebx]
  0069c	89 06		 mov	 DWORD PTR [esi], eax

; 108  :     _Right   = _STD move(_Tmp);

  0069e	89 0b		 mov	 DWORD PTR [ebx], ecx
  006a0	eb 02		 jmp	 SHORT $LN187@Partition_
$LN214@Partition_:
  006a2	8b 0b		 mov	 ecx, DWORD PTR [ebx]
$LN187@Partition_:
; File C:\Program Files (x86)\Microsoft Visual Studio\2019\Community\VC\Tools\MSVC\14.27.29110\include\algorithm

; 4095 :             _STD iter_swap(_Pfirst, --_Plast);

  006a4	8b 75 fc	 mov	 esi, DWORD PTR __Plast$1$[ebp]
  006a7	83 ee 04	 sub	 esi, 4
  006aa	89 75 fc	 mov	 DWORD PTR __Plast$1$[ebp], esi
; File C:\Program Files (x86)\Microsoft Visual Studio\2019\Community\VC\Tools\MSVC\14.27.29110\include\utility

; 107  :     _Left    = _STD move(_Right);

  006ad	8b 06		 mov	 eax, DWORD PTR [esi]
  006af	89 03		 mov	 DWORD PTR [ebx], eax
; File C:\Program Files (x86)\Microsoft Visual Studio\2019\Community\VC\Tools\MSVC\14.27.29110\include\algorithm

; 4096 :         } else {

  006b1	8b 45 10	 mov	 eax, DWORD PTR __Last$[ebp]
; File C:\Program Files (x86)\Microsoft Visual Studio\2019\Community\VC\Tools\MSVC\14.27.29110\include\utility

; 108  :     _Right   = _STD move(_Tmp);

  006b4	89 0e		 mov	 DWORD PTR [esi], ecx
; File C:\Program Files (x86)\Microsoft Visual Studio\2019\Community\VC\Tools\MSVC\14.27.29110\include\algorithm

; 4096 :         } else {

  006b6	8b 75 f8	 mov	 esi, DWORD PTR __Glast$1$[ebp]
  006b9	e9 a2 fc ff ff	 jmp	 $LL6@Partition_
$LN30@Partition_:
; File C:\Program Files (x86)\Microsoft Visual Studio\2019\Community\VC\Tools\MSVC\14.27.29110\include\utility

; 106  :     _Ty _Tmp = _STD move(_Left);

  006be	8b 0a		 mov	 ecx, DWORD PTR [edx]

; 107  :     _Left    = _STD move(_Right);

  006c0	8b 06		 mov	 eax, DWORD PTR [esi]
  006c2	89 02		 mov	 DWORD PTR [edx], eax
; File C:\Program Files (x86)\Microsoft Visual Studio\2019\Community\VC\Tools\MSVC\14.27.29110\include\algorithm

; 4098 :             ++_Gfirst;

  006c4	83 c2 04	 add	 edx, 4

; 4100 :     }

  006c7	8b 45 10	 mov	 eax, DWORD PTR __Last$[ebp]
; File C:\Program Files (x86)\Microsoft Visual Studio\2019\Community\VC\Tools\MSVC\14.27.29110\include\utility

; 108  :     _Right   = _STD move(_Tmp);

  006ca	89 0e		 mov	 DWORD PTR [esi], ecx
; File C:\Program Files (x86)\Microsoft Visual Studio\2019\Community\VC\Tools\MSVC\14.27.29110\include\algorithm

; 4100 :     }

  006cc	e9 89 fc ff ff	 jmp	 $LN234@Partition_
$LN204@Partition_:
; File C:\Program Files (x86)\Microsoft Visual Studio\2019\Community\VC\Tools\MSVC\14.27.29110\include\utility

; 192  :         : first(_STD forward<_Other1>(_Val1)), second(_STD forward<_Other2>(_Val2)) {}

  006d1	8b 45 08	 mov	 eax, DWORD PTR ___$ReturnUdt$[ebp]
  006d4	8b 4d fc	 mov	 ecx, DWORD PTR __Plast$1$[ebp]
; File C:\Program Files (x86)\Microsoft Visual Studio\2019\Community\VC\Tools\MSVC\14.27.29110\include\algorithm

; 4078 :             return pair<_RanIt, _RanIt>(_Pfirst, _Plast);

  006d7	5f		 pop	 edi
  006d8	5e		 pop	 esi
; File C:\Program Files (x86)\Microsoft Visual Studio\2019\Community\VC\Tools\MSVC\14.27.29110\include\utility

; 192  :         : first(_STD forward<_Other1>(_Val1)), second(_STD forward<_Other2>(_Val2)) {}

  006d9	89 18		 mov	 DWORD PTR [eax], ebx
  006db	89 48 04	 mov	 DWORD PTR [eax+4], ecx
; File C:\Program Files (x86)\Microsoft Visual Studio\2019\Community\VC\Tools\MSVC\14.27.29110\include\algorithm

; 4078 :             return pair<_RanIt, _RanIt>(_Pfirst, _Plast);

  006de	5b		 pop	 ebx

; 4101 : }

  006df	8b e5		 mov	 esp, ebp
  006e1	5d		 pop	 ebp
  006e2	c3		 ret	 0
??$_Partition_by_median_guess_unchecked@PAPAVCGraphicObjectInstance@@U?$_Ref_fn@UFPCBlockerDistanceSort@@@std@@@std@@YA?AU?$pair@PAPAVCGraphicObjectInstance@@PAPAV1@@0@PAPAVCGraphicObjectInstance@@0U?$_Ref_fn@UFPCBlockerDistanceSort@@@0@@Z ENDP ; std::_Partition_by_median_guess_unchecked<CGraphicObjectInstance * *,std::_Ref_fn<FPCBlockerDistanceSort> >
_TEXT	ENDS
; Function compile flags: /Ogtp
; File C:\Program Files (x86)\Microsoft Visual Studio\2019\Community\VC\Tools\MSVC\14.27.29110\include\algorithm
; File C:\DS Project\DS Files\Source\ClientSource\Client\GameLib\MapOutdoorUpdate.cpp
; File C:\Program Files (x86)\Microsoft Visual Studio\2019\Community\VC\Tools\MSVC\14.27.29110\include\xutility
; File C:\DS Project\DS Files\Source\ClientSource\Client\GameLib\MapOutdoorUpdate.cpp
; File C:\DS Project\DS Files\Source\ClientSource\extern\include\d3dx8math.inl
; File C:\DS Project\DS Files\Source\ClientSource\Client\GameLib\MapOutdoorUpdate.cpp
; File C:\DS Project\DS Files\Source\ClientSource\extern\include\d3dx8math.inl
; File C:\Program Files (x86)\Microsoft Visual Studio\2019\Community\VC\Tools\MSVC\14.27.29110\include\algorithm
; File C:\DS Project\DS Files\Source\ClientSource\extern\include\d3dx8math.inl
; File C:\Program Files (x86)\Microsoft Visual Studio\2019\Community\VC\Tools\MSVC\14.27.29110\include\algorithm
; File C:\DS Project\DS Files\Source\ClientSource\extern\include\d3dx8math.inl
; File C:\Program Files (x86)\Microsoft Visual Studio\2019\Community\VC\Tools\MSVC\14.27.29110\include\algorithm
; File C:\DS Project\DS Files\Source\ClientSource\extern\include\d3dx8math.inl
; File C:\DS Project\DS Files\Source\ClientSource\Client\GameLib\MapOutdoorUpdate.cpp
; File C:\DS Project\DS Files\Source\ClientSource\extern\include\d3dx8math.inl
; File C:\Program Files (x86)\Microsoft Visual Studio\2019\Community\VC\Tools\MSVC\14.27.29110\include\algorithm
; File C:\DS Project\DS Files\Source\ClientSource\Client\GameLib\MapOutdoorUpdate.cpp
; File C:\DS Project\DS Files\Source\ClientSource\extern\include\d3dx8math.inl
; File C:\DS Project\DS Files\Source\ClientSource\Client\GameLib\MapOutdoorUpdate.cpp
; File C:\DS Project\DS Files\Source\ClientSource\extern\include\d3dx8math.inl
; File C:\Program Files (x86)\Microsoft Visual Studio\2019\Community\VC\Tools\MSVC\14.27.29110\include\algorithm
; File C:\DS Project\DS Files\Source\ClientSource\extern\include\d3dx8math.inl
; File C:\Program Files (x86)\Microsoft Visual Studio\2019\Community\VC\Tools\MSVC\14.27.29110\include\algorithm
; File C:\DS Project\DS Files\Source\ClientSource\extern\include\d3dx8math.inl
; File C:\DS Project\DS Files\Source\ClientSource\Client\GameLib\MapOutdoorUpdate.cpp
; File C:\DS Project\DS Files\Source\ClientSource\extern\include\d3dx8math.inl
; File C:\DS Project\DS Files\Source\ClientSource\Client\GameLib\MapOutdoorUpdate.cpp
; File C:\Program Files (x86)\Microsoft Visual Studio\2019\Community\VC\Tools\MSVC\14.27.29110\include\algorithm
;	COMDAT ??$_Make_heap_unchecked@PAPAVCGraphicObjectInstance@@U?$_Ref_fn@UFPCBlockerDistanceSort@@@std@@@std@@YAXPAPAVCGraphicObjectInstance@@0U?$_Ref_fn@UFPCBlockerDistanceSort@@@0@@Z
_TEXT	SEGMENT
tv1112 = -36						; size = 4
__Idx$1$ = -32						; size = 4
tv1110 = -32						; size = 4
tv1090 = -32						; size = 4
tv1085 = -28						; size = 4
tv1069 = -28						; size = 4
tv1086 = -24						; size = 4
tv1068 = -24						; size = 4
tv1073 = -20						; size = 4
__Val$1$ = -16						; size = 4
__Hole$1$ = -12						; size = 4
__Hole$1$ = -8						; size = 4
__Max_sequence_non_leaf$1$ = -4				; size = 4
__First$ = 8						; size = 4
__Last$ = 12						; size = 4
__Pred$ = 16						; size = 4
??$_Make_heap_unchecked@PAPAVCGraphicObjectInstance@@U?$_Ref_fn@UFPCBlockerDistanceSort@@@std@@@std@@YAXPAPAVCGraphicObjectInstance@@0U?$_Ref_fn@UFPCBlockerDistanceSort@@@0@@Z PROC ; std::_Make_heap_unchecked<CGraphicObjectInstance * *,std::_Ref_fn<FPCBlockerDistanceSort> >, COMDAT

; 3416 : _CONSTEXPR20 void _Make_heap_unchecked(_RanIt _First, _RanIt _Last, _Pr _Pred) {

  00000	55		 push	 ebp
  00001	8b ec		 mov	 ebp, esp

; 3417 :     // make nontrivial [_First, _Last) into a heap, using _Pred
; 3418 :     using _Diff   = _Iter_diff_t<_RanIt>;
; 3419 :     _Diff _Bottom = _Last - _First;

  00003	8b 45 0c	 mov	 eax, DWORD PTR __Last$[ebp]
  00006	83 ec 24	 sub	 esp, 36			; 00000024H
  00009	8b 55 08	 mov	 edx, DWORD PTR __First$[ebp]
  0000c	2b c2		 sub	 eax, edx
  0000e	c1 f8 02	 sar	 eax, 2

; 3420 :     for (_Diff _Hole = _Bottom >> 1; 0 < _Hole;) { // shift for codegen

  00011	8b c8		 mov	 ecx, eax
  00013	89 45 0c	 mov	 DWORD PTR __Last$[ebp], eax
  00016	d1 f9		 sar	 ecx, 1
  00018	85 c9		 test	 ecx, ecx
  0001a	0f 8e d6 01 00
	00		 jle	 $LN3@Make_heap_

; 3363 :     const _Diff _Max_sequence_non_leaf = (_Bottom - 1) >> 1; // shift for codegen

  00020	53		 push	 ebx
  00021	48		 dec	 eax
  00022	56		 push	 esi
  00023	89 45 dc	 mov	 DWORD PTR tv1112[ebp], eax
  00026	d1 f8		 sar	 eax, 1
  00028	57		 push	 edi
  00029	8b 7d 10	 mov	 edi, DWORD PTR __Pred$[ebp]
  0002c	89 45 fc	 mov	 DWORD PTR __Max_sequence_non_leaf$1$[ebp], eax
  0002f	90		 npad	 1
$LL2@Make_heap_:

; 3421 :         // reheap top half, bottom to top
; 3422 :         --_Hole;
; 3423 :         _Iter_value_t<_RanIt> _Val = _STD move(*(_First + _Hole));

  00030	8b 44 8a fc	 mov	 eax, DWORD PTR [edx+ecx*4-4]
  00034	49		 dec	 ecx

; 3424 :         _Pop_heap_hole_by_index(_First, _Hole, _Bottom, _STD move(_Val), _Pred);

  00035	8b f7		 mov	 esi, edi
  00037	89 45 f0	 mov	 DWORD PTR __Val$1$[ebp], eax
  0003a	8b d9		 mov	 ebx, ecx
  0003c	89 4d f8	 mov	 DWORD PTR __Hole$1$[ebp], ecx

; 3359 :     _Diff _Idx       = _Hole;

  0003f	8b c1		 mov	 eax, ecx

; 3424 :         _Pop_heap_hole_by_index(_First, _Hole, _Bottom, _STD move(_Val), _Pred);

  00041	89 4d f4	 mov	 DWORD PTR __Hole$1$[ebp], ecx

; 3364 :     while (_Idx < _Max_sequence_non_leaf) { // move _Hole down to larger child

  00044	3b 4d fc	 cmp	 ecx, DWORD PTR __Max_sequence_non_leaf$1$[ebp]
  00047	0f 8d c9 00 00
	00		 jge	 $LN62@Make_heap_
  0004d	0f 1f 00	 npad	 3
$LL7@Make_heap_:

; 3365 :         _Idx = 2 * _Idx + 2;

  00050	03 c0		 add	 eax, eax
  00052	89 45 e0	 mov	 DWORD PTR tv1110[ebp], eax
; File C:\DS Project\DS Files\Source\ClientSource\Client\GameLib\MapOutdoorUpdate.cpp

; 197  : 		return D3DXVec3LengthSq(&(plhs->GetPosition() - m_v3Eye)) > D3DXVec3LengthSq(&(prhs->GetPosition() - m_v3Eye));

  00055	8b 4c 82 08	 mov	 ecx, DWORD PTR [edx+eax*4+8]
; File C:\Program Files (x86)\Microsoft Visual Studio\2019\Community\VC\Tools\MSVC\14.27.29110\include\xutility

; 193  :         return _Fn(_STD forward<_Args>(_Vals)...);

  00059	8b 5c 82 04	 mov	 ebx, DWORD PTR [edx+eax*4+4]
; File C:\DS Project\DS Files\Source\ClientSource\Client\GameLib\MapOutdoorUpdate.cpp

; 197  : 		return D3DXVec3LengthSq(&(plhs->GetPosition() - m_v3Eye)) > D3DXVec3LengthSq(&(prhs->GetPosition() - m_v3Eye));

  0005d	e8 00 00 00 00	 call	 ?GetPosition@CGraphicObjectInstance@@QBEABUD3DXVECTOR3@@XZ ; CGraphicObjectInstance::GetPosition
  00062	8b cb		 mov	 ecx, ebx
; File C:\DS Project\DS Files\Source\ClientSource\extern\include\d3dx8math.inl

; 263  :     return D3DXVECTOR3(x - v.x, y - v.y, z - v.z);

  00064	f3 0f 10 00	 movss	 xmm0, DWORD PTR [eax]
  00068	f3 0f 5c 06	 subss	 xmm0, DWORD PTR [esi]
  0006c	f3 0f 11 45 e8	 movss	 DWORD PTR tv1068[ebp], xmm0
  00071	f3 0f 10 40 04	 movss	 xmm0, DWORD PTR [eax+4]
  00076	f3 0f 5c 47 04	 subss	 xmm0, DWORD PTR [edi+4]
  0007b	f3 0f 11 45 ec	 movss	 DWORD PTR tv1073[ebp], xmm0
  00080	f3 0f 10 40 08	 movss	 xmm0, DWORD PTR [eax+8]
  00085	f3 0f 5c 47 08	 subss	 xmm0, DWORD PTR [edi+8]
  0008a	f3 0f 11 45 e4	 movss	 DWORD PTR tv1069[ebp], xmm0
; File C:\DS Project\DS Files\Source\ClientSource\Client\GameLib\MapOutdoorUpdate.cpp

; 197  : 		return D3DXVec3LengthSq(&(plhs->GetPosition() - m_v3Eye)) > D3DXVec3LengthSq(&(prhs->GetPosition() - m_v3Eye));

  0008f	e8 00 00 00 00	 call	 ?GetPosition@CGraphicObjectInstance@@QBEABUD3DXVECTOR3@@XZ ; CGraphicObjectInstance::GetPosition
; File C:\DS Project\DS Files\Source\ClientSource\extern\include\d3dx8math.inl

; 182  :     z = fz;

  00094	f3 0f 10 55 e8	 movss	 xmm2, DWORD PTR tv1068[ebp]
; File C:\Program Files (x86)\Microsoft Visual Studio\2019\Community\VC\Tools\MSVC\14.27.29110\include\algorithm

; 3369 :         *(_First + _Hole) = _STD move(*(_First + _Idx));

  00099	33 db		 xor	 ebx, ebx
; File C:\DS Project\DS Files\Source\ClientSource\extern\include\d3dx8math.inl

; 1253 :     return pV->x * pV->x + pV->y * pV->y + pV->z * pV->z;

  0009b	f3 0f 10 65 ec	 movss	 xmm4, DWORD PTR tv1073[ebp]

; 182  :     z = fz;

  000a0	f3 0f 59 d2	 mulss	 xmm2, xmm2
; File C:\Program Files (x86)\Microsoft Visual Studio\2019\Community\VC\Tools\MSVC\14.27.29110\include\algorithm

; 3369 :         *(_First + _Hole) = _STD move(*(_First + _Idx));

  000a4	8b 55 08	 mov	 edx, DWORD PTR __First$[ebp]
; File C:\DS Project\DS Files\Source\ClientSource\extern\include\d3dx8math.inl

; 263  :     return D3DXVECTOR3(x - v.x, y - v.y, z - v.z);

  000a7	f3 0f 10 08	 movss	 xmm1, DWORD PTR [eax]
  000ab	f3 0f 10 58 04	 movss	 xmm3, DWORD PTR [eax+4]
  000b0	f3 0f 5c 5f 04	 subss	 xmm3, DWORD PTR [edi+4]
  000b5	f3 0f 5c 0e	 subss	 xmm1, DWORD PTR [esi]
  000b9	f3 0f 10 40 08	 movss	 xmm0, DWORD PTR [eax+8]
  000be	f3 0f 5c 47 08	 subss	 xmm0, DWORD PTR [edi+8]

; 1253 :     return pV->x * pV->x + pV->y * pV->y + pV->z * pV->z;

  000c3	f3 0f 59 e4	 mulss	 xmm4, xmm4
; File C:\Program Files (x86)\Microsoft Visual Studio\2019\Community\VC\Tools\MSVC\14.27.29110\include\algorithm

; 3369 :         *(_First + _Hole) = _STD move(*(_First + _Idx));

  000c7	8b 4d f4	 mov	 ecx, DWORD PTR __Hole$1$[ebp]
; File C:\DS Project\DS Files\Source\ClientSource\extern\include\d3dx8math.inl

; 1253 :     return pV->x * pV->x + pV->y * pV->y + pV->z * pV->z;

  000ca	f3 0f 59 db	 mulss	 xmm3, xmm3
; File C:\DS Project\DS Files\Source\ClientSource\Client\GameLib\MapOutdoorUpdate.cpp

; 197  : 		return D3DXVec3LengthSq(&(plhs->GetPosition() - m_v3Eye)) > D3DXVec3LengthSq(&(prhs->GetPosition() - m_v3Eye));

  000ce	f3 0f 59 c9	 mulss	 xmm1, xmm1
; File C:\DS Project\DS Files\Source\ClientSource\extern\include\d3dx8math.inl

; 1253 :     return pV->x * pV->x + pV->y * pV->y + pV->z * pV->z;

  000d2	f3 0f 58 e2	 addss	 xmm4, xmm2
  000d6	f3 0f 10 55 e4	 movss	 xmm2, DWORD PTR tv1069[ebp]
  000db	f3 0f 59 d2	 mulss	 xmm2, xmm2
  000df	f3 0f 58 d9	 addss	 xmm3, xmm1
  000e3	f3 0f 59 c0	 mulss	 xmm0, xmm0
  000e7	f3 0f 58 e2	 addss	 xmm4, xmm2
  000eb	f3 0f 58 d8	 addss	 xmm3, xmm0
; File C:\Program Files (x86)\Microsoft Visual Studio\2019\Community\VC\Tools\MSVC\14.27.29110\include\algorithm

; 3369 :         *(_First + _Hole) = _STD move(*(_First + _Idx));

  000ef	0f 2f e3	 comiss	 xmm4, xmm3
  000f2	0f 96 c3	 setbe	 bl
  000f5	43		 inc	 ebx
  000f6	03 5d e0	 add	 ebx, DWORD PTR tv1110[ebp]
  000f9	89 5d e0	 mov	 DWORD PTR __Idx$1$[ebp], ebx

; 3370 :         _Hole             = _Idx;

  000fc	89 5d f4	 mov	 DWORD PTR __Hole$1$[ebp], ebx
  000ff	8b 04 9a	 mov	 eax, DWORD PTR [edx+ebx*4]
  00102	89 04 8a	 mov	 DWORD PTR [edx+ecx*4], eax
  00105	8b c3		 mov	 eax, ebx
  00107	3b 45 fc	 cmp	 eax, DWORD PTR __Max_sequence_non_leaf$1$[ebp]
  0010a	0f 8c 40 ff ff
	ff		 jl	 $LL7@Make_heap_
  00110	8b 7d 10	 mov	 edi, DWORD PTR __Pred$[ebp]
  00113	8b 4d f8	 mov	 ecx, DWORD PTR __Hole$1$[ebp]
$LN62@Make_heap_:

; 3371 :     }
; 3372 : 
; 3373 :     if (_Idx == _Max_sequence_non_leaf && _Bottom % 2 == 0) { // only child at bottom, move _Hole down to it

  00116	3b 5d fc	 cmp	 ebx, DWORD PTR __Max_sequence_non_leaf$1$[ebp]
  00119	75 11		 jne	 SHORT $LN10@Make_heap_
  0011b	8b 45 0c	 mov	 eax, DWORD PTR __Last$[ebp]
  0011e	a8 01		 test	 al, 1
  00120	75 0a		 jne	 SHORT $LN10@Make_heap_

; 3374 :         *(_First + _Hole) = _STD move(*(_First + (_Bottom - 1)));

  00122	8b 44 82 fc	 mov	 eax, DWORD PTR [edx+eax*4-4]
  00126	89 04 9a	 mov	 DWORD PTR [edx+ebx*4], eax

; 3375 :         _Hole             = _Bottom - 1;

  00129	8b 5d dc	 mov	 ebx, DWORD PTR tv1112[ebp]
$LN10@Make_heap_:

; 3321 :          _Top < _Hole && _DEBUG_LT_PRED(_Pred, *(_First + _Idx), _Val); //

  0012c	3b cb		 cmp	 ecx, ebx
  0012e	0f 8d b1 00 00
	00		 jge	 $LN30@Make_heap_
$LL31@Make_heap_:

; 3320 :     for (_Diff _Idx = (_Hole - 1) >> 1; // shift for codegen

  00134	8d 7b ff	 lea	 edi, DWORD PTR [ebx-1]
  00137	d1 ff		 sar	 edi, 1
; File C:\DS Project\DS Files\Source\ClientSource\Client\GameLib\MapOutdoorUpdate.cpp

; 197  : 		return D3DXVec3LengthSq(&(plhs->GetPosition() - m_v3Eye)) > D3DXVec3LengthSq(&(prhs->GetPosition() - m_v3Eye));

  00139	8b 0c ba	 mov	 ecx, DWORD PTR [edx+edi*4]
  0013c	e8 00 00 00 00	 call	 ?GetPosition@CGraphicObjectInstance@@QBEABUD3DXVECTOR3@@XZ ; CGraphicObjectInstance::GetPosition
  00141	8b 4d f0	 mov	 ecx, DWORD PTR __Val$1$[ebp]
; File C:\DS Project\DS Files\Source\ClientSource\extern\include\d3dx8math.inl

; 263  :     return D3DXVECTOR3(x - v.x, y - v.y, z - v.z);

  00144	f3 0f 10 00	 movss	 xmm0, DWORD PTR [eax]
  00148	f3 0f 5c 06	 subss	 xmm0, DWORD PTR [esi]
  0014c	f3 0f 11 45 e4	 movss	 DWORD PTR tv1085[ebp], xmm0
  00151	f3 0f 10 40 04	 movss	 xmm0, DWORD PTR [eax+4]
  00156	f3 0f 5c 46 04	 subss	 xmm0, DWORD PTR [esi+4]
  0015b	f3 0f 11 45 e0	 movss	 DWORD PTR tv1090[ebp], xmm0
  00160	f3 0f 10 40 08	 movss	 xmm0, DWORD PTR [eax+8]
  00165	f3 0f 5c 46 08	 subss	 xmm0, DWORD PTR [esi+8]
  0016a	f3 0f 11 45 e8	 movss	 DWORD PTR tv1086[ebp], xmm0
; File C:\DS Project\DS Files\Source\ClientSource\Client\GameLib\MapOutdoorUpdate.cpp

; 197  : 		return D3DXVec3LengthSq(&(plhs->GetPosition() - m_v3Eye)) > D3DXVec3LengthSq(&(prhs->GetPosition() - m_v3Eye));

  0016f	e8 00 00 00 00	 call	 ?GetPosition@CGraphicObjectInstance@@QBEABUD3DXVECTOR3@@XZ ; CGraphicObjectInstance::GetPosition
; File C:\DS Project\DS Files\Source\ClientSource\extern\include\d3dx8math.inl

; 182  :     z = fz;

  00174	f3 0f 10 55 e4	 movss	 xmm2, DWORD PTR tv1085[ebp]

; 1253 :     return pV->x * pV->x + pV->y * pV->y + pV->z * pV->z;

  00179	f3 0f 10 65 e0	 movss	 xmm4, DWORD PTR tv1090[ebp]
; File C:\Program Files (x86)\Microsoft Visual Studio\2019\Community\VC\Tools\MSVC\14.27.29110\include\algorithm

; 3321 :          _Top < _Hole && _DEBUG_LT_PRED(_Pred, *(_First + _Idx), _Val); //

  0017e	8b 55 08	 mov	 edx, DWORD PTR __First$[ebp]
; File C:\DS Project\DS Files\Source\ClientSource\extern\include\d3dx8math.inl

; 263  :     return D3DXVECTOR3(x - v.x, y - v.y, z - v.z);

  00181	f3 0f 10 08	 movss	 xmm1, DWORD PTR [eax]
  00185	f3 0f 10 58 04	 movss	 xmm3, DWORD PTR [eax+4]
  0018a	f3 0f 5c 5e 04	 subss	 xmm3, DWORD PTR [esi+4]
  0018f	f3 0f 5c 0e	 subss	 xmm1, DWORD PTR [esi]
  00193	f3 0f 10 40 08	 movss	 xmm0, DWORD PTR [eax+8]
  00198	f3 0f 5c 46 08	 subss	 xmm0, DWORD PTR [esi+8]
; File C:\Program Files (x86)\Microsoft Visual Studio\2019\Community\VC\Tools\MSVC\14.27.29110\include\algorithm

; 3321 :          _Top < _Hole && _DEBUG_LT_PRED(_Pred, *(_First + _Idx), _Val); //

  0019d	8b 4d f8	 mov	 ecx, DWORD PTR __Hole$1$[ebp]
; File C:\DS Project\DS Files\Source\ClientSource\extern\include\d3dx8math.inl

; 182  :     z = fz;

  001a0	f3 0f 59 d2	 mulss	 xmm2, xmm2

; 1253 :     return pV->x * pV->x + pV->y * pV->y + pV->z * pV->z;

  001a4	f3 0f 59 e4	 mulss	 xmm4, xmm4
  001a8	f3 0f 59 db	 mulss	 xmm3, xmm3
; File C:\DS Project\DS Files\Source\ClientSource\Client\GameLib\MapOutdoorUpdate.cpp

; 197  : 		return D3DXVec3LengthSq(&(plhs->GetPosition() - m_v3Eye)) > D3DXVec3LengthSq(&(prhs->GetPosition() - m_v3Eye));

  001ac	f3 0f 59 c9	 mulss	 xmm1, xmm1
; File C:\DS Project\DS Files\Source\ClientSource\extern\include\d3dx8math.inl

; 1253 :     return pV->x * pV->x + pV->y * pV->y + pV->z * pV->z;

  001b0	f3 0f 58 e2	 addss	 xmm4, xmm2
  001b4	f3 0f 10 55 e8	 movss	 xmm2, DWORD PTR tv1086[ebp]
  001b9	f3 0f 59 d2	 mulss	 xmm2, xmm2
  001bd	f3 0f 58 d9	 addss	 xmm3, xmm1
  001c1	f3 0f 59 c0	 mulss	 xmm0, xmm0
  001c5	f3 0f 58 e2	 addss	 xmm4, xmm2
  001c9	f3 0f 58 d8	 addss	 xmm3, xmm0
; File C:\DS Project\DS Files\Source\ClientSource\Client\GameLib\MapOutdoorUpdate.cpp

; 197  : 		return D3DXVec3LengthSq(&(plhs->GetPosition() - m_v3Eye)) > D3DXVec3LengthSq(&(prhs->GetPosition() - m_v3Eye));

  001cd	0f 2f e3	 comiss	 xmm4, xmm3
; File C:\Program Files (x86)\Microsoft Visual Studio\2019\Community\VC\Tools\MSVC\14.27.29110\include\algorithm

; 3321 :          _Top < _Hole && _DEBUG_LT_PRED(_Pred, *(_First + _Idx), _Val); //

  001d0	76 10		 jbe	 SHORT $LN63@Make_heap_

; 3322 :          _Idx = (_Hole - 1) >> 1) { // shift for codegen
; 3323 :         // move _Hole up to parent
; 3324 :         *(_First + _Hole) = _STD move(*(_First + _Idx));

  001d2	8b 04 ba	 mov	 eax, DWORD PTR [edx+edi*4]
  001d5	89 04 9a	 mov	 DWORD PTR [edx+ebx*4], eax

; 3325 :         _Hole             = _Idx;

  001d8	8b df		 mov	 ebx, edi
  001da	3b cf		 cmp	 ecx, edi
  001dc	0f 8c 52 ff ff
	ff		 jl	 $LL31@Make_heap_
$LN63@Make_heap_:

; 3321 :          _Top < _Hole && _DEBUG_LT_PRED(_Pred, *(_First + _Idx), _Val); //

  001e2	8b 7d 10	 mov	 edi, DWORD PTR __Pred$[ebp]
$LN30@Make_heap_:

; 3326 :     }
; 3327 : 
; 3328 :     *(_First + _Hole) = _STD move(_Val); // drop _Val into final hole

  001e5	8b 45 f0	 mov	 eax, DWORD PTR __Val$1$[ebp]
  001e8	89 04 9a	 mov	 DWORD PTR [edx+ebx*4], eax

; 3420 :     for (_Diff _Hole = _Bottom >> 1; 0 < _Hole;) { // shift for codegen

  001eb	85 c9		 test	 ecx, ecx
  001ed	0f 8f 3d fe ff
	ff		 jg	 $LL2@Make_heap_
  001f3	5f		 pop	 edi
  001f4	5e		 pop	 esi
  001f5	5b		 pop	 ebx
$LN3@Make_heap_:

; 3425 :     }
; 3426 : }

  001f6	8b e5		 mov	 esp, ebp
  001f8	5d		 pop	 ebp
  001f9	c3		 ret	 0
??$_Make_heap_unchecked@PAPAVCGraphicObjectInstance@@U?$_Ref_fn@UFPCBlockerDistanceSort@@@std@@@std@@YAXPAPAVCGraphicObjectInstance@@0U?$_Ref_fn@UFPCBlockerDistanceSort@@@0@@Z ENDP ; std::_Make_heap_unchecked<CGraphicObjectInstance * *,std::_Ref_fn<FPCBlockerDistanceSort> >
_TEXT	ENDS
; Function compile flags: /Ogtp
; File C:\Program Files (x86)\Microsoft Visual Studio\2019\Community\VC\Tools\MSVC\14.27.29110\include\algorithm
; File C:\DS Project\DS Files\Source\ClientSource\Client\GameLib\MapOutdoorUpdate.cpp
; File C:\Program Files (x86)\Microsoft Visual Studio\2019\Community\VC\Tools\MSVC\14.27.29110\include\xutility
; File C:\Program Files (x86)\Microsoft Visual Studio\2019\Community\VC\Tools\MSVC\14.27.29110\include\algorithm
; File C:\DS Project\DS Files\Source\ClientSource\Client\GameLib\MapOutdoorUpdate.cpp
; File C:\DS Project\DS Files\Source\ClientSource\extern\include\d3dx8math.inl
; File C:\DS Project\DS Files\Source\ClientSource\Client\GameLib\MapOutdoorUpdate.cpp
; File C:\DS Project\DS Files\Source\ClientSource\extern\include\d3dx8math.inl
; File C:\DS Project\DS Files\Source\ClientSource\Client\GameLib\MapOutdoorUpdate.cpp
; File C:\DS Project\DS Files\Source\ClientSource\extern\include\d3dx8math.inl
; File C:\DS Project\DS Files\Source\ClientSource\Client\GameLib\MapOutdoorUpdate.cpp
; File C:\Program Files (x86)\Microsoft Visual Studio\2019\Community\VC\Tools\MSVC\14.27.29110\include\algorithm
; File C:\Program Files (x86)\Microsoft Visual Studio\2019\Community\VC\Tools\MSVC\14.27.29110\include\xutility
; File C:\Program Files (x86)\Microsoft Visual Studio\2019\Community\VC\Tools\MSVC\14.27.29110\include\algorithm
; File C:\Program Files (x86)\Microsoft Visual Studio\2019\Community\VC\Tools\MSVC\14.27.29110\include\xutility
; File C:\Program Files (x86)\Microsoft Visual Studio\2019\Community\VC\Tools\MSVC\14.27.29110\include\algorithm
; File C:\DS Project\DS Files\Source\ClientSource\Client\GameLib\MapOutdoorUpdate.cpp
; File C:\Program Files (x86)\Microsoft Visual Studio\2019\Community\VC\Tools\MSVC\14.27.29110\include\algorithm
; File C:\Program Files (x86)\Microsoft Visual Studio\2019\Community\VC\Tools\MSVC\14.27.29110\include\xutility
; File C:\Program Files (x86)\Microsoft Visual Studio\2019\Community\VC\Tools\MSVC\14.27.29110\include\algorithm
; File C:\Program Files (x86)\Microsoft Visual Studio\2019\Community\VC\Tools\MSVC\14.27.29110\include\xutility
; File C:\DS Project\DS Files\Source\ClientSource\Client\GameLib\MapOutdoorUpdate.cpp
; File C:\DS Project\DS Files\Source\ClientSource\extern\include\d3dx8math.inl
; File C:\DS Project\DS Files\Source\ClientSource\Client\GameLib\MapOutdoorUpdate.cpp
; File C:\DS Project\DS Files\Source\ClientSource\extern\include\d3dx8math.inl
; File C:\DS Project\DS Files\Source\ClientSource\Client\GameLib\MapOutdoorUpdate.cpp
; File C:\DS Project\DS Files\Source\ClientSource\extern\include\d3dx8math.inl
; File C:\DS Project\DS Files\Source\ClientSource\Client\GameLib\MapOutdoorUpdate.cpp
; File C:\Program Files (x86)\Microsoft Visual Studio\2019\Community\VC\Tools\MSVC\14.27.29110\include\algorithm
; File C:\Program Files (x86)\Microsoft Visual Studio\2019\Community\VC\Tools\MSVC\14.27.29110\include\xutility
; File C:\Program Files (x86)\Microsoft Visual Studio\2019\Community\VC\Tools\MSVC\14.27.29110\include\algorithm
; File C:\Program Files (x86)\Microsoft Visual Studio\2019\Community\VC\Tools\MSVC\14.27.29110\include\xutility
; File C:\DS Project\DS Files\Source\ClientSource\Client\GameLib\MapOutdoorUpdate.cpp
; File C:\DS Project\DS Files\Source\ClientSource\extern\include\d3dx8math.inl
; File C:\DS Project\DS Files\Source\ClientSource\Client\GameLib\MapOutdoorUpdate.cpp
; File C:\DS Project\DS Files\Source\ClientSource\extern\include\d3dx8math.inl
; File C:\DS Project\DS Files\Source\ClientSource\Client\GameLib\MapOutdoorUpdate.cpp
; File C:\DS Project\DS Files\Source\ClientSource\extern\include\d3dx8math.inl
; File C:\DS Project\DS Files\Source\ClientSource\Client\GameLib\MapOutdoorUpdate.cpp
; File C:\Program Files (x86)\Microsoft Visual Studio\2019\Community\VC\Tools\MSVC\14.27.29110\include\algorithm
;	COMDAT ??$_Insertion_sort_unchecked@PAPAVCGraphicObjectInstance@@U?$_Ref_fn@UFPCBlockerDistanceSort@@@std@@@std@@YAPAPAVCGraphicObjectInstance@@PAPAV1@QAPAV1@U?$_Ref_fn@UFPCBlockerDistanceSort@@@0@@Z
_TEXT	SEGMENT
tv1037 = -28						; size = 4
tv1020 = -28						; size = 4
tv1032 = -24						; size = 4
tv1024 = -24						; size = 4
tv1007 = -24						; size = 4
tv1033 = -20						; size = 4
tv1019 = -20						; size = 4
tv1006 = -20						; size = 4
__Next$1$ = -16						; size = 4
tv1011 = -12						; size = 4
__First1$1$ = -12					; size = 4
__Next1$1$ = -8						; size = 4
__Val$1$ = -4						; size = 4
__First$ = 8						; size = 4
__Last$ = 12						; size = 4
__Pred$ = 16						; size = 4
??$_Insertion_sort_unchecked@PAPAVCGraphicObjectInstance@@U?$_Ref_fn@UFPCBlockerDistanceSort@@@std@@@std@@YAPAPAVCGraphicObjectInstance@@PAPAV1@QAPAV1@U?$_Ref_fn@UFPCBlockerDistanceSort@@@0@@Z PROC ; std::_Insertion_sort_unchecked<CGraphicObjectInstance * *,std::_Ref_fn<FPCBlockerDistanceSort> >, COMDAT

; 3979 : _CONSTEXPR20 _BidIt _Insertion_sort_unchecked(_BidIt _First, const _BidIt _Last, _Pr _Pred) {

  00000	55		 push	 ebp
  00001	8b ec		 mov	 ebp, esp

; 3980 :     // insertion sort [_First, _Last), using _Pred
; 3981 :     if (_First != _Last) {

  00003	8b 45 0c	 mov	 eax, DWORD PTR __Last$[ebp]
  00006	83 ec 1c	 sub	 esp, 28			; 0000001cH
  00009	56		 push	 esi
  0000a	8b 75 08	 mov	 esi, DWORD PTR __First$[ebp]
  0000d	3b f0		 cmp	 esi, eax
  0000f	0f 84 3b 02 00
	00		 je	 $LN3@Insertion_

; 3982 :         for (_BidIt _Next = _First; ++_Next != _Last;) { // order next element

  00015	53		 push	 ebx
  00016	8d 5e 04	 lea	 ebx, DWORD PTR [esi+4]
  00019	89 5d f0	 mov	 DWORD PTR __Next$1$[ebp], ebx
  0001c	3b d8		 cmp	 ebx, eax
  0001e	0f 84 2b 02 00
	00		 je	 $LN57@Insertion_
  00024	57		 push	 edi
$LL2@Insertion_:

; 3984 :             _Iter_value_t<_BidIt> _Val = _STD move(*_Next);

  00025	8b 03		 mov	 eax, DWORD PTR [ebx]
; File C:\DS Project\DS Files\Source\ClientSource\Client\GameLib\MapOutdoorUpdate.cpp

; 197  : 		return D3DXVec3LengthSq(&(plhs->GetPosition() - m_v3Eye)) > D3DXVec3LengthSq(&(prhs->GetPosition() - m_v3Eye));

  00027	8b c8		 mov	 ecx, eax
; File C:\Program Files (x86)\Microsoft Visual Studio\2019\Community\VC\Tools\MSVC\14.27.29110\include\xutility

; 193  :         return _Fn(_STD forward<_Args>(_Vals)...);

  00029	8b 36		 mov	 esi, DWORD PTR [esi]
  0002b	8b 7d 10	 mov	 edi, DWORD PTR __Pred$[ebp]
; File C:\Program Files (x86)\Microsoft Visual Studio\2019\Community\VC\Tools\MSVC\14.27.29110\include\algorithm

; 3983 :             _BidIt _Next1              = _Next;

  0002e	89 5d f8	 mov	 DWORD PTR __Next1$1$[ebp], ebx

; 3984 :             _Iter_value_t<_BidIt> _Val = _STD move(*_Next);

  00031	89 45 fc	 mov	 DWORD PTR __Val$1$[ebp], eax
; File C:\DS Project\DS Files\Source\ClientSource\Client\GameLib\MapOutdoorUpdate.cpp

; 197  : 		return D3DXVec3LengthSq(&(plhs->GetPosition() - m_v3Eye)) > D3DXVec3LengthSq(&(prhs->GetPosition() - m_v3Eye));

  00034	e8 00 00 00 00	 call	 ?GetPosition@CGraphicObjectInstance@@QBEABUD3DXVECTOR3@@XZ ; CGraphicObjectInstance::GetPosition
  00039	8b ce		 mov	 ecx, esi
; File C:\DS Project\DS Files\Source\ClientSource\extern\include\d3dx8math.inl

; 263  :     return D3DXVECTOR3(x - v.x, y - v.y, z - v.z);

  0003b	f3 0f 10 00	 movss	 xmm0, DWORD PTR [eax]
  0003f	f3 0f 5c 07	 subss	 xmm0, DWORD PTR [edi]
  00043	f3 0f 11 45 ec	 movss	 DWORD PTR tv1006[ebp], xmm0
  00048	f3 0f 10 40 04	 movss	 xmm0, DWORD PTR [eax+4]
  0004d	f3 0f 5c 47 04	 subss	 xmm0, DWORD PTR [edi+4]
  00052	f3 0f 11 45 f4	 movss	 DWORD PTR tv1011[ebp], xmm0
  00057	f3 0f 10 40 08	 movss	 xmm0, DWORD PTR [eax+8]
  0005c	f3 0f 5c 47 08	 subss	 xmm0, DWORD PTR [edi+8]
  00061	f3 0f 11 45 e8	 movss	 DWORD PTR tv1007[ebp], xmm0
; File C:\DS Project\DS Files\Source\ClientSource\Client\GameLib\MapOutdoorUpdate.cpp

; 197  : 		return D3DXVec3LengthSq(&(plhs->GetPosition() - m_v3Eye)) > D3DXVec3LengthSq(&(prhs->GetPosition() - m_v3Eye));

  00066	e8 00 00 00 00	 call	 ?GetPosition@CGraphicObjectInstance@@QBEABUD3DXVECTOR3@@XZ ; CGraphicObjectInstance::GetPosition
; File C:\DS Project\DS Files\Source\ClientSource\extern\include\d3dx8math.inl

; 1253 :     return pV->x * pV->x + pV->y * pV->y + pV->z * pV->z;

  0006b	f3 0f 10 55 ec	 movss	 xmm2, DWORD PTR tv1006[ebp]

; 182  :     z = fz;

  00070	f3 0f 10 65 f4	 movss	 xmm4, DWORD PTR tv1011[ebp]

; 1253 :     return pV->x * pV->x + pV->y * pV->y + pV->z * pV->z;

  00075	f3 0f 59 d2	 mulss	 xmm2, xmm2

; 263  :     return D3DXVECTOR3(x - v.x, y - v.y, z - v.z);

  00079	f3 0f 10 08	 movss	 xmm1, DWORD PTR [eax]
  0007d	f3 0f 10 58 04	 movss	 xmm3, DWORD PTR [eax+4]
  00082	f3 0f 5c 5f 04	 subss	 xmm3, DWORD PTR [edi+4]
  00087	f3 0f 5c 0f	 subss	 xmm1, DWORD PTR [edi]
  0008b	f3 0f 10 40 08	 movss	 xmm0, DWORD PTR [eax+8]
  00090	f3 0f 5c 47 08	 subss	 xmm0, DWORD PTR [edi+8]

; 182  :     z = fz;

  00095	f3 0f 59 e4	 mulss	 xmm4, xmm4

; 1253 :     return pV->x * pV->x + pV->y * pV->y + pV->z * pV->z;

  00099	f3 0f 59 db	 mulss	 xmm3, xmm3
; File C:\DS Project\DS Files\Source\ClientSource\Client\GameLib\MapOutdoorUpdate.cpp

; 197  : 		return D3DXVec3LengthSq(&(plhs->GetPosition() - m_v3Eye)) > D3DXVec3LengthSq(&(prhs->GetPosition() - m_v3Eye));

  0009d	f3 0f 59 c9	 mulss	 xmm1, xmm1
; File C:\DS Project\DS Files\Source\ClientSource\extern\include\d3dx8math.inl

; 1253 :     return pV->x * pV->x + pV->y * pV->y + pV->z * pV->z;

  000a1	f3 0f 58 e2	 addss	 xmm4, xmm2
  000a5	f3 0f 10 55 e8	 movss	 xmm2, DWORD PTR tv1007[ebp]
  000aa	f3 0f 59 d2	 mulss	 xmm2, xmm2
  000ae	f3 0f 58 d9	 addss	 xmm3, xmm1
  000b2	f3 0f 59 c0	 mulss	 xmm0, xmm0
  000b6	f3 0f 58 e2	 addss	 xmm4, xmm2
  000ba	f3 0f 58 d8	 addss	 xmm3, xmm0
; File C:\DS Project\DS Files\Source\ClientSource\Client\GameLib\MapOutdoorUpdate.cpp

; 197  : 		return D3DXVec3LengthSq(&(plhs->GetPosition() - m_v3Eye)) > D3DXVec3LengthSq(&(prhs->GetPosition() - m_v3Eye));

  000be	0f 2f e3	 comiss	 xmm4, xmm3
; File C:\Program Files (x86)\Microsoft Visual Studio\2019\Community\VC\Tools\MSVC\14.27.29110\include\algorithm

; 3986 :             if (_DEBUG_LT_PRED(_Pred, _Val, *_First)) { // found new earliest element, move to front

  000c1	76 1b		 jbe	 SHORT $LN9@Insertion_
; File C:\Program Files (x86)\Microsoft Visual Studio\2019\Community\VC\Tools\MSVC\14.27.29110\include\xutility

; 4440 :             return _Copy_backward_memmove(_First, _Last, _Dest);

  000c3	8b 75 08	 mov	 esi, DWORD PTR __First$[ebp]
  000c6	8d 43 04	 lea	 eax, DWORD PTR [ebx+4]
  000c9	50		 push	 eax
  000ca	53		 push	 ebx
  000cb	56		 push	 esi
  000cc	e8 00 00 00 00	 call	 ??$_Copy_backward_memmove@PAPAVCGraphicObjectInstance@@PAPAV1@@std@@YAPAPAVCGraphicObjectInstance@@PAPAV1@00@Z ; std::_Copy_backward_memmove<CGraphicObjectInstance * *,CGraphicObjectInstance * *>
; File C:\Program Files (x86)\Microsoft Visual Studio\2019\Community\VC\Tools\MSVC\14.27.29110\include\algorithm

; 3988 :                 *_First = _STD move(_Val);

  000d1	8b 4d fc	 mov	 ecx, DWORD PTR __Val$1$[ebp]
; File C:\Program Files (x86)\Microsoft Visual Studio\2019\Community\VC\Tools\MSVC\14.27.29110\include\xutility

; 4440 :             return _Copy_backward_memmove(_First, _Last, _Dest);

  000d4	83 c4 0c	 add	 esp, 12			; 0000000cH
; File C:\Program Files (x86)\Microsoft Visual Studio\2019\Community\VC\Tools\MSVC\14.27.29110\include\algorithm

; 3988 :                 *_First = _STD move(_Val);

  000d7	89 0e		 mov	 DWORD PTR [esi], ecx

; 3989 :             } else { // look for insertion point after first

  000d9	e9 5f 01 00 00	 jmp	 $LN10@Insertion_
$LN9@Insertion_:
; File C:\DS Project\DS Files\Source\ClientSource\Client\GameLib\MapOutdoorUpdate.cpp

; 197  : 		return D3DXVec3LengthSq(&(plhs->GetPosition() - m_v3Eye)) > D3DXVec3LengthSq(&(prhs->GetPosition() - m_v3Eye));

  000de	8b 4d fc	 mov	 ecx, DWORD PTR __Val$1$[ebp]
; File C:\Program Files (x86)\Microsoft Visual Studio\2019\Community\VC\Tools\MSVC\14.27.29110\include\algorithm

; 3990 :                 for (_BidIt _First1 = _Next1; _DEBUG_LT_PRED(_Pred, _Val, *--_First1); _Next1 = _First1) {

  000e1	8d 73 fc	 lea	 esi, DWORD PTR [ebx-4]
; File C:\Program Files (x86)\Microsoft Visual Studio\2019\Community\VC\Tools\MSVC\14.27.29110\include\xutility

; 193  :         return _Fn(_STD forward<_Args>(_Vals)...);

  000e4	8b 7d 10	 mov	 edi, DWORD PTR __Pred$[ebp]
; File C:\Program Files (x86)\Microsoft Visual Studio\2019\Community\VC\Tools\MSVC\14.27.29110\include\algorithm

; 3990 :                 for (_BidIt _First1 = _Next1; _DEBUG_LT_PRED(_Pred, _Val, *--_First1); _Next1 = _First1) {

  000e7	89 75 f4	 mov	 DWORD PTR __First1$1$[ebp], esi
; File C:\Program Files (x86)\Microsoft Visual Studio\2019\Community\VC\Tools\MSVC\14.27.29110\include\xutility

; 193  :         return _Fn(_STD forward<_Args>(_Vals)...);

  000ea	8b 36		 mov	 esi, DWORD PTR [esi]
; File C:\DS Project\DS Files\Source\ClientSource\Client\GameLib\MapOutdoorUpdate.cpp

; 197  : 		return D3DXVec3LengthSq(&(plhs->GetPosition() - m_v3Eye)) > D3DXVec3LengthSq(&(prhs->GetPosition() - m_v3Eye));

  000ec	e8 00 00 00 00	 call	 ?GetPosition@CGraphicObjectInstance@@QBEABUD3DXVECTOR3@@XZ ; CGraphicObjectInstance::GetPosition
  000f1	8b ce		 mov	 ecx, esi
; File C:\DS Project\DS Files\Source\ClientSource\extern\include\d3dx8math.inl

; 263  :     return D3DXVECTOR3(x - v.x, y - v.y, z - v.z);

  000f3	f3 0f 10 00	 movss	 xmm0, DWORD PTR [eax]
  000f7	f3 0f 5c 07	 subss	 xmm0, DWORD PTR [edi]
  000fb	f3 0f 11 45 ec	 movss	 DWORD PTR tv1019[ebp], xmm0
  00100	f3 0f 10 40 04	 movss	 xmm0, DWORD PTR [eax+4]
  00105	f3 0f 5c 47 04	 subss	 xmm0, DWORD PTR [edi+4]
  0010a	f3 0f 11 45 e8	 movss	 DWORD PTR tv1024[ebp], xmm0
  0010f	f3 0f 10 40 08	 movss	 xmm0, DWORD PTR [eax+8]
  00114	f3 0f 5c 47 08	 subss	 xmm0, DWORD PTR [edi+8]
  00119	f3 0f 11 45 e4	 movss	 DWORD PTR tv1020[ebp], xmm0
; File C:\DS Project\DS Files\Source\ClientSource\Client\GameLib\MapOutdoorUpdate.cpp

; 197  : 		return D3DXVec3LengthSq(&(plhs->GetPosition() - m_v3Eye)) > D3DXVec3LengthSq(&(prhs->GetPosition() - m_v3Eye));

  0011e	e8 00 00 00 00	 call	 ?GetPosition@CGraphicObjectInstance@@QBEABUD3DXVECTOR3@@XZ ; CGraphicObjectInstance::GetPosition
; File C:\DS Project\DS Files\Source\ClientSource\extern\include\d3dx8math.inl

; 1253 :     return pV->x * pV->x + pV->y * pV->y + pV->z * pV->z;

  00123	f3 0f 10 55 ec	 movss	 xmm2, DWORD PTR tv1019[ebp]

; 182  :     z = fz;

  00128	f3 0f 10 65 e8	 movss	 xmm4, DWORD PTR tv1024[ebp]

; 1253 :     return pV->x * pV->x + pV->y * pV->y + pV->z * pV->z;

  0012d	f3 0f 59 d2	 mulss	 xmm2, xmm2

; 263  :     return D3DXVECTOR3(x - v.x, y - v.y, z - v.z);

  00131	f3 0f 10 08	 movss	 xmm1, DWORD PTR [eax]
  00135	f3 0f 10 58 04	 movss	 xmm3, DWORD PTR [eax+4]
  0013a	f3 0f 5c 5f 04	 subss	 xmm3, DWORD PTR [edi+4]
  0013f	f3 0f 5c 0f	 subss	 xmm1, DWORD PTR [edi]
  00143	f3 0f 10 40 08	 movss	 xmm0, DWORD PTR [eax+8]
  00148	f3 0f 5c 47 08	 subss	 xmm0, DWORD PTR [edi+8]

; 182  :     z = fz;

  0014d	f3 0f 59 e4	 mulss	 xmm4, xmm4
; File C:\DS Project\DS Files\Source\ClientSource\Client\GameLib\MapOutdoorUpdate.cpp

; 197  : 		return D3DXVec3LengthSq(&(plhs->GetPosition() - m_v3Eye)) > D3DXVec3LengthSq(&(prhs->GetPosition() - m_v3Eye));

  00151	f3 0f 59 db	 mulss	 xmm3, xmm3
; File C:\DS Project\DS Files\Source\ClientSource\extern\include\d3dx8math.inl

; 1253 :     return pV->x * pV->x + pV->y * pV->y + pV->z * pV->z;

  00155	f3 0f 59 c9	 mulss	 xmm1, xmm1
  00159	f3 0f 58 e2	 addss	 xmm4, xmm2
  0015d	f3 0f 10 55 e4	 movss	 xmm2, DWORD PTR tv1020[ebp]
  00162	f3 0f 59 d2	 mulss	 xmm2, xmm2
  00166	f3 0f 58 d9	 addss	 xmm3, xmm1
  0016a	f3 0f 59 c0	 mulss	 xmm0, xmm0
  0016e	f3 0f 58 e2	 addss	 xmm4, xmm2
  00172	f3 0f 58 d8	 addss	 xmm3, xmm0
; File C:\DS Project\DS Files\Source\ClientSource\Client\GameLib\MapOutdoorUpdate.cpp

; 197  : 		return D3DXVec3LengthSq(&(plhs->GetPosition() - m_v3Eye)) > D3DXVec3LengthSq(&(prhs->GetPosition() - m_v3Eye));

  00176	0f 2f e3	 comiss	 xmm4, xmm3
; File C:\Program Files (x86)\Microsoft Visual Studio\2019\Community\VC\Tools\MSVC\14.27.29110\include\algorithm

; 3990 :                 for (_BidIt _First1 = _Next1; _DEBUG_LT_PRED(_Pred, _Val, *--_First1); _Next1 = _First1) {

  00179	0f 86 b3 00 00
	00		 jbe	 $LN6@Insertion_
  0017f	8b 5d fc	 mov	 ebx, DWORD PTR __Val$1$[ebp]
$LL7@Insertion_:

; 3991 :                     *_Next1 = _STD move(*_First1); // move hole down

  00182	8b 4d f4	 mov	 ecx, DWORD PTR __First1$1$[ebp]
  00185	8b 55 f8	 mov	 edx, DWORD PTR __Next1$1$[ebp]
; File C:\Program Files (x86)\Microsoft Visual Studio\2019\Community\VC\Tools\MSVC\14.27.29110\include\xutility

; 193  :         return _Fn(_STD forward<_Args>(_Vals)...);

  00188	8b 7d 10	 mov	 edi, DWORD PTR __Pred$[ebp]
; File C:\Program Files (x86)\Microsoft Visual Studio\2019\Community\VC\Tools\MSVC\14.27.29110\include\algorithm

; 3990 :                 for (_BidIt _First1 = _Next1; _DEBUG_LT_PRED(_Pred, _Val, *--_First1); _Next1 = _First1) {

  0018b	89 4d f8	 mov	 DWORD PTR __Next1$1$[ebp], ecx

; 3991 :                     *_Next1 = _STD move(*_First1); // move hole down

  0018e	8b 01		 mov	 eax, DWORD PTR [ecx]
  00190	83 e9 04	 sub	 ecx, 4
  00193	89 02		 mov	 DWORD PTR [edx], eax
  00195	89 4d f4	 mov	 DWORD PTR __First1$1$[ebp], ecx
; File C:\Program Files (x86)\Microsoft Visual Studio\2019\Community\VC\Tools\MSVC\14.27.29110\include\xutility

; 193  :         return _Fn(_STD forward<_Args>(_Vals)...);

  00198	8b 31		 mov	 esi, DWORD PTR [ecx]
; File C:\DS Project\DS Files\Source\ClientSource\Client\GameLib\MapOutdoorUpdate.cpp

; 197  : 		return D3DXVec3LengthSq(&(plhs->GetPosition() - m_v3Eye)) > D3DXVec3LengthSq(&(prhs->GetPosition() - m_v3Eye));

  0019a	8b cb		 mov	 ecx, ebx
  0019c	e8 00 00 00 00	 call	 ?GetPosition@CGraphicObjectInstance@@QBEABUD3DXVECTOR3@@XZ ; CGraphicObjectInstance::GetPosition
  001a1	8b ce		 mov	 ecx, esi
; File C:\DS Project\DS Files\Source\ClientSource\extern\include\d3dx8math.inl

; 263  :     return D3DXVECTOR3(x - v.x, y - v.y, z - v.z);

  001a3	f3 0f 10 00	 movss	 xmm0, DWORD PTR [eax]
  001a7	f3 0f 5c 07	 subss	 xmm0, DWORD PTR [edi]
  001ab	f3 0f 11 45 e8	 movss	 DWORD PTR tv1032[ebp], xmm0
  001b0	f3 0f 10 40 04	 movss	 xmm0, DWORD PTR [eax+4]
  001b5	f3 0f 5c 47 04	 subss	 xmm0, DWORD PTR [edi+4]
  001ba	f3 0f 11 45 e4	 movss	 DWORD PTR tv1037[ebp], xmm0
  001bf	f3 0f 10 40 08	 movss	 xmm0, DWORD PTR [eax+8]
  001c4	f3 0f 5c 47 08	 subss	 xmm0, DWORD PTR [edi+8]
  001c9	f3 0f 11 45 ec	 movss	 DWORD PTR tv1033[ebp], xmm0
; File C:\DS Project\DS Files\Source\ClientSource\Client\GameLib\MapOutdoorUpdate.cpp

; 197  : 		return D3DXVec3LengthSq(&(plhs->GetPosition() - m_v3Eye)) > D3DXVec3LengthSq(&(prhs->GetPosition() - m_v3Eye));

  001ce	e8 00 00 00 00	 call	 ?GetPosition@CGraphicObjectInstance@@QBEABUD3DXVECTOR3@@XZ ; CGraphicObjectInstance::GetPosition
; File C:\DS Project\DS Files\Source\ClientSource\extern\include\d3dx8math.inl

; 1253 :     return pV->x * pV->x + pV->y * pV->y + pV->z * pV->z;

  001d3	f3 0f 10 55 e8	 movss	 xmm2, DWORD PTR tv1032[ebp]

; 182  :     z = fz;

  001d8	f3 0f 10 65 e4	 movss	 xmm4, DWORD PTR tv1037[ebp]

; 1253 :     return pV->x * pV->x + pV->y * pV->y + pV->z * pV->z;

  001dd	f3 0f 59 d2	 mulss	 xmm2, xmm2

; 263  :     return D3DXVECTOR3(x - v.x, y - v.y, z - v.z);

  001e1	f3 0f 10 08	 movss	 xmm1, DWORD PTR [eax]
  001e5	f3 0f 10 58 04	 movss	 xmm3, DWORD PTR [eax+4]
  001ea	f3 0f 5c 5f 04	 subss	 xmm3, DWORD PTR [edi+4]
  001ef	f3 0f 5c 0f	 subss	 xmm1, DWORD PTR [edi]
  001f3	f3 0f 10 40 08	 movss	 xmm0, DWORD PTR [eax+8]
  001f8	f3 0f 5c 47 08	 subss	 xmm0, DWORD PTR [edi+8]

; 182  :     z = fz;

  001fd	f3 0f 59 e4	 mulss	 xmm4, xmm4
; File C:\DS Project\DS Files\Source\ClientSource\Client\GameLib\MapOutdoorUpdate.cpp

; 197  : 		return D3DXVec3LengthSq(&(plhs->GetPosition() - m_v3Eye)) > D3DXVec3LengthSq(&(prhs->GetPosition() - m_v3Eye));

  00201	f3 0f 59 db	 mulss	 xmm3, xmm3
; File C:\DS Project\DS Files\Source\ClientSource\extern\include\d3dx8math.inl

; 1253 :     return pV->x * pV->x + pV->y * pV->y + pV->z * pV->z;

  00205	f3 0f 59 c9	 mulss	 xmm1, xmm1
  00209	f3 0f 58 e2	 addss	 xmm4, xmm2
  0020d	f3 0f 10 55 ec	 movss	 xmm2, DWORD PTR tv1033[ebp]
  00212	f3 0f 59 d2	 mulss	 xmm2, xmm2
  00216	f3 0f 58 d9	 addss	 xmm3, xmm1
  0021a	f3 0f 59 c0	 mulss	 xmm0, xmm0
  0021e	f3 0f 58 e2	 addss	 xmm4, xmm2
  00222	f3 0f 58 d8	 addss	 xmm3, xmm0
; File C:\DS Project\DS Files\Source\ClientSource\Client\GameLib\MapOutdoorUpdate.cpp

; 197  : 		return D3DXVec3LengthSq(&(plhs->GetPosition() - m_v3Eye)) > D3DXVec3LengthSq(&(prhs->GetPosition() - m_v3Eye));

  00226	0f 2f e3	 comiss	 xmm4, xmm3
; File C:\Program Files (x86)\Microsoft Visual Studio\2019\Community\VC\Tools\MSVC\14.27.29110\include\algorithm

; 3990 :                 for (_BidIt _First1 = _Next1; _DEBUG_LT_PRED(_Pred, _Val, *--_First1); _Next1 = _First1) {

  00229	0f 87 53 ff ff
	ff		 ja	 $LL7@Insertion_
  0022f	8b 5d f0	 mov	 ebx, DWORD PTR __Next$1$[ebp]
$LN6@Insertion_:

; 3992 :                 }
; 3993 : 
; 3994 :                 *_Next1 = _STD move(_Val); // insert element in hole

  00232	8b 55 f8	 mov	 edx, DWORD PTR __Next1$1$[ebp]
  00235	8b 45 fc	 mov	 eax, DWORD PTR __Val$1$[ebp]
  00238	8b 75 08	 mov	 esi, DWORD PTR __First$[ebp]
  0023b	89 02		 mov	 DWORD PTR [edx], eax
$LN10@Insertion_:

; 3982 :         for (_BidIt _Next = _First; ++_Next != _Last;) { // order next element

  0023d	8b 45 0c	 mov	 eax, DWORD PTR __Last$[ebp]
  00240	83 c3 04	 add	 ebx, 4
  00243	89 5d f0	 mov	 DWORD PTR __Next$1$[ebp], ebx
  00246	3b d8		 cmp	 ebx, eax
  00248	0f 85 d7 fd ff
	ff		 jne	 $LL2@Insertion_

; 3995 :             }
; 3996 :         }
; 3997 :     }
; 3998 : 
; 3999 :     return _Last;

  0024e	5f		 pop	 edi
$LN57@Insertion_:
  0024f	5b		 pop	 ebx
$LN3@Insertion_:
  00250	5e		 pop	 esi

; 4000 : }

  00251	8b e5		 mov	 esp, ebp
  00253	5d		 pop	 ebp
  00254	c3		 ret	 0
??$_Insertion_sort_unchecked@PAPAVCGraphicObjectInstance@@U?$_Ref_fn@UFPCBlockerDistanceSort@@@std@@@std@@YAPAPAVCGraphicObjectInstance@@PAPAV1@QAPAV1@U?$_Ref_fn@UFPCBlockerDistanceSort@@@0@@Z ENDP ; std::_Insertion_sort_unchecked<CGraphicObjectInstance * *,std::_Ref_fn<FPCBlockerDistanceSort> >
_TEXT	ENDS
; Function compile flags: /Ogtp
; File C:\Program Files (x86)\Microsoft Visual Studio\2019\Community\VC\Tools\MSVC\14.27.29110\include\xmemory
;	COMDAT ??$_Uninitialized_move@PAPAVCGraphicObjectInstance@@V?$allocator@PAVCGraphicObjectInstance@@@std@@@std@@YAPAPAVCGraphicObjectInstance@@QAPAV1@0PAPAV1@AAV?$allocator@PAVCGraphicObjectInstance@@@0@@Z
_TEXT	SEGMENT
__First$ = 8						; size = 4
__Last$ = 12						; size = 4
__Dest$ = 16						; size = 4
__Al$ = 20						; size = 4
??$_Uninitialized_move@PAPAVCGraphicObjectInstance@@V?$allocator@PAVCGraphicObjectInstance@@@std@@@std@@YAPAPAVCGraphicObjectInstance@@QAPAV1@0PAPAV1@AAV?$allocator@PAVCGraphicObjectInstance@@@0@@Z PROC ; std::_Uninitialized_move<CGraphicObjectInstance * *,std::allocator<CGraphicObjectInstance *> >, COMDAT

; 1647 :     const _InIt _First, const _InIt _Last, _Alloc_ptr_t<_Alloc> _Dest, _Alloc& _Al) {

  00000	55		 push	 ebp
  00001	8b ec		 mov	 ebp, esp
  00003	53		 push	 ebx

; 1648 :     // move [_First, _Last) to raw _Dest, using _Al
; 1649 :     // note: only called internally from elsewhere in the STL
; 1650 :     using _Ptrval     = typename _Alloc::value_type*;
; 1651 :     auto _UFirst      = _Get_unwrapped(_First);
; 1652 :     const auto _ULast = _Get_unwrapped(_Last);
; 1653 :     if constexpr (conjunction_v<bool_constant<_Ptr_move_cat<decltype(_UFirst), _Ptrval>::_Really_trivial>,
; 1654 :                       _Uses_default_construct<_Alloc, _Ptrval, decltype(_STD move(*_UFirst))>>) {
; 1655 :         _Copy_memmove(_UFirst, _ULast, _Unfancy(_Dest));

  00004	8b 5d 10	 mov	 ebx, DWORD PTR __Dest$[ebp]
  00007	57		 push	 edi
  00008	8b 7d 0c	 mov	 edi, DWORD PTR __Last$[ebp]
  0000b	53		 push	 ebx
  0000c	57		 push	 edi
