; Listing generated by Microsoft (R) Optimizing Compiler Version 19.27.29112.0 

	TITLE	C:\DS Project\DS Files\Source\ClientSource\Client\GameLib\MapUtil.cpp
	.686P
	.XMM
	include listing.inc
	.model	flat

INCLUDELIB LIBCMT
INCLUDELIB OLDNAMES

PUBLIC	??0exception@std@@QAE@ABV01@@Z			; std::exception::exception
PUBLIC	??1exception@std@@UAE@XZ			; std::exception::~exception
PUBLIC	?what@exception@std@@UBEPBDXZ			; std::exception::what
PUBLIC	??_Gexception@std@@UAEPAXI@Z			; std::exception::`scalar deleting destructor'
PUBLIC	??0bad_alloc@std@@QAE@ABV01@@Z			; std::bad_alloc::bad_alloc
PUBLIC	??_Gbad_alloc@std@@UAEPAXI@Z			; std::bad_alloc::`scalar deleting destructor'
PUBLIC	??0bad_array_new_length@std@@QAE@XZ		; std::bad_array_new_length::bad_array_new_length
PUBLIC	??1bad_array_new_length@std@@UAE@XZ		; std::bad_array_new_length::~bad_array_new_length
PUBLIC	??0bad_array_new_length@std@@QAE@ABV01@@Z	; std::bad_array_new_length::bad_array_new_length
PUBLIC	??_Gbad_array_new_length@std@@UAEPAXI@Z		; std::bad_array_new_length::`scalar deleting destructor'
PUBLIC	?_Throw_bad_array_new_length@std@@YAXXZ		; std::_Throw_bad_array_new_length
PUBLIC	?_Xlen_string@std@@YAXXZ			; std::_Xlen_string
PUBLIC	??1?$basic_string@DU?$char_traits@D@std@@V?$allocator@D@2@@std@@QAE@XZ ; std::basic_string<char,std::char_traits<char>,std::allocator<char> >::~basic_string<char,std::char_traits<char>,std::allocator<char> >
PUBLIC	?assign@?$basic_string@DU?$char_traits@D@std@@V?$allocator@D@2@@std@@QAEAAV12@QBD@Z ; std::basic_string<char,std::char_traits<char>,std::allocator<char> >::assign
PUBLIC	?at@?$vector@V?$basic_string@DU?$char_traits@D@std@@V?$allocator@D@2@@std@@V?$allocator@V?$basic_string@DU?$char_traits@D@std@@V?$allocator@D@2@@std@@@2@@std@@QAEAAV?$basic_string@DU?$char_traits@D@std@@V?$allocator@D@2@@2@I@Z ; std::vector<std::basic_string<char,std::char_traits<char>,std::allocator<char> >,std::allocator<std::basic_string<char,std::char_traits<char>,std::allocator<char> > > >::at
PUBLIC	?_Xrange@?$vector@V?$basic_string@DU?$char_traits@D@std@@V?$allocator@D@2@@std@@V?$allocator@V?$basic_string@DU?$char_traits@D@std@@V?$allocator@D@2@@std@@@2@@std@@CAXXZ ; std::vector<std::basic_string<char,std::char_traits<char>,std::allocator<char> >,std::allocator<std::basic_string<char,std::char_traits<char>,std::allocator<char> > > >::_Xrange
PUBLIC	?_Xlength@?$vector@UTGradientColor@@V?$allocator@UTGradientColor@@@std@@@std@@CAXXZ ; std::vector<TGradientColor,std::allocator<TGradientColor> >::_Xlength
PUBLIC	?Environment_Init@@YAXAAUSEnvironmentData@@@Z	; Environment_Init
PUBLIC	?Environment_Load@@YA_NAAUSEnvironmentData@@PBD@Z ; Environment_Load
PUBLIC	?GetInterpolatedPosition@@YAXMPAUD3DXVECTOR3@@@Z ; GetInterpolatedPosition
PUBLIC	?GetLinearInterpolation@@YAMMMM@Z		; GetLinearInterpolation
PUBLIC	?PixelPositionToAttributeCellPosition@@YAXUD3DXVECTOR3@@PAUSCellPosition@@@Z ; PixelPositionToAttributeCellPosition
PUBLIC	?AttributeCellPositionToPixelPosition@@YAXUSCellPosition@@PAUD3DXVECTOR3@@@Z ; AttributeCellPositionToPixelPosition
PUBLIC	?GetPixelPositionDistance@@YAMABUD3DXVECTOR3@@0@Z ; GetPixelPositionDistance
PUBLIC	??0CEaseOutInterpolation@@QAE@XZ		; CEaseOutInterpolation::CEaseOutInterpolation
PUBLIC	??1CEaseOutInterpolation@@UAE@XZ		; CEaseOutInterpolation::~CEaseOutInterpolation
PUBLIC	?Initialize@CEaseOutInterpolation@@QAEXXZ	; CEaseOutInterpolation::Initialize
PUBLIC	?Setup@CEaseOutInterpolation@@QAEHMMM@Z		; CEaseOutInterpolation::Setup
PUBLIC	?Interpolate@CEaseOutInterpolation@@QAEXM@Z	; CEaseOutInterpolation::Interpolate
PUBLIC	?isPlaying@CEaseOutInterpolation@@QAEHXZ	; CEaseOutInterpolation::isPlaying
PUBLIC	?GetValue@CEaseOutInterpolation@@QAEMXZ		; CEaseOutInterpolation::GetValue
PUBLIC	?GetChangingValue@CEaseOutInterpolation@@QAEMXZ	; CEaseOutInterpolation::GetChangingValue
PUBLIC	??_GCEaseOutInterpolation@@UAEPAXI@Z		; CEaseOutInterpolation::`scalar deleting destructor'
PUBLIC	??$_Destroy_in_place@PAD@std@@YAXAAPAD@Z	; std::_Destroy_in_place<char *>
PUBLIC	??$_Construct_in_place@PADABQAD@std@@YAXAAPADABQAD@Z ; std::_Construct_in_place<char *,char * const &>
PUBLIC	??$_Deallocate@$07$0A@@std@@YAXPAXI@Z		; std::_Deallocate<8,0>
PUBLIC	??$_Allocate@$07U_Default_allocate_traits@std@@$0A@@std@@YAPAXI@Z ; std::_Allocate<8,std::_Default_allocate_traits,0>
PUBLIC	??$_Allocate_manually_vector_aligned@U_Default_allocate_traits@std@@@std@@YAPAXI@Z ; std::_Allocate_manually_vector_aligned<std::_Default_allocate_traits>
PUBLIC	??$_Destroy_range@V?$allocator@UTGradientColor@@@std@@@std@@YAXPAUTGradientColor@@QAU1@AAV?$allocator@UTGradientColor@@@0@@Z ; std::_Destroy_range<std::allocator<TGradientColor> >
PUBLIC	??$_Resize_reallocate@U_Value_init_tag@std@@@?$vector@UTGradientColor@@V?$allocator@UTGradientColor@@@std@@@std@@AAEXIABU_Value_init_tag@1@@Z ; std::vector<TGradientColor,std::allocator<TGradientColor> >::_Resize_reallocate<std::_Value_init_tag>
PUBLIC	??$_Uninitialized_value_construct_n@V?$allocator@UTGradientColor@@@std@@@std@@YAPAUTGradientColor@@PAU1@IAAV?$allocator@UTGradientColor@@@0@@Z ; std::_Uninitialized_value_construct_n<std::allocator<TGradientColor> >
PUBLIC	??$_Uninitialized_move@PAUTGradientColor@@V?$allocator@UTGradientColor@@@std@@@std@@YAPAUTGradientColor@@QAU1@0PAU1@AAV?$allocator@UTGradientColor@@@0@@Z ; std::_Uninitialized_move<TGradientColor *,std::allocator<TGradientColor> >
PUBLIC	??_7exception@std@@6B@				; std::exception::`vftable'
PUBLIC	??_C@_0BC@EOODALEL@Unknown?5exception@		; `string'
PUBLIC	??_7bad_alloc@std@@6B@				; std::bad_alloc::`vftable'
PUBLIC	??_7bad_array_new_length@std@@6B@		; std::bad_array_new_length::`vftable'
PUBLIC	??_C@_0BF@KINCDENJ@bad?5array?5new?5length@	; `string'
PUBLIC	__TI3?AVbad_array_new_length@std@@
PUBLIC	__CTA3?AVbad_array_new_length@std@@
PUBLIC	??_R0?AVbad_array_new_length@std@@@8		; std::bad_array_new_length `RTTI Type Descriptor'
PUBLIC	__CT??_R0?AVbad_array_new_length@std@@@8??0bad_array_new_length@std@@QAE@ABV01@@Z12
PUBLIC	??_R0?AVbad_alloc@std@@@8			; std::bad_alloc `RTTI Type Descriptor'
PUBLIC	__CT??_R0?AVbad_alloc@std@@@8??0bad_alloc@std@@QAE@ABV01@@Z12
PUBLIC	??_R0?AVexception@std@@@8			; std::exception `RTTI Type Descriptor'
PUBLIC	__CT??_R0?AVexception@std@@@8??0exception@std@@QAE@ABV01@@Z12
PUBLIC	??_C@_0BA@JFNIOLAK@string?5too?5long@		; `string'
PUBLIC	??_C@_00CNPNBAHC@@				; `string'
PUBLIC	??_7CEaseOutInterpolation@@6B@			; CEaseOutInterpolation::`vftable'
PUBLIC	??_R4exception@std@@6B@				; std::exception::`RTTI Complete Object Locator'
PUBLIC	??_R3exception@std@@8				; std::exception::`RTTI Class Hierarchy Descriptor'
PUBLIC	??_R2exception@std@@8				; std::exception::`RTTI Base Class Array'
PUBLIC	??_R1A@?0A@EA@exception@std@@8			; std::exception::`RTTI Base Class Descriptor at (0,-1,0,64)'
PUBLIC	??_R4bad_alloc@std@@6B@				; std::bad_alloc::`RTTI Complete Object Locator'
PUBLIC	??_R3bad_alloc@std@@8				; std::bad_alloc::`RTTI Class Hierarchy Descriptor'
PUBLIC	??_R2bad_alloc@std@@8				; std::bad_alloc::`RTTI Base Class Array'
PUBLIC	??_R1A@?0A@EA@bad_alloc@std@@8			; std::bad_alloc::`RTTI Base Class Descriptor at (0,-1,0,64)'
PUBLIC	??_R4bad_array_new_length@std@@6B@		; std::bad_array_new_length::`RTTI Complete Object Locator'
PUBLIC	??_R3bad_array_new_length@std@@8		; std::bad_array_new_length::`RTTI Class Hierarchy Descriptor'
PUBLIC	??_R2bad_array_new_length@std@@8		; std::bad_array_new_length::`RTTI Base Class Array'
PUBLIC	??_R1A@?0A@EA@bad_array_new_length@std@@8	; std::bad_array_new_length::`RTTI Base Class Descriptor at (0,-1,0,64)'
PUBLIC	??_C@_08FINKBBAF@reserved@			; `string'
PUBLIC	??_C@_0BB@GPOHGDLH@directionallight@		; `string'
PUBLIC	??_C@_09HPKLLIJF@direction@			; `string'
PUBLIC	??_C@_0L@EGCKCJDC@background@			; `string'
PUBLIC	??_C@_06OFNJOBDK@enable@			; `string'
PUBLIC	??_C@_07KFBPAAO@diffuse@			; `string'
PUBLIC	??_C@_07LIABELBC@ambient@			; `string'
PUBLIC	??_C@_09MNKJOHH@character@			; `string'
PUBLIC	??_C@_08KNOEMJMM@material@			; `string'
PUBLIC	??_C@_08GHNOEFBP@emissive@			; `string'
PUBLIC	??_C@_03KJMBPJEB@fog@				; `string'
PUBLIC	??_C@_09BCCBMEKP@isdensity@			; `string'
PUBLIC	??_C@_0N@HJCBLCNJ@neardistance@			; `string'
PUBLIC	??_C@_0M@IOALDGCK@fardistance@			; `string'
PUBLIC	??_C@_05PEENBMOG@color@				; `string'
PUBLIC	??_C@_06EOIELIPE@filter@			; `string'
PUBLIC	??_C@_08BJBIEDIL@alphasrc@			; `string'
PUBLIC	??_C@_09DCAIHJNN@alphadest@			; `string'
PUBLIC	??_C@_06BMKANHHL@skybox@			; `string'
PUBLIC	??_C@_0BD@MANDHJLJ@btexturerendermode@		; `string'
PUBLIC	??_C@_05MHMEBBGO@scale@				; `string'
PUBLIC	??_C@_0BD@JOBCGNII@gradientlevelupper@		; `string'
PUBLIC	??_C@_0BD@MFKMAGDB@gradientlevellower@		; `string'
PUBLIC	??_C@_0BC@MAAIOOFC@frontfacefilename@		; `string'
PUBLIC	??_C@_0BB@HMLADBDH@backfacefilename@		; `string'
PUBLIC	??_C@_0BB@OKAELDDH@leftfacefilename@		; `string'
PUBLIC	??_C@_0BC@BGDBKDJG@rightfacefilename@		; `string'
PUBLIC	??_C@_0BA@ODMABPL@topfacefilename@		; `string'
PUBLIC	??_C@_0BD@PAPHNGLP@bottomfacefilename@		; `string'
PUBLIC	??_C@_0L@HPPKMJB@cloudscale@			; `string'
PUBLIC	??_C@_0M@JAHFJEDG@cloudheight@			; `string'
PUBLIC	??_C@_0BC@BBJMDDCO@cloudtexturescale@		; `string'
PUBLIC	??_C@_0L@LJBHNMFK@cloudspeed@			; `string'
PUBLIC	??_C@_0BF@KCIBJMLM@cloudtexturefilename@	; `string'
PUBLIC	??_C@_0L@DEHGKBBJ@cloudcolor@			; `string'
PUBLIC	??_C@_08OAOFNDBJ@gradient@			; `string'
PUBLIC	??_C@_09JHLBAKBC@lensflare@			; `string'
PUBLIC	??_C@_0BA@KOCEAOMM@brightnesscolor@		; `string'
PUBLIC	??_C@_0O@GEBPBGOO@maxbrightness@		; `string'
PUBLIC	??_C@_0BA@GMIEGFJG@mainflareenable@		; `string'
PUBLIC	??_C@_0BJ@EAALILHN@mainflaretexturefilename@	; `string'
PUBLIC	??_C@_0O@JBMODIIN@mainflaresize@		; `string'
PUBLIC	??_C@_0BJ@DHFDPMIM@invalid?5vector?5subscript@	; `string'
PUBLIC	??_C@_0BA@FOIKENOD@vector?5too?5long@		; `string'
PUBLIC	??_R4CEaseOutInterpolation@@6B@			; CEaseOutInterpolation::`RTTI Complete Object Locator'
PUBLIC	??_R0?AVCEaseOutInterpolation@@@8		; CEaseOutInterpolation `RTTI Type Descriptor'
PUBLIC	??_R3CEaseOutInterpolation@@8			; CEaseOutInterpolation::`RTTI Class Hierarchy Descriptor'
PUBLIC	??_R2CEaseOutInterpolation@@8			; CEaseOutInterpolation::`RTTI Base Class Array'
PUBLIC	??_R1A@?0A@EA@CEaseOutInterpolation@@8		; CEaseOutInterpolation::`RTTI Base Class Descriptor at (0,-1,0,64)'
PUBLIC	__real@00000000
PUBLIC	__real@34000000
PUBLIC	__real@3c23d70a
PUBLIC	__real@3f000000
PUBLIC	__real@42480000
PUBLIC	__real@455ac000
PUBLIC	__xmm@000000003dcccccd3dcccccd3e99999a
PUBLIC	__xmm@3f800000000000000000000000000000
PUBLIC	__xmm@3f8000003f0000003f0000003f000000
PUBLIC	__xmm@3f8000003f4ccccd3f4ccccd3f4ccccd
PUBLIC	__xmm@3f8000003f8000003f8000003f800000
PUBLIC	__xmm@7fffffff7fffffff7fffffff7fffffff
EXTRN	??2@YAPAXI@Z:PROC				; operator new
EXTRN	??3@YAXPAXI@Z:PROC				; operator delete
EXTRN	__invalid_parameter_noinfo_noreturn:PROC
EXTRN	_atof:PROC
EXTRN	___std_exception_copy:PROC
EXTRN	___std_exception_destroy:PROC
EXTRN	??_Eexception@std@@UAEPAXI@Z:PROC		; std::exception::`vector deleting destructor'
EXTRN	??_Ebad_alloc@std@@UAEPAXI@Z:PROC		; std::bad_alloc::`vector deleting destructor'
EXTRN	??_Ebad_array_new_length@std@@UAEPAXI@Z:PROC	; std::bad_array_new_length::`vector deleting destructor'
EXTRN	?_Xlength_error@std@@YAXPBD@Z:PROC		; std::_Xlength_error
EXTRN	?_Xout_of_range@std@@YAXPBD@Z:PROC		; std::_Xout_of_range
EXTRN	??0CTextFileLoader@@QAE@XZ:PROC			; CTextFileLoader::CTextFileLoader
EXTRN	??1CTextFileLoader@@UAE@XZ:PROC			; CTextFileLoader::~CTextFileLoader
EXTRN	?Load@CTextFileLoader@@QAE_NPBD@Z:PROC		; CTextFileLoader::Load
EXTRN	?SetTop@CTextFileLoader@@QAEXXZ:PROC		; CTextFileLoader::SetTop
EXTRN	?SetChildNode@CTextFileLoader@@QAEHPBD@Z:PROC	; CTextFileLoader::SetChildNode
EXTRN	?SetParentNode@CTextFileLoader@@QAEHXZ:PROC	; CTextFileLoader::SetParentNode
EXTRN	?GetTokenVector@CTextFileLoader@@QAEHABV?$basic_string@DU?$char_traits@D@std@@V?$allocator@D@2@@std@@PAPAV?$vector@V?$basic_string@DU?$char_traits@D@std@@V?$allocator@D@2@@std@@V?$allocator@V?$basic_string@DU?$char_traits@D@std@@V?$allocator@D@2@@std@@@2@@3@@Z:PROC ; CTextFileLoader::GetTokenVector
EXTRN	?GetTokenBoolean@CTextFileLoader@@QAEHABV?$basic_string@DU?$char_traits@D@std@@V?$allocator@D@2@@std@@PAH@Z:PROC ; CTextFileLoader::GetTokenBoolean
EXTRN	?GetTokenByte@CTextFileLoader@@QAEHABV?$basic_string@DU?$char_traits@D@std@@V?$allocator@D@2@@std@@PAE@Z:PROC ; CTextFileLoader::GetTokenByte
EXTRN	?GetTokenFloat@CTextFileLoader@@QAEHABV?$basic_string@DU?$char_traits@D@std@@V?$allocator@D@2@@std@@PAM@Z:PROC ; CTextFileLoader::GetTokenFloat
EXTRN	?GetTokenVector2@CTextFileLoader@@QAEHABV?$basic_string@DU?$char_traits@D@std@@V?$allocator@D@2@@std@@PAUD3DXVECTOR2@@@Z:PROC ; CTextFileLoader::GetTokenVector2
EXTRN	?GetTokenVector3@CTextFileLoader@@QAEHABV?$basic_string@DU?$char_traits@D@std@@V?$allocator@D@2@@std@@PAUD3DXVECTOR3@@@Z:PROC ; CTextFileLoader::GetTokenVector3
EXTRN	?GetTokenDirection@CTextFileLoader@@QAEHABV?$basic_string@DU?$char_traits@D@std@@V?$allocator@D@2@@std@@PAU_D3DVECTOR@@@Z:PROC ; CTextFileLoader::GetTokenDirection
EXTRN	?GetTokenColor@CTextFileLoader@@QAEHABV?$basic_string@DU?$char_traits@D@std@@V?$allocator@D@2@@std@@PAUD3DXCOLOR@@@Z:PROC ; CTextFileLoader::GetTokenColor
EXTRN	?GetTokenColor@CTextFileLoader@@QAEHABV?$basic_string@DU?$char_traits@D@std@@V?$allocator@D@2@@std@@PAU_D3DCOLORVALUE@@@Z:PROC ; CTextFileLoader::GetTokenColor
EXTRN	?GetTokenString@CTextFileLoader@@QAEHABV?$basic_string@DU?$char_traits@D@std@@V?$allocator@D@2@@std@@PAV23@@Z:PROC ; CTextFileLoader::GetTokenString
EXTRN	??_ECEaseOutInterpolation@@UAEPAXI@Z:PROC	; CEaseOutInterpolation::`vector deleting destructor'
EXTRN	@__security_check_cookie@4:PROC
EXTRN	__CxxThrowException@8:PROC
EXTRN	___CxxFrameHandler3:PROC
EXTRN	__libm_sse2_sqrt_precise:PROC
EXTRN	_memcpy:PROC
EXTRN	_memmove:PROC
EXTRN	??_7type_info@@6B@:QWORD			; type_info::`vftable'
EXTRN	___security_cookie:DWORD
EXTRN	__fltused:DWORD
;	COMDAT __xmm@7fffffff7fffffff7fffffff7fffffff
CONST	SEGMENT
__xmm@7fffffff7fffffff7fffffff7fffffff DB 0ffH, 0ffH, 0ffH, 07fH, 0ffH, 0ffH
	DB	0ffH, 07fH, 0ffH, 0ffH, 0ffH, 07fH, 0ffH, 0ffH, 0ffH, 07fH
CONST	ENDS
;	COMDAT __xmm@3f8000003f8000003f8000003f800000
CONST	SEGMENT
__xmm@3f8000003f8000003f8000003f800000 DB 00H, 00H, 080H, '?', 00H, 00H, 080H
	DB	'?', 00H, 00H, 080H, '?', 00H, 00H, 080H, '?'
CONST	ENDS
;	COMDAT __xmm@3f8000003f4ccccd3f4ccccd3f4ccccd
CONST	SEGMENT
__xmm@3f8000003f4ccccd3f4ccccd3f4ccccd DB 0cdH, 0ccH, 'L?', 0cdH, 0ccH, 'L'
	DB	'?', 0cdH, 0ccH, 'L?', 00H, 00H, 080H, '?'
CONST	ENDS
;	COMDAT __xmm@3f8000003f0000003f0000003f000000
CONST	SEGMENT
__xmm@3f8000003f0000003f0000003f000000 DB 00H, 00H, 00H, '?', 00H, 00H, 00H
	DB	'?', 00H, 00H, 00H, '?', 00H, 00H, 080H, '?'
CONST	ENDS
;	COMDAT __xmm@3f800000000000000000000000000000
CONST	SEGMENT
__xmm@3f800000000000000000000000000000 DB 00H, 00H, 00H, 00H, 00H, 00H, 00H
	DB	00H, 00H, 00H, 00H, 00H, 00H, 00H, 080H, '?'
CONST	ENDS
;	COMDAT __xmm@000000003dcccccd3dcccccd3e99999a
CONST	SEGMENT
__xmm@000000003dcccccd3dcccccd3e99999a DB 09aH, 099H, 099H, '>', 0cdH, 0ccH
	DB	0ccH, '=', 0cdH, 0ccH, 0ccH, '=', 00H, 00H, 00H, 00H
CONST	ENDS
;	COMDAT __real@455ac000
CONST	SEGMENT
__real@455ac000 DD 0455ac000r			; 3500
CONST	ENDS
;	COMDAT __real@42480000
CONST	SEGMENT
__real@42480000 DD 042480000r			; 50
CONST	ENDS
;	COMDAT __real@3f000000
CONST	SEGMENT
__real@3f000000 DD 03f000000r			; 0.5
CONST	ENDS
;	COMDAT __real@3c23d70a
CONST	SEGMENT
__real@3c23d70a DD 03c23d70ar			; 0.01
CONST	ENDS
;	COMDAT __real@34000000
CONST	SEGMENT
__real@34000000 DD 034000000r			; 1.19209e-07
CONST	ENDS
;	COMDAT __real@00000000
CONST	SEGMENT
__real@00000000 DD 000000000r			; 0
CONST	ENDS
;	COMDAT ??_R1A@?0A@EA@CEaseOutInterpolation@@8
rdata$r	SEGMENT
??_R1A@?0A@EA@CEaseOutInterpolation@@8 DD FLAT:??_R0?AVCEaseOutInterpolation@@@8 ; CEaseOutInterpolation::`RTTI Base Class Descriptor at (0,-1,0,64)'
	DD	00H
	DD	00H
	DD	0ffffffffH
	DD	00H
	DD	040H
	DD	FLAT:??_R3CEaseOutInterpolation@@8
rdata$r	ENDS
;	COMDAT ??_R2CEaseOutInterpolation@@8
rdata$r	SEGMENT
??_R2CEaseOutInterpolation@@8 DD FLAT:??_R1A@?0A@EA@CEaseOutInterpolation@@8 ; CEaseOutInterpolation::`RTTI Base Class Array'
rdata$r	ENDS
;	COMDAT ??_R3CEaseOutInterpolation@@8
rdata$r	SEGMENT
??_R3CEaseOutInterpolation@@8 DD 00H			; CEaseOutInterpolation::`RTTI Class Hierarchy Descriptor'
	DD	00H
	DD	01H
	DD	FLAT:??_R2CEaseOutInterpolation@@8
rdata$r	ENDS
;	COMDAT ??_R0?AVCEaseOutInterpolation@@@8
data$r	SEGMENT
??_R0?AVCEaseOutInterpolation@@@8 DD FLAT:??_7type_info@@6B@ ; CEaseOutInterpolation `RTTI Type Descriptor'
	DD	00H
	DB	'.?AVCEaseOutInterpolation@@', 00H
data$r	ENDS
;	COMDAT ??_R4CEaseOutInterpolation@@6B@
rdata$r	SEGMENT
??_R4CEaseOutInterpolation@@6B@ DD 00H			; CEaseOutInterpolation::`RTTI Complete Object Locator'
	DD	00H
	DD	00H
	DD	FLAT:??_R0?AVCEaseOutInterpolation@@@8
	DD	FLAT:??_R3CEaseOutInterpolation@@8
rdata$r	ENDS
;	COMDAT ??_C@_0BA@FOIKENOD@vector?5too?5long@
CONST	SEGMENT
??_C@_0BA@FOIKENOD@vector?5too?5long@ DB 'vector too long', 00H ; `string'
CONST	ENDS
;	COMDAT ??_C@_0BJ@DHFDPMIM@invalid?5vector?5subscript@
CONST	SEGMENT
??_C@_0BJ@DHFDPMIM@invalid?5vector?5subscript@ DB 'invalid vector subscri'
	DB	'pt', 00H					; `string'
CONST	ENDS
;	COMDAT ??_C@_0O@JBMODIIN@mainflaresize@
CONST	SEGMENT
??_C@_0O@JBMODIIN@mainflaresize@ DB 'mainflaresize', 00H ; `string'
CONST	ENDS
;	COMDAT ??_C@_0BJ@EAALILHN@mainflaretexturefilename@
CONST	SEGMENT
??_C@_0BJ@EAALILHN@mainflaretexturefilename@ DB 'mainflaretexturefilename'
	DB	00H						; `string'
CONST	ENDS
;	COMDAT ??_C@_0BA@GMIEGFJG@mainflareenable@
CONST	SEGMENT
??_C@_0BA@GMIEGFJG@mainflareenable@ DB 'mainflareenable', 00H ; `string'
CONST	ENDS
;	COMDAT ??_C@_0O@GEBPBGOO@maxbrightness@
CONST	SEGMENT
??_C@_0O@GEBPBGOO@maxbrightness@ DB 'maxbrightness', 00H ; `string'
CONST	ENDS
;	COMDAT ??_C@_0BA@KOCEAOMM@brightnesscolor@
CONST	SEGMENT
??_C@_0BA@KOCEAOMM@brightnesscolor@ DB 'brightnesscolor', 00H ; `string'
CONST	ENDS
;	COMDAT ??_C@_09JHLBAKBC@lensflare@
CONST	SEGMENT
??_C@_09JHLBAKBC@lensflare@ DB 'lensflare', 00H		; `string'
CONST	ENDS
;	COMDAT ??_C@_08OAOFNDBJ@gradient@
CONST	SEGMENT
??_C@_08OAOFNDBJ@gradient@ DB 'gradient', 00H		; `string'
CONST	ENDS
;	COMDAT ??_C@_0L@DEHGKBBJ@cloudcolor@
CONST	SEGMENT
??_C@_0L@DEHGKBBJ@cloudcolor@ DB 'cloudcolor', 00H	; `string'
CONST	ENDS
;	COMDAT ??_C@_0BF@KCIBJMLM@cloudtexturefilename@
CONST	SEGMENT
??_C@_0BF@KCIBJMLM@cloudtexturefilename@ DB 'cloudtexturefilename', 00H ; `string'
CONST	ENDS
;	COMDAT ??_C@_0L@LJBHNMFK@cloudspeed@
CONST	SEGMENT
??_C@_0L@LJBHNMFK@cloudspeed@ DB 'cloudspeed', 00H	; `string'
CONST	ENDS
;	COMDAT ??_C@_0BC@BBJMDDCO@cloudtexturescale@
CONST	SEGMENT
??_C@_0BC@BBJMDDCO@cloudtexturescale@ DB 'cloudtexturescale', 00H ; `string'
CONST	ENDS
;	COMDAT ??_C@_0M@JAHFJEDG@cloudheight@
CONST	SEGMENT
??_C@_0M@JAHFJEDG@cloudheight@ DB 'cloudheight', 00H	; `string'
CONST	ENDS
;	COMDAT ??_C@_0L@HPPKMJB@cloudscale@
CONST	SEGMENT
??_C@_0L@HPPKMJB@cloudscale@ DB 'cloudscale', 00H	; `string'
CONST	ENDS
;	COMDAT ??_C@_0BD@PAPHNGLP@bottomfacefilename@
CONST	SEGMENT
??_C@_0BD@PAPHNGLP@bottomfacefilename@ DB 'bottomfacefilename', 00H ; `string'
CONST	ENDS
;	COMDAT ??_C@_0BA@ODMABPL@topfacefilename@
CONST	SEGMENT
??_C@_0BA@ODMABPL@topfacefilename@ DB 'topfacefilename', 00H ; `string'
CONST	ENDS
;	COMDAT ??_C@_0BC@BGDBKDJG@rightfacefilename@
CONST	SEGMENT
??_C@_0BC@BGDBKDJG@rightfacefilename@ DB 'rightfacefilename', 00H ; `string'
CONST	ENDS
;	COMDAT ??_C@_0BB@OKAELDDH@leftfacefilename@
CONST	SEGMENT
??_C@_0BB@OKAELDDH@leftfacefilename@ DB 'leftfacefilename', 00H ; `string'
CONST	ENDS
;	COMDAT ??_C@_0BB@HMLADBDH@backfacefilename@
CONST	SEGMENT
??_C@_0BB@HMLADBDH@backfacefilename@ DB 'backfacefilename', 00H ; `string'
CONST	ENDS
;	COMDAT ??_C@_0BC@MAAIOOFC@frontfacefilename@
CONST	SEGMENT
??_C@_0BC@MAAIOOFC@frontfacefilename@ DB 'frontfacefilename', 00H ; `string'
CONST	ENDS
;	COMDAT ??_C@_0BD@MFKMAGDB@gradientlevellower@
CONST	SEGMENT
??_C@_0BD@MFKMAGDB@gradientlevellower@ DB 'gradientlevellower', 00H ; `string'
CONST	ENDS
;	COMDAT ??_C@_0BD@JOBCGNII@gradientlevelupper@
CONST	SEGMENT
??_C@_0BD@JOBCGNII@gradientlevelupper@ DB 'gradientlevelupper', 00H ; `string'
CONST	ENDS
;	COMDAT ??_C@_05MHMEBBGO@scale@
CONST	SEGMENT
??_C@_05MHMEBBGO@scale@ DB 'scale', 00H			; `string'
CONST	ENDS
;	COMDAT ??_C@_0BD@MANDHJLJ@btexturerendermode@
CONST	SEGMENT
??_C@_0BD@MANDHJLJ@btexturerendermode@ DB 'btexturerendermode', 00H ; `string'
CONST	ENDS
;	COMDAT ??_C@_06BMKANHHL@skybox@
CONST	SEGMENT
??_C@_06BMKANHHL@skybox@ DB 'skybox', 00H		; `string'
CONST	ENDS
;	COMDAT ??_C@_09DCAIHJNN@alphadest@
CONST	SEGMENT
??_C@_09DCAIHJNN@alphadest@ DB 'alphadest', 00H		; `string'
CONST	ENDS
;	COMDAT ??_C@_08BJBIEDIL@alphasrc@
CONST	SEGMENT
??_C@_08BJBIEDIL@alphasrc@ DB 'alphasrc', 00H		; `string'
CONST	ENDS
;	COMDAT ??_C@_06EOIELIPE@filter@
CONST	SEGMENT
??_C@_06EOIELIPE@filter@ DB 'filter', 00H		; `string'
CONST	ENDS
;	COMDAT ??_C@_05PEENBMOG@color@
CONST	SEGMENT
??_C@_05PEENBMOG@color@ DB 'color', 00H			; `string'
CONST	ENDS
;	COMDAT ??_C@_0M@IOALDGCK@fardistance@
CONST	SEGMENT
??_C@_0M@IOALDGCK@fardistance@ DB 'fardistance', 00H	; `string'
CONST	ENDS
;	COMDAT ??_C@_0N@HJCBLCNJ@neardistance@
CONST	SEGMENT
??_C@_0N@HJCBLCNJ@neardistance@ DB 'neardistance', 00H	; `string'
CONST	ENDS
;	COMDAT ??_C@_09BCCBMEKP@isdensity@
CONST	SEGMENT
??_C@_09BCCBMEKP@isdensity@ DB 'isdensity', 00H		; `string'
CONST	ENDS
;	COMDAT ??_C@_03KJMBPJEB@fog@
CONST	SEGMENT
??_C@_03KJMBPJEB@fog@ DB 'fog', 00H			; `string'
CONST	ENDS
;	COMDAT ??_C@_08GHNOEFBP@emissive@
CONST	SEGMENT
??_C@_08GHNOEFBP@emissive@ DB 'emissive', 00H		; `string'
CONST	ENDS
;	COMDAT ??_C@_08KNOEMJMM@material@
CONST	SEGMENT
??_C@_08KNOEMJMM@material@ DB 'material', 00H		; `string'
CONST	ENDS
;	COMDAT ??_C@_09MNKJOHH@character@
CONST	SEGMENT
??_C@_09MNKJOHH@character@ DB 'character', 00H		; `string'
CONST	ENDS
;	COMDAT ??_C@_07LIABELBC@ambient@
CONST	SEGMENT
??_C@_07LIABELBC@ambient@ DB 'ambient', 00H		; `string'
CONST	ENDS
;	COMDAT ??_C@_07KFBPAAO@diffuse@
CONST	SEGMENT
??_C@_07KFBPAAO@diffuse@ DB 'diffuse', 00H		; `string'
CONST	ENDS
;	COMDAT ??_C@_06OFNJOBDK@enable@
CONST	SEGMENT
??_C@_06OFNJOBDK@enable@ DB 'enable', 00H		; `string'
CONST	ENDS
;	COMDAT ??_C@_0L@EGCKCJDC@background@
CONST	SEGMENT
??_C@_0L@EGCKCJDC@background@ DB 'background', 00H	; `string'
CONST	ENDS
;	COMDAT ??_C@_09HPKLLIJF@direction@
CONST	SEGMENT
??_C@_09HPKLLIJF@direction@ DB 'direction', 00H		; `string'
CONST	ENDS
;	COMDAT ??_C@_0BB@GPOHGDLH@directionallight@
CONST	SEGMENT
??_C@_0BB@GPOHGDLH@directionallight@ DB 'directionallight', 00H ; `string'
CONST	ENDS
;	COMDAT ??_C@_08FINKBBAF@reserved@
CONST	SEGMENT
??_C@_08FINKBBAF@reserved@ DB 'reserved', 00H		; `string'
CONST	ENDS
;	COMDAT ??_R1A@?0A@EA@bad_array_new_length@std@@8
rdata$r	SEGMENT
??_R1A@?0A@EA@bad_array_new_length@std@@8 DD FLAT:??_R0?AVbad_array_new_length@std@@@8 ; std::bad_array_new_length::`RTTI Base Class Descriptor at (0,-1,0,64)'
	DD	02H
	DD	00H
	DD	0ffffffffH
	DD	00H
	DD	040H
	DD	FLAT:??_R3bad_array_new_length@std@@8
rdata$r	ENDS
;	COMDAT ??_R2bad_array_new_length@std@@8
rdata$r	SEGMENT
??_R2bad_array_new_length@std@@8 DD FLAT:??_R1A@?0A@EA@bad_array_new_length@std@@8 ; std::bad_array_new_length::`RTTI Base Class Array'
	DD	FLAT:??_R1A@?0A@EA@bad_alloc@std@@8
	DD	FLAT:??_R1A@?0A@EA@exception@std@@8
rdata$r	ENDS
;	COMDAT ??_R3bad_array_new_length@std@@8
rdata$r	SEGMENT
??_R3bad_array_new_length@std@@8 DD 00H			; std::bad_array_new_length::`RTTI Class Hierarchy Descriptor'
	DD	00H
	DD	03H
	DD	FLAT:??_R2bad_array_new_length@std@@8
rdata$r	ENDS
;	COMDAT ??_R4bad_array_new_length@std@@6B@
rdata$r	SEGMENT
??_R4bad_array_new_length@std@@6B@ DD 00H		; std::bad_array_new_length::`RTTI Complete Object Locator'
	DD	00H
	DD	00H
	DD	FLAT:??_R0?AVbad_array_new_length@std@@@8
	DD	FLAT:??_R3bad_array_new_length@std@@8
rdata$r	ENDS
;	COMDAT ??_R1A@?0A@EA@bad_alloc@std@@8
rdata$r	SEGMENT
??_R1A@?0A@EA@bad_alloc@std@@8 DD FLAT:??_R0?AVbad_alloc@std@@@8 ; std::bad_alloc::`RTTI Base Class Descriptor at (0,-1,0,64)'
	DD	01H
	DD	00H
	DD	0ffffffffH
	DD	00H
	DD	040H
	DD	FLAT:??_R3bad_alloc@std@@8
rdata$r	ENDS
;	COMDAT ??_R2bad_alloc@std@@8
rdata$r	SEGMENT
??_R2bad_alloc@std@@8 DD FLAT:??_R1A@?0A@EA@bad_alloc@std@@8 ; std::bad_alloc::`RTTI Base Class Array'
	DD	FLAT:??_R1A@?0A@EA@exception@std@@8
rdata$r	ENDS
;	COMDAT ??_R3bad_alloc@std@@8
rdata$r	SEGMENT
??_R3bad_alloc@std@@8 DD 00H				; std::bad_alloc::`RTTI Class Hierarchy Descriptor'
	DD	00H
	DD	02H
	DD	FLAT:??_R2bad_alloc@std@@8
rdata$r	ENDS
;	COMDAT ??_R4bad_alloc@std@@6B@
rdata$r	SEGMENT
??_R4bad_alloc@std@@6B@ DD 00H				; std::bad_alloc::`RTTI Complete Object Locator'
	DD	00H
	DD	00H
	DD	FLAT:??_R0?AVbad_alloc@std@@@8
	DD	FLAT:??_R3bad_alloc@std@@8
rdata$r	ENDS
;	COMDAT ??_R1A@?0A@EA@exception@std@@8
rdata$r	SEGMENT
??_R1A@?0A@EA@exception@std@@8 DD FLAT:??_R0?AVexception@std@@@8 ; std::exception::`RTTI Base Class Descriptor at (0,-1,0,64)'
	DD	00H
	DD	00H
	DD	0ffffffffH
	DD	00H
	DD	040H
	DD	FLAT:??_R3exception@std@@8
rdata$r	ENDS
;	COMDAT ??_R2exception@std@@8
rdata$r	SEGMENT
??_R2exception@std@@8 DD FLAT:??_R1A@?0A@EA@exception@std@@8 ; std::exception::`RTTI Base Class Array'
rdata$r	ENDS
;	COMDAT ??_R3exception@std@@8
rdata$r	SEGMENT
??_R3exception@std@@8 DD 00H				; std::exception::`RTTI Class Hierarchy Descriptor'
	DD	00H
	DD	01H
	DD	FLAT:??_R2exception@std@@8
rdata$r	ENDS
;	COMDAT ??_R4exception@std@@6B@
rdata$r	SEGMENT
??_R4exception@std@@6B@ DD 00H				; std::exception::`RTTI Complete Object Locator'
	DD	00H
	DD	00H
	DD	FLAT:??_R0?AVexception@std@@@8
	DD	FLAT:??_R3exception@std@@8
rdata$r	ENDS
;	COMDAT ??_7CEaseOutInterpolation@@6B@
CONST	SEGMENT
??_7CEaseOutInterpolation@@6B@ DD FLAT:??_R4CEaseOutInterpolation@@6B@ ; CEaseOutInterpolation::`vftable'
	DD	FLAT:??_ECEaseOutInterpolation@@UAEPAXI@Z
CONST	ENDS
;	COMDAT ??_C@_00CNPNBAHC@@
CONST	SEGMENT
??_C@_00CNPNBAHC@@ DB 00H				; `string'
CONST	ENDS
;	COMDAT ??_C@_0BA@JFNIOLAK@string?5too?5long@
CONST	SEGMENT
??_C@_0BA@JFNIOLAK@string?5too?5long@ DB 'string too long', 00H ; `string'
CONST	ENDS
;	COMDAT __CT??_R0?AVexception@std@@@8??0exception@std@@QAE@ABV01@@Z12
xdata$x	SEGMENT
__CT??_R0?AVexception@std@@@8??0exception@std@@QAE@ABV01@@Z12 DD 00H
	DD	FLAT:??_R0?AVexception@std@@@8
	DD	00H
	DD	0ffffffffH
	ORG $+4
	DD	0cH
	DD	FLAT:??0exception@std@@QAE@ABV01@@Z
xdata$x	ENDS
;	COMDAT ??_R0?AVexception@std@@@8
data$r	SEGMENT
??_R0?AVexception@std@@@8 DD FLAT:??_7type_info@@6B@	; std::exception `RTTI Type Descriptor'
	DD	00H
	DB	'.?AVexception@std@@', 00H
data$r	ENDS
;	COMDAT __CT??_R0?AVbad_alloc@std@@@8??0bad_alloc@std@@QAE@ABV01@@Z12
xdata$x	SEGMENT
__CT??_R0?AVbad_alloc@std@@@8??0bad_alloc@std@@QAE@ABV01@@Z12 DD 010H
	DD	FLAT:??_R0?AVbad_alloc@std@@@8
	DD	00H
	DD	0ffffffffH
	ORG $+4
	DD	0cH
	DD	FLAT:??0bad_alloc@std@@QAE@ABV01@@Z
xdata$x	ENDS
;	COMDAT ??_R0?AVbad_alloc@std@@@8
data$r	SEGMENT
??_R0?AVbad_alloc@std@@@8 DD FLAT:??_7type_info@@6B@	; std::bad_alloc `RTTI Type Descriptor'
	DD	00H
	DB	'.?AVbad_alloc@std@@', 00H
data$r	ENDS
;	COMDAT __CT??_R0?AVbad_array_new_length@std@@@8??0bad_array_new_length@std@@QAE@ABV01@@Z12
xdata$x	SEGMENT
__CT??_R0?AVbad_array_new_length@std@@@8??0bad_array_new_length@std@@QAE@ABV01@@Z12 DD 00H
	DD	FLAT:??_R0?AVbad_array_new_length@std@@@8
	DD	00H
	DD	0ffffffffH
	ORG $+4
	DD	0cH
	DD	FLAT:??0bad_array_new_length@std@@QAE@ABV01@@Z
xdata$x	ENDS
;	COMDAT ??_R0?AVbad_array_new_length@std@@@8
data$r	SEGMENT
??_R0?AVbad_array_new_length@std@@@8 DD FLAT:??_7type_info@@6B@ ; std::bad_array_new_length `RTTI Type Descriptor'
	DD	00H
	DB	'.?AVbad_array_new_length@std@@', 00H
data$r	ENDS
;	COMDAT __CTA3?AVbad_array_new_length@std@@
xdata$x	SEGMENT
__CTA3?AVbad_array_new_length@std@@ DD 03H
	DD	FLAT:__CT??_R0?AVbad_array_new_length@std@@@8??0bad_array_new_length@std@@QAE@ABV01@@Z12
	DD	FLAT:__CT??_R0?AVbad_alloc@std@@@8??0bad_alloc@std@@QAE@ABV01@@Z12
	DD	FLAT:__CT??_R0?AVexception@std@@@8??0exception@std@@QAE@ABV01@@Z12
xdata$x	ENDS
;	COMDAT __TI3?AVbad_array_new_length@std@@
xdata$x	SEGMENT
__TI3?AVbad_array_new_length@std@@ DD 00H
	DD	FLAT:??1bad_array_new_length@std@@UAE@XZ
	DD	00H
	DD	FLAT:__CTA3?AVbad_array_new_length@std@@
xdata$x	ENDS
;	COMDAT ??_C@_0BF@KINCDENJ@bad?5array?5new?5length@
CONST	SEGMENT
??_C@_0BF@KINCDENJ@bad?5array?5new?5length@ DB 'bad array new length', 00H ; `string'
CONST	ENDS
;	COMDAT ??_7bad_array_new_length@std@@6B@
CONST	SEGMENT
??_7bad_array_new_length@std@@6B@ DD FLAT:??_R4bad_array_new_length@std@@6B@ ; std::bad_array_new_length::`vftable'
	DD	FLAT:??_Ebad_array_new_length@std@@UAEPAXI@Z
	DD	FLAT:?what@exception@std@@UBEPBDXZ
CONST	ENDS
;	COMDAT ??_7bad_alloc@std@@6B@
CONST	SEGMENT
??_7bad_alloc@std@@6B@ DD FLAT:??_R4bad_alloc@std@@6B@	; std::bad_alloc::`vftable'
	DD	FLAT:??_Ebad_alloc@std@@UAEPAXI@Z
	DD	FLAT:?what@exception@std@@UBEPBDXZ
CONST	ENDS
;	COMDAT ??_C@_0BC@EOODALEL@Unknown?5exception@
CONST	SEGMENT
??_C@_0BC@EOODALEL@Unknown?5exception@ DB 'Unknown exception', 00H ; `string'
CONST	ENDS
;	COMDAT ??_7exception@std@@6B@
CONST	SEGMENT
??_7exception@std@@6B@ DD FLAT:??_R4exception@std@@6B@	; std::exception::`vftable'
	DD	FLAT:??_Eexception@std@@UAEPAXI@Z
	DD	FLAT:?what@exception@std@@UBEPBDXZ
CONST	ENDS
;	COMDAT xdata$x
xdata$x	SEGMENT
__ehfuncinfo$?Environment_Load@@YA_NAAUSEnvironmentData@@PBD@Z DD 019930522H
	DD	02cH
	DD	FLAT:__unwindtable$?Environment_Load@@YA_NAAUSEnvironmentData@@PBD@Z
	DD	2 DUP(00H)
	DD	2 DUP(00H)
	DD	00H
	DD	01H
__unwindtable$?Environment_Load@@YA_NAAUSEnvironmentData@@PBD@Z DD 0ffffffffH
	DD	FLAT:__unwindfunclet$?Environment_Load@@YA_NAAUSEnvironmentData@@PBD@Z$0
	DD	00H
	DD	FLAT:__unwindfunclet$?Environment_Load@@YA_NAAUSEnvironmentData@@PBD@Z$1
	DD	00H
	DD	FLAT:__unwindfunclet$?Environment_Load@@YA_NAAUSEnvironmentData@@PBD@Z$2
	DD	00H
	DD	FLAT:__unwindfunclet$?Environment_Load@@YA_NAAUSEnvironmentData@@PBD@Z$3
	DD	00H
	DD	FLAT:__unwindfunclet$?Environment_Load@@YA_NAAUSEnvironmentData@@PBD@Z$4
	DD	00H
	DD	FLAT:__unwindfunclet$?Environment_Load@@YA_NAAUSEnvironmentData@@PBD@Z$5
	DD	00H
	DD	FLAT:__unwindfunclet$?Environment_Load@@YA_NAAUSEnvironmentData@@PBD@Z$6
	DD	00H
	DD	FLAT:__unwindfunclet$?Environment_Load@@YA_NAAUSEnvironmentData@@PBD@Z$7
	DD	00H
	DD	FLAT:__unwindfunclet$?Environment_Load@@YA_NAAUSEnvironmentData@@PBD@Z$8
	DD	00H
	DD	FLAT:__unwindfunclet$?Environment_Load@@YA_NAAUSEnvironmentData@@PBD@Z$9
	DD	00H
	DD	FLAT:__unwindfunclet$?Environment_Load@@YA_NAAUSEnvironmentData@@PBD@Z$10
	DD	00H
	DD	FLAT:__unwindfunclet$?Environment_Load@@YA_NAAUSEnvironmentData@@PBD@Z$11
	DD	00H
	DD	FLAT:__unwindfunclet$?Environment_Load@@YA_NAAUSEnvironmentData@@PBD@Z$12
	DD	00H
	DD	FLAT:__unwindfunclet$?Environment_Load@@YA_NAAUSEnvironmentData@@PBD@Z$13
	DD	00H
	DD	FLAT:__unwindfunclet$?Environment_Load@@YA_NAAUSEnvironmentData@@PBD@Z$14
	DD	00H
	DD	FLAT:__unwindfunclet$?Environment_Load@@YA_NAAUSEnvironmentData@@PBD@Z$15
	DD	00H
	DD	FLAT:__unwindfunclet$?Environment_Load@@YA_NAAUSEnvironmentData@@PBD@Z$16
	DD	00H
	DD	FLAT:__unwindfunclet$?Environment_Load@@YA_NAAUSEnvironmentData@@PBD@Z$17
	DD	00H
	DD	FLAT:__unwindfunclet$?Environment_Load@@YA_NAAUSEnvironmentData@@PBD@Z$18
	DD	00H
	DD	FLAT:__unwindfunclet$?Environment_Load@@YA_NAAUSEnvironmentData@@PBD@Z$19
	DD	00H
	DD	FLAT:__unwindfunclet$?Environment_Load@@YA_NAAUSEnvironmentData@@PBD@Z$20
	DD	00H
	DD	FLAT:__unwindfunclet$?Environment_Load@@YA_NAAUSEnvironmentData@@PBD@Z$21
	DD	00H
	DD	FLAT:__unwindfunclet$?Environment_Load@@YA_NAAUSEnvironmentData@@PBD@Z$22
	DD	00H
	DD	FLAT:__unwindfunclet$?Environment_Load@@YA_NAAUSEnvironmentData@@PBD@Z$23
	DD	00H
	DD	FLAT:__unwindfunclet$?Environment_Load@@YA_NAAUSEnvironmentData@@PBD@Z$24
	DD	00H
	DD	FLAT:__unwindfunclet$?Environment_Load@@YA_NAAUSEnvironmentData@@PBD@Z$25
	DD	00H
	DD	FLAT:__unwindfunclet$?Environment_Load@@YA_NAAUSEnvironmentData@@PBD@Z$26
	DD	00H
	DD	FLAT:__unwindfunclet$?Environment_Load@@YA_NAAUSEnvironmentData@@PBD@Z$27
	DD	00H
	DD	FLAT:__unwindfunclet$?Environment_Load@@YA_NAAUSEnvironmentData@@PBD@Z$28
	DD	00H
	DD	FLAT:__unwindfunclet$?Environment_Load@@YA_NAAUSEnvironmentData@@PBD@Z$29
	DD	00H
	DD	FLAT:__unwindfunclet$?Environment_Load@@YA_NAAUSEnvironmentData@@PBD@Z$30
	DD	00H
	DD	FLAT:__unwindfunclet$?Environment_Load@@YA_NAAUSEnvironmentData@@PBD@Z$31
	DD	00H
	DD	FLAT:__unwindfunclet$?Environment_Load@@YA_NAAUSEnvironmentData@@PBD@Z$32
	DD	00H
	DD	FLAT:__unwindfunclet$?Environment_Load@@YA_NAAUSEnvironmentData@@PBD@Z$33
	DD	00H
	DD	FLAT:__unwindfunclet$?Environment_Load@@YA_NAAUSEnvironmentData@@PBD@Z$34
	DD	00H
	DD	FLAT:__unwindfunclet$?Environment_Load@@YA_NAAUSEnvironmentData@@PBD@Z$35
	DD	00H
	DD	FLAT:__unwindfunclet$?Environment_Load@@YA_NAAUSEnvironmentData@@PBD@Z$36
	DD	00H
	DD	FLAT:__unwindfunclet$?Environment_Load@@YA_NAAUSEnvironmentData@@PBD@Z$37
	DD	00H
	DD	FLAT:__unwindfunclet$?Environment_Load@@YA_NAAUSEnvironmentData@@PBD@Z$38
	DD	00H
	DD	FLAT:__unwindfunclet$?Environment_Load@@YA_NAAUSEnvironmentData@@PBD@Z$39
	DD	00H
	DD	FLAT:__unwindfunclet$?Environment_Load@@YA_NAAUSEnvironmentData@@PBD@Z$40
	DD	00H
	DD	FLAT:__unwindfunclet$?Environment_Load@@YA_NAAUSEnvironmentData@@PBD@Z$41
	DD	00H
	DD	FLAT:__unwindfunclet$?Environment_Load@@YA_NAAUSEnvironmentData@@PBD@Z$42
	DD	00H
	DD	FLAT:__unwindfunclet$?Environment_Load@@YA_NAAUSEnvironmentData@@PBD@Z$43
xdata$x	ENDS
; Function compile flags: /Ogtp
; File C:\Program Files (x86)\Microsoft Visual Studio\2019\Community\VC\Tools\MSVC\14.27.29110\include\xmemory
;	COMDAT ??$_Uninitialized_move@PAUTGradientColor@@V?$allocator@UTGradientColor@@@std@@@std@@YAPAUTGradientColor@@QAU1@0PAU1@AAV?$allocator@UTGradientColor@@@0@@Z
_TEXT	SEGMENT
__First$ = 8						; size = 4
__Last$ = 12						; size = 4
__Dest$ = 16						; size = 4
__Al$ = 20						; size = 4
??$_Uninitialized_move@PAUTGradientColor@@V?$allocator@UTGradientColor@@@std@@@std@@YAPAUTGradientColor@@QAU1@0PAU1@AAV?$allocator@UTGradientColor@@@0@@Z PROC ; std::_Uninitialized_move<TGradientColor *,std::allocator<TGradientColor> >, COMDAT

; 1647 :     const _InIt _First, const _InIt _Last, _Alloc_ptr_t<_Alloc> _Dest, _Alloc& _Al) {

  00000	55		 push	 ebp
  00001	8b ec		 mov	 ebp, esp

; 1648 :     // move [_First, _Last) to raw _Dest, using _Al
; 1649 :     // note: only called internally from elsewhere in the STL
; 1650 :     using _Ptrval     = typename _Alloc::value_type*;
; 1651 :     auto _UFirst      = _Get_unwrapped(_First);
; 1652 :     const auto _ULast = _Get_unwrapped(_Last);
; 1653 :     if constexpr (conjunction_v<bool_constant<_Ptr_move_cat<decltype(_UFirst), _Ptrval>::_Really_trivial>,
; 1654 :                       _Uses_default_construct<_Alloc, _Ptrval, decltype(_STD move(*_UFirst))>>) {
; 1655 :         _Copy_memmove(_UFirst, _ULast, _Unfancy(_Dest));
; 1656 :         return _Dest + (_ULast - _UFirst);
; 1657 :     } else {
; 1658 :         _Uninitialized_backout_al<_Alloc> _Backout{_Dest, _Al};
; 1659 :         for (; _UFirst != _ULast; ++_UFirst) {

  00003	8b 4d 08	 mov	 ecx, DWORD PTR __First$[ebp]
  00006	8b 55 0c	 mov	 edx, DWORD PTR __Last$[ebp]

; 1497 :     _Uninitialized_backout_al(pointer _Dest, _Alloc& _Al_) : _First(_Dest), _Last(_Dest), _Al(_Al_) {}

  00009	8b 45 10	 mov	 eax, DWORD PTR __Dest$[ebp]

; 1648 :     // move [_First, _Last) to raw _Dest, using _Al
; 1649 :     // note: only called internally from elsewhere in the STL
; 1650 :     using _Ptrval     = typename _Alloc::value_type*;
; 1651 :     auto _UFirst      = _Get_unwrapped(_First);
; 1652 :     const auto _ULast = _Get_unwrapped(_Last);
; 1653 :     if constexpr (conjunction_v<bool_constant<_Ptr_move_cat<decltype(_UFirst), _Ptrval>::_Really_trivial>,
; 1654 :                       _Uses_default_construct<_Alloc, _Ptrval, decltype(_STD move(*_UFirst))>>) {
; 1655 :         _Copy_memmove(_UFirst, _ULast, _Unfancy(_Dest));
; 1656 :         return _Dest + (_ULast - _UFirst);
; 1657 :     } else {
; 1658 :         _Uninitialized_backout_al<_Alloc> _Backout{_Dest, _Al};
; 1659 :         for (; _UFirst != _ULast; ++_UFirst) {

  0000c	3b ca		 cmp	 ecx, edx
  0000e	74 18		 je	 SHORT $LN3@Uninitiali
$LL4@Uninitiali:

; 694  :         ::new (const_cast<void*>(static_cast<const volatile void*>(_Ptr))) _Objty(_STD forward<_Types>(_Args)...);

  00010	0f 10 01	 movups	 xmm0, XMMWORD PTR [ecx]
  00013	0f 11 00	 movups	 XMMWORD PTR [eax], xmm0
  00016	0f 10 41 10	 movups	 xmm0, XMMWORD PTR [ecx+16]

; 1509 :         ++_Last;

  0001a	83 c1 20	 add	 ecx, 32			; 00000020H

; 694  :         ::new (const_cast<void*>(static_cast<const volatile void*>(_Ptr))) _Objty(_STD forward<_Types>(_Args)...);

  0001d	0f 11 40 10	 movups	 XMMWORD PTR [eax+16], xmm0

; 1509 :         ++_Last;

  00021	83 c0 20	 add	 eax, 32			; 00000020H

; 1648 :     // move [_First, _Last) to raw _Dest, using _Al
; 1649 :     // note: only called internally from elsewhere in the STL
; 1650 :     using _Ptrval     = typename _Alloc::value_type*;
; 1651 :     auto _UFirst      = _Get_unwrapped(_First);
; 1652 :     const auto _ULast = _Get_unwrapped(_Last);
; 1653 :     if constexpr (conjunction_v<bool_constant<_Ptr_move_cat<decltype(_UFirst), _Ptrval>::_Really_trivial>,
; 1654 :                       _Uses_default_construct<_Alloc, _Ptrval, decltype(_STD move(*_UFirst))>>) {
; 1655 :         _Copy_memmove(_UFirst, _ULast, _Unfancy(_Dest));
; 1656 :         return _Dest + (_ULast - _UFirst);
; 1657 :     } else {
; 1658 :         _Uninitialized_backout_al<_Alloc> _Backout{_Dest, _Al};
; 1659 :         for (; _UFirst != _ULast; ++_UFirst) {

  00024	3b ca		 cmp	 ecx, edx
  00026	75 e8		 jne	 SHORT $LL4@Uninitiali
$LN3@Uninitiali:

; 1660 :             _Backout._Emplace_back(_STD move(*_UFirst));
; 1661 :         }
; 1662 : 
; 1663 :         return _Backout._Release();
; 1664 :     }
; 1665 : }

  00028	5d		 pop	 ebp
  00029	c3		 ret	 0
??$_Uninitialized_move@PAUTGradientColor@@V?$allocator@UTGradientColor@@@std@@@std@@YAPAUTGradientColor@@QAU1@0PAU1@AAV?$allocator@UTGradientColor@@@0@@Z ENDP ; std::_Uninitialized_move<TGradientColor *,std::allocator<TGradientColor> >
_TEXT	ENDS
; Function compile flags: /Ogtp
; File C:\Program Files (x86)\Microsoft Visual Studio\2019\Community\VC\Tools\MSVC\14.27.29110\include\xmemory
; File C:\DS Project\DS Files\Source\ClientSource\Client\eterLib\SkyBox.h
; File C:\Program Files (x86)\Microsoft Visual Studio\2019\Community\VC\Tools\MSVC\14.27.29110\include\xmemory
; File C:\DS Project\DS Files\Source\ClientSource\Client\eterLib\SkyBox.h
; File C:\Program Files (x86)\Microsoft Visual Studio\2019\Community\VC\Tools\MSVC\14.27.29110\include\xmemory
;	COMDAT ??$_Uninitialized_value_construct_n@V?$allocator@UTGradientColor@@@std@@@std@@YAPAUTGradientColor@@PAU1@IAAV?$allocator@UTGradientColor@@@0@@Z
_TEXT	SEGMENT
__First$ = 8						; size = 4
__Count$ = 12						; size = 4
__Al$ = 16						; size = 4
??$_Uninitialized_value_construct_n@V?$allocator@UTGradientColor@@@std@@@std@@YAPAUTGradientColor@@PAU1@IAAV?$allocator@UTGradientColor@@@0@@Z PROC ; std::_Uninitialized_value_construct_n<std::allocator<TGradientColor> >, COMDAT

; 1824 :     _Alloc_ptr_t<_Alloc> _First, _Alloc_size_t<_Alloc> _Count, _Alloc& _Al) {

  00000	55		 push	 ebp
  00001	8b ec		 mov	 ebp, esp

; 1833 :         for (; 0 < _Count; --_Count) {

  00003	8b 55 0c	 mov	 edx, DWORD PTR __Count$[ebp]

; 1497 :     _Uninitialized_backout_al(pointer _Dest, _Alloc& _Al_) : _First(_Dest), _Last(_Dest), _Al(_Al_) {}

  00006	8b 45 08	 mov	 eax, DWORD PTR __First$[ebp]

; 1833 :         for (; 0 < _Count; --_Count) {

  00009	85 d2		 test	 edx, edx
  0000b	74 4f		 je	 SHORT $LN3@Uninitiali
  0000d	8d 48 18	 lea	 ecx, DWORD PTR [eax+24]
$LL4@Uninitiali:
  00010	0f 57 c0	 xorps	 xmm0, xmm0

; 1509 :         ++_Last;

  00013	8d 49 20	 lea	 ecx, DWORD PTR [ecx+32]

; 694  :         ::new (const_cast<void*>(static_cast<const volatile void*>(_Ptr))) _Objty(_STD forward<_Types>(_Args)...);

  00016	0f 11 00	 movups	 XMMWORD PTR [eax], xmm0
  00019	0f 11 40 10	 movups	 XMMWORD PTR [eax+16], xmm0
; File C:\DS Project\DS Files\Source\ClientSource\Client\eterLib\SkyBox.h

; 22   : 	SColor(float _r = 0.0f, float _g = 0.0f, float _b = 0.0f, float _a = 0.0f) : r(_r), g(_g), b(_b), a(_a){}

  0001d	c7 00 00 00 00
	00		 mov	 DWORD PTR [eax], 0
; File C:\Program Files (x86)\Microsoft Visual Studio\2019\Community\VC\Tools\MSVC\14.27.29110\include\xmemory

; 1509 :         ++_Last;

  00023	83 c0 20	 add	 eax, 32			; 00000020H
; File C:\DS Project\DS Files\Source\ClientSource\Client\eterLib\SkyBox.h

; 22   : 	SColor(float _r = 0.0f, float _g = 0.0f, float _b = 0.0f, float _a = 0.0f) : r(_r), g(_g), b(_b), a(_a){}

  00026	c7 41 cc 00 00
	00 00		 mov	 DWORD PTR [ecx-52], 0
  0002d	c7 41 d0 00 00
	00 00		 mov	 DWORD PTR [ecx-48], 0
  00034	c7 41 d4 00 00
	00 00		 mov	 DWORD PTR [ecx-44], 0
  0003b	c7 41 d8 00 00
	00 00		 mov	 DWORD PTR [ecx-40], 0
  00042	c7 41 dc 00 00
	00 00		 mov	 DWORD PTR [ecx-36], 0
  00049	c7 41 e0 00 00
	00 00		 mov	 DWORD PTR [ecx-32], 0
  00050	c7 41 e4 00 00
	00 00		 mov	 DWORD PTR [ecx-28], 0
; File C:\Program Files (x86)\Microsoft Visual Studio\2019\Community\VC\Tools\MSVC\14.27.29110\include\xmemory

; 1833 :         for (; 0 < _Count; --_Count) {

  00057	83 ea 01	 sub	 edx, 1
  0005a	75 b4		 jne	 SHORT $LL4@Uninitiali
$LN3@Uninitiali:

; 1834 :             _Backout._Emplace_back();
; 1835 :         }
; 1836 : 
; 1837 :         return _Backout._Release();
; 1838 :     }
; 1839 : }

  0005c	5d		 pop	 ebp
  0005d	c3		 ret	 0
??$_Uninitialized_value_construct_n@V?$allocator@UTGradientColor@@@std@@@std@@YAPAUTGradientColor@@PAU1@IAAV?$allocator@UTGradientColor@@@0@@Z ENDP ; std::_Uninitialized_value_construct_n<std::allocator<TGradientColor> >
_TEXT	ENDS
; Function compile flags: /Ogtp
; File C:\Program Files (x86)\Microsoft Visual Studio\2019\Community\VC\Tools\MSVC\14.27.29110\include\vector
; File C:\Program Files (x86)\Microsoft Visual Studio\2019\Community\VC\Tools\MSVC\14.27.29110\include\xmemory
; File C:\Program Files (x86)\Microsoft Visual Studio\2019\Community\VC\Tools\MSVC\14.27.29110\include\vector
; File C:\Program Files (x86)\Microsoft Visual Studio\2019\Community\VC\Tools\MSVC\14.27.29110\include\xmemory
; File C:\Program Files (x86)\Microsoft Visual Studio\2019\Community\VC\Tools\MSVC\14.27.29110\include\vector
; File C:\Program Files (x86)\Microsoft Visual Studio\2019\Community\VC\Tools\MSVC\14.27.29110\include\xmemory
; File C:\Program Files (x86)\Microsoft Visual Studio\2019\Community\VC\Tools\MSVC\14.27.29110\include\vector
; File C:\Program Files (x86)\Microsoft Visual Studio\2019\Community\VC\Tools\MSVC\14.27.29110\include\xmemory
; File C:\Program Files (x86)\Microsoft Visual Studio\2019\Community\VC\Tools\MSVC\14.27.29110\include\vector
;	COMDAT ??$_Resize_reallocate@U_Value_init_tag@std@@@?$vector@UTGradientColor@@V?$allocator@UTGradientColor@@@std@@@std@@AAEXIABU_Value_init_tag@1@@Z
_TEXT	SEGMENT
__Oldsize$1$ = -4					; size = 4
__Newvec$1$ = 8						; size = 4
__Newsize$ = 8						; size = 4
__Val$ = 12						; size = 4
??$_Resize_reallocate@U_Value_init_tag@std@@@?$vector@UTGradientColor@@V?$allocator@UTGradientColor@@@std@@@std@@AAEXIABU_Value_init_tag@1@@Z PROC ; std::vector<TGradientColor,std::allocator<TGradientColor> >::_Resize_reallocate<std::_Value_init_tag>, COMDAT
; _this$ = ecx

; 1182 :     void _Resize_reallocate(const size_type _Newsize, const _Ty2& _Val) {

  00000	55		 push	 ebp
  00001	8b ec		 mov	 ebp, esp
  00003	51		 push	 ecx
  00004	53		 push	 ebx
  00005	56		 push	 esi

; 1183 :         if (_Newsize > max_size()) {

  00006	8b 75 08	 mov	 esi, DWORD PTR __Newsize$[ebp]
  00009	57		 push	 edi
  0000a	8b f9		 mov	 edi, ecx
  0000c	81 fe ff ff ff
	07		 cmp	 esi, 134217727		; 07ffffffH
  00012	0f 87 9b 00 00
	00		 ja	 $LN36@Resize_rea

; 1185 :         }
; 1186 : 
; 1187 :         auto& _My_data    = _Mypair._Myval2;
; 1188 :         pointer& _Myfirst = _My_data._Myfirst;
; 1189 :         pointer& _Mylast  = _My_data._Mylast;
; 1190 : 
; 1191 :         const auto _Oldsize          = static_cast<size_type>(_Mylast - _Myfirst);

  00018	8b 4f 04	 mov	 ecx, DWORD PTR [edi+4]

; 1619 :         if (_Oldcapacity > max_size() - _Oldcapacity / 2) {

  0001b	b8 ff ff ff 07	 mov	 eax, 134217727		; 07ffffffH

; 1185 :         }
; 1186 : 
; 1187 :         auto& _My_data    = _Mypair._Myval2;
; 1188 :         pointer& _Myfirst = _My_data._Myfirst;
; 1189 :         pointer& _Mylast  = _My_data._Mylast;
; 1190 : 
; 1191 :         const auto _Oldsize          = static_cast<size_type>(_Mylast - _Myfirst);

  00020	2b 0f		 sub	 ecx, DWORD PTR [edi]
  00022	c1 f9 05	 sar	 ecx, 5
  00025	89 4d fc	 mov	 DWORD PTR __Oldsize$1$[ebp], ecx

; 1494 :         return static_cast<size_type>(_My_data._Myend - _My_data._Myfirst);

  00028	8b 4f 08	 mov	 ecx, DWORD PTR [edi+8]
  0002b	2b 0f		 sub	 ecx, DWORD PTR [edi]
  0002d	c1 f9 05	 sar	 ecx, 5

; 1619 :         if (_Oldcapacity > max_size() - _Oldcapacity / 2) {

  00030	8b d1		 mov	 edx, ecx
  00032	d1 ea		 shr	 edx, 1
  00034	2b c2		 sub	 eax, edx
  00036	3b c8		 cmp	 ecx, eax
  00038	77 11		 ja	 SHORT $LN34@Resize_rea

; 1620 :             return _Newsize; // geometric growth would overflow
; 1621 :         }
; 1622 : 
; 1623 :         const size_type _Geometric = _Oldcapacity + _Oldcapacity / 2;

  0003a	8d 1c 0a	 lea	 ebx, DWORD PTR [edx+ecx]

; 1624 : 
; 1625 :         if (_Geometric < _Newsize) {

  0003d	3b de		 cmp	 ebx, esi
  0003f	72 0a		 jb	 SHORT $LN34@Resize_rea
; File C:\Program Files (x86)\Microsoft Visual Studio\2019\Community\VC\Tools\MSVC\14.27.29110\include\xmemory

; 60   :         if (_Count > _Max_possible) {

  00041	81 fb ff ff ff
	07		 cmp	 ebx, 134217727		; 07ffffffH
  00047	77 6f		 ja	 SHORT $LN37@Resize_rea
  00049	eb 02		 jmp	 SHORT $LN18@Resize_rea
$LN34@Resize_rea:

; 62   :         }
; 63   :     }
; 64   : 
; 65   :     return _Count * _Ty_size;

  0004b	8b de		 mov	 ebx, esi
$LN18@Resize_rea:
  0004d	c1 e3 05	 shl	 ebx, 5

; 807  :         return static_cast<_Ty*>(_Allocate<_New_alignof<_Ty>>(_Get_size_of_n<sizeof(_Ty)>(_Count)));

  00050	53		 push	 ebx
  00051	e8 00 00 00 00	 call	 ??$_Allocate@$07U_Default_allocate_traits@std@@$0A@@std@@YAPAXI@Z ; std::_Allocate<8,std::_Default_allocate_traits,0>
  00056	8b d0		 mov	 edx, eax
; File C:\Program Files (x86)\Microsoft Visual Studio\2019\Community\VC\Tools\MSVC\14.27.29110\include\vector

; 1199 :         _Appended_last = _Ufill(_Appended_first, _Newsize - _Oldsize, _Val);

  00058	8b ce		 mov	 ecx, esi
  0005a	8b 45 fc	 mov	 eax, DWORD PTR __Oldsize$1$[ebp]
  0005d	2b c8		 sub	 ecx, eax

; 1583 :         return _Uninitialized_value_construct_n(_Dest, _Count, _Getal());

  0005f	57		 push	 edi

; 1192 :         const size_type _Newcapacity = _Calculate_growth(_Newsize);
; 1193 : 
; 1194 :         const pointer _Newvec         = _Getal().allocate(_Newcapacity);
; 1195 :         const pointer _Appended_first = _Newvec + _Oldsize;

  00060	c1 e0 05	 shl	 eax, 5

; 1583 :         return _Uninitialized_value_construct_n(_Dest, _Count, _Getal());

  00063	51		 push	 ecx

; 1192 :         const size_type _Newcapacity = _Calculate_growth(_Newsize);
; 1193 : 
; 1194 :         const pointer _Newvec         = _Getal().allocate(_Newcapacity);
; 1195 :         const pointer _Appended_first = _Newvec + _Oldsize;

  00064	03 c2		 add	 eax, edx
; File C:\Program Files (x86)\Microsoft Visual Studio\2019\Community\VC\Tools\MSVC\14.27.29110\include\xmemory

; 807  :         return static_cast<_Ty*>(_Allocate<_New_alignof<_Ty>>(_Get_size_of_n<sizeof(_Ty)>(_Count)));

  00066	89 55 08	 mov	 DWORD PTR __Newvec$1$[ebp], edx
; File C:\Program Files (x86)\Microsoft Visual Studio\2019\Community\VC\Tools\MSVC\14.27.29110\include\vector

; 1583 :         return _Uninitialized_value_construct_n(_Dest, _Count, _Getal());

  00069	50		 push	 eax
  0006a	e8 00 00 00 00	 call	 ??$_Uninitialized_value_construct_n@V?$allocator@UTGradientColor@@@std@@@std@@YAPAUTGradientColor@@PAU1@IAAV?$allocator@UTGradientColor@@@0@@Z ; std::_Uninitialized_value_construct_n<std::allocator<TGradientColor> >

; 1597 :         _Uninitialized_move(_First, _Last, _Dest, _Getal());

  0006f	57		 push	 edi
  00070	ff 75 08	 push	 DWORD PTR __Newvec$1$[ebp]
  00073	ff 77 04	 push	 DWORD PTR [edi+4]
  00076	ff 37		 push	 DWORD PTR [edi]
  00078	e8 00 00 00 00	 call	 ??$_Uninitialized_move@PAUTGradientColor@@V?$allocator@UTGradientColor@@@std@@@std@@YAPAUTGradientColor@@QAU1@0PAU1@AAV?$allocator@UTGradientColor@@@0@@Z ; std::_Uninitialized_move<TGradientColor *,std::allocator<TGradientColor> >

; 1675 :         if (_Myfirst) { // destroy and deallocate old array

  0007d	8b 0f		 mov	 ecx, DWORD PTR [edi]

; 1597 :         _Uninitialized_move(_First, _Last, _Dest, _Getal());

  0007f	83 c4 20	 add	 esp, 32			; 00000020H

; 1675 :         if (_Myfirst) { // destroy and deallocate old array

  00082	85 c9		 test	 ecx, ecx
  00084	74 12		 je	 SHORT $LN29@Resize_rea

; 1676 :             _Destroy(_Myfirst, _Mylast);
; 1677 :             _Getal().deallocate(_Myfirst, static_cast<size_type>(_Myend - _Myfirst));

  00086	8b 47 08	 mov	 eax, DWORD PTR [edi+8]
  00089	2b c1		 sub	 eax, ecx
; File C:\Program Files (x86)\Microsoft Visual Studio\2019\Community\VC\Tools\MSVC\14.27.29110\include\xmemory

; 803  :         _Deallocate<_New_alignof<_Ty>>(_Ptr, sizeof(_Ty) * _Count);

  0008b	83 e0 e0	 and	 eax, -32		; ffffffe0H
  0008e	50		 push	 eax
  0008f	51		 push	 ecx
  00090	e8 00 00 00 00	 call	 ??$_Deallocate@$07$0A@@std@@YAXPAXI@Z ; std::_Deallocate<8,0>
  00095	83 c4 08	 add	 esp, 8
$LN29@Resize_rea:
; File C:\Program Files (x86)\Microsoft Visual Studio\2019\Community\VC\Tools\MSVC\14.27.29110\include\vector

; 1680 :         _Myfirst = _Newvec;

  00098	8b 45 08	 mov	 eax, DWORD PTR __Newvec$1$[ebp]

; 1681 :         _Mylast  = _Newvec + _Newsize;

  0009b	c1 e6 05	 shl	 esi, 5
  0009e	89 07		 mov	 DWORD PTR [edi], eax
  000a0	03 f0		 add	 esi, eax
  000a2	89 77 04	 mov	 DWORD PTR [edi+4], esi

; 1682 :         _Myend   = _Newvec + _Newcapacity;

  000a5	03 c3		 add	 eax, ebx
  000a7	89 47 08	 mov	 DWORD PTR [edi+8], eax
  000aa	5f		 pop	 edi
  000ab	5e		 pop	 esi
  000ac	5b		 pop	 ebx

; 1208 :     }

  000ad	8b e5		 mov	 esp, ebp
  000af	5d		 pop	 ebp
  000b0	c2 08 00	 ret	 8
$LN36@Resize_rea:

; 1184 :             _Xlength();

  000b3	e8 00 00 00 00	 call	 ?_Xlength@?$vector@UTGradientColor@@V?$allocator@UTGradientColor@@@std@@@std@@CAXXZ ; std::vector<TGradientColor,std::allocator<TGradientColor> >::_Xlength
$LN37@Resize_rea:
; File C:\Program Files (x86)\Microsoft Visual Studio\2019\Community\VC\Tools\MSVC\14.27.29110\include\xmemory

; 61   :             _Throw_bad_array_new_length(); // multiply overflow

  000b8	e8 00 00 00 00	 call	 ?_Throw_bad_array_new_length@std@@YAXXZ ; std::_Throw_bad_array_new_length
$LN33@Resize_rea:
  000bd	cc		 int	 3
??$_Resize_reallocate@U_Value_init_tag@std@@@?$vector@UTGradientColor@@V?$allocator@UTGradientColor@@@std@@@std@@AAEXIABU_Value_init_tag@1@@Z ENDP ; std::vector<TGradientColor,std::allocator<TGradientColor> >::_Resize_reallocate<std::_Value_init_tag>
_TEXT	ENDS
; Function compile flags: /Ogtp
; File C:\Program Files (x86)\Microsoft Visual Studio\2019\Community\VC\Tools\MSVC\14.27.29110\include\xmemory
;	COMDAT ??$_Destroy_range@V?$allocator@UTGradientColor@@@std@@@std@@YAXPAUTGradientColor@@QAU1@AAV?$allocator@UTGradientColor@@@0@@Z
_TEXT	SEGMENT
__First$ = 8						; size = 4
__Last$ = 12						; size = 4
__Al$ = 16						; size = 4
??$_Destroy_range@V?$allocator@UTGradientColor@@@std@@@std@@YAXPAUTGradientColor@@QAU1@AAV?$allocator@UTGradientColor@@@0@@Z PROC ; std::_Destroy_range<std::allocator<TGradientColor> >, COMDAT

; 956  :     // note that this is an optimization for debug mode codegen; in release mode the BE removes all of this
; 957  :     using _Ty = typename _Alloc::value_type;
; 958  :     if _CONSTEXPR_IF (!conjunction_v<is_trivially_destructible<_Ty>, _Uses_default_destroy<_Alloc, _Ty*>>) {
; 959  :         for (; _First != _Last; ++_First) {
; 960  :             allocator_traits<_Alloc>::destroy(_Al, _Unfancy(_First));
; 961  :         }
; 962  :     }
; 963  : }

  00000	c2 00 00	 ret	 0
??$_Destroy_range@V?$allocator@UTGradientColor@@@std@@@std@@YAXPAUTGradientColor@@QAU1@AAV?$allocator@UTGradientColor@@@0@@Z ENDP ; std::_Destroy_range<std::allocator<TGradientColor> >
_TEXT	ENDS
; Function compile flags: /Ogtp
; File C:\Program Files (x86)\Microsoft Visual Studio\2019\Community\VC\Tools\MSVC\14.27.29110\include\xmemory
;	COMDAT ??$_Allocate_manually_vector_aligned@U_Default_allocate_traits@std@@@std@@YAPAXI@Z
_TEXT	SEGMENT
__Bytes$ = 8						; size = 4
??$_Allocate_manually_vector_aligned@U_Default_allocate_traits@std@@@std@@YAPAXI@Z PROC ; std::_Allocate_manually_vector_aligned<std::_Default_allocate_traits>, COMDAT

; 113  : __declspec(allocator) void* _Allocate_manually_vector_aligned(const size_t _Bytes) {

  00000	55		 push	 ebp
  00001	8b ec		 mov	 ebp, esp

; 114  :     // allocate _Bytes manually aligned to at least _Big_allocation_alignment
; 115  :     const size_t _Block_size = _Non_user_size + _Bytes;

  00003	8b 45 08	 mov	 eax, DWORD PTR __Bytes$[ebp]
  00006	8d 48 23	 lea	 ecx, DWORD PTR [eax+35]

; 116  :     if (_Block_size <= _Bytes) {

  00009	3b c8		 cmp	 ecx, eax
  0000b	0f 86 00 00 00
	00		 jbe	 ?_Throw_bad_array_new_length@std@@YAXXZ ; std::_Throw_bad_array_new_length

; 77   :         return ::operator new(_Bytes);

  00011	51		 push	 ecx
  00012	e8 00 00 00 00	 call	 ??2@YAPAXI@Z		; operator new

; 117  :         _Throw_bad_array_new_length(); // add overflow
; 118  :     }
; 119  : 
; 120  :     const uintptr_t _Ptr_container = reinterpret_cast<uintptr_t>(_Traits::_Allocate(_Block_size));

  00017	8b c8		 mov	 ecx, eax

; 77   :         return ::operator new(_Bytes);

  00019	83 c4 04	 add	 esp, 4

; 121  :     _STL_VERIFY(_Ptr_container != 0, "invalid argument"); // validate even in release since we're doing p[-1]

  0001c	85 c9		 test	 ecx, ecx
  0001e	74 0b		 je	 SHORT $LN7@Allocate_m

; 122  :     void* const _Ptr = reinterpret_cast<void*>((_Ptr_container + _Non_user_size) & ~(_Big_allocation_alignment - 1));

  00020	8d 41 23	 lea	 eax, DWORD PTR [ecx+35]
  00023	83 e0 e0	 and	 eax, -32		; ffffffe0H

; 123  :     static_cast<uintptr_t*>(_Ptr)[-1] = _Ptr_container;

  00026	89 48 fc	 mov	 DWORD PTR [eax-4], ecx

; 124  : 
; 125  : #ifdef _DEBUG
; 126  :     static_cast<uintptr_t*>(_Ptr)[-2] = _Big_allocation_sentinel;
; 127  : #endif // _DEBUG
; 128  :     return _Ptr;
; 129  : }

  00029	5d		 pop	 ebp
  0002a	c3		 ret	 0
$LN7@Allocate_m:

; 121  :     _STL_VERIFY(_Ptr_container != 0, "invalid argument"); // validate even in release since we're doing p[-1]

  0002b	e9 00 00 00 00	 jmp	 __invalid_parameter_noinfo_noreturn
??$_Allocate_manually_vector_aligned@U_Default_allocate_traits@std@@@std@@YAPAXI@Z ENDP ; std::_Allocate_manually_vector_aligned<std::_Default_allocate_traits>
_TEXT	ENDS
; Function compile flags: /Ogtp
; File C:\Program Files (x86)\Microsoft Visual Studio\2019\Community\VC\Tools\MSVC\14.27.29110\include\xmemory
;	COMDAT ??$_Allocate@$07U_Default_allocate_traits@std@@$0A@@std@@YAPAXI@Z
_TEXT	SEGMENT
__Bytes$ = 8						; size = 4
??$_Allocate@$07U_Default_allocate_traits@std@@$0A@@std@@YAPAXI@Z PROC ; std::_Allocate<8,std::_Default_allocate_traits,0>, COMDAT

; 197  : __declspec(allocator) void* _Allocate(const size_t _Bytes) {

  00000	55		 push	 ebp
  00001	8b ec		 mov	 ebp, esp

; 198  :     // allocate _Bytes when !_HAS_ALIGNED_NEW || _Align <= __STDCPP_DEFAULT_NEW_ALIGNMENT__
; 199  : #if defined(_M_IX86) || defined(_M_X64)
; 200  :     if (_Bytes >= _Big_allocation_threshold) { // boost the alignment of big allocations to help autovectorization

  00003	8b 45 08	 mov	 eax, DWORD PTR __Bytes$[ebp]
  00006	3d 00 10 00 00	 cmp	 eax, 4096		; 00001000H
  0000b	72 09		 jb	 SHORT $LN2@Allocate

; 201  :         return _Allocate_manually_vector_aligned<_Traits>(_Bytes);

  0000d	89 45 08	 mov	 DWORD PTR __Bytes$[ebp], eax

; 210  : }

  00010	5d		 pop	 ebp

; 201  :         return _Allocate_manually_vector_aligned<_Traits>(_Bytes);

  00011	e9 00 00 00 00	 jmp	 ??$_Allocate_manually_vector_aligned@U_Default_allocate_traits@std@@@std@@YAPAXI@Z ; std::_Allocate_manually_vector_aligned<std::_Default_allocate_traits>
$LN2@Allocate:

; 202  :     }
; 203  : #endif // defined(_M_IX86) || defined(_M_X64)
; 204  : 
; 205  :     if (_Bytes != 0) {

  00016	85 c0		 test	 eax, eax
  00018	74 09		 je	 SHORT $LN3@Allocate

; 77   :         return ::operator new(_Bytes);

  0001a	89 45 08	 mov	 DWORD PTR __Bytes$[ebp], eax

; 210  : }

  0001d	5d		 pop	 ebp

; 77   :         return ::operator new(_Bytes);

  0001e	e9 00 00 00 00	 jmp	 ??2@YAPAXI@Z		; operator new
$LN3@Allocate:

; 206  :         return _Traits::_Allocate(_Bytes);
; 207  :     }
; 208  : 
; 209  :     return nullptr;

  00023	33 c0		 xor	 eax, eax

; 210  : }

  00025	5d		 pop	 ebp
  00026	c3		 ret	 0
??$_Allocate@$07U_Default_allocate_traits@std@@$0A@@std@@YAPAXI@Z ENDP ; std::_Allocate<8,std::_Default_allocate_traits,0>
_TEXT	ENDS
; Function compile flags: /Ogtp
; File C:\Program Files (x86)\Microsoft Visual Studio\2019\Community\VC\Tools\MSVC\14.27.29110\include\xmemory
;	COMDAT ??$_Deallocate@$07$0A@@std@@YAXPAXI@Z
_TEXT	SEGMENT
__Ptr$ = 8						; size = 4
__Bytes$ = 12						; size = 4
??$_Deallocate@$07$0A@@std@@YAXPAXI@Z PROC		; std::_Deallocate<8,0>, COMDAT

; 213  : void _Deallocate(void* _Ptr, size_t _Bytes) noexcept {

  00000	55		 push	 ebp
  00001	8b ec		 mov	 ebp, esp

; 214  :     // deallocate storage allocated by _Allocate when !_HAS_ALIGNED_NEW || _Align <= __STDCPP_DEFAULT_NEW_ALIGNMENT__
; 215  : #if defined(_M_IX86) || defined(_M_X64)
; 216  :     if (_Bytes >= _Big_allocation_threshold) { // boost the alignment of big allocations to help autovectorization

  00003	8b 4d 0c	 mov	 ecx, DWORD PTR __Bytes$[ebp]
  00006	81 f9 00 10 00
	00		 cmp	 ecx, 4096		; 00001000H
  0000c	72 18		 jb	 SHORT $LN15@Deallocate

; 137  :     const uintptr_t _Ptr_container   = _Ptr_user[-1];

  0000e	8b 45 08	 mov	 eax, DWORD PTR __Ptr$[ebp]
  00011	83 c1 23	 add	 ecx, 35			; 00000023H
  00014	8b 50 fc	 mov	 edx, DWORD PTR [eax-4]

; 138  : 
; 139  :     // If the following asserts, it likely means that we are performing
; 140  :     // an aligned delete on memory coming from an unaligned allocation.
; 141  :     _STL_ASSERT(_Ptr_user[-2] == _Big_allocation_sentinel, "invalid argument");
; 142  : 
; 143  :     // Extra paranoia on aligned allocation/deallocation; ensure _Ptr_container is
; 144  :     // in range [_Min_back_shift, _Non_user_size]
; 145  : #ifdef _DEBUG
; 146  :     constexpr uintptr_t _Min_back_shift = 2 * sizeof(void*);
; 147  : #else // ^^^ _DEBUG ^^^ // vvv !_DEBUG vvv
; 148  :     constexpr uintptr_t _Min_back_shift = sizeof(void*);
; 149  : #endif // _DEBUG
; 150  :     const uintptr_t _Back_shift = reinterpret_cast<uintptr_t>(_Ptr) - _Ptr_container;

  00017	2b c2		 sub	 eax, edx

; 151  :     _STL_VERIFY(_Back_shift >= _Min_back_shift && _Back_shift <= _Non_user_size, "invalid argument");

  00019	83 c0 fc	 add	 eax, -4			; fffffffcH
  0001c	83 f8 1f	 cmp	 eax, 31			; 0000001fH
  0001f	76 08		 jbe	 SHORT $LN13@Deallocate
  00021	e9 00 00 00 00	 jmp	 __invalid_parameter_noinfo_noreturn
$LN15@Deallocate:

; 214  :     // deallocate storage allocated by _Allocate when !_HAS_ALIGNED_NEW || _Align <= __STDCPP_DEFAULT_NEW_ALIGNMENT__
; 215  : #if defined(_M_IX86) || defined(_M_X64)
; 216  :     if (_Bytes >= _Big_allocation_threshold) { // boost the alignment of big allocations to help autovectorization

  00026	8b 55 08	 mov	 edx, DWORD PTR __Ptr$[ebp]
$LN13@Deallocate:

; 217  :         _Adjust_manually_vector_aligned(_Ptr, _Bytes);
; 218  :     }
; 219  : #endif // defined(_M_IX86) || defined(_M_X64)
; 220  : 
; 221  :     ::operator delete(_Ptr, _Bytes);

  00029	89 4d 0c	 mov	 DWORD PTR __Bytes$[ebp], ecx
  0002c	89 55 08	 mov	 DWORD PTR __Ptr$[ebp], edx

; 222  : }

  0002f	5d		 pop	 ebp

; 217  :         _Adjust_manually_vector_aligned(_Ptr, _Bytes);
; 218  :     }
; 219  : #endif // defined(_M_IX86) || defined(_M_X64)
; 220  : 
; 221  :     ::operator delete(_Ptr, _Bytes);

  00030	e9 00 00 00 00	 jmp	 ??3@YAXPAXI@Z		; operator delete
??$_Deallocate@$07$0A@@std@@YAXPAXI@Z ENDP		; std::_Deallocate<8,0>
_TEXT	ENDS
; Function compile flags: /Ogtp
; File C:\Program Files (x86)\Microsoft Visual Studio\2019\Community\VC\Tools\MSVC\14.27.29110\include\xmemory
;	COMDAT ??$_Construct_in_place@PADABQAD@std@@YAXAAPADABQAD@Z
_TEXT	SEGMENT
__Obj$ = 8						; size = 4
_<_Args_0>$ = 12					; size = 4
??$_Construct_in_place@PADABQAD@std@@YAXAAPADABQAD@Z PROC ; std::_Construct_in_place<char *,char * const &>, COMDAT

; 228  : void _Construct_in_place(_Ty& _Obj, _Types&&... _Args) noexcept(is_nothrow_constructible_v<_Ty, _Types...>) {

  00000	55		 push	 ebp
  00001	8b ec		 mov	 ebp, esp

; 229  :     ::new (const_cast<void*>(static_cast<const volatile void*>(_STD addressof(_Obj))))

  00003	8b 45 0c	 mov	 eax, DWORD PTR _<_Args_0>$[ebp]
  00006	8b 08		 mov	 ecx, DWORD PTR [eax]
  00008	8b 45 08	 mov	 eax, DWORD PTR __Obj$[ebp]
  0000b	89 08		 mov	 DWORD PTR [eax], ecx

; 230  :         _Ty(_STD forward<_Types>(_Args)...);
; 231  : }

  0000d	5d		 pop	 ebp
  0000e	c3		 ret	 0
??$_Construct_in_place@PADABQAD@std@@YAXAAPADABQAD@Z ENDP ; std::_Construct_in_place<char *,char * const &>
_TEXT	ENDS
; Function compile flags: /Ogtp
; File C:\Program Files (x86)\Microsoft Visual Studio\2019\Community\VC\Tools\MSVC\14.27.29110\include\xmemory
;	COMDAT ??$_Destroy_in_place@PAD@std@@YAXAAPAD@Z
_TEXT	SEGMENT
__Obj$ = 8						; size = 4
??$_Destroy_in_place@PAD@std@@YAXAAPAD@Z PROC		; std::_Destroy_in_place<char *>, COMDAT

; 268  :     _Obj.~_Ty();
; 269  : }

  00000	c2 00 00	 ret	 0
??$_Destroy_in_place@PAD@std@@YAXAAPAD@Z ENDP		; std::_Destroy_in_place<char *>
_TEXT	ENDS
; Function compile flags: /Ogtp
;	COMDAT ??_GCEaseOutInterpolation@@UAEPAXI@Z
_TEXT	SEGMENT
___flags$ = 8						; size = 4
??_GCEaseOutInterpolation@@UAEPAXI@Z PROC		; CEaseOutInterpolation::`scalar deleting destructor', COMDAT
; _this$ = ecx
  00000	55		 push	 ebp
  00001	8b ec		 mov	 ebp, esp
  00003	56		 push	 esi
  00004	8b f1		 mov	 esi, ecx
  00006	e8 00 00 00 00	 call	 ??1CEaseOutInterpolation@@UAE@XZ ; CEaseOutInterpolation::~CEaseOutInterpolation
  0000b	f6 45 08 01	 test	 BYTE PTR ___flags$[ebp], 1
  0000f	74 0b		 je	 SHORT $LN4@scalar
  00011	6a 1c		 push	 28			; 0000001cH
  00013	56		 push	 esi
  00014	e8 00 00 00 00	 call	 ??3@YAXPAXI@Z		; operator delete
  00019	83 c4 08	 add	 esp, 8
$LN4@scalar:
  0001c	8b c6		 mov	 eax, esi
  0001e	5e		 pop	 esi
  0001f	5d		 pop	 ebp
  00020	c2 04 00	 ret	 4
??_GCEaseOutInterpolation@@UAEPAXI@Z ENDP		; CEaseOutInterpolation::`scalar deleting destructor'
_TEXT	ENDS
; Function compile flags: /Ogtp
; File C:\DS Project\DS Files\Source\ClientSource\Client\GameLib\MapUtil.cpp
;	COMDAT ?GetChangingValue@CEaseOutInterpolation@@QAEMXZ
_TEXT	SEGMENT
?GetChangingValue@CEaseOutInterpolation@@QAEMXZ PROC	; CEaseOutInterpolation::GetChangingValue, COMDAT
; _this$ = ecx

; 305  : 	return m_fValue - m_fLastValue;

  00000	d9 41 08	 fld	 DWORD PTR [ecx+8]
  00003	d8 61 18	 fsub	 DWORD PTR [ecx+24]

; 306  : }

  00006	c3		 ret	 0
?GetChangingValue@CEaseOutInterpolation@@QAEMXZ ENDP	; CEaseOutInterpolation::GetChangingValue
_TEXT	ENDS
; Function compile flags: /Ogtp
; File C:\DS Project\DS Files\Source\ClientSource\Client\GameLib\MapUtil.cpp
;	COMDAT ?GetValue@CEaseOutInterpolation@@QAEMXZ
_TEXT	SEGMENT
?GetValue@CEaseOutInterpolation@@QAEMXZ PROC		; CEaseOutInterpolation::GetValue, COMDAT
; _this$ = ecx

; 300  : 	return m_fValue;

  00000	d9 41 08	 fld	 DWORD PTR [ecx+8]

; 301  : }

  00003	c3		 ret	 0
?GetValue@CEaseOutInterpolation@@QAEMXZ ENDP		; CEaseOutInterpolation::GetValue
_TEXT	ENDS
; Function compile flags: /Ogtp
; File C:\DS Project\DS Files\Source\ClientSource\Client\GameLib\MapUtil.cpp
;	COMDAT ?isPlaying@CEaseOutInterpolation@@QAEHXZ
_TEXT	SEGMENT
?isPlaying@CEaseOutInterpolation@@QAEHXZ PROC		; CEaseOutInterpolation::isPlaying, COMDAT
; _this$ = ecx

; 295  : 	return m_fRemainingTime > 0.0f;

  00000	f3 0f 10 41 04	 movss	 xmm0, DWORD PTR [ecx+4]
  00005	33 c0		 xor	 eax, eax
  00007	0f 2f 05 00 00
	00 00		 comiss	 xmm0, DWORD PTR __real@00000000
  0000e	0f 97 c0	 seta	 al

; 296  : }

  00011	c3		 ret	 0
?isPlaying@CEaseOutInterpolation@@QAEHXZ ENDP		; CEaseOutInterpolation::isPlaying
_TEXT	ENDS
; Function compile flags: /Ogtp
; File C:\DS Project\DS Files\Source\ClientSource\Client\GameLib\MapUtil.cpp
;	COMDAT ?Interpolate@CEaseOutInterpolation@@QAEXM@Z
_TEXT	SEGMENT
_fElapsedTime$ = 8					; size = 4
?Interpolate@CEaseOutInterpolation@@QAEXM@Z PROC	; CEaseOutInterpolation::Interpolate, COMDAT
; _this$ = ecx

; 279  : {

  00000	55		 push	 ebp
  00001	8b ec		 mov	 ebp, esp

; 280  : 	m_fLastValue = m_fValue;
; 281  : 
; 282  : 	m_fRemainingTime -= fElapsedTime;

  00003	f3 0f 10 4d 08	 movss	 xmm1, DWORD PTR _fElapsedTime$[ebp]
  00008	56		 push	 esi
  00009	8b f1		 mov	 esi, ecx
  0000b	f3 0f 10 46 04	 movss	 xmm0, DWORD PTR [esi+4]
  00010	f3 0f 10 56 08	 movss	 xmm2, DWORD PTR [esi+8]
  00015	f3 0f 5c c1	 subss	 xmm0, xmm1
  00019	f3 0f 11 56 18	 movss	 DWORD PTR [esi+24], xmm2
  0001e	f3 0f 11 46 04	 movss	 DWORD PTR [esi+4], xmm0

; 283  : 	m_fSpeed += m_fAcceleration * fElapsedTime;

  00023	f3 0f 10 46 10	 movss	 xmm0, DWORD PTR [esi+16]
  00028	f3 0f 59 c1	 mulss	 xmm0, xmm1
  0002c	f3 0f 58 46 0c	 addss	 xmm0, DWORD PTR [esi+12]
  00031	f3 0f 11 46 0c	 movss	 DWORD PTR [esi+12], xmm0

; 284  : 	m_fValue += m_fSpeed * fElapsedTime;

  00036	f3 0f 59 c1	 mulss	 xmm0, xmm1
  0003a	f3 0f 58 c2	 addss	 xmm0, xmm2
  0003e	f3 0f 11 46 08	 movss	 DWORD PTR [esi+8], xmm0

; 285  : 
; 286  : 	if (!isPlaying())

  00043	e8 00 00 00 00	 call	 ?isPlaying@CEaseOutInterpolation@@QAEHXZ ; CEaseOutInterpolation::isPlaying
  00048	85 c0		 test	 eax, eax
  0004a	75 06		 jne	 SHORT $LN2@Interpolat

; 287  : 	{
; 288  : 		m_fValue = 0.0f;

  0004c	89 46 08	 mov	 DWORD PTR [esi+8], eax

; 289  : 		m_fLastValue = 0.0f;

  0004f	89 46 18	 mov	 DWORD PTR [esi+24], eax
$LN2@Interpolat:
  00052	5e		 pop	 esi

; 290  : 	}
; 291  : }

  00053	5d		 pop	 ebp
  00054	c2 04 00	 ret	 4
?Interpolate@CEaseOutInterpolation@@QAEXM@Z ENDP	; CEaseOutInterpolation::Interpolate
_TEXT	ENDS
; Function compile flags: /Ogtp
; File C:\DS Project\DS Files\Source\ClientSource\Client\GameLib\MapUtil.cpp
; File C:\Program Files (x86)\Windows Kits\10\Include\10.0.18362.0\ucrt\corecrt_math.h
; File C:\DS Project\DS Files\Source\ClientSource\Client\GameLib\MapUtil.cpp
; File C:\Program Files (x86)\Windows Kits\10\Include\10.0.18362.0\ucrt\corecrt_math.h
; File C:\DS Project\DS Files\Source\ClientSource\Client\GameLib\MapUtil.cpp
;	COMDAT ?Setup@CEaseOutInterpolation@@QAEHMMM@Z
_TEXT	SEGMENT
_fStart$ = 8						; size = 4
_fEnd$ = 12						; size = 4
_fTime$ = 16						; size = 4
?Setup@CEaseOutInterpolation@@QAEHMMM@Z PROC		; CEaseOutInterpolation::Setup, COMDAT
; _this$ = ecx

; 260  : {

  00000	55		 push	 ebp
  00001	8b ec		 mov	 ebp, esp
; File C:\Program Files (x86)\Windows Kits\10\Include\10.0.18362.0\ucrt\corecrt_math.h

; 672  :             return (float)fabs(_X);

  00003	f3 0f 10 5d 10	 movss	 xmm3, DWORD PTR _fTime$[ebp]
; File C:\DS Project\DS Files\Source\ClientSource\Client\GameLib\MapUtil.cpp

; 262  : 	if( fabs(fTime) < FLT_EPSILON )

  00008	f3 0f 10 05 00
	00 00 00	 movss	 xmm0, DWORD PTR __real@34000000
; File C:\Program Files (x86)\Windows Kits\10\Include\10.0.18362.0\ucrt\corecrt_math.h

; 672  :             return (float)fabs(_X);

  00010	0f 28 cb	 movaps	 xmm1, xmm3
  00013	0f 54 0d 00 00
	00 00		 andps	 xmm1, DWORD PTR __xmm@7fffffff7fffffff7fffffff7fffffff
; File C:\DS Project\DS Files\Source\ClientSource\Client\GameLib\MapUtil.cpp

; 262  : 	if( fabs(fTime) < FLT_EPSILON )

  0001a	0f 2f c1	 comiss	 xmm0, xmm1
  0001d	76 08		 jbe	 SHORT $LN2@Setup

; 263  : 	{
; 264  : 		fTime = 0.01f;

  0001f	f3 0f 10 1d 00
	00 00 00	 movss	 xmm3, DWORD PTR __real@3c23d70a
$LN2@Setup:

; 265  : 	}
; 266  : 
; 267  : 	m_fValue = fStart;

  00027	f3 0f 10 45 08	 movss	 xmm0, DWORD PTR _fStart$[ebp]

; 268  : 	m_fStartValue = fStart;
; 269  : 	m_fLastValue = fStart;
; 270  : 
; 271  : 	m_fSpeed = (2.0f * (fEnd - fStart)) / fTime;
; 272  : 	m_fAcceleration = 2.0f * (fEnd - fStart) / (fTime * fTime) - 2.0f * m_fSpeed / fTime;
; 273  : 	m_fRemainingTime = fTime;
; 274  : 
; 275  : 	return TRUE;

  0002c	b8 01 00 00 00	 mov	 eax, 1
  00031	f3 0f 10 55 0c	 movss	 xmm2, DWORD PTR _fEnd$[ebp]
  00036	f3 0f 5c d0	 subss	 xmm2, xmm0
  0003a	f3 0f 11 41 08	 movss	 DWORD PTR [ecx+8], xmm0
  0003f	f3 0f 11 41 14	 movss	 DWORD PTR [ecx+20], xmm0
  00044	f3 0f 11 41 18	 movss	 DWORD PTR [ecx+24], xmm0
  00049	0f 28 c3	 movaps	 xmm0, xmm3
  0004c	f3 0f 59 c3	 mulss	 xmm0, xmm3
  00050	f3 0f 58 d2	 addss	 xmm2, xmm2
  00054	f3 0f 11 59 04	 movss	 DWORD PTR [ecx+4], xmm3
  00059	0f 28 ca	 movaps	 xmm1, xmm2
  0005c	f3 0f 5e cb	 divss	 xmm1, xmm3
  00060	f3 0f 5e d0	 divss	 xmm2, xmm0
  00064	f3 0f 11 49 0c	 movss	 DWORD PTR [ecx+12], xmm1
  00069	f3 0f 58 c9	 addss	 xmm1, xmm1
  0006d	f3 0f 5e cb	 divss	 xmm1, xmm3
  00071	f3 0f 5c d1	 subss	 xmm2, xmm1
  00075	f3 0f 11 51 10	 movss	 DWORD PTR [ecx+16], xmm2

; 276  : }

  0007a	5d		 pop	 ebp
  0007b	c2 0c 00	 ret	 12			; 0000000cH
?Setup@CEaseOutInterpolation@@QAEHMMM@Z ENDP		; CEaseOutInterpolation::Setup
_TEXT	ENDS
; Function compile flags: /Ogtp
; File C:\DS Project\DS Files\Source\ClientSource\Client\GameLib\MapUtil.cpp
;	COMDAT ?Initialize@CEaseOutInterpolation@@QAEXXZ
_TEXT	SEGMENT
?Initialize@CEaseOutInterpolation@@QAEXXZ PROC		; CEaseOutInterpolation::Initialize, COMDAT
; _this$ = ecx

; 250  : 	m_fRemainingTime = 0.0f;

  00000	c7 41 04 00 00
	00 00		 mov	 DWORD PTR [ecx+4], 0

; 251  : 	m_fValue = 0.0f;

  00007	c7 41 08 00 00
	00 00		 mov	 DWORD PTR [ecx+8], 0

; 252  : 	m_fSpeed = 0.0f;

  0000e	c7 41 0c 00 00
	00 00		 mov	 DWORD PTR [ecx+12], 0

; 253  : 	m_fAcceleration = 0.0f;

  00015	c7 41 10 00 00
	00 00		 mov	 DWORD PTR [ecx+16], 0

; 254  : 	m_fStartValue = 0.0f;

  0001c	c7 41 14 00 00
	00 00		 mov	 DWORD PTR [ecx+20], 0

; 255  : 	m_fLastValue = 0.0f;

  00023	c7 41 18 00 00
	00 00		 mov	 DWORD PTR [ecx+24], 0

; 256  : }

  0002a	c3		 ret	 0
?Initialize@CEaseOutInterpolation@@QAEXXZ ENDP		; CEaseOutInterpolation::Initialize
_TEXT	ENDS
; Function compile flags: /Ogtp
; File C:\DS Project\DS Files\Source\ClientSource\Client\GameLib\MapUtil.cpp
;	COMDAT ??1CEaseOutInterpolation@@UAE@XZ
_TEXT	SEGMENT
??1CEaseOutInterpolation@@UAE@XZ PROC			; CEaseOutInterpolation::~CEaseOutInterpolation, COMDAT
; _this$ = ecx

; 245  : {

  00000	c7 01 00 00 00
	00		 mov	 DWORD PTR [ecx], OFFSET ??_7CEaseOutInterpolation@@6B@

; 246  : }

  00006	c3		 ret	 0
??1CEaseOutInterpolation@@UAE@XZ ENDP			; CEaseOutInterpolation::~CEaseOutInterpolation
_TEXT	ENDS
; Function compile flags: /Ogtp
; File C:\DS Project\DS Files\Source\ClientSource\Client\GameLib\MapUtil.cpp
;	COMDAT ??0CEaseOutInterpolation@@QAE@XZ
_TEXT	SEGMENT
??0CEaseOutInterpolation@@QAE@XZ PROC			; CEaseOutInterpolation::CEaseOutInterpolation, COMDAT
; _this$ = ecx

; 240  : {

  00000	56		 push	 esi
  00001	8b f1		 mov	 esi, ecx
  00003	c7 06 00 00 00
	00		 mov	 DWORD PTR [esi], OFFSET ??_7CEaseOutInterpolation@@6B@

; 241  : 	Initialize();

  00009	e8 00 00 00 00	 call	 ?Initialize@CEaseOutInterpolation@@QAEXXZ ; CEaseOutInterpolation::Initialize

; 242  : }

  0000e	8b c6		 mov	 eax, esi
  00010	5e		 pop	 esi
  00011	c3		 ret	 0
??0CEaseOutInterpolation@@QAE@XZ ENDP			; CEaseOutInterpolation::CEaseOutInterpolation
_TEXT	ENDS
; Function compile flags: /Ogtp
; File C:\DS Project\DS Files\Source\ClientSource\Client\GameLib\MapUtil.cpp
; File C:\Program Files (x86)\Windows Kits\10\Include\10.0.18362.0\ucrt\corecrt_math.h
; File C:\DS Project\DS Files\Source\ClientSource\Client\GameLib\MapUtil.cpp
; File C:\Program Files (x86)\Windows Kits\10\Include\10.0.18362.0\ucrt\corecrt_math.h
; File C:\DS Project\DS Files\Source\ClientSource\Client\GameLib\MapUtil.cpp
;	COMDAT ?GetPixelPositionDistance@@YAMABUD3DXVECTOR3@@0@Z
_TEXT	SEGMENT
tv174 = -4						; size = 4
_c_rsrcPosition$ = 8					; size = 4
_c_rdstPosition$ = 12					; size = 4
?GetPixelPositionDistance@@YAMABUD3DXVECTOR3@@0@Z PROC	; GetPixelPositionDistance, COMDAT

; 231  : {

  00000	55		 push	 ebp
  00001	8b ec		 mov	 ebp, esp
  00003	83 e4 f8	 and	 esp, -8			; fffffff8H

; 232  : 	int idx = c_rsrcPosition.x - c_rdstPosition.x;

  00006	8b 4d 08	 mov	 ecx, DWORD PTR _c_rsrcPosition$[ebp]
  00009	0f 57 c9	 xorps	 xmm1, xmm1
  0000c	8b 45 0c	 mov	 eax, DWORD PTR _c_rdstPosition$[ebp]
  0000f	83 ec 08	 sub	 esp, 8
  00012	f3 0f 10 01	 movss	 xmm0, DWORD PTR [ecx]
  00016	f3 0f 5c 00	 subss	 xmm0, DWORD PTR [eax]
  0001a	f3 0f 2c d0	 cvttss2si edx, xmm0

; 233  : 	int idy = c_rsrcPosition.y - c_rdstPosition.y;

  0001e	f3 0f 10 41 04	 movss	 xmm0, DWORD PTR [ecx+4]
  00023	f3 0f 5c 40 04	 subss	 xmm0, DWORD PTR [eax+4]

; 235  : 	return sqrtf(float(idx*idx + idy*idy));

  00028	0f af d2	 imul	 edx, edx
  0002b	f3 0f 2c c0	 cvttss2si eax, xmm0
  0002f	0f af c0	 imul	 eax, eax
  00032	03 c2		 add	 eax, edx
  00034	66 0f 6e c0	 movd	 xmm0, eax
  00038	0f 5b c0	 cvtdq2ps xmm0, xmm0
; File C:\Program Files (x86)\Windows Kits\10\Include\10.0.18362.0\ucrt\corecrt_math.h

; 760  :             return (float)sqrt(_X);

  0003b	0f 5a c0	 cvtps2pd xmm0, xmm0
  0003e	66 0f 2e c8	 ucomisd xmm1, xmm0
  00042	77 16		 ja	 SHORT $LN5@GetPixelPo
  00044	f2 0f 51 c0	 sqrtsd	 xmm0, xmm0
  00048	f2 0f 5a c0	 cvtsd2ss xmm0, xmm0
; File C:\DS Project\DS Files\Source\ClientSource\Client\GameLib\MapUtil.cpp

; 235  : 	return sqrtf(float(idx*idx + idy*idy));

  0004c	f3 0f 11 44 24
	04		 movss	 DWORD PTR tv174[esp+8], xmm0
  00052	d9 44 24 04	 fld	 DWORD PTR tv174[esp+8]

; 236  : }

  00056	8b e5		 mov	 esp, ebp
  00058	5d		 pop	 ebp
  00059	c3		 ret	 0
$LN5@GetPixelPo:
; File C:\Program Files (x86)\Windows Kits\10\Include\10.0.18362.0\ucrt\corecrt_math.h

; 760  :             return (float)sqrt(_X);

  0005a	e8 00 00 00 00	 call	 __libm_sse2_sqrt_precise
  0005f	f2 0f 5a c0	 cvtsd2ss xmm0, xmm0
; File C:\DS Project\DS Files\Source\ClientSource\Client\GameLib\MapUtil.cpp

; 235  : 	return sqrtf(float(idx*idx + idy*idy));

  00063	f3 0f 11 44 24
	04		 movss	 DWORD PTR tv174[esp+8], xmm0
  00069	d9 44 24 04	 fld	 DWORD PTR tv174[esp+8]

; 236  : }

  0006d	8b e5		 mov	 esp, ebp
  0006f	5d		 pop	 ebp
  00070	c3		 ret	 0
?GetPixelPositionDistance@@YAMABUD3DXVECTOR3@@0@Z ENDP	; GetPixelPositionDistance
_TEXT	ENDS
; Function compile flags: /Ogtp
; File C:\DS Project\DS Files\Source\ClientSource\Client\GameLib\MapUtil.cpp
;	COMDAT ?AttributeCellPositionToPixelPosition@@YAXUSCellPosition@@PAUD3DXVECTOR3@@@Z
_TEXT	SEGMENT
_AttrCellPosition$ = 8					; size = 8
_pPixelPosition$ = 16					; size = 4
?AttributeCellPositionToPixelPosition@@YAXUSCellPosition@@PAUD3DXVECTOR3@@@Z PROC ; AttributeCellPositionToPixelPosition, COMDAT

; 225  : {

  00000	55		 push	 ebp
  00001	8b ec		 mov	 ebp, esp

; 226  : 	pPixelPosition->x = AttrCellPosition.x * c_Section_xAttributeCellSize;

  00003	6b 45 08 32	 imul	 eax, DWORD PTR _AttrCellPosition$[ebp], 50
  00007	8b 4d 10	 mov	 ecx, DWORD PTR _pPixelPosition$[ebp]
  0000a	66 0f 6e c0	 movd	 xmm0, eax

; 227  : 	pPixelPosition->y = AttrCellPosition.y * c_Section_yAttributeCellSize;

  0000e	6b 45 0c 32	 imul	 eax, DWORD PTR _AttrCellPosition$[ebp+4], 50
  00012	0f 5b c0	 cvtdq2ps xmm0, xmm0
  00015	f3 0f 11 01	 movss	 DWORD PTR [ecx], xmm0
  00019	66 0f 6e c0	 movd	 xmm0, eax
  0001d	0f 5b c0	 cvtdq2ps xmm0, xmm0
  00020	f3 0f 11 41 04	 movss	 DWORD PTR [ecx+4], xmm0

; 228  : }

  00025	5d		 pop	 ebp
  00026	c3		 ret	 0
?AttributeCellPositionToPixelPosition@@YAXUSCellPosition@@PAUD3DXVECTOR3@@@Z ENDP ; AttributeCellPositionToPixelPosition
_TEXT	ENDS
; Function compile flags: /Ogtp
; File C:\DS Project\DS Files\Source\ClientSource\Client\GameLib\MapUtil.cpp
;	COMDAT ?PixelPositionToAttributeCellPosition@@YAXUD3DXVECTOR3@@PAUSCellPosition@@@Z
_TEXT	SEGMENT
_PixelPosition$ = 8					; size = 12
_pAttrCellPosition$ = 20				; size = 4
?PixelPositionToAttributeCellPosition@@YAXUD3DXVECTOR3@@PAUSCellPosition@@@Z PROC ; PixelPositionToAttributeCellPosition, COMDAT

; 219  : {

  00000	55		 push	 ebp
  00001	8b ec		 mov	 ebp, esp

; 220  : 	pAttrCellPosition->x = PixelPosition.x / c_Section_xAttributeCellSize;

  00003	f3 0f 10 45 08	 movss	 xmm0, DWORD PTR _PixelPosition$[ebp]
  00008	f3 0f 5e 05 00
	00 00 00	 divss	 xmm0, DWORD PTR __real@42480000
  00010	8b 4d 14	 mov	 ecx, DWORD PTR _pAttrCellPosition$[ebp]
  00013	f3 0f 2c c0	 cvttss2si eax, xmm0

; 221  : 	pAttrCellPosition->y = PixelPosition.y / c_Section_yAttributeCellSize;

  00017	f3 0f 10 45 0c	 movss	 xmm0, DWORD PTR _PixelPosition$[ebp+4]
  0001c	f3 0f 5e 05 00
	00 00 00	 divss	 xmm0, DWORD PTR __real@42480000
  00024	89 01		 mov	 DWORD PTR [ecx], eax
  00026	f3 0f 2c c0	 cvttss2si eax, xmm0
  0002a	89 41 04	 mov	 DWORD PTR [ecx+4], eax

; 222  : }

  0002d	5d		 pop	 ebp
  0002e	c3		 ret	 0
?PixelPositionToAttributeCellPosition@@YAXUD3DXVECTOR3@@PAUSCellPosition@@@Z ENDP ; PixelPositionToAttributeCellPosition
_TEXT	ENDS
; Function compile flags: /Ogtp
; File C:\DS Project\DS Files\Source\ClientSource\Client\GameLib\MapUtil.cpp
;	COMDAT ?GetLinearInterpolation@@YAMMMM@Z
_TEXT	SEGMENT
_begin$ = 8						; size = 4
tv128 = 12						; size = 4
_end$ = 12						; size = 4
_curRate$ = 16						; size = 4
?GetLinearInterpolation@@YAMMMM@Z PROC			; GetLinearInterpolation, COMDAT

; 214  : {

  00000	55		 push	 ebp
  00001	8b ec		 mov	 ebp, esp

; 215  : 	return (end - begin) * curRate + begin;

  00003	f3 0f 10 4d 0c	 movss	 xmm1, DWORD PTR _end$[ebp]
  00008	f3 0f 5c 4d 08	 subss	 xmm1, DWORD PTR _begin$[ebp]
  0000d	f3 0f 59 4d 10	 mulss	 xmm1, DWORD PTR _curRate$[ebp]
  00012	f3 0f 58 4d 08	 addss	 xmm1, DWORD PTR _begin$[ebp]
  00017	f3 0f 11 4d 0c	 movss	 DWORD PTR tv128[ebp], xmm1
  0001c	d9 45 0c	 fld	 DWORD PTR tv128[ebp]

; 216  : }

  0001f	5d		 pop	 ebp
  00020	c3		 ret	 0
?GetLinearInterpolation@@YAMMMM@Z ENDP			; GetLinearInterpolation
_TEXT	ENDS
; Function compile flags: /Ogtp
; File C:\DS Project\DS Files\Source\ClientSource\Client\GameLib\MapUtil.cpp
;	COMDAT ?GetInterpolatedPosition@@YAXMPAUD3DXVECTOR3@@@Z
_TEXT	SEGMENT
_curPositionRate$ = 8					; size = 4
_PixelPosition$ = 12					; size = 4
?GetInterpolatedPosition@@YAXMPAUD3DXVECTOR3@@@Z PROC	; GetInterpolatedPosition, COMDAT

; 211  : }

  00000	c2 00 00	 ret	 0
?GetInterpolatedPosition@@YAXMPAUD3DXVECTOR3@@@Z ENDP	; GetInterpolatedPosition
_TEXT	ENDS
; Function compile flags: /Ogtp
; File C:\DS Project\DS Files\Source\ClientSource\Client\GameLib\MapUtil.cpp
; File C:\Program Files (x86)\Microsoft Visual Studio\2019\Community\VC\Tools\MSVC\14.27.29110\include\xstring
; File C:\DS Project\DS Files\Source\ClientSource\Client\GameLib\MapUtil.cpp
; File C:\Program Files (x86)\Microsoft Visual Studio\2019\Community\VC\Tools\MSVC\14.27.29110\include\xstring
; File C:\DS Project\DS Files\Source\ClientSource\Client\GameLib\MapUtil.cpp
; File C:\Program Files (x86)\Microsoft Visual Studio\2019\Community\VC\Tools\MSVC\14.27.29110\include\xstring
; File C:\Program Files (x86)\Microsoft Visual Studio\2019\Community\VC\Tools\MSVC\14.27.29110\include\xmemory
; File C:\DS Project\DS Files\Source\ClientSource\Client\GameLib\MapUtil.cpp
; File C:\Program Files (x86)\Microsoft Visual Studio\2019\Community\VC\Tools\MSVC\14.27.29110\include\xstring
; File C:\DS Project\DS Files\Source\ClientSource\Client\GameLib\MapUtil.cpp
; File C:\Program Files (x86)\Microsoft Visual Studio\2019\Community\VC\Tools\MSVC\14.27.29110\include\xstring
; File C:\DS Project\DS Files\Source\ClientSource\Client\GameLib\MapUtil.cpp
; File C:\Program Files (x86)\Microsoft Visual Studio\2019\Community\VC\Tools\MSVC\14.27.29110\include\xstring
; File C:\Program Files (x86)\Microsoft Visual Studio\2019\Community\VC\Tools\MSVC\14.27.29110\include\xmemory
; File C:\DS Project\DS Files\Source\ClientSource\Client\GameLib\MapUtil.cpp
; File C:\Program Files (x86)\Microsoft Visual Studio\2019\Community\VC\Tools\MSVC\14.27.29110\include\xstring
; File C:\DS Project\DS Files\Source\ClientSource\Client\GameLib\MapUtil.cpp
; File C:\Program Files (x86)\Microsoft Visual Studio\2019\Community\VC\Tools\MSVC\14.27.29110\include\xstring
; File C:\DS Project\DS Files\Source\ClientSource\Client\GameLib\MapUtil.cpp
; File C:\Program Files (x86)\Microsoft Visual Studio\2019\Community\VC\Tools\MSVC\14.27.29110\include\xstring
; File C:\DS Project\DS Files\Source\ClientSource\Client\GameLib\MapUtil.cpp
; File C:\Program Files (x86)\Microsoft Visual Studio\2019\Community\VC\Tools\MSVC\14.27.29110\include\xstring
; File C:\DS Project\DS Files\Source\ClientSource\Client\GameLib\MapUtil.cpp
; File C:\Program Files (x86)\Microsoft Visual Studio\2019\Community\VC\Tools\MSVC\14.27.29110\include\xstring
; File C:\Program Files (x86)\Microsoft Visual Studio\2019\Community\VC\Tools\MSVC\14.27.29110\include\xmemory
; File C:\Program Files (x86)\Microsoft Visual Studio\2019\Community\VC\Tools\MSVC\14.27.29110\include\xstring
; File C:\DS Project\DS Files\Source\ClientSource\Client\GameLib\MapUtil.cpp
; File C:\Program Files (x86)\Microsoft Visual Studio\2019\Community\VC\Tools\MSVC\14.27.29110\include\xstring
; File C:\DS Project\DS Files\Source\ClientSource\Client\GameLib\MapUtil.cpp
; File C:\Program Files (x86)\Microsoft Visual Studio\2019\Community\VC\Tools\MSVC\14.27.29110\include\xstring
; File C:\Program Files (x86)\Microsoft Visual Studio\2019\Community\VC\Tools\MSVC\14.27.29110\include\xmemory
; File C:\Program Files (x86)\Microsoft Visual Studio\2019\Community\VC\Tools\MSVC\14.27.29110\include\xstring
; File C:\DS Project\DS Files\Source\ClientSource\Client\GameLib\MapUtil.cpp
; File C:\Program Files (x86)\Microsoft Visual Studio\2019\Community\VC\Tools\MSVC\14.27.29110\include\xstring
; File C:\DS Project\DS Files\Source\ClientSource\Client\GameLib\MapUtil.cpp
; File C:\Program Files (x86)\Microsoft Visual Studio\2019\Community\VC\Tools\MSVC\14.27.29110\include\xstring
; File C:\Program Files (x86)\Microsoft Visual Studio\2019\Community\VC\Tools\MSVC\14.27.29110\include\xmemory
; File C:\DS Project\DS Files\Source\ClientSource\Client\GameLib\MapUtil.cpp
; File C:\Program Files (x86)\Microsoft Visual Studio\2019\Community\VC\Tools\MSVC\14.27.29110\include\xstring
; File C:\DS Project\DS Files\Source\ClientSource\Client\GameLib\MapUtil.cpp
; File C:\Program Files (x86)\Microsoft Visual Studio\2019\Community\VC\Tools\MSVC\14.27.29110\include\xstring
; File C:\DS Project\DS Files\Source\ClientSource\Client\GameLib\MapUtil.cpp
; File C:\Program Files (x86)\Microsoft Visual Studio\2019\Community\VC\Tools\MSVC\14.27.29110\include\xstring
; File C:\DS Project\DS Files\Source\ClientSource\Client\GameLib\MapUtil.cpp
; File C:\Program Files (x86)\Microsoft Visual Studio\2019\Community\VC\Tools\MSVC\14.27.29110\include\xstring
; File C:\DS Project\DS Files\Source\ClientSource\Client\GameLib\MapUtil.cpp
; File C:\Program Files (x86)\Microsoft Visual Studio\2019\Community\VC\Tools\MSVC\14.27.29110\include\xstring
; File C:\Program Files (x86)\Microsoft Visual Studio\2019\Community\VC\Tools\MSVC\14.27.29110\include\xmemory
; File C:\Program Files (x86)\Microsoft Visual Studio\2019\Community\VC\Tools\MSVC\14.27.29110\include\xstring
; File C:\DS Project\DS Files\Source\ClientSource\Client\GameLib\MapUtil.cpp
; File C:\Program Files (x86)\Microsoft Visual Studio\2019\Community\VC\Tools\MSVC\14.27.29110\include\xstring
; File C:\DS Project\DS Files\Source\ClientSource\Client\GameLib\MapUtil.cpp
; File C:\Program Files (x86)\Microsoft Visual Studio\2019\Community\VC\Tools\MSVC\14.27.29110\include\xstring
; File C:\Program Files (x86)\Microsoft Visual Studio\2019\Community\VC\Tools\MSVC\14.27.29110\include\xmemory
; File C:\Program Files (x86)\Microsoft Visual Studio\2019\Community\VC\Tools\MSVC\14.27.29110\include\xstring
; File C:\DS Project\DS Files\Source\ClientSource\Client\GameLib\MapUtil.cpp
; File C:\Program Files (x86)\Microsoft Visual Studio\2019\Community\VC\Tools\MSVC\14.27.29110\include\xstring
; File C:\DS Project\DS Files\Source\ClientSource\Client\GameLib\MapUtil.cpp
; File C:\Program Files (x86)\Microsoft Visual Studio\2019\Community\VC\Tools\MSVC\14.27.29110\include\xstring
; File C:\Program Files (x86)\Microsoft Visual Studio\2019\Community\VC\Tools\MSVC\14.27.29110\include\xmemory
; File C:\DS Project\DS Files\Source\ClientSource\Client\GameLib\MapUtil.cpp
; File C:\Program Files (x86)\Microsoft Visual Studio\2019\Community\VC\Tools\MSVC\14.27.29110\include\xstring
; File C:\DS Project\DS Files\Source\ClientSource\Client\GameLib\MapUtil.cpp
; File C:\Program Files (x86)\Microsoft Visual Studio\2019\Community\VC\Tools\MSVC\14.27.29110\include\xstring
; File C:\DS Project\DS Files\Source\ClientSource\Client\GameLib\MapUtil.cpp
; File C:\Program Files (x86)\Microsoft Visual Studio\2019\Community\VC\Tools\MSVC\14.27.29110\include\xstring
; File C:\Program Files (x86)\Microsoft Visual Studio\2019\Community\VC\Tools\MSVC\14.27.29110\include\xmemory
; File C:\Program Files (x86)\Microsoft Visual Studio\2019\Community\VC\Tools\MSVC\14.27.29110\include\xstring
; File C:\DS Project\DS Files\Source\ClientSource\Client\GameLib\MapUtil.cpp
; File C:\Program Files (x86)\Microsoft Visual Studio\2019\Community\VC\Tools\MSVC\14.27.29110\include\xstring
; File C:\DS Project\DS Files\Source\ClientSource\Client\GameLib\MapUtil.cpp
; File C:\Program Files (x86)\Microsoft Visual Studio\2019\Community\VC\Tools\MSVC\14.27.29110\include\xstring
; File C:\Program Files (x86)\Microsoft Visual Studio\2019\Community\VC\Tools\MSVC\14.27.29110\include\xmemory
; File C:\Program Files (x86)\Microsoft Visual Studio\2019\Community\VC\Tools\MSVC\14.27.29110\include\xstring
; File C:\DS Project\DS Files\Source\ClientSource\Client\GameLib\MapUtil.cpp
; File C:\Program Files (x86)\Microsoft Visual Studio\2019\Community\VC\Tools\MSVC\14.27.29110\include\xstring
; File C:\DS Project\DS Files\Source\ClientSource\Client\GameLib\MapUtil.cpp
; File C:\Program Files (x86)\Microsoft Visual Studio\2019\Community\VC\Tools\MSVC\14.27.29110\include\xstring
; File C:\Program Files (x86)\Microsoft Visual Studio\2019\Community\VC\Tools\MSVC\14.27.29110\include\xmemory
; File C:\DS Project\DS Files\Source\ClientSource\Client\GameLib\MapUtil.cpp
; File C:\Program Files (x86)\Microsoft Visual Studio\2019\Community\VC\Tools\MSVC\14.27.29110\include\xstring
; File C:\DS Project\DS Files\Source\ClientSource\Client\GameLib\MapUtil.cpp
; File C:\Program Files (x86)\Microsoft Visual Studio\2019\Community\VC\Tools\MSVC\14.27.29110\include\xstring
; File C:\DS Project\DS Files\Source\ClientSource\Client\GameLib\MapUtil.cpp
; File C:\Program Files (x86)\Microsoft Visual Studio\2019\Community\VC\Tools\MSVC\14.27.29110\include\xstring
; File C:\Program Files (x86)\Microsoft Visual Studio\2019\Community\VC\Tools\MSVC\14.27.29110\include\xmemory
; File C:\Program Files (x86)\Microsoft Visual Studio\2019\Community\VC\Tools\MSVC\14.27.29110\include\xstring
; File C:\DS Project\DS Files\Source\ClientSource\Client\GameLib\MapUtil.cpp
; File C:\Program Files (x86)\Microsoft Visual Studio\2019\Community\VC\Tools\MSVC\14.27.29110\include\xstring
; File C:\DS Project\DS Files\Source\ClientSource\Client\GameLib\MapUtil.cpp
; File C:\Program Files (x86)\Microsoft Visual Studio\2019\Community\VC\Tools\MSVC\14.27.29110\include\xstring
; File C:\Program Files (x86)\Microsoft Visual Studio\2019\Community\VC\Tools\MSVC\14.27.29110\include\xmemory
; File C:\Program Files (x86)\Microsoft Visual Studio\2019\Community\VC\Tools\MSVC\14.27.29110\include\xstring
; File C:\DS Project\DS Files\Source\ClientSource\Client\GameLib\MapUtil.cpp
; File C:\Program Files (x86)\Microsoft Visual Studio\2019\Community\VC\Tools\MSVC\14.27.29110\include\xstring
; File C:\DS Project\DS Files\Source\ClientSource\Client\GameLib\MapUtil.cpp
; File C:\Program Files (x86)\Microsoft Visual Studio\2019\Community\VC\Tools\MSVC\14.27.29110\include\xstring
; File C:\Program Files (x86)\Microsoft Visual Studio\2019\Community\VC\Tools\MSVC\14.27.29110\include\xmemory
; File C:\Program Files (x86)\Microsoft Visual Studio\2019\Community\VC\Tools\MSVC\14.27.29110\include\xstring
; File C:\DS Project\DS Files\Source\ClientSource\Client\GameLib\MapUtil.cpp
; File C:\Program Files (x86)\Microsoft Visual Studio\2019\Community\VC\Tools\MSVC\14.27.29110\include\xstring
; File C:\DS Project\DS Files\Source\ClientSource\Client\GameLib\MapUtil.cpp
; File C:\Program Files (x86)\Microsoft Visual Studio\2019\Community\VC\Tools\MSVC\14.27.29110\include\xstring
; File C:\Program Files (x86)\Microsoft Visual Studio\2019\Community\VC\Tools\MSVC\14.27.29110\include\xmemory
; File C:\Program Files (x86)\Microsoft Visual Studio\2019\Community\VC\Tools\MSVC\14.27.29110\include\xstring
; File C:\DS Project\DS Files\Source\ClientSource\Client\GameLib\MapUtil.cpp
; File C:\Program Files (x86)\Microsoft Visual Studio\2019\Community\VC\Tools\MSVC\14.27.29110\include\xstring
; File C:\DS Project\DS Files\Source\ClientSource\Client\GameLib\MapUtil.cpp
; File C:\Program Files (x86)\Microsoft Visual Studio\2019\Community\VC\Tools\MSVC\14.27.29110\include\xstring
; File C:\Program Files (x86)\Microsoft Visual Studio\2019\Community\VC\Tools\MSVC\14.27.29110\include\xmemory
; File C:\DS Project\DS Files\Source\ClientSource\Client\GameLib\MapUtil.cpp
; File C:\Program Files (x86)\Microsoft Visual Studio\2019\Community\VC\Tools\MSVC\14.27.29110\include\xstring
; File C:\DS Project\DS Files\Source\ClientSource\Client\GameLib\MapUtil.cpp
; File C:\Program Files (x86)\Microsoft Visual Studio\2019\Community\VC\Tools\MSVC\14.27.29110\include\xstring
; File C:\DS Project\DS Files\Source\ClientSource\Client\GameLib\MapUtil.cpp
; File C:\Program Files (x86)\Microsoft Visual Studio\2019\Community\VC\Tools\MSVC\14.27.29110\include\xstring
; File C:\Program Files (x86)\Microsoft Visual Studio\2019\Community\VC\Tools\MSVC\14.27.29110\include\xmemory
; File C:\Program Files (x86)\Microsoft Visual Studio\2019\Community\VC\Tools\MSVC\14.27.29110\include\xstring
; File C:\DS Project\DS Files\Source\ClientSource\Client\GameLib\MapUtil.cpp
; File C:\Program Files (x86)\Microsoft Visual Studio\2019\Community\VC\Tools\MSVC\14.27.29110\include\xstring
; File C:\DS Project\DS Files\Source\ClientSource\Client\GameLib\MapUtil.cpp
; File C:\Program Files (x86)\Microsoft Visual Studio\2019\Community\VC\Tools\MSVC\14.27.29110\include\xstring
; File C:\Program Files (x86)\Microsoft Visual Studio\2019\Community\VC\Tools\MSVC\14.27.29110\include\xmemory
; File C:\Program Files (x86)\Microsoft Visual Studio\2019\Community\VC\Tools\MSVC\14.27.29110\include\xstring
; File C:\DS Project\DS Files\Source\ClientSource\Client\GameLib\MapUtil.cpp
; File C:\Program Files (x86)\Microsoft Visual Studio\2019\Community\VC\Tools\MSVC\14.27.29110\include\xstring
; File C:\DS Project\DS Files\Source\ClientSource\Client\GameLib\MapUtil.cpp
; File C:\Program Files (x86)\Microsoft Visual Studio\2019\Community\VC\Tools\MSVC\14.27.29110\include\xstring
; File C:\Program Files (x86)\Microsoft Visual Studio\2019\Community\VC\Tools\MSVC\14.27.29110\include\xmemory
; File C:\Program Files (x86)\Microsoft Visual Studio\2019\Community\VC\Tools\MSVC\14.27.29110\include\xstring
; File C:\DS Project\DS Files\Source\ClientSource\Client\GameLib\MapUtil.cpp
; File C:\Program Files (x86)\Microsoft Visual Studio\2019\Community\VC\Tools\MSVC\14.27.29110\include\xstring
; File C:\DS Project\DS Files\Source\ClientSource\Client\GameLib\MapUtil.cpp
; File C:\Program Files (x86)\Microsoft Visual Studio\2019\Community\VC\Tools\MSVC\14.27.29110\include\xstring
; File C:\Program Files (x86)\Microsoft Visual Studio\2019\Community\VC\Tools\MSVC\14.27.29110\include\xmemory
; File C:\DS Project\DS Files\Source\ClientSource\Client\GameLib\MapUtil.cpp
; File C:\Program Files (x86)\Microsoft Visual Studio\2019\Community\VC\Tools\MSVC\14.27.29110\include\xstring
; File C:\DS Project\DS Files\Source\ClientSource\Client\GameLib\MapUtil.cpp
; File C:\Program Files (x86)\Microsoft Visual Studio\2019\Community\VC\Tools\MSVC\14.27.29110\include\xstring
; File C:\DS Project\DS Files\Source\ClientSource\Client\GameLib\MapUtil.cpp
; File C:\Program Files (x86)\Microsoft Visual Studio\2019\Community\VC\Tools\MSVC\14.27.29110\include\xstring
; File C:\Program Files (x86)\Microsoft Visual Studio\2019\Community\VC\Tools\MSVC\14.27.29110\include\xmemory
; File C:\Program Files (x86)\Microsoft Visual Studio\2019\Community\VC\Tools\MSVC\14.27.29110\include\xstring
; File C:\DS Project\DS Files\Source\ClientSource\Client\GameLib\MapUtil.cpp
; File C:\Program Files (x86)\Microsoft Visual Studio\2019\Community\VC\Tools\MSVC\14.27.29110\include\xstring
; File C:\DS Project\DS Files\Source\ClientSource\Client\GameLib\MapUtil.cpp
; File C:\Program Files (x86)\Microsoft Visual Studio\2019\Community\VC\Tools\MSVC\14.27.29110\include\xstring
; File C:\Program Files (x86)\Microsoft Visual Studio\2019\Community\VC\Tools\MSVC\14.27.29110\include\xmemory
; File C:\Program Files (x86)\Microsoft Visual Studio\2019\Community\VC\Tools\MSVC\14.27.29110\include\xstring
; File C:\DS Project\DS Files\Source\ClientSource\Client\GameLib\MapUtil.cpp
; File C:\Program Files (x86)\Microsoft Visual Studio\2019\Community\VC\Tools\MSVC\14.27.29110\include\xstring
; File C:\DS Project\DS Files\Source\ClientSource\Client\GameLib\MapUtil.cpp
; File C:\Program Files (x86)\Microsoft Visual Studio\2019\Community\VC\Tools\MSVC\14.27.29110\include\xstring
; File C:\Program Files (x86)\Microsoft Visual Studio\2019\Community\VC\Tools\MSVC\14.27.29110\include\xmemory
; File C:\Program Files (x86)\Microsoft Visual Studio\2019\Community\VC\Tools\MSVC\14.27.29110\include\xstring
; File C:\DS Project\DS Files\Source\ClientSource\Client\GameLib\MapUtil.cpp
; File C:\Program Files (x86)\Microsoft Visual Studio\2019\Community\VC\Tools\MSVC\14.27.29110\include\xstring
; File C:\DS Project\DS Files\Source\ClientSource\Client\GameLib\MapUtil.cpp
; File C:\Program Files (x86)\Microsoft Visual Studio\2019\Community\VC\Tools\MSVC\14.27.29110\include\xstring
; File C:\Program Files (x86)\Microsoft Visual Studio\2019\Community\VC\Tools\MSVC\14.27.29110\include\xmemory
; File C:\Program Files (x86)\Microsoft Visual Studio\2019\Community\VC\Tools\MSVC\14.27.29110\include\xstring
; File C:\DS Project\DS Files\Source\ClientSource\Client\GameLib\MapUtil.cpp
; File C:\Program Files (x86)\Microsoft Visual Studio\2019\Community\VC\Tools\MSVC\14.27.29110\include\xstring
; File C:\DS Project\DS Files\Source\ClientSource\Client\GameLib\MapUtil.cpp
; File C:\Program Files (x86)\Microsoft Visual Studio\2019\Community\VC\Tools\MSVC\14.27.29110\include\xstring
; File C:\Program Files (x86)\Microsoft Visual Studio\2019\Community\VC\Tools\MSVC\14.27.29110\include\xmemory
; File C:\Program Files (x86)\Microsoft Visual Studio\2019\Community\VC\Tools\MSVC\14.27.29110\include\xstring
; File C:\DS Project\DS Files\Source\ClientSource\Client\GameLib\MapUtil.cpp
; File C:\Program Files (x86)\Microsoft Visual Studio\2019\Community\VC\Tools\MSVC\14.27.29110\include\xstring
; File C:\DS Project\DS Files\Source\ClientSource\Client\GameLib\MapUtil.cpp
; File C:\Program Files (x86)\Microsoft Visual Studio\2019\Community\VC\Tools\MSVC\14.27.29110\include\xstring
; File C:\Program Files (x86)\Microsoft Visual Studio\2019\Community\VC\Tools\MSVC\14.27.29110\include\xmemory
; File C:\Program Files (x86)\Microsoft Visual Studio\2019\Community\VC\Tools\MSVC\14.27.29110\include\xstring
; File C:\DS Project\DS Files\Source\ClientSource\Client\GameLib\MapUtil.cpp
; File C:\Program Files (x86)\Microsoft Visual Studio\2019\Community\VC\Tools\MSVC\14.27.29110\include\xstring
; File C:\DS Project\DS Files\Source\ClientSource\Client\GameLib\MapUtil.cpp
; File C:\Program Files (x86)\Microsoft Visual Studio\2019\Community\VC\Tools\MSVC\14.27.29110\include\xstring
; File C:\Program Files (x86)\Microsoft Visual Studio\2019\Community\VC\Tools\MSVC\14.27.29110\include\xmemory
; File C:\Program Files (x86)\Microsoft Visual Studio\2019\Community\VC\Tools\MSVC\14.27.29110\include\xstring
; File C:\DS Project\DS Files\Source\ClientSource\Client\GameLib\MapUtil.cpp
; File C:\Program Files (x86)\Microsoft Visual Studio\2019\Community\VC\Tools\MSVC\14.27.29110\include\xstring
; File C:\DS Project\DS Files\Source\ClientSource\Client\GameLib\MapUtil.cpp
; File C:\Program Files (x86)\Microsoft Visual Studio\2019\Community\VC\Tools\MSVC\14.27.29110\include\xstring
; File C:\Program Files (x86)\Microsoft Visual Studio\2019\Community\VC\Tools\MSVC\14.27.29110\include\xmemory
; File C:\Program Files (x86)\Microsoft Visual Studio\2019\Community\VC\Tools\MSVC\14.27.29110\include\xstring
; File C:\DS Project\DS Files\Source\ClientSource\Client\GameLib\MapUtil.cpp
; File C:\Program Files (x86)\Microsoft Visual Studio\2019\Community\VC\Tools\MSVC\14.27.29110\include\xstring
; File C:\DS Project\DS Files\Source\ClientSource\Client\GameLib\MapUtil.cpp
; File C:\Program Files (x86)\Microsoft Visual Studio\2019\Community\VC\Tools\MSVC\14.27.29110\include\xstring
; File C:\Program Files (x86)\Microsoft Visual Studio\2019\Community\VC\Tools\MSVC\14.27.29110\include\xmemory
; File C:\Program Files (x86)\Microsoft Visual Studio\2019\Community\VC\Tools\MSVC\14.27.29110\include\xstring
; File C:\DS Project\DS Files\Source\ClientSource\Client\GameLib\MapUtil.cpp
; File C:\Program Files (x86)\Microsoft Visual Studio\2019\Community\VC\Tools\MSVC\14.27.29110\include\xstring
; File C:\DS Project\DS Files\Source\ClientSource\Client\GameLib\MapUtil.cpp
; File C:\Program Files (x86)\Microsoft Visual Studio\2019\Community\VC\Tools\MSVC\14.27.29110\include\xstring
; File C:\Program Files (x86)\Microsoft Visual Studio\2019\Community\VC\Tools\MSVC\14.27.29110\include\xmemory
; File C:\Program Files (x86)\Microsoft Visual Studio\2019\Community\VC\Tools\MSVC\14.27.29110\include\xstring
; File C:\DS Project\DS Files\Source\ClientSource\Client\GameLib\MapUtil.cpp
; File C:\Program Files (x86)\Microsoft Visual Studio\2019\Community\VC\Tools\MSVC\14.27.29110\include\xstring
; File C:\DS Project\DS Files\Source\ClientSource\Client\GameLib\MapUtil.cpp
; File C:\Program Files (x86)\Microsoft Visual Studio\2019\Community\VC\Tools\MSVC\14.27.29110\include\xstring
; File C:\Program Files (x86)\Microsoft Visual Studio\2019\Community\VC\Tools\MSVC\14.27.29110\include\xmemory
; File C:\Program Files (x86)\Microsoft Visual Studio\2019\Community\VC\Tools\MSVC\14.27.29110\include\xstring
; File C:\DS Project\DS Files\Source\ClientSource\Client\GameLib\MapUtil.cpp
; File C:\Program Files (x86)\Microsoft Visual Studio\2019\Community\VC\Tools\MSVC\14.27.29110\include\xstring
; File C:\DS Project\DS Files\Source\ClientSource\Client\GameLib\MapUtil.cpp
; File C:\Program Files (x86)\Microsoft Visual Studio\2019\Community\VC\Tools\MSVC\14.27.29110\include\xstring
; File C:\Program Files (x86)\Microsoft Visual Studio\2019\Community\VC\Tools\MSVC\14.27.29110\include\xmemory
; File C:\Program Files (x86)\Microsoft Visual Studio\2019\Community\VC\Tools\MSVC\14.27.29110\include\xstring
; File C:\DS Project\DS Files\Source\ClientSource\Client\GameLib\MapUtil.cpp
; File C:\Program Files (x86)\Microsoft Visual Studio\2019\Community\VC\Tools\MSVC\14.27.29110\include\xstring
; File C:\DS Project\DS Files\Source\ClientSource\Client\GameLib\MapUtil.cpp
; File C:\Program Files (x86)\Microsoft Visual Studio\2019\Community\VC\Tools\MSVC\14.27.29110\include\xstring
; File C:\Program Files (x86)\Microsoft Visual Studio\2019\Community\VC\Tools\MSVC\14.27.29110\include\xmemory
; File C:\Program Files (x86)\Microsoft Visual Studio\2019\Community\VC\Tools\MSVC\14.27.29110\include\xstring
; File C:\DS Project\DS Files\Source\ClientSource\Client\GameLib\MapUtil.cpp
; File C:\Program Files (x86)\Microsoft Visual Studio\2019\Community\VC\Tools\MSVC\14.27.29110\include\xstring
; File C:\DS Project\DS Files\Source\ClientSource\Client\GameLib\MapUtil.cpp
; File C:\Program Files (x86)\Microsoft Visual Studio\2019\Community\VC\Tools\MSVC\14.27.29110\include\xstring
; File C:\Program Files (x86)\Microsoft Visual Studio\2019\Community\VC\Tools\MSVC\14.27.29110\include\xmemory
; File C:\Program Files (x86)\Microsoft Visual Studio\2019\Community\VC\Tools\MSVC\14.27.29110\include\xstring
; File C:\DS Project\DS Files\Source\ClientSource\Client\GameLib\MapUtil.cpp
; File C:\Program Files (x86)\Microsoft Visual Studio\2019\Community\VC\Tools\MSVC\14.27.29110\include\xstring
; File C:\DS Project\DS Files\Source\ClientSource\Client\GameLib\MapUtil.cpp
; File C:\Program Files (x86)\Microsoft Visual Studio\2019\Community\VC\Tools\MSVC\14.27.29110\include\xstring
; File C:\Program Files (x86)\Microsoft Visual Studio\2019\Community\VC\Tools\MSVC\14.27.29110\include\xmemory
; File C:\Program Files (x86)\Microsoft Visual Studio\2019\Community\VC\Tools\MSVC\14.27.29110\include\xstring
; File C:\DS Project\DS Files\Source\ClientSource\Client\GameLib\MapUtil.cpp
; File C:\Program Files (x86)\Microsoft Visual Studio\2019\Community\VC\Tools\MSVC\14.27.29110\include\xstring
; File C:\Program Files (x86)\Microsoft Visual Studio\2019\Community\VC\Tools\MSVC\14.27.29110\include\xmemory
; File C:\DS Project\DS Files\Source\ClientSource\Client\GameLib\MapUtil.cpp
; File C:\Program Files (x86)\Microsoft Visual Studio\2019\Community\VC\Tools\MSVC\14.27.29110\include\vector
; File C:\DS Project\DS Files\Source\ClientSource\Client\GameLib\MapUtil.cpp
; File C:\Program Files (x86)\Microsoft Visual Studio\2019\Community\VC\Tools\MSVC\14.27.29110\include\xstring
; File C:\DS Project\DS Files\Source\ClientSource\Client\GameLib\MapUtil.cpp
; File C:\Program Files (x86)\Microsoft Visual Studio\2019\Community\VC\Tools\MSVC\14.27.29110\include\xstring
; File C:\DS Project\DS Files\Source\ClientSource\Client\GameLib\MapUtil.cpp
; File C:\Program Files (x86)\Microsoft Visual Studio\2019\Community\VC\Tools\MSVC\14.27.29110\include\xstring
; File C:\DS Project\DS Files\Source\ClientSource\Client\GameLib\MapUtil.cpp
; File C:\Program Files (x86)\Microsoft Visual Studio\2019\Community\VC\Tools\MSVC\14.27.29110\include\xstring
; File C:\DS Project\DS Files\Source\ClientSource\Client\GameLib\MapUtil.cpp
; File C:\Program Files (x86)\Microsoft Visual Studio\2019\Community\VC\Tools\MSVC\14.27.29110\include\xstring
; File C:\DS Project\DS Files\Source\ClientSource\Client\GameLib\MapUtil.cpp
; File C:\Program Files (x86)\Microsoft Visual Studio\2019\Community\VC\Tools\MSVC\14.27.29110\include\xstring
; File C:\DS Project\DS Files\Source\ClientSource\Client\GameLib\MapUtil.cpp
; File C:\Program Files (x86)\Microsoft Visual Studio\2019\Community\VC\Tools\MSVC\14.27.29110\include\xstring
; File C:\DS Project\DS Files\Source\ClientSource\Client\GameLib\MapUtil.cpp
; File C:\Program Files (x86)\Microsoft Visual Studio\2019\Community\VC\Tools\MSVC\14.27.29110\include\xstring
; File C:\DS Project\DS Files\Source\ClientSource\Client\GameLib\MapUtil.cpp
; File C:\Program Files (x86)\Microsoft Visual Studio\2019\Community\VC\Tools\MSVC\14.27.29110\include\xstring
; File C:\DS Project\DS Files\Source\ClientSource\Client\GameLib\MapUtil.cpp
; File C:\Program Files (x86)\Microsoft Visual Studio\2019\Community\VC\Tools\MSVC\14.27.29110\include\xstring
; File C:\DS Project\DS Files\Source\ClientSource\Client\GameLib\MapUtil.cpp
; File C:\Program Files (x86)\Microsoft Visual Studio\2019\Community\VC\Tools\MSVC\14.27.29110\include\xstring
; File C:\Program Files (x86)\Microsoft Visual Studio\2019\Community\VC\Tools\MSVC\14.27.29110\include\xmemory
; File C:\DS Project\DS Files\Source\ClientSource\Client\GameLib\MapUtil.cpp
; File C:\Program Files (x86)\Microsoft Visual Studio\2019\Community\VC\Tools\MSVC\14.27.29110\include\vector
; File C:\DS Project\DS Files\Source\ClientSource\Client\GameLib\MapUtil.cpp
; File C:\Program Files (x86)\Microsoft Visual Studio\2019\Community\VC\Tools\MSVC\14.27.29110\include\vector
; File C:\DS Project\DS Files\Source\ClientSource\Client\GameLib\MapUtil.cpp
; File C:\Program Files (x86)\Microsoft Visual Studio\2019\Community\VC\Tools\MSVC\14.27.29110\include\vector
; File C:\Program Files (x86)\Microsoft Visual Studio\2019\Community\VC\Tools\MSVC\14.27.29110\include\xstring
; File C:\Program Files (x86)\Microsoft Visual Studio\2019\Community\VC\Tools\MSVC\14.27.29110\include\vector
; File C:\DS Project\DS Files\Source\ClientSource\Client\GameLib\MapUtil.cpp
; File C:\Program Files (x86)\Microsoft Visual Studio\2019\Community\VC\Tools\MSVC\14.27.29110\include\vector
; File C:\DS Project\DS Files\Source\ClientSource\Client\GameLib\MapUtil.cpp
; File C:\Program Files (x86)\Microsoft Visual Studio\2019\Community\VC\Tools\MSVC\14.27.29110\include\vector
; File C:\Program Files (x86)\Microsoft Visual Studio\2019\Community\VC\Tools\MSVC\14.27.29110\include\xstring
; File C:\Program Files (x86)\Microsoft Visual Studio\2019\Community\VC\Tools\MSVC\14.27.29110\include\vector
; File C:\DS Project\DS Files\Source\ClientSource\Client\GameLib\MapUtil.cpp
; File C:\Program Files (x86)\Microsoft Visual Studio\2019\Community\VC\Tools\MSVC\14.27.29110\include\vector
; File C:\DS Project\DS Files\Source\ClientSource\Client\GameLib\MapUtil.cpp
; File C:\Program Files (x86)\Microsoft Visual Studio\2019\Community\VC\Tools\MSVC\14.27.29110\include\vector
; File C:\Program Files (x86)\Microsoft Visual Studio\2019\Community\VC\Tools\MSVC\14.27.29110\include\xstring
; File C:\Program Files (x86)\Microsoft Visual Studio\2019\Community\VC\Tools\MSVC\14.27.29110\include\vector
; File C:\Program Files (x86)\Microsoft Visual Studio\2019\Community\VC\Tools\MSVC\14.27.29110\include\xstring
; File C:\Program Files (x86)\Microsoft Visual Studio\2019\Community\VC\Tools\MSVC\14.27.29110\include\vector
; File C:\DS Project\DS Files\Source\ClientSource\Client\GameLib\MapUtil.cpp
; File C:\Program Files (x86)\Microsoft Visual Studio\2019\Community\VC\Tools\MSVC\14.27.29110\include\vector
; File C:\DS Project\DS Files\Source\ClientSource\Client\GameLib\MapUtil.cpp
; File C:\Program Files (x86)\Microsoft Visual Studio\2019\Community\VC\Tools\MSVC\14.27.29110\include\vector
; File C:\Program Files (x86)\Microsoft Visual Studio\2019\Community\VC\Tools\MSVC\14.27.29110\include\xstring
; File C:\Program Files (x86)\Microsoft Visual Studio\2019\Community\VC\Tools\MSVC\14.27.29110\include\vector
; File C:\DS Project\DS Files\Source\ClientSource\Client\GameLib\MapUtil.cpp
; File C:\Program Files (x86)\Microsoft Visual Studio\2019\Community\VC\Tools\MSVC\14.27.29110\include\vector
; File C:\DS Project\DS Files\Source\ClientSource\Client\GameLib\MapUtil.cpp
; File C:\Program Files (x86)\Microsoft Visual Studio\2019\Community\VC\Tools\MSVC\14.27.29110\include\vector
; File C:\Program Files (x86)\Microsoft Visual Studio\2019\Community\VC\Tools\MSVC\14.27.29110\include\xstring
; File C:\Program Files (x86)\Microsoft Visual Studio\2019\Community\VC\Tools\MSVC\14.27.29110\include\vector
; File C:\DS Project\DS Files\Source\ClientSource\Client\GameLib\MapUtil.cpp
; File C:\Program Files (x86)\Microsoft Visual Studio\2019\Community\VC\Tools\MSVC\14.27.29110\include\vector
; File C:\DS Project\DS Files\Source\ClientSource\Client\GameLib\MapUtil.cpp
; File C:\Program Files (x86)\Microsoft Visual Studio\2019\Community\VC\Tools\MSVC\14.27.29110\include\vector
; File C:\Program Files (x86)\Microsoft Visual Studio\2019\Community\VC\Tools\MSVC\14.27.29110\include\xstring
; File C:\Program Files (x86)\Microsoft Visual Studio\2019\Community\VC\Tools\MSVC\14.27.29110\include\vector
; File C:\DS Project\DS Files\Source\ClientSource\Client\GameLib\MapUtil.cpp
; File C:\Program Files (x86)\Microsoft Visual Studio\2019\Community\VC\Tools\MSVC\14.27.29110\include\vector
; File C:\DS Project\DS Files\Source\ClientSource\Client\GameLib\MapUtil.cpp
; File C:\Program Files (x86)\Microsoft Visual Studio\2019\Community\VC\Tools\MSVC\14.27.29110\include\vector
; File C:\Program Files (x86)\Microsoft Visual Studio\2019\Community\VC\Tools\MSVC\14.27.29110\include\xstring
; File C:\Program Files (x86)\Microsoft Visual Studio\2019\Community\VC\Tools\MSVC\14.27.29110\include\vector
; File C:\DS Project\DS Files\Source\ClientSource\Client\GameLib\MapUtil.cpp
; File C:\Program Files (x86)\Microsoft Visual Studio\2019\Community\VC\Tools\MSVC\14.27.29110\include\vector
; File C:\DS Project\DS Files\Source\ClientSource\Client\GameLib\MapUtil.cpp
; File C:\Program Files (x86)\Microsoft Visual Studio\2019\Community\VC\Tools\MSVC\14.27.29110\include\vector
; File C:\Program Files (x86)\Microsoft Visual Studio\2019\Community\VC\Tools\MSVC\14.27.29110\include\xstring
; File C:\Program Files (x86)\Microsoft Visual Studio\2019\Community\VC\Tools\MSVC\14.27.29110\include\vector
; File C:\DS Project\DS Files\Source\ClientSource\Client\GameLib\MapUtil.cpp
; File C:\Program Files (x86)\Microsoft Visual Studio\2019\Community\VC\Tools\MSVC\14.27.29110\include\xstring
; File C:\DS Project\DS Files\Source\ClientSource\Client\GameLib\MapUtil.cpp
; File C:\Program Files (x86)\Microsoft Visual Studio\2019\Community\VC\Tools\MSVC\14.27.29110\include\xstring
; File C:\DS Project\DS Files\Source\ClientSource\Client\GameLib\MapUtil.cpp
; File C:\Program Files (x86)\Microsoft Visual Studio\2019\Community\VC\Tools\MSVC\14.27.29110\include\xstring
; File C:\Program Files (x86)\Microsoft Visual Studio\2019\Community\VC\Tools\MSVC\14.27.29110\include\xmemory
; File C:\Program Files (x86)\Microsoft Visual Studio\2019\Community\VC\Tools\MSVC\14.27.29110\include\xstring
; File C:\DS Project\DS Files\Source\ClientSource\Client\GameLib\MapUtil.cpp
; File C:\Program Files (x86)\Microsoft Visual Studio\2019\Community\VC\Tools\MSVC\14.27.29110\include\xstring
; File C:\DS Project\DS Files\Source\ClientSource\Client\GameLib\MapUtil.cpp
; File C:\Program Files (x86)\Microsoft Visual Studio\2019\Community\VC\Tools\MSVC\14.27.29110\include\xstring
; File C:\Program Files (x86)\Microsoft Visual Studio\2019\Community\VC\Tools\MSVC\14.27.29110\include\xmemory
; File C:\Program Files (x86)\Microsoft Visual Studio\2019\Community\VC\Tools\MSVC\14.27.29110\include\xstring
; File C:\DS Project\DS Files\Source\ClientSource\Client\GameLib\MapUtil.cpp
; File C:\Program Files (x86)\Microsoft Visual Studio\2019\Community\VC\Tools\MSVC\14.27.29110\include\xstring
; File C:\DS Project\DS Files\Source\ClientSource\Client\GameLib\MapUtil.cpp
; File C:\Program Files (x86)\Microsoft Visual Studio\2019\Community\VC\Tools\MSVC\14.27.29110\include\xstring
; File C:\Program Files (x86)\Microsoft Visual Studio\2019\Community\VC\Tools\MSVC\14.27.29110\include\xmemory
; File C:\Program Files (x86)\Microsoft Visual Studio\2019\Community\VC\Tools\MSVC\14.27.29110\include\xstring
; File C:\DS Project\DS Files\Source\ClientSource\Client\GameLib\MapUtil.cpp
; File C:\Program Files (x86)\Microsoft Visual Studio\2019\Community\VC\Tools\MSVC\14.27.29110\include\xstring
; File C:\DS Project\DS Files\Source\ClientSource\Client\GameLib\MapUtil.cpp
; File C:\Program Files (x86)\Microsoft Visual Studio\2019\Community\VC\Tools\MSVC\14.27.29110\include\xstring
; File C:\Program Files (x86)\Microsoft Visual Studio\2019\Community\VC\Tools\MSVC\14.27.29110\include\xmemory
; File C:\Program Files (x86)\Microsoft Visual Studio\2019\Community\VC\Tools\MSVC\14.27.29110\include\xstring
; File C:\DS Project\DS Files\Source\ClientSource\Client\GameLib\MapUtil.cpp
; File C:\Program Files (x86)\Microsoft Visual Studio\2019\Community\VC\Tools\MSVC\14.27.29110\include\xstring
; File C:\DS Project\DS Files\Source\ClientSource\Client\GameLib\MapUtil.cpp
; File C:\Program Files (x86)\Microsoft Visual Studio\2019\Community\VC\Tools\MSVC\14.27.29110\include\xstring
; File C:\Program Files (x86)\Microsoft Visual Studio\2019\Community\VC\Tools\MSVC\14.27.29110\include\xmemory
; File C:\Program Files (x86)\Microsoft Visual Studio\2019\Community\VC\Tools\MSVC\14.27.29110\include\xstring
; File C:\DS Project\DS Files\Source\ClientSource\Client\GameLib\MapUtil.cpp
; File C:\Program Files (x86)\Microsoft Visual Studio\2019\Community\VC\Tools\MSVC\14.27.29110\include\xstring
; File C:\DS Project\DS Files\Source\ClientSource\Client\GameLib\MapUtil.cpp
; File C:\Program Files (x86)\Microsoft Visual Studio\2019\Community\VC\Tools\MSVC\14.27.29110\include\xstring
; File C:\Program Files (x86)\Microsoft Visual Studio\2019\Community\VC\Tools\MSVC\14.27.29110\include\xmemory
; File C:\DS Project\DS Files\Source\ClientSource\Client\GameLib\MapUtil.cpp
; File C:\Program Files (x86)\Microsoft Visual Studio\2019\Community\VC\Tools\MSVC\14.27.29110\include\vector
; File C:\DS Project\DS Files\Source\ClientSource\Client\GameLib\MapUtil.cpp
;	COMDAT ?Environment_Load@@YA_NAAUSEnvironmentData@@PBD@Z
_TEXT	SEGMENT
tv7256 = -224						; size = 4
$T2 = -220						; size = 4
_i$1$ = -216						; size = 4
$T3 = -209						; size = 1
_pTokenVectorCloudColor$4 = -208			; size = 4
tv7235 = -204						; size = 4
_pTokenVector$5 = -200					; size = 4
tv7236 = -196						; size = 4
_textLoader$ = -192					; size = 128
$T6 = -64						; size = 24
_v3Dir$7 = -52						; size = 12
$T8 = -40						; size = 24
$T9 = -40						; size = 24
$T10 = -40						; size = 24
$T11 = -40						; size = 24
$T12 = -40						; size = 24
$T13 = -40						; size = 24
$T14 = -40						; size = 24
$T15 = -40						; size = 24
$T16 = -40						; size = 24
$T17 = -40						; size = 24
$T18 = -40						; size = 24
$T19 = -40						; size = 24
$T20 = -40						; size = 24
$T21 = -40						; size = 24
$T22 = -40						; size = 24
$T23 = -40						; size = 24
$T24 = -40						; size = 24
$T25 = -40						; size = 24
$T26 = -40						; size = 24
$T27 = -40						; size = 24
$T28 = -40						; size = 24
$T29 = -40						; size = 24
$T30 = -40						; size = 24
$T31 = -40						; size = 24
$T32 = -40						; size = 24
$T33 = -40						; size = 24
$T34 = -40						; size = 24
$T35 = -40						; size = 24
$T36 = -40						; size = 24
$T37 = -40						; size = 24
$T38 = -40						; size = 24
$T39 = -40						; size = 24
$T40 = -40						; size = 24
$T41 = -40						; size = 24
$T42 = -40						; size = 24
$T43 = -40						; size = 24
$T44 = -40						; size = 24
$T45 = -40						; size = 24
$T46 = -40						; size = 24
$T47 = -40						; size = 24
$T48 = -40						; size = 24
$T49 = -40						; size = 24
__$ArrayPad$ = -16					; size = 4
__$EHRec$ = -12						; size = 12
_envData$ = 8						; size = 4
_envFileName$ = 12					; size = 4
?Environment_Load@@YA_NAAUSEnvironmentData@@PBD@Z PROC	; Environment_Load, COMDAT

; 71   : {

  00000	55		 push	 ebp
  00001	8b ec		 mov	 ebp, esp
  00003	6a ff		 push	 -1
  00005	68 00 00 00 00	 push	 __ehhandler$?Environment_Load@@YA_NAAUSEnvironmentData@@PBD@Z
  0000a	64 a1 00 00 00
	00		 mov	 eax, DWORD PTR fs:0
  00010	50		 push	 eax
  00011	81 ec d4 00 00
	00		 sub	 esp, 212		; 000000d4H
  00017	a1 00 00 00 00	 mov	 eax, DWORD PTR ___security_cookie
  0001c	33 c5		 xor	 eax, ebp
  0001e	89 45 f0	 mov	 DWORD PTR __$ArrayPad$[ebp], eax
  00021	53		 push	 ebx
  00022	56		 push	 esi
  00023	57		 push	 edi
  00024	50		 push	 eax
  00025	8d 45 f4	 lea	 eax, DWORD PTR __$EHRec$[ebp]
  00028	64 a3 00 00 00
	00		 mov	 DWORD PTR fs:0, eax
  0002e	8b 7d 08	 mov	 edi, DWORD PTR _envData$[ebp]

; 72   : 	CTextFileLoader textLoader;

  00031	8d 8d 40 ff ff
	ff		 lea	 ecx, DWORD PTR _textLoader$[ebp]
  00037	8b 75 0c	 mov	 esi, DWORD PTR _envFileName$[ebp]
  0003a	e8 00 00 00 00	 call	 ??0CTextFileLoader@@QAE@XZ ; CTextFileLoader::CTextFileLoader

; 73   : 
; 74   : 	if (!textLoader.Load(envFileName))

  0003f	56		 push	 esi
  00040	8d 8d 40 ff ff
	ff		 lea	 ecx, DWORD PTR _textLoader$[ebp]
  00046	c7 45 fc 00 00
	00 00		 mov	 DWORD PTR __$EHRec$[ebp+8], 0
  0004d	e8 00 00 00 00	 call	 ?Load@CTextFileLoader@@QAE_NPBD@Z ; CTextFileLoader::Load
  00052	84 c0		 test	 al, al
  00054	75 07		 jne	 SHORT $LN5@Environmen
  00056	32 db		 xor	 bl, bl
  00058	e9 cf 13 00 00	 jmp	 $LN64@Environmen
$LN5@Environmen:

; 75   : 		return false;
; 76   : 
; 77   : 	textLoader.SetTop();

  0005d	8d 8d 40 ff ff
	ff		 lea	 ecx, DWORD PTR _textLoader$[ebp]
  00063	e8 00 00 00 00	 call	 ?SetTop@CTextFileLoader@@QAEXXZ ; CTextFileLoader::SetTop
; File C:\Program Files (x86)\Microsoft Visual Studio\2019\Community\VC\Tools\MSVC\14.27.29110\include\xstring

; 2339 :         assign(_Ptr);

  00068	68 00 00 00 00	 push	 OFFSET ??_C@_08FINKBBAF@reserved@
  0006d	8d 4d c0	 lea	 ecx, DWORD PTR $T6[ebp]

; 4293 :         _Mypair._Myval2._Mysize = 0;

  00070	c7 45 d0 00 00
	00 00		 mov	 DWORD PTR $T6[ebp+16], 0

; 4294 :         _Mypair._Myval2._Myres  = _BUF_SIZE - 1;

  00077	c7 45 d4 0f 00
	00 00		 mov	 DWORD PTR $T6[ebp+20], 15 ; 0000000fH

; 4295 :         // the _Traits::assign is last so the codegen doesn't think the char write can alias this
; 4296 :         _Traits::assign(_Mypair._Myval2._Bx._Buf[0], _Elem());

  0007e	c6 45 c0 00	 mov	 BYTE PTR $T6[ebp], 0

; 2339 :         assign(_Ptr);

  00082	e8 00 00 00 00	 call	 ?assign@?$basic_string@DU?$char_traits@D@std@@V?$allocator@D@2@@std@@QAEAAV12@QBD@Z ; std::basic_string<char,std::char_traits<char>,std::allocator<char> >::assign
; File C:\DS Project\DS Files\Source\ClientSource\Client\GameLib\MapUtil.cpp

; 79   : 	textLoader.GetTokenBoolean("reserved", &envData.bReserve);

  00087	8d 87 98 02 00
	00		 lea	 eax, DWORD PTR [edi+664]
  0008d	c6 45 fc 01	 mov	 BYTE PTR __$EHRec$[ebp+8], 1
  00091	50		 push	 eax
  00092	8d 45 c0	 lea	 eax, DWORD PTR $T6[ebp]
  00095	50		 push	 eax
  00096	8d 8d 40 ff ff
	ff		 lea	 ecx, DWORD PTR _textLoader$[ebp]
  0009c	e8 00 00 00 00	 call	 ?GetTokenBoolean@CTextFileLoader@@QAEHABV?$basic_string@DU?$char_traits@D@std@@V?$allocator@D@2@@std@@PAH@Z ; CTextFileLoader::GetTokenBoolean
; File C:\Program Files (x86)\Microsoft Visual Studio\2019\Community\VC\Tools\MSVC\14.27.29110\include\xstring

; 4301 :         if (_Mypair._Myval2._Large_string_engaged()) {

  000a1	8b 45 d4	 mov	 eax, DWORD PTR $T6[ebp+20]
; File C:\DS Project\DS Files\Source\ClientSource\Client\GameLib\MapUtil.cpp

; 79   : 	textLoader.GetTokenBoolean("reserved", &envData.bReserve);

  000a4	c6 45 fc 00	 mov	 BYTE PTR __$EHRec$[ebp+8], 0
; File C:\Program Files (x86)\Microsoft Visual Studio\2019\Community\VC\Tools\MSVC\14.27.29110\include\xstring

; 4301 :         if (_Mypair._Myval2._Large_string_engaged()) {

  000a8	83 f8 10	 cmp	 eax, 16			; 00000010H
  000ab	72 0d		 jb	 SHORT $LN77@Environmen

; 4302 :             const pointer _Ptr = _Mypair._Myval2._Bx._Ptr;
; 4303 :             auto& _Al          = _Getal();
; 4304 :             _Destroy_in_place(_Mypair._Myval2._Bx._Ptr);
; 4305 :             _Al.deallocate(_Ptr, _Mypair._Myval2._Myres + 1);

  000ad	40		 inc	 eax
; File C:\Program Files (x86)\Microsoft Visual Studio\2019\Community\VC\Tools\MSVC\14.27.29110\include\xmemory

; 803  :         _Deallocate<_New_alignof<_Ty>>(_Ptr, sizeof(_Ty) * _Count);

  000ae	50		 push	 eax
  000af	ff 75 c0	 push	 DWORD PTR $T6[ebp]
  000b2	e8 00 00 00 00	 call	 ??$_Deallocate@$07$0A@@std@@YAXPAXI@Z ; std::_Deallocate<8,0>
  000b7	83 c4 08	 add	 esp, 8
$LN77@Environmen:
; File C:\DS Project\DS Files\Source\ClientSource\Client\GameLib\MapUtil.cpp

; 81   : 	if (textLoader.SetChildNode("directionallight"))

  000ba	68 00 00 00 00	 push	 OFFSET ??_C@_0BB@GPOHGDLH@directionallight@
  000bf	8d 8d 40 ff ff
	ff		 lea	 ecx, DWORD PTR _textLoader$[ebp]
  000c5	e8 00 00 00 00	 call	 ?SetChildNode@CTextFileLoader@@QAEHPBD@Z ; CTextFileLoader::SetChildNode
  000ca	85 c0		 test	 eax, eax
  000cc	0f 84 a0 02 00
	00		 je	 $LN6@Environmen
; File C:\Program Files (x86)\Microsoft Visual Studio\2019\Community\VC\Tools\MSVC\14.27.29110\include\xstring

; 2339 :         assign(_Ptr);

  000d2	68 00 00 00 00	 push	 OFFSET ??_C@_09HPKLLIJF@direction@
  000d7	8d 4d d8	 lea	 ecx, DWORD PTR $T49[ebp]

; 4293 :         _Mypair._Myval2._Mysize = 0;

  000da	c7 45 e8 00 00
	00 00		 mov	 DWORD PTR $T49[ebp+16], 0

; 4294 :         _Mypair._Myval2._Myres  = _BUF_SIZE - 1;

  000e1	c7 45 ec 0f 00
	00 00		 mov	 DWORD PTR $T49[ebp+20], 15 ; 0000000fH

; 4295 :         // the _Traits::assign is last so the codegen doesn't think the char write can alias this
; 4296 :         _Traits::assign(_Mypair._Myval2._Bx._Buf[0], _Elem());

  000e8	c6 45 d8 00	 mov	 BYTE PTR $T49[ebp], 0

; 2339 :         assign(_Ptr);

  000ec	e8 00 00 00 00	 call	 ?assign@?$basic_string@DU?$char_traits@D@std@@V?$allocator@D@2@@std@@QAEAAV12@QBD@Z ; std::basic_string<char,std::char_traits<char>,std::allocator<char> >::assign
; File C:\DS Project\DS Files\Source\ClientSource\Client\GameLib\MapUtil.cpp

; 84   : 		textLoader.GetTokenDirection("direction", &v3Dir);

  000f1	8d 45 cc	 lea	 eax, DWORD PTR _v3Dir$7[ebp]
  000f4	c6 45 fc 02	 mov	 BYTE PTR __$EHRec$[ebp+8], 2
  000f8	50		 push	 eax
  000f9	8d 45 d8	 lea	 eax, DWORD PTR $T49[ebp]
  000fc	50		 push	 eax
  000fd	8d 8d 40 ff ff
	ff		 lea	 ecx, DWORD PTR _textLoader$[ebp]
  00103	e8 00 00 00 00	 call	 ?GetTokenDirection@CTextFileLoader@@QAEHABV?$basic_string@DU?$char_traits@D@std@@V?$allocator@D@2@@std@@PAU_D3DVECTOR@@@Z ; CTextFileLoader::GetTokenDirection
; File C:\Program Files (x86)\Microsoft Visual Studio\2019\Community\VC\Tools\MSVC\14.27.29110\include\xstring

; 4301 :         if (_Mypair._Myval2._Large_string_engaged()) {

  00108	8b 45 ec	 mov	 eax, DWORD PTR $T49[ebp+20]
; File C:\DS Project\DS Files\Source\ClientSource\Client\GameLib\MapUtil.cpp

; 84   : 		textLoader.GetTokenDirection("direction", &v3Dir);

  0010b	c6 45 fc 00	 mov	 BYTE PTR __$EHRec$[ebp+8], 0
; File C:\Program Files (x86)\Microsoft Visual Studio\2019\Community\VC\Tools\MSVC\14.27.29110\include\xstring

; 4301 :         if (_Mypair._Myval2._Large_string_engaged()) {

  0010f	83 f8 10	 cmp	 eax, 16			; 00000010H
  00112	72 0d		 jb	 SHORT $LN95@Environmen

; 4302 :             const pointer _Ptr = _Mypair._Myval2._Bx._Ptr;
; 4303 :             auto& _Al          = _Getal();
; 4304 :             _Destroy_in_place(_Mypair._Myval2._Bx._Ptr);
; 4305 :             _Al.deallocate(_Ptr, _Mypair._Myval2._Myres + 1);

  00114	40		 inc	 eax
; File C:\Program Files (x86)\Microsoft Visual Studio\2019\Community\VC\Tools\MSVC\14.27.29110\include\xmemory

; 803  :         _Deallocate<_New_alignof<_Ty>>(_Ptr, sizeof(_Ty) * _Count);

  00115	50		 push	 eax
  00116	ff 75 d8	 push	 DWORD PTR $T49[ebp]
  00119	e8 00 00 00 00	 call	 ??$_Deallocate@$07$0A@@std@@YAXPAXI@Z ; std::_Deallocate<8,0>
  0011e	83 c4 08	 add	 esp, 8
$LN95@Environmen:
; File C:\DS Project\DS Files\Source\ClientSource\Client\GameLib\MapUtil.cpp

; 86   : 		if (textLoader.SetChildNode("background"))

  00121	68 00 00 00 00	 push	 OFFSET ??_C@_0L@EGCKCJDC@background@
  00126	8d 8d 40 ff ff
	ff		 lea	 ecx, DWORD PTR _textLoader$[ebp]
  0012c	e8 00 00 00 00	 call	 ?SetChildNode@CTextFileLoader@@QAEHPBD@Z ; CTextFileLoader::SetChildNode
  00131	85 c0		 test	 eax, eax
  00133	0f 84 05 01 00
	00		 je	 $LN7@Environmen

; 88   : 			envData.DirLights[ENV_DIRLIGHT_BACKGROUND].Direction = v3Dir;

  00139	f3 0f 7e 45 cc	 movq	 xmm0, QWORD PTR _v3Dir$7[ebp]
; File C:\Program Files (x86)\Microsoft Visual Studio\2019\Community\VC\Tools\MSVC\14.27.29110\include\xstring

; 2339 :         assign(_Ptr);

  0013e	8d 4d d8	 lea	 ecx, DWORD PTR $T48[ebp]
; File C:\DS Project\DS Files\Source\ClientSource\Client\GameLib\MapUtil.cpp

; 88   : 			envData.DirLights[ENV_DIRLIGHT_BACKGROUND].Direction = v3Dir;

  00141	8b 45 d4	 mov	 eax, DWORD PTR _v3Dir$7[ebp+8]
  00144	66 0f d6 47 48	 movq	 QWORD PTR [edi+72], xmm0
; File C:\Program Files (x86)\Microsoft Visual Studio\2019\Community\VC\Tools\MSVC\14.27.29110\include\xstring

; 2339 :         assign(_Ptr);

  00149	68 00 00 00 00	 push	 OFFSET ??_C@_06OFNJOBDK@enable@
; File C:\DS Project\DS Files\Source\ClientSource\Client\GameLib\MapUtil.cpp

; 88   : 			envData.DirLights[ENV_DIRLIGHT_BACKGROUND].Direction = v3Dir;

  0014e	89 47 50	 mov	 DWORD PTR [edi+80], eax
; File C:\Program Files (x86)\Microsoft Visual Studio\2019\Community\VC\Tools\MSVC\14.27.29110\include\xstring

; 4293 :         _Mypair._Myval2._Mysize = 0;

  00151	c7 45 e8 00 00
	00 00		 mov	 DWORD PTR $T48[ebp+16], 0

; 4294 :         _Mypair._Myval2._Myres  = _BUF_SIZE - 1;

  00158	c7 45 ec 0f 00
	00 00		 mov	 DWORD PTR $T48[ebp+20], 15 ; 0000000fH

; 4295 :         // the _Traits::assign is last so the codegen doesn't think the char write can alias this
; 4296 :         _Traits::assign(_Mypair._Myval2._Bx._Buf[0], _Elem());

  0015f	c6 45 d8 00	 mov	 BYTE PTR $T48[ebp], 0

; 2339 :         assign(_Ptr);

  00163	e8 00 00 00 00	 call	 ?assign@?$basic_string@DU?$char_traits@D@std@@V?$allocator@D@2@@std@@QAEAAV12@QBD@Z ; std::basic_string<char,std::char_traits<char>,std::allocator<char> >::assign
; File C:\DS Project\DS Files\Source\ClientSource\Client\GameLib\MapUtil.cpp

; 89   : 			textLoader.GetTokenBoolean("enable", &envData.bDirLightsEnable[ENV_DIRLIGHT_BACKGROUND]);

  00168	57		 push	 edi
  00169	8d 45 d8	 lea	 eax, DWORD PTR $T48[ebp]
  0016c	c6 45 fc 03	 mov	 BYTE PTR __$EHRec$[ebp+8], 3
  00170	50		 push	 eax
  00171	8d 8d 40 ff ff
	ff		 lea	 ecx, DWORD PTR _textLoader$[ebp]
  00177	e8 00 00 00 00	 call	 ?GetTokenBoolean@CTextFileLoader@@QAEHABV?$basic_string@DU?$char_traits@D@std@@V?$allocator@D@2@@std@@PAH@Z ; CTextFileLoader::GetTokenBoolean
; File C:\Program Files (x86)\Microsoft Visual Studio\2019\Community\VC\Tools\MSVC\14.27.29110\include\xstring

; 4301 :         if (_Mypair._Myval2._Large_string_engaged()) {

  0017c	8b 45 ec	 mov	 eax, DWORD PTR $T48[ebp+20]
; File C:\DS Project\DS Files\Source\ClientSource\Client\GameLib\MapUtil.cpp

; 89   : 			textLoader.GetTokenBoolean("enable", &envData.bDirLightsEnable[ENV_DIRLIGHT_BACKGROUND]);

  0017f	c6 45 fc 00	 mov	 BYTE PTR __$EHRec$[ebp+8], 0
; File C:\Program Files (x86)\Microsoft Visual Studio\2019\Community\VC\Tools\MSVC\14.27.29110\include\xstring

; 4301 :         if (_Mypair._Myval2._Large_string_engaged()) {

  00183	83 f8 10	 cmp	 eax, 16			; 00000010H
  00186	72 0d		 jb	 SHORT $LN113@Environmen

; 4302 :             const pointer _Ptr = _Mypair._Myval2._Bx._Ptr;
; 4303 :             auto& _Al          = _Getal();
; 4304 :             _Destroy_in_place(_Mypair._Myval2._Bx._Ptr);
; 4305 :             _Al.deallocate(_Ptr, _Mypair._Myval2._Myres + 1);

  00188	40		 inc	 eax
; File C:\Program Files (x86)\Microsoft Visual Studio\2019\Community\VC\Tools\MSVC\14.27.29110\include\xmemory

; 803  :         _Deallocate<_New_alignof<_Ty>>(_Ptr, sizeof(_Ty) * _Count);

  00189	50		 push	 eax
  0018a	ff 75 d8	 push	 DWORD PTR $T48[ebp]
  0018d	e8 00 00 00 00	 call	 ??$_Deallocate@$07$0A@@std@@YAXPAXI@Z ; std::_Deallocate<8,0>
  00192	83 c4 08	 add	 esp, 8
$LN113@Environmen:
; File C:\Program Files (x86)\Microsoft Visual Studio\2019\Community\VC\Tools\MSVC\14.27.29110\include\xstring

; 2339 :         assign(_Ptr);

  00195	68 00 00 00 00	 push	 OFFSET ??_C@_07KFBPAAO@diffuse@
  0019a	8d 4d d8	 lea	 ecx, DWORD PTR $T47[ebp]

; 4293 :         _Mypair._Myval2._Mysize = 0;

  0019d	c7 45 e8 00 00
	00 00		 mov	 DWORD PTR $T47[ebp+16], 0

; 4294 :         _Mypair._Myval2._Myres  = _BUF_SIZE - 1;

  001a4	c7 45 ec 0f 00
	00 00		 mov	 DWORD PTR $T47[ebp+20], 15 ; 0000000fH

; 4295 :         // the _Traits::assign is last so the codegen doesn't think the char write can alias this
; 4296 :         _Traits::assign(_Mypair._Myval2._Bx._Buf[0], _Elem());

  001ab	c6 45 d8 00	 mov	 BYTE PTR $T47[ebp], 0

; 2339 :         assign(_Ptr);

  001af	e8 00 00 00 00	 call	 ?assign@?$basic_string@DU?$char_traits@D@std@@V?$allocator@D@2@@std@@QAEAAV12@QBD@Z ; std::basic_string<char,std::char_traits<char>,std::allocator<char> >::assign
; File C:\DS Project\DS Files\Source\ClientSource\Client\GameLib\MapUtil.cpp

; 90   : 			textLoader.GetTokenColor("diffuse", &envData.DirLights[ENV_DIRLIGHT_BACKGROUND].Diffuse);

  001b4	8d 47 0c	 lea	 eax, DWORD PTR [edi+12]
  001b7	c6 45 fc 04	 mov	 BYTE PTR __$EHRec$[ebp+8], 4
  001bb	50		 push	 eax
  001bc	8d 45 d8	 lea	 eax, DWORD PTR $T47[ebp]
  001bf	50		 push	 eax
  001c0	8d 8d 40 ff ff
	ff		 lea	 ecx, DWORD PTR _textLoader$[ebp]
  001c6	e8 00 00 00 00	 call	 ?GetTokenColor@CTextFileLoader@@QAEHABV?$basic_string@DU?$char_traits@D@std@@V?$allocator@D@2@@std@@PAU_D3DCOLORVALUE@@@Z ; CTextFileLoader::GetTokenColor
; File C:\Program Files (x86)\Microsoft Visual Studio\2019\Community\VC\Tools\MSVC\14.27.29110\include\xstring

; 4301 :         if (_Mypair._Myval2._Large_string_engaged()) {

  001cb	8b 45 ec	 mov	 eax, DWORD PTR $T47[ebp+20]
; File C:\DS Project\DS Files\Source\ClientSource\Client\GameLib\MapUtil.cpp

; 90   : 			textLoader.GetTokenColor("diffuse", &envData.DirLights[ENV_DIRLIGHT_BACKGROUND].Diffuse);

  001ce	c6 45 fc 00	 mov	 BYTE PTR __$EHRec$[ebp+8], 0
; File C:\Program Files (x86)\Microsoft Visual Studio\2019\Community\VC\Tools\MSVC\14.27.29110\include\xstring

; 4301 :         if (_Mypair._Myval2._Large_string_engaged()) {

  001d2	83 f8 10	 cmp	 eax, 16			; 00000010H
  001d5	72 0d		 jb	 SHORT $LN131@Environmen

; 4302 :             const pointer _Ptr = _Mypair._Myval2._Bx._Ptr;
; 4303 :             auto& _Al          = _Getal();
; 4304 :             _Destroy_in_place(_Mypair._Myval2._Bx._Ptr);
; 4305 :             _Al.deallocate(_Ptr, _Mypair._Myval2._Myres + 1);

  001d7	40		 inc	 eax
; File C:\Program Files (x86)\Microsoft Visual Studio\2019\Community\VC\Tools\MSVC\14.27.29110\include\xmemory

; 803  :         _Deallocate<_New_alignof<_Ty>>(_Ptr, sizeof(_Ty) * _Count);

  001d8	50		 push	 eax
  001d9	ff 75 d8	 push	 DWORD PTR $T47[ebp]
  001dc	e8 00 00 00 00	 call	 ??$_Deallocate@$07$0A@@std@@YAXPAXI@Z ; std::_Deallocate<8,0>
  001e1	83 c4 08	 add	 esp, 8
$LN131@Environmen:
; File C:\Program Files (x86)\Microsoft Visual Studio\2019\Community\VC\Tools\MSVC\14.27.29110\include\xstring

; 2339 :         assign(_Ptr);

  001e4	68 00 00 00 00	 push	 OFFSET ??_C@_07LIABELBC@ambient@
  001e9	8d 4d d8	 lea	 ecx, DWORD PTR $T46[ebp]

; 4293 :         _Mypair._Myval2._Mysize = 0;

  001ec	c7 45 e8 00 00
	00 00		 mov	 DWORD PTR $T46[ebp+16], 0

; 4294 :         _Mypair._Myval2._Myres  = _BUF_SIZE - 1;

  001f3	c7 45 ec 0f 00
	00 00		 mov	 DWORD PTR $T46[ebp+20], 15 ; 0000000fH

; 4295 :         // the _Traits::assign is last so the codegen doesn't think the char write can alias this
; 4296 :         _Traits::assign(_Mypair._Myval2._Bx._Buf[0], _Elem());

  001fa	c6 45 d8 00	 mov	 BYTE PTR $T46[ebp], 0

; 2339 :         assign(_Ptr);

  001fe	e8 00 00 00 00	 call	 ?assign@?$basic_string@DU?$char_traits@D@std@@V?$allocator@D@2@@std@@QAEAAV12@QBD@Z ; std::basic_string<char,std::char_traits<char>,std::allocator<char> >::assign
; File C:\DS Project\DS Files\Source\ClientSource\Client\GameLib\MapUtil.cpp

; 91   : 			textLoader.GetTokenColor("ambient", &envData.DirLights[ENV_DIRLIGHT_BACKGROUND].Ambient);

  00203	8d 47 2c	 lea	 eax, DWORD PTR [edi+44]
  00206	c6 45 fc 05	 mov	 BYTE PTR __$EHRec$[ebp+8], 5
  0020a	50		 push	 eax
  0020b	8d 45 d8	 lea	 eax, DWORD PTR $T46[ebp]
  0020e	50		 push	 eax
  0020f	8d 8d 40 ff ff
	ff		 lea	 ecx, DWORD PTR _textLoader$[ebp]
  00215	e8 00 00 00 00	 call	 ?GetTokenColor@CTextFileLoader@@QAEHABV?$basic_string@DU?$char_traits@D@std@@V?$allocator@D@2@@std@@PAU_D3DCOLORVALUE@@@Z ; CTextFileLoader::GetTokenColor
; File C:\Program Files (x86)\Microsoft Visual Studio\2019\Community\VC\Tools\MSVC\14.27.29110\include\xstring

; 4301 :         if (_Mypair._Myval2._Large_string_engaged()) {

  0021a	8b 45 ec	 mov	 eax, DWORD PTR $T46[ebp+20]
; File C:\DS Project\DS Files\Source\ClientSource\Client\GameLib\MapUtil.cpp

; 91   : 			textLoader.GetTokenColor("ambient", &envData.DirLights[ENV_DIRLIGHT_BACKGROUND].Ambient);

  0021d	c6 45 fc 00	 mov	 BYTE PTR __$EHRec$[ebp+8], 0
; File C:\Program Files (x86)\Microsoft Visual Studio\2019\Community\VC\Tools\MSVC\14.27.29110\include\xstring

; 4301 :         if (_Mypair._Myval2._Large_string_engaged()) {

  00221	83 f8 10	 cmp	 eax, 16			; 00000010H
  00224	72 0d		 jb	 SHORT $LN149@Environmen

; 4302 :             const pointer _Ptr = _Mypair._Myval2._Bx._Ptr;
; 4303 :             auto& _Al          = _Getal();
; 4304 :             _Destroy_in_place(_Mypair._Myval2._Bx._Ptr);
; 4305 :             _Al.deallocate(_Ptr, _Mypair._Myval2._Myres + 1);

  00226	40		 inc	 eax
; File C:\Program Files (x86)\Microsoft Visual Studio\2019\Community\VC\Tools\MSVC\14.27.29110\include\xmemory

; 803  :         _Deallocate<_New_alignof<_Ty>>(_Ptr, sizeof(_Ty) * _Count);

  00227	50		 push	 eax
  00228	ff 75 d8	 push	 DWORD PTR $T46[ebp]
  0022b	e8 00 00 00 00	 call	 ??$_Deallocate@$07$0A@@std@@YAXPAXI@Z ; std::_Deallocate<8,0>
  00230	83 c4 08	 add	 esp, 8
$LN149@Environmen:
; File C:\DS Project\DS Files\Source\ClientSource\Client\GameLib\MapUtil.cpp

; 92   : 			textLoader.SetParentNode();

  00233	8d 8d 40 ff ff
	ff		 lea	 ecx, DWORD PTR _textLoader$[ebp]
  00239	e8 00 00 00 00	 call	 ?SetParentNode@CTextFileLoader@@QAEHXZ ; CTextFileLoader::SetParentNode
$LN7@Environmen:

; 93   : 		}
; 94   : 
; 95   : 		if (textLoader.SetChildNode("character"))

  0023e	68 00 00 00 00	 push	 OFFSET ??_C@_09MNKJOHH@character@
  00243	8d 8d 40 ff ff
	ff		 lea	 ecx, DWORD PTR _textLoader$[ebp]
  00249	e8 00 00 00 00	 call	 ?SetChildNode@CTextFileLoader@@QAEHPBD@Z ; CTextFileLoader::SetChildNode
  0024e	85 c0		 test	 eax, eax
  00250	0f 84 11 01 00
	00		 je	 $LN8@Environmen

; 97   : 			envData.DirLights[ENV_DIRLIGHT_CHARACTER].Direction = v3Dir;

  00256	f3 0f 7e 45 cc	 movq	 xmm0, QWORD PTR _v3Dir$7[ebp]
; File C:\Program Files (x86)\Microsoft Visual Studio\2019\Community\VC\Tools\MSVC\14.27.29110\include\xstring

; 2339 :         assign(_Ptr);

  0025b	8d 4d d8	 lea	 ecx, DWORD PTR $T45[ebp]
; File C:\DS Project\DS Files\Source\ClientSource\Client\GameLib\MapUtil.cpp

; 97   : 			envData.DirLights[ENV_DIRLIGHT_CHARACTER].Direction = v3Dir;

  0025e	8b 45 d4	 mov	 eax, DWORD PTR _v3Dir$7[ebp+8]
  00261	66 0f d6 87 b0
	00 00 00	 movq	 QWORD PTR [edi+176], xmm0
; File C:\Program Files (x86)\Microsoft Visual Studio\2019\Community\VC\Tools\MSVC\14.27.29110\include\xstring

; 2339 :         assign(_Ptr);

  00269	68 00 00 00 00	 push	 OFFSET ??_C@_06OFNJOBDK@enable@
; File C:\DS Project\DS Files\Source\ClientSource\Client\GameLib\MapUtil.cpp

; 97   : 			envData.DirLights[ENV_DIRLIGHT_CHARACTER].Direction = v3Dir;

  0026e	89 87 b8 00 00
	00		 mov	 DWORD PTR [edi+184], eax
; File C:\Program Files (x86)\Microsoft Visual Studio\2019\Community\VC\Tools\MSVC\14.27.29110\include\xstring

; 4293 :         _Mypair._Myval2._Mysize = 0;

  00274	c7 45 e8 00 00
	00 00		 mov	 DWORD PTR $T45[ebp+16], 0

; 4294 :         _Mypair._Myval2._Myres  = _BUF_SIZE - 1;

  0027b	c7 45 ec 0f 00
	00 00		 mov	 DWORD PTR $T45[ebp+20], 15 ; 0000000fH

; 4295 :         // the _Traits::assign is last so the codegen doesn't think the char write can alias this
; 4296 :         _Traits::assign(_Mypair._Myval2._Bx._Buf[0], _Elem());

  00282	c6 45 d8 00	 mov	 BYTE PTR $T45[ebp], 0

; 2339 :         assign(_Ptr);

  00286	e8 00 00 00 00	 call	 ?assign@?$basic_string@DU?$char_traits@D@std@@V?$allocator@D@2@@std@@QAEAAV12@QBD@Z ; std::basic_string<char,std::char_traits<char>,std::allocator<char> >::assign
; File C:\DS Project\DS Files\Source\ClientSource\Client\GameLib\MapUtil.cpp

; 98   : 			textLoader.GetTokenBoolean("enable", &envData.bDirLightsEnable[ENV_DIRLIGHT_CHARACTER]);

  0028b	8d 47 04	 lea	 eax, DWORD PTR [edi+4]
  0028e	c6 45 fc 06	 mov	 BYTE PTR __$EHRec$[ebp+8], 6
  00292	50		 push	 eax
  00293	8d 45 d8	 lea	 eax, DWORD PTR $T45[ebp]
  00296	50		 push	 eax
  00297	8d 8d 40 ff ff
	ff		 lea	 ecx, DWORD PTR _textLoader$[ebp]
  0029d	e8 00 00 00 00	 call	 ?GetTokenBoolean@CTextFileLoader@@QAEHABV?$basic_string@DU?$char_traits@D@std@@V?$allocator@D@2@@std@@PAH@Z ; CTextFileLoader::GetTokenBoolean
; File C:\Program Files (x86)\Microsoft Visual Studio\2019\Community\VC\Tools\MSVC\14.27.29110\include\xstring

; 4301 :         if (_Mypair._Myval2._Large_string_engaged()) {

  002a2	8b 45 ec	 mov	 eax, DWORD PTR $T45[ebp+20]
; File C:\DS Project\DS Files\Source\ClientSource\Client\GameLib\MapUtil.cpp

; 98   : 			textLoader.GetTokenBoolean("enable", &envData.bDirLightsEnable[ENV_DIRLIGHT_CHARACTER]);

  002a5	c6 45 fc 00	 mov	 BYTE PTR __$EHRec$[ebp+8], 0
; File C:\Program Files (x86)\Microsoft Visual Studio\2019\Community\VC\Tools\MSVC\14.27.29110\include\xstring

; 4301 :         if (_Mypair._Myval2._Large_string_engaged()) {

  002a9	83 f8 10	 cmp	 eax, 16			; 00000010H
  002ac	72 0d		 jb	 SHORT $LN167@Environmen

; 4302 :             const pointer _Ptr = _Mypair._Myval2._Bx._Ptr;
; 4303 :             auto& _Al          = _Getal();
; 4304 :             _Destroy_in_place(_Mypair._Myval2._Bx._Ptr);
; 4305 :             _Al.deallocate(_Ptr, _Mypair._Myval2._Myres + 1);

  002ae	40		 inc	 eax
; File C:\Program Files (x86)\Microsoft Visual Studio\2019\Community\VC\Tools\MSVC\14.27.29110\include\xmemory

; 803  :         _Deallocate<_New_alignof<_Ty>>(_Ptr, sizeof(_Ty) * _Count);

  002af	50		 push	 eax
  002b0	ff 75 d8	 push	 DWORD PTR $T45[ebp]
  002b3	e8 00 00 00 00	 call	 ??$_Deallocate@$07$0A@@std@@YAXPAXI@Z ; std::_Deallocate<8,0>
  002b8	83 c4 08	 add	 esp, 8
$LN167@Environmen:
; File C:\Program Files (x86)\Microsoft Visual Studio\2019\Community\VC\Tools\MSVC\14.27.29110\include\xstring

; 2339 :         assign(_Ptr);

  002bb	68 00 00 00 00	 push	 OFFSET ??_C@_07KFBPAAO@diffuse@
  002c0	8d 4d d8	 lea	 ecx, DWORD PTR $T44[ebp]

; 4293 :         _Mypair._Myval2._Mysize = 0;

  002c3	c7 45 e8 00 00
	00 00		 mov	 DWORD PTR $T44[ebp+16], 0

; 4294 :         _Mypair._Myval2._Myres  = _BUF_SIZE - 1;

  002ca	c7 45 ec 0f 00
	00 00		 mov	 DWORD PTR $T44[ebp+20], 15 ; 0000000fH

; 4295 :         // the _Traits::assign is last so the codegen doesn't think the char write can alias this
; 4296 :         _Traits::assign(_Mypair._Myval2._Bx._Buf[0], _Elem());

  002d1	c6 45 d8 00	 mov	 BYTE PTR $T44[ebp], 0

; 2339 :         assign(_Ptr);

  002d5	e8 00 00 00 00	 call	 ?assign@?$basic_string@DU?$char_traits@D@std@@V?$allocator@D@2@@std@@QAEAAV12@QBD@Z ; std::basic_string<char,std::char_traits<char>,std::allocator<char> >::assign
; File C:\DS Project\DS Files\Source\ClientSource\Client\GameLib\MapUtil.cpp

; 99   : 			textLoader.GetTokenColor("diffuse", &envData.DirLights[ENV_DIRLIGHT_CHARACTER].Diffuse);

  002da	8d 47 74	 lea	 eax, DWORD PTR [edi+116]
  002dd	c6 45 fc 07	 mov	 BYTE PTR __$EHRec$[ebp+8], 7
  002e1	50		 push	 eax
  002e2	8d 45 d8	 lea	 eax, DWORD PTR $T44[ebp]
  002e5	50		 push	 eax
  002e6	8d 8d 40 ff ff
	ff		 lea	 ecx, DWORD PTR _textLoader$[ebp]
  002ec	e8 00 00 00 00	 call	 ?GetTokenColor@CTextFileLoader@@QAEHABV?$basic_string@DU?$char_traits@D@std@@V?$allocator@D@2@@std@@PAU_D3DCOLORVALUE@@@Z ; CTextFileLoader::GetTokenColor
; File C:\Program Files (x86)\Microsoft Visual Studio\2019\Community\VC\Tools\MSVC\14.27.29110\include\xstring

; 4301 :         if (_Mypair._Myval2._Large_string_engaged()) {

  002f1	8b 45 ec	 mov	 eax, DWORD PTR $T44[ebp+20]
; File C:\DS Project\DS Files\Source\ClientSource\Client\GameLib\MapUtil.cpp

; 99   : 			textLoader.GetTokenColor("diffuse", &envData.DirLights[ENV_DIRLIGHT_CHARACTER].Diffuse);

  002f4	c6 45 fc 00	 mov	 BYTE PTR __$EHRec$[ebp+8], 0
; File C:\Program Files (x86)\Microsoft Visual Studio\2019\Community\VC\Tools\MSVC\14.27.29110\include\xstring

; 4301 :         if (_Mypair._Myval2._Large_string_engaged()) {

  002f8	83 f8 10	 cmp	 eax, 16			; 00000010H
  002fb	72 0d		 jb	 SHORT $LN185@Environmen

; 4302 :             const pointer _Ptr = _Mypair._Myval2._Bx._Ptr;
; 4303 :             auto& _Al          = _Getal();
; 4304 :             _Destroy_in_place(_Mypair._Myval2._Bx._Ptr);
; 4305 :             _Al.deallocate(_Ptr, _Mypair._Myval2._Myres + 1);

  002fd	40		 inc	 eax
; File C:\Program Files (x86)\Microsoft Visual Studio\2019\Community\VC\Tools\MSVC\14.27.29110\include\xmemory

; 803  :         _Deallocate<_New_alignof<_Ty>>(_Ptr, sizeof(_Ty) * _Count);

  002fe	50		 push	 eax
  002ff	ff 75 d8	 push	 DWORD PTR $T44[ebp]
  00302	e8 00 00 00 00	 call	 ??$_Deallocate@$07$0A@@std@@YAXPAXI@Z ; std::_Deallocate<8,0>
  00307	83 c4 08	 add	 esp, 8
$LN185@Environmen:
; File C:\Program Files (x86)\Microsoft Visual Studio\2019\Community\VC\Tools\MSVC\14.27.29110\include\xstring

; 2339 :         assign(_Ptr);

  0030a	68 00 00 00 00	 push	 OFFSET ??_C@_07LIABELBC@ambient@
  0030f	8d 4d d8	 lea	 ecx, DWORD PTR $T43[ebp]

; 4293 :         _Mypair._Myval2._Mysize = 0;

  00312	c7 45 e8 00 00
	00 00		 mov	 DWORD PTR $T43[ebp+16], 0

; 4294 :         _Mypair._Myval2._Myres  = _BUF_SIZE - 1;

  00319	c7 45 ec 0f 00
	00 00		 mov	 DWORD PTR $T43[ebp+20], 15 ; 0000000fH

; 4295 :         // the _Traits::assign is last so the codegen doesn't think the char write can alias this
; 4296 :         _Traits::assign(_Mypair._Myval2._Bx._Buf[0], _Elem());

  00320	c6 45 d8 00	 mov	 BYTE PTR $T43[ebp], 0

; 2339 :         assign(_Ptr);

  00324	e8 00 00 00 00	 call	 ?assign@?$basic_string@DU?$char_traits@D@std@@V?$allocator@D@2@@std@@QAEAAV12@QBD@Z ; std::basic_string<char,std::char_traits<char>,std::allocator<char> >::assign
; File C:\DS Project\DS Files\Source\ClientSource\Client\GameLib\MapUtil.cpp

; 100  : 			textLoader.GetTokenColor("ambient", &envData.DirLights[ENV_DIRLIGHT_CHARACTER].Ambient);

  00329	8d 87 94 00 00
	00		 lea	 eax, DWORD PTR [edi+148]
  0032f	c6 45 fc 08	 mov	 BYTE PTR __$EHRec$[ebp+8], 8
  00333	50		 push	 eax
  00334	8d 45 d8	 lea	 eax, DWORD PTR $T43[ebp]
  00337	50		 push	 eax
  00338	8d 8d 40 ff ff
	ff		 lea	 ecx, DWORD PTR _textLoader$[ebp]
  0033e	e8 00 00 00 00	 call	 ?GetTokenColor@CTextFileLoader@@QAEHABV?$basic_string@DU?$char_traits@D@std@@V?$allocator@D@2@@std@@PAU_D3DCOLORVALUE@@@Z ; CTextFileLoader::GetTokenColor
; File C:\Program Files (x86)\Microsoft Visual Studio\2019\Community\VC\Tools\MSVC\14.27.29110\include\xstring

; 4301 :         if (_Mypair._Myval2._Large_string_engaged()) {

  00343	8b 45 ec	 mov	 eax, DWORD PTR $T43[ebp+20]
; File C:\DS Project\DS Files\Source\ClientSource\Client\GameLib\MapUtil.cpp

; 100  : 			textLoader.GetTokenColor("ambient", &envData.DirLights[ENV_DIRLIGHT_CHARACTER].Ambient);

  00346	c6 45 fc 00	 mov	 BYTE PTR __$EHRec$[ebp+8], 0
; File C:\Program Files (x86)\Microsoft Visual Studio\2019\Community\VC\Tools\MSVC\14.27.29110\include\xstring

; 4301 :         if (_Mypair._Myval2._Large_string_engaged()) {

  0034a	83 f8 10	 cmp	 eax, 16			; 00000010H
  0034d	72 0d		 jb	 SHORT $LN203@Environmen

; 4302 :             const pointer _Ptr = _Mypair._Myval2._Bx._Ptr;
; 4303 :             auto& _Al          = _Getal();
; 4304 :             _Destroy_in_place(_Mypair._Myval2._Bx._Ptr);
; 4305 :             _Al.deallocate(_Ptr, _Mypair._Myval2._Myres + 1);

  0034f	40		 inc	 eax
; File C:\Program Files (x86)\Microsoft Visual Studio\2019\Community\VC\Tools\MSVC\14.27.29110\include\xmemory

; 803  :         _Deallocate<_New_alignof<_Ty>>(_Ptr, sizeof(_Ty) * _Count);

  00350	50		 push	 eax
  00351	ff 75 d8	 push	 DWORD PTR $T43[ebp]
  00354	e8 00 00 00 00	 call	 ??$_Deallocate@$07$0A@@std@@YAXPAXI@Z ; std::_Deallocate<8,0>
  00359	83 c4 08	 add	 esp, 8
$LN203@Environmen:
; File C:\DS Project\DS Files\Source\ClientSource\Client\GameLib\MapUtil.cpp

; 101  : 			textLoader.SetParentNode();

  0035c	8d 8d 40 ff ff
	ff		 lea	 ecx, DWORD PTR _textLoader$[ebp]
  00362	e8 00 00 00 00	 call	 ?SetParentNode@CTextFileLoader@@QAEHXZ ; CTextFileLoader::SetParentNode
$LN8@Environmen:

; 102  : 		}
; 103  : 
; 104  : 		textLoader.SetParentNode();

  00367	8d 8d 40 ff ff
	ff		 lea	 ecx, DWORD PTR _textLoader$[ebp]
  0036d	e8 00 00 00 00	 call	 ?SetParentNode@CTextFileLoader@@QAEHXZ ; CTextFileLoader::SetParentNode
$LN6@Environmen:

; 105  : 	}
; 106  : 
; 107  : 	if (textLoader.SetChildNode("material"))

  00372	68 00 00 00 00	 push	 OFFSET ??_C@_08KNOEMJMM@material@
  00377	8d 8d 40 ff ff
	ff		 lea	 ecx, DWORD PTR _textLoader$[ebp]
  0037d	e8 00 00 00 00	 call	 ?SetChildNode@CTextFileLoader@@QAEHPBD@Z ; CTextFileLoader::SetChildNode
  00382	85 c0		 test	 eax, eax
  00384	0f 84 01 01 00
	00		 je	 $LN9@Environmen
; File C:\Program Files (x86)\Microsoft Visual Studio\2019\Community\VC\Tools\MSVC\14.27.29110\include\xstring

; 2339 :         assign(_Ptr);

  0038a	68 00 00 00 00	 push	 OFFSET ??_C@_07KFBPAAO@diffuse@
  0038f	8d 4d d8	 lea	 ecx, DWORD PTR $T42[ebp]

; 4293 :         _Mypair._Myval2._Mysize = 0;

  00392	c7 45 e8 00 00
	00 00		 mov	 DWORD PTR $T42[ebp+16], 0

; 4294 :         _Mypair._Myval2._Myres  = _BUF_SIZE - 1;

  00399	c7 45 ec 0f 00
	00 00		 mov	 DWORD PTR $T42[ebp+20], 15 ; 0000000fH

; 4295 :         // the _Traits::assign is last so the codegen doesn't think the char write can alias this
; 4296 :         _Traits::assign(_Mypair._Myval2._Bx._Buf[0], _Elem());

  003a0	c6 45 d8 00	 mov	 BYTE PTR $T42[ebp], 0

; 2339 :         assign(_Ptr);

  003a4	e8 00 00 00 00	 call	 ?assign@?$basic_string@DU?$char_traits@D@std@@V?$allocator@D@2@@std@@QAEAAV12@QBD@Z ; std::basic_string<char,std::char_traits<char>,std::allocator<char> >::assign
; File C:\DS Project\DS Files\Source\ClientSource\Client\GameLib\MapUtil.cpp

; 109  : 		textLoader.GetTokenColor("diffuse", &envData.Material.Diffuse);

  003a9	8d 87 d8 00 00
	00		 lea	 eax, DWORD PTR [edi+216]
  003af	c6 45 fc 09	 mov	 BYTE PTR __$EHRec$[ebp+8], 9
  003b3	50		 push	 eax
  003b4	8d 45 d8	 lea	 eax, DWORD PTR $T42[ebp]
  003b7	50		 push	 eax
  003b8	8d 8d 40 ff ff
	ff		 lea	 ecx, DWORD PTR _textLoader$[ebp]
  003be	e8 00 00 00 00	 call	 ?GetTokenColor@CTextFileLoader@@QAEHABV?$basic_string@DU?$char_traits@D@std@@V?$allocator@D@2@@std@@PAU_D3DCOLORVALUE@@@Z ; CTextFileLoader::GetTokenColor
; File C:\Program Files (x86)\Microsoft Visual Studio\2019\Community\VC\Tools\MSVC\14.27.29110\include\xstring

; 4301 :         if (_Mypair._Myval2._Large_string_engaged()) {

  003c3	8b 45 ec	 mov	 eax, DWORD PTR $T42[ebp+20]
; File C:\DS Project\DS Files\Source\ClientSource\Client\GameLib\MapUtil.cpp

; 109  : 		textLoader.GetTokenColor("diffuse", &envData.Material.Diffuse);

  003c6	c6 45 fc 00	 mov	 BYTE PTR __$EHRec$[ebp+8], 0
; File C:\Program Files (x86)\Microsoft Visual Studio\2019\Community\VC\Tools\MSVC\14.27.29110\include\xstring

; 4301 :         if (_Mypair._Myval2._Large_string_engaged()) {

  003ca	83 f8 10	 cmp	 eax, 16			; 00000010H
  003cd	72 0d		 jb	 SHORT $LN221@Environmen

; 4302 :             const pointer _Ptr = _Mypair._Myval2._Bx._Ptr;
; 4303 :             auto& _Al          = _Getal();
; 4304 :             _Destroy_in_place(_Mypair._Myval2._Bx._Ptr);
; 4305 :             _Al.deallocate(_Ptr, _Mypair._Myval2._Myres + 1);

  003cf	40		 inc	 eax
; File C:\Program Files (x86)\Microsoft Visual Studio\2019\Community\VC\Tools\MSVC\14.27.29110\include\xmemory

; 803  :         _Deallocate<_New_alignof<_Ty>>(_Ptr, sizeof(_Ty) * _Count);

  003d0	50		 push	 eax
  003d1	ff 75 d8	 push	 DWORD PTR $T42[ebp]
  003d4	e8 00 00 00 00	 call	 ??$_Deallocate@$07$0A@@std@@YAXPAXI@Z ; std::_Deallocate<8,0>
  003d9	83 c4 08	 add	 esp, 8
$LN221@Environmen:
; File C:\Program Files (x86)\Microsoft Visual Studio\2019\Community\VC\Tools\MSVC\14.27.29110\include\xstring

; 2339 :         assign(_Ptr);

  003dc	68 00 00 00 00	 push	 OFFSET ??_C@_07LIABELBC@ambient@
  003e1	8d 4d d8	 lea	 ecx, DWORD PTR $T41[ebp]

; 4293 :         _Mypair._Myval2._Mysize = 0;

  003e4	c7 45 e8 00 00
	00 00		 mov	 DWORD PTR $T41[ebp+16], 0

; 4294 :         _Mypair._Myval2._Myres  = _BUF_SIZE - 1;

  003eb	c7 45 ec 0f 00
	00 00		 mov	 DWORD PTR $T41[ebp+20], 15 ; 0000000fH

; 4295 :         // the _Traits::assign is last so the codegen doesn't think the char write can alias this
; 4296 :         _Traits::assign(_Mypair._Myval2._Bx._Buf[0], _Elem());

  003f2	c6 45 d8 00	 mov	 BYTE PTR $T41[ebp], 0

; 2339 :         assign(_Ptr);

  003f6	e8 00 00 00 00	 call	 ?assign@?$basic_string@DU?$char_traits@D@std@@V?$allocator@D@2@@std@@QAEAAV12@QBD@Z ; std::basic_string<char,std::char_traits<char>,std::allocator<char> >::assign
; File C:\DS Project\DS Files\Source\ClientSource\Client\GameLib\MapUtil.cpp

; 110  : 		textLoader.GetTokenColor("ambient", &envData.Material.Ambient);

  003fb	8d 87 e8 00 00
	00		 lea	 eax, DWORD PTR [edi+232]
  00401	c6 45 fc 0a	 mov	 BYTE PTR __$EHRec$[ebp+8], 10 ; 0000000aH
  00405	50		 push	 eax
  00406	8d 45 d8	 lea	 eax, DWORD PTR $T41[ebp]
  00409	50		 push	 eax
  0040a	8d 8d 40 ff ff
	ff		 lea	 ecx, DWORD PTR _textLoader$[ebp]
  00410	e8 00 00 00 00	 call	 ?GetTokenColor@CTextFileLoader@@QAEHABV?$basic_string@DU?$char_traits@D@std@@V?$allocator@D@2@@std@@PAU_D3DCOLORVALUE@@@Z ; CTextFileLoader::GetTokenColor
; File C:\Program Files (x86)\Microsoft Visual Studio\2019\Community\VC\Tools\MSVC\14.27.29110\include\xstring

; 4301 :         if (_Mypair._Myval2._Large_string_engaged()) {

  00415	8b 45 ec	 mov	 eax, DWORD PTR $T41[ebp+20]
; File C:\DS Project\DS Files\Source\ClientSource\Client\GameLib\MapUtil.cpp

; 110  : 		textLoader.GetTokenColor("ambient", &envData.Material.Ambient);

  00418	c6 45 fc 00	 mov	 BYTE PTR __$EHRec$[ebp+8], 0
; File C:\Program Files (x86)\Microsoft Visual Studio\2019\Community\VC\Tools\MSVC\14.27.29110\include\xstring

; 4301 :         if (_Mypair._Myval2._Large_string_engaged()) {

  0041c	83 f8 10	 cmp	 eax, 16			; 00000010H
  0041f	72 0d		 jb	 SHORT $LN239@Environmen

; 4302 :             const pointer _Ptr = _Mypair._Myval2._Bx._Ptr;
; 4303 :             auto& _Al          = _Getal();
; 4304 :             _Destroy_in_place(_Mypair._Myval2._Bx._Ptr);
; 4305 :             _Al.deallocate(_Ptr, _Mypair._Myval2._Myres + 1);

  00421	40		 inc	 eax
; File C:\Program Files (x86)\Microsoft Visual Studio\2019\Community\VC\Tools\MSVC\14.27.29110\include\xmemory

; 803  :         _Deallocate<_New_alignof<_Ty>>(_Ptr, sizeof(_Ty) * _Count);

  00422	50		 push	 eax
  00423	ff 75 d8	 push	 DWORD PTR $T41[ebp]
  00426	e8 00 00 00 00	 call	 ??$_Deallocate@$07$0A@@std@@YAXPAXI@Z ; std::_Deallocate<8,0>
  0042b	83 c4 08	 add	 esp, 8
$LN239@Environmen:
; File C:\Program Files (x86)\Microsoft Visual Studio\2019\Community\VC\Tools\MSVC\14.27.29110\include\xstring

; 2339 :         assign(_Ptr);

  0042e	68 00 00 00 00	 push	 OFFSET ??_C@_08GHNOEFBP@emissive@
  00433	8d 4d d8	 lea	 ecx, DWORD PTR $T40[ebp]

; 4293 :         _Mypair._Myval2._Mysize = 0;

  00436	c7 45 e8 00 00
	00 00		 mov	 DWORD PTR $T40[ebp+16], 0

; 4294 :         _Mypair._Myval2._Myres  = _BUF_SIZE - 1;

  0043d	c7 45 ec 0f 00
	00 00		 mov	 DWORD PTR $T40[ebp+20], 15 ; 0000000fH

; 4295 :         // the _Traits::assign is last so the codegen doesn't think the char write can alias this
; 4296 :         _Traits::assign(_Mypair._Myval2._Bx._Buf[0], _Elem());

  00444	c6 45 d8 00	 mov	 BYTE PTR $T40[ebp], 0

; 2339 :         assign(_Ptr);

  00448	e8 00 00 00 00	 call	 ?assign@?$basic_string@DU?$char_traits@D@std@@V?$allocator@D@2@@std@@QAEAAV12@QBD@Z ; std::basic_string<char,std::char_traits<char>,std::allocator<char> >::assign
; File C:\DS Project\DS Files\Source\ClientSource\Client\GameLib\MapUtil.cpp

; 111  : 		textLoader.GetTokenColor("emissive", &envData.Material.Emissive);

  0044d	8d 87 08 01 00
	00		 lea	 eax, DWORD PTR [edi+264]
  00453	c6 45 fc 0b	 mov	 BYTE PTR __$EHRec$[ebp+8], 11 ; 0000000bH
  00457	50		 push	 eax
  00458	8d 45 d8	 lea	 eax, DWORD PTR $T40[ebp]
  0045b	50		 push	 eax
  0045c	8d 8d 40 ff ff
	ff		 lea	 ecx, DWORD PTR _textLoader$[ebp]
  00462	e8 00 00 00 00	 call	 ?GetTokenColor@CTextFileLoader@@QAEHABV?$basic_string@DU?$char_traits@D@std@@V?$allocator@D@2@@std@@PAU_D3DCOLORVALUE@@@Z ; CTextFileLoader::GetTokenColor
; File C:\Program Files (x86)\Microsoft Visual Studio\2019\Community\VC\Tools\MSVC\14.27.29110\include\xstring

; 4301 :         if (_Mypair._Myval2._Large_string_engaged()) {

  00467	8b 45 ec	 mov	 eax, DWORD PTR $T40[ebp+20]
; File C:\DS Project\DS Files\Source\ClientSource\Client\GameLib\MapUtil.cpp

; 111  : 		textLoader.GetTokenColor("emissive", &envData.Material.Emissive);

  0046a	c6 45 fc 00	 mov	 BYTE PTR __$EHRec$[ebp+8], 0
; File C:\Program Files (x86)\Microsoft Visual Studio\2019\Community\VC\Tools\MSVC\14.27.29110\include\xstring

; 4301 :         if (_Mypair._Myval2._Large_string_engaged()) {

  0046e	83 f8 10	 cmp	 eax, 16			; 00000010H
  00471	72 0d		 jb	 SHORT $LN257@Environmen

; 4302 :             const pointer _Ptr = _Mypair._Myval2._Bx._Ptr;
; 4303 :             auto& _Al          = _Getal();
; 4304 :             _Destroy_in_place(_Mypair._Myval2._Bx._Ptr);
; 4305 :             _Al.deallocate(_Ptr, _Mypair._Myval2._Myres + 1);

  00473	40		 inc	 eax
; File C:\Program Files (x86)\Microsoft Visual Studio\2019\Community\VC\Tools\MSVC\14.27.29110\include\xmemory

; 803  :         _Deallocate<_New_alignof<_Ty>>(_Ptr, sizeof(_Ty) * _Count);

  00474	50		 push	 eax
  00475	ff 75 d8	 push	 DWORD PTR $T40[ebp]
  00478	e8 00 00 00 00	 call	 ??$_Deallocate@$07$0A@@std@@YAXPAXI@Z ; std::_Deallocate<8,0>
  0047d	83 c4 08	 add	 esp, 8
$LN257@Environmen:
; File C:\DS Project\DS Files\Source\ClientSource\Client\GameLib\MapUtil.cpp

; 112  : 		textLoader.SetParentNode();

  00480	8d 8d 40 ff ff
	ff		 lea	 ecx, DWORD PTR _textLoader$[ebp]
  00486	e8 00 00 00 00	 call	 ?SetParentNode@CTextFileLoader@@QAEHXZ ; CTextFileLoader::SetParentNode
$LN9@Environmen:

; 113  : 	}
; 114  : 
; 115  : 	if (textLoader.SetChildNode("fog"))

  0048b	68 00 00 00 00	 push	 OFFSET ??_C@_03KJMBPJEB@fog@
  00490	8d 8d 40 ff ff
	ff		 lea	 ecx, DWORD PTR _textLoader$[ebp]
  00496	e8 00 00 00 00	 call	 ?SetChildNode@CTextFileLoader@@QAEHPBD@Z ; CTextFileLoader::SetChildNode
  0049b	85 c0		 test	 eax, eax
  0049d	0f 84 a5 01 00
	00		 je	 $LN10@Environmen
; File C:\Program Files (x86)\Microsoft Visual Studio\2019\Community\VC\Tools\MSVC\14.27.29110\include\xstring

; 2339 :         assign(_Ptr);

  004a3	68 00 00 00 00	 push	 OFFSET ??_C@_06OFNJOBDK@enable@
  004a8	8d 4d d8	 lea	 ecx, DWORD PTR $T39[ebp]

; 4293 :         _Mypair._Myval2._Mysize = 0;

  004ab	c7 45 e8 00 00
	00 00		 mov	 DWORD PTR $T39[ebp+16], 0

; 4294 :         _Mypair._Myval2._Myres  = _BUF_SIZE - 1;

  004b2	c7 45 ec 0f 00
	00 00		 mov	 DWORD PTR $T39[ebp+20], 15 ; 0000000fH

; 4295 :         // the _Traits::assign is last so the codegen doesn't think the char write can alias this
; 4296 :         _Traits::assign(_Mypair._Myval2._Bx._Buf[0], _Elem());

  004b9	c6 45 d8 00	 mov	 BYTE PTR $T39[ebp], 0

; 2339 :         assign(_Ptr);

  004bd	e8 00 00 00 00	 call	 ?assign@?$basic_string@DU?$char_traits@D@std@@V?$allocator@D@2@@std@@QAEAAV12@QBD@Z ; std::basic_string<char,std::char_traits<char>,std::allocator<char> >::assign
; File C:\DS Project\DS Files\Source\ClientSource\Client\GameLib\MapUtil.cpp

; 117  : 		textLoader.GetTokenBoolean("enable", &envData.bFogEnable);

  004c2	8d 87 1c 01 00
	00		 lea	 eax, DWORD PTR [edi+284]
  004c8	c6 45 fc 0c	 mov	 BYTE PTR __$EHRec$[ebp+8], 12 ; 0000000cH
  004cc	50		 push	 eax
  004cd	8d 45 d8	 lea	 eax, DWORD PTR $T39[ebp]
  004d0	50		 push	 eax
  004d1	8d 8d 40 ff ff
	ff		 lea	 ecx, DWORD PTR _textLoader$[ebp]
  004d7	e8 00 00 00 00	 call	 ?GetTokenBoolean@CTextFileLoader@@QAEHABV?$basic_string@DU?$char_traits@D@std@@V?$allocator@D@2@@std@@PAH@Z ; CTextFileLoader::GetTokenBoolean
; File C:\Program Files (x86)\Microsoft Visual Studio\2019\Community\VC\Tools\MSVC\14.27.29110\include\xstring

; 4301 :         if (_Mypair._Myval2._Large_string_engaged()) {

  004dc	8b 45 ec	 mov	 eax, DWORD PTR $T39[ebp+20]
; File C:\DS Project\DS Files\Source\ClientSource\Client\GameLib\MapUtil.cpp

; 117  : 		textLoader.GetTokenBoolean("enable", &envData.bFogEnable);

  004df	c6 45 fc 00	 mov	 BYTE PTR __$EHRec$[ebp+8], 0
; File C:\Program Files (x86)\Microsoft Visual Studio\2019\Community\VC\Tools\MSVC\14.27.29110\include\xstring

; 4301 :         if (_Mypair._Myval2._Large_string_engaged()) {

  004e3	83 f8 10	 cmp	 eax, 16			; 00000010H
  004e6	72 0d		 jb	 SHORT $LN275@Environmen

; 4302 :             const pointer _Ptr = _Mypair._Myval2._Bx._Ptr;
; 4303 :             auto& _Al          = _Getal();
; 4304 :             _Destroy_in_place(_Mypair._Myval2._Bx._Ptr);
; 4305 :             _Al.deallocate(_Ptr, _Mypair._Myval2._Myres + 1);

  004e8	40		 inc	 eax
; File C:\Program Files (x86)\Microsoft Visual Studio\2019\Community\VC\Tools\MSVC\14.27.29110\include\xmemory

; 803  :         _Deallocate<_New_alignof<_Ty>>(_Ptr, sizeof(_Ty) * _Count);

  004e9	50		 push	 eax
  004ea	ff 75 d8	 push	 DWORD PTR $T39[ebp]
  004ed	e8 00 00 00 00	 call	 ??$_Deallocate@$07$0A@@std@@YAXPAXI@Z ; std::_Deallocate<8,0>
  004f2	83 c4 08	 add	 esp, 8
$LN275@Environmen:
; File C:\Program Files (x86)\Microsoft Visual Studio\2019\Community\VC\Tools\MSVC\14.27.29110\include\xstring

; 2339 :         assign(_Ptr);

  004f5	68 00 00 00 00	 push	 OFFSET ??_C@_09BCCBMEKP@isdensity@
  004fa	8d 4d d8	 lea	 ecx, DWORD PTR $T38[ebp]

; 4293 :         _Mypair._Myval2._Mysize = 0;

  004fd	c7 45 e8 00 00
	00 00		 mov	 DWORD PTR $T38[ebp+16], 0

; 4294 :         _Mypair._Myval2._Myres  = _BUF_SIZE - 1;

  00504	c7 45 ec 0f 00
	00 00		 mov	 DWORD PTR $T38[ebp+20], 15 ; 0000000fH

; 4295 :         // the _Traits::assign is last so the codegen doesn't think the char write can alias this
; 4296 :         _Traits::assign(_Mypair._Myval2._Bx._Buf[0], _Elem());

  0050b	c6 45 d8 00	 mov	 BYTE PTR $T38[ebp], 0

; 2339 :         assign(_Ptr);

  0050f	e8 00 00 00 00	 call	 ?assign@?$basic_string@DU?$char_traits@D@std@@V?$allocator@D@2@@std@@QAEAAV12@QBD@Z ; std::basic_string<char,std::char_traits<char>,std::allocator<char> >::assign
; File C:\DS Project\DS Files\Source\ClientSource\Client\GameLib\MapUtil.cpp

; 118  : 		textLoader.GetTokenBoolean("isdensity", &envData.bDensityFog);

  00514	8d 87 20 01 00
	00		 lea	 eax, DWORD PTR [edi+288]
  0051a	c6 45 fc 0d	 mov	 BYTE PTR __$EHRec$[ebp+8], 13 ; 0000000dH
  0051e	50		 push	 eax
  0051f	8d 45 d8	 lea	 eax, DWORD PTR $T38[ebp]
  00522	50		 push	 eax
  00523	8d 8d 40 ff ff
	ff		 lea	 ecx, DWORD PTR _textLoader$[ebp]
  00529	e8 00 00 00 00	 call	 ?GetTokenBoolean@CTextFileLoader@@QAEHABV?$basic_string@DU?$char_traits@D@std@@V?$allocator@D@2@@std@@PAH@Z ; CTextFileLoader::GetTokenBoolean
; File C:\Program Files (x86)\Microsoft Visual Studio\2019\Community\VC\Tools\MSVC\14.27.29110\include\xstring

; 4301 :         if (_Mypair._Myval2._Large_string_engaged()) {

  0052e	8b 45 ec	 mov	 eax, DWORD PTR $T38[ebp+20]
; File C:\DS Project\DS Files\Source\ClientSource\Client\GameLib\MapUtil.cpp

; 118  : 		textLoader.GetTokenBoolean("isdensity", &envData.bDensityFog);

  00531	c6 45 fc 00	 mov	 BYTE PTR __$EHRec$[ebp+8], 0
; File C:\Program Files (x86)\Microsoft Visual Studio\2019\Community\VC\Tools\MSVC\14.27.29110\include\xstring

; 4301 :         if (_Mypair._Myval2._Large_string_engaged()) {

  00535	83 f8 10	 cmp	 eax, 16			; 00000010H
  00538	72 0d		 jb	 SHORT $LN293@Environmen

; 4302 :             const pointer _Ptr = _Mypair._Myval2._Bx._Ptr;
; 4303 :             auto& _Al          = _Getal();
; 4304 :             _Destroy_in_place(_Mypair._Myval2._Bx._Ptr);
; 4305 :             _Al.deallocate(_Ptr, _Mypair._Myval2._Myres + 1);

  0053a	40		 inc	 eax
; File C:\Program Files (x86)\Microsoft Visual Studio\2019\Community\VC\Tools\MSVC\14.27.29110\include\xmemory

; 803  :         _Deallocate<_New_alignof<_Ty>>(_Ptr, sizeof(_Ty) * _Count);

  0053b	50		 push	 eax
  0053c	ff 75 d8	 push	 DWORD PTR $T38[ebp]
  0053f	e8 00 00 00 00	 call	 ??$_Deallocate@$07$0A@@std@@YAXPAXI@Z ; std::_Deallocate<8,0>
  00544	83 c4 08	 add	 esp, 8
$LN293@Environmen:
; File C:\Program Files (x86)\Microsoft Visual Studio\2019\Community\VC\Tools\MSVC\14.27.29110\include\xstring

; 2339 :         assign(_Ptr);

  00547	68 00 00 00 00	 push	 OFFSET ??_C@_0N@HJCBLCNJ@neardistance@
  0054c	8d 4d d8	 lea	 ecx, DWORD PTR $T37[ebp]

; 4293 :         _Mypair._Myval2._Mysize = 0;

  0054f	c7 45 e8 00 00
	00 00		 mov	 DWORD PTR $T37[ebp+16], 0

; 4294 :         _Mypair._Myval2._Myres  = _BUF_SIZE - 1;

  00556	c7 45 ec 0f 00
	00 00		 mov	 DWORD PTR $T37[ebp+20], 15 ; 0000000fH

; 4295 :         // the _Traits::assign is last so the codegen doesn't think the char write can alias this
; 4296 :         _Traits::assign(_Mypair._Myval2._Bx._Buf[0], _Elem());

  0055d	c6 45 d8 00	 mov	 BYTE PTR $T37[ebp], 0

; 2339 :         assign(_Ptr);

  00561	e8 00 00 00 00	 call	 ?assign@?$basic_string@DU?$char_traits@D@std@@V?$allocator@D@2@@std@@QAEAAV12@QBD@Z ; std::basic_string<char,std::char_traits<char>,std::allocator<char> >::assign
; File C:\DS Project\DS Files\Source\ClientSource\Client\GameLib\MapUtil.cpp

; 119  : 		textLoader.GetTokenFloat("neardistance", &envData.m_fFogNearDistance);

  00566	8d 87 24 01 00
	00		 lea	 eax, DWORD PTR [edi+292]
  0056c	c6 45 fc 0e	 mov	 BYTE PTR __$EHRec$[ebp+8], 14 ; 0000000eH
  00570	50		 push	 eax
  00571	8d 45 d8	 lea	 eax, DWORD PTR $T37[ebp]
  00574	50		 push	 eax
  00575	8d 8d 40 ff ff
	ff		 lea	 ecx, DWORD PTR _textLoader$[ebp]
  0057b	e8 00 00 00 00	 call	 ?GetTokenFloat@CTextFileLoader@@QAEHABV?$basic_string@DU?$char_traits@D@std@@V?$allocator@D@2@@std@@PAM@Z ; CTextFileLoader::GetTokenFloat
; File C:\Program Files (x86)\Microsoft Visual Studio\2019\Community\VC\Tools\MSVC\14.27.29110\include\xstring

; 4301 :         if (_Mypair._Myval2._Large_string_engaged()) {

  00580	8b 45 ec	 mov	 eax, DWORD PTR $T37[ebp+20]
; File C:\DS Project\DS Files\Source\ClientSource\Client\GameLib\MapUtil.cpp

; 119  : 		textLoader.GetTokenFloat("neardistance", &envData.m_fFogNearDistance);

  00583	c6 45 fc 00	 mov	 BYTE PTR __$EHRec$[ebp+8], 0
; File C:\Program Files (x86)\Microsoft Visual Studio\2019\Community\VC\Tools\MSVC\14.27.29110\include\xstring

; 4301 :         if (_Mypair._Myval2._Large_string_engaged()) {

  00587	83 f8 10	 cmp	 eax, 16			; 00000010H
  0058a	72 0d		 jb	 SHORT $LN311@Environmen

; 4302 :             const pointer _Ptr = _Mypair._Myval2._Bx._Ptr;
; 4303 :             auto& _Al          = _Getal();
; 4304 :             _Destroy_in_place(_Mypair._Myval2._Bx._Ptr);
; 4305 :             _Al.deallocate(_Ptr, _Mypair._Myval2._Myres + 1);

  0058c	40		 inc	 eax
; File C:\Program Files (x86)\Microsoft Visual Studio\2019\Community\VC\Tools\MSVC\14.27.29110\include\xmemory

; 803  :         _Deallocate<_New_alignof<_Ty>>(_Ptr, sizeof(_Ty) * _Count);

  0058d	50		 push	 eax
  0058e	ff 75 d8	 push	 DWORD PTR $T37[ebp]
  00591	e8 00 00 00 00	 call	 ??$_Deallocate@$07$0A@@std@@YAXPAXI@Z ; std::_Deallocate<8,0>
  00596	83 c4 08	 add	 esp, 8
$LN311@Environmen:
; File C:\Program Files (x86)\Microsoft Visual Studio\2019\Community\VC\Tools\MSVC\14.27.29110\include\xstring

; 2339 :         assign(_Ptr);

  00599	68 00 00 00 00	 push	 OFFSET ??_C@_0M@IOALDGCK@fardistance@
  0059e	8d 4d d8	 lea	 ecx, DWORD PTR $T36[ebp]

; 4293 :         _Mypair._Myval2._Mysize = 0;

  005a1	c7 45 e8 00 00
	00 00		 mov	 DWORD PTR $T36[ebp+16], 0

; 4294 :         _Mypair._Myval2._Myres  = _BUF_SIZE - 1;

  005a8	c7 45 ec 0f 00
	00 00		 mov	 DWORD PTR $T36[ebp+20], 15 ; 0000000fH

; 4295 :         // the _Traits::assign is last so the codegen doesn't think the char write can alias this
; 4296 :         _Traits::assign(_Mypair._Myval2._Bx._Buf[0], _Elem());

  005af	c6 45 d8 00	 mov	 BYTE PTR $T36[ebp], 0

; 2339 :         assign(_Ptr);

  005b3	e8 00 00 00 00	 call	 ?assign@?$basic_string@DU?$char_traits@D@std@@V?$allocator@D@2@@std@@QAEAAV12@QBD@Z ; std::basic_string<char,std::char_traits<char>,std::allocator<char> >::assign
; File C:\DS Project\DS Files\Source\ClientSource\Client\GameLib\MapUtil.cpp

; 120  : 		textLoader.GetTokenFloat("fardistance", &envData.m_fFogFarDistance);

  005b8	8d 87 28 01 00
	00		 lea	 eax, DWORD PTR [edi+296]
  005be	c6 45 fc 0f	 mov	 BYTE PTR __$EHRec$[ebp+8], 15 ; 0000000fH
  005c2	50		 push	 eax
  005c3	8d 45 d8	 lea	 eax, DWORD PTR $T36[ebp]
  005c6	50		 push	 eax
  005c7	8d 8d 40 ff ff
	ff		 lea	 ecx, DWORD PTR _textLoader$[ebp]
  005cd	e8 00 00 00 00	 call	 ?GetTokenFloat@CTextFileLoader@@QAEHABV?$basic_string@DU?$char_traits@D@std@@V?$allocator@D@2@@std@@PAM@Z ; CTextFileLoader::GetTokenFloat
; File C:\Program Files (x86)\Microsoft Visual Studio\2019\Community\VC\Tools\MSVC\14.27.29110\include\xstring

; 4301 :         if (_Mypair._Myval2._Large_string_engaged()) {

  005d2	8b 45 ec	 mov	 eax, DWORD PTR $T36[ebp+20]
; File C:\DS Project\DS Files\Source\ClientSource\Client\GameLib\MapUtil.cpp

; 120  : 		textLoader.GetTokenFloat("fardistance", &envData.m_fFogFarDistance);

  005d5	c6 45 fc 00	 mov	 BYTE PTR __$EHRec$[ebp+8], 0
; File C:\Program Files (x86)\Microsoft Visual Studio\2019\Community\VC\Tools\MSVC\14.27.29110\include\xstring

; 4301 :         if (_Mypair._Myval2._Large_string_engaged()) {

  005d9	83 f8 10	 cmp	 eax, 16			; 00000010H
  005dc	72 0d		 jb	 SHORT $LN329@Environmen

; 4302 :             const pointer _Ptr = _Mypair._Myval2._Bx._Ptr;
; 4303 :             auto& _Al          = _Getal();
; 4304 :             _Destroy_in_place(_Mypair._Myval2._Bx._Ptr);
; 4305 :             _Al.deallocate(_Ptr, _Mypair._Myval2._Myres + 1);

  005de	40		 inc	 eax
; File C:\Program Files (x86)\Microsoft Visual Studio\2019\Community\VC\Tools\MSVC\14.27.29110\include\xmemory

; 803  :         _Deallocate<_New_alignof<_Ty>>(_Ptr, sizeof(_Ty) * _Count);

  005df	50		 push	 eax
  005e0	ff 75 d8	 push	 DWORD PTR $T36[ebp]
  005e3	e8 00 00 00 00	 call	 ??$_Deallocate@$07$0A@@std@@YAXPAXI@Z ; std::_Deallocate<8,0>
  005e8	83 c4 08	 add	 esp, 8
$LN329@Environmen:
; File C:\Program Files (x86)\Microsoft Visual Studio\2019\Community\VC\Tools\MSVC\14.27.29110\include\xstring

; 2339 :         assign(_Ptr);

  005eb	68 00 00 00 00	 push	 OFFSET ??_C@_05PEENBMOG@color@
  005f0	8d 4d d8	 lea	 ecx, DWORD PTR $T35[ebp]

; 4293 :         _Mypair._Myval2._Mysize = 0;

  005f3	c7 45 e8 00 00
	00 00		 mov	 DWORD PTR $T35[ebp+16], 0

; 4294 :         _Mypair._Myval2._Myres  = _BUF_SIZE - 1;

  005fa	c7 45 ec 0f 00
	00 00		 mov	 DWORD PTR $T35[ebp+20], 15 ; 0000000fH

; 4295 :         // the _Traits::assign is last so the codegen doesn't think the char write can alias this
; 4296 :         _Traits::assign(_Mypair._Myval2._Bx._Buf[0], _Elem());

  00601	c6 45 d8 00	 mov	 BYTE PTR $T35[ebp], 0

; 2339 :         assign(_Ptr);

  00605	e8 00 00 00 00	 call	 ?assign@?$basic_string@DU?$char_traits@D@std@@V?$allocator@D@2@@std@@QAEAAV12@QBD@Z ; std::basic_string<char,std::char_traits<char>,std::allocator<char> >::assign
; File C:\DS Project\DS Files\Source\ClientSource\Client\GameLib\MapUtil.cpp

; 121  : 		textLoader.GetTokenColor("color", &envData.FogColor);

  0060a	8d 87 2c 01 00
	00		 lea	 eax, DWORD PTR [edi+300]
  00610	c6 45 fc 10	 mov	 BYTE PTR __$EHRec$[ebp+8], 16 ; 00000010H
  00614	50		 push	 eax
  00615	8d 45 d8	 lea	 eax, DWORD PTR $T35[ebp]
  00618	50		 push	 eax
  00619	8d 8d 40 ff ff
	ff		 lea	 ecx, DWORD PTR _textLoader$[ebp]
  0061f	e8 00 00 00 00	 call	 ?GetTokenColor@CTextFileLoader@@QAEHABV?$basic_string@DU?$char_traits@D@std@@V?$allocator@D@2@@std@@PAUD3DXCOLOR@@@Z ; CTextFileLoader::GetTokenColor
; File C:\Program Files (x86)\Microsoft Visual Studio\2019\Community\VC\Tools\MSVC\14.27.29110\include\xstring

; 4301 :         if (_Mypair._Myval2._Large_string_engaged()) {

  00624	8b 45 ec	 mov	 eax, DWORD PTR $T35[ebp+20]
; File C:\DS Project\DS Files\Source\ClientSource\Client\GameLib\MapUtil.cpp

; 121  : 		textLoader.GetTokenColor("color", &envData.FogColor);

  00627	c6 45 fc 00	 mov	 BYTE PTR __$EHRec$[ebp+8], 0
; File C:\Program Files (x86)\Microsoft Visual Studio\2019\Community\VC\Tools\MSVC\14.27.29110\include\xstring

; 4301 :         if (_Mypair._Myval2._Large_string_engaged()) {

  0062b	83 f8 10	 cmp	 eax, 16			; 00000010H
  0062e	72 0d		 jb	 SHORT $LN347@Environmen

; 4302 :             const pointer _Ptr = _Mypair._Myval2._Bx._Ptr;
; 4303 :             auto& _Al          = _Getal();
; 4304 :             _Destroy_in_place(_Mypair._Myval2._Bx._Ptr);
; 4305 :             _Al.deallocate(_Ptr, _Mypair._Myval2._Myres + 1);

  00630	40		 inc	 eax
; File C:\Program Files (x86)\Microsoft Visual Studio\2019\Community\VC\Tools\MSVC\14.27.29110\include\xmemory

; 803  :         _Deallocate<_New_alignof<_Ty>>(_Ptr, sizeof(_Ty) * _Count);

  00631	50		 push	 eax
  00632	ff 75 d8	 push	 DWORD PTR $T35[ebp]
  00635	e8 00 00 00 00	 call	 ??$_Deallocate@$07$0A@@std@@YAXPAXI@Z ; std::_Deallocate<8,0>
  0063a	83 c4 08	 add	 esp, 8
$LN347@Environmen:
; File C:\DS Project\DS Files\Source\ClientSource\Client\GameLib\MapUtil.cpp

; 122  : 		textLoader.SetParentNode();

  0063d	8d 8d 40 ff ff
	ff		 lea	 ecx, DWORD PTR _textLoader$[ebp]
  00643	e8 00 00 00 00	 call	 ?SetParentNode@CTextFileLoader@@QAEHXZ ; CTextFileLoader::SetParentNode
$LN10@Environmen:

; 123  : 	}
; 124  : 
; 125  : 	if (textLoader.SetChildNode("filter"))

  00648	68 00 00 00 00	 push	 OFFSET ??_C@_06EOIELIPE@filter@
  0064d	8d 8d 40 ff ff
	ff		 lea	 ecx, DWORD PTR _textLoader$[ebp]
  00653	e8 00 00 00 00	 call	 ?SetChildNode@CTextFileLoader@@QAEHPBD@Z ; CTextFileLoader::SetChildNode
  00658	85 c0		 test	 eax, eax
  0065a	0f 84 53 01 00
	00		 je	 $LN11@Environmen
; File C:\Program Files (x86)\Microsoft Visual Studio\2019\Community\VC\Tools\MSVC\14.27.29110\include\xstring

; 2339 :         assign(_Ptr);

  00660	68 00 00 00 00	 push	 OFFSET ??_C@_06OFNJOBDK@enable@
  00665	8d 4d d8	 lea	 ecx, DWORD PTR $T34[ebp]

; 4293 :         _Mypair._Myval2._Mysize = 0;

  00668	c7 45 e8 00 00
	00 00		 mov	 DWORD PTR $T34[ebp+16], 0

; 4294 :         _Mypair._Myval2._Myres  = _BUF_SIZE - 1;

  0066f	c7 45 ec 0f 00
	00 00		 mov	 DWORD PTR $T34[ebp+20], 15 ; 0000000fH

; 4295 :         // the _Traits::assign is last so the codegen doesn't think the char write can alias this
; 4296 :         _Traits::assign(_Mypair._Myval2._Bx._Buf[0], _Elem());

  00676	c6 45 d8 00	 mov	 BYTE PTR $T34[ebp], 0

; 2339 :         assign(_Ptr);

  0067a	e8 00 00 00 00	 call	 ?assign@?$basic_string@DU?$char_traits@D@std@@V?$allocator@D@2@@std@@QAEAAV12@QBD@Z ; std::basic_string<char,std::char_traits<char>,std::allocator<char> >::assign
; File C:\DS Project\DS Files\Source\ClientSource\Client\GameLib\MapUtil.cpp

; 127  : 		textLoader.GetTokenBoolean("enable", (BOOL *) &envData.bFilteringEnable);

  0067f	8d 87 3c 01 00
	00		 lea	 eax, DWORD PTR [edi+316]
  00685	c6 45 fc 11	 mov	 BYTE PTR __$EHRec$[ebp+8], 17 ; 00000011H
  00689	50		 push	 eax
  0068a	8d 45 d8	 lea	 eax, DWORD PTR $T34[ebp]
  0068d	50		 push	 eax
  0068e	8d 8d 40 ff ff
	ff		 lea	 ecx, DWORD PTR _textLoader$[ebp]
  00694	e8 00 00 00 00	 call	 ?GetTokenBoolean@CTextFileLoader@@QAEHABV?$basic_string@DU?$char_traits@D@std@@V?$allocator@D@2@@std@@PAH@Z ; CTextFileLoader::GetTokenBoolean
; File C:\Program Files (x86)\Microsoft Visual Studio\2019\Community\VC\Tools\MSVC\14.27.29110\include\xstring

; 4301 :         if (_Mypair._Myval2._Large_string_engaged()) {

  00699	8b 45 ec	 mov	 eax, DWORD PTR $T34[ebp+20]
; File C:\DS Project\DS Files\Source\ClientSource\Client\GameLib\MapUtil.cpp

; 127  : 		textLoader.GetTokenBoolean("enable", (BOOL *) &envData.bFilteringEnable);

  0069c	c6 45 fc 00	 mov	 BYTE PTR __$EHRec$[ebp+8], 0
; File C:\Program Files (x86)\Microsoft Visual Studio\2019\Community\VC\Tools\MSVC\14.27.29110\include\xstring

; 4301 :         if (_Mypair._Myval2._Large_string_engaged()) {

  006a0	83 f8 10	 cmp	 eax, 16			; 00000010H
  006a3	72 0d		 jb	 SHORT $LN365@Environmen

; 4302 :             const pointer _Ptr = _Mypair._Myval2._Bx._Ptr;
; 4303 :             auto& _Al          = _Getal();
; 4304 :             _Destroy_in_place(_Mypair._Myval2._Bx._Ptr);
; 4305 :             _Al.deallocate(_Ptr, _Mypair._Myval2._Myres + 1);

  006a5	40		 inc	 eax
; File C:\Program Files (x86)\Microsoft Visual Studio\2019\Community\VC\Tools\MSVC\14.27.29110\include\xmemory

; 803  :         _Deallocate<_New_alignof<_Ty>>(_Ptr, sizeof(_Ty) * _Count);

  006a6	50		 push	 eax
  006a7	ff 75 d8	 push	 DWORD PTR $T34[ebp]
  006aa	e8 00 00 00 00	 call	 ??$_Deallocate@$07$0A@@std@@YAXPAXI@Z ; std::_Deallocate<8,0>
  006af	83 c4 08	 add	 esp, 8
$LN365@Environmen:
; File C:\Program Files (x86)\Microsoft Visual Studio\2019\Community\VC\Tools\MSVC\14.27.29110\include\xstring

; 2339 :         assign(_Ptr);

  006b2	68 00 00 00 00	 push	 OFFSET ??_C@_05PEENBMOG@color@
  006b7	8d 4d d8	 lea	 ecx, DWORD PTR $T33[ebp]

; 4293 :         _Mypair._Myval2._Mysize = 0;

  006ba	c7 45 e8 00 00
	00 00		 mov	 DWORD PTR $T33[ebp+16], 0

; 4294 :         _Mypair._Myval2._Myres  = _BUF_SIZE - 1;

  006c1	c7 45 ec 0f 00
	00 00		 mov	 DWORD PTR $T33[ebp+20], 15 ; 0000000fH

; 4295 :         // the _Traits::assign is last so the codegen doesn't think the char write can alias this
; 4296 :         _Traits::assign(_Mypair._Myval2._Bx._Buf[0], _Elem());

  006c8	c6 45 d8 00	 mov	 BYTE PTR $T33[ebp], 0

; 2339 :         assign(_Ptr);

  006cc	e8 00 00 00 00	 call	 ?assign@?$basic_string@DU?$char_traits@D@std@@V?$allocator@D@2@@std@@QAEAAV12@QBD@Z ; std::basic_string<char,std::char_traits<char>,std::allocator<char> >::assign
; File C:\DS Project\DS Files\Source\ClientSource\Client\GameLib\MapUtil.cpp

; 128  : 		textLoader.GetTokenColor("color", &envData.FilteringColor);

  006d1	8d 87 40 01 00
	00		 lea	 eax, DWORD PTR [edi+320]
  006d7	c6 45 fc 12	 mov	 BYTE PTR __$EHRec$[ebp+8], 18 ; 00000012H
  006db	50		 push	 eax
  006dc	8d 45 d8	 lea	 eax, DWORD PTR $T33[ebp]
  006df	50		 push	 eax
  006e0	8d 8d 40 ff ff
	ff		 lea	 ecx, DWORD PTR _textLoader$[ebp]
  006e6	e8 00 00 00 00	 call	 ?GetTokenColor@CTextFileLoader@@QAEHABV?$basic_string@DU?$char_traits@D@std@@V?$allocator@D@2@@std@@PAUD3DXCOLOR@@@Z ; CTextFileLoader::GetTokenColor
; File C:\Program Files (x86)\Microsoft Visual Studio\2019\Community\VC\Tools\MSVC\14.27.29110\include\xstring

; 4301 :         if (_Mypair._Myval2._Large_string_engaged()) {

  006eb	8b 45 ec	 mov	 eax, DWORD PTR $T33[ebp+20]
; File C:\DS Project\DS Files\Source\ClientSource\Client\GameLib\MapUtil.cpp

; 128  : 		textLoader.GetTokenColor("color", &envData.FilteringColor);

  006ee	c6 45 fc 00	 mov	 BYTE PTR __$EHRec$[ebp+8], 0
; File C:\Program Files (x86)\Microsoft Visual Studio\2019\Community\VC\Tools\MSVC\14.27.29110\include\xstring

; 4301 :         if (_Mypair._Myval2._Large_string_engaged()) {

  006f2	83 f8 10	 cmp	 eax, 16			; 00000010H
  006f5	72 0d		 jb	 SHORT $LN383@Environmen

; 4302 :             const pointer _Ptr = _Mypair._Myval2._Bx._Ptr;
; 4303 :             auto& _Al          = _Getal();
; 4304 :             _Destroy_in_place(_Mypair._Myval2._Bx._Ptr);
; 4305 :             _Al.deallocate(_Ptr, _Mypair._Myval2._Myres + 1);

  006f7	40		 inc	 eax
; File C:\Program Files (x86)\Microsoft Visual Studio\2019\Community\VC\Tools\MSVC\14.27.29110\include\xmemory

; 803  :         _Deallocate<_New_alignof<_Ty>>(_Ptr, sizeof(_Ty) * _Count);

  006f8	50		 push	 eax
  006f9	ff 75 d8	 push	 DWORD PTR $T33[ebp]
  006fc	e8 00 00 00 00	 call	 ??$_Deallocate@$07$0A@@std@@YAXPAXI@Z ; std::_Deallocate<8,0>
  00701	83 c4 08	 add	 esp, 8
$LN383@Environmen:
; File C:\Program Files (x86)\Microsoft Visual Studio\2019\Community\VC\Tools\MSVC\14.27.29110\include\xstring

; 2339 :         assign(_Ptr);

  00704	68 00 00 00 00	 push	 OFFSET ??_C@_08BJBIEDIL@alphasrc@
  00709	8d 4d d8	 lea	 ecx, DWORD PTR $T32[ebp]

; 4293 :         _Mypair._Myval2._Mysize = 0;

  0070c	c7 45 e8 00 00
	00 00		 mov	 DWORD PTR $T32[ebp+16], 0

; 4294 :         _Mypair._Myval2._Myres  = _BUF_SIZE - 1;

  00713	c7 45 ec 0f 00
	00 00		 mov	 DWORD PTR $T32[ebp+20], 15 ; 0000000fH

; 4295 :         // the _Traits::assign is last so the codegen doesn't think the char write can alias this
; 4296 :         _Traits::assign(_Mypair._Myval2._Bx._Buf[0], _Elem());

  0071a	c6 45 d8 00	 mov	 BYTE PTR $T32[ebp], 0

; 2339 :         assign(_Ptr);

  0071e	e8 00 00 00 00	 call	 ?assign@?$basic_string@DU?$char_traits@D@std@@V?$allocator@D@2@@std@@QAEAAV12@QBD@Z ; std::basic_string<char,std::char_traits<char>,std::allocator<char> >::assign
; File C:\DS Project\DS Files\Source\ClientSource\Client\GameLib\MapUtil.cpp

; 129  : 		textLoader.GetTokenByte("alphasrc", &envData.byFilteringAlphaSrc);

  00723	8d 87 50 01 00
	00		 lea	 eax, DWORD PTR [edi+336]
  00729	c6 45 fc 13	 mov	 BYTE PTR __$EHRec$[ebp+8], 19 ; 00000013H
  0072d	50		 push	 eax
  0072e	8d 45 d8	 lea	 eax, DWORD PTR $T32[ebp]
  00731	50		 push	 eax
  00732	8d 8d 40 ff ff
	ff		 lea	 ecx, DWORD PTR _textLoader$[ebp]
  00738	e8 00 00 00 00	 call	 ?GetTokenByte@CTextFileLoader@@QAEHABV?$basic_string@DU?$char_traits@D@std@@V?$allocator@D@2@@std@@PAE@Z ; CTextFileLoader::GetTokenByte
; File C:\Program Files (x86)\Microsoft Visual Studio\2019\Community\VC\Tools\MSVC\14.27.29110\include\xstring

; 4301 :         if (_Mypair._Myval2._Large_string_engaged()) {

  0073d	8b 45 ec	 mov	 eax, DWORD PTR $T32[ebp+20]
; File C:\DS Project\DS Files\Source\ClientSource\Client\GameLib\MapUtil.cpp

; 129  : 		textLoader.GetTokenByte("alphasrc", &envData.byFilteringAlphaSrc);

  00740	c6 45 fc 00	 mov	 BYTE PTR __$EHRec$[ebp+8], 0
; File C:\Program Files (x86)\Microsoft Visual Studio\2019\Community\VC\Tools\MSVC\14.27.29110\include\xstring

; 4301 :         if (_Mypair._Myval2._Large_string_engaged()) {

  00744	83 f8 10	 cmp	 eax, 16			; 00000010H
  00747	72 0d		 jb	 SHORT $LN401@Environmen

; 4302 :             const pointer _Ptr = _Mypair._Myval2._Bx._Ptr;
; 4303 :             auto& _Al          = _Getal();
; 4304 :             _Destroy_in_place(_Mypair._Myval2._Bx._Ptr);
; 4305 :             _Al.deallocate(_Ptr, _Mypair._Myval2._Myres + 1);

  00749	40		 inc	 eax
; File C:\Program Files (x86)\Microsoft Visual Studio\2019\Community\VC\Tools\MSVC\14.27.29110\include\xmemory

; 803  :         _Deallocate<_New_alignof<_Ty>>(_Ptr, sizeof(_Ty) * _Count);

  0074a	50		 push	 eax
  0074b	ff 75 d8	 push	 DWORD PTR $T32[ebp]
  0074e	e8 00 00 00 00	 call	 ??$_Deallocate@$07$0A@@std@@YAXPAXI@Z ; std::_Deallocate<8,0>
  00753	83 c4 08	 add	 esp, 8
$LN401@Environmen:
; File C:\Program Files (x86)\Microsoft Visual Studio\2019\Community\VC\Tools\MSVC\14.27.29110\include\xstring

; 2339 :         assign(_Ptr);

  00756	68 00 00 00 00	 push	 OFFSET ??_C@_09DCAIHJNN@alphadest@
  0075b	8d 4d d8	 lea	 ecx, DWORD PTR $T31[ebp]

; 4293 :         _Mypair._Myval2._Mysize = 0;

  0075e	c7 45 e8 00 00
	00 00		 mov	 DWORD PTR $T31[ebp+16], 0

; 4294 :         _Mypair._Myval2._Myres  = _BUF_SIZE - 1;

  00765	c7 45 ec 0f 00
	00 00		 mov	 DWORD PTR $T31[ebp+20], 15 ; 0000000fH

; 4295 :         // the _Traits::assign is last so the codegen doesn't think the char write can alias this
; 4296 :         _Traits::assign(_Mypair._Myval2._Bx._Buf[0], _Elem());

  0076c	c6 45 d8 00	 mov	 BYTE PTR $T31[ebp], 0

; 2339 :         assign(_Ptr);

  00770	e8 00 00 00 00	 call	 ?assign@?$basic_string@DU?$char_traits@D@std@@V?$allocator@D@2@@std@@QAEAAV12@QBD@Z ; std::basic_string<char,std::char_traits<char>,std::allocator<char> >::assign
; File C:\DS Project\DS Files\Source\ClientSource\Client\GameLib\MapUtil.cpp

; 130  : 		textLoader.GetTokenByte("alphadest", &envData.byFilteringAlphaDest);

  00775	8d 87 51 01 00
	00		 lea	 eax, DWORD PTR [edi+337]
  0077b	c6 45 fc 14	 mov	 BYTE PTR __$EHRec$[ebp+8], 20 ; 00000014H
  0077f	50		 push	 eax
  00780	8d 45 d8	 lea	 eax, DWORD PTR $T31[ebp]
  00783	50		 push	 eax
  00784	8d 8d 40 ff ff
	ff		 lea	 ecx, DWORD PTR _textLoader$[ebp]
  0078a	e8 00 00 00 00	 call	 ?GetTokenByte@CTextFileLoader@@QAEHABV?$basic_string@DU?$char_traits@D@std@@V?$allocator@D@2@@std@@PAE@Z ; CTextFileLoader::GetTokenByte
; File C:\Program Files (x86)\Microsoft Visual Studio\2019\Community\VC\Tools\MSVC\14.27.29110\include\xstring

; 4301 :         if (_Mypair._Myval2._Large_string_engaged()) {

  0078f	8b 45 ec	 mov	 eax, DWORD PTR $T31[ebp+20]
; File C:\DS Project\DS Files\Source\ClientSource\Client\GameLib\MapUtil.cpp

; 130  : 		textLoader.GetTokenByte("alphadest", &envData.byFilteringAlphaDest);

  00792	c6 45 fc 00	 mov	 BYTE PTR __$EHRec$[ebp+8], 0
; File C:\Program Files (x86)\Microsoft Visual Studio\2019\Community\VC\Tools\MSVC\14.27.29110\include\xstring

; 4301 :         if (_Mypair._Myval2._Large_string_engaged()) {

  00796	83 f8 10	 cmp	 eax, 16			; 00000010H
  00799	72 0d		 jb	 SHORT $LN419@Environmen

; 4302 :             const pointer _Ptr = _Mypair._Myval2._Bx._Ptr;
; 4303 :             auto& _Al          = _Getal();
; 4304 :             _Destroy_in_place(_Mypair._Myval2._Bx._Ptr);
; 4305 :             _Al.deallocate(_Ptr, _Mypair._Myval2._Myres + 1);

  0079b	40		 inc	 eax
; File C:\Program Files (x86)\Microsoft Visual Studio\2019\Community\VC\Tools\MSVC\14.27.29110\include\xmemory

; 803  :         _Deallocate<_New_alignof<_Ty>>(_Ptr, sizeof(_Ty) * _Count);

  0079c	50		 push	 eax
  0079d	ff 75 d8	 push	 DWORD PTR $T31[ebp]
  007a0	e8 00 00 00 00	 call	 ??$_Deallocate@$07$0A@@std@@YAXPAXI@Z ; std::_Deallocate<8,0>
  007a5	83 c4 08	 add	 esp, 8
$LN419@Environmen:
; File C:\DS Project\DS Files\Source\ClientSource\Client\GameLib\MapUtil.cpp

; 131  : 		textLoader.SetParentNode();

  007a8	8d 8d 40 ff ff
	ff		 lea	 ecx, DWORD PTR _textLoader$[ebp]
  007ae	e8 00 00 00 00	 call	 ?SetParentNode@CTextFileLoader@@QAEHXZ ; CTextFileLoader::SetParentNode
$LN11@Environmen:

; 132  : 	}
; 133  : 
; 134  : 	if (textLoader.SetChildNode("skybox"))

  007b3	68 00 00 00 00	 push	 OFFSET ??_C@_06BMKANHHL@skybox@
  007b8	8d 8d 40 ff ff
	ff		 lea	 ecx, DWORD PTR _textLoader$[ebp]
  007be	e8 00 00 00 00	 call	 ?SetChildNode@CTextFileLoader@@QAEHPBD@Z ; CTextFileLoader::SetChildNode
  007c3	85 c0		 test	 eax, eax
  007c5	0f 84 50 0a 00
	00		 je	 $LN12@Environmen
; File C:\Program Files (x86)\Microsoft Visual Studio\2019\Community\VC\Tools\MSVC\14.27.29110\include\xstring

; 2339 :         assign(_Ptr);

  007cb	68 00 00 00 00	 push	 OFFSET ??_C@_0BD@MANDHJLJ@btexturerendermode@
  007d0	8d 4d d8	 lea	 ecx, DWORD PTR $T30[ebp]

; 4293 :         _Mypair._Myval2._Mysize = 0;

  007d3	c7 45 e8 00 00
	00 00		 mov	 DWORD PTR $T30[ebp+16], 0

; 4294 :         _Mypair._Myval2._Myres  = _BUF_SIZE - 1;

  007da	c7 45 ec 0f 00
	00 00		 mov	 DWORD PTR $T30[ebp+20], 15 ; 0000000fH

; 4295 :         // the _Traits::assign is last so the codegen doesn't think the char write can alias this
; 4296 :         _Traits::assign(_Mypair._Myval2._Bx._Buf[0], _Elem());

  007e1	c6 45 d8 00	 mov	 BYTE PTR $T30[ebp], 0

; 2339 :         assign(_Ptr);

  007e5	e8 00 00 00 00	 call	 ?assign@?$basic_string@DU?$char_traits@D@std@@V?$allocator@D@2@@std@@QAEAAV12@QBD@Z ; std::basic_string<char,std::char_traits<char>,std::allocator<char> >::assign
; File C:\DS Project\DS Files\Source\ClientSource\Client\GameLib\MapUtil.cpp

; 136  : 		textLoader.GetTokenBoolean("btexturerendermode", (BOOL *) &envData.bSkyBoxTextureRenderMode);

  007ea	8d 87 68 01 00
	00		 lea	 eax, DWORD PTR [edi+360]
  007f0	c6 45 fc 15	 mov	 BYTE PTR __$EHRec$[ebp+8], 21 ; 00000015H
  007f4	50		 push	 eax
  007f5	8d 45 d8	 lea	 eax, DWORD PTR $T30[ebp]
  007f8	50		 push	 eax
  007f9	8d 8d 40 ff ff
	ff		 lea	 ecx, DWORD PTR _textLoader$[ebp]
  007ff	e8 00 00 00 00	 call	 ?GetTokenBoolean@CTextFileLoader@@QAEHABV?$basic_string@DU?$char_traits@D@std@@V?$allocator@D@2@@std@@PAH@Z ; CTextFileLoader::GetTokenBoolean
; File C:\Program Files (x86)\Microsoft Visual Studio\2019\Community\VC\Tools\MSVC\14.27.29110\include\xstring

; 4301 :         if (_Mypair._Myval2._Large_string_engaged()) {

  00804	8b 45 ec	 mov	 eax, DWORD PTR $T30[ebp+20]
; File C:\DS Project\DS Files\Source\ClientSource\Client\GameLib\MapUtil.cpp

; 136  : 		textLoader.GetTokenBoolean("btexturerendermode", (BOOL *) &envData.bSkyBoxTextureRenderMode);

  00807	c6 45 fc 00	 mov	 BYTE PTR __$EHRec$[ebp+8], 0
; File C:\Program Files (x86)\Microsoft Visual Studio\2019\Community\VC\Tools\MSVC\14.27.29110\include\xstring

; 4301 :         if (_Mypair._Myval2._Large_string_engaged()) {

  0080b	83 f8 10	 cmp	 eax, 16			; 00000010H
  0080e	72 0d		 jb	 SHORT $LN437@Environmen

; 4302 :             const pointer _Ptr = _Mypair._Myval2._Bx._Ptr;
; 4303 :             auto& _Al          = _Getal();
; 4304 :             _Destroy_in_place(_Mypair._Myval2._Bx._Ptr);
; 4305 :             _Al.deallocate(_Ptr, _Mypair._Myval2._Myres + 1);

  00810	40		 inc	 eax
; File C:\Program Files (x86)\Microsoft Visual Studio\2019\Community\VC\Tools\MSVC\14.27.29110\include\xmemory

; 803  :         _Deallocate<_New_alignof<_Ty>>(_Ptr, sizeof(_Ty) * _Count);

  00811	50		 push	 eax
  00812	ff 75 d8	 push	 DWORD PTR $T30[ebp]
  00815	e8 00 00 00 00	 call	 ??$_Deallocate@$07$0A@@std@@YAXPAXI@Z ; std::_Deallocate<8,0>
  0081a	83 c4 08	 add	 esp, 8
$LN437@Environmen:
; File C:\Program Files (x86)\Microsoft Visual Studio\2019\Community\VC\Tools\MSVC\14.27.29110\include\xstring

; 2339 :         assign(_Ptr);

  0081d	68 00 00 00 00	 push	 OFFSET ??_C@_05MHMEBBGO@scale@
  00822	8d 4d d8	 lea	 ecx, DWORD PTR $T29[ebp]

; 4293 :         _Mypair._Myval2._Mysize = 0;

  00825	c7 45 e8 00 00
	00 00		 mov	 DWORD PTR $T29[ebp+16], 0

; 4294 :         _Mypair._Myval2._Myres  = _BUF_SIZE - 1;

  0082c	c7 45 ec 0f 00
	00 00		 mov	 DWORD PTR $T29[ebp+20], 15 ; 0000000fH

; 4295 :         // the _Traits::assign is last so the codegen doesn't think the char write can alias this
; 4296 :         _Traits::assign(_Mypair._Myval2._Bx._Buf[0], _Elem());

  00833	c6 45 d8 00	 mov	 BYTE PTR $T29[ebp], 0

; 2339 :         assign(_Ptr);

  00837	e8 00 00 00 00	 call	 ?assign@?$basic_string@DU?$char_traits@D@std@@V?$allocator@D@2@@std@@QAEAAV12@QBD@Z ; std::basic_string<char,std::char_traits<char>,std::allocator<char> >::assign
; File C:\DS Project\DS Files\Source\ClientSource\Client\GameLib\MapUtil.cpp

; 137  : 		textLoader.GetTokenVector3("scale", &envData.v3SkyBoxScale);

  0083c	8d 87 5c 01 00
	00		 lea	 eax, DWORD PTR [edi+348]
  00842	c6 45 fc 16	 mov	 BYTE PTR __$EHRec$[ebp+8], 22 ; 00000016H
  00846	50		 push	 eax
  00847	8d 45 d8	 lea	 eax, DWORD PTR $T29[ebp]
  0084a	50		 push	 eax
  0084b	8d 8d 40 ff ff
	ff		 lea	 ecx, DWORD PTR _textLoader$[ebp]
  00851	e8 00 00 00 00	 call	 ?GetTokenVector3@CTextFileLoader@@QAEHABV?$basic_string@DU?$char_traits@D@std@@V?$allocator@D@2@@std@@PAUD3DXVECTOR3@@@Z ; CTextFileLoader::GetTokenVector3
; File C:\Program Files (x86)\Microsoft Visual Studio\2019\Community\VC\Tools\MSVC\14.27.29110\include\xstring

; 4301 :         if (_Mypair._Myval2._Large_string_engaged()) {

  00856	8b 45 ec	 mov	 eax, DWORD PTR $T29[ebp+20]
; File C:\DS Project\DS Files\Source\ClientSource\Client\GameLib\MapUtil.cpp

; 137  : 		textLoader.GetTokenVector3("scale", &envData.v3SkyBoxScale);

  00859	c6 45 fc 00	 mov	 BYTE PTR __$EHRec$[ebp+8], 0
; File C:\Program Files (x86)\Microsoft Visual Studio\2019\Community\VC\Tools\MSVC\14.27.29110\include\xstring

; 4301 :         if (_Mypair._Myval2._Large_string_engaged()) {

  0085d	83 f8 10	 cmp	 eax, 16			; 00000010H
  00860	72 0d		 jb	 SHORT $LN455@Environmen

; 4302 :             const pointer _Ptr = _Mypair._Myval2._Bx._Ptr;
; 4303 :             auto& _Al          = _Getal();
; 4304 :             _Destroy_in_place(_Mypair._Myval2._Bx._Ptr);
; 4305 :             _Al.deallocate(_Ptr, _Mypair._Myval2._Myres + 1);

  00862	40		 inc	 eax
; File C:\Program Files (x86)\Microsoft Visual Studio\2019\Community\VC\Tools\MSVC\14.27.29110\include\xmemory

; 803  :         _Deallocate<_New_alignof<_Ty>>(_Ptr, sizeof(_Ty) * _Count);

  00863	50		 push	 eax
  00864	ff 75 d8	 push	 DWORD PTR $T29[ebp]
  00867	e8 00 00 00 00	 call	 ??$_Deallocate@$07$0A@@std@@YAXPAXI@Z ; std::_Deallocate<8,0>
  0086c	83 c4 08	 add	 esp, 8
$LN455@Environmen:
; File C:\Program Files (x86)\Microsoft Visual Studio\2019\Community\VC\Tools\MSVC\14.27.29110\include\xstring

; 2339 :         assign(_Ptr);

  0086f	68 00 00 00 00	 push	 OFFSET ??_C@_0BD@JOBCGNII@gradientlevelupper@
  00874	8d 4d d8	 lea	 ecx, DWORD PTR $T28[ebp]

; 4293 :         _Mypair._Myval2._Mysize = 0;

  00877	c7 45 e8 00 00
	00 00		 mov	 DWORD PTR $T28[ebp+16], 0

; 4294 :         _Mypair._Myval2._Myres  = _BUF_SIZE - 1;

  0087e	c7 45 ec 0f 00
	00 00		 mov	 DWORD PTR $T28[ebp+20], 15 ; 0000000fH

; 4295 :         // the _Traits::assign is last so the codegen doesn't think the char write can alias this
; 4296 :         _Traits::assign(_Mypair._Myval2._Bx._Buf[0], _Elem());

  00885	c6 45 d8 00	 mov	 BYTE PTR $T28[ebp], 0

; 2339 :         assign(_Ptr);

  00889	e8 00 00 00 00	 call	 ?assign@?$basic_string@DU?$char_traits@D@std@@V?$allocator@D@2@@std@@QAEAAV12@QBD@Z ; std::basic_string<char,std::char_traits<char>,std::allocator<char> >::assign
; File C:\DS Project\DS Files\Source\ClientSource\Client\GameLib\MapUtil.cpp

; 138  : 		textLoader.GetTokenByte("gradientlevelupper", &envData.bySkyBoxGradientLevelUpper);

  0088e	8d 87 6c 01 00
	00		 lea	 eax, DWORD PTR [edi+364]
  00894	c6 45 fc 17	 mov	 BYTE PTR __$EHRec$[ebp+8], 23 ; 00000017H
  00898	50		 push	 eax
  00899	8d 45 d8	 lea	 eax, DWORD PTR $T28[ebp]
  0089c	50		 push	 eax
  0089d	8d 8d 40 ff ff
	ff		 lea	 ecx, DWORD PTR _textLoader$[ebp]
  008a3	e8 00 00 00 00	 call	 ?GetTokenByte@CTextFileLoader@@QAEHABV?$basic_string@DU?$char_traits@D@std@@V?$allocator@D@2@@std@@PAE@Z ; CTextFileLoader::GetTokenByte
; File C:\Program Files (x86)\Microsoft Visual Studio\2019\Community\VC\Tools\MSVC\14.27.29110\include\xstring

; 4301 :         if (_Mypair._Myval2._Large_string_engaged()) {

  008a8	8b 45 ec	 mov	 eax, DWORD PTR $T28[ebp+20]
; File C:\DS Project\DS Files\Source\ClientSource\Client\GameLib\MapUtil.cpp

; 138  : 		textLoader.GetTokenByte("gradientlevelupper", &envData.bySkyBoxGradientLevelUpper);

  008ab	c6 45 fc 00	 mov	 BYTE PTR __$EHRec$[ebp+8], 0
; File C:\Program Files (x86)\Microsoft Visual Studio\2019\Community\VC\Tools\MSVC\14.27.29110\include\xstring

; 4301 :         if (_Mypair._Myval2._Large_string_engaged()) {

  008af	83 f8 10	 cmp	 eax, 16			; 00000010H
  008b2	72 0d		 jb	 SHORT $LN473@Environmen

; 4302 :             const pointer _Ptr = _Mypair._Myval2._Bx._Ptr;
; 4303 :             auto& _Al          = _Getal();
; 4304 :             _Destroy_in_place(_Mypair._Myval2._Bx._Ptr);
; 4305 :             _Al.deallocate(_Ptr, _Mypair._Myval2._Myres + 1);

  008b4	40		 inc	 eax
; File C:\Program Files (x86)\Microsoft Visual Studio\2019\Community\VC\Tools\MSVC\14.27.29110\include\xmemory

; 803  :         _Deallocate<_New_alignof<_Ty>>(_Ptr, sizeof(_Ty) * _Count);

  008b5	50		 push	 eax
  008b6	ff 75 d8	 push	 DWORD PTR $T28[ebp]
  008b9	e8 00 00 00 00	 call	 ??$_Deallocate@$07$0A@@std@@YAXPAXI@Z ; std::_Deallocate<8,0>
  008be	83 c4 08	 add	 esp, 8
$LN473@Environmen:
; File C:\Program Files (x86)\Microsoft Visual Studio\2019\Community\VC\Tools\MSVC\14.27.29110\include\xstring

; 2339 :         assign(_Ptr);

  008c1	68 00 00 00 00	 push	 OFFSET ??_C@_0BD@MFKMAGDB@gradientlevellower@
  008c6	8d 4d d8	 lea	 ecx, DWORD PTR $T27[ebp]

; 4293 :         _Mypair._Myval2._Mysize = 0;

  008c9	c7 45 e8 00 00
	00 00		 mov	 DWORD PTR $T27[ebp+16], 0

; 4294 :         _Mypair._Myval2._Myres  = _BUF_SIZE - 1;

  008d0	c7 45 ec 0f 00
	00 00		 mov	 DWORD PTR $T27[ebp+20], 15 ; 0000000fH

; 4295 :         // the _Traits::assign is last so the codegen doesn't think the char write can alias this
; 4296 :         _Traits::assign(_Mypair._Myval2._Bx._Buf[0], _Elem());

  008d7	c6 45 d8 00	 mov	 BYTE PTR $T27[ebp], 0

; 2339 :         assign(_Ptr);

  008db	e8 00 00 00 00	 call	 ?assign@?$basic_string@DU?$char_traits@D@std@@V?$allocator@D@2@@std@@QAEAAV12@QBD@Z ; std::basic_string<char,std::char_traits<char>,std::allocator<char> >::assign
; File C:\DS Project\DS Files\Source\ClientSource\Client\GameLib\MapUtil.cpp

; 139  : 		textLoader.GetTokenByte("gradientlevellower", &envData.bySkyBoxGradientLevelLower);

  008e0	8d 9f 6d 01 00
	00		 lea	 ebx, DWORD PTR [edi+365]
  008e6	c6 45 fc 18	 mov	 BYTE PTR __$EHRec$[ebp+8], 24 ; 00000018H
  008ea	53		 push	 ebx
  008eb	8d 45 d8	 lea	 eax, DWORD PTR $T27[ebp]
  008ee	50		 push	 eax
  008ef	8d 8d 40 ff ff
	ff		 lea	 ecx, DWORD PTR _textLoader$[ebp]
  008f5	e8 00 00 00 00	 call	 ?GetTokenByte@CTextFileLoader@@QAEHABV?$basic_string@DU?$char_traits@D@std@@V?$allocator@D@2@@std@@PAE@Z ; CTextFileLoader::GetTokenByte
; File C:\Program Files (x86)\Microsoft Visual Studio\2019\Community\VC\Tools\MSVC\14.27.29110\include\xstring

; 4301 :         if (_Mypair._Myval2._Large_string_engaged()) {

  008fa	8b 45 ec	 mov	 eax, DWORD PTR $T27[ebp+20]
; File C:\DS Project\DS Files\Source\ClientSource\Client\GameLib\MapUtil.cpp

; 139  : 		textLoader.GetTokenByte("gradientlevellower", &envData.bySkyBoxGradientLevelLower);

  008fd	c6 45 fc 00	 mov	 BYTE PTR __$EHRec$[ebp+8], 0
; File C:\Program Files (x86)\Microsoft Visual Studio\2019\Community\VC\Tools\MSVC\14.27.29110\include\xstring

; 4301 :         if (_Mypair._Myval2._Large_string_engaged()) {

  00901	83 f8 10	 cmp	 eax, 16			; 00000010H
  00904	72 0d		 jb	 SHORT $LN491@Environmen

; 4302 :             const pointer _Ptr = _Mypair._Myval2._Bx._Ptr;
; 4303 :             auto& _Al          = _Getal();
; 4304 :             _Destroy_in_place(_Mypair._Myval2._Bx._Ptr);
; 4305 :             _Al.deallocate(_Ptr, _Mypair._Myval2._Myres + 1);

  00906	40		 inc	 eax
; File C:\Program Files (x86)\Microsoft Visual Studio\2019\Community\VC\Tools\MSVC\14.27.29110\include\xmemory

; 803  :         _Deallocate<_New_alignof<_Ty>>(_Ptr, sizeof(_Ty) * _Count);

  00907	50		 push	 eax
  00908	ff 75 d8	 push	 DWORD PTR $T27[ebp]
  0090b	e8 00 00 00 00	 call	 ??$_Deallocate@$07$0A@@std@@YAXPAXI@Z ; std::_Deallocate<8,0>
  00910	83 c4 08	 add	 esp, 8
$LN491@Environmen:
; File C:\Program Files (x86)\Microsoft Visual Studio\2019\Community\VC\Tools\MSVC\14.27.29110\include\xstring

; 2339 :         assign(_Ptr);

  00913	68 00 00 00 00	 push	 OFFSET ??_C@_0BC@MAAIOOFC@frontfacefilename@
  00918	8d 4d d8	 lea	 ecx, DWORD PTR $T26[ebp]

; 4293 :         _Mypair._Myval2._Mysize = 0;

  0091b	c7 45 e8 00 00
	00 00		 mov	 DWORD PTR $T26[ebp+16], 0

; 4294 :         _Mypair._Myval2._Myres  = _BUF_SIZE - 1;

  00922	c7 45 ec 0f 00
	00 00		 mov	 DWORD PTR $T26[ebp+20], 15 ; 0000000fH

; 4295 :         // the _Traits::assign is last so the codegen doesn't think the char write can alias this
; 4296 :         _Traits::assign(_Mypair._Myval2._Bx._Buf[0], _Elem());

  00929	c6 45 d8 00	 mov	 BYTE PTR $T26[ebp], 0

; 2339 :         assign(_Ptr);

  0092d	e8 00 00 00 00	 call	 ?assign@?$basic_string@DU?$char_traits@D@std@@V?$allocator@D@2@@std@@QAEAAV12@QBD@Z ; std::basic_string<char,std::char_traits<char>,std::allocator<char> >::assign
; File C:\DS Project\DS Files\Source\ClientSource\Client\GameLib\MapUtil.cpp

; 141  : 		textLoader.GetTokenString("frontfacefilename", &envData.strSkyBoxFaceFileName[0]);

  00932	8d 87 70 01 00
	00		 lea	 eax, DWORD PTR [edi+368]
  00938	c6 45 fc 19	 mov	 BYTE PTR __$EHRec$[ebp+8], 25 ; 00000019H
  0093c	50		 push	 eax
  0093d	8d 45 d8	 lea	 eax, DWORD PTR $T26[ebp]
  00940	50		 push	 eax
  00941	8d 8d 40 ff ff
	ff		 lea	 ecx, DWORD PTR _textLoader$[ebp]
  00947	e8 00 00 00 00	 call	 ?GetTokenString@CTextFileLoader@@QAEHABV?$basic_string@DU?$char_traits@D@std@@V?$allocator@D@2@@std@@PAV23@@Z ; CTextFileLoader::GetTokenString
; File C:\Program Files (x86)\Microsoft Visual Studio\2019\Community\VC\Tools\MSVC\14.27.29110\include\xstring

; 4301 :         if (_Mypair._Myval2._Large_string_engaged()) {

  0094c	8b 45 ec	 mov	 eax, DWORD PTR $T26[ebp+20]
; File C:\DS Project\DS Files\Source\ClientSource\Client\GameLib\MapUtil.cpp

; 141  : 		textLoader.GetTokenString("frontfacefilename", &envData.strSkyBoxFaceFileName[0]);

  0094f	c6 45 fc 00	 mov	 BYTE PTR __$EHRec$[ebp+8], 0
; File C:\Program Files (x86)\Microsoft Visual Studio\2019\Community\VC\Tools\MSVC\14.27.29110\include\xstring

; 4301 :         if (_Mypair._Myval2._Large_string_engaged()) {

  00953	83 f8 10	 cmp	 eax, 16			; 00000010H
  00956	72 0d		 jb	 SHORT $LN509@Environmen

; 4302 :             const pointer _Ptr = _Mypair._Myval2._Bx._Ptr;
; 4303 :             auto& _Al          = _Getal();
; 4304 :             _Destroy_in_place(_Mypair._Myval2._Bx._Ptr);
; 4305 :             _Al.deallocate(_Ptr, _Mypair._Myval2._Myres + 1);

  00958	40		 inc	 eax
; File C:\Program Files (x86)\Microsoft Visual Studio\2019\Community\VC\Tools\MSVC\14.27.29110\include\xmemory

; 803  :         _Deallocate<_New_alignof<_Ty>>(_Ptr, sizeof(_Ty) * _Count);

  00959	50		 push	 eax
  0095a	ff 75 d8	 push	 DWORD PTR $T26[ebp]
  0095d	e8 00 00 00 00	 call	 ??$_Deallocate@$07$0A@@std@@YAXPAXI@Z ; std::_Deallocate<8,0>
  00962	83 c4 08	 add	 esp, 8
$LN509@Environmen:
; File C:\Program Files (x86)\Microsoft Visual Studio\2019\Community\VC\Tools\MSVC\14.27.29110\include\xstring

; 2339 :         assign(_Ptr);

  00965	68 00 00 00 00	 push	 OFFSET ??_C@_0BB@HMLADBDH@backfacefilename@
  0096a	8d 4d d8	 lea	 ecx, DWORD PTR $T25[ebp]

; 4293 :         _Mypair._Myval2._Mysize = 0;

  0096d	c7 45 e8 00 00
	00 00		 mov	 DWORD PTR $T25[ebp+16], 0

; 4294 :         _Mypair._Myval2._Myres  = _BUF_SIZE - 1;

  00974	c7 45 ec 0f 00
	00 00		 mov	 DWORD PTR $T25[ebp+20], 15 ; 0000000fH

; 4295 :         // the _Traits::assign is last so the codegen doesn't think the char write can alias this
; 4296 :         _Traits::assign(_Mypair._Myval2._Bx._Buf[0], _Elem());

  0097b	c6 45 d8 00	 mov	 BYTE PTR $T25[ebp], 0

; 2339 :         assign(_Ptr);

  0097f	e8 00 00 00 00	 call	 ?assign@?$basic_string@DU?$char_traits@D@std@@V?$allocator@D@2@@std@@QAEAAV12@QBD@Z ; std::basic_string<char,std::char_traits<char>,std::allocator<char> >::assign
; File C:\DS Project\DS Files\Source\ClientSource\Client\GameLib\MapUtil.cpp

; 142  : 		textLoader.GetTokenString("backfacefilename", &envData.strSkyBoxFaceFileName[1]);

  00984	8d 87 88 01 00
	00		 lea	 eax, DWORD PTR [edi+392]
  0098a	c6 45 fc 1a	 mov	 BYTE PTR __$EHRec$[ebp+8], 26 ; 0000001aH
  0098e	50		 push	 eax
  0098f	8d 45 d8	 lea	 eax, DWORD PTR $T25[ebp]
  00992	50		 push	 eax
  00993	8d 8d 40 ff ff
	ff		 lea	 ecx, DWORD PTR _textLoader$[ebp]
  00999	e8 00 00 00 00	 call	 ?GetTokenString@CTextFileLoader@@QAEHABV?$basic_string@DU?$char_traits@D@std@@V?$allocator@D@2@@std@@PAV23@@Z ; CTextFileLoader::GetTokenString
; File C:\Program Files (x86)\Microsoft Visual Studio\2019\Community\VC\Tools\MSVC\14.27.29110\include\xstring

; 4301 :         if (_Mypair._Myval2._Large_string_engaged()) {

  0099e	8b 45 ec	 mov	 eax, DWORD PTR $T25[ebp+20]
; File C:\DS Project\DS Files\Source\ClientSource\Client\GameLib\MapUtil.cpp

; 142  : 		textLoader.GetTokenString("backfacefilename", &envData.strSkyBoxFaceFileName[1]);

  009a1	c6 45 fc 00	 mov	 BYTE PTR __$EHRec$[ebp+8], 0
; File C:\Program Files (x86)\Microsoft Visual Studio\2019\Community\VC\Tools\MSVC\14.27.29110\include\xstring

; 4301 :         if (_Mypair._Myval2._Large_string_engaged()) {

  009a5	83 f8 10	 cmp	 eax, 16			; 00000010H
  009a8	72 0d		 jb	 SHORT $LN527@Environmen

; 4302 :             const pointer _Ptr = _Mypair._Myval2._Bx._Ptr;
; 4303 :             auto& _Al          = _Getal();
; 4304 :             _Destroy_in_place(_Mypair._Myval2._Bx._Ptr);
; 4305 :             _Al.deallocate(_Ptr, _Mypair._Myval2._Myres + 1);

  009aa	40		 inc	 eax
; File C:\Program Files (x86)\Microsoft Visual Studio\2019\Community\VC\Tools\MSVC\14.27.29110\include\xmemory

; 803  :         _Deallocate<_New_alignof<_Ty>>(_Ptr, sizeof(_Ty) * _Count);

  009ab	50		 push	 eax
  009ac	ff 75 d8	 push	 DWORD PTR $T25[ebp]
  009af	e8 00 00 00 00	 call	 ??$_Deallocate@$07$0A@@std@@YAXPAXI@Z ; std::_Deallocate<8,0>
  009b4	83 c4 08	 add	 esp, 8
$LN527@Environmen:
; File C:\Program Files (x86)\Microsoft Visual Studio\2019\Community\VC\Tools\MSVC\14.27.29110\include\xstring

; 2339 :         assign(_Ptr);

  009b7	68 00 00 00 00	 push	 OFFSET ??_C@_0BB@OKAELDDH@leftfacefilename@
  009bc	8d 4d d8	 lea	 ecx, DWORD PTR $T24[ebp]

; 4293 :         _Mypair._Myval2._Mysize = 0;

  009bf	c7 45 e8 00 00
	00 00		 mov	 DWORD PTR $T24[ebp+16], 0

; 4294 :         _Mypair._Myval2._Myres  = _BUF_SIZE - 1;

  009c6	c7 45 ec 0f 00
	00 00		 mov	 DWORD PTR $T24[ebp+20], 15 ; 0000000fH

; 4295 :         // the _Traits::assign is last so the codegen doesn't think the char write can alias this
; 4296 :         _Traits::assign(_Mypair._Myval2._Bx._Buf[0], _Elem());

  009cd	c6 45 d8 00	 mov	 BYTE PTR $T24[ebp], 0

; 2339 :         assign(_Ptr);

  009d1	e8 00 00 00 00	 call	 ?assign@?$basic_string@DU?$char_traits@D@std@@V?$allocator@D@2@@std@@QAEAAV12@QBD@Z ; std::basic_string<char,std::char_traits<char>,std::allocator<char> >::assign
; File C:\DS Project\DS Files\Source\ClientSource\Client\GameLib\MapUtil.cpp

; 143  : 		textLoader.GetTokenString("leftfacefilename", &envData.strSkyBoxFaceFileName[2]);

  009d6	8d 87 a0 01 00
	00		 lea	 eax, DWORD PTR [edi+416]
  009dc	c6 45 fc 1b	 mov	 BYTE PTR __$EHRec$[ebp+8], 27 ; 0000001bH
  009e0	50		 push	 eax
  009e1	8d 45 d8	 lea	 eax, DWORD PTR $T24[ebp]
  009e4	50		 push	 eax
  009e5	8d 8d 40 ff ff
	ff		 lea	 ecx, DWORD PTR _textLoader$[ebp]
  009eb	e8 00 00 00 00	 call	 ?GetTokenString@CTextFileLoader@@QAEHABV?$basic_string@DU?$char_traits@D@std@@V?$allocator@D@2@@std@@PAV23@@Z ; CTextFileLoader::GetTokenString
; File C:\Program Files (x86)\Microsoft Visual Studio\2019\Community\VC\Tools\MSVC\14.27.29110\include\xstring

; 4301 :         if (_Mypair._Myval2._Large_string_engaged()) {

  009f0	8b 45 ec	 mov	 eax, DWORD PTR $T24[ebp+20]
; File C:\DS Project\DS Files\Source\ClientSource\Client\GameLib\MapUtil.cpp

; 143  : 		textLoader.GetTokenString("leftfacefilename", &envData.strSkyBoxFaceFileName[2]);

  009f3	c6 45 fc 00	 mov	 BYTE PTR __$EHRec$[ebp+8], 0
; File C:\Program Files (x86)\Microsoft Visual Studio\2019\Community\VC\Tools\MSVC\14.27.29110\include\xstring

; 4301 :         if (_Mypair._Myval2._Large_string_engaged()) {

  009f7	83 f8 10	 cmp	 eax, 16			; 00000010H
  009fa	72 0d		 jb	 SHORT $LN545@Environmen

; 4302 :             const pointer _Ptr = _Mypair._Myval2._Bx._Ptr;
; 4303 :             auto& _Al          = _Getal();
; 4304 :             _Destroy_in_place(_Mypair._Myval2._Bx._Ptr);
; 4305 :             _Al.deallocate(_Ptr, _Mypair._Myval2._Myres + 1);

  009fc	40		 inc	 eax
; File C:\Program Files (x86)\Microsoft Visual Studio\2019\Community\VC\Tools\MSVC\14.27.29110\include\xmemory

; 803  :         _Deallocate<_New_alignof<_Ty>>(_Ptr, sizeof(_Ty) * _Count);

  009fd	50		 push	 eax
  009fe	ff 75 d8	 push	 DWORD PTR $T24[ebp]
  00a01	e8 00 00 00 00	 call	 ??$_Deallocate@$07$0A@@std@@YAXPAXI@Z ; std::_Deallocate<8,0>
  00a06	83 c4 08	 add	 esp, 8
$LN545@Environmen:
; File C:\Program Files (x86)\Microsoft Visual Studio\2019\Community\VC\Tools\MSVC\14.27.29110\include\xstring

; 2339 :         assign(_Ptr);

  00a09	68 00 00 00 00	 push	 OFFSET ??_C@_0BC@BGDBKDJG@rightfacefilename@
  00a0e	8d 4d d8	 lea	 ecx, DWORD PTR $T23[ebp]

; 4293 :         _Mypair._Myval2._Mysize = 0;

  00a11	c7 45 e8 00 00
	00 00		 mov	 DWORD PTR $T23[ebp+16], 0

; 4294 :         _Mypair._Myval2._Myres  = _BUF_SIZE - 1;

  00a18	c7 45 ec 0f 00
	00 00		 mov	 DWORD PTR $T23[ebp+20], 15 ; 0000000fH

; 4295 :         // the _Traits::assign is last so the codegen doesn't think the char write can alias this
; 4296 :         _Traits::assign(_Mypair._Myval2._Bx._Buf[0], _Elem());

  00a1f	c6 45 d8 00	 mov	 BYTE PTR $T23[ebp], 0

; 2339 :         assign(_Ptr);

  00a23	e8 00 00 00 00	 call	 ?assign@?$basic_string@DU?$char_traits@D@std@@V?$allocator@D@2@@std@@QAEAAV12@QBD@Z ; std::basic_string<char,std::char_traits<char>,std::allocator<char> >::assign
; File C:\DS Project\DS Files\Source\ClientSource\Client\GameLib\MapUtil.cpp

; 144  : 		textLoader.GetTokenString("rightfacefilename", &envData.strSkyBoxFaceFileName[3]);

  00a28	8d 87 b8 01 00
	00		 lea	 eax, DWORD PTR [edi+440]
  00a2e	c6 45 fc 1c	 mov	 BYTE PTR __$EHRec$[ebp+8], 28 ; 0000001cH
  00a32	50		 push	 eax
  00a33	8d 45 d8	 lea	 eax, DWORD PTR $T23[ebp]
  00a36	50		 push	 eax
  00a37	8d 8d 40 ff ff
	ff		 lea	 ecx, DWORD PTR _textLoader$[ebp]
  00a3d	e8 00 00 00 00	 call	 ?GetTokenString@CTextFileLoader@@QAEHABV?$basic_string@DU?$char_traits@D@std@@V?$allocator@D@2@@std@@PAV23@@Z ; CTextFileLoader::GetTokenString
; File C:\Program Files (x86)\Microsoft Visual Studio\2019\Community\VC\Tools\MSVC\14.27.29110\include\xstring

; 4301 :         if (_Mypair._Myval2._Large_string_engaged()) {

  00a42	8b 45 ec	 mov	 eax, DWORD PTR $T23[ebp+20]
; File C:\DS Project\DS Files\Source\ClientSource\Client\GameLib\MapUtil.cpp

; 144  : 		textLoader.GetTokenString("rightfacefilename", &envData.strSkyBoxFaceFileName[3]);

  00a45	c6 45 fc 00	 mov	 BYTE PTR __$EHRec$[ebp+8], 0
; File C:\Program Files (x86)\Microsoft Visual Studio\2019\Community\VC\Tools\MSVC\14.27.29110\include\xstring

; 4301 :         if (_Mypair._Myval2._Large_string_engaged()) {

  00a49	83 f8 10	 cmp	 eax, 16			; 00000010H
  00a4c	72 0d		 jb	 SHORT $LN563@Environmen

; 4302 :             const pointer _Ptr = _Mypair._Myval2._Bx._Ptr;
; 4303 :             auto& _Al          = _Getal();
; 4304 :             _Destroy_in_place(_Mypair._Myval2._Bx._Ptr);
; 4305 :             _Al.deallocate(_Ptr, _Mypair._Myval2._Myres + 1);

  00a4e	40		 inc	 eax
; File C:\Program Files (x86)\Microsoft Visual Studio\2019\Community\VC\Tools\MSVC\14.27.29110\include\xmemory

; 803  :         _Deallocate<_New_alignof<_Ty>>(_Ptr, sizeof(_Ty) * _Count);

  00a4f	50		 push	 eax
  00a50	ff 75 d8	 push	 DWORD PTR $T23[ebp]
  00a53	e8 00 00 00 00	 call	 ??$_Deallocate@$07$0A@@std@@YAXPAXI@Z ; std::_Deallocate<8,0>
  00a58	83 c4 08	 add	 esp, 8
$LN563@Environmen:
; File C:\Program Files (x86)\Microsoft Visual Studio\2019\Community\VC\Tools\MSVC\14.27.29110\include\xstring

; 2339 :         assign(_Ptr);

  00a5b	68 00 00 00 00	 push	 OFFSET ??_C@_0BA@ODMABPL@topfacefilename@
  00a60	8d 4d d8	 lea	 ecx, DWORD PTR $T22[ebp]

; 4293 :         _Mypair._Myval2._Mysize = 0;

  00a63	c7 45 e8 00 00
	00 00		 mov	 DWORD PTR $T22[ebp+16], 0

; 4294 :         _Mypair._Myval2._Myres  = _BUF_SIZE - 1;

  00a6a	c7 45 ec 0f 00
	00 00		 mov	 DWORD PTR $T22[ebp+20], 15 ; 0000000fH

; 4295 :         // the _Traits::assign is last so the codegen doesn't think the char write can alias this
; 4296 :         _Traits::assign(_Mypair._Myval2._Bx._Buf[0], _Elem());

  00a71	c6 45 d8 00	 mov	 BYTE PTR $T22[ebp], 0

; 2339 :         assign(_Ptr);

  00a75	e8 00 00 00 00	 call	 ?assign@?$basic_string@DU?$char_traits@D@std@@V?$allocator@D@2@@std@@QAEAAV12@QBD@Z ; std::basic_string<char,std::char_traits<char>,std::allocator<char> >::assign
; File C:\DS Project\DS Files\Source\ClientSource\Client\GameLib\MapUtil.cpp

; 145  : 		textLoader.GetTokenString("topfacefilename", &envData.strSkyBoxFaceFileName[4]);

  00a7a	8d 87 d0 01 00
	00		 lea	 eax, DWORD PTR [edi+464]
  00a80	c6 45 fc 1d	 mov	 BYTE PTR __$EHRec$[ebp+8], 29 ; 0000001dH
  00a84	50		 push	 eax
  00a85	8d 45 d8	 lea	 eax, DWORD PTR $T22[ebp]
  00a88	50		 push	 eax
  00a89	8d 8d 40 ff ff
	ff		 lea	 ecx, DWORD PTR _textLoader$[ebp]
  00a8f	e8 00 00 00 00	 call	 ?GetTokenString@CTextFileLoader@@QAEHABV?$basic_string@DU?$char_traits@D@std@@V?$allocator@D@2@@std@@PAV23@@Z ; CTextFileLoader::GetTokenString
; File C:\Program Files (x86)\Microsoft Visual Studio\2019\Community\VC\Tools\MSVC\14.27.29110\include\xstring

; 4301 :         if (_Mypair._Myval2._Large_string_engaged()) {

  00a94	8b 45 ec	 mov	 eax, DWORD PTR $T22[ebp+20]
; File C:\DS Project\DS Files\Source\ClientSource\Client\GameLib\MapUtil.cpp

; 145  : 		textLoader.GetTokenString("topfacefilename", &envData.strSkyBoxFaceFileName[4]);

  00a97	c6 45 fc 00	 mov	 BYTE PTR __$EHRec$[ebp+8], 0
; File C:\Program Files (x86)\Microsoft Visual Studio\2019\Community\VC\Tools\MSVC\14.27.29110\include\xstring

; 4301 :         if (_Mypair._Myval2._Large_string_engaged()) {

  00a9b	83 f8 10	 cmp	 eax, 16			; 00000010H
  00a9e	72 0d		 jb	 SHORT $LN581@Environmen

; 4302 :             const pointer _Ptr = _Mypair._Myval2._Bx._Ptr;
; 4303 :             auto& _Al          = _Getal();
; 4304 :             _Destroy_in_place(_Mypair._Myval2._Bx._Ptr);
; 4305 :             _Al.deallocate(_Ptr, _Mypair._Myval2._Myres + 1);

  00aa0	40		 inc	 eax
; File C:\Program Files (x86)\Microsoft Visual Studio\2019\Community\VC\Tools\MSVC\14.27.29110\include\xmemory

; 803  :         _Deallocate<_New_alignof<_Ty>>(_Ptr, sizeof(_Ty) * _Count);

  00aa1	50		 push	 eax
  00aa2	ff 75 d8	 push	 DWORD PTR $T22[ebp]
  00aa5	e8 00 00 00 00	 call	 ??$_Deallocate@$07$0A@@std@@YAXPAXI@Z ; std::_Deallocate<8,0>
  00aaa	83 c4 08	 add	 esp, 8
$LN581@Environmen:
; File C:\Program Files (x86)\Microsoft Visual Studio\2019\Community\VC\Tools\MSVC\14.27.29110\include\xstring

; 2339 :         assign(_Ptr);

  00aad	68 00 00 00 00	 push	 OFFSET ??_C@_0BD@PAPHNGLP@bottomfacefilename@
  00ab2	8d 4d d8	 lea	 ecx, DWORD PTR $T21[ebp]

; 4293 :         _Mypair._Myval2._Mysize = 0;

  00ab5	c7 45 e8 00 00
	00 00		 mov	 DWORD PTR $T21[ebp+16], 0

; 4294 :         _Mypair._Myval2._Myres  = _BUF_SIZE - 1;

  00abc	c7 45 ec 0f 00
	00 00		 mov	 DWORD PTR $T21[ebp+20], 15 ; 0000000fH

; 4295 :         // the _Traits::assign is last so the codegen doesn't think the char write can alias this
; 4296 :         _Traits::assign(_Mypair._Myval2._Bx._Buf[0], _Elem());

  00ac3	c6 45 d8 00	 mov	 BYTE PTR $T21[ebp], 0

; 2339 :         assign(_Ptr);

  00ac7	e8 00 00 00 00	 call	 ?assign@?$basic_string@DU?$char_traits@D@std@@V?$allocator@D@2@@std@@QAEAAV12@QBD@Z ; std::basic_string<char,std::char_traits<char>,std::allocator<char> >::assign
; File C:\DS Project\DS Files\Source\ClientSource\Client\GameLib\MapUtil.cpp

; 146  : 		textLoader.GetTokenString("bottomfacefilename", &envData.strSkyBoxFaceFileName[5]);

  00acc	8d 87 e8 01 00
	00		 lea	 eax, DWORD PTR [edi+488]
  00ad2	c6 45 fc 1e	 mov	 BYTE PTR __$EHRec$[ebp+8], 30 ; 0000001eH
  00ad6	50		 push	 eax
  00ad7	8d 45 d8	 lea	 eax, DWORD PTR $T21[ebp]
  00ada	50		 push	 eax
  00adb	8d 8d 40 ff ff
	ff		 lea	 ecx, DWORD PTR _textLoader$[ebp]
  00ae1	e8 00 00 00 00	 call	 ?GetTokenString@CTextFileLoader@@QAEHABV?$basic_string@DU?$char_traits@D@std@@V?$allocator@D@2@@std@@PAV23@@Z ; CTextFileLoader::GetTokenString
; File C:\Program Files (x86)\Microsoft Visual Studio\2019\Community\VC\Tools\MSVC\14.27.29110\include\xstring

; 4301 :         if (_Mypair._Myval2._Large_string_engaged()) {

  00ae6	8b 45 ec	 mov	 eax, DWORD PTR $T21[ebp+20]
; File C:\DS Project\DS Files\Source\ClientSource\Client\GameLib\MapUtil.cpp

; 146  : 		textLoader.GetTokenString("bottomfacefilename", &envData.strSkyBoxFaceFileName[5]);

  00ae9	c6 45 fc 00	 mov	 BYTE PTR __$EHRec$[ebp+8], 0
; File C:\Program Files (x86)\Microsoft Visual Studio\2019\Community\VC\Tools\MSVC\14.27.29110\include\xstring

; 4301 :         if (_Mypair._Myval2._Large_string_engaged()) {

  00aed	83 f8 10	 cmp	 eax, 16			; 00000010H
  00af0	72 0d		 jb	 SHORT $LN599@Environmen

; 4302 :             const pointer _Ptr = _Mypair._Myval2._Bx._Ptr;
; 4303 :             auto& _Al          = _Getal();
; 4304 :             _Destroy_in_place(_Mypair._Myval2._Bx._Ptr);
; 4305 :             _Al.deallocate(_Ptr, _Mypair._Myval2._Myres + 1);

  00af2	40		 inc	 eax
; File C:\Program Files (x86)\Microsoft Visual Studio\2019\Community\VC\Tools\MSVC\14.27.29110\include\xmemory

; 803  :         _Deallocate<_New_alignof<_Ty>>(_Ptr, sizeof(_Ty) * _Count);

  00af3	50		 push	 eax
  00af4	ff 75 d8	 push	 DWORD PTR $T21[ebp]
  00af7	e8 00 00 00 00	 call	 ??$_Deallocate@$07$0A@@std@@YAXPAXI@Z ; std::_Deallocate<8,0>
  00afc	83 c4 08	 add	 esp, 8
$LN599@Environmen:
; File C:\Program Files (x86)\Microsoft Visual Studio\2019\Community\VC\Tools\MSVC\14.27.29110\include\xstring

; 2339 :         assign(_Ptr);

  00aff	68 00 00 00 00	 push	 OFFSET ??_C@_0L@HPPKMJB@cloudscale@
  00b04	8d 4d d8	 lea	 ecx, DWORD PTR $T20[ebp]

; 4293 :         _Mypair._Myval2._Mysize = 0;

  00b07	c7 45 e8 00 00
	00 00		 mov	 DWORD PTR $T20[ebp+16], 0

; 4294 :         _Mypair._Myval2._Myres  = _BUF_SIZE - 1;

  00b0e	c7 45 ec 0f 00
	00 00		 mov	 DWORD PTR $T20[ebp+20], 15 ; 0000000fH

; 4295 :         // the _Traits::assign is last so the codegen doesn't think the char write can alias this
; 4296 :         _Traits::assign(_Mypair._Myval2._Bx._Buf[0], _Elem());

  00b15	c6 45 d8 00	 mov	 BYTE PTR $T20[ebp], 0

; 2339 :         assign(_Ptr);

  00b19	e8 00 00 00 00	 call	 ?assign@?$basic_string@DU?$char_traits@D@std@@V?$allocator@D@2@@std@@QAEAAV12@QBD@Z ; std::basic_string<char,std::char_traits<char>,std::allocator<char> >::assign
; File C:\DS Project\DS Files\Source\ClientSource\Client\GameLib\MapUtil.cpp

; 149  : 		textLoader.GetTokenVector2("cloudscale", &envData.v2CloudScale);

  00b1e	8d 87 00 02 00
	00		 lea	 eax, DWORD PTR [edi+512]
  00b24	c6 45 fc 1f	 mov	 BYTE PTR __$EHRec$[ebp+8], 31 ; 0000001fH
  00b28	50		 push	 eax
  00b29	8d 45 d8	 lea	 eax, DWORD PTR $T20[ebp]
  00b2c	50		 push	 eax
  00b2d	8d 8d 40 ff ff
	ff		 lea	 ecx, DWORD PTR _textLoader$[ebp]
  00b33	e8 00 00 00 00	 call	 ?GetTokenVector2@CTextFileLoader@@QAEHABV?$basic_string@DU?$char_traits@D@std@@V?$allocator@D@2@@std@@PAUD3DXVECTOR2@@@Z ; CTextFileLoader::GetTokenVector2
; File C:\Program Files (x86)\Microsoft Visual Studio\2019\Community\VC\Tools\MSVC\14.27.29110\include\xstring

; 4301 :         if (_Mypair._Myval2._Large_string_engaged()) {

  00b38	8b 45 ec	 mov	 eax, DWORD PTR $T20[ebp+20]
; File C:\DS Project\DS Files\Source\ClientSource\Client\GameLib\MapUtil.cpp

; 149  : 		textLoader.GetTokenVector2("cloudscale", &envData.v2CloudScale);

  00b3b	c6 45 fc 00	 mov	 BYTE PTR __$EHRec$[ebp+8], 0
; File C:\Program Files (x86)\Microsoft Visual Studio\2019\Community\VC\Tools\MSVC\14.27.29110\include\xstring

; 4301 :         if (_Mypair._Myval2._Large_string_engaged()) {

  00b3f	83 f8 10	 cmp	 eax, 16			; 00000010H
  00b42	72 0d		 jb	 SHORT $LN617@Environmen

; 4302 :             const pointer _Ptr = _Mypair._Myval2._Bx._Ptr;
; 4303 :             auto& _Al          = _Getal();
; 4304 :             _Destroy_in_place(_Mypair._Myval2._Bx._Ptr);
; 4305 :             _Al.deallocate(_Ptr, _Mypair._Myval2._Myres + 1);

  00b44	40		 inc	 eax
; File C:\Program Files (x86)\Microsoft Visual Studio\2019\Community\VC\Tools\MSVC\14.27.29110\include\xmemory

; 803  :         _Deallocate<_New_alignof<_Ty>>(_Ptr, sizeof(_Ty) * _Count);

  00b45	50		 push	 eax
  00b46	ff 75 d8	 push	 DWORD PTR $T20[ebp]
  00b49	e8 00 00 00 00	 call	 ??$_Deallocate@$07$0A@@std@@YAXPAXI@Z ; std::_Deallocate<8,0>
  00b4e	83 c4 08	 add	 esp, 8
$LN617@Environmen:
; File C:\Program Files (x86)\Microsoft Visual Studio\2019\Community\VC\Tools\MSVC\14.27.29110\include\xstring

; 2339 :         assign(_Ptr);

  00b51	68 00 00 00 00	 push	 OFFSET ??_C@_0M@JAHFJEDG@cloudheight@
  00b56	8d 4d d8	 lea	 ecx, DWORD PTR $T19[ebp]

; 4293 :         _Mypair._Myval2._Mysize = 0;

  00b59	c7 45 e8 00 00
	00 00		 mov	 DWORD PTR $T19[ebp+16], 0

; 4294 :         _Mypair._Myval2._Myres  = _BUF_SIZE - 1;

  00b60	c7 45 ec 0f 00
	00 00		 mov	 DWORD PTR $T19[ebp+20], 15 ; 0000000fH

; 4295 :         // the _Traits::assign is last so the codegen doesn't think the char write can alias this
; 4296 :         _Traits::assign(_Mypair._Myval2._Bx._Buf[0], _Elem());

  00b67	c6 45 d8 00	 mov	 BYTE PTR $T19[ebp], 0

; 2339 :         assign(_Ptr);

  00b6b	e8 00 00 00 00	 call	 ?assign@?$basic_string@DU?$char_traits@D@std@@V?$allocator@D@2@@std@@QAEAAV12@QBD@Z ; std::basic_string<char,std::char_traits<char>,std::allocator<char> >::assign
; File C:\DS Project\DS Files\Source\ClientSource\Client\GameLib\MapUtil.cpp

; 150  : 		textLoader.GetTokenFloat("cloudheight", &envData.fCloudHeight);

  00b70	8d 87 08 02 00
	00		 lea	 eax, DWORD PTR [edi+520]
  00b76	c6 45 fc 20	 mov	 BYTE PTR __$EHRec$[ebp+8], 32 ; 00000020H
  00b7a	50		 push	 eax
  00b7b	8d 45 d8	 lea	 eax, DWORD PTR $T19[ebp]
  00b7e	50		 push	 eax
  00b7f	8d 8d 40 ff ff
	ff		 lea	 ecx, DWORD PTR _textLoader$[ebp]
  00b85	e8 00 00 00 00	 call	 ?GetTokenFloat@CTextFileLoader@@QAEHABV?$basic_string@DU?$char_traits@D@std@@V?$allocator@D@2@@std@@PAM@Z ; CTextFileLoader::GetTokenFloat
; File C:\Program Files (x86)\Microsoft Visual Studio\2019\Community\VC\Tools\MSVC\14.27.29110\include\xstring

; 4301 :         if (_Mypair._Myval2._Large_string_engaged()) {

  00b8a	8b 45 ec	 mov	 eax, DWORD PTR $T19[ebp+20]
; File C:\DS Project\DS Files\Source\ClientSource\Client\GameLib\MapUtil.cpp

; 150  : 		textLoader.GetTokenFloat("cloudheight", &envData.fCloudHeight);

  00b8d	c6 45 fc 00	 mov	 BYTE PTR __$EHRec$[ebp+8], 0
; File C:\Program Files (x86)\Microsoft Visual Studio\2019\Community\VC\Tools\MSVC\14.27.29110\include\xstring

; 4301 :         if (_Mypair._Myval2._Large_string_engaged()) {

  00b91	83 f8 10	 cmp	 eax, 16			; 00000010H
  00b94	72 0d		 jb	 SHORT $LN635@Environmen

; 4302 :             const pointer _Ptr = _Mypair._Myval2._Bx._Ptr;
; 4303 :             auto& _Al          = _Getal();
; 4304 :             _Destroy_in_place(_Mypair._Myval2._Bx._Ptr);
; 4305 :             _Al.deallocate(_Ptr, _Mypair._Myval2._Myres + 1);

  00b96	40		 inc	 eax
; File C:\Program Files (x86)\Microsoft Visual Studio\2019\Community\VC\Tools\MSVC\14.27.29110\include\xmemory

; 803  :         _Deallocate<_New_alignof<_Ty>>(_Ptr, sizeof(_Ty) * _Count);

  00b97	50		 push	 eax
  00b98	ff 75 d8	 push	 DWORD PTR $T19[ebp]
  00b9b	e8 00 00 00 00	 call	 ??$_Deallocate@$07$0A@@std@@YAXPAXI@Z ; std::_Deallocate<8,0>
  00ba0	83 c4 08	 add	 esp, 8
$LN635@Environmen:
; File C:\Program Files (x86)\Microsoft Visual Studio\2019\Community\VC\Tools\MSVC\14.27.29110\include\xstring

; 2339 :         assign(_Ptr);

  00ba3	68 00 00 00 00	 push	 OFFSET ??_C@_0BC@BBJMDDCO@cloudtexturescale@
  00ba8	8d 4d d8	 lea	 ecx, DWORD PTR $T18[ebp]

; 4293 :         _Mypair._Myval2._Mysize = 0;

  00bab	c7 45 e8 00 00
	00 00		 mov	 DWORD PTR $T18[ebp+16], 0

; 4294 :         _Mypair._Myval2._Myres  = _BUF_SIZE - 1;

  00bb2	c7 45 ec 0f 00
	00 00		 mov	 DWORD PTR $T18[ebp+20], 15 ; 0000000fH

; 4295 :         // the _Traits::assign is last so the codegen doesn't think the char write can alias this
; 4296 :         _Traits::assign(_Mypair._Myval2._Bx._Buf[0], _Elem());

  00bb9	c6 45 d8 00	 mov	 BYTE PTR $T18[ebp], 0

; 2339 :         assign(_Ptr);

  00bbd	e8 00 00 00 00	 call	 ?assign@?$basic_string@DU?$char_traits@D@std@@V?$allocator@D@2@@std@@QAEAAV12@QBD@Z ; std::basic_string<char,std::char_traits<char>,std::allocator<char> >::assign
; File C:\DS Project\DS Files\Source\ClientSource\Client\GameLib\MapUtil.cpp

; 151  : 		textLoader.GetTokenVector2("cloudtexturescale", &envData.v2CloudTextureScale);

  00bc2	8d 87 0c 02 00
	00		 lea	 eax, DWORD PTR [edi+524]
  00bc8	c6 45 fc 21	 mov	 BYTE PTR __$EHRec$[ebp+8], 33 ; 00000021H
  00bcc	50		 push	 eax
  00bcd	8d 45 d8	 lea	 eax, DWORD PTR $T18[ebp]
  00bd0	50		 push	 eax
  00bd1	8d 8d 40 ff ff
	ff		 lea	 ecx, DWORD PTR _textLoader$[ebp]
  00bd7	e8 00 00 00 00	 call	 ?GetTokenVector2@CTextFileLoader@@QAEHABV?$basic_string@DU?$char_traits@D@std@@V?$allocator@D@2@@std@@PAUD3DXVECTOR2@@@Z ; CTextFileLoader::GetTokenVector2
; File C:\Program Files (x86)\Microsoft Visual Studio\2019\Community\VC\Tools\MSVC\14.27.29110\include\xstring

; 4301 :         if (_Mypair._Myval2._Large_string_engaged()) {

  00bdc	8b 45 ec	 mov	 eax, DWORD PTR $T18[ebp+20]
; File C:\DS Project\DS Files\Source\ClientSource\Client\GameLib\MapUtil.cpp

; 151  : 		textLoader.GetTokenVector2("cloudtexturescale", &envData.v2CloudTextureScale);

  00bdf	c6 45 fc 00	 mov	 BYTE PTR __$EHRec$[ebp+8], 0
; File C:\Program Files (x86)\Microsoft Visual Studio\2019\Community\VC\Tools\MSVC\14.27.29110\include\xstring

; 4301 :         if (_Mypair._Myval2._Large_string_engaged()) {

  00be3	83 f8 10	 cmp	 eax, 16			; 00000010H
  00be6	72 0d		 jb	 SHORT $LN653@Environmen

; 4302 :             const pointer _Ptr = _Mypair._Myval2._Bx._Ptr;
; 4303 :             auto& _Al          = _Getal();
; 4304 :             _Destroy_in_place(_Mypair._Myval2._Bx._Ptr);
; 4305 :             _Al.deallocate(_Ptr, _Mypair._Myval2._Myres + 1);

  00be8	40		 inc	 eax
; File C:\Program Files (x86)\Microsoft Visual Studio\2019\Community\VC\Tools\MSVC\14.27.29110\include\xmemory

; 803  :         _Deallocate<_New_alignof<_Ty>>(_Ptr, sizeof(_Ty) * _Count);

  00be9	50		 push	 eax
  00bea	ff 75 d8	 push	 DWORD PTR $T18[ebp]
  00bed	e8 00 00 00 00	 call	 ??$_Deallocate@$07$0A@@std@@YAXPAXI@Z ; std::_Deallocate<8,0>
  00bf2	83 c4 08	 add	 esp, 8
$LN653@Environmen:
; File C:\Program Files (x86)\Microsoft Visual Studio\2019\Community\VC\Tools\MSVC\14.27.29110\include\xstring

; 2339 :         assign(_Ptr);

  00bf5	68 00 00 00 00	 push	 OFFSET ??_C@_0L@LJBHNMFK@cloudspeed@
  00bfa	8d 4d d8	 lea	 ecx, DWORD PTR $T17[ebp]

; 4293 :         _Mypair._Myval2._Mysize = 0;

  00bfd	c7 45 e8 00 00
	00 00		 mov	 DWORD PTR $T17[ebp+16], 0

; 4294 :         _Mypair._Myval2._Myres  = _BUF_SIZE - 1;

  00c04	c7 45 ec 0f 00
	00 00		 mov	 DWORD PTR $T17[ebp+20], 15 ; 0000000fH

; 4295 :         // the _Traits::assign is last so the codegen doesn't think the char write can alias this
; 4296 :         _Traits::assign(_Mypair._Myval2._Bx._Buf[0], _Elem());

  00c0b	c6 45 d8 00	 mov	 BYTE PTR $T17[ebp], 0

; 2339 :         assign(_Ptr);

  00c0f	e8 00 00 00 00	 call	 ?assign@?$basic_string@DU?$char_traits@D@std@@V?$allocator@D@2@@std@@QAEAAV12@QBD@Z ; std::basic_string<char,std::char_traits<char>,std::allocator<char> >::assign
; File C:\DS Project\DS Files\Source\ClientSource\Client\GameLib\MapUtil.cpp

; 152  : 		textLoader.GetTokenVector2("cloudspeed", &envData.v2CloudSpeed);

  00c14	8d 87 14 02 00
	00		 lea	 eax, DWORD PTR [edi+532]
  00c1a	c6 45 fc 22	 mov	 BYTE PTR __$EHRec$[ebp+8], 34 ; 00000022H
  00c1e	50		 push	 eax
  00c1f	8d 45 d8	 lea	 eax, DWORD PTR $T17[ebp]
  00c22	50		 push	 eax
  00c23	8d 8d 40 ff ff
	ff		 lea	 ecx, DWORD PTR _textLoader$[ebp]
  00c29	e8 00 00 00 00	 call	 ?GetTokenVector2@CTextFileLoader@@QAEHABV?$basic_string@DU?$char_traits@D@std@@V?$allocator@D@2@@std@@PAUD3DXVECTOR2@@@Z ; CTextFileLoader::GetTokenVector2
; File C:\Program Files (x86)\Microsoft Visual Studio\2019\Community\VC\Tools\MSVC\14.27.29110\include\xstring

; 4301 :         if (_Mypair._Myval2._Large_string_engaged()) {

  00c2e	8b 45 ec	 mov	 eax, DWORD PTR $T17[ebp+20]
; File C:\DS Project\DS Files\Source\ClientSource\Client\GameLib\MapUtil.cpp

; 152  : 		textLoader.GetTokenVector2("cloudspeed", &envData.v2CloudSpeed);

  00c31	c6 45 fc 00	 mov	 BYTE PTR __$EHRec$[ebp+8], 0
; File C:\Program Files (x86)\Microsoft Visual Studio\2019\Community\VC\Tools\MSVC\14.27.29110\include\xstring

; 4301 :         if (_Mypair._Myval2._Large_string_engaged()) {

  00c35	83 f8 10	 cmp	 eax, 16			; 00000010H
  00c38	72 0d		 jb	 SHORT $LN671@Environmen

; 4302 :             const pointer _Ptr = _Mypair._Myval2._Bx._Ptr;
; 4303 :             auto& _Al          = _Getal();
; 4304 :             _Destroy_in_place(_Mypair._Myval2._Bx._Ptr);
; 4305 :             _Al.deallocate(_Ptr, _Mypair._Myval2._Myres + 1);

  00c3a	40		 inc	 eax
; File C:\Program Files (x86)\Microsoft Visual Studio\2019\Community\VC\Tools\MSVC\14.27.29110\include\xmemory

; 803  :         _Deallocate<_New_alignof<_Ty>>(_Ptr, sizeof(_Ty) * _Count);

  00c3b	50		 push	 eax
  00c3c	ff 75 d8	 push	 DWORD PTR $T17[ebp]
  00c3f	e8 00 00 00 00	 call	 ??$_Deallocate@$07$0A@@std@@YAXPAXI@Z ; std::_Deallocate<8,0>
  00c44	83 c4 08	 add	 esp, 8
$LN671@Environmen:
; File C:\Program Files (x86)\Microsoft Visual Studio\2019\Community\VC\Tools\MSVC\14.27.29110\include\xstring

; 2339 :         assign(_Ptr);

  00c47	68 00 00 00 00	 push	 OFFSET ??_C@_0BF@KCIBJMLM@cloudtexturefilename@
  00c4c	8d 4d d8	 lea	 ecx, DWORD PTR $T16[ebp]

; 4293 :         _Mypair._Myval2._Mysize = 0;

  00c4f	c7 45 e8 00 00
	00 00		 mov	 DWORD PTR $T16[ebp+16], 0

; 4294 :         _Mypair._Myval2._Myres  = _BUF_SIZE - 1;

  00c56	c7 45 ec 0f 00
	00 00		 mov	 DWORD PTR $T16[ebp+20], 15 ; 0000000fH

; 4295 :         // the _Traits::assign is last so the codegen doesn't think the char write can alias this
; 4296 :         _Traits::assign(_Mypair._Myval2._Bx._Buf[0], _Elem());

  00c5d	c6 45 d8 00	 mov	 BYTE PTR $T16[ebp], 0

; 2339 :         assign(_Ptr);

  00c61	e8 00 00 00 00	 call	 ?assign@?$basic_string@DU?$char_traits@D@std@@V?$allocator@D@2@@std@@QAEAAV12@QBD@Z ; std::basic_string<char,std::char_traits<char>,std::allocator<char> >::assign
; File C:\DS Project\DS Files\Source\ClientSource\Client\GameLib\MapUtil.cpp

; 153  : 		textLoader.GetTokenString("cloudtexturefilename", &envData.strCloudTextureFileName);

  00c66	8d 87 1c 02 00
	00		 lea	 eax, DWORD PTR [edi+540]
  00c6c	c6 45 fc 23	 mov	 BYTE PTR __$EHRec$[ebp+8], 35 ; 00000023H
  00c70	50		 push	 eax
  00c71	8d 45 d8	 lea	 eax, DWORD PTR $T16[ebp]
  00c74	50		 push	 eax
  00c75	8d 8d 40 ff ff
	ff		 lea	 ecx, DWORD PTR _textLoader$[ebp]
  00c7b	e8 00 00 00 00	 call	 ?GetTokenString@CTextFileLoader@@QAEHABV?$basic_string@DU?$char_traits@D@std@@V?$allocator@D@2@@std@@PAV23@@Z ; CTextFileLoader::GetTokenString
; File C:\Program Files (x86)\Microsoft Visual Studio\2019\Community\VC\Tools\MSVC\14.27.29110\include\xstring

; 4301 :         if (_Mypair._Myval2._Large_string_engaged()) {

  00c80	8b 45 ec	 mov	 eax, DWORD PTR $T16[ebp+20]
; File C:\DS Project\DS Files\Source\ClientSource\Client\GameLib\MapUtil.cpp

; 153  : 		textLoader.GetTokenString("cloudtexturefilename", &envData.strCloudTextureFileName);

  00c83	c6 45 fc 00	 mov	 BYTE PTR __$EHRec$[ebp+8], 0
; File C:\Program Files (x86)\Microsoft Visual Studio\2019\Community\VC\Tools\MSVC\14.27.29110\include\xstring

; 4301 :         if (_Mypair._Myval2._Large_string_engaged()) {

  00c87	83 f8 10	 cmp	 eax, 16			; 00000010H
  00c8a	72 0d		 jb	 SHORT $LN689@Environmen

; 4302 :             const pointer _Ptr = _Mypair._Myval2._Bx._Ptr;
; 4303 :             auto& _Al          = _Getal();
; 4304 :             _Destroy_in_place(_Mypair._Myval2._Bx._Ptr);
; 4305 :             _Al.deallocate(_Ptr, _Mypair._Myval2._Myres + 1);

  00c8c	40		 inc	 eax
; File C:\Program Files (x86)\Microsoft Visual Studio\2019\Community\VC\Tools\MSVC\14.27.29110\include\xmemory

; 803  :         _Deallocate<_New_alignof<_Ty>>(_Ptr, sizeof(_Ty) * _Count);

  00c8d	50		 push	 eax
  00c8e	ff 75 d8	 push	 DWORD PTR $T16[ebp]
  00c91	e8 00 00 00 00	 call	 ??$_Deallocate@$07$0A@@std@@YAXPAXI@Z ; std::_Deallocate<8,0>
  00c96	83 c4 08	 add	 esp, 8
$LN689@Environmen:
; File C:\Program Files (x86)\Microsoft Visual Studio\2019\Community\VC\Tools\MSVC\14.27.29110\include\xstring

; 2339 :         assign(_Ptr);

  00c99	68 00 00 00 00	 push	 OFFSET ??_C@_0L@DEHGKBBJ@cloudcolor@
  00c9e	8d 4d d8	 lea	 ecx, DWORD PTR $T15[ebp]

; 4293 :         _Mypair._Myval2._Mysize = 0;

  00ca1	c7 45 e8 00 00
	00 00		 mov	 DWORD PTR $T15[ebp+16], 0

; 4294 :         _Mypair._Myval2._Myres  = _BUF_SIZE - 1;

  00ca8	c7 45 ec 0f 00
	00 00		 mov	 DWORD PTR $T15[ebp+20], 15 ; 0000000fH

; 4295 :         // the _Traits::assign is last so the codegen doesn't think the char write can alias this
; 4296 :         _Traits::assign(_Mypair._Myval2._Bx._Buf[0], _Elem());

  00caf	c6 45 d8 00	 mov	 BYTE PTR $T15[ebp], 0

; 2339 :         assign(_Ptr);

  00cb3	e8 00 00 00 00	 call	 ?assign@?$basic_string@DU?$char_traits@D@std@@V?$allocator@D@2@@std@@QAEAAV12@QBD@Z ; std::basic_string<char,std::char_traits<char>,std::allocator<char> >::assign
; File C:\DS Project\DS Files\Source\ClientSource\Client\GameLib\MapUtil.cpp

; 156  : 		if(textLoader.GetTokenVector("cloudcolor", &pTokenVectorCloudColor))

  00cb8	8d 85 30 ff ff
	ff		 lea	 eax, DWORD PTR _pTokenVectorCloudColor$4[ebp]
  00cbe	c6 45 fc 24	 mov	 BYTE PTR __$EHRec$[ebp+8], 36 ; 00000024H
  00cc2	50		 push	 eax
  00cc3	8d 45 d8	 lea	 eax, DWORD PTR $T15[ebp]
  00cc6	50		 push	 eax
  00cc7	8d 8d 40 ff ff
	ff		 lea	 ecx, DWORD PTR _textLoader$[ebp]
  00ccd	e8 00 00 00 00	 call	 ?GetTokenVector@CTextFileLoader@@QAEHABV?$basic_string@DU?$char_traits@D@std@@V?$allocator@D@2@@std@@PAPAV?$vector@V?$basic_string@DU?$char_traits@D@std@@V?$allocator@D@2@@std@@V?$allocator@V?$basic_string@DU?$char_traits@D@std@@V?$allocator@D@2@@std@@@2@@3@@Z ; CTextFileLoader::GetTokenVector
  00cd2	8b f0		 mov	 esi, eax
  00cd4	c6 45 fc 00	 mov	 BYTE PTR __$EHRec$[ebp+8], 0
; File C:\Program Files (x86)\Microsoft Visual Studio\2019\Community\VC\Tools\MSVC\14.27.29110\include\xstring

; 4301 :         if (_Mypair._Myval2._Large_string_engaged()) {

  00cd8	8b 45 ec	 mov	 eax, DWORD PTR $T15[ebp+20]
  00cdb	83 f8 10	 cmp	 eax, 16			; 00000010H
  00cde	72 0d		 jb	 SHORT $LN707@Environmen

; 4302 :             const pointer _Ptr = _Mypair._Myval2._Bx._Ptr;
; 4303 :             auto& _Al          = _Getal();
; 4304 :             _Destroy_in_place(_Mypair._Myval2._Bx._Ptr);
; 4305 :             _Al.deallocate(_Ptr, _Mypair._Myval2._Myres + 1);

  00ce0	40		 inc	 eax
; File C:\Program Files (x86)\Microsoft Visual Studio\2019\Community\VC\Tools\MSVC\14.27.29110\include\xmemory

; 803  :         _Deallocate<_New_alignof<_Ty>>(_Ptr, sizeof(_Ty) * _Count);

  00ce1	50		 push	 eax
  00ce2	ff 75 d8	 push	 DWORD PTR $T15[ebp]
  00ce5	e8 00 00 00 00	 call	 ??$_Deallocate@$07$0A@@std@@YAXPAXI@Z ; std::_Deallocate<8,0>
  00cea	83 c4 08	 add	 esp, 8
$LN707@Environmen:
; File C:\DS Project\DS Files\Source\ClientSource\Client\GameLib\MapUtil.cpp

; 156  : 		if(textLoader.GetTokenVector("cloudcolor", &pTokenVectorCloudColor))

  00ced	85 f6		 test	 esi, esi
  00cef	0f 84 40 01 00
	00		 je	 $LN14@Environmen
; File C:\Program Files (x86)\Microsoft Visual Studio\2019\Community\VC\Tools\MSVC\14.27.29110\include\vector

; 1484 :         return static_cast<size_type>(_My_data._Mylast - _My_data._Myfirst);

  00cf5	8b b5 30 ff ff
	ff		 mov	 esi, DWORD PTR _pTokenVectorCloudColor$4[ebp]
  00cfb	b8 ab aa aa 2a	 mov	 eax, 715827883		; 2aaaaaabH
  00d00	8b 4e 04	 mov	 ecx, DWORD PTR [esi+4]
  00d03	2b 0e		 sub	 ecx, DWORD PTR [esi]
  00d05	f7 e9		 imul	 ecx
  00d07	c1 fa 02	 sar	 edx, 2
  00d0a	8b c2		 mov	 eax, edx
  00d0c	c1 e8 1f	 shr	 eax, 31			; 0000001fH
  00d0f	03 c2		 add	 eax, edx
; File C:\DS Project\DS Files\Source\ClientSource\Client\GameLib\MapUtil.cpp

; 157  : 		if ( 0 == pTokenVectorCloudColor->size()%8)

  00d11	a8 07		 test	 al, 7
  00d13	0f 85 1c 01 00
	00		 jne	 $LN14@Environmen

; 159  : 			envData.CloudGradientColor.m_FirstColor.r = atof(pTokenVectorCloudColor->at(0).c_str());

  00d19	6a 00		 push	 0
  00d1b	8b ce		 mov	 ecx, esi
  00d1d	e8 00 00 00 00	 call	 ?at@?$vector@V?$basic_string@DU?$char_traits@D@std@@V?$allocator@D@2@@std@@V?$allocator@V?$basic_string@DU?$char_traits@D@std@@V?$allocator@D@2@@std@@@2@@std@@QAEAAV?$basic_string@DU?$char_traits@D@std@@V?$allocator@D@2@@2@I@Z ; std::vector<std::basic_string<char,std::char_traits<char>,std::allocator<char> >,std::allocator<std::basic_string<char,std::char_traits<char>,std::allocator<char> > > >::at
; File C:\Program Files (x86)\Microsoft Visual Studio\2019\Community\VC\Tools\MSVC\14.27.29110\include\xstring

; 2145 :         if (_Large_string_engaged()) {

  00d22	83 78 14 10	 cmp	 DWORD PTR [eax+20], 16	; 00000010H
  00d26	72 02		 jb	 SHORT $LN718@Environmen

; 2146 :             _Result = _Unfancy(_Bx._Ptr);

  00d28	8b 00		 mov	 eax, DWORD PTR [eax]
$LN718@Environmen:
; File C:\DS Project\DS Files\Source\ClientSource\Client\GameLib\MapUtil.cpp

; 159  : 			envData.CloudGradientColor.m_FirstColor.r = atof(pTokenVectorCloudColor->at(0).c_str());

  00d2a	50		 push	 eax
  00d2b	e8 00 00 00 00	 call	 _atof

; 160  : 			envData.CloudGradientColor.m_FirstColor.g = atof(pTokenVectorCloudColor->at(1).c_str());

  00d30	8b 8d 30 ff ff
	ff		 mov	 ecx, DWORD PTR _pTokenVectorCloudColor$4[ebp]
  00d36	83 c4 04	 add	 esp, 4
  00d39	d9 9f 34 02 00
	00		 fstp	 DWORD PTR [edi+564]
  00d3f	6a 01		 push	 1
  00d41	e8 00 00 00 00	 call	 ?at@?$vector@V?$basic_string@DU?$char_traits@D@std@@V?$allocator@D@2@@std@@V?$allocator@V?$basic_string@DU?$char_traits@D@std@@V?$allocator@D@2@@std@@@2@@std@@QAEAAV?$basic_string@DU?$char_traits@D@std@@V?$allocator@D@2@@2@I@Z ; std::vector<std::basic_string<char,std::char_traits<char>,std::allocator<char> >,std::allocator<std::basic_string<char,std::char_traits<char>,std::allocator<char> > > >::at
; File C:\Program Files (x86)\Microsoft Visual Studio\2019\Community\VC\Tools\MSVC\14.27.29110\include\xstring

; 2145 :         if (_Large_string_engaged()) {

  00d46	83 78 14 10	 cmp	 DWORD PTR [eax+20], 16	; 00000010H
  00d4a	72 02		 jb	 SHORT $LN725@Environmen

; 2146 :             _Result = _Unfancy(_Bx._Ptr);

  00d4c	8b 00		 mov	 eax, DWORD PTR [eax]
$LN725@Environmen:
; File C:\DS Project\DS Files\Source\ClientSource\Client\GameLib\MapUtil.cpp

; 160  : 			envData.CloudGradientColor.m_FirstColor.g = atof(pTokenVectorCloudColor->at(1).c_str());

  00d4e	50		 push	 eax
  00d4f	e8 00 00 00 00	 call	 _atof

; 161  : 			envData.CloudGradientColor.m_FirstColor.b = atof(pTokenVectorCloudColor->at(2).c_str());

  00d54	8b 8d 30 ff ff
	ff		 mov	 ecx, DWORD PTR _pTokenVectorCloudColor$4[ebp]
  00d5a	83 c4 04	 add	 esp, 4
  00d5d	d9 9f 38 02 00
	00		 fstp	 DWORD PTR [edi+568]
  00d63	6a 02		 push	 2
  00d65	e8 00 00 00 00	 call	 ?at@?$vector@V?$basic_string@DU?$char_traits@D@std@@V?$allocator@D@2@@std@@V?$allocator@V?$basic_string@DU?$char_traits@D@std@@V?$allocator@D@2@@std@@@2@@std@@QAEAAV?$basic_string@DU?$char_traits@D@std@@V?$allocator@D@2@@2@I@Z ; std::vector<std::basic_string<char,std::char_traits<char>,std::allocator<char> >,std::allocator<std::basic_string<char,std::char_traits<char>,std::allocator<char> > > >::at
; File C:\Program Files (x86)\Microsoft Visual Studio\2019\Community\VC\Tools\MSVC\14.27.29110\include\xstring

; 2145 :         if (_Large_string_engaged()) {

  00d6a	83 78 14 10	 cmp	 DWORD PTR [eax+20], 16	; 00000010H
  00d6e	72 02		 jb	 SHORT $LN732@Environmen

; 2146 :             _Result = _Unfancy(_Bx._Ptr);

  00d70	8b 00		 mov	 eax, DWORD PTR [eax]
$LN732@Environmen:
; File C:\DS Project\DS Files\Source\ClientSource\Client\GameLib\MapUtil.cpp

; 161  : 			envData.CloudGradientColor.m_FirstColor.b = atof(pTokenVectorCloudColor->at(2).c_str());

  00d72	50		 push	 eax
  00d73	e8 00 00 00 00	 call	 _atof

; 162  : 			envData.CloudGradientColor.m_FirstColor.a = atof(pTokenVectorCloudColor->at(3).c_str());

  00d78	8b 8d 30 ff ff
	ff		 mov	 ecx, DWORD PTR _pTokenVectorCloudColor$4[ebp]
  00d7e	83 c4 04	 add	 esp, 4
  00d81	d9 9f 3c 02 00
	00		 fstp	 DWORD PTR [edi+572]
  00d87	6a 03		 push	 3
  00d89	e8 00 00 00 00	 call	 ?at@?$vector@V?$basic_string@DU?$char_traits@D@std@@V?$allocator@D@2@@std@@V?$allocator@V?$basic_string@DU?$char_traits@D@std@@V?$allocator@D@2@@std@@@2@@std@@QAEAAV?$basic_string@DU?$char_traits@D@std@@V?$allocator@D@2@@2@I@Z ; std::vector<std::basic_string<char,std::char_traits<char>,std::allocator<char> >,std::allocator<std::basic_string<char,std::char_traits<char>,std::allocator<char> > > >::at
; File C:\Program Files (x86)\Microsoft Visual Studio\2019\Community\VC\Tools\MSVC\14.27.29110\include\xstring

; 2145 :         if (_Large_string_engaged()) {

  00d8e	83 78 14 10	 cmp	 DWORD PTR [eax+20], 16	; 00000010H
  00d92	72 02		 jb	 SHORT $LN739@Environmen

; 2146 :             _Result = _Unfancy(_Bx._Ptr);

  00d94	8b 00		 mov	 eax, DWORD PTR [eax]
$LN739@Environmen:
; File C:\DS Project\DS Files\Source\ClientSource\Client\GameLib\MapUtil.cpp

; 162  : 			envData.CloudGradientColor.m_FirstColor.a = atof(pTokenVectorCloudColor->at(3).c_str());

  00d96	50		 push	 eax
  00d97	e8 00 00 00 00	 call	 _atof

; 164  : 			envData.CloudGradientColor.m_SecondColor.r = atof(pTokenVectorCloudColor->at(4).c_str());

  00d9c	8b 8d 30 ff ff
	ff		 mov	 ecx, DWORD PTR _pTokenVectorCloudColor$4[ebp]
  00da2	83 c4 04	 add	 esp, 4
  00da5	d9 9f 40 02 00
	00		 fstp	 DWORD PTR [edi+576]
  00dab	6a 04		 push	 4
  00dad	e8 00 00 00 00	 call	 ?at@?$vector@V?$basic_string@DU?$char_traits@D@std@@V?$allocator@D@2@@std@@V?$allocator@V?$basic_string@DU?$char_traits@D@std@@V?$allocator@D@2@@std@@@2@@std@@QAEAAV?$basic_string@DU?$char_traits@D@std@@V?$allocator@D@2@@2@I@Z ; std::vector<std::basic_string<char,std::char_traits<char>,std::allocator<char> >,std::allocator<std::basic_string<char,std::char_traits<char>,std::allocator<char> > > >::at
; File C:\Program Files (x86)\Microsoft Visual Studio\2019\Community\VC\Tools\MSVC\14.27.29110\include\xstring

; 2145 :         if (_Large_string_engaged()) {

  00db2	83 78 14 10	 cmp	 DWORD PTR [eax+20], 16	; 00000010H
  00db6	72 02		 jb	 SHORT $LN746@Environmen

; 2146 :             _Result = _Unfancy(_Bx._Ptr);

  00db8	8b 00		 mov	 eax, DWORD PTR [eax]
$LN746@Environmen:
; File C:\DS Project\DS Files\Source\ClientSource\Client\GameLib\MapUtil.cpp

; 164  : 			envData.CloudGradientColor.m_SecondColor.r = atof(pTokenVectorCloudColor->at(4).c_str());

  00dba	50		 push	 eax
  00dbb	e8 00 00 00 00	 call	 _atof

; 165  : 			envData.CloudGradientColor.m_SecondColor.g = atof(pTokenVectorCloudColor->at(5).c_str());

  00dc0	8b 8d 30 ff ff
	ff		 mov	 ecx, DWORD PTR _pTokenVectorCloudColor$4[ebp]
  00dc6	83 c4 04	 add	 esp, 4
  00dc9	d9 9f 44 02 00
	00		 fstp	 DWORD PTR [edi+580]
  00dcf	6a 05		 push	 5
  00dd1	e8 00 00 00 00	 call	 ?at@?$vector@V?$basic_string@DU?$char_traits@D@std@@V?$allocator@D@2@@std@@V?$allocator@V?$basic_string@DU?$char_traits@D@std@@V?$allocator@D@2@@std@@@2@@std@@QAEAAV?$basic_string@DU?$char_traits@D@std@@V?$allocator@D@2@@2@I@Z ; std::vector<std::basic_string<char,std::char_traits<char>,std::allocator<char> >,std::allocator<std::basic_string<char,std::char_traits<char>,std::allocator<char> > > >::at
; File C:\Program Files (x86)\Microsoft Visual Studio\2019\Community\VC\Tools\MSVC\14.27.29110\include\xstring

; 2145 :         if (_Large_string_engaged()) {

  00dd6	83 78 14 10	 cmp	 DWORD PTR [eax+20], 16	; 00000010H
  00dda	72 02		 jb	 SHORT $LN753@Environmen

; 2146 :             _Result = _Unfancy(_Bx._Ptr);

  00ddc	8b 00		 mov	 eax, DWORD PTR [eax]
$LN753@Environmen:
; File C:\DS Project\DS Files\Source\ClientSource\Client\GameLib\MapUtil.cpp

; 165  : 			envData.CloudGradientColor.m_SecondColor.g = atof(pTokenVectorCloudColor->at(5).c_str());

  00dde	50		 push	 eax
  00ddf	e8 00 00 00 00	 call	 _atof

; 166  : 			envData.CloudGradientColor.m_SecondColor.b = atof(pTokenVectorCloudColor->at(6).c_str());

  00de4	8b 8d 30 ff ff
	ff		 mov	 ecx, DWORD PTR _pTokenVectorCloudColor$4[ebp]
  00dea	83 c4 04	 add	 esp, 4
  00ded	d9 9f 48 02 00
	00		 fstp	 DWORD PTR [edi+584]
  00df3	6a 06		 push	 6
  00df5	e8 00 00 00 00	 call	 ?at@?$vector@V?$basic_string@DU?$char_traits@D@std@@V?$allocator@D@2@@std@@V?$allocator@V?$basic_string@DU?$char_traits@D@std@@V?$allocator@D@2@@std@@@2@@std@@QAEAAV?$basic_string@DU?$char_traits@D@std@@V?$allocator@D@2@@2@I@Z ; std::vector<std::basic_string<char,std::char_traits<char>,std::allocator<char> >,std::allocator<std::basic_string<char,std::char_traits<char>,std::allocator<char> > > >::at
; File C:\Program Files (x86)\Microsoft Visual Studio\2019\Community\VC\Tools\MSVC\14.27.29110\include\xstring

; 2145 :         if (_Large_string_engaged()) {

  00dfa	83 78 14 10	 cmp	 DWORD PTR [eax+20], 16	; 00000010H
  00dfe	72 02		 jb	 SHORT $LN760@Environmen

; 2146 :             _Result = _Unfancy(_Bx._Ptr);

  00e00	8b 00		 mov	 eax, DWORD PTR [eax]
$LN760@Environmen:
; File C:\DS Project\DS Files\Source\ClientSource\Client\GameLib\MapUtil.cpp

; 166  : 			envData.CloudGradientColor.m_SecondColor.b = atof(pTokenVectorCloudColor->at(6).c_str());

  00e02	50		 push	 eax
  00e03	e8 00 00 00 00	 call	 _atof

; 167  : 			envData.CloudGradientColor.m_SecondColor.a = atof(pTokenVectorCloudColor->at(7).c_str());

  00e08	8b 8d 30 ff ff
	ff		 mov	 ecx, DWORD PTR _pTokenVectorCloudColor$4[ebp]
  00e0e	83 c4 04	 add	 esp, 4
  00e11	d9 9f 4c 02 00
	00		 fstp	 DWORD PTR [edi+588]
  00e17	6a 07		 push	 7
  00e19	e8 00 00 00 00	 call	 ?at@?$vector@V?$basic_string@DU?$char_traits@D@std@@V?$allocator@D@2@@std@@V?$allocator@V?$basic_string@DU?$char_traits@D@std@@V?$allocator@D@2@@std@@@2@@std@@QAEAAV?$basic_string@DU?$char_traits@D@std@@V?$allocator@D@2@@2@I@Z ; std::vector<std::basic_string<char,std::char_traits<char>,std::allocator<char> >,std::allocator<std::basic_string<char,std::char_traits<char>,std::allocator<char> > > >::at
; File C:\Program Files (x86)\Microsoft Visual Studio\2019\Community\VC\Tools\MSVC\14.27.29110\include\xstring

; 2145 :         if (_Large_string_engaged()) {

  00e1e	83 78 14 10	 cmp	 DWORD PTR [eax+20], 16	; 00000010H
  00e22	72 02		 jb	 SHORT $LN767@Environmen

; 2146 :             _Result = _Unfancy(_Bx._Ptr);

  00e24	8b 00		 mov	 eax, DWORD PTR [eax]
$LN767@Environmen:
; File C:\DS Project\DS Files\Source\ClientSource\Client\GameLib\MapUtil.cpp

; 167  : 			envData.CloudGradientColor.m_SecondColor.a = atof(pTokenVectorCloudColor->at(7).c_str());

  00e26	50		 push	 eax
  00e27	e8 00 00 00 00	 call	 _atof
  00e2c	d9 9f 50 02 00
	00		 fstp	 DWORD PTR [edi+592]
  00e32	83 c4 04	 add	 esp, 4
$LN14@Environmen:

; 170  : 		BYTE byGradientCount = envData.bySkyBoxGradientLevelUpper+envData.bySkyBoxGradientLevelLower;

  00e35	8a 1b		 mov	 bl, BYTE PTR [ebx]
; File C:\Program Files (x86)\Microsoft Visual Studio\2019\Community\VC\Tools\MSVC\14.27.29110\include\xstring

; 2339 :         assign(_Ptr);

  00e37	8d 4d d8	 lea	 ecx, DWORD PTR $T14[ebp]
; File C:\DS Project\DS Files\Source\ClientSource\Client\GameLib\MapUtil.cpp

; 170  : 		BYTE byGradientCount = envData.bySkyBoxGradientLevelUpper+envData.bySkyBoxGradientLevelLower;

  00e3a	02 9f 6c 01 00
	00		 add	 bl, BYTE PTR [edi+364]
; File C:\Program Files (x86)\Microsoft Visual Studio\2019\Community\VC\Tools\MSVC\14.27.29110\include\xstring

; 2339 :         assign(_Ptr);

  00e40	68 00 00 00 00	 push	 OFFSET ??_C@_08OAOFNDBJ@gradient@

; 4293 :         _Mypair._Myval2._Mysize = 0;

  00e45	c7 45 e8 00 00
	00 00		 mov	 DWORD PTR $T14[ebp+16], 0

; 4294 :         _Mypair._Myval2._Myres  = _BUF_SIZE - 1;

  00e4c	c7 45 ec 0f 00
	00 00		 mov	 DWORD PTR $T14[ebp+20], 15 ; 0000000fH

; 4295 :         // the _Traits::assign is last so the codegen doesn't think the char write can alias this
; 4296 :         _Traits::assign(_Mypair._Myval2._Bx._Buf[0], _Elem());

  00e53	c6 45 d8 00	 mov	 BYTE PTR $T14[ebp], 0

; 2339 :         assign(_Ptr);

  00e57	e8 00 00 00 00	 call	 ?assign@?$basic_string@DU?$char_traits@D@std@@V?$allocator@D@2@@std@@QAEAAV12@QBD@Z ; std::basic_string<char,std::char_traits<char>,std::allocator<char> >::assign
; File C:\DS Project\DS Files\Source\ClientSource\Client\GameLib\MapUtil.cpp

; 172  : 		if (textLoader.GetTokenVector("gradient", &pTokenVector))

  00e5c	8d 85 38 ff ff
	ff		 lea	 eax, DWORD PTR _pTokenVector$5[ebp]
  00e62	c6 45 fc 25	 mov	 BYTE PTR __$EHRec$[ebp+8], 37 ; 00000025H
  00e66	50		 push	 eax
  00e67	8d 45 d8	 lea	 eax, DWORD PTR $T14[ebp]
  00e6a	50		 push	 eax
  00e6b	8d 8d 40 ff ff
	ff		 lea	 ecx, DWORD PTR _textLoader$[ebp]
  00e71	e8 00 00 00 00	 call	 ?GetTokenVector@CTextFileLoader@@QAEHABV?$basic_string@DU?$char_traits@D@std@@V?$allocator@D@2@@std@@PAPAV?$vector@V?$basic_string@DU?$char_traits@D@std@@V?$allocator@D@2@@std@@V?$allocator@V?$basic_string@DU?$char_traits@D@std@@V?$allocator@D@2@@std@@@2@@3@@Z ; CTextFileLoader::GetTokenVector
  00e76	8b f0		 mov	 esi, eax
  00e78	c6 45 fc 00	 mov	 BYTE PTR __$EHRec$[ebp+8], 0
; File C:\Program Files (x86)\Microsoft Visual Studio\2019\Community\VC\Tools\MSVC\14.27.29110\include\xstring

; 4301 :         if (_Mypair._Myval2._Large_string_engaged()) {

  00e7c	8b 45 ec	 mov	 eax, DWORD PTR $T14[ebp+20]
  00e7f	83 f8 10	 cmp	 eax, 16			; 00000010H
  00e82	72 0d		 jb	 SHORT $LN783@Environmen

; 4302 :             const pointer _Ptr = _Mypair._Myval2._Bx._Ptr;
; 4303 :             auto& _Al          = _Getal();
; 4304 :             _Destroy_in_place(_Mypair._Myval2._Bx._Ptr);
; 4305 :             _Al.deallocate(_Ptr, _Mypair._Myval2._Myres + 1);

  00e84	40		 inc	 eax
; File C:\Program Files (x86)\Microsoft Visual Studio\2019\Community\VC\Tools\MSVC\14.27.29110\include\xmemory

; 803  :         _Deallocate<_New_alignof<_Ty>>(_Ptr, sizeof(_Ty) * _Count);

  00e85	50		 push	 eax
  00e86	ff 75 d8	 push	 DWORD PTR $T14[ebp]
  00e89	e8 00 00 00 00	 call	 ??$_Deallocate@$07$0A@@std@@YAXPAXI@Z ; std::_Deallocate<8,0>
  00e8e	83 c4 08	 add	 esp, 8
$LN783@Environmen:
; File C:\DS Project\DS Files\Source\ClientSource\Client\GameLib\MapUtil.cpp

; 172  : 		if (textLoader.GetTokenVector("gradient", &pTokenVector))

  00e91	85 f6		 test	 esi, esi
  00e93	0f 84 77 03 00
	00		 je	 $LN3@Environmen
; File C:\Program Files (x86)\Microsoft Visual Studio\2019\Community\VC\Tools\MSVC\14.27.29110\include\vector

; 1484 :         return static_cast<size_type>(_My_data._Mylast - _My_data._Myfirst);

  00e99	8b 85 38 ff ff
	ff		 mov	 eax, DWORD PTR _pTokenVector$5[ebp]
  00e9f	8b 48 04	 mov	 ecx, DWORD PTR [eax+4]
  00ea2	2b 08		 sub	 ecx, DWORD PTR [eax]
  00ea4	b8 ab aa aa 2a	 mov	 eax, 715827883		; 2aaaaaabH
  00ea9	f7 e9		 imul	 ecx
  00eab	c1 fa 02	 sar	 edx, 2
  00eae	8b c2		 mov	 eax, edx
  00eb0	c1 e8 1f	 shr	 eax, 31			; 0000001fH
  00eb3	03 c2		 add	 eax, edx
; File C:\DS Project\DS Files\Source\ClientSource\Client\GameLib\MapUtil.cpp

; 173  : 		if (0 == pTokenVector->size()%8)

  00eb5	a8 07		 test	 al, 7
  00eb7	0f 85 53 03 00
	00		 jne	 $LN3@Environmen

; 174  : 		if (byGradientCount == pTokenVector->size()/8)

  00ebd	0f b6 f3	 movzx	 esi, bl
  00ec0	c1 e8 03	 shr	 eax, 3
  00ec3	89 b5 24 ff ff
	ff		 mov	 DWORD PTR $T2[ebp], esi
  00ec9	3b f0		 cmp	 esi, eax
  00ecb	0f 85 3f 03 00
	00		 jne	 $LN3@Environmen

; 175  : 		{
; 176  : 			envData.SkyBoxGradientColorVector.clear();

  00ed1	8b 8f 54 02 00
	00		 mov	 ecx, DWORD PTR [edi+596]
  00ed7	8d 9f 54 02 00
	00		 lea	 ebx, DWORD PTR [edi+596]
  00edd	89 4b 04	 mov	 DWORD PTR [ebx+4], ecx
; File C:\Program Files (x86)\Microsoft Visual Studio\2019\Community\VC\Tools\MSVC\14.27.29110\include\vector

; 1224 :         if (_Newsize > _Oldsize) { // append

  00ee0	85 f6		 test	 esi, esi
  00ee2	0f 84 28 03 00
	00		 je	 $LN3@Environmen

; 1225 :             const auto _Oldcapacity = static_cast<size_type>(_My_data._Myend - _Myfirst);

  00ee8	8b 43 08	 mov	 eax, DWORD PTR [ebx+8]
  00eeb	2b c1		 sub	 eax, ecx
  00eed	c1 f8 05	 sar	 eax, 5

; 1226 :             if (_Newsize > _Oldcapacity) { // reallocate

  00ef0	3b f0		 cmp	 esi, eax
  00ef2	76 11		 jbe	 SHORT $LN798@Environmen

; 1227 :                 _Resize_reallocate(_Newsize, _Val);

  00ef4	8d 85 2f ff ff
	ff		 lea	 eax, DWORD PTR $T3[ebp]
  00efa	8b cb		 mov	 ecx, ebx
  00efc	50		 push	 eax
  00efd	56		 push	 esi
  00efe	e8 00 00 00 00	 call	 ??$_Resize_reallocate@U_Value_init_tag@std@@@?$vector@UTGradientColor@@V?$allocator@UTGradientColor@@@std@@@std@@AAEXIABU_Value_init_tag@1@@Z ; std::vector<TGradientColor,std::allocator<TGradientColor> >::_Resize_reallocate<std::_Value_init_tag>

; 1228 :                 return;

  00f03	eb 14		 jmp	 SHORT $LN1019@Environmen
$LN798@Environmen:

; 1583 :         return _Uninitialized_value_construct_n(_Dest, _Count, _Getal());

  00f05	53		 push	 ebx
  00f06	56		 push	 esi
  00f07	51		 push	 ecx
  00f08	e8 00 00 00 00	 call	 ??$_Uninitialized_value_construct_n@V?$allocator@UTGradientColor@@@std@@@std@@YAPAUTGradientColor@@PAU1@IAAV?$allocator@UTGradientColor@@@0@@Z ; std::_Uninitialized_value_construct_n<std::allocator<TGradientColor> >
  00f0d	83 c4 0c	 add	 esp, 12			; 0000000cH

; 1232 :             _Mylast                = _Ufill(_Oldlast, _Newsize - _Oldsize, _Val);

  00f10	89 43 04	 mov	 DWORD PTR [ebx+4], eax
  00f13	89 b5 24 ff ff
	ff		 mov	 DWORD PTR $T2[ebp], esi
$LN1019@Environmen:
; File C:\DS Project\DS Files\Source\ClientSource\Client\GameLib\MapUtil.cpp

; 178  : 			for (DWORD i = 0; i < byGradientCount; ++i)

  00f19	be 02 00 00 00	 mov	 esi, 2
  00f1e	c7 85 3c ff ff
	ff 00 00 00 00	 mov	 DWORD PTR tv7236[ebp], 0
  00f28	89 b5 34 ff ff
	ff		 mov	 DWORD PTR tv7235[ebp], esi
  00f2e	c7 85 28 ff ff
	ff 00 00 00 00	 mov	 DWORD PTR _i$1$[ebp], 0
  00f38	8d 5e 2e	 lea	 ebx, DWORD PTR [esi+46]
  00f3b	0f 1f 44 00 00	 npad	 5
$LL4@Environmen:
; File C:\Program Files (x86)\Microsoft Visual Studio\2019\Community\VC\Tools\MSVC\14.27.29110\include\vector

; 1519 :         if (static_cast<size_type>(_My_data._Mylast - _My_data._Myfirst) <= _Pos) {

  00f40	8b 85 38 ff ff
	ff		 mov	 eax, DWORD PTR _pTokenVector$5[ebp]
  00f46	8b 10		 mov	 edx, DWORD PTR [eax]
  00f48	8b 48 04	 mov	 ecx, DWORD PTR [eax+4]
  00f4b	b8 ab aa aa 2a	 mov	 eax, 715827883		; 2aaaaaabH
  00f50	2b ca		 sub	 ecx, edx
  00f52	89 95 20 ff ff
	ff		 mov	 DWORD PTR tv7256[ebp], edx
  00f58	f7 e9		 imul	 ecx
  00f5a	8d 46 fe	 lea	 eax, DWORD PTR [esi-2]
  00f5d	c1 fa 02	 sar	 edx, 2
  00f60	8b ca		 mov	 ecx, edx
  00f62	c1 e9 1f	 shr	 ecx, 31			; 0000001fH
  00f65	03 ca		 add	 ecx, edx
  00f67	3b c8		 cmp	 ecx, eax
  00f69	0f 86 e6 04 00
	00		 jbe	 $LN1015@Environmen

; 1523 :         return _My_data._Myfirst[_Pos];

  00f6f	8b 85 20 ff ff
	ff		 mov	 eax, DWORD PTR tv7256[ebp]
  00f75	83 c0 d0	 add	 eax, -48		; ffffffd0H
  00f78	03 c3		 add	 eax, ebx
; File C:\Program Files (x86)\Microsoft Visual Studio\2019\Community\VC\Tools\MSVC\14.27.29110\include\xstring

; 2145 :         if (_Large_string_engaged()) {

  00f7a	83 78 14 10	 cmp	 DWORD PTR [eax+20], 16	; 00000010H
  00f7e	72 02		 jb	 SHORT $LN809@Environmen

; 2146 :             _Result = _Unfancy(_Bx._Ptr);

  00f80	8b 00		 mov	 eax, DWORD PTR [eax]
$LN809@Environmen:
; File C:\Program Files (x86)\Microsoft Visual Studio\2019\Community\VC\Tools\MSVC\14.27.29110\include\vector

; 1504 :         return _My_data._Myfirst[_Pos];

  00f82	8b b7 54 02 00
	00		 mov	 esi, DWORD PTR [edi+596]
  00f88	03 b5 3c ff ff
	ff		 add	 esi, DWORD PTR tv7236[ebp]
; File C:\DS Project\DS Files\Source\ClientSource\Client\GameLib\MapUtil.cpp

; 180  : 				envData.SkyBoxGradientColorVector[i].m_FirstColor.r = atof(pTokenVector->at(i*8+0).c_str());

  00f8e	50		 push	 eax
  00f8f	e8 00 00 00 00	 call	 _atof
  00f94	d9 1e		 fstp	 DWORD PTR [esi]
; File C:\Program Files (x86)\Microsoft Visual Studio\2019\Community\VC\Tools\MSVC\14.27.29110\include\vector

; 1519 :         if (static_cast<size_type>(_My_data._Mylast - _My_data._Myfirst) <= _Pos) {

  00f96	8b 85 38 ff ff
	ff		 mov	 eax, DWORD PTR _pTokenVector$5[ebp]
; File C:\DS Project\DS Files\Source\ClientSource\Client\GameLib\MapUtil.cpp

; 180  : 				envData.SkyBoxGradientColorVector[i].m_FirstColor.r = atof(pTokenVector->at(i*8+0).c_str());

  00f9c	83 c4 04	 add	 esp, 4
; File C:\Program Files (x86)\Microsoft Visual Studio\2019\Community\VC\Tools\MSVC\14.27.29110\include\vector

; 1519 :         if (static_cast<size_type>(_My_data._Mylast - _My_data._Myfirst) <= _Pos) {

  00f9f	8b 48 04	 mov	 ecx, DWORD PTR [eax+4]
  00fa2	8b 30		 mov	 esi, DWORD PTR [eax]
  00fa4	2b ce		 sub	 ecx, esi
  00fa6	b8 ab aa aa 2a	 mov	 eax, 715827883		; 2aaaaaabH
  00fab	f7 e9		 imul	 ecx
  00fad	8b 85 34 ff ff
	ff		 mov	 eax, DWORD PTR tv7235[ebp]
  00fb3	c1 fa 02	 sar	 edx, 2
  00fb6	48		 dec	 eax
  00fb7	8b ca		 mov	 ecx, edx
  00fb9	c1 e9 1f	 shr	 ecx, 31			; 0000001fH
  00fbc	03 ca		 add	 ecx, edx
  00fbe	3b c8		 cmp	 ecx, eax
  00fc0	0f 86 8f 04 00
	00		 jbe	 $LN1015@Environmen

; 1523 :         return _My_data._Myfirst[_Pos];

  00fc6	8d 46 e8	 lea	 eax, DWORD PTR [esi-24]
  00fc9	03 c3		 add	 eax, ebx
; File C:\Program Files (x86)\Microsoft Visual Studio\2019\Community\VC\Tools\MSVC\14.27.29110\include\xstring

; 2145 :         if (_Large_string_engaged()) {

  00fcb	83 78 14 10	 cmp	 DWORD PTR [eax+20], 16	; 00000010H
  00fcf	72 02		 jb	 SHORT $LN821@Environmen

; 2146 :             _Result = _Unfancy(_Bx._Ptr);

  00fd1	8b 00		 mov	 eax, DWORD PTR [eax]
$LN821@Environmen:
; File C:\Program Files (x86)\Microsoft Visual Studio\2019\Community\VC\Tools\MSVC\14.27.29110\include\vector

; 1504 :         return _My_data._Myfirst[_Pos];

  00fd3	8b b7 54 02 00
	00		 mov	 esi, DWORD PTR [edi+596]
  00fd9	03 b5 3c ff ff
	ff		 add	 esi, DWORD PTR tv7236[ebp]
; File C:\DS Project\DS Files\Source\ClientSource\Client\GameLib\MapUtil.cpp

; 181  : 				envData.SkyBoxGradientColorVector[i].m_FirstColor.g = atof(pTokenVector->at(i*8+1).c_str());

  00fdf	50		 push	 eax
  00fe0	e8 00 00 00 00	 call	 _atof
  00fe5	d9 5e 04	 fstp	 DWORD PTR [esi+4]
; File C:\Program Files (x86)\Microsoft Visual Studio\2019\Community\VC\Tools\MSVC\14.27.29110\include\vector

; 1519 :         if (static_cast<size_type>(_My_data._Mylast - _My_data._Myfirst) <= _Pos) {

  00fe8	8b 85 38 ff ff
	ff		 mov	 eax, DWORD PTR _pTokenVector$5[ebp]
; File C:\DS Project\DS Files\Source\ClientSource\Client\GameLib\MapUtil.cpp

; 181  : 				envData.SkyBoxGradientColorVector[i].m_FirstColor.g = atof(pTokenVector->at(i*8+1).c_str());

  00fee	83 c4 04	 add	 esp, 4
; File C:\Program Files (x86)\Microsoft Visual Studio\2019\Community\VC\Tools\MSVC\14.27.29110\include\vector

; 1519 :         if (static_cast<size_type>(_My_data._Mylast - _My_data._Myfirst) <= _Pos) {

  00ff1	8b 48 04	 mov	 ecx, DWORD PTR [eax+4]
  00ff4	8b 30		 mov	 esi, DWORD PTR [eax]
  00ff6	2b ce		 sub	 ecx, esi
  00ff8	b8 ab aa aa 2a	 mov	 eax, 715827883		; 2aaaaaabH
  00ffd	f7 e9		 imul	 ecx
  00fff	c1 fa 02	 sar	 edx, 2
  01002	8b c2		 mov	 eax, edx
  01004	c1 e8 1f	 shr	 eax, 31			; 0000001fH
  01007	03 c2		 add	 eax, edx
  01009	3b 85 34 ff ff
	ff		 cmp	 eax, DWORD PTR tv7235[ebp]
  0100f	0f 86 40 04 00
	00		 jbe	 $LN1015@Environmen
; File C:\Program Files (x86)\Microsoft Visual Studio\2019\Community\VC\Tools\MSVC\14.27.29110\include\xstring

; 2145 :         if (_Large_string_engaged()) {

  01015	83 7c 1e 14 10	 cmp	 DWORD PTR [esi+ebx+20], 16 ; 00000010H
; File C:\Program Files (x86)\Microsoft Visual Studio\2019\Community\VC\Tools\MSVC\14.27.29110\include\vector

; 1523 :         return _My_data._Myfirst[_Pos];

  0101a	8d 04 1e	 lea	 eax, DWORD PTR [esi+ebx]
; File C:\Program Files (x86)\Microsoft Visual Studio\2019\Community\VC\Tools\MSVC\14.27.29110\include\xstring

; 2145 :         if (_Large_string_engaged()) {

  0101d	72 02		 jb	 SHORT $LN833@Environmen

; 2146 :             _Result = _Unfancy(_Bx._Ptr);

  0101f	8b 00		 mov	 eax, DWORD PTR [eax]
$LN833@Environmen:
; File C:\Program Files (x86)\Microsoft Visual Studio\2019\Community\VC\Tools\MSVC\14.27.29110\include\vector

; 1504 :         return _My_data._Myfirst[_Pos];

  01021	8b b7 54 02 00
	00		 mov	 esi, DWORD PTR [edi+596]
  01027	03 b5 3c ff ff
	ff		 add	 esi, DWORD PTR tv7236[ebp]
; File C:\DS Project\DS Files\Source\ClientSource\Client\GameLib\MapUtil.cpp

; 182  : 				envData.SkyBoxGradientColorVector[i].m_FirstColor.b = atof(pTokenVector->at(i*8+2).c_str());

  0102d	50		 push	 eax
  0102e	e8 00 00 00 00	 call	 _atof
  01033	d9 5e 08	 fstp	 DWORD PTR [esi+8]
; File C:\Program Files (x86)\Microsoft Visual Studio\2019\Community\VC\Tools\MSVC\14.27.29110\include\vector

; 1519 :         if (static_cast<size_type>(_My_data._Mylast - _My_data._Myfirst) <= _Pos) {

  01036	8b 85 38 ff ff
	ff		 mov	 eax, DWORD PTR _pTokenVector$5[ebp]
; File C:\DS Project\DS Files\Source\ClientSource\Client\GameLib\MapUtil.cpp

; 182  : 				envData.SkyBoxGradientColorVector[i].m_FirstColor.b = atof(pTokenVector->at(i*8+2).c_str());

  0103c	83 c4 04	 add	 esp, 4
; File C:\Program Files (x86)\Microsoft Visual Studio\2019\Community\VC\Tools\MSVC\14.27.29110\include\vector

; 1519 :         if (static_cast<size_type>(_My_data._Mylast - _My_data._Myfirst) <= _Pos) {

  0103f	8b 48 04	 mov	 ecx, DWORD PTR [eax+4]
  01042	8b 30		 mov	 esi, DWORD PTR [eax]
  01044	2b ce		 sub	 ecx, esi
  01046	b8 ab aa aa 2a	 mov	 eax, 715827883		; 2aaaaaabH
  0104b	f7 e9		 imul	 ecx
  0104d	8b 85 34 ff ff
	ff		 mov	 eax, DWORD PTR tv7235[ebp]
  01053	c1 fa 02	 sar	 edx, 2
  01056	40		 inc	 eax
  01057	8b ca		 mov	 ecx, edx
  01059	c1 e9 1f	 shr	 ecx, 31			; 0000001fH
  0105c	03 ca		 add	 ecx, edx
  0105e	3b c8		 cmp	 ecx, eax
  01060	0f 86 ef 03 00
	00		 jbe	 $LN1015@Environmen

; 1523 :         return _My_data._Myfirst[_Pos];

  01066	8d 46 18	 lea	 eax, DWORD PTR [esi+24]
  01069	03 c3		 add	 eax, ebx
; File C:\Program Files (x86)\Microsoft Visual Studio\2019\Community\VC\Tools\MSVC\14.27.29110\include\xstring

; 2145 :         if (_Large_string_engaged()) {

  0106b	83 78 14 10	 cmp	 DWORD PTR [eax+20], 16	; 00000010H
  0106f	72 02		 jb	 SHORT $LN845@Environmen

; 2146 :             _Result = _Unfancy(_Bx._Ptr);

  01071	8b 00		 mov	 eax, DWORD PTR [eax]
$LN845@Environmen:
; File C:\Program Files (x86)\Microsoft Visual Studio\2019\Community\VC\Tools\MSVC\14.27.29110\include\vector

; 1504 :         return _My_data._Myfirst[_Pos];

  01073	8b b7 54 02 00
	00		 mov	 esi, DWORD PTR [edi+596]
  01079	03 b5 3c ff ff
	ff		 add	 esi, DWORD PTR tv7236[ebp]
; File C:\DS Project\DS Files\Source\ClientSource\Client\GameLib\MapUtil.cpp

; 183  : 				envData.SkyBoxGradientColorVector[i].m_FirstColor.a = atof(pTokenVector->at(i*8+3).c_str());

  0107f	50		 push	 eax
  01080	e8 00 00 00 00	 call	 _atof
  01085	d9 5e 0c	 fstp	 DWORD PTR [esi+12]
; File C:\Program Files (x86)\Microsoft Visual Studio\2019\Community\VC\Tools\MSVC\14.27.29110\include\vector

; 1519 :         if (static_cast<size_type>(_My_data._Mylast - _My_data._Myfirst) <= _Pos) {

  01088	8b 85 38 ff ff
	ff		 mov	 eax, DWORD PTR _pTokenVector$5[ebp]
; File C:\DS Project\DS Files\Source\ClientSource\Client\GameLib\MapUtil.cpp

; 183  : 				envData.SkyBoxGradientColorVector[i].m_FirstColor.a = atof(pTokenVector->at(i*8+3).c_str());

  0108e	83 c4 04	 add	 esp, 4
; File C:\Program Files (x86)\Microsoft Visual Studio\2019\Community\VC\Tools\MSVC\14.27.29110\include\vector

; 1519 :         if (static_cast<size_type>(_My_data._Mylast - _My_data._Myfirst) <= _Pos) {

  01091	8b 48 04	 mov	 ecx, DWORD PTR [eax+4]
  01094	8b 30		 mov	 esi, DWORD PTR [eax]
  01096	2b ce		 sub	 ecx, esi
  01098	b8 ab aa aa 2a	 mov	 eax, 715827883		; 2aaaaaabH
  0109d	f7 e9		 imul	 ecx
  0109f	8b 85 34 ff ff
	ff		 mov	 eax, DWORD PTR tv7235[ebp]
  010a5	c1 fa 02	 sar	 edx, 2
  010a8	83 c0 02	 add	 eax, 2
  010ab	8b ca		 mov	 ecx, edx
  010ad	c1 e9 1f	 shr	 ecx, 31			; 0000001fH
  010b0	03 ca		 add	 ecx, edx
  010b2	3b c8		 cmp	 ecx, eax
  010b4	0f 86 9b 03 00
	00		 jbe	 $LN1015@Environmen

; 1523 :         return _My_data._Myfirst[_Pos];

  010ba	8d 46 30	 lea	 eax, DWORD PTR [esi+48]
  010bd	03 c3		 add	 eax, ebx
; File C:\Program Files (x86)\Microsoft Visual Studio\2019\Community\VC\Tools\MSVC\14.27.29110\include\xstring

; 2145 :         if (_Large_string_engaged()) {

  010bf	83 78 14 10	 cmp	 DWORD PTR [eax+20], 16	; 00000010H
  010c3	72 02		 jb	 SHORT $LN857@Environmen

; 2146 :             _Result = _Unfancy(_Bx._Ptr);

  010c5	8b 00		 mov	 eax, DWORD PTR [eax]
$LN857@Environmen:
; File C:\Program Files (x86)\Microsoft Visual Studio\2019\Community\VC\Tools\MSVC\14.27.29110\include\vector

; 1504 :         return _My_data._Myfirst[_Pos];

  010c7	8b b7 54 02 00
	00		 mov	 esi, DWORD PTR [edi+596]
  010cd	03 b5 3c ff ff
	ff		 add	 esi, DWORD PTR tv7236[ebp]
; File C:\DS Project\DS Files\Source\ClientSource\Client\GameLib\MapUtil.cpp

; 185  : 				envData.SkyBoxGradientColorVector[i].m_SecondColor.r = atof(pTokenVector->at(i*8+4).c_str());

  010d3	50		 push	 eax
  010d4	e8 00 00 00 00	 call	 _atof
  010d9	d9 5e 10	 fstp	 DWORD PTR [esi+16]
; File C:\Program Files (x86)\Microsoft Visual Studio\2019\Community\VC\Tools\MSVC\14.27.29110\include\vector

; 1519 :         if (static_cast<size_type>(_My_data._Mylast - _My_data._Myfirst) <= _Pos) {

  010dc	8b 85 38 ff ff
	ff		 mov	 eax, DWORD PTR _pTokenVector$5[ebp]
; File C:\DS Project\DS Files\Source\ClientSource\Client\GameLib\MapUtil.cpp

; 185  : 				envData.SkyBoxGradientColorVector[i].m_SecondColor.r = atof(pTokenVector->at(i*8+4).c_str());

  010e2	83 c4 04	 add	 esp, 4
; File C:\Program Files (x86)\Microsoft Visual Studio\2019\Community\VC\Tools\MSVC\14.27.29110\include\vector

; 1519 :         if (static_cast<size_type>(_My_data._Mylast - _My_data._Myfirst) <= _Pos) {

  010e5	8b 48 04	 mov	 ecx, DWORD PTR [eax+4]
  010e8	8b 30		 mov	 esi, DWORD PTR [eax]
  010ea	2b ce		 sub	 ecx, esi
  010ec	b8 ab aa aa 2a	 mov	 eax, 715827883		; 2aaaaaabH
  010f1	f7 e9		 imul	 ecx
  010f3	8b 85 34 ff ff
	ff		 mov	 eax, DWORD PTR tv7235[ebp]
  010f9	c1 fa 02	 sar	 edx, 2
  010fc	83 c0 03	 add	 eax, 3
  010ff	8b ca		 mov	 ecx, edx
  01101	c1 e9 1f	 shr	 ecx, 31			; 0000001fH
  01104	03 ca		 add	 ecx, edx
  01106	3b c8		 cmp	 ecx, eax
  01108	0f 86 47 03 00
	00		 jbe	 $LN1015@Environmen

; 1523 :         return _My_data._Myfirst[_Pos];

  0110e	8d 46 48	 lea	 eax, DWORD PTR [esi+72]
  01111	03 c3		 add	 eax, ebx
; File C:\Program Files (x86)\Microsoft Visual Studio\2019\Community\VC\Tools\MSVC\14.27.29110\include\xstring

; 2145 :         if (_Large_string_engaged()) {

  01113	83 78 14 10	 cmp	 DWORD PTR [eax+20], 16	; 00000010H
  01117	72 02		 jb	 SHORT $LN869@Environmen

; 2146 :             _Result = _Unfancy(_Bx._Ptr);

  01119	8b 00		 mov	 eax, DWORD PTR [eax]
$LN869@Environmen:
; File C:\Program Files (x86)\Microsoft Visual Studio\2019\Community\VC\Tools\MSVC\14.27.29110\include\vector

; 1504 :         return _My_data._Myfirst[_Pos];

  0111b	8b b7 54 02 00
	00		 mov	 esi, DWORD PTR [edi+596]
  01121	03 b5 3c ff ff
	ff		 add	 esi, DWORD PTR tv7236[ebp]
; File C:\DS Project\DS Files\Source\ClientSource\Client\GameLib\MapUtil.cpp

; 186  : 				envData.SkyBoxGradientColorVector[i].m_SecondColor.g = atof(pTokenVector->at(i*8+5).c_str());

  01127	50		 push	 eax
  01128	e8 00 00 00 00	 call	 _atof
  0112d	d9 5e 14	 fstp	 DWORD PTR [esi+20]
; File C:\Program Files (x86)\Microsoft Visual Studio\2019\Community\VC\Tools\MSVC\14.27.29110\include\vector

; 1519 :         if (static_cast<size_type>(_My_data._Mylast - _My_data._Myfirst) <= _Pos) {

  01130	8b 85 38 ff ff
	ff		 mov	 eax, DWORD PTR _pTokenVector$5[ebp]
; File C:\DS Project\DS Files\Source\ClientSource\Client\GameLib\MapUtil.cpp

; 186  : 				envData.SkyBoxGradientColorVector[i].m_SecondColor.g = atof(pTokenVector->at(i*8+5).c_str());

  01136	83 c4 04	 add	 esp, 4
; File C:\Program Files (x86)\Microsoft Visual Studio\2019\Community\VC\Tools\MSVC\14.27.29110\include\vector

; 1519 :         if (static_cast<size_type>(_My_data._Mylast - _My_data._Myfirst) <= _Pos) {

  01139	8b 48 04	 mov	 ecx, DWORD PTR [eax+4]
  0113c	8b 30		 mov	 esi, DWORD PTR [eax]
  0113e	2b ce		 sub	 ecx, esi
  01140	b8 ab aa aa 2a	 mov	 eax, 715827883		; 2aaaaaabH
  01145	f7 e9		 imul	 ecx
  01147	8b 85 34 ff ff
	ff		 mov	 eax, DWORD PTR tv7235[ebp]
  0114d	c1 fa 02	 sar	 edx, 2
  01150	83 c0 04	 add	 eax, 4
  01153	8b ca		 mov	 ecx, edx
  01155	c1 e9 1f	 shr	 ecx, 31			; 0000001fH
  01158	03 ca		 add	 ecx, edx
  0115a	3b c8		 cmp	 ecx, eax
  0115c	0f 86 f3 02 00
	00		 jbe	 $LN1015@Environmen

; 1523 :         return _My_data._Myfirst[_Pos];

  01162	8d 46 60	 lea	 eax, DWORD PTR [esi+96]
  01165	03 c3		 add	 eax, ebx
; File C:\Program Files (x86)\Microsoft Visual Studio\2019\Community\VC\Tools\MSVC\14.27.29110\include\xstring

; 2145 :         if (_Large_string_engaged()) {

  01167	83 78 14 10	 cmp	 DWORD PTR [eax+20], 16	; 00000010H
  0116b	72 02		 jb	 SHORT $LN881@Environmen

; 2146 :             _Result = _Unfancy(_Bx._Ptr);

  0116d	8b 00		 mov	 eax, DWORD PTR [eax]
$LN881@Environmen:
; File C:\Program Files (x86)\Microsoft Visual Studio\2019\Community\VC\Tools\MSVC\14.27.29110\include\vector

; 1504 :         return _My_data._Myfirst[_Pos];

  0116f	8b b7 54 02 00
	00		 mov	 esi, DWORD PTR [edi+596]
  01175	03 b5 3c ff ff
	ff		 add	 esi, DWORD PTR tv7236[ebp]
; File C:\DS Project\DS Files\Source\ClientSource\Client\GameLib\MapUtil.cpp

; 187  : 				envData.SkyBoxGradientColorVector[i].m_SecondColor.b = atof(pTokenVector->at(i*8+6).c_str());

  0117b	50		 push	 eax
  0117c	e8 00 00 00 00	 call	 _atof
  01181	d9 5e 18	 fstp	 DWORD PTR [esi+24]
; File C:\Program Files (x86)\Microsoft Visual Studio\2019\Community\VC\Tools\MSVC\14.27.29110\include\vector

; 1519 :         if (static_cast<size_type>(_My_data._Mylast - _My_data._Myfirst) <= _Pos) {

  01184	8b 85 38 ff ff
	ff		 mov	 eax, DWORD PTR _pTokenVector$5[ebp]
; File C:\DS Project\DS Files\Source\ClientSource\Client\GameLib\MapUtil.cpp

; 187  : 				envData.SkyBoxGradientColorVector[i].m_SecondColor.b = atof(pTokenVector->at(i*8+6).c_str());

  0118a	83 c4 04	 add	 esp, 4
; File C:\Program Files (x86)\Microsoft Visual Studio\2019\Community\VC\Tools\MSVC\14.27.29110\include\vector

; 1519 :         if (static_cast<size_type>(_My_data._Mylast - _My_data._Myfirst) <= _Pos) {

  0118d	8b 48 04	 mov	 ecx, DWORD PTR [eax+4]
  01190	8b 30		 mov	 esi, DWORD PTR [eax]
  01192	2b ce		 sub	 ecx, esi
  01194	b8 ab aa aa 2a	 mov	 eax, 715827883		; 2aaaaaabH
  01199	f7 e9		 imul	 ecx
  0119b	8b 85 34 ff ff
	ff		 mov	 eax, DWORD PTR tv7235[ebp]
  011a1	c1 fa 02	 sar	 edx, 2
  011a4	83 c0 05	 add	 eax, 5
  011a7	8b ca		 mov	 ecx, edx
  011a9	c1 e9 1f	 shr	 ecx, 31			; 0000001fH
  011ac	03 ca		 add	 ecx, edx
  011ae	3b c8		 cmp	 ecx, eax
  011b0	0f 86 9f 02 00
	00		 jbe	 $LN1015@Environmen

; 1523 :         return _My_data._Myfirst[_Pos];

  011b6	8d 46 78	 lea	 eax, DWORD PTR [esi+120]
  011b9	03 c3		 add	 eax, ebx
; File C:\Program Files (x86)\Microsoft Visual Studio\2019\Community\VC\Tools\MSVC\14.27.29110\include\xstring

; 2145 :         if (_Large_string_engaged()) {

  011bb	83 78 14 10	 cmp	 DWORD PTR [eax+20], 16	; 00000010H
  011bf	72 02		 jb	 SHORT $LN893@Environmen

; 2146 :             _Result = _Unfancy(_Bx._Ptr);

  011c1	8b 00		 mov	 eax, DWORD PTR [eax]
$LN893@Environmen:
; File C:\Program Files (x86)\Microsoft Visual Studio\2019\Community\VC\Tools\MSVC\14.27.29110\include\vector

; 1504 :         return _My_data._Myfirst[_Pos];

  011c3	8b b7 54 02 00
	00		 mov	 esi, DWORD PTR [edi+596]
  011c9	03 b5 3c ff ff
	ff		 add	 esi, DWORD PTR tv7236[ebp]
; File C:\DS Project\DS Files\Source\ClientSource\Client\GameLib\MapUtil.cpp

; 188  : 				envData.SkyBoxGradientColorVector[i].m_SecondColor.a = atof(pTokenVector->at(i*8+7).c_str());

  011cf	50		 push	 eax
  011d0	e8 00 00 00 00	 call	 _atof
  011d5	8b 85 28 ff ff
	ff		 mov	 eax, DWORD PTR _i$1$[ebp]
  011db	83 c4 04	 add	 esp, 4
  011de	83 85 3c ff ff
	ff 20		 add	 DWORD PTR tv7236[ebp], 32 ; 00000020H
  011e5	40		 inc	 eax
  011e6	d9 5e 1c	 fstp	 DWORD PTR [esi+28]
  011e9	8b b5 34 ff ff
	ff		 mov	 esi, DWORD PTR tv7235[ebp]
  011ef	81 c3 c0 00 00
	00		 add	 ebx, 192		; 000000c0H
  011f5	83 c6 08	 add	 esi, 8
  011f8	89 85 28 ff ff
	ff		 mov	 DWORD PTR _i$1$[ebp], eax
  011fe	89 b5 34 ff ff
	ff		 mov	 DWORD PTR tv7235[ebp], esi
  01204	3b 85 24 ff ff
	ff		 cmp	 eax, DWORD PTR $T2[ebp]
  0120a	0f 82 30 fd ff
	ff		 jb	 $LL4@Environmen
$LN3@Environmen:

; 189  : 			}
; 190  : 		}
; 191  : 
; 192  : 		textLoader.SetParentNode();

  01210	8d 8d 40 ff ff
	ff		 lea	 ecx, DWORD PTR _textLoader$[ebp]
  01216	e8 00 00 00 00	 call	 ?SetParentNode@CTextFileLoader@@QAEHXZ ; CTextFileLoader::SetParentNode
$LN12@Environmen:

; 193  : 	}
; 194  : 
; 195  : 	if (textLoader.SetChildNode("lensflare"))

  0121b	68 00 00 00 00	 push	 OFFSET ??_C@_09JHLBAKBC@lensflare@
  01220	8d 8d 40 ff ff
	ff		 lea	 ecx, DWORD PTR _textLoader$[ebp]
  01226	e8 00 00 00 00	 call	 ?SetChildNode@CTextFileLoader@@QAEHPBD@Z ; CTextFileLoader::SetChildNode
  0122b	85 c0		 test	 eax, eax
  0122d	0f 84 f7 01 00
	00		 je	 $LN18@Environmen
; File C:\Program Files (x86)\Microsoft Visual Studio\2019\Community\VC\Tools\MSVC\14.27.29110\include\xstring

; 2339 :         assign(_Ptr);

  01233	68 00 00 00 00	 push	 OFFSET ??_C@_06OFNJOBDK@enable@
  01238	8d 4d d8	 lea	 ecx, DWORD PTR $T13[ebp]

; 4293 :         _Mypair._Myval2._Mysize = 0;

  0123b	c7 45 e8 00 00
	00 00		 mov	 DWORD PTR $T13[ebp+16], 0

; 4294 :         _Mypair._Myval2._Myres  = _BUF_SIZE - 1;

  01242	c7 45 ec 0f 00
	00 00		 mov	 DWORD PTR $T13[ebp+20], 15 ; 0000000fH

; 4295 :         // the _Traits::assign is last so the codegen doesn't think the char write can alias this
; 4296 :         _Traits::assign(_Mypair._Myval2._Bx._Buf[0], _Elem());

  01249	c6 45 d8 00	 mov	 BYTE PTR $T13[ebp], 0

; 2339 :         assign(_Ptr);

  0124d	e8 00 00 00 00	 call	 ?assign@?$basic_string@DU?$char_traits@D@std@@V?$allocator@D@2@@std@@QAEAAV12@QBD@Z ; std::basic_string<char,std::char_traits<char>,std::allocator<char> >::assign
; File C:\DS Project\DS Files\Source\ClientSource\Client\GameLib\MapUtil.cpp

; 197  : 		textLoader.GetTokenBoolean("enable", &envData.bLensFlareEnable);

  01252	8d 87 60 02 00
	00		 lea	 eax, DWORD PTR [edi+608]
  01258	c6 45 fc 26	 mov	 BYTE PTR __$EHRec$[ebp+8], 38 ; 00000026H
  0125c	50		 push	 eax
  0125d	8d 45 d8	 lea	 eax, DWORD PTR $T13[ebp]
  01260	50		 push	 eax
  01261	8d 8d 40 ff ff
	ff		 lea	 ecx, DWORD PTR _textLoader$[ebp]
  01267	e8 00 00 00 00	 call	 ?GetTokenBoolean@CTextFileLoader@@QAEHABV?$basic_string@DU?$char_traits@D@std@@V?$allocator@D@2@@std@@PAH@Z ; CTextFileLoader::GetTokenBoolean
; File C:\Program Files (x86)\Microsoft Visual Studio\2019\Community\VC\Tools\MSVC\14.27.29110\include\xstring

; 4301 :         if (_Mypair._Myval2._Large_string_engaged()) {

  0126c	8b 45 ec	 mov	 eax, DWORD PTR $T13[ebp+20]
; File C:\DS Project\DS Files\Source\ClientSource\Client\GameLib\MapUtil.cpp

; 197  : 		textLoader.GetTokenBoolean("enable", &envData.bLensFlareEnable);

  0126f	c6 45 fc 00	 mov	 BYTE PTR __$EHRec$[ebp+8], 0
; File C:\Program Files (x86)\Microsoft Visual Studio\2019\Community\VC\Tools\MSVC\14.27.29110\include\xstring

; 4301 :         if (_Mypair._Myval2._Large_string_engaged()) {

  01273	83 f8 10	 cmp	 eax, 16			; 00000010H
  01276	72 0d		 jb	 SHORT $LN911@Environmen

; 4302 :             const pointer _Ptr = _Mypair._Myval2._Bx._Ptr;
; 4303 :             auto& _Al          = _Getal();
; 4304 :             _Destroy_in_place(_Mypair._Myval2._Bx._Ptr);
; 4305 :             _Al.deallocate(_Ptr, _Mypair._Myval2._Myres + 1);

  01278	40		 inc	 eax
; File C:\Program Files (x86)\Microsoft Visual Studio\2019\Community\VC\Tools\MSVC\14.27.29110\include\xmemory

; 803  :         _Deallocate<_New_alignof<_Ty>>(_Ptr, sizeof(_Ty) * _Count);

  01279	50		 push	 eax
  0127a	ff 75 d8	 push	 DWORD PTR $T13[ebp]
  0127d	e8 00 00 00 00	 call	 ??$_Deallocate@$07$0A@@std@@YAXPAXI@Z ; std::_Deallocate<8,0>
  01282	83 c4 08	 add	 esp, 8
$LN911@Environmen:
; File C:\Program Files (x86)\Microsoft Visual Studio\2019\Community\VC\Tools\MSVC\14.27.29110\include\xstring

; 2339 :         assign(_Ptr);

  01285	68 00 00 00 00	 push	 OFFSET ??_C@_0BA@KOCEAOMM@brightnesscolor@
  0128a	8d 4d d8	 lea	 ecx, DWORD PTR $T12[ebp]

; 4293 :         _Mypair._Myval2._Mysize = 0;

  0128d	c7 45 e8 00 00
	00 00		 mov	 DWORD PTR $T12[ebp+16], 0

; 4294 :         _Mypair._Myval2._Myres  = _BUF_SIZE - 1;

  01294	c7 45 ec 0f 00
	00 00		 mov	 DWORD PTR $T12[ebp+20], 15 ; 0000000fH

; 4295 :         // the _Traits::assign is last so the codegen doesn't think the char write can alias this
; 4296 :         _Traits::assign(_Mypair._Myval2._Bx._Buf[0], _Elem());

  0129b	c6 45 d8 00	 mov	 BYTE PTR $T12[ebp], 0

; 2339 :         assign(_Ptr);

  0129f	e8 00 00 00 00	 call	 ?assign@?$basic_string@DU?$char_traits@D@std@@V?$allocator@D@2@@std@@QAEAAV12@QBD@Z ; std::basic_string<char,std::char_traits<char>,std::allocator<char> >::assign
; File C:\DS Project\DS Files\Source\ClientSource\Client\GameLib\MapUtil.cpp

; 198  : 		textLoader.GetTokenColor("brightnesscolor", &envData.LensFlareBrightnessColor);

  012a4	8d 87 64 02 00
	00		 lea	 eax, DWORD PTR [edi+612]
  012aa	c6 45 fc 27	 mov	 BYTE PTR __$EHRec$[ebp+8], 39 ; 00000027H
  012ae	50		 push	 eax
  012af	8d 45 d8	 lea	 eax, DWORD PTR $T12[ebp]
  012b2	50		 push	 eax
  012b3	8d 8d 40 ff ff
	ff		 lea	 ecx, DWORD PTR _textLoader$[ebp]
  012b9	e8 00 00 00 00	 call	 ?GetTokenColor@CTextFileLoader@@QAEHABV?$basic_string@DU?$char_traits@D@std@@V?$allocator@D@2@@std@@PAUD3DXCOLOR@@@Z ; CTextFileLoader::GetTokenColor
; File C:\Program Files (x86)\Microsoft Visual Studio\2019\Community\VC\Tools\MSVC\14.27.29110\include\xstring

; 4301 :         if (_Mypair._Myval2._Large_string_engaged()) {

  012be	8b 45 ec	 mov	 eax, DWORD PTR $T12[ebp+20]
; File C:\DS Project\DS Files\Source\ClientSource\Client\GameLib\MapUtil.cpp

; 198  : 		textLoader.GetTokenColor("brightnesscolor", &envData.LensFlareBrightnessColor);

  012c1	c6 45 fc 00	 mov	 BYTE PTR __$EHRec$[ebp+8], 0
; File C:\Program Files (x86)\Microsoft Visual Studio\2019\Community\VC\Tools\MSVC\14.27.29110\include\xstring

; 4301 :         if (_Mypair._Myval2._Large_string_engaged()) {

  012c5	83 f8 10	 cmp	 eax, 16			; 00000010H
  012c8	72 0d		 jb	 SHORT $LN929@Environmen

; 4302 :             const pointer _Ptr = _Mypair._Myval2._Bx._Ptr;
; 4303 :             auto& _Al          = _Getal();
; 4304 :             _Destroy_in_place(_Mypair._Myval2._Bx._Ptr);
; 4305 :             _Al.deallocate(_Ptr, _Mypair._Myval2._Myres + 1);

  012ca	40		 inc	 eax
; File C:\Program Files (x86)\Microsoft Visual Studio\2019\Community\VC\Tools\MSVC\14.27.29110\include\xmemory

; 803  :         _Deallocate<_New_alignof<_Ty>>(_Ptr, sizeof(_Ty) * _Count);

  012cb	50		 push	 eax
  012cc	ff 75 d8	 push	 DWORD PTR $T12[ebp]
  012cf	e8 00 00 00 00	 call	 ??$_Deallocate@$07$0A@@std@@YAXPAXI@Z ; std::_Deallocate<8,0>
  012d4	83 c4 08	 add	 esp, 8
$LN929@Environmen:
; File C:\Program Files (x86)\Microsoft Visual Studio\2019\Community\VC\Tools\MSVC\14.27.29110\include\xstring

; 2339 :         assign(_Ptr);

  012d7	68 00 00 00 00	 push	 OFFSET ??_C@_0O@GEBPBGOO@maxbrightness@
  012dc	8d 4d d8	 lea	 ecx, DWORD PTR $T11[ebp]

; 4293 :         _Mypair._Myval2._Mysize = 0;

  012df	c7 45 e8 00 00
	00 00		 mov	 DWORD PTR $T11[ebp+16], 0

; 4294 :         _Mypair._Myval2._Myres  = _BUF_SIZE - 1;

  012e6	c7 45 ec 0f 00
	00 00		 mov	 DWORD PTR $T11[ebp+20], 15 ; 0000000fH

; 4295 :         // the _Traits::assign is last so the codegen doesn't think the char write can alias this
; 4296 :         _Traits::assign(_Mypair._Myval2._Bx._Buf[0], _Elem());

  012ed	c6 45 d8 00	 mov	 BYTE PTR $T11[ebp], 0

; 2339 :         assign(_Ptr);

  012f1	e8 00 00 00 00	 call	 ?assign@?$basic_string@DU?$char_traits@D@std@@V?$allocator@D@2@@std@@QAEAAV12@QBD@Z ; std::basic_string<char,std::char_traits<char>,std::allocator<char> >::assign
; File C:\DS Project\DS Files\Source\ClientSource\Client\GameLib\MapUtil.cpp

; 199  : 		textLoader.GetTokenFloat("maxbrightness", &envData.fLensFlareMaxBrightness);

  012f6	8d 87 74 02 00
	00		 lea	 eax, DWORD PTR [edi+628]
  012fc	c6 45 fc 28	 mov	 BYTE PTR __$EHRec$[ebp+8], 40 ; 00000028H
  01300	50		 push	 eax
  01301	8d 45 d8	 lea	 eax, DWORD PTR $T11[ebp]
  01304	50		 push	 eax
  01305	8d 8d 40 ff ff
	ff		 lea	 ecx, DWORD PTR _textLoader$[ebp]
  0130b	e8 00 00 00 00	 call	 ?GetTokenFloat@CTextFileLoader@@QAEHABV?$basic_string@DU?$char_traits@D@std@@V?$allocator@D@2@@std@@PAM@Z ; CTextFileLoader::GetTokenFloat
; File C:\Program Files (x86)\Microsoft Visual Studio\2019\Community\VC\Tools\MSVC\14.27.29110\include\xstring

; 4301 :         if (_Mypair._Myval2._Large_string_engaged()) {

  01310	8b 45 ec	 mov	 eax, DWORD PTR $T11[ebp+20]
; File C:\DS Project\DS Files\Source\ClientSource\Client\GameLib\MapUtil.cpp

; 199  : 		textLoader.GetTokenFloat("maxbrightness", &envData.fLensFlareMaxBrightness);

  01313	c6 45 fc 00	 mov	 BYTE PTR __$EHRec$[ebp+8], 0
; File C:\Program Files (x86)\Microsoft Visual Studio\2019\Community\VC\Tools\MSVC\14.27.29110\include\xstring

; 4301 :         if (_Mypair._Myval2._Large_string_engaged()) {

  01317	83 f8 10	 cmp	 eax, 16			; 00000010H
  0131a	72 0d		 jb	 SHORT $LN947@Environmen

; 4302 :             const pointer _Ptr = _Mypair._Myval2._Bx._Ptr;
; 4303 :             auto& _Al          = _Getal();
; 4304 :             _Destroy_in_place(_Mypair._Myval2._Bx._Ptr);
; 4305 :             _Al.deallocate(_Ptr, _Mypair._Myval2._Myres + 1);

  0131c	40		 inc	 eax
; File C:\Program Files (x86)\Microsoft Visual Studio\2019\Community\VC\Tools\MSVC\14.27.29110\include\xmemory

; 803  :         _Deallocate<_New_alignof<_Ty>>(_Ptr, sizeof(_Ty) * _Count);

  0131d	50		 push	 eax
  0131e	ff 75 d8	 push	 DWORD PTR $T11[ebp]
  01321	e8 00 00 00 00	 call	 ??$_Deallocate@$07$0A@@std@@YAXPAXI@Z ; std::_Deallocate<8,0>
  01326	83 c4 08	 add	 esp, 8
$LN947@Environmen:
; File C:\Program Files (x86)\Microsoft Visual Studio\2019\Community\VC\Tools\MSVC\14.27.29110\include\xstring

; 2339 :         assign(_Ptr);

  01329	68 00 00 00 00	 push	 OFFSET ??_C@_0BA@GMIEGFJG@mainflareenable@
  0132e	8d 4d d8	 lea	 ecx, DWORD PTR $T10[ebp]

; 4293 :         _Mypair._Myval2._Mysize = 0;

  01331	c7 45 e8 00 00
	00 00		 mov	 DWORD PTR $T10[ebp+16], 0

; 4294 :         _Mypair._Myval2._Myres  = _BUF_SIZE - 1;

  01338	c7 45 ec 0f 00
	00 00		 mov	 DWORD PTR $T10[ebp+20], 15 ; 0000000fH

; 4295 :         // the _Traits::assign is last so the codegen doesn't think the char write can alias this
; 4296 :         _Traits::assign(_Mypair._Myval2._Bx._Buf[0], _Elem());

  0133f	c6 45 d8 00	 mov	 BYTE PTR $T10[ebp], 0

; 2339 :         assign(_Ptr);

  01343	e8 00 00 00 00	 call	 ?assign@?$basic_string@DU?$char_traits@D@std@@V?$allocator@D@2@@std@@QAEAAV12@QBD@Z ; std::basic_string<char,std::char_traits<char>,std::allocator<char> >::assign
; File C:\DS Project\DS Files\Source\ClientSource\Client\GameLib\MapUtil.cpp

; 200  : 		textLoader.GetTokenBoolean("mainflareenable", &envData.bMainFlareEnable);

  01348	8d 87 78 02 00
	00		 lea	 eax, DWORD PTR [edi+632]
  0134e	c6 45 fc 29	 mov	 BYTE PTR __$EHRec$[ebp+8], 41 ; 00000029H
  01352	50		 push	 eax
  01353	8d 45 d8	 lea	 eax, DWORD PTR $T10[ebp]
  01356	50		 push	 eax
  01357	8d 8d 40 ff ff
	ff		 lea	 ecx, DWORD PTR _textLoader$[ebp]
  0135d	e8 00 00 00 00	 call	 ?GetTokenBoolean@CTextFileLoader@@QAEHABV?$basic_string@DU?$char_traits@D@std@@V?$allocator@D@2@@std@@PAH@Z ; CTextFileLoader::GetTokenBoolean
; File C:\Program Files (x86)\Microsoft Visual Studio\2019\Community\VC\Tools\MSVC\14.27.29110\include\xstring

; 4301 :         if (_Mypair._Myval2._Large_string_engaged()) {

  01362	8b 45 ec	 mov	 eax, DWORD PTR $T10[ebp+20]
; File C:\DS Project\DS Files\Source\ClientSource\Client\GameLib\MapUtil.cpp

; 200  : 		textLoader.GetTokenBoolean("mainflareenable", &envData.bMainFlareEnable);

  01365	c6 45 fc 00	 mov	 BYTE PTR __$EHRec$[ebp+8], 0
; File C:\Program Files (x86)\Microsoft Visual Studio\2019\Community\VC\Tools\MSVC\14.27.29110\include\xstring

; 4301 :         if (_Mypair._Myval2._Large_string_engaged()) {

  01369	83 f8 10	 cmp	 eax, 16			; 00000010H
  0136c	72 0d		 jb	 SHORT $LN965@Environmen

; 4302 :             const pointer _Ptr = _Mypair._Myval2._Bx._Ptr;
; 4303 :             auto& _Al          = _Getal();
; 4304 :             _Destroy_in_place(_Mypair._Myval2._Bx._Ptr);
; 4305 :             _Al.deallocate(_Ptr, _Mypair._Myval2._Myres + 1);

  0136e	40		 inc	 eax
; File C:\Program Files (x86)\Microsoft Visual Studio\2019\Community\VC\Tools\MSVC\14.27.29110\include\xmemory

; 803  :         _Deallocate<_New_alignof<_Ty>>(_Ptr, sizeof(_Ty) * _Count);

  0136f	50		 push	 eax
  01370	ff 75 d8	 push	 DWORD PTR $T10[ebp]
  01373	e8 00 00 00 00	 call	 ??$_Deallocate@$07$0A@@std@@YAXPAXI@Z ; std::_Deallocate<8,0>
  01378	83 c4 08	 add	 esp, 8
$LN965@Environmen:
; File C:\Program Files (x86)\Microsoft Visual Studio\2019\Community\VC\Tools\MSVC\14.27.29110\include\xstring

; 2339 :         assign(_Ptr);

  0137b	68 00 00 00 00	 push	 OFFSET ??_C@_0BJ@EAALILHN@mainflaretexturefilename@
  01380	8d 4d d8	 lea	 ecx, DWORD PTR $T9[ebp]

; 4293 :         _Mypair._Myval2._Mysize = 0;

  01383	c7 45 e8 00 00
	00 00		 mov	 DWORD PTR $T9[ebp+16], 0

; 4294 :         _Mypair._Myval2._Myres  = _BUF_SIZE - 1;

  0138a	c7 45 ec 0f 00
	00 00		 mov	 DWORD PTR $T9[ebp+20], 15 ; 0000000fH

; 4295 :         // the _Traits::assign is last so the codegen doesn't think the char write can alias this
; 4296 :         _Traits::assign(_Mypair._Myval2._Bx._Buf[0], _Elem());

  01391	c6 45 d8 00	 mov	 BYTE PTR $T9[ebp], 0

; 2339 :         assign(_Ptr);

  01395	e8 00 00 00 00	 call	 ?assign@?$basic_string@DU?$char_traits@D@std@@V?$allocator@D@2@@std@@QAEAAV12@QBD@Z ; std::basic_string<char,std::char_traits<char>,std::allocator<char> >::assign
; File C:\DS Project\DS Files\Source\ClientSource\Client\GameLib\MapUtil.cpp

; 201  : 		textLoader.GetTokenString("mainflaretexturefilename", &envData.strMainFlareTextureFileName);

  0139a	8d 87 7c 02 00
	00		 lea	 eax, DWORD PTR [edi+636]
  013a0	c6 45 fc 2a	 mov	 BYTE PTR __$EHRec$[ebp+8], 42 ; 0000002aH
  013a4	50		 push	 eax
  013a5	8d 45 d8	 lea	 eax, DWORD PTR $T9[ebp]
  013a8	50		 push	 eax
  013a9	8d 8d 40 ff ff
	ff		 lea	 ecx, DWORD PTR _textLoader$[ebp]
  013af	e8 00 00 00 00	 call	 ?GetTokenString@CTextFileLoader@@QAEHABV?$basic_string@DU?$char_traits@D@std@@V?$allocator@D@2@@std@@PAV23@@Z ; CTextFileLoader::GetTokenString
; File C:\Program Files (x86)\Microsoft Visual Studio\2019\Community\VC\Tools\MSVC\14.27.29110\include\xstring

; 4301 :         if (_Mypair._Myval2._Large_string_engaged()) {

  013b4	8b 45 ec	 mov	 eax, DWORD PTR $T9[ebp+20]
; File C:\DS Project\DS Files\Source\ClientSource\Client\GameLib\MapUtil.cpp

; 201  : 		textLoader.GetTokenString("mainflaretexturefilename", &envData.strMainFlareTextureFileName);

  013b7	c6 45 fc 00	 mov	 BYTE PTR __$EHRec$[ebp+8], 0
; File C:\Program Files (x86)\Microsoft Visual Studio\2019\Community\VC\Tools\MSVC\14.27.29110\include\xstring

; 4301 :         if (_Mypair._Myval2._Large_string_engaged()) {

  013bb	83 f8 10	 cmp	 eax, 16			; 00000010H
  013be	72 0d		 jb	 SHORT $LN983@Environmen

; 4302 :             const pointer _Ptr = _Mypair._Myval2._Bx._Ptr;
; 4303 :             auto& _Al          = _Getal();
; 4304 :             _Destroy_in_place(_Mypair._Myval2._Bx._Ptr);
; 4305 :             _Al.deallocate(_Ptr, _Mypair._Myval2._Myres + 1);

  013c0	40		 inc	 eax
; File C:\Program Files (x86)\Microsoft Visual Studio\2019\Community\VC\Tools\MSVC\14.27.29110\include\xmemory

; 803  :         _Deallocate<_New_alignof<_Ty>>(_Ptr, sizeof(_Ty) * _Count);

  013c1	50		 push	 eax
  013c2	ff 75 d8	 push	 DWORD PTR $T9[ebp]
  013c5	e8 00 00 00 00	 call	 ??$_Deallocate@$07$0A@@std@@YAXPAXI@Z ; std::_Deallocate<8,0>
  013ca	83 c4 08	 add	 esp, 8
$LN983@Environmen:
; File C:\Program Files (x86)\Microsoft Visual Studio\2019\Community\VC\Tools\MSVC\14.27.29110\include\xstring

; 2339 :         assign(_Ptr);

  013cd	68 00 00 00 00	 push	 OFFSET ??_C@_0O@JBMODIIN@mainflaresize@
  013d2	8d 4d d8	 lea	 ecx, DWORD PTR $T8[ebp]

; 4293 :         _Mypair._Myval2._Mysize = 0;

  013d5	c7 45 e8 00 00
	00 00		 mov	 DWORD PTR $T8[ebp+16], 0

; 4294 :         _Mypair._Myval2._Myres  = _BUF_SIZE - 1;

  013dc	c7 45 ec 0f 00
	00 00		 mov	 DWORD PTR $T8[ebp+20], 15 ; 0000000fH

; 4295 :         // the _Traits::assign is last so the codegen doesn't think the char write can alias this
; 4296 :         _Traits::assign(_Mypair._Myval2._Bx._Buf[0], _Elem());

  013e3	c6 45 d8 00	 mov	 BYTE PTR $T8[ebp], 0

; 2339 :         assign(_Ptr);

  013e7	e8 00 00 00 00	 call	 ?assign@?$basic_string@DU?$char_traits@D@std@@V?$allocator@D@2@@std@@QAEAAV12@QBD@Z ; std::basic_string<char,std::char_traits<char>,std::allocator<char> >::assign
; File C:\DS Project\DS Files\Source\ClientSource\Client\GameLib\MapUtil.cpp

; 202  : 		textLoader.GetTokenFloat("mainflaresize", &envData.fMainFlareSize);

  013ec	8d 87 94 02 00
	00		 lea	 eax, DWORD PTR [edi+660]
  013f2	c6 45 fc 2b	 mov	 BYTE PTR __$EHRec$[ebp+8], 43 ; 0000002bH
  013f6	50		 push	 eax
  013f7	8d 45 d8	 lea	 eax, DWORD PTR $T8[ebp]
  013fa	50		 push	 eax
  013fb	8d 8d 40 ff ff
	ff		 lea	 ecx, DWORD PTR _textLoader$[ebp]
  01401	e8 00 00 00 00	 call	 ?GetTokenFloat@CTextFileLoader@@QAEHABV?$basic_string@DU?$char_traits@D@std@@V?$allocator@D@2@@std@@PAM@Z ; CTextFileLoader::GetTokenFloat
; File C:\Program Files (x86)\Microsoft Visual Studio\2019\Community\VC\Tools\MSVC\14.27.29110\include\xstring

; 2153 :         return _BUF_SIZE <= _Myres;

  01406	8b 45 ec	 mov	 eax, DWORD PTR $T8[ebp+20]
; File C:\DS Project\DS Files\Source\ClientSource\Client\GameLib\MapUtil.cpp

; 202  : 		textLoader.GetTokenFloat("mainflaresize", &envData.fMainFlareSize);

  01409	c6 45 fc 00	 mov	 BYTE PTR __$EHRec$[ebp+8], 0
; File C:\Program Files (x86)\Microsoft Visual Studio\2019\Community\VC\Tools\MSVC\14.27.29110\include\xstring

; 2153 :         return _BUF_SIZE <= _Myres;

  0140d	83 f8 10	 cmp	 eax, 16			; 00000010H

; 4301 :         if (_Mypair._Myval2._Large_string_engaged()) {

  01410	72 0d		 jb	 SHORT $LN1001@Environmen

; 4302 :             const pointer _Ptr = _Mypair._Myval2._Bx._Ptr;
; 4303 :             auto& _Al          = _Getal();
; 4304 :             _Destroy_in_place(_Mypair._Myval2._Bx._Ptr);
; 4305 :             _Al.deallocate(_Ptr, _Mypair._Myval2._Myres + 1);

  01412	40		 inc	 eax
; File C:\Program Files (x86)\Microsoft Visual Studio\2019\Community\VC\Tools\MSVC\14.27.29110\include\xmemory

; 803  :         _Deallocate<_New_alignof<_Ty>>(_Ptr, sizeof(_Ty) * _Count);

  01413	50		 push	 eax
  01414	ff 75 d8	 push	 DWORD PTR $T8[ebp]
  01417	e8 00 00 00 00	 call	 ??$_Deallocate@$07$0A@@std@@YAXPAXI@Z ; std::_Deallocate<8,0>
  0141c	83 c4 08	 add	 esp, 8
$LN1001@Environmen:
; File C:\DS Project\DS Files\Source\ClientSource\Client\GameLib\MapUtil.cpp

; 204  : 		textLoader.SetParentNode();

  0141f	8d 8d 40 ff ff
	ff		 lea	 ecx, DWORD PTR _textLoader$[ebp]
  01425	e8 00 00 00 00	 call	 ?SetParentNode@CTextFileLoader@@QAEHXZ ; CTextFileLoader::SetParentNode
$LN18@Environmen:

; 205  : 	}
; 206  : 	return true;

  0142a	b3 01		 mov	 bl, 1
$LN64@Environmen:
  0142c	8d 8d 40 ff ff
	ff		 lea	 ecx, DWORD PTR _textLoader$[ebp]
  01432	e8 00 00 00 00	 call	 ??1CTextFileLoader@@UAE@XZ ; CTextFileLoader::~CTextFileLoader
  01437	8a c3		 mov	 al, bl

; 207  : }

  01439	8b 4d f4	 mov	 ecx, DWORD PTR __$EHRec$[ebp]
  0143c	64 89 0d 00 00
	00 00		 mov	 DWORD PTR fs:0, ecx
  01443	59		 pop	 ecx
  01444	5f		 pop	 edi
  01445	5e		 pop	 esi
  01446	5b		 pop	 ebx
  01447	8b 4d f0	 mov	 ecx, DWORD PTR __$ArrayPad$[ebp]
  0144a	33 cd		 xor	 ecx, ebp
  0144c	e8 00 00 00 00	 call	 @__security_check_cookie@4
  01451	8b e5		 mov	 esp, ebp
  01453	5d		 pop	 ebp
  01454	c3		 ret	 0
$LN1015@Environmen:
; File C:\Program Files (x86)\Microsoft Visual Studio\2019\Community\VC\Tools\MSVC\14.27.29110\include\vector

; 1520 :             _Xrange();

  01455	e8 00 00 00 00	 call	 ?_Xrange@?$vector@V?$basic_string@DU?$char_traits@D@std@@V?$allocator@D@2@@std@@V?$allocator@V?$basic_string@DU?$char_traits@D@std@@V?$allocator@D@2@@std@@@2@@std@@CAXXZ ; std::vector<std::basic_string<char,std::char_traits<char>,std::allocator<char> >,std::allocator<std::basic_string<char,std::char_traits<char>,std::allocator<char> > > >::_Xrange
$LN1021@Environmen:
  0145a	cc		 int	 3
_TEXT	ENDS
;	COMDAT text$x
text$x	SEGMENT
__unwindfunclet$?Environment_Load@@YA_NAAUSEnvironmentData@@PBD@Z$0:
  00000	8d 8d 40 ff ff
	ff		 lea	 ecx, DWORD PTR _textLoader$[ebp]
  00006	e9 00 00 00 00	 jmp	 ??1CTextFileLoader@@UAE@XZ ; CTextFileLoader::~CTextFileLoader
__unwindfunclet$?Environment_Load@@YA_NAAUSEnvironmentData@@PBD@Z$1:
  0000b	8d 4d c0	 lea	 ecx, DWORD PTR $T6[ebp]
  0000e	e9 00 00 00 00	 jmp	 ??1?$basic_string@DU?$char_traits@D@std@@V?$allocator@D@2@@std@@QAE@XZ ; std::basic_string<char,std::char_traits<char>,std::allocator<char> >::~basic_string<char,std::char_traits<char>,std::allocator<char> >
__unwindfunclet$?Environment_Load@@YA_NAAUSEnvironmentData@@PBD@Z$2:
  00013	8d 4d d8	 lea	 ecx, DWORD PTR $T49[ebp]
  00016	e9 00 00 00 00	 jmp	 ??1?$basic_string@DU?$char_traits@D@std@@V?$allocator@D@2@@std@@QAE@XZ ; std::basic_string<char,std::char_traits<char>,std::allocator<char> >::~basic_string<char,std::char_traits<char>,std::allocator<char> >
__unwindfunclet$?Environment_Load@@YA_NAAUSEnvironmentData@@PBD@Z$3:
  0001b	8d 4d d8	 lea	 ecx, DWORD PTR $T48[ebp]
  0001e	e9 00 00 00 00	 jmp	 ??1?$basic_string@DU?$char_traits@D@std@@V?$allocator@D@2@@std@@QAE@XZ ; std::basic_string<char,std::char_traits<char>,std::allocator<char> >::~basic_string<char,std::char_traits<char>,std::allocator<char> >
__unwindfunclet$?Environment_Load@@YA_NAAUSEnvironmentData@@PBD@Z$4:
  00023	8d 4d d8	 lea	 ecx, DWORD PTR $T47[ebp]
  00026	e9 00 00 00 00	 jmp	 ??1?$basic_string@DU?$char_traits@D@std@@V?$allocator@D@2@@std@@QAE@XZ ; std::basic_string<char,std::char_traits<char>,std::allocator<char> >::~basic_string<char,std::char_traits<char>,std::allocator<char> >
__unwindfunclet$?Environment_Load@@YA_NAAUSEnvironmentData@@PBD@Z$5:
  0002b	8d 4d d8	 lea	 ecx, DWORD PTR $T46[ebp]
  0002e	e9 00 00 00 00	 jmp	 ??1?$basic_string@DU?$char_traits@D@std@@V?$allocator@D@2@@std@@QAE@XZ ; std::basic_string<char,std::char_traits<char>,std::allocator<char> >::~basic_string<char,std::char_traits<char>,std::allocator<char> >
__unwindfunclet$?Environment_Load@@YA_NAAUSEnvironmentData@@PBD@Z$6:
  00033	8d 4d d8	 lea	 ecx, DWORD PTR $T45[ebp]
  00036	e9 00 00 00 00	 jmp	 ??1?$basic_string@DU?$char_traits@D@std@@V?$allocator@D@2@@std@@QAE@XZ ; std::basic_string<char,std::char_traits<char>,std::allocator<char> >::~basic_string<char,std::char_traits<char>,std::allocator<char> >
__unwindfunclet$?Environment_Load@@YA_NAAUSEnvironmentData@@PBD@Z$7:
  0003b	8d 4d d8	 lea	 ecx, DWORD PTR $T44[ebp]
  0003e	e9 00 00 00 00	 jmp	 ??1?$basic_string@DU?$char_traits@D@std@@V?$allocator@D@2@@std@@QAE@XZ ; std::basic_string<char,std::char_traits<char>,std::allocator<char> >::~basic_string<char,std::char_traits<char>,std::allocator<char> >
__unwindfunclet$?Environment_Load@@YA_NAAUSEnvironmentData@@PBD@Z$8:
  00043	8d 4d d8	 lea	 ecx, DWORD PTR $T43[ebp]
  00046	e9 00 00 00 00	 jmp	 ??1?$basic_string@DU?$char_traits@D@std@@V?$allocator@D@2@@std@@QAE@XZ ; std::basic_string<char,std::char_traits<char>,std::allocator<char> >::~basic_string<char,std::char_traits<char>,std::allocator<char> >
__unwindfunclet$?Environment_Load@@YA_NAAUSEnvironmentData@@PBD@Z$9:
  0004b	8d 4d d8	 lea	 ecx, DWORD PTR $T42[ebp]
  0004e	e9 00 00 00 00	 jmp	 ??1?$basic_string@DU?$char_traits@D@std@@V?$allocator@D@2@@std@@QAE@XZ ; std::basic_string<char,std::char_traits<char>,std::allocator<char> >::~basic_string<char,std::char_traits<char>,std::allocator<char> >
__unwindfunclet$?Environment_Load@@YA_NAAUSEnvironmentData@@PBD@Z$10:
  00053	8d 4d d8	 lea	 ecx, DWORD PTR $T41[ebp]
  00056	e9 00 00 00 00	 jmp	 ??1?$basic_string@DU?$char_traits@D@std@@V?$allocator@D@2@@std@@QAE@XZ ; std::basic_string<char,std::char_traits<char>,std::allocator<char> >::~basic_string<char,std::char_traits<char>,std::allocator<char> >
__unwindfunclet$?Environment_Load@@YA_NAAUSEnvironmentData@@PBD@Z$11:
  0005b	8d 4d d8	 lea	 ecx, DWORD PTR $T40[ebp]
  0005e	e9 00 00 00 00	 jmp	 ??1?$basic_string@DU?$char_traits@D@std@@V?$allocator@D@2@@std@@QAE@XZ ; std::basic_string<char,std::char_traits<char>,std::allocator<char> >::~basic_string<char,std::char_traits<char>,std::allocator<char> >
__unwindfunclet$?Environment_Load@@YA_NAAUSEnvironmentData@@PBD@Z$12:
  00063	8d 4d d8	 lea	 ecx, DWORD PTR $T39[ebp]
  00066	e9 00 00 00 00	 jmp	 ??1?$basic_string@DU?$char_traits@D@std@@V?$allocator@D@2@@std@@QAE@XZ ; std::basic_string<char,std::char_traits<char>,std::allocator<char> >::~basic_string<char,std::char_traits<char>,std::allocator<char> >
__unwindfunclet$?Environment_Load@@YA_NAAUSEnvironmentData@@PBD@Z$13:
  0006b	8d 4d d8	 lea	 ecx, DWORD PTR $T38[ebp]
  0006e	e9 00 00 00 00	 jmp	 ??1?$basic_string@DU?$char_traits@D@std@@V?$allocator@D@2@@std@@QAE@XZ ; std::basic_string<char,std::char_traits<char>,std::allocator<char> >::~basic_string<char,std::char_traits<char>,std::allocator<char> >
__unwindfunclet$?Environment_Load@@YA_NAAUSEnvironmentData@@PBD@Z$14:
  00073	8d 4d d8	 lea	 ecx, DWORD PTR $T37[ebp]
  00076	e9 00 00 00 00	 jmp	 ??1?$basic_string@DU?$char_traits@D@std@@V?$allocator@D@2@@std@@QAE@XZ ; std::basic_string<char,std::char_traits<char>,std::allocator<char> >::~basic_string<char,std::char_traits<char>,std::allocator<char> >
__unwindfunclet$?Environment_Load@@YA_NAAUSEnvironmentData@@PBD@Z$15:
  0007b	8d 4d d8	 lea	 ecx, DWORD PTR $T36[ebp]
  0007e	e9 00 00 00 00	 jmp	 ??1?$basic_string@DU?$char_traits@D@std@@V?$allocator@D@2@@std@@QAE@XZ ; std::basic_string<char,std::char_traits<char>,std::allocator<char> >::~basic_string<char,std::char_traits<char>,std::allocator<char> >
__unwindfunclet$?Environment_Load@@YA_NAAUSEnvironmentData@@PBD@Z$16:
  00083	8d 4d d8	 lea	 ecx, DWORD PTR $T35[ebp]
  00086	e9 00 00 00 00	 jmp	 ??1?$basic_string@DU?$char_traits@D@std@@V?$allocator@D@2@@std@@QAE@XZ ; std::basic_string<char,std::char_traits<char>,std::allocator<char> >::~basic_string<char,std::char_traits<char>,std::allocator<char> >
__unwindfunclet$?Environment_Load@@YA_NAAUSEnvironmentData@@PBD@Z$17:
  0008b	8d 4d d8	 lea	 ecx, DWORD PTR $T34[ebp]
  0008e	e9 00 00 00 00	 jmp	 ??1?$basic_string@DU?$char_traits@D@std@@V?$allocator@D@2@@std@@QAE@XZ ; std::basic_string<char,std::char_traits<char>,std::allocator<char> >::~basic_string<char,std::char_traits<char>,std::allocator<char> >
__unwindfunclet$?Environment_Load@@YA_NAAUSEnvironmentData@@PBD@Z$18:
  00093	8d 4d d8	 lea	 ecx, DWORD PTR $T33[ebp]
  00096	e9 00 00 00 00	 jmp	 ??1?$basic_string@DU?$char_traits@D@std@@V?$allocator@D@2@@std@@QAE@XZ ; std::basic_string<char,std::char_traits<char>,std::allocator<char> >::~basic_string<char,std::char_traits<char>,std::allocator<char> >
__unwindfunclet$?Environment_Load@@YA_NAAUSEnvironmentData@@PBD@Z$19:
  0009b	8d 4d d8	 lea	 ecx, DWORD PTR $T32[ebp]
  0009e	e9 00 00 00 00	 jmp	 ??1?$basic_string@DU?$char_traits@D@std@@V?$allocator@D@2@@std@@QAE@XZ ; std::basic_string<char,std::char_traits<char>,std::allocator<char> >::~basic_string<char,std::char_traits<char>,std::allocator<char> >
__unwindfunclet$?Environment_Load@@YA_NAAUSEnvironmentData@@PBD@Z$20:
  000a3	8d 4d d8	 lea	 ecx, DWORD PTR $T31[ebp]
  000a6	e9 00 00 00 00	 jmp	 ??1?$basic_string@DU?$char_traits@D@std@@V?$allocator@D@2@@std@@QAE@XZ ; std::basic_string<char,std::char_traits<char>,std::allocator<char> >::~basic_string<char,std::char_traits<char>,std::allocator<char> >
__unwindfunclet$?Environment_Load@@YA_NAAUSEnvironmentData@@PBD@Z$21:
  000ab	8d 4d d8	 lea	 ecx, DWORD PTR $T30[ebp]
  000ae	e9 00 00 00 00	 jmp	 ??1?$basic_string@DU?$char_traits@D@std@@V?$allocator@D@2@@std@@QAE@XZ ; std::basic_string<char,std::char_traits<char>,std::allocator<char> >::~basic_string<char,std::char_traits<char>,std::allocator<char> >
__unwindfunclet$?Environment_Load@@YA_NAAUSEnvironmentData@@PBD@Z$22:
  000b3	8d 4d d8	 lea	 ecx, DWORD PTR $T29[ebp]
  000b6	e9 00 00 00 00	 jmp	 ??1?$basic_string@DU?$char_traits@D@std@@V?$allocator@D@2@@std@@QAE@XZ ; std::basic_string<char,std::char_traits<char>,std::allocator<char> >::~basic_string<char,std::char_traits<char>,std::allocator<char> >
__unwindfunclet$?Environment_Load@@YA_NAAUSEnvironmentData@@PBD@Z$23:
  000bb	8d 4d d8	 lea	 ecx, DWORD PTR $T28[ebp]
  000be	e9 00 00 00 00	 jmp	 ??1?$basic_string@DU?$char_traits@D@std@@V?$allocator@D@2@@std@@QAE@XZ ; std::basic_string<char,std::char_traits<char>,std::allocator<char> >::~basic_string<char,std::char_traits<char>,std::allocator<char> >
__unwindfunclet$?Environment_Load@@YA_NAAUSEnvironmentData@@PBD@Z$24:
  000c3	8d 4d d8	 lea	 ecx, DWORD PTR $T27[ebp]
  000c6	e9 00 00 00 00	 jmp	 ??1?$basic_string@DU?$char_traits@D@std@@V?$allocator@D@2@@std@@QAE@XZ ; std::basic_string<char,std::char_traits<char>,std::allocator<char> >::~basic_string<char,std::char_traits<char>,std::allocator<char> >
__unwindfunclet$?Environment_Load@@YA_NAAUSEnvironmentData@@PBD@Z$25:
  000cb	8d 4d d8	 lea	 ecx, DWORD PTR $T26[ebp]
  000ce	e9 00 00 00 00	 jmp	 ??1?$basic_string@DU?$char_traits@D@std@@V?$allocator@D@2@@std@@QAE@XZ ; std::basic_string<char,std::char_traits<char>,std::allocator<char> >::~basic_string<char,std::char_traits<char>,std::allocator<char> >
__unwindfunclet$?Environment_Load@@YA_NAAUSEnvironmentData@@PBD@Z$26:
  000d3	8d 4d d8	 lea	 ecx, DWORD PTR $T25[ebp]
  000d6	e9 00 00 00 00	 jmp	 ??1?$basic_string@DU?$char_traits@D@std@@V?$allocator@D@2@@std@@QAE@XZ ; std::basic_string<char,std::char_traits<char>,std::allocator<char> >::~basic_string<char,std::char_traits<char>,std::allocator<char> >
__unwindfunclet$?Environment_Load@@YA_NAAUSEnvironmentData@@PBD@Z$27:
  000db	8d 4d d8	 lea	 ecx, DWORD PTR $T24[ebp]
  000de	e9 00 00 00 00	 jmp	 ??1?$basic_string@DU?$char_traits@D@std@@V?$allocator@D@2@@std@@QAE@XZ ; std::basic_string<char,std::char_traits<char>,std::allocator<char> >::~basic_string<char,std::char_traits<char>,std::allocator<char> >
__unwindfunclet$?Environment_Load@@YA_NAAUSEnvironmentData@@PBD@Z$28:
  000e3	8d 4d d8	 lea	 ecx, DWORD PTR $T23[ebp]
  000e6	e9 00 00 00 00	 jmp	 ??1?$basic_string@DU?$char_traits@D@std@@V?$allocator@D@2@@std@@QAE@XZ ; std::basic_string<char,std::char_traits<char>,std::allocator<char> >::~basic_string<char,std::char_traits<char>,std::allocator<char> >
__unwindfunclet$?Environment_Load@@YA_NAAUSEnvironmentData@@PBD@Z$29:
  000eb	8d 4d d8	 lea	 ecx, DWORD PTR $T22[ebp]
  000ee	e9 00 00 00 00	 jmp	 ??1?$basic_string@DU?$char_traits@D@std@@V?$allocator@D@2@@std@@QAE@XZ ; std::basic_string<char,std::char_traits<char>,std::allocator<char> >::~basic_string<char,std::char_traits<char>,std::allocator<char> >
__unwindfunclet$?Environment_Load@@YA_NAAUSEnvironmentData@@PBD@Z$30:
  000f3	8d 4d d8	 lea	 ecx, DWORD PTR $T21[ebp]
  000f6	e9 00 00 00 00	 jmp	 ??1?$basic_string@DU?$char_traits@D@std@@V?$allocator@D@2@@std@@QAE@XZ ; std::basic_string<char,std::char_traits<char>,std::allocator<char> >::~basic_string<char,std::char_traits<char>,std::allocator<char> >
__unwindfunclet$?Environment_Load@@YA_NAAUSEnvironmentData@@PBD@Z$31:
  000fb	8d 4d d8	 lea	 ecx, DWORD PTR $T20[ebp]
  000fe	e9 00 00 00 00	 jmp	 ??1?$basic_string@DU?$char_traits@D@std@@V?$allocator@D@2@@std@@QAE@XZ ; std::basic_string<char,std::char_traits<char>,std::allocator<char> >::~basic_string<char,std::char_traits<char>,std::allocator<char> >
__unwindfunclet$?Environment_Load@@YA_NAAUSEnvironmentData@@PBD@Z$32:
  00103	8d 4d d8	 lea	 ecx, DWORD PTR $T19[ebp]
  00106	e9 00 00 00 00	 jmp	 ??1?$basic_string@DU?$char_traits@D@std@@V?$allocator@D@2@@std@@QAE@XZ ; std::basic_string<char,std::char_traits<char>,std::allocator<char> >::~basic_string<char,std::char_traits<char>,std::allocator<char> >
__unwindfunclet$?Environment_Load@@YA_NAAUSEnvironmentData@@PBD@Z$33:
  0010b	8d 4d d8	 lea	 ecx, DWORD PTR $T18[ebp]
  0010e	e9 00 00 00 00	 jmp	 ??1?$basic_string@DU?$char_traits@D@std@@V?$allocator@D@2@@std@@QAE@XZ ; std::basic_string<char,std::char_traits<char>,std::allocator<char> >::~basic_string<char,std::char_traits<char>,std::allocator<char> >
__unwindfunclet$?Environment_Load@@YA_NAAUSEnvironmentData@@PBD@Z$34:
  00113	8d 4d d8	 lea	 ecx, DWORD PTR $T17[ebp]
  00116	e9 00 00 00 00	 jmp	 ??1?$basic_string@DU?$char_traits@D@std@@V?$allocator@D@2@@std@@QAE@XZ ; std::basic_string<char,std::char_traits<char>,std::allocator<char> >::~basic_string<char,std::char_traits<char>,std::allocator<char> >
__unwindfunclet$?Environment_Load@@YA_NAAUSEnvironmentData@@PBD@Z$35:
  0011b	8d 4d d8	 lea	 ecx, DWORD PTR $T16[ebp]
  0011e	e9 00 00 00 00	 jmp	 ??1?$basic_string@DU?$char_traits@D@std@@V?$allocator@D@2@@std@@QAE@XZ ; std::basic_string<char,std::char_traits<char>,std::allocator<char> >::~basic_string<char,std::char_traits<char>,std::allocator<char> >
__unwindfunclet$?Environment_Load@@YA_NAAUSEnvironmentData@@PBD@Z$36:
  00123	8d 4d d8	 lea	 ecx, DWORD PTR $T15[ebp]
  00126	e9 00 00 00 00	 jmp	 ??1?$basic_string@DU?$char_traits@D@std@@V?$allocator@D@2@@std@@QAE@XZ ; std::basic_string<char,std::char_traits<char>,std::allocator<char> >::~basic_string<char,std::char_traits<char>,std::allocator<char> >
__unwindfunclet$?Environment_Load@@YA_NAAUSEnvironmentData@@PBD@Z$37:
  0012b	8d 4d d8	 lea	 ecx, DWORD PTR $T14[ebp]
  0012e	e9 00 00 00 00	 jmp	 ??1?$basic_string@DU?$char_traits@D@std@@V?$allocator@D@2@@std@@QAE@XZ ; std::basic_string<char,std::char_traits<char>,std::allocator<char> >::~basic_string<char,std::char_traits<char>,std::allocator<char> >
__unwindfunclet$?Environment_Load@@YA_NAAUSEnvironmentData@@PBD@Z$38:
  00133	8d 4d d8	 lea	 ecx, DWORD PTR $T13[ebp]
  00136	e9 00 00 00 00	 jmp	 ??1?$basic_string@DU?$char_traits@D@std@@V?$allocator@D@2@@std@@QAE@XZ ; std::basic_string<char,std::char_traits<char>,std::allocator<char> >::~basic_string<char,std::char_traits<char>,std::allocator<char> >
__unwindfunclet$?Environment_Load@@YA_NAAUSEnvironmentData@@PBD@Z$39:
  0013b	8d 4d d8	 lea	 ecx, DWORD PTR $T12[ebp]
  0013e	e9 00 00 00 00	 jmp	 ??1?$basic_string@DU?$char_traits@D@std@@V?$allocator@D@2@@std@@QAE@XZ ; std::basic_string<char,std::char_traits<char>,std::allocator<char> >::~basic_string<char,std::char_traits<char>,std::allocator<char> >
__unwindfunclet$?Environment_Load@@YA_NAAUSEnvironmentData@@PBD@Z$40:
  00143	8d 4d d8	 lea	 ecx, DWORD PTR $T11[ebp]
  00146	e9 00 00 00 00	 jmp	 ??1?$basic_string@DU?$char_traits@D@std@@V?$allocator@D@2@@std@@QAE@XZ ; std::basic_string<char,std::char_traits<char>,std::allocator<char> >::~basic_string<char,std::char_traits<char>,std::allocator<char> >
__unwindfunclet$?Environment_Load@@YA_NAAUSEnvironmentData@@PBD@Z$41:
  0014b	8d 4d d8	 lea	 ecx, DWORD PTR $T10[ebp]
  0014e	e9 00 00 00 00	 jmp	 ??1?$basic_string@DU?$char_traits@D@std@@V?$allocator@D@2@@std@@QAE@XZ ; std::basic_string<char,std::char_traits<char>,std::allocator<char> >::~basic_string<char,std::char_traits<char>,std::allocator<char> >
__unwindfunclet$?Environment_Load@@YA_NAAUSEnvironmentData@@PBD@Z$42:
  00153	8d 4d d8	 lea	 ecx, DWORD PTR $T9[ebp]
  00156	e9 00 00 00 00	 jmp	 ??1?$basic_string@DU?$char_traits@D@std@@V?$allocator@D@2@@std@@QAE@XZ ; std::basic_string<char,std::char_traits<char>,std::allocator<char> >::~basic_string<char,std::char_traits<char>,std::allocator<char> >
__unwindfunclet$?Environment_Load@@YA_NAAUSEnvironmentData@@PBD@Z$43:
  0015b	8d 4d d8	 lea	 ecx, DWORD PTR $T8[ebp]
  0015e	e9 00 00 00 00	 jmp	 ??1?$basic_string@DU?$char_traits@D@std@@V?$allocator@D@2@@std@@QAE@XZ ; std::basic_string<char,std::char_traits<char>,std::allocator<char> >::~basic_string<char,std::char_traits<char>,std::allocator<char> >
  00163	cc		 int	 3
  00164	cc		 int	 3
  00165	cc		 int	 3
  00166	cc		 int	 3
  00167	cc		 int	 3
__ehhandler$?Environment_Load@@YA_NAAUSEnvironmentData@@PBD@Z:
  00168	90		 npad	 1
  00169	90		 npad	 1
  0016a	8b 54 24 08	 mov	 edx, DWORD PTR [esp+8]
  0016e	8d 42 0c	 lea	 eax, DWORD PTR [edx+12]
  00171	8b 8a 1c ff ff
	ff		 mov	 ecx, DWORD PTR [edx-228]
  00177	33 c8		 xor	 ecx, eax
  00179	e8 00 00 00 00	 call	 @__security_check_cookie@4
  0017e	8b 4a fc	 mov	 ecx, DWORD PTR [edx-4]
  00181	33 c8		 xor	 ecx, eax
  00183	e8 00 00 00 00	 call	 @__security_check_cookie@4
  00188	b8 00 00 00 00	 mov	 eax, OFFSET __ehfuncinfo$?Environment_Load@@YA_NAAUSEnvironmentData@@PBD@Z
  0018d	e9 00 00 00 00	 jmp	 ___CxxFrameHandler3
text$x	ENDS
?Environment_Load@@YA_NAAUSEnvironmentData@@PBD@Z ENDP	; Environment_Load
; Function compile flags: /Ogtp
; File C:\DS Project\DS Files\Source\ClientSource\Client\GameLib\MapUtil.cpp
; File C:\DS Project\DS Files\Source\ClientSource\extern\include\d3dx8math.inl
; File C:\DS Project\DS Files\Source\ClientSource\Client\GameLib\MapUtil.cpp
; File C:\DS Project\DS Files\Source\ClientSource\extern\include\d3dx8math.inl
; File C:\DS Project\DS Files\Source\ClientSource\Client\GameLib\MapUtil.cpp
; File C:\DS Project\DS Files\Source\ClientSource\extern\include\d3dx8math.inl
; File C:\DS Project\DS Files\Source\ClientSource\Client\GameLib\MapUtil.cpp
; File C:\DS Project\DS Files\Source\ClientSource\extern\include\d3dx8math.inl
; File C:\DS Project\DS Files\Source\ClientSource\Client\GameLib\MapUtil.cpp
; File C:\DS Project\DS Files\Source\ClientSource\extern\include\d3dx8math.inl
; File C:\DS Project\DS Files\Source\ClientSource\Client\GameLib\MapUtil.cpp
; File C:\DS Project\DS Files\Source\ClientSource\extern\include\d3dx8math.inl
; File C:\DS Project\DS Files\Source\ClientSource\Client\GameLib\MapUtil.cpp
; File C:\DS Project\DS Files\Source\ClientSource\extern\include\d3dx8math.inl
; File C:\DS Project\DS Files\Source\ClientSource\Client\GameLib\MapUtil.cpp
; File C:\DS Project\DS Files\Source\ClientSource\extern\include\d3dx8math.inl
; File C:\DS Project\DS Files\Source\ClientSource\Client\GameLib\MapUtil.cpp
; File C:\DS Project\DS Files\Source\ClientSource\extern\include\d3dx8math.inl
; File C:\DS Project\DS Files\Source\ClientSource\Client\GameLib\MapUtil.cpp
; File C:\Program Files (x86)\Microsoft Visual Studio\2019\Community\VC\Tools\MSVC\14.27.29110\include\xstring
; File C:\DS Project\DS Files\Source\ClientSource\Client\GameLib\MapUtil.cpp
; File C:\Program Files (x86)\Microsoft Visual Studio\2019\Community\VC\Tools\MSVC\14.27.29110\include\xstring
; File C:\DS Project\DS Files\Source\ClientSource\Client\GameLib\MapUtil.cpp
; File C:\DS Project\DS Files\Source\ClientSource\extern\include\d3dx8math.inl
; File C:\DS Project\DS Files\Source\ClientSource\Client\GameLib\MapUtil.cpp
; File C:\Program Files (x86)\Microsoft Visual Studio\2019\Community\VC\Tools\MSVC\14.27.29110\include\xstring
; File C:\DS Project\DS Files\Source\ClientSource\Client\GameLib\MapUtil.cpp
; File C:\Program Files (x86)\Microsoft Visual Studio\2019\Community\VC\Tools\MSVC\14.27.29110\include\xstring
; File C:\DS Project\DS Files\Source\ClientSource\Client\GameLib\MapUtil.cpp
;	COMDAT ?Environment_Init@@YAXAAUSEnvironmentData@@@Z
_TEXT	SEGMENT
$T4 = -12						; size = 12
$T5 = -12						; size = 12
$T6 = -12						; size = 12
_envData$ = 8						; size = 4
?Environment_Init@@YAXAAUSEnvironmentData@@@Z PROC	; Environment_Init, COMDAT

; 5    : {

  00000	55		 push	 ebp
  00001	8b ec		 mov	 ebp, esp
  00003	83 ec 0c	 sub	 esp, 12			; 0000000cH
; File C:\DS Project\DS Files\Source\ClientSource\extern\include\d3dx8math.inl

; 180  :     x = fx;

  00006	f3 0f 10 2d 00
	00 00 00	 movss	 xmm5, DWORD PTR __real@3f000000
  0000e	0f 57 e4	 xorps	 xmm4, xmm4

; 920  :     r = fr;

  00011	0f 28 1d 00 00
	00 00		 movaps	 xmm3, XMMWORD PTR __xmm@3f8000003f8000003f8000003f800000
  00018	0f 28 15 00 00
	00 00		 movaps	 xmm2, XMMWORD PTR __xmm@3f8000003f8000003f8000003f800000
  0001f	0f 28 0d 00 00
	00 00		 movaps	 xmm1, XMMWORD PTR __xmm@3f8000003f0000003f0000003f000000
  00026	0f 28 05 00 00
	00 00		 movaps	 xmm0, XMMWORD PTR __xmm@3f8000003f4ccccd3f4ccccd3f4ccccd
; File C:\DS Project\DS Files\Source\ClientSource\Client\GameLib\MapUtil.cpp

; 5    : {

  0002d	56		 push	 esi

; 6    : 	for (int i = 0; i < ENV_DIRLIGHT_NUM; ++i)
; 7    : 	{
; 8    : 		envData.bDirLightsEnable[i] = false;

  0002e	8b 75 08	 mov	 esi, DWORD PTR _envData$[ebp]
; File C:\DS Project\DS Files\Source\ClientSource\extern\include\d3dx8math.inl

; 182  :     z = fz;

  00031	c7 45 fc 00 00
	00 bf		 mov	 DWORD PTR $T6[ebp+8], -1090519040 ; bf000000H
; File C:\DS Project\DS Files\Source\ClientSource\Client\GameLib\MapUtil.cpp

; 10   : 		envData.DirLights[i].Direction = D3DXVECTOR3(0.5f, 0.5f, -0.5f);

  00038	8b 4d fc	 mov	 ecx, DWORD PTR $T6[ebp+8]
  0003b	0f 14 ed	 unpcklps xmm5, xmm5
  0003e	c7 06 00 00 00
	00		 mov	 DWORD PTR [esi], 0
  00044	66 0f d6 6e 48	 movq	 QWORD PTR [esi+72], xmm5
  00049	c7 46 08 03 00
	00 00		 mov	 DWORD PTR [esi+8], 3
  00050	89 4e 50	 mov	 DWORD PTR [esi+80], ecx

; 12   : 		envData.DirLights[i].Specular = D3DXCOLOR(1.0f, 1.0f, 1.0f, 1.0f);

  00053	0f 11 5e 1c	 movups	 XMMWORD PTR [esi+28], xmm3

; 13   : 		envData.DirLights[i].Diffuse = D3DXCOLOR(1.0f, 1.0f, 1.0f, 1.0f);
; 14   : 		envData.DirLights[i].Ambient = D3DXCOLOR(0.5f, 0.5f, 0.5f, 1.0f);
; 15   : 		envData.DirLights[i].Range = 0.0f; // Used by Point Light & Spot Light

  00057	c7 46 54 00 00
	00 00		 mov	 DWORD PTR [esi+84], 0
  0005e	0f 11 56 0c	 movups	 XMMWORD PTR [esi+12], xmm2

; 16   : 		envData.DirLights[i].Falloff = 1.0f; // Used by Spot Light

  00062	c7 46 58 00 00
	80 3f		 mov	 DWORD PTR [esi+88], 1065353216 ; 3f800000H
  00069	0f 11 4e 2c	 movups	 XMMWORD PTR [esi+44], xmm1

; 17   : 		envData.DirLights[i].Theta = 0.0f; // Used by Spot Light

  0006d	c7 46 68 00 00
	00 00		 mov	 DWORD PTR [esi+104], 0

; 18   : 		envData.DirLights[i].Phi = 0.0f; // Used by Spot Light

  00074	c7 46 6c 00 00
	00 00		 mov	 DWORD PTR [esi+108], 0

; 19   : 		envData.DirLights[i].Attenuation0 = 0.0f;

  0007b	c7 46 5c 00 00
	00 00		 mov	 DWORD PTR [esi+92], 0

; 20   : 		envData.DirLights[i].Attenuation1 = 1.0f;

  00082	c7 46 60 00 00
	80 3f		 mov	 DWORD PTR [esi+96], 1065353216 ; 3f800000H

; 21   : 		envData.DirLights[i].Attenuation2 = 0.0f;

  00089	c7 46 64 00 00
	00 00		 mov	 DWORD PTR [esi+100], 0
  00090	0f 14 e4	 unpcklps xmm4, xmm4
  00093	66 0f d6 66 3c	 movq	 QWORD PTR [esi+60], xmm4
; File C:\DS Project\DS Files\Source\ClientSource\extern\include\d3dx8math.inl

; 182  :     z = fz;

  00098	c7 45 fc 00 00
	00 00		 mov	 DWORD PTR $T5[ebp+8], 0
; File C:\DS Project\DS Files\Source\ClientSource\Client\GameLib\MapUtil.cpp

; 11   : 		envData.DirLights[i].Position = D3DXVECTOR3(0.0f, 0.0f, 0.0f);

  0009f	8b 45 fc	 mov	 eax, DWORD PTR $T5[ebp+8]
  000a2	89 46 44	 mov	 DWORD PTR [esi+68], eax
  000a5	c7 46 04 00 00
	00 00		 mov	 DWORD PTR [esi+4], 0
  000ac	66 0f d6 ae b0
	00 00 00	 movq	 QWORD PTR [esi+176], xmm5
  000b4	66 0f d6 a6 a4
	00 00 00	 movq	 QWORD PTR [esi+164], xmm4
  000bc	89 86 ac 00 00
	00		 mov	 DWORD PTR [esi+172], eax
  000c2	c7 46 70 03 00
	00 00		 mov	 DWORD PTR [esi+112], 3
  000c9	89 8e b8 00 00
	00		 mov	 DWORD PTR [esi+184], ecx

; 12   : 		envData.DirLights[i].Specular = D3DXCOLOR(1.0f, 1.0f, 1.0f, 1.0f);

  000cf	0f 11 9e 84 00
	00 00		 movups	 XMMWORD PTR [esi+132], xmm3

; 13   : 		envData.DirLights[i].Diffuse = D3DXCOLOR(1.0f, 1.0f, 1.0f, 1.0f);
; 14   : 		envData.DirLights[i].Ambient = D3DXCOLOR(0.5f, 0.5f, 0.5f, 1.0f);
; 15   : 		envData.DirLights[i].Range = 0.0f; // Used by Point Light & Spot Light

  000d6	c7 86 bc 00 00
	00 00 00 00 00	 mov	 DWORD PTR [esi+188], 0
  000e0	0f 11 56 74	 movups	 XMMWORD PTR [esi+116], xmm2

; 16   : 		envData.DirLights[i].Falloff = 1.0f; // Used by Spot Light

  000e4	c7 86 c0 00 00
	00 00 00 80 3f	 mov	 DWORD PTR [esi+192], 1065353216 ; 3f800000H
  000ee	0f 11 8e 94 00
	00 00		 movups	 XMMWORD PTR [esi+148], xmm1

; 17   : 		envData.DirLights[i].Theta = 0.0f; // Used by Spot Light

  000f5	c7 86 d0 00 00
	00 00 00 00 00	 mov	 DWORD PTR [esi+208], 0

; 18   : 		envData.DirLights[i].Phi = 0.0f; // Used by Spot Light

  000ff	c7 86 d4 00 00
	00 00 00 00 00	 mov	 DWORD PTR [esi+212], 0

; 19   : 		envData.DirLights[i].Attenuation0 = 0.0f;

  00109	c7 86 c4 00 00
	00 00 00 00 00	 mov	 DWORD PTR [esi+196], 0

; 20   : 		envData.DirLights[i].Attenuation1 = 1.0f;

  00113	c7 86 c8 00 00
	00 00 00 80 3f	 mov	 DWORD PTR [esi+200], 1065353216 ; 3f800000H

; 21   : 		envData.DirLights[i].Attenuation2 = 0.0f;

  0011d	c7 86 cc 00 00
	00 00 00 00 00	 mov	 DWORD PTR [esi+204], 0

; 22   : 	}
; 23   : 
; 24   : 	envData.Material.Diffuse = D3DXCOLOR(0.8f, 0.8f, 0.8f, 1.0f);

  00127	0f 11 86 d8 00
	00 00		 movups	 XMMWORD PTR [esi+216], xmm0
; File C:\DS Project\DS Files\Source\ClientSource\extern\include\d3dx8math.inl

; 182  :     z = fz;

  0012e	c7 45 fc 00 c0
	5a 45		 mov	 DWORD PTR $T4[ebp+8], 1163575296 ; 455ac000H

; 920  :     r = fr;

  00135	0f 28 05 00 00
	00 00		 movaps	 xmm0, XMMWORD PTR __xmm@3f8000003f4ccccd3f4ccccd3f4ccccd
; File C:\DS Project\DS Files\Source\ClientSource\Client\GameLib\MapUtil.cpp

; 44   : 	envData.v3SkyBoxScale = D3DXVECTOR3(3500.0f, 3500.0f, 3500.0f);

  0013c	8b 45 fc	 mov	 eax, DWORD PTR $T4[ebp+8]
  0013f	0f 11 86 e8 00
	00 00		 movups	 XMMWORD PTR [esi+232], xmm0
  00146	c7 86 18 01 00
	00 00 00 00 00	 mov	 DWORD PTR [esi+280], 0
; File C:\DS Project\DS Files\Source\ClientSource\extern\include\d3dx8math.inl

; 920  :     r = fr;

  00150	0f 28 05 00 00
	00 00		 movaps	 xmm0, XMMWORD PTR __xmm@3f8000003f4ccccd3f4ccccd3f4ccccd
; File C:\DS Project\DS Files\Source\ClientSource\Client\GameLib\MapUtil.cpp

; 26   : 	envData.Material.Emissive = D3DXCOLOR(0.8f, 0.8f, 0.8f, 1.0f);

  00157	0f 11 86 08 01
	00 00		 movups	 XMMWORD PTR [esi+264], xmm0

; 28   : 	envData.Material.Power = 0.0f;
; 29   : 
; 30   : 	envData.bFogEnable = FALSE;

  0015e	c7 86 1c 01 00
	00 00 00 00 00	 mov	 DWORD PTR [esi+284], 0
; File C:\DS Project\DS Files\Source\ClientSource\extern\include\d3dx8math.inl

; 920  :     r = fr;

  00168	0f 28 05 00 00
	00 00		 movaps	 xmm0, XMMWORD PTR __xmm@3f800000000000000000000000000000
; File C:\DS Project\DS Files\Source\ClientSource\Client\GameLib\MapUtil.cpp

; 27   : 	envData.Material.Specular = D3DXCOLOR(0.0f, 0.0f, 0.0f, 1.0f);

  0016f	0f 11 86 f8 00
	00 00		 movups	 XMMWORD PTR [esi+248], xmm0

; 31   : 	envData.bDensityFog = FALSE;

  00176	c7 86 20 01 00
	00 00 00 00 00	 mov	 DWORD PTR [esi+288], 0
; File C:\DS Project\DS Files\Source\ClientSource\extern\include\d3dx8math.inl

; 920  :     r = fr;

  00180	0f 28 05 00 00
	00 00		 movaps	 xmm0, XMMWORD PTR __xmm@3f8000003f0000003f0000003f000000
; File C:\DS Project\DS Files\Source\ClientSource\Client\GameLib\MapUtil.cpp

; 34   : 	envData.FogColor = D3DXCOLOR(0.5f, 0.5f, 0.5f, 1.0f);

  00187	0f 11 86 2c 01
	00 00		 movups	 XMMWORD PTR [esi+300], xmm0
  0018e	c7 86 24 01 00
	00 00 00 48 46	 mov	 DWORD PTR [esi+292], 1179123712 ; 46480000H
; File C:\DS Project\DS Files\Source\ClientSource\extern\include\d3dx8math.inl

; 920  :     r = fr;

  00198	0f 28 05 00 00
	00 00		 movaps	 xmm0, XMMWORD PTR __xmm@000000003dcccccd3dcccccd3e99999a
; File C:\DS Project\DS Files\Source\ClientSource\Client\GameLib\MapUtil.cpp

; 37   : 	envData.FilteringColor = D3DXCOLOR(0.3f, 0.1f, 0.1f, 0.0f);

  0019f	0f 11 86 40 01
	00 00		 movups	 XMMWORD PTR [esi+320], xmm0
  001a6	c7 86 28 01 00
	00 00 00 8c 46	 mov	 DWORD PTR [esi+296], 1183580160 ; 468c0000H
; File C:\DS Project\DS Files\Source\ClientSource\extern\include\d3dx8math.inl

; 180  :     x = fx;

  001b0	f3 0f 10 05 00
	00 00 00	 movss	 xmm0, DWORD PTR __real@455ac000
; File C:\DS Project\DS Files\Source\ClientSource\Client\GameLib\MapUtil.cpp

; 44   : 	envData.v3SkyBoxScale = D3DXVECTOR3(3500.0f, 3500.0f, 3500.0f);

  001b8	0f 14 c0	 unpcklps xmm0, xmm0
  001bb	66 0f d6 86 5c
	01 00 00	 movq	 QWORD PTR [esi+348], xmm0
  001c3	c7 86 3c 01 00
	00 00 00 00 00	 mov	 DWORD PTR [esi+316], 0
  001cd	66 c7 86 50 01
	00 00 02 02	 mov	 WORD PTR [esi+336], 514	; 00000202H
  001d6	c7 86 54 01 00
	00 cd cc 4c 3e	 mov	 DWORD PTR [esi+340], 1045220557 ; 3e4ccccdH
  001e0	c7 86 58 01 00
	00 00 00 00 00	 mov	 DWORD PTR [esi+344], 0
  001ea	89 86 64 01 00
	00		 mov	 DWORD PTR [esi+356], eax

; 45   : 	envData.bySkyBoxGradientLevelUpper = 0;

  001f0	66 c7 86 6c 01
	00 00 00 00	 mov	 WORD PTR [esi+364], 0

; 46   : 	envData.bySkyBoxGradientLevelLower = 0;
; 47   : 	envData.bSkyBoxTextureRenderMode = FALSE;

  001f9	c7 86 68 01 00
	00 00 00 00 00	 mov	 DWORD PTR [esi+360], 0

; 48   : 
; 49   : 	envData.v2CloudScale = D3DXVECTOR2(200000.0f, 200000.0f);

  00203	c7 86 00 02 00
	00 00 50 43 48	 mov	 DWORD PTR [esi+512], 1212370944 ; 48435000H
  0020d	c7 86 04 02 00
	00 00 50 43 48	 mov	 DWORD PTR [esi+516], 1212370944 ; 48435000H

; 50   : 	envData.fCloudHeight = 30000.0f;

  00217	c7 86 08 02 00
	00 00 60 ea 46	 mov	 DWORD PTR [esi+520], 1189765120 ; 46ea6000H

; 51   : 	envData.v2CloudTextureScale = D3DXVECTOR2(4.0f, 4.0f);

  00221	c7 86 0c 02 00
	00 00 00 80 40	 mov	 DWORD PTR [esi+524], 1082130432 ; 40800000H
  0022b	c7 86 10 02 00
	00 00 00 80 40	 mov	 DWORD PTR [esi+528], 1082130432 ; 40800000H

; 52   : 	envData.v2CloudSpeed = D3DXVECTOR2(0.001f, 0.001f);

  00235	c7 86 14 02 00
	00 6f 12 83 3a	 mov	 DWORD PTR [esi+532], 981668463 ; 3a83126fH
  0023f	c7 86 18 02 00
	00 6f 12 83 3a	 mov	 DWORD PTR [esi+536], 981668463 ; 3a83126fH
; File C:\Program Files (x86)\Microsoft Visual Studio\2019\Community\VC\Tools\MSVC\14.27.29110\include\xstring

; 2800 :         return assign(_Ptr);

  00249	68 00 00 00 00	 push	 OFFSET ??_C@_00CNPNBAHC@@
; File C:\DS Project\DS Files\Source\ClientSource\Client\GameLib\MapUtil.cpp

; 53   : 	envData.strCloudTextureFileName = "";

  0024e	8d 8e 1c 02 00
	00		 lea	 ecx, DWORD PTR [esi+540]
; File C:\Program Files (x86)\Microsoft Visual Studio\2019\Community\VC\Tools\MSVC\14.27.29110\include\xstring

; 2800 :         return assign(_Ptr);

  00254	e8 00 00 00 00	 call	 ?assign@?$basic_string@DU?$char_traits@D@std@@V?$allocator@D@2@@std@@QAEAAV12@QBD@Z ; std::basic_string<char,std::char_traits<char>,std::allocator<char> >::assign
; File C:\DS Project\DS Files\Source\ClientSource\Client\GameLib\MapUtil.cpp

; 54   : 	envData.CloudGradientColor.m_FirstColor = .0f;

  00259	c7 86 34 02 00
	00 00 00 00 00	 mov	 DWORD PTR [esi+564], 0

; 64   : 	envData.strMainFlareTextureFileName = "";

  00263	8d 8e 7c 02 00
	00		 lea	 ecx, DWORD PTR [esi+636]
  00269	c7 86 38 02 00
	00 00 00 00 00	 mov	 DWORD PTR [esi+568], 0
  00273	c7 86 3c 02 00
	00 00 00 00 00	 mov	 DWORD PTR [esi+572], 0
  0027d	c7 86 40 02 00
	00 00 00 00 00	 mov	 DWORD PTR [esi+576], 0
  00287	c7 86 44 02 00
	00 00 00 00 00	 mov	 DWORD PTR [esi+580], 0
  00291	c7 86 48 02 00
	00 00 00 00 00	 mov	 DWORD PTR [esi+584], 0
  0029b	c7 86 4c 02 00
	00 00 00 00 00	 mov	 DWORD PTR [esi+588], 0
  002a5	c7 86 50 02 00
	00 00 00 00 00	 mov	 DWORD PTR [esi+592], 0
  002af	8b 86 54 02 00
	00		 mov	 eax, DWORD PTR [esi+596]
; File C:\DS Project\DS Files\Source\ClientSource\extern\include\d3dx8math.inl

; 920  :     r = fr;

  002b5	0f 28 05 00 00
	00 00		 movaps	 xmm0, XMMWORD PTR __xmm@3f8000003f8000003f8000003f800000
; File C:\DS Project\DS Files\Source\ClientSource\Client\GameLib\MapUtil.cpp

; 57   : 	envData.SkyBoxGradientColorVector.clear();

  002bc	89 86 58 02 00
	00		 mov	 DWORD PTR [esi+600], eax
; File C:\Program Files (x86)\Microsoft Visual Studio\2019\Community\VC\Tools\MSVC\14.27.29110\include\xstring

; 2800 :         return assign(_Ptr);

  002c2	68 00 00 00 00	 push	 OFFSET ??_C@_00CNPNBAHC@@
; File C:\DS Project\DS Files\Source\ClientSource\Client\GameLib\MapUtil.cpp

; 59   : 	envData.bLensFlareEnable = FALSE;

  002c7	c7 86 60 02 00
	00 00 00 00 00	 mov	 DWORD PTR [esi+608], 0

; 60   : 	envData.LensFlareBrightnessColor = D3DXCOLOR(1.0f, 1.0f, 1.0f, 1.0f);

  002d1	0f 11 86 64 02
	00 00		 movups	 XMMWORD PTR [esi+612], xmm0

; 61   : 	envData.fLensFlareMaxBrightness = 1.0f;

  002d8	c7 86 74 02 00
	00 00 00 80 3f	 mov	 DWORD PTR [esi+628], 1065353216 ; 3f800000H

; 62   : 
; 63   : 	envData.bMainFlareEnable = FALSE;

  002e2	c7 86 78 02 00
	00 00 00 00 00	 mov	 DWORD PTR [esi+632], 0
; File C:\Program Files (x86)\Microsoft Visual Studio\2019\Community\VC\Tools\MSVC\14.27.29110\include\xstring

; 2800 :         return assign(_Ptr);

  002ec	e8 00 00 00 00	 call	 ?assign@?$basic_string@DU?$char_traits@D@std@@V?$allocator@D@2@@std@@QAEAAV12@QBD@Z ; std::basic_string<char,std::char_traits<char>,std::allocator<char> >::assign
; File C:\DS Project\DS Files\Source\ClientSource\Client\GameLib\MapUtil.cpp

; 65   : 	envData.fMainFlareSize = 0.2f;

  002f1	c7 86 94 02 00
	00 cd cc 4c 3e	 mov	 DWORD PTR [esi+660], 1045220557 ; 3e4ccccdH

; 66   : 
; 67   : 	envData.bReserve = FALSE;

  002fb	c7 86 98 02 00
	00 00 00 00 00	 mov	 DWORD PTR [esi+664], 0
  00305	5e		 pop	 esi

; 68   : }

  00306	8b e5		 mov	 esp, ebp
  00308	5d		 pop	 ebp
  00309	c3		 ret	 0
?Environment_Init@@YAXAAUSEnvironmentData@@@Z ENDP	; Environment_Init
_TEXT	ENDS
; Function compile flags: /Ogtp
; File C:\Program Files (x86)\Microsoft Visual Studio\2019\Community\VC\Tools\MSVC\14.27.29110\include\vector
;	COMDAT ?_Xlength@?$vector@UTGradientColor@@V?$allocator@UTGradientColor@@@std@@@std@@CAXXZ
_TEXT	SEGMENT
?_Xlength@?$vector@UTGradientColor@@V?$allocator@UTGradientColor@@@std@@@std@@CAXXZ PROC ; std::vector<TGradientColor,std::allocator<TGradientColor> >::_Xlength, COMDAT

; 1704 :         _Xlength_error("vector too long");

  00000	68 00 00 00 00	 push	 OFFSET ??_C@_0BA@FOIKENOD@vector?5too?5long@
  00005	e8 00 00 00 00	 call	 ?_Xlength_error@std@@YAXPBD@Z ; std::_Xlength_error
$LN3@Xlength:
  0000a	cc		 int	 3
?_Xlength@?$vector@UTGradientColor@@V?$allocator@UTGradientColor@@@std@@@std@@CAXXZ ENDP ; std::vector<TGradientColor,std::allocator<TGradientColor> >::_Xlength
_TEXT	ENDS
; Function compile flags: /Ogtp
; File C:\Program Files (x86)\Microsoft Visual Studio\2019\Community\VC\Tools\MSVC\14.27.29110\include\vector
;	COMDAT ?_Xrange@?$vector@V?$basic_string@DU?$char_traits@D@std@@V?$allocator@D@2@@std@@V?$allocator@V?$basic_string@DU?$char_traits@D@std@@V?$allocator@D@2@@std@@@2@@std@@CAXXZ
_TEXT	SEGMENT
?_Xrange@?$vector@V?$basic_string@DU?$char_traits@D@std@@V?$allocator@D@2@@std@@V?$allocator@V?$basic_string@DU?$char_traits@D@std@@V?$allocator@D@2@@std@@@2@@std@@CAXXZ PROC ; std::vector<std::basic_string<char,std::char_traits<char>,std::allocator<char> >,std::allocator<std::basic_string<char,std::char_traits<char>,std::allocator<char> > > >::_Xrange, COMDAT

; 1708 :         _Xout_of_range("invalid vector subscript");

  00000	68 00 00 00 00	 push	 OFFSET ??_C@_0BJ@DHFDPMIM@invalid?5vector?5subscript@
  00005	e8 00 00 00 00	 call	 ?_Xout_of_range@std@@YAXPBD@Z ; std::_Xout_of_range
$LN3@Xrange:
  0000a	cc		 int	 3
?_Xrange@?$vector@V?$basic_string@DU?$char_traits@D@std@@V?$allocator@D@2@@std@@V?$allocator@V?$basic_string@DU?$char_traits@D@std@@V?$allocator@D@2@@std@@@2@@std@@CAXXZ ENDP ; std::vector<std::basic_string<char,std::char_traits<char>,std::allocator<char> >,std::allocator<std::basic_string<char,std::char_traits<char>,std::allocator<char> > > >::_Xrange
_TEXT	ENDS
; Function compile flags: /Ogtp
; File C:\Program Files (x86)\Microsoft Visual Studio\2019\Community\VC\Tools\MSVC\14.27.29110\include\vector
;	COMDAT ?at@?$vector@V?$basic_string@DU?$char_traits@D@std@@V?$allocator@D@2@@std@@V?$allocator@V?$basic_string@DU?$char_traits@D@std@@V?$allocator@D@2@@std@@@2@@std@@QAEAAV?$basic_string@DU?$char_traits@D@std@@V?$allocator@D@2@@2@I@Z
_TEXT	SEGMENT
__Pos$ = 8						; size = 4
?at@?$vector@V?$basic_string@DU?$char_traits@D@std@@V?$allocator@D@2@@std@@V?$allocator@V?$basic_string@DU?$char_traits@D@std@@V?$allocator@D@2@@std@@@2@@std@@QAEAAV?$basic_string@DU?$char_traits@D@std@@V?$allocator@D@2@@2@I@Z PROC ; std::vector<std::basic_string<char,std::char_traits<char>,std::allocator<char> >,std::allocator<std::basic_string<char,std::char_traits<char>,std::allocator<char> > > >::at, COMDAT
; _this$ = ecx

; 1517 :     _NODISCARD _Ty& at(const size_type _Pos) {

  00000	55		 push	 ebp
  00001	8b ec		 mov	 ebp, esp
  00003	56		 push	 esi

; 1518 :         auto& _My_data = _Mypair._Myval2;
; 1519 :         if (static_cast<size_type>(_My_data._Mylast - _My_data._Myfirst) <= _Pos) {

  00004	8b 31		 mov	 esi, DWORD PTR [ecx]
  00006	b8 ab aa aa 2a	 mov	 eax, 715827883		; 2aaaaaabH
  0000b	8b 49 04	 mov	 ecx, DWORD PTR [ecx+4]
  0000e	2b ce		 sub	 ecx, esi
  00010	f7 e9		 imul	 ecx
  00012	8b 4d 08	 mov	 ecx, DWORD PTR __Pos$[ebp]
  00015	c1 fa 02	 sar	 edx, 2
  00018	8b c2		 mov	 eax, edx
  0001a	c1 e8 1f	 shr	 eax, 31			; 0000001fH
  0001d	03 c2		 add	 eax, edx
  0001f	3b c1		 cmp	 eax, ecx
  00021	76 0b		 jbe	 SHORT $LN6@at

; 1521 :         }
; 1522 : 
; 1523 :         return _My_data._Myfirst[_Pos];

  00023	8d 04 49	 lea	 eax, DWORD PTR [ecx+ecx*2]
  00026	8d 04 c6	 lea	 eax, DWORD PTR [esi+eax*8]
  00029	5e		 pop	 esi

; 1524 :     }

  0002a	5d		 pop	 ebp
  0002b	c2 04 00	 ret	 4
$LN6@at:

; 1520 :             _Xrange();

  0002e	e8 00 00 00 00	 call	 ?_Xrange@?$vector@V?$basic_string@DU?$char_traits@D@std@@V?$allocator@D@2@@std@@V?$allocator@V?$basic_string@DU?$char_traits@D@std@@V?$allocator@D@2@@std@@@2@@std@@CAXXZ ; std::vector<std::basic_string<char,std::char_traits<char>,std::allocator<char> >,std::allocator<std::basic_string<char,std::char_traits<char>,std::allocator<char> > > >::_Xrange
$LN4@at:
  00033	cc		 int	 3
?at@?$vector@V?$basic_string@DU?$char_traits@D@std@@V?$allocator@D@2@@std@@V?$allocator@V?$basic_string@DU?$char_traits@D@std@@V?$allocator@D@2@@std@@@2@@std@@QAEAAV?$basic_string@DU?$char_traits@D@std@@V?$allocator@D@2@@2@I@Z ENDP ; std::vector<std::basic_string<char,std::char_traits<char>,std::allocator<char> >,std::allocator<std::basic_string<char,std::char_traits<char>,std::allocator<char> > > >::at
_TEXT	ENDS
; Function compile flags: /Ogtp
; File C:\Program Files (x86)\Microsoft Visual Studio\2019\Community\VC\Tools\MSVC\14.27.29110\include\xstring
; File C:\Program Files (x86)\Microsoft Visual Studio\2019\Community\VC\Tools\MSVC\14.27.29110\include\utility
; File C:\Program Files (x86)\Microsoft Visual Studio\2019\Community\VC\Tools\MSVC\14.27.29110\include\xstring
; File C:\Program Files (x86)\Microsoft Visual Studio\2019\Community\VC\Tools\MSVC\14.27.29110\include\xmemory
; File C:\Program Files (x86)\Microsoft Visual Studio\2019\Community\VC\Tools\MSVC\14.27.29110\include\xstring
; File C:\Program Files (x86)\Microsoft Visual Studio\2019\Community\VC\Tools\MSVC\14.27.29110\include\xmemory
; File C:\Program Files (x86)\Microsoft Visual Studio\2019\Community\VC\Tools\MSVC\14.27.29110\include\xstring
;	COMDAT ?assign@?$basic_string@DU?$char_traits@D@std@@V?$allocator@D@2@@std@@QAEAAV12@QBD@Z
_TEXT	SEGMENT
__Old$1$ = -8						; size = 4
__New_ptr$1 = -4					; size = 4
__Ptr$ = 8						; size = 4
?assign@?$basic_string@DU?$char_traits@D@std@@V?$allocator@D@2@@std@@QAEAAV12@QBD@Z PROC ; std::basic_string<char,std::char_traits<char>,std::allocator<char> >::assign, COMDAT
; _this$ = ecx

; 2983 :     basic_string& assign(_In_z_ const _Elem* const _Ptr) {

  00000	55		 push	 ebp
  00001	8b ec		 mov	 ebp, esp

; 321  :         return _CSTD strlen(reinterpret_cast<const char*>(_First));

  00003	8b 55 08	 mov	 edx, DWORD PTR __Ptr$[ebp]

; 2983 :     basic_string& assign(_In_z_ const _Elem* const _Ptr) {

  00006	83 ec 08	 sub	 esp, 8
  00009	53		 push	 ebx
  0000a	56		 push	 esi

; 321  :         return _CSTD strlen(reinterpret_cast<const char*>(_First));

  0000b	8b f2		 mov	 esi, edx

; 2983 :     basic_string& assign(_In_z_ const _Elem* const _Ptr) {

  0000d	57		 push	 edi
  0000e	8b f9		 mov	 edi, ecx

; 321  :         return _CSTD strlen(reinterpret_cast<const char*>(_First));

  00010	8d 4e 01	 lea	 ecx, DWORD PTR [esi+1]
$LL38@assign:
  00013	8a 06		 mov	 al, BYTE PTR [esi]
  00015	46		 inc	 esi
  00016	84 c0		 test	 al, al
  00018	75 f9		 jne	 SHORT $LL38@assign
  0001a	2b f1		 sub	 esi, ecx

; 2966 :         if (_Count <= _Mypair._Myval2._Myres) {

  0001c	8b 4f 14	 mov	 ecx, DWORD PTR [edi+20]
  0001f	89 4d f8	 mov	 DWORD PTR __Old$1$[ebp], ecx
  00022	3b f1		 cmp	 esi, ecx
  00024	77 26		 ja	 SHORT $LN6@assign

; 2135 :         value_type* _Result = _Bx._Buf;

  00026	8b df		 mov	 ebx, edi

; 2153 :         return _BUF_SIZE <= _Myres;

  00028	83 f9 10	 cmp	 ecx, 16			; 00000010H

; 2136 :         if (_Large_string_engaged()) {

  0002b	72 02		 jb	 SHORT $LN9@assign

; 2137 :             _Result = _Unfancy(_Bx._Ptr);

  0002d	8b 1f		 mov	 ebx, DWORD PTR [edi]
$LN9@assign:

; 363  :         return static_cast<_Elem*>(_CSTD memmove(_First1, _First2, _Count));

  0002f	56		 push	 esi
  00030	52		 push	 edx
  00031	53		 push	 ebx

; 2968 :             _Mypair._Myval2._Mysize = _Count;

  00032	89 77 10	 mov	 DWORD PTR [edi+16], esi

; 363  :         return static_cast<_Elem*>(_CSTD memmove(_First1, _First2, _Count));

  00035	e8 00 00 00 00	 call	 _memmove
  0003a	83 c4 0c	 add	 esp, 12			; 0000000cH

; 2970 :             _Traits::assign(_Old_ptr[_Count], _Elem());

  0003d	c6 04 33 00	 mov	 BYTE PTR [ebx+esi], 0

; 2984 :         return assign(_Ptr, _Convert_size<size_type>(_Traits::length(_Ptr)));

  00041	8b c7		 mov	 eax, edi
  00043	5f		 pop	 edi
  00044	5e		 pop	 esi
  00045	5b		 pop	 ebx

; 2985 :     }

  00046	8b e5		 mov	 esp, ebp
  00048	5d		 pop	 ebp
  00049	c2 04 00	 ret	 4
$LN6@assign:

; 4221 :         if (_New_size > max_size()) {

  0004c	81 fe ff ff ff
	7f		 cmp	 esi, 2147483647		; 7fffffffH
  00052	0f 87 91 00 00
	00		 ja	 $LN42@assign

; 4201 :         const size_type _Masked = _Requested | _ALLOC_MASK;

  00058	8b de		 mov	 ebx, esi
  0005a	83 cb 0f	 or	 ebx, 15			; 0000000fH
  0005d	81 fb ff ff ff
	7f		 cmp	 ebx, 2147483647		; 7fffffffH

; 4202 :         if (_Masked > _Max) { // the mask overflows, settle for max_size()

  00063	76 07		 jbe	 SHORT $LN23@assign

; 4203 :             return _Max;

  00065	bb ff ff ff 7f	 mov	 ebx, 2147483647		; 7fffffffH
  0006a	eb 1e		 jmp	 SHORT $LN22@assign
$LN23@assign:

; 4204 :         }
; 4205 : 
; 4206 :         if (_Old > _Max - _Old / 2) { // similarly, geometric overflows

  0006c	8b d1		 mov	 edx, ecx
  0006e	b8 ff ff ff 7f	 mov	 eax, 2147483647		; 7fffffffH
  00073	d1 ea		 shr	 edx, 1
  00075	2b c2		 sub	 eax, edx
  00077	3b c8		 cmp	 ecx, eax
  00079	76 07		 jbe	 SHORT $LN24@assign

; 4207 :             return _Max;

  0007b	bb ff ff ff 7f	 mov	 ebx, 2147483647		; 7fffffffH
  00080	eb 08		 jmp	 SHORT $LN22@assign
$LN24@assign:

; 4208 :         }
; 4209 : 
; 4210 :         return (_STD max)(_Masked, _Old + _Old / 2);

  00082	8d 04 0a	 lea	 eax, DWORD PTR [edx+ecx]
; File C:\Program Files (x86)\Microsoft Visual Studio\2019\Community\VC\Tools\MSVC\14.27.29110\include\utility

; 44   :     return _Left < _Right ? _Right : _Left;

  00085	3b d8		 cmp	 ebx, eax
  00087	0f 42 d8	 cmovb	 ebx, eax
$LN22@assign:
; File C:\Program Files (x86)\Microsoft Visual Studio\2019\Community\VC\Tools\MSVC\14.27.29110\include\xstring

; 4228 :         const pointer _New_ptr        = _Al.allocate(_New_capacity + 1); // throws

  0008a	8d 43 01	 lea	 eax, DWORD PTR [ebx+1]
; File C:\Program Files (x86)\Microsoft Visual Studio\2019\Community\VC\Tools\MSVC\14.27.29110\include\xmemory

; 807  :         return static_cast<_Ty*>(_Allocate<_New_alignof<_Ty>>(_Get_size_of_n<sizeof(_Ty)>(_Count)));

  0008d	50		 push	 eax
  0008e	e8 00 00 00 00	 call	 ??$_Allocate@$07U_Default_allocate_traits@std@@$0A@@std@@YAPAXI@Z ; std::_Allocate<8,std::_Default_allocate_traits,0>
; File C:\Program Files (x86)\Microsoft Visual Studio\2019\Community\VC\Tools\MSVC\14.27.29110\include\xstring

; 328  :         return static_cast<_Elem*>(_CSTD memcpy(_First1, _First2, _Count));

  00093	56		 push	 esi
  00094	ff 75 08	 push	 DWORD PTR __Ptr$[ebp]

; 4228 :         const pointer _New_ptr        = _Al.allocate(_New_capacity + 1); // throws

  00097	89 45 fc	 mov	 DWORD PTR __New_ptr$1[ebp], eax

; 328  :         return static_cast<_Elem*>(_CSTD memcpy(_First1, _First2, _Count));

  0009a	50		 push	 eax

; 4230 :         _Mypair._Myval2._Mysize = _New_size;

  0009b	89 77 10	 mov	 DWORD PTR [edi+16], esi

; 4231 :         _Mypair._Myval2._Myres  = _New_capacity;

  0009e	89 5f 14	 mov	 DWORD PTR [edi+20], ebx

; 328  :         return static_cast<_Elem*>(_CSTD memcpy(_First1, _First2, _Count));

  000a1	e8 00 00 00 00	 call	 _memcpy

; 2978 :                 _Traits::assign(_New_ptr[_Count], _Elem());

  000a6	8b 5d fc	 mov	 ebx, DWORD PTR __New_ptr$1[ebp]

; 328  :         return static_cast<_Elem*>(_CSTD memcpy(_First1, _First2, _Count));

  000a9	83 c4 10	 add	 esp, 16			; 00000010H

; 4233 :         if (_BUF_SIZE <= _Old_capacity) {

  000ac	8b 45 f8	 mov	 eax, DWORD PTR __Old$1$[ebp]

; 2978 :                 _Traits::assign(_New_ptr[_Count], _Elem());

  000af	c6 04 33 00	 mov	 BYTE PTR [ebx+esi], 0

; 4233 :         if (_BUF_SIZE <= _Old_capacity) {

  000b3	83 f8 10	 cmp	 eax, 16			; 00000010H
  000b6	72 19		 jb	 SHORT $LN17@assign

; 4234 :             _Al.deallocate(_Mypair._Myval2._Bx._Ptr, _Old_capacity + 1);

  000b8	40		 inc	 eax
; File C:\Program Files (x86)\Microsoft Visual Studio\2019\Community\VC\Tools\MSVC\14.27.29110\include\xmemory

; 803  :         _Deallocate<_New_alignof<_Ty>>(_Ptr, sizeof(_Ty) * _Count);

  000b9	50		 push	 eax
  000ba	ff 37		 push	 DWORD PTR [edi]
  000bc	e8 00 00 00 00	 call	 ??$_Deallocate@$07$0A@@std@@YAXPAXI@Z ; std::_Deallocate<8,0>
; File C:\Program Files (x86)\Microsoft Visual Studio\2019\Community\VC\Tools\MSVC\14.27.29110\include\xstring

; 2984 :         return assign(_Ptr, _Convert_size<size_type>(_Traits::length(_Ptr)));

  000c1	83 c4 08	 add	 esp, 8

; 4235 :             _Mypair._Myval2._Bx._Ptr = _New_ptr;

  000c4	89 1f		 mov	 DWORD PTR [edi], ebx

; 2984 :         return assign(_Ptr, _Convert_size<size_type>(_Traits::length(_Ptr)));

  000c6	8b c7		 mov	 eax, edi
  000c8	5f		 pop	 edi
  000c9	5e		 pop	 esi
  000ca	5b		 pop	 ebx

; 2985 :     }

  000cb	8b e5		 mov	 esp, ebp
  000cd	5d		 pop	 ebp
  000ce	c2 04 00	 ret	 4
$LN17@assign:

; 4237 :             _Construct_in_place(_Mypair._Myval2._Bx._Ptr, _New_ptr);

  000d1	8d 45 fc	 lea	 eax, DWORD PTR __New_ptr$1[ebp]
  000d4	50		 push	 eax
  000d5	57		 push	 edi
  000d6	e8 00 00 00 00	 call	 ??$_Construct_in_place@PADABQAD@std@@YAXAAPADABQAD@Z ; std::_Construct_in_place<char *,char * const &>

; 2984 :         return assign(_Ptr, _Convert_size<size_type>(_Traits::length(_Ptr)));

  000db	83 c4 08	 add	 esp, 8
  000de	8b c7		 mov	 eax, edi
  000e0	5f		 pop	 edi
  000e1	5e		 pop	 esi
  000e2	5b		 pop	 ebx

; 2985 :     }

  000e3	8b e5		 mov	 esp, ebp
  000e5	5d		 pop	 ebp
  000e6	c2 04 00	 ret	 4
$LN42@assign:

; 4222 :             _Xlen_string(); // result too long

  000e9	e8 00 00 00 00	 call	 ?_Xlen_string@std@@YAXXZ ; std::_Xlen_string
$LN39@assign:
  000ee	cc		 int	 3
?assign@?$basic_string@DU?$char_traits@D@std@@V?$allocator@D@2@@std@@QAEAAV12@QBD@Z ENDP ; std::basic_string<char,std::char_traits<char>,std::allocator<char> >::assign
_TEXT	ENDS
; Function compile flags: /Ogtp
; File C:\Program Files (x86)\Microsoft Visual Studio\2019\Community\VC\Tools\MSVC\14.27.29110\include\xstring
; File C:\Program Files (x86)\Microsoft Visual Studio\2019\Community\VC\Tools\MSVC\14.27.29110\include\xmemory
; File C:\Program Files (x86)\Microsoft Visual Studio\2019\Community\VC\Tools\MSVC\14.27.29110\include\xstring
;	COMDAT ??1?$basic_string@DU?$char_traits@D@std@@V?$allocator@D@2@@std@@QAE@XZ
_TEXT	SEGMENT
??1?$basic_string@DU?$char_traits@D@std@@V?$allocator@D@2@@std@@QAE@XZ PROC ; std::basic_string<char,std::char_traits<char>,std::allocator<char> >::~basic_string<char,std::char_traits<char>,std::allocator<char> >, COMDAT
; _this$ = ecx

; 2722 :     ~basic_string() noexcept {

  00000	56		 push	 esi
  00001	8b f1		 mov	 esi, ecx

; 2153 :         return _BUF_SIZE <= _Myres;

  00003	8b 46 14	 mov	 eax, DWORD PTR [esi+20]
  00006	83 f8 10	 cmp	 eax, 16			; 00000010H

; 4301 :         if (_Mypair._Myval2._Large_string_engaged()) {

  00009	72 0c		 jb	 SHORT $LN4@basic_stri

; 4302 :             const pointer _Ptr = _Mypair._Myval2._Bx._Ptr;
; 4303 :             auto& _Al          = _Getal();
; 4304 :             _Destroy_in_place(_Mypair._Myval2._Bx._Ptr);
; 4305 :             _Al.deallocate(_Ptr, _Mypair._Myval2._Myres + 1);

  0000b	40		 inc	 eax
; File C:\Program Files (x86)\Microsoft Visual Studio\2019\Community\VC\Tools\MSVC\14.27.29110\include\xmemory

; 803  :         _Deallocate<_New_alignof<_Ty>>(_Ptr, sizeof(_Ty) * _Count);

  0000c	50		 push	 eax
  0000d	ff 36		 push	 DWORD PTR [esi]
  0000f	e8 00 00 00 00	 call	 ??$_Deallocate@$07$0A@@std@@YAXPAXI@Z ; std::_Deallocate<8,0>
  00014	83 c4 08	 add	 esp, 8
$LN4@basic_stri:
; File C:\Program Files (x86)\Microsoft Visual Studio\2019\Community\VC\Tools\MSVC\14.27.29110\include\xstring

; 4308 :         _Mypair._Myval2._Mysize = 0;

  00017	c7 46 10 00 00
	00 00		 mov	 DWORD PTR [esi+16], 0

; 4309 :         _Mypair._Myval2._Myres  = _BUF_SIZE - 1;

  0001e	c7 46 14 0f 00
	00 00		 mov	 DWORD PTR [esi+20], 15	; 0000000fH

; 4310 :         // the _Traits::assign is last so the codegen doesn't think the char write can alias this
; 4311 :         _Traits::assign(_Mypair._Myval2._Bx._Buf[0], _Elem());

  00025	c6 06 00	 mov	 BYTE PTR [esi], 0
  00028	5e		 pop	 esi

; 2723 :         _Tidy_deallocate();
; 2724 : #if _ITERATOR_DEBUG_LEVEL != 0
; 2725 :         auto&& _Alproxy          = _GET_PROXY_ALLOCATOR(_Alty, _Getal());
; 2726 :         const auto _To_delete    = _Mypair._Myval2._Myproxy;
; 2727 :         _Mypair._Myval2._Myproxy = nullptr;
; 2728 :         _Delete_plain_internal(_Alproxy, _To_delete);
; 2729 : #endif // _ITERATOR_DEBUG_LEVEL != 0
; 2730 :     }

  00029	c3		 ret	 0
??1?$basic_string@DU?$char_traits@D@std@@V?$allocator@D@2@@std@@QAE@XZ ENDP ; std::basic_string<char,std::char_traits<char>,std::allocator<char> >::~basic_string<char,std::char_traits<char>,std::allocator<char> >
_TEXT	ENDS
; Function compile flags: /Ogtp
; File C:\Program Files (x86)\Microsoft Visual Studio\2019\Community\VC\Tools\MSVC\14.27.29110\include\xstring
;	COMDAT ?_Xlen_string@std@@YAXXZ
_TEXT	SEGMENT
?_Xlen_string@std@@YAXXZ PROC				; std::_Xlen_string, COMDAT

; 2201 :     _Xlength_error("string too long");

  00000	68 00 00 00 00	 push	 OFFSET ??_C@_0BA@JFNIOLAK@string?5too?5long@
  00005	e8 00 00 00 00	 call	 ?_Xlength_error@std@@YAXPBD@Z ; std::_Xlength_error
$LN3@Xlen_strin:
  0000a	cc		 int	 3
?_Xlen_string@std@@YAXXZ ENDP				; std::_Xlen_string
_TEXT	ENDS
; Function compile flags: /Ogtp
; File C:\Program Files (x86)\Microsoft Visual Studio\2019\Community\VC\Tools\MSVC\14.27.29110\include\exception
;	COMDAT ?_Throw_bad_array_new_length@std@@YAXXZ
_TEXT	SEGMENT
$T1 = -12						; size = 12
?_Throw_bad_array_new_length@std@@YAXXZ PROC		; std::_Throw_bad_array_new_length, COMDAT

; 320  : [[noreturn]] inline void _Throw_bad_array_new_length() {

  00000	55		 push	 ebp
  00001	8b ec		 mov	 ebp, esp
  00003	83 ec 0c	 sub	 esp, 12			; 0000000cH

; 321  :     _THROW(bad_array_new_length{});

  00006	8d 4d f4	 lea	 ecx, DWORD PTR $T1[ebp]
  00009	e8 00 00 00 00	 call	 ??0bad_array_new_length@std@@QAE@XZ ; std::bad_array_new_length::bad_array_new_length
  0000e	68 00 00 00 00	 push	 OFFSET __TI3?AVbad_array_new_length@std@@
  00013	8d 45 f4	 lea	 eax, DWORD PTR $T1[ebp]
  00016	50		 push	 eax
  00017	e8 00 00 00 00	 call	 __CxxThrowException@8
$LN3@Throw_bad_:
  0001c	cc		 int	 3
?_Throw_bad_array_new_length@std@@YAXXZ ENDP		; std::_Throw_bad_array_new_length
_TEXT	ENDS
; Function compile flags: /Ogtp
; File C:\Program Files (x86)\Microsoft Visual Studio\2019\Community\VC\Tools\MSVC\14.27.29110\include\vcruntime_exception.h
;	COMDAT ??_Gbad_array_new_length@std@@UAEPAXI@Z
_TEXT	SEGMENT
___flags$ = 8						; size = 4
??_Gbad_array_new_length@std@@UAEPAXI@Z PROC		; std::bad_array_new_length::`scalar deleting destructor', COMDAT
; _this$ = ecx
  00000	55		 push	 ebp
  00001	8b ec		 mov	 ebp, esp

; 89   :     {

  00003	56		 push	 esi
  00004	8b f1		 mov	 esi, ecx

; 90   :         __std_exception_destroy(&_Data);

  00006	8d 46 04	 lea	 eax, DWORD PTR [esi+4]
  00009	c7 06 00 00 00
	00		 mov	 DWORD PTR [esi], OFFSET ??_7exception@std@@6B@
  0000f	50		 push	 eax
  00010	e8 00 00 00 00	 call	 ___std_exception_destroy
  00015	83 c4 04	 add	 esp, 4
  00018	f6 45 08 01	 test	 BYTE PTR ___flags$[ebp], 1
  0001c	74 0b		 je	 SHORT $LN12@scalar
  0001e	6a 0c		 push	 12			; 0000000cH
  00020	56		 push	 esi
  00021	e8 00 00 00 00	 call	 ??3@YAXPAXI@Z		; operator delete
  00026	83 c4 08	 add	 esp, 8
$LN12@scalar:
  00029	8b c6		 mov	 eax, esi
  0002b	5e		 pop	 esi
  0002c	5d		 pop	 ebp
  0002d	c2 04 00	 ret	 4
??_Gbad_array_new_length@std@@UAEPAXI@Z ENDP		; std::bad_array_new_length::`scalar deleting destructor'
_TEXT	ENDS
; Function compile flags: /Ogtp
; File C:\Program Files (x86)\Microsoft Visual Studio\2019\Community\VC\Tools\MSVC\14.27.29110\include\vcruntime_exception.h
;	COMDAT ??0bad_array_new_length@std@@QAE@ABV01@@Z
_TEXT	SEGMENT
___that$ = 8						; size = 4
??0bad_array_new_length@std@@QAE@ABV01@@Z PROC		; std::bad_array_new_length::bad_array_new_length, COMDAT
; _this$ = ecx
  00000	55		 push	 ebp
  00001	8b ec		 mov	 ebp, esp

; 72   :     {

  00003	56		 push	 esi
  00004	8b f1		 mov	 esi, ecx
  00006	0f 57 c0	 xorps	 xmm0, xmm0

; 71   :         : _Data()

  00009	8d 46 04	 lea	 eax, DWORD PTR [esi+4]

; 73   :         __std_exception_copy(&_Other._Data, &_Data);

  0000c	50		 push	 eax
  0000d	c7 06 00 00 00
	00		 mov	 DWORD PTR [esi], OFFSET ??_7exception@std@@6B@
  00013	66 0f d6 00	 movq	 QWORD PTR [eax], xmm0
  00017	8b 45 08	 mov	 eax, DWORD PTR ___that$[ebp]
  0001a	83 c0 04	 add	 eax, 4
  0001d	50		 push	 eax
  0001e	e8 00 00 00 00	 call	 ___std_exception_copy
  00023	83 c4 08	 add	 esp, 8
  00026	c7 06 00 00 00
	00		 mov	 DWORD PTR [esi], OFFSET ??_7bad_array_new_length@std@@6B@
  0002c	8b c6		 mov	 eax, esi
  0002e	5e		 pop	 esi
  0002f	5d		 pop	 ebp
  00030	c2 04 00	 ret	 4
??0bad_array_new_length@std@@QAE@ABV01@@Z ENDP		; std::bad_array_new_length::bad_array_new_length
_TEXT	ENDS
; Function compile flags: /Ogtp
; File C:\Program Files (x86)\Microsoft Visual Studio\2019\Community\VC\Tools\MSVC\14.27.29110\include\vcruntime_exception.h
;	COMDAT ??1bad_array_new_length@std@@UAE@XZ
_TEXT	SEGMENT
??1bad_array_new_length@std@@UAE@XZ PROC		; std::bad_array_new_length::~bad_array_new_length, COMDAT
; _this$ = ecx

; 90   :         __std_exception_destroy(&_Data);

  00000	8d 41 04	 lea	 eax, DWORD PTR [ecx+4]
  00003	c7 01 00 00 00
	00		 mov	 DWORD PTR [ecx], OFFSET ??_7exception@std@@6B@
  00009	50		 push	 eax
  0000a	e8 00 00 00 00	 call	 ___std_exception_destroy
  0000f	59		 pop	 ecx
  00010	c3		 ret	 0
??1bad_array_new_length@std@@UAE@XZ ENDP		; std::bad_array_new_length::~bad_array_new_length
_TEXT	ENDS
; Function compile flags: /Ogtp
; File C:\Program Files (x86)\Microsoft Visual Studio\2019\Community\VC\Tools\MSVC\14.27.29110\include\vcruntime_exception.h
;	COMDAT ??0bad_array_new_length@std@@QAE@XZ
_TEXT	SEGMENT
??0bad_array_new_length@std@@QAE@XZ PROC		; std::bad_array_new_length::bad_array_new_length, COMDAT
; _this$ = ecx

; 141  :     {

  00000	0f 57 c0	 xorps	 xmm0, xmm0

; 142  :     }

  00003	8b c1		 mov	 eax, ecx

; 65   :         : _Data()

  00005	66 0f d6 41 04	 movq	 QWORD PTR [ecx+4], xmm0

; 66   :     {
; 67   :         _Data._What = _Message;

  0000a	c7 41 04 00 00
	00 00		 mov	 DWORD PTR [ecx+4], OFFSET ??_C@_0BF@KINCDENJ@bad?5array?5new?5length@

; 141  :     {

  00011	c7 01 00 00 00
	00		 mov	 DWORD PTR [ecx], OFFSET ??_7bad_array_new_length@std@@6B@

; 142  :     }

  00017	c3		 ret	 0
??0bad_array_new_length@std@@QAE@XZ ENDP		; std::bad_array_new_length::bad_array_new_length
_TEXT	ENDS
; Function compile flags: /Ogtp
; File C:\Program Files (x86)\Microsoft Visual Studio\2019\Community\VC\Tools\MSVC\14.27.29110\include\vcruntime_exception.h
;	COMDAT ??_Gbad_alloc@std@@UAEPAXI@Z
_TEXT	SEGMENT
___flags$ = 8						; size = 4
??_Gbad_alloc@std@@UAEPAXI@Z PROC			; std::bad_alloc::`scalar deleting destructor', COMDAT
; _this$ = ecx
  00000	55		 push	 ebp
  00001	8b ec		 mov	 ebp, esp

; 89   :     {

  00003	56		 push	 esi
  00004	8b f1		 mov	 esi, ecx

; 90   :         __std_exception_destroy(&_Data);

  00006	8d 46 04	 lea	 eax, DWORD PTR [esi+4]
  00009	c7 06 00 00 00
	00		 mov	 DWORD PTR [esi], OFFSET ??_7exception@std@@6B@
  0000f	50		 push	 eax
  00010	e8 00 00 00 00	 call	 ___std_exception_destroy
  00015	83 c4 04	 add	 esp, 4
  00018	f6 45 08 01	 test	 BYTE PTR ___flags$[ebp], 1
  0001c	74 0b		 je	 SHORT $LN9@scalar
  0001e	6a 0c		 push	 12			; 0000000cH
  00020	56		 push	 esi
  00021	e8 00 00 00 00	 call	 ??3@YAXPAXI@Z		; operator delete
  00026	83 c4 08	 add	 esp, 8
$LN9@scalar:
  00029	8b c6		 mov	 eax, esi
  0002b	5e		 pop	 esi
  0002c	5d		 pop	 ebp
  0002d	c2 04 00	 ret	 4
??_Gbad_alloc@std@@UAEPAXI@Z ENDP			; std::bad_alloc::`scalar deleting destructor'
_TEXT	ENDS
; Function compile flags: /Ogtp
; File C:\Program Files (x86)\Microsoft Visual Studio\2019\Community\VC\Tools\MSVC\14.27.29110\include\vcruntime_exception.h
;	COMDAT ??0bad_alloc@std@@QAE@ABV01@@Z
_TEXT	SEGMENT
___that$ = 8						; size = 4
??0bad_alloc@std@@QAE@ABV01@@Z PROC			; std::bad_alloc::bad_alloc, COMDAT
; _this$ = ecx
  00000	55		 push	 ebp
  00001	8b ec		 mov	 ebp, esp

; 72   :     {

  00003	56		 push	 esi
  00004	8b f1		 mov	 esi, ecx
  00006	0f 57 c0	 xorps	 xmm0, xmm0

; 71   :         : _Data()

  00009	8d 46 04	 lea	 eax, DWORD PTR [esi+4]

; 73   :         __std_exception_copy(&_Other._Data, &_Data);

  0000c	50		 push	 eax
  0000d	c7 06 00 00 00
	00		 mov	 DWORD PTR [esi], OFFSET ??_7exception@std@@6B@
  00013	66 0f d6 00	 movq	 QWORD PTR [eax], xmm0
  00017	8b 45 08	 mov	 eax, DWORD PTR ___that$[ebp]
  0001a	83 c0 04	 add	 eax, 4
  0001d	50		 push	 eax
  0001e	e8 00 00 00 00	 call	 ___std_exception_copy
  00023	83 c4 08	 add	 esp, 8
  00026	c7 06 00 00 00
	00		 mov	 DWORD PTR [esi], OFFSET ??_7bad_alloc@std@@6B@
  0002c	8b c6		 mov	 eax, esi
  0002e	5e		 pop	 esi
  0002f	5d		 pop	 ebp
  00030	c2 04 00	 ret	 4
??0bad_alloc@std@@QAE@ABV01@@Z ENDP			; std::bad_alloc::bad_alloc
_TEXT	ENDS
; Function compile flags: /Ogtp
; File C:\Program Files (x86)\Microsoft Visual Studio\2019\Community\VC\Tools\MSVC\14.27.29110\include\vcruntime_exception.h
;	COMDAT ??_Gexception@std@@UAEPAXI@Z
_TEXT	SEGMENT
___flags$ = 8						; size = 4
??_Gexception@std@@UAEPAXI@Z PROC			; std::exception::`scalar deleting destructor', COMDAT
; _this$ = ecx
  00000	55		 push	 ebp
  00001	8b ec		 mov	 ebp, esp

; 89   :     {

  00003	56		 push	 esi
  00004	8b f1		 mov	 esi, ecx

; 90   :         __std_exception_destroy(&_Data);

  00006	8d 46 04	 lea	 eax, DWORD PTR [esi+4]
  00009	c7 06 00 00 00
	00		 mov	 DWORD PTR [esi], OFFSET ??_7exception@std@@6B@
  0000f	50		 push	 eax
  00010	e8 00 00 00 00	 call	 ___std_exception_destroy
  00015	83 c4 04	 add	 esp, 4
  00018	f6 45 08 01	 test	 BYTE PTR ___flags$[ebp], 1
  0001c	74 0b		 je	 SHORT $LN6@scalar
  0001e	6a 0c		 push	 12			; 0000000cH
  00020	56		 push	 esi
  00021	e8 00 00 00 00	 call	 ??3@YAXPAXI@Z		; operator delete
  00026	83 c4 08	 add	 esp, 8
$LN6@scalar:
  00029	8b c6		 mov	 eax, esi
  0002b	5e		 pop	 esi
  0002c	5d		 pop	 ebp
  0002d	c2 04 00	 ret	 4
??_Gexception@std@@UAEPAXI@Z ENDP			; std::exception::`scalar deleting destructor'
_TEXT	ENDS
; Function compile flags: /Ogtp
; File C:\Program Files (x86)\Microsoft Visual Studio\2019\Community\VC\Tools\MSVC\14.27.29110\include\vcruntime_exception.h
;	COMDAT ?what@exception@std@@UBEPBDXZ
_TEXT	SEGMENT
?what@exception@std@@UBEPBDXZ PROC			; std::exception::what, COMDAT
; _this$ = ecx

; 95   :         return _Data._What ? _Data._What : "Unknown exception";

  00000	8b 49 04	 mov	 ecx, DWORD PTR [ecx+4]
  00003	b8 00 00 00 00	 mov	 eax, OFFSET ??_C@_0BC@EOODALEL@Unknown?5exception@
  00008	85 c9		 test	 ecx, ecx
  0000a	0f 45 c1	 cmovne	 eax, ecx

; 96   :     }

  0000d	c3		 ret	 0
?what@exception@std@@UBEPBDXZ ENDP			; std::exception::what
_TEXT	ENDS
; Function compile flags: /Ogtp
; File C:\Program Files (x86)\Microsoft Visual Studio\2019\Community\VC\Tools\MSVC\14.27.29110\include\vcruntime_exception.h
;	COMDAT ??1exception@std@@UAE@XZ
_TEXT	SEGMENT
??1exception@std@@UAE@XZ PROC				; std::exception::~exception, COMDAT
; _this$ = ecx

; 90   :         __std_exception_destroy(&_Data);

  00000	8d 41 04	 lea	 eax, DWORD PTR [ecx+4]
  00003	c7 01 00 00 00
	00		 mov	 DWORD PTR [ecx], OFFSET ??_7exception@std@@6B@
  00009	50		 push	 eax
  0000a	e8 00 00 00 00	 call	 ___std_exception_destroy
  0000f	59		 pop	 ecx

; 91   :     }

  00010	c3		 ret	 0
??1exception@std@@UAE@XZ ENDP				; std::exception::~exception
_TEXT	ENDS
; Function compile flags: /Ogtp
; File C:\Program Files (x86)\Microsoft Visual Studio\2019\Community\VC\Tools\MSVC\14.27.29110\include\vcruntime_exception.h
;	COMDAT ??0exception@std@@QAE@ABV01@@Z
_TEXT	SEGMENT
__Other$ = 8						; size = 4
??0exception@std@@QAE@ABV01@@Z PROC			; std::exception::exception, COMDAT
; _this$ = ecx

; 72   :     {

  00000	55		 push	 ebp
  00001	8b ec		 mov	 ebp, esp
  00003	56		 push	 esi
  00004	8b f1		 mov	 esi, ecx
  00006	0f 57 c0	 xorps	 xmm0, xmm0
  00009	8d 46 04	 lea	 eax, DWORD PTR [esi+4]

; 73   :         __std_exception_copy(&_Other._Data, &_Data);

  0000c	50		 push	 eax
  0000d	c7 06 00 00 00
	00		 mov	 DWORD PTR [esi], OFFSET ??_7exception@std@@6B@
  00013	66 0f d6 00	 movq	 QWORD PTR [eax], xmm0
  00017	8b 45 08	 mov	 eax, DWORD PTR __Other$[ebp]
  0001a	83 c0 04	 add	 eax, 4
  0001d	50		 push	 eax
  0001e	e8 00 00 00 00	 call	 ___std_exception_copy
  00023	83 c4 08	 add	 esp, 8

; 74   :     }

  00026	8b c6		 mov	 eax, esi
  00028	5e		 pop	 esi
  00029	5d		 pop	 ebp
  0002a	c2 04 00	 ret	 4
??0exception@std@@QAE@ABV01@@Z ENDP			; std::exception::exception
_TEXT	ENDS
END
