; Listing generated by Microsoft (R) Optimizing Compiler Version 19.27.29112.0 

	TITLE	C:\DS Project\DS Files\Source\ClientSource\Client\GameLib\PhysicsObject.cpp
	.686P
	.XMM
	include listing.inc
	.model	flat

INCLUDELIB LIBCMT
INCLUDELIB OLDNAMES

PUBLIC	?ms_pWorld@IPhysicsWorld@@0PAV1@A		; IPhysicsWorld::ms_pWorld
PUBLIC	?ms_ObjManager@IObjectManager@@0PAV1@A		; IObjectManager::ms_ObjManager
_BSS	SEGMENT
?ms_pWorld@IPhysicsWorld@@0PAV1@A DD 01H DUP (?)	; IPhysicsWorld::ms_pWorld
?ms_ObjManager@IObjectManager@@0PAV1@A DD 01H DUP (?)	; IObjectManager::ms_ObjManager
_BSS	ENDS
PUBLIC	??0CPhysicsObject@@QAE@XZ			; CPhysicsObject::CPhysicsObject
PUBLIC	??1CPhysicsObject@@UAE@XZ			; CPhysicsObject::~CPhysicsObject
PUBLIC	?Initialize@CPhysicsObject@@QAEXXZ		; CPhysicsObject::Initialize
PUBLIC	?Update@CPhysicsObject@@QAEXM@Z			; CPhysicsObject::Update
PUBLIC	?isBlending@CPhysicsObject@@QAE_NXZ		; CPhysicsObject::isBlending
PUBLIC	?SetDirection@CPhysicsObject@@QAEXABUD3DXVECTOR3@@@Z ; CPhysicsObject::SetDirection
PUBLIC	?IncreaseExternalForce@CPhysicsObject@@QAEXABUD3DXVECTOR3@@M@Z ; CPhysicsObject::IncreaseExternalForce
PUBLIC	?SetLastPosition@CPhysicsObject@@QAEXABUD3DXVECTOR3@@M@Z ; CPhysicsObject::SetLastPosition
PUBLIC	?GetLastPosition@CPhysicsObject@@QAEXPAUD3DXVECTOR3@@@Z ; CPhysicsObject::GetLastPosition
PUBLIC	?GetXMovement@CPhysicsObject@@QAEMXZ		; CPhysicsObject::GetXMovement
PUBLIC	?GetYMovement@CPhysicsObject@@QAEMXZ		; CPhysicsObject::GetYMovement
PUBLIC	?Accumulate@CPhysicsObject@@IAEXPAUD3DXVECTOR3@@@Z ; CPhysicsObject::Accumulate
PUBLIC	??_GCPhysicsObject@@UAEPAXI@Z			; CPhysicsObject::`scalar deleting destructor'
PUBLIC	??_7CPhysicsObject@@6B@				; CPhysicsObject::`vftable'
PUBLIC	??_R4CPhysicsObject@@6B@			; CPhysicsObject::`RTTI Complete Object Locator'
PUBLIC	??_R0?AVCPhysicsObject@@@8			; CPhysicsObject `RTTI Type Descriptor'
PUBLIC	??_R3CPhysicsObject@@8				; CPhysicsObject::`RTTI Class Hierarchy Descriptor'
PUBLIC	??_R2CPhysicsObject@@8				; CPhysicsObject::`RTTI Base Class Array'
PUBLIC	??_R1A@?0A@EA@CPhysicsObject@@8			; CPhysicsObject::`RTTI Base Class Descriptor at (0,-1,0,64)'
PUBLIC	__real@3a83126f
PUBLIC	__xmm@7fffffff7fffffff7fffffff7fffffff
EXTRN	??3@YAXPAXI@Z:PROC				; operator delete
EXTRN	??0CEaseOutInterpolation@@QAE@XZ:PROC		; CEaseOutInterpolation::CEaseOutInterpolation
EXTRN	??1CEaseOutInterpolation@@UAE@XZ:PROC		; CEaseOutInterpolation::~CEaseOutInterpolation
EXTRN	?Initialize@CEaseOutInterpolation@@QAEXXZ:PROC	; CEaseOutInterpolation::Initialize
EXTRN	?Setup@CEaseOutInterpolation@@QAEHMMM@Z:PROC	; CEaseOutInterpolation::Setup
EXTRN	?Interpolate@CEaseOutInterpolation@@QAEXM@Z:PROC ; CEaseOutInterpolation::Interpolate
EXTRN	?isPlaying@CEaseOutInterpolation@@QAEHXZ:PROC	; CEaseOutInterpolation::isPlaying
EXTRN	?GetChangingValue@CEaseOutInterpolation@@QAEMXZ:PROC ; CEaseOutInterpolation::GetChangingValue
EXTRN	??_ECPhysicsObject@@UAEPAXI@Z:PROC		; CPhysicsObject::`vector deleting destructor'
EXTRN	@__security_check_cookie@4:PROC
EXTRN	___CxxFrameHandler3:PROC
EXTRN	__libm_sse2_sqrt_precise:PROC
EXTRN	??_7type_info@@6B@:QWORD			; type_info::`vftable'
EXTRN	___security_cookie:DWORD
EXTRN	__fltused:DWORD
;	COMDAT __xmm@7fffffff7fffffff7fffffff7fffffff
CONST	SEGMENT
__xmm@7fffffff7fffffff7fffffff7fffffff DB 0ffH, 0ffH, 0ffH, 07fH, 0ffH, 0ffH
	DB	0ffH, 07fH, 0ffH, 0ffH, 0ffH, 07fH, 0ffH, 0ffH, 0ffH, 07fH
CONST	ENDS
;	COMDAT __real@3a83126f
CONST	SEGMENT
__real@3a83126f DD 03a83126fr			; 0.001
CONST	ENDS
;	COMDAT ??_R1A@?0A@EA@CPhysicsObject@@8
rdata$r	SEGMENT
??_R1A@?0A@EA@CPhysicsObject@@8 DD FLAT:??_R0?AVCPhysicsObject@@@8 ; CPhysicsObject::`RTTI Base Class Descriptor at (0,-1,0,64)'
	DD	00H
	DD	00H
	DD	0ffffffffH
	DD	00H
	DD	040H
	DD	FLAT:??_R3CPhysicsObject@@8
rdata$r	ENDS
;	COMDAT ??_R2CPhysicsObject@@8
rdata$r	SEGMENT
??_R2CPhysicsObject@@8 DD FLAT:??_R1A@?0A@EA@CPhysicsObject@@8 ; CPhysicsObject::`RTTI Base Class Array'
rdata$r	ENDS
;	COMDAT ??_R3CPhysicsObject@@8
rdata$r	SEGMENT
??_R3CPhysicsObject@@8 DD 00H				; CPhysicsObject::`RTTI Class Hierarchy Descriptor'
	DD	00H
	DD	01H
	DD	FLAT:??_R2CPhysicsObject@@8
rdata$r	ENDS
;	COMDAT ??_R0?AVCPhysicsObject@@@8
data$r	SEGMENT
??_R0?AVCPhysicsObject@@@8 DD FLAT:??_7type_info@@6B@	; CPhysicsObject `RTTI Type Descriptor'
	DD	00H
	DB	'.?AVCPhysicsObject@@', 00H
data$r	ENDS
;	COMDAT ??_R4CPhysicsObject@@6B@
rdata$r	SEGMENT
??_R4CPhysicsObject@@6B@ DD 00H				; CPhysicsObject::`RTTI Complete Object Locator'
	DD	00H
	DD	00H
	DD	FLAT:??_R0?AVCPhysicsObject@@@8
	DD	FLAT:??_R3CPhysicsObject@@8
rdata$r	ENDS
;	COMDAT ??_7CPhysicsObject@@6B@
CONST	SEGMENT
??_7CPhysicsObject@@6B@ DD FLAT:??_R4CPhysicsObject@@6B@ ; CPhysicsObject::`vftable'
	DD	FLAT:??_ECPhysicsObject@@UAEPAXI@Z
CONST	ENDS
;	COMDAT xdata$x
xdata$x	SEGMENT
__unwindtable$??0CPhysicsObject@@QAE@XZ DD 0ffffffffH
	DD	FLAT:__unwindfunclet$??0CPhysicsObject@@QAE@XZ$0
__ehfuncinfo$??0CPhysicsObject@@QAE@XZ DD 019930522H
	DD	01H
	DD	FLAT:__unwindtable$??0CPhysicsObject@@QAE@XZ
	DD	2 DUP(00H)
	DD	2 DUP(00H)
	DD	00H
	DD	01H
xdata$x	ENDS
; Function compile flags: /Ogtp
;	COMDAT ??_GCPhysicsObject@@UAEPAXI@Z
_TEXT	SEGMENT
___flags$ = 8						; size = 4
??_GCPhysicsObject@@UAEPAXI@Z PROC			; CPhysicsObject::`scalar deleting destructor', COMDAT
; _this$ = ecx
  00000	55		 push	 ebp
  00001	8b ec		 mov	 ebp, esp
  00003	56		 push	 esi
  00004	8b f1		 mov	 esi, ecx
  00006	e8 00 00 00 00	 call	 ??1CPhysicsObject@@UAE@XZ ; CPhysicsObject::~CPhysicsObject
  0000b	f6 45 08 01	 test	 BYTE PTR ___flags$[ebp], 1
  0000f	74 0b		 je	 SHORT $LN4@scalar
  00011	6a 78		 push	 120			; 00000078H
  00013	56		 push	 esi
  00014	e8 00 00 00 00	 call	 ??3@YAXPAXI@Z		; operator delete
  00019	83 c4 08	 add	 esp, 8
$LN4@scalar:
  0001c	8b c6		 mov	 eax, esi
  0001e	5e		 pop	 esi
  0001f	5d		 pop	 ebp
  00020	c2 04 00	 ret	 4
??_GCPhysicsObject@@UAEPAXI@Z ENDP			; CPhysicsObject::`scalar deleting destructor'
_TEXT	ENDS
; Function compile flags: /Ogtp
; File C:\DS Project\DS Files\Source\ClientSource\Client\GameLib\PhysicsObject.cpp
; File C:\Program Files (x86)\Windows Kits\10\Include\10.0.18362.0\ucrt\corecrt_math.h
; File C:\DS Project\DS Files\Source\ClientSource\Client\GameLib\PhysicsObject.cpp
; File C:\Program Files (x86)\Windows Kits\10\Include\10.0.18362.0\ucrt\corecrt_math.h
; File C:\DS Project\DS Files\Source\ClientSource\Client\GameLib\PhysicsObject.cpp
; File C:\Program Files (x86)\Windows Kits\10\Include\10.0.18362.0\ucrt\corecrt_math.h
; File C:\DS Project\DS Files\Source\ClientSource\Client\GameLib\PhysicsObject.cpp
; File C:\Program Files (x86)\Windows Kits\10\Include\10.0.18362.0\ucrt\corecrt_math.h
; File C:\DS Project\DS Files\Source\ClientSource\Client\GameLib\PhysicsObject.cpp
; File C:\Program Files (x86)\Windows Kits\10\Include\10.0.18362.0\ucrt\corecrt_math.h
; File C:\DS Project\DS Files\Source\ClientSource\Client\GameLib\PhysicsObject.cpp
; File C:\DS Project\DS Files\Source\ClientSource\extern\include\d3dx8math.inl
; File C:\DS Project\DS Files\Source\ClientSource\Client\GameLib\PhysicsObject.cpp
; File C:\DS Project\DS Files\Source\ClientSource\extern\include\d3dx8math.inl
; File C:\DS Project\DS Files\Source\ClientSource\Client\GameLib\PhysicsObject.cpp
;	COMDAT ?Accumulate@CPhysicsObject@@IAEXPAUD3DXVECTOR3@@@Z
_TEXT	SEGMENT
$T1 = -12						; size = 12
_pv3Position$ = 8					; size = 4
?Accumulate@CPhysicsObject@@IAEXPAUD3DXVECTOR3@@@Z PROC	; CPhysicsObject::Accumulate, COMDAT
; _this$ = ecx

; 19   : {

  00000	55		 push	 ebp
  00001	8b ec		 mov	 ebp, esp
; File C:\Program Files (x86)\Windows Kits\10\Include\10.0.18362.0\ucrt\corecrt_math.h

; 672  :             return (float)fabs(_X);

  00003	f3 0f 10 71 24	 movss	 xmm6, DWORD PTR [ecx+36]
; File C:\DS Project\DS Files\Source\ClientSource\Client\GameLib\PhysicsObject.cpp

; 19   : {

  00008	83 ec 0c	 sub	 esp, 12			; 0000000cH
; File C:\Program Files (x86)\Windows Kits\10\Include\10.0.18362.0\ucrt\corecrt_math.h

; 672  :             return (float)fabs(_X);

  0000b	f3 0f 10 0d 00
	00 00 00	 movss	 xmm1, DWORD PTR __xmm@7fffffff7fffffff7fffffff7fffffff
  00013	0f 28 c6	 movaps	 xmm0, xmm6
; File C:\DS Project\DS Files\Source\ClientSource\Client\GameLib\PhysicsObject.cpp

; 24   : 		fabs(m_v3Velocity.y) < EPSILON ||

  00016	f3 0f 10 1d 00
	00 00 00	 movss	 xmm3, DWORD PTR __real@3a83126f
; File C:\Program Files (x86)\Windows Kits\10\Include\10.0.18362.0\ucrt\corecrt_math.h

; 672  :             return (float)fabs(_X);

  0001e	0f 54 c1	 andps	 xmm0, xmm1
; File C:\DS Project\DS Files\Source\ClientSource\Client\GameLib\PhysicsObject.cpp

; 24   : 		fabs(m_v3Velocity.y) < EPSILON ||

  00021	0f 2f d8	 comiss	 xmm3, xmm0
  00024	0f 57 e4	 xorps	 xmm4, xmm4
  00027	0f 57 ed	 xorps	 xmm5, xmm5
  0002a	77 21		 ja	 SHORT $LN3@Accumulate
; File C:\Program Files (x86)\Windows Kits\10\Include\10.0.18362.0\ucrt\corecrt_math.h

; 672  :             return (float)fabs(_X);

  0002c	f3 0f 10 41 28	 movss	 xmm0, DWORD PTR [ecx+40]
  00031	0f 54 c1	 andps	 xmm0, xmm1
; File C:\DS Project\DS Files\Source\ClientSource\Client\GameLib\PhysicsObject.cpp

; 24   : 		fabs(m_v3Velocity.y) < EPSILON ||

  00034	0f 2f d8	 comiss	 xmm3, xmm0
  00037	77 14		 ja	 SHORT $LN3@Accumulate
; File C:\Program Files (x86)\Windows Kits\10\Include\10.0.18362.0\ucrt\corecrt_math.h

; 672  :             return (float)fabs(_X);

  00039	f3 0f 10 41 2c	 movss	 xmm0, DWORD PTR [ecx+44]
  0003e	0f 54 c1	 andps	 xmm0, xmm1
; File C:\DS Project\DS Files\Source\ClientSource\Client\GameLib\PhysicsObject.cpp

; 24   : 		fabs(m_v3Velocity.y) < EPSILON ||

  00041	0f 2f d8	 comiss	 xmm3, xmm0
  00044	77 07		 ja	 SHORT $LN3@Accumulate

; 25   : 		fabs(m_v3Velocity.z) < EPSILON )
; 26   : 	{
; 27   : 		fForce -= (m_fMass * m_fFriction);

  00046	f3 0f 10 49 04	 movss	 xmm1, DWORD PTR [ecx+4]
  0004b	eb 12		 jmp	 SHORT $LN2@Accumulate
$LN3@Accumulate:
  0004d	f3 0f 10 49 04	 movss	 xmm1, DWORD PTR [ecx+4]
  00052	f3 0f 10 41 08	 movss	 xmm0, DWORD PTR [ecx+8]
  00057	f3 0f 59 c1	 mulss	 xmm0, xmm1
  0005b	f3 0f 5c e8	 subss	 xmm5, xmm0
$LN2@Accumulate:

; 30   : 	m_v3Acceleration = m_v3Direction * (fForce / m_fMass);

  0005f	f3 0f 5e e9	 divss	 xmm5, xmm1
; File C:\DS Project\DS Files\Source\ClientSource\extern\include\d3dx8math.inl

; 269  :     return D3DXVECTOR3(x * f, y * f, z * f);

  00063	f3 0f 10 51 0c	 movss	 xmm2, DWORD PTR [ecx+12]
  00068	f3 0f 10 49 10	 movss	 xmm1, DWORD PTR [ecx+16]
  0006d	f3 0f 10 41 14	 movss	 xmm0, DWORD PTR [ecx+20]
  00072	f3 0f 59 c5	 mulss	 xmm0, xmm5
  00076	f3 0f 59 cd	 mulss	 xmm1, xmm5
  0007a	f3 0f 59 d5	 mulss	 xmm2, xmm5

; 182  :     z = fz;

  0007e	f3 0f 11 45 fc	 movss	 DWORD PTR $T1[ebp+8], xmm0
; File C:\DS Project\DS Files\Source\ClientSource\Client\GameLib\PhysicsObject.cpp

; 30   : 	m_v3Acceleration = m_v3Direction * (fForce / m_fMass);

  00083	8b 45 fc	 mov	 eax, DWORD PTR $T1[ebp+8]
  00086	0f 14 d1	 unpcklps xmm2, xmm1
  00089	66 0f d6 51 18	 movq	 QWORD PTR [ecx+24], xmm2
  0008e	89 41 20	 mov	 DWORD PTR [ecx+32], eax
; File C:\DS Project\DS Files\Source\ClientSource\extern\include\d3dx8math.inl

; 204  :     x += v.x;

  00091	f3 0f 10 49 18	 movss	 xmm1, DWORD PTR [ecx+24]
  00096	f3 0f 58 ce	 addss	 xmm1, xmm6
  0009a	f3 0f 11 49 24	 movss	 DWORD PTR [ecx+36], xmm1

; 205  :     y += v.y;

  0009f	f3 0f 10 41 1c	 movss	 xmm0, DWORD PTR [ecx+28]
  000a4	f3 0f 58 41 28	 addss	 xmm0, DWORD PTR [ecx+40]
  000a9	f3 0f 11 41 28	 movss	 DWORD PTR [ecx+40], xmm0

; 206  :     z += v.z;

  000ae	f3 0f 10 41 20	 movss	 xmm0, DWORD PTR [ecx+32]
  000b3	f3 0f 58 41 2c	 addss	 xmm0, DWORD PTR [ecx+44]
  000b8	f3 0f 11 41 2c	 movss	 DWORD PTR [ecx+44], xmm0
; File C:\DS Project\DS Files\Source\ClientSource\Client\GameLib\PhysicsObject.cpp

; 32   : 	if (m_v3Velocity.x * m_v3Direction.x < EPSILON)

  000bd	f3 0f 10 41 0c	 movss	 xmm0, DWORD PTR [ecx+12]
  000c2	f3 0f 59 c1	 mulss	 xmm0, xmm1
  000c6	0f 2f d8	 comiss	 xmm3, xmm0
  000c9	76 10		 jbe	 SHORT $LN27@Accumulate

; 33   : 	{
; 34   : 		m_v3Velocity.x = 0.0f;

  000cb	c7 41 24 00 00
	00 00		 mov	 DWORD PTR [ecx+36], 0

; 35   : 		m_v3Direction.x = 0.0f;

  000d2	c7 41 0c 00 00
	00 00		 mov	 DWORD PTR [ecx+12], 0
  000d9	eb 03		 jmp	 SHORT $LN4@Accumulate
$LN27@Accumulate:
  000db	0f 28 e1	 movaps	 xmm4, xmm1
$LN4@Accumulate:

; 36   : 	}
; 37   : 	if (m_v3Velocity.y * m_v3Direction.y < EPSILON)

  000de	f3 0f 10 41 28	 movss	 xmm0, DWORD PTR [ecx+40]
  000e3	f3 0f 59 41 10	 mulss	 xmm0, DWORD PTR [ecx+16]
  000e8	0f 2f d8	 comiss	 xmm3, xmm0
  000eb	76 0e		 jbe	 SHORT $LN5@Accumulate

; 38   : 	{
; 39   : 		m_v3Velocity.y = 0.0f;

  000ed	c7 41 28 00 00
	00 00		 mov	 DWORD PTR [ecx+40], 0

; 40   : 		m_v3Direction.y = 0.0f;

  000f4	c7 41 10 00 00
	00 00		 mov	 DWORD PTR [ecx+16], 0
$LN5@Accumulate:

; 41   : 	}
; 42   : 	if (m_v3Velocity.z * m_v3Direction.z < EPSILON)

  000fb	f3 0f 10 41 14	 movss	 xmm0, DWORD PTR [ecx+20]
  00100	f3 0f 59 41 2c	 mulss	 xmm0, DWORD PTR [ecx+44]
  00105	0f 2f d8	 comiss	 xmm3, xmm0
  00108	76 0e		 jbe	 SHORT $LN6@Accumulate

; 43   : 	{
; 44   : 		m_v3Velocity.z = 0.0f;

  0010a	c7 41 2c 00 00
	00 00		 mov	 DWORD PTR [ecx+44], 0

; 45   : 		m_v3Direction.z = 0.0f;

  00111	c7 41 14 00 00
	00 00		 mov	 DWORD PTR [ecx+20], 0
$LN6@Accumulate:

; 46   : 	}
; 47   : 
; 48   : 	pv3Position->x += m_v3Velocity.x;

  00118	8b 45 08	 mov	 eax, DWORD PTR _pv3Position$[ebp]
  0011b	f3 0f 10 00	 movss	 xmm0, DWORD PTR [eax]
  0011f	f3 0f 58 c4	 addss	 xmm0, xmm4
  00123	f3 0f 11 00	 movss	 DWORD PTR [eax], xmm0

; 49   : 	pv3Position->y += m_v3Velocity.y;

  00127	f3 0f 10 41 28	 movss	 xmm0, DWORD PTR [ecx+40]
  0012c	f3 0f 58 40 04	 addss	 xmm0, DWORD PTR [eax+4]
  00131	f3 0f 11 40 04	 movss	 DWORD PTR [eax+4], xmm0

; 50   : 	pv3Position->z += m_v3Velocity.z;

  00136	f3 0f 10 40 08	 movss	 xmm0, DWORD PTR [eax+8]
  0013b	f3 0f 58 41 2c	 addss	 xmm0, DWORD PTR [ecx+44]
  00140	f3 0f 11 40 08	 movss	 DWORD PTR [eax+8], xmm0

; 51   : }

  00145	8b e5		 mov	 esp, ebp
  00147	5d		 pop	 ebp
  00148	c2 04 00	 ret	 4
?Accumulate@CPhysicsObject@@IAEXPAUD3DXVECTOR3@@@Z ENDP	; CPhysicsObject::Accumulate
_TEXT	ENDS
; Function compile flags: /Ogtp
; File C:\DS Project\DS Files\Source\ClientSource\Client\GameLib\PhysicsObject.cpp
;	COMDAT ?GetYMovement@CPhysicsObject@@QAEMXZ
_TEXT	SEGMENT
?GetYMovement@CPhysicsObject@@QAEMXZ PROC		; CPhysicsObject::GetYMovement, COMDAT
; _this$ = ecx

; 138  : 	return m_yPushingPosition.GetChangingValue();

  00000	83 c1 58	 add	 ecx, 88			; 00000058H
  00003	e9 00 00 00 00	 jmp	 ?GetChangingValue@CEaseOutInterpolation@@QAEMXZ ; CEaseOutInterpolation::GetChangingValue
?GetYMovement@CPhysicsObject@@QAEMXZ ENDP		; CPhysicsObject::GetYMovement
_TEXT	ENDS
; Function compile flags: /Ogtp
; File C:\DS Project\DS Files\Source\ClientSource\Client\GameLib\PhysicsObject.cpp
;	COMDAT ?GetXMovement@CPhysicsObject@@QAEMXZ
_TEXT	SEGMENT
?GetXMovement@CPhysicsObject@@QAEMXZ PROC		; CPhysicsObject::GetXMovement, COMDAT
; _this$ = ecx

; 133  : 	return m_xPushingPosition.GetChangingValue();

  00000	83 c1 3c	 add	 ecx, 60			; 0000003cH
  00003	e9 00 00 00 00	 jmp	 ?GetChangingValue@CEaseOutInterpolation@@QAEMXZ ; CEaseOutInterpolation::GetChangingValue
?GetXMovement@CPhysicsObject@@QAEMXZ ENDP		; CPhysicsObject::GetXMovement
_TEXT	ENDS
; Function compile flags: /Ogtp
; File C:\DS Project\DS Files\Source\ClientSource\Client\GameLib\PhysicsObject.cpp
;	COMDAT ?GetLastPosition@CPhysicsObject@@QAEXPAUD3DXVECTOR3@@@Z
_TEXT	SEGMENT
_pPosition$ = 8						; size = 4
?GetLastPosition@CPhysicsObject@@QAEXPAUD3DXVECTOR3@@@Z PROC ; CPhysicsObject::GetLastPosition, COMDAT
; _this$ = ecx

; 118  : {

  00000	55		 push	 ebp
  00001	8b ec		 mov	 ebp, esp

; 119  : 	pPosition->x = (m_v3LastPosition.x);

  00003	8b 55 08	 mov	 edx, DWORD PTR _pPosition$[ebp]
  00006	8b 41 30	 mov	 eax, DWORD PTR [ecx+48]
  00009	89 02		 mov	 DWORD PTR [edx], eax

; 120  : 	pPosition->y = (m_v3LastPosition.y);

  0000b	8b 41 34	 mov	 eax, DWORD PTR [ecx+52]
  0000e	89 42 04	 mov	 DWORD PTR [edx+4], eax

; 121  : 	pPosition->z = (m_v3LastPosition.z);

  00011	8b 41 38	 mov	 eax, DWORD PTR [ecx+56]
  00014	89 42 08	 mov	 DWORD PTR [edx+8], eax

; 122  : }

  00017	5d		 pop	 ebp
  00018	c2 04 00	 ret	 4
?GetLastPosition@CPhysicsObject@@QAEXPAUD3DXVECTOR3@@@Z ENDP ; CPhysicsObject::GetLastPosition
_TEXT	ENDS
; Function compile flags: /Ogtp
; File C:\DS Project\DS Files\Source\ClientSource\Client\GameLib\PhysicsObject.cpp
;	COMDAT ?SetLastPosition@CPhysicsObject@@QAEXABUD3DXVECTOR3@@M@Z
_TEXT	SEGMENT
_c_rPosition$ = 8					; size = 4
_fBlendingTime$ = 12					; size = 4
?SetLastPosition@CPhysicsObject@@QAEXABUD3DXVECTOR3@@M@Z PROC ; CPhysicsObject::SetLastPosition, COMDAT
; _this$ = ecx

; 109  : {

  00000	55		 push	 ebp
  00001	8b ec		 mov	 ebp, esp

; 110  : 	m_v3LastPosition.x = float(c_rPosition.x);
; 111  : 	m_v3LastPosition.y = float(c_rPosition.y);
; 112  : 	m_v3LastPosition.z = float(c_rPosition.z);
; 113  : 	m_xPushingPosition.Setup(0.0f, c_rPosition.x, fBlendingTime);

  00003	f3 0f 10 45 0c	 movss	 xmm0, DWORD PTR _fBlendingTime$[ebp]
  00008	56		 push	 esi
  00009	8b 75 08	 mov	 esi, DWORD PTR _c_rPosition$[ebp]
  0000c	57		 push	 edi
  0000d	8b f9		 mov	 edi, ecx
  0000f	83 ec 0c	 sub	 esp, 12			; 0000000cH
  00012	8b 06		 mov	 eax, DWORD PTR [esi]
  00014	89 47 30	 mov	 DWORD PTR [edi+48], eax
  00017	8d 4f 3c	 lea	 ecx, DWORD PTR [edi+60]
  0001a	8b 46 04	 mov	 eax, DWORD PTR [esi+4]
  0001d	89 47 34	 mov	 DWORD PTR [edi+52], eax
  00020	8b 46 08	 mov	 eax, DWORD PTR [esi+8]
  00023	f3 0f 11 44 24
	08		 movss	 DWORD PTR [esp+8], xmm0
  00029	89 47 38	 mov	 DWORD PTR [edi+56], eax
  0002c	f3 0f 10 06	 movss	 xmm0, DWORD PTR [esi]
  00030	f3 0f 11 44 24
	04		 movss	 DWORD PTR [esp+4], xmm0
  00036	c7 04 24 00 00
	00 00		 mov	 DWORD PTR [esp], 0
  0003d	e8 00 00 00 00	 call	 ?Setup@CEaseOutInterpolation@@QAEHMMM@Z ; CEaseOutInterpolation::Setup

; 114  : 	m_yPushingPosition.Setup(0.0f, c_rPosition.y, fBlendingTime);

  00042	f3 0f 10 45 0c	 movss	 xmm0, DWORD PTR _fBlendingTime$[ebp]
  00047	8d 4f 58	 lea	 ecx, DWORD PTR [edi+88]
  0004a	83 ec 0c	 sub	 esp, 12			; 0000000cH
  0004d	f3 0f 11 44 24
	08		 movss	 DWORD PTR [esp+8], xmm0
  00053	f3 0f 10 46 04	 movss	 xmm0, DWORD PTR [esi+4]
  00058	f3 0f 11 44 24
	04		 movss	 DWORD PTR [esp+4], xmm0
  0005e	c7 04 24 00 00
	00 00		 mov	 DWORD PTR [esp], 0
  00065	e8 00 00 00 00	 call	 ?Setup@CEaseOutInterpolation@@QAEHMMM@Z ; CEaseOutInterpolation::Setup
  0006a	5f		 pop	 edi
  0006b	5e		 pop	 esi

; 115  : }

  0006c	5d		 pop	 ebp
  0006d	c2 08 00	 ret	 8
?SetLastPosition@CPhysicsObject@@QAEXABUD3DXVECTOR3@@M@Z ENDP ; CPhysicsObject::SetLastPosition
_TEXT	ENDS
; Function compile flags: /Ogtp
; File C:\DS Project\DS Files\Source\ClientSource\Client\GameLib\PhysicsObject.cpp
; File C:\DS Project\DS Files\Source\ClientSource\extern\include\d3dx8math.inl
; File C:\DS Project\DS Files\Source\ClientSource\Client\GameLib\PhysicsObject.cpp
; File C:\DS Project\DS Files\Source\ClientSource\extern\include\d3dx8math.inl
; File C:\DS Project\DS Files\Source\ClientSource\Client\GameLib\PhysicsObject.cpp
; File C:\DS Project\DS Files\Source\ClientSource\extern\include\d3dx8math.inl
; File C:\DS Project\DS Files\Source\ClientSource\Client\GameLib\PhysicsObject.cpp
; File C:\DS Project\DS Files\Source\ClientSource\extern\include\d3dx8math.inl
; File C:\DS Project\DS Files\Source\ClientSource\Client\GameLib\PhysicsObject.cpp
; File C:\DS Project\DS Files\Source\ClientSource\extern\include\d3dx8math.inl
; File C:\DS Project\DS Files\Source\ClientSource\Client\GameLib\PhysicsObject.cpp
; File C:\DS Project\DS Files\Source\ClientSource\extern\include\d3dx8math.inl
; File C:\DS Project\DS Files\Source\ClientSource\Client\GameLib\PhysicsObject.cpp
; File C:\Program Files (x86)\Windows Kits\10\Include\10.0.18362.0\ucrt\corecrt_math.h
; File C:\DS Project\DS Files\Source\ClientSource\Client\GameLib\PhysicsObject.cpp
; File C:\Program Files (x86)\Windows Kits\10\Include\10.0.18362.0\ucrt\corecrt_math.h
; File C:\DS Project\DS Files\Source\ClientSource\Client\GameLib\PhysicsObject.cpp
; File C:\Program Files (x86)\Windows Kits\10\Include\10.0.18362.0\ucrt\corecrt_math.h
; File C:\DS Project\DS Files\Source\ClientSource\Client\GameLib\PhysicsObject.cpp
; File C:\Program Files (x86)\Windows Kits\10\Include\10.0.18362.0\ucrt\corecrt_math.h
; File C:\DS Project\DS Files\Source\ClientSource\Client\GameLib\PhysicsObject.cpp
;	COMDAT ?IncreaseExternalForce@CPhysicsObject@@QAEXABUD3DXVECTOR3@@M@Z
_TEXT	SEGMENT
_c_rvBasePosition$GSCopy$1$ = -32			; size = 4
_v3Movement$ = -28					; size = 12
$T1 = -16						; size = 12
$T2 = -16						; size = 12
__$ArrayPad$ = -4					; size = 4
_c_rvBasePosition$ = 8					; size = 4
_fForce$ = 12						; size = 4
?IncreaseExternalForce@CPhysicsObject@@QAEXABUD3DXVECTOR3@@M@Z PROC ; CPhysicsObject::IncreaseExternalForce, COMDAT
; _this$ = ecx

; 54   : {

  00000	55		 push	 ebp
  00001	8b ec		 mov	 ebp, esp
  00003	83 ec 20	 sub	 esp, 32			; 00000020H
  00006	a1 00 00 00 00	 mov	 eax, DWORD PTR ___security_cookie
  0000b	33 c5		 xor	 eax, ebp
  0000d	89 45 fc	 mov	 DWORD PTR __$ArrayPad$[ebp], eax
  00010	f3 0f 10 55 0c	 movss	 xmm2, DWORD PTR _fForce$[ebp]
  00015	56		 push	 esi
  00016	8b f1		 mov	 esi, ecx
  00018	8b 45 08	 mov	 eax, DWORD PTR _c_rvBasePosition$[ebp]
  0001b	89 45 e0	 mov	 DWORD PTR _c_rvBasePosition$GSCopy$1$[ebp], eax
  0001e	57		 push	 edi
; File C:\DS Project\DS Files\Source\ClientSource\extern\include\d3dx8math.inl

; 180  :     x = fx;

  0001f	c7 45 e4 00 00
	00 00		 mov	 DWORD PTR _v3Movement$[ebp], 0
; File C:\DS Project\DS Files\Source\ClientSource\Client\GameLib\PhysicsObject.cpp

; 67   : 	for(int i = 0; i < LoopValue; ++i)

  00026	33 ff		 xor	 edi, edi
  00028	f3 0f 5e 56 04	 divss	 xmm2, DWORD PTR [esi+4]
; File C:\DS Project\DS Files\Source\ClientSource\extern\include\d3dx8math.inl

; 181  :     y = fy;

  0002d	c7 45 e8 00 00
	00 00		 mov	 DWORD PTR _v3Movement$[ebp+4], 0

; 182  :     z = fz;

  00034	c7 45 ec 00 00
	00 00		 mov	 DWORD PTR _v3Movement$[ebp+8], 0

; 269  :     return D3DXVECTOR3(x * f, y * f, z * f);

  0003b	f3 0f 10 5e 0c	 movss	 xmm3, DWORD PTR [esi+12]
  00040	f3 0f 10 4e 10	 movss	 xmm1, DWORD PTR [esi+16]
  00045	f3 0f 10 46 14	 movss	 xmm0, DWORD PTR [esi+20]
  0004a	f3 0f 59 da	 mulss	 xmm3, xmm2
  0004e	f3 0f 59 ca	 mulss	 xmm1, xmm2
  00052	f3 0f 59 c2	 mulss	 xmm0, xmm2
; File C:\DS Project\DS Files\Source\ClientSource\Client\GameLib\PhysicsObject.cpp

; 56   : 	m_v3Acceleration = m_v3Direction * (fForce / m_fMass);

  00056	0f 14 d9	 unpcklps xmm3, xmm1
  00059	66 0f d6 5e 18	 movq	 QWORD PTR [esi+24], xmm3
; File C:\DS Project\DS Files\Source\ClientSource\extern\include\d3dx8math.inl

; 182  :     z = fz;

  0005e	f3 0f 11 45 f8	 movss	 DWORD PTR $T2[ebp+8], xmm0
; File C:\DS Project\DS Files\Source\ClientSource\Client\GameLib\PhysicsObject.cpp

; 56   : 	m_v3Acceleration = m_v3Direction * (fForce / m_fMass);

  00063	8b 45 f8	 mov	 eax, DWORD PTR $T2[ebp+8]

; 57   : 	m_v3Velocity = m_v3Acceleration;

  00066	66 0f d6 5e 24	 movq	 QWORD PTR [esi+36], xmm3
  0006b	89 46 20	 mov	 DWORD PTR [esi+32], eax
  0006e	89 46 2c	 mov	 DWORD PTR [esi+44], eax
$LL4@IncreaseEx:

; 68   : 	{
; 69   : 		Accumulate(&v3Movement);

  00071	8d 45 e4	 lea	 eax, DWORD PTR _v3Movement$[ebp]
  00074	8b ce		 mov	 ecx, esi
  00076	50		 push	 eax
  00077	e8 00 00 00 00	 call	 ?Accumulate@CPhysicsObject@@IAEXPAUD3DXVECTOR3@@@Z ; CPhysicsObject::Accumulate

; 70   : 
; 71   : 		// VICTIM_COLLISION_TEST
; 72   : 		IPhysicsWorld* pWorld = IPhysicsWorld::GetPhysicsWorld();

  0007c	8b 0d 00 00 00
	00		 mov	 ecx, DWORD PTR ?ms_pWorld@IPhysicsWorld@@0PAV1@A ; IPhysicsWorld::ms_pWorld

; 73   : 		if (pWorld)

  00082	85 c9		 test	 ecx, ecx
  00084	74 3e		 je	 SHORT $LN6@IncreaseEx
; File C:\DS Project\DS Files\Source\ClientSource\extern\include\d3dx8math.inl

; 257  :     return D3DXVECTOR3(x + v.x, y + v.y, z + v.z);

  00086	8b 45 e0	 mov	 eax, DWORD PTR _c_rvBasePosition$GSCopy$1$[ebp]
; File C:\DS Project\DS Files\Source\ClientSource\Client\GameLib\PhysicsObject.cpp

; 75   : 			if (pWorld->isPhysicalCollision(c_rvBasePosition + v3Movement))

  00089	8d 55 f0	 lea	 edx, DWORD PTR $T1[ebp]
  0008c	52		 push	 edx
; File C:\DS Project\DS Files\Source\ClientSource\extern\include\d3dx8math.inl

; 257  :     return D3DXVECTOR3(x + v.x, y + v.y, z + v.z);

  0008d	f3 0f 10 00	 movss	 xmm0, DWORD PTR [eax]
  00091	f3 0f 58 45 e4	 addss	 xmm0, DWORD PTR _v3Movement$[ebp]

; 180  :     x = fx;

  00096	f3 0f 11 45 f0	 movss	 DWORD PTR $T1[ebp], xmm0

; 257  :     return D3DXVECTOR3(x + v.x, y + v.y, z + v.z);

  0009b	f3 0f 10 40 04	 movss	 xmm0, DWORD PTR [eax+4]
  000a0	f3 0f 58 45 e8	 addss	 xmm0, DWORD PTR _v3Movement$[ebp+4]

; 181  :     y = fy;

  000a5	f3 0f 11 45 f4	 movss	 DWORD PTR $T1[ebp+4], xmm0

; 257  :     return D3DXVECTOR3(x + v.x, y + v.y, z + v.z);

  000aa	f3 0f 10 40 08	 movss	 xmm0, DWORD PTR [eax+8]
  000af	f3 0f 58 45 ec	 addss	 xmm0, DWORD PTR _v3Movement$[ebp+8]
; File C:\DS Project\DS Files\Source\ClientSource\Client\GameLib\PhysicsObject.cpp

; 75   : 			if (pWorld->isPhysicalCollision(c_rvBasePosition + v3Movement))

  000b4	8b 01		 mov	 eax, DWORD PTR [ecx]
  000b6	8b 40 04	 mov	 eax, DWORD PTR [eax+4]
; File C:\DS Project\DS Files\Source\ClientSource\extern\include\d3dx8math.inl

; 182  :     z = fz;

  000b9	f3 0f 11 45 f8	 movss	 DWORD PTR $T1[ebp+8], xmm0
; File C:\DS Project\DS Files\Source\ClientSource\Client\GameLib\PhysicsObject.cpp

; 75   : 			if (pWorld->isPhysicalCollision(c_rvBasePosition + v3Movement))

  000be	ff d0		 call	 eax
  000c0	84 c0		 test	 al, al
  000c2	75 79		 jne	 SHORT $LN33@IncreaseEx
$LN6@IncreaseEx:
; File C:\Program Files (x86)\Windows Kits\10\Include\10.0.18362.0\ucrt\corecrt_math.h

; 672  :             return (float)fabs(_X);

  000c4	f3 0f 10 46 24	 movss	 xmm0, DWORD PTR [esi+36]
  000c9	f3 0f 10 0d 00
	00 00 00	 movss	 xmm1, DWORD PTR __xmm@7fffffff7fffffff7fffffff7fffffff
; File C:\DS Project\DS Files\Source\ClientSource\Client\GameLib\PhysicsObject.cpp

; 94   : 			fabs(m_v3Velocity.y) < EPSILON &&

  000d1	f3 0f 10 15 00
	00 00 00	 movss	 xmm2, DWORD PTR __real@3a83126f
; File C:\Program Files (x86)\Windows Kits\10\Include\10.0.18362.0\ucrt\corecrt_math.h

; 672  :             return (float)fabs(_X);

  000d9	0f 54 c1	 andps	 xmm0, xmm1
; File C:\DS Project\DS Files\Source\ClientSource\Client\GameLib\PhysicsObject.cpp

; 94   : 			fabs(m_v3Velocity.y) < EPSILON &&

  000dc	0f 2f d0	 comiss	 xmm2, xmm0
  000df	76 1a		 jbe	 SHORT $LN2@IncreaseEx
; File C:\Program Files (x86)\Windows Kits\10\Include\10.0.18362.0\ucrt\corecrt_math.h

; 672  :             return (float)fabs(_X);

  000e1	f3 0f 10 46 28	 movss	 xmm0, DWORD PTR [esi+40]
  000e6	0f 54 c1	 andps	 xmm0, xmm1
; File C:\DS Project\DS Files\Source\ClientSource\Client\GameLib\PhysicsObject.cpp

; 94   : 			fabs(m_v3Velocity.y) < EPSILON &&

  000e9	0f 2f d0	 comiss	 xmm2, xmm0
  000ec	76 0d		 jbe	 SHORT $LN2@IncreaseEx
; File C:\Program Files (x86)\Windows Kits\10\Include\10.0.18362.0\ucrt\corecrt_math.h

; 672  :             return (float)fabs(_X);

  000ee	f3 0f 10 46 2c	 movss	 xmm0, DWORD PTR [esi+44]
  000f3	0f 54 c1	 andps	 xmm0, xmm1
; File C:\DS Project\DS Files\Source\ClientSource\Client\GameLib\PhysicsObject.cpp

; 94   : 			fabs(m_v3Velocity.y) < EPSILON &&

  000f6	0f 2f d0	 comiss	 xmm2, xmm0
  000f9	77 0a		 ja	 SHORT $LN38@IncreaseEx
$LN2@IncreaseEx:

; 67   : 	for(int i = 0; i < LoopValue; ++i)

  000fb	47		 inc	 edi
  000fc	83 ff 64	 cmp	 edi, 100		; 00000064H
  000ff	0f 8c 6c ff ff
	ff		 jl	 $LL4@IncreaseEx
$LN38@IncreaseEx:

; 95   : 			fabs(m_v3Velocity.z) < EPSILON )
; 96   : 			break;
; 97   : 	}
; 98   : 
; 99   : 	SetLastPosition(v3Movement, float(LoopValue) * c_fFrameTime);

  00105	51		 push	 ecx
  00106	8d 45 e4	 lea	 eax, DWORD PTR _v3Movement$[ebp]
  00109	c7 04 24 00 00
	00 40		 mov	 DWORD PTR [esp], 1073741824 ; 40000000H
  00110	50		 push	 eax
  00111	8b ce		 mov	 ecx, esi
  00113	e8 00 00 00 00	 call	 ?SetLastPosition@CPhysicsObject@@QAEXABUD3DXVECTOR3@@M@Z ; CPhysicsObject::SetLastPosition

; 100  : 
; 101  : 	if( m_pActorInstance )

  00118	8b 56 74	 mov	 edx, DWORD PTR [esi+116]
  0011b	85 d2		 test	 edx, edx
  0011d	74 0c		 je	 SHORT $LN8@IncreaseEx

; 102  : 	{
; 103  : 		IObjectManager* pObjectManager = IObjectManager::GetObjectManager();

  0011f	8b 0d 00 00 00
	00		 mov	 ecx, DWORD PTR ?ms_ObjManager@IObjectManager@@0PAV1@A ; IObjectManager::ms_ObjManager

; 104  : 		pObjectManager->AdjustCollisionWithOtherObjects( m_pActorInstance );

  00125	52		 push	 edx
  00126	8b 01		 mov	 eax, DWORD PTR [ecx]
  00128	ff 50 04	 call	 DWORD PTR [eax+4]
$LN8@IncreaseEx:

; 105  : 	}
; 106  : }

  0012b	5f		 pop	 edi
  0012c	5e		 pop	 esi
  0012d	8b 4d fc	 mov	 ecx, DWORD PTR __$ArrayPad$[ebp]
  00130	33 cd		 xor	 ecx, ebp
  00132	e8 00 00 00 00	 call	 @__security_check_cookie@4
  00137	8b e5		 mov	 esp, ebp
  00139	5d		 pop	 ebp
  0013a	c2 08 00	 ret	 8
$LN33@IncreaseEx:

; 76   : 			{
; 77   : 				Initialize();

  0013d	8b ce		 mov	 ecx, esi
  0013f	e8 00 00 00 00	 call	 ?Initialize@CPhysicsObject@@QAEXXZ ; CPhysicsObject::Initialize

; 105  : 	}
; 106  : }

  00144	8b 4d fc	 mov	 ecx, DWORD PTR __$ArrayPad$[ebp]
  00147	5f		 pop	 edi
  00148	33 cd		 xor	 ecx, ebp
  0014a	5e		 pop	 esi
  0014b	e8 00 00 00 00	 call	 @__security_check_cookie@4
  00150	8b e5		 mov	 esp, ebp
  00152	5d		 pop	 ebp
  00153	c2 08 00	 ret	 8
?IncreaseExternalForce@CPhysicsObject@@QAEXABUD3DXVECTOR3@@M@Z ENDP ; CPhysicsObject::IncreaseExternalForce
_TEXT	ENDS
; Function compile flags: /Ogtp
; File C:\DS Project\DS Files\Source\ClientSource\Client\GameLib\PhysicsObject.cpp
;	COMDAT ?SetDirection@CPhysicsObject@@QAEXABUD3DXVECTOR3@@@Z
_TEXT	SEGMENT
_c_rv3Direction$ = 8					; size = 4
?SetDirection@CPhysicsObject@@QAEXABUD3DXVECTOR3@@@Z PROC ; CPhysicsObject::SetDirection, COMDAT
; _this$ = ecx

; 125  : {

  00000	55		 push	 ebp
  00001	8b ec		 mov	 ebp, esp

; 126  : 	m_v3Direction.x = c_rv3Direction.x;

  00003	8b 55 08	 mov	 edx, DWORD PTR _c_rv3Direction$[ebp]
  00006	8b 02		 mov	 eax, DWORD PTR [edx]
  00008	89 41 0c	 mov	 DWORD PTR [ecx+12], eax

; 127  : 	m_v3Direction.y = c_rv3Direction.y;

  0000b	8b 42 04	 mov	 eax, DWORD PTR [edx+4]
  0000e	89 41 10	 mov	 DWORD PTR [ecx+16], eax

; 128  : 	m_v3Direction.z = c_rv3Direction.z;

  00011	8b 42 08	 mov	 eax, DWORD PTR [edx+8]
  00014	89 41 14	 mov	 DWORD PTR [ecx+20], eax

; 129  : }

  00017	5d		 pop	 ebp
  00018	c2 04 00	 ret	 4
?SetDirection@CPhysicsObject@@QAEXABUD3DXVECTOR3@@@Z ENDP ; CPhysicsObject::SetDirection
_TEXT	ENDS
; Function compile flags: /Ogtp
; File C:\DS Project\DS Files\Source\ClientSource\Client\GameLib\PhysicsObject.cpp
; File C:\DS Project\DS Files\Source\ClientSource\extern\include\d3dx8math.inl
; File C:\Program Files (x86)\Windows Kits\10\Include\10.0.18362.0\ucrt\corecrt_math.h
; File C:\DS Project\DS Files\Source\ClientSource\Client\GameLib\PhysicsObject.cpp
;	COMDAT ?isBlending@CPhysicsObject@@QAE_NXZ
_TEXT	SEGMENT
?isBlending@CPhysicsObject@@QAE_NXZ PROC		; CPhysicsObject::isBlending, COMDAT
; _this$ = ecx

; 142  : {

  00000	55		 push	 ebp
  00001	8b ec		 mov	 ebp, esp
  00003	83 e4 f8	 and	 esp, -8			; fffffff8H
  00006	51		 push	 ecx
  00007	56		 push	 esi
  00008	8b f1		 mov	 esi, ecx
; File C:\DS Project\DS Files\Source\ClientSource\extern\include\d3dx8math.inl

; 1239 :     return sqrtf(pV->x * pV->x + pV->y * pV->y + pV->z * pV->z);

  0000a	f3 0f 10 4e 28	 movss	 xmm1, DWORD PTR [esi+40]
  0000f	f3 0f 10 56 24	 movss	 xmm2, DWORD PTR [esi+36]
  00014	f3 0f 10 46 2c	 movss	 xmm0, DWORD PTR [esi+44]
  00019	f3 0f 59 d2	 mulss	 xmm2, xmm2
  0001d	f3 0f 59 c9	 mulss	 xmm1, xmm1
  00021	f3 0f 59 c0	 mulss	 xmm0, xmm0
  00025	f3 0f 58 d1	 addss	 xmm2, xmm1
  00029	0f 57 c9	 xorps	 xmm1, xmm1
  0002c	f3 0f 58 d0	 addss	 xmm2, xmm0
; File C:\Program Files (x86)\Windows Kits\10\Include\10.0.18362.0\ucrt\corecrt_math.h

; 760  :             return (float)sqrt(_X);

  00030	0f 5a c2	 cvtps2pd xmm0, xmm2
  00033	66 0f 2e c8	 ucomisd xmm1, xmm0
  00037	77 06		 ja	 SHORT $LN10@isBlending
  00039	f2 0f 51 c0	 sqrtsd	 xmm0, xmm0
  0003d	eb 05		 jmp	 SHORT $LN11@isBlending
$LN10@isBlending:
  0003f	e8 00 00 00 00	 call	 __libm_sse2_sqrt_precise
$LN11@isBlending:
  00044	0f 57 c9	 xorps	 xmm1, xmm1
  00047	f2 0f 5a c8	 cvtsd2ss xmm1, xmm0
  0004b	0f 57 c0	 xorps	 xmm0, xmm0
; File C:\DS Project\DS Files\Source\ClientSource\Client\GameLib\PhysicsObject.cpp

; 143  : 	if (0.0f != D3DXVec3Length(&m_v3Velocity))

  0004e	0f 2e c1	 ucomiss xmm0, xmm1
  00051	9f		 lahf
  00052	f6 c4 44	 test	 ah, 68			; 00000044H
  00055	7a 1f		 jp	 SHORT $LN4@isBlending

; 144  : 		return true;
; 145  : 
; 146  : 	if (m_xPushingPosition.isPlaying() ||

  00057	8d 4e 3c	 lea	 ecx, DWORD PTR [esi+60]
  0005a	e8 00 00 00 00	 call	 ?isPlaying@CEaseOutInterpolation@@QAEHXZ ; CEaseOutInterpolation::isPlaying
  0005f	85 c0		 test	 eax, eax
  00061	75 13		 jne	 SHORT $LN4@isBlending
  00063	8d 4e 58	 lea	 ecx, DWORD PTR [esi+88]
  00066	e8 00 00 00 00	 call	 ?isPlaying@CEaseOutInterpolation@@QAEHXZ ; CEaseOutInterpolation::isPlaying
  0006b	85 c0		 test	 eax, eax
  0006d	75 07		 jne	 SHORT $LN4@isBlending

; 149  : 
; 150  : 	return false;

  0006f	32 c0		 xor	 al, al

; 151  : }

  00071	5e		 pop	 esi
  00072	8b e5		 mov	 esp, ebp
  00074	5d		 pop	 ebp
  00075	c3		 ret	 0
$LN4@isBlending:

; 147  : 		m_yPushingPosition.isPlaying())
; 148  : 		return true;

  00076	b0 01		 mov	 al, 1

; 151  : }

  00078	5e		 pop	 esi
  00079	8b e5		 mov	 esp, ebp
  0007b	5d		 pop	 ebp
  0007c	c3		 ret	 0
?isBlending@CPhysicsObject@@QAE_NXZ ENDP		; CPhysicsObject::isBlending
_TEXT	ENDS
; Function compile flags: /Ogtp
; File C:\DS Project\DS Files\Source\ClientSource\Client\GameLib\PhysicsObject.cpp
;	COMDAT ?Update@CPhysicsObject@@QAEXM@Z
_TEXT	SEGMENT
_fElapsedTime$ = 8					; size = 4
?Update@CPhysicsObject@@QAEXM@Z PROC			; CPhysicsObject::Update, COMDAT
; _this$ = ecx

; 11   : {

  00000	55		 push	 ebp
  00001	8b ec		 mov	 ebp, esp
  00003	56		 push	 esi
  00004	8b f1		 mov	 esi, ecx
  00006	57		 push	 edi

; 12   : 	if (m_xPushingPosition.isPlaying())

  00007	8d 4e 3c	 lea	 ecx, DWORD PTR [esi+60]
  0000a	e8 00 00 00 00	 call	 ?isPlaying@CEaseOutInterpolation@@QAEHXZ ; CEaseOutInterpolation::isPlaying
  0000f	85 c0		 test	 eax, eax
  00011	74 13		 je	 SHORT $LN2@Update

; 13   : 		m_xPushingPosition.Interpolate(fElapsedTime);

  00013	f3 0f 10 45 08	 movss	 xmm0, DWORD PTR _fElapsedTime$[ebp]
  00018	51		 push	 ecx
  00019	8d 4e 3c	 lea	 ecx, DWORD PTR [esi+60]
  0001c	f3 0f 11 04 24	 movss	 DWORD PTR [esp], xmm0
  00021	e8 00 00 00 00	 call	 ?Interpolate@CEaseOutInterpolation@@QAEXM@Z ; CEaseOutInterpolation::Interpolate
$LN2@Update:

; 14   : 	if (m_yPushingPosition.isPlaying())

  00026	8d 4e 58	 lea	 ecx, DWORD PTR [esi+88]
  00029	e8 00 00 00 00	 call	 ?isPlaying@CEaseOutInterpolation@@QAEHXZ ; CEaseOutInterpolation::isPlaying
  0002e	85 c0		 test	 eax, eax
  00030	74 13		 je	 SHORT $LN3@Update

; 15   : 		m_yPushingPosition.Interpolate(fElapsedTime);

  00032	f3 0f 10 45 08	 movss	 xmm0, DWORD PTR _fElapsedTime$[ebp]
  00037	51		 push	 ecx
  00038	8d 4e 58	 lea	 ecx, DWORD PTR [esi+88]
  0003b	f3 0f 11 04 24	 movss	 DWORD PTR [esp], xmm0
  00040	e8 00 00 00 00	 call	 ?Interpolate@CEaseOutInterpolation@@QAEXM@Z ; CEaseOutInterpolation::Interpolate
$LN3@Update:

; 16   : }

  00045	5f		 pop	 edi
  00046	5e		 pop	 esi
  00047	5d		 pop	 ebp
  00048	c2 04 00	 ret	 4
?Update@CPhysicsObject@@QAEXM@Z ENDP			; CPhysicsObject::Update
_TEXT	ENDS
; Function compile flags: /Ogtp
; File C:\DS Project\DS Files\Source\ClientSource\Client\GameLib\PhysicsObject.cpp
; File C:\DS Project\DS Files\Source\ClientSource\extern\include\d3dx8math.inl
; File C:\DS Project\DS Files\Source\ClientSource\Client\GameLib\PhysicsObject.cpp
; File C:\DS Project\DS Files\Source\ClientSource\extern\include\d3dx8math.inl
; File C:\DS Project\DS Files\Source\ClientSource\Client\GameLib\PhysicsObject.cpp
; File C:\DS Project\DS Files\Source\ClientSource\extern\include\d3dx8math.inl
; File C:\DS Project\DS Files\Source\ClientSource\Client\GameLib\PhysicsObject.cpp
; File C:\DS Project\DS Files\Source\ClientSource\extern\include\d3dx8math.inl
; File C:\DS Project\DS Files\Source\ClientSource\Client\GameLib\PhysicsObject.cpp
;	COMDAT ?Initialize@CPhysicsObject@@QAEXXZ
_TEXT	SEGMENT
$T1 = -12						; size = 12
$T2 = -12						; size = 12
$T3 = -12						; size = 12
$T4 = -12						; size = 12
?Initialize@CPhysicsObject@@QAEXXZ PROC			; CPhysicsObject::Initialize, COMDAT
; _this$ = ecx

; 154  : {

  00000	55		 push	 ebp
  00001	8b ec		 mov	 ebp, esp
  00003	83 ec 0c	 sub	 esp, 12			; 0000000cH
  00006	0f 57 c0	 xorps	 xmm0, xmm0
; File C:\DS Project\DS Files\Source\ClientSource\extern\include\d3dx8math.inl

; 182  :     z = fz;

  00009	c7 45 fc 00 00
	00 00		 mov	 DWORD PTR $T4[ebp+8], 0
; File C:\DS Project\DS Files\Source\ClientSource\Client\GameLib\PhysicsObject.cpp

; 157  : 	m_v3Direction = D3DXVECTOR3(0.0f, 0.0f, 0.0f);

  00010	8b 45 fc	 mov	 eax, DWORD PTR $T4[ebp+8]
  00013	0f 57 c9	 xorps	 xmm1, xmm1
  00016	0f 14 c1	 unpcklps xmm0, xmm1
  00019	56		 push	 esi
  0001a	8b f1		 mov	 esi, ecx
; File C:\DS Project\DS Files\Source\ClientSource\extern\include\d3dx8math.inl

; 182  :     z = fz;

  0001c	c7 45 fc 00 00
	00 00		 mov	 DWORD PTR $T3[ebp+8], 0
; File C:\DS Project\DS Files\Source\ClientSource\Client\GameLib\PhysicsObject.cpp

; 157  : 	m_v3Direction = D3DXVECTOR3(0.0f, 0.0f, 0.0f);

  00023	66 0f d6 46 0c	 movq	 QWORD PTR [esi+12], xmm0

; 161  : 
; 162  : 	m_xPushingPosition.Initialize();

  00028	8d 4e 3c	 lea	 ecx, DWORD PTR [esi+60]
  0002b	0f 57 c0	 xorps	 xmm0, xmm0
  0002e	89 46 14	 mov	 DWORD PTR [esi+20], eax
  00031	8b 45 fc	 mov	 eax, DWORD PTR $T3[ebp+8]
  00034	0f 14 c1	 unpcklps xmm0, xmm1
  00037	66 0f d6 46 18	 movq	 QWORD PTR [esi+24], xmm0
  0003c	0f 57 c0	 xorps	 xmm0, xmm0
  0003f	0f 14 c1	 unpcklps xmm0, xmm1
  00042	89 46 20	 mov	 DWORD PTR [esi+32], eax
; File C:\DS Project\DS Files\Source\ClientSource\extern\include\d3dx8math.inl

; 182  :     z = fz;

  00045	c7 45 fc 00 00
	00 00		 mov	 DWORD PTR $T2[ebp+8], 0
; File C:\DS Project\DS Files\Source\ClientSource\Client\GameLib\PhysicsObject.cpp

; 159  : 	m_v3Velocity = D3DXVECTOR3(0.0f, 0.0f, 0.0f);

  0004c	8b 45 fc	 mov	 eax, DWORD PTR $T2[ebp+8]
  0004f	66 0f d6 46 24	 movq	 QWORD PTR [esi+36], xmm0

; 160  : 	m_v3LastPosition = D3DXVECTOR3(0.0f, 0.0f, 0.0f);

  00054	0f 14 c9	 unpcklps xmm1, xmm1
  00057	89 46 2c	 mov	 DWORD PTR [esi+44], eax
; File C:\DS Project\DS Files\Source\ClientSource\extern\include\d3dx8math.inl

; 182  :     z = fz;

  0005a	c7 45 fc 00 00
	00 00		 mov	 DWORD PTR $T1[ebp+8], 0
; File C:\DS Project\DS Files\Source\ClientSource\Client\GameLib\PhysicsObject.cpp

; 160  : 	m_v3LastPosition = D3DXVECTOR3(0.0f, 0.0f, 0.0f);

  00061	8b 45 fc	 mov	 eax, DWORD PTR $T1[ebp+8]
  00064	66 0f d6 4e 30	 movq	 QWORD PTR [esi+48], xmm1
  00069	c7 46 04 00 00
	80 3f		 mov	 DWORD PTR [esi+4], 1065353216 ; 3f800000H
  00070	c7 46 08 9a 99
	99 3e		 mov	 DWORD PTR [esi+8], 1050253722 ; 3e99999aH
  00077	89 46 38	 mov	 DWORD PTR [esi+56], eax

; 161  : 
; 162  : 	m_xPushingPosition.Initialize();

  0007a	e8 00 00 00 00	 call	 ?Initialize@CEaseOutInterpolation@@QAEXXZ ; CEaseOutInterpolation::Initialize

; 163  : 	m_yPushingPosition.Initialize();

  0007f	8d 4e 58	 lea	 ecx, DWORD PTR [esi+88]
  00082	e8 00 00 00 00	 call	 ?Initialize@CEaseOutInterpolation@@QAEXXZ ; CEaseOutInterpolation::Initialize
  00087	5e		 pop	 esi

; 164  : }

  00088	8b e5		 mov	 esp, ebp
  0008a	5d		 pop	 ebp
  0008b	c3		 ret	 0
?Initialize@CPhysicsObject@@QAEXXZ ENDP			; CPhysicsObject::Initialize
_TEXT	ENDS
; Function compile flags: /Ogtp
; File C:\DS Project\DS Files\Source\ClientSource\Client\GameLib\PhysicsObject.cpp
;	COMDAT ??1CPhysicsObject@@UAE@XZ
_TEXT	SEGMENT
??1CPhysicsObject@@UAE@XZ PROC				; CPhysicsObject::~CPhysicsObject, COMDAT
; _this$ = ecx

; 172  : {

  00000	56		 push	 esi
  00001	8b f1		 mov	 esi, ecx

; 173  : }

  00003	8d 4e 58	 lea	 ecx, DWORD PTR [esi+88]
  00006	c7 06 00 00 00
	00		 mov	 DWORD PTR [esi], OFFSET ??_7CPhysicsObject@@6B@
  0000c	e8 00 00 00 00	 call	 ??1CEaseOutInterpolation@@UAE@XZ ; CEaseOutInterpolation::~CEaseOutInterpolation
  00011	8d 4e 3c	 lea	 ecx, DWORD PTR [esi+60]
  00014	5e		 pop	 esi
  00015	e9 00 00 00 00	 jmp	 ??1CEaseOutInterpolation@@UAE@XZ ; CEaseOutInterpolation::~CEaseOutInterpolation
??1CPhysicsObject@@UAE@XZ ENDP				; CPhysicsObject::~CPhysicsObject
_TEXT	ENDS
; Function compile flags: /Ogtp
; File C:\DS Project\DS Files\Source\ClientSource\Client\GameLib\PhysicsObject.cpp
;	COMDAT ??0CPhysicsObject@@QAE@XZ
_TEXT	SEGMENT
_this$ = -16						; size = 4
__$EHRec$ = -12						; size = 12
??0CPhysicsObject@@QAE@XZ PROC				; CPhysicsObject::CPhysicsObject, COMDAT
; _this$ = ecx

; 167  : {

  00000	55		 push	 ebp
  00001	8b ec		 mov	 ebp, esp
  00003	6a ff		 push	 -1
  00005	68 00 00 00 00	 push	 __ehhandler$??0CPhysicsObject@@QAE@XZ
  0000a	64 a1 00 00 00
	00		 mov	 eax, DWORD PTR fs:0
  00010	50		 push	 eax
  00011	51		 push	 ecx
  00012	56		 push	 esi
  00013	a1 00 00 00 00	 mov	 eax, DWORD PTR ___security_cookie
  00018	33 c5		 xor	 eax, ebp
  0001a	50		 push	 eax
  0001b	8d 45 f4	 lea	 eax, DWORD PTR __$EHRec$[ebp]
  0001e	64 a3 00 00 00
	00		 mov	 DWORD PTR fs:0, eax
  00024	8b f1		 mov	 esi, ecx
  00026	89 75 f0	 mov	 DWORD PTR _this$[ebp], esi
  00029	8d 4e 3c	 lea	 ecx, DWORD PTR [esi+60]
  0002c	c7 06 00 00 00
	00		 mov	 DWORD PTR [esi], OFFSET ??_7CPhysicsObject@@6B@
  00032	e8 00 00 00 00	 call	 ??0CEaseOutInterpolation@@QAE@XZ ; CEaseOutInterpolation::CEaseOutInterpolation
  00037	8d 4e 58	 lea	 ecx, DWORD PTR [esi+88]
  0003a	c7 45 fc 00 00
	00 00		 mov	 DWORD PTR __$EHRec$[ebp+8], 0
  00041	e8 00 00 00 00	 call	 ??0CEaseOutInterpolation@@QAE@XZ ; CEaseOutInterpolation::CEaseOutInterpolation

; 168  : 	m_pActorInstance = NULL;

  00046	c7 46 74 00 00
	00 00		 mov	 DWORD PTR [esi+116], 0

; 169  : }

  0004d	8b c6		 mov	 eax, esi
  0004f	8b 4d f4	 mov	 ecx, DWORD PTR __$EHRec$[ebp]
  00052	64 89 0d 00 00
	00 00		 mov	 DWORD PTR fs:0, ecx
  00059	59		 pop	 ecx
  0005a	5e		 pop	 esi
  0005b	8b e5		 mov	 esp, ebp
  0005d	5d		 pop	 ebp
  0005e	c3		 ret	 0
_TEXT	ENDS
;	COMDAT text$x
text$x	SEGMENT
__unwindfunclet$??0CPhysicsObject@@QAE@XZ$0:
  00000	8b 4d f0	 mov	 ecx, DWORD PTR _this$[ebp]
  00003	83 c1 3c	 add	 ecx, 60			; 0000003cH
  00006	e9 00 00 00 00	 jmp	 ??1CEaseOutInterpolation@@UAE@XZ ; CEaseOutInterpolation::~CEaseOutInterpolation
  0000b	cc		 int	 3
  0000c	cc		 int	 3
  0000d	cc		 int	 3
  0000e	cc		 int	 3
  0000f	cc		 int	 3
__ehhandler$??0CPhysicsObject@@QAE@XZ:
  00010	90		 npad	 1
  00011	90		 npad	 1
  00012	8b 54 24 08	 mov	 edx, DWORD PTR [esp+8]
  00016	8d 42 0c	 lea	 eax, DWORD PTR [edx+12]
  00019	8b 4a f4	 mov	 ecx, DWORD PTR [edx-12]
  0001c	33 c8		 xor	 ecx, eax
  0001e	e8 00 00 00 00	 call	 @__security_check_cookie@4
  00023	b8 00 00 00 00	 mov	 eax, OFFSET __ehfuncinfo$??0CPhysicsObject@@QAE@XZ
  00028	e9 00 00 00 00	 jmp	 ___CxxFrameHandler3
text$x	ENDS
??0CPhysicsObject@@QAE@XZ ENDP				; CPhysicsObject::CPhysicsObject
END
