; Listing generated by Microsoft (R) Optimizing Compiler Version 19.27.29112.0 

	TITLE	C:\DS Project\DS Files\Source\ClientSource\Client\GameLib\RaceDataFile.cpp
	.686P
	.XMM
	include listing.inc
	.model	flat

INCLUDELIB LIBCMT
INCLUDELIB OLDNAMES

PUBLIC	??_7?$CDynamicPoolEx@VCHeaderDecorator@NEffectUpdateDecorator@@@@6B@ ; CDynamicPoolEx<NEffectUpdateDecorator::CHeaderDecorator>::`vftable'
PUBLIC	??_G?$CDynamicPoolEx@VCHeaderDecorator@NEffectUpdateDecorator@@@@UAEPAXI@Z ; CDynamicPoolEx<NEffectUpdateDecorator::CHeaderDecorator>::`scalar deleting destructor'
PUBLIC	??_7?$CDynamicPoolEx@VCRotationDecorator@NEffectUpdateDecorator@@@@6B@ ; CDynamicPoolEx<NEffectUpdateDecorator::CRotationDecorator>::`vftable'
PUBLIC	??_G?$CDynamicPoolEx@VCRotationDecorator@NEffectUpdateDecorator@@@@UAEPAXI@Z ; CDynamicPoolEx<NEffectUpdateDecorator::CRotationDecorator>::`scalar deleting destructor'
PUBLIC	??_7?$CDynamicPoolEx@VCGravityDecorator@NEffectUpdateDecorator@@@@6B@ ; CDynamicPoolEx<NEffectUpdateDecorator::CGravityDecorator>::`vftable'
PUBLIC	??_G?$CDynamicPoolEx@VCGravityDecorator@NEffectUpdateDecorator@@@@UAEPAXI@Z ; CDynamicPoolEx<NEffectUpdateDecorator::CGravityDecorator>::`scalar deleting destructor'
PUBLIC	??_7?$CDynamicPoolEx@VCAirResistanceDecorator@NEffectUpdateDecorator@@@@6B@ ; CDynamicPoolEx<NEffectUpdateDecorator::CAirResistanceDecorator>::`vftable'
PUBLIC	??_G?$CDynamicPoolEx@VCAirResistanceDecorator@NEffectUpdateDecorator@@@@UAEPAXI@Z ; CDynamicPoolEx<NEffectUpdateDecorator::CAirResistanceDecorator>::`scalar deleting destructor'
PUBLIC	??_7?$CDynamicPoolEx@VCTextureAnimationRandomDecorator@NEffectUpdateDecorator@@@@6B@ ; CDynamicPoolEx<NEffectUpdateDecorator::CTextureAnimationRandomDecorator>::`vftable'
PUBLIC	??_G?$CDynamicPoolEx@VCTextureAnimationRandomDecorator@NEffectUpdateDecorator@@@@UAEPAXI@Z ; CDynamicPoolEx<NEffectUpdateDecorator::CTextureAnimationRandomDecorator>::`scalar deleting destructor'
PUBLIC	??_7?$CDynamicPoolEx@VCTextureAnimationCCWDecorator@NEffectUpdateDecorator@@@@6B@ ; CDynamicPoolEx<NEffectUpdateDecorator::CTextureAnimationCCWDecorator>::`vftable'
PUBLIC	??_G?$CDynamicPoolEx@VCTextureAnimationCCWDecorator@NEffectUpdateDecorator@@@@UAEPAXI@Z ; CDynamicPoolEx<NEffectUpdateDecorator::CTextureAnimationCCWDecorator>::`scalar deleting destructor'
PUBLIC	??_7?$CDynamicPoolEx@VCTextureAnimationCWDecorator@NEffectUpdateDecorator@@@@6B@ ; CDynamicPoolEx<NEffectUpdateDecorator::CTextureAnimationCWDecorator>::`vftable'
PUBLIC	??_G?$CDynamicPoolEx@VCTextureAnimationCWDecorator@NEffectUpdateDecorator@@@@UAEPAXI@Z ; CDynamicPoolEx<NEffectUpdateDecorator::CTextureAnimationCWDecorator>::`scalar deleting destructor'
PUBLIC	??_R4?$CDynamicPoolEx@VCHeaderDecorator@NEffectUpdateDecorator@@@@6B@ ; CDynamicPoolEx<NEffectUpdateDecorator::CHeaderDecorator>::`RTTI Complete Object Locator'
PUBLIC	??_R0?AV?$CDynamicPoolEx@VCHeaderDecorator@NEffectUpdateDecorator@@@@@8 ; CDynamicPoolEx<NEffectUpdateDecorator::CHeaderDecorator> `RTTI Type Descriptor'
PUBLIC	??_R3?$CDynamicPoolEx@VCHeaderDecorator@NEffectUpdateDecorator@@@@8 ; CDynamicPoolEx<NEffectUpdateDecorator::CHeaderDecorator>::`RTTI Class Hierarchy Descriptor'
PUBLIC	??_R2?$CDynamicPoolEx@VCHeaderDecorator@NEffectUpdateDecorator@@@@8 ; CDynamicPoolEx<NEffectUpdateDecorator::CHeaderDecorator>::`RTTI Base Class Array'
PUBLIC	??_R1A@?0A@EA@?$CDynamicPoolEx@VCHeaderDecorator@NEffectUpdateDecorator@@@@8 ; CDynamicPoolEx<NEffectUpdateDecorator::CHeaderDecorator>::`RTTI Base Class Descriptor at (0,-1,0,64)'
PUBLIC	??_R4?$CDynamicPoolEx@VCNullDecorator@NEffectUpdateDecorator@@@@6B@ ; CDynamicPoolEx<NEffectUpdateDecorator::CNullDecorator>::`RTTI Complete Object Locator'
PUBLIC	??_R0?AV?$CDynamicPoolEx@VCNullDecorator@NEffectUpdateDecorator@@@@@8 ; CDynamicPoolEx<NEffectUpdateDecorator::CNullDecorator> `RTTI Type Descriptor'
PUBLIC	??_R3?$CDynamicPoolEx@VCNullDecorator@NEffectUpdateDecorator@@@@8 ; CDynamicPoolEx<NEffectUpdateDecorator::CNullDecorator>::`RTTI Class Hierarchy Descriptor'
PUBLIC	??_R2?$CDynamicPoolEx@VCNullDecorator@NEffectUpdateDecorator@@@@8 ; CDynamicPoolEx<NEffectUpdateDecorator::CNullDecorator>::`RTTI Base Class Array'
PUBLIC	??_R1A@?0A@EA@?$CDynamicPoolEx@VCNullDecorator@NEffectUpdateDecorator@@@@8 ; CDynamicPoolEx<NEffectUpdateDecorator::CNullDecorator>::`RTTI Base Class Descriptor at (0,-1,0,64)'
PUBLIC	??_R4?$CDynamicPoolEx@VCTextureAnimationCWDecorator@NEffectUpdateDecorator@@@@6B@ ; CDynamicPoolEx<NEffectUpdateDecorator::CTextureAnimationCWDecorator>::`RTTI Complete Object Locator'
PUBLIC	??_R0?AV?$CDynamicPoolEx@VCTextureAnimationCWDecorator@NEffectUpdateDecorator@@@@@8 ; CDynamicPoolEx<NEffectUpdateDecorator::CTextureAnimationCWDecorator> `RTTI Type Descriptor'
PUBLIC	??_R3?$CDynamicPoolEx@VCTextureAnimationCWDecorator@NEffectUpdateDecorator@@@@8 ; CDynamicPoolEx<NEffectUpdateDecorator::CTextureAnimationCWDecorator>::`RTTI Class Hierarchy Descriptor'
PUBLIC	??_R2?$CDynamicPoolEx@VCTextureAnimationCWDecorator@NEffectUpdateDecorator@@@@8 ; CDynamicPoolEx<NEffectUpdateDecorator::CTextureAnimationCWDecorator>::`RTTI Base Class Array'
PUBLIC	??_R1A@?0A@EA@?$CDynamicPoolEx@VCTextureAnimationCWDecorator@NEffectUpdateDecorator@@@@8 ; CDynamicPoolEx<NEffectUpdateDecorator::CTextureAnimationCWDecorator>::`RTTI Base Class Descriptor at (0,-1,0,64)'
PUBLIC	??_R4?$CDynamicPoolEx@VCTextureAnimationCCWDecorator@NEffectUpdateDecorator@@@@6B@ ; CDynamicPoolEx<NEffectUpdateDecorator::CTextureAnimationCCWDecorator>::`RTTI Complete Object Locator'
PUBLIC	??_R0?AV?$CDynamicPoolEx@VCTextureAnimationCCWDecorator@NEffectUpdateDecorator@@@@@8 ; CDynamicPoolEx<NEffectUpdateDecorator::CTextureAnimationCCWDecorator> `RTTI Type Descriptor'
PUBLIC	??_R3?$CDynamicPoolEx@VCTextureAnimationCCWDecorator@NEffectUpdateDecorator@@@@8 ; CDynamicPoolEx<NEffectUpdateDecorator::CTextureAnimationCCWDecorator>::`RTTI Class Hierarchy Descriptor'
PUBLIC	??_R2?$CDynamicPoolEx@VCTextureAnimationCCWDecorator@NEffectUpdateDecorator@@@@8 ; CDynamicPoolEx<NEffectUpdateDecorator::CTextureAnimationCCWDecorator>::`RTTI Base Class Array'
PUBLIC	??_R1A@?0A@EA@?$CDynamicPoolEx@VCTextureAnimationCCWDecorator@NEffectUpdateDecorator@@@@8 ; CDynamicPoolEx<NEffectUpdateDecorator::CTextureAnimationCCWDecorator>::`RTTI Base Class Descriptor at (0,-1,0,64)'
PUBLIC	??_R4?$CDynamicPoolEx@VCTextureAnimationRandomDecorator@NEffectUpdateDecorator@@@@6B@ ; CDynamicPoolEx<NEffectUpdateDecorator::CTextureAnimationRandomDecorator>::`RTTI Complete Object Locator'
PUBLIC	??_R0?AV?$CDynamicPoolEx@VCTextureAnimationRandomDecorator@NEffectUpdateDecorator@@@@@8 ; CDynamicPoolEx<NEffectUpdateDecorator::CTextureAnimationRandomDecorator> `RTTI Type Descriptor'
PUBLIC	??_R3?$CDynamicPoolEx@VCTextureAnimationRandomDecorator@NEffectUpdateDecorator@@@@8 ; CDynamicPoolEx<NEffectUpdateDecorator::CTextureAnimationRandomDecorator>::`RTTI Class Hierarchy Descriptor'
PUBLIC	??_R2?$CDynamicPoolEx@VCTextureAnimationRandomDecorator@NEffectUpdateDecorator@@@@8 ; CDynamicPoolEx<NEffectUpdateDecorator::CTextureAnimationRandomDecorator>::`RTTI Base Class Array'
PUBLIC	??_R1A@?0A@EA@?$CDynamicPoolEx@VCTextureAnimationRandomDecorator@NEffectUpdateDecorator@@@@8 ; CDynamicPoolEx<NEffectUpdateDecorator::CTextureAnimationRandomDecorator>::`RTTI Base Class Descriptor at (0,-1,0,64)'
PUBLIC	??_R4?$CDynamicPoolEx@VCAirResistanceDecorator@NEffectUpdateDecorator@@@@6B@ ; CDynamicPoolEx<NEffectUpdateDecorator::CAirResistanceDecorator>::`RTTI Complete Object Locator'
PUBLIC	??_R0?AV?$CDynamicPoolEx@VCAirResistanceDecorator@NEffectUpdateDecorator@@@@@8 ; CDynamicPoolEx<NEffectUpdateDecorator::CAirResistanceDecorator> `RTTI Type Descriptor'
PUBLIC	??_R3?$CDynamicPoolEx@VCAirResistanceDecorator@NEffectUpdateDecorator@@@@8 ; CDynamicPoolEx<NEffectUpdateDecorator::CAirResistanceDecorator>::`RTTI Class Hierarchy Descriptor'
PUBLIC	??_R2?$CDynamicPoolEx@VCAirResistanceDecorator@NEffectUpdateDecorator@@@@8 ; CDynamicPoolEx<NEffectUpdateDecorator::CAirResistanceDecorator>::`RTTI Base Class Array'
PUBLIC	??_R1A@?0A@EA@?$CDynamicPoolEx@VCAirResistanceDecorator@NEffectUpdateDecorator@@@@8 ; CDynamicPoolEx<NEffectUpdateDecorator::CAirResistanceDecorator>::`RTTI Base Class Descriptor at (0,-1,0,64)'
PUBLIC	??_R4?$CDynamicPoolEx@VCGravityDecorator@NEffectUpdateDecorator@@@@6B@ ; CDynamicPoolEx<NEffectUpdateDecorator::CGravityDecorator>::`RTTI Complete Object Locator'
PUBLIC	??_R0?AV?$CDynamicPoolEx@VCGravityDecorator@NEffectUpdateDecorator@@@@@8 ; CDynamicPoolEx<NEffectUpdateDecorator::CGravityDecorator> `RTTI Type Descriptor'
PUBLIC	??_R3?$CDynamicPoolEx@VCGravityDecorator@NEffectUpdateDecorator@@@@8 ; CDynamicPoolEx<NEffectUpdateDecorator::CGravityDecorator>::`RTTI Class Hierarchy Descriptor'
PUBLIC	??_R2?$CDynamicPoolEx@VCGravityDecorator@NEffectUpdateDecorator@@@@8 ; CDynamicPoolEx<NEffectUpdateDecorator::CGravityDecorator>::`RTTI Base Class Array'
PUBLIC	??_R1A@?0A@EA@?$CDynamicPoolEx@VCGravityDecorator@NEffectUpdateDecorator@@@@8 ; CDynamicPoolEx<NEffectUpdateDecorator::CGravityDecorator>::`RTTI Base Class Descriptor at (0,-1,0,64)'
PUBLIC	??_R4?$CDynamicPoolEx@VCRotationDecorator@NEffectUpdateDecorator@@@@6B@ ; CDynamicPoolEx<NEffectUpdateDecorator::CRotationDecorator>::`RTTI Complete Object Locator'
PUBLIC	??_R0?AV?$CDynamicPoolEx@VCRotationDecorator@NEffectUpdateDecorator@@@@@8 ; CDynamicPoolEx<NEffectUpdateDecorator::CRotationDecorator> `RTTI Type Descriptor'
PUBLIC	??_R3?$CDynamicPoolEx@VCRotationDecorator@NEffectUpdateDecorator@@@@8 ; CDynamicPoolEx<NEffectUpdateDecorator::CRotationDecorator>::`RTTI Class Hierarchy Descriptor'
PUBLIC	??_R2?$CDynamicPoolEx@VCRotationDecorator@NEffectUpdateDecorator@@@@8 ; CDynamicPoolEx<NEffectUpdateDecorator::CRotationDecorator>::`RTTI Base Class Array'
PUBLIC	??_R1A@?0A@EA@?$CDynamicPoolEx@VCRotationDecorator@NEffectUpdateDecorator@@@@8 ; CDynamicPoolEx<NEffectUpdateDecorator::CRotationDecorator>::`RTTI Base Class Descriptor at (0,-1,0,64)'
PUBLIC	??_7?$CDynamicPoolEx@VCNullDecorator@NEffectUpdateDecorator@@@@6B@ ; CDynamicPoolEx<NEffectUpdateDecorator::CNullDecorator>::`vftable'
PUBLIC	??_G?$CDynamicPoolEx@VCNullDecorator@NEffectUpdateDecorator@@@@UAEPAXI@Z ; CDynamicPoolEx<NEffectUpdateDecorator::CNullDecorator>::`scalar deleting destructor'
EXTRN	??_E?$CDynamicPoolEx@VCHeaderDecorator@NEffectUpdateDecorator@@@@UAEPAXI@Z:PROC ; CDynamicPoolEx<NEffectUpdateDecorator::CHeaderDecorator>::`vector deleting destructor'
EXTRN	??_7type_info@@6B@:QWORD			; type_info::`vftable'
EXTRN	??_E?$CDynamicPoolEx@VCRotationDecorator@NEffectUpdateDecorator@@@@UAEPAXI@Z:PROC ; CDynamicPoolEx<NEffectUpdateDecorator::CRotationDecorator>::`vector deleting destructor'
EXTRN	??_E?$CDynamicPoolEx@VCGravityDecorator@NEffectUpdateDecorator@@@@UAEPAXI@Z:PROC ; CDynamicPoolEx<NEffectUpdateDecorator::CGravityDecorator>::`vector deleting destructor'
EXTRN	??_E?$CDynamicPoolEx@VCAirResistanceDecorator@NEffectUpdateDecorator@@@@UAEPAXI@Z:PROC ; CDynamicPoolEx<NEffectUpdateDecorator::CAirResistanceDecorator>::`vector deleting destructor'
EXTRN	??_E?$CDynamicPoolEx@VCTextureAnimationRandomDecorator@NEffectUpdateDecorator@@@@UAEPAXI@Z:PROC ; CDynamicPoolEx<NEffectUpdateDecorator::CTextureAnimationRandomDecorator>::`vector deleting destructor'
EXTRN	??_E?$CDynamicPoolEx@VCTextureAnimationCCWDecorator@NEffectUpdateDecorator@@@@UAEPAXI@Z:PROC ; CDynamicPoolEx<NEffectUpdateDecorator::CTextureAnimationCCWDecorator>::`vector deleting destructor'
EXTRN	??_E?$CDynamicPoolEx@VCTextureAnimationCWDecorator@NEffectUpdateDecorator@@@@UAEPAXI@Z:PROC ; CDynamicPoolEx<NEffectUpdateDecorator::CTextureAnimationCWDecorator>::`vector deleting destructor'
EXTRN	??_E?$CDynamicPoolEx@VCNullDecorator@NEffectUpdateDecorator@@@@UAEPAXI@Z:PROC ; CDynamicPoolEx<NEffectUpdateDecorator::CNullDecorator>::`vector deleting destructor'
;	COMDAT ??_7?$CDynamicPoolEx@VCNullDecorator@NEffectUpdateDecorator@@@@6B@
CONST	SEGMENT
??_7?$CDynamicPoolEx@VCNullDecorator@NEffectUpdateDecorator@@@@6B@ DD FLAT:??_R4?$CDynamicPoolEx@VCNullDecorator@NEffectUpdateDecorator@@@@6B@ ; CDynamicPoolEx<NEffectUpdateDecorator::CNullDecorator>::`vftable'
	DD	FLAT:??_E?$CDynamicPoolEx@VCNullDecorator@NEffectUpdateDecorator@@@@UAEPAXI@Z
CONST	ENDS
;	COMDAT ??_R1A@?0A@EA@?$CDynamicPoolEx@VCRotationDecorator@NEffectUpdateDecorator@@@@8
rdata$r	SEGMENT
??_R1A@?0A@EA@?$CDynamicPoolEx@VCRotationDecorator@NEffectUpdateDecorator@@@@8 DD FLAT:??_R0?AV?$CDynamicPoolEx@VCRotationDecorator@NEffectUpdateDecorator@@@@@8 ; CDynamicPoolEx<NEffectUpdateDecorator::CRotationDecorator>::`RTTI Base Class Descriptor at (0,-1,0,64)'
	DD	00H
	DD	00H
	DD	0ffffffffH
	DD	00H
	DD	040H
	DD	FLAT:??_R3?$CDynamicPoolEx@VCRotationDecorator@NEffectUpdateDecorator@@@@8
rdata$r	ENDS
;	COMDAT ??_R2?$CDynamicPoolEx@VCRotationDecorator@NEffectUpdateDecorator@@@@8
rdata$r	SEGMENT
??_R2?$CDynamicPoolEx@VCRotationDecorator@NEffectUpdateDecorator@@@@8 DD FLAT:??_R1A@?0A@EA@?$CDynamicPoolEx@VCRotationDecorator@NEffectUpdateDecorator@@@@8 ; CDynamicPoolEx<NEffectUpdateDecorator::CRotationDecorator>::`RTTI Base Class Array'
rdata$r	ENDS
;	COMDAT ??_R3?$CDynamicPoolEx@VCRotationDecorator@NEffectUpdateDecorator@@@@8
rdata$r	SEGMENT
??_R3?$CDynamicPoolEx@VCRotationDecorator@NEffectUpdateDecorator@@@@8 DD 00H ; CDynamicPoolEx<NEffectUpdateDecorator::CRotationDecorator>::`RTTI Class Hierarchy Descriptor'
	DD	00H
	DD	01H
	DD	FLAT:??_R2?$CDynamicPoolEx@VCRotationDecorator@NEffectUpdateDecorator@@@@8
rdata$r	ENDS
;	COMDAT ??_R0?AV?$CDynamicPoolEx@VCRotationDecorator@NEffectUpdateDecorator@@@@@8
data$r	SEGMENT
??_R0?AV?$CDynamicPoolEx@VCRotationDecorator@NEffectUpdateDecorator@@@@@8 DD FLAT:??_7type_info@@6B@ ; CDynamicPoolEx<NEffectUpdateDecorator::CRotationDecorator> `RTTI Type Descriptor'
	DD	00H
	DB	'.?AV?$CDynamicPoolEx@VCRotationDecorator@NEffectUpdateDe'
	DB	'corator@@@@', 00H
data$r	ENDS
;	COMDAT ??_R4?$CDynamicPoolEx@VCRotationDecorator@NEffectUpdateDecorator@@@@6B@
rdata$r	SEGMENT
??_R4?$CDynamicPoolEx@VCRotationDecorator@NEffectUpdateDecorator@@@@6B@ DD 00H ; CDynamicPoolEx<NEffectUpdateDecorator::CRotationDecorator>::`RTTI Complete Object Locator'
	DD	00H
	DD	00H
	DD	FLAT:??_R0?AV?$CDynamicPoolEx@VCRotationDecorator@NEffectUpdateDecorator@@@@@8
	DD	FLAT:??_R3?$CDynamicPoolEx@VCRotationDecorator@NEffectUpdateDecorator@@@@8
rdata$r	ENDS
;	COMDAT ??_R1A@?0A@EA@?$CDynamicPoolEx@VCGravityDecorator@NEffectUpdateDecorator@@@@8
rdata$r	SEGMENT
??_R1A@?0A@EA@?$CDynamicPoolEx@VCGravityDecorator@NEffectUpdateDecorator@@@@8 DD FLAT:??_R0?AV?$CDynamicPoolEx@VCGravityDecorator@NEffectUpdateDecorator@@@@@8 ; CDynamicPoolEx<NEffectUpdateDecorator::CGravityDecorator>::`RTTI Base Class Descriptor at (0,-1,0,64)'
	DD	00H
	DD	00H
	DD	0ffffffffH
	DD	00H
	DD	040H
	DD	FLAT:??_R3?$CDynamicPoolEx@VCGravityDecorator@NEffectUpdateDecorator@@@@8
rdata$r	ENDS
;	COMDAT ??_R2?$CDynamicPoolEx@VCGravityDecorator@NEffectUpdateDecorator@@@@8
rdata$r	SEGMENT
??_R2?$CDynamicPoolEx@VCGravityDecorator@NEffectUpdateDecorator@@@@8 DD FLAT:??_R1A@?0A@EA@?$CDynamicPoolEx@VCGravityDecorator@NEffectUpdateDecorator@@@@8 ; CDynamicPoolEx<NEffectUpdateDecorator::CGravityDecorator>::`RTTI Base Class Array'
rdata$r	ENDS
;	COMDAT ??_R3?$CDynamicPoolEx@VCGravityDecorator@NEffectUpdateDecorator@@@@8
rdata$r	SEGMENT
??_R3?$CDynamicPoolEx@VCGravityDecorator@NEffectUpdateDecorator@@@@8 DD 00H ; CDynamicPoolEx<NEffectUpdateDecorator::CGravityDecorator>::`RTTI Class Hierarchy Descriptor'
	DD	00H
	DD	01H
	DD	FLAT:??_R2?$CDynamicPoolEx@VCGravityDecorator@NEffectUpdateDecorator@@@@8
rdata$r	ENDS
;	COMDAT ??_R0?AV?$CDynamicPoolEx@VCGravityDecorator@NEffectUpdateDecorator@@@@@8
data$r	SEGMENT
??_R0?AV?$CDynamicPoolEx@VCGravityDecorator@NEffectUpdateDecorator@@@@@8 DD FLAT:??_7type_info@@6B@ ; CDynamicPoolEx<NEffectUpdateDecorator::CGravityDecorator> `RTTI Type Descriptor'
	DD	00H
	DB	'.?AV?$CDynamicPoolEx@VCGravityDecorator@NEffectUpdateDec'
	DB	'orator@@@@', 00H
data$r	ENDS
;	COMDAT ??_R4?$CDynamicPoolEx@VCGravityDecorator@NEffectUpdateDecorator@@@@6B@
rdata$r	SEGMENT
??_R4?$CDynamicPoolEx@VCGravityDecorator@NEffectUpdateDecorator@@@@6B@ DD 00H ; CDynamicPoolEx<NEffectUpdateDecorator::CGravityDecorator>::`RTTI Complete Object Locator'
	DD	00H
	DD	00H
	DD	FLAT:??_R0?AV?$CDynamicPoolEx@VCGravityDecorator@NEffectUpdateDecorator@@@@@8
	DD	FLAT:??_R3?$CDynamicPoolEx@VCGravityDecorator@NEffectUpdateDecorator@@@@8
rdata$r	ENDS
;	COMDAT ??_R1A@?0A@EA@?$CDynamicPoolEx@VCAirResistanceDecorator@NEffectUpdateDecorator@@@@8
rdata$r	SEGMENT
??_R1A@?0A@EA@?$CDynamicPoolEx@VCAirResistanceDecorator@NEffectUpdateDecorator@@@@8 DD FLAT:??_R0?AV?$CDynamicPoolEx@VCAirResistanceDecorator@NEffectUpdateDecorator@@@@@8 ; CDynamicPoolEx<NEffectUpdateDecorator::CAirResistanceDecorator>::`RTTI Base Class Descriptor at (0,-1,0,64)'
	DD	00H
	DD	00H
	DD	0ffffffffH
	DD	00H
	DD	040H
	DD	FLAT:??_R3?$CDynamicPoolEx@VCAirResistanceDecorator@NEffectUpdateDecorator@@@@8
rdata$r	ENDS
;	COMDAT ??_R2?$CDynamicPoolEx@VCAirResistanceDecorator@NEffectUpdateDecorator@@@@8
rdata$r	SEGMENT
??_R2?$CDynamicPoolEx@VCAirResistanceDecorator@NEffectUpdateDecorator@@@@8 DD FLAT:??_R1A@?0A@EA@?$CDynamicPoolEx@VCAirResistanceDecorator@NEffectUpdateDecorator@@@@8 ; CDynamicPoolEx<NEffectUpdateDecorator::CAirResistanceDecorator>::`RTTI Base Class Array'
rdata$r	ENDS
;	COMDAT ??_R3?$CDynamicPoolEx@VCAirResistanceDecorator@NEffectUpdateDecorator@@@@8
rdata$r	SEGMENT
??_R3?$CDynamicPoolEx@VCAirResistanceDecorator@NEffectUpdateDecorator@@@@8 DD 00H ; CDynamicPoolEx<NEffectUpdateDecorator::CAirResistanceDecorator>::`RTTI Class Hierarchy Descriptor'
	DD	00H
	DD	01H
	DD	FLAT:??_R2?$CDynamicPoolEx@VCAirResistanceDecorator@NEffectUpdateDecorator@@@@8
rdata$r	ENDS
;	COMDAT ??_R0?AV?$CDynamicPoolEx@VCAirResistanceDecorator@NEffectUpdateDecorator@@@@@8
data$r	SEGMENT
??_R0?AV?$CDynamicPoolEx@VCAirResistanceDecorator@NEffectUpdateDecorator@@@@@8 DD FLAT:??_7type_info@@6B@ ; CDynamicPoolEx<NEffectUpdateDecorator::CAirResistanceDecorator> `RTTI Type Descriptor'
	DD	00H
	DB	'.?AV?$CDynamicPoolEx@VCAirResistanceDecorator@NEffectUpd'
	DB	'ateDecorator@@@@', 00H
data$r	ENDS
;	COMDAT ??_R4?$CDynamicPoolEx@VCAirResistanceDecorator@NEffectUpdateDecorator@@@@6B@
rdata$r	SEGMENT
??_R4?$CDynamicPoolEx@VCAirResistanceDecorator@NEffectUpdateDecorator@@@@6B@ DD 00H ; CDynamicPoolEx<NEffectUpdateDecorator::CAirResistanceDecorator>::`RTTI Complete Object Locator'
	DD	00H
	DD	00H
	DD	FLAT:??_R0?AV?$CDynamicPoolEx@VCAirResistanceDecorator@NEffectUpdateDecorator@@@@@8
	DD	FLAT:??_R3?$CDynamicPoolEx@VCAirResistanceDecorator@NEffectUpdateDecorator@@@@8
rdata$r	ENDS
;	COMDAT ??_R1A@?0A@EA@?$CDynamicPoolEx@VCTextureAnimationRandomDecorator@NEffectUpdateDecorator@@@@8
rdata$r	SEGMENT
??_R1A@?0A@EA@?$CDynamicPoolEx@VCTextureAnimationRandomDecorator@NEffectUpdateDecorator@@@@8 DD FLAT:??_R0?AV?$CDynamicPoolEx@VCTextureAnimationRandomDecorator@NEffectUpdateDecorator@@@@@8 ; CDynamicPoolEx<NEffectUpdateDecorator::CTextureAnimationRandomDecorator>::`RTTI Base Class Descriptor at (0,-1,0,64)'
	DD	00H
	DD	00H
	DD	0ffffffffH
	DD	00H
	DD	040H
	DD	FLAT:??_R3?$CDynamicPoolEx@VCTextureAnimationRandomDecorator@NEffectUpdateDecorator@@@@8
rdata$r	ENDS
;	COMDAT ??_R2?$CDynamicPoolEx@VCTextureAnimationRandomDecorator@NEffectUpdateDecorator@@@@8
rdata$r	SEGMENT
??_R2?$CDynamicPoolEx@VCTextureAnimationRandomDecorator@NEffectUpdateDecorator@@@@8 DD FLAT:??_R1A@?0A@EA@?$CDynamicPoolEx@VCTextureAnimationRandomDecorator@NEffectUpdateDecorator@@@@8 ; CDynamicPoolEx<NEffectUpdateDecorator::CTextureAnimationRandomDecorator>::`RTTI Base Class Array'
rdata$r	ENDS
;	COMDAT ??_R3?$CDynamicPoolEx@VCTextureAnimationRandomDecorator@NEffectUpdateDecorator@@@@8
rdata$r	SEGMENT
??_R3?$CDynamicPoolEx@VCTextureAnimationRandomDecorator@NEffectUpdateDecorator@@@@8 DD 00H ; CDynamicPoolEx<NEffectUpdateDecorator::CTextureAnimationRandomDecorator>::`RTTI Class Hierarchy Descriptor'
	DD	00H
	DD	01H
	DD	FLAT:??_R2?$CDynamicPoolEx@VCTextureAnimationRandomDecorator@NEffectUpdateDecorator@@@@8
rdata$r	ENDS
;	COMDAT ??_R0?AV?$CDynamicPoolEx@VCTextureAnimationRandomDecorator@NEffectUpdateDecorator@@@@@8
data$r	SEGMENT
??_R0?AV?$CDynamicPoolEx@VCTextureAnimationRandomDecorator@NEffectUpdateDecorator@@@@@8 DD FLAT:??_7type_info@@6B@ ; CDynamicPoolEx<NEffectUpdateDecorator::CTextureAnimationRandomDecorator> `RTTI Type Descriptor'
	DD	00H
	DB	'.?AV?$CDynamicPoolEx@VCTextureAnimationRandomDecorator@N'
	DB	'EffectUpdateDecorator@@@@', 00H
data$r	ENDS
;	COMDAT ??_R4?$CDynamicPoolEx@VCTextureAnimationRandomDecorator@NEffectUpdateDecorator@@@@6B@
rdata$r	SEGMENT
??_R4?$CDynamicPoolEx@VCTextureAnimationRandomDecorator@NEffectUpdateDecorator@@@@6B@ DD 00H ; CDynamicPoolEx<NEffectUpdateDecorator::CTextureAnimationRandomDecorator>::`RTTI Complete Object Locator'
	DD	00H
	DD	00H
	DD	FLAT:??_R0?AV?$CDynamicPoolEx@VCTextureAnimationRandomDecorator@NEffectUpdateDecorator@@@@@8
	DD	FLAT:??_R3?$CDynamicPoolEx@VCTextureAnimationRandomDecorator@NEffectUpdateDecorator@@@@8
rdata$r	ENDS
;	COMDAT ??_R1A@?0A@EA@?$CDynamicPoolEx@VCTextureAnimationCCWDecorator@NEffectUpdateDecorator@@@@8
rdata$r	SEGMENT
??_R1A@?0A@EA@?$CDynamicPoolEx@VCTextureAnimationCCWDecorator@NEffectUpdateDecorator@@@@8 DD FLAT:??_R0?AV?$CDynamicPoolEx@VCTextureAnimationCCWDecorator@NEffectUpdateDecorator@@@@@8 ; CDynamicPoolEx<NEffectUpdateDecorator::CTextureAnimationCCWDecorator>::`RTTI Base Class Descriptor at (0,-1,0,64)'
	DD	00H
	DD	00H
	DD	0ffffffffH
	DD	00H
	DD	040H
	DD	FLAT:??_R3?$CDynamicPoolEx@VCTextureAnimationCCWDecorator@NEffectUpdateDecorator@@@@8
rdata$r	ENDS
;	COMDAT ??_R2?$CDynamicPoolEx@VCTextureAnimationCCWDecorator@NEffectUpdateDecorator@@@@8
rdata$r	SEGMENT
??_R2?$CDynamicPoolEx@VCTextureAnimationCCWDecorator@NEffectUpdateDecorator@@@@8 DD FLAT:??_R1A@?0A@EA@?$CDynamicPoolEx@VCTextureAnimationCCWDecorator@NEffectUpdateDecorator@@@@8 ; CDynamicPoolEx<NEffectUpdateDecorator::CTextureAnimationCCWDecorator>::`RTTI Base Class Array'
rdata$r	ENDS
;	COMDAT ??_R3?$CDynamicPoolEx@VCTextureAnimationCCWDecorator@NEffectUpdateDecorator@@@@8
rdata$r	SEGMENT
??_R3?$CDynamicPoolEx@VCTextureAnimationCCWDecorator@NEffectUpdateDecorator@@@@8 DD 00H ; CDynamicPoolEx<NEffectUpdateDecorator::CTextureAnimationCCWDecorator>::`RTTI Class Hierarchy Descriptor'
	DD	00H
	DD	01H
	DD	FLAT:??_R2?$CDynamicPoolEx@VCTextureAnimationCCWDecorator@NEffectUpdateDecorator@@@@8
rdata$r	ENDS
;	COMDAT ??_R0?AV?$CDynamicPoolEx@VCTextureAnimationCCWDecorator@NEffectUpdateDecorator@@@@@8
data$r	SEGMENT
??_R0?AV?$CDynamicPoolEx@VCTextureAnimationCCWDecorator@NEffectUpdateDecorator@@@@@8 DD FLAT:??_7type_info@@6B@ ; CDynamicPoolEx<NEffectUpdateDecorator::CTextureAnimationCCWDecorator> `RTTI Type Descriptor'
	DD	00H
	DB	'.?AV?$CDynamicPoolEx@VCTextureAnimationCCWDecorator@NEff'
	DB	'ectUpdateDecorator@@@@', 00H
data$r	ENDS
;	COMDAT ??_R4?$CDynamicPoolEx@VCTextureAnimationCCWDecorator@NEffectUpdateDecorator@@@@6B@
rdata$r	SEGMENT
??_R4?$CDynamicPoolEx@VCTextureAnimationCCWDecorator@NEffectUpdateDecorator@@@@6B@ DD 00H ; CDynamicPoolEx<NEffectUpdateDecorator::CTextureAnimationCCWDecorator>::`RTTI Complete Object Locator'
	DD	00H
	DD	00H
	DD	FLAT:??_R0?AV?$CDynamicPoolEx@VCTextureAnimationCCWDecorator@NEffectUpdateDecorator@@@@@8
	DD	FLAT:??_R3?$CDynamicPoolEx@VCTextureAnimationCCWDecorator@NEffectUpdateDecorator@@@@8
rdata$r	ENDS
;	COMDAT ??_R1A@?0A@EA@?$CDynamicPoolEx@VCTextureAnimationCWDecorator@NEffectUpdateDecorator@@@@8
rdata$r	SEGMENT
??_R1A@?0A@EA@?$CDynamicPoolEx@VCTextureAnimationCWDecorator@NEffectUpdateDecorator@@@@8 DD FLAT:??_R0?AV?$CDynamicPoolEx@VCTextureAnimationCWDecorator@NEffectUpdateDecorator@@@@@8 ; CDynamicPoolEx<NEffectUpdateDecorator::CTextureAnimationCWDecorator>::`RTTI Base Class Descriptor at (0,-1,0,64)'
	DD	00H
	DD	00H
	DD	0ffffffffH
	DD	00H
	DD	040H
	DD	FLAT:??_R3?$CDynamicPoolEx@VCTextureAnimationCWDecorator@NEffectUpdateDecorator@@@@8
rdata$r	ENDS
;	COMDAT ??_R2?$CDynamicPoolEx@VCTextureAnimationCWDecorator@NEffectUpdateDecorator@@@@8
rdata$r	SEGMENT
??_R2?$CDynamicPoolEx@VCTextureAnimationCWDecorator@NEffectUpdateDecorator@@@@8 DD FLAT:??_R1A@?0A@EA@?$CDynamicPoolEx@VCTextureAnimationCWDecorator@NEffectUpdateDecorator@@@@8 ; CDynamicPoolEx<NEffectUpdateDecorator::CTextureAnimationCWDecorator>::`RTTI Base Class Array'
rdata$r	ENDS
;	COMDAT ??_R3?$CDynamicPoolEx@VCTextureAnimationCWDecorator@NEffectUpdateDecorator@@@@8
rdata$r	SEGMENT
??_R3?$CDynamicPoolEx@VCTextureAnimationCWDecorator@NEffectUpdateDecorator@@@@8 DD 00H ; CDynamicPoolEx<NEffectUpdateDecorator::CTextureAnimationCWDecorator>::`RTTI Class Hierarchy Descriptor'
	DD	00H
	DD	01H
	DD	FLAT:??_R2?$CDynamicPoolEx@VCTextureAnimationCWDecorator@NEffectUpdateDecorator@@@@8
rdata$r	ENDS
;	COMDAT ??_R0?AV?$CDynamicPoolEx@VCTextureAnimationCWDecorator@NEffectUpdateDecorator@@@@@8
data$r	SEGMENT
??_R0?AV?$CDynamicPoolEx@VCTextureAnimationCWDecorator@NEffectUpdateDecorator@@@@@8 DD FLAT:??_7type_info@@6B@ ; CDynamicPoolEx<NEffectUpdateDecorator::CTextureAnimationCWDecorator> `RTTI Type Descriptor'
	DD	00H
	DB	'.?AV?$CDynamicPoolEx@VCTextureAnimationCWDecorator@NEffe'
	DB	'ctUpdateDecorator@@@@', 00H
data$r	ENDS
;	COMDAT ??_R4?$CDynamicPoolEx@VCTextureAnimationCWDecorator@NEffectUpdateDecorator@@@@6B@
rdata$r	SEGMENT
??_R4?$CDynamicPoolEx@VCTextureAnimationCWDecorator@NEffectUpdateDecorator@@@@6B@ DD 00H ; CDynamicPoolEx<NEffectUpdateDecorator::CTextureAnimationCWDecorator>::`RTTI Complete Object Locator'
	DD	00H
	DD	00H
	DD	FLAT:??_R0?AV?$CDynamicPoolEx@VCTextureAnimationCWDecorator@NEffectUpdateDecorator@@@@@8
	DD	FLAT:??_R3?$CDynamicPoolEx@VCTextureAnimationCWDecorator@NEffectUpdateDecorator@@@@8
rdata$r	ENDS
;	COMDAT ??_R1A@?0A@EA@?$CDynamicPoolEx@VCNullDecorator@NEffectUpdateDecorator@@@@8
rdata$r	SEGMENT
??_R1A@?0A@EA@?$CDynamicPoolEx@VCNullDecorator@NEffectUpdateDecorator@@@@8 DD FLAT:??_R0?AV?$CDynamicPoolEx@VCNullDecorator@NEffectUpdateDecorator@@@@@8 ; CDynamicPoolEx<NEffectUpdateDecorator::CNullDecorator>::`RTTI Base Class Descriptor at (0,-1,0,64)'
	DD	00H
	DD	00H
	DD	0ffffffffH
	DD	00H
	DD	040H
	DD	FLAT:??_R3?$CDynamicPoolEx@VCNullDecorator@NEffectUpdateDecorator@@@@8
rdata$r	ENDS
;	COMDAT ??_R2?$CDynamicPoolEx@VCNullDecorator@NEffectUpdateDecorator@@@@8
rdata$r	SEGMENT
??_R2?$CDynamicPoolEx@VCNullDecorator@NEffectUpdateDecorator@@@@8 DD FLAT:??_R1A@?0A@EA@?$CDynamicPoolEx@VCNullDecorator@NEffectUpdateDecorator@@@@8 ; CDynamicPoolEx<NEffectUpdateDecorator::CNullDecorator>::`RTTI Base Class Array'
rdata$r	ENDS
;	COMDAT ??_R3?$CDynamicPoolEx@VCNullDecorator@NEffectUpdateDecorator@@@@8
rdata$r	SEGMENT
??_R3?$CDynamicPoolEx@VCNullDecorator@NEffectUpdateDecorator@@@@8 DD 00H ; CDynamicPoolEx<NEffectUpdateDecorator::CNullDecorator>::`RTTI Class Hierarchy Descriptor'
	DD	00H
	DD	01H
	DD	FLAT:??_R2?$CDynamicPoolEx@VCNullDecorator@NEffectUpdateDecorator@@@@8
rdata$r	ENDS
;	COMDAT ??_R0?AV?$CDynamicPoolEx@VCNullDecorator@NEffectUpdateDecorator@@@@@8
data$r	SEGMENT
??_R0?AV?$CDynamicPoolEx@VCNullDecorator@NEffectUpdateDecorator@@@@@8 DD FLAT:??_7type_info@@6B@ ; CDynamicPoolEx<NEffectUpdateDecorator::CNullDecorator> `RTTI Type Descriptor'
	DD	00H
	DB	'.?AV?$CDynamicPoolEx@VCNullDecorator@NEffectUpdateDecora'
	DB	'tor@@@@', 00H
data$r	ENDS
;	COMDAT ??_R4?$CDynamicPoolEx@VCNullDecorator@NEffectUpdateDecorator@@@@6B@
rdata$r	SEGMENT
??_R4?$CDynamicPoolEx@VCNullDecorator@NEffectUpdateDecorator@@@@6B@ DD 00H ; CDynamicPoolEx<NEffectUpdateDecorator::CNullDecorator>::`RTTI Complete Object Locator'
	DD	00H
	DD	00H
	DD	FLAT:??_R0?AV?$CDynamicPoolEx@VCNullDecorator@NEffectUpdateDecorator@@@@@8
	DD	FLAT:??_R3?$CDynamicPoolEx@VCNullDecorator@NEffectUpdateDecorator@@@@8
rdata$r	ENDS
;	COMDAT ??_R1A@?0A@EA@?$CDynamicPoolEx@VCHeaderDecorator@NEffectUpdateDecorator@@@@8
rdata$r	SEGMENT
??_R1A@?0A@EA@?$CDynamicPoolEx@VCHeaderDecorator@NEffectUpdateDecorator@@@@8 DD FLAT:??_R0?AV?$CDynamicPoolEx@VCHeaderDecorator@NEffectUpdateDecorator@@@@@8 ; CDynamicPoolEx<NEffectUpdateDecorator::CHeaderDecorator>::`RTTI Base Class Descriptor at (0,-1,0,64)'
	DD	00H
	DD	00H
	DD	0ffffffffH
	DD	00H
	DD	040H
	DD	FLAT:??_R3?$CDynamicPoolEx@VCHeaderDecorator@NEffectUpdateDecorator@@@@8
rdata$r	ENDS
;	COMDAT ??_R2?$CDynamicPoolEx@VCHeaderDecorator@NEffectUpdateDecorator@@@@8
rdata$r	SEGMENT
??_R2?$CDynamicPoolEx@VCHeaderDecorator@NEffectUpdateDecorator@@@@8 DD FLAT:??_R1A@?0A@EA@?$CDynamicPoolEx@VCHeaderDecorator@NEffectUpdateDecorator@@@@8 ; CDynamicPoolEx<NEffectUpdateDecorator::CHeaderDecorator>::`RTTI Base Class Array'
rdata$r	ENDS
;	COMDAT ??_R3?$CDynamicPoolEx@VCHeaderDecorator@NEffectUpdateDecorator@@@@8
rdata$r	SEGMENT
??_R3?$CDynamicPoolEx@VCHeaderDecorator@NEffectUpdateDecorator@@@@8 DD 00H ; CDynamicPoolEx<NEffectUpdateDecorator::CHeaderDecorator>::`RTTI Class Hierarchy Descriptor'
	DD	00H
	DD	01H
	DD	FLAT:??_R2?$CDynamicPoolEx@VCHeaderDecorator@NEffectUpdateDecorator@@@@8
rdata$r	ENDS
;	COMDAT ??_R0?AV?$CDynamicPoolEx@VCHeaderDecorator@NEffectUpdateDecorator@@@@@8
data$r	SEGMENT
??_R0?AV?$CDynamicPoolEx@VCHeaderDecorator@NEffectUpdateDecorator@@@@@8 DD FLAT:??_7type_info@@6B@ ; CDynamicPoolEx<NEffectUpdateDecorator::CHeaderDecorator> `RTTI Type Descriptor'
	DD	00H
	DB	'.?AV?$CDynamicPoolEx@VCHeaderDecorator@NEffectUpdateDeco'
	DB	'rator@@@@', 00H
data$r	ENDS
;	COMDAT ??_R4?$CDynamicPoolEx@VCHeaderDecorator@NEffectUpdateDecorator@@@@6B@
rdata$r	SEGMENT
??_R4?$CDynamicPoolEx@VCHeaderDecorator@NEffectUpdateDecorator@@@@6B@ DD 00H ; CDynamicPoolEx<NEffectUpdateDecorator::CHeaderDecorator>::`RTTI Complete Object Locator'
	DD	00H
	DD	00H
	DD	FLAT:??_R0?AV?$CDynamicPoolEx@VCHeaderDecorator@NEffectUpdateDecorator@@@@@8
	DD	FLAT:??_R3?$CDynamicPoolEx@VCHeaderDecorator@NEffectUpdateDecorator@@@@8
rdata$r	ENDS
;	COMDAT ??_7?$CDynamicPoolEx@VCTextureAnimationCWDecorator@NEffectUpdateDecorator@@@@6B@
CONST	SEGMENT
??_7?$CDynamicPoolEx@VCTextureAnimationCWDecorator@NEffectUpdateDecorator@@@@6B@ DD FLAT:??_R4?$CDynamicPoolEx@VCTextureAnimationCWDecorator@NEffectUpdateDecorator@@@@6B@ ; CDynamicPoolEx<NEffectUpdateDecorator::CTextureAnimationCWDecorator>::`vftable'
	DD	FLAT:??_E?$CDynamicPoolEx@VCTextureAnimationCWDecorator@NEffectUpdateDecorator@@@@UAEPAXI@Z
CONST	ENDS
;	COMDAT ??_7?$CDynamicPoolEx@VCTextureAnimationCCWDecorator@NEffectUpdateDecorator@@@@6B@
CONST	SEGMENT
??_7?$CDynamicPoolEx@VCTextureAnimationCCWDecorator@NEffectUpdateDecorator@@@@6B@ DD FLAT:??_R4?$CDynamicPoolEx@VCTextureAnimationCCWDecorator@NEffectUpdateDecorator@@@@6B@ ; CDynamicPoolEx<NEffectUpdateDecorator::CTextureAnimationCCWDecorator>::`vftable'
	DD	FLAT:??_E?$CDynamicPoolEx@VCTextureAnimationCCWDecorator@NEffectUpdateDecorator@@@@UAEPAXI@Z
CONST	ENDS
;	COMDAT ??_7?$CDynamicPoolEx@VCTextureAnimationRandomDecorator@NEffectUpdateDecorator@@@@6B@
CONST	SEGMENT
??_7?$CDynamicPoolEx@VCTextureAnimationRandomDecorator@NEffectUpdateDecorator@@@@6B@ DD FLAT:??_R4?$CDynamicPoolEx@VCTextureAnimationRandomDecorator@NEffectUpdateDecorator@@@@6B@ ; CDynamicPoolEx<NEffectUpdateDecorator::CTextureAnimationRandomDecorator>::`vftable'
	DD	FLAT:??_E?$CDynamicPoolEx@VCTextureAnimationRandomDecorator@NEffectUpdateDecorator@@@@UAEPAXI@Z
CONST	ENDS
;	COMDAT ??_7?$CDynamicPoolEx@VCAirResistanceDecorator@NEffectUpdateDecorator@@@@6B@
CONST	SEGMENT
??_7?$CDynamicPoolEx@VCAirResistanceDecorator@NEffectUpdateDecorator@@@@6B@ DD FLAT:??_R4?$CDynamicPoolEx@VCAirResistanceDecorator@NEffectUpdateDecorator@@@@6B@ ; CDynamicPoolEx<NEffectUpdateDecorator::CAirResistanceDecorator>::`vftable'
	DD	FLAT:??_E?$CDynamicPoolEx@VCAirResistanceDecorator@NEffectUpdateDecorator@@@@UAEPAXI@Z
CONST	ENDS
;	COMDAT ??_7?$CDynamicPoolEx@VCGravityDecorator@NEffectUpdateDecorator@@@@6B@
CONST	SEGMENT
??_7?$CDynamicPoolEx@VCGravityDecorator@NEffectUpdateDecorator@@@@6B@ DD FLAT:??_R4?$CDynamicPoolEx@VCGravityDecorator@NEffectUpdateDecorator@@@@6B@ ; CDynamicPoolEx<NEffectUpdateDecorator::CGravityDecorator>::`vftable'
	DD	FLAT:??_E?$CDynamicPoolEx@VCGravityDecorator@NEffectUpdateDecorator@@@@UAEPAXI@Z
CONST	ENDS
;	COMDAT ??_7?$CDynamicPoolEx@VCRotationDecorator@NEffectUpdateDecorator@@@@6B@
CONST	SEGMENT
??_7?$CDynamicPoolEx@VCRotationDecorator@NEffectUpdateDecorator@@@@6B@ DD FLAT:??_R4?$CDynamicPoolEx@VCRotationDecorator@NEffectUpdateDecorator@@@@6B@ ; CDynamicPoolEx<NEffectUpdateDecorator::CRotationDecorator>::`vftable'
	DD	FLAT:??_E?$CDynamicPoolEx@VCRotationDecorator@NEffectUpdateDecorator@@@@UAEPAXI@Z
CONST	ENDS
;	COMDAT ??_7?$CDynamicPoolEx@VCHeaderDecorator@NEffectUpdateDecorator@@@@6B@
CONST	SEGMENT
??_7?$CDynamicPoolEx@VCHeaderDecorator@NEffectUpdateDecorator@@@@6B@ DD FLAT:??_R4?$CDynamicPoolEx@VCHeaderDecorator@NEffectUpdateDecorator@@@@6B@ ; CDynamicPoolEx<NEffectUpdateDecorator::CHeaderDecorator>::`vftable'
	DD	FLAT:??_E?$CDynamicPoolEx@VCHeaderDecorator@NEffectUpdateDecorator@@@@UAEPAXI@Z
CONST	ENDS
PUBLIC	??_H@YGXPAXIIP6EPAX0@Z@Z			; `vector constructor iterator'
PUBLIC	?__empty_global_delete@@YAXPAX@Z		; __empty_global_delete
PUBLIC	?__empty_global_delete@@YAXPAXI@Z		; __empty_global_delete
PUBLIC	___local_stdio_printf_options
PUBLIC	__snprintf
PUBLIC	??0exception@std@@QAE@ABV01@@Z			; std::exception::exception
PUBLIC	??1exception@std@@UAE@XZ			; std::exception::~exception
PUBLIC	?what@exception@std@@UBEPBDXZ			; std::exception::what
PUBLIC	??_Gexception@std@@UAEPAXI@Z			; std::exception::`scalar deleting destructor'
PUBLIC	??0bad_alloc@std@@QAE@ABV01@@Z			; std::bad_alloc::bad_alloc
PUBLIC	??_Gbad_alloc@std@@UAEPAXI@Z			; std::bad_alloc::`scalar deleting destructor'
PUBLIC	??0bad_array_new_length@std@@QAE@XZ		; std::bad_array_new_length::bad_array_new_length
PUBLIC	??1bad_array_new_length@std@@UAE@XZ		; std::bad_array_new_length::~bad_array_new_length
PUBLIC	??0bad_array_new_length@std@@QAE@ABV01@@Z	; std::bad_array_new_length::bad_array_new_length
PUBLIC	??_Gbad_array_new_length@std@@UAEPAXI@Z		; std::bad_array_new_length::`scalar deleting destructor'
PUBLIC	?_Throw_bad_array_new_length@std@@YAXXZ		; std::_Throw_bad_array_new_length
PUBLIC	?_Xlen_string@std@@YAXXZ			; std::_Xlen_string
PUBLIC	?_Xran@?$_String_val@U?$_Simple_types@D@std@@@std@@SAXXZ ; std::_String_val<std::_Simple_types<char> >::_Xran
PUBLIC	??1?$basic_string@DU?$char_traits@D@std@@V?$allocator@D@2@@std@@QAE@XZ ; std::basic_string<char,std::char_traits<char>,std::allocator<char> >::~basic_string<char,std::char_traits<char>,std::allocator<char> >
PUBLIC	?assign@?$basic_string@DU?$char_traits@D@std@@V?$allocator@D@2@@std@@QAEAAV12@QBDI@Z ; std::basic_string<char,std::char_traits<char>,std::allocator<char> >::assign
PUBLIC	??$?HDU?$char_traits@D@std@@V?$allocator@D@1@@std@@YA?AV?$basic_string@DU?$char_traits@D@std@@V?$allocator@D@2@@0@ABV10@0@Z ; std::operator+<char,std::char_traits<char>,std::allocator<char> >
PUBLIC	?_Xrange@?$vector@V?$basic_string@DU?$char_traits@D@std@@V?$allocator@D@2@@std@@V?$allocator@V?$basic_string@DU?$char_traits@D@std@@V?$allocator@D@2@@std@@@2@@std@@CAXXZ ; std::vector<std::basic_string<char,std::char_traits<char>,std::allocator<char> >,std::allocator<std::basic_string<char,std::char_traits<char>,std::allocator<char> > > >::_Xrange
PUBLIC	??$_Destroy_in_place@PAD@std@@YAXAAPAD@Z	; std::_Destroy_in_place<char *>
PUBLIC	??$_Construct_in_place@PADABQAD@std@@YAXAAPADABQAD@Z ; std::_Construct_in_place<char *,char * const &>
PUBLIC	??$_Deallocate@$07$0A@@std@@YAXPAXI@Z		; std::_Deallocate<8,0>
PUBLIC	??$_Allocate@$07U_Default_allocate_traits@std@@$0A@@std@@YAPAXI@Z ; std::_Allocate<8,std::_Default_allocate_traits,0>
PUBLIC	??$_Allocate_manually_vector_aligned@U_Default_allocate_traits@std@@@std@@YAPAXI@Z ; std::_Allocate_manually_vector_aligned<std::_Default_allocate_traits>
PUBLIC	?LoadRaceData@CRaceData@@QAEHPBD@Z		; CRaceData::LoadRaceData
PUBLIC	??1?$CDynamicPoolEx@VCRotationDecorator@NEffectUpdateDecorator@@@@UAE@XZ ; CDynamicPoolEx<NEffectUpdateDecorator::CRotationDecorator>::~CDynamicPoolEx<NEffectUpdateDecorator::CRotationDecorator>
PUBLIC	?Delete@?$CDynamicPoolEx@VCRotationDecorator@NEffectUpdateDecorator@@@@KAXPAVCRotationDecorator@NEffectUpdateDecorator@@@Z ; CDynamicPoolEx<NEffectUpdateDecorator::CRotationDecorator>::Delete
PUBLIC	??1?$CDynamicPoolEx@VCGravityDecorator@NEffectUpdateDecorator@@@@UAE@XZ ; CDynamicPoolEx<NEffectUpdateDecorator::CGravityDecorator>::~CDynamicPoolEx<NEffectUpdateDecorator::CGravityDecorator>
PUBLIC	?Delete@?$CDynamicPoolEx@VCGravityDecorator@NEffectUpdateDecorator@@@@KAXPAVCGravityDecorator@NEffectUpdateDecorator@@@Z ; CDynamicPoolEx<NEffectUpdateDecorator::CGravityDecorator>::Delete
PUBLIC	??1?$CDynamicPoolEx@VCAirResistanceDecorator@NEffectUpdateDecorator@@@@UAE@XZ ; CDynamicPoolEx<NEffectUpdateDecorator::CAirResistanceDecorator>::~CDynamicPoolEx<NEffectUpdateDecorator::CAirResistanceDecorator>
PUBLIC	?Delete@?$CDynamicPoolEx@VCAirResistanceDecorator@NEffectUpdateDecorator@@@@KAXPAVCAirResistanceDecorator@NEffectUpdateDecorator@@@Z ; CDynamicPoolEx<NEffectUpdateDecorator::CAirResistanceDecorator>::Delete
PUBLIC	??1?$CDynamicPoolEx@VCTextureAnimationRandomDecorator@NEffectUpdateDecorator@@@@UAE@XZ ; CDynamicPoolEx<NEffectUpdateDecorator::CTextureAnimationRandomDecorator>::~CDynamicPoolEx<NEffectUpdateDecorator::CTextureAnimationRandomDecorator>
PUBLIC	?Delete@?$CDynamicPoolEx@VCTextureAnimationRandomDecorator@NEffectUpdateDecorator@@@@KAXPAVCTextureAnimationRandomDecorator@NEffectUpdateDecorator@@@Z ; CDynamicPoolEx<NEffectUpdateDecorator::CTextureAnimationRandomDecorator>::Delete
PUBLIC	??1?$CDynamicPoolEx@VCTextureAnimationCCWDecorator@NEffectUpdateDecorator@@@@UAE@XZ ; CDynamicPoolEx<NEffectUpdateDecorator::CTextureAnimationCCWDecorator>::~CDynamicPoolEx<NEffectUpdateDecorator::CTextureAnimationCCWDecorator>
PUBLIC	?Delete@?$CDynamicPoolEx@VCTextureAnimationCCWDecorator@NEffectUpdateDecorator@@@@KAXPAVCTextureAnimationCCWDecorator@NEffectUpdateDecorator@@@Z ; CDynamicPoolEx<NEffectUpdateDecorator::CTextureAnimationCCWDecorator>::Delete
PUBLIC	??1?$CDynamicPoolEx@VCTextureAnimationCWDecorator@NEffectUpdateDecorator@@@@UAE@XZ ; CDynamicPoolEx<NEffectUpdateDecorator::CTextureAnimationCWDecorator>::~CDynamicPoolEx<NEffectUpdateDecorator::CTextureAnimationCWDecorator>
PUBLIC	?Delete@?$CDynamicPoolEx@VCTextureAnimationCWDecorator@NEffectUpdateDecorator@@@@KAXPAVCTextureAnimationCWDecorator@NEffectUpdateDecorator@@@Z ; CDynamicPoolEx<NEffectUpdateDecorator::CTextureAnimationCWDecorator>::Delete
PUBLIC	??1?$CDynamicPoolEx@VCNullDecorator@NEffectUpdateDecorator@@@@UAE@XZ ; CDynamicPoolEx<NEffectUpdateDecorator::CNullDecorator>::~CDynamicPoolEx<NEffectUpdateDecorator::CNullDecorator>
PUBLIC	?Delete@?$CDynamicPoolEx@VCNullDecorator@NEffectUpdateDecorator@@@@KAXPAVCNullDecorator@NEffectUpdateDecorator@@@Z ; CDynamicPoolEx<NEffectUpdateDecorator::CNullDecorator>::Delete
PUBLIC	??1?$CDynamicPoolEx@VCHeaderDecorator@NEffectUpdateDecorator@@@@UAE@XZ ; CDynamicPoolEx<NEffectUpdateDecorator::CHeaderDecorator>::~CDynamicPoolEx<NEffectUpdateDecorator::CHeaderDecorator>
PUBLIC	?Delete@?$CDynamicPoolEx@VCHeaderDecorator@NEffectUpdateDecorator@@@@KAXPAVCHeaderDecorator@NEffectUpdateDecorator@@@Z ; CDynamicPoolEx<NEffectUpdateDecorator::CHeaderDecorator>::Delete
PUBLIC	??$_Destroy_range@V?$allocator@PAVCHeaderDecorator@NEffectUpdateDecorator@@@std@@@std@@YAXPAPAVCHeaderDecorator@NEffectUpdateDecorator@@QAPAV12@AAV?$allocator@PAVCHeaderDecorator@NEffectUpdateDecorator@@@0@@Z ; std::_Destroy_range<std::allocator<NEffectUpdateDecorator::CHeaderDecorator *> >
PUBLIC	??$_Destroy_range@V?$allocator@PAVCNullDecorator@NEffectUpdateDecorator@@@std@@@std@@YAXPAPAVCNullDecorator@NEffectUpdateDecorator@@QAPAV12@AAV?$allocator@PAVCNullDecorator@NEffectUpdateDecorator@@@0@@Z ; std::_Destroy_range<std::allocator<NEffectUpdateDecorator::CNullDecorator *> >
PUBLIC	??$_Destroy_range@V?$allocator@PAVCTextureAnimationCWDecorator@NEffectUpdateDecorator@@@std@@@std@@YAXPAPAVCTextureAnimationCWDecorator@NEffectUpdateDecorator@@QAPAV12@AAV?$allocator@PAVCTextureAnimationCWDecorator@NEffectUpdateDecorator@@@0@@Z ; std::_Destroy_range<std::allocator<NEffectUpdateDecorator::CTextureAnimationCWDecorator *> >
PUBLIC	??$_Destroy_range@V?$allocator@PAVCTextureAnimationCCWDecorator@NEffectUpdateDecorator@@@std@@@std@@YAXPAPAVCTextureAnimationCCWDecorator@NEffectUpdateDecorator@@QAPAV12@AAV?$allocator@PAVCTextureAnimationCCWDecorator@NEffectUpdateDecorator@@@0@@Z ; std::_Destroy_range<std::allocator<NEffectUpdateDecorator::CTextureAnimationCCWDecorator *> >
PUBLIC	??$_Destroy_range@V?$allocator@PAVCTextureAnimationRandomDecorator@NEffectUpdateDecorator@@@std@@@std@@YAXPAPAVCTextureAnimationRandomDecorator@NEffectUpdateDecorator@@QAPAV12@AAV?$allocator@PAVCTextureAnimationRandomDecorator@NEffectUpdateDecorator@@@0@@Z ; std::_Destroy_range<std::allocator<NEffectUpdateDecorator::CTextureAnimationRandomDecorator *> >
PUBLIC	??$_Destroy_range@V?$allocator@PAVCAirResistanceDecorator@NEffectUpdateDecorator@@@std@@@std@@YAXPAPAVCAirResistanceDecorator@NEffectUpdateDecorator@@QAPAV12@AAV?$allocator@PAVCAirResistanceDecorator@NEffectUpdateDecorator@@@0@@Z ; std::_Destroy_range<std::allocator<NEffectUpdateDecorator::CAirResistanceDecorator *> >
PUBLIC	??$_Destroy_range@V?$allocator@PAVCGravityDecorator@NEffectUpdateDecorator@@@std@@@std@@YAXPAPAVCGravityDecorator@NEffectUpdateDecorator@@QAPAV12@AAV?$allocator@PAVCGravityDecorator@NEffectUpdateDecorator@@@0@@Z ; std::_Destroy_range<std::allocator<NEffectUpdateDecorator::CGravityDecorator *> >
PUBLIC	??$_Destroy_range@V?$allocator@PAVCRotationDecorator@NEffectUpdateDecorator@@@std@@@std@@YAXPAPAVCRotationDecorator@NEffectUpdateDecorator@@QAPAV12@AAV?$allocator@PAVCRotationDecorator@NEffectUpdateDecorator@@@0@@Z ; std::_Destroy_range<std::allocator<NEffectUpdateDecorator::CRotationDecorator *> >
PUBLIC	?_OptionsStorage@?1??__local_stdio_printf_options@@9@4_KA ; `__local_stdio_printf_options'::`2'::_OptionsStorage
PUBLIC	??_7exception@std@@6B@				; std::exception::`vftable'
PUBLIC	??_C@_0BC@EOODALEL@Unknown?5exception@		; `string'
PUBLIC	??_7bad_alloc@std@@6B@				; std::bad_alloc::`vftable'
PUBLIC	??_7bad_array_new_length@std@@6B@		; std::bad_array_new_length::`vftable'
PUBLIC	??_C@_0BF@KINCDENJ@bad?5array?5new?5length@	; `string'
PUBLIC	__TI3?AVbad_array_new_length@std@@
PUBLIC	__CTA3?AVbad_array_new_length@std@@
PUBLIC	??_R0?AVbad_array_new_length@std@@@8		; std::bad_array_new_length `RTTI Type Descriptor'
PUBLIC	__CT??_R0?AVbad_array_new_length@std@@@8??0bad_array_new_length@std@@QAE@ABV01@@Z12
PUBLIC	??_R0?AVbad_alloc@std@@@8			; std::bad_alloc `RTTI Type Descriptor'
PUBLIC	__CT??_R0?AVbad_alloc@std@@@8??0bad_alloc@std@@QAE@ABV01@@Z12
PUBLIC	??_R0?AVexception@std@@@8			; std::exception `RTTI Type Descriptor'
PUBLIC	__CT??_R0?AVexception@std@@@8??0exception@std@@QAE@ABV01@@Z12
PUBLIC	??_C@_0BA@JFNIOLAK@string?5too?5long@		; `string'
PUBLIC	??_C@_0BI@CFPLBAOH@invalid?5string?5position@	; `string'
PUBLIC	??_R4exception@std@@6B@				; std::exception::`RTTI Complete Object Locator'
PUBLIC	??_R3exception@std@@8				; std::exception::`RTTI Class Hierarchy Descriptor'
PUBLIC	??_R2exception@std@@8				; std::exception::`RTTI Base Class Array'
PUBLIC	??_R1A@?0A@EA@exception@std@@8			; std::exception::`RTTI Base Class Descriptor at (0,-1,0,64)'
PUBLIC	??_R4bad_alloc@std@@6B@				; std::bad_alloc::`RTTI Complete Object Locator'
PUBLIC	??_R3bad_alloc@std@@8				; std::bad_alloc::`RTTI Class Hierarchy Descriptor'
PUBLIC	??_R2bad_alloc@std@@8				; std::bad_alloc::`RTTI Base Class Array'
PUBLIC	??_R1A@?0A@EA@bad_alloc@std@@8			; std::bad_alloc::`RTTI Base Class Descriptor at (0,-1,0,64)'
PUBLIC	??_R4bad_array_new_length@std@@6B@		; std::bad_array_new_length::`RTTI Complete Object Locator'
PUBLIC	??_R3bad_array_new_length@std@@8		; std::bad_array_new_length::`RTTI Class Hierarchy Descriptor'
PUBLIC	??_R2bad_array_new_length@std@@8		; std::bad_array_new_length::`RTTI Base Class Array'
PUBLIC	??_R1A@?0A@EA@bad_array_new_length@std@@8	; std::bad_array_new_length::`RTTI Base Class Descriptor at (0,-1,0,64)'
PUBLIC	?ms_kPool@?$CPooledObject@VCHeaderDecorator@NEffectUpdateDecorator@@@@1V?$CDynamicPoolEx@VCHeaderDecorator@NEffectUpdateDecorator@@@@A ; CPooledObject<NEffectUpdateDecorator::CHeaderDecorator>::ms_kPool
PUBLIC	?ms_kPool@?$CPooledObject@VCNullDecorator@NEffectUpdateDecorator@@@@1V?$CDynamicPoolEx@VCNullDecorator@NEffectUpdateDecorator@@@@A ; CPooledObject<NEffectUpdateDecorator::CNullDecorator>::ms_kPool
PUBLIC	?ms_kPool@?$CPooledObject@VCTextureAnimationCWDecorator@NEffectUpdateDecorator@@@@1V?$CDynamicPoolEx@VCTextureAnimationCWDecorator@NEffectUpdateDecorator@@@@A ; CPooledObject<NEffectUpdateDecorator::CTextureAnimationCWDecorator>::ms_kPool
PUBLIC	?ms_kPool@?$CPooledObject@VCTextureAnimationCCWDecorator@NEffectUpdateDecorator@@@@1V?$CDynamicPoolEx@VCTextureAnimationCCWDecorator@NEffectUpdateDecorator@@@@A ; CPooledObject<NEffectUpdateDecorator::CTextureAnimationCCWDecorator>::ms_kPool
PUBLIC	?ms_kPool@?$CPooledObject@VCTextureAnimationRandomDecorator@NEffectUpdateDecorator@@@@1V?$CDynamicPoolEx@VCTextureAnimationRandomDecorator@NEffectUpdateDecorator@@@@A ; CPooledObject<NEffectUpdateDecorator::CTextureAnimationRandomDecorator>::ms_kPool
PUBLIC	?ms_kPool@?$CPooledObject@VCAirResistanceDecorator@NEffectUpdateDecorator@@@@1V?$CDynamicPoolEx@VCAirResistanceDecorator@NEffectUpdateDecorator@@@@A ; CPooledObject<NEffectUpdateDecorator::CAirResistanceDecorator>::ms_kPool
PUBLIC	?ms_kPool@?$CPooledObject@VCGravityDecorator@NEffectUpdateDecorator@@@@1V?$CDynamicPoolEx@VCGravityDecorator@NEffectUpdateDecorator@@@@A ; CPooledObject<NEffectUpdateDecorator::CGravityDecorator>::ms_kPool
PUBLIC	?ms_kPool@?$CPooledObject@VCRotationDecorator@NEffectUpdateDecorator@@@@1V?$CDynamicPoolEx@VCRotationDecorator@NEffectUpdateDecorator@@@@A ; CPooledObject<NEffectUpdateDecorator::CRotationDecorator>::ms_kPool
PUBLIC	?ms_singleton@?$CSingleton@VCEffectManager@@@@0PAVCEffectManager@@A ; CSingleton<CEffectManager>::ms_singleton
PUBLIC	??_C@_0BC@NDOIOPFI@basemodelfilename@		; `string'
PUBLIC	??_C@_0N@FNBFCAFH@treefilename@			; `string'
PUBLIC	??_C@_0BC@KCFLFBNM@attributefilename@		; `string'
PUBLIC	??_C@_0O@OKJLKLAI@smokebonename@		; `string'
PUBLIC	??_C@_0BD@HKKNCHKI@motionlistfilename@		; `string'
PUBLIC	??_C@_0O@OGIHOCKK@smokefilename@		; `string'
PUBLIC	??_C@_0CA@DLOGAHGG@SmokeFileName?5ArgCount?$FL?$CFd?$FN?$CF2?$DN?$DN0@ ; `string'
PUBLIC	??_C@_0CI@MHBPKAGN@SmokeFileName?5SmokeNum?$FL?$CFd?$FN?5OUT?5@ ; `string'
PUBLIC	??_C@_0CF@GEINCGMO@CRaceData?3?3RegisterEffect2?$CI?$CFs?$CJ?5@ ; `string'
PUBLIC	??_C@_09IOJGLPMI@shapedata@			; `string'
PUBLIC	??_C@_08PEIJGPHF@pathname@			; `string'
PUBLIC	??_C@_0P@BDBLEP@shapedatacount@			; `string'
PUBLIC	??_C@_0M@GCDLCIFI@specialpath@			; `string'
PUBLIC	??_C@_0L@BLAJFEIP@shapeindex@			; `string'
PUBLIC	??_C@_05NCCFOPHA@model@				; `string'
PUBLIC	??_C@_0M@NFFHMNPF@local_model@			; `string'
PUBLIC	??_C@_0BB@OAFGNDMP@local_sourceskin@		; `string'
PUBLIC	??_C@_0BB@CMMEEAHN@local_targetskin@		; `string'
PUBLIC	??_C@_0L@ILFPKBGB@sourceskin@			; `string'
PUBLIC	??_C@_0L@EHMNDCND@targetskin@			; `string'
PUBLIC	??_C@_0N@LBPJELHP@sourceskin?$CFu@		; `string'
PUBLIC	??_C@_0N@OAMIJCJ@targetskin?$CFu@		; `string'
PUBLIC	??_C@_08HKPOBGLF@hairdata@			; `string'
PUBLIC	??_C@_0O@HCGNHJP@hairdatacount@			; `string'
PUBLIC	??_C@_09DFEJDBKH@hairindex@			; `string'
PUBLIC	??_C@_0O@OPEMPJIC@attachingdata@		; `string'
PUBLIC	??_C@_0BJ@DHFDPMIM@invalid?5vector?5subscript@	; `string'
EXTRN	??2@YAPAXI@Z:PROC				; operator new
EXTRN	??3@YAXPAX@Z:PROC				; operator delete
EXTRN	??3@YAXPAXI@Z:PROC				; operator delete
EXTRN	_atexit:PROC
EXTRN	__invalid_parameter_noinfo_noreturn:PROC
EXTRN	_tolower:PROC
EXTRN	__atoi64:PROC
EXTRN	___stdio_common_vsprintf:PROC
EXTRN	___std_exception_copy:PROC
EXTRN	___std_exception_destroy:PROC
EXTRN	??_Eexception@std@@UAEPAXI@Z:PROC		; std::exception::`vector deleting destructor'
EXTRN	??_Ebad_alloc@std@@UAEPAXI@Z:PROC		; std::bad_alloc::`vector deleting destructor'
EXTRN	??_Ebad_array_new_length@std@@UAEPAXI@Z:PROC	; std::bad_array_new_length::`vector deleting destructor'
EXTRN	?_Xlength_error@std@@YAXPBD@Z:PROC		; std::_Xlength_error
EXTRN	?_Xout_of_range@std@@YAXPBD@Z:PROC		; std::_Xout_of_range
EXTRN	?TraceError@@YAXPBDZZ:PROC			; TraceError
EXTRN	??0CTextFileLoader@@QAE@XZ:PROC			; CTextFileLoader::CTextFileLoader
EXTRN	??1CTextFileLoader@@UAE@XZ:PROC			; CTextFileLoader::~CTextFileLoader
EXTRN	?Load@CTextFileLoader@@QAE_NPBD@Z:PROC		; CTextFileLoader::Load
EXTRN	?SetTop@CTextFileLoader@@QAEXXZ:PROC		; CTextFileLoader::SetTop
EXTRN	?SetChildNode@CTextFileLoader@@QAEHPBD@Z:PROC	; CTextFileLoader::SetChildNode
EXTRN	?SetChildNode@CTextFileLoader@@QAEHABV?$basic_string@DU?$char_traits@D@std@@V?$allocator@D@2@@std@@K@Z:PROC ; CTextFileLoader::SetChildNode
EXTRN	?SetParentNode@CTextFileLoader@@QAEHXZ:PROC	; CTextFileLoader::SetParentNode
EXTRN	?GetTokenVector@CTextFileLoader@@QAEHABV?$basic_string@DU?$char_traits@D@std@@V?$allocator@D@2@@std@@PAPAV?$vector@V?$basic_string@DU?$char_traits@D@std@@V?$allocator@D@2@@std@@V?$allocator@V?$basic_string@DU?$char_traits@D@std@@V?$allocator@D@2@@std@@@2@@3@@Z:PROC ; CTextFileLoader::GetTokenVector
EXTRN	?GetTokenDoubleWord@CTextFileLoader@@QAEHABV?$basic_string@DU?$char_traits@D@std@@V?$allocator@D@2@@std@@PAK@Z:PROC ; CTextFileLoader::GetTokenDoubleWord
EXTRN	?GetTokenString@CTextFileLoader@@QAEHABV?$basic_string@DU?$char_traits@D@std@@V?$allocator@D@2@@std@@PAV23@@Z:PROC ; CTextFileLoader::GetTokenString
EXTRN	?LoadAttachingData@NRaceData@@YAHAAVCTextFileLoader@@PAV?$vector@USAttachingData@NRaceData@@V?$allocator@USAttachingData@NRaceData@@@std@@@std@@@Z:PROC ; NRaceData::LoadAttachingData
EXTRN	?SetShapeModel@CRaceData@@QAEXIPBD@Z:PROC	; CRaceData::SetShapeModel
EXTRN	?AppendShapeSkin@CRaceData@@QAEXIIPBD0@Z:PROC	; CRaceData::AppendShapeSkin
EXTRN	?SetHairSkin@CRaceData@@QAEXIIPBD00@Z:PROC	; CRaceData::SetHairSkin
EXTRN	?RegisterEffect2@CEffectManager@@QAEHPBDPAK_N@Z:PROC ; CEffectManager::RegisterEffect2
EXTRN	@__security_check_cookie@4:PROC
EXTRN	__CxxThrowException@8:PROC
EXTRN	___CxxFrameHandler3:PROC
EXTRN	_memcpy:PROC
EXTRN	_memmove:PROC
EXTRN	___security_cookie:DWORD
;	COMDAT ?_OptionsStorage@?1??__local_stdio_printf_options@@9@4_KA
_BSS	SEGMENT
?_OptionsStorage@?1??__local_stdio_printf_options@@9@4_KA DQ 01H DUP (?) ; `__local_stdio_printf_options'::`2'::_OptionsStorage
_BSS	ENDS
;	COMDAT ?ms_singleton@?$CSingleton@VCEffectManager@@@@0PAVCEffectManager@@A
_BSS	SEGMENT
?ms_singleton@?$CSingleton@VCEffectManager@@@@0PAVCEffectManager@@A DD 01H DUP (?) ; CSingleton<CEffectManager>::ms_singleton
_BSS	ENDS
;	COMDAT ?__szSkin1@?BN@??LoadRaceData@CRaceData@@QAEHPBD@Z@4PADA
_BSS	SEGMENT
?__szSkin1@?BN@??LoadRaceData@CRaceData@@QAEHPBD@Z@4PADA DB 0cH DUP (?) ; `CRaceData::LoadRaceData'::`29'::__szSkin1
_BSS	ENDS
;	COMDAT ?__szSkin2@?BN@??LoadRaceData@CRaceData@@QAEHPBD@Z@4PADA
_BSS	SEGMENT
?__szSkin2@?BN@??LoadRaceData@CRaceData@@QAEHPBD@Z@4PADA DB 0cH DUP (?) ; `CRaceData::LoadRaceData'::`29'::__szSkin2
_BSS	ENDS
;	COMDAT CRT$XCU
CRT$XCU	SEGMENT
??ms_kPool$initializer$@?$CPooledObject@VCHeaderDecorator@NEffectUpdateDecorator@@@@1P6AXXZA@@3P6AXXZA DD FLAT:??__E?ms_kPool@?$CPooledObject@VCHeaderDecorator@NEffectUpdateDecorator@@@@1V?$CDynamicPoolEx@VCHeaderDecorator@NEffectUpdateDecorator@@@@A@@YAXXZ ; ??ms_kPool$initializer$@?$CPooledObject@VCHeaderDecorator@NEffectUpdateDecorator@@@@1P6AXXZA@@3P6AXXZA
CRT$XCU	ENDS
;	COMDAT ??_C@_0BJ@DHFDPMIM@invalid?5vector?5subscript@
CONST	SEGMENT
??_C@_0BJ@DHFDPMIM@invalid?5vector?5subscript@ DB 'invalid vector subscri'
	DB	'pt', 00H					; `string'
CONST	ENDS
;	COMDAT ??_C@_0O@OPEMPJIC@attachingdata@
CONST	SEGMENT
??_C@_0O@OPEMPJIC@attachingdata@ DB 'attachingdata', 00H ; `string'
CONST	ENDS
;	COMDAT ??_C@_09DFEJDBKH@hairindex@
CONST	SEGMENT
??_C@_09DFEJDBKH@hairindex@ DB 'hairindex', 00H		; `string'
CONST	ENDS
;	COMDAT ??_C@_0O@HCGNHJP@hairdatacount@
CONST	SEGMENT
??_C@_0O@HCGNHJP@hairdatacount@ DB 'hairdatacount', 00H	; `string'
CONST	ENDS
;	COMDAT ??_C@_08HKPOBGLF@hairdata@
CONST	SEGMENT
??_C@_08HKPOBGLF@hairdata@ DB 'hairdata', 00H		; `string'
CONST	ENDS
;	COMDAT ??_C@_0N@OAMIJCJ@targetskin?$CFu@
CONST	SEGMENT
??_C@_0N@OAMIJCJ@targetskin?$CFu@ DB 'targetskin%u', 00H ; `string'
CONST	ENDS
;	COMDAT ??_C@_0N@LBPJELHP@sourceskin?$CFu@
CONST	SEGMENT
??_C@_0N@LBPJELHP@sourceskin?$CFu@ DB 'sourceskin%u', 00H ; `string'
CONST	ENDS
;	COMDAT ??_C@_0L@EHMNDCND@targetskin@
CONST	SEGMENT
??_C@_0L@EHMNDCND@targetskin@ DB 'targetskin', 00H	; `string'
CONST	ENDS
;	COMDAT ??_C@_0L@ILFPKBGB@sourceskin@
CONST	SEGMENT
??_C@_0L@ILFPKBGB@sourceskin@ DB 'sourceskin', 00H	; `string'
CONST	ENDS
;	COMDAT ??_C@_0BB@CMMEEAHN@local_targetskin@
CONST	SEGMENT
??_C@_0BB@CMMEEAHN@local_targetskin@ DB 'local_targetskin', 00H ; `string'
CONST	ENDS
;	COMDAT ??_C@_0BB@OAFGNDMP@local_sourceskin@
CONST	SEGMENT
??_C@_0BB@OAFGNDMP@local_sourceskin@ DB 'local_sourceskin', 00H ; `string'
CONST	ENDS
;	COMDAT ??_C@_0M@NFFHMNPF@local_model@
CONST	SEGMENT
??_C@_0M@NFFHMNPF@local_model@ DB 'local_model', 00H	; `string'
CONST	ENDS
;	COMDAT ??_C@_05NCCFOPHA@model@
CONST	SEGMENT
??_C@_05NCCFOPHA@model@ DB 'model', 00H			; `string'
CONST	ENDS
;	COMDAT ??_C@_0L@BLAJFEIP@shapeindex@
CONST	SEGMENT
??_C@_0L@BLAJFEIP@shapeindex@ DB 'shapeindex', 00H	; `string'
CONST	ENDS
;	COMDAT ??_C@_0M@GCDLCIFI@specialpath@
CONST	SEGMENT
??_C@_0M@GCDLCIFI@specialpath@ DB 'specialpath', 00H	; `string'
CONST	ENDS
;	COMDAT ??_C@_0P@BDBLEP@shapedatacount@
CONST	SEGMENT
??_C@_0P@BDBLEP@shapedatacount@ DB 'shapedatacount', 00H ; `string'
CONST	ENDS
;	COMDAT ??_C@_08PEIJGPHF@pathname@
CONST	SEGMENT
??_C@_08PEIJGPHF@pathname@ DB 'pathname', 00H		; `string'
CONST	ENDS
;	COMDAT ??_C@_09IOJGLPMI@shapedata@
CONST	SEGMENT
??_C@_09IOJGLPMI@shapedata@ DB 'shapedata', 00H		; `string'
CONST	ENDS
;	COMDAT ??_C@_0CF@GEINCGMO@CRaceData?3?3RegisterEffect2?$CI?$CFs?$CJ?5@
CONST	SEGMENT
??_C@_0CF@GEINCGMO@CRaceData?3?3RegisterEffect2?$CI?$CFs?$CJ?5@ DB 'CRace'
	DB	'Data::RegisterEffect2(%s) ERROR', 00H	; `string'
CONST	ENDS
;	COMDAT ??_C@_0CI@MHBPKAGN@SmokeFileName?5SmokeNum?$FL?$CFd?$FN?5OUT?5@
CONST	SEGMENT
??_C@_0CI@MHBPKAGN@SmokeFileName?5SmokeNum?$FL?$CFd?$FN?5OUT?5@ DB 'Smoke'
	DB	'FileName SmokeNum[%d] OUT OF RANGE', 00H	; `string'
CONST	ENDS
;	COMDAT ??_C@_0CA@DLOGAHGG@SmokeFileName?5ArgCount?$FL?$CFd?$FN?$CF2?$DN?$DN0@
CONST	SEGMENT
??_C@_0CA@DLOGAHGG@SmokeFileName?5ArgCount?$FL?$CFd?$FN?$CF2?$DN?$DN0@ DB 'S'
	DB	'mokeFileName ArgCount[%d]%2==0', 00H	; `string'
CONST	ENDS
;	COMDAT ??_C@_0O@OGIHOCKK@smokefilename@
CONST	SEGMENT
??_C@_0O@OGIHOCKK@smokefilename@ DB 'smokefilename', 00H ; `string'
CONST	ENDS
;	COMDAT ??_C@_0BD@HKKNCHKI@motionlistfilename@
CONST	SEGMENT
??_C@_0BD@HKKNCHKI@motionlistfilename@ DB 'motionlistfilename', 00H ; `string'
CONST	ENDS
;	COMDAT ??_C@_0O@OKJLKLAI@smokebonename@
CONST	SEGMENT
??_C@_0O@OKJLKLAI@smokebonename@ DB 'smokebonename', 00H ; `string'
CONST	ENDS
;	COMDAT ??_C@_0BC@KCFLFBNM@attributefilename@
CONST	SEGMENT
??_C@_0BC@KCFLFBNM@attributefilename@ DB 'attributefilename', 00H ; `string'
CONST	ENDS
;	COMDAT ??_C@_0N@FNBFCAFH@treefilename@
CONST	SEGMENT
??_C@_0N@FNBFCAFH@treefilename@ DB 'treefilename', 00H	; `string'
CONST	ENDS
;	COMDAT ??_C@_0BC@NDOIOPFI@basemodelfilename@
CONST	SEGMENT
??_C@_0BC@NDOIOPFI@basemodelfilename@ DB 'basemodelfilename', 00H ; `string'
CONST	ENDS
;	COMDAT ?ms_kPool@?$CPooledObject@VCRotationDecorator@NEffectUpdateDecorator@@@@1V?$CDynamicPoolEx@VCRotationDecorator@NEffectUpdateDecorator@@@@A
_DATA	SEGMENT
?ms_kPool@?$CPooledObject@VCRotationDecorator@NEffectUpdateDecorator@@@@1V?$CDynamicPoolEx@VCRotationDecorator@NEffectUpdateDecorator@@@@A DD FLAT:??_7?$CDynamicPoolEx@VCRotationDecorator@NEffectUpdateDecorator@@@@6B@ ; CPooledObject<NEffectUpdateDecorator::CRotationDecorator>::ms_kPool
	DD	00H
	DD	00H
	DD	00H
	DD	00H
	DD	00H
	DD	00H
	DD	00H
	DD	00H
_DATA	ENDS
;	COMDAT ?ms_kPool@?$CPooledObject@VCGravityDecorator@NEffectUpdateDecorator@@@@1V?$CDynamicPoolEx@VCGravityDecorator@NEffectUpdateDecorator@@@@A
_DATA	SEGMENT
?ms_kPool@?$CPooledObject@VCGravityDecorator@NEffectUpdateDecorator@@@@1V?$CDynamicPoolEx@VCGravityDecorator@NEffectUpdateDecorator@@@@A DD FLAT:??_7?$CDynamicPoolEx@VCGravityDecorator@NEffectUpdateDecorator@@@@6B@ ; CPooledObject<NEffectUpdateDecorator::CGravityDecorator>::ms_kPool
	DD	00H
	DD	00H
	DD	00H
	DD	00H
	DD	00H
	DD	00H
	DD	00H
	DD	00H
_DATA	ENDS
;	COMDAT ?ms_kPool@?$CPooledObject@VCAirResistanceDecorator@NEffectUpdateDecorator@@@@1V?$CDynamicPoolEx@VCAirResistanceDecorator@NEffectUpdateDecorator@@@@A
_DATA	SEGMENT
?ms_kPool@?$CPooledObject@VCAirResistanceDecorator@NEffectUpdateDecorator@@@@1V?$CDynamicPoolEx@VCAirResistanceDecorator@NEffectUpdateDecorator@@@@A DD FLAT:??_7?$CDynamicPoolEx@VCAirResistanceDecorator@NEffectUpdateDecorator@@@@6B@ ; CPooledObject<NEffectUpdateDecorator::CAirResistanceDecorator>::ms_kPool
	DD	00H
	DD	00H
	DD	00H
	DD	00H
	DD	00H
	DD	00H
	DD	00H
	DD	00H
_DATA	ENDS
;	COMDAT ?ms_kPool@?$CPooledObject@VCTextureAnimationRandomDecorator@NEffectUpdateDecorator@@@@1V?$CDynamicPoolEx@VCTextureAnimationRandomDecorator@NEffectUpdateDecorator@@@@A
_DATA	SEGMENT
?ms_kPool@?$CPooledObject@VCTextureAnimationRandomDecorator@NEffectUpdateDecorator@@@@1V?$CDynamicPoolEx@VCTextureAnimationRandomDecorator@NEffectUpdateDecorator@@@@A DD FLAT:??_7?$CDynamicPoolEx@VCTextureAnimationRandomDecorator@NEffectUpdateDecorator@@@@6B@ ; CPooledObject<NEffectUpdateDecorator::CTextureAnimationRandomDecorator>::ms_kPool
	DD	00H
	DD	00H
	DD	00H
	DD	00H
	DD	00H
	DD	00H
	DD	00H
	DD	00H
_DATA	ENDS
;	COMDAT ?ms_kPool@?$CPooledObject@VCTextureAnimationCCWDecorator@NEffectUpdateDecorator@@@@1V?$CDynamicPoolEx@VCTextureAnimationCCWDecorator@NEffectUpdateDecorator@@@@A
_DATA	SEGMENT
?ms_kPool@?$CPooledObject@VCTextureAnimationCCWDecorator@NEffectUpdateDecorator@@@@1V?$CDynamicPoolEx@VCTextureAnimationCCWDecorator@NEffectUpdateDecorator@@@@A DD FLAT:??_7?$CDynamicPoolEx@VCTextureAnimationCCWDecorator@NEffectUpdateDecorator@@@@6B@ ; CPooledObject<NEffectUpdateDecorator::CTextureAnimationCCWDecorator>::ms_kPool
	DD	00H
	DD	00H
	DD	00H
	DD	00H
	DD	00H
	DD	00H
	DD	00H
	DD	00H
_DATA	ENDS
;	COMDAT ?ms_kPool@?$CPooledObject@VCTextureAnimationCWDecorator@NEffectUpdateDecorator@@@@1V?$CDynamicPoolEx@VCTextureAnimationCWDecorator@NEffectUpdateDecorator@@@@A
_DATA	SEGMENT
?ms_kPool@?$CPooledObject@VCTextureAnimationCWDecorator@NEffectUpdateDecorator@@@@1V?$CDynamicPoolEx@VCTextureAnimationCWDecorator@NEffectUpdateDecorator@@@@A DD FLAT:??_7?$CDynamicPoolEx@VCTextureAnimationCWDecorator@NEffectUpdateDecorator@@@@6B@ ; CPooledObject<NEffectUpdateDecorator::CTextureAnimationCWDecorator>::ms_kPool
	DD	00H
	DD	00H
	DD	00H
	DD	00H
	DD	00H
	DD	00H
	DD	00H
	DD	00H
_DATA	ENDS
;	COMDAT ?ms_kPool@?$CPooledObject@VCNullDecorator@NEffectUpdateDecorator@@@@1V?$CDynamicPoolEx@VCNullDecorator@NEffectUpdateDecorator@@@@A
_DATA	SEGMENT
?ms_kPool@?$CPooledObject@VCNullDecorator@NEffectUpdateDecorator@@@@1V?$CDynamicPoolEx@VCNullDecorator@NEffectUpdateDecorator@@@@A DD FLAT:??_7?$CDynamicPoolEx@VCNullDecorator@NEffectUpdateDecorator@@@@6B@ ; CPooledObject<NEffectUpdateDecorator::CNullDecorator>::ms_kPool
	DD	00H
	DD	00H
	DD	00H
	DD	00H
	DD	00H
	DD	00H
	DD	00H
	DD	00H
_DATA	ENDS
;	COMDAT ?ms_kPool@?$CPooledObject@VCHeaderDecorator@NEffectUpdateDecorator@@@@1V?$CDynamicPoolEx@VCHeaderDecorator@NEffectUpdateDecorator@@@@A
_DATA	SEGMENT
?ms_kPool@?$CPooledObject@VCHeaderDecorator@NEffectUpdateDecorator@@@@1V?$CDynamicPoolEx@VCHeaderDecorator@NEffectUpdateDecorator@@@@A DD FLAT:??_7?$CDynamicPoolEx@VCHeaderDecorator@NEffectUpdateDecorator@@@@6B@ ; CPooledObject<NEffectUpdateDecorator::CHeaderDecorator>::ms_kPool
	DD	00H
	DD	00H
	DD	00H
	DD	00H
	DD	00H
	DD	00H
	DD	00H
	DD	00H
_DATA	ENDS
;	COMDAT ??_R1A@?0A@EA@bad_array_new_length@std@@8
rdata$r	SEGMENT
??_R1A@?0A@EA@bad_array_new_length@std@@8 DD FLAT:??_R0?AVbad_array_new_length@std@@@8 ; std::bad_array_new_length::`RTTI Base Class Descriptor at (0,-1,0,64)'
	DD	02H
	DD	00H
	DD	0ffffffffH
	DD	00H
	DD	040H
	DD	FLAT:??_R3bad_array_new_length@std@@8
rdata$r	ENDS
;	COMDAT ??_R2bad_array_new_length@std@@8
rdata$r	SEGMENT
??_R2bad_array_new_length@std@@8 DD FLAT:??_R1A@?0A@EA@bad_array_new_length@std@@8 ; std::bad_array_new_length::`RTTI Base Class Array'
	DD	FLAT:??_R1A@?0A@EA@bad_alloc@std@@8
	DD	FLAT:??_R1A@?0A@EA@exception@std@@8
rdata$r	ENDS
;	COMDAT ??_R3bad_array_new_length@std@@8
rdata$r	SEGMENT
??_R3bad_array_new_length@std@@8 DD 00H			; std::bad_array_new_length::`RTTI Class Hierarchy Descriptor'
	DD	00H
	DD	03H
	DD	FLAT:??_R2bad_array_new_length@std@@8
rdata$r	ENDS
;	COMDAT ??_R4bad_array_new_length@std@@6B@
rdata$r	SEGMENT
??_R4bad_array_new_length@std@@6B@ DD 00H		; std::bad_array_new_length::`RTTI Complete Object Locator'
	DD	00H
	DD	00H
	DD	FLAT:??_R0?AVbad_array_new_length@std@@@8
	DD	FLAT:??_R3bad_array_new_length@std@@8
rdata$r	ENDS
;	COMDAT ??_R1A@?0A@EA@bad_alloc@std@@8
rdata$r	SEGMENT
??_R1A@?0A@EA@bad_alloc@std@@8 DD FLAT:??_R0?AVbad_alloc@std@@@8 ; std::bad_alloc::`RTTI Base Class Descriptor at (0,-1,0,64)'
	DD	01H
	DD	00H
	DD	0ffffffffH
	DD	00H
	DD	040H
	DD	FLAT:??_R3bad_alloc@std@@8
rdata$r	ENDS
;	COMDAT ??_R2bad_alloc@std@@8
rdata$r	SEGMENT
??_R2bad_alloc@std@@8 DD FLAT:??_R1A@?0A@EA@bad_alloc@std@@8 ; std::bad_alloc::`RTTI Base Class Array'
	DD	FLAT:??_R1A@?0A@EA@exception@std@@8
rdata$r	ENDS
;	COMDAT ??_R3bad_alloc@std@@8
rdata$r	SEGMENT
??_R3bad_alloc@std@@8 DD 00H				; std::bad_alloc::`RTTI Class Hierarchy Descriptor'
	DD	00H
	DD	02H
	DD	FLAT:??_R2bad_alloc@std@@8
rdata$r	ENDS
;	COMDAT ??_R4bad_alloc@std@@6B@
rdata$r	SEGMENT
??_R4bad_alloc@std@@6B@ DD 00H				; std::bad_alloc::`RTTI Complete Object Locator'
	DD	00H
	DD	00H
	DD	FLAT:??_R0?AVbad_alloc@std@@@8
	DD	FLAT:??_R3bad_alloc@std@@8
rdata$r	ENDS
;	COMDAT ??_R1A@?0A@EA@exception@std@@8
rdata$r	SEGMENT
??_R1A@?0A@EA@exception@std@@8 DD FLAT:??_R0?AVexception@std@@@8 ; std::exception::`RTTI Base Class Descriptor at (0,-1,0,64)'
	DD	00H
	DD	00H
	DD	0ffffffffH
	DD	00H
	DD	040H
	DD	FLAT:??_R3exception@std@@8
rdata$r	ENDS
;	COMDAT ??_R2exception@std@@8
rdata$r	SEGMENT
??_R2exception@std@@8 DD FLAT:??_R1A@?0A@EA@exception@std@@8 ; std::exception::`RTTI Base Class Array'
rdata$r	ENDS
;	COMDAT ??_R3exception@std@@8
rdata$r	SEGMENT
??_R3exception@std@@8 DD 00H				; std::exception::`RTTI Class Hierarchy Descriptor'
	DD	00H
	DD	01H
	DD	FLAT:??_R2exception@std@@8
rdata$r	ENDS
;	COMDAT ??_R4exception@std@@6B@
rdata$r	SEGMENT
??_R4exception@std@@6B@ DD 00H				; std::exception::`RTTI Complete Object Locator'
	DD	00H
	DD	00H
	DD	FLAT:??_R0?AVexception@std@@@8
	DD	FLAT:??_R3exception@std@@8
rdata$r	ENDS
;	COMDAT ??_C@_0BI@CFPLBAOH@invalid?5string?5position@
CONST	SEGMENT
??_C@_0BI@CFPLBAOH@invalid?5string?5position@ DB 'invalid string position'
	DB	00H						; `string'
CONST	ENDS
;	COMDAT ??_C@_0BA@JFNIOLAK@string?5too?5long@
CONST	SEGMENT
??_C@_0BA@JFNIOLAK@string?5too?5long@ DB 'string too long', 00H ; `string'
CONST	ENDS
;	COMDAT __CT??_R0?AVexception@std@@@8??0exception@std@@QAE@ABV01@@Z12
xdata$x	SEGMENT
__CT??_R0?AVexception@std@@@8??0exception@std@@QAE@ABV01@@Z12 DD 00H
	DD	FLAT:??_R0?AVexception@std@@@8
	DD	00H
	DD	0ffffffffH
	ORG $+4
	DD	0cH
	DD	FLAT:??0exception@std@@QAE@ABV01@@Z
xdata$x	ENDS
;	COMDAT ??_R0?AVexception@std@@@8
data$r	SEGMENT
??_R0?AVexception@std@@@8 DD FLAT:??_7type_info@@6B@	; std::exception `RTTI Type Descriptor'
	DD	00H
	DB	'.?AVexception@std@@', 00H
data$r	ENDS
;	COMDAT __CT??_R0?AVbad_alloc@std@@@8??0bad_alloc@std@@QAE@ABV01@@Z12
xdata$x	SEGMENT
__CT??_R0?AVbad_alloc@std@@@8??0bad_alloc@std@@QAE@ABV01@@Z12 DD 010H
	DD	FLAT:??_R0?AVbad_alloc@std@@@8
	DD	00H
	DD	0ffffffffH
	ORG $+4
	DD	0cH
	DD	FLAT:??0bad_alloc@std@@QAE@ABV01@@Z
xdata$x	ENDS
;	COMDAT ??_R0?AVbad_alloc@std@@@8
data$r	SEGMENT
??_R0?AVbad_alloc@std@@@8 DD FLAT:??_7type_info@@6B@	; std::bad_alloc `RTTI Type Descriptor'
	DD	00H
	DB	'.?AVbad_alloc@std@@', 00H
data$r	ENDS
;	COMDAT __CT??_R0?AVbad_array_new_length@std@@@8??0bad_array_new_length@std@@QAE@ABV01@@Z12
xdata$x	SEGMENT
__CT??_R0?AVbad_array_new_length@std@@@8??0bad_array_new_length@std@@QAE@ABV01@@Z12 DD 00H
	DD	FLAT:??_R0?AVbad_array_new_length@std@@@8
	DD	00H
	DD	0ffffffffH
	ORG $+4
	DD	0cH
	DD	FLAT:??0bad_array_new_length@std@@QAE@ABV01@@Z
xdata$x	ENDS
;	COMDAT ??_R0?AVbad_array_new_length@std@@@8
data$r	SEGMENT
??_R0?AVbad_array_new_length@std@@@8 DD FLAT:??_7type_info@@6B@ ; std::bad_array_new_length `RTTI Type Descriptor'
	DD	00H
	DB	'.?AVbad_array_new_length@std@@', 00H
data$r	ENDS
;	COMDAT __CTA3?AVbad_array_new_length@std@@
xdata$x	SEGMENT
__CTA3?AVbad_array_new_length@std@@ DD 03H
	DD	FLAT:__CT??_R0?AVbad_array_new_length@std@@@8??0bad_array_new_length@std@@QAE@ABV01@@Z12
	DD	FLAT:__CT??_R0?AVbad_alloc@std@@@8??0bad_alloc@std@@QAE@ABV01@@Z12
	DD	FLAT:__CT??_R0?AVexception@std@@@8??0exception@std@@QAE@ABV01@@Z12
xdata$x	ENDS
;	COMDAT __TI3?AVbad_array_new_length@std@@
xdata$x	SEGMENT
__TI3?AVbad_array_new_length@std@@ DD 00H
	DD	FLAT:??1bad_array_new_length@std@@UAE@XZ
	DD	00H
	DD	FLAT:__CTA3?AVbad_array_new_length@std@@
xdata$x	ENDS
;	COMDAT ??_C@_0BF@KINCDENJ@bad?5array?5new?5length@
CONST	SEGMENT
??_C@_0BF@KINCDENJ@bad?5array?5new?5length@ DB 'bad array new length', 00H ; `string'
CONST	ENDS
;	COMDAT ??_7bad_array_new_length@std@@6B@
CONST	SEGMENT
??_7bad_array_new_length@std@@6B@ DD FLAT:??_R4bad_array_new_length@std@@6B@ ; std::bad_array_new_length::`vftable'
	DD	FLAT:??_Ebad_array_new_length@std@@UAEPAXI@Z
	DD	FLAT:?what@exception@std@@UBEPBDXZ
CONST	ENDS
;	COMDAT ??_7bad_alloc@std@@6B@
CONST	SEGMENT
??_7bad_alloc@std@@6B@ DD FLAT:??_R4bad_alloc@std@@6B@	; std::bad_alloc::`vftable'
	DD	FLAT:??_Ebad_alloc@std@@UAEPAXI@Z
	DD	FLAT:?what@exception@std@@UBEPBDXZ
CONST	ENDS
;	COMDAT ??_C@_0BC@EOODALEL@Unknown?5exception@
CONST	SEGMENT
??_C@_0BC@EOODALEL@Unknown?5exception@ DB 'Unknown exception', 00H ; `string'
CONST	ENDS
;	COMDAT ??_7exception@std@@6B@
CONST	SEGMENT
??_7exception@std@@6B@ DD FLAT:??_R4exception@std@@6B@	; std::exception::`vftable'
	DD	FLAT:??_Eexception@std@@UAEPAXI@Z
	DD	FLAT:?what@exception@std@@UBEPBDXZ
CONST	ENDS
;	COMDAT xdata$x
xdata$x	SEGMENT
__ehfuncinfo$?LoadRaceData@CRaceData@@QAEHPBD@Z DD 019930522H
	DD	02cH
	DD	FLAT:__unwindtable$?LoadRaceData@CRaceData@@QAEHPBD@Z
	DD	2 DUP(00H)
	DD	2 DUP(00H)
	DD	00H
	DD	01H
__unwindtable$?LoadRaceData@CRaceData@@QAEHPBD@Z DD 0ffffffffH
	DD	FLAT:__unwindfunclet$?LoadRaceData@CRaceData@@QAEHPBD@Z$0
	DD	00H
	DD	FLAT:__unwindfunclet$?LoadRaceData@CRaceData@@QAEHPBD@Z$1
	DD	00H
	DD	FLAT:__unwindfunclet$?LoadRaceData@CRaceData@@QAEHPBD@Z$2
	DD	00H
	DD	FLAT:__unwindfunclet$?LoadRaceData@CRaceData@@QAEHPBD@Z$3
	DD	00H
	DD	FLAT:__unwindfunclet$?LoadRaceData@CRaceData@@QAEHPBD@Z$4
	DD	00H
	DD	FLAT:__unwindfunclet$?LoadRaceData@CRaceData@@QAEHPBD@Z$5
	DD	00H
	DD	FLAT:__unwindfunclet$?LoadRaceData@CRaceData@@QAEHPBD@Z$6
	DD	00H
	DD	FLAT:__unwindfunclet$?LoadRaceData@CRaceData@@QAEHPBD@Z$7
	DD	07H
	DD	FLAT:__unwindfunclet$?LoadRaceData@CRaceData@@QAEHPBD@Z$8
	DD	08H
	DD	FLAT:__unwindfunclet$?LoadRaceData@CRaceData@@QAEHPBD@Z$9
	DD	07H
	DD	FLAT:__unwindfunclet$?LoadRaceData@CRaceData@@QAEHPBD@Z$10
	DD	07H
	DD	FLAT:__unwindfunclet$?LoadRaceData@CRaceData@@QAEHPBD@Z$11
	DD	07H
	DD	FLAT:__unwindfunclet$?LoadRaceData@CRaceData@@QAEHPBD@Z$12
	DD	07H
	DD	FLAT:__unwindfunclet$?LoadRaceData@CRaceData@@QAEHPBD@Z$13
	DD	0dH
	DD	FLAT:__unwindfunclet$?LoadRaceData@CRaceData@@QAEHPBD@Z$14
	DD	0dH
	DD	FLAT:__unwindfunclet$?LoadRaceData@CRaceData@@QAEHPBD@Z$15
	DD	0dH
	DD	FLAT:__unwindfunclet$?LoadRaceData@CRaceData@@QAEHPBD@Z$16
	DD	0dH
	DD	FLAT:__unwindfunclet$?LoadRaceData@CRaceData@@QAEHPBD@Z$17
	DD	011H
	DD	FLAT:__unwindfunclet$?LoadRaceData@CRaceData@@QAEHPBD@Z$18
	DD	012H
	DD	FLAT:__unwindfunclet$?LoadRaceData@CRaceData@@QAEHPBD@Z$19
	DD	013H
	DD	FLAT:__unwindfunclet$?LoadRaceData@CRaceData@@QAEHPBD@Z$20
	DD	012H
	DD	FLAT:__unwindfunclet$?LoadRaceData@CRaceData@@QAEHPBD@Z$21
	DD	015H
	DD	FLAT:__unwindfunclet$?LoadRaceData@CRaceData@@QAEHPBD@Z$22
	DD	012H
	DD	FLAT:__unwindfunclet$?LoadRaceData@CRaceData@@QAEHPBD@Z$23
	DD	017H
	DD	FLAT:__unwindfunclet$?LoadRaceData@CRaceData@@QAEHPBD@Z$24
	DD	012H
	DD	FLAT:__unwindfunclet$?LoadRaceData@CRaceData@@QAEHPBD@Z$25
	DD	019H
	DD	FLAT:__unwindfunclet$?LoadRaceData@CRaceData@@QAEHPBD@Z$26
	DD	012H
	DD	FLAT:__unwindfunclet$?LoadRaceData@CRaceData@@QAEHPBD@Z$27
	DD	01bH
	DD	FLAT:__unwindfunclet$?LoadRaceData@CRaceData@@QAEHPBD@Z$28
	DD	00H
	DD	FLAT:__unwindfunclet$?LoadRaceData@CRaceData@@QAEHPBD@Z$29
	DD	01dH
	DD	FLAT:__unwindfunclet$?LoadRaceData@CRaceData@@QAEHPBD@Z$30
	DD	01eH
	DD	FLAT:__unwindfunclet$?LoadRaceData@CRaceData@@QAEHPBD@Z$31
	DD	01dH
	DD	FLAT:__unwindfunclet$?LoadRaceData@CRaceData@@QAEHPBD@Z$32
	DD	01dH
	DD	FLAT:__unwindfunclet$?LoadRaceData@CRaceData@@QAEHPBD@Z$33
	DD	01dH
	DD	FLAT:__unwindfunclet$?LoadRaceData@CRaceData@@QAEHPBD@Z$34
	DD	01dH
	DD	FLAT:__unwindfunclet$?LoadRaceData@CRaceData@@QAEHPBD@Z$35
	DD	023H
	DD	FLAT:__unwindfunclet$?LoadRaceData@CRaceData@@QAEHPBD@Z$36
	DD	024H
	DD	FLAT:__unwindfunclet$?LoadRaceData@CRaceData@@QAEHPBD@Z$37
	DD	025H
	DD	FLAT:__unwindfunclet$?LoadRaceData@CRaceData@@QAEHPBD@Z$38
	DD	026H
	DD	FLAT:__unwindfunclet$?LoadRaceData@CRaceData@@QAEHPBD@Z$39
	DD	027H
	DD	FLAT:__unwindfunclet$?LoadRaceData@CRaceData@@QAEHPBD@Z$40
	DD	025H
	DD	FLAT:__unwindfunclet$?LoadRaceData@CRaceData@@QAEHPBD@Z$41
	DD	029H
	DD	FLAT:__unwindfunclet$?LoadRaceData@CRaceData@@QAEHPBD@Z$42
	DD	02aH
	DD	FLAT:__unwindfunclet$?LoadRaceData@CRaceData@@QAEHPBD@Z$43
xdata$x	ENDS
;	COMDAT CRT$XCU
CRT$XCU	SEGMENT
??ms_kPool$initializer$@?$CPooledObject@VCNullDecorator@NEffectUpdateDecorator@@@@1P6AXXZA@@3P6AXXZA DD FLAT:??__E?ms_kPool@?$CPooledObject@VCNullDecorator@NEffectUpdateDecorator@@@@1V?$CDynamicPoolEx@VCNullDecorator@NEffectUpdateDecorator@@@@A@@YAXXZ ; ??ms_kPool$initializer$@?$CPooledObject@VCNullDecorator@NEffectUpdateDecorator@@@@1P6AXXZA@@3P6AXXZA
CRT$XCU	ENDS
;	COMDAT CRT$XCU
CRT$XCU	SEGMENT
??ms_kPool$initializer$@?$CPooledObject@VCTextureAnimationCWDecorator@NEffectUpdateDecorator@@@@1P6AXXZA@@3P6AXXZA DD FLAT:??__E?ms_kPool@?$CPooledObject@VCTextureAnimationCWDecorator@NEffectUpdateDecorator@@@@1V?$CDynamicPoolEx@VCTextureAnimationCWDecorator@NEffectUpdateDecorator@@@@A@@YAXXZ ; ??ms_kPool$initializer$@?$CPooledObject@VCTextureAnimationCWDecorator@NEffectUpdateDecorator@@@@1P6AXXZA@@3P6AXXZA
CRT$XCU	ENDS
;	COMDAT CRT$XCU
CRT$XCU	SEGMENT
??ms_kPool$initializer$@?$CPooledObject@VCTextureAnimationCCWDecorator@NEffectUpdateDecorator@@@@1P6AXXZA@@3P6AXXZA DD FLAT:??__E?ms_kPool@?$CPooledObject@VCTextureAnimationCCWDecorator@NEffectUpdateDecorator@@@@1V?$CDynamicPoolEx@VCTextureAnimationCCWDecorator@NEffectUpdateDecorator@@@@A@@YAXXZ ; ??ms_kPool$initializer$@?$CPooledObject@VCTextureAnimationCCWDecorator@NEffectUpdateDecorator@@@@1P6AXXZA@@3P6AXXZA
CRT$XCU	ENDS
;	COMDAT CRT$XCU
CRT$XCU	SEGMENT
??ms_kPool$initializer$@?$CPooledObject@VCTextureAnimationRandomDecorator@NEffectUpdateDecorator@@@@1P6AXXZA@@3P6AXXZA DD FLAT:??__E?ms_kPool@?$CPooledObject@VCTextureAnimationRandomDecorator@NEffectUpdateDecorator@@@@1V?$CDynamicPoolEx@VCTextureAnimationRandomDecorator@NEffectUpdateDecorator@@@@A@@YAXXZ ; ??ms_kPool$initializer$@?$CPooledObject@VCTextureAnimationRandomDecorator@NEffectUpdateDecorator@@@@1P6AXXZA@@3P6AXXZA
CRT$XCU	ENDS
;	COMDAT CRT$XCU
CRT$XCU	SEGMENT
??ms_kPool$initializer$@?$CPooledObject@VCAirResistanceDecorator@NEffectUpdateDecorator@@@@1P6AXXZA@@3P6AXXZA DD FLAT:??__E?ms_kPool@?$CPooledObject@VCAirResistanceDecorator@NEffectUpdateDecorator@@@@1V?$CDynamicPoolEx@VCAirResistanceDecorator@NEffectUpdateDecorator@@@@A@@YAXXZ ; ??ms_kPool$initializer$@?$CPooledObject@VCAirResistanceDecorator@NEffectUpdateDecorator@@@@1P6AXXZA@@3P6AXXZA
CRT$XCU	ENDS
;	COMDAT CRT$XCU
CRT$XCU	SEGMENT
??ms_kPool$initializer$@?$CPooledObject@VCGravityDecorator@NEffectUpdateDecorator@@@@1P6AXXZA@@3P6AXXZA DD FLAT:??__E?ms_kPool@?$CPooledObject@VCGravityDecorator@NEffectUpdateDecorator@@@@1V?$CDynamicPoolEx@VCGravityDecorator@NEffectUpdateDecorator@@@@A@@YAXXZ ; ??ms_kPool$initializer$@?$CPooledObject@VCGravityDecorator@NEffectUpdateDecorator@@@@1P6AXXZA@@3P6AXXZA
CRT$XCU	ENDS
;	COMDAT CRT$XCU
CRT$XCU	SEGMENT
??ms_kPool$initializer$@?$CPooledObject@VCRotationDecorator@NEffectUpdateDecorator@@@@1P6AXXZA@@3P6AXXZA DD FLAT:??__E?ms_kPool@?$CPooledObject@VCRotationDecorator@NEffectUpdateDecorator@@@@1V?$CDynamicPoolEx@VCRotationDecorator@NEffectUpdateDecorator@@@@A@@YAXXZ ; ??ms_kPool$initializer$@?$CPooledObject@VCRotationDecorator@NEffectUpdateDecorator@@@@1P6AXXZA@@3P6AXXZA
CRT$XCU	ENDS
; Function compile flags: /Ogtp
;	COMDAT ??__F?ms_kPool@?$CPooledObject@VCRotationDecorator@NEffectUpdateDecorator@@@@1V?$CDynamicPoolEx@VCRotationDecorator@NEffectUpdateDecorator@@@@A@@YAXXZ
text$yd	SEGMENT
??__F?ms_kPool@?$CPooledObject@VCRotationDecorator@NEffectUpdateDecorator@@@@1V?$CDynamicPoolEx@VCRotationDecorator@NEffectUpdateDecorator@@@@A@@YAXXZ PROC ; `dynamic atexit destructor for 'CPooledObject<NEffectUpdateDecorator::CRotationDecorator>::ms_kPool'', COMDAT
  00000	b9 00 00 00 00	 mov	 ecx, OFFSET ?ms_kPool@?$CPooledObject@VCRotationDecorator@NEffectUpdateDecorator@@@@1V?$CDynamicPoolEx@VCRotationDecorator@NEffectUpdateDecorator@@@@A ; CPooledObject<NEffectUpdateDecorator::CRotationDecorator>::ms_kPool
  00005	e9 00 00 00 00	 jmp	 ??1?$CDynamicPoolEx@VCRotationDecorator@NEffectUpdateDecorator@@@@UAE@XZ ; CDynamicPoolEx<NEffectUpdateDecorator::CRotationDecorator>::~CDynamicPoolEx<NEffectUpdateDecorator::CRotationDecorator>
??__F?ms_kPool@?$CPooledObject@VCRotationDecorator@NEffectUpdateDecorator@@@@1V?$CDynamicPoolEx@VCRotationDecorator@NEffectUpdateDecorator@@@@A@@YAXXZ ENDP ; `dynamic atexit destructor for 'CPooledObject<NEffectUpdateDecorator::CRotationDecorator>::ms_kPool''
text$yd	ENDS
; Function compile flags: /Ogtp
; File C:\DS Project\DS Files\Source\ClientSource\Client\eterLib\Pool.h
;	COMDAT ??__E?ms_kPool@?$CPooledObject@VCRotationDecorator@NEffectUpdateDecorator@@@@1V?$CDynamicPoolEx@VCRotationDecorator@NEffectUpdateDecorator@@@@A@@YAXXZ
text$di	SEGMENT
??__E?ms_kPool@?$CPooledObject@VCRotationDecorator@NEffectUpdateDecorator@@@@1V?$CDynamicPoolEx@VCRotationDecorator@NEffectUpdateDecorator@@@@A@@YAXXZ PROC ; `dynamic initializer for 'CPooledObject<NEffectUpdateDecorator::CRotationDecorator>::ms_kPool'', COMDAT

; 272  : template <class T> CDynamicPoolEx<T> CPooledObject<T>::ms_kPool;

  00000	68 00 00 00 00	 push	 OFFSET ??__F?ms_kPool@?$CPooledObject@VCRotationDecorator@NEffectUpdateDecorator@@@@1V?$CDynamicPoolEx@VCRotationDecorator@NEffectUpdateDecorator@@@@A@@YAXXZ ; `dynamic atexit destructor for 'CPooledObject<NEffectUpdateDecorator::CRotationDecorator>::ms_kPool''
  00005	e8 00 00 00 00	 call	 _atexit
  0000a	59		 pop	 ecx
  0000b	c3		 ret	 0
??__E?ms_kPool@?$CPooledObject@VCRotationDecorator@NEffectUpdateDecorator@@@@1V?$CDynamicPoolEx@VCRotationDecorator@NEffectUpdateDecorator@@@@A@@YAXXZ ENDP ; `dynamic initializer for 'CPooledObject<NEffectUpdateDecorator::CRotationDecorator>::ms_kPool''
text$di	ENDS
; Function compile flags: /Ogtp
;	COMDAT ??__F?ms_kPool@?$CPooledObject@VCGravityDecorator@NEffectUpdateDecorator@@@@1V?$CDynamicPoolEx@VCGravityDecorator@NEffectUpdateDecorator@@@@A@@YAXXZ
text$yd	SEGMENT
??__F?ms_kPool@?$CPooledObject@VCGravityDecorator@NEffectUpdateDecorator@@@@1V?$CDynamicPoolEx@VCGravityDecorator@NEffectUpdateDecorator@@@@A@@YAXXZ PROC ; `dynamic atexit destructor for 'CPooledObject<NEffectUpdateDecorator::CGravityDecorator>::ms_kPool'', COMDAT
  00000	b9 00 00 00 00	 mov	 ecx, OFFSET ?ms_kPool@?$CPooledObject@VCGravityDecorator@NEffectUpdateDecorator@@@@1V?$CDynamicPoolEx@VCGravityDecorator@NEffectUpdateDecorator@@@@A ; CPooledObject<NEffectUpdateDecorator::CGravityDecorator>::ms_kPool
  00005	e9 00 00 00 00	 jmp	 ??1?$CDynamicPoolEx@VCGravityDecorator@NEffectUpdateDecorator@@@@UAE@XZ ; CDynamicPoolEx<NEffectUpdateDecorator::CGravityDecorator>::~CDynamicPoolEx<NEffectUpdateDecorator::CGravityDecorator>
??__F?ms_kPool@?$CPooledObject@VCGravityDecorator@NEffectUpdateDecorator@@@@1V?$CDynamicPoolEx@VCGravityDecorator@NEffectUpdateDecorator@@@@A@@YAXXZ ENDP ; `dynamic atexit destructor for 'CPooledObject<NEffectUpdateDecorator::CGravityDecorator>::ms_kPool''
text$yd	ENDS
; Function compile flags: /Ogtp
; File C:\DS Project\DS Files\Source\ClientSource\Client\eterLib\Pool.h
;	COMDAT ??__E?ms_kPool@?$CPooledObject@VCGravityDecorator@NEffectUpdateDecorator@@@@1V?$CDynamicPoolEx@VCGravityDecorator@NEffectUpdateDecorator@@@@A@@YAXXZ
text$di	SEGMENT
??__E?ms_kPool@?$CPooledObject@VCGravityDecorator@NEffectUpdateDecorator@@@@1V?$CDynamicPoolEx@VCGravityDecorator@NEffectUpdateDecorator@@@@A@@YAXXZ PROC ; `dynamic initializer for 'CPooledObject<NEffectUpdateDecorator::CGravityDecorator>::ms_kPool'', COMDAT

; 272  : template <class T> CDynamicPoolEx<T> CPooledObject<T>::ms_kPool;

  00000	68 00 00 00 00	 push	 OFFSET ??__F?ms_kPool@?$CPooledObject@VCGravityDecorator@NEffectUpdateDecorator@@@@1V?$CDynamicPoolEx@VCGravityDecorator@NEffectUpdateDecorator@@@@A@@YAXXZ ; `dynamic atexit destructor for 'CPooledObject<NEffectUpdateDecorator::CGravityDecorator>::ms_kPool''
  00005	e8 00 00 00 00	 call	 _atexit
  0000a	59		 pop	 ecx
  0000b	c3		 ret	 0
??__E?ms_kPool@?$CPooledObject@VCGravityDecorator@NEffectUpdateDecorator@@@@1V?$CDynamicPoolEx@VCGravityDecorator@NEffectUpdateDecorator@@@@A@@YAXXZ ENDP ; `dynamic initializer for 'CPooledObject<NEffectUpdateDecorator::CGravityDecorator>::ms_kPool''
text$di	ENDS
; Function compile flags: /Ogtp
;	COMDAT ??__F?ms_kPool@?$CPooledObject@VCAirResistanceDecorator@NEffectUpdateDecorator@@@@1V?$CDynamicPoolEx@VCAirResistanceDecorator@NEffectUpdateDecorator@@@@A@@YAXXZ
text$yd	SEGMENT
??__F?ms_kPool@?$CPooledObject@VCAirResistanceDecorator@NEffectUpdateDecorator@@@@1V?$CDynamicPoolEx@VCAirResistanceDecorator@NEffectUpdateDecorator@@@@A@@YAXXZ PROC ; `dynamic atexit destructor for 'CPooledObject<NEffectUpdateDecorator::CAirResistanceDecorator>::ms_kPool'', COMDAT
  00000	b9 00 00 00 00	 mov	 ecx, OFFSET ?ms_kPool@?$CPooledObject@VCAirResistanceDecorator@NEffectUpdateDecorator@@@@1V?$CDynamicPoolEx@VCAirResistanceDecorator@NEffectUpdateDecorator@@@@A ; CPooledObject<NEffectUpdateDecorator::CAirResistanceDecorator>::ms_kPool
  00005	e9 00 00 00 00	 jmp	 ??1?$CDynamicPoolEx@VCAirResistanceDecorator@NEffectUpdateDecorator@@@@UAE@XZ ; CDynamicPoolEx<NEffectUpdateDecorator::CAirResistanceDecorator>::~CDynamicPoolEx<NEffectUpdateDecorator::CAirResistanceDecorator>
??__F?ms_kPool@?$CPooledObject@VCAirResistanceDecorator@NEffectUpdateDecorator@@@@1V?$CDynamicPoolEx@VCAirResistanceDecorator@NEffectUpdateDecorator@@@@A@@YAXXZ ENDP ; `dynamic atexit destructor for 'CPooledObject<NEffectUpdateDecorator::CAirResistanceDecorator>::ms_kPool''
text$yd	ENDS
; Function compile flags: /Ogtp
; File C:\DS Project\DS Files\Source\ClientSource\Client\eterLib\Pool.h
;	COMDAT ??__E?ms_kPool@?$CPooledObject@VCAirResistanceDecorator@NEffectUpdateDecorator@@@@1V?$CDynamicPoolEx@VCAirResistanceDecorator@NEffectUpdateDecorator@@@@A@@YAXXZ
text$di	SEGMENT
??__E?ms_kPool@?$CPooledObject@VCAirResistanceDecorator@NEffectUpdateDecorator@@@@1V?$CDynamicPoolEx@VCAirResistanceDecorator@NEffectUpdateDecorator@@@@A@@YAXXZ PROC ; `dynamic initializer for 'CPooledObject<NEffectUpdateDecorator::CAirResistanceDecorator>::ms_kPool'', COMDAT

; 272  : template <class T> CDynamicPoolEx<T> CPooledObject<T>::ms_kPool;

  00000	68 00 00 00 00	 push	 OFFSET ??__F?ms_kPool@?$CPooledObject@VCAirResistanceDecorator@NEffectUpdateDecorator@@@@1V?$CDynamicPoolEx@VCAirResistanceDecorator@NEffectUpdateDecorator@@@@A@@YAXXZ ; `dynamic atexit destructor for 'CPooledObject<NEffectUpdateDecorator::CAirResistanceDecorator>::ms_kPool''
  00005	e8 00 00 00 00	 call	 _atexit
  0000a	59		 pop	 ecx
  0000b	c3		 ret	 0
??__E?ms_kPool@?$CPooledObject@VCAirResistanceDecorator@NEffectUpdateDecorator@@@@1V?$CDynamicPoolEx@VCAirResistanceDecorator@NEffectUpdateDecorator@@@@A@@YAXXZ ENDP ; `dynamic initializer for 'CPooledObject<NEffectUpdateDecorator::CAirResistanceDecorator>::ms_kPool''
text$di	ENDS
; Function compile flags: /Ogtp
;	COMDAT ??__F?ms_kPool@?$CPooledObject@VCTextureAnimationRandomDecorator@NEffectUpdateDecorator@@@@1V?$CDynamicPoolEx@VCTextureAnimationRandomDecorator@NEffectUpdateDecorator@@@@A@@YAXXZ
text$yd	SEGMENT
??__F?ms_kPool@?$CPooledObject@VCTextureAnimationRandomDecorator@NEffectUpdateDecorator@@@@1V?$CDynamicPoolEx@VCTextureAnimationRandomDecorator@NEffectUpdateDecorator@@@@A@@YAXXZ PROC ; `dynamic atexit destructor for 'CPooledObject<NEffectUpdateDecorator::CTextureAnimationRandomDecorator>::ms_kPool'', COMDAT
  00000	b9 00 00 00 00	 mov	 ecx, OFFSET ?ms_kPool@?$CPooledObject@VCTextureAnimationRandomDecorator@NEffectUpdateDecorator@@@@1V?$CDynamicPoolEx@VCTextureAnimationRandomDecorator@NEffectUpdateDecorator@@@@A ; CPooledObject<NEffectUpdateDecorator::CTextureAnimationRandomDecorator>::ms_kPool
  00005	e9 00 00 00 00	 jmp	 ??1?$CDynamicPoolEx@VCTextureAnimationRandomDecorator@NEffectUpdateDecorator@@@@UAE@XZ ; CDynamicPoolEx<NEffectUpdateDecorator::CTextureAnimationRandomDecorator>::~CDynamicPoolEx<NEffectUpdateDecorator::CTextureAnimationRandomDecorator>
??__F?ms_kPool@?$CPooledObject@VCTextureAnimationRandomDecorator@NEffectUpdateDecorator@@@@1V?$CDynamicPoolEx@VCTextureAnimationRandomDecorator@NEffectUpdateDecorator@@@@A@@YAXXZ ENDP ; `dynamic atexit destructor for 'CPooledObject<NEffectUpdateDecorator::CTextureAnimationRandomDecorator>::ms_kPool''
text$yd	ENDS
; Function compile flags: /Ogtp
; File C:\DS Project\DS Files\Source\ClientSource\Client\eterLib\Pool.h
;	COMDAT ??__E?ms_kPool@?$CPooledObject@VCTextureAnimationRandomDecorator@NEffectUpdateDecorator@@@@1V?$CDynamicPoolEx@VCTextureAnimationRandomDecorator@NEffectUpdateDecorator@@@@A@@YAXXZ
text$di	SEGMENT
??__E?ms_kPool@?$CPooledObject@VCTextureAnimationRandomDecorator@NEffectUpdateDecorator@@@@1V?$CDynamicPoolEx@VCTextureAnimationRandomDecorator@NEffectUpdateDecorator@@@@A@@YAXXZ PROC ; `dynamic initializer for 'CPooledObject<NEffectUpdateDecorator::CTextureAnimationRandomDecorator>::ms_kPool'', COMDAT

; 272  : template <class T> CDynamicPoolEx<T> CPooledObject<T>::ms_kPool;

  00000	68 00 00 00 00	 push	 OFFSET ??__F?ms_kPool@?$CPooledObject@VCTextureAnimationRandomDecorator@NEffectUpdateDecorator@@@@1V?$CDynamicPoolEx@VCTextureAnimationRandomDecorator@NEffectUpdateDecorator@@@@A@@YAXXZ ; `dynamic atexit destructor for 'CPooledObject<NEffectUpdateDecorator::CTextureAnimationRandomDecorator>::ms_kPool''
  00005	e8 00 00 00 00	 call	 _atexit
  0000a	59		 pop	 ecx
  0000b	c3		 ret	 0
??__E?ms_kPool@?$CPooledObject@VCTextureAnimationRandomDecorator@NEffectUpdateDecorator@@@@1V?$CDynamicPoolEx@VCTextureAnimationRandomDecorator@NEffectUpdateDecorator@@@@A@@YAXXZ ENDP ; `dynamic initializer for 'CPooledObject<NEffectUpdateDecorator::CTextureAnimationRandomDecorator>::ms_kPool''
text$di	ENDS
; Function compile flags: /Ogtp
;	COMDAT ??__F?ms_kPool@?$CPooledObject@VCTextureAnimationCCWDecorator@NEffectUpdateDecorator@@@@1V?$CDynamicPoolEx@VCTextureAnimationCCWDecorator@NEffectUpdateDecorator@@@@A@@YAXXZ
text$yd	SEGMENT
??__F?ms_kPool@?$CPooledObject@VCTextureAnimationCCWDecorator@NEffectUpdateDecorator@@@@1V?$CDynamicPoolEx@VCTextureAnimationCCWDecorator@NEffectUpdateDecorator@@@@A@@YAXXZ PROC ; `dynamic atexit destructor for 'CPooledObject<NEffectUpdateDecorator::CTextureAnimationCCWDecorator>::ms_kPool'', COMDAT
  00000	b9 00 00 00 00	 mov	 ecx, OFFSET ?ms_kPool@?$CPooledObject@VCTextureAnimationCCWDecorator@NEffectUpdateDecorator@@@@1V?$CDynamicPoolEx@VCTextureAnimationCCWDecorator@NEffectUpdateDecorator@@@@A ; CPooledObject<NEffectUpdateDecorator::CTextureAnimationCCWDecorator>::ms_kPool
  00005	e9 00 00 00 00	 jmp	 ??1?$CDynamicPoolEx@VCTextureAnimationCCWDecorator@NEffectUpdateDecorator@@@@UAE@XZ ; CDynamicPoolEx<NEffectUpdateDecorator::CTextureAnimationCCWDecorator>::~CDynamicPoolEx<NEffectUpdateDecorator::CTextureAnimationCCWDecorator>
??__F?ms_kPool@?$CPooledObject@VCTextureAnimationCCWDecorator@NEffectUpdateDecorator@@@@1V?$CDynamicPoolEx@VCTextureAnimationCCWDecorator@NEffectUpdateDecorator@@@@A@@YAXXZ ENDP ; `dynamic atexit destructor for 'CPooledObject<NEffectUpdateDecorator::CTextureAnimationCCWDecorator>::ms_kPool''
text$yd	ENDS
; Function compile flags: /Ogtp
; File C:\DS Project\DS Files\Source\ClientSource\Client\eterLib\Pool.h
;	COMDAT ??__E?ms_kPool@?$CPooledObject@VCTextureAnimationCCWDecorator@NEffectUpdateDecorator@@@@1V?$CDynamicPoolEx@VCTextureAnimationCCWDecorator@NEffectUpdateDecorator@@@@A@@YAXXZ
text$di	SEGMENT
??__E?ms_kPool@?$CPooledObject@VCTextureAnimationCCWDecorator@NEffectUpdateDecorator@@@@1V?$CDynamicPoolEx@VCTextureAnimationCCWDecorator@NEffectUpdateDecorator@@@@A@@YAXXZ PROC ; `dynamic initializer for 'CPooledObject<NEffectUpdateDecorator::CTextureAnimationCCWDecorator>::ms_kPool'', COMDAT

; 272  : template <class T> CDynamicPoolEx<T> CPooledObject<T>::ms_kPool;

  00000	68 00 00 00 00	 push	 OFFSET ??__F?ms_kPool@?$CPooledObject@VCTextureAnimationCCWDecorator@NEffectUpdateDecorator@@@@1V?$CDynamicPoolEx@VCTextureAnimationCCWDecorator@NEffectUpdateDecorator@@@@A@@YAXXZ ; `dynamic atexit destructor for 'CPooledObject<NEffectUpdateDecorator::CTextureAnimationCCWDecorator>::ms_kPool''
  00005	e8 00 00 00 00	 call	 _atexit
  0000a	59		 pop	 ecx
  0000b	c3		 ret	 0
??__E?ms_kPool@?$CPooledObject@VCTextureAnimationCCWDecorator@NEffectUpdateDecorator@@@@1V?$CDynamicPoolEx@VCTextureAnimationCCWDecorator@NEffectUpdateDecorator@@@@A@@YAXXZ ENDP ; `dynamic initializer for 'CPooledObject<NEffectUpdateDecorator::CTextureAnimationCCWDecorator>::ms_kPool''
text$di	ENDS
; Function compile flags: /Ogtp
;	COMDAT ??__F?ms_kPool@?$CPooledObject@VCTextureAnimationCWDecorator@NEffectUpdateDecorator@@@@1V?$CDynamicPoolEx@VCTextureAnimationCWDecorator@NEffectUpdateDecorator@@@@A@@YAXXZ
text$yd	SEGMENT
??__F?ms_kPool@?$CPooledObject@VCTextureAnimationCWDecorator@NEffectUpdateDecorator@@@@1V?$CDynamicPoolEx@VCTextureAnimationCWDecorator@NEffectUpdateDecorator@@@@A@@YAXXZ PROC ; `dynamic atexit destructor for 'CPooledObject<NEffectUpdateDecorator::CTextureAnimationCWDecorator>::ms_kPool'', COMDAT
  00000	b9 00 00 00 00	 mov	 ecx, OFFSET ?ms_kPool@?$CPooledObject@VCTextureAnimationCWDecorator@NEffectUpdateDecorator@@@@1V?$CDynamicPoolEx@VCTextureAnimationCWDecorator@NEffectUpdateDecorator@@@@A ; CPooledObject<NEffectUpdateDecorator::CTextureAnimationCWDecorator>::ms_kPool
  00005	e9 00 00 00 00	 jmp	 ??1?$CDynamicPoolEx@VCTextureAnimationCWDecorator@NEffectUpdateDecorator@@@@UAE@XZ ; CDynamicPoolEx<NEffectUpdateDecorator::CTextureAnimationCWDecorator>::~CDynamicPoolEx<NEffectUpdateDecorator::CTextureAnimationCWDecorator>
??__F?ms_kPool@?$CPooledObject@VCTextureAnimationCWDecorator@NEffectUpdateDecorator@@@@1V?$CDynamicPoolEx@VCTextureAnimationCWDecorator@NEffectUpdateDecorator@@@@A@@YAXXZ ENDP ; `dynamic atexit destructor for 'CPooledObject<NEffectUpdateDecorator::CTextureAnimationCWDecorator>::ms_kPool''
text$yd	ENDS
; Function compile flags: /Ogtp
; File C:\DS Project\DS Files\Source\ClientSource\Client\eterLib\Pool.h
;	COMDAT ??__E?ms_kPool@?$CPooledObject@VCTextureAnimationCWDecorator@NEffectUpdateDecorator@@@@1V?$CDynamicPoolEx@VCTextureAnimationCWDecorator@NEffectUpdateDecorator@@@@A@@YAXXZ
text$di	SEGMENT
??__E?ms_kPool@?$CPooledObject@VCTextureAnimationCWDecorator@NEffectUpdateDecorator@@@@1V?$CDynamicPoolEx@VCTextureAnimationCWDecorator@NEffectUpdateDecorator@@@@A@@YAXXZ PROC ; `dynamic initializer for 'CPooledObject<NEffectUpdateDecorator::CTextureAnimationCWDecorator>::ms_kPool'', COMDAT

; 272  : template <class T> CDynamicPoolEx<T> CPooledObject<T>::ms_kPool;

  00000	68 00 00 00 00	 push	 OFFSET ??__F?ms_kPool@?$CPooledObject@VCTextureAnimationCWDecorator@NEffectUpdateDecorator@@@@1V?$CDynamicPoolEx@VCTextureAnimationCWDecorator@NEffectUpdateDecorator@@@@A@@YAXXZ ; `dynamic atexit destructor for 'CPooledObject<NEffectUpdateDecorator::CTextureAnimationCWDecorator>::ms_kPool''
  00005	e8 00 00 00 00	 call	 _atexit
  0000a	59		 pop	 ecx
  0000b	c3		 ret	 0
??__E?ms_kPool@?$CPooledObject@VCTextureAnimationCWDecorator@NEffectUpdateDecorator@@@@1V?$CDynamicPoolEx@VCTextureAnimationCWDecorator@NEffectUpdateDecorator@@@@A@@YAXXZ ENDP ; `dynamic initializer for 'CPooledObject<NEffectUpdateDecorator::CTextureAnimationCWDecorator>::ms_kPool''
text$di	ENDS
; Function compile flags: /Ogtp
;	COMDAT ??__F?ms_kPool@?$CPooledObject@VCNullDecorator@NEffectUpdateDecorator@@@@1V?$CDynamicPoolEx@VCNullDecorator@NEffectUpdateDecorator@@@@A@@YAXXZ
text$yd	SEGMENT
??__F?ms_kPool@?$CPooledObject@VCNullDecorator@NEffectUpdateDecorator@@@@1V?$CDynamicPoolEx@VCNullDecorator@NEffectUpdateDecorator@@@@A@@YAXXZ PROC ; `dynamic atexit destructor for 'CPooledObject<NEffectUpdateDecorator::CNullDecorator>::ms_kPool'', COMDAT
  00000	b9 00 00 00 00	 mov	 ecx, OFFSET ?ms_kPool@?$CPooledObject@VCNullDecorator@NEffectUpdateDecorator@@@@1V?$CDynamicPoolEx@VCNullDecorator@NEffectUpdateDecorator@@@@A ; CPooledObject<NEffectUpdateDecorator::CNullDecorator>::ms_kPool
  00005	e9 00 00 00 00	 jmp	 ??1?$CDynamicPoolEx@VCNullDecorator@NEffectUpdateDecorator@@@@UAE@XZ ; CDynamicPoolEx<NEffectUpdateDecorator::CNullDecorator>::~CDynamicPoolEx<NEffectUpdateDecorator::CNullDecorator>
??__F?ms_kPool@?$CPooledObject@VCNullDecorator@NEffectUpdateDecorator@@@@1V?$CDynamicPoolEx@VCNullDecorator@NEffectUpdateDecorator@@@@A@@YAXXZ ENDP ; `dynamic atexit destructor for 'CPooledObject<NEffectUpdateDecorator::CNullDecorator>::ms_kPool''
text$yd	ENDS
; Function compile flags: /Ogtp
; File C:\DS Project\DS Files\Source\ClientSource\Client\eterLib\Pool.h
;	COMDAT ??__E?ms_kPool@?$CPooledObject@VCNullDecorator@NEffectUpdateDecorator@@@@1V?$CDynamicPoolEx@VCNullDecorator@NEffectUpdateDecorator@@@@A@@YAXXZ
text$di	SEGMENT
??__E?ms_kPool@?$CPooledObject@VCNullDecorator@NEffectUpdateDecorator@@@@1V?$CDynamicPoolEx@VCNullDecorator@NEffectUpdateDecorator@@@@A@@YAXXZ PROC ; `dynamic initializer for 'CPooledObject<NEffectUpdateDecorator::CNullDecorator>::ms_kPool'', COMDAT

; 272  : template <class T> CDynamicPoolEx<T> CPooledObject<T>::ms_kPool;

  00000	68 00 00 00 00	 push	 OFFSET ??__F?ms_kPool@?$CPooledObject@VCNullDecorator@NEffectUpdateDecorator@@@@1V?$CDynamicPoolEx@VCNullDecorator@NEffectUpdateDecorator@@@@A@@YAXXZ ; `dynamic atexit destructor for 'CPooledObject<NEffectUpdateDecorator::CNullDecorator>::ms_kPool''
  00005	e8 00 00 00 00	 call	 _atexit
  0000a	59		 pop	 ecx
  0000b	c3		 ret	 0
??__E?ms_kPool@?$CPooledObject@VCNullDecorator@NEffectUpdateDecorator@@@@1V?$CDynamicPoolEx@VCNullDecorator@NEffectUpdateDecorator@@@@A@@YAXXZ ENDP ; `dynamic initializer for 'CPooledObject<NEffectUpdateDecorator::CNullDecorator>::ms_kPool''
text$di	ENDS
; Function compile flags: /Ogtp
;	COMDAT ??__F?ms_kPool@?$CPooledObject@VCHeaderDecorator@NEffectUpdateDecorator@@@@1V?$CDynamicPoolEx@VCHeaderDecorator@NEffectUpdateDecorator@@@@A@@YAXXZ
text$yd	SEGMENT
??__F?ms_kPool@?$CPooledObject@VCHeaderDecorator@NEffectUpdateDecorator@@@@1V?$CDynamicPoolEx@VCHeaderDecorator@NEffectUpdateDecorator@@@@A@@YAXXZ PROC ; `dynamic atexit destructor for 'CPooledObject<NEffectUpdateDecorator::CHeaderDecorator>::ms_kPool'', COMDAT
  00000	b9 00 00 00 00	 mov	 ecx, OFFSET ?ms_kPool@?$CPooledObject@VCHeaderDecorator@NEffectUpdateDecorator@@@@1V?$CDynamicPoolEx@VCHeaderDecorator@NEffectUpdateDecorator@@@@A ; CPooledObject<NEffectUpdateDecorator::CHeaderDecorator>::ms_kPool
  00005	e9 00 00 00 00	 jmp	 ??1?$CDynamicPoolEx@VCHeaderDecorator@NEffectUpdateDecorator@@@@UAE@XZ ; CDynamicPoolEx<NEffectUpdateDecorator::CHeaderDecorator>::~CDynamicPoolEx<NEffectUpdateDecorator::CHeaderDecorator>
??__F?ms_kPool@?$CPooledObject@VCHeaderDecorator@NEffectUpdateDecorator@@@@1V?$CDynamicPoolEx@VCHeaderDecorator@NEffectUpdateDecorator@@@@A@@YAXXZ ENDP ; `dynamic atexit destructor for 'CPooledObject<NEffectUpdateDecorator::CHeaderDecorator>::ms_kPool''
text$yd	ENDS
; Function compile flags: /Ogtp
; File C:\DS Project\DS Files\Source\ClientSource\Client\eterLib\Pool.h
;	COMDAT ??__E?ms_kPool@?$CPooledObject@VCHeaderDecorator@NEffectUpdateDecorator@@@@1V?$CDynamicPoolEx@VCHeaderDecorator@NEffectUpdateDecorator@@@@A@@YAXXZ
text$di	SEGMENT
??__E?ms_kPool@?$CPooledObject@VCHeaderDecorator@NEffectUpdateDecorator@@@@1V?$CDynamicPoolEx@VCHeaderDecorator@NEffectUpdateDecorator@@@@A@@YAXXZ PROC ; `dynamic initializer for 'CPooledObject<NEffectUpdateDecorator::CHeaderDecorator>::ms_kPool'', COMDAT

; 272  : template <class T> CDynamicPoolEx<T> CPooledObject<T>::ms_kPool;

  00000	68 00 00 00 00	 push	 OFFSET ??__F?ms_kPool@?$CPooledObject@VCHeaderDecorator@NEffectUpdateDecorator@@@@1V?$CDynamicPoolEx@VCHeaderDecorator@NEffectUpdateDecorator@@@@A@@YAXXZ ; `dynamic atexit destructor for 'CPooledObject<NEffectUpdateDecorator::CHeaderDecorator>::ms_kPool''
  00005	e8 00 00 00 00	 call	 _atexit
  0000a	59		 pop	 ecx
  0000b	c3		 ret	 0
??__E?ms_kPool@?$CPooledObject@VCHeaderDecorator@NEffectUpdateDecorator@@@@1V?$CDynamicPoolEx@VCHeaderDecorator@NEffectUpdateDecorator@@@@A@@YAXXZ ENDP ; `dynamic initializer for 'CPooledObject<NEffectUpdateDecorator::CHeaderDecorator>::ms_kPool''
text$di	ENDS
; Function compile flags: /Ogtp
; File C:\Program Files (x86)\Microsoft Visual Studio\2019\Community\VC\Tools\MSVC\14.27.29110\include\xmemory
;	COMDAT ??$_Destroy_range@V?$allocator@PAVCRotationDecorator@NEffectUpdateDecorator@@@std@@@std@@YAXPAPAVCRotationDecorator@NEffectUpdateDecorator@@QAPAV12@AAV?$allocator@PAVCRotationDecorator@NEffectUpdateDecorator@@@0@@Z
_TEXT	SEGMENT
__First$ = 8						; size = 4
__Last$ = 12						; size = 4
__Al$ = 16						; size = 4
??$_Destroy_range@V?$allocator@PAVCRotationDecorator@NEffectUpdateDecorator@@@std@@@std@@YAXPAPAVCRotationDecorator@NEffectUpdateDecorator@@QAPAV12@AAV?$allocator@PAVCRotationDecorator@NEffectUpdateDecorator@@@0@@Z PROC ; std::_Destroy_range<std::allocator<NEffectUpdateDecorator::CRotationDecorator *> >, COMDAT

; 956  :     // note that this is an optimization for debug mode codegen; in release mode the BE removes all of this
; 957  :     using _Ty = typename _Alloc::value_type;
; 958  :     if _CONSTEXPR_IF (!conjunction_v<is_trivially_destructible<_Ty>, _Uses_default_destroy<_Alloc, _Ty*>>) {
; 959  :         for (; _First != _Last; ++_First) {
; 960  :             allocator_traits<_Alloc>::destroy(_Al, _Unfancy(_First));
; 961  :         }
; 962  :     }
; 963  : }

  00000	c2 00 00	 ret	 0
??$_Destroy_range@V?$allocator@PAVCRotationDecorator@NEffectUpdateDecorator@@@std@@@std@@YAXPAPAVCRotationDecorator@NEffectUpdateDecorator@@QAPAV12@AAV?$allocator@PAVCRotationDecorator@NEffectUpdateDecorator@@@0@@Z ENDP ; std::_Destroy_range<std::allocator<NEffectUpdateDecorator::CRotationDecorator *> >
_TEXT	ENDS
; Function compile flags: /Ogtp
; File C:\Program Files (x86)\Microsoft Visual Studio\2019\Community\VC\Tools\MSVC\14.27.29110\include\xmemory
;	COMDAT ??$_Destroy_range@V?$allocator@PAVCGravityDecorator@NEffectUpdateDecorator@@@std@@@std@@YAXPAPAVCGravityDecorator@NEffectUpdateDecorator@@QAPAV12@AAV?$allocator@PAVCGravityDecorator@NEffectUpdateDecorator@@@0@@Z
_TEXT	SEGMENT
__First$ = 8						; size = 4
__Last$ = 12						; size = 4
__Al$ = 16						; size = 4
??$_Destroy_range@V?$allocator@PAVCGravityDecorator@NEffectUpdateDecorator@@@std@@@std@@YAXPAPAVCGravityDecorator@NEffectUpdateDecorator@@QAPAV12@AAV?$allocator@PAVCGravityDecorator@NEffectUpdateDecorator@@@0@@Z PROC ; std::_Destroy_range<std::allocator<NEffectUpdateDecorator::CGravityDecorator *> >, COMDAT

; 956  :     // note that this is an optimization for debug mode codegen; in release mode the BE removes all of this
; 957  :     using _Ty = typename _Alloc::value_type;
; 958  :     if _CONSTEXPR_IF (!conjunction_v<is_trivially_destructible<_Ty>, _Uses_default_destroy<_Alloc, _Ty*>>) {
; 959  :         for (; _First != _Last; ++_First) {
; 960  :             allocator_traits<_Alloc>::destroy(_Al, _Unfancy(_First));
; 961  :         }
; 962  :     }
; 963  : }

  00000	c2 00 00	 ret	 0
??$_Destroy_range@V?$allocator@PAVCGravityDecorator@NEffectUpdateDecorator@@@std@@@std@@YAXPAPAVCGravityDecorator@NEffectUpdateDecorator@@QAPAV12@AAV?$allocator@PAVCGravityDecorator@NEffectUpdateDecorator@@@0@@Z ENDP ; std::_Destroy_range<std::allocator<NEffectUpdateDecorator::CGravityDecorator *> >
_TEXT	ENDS
; Function compile flags: /Ogtp
; File C:\Program Files (x86)\Microsoft Visual Studio\2019\Community\VC\Tools\MSVC\14.27.29110\include\xmemory
;	COMDAT ??$_Destroy_range@V?$allocator@PAVCAirResistanceDecorator@NEffectUpdateDecorator@@@std@@@std@@YAXPAPAVCAirResistanceDecorator@NEffectUpdateDecorator@@QAPAV12@AAV?$allocator@PAVCAirResistanceDecorator@NEffectUpdateDecorator@@@0@@Z
_TEXT	SEGMENT
__First$ = 8						; size = 4
__Last$ = 12						; size = 4
__Al$ = 16						; size = 4
??$_Destroy_range@V?$allocator@PAVCAirResistanceDecorator@NEffectUpdateDecorator@@@std@@@std@@YAXPAPAVCAirResistanceDecorator@NEffectUpdateDecorator@@QAPAV12@AAV?$allocator@PAVCAirResistanceDecorator@NEffectUpdateDecorator@@@0@@Z PROC ; std::_Destroy_range<std::allocator<NEffectUpdateDecorator::CAirResistanceDecorator *> >, COMDAT

; 956  :     // note that this is an optimization for debug mode codegen; in release mode the BE removes all of this
; 957  :     using _Ty = typename _Alloc::value_type;
; 958  :     if _CONSTEXPR_IF (!conjunction_v<is_trivially_destructible<_Ty>, _Uses_default_destroy<_Alloc, _Ty*>>) {
; 959  :         for (; _First != _Last; ++_First) {
; 960  :             allocator_traits<_Alloc>::destroy(_Al, _Unfancy(_First));
; 961  :         }
; 962  :     }
; 963  : }

  00000	c2 00 00	 ret	 0
??$_Destroy_range@V?$allocator@PAVCAirResistanceDecorator@NEffectUpdateDecorator@@@std@@@std@@YAXPAPAVCAirResistanceDecorator@NEffectUpdateDecorator@@QAPAV12@AAV?$allocator@PAVCAirResistanceDecorator@NEffectUpdateDecorator@@@0@@Z ENDP ; std::_Destroy_range<std::allocator<NEffectUpdateDecorator::CAirResistanceDecorator *> >
_TEXT	ENDS
; Function compile flags: /Ogtp
; File C:\Program Files (x86)\Microsoft Visual Studio\2019\Community\VC\Tools\MSVC\14.27.29110\include\xmemory
;	COMDAT ??$_Destroy_range@V?$allocator@PAVCTextureAnimationRandomDecorator@NEffectUpdateDecorator@@@std@@@std@@YAXPAPAVCTextureAnimationRandomDecorator@NEffectUpdateDecorator@@QAPAV12@AAV?$allocator@PAVCTextureAnimationRandomDecorator@NEffectUpdateDecorator@@@0@@Z
_TEXT	SEGMENT
__First$ = 8						; size = 4
__Last$ = 12						; size = 4
__Al$ = 16						; size = 4
??$_Destroy_range@V?$allocator@PAVCTextureAnimationRandomDecorator@NEffectUpdateDecorator@@@std@@@std@@YAXPAPAVCTextureAnimationRandomDecorator@NEffectUpdateDecorator@@QAPAV12@AAV?$allocator@PAVCTextureAnimationRandomDecorator@NEffectUpdateDecorator@@@0@@Z PROC ; std::_Destroy_range<std::allocator<NEffectUpdateDecorator::CTextureAnimationRandomDecorator *> >, COMDAT

; 956  :     // note that this is an optimization for debug mode codegen; in release mode the BE removes all of this
; 957  :     using _Ty = typename _Alloc::value_type;
; 958  :     if _CONSTEXPR_IF (!conjunction_v<is_trivially_destructible<_Ty>, _Uses_default_destroy<_Alloc, _Ty*>>) {
; 959  :         for (; _First != _Last; ++_First) {
; 960  :             allocator_traits<_Alloc>::destroy(_Al, _Unfancy(_First));
; 961  :         }
; 962  :     }
; 963  : }

  00000	c2 00 00	 ret	 0
??$_Destroy_range@V?$allocator@PAVCTextureAnimationRandomDecorator@NEffectUpdateDecorator@@@std@@@std@@YAXPAPAVCTextureAnimationRandomDecorator@NEffectUpdateDecorator@@QAPAV12@AAV?$allocator@PAVCTextureAnimationRandomDecorator@NEffectUpdateDecorator@@@0@@Z ENDP ; std::_Destroy_range<std::allocator<NEffectUpdateDecorator::CTextureAnimationRandomDecorator *> >
_TEXT	ENDS
; Function compile flags: /Ogtp
; File C:\Program Files (x86)\Microsoft Visual Studio\2019\Community\VC\Tools\MSVC\14.27.29110\include\xmemory
;	COMDAT ??$_Destroy_range@V?$allocator@PAVCTextureAnimationCCWDecorator@NEffectUpdateDecorator@@@std@@@std@@YAXPAPAVCTextureAnimationCCWDecorator@NEffectUpdateDecorator@@QAPAV12@AAV?$allocator@PAVCTextureAnimationCCWDecorator@NEffectUpdateDecorator@@@0@@Z
_TEXT	SEGMENT
__First$ = 8						; size = 4
__Last$ = 12						; size = 4
__Al$ = 16						; size = 4
??$_Destroy_range@V?$allocator@PAVCTextureAnimationCCWDecorator@NEffectUpdateDecorator@@@std@@@std@@YAXPAPAVCTextureAnimationCCWDecorator@NEffectUpdateDecorator@@QAPAV12@AAV?$allocator@PAVCTextureAnimationCCWDecorator@NEffectUpdateDecorator@@@0@@Z PROC ; std::_Destroy_range<std::allocator<NEffectUpdateDecorator::CTextureAnimationCCWDecorator *> >, COMDAT

; 956  :     // note that this is an optimization for debug mode codegen; in release mode the BE removes all of this
; 957  :     using _Ty = typename _Alloc::value_type;
; 958  :     if _CONSTEXPR_IF (!conjunction_v<is_trivially_destructible<_Ty>, _Uses_default_destroy<_Alloc, _Ty*>>) {
; 959  :         for (; _First != _Last; ++_First) {
; 960  :             allocator_traits<_Alloc>::destroy(_Al, _Unfancy(_First));
; 961  :         }
; 962  :     }
; 963  : }

  00000	c2 00 00	 ret	 0
??$_Destroy_range@V?$allocator@PAVCTextureAnimationCCWDecorator@NEffectUpdateDecorator@@@std@@@std@@YAXPAPAVCTextureAnimationCCWDecorator@NEffectUpdateDecorator@@QAPAV12@AAV?$allocator@PAVCTextureAnimationCCWDecorator@NEffectUpdateDecorator@@@0@@Z ENDP ; std::_Destroy_range<std::allocator<NEffectUpdateDecorator::CTextureAnimationCCWDecorator *> >
_TEXT	ENDS
; Function compile flags: /Ogtp
; File C:\Program Files (x86)\Microsoft Visual Studio\2019\Community\VC\Tools\MSVC\14.27.29110\include\xmemory
;	COMDAT ??$_Destroy_range@V?$allocator@PAVCTextureAnimationCWDecorator@NEffectUpdateDecorator@@@std@@@std@@YAXPAPAVCTextureAnimationCWDecorator@NEffectUpdateDecorator@@QAPAV12@AAV?$allocator@PAVCTextureAnimationCWDecorator@NEffectUpdateDecorator@@@0@@Z
_TEXT	SEGMENT
__First$ = 8						; size = 4
__Last$ = 12						; size = 4
__Al$ = 16						; size = 4
??$_Destroy_range@V?$allocator@PAVCTextureAnimationCWDecorator@NEffectUpdateDecorator@@@std@@@std@@YAXPAPAVCTextureAnimationCWDecorator@NEffectUpdateDecorator@@QAPAV12@AAV?$allocator@PAVCTextureAnimationCWDecorator@NEffectUpdateDecorator@@@0@@Z PROC ; std::_Destroy_range<std::allocator<NEffectUpdateDecorator::CTextureAnimationCWDecorator *> >, COMDAT

; 956  :     // note that this is an optimization for debug mode codegen; in release mode the BE removes all of this
; 957  :     using _Ty = typename _Alloc::value_type;
; 958  :     if _CONSTEXPR_IF (!conjunction_v<is_trivially_destructible<_Ty>, _Uses_default_destroy<_Alloc, _Ty*>>) {
; 959  :         for (; _First != _Last; ++_First) {
; 960  :             allocator_traits<_Alloc>::destroy(_Al, _Unfancy(_First));
; 961  :         }
; 962  :     }
; 963  : }

  00000	c2 00 00	 ret	 0
??$_Destroy_range@V?$allocator@PAVCTextureAnimationCWDecorator@NEffectUpdateDecorator@@@std@@@std@@YAXPAPAVCTextureAnimationCWDecorator@NEffectUpdateDecorator@@QAPAV12@AAV?$allocator@PAVCTextureAnimationCWDecorator@NEffectUpdateDecorator@@@0@@Z ENDP ; std::_Destroy_range<std::allocator<NEffectUpdateDecorator::CTextureAnimationCWDecorator *> >
_TEXT	ENDS
; Function compile flags: /Ogtp
; File C:\Program Files (x86)\Microsoft Visual Studio\2019\Community\VC\Tools\MSVC\14.27.29110\include\xmemory
;	COMDAT ??$_Destroy_range@V?$allocator@PAVCNullDecorator@NEffectUpdateDecorator@@@std@@@std@@YAXPAPAVCNullDecorator@NEffectUpdateDecorator@@QAPAV12@AAV?$allocator@PAVCNullDecorator@NEffectUpdateDecorator@@@0@@Z
_TEXT	SEGMENT
__First$ = 8						; size = 4
__Last$ = 12						; size = 4
__Al$ = 16						; size = 4
??$_Destroy_range@V?$allocator@PAVCNullDecorator@NEffectUpdateDecorator@@@std@@@std@@YAXPAPAVCNullDecorator@NEffectUpdateDecorator@@QAPAV12@AAV?$allocator@PAVCNullDecorator@NEffectUpdateDecorator@@@0@@Z PROC ; std::_Destroy_range<std::allocator<NEffectUpdateDecorator::CNullDecorator *> >, COMDAT

; 956  :     // note that this is an optimization for debug mode codegen; in release mode the BE removes all of this
; 957  :     using _Ty = typename _Alloc::value_type;
; 958  :     if _CONSTEXPR_IF (!conjunction_v<is_trivially_destructible<_Ty>, _Uses_default_destroy<_Alloc, _Ty*>>) {
; 959  :         for (; _First != _Last; ++_First) {
; 960  :             allocator_traits<_Alloc>::destroy(_Al, _Unfancy(_First));
; 961  :         }
; 962  :     }
; 963  : }

  00000	c2 00 00	 ret	 0
??$_Destroy_range@V?$allocator@PAVCNullDecorator@NEffectUpdateDecorator@@@std@@@std@@YAXPAPAVCNullDecorator@NEffectUpdateDecorator@@QAPAV12@AAV?$allocator@PAVCNullDecorator@NEffectUpdateDecorator@@@0@@Z ENDP ; std::_Destroy_range<std::allocator<NEffectUpdateDecorator::CNullDecorator *> >
_TEXT	ENDS
; Function compile flags: /Ogtp
; File C:\Program Files (x86)\Microsoft Visual Studio\2019\Community\VC\Tools\MSVC\14.27.29110\include\xmemory
;	COMDAT ??$_Destroy_range@V?$allocator@PAVCHeaderDecorator@NEffectUpdateDecorator@@@std@@@std@@YAXPAPAVCHeaderDecorator@NEffectUpdateDecorator@@QAPAV12@AAV?$allocator@PAVCHeaderDecorator@NEffectUpdateDecorator@@@0@@Z
_TEXT	SEGMENT
__First$ = 8						; size = 4
__Last$ = 12						; size = 4
__Al$ = 16						; size = 4
??$_Destroy_range@V?$allocator@PAVCHeaderDecorator@NEffectUpdateDecorator@@@std@@@std@@YAXPAPAVCHeaderDecorator@NEffectUpdateDecorator@@QAPAV12@AAV?$allocator@PAVCHeaderDecorator@NEffectUpdateDecorator@@@0@@Z PROC ; std::_Destroy_range<std::allocator<NEffectUpdateDecorator::CHeaderDecorator *> >, COMDAT

; 956  :     // note that this is an optimization for debug mode codegen; in release mode the BE removes all of this
; 957  :     using _Ty = typename _Alloc::value_type;
; 958  :     if _CONSTEXPR_IF (!conjunction_v<is_trivially_destructible<_Ty>, _Uses_default_destroy<_Alloc, _Ty*>>) {
; 959  :         for (; _First != _Last; ++_First) {
; 960  :             allocator_traits<_Alloc>::destroy(_Al, _Unfancy(_First));
; 961  :         }
; 962  :     }
; 963  : }

  00000	c2 00 00	 ret	 0
??$_Destroy_range@V?$allocator@PAVCHeaderDecorator@NEffectUpdateDecorator@@@std@@@std@@YAXPAPAVCHeaderDecorator@NEffectUpdateDecorator@@QAPAV12@AAV?$allocator@PAVCHeaderDecorator@NEffectUpdateDecorator@@@0@@Z ENDP ; std::_Destroy_range<std::allocator<NEffectUpdateDecorator::CHeaderDecorator *> >
_TEXT	ENDS
; Function compile flags: /Ogtp
;	COMDAT ??_G?$CDynamicPoolEx@VCHeaderDecorator@NEffectUpdateDecorator@@@@UAEPAXI@Z
_TEXT	SEGMENT
___flags$ = 8						; size = 4
??_G?$CDynamicPoolEx@VCHeaderDecorator@NEffectUpdateDecorator@@@@UAEPAXI@Z PROC ; CDynamicPoolEx<NEffectUpdateDecorator::CHeaderDecorator>::`scalar deleting destructor', COMDAT
; _this$ = ecx
  00000	55		 push	 ebp
  00001	8b ec		 mov	 ebp, esp
  00003	56		 push	 esi
  00004	8b f1		 mov	 esi, ecx
  00006	e8 00 00 00 00	 call	 ??1?$CDynamicPoolEx@VCHeaderDecorator@NEffectUpdateDecorator@@@@UAE@XZ ; CDynamicPoolEx<NEffectUpdateDecorator::CHeaderDecorator>::~CDynamicPoolEx<NEffectUpdateDecorator::CHeaderDecorator>
  0000b	f6 45 08 01	 test	 BYTE PTR ___flags$[ebp], 1
  0000f	74 0b		 je	 SHORT $LN4@scalar
  00011	6a 24		 push	 36			; 00000024H
  00013	56		 push	 esi
  00014	e8 00 00 00 00	 call	 ??3@YAXPAXI@Z		; operator delete
  00019	83 c4 08	 add	 esp, 8
$LN4@scalar:
  0001c	8b c6		 mov	 eax, esi
  0001e	5e		 pop	 esi
  0001f	5d		 pop	 ebp
  00020	c2 04 00	 ret	 4
??_G?$CDynamicPoolEx@VCHeaderDecorator@NEffectUpdateDecorator@@@@UAEPAXI@Z ENDP ; CDynamicPoolEx<NEffectUpdateDecorator::CHeaderDecorator>::`scalar deleting destructor'
_TEXT	ENDS
; Function compile flags: /Ogtp
; File C:\DS Project\DS Files\Source\ClientSource\Client\eterLib\Pool.h
;	COMDAT ?Delete@?$CDynamicPoolEx@VCHeaderDecorator@NEffectUpdateDecorator@@@@KAXPAVCHeaderDecorator@NEffectUpdateDecorator@@@Z
_TEXT	SEGMENT
_pkData$ = 8						; size = 4
?Delete@?$CDynamicPoolEx@VCHeaderDecorator@NEffectUpdateDecorator@@@@KAXPAVCHeaderDecorator@NEffectUpdateDecorator@@@Z PROC ; CDynamicPoolEx<NEffectUpdateDecorator::CHeaderDecorator>::Delete, COMDAT

; 224  : 			::operator delete(pkData);

  00000	e9 00 00 00 00	 jmp	 ??3@YAXPAX@Z		; operator delete
?Delete@?$CDynamicPoolEx@VCHeaderDecorator@NEffectUpdateDecorator@@@@KAXPAVCHeaderDecorator@NEffectUpdateDecorator@@@Z ENDP ; CDynamicPoolEx<NEffectUpdateDecorator::CHeaderDecorator>::Delete
_TEXT	ENDS
; Function compile flags: /Ogtp
; File C:\DS Project\DS Files\Source\ClientSource\Client\eterLib\Pool.h
; File C:\Program Files (x86)\Microsoft Visual Studio\2019\Community\VC\Tools\MSVC\14.27.29110\include\vector
; File C:\Program Files (x86)\Microsoft Visual Studio\2019\Community\VC\Tools\MSVC\14.27.29110\include\algorithm
; File C:\DS Project\DS Files\Source\ClientSource\Client\eterLib\Pool.h
; File C:\Program Files (x86)\Microsoft Visual Studio\2019\Community\VC\Tools\MSVC\14.27.29110\include\algorithm
; File C:\DS Project\DS Files\Source\ClientSource\Client\eterLib\Pool.h
; File C:\Program Files (x86)\Microsoft Visual Studio\2019\Community\VC\Tools\MSVC\14.27.29110\include\algorithm
; File C:\DS Project\DS Files\Source\ClientSource\Client\eterLib\Pool.h
; File C:\Program Files (x86)\Microsoft Visual Studio\2019\Community\VC\Tools\MSVC\14.27.29110\include\vector
; File C:\Program Files (x86)\Microsoft Visual Studio\2019\Community\VC\Tools\MSVC\14.27.29110\include\xmemory
; File C:\Program Files (x86)\Microsoft Visual Studio\2019\Community\VC\Tools\MSVC\14.27.29110\include\vector
; File C:\Program Files (x86)\Microsoft Visual Studio\2019\Community\VC\Tools\MSVC\14.27.29110\include\xmemory
; File C:\Program Files (x86)\Microsoft Visual Studio\2019\Community\VC\Tools\MSVC\14.27.29110\include\vector
; File C:\Program Files (x86)\Microsoft Visual Studio\2019\Community\VC\Tools\MSVC\14.27.29110\include\xmemory
; File C:\Program Files (x86)\Microsoft Visual Studio\2019\Community\VC\Tools\MSVC\14.27.29110\include\vector
; File C:\Program Files (x86)\Microsoft Visual Studio\2019\Community\VC\Tools\MSVC\14.27.29110\include\xmemory
; File C:\Program Files (x86)\Microsoft Visual Studio\2019\Community\VC\Tools\MSVC\14.27.29110\include\vector
; File C:\DS Project\DS Files\Source\ClientSource\Client\eterLib\Pool.h
;	COMDAT ??1?$CDynamicPoolEx@VCHeaderDecorator@NEffectUpdateDecorator@@@@UAE@XZ
_TEXT	SEGMENT
??1?$CDynamicPoolEx@VCHeaderDecorator@NEffectUpdateDecorator@@@@UAE@XZ PROC ; CDynamicPoolEx<NEffectUpdateDecorator::CHeaderDecorator>::~CDynamicPoolEx<NEffectUpdateDecorator::CHeaderDecorator>, COMDAT
; _this$ = ecx

; 132  : 		{

  00000	53		 push	 ebx
  00001	56		 push	 esi
  00002	57		 push	 edi
  00003	8b f9		 mov	 edi, ecx
  00005	c7 07 00 00 00
	00		 mov	 DWORD PTR [edi], OFFSET ??_7?$CDynamicPoolEx@VCHeaderDecorator@NEffectUpdateDecorator@@@@6B@
; File C:\Program Files (x86)\Microsoft Visual Studio\2019\Community\VC\Tools\MSVC\14.27.29110\include\vector

; 42   :     _Vector_const_iterator(_Tptr _Parg, const _Container_base* _Pvector) noexcept : _Ptr(_Parg) {

  0000b	8b 5f 08	 mov	 ebx, DWORD PTR [edi+8]
  0000e	8b 77 04	 mov	 esi, DWORD PTR [edi+4]
; File C:\Program Files (x86)\Microsoft Visual Studio\2019\Community\VC\Tools\MSVC\14.27.29110\include\algorithm

; 235  :     for (; _UFirst != _ULast; ++_UFirst) {

  00011	3b f3		 cmp	 esi, ebx
  00013	74 14		 je	 SHORT $LN19@CDynamicPo
$LL20@CDynamicPo:
; File C:\DS Project\DS Files\Source\ClientSource\Client\eterLib\Pool.h

; 224  : 			::operator delete(pkData);

  00015	ff 36		 push	 DWORD PTR [esi]
  00017	e8 00 00 00 00	 call	 ??3@YAXPAX@Z		; operator delete
; File C:\Program Files (x86)\Microsoft Visual Studio\2019\Community\VC\Tools\MSVC\14.27.29110\include\algorithm

; 235  :     for (; _UFirst != _ULast; ++_UFirst) {

  0001c	83 c6 04	 add	 esi, 4
; File C:\DS Project\DS Files\Source\ClientSource\Client\eterLib\Pool.h

; 224  : 			::operator delete(pkData);

  0001f	83 c4 04	 add	 esp, 4
; File C:\Program Files (x86)\Microsoft Visual Studio\2019\Community\VC\Tools\MSVC\14.27.29110\include\algorithm

; 235  :     for (; _UFirst != _ULast; ++_UFirst) {

  00022	3b f3		 cmp	 esi, ebx
  00024	75 ef		 jne	 SHORT $LL20@CDynamicPo
  00026	8b 77 04	 mov	 esi, DWORD PTR [edi+4]
$LN19@CDynamicPo:
; File C:\DS Project\DS Files\Source\ClientSource\Client\eterLib\Pool.h

; 162  : 			m_kVct_pkFree.clear();

  00029	8b 4f 10	 mov	 ecx, DWORD PTR [edi+16]
  0002c	89 77 08	 mov	 DWORD PTR [edi+8], esi
  0002f	89 4f 14	 mov	 DWORD PTR [edi+20], ecx
; File C:\Program Files (x86)\Microsoft Visual Studio\2019\Community\VC\Tools\MSVC\14.27.29110\include\vector

; 1693 :         if (_Myfirst) { // destroy and deallocate old array

  00032	85 c9		 test	 ecx, ecx
  00034	74 27		 je	 SHORT $LN27@CDynamicPo

; 1694 :             _Destroy(_Myfirst, _Mylast);
; 1695 :             _Getal().deallocate(_Myfirst, static_cast<size_type>(_Myend - _Myfirst));

  00036	8b 47 18	 mov	 eax, DWORD PTR [edi+24]
  00039	2b c1		 sub	 eax, ecx
; File C:\Program Files (x86)\Microsoft Visual Studio\2019\Community\VC\Tools\MSVC\14.27.29110\include\xmemory

; 803  :         _Deallocate<_New_alignof<_Ty>>(_Ptr, sizeof(_Ty) * _Count);

  0003b	83 e0 fc	 and	 eax, -4			; fffffffcH
  0003e	50		 push	 eax
  0003f	51		 push	 ecx
  00040	e8 00 00 00 00	 call	 ??$_Deallocate@$07$0A@@std@@YAXPAXI@Z ; std::_Deallocate<8,0>
; File C:\Program Files (x86)\Microsoft Visual Studio\2019\Community\VC\Tools\MSVC\14.27.29110\include\vector

; 1697 :             _Myfirst = pointer();

  00045	c7 47 10 00 00
	00 00		 mov	 DWORD PTR [edi+16], 0
; File C:\Program Files (x86)\Microsoft Visual Studio\2019\Community\VC\Tools\MSVC\14.27.29110\include\xmemory

; 803  :         _Deallocate<_New_alignof<_Ty>>(_Ptr, sizeof(_Ty) * _Count);

  0004c	83 c4 08	 add	 esp, 8
; File C:\Program Files (x86)\Microsoft Visual Studio\2019\Community\VC\Tools\MSVC\14.27.29110\include\vector

; 1698 :             _Mylast  = pointer();

  0004f	c7 47 14 00 00
	00 00		 mov	 DWORD PTR [edi+20], 0

; 1699 :             _Myend   = pointer();

  00056	c7 47 18 00 00
	00 00		 mov	 DWORD PTR [edi+24], 0
$LN27@CDynamicPo:

; 1693 :         if (_Myfirst) { // destroy and deallocate old array

  0005d	8b 4f 04	 mov	 ecx, DWORD PTR [edi+4]
  00060	85 c9		 test	 ecx, ecx
  00062	74 27		 je	 SHORT $LN34@CDynamicPo

; 1694 :             _Destroy(_Myfirst, _Mylast);
; 1695 :             _Getal().deallocate(_Myfirst, static_cast<size_type>(_Myend - _Myfirst));

  00064	8b 47 0c	 mov	 eax, DWORD PTR [edi+12]
  00067	2b c1		 sub	 eax, ecx
; File C:\Program Files (x86)\Microsoft Visual Studio\2019\Community\VC\Tools\MSVC\14.27.29110\include\xmemory

; 803  :         _Deallocate<_New_alignof<_Ty>>(_Ptr, sizeof(_Ty) * _Count);

  00069	83 e0 fc	 and	 eax, -4			; fffffffcH
  0006c	50		 push	 eax
  0006d	51		 push	 ecx
  0006e	e8 00 00 00 00	 call	 ??$_Deallocate@$07$0A@@std@@YAXPAXI@Z ; std::_Deallocate<8,0>
; File C:\Program Files (x86)\Microsoft Visual Studio\2019\Community\VC\Tools\MSVC\14.27.29110\include\vector

; 1697 :             _Myfirst = pointer();

  00073	c7 47 04 00 00
	00 00		 mov	 DWORD PTR [edi+4], 0
; File C:\Program Files (x86)\Microsoft Visual Studio\2019\Community\VC\Tools\MSVC\14.27.29110\include\xmemory

; 803  :         _Deallocate<_New_alignof<_Ty>>(_Ptr, sizeof(_Ty) * _Count);

  0007a	83 c4 08	 add	 esp, 8
; File C:\Program Files (x86)\Microsoft Visual Studio\2019\Community\VC\Tools\MSVC\14.27.29110\include\vector

; 1698 :             _Mylast  = pointer();

  0007d	c7 47 08 00 00
	00 00		 mov	 DWORD PTR [edi+8], 0

; 1699 :             _Myend   = pointer();

  00084	c7 47 0c 00 00
	00 00		 mov	 DWORD PTR [edi+12], 0
$LN34@CDynamicPo:
  0008b	5f		 pop	 edi
; File C:\DS Project\DS Files\Source\ClientSource\Client\eterLib\Pool.h

; 142  : 		}

  0008c	5e		 pop	 esi
  0008d	5b		 pop	 ebx
  0008e	c3		 ret	 0
??1?$CDynamicPoolEx@VCHeaderDecorator@NEffectUpdateDecorator@@@@UAE@XZ ENDP ; CDynamicPoolEx<NEffectUpdateDecorator::CHeaderDecorator>::~CDynamicPoolEx<NEffectUpdateDecorator::CHeaderDecorator>
_TEXT	ENDS
; Function compile flags: /Ogtp
;	COMDAT ??_G?$CDynamicPoolEx@VCNullDecorator@NEffectUpdateDecorator@@@@UAEPAXI@Z
_TEXT	SEGMENT
___flags$ = 8						; size = 4
??_G?$CDynamicPoolEx@VCNullDecorator@NEffectUpdateDecorator@@@@UAEPAXI@Z PROC ; CDynamicPoolEx<NEffectUpdateDecorator::CNullDecorator>::`scalar deleting destructor', COMDAT
; _this$ = ecx
  00000	55		 push	 ebp
  00001	8b ec		 mov	 ebp, esp
  00003	56		 push	 esi
  00004	8b f1		 mov	 esi, ecx
  00006	e8 00 00 00 00	 call	 ??1?$CDynamicPoolEx@VCNullDecorator@NEffectUpdateDecorator@@@@UAE@XZ ; CDynamicPoolEx<NEffectUpdateDecorator::CNullDecorator>::~CDynamicPoolEx<NEffectUpdateDecorator::CNullDecorator>
  0000b	f6 45 08 01	 test	 BYTE PTR ___flags$[ebp], 1
  0000f	74 0b		 je	 SHORT $LN4@scalar
  00011	6a 24		 push	 36			; 00000024H
  00013	56		 push	 esi
  00014	e8 00 00 00 00	 call	 ??3@YAXPAXI@Z		; operator delete
  00019	83 c4 08	 add	 esp, 8
$LN4@scalar:
  0001c	8b c6		 mov	 eax, esi
  0001e	5e		 pop	 esi
  0001f	5d		 pop	 ebp
  00020	c2 04 00	 ret	 4
??_G?$CDynamicPoolEx@VCNullDecorator@NEffectUpdateDecorator@@@@UAEPAXI@Z ENDP ; CDynamicPoolEx<NEffectUpdateDecorator::CNullDecorator>::`scalar deleting destructor'
_TEXT	ENDS
; Function compile flags: /Ogtp
; File C:\DS Project\DS Files\Source\ClientSource\Client\eterLib\Pool.h
;	COMDAT ?Delete@?$CDynamicPoolEx@VCNullDecorator@NEffectUpdateDecorator@@@@KAXPAVCNullDecorator@NEffectUpdateDecorator@@@Z
_TEXT	SEGMENT
_pkData$ = 8						; size = 4
?Delete@?$CDynamicPoolEx@VCNullDecorator@NEffectUpdateDecorator@@@@KAXPAVCNullDecorator@NEffectUpdateDecorator@@@Z PROC ; CDynamicPoolEx<NEffectUpdateDecorator::CNullDecorator>::Delete, COMDAT

; 224  : 			::operator delete(pkData);

  00000	e9 00 00 00 00	 jmp	 ??3@YAXPAX@Z		; operator delete
?Delete@?$CDynamicPoolEx@VCNullDecorator@NEffectUpdateDecorator@@@@KAXPAVCNullDecorator@NEffectUpdateDecorator@@@Z ENDP ; CDynamicPoolEx<NEffectUpdateDecorator::CNullDecorator>::Delete
_TEXT	ENDS
; Function compile flags: /Ogtp
; File C:\DS Project\DS Files\Source\ClientSource\Client\eterLib\Pool.h
; File C:\Program Files (x86)\Microsoft Visual Studio\2019\Community\VC\Tools\MSVC\14.27.29110\include\vector
; File C:\Program Files (x86)\Microsoft Visual Studio\2019\Community\VC\Tools\MSVC\14.27.29110\include\algorithm
; File C:\DS Project\DS Files\Source\ClientSource\Client\eterLib\Pool.h
; File C:\Program Files (x86)\Microsoft Visual Studio\2019\Community\VC\Tools\MSVC\14.27.29110\include\algorithm
; File C:\DS Project\DS Files\Source\ClientSource\Client\eterLib\Pool.h
; File C:\Program Files (x86)\Microsoft Visual Studio\2019\Community\VC\Tools\MSVC\14.27.29110\include\algorithm
; File C:\DS Project\DS Files\Source\ClientSource\Client\eterLib\Pool.h
; File C:\Program Files (x86)\Microsoft Visual Studio\2019\Community\VC\Tools\MSVC\14.27.29110\include\vector
; File C:\Program Files (x86)\Microsoft Visual Studio\2019\Community\VC\Tools\MSVC\14.27.29110\include\xmemory
; File C:\Program Files (x86)\Microsoft Visual Studio\2019\Community\VC\Tools\MSVC\14.27.29110\include\vector
; File C:\Program Files (x86)\Microsoft Visual Studio\2019\Community\VC\Tools\MSVC\14.27.29110\include\xmemory
; File C:\Program Files (x86)\Microsoft Visual Studio\2019\Community\VC\Tools\MSVC\14.27.29110\include\vector
; File C:\Program Files (x86)\Microsoft Visual Studio\2019\Community\VC\Tools\MSVC\14.27.29110\include\xmemory
; File C:\Program Files (x86)\Microsoft Visual Studio\2019\Community\VC\Tools\MSVC\14.27.29110\include\vector
; File C:\Program Files (x86)\Microsoft Visual Studio\2019\Community\VC\Tools\MSVC\14.27.29110\include\xmemory
; File C:\Program Files (x86)\Microsoft Visual Studio\2019\Community\VC\Tools\MSVC\14.27.29110\include\vector
; File C:\DS Project\DS Files\Source\ClientSource\Client\eterLib\Pool.h
;	COMDAT ??1?$CDynamicPoolEx@VCNullDecorator@NEffectUpdateDecorator@@@@UAE@XZ
_TEXT	SEGMENT
??1?$CDynamicPoolEx@VCNullDecorator@NEffectUpdateDecorator@@@@UAE@XZ PROC ; CDynamicPoolEx<NEffectUpdateDecorator::CNullDecorator>::~CDynamicPoolEx<NEffectUpdateDecorator::CNullDecorator>, COMDAT
; _this$ = ecx

; 132  : 		{

  00000	53		 push	 ebx
  00001	56		 push	 esi
  00002	57		 push	 edi
  00003	8b f9		 mov	 edi, ecx
  00005	c7 07 00 00 00
	00		 mov	 DWORD PTR [edi], OFFSET ??_7?$CDynamicPoolEx@VCNullDecorator@NEffectUpdateDecorator@@@@6B@
; File C:\Program Files (x86)\Microsoft Visual Studio\2019\Community\VC\Tools\MSVC\14.27.29110\include\vector

; 42   :     _Vector_const_iterator(_Tptr _Parg, const _Container_base* _Pvector) noexcept : _Ptr(_Parg) {

  0000b	8b 5f 08	 mov	 ebx, DWORD PTR [edi+8]
  0000e	8b 77 04	 mov	 esi, DWORD PTR [edi+4]
; File C:\Program Files (x86)\Microsoft Visual Studio\2019\Community\VC\Tools\MSVC\14.27.29110\include\algorithm

; 235  :     for (; _UFirst != _ULast; ++_UFirst) {

  00011	3b f3		 cmp	 esi, ebx
  00013	74 14		 je	 SHORT $LN19@CDynamicPo
$LL20@CDynamicPo:
; File C:\DS Project\DS Files\Source\ClientSource\Client\eterLib\Pool.h

; 224  : 			::operator delete(pkData);

  00015	ff 36		 push	 DWORD PTR [esi]
  00017	e8 00 00 00 00	 call	 ??3@YAXPAX@Z		; operator delete
; File C:\Program Files (x86)\Microsoft Visual Studio\2019\Community\VC\Tools\MSVC\14.27.29110\include\algorithm

; 235  :     for (; _UFirst != _ULast; ++_UFirst) {

  0001c	83 c6 04	 add	 esi, 4
; File C:\DS Project\DS Files\Source\ClientSource\Client\eterLib\Pool.h

; 224  : 			::operator delete(pkData);

  0001f	83 c4 04	 add	 esp, 4
; File C:\Program Files (x86)\Microsoft Visual Studio\2019\Community\VC\Tools\MSVC\14.27.29110\include\algorithm

; 235  :     for (; _UFirst != _ULast; ++_UFirst) {

  00022	3b f3		 cmp	 esi, ebx
  00024	75 ef		 jne	 SHORT $LL20@CDynamicPo
  00026	8b 77 04	 mov	 esi, DWORD PTR [edi+4]
$LN19@CDynamicPo:
; File C:\DS Project\DS Files\Source\ClientSource\Client\eterLib\Pool.h

; 162  : 			m_kVct_pkFree.clear();

  00029	8b 4f 10	 mov	 ecx, DWORD PTR [edi+16]
  0002c	89 77 08	 mov	 DWORD PTR [edi+8], esi
  0002f	89 4f 14	 mov	 DWORD PTR [edi+20], ecx
; File C:\Program Files (x86)\Microsoft Visual Studio\2019\Community\VC\Tools\MSVC\14.27.29110\include\vector

; 1693 :         if (_Myfirst) { // destroy and deallocate old array

  00032	85 c9		 test	 ecx, ecx
  00034	74 27		 je	 SHORT $LN27@CDynamicPo

; 1694 :             _Destroy(_Myfirst, _Mylast);
; 1695 :             _Getal().deallocate(_Myfirst, static_cast<size_type>(_Myend - _Myfirst));

  00036	8b 47 18	 mov	 eax, DWORD PTR [edi+24]
  00039	2b c1		 sub	 eax, ecx
; File C:\Program Files (x86)\Microsoft Visual Studio\2019\Community\VC\Tools\MSVC\14.27.29110\include\xmemory

; 803  :         _Deallocate<_New_alignof<_Ty>>(_Ptr, sizeof(_Ty) * _Count);

  0003b	83 e0 fc	 and	 eax, -4			; fffffffcH
  0003e	50		 push	 eax
  0003f	51		 push	 ecx
  00040	e8 00 00 00 00	 call	 ??$_Deallocate@$07$0A@@std@@YAXPAXI@Z ; std::_Deallocate<8,0>
; File C:\Program Files (x86)\Microsoft Visual Studio\2019\Community\VC\Tools\MSVC\14.27.29110\include\vector

; 1697 :             _Myfirst = pointer();

  00045	c7 47 10 00 00
	00 00		 mov	 DWORD PTR [edi+16], 0
; File C:\Program Files (x86)\Microsoft Visual Studio\2019\Community\VC\Tools\MSVC\14.27.29110\include\xmemory

; 803  :         _Deallocate<_New_alignof<_Ty>>(_Ptr, sizeof(_Ty) * _Count);

  0004c	83 c4 08	 add	 esp, 8
; File C:\Program Files (x86)\Microsoft Visual Studio\2019\Community\VC\Tools\MSVC\14.27.29110\include\vector

; 1698 :             _Mylast  = pointer();

  0004f	c7 47 14 00 00
	00 00		 mov	 DWORD PTR [edi+20], 0

; 1699 :             _Myend   = pointer();

  00056	c7 47 18 00 00
	00 00		 mov	 DWORD PTR [edi+24], 0
$LN27@CDynamicPo:

; 1693 :         if (_Myfirst) { // destroy and deallocate old array

  0005d	8b 4f 04	 mov	 ecx, DWORD PTR [edi+4]
  00060	85 c9		 test	 ecx, ecx
  00062	74 27		 je	 SHORT $LN34@CDynamicPo

; 1694 :             _Destroy(_Myfirst, _Mylast);
; 1695 :             _Getal().deallocate(_Myfirst, static_cast<size_type>(_Myend - _Myfirst));

  00064	8b 47 0c	 mov	 eax, DWORD PTR [edi+12]
  00067	2b c1		 sub	 eax, ecx
; File C:\Program Files (x86)\Microsoft Visual Studio\2019\Community\VC\Tools\MSVC\14.27.29110\include\xmemory

; 803  :         _Deallocate<_New_alignof<_Ty>>(_Ptr, sizeof(_Ty) * _Count);

  00069	83 e0 fc	 and	 eax, -4			; fffffffcH
  0006c	50		 push	 eax
  0006d	51		 push	 ecx
  0006e	e8 00 00 00 00	 call	 ??$_Deallocate@$07$0A@@std@@YAXPAXI@Z ; std::_Deallocate<8,0>
; File C:\Program Files (x86)\Microsoft Visual Studio\2019\Community\VC\Tools\MSVC\14.27.29110\include\vector

; 1697 :             _Myfirst = pointer();

  00073	c7 47 04 00 00
	00 00		 mov	 DWORD PTR [edi+4], 0
; File C:\Program Files (x86)\Microsoft Visual Studio\2019\Community\VC\Tools\MSVC\14.27.29110\include\xmemory

; 803  :         _Deallocate<_New_alignof<_Ty>>(_Ptr, sizeof(_Ty) * _Count);

  0007a	83 c4 08	 add	 esp, 8
; File C:\Program Files (x86)\Microsoft Visual Studio\2019\Community\VC\Tools\MSVC\14.27.29110\include\vector

; 1698 :             _Mylast  = pointer();

  0007d	c7 47 08 00 00
	00 00		 mov	 DWORD PTR [edi+8], 0

; 1699 :             _Myend   = pointer();

  00084	c7 47 0c 00 00
	00 00		 mov	 DWORD PTR [edi+12], 0
$LN34@CDynamicPo:
  0008b	5f		 pop	 edi
; File C:\DS Project\DS Files\Source\ClientSource\Client\eterLib\Pool.h

; 142  : 		}

  0008c	5e		 pop	 esi
  0008d	5b		 pop	 ebx
  0008e	c3		 ret	 0
??1?$CDynamicPoolEx@VCNullDecorator@NEffectUpdateDecorator@@@@UAE@XZ ENDP ; CDynamicPoolEx<NEffectUpdateDecorator::CNullDecorator>::~CDynamicPoolEx<NEffectUpdateDecorator::CNullDecorator>
_TEXT	ENDS
; Function compile flags: /Ogtp
;	COMDAT ??_G?$CDynamicPoolEx@VCTextureAnimationCWDecorator@NEffectUpdateDecorator@@@@UAEPAXI@Z
_TEXT	SEGMENT
___flags$ = 8						; size = 4
??_G?$CDynamicPoolEx@VCTextureAnimationCWDecorator@NEffectUpdateDecorator@@@@UAEPAXI@Z PROC ; CDynamicPoolEx<NEffectUpdateDecorator::CTextureAnimationCWDecorator>::`scalar deleting destructor', COMDAT
; _this$ = ecx
  00000	55		 push	 ebp
  00001	8b ec		 mov	 ebp, esp
  00003	56		 push	 esi
  00004	8b f1		 mov	 esi, ecx
  00006	e8 00 00 00 00	 call	 ??1?$CDynamicPoolEx@VCTextureAnimationCWDecorator@NEffectUpdateDecorator@@@@UAE@XZ ; CDynamicPoolEx<NEffectUpdateDecorator::CTextureAnimationCWDecorator>::~CDynamicPoolEx<NEffectUpdateDecorator::CTextureAnimationCWDecorator>
  0000b	f6 45 08 01	 test	 BYTE PTR ___flags$[ebp], 1
  0000f	74 0b		 je	 SHORT $LN4@scalar
  00011	6a 24		 push	 36			; 00000024H
  00013	56		 push	 esi
  00014	e8 00 00 00 00	 call	 ??3@YAXPAXI@Z		; operator delete
  00019	83 c4 08	 add	 esp, 8
$LN4@scalar:
  0001c	8b c6		 mov	 eax, esi
  0001e	5e		 pop	 esi
  0001f	5d		 pop	 ebp
  00020	c2 04 00	 ret	 4
??_G?$CDynamicPoolEx@VCTextureAnimationCWDecorator@NEffectUpdateDecorator@@@@UAEPAXI@Z ENDP ; CDynamicPoolEx<NEffectUpdateDecorator::CTextureAnimationCWDecorator>::`scalar deleting destructor'
_TEXT	ENDS
; Function compile flags: /Ogtp
; File C:\DS Project\DS Files\Source\ClientSource\Client\eterLib\Pool.h
;	COMDAT ?Delete@?$CDynamicPoolEx@VCTextureAnimationCWDecorator@NEffectUpdateDecorator@@@@KAXPAVCTextureAnimationCWDecorator@NEffectUpdateDecorator@@@Z
_TEXT	SEGMENT
_pkData$ = 8						; size = 4
?Delete@?$CDynamicPoolEx@VCTextureAnimationCWDecorator@NEffectUpdateDecorator@@@@KAXPAVCTextureAnimationCWDecorator@NEffectUpdateDecorator@@@Z PROC ; CDynamicPoolEx<NEffectUpdateDecorator::CTextureAnimationCWDecorator>::Delete, COMDAT

; 224  : 			::operator delete(pkData);

  00000	e9 00 00 00 00	 jmp	 ??3@YAXPAX@Z		; operator delete
?Delete@?$CDynamicPoolEx@VCTextureAnimationCWDecorator@NEffectUpdateDecorator@@@@KAXPAVCTextureAnimationCWDecorator@NEffectUpdateDecorator@@@Z ENDP ; CDynamicPoolEx<NEffectUpdateDecorator::CTextureAnimationCWDecorator>::Delete
_TEXT	ENDS
; Function compile flags: /Ogtp
; File C:\DS Project\DS Files\Source\ClientSource\Client\eterLib\Pool.h
; File C:\Program Files (x86)\Microsoft Visual Studio\2019\Community\VC\Tools\MSVC\14.27.29110\include\vector
; File C:\Program Files (x86)\Microsoft Visual Studio\2019\Community\VC\Tools\MSVC\14.27.29110\include\algorithm
; File C:\DS Project\DS Files\Source\ClientSource\Client\eterLib\Pool.h
; File C:\Program Files (x86)\Microsoft Visual Studio\2019\Community\VC\Tools\MSVC\14.27.29110\include\algorithm
; File C:\DS Project\DS Files\Source\ClientSource\Client\eterLib\Pool.h
; File C:\Program Files (x86)\Microsoft Visual Studio\2019\Community\VC\Tools\MSVC\14.27.29110\include\algorithm
; File C:\DS Project\DS Files\Source\ClientSource\Client\eterLib\Pool.h
; File C:\Program Files (x86)\Microsoft Visual Studio\2019\Community\VC\Tools\MSVC\14.27.29110\include\vector
; File C:\Program Files (x86)\Microsoft Visual Studio\2019\Community\VC\Tools\MSVC\14.27.29110\include\xmemory
; File C:\Program Files (x86)\Microsoft Visual Studio\2019\Community\VC\Tools\MSVC\14.27.29110\include\vector
; File C:\Program Files (x86)\Microsoft Visual Studio\2019\Community\VC\Tools\MSVC\14.27.29110\include\xmemory
; File C:\Program Files (x86)\Microsoft Visual Studio\2019\Community\VC\Tools\MSVC\14.27.29110\include\vector
; File C:\Program Files (x86)\Microsoft Visual Studio\2019\Community\VC\Tools\MSVC\14.27.29110\include\xmemory
; File C:\Program Files (x86)\Microsoft Visual Studio\2019\Community\VC\Tools\MSVC\14.27.29110\include\vector
; File C:\Program Files (x86)\Microsoft Visual Studio\2019\Community\VC\Tools\MSVC\14.27.29110\include\xmemory
; File C:\Program Files (x86)\Microsoft Visual Studio\2019\Community\VC\Tools\MSVC\14.27.29110\include\vector
; File C:\DS Project\DS Files\Source\ClientSource\Client\eterLib\Pool.h
;	COMDAT ??1?$CDynamicPoolEx@VCTextureAnimationCWDecorator@NEffectUpdateDecorator@@@@UAE@XZ
_TEXT	SEGMENT
??1?$CDynamicPoolEx@VCTextureAnimationCWDecorator@NEffectUpdateDecorator@@@@UAE@XZ PROC ; CDynamicPoolEx<NEffectUpdateDecorator::CTextureAnimationCWDecorator>::~CDynamicPoolEx<NEffectUpdateDecorator::CTextureAnimationCWDecorator>, COMDAT
; _this$ = ecx

; 132  : 		{

  00000	53		 push	 ebx
  00001	56		 push	 esi
  00002	57		 push	 edi
  00003	8b f9		 mov	 edi, ecx
  00005	c7 07 00 00 00
	00		 mov	 DWORD PTR [edi], OFFSET ??_7?$CDynamicPoolEx@VCTextureAnimationCWDecorator@NEffectUpdateDecorator@@@@6B@
; File C:\Program Files (x86)\Microsoft Visual Studio\2019\Community\VC\Tools\MSVC\14.27.29110\include\vector

; 42   :     _Vector_const_iterator(_Tptr _Parg, const _Container_base* _Pvector) noexcept : _Ptr(_Parg) {

  0000b	8b 5f 08	 mov	 ebx, DWORD PTR [edi+8]
  0000e	8b 77 04	 mov	 esi, DWORD PTR [edi+4]
; File C:\Program Files (x86)\Microsoft Visual Studio\2019\Community\VC\Tools\MSVC\14.27.29110\include\algorithm

; 235  :     for (; _UFirst != _ULast; ++_UFirst) {

  00011	3b f3		 cmp	 esi, ebx
  00013	74 14		 je	 SHORT $LN19@CDynamicPo
$LL20@CDynamicPo:
; File C:\DS Project\DS Files\Source\ClientSource\Client\eterLib\Pool.h

; 224  : 			::operator delete(pkData);

  00015	ff 36		 push	 DWORD PTR [esi]
  00017	e8 00 00 00 00	 call	 ??3@YAXPAX@Z		; operator delete
; File C:\Program Files (x86)\Microsoft Visual Studio\2019\Community\VC\Tools\MSVC\14.27.29110\include\algorithm

; 235  :     for (; _UFirst != _ULast; ++_UFirst) {

  0001c	83 c6 04	 add	 esi, 4
; File C:\DS Project\DS Files\Source\ClientSource\Client\eterLib\Pool.h

; 224  : 			::operator delete(pkData);

  0001f	83 c4 04	 add	 esp, 4
; File C:\Program Files (x86)\Microsoft Visual Studio\2019\Community\VC\Tools\MSVC\14.27.29110\include\algorithm

; 235  :     for (; _UFirst != _ULast; ++_UFirst) {

  00022	3b f3		 cmp	 esi, ebx
  00024	75 ef		 jne	 SHORT $LL20@CDynamicPo
  00026	8b 77 04	 mov	 esi, DWORD PTR [edi+4]
$LN19@CDynamicPo:
; File C:\DS Project\DS Files\Source\ClientSource\Client\eterLib\Pool.h

; 162  : 			m_kVct_pkFree.clear();

  00029	8b 4f 10	 mov	 ecx, DWORD PTR [edi+16]
  0002c	89 77 08	 mov	 DWORD PTR [edi+8], esi
  0002f	89 4f 14	 mov	 DWORD PTR [edi+20], ecx
; File C:\Program Files (x86)\Microsoft Visual Studio\2019\Community\VC\Tools\MSVC\14.27.29110\include\vector

; 1693 :         if (_Myfirst) { // destroy and deallocate old array

  00032	85 c9		 test	 ecx, ecx
  00034	74 27		 je	 SHORT $LN27@CDynamicPo

; 1694 :             _Destroy(_Myfirst, _Mylast);
; 1695 :             _Getal().deallocate(_Myfirst, static_cast<size_type>(_Myend - _Myfirst));

  00036	8b 47 18	 mov	 eax, DWORD PTR [edi+24]
  00039	2b c1		 sub	 eax, ecx
; File C:\Program Files (x86)\Microsoft Visual Studio\2019\Community\VC\Tools\MSVC\14.27.29110\include\xmemory

; 803  :         _Deallocate<_New_alignof<_Ty>>(_Ptr, sizeof(_Ty) * _Count);

  0003b	83 e0 fc	 and	 eax, -4			; fffffffcH
  0003e	50		 push	 eax
  0003f	51		 push	 ecx
  00040	e8 00 00 00 00	 call	 ??$_Deallocate@$07$0A@@std@@YAXPAXI@Z ; std::_Deallocate<8,0>
; File C:\Program Files (x86)\Microsoft Visual Studio\2019\Community\VC\Tools\MSVC\14.27.29110\include\vector

; 1697 :             _Myfirst = pointer();

  00045	c7 47 10 00 00
	00 00		 mov	 DWORD PTR [edi+16], 0
; File C:\Program Files (x86)\Microsoft Visual Studio\2019\Community\VC\Tools\MSVC\14.27.29110\include\xmemory

; 803  :         _Deallocate<_New_alignof<_Ty>>(_Ptr, sizeof(_Ty) * _Count);

  0004c	83 c4 08	 add	 esp, 8
; File C:\Program Files (x86)\Microsoft Visual Studio\2019\Community\VC\Tools\MSVC\14.27.29110\include\vector

; 1698 :             _Mylast  = pointer();

  0004f	c7 47 14 00 00
	00 00		 mov	 DWORD PTR [edi+20], 0

; 1699 :             _Myend   = pointer();

  00056	c7 47 18 00 00
	00 00		 mov	 DWORD PTR [edi+24], 0
$LN27@CDynamicPo:

; 1693 :         if (_Myfirst) { // destroy and deallocate old array

  0005d	8b 4f 04	 mov	 ecx, DWORD PTR [edi+4]
  00060	85 c9		 test	 ecx, ecx
  00062	74 27		 je	 SHORT $LN34@CDynamicPo

; 1694 :             _Destroy(_Myfirst, _Mylast);
; 1695 :             _Getal().deallocate(_Myfirst, static_cast<size_type>(_Myend - _Myfirst));

  00064	8b 47 0c	 mov	 eax, DWORD PTR [edi+12]
  00067	2b c1		 sub	 eax, ecx
; File C:\Program Files (x86)\Microsoft Visual Studio\2019\Community\VC\Tools\MSVC\14.27.29110\include\xmemory

; 803  :         _Deallocate<_New_alignof<_Ty>>(_Ptr, sizeof(_Ty) * _Count);

  00069	83 e0 fc	 and	 eax, -4			; fffffffcH
  0006c	50		 push	 eax
  0006d	51		 push	 ecx
  0006e	e8 00 00 00 00	 call	 ??$_Deallocate@$07$0A@@std@@YAXPAXI@Z ; std::_Deallocate<8,0>
; File C:\Program Files (x86)\Microsoft Visual Studio\2019\Community\VC\Tools\MSVC\14.27.29110\include\vector

; 1697 :             _Myfirst = pointer();

  00073	c7 47 04 00 00
	00 00		 mov	 DWORD PTR [edi+4], 0
; File C:\Program Files (x86)\Microsoft Visual Studio\2019\Community\VC\Tools\MSVC\14.27.29110\include\xmemory

; 803  :         _Deallocate<_New_alignof<_Ty>>(_Ptr, sizeof(_Ty) * _Count);

  0007a	83 c4 08	 add	 esp, 8
; File C:\Program Files (x86)\Microsoft Visual Studio\2019\Community\VC\Tools\MSVC\14.27.29110\include\vector

; 1698 :             _Mylast  = pointer();

  0007d	c7 47 08 00 00
	00 00		 mov	 DWORD PTR [edi+8], 0

; 1699 :             _Myend   = pointer();

  00084	c7 47 0c 00 00
	00 00		 mov	 DWORD PTR [edi+12], 0
$LN34@CDynamicPo:
  0008b	5f		 pop	 edi
; File C:\DS Project\DS Files\Source\ClientSource\Client\eterLib\Pool.h

; 142  : 		}

  0008c	5e		 pop	 esi
  0008d	5b		 pop	 ebx
  0008e	c3		 ret	 0
??1?$CDynamicPoolEx@VCTextureAnimationCWDecorator@NEffectUpdateDecorator@@@@UAE@XZ ENDP ; CDynamicPoolEx<NEffectUpdateDecorator::CTextureAnimationCWDecorator>::~CDynamicPoolEx<NEffectUpdateDecorator::CTextureAnimationCWDecorator>
_TEXT	ENDS
; Function compile flags: /Ogtp
;	COMDAT ??_G?$CDynamicPoolEx@VCTextureAnimationCCWDecorator@NEffectUpdateDecorator@@@@UAEPAXI@Z
_TEXT	SEGMENT
___flags$ = 8						; size = 4
??_G?$CDynamicPoolEx@VCTextureAnimationCCWDecorator@NEffectUpdateDecorator@@@@UAEPAXI@Z PROC ; CDynamicPoolEx<NEffectUpdateDecorator::CTextureAnimationCCWDecorator>::`scalar deleting destructor', COMDAT
; _this$ = ecx
  00000	55		 push	 ebp
  00001	8b ec		 mov	 ebp, esp
  00003	56		 push	 esi
  00004	8b f1		 mov	 esi, ecx
  00006	e8 00 00 00 00	 call	 ??1?$CDynamicPoolEx@VCTextureAnimationCCWDecorator@NEffectUpdateDecorator@@@@UAE@XZ ; CDynamicPoolEx<NEffectUpdateDecorator::CTextureAnimationCCWDecorator>::~CDynamicPoolEx<NEffectUpdateDecorator::CTextureAnimationCCWDecorator>
  0000b	f6 45 08 01	 test	 BYTE PTR ___flags$[ebp], 1
  0000f	74 0b		 je	 SHORT $LN4@scalar
  00011	6a 24		 push	 36			; 00000024H
  00013	56		 push	 esi
  00014	e8 00 00 00 00	 call	 ??3@YAXPAXI@Z		; operator delete
  00019	83 c4 08	 add	 esp, 8
$LN4@scalar:
  0001c	8b c6		 mov	 eax, esi
  0001e	5e		 pop	 esi
  0001f	5d		 pop	 ebp
  00020	c2 04 00	 ret	 4
??_G?$CDynamicPoolEx@VCTextureAnimationCCWDecorator@NEffectUpdateDecorator@@@@UAEPAXI@Z ENDP ; CDynamicPoolEx<NEffectUpdateDecorator::CTextureAnimationCCWDecorator>::`scalar deleting destructor'
_TEXT	ENDS
; Function compile flags: /Ogtp
; File C:\DS Project\DS Files\Source\ClientSource\Client\eterLib\Pool.h
;	COMDAT ?Delete@?$CDynamicPoolEx@VCTextureAnimationCCWDecorator@NEffectUpdateDecorator@@@@KAXPAVCTextureAnimationCCWDecorator@NEffectUpdateDecorator@@@Z
_TEXT	SEGMENT
_pkData$ = 8						; size = 4
?Delete@?$CDynamicPoolEx@VCTextureAnimationCCWDecorator@NEffectUpdateDecorator@@@@KAXPAVCTextureAnimationCCWDecorator@NEffectUpdateDecorator@@@Z PROC ; CDynamicPoolEx<NEffectUpdateDecorator::CTextureAnimationCCWDecorator>::Delete, COMDAT

; 224  : 			::operator delete(pkData);

  00000	e9 00 00 00 00	 jmp	 ??3@YAXPAX@Z		; operator delete
?Delete@?$CDynamicPoolEx@VCTextureAnimationCCWDecorator@NEffectUpdateDecorator@@@@KAXPAVCTextureAnimationCCWDecorator@NEffectUpdateDecorator@@@Z ENDP ; CDynamicPoolEx<NEffectUpdateDecorator::CTextureAnimationCCWDecorator>::Delete
_TEXT	ENDS
; Function compile flags: /Ogtp
; File C:\DS Project\DS Files\Source\ClientSource\Client\eterLib\Pool.h
; File C:\Program Files (x86)\Microsoft Visual Studio\2019\Community\VC\Tools\MSVC\14.27.29110\include\vector
; File C:\Program Files (x86)\Microsoft Visual Studio\2019\Community\VC\Tools\MSVC\14.27.29110\include\algorithm
; File C:\DS Project\DS Files\Source\ClientSource\Client\eterLib\Pool.h
; File C:\Program Files (x86)\Microsoft Visual Studio\2019\Community\VC\Tools\MSVC\14.27.29110\include\algorithm
; File C:\DS Project\DS Files\Source\ClientSource\Client\eterLib\Pool.h
; File C:\Program Files (x86)\Microsoft Visual Studio\2019\Community\VC\Tools\MSVC\14.27.29110\include\algorithm
; File C:\DS Project\DS Files\Source\ClientSource\Client\eterLib\Pool.h
; File C:\Program Files (x86)\Microsoft Visual Studio\2019\Community\VC\Tools\MSVC\14.27.29110\include\vector
; File C:\Program Files (x86)\Microsoft Visual Studio\2019\Community\VC\Tools\MSVC\14.27.29110\include\xmemory
; File C:\Program Files (x86)\Microsoft Visual Studio\2019\Community\VC\Tools\MSVC\14.27.29110\include\vector
; File C:\Program Files (x86)\Microsoft Visual Studio\2019\Community\VC\Tools\MSVC\14.27.29110\include\xmemory
; File C:\Program Files (x86)\Microsoft Visual Studio\2019\Community\VC\Tools\MSVC\14.27.29110\include\vector
; File C:\Program Files (x86)\Microsoft Visual Studio\2019\Community\VC\Tools\MSVC\14.27.29110\include\xmemory
; File C:\Program Files (x86)\Microsoft Visual Studio\2019\Community\VC\Tools\MSVC\14.27.29110\include\vector
; File C:\Program Files (x86)\Microsoft Visual Studio\2019\Community\VC\Tools\MSVC\14.27.29110\include\xmemory
; File C:\Program Files (x86)\Microsoft Visual Studio\2019\Community\VC\Tools\MSVC\14.27.29110\include\vector
; File C:\DS Project\DS Files\Source\ClientSource\Client\eterLib\Pool.h
;	COMDAT ??1?$CDynamicPoolEx@VCTextureAnimationCCWDecorator@NEffectUpdateDecorator@@@@UAE@XZ
_TEXT	SEGMENT
??1?$CDynamicPoolEx@VCTextureAnimationCCWDecorator@NEffectUpdateDecorator@@@@UAE@XZ PROC ; CDynamicPoolEx<NEffectUpdateDecorator::CTextureAnimationCCWDecorator>::~CDynamicPoolEx<NEffectUpdateDecorator::CTextureAnimationCCWDecorator>, COMDAT
; _this$ = ecx

; 132  : 		{

  00000	53		 push	 ebx
  00001	56		 push	 esi
  00002	57		 push	 edi
  00003	8b f9		 mov	 edi, ecx
  00005	c7 07 00 00 00
	00		 mov	 DWORD PTR [edi], OFFSET ??_7?$CDynamicPoolEx@VCTextureAnimationCCWDecorator@NEffectUpdateDecorator@@@@6B@
; File C:\Program Files (x86)\Microsoft Visual Studio\2019\Community\VC\Tools\MSVC\14.27.29110\include\vector

; 42   :     _Vector_const_iterator(_Tptr _Parg, const _Container_base* _Pvector) noexcept : _Ptr(_Parg) {

  0000b	8b 5f 08	 mov	 ebx, DWORD PTR [edi+8]
  0000e	8b 77 04	 mov	 esi, DWORD PTR [edi+4]
; File C:\Program Files (x86)\Microsoft Visual Studio\2019\Community\VC\Tools\MSVC\14.27.29110\include\algorithm

; 235  :     for (; _UFirst != _ULast; ++_UFirst) {

  00011	3b f3		 cmp	 esi, ebx
  00013	74 14		 je	 SHORT $LN19@CDynamicPo
$LL20@CDynamicPo:
; File C:\DS Project\DS Files\Source\ClientSource\Client\eterLib\Pool.h

; 224  : 			::operator delete(pkData);

  00015	ff 36		 push	 DWORD PTR [esi]
  00017	e8 00 00 00 00	 call	 ??3@YAXPAX@Z		; operator delete
; File C:\Program Files (x86)\Microsoft Visual Studio\2019\Community\VC\Tools\MSVC\14.27.29110\include\algorithm

; 235  :     for (; _UFirst != _ULast; ++_UFirst) {

  0001c	83 c6 04	 add	 esi, 4
; File C:\DS Project\DS Files\Source\ClientSource\Client\eterLib\Pool.h

; 224  : 			::operator delete(pkData);

  0001f	83 c4 04	 add	 esp, 4
; File C:\Program Files (x86)\Microsoft Visual Studio\2019\Community\VC\Tools\MSVC\14.27.29110\include\algorithm

; 235  :     for (; _UFirst != _ULast; ++_UFirst) {

  00022	3b f3		 cmp	 esi, ebx
  00024	75 ef		 jne	 SHORT $LL20@CDynamicPo
  00026	8b 77 04	 mov	 esi, DWORD PTR [edi+4]
$LN19@CDynamicPo:
; File C:\DS Project\DS Files\Source\ClientSource\Client\eterLib\Pool.h

; 162  : 			m_kVct_pkFree.clear();

  00029	8b 4f 10	 mov	 ecx, DWORD PTR [edi+16]
  0002c	89 77 08	 mov	 DWORD PTR [edi+8], esi
  0002f	89 4f 14	 mov	 DWORD PTR [edi+20], ecx
; File C:\Program Files (x86)\Microsoft Visual Studio\2019\Community\VC\Tools\MSVC\14.27.29110\include\vector

; 1693 :         if (_Myfirst) { // destroy and deallocate old array

  00032	85 c9		 test	 ecx, ecx
  00034	74 27		 je	 SHORT $LN27@CDynamicPo

; 1694 :             _Destroy(_Myfirst, _Mylast);
; 1695 :             _Getal().deallocate(_Myfirst, static_cast<size_type>(_Myend - _Myfirst));

  00036	8b 47 18	 mov	 eax, DWORD PTR [edi+24]
  00039	2b c1		 sub	 eax, ecx
; File C:\Program Files (x86)\Microsoft Visual Studio\2019\Community\VC\Tools\MSVC\14.27.29110\include\xmemory

; 803  :         _Deallocate<_New_alignof<_Ty>>(_Ptr, sizeof(_Ty) * _Count);

  0003b	83 e0 fc	 and	 eax, -4			; fffffffcH
  0003e	50		 push	 eax
  0003f	51		 push	 ecx
  00040	e8 00 00 00 00	 call	 ??$_Deallocate@$07$0A@@std@@YAXPAXI@Z ; std::_Deallocate<8,0>
; File C:\Program Files (x86)\Microsoft Visual Studio\2019\Community\VC\Tools\MSVC\14.27.29110\include\vector

; 1697 :             _Myfirst = pointer();

  00045	c7 47 10 00 00
	00 00		 mov	 DWORD PTR [edi+16], 0
; File C:\Program Files (x86)\Microsoft Visual Studio\2019\Community\VC\Tools\MSVC\14.27.29110\include\xmemory

; 803  :         _Deallocate<_New_alignof<_Ty>>(_Ptr, sizeof(_Ty) * _Count);

  0004c	83 c4 08	 add	 esp, 8
; File C:\Program Files (x86)\Microsoft Visual Studio\2019\Community\VC\Tools\MSVC\14.27.29110\include\vector

; 1698 :             _Mylast  = pointer();

  0004f	c7 47 14 00 00
	00 00		 mov	 DWORD PTR [edi+20], 0

; 1699 :             _Myend   = pointer();

  00056	c7 47 18 00 00
	00 00		 mov	 DWORD PTR [edi+24], 0
$LN27@CDynamicPo:

; 1693 :         if (_Myfirst) { // destroy and deallocate old array

  0005d	8b 4f 04	 mov	 ecx, DWORD PTR [edi+4]
  00060	85 c9		 test	 ecx, ecx
  00062	74 27		 je	 SHORT $LN34@CDynamicPo

; 1694 :             _Destroy(_Myfirst, _Mylast);
; 1695 :             _Getal().deallocate(_Myfirst, static_cast<size_type>(_Myend - _Myfirst));

  00064	8b 47 0c	 mov	 eax, DWORD PTR [edi+12]
  00067	2b c1		 sub	 eax, ecx
; File C:\Program Files (x86)\Microsoft Visual Studio\2019\Community\VC\Tools\MSVC\14.27.29110\include\xmemory

; 803  :         _Deallocate<_New_alignof<_Ty>>(_Ptr, sizeof(_Ty) * _Count);

  00069	83 e0 fc	 and	 eax, -4			; fffffffcH
  0006c	50		 push	 eax
  0006d	51		 push	 ecx
  0006e	e8 00 00 00 00	 call	 ??$_Deallocate@$07$0A@@std@@YAXPAXI@Z ; std::_Deallocate<8,0>
; File C:\Program Files (x86)\Microsoft Visual Studio\2019\Community\VC\Tools\MSVC\14.27.29110\include\vector

; 1697 :             _Myfirst = pointer();

  00073	c7 47 04 00 00
	00 00		 mov	 DWORD PTR [edi+4], 0
; File C:\Program Files (x86)\Microsoft Visual Studio\2019\Community\VC\Tools\MSVC\14.27.29110\include\xmemory

; 803  :         _Deallocate<_New_alignof<_Ty>>(_Ptr, sizeof(_Ty) * _Count);

  0007a	83 c4 08	 add	 esp, 8
; File C:\Program Files (x86)\Microsoft Visual Studio\2019\Community\VC\Tools\MSVC\14.27.29110\include\vector

; 1698 :             _Mylast  = pointer();

  0007d	c7 47 08 00 00
	00 00		 mov	 DWORD PTR [edi+8], 0

; 1699 :             _Myend   = pointer();

  00084	c7 47 0c 00 00
	00 00		 mov	 DWORD PTR [edi+12], 0
$LN34@CDynamicPo:
  0008b	5f		 pop	 edi
; File C:\DS Project\DS Files\Source\ClientSource\Client\eterLib\Pool.h

; 142  : 		}

  0008c	5e		 pop	 esi
  0008d	5b		 pop	 ebx
  0008e	c3		 ret	 0
??1?$CDynamicPoolEx@VCTextureAnimationCCWDecorator@NEffectUpdateDecorator@@@@UAE@XZ ENDP ; CDynamicPoolEx<NEffectUpdateDecorator::CTextureAnimationCCWDecorator>::~CDynamicPoolEx<NEffectUpdateDecorator::CTextureAnimationCCWDecorator>
_TEXT	ENDS
; Function compile flags: /Ogtp
;	COMDAT ??_G?$CDynamicPoolEx@VCTextureAnimationRandomDecorator@NEffectUpdateDecorator@@@@UAEPAXI@Z
_TEXT	SEGMENT
___flags$ = 8						; size = 4
??_G?$CDynamicPoolEx@VCTextureAnimationRandomDecorator@NEffectUpdateDecorator@@@@UAEPAXI@Z PROC ; CDynamicPoolEx<NEffectUpdateDecorator::CTextureAnimationRandomDecorator>::`scalar deleting destructor', COMDAT
; _this$ = ecx
  00000	55		 push	 ebp
  00001	8b ec		 mov	 ebp, esp
  00003	56		 push	 esi
  00004	8b f1		 mov	 esi, ecx
  00006	e8 00 00 00 00	 call	 ??1?$CDynamicPoolEx@VCTextureAnimationRandomDecorator@NEffectUpdateDecorator@@@@UAE@XZ ; CDynamicPoolEx<NEffectUpdateDecorator::CTextureAnimationRandomDecorator>::~CDynamicPoolEx<NEffectUpdateDecorator::CTextureAnimationRandomDecorator>
  0000b	f6 45 08 01	 test	 BYTE PTR ___flags$[ebp], 1
  0000f	74 0b		 je	 SHORT $LN4@scalar
  00011	6a 24		 push	 36			; 00000024H
  00013	56		 push	 esi
  00014	e8 00 00 00 00	 call	 ??3@YAXPAXI@Z		; operator delete
  00019	83 c4 08	 add	 esp, 8
$LN4@scalar:
  0001c	8b c6		 mov	 eax, esi
  0001e	5e		 pop	 esi
  0001f	5d		 pop	 ebp
  00020	c2 04 00	 ret	 4
??_G?$CDynamicPoolEx@VCTextureAnimationRandomDecorator@NEffectUpdateDecorator@@@@UAEPAXI@Z ENDP ; CDynamicPoolEx<NEffectUpdateDecorator::CTextureAnimationRandomDecorator>::`scalar deleting destructor'
_TEXT	ENDS
; Function compile flags: /Ogtp
; File C:\DS Project\DS Files\Source\ClientSource\Client\eterLib\Pool.h
;	COMDAT ?Delete@?$CDynamicPoolEx@VCTextureAnimationRandomDecorator@NEffectUpdateDecorator@@@@KAXPAVCTextureAnimationRandomDecorator@NEffectUpdateDecorator@@@Z
_TEXT	SEGMENT
_pkData$ = 8						; size = 4
?Delete@?$CDynamicPoolEx@VCTextureAnimationRandomDecorator@NEffectUpdateDecorator@@@@KAXPAVCTextureAnimationRandomDecorator@NEffectUpdateDecorator@@@Z PROC ; CDynamicPoolEx<NEffectUpdateDecorator::CTextureAnimationRandomDecorator>::Delete, COMDAT

; 224  : 			::operator delete(pkData);

  00000	e9 00 00 00 00	 jmp	 ??3@YAXPAX@Z		; operator delete
?Delete@?$CDynamicPoolEx@VCTextureAnimationRandomDecorator@NEffectUpdateDecorator@@@@KAXPAVCTextureAnimationRandomDecorator@NEffectUpdateDecorator@@@Z ENDP ; CDynamicPoolEx<NEffectUpdateDecorator::CTextureAnimationRandomDecorator>::Delete
_TEXT	ENDS
; Function compile flags: /Ogtp
; File C:\DS Project\DS Files\Source\ClientSource\Client\eterLib\Pool.h
; File C:\Program Files (x86)\Microsoft Visual Studio\2019\Community\VC\Tools\MSVC\14.27.29110\include\vector
; File C:\Program Files (x86)\Microsoft Visual Studio\2019\Community\VC\Tools\MSVC\14.27.29110\include\algorithm
; File C:\DS Project\DS Files\Source\ClientSource\Client\eterLib\Pool.h
; File C:\Program Files (x86)\Microsoft Visual Studio\2019\Community\VC\Tools\MSVC\14.27.29110\include\algorithm
; File C:\DS Project\DS Files\Source\ClientSource\Client\eterLib\Pool.h
; File C:\Program Files (x86)\Microsoft Visual Studio\2019\Community\VC\Tools\MSVC\14.27.29110\include\algorithm
; File C:\DS Project\DS Files\Source\ClientSource\Client\eterLib\Pool.h
; File C:\Program Files (x86)\Microsoft Visual Studio\2019\Community\VC\Tools\MSVC\14.27.29110\include\vector
; File C:\Program Files (x86)\Microsoft Visual Studio\2019\Community\VC\Tools\MSVC\14.27.29110\include\xmemory
; File C:\Program Files (x86)\Microsoft Visual Studio\2019\Community\VC\Tools\MSVC\14.27.29110\include\vector
; File C:\Program Files (x86)\Microsoft Visual Studio\2019\Community\VC\Tools\MSVC\14.27.29110\include\xmemory
; File C:\Program Files (x86)\Microsoft Visual Studio\2019\Community\VC\Tools\MSVC\14.27.29110\include\vector
; File C:\Program Files (x86)\Microsoft Visual Studio\2019\Community\VC\Tools\MSVC\14.27.29110\include\xmemory
; File C:\Program Files (x86)\Microsoft Visual Studio\2019\Community\VC\Tools\MSVC\14.27.29110\include\vector
; File C:\Program Files (x86)\Microsoft Visual Studio\2019\Community\VC\Tools\MSVC\14.27.29110\include\xmemory
; File C:\Program Files (x86)\Microsoft Visual Studio\2019\Community\VC\Tools\MSVC\14.27.29110\include\vector
; File C:\DS Project\DS Files\Source\ClientSource\Client\eterLib\Pool.h
;	COMDAT ??1?$CDynamicPoolEx@VCTextureAnimationRandomDecorator@NEffectUpdateDecorator@@@@UAE@XZ
_TEXT	SEGMENT
??1?$CDynamicPoolEx@VCTextureAnimationRandomDecorator@NEffectUpdateDecorator@@@@UAE@XZ PROC ; CDynamicPoolEx<NEffectUpdateDecorator::CTextureAnimationRandomDecorator>::~CDynamicPoolEx<NEffectUpdateDecorator::CTextureAnimationRandomDecorator>, COMDAT
; _this$ = ecx

; 132  : 		{

  00000	53		 push	 ebx
  00001	56		 push	 esi
  00002	57		 push	 edi
  00003	8b f9		 mov	 edi, ecx
  00005	c7 07 00 00 00
	00		 mov	 DWORD PTR [edi], OFFSET ??_7?$CDynamicPoolEx@VCTextureAnimationRandomDecorator@NEffectUpdateDecorator@@@@6B@
; File C:\Program Files (x86)\Microsoft Visual Studio\2019\Community\VC\Tools\MSVC\14.27.29110\include\vector

; 42   :     _Vector_const_iterator(_Tptr _Parg, const _Container_base* _Pvector) noexcept : _Ptr(_Parg) {

  0000b	8b 5f 08	 mov	 ebx, DWORD PTR [edi+8]
  0000e	8b 77 04	 mov	 esi, DWORD PTR [edi+4]
; File C:\Program Files (x86)\Microsoft Visual Studio\2019\Community\VC\Tools\MSVC\14.27.29110\include\algorithm

; 235  :     for (; _UFirst != _ULast; ++_UFirst) {

  00011	3b f3		 cmp	 esi, ebx
  00013	74 14		 je	 SHORT $LN19@CDynamicPo
$LL20@CDynamicPo:
; File C:\DS Project\DS Files\Source\ClientSource\Client\eterLib\Pool.h

; 224  : 			::operator delete(pkData);

  00015	ff 36		 push	 DWORD PTR [esi]
  00017	e8 00 00 00 00	 call	 ??3@YAXPAX@Z		; operator delete
; File C:\Program Files (x86)\Microsoft Visual Studio\2019\Community\VC\Tools\MSVC\14.27.29110\include\algorithm

; 235  :     for (; _UFirst != _ULast; ++_UFirst) {

  0001c	83 c6 04	 add	 esi, 4
; File C:\DS Project\DS Files\Source\ClientSource\Client\eterLib\Pool.h

; 224  : 			::operator delete(pkData);

  0001f	83 c4 04	 add	 esp, 4
; File C:\Program Files (x86)\Microsoft Visual Studio\2019\Community\VC\Tools\MSVC\14.27.29110\include\algorithm

; 235  :     for (; _UFirst != _ULast; ++_UFirst) {

  00022	3b f3		 cmp	 esi, ebx
  00024	75 ef		 jne	 SHORT $LL20@CDynamicPo
  00026	8b 77 04	 mov	 esi, DWORD PTR [edi+4]
$LN19@CDynamicPo:
; File C:\DS Project\DS Files\Source\ClientSource\Client\eterLib\Pool.h

; 162  : 			m_kVct_pkFree.clear();

  00029	8b 4f 10	 mov	 ecx, DWORD PTR [edi+16]
  0002c	89 77 08	 mov	 DWORD PTR [edi+8], esi
  0002f	89 4f 14	 mov	 DWORD PTR [edi+20], ecx
; File C:\Program Files (x86)\Microsoft Visual Studio\2019\Community\VC\Tools\MSVC\14.27.29110\include\vector

; 1693 :         if (_Myfirst) { // destroy and deallocate old array

  00032	85 c9		 test	 ecx, ecx
  00034	74 27		 je	 SHORT $LN27@CDynamicPo

; 1694 :             _Destroy(_Myfirst, _Mylast);
; 1695 :             _Getal().deallocate(_Myfirst, static_cast<size_type>(_Myend - _Myfirst));

  00036	8b 47 18	 mov	 eax, DWORD PTR [edi+24]
  00039	2b c1		 sub	 eax, ecx
; File C:\Program Files (x86)\Microsoft Visual Studio\2019\Community\VC\Tools\MSVC\14.27.29110\include\xmemory

; 803  :         _Deallocate<_New_alignof<_Ty>>(_Ptr, sizeof(_Ty) * _Count);

  0003b	83 e0 fc	 and	 eax, -4			; fffffffcH
  0003e	50		 push	 eax
  0003f	51		 push	 ecx
  00040	e8 00 00 00 00	 call	 ??$_Deallocate@$07$0A@@std@@YAXPAXI@Z ; std::_Deallocate<8,0>
; File C:\Program Files (x86)\Microsoft Visual Studio\2019\Community\VC\Tools\MSVC\14.27.29110\include\vector

; 1697 :             _Myfirst = pointer();

  00045	c7 47 10 00 00
	00 00		 mov	 DWORD PTR [edi+16], 0
; File C:\Program Files (x86)\Microsoft Visual Studio\2019\Community\VC\Tools\MSVC\14.27.29110\include\xmemory

; 803  :         _Deallocate<_New_alignof<_Ty>>(_Ptr, sizeof(_Ty) * _Count);

  0004c	83 c4 08	 add	 esp, 8
; File C:\Program Files (x86)\Microsoft Visual Studio\2019\Community\VC\Tools\MSVC\14.27.29110\include\vector

; 1698 :             _Mylast  = pointer();

  0004f	c7 47 14 00 00
	00 00		 mov	 DWORD PTR [edi+20], 0

; 1699 :             _Myend   = pointer();

  00056	c7 47 18 00 00
	00 00		 mov	 DWORD PTR [edi+24], 0
$LN27@CDynamicPo:

; 1693 :         if (_Myfirst) { // destroy and deallocate old array

  0005d	8b 4f 04	 mov	 ecx, DWORD PTR [edi+4]
  00060	85 c9		 test	 ecx, ecx
  00062	74 27		 je	 SHORT $LN34@CDynamicPo

; 1694 :             _Destroy(_Myfirst, _Mylast);
; 1695 :             _Getal().deallocate(_Myfirst, static_cast<size_type>(_Myend - _Myfirst));

  00064	8b 47 0c	 mov	 eax, DWORD PTR [edi+12]
  00067	2b c1		 sub	 eax, ecx
; File C:\Program Files (x86)\Microsoft Visual Studio\2019\Community\VC\Tools\MSVC\14.27.29110\include\xmemory

; 803  :         _Deallocate<_New_alignof<_Ty>>(_Ptr, sizeof(_Ty) * _Count);

  00069	83 e0 fc	 and	 eax, -4			; fffffffcH
  0006c	50		 push	 eax
  0006d	51		 push	 ecx
  0006e	e8 00 00 00 00	 call	 ??$_Deallocate@$07$0A@@std@@YAXPAXI@Z ; std::_Deallocate<8,0>
; File C:\Program Files (x86)\Microsoft Visual Studio\2019\Community\VC\Tools\MSVC\14.27.29110\include\vector

; 1697 :             _Myfirst = pointer();

  00073	c7 47 04 00 00
	00 00		 mov	 DWORD PTR [edi+4], 0
; File C:\Program Files (x86)\Microsoft Visual Studio\2019\Community\VC\Tools\MSVC\14.27.29110\include\xmemory

; 803  :         _Deallocate<_New_alignof<_Ty>>(_Ptr, sizeof(_Ty) * _Count);

  0007a	83 c4 08	 add	 esp, 8
; File C:\Program Files (x86)\Microsoft Visual Studio\2019\Community\VC\Tools\MSVC\14.27.29110\include\vector

; 1698 :             _Mylast  = pointer();

  0007d	c7 47 08 00 00
	00 00		 mov	 DWORD PTR [edi+8], 0

; 1699 :             _Myend   = pointer();

  00084	c7 47 0c 00 00
	00 00		 mov	 DWORD PTR [edi+12], 0
$LN34@CDynamicPo:
  0008b	5f		 pop	 edi
; File C:\DS Project\DS Files\Source\ClientSource\Client\eterLib\Pool.h

; 142  : 		}

  0008c	5e		 pop	 esi
  0008d	5b		 pop	 ebx
  0008e	c3		 ret	 0
??1?$CDynamicPoolEx@VCTextureAnimationRandomDecorator@NEffectUpdateDecorator@@@@UAE@XZ ENDP ; CDynamicPoolEx<NEffectUpdateDecorator::CTextureAnimationRandomDecorator>::~CDynamicPoolEx<NEffectUpdateDecorator::CTextureAnimationRandomDecorator>
_TEXT	ENDS
; Function compile flags: /Ogtp
;	COMDAT ??_G?$CDynamicPoolEx@VCAirResistanceDecorator@NEffectUpdateDecorator@@@@UAEPAXI@Z
_TEXT	SEGMENT
___flags$ = 8						; size = 4
??_G?$CDynamicPoolEx@VCAirResistanceDecorator@NEffectUpdateDecorator@@@@UAEPAXI@Z PROC ; CDynamicPoolEx<NEffectUpdateDecorator::CAirResistanceDecorator>::`scalar deleting destructor', COMDAT
; _this$ = ecx
  00000	55		 push	 ebp
  00001	8b ec		 mov	 ebp, esp
  00003	56		 push	 esi
  00004	8b f1		 mov	 esi, ecx
  00006	e8 00 00 00 00	 call	 ??1?$CDynamicPoolEx@VCAirResistanceDecorator@NEffectUpdateDecorator@@@@UAE@XZ ; CDynamicPoolEx<NEffectUpdateDecorator::CAirResistanceDecorator>::~CDynamicPoolEx<NEffectUpdateDecorator::CAirResistanceDecorator>
  0000b	f6 45 08 01	 test	 BYTE PTR ___flags$[ebp], 1
  0000f	74 0b		 je	 SHORT $LN4@scalar
  00011	6a 24		 push	 36			; 00000024H
  00013	56		 push	 esi
  00014	e8 00 00 00 00	 call	 ??3@YAXPAXI@Z		; operator delete
  00019	83 c4 08	 add	 esp, 8
$LN4@scalar:
  0001c	8b c6		 mov	 eax, esi
  0001e	5e		 pop	 esi
  0001f	5d		 pop	 ebp
  00020	c2 04 00	 ret	 4
??_G?$CDynamicPoolEx@VCAirResistanceDecorator@NEffectUpdateDecorator@@@@UAEPAXI@Z ENDP ; CDynamicPoolEx<NEffectUpdateDecorator::CAirResistanceDecorator>::`scalar deleting destructor'
_TEXT	ENDS
; Function compile flags: /Ogtp
; File C:\DS Project\DS Files\Source\ClientSource\Client\eterLib\Pool.h
;	COMDAT ?Delete@?$CDynamicPoolEx@VCAirResistanceDecorator@NEffectUpdateDecorator@@@@KAXPAVCAirResistanceDecorator@NEffectUpdateDecorator@@@Z
_TEXT	SEGMENT
_pkData$ = 8						; size = 4
?Delete@?$CDynamicPoolEx@VCAirResistanceDecorator@NEffectUpdateDecorator@@@@KAXPAVCAirResistanceDecorator@NEffectUpdateDecorator@@@Z PROC ; CDynamicPoolEx<NEffectUpdateDecorator::CAirResistanceDecorator>::Delete, COMDAT

; 224  : 			::operator delete(pkData);

  00000	e9 00 00 00 00	 jmp	 ??3@YAXPAX@Z		; operator delete
?Delete@?$CDynamicPoolEx@VCAirResistanceDecorator@NEffectUpdateDecorator@@@@KAXPAVCAirResistanceDecorator@NEffectUpdateDecorator@@@Z ENDP ; CDynamicPoolEx<NEffectUpdateDecorator::CAirResistanceDecorator>::Delete
_TEXT	ENDS
; Function compile flags: /Ogtp
; File C:\DS Project\DS Files\Source\ClientSource\Client\eterLib\Pool.h
; File C:\Program Files (x86)\Microsoft Visual Studio\2019\Community\VC\Tools\MSVC\14.27.29110\include\vector
; File C:\Program Files (x86)\Microsoft Visual Studio\2019\Community\VC\Tools\MSVC\14.27.29110\include\algorithm
; File C:\DS Project\DS Files\Source\ClientSource\Client\eterLib\Pool.h
; File C:\Program Files (x86)\Microsoft Visual Studio\2019\Community\VC\Tools\MSVC\14.27.29110\include\algorithm
; File C:\DS Project\DS Files\Source\ClientSource\Client\eterLib\Pool.h
; File C:\Program Files (x86)\Microsoft Visual Studio\2019\Community\VC\Tools\MSVC\14.27.29110\include\algorithm
; File C:\DS Project\DS Files\Source\ClientSource\Client\eterLib\Pool.h
; File C:\Program Files (x86)\Microsoft Visual Studio\2019\Community\VC\Tools\MSVC\14.27.29110\include\vector
; File C:\Program Files (x86)\Microsoft Visual Studio\2019\Community\VC\Tools\MSVC\14.27.29110\include\xmemory
; File C:\Program Files (x86)\Microsoft Visual Studio\2019\Community\VC\Tools\MSVC\14.27.29110\include\vector
; File C:\Program Files (x86)\Microsoft Visual Studio\2019\Community\VC\Tools\MSVC\14.27.29110\include\xmemory
; File C:\Program Files (x86)\Microsoft Visual Studio\2019\Community\VC\Tools\MSVC\14.27.29110\include\vector
; File C:\Program Files (x86)\Microsoft Visual Studio\2019\Community\VC\Tools\MSVC\14.27.29110\include\xmemory
; File C:\Program Files (x86)\Microsoft Visual Studio\2019\Community\VC\Tools\MSVC\14.27.29110\include\vector
; File C:\Program Files (x86)\Microsoft Visual Studio\2019\Community\VC\Tools\MSVC\14.27.29110\include\xmemory
; File C:\Program Files (x86)\Microsoft Visual Studio\2019\Community\VC\Tools\MSVC\14.27.29110\include\vector
; File C:\DS Project\DS Files\Source\ClientSource\Client\eterLib\Pool.h
;	COMDAT ??1?$CDynamicPoolEx@VCAirResistanceDecorator@NEffectUpdateDecorator@@@@UAE@XZ
_TEXT	SEGMENT
??1?$CDynamicPoolEx@VCAirResistanceDecorator@NEffectUpdateDecorator@@@@UAE@XZ PROC ; CDynamicPoolEx<NEffectUpdateDecorator::CAirResistanceDecorator>::~CDynamicPoolEx<NEffectUpdateDecorator::CAirResistanceDecorator>, COMDAT
; _this$ = ecx

; 132  : 		{

  00000	53		 push	 ebx
  00001	56		 push	 esi
  00002	57		 push	 edi
  00003	8b f9		 mov	 edi, ecx
  00005	c7 07 00 00 00
	00		 mov	 DWORD PTR [edi], OFFSET ??_7?$CDynamicPoolEx@VCAirResistanceDecorator@NEffectUpdateDecorator@@@@6B@
; File C:\Program Files (x86)\Microsoft Visual Studio\2019\Community\VC\Tools\MSVC\14.27.29110\include\vector

; 42   :     _Vector_const_iterator(_Tptr _Parg, const _Container_base* _Pvector) noexcept : _Ptr(_Parg) {

  0000b	8b 5f 08	 mov	 ebx, DWORD PTR [edi+8]
  0000e	8b 77 04	 mov	 esi, DWORD PTR [edi+4]
; File C:\Program Files (x86)\Microsoft Visual Studio\2019\Community\VC\Tools\MSVC\14.27.29110\include\algorithm

; 235  :     for (; _UFirst != _ULast; ++_UFirst) {

  00011	3b f3		 cmp	 esi, ebx
  00013	74 14		 je	 SHORT $LN19@CDynamicPo
$LL20@CDynamicPo:
; File C:\DS Project\DS Files\Source\ClientSource\Client\eterLib\Pool.h

; 224  : 			::operator delete(pkData);

  00015	ff 36		 push	 DWORD PTR [esi]
  00017	e8 00 00 00 00	 call	 ??3@YAXPAX@Z		; operator delete
; File C:\Program Files (x86)\Microsoft Visual Studio\2019\Community\VC\Tools\MSVC\14.27.29110\include\algorithm

; 235  :     for (; _UFirst != _ULast; ++_UFirst) {

  0001c	83 c6 04	 add	 esi, 4
; File C:\DS Project\DS Files\Source\ClientSource\Client\eterLib\Pool.h

; 224  : 			::operator delete(pkData);

  0001f	83 c4 04	 add	 esp, 4
; File C:\Program Files (x86)\Microsoft Visual Studio\2019\Community\VC\Tools\MSVC\14.27.29110\include\algorithm

; 235  :     for (; _UFirst != _ULast; ++_UFirst) {

  00022	3b f3		 cmp	 esi, ebx
  00024	75 ef		 jne	 SHORT $LL20@CDynamicPo
  00026	8b 77 04	 mov	 esi, DWORD PTR [edi+4]
$LN19@CDynamicPo:
; File C:\DS Project\DS Files\Source\ClientSource\Client\eterLib\Pool.h

; 162  : 			m_kVct_pkFree.clear();

  00029	8b 4f 10	 mov	 ecx, DWORD PTR [edi+16]
  0002c	89 77 08	 mov	 DWORD PTR [edi+8], esi
  0002f	89 4f 14	 mov	 DWORD PTR [edi+20], ecx
; File C:\Program Files (x86)\Microsoft Visual Studio\2019\Community\VC\Tools\MSVC\14.27.29110\include\vector

; 1693 :         if (_Myfirst) { // destroy and deallocate old array

  00032	85 c9		 test	 ecx, ecx
  00034	74 27		 je	 SHORT $LN27@CDynamicPo

; 1694 :             _Destroy(_Myfirst, _Mylast);
; 1695 :             _Getal().deallocate(_Myfirst, static_cast<size_type>(_Myend - _Myfirst));

  00036	8b 47 18	 mov	 eax, DWORD PTR [edi+24]
  00039	2b c1		 sub	 eax, ecx
; File C:\Program Files (x86)\Microsoft Visual Studio\2019\Community\VC\Tools\MSVC\14.27.29110\include\xmemory

; 803  :         _Deallocate<_New_alignof<_Ty>>(_Ptr, sizeof(_Ty) * _Count);

  0003b	83 e0 fc	 and	 eax, -4			; fffffffcH
  0003e	50		 push	 eax
  0003f	51		 push	 ecx
  00040	e8 00 00 00 00	 call	 ??$_Deallocate@$07$0A@@std@@YAXPAXI@Z ; std::_Deallocate<8,0>
; File C:\Program Files (x86)\Microsoft Visual Studio\2019\Community\VC\Tools\MSVC\14.27.29110\include\vector

; 1697 :             _Myfirst = pointer();

  00045	c7 47 10 00 00
	00 00		 mov	 DWORD PTR [edi+16], 0
; File C:\Program Files (x86)\Microsoft Visual Studio\2019\Community\VC\Tools\MSVC\14.27.29110\include\xmemory

; 803  :         _Deallocate<_New_alignof<_Ty>>(_Ptr, sizeof(_Ty) * _Count);

  0004c	83 c4 08	 add	 esp, 8
; File C:\Program Files (x86)\Microsoft Visual Studio\2019\Community\VC\Tools\MSVC\14.27.29110\include\vector

; 1698 :             _Mylast  = pointer();

  0004f	c7 47 14 00 00
	00 00		 mov	 DWORD PTR [edi+20], 0

; 1699 :             _Myend   = pointer();

  00056	c7 47 18 00 00
	00 00		 mov	 DWORD PTR [edi+24], 0
$LN27@CDynamicPo:

; 1693 :         if (_Myfirst) { // destroy and deallocate old array

  0005d	8b 4f 04	 mov	 ecx, DWORD PTR [edi+4]
  00060	85 c9		 test	 ecx, ecx
  00062	74 27		 je	 SHORT $LN34@CDynamicPo

; 1694 :             _Destroy(_Myfirst, _Mylast);
; 1695 :             _Getal().deallocate(_Myfirst, static_cast<size_type>(_Myend - _Myfirst));

  00064	8b 47 0c	 mov	 eax, DWORD PTR [edi+12]
  00067	2b c1		 sub	 eax, ecx
; File C:\Program Files (x86)\Microsoft Visual Studio\2019\Community\VC\Tools\MSVC\14.27.29110\include\xmemory

; 803  :         _Deallocate<_New_alignof<_Ty>>(_Ptr, sizeof(_Ty) * _Count);

  00069	83 e0 fc	 and	 eax, -4			; fffffffcH
  0006c	50		 push	 eax
  0006d	51		 push	 ecx
  0006e	e8 00 00 00 00	 call	 ??$_Deallocate@$07$0A@@std@@YAXPAXI@Z ; std::_Deallocate<8,0>
; File C:\Program Files (x86)\Microsoft Visual Studio\2019\Community\VC\Tools\MSVC\14.27.29110\include\vector

; 1697 :             _Myfirst = pointer();

  00073	c7 47 04 00 00
	00 00		 mov	 DWORD PTR [edi+4], 0
; File C:\Program Files (x86)\Microsoft Visual Studio\2019\Community\VC\Tools\MSVC\14.27.29110\include\xmemory

; 803  :         _Deallocate<_New_alignof<_Ty>>(_Ptr, sizeof(_Ty) * _Count);

  0007a	83 c4 08	 add	 esp, 8
; File C:\Program Files (x86)\Microsoft Visual Studio\2019\Community\VC\Tools\MSVC\14.27.29110\include\vector

; 1698 :             _Mylast  = pointer();

  0007d	c7 47 08 00 00
	00 00		 mov	 DWORD PTR [edi+8], 0

; 1699 :             _Myend   = pointer();

  00084	c7 47 0c 00 00
	00 00		 mov	 DWORD PTR [edi+12], 0
$LN34@CDynamicPo:
  0008b	5f		 pop	 edi
; File C:\DS Project\DS Files\Source\ClientSource\Client\eterLib\Pool.h

; 142  : 		}

  0008c	5e		 pop	 esi
  0008d	5b		 pop	 ebx
  0008e	c3		 ret	 0
??1?$CDynamicPoolEx@VCAirResistanceDecorator@NEffectUpdateDecorator@@@@UAE@XZ ENDP ; CDynamicPoolEx<NEffectUpdateDecorator::CAirResistanceDecorator>::~CDynamicPoolEx<NEffectUpdateDecorator::CAirResistanceDecorator>
_TEXT	ENDS
; Function compile flags: /Ogtp
;	COMDAT ??_G?$CDynamicPoolEx@VCGravityDecorator@NEffectUpdateDecorator@@@@UAEPAXI@Z
_TEXT	SEGMENT
___flags$ = 8						; size = 4
??_G?$CDynamicPoolEx@VCGravityDecorator@NEffectUpdateDecorator@@@@UAEPAXI@Z PROC ; CDynamicPoolEx<NEffectUpdateDecorator::CGravityDecorator>::`scalar deleting destructor', COMDAT
; _this$ = ecx
  00000	55		 push	 ebp
  00001	8b ec		 mov	 ebp, esp
  00003	56		 push	 esi
  00004	8b f1		 mov	 esi, ecx
  00006	e8 00 00 00 00	 call	 ??1?$CDynamicPoolEx@VCGravityDecorator@NEffectUpdateDecorator@@@@UAE@XZ ; CDynamicPoolEx<NEffectUpdateDecorator::CGravityDecorator>::~CDynamicPoolEx<NEffectUpdateDecorator::CGravityDecorator>
  0000b	f6 45 08 01	 test	 BYTE PTR ___flags$[ebp], 1
  0000f	74 0b		 je	 SHORT $LN4@scalar
  00011	6a 24		 push	 36			; 00000024H
  00013	56		 push	 esi
  00014	e8 00 00 00 00	 call	 ??3@YAXPAXI@Z		; operator delete
  00019	83 c4 08	 add	 esp, 8
$LN4@scalar:
  0001c	8b c6		 mov	 eax, esi
  0001e	5e		 pop	 esi
  0001f	5d		 pop	 ebp
  00020	c2 04 00	 ret	 4
??_G?$CDynamicPoolEx@VCGravityDecorator@NEffectUpdateDecorator@@@@UAEPAXI@Z ENDP ; CDynamicPoolEx<NEffectUpdateDecorator::CGravityDecorator>::`scalar deleting destructor'
_TEXT	ENDS
; Function compile flags: /Ogtp
; File C:\DS Project\DS Files\Source\ClientSource\Client\eterLib\Pool.h
;	COMDAT ?Delete@?$CDynamicPoolEx@VCGravityDecorator@NEffectUpdateDecorator@@@@KAXPAVCGravityDecorator@NEffectUpdateDecorator@@@Z
_TEXT	SEGMENT
_pkData$ = 8						; size = 4
?Delete@?$CDynamicPoolEx@VCGravityDecorator@NEffectUpdateDecorator@@@@KAXPAVCGravityDecorator@NEffectUpdateDecorator@@@Z PROC ; CDynamicPoolEx<NEffectUpdateDecorator::CGravityDecorator>::Delete, COMDAT

; 224  : 			::operator delete(pkData);

  00000	e9 00 00 00 00	 jmp	 ??3@YAXPAX@Z		; operator delete
?Delete@?$CDynamicPoolEx@VCGravityDecorator@NEffectUpdateDecorator@@@@KAXPAVCGravityDecorator@NEffectUpdateDecorator@@@Z ENDP ; CDynamicPoolEx<NEffectUpdateDecorator::CGravityDecorator>::Delete
_TEXT	ENDS
; Function compile flags: /Ogtp
; File C:\DS Project\DS Files\Source\ClientSource\Client\eterLib\Pool.h
; File C:\Program Files (x86)\Microsoft Visual Studio\2019\Community\VC\Tools\MSVC\14.27.29110\include\vector
; File C:\Program Files (x86)\Microsoft Visual Studio\2019\Community\VC\Tools\MSVC\14.27.29110\include\algorithm
; File C:\DS Project\DS Files\Source\ClientSource\Client\eterLib\Pool.h
; File C:\Program Files (x86)\Microsoft Visual Studio\2019\Community\VC\Tools\MSVC\14.27.29110\include\algorithm
; File C:\DS Project\DS Files\Source\ClientSource\Client\eterLib\Pool.h
; File C:\Program Files (x86)\Microsoft Visual Studio\2019\Community\VC\Tools\MSVC\14.27.29110\include\algorithm
; File C:\DS Project\DS Files\Source\ClientSource\Client\eterLib\Pool.h
; File C:\Program Files (x86)\Microsoft Visual Studio\2019\Community\VC\Tools\MSVC\14.27.29110\include\vector
; File C:\Program Files (x86)\Microsoft Visual Studio\2019\Community\VC\Tools\MSVC\14.27.29110\include\xmemory
; File C:\Program Files (x86)\Microsoft Visual Studio\2019\Community\VC\Tools\MSVC\14.27.29110\include\vector
; File C:\Program Files (x86)\Microsoft Visual Studio\2019\Community\VC\Tools\MSVC\14.27.29110\include\xmemory
; File C:\Program Files (x86)\Microsoft Visual Studio\2019\Community\VC\Tools\MSVC\14.27.29110\include\vector
; File C:\Program Files (x86)\Microsoft Visual Studio\2019\Community\VC\Tools\MSVC\14.27.29110\include\xmemory
; File C:\Program Files (x86)\Microsoft Visual Studio\2019\Community\VC\Tools\MSVC\14.27.29110\include\vector
; File C:\Program Files (x86)\Microsoft Visual Studio\2019\Community\VC\Tools\MSVC\14.27.29110\include\xmemory
; File C:\Program Files (x86)\Microsoft Visual Studio\2019\Community\VC\Tools\MSVC\14.27.29110\include\vector
; File C:\DS Project\DS Files\Source\ClientSource\Client\eterLib\Pool.h
;	COMDAT ??1?$CDynamicPoolEx@VCGravityDecorator@NEffectUpdateDecorator@@@@UAE@XZ
_TEXT	SEGMENT
??1?$CDynamicPoolEx@VCGravityDecorator@NEffectUpdateDecorator@@@@UAE@XZ PROC ; CDynamicPoolEx<NEffectUpdateDecorator::CGravityDecorator>::~CDynamicPoolEx<NEffectUpdateDecorator::CGravityDecorator>, COMDAT
; _this$ = ecx

; 132  : 		{

  00000	53		 push	 ebx
  00001	56		 push	 esi
  00002	57		 push	 edi
  00003	8b f9		 mov	 edi, ecx
  00005	c7 07 00 00 00
	00		 mov	 DWORD PTR [edi], OFFSET ??_7?$CDynamicPoolEx@VCGravityDecorator@NEffectUpdateDecorator@@@@6B@
; File C:\Program Files (x86)\Microsoft Visual Studio\2019\Community\VC\Tools\MSVC\14.27.29110\include\vector

; 42   :     _Vector_const_iterator(_Tptr _Parg, const _Container_base* _Pvector) noexcept : _Ptr(_Parg) {

  0000b	8b 5f 08	 mov	 ebx, DWORD PTR [edi+8]
  0000e	8b 77 04	 mov	 esi, DWORD PTR [edi+4]
; File C:\Program Files (x86)\Microsoft Visual Studio\2019\Community\VC\Tools\MSVC\14.27.29110\include\algorithm

; 235  :     for (; _UFirst != _ULast; ++_UFirst) {

  00011	3b f3		 cmp	 esi, ebx
  00013	74 14		 je	 SHORT $LN19@CDynamicPo
$LL20@CDynamicPo:
; File C:\DS Project\DS Files\Source\ClientSource\Client\eterLib\Pool.h

; 224  : 			::operator delete(pkData);

  00015	ff 36		 push	 DWORD PTR [esi]
  00017	e8 00 00 00 00	 call	 ??3@YAXPAX@Z		; operator delete
; File C:\Program Files (x86)\Microsoft Visual Studio\2019\Community\VC\Tools\MSVC\14.27.29110\include\algorithm

; 235  :     for (; _UFirst != _ULast; ++_UFirst) {

  0001c	83 c6 04	 add	 esi, 4
; File C:\DS Project\DS Files\Source\ClientSource\Client\eterLib\Pool.h

; 224  : 			::operator delete(pkData);

  0001f	83 c4 04	 add	 esp, 4
; File C:\Program Files (x86)\Microsoft Visual Studio\2019\Community\VC\Tools\MSVC\14.27.29110\include\algorithm

; 235  :     for (; _UFirst != _ULast; ++_UFirst) {

  00022	3b f3		 cmp	 esi, ebx
  00024	75 ef		 jne	 SHORT $LL20@CDynamicPo
  00026	8b 77 04	 mov	 esi, DWORD PTR [edi+4]
$LN19@CDynamicPo:
; File C:\DS Project\DS Files\Source\ClientSource\Client\eterLib\Pool.h

; 162  : 			m_kVct_pkFree.clear();

  00029	8b 4f 10	 mov	 ecx, DWORD PTR [edi+16]
  0002c	89 77 08	 mov	 DWORD PTR [edi+8], esi
  0002f	89 4f 14	 mov	 DWORD PTR [edi+20], ecx
; File C:\Program Files (x86)\Microsoft Visual Studio\2019\Community\VC\Tools\MSVC\14.27.29110\include\vector

; 1693 :         if (_Myfirst) { // destroy and deallocate old array

  00032	85 c9		 test	 ecx, ecx
  00034	74 27		 je	 SHORT $LN27@CDynamicPo

; 1694 :             _Destroy(_Myfirst, _Mylast);
; 1695 :             _Getal().deallocate(_Myfirst, static_cast<size_type>(_Myend - _Myfirst));

  00036	8b 47 18	 mov	 eax, DWORD PTR [edi+24]
  00039	2b c1		 sub	 eax, ecx
; File C:\Program Files (x86)\Microsoft Visual Studio\2019\Community\VC\Tools\MSVC\14.27.29110\include\xmemory

; 803  :         _Deallocate<_New_alignof<_Ty>>(_Ptr, sizeof(_Ty) * _Count);

  0003b	83 e0 fc	 and	 eax, -4			; fffffffcH
  0003e	50		 push	 eax
  0003f	51		 push	 ecx
  00040	e8 00 00 00 00	 call	 ??$_Deallocate@$07$0A@@std@@YAXPAXI@Z ; std::_Deallocate<8,0>
; File C:\Program Files (x86)\Microsoft Visual Studio\2019\Community\VC\Tools\MSVC\14.27.29110\include\vector

; 1697 :             _Myfirst = pointer();

  00045	c7 47 10 00 00
	00 00		 mov	 DWORD PTR [edi+16], 0
; File C:\Program Files (x86)\Microsoft Visual Studio\2019\Community\VC\Tools\MSVC\14.27.29110\include\xmemory

; 803  :         _Deallocate<_New_alignof<_Ty>>(_Ptr, sizeof(_Ty) * _Count);

  0004c	83 c4 08	 add	 esp, 8
; File C:\Program Files (x86)\Microsoft Visual Studio\2019\Community\VC\Tools\MSVC\14.27.29110\include\vector

; 1698 :             _Mylast  = pointer();

  0004f	c7 47 14 00 00
	00 00		 mov	 DWORD PTR [edi+20], 0

; 1699 :             _Myend   = pointer();

  00056	c7 47 18 00 00
	00 00		 mov	 DWORD PTR [edi+24], 0
$LN27@CDynamicPo:

; 1693 :         if (_Myfirst) { // destroy and deallocate old array

  0005d	8b 4f 04	 mov	 ecx, DWORD PTR [edi+4]
  00060	85 c9		 test	 ecx, ecx
  00062	74 27		 je	 SHORT $LN34@CDynamicPo

; 1694 :             _Destroy(_Myfirst, _Mylast);
; 1695 :             _Getal().deallocate(_Myfirst, static_cast<size_type>(_Myend - _Myfirst));

  00064	8b 47 0c	 mov	 eax, DWORD PTR [edi+12]
  00067	2b c1		 sub	 eax, ecx
; File C:\Program Files (x86)\Microsoft Visual Studio\2019\Community\VC\Tools\MSVC\14.27.29110\include\xmemory

; 803  :         _Deallocate<_New_alignof<_Ty>>(_Ptr, sizeof(_Ty) * _Count);

  00069	83 e0 fc	 and	 eax, -4			; fffffffcH
  0006c	50		 push	 eax
  0006d	51		 push	 ecx
  0006e	e8 00 00 00 00	 call	 ??$_Deallocate@$07$0A@@std@@YAXPAXI@Z ; std::_Deallocate<8,0>
; File C:\Program Files (x86)\Microsoft Visual Studio\2019\Community\VC\Tools\MSVC\14.27.29110\include\vector

; 1697 :             _Myfirst = pointer();

  00073	c7 47 04 00 00
	00 00		 mov	 DWORD PTR [edi+4], 0
; File C:\Program Files (x86)\Microsoft Visual Studio\2019\Community\VC\Tools\MSVC\14.27.29110\include\xmemory

; 803  :         _Deallocate<_New_alignof<_Ty>>(_Ptr, sizeof(_Ty) * _Count);

  0007a	83 c4 08	 add	 esp, 8
; File C:\Program Files (x86)\Microsoft Visual Studio\2019\Community\VC\Tools\MSVC\14.27.29110\include\vector

; 1698 :             _Mylast  = pointer();

  0007d	c7 47 08 00 00
	00 00		 mov	 DWORD PTR [edi+8], 0

; 1699 :             _Myend   = pointer();

  00084	c7 47 0c 00 00
	00 00		 mov	 DWORD PTR [edi+12], 0
$LN34@CDynamicPo:
  0008b	5f		 pop	 edi
; File C:\DS Project\DS Files\Source\ClientSource\Client\eterLib\Pool.h

; 142  : 		}

  0008c	5e		 pop	 esi
  0008d	5b		 pop	 ebx
  0008e	c3		 ret	 0
??1?$CDynamicPoolEx@VCGravityDecorator@NEffectUpdateDecorator@@@@UAE@XZ ENDP ; CDynamicPoolEx<NEffectUpdateDecorator::CGravityDecorator>::~CDynamicPoolEx<NEffectUpdateDecorator::CGravityDecorator>
_TEXT	ENDS
; Function compile flags: /Ogtp
;	COMDAT ??_G?$CDynamicPoolEx@VCRotationDecorator@NEffectUpdateDecorator@@@@UAEPAXI@Z
_TEXT	SEGMENT
___flags$ = 8						; size = 4
??_G?$CDynamicPoolEx@VCRotationDecorator@NEffectUpdateDecorator@@@@UAEPAXI@Z PROC ; CDynamicPoolEx<NEffectUpdateDecorator::CRotationDecorator>::`scalar deleting destructor', COMDAT
; _this$ = ecx
  00000	55		 push	 ebp
  00001	8b ec		 mov	 ebp, esp
  00003	56		 push	 esi
  00004	8b f1		 mov	 esi, ecx
  00006	e8 00 00 00 00	 call	 ??1?$CDynamicPoolEx@VCRotationDecorator@NEffectUpdateDecorator@@@@UAE@XZ ; CDynamicPoolEx<NEffectUpdateDecorator::CRotationDecorator>::~CDynamicPoolEx<NEffectUpdateDecorator::CRotationDecorator>
  0000b	f6 45 08 01	 test	 BYTE PTR ___flags$[ebp], 1
  0000f	74 0b		 je	 SHORT $LN4@scalar
  00011	6a 24		 push	 36			; 00000024H
  00013	56		 push	 esi
  00014	e8 00 00 00 00	 call	 ??3@YAXPAXI@Z		; operator delete
  00019	83 c4 08	 add	 esp, 8
$LN4@scalar:
  0001c	8b c6		 mov	 eax, esi
  0001e	5e		 pop	 esi
  0001f	5d		 pop	 ebp
  00020	c2 04 00	 ret	 4
??_G?$CDynamicPoolEx@VCRotationDecorator@NEffectUpdateDecorator@@@@UAEPAXI@Z ENDP ; CDynamicPoolEx<NEffectUpdateDecorator::CRotationDecorator>::`scalar deleting destructor'
_TEXT	ENDS
; Function compile flags: /Ogtp
; File C:\DS Project\DS Files\Source\ClientSource\Client\eterLib\Pool.h
;	COMDAT ?Delete@?$CDynamicPoolEx@VCRotationDecorator@NEffectUpdateDecorator@@@@KAXPAVCRotationDecorator@NEffectUpdateDecorator@@@Z
_TEXT	SEGMENT
_pkData$ = 8						; size = 4
?Delete@?$CDynamicPoolEx@VCRotationDecorator@NEffectUpdateDecorator@@@@KAXPAVCRotationDecorator@NEffectUpdateDecorator@@@Z PROC ; CDynamicPoolEx<NEffectUpdateDecorator::CRotationDecorator>::Delete, COMDAT

; 224  : 			::operator delete(pkData);

  00000	e9 00 00 00 00	 jmp	 ??3@YAXPAX@Z		; operator delete
?Delete@?$CDynamicPoolEx@VCRotationDecorator@NEffectUpdateDecorator@@@@KAXPAVCRotationDecorator@NEffectUpdateDecorator@@@Z ENDP ; CDynamicPoolEx<NEffectUpdateDecorator::CRotationDecorator>::Delete
_TEXT	ENDS
; Function compile flags: /Ogtp
; File C:\DS Project\DS Files\Source\ClientSource\Client\eterLib\Pool.h
; File C:\Program Files (x86)\Microsoft Visual Studio\2019\Community\VC\Tools\MSVC\14.27.29110\include\vector
; File C:\Program Files (x86)\Microsoft Visual Studio\2019\Community\VC\Tools\MSVC\14.27.29110\include\algorithm
; File C:\DS Project\DS Files\Source\ClientSource\Client\eterLib\Pool.h
; File C:\Program Files (x86)\Microsoft Visual Studio\2019\Community\VC\Tools\MSVC\14.27.29110\include\algorithm
; File C:\DS Project\DS Files\Source\ClientSource\Client\eterLib\Pool.h
; File C:\Program Files (x86)\Microsoft Visual Studio\2019\Community\VC\Tools\MSVC\14.27.29110\include\algorithm
; File C:\DS Project\DS Files\Source\ClientSource\Client\eterLib\Pool.h
; File C:\Program Files (x86)\Microsoft Visual Studio\2019\Community\VC\Tools\MSVC\14.27.29110\include\vector
; File C:\Program Files (x86)\Microsoft Visual Studio\2019\Community\VC\Tools\MSVC\14.27.29110\include\xmemory
; File C:\Program Files (x86)\Microsoft Visual Studio\2019\Community\VC\Tools\MSVC\14.27.29110\include\vector
; File C:\Program Files (x86)\Microsoft Visual Studio\2019\Community\VC\Tools\MSVC\14.27.29110\include\xmemory
; File C:\Program Files (x86)\Microsoft Visual Studio\2019\Community\VC\Tools\MSVC\14.27.29110\include\vector
; File C:\Program Files (x86)\Microsoft Visual Studio\2019\Community\VC\Tools\MSVC\14.27.29110\include\xmemory
; File C:\Program Files (x86)\Microsoft Visual Studio\2019\Community\VC\Tools\MSVC\14.27.29110\include\vector
; File C:\Program Files (x86)\Microsoft Visual Studio\2019\Community\VC\Tools\MSVC\14.27.29110\include\xmemory
; File C:\Program Files (x86)\Microsoft Visual Studio\2019\Community\VC\Tools\MSVC\14.27.29110\include\vector
; File C:\DS Project\DS Files\Source\ClientSource\Client\eterLib\Pool.h
;	COMDAT ??1?$CDynamicPoolEx@VCRotationDecorator@NEffectUpdateDecorator@@@@UAE@XZ
_TEXT	SEGMENT
??1?$CDynamicPoolEx@VCRotationDecorator@NEffectUpdateDecorator@@@@UAE@XZ PROC ; CDynamicPoolEx<NEffectUpdateDecorator::CRotationDecorator>::~CDynamicPoolEx<NEffectUpdateDecorator::CRotationDecorator>, COMDAT
; _this$ = ecx

; 132  : 		{

  00000	53		 push	 ebx
  00001	56		 push	 esi
  00002	57		 push	 edi
  00003	8b f9		 mov	 edi, ecx
  00005	c7 07 00 00 00
	00		 mov	 DWORD PTR [edi], OFFSET ??_7?$CDynamicPoolEx@VCRotationDecorator@NEffectUpdateDecorator@@@@6B@
; File C:\Program Files (x86)\Microsoft Visual Studio\2019\Community\VC\Tools\MSVC\14.27.29110\include\vector

; 42   :     _Vector_const_iterator(_Tptr _Parg, const _Container_base* _Pvector) noexcept : _Ptr(_Parg) {

  0000b	8b 5f 08	 mov	 ebx, DWORD PTR [edi+8]
  0000e	8b 77 04	 mov	 esi, DWORD PTR [edi+4]
; File C:\Program Files (x86)\Microsoft Visual Studio\2019\Community\VC\Tools\MSVC\14.27.29110\include\algorithm

; 235  :     for (; _UFirst != _ULast; ++_UFirst) {

  00011	3b f3		 cmp	 esi, ebx
  00013	74 14		 je	 SHORT $LN19@CDynamicPo
$LL20@CDynamicPo:
; File C:\DS Project\DS Files\Source\ClientSource\Client\eterLib\Pool.h

; 224  : 			::operator delete(pkData);

  00015	ff 36		 push	 DWORD PTR [esi]
  00017	e8 00 00 00 00	 call	 ??3@YAXPAX@Z		; operator delete
; File C:\Program Files (x86)\Microsoft Visual Studio\2019\Community\VC\Tools\MSVC\14.27.29110\include\algorithm

; 235  :     for (; _UFirst != _ULast; ++_UFirst) {

  0001c	83 c6 04	 add	 esi, 4
; File C:\DS Project\DS Files\Source\ClientSource\Client\eterLib\Pool.h

; 224  : 			::operator delete(pkData);

  0001f	83 c4 04	 add	 esp, 4
; File C:\Program Files (x86)\Microsoft Visual Studio\2019\Community\VC\Tools\MSVC\14.27.29110\include\algorithm

; 235  :     for (; _UFirst != _ULast; ++_UFirst) {

  00022	3b f3		 cmp	 esi, ebx
  00024	75 ef		 jne	 SHORT $LL20@CDynamicPo
  00026	8b 77 04	 mov	 esi, DWORD PTR [edi+4]
$LN19@CDynamicPo:
; File C:\DS Project\DS Files\Source\ClientSource\Client\eterLib\Pool.h

; 162  : 			m_kVct_pkFree.clear();

  00029	8b 4f 10	 mov	 ecx, DWORD PTR [edi+16]
  0002c	89 77 08	 mov	 DWORD PTR [edi+8], esi
  0002f	89 4f 14	 mov	 DWORD PTR [edi+20], ecx
; File C:\Program Files (x86)\Microsoft Visual Studio\2019\Community\VC\Tools\MSVC\14.27.29110\include\vector

; 1693 :         if (_Myfirst) { // destroy and deallocate old array

  00032	85 c9		 test	 ecx, ecx
  00034	74 27		 je	 SHORT $LN27@CDynamicPo

; 1694 :             _Destroy(_Myfirst, _Mylast);
; 1695 :             _Getal().deallocate(_Myfirst, static_cast<size_type>(_Myend - _Myfirst));

  00036	8b 47 18	 mov	 eax, DWORD PTR [edi+24]
  00039	2b c1		 sub	 eax, ecx
; File C:\Program Files (x86)\Microsoft Visual Studio\2019\Community\VC\Tools\MSVC\14.27.29110\include\xmemory

; 803  :         _Deallocate<_New_alignof<_Ty>>(_Ptr, sizeof(_Ty) * _Count);

  0003b	83 e0 fc	 and	 eax, -4			; fffffffcH
  0003e	50		 push	 eax
  0003f	51		 push	 ecx
  00040	e8 00 00 00 00	 call	 ??$_Deallocate@$07$0A@@std@@YAXPAXI@Z ; std::_Deallocate<8,0>
; File C:\Program Files (x86)\Microsoft Visual Studio\2019\Community\VC\Tools\MSVC\14.27.29110\include\vector

; 1697 :             _Myfirst = pointer();

  00045	c7 47 10 00 00
	00 00		 mov	 DWORD PTR [edi+16], 0
; File C:\Program Files (x86)\Microsoft Visual Studio\2019\Community\VC\Tools\MSVC\14.27.29110\include\xmemory

; 803  :         _Deallocate<_New_alignof<_Ty>>(_Ptr, sizeof(_Ty) * _Count);

  0004c	83 c4 08	 add	 esp, 8
; File C:\Program Files (x86)\Microsoft Visual Studio\2019\Community\VC\Tools\MSVC\14.27.29110\include\vector

; 1698 :             _Mylast  = pointer();

  0004f	c7 47 14 00 00
	00 00		 mov	 DWORD PTR [edi+20], 0

; 1699 :             _Myend   = pointer();

  00056	c7 47 18 00 00
	00 00		 mov	 DWORD PTR [edi+24], 0
$LN27@CDynamicPo:

; 1693 :         if (_Myfirst) { // destroy and deallocate old array

  0005d	8b 4f 04	 mov	 ecx, DWORD PTR [edi+4]
  00060	85 c9		 test	 ecx, ecx
  00062	74 27		 je	 SHORT $LN34@CDynamicPo

; 1694 :             _Destroy(_Myfirst, _Mylast);
; 1695 :             _Getal().deallocate(_Myfirst, static_cast<size_type>(_Myend - _Myfirst));

  00064	8b 47 0c	 mov	 eax, DWORD PTR [edi+12]
  00067	2b c1		 sub	 eax, ecx
; File C:\Program Files (x86)\Microsoft Visual Studio\2019\Community\VC\Tools\MSVC\14.27.29110\include\xmemory

; 803  :         _Deallocate<_New_alignof<_Ty>>(_Ptr, sizeof(_Ty) * _Count);

  00069	83 e0 fc	 and	 eax, -4			; fffffffcH
  0006c	50		 push	 eax
  0006d	51		 push	 ecx
  0006e	e8 00 00 00 00	 call	 ??$_Deallocate@$07$0A@@std@@YAXPAXI@Z ; std::_Deallocate<8,0>
; File C:\Program Files (x86)\Microsoft Visual Studio\2019\Community\VC\Tools\MSVC\14.27.29110\include\vector

; 1697 :             _Myfirst = pointer();

  00073	c7 47 04 00 00
	00 00		 mov	 DWORD PTR [edi+4], 0
; File C:\Program Files (x86)\Microsoft Visual Studio\2019\Community\VC\Tools\MSVC\14.27.29110\include\xmemory

; 803  :         _Deallocate<_New_alignof<_Ty>>(_Ptr, sizeof(_Ty) * _Count);

  0007a	83 c4 08	 add	 esp, 8
; File C:\Program Files (x86)\Microsoft Visual Studio\2019\Community\VC\Tools\MSVC\14.27.29110\include\vector

; 1698 :             _Mylast  = pointer();

  0007d	c7 47 08 00 00
	00 00		 mov	 DWORD PTR [edi+8], 0

; 1699 :             _Myend   = pointer();

  00084	c7 47 0c 00 00
	00 00		 mov	 DWORD PTR [edi+12], 0
$LN34@CDynamicPo:
  0008b	5f		 pop	 edi
; File C:\DS Project\DS Files\Source\ClientSource\Client\eterLib\Pool.h

; 142  : 		}

  0008c	5e		 pop	 esi
  0008d	5b		 pop	 ebx
  0008e	c3		 ret	 0
??1?$CDynamicPoolEx@VCRotationDecorator@NEffectUpdateDecorator@@@@UAE@XZ ENDP ; CDynamicPoolEx<NEffectUpdateDecorator::CRotationDecorator>::~CDynamicPoolEx<NEffectUpdateDecorator::CRotationDecorator>
_TEXT	ENDS
; Function compile flags: /Ogtp
; File C:\DS Project\DS Files\Source\ClientSource\Client\GameLib\RaceDataFile.cpp
; File C:\Program Files (x86)\Microsoft Visual Studio\2019\Community\VC\Tools\MSVC\14.27.29110\include\xmemory
; File C:\Program Files (x86)\Microsoft Visual Studio\2019\Community\VC\Tools\MSVC\14.27.29110\include\xstring
; File C:\Program Files (x86)\Microsoft Visual Studio\2019\Community\VC\Tools\MSVC\14.27.29110\include\xmemory
; File C:\Program Files (x86)\Microsoft Visual Studio\2019\Community\VC\Tools\MSVC\14.27.29110\include\xstring
; File C:\DS Project\DS Files\Source\ClientSource\Client\GameLib\RaceDataFile.cpp
; File C:\Program Files (x86)\Microsoft Visual Studio\2019\Community\VC\Tools\MSVC\14.27.29110\include\xstring
; File C:\Program Files (x86)\Microsoft Visual Studio\2019\Community\VC\Tools\MSVC\14.27.29110\include\xmemory
; File C:\Program Files (x86)\Microsoft Visual Studio\2019\Community\VC\Tools\MSVC\14.27.29110\include\xstring
; File C:\DS Project\DS Files\Source\ClientSource\Client\GameLib\RaceDataFile.cpp
; File C:\Program Files (x86)\Microsoft Visual Studio\2019\Community\VC\Tools\MSVC\14.27.29110\include\xstring
; File C:\DS Project\DS Files\Source\ClientSource\Client\GameLib\RaceDataFile.cpp
; File C:\Program Files (x86)\Microsoft Visual Studio\2019\Community\VC\Tools\MSVC\14.27.29110\include\xstring
; File C:\Program Files (x86)\Microsoft Visual Studio\2019\Community\VC\Tools\MSVC\14.27.29110\include\xmemory
; File C:\Program Files (x86)\Microsoft Visual Studio\2019\Community\VC\Tools\MSVC\14.27.29110\include\xstring
; File C:\Program Files (x86)\Microsoft Visual Studio\2019\Community\VC\Tools\MSVC\14.27.29110\include\xmemory
; File C:\Program Files (x86)\Microsoft Visual Studio\2019\Community\VC\Tools\MSVC\14.27.29110\include\xstring
; File C:\DS Project\DS Files\Source\ClientSource\Client\GameLib\RaceDataFile.cpp
; File C:\Program Files (x86)\Microsoft Visual Studio\2019\Community\VC\Tools\MSVC\14.27.29110\include\xstring
; File C:\Program Files (x86)\Microsoft Visual Studio\2019\Community\VC\Tools\MSVC\14.27.29110\include\xmemory
; File C:\Program Files (x86)\Microsoft Visual Studio\2019\Community\VC\Tools\MSVC\14.27.29110\include\xstring
; File C:\DS Project\DS Files\Source\ClientSource\Client\GameLib\RaceDataFile.cpp
; File C:\Program Files (x86)\Microsoft Visual Studio\2019\Community\VC\Tools\MSVC\14.27.29110\include\xstring
; File C:\DS Project\DS Files\Source\ClientSource\Client\GameLib\RaceDataFile.cpp
; File C:\Program Files (x86)\Microsoft Visual Studio\2019\Community\VC\Tools\MSVC\14.27.29110\include\xstring
; File C:\Program Files (x86)\Microsoft Visual Studio\2019\Community\VC\Tools\MSVC\14.27.29110\include\xmemory
; File C:\Program Files (x86)\Microsoft Visual Studio\2019\Community\VC\Tools\MSVC\14.27.29110\include\xstring
; File C:\Program Files (x86)\Microsoft Visual Studio\2019\Community\VC\Tools\MSVC\14.27.29110\include\xmemory
; File C:\Program Files (x86)\Microsoft Visual Studio\2019\Community\VC\Tools\MSVC\14.27.29110\include\xstring
; File C:\DS Project\DS Files\Source\ClientSource\Client\GameLib\RaceDataFile.cpp
; File C:\Program Files (x86)\Microsoft Visual Studio\2019\Community\VC\Tools\MSVC\14.27.29110\include\xstring
; File C:\DS Project\DS Files\Source\ClientSource\Client\GameLib\RaceDataFile.cpp
; File C:\Program Files (x86)\Microsoft Visual Studio\2019\Community\VC\Tools\MSVC\14.27.29110\include\xstring
; File C:\Program Files (x86)\Microsoft Visual Studio\2019\Community\VC\Tools\MSVC\14.27.29110\include\xmemory
; File C:\DS Project\DS Files\Source\ClientSource\Client\GameLib\RaceDataFile.cpp
; File C:\DS Project\DS Files\Source\ClientSource\Client\eterBase\filename.h
; File C:\Program Files (x86)\Microsoft Visual Studio\2019\Community\VC\Tools\MSVC\14.27.29110\include\xstring
; File C:\DS Project\DS Files\Source\ClientSource\Client\eterBase\filename.h
; File C:\Program Files (x86)\Microsoft Visual Studio\2019\Community\VC\Tools\MSVC\14.27.29110\include\xstring
; File C:\DS Project\DS Files\Source\ClientSource\Client\eterBase\filename.h
; File C:\Program Files (x86)\Microsoft Visual Studio\2019\Community\VC\Tools\MSVC\14.27.29110\include\xstring
; File C:\DS Project\DS Files\Source\ClientSource\Client\eterBase\filename.h
; File C:\Program Files (x86)\Microsoft Visual Studio\2019\Community\VC\Tools\MSVC\14.27.29110\include\xstring
; File C:\DS Project\DS Files\Source\ClientSource\Client\GameLib\RaceDataFile.cpp
; File C:\Program Files (x86)\Microsoft Visual Studio\2019\Community\VC\Tools\MSVC\14.27.29110\include\xstring
; File C:\DS Project\DS Files\Source\ClientSource\Client\GameLib\RaceDataFile.cpp
; File C:\Program Files (x86)\Microsoft Visual Studio\2019\Community\VC\Tools\MSVC\14.27.29110\include\xstring
; File C:\Program Files (x86)\Microsoft Visual Studio\2019\Community\VC\Tools\MSVC\14.27.29110\include\xmemory
; File C:\DS Project\DS Files\Source\ClientSource\Client\GameLib\RaceDataFile.cpp
; File C:\Program Files (x86)\Microsoft Visual Studio\2019\Community\VC\Tools\MSVC\14.27.29110\include\vector
; File C:\DS Project\DS Files\Source\ClientSource\Client\GameLib\RaceDataFile.cpp
; File C:\Program Files (x86)\Microsoft Visual Studio\2019\Community\VC\Tools\MSVC\14.27.29110\include\vector
; File C:\Program Files (x86)\Microsoft Visual Studio\2019\Community\VC\Tools\MSVC\14.27.29110\include\xstring
; File C:\DS Project\DS Files\Source\ClientSource\Client\GameLib\RaceDataFile.cpp
; File C:\Program Files (x86)\Microsoft Visual Studio\2019\Community\VC\Tools\MSVC\14.27.29110\include\vector
; File C:\DS Project\DS Files\Source\ClientSource\Client\GameLib\RaceDataFile.cpp
; File C:\Program Files (x86)\Microsoft Visual Studio\2019\Community\VC\Tools\MSVC\14.27.29110\include\vector
; File C:\DS Project\DS Files\Source\ClientSource\Client\GameLib\RaceDataFile.cpp
; File C:\Program Files (x86)\Microsoft Visual Studio\2019\Community\VC\Tools\MSVC\14.27.29110\include\xstring
; File C:\DS Project\DS Files\Source\ClientSource\Client\GameLib\RaceDataFile.cpp
; File C:\Program Files (x86)\Microsoft Visual Studio\2019\Community\VC\Tools\MSVC\14.27.29110\include\xstring
; File C:\DS Project\DS Files\Source\ClientSource\Client\GameLib\RaceDataFile.cpp
; File C:\Program Files (x86)\Microsoft Visual Studio\2019\Community\VC\Tools\MSVC\14.27.29110\include\xstring
; File C:\DS Project\DS Files\Source\ClientSource\Client\GameLib\RaceDataFile.cpp
; File C:\Program Files (x86)\Microsoft Visual Studio\2019\Community\VC\Tools\MSVC\14.27.29110\include\xstring
; File C:\DS Project\DS Files\Source\ClientSource\Client\GameLib\RaceDataFile.cpp
; File C:\Program Files (x86)\Microsoft Visual Studio\2019\Community\VC\Tools\MSVC\14.27.29110\include\xstring
; File C:\DS Project\DS Files\Source\ClientSource\Client\GameLib\RaceDataFile.cpp
; File C:\Program Files (x86)\Microsoft Visual Studio\2019\Community\VC\Tools\MSVC\14.27.29110\include\xstring
; File C:\DS Project\DS Files\Source\ClientSource\Client\GameLib\RaceDataFile.cpp
; File C:\Program Files (x86)\Microsoft Visual Studio\2019\Community\VC\Tools\MSVC\14.27.29110\include\xstring
; File C:\DS Project\DS Files\Source\ClientSource\Client\GameLib\RaceDataFile.cpp
; File C:\Program Files (x86)\Microsoft Visual Studio\2019\Community\VC\Tools\MSVC\14.27.29110\include\xstring
; File C:\Program Files (x86)\Microsoft Visual Studio\2019\Community\VC\Tools\MSVC\14.27.29110\include\xmemory
; File C:\Program Files (x86)\Microsoft Visual Studio\2019\Community\VC\Tools\MSVC\14.27.29110\include\xstring
; File C:\DS Project\DS Files\Source\ClientSource\Client\GameLib\RaceDataFile.cpp
; File C:\Program Files (x86)\Microsoft Visual Studio\2019\Community\VC\Tools\MSVC\14.27.29110\include\xstring
; File C:\Program Files (x86)\Microsoft Visual Studio\2019\Community\VC\Tools\MSVC\14.27.29110\include\xmemory
; File C:\DS Project\DS Files\Source\ClientSource\Client\GameLib\RaceDataFile.cpp
; File C:\Program Files (x86)\Microsoft Visual Studio\2019\Community\VC\Tools\MSVC\14.27.29110\include\xstring
; File C:\DS Project\DS Files\Source\ClientSource\Client\GameLib\RaceDataFile.cpp
; File C:\Program Files (x86)\Microsoft Visual Studio\2019\Community\VC\Tools\MSVC\14.27.29110\include\xstring
; File C:\DS Project\DS Files\Source\ClientSource\Client\GameLib\RaceDataFile.cpp
; File C:\Program Files (x86)\Microsoft Visual Studio\2019\Community\VC\Tools\MSVC\14.27.29110\include\xstring
; File C:\Program Files (x86)\Microsoft Visual Studio\2019\Community\VC\Tools\MSVC\14.27.29110\include\xmemory
; File C:\DS Project\DS Files\Source\ClientSource\Client\GameLib\RaceDataFile.cpp
; File C:\Program Files (x86)\Microsoft Visual Studio\2019\Community\VC\Tools\MSVC\14.27.29110\include\xstring
; File C:\DS Project\DS Files\Source\ClientSource\Client\GameLib\RaceDataFile.cpp
; File C:\Program Files (x86)\Microsoft Visual Studio\2019\Community\VC\Tools\MSVC\14.27.29110\include\xstring
; File C:\Program Files (x86)\Microsoft Visual Studio\2019\Community\VC\Tools\MSVC\14.27.29110\include\xmemory
; File C:\Program Files (x86)\Microsoft Visual Studio\2019\Community\VC\Tools\MSVC\14.27.29110\include\xstring
; File C:\DS Project\DS Files\Source\ClientSource\Client\GameLib\RaceDataFile.cpp
; File C:\Program Files (x86)\Microsoft Visual Studio\2019\Community\VC\Tools\MSVC\14.27.29110\include\xstring
; File C:\DS Project\DS Files\Source\ClientSource\Client\GameLib\RaceDataFile.cpp
; File C:\Program Files (x86)\Microsoft Visual Studio\2019\Community\VC\Tools\MSVC\14.27.29110\include\xstring
; File C:\Program Files (x86)\Microsoft Visual Studio\2019\Community\VC\Tools\MSVC\14.27.29110\include\xmemory
; File C:\DS Project\DS Files\Source\ClientSource\Client\GameLib\RaceDataFile.cpp
; File C:\Program Files (x86)\Microsoft Visual Studio\2019\Community\VC\Tools\MSVC\14.27.29110\include\xstring
; File C:\DS Project\DS Files\Source\ClientSource\Client\GameLib\RaceDataFile.cpp
; File C:\Program Files (x86)\Microsoft Visual Studio\2019\Community\VC\Tools\MSVC\14.27.29110\include\xstring
; File C:\DS Project\DS Files\Source\ClientSource\Client\GameLib\RaceDataFile.cpp
; File C:\Program Files (x86)\Microsoft Visual Studio\2019\Community\VC\Tools\MSVC\14.27.29110\include\xstring
; File C:\Program Files (x86)\Microsoft Visual Studio\2019\Community\VC\Tools\MSVC\14.27.29110\include\xmemory
; File C:\DS Project\DS Files\Source\ClientSource\Client\GameLib\RaceDataFile.cpp
; File C:\Program Files (x86)\Microsoft Visual Studio\2019\Community\VC\Tools\MSVC\14.27.29110\include\xstring
; File C:\DS Project\DS Files\Source\ClientSource\Client\GameLib\RaceDataFile.cpp
; File C:\Program Files (x86)\Microsoft Visual Studio\2019\Community\VC\Tools\MSVC\14.27.29110\include\xstring
; File C:\DS Project\DS Files\Source\ClientSource\Client\GameLib\RaceDataFile.cpp
; File C:\Program Files (x86)\Microsoft Visual Studio\2019\Community\VC\Tools\MSVC\14.27.29110\include\xstring
; File C:\Program Files (x86)\Microsoft Visual Studio\2019\Community\VC\Tools\MSVC\14.27.29110\include\xmemory
; File C:\DS Project\DS Files\Source\ClientSource\Client\GameLib\RaceDataFile.cpp
; File C:\Program Files (x86)\Microsoft Visual Studio\2019\Community\VC\Tools\MSVC\14.27.29110\include\xstring
; File C:\DS Project\DS Files\Source\ClientSource\Client\GameLib\RaceDataFile.cpp
; File C:\Program Files (x86)\Microsoft Visual Studio\2019\Community\VC\Tools\MSVC\14.27.29110\include\xstring
; File C:\DS Project\DS Files\Source\ClientSource\Client\GameLib\RaceDataFile.cpp
; File C:\Program Files (x86)\Microsoft Visual Studio\2019\Community\VC\Tools\MSVC\14.27.29110\include\xstring
; File C:\DS Project\DS Files\Source\ClientSource\Client\GameLib\RaceDataFile.cpp
; File C:\Program Files (x86)\Microsoft Visual Studio\2019\Community\VC\Tools\MSVC\14.27.29110\include\xstring
; File C:\Program Files (x86)\Microsoft Visual Studio\2019\Community\VC\Tools\MSVC\14.27.29110\include\xmemory
; File C:\DS Project\DS Files\Source\ClientSource\Client\GameLib\RaceDataFile.cpp
; File C:\Program Files (x86)\Microsoft Visual Studio\2019\Community\VC\Tools\MSVC\14.27.29110\include\xstring
; File C:\DS Project\DS Files\Source\ClientSource\Client\GameLib\RaceDataFile.cpp
; File C:\Program Files (x86)\Microsoft Visual Studio\2019\Community\VC\Tools\MSVC\14.27.29110\include\xstring
; File C:\DS Project\DS Files\Source\ClientSource\Client\GameLib\RaceDataFile.cpp
; File C:\Program Files (x86)\Microsoft Visual Studio\2019\Community\VC\Tools\MSVC\14.27.29110\include\xstring
; File C:\DS Project\DS Files\Source\ClientSource\Client\GameLib\RaceDataFile.cpp
; File C:\Program Files (x86)\Microsoft Visual Studio\2019\Community\VC\Tools\MSVC\14.27.29110\include\xstring
; File C:\DS Project\DS Files\Source\ClientSource\Client\GameLib\RaceDataFile.cpp
; File C:\Program Files (x86)\Microsoft Visual Studio\2019\Community\VC\Tools\MSVC\14.27.29110\include\xstring
; File C:\DS Project\DS Files\Source\ClientSource\Client\GameLib\RaceDataFile.cpp
; File C:\Program Files (x86)\Microsoft Visual Studio\2019\Community\VC\Tools\MSVC\14.27.29110\include\xstring
; File C:\DS Project\DS Files\Source\ClientSource\Client\GameLib\RaceDataFile.cpp
; File C:\Program Files (x86)\Microsoft Visual Studio\2019\Community\VC\Tools\MSVC\14.27.29110\include\xstring
; File C:\Program Files (x86)\Microsoft Visual Studio\2019\Community\VC\Tools\MSVC\14.27.29110\include\xmemory
; File C:\Program Files (x86)\Microsoft Visual Studio\2019\Community\VC\Tools\MSVC\14.27.29110\include\xstring
; File C:\DS Project\DS Files\Source\ClientSource\Client\GameLib\RaceDataFile.cpp
; File C:\Program Files (x86)\Microsoft Visual Studio\2019\Community\VC\Tools\MSVC\14.27.29110\include\xstring
; File C:\Program Files (x86)\Microsoft Visual Studio\2019\Community\VC\Tools\MSVC\14.27.29110\include\xmemory
; File C:\DS Project\DS Files\Source\ClientSource\Client\GameLib\RaceDataFile.cpp
; File C:\Program Files (x86)\Microsoft Visual Studio\2019\Community\VC\Tools\MSVC\14.27.29110\include\xstring
; File C:\DS Project\DS Files\Source\ClientSource\Client\GameLib\RaceDataFile.cpp
; File C:\Program Files (x86)\Microsoft Visual Studio\2019\Community\VC\Tools\MSVC\14.27.29110\include\xstring
; File C:\DS Project\DS Files\Source\ClientSource\Client\GameLib\RaceDataFile.cpp
; File C:\Program Files (x86)\Microsoft Visual Studio\2019\Community\VC\Tools\MSVC\14.27.29110\include\xstring
; File C:\DS Project\DS Files\Source\ClientSource\Client\GameLib\RaceDataFile.cpp
; File C:\Program Files (x86)\Microsoft Visual Studio\2019\Community\VC\Tools\MSVC\14.27.29110\include\xstring
; File C:\DS Project\DS Files\Source\ClientSource\Client\GameLib\RaceDataFile.cpp
; File C:\Program Files (x86)\Microsoft Visual Studio\2019\Community\VC\Tools\MSVC\14.27.29110\include\xstring
; File C:\DS Project\DS Files\Source\ClientSource\Client\GameLib\RaceDataFile.cpp
; File C:\Program Files (x86)\Microsoft Visual Studio\2019\Community\VC\Tools\MSVC\14.27.29110\include\xstring
; File C:\Program Files (x86)\Microsoft Visual Studio\2019\Community\VC\Tools\MSVC\14.27.29110\include\xmemory
; File C:\Program Files (x86)\Microsoft Visual Studio\2019\Community\VC\Tools\MSVC\14.27.29110\include\xstring
; File C:\DS Project\DS Files\Source\ClientSource\Client\GameLib\RaceDataFile.cpp
; File C:\Program Files (x86)\Microsoft Visual Studio\2019\Community\VC\Tools\MSVC\14.27.29110\include\xstring
; File C:\Program Files (x86)\Microsoft Visual Studio\2019\Community\VC\Tools\MSVC\14.27.29110\include\xmemory
; File C:\DS Project\DS Files\Source\ClientSource\Client\GameLib\RaceDataFile.cpp
; File C:\Program Files (x86)\Microsoft Visual Studio\2019\Community\VC\Tools\MSVC\14.27.29110\include\xstring
; File C:\DS Project\DS Files\Source\ClientSource\Client\GameLib\RaceDataFile.cpp
; File C:\Program Files (x86)\Microsoft Visual Studio\2019\Community\VC\Tools\MSVC\14.27.29110\include\xstring
; File C:\DS Project\DS Files\Source\ClientSource\Client\GameLib\RaceDataFile.cpp
; File C:\Program Files (x86)\Microsoft Visual Studio\2019\Community\VC\Tools\MSVC\14.27.29110\include\xstring
; File C:\Program Files (x86)\Microsoft Visual Studio\2019\Community\VC\Tools\MSVC\14.27.29110\include\xmemory
; File C:\Program Files (x86)\Microsoft Visual Studio\2019\Community\VC\Tools\MSVC\14.27.29110\include\xstring
; File C:\DS Project\DS Files\Source\ClientSource\Client\GameLib\RaceDataFile.cpp
; File C:\Program Files (x86)\Microsoft Visual Studio\2019\Community\VC\Tools\MSVC\14.27.29110\include\xstring
; File C:\Program Files (x86)\Microsoft Visual Studio\2019\Community\VC\Tools\MSVC\14.27.29110\include\xmemory
; File C:\DS Project\DS Files\Source\ClientSource\Client\GameLib\RaceDataFile.cpp
; File C:\Program Files (x86)\Microsoft Visual Studio\2019\Community\VC\Tools\MSVC\14.27.29110\include\xstring
; File C:\DS Project\DS Files\Source\ClientSource\Client\GameLib\RaceDataFile.cpp
; File C:\Program Files (x86)\Microsoft Visual Studio\2019\Community\VC\Tools\MSVC\14.27.29110\include\xstring
; File C:\DS Project\DS Files\Source\ClientSource\Client\GameLib\RaceDataFile.cpp
; File C:\Program Files (x86)\Microsoft Visual Studio\2019\Community\VC\Tools\MSVC\14.27.29110\include\xstring
; File C:\DS Project\DS Files\Source\ClientSource\Client\GameLib\RaceDataFile.cpp
; File C:\Program Files (x86)\Microsoft Visual Studio\2019\Community\VC\Tools\MSVC\14.27.29110\include\xstring
; File C:\DS Project\DS Files\Source\ClientSource\Client\GameLib\RaceDataFile.cpp
; File C:\Program Files (x86)\Microsoft Visual Studio\2019\Community\VC\Tools\MSVC\14.27.29110\include\xstring
; File C:\Program Files (x86)\Microsoft Visual Studio\2019\Community\VC\Tools\MSVC\14.27.29110\include\xmemory
; File C:\Program Files (x86)\Microsoft Visual Studio\2019\Community\VC\Tools\MSVC\14.27.29110\include\xstring
; File C:\DS Project\DS Files\Source\ClientSource\Client\GameLib\RaceDataFile.cpp
; File C:\Program Files (x86)\Microsoft Visual Studio\2019\Community\VC\Tools\MSVC\14.27.29110\include\xstring
; File C:\Program Files (x86)\Microsoft Visual Studio\2019\Community\VC\Tools\MSVC\14.27.29110\include\xmemory
; File C:\DS Project\DS Files\Source\ClientSource\Client\GameLib\RaceDataFile.cpp
; File C:\Program Files (x86)\Microsoft Visual Studio\2019\Community\VC\Tools\MSVC\14.27.29110\include\xstring
; File C:\DS Project\DS Files\Source\ClientSource\Client\GameLib\RaceDataFile.cpp
; File C:\Program Files (x86)\Microsoft Visual Studio\2019\Community\VC\Tools\MSVC\14.27.29110\include\xstring
; File C:\DS Project\DS Files\Source\ClientSource\Client\GameLib\RaceDataFile.cpp
; File C:\Program Files (x86)\Microsoft Visual Studio\2019\Community\VC\Tools\MSVC\14.27.29110\include\xstring
; File C:\Program Files (x86)\Microsoft Visual Studio\2019\Community\VC\Tools\MSVC\14.27.29110\include\xmemory
; File C:\Program Files (x86)\Microsoft Visual Studio\2019\Community\VC\Tools\MSVC\14.27.29110\include\xstring
; File C:\DS Project\DS Files\Source\ClientSource\Client\GameLib\RaceDataFile.cpp
; File C:\Program Files (x86)\Microsoft Visual Studio\2019\Community\VC\Tools\MSVC\14.27.29110\include\xstring
; File C:\Program Files (x86)\Microsoft Visual Studio\2019\Community\VC\Tools\MSVC\14.27.29110\include\xmemory
; File C:\DS Project\DS Files\Source\ClientSource\Client\GameLib\RaceDataFile.cpp
; File C:\Program Files (x86)\Microsoft Visual Studio\2019\Community\VC\Tools\MSVC\14.27.29110\include\xstring
; File C:\Program Files (x86)\Microsoft Visual Studio\2019\Community\VC\Tools\MSVC\14.27.29110\include\xmemory
; File C:\Program Files (x86)\Microsoft Visual Studio\2019\Community\VC\Tools\MSVC\14.27.29110\include\xstring
; File C:\Program Files (x86)\Microsoft Visual Studio\2019\Community\VC\Tools\MSVC\14.27.29110\include\xmemory
; File C:\Program Files (x86)\Microsoft Visual Studio\2019\Community\VC\Tools\MSVC\14.27.29110\include\xstring
; File C:\DS Project\DS Files\Source\ClientSource\Client\GameLib\RaceDataFile.cpp
; File C:\Program Files (x86)\Microsoft Visual Studio\2019\Community\VC\Tools\MSVC\14.27.29110\include\xstring
; File C:\DS Project\DS Files\Source\ClientSource\Client\GameLib\RaceDataFile.cpp
; File C:\Program Files (x86)\Microsoft Visual Studio\2019\Community\VC\Tools\MSVC\14.27.29110\include\xstring
; File C:\Program Files (x86)\Microsoft Visual Studio\2019\Community\VC\Tools\MSVC\14.27.29110\include\xmemory
; File C:\DS Project\DS Files\Source\ClientSource\Client\GameLib\RaceDataFile.cpp
; File C:\Program Files (x86)\Microsoft Visual Studio\2019\Community\VC\Tools\MSVC\14.27.29110\include\xstring
; File C:\DS Project\DS Files\Source\ClientSource\Client\GameLib\RaceDataFile.cpp
; File C:\Program Files (x86)\Microsoft Visual Studio\2019\Community\VC\Tools\MSVC\14.27.29110\include\xstring
; File C:\DS Project\DS Files\Source\ClientSource\Client\GameLib\RaceDataFile.cpp
; File C:\Program Files (x86)\Microsoft Visual Studio\2019\Community\VC\Tools\MSVC\14.27.29110\include\xstring
; File C:\DS Project\DS Files\Source\ClientSource\Client\GameLib\RaceDataFile.cpp
; File C:\Program Files (x86)\Microsoft Visual Studio\2019\Community\VC\Tools\MSVC\14.27.29110\include\xstring
; File C:\DS Project\DS Files\Source\ClientSource\Client\GameLib\RaceDataFile.cpp
; File C:\Program Files (x86)\Microsoft Visual Studio\2019\Community\VC\Tools\MSVC\14.27.29110\include\xstring
; File C:\Program Files (x86)\Microsoft Visual Studio\2019\Community\VC\Tools\MSVC\14.27.29110\include\xmemory
; File C:\Program Files (x86)\Microsoft Visual Studio\2019\Community\VC\Tools\MSVC\14.27.29110\include\xstring
; File C:\DS Project\DS Files\Source\ClientSource\Client\GameLib\RaceDataFile.cpp
; File C:\Program Files (x86)\Microsoft Visual Studio\2019\Community\VC\Tools\MSVC\14.27.29110\include\xstring
; File C:\Program Files (x86)\Microsoft Visual Studio\2019\Community\VC\Tools\MSVC\14.27.29110\include\xmemory
; File C:\DS Project\DS Files\Source\ClientSource\Client\GameLib\RaceDataFile.cpp
; File C:\Program Files (x86)\Microsoft Visual Studio\2019\Community\VC\Tools\MSVC\14.27.29110\include\xstring
; File C:\DS Project\DS Files\Source\ClientSource\Client\GameLib\RaceDataFile.cpp
; File C:\Program Files (x86)\Microsoft Visual Studio\2019\Community\VC\Tools\MSVC\14.27.29110\include\xstring
; File C:\DS Project\DS Files\Source\ClientSource\Client\GameLib\RaceDataFile.cpp
; File C:\Program Files (x86)\Microsoft Visual Studio\2019\Community\VC\Tools\MSVC\14.27.29110\include\xstring
; File C:\Program Files (x86)\Microsoft Visual Studio\2019\Community\VC\Tools\MSVC\14.27.29110\include\xmemory
; File C:\DS Project\DS Files\Source\ClientSource\Client\GameLib\RaceDataFile.cpp
; File C:\Program Files (x86)\Microsoft Visual Studio\2019\Community\VC\Tools\MSVC\14.27.29110\include\xstring
; File C:\DS Project\DS Files\Source\ClientSource\Client\GameLib\RaceDataFile.cpp
; File C:\Program Files (x86)\Microsoft Visual Studio\2019\Community\VC\Tools\MSVC\14.27.29110\include\xstring
; File C:\DS Project\DS Files\Source\ClientSource\Client\GameLib\RaceDataFile.cpp
; File C:\Program Files (x86)\Microsoft Visual Studio\2019\Community\VC\Tools\MSVC\14.27.29110\include\xstring
; File C:\Program Files (x86)\Microsoft Visual Studio\2019\Community\VC\Tools\MSVC\14.27.29110\include\xmemory
; File C:\Program Files (x86)\Microsoft Visual Studio\2019\Community\VC\Tools\MSVC\14.27.29110\include\xstring
; File C:\DS Project\DS Files\Source\ClientSource\Client\GameLib\RaceDataFile.cpp
; File C:\Program Files (x86)\Microsoft Visual Studio\2019\Community\VC\Tools\MSVC\14.27.29110\include\xstring
; File C:\DS Project\DS Files\Source\ClientSource\Client\GameLib\RaceDataFile.cpp
; File C:\Program Files (x86)\Microsoft Visual Studio\2019\Community\VC\Tools\MSVC\14.27.29110\include\xstring
; File C:\Program Files (x86)\Microsoft Visual Studio\2019\Community\VC\Tools\MSVC\14.27.29110\include\xmemory
; File C:\DS Project\DS Files\Source\ClientSource\Client\GameLib\RaceDataFile.cpp
; File C:\Program Files (x86)\Microsoft Visual Studio\2019\Community\VC\Tools\MSVC\14.27.29110\include\xstring
; File C:\DS Project\DS Files\Source\ClientSource\Client\GameLib\RaceDataFile.cpp
; File C:\Program Files (x86)\Microsoft Visual Studio\2019\Community\VC\Tools\MSVC\14.27.29110\include\xstring
; File C:\DS Project\DS Files\Source\ClientSource\Client\GameLib\RaceDataFile.cpp
; File C:\Program Files (x86)\Microsoft Visual Studio\2019\Community\VC\Tools\MSVC\14.27.29110\include\xstring
; File C:\DS Project\DS Files\Source\ClientSource\Client\GameLib\RaceDataFile.cpp
; File C:\Program Files (x86)\Microsoft Visual Studio\2019\Community\VC\Tools\MSVC\14.27.29110\include\xstring
; File C:\DS Project\DS Files\Source\ClientSource\Client\GameLib\RaceDataFile.cpp
; File C:\Program Files (x86)\Microsoft Visual Studio\2019\Community\VC\Tools\MSVC\14.27.29110\include\xstring
; File C:\DS Project\DS Files\Source\ClientSource\Client\GameLib\RaceDataFile.cpp
; File C:\Program Files (x86)\Microsoft Visual Studio\2019\Community\VC\Tools\MSVC\14.27.29110\include\xstring
; File C:\Program Files (x86)\Microsoft Visual Studio\2019\Community\VC\Tools\MSVC\14.27.29110\include\xmemory
; File C:\Program Files (x86)\Microsoft Visual Studio\2019\Community\VC\Tools\MSVC\14.27.29110\include\xstring
; File C:\DS Project\DS Files\Source\ClientSource\Client\GameLib\RaceDataFile.cpp
; File C:\Program Files (x86)\Microsoft Visual Studio\2019\Community\VC\Tools\MSVC\14.27.29110\include\xstring
; File C:\DS Project\DS Files\Source\ClientSource\Client\GameLib\RaceDataFile.cpp
; File C:\Program Files (x86)\Microsoft Visual Studio\2019\Community\VC\Tools\MSVC\14.27.29110\include\xstring
; File C:\Program Files (x86)\Microsoft Visual Studio\2019\Community\VC\Tools\MSVC\14.27.29110\include\xmemory
; File C:\Program Files (x86)\Microsoft Visual Studio\2019\Community\VC\Tools\MSVC\14.27.29110\include\xstring
; File C:\DS Project\DS Files\Source\ClientSource\Client\GameLib\RaceDataFile.cpp
; File C:\Program Files (x86)\Microsoft Visual Studio\2019\Community\VC\Tools\MSVC\14.27.29110\include\xstring
; File C:\Program Files (x86)\Microsoft Visual Studio\2019\Community\VC\Tools\MSVC\14.27.29110\include\xmemory
; File C:\DS Project\DS Files\Source\ClientSource\Client\GameLib\RaceDataFile.cpp
; File C:\Program Files (x86)\Microsoft Visual Studio\2019\Community\VC\Tools\MSVC\14.27.29110\include\xstring
; File C:\DS Project\DS Files\Source\ClientSource\Client\GameLib\RaceDataFile.cpp
; File C:\Program Files (x86)\Microsoft Visual Studio\2019\Community\VC\Tools\MSVC\14.27.29110\include\xstring
; File C:\DS Project\DS Files\Source\ClientSource\Client\GameLib\RaceDataFile.cpp
; File C:\Program Files (x86)\Microsoft Visual Studio\2019\Community\VC\Tools\MSVC\14.27.29110\include\xstring
; File C:\Program Files (x86)\Microsoft Visual Studio\2019\Community\VC\Tools\MSVC\14.27.29110\include\xmemory
; File C:\Program Files (x86)\Microsoft Visual Studio\2019\Community\VC\Tools\MSVC\14.27.29110\include\xstring
; File C:\Program Files (x86)\Microsoft Visual Studio\2019\Community\VC\Tools\MSVC\14.27.29110\include\xmemory
; File C:\Program Files (x86)\Microsoft Visual Studio\2019\Community\VC\Tools\MSVC\14.27.29110\include\xstring
; File C:\DS Project\DS Files\Source\ClientSource\Client\GameLib\RaceDataFile.cpp
; File C:\Program Files (x86)\Microsoft Visual Studio\2019\Community\VC\Tools\MSVC\14.27.29110\include\xstring
; File C:\Program Files (x86)\Microsoft Visual Studio\2019\Community\VC\Tools\MSVC\14.27.29110\include\xmemory
; File C:\DS Project\DS Files\Source\ClientSource\Client\GameLib\RaceDataFile.cpp
; File C:\Program Files (x86)\Microsoft Visual Studio\2019\Community\VC\Tools\MSVC\14.27.29110\include\xstring
; File C:\Program Files (x86)\Microsoft Visual Studio\2019\Community\VC\Tools\MSVC\14.27.29110\include\xmemory
; File C:\Program Files (x86)\Microsoft Visual Studio\2019\Community\VC\Tools\MSVC\14.27.29110\include\xstring
; File C:\Program Files (x86)\Microsoft Visual Studio\2019\Community\VC\Tools\MSVC\14.27.29110\include\xmemory
; File C:\Program Files (x86)\Microsoft Visual Studio\2019\Community\VC\Tools\MSVC\14.27.29110\include\xstring
; File C:\DS Project\DS Files\Source\ClientSource\Client\GameLib\RaceDataFile.cpp
; File C:\Program Files (x86)\Microsoft Visual Studio\2019\Community\VC\Tools\MSVC\14.27.29110\include\xstring
; File C:\Program Files (x86)\Microsoft Visual Studio\2019\Community\VC\Tools\MSVC\14.27.29110\include\xmemory
; File C:\DS Project\DS Files\Source\ClientSource\Client\GameLib\RaceDataFile.cpp
; File C:\Program Files (x86)\Microsoft Visual Studio\2019\Community\VC\Tools\MSVC\14.27.29110\include\xstring
; File C:\DS Project\DS Files\Source\ClientSource\Client\GameLib\RaceDataFile.cpp
; File C:\Program Files (x86)\Microsoft Visual Studio\2019\Community\VC\Tools\MSVC\14.27.29110\include\xstring
; File C:\Program Files (x86)\Microsoft Visual Studio\2019\Community\VC\Tools\MSVC\14.27.29110\include\xmemory
; File C:\DS Project\DS Files\Source\ClientSource\Client\GameLib\RaceDataFile.cpp
; File C:\Program Files (x86)\Microsoft Visual Studio\2019\Community\VC\Tools\MSVC\14.27.29110\include\xstring
; File C:\Program Files (x86)\Microsoft Visual Studio\2019\Community\VC\Tools\MSVC\14.27.29110\include\vector
; File C:\DS Project\DS Files\Source\ClientSource\Client\GameLib\RaceDataFile.cpp
;	COMDAT ?LoadRaceData@CRaceData@@QAEHPBD@Z
_TEXT	SEGMENT
_uLineCount$1$ = -348					; size = 4
_dwShapeIndex$2 = -348					; size = 4
_pSmokeTokenVector$ = -344				; size = 4
_this$GSCopy$1$ = -340					; size = 4
__Result$1$ = -336					; size = 4
_i$1$ = -336						; size = 4
_uLine$1$ = -336					; size = 4
_dwShapeDataCount$3 = -336				; size = 4
_nLength$1$ = -332					; size = 4
_i$1$ = -332						; size = 4
_rdwCRCEft$1$ = -332					; size = 4
tv8700 = -332						; size = 4
tv8692 = -332						; size = 4
__New_ptr$4 = -332					; size = 4
__New_ptr$5 = -332					; size = 4
__New_ptr$6 = -332					; size = 4
tv8701 = -328						; size = 4
$T7 = -328						; size = 4
_i$1$ = -324						; size = 4
tv8683 = -324						; size = 4
_dwHairDataCount$8 = -324				; size = 4
_dwShapeIndex$9 = -324					; size = 4
$T10 = -320						; size = 4
_eSmoke$1$ = -320					; size = 4
$T11 = -313						; size = 1
$T12 = -313						; size = 1
$T13 = -313						; size = 1
$T14 = -313						; size = 1
$T15 = -313						; size = 1
$T16 = -313						; size = 1
$T17 = -313						; size = 1
$T18 = -313						; size = 1
$T19 = -313						; size = 1
$T20 = -313						; size = 1
$T21 = -313						; size = 1
_TextFileLoader$ = -312					; size = 128
_strModel$22 = -184					; size = 24
$T23 = -184						; size = 24
$T24 = -184						; size = 24
$T25 = -184						; size = 24
$T26 = -160						; size = 24
$T27 = -160						; size = 24
_strPathName$28 = -160					; size = 24
_strSourceSkin$29 = -136				; size = 24
_strSourceSkin$30 = -136				; size = 24
_strPathName$31 = -112					; size = 24
_strTargetSkin$32 = -112				; size = 24
_strTargetSkin$33 = -88					; size = 24
_strModel$34 = -88					; size = 24
$T35 = -88						; size = 24
$T36 = -64						; size = 24
$T37 = -64						; size = 24
$T38 = -64						; size = 24
$T39 = -64						; size = 24
$T40 = -64						; size = 24
$T41 = -64						; size = 24
$T42 = -64						; size = 24
$T43 = -64						; size = 24
$T44 = -64						; size = 24
$T45 = -64						; size = 24
$T46 = -64						; size = 24
$T47 = -40						; size = 24
$T48 = -40						; size = 24
$T49 = -40						; size = 24
$T50 = -40						; size = 24
$T51 = -40						; size = 24
$T52 = -40						; size = 24
$T53 = -40						; size = 24
$T54 = -40						; size = 24
$T55 = -40						; size = 24
$T56 = -40						; size = 24
$T57 = -40						; size = 24
$T58 = -40						; size = 24
$T59 = -40						; size = 24
$T60 = -40						; size = 24
$T61 = -40						; size = 24
$T62 = -40						; size = 24
$T63 = -40						; size = 24
$T64 = -40						; size = 24
__$ArrayPad$ = -16					; size = 4
__$EHRec$ = -12						; size = 12
_c_szFileName$ = 8					; size = 4
?LoadRaceData@CRaceData@@QAEHPBD@Z PROC			; CRaceData::LoadRaceData, COMDAT
; _this$ = ecx

; 11   : {

  00000	55		 push	 ebp
  00001	8b ec		 mov	 ebp, esp
  00003	6a ff		 push	 -1
  00005	68 00 00 00 00	 push	 __ehhandler$?LoadRaceData@CRaceData@@QAEHPBD@Z
  0000a	64 a1 00 00 00
	00		 mov	 eax, DWORD PTR fs:0
  00010	50		 push	 eax
  00011	81 ec 50 01 00
	00		 sub	 esp, 336		; 00000150H
  00017	a1 00 00 00 00	 mov	 eax, DWORD PTR ___security_cookie
  0001c	33 c5		 xor	 eax, ebp
  0001e	89 45 f0	 mov	 DWORD PTR __$ArrayPad$[ebp], eax
  00021	56		 push	 esi
  00022	57		 push	 edi
  00023	50		 push	 eax
  00024	8d 45 f4	 lea	 eax, DWORD PTR __$EHRec$[ebp]
  00027	64 a3 00 00 00
	00		 mov	 DWORD PTR fs:0, eax
  0002d	89 8d ac fe ff
	ff		 mov	 DWORD PTR _this$GSCopy$1$[ebp], ecx
  00033	8b 75 08	 mov	 esi, DWORD PTR _c_szFileName$[ebp]

; 12   : 	CTextFileLoader TextFileLoader;

  00036	8d 8d c8 fe ff
	ff		 lea	 ecx, DWORD PTR _TextFileLoader$[ebp]
  0003c	33 ff		 xor	 edi, edi
  0003e	89 bd b8 fe ff
	ff		 mov	 DWORD PTR $T7[ebp], edi
  00044	e8 00 00 00 00	 call	 ??0CTextFileLoader@@QAE@XZ ; CTextFileLoader::CTextFileLoader

; 13   : 	if (!TextFileLoader.Load(c_szFileName))

  00049	56		 push	 esi
  0004a	8d 8d c8 fe ff
	ff		 lea	 ecx, DWORD PTR _TextFileLoader$[ebp]
  00050	89 7d fc	 mov	 DWORD PTR __$EHRec$[ebp+8], edi
  00053	e8 00 00 00 00	 call	 ?Load@CTextFileLoader@@QAE_NPBD@Z ; CTextFileLoader::Load
  00058	84 c0		 test	 al, al
  0005a	0f 84 9c 03 00
	00		 je	 $LN124@LoadRaceDa

; 14   : 		return FALSE;
; 15   : 
; 16   : 	TextFileLoader.SetTop();

  00060	8d 8d c8 fe ff
	ff		 lea	 ecx, DWORD PTR _TextFileLoader$[ebp]
  00066	e8 00 00 00 00	 call	 ?SetTop@CTextFileLoader@@QAEXXZ ; CTextFileLoader::SetTop
; File C:\Program Files (x86)\Microsoft Visual Studio\2019\Community\VC\Tools\MSVC\14.27.29110\include\xmemory

; 807  :         return static_cast<_Ty*>(_Allocate<_New_alignof<_Ty>>(_Get_size_of_n<sizeof(_Ty)>(_Count)));

  0006b	6a 20		 push	 32			; 00000020H
; File C:\Program Files (x86)\Microsoft Visual Studio\2019\Community\VC\Tools\MSVC\14.27.29110\include\xstring

; 4293 :         _Mypair._Myval2._Mysize = 0;

  0006d	89 7d e8	 mov	 DWORD PTR $T64[ebp+16], edi

; 4294 :         _Mypair._Myval2._Myres  = _BUF_SIZE - 1;

  00070	c7 45 ec 0f 00
	00 00		 mov	 DWORD PTR $T64[ebp+20], 15 ; 0000000fH

; 4295 :         // the _Traits::assign is last so the codegen doesn't think the char write can alias this
; 4296 :         _Traits::assign(_Mypair._Myval2._Bx._Buf[0], _Elem());

  00077	c6 45 d8 00	 mov	 BYTE PTR $T64[ebp], 0
; File C:\Program Files (x86)\Microsoft Visual Studio\2019\Community\VC\Tools\MSVC\14.27.29110\include\xmemory

; 807  :         return static_cast<_Ty*>(_Allocate<_New_alignof<_Ty>>(_Get_size_of_n<sizeof(_Ty)>(_Count)));

  0007b	e8 00 00 00 00	 call	 ??$_Allocate@$07U_Default_allocate_traits@std@@$0A@@std@@YAPAXI@Z ; std::_Allocate<8,std::_Default_allocate_traits,0>
; File C:\Program Files (x86)\Microsoft Visual Studio\2019\Community\VC\Tools\MSVC\14.27.29110\include\xstring

; 328  :         return static_cast<_Elem*>(_CSTD memcpy(_First1, _First2, _Count));

  00080	0f 10 05 00 00
	00 00		 movups	 xmm0, XMMWORD PTR ??_C@_0BC@NDOIOPFI@basemodelfilename@

; 4230 :         _Mypair._Myval2._Mysize = _New_size;

  00087	c7 45 e8 11 00
	00 00		 mov	 DWORD PTR $T64[ebp+16], 17 ; 00000011H

; 4231 :         _Mypair._Myval2._Myres  = _New_capacity;

  0008e	c7 45 ec 1f 00
	00 00		 mov	 DWORD PTR $T64[ebp+20], 31 ; 0000001fH

; 328  :         return static_cast<_Elem*>(_CSTD memcpy(_First1, _First2, _Count));

  00095	0f 11 00	 movups	 XMMWORD PTR [eax], xmm0
  00098	8a 0d 10 00 00
	00		 mov	 cl, BYTE PTR ??_C@_0BC@NDOIOPFI@basemodelfilename@+16
  0009e	88 48 10	 mov	 BYTE PTR [eax+16], cl

; 4228 :         const pointer _New_ptr        = _Al.allocate(_New_capacity + 1); // throws

  000a1	89 85 b4 fe ff
	ff		 mov	 DWORD PTR __New_ptr$6[ebp], eax

; 2978 :                 _Traits::assign(_New_ptr[_Count], _Elem());

  000a7	c6 40 11 00	 mov	 BYTE PTR [eax+17], 0

; 4237 :             _Construct_in_place(_Mypair._Myval2._Bx._Ptr, _New_ptr);

  000ab	8d 85 b4 fe ff
	ff		 lea	 eax, DWORD PTR __New_ptr$6[ebp]
  000b1	50		 push	 eax
  000b2	8d 45 d8	 lea	 eax, DWORD PTR $T64[ebp]
  000b5	50		 push	 eax
  000b6	e8 00 00 00 00	 call	 ??$_Construct_in_place@PADABQAD@std@@YAXAAPADABQAD@Z ; std::_Construct_in_place<char *,char * const &>
  000bb	83 c4 0c	 add	 esp, 12			; 0000000cH
; File C:\DS Project\DS Files\Source\ClientSource\Client\GameLib\RaceDataFile.cpp

; 18   : 	TextFileLoader.GetTokenString("basemodelfilename", &m_strBaseModelFileName);

  000be	8b b5 ac fe ff
	ff		 mov	 esi, DWORD PTR _this$GSCopy$1$[ebp]
  000c4	8d 8d c8 fe ff
	ff		 lea	 ecx, DWORD PTR _TextFileLoader$[ebp]
  000ca	c6 45 fc 01	 mov	 BYTE PTR __$EHRec$[ebp+8], 1
  000ce	8d 46 20	 lea	 eax, DWORD PTR [esi+32]
  000d1	50		 push	 eax
  000d2	8d 45 d8	 lea	 eax, DWORD PTR $T64[ebp]
  000d5	50		 push	 eax
  000d6	e8 00 00 00 00	 call	 ?GetTokenString@CTextFileLoader@@QAEHABV?$basic_string@DU?$char_traits@D@std@@V?$allocator@D@2@@std@@PAV23@@Z ; CTextFileLoader::GetTokenString
; File C:\Program Files (x86)\Microsoft Visual Studio\2019\Community\VC\Tools\MSVC\14.27.29110\include\xstring

; 4301 :         if (_Mypair._Myval2._Large_string_engaged()) {

  000db	8b 45 ec	 mov	 eax, DWORD PTR $T64[ebp+20]
  000de	83 f8 10	 cmp	 eax, 16			; 00000010H
  000e1	72 0d		 jb	 SHORT $LN177@LoadRaceDa

; 4302 :             const pointer _Ptr = _Mypair._Myval2._Bx._Ptr;
; 4303 :             auto& _Al          = _Getal();
; 4304 :             _Destroy_in_place(_Mypair._Myval2._Bx._Ptr);
; 4305 :             _Al.deallocate(_Ptr, _Mypair._Myval2._Myres + 1);

  000e3	40		 inc	 eax
; File C:\Program Files (x86)\Microsoft Visual Studio\2019\Community\VC\Tools\MSVC\14.27.29110\include\xmemory

; 803  :         _Deallocate<_New_alignof<_Ty>>(_Ptr, sizeof(_Ty) * _Count);

  000e4	50		 push	 eax
  000e5	ff 75 d8	 push	 DWORD PTR $T64[ebp]
  000e8	e8 00 00 00 00	 call	 ??$_Deallocate@$07$0A@@std@@YAXPAXI@Z ; std::_Deallocate<8,0>
  000ed	83 c4 08	 add	 esp, 8
$LN177@LoadRaceDa:
; File C:\Program Files (x86)\Microsoft Visual Studio\2019\Community\VC\Tools\MSVC\14.27.29110\include\xstring

; 363  :         return static_cast<_Elem*>(_CSTD memmove(_First1, _First2, _Count));

  000f0	f3 0f 7e 05 00
	00 00 00	 movq	 xmm0, QWORD PTR ??_C@_0N@FNBFCAFH@treefilename@
  000f8	a1 08 00 00 00	 mov	 eax, DWORD PTR ??_C@_0N@FNBFCAFH@treefilename@+8

; 4294 :         _Mypair._Myval2._Myres  = _BUF_SIZE - 1;

  000fd	c7 45 ec 0f 00
	00 00		 mov	 DWORD PTR $T63[ebp+20], 15 ; 0000000fH

; 2968 :             _Mypair._Myval2._Mysize = _Count;

  00104	c7 45 e8 0c 00
	00 00		 mov	 DWORD PTR $T63[ebp+16], 12 ; 0000000cH

; 363  :         return static_cast<_Elem*>(_CSTD memmove(_First1, _First2, _Count));

  0010b	66 0f d6 45 d8	 movq	 QWORD PTR $T63[ebp], xmm0
  00110	89 45 e0	 mov	 DWORD PTR $T63[ebp+8], eax

; 2970 :             _Traits::assign(_Old_ptr[_Count], _Elem());

  00113	c6 45 e4 00	 mov	 BYTE PTR $T63[ebp+12], 0
; File C:\DS Project\DS Files\Source\ClientSource\Client\GameLib\RaceDataFile.cpp

; 19   : 	TextFileLoader.GetTokenString("treefilename", &m_strTreeFileName);

  00117	83 c6 38	 add	 esi, 56			; 00000038H
  0011a	c6 45 fc 02	 mov	 BYTE PTR __$EHRec$[ebp+8], 2
  0011e	56		 push	 esi
  0011f	8d 45 d8	 lea	 eax, DWORD PTR $T63[ebp]
  00122	50		 push	 eax
  00123	8d 8d c8 fe ff
	ff		 lea	 ecx, DWORD PTR _TextFileLoader$[ebp]
  00129	e8 00 00 00 00	 call	 ?GetTokenString@CTextFileLoader@@QAEHABV?$basic_string@DU?$char_traits@D@std@@V?$allocator@D@2@@std@@PAV23@@Z ; CTextFileLoader::GetTokenString
; File C:\Program Files (x86)\Microsoft Visual Studio\2019\Community\VC\Tools\MSVC\14.27.29110\include\xstring

; 4301 :         if (_Mypair._Myval2._Large_string_engaged()) {

  0012e	8b 45 ec	 mov	 eax, DWORD PTR $T63[ebp+20]
; File C:\DS Project\DS Files\Source\ClientSource\Client\GameLib\RaceDataFile.cpp

; 19   : 	TextFileLoader.GetTokenString("treefilename", &m_strTreeFileName);

  00131	c6 45 fc 00	 mov	 BYTE PTR __$EHRec$[ebp+8], 0
; File C:\Program Files (x86)\Microsoft Visual Studio\2019\Community\VC\Tools\MSVC\14.27.29110\include\xstring

; 4301 :         if (_Mypair._Myval2._Large_string_engaged()) {

  00135	83 f8 10	 cmp	 eax, 16			; 00000010H
  00138	72 0d		 jb	 SHORT $LN233@LoadRaceDa

; 4302 :             const pointer _Ptr = _Mypair._Myval2._Bx._Ptr;
; 4303 :             auto& _Al          = _Getal();
; 4304 :             _Destroy_in_place(_Mypair._Myval2._Bx._Ptr);
; 4305 :             _Al.deallocate(_Ptr, _Mypair._Myval2._Myres + 1);

  0013a	40		 inc	 eax
; File C:\Program Files (x86)\Microsoft Visual Studio\2019\Community\VC\Tools\MSVC\14.27.29110\include\xmemory

; 803  :         _Deallocate<_New_alignof<_Ty>>(_Ptr, sizeof(_Ty) * _Count);

  0013b	50		 push	 eax
  0013c	ff 75 d8	 push	 DWORD PTR $T63[ebp]
  0013f	e8 00 00 00 00	 call	 ??$_Deallocate@$07$0A@@std@@YAXPAXI@Z ; std::_Deallocate<8,0>
  00144	83 c4 08	 add	 esp, 8
$LN233@LoadRaceDa:

; 807  :         return static_cast<_Ty*>(_Allocate<_New_alignof<_Ty>>(_Get_size_of_n<sizeof(_Ty)>(_Count)));

  00147	6a 20		 push	 32			; 00000020H
; File C:\Program Files (x86)\Microsoft Visual Studio\2019\Community\VC\Tools\MSVC\14.27.29110\include\xstring

; 4293 :         _Mypair._Myval2._Mysize = 0;

  00149	c7 45 e8 00 00
	00 00		 mov	 DWORD PTR $T62[ebp+16], 0

; 4294 :         _Mypair._Myval2._Myres  = _BUF_SIZE - 1;

  00150	c7 45 ec 0f 00
	00 00		 mov	 DWORD PTR $T62[ebp+20], 15 ; 0000000fH

; 4295 :         // the _Traits::assign is last so the codegen doesn't think the char write can alias this
; 4296 :         _Traits::assign(_Mypair._Myval2._Bx._Buf[0], _Elem());

  00157	c6 45 d8 00	 mov	 BYTE PTR $T62[ebp], 0
; File C:\Program Files (x86)\Microsoft Visual Studio\2019\Community\VC\Tools\MSVC\14.27.29110\include\xmemory

; 807  :         return static_cast<_Ty*>(_Allocate<_New_alignof<_Ty>>(_Get_size_of_n<sizeof(_Ty)>(_Count)));

  0015b	e8 00 00 00 00	 call	 ??$_Allocate@$07U_Default_allocate_traits@std@@$0A@@std@@YAPAXI@Z ; std::_Allocate<8,std::_Default_allocate_traits,0>
; File C:\Program Files (x86)\Microsoft Visual Studio\2019\Community\VC\Tools\MSVC\14.27.29110\include\xstring

; 328  :         return static_cast<_Elem*>(_CSTD memcpy(_First1, _First2, _Count));

  00160	0f 10 05 00 00
	00 00		 movups	 xmm0, XMMWORD PTR ??_C@_0BC@KCFLFBNM@attributefilename@

; 4230 :         _Mypair._Myval2._Mysize = _New_size;

  00167	c7 45 e8 11 00
	00 00		 mov	 DWORD PTR $T62[ebp+16], 17 ; 00000011H

; 4231 :         _Mypair._Myval2._Myres  = _New_capacity;

  0016e	c7 45 ec 1f 00
	00 00		 mov	 DWORD PTR $T62[ebp+20], 31 ; 0000001fH

; 328  :         return static_cast<_Elem*>(_CSTD memcpy(_First1, _First2, _Count));

  00175	0f 11 00	 movups	 XMMWORD PTR [eax], xmm0
  00178	8a 0d 10 00 00
	00		 mov	 cl, BYTE PTR ??_C@_0BC@KCFLFBNM@attributefilename@+16
  0017e	88 48 10	 mov	 BYTE PTR [eax+16], cl

; 4228 :         const pointer _New_ptr        = _Al.allocate(_New_capacity + 1); // throws

  00181	89 85 b4 fe ff
	ff		 mov	 DWORD PTR __New_ptr$5[ebp], eax

; 2978 :                 _Traits::assign(_New_ptr[_Count], _Elem());

  00187	c6 40 11 00	 mov	 BYTE PTR [eax+17], 0

; 4237 :             _Construct_in_place(_Mypair._Myval2._Bx._Ptr, _New_ptr);

  0018b	8d 85 b4 fe ff
	ff		 lea	 eax, DWORD PTR __New_ptr$5[ebp]
  00191	50		 push	 eax
  00192	8d 45 d8	 lea	 eax, DWORD PTR $T62[ebp]
  00195	50		 push	 eax
  00196	e8 00 00 00 00	 call	 ??$_Construct_in_place@PADABQAD@std@@YAXAAPADABQAD@Z ; std::_Construct_in_place<char *,char * const &>
  0019b	83 c4 0c	 add	 esp, 12			; 0000000cH
; File C:\DS Project\DS Files\Source\ClientSource\Client\GameLib\RaceDataFile.cpp

; 20   : 	TextFileLoader.GetTokenString("attributefilename", &m_strAttributeFileName);

  0019e	8b 85 ac fe ff
	ff		 mov	 eax, DWORD PTR _this$GSCopy$1$[ebp]
  001a4	8d 8d c8 fe ff
	ff		 lea	 ecx, DWORD PTR _TextFileLoader$[ebp]
  001aa	83 c0 50	 add	 eax, 80			; 00000050H
  001ad	c6 45 fc 03	 mov	 BYTE PTR __$EHRec$[ebp+8], 3
  001b1	50		 push	 eax
  001b2	8d 45 d8	 lea	 eax, DWORD PTR $T62[ebp]
  001b5	50		 push	 eax
  001b6	e8 00 00 00 00	 call	 ?GetTokenString@CTextFileLoader@@QAEHABV?$basic_string@DU?$char_traits@D@std@@V?$allocator@D@2@@std@@PAV23@@Z ; CTextFileLoader::GetTokenString
; File C:\Program Files (x86)\Microsoft Visual Studio\2019\Community\VC\Tools\MSVC\14.27.29110\include\xstring

; 4301 :         if (_Mypair._Myval2._Large_string_engaged()) {

  001bb	8b 45 ec	 mov	 eax, DWORD PTR $T62[ebp+20]
  001be	83 f8 10	 cmp	 eax, 16			; 00000010H
  001c1	72 0d		 jb	 SHORT $LN289@LoadRaceDa

; 4302 :             const pointer _Ptr = _Mypair._Myval2._Bx._Ptr;
; 4303 :             auto& _Al          = _Getal();
; 4304 :             _Destroy_in_place(_Mypair._Myval2._Bx._Ptr);
; 4305 :             _Al.deallocate(_Ptr, _Mypair._Myval2._Myres + 1);

  001c3	40		 inc	 eax
; File C:\Program Files (x86)\Microsoft Visual Studio\2019\Community\VC\Tools\MSVC\14.27.29110\include\xmemory

; 803  :         _Deallocate<_New_alignof<_Ty>>(_Ptr, sizeof(_Ty) * _Count);

  001c4	50		 push	 eax
  001c5	ff 75 d8	 push	 DWORD PTR $T62[ebp]
  001c8	e8 00 00 00 00	 call	 ??$_Deallocate@$07$0A@@std@@YAXPAXI@Z ; std::_Deallocate<8,0>
  001cd	83 c4 08	 add	 esp, 8
$LN289@LoadRaceDa:
; File C:\Program Files (x86)\Microsoft Visual Studio\2019\Community\VC\Tools\MSVC\14.27.29110\include\xstring

; 363  :         return static_cast<_Elem*>(_CSTD memmove(_First1, _First2, _Count));

  001d0	a1 08 00 00 00	 mov	 eax, DWORD PTR ??_C@_0O@OKJLKLAI@smokebonename@+8
  001d5	f3 0f 7e 05 00
	00 00 00	 movq	 xmm0, QWORD PTR ??_C@_0O@OKJLKLAI@smokebonename@
  001dd	89 45 e0	 mov	 DWORD PTR $T61[ebp+8], eax
  001e0	a0 0c 00 00 00	 mov	 al, BYTE PTR ??_C@_0O@OKJLKLAI@smokebonename@+12

; 4294 :         _Mypair._Myval2._Myres  = _BUF_SIZE - 1;

  001e5	c7 45 ec 0f 00
	00 00		 mov	 DWORD PTR $T61[ebp+20], 15 ; 0000000fH

; 2968 :             _Mypair._Myval2._Mysize = _Count;

  001ec	c7 45 e8 0d 00
	00 00		 mov	 DWORD PTR $T61[ebp+16], 13 ; 0000000dH

; 363  :         return static_cast<_Elem*>(_CSTD memmove(_First1, _First2, _Count));

  001f3	66 0f d6 45 d8	 movq	 QWORD PTR $T61[ebp], xmm0
  001f8	88 45 e4	 mov	 BYTE PTR $T61[ebp+12], al

; 2970 :             _Traits::assign(_Old_ptr[_Count], _Elem());

  001fb	c6 45 e5 00	 mov	 BYTE PTR $T61[ebp+13], 0
; File C:\DS Project\DS Files\Source\ClientSource\Client\GameLib\RaceDataFile.cpp

; 21   : 	TextFileLoader.GetTokenString("smokebonename", &m_strSmokeBoneName);

  001ff	8b 85 ac fe ff
	ff		 mov	 eax, DWORD PTR _this$GSCopy$1$[ebp]
  00205	8d 8d c8 fe ff
	ff		 lea	 ecx, DWORD PTR _TextFileLoader$[ebp]
  0020b	83 e8 80	 sub	 eax, -128		; ffffff80H
  0020e	c6 45 fc 04	 mov	 BYTE PTR __$EHRec$[ebp+8], 4
  00212	50		 push	 eax
  00213	8d 45 d8	 lea	 eax, DWORD PTR $T61[ebp]
  00216	50		 push	 eax
  00217	e8 00 00 00 00	 call	 ?GetTokenString@CTextFileLoader@@QAEHABV?$basic_string@DU?$char_traits@D@std@@V?$allocator@D@2@@std@@PAV23@@Z ; CTextFileLoader::GetTokenString
; File C:\Program Files (x86)\Microsoft Visual Studio\2019\Community\VC\Tools\MSVC\14.27.29110\include\xstring

; 4301 :         if (_Mypair._Myval2._Large_string_engaged()) {

  0021c	8b 45 ec	 mov	 eax, DWORD PTR $T61[ebp+20]
; File C:\DS Project\DS Files\Source\ClientSource\Client\GameLib\RaceDataFile.cpp

; 21   : 	TextFileLoader.GetTokenString("smokebonename", &m_strSmokeBoneName);

  0021f	c6 45 fc 00	 mov	 BYTE PTR __$EHRec$[ebp+8], 0
; File C:\Program Files (x86)\Microsoft Visual Studio\2019\Community\VC\Tools\MSVC\14.27.29110\include\xstring

; 4301 :         if (_Mypair._Myval2._Large_string_engaged()) {

  00223	83 f8 10	 cmp	 eax, 16			; 00000010H
  00226	72 0d		 jb	 SHORT $LN345@LoadRaceDa

; 4302 :             const pointer _Ptr = _Mypair._Myval2._Bx._Ptr;
; 4303 :             auto& _Al          = _Getal();
; 4304 :             _Destroy_in_place(_Mypair._Myval2._Bx._Ptr);
; 4305 :             _Al.deallocate(_Ptr, _Mypair._Myval2._Myres + 1);

  00228	40		 inc	 eax
; File C:\Program Files (x86)\Microsoft Visual Studio\2019\Community\VC\Tools\MSVC\14.27.29110\include\xmemory

; 803  :         _Deallocate<_New_alignof<_Ty>>(_Ptr, sizeof(_Ty) * _Count);

  00229	50		 push	 eax
  0022a	ff 75 d8	 push	 DWORD PTR $T61[ebp]
  0022d	e8 00 00 00 00	 call	 ??$_Deallocate@$07$0A@@std@@YAXPAXI@Z ; std::_Deallocate<8,0>
  00232	83 c4 08	 add	 esp, 8
$LN345@LoadRaceDa:

; 807  :         return static_cast<_Ty*>(_Allocate<_New_alignof<_Ty>>(_Get_size_of_n<sizeof(_Ty)>(_Count)));

  00235	6a 20		 push	 32			; 00000020H
; File C:\Program Files (x86)\Microsoft Visual Studio\2019\Community\VC\Tools\MSVC\14.27.29110\include\xstring

; 4293 :         _Mypair._Myval2._Mysize = 0;

  00237	c7 45 e8 00 00
	00 00		 mov	 DWORD PTR $T60[ebp+16], 0

; 4294 :         _Mypair._Myval2._Myres  = _BUF_SIZE - 1;

  0023e	c7 45 ec 0f 00
	00 00		 mov	 DWORD PTR $T60[ebp+20], 15 ; 0000000fH

; 4295 :         // the _Traits::assign is last so the codegen doesn't think the char write can alias this
; 4296 :         _Traits::assign(_Mypair._Myval2._Bx._Buf[0], _Elem());

  00245	c6 45 d8 00	 mov	 BYTE PTR $T60[ebp], 0
; File C:\Program Files (x86)\Microsoft Visual Studio\2019\Community\VC\Tools\MSVC\14.27.29110\include\xmemory

; 807  :         return static_cast<_Ty*>(_Allocate<_New_alignof<_Ty>>(_Get_size_of_n<sizeof(_Ty)>(_Count)));

  00249	e8 00 00 00 00	 call	 ??$_Allocate@$07U_Default_allocate_traits@std@@$0A@@std@@YAPAXI@Z ; std::_Allocate<8,std::_Default_allocate_traits,0>
; File C:\Program Files (x86)\Microsoft Visual Studio\2019\Community\VC\Tools\MSVC\14.27.29110\include\xstring

; 328  :         return static_cast<_Elem*>(_CSTD memcpy(_First1, _First2, _Count));

  0024e	0f 10 05 00 00
	00 00		 movups	 xmm0, XMMWORD PTR ??_C@_0BD@HKKNCHKI@motionlistfilename@

; 4230 :         _Mypair._Myval2._Mysize = _New_size;

  00255	c7 45 e8 12 00
	00 00		 mov	 DWORD PTR $T60[ebp+16], 18 ; 00000012H

; 4231 :         _Mypair._Myval2._Myres  = _New_capacity;

  0025c	c7 45 ec 1f 00
	00 00		 mov	 DWORD PTR $T60[ebp+20], 31 ; 0000001fH

; 328  :         return static_cast<_Elem*>(_CSTD memcpy(_First1, _First2, _Count));

  00263	0f 11 00	 movups	 XMMWORD PTR [eax], xmm0
  00266	66 8b 0d 10 00
	00 00		 mov	 cx, WORD PTR ??_C@_0BD@HKKNCHKI@motionlistfilename@+16
  0026d	66 89 48 10	 mov	 WORD PTR [eax+16], cx

; 4228 :         const pointer _New_ptr        = _Al.allocate(_New_capacity + 1); // throws

  00271	89 85 b4 fe ff
	ff		 mov	 DWORD PTR __New_ptr$4[ebp], eax

; 2978 :                 _Traits::assign(_New_ptr[_Count], _Elem());

  00277	c6 40 12 00	 mov	 BYTE PTR [eax+18], 0

; 4237 :             _Construct_in_place(_Mypair._Myval2._Bx._Ptr, _New_ptr);

  0027b	8d 85 b4 fe ff
	ff		 lea	 eax, DWORD PTR __New_ptr$4[ebp]
  00281	50		 push	 eax
  00282	8d 45 d8	 lea	 eax, DWORD PTR $T60[ebp]
  00285	50		 push	 eax
  00286	e8 00 00 00 00	 call	 ??$_Construct_in_place@PADABQAD@std@@YAXAAPADABQAD@Z ; std::_Construct_in_place<char *,char * const &>
  0028b	83 c4 0c	 add	 esp, 12			; 0000000cH
; File C:\DS Project\DS Files\Source\ClientSource\Client\GameLib\RaceDataFile.cpp

; 22   : 	TextFileLoader.GetTokenString("motionlistfilename", &m_strMotionListFileName);

  0028e	8b 85 ac fe ff
	ff		 mov	 eax, DWORD PTR _this$GSCopy$1$[ebp]
  00294	8d 8d c8 fe ff
	ff		 lea	 ecx, DWORD PTR _TextFileLoader$[ebp]
  0029a	83 c0 68	 add	 eax, 104		; 00000068H
  0029d	c6 45 fc 05	 mov	 BYTE PTR __$EHRec$[ebp+8], 5
  002a1	50		 push	 eax
  002a2	8d 45 d8	 lea	 eax, DWORD PTR $T60[ebp]
  002a5	50		 push	 eax
  002a6	e8 00 00 00 00	 call	 ?GetTokenString@CTextFileLoader@@QAEHABV?$basic_string@DU?$char_traits@D@std@@V?$allocator@D@2@@std@@PAV23@@Z ; CTextFileLoader::GetTokenString
; File C:\Program Files (x86)\Microsoft Visual Studio\2019\Community\VC\Tools\MSVC\14.27.29110\include\xstring

; 4301 :         if (_Mypair._Myval2._Large_string_engaged()) {

  002ab	8b 45 ec	 mov	 eax, DWORD PTR $T60[ebp+20]
; File C:\DS Project\DS Files\Source\ClientSource\Client\GameLib\RaceDataFile.cpp

; 22   : 	TextFileLoader.GetTokenString("motionlistfilename", &m_strMotionListFileName);

  002ae	c6 45 fc 00	 mov	 BYTE PTR __$EHRec$[ebp+8], 0
; File C:\Program Files (x86)\Microsoft Visual Studio\2019\Community\VC\Tools\MSVC\14.27.29110\include\xstring

; 4301 :         if (_Mypair._Myval2._Large_string_engaged()) {

  002b2	83 f8 10	 cmp	 eax, 16			; 00000010H
  002b5	72 0d		 jb	 SHORT $LN401@LoadRaceDa

; 4302 :             const pointer _Ptr = _Mypair._Myval2._Bx._Ptr;
; 4303 :             auto& _Al          = _Getal();
; 4304 :             _Destroy_in_place(_Mypair._Myval2._Bx._Ptr);
; 4305 :             _Al.deallocate(_Ptr, _Mypair._Myval2._Myres + 1);

  002b7	40		 inc	 eax
; File C:\Program Files (x86)\Microsoft Visual Studio\2019\Community\VC\Tools\MSVC\14.27.29110\include\xmemory

; 803  :         _Deallocate<_New_alignof<_Ty>>(_Ptr, sizeof(_Ty) * _Count);

  002b8	50		 push	 eax
  002b9	ff 75 d8	 push	 DWORD PTR $T60[ebp]
  002bc	e8 00 00 00 00	 call	 ??$_Deallocate@$07$0A@@std@@YAXPAXI@Z ; std::_Deallocate<8,0>
  002c1	83 c4 08	 add	 esp, 8
$LN401@LoadRaceDa:
; File C:\DS Project\DS Files\Source\ClientSource\Client\GameLib\RaceDataFile.cpp

; 24   : 	if (!m_strTreeFileName.empty())

  002c4	8b 85 ac fe ff
	ff		 mov	 eax, DWORD PTR _this$GSCopy$1$[ebp]
  002ca	83 78 48 00	 cmp	 DWORD PTR [eax+72], 0
  002ce	0f 84 8e 00 00
	00		 je	 $LN411@LoadRaceDa
; File C:\DS Project\DS Files\Source\ClientSource\Client\eterBase\filename.h

; 224  : 		size_t nLength = str.length();

  002d4	8b 4e 10	 mov	 ecx, DWORD PTR [esi+16]

; 225  : 
; 226  : 		for (size_t i = 0; i<nLength; ++i)

  002d7	33 c0		 xor	 eax, eax
  002d9	89 8d b4 fe ff
	ff		 mov	 DWORD PTR _nLength$1$[ebp], ecx
  002df	89 85 bc fe ff
	ff		 mov	 DWORD PTR _i$1$[ebp], eax
  002e5	85 c9		 test	 ecx, ecx
  002e7	74 79		 je	 SHORT $LN411@LoadRaceDa
  002e9	0f 1f 80 00 00
	00 00		 npad	 7
$LL412@LoadRaceDa:
; File C:\Program Files (x86)\Microsoft Visual Studio\2019\Community\VC\Tools\MSVC\14.27.29110\include\xstring

; 2163 :         if (_Mysize <= _Off) {

  002f0	39 46 10	 cmp	 DWORD PTR [esi+16], eax
  002f3	0f 86 c6 13 00
	00		 jbe	 $LN1540@LoadRaceDa

; 2153 :         return _BUF_SIZE <= _Myres;

  002f9	8b 4e 14	 mov	 ecx, DWORD PTR [esi+20]

; 2135 :         value_type* _Result = _Bx._Buf;

  002fc	8b d6		 mov	 edx, esi

; 2136 :         if (_Large_string_engaged()) {

  002fe	83 f9 10	 cmp	 ecx, 16			; 00000010H
  00301	72 02		 jb	 SHORT $LN1575@LoadRaceDa

; 2137 :             _Result = _Unfancy(_Bx._Ptr);

  00303	8b 16		 mov	 edx, DWORD PTR [esi]
$LN1575@LoadRaceDa:
; File C:\DS Project\DS Files\Source\ClientSource\Client\eterBase\filename.h

; 228  : 			if (str.at(i) == '\\')

  00305	80 3c 02 5c	 cmp	 BYTE PTR [edx+eax], 92	; 0000005cH
  00309	8b d6		 mov	 edx, esi
  0030b	75 0d		 jne	 SHORT $LN413@LoadRaceDa
; File C:\Program Files (x86)\Microsoft Visual Studio\2019\Community\VC\Tools\MSVC\14.27.29110\include\xstring

; 2136 :         if (_Large_string_engaged()) {

  0030d	83 f9 10	 cmp	 ecx, 16			; 00000010H
  00310	72 02		 jb	 SHORT $LN1572@LoadRaceDa

; 2137 :             _Result = _Unfancy(_Bx._Ptr);

  00312	8b 16		 mov	 edx, DWORD PTR [esi]
$LN1572@LoadRaceDa:
; File C:\DS Project\DS Files\Source\ClientSource\Client\eterBase\filename.h

; 229  : 				str.at(i) = '/';

  00314	c6 04 02 2f	 mov	 BYTE PTR [edx+eax], 47	; 0000002fH
  00318	eb 39		 jmp	 SHORT $LN410@LoadRaceDa
$LN413@LoadRaceDa:
; File C:\Program Files (x86)\Microsoft Visual Studio\2019\Community\VC\Tools\MSVC\14.27.29110\include\xstring

; 2136 :         if (_Large_string_engaged()) {

  0031a	83 f9 10	 cmp	 ecx, 16			; 00000010H
  0031d	72 02		 jb	 SHORT $LN1573@LoadRaceDa

; 2137 :             _Result = _Unfancy(_Bx._Ptr);

  0031f	8b 16		 mov	 edx, DWORD PTR [esi]
$LN1573@LoadRaceDa:

; 3578 :         return _Mypair._Myval2._Myptr()[_Off];

  00321	03 d0		 add	 edx, eax

; 2135 :         value_type* _Result = _Bx._Buf;

  00323	89 b5 b0 fe ff
	ff		 mov	 DWORD PTR __Result$1$[ebp], esi

; 2136 :         if (_Large_string_engaged()) {

  00329	83 f9 10	 cmp	 ecx, 16			; 00000010H
  0032c	72 08		 jb	 SHORT $LN1574@LoadRaceDa

; 2137 :             _Result = _Unfancy(_Bx._Ptr);

  0032e	8b 06		 mov	 eax, DWORD PTR [esi]
  00330	89 85 b0 fe ff
	ff		 mov	 DWORD PTR __Result$1$[ebp], eax
$LN1574@LoadRaceDa:
; File C:\DS Project\DS Files\Source\ClientSource\Client\eterBase\filename.h

; 231  : 				str.at(i) = (char)tolower(str.at(i));

  00336	0f be 02	 movsx	 eax, BYTE PTR [edx]
  00339	50		 push	 eax
  0033a	e8 00 00 00 00	 call	 _tolower
  0033f	8b 8d bc fe ff
	ff		 mov	 ecx, DWORD PTR _i$1$[ebp]
  00345	83 c4 04	 add	 esp, 4
  00348	8b 95 b0 fe ff
	ff		 mov	 edx, DWORD PTR __Result$1$[ebp]
  0034e	88 04 0a	 mov	 BYTE PTR [edx+ecx], al
  00351	8b c1		 mov	 eax, ecx
$LN410@LoadRaceDa:

; 225  : 
; 226  : 		for (size_t i = 0; i<nLength; ++i)

  00353	40		 inc	 eax
  00354	89 85 bc fe ff
	ff		 mov	 DWORD PTR _i$1$[ebp], eax
  0035a	3b 85 b4 fe ff
	ff		 cmp	 eax, DWORD PTR _nLength$1$[ebp]
  00360	72 8e		 jb	 SHORT $LL412@LoadRaceDa
$LN411@LoadRaceDa:
; File C:\Program Files (x86)\Microsoft Visual Studio\2019\Community\VC\Tools\MSVC\14.27.29110\include\xstring

; 363  :         return static_cast<_Elem*>(_CSTD memmove(_First1, _First2, _Count));

  00362	a1 08 00 00 00	 mov	 eax, DWORD PTR ??_C@_0O@OGIHOCKK@smokefilename@+8
  00367	f3 0f 7e 05 00
	00 00 00	 movq	 xmm0, QWORD PTR ??_C@_0O@OGIHOCKK@smokefilename@
  0036f	89 45 e0	 mov	 DWORD PTR $T59[ebp+8], eax
  00372	a0 0c 00 00 00	 mov	 al, BYTE PTR ??_C@_0O@OGIHOCKK@smokefilename@+12

; 4294 :         _Mypair._Myval2._Myres  = _BUF_SIZE - 1;

  00377	c7 45 ec 0f 00
	00 00		 mov	 DWORD PTR $T59[ebp+20], 15 ; 0000000fH

; 2968 :             _Mypair._Myval2._Mysize = _Count;

  0037e	c7 45 e8 0d 00
	00 00		 mov	 DWORD PTR $T59[ebp+16], 13 ; 0000000dH

; 363  :         return static_cast<_Elem*>(_CSTD memmove(_First1, _First2, _Count));

  00385	66 0f d6 45 d8	 movq	 QWORD PTR $T59[ebp], xmm0
  0038a	88 45 e4	 mov	 BYTE PTR $T59[ebp+12], al

; 2970 :             _Traits::assign(_Old_ptr[_Count], _Elem());

  0038d	c6 45 e5 00	 mov	 BYTE PTR $T59[ebp+13], 0
; File C:\DS Project\DS Files\Source\ClientSource\Client\GameLib\RaceDataFile.cpp

; 30   : 	if (TextFileLoader.GetTokenVector("smokefilename", &pSmokeTokenVector))

  00391	8d 85 a8 fe ff
	ff		 lea	 eax, DWORD PTR _pSmokeTokenVector$[ebp]
  00397	c6 45 fc 06	 mov	 BYTE PTR __$EHRec$[ebp+8], 6
  0039b	50		 push	 eax
  0039c	8d 45 d8	 lea	 eax, DWORD PTR $T59[ebp]
  0039f	50		 push	 eax
  003a0	8d 8d c8 fe ff
	ff		 lea	 ecx, DWORD PTR _TextFileLoader$[ebp]
  003a6	e8 00 00 00 00	 call	 ?GetTokenVector@CTextFileLoader@@QAEHABV?$basic_string@DU?$char_traits@D@std@@V?$allocator@D@2@@std@@PAPAV?$vector@V?$basic_string@DU?$char_traits@D@std@@V?$allocator@D@2@@std@@V?$allocator@V?$basic_string@DU?$char_traits@D@std@@V?$allocator@D@2@@std@@@2@@3@@Z ; CTextFileLoader::GetTokenVector
; File C:\Program Files (x86)\Microsoft Visual Studio\2019\Community\VC\Tools\MSVC\14.27.29110\include\xstring

; 4301 :         if (_Mypair._Myval2._Large_string_engaged()) {

  003ab	8b 4d ec	 mov	 ecx, DWORD PTR $T59[ebp+20]
; File C:\DS Project\DS Files\Source\ClientSource\Client\GameLib\RaceDataFile.cpp

; 30   : 	if (TextFileLoader.GetTokenVector("smokefilename", &pSmokeTokenVector))

  003ae	8b f0		 mov	 esi, eax
  003b0	c6 45 fc 00	 mov	 BYTE PTR __$EHRec$[ebp+8], 0
; File C:\Program Files (x86)\Microsoft Visual Studio\2019\Community\VC\Tools\MSVC\14.27.29110\include\xstring

; 4301 :         if (_Mypair._Myval2._Large_string_engaged()) {

  003b4	83 f9 10	 cmp	 ecx, 16			; 00000010H
  003b7	72 0d		 jb	 SHORT $LN511@LoadRaceDa

; 4302 :             const pointer _Ptr = _Mypair._Myval2._Bx._Ptr;
; 4303 :             auto& _Al          = _Getal();
; 4304 :             _Destroy_in_place(_Mypair._Myval2._Bx._Ptr);
; 4305 :             _Al.deallocate(_Ptr, _Mypair._Myval2._Myres + 1);

  003b9	41		 inc	 ecx
; File C:\Program Files (x86)\Microsoft Visual Studio\2019\Community\VC\Tools\MSVC\14.27.29110\include\xmemory

; 803  :         _Deallocate<_New_alignof<_Ty>>(_Ptr, sizeof(_Ty) * _Count);

  003ba	51		 push	 ecx
  003bb	ff 75 d8	 push	 DWORD PTR $T59[ebp]
  003be	e8 00 00 00 00	 call	 ??$_Deallocate@$07$0A@@std@@YAXPAXI@Z ; std::_Deallocate<8,0>
  003c3	83 c4 08	 add	 esp, 8
$LN511@LoadRaceDa:
; File C:\DS Project\DS Files\Source\ClientSource\Client\GameLib\RaceDataFile.cpp

; 30   : 	if (TextFileLoader.GetTokenVector("smokefilename", &pSmokeTokenVector))

  003c6	85 f6		 test	 esi, esi
  003c8	0f 84 8a 01 00
	00		 je	 $LN3@LoadRaceDa
; File C:\Program Files (x86)\Microsoft Visual Studio\2019\Community\VC\Tools\MSVC\14.27.29110\include\vector

; 1484 :         return static_cast<size_type>(_My_data._Mylast - _My_data._Myfirst);

  003ce	8b 85 a8 fe ff
	ff		 mov	 eax, DWORD PTR _pSmokeTokenVector$[ebp]
  003d4	8b 48 04	 mov	 ecx, DWORD PTR [eax+4]
  003d7	2b 08		 sub	 ecx, DWORD PTR [eax]
  003d9	b8 ab aa aa 2a	 mov	 eax, 715827883		; 2aaaaaabH
  003de	f7 e9		 imul	 ecx
  003e0	c1 fa 02	 sar	 edx, 2
  003e3	8b c2		 mov	 eax, edx
  003e5	c1 e8 1f	 shr	 eax, 31			; 0000001fH
  003e8	03 c2		 add	 eax, edx
; File C:\DS Project\DS Files\Source\ClientSource\Client\GameLib\RaceDataFile.cpp

; 32   : 		if (pSmokeTokenVector->size()%2!=0)

  003ea	a8 01		 test	 al, 1
  003ec	74 3a		 je	 SHORT $LN17@LoadRaceDa

; 33   : 		{
; 34   : 			TraceError("SmokeFileName ArgCount[%d]%2==0", pSmokeTokenVector->size());

  003ee	50		 push	 eax
  003ef	68 00 00 00 00	 push	 OFFSET ??_C@_0CA@DLOGAHGG@SmokeFileName?5ArgCount?$FL?$CFd?$FN?$CF2?$DN?$DN0@
$LN1594@LoadRaceDa:
  003f4	e8 00 00 00 00	 call	 ?TraceError@@YAXPBDZZ	; TraceError
$LN1595@LoadRaceDa:
  003f9	83 c4 08	 add	 esp, 8
$LN124@LoadRaceDa:
  003fc	33 f6		 xor	 esi, esi
$LN125@LoadRaceDa:

; 195  : 	}
; 196  : 
; 197  : 	return TRUE;

  003fe	8d 8d c8 fe ff
	ff		 lea	 ecx, DWORD PTR _TextFileLoader$[ebp]
  00404	e8 00 00 00 00	 call	 ??1CTextFileLoader@@UAE@XZ ; CTextFileLoader::~CTextFileLoader
  00409	8b c6		 mov	 eax, esi

; 198  : }

  0040b	8b 4d f4	 mov	 ecx, DWORD PTR __$EHRec$[ebp]
  0040e	64 89 0d 00 00
	00 00		 mov	 DWORD PTR fs:0, ecx
  00415	59		 pop	 ecx
  00416	5f		 pop	 edi
  00417	5e		 pop	 esi
  00418	8b 4d f0	 mov	 ecx, DWORD PTR __$ArrayPad$[ebp]
  0041b	33 cd		 xor	 ecx, ebp
  0041d	e8 00 00 00 00	 call	 @__security_check_cookie@4
  00422	8b e5		 mov	 esp, ebp
  00424	5d		 pop	 ebp
  00425	c2 04 00	 ret	 4
$LN17@LoadRaceDa:

; 35   : 			return FALSE;
; 36   : 		}
; 37   : 
; 38   : 		UINT uLineCount=pSmokeTokenVector->size()/2;

  00428	d1 e8		 shr	 eax, 1
  0042a	89 85 a4 fe ff
	ff		 mov	 DWORD PTR _uLineCount$1$[ebp], eax

; 39   : 
; 40   : 		for (UINT uLine=0; uLine<uLineCount; ++uLine)

  00430	c7 85 b0 fe ff
	ff 00 00 00 00	 mov	 DWORD PTR _uLine$1$[ebp], 0
  0043a	0f 84 18 01 00
	00		 je	 $LN3@LoadRaceDa
; File C:\Program Files (x86)\Microsoft Visual Studio\2019\Community\VC\Tools\MSVC\14.27.29110\include\vector

; 1484 :         return static_cast<size_type>(_My_data._Mylast - _My_data._Myfirst);

  00440	33 f6		 xor	 esi, esi
  00442	c7 85 bc fe ff
	ff 00 00 00 00	 mov	 DWORD PTR tv8683[ebp], 0
  0044c	89 b5 b8 fe ff
	ff		 mov	 DWORD PTR tv8701[ebp], esi
$LL4@LoadRaceDa:

; 1519 :         if (static_cast<size_type>(_My_data._Mylast - _My_data._Myfirst) <= _Pos) {

  00452	8b 85 a8 fe ff
	ff		 mov	 eax, DWORD PTR _pSmokeTokenVector$[ebp]
  00458	8b 10		 mov	 edx, DWORD PTR [eax]
  0045a	8b 48 04	 mov	 ecx, DWORD PTR [eax+4]
  0045d	b8 ab aa aa 2a	 mov	 eax, 715827883		; 2aaaaaabH
  00462	2b ca		 sub	 ecx, edx
  00464	89 95 b4 fe ff
	ff		 mov	 DWORD PTR tv8692[ebp], edx
  0046a	f7 e9		 imul	 ecx
  0046c	c1 fa 02	 sar	 edx, 2
  0046f	8b c2		 mov	 eax, edx
  00471	c1 e8 1f	 shr	 eax, 31			; 0000001fH
  00474	03 c2		 add	 eax, edx
  00476	3b 85 bc fe ff
	ff		 cmp	 eax, DWORD PTR tv8683[ebp]
  0047c	0f 86 42 12 00
	00		 jbe	 $LN1546@LoadRaceDa

; 1523 :         return _My_data._Myfirst[_Pos];

  00482	8b 85 b4 fe ff
	ff		 mov	 eax, DWORD PTR tv8692[ebp]
  00488	03 c6		 add	 eax, esi
; File C:\Program Files (x86)\Microsoft Visual Studio\2019\Community\VC\Tools\MSVC\14.27.29110\include\xstring

; 2145 :         if (_Large_string_engaged()) {

  0048a	83 78 14 10	 cmp	 DWORD PTR [eax+20], 16	; 00000010H
  0048e	72 02		 jb	 SHORT $LN529@LoadRaceDa

; 2146 :             _Result = _Unfancy(_Bx._Ptr);

  00490	8b 00		 mov	 eax, DWORD PTR [eax]
$LN529@LoadRaceDa:
; File C:\DS Project\DS Files\Source\ClientSource\Client\GameLib\RaceDataFile.cpp

; 42   : 			int eSmoke=atoi(pSmokeTokenVector->at(uLine*2+0).c_str());

  00492	50		 push	 eax
  00493	e8 00 00 00 00	 call	 __atoi64
  00498	83 c4 04	 add	 esp, 4
  0049b	89 85 c0 fe ff
	ff		 mov	 DWORD PTR _eSmoke$1$[ebp], eax

; 43   : 			if (eSmoke<0 || eSmoke>=SMOKE_NUM)

  004a1	85 c0		 test	 eax, eax
  004a3	0f 88 66 04 00
	00		 js	 $LN19@LoadRaceDa
  004a9	83 f8 04	 cmp	 eax, 4
  004ac	0f 8d 5d 04 00
	00		 jge	 $LN19@LoadRaceDa
; File C:\Program Files (x86)\Microsoft Visual Studio\2019\Community\VC\Tools\MSVC\14.27.29110\include\vector

; 1519 :         if (static_cast<size_type>(_My_data._Mylast - _My_data._Myfirst) <= _Pos) {

  004b2	8b 8d a8 fe ff
	ff		 mov	 ecx, DWORD PTR _pSmokeTokenVector$[ebp]
  004b8	8b 01		 mov	 eax, DWORD PTR [ecx]
  004ba	8b 49 04	 mov	 ecx, DWORD PTR [ecx+4]
  004bd	2b c8		 sub	 ecx, eax
  004bf	89 85 b4 fe ff
	ff		 mov	 DWORD PTR tv8700[ebp], eax
  004c5	b8 ab aa aa 2a	 mov	 eax, 715827883		; 2aaaaaabH
  004ca	f7 e9		 imul	 ecx
  004cc	8b 85 bc fe ff
	ff		 mov	 eax, DWORD PTR tv8683[ebp]
  004d2	c1 fa 02	 sar	 edx, 2
  004d5	40		 inc	 eax
  004d6	8b ca		 mov	 ecx, edx
  004d8	c1 e9 1f	 shr	 ecx, 31			; 0000001fH
  004db	03 ca		 add	 ecx, edx
  004dd	3b c8		 cmp	 ecx, eax
  004df	0f 86 df 11 00
	00		 jbe	 $LN1546@LoadRaceDa

; 1523 :         return _My_data._Myfirst[_Pos];

  004e5	8b 85 b4 fe ff
	ff		 mov	 eax, DWORD PTR tv8700[ebp]
; File C:\DS Project\DS Files\Source\ClientSource\Client\GameLib\RaceDataFile.cpp

; 51   : 			DWORD& rdwCRCEft=m_adwSmokeEffectID[eSmoke];

  004eb	8b 8d ac fe ff
	ff		 mov	 ecx, DWORD PTR _this$GSCopy$1$[ebp]
; File C:\Program Files (x86)\Microsoft Visual Studio\2019\Community\VC\Tools\MSVC\14.27.29110\include\vector

; 1523 :         return _My_data._Myfirst[_Pos];

  004f1	83 c0 18	 add	 eax, 24			; 00000018H
  004f4	03 f0		 add	 esi, eax
; File C:\DS Project\DS Files\Source\ClientSource\Client\GameLib\RaceDataFile.cpp

; 51   : 			DWORD& rdwCRCEft=m_adwSmokeEffectID[eSmoke];

  004f6	8b 85 c0 fe ff
	ff		 mov	 eax, DWORD PTR _eSmoke$1$[ebp]
  004fc	8d 0c 81	 lea	 ecx, DWORD PTR [ecx+eax*4]
; File C:\Program Files (x86)\Microsoft Visual Studio\2019\Community\VC\Tools\MSVC\14.27.29110\include\xstring

; 2144 :         const value_type* _Result = _Bx._Buf;

  004ff	8b c6		 mov	 eax, esi
; File C:\DS Project\DS Files\Source\ClientSource\Client\GameLib\RaceDataFile.cpp

; 51   : 			DWORD& rdwCRCEft=m_adwSmokeEffectID[eSmoke];

  00501	83 c1 08	 add	 ecx, 8
; File C:\Program Files (x86)\Microsoft Visual Studio\2019\Community\VC\Tools\MSVC\14.27.29110\include\xstring

; 2145 :         if (_Large_string_engaged()) {

  00504	83 7e 14 10	 cmp	 DWORD PTR [esi+20], 16	; 00000010H
; File C:\DS Project\DS Files\Source\ClientSource\Client\GameLib\RaceDataFile.cpp

; 51   : 			DWORD& rdwCRCEft=m_adwSmokeEffectID[eSmoke];

  00508	89 8d b4 fe ff
	ff		 mov	 DWORD PTR _rdwCRCEft$1$[ebp], ecx
; File C:\Program Files (x86)\Microsoft Visual Studio\2019\Community\VC\Tools\MSVC\14.27.29110\include\xstring

; 2145 :         if (_Large_string_engaged()) {

  0050e	72 02		 jb	 SHORT $LN1576@LoadRaceDa

; 2146 :             _Result = _Unfancy(_Bx._Ptr);

  00510	8b 06		 mov	 eax, DWORD PTR [esi]
$LN1576@LoadRaceDa:
; File C:\DS Project\DS Files\Source\ClientSource\Client\GameLib\RaceDataFile.cpp

; 52   : 			if (!CEffectManager::Instance().RegisterEffect2(c_rstrEffectFileName.c_str(), &rdwCRCEft))

  00512	6a 00		 push	 0
  00514	51		 push	 ecx
  00515	8b 0d 00 00 00
	00		 mov	 ecx, DWORD PTR ?ms_singleton@?$CSingleton@VCEffectManager@@@@0PAVCEffectManager@@A ; CSingleton<CEffectManager>::ms_singleton
  0051b	50		 push	 eax
  0051c	e8 00 00 00 00	 call	 ?RegisterEffect2@CEffectManager@@QAEHPBDPAK_N@Z ; CEffectManager::RegisterEffect2
  00521	85 c0		 test	 eax, eax
  00523	0f 84 c2 03 00
	00		 je	 $LN1547@LoadRaceDa

; 39   : 
; 40   : 		for (UINT uLine=0; uLine<uLineCount; ++uLine)

  00529	8b 85 b0 fe ff
	ff		 mov	 eax, DWORD PTR _uLine$1$[ebp]
  0052f	8b b5 b8 fe ff
	ff		 mov	 esi, DWORD PTR tv8701[ebp]
  00535	40		 inc	 eax
  00536	83 85 bc fe ff
	ff 02		 add	 DWORD PTR tv8683[ebp], 2
  0053d	83 c6 30	 add	 esi, 48			; 00000030H
  00540	89 85 b0 fe ff
	ff		 mov	 DWORD PTR _uLine$1$[ebp], eax
  00546	89 b5 b8 fe ff
	ff		 mov	 DWORD PTR tv8701[ebp], esi
  0054c	3b 85 a4 fe ff
	ff		 cmp	 eax, DWORD PTR _uLineCount$1$[ebp]
  00552	0f 82 fa fe ff
	ff		 jb	 $LL4@LoadRaceDa
$LN3@LoadRaceDa:

; 57   : 			}
; 58   : 		}
; 59   : 	}
; 60   : 
; 61   : 	if (TextFileLoader.SetChildNode("shapedata"))

  00558	68 00 00 00 00	 push	 OFFSET ??_C@_09IOJGLPMI@shapedata@
  0055d	8d 8d c8 fe ff
	ff		 lea	 ecx, DWORD PTR _TextFileLoader$[ebp]
  00563	e8 00 00 00 00	 call	 ?SetChildNode@CTextFileLoader@@QAEHPBD@Z ; CTextFileLoader::SetChildNode
  00568	85 c0		 test	 eax, eax
  0056a	0f 84 83 0a 00
	00		 je	 $LN1226@LoadRaceDa
; File C:\Program Files (x86)\Microsoft Visual Studio\2019\Community\VC\Tools\MSVC\14.27.29110\include\xstring

; 4293 :         _Mypair._Myval2._Mysize = 0;

  00570	c7 85 70 ff ff
	ff 00 00 00 00	 mov	 DWORD PTR _strPathName$28[ebp+16], 0

; 4294 :         _Mypair._Myval2._Myres  = _BUF_SIZE - 1;

  0057a	c7 85 74 ff ff
	ff 0f 00 00 00	 mov	 DWORD PTR _strPathName$28[ebp+20], 15 ; 0000000fH

; 4295 :         // the _Traits::assign is last so the codegen doesn't think the char write can alias this
; 4296 :         _Traits::assign(_Mypair._Myval2._Bx._Buf[0], _Elem());

  00584	c6 85 60 ff ff
	ff 00		 mov	 BYTE PTR _strPathName$28[ebp], 0

; 363  :         return static_cast<_Elem*>(_CSTD memmove(_First1, _First2, _Count));

  0058b	a1 00 00 00 00	 mov	 eax, DWORD PTR ??_C@_08PEIJGPHF@pathname@
  00590	89 45 d8	 mov	 DWORD PTR $T58[ebp], eax
  00593	a1 04 00 00 00	 mov	 eax, DWORD PTR ??_C@_08PEIJGPHF@pathname@+4
; File C:\DS Project\DS Files\Source\ClientSource\Client\GameLib\RaceDataFile.cpp

; 64   : 		DWORD dwShapeDataCount = 0;

  00598	c7 85 b0 fe ff
	ff 00 00 00 00	 mov	 DWORD PTR _dwShapeDataCount$3[ebp], 0
; File C:\Program Files (x86)\Microsoft Visual Studio\2019\Community\VC\Tools\MSVC\14.27.29110\include\xstring

; 4294 :         _Mypair._Myval2._Myres  = _BUF_SIZE - 1;

  005a2	c7 45 ec 0f 00
	00 00		 mov	 DWORD PTR $T58[ebp+20], 15 ; 0000000fH

; 2968 :             _Mypair._Myval2._Mysize = _Count;

  005a9	c7 45 e8 08 00
	00 00		 mov	 DWORD PTR $T58[ebp+16], 8

; 363  :         return static_cast<_Elem*>(_CSTD memmove(_First1, _First2, _Count));

  005b0	89 45 dc	 mov	 DWORD PTR $T58[ebp+4], eax

; 2970 :             _Traits::assign(_Old_ptr[_Count], _Elem());

  005b3	c6 45 e0 00	 mov	 BYTE PTR $T58[ebp+8], 0
; File C:\DS Project\DS Files\Source\ClientSource\Client\GameLib\RaceDataFile.cpp

; 65   : 		if (TextFileLoader.GetTokenString("pathname", &strPathName) &&

  005b7	8d 85 60 ff ff
	ff		 lea	 eax, DWORD PTR _strPathName$28[ebp]
  005bd	c6 45 fc 08	 mov	 BYTE PTR __$EHRec$[ebp+8], 8
  005c1	50		 push	 eax
  005c2	8d 45 d8	 lea	 eax, DWORD PTR $T58[ebp]
  005c5	bf 01 00 00 00	 mov	 edi, 1
  005ca	50		 push	 eax
  005cb	8d 8d c8 fe ff
	ff		 lea	 ecx, DWORD PTR _TextFileLoader$[ebp]
  005d1	89 bd c0 fe ff
	ff		 mov	 DWORD PTR $T10[ebp], edi
  005d7	89 bd b8 fe ff
	ff		 mov	 DWORD PTR $T7[ebp], edi
  005dd	e8 00 00 00 00	 call	 ?GetTokenString@CTextFileLoader@@QAEHABV?$basic_string@DU?$char_traits@D@std@@V?$allocator@D@2@@std@@PAV23@@Z ; CTextFileLoader::GetTokenString
  005e2	85 c0		 test	 eax, eax
  005e4	74 6a		 je	 SHORT $LN39@LoadRaceDa
; File C:\Program Files (x86)\Microsoft Visual Studio\2019\Community\VC\Tools\MSVC\14.27.29110\include\xstring

; 363  :         return static_cast<_Elem*>(_CSTD memmove(_First1, _First2, _Count));

  005e6	a1 08 00 00 00	 mov	 eax, DWORD PTR ??_C@_0P@BDBLEP@shapedatacount@+8
  005eb	f3 0f 7e 05 00
	00 00 00	 movq	 xmm0, QWORD PTR ??_C@_0P@BDBLEP@shapedatacount@
  005f3	89 45 b0	 mov	 DWORD PTR $T35[ebp+8], eax
  005f6	66 a1 0c 00 00
	00		 mov	 ax, WORD PTR ??_C@_0P@BDBLEP@shapedatacount@+12

; 4294 :         _Mypair._Myval2._Myres  = _BUF_SIZE - 1;

  005fc	c7 45 bc 0f 00
	00 00		 mov	 DWORD PTR $T35[ebp+20], 15 ; 0000000fH

; 2968 :             _Mypair._Myval2._Mysize = _Count;

  00603	c7 45 b8 0e 00
	00 00		 mov	 DWORD PTR $T35[ebp+16], 14 ; 0000000eH

; 363  :         return static_cast<_Elem*>(_CSTD memmove(_First1, _First2, _Count));

  0060a	66 0f d6 45 a8	 movq	 QWORD PTR $T35[ebp], xmm0
  0060f	66 89 45 b4	 mov	 WORD PTR $T35[ebp+12], ax

; 2970 :             _Traits::assign(_Old_ptr[_Count], _Elem());

  00613	c6 45 b6 00	 mov	 BYTE PTR $T35[ebp+14], 0
; File C:\DS Project\DS Files\Source\ClientSource\Client\GameLib\RaceDataFile.cpp

; 65   : 		if (TextFileLoader.GetTokenString("pathname", &strPathName) &&

  00617	8d 85 b0 fe ff
	ff		 lea	 eax, DWORD PTR _dwShapeDataCount$3[ebp]
  0061d	c7 45 fc 09 00
	00 00		 mov	 DWORD PTR __$EHRec$[ebp+8], 9
  00624	50		 push	 eax
  00625	8d 45 a8	 lea	 eax, DWORD PTR $T35[ebp]
  00628	bf 03 00 00 00	 mov	 edi, 3
  0062d	50		 push	 eax
  0062e	8d 8d c8 fe ff
	ff		 lea	 ecx, DWORD PTR _TextFileLoader$[ebp]
  00634	89 bd c0 fe ff
	ff		 mov	 DWORD PTR $T10[ebp], edi
  0063a	89 bd b8 fe ff
	ff		 mov	 DWORD PTR $T7[ebp], edi
  00640	e8 00 00 00 00	 call	 ?GetTokenDoubleWord@CTextFileLoader@@QAEHABV?$basic_string@DU?$char_traits@D@std@@V?$allocator@D@2@@std@@PAK@Z ; CTextFileLoader::GetTokenDoubleWord
  00645	c6 85 c7 fe ff
	ff 01		 mov	 BYTE PTR $T21[ebp], 1
  0064c	85 c0		 test	 eax, eax
  0064e	75 07		 jne	 SHORT $LN40@LoadRaceDa
$LN39@LoadRaceDa:
  00650	c6 85 c7 fe ff
	ff 00		 mov	 BYTE PTR $T21[ebp], 0
$LN40@LoadRaceDa:
  00657	8b 85 c0 fe ff
	ff		 mov	 eax, DWORD PTR $T10[ebp]
  0065d	a8 02		 test	 al, 2
  0065f	74 38		 je	 SHORT $LN656@LoadRaceDa
; File C:\Program Files (x86)\Microsoft Visual Studio\2019\Community\VC\Tools\MSVC\14.27.29110\include\xstring

; 4301 :         if (_Mypair._Myval2._Large_string_engaged()) {

  00661	8b 4d bc	 mov	 ecx, DWORD PTR $T35[ebp+20]
; File C:\DS Project\DS Files\Source\ClientSource\Client\GameLib\RaceDataFile.cpp

; 65   : 		if (TextFileLoader.GetTokenString("pathname", &strPathName) &&

  00664	83 e0 fd	 and	 eax, -3			; fffffffdH
  00667	89 85 c0 fe ff
	ff		 mov	 DWORD PTR $T10[ebp], eax
; File C:\Program Files (x86)\Microsoft Visual Studio\2019\Community\VC\Tools\MSVC\14.27.29110\include\xstring

; 4301 :         if (_Mypair._Myval2._Large_string_engaged()) {

  0066d	83 f9 10	 cmp	 ecx, 16			; 00000010H
  00670	72 15		 jb	 SHORT $LN655@LoadRaceDa

; 4302 :             const pointer _Ptr = _Mypair._Myval2._Bx._Ptr;
; 4303 :             auto& _Al          = _Getal();
; 4304 :             _Destroy_in_place(_Mypair._Myval2._Bx._Ptr);
; 4305 :             _Al.deallocate(_Ptr, _Mypair._Myval2._Myres + 1);

  00672	8d 41 01	 lea	 eax, DWORD PTR [ecx+1]
; File C:\Program Files (x86)\Microsoft Visual Studio\2019\Community\VC\Tools\MSVC\14.27.29110\include\xmemory

; 803  :         _Deallocate<_New_alignof<_Ty>>(_Ptr, sizeof(_Ty) * _Count);

  00675	50		 push	 eax
  00676	ff 75 a8	 push	 DWORD PTR $T35[ebp]
  00679	e8 00 00 00 00	 call	 ??$_Deallocate@$07$0A@@std@@YAXPAXI@Z ; std::_Deallocate<8,0>
  0067e	8b 85 c0 fe ff
	ff		 mov	 eax, DWORD PTR $T10[ebp]
  00684	83 c4 08	 add	 esp, 8
$LN655@LoadRaceDa:
; File C:\Program Files (x86)\Microsoft Visual Studio\2019\Community\VC\Tools\MSVC\14.27.29110\include\xstring

; 4308 :         _Mypair._Myval2._Mysize = 0;

  00687	c7 45 b8 00 00
	00 00		 mov	 DWORD PTR $T35[ebp+16], 0

; 4309 :         _Mypair._Myval2._Myres  = _BUF_SIZE - 1;

  0068e	c7 45 bc 0f 00
	00 00		 mov	 DWORD PTR $T35[ebp+20], 15 ; 0000000fH

; 4310 :         // the _Traits::assign is last so the codegen doesn't think the char write can alias this
; 4311 :         _Traits::assign(_Mypair._Myval2._Bx._Buf[0], _Elem());

  00695	c6 45 a8 00	 mov	 BYTE PTR $T35[ebp], 0
$LN656@LoadRaceDa:
; File C:\DS Project\DS Files\Source\ClientSource\Client\GameLib\RaceDataFile.cpp

; 65   : 		if (TextFileLoader.GetTokenString("pathname", &strPathName) &&

  00699	c7 45 fc 07 00
	00 00		 mov	 DWORD PTR __$EHRec$[ebp+8], 7
  006a0	a8 01		 test	 al, 1
  006a2	74 1e		 je	 SHORT $LN665@LoadRaceDa
  006a4	83 e0 fe	 and	 eax, -2			; fffffffeH
  006a7	89 85 c0 fe ff
	ff		 mov	 DWORD PTR $T10[ebp], eax
; File C:\Program Files (x86)\Microsoft Visual Studio\2019\Community\VC\Tools\MSVC\14.27.29110\include\xstring

; 4301 :         if (_Mypair._Myval2._Large_string_engaged()) {

  006ad	8b 45 ec	 mov	 eax, DWORD PTR $T58[ebp+20]
  006b0	83 f8 10	 cmp	 eax, 16			; 00000010H
  006b3	72 0d		 jb	 SHORT $LN665@LoadRaceDa

; 4302 :             const pointer _Ptr = _Mypair._Myval2._Bx._Ptr;
; 4303 :             auto& _Al          = _Getal();
; 4304 :             _Destroy_in_place(_Mypair._Myval2._Bx._Ptr);
; 4305 :             _Al.deallocate(_Ptr, _Mypair._Myval2._Myres + 1);

  006b5	40		 inc	 eax
; File C:\Program Files (x86)\Microsoft Visual Studio\2019\Community\VC\Tools\MSVC\14.27.29110\include\xmemory

; 803  :         _Deallocate<_New_alignof<_Ty>>(_Ptr, sizeof(_Ty) * _Count);

  006b6	50		 push	 eax
  006b7	ff 75 d8	 push	 DWORD PTR $T58[ebp]
  006ba	e8 00 00 00 00	 call	 ??$_Deallocate@$07$0A@@std@@YAXPAXI@Z ; std::_Deallocate<8,0>
  006bf	83 c4 08	 add	 esp, 8
$LN665@LoadRaceDa:
; File C:\DS Project\DS Files\Source\ClientSource\Client\GameLib\RaceDataFile.cpp

; 65   : 		if (TextFileLoader.GetTokenString("pathname", &strPathName) &&

  006c2	80 bd c7 fe ff
	ff 00		 cmp	 BYTE PTR $T21[ebp], 0
  006c9	0f 84 f4 08 00
	00		 je	 $LN6@LoadRaceDa

; 68   : 			for (DWORD i = 0; i < dwShapeDataCount; ++i)

  006cf	33 c9		 xor	 ecx, ecx
  006d1	89 8d b4 fe ff
	ff		 mov	 DWORD PTR _i$1$[ebp], ecx
  006d7	39 8d b0 fe ff
	ff		 cmp	 DWORD PTR _dwShapeDataCount$3[ebp], ecx
  006dd	0f 86 e0 08 00
	00		 jbe	 $LN6@LoadRaceDa
$LL7@LoadRaceDa:
; File C:\Program Files (x86)\Microsoft Visual Studio\2019\Community\VC\Tools\MSVC\14.27.29110\include\xstring

; 363  :         return static_cast<_Elem*>(_CSTD memmove(_First1, _First2, _Count));

  006e3	f3 0f 7e 05 00
	00 00 00	 movq	 xmm0, QWORD PTR ??_C@_09IOJGLPMI@shapedata@
  006eb	a0 08 00 00 00	 mov	 al, BYTE PTR ??_C@_09IOJGLPMI@shapedata@+8

; 4294 :         _Mypair._Myval2._Myres  = _BUF_SIZE - 1;

  006f0	c7 45 ec 0f 00
	00 00		 mov	 DWORD PTR $T57[ebp+20], 15 ; 0000000fH

; 2968 :             _Mypair._Myval2._Mysize = _Count;

  006f7	c7 45 e8 09 00
	00 00		 mov	 DWORD PTR $T57[ebp+16], 9

; 363  :         return static_cast<_Elem*>(_CSTD memmove(_First1, _First2, _Count));

  006fe	66 0f d6 45 d8	 movq	 QWORD PTR $T57[ebp], xmm0
  00703	88 45 e0	 mov	 BYTE PTR $T57[ebp+8], al

; 2970 :             _Traits::assign(_Old_ptr[_Count], _Elem());

  00706	c6 45 e1 00	 mov	 BYTE PTR $T57[ebp+9], 0
; File C:\DS Project\DS Files\Source\ClientSource\Client\GameLib\RaceDataFile.cpp

; 70   : 				if (!TextFileLoader.SetChildNode("shapedata", i))

  0070a	51		 push	 ecx
  0070b	8d 45 d8	 lea	 eax, DWORD PTR $T57[ebp]
  0070e	c6 45 fc 0a	 mov	 BYTE PTR __$EHRec$[ebp+8], 10 ; 0000000aH
  00712	50		 push	 eax
  00713	8d 8d c8 fe ff
	ff		 lea	 ecx, DWORD PTR _TextFileLoader$[ebp]
  00719	e8 00 00 00 00	 call	 ?SetChildNode@CTextFileLoader@@QAEHABV?$basic_string@DU?$char_traits@D@std@@V?$allocator@D@2@@std@@K@Z ; CTextFileLoader::SetChildNode
  0071e	85 c0		 test	 eax, eax
  00720	c6 45 fc 07	 mov	 BYTE PTR __$EHRec$[ebp+8], 7
; File C:\Program Files (x86)\Microsoft Visual Studio\2019\Community\VC\Tools\MSVC\14.27.29110\include\xstring

; 4301 :         if (_Mypair._Myval2._Large_string_engaged()) {

  00724	8b 45 ec	 mov	 eax, DWORD PTR $T57[ebp+20]
; File C:\DS Project\DS Files\Source\ClientSource\Client\GameLib\RaceDataFile.cpp

; 70   : 				if (!TextFileLoader.SetChildNode("shapedata", i))

  00727	0f 94 85 c7 fe
	ff ff		 sete	 BYTE PTR $T20[ebp]
; File C:\Program Files (x86)\Microsoft Visual Studio\2019\Community\VC\Tools\MSVC\14.27.29110\include\xstring

; 4301 :         if (_Mypair._Myval2._Large_string_engaged()) {

  0072e	83 f8 10	 cmp	 eax, 16			; 00000010H
  00731	72 0d		 jb	 SHORT $LN721@LoadRaceDa

; 4302 :             const pointer _Ptr = _Mypair._Myval2._Bx._Ptr;
; 4303 :             auto& _Al          = _Getal();
; 4304 :             _Destroy_in_place(_Mypair._Myval2._Bx._Ptr);
; 4305 :             _Al.deallocate(_Ptr, _Mypair._Myval2._Myres + 1);

  00733	40		 inc	 eax
; File C:\Program Files (x86)\Microsoft Visual Studio\2019\Community\VC\Tools\MSVC\14.27.29110\include\xmemory

; 803  :         _Deallocate<_New_alignof<_Ty>>(_Ptr, sizeof(_Ty) * _Count);

  00734	50		 push	 eax
  00735	ff 75 d8	 push	 DWORD PTR $T57[ebp]
  00738	e8 00 00 00 00	 call	 ??$_Deallocate@$07$0A@@std@@YAXPAXI@Z ; std::_Deallocate<8,0>
  0073d	83 c4 08	 add	 esp, 8
$LN721@LoadRaceDa:
; File C:\DS Project\DS Files\Source\ClientSource\Client\GameLib\RaceDataFile.cpp

; 70   : 				if (!TextFileLoader.SetChildNode("shapedata", i))

  00740	80 bd c7 fe ff
	ff 00		 cmp	 BYTE PTR $T20[ebp], 0
  00747	0f 85 5d 08 00
	00		 jne	 $LN5@LoadRaceDa
; File C:\Program Files (x86)\Microsoft Visual Studio\2019\Community\VC\Tools\MSVC\14.27.29110\include\xstring

; 363  :         return static_cast<_Elem*>(_CSTD memmove(_First1, _First2, _Count));

  0074d	66 a1 08 00 00
	00		 mov	 ax, WORD PTR ??_C@_0M@GCDLCIFI@specialpath@+8
  00753	f3 0f 7e 05 00
	00 00 00	 movq	 xmm0, QWORD PTR ??_C@_0M@GCDLCIFI@specialpath@
  0075b	66 89 45 e0	 mov	 WORD PTR $T56[ebp+8], ax
  0075f	a0 0a 00 00 00	 mov	 al, BYTE PTR ??_C@_0M@GCDLCIFI@specialpath@+10

; 4294 :         _Mypair._Myval2._Myres  = _BUF_SIZE - 1;

  00764	c7 45 ec 0f 00
	00 00		 mov	 DWORD PTR $T56[ebp+20], 15 ; 0000000fH

; 2968 :             _Mypair._Myval2._Mysize = _Count;

  0076b	c7 45 e8 0b 00
	00 00		 mov	 DWORD PTR $T56[ebp+16], 11 ; 0000000bH

; 363  :         return static_cast<_Elem*>(_CSTD memmove(_First1, _First2, _Count));

  00772	66 0f d6 45 d8	 movq	 QWORD PTR $T56[ebp], xmm0
  00777	88 45 e2	 mov	 BYTE PTR $T56[ebp+10], al

; 2970 :             _Traits::assign(_Old_ptr[_Count], _Elem());

  0077a	c6 45 e3 00	 mov	 BYTE PTR $T56[ebp+11], 0
; File C:\DS Project\DS Files\Source\ClientSource\Client\GameLib\RaceDataFile.cpp

; 76   : 				TextFileLoader.GetTokenString("specialpath", &strPathName);

  0077e	8d 85 60 ff ff
	ff		 lea	 eax, DWORD PTR _strPathName$28[ebp]
  00784	c6 45 fc 0b	 mov	 BYTE PTR __$EHRec$[ebp+8], 11 ; 0000000bH
  00788	50		 push	 eax
  00789	8d 45 d8	 lea	 eax, DWORD PTR $T56[ebp]
  0078c	50		 push	 eax
  0078d	8d 8d c8 fe ff
	ff		 lea	 ecx, DWORD PTR _TextFileLoader$[ebp]
  00793	e8 00 00 00 00	 call	 ?GetTokenString@CTextFileLoader@@QAEHABV?$basic_string@DU?$char_traits@D@std@@V?$allocator@D@2@@std@@PAV23@@Z ; CTextFileLoader::GetTokenString
; File C:\Program Files (x86)\Microsoft Visual Studio\2019\Community\VC\Tools\MSVC\14.27.29110\include\xstring

; 4301 :         if (_Mypair._Myval2._Large_string_engaged()) {

  00798	8b 45 ec	 mov	 eax, DWORD PTR $T56[ebp+20]
  0079b	83 f8 10	 cmp	 eax, 16			; 00000010H
  0079e	72 0d		 jb	 SHORT $LN777@LoadRaceDa

; 4302 :             const pointer _Ptr = _Mypair._Myval2._Bx._Ptr;
; 4303 :             auto& _Al          = _Getal();
; 4304 :             _Destroy_in_place(_Mypair._Myval2._Bx._Ptr);
; 4305 :             _Al.deallocate(_Ptr, _Mypair._Myval2._Myres + 1);

  007a0	40		 inc	 eax
; File C:\Program Files (x86)\Microsoft Visual Studio\2019\Community\VC\Tools\MSVC\14.27.29110\include\xmemory

; 803  :         _Deallocate<_New_alignof<_Ty>>(_Ptr, sizeof(_Ty) * _Count);

  007a1	50		 push	 eax
  007a2	ff 75 d8	 push	 DWORD PTR $T56[ebp]
  007a5	e8 00 00 00 00	 call	 ??$_Deallocate@$07$0A@@std@@YAXPAXI@Z ; std::_Deallocate<8,0>
  007aa	83 c4 08	 add	 esp, 8
$LN777@LoadRaceDa:
; File C:\Program Files (x86)\Microsoft Visual Studio\2019\Community\VC\Tools\MSVC\14.27.29110\include\xstring

; 363  :         return static_cast<_Elem*>(_CSTD memmove(_First1, _First2, _Count));

  007ad	f3 0f 7e 05 00
	00 00 00	 movq	 xmm0, QWORD PTR ??_C@_0L@BLAJFEIP@shapeindex@
  007b5	66 a1 08 00 00
	00		 mov	 ax, WORD PTR ??_C@_0L@BLAJFEIP@shapeindex@+8

; 4294 :         _Mypair._Myval2._Myres  = _BUF_SIZE - 1;

  007bb	c7 45 ec 0f 00
	00 00		 mov	 DWORD PTR $T55[ebp+20], 15 ; 0000000fH

; 2968 :             _Mypair._Myval2._Mysize = _Count;

  007c2	c7 45 e8 0a 00
	00 00		 mov	 DWORD PTR $T55[ebp+16], 10 ; 0000000aH

; 363  :         return static_cast<_Elem*>(_CSTD memmove(_First1, _First2, _Count));

  007c9	66 0f d6 45 d8	 movq	 QWORD PTR $T55[ebp], xmm0
  007ce	66 89 45 e0	 mov	 WORD PTR $T55[ebp+8], ax

; 2970 :             _Traits::assign(_Old_ptr[_Count], _Elem());

  007d2	c6 45 e2 00	 mov	 BYTE PTR $T55[ebp+10], 0
; File C:\DS Project\DS Files\Source\ClientSource\Client\GameLib\RaceDataFile.cpp

; 80   : 				if (!TextFileLoader.GetTokenDoubleWord("shapeindex", &dwShapeIndex))

  007d6	8d 85 bc fe ff
	ff		 lea	 eax, DWORD PTR _dwShapeIndex$9[ebp]
  007dc	c6 45 fc 0c	 mov	 BYTE PTR __$EHRec$[ebp+8], 12 ; 0000000cH
  007e0	50		 push	 eax
  007e1	8d 45 d8	 lea	 eax, DWORD PTR $T55[ebp]
  007e4	50		 push	 eax
  007e5	8d 8d c8 fe ff
	ff		 lea	 ecx, DWORD PTR _TextFileLoader$[ebp]
  007eb	e8 00 00 00 00	 call	 ?GetTokenDoubleWord@CTextFileLoader@@QAEHABV?$basic_string@DU?$char_traits@D@std@@V?$allocator@D@2@@std@@PAK@Z ; CTextFileLoader::GetTokenDoubleWord
  007f0	85 c0		 test	 eax, eax
  007f2	c6 45 fc 07	 mov	 BYTE PTR __$EHRec$[ebp+8], 7
; File C:\Program Files (x86)\Microsoft Visual Studio\2019\Community\VC\Tools\MSVC\14.27.29110\include\xstring

; 4301 :         if (_Mypair._Myval2._Large_string_engaged()) {

  007f6	8b 45 ec	 mov	 eax, DWORD PTR $T55[ebp+20]
; File C:\DS Project\DS Files\Source\ClientSource\Client\GameLib\RaceDataFile.cpp

; 80   : 				if (!TextFileLoader.GetTokenDoubleWord("shapeindex", &dwShapeIndex))

  007f9	0f 94 85 c7 fe
	ff ff		 sete	 BYTE PTR $T19[ebp]
; File C:\Program Files (x86)\Microsoft Visual Studio\2019\Community\VC\Tools\MSVC\14.27.29110\include\xstring

; 4301 :         if (_Mypair._Myval2._Large_string_engaged()) {

  00800	83 f8 10	 cmp	 eax, 16			; 00000010H
  00803	72 0d		 jb	 SHORT $LN833@LoadRaceDa

; 4302 :             const pointer _Ptr = _Mypair._Myval2._Bx._Ptr;
; 4303 :             auto& _Al          = _Getal();
; 4304 :             _Destroy_in_place(_Mypair._Myval2._Bx._Ptr);
; 4305 :             _Al.deallocate(_Ptr, _Mypair._Myval2._Myres + 1);

  00805	40		 inc	 eax
; File C:\Program Files (x86)\Microsoft Visual Studio\2019\Community\VC\Tools\MSVC\14.27.29110\include\xmemory

; 803  :         _Deallocate<_New_alignof<_Ty>>(_Ptr, sizeof(_Ty) * _Count);

  00806	50		 push	 eax
  00807	ff 75 d8	 push	 DWORD PTR $T55[ebp]
  0080a	e8 00 00 00 00	 call	 ??$_Deallocate@$07$0A@@std@@YAXPAXI@Z ; std::_Deallocate<8,0>
  0080f	83 c4 08	 add	 esp, 8
$LN833@LoadRaceDa:
; File C:\DS Project\DS Files\Source\ClientSource\Client\GameLib\RaceDataFile.cpp

; 80   : 				if (!TextFileLoader.GetTokenDoubleWord("shapeindex", &dwShapeIndex))

  00812	80 bd c7 fe ff
	ff 00		 cmp	 BYTE PTR $T19[ebp], 0
  00819	0f 85 8b 07 00
	00		 jne	 $LN5@LoadRaceDa
; File C:\Program Files (x86)\Microsoft Visual Studio\2019\Community\VC\Tools\MSVC\14.27.29110\include\xstring

; 4293 :         _Mypair._Myval2._Mysize = 0;

  0081f	c7 45 b8 00 00
	00 00		 mov	 DWORD PTR _strModel$34[ebp+16], 0

; 4294 :         _Mypair._Myval2._Myres  = _BUF_SIZE - 1;

  00826	c7 45 bc 0f 00
	00 00		 mov	 DWORD PTR _strModel$34[ebp+20], 15 ; 0000000fH

; 4295 :         // the _Traits::assign is last so the codegen doesn't think the char write can alias this
; 4296 :         _Traits::assign(_Mypair._Myval2._Bx._Buf[0], _Elem());

  0082d	c6 45 a8 00	 mov	 BYTE PTR _strModel$34[ebp], 0

; 363  :         return static_cast<_Elem*>(_CSTD memmove(_First1, _First2, _Count));

  00831	a1 00 00 00 00	 mov	 eax, DWORD PTR ??_C@_05NCCFOPHA@model@
  00836	89 45 d8	 mov	 DWORD PTR $T54[ebp], eax
  00839	a0 04 00 00 00	 mov	 al, BYTE PTR ??_C@_05NCCFOPHA@model@+4

; 4294 :         _Mypair._Myval2._Myres  = _BUF_SIZE - 1;

  0083e	c7 45 ec 0f 00
	00 00		 mov	 DWORD PTR $T54[ebp+20], 15 ; 0000000fH

; 2968 :             _Mypair._Myval2._Mysize = _Count;

  00845	c7 45 e8 05 00
	00 00		 mov	 DWORD PTR $T54[ebp+16], 5

; 363  :         return static_cast<_Elem*>(_CSTD memmove(_First1, _First2, _Count));

  0084c	88 45 dc	 mov	 BYTE PTR $T54[ebp+4], al

; 2970 :             _Traits::assign(_Old_ptr[_Count], _Elem());

  0084f	c6 45 dd 00	 mov	 BYTE PTR $T54[ebp+5], 0
; File C:\DS Project\DS Files\Source\ClientSource\Client\GameLib\RaceDataFile.cpp

; 87   : 				if (TextFileLoader.GetTokenString("model", &strModel))

  00853	8d 45 a8	 lea	 eax, DWORD PTR _strModel$34[ebp]
  00856	c6 45 fc 0e	 mov	 BYTE PTR __$EHRec$[ebp+8], 14 ; 0000000eH
  0085a	50		 push	 eax
  0085b	8d 45 d8	 lea	 eax, DWORD PTR $T54[ebp]
  0085e	50		 push	 eax
  0085f	8d 8d c8 fe ff
	ff		 lea	 ecx, DWORD PTR _TextFileLoader$[ebp]
  00865	e8 00 00 00 00	 call	 ?GetTokenString@CTextFileLoader@@QAEHABV?$basic_string@DU?$char_traits@D@std@@V?$allocator@D@2@@std@@PAV23@@Z ; CTextFileLoader::GetTokenString
; File C:\Program Files (x86)\Microsoft Visual Studio\2019\Community\VC\Tools\MSVC\14.27.29110\include\xstring

; 4301 :         if (_Mypair._Myval2._Large_string_engaged()) {

  0086a	8b 4d ec	 mov	 ecx, DWORD PTR $T54[ebp+20]
; File C:\DS Project\DS Files\Source\ClientSource\Client\GameLib\RaceDataFile.cpp

; 87   : 				if (TextFileLoader.GetTokenString("model", &strModel))

  0086d	8b f0		 mov	 esi, eax
  0086f	c6 45 fc 0d	 mov	 BYTE PTR __$EHRec$[ebp+8], 13 ; 0000000dH
; File C:\Program Files (x86)\Microsoft Visual Studio\2019\Community\VC\Tools\MSVC\14.27.29110\include\xstring

; 4301 :         if (_Mypair._Myval2._Large_string_engaged()) {

  00873	83 f9 10	 cmp	 ecx, 16			; 00000010H
  00876	72 0d		 jb	 SHORT $LN898@LoadRaceDa

; 4302 :             const pointer _Ptr = _Mypair._Myval2._Bx._Ptr;
; 4303 :             auto& _Al          = _Getal();
; 4304 :             _Destroy_in_place(_Mypair._Myval2._Bx._Ptr);
; 4305 :             _Al.deallocate(_Ptr, _Mypair._Myval2._Myres + 1);

  00878	41		 inc	 ecx
; File C:\Program Files (x86)\Microsoft Visual Studio\2019\Community\VC\Tools\MSVC\14.27.29110\include\xmemory

; 803  :         _Deallocate<_New_alignof<_Ty>>(_Ptr, sizeof(_Ty) * _Count);

  00879	51		 push	 ecx
  0087a	ff 75 d8	 push	 DWORD PTR $T54[ebp]
  0087d	e8 00 00 00 00	 call	 ??$_Deallocate@$07$0A@@std@@YAXPAXI@Z ; std::_Deallocate<8,0>
  00882	83 c4 08	 add	 esp, 8
$LN898@LoadRaceDa:
; File C:\DS Project\DS Files\Source\ClientSource\Client\GameLib\RaceDataFile.cpp

; 87   : 				if (TextFileLoader.GetTokenString("model", &strModel))

  00885	85 f6		 test	 esi, esi
  00887	0f 84 8d 00 00
	00		 je	 $LN25@LoadRaceDa

; 89   : 					SetShapeModel(dwShapeIndex, (strPathName + strModel).c_str());

  0088d	8d 45 a8	 lea	 eax, DWORD PTR _strModel$34[ebp]
  00890	50		 push	 eax
  00891	8d 85 60 ff ff
	ff		 lea	 eax, DWORD PTR _strPathName$28[ebp]
  00897	50		 push	 eax
  00898	8d 85 48 ff ff
	ff		 lea	 eax, DWORD PTR $T25[ebp]
  0089e	50		 push	 eax
  0089f	e8 00 00 00 00	 call	 ??$?HDU?$char_traits@D@std@@V?$allocator@D@1@@std@@YA?AV?$basic_string@DU?$char_traits@D@std@@V?$allocator@D@2@@0@ABV10@0@Z ; std::operator+<char,std::char_traits<char>,std::allocator<char> >
  008a4	83 c4 0c	 add	 esp, 12			; 0000000cH
; File C:\Program Files (x86)\Microsoft Visual Studio\2019\Community\VC\Tools\MSVC\14.27.29110\include\xstring

; 2145 :         if (_Large_string_engaged()) {

  008a7	83 78 14 10	 cmp	 DWORD PTR [eax+20], 16	; 00000010H
; File C:\DS Project\DS Files\Source\ClientSource\Client\GameLib\RaceDataFile.cpp

; 89   : 					SetShapeModel(dwShapeIndex, (strPathName + strModel).c_str());

  008ab	c6 45 fc 0f	 mov	 BYTE PTR __$EHRec$[ebp+8], 15 ; 0000000fH
; File C:\Program Files (x86)\Microsoft Visual Studio\2019\Community\VC\Tools\MSVC\14.27.29110\include\xstring

; 2145 :         if (_Large_string_engaged()) {

  008af	72 02		 jb	 SHORT $LN907@LoadRaceDa

; 2146 :             _Result = _Unfancy(_Bx._Ptr);

  008b1	8b 00		 mov	 eax, DWORD PTR [eax]
$LN907@LoadRaceDa:
; File C:\DS Project\DS Files\Source\ClientSource\Client\GameLib\RaceDataFile.cpp

; 89   : 					SetShapeModel(dwShapeIndex, (strPathName + strModel).c_str());

  008b3	8b bd ac fe ff
	ff		 mov	 edi, DWORD PTR _this$GSCopy$1$[ebp]
  008b9	8b cf		 mov	 ecx, edi
  008bb	50		 push	 eax
  008bc	ff b5 bc fe ff
	ff		 push	 DWORD PTR _dwShapeIndex$9[ebp]
  008c2	e8 00 00 00 00	 call	 ?SetShapeModel@CRaceData@@QAEXIPBD@Z ; CRaceData::SetShapeModel
; File C:\Program Files (x86)\Microsoft Visual Studio\2019\Community\VC\Tools\MSVC\14.27.29110\include\xstring

; 4301 :         if (_Mypair._Myval2._Large_string_engaged()) {

  008c7	8b 85 5c ff ff
	ff		 mov	 eax, DWORD PTR $T25[ebp+20]
  008cd	83 f8 10	 cmp	 eax, 16			; 00000010H
  008d0	0f 82 ca 00 00
	00		 jb	 $LN26@LoadRaceDa

; 4302 :             const pointer _Ptr = _Mypair._Myval2._Bx._Ptr;
; 4303 :             auto& _Al          = _Getal();
; 4304 :             _Destroy_in_place(_Mypair._Myval2._Bx._Ptr);
; 4305 :             _Al.deallocate(_Ptr, _Mypair._Myval2._Myres + 1);

  008d6	40		 inc	 eax
; File C:\Program Files (x86)\Microsoft Visual Studio\2019\Community\VC\Tools\MSVC\14.27.29110\include\xmemory

; 803  :         _Deallocate<_New_alignof<_Ty>>(_Ptr, sizeof(_Ty) * _Count);

  008d7	50		 push	 eax
  008d8	ff b5 48 ff ff
	ff		 push	 DWORD PTR $T25[ebp]
  008de	e8 00 00 00 00	 call	 ??$_Deallocate@$07$0A@@std@@YAXPAXI@Z ; std::_Deallocate<8,0>
  008e3	83 c4 08	 add	 esp, 8
; File C:\DS Project\DS Files\Source\ClientSource\Client\GameLib\RaceDataFile.cpp

; 90   : 				}

  008e6	e9 b5 00 00 00	 jmp	 $LN26@LoadRaceDa
$LN1547@LoadRaceDa:
; File C:\Program Files (x86)\Microsoft Visual Studio\2019\Community\VC\Tools\MSVC\14.27.29110\include\xstring

; 2153 :         return _BUF_SIZE <= _Myres;

  008eb	83 7e 14 10	 cmp	 DWORD PTR [esi+20], 16	; 00000010H

; 2145 :         if (_Large_string_engaged()) {

  008ef	72 02		 jb	 SHORT $LN546@LoadRaceDa

; 2146 :             _Result = _Unfancy(_Bx._Ptr);

  008f1	8b 36		 mov	 esi, DWORD PTR [esi]
$LN546@LoadRaceDa:
; File C:\DS Project\DS Files\Source\ClientSource\Client\GameLib\RaceDataFile.cpp

; 54   : 				TraceError("CRaceData::RegisterEffect2(%s) ERROR", c_rstrEffectFileName.c_str());

  008f3	56		 push	 esi
  008f4	68 00 00 00 00	 push	 OFFSET ??_C@_0CF@GEINCGMO@CRaceData?3?3RegisterEffect2?$CI?$CFs?$CJ?5@
  008f9	e8 00 00 00 00	 call	 ?TraceError@@YAXPBDZZ	; TraceError

; 55   : 				rdwCRCEft=0;

  008fe	8b 85 b4 fe ff
	ff		 mov	 eax, DWORD PTR _rdwCRCEft$1$[ebp]
  00904	c7 00 00 00 00
	00		 mov	 DWORD PTR [eax], 0

; 56   : 				return false;

  0090a	e9 ea fa ff ff	 jmp	 $LN1595@LoadRaceDa
$LN19@LoadRaceDa:

; 44   : 			{
; 45   : 				TraceError("SmokeFileName SmokeNum[%d] OUT OF RANGE", eSmoke);

  0090f	50		 push	 eax
  00910	68 00 00 00 00	 push	 OFFSET ??_C@_0CI@MHBPKAGN@SmokeFileName?5SmokeNum?$FL?$CFd?$FN?5OUT?5@
  00915	e9 da fa ff ff	 jmp	 $LN1594@LoadRaceDa
$LN25@LoadRaceDa:
; File C:\Program Files (x86)\Microsoft Visual Studio\2019\Community\VC\Tools\MSVC\14.27.29110\include\xstring

; 2984 :         return assign(_Ptr, _Convert_size<size_type>(_Traits::length(_Ptr)));

  0091a	6a 0b		 push	 11			; 0000000bH
  0091c	68 00 00 00 00	 push	 OFFSET ??_C@_0M@NFFHMNPF@local_model@
  00921	8d 4d d8	 lea	 ecx, DWORD PTR $T53[ebp]

; 4293 :         _Mypair._Myval2._Mysize = 0;

  00924	c7 45 e8 00 00
	00 00		 mov	 DWORD PTR $T53[ebp+16], 0

; 4294 :         _Mypair._Myval2._Myres  = _BUF_SIZE - 1;

  0092b	c7 45 ec 0f 00
	00 00		 mov	 DWORD PTR $T53[ebp+20], 15 ; 0000000fH

; 4295 :         // the _Traits::assign is last so the codegen doesn't think the char write can alias this
; 4296 :         _Traits::assign(_Mypair._Myval2._Bx._Buf[0], _Elem());

  00932	c6 45 d8 00	 mov	 BYTE PTR $T53[ebp], 0

; 2984 :         return assign(_Ptr, _Convert_size<size_type>(_Traits::length(_Ptr)));

  00936	e8 00 00 00 00	 call	 ?assign@?$basic_string@DU?$char_traits@D@std@@V?$allocator@D@2@@std@@QAEAAV12@QBDI@Z ; std::basic_string<char,std::char_traits<char>,std::allocator<char> >::assign
; File C:\DS Project\DS Files\Source\ClientSource\Client\GameLib\RaceDataFile.cpp

; 93   : 					if (!TextFileLoader.GetTokenString("local_model", &strModel))

  0093b	8d 45 a8	 lea	 eax, DWORD PTR _strModel$34[ebp]
  0093e	c6 45 fc 10	 mov	 BYTE PTR __$EHRec$[ebp+8], 16 ; 00000010H
  00942	50		 push	 eax
  00943	8d 45 d8	 lea	 eax, DWORD PTR $T53[ebp]
  00946	50		 push	 eax
  00947	8d 8d c8 fe ff
	ff		 lea	 ecx, DWORD PTR _TextFileLoader$[ebp]
  0094d	e8 00 00 00 00	 call	 ?GetTokenString@CTextFileLoader@@QAEHABV?$basic_string@DU?$char_traits@D@std@@V?$allocator@D@2@@std@@PAV23@@Z ; CTextFileLoader::GetTokenString
  00952	85 c0		 test	 eax, eax
  00954	c6 45 fc 0d	 mov	 BYTE PTR __$EHRec$[ebp+8], 13 ; 0000000dH
; File C:\Program Files (x86)\Microsoft Visual Studio\2019\Community\VC\Tools\MSVC\14.27.29110\include\xstring

; 4301 :         if (_Mypair._Myval2._Large_string_engaged()) {

  00958	8b 45 ec	 mov	 eax, DWORD PTR $T53[ebp+20]
; File C:\DS Project\DS Files\Source\ClientSource\Client\GameLib\RaceDataFile.cpp

; 93   : 					if (!TextFileLoader.GetTokenString("local_model", &strModel))

  0095b	0f 94 85 c7 fe
	ff ff		 sete	 BYTE PTR $T18[ebp]
; File C:\Program Files (x86)\Microsoft Visual Studio\2019\Community\VC\Tools\MSVC\14.27.29110\include\xstring

; 4301 :         if (_Mypair._Myval2._Large_string_engaged()) {

  00962	83 f8 10	 cmp	 eax, 16			; 00000010H
  00965	72 0d		 jb	 SHORT $LN937@LoadRaceDa

; 4302 :             const pointer _Ptr = _Mypair._Myval2._Bx._Ptr;
; 4303 :             auto& _Al          = _Getal();
; 4304 :             _Destroy_in_place(_Mypair._Myval2._Bx._Ptr);
; 4305 :             _Al.deallocate(_Ptr, _Mypair._Myval2._Myres + 1);

  00967	40		 inc	 eax
; File C:\Program Files (x86)\Microsoft Visual Studio\2019\Community\VC\Tools\MSVC\14.27.29110\include\xmemory

; 803  :         _Deallocate<_New_alignof<_Ty>>(_Ptr, sizeof(_Ty) * _Count);

  00968	50		 push	 eax
  00969	ff 75 d8	 push	 DWORD PTR $T53[ebp]
  0096c	e8 00 00 00 00	 call	 ??$_Deallocate@$07$0A@@std@@YAXPAXI@Z ; std::_Deallocate<8,0>
  00971	83 c4 08	 add	 esp, 8
$LN937@LoadRaceDa:
; File C:\DS Project\DS Files\Source\ClientSource\Client\GameLib\RaceDataFile.cpp

; 93   : 					if (!TextFileLoader.GetTokenString("local_model", &strModel))

  00974	80 bd c7 fe ff
	ff 00		 cmp	 BYTE PTR $T18[ebp], 0
  0097b	0f 85 10 06 00
	00		 jne	 $LN1593@LoadRaceDa
; File C:\Program Files (x86)\Microsoft Visual Studio\2019\Community\VC\Tools\MSVC\14.27.29110\include\xstring

; 2145 :         if (_Large_string_engaged()) {

  00981	83 7d bc 10	 cmp	 DWORD PTR _strModel$34[ebp+20], 16 ; 00000010H
  00985	8d 45 a8	 lea	 eax, DWORD PTR _strModel$34[ebp]
; File C:\DS Project\DS Files\Source\ClientSource\Client\GameLib\RaceDataFile.cpp

; 96   : 					SetShapeModel(dwShapeIndex, strModel.c_str());

  00988	8b bd ac fe ff
	ff		 mov	 edi, DWORD PTR _this$GSCopy$1$[ebp]
  0098e	8b cf		 mov	 ecx, edi
; File C:\Program Files (x86)\Microsoft Visual Studio\2019\Community\VC\Tools\MSVC\14.27.29110\include\xstring

; 2145 :         if (_Large_string_engaged()) {

  00990	0f 43 45 a8	 cmovae	 eax, DWORD PTR _strModel$34[ebp]
; File C:\DS Project\DS Files\Source\ClientSource\Client\GameLib\RaceDataFile.cpp

; 96   : 					SetShapeModel(dwShapeIndex, strModel.c_str());

  00994	50		 push	 eax
  00995	ff b5 bc fe ff
	ff		 push	 DWORD PTR _dwShapeIndex$9[ebp]
  0099b	e8 00 00 00 00	 call	 ?SetShapeModel@CRaceData@@QAEXIPBD@Z ; CRaceData::SetShapeModel
$LN26@LoadRaceDa:
; File C:\Program Files (x86)\Microsoft Visual Studio\2019\Community\VC\Tools\MSVC\14.27.29110\include\xstring

; 4293 :         _Mypair._Myval2._Mysize = 0;

  009a0	c7 45 88 00 00
	00 00		 mov	 DWORD PTR _strSourceSkin$30[ebp+16], 0

; 4294 :         _Mypair._Myval2._Myres  = _BUF_SIZE - 1;

  009a7	c7 45 8c 0f 00
	00 00		 mov	 DWORD PTR _strSourceSkin$30[ebp+20], 15 ; 0000000fH

; 4295 :         // the _Traits::assign is last so the codegen doesn't think the char write can alias this
; 4296 :         _Traits::assign(_Mypair._Myval2._Bx._Buf[0], _Elem());

  009ae	c6 85 78 ff ff
	ff 00		 mov	 BYTE PTR _strSourceSkin$30[ebp], 0

; 4293 :         _Mypair._Myval2._Mysize = 0;

  009b5	c7 45 a0 00 00
	00 00		 mov	 DWORD PTR _strTargetSkin$32[ebp+16], 0

; 4294 :         _Mypair._Myval2._Myres  = _BUF_SIZE - 1;

  009bc	c7 45 a4 0f 00
	00 00		 mov	 DWORD PTR _strTargetSkin$32[ebp+20], 15 ; 0000000fH

; 4295 :         // the _Traits::assign is last so the codegen doesn't think the char write can alias this
; 4296 :         _Traits::assign(_Mypair._Myval2._Bx._Buf[0], _Elem());

  009c3	c6 45 90 00	 mov	 BYTE PTR _strTargetSkin$32[ebp], 0

; 2984 :         return assign(_Ptr, _Convert_size<size_type>(_Traits::length(_Ptr)));

  009c7	6a 10		 push	 16			; 00000010H
  009c9	68 00 00 00 00	 push	 OFFSET ??_C@_0BB@OAFGNDMP@local_sourceskin@
  009ce	8d 4d c0	 lea	 ecx, DWORD PTR $T46[ebp]
; File C:\DS Project\DS Files\Source\ClientSource\Client\GameLib\RaceDataFile.cpp

; 103  : 				std::string strTargetSkin;

  009d1	c6 45 fc 12	 mov	 BYTE PTR __$EHRec$[ebp+8], 18 ; 00000012H
; File C:\Program Files (x86)\Microsoft Visual Studio\2019\Community\VC\Tools\MSVC\14.27.29110\include\xstring

; 4293 :         _Mypair._Myval2._Mysize = 0;

  009d5	c7 45 d0 00 00
	00 00		 mov	 DWORD PTR $T46[ebp+16], 0

; 4294 :         _Mypair._Myval2._Myres  = _BUF_SIZE - 1;

  009dc	c7 45 d4 0f 00
	00 00		 mov	 DWORD PTR $T46[ebp+20], 15 ; 0000000fH

; 4295 :         // the _Traits::assign is last so the codegen doesn't think the char write can alias this
; 4296 :         _Traits::assign(_Mypair._Myval2._Bx._Buf[0], _Elem());

  009e3	c6 45 c0 00	 mov	 BYTE PTR $T46[ebp], 0

; 2984 :         return assign(_Ptr, _Convert_size<size_type>(_Traits::length(_Ptr)));

  009e7	e8 00 00 00 00	 call	 ?assign@?$basic_string@DU?$char_traits@D@std@@V?$allocator@D@2@@std@@QAEAAV12@QBDI@Z ; std::basic_string<char,std::char_traits<char>,std::allocator<char> >::assign
; File C:\DS Project\DS Files\Source\ClientSource\Client\GameLib\RaceDataFile.cpp

; 109  : 				if (TextFileLoader.GetTokenString("local_sourceskin", &strSourceSkin) &&

  009ec	8b 85 c0 fe ff
	ff		 mov	 eax, DWORD PTR $T10[ebp]
  009f2	8d 8d c8 fe ff
	ff		 lea	 ecx, DWORD PTR _TextFileLoader$[ebp]
  009f8	83 c8 04	 or	 eax, 4
  009fb	c6 45 fc 13	 mov	 BYTE PTR __$EHRec$[ebp+8], 19 ; 00000013H
  009ff	89 85 c0 fe ff
	ff		 mov	 DWORD PTR $T10[ebp], eax
  00a05	89 85 b8 fe ff
	ff		 mov	 DWORD PTR $T7[ebp], eax
  00a0b	8d 85 78 ff ff
	ff		 lea	 eax, DWORD PTR _strSourceSkin$30[ebp]
  00a11	50		 push	 eax
  00a12	8d 45 c0	 lea	 eax, DWORD PTR $T46[ebp]
  00a15	50		 push	 eax
  00a16	e8 00 00 00 00	 call	 ?GetTokenString@CTextFileLoader@@QAEHABV?$basic_string@DU?$char_traits@D@std@@V?$allocator@D@2@@std@@PAV23@@Z ; CTextFileLoader::GetTokenString
  00a1b	85 c0		 test	 eax, eax
  00a1d	74 5b		 je	 SHORT $LN41@LoadRaceDa
; File C:\Program Files (x86)\Microsoft Visual Studio\2019\Community\VC\Tools\MSVC\14.27.29110\include\xstring

; 2984 :         return assign(_Ptr, _Convert_size<size_type>(_Traits::length(_Ptr)));

  00a1f	6a 10		 push	 16			; 00000010H
  00a21	68 00 00 00 00	 push	 OFFSET ??_C@_0BB@CMMEEAHN@local_targetskin@
  00a26	8d 4d d8	 lea	 ecx, DWORD PTR $T52[ebp]

; 4293 :         _Mypair._Myval2._Mysize = 0;

  00a29	c7 45 e8 00 00
	00 00		 mov	 DWORD PTR $T52[ebp+16], 0

; 4294 :         _Mypair._Myval2._Myres  = _BUF_SIZE - 1;

  00a30	c7 45 ec 0f 00
	00 00		 mov	 DWORD PTR $T52[ebp+20], 15 ; 0000000fH

; 4295 :         // the _Traits::assign is last so the codegen doesn't think the char write can alias this
; 4296 :         _Traits::assign(_Mypair._Myval2._Bx._Buf[0], _Elem());

  00a37	c6 45 d8 00	 mov	 BYTE PTR $T52[ebp], 0

; 2984 :         return assign(_Ptr, _Convert_size<size_type>(_Traits::length(_Ptr)));

  00a3b	e8 00 00 00 00	 call	 ?assign@?$basic_string@DU?$char_traits@D@std@@V?$allocator@D@2@@std@@QAEAAV12@QBDI@Z ; std::basic_string<char,std::char_traits<char>,std::allocator<char> >::assign
; File C:\DS Project\DS Files\Source\ClientSource\Client\GameLib\RaceDataFile.cpp

; 109  : 				if (TextFileLoader.GetTokenString("local_sourceskin", &strSourceSkin) &&

  00a40	8b 85 c0 fe ff
	ff		 mov	 eax, DWORD PTR $T10[ebp]
  00a46	8d 8d c8 fe ff
	ff		 lea	 ecx, DWORD PTR _TextFileLoader$[ebp]
  00a4c	83 c8 08	 or	 eax, 8
  00a4f	c7 45 fc 14 00
	00 00		 mov	 DWORD PTR __$EHRec$[ebp+8], 20 ; 00000014H
  00a56	89 85 c0 fe ff
	ff		 mov	 DWORD PTR $T10[ebp], eax
  00a5c	89 85 b8 fe ff
	ff		 mov	 DWORD PTR $T7[ebp], eax
  00a62	8d 45 90	 lea	 eax, DWORD PTR _strTargetSkin$32[ebp]
  00a65	50		 push	 eax
  00a66	8d 45 d8	 lea	 eax, DWORD PTR $T52[ebp]
  00a69	50		 push	 eax
  00a6a	e8 00 00 00 00	 call	 ?GetTokenString@CTextFileLoader@@QAEHABV?$basic_string@DU?$char_traits@D@std@@V?$allocator@D@2@@std@@PAV23@@Z ; CTextFileLoader::GetTokenString
  00a6f	c6 85 c7 fe ff
	ff 01		 mov	 BYTE PTR $T17[ebp], 1
  00a76	85 c0		 test	 eax, eax
  00a78	75 07		 jne	 SHORT $LN42@LoadRaceDa
$LN41@LoadRaceDa:
  00a7a	c6 85 c7 fe ff
	ff 00		 mov	 BYTE PTR $T17[ebp], 0
$LN42@LoadRaceDa:
  00a81	8b 85 c0 fe ff
	ff		 mov	 eax, DWORD PTR $T10[ebp]
  00a87	a8 08		 test	 al, 8
  00a89	74 38		 je	 SHORT $LN1007@LoadRaceDa
; File C:\Program Files (x86)\Microsoft Visual Studio\2019\Community\VC\Tools\MSVC\14.27.29110\include\xstring

; 4301 :         if (_Mypair._Myval2._Large_string_engaged()) {

  00a8b	8b 4d ec	 mov	 ecx, DWORD PTR $T52[ebp+20]
; File C:\DS Project\DS Files\Source\ClientSource\Client\GameLib\RaceDataFile.cpp

; 109  : 				if (TextFileLoader.GetTokenString("local_sourceskin", &strSourceSkin) &&

  00a8e	83 e0 f7	 and	 eax, -9			; fffffff7H
  00a91	89 85 c0 fe ff
	ff		 mov	 DWORD PTR $T10[ebp], eax
; File C:\Program Files (x86)\Microsoft Visual Studio\2019\Community\VC\Tools\MSVC\14.27.29110\include\xstring

; 4301 :         if (_Mypair._Myval2._Large_string_engaged()) {

  00a97	83 f9 10	 cmp	 ecx, 16			; 00000010H
  00a9a	72 15		 jb	 SHORT $LN1006@LoadRaceDa

; 4302 :             const pointer _Ptr = _Mypair._Myval2._Bx._Ptr;
; 4303 :             auto& _Al          = _Getal();
; 4304 :             _Destroy_in_place(_Mypair._Myval2._Bx._Ptr);
; 4305 :             _Al.deallocate(_Ptr, _Mypair._Myval2._Myres + 1);

  00a9c	8d 41 01	 lea	 eax, DWORD PTR [ecx+1]
; File C:\Program Files (x86)\Microsoft Visual Studio\2019\Community\VC\Tools\MSVC\14.27.29110\include\xmemory

; 803  :         _Deallocate<_New_alignof<_Ty>>(_Ptr, sizeof(_Ty) * _Count);

  00a9f	50		 push	 eax
  00aa0	ff 75 d8	 push	 DWORD PTR $T52[ebp]
  00aa3	e8 00 00 00 00	 call	 ??$_Deallocate@$07$0A@@std@@YAXPAXI@Z ; std::_Deallocate<8,0>
  00aa8	8b 85 c0 fe ff
	ff		 mov	 eax, DWORD PTR $T10[ebp]
  00aae	83 c4 08	 add	 esp, 8
$LN1006@LoadRaceDa:
; File C:\Program Files (x86)\Microsoft Visual Studio\2019\Community\VC\Tools\MSVC\14.27.29110\include\xstring

; 4308 :         _Mypair._Myval2._Mysize = 0;

  00ab1	c7 45 e8 00 00
	00 00		 mov	 DWORD PTR $T52[ebp+16], 0

; 4309 :         _Mypair._Myval2._Myres  = _BUF_SIZE - 1;

  00ab8	c7 45 ec 0f 00
	00 00		 mov	 DWORD PTR $T52[ebp+20], 15 ; 0000000fH

; 4310 :         // the _Traits::assign is last so the codegen doesn't think the char write can alias this
; 4311 :         _Traits::assign(_Mypair._Myval2._Bx._Buf[0], _Elem());

  00abf	c6 45 d8 00	 mov	 BYTE PTR $T52[ebp], 0
$LN1007@LoadRaceDa:
; File C:\DS Project\DS Files\Source\ClientSource\Client\GameLib\RaceDataFile.cpp

; 109  : 				if (TextFileLoader.GetTokenString("local_sourceskin", &strSourceSkin) &&

  00ac3	c7 45 fc 12 00
	00 00		 mov	 DWORD PTR __$EHRec$[ebp+8], 18 ; 00000012H
  00aca	a8 04		 test	 al, 4
  00acc	74 1e		 je	 SHORT $LN1016@LoadRaceDa
  00ace	83 e0 fb	 and	 eax, -5			; fffffffbH
  00ad1	89 85 c0 fe ff
	ff		 mov	 DWORD PTR $T10[ebp], eax
; File C:\Program Files (x86)\Microsoft Visual Studio\2019\Community\VC\Tools\MSVC\14.27.29110\include\xstring

; 4301 :         if (_Mypair._Myval2._Large_string_engaged()) {

  00ad7	8b 45 d4	 mov	 eax, DWORD PTR $T46[ebp+20]
  00ada	83 f8 10	 cmp	 eax, 16			; 00000010H
  00add	72 0d		 jb	 SHORT $LN1016@LoadRaceDa

; 4302 :             const pointer _Ptr = _Mypair._Myval2._Bx._Ptr;
; 4303 :             auto& _Al          = _Getal();
; 4304 :             _Destroy_in_place(_Mypair._Myval2._Bx._Ptr);
; 4305 :             _Al.deallocate(_Ptr, _Mypair._Myval2._Myres + 1);

  00adf	40		 inc	 eax
; File C:\Program Files (x86)\Microsoft Visual Studio\2019\Community\VC\Tools\MSVC\14.27.29110\include\xmemory

; 803  :         _Deallocate<_New_alignof<_Ty>>(_Ptr, sizeof(_Ty) * _Count);

  00ae0	50		 push	 eax
  00ae1	ff 75 c0	 push	 DWORD PTR $T46[ebp]
  00ae4	e8 00 00 00 00	 call	 ??$_Deallocate@$07$0A@@std@@YAXPAXI@Z ; std::_Deallocate<8,0>
  00ae9	83 c4 08	 add	 esp, 8
$LN1016@LoadRaceDa:
; File C:\DS Project\DS Files\Source\ClientSource\Client\GameLib\RaceDataFile.cpp

; 109  : 				if (TextFileLoader.GetTokenString("local_sourceskin", &strSourceSkin) &&

  00aec	80 bd c7 fe ff
	ff 00		 cmp	 BYTE PTR $T17[ebp], 0
  00af3	74 2d		 je	 SHORT $LN28@LoadRaceDa
; File C:\Program Files (x86)\Microsoft Visual Studio\2019\Community\VC\Tools\MSVC\14.27.29110\include\xstring

; 2145 :         if (_Large_string_engaged()) {

  00af5	83 7d a4 10	 cmp	 DWORD PTR _strTargetSkin$32[ebp+20], 16 ; 00000010H
  00af9	8d 4d 90	 lea	 ecx, DWORD PTR _strTargetSkin$32[ebp]

; 2144 :         const value_type* _Result = _Bx._Buf;

  00afc	8d 85 78 ff ff
	ff		 lea	 eax, DWORD PTR _strSourceSkin$30[ebp]

; 2145 :         if (_Large_string_engaged()) {

  00b02	0f 43 4d 90	 cmovae	 ecx, DWORD PTR _strTargetSkin$32[ebp]
  00b06	83 7d 8c 10	 cmp	 DWORD PTR _strSourceSkin$30[ebp+20], 16 ; 00000010H
; File C:\DS Project\DS Files\Source\ClientSource\Client\GameLib\RaceDataFile.cpp

; 112  : 					AppendShapeSkin(dwShapeIndex, 0, strSourceSkin.c_str(), strTargetSkin.c_str());

  00b0a	51		 push	 ecx
; File C:\Program Files (x86)\Microsoft Visual Studio\2019\Community\VC\Tools\MSVC\14.27.29110\include\xstring

; 2145 :         if (_Large_string_engaged()) {

  00b0b	0f 43 85 78 ff
	ff ff		 cmovae	 eax, DWORD PTR _strSourceSkin$30[ebp]
; File C:\DS Project\DS Files\Source\ClientSource\Client\GameLib\RaceDataFile.cpp

; 112  : 					AppendShapeSkin(dwShapeIndex, 0, strSourceSkin.c_str(), strTargetSkin.c_str());

  00b12	8b cf		 mov	 ecx, edi
  00b14	50		 push	 eax
  00b15	6a 00		 push	 0
  00b17	ff b5 bc fe ff
	ff		 push	 DWORD PTR _dwShapeIndex$9[ebp]
  00b1d	e8 00 00 00 00	 call	 ?AppendShapeSkin@CRaceData@@QAEXIIPBD0@Z ; CRaceData::AppendShapeSkin
$LN28@LoadRaceDa:
; File C:\Program Files (x86)\Microsoft Visual Studio\2019\Community\VC\Tools\MSVC\14.27.29110\include\xstring

; 2984 :         return assign(_Ptr, _Convert_size<size_type>(_Traits::length(_Ptr)));

  00b22	6a 0a		 push	 10			; 0000000aH
  00b24	68 00 00 00 00	 push	 OFFSET ??_C@_0L@ILFPKBGB@sourceskin@
  00b29	8d 4d c0	 lea	 ecx, DWORD PTR $T45[ebp]

; 4293 :         _Mypair._Myval2._Mysize = 0;

  00b2c	c7 45 d0 00 00
	00 00		 mov	 DWORD PTR $T45[ebp+16], 0

; 4294 :         _Mypair._Myval2._Myres  = _BUF_SIZE - 1;

  00b33	c7 45 d4 0f 00
	00 00		 mov	 DWORD PTR $T45[ebp+20], 15 ; 0000000fH

; 4295 :         // the _Traits::assign is last so the codegen doesn't think the char write can alias this
; 4296 :         _Traits::assign(_Mypair._Myval2._Bx._Buf[0], _Elem());

  00b3a	c6 45 c0 00	 mov	 BYTE PTR $T45[ebp], 0

; 2984 :         return assign(_Ptr, _Convert_size<size_type>(_Traits::length(_Ptr)));

  00b3e	e8 00 00 00 00	 call	 ?assign@?$basic_string@DU?$char_traits@D@std@@V?$allocator@D@2@@std@@QAEAAV12@QBDI@Z ; std::basic_string<char,std::char_traits<char>,std::allocator<char> >::assign
; File C:\DS Project\DS Files\Source\ClientSource\Client\GameLib\RaceDataFile.cpp

; 116  : 				if (TextFileLoader.GetTokenString("sourceskin", &strSourceSkin) &&

  00b43	8b 85 c0 fe ff
	ff		 mov	 eax, DWORD PTR $T10[ebp]
  00b49	8d 8d c8 fe ff
	ff		 lea	 ecx, DWORD PTR _TextFileLoader$[ebp]
  00b4f	83 c8 10	 or	 eax, 16			; 00000010H
  00b52	c6 45 fc 15	 mov	 BYTE PTR __$EHRec$[ebp+8], 21 ; 00000015H
  00b56	89 85 c0 fe ff
	ff		 mov	 DWORD PTR $T10[ebp], eax
  00b5c	89 85 b8 fe ff
	ff		 mov	 DWORD PTR $T7[ebp], eax
  00b62	8d 85 78 ff ff
	ff		 lea	 eax, DWORD PTR _strSourceSkin$30[ebp]
  00b68	50		 push	 eax
  00b69	8d 45 c0	 lea	 eax, DWORD PTR $T45[ebp]
  00b6c	50		 push	 eax
  00b6d	e8 00 00 00 00	 call	 ?GetTokenString@CTextFileLoader@@QAEHABV?$basic_string@DU?$char_traits@D@std@@V?$allocator@D@2@@std@@PAV23@@Z ; CTextFileLoader::GetTokenString
  00b72	85 c0		 test	 eax, eax
  00b74	74 5b		 je	 SHORT $LN43@LoadRaceDa
; File C:\Program Files (x86)\Microsoft Visual Studio\2019\Community\VC\Tools\MSVC\14.27.29110\include\xstring

; 2984 :         return assign(_Ptr, _Convert_size<size_type>(_Traits::length(_Ptr)));

  00b76	6a 0a		 push	 10			; 0000000aH
  00b78	68 00 00 00 00	 push	 OFFSET ??_C@_0L@EHMNDCND@targetskin@
  00b7d	8d 4d d8	 lea	 ecx, DWORD PTR $T51[ebp]

; 4293 :         _Mypair._Myval2._Mysize = 0;

  00b80	c7 45 e8 00 00
	00 00		 mov	 DWORD PTR $T51[ebp+16], 0

; 4294 :         _Mypair._Myval2._Myres  = _BUF_SIZE - 1;

  00b87	c7 45 ec 0f 00
	00 00		 mov	 DWORD PTR $T51[ebp+20], 15 ; 0000000fH

; 4295 :         // the _Traits::assign is last so the codegen doesn't think the char write can alias this
; 4296 :         _Traits::assign(_Mypair._Myval2._Bx._Buf[0], _Elem());

  00b8e	c6 45 d8 00	 mov	 BYTE PTR $T51[ebp], 0

; 2984 :         return assign(_Ptr, _Convert_size<size_type>(_Traits::length(_Ptr)));

  00b92	e8 00 00 00 00	 call	 ?assign@?$basic_string@DU?$char_traits@D@std@@V?$allocator@D@2@@std@@QAEAAV12@QBDI@Z ; std::basic_string<char,std::char_traits<char>,std::allocator<char> >::assign
; File C:\DS Project\DS Files\Source\ClientSource\Client\GameLib\RaceDataFile.cpp

; 116  : 				if (TextFileLoader.GetTokenString("sourceskin", &strSourceSkin) &&

  00b97	8b 85 c0 fe ff
	ff		 mov	 eax, DWORD PTR $T10[ebp]
  00b9d	8d 8d c8 fe ff
	ff		 lea	 ecx, DWORD PTR _TextFileLoader$[ebp]
  00ba3	83 c8 20	 or	 eax, 32			; 00000020H
  00ba6	c7 45 fc 16 00
	00 00		 mov	 DWORD PTR __$EHRec$[ebp+8], 22 ; 00000016H
  00bad	89 85 c0 fe ff
	ff		 mov	 DWORD PTR $T10[ebp], eax
  00bb3	89 85 b8 fe ff
	ff		 mov	 DWORD PTR $T7[ebp], eax
  00bb9	8d 45 90	 lea	 eax, DWORD PTR _strTargetSkin$32[ebp]
  00bbc	50		 push	 eax
  00bbd	8d 45 d8	 lea	 eax, DWORD PTR $T51[ebp]
  00bc0	50		 push	 eax
  00bc1	e8 00 00 00 00	 call	 ?GetTokenString@CTextFileLoader@@QAEHABV?$basic_string@DU?$char_traits@D@std@@V?$allocator@D@2@@std@@PAV23@@Z ; CTextFileLoader::GetTokenString
  00bc6	c6 85 c7 fe ff
	ff 01		 mov	 BYTE PTR $T16[ebp], 1
  00bcd	85 c0		 test	 eax, eax
  00bcf	75 07		 jne	 SHORT $LN44@LoadRaceDa
$LN43@LoadRaceDa:
  00bd1	c6 85 c7 fe ff
	ff 00		 mov	 BYTE PTR $T16[ebp], 0
$LN44@LoadRaceDa:
  00bd8	8b 85 c0 fe ff
	ff		 mov	 eax, DWORD PTR $T10[ebp]
  00bde	a8 20		 test	 al, 32			; 00000020H
  00be0	74 38		 je	 SHORT $LN1065@LoadRaceDa
; File C:\Program Files (x86)\Microsoft Visual Studio\2019\Community\VC\Tools\MSVC\14.27.29110\include\xstring

; 4301 :         if (_Mypair._Myval2._Large_string_engaged()) {

  00be2	8b 4d ec	 mov	 ecx, DWORD PTR $T51[ebp+20]
; File C:\DS Project\DS Files\Source\ClientSource\Client\GameLib\RaceDataFile.cpp

; 116  : 				if (TextFileLoader.GetTokenString("sourceskin", &strSourceSkin) &&

  00be5	83 e0 df	 and	 eax, -33		; ffffffdfH
  00be8	89 85 c0 fe ff
	ff		 mov	 DWORD PTR $T10[ebp], eax
; File C:\Program Files (x86)\Microsoft Visual Studio\2019\Community\VC\Tools\MSVC\14.27.29110\include\xstring

; 4301 :         if (_Mypair._Myval2._Large_string_engaged()) {

  00bee	83 f9 10	 cmp	 ecx, 16			; 00000010H
  00bf1	72 15		 jb	 SHORT $LN1064@LoadRaceDa

; 4302 :             const pointer _Ptr = _Mypair._Myval2._Bx._Ptr;
; 4303 :             auto& _Al          = _Getal();
; 4304 :             _Destroy_in_place(_Mypair._Myval2._Bx._Ptr);
; 4305 :             _Al.deallocate(_Ptr, _Mypair._Myval2._Myres + 1);

  00bf3	8d 41 01	 lea	 eax, DWORD PTR [ecx+1]
; File C:\Program Files (x86)\Microsoft Visual Studio\2019\Community\VC\Tools\MSVC\14.27.29110\include\xmemory

; 803  :         _Deallocate<_New_alignof<_Ty>>(_Ptr, sizeof(_Ty) * _Count);

  00bf6	50		 push	 eax
  00bf7	ff 75 d8	 push	 DWORD PTR $T51[ebp]
  00bfa	e8 00 00 00 00	 call	 ??$_Deallocate@$07$0A@@std@@YAXPAXI@Z ; std::_Deallocate<8,0>
  00bff	8b 85 c0 fe ff
	ff		 mov	 eax, DWORD PTR $T10[ebp]
  00c05	83 c4 08	 add	 esp, 8
$LN1064@LoadRaceDa:
; File C:\Program Files (x86)\Microsoft Visual Studio\2019\Community\VC\Tools\MSVC\14.27.29110\include\xstring

; 4308 :         _Mypair._Myval2._Mysize = 0;

  00c08	c7 45 e8 00 00
	00 00		 mov	 DWORD PTR $T51[ebp+16], 0

; 4309 :         _Mypair._Myval2._Myres  = _BUF_SIZE - 1;

  00c0f	c7 45 ec 0f 00
	00 00		 mov	 DWORD PTR $T51[ebp+20], 15 ; 0000000fH

; 4310 :         // the _Traits::assign is last so the codegen doesn't think the char write can alias this
; 4311 :         _Traits::assign(_Mypair._Myval2._Bx._Buf[0], _Elem());

  00c16	c6 45 d8 00	 mov	 BYTE PTR $T51[ebp], 0
$LN1065@LoadRaceDa:
; File C:\DS Project\DS Files\Source\ClientSource\Client\GameLib\RaceDataFile.cpp

; 116  : 				if (TextFileLoader.GetTokenString("sourceskin", &strSourceSkin) &&

  00c1a	c7 45 fc 12 00
	00 00		 mov	 DWORD PTR __$EHRec$[ebp+8], 18 ; 00000012H
  00c21	a8 10		 test	 al, 16			; 00000010H
  00c23	74 1e		 je	 SHORT $LN1074@LoadRaceDa
  00c25	83 e0 ef	 and	 eax, -17		; ffffffefH
  00c28	89 85 c0 fe ff
	ff		 mov	 DWORD PTR $T10[ebp], eax
; File C:\Program Files (x86)\Microsoft Visual Studio\2019\Community\VC\Tools\MSVC\14.27.29110\include\xstring

; 4301 :         if (_Mypair._Myval2._Large_string_engaged()) {

  00c2e	8b 45 d4	 mov	 eax, DWORD PTR $T45[ebp+20]
  00c31	83 f8 10	 cmp	 eax, 16			; 00000010H
  00c34	72 0d		 jb	 SHORT $LN1074@LoadRaceDa

; 4302 :             const pointer _Ptr = _Mypair._Myval2._Bx._Ptr;
; 4303 :             auto& _Al          = _Getal();
; 4304 :             _Destroy_in_place(_Mypair._Myval2._Bx._Ptr);
; 4305 :             _Al.deallocate(_Ptr, _Mypair._Myval2._Myres + 1);

  00c36	40		 inc	 eax
; File C:\Program Files (x86)\Microsoft Visual Studio\2019\Community\VC\Tools\MSVC\14.27.29110\include\xmemory

; 803  :         _Deallocate<_New_alignof<_Ty>>(_Ptr, sizeof(_Ty) * _Count);

  00c37	50		 push	 eax
  00c38	ff 75 c0	 push	 DWORD PTR $T45[ebp]
  00c3b	e8 00 00 00 00	 call	 ??$_Deallocate@$07$0A@@std@@YAXPAXI@Z ; std::_Deallocate<8,0>
  00c40	83 c4 08	 add	 esp, 8
$LN1074@LoadRaceDa:
; File C:\DS Project\DS Files\Source\ClientSource\Client\GameLib\RaceDataFile.cpp

; 116  : 				if (TextFileLoader.GetTokenString("sourceskin", &strSourceSkin) &&

  00c43	80 bd c7 fe ff
	ff 00		 cmp	 BYTE PTR $T16[ebp], 0
  00c4a	0f 84 ab 00 00
	00		 je	 $LN1108@LoadRaceDa

; 119  : 					AppendShapeSkin(dwShapeIndex, 0, (strPathName + strSourceSkin).c_str(), (strPathName + strTargetSkin).c_str());

  00c50	8d 45 90	 lea	 eax, DWORD PTR _strTargetSkin$32[ebp]
  00c53	50		 push	 eax
  00c54	8d 85 60 ff ff
	ff		 lea	 eax, DWORD PTR _strPathName$28[ebp]
  00c5a	50		 push	 eax
  00c5b	8d 45 c0	 lea	 eax, DWORD PTR $T44[ebp]
  00c5e	50		 push	 eax
  00c5f	e8 00 00 00 00	 call	 ??$?HDU?$char_traits@D@std@@V?$allocator@D@1@@std@@YA?AV?$basic_string@DU?$char_traits@D@std@@V?$allocator@D@2@@0@ABV10@0@Z ; std::operator+<char,std::char_traits<char>,std::allocator<char> >
  00c64	8b f0		 mov	 esi, eax
  00c66	8d 85 78 ff ff
	ff		 lea	 eax, DWORD PTR _strSourceSkin$30[ebp]
  00c6c	c6 45 fc 17	 mov	 BYTE PTR __$EHRec$[ebp+8], 23 ; 00000017H
  00c70	50		 push	 eax
  00c71	8d 85 60 ff ff
	ff		 lea	 eax, DWORD PTR _strPathName$28[ebp]
  00c77	50		 push	 eax
  00c78	8d 85 48 ff ff
	ff		 lea	 eax, DWORD PTR $T24[ebp]
  00c7e	50		 push	 eax
  00c7f	e8 00 00 00 00	 call	 ??$?HDU?$char_traits@D@std@@V?$allocator@D@1@@std@@YA?AV?$basic_string@DU?$char_traits@D@std@@V?$allocator@D@2@@0@ABV10@0@Z ; std::operator+<char,std::char_traits<char>,std::allocator<char> >
  00c84	83 c4 18	 add	 esp, 24			; 00000018H
; File C:\Program Files (x86)\Microsoft Visual Studio\2019\Community\VC\Tools\MSVC\14.27.29110\include\xstring

; 2145 :         if (_Large_string_engaged()) {

  00c87	83 7e 14 10	 cmp	 DWORD PTR [esi+20], 16	; 00000010H
; File C:\DS Project\DS Files\Source\ClientSource\Client\GameLib\RaceDataFile.cpp

; 119  : 					AppendShapeSkin(dwShapeIndex, 0, (strPathName + strSourceSkin).c_str(), (strPathName + strTargetSkin).c_str());

  00c8b	c6 45 fc 18	 mov	 BYTE PTR __$EHRec$[ebp+8], 24 ; 00000018H
; File C:\Program Files (x86)\Microsoft Visual Studio\2019\Community\VC\Tools\MSVC\14.27.29110\include\xstring

; 2145 :         if (_Large_string_engaged()) {

  00c8f	72 02		 jb	 SHORT $LN1083@LoadRaceDa

; 2146 :             _Result = _Unfancy(_Bx._Ptr);

  00c91	8b 36		 mov	 esi, DWORD PTR [esi]
$LN1083@LoadRaceDa:

; 2145 :         if (_Large_string_engaged()) {

  00c93	83 78 14 10	 cmp	 DWORD PTR [eax+20], 16	; 00000010H
  00c97	72 02		 jb	 SHORT $LN1090@LoadRaceDa

; 2146 :             _Result = _Unfancy(_Bx._Ptr);

  00c99	8b 00		 mov	 eax, DWORD PTR [eax]
$LN1090@LoadRaceDa:
; File C:\DS Project\DS Files\Source\ClientSource\Client\GameLib\RaceDataFile.cpp

; 119  : 					AppendShapeSkin(dwShapeIndex, 0, (strPathName + strSourceSkin).c_str(), (strPathName + strTargetSkin).c_str());

  00c9b	56		 push	 esi
  00c9c	50		 push	 eax
  00c9d	6a 00		 push	 0
  00c9f	ff b5 bc fe ff
	ff		 push	 DWORD PTR _dwShapeIndex$9[ebp]
  00ca5	8b cf		 mov	 ecx, edi
  00ca7	e8 00 00 00 00	 call	 ?AppendShapeSkin@CRaceData@@QAEXIIPBD0@Z ; CRaceData::AppendShapeSkin
; File C:\Program Files (x86)\Microsoft Visual Studio\2019\Community\VC\Tools\MSVC\14.27.29110\include\xstring

; 4301 :         if (_Mypair._Myval2._Large_string_engaged()) {

  00cac	8b 85 5c ff ff
	ff		 mov	 eax, DWORD PTR $T24[ebp+20]
  00cb2	83 f8 10	 cmp	 eax, 16			; 00000010H
  00cb5	72 10		 jb	 SHORT $LN1098@LoadRaceDa

; 4302 :             const pointer _Ptr = _Mypair._Myval2._Bx._Ptr;
; 4303 :             auto& _Al          = _Getal();
; 4304 :             _Destroy_in_place(_Mypair._Myval2._Bx._Ptr);
; 4305 :             _Al.deallocate(_Ptr, _Mypair._Myval2._Myres + 1);

  00cb7	40		 inc	 eax
; File C:\Program Files (x86)\Microsoft Visual Studio\2019\Community\VC\Tools\MSVC\14.27.29110\include\xmemory

; 803  :         _Deallocate<_New_alignof<_Ty>>(_Ptr, sizeof(_Ty) * _Count);

  00cb8	50		 push	 eax
  00cb9	ff b5 48 ff ff
	ff		 push	 DWORD PTR $T24[ebp]
  00cbf	e8 00 00 00 00	 call	 ??$_Deallocate@$07$0A@@std@@YAXPAXI@Z ; std::_Deallocate<8,0>
  00cc4	83 c4 08	 add	 esp, 8
$LN1098@LoadRaceDa:
; File C:\Program Files (x86)\Microsoft Visual Studio\2019\Community\VC\Tools\MSVC\14.27.29110\include\xstring

; 4301 :         if (_Mypair._Myval2._Large_string_engaged()) {

  00cc7	8b 45 d4	 mov	 eax, DWORD PTR $T44[ebp+20]

; 4308 :         _Mypair._Myval2._Mysize = 0;

  00cca	c7 85 58 ff ff
	ff 00 00 00 00	 mov	 DWORD PTR $T24[ebp+16], 0

; 4309 :         _Mypair._Myval2._Myres  = _BUF_SIZE - 1;

  00cd4	c7 85 5c ff ff
	ff 0f 00 00 00	 mov	 DWORD PTR $T24[ebp+20], 15 ; 0000000fH

; 4310 :         // the _Traits::assign is last so the codegen doesn't think the char write can alias this
; 4311 :         _Traits::assign(_Mypair._Myval2._Bx._Buf[0], _Elem());

  00cde	c6 85 48 ff ff
	ff 00		 mov	 BYTE PTR $T24[ebp], 0
; File C:\DS Project\DS Files\Source\ClientSource\Client\GameLib\RaceDataFile.cpp

; 119  : 					AppendShapeSkin(dwShapeIndex, 0, (strPathName + strSourceSkin).c_str(), (strPathName + strTargetSkin).c_str());

  00ce5	c6 45 fc 12	 mov	 BYTE PTR __$EHRec$[ebp+8], 18 ; 00000012H
; File C:\Program Files (x86)\Microsoft Visual Studio\2019\Community\VC\Tools\MSVC\14.27.29110\include\xstring

; 4301 :         if (_Mypair._Myval2._Large_string_engaged()) {

  00ce9	83 f8 10	 cmp	 eax, 16			; 00000010H
  00cec	72 0d		 jb	 SHORT $LN1108@LoadRaceDa

; 4302 :             const pointer _Ptr = _Mypair._Myval2._Bx._Ptr;
; 4303 :             auto& _Al          = _Getal();
; 4304 :             _Destroy_in_place(_Mypair._Myval2._Bx._Ptr);
; 4305 :             _Al.deallocate(_Ptr, _Mypair._Myval2._Myres + 1);

  00cee	40		 inc	 eax
; File C:\Program Files (x86)\Microsoft Visual Studio\2019\Community\VC\Tools\MSVC\14.27.29110\include\xmemory

; 803  :         _Deallocate<_New_alignof<_Ty>>(_Ptr, sizeof(_Ty) * _Count);

  00cef	50		 push	 eax
  00cf0	ff 75 c0	 push	 DWORD PTR $T44[ebp]
  00cf3	e8 00 00 00 00	 call	 ??$_Deallocate@$07$0A@@std@@YAXPAXI@Z ; std::_Deallocate<8,0>
  00cf8	83 c4 08	 add	 esp, 8
$LN1108@LoadRaceDa:
; File C:\DS Project\DS Files\Source\ClientSource\Client\GameLib\RaceDataFile.cpp

; 122  : 				for (DWORD i=2; i<=9; i++)

  00cfb	bf 02 00 00 00	 mov	 edi, 2
$LL10@LoadRaceDa:

; 123  : 				{
; 124  : 					_snprintf(__szSkin1, sizeof(__szSkin1), "sourceskin%u", i);

  00d00	57		 push	 edi
  00d01	68 00 00 00 00	 push	 OFFSET ??_C@_0N@LBPJELHP@sourceskin?$CFu@
  00d06	6a 0c		 push	 12			; 0000000cH
  00d08	68 00 00 00 00	 push	 OFFSET ?__szSkin1@?BN@??LoadRaceData@CRaceData@@QAEHPBD@Z@4PADA
  00d0d	e8 00 00 00 00	 call	 __snprintf

; 125  : 					_snprintf(__szSkin2, sizeof(__szSkin2), "targetskin%u", i);

  00d12	57		 push	 edi
  00d13	68 00 00 00 00	 push	 OFFSET ??_C@_0N@OAMIJCJ@targetskin?$CFu@
  00d18	6a 0c		 push	 12			; 0000000cH
  00d1a	68 00 00 00 00	 push	 OFFSET ?__szSkin2@?BN@??LoadRaceData@CRaceData@@QAEHPBD@Z@4PADA
  00d1f	e8 00 00 00 00	 call	 __snprintf
; File C:\Program Files (x86)\Microsoft Visual Studio\2019\Community\VC\Tools\MSVC\14.27.29110\include\xstring

; 321  :         return _CSTD strlen(reinterpret_cast<const char*>(_First));

  00d24	b9 00 00 00 00	 mov	 ecx, OFFSET ?__szSkin1@?BN@??LoadRaceData@CRaceData@@QAEHPBD@Z@4PADA

; 4293 :         _Mypair._Myval2._Mysize = 0;

  00d29	c7 45 d0 00 00
	00 00		 mov	 DWORD PTR $T43[ebp+16], 0
; File C:\DS Project\DS Files\Source\ClientSource\Client\GameLib\RaceDataFile.cpp

; 125  : 					_snprintf(__szSkin2, sizeof(__szSkin2), "targetskin%u", i);

  00d30	83 c4 20	 add	 esp, 32			; 00000020H
; File C:\Program Files (x86)\Microsoft Visual Studio\2019\Community\VC\Tools\MSVC\14.27.29110\include\xstring

; 4294 :         _Mypair._Myval2._Myres  = _BUF_SIZE - 1;

  00d33	c7 45 d4 0f 00
	00 00		 mov	 DWORD PTR $T43[ebp+20], 15 ; 0000000fH

; 4295 :         // the _Traits::assign is last so the codegen doesn't think the char write can alias this
; 4296 :         _Traits::assign(_Mypair._Myval2._Bx._Buf[0], _Elem());

  00d3a	c6 45 c0 00	 mov	 BYTE PTR $T43[ebp], 0

; 321  :         return _CSTD strlen(reinterpret_cast<const char*>(_First));

  00d3e	8d 51 01	 lea	 edx, DWORD PTR [ecx+1]
$LL1577@LoadRaceDa:
  00d41	8a 01		 mov	 al, BYTE PTR [ecx]
  00d43	41		 inc	 ecx
  00d44	84 c0		 test	 al, al
  00d46	75 f9		 jne	 SHORT $LL1577@LoadRaceDa
  00d48	2b ca		 sub	 ecx, edx

; 2984 :         return assign(_Ptr, _Convert_size<size_type>(_Traits::length(_Ptr)));

  00d4a	51		 push	 ecx
  00d4b	68 00 00 00 00	 push	 OFFSET ?__szSkin1@?BN@??LoadRaceData@CRaceData@@QAEHPBD@Z@4PADA
  00d50	8d 4d c0	 lea	 ecx, DWORD PTR $T43[ebp]
  00d53	e8 00 00 00 00	 call	 ?assign@?$basic_string@DU?$char_traits@D@std@@V?$allocator@D@2@@std@@QAEAAV12@QBDI@Z ; std::basic_string<char,std::char_traits<char>,std::allocator<char> >::assign
; File C:\DS Project\DS Files\Source\ClientSource\Client\GameLib\RaceDataFile.cpp

; 126  : 					if (TextFileLoader.GetTokenString(__szSkin1, &strSourceSkin) &&

  00d58	8b 85 c0 fe ff
	ff		 mov	 eax, DWORD PTR $T10[ebp]
  00d5e	8d 8d c8 fe ff
	ff		 lea	 ecx, DWORD PTR _TextFileLoader$[ebp]
  00d64	83 c8 40	 or	 eax, 64			; 00000040H
  00d67	c6 45 fc 19	 mov	 BYTE PTR __$EHRec$[ebp+8], 25 ; 00000019H
  00d6b	89 85 c0 fe ff
	ff		 mov	 DWORD PTR $T10[ebp], eax
  00d71	89 85 b8 fe ff
	ff		 mov	 DWORD PTR $T7[ebp], eax
  00d77	8d 85 78 ff ff
	ff		 lea	 eax, DWORD PTR _strSourceSkin$30[ebp]
  00d7d	50		 push	 eax
  00d7e	8d 45 c0	 lea	 eax, DWORD PTR $T43[ebp]
  00d81	50		 push	 eax
  00d82	e8 00 00 00 00	 call	 ?GetTokenString@CTextFileLoader@@QAEHABV?$basic_string@DU?$char_traits@D@std@@V?$allocator@D@2@@std@@PAV23@@Z ; CTextFileLoader::GetTokenString
  00d87	85 c0		 test	 eax, eax
  00d89	74 6d		 je	 SHORT $LN45@LoadRaceDa
; File C:\Program Files (x86)\Microsoft Visual Studio\2019\Community\VC\Tools\MSVC\14.27.29110\include\xstring

; 321  :         return _CSTD strlen(reinterpret_cast<const char*>(_First));

  00d8b	b9 00 00 00 00	 mov	 ecx, OFFSET ?__szSkin2@?BN@??LoadRaceData@CRaceData@@QAEHPBD@Z@4PADA

; 4293 :         _Mypair._Myval2._Mysize = 0;

  00d90	c7 45 e8 00 00
	00 00		 mov	 DWORD PTR $T50[ebp+16], 0

; 4294 :         _Mypair._Myval2._Myres  = _BUF_SIZE - 1;

  00d97	c7 45 ec 0f 00
	00 00		 mov	 DWORD PTR $T50[ebp+20], 15 ; 0000000fH

; 4295 :         // the _Traits::assign is last so the codegen doesn't think the char write can alias this
; 4296 :         _Traits::assign(_Mypair._Myval2._Bx._Buf[0], _Elem());

  00d9e	c6 45 d8 00	 mov	 BYTE PTR $T50[ebp], 0

; 321  :         return _CSTD strlen(reinterpret_cast<const char*>(_First));

  00da2	8d 51 01	 lea	 edx, DWORD PTR [ecx+1]
$LL1578@LoadRaceDa:
  00da5	8a 01		 mov	 al, BYTE PTR [ecx]
  00da7	41		 inc	 ecx
  00da8	84 c0		 test	 al, al
  00daa	75 f9		 jne	 SHORT $LL1578@LoadRaceDa
  00dac	2b ca		 sub	 ecx, edx

; 2984 :         return assign(_Ptr, _Convert_size<size_type>(_Traits::length(_Ptr)));

  00dae	51		 push	 ecx
  00daf	68 00 00 00 00	 push	 OFFSET ?__szSkin2@?BN@??LoadRaceData@CRaceData@@QAEHPBD@Z@4PADA
  00db4	8d 4d d8	 lea	 ecx, DWORD PTR $T50[ebp]
  00db7	e8 00 00 00 00	 call	 ?assign@?$basic_string@DU?$char_traits@D@std@@V?$allocator@D@2@@std@@QAEAAV12@QBDI@Z ; std::basic_string<char,std::char_traits<char>,std::allocator<char> >::assign
; File C:\DS Project\DS Files\Source\ClientSource\Client\GameLib\RaceDataFile.cpp

; 126  : 					if (TextFileLoader.GetTokenString(__szSkin1, &strSourceSkin) &&

  00dbc	8b 85 c0 fe ff
	ff		 mov	 eax, DWORD PTR $T10[ebp]
  00dc2	8d 8d c8 fe ff
	ff		 lea	 ecx, DWORD PTR _TextFileLoader$[ebp]
  00dc8	0d 80 00 00 00	 or	 eax, 128		; 00000080H
  00dcd	c7 45 fc 1a 00
	00 00		 mov	 DWORD PTR __$EHRec$[ebp+8], 26 ; 0000001aH
  00dd4	89 85 c0 fe ff
	ff		 mov	 DWORD PTR $T10[ebp], eax
  00dda	89 85 b8 fe ff
	ff		 mov	 DWORD PTR $T7[ebp], eax
  00de0	8d 45 90	 lea	 eax, DWORD PTR _strTargetSkin$32[ebp]
  00de3	50		 push	 eax
  00de4	8d 45 d8	 lea	 eax, DWORD PTR $T50[ebp]
  00de7	50		 push	 eax
  00de8	e8 00 00 00 00	 call	 ?GetTokenString@CTextFileLoader@@QAEHABV?$basic_string@DU?$char_traits@D@std@@V?$allocator@D@2@@std@@PAV23@@Z ; CTextFileLoader::GetTokenString
  00ded	c6 85 c7 fe ff
	ff 01		 mov	 BYTE PTR $T15[ebp], 1
  00df4	85 c0		 test	 eax, eax
  00df6	75 07		 jne	 SHORT $LN46@LoadRaceDa
$LN45@LoadRaceDa:
  00df8	c6 85 c7 fe ff
	ff 00		 mov	 BYTE PTR $T15[ebp], 0
$LN46@LoadRaceDa:
  00dff	8b 85 c0 fe ff
	ff		 mov	 eax, DWORD PTR $T10[ebp]
  00e05	84 c0		 test	 al, al
  00e07	79 3a		 jns	 SHORT $LN1143@LoadRaceDa
; File C:\Program Files (x86)\Microsoft Visual Studio\2019\Community\VC\Tools\MSVC\14.27.29110\include\xstring

; 4301 :         if (_Mypair._Myval2._Large_string_engaged()) {

  00e09	8b 4d ec	 mov	 ecx, DWORD PTR $T50[ebp+20]
; File C:\DS Project\DS Files\Source\ClientSource\Client\GameLib\RaceDataFile.cpp

; 126  : 					if (TextFileLoader.GetTokenString(__szSkin1, &strSourceSkin) &&

  00e0c	25 7f ff ff ff	 and	 eax, -129		; ffffff7fH
  00e11	89 85 c0 fe ff
	ff		 mov	 DWORD PTR $T10[ebp], eax
; File C:\Program Files (x86)\Microsoft Visual Studio\2019\Community\VC\Tools\MSVC\14.27.29110\include\xstring

; 4301 :         if (_Mypair._Myval2._Large_string_engaged()) {

  00e17	83 f9 10	 cmp	 ecx, 16			; 00000010H
  00e1a	72 15		 jb	 SHORT $LN1142@LoadRaceDa

; 4302 :             const pointer _Ptr = _Mypair._Myval2._Bx._Ptr;
; 4303 :             auto& _Al          = _Getal();
; 4304 :             _Destroy_in_place(_Mypair._Myval2._Bx._Ptr);
; 4305 :             _Al.deallocate(_Ptr, _Mypair._Myval2._Myres + 1);

  00e1c	8d 41 01	 lea	 eax, DWORD PTR [ecx+1]
; File C:\Program Files (x86)\Microsoft Visual Studio\2019\Community\VC\Tools\MSVC\14.27.29110\include\xmemory

; 803  :         _Deallocate<_New_alignof<_Ty>>(_Ptr, sizeof(_Ty) * _Count);

  00e1f	50		 push	 eax
  00e20	ff 75 d8	 push	 DWORD PTR $T50[ebp]
  00e23	e8 00 00 00 00	 call	 ??$_Deallocate@$07$0A@@std@@YAXPAXI@Z ; std::_Deallocate<8,0>
  00e28	8b 85 c0 fe ff
	ff		 mov	 eax, DWORD PTR $T10[ebp]
  00e2e	83 c4 08	 add	 esp, 8
$LN1142@LoadRaceDa:
; File C:\Program Files (x86)\Microsoft Visual Studio\2019\Community\VC\Tools\MSVC\14.27.29110\include\xstring

; 4308 :         _Mypair._Myval2._Mysize = 0;

  00e31	c7 45 e8 00 00
	00 00		 mov	 DWORD PTR $T50[ebp+16], 0

; 4309 :         _Mypair._Myval2._Myres  = _BUF_SIZE - 1;

  00e38	c7 45 ec 0f 00
	00 00		 mov	 DWORD PTR $T50[ebp+20], 15 ; 0000000fH

; 4310 :         // the _Traits::assign is last so the codegen doesn't think the char write can alias this
; 4311 :         _Traits::assign(_Mypair._Myval2._Bx._Buf[0], _Elem());

  00e3f	c6 45 d8 00	 mov	 BYTE PTR $T50[ebp], 0
$LN1143@LoadRaceDa:
; File C:\DS Project\DS Files\Source\ClientSource\Client\GameLib\RaceDataFile.cpp

; 126  : 					if (TextFileLoader.GetTokenString(__szSkin1, &strSourceSkin) &&

  00e43	c7 45 fc 12 00
	00 00		 mov	 DWORD PTR __$EHRec$[ebp+8], 18 ; 00000012H
  00e4a	a8 40		 test	 al, 64			; 00000040H
  00e4c	74 1e		 je	 SHORT $LN1152@LoadRaceDa
  00e4e	83 e0 bf	 and	 eax, -65		; ffffffbfH
  00e51	89 85 c0 fe ff
	ff		 mov	 DWORD PTR $T10[ebp], eax
; File C:\Program Files (x86)\Microsoft Visual Studio\2019\Community\VC\Tools\MSVC\14.27.29110\include\xstring

; 4301 :         if (_Mypair._Myval2._Large_string_engaged()) {

  00e57	8b 45 d4	 mov	 eax, DWORD PTR $T43[ebp+20]
  00e5a	83 f8 10	 cmp	 eax, 16			; 00000010H
  00e5d	72 0d		 jb	 SHORT $LN1152@LoadRaceDa

; 4302 :             const pointer _Ptr = _Mypair._Myval2._Bx._Ptr;
; 4303 :             auto& _Al          = _Getal();
; 4304 :             _Destroy_in_place(_Mypair._Myval2._Bx._Ptr);
; 4305 :             _Al.deallocate(_Ptr, _Mypair._Myval2._Myres + 1);

  00e5f	40		 inc	 eax
; File C:\Program Files (x86)\Microsoft Visual Studio\2019\Community\VC\Tools\MSVC\14.27.29110\include\xmemory

; 803  :         _Deallocate<_New_alignof<_Ty>>(_Ptr, sizeof(_Ty) * _Count);

  00e60	50		 push	 eax
  00e61	ff 75 c0	 push	 DWORD PTR $T43[ebp]
  00e64	e8 00 00 00 00	 call	 ??$_Deallocate@$07$0A@@std@@YAXPAXI@Z ; std::_Deallocate<8,0>
  00e69	83 c4 08	 add	 esp, 8
$LN1152@LoadRaceDa:
; File C:\DS Project\DS Files\Source\ClientSource\Client\GameLib\RaceDataFile.cpp

; 126  : 					if (TextFileLoader.GetTokenString(__szSkin1, &strSourceSkin) &&

  00e6c	80 bd c7 fe ff
	ff 00		 cmp	 BYTE PTR $T15[ebp], 0
  00e73	0f 84 af 00 00
	00		 je	 $LN8@LoadRaceDa

; 129  : 						AppendShapeSkin(dwShapeIndex, 0, (strPathName + strSourceSkin).c_str(), (strPathName + strTargetSkin).c_str());

  00e79	8d 45 90	 lea	 eax, DWORD PTR _strTargetSkin$32[ebp]
  00e7c	50		 push	 eax
  00e7d	8d 85 60 ff ff
	ff		 lea	 eax, DWORD PTR _strPathName$28[ebp]
  00e83	50		 push	 eax
  00e84	8d 45 c0	 lea	 eax, DWORD PTR $T42[ebp]
  00e87	50		 push	 eax
  00e88	e8 00 00 00 00	 call	 ??$?HDU?$char_traits@D@std@@V?$allocator@D@1@@std@@YA?AV?$basic_string@DU?$char_traits@D@std@@V?$allocator@D@2@@0@ABV10@0@Z ; std::operator+<char,std::char_traits<char>,std::allocator<char> >
  00e8d	8b f0		 mov	 esi, eax
  00e8f	8d 85 78 ff ff
	ff		 lea	 eax, DWORD PTR _strSourceSkin$30[ebp]
  00e95	c6 45 fc 1b	 mov	 BYTE PTR __$EHRec$[ebp+8], 27 ; 0000001bH
  00e99	50		 push	 eax
  00e9a	8d 85 60 ff ff
	ff		 lea	 eax, DWORD PTR _strPathName$28[ebp]
  00ea0	50		 push	 eax
  00ea1	8d 85 48 ff ff
	ff		 lea	 eax, DWORD PTR $T23[ebp]
  00ea7	50		 push	 eax
  00ea8	e8 00 00 00 00	 call	 ??$?HDU?$char_traits@D@std@@V?$allocator@D@1@@std@@YA?AV?$basic_string@DU?$char_traits@D@std@@V?$allocator@D@2@@0@ABV10@0@Z ; std::operator+<char,std::char_traits<char>,std::allocator<char> >
  00ead	83 c4 18	 add	 esp, 24			; 00000018H
; File C:\Program Files (x86)\Microsoft Visual Studio\2019\Community\VC\Tools\MSVC\14.27.29110\include\xstring

; 2145 :         if (_Large_string_engaged()) {

  00eb0	83 7e 14 10	 cmp	 DWORD PTR [esi+20], 16	; 00000010H
; File C:\DS Project\DS Files\Source\ClientSource\Client\GameLib\RaceDataFile.cpp

; 129  : 						AppendShapeSkin(dwShapeIndex, 0, (strPathName + strSourceSkin).c_str(), (strPathName + strTargetSkin).c_str());

  00eb4	c6 45 fc 1c	 mov	 BYTE PTR __$EHRec$[ebp+8], 28 ; 0000001cH
; File C:\Program Files (x86)\Microsoft Visual Studio\2019\Community\VC\Tools\MSVC\14.27.29110\include\xstring

; 2145 :         if (_Large_string_engaged()) {

  00eb8	72 02		 jb	 SHORT $LN1161@LoadRaceDa

; 2146 :             _Result = _Unfancy(_Bx._Ptr);

  00eba	8b 36		 mov	 esi, DWORD PTR [esi]
$LN1161@LoadRaceDa:

; 2145 :         if (_Large_string_engaged()) {

  00ebc	83 78 14 10	 cmp	 DWORD PTR [eax+20], 16	; 00000010H
  00ec0	72 02		 jb	 SHORT $LN1168@LoadRaceDa

; 2146 :             _Result = _Unfancy(_Bx._Ptr);

  00ec2	8b 00		 mov	 eax, DWORD PTR [eax]
$LN1168@LoadRaceDa:
; File C:\DS Project\DS Files\Source\ClientSource\Client\GameLib\RaceDataFile.cpp

; 129  : 						AppendShapeSkin(dwShapeIndex, 0, (strPathName + strSourceSkin).c_str(), (strPathName + strTargetSkin).c_str());

  00ec4	8b 8d ac fe ff
	ff		 mov	 ecx, DWORD PTR _this$GSCopy$1$[ebp]
  00eca	56		 push	 esi
  00ecb	50		 push	 eax
  00ecc	6a 00		 push	 0
  00ece	ff b5 bc fe ff
	ff		 push	 DWORD PTR _dwShapeIndex$9[ebp]
  00ed4	e8 00 00 00 00	 call	 ?AppendShapeSkin@CRaceData@@QAEXIIPBD0@Z ; CRaceData::AppendShapeSkin
; File C:\Program Files (x86)\Microsoft Visual Studio\2019\Community\VC\Tools\MSVC\14.27.29110\include\xstring

; 4301 :         if (_Mypair._Myval2._Large_string_engaged()) {

  00ed9	8b 85 5c ff ff
	ff		 mov	 eax, DWORD PTR $T23[ebp+20]
  00edf	83 f8 10	 cmp	 eax, 16			; 00000010H
  00ee2	72 10		 jb	 SHORT $LN1176@LoadRaceDa

; 4302 :             const pointer _Ptr = _Mypair._Myval2._Bx._Ptr;
; 4303 :             auto& _Al          = _Getal();
; 4304 :             _Destroy_in_place(_Mypair._Myval2._Bx._Ptr);
; 4305 :             _Al.deallocate(_Ptr, _Mypair._Myval2._Myres + 1);

  00ee4	40		 inc	 eax
; File C:\Program Files (x86)\Microsoft Visual Studio\2019\Community\VC\Tools\MSVC\14.27.29110\include\xmemory

; 803  :         _Deallocate<_New_alignof<_Ty>>(_Ptr, sizeof(_Ty) * _Count);

  00ee5	50		 push	 eax
  00ee6	ff b5 48 ff ff
	ff		 push	 DWORD PTR $T23[ebp]
  00eec	e8 00 00 00 00	 call	 ??$_Deallocate@$07$0A@@std@@YAXPAXI@Z ; std::_Deallocate<8,0>
  00ef1	83 c4 08	 add	 esp, 8
$LN1176@LoadRaceDa:
; File C:\Program Files (x86)\Microsoft Visual Studio\2019\Community\VC\Tools\MSVC\14.27.29110\include\xstring

; 4301 :         if (_Mypair._Myval2._Large_string_engaged()) {

  00ef4	8b 45 d4	 mov	 eax, DWORD PTR $T42[ebp+20]

; 4308 :         _Mypair._Myval2._Mysize = 0;

  00ef7	c7 85 58 ff ff
	ff 00 00 00 00	 mov	 DWORD PTR $T23[ebp+16], 0

; 4309 :         _Mypair._Myval2._Myres  = _BUF_SIZE - 1;

  00f01	c7 85 5c ff ff
	ff 0f 00 00 00	 mov	 DWORD PTR $T23[ebp+20], 15 ; 0000000fH

; 4310 :         // the _Traits::assign is last so the codegen doesn't think the char write can alias this
; 4311 :         _Traits::assign(_Mypair._Myval2._Bx._Buf[0], _Elem());

  00f0b	c6 85 48 ff ff
	ff 00		 mov	 BYTE PTR $T23[ebp], 0
; File C:\DS Project\DS Files\Source\ClientSource\Client\GameLib\RaceDataFile.cpp

; 129  : 						AppendShapeSkin(dwShapeIndex, 0, (strPathName + strSourceSkin).c_str(), (strPathName + strTargetSkin).c_str());

  00f12	c6 45 fc 12	 mov	 BYTE PTR __$EHRec$[ebp+8], 18 ; 00000012H
; File C:\Program Files (x86)\Microsoft Visual Studio\2019\Community\VC\Tools\MSVC\14.27.29110\include\xstring

; 4301 :         if (_Mypair._Myval2._Large_string_engaged()) {

  00f16	83 f8 10	 cmp	 eax, 16			; 00000010H
  00f19	72 0d		 jb	 SHORT $LN8@LoadRaceDa

; 4302 :             const pointer _Ptr = _Mypair._Myval2._Bx._Ptr;
; 4303 :             auto& _Al          = _Getal();
; 4304 :             _Destroy_in_place(_Mypair._Myval2._Bx._Ptr);
; 4305 :             _Al.deallocate(_Ptr, _Mypair._Myval2._Myres + 1);

  00f1b	40		 inc	 eax
; File C:\Program Files (x86)\Microsoft Visual Studio\2019\Community\VC\Tools\MSVC\14.27.29110\include\xmemory

; 803  :         _Deallocate<_New_alignof<_Ty>>(_Ptr, sizeof(_Ty) * _Count);

  00f1c	50		 push	 eax
  00f1d	ff 75 c0	 push	 DWORD PTR $T42[ebp]
  00f20	e8 00 00 00 00	 call	 ??$_Deallocate@$07$0A@@std@@YAXPAXI@Z ; std::_Deallocate<8,0>
  00f25	83 c4 08	 add	 esp, 8
$LN8@LoadRaceDa:
; File C:\DS Project\DS Files\Source\ClientSource\Client\GameLib\RaceDataFile.cpp

; 122  : 				for (DWORD i=2; i<=9; i++)

  00f28	47		 inc	 edi
  00f29	83 ff 09	 cmp	 edi, 9
  00f2c	0f 86 ce fd ff
	ff		 jbe	 $LL10@LoadRaceDa

; 130  : 					}
; 131  : 				}
; 132  : #else
; 133  : 				if (TextFileLoader.GetTokenString("sourceskin2", &strSourceSkin) &&
; 134  : 					TextFileLoader.GetTokenString("targetskin2", &strTargetSkin))
; 135  : 				{
; 136  : 					AppendShapeSkin(dwShapeIndex, 0, (strPathName + strSourceSkin).c_str(), (strPathName + strTargetSkin).c_str());
; 137  : 				}
; 138  : #endif
; 139  : 				TextFileLoader.SetParentNode();

  00f32	8d 8d c8 fe ff
	ff		 lea	 ecx, DWORD PTR _TextFileLoader$[ebp]
  00f38	e8 00 00 00 00	 call	 ?SetParentNode@CTextFileLoader@@QAEHXZ ; CTextFileLoader::SetParentNode
; File C:\Program Files (x86)\Microsoft Visual Studio\2019\Community\VC\Tools\MSVC\14.27.29110\include\xstring

; 4301 :         if (_Mypair._Myval2._Large_string_engaged()) {

  00f3d	8b 45 a4	 mov	 eax, DWORD PTR _strTargetSkin$32[ebp+20]
  00f40	83 f8 10	 cmp	 eax, 16			; 00000010H
  00f43	72 0d		 jb	 SHORT $LN1196@LoadRaceDa

; 4302 :             const pointer _Ptr = _Mypair._Myval2._Bx._Ptr;
; 4303 :             auto& _Al          = _Getal();
; 4304 :             _Destroy_in_place(_Mypair._Myval2._Bx._Ptr);
; 4305 :             _Al.deallocate(_Ptr, _Mypair._Myval2._Myres + 1);

  00f45	40		 inc	 eax
; File C:\Program Files (x86)\Microsoft Visual Studio\2019\Community\VC\Tools\MSVC\14.27.29110\include\xmemory

; 803  :         _Deallocate<_New_alignof<_Ty>>(_Ptr, sizeof(_Ty) * _Count);

  00f46	50		 push	 eax
  00f47	ff 75 90	 push	 DWORD PTR _strTargetSkin$32[ebp]
  00f4a	e8 00 00 00 00	 call	 ??$_Deallocate@$07$0A@@std@@YAXPAXI@Z ; std::_Deallocate<8,0>
  00f4f	83 c4 08	 add	 esp, 8
$LN1196@LoadRaceDa:
; File C:\Program Files (x86)\Microsoft Visual Studio\2019\Community\VC\Tools\MSVC\14.27.29110\include\xstring

; 4301 :         if (_Mypair._Myval2._Large_string_engaged()) {

  00f52	8b 45 8c	 mov	 eax, DWORD PTR _strSourceSkin$30[ebp+20]

; 4308 :         _Mypair._Myval2._Mysize = 0;

  00f55	c7 45 a0 00 00
	00 00		 mov	 DWORD PTR _strTargetSkin$32[ebp+16], 0

; 4309 :         _Mypair._Myval2._Myres  = _BUF_SIZE - 1;

  00f5c	c7 45 a4 0f 00
	00 00		 mov	 DWORD PTR _strTargetSkin$32[ebp+20], 15 ; 0000000fH

; 4310 :         // the _Traits::assign is last so the codegen doesn't think the char write can alias this
; 4311 :         _Traits::assign(_Mypair._Myval2._Bx._Buf[0], _Elem());

  00f63	c6 45 90 00	 mov	 BYTE PTR _strTargetSkin$32[ebp], 0

; 4301 :         if (_Mypair._Myval2._Large_string_engaged()) {

  00f67	83 f8 10	 cmp	 eax, 16			; 00000010H
  00f6a	72 10		 jb	 SHORT $LN1206@LoadRaceDa

; 4302 :             const pointer _Ptr = _Mypair._Myval2._Bx._Ptr;
; 4303 :             auto& _Al          = _Getal();
; 4304 :             _Destroy_in_place(_Mypair._Myval2._Bx._Ptr);
; 4305 :             _Al.deallocate(_Ptr, _Mypair._Myval2._Myres + 1);

  00f6c	40		 inc	 eax
; File C:\Program Files (x86)\Microsoft Visual Studio\2019\Community\VC\Tools\MSVC\14.27.29110\include\xmemory

; 803  :         _Deallocate<_New_alignof<_Ty>>(_Ptr, sizeof(_Ty) * _Count);

  00f6d	50		 push	 eax
  00f6e	ff b5 78 ff ff
	ff		 push	 DWORD PTR _strSourceSkin$30[ebp]
  00f74	e8 00 00 00 00	 call	 ??$_Deallocate@$07$0A@@std@@YAXPAXI@Z ; std::_Deallocate<8,0>
  00f79	83 c4 08	 add	 esp, 8
$LN1206@LoadRaceDa:
; File C:\Program Files (x86)\Microsoft Visual Studio\2019\Community\VC\Tools\MSVC\14.27.29110\include\xstring

; 4308 :         _Mypair._Myval2._Mysize = 0;

  00f7c	c7 45 88 00 00
	00 00		 mov	 DWORD PTR _strSourceSkin$30[ebp+16], 0

; 4309 :         _Mypair._Myval2._Myres  = _BUF_SIZE - 1;

  00f83	c7 45 8c 0f 00
	00 00		 mov	 DWORD PTR _strSourceSkin$30[ebp+20], 15 ; 0000000fH

; 4310 :         // the _Traits::assign is last so the codegen doesn't think the char write can alias this
; 4311 :         _Traits::assign(_Mypair._Myval2._Bx._Buf[0], _Elem());

  00f8a	c6 85 78 ff ff
	ff 00		 mov	 BYTE PTR _strSourceSkin$30[ebp], 0
$LN1593@LoadRaceDa:
; File C:\DS Project\DS Files\Source\ClientSource\Client\GameLib\RaceDataFile.cpp

; 68   : 			for (DWORD i = 0; i < dwShapeDataCount; ++i)

  00f91	8b 45 bc	 mov	 eax, DWORD PTR _strModel$34[ebp+20]
  00f94	c6 45 fc 07	 mov	 BYTE PTR __$EHRec$[ebp+8], 7
  00f98	83 f8 10	 cmp	 eax, 16			; 00000010H
  00f9b	72 0d		 jb	 SHORT $LN5@LoadRaceDa
  00f9d	40		 inc	 eax
  00f9e	50		 push	 eax
  00f9f	ff 75 a8	 push	 DWORD PTR _strModel$34[ebp]
  00fa2	e8 00 00 00 00	 call	 ??$_Deallocate@$07$0A@@std@@YAXPAXI@Z ; std::_Deallocate<8,0>
  00fa7	83 c4 08	 add	 esp, 8
$LN5@LoadRaceDa:
  00faa	8b 8d b4 fe ff
	ff		 mov	 ecx, DWORD PTR _i$1$[ebp]
  00fb0	41		 inc	 ecx
  00fb1	89 8d b4 fe ff
	ff		 mov	 DWORD PTR _i$1$[ebp], ecx
  00fb7	3b 8d b0 fe ff
	ff		 cmp	 ecx, DWORD PTR _dwShapeDataCount$3[ebp]
  00fbd	0f 82 20 f7 ff
	ff		 jb	 $LL7@LoadRaceDa
$LN6@LoadRaceDa:

; 140  : 			}
; 141  : 		}
; 142  : 
; 143  : 		TextFileLoader.SetParentNode();

  00fc3	8d 8d c8 fe ff
	ff		 lea	 ecx, DWORD PTR _TextFileLoader$[ebp]
  00fc9	e8 00 00 00 00	 call	 ?SetParentNode@CTextFileLoader@@QAEHXZ ; CTextFileLoader::SetParentNode
; File C:\Program Files (x86)\Microsoft Visual Studio\2019\Community\VC\Tools\MSVC\14.27.29110\include\xstring

; 4301 :         if (_Mypair._Myval2._Large_string_engaged()) {

  00fce	8b 85 74 ff ff
	ff		 mov	 eax, DWORD PTR _strPathName$28[ebp+20]
; File C:\DS Project\DS Files\Source\ClientSource\Client\GameLib\RaceDataFile.cpp

; 144  : 	}

  00fd4	c6 45 fc 00	 mov	 BYTE PTR __$EHRec$[ebp+8], 0
; File C:\Program Files (x86)\Microsoft Visual Studio\2019\Community\VC\Tools\MSVC\14.27.29110\include\xstring

; 4301 :         if (_Mypair._Myval2._Large_string_engaged()) {

  00fd8	83 f8 10	 cmp	 eax, 16			; 00000010H
  00fdb	72 10		 jb	 SHORT $LN1588@LoadRaceDa

; 4302 :             const pointer _Ptr = _Mypair._Myval2._Bx._Ptr;
; 4303 :             auto& _Al          = _Getal();
; 4304 :             _Destroy_in_place(_Mypair._Myval2._Bx._Ptr);
; 4305 :             _Al.deallocate(_Ptr, _Mypair._Myval2._Myres + 1);

  00fdd	40		 inc	 eax
; File C:\Program Files (x86)\Microsoft Visual Studio\2019\Community\VC\Tools\MSVC\14.27.29110\include\xmemory

; 803  :         _Deallocate<_New_alignof<_Ty>>(_Ptr, sizeof(_Ty) * _Count);

  00fde	50		 push	 eax
  00fdf	ff b5 60 ff ff
	ff		 push	 DWORD PTR _strPathName$28[ebp]
  00fe5	e8 00 00 00 00	 call	 ??$_Deallocate@$07$0A@@std@@YAXPAXI@Z ; std::_Deallocate<8,0>
  00fea	83 c4 08	 add	 esp, 8
$LN1588@LoadRaceDa:
; File C:\DS Project\DS Files\Source\ClientSource\Client\GameLib\RaceDataFile.cpp

; 146  : 	if (TextFileLoader.SetChildNode("hairdata"))

  00fed	8b bd c0 fe ff
	ff		 mov	 edi, DWORD PTR $T10[ebp]
$LN1226@LoadRaceDa:
  00ff3	68 00 00 00 00	 push	 OFFSET ??_C@_08HKPOBGLF@hairdata@
  00ff8	8d 8d c8 fe ff
	ff		 lea	 ecx, DWORD PTR _TextFileLoader$[ebp]
  00ffe	e8 00 00 00 00	 call	 ?SetChildNode@CTextFileLoader@@QAEHPBD@Z ; CTextFileLoader::SetChildNode
  01003	85 c0		 test	 eax, eax
  01005	0f 84 68 06 00
	00		 je	 $LN1529@LoadRaceDa
; File C:\Program Files (x86)\Microsoft Visual Studio\2019\Community\VC\Tools\MSVC\14.27.29110\include\xstring

; 4293 :         _Mypair._Myval2._Mysize = 0;

  0100b	c7 45 a0 00 00
	00 00		 mov	 DWORD PTR _strPathName$31[ebp+16], 0

; 4294 :         _Mypair._Myval2._Myres  = _BUF_SIZE - 1;

  01012	c7 45 a4 0f 00
	00 00		 mov	 DWORD PTR _strPathName$31[ebp+20], 15 ; 0000000fH

; 4295 :         // the _Traits::assign is last so the codegen doesn't think the char write can alias this
; 4296 :         _Traits::assign(_Mypair._Myval2._Bx._Buf[0], _Elem());

  01019	c6 45 90 00	 mov	 BYTE PTR _strPathName$31[ebp], 0

; 2984 :         return assign(_Ptr, _Convert_size<size_type>(_Traits::length(_Ptr)));

  0101d	6a 08		 push	 8
  0101f	68 00 00 00 00	 push	 OFFSET ??_C@_08PEIJGPHF@pathname@
  01024	8d 4d c0	 lea	 ecx, DWORD PTR $T41[ebp]
; File C:\DS Project\DS Files\Source\ClientSource\Client\GameLib\RaceDataFile.cpp

; 148  : 		std::string strPathName;

  01027	c6 45 fc 1d	 mov	 BYTE PTR __$EHRec$[ebp+8], 29 ; 0000001dH

; 149  : 		DWORD dwHairDataCount = 0;

  0102b	c7 85 bc fe ff
	ff 00 00 00 00	 mov	 DWORD PTR _dwHairDataCount$8[ebp], 0
; File C:\Program Files (x86)\Microsoft Visual Studio\2019\Community\VC\Tools\MSVC\14.27.29110\include\xstring

; 4293 :         _Mypair._Myval2._Mysize = 0;

  01035	c7 45 d0 00 00
	00 00		 mov	 DWORD PTR $T41[ebp+16], 0

; 4294 :         _Mypair._Myval2._Myres  = _BUF_SIZE - 1;

  0103c	c7 45 d4 0f 00
	00 00		 mov	 DWORD PTR $T41[ebp+20], 15 ; 0000000fH

; 4295 :         // the _Traits::assign is last so the codegen doesn't think the char write can alias this
; 4296 :         _Traits::assign(_Mypair._Myval2._Bx._Buf[0], _Elem());

  01043	c6 45 c0 00	 mov	 BYTE PTR $T41[ebp], 0

; 2984 :         return assign(_Ptr, _Convert_size<size_type>(_Traits::length(_Ptr)));

  01047	e8 00 00 00 00	 call	 ?assign@?$basic_string@DU?$char_traits@D@std@@V?$allocator@D@2@@std@@QAEAAV12@QBDI@Z ; std::basic_string<char,std::char_traits<char>,std::allocator<char> >::assign
; File C:\DS Project\DS Files\Source\ClientSource\Client\GameLib\RaceDataFile.cpp

; 150  : 		if (TextFileLoader.GetTokenString("pathname", &strPathName) &&

  0104c	8d 45 90	 lea	 eax, DWORD PTR _strPathName$31[ebp]
  0104f	c6 45 fc 1e	 mov	 BYTE PTR __$EHRec$[ebp+8], 30 ; 0000001eH
  01053	50		 push	 eax
  01054	8d 45 c0	 lea	 eax, DWORD PTR $T41[ebp]
  01057	81 cf 00 01 00
	00		 or	 edi, 256		; 00000100H
  0105d	50		 push	 eax
  0105e	8d 8d c8 fe ff
	ff		 lea	 ecx, DWORD PTR _TextFileLoader$[ebp]
  01064	89 bd c0 fe ff
	ff		 mov	 DWORD PTR $T10[ebp], edi
  0106a	89 bd b8 fe ff
	ff		 mov	 DWORD PTR $T7[ebp], edi
  01070	e8 00 00 00 00	 call	 ?GetTokenString@CTextFileLoader@@QAEHABV?$basic_string@DU?$char_traits@D@std@@V?$allocator@D@2@@std@@PAV23@@Z ; CTextFileLoader::GetTokenString
  01075	85 c0		 test	 eax, eax
  01077	74 5b		 je	 SHORT $LN47@LoadRaceDa
; File C:\Program Files (x86)\Microsoft Visual Studio\2019\Community\VC\Tools\MSVC\14.27.29110\include\xstring

; 2984 :         return assign(_Ptr, _Convert_size<size_type>(_Traits::length(_Ptr)));

  01079	6a 0d		 push	 13			; 0000000dH
  0107b	68 00 00 00 00	 push	 OFFSET ??_C@_0O@HCGNHJP@hairdatacount@
  01080	8d 4d d8	 lea	 ecx, DWORD PTR $T49[ebp]

; 4293 :         _Mypair._Myval2._Mysize = 0;

  01083	c7 45 e8 00 00
	00 00		 mov	 DWORD PTR $T49[ebp+16], 0

; 4294 :         _Mypair._Myval2._Myres  = _BUF_SIZE - 1;

  0108a	c7 45 ec 0f 00
	00 00		 mov	 DWORD PTR $T49[ebp+20], 15 ; 0000000fH

; 4295 :         // the _Traits::assign is last so the codegen doesn't think the char write can alias this
; 4296 :         _Traits::assign(_Mypair._Myval2._Bx._Buf[0], _Elem());

  01091	c6 45 d8 00	 mov	 BYTE PTR $T49[ebp], 0

; 2984 :         return assign(_Ptr, _Convert_size<size_type>(_Traits::length(_Ptr)));

  01095	e8 00 00 00 00	 call	 ?assign@?$basic_string@DU?$char_traits@D@std@@V?$allocator@D@2@@std@@QAEAAV12@QBDI@Z ; std::basic_string<char,std::char_traits<char>,std::allocator<char> >::assign
; File C:\DS Project\DS Files\Source\ClientSource\Client\GameLib\RaceDataFile.cpp

; 150  : 		if (TextFileLoader.GetTokenString("pathname", &strPathName) &&

  0109a	8d 85 bc fe ff
	ff		 lea	 eax, DWORD PTR _dwHairDataCount$8[ebp]
  010a0	c7 45 fc 1f 00
	00 00		 mov	 DWORD PTR __$EHRec$[ebp+8], 31 ; 0000001fH
  010a7	50		 push	 eax
  010a8	8d 45 d8	 lea	 eax, DWORD PTR $T49[ebp]
  010ab	81 cf 00 02 00
	00		 or	 edi, 512		; 00000200H
  010b1	50		 push	 eax
  010b2	8d 8d c8 fe ff
	ff		 lea	 ecx, DWORD PTR _TextFileLoader$[ebp]
  010b8	89 bd c0 fe ff
	ff		 mov	 DWORD PTR $T10[ebp], edi
  010be	89 bd b8 fe ff
	ff		 mov	 DWORD PTR $T7[ebp], edi
  010c4	e8 00 00 00 00	 call	 ?GetTokenDoubleWord@CTextFileLoader@@QAEHABV?$basic_string@DU?$char_traits@D@std@@V?$allocator@D@2@@std@@PAK@Z ; CTextFileLoader::GetTokenDoubleWord
  010c9	c6 85 c7 fe ff
	ff 01		 mov	 BYTE PTR $T14[ebp], 1
  010d0	85 c0		 test	 eax, eax
  010d2	75 07		 jne	 SHORT $LN48@LoadRaceDa
$LN47@LoadRaceDa:
  010d4	c6 85 c7 fe ff
	ff 00		 mov	 BYTE PTR $T14[ebp], 0
$LN48@LoadRaceDa:
  010db	8b 85 c0 fe ff
	ff		 mov	 eax, DWORD PTR $T10[ebp]
  010e1	a9 00 02 00 00	 test	 eax, 512		; 00000200H
  010e6	74 3a		 je	 SHORT $LN1270@LoadRaceDa
; File C:\Program Files (x86)\Microsoft Visual Studio\2019\Community\VC\Tools\MSVC\14.27.29110\include\xstring

; 4301 :         if (_Mypair._Myval2._Large_string_engaged()) {

  010e8	8b 4d ec	 mov	 ecx, DWORD PTR $T49[ebp+20]
; File C:\DS Project\DS Files\Source\ClientSource\Client\GameLib\RaceDataFile.cpp

; 150  : 		if (TextFileLoader.GetTokenString("pathname", &strPathName) &&

  010eb	25 ff fd ff ff	 and	 eax, -513		; fffffdffH
  010f0	89 85 c0 fe ff
	ff		 mov	 DWORD PTR $T10[ebp], eax
; File C:\Program Files (x86)\Microsoft Visual Studio\2019\Community\VC\Tools\MSVC\14.27.29110\include\xstring

; 4301 :         if (_Mypair._Myval2._Large_string_engaged()) {

  010f6	83 f9 10	 cmp	 ecx, 16			; 00000010H
  010f9	72 15		 jb	 SHORT $LN1269@LoadRaceDa

; 4302 :             const pointer _Ptr = _Mypair._Myval2._Bx._Ptr;
; 4303 :             auto& _Al          = _Getal();
; 4304 :             _Destroy_in_place(_Mypair._Myval2._Bx._Ptr);
; 4305 :             _Al.deallocate(_Ptr, _Mypair._Myval2._Myres + 1);

  010fb	8d 41 01	 lea	 eax, DWORD PTR [ecx+1]
; File C:\Program Files (x86)\Microsoft Visual Studio\2019\Community\VC\Tools\MSVC\14.27.29110\include\xmemory

; 803  :         _Deallocate<_New_alignof<_Ty>>(_Ptr, sizeof(_Ty) * _Count);

  010fe	50		 push	 eax
  010ff	ff 75 d8	 push	 DWORD PTR $T49[ebp]
  01102	e8 00 00 00 00	 call	 ??$_Deallocate@$07$0A@@std@@YAXPAXI@Z ; std::_Deallocate<8,0>
  01107	8b 85 c0 fe ff
	ff		 mov	 eax, DWORD PTR $T10[ebp]
  0110d	83 c4 08	 add	 esp, 8
$LN1269@LoadRaceDa:
; File C:\Program Files (x86)\Microsoft Visual Studio\2019\Community\VC\Tools\MSVC\14.27.29110\include\xstring

; 4308 :         _Mypair._Myval2._Mysize = 0;

  01110	c7 45 e8 00 00
	00 00		 mov	 DWORD PTR $T49[ebp+16], 0

; 4309 :         _Mypair._Myval2._Myres  = _BUF_SIZE - 1;

  01117	c7 45 ec 0f 00
	00 00		 mov	 DWORD PTR $T49[ebp+20], 15 ; 0000000fH

; 4310 :         // the _Traits::assign is last so the codegen doesn't think the char write can alias this
; 4311 :         _Traits::assign(_Mypair._Myval2._Bx._Buf[0], _Elem());

  0111e	c6 45 d8 00	 mov	 BYTE PTR $T49[ebp], 0
$LN1270@LoadRaceDa:
; File C:\DS Project\DS Files\Source\ClientSource\Client\GameLib\RaceDataFile.cpp

; 150  : 		if (TextFileLoader.GetTokenString("pathname", &strPathName) &&

  01122	c7 45 fc 1d 00
	00 00		 mov	 DWORD PTR __$EHRec$[ebp+8], 29 ; 0000001dH
  01129	a9 00 01 00 00	 test	 eax, 256		; 00000100H
  0112e	74 20		 je	 SHORT $LN1279@LoadRaceDa
  01130	25 ff fe ff ff	 and	 eax, -257		; fffffeffH
  01135	89 85 c0 fe ff
	ff		 mov	 DWORD PTR $T10[ebp], eax
; File C:\Program Files (x86)\Microsoft Visual Studio\2019\Community\VC\Tools\MSVC\14.27.29110\include\xstring

; 4301 :         if (_Mypair._Myval2._Large_string_engaged()) {

  0113b	8b 45 d4	 mov	 eax, DWORD PTR $T41[ebp+20]
  0113e	83 f8 10	 cmp	 eax, 16			; 00000010H
  01141	72 0d		 jb	 SHORT $LN1279@LoadRaceDa

; 4302 :             const pointer _Ptr = _Mypair._Myval2._Bx._Ptr;
; 4303 :             auto& _Al          = _Getal();
; 4304 :             _Destroy_in_place(_Mypair._Myval2._Bx._Ptr);
; 4305 :             _Al.deallocate(_Ptr, _Mypair._Myval2._Myres + 1);

  01143	40		 inc	 eax
; File C:\Program Files (x86)\Microsoft Visual Studio\2019\Community\VC\Tools\MSVC\14.27.29110\include\xmemory

; 803  :         _Deallocate<_New_alignof<_Ty>>(_Ptr, sizeof(_Ty) * _Count);

  01144	50		 push	 eax
  01145	ff 75 c0	 push	 DWORD PTR $T41[ebp]
  01148	e8 00 00 00 00	 call	 ??$_Deallocate@$07$0A@@std@@YAXPAXI@Z ; std::_Deallocate<8,0>
  0114d	83 c4 08	 add	 esp, 8
$LN1279@LoadRaceDa:
; File C:\DS Project\DS Files\Source\ClientSource\Client\GameLib\RaceDataFile.cpp

; 150  : 		if (TextFileLoader.GetTokenString("pathname", &strPathName) &&

  01150	80 bd c7 fe ff
	ff 00		 cmp	 BYTE PTR $T14[ebp], 0
  01157	0f 84 f2 04 00
	00		 je	 $LN12@LoadRaceDa

; 154  : 			for (DWORD i = 0; i < dwHairDataCount; ++i)

  0115d	33 f6		 xor	 esi, esi
  0115f	89 b5 b0 fe ff
	ff		 mov	 DWORD PTR _i$1$[ebp], esi
  01165	39 b5 bc fe ff
	ff		 cmp	 DWORD PTR _dwHairDataCount$8[ebp], esi
  0116b	0f 86 de 04 00
	00		 jbe	 $LN12@LoadRaceDa
$LL13@LoadRaceDa:
; File C:\Program Files (x86)\Microsoft Visual Studio\2019\Community\VC\Tools\MSVC\14.27.29110\include\xstring

; 2984 :         return assign(_Ptr, _Convert_size<size_type>(_Traits::length(_Ptr)));

  01171	6a 08		 push	 8
  01173	68 00 00 00 00	 push	 OFFSET ??_C@_08HKPOBGLF@hairdata@
  01178	8d 4d c0	 lea	 ecx, DWORD PTR $T40[ebp]

; 4293 :         _Mypair._Myval2._Mysize = 0;

  0117b	c7 45 d0 00 00
	00 00		 mov	 DWORD PTR $T40[ebp+16], 0

; 4294 :         _Mypair._Myval2._Myres  = _BUF_SIZE - 1;

  01182	c7 45 d4 0f 00
	00 00		 mov	 DWORD PTR $T40[ebp+20], 15 ; 0000000fH

; 4295 :         // the _Traits::assign is last so the codegen doesn't think the char write can alias this
; 4296 :         _Traits::assign(_Mypair._Myval2._Bx._Buf[0], _Elem());

  01189	c6 45 c0 00	 mov	 BYTE PTR $T40[ebp], 0

; 2984 :         return assign(_Ptr, _Convert_size<size_type>(_Traits::length(_Ptr)));

  0118d	e8 00 00 00 00	 call	 ?assign@?$basic_string@DU?$char_traits@D@std@@V?$allocator@D@2@@std@@QAEAAV12@QBDI@Z ; std::basic_string<char,std::char_traits<char>,std::allocator<char> >::assign
; File C:\DS Project\DS Files\Source\ClientSource\Client\GameLib\RaceDataFile.cpp

; 156  : 				if (!TextFileLoader.SetChildNode("hairdata", i))

  01192	56		 push	 esi
  01193	8d 45 c0	 lea	 eax, DWORD PTR $T40[ebp]
  01196	c6 45 fc 20	 mov	 BYTE PTR __$EHRec$[ebp+8], 32 ; 00000020H
  0119a	50		 push	 eax
  0119b	8d 8d c8 fe ff
	ff		 lea	 ecx, DWORD PTR _TextFileLoader$[ebp]
  011a1	e8 00 00 00 00	 call	 ?SetChildNode@CTextFileLoader@@QAEHABV?$basic_string@DU?$char_traits@D@std@@V?$allocator@D@2@@std@@K@Z ; CTextFileLoader::SetChildNode
  011a6	85 c0		 test	 eax, eax
  011a8	c6 45 fc 1d	 mov	 BYTE PTR __$EHRec$[ebp+8], 29 ; 0000001dH
; File C:\Program Files (x86)\Microsoft Visual Studio\2019\Community\VC\Tools\MSVC\14.27.29110\include\xstring

; 4301 :         if (_Mypair._Myval2._Large_string_engaged()) {

  011ac	8b 45 d4	 mov	 eax, DWORD PTR $T40[ebp+20]
; File C:\DS Project\DS Files\Source\ClientSource\Client\GameLib\RaceDataFile.cpp

; 156  : 				if (!TextFileLoader.SetChildNode("hairdata", i))

  011af	0f 94 85 c7 fe
	ff ff		 sete	 BYTE PTR $T13[ebp]
; File C:\Program Files (x86)\Microsoft Visual Studio\2019\Community\VC\Tools\MSVC\14.27.29110\include\xstring

; 4301 :         if (_Mypair._Myval2._Large_string_engaged()) {

  011b6	83 f8 10	 cmp	 eax, 16			; 00000010H
  011b9	72 0d		 jb	 SHORT $LN1301@LoadRaceDa

; 4302 :             const pointer _Ptr = _Mypair._Myval2._Bx._Ptr;
; 4303 :             auto& _Al          = _Getal();
; 4304 :             _Destroy_in_place(_Mypair._Myval2._Bx._Ptr);
; 4305 :             _Al.deallocate(_Ptr, _Mypair._Myval2._Myres + 1);

  011bb	40		 inc	 eax
; File C:\Program Files (x86)\Microsoft Visual Studio\2019\Community\VC\Tools\MSVC\14.27.29110\include\xmemory

; 803  :         _Deallocate<_New_alignof<_Ty>>(_Ptr, sizeof(_Ty) * _Count);

  011bc	50		 push	 eax
  011bd	ff 75 c0	 push	 DWORD PTR $T40[ebp]
  011c0	e8 00 00 00 00	 call	 ??$_Deallocate@$07$0A@@std@@YAXPAXI@Z ; std::_Deallocate<8,0>
  011c5	83 c4 08	 add	 esp, 8
$LN1301@LoadRaceDa:
; File C:\DS Project\DS Files\Source\ClientSource\Client\GameLib\RaceDataFile.cpp

; 156  : 				if (!TextFileLoader.SetChildNode("hairdata", i))

  011c8	80 bd c7 fe ff
	ff 00		 cmp	 BYTE PTR $T13[ebp], 0
  011cf	0f 85 67 04 00
	00		 jne	 $LN11@LoadRaceDa
; File C:\Program Files (x86)\Microsoft Visual Studio\2019\Community\VC\Tools\MSVC\14.27.29110\include\xstring

; 2984 :         return assign(_Ptr, _Convert_size<size_type>(_Traits::length(_Ptr)));

  011d5	6a 0b		 push	 11			; 0000000bH
  011d7	68 00 00 00 00	 push	 OFFSET ??_C@_0M@GCDLCIFI@specialpath@
  011dc	8d 4d c0	 lea	 ecx, DWORD PTR $T39[ebp]

; 4293 :         _Mypair._Myval2._Mysize = 0;

  011df	c7 45 d0 00 00
	00 00		 mov	 DWORD PTR $T39[ebp+16], 0

; 4294 :         _Mypair._Myval2._Myres  = _BUF_SIZE - 1;

  011e6	c7 45 d4 0f 00
	00 00		 mov	 DWORD PTR $T39[ebp+20], 15 ; 0000000fH

; 4295 :         // the _Traits::assign is last so the codegen doesn't think the char write can alias this
; 4296 :         _Traits::assign(_Mypair._Myval2._Bx._Buf[0], _Elem());

  011ed	c6 45 c0 00	 mov	 BYTE PTR $T39[ebp], 0

; 2984 :         return assign(_Ptr, _Convert_size<size_type>(_Traits::length(_Ptr)));

  011f1	e8 00 00 00 00	 call	 ?assign@?$basic_string@DU?$char_traits@D@std@@V?$allocator@D@2@@std@@QAEAAV12@QBDI@Z ; std::basic_string<char,std::char_traits<char>,std::allocator<char> >::assign
; File C:\DS Project\DS Files\Source\ClientSource\Client\GameLib\RaceDataFile.cpp

; 162  : 				TextFileLoader.GetTokenString("specialpath", &strPathName);

  011f6	8d 45 90	 lea	 eax, DWORD PTR _strPathName$31[ebp]
  011f9	c6 45 fc 21	 mov	 BYTE PTR __$EHRec$[ebp+8], 33 ; 00000021H
  011fd	50		 push	 eax
  011fe	8d 45 c0	 lea	 eax, DWORD PTR $T39[ebp]
  01201	50		 push	 eax
  01202	8d 8d c8 fe ff
	ff		 lea	 ecx, DWORD PTR _TextFileLoader$[ebp]
  01208	e8 00 00 00 00	 call	 ?GetTokenString@CTextFileLoader@@QAEHABV?$basic_string@DU?$char_traits@D@std@@V?$allocator@D@2@@std@@PAV23@@Z ; CTextFileLoader::GetTokenString
; File C:\Program Files (x86)\Microsoft Visual Studio\2019\Community\VC\Tools\MSVC\14.27.29110\include\xstring

; 4301 :         if (_Mypair._Myval2._Large_string_engaged()) {

  0120d	8b 45 d4	 mov	 eax, DWORD PTR $T39[ebp+20]
; File C:\DS Project\DS Files\Source\ClientSource\Client\GameLib\RaceDataFile.cpp

; 162  : 				TextFileLoader.GetTokenString("specialpath", &strPathName);

  01210	c6 45 fc 1d	 mov	 BYTE PTR __$EHRec$[ebp+8], 29 ; 0000001dH
; File C:\Program Files (x86)\Microsoft Visual Studio\2019\Community\VC\Tools\MSVC\14.27.29110\include\xstring

; 4301 :         if (_Mypair._Myval2._Large_string_engaged()) {

  01214	83 f8 10	 cmp	 eax, 16			; 00000010H
  01217	72 0d		 jb	 SHORT $LN1323@LoadRaceDa

; 4302 :             const pointer _Ptr = _Mypair._Myval2._Bx._Ptr;
; 4303 :             auto& _Al          = _Getal();
; 4304 :             _Destroy_in_place(_Mypair._Myval2._Bx._Ptr);
; 4305 :             _Al.deallocate(_Ptr, _Mypair._Myval2._Myres + 1);

  01219	40		 inc	 eax
; File C:\Program Files (x86)\Microsoft Visual Studio\2019\Community\VC\Tools\MSVC\14.27.29110\include\xmemory

; 803  :         _Deallocate<_New_alignof<_Ty>>(_Ptr, sizeof(_Ty) * _Count);

  0121a	50		 push	 eax
  0121b	ff 75 c0	 push	 DWORD PTR $T39[ebp]
  0121e	e8 00 00 00 00	 call	 ??$_Deallocate@$07$0A@@std@@YAXPAXI@Z ; std::_Deallocate<8,0>
  01223	83 c4 08	 add	 esp, 8
$LN1323@LoadRaceDa:
; File C:\Program Files (x86)\Microsoft Visual Studio\2019\Community\VC\Tools\MSVC\14.27.29110\include\xstring

; 2984 :         return assign(_Ptr, _Convert_size<size_type>(_Traits::length(_Ptr)));

  01226	6a 09		 push	 9
  01228	68 00 00 00 00	 push	 OFFSET ??_C@_09DFEJDBKH@hairindex@
  0122d	8d 4d c0	 lea	 ecx, DWORD PTR $T38[ebp]

; 4293 :         _Mypair._Myval2._Mysize = 0;

  01230	c7 45 d0 00 00
	00 00		 mov	 DWORD PTR $T38[ebp+16], 0

; 4294 :         _Mypair._Myval2._Myres  = _BUF_SIZE - 1;

  01237	c7 45 d4 0f 00
	00 00		 mov	 DWORD PTR $T38[ebp+20], 15 ; 0000000fH

; 4295 :         // the _Traits::assign is last so the codegen doesn't think the char write can alias this
; 4296 :         _Traits::assign(_Mypair._Myval2._Bx._Buf[0], _Elem());

  0123e	c6 45 c0 00	 mov	 BYTE PTR $T38[ebp], 0

; 2984 :         return assign(_Ptr, _Convert_size<size_type>(_Traits::length(_Ptr)));

  01242	e8 00 00 00 00	 call	 ?assign@?$basic_string@DU?$char_traits@D@std@@V?$allocator@D@2@@std@@QAEAAV12@QBDI@Z ; std::basic_string<char,std::char_traits<char>,std::allocator<char> >::assign
; File C:\DS Project\DS Files\Source\ClientSource\Client\GameLib\RaceDataFile.cpp

; 166  : 				if (!TextFileLoader.GetTokenDoubleWord("hairindex", &dwShapeIndex))

  01247	8d 85 a4 fe ff
	ff		 lea	 eax, DWORD PTR _dwShapeIndex$2[ebp]
  0124d	c6 45 fc 22	 mov	 BYTE PTR __$EHRec$[ebp+8], 34 ; 00000022H
  01251	50		 push	 eax
  01252	8d 45 c0	 lea	 eax, DWORD PTR $T38[ebp]
  01255	50		 push	 eax
  01256	8d 8d c8 fe ff
	ff		 lea	 ecx, DWORD PTR _TextFileLoader$[ebp]
  0125c	e8 00 00 00 00	 call	 ?GetTokenDoubleWord@CTextFileLoader@@QAEHABV?$basic_string@DU?$char_traits@D@std@@V?$allocator@D@2@@std@@PAK@Z ; CTextFileLoader::GetTokenDoubleWord
  01261	85 c0		 test	 eax, eax
  01263	c6 45 fc 1d	 mov	 BYTE PTR __$EHRec$[ebp+8], 29 ; 0000001dH
; File C:\Program Files (x86)\Microsoft Visual Studio\2019\Community\VC\Tools\MSVC\14.27.29110\include\xstring

; 4301 :         if (_Mypair._Myval2._Large_string_engaged()) {

  01267	8b 45 d4	 mov	 eax, DWORD PTR $T38[ebp+20]
; File C:\DS Project\DS Files\Source\ClientSource\Client\GameLib\RaceDataFile.cpp

; 166  : 				if (!TextFileLoader.GetTokenDoubleWord("hairindex", &dwShapeIndex))

  0126a	0f 94 85 c7 fe
	ff ff		 sete	 BYTE PTR $T12[ebp]
; File C:\Program Files (x86)\Microsoft Visual Studio\2019\Community\VC\Tools\MSVC\14.27.29110\include\xstring

; 4301 :         if (_Mypair._Myval2._Large_string_engaged()) {

  01271	83 f8 10	 cmp	 eax, 16			; 00000010H
  01274	72 0d		 jb	 SHORT $LN1345@LoadRaceDa

; 4302 :             const pointer _Ptr = _Mypair._Myval2._Bx._Ptr;
; 4303 :             auto& _Al          = _Getal();
; 4304 :             _Destroy_in_place(_Mypair._Myval2._Bx._Ptr);
; 4305 :             _Al.deallocate(_Ptr, _Mypair._Myval2._Myres + 1);

  01276	40		 inc	 eax
; File C:\Program Files (x86)\Microsoft Visual Studio\2019\Community\VC\Tools\MSVC\14.27.29110\include\xmemory

; 803  :         _Deallocate<_New_alignof<_Ty>>(_Ptr, sizeof(_Ty) * _Count);

  01277	50		 push	 eax
  01278	ff 75 c0	 push	 DWORD PTR $T38[ebp]
  0127b	e8 00 00 00 00	 call	 ??$_Deallocate@$07$0A@@std@@YAXPAXI@Z ; std::_Deallocate<8,0>
  01280	83 c4 08	 add	 esp, 8
$LN1345@LoadRaceDa:
; File C:\DS Project\DS Files\Source\ClientSource\Client\GameLib\RaceDataFile.cpp

; 166  : 				if (!TextFileLoader.GetTokenDoubleWord("hairindex", &dwShapeIndex))

  01283	80 bd c7 fe ff
	ff 00		 cmp	 BYTE PTR $T12[ebp], 0
  0128a	0f 85 ac 03 00
	00		 jne	 $LN11@LoadRaceDa
; File C:\Program Files (x86)\Microsoft Visual Studio\2019\Community\VC\Tools\MSVC\14.27.29110\include\xstring

; 4293 :         _Mypair._Myval2._Mysize = 0;

  01290	c7 85 58 ff ff
	ff 00 00 00 00	 mov	 DWORD PTR _strModel$22[ebp+16], 0

; 4294 :         _Mypair._Myval2._Myres  = _BUF_SIZE - 1;

  0129a	c7 85 5c ff ff
	ff 0f 00 00 00	 mov	 DWORD PTR _strModel$22[ebp+20], 15 ; 0000000fH

; 4295 :         // the _Traits::assign is last so the codegen doesn't think the char write can alias this
; 4296 :         _Traits::assign(_Mypair._Myval2._Bx._Buf[0], _Elem());

  012a4	c6 85 48 ff ff
	ff 00		 mov	 BYTE PTR _strModel$22[ebp], 0

; 4293 :         _Mypair._Myval2._Mysize = 0;

  012ab	c7 45 88 00 00
	00 00		 mov	 DWORD PTR _strSourceSkin$29[ebp+16], 0

; 4294 :         _Mypair._Myval2._Myres  = _BUF_SIZE - 1;

  012b2	c7 45 8c 0f 00
	00 00		 mov	 DWORD PTR _strSourceSkin$29[ebp+20], 15 ; 0000000fH

; 4295 :         // the _Traits::assign is last so the codegen doesn't think the char write can alias this
; 4296 :         _Traits::assign(_Mypair._Myval2._Bx._Buf[0], _Elem());

  012b9	c6 85 78 ff ff
	ff 00		 mov	 BYTE PTR _strSourceSkin$29[ebp], 0

; 4293 :         _Mypair._Myval2._Mysize = 0;

  012c0	c7 45 b8 00 00
	00 00		 mov	 DWORD PTR _strTargetSkin$33[ebp+16], 0

; 4294 :         _Mypair._Myval2._Myres  = _BUF_SIZE - 1;

  012c7	c7 45 bc 0f 00
	00 00		 mov	 DWORD PTR _strTargetSkin$33[ebp+20], 15 ; 0000000fH

; 4295 :         // the _Traits::assign is last so the codegen doesn't think the char write can alias this
; 4296 :         _Traits::assign(_Mypair._Myval2._Bx._Buf[0], _Elem());

  012ce	c6 45 a8 00	 mov	 BYTE PTR _strTargetSkin$33[ebp], 0

; 2984 :         return assign(_Ptr, _Convert_size<size_type>(_Traits::length(_Ptr)));

  012d2	6a 05		 push	 5
  012d4	68 00 00 00 00	 push	 OFFSET ??_C@_05NCCFOPHA@model@
  012d9	8d 4d c0	 lea	 ecx, DWORD PTR $T37[ebp]
; File C:\DS Project\DS Files\Source\ClientSource\Client\GameLib\RaceDataFile.cpp

; 173  : 				std::string strTargetSkin;

  012dc	c6 45 fc 25	 mov	 BYTE PTR __$EHRec$[ebp+8], 37 ; 00000025H
; File C:\Program Files (x86)\Microsoft Visual Studio\2019\Community\VC\Tools\MSVC\14.27.29110\include\xstring

; 4293 :         _Mypair._Myval2._Mysize = 0;

  012e0	c7 45 d0 00 00
	00 00		 mov	 DWORD PTR $T37[ebp+16], 0

; 4294 :         _Mypair._Myval2._Myres  = _BUF_SIZE - 1;

  012e7	c7 45 d4 0f 00
	00 00		 mov	 DWORD PTR $T37[ebp+20], 15 ; 0000000fH

; 4295 :         // the _Traits::assign is last so the codegen doesn't think the char write can alias this
; 4296 :         _Traits::assign(_Mypair._Myval2._Bx._Buf[0], _Elem());

  012ee	c6 45 c0 00	 mov	 BYTE PTR $T37[ebp], 0

; 2984 :         return assign(_Ptr, _Convert_size<size_type>(_Traits::length(_Ptr)));

  012f2	e8 00 00 00 00	 call	 ?assign@?$basic_string@DU?$char_traits@D@std@@V?$allocator@D@2@@std@@QAEAAV12@QBDI@Z ; std::basic_string<char,std::char_traits<char>,std::allocator<char> >::assign
; File C:\DS Project\DS Files\Source\ClientSource\Client\GameLib\RaceDataFile.cpp

; 175  : 					TextFileLoader.GetTokenString("sourceskin", &strSourceSkin) &&

  012f7	8b 85 c0 fe ff
	ff		 mov	 eax, DWORD PTR $T10[ebp]
  012fd	8d 8d c8 fe ff
	ff		 lea	 ecx, DWORD PTR _TextFileLoader$[ebp]
  01303	0d 00 04 00 00	 or	 eax, 1024		; 00000400H
  01308	c6 45 fc 26	 mov	 BYTE PTR __$EHRec$[ebp+8], 38 ; 00000026H
  0130c	89 85 c0 fe ff
	ff		 mov	 DWORD PTR $T10[ebp], eax
  01312	89 85 b8 fe ff
	ff		 mov	 DWORD PTR $T7[ebp], eax
  01318	8d 85 48 ff ff
	ff		 lea	 eax, DWORD PTR _strModel$22[ebp]
  0131e	50		 push	 eax
  0131f	8d 45 c0	 lea	 eax, DWORD PTR $T37[ebp]
  01322	50		 push	 eax
  01323	e8 00 00 00 00	 call	 ?GetTokenString@CTextFileLoader@@QAEHABV?$basic_string@DU?$char_traits@D@std@@V?$allocator@D@2@@std@@PAV23@@Z ; CTextFileLoader::GetTokenString
  01328	85 c0		 test	 eax, eax
  0132a	0f 84 c5 00 00
	00		 je	 $LN49@LoadRaceDa
; File C:\Program Files (x86)\Microsoft Visual Studio\2019\Community\VC\Tools\MSVC\14.27.29110\include\xstring

; 2984 :         return assign(_Ptr, _Convert_size<size_type>(_Traits::length(_Ptr)));

  01330	6a 0a		 push	 10			; 0000000aH
  01332	68 00 00 00 00	 push	 OFFSET ??_C@_0L@ILFPKBGB@sourceskin@
  01337	8d 8d 60 ff ff
	ff		 lea	 ecx, DWORD PTR $T27[ebp]

; 4293 :         _Mypair._Myval2._Mysize = 0;

  0133d	c7 85 70 ff ff
	ff 00 00 00 00	 mov	 DWORD PTR $T27[ebp+16], 0

; 4294 :         _Mypair._Myval2._Myres  = _BUF_SIZE - 1;

  01347	c7 85 74 ff ff
	ff 0f 00 00 00	 mov	 DWORD PTR $T27[ebp+20], 15 ; 0000000fH

; 4295 :         // the _Traits::assign is last so the codegen doesn't think the char write can alias this
; 4296 :         _Traits::assign(_Mypair._Myval2._Bx._Buf[0], _Elem());

  01351	c6 85 60 ff ff
	ff 00		 mov	 BYTE PTR $T27[ebp], 0

; 2984 :         return assign(_Ptr, _Convert_size<size_type>(_Traits::length(_Ptr)));

  01358	e8 00 00 00 00	 call	 ?assign@?$basic_string@DU?$char_traits@D@std@@V?$allocator@D@2@@std@@QAEAAV12@QBDI@Z ; std::basic_string<char,std::char_traits<char>,std::allocator<char> >::assign
; File C:\DS Project\DS Files\Source\ClientSource\Client\GameLib\RaceDataFile.cpp

; 175  : 					TextFileLoader.GetTokenString("sourceskin", &strSourceSkin) &&

  0135d	8b 85 c0 fe ff
	ff		 mov	 eax, DWORD PTR $T10[ebp]
  01363	8d 8d c8 fe ff
	ff		 lea	 ecx, DWORD PTR _TextFileLoader$[ebp]
  01369	0d 00 08 00 00	 or	 eax, 2048		; 00000800H
  0136e	c7 45 fc 27 00
	00 00		 mov	 DWORD PTR __$EHRec$[ebp+8], 39 ; 00000027H
  01375	89 85 c0 fe ff
	ff		 mov	 DWORD PTR $T10[ebp], eax
  0137b	89 85 b8 fe ff
	ff		 mov	 DWORD PTR $T7[ebp], eax
  01381	8d 85 78 ff ff
	ff		 lea	 eax, DWORD PTR _strSourceSkin$29[ebp]
  01387	50		 push	 eax
  01388	8d 85 60 ff ff
	ff		 lea	 eax, DWORD PTR $T27[ebp]
  0138e	50		 push	 eax
  0138f	e8 00 00 00 00	 call	 ?GetTokenString@CTextFileLoader@@QAEHABV?$basic_string@DU?$char_traits@D@std@@V?$allocator@D@2@@std@@PAV23@@Z ; CTextFileLoader::GetTokenString
  01394	85 c0		 test	 eax, eax
  01396	74 5d		 je	 SHORT $LN49@LoadRaceDa
; File C:\Program Files (x86)\Microsoft Visual Studio\2019\Community\VC\Tools\MSVC\14.27.29110\include\xstring

; 2984 :         return assign(_Ptr, _Convert_size<size_type>(_Traits::length(_Ptr)));

  01398	6a 0a		 push	 10			; 0000000aH
  0139a	68 00 00 00 00	 push	 OFFSET ??_C@_0L@EHMNDCND@targetskin@
  0139f	8d 4d d8	 lea	 ecx, DWORD PTR $T48[ebp]

; 4293 :         _Mypair._Myval2._Mysize = 0;

  013a2	c7 45 e8 00 00
	00 00		 mov	 DWORD PTR $T48[ebp+16], 0

; 4294 :         _Mypair._Myval2._Myres  = _BUF_SIZE - 1;

  013a9	c7 45 ec 0f 00
	00 00		 mov	 DWORD PTR $T48[ebp+20], 15 ; 0000000fH

; 4295 :         // the _Traits::assign is last so the codegen doesn't think the char write can alias this
; 4296 :         _Traits::assign(_Mypair._Myval2._Bx._Buf[0], _Elem());

  013b0	c6 45 d8 00	 mov	 BYTE PTR $T48[ebp], 0

; 2984 :         return assign(_Ptr, _Convert_size<size_type>(_Traits::length(_Ptr)));

  013b4	e8 00 00 00 00	 call	 ?assign@?$basic_string@DU?$char_traits@D@std@@V?$allocator@D@2@@std@@QAEAAV12@QBDI@Z ; std::basic_string<char,std::char_traits<char>,std::allocator<char> >::assign
; File C:\DS Project\DS Files\Source\ClientSource\Client\GameLib\RaceDataFile.cpp

; 175  : 					TextFileLoader.GetTokenString("sourceskin", &strSourceSkin) &&

  013b9	8b 85 c0 fe ff
	ff		 mov	 eax, DWORD PTR $T10[ebp]
  013bf	8d 8d c8 fe ff
	ff		 lea	 ecx, DWORD PTR _TextFileLoader$[ebp]
  013c5	0d 00 10 00 00	 or	 eax, 4096		; 00001000H
  013ca	c7 45 fc 28 00
	00 00		 mov	 DWORD PTR __$EHRec$[ebp+8], 40 ; 00000028H
  013d1	89 85 c0 fe ff
	ff		 mov	 DWORD PTR $T10[ebp], eax
  013d7	89 85 b8 fe ff
	ff		 mov	 DWORD PTR $T7[ebp], eax
  013dd	8d 45 a8	 lea	 eax, DWORD PTR _strTargetSkin$33[ebp]
  013e0	50		 push	 eax
  013e1	8d 45 d8	 lea	 eax, DWORD PTR $T48[ebp]
  013e4	50		 push	 eax
  013e5	e8 00 00 00 00	 call	 ?GetTokenString@CTextFileLoader@@QAEHABV?$basic_string@DU?$char_traits@D@std@@V?$allocator@D@2@@std@@PAV23@@Z ; CTextFileLoader::GetTokenString
  013ea	c6 85 c7 fe ff
	ff 01		 mov	 BYTE PTR $T11[ebp], 1
  013f1	85 c0		 test	 eax, eax
  013f3	75 07		 jne	 SHORT $LN50@LoadRaceDa
$LN49@LoadRaceDa:
  013f5	c6 85 c7 fe ff
	ff 00		 mov	 BYTE PTR $T11[ebp], 0
$LN50@LoadRaceDa:
  013fc	8b 85 c0 fe ff
	ff		 mov	 eax, DWORD PTR $T10[ebp]
  01402	a9 00 10 00 00	 test	 eax, 4096		; 00001000H
  01407	74 3a		 je	 SHORT $LN1419@LoadRaceDa
; File C:\Program Files (x86)\Microsoft Visual Studio\2019\Community\VC\Tools\MSVC\14.27.29110\include\xstring

; 4301 :         if (_Mypair._Myval2._Large_string_engaged()) {

  01409	8b 4d ec	 mov	 ecx, DWORD PTR $T48[ebp+20]
; File C:\DS Project\DS Files\Source\ClientSource\Client\GameLib\RaceDataFile.cpp

; 175  : 					TextFileLoader.GetTokenString("sourceskin", &strSourceSkin) &&

  0140c	25 ff ef ff ff	 and	 eax, -4097		; ffffefffH
  01411	89 85 c0 fe ff
	ff		 mov	 DWORD PTR $T10[ebp], eax
; File C:\Program Files (x86)\Microsoft Visual Studio\2019\Community\VC\Tools\MSVC\14.27.29110\include\xstring

; 4301 :         if (_Mypair._Myval2._Large_string_engaged()) {

  01417	83 f9 10	 cmp	 ecx, 16			; 00000010H
  0141a	72 15		 jb	 SHORT $LN1418@LoadRaceDa

; 4302 :             const pointer _Ptr = _Mypair._Myval2._Bx._Ptr;
; 4303 :             auto& _Al          = _Getal();
; 4304 :             _Destroy_in_place(_Mypair._Myval2._Bx._Ptr);
; 4305 :             _Al.deallocate(_Ptr, _Mypair._Myval2._Myres + 1);

  0141c	8d 41 01	 lea	 eax, DWORD PTR [ecx+1]
; File C:\Program Files (x86)\Microsoft Visual Studio\2019\Community\VC\Tools\MSVC\14.27.29110\include\xmemory

; 803  :         _Deallocate<_New_alignof<_Ty>>(_Ptr, sizeof(_Ty) * _Count);

  0141f	50		 push	 eax
  01420	ff 75 d8	 push	 DWORD PTR $T48[ebp]
  01423	e8 00 00 00 00	 call	 ??$_Deallocate@$07$0A@@std@@YAXPAXI@Z ; std::_Deallocate<8,0>
  01428	8b 85 c0 fe ff
	ff		 mov	 eax, DWORD PTR $T10[ebp]
  0142e	83 c4 08	 add	 esp, 8
$LN1418@LoadRaceDa:
; File C:\Program Files (x86)\Microsoft Visual Studio\2019\Community\VC\Tools\MSVC\14.27.29110\include\xstring

; 4308 :         _Mypair._Myval2._Mysize = 0;

  01431	c7 45 e8 00 00
	00 00		 mov	 DWORD PTR $T48[ebp+16], 0

; 4309 :         _Mypair._Myval2._Myres  = _BUF_SIZE - 1;

  01438	c7 45 ec 0f 00
	00 00		 mov	 DWORD PTR $T48[ebp+20], 15 ; 0000000fH

; 4310 :         // the _Traits::assign is last so the codegen doesn't think the char write can alias this
; 4311 :         _Traits::assign(_Mypair._Myval2._Bx._Buf[0], _Elem());

  0143f	c6 45 d8 00	 mov	 BYTE PTR $T48[ebp], 0
$LN1419@LoadRaceDa:
; File C:\DS Project\DS Files\Source\ClientSource\Client\GameLib\RaceDataFile.cpp

; 175  : 					TextFileLoader.GetTokenString("sourceskin", &strSourceSkin) &&

  01443	a9 00 08 00 00	 test	 eax, 2048		; 00000800H
  01448	74 49		 je	 SHORT $LN1429@LoadRaceDa
; File C:\Program Files (x86)\Microsoft Visual Studio\2019\Community\VC\Tools\MSVC\14.27.29110\include\xstring

; 4301 :         if (_Mypair._Myval2._Large_string_engaged()) {

  0144a	8b 8d 74 ff ff
	ff		 mov	 ecx, DWORD PTR $T27[ebp+20]
; File C:\DS Project\DS Files\Source\ClientSource\Client\GameLib\RaceDataFile.cpp

; 175  : 					TextFileLoader.GetTokenString("sourceskin", &strSourceSkin) &&

  01450	25 ff f7 ff ff	 and	 eax, -2049		; fffff7ffH
  01455	89 85 c0 fe ff
	ff		 mov	 DWORD PTR $T10[ebp], eax
; File C:\Program Files (x86)\Microsoft Visual Studio\2019\Community\VC\Tools\MSVC\14.27.29110\include\xstring

; 4301 :         if (_Mypair._Myval2._Large_string_engaged()) {

  0145b	83 f9 10	 cmp	 ecx, 16			; 00000010H
  0145e	72 18		 jb	 SHORT $LN1428@LoadRaceDa

; 4302 :             const pointer _Ptr = _Mypair._Myval2._Bx._Ptr;
; 4303 :             auto& _Al          = _Getal();
; 4304 :             _Destroy_in_place(_Mypair._Myval2._Bx._Ptr);
; 4305 :             _Al.deallocate(_Ptr, _Mypair._Myval2._Myres + 1);

  01460	8d 41 01	 lea	 eax, DWORD PTR [ecx+1]
; File C:\Program Files (x86)\Microsoft Visual Studio\2019\Community\VC\Tools\MSVC\14.27.29110\include\xmemory

; 803  :         _Deallocate<_New_alignof<_Ty>>(_Ptr, sizeof(_Ty) * _Count);

  01463	50		 push	 eax
  01464	ff b5 60 ff ff
	ff		 push	 DWORD PTR $T27[ebp]
  0146a	e8 00 00 00 00	 call	 ??$_Deallocate@$07$0A@@std@@YAXPAXI@Z ; std::_Deallocate<8,0>
  0146f	8b 85 c0 fe ff
	ff		 mov	 eax, DWORD PTR $T10[ebp]
  01475	83 c4 08	 add	 esp, 8
$LN1428@LoadRaceDa:
; File C:\Program Files (x86)\Microsoft Visual Studio\2019\Community\VC\Tools\MSVC\14.27.29110\include\xstring

; 4308 :         _Mypair._Myval2._Mysize = 0;

  01478	c7 85 70 ff ff
	ff 00 00 00 00	 mov	 DWORD PTR $T27[ebp+16], 0

; 4309 :         _Mypair._Myval2._Myres  = _BUF_SIZE - 1;

  01482	c7 85 74 ff ff
	ff 0f 00 00 00	 mov	 DWORD PTR $T27[ebp+20], 15 ; 0000000fH

; 4310 :         // the _Traits::assign is last so the codegen doesn't think the char write can alias this
; 4311 :         _Traits::assign(_Mypair._Myval2._Bx._Buf[0], _Elem());

  0148c	c6 85 60 ff ff
	ff 00		 mov	 BYTE PTR $T27[ebp], 0
$LN1429@LoadRaceDa:
; File C:\DS Project\DS Files\Source\ClientSource\Client\GameLib\RaceDataFile.cpp

; 175  : 					TextFileLoader.GetTokenString("sourceskin", &strSourceSkin) &&

  01493	c7 45 fc 25 00
	00 00		 mov	 DWORD PTR __$EHRec$[ebp+8], 37 ; 00000025H
  0149a	a9 00 04 00 00	 test	 eax, 1024		; 00000400H
  0149f	74 20		 je	 SHORT $LN1438@LoadRaceDa
  014a1	25 ff fb ff ff	 and	 eax, -1025		; fffffbffH
  014a6	89 85 c0 fe ff
	ff		 mov	 DWORD PTR $T10[ebp], eax
; File C:\Program Files (x86)\Microsoft Visual Studio\2019\Community\VC\Tools\MSVC\14.27.29110\include\xstring

; 4301 :         if (_Mypair._Myval2._Large_string_engaged()) {

  014ac	8b 45 d4	 mov	 eax, DWORD PTR $T37[ebp+20]
  014af	83 f8 10	 cmp	 eax, 16			; 00000010H
  014b2	72 0d		 jb	 SHORT $LN1438@LoadRaceDa

; 4302 :             const pointer _Ptr = _Mypair._Myval2._Bx._Ptr;
; 4303 :             auto& _Al          = _Getal();
; 4304 :             _Destroy_in_place(_Mypair._Myval2._Bx._Ptr);
; 4305 :             _Al.deallocate(_Ptr, _Mypair._Myval2._Myres + 1);

  014b4	40		 inc	 eax
; File C:\Program Files (x86)\Microsoft Visual Studio\2019\Community\VC\Tools\MSVC\14.27.29110\include\xmemory

; 803  :         _Deallocate<_New_alignof<_Ty>>(_Ptr, sizeof(_Ty) * _Count);

  014b5	50		 push	 eax
  014b6	ff 75 c0	 push	 DWORD PTR $T37[ebp]
  014b9	e8 00 00 00 00	 call	 ??$_Deallocate@$07$0A@@std@@YAXPAXI@Z ; std::_Deallocate<8,0>
  014be	83 c4 08	 add	 esp, 8
$LN1438@LoadRaceDa:
; File C:\DS Project\DS Files\Source\ClientSource\Client\GameLib\RaceDataFile.cpp

; 175  : 					TextFileLoader.GetTokenString("sourceskin", &strSourceSkin) &&

  014c1	80 bd c7 fe ff
	ff 00		 cmp	 BYTE PTR $T11[ebp], 0
  014c8	0f 84 f0 00 00
	00		 je	 $LN1489@LoadRaceDa

; 178  : 					SetHairSkin(dwShapeIndex, 0, (strPathName + strModel).c_str(), (strPathName + strSourceSkin).c_str(), (strPathName + strTargetSkin).c_str());

  014ce	8d 45 a8	 lea	 eax, DWORD PTR _strTargetSkin$33[ebp]
  014d1	50		 push	 eax
  014d2	8d 45 90	 lea	 eax, DWORD PTR _strPathName$31[ebp]
  014d5	50		 push	 eax
  014d6	8d 85 60 ff ff
	ff		 lea	 eax, DWORD PTR $T26[ebp]
  014dc	50		 push	 eax
  014dd	e8 00 00 00 00	 call	 ??$?HDU?$char_traits@D@std@@V?$allocator@D@1@@std@@YA?AV?$basic_string@DU?$char_traits@D@std@@V?$allocator@D@2@@0@ABV10@0@Z ; std::operator+<char,std::char_traits<char>,std::allocator<char> >
  014e2	8b f8		 mov	 edi, eax
  014e4	8d 85 78 ff ff
	ff		 lea	 eax, DWORD PTR _strSourceSkin$29[ebp]
  014ea	c6 45 fc 29	 mov	 BYTE PTR __$EHRec$[ebp+8], 41 ; 00000029H
  014ee	50		 push	 eax
  014ef	8d 45 90	 lea	 eax, DWORD PTR _strPathName$31[ebp]
  014f2	50		 push	 eax
  014f3	8d 45 d8	 lea	 eax, DWORD PTR $T47[ebp]
  014f6	50		 push	 eax
  014f7	e8 00 00 00 00	 call	 ??$?HDU?$char_traits@D@std@@V?$allocator@D@1@@std@@YA?AV?$basic_string@DU?$char_traits@D@std@@V?$allocator@D@2@@0@ABV10@0@Z ; std::operator+<char,std::char_traits<char>,std::allocator<char> >
  014fc	8b f0		 mov	 esi, eax
  014fe	8d 85 48 ff ff
	ff		 lea	 eax, DWORD PTR _strModel$22[ebp]
  01504	c6 45 fc 2a	 mov	 BYTE PTR __$EHRec$[ebp+8], 42 ; 0000002aH
  01508	50		 push	 eax
  01509	8d 45 90	 lea	 eax, DWORD PTR _strPathName$31[ebp]
  0150c	50		 push	 eax
  0150d	8d 45 c0	 lea	 eax, DWORD PTR $T36[ebp]
  01510	50		 push	 eax
  01511	e8 00 00 00 00	 call	 ??$?HDU?$char_traits@D@std@@V?$allocator@D@1@@std@@YA?AV?$basic_string@DU?$char_traits@D@std@@V?$allocator@D@2@@0@ABV10@0@Z ; std::operator+<char,std::char_traits<char>,std::allocator<char> >
  01516	83 c4 24	 add	 esp, 36			; 00000024H
; File C:\Program Files (x86)\Microsoft Visual Studio\2019\Community\VC\Tools\MSVC\14.27.29110\include\xstring

; 2145 :         if (_Large_string_engaged()) {

  01519	83 7f 14 10	 cmp	 DWORD PTR [edi+20], 16	; 00000010H
; File C:\DS Project\DS Files\Source\ClientSource\Client\GameLib\RaceDataFile.cpp

; 178  : 					SetHairSkin(dwShapeIndex, 0, (strPathName + strModel).c_str(), (strPathName + strSourceSkin).c_str(), (strPathName + strTargetSkin).c_str());

  0151d	c6 45 fc 2b	 mov	 BYTE PTR __$EHRec$[ebp+8], 43 ; 0000002bH
; File C:\Program Files (x86)\Microsoft Visual Studio\2019\Community\VC\Tools\MSVC\14.27.29110\include\xstring

; 2145 :         if (_Large_string_engaged()) {

  01521	72 02		 jb	 SHORT $LN1447@LoadRaceDa

; 2146 :             _Result = _Unfancy(_Bx._Ptr);

  01523	8b 3f		 mov	 edi, DWORD PTR [edi]
$LN1447@LoadRaceDa:

; 2145 :         if (_Large_string_engaged()) {

  01525	83 7e 14 10	 cmp	 DWORD PTR [esi+20], 16	; 00000010H
  01529	72 02		 jb	 SHORT $LN1454@LoadRaceDa

; 2146 :             _Result = _Unfancy(_Bx._Ptr);

  0152b	8b 36		 mov	 esi, DWORD PTR [esi]
$LN1454@LoadRaceDa:

; 2145 :         if (_Large_string_engaged()) {

  0152d	83 78 14 10	 cmp	 DWORD PTR [eax+20], 16	; 00000010H
  01531	72 02		 jb	 SHORT $LN1461@LoadRaceDa

; 2146 :             _Result = _Unfancy(_Bx._Ptr);

  01533	8b 00		 mov	 eax, DWORD PTR [eax]
$LN1461@LoadRaceDa:
; File C:\DS Project\DS Files\Source\ClientSource\Client\GameLib\RaceDataFile.cpp

; 178  : 					SetHairSkin(dwShapeIndex, 0, (strPathName + strModel).c_str(), (strPathName + strSourceSkin).c_str(), (strPathName + strTargetSkin).c_str());

  01535	8b 8d ac fe ff
	ff		 mov	 ecx, DWORD PTR _this$GSCopy$1$[ebp]
  0153b	57		 push	 edi
  0153c	56		 push	 esi
  0153d	50		 push	 eax
  0153e	6a 00		 push	 0
  01540	ff b5 a4 fe ff
	ff		 push	 DWORD PTR _dwShapeIndex$2[ebp]
  01546	e8 00 00 00 00	 call	 ?SetHairSkin@CRaceData@@QAEXIIPBD00@Z ; CRaceData::SetHairSkin
; File C:\Program Files (x86)\Microsoft Visual Studio\2019\Community\VC\Tools\MSVC\14.27.29110\include\xstring

; 4301 :         if (_Mypair._Myval2._Large_string_engaged()) {

  0154b	8b 45 d4	 mov	 eax, DWORD PTR $T36[ebp+20]
  0154e	83 f8 10	 cmp	 eax, 16			; 00000010H
  01551	72 0d		 jb	 SHORT $LN1469@LoadRaceDa

; 4302 :             const pointer _Ptr = _Mypair._Myval2._Bx._Ptr;
; 4303 :             auto& _Al          = _Getal();
; 4304 :             _Destroy_in_place(_Mypair._Myval2._Bx._Ptr);
; 4305 :             _Al.deallocate(_Ptr, _Mypair._Myval2._Myres + 1);

  01553	40		 inc	 eax
; File C:\Program Files (x86)\Microsoft Visual Studio\2019\Community\VC\Tools\MSVC\14.27.29110\include\xmemory

; 803  :         _Deallocate<_New_alignof<_Ty>>(_Ptr, sizeof(_Ty) * _Count);

  01554	50		 push	 eax
  01555	ff 75 c0	 push	 DWORD PTR $T36[ebp]
  01558	e8 00 00 00 00	 call	 ??$_Deallocate@$07$0A@@std@@YAXPAXI@Z ; std::_Deallocate<8,0>
  0155d	83 c4 08	 add	 esp, 8
$LN1469@LoadRaceDa:
; File C:\Program Files (x86)\Microsoft Visual Studio\2019\Community\VC\Tools\MSVC\14.27.29110\include\xstring

; 4301 :         if (_Mypair._Myval2._Large_string_engaged()) {

  01560	8b 45 ec	 mov	 eax, DWORD PTR $T47[ebp+20]

; 4308 :         _Mypair._Myval2._Mysize = 0;

  01563	c7 45 d0 00 00
	00 00		 mov	 DWORD PTR $T36[ebp+16], 0

; 4309 :         _Mypair._Myval2._Myres  = _BUF_SIZE - 1;

  0156a	c7 45 d4 0f 00
	00 00		 mov	 DWORD PTR $T36[ebp+20], 15 ; 0000000fH

; 4310 :         // the _Traits::assign is last so the codegen doesn't think the char write can alias this
; 4311 :         _Traits::assign(_Mypair._Myval2._Bx._Buf[0], _Elem());

  01571	c6 45 c0 00	 mov	 BYTE PTR $T36[ebp], 0

; 4301 :         if (_Mypair._Myval2._Large_string_engaged()) {

  01575	83 f8 10	 cmp	 eax, 16			; 00000010H
  01578	72 0d		 jb	 SHORT $LN1479@LoadRaceDa

; 4302 :             const pointer _Ptr = _Mypair._Myval2._Bx._Ptr;
; 4303 :             auto& _Al          = _Getal();
; 4304 :             _Destroy_in_place(_Mypair._Myval2._Bx._Ptr);
; 4305 :             _Al.deallocate(_Ptr, _Mypair._Myval2._Myres + 1);

  0157a	40		 inc	 eax
; File C:\Program Files (x86)\Microsoft Visual Studio\2019\Community\VC\Tools\MSVC\14.27.29110\include\xmemory

; 803  :         _Deallocate<_New_alignof<_Ty>>(_Ptr, sizeof(_Ty) * _Count);

  0157b	50		 push	 eax
  0157c	ff 75 d8	 push	 DWORD PTR $T47[ebp]
  0157f	e8 00 00 00 00	 call	 ??$_Deallocate@$07$0A@@std@@YAXPAXI@Z ; std::_Deallocate<8,0>
  01584	83 c4 08	 add	 esp, 8
$LN1479@LoadRaceDa:
; File C:\Program Files (x86)\Microsoft Visual Studio\2019\Community\VC\Tools\MSVC\14.27.29110\include\xstring

; 4301 :         if (_Mypair._Myval2._Large_string_engaged()) {

  01587	8b 85 74 ff ff
	ff		 mov	 eax, DWORD PTR $T26[ebp+20]

; 4308 :         _Mypair._Myval2._Mysize = 0;

  0158d	c7 45 e8 00 00
	00 00		 mov	 DWORD PTR $T47[ebp+16], 0

; 4309 :         _Mypair._Myval2._Myres  = _BUF_SIZE - 1;

  01594	c7 45 ec 0f 00
	00 00		 mov	 DWORD PTR $T47[ebp+20], 15 ; 0000000fH

; 4310 :         // the _Traits::assign is last so the codegen doesn't think the char write can alias this
; 4311 :         _Traits::assign(_Mypair._Myval2._Bx._Buf[0], _Elem());

  0159b	c6 45 d8 00	 mov	 BYTE PTR $T47[ebp], 0
; File C:\DS Project\DS Files\Source\ClientSource\Client\GameLib\RaceDataFile.cpp

; 178  : 					SetHairSkin(dwShapeIndex, 0, (strPathName + strModel).c_str(), (strPathName + strSourceSkin).c_str(), (strPathName + strTargetSkin).c_str());

  0159f	c6 45 fc 25	 mov	 BYTE PTR __$EHRec$[ebp+8], 37 ; 00000025H
; File C:\Program Files (x86)\Microsoft Visual Studio\2019\Community\VC\Tools\MSVC\14.27.29110\include\xstring

; 4301 :         if (_Mypair._Myval2._Large_string_engaged()) {

  015a3	83 f8 10	 cmp	 eax, 16			; 00000010H
  015a6	72 10		 jb	 SHORT $LN1589@LoadRaceDa

; 4302 :             const pointer _Ptr = _Mypair._Myval2._Bx._Ptr;
; 4303 :             auto& _Al          = _Getal();
; 4304 :             _Destroy_in_place(_Mypair._Myval2._Bx._Ptr);
; 4305 :             _Al.deallocate(_Ptr, _Mypair._Myval2._Myres + 1);

  015a8	40		 inc	 eax
; File C:\Program Files (x86)\Microsoft Visual Studio\2019\Community\VC\Tools\MSVC\14.27.29110\include\xmemory

; 803  :         _Deallocate<_New_alignof<_Ty>>(_Ptr, sizeof(_Ty) * _Count);

  015a9	50		 push	 eax
  015aa	ff b5 60 ff ff
	ff		 push	 DWORD PTR $T26[ebp]
  015b0	e8 00 00 00 00	 call	 ??$_Deallocate@$07$0A@@std@@YAXPAXI@Z ; std::_Deallocate<8,0>
  015b5	83 c4 08	 add	 esp, 8
$LN1589@LoadRaceDa:
; File C:\DS Project\DS Files\Source\ClientSource\Client\GameLib\RaceDataFile.cpp

; 181  : 				TextFileLoader.SetParentNode();

  015b8	8b b5 b0 fe ff
	ff		 mov	 esi, DWORD PTR _i$1$[ebp]
$LN1489@LoadRaceDa:
  015be	8d 8d c8 fe ff
	ff		 lea	 ecx, DWORD PTR _TextFileLoader$[ebp]
  015c4	e8 00 00 00 00	 call	 ?SetParentNode@CTextFileLoader@@QAEHXZ ; CTextFileLoader::SetParentNode
; File C:\Program Files (x86)\Microsoft Visual Studio\2019\Community\VC\Tools\MSVC\14.27.29110\include\xstring

; 4301 :         if (_Mypair._Myval2._Large_string_engaged()) {

  015c9	8b 45 bc	 mov	 eax, DWORD PTR _strTargetSkin$33[ebp+20]
  015cc	83 f8 10	 cmp	 eax, 16			; 00000010H
  015cf	72 0d		 jb	 SHORT $LN1499@LoadRaceDa

; 4302 :             const pointer _Ptr = _Mypair._Myval2._Bx._Ptr;
; 4303 :             auto& _Al          = _Getal();
; 4304 :             _Destroy_in_place(_Mypair._Myval2._Bx._Ptr);
; 4305 :             _Al.deallocate(_Ptr, _Mypair._Myval2._Myres + 1);

  015d1	40		 inc	 eax
; File C:\Program Files (x86)\Microsoft Visual Studio\2019\Community\VC\Tools\MSVC\14.27.29110\include\xmemory

; 803  :         _Deallocate<_New_alignof<_Ty>>(_Ptr, sizeof(_Ty) * _Count);

  015d2	50		 push	 eax
  015d3	ff 75 a8	 push	 DWORD PTR _strTargetSkin$33[ebp]
  015d6	e8 00 00 00 00	 call	 ??$_Deallocate@$07$0A@@std@@YAXPAXI@Z ; std::_Deallocate<8,0>
  015db	83 c4 08	 add	 esp, 8
$LN1499@LoadRaceDa:
; File C:\Program Files (x86)\Microsoft Visual Studio\2019\Community\VC\Tools\MSVC\14.27.29110\include\xstring

; 4301 :         if (_Mypair._Myval2._Large_string_engaged()) {

  015de	8b 45 8c	 mov	 eax, DWORD PTR _strSourceSkin$29[ebp+20]

; 4308 :         _Mypair._Myval2._Mysize = 0;

  015e1	c7 45 b8 00 00
	00 00		 mov	 DWORD PTR _strTargetSkin$33[ebp+16], 0

; 4309 :         _Mypair._Myval2._Myres  = _BUF_SIZE - 1;

  015e8	c7 45 bc 0f 00
	00 00		 mov	 DWORD PTR _strTargetSkin$33[ebp+20], 15 ; 0000000fH

; 4310 :         // the _Traits::assign is last so the codegen doesn't think the char write can alias this
; 4311 :         _Traits::assign(_Mypair._Myval2._Bx._Buf[0], _Elem());

  015ef	c6 45 a8 00	 mov	 BYTE PTR _strTargetSkin$33[ebp], 0

; 4301 :         if (_Mypair._Myval2._Large_string_engaged()) {

  015f3	83 f8 10	 cmp	 eax, 16			; 00000010H
  015f6	72 10		 jb	 SHORT $LN1509@LoadRaceDa

; 4302 :             const pointer _Ptr = _Mypair._Myval2._Bx._Ptr;
; 4303 :             auto& _Al          = _Getal();
; 4304 :             _Destroy_in_place(_Mypair._Myval2._Bx._Ptr);
; 4305 :             _Al.deallocate(_Ptr, _Mypair._Myval2._Myres + 1);

  015f8	40		 inc	 eax
; File C:\Program Files (x86)\Microsoft Visual Studio\2019\Community\VC\Tools\MSVC\14.27.29110\include\xmemory

; 803  :         _Deallocate<_New_alignof<_Ty>>(_Ptr, sizeof(_Ty) * _Count);

  015f9	50		 push	 eax
  015fa	ff b5 78 ff ff
	ff		 push	 DWORD PTR _strSourceSkin$29[ebp]
  01600	e8 00 00 00 00	 call	 ??$_Deallocate@$07$0A@@std@@YAXPAXI@Z ; std::_Deallocate<8,0>
  01605	83 c4 08	 add	 esp, 8
$LN1509@LoadRaceDa:
; File C:\Program Files (x86)\Microsoft Visual Studio\2019\Community\VC\Tools\MSVC\14.27.29110\include\xstring

; 4301 :         if (_Mypair._Myval2._Large_string_engaged()) {

  01608	8b 85 5c ff ff
	ff		 mov	 eax, DWORD PTR _strModel$22[ebp+20]

; 4308 :         _Mypair._Myval2._Mysize = 0;

  0160e	c7 45 88 00 00
	00 00		 mov	 DWORD PTR _strSourceSkin$29[ebp+16], 0

; 4309 :         _Mypair._Myval2._Myres  = _BUF_SIZE - 1;

  01615	c7 45 8c 0f 00
	00 00		 mov	 DWORD PTR _strSourceSkin$29[ebp+20], 15 ; 0000000fH

; 4310 :         // the _Traits::assign is last so the codegen doesn't think the char write can alias this
; 4311 :         _Traits::assign(_Mypair._Myval2._Bx._Buf[0], _Elem());

  0161c	c6 85 78 ff ff
	ff 00		 mov	 BYTE PTR _strSourceSkin$29[ebp], 0
; File C:\DS Project\DS Files\Source\ClientSource\Client\GameLib\RaceDataFile.cpp

; 182  : 			}

  01623	c6 45 fc 1d	 mov	 BYTE PTR __$EHRec$[ebp+8], 29 ; 0000001dH
; File C:\Program Files (x86)\Microsoft Visual Studio\2019\Community\VC\Tools\MSVC\14.27.29110\include\xstring

; 4301 :         if (_Mypair._Myval2._Large_string_engaged()) {

  01627	83 f8 10	 cmp	 eax, 16			; 00000010H
  0162a	72 10		 jb	 SHORT $LN11@LoadRaceDa

; 4302 :             const pointer _Ptr = _Mypair._Myval2._Bx._Ptr;
; 4303 :             auto& _Al          = _Getal();
; 4304 :             _Destroy_in_place(_Mypair._Myval2._Bx._Ptr);
; 4305 :             _Al.deallocate(_Ptr, _Mypair._Myval2._Myres + 1);

  0162c	40		 inc	 eax
; File C:\Program Files (x86)\Microsoft Visual Studio\2019\Community\VC\Tools\MSVC\14.27.29110\include\xmemory

; 803  :         _Deallocate<_New_alignof<_Ty>>(_Ptr, sizeof(_Ty) * _Count);

  0162d	50		 push	 eax
  0162e	ff b5 48 ff ff
	ff		 push	 DWORD PTR _strModel$22[ebp]
  01634	e8 00 00 00 00	 call	 ??$_Deallocate@$07$0A@@std@@YAXPAXI@Z ; std::_Deallocate<8,0>
  01639	83 c4 08	 add	 esp, 8
$LN11@LoadRaceDa:
; File C:\DS Project\DS Files\Source\ClientSource\Client\GameLib\RaceDataFile.cpp

; 154  : 			for (DWORD i = 0; i < dwHairDataCount; ++i)

  0163c	46		 inc	 esi
  0163d	89 b5 b0 fe ff
	ff		 mov	 DWORD PTR _i$1$[ebp], esi
  01643	3b b5 bc fe ff
	ff		 cmp	 esi, DWORD PTR _dwHairDataCount$8[ebp]
  01649	0f 82 22 fb ff
	ff		 jb	 $LL13@LoadRaceDa
$LN12@LoadRaceDa:

; 183  : 		}
; 184  : 
; 185  : 		TextFileLoader.SetParentNode();

  0164f	8d 8d c8 fe ff
	ff		 lea	 ecx, DWORD PTR _TextFileLoader$[ebp]
  01655	e8 00 00 00 00	 call	 ?SetParentNode@CTextFileLoader@@QAEHXZ ; CTextFileLoader::SetParentNode
; File C:\Program Files (x86)\Microsoft Visual Studio\2019\Community\VC\Tools\MSVC\14.27.29110\include\xstring

; 2153 :         return _BUF_SIZE <= _Myres;

  0165a	8b 45 a4	 mov	 eax, DWORD PTR _strPathName$31[ebp+20]
; File C:\DS Project\DS Files\Source\ClientSource\Client\GameLib\RaceDataFile.cpp

; 186  : 	}

  0165d	c6 45 fc 00	 mov	 BYTE PTR __$EHRec$[ebp+8], 0
; File C:\Program Files (x86)\Microsoft Visual Studio\2019\Community\VC\Tools\MSVC\14.27.29110\include\xstring

; 2153 :         return _BUF_SIZE <= _Myres;

  01661	83 f8 10	 cmp	 eax, 16			; 00000010H

; 4301 :         if (_Mypair._Myval2._Large_string_engaged()) {

  01664	72 0d		 jb	 SHORT $LN1529@LoadRaceDa

; 4302 :             const pointer _Ptr = _Mypair._Myval2._Bx._Ptr;
; 4303 :             auto& _Al          = _Getal();
; 4304 :             _Destroy_in_place(_Mypair._Myval2._Bx._Ptr);
; 4305 :             _Al.deallocate(_Ptr, _Mypair._Myval2._Myres + 1);

  01666	40		 inc	 eax
; File C:\Program Files (x86)\Microsoft Visual Studio\2019\Community\VC\Tools\MSVC\14.27.29110\include\xmemory

; 803  :         _Deallocate<_New_alignof<_Ty>>(_Ptr, sizeof(_Ty) * _Count);

  01667	50		 push	 eax
  01668	ff 75 90	 push	 DWORD PTR _strPathName$31[ebp]
  0166b	e8 00 00 00 00	 call	 ??$_Deallocate@$07$0A@@std@@YAXPAXI@Z ; std::_Deallocate<8,0>
  01670	83 c4 08	 add	 esp, 8
$LN1529@LoadRaceDa:
; File C:\DS Project\DS Files\Source\ClientSource\Client\GameLib\RaceDataFile.cpp

; 189  : 	if (TextFileLoader.SetChildNode("attachingdata"))

  01673	68 00 00 00 00	 push	 OFFSET ??_C@_0O@OPEMPJIC@attachingdata@
  01678	8d 8d c8 fe ff
	ff		 lea	 ecx, DWORD PTR _TextFileLoader$[ebp]
  0167e	e8 00 00 00 00	 call	 ?SetChildNode@CTextFileLoader@@QAEHPBD@Z ; CTextFileLoader::SetChildNode
  01683	85 c0		 test	 eax, eax
  01685	74 2e		 je	 SHORT $LN36@LoadRaceDa

; 190  : 	{
; 191  : 		if (!NRaceData::LoadAttachingData(TextFileLoader, &m_AttachingDataVector))

  01687	8b 85 ac fe ff
	ff		 mov	 eax, DWORD PTR _this$GSCopy$1$[ebp]
  0168d	05 d0 00 00 00	 add	 eax, 208		; 000000d0H
  01692	50		 push	 eax
  01693	8d 85 c8 fe ff
	ff		 lea	 eax, DWORD PTR _TextFileLoader$[ebp]
  01699	50		 push	 eax
  0169a	e8 00 00 00 00	 call	 ?LoadAttachingData@NRaceData@@YAHAAVCTextFileLoader@@PAV?$vector@USAttachingData@NRaceData@@V?$allocator@USAttachingData@NRaceData@@@std@@@std@@@Z ; NRaceData::LoadAttachingData
  0169f	83 c4 08	 add	 esp, 8
  016a2	85 c0		 test	 eax, eax
  016a4	0f 84 52 ed ff
	ff		 je	 $LN124@LoadRaceDa

; 192  : 			return FALSE;
; 193  : 
; 194  : 		TextFileLoader.SetParentNode();

  016aa	8d 8d c8 fe ff
	ff		 lea	 ecx, DWORD PTR _TextFileLoader$[ebp]
  016b0	e8 00 00 00 00	 call	 ?SetParentNode@CTextFileLoader@@QAEHXZ ; CTextFileLoader::SetParentNode
$LN36@LoadRaceDa:

; 195  : 	}
; 196  : 
; 197  : 	return TRUE;

  016b5	be 01 00 00 00	 mov	 esi, 1
  016ba	e9 3f ed ff ff	 jmp	 $LN125@LoadRaceDa
$LN1540@LoadRaceDa:
; File C:\Program Files (x86)\Microsoft Visual Studio\2019\Community\VC\Tools\MSVC\14.27.29110\include\xstring

; 2164 :             _Xran();

  016bf	e8 00 00 00 00	 call	 ?_Xran@?$_String_val@U?$_Simple_types@D@std@@@std@@SAXXZ ; std::_String_val<std::_Simple_types<char> >::_Xran
$LN1546@LoadRaceDa:
; File C:\Program Files (x86)\Microsoft Visual Studio\2019\Community\VC\Tools\MSVC\14.27.29110\include\vector

; 1520 :             _Xrange();

  016c4	e8 00 00 00 00	 call	 ?_Xrange@?$vector@V?$basic_string@DU?$char_traits@D@std@@V?$allocator@D@2@@std@@V?$allocator@V?$basic_string@DU?$char_traits@D@std@@V?$allocator@D@2@@std@@@2@@std@@CAXXZ ; std::vector<std::basic_string<char,std::char_traits<char>,std::allocator<char> >,std::allocator<std::basic_string<char,std::char_traits<char>,std::allocator<char> > > >::_Xrange
$LN1591@LoadRaceDa:
  016c9	cc		 int	 3
_TEXT	ENDS
;	COMDAT text$x
text$x	SEGMENT
__unwindfunclet$?LoadRaceData@CRaceData@@QAEHPBD@Z$0:
  00000	8d 8d c8 fe ff
	ff		 lea	 ecx, DWORD PTR _TextFileLoader$[ebp]
  00006	e9 00 00 00 00	 jmp	 ??1CTextFileLoader@@UAE@XZ ; CTextFileLoader::~CTextFileLoader
__unwindfunclet$?LoadRaceData@CRaceData@@QAEHPBD@Z$1:
  0000b	8d 4d d8	 lea	 ecx, DWORD PTR $T64[ebp]
  0000e	e9 00 00 00 00	 jmp	 ??1?$basic_string@DU?$char_traits@D@std@@V?$allocator@D@2@@std@@QAE@XZ ; std::basic_string<char,std::char_traits<char>,std::allocator<char> >::~basic_string<char,std::char_traits<char>,std::allocator<char> >
__unwindfunclet$?LoadRaceData@CRaceData@@QAEHPBD@Z$2:
  00013	8d 4d d8	 lea	 ecx, DWORD PTR $T63[ebp]
  00016	e9 00 00 00 00	 jmp	 ??1?$basic_string@DU?$char_traits@D@std@@V?$allocator@D@2@@std@@QAE@XZ ; std::basic_string<char,std::char_traits<char>,std::allocator<char> >::~basic_string<char,std::char_traits<char>,std::allocator<char> >
__unwindfunclet$?LoadRaceData@CRaceData@@QAEHPBD@Z$3:
  0001b	8d 4d d8	 lea	 ecx, DWORD PTR $T62[ebp]
  0001e	e9 00 00 00 00	 jmp	 ??1?$basic_string@DU?$char_traits@D@std@@V?$allocator@D@2@@std@@QAE@XZ ; std::basic_string<char,std::char_traits<char>,std::allocator<char> >::~basic_string<char,std::char_traits<char>,std::allocator<char> >
__unwindfunclet$?LoadRaceData@CRaceData@@QAEHPBD@Z$4:
  00023	8d 4d d8	 lea	 ecx, DWORD PTR $T61[ebp]
  00026	e9 00 00 00 00	 jmp	 ??1?$basic_string@DU?$char_traits@D@std@@V?$allocator@D@2@@std@@QAE@XZ ; std::basic_string<char,std::char_traits<char>,std::allocator<char> >::~basic_string<char,std::char_traits<char>,std::allocator<char> >
__unwindfunclet$?LoadRaceData@CRaceData@@QAEHPBD@Z$5:
  0002b	8d 4d d8	 lea	 ecx, DWORD PTR $T60[ebp]
  0002e	e9 00 00 00 00	 jmp	 ??1?$basic_string@DU?$char_traits@D@std@@V?$allocator@D@2@@std@@QAE@XZ ; std::basic_string<char,std::char_traits<char>,std::allocator<char> >::~basic_string<char,std::char_traits<char>,std::allocator<char> >
__unwindfunclet$?LoadRaceData@CRaceData@@QAEHPBD@Z$6:
  00033	8d 4d d8	 lea	 ecx, DWORD PTR $T59[ebp]
  00036	e9 00 00 00 00	 jmp	 ??1?$basic_string@DU?$char_traits@D@std@@V?$allocator@D@2@@std@@QAE@XZ ; std::basic_string<char,std::char_traits<char>,std::allocator<char> >::~basic_string<char,std::char_traits<char>,std::allocator<char> >
__unwindfunclet$?LoadRaceData@CRaceData@@QAEHPBD@Z$7:
  0003b	8d 8d 60 ff ff
	ff		 lea	 ecx, DWORD PTR _strPathName$28[ebp]
  00041	e9 00 00 00 00	 jmp	 ??1?$basic_string@DU?$char_traits@D@std@@V?$allocator@D@2@@std@@QAE@XZ ; std::basic_string<char,std::char_traits<char>,std::allocator<char> >::~basic_string<char,std::char_traits<char>,std::allocator<char> >
__unwindfunclet$?LoadRaceData@CRaceData@@QAEHPBD@Z$8:
  00046	8b 85 b8 fe ff
	ff		 mov	 eax, DWORD PTR $T7[ebp]
  0004c	83 e0 01	 and	 eax, 1
  0004f	0f 84 0f 00 00
	00		 je	 $LN60@LoadRaceDa
  00055	83 a5 b8 fe ff
	ff fe		 and	 DWORD PTR $T7[ebp], -2	; fffffffeH
  0005c	8d 4d d8	 lea	 ecx, DWORD PTR $T58[ebp]
  0005f	e9 00 00 00 00	 jmp	 ??1?$basic_string@DU?$char_traits@D@std@@V?$allocator@D@2@@std@@QAE@XZ ; std::basic_string<char,std::char_traits<char>,std::allocator<char> >::~basic_string<char,std::char_traits<char>,std::allocator<char> >
$LN60@LoadRaceDa:
  00064	c3		 ret	 0
__unwindfunclet$?LoadRaceData@CRaceData@@QAEHPBD@Z$9:
  00065	8b 85 b8 fe ff
	ff		 mov	 eax, DWORD PTR $T7[ebp]
  0006b	83 e0 02	 and	 eax, 2
  0006e	0f 84 0f 00 00
	00		 je	 $LN62@LoadRaceDa
  00074	83 a5 b8 fe ff
	ff fd		 and	 DWORD PTR $T7[ebp], -3	; fffffffdH
  0007b	8d 4d a8	 lea	 ecx, DWORD PTR $T35[ebp]
  0007e	e9 00 00 00 00	 jmp	 ??1?$basic_string@DU?$char_traits@D@std@@V?$allocator@D@2@@std@@QAE@XZ ; std::basic_string<char,std::char_traits<char>,std::allocator<char> >::~basic_string<char,std::char_traits<char>,std::allocator<char> >
$LN62@LoadRaceDa:
  00083	c3		 ret	 0
__unwindfunclet$?LoadRaceData@CRaceData@@QAEHPBD@Z$10:
  00084	8d 4d d8	 lea	 ecx, DWORD PTR $T57[ebp]
  00087	e9 00 00 00 00	 jmp	 ??1?$basic_string@DU?$char_traits@D@std@@V?$allocator@D@2@@std@@QAE@XZ ; std::basic_string<char,std::char_traits<char>,std::allocator<char> >::~basic_string<char,std::char_traits<char>,std::allocator<char> >
__unwindfunclet$?LoadRaceData@CRaceData@@QAEHPBD@Z$11:
  0008c	8d 4d d8	 lea	 ecx, DWORD PTR $T56[ebp]
  0008f	e9 00 00 00 00	 jmp	 ??1?$basic_string@DU?$char_traits@D@std@@V?$allocator@D@2@@std@@QAE@XZ ; std::basic_string<char,std::char_traits<char>,std::allocator<char> >::~basic_string<char,std::char_traits<char>,std::allocator<char> >
__unwindfunclet$?LoadRaceData@CRaceData@@QAEHPBD@Z$12:
  00094	8d 4d d8	 lea	 ecx, DWORD PTR $T55[ebp]
  00097	e9 00 00 00 00	 jmp	 ??1?$basic_string@DU?$char_traits@D@std@@V?$allocator@D@2@@std@@QAE@XZ ; std::basic_string<char,std::char_traits<char>,std::allocator<char> >::~basic_string<char,std::char_traits<char>,std::allocator<char> >
__unwindfunclet$?LoadRaceData@CRaceData@@QAEHPBD@Z$13:
  0009c	8d 4d a8	 lea	 ecx, DWORD PTR _strModel$34[ebp]
  0009f	e9 00 00 00 00	 jmp	 ??1?$basic_string@DU?$char_traits@D@std@@V?$allocator@D@2@@std@@QAE@XZ ; std::basic_string<char,std::char_traits<char>,std::allocator<char> >::~basic_string<char,std::char_traits<char>,std::allocator<char> >
__unwindfunclet$?LoadRaceData@CRaceData@@QAEHPBD@Z$14:
  000a4	8d 4d d8	 lea	 ecx, DWORD PTR $T54[ebp]
  000a7	e9 00 00 00 00	 jmp	 ??1?$basic_string@DU?$char_traits@D@std@@V?$allocator@D@2@@std@@QAE@XZ ; std::basic_string<char,std::char_traits<char>,std::allocator<char> >::~basic_string<char,std::char_traits<char>,std::allocator<char> >
__unwindfunclet$?LoadRaceData@CRaceData@@QAEHPBD@Z$15:
  000ac	8d 8d 48 ff ff
	ff		 lea	 ecx, DWORD PTR $T25[ebp]
  000b2	e9 00 00 00 00	 jmp	 ??1?$basic_string@DU?$char_traits@D@std@@V?$allocator@D@2@@std@@QAE@XZ ; std::basic_string<char,std::char_traits<char>,std::allocator<char> >::~basic_string<char,std::char_traits<char>,std::allocator<char> >
__unwindfunclet$?LoadRaceData@CRaceData@@QAEHPBD@Z$16:
  000b7	8d 4d d8	 lea	 ecx, DWORD PTR $T53[ebp]
  000ba	e9 00 00 00 00	 jmp	 ??1?$basic_string@DU?$char_traits@D@std@@V?$allocator@D@2@@std@@QAE@XZ ; std::basic_string<char,std::char_traits<char>,std::allocator<char> >::~basic_string<char,std::char_traits<char>,std::allocator<char> >
__unwindfunclet$?LoadRaceData@CRaceData@@QAEHPBD@Z$17:
  000bf	8d 8d 78 ff ff
	ff		 lea	 ecx, DWORD PTR _strSourceSkin$30[ebp]
  000c5	e9 00 00 00 00	 jmp	 ??1?$basic_string@DU?$char_traits@D@std@@V?$allocator@D@2@@std@@QAE@XZ ; std::basic_string<char,std::char_traits<char>,std::allocator<char> >::~basic_string<char,std::char_traits<char>,std::allocator<char> >
__unwindfunclet$?LoadRaceData@CRaceData@@QAEHPBD@Z$18:
  000ca	8d 4d 90	 lea	 ecx, DWORD PTR _strTargetSkin$32[ebp]
  000cd	e9 00 00 00 00	 jmp	 ??1?$basic_string@DU?$char_traits@D@std@@V?$allocator@D@2@@std@@QAE@XZ ; std::basic_string<char,std::char_traits<char>,std::allocator<char> >::~basic_string<char,std::char_traits<char>,std::allocator<char> >
__unwindfunclet$?LoadRaceData@CRaceData@@QAEHPBD@Z$19:
  000d2	8b 85 b8 fe ff
	ff		 mov	 eax, DWORD PTR $T7[ebp]
  000d8	83 e0 04	 and	 eax, 4
  000db	0f 84 0f 00 00
	00		 je	 $LN75@LoadRaceDa
  000e1	83 a5 b8 fe ff
	ff fb		 and	 DWORD PTR $T7[ebp], -5	; fffffffbH
  000e8	8d 4d c0	 lea	 ecx, DWORD PTR $T46[ebp]
  000eb	e9 00 00 00 00	 jmp	 ??1?$basic_string@DU?$char_traits@D@std@@V?$allocator@D@2@@std@@QAE@XZ ; std::basic_string<char,std::char_traits<char>,std::allocator<char> >::~basic_string<char,std::char_traits<char>,std::allocator<char> >
$LN75@LoadRaceDa:
  000f0	c3		 ret	 0
__unwindfunclet$?LoadRaceData@CRaceData@@QAEHPBD@Z$20:
  000f1	8b 85 b8 fe ff
	ff		 mov	 eax, DWORD PTR $T7[ebp]
  000f7	83 e0 08	 and	 eax, 8
  000fa	0f 84 0f 00 00
	00		 je	 $LN77@LoadRaceDa
  00100	83 a5 b8 fe ff
	ff f7		 and	 DWORD PTR $T7[ebp], -9	; fffffff7H
  00107	8d 4d d8	 lea	 ecx, DWORD PTR $T52[ebp]
  0010a	e9 00 00 00 00	 jmp	 ??1?$basic_string@DU?$char_traits@D@std@@V?$allocator@D@2@@std@@QAE@XZ ; std::basic_string<char,std::char_traits<char>,std::allocator<char> >::~basic_string<char,std::char_traits<char>,std::allocator<char> >
$LN77@LoadRaceDa:
  0010f	c3		 ret	 0
__unwindfunclet$?LoadRaceData@CRaceData@@QAEHPBD@Z$21:
  00110	8b 85 b8 fe ff
	ff		 mov	 eax, DWORD PTR $T7[ebp]
  00116	83 e0 10	 and	 eax, 16			; 00000010H
  00119	0f 84 0f 00 00
	00		 je	 $LN81@LoadRaceDa
  0011f	83 a5 b8 fe ff
	ff ef		 and	 DWORD PTR $T7[ebp], -17	; ffffffefH
  00126	8d 4d c0	 lea	 ecx, DWORD PTR $T45[ebp]
  00129	e9 00 00 00 00	 jmp	 ??1?$basic_string@DU?$char_traits@D@std@@V?$allocator@D@2@@std@@QAE@XZ ; std::basic_string<char,std::char_traits<char>,std::allocator<char> >::~basic_string<char,std::char_traits<char>,std::allocator<char> >
$LN81@LoadRaceDa:
  0012e	c3		 ret	 0
__unwindfunclet$?LoadRaceData@CRaceData@@QAEHPBD@Z$22:
  0012f	8b 85 b8 fe ff
	ff		 mov	 eax, DWORD PTR $T7[ebp]
  00135	83 e0 20	 and	 eax, 32			; 00000020H
  00138	0f 84 0f 00 00
	00		 je	 $LN83@LoadRaceDa
  0013e	83 a5 b8 fe ff
	ff df		 and	 DWORD PTR $T7[ebp], -33	; ffffffdfH
  00145	8d 4d d8	 lea	 ecx, DWORD PTR $T51[ebp]
  00148	e9 00 00 00 00	 jmp	 ??1?$basic_string@DU?$char_traits@D@std@@V?$allocator@D@2@@std@@QAE@XZ ; std::basic_string<char,std::char_traits<char>,std::allocator<char> >::~basic_string<char,std::char_traits<char>,std::allocator<char> >
$LN83@LoadRaceDa:
  0014d	c3		 ret	 0
__unwindfunclet$?LoadRaceData@CRaceData@@QAEHPBD@Z$23:
  0014e	8d 4d c0	 lea	 ecx, DWORD PTR $T44[ebp]
  00151	e9 00 00 00 00	 jmp	 ??1?$basic_string@DU?$char_traits@D@std@@V?$allocator@D@2@@std@@QAE@XZ ; std::basic_string<char,std::char_traits<char>,std::allocator<char> >::~basic_string<char,std::char_traits<char>,std::allocator<char> >
__unwindfunclet$?LoadRaceData@CRaceData@@QAEHPBD@Z$24:
  00156	8d 8d 48 ff ff
	ff		 lea	 ecx, DWORD PTR $T24[ebp]
  0015c	e9 00 00 00 00	 jmp	 ??1?$basic_string@DU?$char_traits@D@std@@V?$allocator@D@2@@std@@QAE@XZ ; std::basic_string<char,std::char_traits<char>,std::allocator<char> >::~basic_string<char,std::char_traits<char>,std::allocator<char> >
__unwindfunclet$?LoadRaceData@CRaceData@@QAEHPBD@Z$25:
  00161	8b 85 b8 fe ff
	ff		 mov	 eax, DWORD PTR $T7[ebp]
  00167	83 e0 40	 and	 eax, 64			; 00000040H
  0016a	0f 84 0f 00 00
	00		 je	 $LN89@LoadRaceDa
  00170	83 a5 b8 fe ff
	ff bf		 and	 DWORD PTR $T7[ebp], -65	; ffffffbfH
  00177	8d 4d c0	 lea	 ecx, DWORD PTR $T43[ebp]
  0017a	e9 00 00 00 00	 jmp	 ??1?$basic_string@DU?$char_traits@D@std@@V?$allocator@D@2@@std@@QAE@XZ ; std::basic_string<char,std::char_traits<char>,std::allocator<char> >::~basic_string<char,std::char_traits<char>,std::allocator<char> >
$LN89@LoadRaceDa:
  0017f	c3		 ret	 0
__unwindfunclet$?LoadRaceData@CRaceData@@QAEHPBD@Z$26:
  00180	8b 85 b8 fe ff
	ff		 mov	 eax, DWORD PTR $T7[ebp]
  00186	25 80 00 00 00	 and	 eax, 128		; 00000080H
  0018b	0f 84 12 00 00
	00		 je	 $LN91@LoadRaceDa
  00191	81 a5 b8 fe ff
	ff 7f ff ff ff	 and	 DWORD PTR $T7[ebp], -129 ; ffffff7fH
  0019b	8d 4d d8	 lea	 ecx, DWORD PTR $T50[ebp]
  0019e	e9 00 00 00 00	 jmp	 ??1?$basic_string@DU?$char_traits@D@std@@V?$allocator@D@2@@std@@QAE@XZ ; std::basic_string<char,std::char_traits<char>,std::allocator<char> >::~basic_string<char,std::char_traits<char>,std::allocator<char> >
$LN91@LoadRaceDa:
  001a3	c3		 ret	 0
__unwindfunclet$?LoadRaceData@CRaceData@@QAEHPBD@Z$27:
  001a4	8d 4d c0	 lea	 ecx, DWORD PTR $T42[ebp]
  001a7	e9 00 00 00 00	 jmp	 ??1?$basic_string@DU?$char_traits@D@std@@V?$allocator@D@2@@std@@QAE@XZ ; std::basic_string<char,std::char_traits<char>,std::allocator<char> >::~basic_string<char,std::char_traits<char>,std::allocator<char> >
__unwindfunclet$?LoadRaceData@CRaceData@@QAEHPBD@Z$28:
  001ac	8d 8d 48 ff ff
	ff		 lea	 ecx, DWORD PTR $T23[ebp]
  001b2	e9 00 00 00 00	 jmp	 ??1?$basic_string@DU?$char_traits@D@std@@V?$allocator@D@2@@std@@QAE@XZ ; std::basic_string<char,std::char_traits<char>,std::allocator<char> >::~basic_string<char,std::char_traits<char>,std::allocator<char> >
__unwindfunclet$?LoadRaceData@CRaceData@@QAEHPBD@Z$29:
  001b7	8d 4d 90	 lea	 ecx, DWORD PTR _strPathName$31[ebp]
  001ba	e9 00 00 00 00	 jmp	 ??1?$basic_string@DU?$char_traits@D@std@@V?$allocator@D@2@@std@@QAE@XZ ; std::basic_string<char,std::char_traits<char>,std::allocator<char> >::~basic_string<char,std::char_traits<char>,std::allocator<char> >
__unwindfunclet$?LoadRaceData@CRaceData@@QAEHPBD@Z$30:
  001bf	8b 85 b8 fe ff
	ff		 mov	 eax, DWORD PTR $T7[ebp]
  001c5	25 00 01 00 00	 and	 eax, 256		; 00000100H
  001ca	0f 84 12 00 00
	00		 je	 $LN98@LoadRaceDa
  001d0	81 a5 b8 fe ff
	ff ff fe ff ff	 and	 DWORD PTR $T7[ebp], -257 ; fffffeffH
  001da	8d 4d c0	 lea	 ecx, DWORD PTR $T41[ebp]
  001dd	e9 00 00 00 00	 jmp	 ??1?$basic_string@DU?$char_traits@D@std@@V?$allocator@D@2@@std@@QAE@XZ ; std::basic_string<char,std::char_traits<char>,std::allocator<char> >::~basic_string<char,std::char_traits<char>,std::allocator<char> >
$LN98@LoadRaceDa:
  001e2	c3		 ret	 0
__unwindfunclet$?LoadRaceData@CRaceData@@QAEHPBD@Z$31:
  001e3	8b 85 b8 fe ff
	ff		 mov	 eax, DWORD PTR $T7[ebp]
  001e9	25 00 02 00 00	 and	 eax, 512		; 00000200H
  001ee	0f 84 12 00 00
	00		 je	 $LN100@LoadRaceDa
  001f4	81 a5 b8 fe ff
	ff ff fd ff ff	 and	 DWORD PTR $T7[ebp], -513 ; fffffdffH
  001fe	8d 4d d8	 lea	 ecx, DWORD PTR $T49[ebp]
  00201	e9 00 00 00 00	 jmp	 ??1?$basic_string@DU?$char_traits@D@std@@V?$allocator@D@2@@std@@QAE@XZ ; std::basic_string<char,std::char_traits<char>,std::allocator<char> >::~basic_string<char,std::char_traits<char>,std::allocator<char> >
$LN100@LoadRaceDa:
  00206	c3		 ret	 0
__unwindfunclet$?LoadRaceData@CRaceData@@QAEHPBD@Z$32:
  00207	8d 4d c0	 lea	 ecx, DWORD PTR $T40[ebp]
  0020a	e9 00 00 00 00	 jmp	 ??1?$basic_string@DU?$char_traits@D@std@@V?$allocator@D@2@@std@@QAE@XZ ; std::basic_string<char,std::char_traits<char>,std::allocator<char> >::~basic_string<char,std::char_traits<char>,std::allocator<char> >
__unwindfunclet$?LoadRaceData@CRaceData@@QAEHPBD@Z$33:
  0020f	8d 4d c0	 lea	 ecx, DWORD PTR $T39[ebp]
  00212	e9 00 00 00 00	 jmp	 ??1?$basic_string@DU?$char_traits@D@std@@V?$allocator@D@2@@std@@QAE@XZ ; std::basic_string<char,std::char_traits<char>,std::allocator<char> >::~basic_string<char,std::char_traits<char>,std::allocator<char> >
__unwindfunclet$?LoadRaceData@CRaceData@@QAEHPBD@Z$34:
  00217	8d 4d c0	 lea	 ecx, DWORD PTR $T38[ebp]
  0021a	e9 00 00 00 00	 jmp	 ??1?$basic_string@DU?$char_traits@D@std@@V?$allocator@D@2@@std@@QAE@XZ ; std::basic_string<char,std::char_traits<char>,std::allocator<char> >::~basic_string<char,std::char_traits<char>,std::allocator<char> >
__unwindfunclet$?LoadRaceData@CRaceData@@QAEHPBD@Z$35:
  0021f	8d 8d 48 ff ff
	ff		 lea	 ecx, DWORD PTR _strModel$22[ebp]
  00225	e9 00 00 00 00	 jmp	 ??1?$basic_string@DU?$char_traits@D@std@@V?$allocator@D@2@@std@@QAE@XZ ; std::basic_string<char,std::char_traits<char>,std::allocator<char> >::~basic_string<char,std::char_traits<char>,std::allocator<char> >
__unwindfunclet$?LoadRaceData@CRaceData@@QAEHPBD@Z$36:
  0022a	8d 8d 78 ff ff
	ff		 lea	 ecx, DWORD PTR _strSourceSkin$29[ebp]
  00230	e9 00 00 00 00	 jmp	 ??1?$basic_string@DU?$char_traits@D@std@@V?$allocator@D@2@@std@@QAE@XZ ; std::basic_string<char,std::char_traits<char>,std::allocator<char> >::~basic_string<char,std::char_traits<char>,std::allocator<char> >
__unwindfunclet$?LoadRaceData@CRaceData@@QAEHPBD@Z$37:
  00235	8d 4d a8	 lea	 ecx, DWORD PTR _strTargetSkin$33[ebp]
  00238	e9 00 00 00 00	 jmp	 ??1?$basic_string@DU?$char_traits@D@std@@V?$allocator@D@2@@std@@QAE@XZ ; std::basic_string<char,std::char_traits<char>,std::allocator<char> >::~basic_string<char,std::char_traits<char>,std::allocator<char> >
__unwindfunclet$?LoadRaceData@CRaceData@@QAEHPBD@Z$38:
  0023d	8b 85 b8 fe ff
	ff		 mov	 eax, DWORD PTR $T7[ebp]
  00243	25 00 04 00 00	 and	 eax, 1024		; 00000400H
  00248	0f 84 12 00 00
	00		 je	 $LN110@LoadRaceDa
  0024e	81 a5 b8 fe ff
	ff ff fb ff ff	 and	 DWORD PTR $T7[ebp], -1025 ; fffffbffH
  00258	8d 4d c0	 lea	 ecx, DWORD PTR $T37[ebp]
  0025b	e9 00 00 00 00	 jmp	 ??1?$basic_string@DU?$char_traits@D@std@@V?$allocator@D@2@@std@@QAE@XZ ; std::basic_string<char,std::char_traits<char>,std::allocator<char> >::~basic_string<char,std::char_traits<char>,std::allocator<char> >
$LN110@LoadRaceDa:
  00260	c3		 ret	 0
__unwindfunclet$?LoadRaceData@CRaceData@@QAEHPBD@Z$39:
  00261	8b 85 b8 fe ff
	ff		 mov	 eax, DWORD PTR $T7[ebp]
  00267	25 00 08 00 00	 and	 eax, 2048		; 00000800H
  0026c	0f 84 15 00 00
	00		 je	 $LN112@LoadRaceDa
  00272	81 a5 b8 fe ff
	ff ff f7 ff ff	 and	 DWORD PTR $T7[ebp], -2049 ; fffff7ffH
  0027c	8d 8d 60 ff ff
	ff		 lea	 ecx, DWORD PTR $T27[ebp]
  00282	e9 00 00 00 00	 jmp	 ??1?$basic_string@DU?$char_traits@D@std@@V?$allocator@D@2@@std@@QAE@XZ ; std::basic_string<char,std::char_traits<char>,std::allocator<char> >::~basic_string<char,std::char_traits<char>,std::allocator<char> >
$LN112@LoadRaceDa:
  00287	c3		 ret	 0
__unwindfunclet$?LoadRaceData@CRaceData@@QAEHPBD@Z$40:
  00288	8b 85 b8 fe ff
	ff		 mov	 eax, DWORD PTR $T7[ebp]
  0028e	25 00 10 00 00	 and	 eax, 4096		; 00001000H
  00293	0f 84 12 00 00
	00		 je	 $LN114@LoadRaceDa
  00299	81 a5 b8 fe ff
	ff ff ef ff ff	 and	 DWORD PTR $T7[ebp], -4097 ; ffffefffH
  002a3	8d 4d d8	 lea	 ecx, DWORD PTR $T48[ebp]
  002a6	e9 00 00 00 00	 jmp	 ??1?$basic_string@DU?$char_traits@D@std@@V?$allocator@D@2@@std@@QAE@XZ ; std::basic_string<char,std::char_traits<char>,std::allocator<char> >::~basic_string<char,std::char_traits<char>,std::allocator<char> >
$LN114@LoadRaceDa:
  002ab	c3		 ret	 0
__unwindfunclet$?LoadRaceData@CRaceData@@QAEHPBD@Z$41:
  002ac	8d 8d 60 ff ff
	ff		 lea	 ecx, DWORD PTR $T26[ebp]
  002b2	e9 00 00 00 00	 jmp	 ??1?$basic_string@DU?$char_traits@D@std@@V?$allocator@D@2@@std@@QAE@XZ ; std::basic_string<char,std::char_traits<char>,std::allocator<char> >::~basic_string<char,std::char_traits<char>,std::allocator<char> >
__unwindfunclet$?LoadRaceData@CRaceData@@QAEHPBD@Z$42:
  002b7	8d 4d d8	 lea	 ecx, DWORD PTR $T47[ebp]
  002ba	e9 00 00 00 00	 jmp	 ??1?$basic_string@DU?$char_traits@D@std@@V?$allocator@D@2@@std@@QAE@XZ ; std::basic_string<char,std::char_traits<char>,std::allocator<char> >::~basic_string<char,std::char_traits<char>,std::allocator<char> >
__unwindfunclet$?LoadRaceData@CRaceData@@QAEHPBD@Z$43:
  002bf	8d 4d c0	 lea	 ecx, DWORD PTR $T36[ebp]
  002c2	e9 00 00 00 00	 jmp	 ??1?$basic_string@DU?$char_traits@D@std@@V?$allocator@D@2@@std@@QAE@XZ ; std::basic_string<char,std::char_traits<char>,std::allocator<char> >::~basic_string<char,std::char_traits<char>,std::allocator<char> >
  002c7	cc		 int	 3
  002c8	cc		 int	 3
  002c9	cc		 int	 3
  002ca	cc		 int	 3
  002cb	cc		 int	 3
__ehhandler$?LoadRaceData@CRaceData@@QAEHPBD@Z:
  002cc	90		 npad	 1
  002cd	90		 npad	 1
  002ce	8b 54 24 08	 mov	 edx, DWORD PTR [esp+8]
  002d2	8d 42 0c	 lea	 eax, DWORD PTR [edx+12]
  002d5	8b 8a a4 fe ff
	ff		 mov	 ecx, DWORD PTR [edx-348]
  002db	33 c8		 xor	 ecx, eax
  002dd	e8 00 00 00 00	 call	 @__security_check_cookie@4
  002e2	8b 4a fc	 mov	 ecx, DWORD PTR [edx-4]
  002e5	33 c8		 xor	 ecx, eax
  002e7	e8 00 00 00 00	 call	 @__security_check_cookie@4
  002ec	b8 00 00 00 00	 mov	 eax, OFFSET __ehfuncinfo$?LoadRaceData@CRaceData@@QAEHPBD@Z
  002f1	e9 00 00 00 00	 jmp	 ___CxxFrameHandler3
text$x	ENDS
?LoadRaceData@CRaceData@@QAEHPBD@Z ENDP			; CRaceData::LoadRaceData
; Function compile flags: /Ogtp
; File C:\Program Files (x86)\Microsoft Visual Studio\2019\Community\VC\Tools\MSVC\14.27.29110\include\xmemory
;	COMDAT ??$_Allocate_manually_vector_aligned@U_Default_allocate_traits@std@@@std@@YAPAXI@Z
_TEXT	SEGMENT
__Bytes$ = 8						; size = 4
??$_Allocate_manually_vector_aligned@U_Default_allocate_traits@std@@@std@@YAPAXI@Z PROC ; std::_Allocate_manually_vector_aligned<std::_Default_allocate_traits>, COMDAT

; 113  : __declspec(allocator) void* _Allocate_manually_vector_aligned(const size_t _Bytes) {

  00000	55		 push	 ebp
  00001	8b ec		 mov	 ebp, esp

; 114  :     // allocate _Bytes manually aligned to at least _Big_allocation_alignment
; 115  :     const size_t _Block_size = _Non_user_size + _Bytes;

  00003	8b 45 08	 mov	 eax, DWORD PTR __Bytes$[ebp]
  00006	8d 48 23	 lea	 ecx, DWORD PTR [eax+35]

; 116  :     if (_Block_size <= _Bytes) {

  00009	3b c8		 cmp	 ecx, eax
  0000b	0f 86 00 00 00
	00		 jbe	 ?_Throw_bad_array_new_length@std@@YAXXZ ; std::_Throw_bad_array_new_length

; 77   :         return ::operator new(_Bytes);

  00011	51		 push	 ecx
  00012	e8 00 00 00 00	 call	 ??2@YAPAXI@Z		; operator new

; 117  :         _Throw_bad_array_new_length(); // add overflow
; 118  :     }
; 119  : 
; 120  :     const uintptr_t _Ptr_container = reinterpret_cast<uintptr_t>(_Traits::_Allocate(_Block_size));

  00017	8b c8		 mov	 ecx, eax

; 77   :         return ::operator new(_Bytes);

  00019	83 c4 04	 add	 esp, 4

; 121  :     _STL_VERIFY(_Ptr_container != 0, "invalid argument"); // validate even in release since we're doing p[-1]

  0001c	85 c9		 test	 ecx, ecx
  0001e	74 0b		 je	 SHORT $LN7@Allocate_m

; 122  :     void* const _Ptr = reinterpret_cast<void*>((_Ptr_container + _Non_user_size) & ~(_Big_allocation_alignment - 1));

  00020	8d 41 23	 lea	 eax, DWORD PTR [ecx+35]
  00023	83 e0 e0	 and	 eax, -32		; ffffffe0H

; 123  :     static_cast<uintptr_t*>(_Ptr)[-1] = _Ptr_container;

  00026	89 48 fc	 mov	 DWORD PTR [eax-4], ecx

; 124  : 
; 125  : #ifdef _DEBUG
; 126  :     static_cast<uintptr_t*>(_Ptr)[-2] = _Big_allocation_sentinel;
; 127  : #endif // _DEBUG
; 128  :     return _Ptr;
; 129  : }

  00029	5d		 pop	 ebp
  0002a	c3		 ret	 0
$LN7@Allocate_m:

; 121  :     _STL_VERIFY(_Ptr_container != 0, "invalid argument"); // validate even in release since we're doing p[-1]

  0002b	e9 00 00 00 00	 jmp	 __invalid_parameter_noinfo_noreturn
??$_Allocate_manually_vector_aligned@U_Default_allocate_traits@std@@@std@@YAPAXI@Z ENDP ; std::_Allocate_manually_vector_aligned<std::_Default_allocate_traits>
_TEXT	ENDS
; Function compile flags: /Ogtp
; File C:\Program Files (x86)\Microsoft Visual Studio\2019\Community\VC\Tools\MSVC\14.27.29110\include\xmemory
;	COMDAT ??$_Allocate@$07U_Default_allocate_traits@std@@$0A@@std@@YAPAXI@Z
_TEXT	SEGMENT
__Bytes$ = 8						; size = 4
??$_Allocate@$07U_Default_allocate_traits@std@@$0A@@std@@YAPAXI@Z PROC ; std::_Allocate<8,std::_Default_allocate_traits,0>, COMDAT

; 197  : __declspec(allocator) void* _Allocate(const size_t _Bytes) {

  00000	55		 push	 ebp
  00001	8b ec		 mov	 ebp, esp

; 198  :     // allocate _Bytes when !_HAS_ALIGNED_NEW || _Align <= __STDCPP_DEFAULT_NEW_ALIGNMENT__
; 199  : #if defined(_M_IX86) || defined(_M_X64)
; 200  :     if (_Bytes >= _Big_allocation_threshold) { // boost the alignment of big allocations to help autovectorization

  00003	8b 45 08	 mov	 eax, DWORD PTR __Bytes$[ebp]
  00006	3d 00 10 00 00	 cmp	 eax, 4096		; 00001000H
  0000b	72 09		 jb	 SHORT $LN2@Allocate

; 201  :         return _Allocate_manually_vector_aligned<_Traits>(_Bytes);

  0000d	89 45 08	 mov	 DWORD PTR __Bytes$[ebp], eax

; 210  : }

  00010	5d		 pop	 ebp

; 201  :         return _Allocate_manually_vector_aligned<_Traits>(_Bytes);

  00011	e9 00 00 00 00	 jmp	 ??$_Allocate_manually_vector_aligned@U_Default_allocate_traits@std@@@std@@YAPAXI@Z ; std::_Allocate_manually_vector_aligned<std::_Default_allocate_traits>
$LN2@Allocate:

; 202  :     }
; 203  : #endif // defined(_M_IX86) || defined(_M_X64)
; 204  : 
; 205  :     if (_Bytes != 0) {

  00016	85 c0		 test	 eax, eax
  00018	74 09		 je	 SHORT $LN3@Allocate

; 77   :         return ::operator new(_Bytes);

  0001a	89 45 08	 mov	 DWORD PTR __Bytes$[ebp], eax

; 210  : }

  0001d	5d		 pop	 ebp

; 77   :         return ::operator new(_Bytes);

  0001e	e9 00 00 00 00	 jmp	 ??2@YAPAXI@Z		; operator new
$LN3@Allocate:

; 206  :         return _Traits::_Allocate(_Bytes);
; 207  :     }
; 208  : 
; 209  :     return nullptr;

  00023	33 c0		 xor	 eax, eax

; 210  : }

  00025	5d		 pop	 ebp
  00026	c3		 ret	 0
??$_Allocate@$07U_Default_allocate_traits@std@@$0A@@std@@YAPAXI@Z ENDP ; std::_Allocate<8,std::_Default_allocate_traits,0>
_TEXT	ENDS
; Function compile flags: /Ogtp
; File C:\Program Files (x86)\Microsoft Visual Studio\2019\Community\VC\Tools\MSVC\14.27.29110\include\xmemory
;	COMDAT ??$_Deallocate@$07$0A@@std@@YAXPAXI@Z
_TEXT	SEGMENT
__Ptr$ = 8						; size = 4
__Bytes$ = 12						; size = 4
??$_Deallocate@$07$0A@@std@@YAXPAXI@Z PROC		; std::_Deallocate<8,0>, COMDAT

; 213  : void _Deallocate(void* _Ptr, size_t _Bytes) noexcept {

  00000	55		 push	 ebp
  00001	8b ec		 mov	 ebp, esp

; 214  :     // deallocate storage allocated by _Allocate when !_HAS_ALIGNED_NEW || _Align <= __STDCPP_DEFAULT_NEW_ALIGNMENT__
; 215  : #if defined(_M_IX86) || defined(_M_X64)
; 216  :     if (_Bytes >= _Big_allocation_threshold) { // boost the alignment of big allocations to help autovectorization

  00003	8b 4d 0c	 mov	 ecx, DWORD PTR __Bytes$[ebp]
  00006	81 f9 00 10 00
	00		 cmp	 ecx, 4096		; 00001000H
  0000c	72 18		 jb	 SHORT $LN15@Deallocate

; 137  :     const uintptr_t _Ptr_container   = _Ptr_user[-1];

  0000e	8b 45 08	 mov	 eax, DWORD PTR __Ptr$[ebp]
  00011	83 c1 23	 add	 ecx, 35			; 00000023H
  00014	8b 50 fc	 mov	 edx, DWORD PTR [eax-4]

; 138  : 
; 139  :     // If the following asserts, it likely means that we are performing
; 140  :     // an aligned delete on memory coming from an unaligned allocation.
; 141  :     _STL_ASSERT(_Ptr_user[-2] == _Big_allocation_sentinel, "invalid argument");
; 142  : 
; 143  :     // Extra paranoia on aligned allocation/deallocation; ensure _Ptr_container is
; 144  :     // in range [_Min_back_shift, _Non_user_size]
; 145  : #ifdef _DEBUG
; 146  :     constexpr uintptr_t _Min_back_shift = 2 * sizeof(void*);
; 147  : #else // ^^^ _DEBUG ^^^ // vvv !_DEBUG vvv
; 148  :     constexpr uintptr_t _Min_back_shift = sizeof(void*);
; 149  : #endif // _DEBUG
; 150  :     const uintptr_t _Back_shift = reinterpret_cast<uintptr_t>(_Ptr) - _Ptr_container;

  00017	2b c2		 sub	 eax, edx

; 151  :     _STL_VERIFY(_Back_shift >= _Min_back_shift && _Back_shift <= _Non_user_size, "invalid argument");

  00019	83 c0 fc	 add	 eax, -4			; fffffffcH
  0001c	83 f8 1f	 cmp	 eax, 31			; 0000001fH
  0001f	76 08		 jbe	 SHORT $LN13@Deallocate
  00021	e9 00 00 00 00	 jmp	 __invalid_parameter_noinfo_noreturn
$LN15@Deallocate:

; 214  :     // deallocate storage allocated by _Allocate when !_HAS_ALIGNED_NEW || _Align <= __STDCPP_DEFAULT_NEW_ALIGNMENT__
; 215  : #if defined(_M_IX86) || defined(_M_X64)
; 216  :     if (_Bytes >= _Big_allocation_threshold) { // boost the alignment of big allocations to help autovectorization

  00026	8b 55 08	 mov	 edx, DWORD PTR __Ptr$[ebp]
$LN13@Deallocate:

; 217  :         _Adjust_manually_vector_aligned(_Ptr, _Bytes);
; 218  :     }
; 219  : #endif // defined(_M_IX86) || defined(_M_X64)
; 220  : 
; 221  :     ::operator delete(_Ptr, _Bytes);

  00029	89 4d 0c	 mov	 DWORD PTR __Bytes$[ebp], ecx
  0002c	89 55 08	 mov	 DWORD PTR __Ptr$[ebp], edx

; 222  : }

  0002f	5d		 pop	 ebp

; 217  :         _Adjust_manually_vector_aligned(_Ptr, _Bytes);
; 218  :     }
; 219  : #endif // defined(_M_IX86) || defined(_M_X64)
; 220  : 
; 221  :     ::operator delete(_Ptr, _Bytes);

  00030	e9 00 00 00 00	 jmp	 ??3@YAXPAXI@Z		; operator delete
??$_Deallocate@$07$0A@@std@@YAXPAXI@Z ENDP		; std::_Deallocate<8,0>
_TEXT	ENDS
; Function compile flags: /Ogtp
; File C:\Program Files (x86)\Microsoft Visual Studio\2019\Community\VC\Tools\MSVC\14.27.29110\include\xmemory
;	COMDAT ??$_Construct_in_place@PADABQAD@std@@YAXAAPADABQAD@Z
_TEXT	SEGMENT
__Obj$ = 8						; size = 4
_<_Args_0>$ = 12					; size = 4
??$_Construct_in_place@PADABQAD@std@@YAXAAPADABQAD@Z PROC ; std::_Construct_in_place<char *,char * const &>, COMDAT

; 228  : void _Construct_in_place(_Ty& _Obj, _Types&&... _Args) noexcept(is_nothrow_constructible_v<_Ty, _Types...>) {

  00000	55		 push	 ebp
  00001	8b ec		 mov	 ebp, esp

; 229  :     ::new (const_cast<void*>(static_cast<const volatile void*>(_STD addressof(_Obj))))

  00003	8b 45 0c	 mov	 eax, DWORD PTR _<_Args_0>$[ebp]
  00006	8b 08		 mov	 ecx, DWORD PTR [eax]
  00008	8b 45 08	 mov	 eax, DWORD PTR __Obj$[ebp]
  0000b	89 08		 mov	 DWORD PTR [eax], ecx

; 230  :         _Ty(_STD forward<_Types>(_Args)...);
; 231  : }

  0000d	5d		 pop	 ebp
  0000e	c3		 ret	 0
??$_Construct_in_place@PADABQAD@std@@YAXAAPADABQAD@Z ENDP ; std::_Construct_in_place<char *,char * const &>
_TEXT	ENDS
; Function compile flags: /Ogtp
; File C:\Program Files (x86)\Microsoft Visual Studio\2019\Community\VC\Tools\MSVC\14.27.29110\include\xmemory
;	COMDAT ??$_Destroy_in_place@PAD@std@@YAXAAPAD@Z
_TEXT	SEGMENT
__Obj$ = 8						; size = 4
??$_Destroy_in_place@PAD@std@@YAXAAPAD@Z PROC		; std::_Destroy_in_place<char *>, COMDAT

; 268  :     _Obj.~_Ty();
; 269  : }

  00000	c2 00 00	 ret	 0
??$_Destroy_in_place@PAD@std@@YAXAAPAD@Z ENDP		; std::_Destroy_in_place<char *>
_TEXT	ENDS
; Function compile flags: /Ogtp
; File C:\Program Files (x86)\Microsoft Visual Studio\2019\Community\VC\Tools\MSVC\14.27.29110\include\vector
;	COMDAT ?_Xrange@?$vector@V?$basic_string@DU?$char_traits@D@std@@V?$allocator@D@2@@std@@V?$allocator@V?$basic_string@DU?$char_traits@D@std@@V?$allocator@D@2@@std@@@2@@std@@CAXXZ
_TEXT	SEGMENT
?_Xrange@?$vector@V?$basic_string@DU?$char_traits@D@std@@V?$allocator@D@2@@std@@V?$allocator@V?$basic_string@DU?$char_traits@D@std@@V?$allocator@D@2@@std@@@2@@std@@CAXXZ PROC ; std::vector<std::basic_string<char,std::char_traits<char>,std::allocator<char> >,std::allocator<std::basic_string<char,std::char_traits<char>,std::allocator<char> > > >::_Xrange, COMDAT

; 1708 :         _Xout_of_range("invalid vector subscript");

  00000	68 00 00 00 00	 push	 OFFSET ??_C@_0BJ@DHFDPMIM@invalid?5vector?5subscript@
  00005	e8 00 00 00 00	 call	 ?_Xout_of_range@std@@YAXPBD@Z ; std::_Xout_of_range
$LN3@Xrange:
  0000a	cc		 int	 3
?_Xrange@?$vector@V?$basic_string@DU?$char_traits@D@std@@V?$allocator@D@2@@std@@V?$allocator@V?$basic_string@DU?$char_traits@D@std@@V?$allocator@D@2@@std@@@2@@std@@CAXXZ ENDP ; std::vector<std::basic_string<char,std::char_traits<char>,std::allocator<char> >,std::allocator<std::basic_string<char,std::char_traits<char>,std::allocator<char> > > >::_Xrange
_TEXT	ENDS
; Function compile flags: /Ogtp
; File C:\Program Files (x86)\Microsoft Visual Studio\2019\Community\VC\Tools\MSVC\14.27.29110\include\xstring
; File C:\Program Files (x86)\Microsoft Visual Studio\2019\Community\VC\Tools\MSVC\14.27.29110\include\utility
; File C:\Program Files (x86)\Microsoft Visual Studio\2019\Community\VC\Tools\MSVC\14.27.29110\include\xstring
; File C:\Program Files (x86)\Microsoft Visual Studio\2019\Community\VC\Tools\MSVC\14.27.29110\include\xmemory
; File C:\Program Files (x86)\Microsoft Visual Studio\2019\Community\VC\Tools\MSVC\14.27.29110\include\xstring
;	COMDAT ??$?HDU?$char_traits@D@std@@V?$allocator@D@1@@std@@YA?AV?$basic_string@DU?$char_traits@D@std@@V?$allocator@D@2@@0@ABV10@0@Z
_TEXT	SEGMENT
__Right_size$1$ = -12					; size = 4
__Fancyptr$1 = -8					; size = 4
__Left_size$1$ = -4					; size = 4
___$ReturnUdt$ = 8					; size = 4
__Ptr$1$ = 12						; size = 4
__Left$ = 12						; size = 4
__New_size$1$ = 16					; size = 4
__Right$ = 16						; size = 4
??$?HDU?$char_traits@D@std@@V?$allocator@D@1@@std@@YA?AV?$basic_string@DU?$char_traits@D@std@@V?$allocator@D@2@@0@ABV10@0@Z PROC ; std::operator+<char,std::char_traits<char>,std::allocator<char> >, COMDAT

; 4360 :     const basic_string<_Elem, _Traits, _Alloc>& _Left, const basic_string<_Elem, _Traits, _Alloc>& _Right) {

  00000	55		 push	 ebp
  00001	8b ec		 mov	 ebp, esp
  00003	83 ec 0c	 sub	 esp, 12			; 0000000cH
  00006	53		 push	 ebx

; 4361 :     const auto _Left_size  = _Left.size();
; 4362 :     const auto _Right_size = _Right.size();

  00007	8b 5d 10	 mov	 ebx, DWORD PTR __Right$[ebp]

; 4363 :     if (_Left.max_size() - _Left_size < _Right_size) {

  0000a	b8 ff ff ff 7f	 mov	 eax, 2147483647		; 7fffffffH
  0000f	56		 push	 esi
  00010	57		 push	 edi
  00011	8b 7d 0c	 mov	 edi, DWORD PTR __Left$[ebp]
  00014	8b 53 10	 mov	 edx, DWORD PTR [ebx+16]
  00017	89 55 f4	 mov	 DWORD PTR __Right_size$1$[ebp], edx
  0001a	8b 4f 10	 mov	 ecx, DWORD PTR [edi+16]
  0001d	2b c1		 sub	 eax, ecx
  0001f	89 4d fc	 mov	 DWORD PTR __Left_size$1$[ebp], ecx
  00022	3b c2		 cmp	 eax, edx
  00024	0f 82 ab 00 00
	00		 jb	 $LN41@operator

; 2153 :         return _BUF_SIZE <= _Myres;

  0002a	83 7f 14 10	 cmp	 DWORD PTR [edi+20], 16	; 00000010H

; 2145 :         if (_Large_string_engaged()) {

  0002e	72 02		 jb	 SHORT $LN9@operator

; 2146 :             _Result = _Unfancy(_Bx._Ptr);

  00030	8b 3f		 mov	 edi, DWORD PTR [edi]
$LN9@operator:

; 2153 :         return _BUF_SIZE <= _Myres;

  00032	83 7b 14 10	 cmp	 DWORD PTR [ebx+20], 16	; 00000010H

; 2145 :         if (_Large_string_engaged()) {

  00036	72 02		 jb	 SHORT $LN16@operator

; 2146 :             _Result = _Unfancy(_Bx._Ptr);

  00038	8b 1b		 mov	 ebx, DWORD PTR [ebx]
$LN16@operator:

; 2124 :     _String_val() : _Bx(), _Mysize(0), _Myres(0) {}

  0003a	8b 45 08	 mov	 eax, DWORD PTR ___$ReturnUdt$[ebp]

; 2447 :         const auto _New_size    = static_cast<size_type>(_Left_size + _Right_size);

  0003d	03 d1		 add	 edx, ecx

; 2448 :         size_type _New_capacity = _BUF_SIZE - 1;

  0003f	be 0f 00 00 00	 mov	 esi, 15			; 0000000fH
  00044	89 55 10	 mov	 DWORD PTR __New_size$1$[ebp], edx

; 2449 :         auto& _My_data          = _Mypair._Myval2;
; 2450 :         _Elem* _Ptr             = _My_data._Bx._Buf;

  00047	89 45 0c	 mov	 DWORD PTR __Ptr$1$[ebp], eax

; 2124 :     _String_val() : _Bx(), _Mysize(0), _Myres(0) {}

  0004a	c7 40 10 00 00
	00 00		 mov	 DWORD PTR [eax+16], 0
  00051	c7 40 14 00 00
	00 00		 mov	 DWORD PTR [eax+20], 0

; 2453 :         if (_New_capacity < _New_size) {

  00058	3b d6		 cmp	 edx, esi
  0005a	76 45		 jbe	 SHORT $LN21@operator

; 4201 :         const size_type _Masked = _Requested | _ALLOC_MASK;

  0005c	8b f2		 mov	 esi, edx
  0005e	83 ce 0f	 or	 esi, 15			; 0000000fH
  00061	81 fe ff ff ff
	7f		 cmp	 esi, 2147483647		; 7fffffffH

; 4202 :         if (_Masked > _Max) { // the mask overflows, settle for max_size()

  00067	76 07		 jbe	 SHORT $LN28@operator

; 4203 :             return _Max;

  00069	be ff ff ff 7f	 mov	 esi, 2147483647		; 7fffffffH
  0006e	eb 0a		 jmp	 SHORT $LN27@operator
$LN28@operator:
; File C:\Program Files (x86)\Microsoft Visual Studio\2019\Community\VC\Tools\MSVC\14.27.29110\include\utility

; 44   :     return _Left < _Right ? _Right : _Left;

  00070	b8 16 00 00 00	 mov	 eax, 22			; 00000016H
  00075	3b f0		 cmp	 esi, eax
  00077	0f 42 f0	 cmovb	 esi, eax
$LN27@operator:
; File C:\Program Files (x86)\Microsoft Visual Studio\2019\Community\VC\Tools\MSVC\14.27.29110\include\xstring

; 2455 :             const pointer _Fancyptr = _Getal().allocate(_New_capacity + 1); // throws

  0007a	8d 46 01	 lea	 eax, DWORD PTR [esi+1]
; File C:\Program Files (x86)\Microsoft Visual Studio\2019\Community\VC\Tools\MSVC\14.27.29110\include\xmemory

; 807  :         return static_cast<_Ty*>(_Allocate<_New_alignof<_Ty>>(_Get_size_of_n<sizeof(_Ty)>(_Count)));

  0007d	50		 push	 eax
  0007e	e8 00 00 00 00	 call	 ??$_Allocate@$07U_Default_allocate_traits@std@@$0A@@std@@YAPAXI@Z ; std::_Allocate<8,std::_Default_allocate_traits,0>
; File C:\Program Files (x86)\Microsoft Visual Studio\2019\Community\VC\Tools\MSVC\14.27.29110\include\xstring

; 2455 :             const pointer _Fancyptr = _Getal().allocate(_New_capacity + 1); // throws

  00083	89 45 0c	 mov	 DWORD PTR __Ptr$1$[ebp], eax
  00086	89 45 f8	 mov	 DWORD PTR __Fancyptr$1[ebp], eax

; 2456 :             _Ptr                    = _Unfancy(_Fancyptr);
; 2457 :             _Construct_in_place(_My_data._Bx._Ptr, _Fancyptr);

  00089	8d 45 f8	 lea	 eax, DWORD PTR __Fancyptr$1[ebp]
  0008c	50		 push	 eax
  0008d	ff 75 08	 push	 DWORD PTR ___$ReturnUdt$[ebp]
  00090	e8 00 00 00 00	 call	 ??$_Construct_in_place@PADABQAD@std@@YAXAAPADABQAD@Z ; std::_Construct_in_place<char *,char * const &>
  00095	8b 45 08	 mov	 eax, DWORD PTR ___$ReturnUdt$[ebp]
  00098	83 c4 0c	 add	 esp, 12			; 0000000cH
  0009b	8b 4d fc	 mov	 ecx, DWORD PTR __Left_size$1$[ebp]
  0009e	8b 55 10	 mov	 edx, DWORD PTR __New_size$1$[ebp]
$LN21@operator:

; 328  :         return static_cast<_Elem*>(_CSTD memcpy(_First1, _First2, _Count));

  000a1	51		 push	 ecx

; 2461 :         _My_data._Myres  = _New_capacity;

  000a2	89 70 14	 mov	 DWORD PTR [eax+20], esi

; 328  :         return static_cast<_Elem*>(_CSTD memcpy(_First1, _First2, _Count));

  000a5	8b 75 0c	 mov	 esi, DWORD PTR __Ptr$1$[ebp]
  000a8	57		 push	 edi
  000a9	56		 push	 esi

; 2460 :         _My_data._Mysize = _New_size;

  000aa	89 50 10	 mov	 DWORD PTR [eax+16], edx

; 328  :         return static_cast<_Elem*>(_CSTD memcpy(_First1, _First2, _Count));

  000ad	e8 00 00 00 00	 call	 _memcpy
  000b2	ff 75 f4	 push	 DWORD PTR __Right_size$1$[ebp]

; 2463 :         _Traits::copy(_Ptr + static_cast<ptrdiff_t>(_Left_size), _Right_ptr, _Right_size);

  000b5	8b 4d fc	 mov	 ecx, DWORD PTR __Left_size$1$[ebp]
  000b8	03 ce		 add	 ecx, esi

; 328  :         return static_cast<_Elem*>(_CSTD memcpy(_First1, _First2, _Count));

  000ba	53		 push	 ebx
  000bb	51		 push	 ecx
  000bc	e8 00 00 00 00	 call	 _memcpy

; 2464 :         _Traits::assign(_Ptr[_New_size], _Elem());

  000c1	8b 45 10	 mov	 eax, DWORD PTR __New_size$1$[ebp]

; 328  :         return static_cast<_Elem*>(_CSTD memcpy(_First1, _First2, _Count));

  000c4	83 c4 18	 add	 esp, 24			; 00000018H

; 4365 :     }
; 4366 : 
; 4367 :     return {_String_constructor_concat_tag{}, _Left, _Left.c_str(), _Left_size, _Right.c_str(), _Right_size};

  000c7	5f		 pop	 edi

; 2464 :         _Traits::assign(_Ptr[_New_size], _Elem());

  000c8	c6 04 06 00	 mov	 BYTE PTR [esi+eax], 0

; 4365 :     }
; 4366 : 
; 4367 :     return {_String_constructor_concat_tag{}, _Left, _Left.c_str(), _Left_size, _Right.c_str(), _Right_size};

  000cc	8b 45 08	 mov	 eax, DWORD PTR ___$ReturnUdt$[ebp]
  000cf	5e		 pop	 esi
  000d0	5b		 pop	 ebx

; 4368 : }

  000d1	8b e5		 mov	 esp, ebp
  000d3	5d		 pop	 ebp
  000d4	c3		 ret	 0
$LN41@operator:

; 4364 :         _Xlen_string();

  000d5	e8 00 00 00 00	 call	 ?_Xlen_string@std@@YAXXZ ; std::_Xlen_string
$LN39@operator:
  000da	cc		 int	 3
??$?HDU?$char_traits@D@std@@V?$allocator@D@1@@std@@YA?AV?$basic_string@DU?$char_traits@D@std@@V?$allocator@D@2@@0@ABV10@0@Z ENDP ; std::operator+<char,std::char_traits<char>,std::allocator<char> >
_TEXT	ENDS
; Function compile flags: /Ogtp
; File C:\Program Files (x86)\Microsoft Visual Studio\2019\Community\VC\Tools\MSVC\14.27.29110\include\xstring
; File C:\Program Files (x86)\Microsoft Visual Studio\2019\Community\VC\Tools\MSVC\14.27.29110\include\utility
; File C:\Program Files (x86)\Microsoft Visual Studio\2019\Community\VC\Tools\MSVC\14.27.29110\include\xstring
; File C:\Program Files (x86)\Microsoft Visual Studio\2019\Community\VC\Tools\MSVC\14.27.29110\include\xmemory
; File C:\Program Files (x86)\Microsoft Visual Studio\2019\Community\VC\Tools\MSVC\14.27.29110\include\xstring
; File C:\Program Files (x86)\Microsoft Visual Studio\2019\Community\VC\Tools\MSVC\14.27.29110\include\xmemory
; File C:\Program Files (x86)\Microsoft Visual Studio\2019\Community\VC\Tools\MSVC\14.27.29110\include\xstring
;	COMDAT ?assign@?$basic_string@DU?$char_traits@D@std@@V?$allocator@D@2@@std@@QAEAAV12@QBDI@Z
_TEXT	SEGMENT
__Old$1$ = -4						; size = 4
__Ptr$ = 8						; size = 4
__New_ptr$1 = 12					; size = 4
__Count$ = 12						; size = 4
?assign@?$basic_string@DU?$char_traits@D@std@@V?$allocator@D@2@@std@@QAEAAV12@QBDI@Z PROC ; std::basic_string<char,std::char_traits<char>,std::allocator<char> >::assign, COMDAT
; _this$ = ecx

; 2964 :     basic_string& assign(_In_reads_(_Count) const _Elem* const _Ptr, _CRT_GUARDOVERFLOW const size_type _Count) {

  00000	55		 push	 ebp
  00001	8b ec		 mov	 ebp, esp
  00003	51		 push	 ecx
  00004	53		 push	 ebx
  00005	56		 push	 esi
  00006	8b f1		 mov	 esi, ecx
  00008	57		 push	 edi

; 2965 :         // assign [_Ptr, _Ptr + _Count)
; 2966 :         if (_Count <= _Mypair._Myval2._Myres) {

  00009	8b 7d 0c	 mov	 edi, DWORD PTR __Count$[ebp]
  0000c	8b 4e 14	 mov	 ecx, DWORD PTR [esi+20]
  0000f	89 4d fc	 mov	 DWORD PTR __Old$1$[ebp], ecx
  00012	3b f9		 cmp	 edi, ecx
  00014	77 28		 ja	 SHORT $LN2@assign

; 2135 :         value_type* _Result = _Bx._Buf;

  00016	8b de		 mov	 ebx, esi

; 2153 :         return _BUF_SIZE <= _Myres;

  00018	83 f9 10	 cmp	 ecx, 16			; 00000010H

; 2136 :         if (_Large_string_engaged()) {

  0001b	72 02		 jb	 SHORT $LN5@assign

; 2137 :             _Result = _Unfancy(_Bx._Ptr);

  0001d	8b 1e		 mov	 ebx, DWORD PTR [esi]
$LN5@assign:

; 363  :         return static_cast<_Elem*>(_CSTD memmove(_First1, _First2, _Count));

  0001f	57		 push	 edi
  00020	ff 75 08	 push	 DWORD PTR __Ptr$[ebp]

; 2967 :             _Elem* const _Old_ptr   = _Mypair._Myval2._Myptr();
; 2968 :             _Mypair._Myval2._Mysize = _Count;

  00023	89 7e 10	 mov	 DWORD PTR [esi+16], edi

; 363  :         return static_cast<_Elem*>(_CSTD memmove(_First1, _First2, _Count));

  00026	53		 push	 ebx
  00027	e8 00 00 00 00	 call	 _memmove
  0002c	83 c4 0c	 add	 esp, 12			; 0000000cH

; 2969 :             _Traits::move(_Old_ptr, _Ptr, _Count);
; 2970 :             _Traits::assign(_Old_ptr[_Count], _Elem());

  0002f	c6 04 3b 00	 mov	 BYTE PTR [ebx+edi], 0

; 2981 :     }

  00033	8b c6		 mov	 eax, esi
  00035	5f		 pop	 edi
  00036	5e		 pop	 esi
  00037	5b		 pop	 ebx
  00038	8b e5		 mov	 esp, ebp
  0003a	5d		 pop	 ebp
  0003b	c2 08 00	 ret	 8
$LN2@assign:

; 4221 :         if (_New_size > max_size()) {

  0003e	81 ff ff ff ff
	7f		 cmp	 edi, 2147483647		; 7fffffffH
  00044	0f 87 91 00 00
	00		 ja	 $LN36@assign

; 4201 :         const size_type _Masked = _Requested | _ALLOC_MASK;

  0004a	8b df		 mov	 ebx, edi
  0004c	83 cb 0f	 or	 ebx, 15			; 0000000fH
  0004f	81 fb ff ff ff
	7f		 cmp	 ebx, 2147483647		; 7fffffffH

; 4202 :         if (_Masked > _Max) { // the mask overflows, settle for max_size()

  00055	76 07		 jbe	 SHORT $LN19@assign

; 4203 :             return _Max;

  00057	bb ff ff ff 7f	 mov	 ebx, 2147483647		; 7fffffffH
  0005c	eb 1e		 jmp	 SHORT $LN18@assign
$LN19@assign:

; 4204 :         }
; 4205 : 
; 4206 :         if (_Old > _Max - _Old / 2) { // similarly, geometric overflows

  0005e	8b d1		 mov	 edx, ecx
  00060	b8 ff ff ff 7f	 mov	 eax, 2147483647		; 7fffffffH
  00065	d1 ea		 shr	 edx, 1
  00067	2b c2		 sub	 eax, edx
  00069	3b c8		 cmp	 ecx, eax
  0006b	76 07		 jbe	 SHORT $LN20@assign

; 4207 :             return _Max;

  0006d	bb ff ff ff 7f	 mov	 ebx, 2147483647		; 7fffffffH
  00072	eb 08		 jmp	 SHORT $LN18@assign
$LN20@assign:

; 4208 :         }
; 4209 : 
; 4210 :         return (_STD max)(_Masked, _Old + _Old / 2);

  00074	8d 04 0a	 lea	 eax, DWORD PTR [edx+ecx]
; File C:\Program Files (x86)\Microsoft Visual Studio\2019\Community\VC\Tools\MSVC\14.27.29110\include\utility

; 44   :     return _Left < _Right ? _Right : _Left;

  00077	3b d8		 cmp	 ebx, eax
  00079	0f 42 d8	 cmovb	 ebx, eax
$LN18@assign:
; File C:\Program Files (x86)\Microsoft Visual Studio\2019\Community\VC\Tools\MSVC\14.27.29110\include\xstring

; 4228 :         const pointer _New_ptr        = _Al.allocate(_New_capacity + 1); // throws

  0007c	8d 43 01	 lea	 eax, DWORD PTR [ebx+1]
; File C:\Program Files (x86)\Microsoft Visual Studio\2019\Community\VC\Tools\MSVC\14.27.29110\include\xmemory

; 807  :         return static_cast<_Ty*>(_Allocate<_New_alignof<_Ty>>(_Get_size_of_n<sizeof(_Ty)>(_Count)));

  0007f	50		 push	 eax
  00080	e8 00 00 00 00	 call	 ??$_Allocate@$07U_Default_allocate_traits@std@@$0A@@std@@YAPAXI@Z ; std::_Allocate<8,std::_Default_allocate_traits,0>
; File C:\Program Files (x86)\Microsoft Visual Studio\2019\Community\VC\Tools\MSVC\14.27.29110\include\xstring

; 328  :         return static_cast<_Elem*>(_CSTD memcpy(_First1, _First2, _Count));

  00085	57		 push	 edi
  00086	ff 75 08	 push	 DWORD PTR __Ptr$[ebp]

; 4228 :         const pointer _New_ptr        = _Al.allocate(_New_capacity + 1); // throws

  00089	89 45 0c	 mov	 DWORD PTR __New_ptr$1[ebp], eax

; 328  :         return static_cast<_Elem*>(_CSTD memcpy(_First1, _First2, _Count));

  0008c	50		 push	 eax

; 4230 :         _Mypair._Myval2._Mysize = _New_size;

  0008d	89 7e 10	 mov	 DWORD PTR [esi+16], edi

; 4231 :         _Mypair._Myval2._Myres  = _New_capacity;

  00090	89 5e 14	 mov	 DWORD PTR [esi+20], ebx

; 328  :         return static_cast<_Elem*>(_CSTD memcpy(_First1, _First2, _Count));

  00093	e8 00 00 00 00	 call	 _memcpy

; 2978 :                 _Traits::assign(_New_ptr[_Count], _Elem());

  00098	8b 5d 0c	 mov	 ebx, DWORD PTR __New_ptr$1[ebp]

; 328  :         return static_cast<_Elem*>(_CSTD memcpy(_First1, _First2, _Count));

  0009b	83 c4 10	 add	 esp, 16			; 00000010H

; 4233 :         if (_BUF_SIZE <= _Old_capacity) {

  0009e	8b 45 fc	 mov	 eax, DWORD PTR __Old$1$[ebp]

; 2978 :                 _Traits::assign(_New_ptr[_Count], _Elem());

  000a1	c6 04 3b 00	 mov	 BYTE PTR [ebx+edi], 0

; 4233 :         if (_BUF_SIZE <= _Old_capacity) {

  000a5	83 f8 10	 cmp	 eax, 16			; 00000010H
  000a8	72 19		 jb	 SHORT $LN13@assign

; 4234 :             _Al.deallocate(_Mypair._Myval2._Bx._Ptr, _Old_capacity + 1);

  000aa	40		 inc	 eax
; File C:\Program Files (x86)\Microsoft Visual Studio\2019\Community\VC\Tools\MSVC\14.27.29110\include\xmemory

; 803  :         _Deallocate<_New_alignof<_Ty>>(_Ptr, sizeof(_Ty) * _Count);

  000ab	50		 push	 eax
  000ac	ff 36		 push	 DWORD PTR [esi]
  000ae	e8 00 00 00 00	 call	 ??$_Deallocate@$07$0A@@std@@YAXPAXI@Z ; std::_Deallocate<8,0>
; File C:\Program Files (x86)\Microsoft Visual Studio\2019\Community\VC\Tools\MSVC\14.27.29110\include\xstring

; 2981 :     }

  000b3	83 c4 08	 add	 esp, 8

; 4235 :             _Mypair._Myval2._Bx._Ptr = _New_ptr;

  000b6	89 1e		 mov	 DWORD PTR [esi], ebx

; 2981 :     }

  000b8	8b c6		 mov	 eax, esi
  000ba	5f		 pop	 edi
  000bb	5e		 pop	 esi
  000bc	5b		 pop	 ebx
  000bd	8b e5		 mov	 esp, ebp
  000bf	5d		 pop	 ebp
  000c0	c2 08 00	 ret	 8
$LN13@assign:

; 4237 :             _Construct_in_place(_Mypair._Myval2._Bx._Ptr, _New_ptr);

  000c3	8d 45 0c	 lea	 eax, DWORD PTR __New_ptr$1[ebp]
  000c6	50		 push	 eax
  000c7	56		 push	 esi
  000c8	e8 00 00 00 00	 call	 ??$_Construct_in_place@PADABQAD@std@@YAXAAPADABQAD@Z ; std::_Construct_in_place<char *,char * const &>

; 2981 :     }

  000cd	83 c4 08	 add	 esp, 8
  000d0	8b c6		 mov	 eax, esi
  000d2	5f		 pop	 edi
  000d3	5e		 pop	 esi
  000d4	5b		 pop	 ebx
  000d5	8b e5		 mov	 esp, ebp
  000d7	5d		 pop	 ebp
  000d8	c2 08 00	 ret	 8
$LN36@assign:

; 4222 :             _Xlen_string(); // result too long

  000db	e8 00 00 00 00	 call	 ?_Xlen_string@std@@YAXXZ ; std::_Xlen_string
$LN33@assign:
  000e0	cc		 int	 3
?assign@?$basic_string@DU?$char_traits@D@std@@V?$allocator@D@2@@std@@QAEAAV12@QBDI@Z ENDP ; std::basic_string<char,std::char_traits<char>,std::allocator<char> >::assign
_TEXT	ENDS
; Function compile flags: /Ogtp
; File C:\Program Files (x86)\Microsoft Visual Studio\2019\Community\VC\Tools\MSVC\14.27.29110\include\xstring
; File C:\Program Files (x86)\Microsoft Visual Studio\2019\Community\VC\Tools\MSVC\14.27.29110\include\xmemory
; File C:\Program Files (x86)\Microsoft Visual Studio\2019\Community\VC\Tools\MSVC\14.27.29110\include\xstring
;	COMDAT ??1?$basic_string@DU?$char_traits@D@std@@V?$allocator@D@2@@std@@QAE@XZ
_TEXT	SEGMENT
??1?$basic_string@DU?$char_traits@D@std@@V?$allocator@D@2@@std@@QAE@XZ PROC ; std::basic_string<char,std::char_traits<char>,std::allocator<char> >::~basic_string<char,std::char_traits<char>,std::allocator<char> >, COMDAT
; _this$ = ecx

; 2722 :     ~basic_string() noexcept {

  00000	56		 push	 esi
  00001	8b f1		 mov	 esi, ecx

; 2153 :         return _BUF_SIZE <= _Myres;

  00003	8b 46 14	 mov	 eax, DWORD PTR [esi+20]
  00006	83 f8 10	 cmp	 eax, 16			; 00000010H

; 4301 :         if (_Mypair._Myval2._Large_string_engaged()) {

  00009	72 0c		 jb	 SHORT $LN4@basic_stri

; 4302 :             const pointer _Ptr = _Mypair._Myval2._Bx._Ptr;
; 4303 :             auto& _Al          = _Getal();
; 4304 :             _Destroy_in_place(_Mypair._Myval2._Bx._Ptr);
; 4305 :             _Al.deallocate(_Ptr, _Mypair._Myval2._Myres + 1);

  0000b	40		 inc	 eax
; File C:\Program Files (x86)\Microsoft Visual Studio\2019\Community\VC\Tools\MSVC\14.27.29110\include\xmemory

; 803  :         _Deallocate<_New_alignof<_Ty>>(_Ptr, sizeof(_Ty) * _Count);

  0000c	50		 push	 eax
  0000d	ff 36		 push	 DWORD PTR [esi]
  0000f	e8 00 00 00 00	 call	 ??$_Deallocate@$07$0A@@std@@YAXPAXI@Z ; std::_Deallocate<8,0>
  00014	83 c4 08	 add	 esp, 8
$LN4@basic_stri:
; File C:\Program Files (x86)\Microsoft Visual Studio\2019\Community\VC\Tools\MSVC\14.27.29110\include\xstring

; 4308 :         _Mypair._Myval2._Mysize = 0;

  00017	c7 46 10 00 00
	00 00		 mov	 DWORD PTR [esi+16], 0

; 4309 :         _Mypair._Myval2._Myres  = _BUF_SIZE - 1;

  0001e	c7 46 14 0f 00
	00 00		 mov	 DWORD PTR [esi+20], 15	; 0000000fH

; 4310 :         // the _Traits::assign is last so the codegen doesn't think the char write can alias this
; 4311 :         _Traits::assign(_Mypair._Myval2._Bx._Buf[0], _Elem());

  00025	c6 06 00	 mov	 BYTE PTR [esi], 0
  00028	5e		 pop	 esi

; 2723 :         _Tidy_deallocate();
; 2724 : #if _ITERATOR_DEBUG_LEVEL != 0
; 2725 :         auto&& _Alproxy          = _GET_PROXY_ALLOCATOR(_Alty, _Getal());
; 2726 :         const auto _To_delete    = _Mypair._Myval2._Myproxy;
; 2727 :         _Mypair._Myval2._Myproxy = nullptr;
; 2728 :         _Delete_plain_internal(_Alproxy, _To_delete);
; 2729 : #endif // _ITERATOR_DEBUG_LEVEL != 0
; 2730 :     }

  00029	c3		 ret	 0
??1?$basic_string@DU?$char_traits@D@std@@V?$allocator@D@2@@std@@QAE@XZ ENDP ; std::basic_string<char,std::char_traits<char>,std::allocator<char> >::~basic_string<char,std::char_traits<char>,std::allocator<char> >
_TEXT	ENDS
; Function compile flags: /Ogtp
; File C:\Program Files (x86)\Microsoft Visual Studio\2019\Community\VC\Tools\MSVC\14.27.29110\include\xstring
;	COMDAT ?_Xran@?$_String_val@U?$_Simple_types@D@std@@@std@@SAXXZ
_TEXT	SEGMENT
?_Xran@?$_String_val@U?$_Simple_types@D@std@@@std@@SAXXZ PROC ; std::_String_val<std::_Simple_types<char> >::_Xran, COMDAT

; 2169 :         _Xout_of_range("invalid string position");

  00000	68 00 00 00 00	 push	 OFFSET ??_C@_0BI@CFPLBAOH@invalid?5string?5position@
  00005	e8 00 00 00 00	 call	 ?_Xout_of_range@std@@YAXPBD@Z ; std::_Xout_of_range
$LN3@Xran:
  0000a	cc		 int	 3
?_Xran@?$_String_val@U?$_Simple_types@D@std@@@std@@SAXXZ ENDP ; std::_String_val<std::_Simple_types<char> >::_Xran
_TEXT	ENDS
; Function compile flags: /Ogtp
; File C:\Program Files (x86)\Microsoft Visual Studio\2019\Community\VC\Tools\MSVC\14.27.29110\include\xstring
;	COMDAT ?_Xlen_string@std@@YAXXZ
_TEXT	SEGMENT
?_Xlen_string@std@@YAXXZ PROC				; std::_Xlen_string, COMDAT

; 2201 :     _Xlength_error("string too long");

  00000	68 00 00 00 00	 push	 OFFSET ??_C@_0BA@JFNIOLAK@string?5too?5long@
  00005	e8 00 00 00 00	 call	 ?_Xlength_error@std@@YAXPBD@Z ; std::_Xlength_error
$LN3@Xlen_strin:
  0000a	cc		 int	 3
?_Xlen_string@std@@YAXXZ ENDP				; std::_Xlen_string
_TEXT	ENDS
; Function compile flags: /Ogtp
; File C:\Program Files (x86)\Microsoft Visual Studio\2019\Community\VC\Tools\MSVC\14.27.29110\include\exception
;	COMDAT ?_Throw_bad_array_new_length@std@@YAXXZ
_TEXT	SEGMENT
$T1 = -12						; size = 12
?_Throw_bad_array_new_length@std@@YAXXZ PROC		; std::_Throw_bad_array_new_length, COMDAT

; 320  : [[noreturn]] inline void _Throw_bad_array_new_length() {

  00000	55		 push	 ebp
  00001	8b ec		 mov	 ebp, esp
  00003	83 ec 0c	 sub	 esp, 12			; 0000000cH

; 321  :     _THROW(bad_array_new_length{});

  00006	8d 4d f4	 lea	 ecx, DWORD PTR $T1[ebp]
  00009	e8 00 00 00 00	 call	 ??0bad_array_new_length@std@@QAE@XZ ; std::bad_array_new_length::bad_array_new_length
  0000e	68 00 00 00 00	 push	 OFFSET __TI3?AVbad_array_new_length@std@@
  00013	8d 45 f4	 lea	 eax, DWORD PTR $T1[ebp]
  00016	50		 push	 eax
  00017	e8 00 00 00 00	 call	 __CxxThrowException@8
$LN3@Throw_bad_:
  0001c	cc		 int	 3
?_Throw_bad_array_new_length@std@@YAXXZ ENDP		; std::_Throw_bad_array_new_length
_TEXT	ENDS
; Function compile flags: /Ogtp
; File C:\Program Files (x86)\Microsoft Visual Studio\2019\Community\VC\Tools\MSVC\14.27.29110\include\vcruntime_exception.h
;	COMDAT ??_Gbad_array_new_length@std@@UAEPAXI@Z
_TEXT	SEGMENT
___flags$ = 8						; size = 4
??_Gbad_array_new_length@std@@UAEPAXI@Z PROC		; std::bad_array_new_length::`scalar deleting destructor', COMDAT
; _this$ = ecx
  00000	55		 push	 ebp
  00001	8b ec		 mov	 ebp, esp

; 89   :     {

  00003	56		 push	 esi
  00004	8b f1		 mov	 esi, ecx

; 90   :         __std_exception_destroy(&_Data);

  00006	8d 46 04	 lea	 eax, DWORD PTR [esi+4]
  00009	c7 06 00 00 00
	00		 mov	 DWORD PTR [esi], OFFSET ??_7exception@std@@6B@
  0000f	50		 push	 eax
  00010	e8 00 00 00 00	 call	 ___std_exception_destroy
  00015	83 c4 04	 add	 esp, 4
  00018	f6 45 08 01	 test	 BYTE PTR ___flags$[ebp], 1
  0001c	74 0b		 je	 SHORT $LN12@scalar
  0001e	6a 0c		 push	 12			; 0000000cH
  00020	56		 push	 esi
  00021	e8 00 00 00 00	 call	 ??3@YAXPAXI@Z		; operator delete
  00026	83 c4 08	 add	 esp, 8
$LN12@scalar:
  00029	8b c6		 mov	 eax, esi
  0002b	5e		 pop	 esi
  0002c	5d		 pop	 ebp
  0002d	c2 04 00	 ret	 4
??_Gbad_array_new_length@std@@UAEPAXI@Z ENDP		; std::bad_array_new_length::`scalar deleting destructor'
_TEXT	ENDS
; Function compile flags: /Ogtp
; File C:\Program Files (x86)\Microsoft Visual Studio\2019\Community\VC\Tools\MSVC\14.27.29110\include\vcruntime_exception.h
;	COMDAT ??0bad_array_new_length@std@@QAE@ABV01@@Z
_TEXT	SEGMENT
___that$ = 8						; size = 4
??0bad_array_new_length@std@@QAE@ABV01@@Z PROC		; std::bad_array_new_length::bad_array_new_length, COMDAT
; _this$ = ecx
  00000	55		 push	 ebp
  00001	8b ec		 mov	 ebp, esp

; 72   :     {

  00003	56		 push	 esi
  00004	8b f1		 mov	 esi, ecx
  00006	0f 57 c0	 xorps	 xmm0, xmm0

; 71   :         : _Data()

  00009	8d 46 04	 lea	 eax, DWORD PTR [esi+4]

; 73   :         __std_exception_copy(&_Other._Data, &_Data);

  0000c	50		 push	 eax
  0000d	c7 06 00 00 00
	00		 mov	 DWORD PTR [esi], OFFSET ??_7exception@std@@6B@
  00013	66 0f d6 00	 movq	 QWORD PTR [eax], xmm0
  00017	8b 45 08	 mov	 eax, DWORD PTR ___that$[ebp]
  0001a	83 c0 04	 add	 eax, 4
  0001d	50		 push	 eax
  0001e	e8 00 00 00 00	 call	 ___std_exception_copy
  00023	83 c4 08	 add	 esp, 8
  00026	c7 06 00 00 00
	00		 mov	 DWORD PTR [esi], OFFSET ??_7bad_array_new_length@std@@6B@
  0002c	8b c6		 mov	 eax, esi
  0002e	5e		 pop	 esi
  0002f	5d		 pop	 ebp
  00030	c2 04 00	 ret	 4
??0bad_array_new_length@std@@QAE@ABV01@@Z ENDP		; std::bad_array_new_length::bad_array_new_length
_TEXT	ENDS
; Function compile flags: /Ogtp
; File C:\Program Files (x86)\Microsoft Visual Studio\2019\Community\VC\Tools\MSVC\14.27.29110\include\vcruntime_exception.h
;	COMDAT ??1bad_array_new_length@std@@UAE@XZ
_TEXT	SEGMENT
??1bad_array_new_length@std@@UAE@XZ PROC		; std::bad_array_new_length::~bad_array_new_length, COMDAT
; _this$ = ecx

; 90   :         __std_exception_destroy(&_Data);

  00000	8d 41 04	 lea	 eax, DWORD PTR [ecx+4]
  00003	c7 01 00 00 00
	00		 mov	 DWORD PTR [ecx], OFFSET ??_7exception@std@@6B@
  00009	50		 push	 eax
  0000a	e8 00 00 00 00	 call	 ___std_exception_destroy
  0000f	59		 pop	 ecx
  00010	c3		 ret	 0
??1bad_array_new_length@std@@UAE@XZ ENDP		; std::bad_array_new_length::~bad_array_new_length
_TEXT	ENDS
; Function compile flags: /Ogtp
; File C:\Program Files (x86)\Microsoft Visual Studio\2019\Community\VC\Tools\MSVC\14.27.29110\include\vcruntime_exception.h
;	COMDAT ??0bad_array_new_length@std@@QAE@XZ
_TEXT	SEGMENT
??0bad_array_new_length@std@@QAE@XZ PROC		; std::bad_array_new_length::bad_array_new_length, COMDAT
; _this$ = ecx

; 141  :     {

  00000	0f 57 c0	 xorps	 xmm0, xmm0

; 142  :     }

  00003	8b c1		 mov	 eax, ecx

; 65   :         : _Data()

  00005	66 0f d6 41 04	 movq	 QWORD PTR [ecx+4], xmm0

; 66   :     {
; 67   :         _Data._What = _Message;

  0000a	c7 41 04 00 00
	00 00		 mov	 DWORD PTR [ecx+4], OFFSET ??_C@_0BF@KINCDENJ@bad?5array?5new?5length@

; 141  :     {

  00011	c7 01 00 00 00
	00		 mov	 DWORD PTR [ecx], OFFSET ??_7bad_array_new_length@std@@6B@

; 142  :     }

  00017	c3		 ret	 0
??0bad_array_new_length@std@@QAE@XZ ENDP		; std::bad_array_new_length::bad_array_new_length
_TEXT	ENDS
; Function compile flags: /Ogtp
; File C:\Program Files (x86)\Microsoft Visual Studio\2019\Community\VC\Tools\MSVC\14.27.29110\include\vcruntime_exception.h
;	COMDAT ??_Gbad_alloc@std@@UAEPAXI@Z
_TEXT	SEGMENT
___flags$ = 8						; size = 4
??_Gbad_alloc@std@@UAEPAXI@Z PROC			; std::bad_alloc::`scalar deleting destructor', COMDAT
; _this$ = ecx
  00000	55		 push	 ebp
  00001	8b ec		 mov	 ebp, esp

; 89   :     {

  00003	56		 push	 esi
  00004	8b f1		 mov	 esi, ecx

; 90   :         __std_exception_destroy(&_Data);

  00006	8d 46 04	 lea	 eax, DWORD PTR [esi+4]
  00009	c7 06 00 00 00
	00		 mov	 DWORD PTR [esi], OFFSET ??_7exception@std@@6B@
  0000f	50		 push	 eax
  00010	e8 00 00 00 00	 call	 ___std_exception_destroy
  00015	83 c4 04	 add	 esp, 4
  00018	f6 45 08 01	 test	 BYTE PTR ___flags$[ebp], 1
  0001c	74 0b		 je	 SHORT $LN9@scalar
  0001e	6a 0c		 push	 12			; 0000000cH
  00020	56		 push	 esi
  00021	e8 00 00 00 00	 call	 ??3@YAXPAXI@Z		; operator delete
  00026	83 c4 08	 add	 esp, 8
$LN9@scalar:
  00029	8b c6		 mov	 eax, esi
  0002b	5e		 pop	 esi
  0002c	5d		 pop	 ebp
  0002d	c2 04 00	 ret	 4
??_Gbad_alloc@std@@UAEPAXI@Z ENDP			; std::bad_alloc::`scalar deleting destructor'
_TEXT	ENDS
; Function compile flags: /Ogtp
; File C:\Program Files (x86)\Microsoft Visual Studio\2019\Community\VC\Tools\MSVC\14.27.29110\include\vcruntime_exception.h
;	COMDAT ??0bad_alloc@std@@QAE@ABV01@@Z
_TEXT	SEGMENT
___that$ = 8						; size = 4
??0bad_alloc@std@@QAE@ABV01@@Z PROC			; std::bad_alloc::bad_alloc, COMDAT
; _this$ = ecx
  00000	55		 push	 ebp
  00001	8b ec		 mov	 ebp, esp

; 72   :     {

  00003	56		 push	 esi
  00004	8b f1		 mov	 esi, ecx
  00006	0f 57 c0	 xorps	 xmm0, xmm0

; 71   :         : _Data()

  00009	8d 46 04	 lea	 eax, DWORD PTR [esi+4]

; 73   :         __std_exception_copy(&_Other._Data, &_Data);

  0000c	50		 push	 eax
  0000d	c7 06 00 00 00
	00		 mov	 DWORD PTR [esi], OFFSET ??_7exception@std@@6B@
  00013	66 0f d6 00	 movq	 QWORD PTR [eax], xmm0
  00017	8b 45 08	 mov	 eax, DWORD PTR ___that$[ebp]
  0001a	83 c0 04	 add	 eax, 4
  0001d	50		 push	 eax
  0001e	e8 00 00 00 00	 call	 ___std_exception_copy
  00023	83 c4 08	 add	 esp, 8
  00026	c7 06 00 00 00
	00		 mov	 DWORD PTR [esi], OFFSET ??_7bad_alloc@std@@6B@
  0002c	8b c6		 mov	 eax, esi
  0002e	5e		 pop	 esi
  0002f	5d		 pop	 ebp
  00030	c2 04 00	 ret	 4
??0bad_alloc@std@@QAE@ABV01@@Z ENDP			; std::bad_alloc::bad_alloc
_TEXT	ENDS
; Function compile flags: /Ogtp
; File C:\Program Files (x86)\Microsoft Visual Studio\2019\Community\VC\Tools\MSVC\14.27.29110\include\vcruntime_exception.h
;	COMDAT ??_Gexception@std@@UAEPAXI@Z
_TEXT	SEGMENT
___flags$ = 8						; size = 4
??_Gexception@std@@UAEPAXI@Z PROC			; std::exception::`scalar deleting destructor', COMDAT
; _this$ = ecx
  00000	55		 push	 ebp
  00001	8b ec		 mov	 ebp, esp

; 89   :     {

  00003	56		 push	 esi
  00004	8b f1		 mov	 esi, ecx

; 90   :         __std_exception_destroy(&_Data);

  00006	8d 46 04	 lea	 eax, DWORD PTR [esi+4]
  00009	c7 06 00 00 00
	00		 mov	 DWORD PTR [esi], OFFSET ??_7exception@std@@6B@
  0000f	50		 push	 eax
  00010	e8 00 00 00 00	 call	 ___std_exception_destroy
  00015	83 c4 04	 add	 esp, 4
  00018	f6 45 08 01	 test	 BYTE PTR ___flags$[ebp], 1
  0001c	74 0b		 je	 SHORT $LN6@scalar
  0001e	6a 0c		 push	 12			; 0000000cH
  00020	56		 push	 esi
  00021	e8 00 00 00 00	 call	 ??3@YAXPAXI@Z		; operator delete
  00026	83 c4 08	 add	 esp, 8
$LN6@scalar:
  00029	8b c6		 mov	 eax, esi
  0002b	5e		 pop	 esi
  0002c	5d		 pop	 ebp
  0002d	c2 04 00	 ret	 4
??_Gexception@std@@UAEPAXI@Z ENDP			; std::exception::`scalar deleting destructor'
_TEXT	ENDS
; Function compile flags: /Ogtp
; File C:\Program Files (x86)\Microsoft Visual Studio\2019\Community\VC\Tools\MSVC\14.27.29110\include\vcruntime_exception.h
;	COMDAT ?what@exception@std@@UBEPBDXZ
_TEXT	SEGMENT
?what@exception@std@@UBEPBDXZ PROC			; std::exception::what, COMDAT
; _this$ = ecx

; 95   :         return _Data._What ? _Data._What : "Unknown exception";

  00000	8b 49 04	 mov	 ecx, DWORD PTR [ecx+4]
  00003	b8 00 00 00 00	 mov	 eax, OFFSET ??_C@_0BC@EOODALEL@Unknown?5exception@
  00008	85 c9		 test	 ecx, ecx
  0000a	0f 45 c1	 cmovne	 eax, ecx

; 96   :     }

  0000d	c3		 ret	 0
?what@exception@std@@UBEPBDXZ ENDP			; std::exception::what
_TEXT	ENDS
; Function compile flags: /Ogtp
; File C:\Program Files (x86)\Microsoft Visual Studio\2019\Community\VC\Tools\MSVC\14.27.29110\include\vcruntime_exception.h
;	COMDAT ??1exception@std@@UAE@XZ
_TEXT	SEGMENT
??1exception@std@@UAE@XZ PROC				; std::exception::~exception, COMDAT
; _this$ = ecx

; 90   :         __std_exception_destroy(&_Data);

  00000	8d 41 04	 lea	 eax, DWORD PTR [ecx+4]
  00003	c7 01 00 00 00
	00		 mov	 DWORD PTR [ecx], OFFSET ??_7exception@std@@6B@
  00009	50		 push	 eax
  0000a	e8 00 00 00 00	 call	 ___std_exception_destroy
  0000f	59		 pop	 ecx

; 91   :     }

  00010	c3		 ret	 0
??1exception@std@@UAE@XZ ENDP				; std::exception::~exception
_TEXT	ENDS
; Function compile flags: /Ogtp
; File C:\Program Files (x86)\Microsoft Visual Studio\2019\Community\VC\Tools\MSVC\14.27.29110\include\vcruntime_exception.h
;	COMDAT ??0exception@std@@QAE@ABV01@@Z
_TEXT	SEGMENT
__Other$ = 8						; size = 4
??0exception@std@@QAE@ABV01@@Z PROC			; std::exception::exception, COMDAT
; _this$ = ecx

; 72   :     {

  00000	55		 push	 ebp
  00001	8b ec		 mov	 ebp, esp
  00003	56		 push	 esi
  00004	8b f1		 mov	 esi, ecx
  00006	0f 57 c0	 xorps	 xmm0, xmm0
  00009	8d 46 04	 lea	 eax, DWORD PTR [esi+4]

; 73   :         __std_exception_copy(&_Other._Data, &_Data);

  0000c	50		 push	 eax
  0000d	c7 06 00 00 00
	00		 mov	 DWORD PTR [esi], OFFSET ??_7exception@std@@6B@
  00013	66 0f d6 00	 movq	 QWORD PTR [eax], xmm0
  00017	8b 45 08	 mov	 eax, DWORD PTR __Other$[ebp]
  0001a	83 c0 04	 add	 eax, 4
  0001d	50		 push	 eax
  0001e	e8 00 00 00 00	 call	 ___std_exception_copy
  00023	83 c4 08	 add	 esp, 8

; 74   :     }

  00026	8b c6		 mov	 eax, esi
  00028	5e		 pop	 esi
  00029	5d		 pop	 ebp
  0002a	c2 04 00	 ret	 4
??0exception@std@@QAE@ABV01@@Z ENDP			; std::exception::exception
_TEXT	ENDS
; Function compile flags: /Ogtp
; File C:\Program Files (x86)\Windows Kits\10\Include\10.0.18362.0\ucrt\stdio.h
;	COMDAT __snprintf
_TEXT	SEGMENT
__Buffer$ = 8						; size = 4
__BufferCount$ = 12					; size = 4
__Format$ = 16						; size = 4
__snprintf PROC						; COMDAT

; 1969 :     {

  00000	55		 push	 ebp
  00001	8b ec		 mov	 ebp, esp

; 1390 :         int const _Result = __stdio_common_vsprintf(

  00003	8d 45 14	 lea	 eax, DWORD PTR __Format$[ebp+4]
  00006	50		 push	 eax
  00007	6a 00		 push	 0
  00009	ff 75 10	 push	 DWORD PTR __Format$[ebp]
  0000c	ff 75 0c	 push	 DWORD PTR __BufferCount$[ebp]
  0000f	ff 75 08	 push	 DWORD PTR __Buffer$[ebp]
  00012	e8 00 00 00 00	 call	 ___local_stdio_printf_options
  00017	8b 08		 mov	 ecx, DWORD PTR [eax]
  00019	ff 70 04	 push	 DWORD PTR [eax+4]
  0001c	83 c9 01	 or	 ecx, 1
  0001f	51		 push	 ecx
  00020	e8 00 00 00 00	 call	 ___stdio_common_vsprintf

; 1391 :             _CRT_INTERNAL_LOCAL_PRINTF_OPTIONS | _CRT_INTERNAL_PRINTF_LEGACY_VSPRINTF_NULL_TERMINATION,
; 1392 :             _Buffer, _BufferCount, _Format, _Locale, _ArgList);
; 1393 : 
; 1394 :         return _Result < 0 ? -1 : _Result;

  00025	83 c9 ff	 or	 ecx, -1
  00028	83 c4 1c	 add	 esp, 28			; 0000001cH
  0002b	85 c0		 test	 eax, eax
  0002d	0f 48 c1	 cmovs	 eax, ecx

; 1970 :         int _Result;
; 1971 :         va_list _ArgList;
; 1972 :         __crt_va_start(_ArgList, _Format);
; 1973 :     #pragma warning(suppress:28719)    // 28719
; 1974 :         _Result = _vsnprintf(_Buffer, _BufferCount, _Format, _ArgList);
; 1975 :         __crt_va_end(_ArgList);
; 1976 :         return _Result;
; 1977 :     }

  00030	5d		 pop	 ebp
  00031	c3		 ret	 0
__snprintf ENDP
_TEXT	ENDS
; Function compile flags: /Ogtp
; File C:\Program Files (x86)\Windows Kits\10\Include\10.0.18362.0\ucrt\corecrt_stdio_config.h
;	COMDAT ___local_stdio_printf_options
_TEXT	SEGMENT
___local_stdio_printf_options PROC			; COMDAT

; 87   :         static unsigned __int64 _OptionsStorage;
; 88   :         return &_OptionsStorage;

  00000	b8 00 00 00 00	 mov	 eax, OFFSET ?_OptionsStorage@?1??__local_stdio_printf_options@@9@4_KA ; `__local_stdio_printf_options'::`2'::_OptionsStorage

; 89   :     }

  00005	c3		 ret	 0
___local_stdio_printf_options ENDP
_TEXT	ENDS
; Function compile flags: /Ogtp
; File C:\DS Project\DS Files\Source\ClientSource\Client\GameLib\RaceDataFile.cpp
;	COMDAT ?__empty_global_delete@@YAXPAXI@Z
_TEXT	SEGMENT
___formal$ = 8						; size = 4
___formal$ = 12						; size = 4
?__empty_global_delete@@YAXPAXI@Z PROC			; __empty_global_delete, COMDAT

  00000	c2 00 00	 ret	 0
?__empty_global_delete@@YAXPAXI@Z ENDP			; __empty_global_delete
_TEXT	ENDS
; Function compile flags: /Ogtp
; File C:\DS Project\DS Files\Source\ClientSource\Client\GameLib\RaceDataFile.cpp
;	COMDAT ?__empty_global_delete@@YAXPAX@Z
_TEXT	SEGMENT
___formal$ = 8						; size = 4
?__empty_global_delete@@YAXPAX@Z PROC			; __empty_global_delete, COMDAT

  00000	c2 00 00	 ret	 0
?__empty_global_delete@@YAXPAX@Z ENDP			; __empty_global_delete
_TEXT	ENDS
; Function compile flags: /Ogtp
;	COMDAT ??_H@YGXPAXIIP6EPAX0@Z@Z
_TEXT	SEGMENT
___t$ = 8						; size = 4
___s$ = 12						; size = 4
___n$ = 16						; size = 4
___f$ = 20						; size = 4
??_H@YGXPAXIIP6EPAX0@Z@Z PROC				; `vector constructor iterator', COMDAT
  00000	55		 push	 ebp
  00001	8b ec		 mov	 ebp, esp
  00003	56		 push	 esi
  00004	8b 75 10	 mov	 esi, DWORD PTR ___n$[ebp]
  00007	85 f6		 test	 esi, esi
  00009	74 16		 je	 SHORT $LN6@vector
  0000b	53		 push	 ebx
  0000c	8b 5d 14	 mov	 ebx, DWORD PTR ___f$[ebp]
  0000f	57		 push	 edi
  00010	8b 7d 08	 mov	 edi, DWORD PTR ___t$[ebp]
$LL2@vector:
  00013	8b cf		 mov	 ecx, edi
  00015	ff d3		 call	 ebx
  00017	03 7d 0c	 add	 edi, DWORD PTR ___s$[ebp]
  0001a	83 ee 01	 sub	 esi, 1
  0001d	75 f4		 jne	 SHORT $LL2@vector
  0001f	5f		 pop	 edi
  00020	5b		 pop	 ebx
$LN6@vector:
  00021	5e		 pop	 esi
  00022	5d		 pop	 ebp
  00023	c2 10 00	 ret	 16			; 00000010H
??_H@YGXPAXIIP6EPAX0@Z@Z ENDP				; `vector constructor iterator'
_TEXT	ENDS
END
