; Listing generated by Microsoft (R) Optimizing Compiler Version 19.27.29112.0 

	TITLE	C:\DS Project\DS Files\Source\ClientSource\Client\GameLib\TerrainDecal.cpp
	.686P
	.XMM
	include listing.inc
	.model	flat

INCLUDELIB LIBCMT
INCLUDELIB OLDNAMES

PUBLIC	??_H@YGXPAXIIP6EPAX0@Z@Z			; `vector constructor iterator'
PUBLIC	??0D3DXVECTOR3@@QAE@XZ				; D3DXVECTOR3::D3DXVECTOR3
PUBLIC	??0CTerrainDecal@@QAE@PAVCMapOutdoor@@@Z	; CTerrainDecal::CTerrainDecal
PUBLIC	??1CTerrainDecal@@UAE@XZ			; CTerrainDecal::~CTerrainDecal
PUBLIC	?Make@CTerrainDecal@@UAEXUD3DXVECTOR3@@00MMM@Z	; CTerrainDecal::Make
PUBLIC	?Render@CTerrainDecal@@UAEXXZ			; CTerrainDecal::Render
PUBLIC	?SearchAffectedTerrainMesh@CTerrainDecal@@IAEXMMMMPAKPAUD3DXVECTOR3@@1@Z ; CTerrainDecal::SearchAffectedTerrainMesh
PUBLIC	??_GCTerrainDecal@@UAEPAXI@Z			; CTerrainDecal::`scalar deleting destructor'
PUBLIC	?ms_singleton@?$CSingleton@VCStateManager@@@@0PAVCStateManager@@A ; CSingleton<CStateManager>::ms_singleton
PUBLIC	??_7CTerrainDecal@@6B@				; CTerrainDecal::`vftable'
PUBLIC	??_R4CTerrainDecal@@6B@				; CTerrainDecal::`RTTI Complete Object Locator'
PUBLIC	??_R0?AVCTerrainDecal@@@8			; CTerrainDecal `RTTI Type Descriptor'
PUBLIC	??_R3CTerrainDecal@@8				; CTerrainDecal::`RTTI Class Hierarchy Descriptor'
PUBLIC	??_R2CTerrainDecal@@8				; CTerrainDecal::`RTTI Base Class Array'
PUBLIC	??_R1A@?0A@EA@CTerrainDecal@@8			; CTerrainDecal::`RTTI Base Class Descriptor at (0,-1,0,64)'
PUBLIC	??_R1A@?0A@EA@CDecal@@8				; CDecal::`RTTI Base Class Descriptor at (0,-1,0,64)'
PUBLIC	??_R0?AVCDecal@@@8				; CDecal `RTTI Type Descriptor'
PUBLIC	??_R3CDecal@@8					; CDecal::`RTTI Class Hierarchy Descriptor'
PUBLIC	??_R2CDecal@@8					; CDecal::`RTTI Base Class Array'
PUBLIC	__real@3f000000
PUBLIC	__real@3f800000
PUBLIC	__xmm@7fffffff7fffffff7fffffff7fffffff
PUBLIC	__xmm@80000000800000008000000080000000
EXTRN	??3@YAXPAXI@Z:PROC				; operator delete
EXTRN	?fMAX@@YAMMM@Z:PROC				; fMAX
EXTRN	_D3DXVec3Normalize@8:PROC
EXTRN	?SaveRenderState@CStateManager@@QAEXW4_D3DRENDERSTATETYPE@@K@Z:PROC ; CStateManager::SaveRenderState
EXTRN	?RestoreRenderState@CStateManager@@QAEXW4_D3DRENDERSTATETYPE@@@Z:PROC ; CStateManager::RestoreRenderState
EXTRN	?SaveTextureStageState@CStateManager@@QAEXKW4_D3DTEXTURESTAGESTATETYPE@@K@Z:PROC ; CStateManager::SaveTextureStageState
EXTRN	?RestoreTextureStageState@CStateManager@@QAEXKW4_D3DTEXTURESTAGESTATETYPE@@@Z:PROC ; CStateManager::RestoreTextureStageState
EXTRN	?SetTextureStageState@CStateManager@@QAEXKW4_D3DTEXTURESTAGESTATETYPE@@K@Z:PROC ; CStateManager::SetTextureStageState
EXTRN	??0CDecal@@QAE@XZ:PROC				; CDecal::CDecal
EXTRN	??1CDecal@@UAE@XZ:PROC				; CDecal::~CDecal
EXTRN	?Clear@CDecal@@QAEXXZ:PROC			; CDecal::Clear
EXTRN	?Render@CDecal@@UAEXXZ:PROC			; CDecal::Render
EXTRN	?ClipMesh@CDecal@@IAEXKPBUD3DXVECTOR3@@0@Z:PROC	; CDecal::ClipMesh
EXTRN	??_ECTerrainDecal@@UAEPAXI@Z:PROC		; CTerrainDecal::`vector deleting destructor'
EXTRN	?GetHeight@CTerrain@@QAEMHH@Z:PROC		; CTerrain::GetHeight
EXTRN	?GetTerrainPointer@CMapOutdoor@@QAEHEPAPAVCTerrain@@@Z:PROC ; CMapOutdoor::GetTerrainPointer
EXTRN	?GetTerrainNumFromCoord@CMapOutdoor@@QAE_NGGPAE@Z:PROC ; CMapOutdoor::GetTerrainNumFromCoord
EXTRN	@__security_check_cookie@4:PROC
EXTRN	___CxxFrameHandler3:PROC
EXTRN	__chkstk:PROC
EXTRN	_memset:PROC
EXTRN	??_7type_info@@6B@:QWORD			; type_info::`vftable'
EXTRN	?PR_FCNV@@3MA:DWORD				; PR_FCNV
EXTRN	?PR_ICNV@@3JA:DWORD				; PR_ICNV
EXTRN	___security_cookie:DWORD
EXTRN	__fltused:DWORD
;	COMDAT ?ms_singleton@?$CSingleton@VCStateManager@@@@0PAVCStateManager@@A
_BSS	SEGMENT
?ms_singleton@?$CSingleton@VCStateManager@@@@0PAVCStateManager@@A DD 01H DUP (?) ; CSingleton<CStateManager>::ms_singleton
_BSS	ENDS
;	COMDAT __xmm@80000000800000008000000080000000
CONST	SEGMENT
__xmm@80000000800000008000000080000000 DB 00H, 00H, 00H, 080H, 00H, 00H, 00H
	DB	080H, 00H, 00H, 00H, 080H, 00H, 00H, 00H, 080H
CONST	ENDS
;	COMDAT __xmm@7fffffff7fffffff7fffffff7fffffff
CONST	SEGMENT
__xmm@7fffffff7fffffff7fffffff7fffffff DB 0ffH, 0ffH, 0ffH, 07fH, 0ffH, 0ffH
	DB	0ffH, 07fH, 0ffH, 0ffH, 0ffH, 07fH, 0ffH, 0ffH, 0ffH, 07fH
CONST	ENDS
;	COMDAT __real@3f800000
CONST	SEGMENT
__real@3f800000 DD 03f800000r			; 1
CONST	ENDS
;	COMDAT __real@3f000000
CONST	SEGMENT
__real@3f000000 DD 03f000000r			; 0.5
CONST	ENDS
;	COMDAT ??_R2CDecal@@8
rdata$r	SEGMENT
??_R2CDecal@@8 DD FLAT:??_R1A@?0A@EA@CDecal@@8		; CDecal::`RTTI Base Class Array'
rdata$r	ENDS
;	COMDAT ??_R3CDecal@@8
rdata$r	SEGMENT
??_R3CDecal@@8 DD 00H					; CDecal::`RTTI Class Hierarchy Descriptor'
	DD	00H
	DD	01H
	DD	FLAT:??_R2CDecal@@8
rdata$r	ENDS
;	COMDAT ??_R0?AVCDecal@@@8
data$r	SEGMENT
??_R0?AVCDecal@@@8 DD FLAT:??_7type_info@@6B@		; CDecal `RTTI Type Descriptor'
	DD	00H
	DB	'.?AVCDecal@@', 00H
data$r	ENDS
;	COMDAT ??_R1A@?0A@EA@CDecal@@8
rdata$r	SEGMENT
??_R1A@?0A@EA@CDecal@@8 DD FLAT:??_R0?AVCDecal@@@8	; CDecal::`RTTI Base Class Descriptor at (0,-1,0,64)'
	DD	00H
	DD	00H
	DD	0ffffffffH
	DD	00H
	DD	040H
	DD	FLAT:??_R3CDecal@@8
rdata$r	ENDS
;	COMDAT ??_R1A@?0A@EA@CTerrainDecal@@8
rdata$r	SEGMENT
??_R1A@?0A@EA@CTerrainDecal@@8 DD FLAT:??_R0?AVCTerrainDecal@@@8 ; CTerrainDecal::`RTTI Base Class Descriptor at (0,-1,0,64)'
	DD	01H
	DD	00H
	DD	0ffffffffH
	DD	00H
	DD	040H
	DD	FLAT:??_R3CTerrainDecal@@8
rdata$r	ENDS
;	COMDAT ??_R2CTerrainDecal@@8
rdata$r	SEGMENT
??_R2CTerrainDecal@@8 DD FLAT:??_R1A@?0A@EA@CTerrainDecal@@8 ; CTerrainDecal::`RTTI Base Class Array'
	DD	FLAT:??_R1A@?0A@EA@CDecal@@8
rdata$r	ENDS
;	COMDAT ??_R3CTerrainDecal@@8
rdata$r	SEGMENT
??_R3CTerrainDecal@@8 DD 00H				; CTerrainDecal::`RTTI Class Hierarchy Descriptor'
	DD	00H
	DD	02H
	DD	FLAT:??_R2CTerrainDecal@@8
rdata$r	ENDS
;	COMDAT ??_R0?AVCTerrainDecal@@@8
data$r	SEGMENT
??_R0?AVCTerrainDecal@@@8 DD FLAT:??_7type_info@@6B@	; CTerrainDecal `RTTI Type Descriptor'
	DD	00H
	DB	'.?AVCTerrainDecal@@', 00H
data$r	ENDS
;	COMDAT ??_R4CTerrainDecal@@6B@
rdata$r	SEGMENT
??_R4CTerrainDecal@@6B@ DD 00H				; CTerrainDecal::`RTTI Complete Object Locator'
	DD	00H
	DD	00H
	DD	FLAT:??_R0?AVCTerrainDecal@@@8
	DD	FLAT:??_R3CTerrainDecal@@8
rdata$r	ENDS
;	COMDAT ??_7CTerrainDecal@@6B@
CONST	SEGMENT
??_7CTerrainDecal@@6B@ DD FLAT:??_R4CTerrainDecal@@6B@	; CTerrainDecal::`vftable'
	DD	FLAT:??_ECTerrainDecal@@UAEPAXI@Z
	DD	FLAT:?Make@CTerrainDecal@@UAEXUD3DXVECTOR3@@00MMM@Z
	DD	FLAT:?Render@CTerrainDecal@@UAEXXZ
CONST	ENDS
;	COMDAT xdata$x
xdata$x	SEGMENT
__ehfuncinfo$??1CTerrainDecal@@UAE@XZ DD 019930522H
	DD	00H
	DD	00H
	DD	2 DUP(00H)
	DD	2 DUP(00H)
	DD	00H
	DD	05H
xdata$x	ENDS
; Function compile flags: /Ogtp
;	COMDAT ??_GCTerrainDecal@@UAEPAXI@Z
_TEXT	SEGMENT
___flags$ = 8						; size = 4
??_GCTerrainDecal@@UAEPAXI@Z PROC			; CTerrainDecal::`scalar deleting destructor', COMDAT
; _this$ = ecx
  00000	55		 push	 ebp
  00001	8b ec		 mov	 ebp, esp
  00003	56		 push	 esi
  00004	8b f1		 mov	 esi, ecx
  00006	e8 00 00 00 00	 call	 ??1CTerrainDecal@@UAE@XZ ; CTerrainDecal::~CTerrainDecal
  0000b	f6 45 08 01	 test	 BYTE PTR ___flags$[ebp], 1
  0000f	74 0e		 je	 SHORT $LN4@scalar
  00011	68 98 1a 00 00	 push	 6808			; 00001a98H
  00016	56		 push	 esi
  00017	e8 00 00 00 00	 call	 ??3@YAXPAXI@Z		; operator delete
  0001c	83 c4 08	 add	 esp, 8
$LN4@scalar:
  0001f	8b c6		 mov	 eax, esi
  00021	5e		 pop	 esi
  00022	5d		 pop	 ebp
  00023	c2 04 00	 ret	 4
??_GCTerrainDecal@@UAEPAXI@Z ENDP			; CTerrainDecal::`scalar deleting destructor'
_TEXT	ENDS
; Function compile flags: /Ogtp
; File C:\DS Project\DS Files\Source\ClientSource\Client\GameLib\TerrainDecal.cpp
;	COMDAT ?SearchAffectedTerrainMesh@CTerrainDecal@@IAEXMMMMPAKPAUD3DXVECTOR3@@1@Z
_TEXT	SEGMENT
tv852 = -32						; size = 4
tv461 = -28						; size = 4
tv470 = -24						; size = 4
tv179 = -20						; size = 4
tv157 = -20						; size = 4
_byTerrainNum$1 = -16					; size = 1
_iMinX$2$ = -12						; size = 4
_pv3AffectedNormal$1$ = -8				; size = 4
_this$1$ = -4						; size = 4
_iy$1$ = 8						; size = 4
_iMaxY$1$ = 8						; size = 4
_fMinX$ = 8						; size = 4
_pTerrain$2 = 12					; size = 4
_fMaxX$ = 12						; size = 4
_iMaxX$2$ = 16						; size = 4
_fMinY$ = 16						; size = 4
_iMaxY$2$ = 20						; size = 4
_fMaxY$ = 20						; size = 4
_pdwAffectedPrimitiveCount$ = 24			; size = 4
_pv3AffectedVertex$1$ = 28				; size = 4
_pv3AffectedVertex$ = 28				; size = 4
_wTerrainNumY$1$ = 32					; size = 4
_pv3AffectedNormal$ = 32				; size = 4
?SearchAffectedTerrainMesh@CTerrainDecal@@IAEXMMMMPAKPAUD3DXVECTOR3@@1@Z PROC ; CTerrainDecal::SearchAffectedTerrainMesh, COMDAT
; _this$ = ecx

; 126  : {

  00000	55		 push	 ebp
  00001	8b ec		 mov	 ebp, esp
  00003	83 ec 20	 sub	 esp, 32			; 00000020H
  00006	56		 push	 esi
  00007	8b f1		 mov	 esi, ecx
  00009	89 75 fc	 mov	 DWORD PTR _this$1$[ebp], esi

; 127  : 	if (!m_pMapOutdoor)

  0000c	83 be 94 1a 00
	00 00		 cmp	 DWORD PTR [esi+6804], 0
  00013	0f 84 8b 03 00
	00		 je	 $LN3@SearchAffe

; 128  : 		return;
; 129  : 	int iMinX, iMaxX, iMinY, iMaxY;
; 130  : 	PR_FLOAT_TO_INT(fMinX, iMinX);

  00019	f3 0f 10 45 08	 movss	 xmm0, DWORD PTR _fMinX$[ebp]
  0001e	f3 0f 11 05 00
	00 00 00	 movss	 DWORD PTR ?PR_FCNV@@3MA, xmm0
  00026	d9 05 00 00 00
	00		 fld	 DWORD PTR ?PR_FCNV@@3MA	; PR_FCNV
  0002c	db 1d 00 00 00
	00		 fistp	 DWORD PTR ?PR_ICNV@@3JA
  00032	8b 0d 00 00 00
	00		 mov	 ecx, DWORD PTR ?PR_ICNV@@3JA ; PR_ICNV
  00038	66 0f 6e c1	 movd	 xmm0, ecx
  0003c	0f 5b c0	 cvtdq2ps xmm0, xmm0
  0003f	0f 2f 05 00 00
	00 00		 comiss	 xmm0, DWORD PTR ?PR_FCNV@@3MA
  00046	76 01		 jbe	 SHORT $LN14@SearchAffe
  00048	49		 dec	 ecx
$LN14@SearchAffe:

; 131  : 	PR_FLOAT_TO_INT(fMaxX, iMaxX);

  00049	f3 0f 10 45 0c	 movss	 xmm0, DWORD PTR _fMaxX$[ebp]
  0004e	57		 push	 edi
  0004f	f3 0f 11 05 00
	00 00 00	 movss	 DWORD PTR ?PR_FCNV@@3MA, xmm0
  00057	d9 05 00 00 00
	00		 fld	 DWORD PTR ?PR_FCNV@@3MA	; PR_FCNV
  0005d	db 1d 00 00 00
	00		 fistp	 DWORD PTR ?PR_ICNV@@3JA
  00063	8b 3d 00 00 00
	00		 mov	 edi, DWORD PTR ?PR_ICNV@@3JA ; PR_ICNV
  00069	66 0f 6e c7	 movd	 xmm0, edi
  0006d	0f 5b c0	 cvtdq2ps xmm0, xmm0
  00070	0f 2f 05 00 00
	00 00		 comiss	 xmm0, DWORD PTR ?PR_FCNV@@3MA
  00077	76 01		 jbe	 SHORT $LN16@SearchAffe
  00079	4f		 dec	 edi
$LN16@SearchAffe:

; 132  : 	PR_FLOAT_TO_INT(fMinY, iMinY);

  0007a	f3 0f 10 45 10	 movss	 xmm0, DWORD PTR _fMinY$[ebp]
  0007f	53		 push	 ebx
  00080	f3 0f 11 05 00
	00 00 00	 movss	 DWORD PTR ?PR_FCNV@@3MA, xmm0
  00088	d9 05 00 00 00
	00		 fld	 DWORD PTR ?PR_FCNV@@3MA	; PR_FCNV
  0008e	db 1d 00 00 00
	00		 fistp	 DWORD PTR ?PR_ICNV@@3JA
  00094	8b 1d 00 00 00
	00		 mov	 ebx, DWORD PTR ?PR_ICNV@@3JA ; PR_ICNV
  0009a	66 0f 6e c3	 movd	 xmm0, ebx
  0009e	0f 5b c0	 cvtdq2ps xmm0, xmm0
  000a1	0f 2f 05 00 00
	00 00		 comiss	 xmm0, DWORD PTR ?PR_FCNV@@3MA
  000a8	76 01		 jbe	 SHORT $LN18@SearchAffe
  000aa	4b		 dec	 ebx
$LN18@SearchAffe:

; 133  : 	PR_FLOAT_TO_INT(fMaxY, iMaxY);

  000ab	f3 0f 10 45 14	 movss	 xmm0, DWORD PTR _fMaxY$[ebp]
  000b0	f3 0f 11 05 00
	00 00 00	 movss	 DWORD PTR ?PR_FCNV@@3MA, xmm0
  000b8	d9 05 00 00 00
	00		 fld	 DWORD PTR ?PR_FCNV@@3MA	; PR_FCNV
  000be	db 1d 00 00 00
	00		 fistp	 DWORD PTR ?PR_ICNV@@3JA
  000c4	a1 00 00 00 00	 mov	 eax, DWORD PTR ?PR_ICNV@@3JA ; PR_ICNV
  000c9	89 45 08	 mov	 DWORD PTR _iMaxY$1$[ebp], eax
  000cc	66 0f 6e c0	 movd	 xmm0, eax
  000d0	0f 5b c0	 cvtdq2ps xmm0, xmm0
  000d3	0f 2f 05 00 00
	00 00		 comiss	 xmm0, DWORD PTR ?PR_FCNV@@3MA
  000da	76 04		 jbe	 SHORT $LN20@SearchAffe
  000dc	48		 dec	 eax
  000dd	89 45 08	 mov	 DWORD PTR _iMaxY$1$[ebp], eax
$LN20@SearchAffe:

; 134  : 
; 135  : 	iMinX -= iMinX % CTerrainImpl::CELLSCALE;

  000e0	b8 1f 85 eb 51	 mov	 eax, 1374389535		; 51eb851fH
  000e5	f7 e9		 imul	 ecx
  000e7	c1 fa 06	 sar	 edx, 6
  000ea	8b c2		 mov	 eax, edx
  000ec	c1 e8 1f	 shr	 eax, 31			; 0000001fH
  000ef	03 c2		 add	 eax, edx
  000f1	69 c0 c8 00 00
	00		 imul	 eax, eax, 200
  000f7	89 45 f4	 mov	 DWORD PTR _iMinX$2$[ebp], eax

; 136  : 	iMaxX -= iMaxX % CTerrainImpl::CELLSCALE;

  000fa	b8 1f 85 eb 51	 mov	 eax, 1374389535		; 51eb851fH
  000ff	f7 ef		 imul	 edi
  00101	c1 fa 06	 sar	 edx, 6
  00104	8b c2		 mov	 eax, edx
  00106	c1 e8 1f	 shr	 eax, 31			; 0000001fH
  00109	03 c2		 add	 eax, edx
  0010b	69 c0 c8 00 00
	00		 imul	 eax, eax, 200
  00111	89 45 10	 mov	 DWORD PTR _iMaxX$2$[ebp], eax

; 137  : 	iMinY -= iMinY % CTerrainImpl::CELLSCALE;
; 138  : 	iMaxY -= iMaxY % CTerrainImpl::CELLSCALE;

  00114	b8 1f 85 eb 51	 mov	 eax, 1374389535		; 51eb851fH
  00119	f7 6d 08	 imul	 DWORD PTR _iMaxY$1$[ebp]
  0011c	c1 fa 06	 sar	 edx, 6
  0011f	8b c2		 mov	 eax, edx
  00121	c1 e8 1f	 shr	 eax, 31			; 0000001fH
  00124	03 c2		 add	 eax, edx
  00126	69 c0 c8 00 00
	00		 imul	 eax, eax, 200
  0012c	89 45 14	 mov	 DWORD PTR _iMaxY$2$[ebp], eax
  0012f	b8 1f 85 eb 51	 mov	 eax, 1374389535		; 51eb851fH
  00134	f7 eb		 imul	 ebx
  00136	c1 fa 06	 sar	 edx, 6
  00139	8b c2		 mov	 eax, edx
  0013b	c1 e8 1f	 shr	 eax, 31			; 0000001fH
  0013e	03 c2		 add	 eax, edx
  00140	69 f8 c8 00 00
	00		 imul	 edi, eax, 200
  00146	89 7d 08	 mov	 DWORD PTR _iy$1$[ebp], edi

; 139  : 
; 140  : 	for(int iy = iMinY; iy <= iMaxY; iy += CTerrainImpl::CELLSCALE)

  00149	3b 7d 14	 cmp	 edi, DWORD PTR _iMaxY$2$[ebp]
  0014c	0f 8f 50 02 00
	00		 jg	 $LN58@SearchAffe
  00152	8b 45 20	 mov	 eax, DWORD PTR _pv3AffectedNormal$[ebp]
  00155	89 45 f8	 mov	 DWORD PTR _pv3AffectedNormal$1$[ebp], eax
  00158	8b 45 1c	 mov	 eax, DWORD PTR _pv3AffectedVertex$[ebp]
  0015b	89 45 1c	 mov	 DWORD PTR _pv3AffectedVertex$1$[ebp], eax
  0015e	8b 45 14	 mov	 eax, DWORD PTR _iMaxY$2$[ebp]
$LL4@SearchAffe:

; 141  : 	{
; 142  : 		if (iy < 0)

  00161	85 ff		 test	 edi, edi
  00163	0f 88 28 02 00
	00		 js	 $LN2@SearchAffe

; 143  : 			continue;
; 144  : 		WORD wTerrainNumY = iy / CTerrainImpl::TERRAIN_YSIZE;
; 145  : 		for(int ix = iMinX; ix <= iMaxX; ix += CTerrainImpl::CELLSCALE)

  00169	8b 5d f4	 mov	 ebx, DWORD PTR _iMinX$2$[ebp]
  0016c	b8 1f 85 eb 51	 mov	 eax, 1374389535		; 51eb851fH
  00171	f7 ef		 imul	 edi
  00173	c1 fa 0d	 sar	 edx, 13			; 0000000dH
  00176	8b c2		 mov	 eax, edx
  00178	c1 e8 1f	 shr	 eax, 31			; 0000001fH
  0017b	03 c2		 add	 eax, edx
  0017d	0f b7 c8	 movzx	 ecx, ax
  00180	8b 45 10	 mov	 eax, DWORD PTR _iMaxX$2$[ebp]
  00183	89 4d 20	 mov	 DWORD PTR _wTerrainNumY$1$[ebp], ecx
  00186	3b d8		 cmp	 ebx, eax
  00188	0f 8f 00 02 00
	00		 jg	 $LN56@SearchAffe
  0018e	66 90		 npad	 2
$LL7@SearchAffe:

; 146  : 		{
; 147  : 			if (ix < 0)

  00190	85 db		 test	 ebx, ebx
  00192	0f 88 e8 01 00
	00		 js	 $LN5@SearchAffe

; 148  : 				continue;
; 149  : 			WORD wTerrainNumX = ix / CTerrainImpl::TERRAIN_YSIZE;
; 150  : 
; 151  : 			BYTE byTerrainNum;
; 152  : 			if (!m_pMapOutdoor->GetTerrainNumFromCoord(wTerrainNumX, wTerrainNumY, &byTerrainNum))

  00198	8d 45 f0	 lea	 eax, DWORD PTR _byTerrainNum$1[ebp]
  0019b	50		 push	 eax
  0019c	b8 1f 85 eb 51	 mov	 eax, 1374389535		; 51eb851fH
  001a1	f7 eb		 imul	 ebx
  001a3	51		 push	 ecx
  001a4	8b 8e 94 1a 00
	00		 mov	 ecx, DWORD PTR [esi+6804]
  001aa	c1 fa 0d	 sar	 edx, 13			; 0000000dH
  001ad	8b c2		 mov	 eax, edx
  001af	c1 e8 1f	 shr	 eax, 31			; 0000001fH
  001b2	03 c2		 add	 eax, edx
  001b4	50		 push	 eax
  001b5	e8 00 00 00 00	 call	 ?GetTerrainNumFromCoord@CMapOutdoor@@QAE_NGGPAE@Z ; CMapOutdoor::GetTerrainNumFromCoord
  001ba	84 c0		 test	 al, al
  001bc	0f 84 b8 01 00
	00		 je	 $LN55@SearchAffe

; 153  : 				continue;
; 154  : 			CTerrain * pTerrain;
; 155  : 			if (!m_pMapOutdoor->GetTerrainPointer(byTerrainNum, &pTerrain))

  001c2	8b 8e 94 1a 00
	00		 mov	 ecx, DWORD PTR [esi+6804]
  001c8	8d 45 0c	 lea	 eax, DWORD PTR _pTerrain$2[ebp]
  001cb	50		 push	 eax
  001cc	ff 75 f0	 push	 DWORD PTR _byTerrainNum$1[ebp]
  001cf	e8 00 00 00 00	 call	 ?GetTerrainPointer@CMapOutdoor@@QAEHEPAPAVCTerrain@@@Z ; CMapOutdoor::GetTerrainPointer
  001d4	85 c0		 test	 eax, eax
  001d6	0f 84 9e 01 00
	00		 je	 $LN55@SearchAffe

; 156  : 				continue;
; 157  : 
; 158  : 			float fHeightLT = pTerrain->GetHeight(ix, iy) + m_cfDecalEpsilon;

  001dc	8b 4d 0c	 mov	 ecx, DWORD PTR _pTerrain$2[ebp]
  001df	57		 push	 edi
  001e0	53		 push	 ebx
  001e1	e8 00 00 00 00	 call	 ?GetHeight@CTerrain@@QAEMHH@Z ; CTerrain::GetHeight
  001e6	d8 86 90 1a 00
	00		 fadd	 DWORD PTR [esi+6800]

; 159  : 			float fHeightRT = pTerrain->GetHeight(ix + CTerrainImpl::CELLSCALE, iy) + m_cfDecalEpsilon;

  001ec	8b 4d 0c	 mov	 ecx, DWORD PTR _pTerrain$2[ebp]
  001ef	8d bb c8 00 00
	00		 lea	 edi, DWORD PTR [ebx+200]
  001f5	ff 75 08	 push	 DWORD PTR _iy$1$[ebp]
  001f8	d9 5d e8	 fstp	 DWORD PTR tv470[ebp]
  001fb	57		 push	 edi
  001fc	e8 00 00 00 00	 call	 ?GetHeight@CTerrain@@QAEMHH@Z ; CTerrain::GetHeight
  00201	f3 0f 10 86 90
	1a 00 00	 movss	 xmm0, DWORD PTR [esi+6800]

; 160  : 			float fHeightLB = pTerrain->GetHeight(ix, iy + CTerrainImpl::CELLSCALE) + m_cfDecalEpsilon;

  00209	8b 75 08	 mov	 esi, DWORD PTR _iy$1$[ebp]
  0020c	8b 4d 0c	 mov	 ecx, DWORD PTR _pTerrain$2[ebp]
  0020f	81 c6 c8 00 00
	00		 add	 esi, 200		; 000000c8H
  00215	d9 5d ec	 fstp	 DWORD PTR tv157[ebp]
  00218	f3 0f 58 45 ec	 addss	 xmm0, DWORD PTR tv157[ebp]
  0021d	56		 push	 esi
  0021e	53		 push	 ebx
  0021f	f3 0f 11 45 e0	 movss	 DWORD PTR tv852[ebp], xmm0
  00224	e8 00 00 00 00	 call	 ?GetHeight@CTerrain@@QAEMHH@Z ; CTerrain::GetHeight
  00229	8b 45 fc	 mov	 eax, DWORD PTR _this$1$[ebp]

; 161  : 			float fHeightRB = pTerrain->GetHeight(ix + CTerrainImpl::CELLSCALE, iy + CTerrainImpl::CELLSCALE) + m_cfDecalEpsilon;

  0022c	8b 4d 0c	 mov	 ecx, DWORD PTR _pTerrain$2[ebp]
  0022f	56		 push	 esi
  00230	57		 push	 edi
  00231	d8 80 90 1a 00
	00		 fadd	 DWORD PTR [eax+6800]
  00237	d9 5d e4	 fstp	 DWORD PTR tv461[ebp]
  0023a	e8 00 00 00 00	 call	 ?GetHeight@CTerrain@@QAEMHH@Z ; CTerrain::GetHeight

; 162  : 
; 163  : 			*pdwAffectedPrimitiveCount += 2;
; 164  : 
; 165  : 			*pv3AffectedVertex++ = D3DXVECTOR3((float)ix, (float)(-iy), fHeightLT);

  0023f	8b 4d 1c	 mov	 ecx, DWORD PTR _pv3AffectedVertex$1$[ebp]
  00242	8b 45 08	 mov	 eax, DWORD PTR _iy$1$[ebp]
  00245	8b 75 fc	 mov	 esi, DWORD PTR _this$1$[ebp]
  00248	f7 d8		 neg	 eax
  0024a	8b 55 18	 mov	 edx, DWORD PTR _pdwAffectedPrimitiveCount$[ebp]
  0024d	f3 0f 10 45 e8	 movss	 xmm0, DWORD PTR tv470[ebp]

; 166  : 			*pv3AffectedVertex++ = D3DXVECTOR3((float)ix, (float)(-iy - CTerrainImpl::CELLSCALE), fHeightLB);

  00252	f3 0f 10 4d e4	 movss	 xmm1, DWORD PTR tv461[ebp]
  00257	f3 0f 10 ae 90
	1a 00 00	 movss	 xmm5, DWORD PTR [esi+6800]
  0025f	83 02 02	 add	 DWORD PTR [edx], 2

; 167  : 			*pv3AffectedVertex++ = D3DXVECTOR3((float)(ix + CTerrainImpl::CELLSCALE), (float)(-iy), fHeightRT);

  00262	f3 0f 10 75 e0	 movss	 xmm6, DWORD PTR tv852[ebp]
  00267	66 0f 6e d0	 movd	 xmm2, eax
  0026b	05 38 ff ff ff	 add	 eax, -200		; ffffff38H
  00270	66 0f 6e e3	 movd	 xmm4, ebx
  00274	0f 5b e4	 cvtdq2ps xmm4, xmm4
  00277	0f 5b d2	 cvtdq2ps xmm2, xmm2
  0027a	f3 0f 11 21	 movss	 DWORD PTR [ecx], xmm4
  0027e	f3 0f 11 51 04	 movss	 DWORD PTR [ecx+4], xmm2
  00283	f3 0f 11 41 08	 movss	 DWORD PTR [ecx+8], xmm0
  00288	f3 0f 11 61 0c	 movss	 DWORD PTR [ecx+12], xmm4
  0028d	66 0f 6e d8	 movd	 xmm3, eax

; 168  : 			*pv3AffectedVertex++ = D3DXVECTOR3((float)(ix + CTerrainImpl::CELLSCALE), (float)(-iy), fHeightRT);

  00291	8d 41 30	 lea	 eax, DWORD PTR [ecx+48]
  00294	0f 5b db	 cvtdq2ps xmm3, xmm3
  00297	66 0f 6e c7	 movd	 xmm0, edi
  0029b	f3 0f 11 59 10	 movss	 DWORD PTR [ecx+16], xmm3
  002a0	f3 0f 11 49 14	 movss	 DWORD PTR [ecx+20], xmm1
  002a5	0f 5b c0	 cvtdq2ps xmm0, xmm0
  002a8	d9 5d ec	 fstp	 DWORD PTR tv179[ebp]
  002ab	f3 0f 58 6d ec	 addss	 xmm5, DWORD PTR tv179[ebp]
  002b0	f3 0f 11 41 18	 movss	 DWORD PTR [ecx+24], xmm0
  002b5	f3 0f 11 51 1c	 movss	 DWORD PTR [ecx+28], xmm2
  002ba	f3 0f 11 71 20	 movss	 DWORD PTR [ecx+32], xmm6
  002bf	f3 0f 11 41 24	 movss	 DWORD PTR [ecx+36], xmm0
  002c4	f3 0f 11 51 28	 movss	 DWORD PTR [ecx+40], xmm2
  002c9	f3 0f 11 71 2c	 movss	 DWORD PTR [ecx+44], xmm6

; 169  : 			*pv3AffectedVertex++ = D3DXVECTOR3((float)ix, (float)(-iy - CTerrainImpl::CELLSCALE), fHeightLB);

  002ce	f3 0f 11 20	 movss	 DWORD PTR [eax], xmm4
  002d2	f3 0f 11 58 04	 movss	 DWORD PTR [eax+4], xmm3
  002d7	f3 0f 11 48 08	 movss	 DWORD PTR [eax+8], xmm1

; 170  : 			*pv3AffectedVertex++ = D3DXVECTOR3((float)(ix + CTerrainImpl::CELLSCALE), (float)(-iy - CTerrainImpl::CELLSCALE), fHeightRB);

  002dc	f3 0f 11 40 0c	 movss	 DWORD PTR [eax+12], xmm0
  002e1	f3 0f 11 58 10	 movss	 DWORD PTR [eax+16], xmm3
  002e6	f3 0f 11 68 14	 movss	 DWORD PTR [eax+20], xmm5
  002eb	83 c0 18	 add	 eax, 24			; 00000018H
  002ee	89 45 1c	 mov	 DWORD PTR _pv3AffectedVertex$1$[ebp], eax

; 171  : 
; 172  : 			*pv3AffectedNormal++ = D3DXVECTOR3(0.0f, 0.0f, 1.0f);

  002f1	8b 45 f8	 mov	 eax, DWORD PTR _pv3AffectedNormal$1$[ebp]
  002f4	c7 00 00 00 00
	00		 mov	 DWORD PTR [eax], 0
  002fa	c7 40 04 00 00
	00 00		 mov	 DWORD PTR [eax+4], 0
  00301	c7 40 08 00 00
	80 3f		 mov	 DWORD PTR [eax+8], 1065353216 ; 3f800000H

; 173  : 			*pv3AffectedNormal++ = D3DXVECTOR3(0.0f, 0.0f, 1.0f);

  00308	c7 40 0c 00 00
	00 00		 mov	 DWORD PTR [eax+12], 0
  0030f	c7 40 10 00 00
	00 00		 mov	 DWORD PTR [eax+16], 0
  00316	c7 40 14 00 00
	80 3f		 mov	 DWORD PTR [eax+20], 1065353216 ; 3f800000H

; 174  : 			*pv3AffectedNormal++ = D3DXVECTOR3(0.0f, 0.0f, 1.0f);

  0031d	c7 40 18 00 00
	00 00		 mov	 DWORD PTR [eax+24], 0
  00324	c7 40 1c 00 00
	00 00		 mov	 DWORD PTR [eax+28], 0
  0032b	c7 40 20 00 00
	80 3f		 mov	 DWORD PTR [eax+32], 1065353216 ; 3f800000H

; 175  : 			*pv3AffectedNormal++ = D3DXVECTOR3(0.0f, 0.0f, 1.0f);

  00332	c7 40 24 00 00
	00 00		 mov	 DWORD PTR [eax+36], 0
  00339	8b 7d 08	 mov	 edi, DWORD PTR _iy$1$[ebp]
  0033c	c7 40 28 00 00
	00 00		 mov	 DWORD PTR [eax+40], 0
  00343	c7 40 2c 00 00
	80 3f		 mov	 DWORD PTR [eax+44], 1065353216 ; 3f800000H

; 176  : 			*pv3AffectedNormal++ = D3DXVECTOR3(0.0f, 0.0f, 1.0f);

  0034a	c7 40 30 00 00
	00 00		 mov	 DWORD PTR [eax+48], 0
  00351	c7 40 34 00 00
	00 00		 mov	 DWORD PTR [eax+52], 0
  00358	c7 40 38 00 00
	80 3f		 mov	 DWORD PTR [eax+56], 1065353216 ; 3f800000H

; 177  : 			*pv3AffectedNormal++ = D3DXVECTOR3(0.0f, 0.0f, 1.0f);

  0035f	c7 40 3c 00 00
	00 00		 mov	 DWORD PTR [eax+60], 0
  00366	c7 40 40 00 00
	00 00		 mov	 DWORD PTR [eax+64], 0
  0036d	c7 40 44 00 00
	80 3f		 mov	 DWORD PTR [eax+68], 1065353216 ; 3f800000H
  00374	83 c0 48	 add	 eax, 72			; 00000048H
  00377	89 45 f8	 mov	 DWORD PTR _pv3AffectedNormal$1$[ebp], eax
$LN55@SearchAffe:

; 143  : 			continue;
; 144  : 		WORD wTerrainNumY = iy / CTerrainImpl::TERRAIN_YSIZE;
; 145  : 		for(int ix = iMinX; ix <= iMaxX; ix += CTerrainImpl::CELLSCALE)

  0037a	8b 45 10	 mov	 eax, DWORD PTR _iMaxX$2$[ebp]
  0037d	8b 4d 20	 mov	 ecx, DWORD PTR _wTerrainNumY$1$[ebp]
$LN5@SearchAffe:
  00380	81 c3 c8 00 00
	00		 add	 ebx, 200		; 000000c8H
  00386	3b d8		 cmp	 ebx, eax
  00388	0f 8e 02 fe ff
	ff		 jle	 $LL7@SearchAffe
$LN56@SearchAffe:

; 139  : 
; 140  : 	for(int iy = iMinY; iy <= iMaxY; iy += CTerrainImpl::CELLSCALE)

  0038e	8b 45 14	 mov	 eax, DWORD PTR _iMaxY$2$[ebp]
$LN2@SearchAffe:
  00391	81 c7 c8 00 00
	00		 add	 edi, 200		; 000000c8H
  00397	89 7d 08	 mov	 DWORD PTR _iy$1$[ebp], edi
  0039a	3b f8		 cmp	 edi, eax
  0039c	0f 8e bf fd ff
	ff		 jle	 $LL4@SearchAffe
$LN58@SearchAffe:
  003a2	5b		 pop	 ebx
  003a3	5f		 pop	 edi
$LN3@SearchAffe:
  003a4	5e		 pop	 esi

; 178  : 		}
; 179  : 	}
; 180  : }

  003a5	8b e5		 mov	 esp, ebp
  003a7	5d		 pop	 ebp
  003a8	c2 1c 00	 ret	 28			; 0000001cH
?SearchAffectedTerrainMesh@CTerrainDecal@@IAEXMMMMPAKPAUD3DXVECTOR3@@1@Z ENDP ; CTerrainDecal::SearchAffectedTerrainMesh
_TEXT	ENDS
; Function compile flags: /Ogtp
; File C:\DS Project\DS Files\Source\ClientSource\Client\GameLib\TerrainDecal.cpp
;	COMDAT ?Render@CTerrainDecal@@UAEXXZ
_TEXT	SEGMENT
?Render@CTerrainDecal@@UAEXXZ PROC			; CTerrainDecal::Render, COMDAT
; _this$ = ecx

; 93   : {

  00000	56		 push	 esi

; 94   : 	STATEMANAGER.SaveRenderState(D3DRS_ALPHABLENDENABLE, TRUE);

  00001	6a 01		 push	 1
  00003	8b f1		 mov	 esi, ecx
  00005	8b 0d 00 00 00
	00		 mov	 ecx, DWORD PTR ?ms_singleton@?$CSingleton@VCStateManager@@@@0PAVCStateManager@@A ; CSingleton<CStateManager>::ms_singleton
  0000b	6a 1b		 push	 27			; 0000001bH
  0000d	e8 00 00 00 00	 call	 ?SaveRenderState@CStateManager@@QAEXW4_D3DRENDERSTATETYPE@@K@Z ; CStateManager::SaveRenderState

; 95   : 
; 96   : 	STATEMANAGER.SaveTextureStageState(0, D3DTSS_TEXCOORDINDEX, 0);

  00012	8b 0d 00 00 00
	00		 mov	 ecx, DWORD PTR ?ms_singleton@?$CSingleton@VCStateManager@@@@0PAVCStateManager@@A ; CSingleton<CStateManager>::ms_singleton
  00018	6a 00		 push	 0
  0001a	6a 0b		 push	 11			; 0000000bH
  0001c	6a 00		 push	 0
  0001e	e8 00 00 00 00	 call	 ?SaveTextureStageState@CStateManager@@QAEXKW4_D3DTEXTURESTAGESTATETYPE@@K@Z ; CStateManager::SaveTextureStageState

; 97   : 	STATEMANAGER.SaveTextureStageState(0, D3DTSS_TEXTURETRANSFORMFLAGS, D3DTTFF_DISABLE);

  00023	8b 0d 00 00 00
	00		 mov	 ecx, DWORD PTR ?ms_singleton@?$CSingleton@VCStateManager@@@@0PAVCStateManager@@A ; CSingleton<CStateManager>::ms_singleton
  00029	6a 00		 push	 0
  0002b	6a 18		 push	 24			; 00000018H
  0002d	6a 00		 push	 0
  0002f	e8 00 00 00 00	 call	 ?SaveTextureStageState@CStateManager@@QAEXKW4_D3DTEXTURESTAGESTATETYPE@@K@Z ; CStateManager::SaveTextureStageState

; 98   : 	STATEMANAGER.SaveTextureStageState(0, D3DTSS_ADDRESSU, D3DTADDRESS_CLAMP);

  00034	8b 0d 00 00 00
	00		 mov	 ecx, DWORD PTR ?ms_singleton@?$CSingleton@VCStateManager@@@@0PAVCStateManager@@A ; CSingleton<CStateManager>::ms_singleton
  0003a	6a 03		 push	 3
  0003c	6a 0d		 push	 13			; 0000000dH
  0003e	6a 00		 push	 0
  00040	e8 00 00 00 00	 call	 ?SaveTextureStageState@CStateManager@@QAEXKW4_D3DTEXTURESTAGESTATETYPE@@K@Z ; CStateManager::SaveTextureStageState

; 99   : 	STATEMANAGER.SaveTextureStageState(0, D3DTSS_ADDRESSV, D3DTADDRESS_CLAMP);

  00045	8b 0d 00 00 00
	00		 mov	 ecx, DWORD PTR ?ms_singleton@?$CSingleton@VCStateManager@@@@0PAVCStateManager@@A ; CSingleton<CStateManager>::ms_singleton
  0004b	6a 03		 push	 3
  0004d	6a 0e		 push	 14			; 0000000eH
  0004f	6a 00		 push	 0
  00051	e8 00 00 00 00	 call	 ?SaveTextureStageState@CStateManager@@QAEXKW4_D3DTEXTURESTAGESTATETYPE@@K@Z ; CStateManager::SaveTextureStageState

; 100  : 
; 101  : 	STATEMANAGER.SetTextureStageState(0, D3DTSS_COLORARG1,	D3DTA_TEXTURE);

  00056	8b 0d 00 00 00
	00		 mov	 ecx, DWORD PTR ?ms_singleton@?$CSingleton@VCStateManager@@@@0PAVCStateManager@@A ; CSingleton<CStateManager>::ms_singleton
  0005c	6a 02		 push	 2
  0005e	6a 02		 push	 2
  00060	6a 00		 push	 0
  00062	e8 00 00 00 00	 call	 ?SetTextureStageState@CStateManager@@QAEXKW4_D3DTEXTURESTAGESTATETYPE@@K@Z ; CStateManager::SetTextureStageState

; 102  : 	STATEMANAGER.SetTextureStageState(0, D3DTSS_COLOROP,	D3DTOP_SELECTARG1);

  00067	8b 0d 00 00 00
	00		 mov	 ecx, DWORD PTR ?ms_singleton@?$CSingleton@VCStateManager@@@@0PAVCStateManager@@A ; CSingleton<CStateManager>::ms_singleton
  0006d	6a 02		 push	 2
  0006f	6a 01		 push	 1
  00071	6a 00		 push	 0
  00073	e8 00 00 00 00	 call	 ?SetTextureStageState@CStateManager@@QAEXKW4_D3DTEXTURESTAGESTATETYPE@@K@Z ; CStateManager::SetTextureStageState

; 103  : 	STATEMANAGER.SetTextureStageState(0, D3DTSS_ALPHAARG1,	D3DTA_TEXTURE);

  00078	8b 0d 00 00 00
	00		 mov	 ecx, DWORD PTR ?ms_singleton@?$CSingleton@VCStateManager@@@@0PAVCStateManager@@A ; CSingleton<CStateManager>::ms_singleton
  0007e	6a 02		 push	 2
  00080	6a 05		 push	 5
  00082	6a 00		 push	 0
  00084	e8 00 00 00 00	 call	 ?SetTextureStageState@CStateManager@@QAEXKW4_D3DTEXTURESTAGESTATETYPE@@K@Z ; CStateManager::SetTextureStageState

; 104  :  	STATEMANAGER.SetTextureStageState(0, D3DTSS_ALPHAOP,	D3DTOP_SELECTARG1);

  00089	8b 0d 00 00 00
	00		 mov	 ecx, DWORD PTR ?ms_singleton@?$CSingleton@VCStateManager@@@@0PAVCStateManager@@A ; CSingleton<CStateManager>::ms_singleton
  0008f	6a 02		 push	 2
  00091	6a 04		 push	 4
  00093	6a 00		 push	 0
  00095	e8 00 00 00 00	 call	 ?SetTextureStageState@CStateManager@@QAEXKW4_D3DTEXTURESTAGESTATETYPE@@K@Z ; CStateManager::SetTextureStageState

; 105  : 
; 106  : 	STATEMANAGER.SetTextureStageState(1, D3DTSS_COLOROP, D3DTOP_DISABLE);

  0009a	8b 0d 00 00 00
	00		 mov	 ecx, DWORD PTR ?ms_singleton@?$CSingleton@VCStateManager@@@@0PAVCStateManager@@A ; CSingleton<CStateManager>::ms_singleton
  000a0	6a 01		 push	 1
  000a2	6a 01		 push	 1
  000a4	6a 01		 push	 1
  000a6	e8 00 00 00 00	 call	 ?SetTextureStageState@CStateManager@@QAEXKW4_D3DTEXTURESTAGESTATETYPE@@K@Z ; CStateManager::SetTextureStageState

; 107  : 	STATEMANAGER.SetTextureStageState(1, D3DTSS_ALPHAOP, D3DTOP_DISABLE);

  000ab	8b 0d 00 00 00
	00		 mov	 ecx, DWORD PTR ?ms_singleton@?$CSingleton@VCStateManager@@@@0PAVCStateManager@@A ; CSingleton<CStateManager>::ms_singleton
  000b1	6a 01		 push	 1
  000b3	6a 04		 push	 4
  000b5	6a 01		 push	 1
  000b7	e8 00 00 00 00	 call	 ?SetTextureStageState@CStateManager@@QAEXKW4_D3DTEXTURESTAGESTATETYPE@@K@Z ; CStateManager::SetTextureStageState

; 108  : 
; 109  : 	CDecal::Render();

  000bc	8b ce		 mov	 ecx, esi
  000be	e8 00 00 00 00	 call	 ?Render@CDecal@@UAEXXZ	; CDecal::Render

; 110  : 
; 111  : 	STATEMANAGER.RestoreTextureStageState(0, D3DTSS_TEXCOORDINDEX);

  000c3	8b 0d 00 00 00
	00		 mov	 ecx, DWORD PTR ?ms_singleton@?$CSingleton@VCStateManager@@@@0PAVCStateManager@@A ; CSingleton<CStateManager>::ms_singleton
  000c9	6a 0b		 push	 11			; 0000000bH
  000cb	6a 00		 push	 0
  000cd	e8 00 00 00 00	 call	 ?RestoreTextureStageState@CStateManager@@QAEXKW4_D3DTEXTURESTAGESTATETYPE@@@Z ; CStateManager::RestoreTextureStageState

; 112  : 	STATEMANAGER.RestoreTextureStageState(0, D3DTSS_TEXTURETRANSFORMFLAGS);

  000d2	8b 0d 00 00 00
	00		 mov	 ecx, DWORD PTR ?ms_singleton@?$CSingleton@VCStateManager@@@@0PAVCStateManager@@A ; CSingleton<CStateManager>::ms_singleton
  000d8	6a 18		 push	 24			; 00000018H
  000da	6a 00		 push	 0
  000dc	e8 00 00 00 00	 call	 ?RestoreTextureStageState@CStateManager@@QAEXKW4_D3DTEXTURESTAGESTATETYPE@@@Z ; CStateManager::RestoreTextureStageState

; 113  : 	STATEMANAGER.RestoreTextureStageState(0, D3DTSS_ADDRESSU);

  000e1	8b 0d 00 00 00
	00		 mov	 ecx, DWORD PTR ?ms_singleton@?$CSingleton@VCStateManager@@@@0PAVCStateManager@@A ; CSingleton<CStateManager>::ms_singleton
  000e7	6a 0d		 push	 13			; 0000000dH
  000e9	6a 00		 push	 0
  000eb	e8 00 00 00 00	 call	 ?RestoreTextureStageState@CStateManager@@QAEXKW4_D3DTEXTURESTAGESTATETYPE@@@Z ; CStateManager::RestoreTextureStageState

; 114  : 	STATEMANAGER.RestoreTextureStageState(0, D3DTSS_ADDRESSV);

  000f0	8b 0d 00 00 00
	00		 mov	 ecx, DWORD PTR ?ms_singleton@?$CSingleton@VCStateManager@@@@0PAVCStateManager@@A ; CSingleton<CStateManager>::ms_singleton
  000f6	6a 0e		 push	 14			; 0000000eH
  000f8	6a 00		 push	 0
  000fa	e8 00 00 00 00	 call	 ?RestoreTextureStageState@CStateManager@@QAEXKW4_D3DTEXTURESTAGESTATETYPE@@@Z ; CStateManager::RestoreTextureStageState

; 115  : 
; 116  : 	STATEMANAGER.RestoreRenderState(D3DRS_ALPHABLENDENABLE);

  000ff	8b 0d 00 00 00
	00		 mov	 ecx, DWORD PTR ?ms_singleton@?$CSingleton@VCStateManager@@@@0PAVCStateManager@@A ; CSingleton<CStateManager>::ms_singleton
  00105	6a 1b		 push	 27			; 0000001bH
  00107	e8 00 00 00 00	 call	 ?RestoreRenderState@CStateManager@@QAEXW4_D3DRENDERSTATETYPE@@@Z ; CStateManager::RestoreRenderState
  0010c	5e		 pop	 esi

; 117  : }

  0010d	c3		 ret	 0
?Render@CTerrainDecal@@UAEXXZ ENDP			; CTerrainDecal::Render
_TEXT	ENDS
; Function compile flags: /Ogtp
; File C:\DS Project\DS Files\Source\ClientSource\Client\GameLib\TerrainDecal.cpp
; File C:\DS Project\DS Files\Source\ClientSource\extern\include\d3dx8math.inl
; File C:\DS Project\DS Files\Source\ClientSource\Client\GameLib\TerrainDecal.cpp
; File C:\DS Project\DS Files\Source\ClientSource\extern\include\d3dx8math.inl
; File C:\DS Project\DS Files\Source\ClientSource\Client\GameLib\TerrainDecal.cpp
; File C:\DS Project\DS Files\Source\ClientSource\extern\include\d3dx8math.inl
; File C:\DS Project\DS Files\Source\ClientSource\Client\GameLib\TerrainDecal.cpp
; File C:\DS Project\DS Files\Source\ClientSource\extern\include\d3dx8math.inl
; File C:\DS Project\DS Files\Source\ClientSource\Client\GameLib\TerrainDecal.cpp
; File C:\DS Project\DS Files\Source\ClientSource\extern\include\d3dx8math.inl
; File C:\DS Project\DS Files\Source\ClientSource\Client\GameLib\TerrainDecal.cpp
; File C:\DS Project\DS Files\Source\ClientSource\extern\include\d3dx8math.inl
; File C:\DS Project\DS Files\Source\ClientSource\Client\GameLib\TerrainDecal.cpp
; File C:\DS Project\DS Files\Source\ClientSource\extern\include\d3dx8math.inl
; File C:\DS Project\DS Files\Source\ClientSource\Client\GameLib\TerrainDecal.cpp
; File C:\DS Project\DS Files\Source\ClientSource\extern\include\d3dx8math.inl
; File C:\DS Project\DS Files\Source\ClientSource\Client\GameLib\TerrainDecal.cpp
; File C:\DS Project\DS Files\Source\ClientSource\extern\include\d3dx8math.inl
; File C:\DS Project\DS Files\Source\ClientSource\Client\GameLib\TerrainDecal.cpp
; File C:\DS Project\DS Files\Source\ClientSource\extern\include\d3dx8math.inl
; File C:\DS Project\DS Files\Source\ClientSource\Client\GameLib\TerrainDecal.cpp
; File C:\DS Project\DS Files\Source\ClientSource\extern\include\d3dx8math.inl
; File C:\DS Project\DS Files\Source\ClientSource\Client\GameLib\TerrainDecal.cpp
; File C:\DS Project\DS Files\Source\ClientSource\extern\include\d3dx8math.inl
; File C:\DS Project\DS Files\Source\ClientSource\Client\GameLib\TerrainDecal.cpp
; File C:\DS Project\DS Files\Source\ClientSource\extern\include\d3dx8math.inl
; File C:\DS Project\DS Files\Source\ClientSource\Client\GameLib\TerrainDecal.cpp
; File C:\DS Project\DS Files\Source\ClientSource\extern\include\d3dx8math.inl
; File C:\DS Project\DS Files\Source\ClientSource\Client\GameLib\TerrainDecal.cpp
; File C:\DS Project\DS Files\Source\ClientSource\extern\include\d3dx8math.inl
; File C:\DS Project\DS Files\Source\ClientSource\Client\GameLib\TerrainDecal.cpp
; File C:\DS Project\DS Files\Source\ClientSource\extern\include\d3dx8math.inl
; File C:\DS Project\DS Files\Source\ClientSource\Client\GameLib\TerrainDecal.cpp
; File C:\DS Project\DS Files\Source\ClientSource\extern\include\d3dx8math.inl
; File C:\DS Project\DS Files\Source\ClientSource\Client\GameLib\TerrainDecal.cpp
; File C:\DS Project\DS Files\Source\ClientSource\extern\include\d3dx8math.inl
; File C:\DS Project\DS Files\Source\ClientSource\Client\GameLib\TerrainDecal.cpp
; File C:\DS Project\DS Files\Source\ClientSource\extern\include\d3dx8math.inl
; File C:\DS Project\DS Files\Source\ClientSource\Client\GameLib\TerrainDecal.cpp
; File C:\DS Project\DS Files\Source\ClientSource\extern\include\d3dx8math.inl
; File C:\DS Project\DS Files\Source\ClientSource\Client\GameLib\TerrainDecal.cpp
; File C:\DS Project\DS Files\Source\ClientSource\extern\include\d3dx8math.inl
; File C:\DS Project\DS Files\Source\ClientSource\Client\GameLib\TerrainDecal.cpp
; File C:\DS Project\DS Files\Source\ClientSource\extern\include\d3dx8math.inl
; File C:\DS Project\DS Files\Source\ClientSource\Client\GameLib\TerrainDecal.cpp
; File C:\DS Project\DS Files\Source\ClientSource\extern\include\d3dx8math.inl
; File C:\DS Project\DS Files\Source\ClientSource\Client\GameLib\TerrainDecal.cpp
; File C:\DS Project\DS Files\Source\ClientSource\extern\include\d3dx8math.inl
; File C:\DS Project\DS Files\Source\ClientSource\Client\GameLib\TerrainDecal.cpp
; File C:\DS Project\DS Files\Source\ClientSource\extern\include\d3dx8math.inl
; File C:\DS Project\DS Files\Source\ClientSource\Client\GameLib\TerrainDecal.cpp
; File C:\DS Project\DS Files\Source\ClientSource\extern\include\d3dx8math.inl
; File C:\DS Project\DS Files\Source\ClientSource\Client\GameLib\TerrainDecal.cpp
; File C:\DS Project\DS Files\Source\ClientSource\extern\include\d3dx8math.inl
; File C:\DS Project\DS Files\Source\ClientSource\Client\GameLib\TerrainDecal.cpp
; File C:\DS Project\DS Files\Source\ClientSource\extern\include\d3dx8math.inl
; File C:\DS Project\DS Files\Source\ClientSource\Client\GameLib\TerrainDecal.cpp
; File C:\DS Project\DS Files\Source\ClientSource\extern\include\d3dx8math.inl
; File C:\DS Project\DS Files\Source\ClientSource\Client\GameLib\TerrainDecal.cpp
; File C:\DS Project\DS Files\Source\ClientSource\extern\include\d3dx8math.inl
; File C:\DS Project\DS Files\Source\ClientSource\Client\GameLib\TerrainDecal.cpp
; File C:\Program Files (x86)\Windows Kits\10\Include\10.0.18362.0\ucrt\corecrt_math.h
; File C:\DS Project\DS Files\Source\ClientSource\Client\GameLib\TerrainDecal.cpp
; File C:\DS Project\DS Files\Source\ClientSource\extern\include\d3dx8math.inl
; File C:\DS Project\DS Files\Source\ClientSource\Client\GameLib\TerrainDecal.cpp
; File C:\DS Project\DS Files\Source\ClientSource\extern\include\d3dx8math.inl
; File C:\DS Project\DS Files\Source\ClientSource\Client\GameLib\TerrainDecal.cpp
; File C:\DS Project\DS Files\Source\ClientSource\extern\include\d3dx8math.inl
; File C:\DS Project\DS Files\Source\ClientSource\Client\GameLib\TerrainDecal.cpp
;	COMDAT ?Make@CTerrainDecal@@UAEXUD3DXVECTOR3@@00MMM@Z
_TEXT	SEGMENT
_fMinY$1$ = -24636					; size = 4
_fMaxY$1$ = -24632					; size = 4
_fOne_over_h$1$ = -24628				; size = 4
_fMinX$1$ = -24628					; size = 4
_fOne_over_w$1$ = -24624				; size = 4
_fMaxX$1$ = -24624					; size = 4
_fHeight$GSCopy$1$ = -24620				; size = 4
_fWidth$GSCopy$1$ = -24616				; size = 4
_dwAffectedPrimitiveCount$ = -24612			; size = 4
_fSearchRadius$ = -24612				; size = 4
$T2 = -24608						; size = 16
$T3 = -24608						; size = 16
$T4 = -24608						; size = 16
$T5 = -24608						; size = 16
$T6 = -24608						; size = 16
$T7 = -24608						; size = 16
_v3Binormal$ = -24592					; size = 12
_v3AffectedVertex$ = -24580				; size = 12288
_v3AffectedNormal$ = -12292				; size = 12288
__$ArrayPad$ = -4					; size = 4
_v3Center$ = 8						; size = 12
_v3Normal$ = 20						; size = 12
_v3Tangent$ = 32					; size = 12
_fWidth$ = 44						; size = 4
_fHeight$ = 48						; size = 4
_fDepth$ = 52						; size = 4
?Make@CTerrainDecal@@UAEXUD3DXVECTOR3@@00MMM@Z PROC	; CTerrainDecal::Make, COMDAT
; _this$ = ecx

; 28   : {

  00000	55		 push	 ebp
  00001	8b ec		 mov	 ebp, esp
  00003	b8 3c 60 00 00	 mov	 eax, 24636		; 0000603cH
  00008	e8 00 00 00 00	 call	 __chkstk
  0000d	a1 00 00 00 00	 mov	 eax, DWORD PTR ___security_cookie
  00012	33 c5		 xor	 eax, ebp
  00014	89 45 fc	 mov	 DWORD PTR __$ArrayPad$[ebp], eax
  00017	f3 0f 10 45 2c	 movss	 xmm0, DWORD PTR _fWidth$[ebp]
  0001c	f3 0f 11 85 d8
	9f ff ff	 movss	 DWORD PTR _fWidth$GSCopy$1$[ebp], xmm0
  00024	f3 0f 10 45 30	 movss	 xmm0, DWORD PTR _fHeight$[ebp]
  00029	56		 push	 esi
  0002a	8b f1		 mov	 esi, ecx
  0002c	f3 0f 11 85 d4
	9f ff ff	 movss	 DWORD PTR _fHeight$GSCopy$1$[ebp], xmm0

; 29   : 	Clear();

  00034	e8 00 00 00 00	 call	 ?Clear@CDecal@@QAEXXZ	; CDecal::Clear

; 30   : 	m_v3Center = v3Center;

  00039	f3 0f 7e 45 08	 movq	 xmm0, QWORD PTR _v3Center$[ebp]
  0003e	8b 45 10	 mov	 eax, DWORD PTR _v3Center$[ebp+8]
  00041	66 0f d6 46 04	 movq	 QWORD PTR [esi+4], xmm0

; 31   : 	m_v3Normal = v3Normal;

  00046	f3 0f 7e 45 14	 movq	 xmm0, QWORD PTR _v3Normal$[ebp]
  0004b	89 46 0c	 mov	 DWORD PTR [esi+12], eax
  0004e	8b 45 1c	 mov	 eax, DWORD PTR _v3Normal$[ebp+8]
  00051	66 0f d6 46 10	 movq	 QWORD PTR [esi+16], xmm0
  00056	89 46 18	 mov	 DWORD PTR [esi+24], eax

; 32   : 
; 33   : 	D3DXVECTOR3 v3Binormal;
; 34   : 	D3DXVec3Normalize(&v3Normal, &v3Normal);

  00059	8d 45 14	 lea	 eax, DWORD PTR _v3Normal$[ebp]
  0005c	50		 push	 eax
  0005d	50		 push	 eax
  0005e	e8 00 00 00 00	 call	 _D3DXVec3Normalize@8

; 35   : 	D3DXVec3Normalize(&v3Tangent, &v3Tangent);

  00063	8d 45 20	 lea	 eax, DWORD PTR _v3Tangent$[ebp]
  00066	50		 push	 eax
  00067	50		 push	 eax
  00068	e8 00 00 00 00	 call	 _D3DXVec3Normalize@8
; File C:\DS Project\DS Files\Source\ClientSource\extern\include\d3dx8math.inl

; 1277 :     v.x = pV1->y * pV2->z - pV1->z * pV2->y;

  0006d	f3 0f 10 76 14	 movss	 xmm6, DWORD PTR [esi+20]
; File C:\DS Project\DS Files\Source\ClientSource\Client\GameLib\TerrainDecal.cpp

; 37   : 	D3DXVec3Normalize(&v3Binormal, &v3Binormal);

  00072	8d 85 f0 9f ff
	ff		 lea	 eax, DWORD PTR _v3Binormal$[ebp]
; File C:\DS Project\DS Files\Source\ClientSource\extern\include\d3dx8math.inl

; 1277 :     v.x = pV1->y * pV2->z - pV1->z * pV2->y;

  00078	f3 0f 10 66 18	 movss	 xmm4, DWORD PTR [esi+24]
  0007d	0f 28 ce	 movaps	 xmm1, xmm6
  00080	f3 0f 59 4d 28	 mulss	 xmm1, DWORD PTR _v3Tangent$[ebp+8]
  00085	0f 28 c4	 movaps	 xmm0, xmm4
; File C:\DS Project\DS Files\Source\ClientSource\Client\GameLib\TerrainDecal.cpp

; 37   : 	D3DXVec3Normalize(&v3Binormal, &v3Binormal);

  00088	50		 push	 eax
; File C:\DS Project\DS Files\Source\ClientSource\extern\include\d3dx8math.inl

; 1277 :     v.x = pV1->y * pV2->z - pV1->z * pV2->y;

  00089	f3 0f 59 45 24	 mulss	 xmm0, DWORD PTR _v3Tangent$[ebp+4]
; File C:\DS Project\DS Files\Source\ClientSource\Client\GameLib\TerrainDecal.cpp

; 37   : 	D3DXVec3Normalize(&v3Binormal, &v3Binormal);

  0008e	50		 push	 eax
; File C:\DS Project\DS Files\Source\ClientSource\extern\include\d3dx8math.inl

; 1278 :     v.y = pV1->z * pV2->x - pV1->x * pV2->z;

  0008f	f3 0f 10 6e 10	 movss	 xmm5, DWORD PTR [esi+16]
  00094	f3 0f 59 65 20	 mulss	 xmm4, DWORD PTR _v3Tangent$[ebp]

; 1279 :     v.z = pV1->x * pV2->y - pV1->y * pV2->x;

  00099	f3 0f 59 75 20	 mulss	 xmm6, DWORD PTR _v3Tangent$[ebp]
  0009e	f3 0f 5c c8	 subss	 xmm1, xmm0
  000a2	0f 28 c5	 movaps	 xmm0, xmm5
  000a5	f3 0f 59 6d 24	 mulss	 xmm5, DWORD PTR _v3Tangent$[ebp+4]
  000aa	f3 0f 59 45 28	 mulss	 xmm0, DWORD PTR _v3Tangent$[ebp+8]
  000af	f3 0f 5c ee	 subss	 xmm5, xmm6

; 1280 : 
; 1281 :     *pOut = v;

  000b3	f3 0f 11 8d f0
	9f ff ff	 movss	 DWORD PTR _v3Binormal$[ebp], xmm1
  000bb	f3 0f 5c e0	 subss	 xmm4, xmm0
  000bf	f3 0f 11 ad f8
	9f ff ff	 movss	 DWORD PTR _v3Binormal$[ebp+8], xmm5
  000c7	f3 0f 11 a5 f4
	9f ff ff	 movss	 DWORD PTR _v3Binormal$[ebp+4], xmm4
; File C:\DS Project\DS Files\Source\ClientSource\Client\GameLib\TerrainDecal.cpp

; 37   : 	D3DXVec3Normalize(&v3Binormal, &v3Binormal);

  000cf	e8 00 00 00 00	 call	 _D3DXVec3Normalize@8
; File C:\DS Project\DS Files\Source\ClientSource\extern\include\d3dx8math.inl

; 1264 :     return pV1->x * pV2->x + pV1->y * pV2->y + pV1->z * pV2->z;

  000d4	f3 0f 10 7e 04	 movss	 xmm7, DWORD PTR [esi+4]
  000d9	f3 0f 10 6e 08	 movss	 xmm5, DWORD PTR [esi+8]
  000de	0f 28 c7	 movaps	 xmm0, xmm7
  000e1	f3 0f 10 65 24	 movss	 xmm4, DWORD PTR _v3Tangent$[ebp+4]
  000e6	f3 0f 10 55 20	 movss	 xmm2, DWORD PTR _v3Tangent$[ebp]
  000eb	f3 0f 10 5d 28	 movss	 xmm3, DWORD PTR _v3Tangent$[ebp+8]
; File C:\DS Project\DS Files\Source\ClientSource\Client\GameLib\TerrainDecal.cpp

; 41   : 	m_v4LeftPlane = D3DXPLANE(v3Tangent.x, v3Tangent.y, v3Tangent.z, fWidth * 0.5f - fd);

  000f0	f3 0f 10 8d d8
	9f ff ff	 movss	 xmm1, DWORD PTR _fWidth$GSCopy$1$[ebp]
  000f8	f3 0f 59 0d 00
	00 00 00	 mulss	 xmm1, DWORD PTR __real@3f000000

; 42   : 	m_v4RightPlane = D3DXPLANE(-v3Tangent.x, -v3Tangent.y, -v3Tangent.z, fWidth * 0.5f + fd);

  00100	f3 0f 10 35 00
	00 00 00	 movss	 xmm6, DWORD PTR __xmm@80000000800000008000000080000000
; File C:\DS Project\DS Files\Source\ClientSource\extern\include\d3dx8math.inl

; 1264 :     return pV1->x * pV2->x + pV1->y * pV2->y + pV1->z * pV2->z;

  00108	f3 0f 59 c2	 mulss	 xmm0, xmm2
  0010c	f3 0f 59 ec	 mulss	 xmm5, xmm4

; 830  :     b = fb;

  00110	f3 0f 11 a5 e4
	9f ff ff	 movss	 DWORD PTR $T7[ebp+4], xmm4
; File C:\DS Project\DS Files\Source\ClientSource\Client\GameLib\TerrainDecal.cpp

; 42   : 	m_v4RightPlane = D3DXPLANE(-v3Tangent.x, -v3Tangent.y, -v3Tangent.z, fWidth * 0.5f + fd);

  00118	0f 57 e6	 xorps	 xmm4, xmm6
; File C:\DS Project\DS Files\Source\ClientSource\extern\include\d3dx8math.inl

; 829  :     a = fa;

  0011b	f3 0f 11 95 e0
	9f ff ff	 movss	 DWORD PTR $T7[ebp], xmm2
; File C:\DS Project\DS Files\Source\ClientSource\Client\GameLib\TerrainDecal.cpp

; 42   : 	m_v4RightPlane = D3DXPLANE(-v3Tangent.x, -v3Tangent.y, -v3Tangent.z, fWidth * 0.5f + fd);

  00123	0f 57 d6	 xorps	 xmm2, xmm6
; File C:\DS Project\DS Files\Source\ClientSource\extern\include\d3dx8math.inl

; 1264 :     return pV1->x * pV2->x + pV1->y * pV2->y + pV1->z * pV2->z;

  00126	f3 0f 58 e8	 addss	 xmm5, xmm0

; 831  :     c = fc;

  0012a	f3 0f 11 9d e8
	9f ff ff	 movss	 DWORD PTR $T7[ebp+8], xmm3

; 1264 :     return pV1->x * pV2->x + pV1->y * pV2->y + pV1->z * pV2->z;

  00132	f3 0f 10 46 0c	 movss	 xmm0, DWORD PTR [esi+12]
  00137	f3 0f 59 c3	 mulss	 xmm0, xmm3
; File C:\DS Project\DS Files\Source\ClientSource\Client\GameLib\TerrainDecal.cpp

; 42   : 	m_v4RightPlane = D3DXPLANE(-v3Tangent.x, -v3Tangent.y, -v3Tangent.z, fWidth * 0.5f + fd);

  0013b	0f 57 de	 xorps	 xmm3, xmm6
; File C:\DS Project\DS Files\Source\ClientSource\extern\include\d3dx8math.inl

; 1264 :     return pV1->x * pV2->x + pV1->y * pV2->y + pV1->z * pV2->z;

  0013e	f3 0f 58 e8	 addss	 xmm5, xmm0
; File C:\DS Project\DS Files\Source\ClientSource\Client\GameLib\TerrainDecal.cpp

; 41   : 	m_v4LeftPlane = D3DXPLANE(v3Tangent.x, v3Tangent.y, v3Tangent.z, fWidth * 0.5f - fd);

  00142	0f 28 c1	 movaps	 xmm0, xmm1
  00145	f3 0f 5c c5	 subss	 xmm0, xmm5

; 42   : 	m_v4RightPlane = D3DXPLANE(-v3Tangent.x, -v3Tangent.y, -v3Tangent.z, fWidth * 0.5f + fd);

  00149	f3 0f 58 cd	 addss	 xmm1, xmm5
; File C:\DS Project\DS Files\Source\ClientSource\extern\include\d3dx8math.inl

; 832  :     d = fd;

  0014d	f3 0f 11 85 ec
	9f ff ff	 movss	 DWORD PTR $T7[ebp+12], xmm0
; File C:\DS Project\DS Files\Source\ClientSource\Client\GameLib\TerrainDecal.cpp

; 41   : 	m_v4LeftPlane = D3DXPLANE(v3Tangent.x, v3Tangent.y, v3Tangent.z, fWidth * 0.5f - fd);

  00155	0f 10 85 e0 9f
	ff ff		 movups	 xmm0, XMMWORD PTR $T7[ebp]
; File C:\DS Project\DS Files\Source\ClientSource\extern\include\d3dx8math.inl

; 830  :     b = fb;

  0015c	f3 0f 11 a5 e4
	9f ff ff	 movss	 DWORD PTR $T6[ebp+4], xmm4

; 1264 :     return pV1->x * pV2->x + pV1->y * pV2->y + pV1->z * pV2->z;

  00164	f3 0f 10 a5 f4
	9f ff ff	 movss	 xmm4, DWORD PTR _v3Binormal$[ebp+4]
; File C:\DS Project\DS Files\Source\ClientSource\Client\GameLib\TerrainDecal.cpp

; 41   : 	m_v4LeftPlane = D3DXPLANE(v3Tangent.x, v3Tangent.y, v3Tangent.z, fWidth * 0.5f - fd);

  0016c	0f 11 46 1c	 movups	 XMMWORD PTR [esi+28], xmm0
; File C:\DS Project\DS Files\Source\ClientSource\extern\include\d3dx8math.inl

; 829  :     a = fa;

  00170	f3 0f 11 95 e0
	9f ff ff	 movss	 DWORD PTR $T6[ebp], xmm2

; 831  :     c = fc;

  00178	f3 0f 11 9d e8
	9f ff ff	 movss	 DWORD PTR $T6[ebp+8], xmm3

; 832  :     d = fd;

  00180	f3 0f 11 8d ec
	9f ff ff	 movss	 DWORD PTR $T6[ebp+12], xmm1
; File C:\DS Project\DS Files\Source\ClientSource\Client\GameLib\TerrainDecal.cpp

; 42   : 	m_v4RightPlane = D3DXPLANE(-v3Tangent.x, -v3Tangent.y, -v3Tangent.z, fWidth * 0.5f + fd);

  00188	0f 10 85 e0 9f
	ff ff		 movups	 xmm0, XMMWORD PTR $T6[ebp]
  0018f	0f 11 46 2c	 movups	 XMMWORD PTR [esi+44], xmm0
; File C:\DS Project\DS Files\Source\ClientSource\extern\include\d3dx8math.inl

; 1264 :     return pV1->x * pV2->x + pV1->y * pV2->y + pV1->z * pV2->z;

  00193	f3 0f 10 6e 08	 movss	 xmm5, DWORD PTR [esi+8]
  00198	f3 0f 59 ec	 mulss	 xmm5, xmm4
  0019c	f3 0f 10 95 f0
	9f ff ff	 movss	 xmm2, DWORD PTR _v3Binormal$[ebp]
  001a4	0f 28 c7	 movaps	 xmm0, xmm7
  001a7	f3 0f 10 9d f8
	9f ff ff	 movss	 xmm3, DWORD PTR _v3Binormal$[ebp+8]
; File C:\DS Project\DS Files\Source\ClientSource\Client\GameLib\TerrainDecal.cpp

; 58   : 	float fSearchRadius = fMAX(fWidth, fHeight);// 0.75f >= sqrtf(2)/2;

  001af	83 ec 08	 sub	 esp, 8
; File C:\DS Project\DS Files\Source\ClientSource\extern\include\d3dx8math.inl

; 1264 :     return pV1->x * pV2->x + pV1->y * pV2->y + pV1->z * pV2->z;

  001b2	f3 0f 59 c2	 mulss	 xmm0, xmm2
; File C:\DS Project\DS Files\Source\ClientSource\Client\GameLib\TerrainDecal.cpp

; 45   : 	m_v4BottomPlane = D3DXPLANE(v3Binormal.x, v3Binormal.y, v3Binormal.z, fHeight * 0.5f - fd);

  001b6	f3 0f 10 8d d4
	9f ff ff	 movss	 xmm1, DWORD PTR _fHeight$GSCopy$1$[ebp]
  001be	f3 0f 59 0d 00
	00 00 00	 mulss	 xmm1, DWORD PTR __real@3f000000
; File C:\DS Project\DS Files\Source\ClientSource\extern\include\d3dx8math.inl

; 1264 :     return pV1->x * pV2->x + pV1->y * pV2->y + pV1->z * pV2->z;

  001c6	f3 0f 58 e8	 addss	 xmm5, xmm0

; 829  :     a = fa;

  001ca	f3 0f 11 95 e0
	9f ff ff	 movss	 DWORD PTR $T5[ebp], xmm2

; 1264 :     return pV1->x * pV2->x + pV1->y * pV2->y + pV1->z * pV2->z;

  001d2	f3 0f 10 46 0c	 movss	 xmm0, DWORD PTR [esi+12]
; File C:\DS Project\DS Files\Source\ClientSource\Client\GameLib\TerrainDecal.cpp

; 46   : 	m_v4TopPlane = D3DXPLANE(-v3Binormal.x, -v3Binormal.y, -v3Binormal.z, fHeight * 0.5f + fd);

  001d7	0f 57 d6	 xorps	 xmm2, xmm6
; File C:\DS Project\DS Files\Source\ClientSource\extern\include\d3dx8math.inl

; 1264 :     return pV1->x * pV2->x + pV1->y * pV2->y + pV1->z * pV2->z;

  001da	f3 0f 59 c3	 mulss	 xmm0, xmm3

; 830  :     b = fb;

  001de	f3 0f 11 a5 e4
	9f ff ff	 movss	 DWORD PTR $T5[ebp+4], xmm4
; File C:\DS Project\DS Files\Source\ClientSource\Client\GameLib\TerrainDecal.cpp

; 46   : 	m_v4TopPlane = D3DXPLANE(-v3Binormal.x, -v3Binormal.y, -v3Binormal.z, fHeight * 0.5f + fd);

  001e6	0f 57 e6	 xorps	 xmm4, xmm6
; File C:\DS Project\DS Files\Source\ClientSource\extern\include\d3dx8math.inl

; 831  :     c = fc;

  001e9	f3 0f 11 9d e8
	9f ff ff	 movss	 DWORD PTR $T5[ebp+8], xmm3
; File C:\DS Project\DS Files\Source\ClientSource\Client\GameLib\TerrainDecal.cpp

; 46   : 	m_v4TopPlane = D3DXPLANE(-v3Binormal.x, -v3Binormal.y, -v3Binormal.z, fHeight * 0.5f + fd);

  001f1	0f 57 de	 xorps	 xmm3, xmm6
; File C:\DS Project\DS Files\Source\ClientSource\extern\include\d3dx8math.inl

; 1264 :     return pV1->x * pV2->x + pV1->y * pV2->y + pV1->z * pV2->z;

  001f4	f3 0f 58 e8	 addss	 xmm5, xmm0
; File C:\DS Project\DS Files\Source\ClientSource\Client\GameLib\TerrainDecal.cpp

; 45   : 	m_v4BottomPlane = D3DXPLANE(v3Binormal.x, v3Binormal.y, v3Binormal.z, fHeight * 0.5f - fd);

  001f8	0f 28 c1	 movaps	 xmm0, xmm1
  001fb	f3 0f 5c c5	 subss	 xmm0, xmm5

; 46   : 	m_v4TopPlane = D3DXPLANE(-v3Binormal.x, -v3Binormal.y, -v3Binormal.z, fHeight * 0.5f + fd);

  001ff	f3 0f 58 cd	 addss	 xmm1, xmm5
; File C:\DS Project\DS Files\Source\ClientSource\extern\include\d3dx8math.inl

; 832  :     d = fd;

  00203	f3 0f 11 85 ec
	9f ff ff	 movss	 DWORD PTR $T5[ebp+12], xmm0
; File C:\DS Project\DS Files\Source\ClientSource\Client\GameLib\TerrainDecal.cpp

; 45   : 	m_v4BottomPlane = D3DXPLANE(v3Binormal.x, v3Binormal.y, v3Binormal.z, fHeight * 0.5f - fd);

  0020b	0f 10 85 e0 9f
	ff ff		 movups	 xmm0, XMMWORD PTR $T5[ebp]
; File C:\DS Project\DS Files\Source\ClientSource\extern\include\d3dx8math.inl

; 832  :     d = fd;

  00212	f3 0f 11 8d ec
	9f ff ff	 movss	 DWORD PTR $T4[ebp+12], xmm1
; File C:\DS Project\DS Files\Source\ClientSource\Client\GameLib\TerrainDecal.cpp

; 45   : 	m_v4BottomPlane = D3DXPLANE(v3Binormal.x, v3Binormal.y, v3Binormal.z, fHeight * 0.5f - fd);

  0021a	0f 11 46 3c	 movups	 XMMWORD PTR [esi+60], xmm0
; File C:\DS Project\DS Files\Source\ClientSource\extern\include\d3dx8math.inl

; 829  :     a = fa;

  0021e	f3 0f 11 95 e0
	9f ff ff	 movss	 DWORD PTR $T4[ebp], xmm2

; 830  :     b = fb;

  00226	f3 0f 11 a5 e4
	9f ff ff	 movss	 DWORD PTR $T4[ebp+4], xmm4

; 831  :     c = fc;

  0022e	f3 0f 11 9d e8
	9f ff ff	 movss	 DWORD PTR $T4[ebp+8], xmm3
; File C:\DS Project\DS Files\Source\ClientSource\Client\GameLib\TerrainDecal.cpp

; 46   : 	m_v4TopPlane = D3DXPLANE(-v3Binormal.x, -v3Binormal.y, -v3Binormal.z, fHeight * 0.5f + fd);

  00236	0f 10 85 e0 9f
	ff ff		 movups	 xmm0, XMMWORD PTR $T4[ebp]

; 49   : 	m_v4FrontPlane = D3DXPLANE(-m_v3Normal.x, -m_v3Normal.y, -m_v3Normal.z, fDepth + fd);

  0023d	f3 0f 10 5e 14	 movss	 xmm3, DWORD PTR [esi+20]
  00242	0f 11 46 4c	 movups	 XMMWORD PTR [esi+76], xmm0
; File C:\DS Project\DS Files\Source\ClientSource\extern\include\d3dx8math.inl

; 1264 :     return pV1->x * pV2->x + pV1->y * pV2->y + pV1->z * pV2->z;

  00246	f3 0f 10 66 10	 movss	 xmm4, DWORD PTR [esi+16]
  0024b	f3 0f 10 6e 14	 movss	 xmm5, DWORD PTR [esi+20]
  00250	0f 28 c4	 movaps	 xmm0, xmm4
  00253	f3 0f 59 6e 08	 mulss	 xmm5, DWORD PTR [esi+8]
  00258	f3 0f 59 c7	 mulss	 xmm0, xmm7
; File C:\DS Project\DS Files\Source\ClientSource\Client\GameLib\TerrainDecal.cpp

; 49   : 	m_v4FrontPlane = D3DXPLANE(-m_v3Normal.x, -m_v3Normal.y, -m_v3Normal.z, fDepth + fd);

  0025c	f3 0f 10 56 18	 movss	 xmm2, DWORD PTR [esi+24]
  00261	f3 0f 10 4d 34	 movss	 xmm1, DWORD PTR _fDepth$[ebp]
; File C:\DS Project\DS Files\Source\ClientSource\extern\include\d3dx8math.inl

; 1264 :     return pV1->x * pV2->x + pV1->y * pV2->y + pV1->z * pV2->z;

  00266	f3 0f 58 e8	 addss	 xmm5, xmm0
  0026a	f3 0f 10 46 18	 movss	 xmm0, DWORD PTR [esi+24]
  0026f	f3 0f 59 46 0c	 mulss	 xmm0, DWORD PTR [esi+12]
; File C:\DS Project\DS Files\Source\ClientSource\Client\GameLib\TerrainDecal.cpp

; 53   : 	m_dwVertexCount = 0;

  00274	c7 46 7c 00 00
	00 00		 mov	 DWORD PTR [esi+124], 0

; 54   : 	m_dwPrimitiveCount = 0;

  0027b	c7 86 80 00 00
	00 00 00 00 00	 mov	 DWORD PTR [esi+128], 0
; File C:\DS Project\DS Files\Source\ClientSource\extern\include\d3dx8math.inl

; 1264 :     return pV1->x * pV2->x + pV1->y * pV2->y + pV1->z * pV2->z;

  00285	f3 0f 58 e8	 addss	 xmm5, xmm0
; File C:\DS Project\DS Files\Source\ClientSource\Client\GameLib\TerrainDecal.cpp

; 49   : 	m_v4FrontPlane = D3DXPLANE(-m_v3Normal.x, -m_v3Normal.y, -m_v3Normal.z, fDepth + fd);

  00289	0f 28 c4	 movaps	 xmm0, xmm4
  0028c	0f 57 c6	 xorps	 xmm0, xmm6
; File C:\DS Project\DS Files\Source\ClientSource\extern\include\d3dx8math.inl

; 829  :     a = fa;

  0028f	f3 0f 11 85 e0
	9f ff ff	 movss	 DWORD PTR $T3[ebp], xmm0
; File C:\DS Project\DS Files\Source\ClientSource\Client\GameLib\TerrainDecal.cpp

; 49   : 	m_v4FrontPlane = D3DXPLANE(-m_v3Normal.x, -m_v3Normal.y, -m_v3Normal.z, fDepth + fd);

  00297	0f 28 c3	 movaps	 xmm0, xmm3
  0029a	0f 57 c6	 xorps	 xmm0, xmm6
; File C:\DS Project\DS Files\Source\ClientSource\extern\include\d3dx8math.inl

; 830  :     b = fb;

  0029d	f3 0f 11 85 e4
	9f ff ff	 movss	 DWORD PTR $T3[ebp+4], xmm0
; File C:\DS Project\DS Files\Source\ClientSource\Client\GameLib\TerrainDecal.cpp

; 49   : 	m_v4FrontPlane = D3DXPLANE(-m_v3Normal.x, -m_v3Normal.y, -m_v3Normal.z, fDepth + fd);

  002a5	0f 28 c2	 movaps	 xmm0, xmm2
  002a8	0f 57 c6	 xorps	 xmm0, xmm6
; File C:\DS Project\DS Files\Source\ClientSource\extern\include\d3dx8math.inl

; 831  :     c = fc;

  002ab	f3 0f 11 85 e8
	9f ff ff	 movss	 DWORD PTR $T3[ebp+8], xmm0
; File C:\DS Project\DS Files\Source\ClientSource\Client\GameLib\TerrainDecal.cpp

; 49   : 	m_v4FrontPlane = D3DXPLANE(-m_v3Normal.x, -m_v3Normal.y, -m_v3Normal.z, fDepth + fd);

  002b3	0f 28 c5	 movaps	 xmm0, xmm5
  002b6	f3 0f 58 c1	 addss	 xmm0, xmm1

; 50   : 	m_v4BackPlane = D3DXPLANE(m_v3Normal.x, m_v3Normal.y, m_v3Normal.z, fDepth - fd);

  002ba	f3 0f 5c cd	 subss	 xmm1, xmm5
; File C:\DS Project\DS Files\Source\ClientSource\extern\include\d3dx8math.inl

; 832  :     d = fd;

  002be	f3 0f 11 85 ec
	9f ff ff	 movss	 DWORD PTR $T3[ebp+12], xmm0
; File C:\DS Project\DS Files\Source\ClientSource\Client\GameLib\TerrainDecal.cpp

; 49   : 	m_v4FrontPlane = D3DXPLANE(-m_v3Normal.x, -m_v3Normal.y, -m_v3Normal.z, fDepth + fd);

  002c6	0f 10 85 e0 9f
	ff ff		 movups	 xmm0, XMMWORD PTR $T3[ebp]
; File C:\DS Project\DS Files\Source\ClientSource\extern\include\d3dx8math.inl

; 829  :     a = fa;

  002cd	f3 0f 11 a5 e0
	9f ff ff	 movss	 DWORD PTR $T2[ebp], xmm4
; File C:\DS Project\DS Files\Source\ClientSource\Client\GameLib\TerrainDecal.cpp

; 49   : 	m_v4FrontPlane = D3DXPLANE(-m_v3Normal.x, -m_v3Normal.y, -m_v3Normal.z, fDepth + fd);

  002d5	0f 11 46 5c	 movups	 XMMWORD PTR [esi+92], xmm0
; File C:\DS Project\DS Files\Source\ClientSource\extern\include\d3dx8math.inl

; 830  :     b = fb;

  002d9	f3 0f 11 9d e4
	9f ff ff	 movss	 DWORD PTR $T2[ebp+4], xmm3

; 831  :     c = fc;

  002e1	f3 0f 11 95 e8
	9f ff ff	 movss	 DWORD PTR $T2[ebp+8], xmm2

; 832  :     d = fd;

  002e9	f3 0f 11 8d ec
	9f ff ff	 movss	 DWORD PTR $T2[ebp+12], xmm1
; File C:\DS Project\DS Files\Source\ClientSource\Client\GameLib\TerrainDecal.cpp

; 50   : 	m_v4BackPlane = D3DXPLANE(m_v3Normal.x, m_v3Normal.y, m_v3Normal.z, fDepth - fd);

  002f1	0f 10 85 e0 9f
	ff ff		 movups	 xmm0, XMMWORD PTR $T2[ebp]
  002f8	0f 11 46 6c	 movups	 XMMWORD PTR [esi+108], xmm0

; 58   : 	float fSearchRadius = fMAX(fWidth, fHeight);// 0.75f >= sqrtf(2)/2;

  002fc	f3 0f 10 85 d4
	9f ff ff	 movss	 xmm0, DWORD PTR _fHeight$GSCopy$1$[ebp]
  00304	f3 0f 11 44 24
	04		 movss	 DWORD PTR [esp+4], xmm0
  0030a	f3 0f 10 85 d8
	9f ff ff	 movss	 xmm0, DWORD PTR _fWidth$GSCopy$1$[ebp]
  00312	f3 0f 11 04 24	 movss	 DWORD PTR [esp], xmm0
  00317	e8 00 00 00 00	 call	 ?fMAX@@YAMMM@Z		; fMAX

; 59   : 	float fMinX = v3Center.x - fSearchRadius;

  0031c	f3 0f 10 4d 08	 movss	 xmm1, DWORD PTR _v3Center$[ebp]
  00321	0f 28 d1	 movaps	 xmm2, xmm1
  00324	d9 9d dc 9f ff
	ff		 fstp	 DWORD PTR _fSearchRadius$[ebp]
  0032a	f3 0f 10 85 dc
	9f ff ff	 movss	 xmm0, DWORD PTR _fSearchRadius$[ebp]
  00332	f3 0f 5c d0	 subss	 xmm2, xmm0

; 60   : 	float fMaxX = v3Center.x + fSearchRadius;

  00336	f3 0f 58 c8	 addss	 xmm1, xmm0
  0033a	f3 0f 11 95 cc
	9f ff ff	 movss	 DWORD PTR _fMinX$1$[ebp], xmm2
; File C:\Program Files (x86)\Windows Kits\10\Include\10.0.18362.0\ucrt\corecrt_math.h

; 672  :             return (float)fabs(_X);

  00342	f3 0f 10 55 0c	 movss	 xmm2, DWORD PTR _v3Center$[ebp+4]
  00347	0f 54 15 00 00
	00 00		 andps	 xmm2, DWORD PTR __xmm@7fffffff7fffffff7fffffff7fffffff
; File C:\DS Project\DS Files\Source\ClientSource\Client\GameLib\TerrainDecal.cpp

; 60   : 	float fMaxX = v3Center.x + fSearchRadius;

  0034e	f3 0f 11 8d d0
	9f ff ff	 movss	 DWORD PTR _fMaxX$1$[ebp], xmm1

; 61   : 	float fMinY = fabs(v3Center.y) - fSearchRadius;

  00356	0f 28 ca	 movaps	 xmm1, xmm2
  00359	f3 0f 5c c8	 subss	 xmm1, xmm0

; 62   : 	float fMaxY = fabs(v3Center.y) + fSearchRadius;

  0035d	f3 0f 58 d0	 addss	 xmm2, xmm0
  00361	f3 0f 11 8d c4
	9f ff ff	 movss	 DWORD PTR _fMinY$1$[ebp], xmm1

; 63   : 
; 64   : 	DWORD dwAffectedPrimitiveCount = 0;
; 65   : 	D3DXVECTOR3 v3AffectedVertex[MAX_SEARCH_VERTICES];
; 66   : 	D3DXVECTOR3 v3AffectedNormal[MAX_SEARCH_VERTICES];
; 67   : 	memset(v3AffectedVertex, 0, sizeof(v3AffectedVertex));

  00369	68 00 30 00 00	 push	 12288			; 00003000H
  0036e	8d 85 fc 9f ff
	ff		 lea	 eax, DWORD PTR _v3AffectedVertex$[ebp]
  00374	c7 85 dc 9f ff
	ff 00 00 00 00	 mov	 DWORD PTR _dwAffectedPrimitiveCount$[ebp], 0
  0037e	6a 00		 push	 0
  00380	50		 push	 eax
  00381	f3 0f 11 95 c8
	9f ff ff	 movss	 DWORD PTR _fMaxY$1$[ebp], xmm2
  00389	e8 00 00 00 00	 call	 _memset

; 68   : 	memset(v3AffectedNormal, 0, sizeof(v3AffectedNormal));

  0038e	68 00 30 00 00	 push	 12288			; 00003000H
  00393	8d 85 fc cf ff
	ff		 lea	 eax, DWORD PTR _v3AffectedNormal$[ebp]
  00399	6a 00		 push	 0
  0039b	50		 push	 eax
  0039c	e8 00 00 00 00	 call	 _memset

; 69   : 
; 70   : 	SearchAffectedTerrainMesh(fMinX, fMaxX, fMinY, fMaxY, &dwAffectedPrimitiveCount, v3AffectedVertex, v3AffectedNormal);

  003a1	f3 0f 10 85 c8
	9f ff ff	 movss	 xmm0, DWORD PTR _fMaxY$1$[ebp]
  003a9	8d 85 fc cf ff
	ff		 lea	 eax, DWORD PTR _v3AffectedNormal$[ebp]
  003af	83 c4 20	 add	 esp, 32			; 00000020H
  003b2	8b ce		 mov	 ecx, esi
  003b4	50		 push	 eax
  003b5	8d 85 fc 9f ff
	ff		 lea	 eax, DWORD PTR _v3AffectedVertex$[ebp]
  003bb	50		 push	 eax
  003bc	8d 85 dc 9f ff
	ff		 lea	 eax, DWORD PTR _dwAffectedPrimitiveCount$[ebp]
  003c2	50		 push	 eax
  003c3	83 ec 10	 sub	 esp, 16			; 00000010H
  003c6	f3 0f 11 44 24
	0c		 movss	 DWORD PTR [esp+12], xmm0
  003cc	f3 0f 10 85 c4
	9f ff ff	 movss	 xmm0, DWORD PTR _fMinY$1$[ebp]
  003d4	f3 0f 11 44 24
	08		 movss	 DWORD PTR [esp+8], xmm0
  003da	f3 0f 10 85 d0
	9f ff ff	 movss	 xmm0, DWORD PTR _fMaxX$1$[ebp]
  003e2	f3 0f 11 44 24
	04		 movss	 DWORD PTR [esp+4], xmm0
  003e8	f3 0f 10 85 cc
	9f ff ff	 movss	 xmm0, DWORD PTR _fMinX$1$[ebp]
  003f0	f3 0f 11 04 24	 movss	 DWORD PTR [esp], xmm0
  003f5	e8 00 00 00 00	 call	 ?SearchAffectedTerrainMesh@CTerrainDecal@@IAEXMMMMPAKPAUD3DXVECTOR3@@1@Z ; CTerrainDecal::SearchAffectedTerrainMesh

; 71   : 
; 72   :  	ClipMesh(dwAffectedPrimitiveCount, v3AffectedVertex, v3AffectedNormal);

  003fa	8d 85 fc cf ff
	ff		 lea	 eax, DWORD PTR _v3AffectedNormal$[ebp]
  00400	8b ce		 mov	 ecx, esi
  00402	50		 push	 eax
  00403	8d 85 fc 9f ff
	ff		 lea	 eax, DWORD PTR _v3AffectedVertex$[ebp]
  00409	50		 push	 eax
  0040a	ff b5 dc 9f ff
	ff		 push	 DWORD PTR _dwAffectedPrimitiveCount$[ebp]
  00410	e8 00 00 00 00	 call	 ?ClipMesh@CDecal@@IAEXKPBUD3DXVECTOR3@@0@Z ; CDecal::ClipMesh

; 73   : 
; 74   : 	// Assign texture mapping coordinates
; 75   : 	float fOne_over_w = 1.0f / fWidth;

  00415	f3 0f 10 05 00
	00 00 00	 movss	 xmm0, DWORD PTR __real@3f800000

; 77   : 	for (DWORD dwi = 0; dwi < m_dwVertexCount; ++dwi)

  0041d	33 c9		 xor	 ecx, ecx
  0041f	0f 28 d0	 movaps	 xmm2, xmm0
  00422	f3 0f 5e 95 d8
	9f ff ff	 divss	 xmm2, DWORD PTR _fWidth$GSCopy$1$[ebp]
  0042a	f3 0f 5e 85 d4
	9f ff ff	 divss	 xmm0, DWORD PTR _fHeight$GSCopy$1$[ebp]
  00432	f3 0f 11 95 d0
	9f ff ff	 movss	 DWORD PTR _fOne_over_w$1$[ebp], xmm2
  0043a	f3 0f 11 85 cc
	9f ff ff	 movss	 DWORD PTR _fOne_over_h$1$[ebp], xmm0
  00442	39 4e 7c	 cmp	 DWORD PTR [esi+124], ecx
  00445	0f 86 ae 00 00
	00		 jbe	 $LN3@Make

; 63   : 
; 64   : 	DWORD dwAffectedPrimitiveCount = 0;
; 65   : 	D3DXVECTOR3 v3AffectedVertex[MAX_SEARCH_VERTICES];
; 66   : 	D3DXVECTOR3 v3AffectedNormal[MAX_SEARCH_VERTICES];
; 67   : 	memset(v3AffectedVertex, 0, sizeof(v3AffectedVertex));

  0044b	f3 0f 10 75 28	 movss	 xmm6, DWORD PTR _v3Tangent$[ebp+8]
  00450	8d 86 98 00 00
	00		 lea	 eax, DWORD PTR [esi+152]
  00456	f3 0f 10 7d 24	 movss	 xmm7, DWORD PTR _v3Tangent$[ebp+4]
  0045b	0f 1f 44 00 00	 npad	 5
$LL4@Make:
; File C:\DS Project\DS Files\Source\ClientSource\extern\include\d3dx8math.inl

; 263  :     return D3DXVECTOR3(x - v.x, y - v.y, z - v.z);

  00460	f3 0f 10 60 f8	 movss	 xmm4, DWORD PTR [eax-8]
; File C:\DS Project\DS Files\Source\ClientSource\Client\GameLib\TerrainDecal.cpp

; 77   : 	for (DWORD dwi = 0; dwi < m_dwVertexCount; ++dwi)

  00465	41		 inc	 ecx
; File C:\DS Project\DS Files\Source\ClientSource\extern\include\d3dx8math.inl

; 263  :     return D3DXVECTOR3(x - v.x, y - v.y, z - v.z);

  00466	f3 0f 10 68 fc	 movss	 xmm5, DWORD PTR [eax-4]
  0046b	f3 0f 5c 6e 08	 subss	 xmm5, DWORD PTR [esi+8]
  00470	f3 0f 5c 66 04	 subss	 xmm4, DWORD PTR [esi+4]
  00475	f3 0f 10 18	 movss	 xmm3, DWORD PTR [eax]
  00479	f3 0f 5c 5e 0c	 subss	 xmm3, DWORD PTR [esi+12]

; 182  :     z = fz;

  0047e	0f 28 cd	 movaps	 xmm1, xmm5

; 41   :     x = fx;

  00481	f3 0f 59 ef	 mulss	 xmm5, xmm7

; 182  :     z = fz;

  00485	f3 0f 59 8d f4
	9f ff ff	 mulss	 xmm1, DWORD PTR _v3Binormal$[ebp+4]

; 1264 :     return pV1->x * pV2->x + pV1->y * pV2->y + pV1->z * pV2->z;

  0048d	0f 28 c4	 movaps	 xmm0, xmm4
  00490	f3 0f 59 85 f0
	9f ff ff	 mulss	 xmm0, DWORD PTR _v3Binormal$[ebp]
  00498	f3 0f 59 65 20	 mulss	 xmm4, DWORD PTR _v3Tangent$[ebp]
  0049d	f3 0f 58 c8	 addss	 xmm1, xmm0
  004a1	0f 28 c3	 movaps	 xmm0, xmm3
  004a4	f3 0f 59 85 f8
	9f ff ff	 mulss	 xmm0, DWORD PTR _v3Binormal$[ebp+8]
  004ac	f3 0f 58 ec	 addss	 xmm5, xmm4
  004b0	f3 0f 59 de	 mulss	 xmm3, xmm6
  004b4	f3 0f 58 c8	 addss	 xmm1, xmm0
; File C:\DS Project\DS Files\Source\ClientSource\Client\GameLib\TerrainDecal.cpp

; 80   : 		float fu = -D3DXVec3Dot(&v3, &v3Binormal) * fOne_over_w + 0.5f;

  004b8	f3 0f 10 05 00
	00 00 00	 movss	 xmm0, DWORD PTR __real@3f000000
; File C:\DS Project\DS Files\Source\ClientSource\extern\include\d3dx8math.inl

; 1264 :     return pV1->x * pV2->x + pV1->y * pV2->y + pV1->z * pV2->z;

  004c0	f3 0f 58 eb	 addss	 xmm5, xmm3
; File C:\DS Project\DS Files\Source\ClientSource\Client\GameLib\TerrainDecal.cpp

; 80   : 		float fu = -D3DXVec3Dot(&v3, &v3Binormal) * fOne_over_w + 0.5f;

  004c4	f3 0f 59 ca	 mulss	 xmm1, xmm2
  004c8	0f 28 d0	 movaps	 xmm2, xmm0

; 81   : 		float fv = -D3DXVec3Dot(&v3, &v3Tangent) * fOne_over_h + 0.5f;

  004cb	f3 0f 59 ad cc
	9f ff ff	 mulss	 xmm5, DWORD PTR _fOne_over_h$1$[ebp]
  004d3	f3 0f 5c d1	 subss	 xmm2, xmm1
  004d7	f3 0f 5c c5	 subss	 xmm0, xmm5

; 82   : 		m_Vertices[dwi].texCoord = D3DXVECTOR2(fu, fv);

  004db	f3 0f 11 50 08	 movss	 DWORD PTR [eax+8], xmm2
  004e0	f3 0f 10 95 d0
	9f ff ff	 movss	 xmm2, DWORD PTR _fOne_over_w$1$[ebp]
  004e8	f3 0f 11 40 0c	 movss	 DWORD PTR [eax+12], xmm0
  004ed	83 c0 18	 add	 eax, 24			; 00000018H
  004f0	3b 4e 7c	 cmp	 ecx, DWORD PTR [esi+124]
  004f3	0f 82 67 ff ff
	ff		 jb	 $LL4@Make
$LN3@Make:

; 83   : 	}
; 84   : }

  004f9	8b 4d fc	 mov	 ecx, DWORD PTR __$ArrayPad$[ebp]
  004fc	33 cd		 xor	 ecx, ebp
  004fe	5e		 pop	 esi
  004ff	e8 00 00 00 00	 call	 @__security_check_cookie@4
  00504	8b e5		 mov	 esp, ebp
  00506	5d		 pop	 ebp
  00507	c2 30 00	 ret	 48			; 00000030H
?Make@CTerrainDecal@@UAEXUD3DXVECTOR3@@00MMM@Z ENDP	; CTerrainDecal::Make
_TEXT	ENDS
; Function compile flags: /Ogtp
; File C:\DS Project\DS Files\Source\ClientSource\Client\GameLib\TerrainDecal.cpp
;	COMDAT ??1CTerrainDecal@@UAE@XZ
_TEXT	SEGMENT
__$EHRec$ = -12						; size = 12
??1CTerrainDecal@@UAE@XZ PROC				; CTerrainDecal::~CTerrainDecal, COMDAT
; _this$ = ecx

; 23   : {

  00000	55		 push	 ebp
  00001	8b ec		 mov	 ebp, esp
  00003	6a ff		 push	 -1
  00005	68 00 00 00 00	 push	 __ehhandler$??1CTerrainDecal@@UAE@XZ
  0000a	64 a1 00 00 00
	00		 mov	 eax, DWORD PTR fs:0
  00010	50		 push	 eax
  00011	56		 push	 esi
  00012	a1 00 00 00 00	 mov	 eax, DWORD PTR ___security_cookie
  00017	33 c5		 xor	 eax, ebp
  00019	50		 push	 eax
  0001a	8d 45 f4	 lea	 eax, DWORD PTR __$EHRec$[ebp]
  0001d	64 a3 00 00 00
	00		 mov	 DWORD PTR fs:0, eax
  00023	8b f1		 mov	 esi, ecx
  00025	c7 06 00 00 00
	00		 mov	 DWORD PTR [esi], OFFSET ??_7CTerrainDecal@@6B@

; 24   : 	CDecal::Clear();

  0002b	e8 00 00 00 00	 call	 ?Clear@CDecal@@QAEXXZ	; CDecal::Clear

; 25   : }

  00030	8b ce		 mov	 ecx, esi
  00032	e8 00 00 00 00	 call	 ??1CDecal@@UAE@XZ	; CDecal::~CDecal
  00037	8b 4d f4	 mov	 ecx, DWORD PTR __$EHRec$[ebp]
  0003a	64 89 0d 00 00
	00 00		 mov	 DWORD PTR fs:0, ecx
  00041	59		 pop	 ecx
  00042	5e		 pop	 esi
  00043	8b e5		 mov	 esp, ebp
  00045	5d		 pop	 ebp
  00046	c3		 ret	 0
  00047	cc		 int	 3
  00048	cc		 int	 3
  00049	cc		 int	 3
  0004a	cc		 int	 3
  0004b	cc		 int	 3
_TEXT	ENDS
;	COMDAT text$x
text$x	SEGMENT
__ehhandler$??1CTerrainDecal@@UAE@XZ:
  00000	90		 npad	 1
  00001	90		 npad	 1
  00002	8b 54 24 08	 mov	 edx, DWORD PTR [esp+8]
  00006	8d 42 0c	 lea	 eax, DWORD PTR [edx+12]
  00009	8b 4a f8	 mov	 ecx, DWORD PTR [edx-8]
  0000c	33 c8		 xor	 ecx, eax
  0000e	e8 00 00 00 00	 call	 @__security_check_cookie@4
  00013	b8 00 00 00 00	 mov	 eax, OFFSET __ehfuncinfo$??1CTerrainDecal@@UAE@XZ
  00018	e9 00 00 00 00	 jmp	 ___CxxFrameHandler3
text$x	ENDS
??1CTerrainDecal@@UAE@XZ ENDP				; CTerrainDecal::~CTerrainDecal
; Function compile flags: /Ogtp
; File C:\DS Project\DS Files\Source\ClientSource\Client\GameLib\TerrainDecal.cpp
;	COMDAT ??0CTerrainDecal@@QAE@PAVCMapOutdoor@@@Z
_TEXT	SEGMENT
_this$ = -4						; size = 4
_pMapOutdoor$ = 8					; size = 4
??0CTerrainDecal@@QAE@PAVCMapOutdoor@@@Z PROC		; CTerrainDecal::CTerrainDecal, COMDAT
; _this$ = ecx

; 18   : {

  00000	55		 push	 ebp
  00001	8b ec		 mov	 ebp, esp
  00003	51		 push	 ecx
  00004	56		 push	 esi
  00005	8b f1		 mov	 esi, ecx
  00007	89 75 fc	 mov	 DWORD PTR _this$[ebp], esi
  0000a	e8 00 00 00 00	 call	 ??0CDecal@@QAE@XZ	; CDecal::CDecal

; 17   : CTerrainDecal::CTerrainDecal(CMapOutdoor * pMapOutdoor):m_pMapOutdoor(pMapOutdoor)

  0000f	8b 45 08	 mov	 eax, DWORD PTR _pMapOutdoor$[ebp]
  00012	89 86 94 1a 00
	00		 mov	 DWORD PTR [esi+6804], eax

; 19   : 
; 20   : }

  00018	8b c6		 mov	 eax, esi
  0001a	c7 06 00 00 00
	00		 mov	 DWORD PTR [esi], OFFSET ??_7CTerrainDecal@@6B@
  00020	5e		 pop	 esi
  00021	8b e5		 mov	 esp, ebp
  00023	5d		 pop	 ebp
  00024	c2 04 00	 ret	 4
??0CTerrainDecal@@QAE@PAVCMapOutdoor@@@Z ENDP		; CTerrainDecal::CTerrainDecal
_TEXT	ENDS
; Function compile flags: /Ogtp
; File C:\DS Project\DS Files\Source\ClientSource\extern\include\d3dx8math.h
;	COMDAT ??0D3DXVECTOR3@@QAE@XZ
_TEXT	SEGMENT
??0D3DXVECTOR3@@QAE@XZ PROC				; D3DXVECTOR3::D3DXVECTOR3, COMDAT
; _this$ = ecx

; 89   :     D3DXVECTOR3() {};

  00000	8b c1		 mov	 eax, ecx
  00002	c3		 ret	 0
??0D3DXVECTOR3@@QAE@XZ ENDP				; D3DXVECTOR3::D3DXVECTOR3
_TEXT	ENDS
; Function compile flags: /Ogtp
;	COMDAT ??_H@YGXPAXIIP6EPAX0@Z@Z
_TEXT	SEGMENT
___t$ = 8						; size = 4
___s$ = 12						; size = 4
___n$ = 16						; size = 4
___f$ = 20						; size = 4
??_H@YGXPAXIIP6EPAX0@Z@Z PROC				; `vector constructor iterator', COMDAT
  00000	55		 push	 ebp
  00001	8b ec		 mov	 ebp, esp
  00003	56		 push	 esi
  00004	8b 75 10	 mov	 esi, DWORD PTR ___n$[ebp]
  00007	85 f6		 test	 esi, esi
  00009	74 16		 je	 SHORT $LN6@vector
  0000b	53		 push	 ebx
  0000c	8b 5d 14	 mov	 ebx, DWORD PTR ___f$[ebp]
  0000f	57		 push	 edi
  00010	8b 7d 08	 mov	 edi, DWORD PTR ___t$[ebp]
$LL2@vector:
  00013	8b cf		 mov	 ecx, edi
  00015	ff d3		 call	 ebx
  00017	03 7d 0c	 add	 edi, DWORD PTR ___s$[ebp]
  0001a	83 ee 01	 sub	 esi, 1
  0001d	75 f4		 jne	 SHORT $LL2@vector
  0001f	5f		 pop	 edi
  00020	5b		 pop	 ebx
$LN6@vector:
  00021	5e		 pop	 esi
  00022	5d		 pop	 ebp
  00023	c2 10 00	 ret	 16			; 00000010H
??_H@YGXPAXIIP6EPAX0@Z@Z ENDP				; `vector constructor iterator'
_TEXT	ENDS
END
