; Listing generated by Microsoft (R) Optimizing Compiler Version 19.27.29112.0 

	TITLE	C:\DS Project\DS Files\Source\ClientSource\Client\GameLib\TerrainQuadtree.cpp
	.686P
	.XMM
	include listing.inc
	.model	flat

INCLUDELIB LIBCMT
INCLUDELIB OLDNAMES

PUBLIC	??0CTerrainQuadtreeNode@@QAE@XZ			; CTerrainQuadtreeNode::CTerrainQuadtreeNode
PUBLIC	??1CTerrainQuadtreeNode@@UAE@XZ			; CTerrainQuadtreeNode::~CTerrainQuadtreeNode
PUBLIC	??_GCTerrainQuadtreeNode@@UAEPAXI@Z		; CTerrainQuadtreeNode::`scalar deleting destructor'
PUBLIC	??_7CTerrainQuadtreeNode@@6B@			; CTerrainQuadtreeNode::`vftable'
PUBLIC	??_R4CTerrainQuadtreeNode@@6B@			; CTerrainQuadtreeNode::`RTTI Complete Object Locator'
PUBLIC	??_R0?AVCTerrainQuadtreeNode@@@8		; CTerrainQuadtreeNode `RTTI Type Descriptor'
PUBLIC	??_R3CTerrainQuadtreeNode@@8			; CTerrainQuadtreeNode::`RTTI Class Hierarchy Descriptor'
PUBLIC	??_R2CTerrainQuadtreeNode@@8			; CTerrainQuadtreeNode::`RTTI Base Class Array'
PUBLIC	??_R1A@?0A@EA@CTerrainQuadtreeNode@@8		; CTerrainQuadtreeNode::`RTTI Base Class Descriptor at (0,-1,0,64)'
EXTRN	??3@YAXPAXI@Z:PROC				; operator delete
EXTRN	??_ECTerrainQuadtreeNode@@UAEPAXI@Z:PROC	; CTerrainQuadtreeNode::`vector deleting destructor'
EXTRN	??_7type_info@@6B@:QWORD			; type_info::`vftable'
EXTRN	__fltused:DWORD
;	COMDAT ??_R1A@?0A@EA@CTerrainQuadtreeNode@@8
rdata$r	SEGMENT
??_R1A@?0A@EA@CTerrainQuadtreeNode@@8 DD FLAT:??_R0?AVCTerrainQuadtreeNode@@@8 ; CTerrainQuadtreeNode::`RTTI Base Class Descriptor at (0,-1,0,64)'
	DD	00H
	DD	00H
	DD	0ffffffffH
	DD	00H
	DD	040H
	DD	FLAT:??_R3CTerrainQuadtreeNode@@8
rdata$r	ENDS
;	COMDAT ??_R2CTerrainQuadtreeNode@@8
rdata$r	SEGMENT
??_R2CTerrainQuadtreeNode@@8 DD FLAT:??_R1A@?0A@EA@CTerrainQuadtreeNode@@8 ; CTerrainQuadtreeNode::`RTTI Base Class Array'
rdata$r	ENDS
;	COMDAT ??_R3CTerrainQuadtreeNode@@8
rdata$r	SEGMENT
??_R3CTerrainQuadtreeNode@@8 DD 00H			; CTerrainQuadtreeNode::`RTTI Class Hierarchy Descriptor'
	DD	00H
	DD	01H
	DD	FLAT:??_R2CTerrainQuadtreeNode@@8
rdata$r	ENDS
;	COMDAT ??_R0?AVCTerrainQuadtreeNode@@@8
data$r	SEGMENT
??_R0?AVCTerrainQuadtreeNode@@@8 DD FLAT:??_7type_info@@6B@ ; CTerrainQuadtreeNode `RTTI Type Descriptor'
	DD	00H
	DB	'.?AVCTerrainQuadtreeNode@@', 00H
data$r	ENDS
;	COMDAT ??_R4CTerrainQuadtreeNode@@6B@
rdata$r	SEGMENT
??_R4CTerrainQuadtreeNode@@6B@ DD 00H			; CTerrainQuadtreeNode::`RTTI Complete Object Locator'
	DD	00H
	DD	00H
	DD	FLAT:??_R0?AVCTerrainQuadtreeNode@@@8
	DD	FLAT:??_R3CTerrainQuadtreeNode@@8
rdata$r	ENDS
;	COMDAT ??_7CTerrainQuadtreeNode@@6B@
CONST	SEGMENT
??_7CTerrainQuadtreeNode@@6B@ DD FLAT:??_R4CTerrainQuadtreeNode@@6B@ ; CTerrainQuadtreeNode::`vftable'
	DD	FLAT:??_ECTerrainQuadtreeNode@@UAEPAXI@Z
CONST	ENDS
; Function compile flags: /Ogtp
;	COMDAT ??_GCTerrainQuadtreeNode@@UAEPAXI@Z
_TEXT	SEGMENT
___flags$ = 8						; size = 4
??_GCTerrainQuadtreeNode@@UAEPAXI@Z PROC		; CTerrainQuadtreeNode::`scalar deleting destructor', COMDAT
; _this$ = ecx
  00000	55		 push	 ebp
  00001	8b ec		 mov	 ebp, esp
  00003	56		 push	 esi
  00004	8b f1		 mov	 esi, ecx
  00006	e8 00 00 00 00	 call	 ??1CTerrainQuadtreeNode@@UAE@XZ ; CTerrainQuadtreeNode::~CTerrainQuadtreeNode
  0000b	f6 45 08 01	 test	 BYTE PTR ___flags$[ebp], 1
  0000f	74 0b		 je	 SHORT $LN4@scalar
  00011	6a 40		 push	 64			; 00000040H
  00013	56		 push	 esi
  00014	e8 00 00 00 00	 call	 ??3@YAXPAXI@Z		; operator delete
  00019	83 c4 08	 add	 esp, 8
$LN4@scalar:
  0001c	8b c6		 mov	 eax, esi
  0001e	5e		 pop	 esi
  0001f	5d		 pop	 ebp
  00020	c2 04 00	 ret	 4
??_GCTerrainQuadtreeNode@@UAEPAXI@Z ENDP		; CTerrainQuadtreeNode::`scalar deleting destructor'
_TEXT	ENDS
; Function compile flags: /Ogtp
; File C:\DS Project\DS Files\Source\ClientSource\Client\GameLib\TerrainQuadtree.cpp
;	COMDAT ??1CTerrainQuadtreeNode@@UAE@XZ
_TEXT	SEGMENT
??1CTerrainQuadtreeNode@@UAE@XZ PROC			; CTerrainQuadtreeNode::~CTerrainQuadtreeNode, COMDAT
; _this$ = ecx

; 25   : {

  00000	56		 push	 esi
  00001	8b f1		 mov	 esi, ecx

; 26   : 	if (NW_Node)

  00003	8b 4e 14	 mov	 ecx, DWORD PTR [esi+20]
  00006	c7 06 00 00 00
	00		 mov	 DWORD PTR [esi], OFFSET ??_7CTerrainQuadtreeNode@@6B@
  0000c	85 c9		 test	 ecx, ecx
  0000e	74 0d		 je	 SHORT $LN2@CTerrainQu

; 27   : 	{
; 28   : 		delete NW_Node;

  00010	8b 01		 mov	 eax, DWORD PTR [ecx]
  00012	6a 01		 push	 1
  00014	ff 10		 call	 DWORD PTR [eax]

; 29   : 		NW_Node = NULL;

  00016	c7 46 14 00 00
	00 00		 mov	 DWORD PTR [esi+20], 0
$LN2@CTerrainQu:

; 30   : 	}
; 31   : 	if (NE_Node)

  0001d	8b 4e 18	 mov	 ecx, DWORD PTR [esi+24]
  00020	85 c9		 test	 ecx, ecx
  00022	74 0d		 je	 SHORT $LN3@CTerrainQu

; 32   : 	{
; 33   : 		delete NE_Node;

  00024	8b 01		 mov	 eax, DWORD PTR [ecx]
  00026	6a 01		 push	 1
  00028	ff 10		 call	 DWORD PTR [eax]

; 34   : 		NE_Node = NULL;

  0002a	c7 46 18 00 00
	00 00		 mov	 DWORD PTR [esi+24], 0
$LN3@CTerrainQu:

; 35   : 	}
; 36   : 	if (SW_Node)

  00031	8b 4e 1c	 mov	 ecx, DWORD PTR [esi+28]
  00034	85 c9		 test	 ecx, ecx
  00036	74 0d		 je	 SHORT $LN4@CTerrainQu

; 37   : 	{
; 38   : 		delete SW_Node;

  00038	8b 01		 mov	 eax, DWORD PTR [ecx]
  0003a	6a 01		 push	 1
  0003c	ff 10		 call	 DWORD PTR [eax]

; 39   : 		SW_Node = NULL;

  0003e	c7 46 1c 00 00
	00 00		 mov	 DWORD PTR [esi+28], 0
$LN4@CTerrainQu:

; 40   : 	}
; 41   : 	if (SE_Node)

  00045	8b 4e 20	 mov	 ecx, DWORD PTR [esi+32]
  00048	85 c9		 test	 ecx, ecx
  0004a	74 0d		 je	 SHORT $LN5@CTerrainQu

; 42   : 	{
; 43   : 		delete SE_Node;

  0004c	8b 01		 mov	 eax, DWORD PTR [ecx]
  0004e	6a 01		 push	 1
  00050	ff 10		 call	 DWORD PTR [eax]

; 44   : 		SE_Node = NULL;

  00052	c7 46 20 00 00
	00 00		 mov	 DWORD PTR [esi+32], 0
$LN5@CTerrainQu:

; 45   : 	}
; 46   : }

  00059	5e		 pop	 esi
  0005a	c3		 ret	 0
??1CTerrainQuadtreeNode@@UAE@XZ ENDP			; CTerrainQuadtreeNode::~CTerrainQuadtreeNode
_TEXT	ENDS
; Function compile flags: /Ogtp
; File C:\DS Project\DS Files\Source\ClientSource\Client\GameLib\TerrainQuadtree.cpp
; File C:\DS Project\DS Files\Source\ClientSource\extern\include\d3dx8math.inl
; File C:\DS Project\DS Files\Source\ClientSource\Client\GameLib\TerrainQuadtree.cpp
;	COMDAT ??0CTerrainQuadtreeNode@@QAE@XZ
_TEXT	SEGMENT
??0CTerrainQuadtreeNode@@QAE@XZ PROC			; CTerrainQuadtreeNode::CTerrainQuadtreeNode, COMDAT
; _this$ = ecx

; 16   : {

  00000	c7 01 00 00 00
	00		 mov	 DWORD PTR [ecx], OFFSET ??_7CTerrainQuadtreeNode@@6B@

; 22   : }

  00006	8b c1		 mov	 eax, ecx
  00008	c7 41 14 00 00
	00 00		 mov	 DWORD PTR [ecx+20], 0
  0000f	c7 41 18 00 00
	00 00		 mov	 DWORD PTR [ecx+24], 0
  00016	c7 41 1c 00 00
	00 00		 mov	 DWORD PTR [ecx+28], 0
  0001d	c7 41 20 00 00
	00 00		 mov	 DWORD PTR [ecx+32], 0
; File C:\DS Project\DS Files\Source\ClientSource\extern\include\d3dx8math.inl

; 180  :     x = fx;

  00024	c7 41 2c 00 00
	80 bf		 mov	 DWORD PTR [ecx+44], -1082130432 ; bf800000H

; 181  :     y = fy;

  0002b	c7 41 30 00 00
	80 bf		 mov	 DWORD PTR [ecx+48], -1082130432 ; bf800000H

; 182  :     z = fz;

  00032	c7 41 34 00 00
	80 bf		 mov	 DWORD PTR [ecx+52], -1082130432 ; bf800000H
; File C:\DS Project\DS Files\Source\ClientSource\Client\GameLib\TerrainQuadtree.cpp

; 17   : 	x0 = y0 = x1 = y1 = 0;

  00039	c7 41 10 00 00
	00 00		 mov	 DWORD PTR [ecx+16], 0
  00040	c7 41 0c 00 00
	00 00		 mov	 DWORD PTR [ecx+12], 0
  00047	c7 41 08 00 00
	00 00		 mov	 DWORD PTR [ecx+8], 0
  0004e	c7 41 04 00 00
	00 00		 mov	 DWORD PTR [ecx+4], 0

; 18   : 	Size = 0;

  00055	c7 41 24 00 00
	00 00		 mov	 DWORD PTR [ecx+36], 0

; 19   : 	PatchNum = 0;

  0005c	c7 41 28 00 00
	00 00		 mov	 DWORD PTR [ecx+40], 0

; 20   : 	radius = 0.0f;

  00063	c7 41 38 00 00
	00 00		 mov	 DWORD PTR [ecx+56], 0

; 21   : 	m_byLODLevel = 0;

  0006a	c6 41 3c 00	 mov	 BYTE PTR [ecx+60], 0

; 22   : }

  0006e	c3		 ret	 0
??0CTerrainQuadtreeNode@@QAE@XZ ENDP			; CTerrainQuadtreeNode::CTerrainQuadtreeNode
_TEXT	ENDS
END
