; Listing generated by Microsoft (R) Optimizing Compiler Version 19.27.29112.0 

	TITLE	C:\DS Project\DS Files\Source\ClientSource\Client\EterBase\poly\Base.cpp
	.686P
	.XMM
	include listing.inc
	.model	flat

INCLUDELIB LIBCMT
INCLUDELIB OLDNAMES

PUBLIC	?isSymbol@CBase@@QAE_NXZ			; CBase::isSymbol
PUBLIC	?isVar@CBase@@QAE_NXZ				; CBase::isVar
PUBLIC	?isNumber@CBase@@QAE_NXZ			; CBase::isNumber
PUBLIC	??0CBase@@QAE@XZ				; CBase::CBase
PUBLIC	??1CBase@@UAE@XZ				; CBase::~CBase
PUBLIC	??_GCBase@@UAEPAXI@Z				; CBase::`scalar deleting destructor'
PUBLIC	??_7CBase@@6B@					; CBase::`vftable'
PUBLIC	??_R4CBase@@6B@					; CBase::`RTTI Complete Object Locator'
PUBLIC	??_R0?AVCBase@@@8				; CBase `RTTI Type Descriptor'
PUBLIC	??_R3CBase@@8					; CBase::`RTTI Class Hierarchy Descriptor'
PUBLIC	??_R2CBase@@8					; CBase::`RTTI Base Class Array'
PUBLIC	??_R1A@?0A@EA@CBase@@8				; CBase::`RTTI Base Class Descriptor at (0,-1,0,64)'
EXTRN	??3@YAXPAXI@Z:PROC				; operator delete
EXTRN	??_ECBase@@UAEPAXI@Z:PROC			; CBase::`vector deleting destructor'
EXTRN	??_7type_info@@6B@:QWORD			; type_info::`vftable'
;	COMDAT ??_R1A@?0A@EA@CBase@@8
rdata$r	SEGMENT
??_R1A@?0A@EA@CBase@@8 DD FLAT:??_R0?AVCBase@@@8	; CBase::`RTTI Base Class Descriptor at (0,-1,0,64)'
	DD	00H
	DD	00H
	DD	0ffffffffH
	DD	00H
	DD	040H
	DD	FLAT:??_R3CBase@@8
rdata$r	ENDS
;	COMDAT ??_R2CBase@@8
rdata$r	SEGMENT
??_R2CBase@@8 DD FLAT:??_R1A@?0A@EA@CBase@@8		; CBase::`RTTI Base Class Array'
rdata$r	ENDS
;	COMDAT ??_R3CBase@@8
rdata$r	SEGMENT
??_R3CBase@@8 DD 00H					; CBase::`RTTI Class Hierarchy Descriptor'
	DD	00H
	DD	01H
	DD	FLAT:??_R2CBase@@8
rdata$r	ENDS
;	COMDAT ??_R0?AVCBase@@@8
data$r	SEGMENT
??_R0?AVCBase@@@8 DD FLAT:??_7type_info@@6B@		; CBase `RTTI Type Descriptor'
	DD	00H
	DB	'.?AVCBase@@', 00H
data$r	ENDS
;	COMDAT ??_R4CBase@@6B@
rdata$r	SEGMENT
??_R4CBase@@6B@ DD 00H					; CBase::`RTTI Complete Object Locator'
	DD	00H
	DD	00H
	DD	FLAT:??_R0?AVCBase@@@8
	DD	FLAT:??_R3CBase@@8
rdata$r	ENDS
;	COMDAT ??_7CBase@@6B@
CONST	SEGMENT
??_7CBase@@6B@ DD FLAT:??_R4CBase@@6B@			; CBase::`vftable'
	DD	FLAT:??_ECBase@@UAEPAXI@Z
CONST	ENDS
; Function compile flags: /Ogtp
;	COMDAT ??_GCBase@@UAEPAXI@Z
_TEXT	SEGMENT
___flags$ = 8						; size = 4
??_GCBase@@UAEPAXI@Z PROC				; CBase::`scalar deleting destructor', COMDAT
; _this$ = ecx
  00000	55		 push	 ebp
  00001	8b ec		 mov	 ebp, esp
  00003	56		 push	 esi
  00004	8b f1		 mov	 esi, ecx
  00006	e8 00 00 00 00	 call	 ??1CBase@@UAE@XZ	; CBase::~CBase
  0000b	f6 45 08 01	 test	 BYTE PTR ___flags$[ebp], 1
  0000f	74 0b		 je	 SHORT $LN4@scalar
  00011	6a 08		 push	 8
  00013	56		 push	 esi
  00014	e8 00 00 00 00	 call	 ??3@YAXPAXI@Z		; operator delete
  00019	83 c4 08	 add	 esp, 8
$LN4@scalar:
  0001c	8b c6		 mov	 eax, esi
  0001e	5e		 pop	 esi
  0001f	5d		 pop	 ebp
  00020	c2 04 00	 ret	 4
??_GCBase@@UAEPAXI@Z ENDP				; CBase::`scalar deleting destructor'
_TEXT	ENDS
; Function compile flags: /Ogtp
; File C:\DS Project\DS Files\Source\ClientSource\Client\EterBase\poly\Base.cpp
;	COMDAT ??1CBase@@UAE@XZ
_TEXT	SEGMENT
??1CBase@@UAE@XZ PROC					; CBase::~CBase, COMDAT
; _this$ = ecx

; 10   : {

  00000	c7 01 00 00 00
	00		 mov	 DWORD PTR [ecx], OFFSET ??_7CBase@@6B@

; 11   : }

  00006	c3		 ret	 0
??1CBase@@UAE@XZ ENDP					; CBase::~CBase
_TEXT	ENDS
; Function compile flags: /Ogtp
; File C:\DS Project\DS Files\Source\ClientSource\Client\EterBase\poly\Base.cpp
;	COMDAT ??0CBase@@QAE@XZ
_TEXT	SEGMENT
??0CBase@@QAE@XZ PROC					; CBase::CBase, COMDAT
; _this$ = ecx

; 5    : {

  00000	c7 01 00 00 00
	00		 mov	 DWORD PTR [ecx], OFFSET ??_7CBase@@6B@

; 6    :     id = 0;
; 7    : }

  00006	8b c1		 mov	 eax, ecx
  00008	c7 41 04 00 00
	00 00		 mov	 DWORD PTR [ecx+4], 0
  0000f	c3		 ret	 0
??0CBase@@QAE@XZ ENDP					; CBase::CBase
_TEXT	ENDS
; Function compile flags: /Ogtp
; File C:\DS Project\DS Files\Source\ClientSource\Client\EterBase\poly\Base.cpp
;	COMDAT ?isNumber@CBase@@QAE_NXZ
_TEXT	SEGMENT
?isNumber@CBase@@QAE_NXZ PROC				; CBase::isNumber, COMDAT
; _this$ = ecx

; 15   : 	return (id & MID_NUMBER) != 0 ? true : false;

  00000	8b 41 04	 mov	 eax, DWORD PTR [ecx+4]
  00003	c1 e8 08	 shr	 eax, 8
  00006	24 01		 and	 al, 1

; 16   : }

  00008	c3		 ret	 0
?isNumber@CBase@@QAE_NXZ ENDP				; CBase::isNumber
_TEXT	ENDS
; Function compile flags: /Ogtp
; File C:\DS Project\DS Files\Source\ClientSource\Client\EterBase\poly\Base.cpp
;	COMDAT ?isVar@CBase@@QAE_NXZ
_TEXT	SEGMENT
?isVar@CBase@@QAE_NXZ PROC				; CBase::isVar, COMDAT
; _this$ = ecx

; 20   :     return (id & MID_VARIABLE) != 0 ? true : false;

  00000	8b 41 04	 mov	 eax, DWORD PTR [ecx+4]
  00003	c1 e8 09	 shr	 eax, 9
  00006	24 01		 and	 al, 1

; 21   : }

  00008	c3		 ret	 0
?isVar@CBase@@QAE_NXZ ENDP				; CBase::isVar
_TEXT	ENDS
; Function compile flags: /Ogtp
; File C:\DS Project\DS Files\Source\ClientSource\Client\EterBase\poly\Base.cpp
;	COMDAT ?isSymbol@CBase@@QAE_NXZ
_TEXT	SEGMENT
?isSymbol@CBase@@QAE_NXZ PROC				; CBase::isSymbol, COMDAT
; _this$ = ecx

; 25   :     return (id & MID_SYMBOL) != 0 ? true : false;

  00000	8b 41 04	 mov	 eax, DWORD PTR [ecx+4]
  00003	c1 e8 0a	 shr	 eax, 10			; 0000000aH
  00006	24 01		 and	 al, 1

; 26   : }

  00008	c3		 ret	 0
?isSymbol@CBase@@QAE_NXZ ENDP				; CBase::isSymbol
_TEXT	ENDS
END
