; Listing generated by Microsoft (R) Optimizing Compiler Version 19.27.29112.0 

	TITLE	C:\DS Project\DS Files\Source\ClientSource\Client\EterBase\error.cpp
	.686P
	.XMM
	include listing.inc
	.model	flat

INCLUDELIB LIBCMT
INCLUDELIB OLDNAMES

PUBLIC	?fException@@3PAU_iobuf@@A			; fException
_BSS	SEGMENT
?fException@@3PAU_iobuf@@A DD 01H DUP (?)		; fException
_BSS	ENDS
PUBLIC	??0exception@std@@QAE@ABV01@@Z			; std::exception::exception
PUBLIC	??1exception@std@@UAE@XZ			; std::exception::~exception
PUBLIC	?what@exception@std@@UBEPBDXZ			; std::exception::what
PUBLIC	??_Gexception@std@@UAEPAXI@Z			; std::exception::`scalar deleting destructor'
PUBLIC	??0bad_alloc@std@@QAE@ABV01@@Z			; std::bad_alloc::bad_alloc
PUBLIC	??_Gbad_alloc@std@@UAEPAXI@Z			; std::bad_alloc::`scalar deleting destructor'
PUBLIC	??0bad_array_new_length@std@@QAE@XZ		; std::bad_array_new_length::bad_array_new_length
PUBLIC	??1bad_array_new_length@std@@UAE@XZ		; std::bad_array_new_length::~bad_array_new_length
PUBLIC	??0bad_array_new_length@std@@QAE@ABV01@@Z	; std::bad_array_new_length::bad_array_new_length
PUBLIC	??_Gbad_array_new_length@std@@UAEPAXI@Z		; std::bad_array_new_length::`scalar deleting destructor'
PUBLIC	?_Throw_bad_array_new_length@std@@YAXXZ		; std::_Throw_bad_array_new_length
PUBLIC	?_Xlen_string@std@@YAXXZ			; std::_Xlen_string
PUBLIC	?_Xran@?$_String_val@U?$_Simple_types@D@std@@@std@@SAXXZ ; std::_String_val<std::_Simple_types<char> >::_Xran
PUBLIC	??0?$basic_string@DU?$char_traits@D@std@@V?$allocator@D@2@@std@@QAE@U_String_constructor_concat_tag@1@AAV01@1@Z ; std::basic_string<char,std::char_traits<char>,std::allocator<char> >::basic_string<char,std::char_traits<char>,std::allocator<char> >
PUBLIC	??1?$basic_string@DU?$char_traits@D@std@@V?$allocator@D@2@@std@@QAE@XZ ; std::basic_string<char,std::char_traits<char>,std::allocator<char> >::~basic_string<char,std::char_traits<char>,std::allocator<char> >
PUBLIC	?append@?$basic_string@DU?$char_traits@D@std@@V?$allocator@D@2@@std@@QAEAAV12@QBDI@Z ; std::basic_string<char,std::char_traits<char>,std::allocator<char> >::append
PUBLIC	?assign@?$basic_string@DU?$char_traits@D@std@@V?$allocator@D@2@@std@@QAEAAV12@QBDI@Z ; std::basic_string<char,std::char_traits<char>,std::allocator<char> >::assign
PUBLIC	?insert@?$basic_string@DU?$char_traits@D@std@@V?$allocator@D@2@@std@@QAEAAV12@IQBDI@Z ; std::basic_string<char,std::char_traits<char>,std::allocator<char> >::insert
PUBLIC	??$_Integral_to_string@DH@std@@YA?AV?$basic_string@DU?$char_traits@D@std@@V?$allocator@D@2@@0@H@Z ; std::_Integral_to_string<char,int>
PUBLIC	??$?HDU?$char_traits@D@std@@V?$allocator@D@1@@std@@YA?AV?$basic_string@DU?$char_traits@D@std@@V?$allocator@D@2@@0@$$QAV10@0@Z ; std::operator+<char,std::char_traits<char>,std::allocator<char> >
PUBLIC	??$?HDU?$char_traits@D@std@@V?$allocator@D@1@@std@@YA?AV?$basic_string@DU?$char_traits@D@std@@V?$allocator@D@2@@0@ABV10@$$QAV10@@Z ; std::operator+<char,std::char_traits<char>,std::allocator<char> >
PUBLIC	??0runtime_error@std@@QAE@ABV01@@Z		; std::runtime_error::runtime_error
PUBLIC	??_Gruntime_error@std@@UAEPAXI@Z		; std::runtime_error::`scalar deleting destructor'
PUBLIC	?make_error_code@std@@YA?AVerror_code@1@W4io_errc@1@@Z ; std::make_error_code
PUBLIC	??1error_category@std@@UAE@XZ			; std::error_category::~error_category
PUBLIC	?default_error_condition@error_category@std@@UBE?AVerror_condition@2@H@Z ; std::error_category::default_error_condition
PUBLIC	?equivalent@error_category@std@@UBE_NHABVerror_condition@2@@Z ; std::error_category::equivalent
PUBLIC	?equivalent@error_category@std@@UBE_NABVerror_code@2@H@Z ; std::error_category::equivalent
PUBLIC	??0_System_error@std@@IAE@Verror_code@1@ABV?$basic_string@DU?$char_traits@D@std@@V?$allocator@D@2@@1@@Z ; std::_System_error::_System_error
PUBLIC	??0_System_error@std@@QAE@ABV01@@Z		; std::_System_error::_System_error
PUBLIC	??_G_System_error@std@@UAEPAXI@Z		; std::_System_error::`scalar deleting destructor'
PUBLIC	??1system_error@std@@UAE@XZ			; std::system_error::~system_error
PUBLIC	??0system_error@std@@QAE@ABV01@@Z		; std::system_error::system_error
PUBLIC	??_Gsystem_error@std@@UAEPAXI@Z			; std::system_error::`scalar deleting destructor'
PUBLIC	?name@_Iostream_error_category2@std@@UBEPBDXZ	; std::_Iostream_error_category2::name
PUBLIC	?message@_Iostream_error_category2@std@@UBE?AV?$basic_string@DU?$char_traits@D@std@@V?$allocator@D@2@@2@H@Z ; std::_Iostream_error_category2::message
PUBLIC	??_G_Iostream_error_category2@std@@UAEPAXI@Z	; std::_Iostream_error_category2::`scalar deleting destructor'
PUBLIC	??$_Immortalize_memcpy_image@V_Iostream_error_category2@std@@@std@@YAABV_Iostream_error_category2@0@XZ ; std::_Immortalize_memcpy_image<std::_Iostream_error_category2>
PUBLIC	??1bad_cast@std@@UAE@XZ				; std::bad_cast::~bad_cast
PUBLIC	??0bad_cast@std@@QAE@ABV01@@Z			; std::bad_cast::bad_cast
PUBLIC	??_Gbad_cast@std@@UAEPAXI@Z			; std::bad_cast::`scalar deleting destructor'
PUBLIC	??1_Facet_base@std@@UAE@XZ			; std::_Facet_base::~_Facet_base
PUBLIC	??_G_Facet_base@std@@UAEPAXI@Z			; std::_Facet_base::`scalar deleting destructor'
PUBLIC	??0_Locinfo@std@@QAE@PBD@Z			; std::_Locinfo::_Locinfo
PUBLIC	??1_Locinfo@std@@QAE@XZ				; std::_Locinfo::~_Locinfo
PUBLIC	??1?$_Yarn@D@std@@QAE@XZ			; std::_Yarn<char>::~_Yarn<char>
PUBLIC	??1?$_Yarn@_W@std@@QAE@XZ			; std::_Yarn<wchar_t>::~_Yarn<wchar_t>
PUBLIC	?_Incref@facet@locale@std@@UAEXXZ		; std::locale::facet::_Incref
PUBLIC	?_Decref@facet@locale@std@@UAEPAV_Facet_base@3@XZ ; std::locale::facet::_Decref
PUBLIC	??1facet@locale@std@@MAE@XZ			; std::locale::facet::~facet
PUBLIC	??_Gfacet@locale@std@@MAEPAXI@Z			; std::locale::facet::`scalar deleting destructor'
PUBLIC	??1locale@std@@QAE@XZ				; std::locale::~locale
PUBLIC	??_Gctype_base@std@@UAEPAXI@Z			; std::ctype_base::`scalar deleting destructor'
PUBLIC	??1?$ctype@D@std@@MAE@XZ			; std::ctype<char>::~ctype<char>
PUBLIC	?do_tolower@?$ctype@D@std@@MBEDD@Z		; std::ctype<char>::do_tolower
PUBLIC	?do_tolower@?$ctype@D@std@@MBEPBDPADPBD@Z	; std::ctype<char>::do_tolower
PUBLIC	?do_toupper@?$ctype@D@std@@MBEDD@Z		; std::ctype<char>::do_toupper
PUBLIC	?do_toupper@?$ctype@D@std@@MBEPBDPADPBD@Z	; std::ctype<char>::do_toupper
PUBLIC	?do_widen@?$ctype@D@std@@MBEDD@Z		; std::ctype<char>::do_widen
PUBLIC	?do_widen@?$ctype@D@std@@MBEPBDPBD0PAD@Z	; std::ctype<char>::do_widen
PUBLIC	?do_narrow@?$ctype@D@std@@MBEDDD@Z		; std::ctype<char>::do_narrow
PUBLIC	?do_narrow@?$ctype@D@std@@MBEPBDPBD0DPAD@Z	; std::ctype<char>::do_narrow
PUBLIC	??_G?$ctype@D@std@@MAEPAXI@Z			; std::ctype<char>::`scalar deleting destructor'
PUBLIC	??$use_facet@V?$ctype@D@std@@@std@@YAABV?$ctype@D@0@ABVlocale@0@@Z ; std::use_facet<std::ctype<char> >
PUBLIC	??0failure@ios_base@std@@QAE@PBDABVerror_code@2@@Z ; std::ios_base::failure::failure
PUBLIC	??1failure@ios_base@std@@UAE@XZ			; std::ios_base::failure::~failure
PUBLIC	??0failure@ios_base@std@@QAE@ABV012@@Z		; std::ios_base::failure::failure
PUBLIC	??_Gfailure@ios_base@std@@UAEPAXI@Z		; std::ios_base::failure::`scalar deleting destructor'
PUBLIC	?clear@ios_base@std@@QAEXH_N@Z			; std::ios_base::clear
PUBLIC	??1ios_base@std@@UAE@XZ				; std::ios_base::~ios_base
PUBLIC	??_Gios_base@std@@UAEPAXI@Z			; std::ios_base::`scalar deleting destructor'
PUBLIC	?make_minidump@@YAXPAU_EXCEPTION_POINTERS@@@Z	; make_minidump
PUBLIC	??1?$basic_ios@DU?$char_traits@D@std@@@std@@UAE@XZ ; std::basic_ios<char,std::char_traits<char> >::~basic_ios<char,std::char_traits<char> >
PUBLIC	?setstate@?$basic_ios@DU?$char_traits@D@std@@@std@@QAEXH_N@Z ; std::basic_ios<char,std::char_traits<char> >::setstate
PUBLIC	??_G?$basic_ios@DU?$char_traits@D@std@@@std@@UAEPAXI@Z ; std::basic_ios<char,std::char_traits<char> >::`scalar deleting destructor'
PUBLIC	??0?$basic_ostream@DU?$char_traits@D@std@@@std@@QAE@PAV?$basic_streambuf@DU?$char_traits@D@std@@@1@_N@Z ; std::basic_ostream<char,std::char_traits<char> >::basic_ostream<char,std::char_traits<char> >
PUBLIC	??1?$basic_ostream@DU?$char_traits@D@std@@@std@@UAE@XZ ; std::basic_ostream<char,std::char_traits<char> >::~basic_ostream<char,std::char_traits<char> >
PUBLIC	?_Osfx@?$basic_ostream@DU?$char_traits@D@std@@@std@@QAEXXZ ; std::basic_ostream<char,std::char_traits<char> >::_Osfx
PUBLIC	??_G?$basic_ostream@DU?$char_traits@D@std@@@std@@UAEPAXI@Z ; std::basic_ostream<char,std::char_traits<char> >::`scalar deleting destructor'
PUBLIC	??1?$basic_ostringstream@DU?$char_traits@D@std@@V?$allocator@D@2@@std@@UAE@XZ ; std::basic_ostringstream<char,std::char_traits<char>,std::allocator<char> >::~basic_ostringstream<char,std::char_traits<char>,std::allocator<char> >
PUBLIC	??1?$basic_streambuf@DU?$char_traits@D@std@@@std@@UAE@XZ ; std::basic_streambuf<char,std::char_traits<char> >::~basic_streambuf<char,std::char_traits<char> >
PUBLIC	?_Lock@?$basic_streambuf@DU?$char_traits@D@std@@@std@@UAEXXZ ; std::basic_streambuf<char,std::char_traits<char> >::_Lock
PUBLIC	?_Unlock@?$basic_streambuf@DU?$char_traits@D@std@@@std@@UAEXXZ ; std::basic_streambuf<char,std::char_traits<char> >::_Unlock
PUBLIC	?_Gnavail@?$basic_streambuf@DU?$char_traits@D@std@@@std@@IBE_JXZ ; std::basic_streambuf<char,std::char_traits<char> >::_Gnavail
PUBLIC	?_Pnavail@?$basic_streambuf@DU?$char_traits@D@std@@@std@@IBE_JXZ ; std::basic_streambuf<char,std::char_traits<char> >::_Pnavail
PUBLIC	?overflow@?$basic_streambuf@DU?$char_traits@D@std@@@std@@MAEHH@Z ; std::basic_streambuf<char,std::char_traits<char> >::overflow
PUBLIC	?pbackfail@?$basic_streambuf@DU?$char_traits@D@std@@@std@@MAEHH@Z ; std::basic_streambuf<char,std::char_traits<char> >::pbackfail
PUBLIC	?showmanyc@?$basic_streambuf@DU?$char_traits@D@std@@@std@@MAE_JXZ ; std::basic_streambuf<char,std::char_traits<char> >::showmanyc
PUBLIC	?underflow@?$basic_streambuf@DU?$char_traits@D@std@@@std@@MAEHXZ ; std::basic_streambuf<char,std::char_traits<char> >::underflow
PUBLIC	?uflow@?$basic_streambuf@DU?$char_traits@D@std@@@std@@MAEHXZ ; std::basic_streambuf<char,std::char_traits<char> >::uflow
PUBLIC	?xsgetn@?$basic_streambuf@DU?$char_traits@D@std@@@std@@MAE_JPAD_J@Z ; std::basic_streambuf<char,std::char_traits<char> >::xsgetn
PUBLIC	?xsputn@?$basic_streambuf@DU?$char_traits@D@std@@@std@@MAE_JPBD_J@Z ; std::basic_streambuf<char,std::char_traits<char> >::xsputn
PUBLIC	?seekoff@?$basic_streambuf@DU?$char_traits@D@std@@@std@@MAE?AV?$fpos@U_Mbstatet@@@2@_JHH@Z ; std::basic_streambuf<char,std::char_traits<char> >::seekoff
PUBLIC	?seekpos@?$basic_streambuf@DU?$char_traits@D@std@@@std@@MAE?AV?$fpos@U_Mbstatet@@@2@V32@H@Z ; std::basic_streambuf<char,std::char_traits<char> >::seekpos
PUBLIC	?setbuf@?$basic_streambuf@DU?$char_traits@D@std@@@std@@MAEPAV12@PAD_J@Z ; std::basic_streambuf<char,std::char_traits<char> >::setbuf
PUBLIC	?sync@?$basic_streambuf@DU?$char_traits@D@std@@@std@@MAEHXZ ; std::basic_streambuf<char,std::char_traits<char> >::sync
PUBLIC	?imbue@?$basic_streambuf@DU?$char_traits@D@std@@@std@@MAEXABVlocale@2@@Z ; std::basic_streambuf<char,std::char_traits<char> >::imbue
PUBLIC	??_G?$basic_streambuf@DU?$char_traits@D@std@@@std@@UAEPAXI@Z ; std::basic_streambuf<char,std::char_traits<char> >::`scalar deleting destructor'
PUBLIC	??1?$basic_stringbuf@DU?$char_traits@D@std@@V?$allocator@D@2@@std@@UAE@XZ ; std::basic_stringbuf<char,std::char_traits<char>,std::allocator<char> >::~basic_stringbuf<char,std::char_traits<char>,std::allocator<char> >
PUBLIC	?overflow@?$basic_stringbuf@DU?$char_traits@D@std@@V?$allocator@D@2@@std@@MAEHH@Z ; std::basic_stringbuf<char,std::char_traits<char>,std::allocator<char> >::overflow
PUBLIC	?pbackfail@?$basic_stringbuf@DU?$char_traits@D@std@@V?$allocator@D@2@@std@@MAEHH@Z ; std::basic_stringbuf<char,std::char_traits<char>,std::allocator<char> >::pbackfail
PUBLIC	?underflow@?$basic_stringbuf@DU?$char_traits@D@std@@V?$allocator@D@2@@std@@MAEHXZ ; std::basic_stringbuf<char,std::char_traits<char>,std::allocator<char> >::underflow
PUBLIC	?seekoff@?$basic_stringbuf@DU?$char_traits@D@std@@V?$allocator@D@2@@std@@MAE?AV?$fpos@U_Mbstatet@@@2@_JHH@Z ; std::basic_stringbuf<char,std::char_traits<char>,std::allocator<char> >::seekoff
PUBLIC	?seekpos@?$basic_stringbuf@DU?$char_traits@D@std@@V?$allocator@D@2@@std@@MAE?AV?$fpos@U_Mbstatet@@@2@V32@H@Z ; std::basic_stringbuf<char,std::char_traits<char>,std::allocator<char> >::seekpos
PUBLIC	??_G?$basic_stringbuf@DU?$char_traits@D@std@@V?$allocator@D@2@@std@@UAEPAXI@Z ; std::basic_stringbuf<char,std::char_traits<char>,std::allocator<char> >::`scalar deleting destructor'
PUBLIC	??_G?$basic_ostringstream@DU?$char_traits@D@std@@V?$allocator@D@2@@std@@UAEPAXI@Z ; std::basic_ostringstream<char,std::char_traits<char>,std::allocator<char> >::`scalar deleting destructor'
PUBLIC	??_D?$basic_ostringstream@DU?$char_traits@D@std@@V?$allocator@D@2@@std@@QAEXXZ ; std::basic_ostringstream<char,std::char_traits<char>,std::allocator<char> >::`vbase destructor'
PUBLIC	??$put_time@D@std@@YA?AU?$_Timeobj@DPBUtm@@@0@PBUtm@@PBD@Z ; std::put_time<char>
PUBLIC	??$?6DU?$char_traits@D@std@@D@std@@YAAAV?$basic_ostream@DU?$char_traits@D@std@@@0@AAV10@ABU?$_Timeobj@DPBUtm@@@0@@Z ; std::operator<<<char,std::char_traits<char>,char>
PUBLIC	??$?HDU?$char_traits@D@std@@V?$allocator@D@1@@std@@YA?AV?$basic_string@DU?$char_traits@D@std@@V?$allocator@D@2@@0@$$QAV10@QBD@Z ; std::operator+<char,std::char_traits<char>,std::allocator<char> >
PUBLIC	?EterExceptionFilter@@YGJPAU_EXCEPTION_POINTERS@@@Z ; EterExceptionFilter
PUBLIC	?SetEterExceptionHandler@@YAXXZ			; SetEterExceptionHandler
PUBLIC	??$_Destroy_in_place@PAD@std@@YAXAAPAD@Z	; std::_Destroy_in_place<char *>
PUBLIC	??$_Construct_in_place@PADABQAD@std@@YAXAAPADABQAD@Z ; std::_Construct_in_place<char *,char * const &>
PUBLIC	??$_Allocate@$07U_Default_allocate_traits@std@@$0A@@std@@YAPAXI@Z ; std::_Allocate<8,std::_Default_allocate_traits,0>
PUBLIC	??$_Deallocate@$07$0A@@std@@YAXPAXI@Z		; std::_Deallocate<8,0>
PUBLIC	??$_UIntegral_to_buff@DI@std@@YAPADPADI@Z	; std::_UIntegral_to_buff<char,unsigned int>
PUBLIC	??1?$unique_ptr@V_Facet_base@std@@U?$default_delete@V_Facet_base@std@@@2@@std@@QAE@XZ ; std::unique_ptr<std::_Facet_base,std::default_delete<std::_Facet_base> >::~unique_ptr<std::_Facet_base,std::default_delete<std::_Facet_base> >
PUBLIC	??1_Sentry_base@?$basic_ostream@DU?$char_traits@D@std@@@std@@QAE@XZ ; std::basic_ostream<char,std::char_traits<char> >::_Sentry_base::~_Sentry_base
PUBLIC	??0sentry@?$basic_ostream@DU?$char_traits@D@std@@@std@@QAE@AAV12@@Z ; std::basic_ostream<char,std::char_traits<char> >::sentry::sentry
PUBLIC	??1sentry@?$basic_ostream@DU?$char_traits@D@std@@@std@@QAE@XZ ; std::basic_ostream<char,std::char_traits<char> >::sentry::~sentry
PUBLIC	??$use_facet@V?$time_put@DV?$ostreambuf_iterator@DU?$char_traits@D@std@@@std@@@std@@@std@@YAABV?$time_put@DV?$ostreambuf_iterator@DU?$char_traits@D@std@@@std@@@0@ABVlocale@0@@Z ; std::use_facet<std::time_put<char,std::ostreambuf_iterator<char,std::char_traits<char> > > >
PUBLIC	?put@?$time_put@DV?$ostreambuf_iterator@DU?$char_traits@D@std@@@std@@@std@@QBE?AV?$ostreambuf_iterator@DU?$char_traits@D@std@@@2@V32@AAVios_base@2@DPBUtm@@PBD3@Z ; std::time_put<char,std::ostreambuf_iterator<char,std::char_traits<char> > >::put
PUBLIC	??1?$time_put@DV?$ostreambuf_iterator@DU?$char_traits@D@std@@@std@@@std@@MAE@XZ ; std::time_put<char,std::ostreambuf_iterator<char,std::char_traits<char> > >::~time_put<char,std::ostreambuf_iterator<char,std::char_traits<char> > >
PUBLIC	?do_put@?$time_put@DV?$ostreambuf_iterator@DU?$char_traits@D@std@@@std@@@std@@MBE?AV?$ostreambuf_iterator@DU?$char_traits@D@std@@@2@V32@AAVios_base@2@DPBUtm@@DD@Z ; std::time_put<char,std::ostreambuf_iterator<char,std::char_traits<char> > >::do_put
PUBLIC	??_G?$time_put@DV?$ostreambuf_iterator@DU?$char_traits@D@std@@@std@@@std@@MAEPAXI@Z ; std::time_put<char,std::ostreambuf_iterator<char,std::char_traits<char> > >::`scalar deleting destructor'
PUBLIC	??$_Allocate_manually_vector_aligned@U_Default_allocate_traits@std@@@std@@YAPAXI@Z ; std::_Allocate_manually_vector_aligned<std::_Default_allocate_traits>
PUBLIC	??$_Atomic_address_as@$$CBJ$$CBU?$_Atomic_padded@I@std@@@std@@YAPDJABU?$_Atomic_padded@I@0@@Z ; std::_Atomic_address_as<long const ,std::_Atomic_padded<unsigned int> const >
PUBLIC	??$_Atomic_reinterpret_as@HI@std@@YAHABI@Z	; std::_Atomic_reinterpret_as<int,unsigned int>
PUBLIC	??$_Atomic_address_as@JU?$_Atomic_padded@I@std@@@std@@YAPCJAAU?$_Atomic_padded@I@0@@Z ; std::_Atomic_address_as<long,std::_Atomic_padded<unsigned int> >
PUBLIC	??$_Atomic_reinterpret_as@JI@std@@YAJABI@Z	; std::_Atomic_reinterpret_as<long,unsigned int>
PUBLIC	??_E?$basic_ostream@DU?$char_traits@D@std@@@std@@$4PPPPPPPM@A@AEPAXI@Z ; std::basic_ostream<char,std::char_traits<char> >::`vector deleting destructor'
PUBLIC	??_E?$basic_ostringstream@DU?$char_traits@D@std@@V?$allocator@D@2@@std@@$4PPPPPPPM@A@AEPAXI@Z ; std::basic_ostringstream<char,std::char_traits<char>,std::allocator<char> >::`vector deleting destructor'
PUBLIC	??_7exception@std@@6B@				; std::exception::`vftable'
PUBLIC	??_C@_0BC@EOODALEL@Unknown?5exception@		; `string'
PUBLIC	??_7bad_alloc@std@@6B@				; std::bad_alloc::`vftable'
PUBLIC	??_7bad_array_new_length@std@@6B@		; std::bad_array_new_length::`vftable'
PUBLIC	??_C@_0BF@KINCDENJ@bad?5array?5new?5length@	; `string'
PUBLIC	__TI3?AVbad_array_new_length@std@@
PUBLIC	__CTA3?AVbad_array_new_length@std@@
PUBLIC	??_R0?AVbad_array_new_length@std@@@8		; std::bad_array_new_length `RTTI Type Descriptor'
PUBLIC	__CT??_R0?AVbad_array_new_length@std@@@8??0bad_array_new_length@std@@QAE@ABV01@@Z12
PUBLIC	??_R0?AVbad_alloc@std@@@8			; std::bad_alloc `RTTI Type Descriptor'
PUBLIC	__CT??_R0?AVbad_alloc@std@@@8??0bad_alloc@std@@QAE@ABV01@@Z12
PUBLIC	??_R0?AVexception@std@@@8			; std::exception `RTTI Type Descriptor'
PUBLIC	__CT??_R0?AVexception@std@@@8??0exception@std@@QAE@ABV01@@Z12
PUBLIC	??_C@_0BA@JFNIOLAK@string?5too?5long@		; `string'
PUBLIC	??_7runtime_error@std@@6B@			; std::runtime_error::`vftable'
PUBLIC	??_R0?AVruntime_error@std@@@8			; std::runtime_error `RTTI Type Descriptor'
PUBLIC	__CT??_R0?AVruntime_error@std@@@8??0runtime_error@std@@QAE@ABV01@@Z12
PUBLIC	??_7_System_error@std@@6B@			; std::_System_error::`vftable'
PUBLIC	??_C@_02LMMGGCAJ@?3?5@				; `string'
PUBLIC	??_7system_error@std@@6B@			; std::system_error::`vftable'
PUBLIC	??_C@_00CNPNBAHC@@				; `string'
PUBLIC	??_R0?AVsystem_error@std@@@8			; std::system_error `RTTI Type Descriptor'
PUBLIC	__CT??_R0?AVsystem_error@std@@@8??0system_error@std@@QAE@ABV01@@Z20
PUBLIC	??_R0?AV_System_error@std@@@8			; std::_System_error `RTTI Type Descriptor'
PUBLIC	__CT??_R0?AV_System_error@std@@@8??0_System_error@std@@QAE@ABV01@@Z20
PUBLIC	??_7_Iostream_error_category2@std@@6B@		; std::_Iostream_error_category2::`vftable'
PUBLIC	??_C@_08LLGCOLLL@iostream@			; `string'
PUBLIC	?_Iostream_error@?4??message@_Iostream_error_category2@std@@UBE?AV?$basic_string@DU?$char_traits@D@std@@V?$allocator@D@2@@3@H@Z@4QBDB ; `std::_Iostream_error_category2::message'::`5'::_Iostream_error
PUBLIC	??_7bad_cast@std@@6B@				; std::bad_cast::`vftable'
PUBLIC	??_C@_08EPJLHIJG@bad?5cast@			; `string'
PUBLIC	__TI2?AVbad_cast@std@@
PUBLIC	__CTA2?AVbad_cast@std@@
PUBLIC	??_R0?AVbad_cast@std@@@8			; std::bad_cast `RTTI Type Descriptor'
PUBLIC	__CT??_R0?AVbad_cast@std@@@8??0bad_cast@std@@QAE@ABV01@@Z12
PUBLIC	??_7_Facet_base@std@@6B@			; std::_Facet_base::`vftable'
PUBLIC	??_C@_0BA@ELKIONDK@bad?5locale?5name@		; `string'
PUBLIC	??_7facet@locale@std@@6B@			; std::locale::facet::`vftable'
PUBLIC	??_7ctype_base@std@@6B@				; std::ctype_base::`vftable'
PUBLIC	??_7?$ctype@D@std@@6B@				; std::ctype<char>::`vftable'
PUBLIC	??_7failure@ios_base@std@@6B@			; std::ios_base::failure::`vftable'
PUBLIC	??_7ios_base@std@@6B@				; std::ios_base::`vftable'
PUBLIC	??_C@_0BF@PHHKMMFD@ios_base?3?3badbit?5set@	; `string'
PUBLIC	??_C@_0BG@FMKFHCIL@ios_base?3?3failbit?5set@	; `string'
PUBLIC	??_C@_0BF@OOHOMBOF@ios_base?3?3eofbit?5set@	; `string'
PUBLIC	__TI5?AVfailure@ios_base@std@@
PUBLIC	__CTA5?AVfailure@ios_base@std@@
PUBLIC	??_R0?AVfailure@ios_base@std@@@8		; std::ios_base::failure `RTTI Type Descriptor'
PUBLIC	__CT??_R0?AVfailure@ios_base@std@@@8??0failure@ios_base@std@@QAE@ABV012@@Z20
PUBLIC	??_7?$basic_ios@DU?$char_traits@D@std@@@std@@6B@ ; std::basic_ios<char,std::char_traits<char> >::`vftable'
PUBLIC	??_7?$basic_ostream@DU?$char_traits@D@std@@@std@@6B@ ; std::basic_ostream<char,std::char_traits<char> >::`vftable'
PUBLIC	??_8?$basic_ostream@DU?$char_traits@D@std@@@std@@7B@ ; std::basic_ostream<char,std::char_traits<char> >::`vbtable'
PUBLIC	??_7?$basic_streambuf@DU?$char_traits@D@std@@@std@@6B@ ; std::basic_streambuf<char,std::char_traits<char> >::`vftable'
PUBLIC	??_7?$basic_stringbuf@DU?$char_traits@D@std@@V?$allocator@D@2@@std@@6B@ ; std::basic_stringbuf<char,std::char_traits<char>,std::allocator<char> >::`vftable'
PUBLIC	??_7?$basic_ostringstream@DU?$char_traits@D@std@@V?$allocator@D@2@@std@@6B@ ; std::basic_ostringstream<char,std::char_traits<char>,std::allocator<char> >::`vftable'
PUBLIC	??_8?$basic_ostringstream@DU?$char_traits@D@std@@V?$allocator@D@2@@std@@7B@ ; std::basic_ostringstream<char,std::char_traits<char>,std::allocator<char> >::`vbtable'
PUBLIC	??_C@_07MOMJMPG@dbghelp@			; `string'
PUBLIC	??_C@_0BC@MNIKNFKD@MiniDumpWriteDump@		; `string'
PUBLIC	??_C@_0O@GHHCBHKH@?$CFY?$CFm?$CFd_?$CFH?$CFM?$CFS@ ; `string'
PUBLIC	??_C@_04JMFINIFG@?4dmp@				; `string'
PUBLIC	??_C@_0O@BMPKPIOH@metin2client_@		; `string'
PUBLIC	??_C@_0BI@CFPLBAOH@invalid?5string?5position@	; `string'
PUBLIC	?_Storage@?1???$_Immortalize_memcpy_image@V_Iostream_error_category2@std@@@std@@YAABV_Iostream_error_category2@1@XZ@4PAU?$atomic@I@1@A ; `std::_Immortalize_memcpy_image<std::_Iostream_error_category2>'::`2'::_Storage
PUBLIC	?_Psave@?$_Facetptr@V?$ctype@D@std@@@std@@2PBVfacet@locale@2@B ; std::_Facetptr<std::ctype<char> >::_Psave
PUBLIC	?id@?$time_put@DV?$ostreambuf_iterator@DU?$char_traits@D@std@@@std@@@std@@2V0locale@2@A ; std::time_put<char,std::ostreambuf_iterator<char,std::char_traits<char> > >::id
PUBLIC	??_7?$time_put@DV?$ostreambuf_iterator@DU?$char_traits@D@std@@@std@@@std@@6B@ ; std::time_put<char,std::ostreambuf_iterator<char,std::char_traits<char> > >::`vftable'
PUBLIC	??_C@_04IHCGILC@?$CB?$CFx?$AA@			; `string'
PUBLIC	?_Psave@?$_Facetptr@V?$time_put@DV?$ostreambuf_iterator@DU?$char_traits@D@std@@@std@@@std@@@std@@2PBVfacet@locale@2@B ; std::_Facetptr<std::time_put<char,std::ostreambuf_iterator<char,std::char_traits<char> > > >::_Psave
PUBLIC	??_R4exception@std@@6B@				; std::exception::`RTTI Complete Object Locator'
PUBLIC	??_R3exception@std@@8				; std::exception::`RTTI Class Hierarchy Descriptor'
PUBLIC	??_R2exception@std@@8				; std::exception::`RTTI Base Class Array'
PUBLIC	??_R1A@?0A@EA@exception@std@@8			; std::exception::`RTTI Base Class Descriptor at (0,-1,0,64)'
PUBLIC	??_R4bad_alloc@std@@6B@				; std::bad_alloc::`RTTI Complete Object Locator'
PUBLIC	??_R3bad_alloc@std@@8				; std::bad_alloc::`RTTI Class Hierarchy Descriptor'
PUBLIC	??_R2bad_alloc@std@@8				; std::bad_alloc::`RTTI Base Class Array'
PUBLIC	??_R1A@?0A@EA@bad_alloc@std@@8			; std::bad_alloc::`RTTI Base Class Descriptor at (0,-1,0,64)'
PUBLIC	??_R4bad_array_new_length@std@@6B@		; std::bad_array_new_length::`RTTI Complete Object Locator'
PUBLIC	??_R3bad_array_new_length@std@@8		; std::bad_array_new_length::`RTTI Class Hierarchy Descriptor'
PUBLIC	??_R2bad_array_new_length@std@@8		; std::bad_array_new_length::`RTTI Base Class Array'
PUBLIC	??_R1A@?0A@EA@bad_array_new_length@std@@8	; std::bad_array_new_length::`RTTI Base Class Descriptor at (0,-1,0,64)'
PUBLIC	??_R4ios_base@std@@6B@				; std::ios_base::`RTTI Complete Object Locator'
PUBLIC	??_R0?AVios_base@std@@@8			; std::ios_base `RTTI Type Descriptor'
PUBLIC	??_R3ios_base@std@@8				; std::ios_base::`RTTI Class Hierarchy Descriptor'
PUBLIC	??_R2ios_base@std@@8				; std::ios_base::`RTTI Base Class Array'
PUBLIC	??_R1A@?0A@EA@ios_base@std@@8			; std::ios_base::`RTTI Base Class Descriptor at (0,-1,0,64)'
PUBLIC	??_R17?0A@EA@?$_Iosb@H@std@@8			; std::_Iosb<int>::`RTTI Base Class Descriptor at (8,-1,0,64)'
PUBLIC	??_R0?AV?$_Iosb@H@std@@@8			; std::_Iosb<int> `RTTI Type Descriptor'
PUBLIC	??_R3?$_Iosb@H@std@@8				; std::_Iosb<int>::`RTTI Class Hierarchy Descriptor'
PUBLIC	??_R2?$_Iosb@H@std@@8				; std::_Iosb<int>::`RTTI Base Class Array'
PUBLIC	??_R1A@?0A@EA@?$_Iosb@H@std@@8			; std::_Iosb<int>::`RTTI Base Class Descriptor at (0,-1,0,64)'
PUBLIC	??_R4?$basic_ios@DU?$char_traits@D@std@@@std@@6B@ ; std::basic_ios<char,std::char_traits<char> >::`RTTI Complete Object Locator'
PUBLIC	??_R0?AV?$basic_ios@DU?$char_traits@D@std@@@std@@@8 ; std::basic_ios<char,std::char_traits<char> > `RTTI Type Descriptor'
PUBLIC	??_R3?$basic_ios@DU?$char_traits@D@std@@@std@@8	; std::basic_ios<char,std::char_traits<char> >::`RTTI Class Hierarchy Descriptor'
PUBLIC	??_R2?$basic_ios@DU?$char_traits@D@std@@@std@@8	; std::basic_ios<char,std::char_traits<char> >::`RTTI Base Class Array'
PUBLIC	??_R1A@?0A@EA@?$basic_ios@DU?$char_traits@D@std@@@std@@8 ; std::basic_ios<char,std::char_traits<char> >::`RTTI Base Class Descriptor at (0,-1,0,64)'
PUBLIC	??_R4?$basic_streambuf@DU?$char_traits@D@std@@@std@@6B@ ; std::basic_streambuf<char,std::char_traits<char> >::`RTTI Complete Object Locator'
PUBLIC	??_R0?AV?$basic_streambuf@DU?$char_traits@D@std@@@std@@@8 ; std::basic_streambuf<char,std::char_traits<char> > `RTTI Type Descriptor'
PUBLIC	??_R3?$basic_streambuf@DU?$char_traits@D@std@@@std@@8 ; std::basic_streambuf<char,std::char_traits<char> >::`RTTI Class Hierarchy Descriptor'
PUBLIC	??_R2?$basic_streambuf@DU?$char_traits@D@std@@@std@@8 ; std::basic_streambuf<char,std::char_traits<char> >::`RTTI Base Class Array'
PUBLIC	??_R1A@?0A@EA@?$basic_streambuf@DU?$char_traits@D@std@@@std@@8 ; std::basic_streambuf<char,std::char_traits<char> >::`RTTI Base Class Descriptor at (0,-1,0,64)'
PUBLIC	??_R4?$basic_ostream@DU?$char_traits@D@std@@@std@@6B@ ; std::basic_ostream<char,std::char_traits<char> >::`RTTI Complete Object Locator'
PUBLIC	??_R0?AV?$basic_ostream@DU?$char_traits@D@std@@@std@@@8 ; std::basic_ostream<char,std::char_traits<char> > `RTTI Type Descriptor'
PUBLIC	??_R3?$basic_ostream@DU?$char_traits@D@std@@@std@@8 ; std::basic_ostream<char,std::char_traits<char> >::`RTTI Class Hierarchy Descriptor'
PUBLIC	??_R2?$basic_ostream@DU?$char_traits@D@std@@@std@@8 ; std::basic_ostream<char,std::char_traits<char> >::`RTTI Base Class Array'
PUBLIC	??_R1A@?0A@EA@?$basic_ostream@DU?$char_traits@D@std@@@std@@8 ; std::basic_ostream<char,std::char_traits<char> >::`RTTI Base Class Descriptor at (0,-1,0,64)'
PUBLIC	??_R1A@A@3FA@?$basic_ios@DU?$char_traits@D@std@@@std@@8 ; std::basic_ios<char,std::char_traits<char> >::`RTTI Base Class Descriptor at (0,0,4,80)'
PUBLIC	??_R1A@A@3EA@ios_base@std@@8			; std::ios_base::`RTTI Base Class Descriptor at (0,0,4,64)'
PUBLIC	??_R17A@3EA@?$_Iosb@H@std@@8			; std::_Iosb<int>::`RTTI Base Class Descriptor at (8,0,4,64)'
PUBLIC	??_R4?$basic_stringbuf@DU?$char_traits@D@std@@V?$allocator@D@2@@std@@6B@ ; std::basic_stringbuf<char,std::char_traits<char>,std::allocator<char> >::`RTTI Complete Object Locator'
PUBLIC	??_R0?AV?$basic_stringbuf@DU?$char_traits@D@std@@V?$allocator@D@2@@std@@@8 ; std::basic_stringbuf<char,std::char_traits<char>,std::allocator<char> > `RTTI Type Descriptor'
PUBLIC	??_R3?$basic_stringbuf@DU?$char_traits@D@std@@V?$allocator@D@2@@std@@8 ; std::basic_stringbuf<char,std::char_traits<char>,std::allocator<char> >::`RTTI Class Hierarchy Descriptor'
PUBLIC	??_R2?$basic_stringbuf@DU?$char_traits@D@std@@V?$allocator@D@2@@std@@8 ; std::basic_stringbuf<char,std::char_traits<char>,std::allocator<char> >::`RTTI Base Class Array'
PUBLIC	??_R1A@?0A@EA@?$basic_stringbuf@DU?$char_traits@D@std@@V?$allocator@D@2@@std@@8 ; std::basic_stringbuf<char,std::char_traits<char>,std::allocator<char> >::`RTTI Base Class Descriptor at (0,-1,0,64)'
PUBLIC	??_R4?$basic_ostringstream@DU?$char_traits@D@std@@V?$allocator@D@2@@std@@6B@ ; std::basic_ostringstream<char,std::char_traits<char>,std::allocator<char> >::`RTTI Complete Object Locator'
PUBLIC	??_R0?AV?$basic_ostringstream@DU?$char_traits@D@std@@V?$allocator@D@2@@std@@@8 ; std::basic_ostringstream<char,std::char_traits<char>,std::allocator<char> > `RTTI Type Descriptor'
PUBLIC	??_R3?$basic_ostringstream@DU?$char_traits@D@std@@V?$allocator@D@2@@std@@8 ; std::basic_ostringstream<char,std::char_traits<char>,std::allocator<char> >::`RTTI Class Hierarchy Descriptor'
PUBLIC	??_R2?$basic_ostringstream@DU?$char_traits@D@std@@V?$allocator@D@2@@std@@8 ; std::basic_ostringstream<char,std::char_traits<char>,std::allocator<char> >::`RTTI Base Class Array'
PUBLIC	??_R1A@?0A@EA@?$basic_ostringstream@DU?$char_traits@D@std@@V?$allocator@D@2@@std@@8 ; std::basic_ostringstream<char,std::char_traits<char>,std::allocator<char> >::`RTTI Base Class Descriptor at (0,-1,0,64)'
PUBLIC	??_R4runtime_error@std@@6B@			; std::runtime_error::`RTTI Complete Object Locator'
PUBLIC	??_R3runtime_error@std@@8			; std::runtime_error::`RTTI Class Hierarchy Descriptor'
PUBLIC	??_R2runtime_error@std@@8			; std::runtime_error::`RTTI Base Class Array'
PUBLIC	??_R1A@?0A@EA@runtime_error@std@@8		; std::runtime_error::`RTTI Base Class Descriptor at (0,-1,0,64)'
PUBLIC	??_R0?AVerror_category@std@@@8			; std::error_category `RTTI Type Descriptor'
PUBLIC	??_R3error_category@std@@8			; std::error_category::`RTTI Class Hierarchy Descriptor'
PUBLIC	??_R2error_category@std@@8			; std::error_category::`RTTI Base Class Array'
PUBLIC	??_R1A@?0A@EA@error_category@std@@8		; std::error_category::`RTTI Base Class Descriptor at (0,-1,0,64)'
PUBLIC	??_R4_System_error@std@@6B@			; std::_System_error::`RTTI Complete Object Locator'
PUBLIC	??_R3_System_error@std@@8			; std::_System_error::`RTTI Class Hierarchy Descriptor'
PUBLIC	??_R2_System_error@std@@8			; std::_System_error::`RTTI Base Class Array'
PUBLIC	??_R1A@?0A@EA@_System_error@std@@8		; std::_System_error::`RTTI Base Class Descriptor at (0,-1,0,64)'
PUBLIC	??_R4system_error@std@@6B@			; std::system_error::`RTTI Complete Object Locator'
PUBLIC	??_R3system_error@std@@8			; std::system_error::`RTTI Class Hierarchy Descriptor'
PUBLIC	??_R2system_error@std@@8			; std::system_error::`RTTI Base Class Array'
PUBLIC	??_R1A@?0A@EA@system_error@std@@8		; std::system_error::`RTTI Base Class Descriptor at (0,-1,0,64)'
PUBLIC	??_R4_Iostream_error_category2@std@@6B@		; std::_Iostream_error_category2::`RTTI Complete Object Locator'
PUBLIC	??_R0?AV_Iostream_error_category2@std@@@8	; std::_Iostream_error_category2 `RTTI Type Descriptor'
PUBLIC	??_R3_Iostream_error_category2@std@@8		; std::_Iostream_error_category2::`RTTI Class Hierarchy Descriptor'
PUBLIC	??_R2_Iostream_error_category2@std@@8		; std::_Iostream_error_category2::`RTTI Base Class Array'
PUBLIC	??_R1A@?0A@EA@_Iostream_error_category2@std@@8	; std::_Iostream_error_category2::`RTTI Base Class Descriptor at (0,-1,0,64)'
PUBLIC	??_R4bad_cast@std@@6B@				; std::bad_cast::`RTTI Complete Object Locator'
PUBLIC	??_R3bad_cast@std@@8				; std::bad_cast::`RTTI Class Hierarchy Descriptor'
PUBLIC	??_R2bad_cast@std@@8				; std::bad_cast::`RTTI Base Class Array'
PUBLIC	??_R1A@?0A@EA@bad_cast@std@@8			; std::bad_cast::`RTTI Base Class Descriptor at (0,-1,0,64)'
PUBLIC	??_R4_Facet_base@std@@6B@			; std::_Facet_base::`RTTI Complete Object Locator'
PUBLIC	??_R0?AV_Facet_base@std@@@8			; std::_Facet_base `RTTI Type Descriptor'
PUBLIC	??_R3_Facet_base@std@@8				; std::_Facet_base::`RTTI Class Hierarchy Descriptor'
PUBLIC	??_R2_Facet_base@std@@8				; std::_Facet_base::`RTTI Base Class Array'
PUBLIC	??_R1A@?0A@EA@_Facet_base@std@@8		; std::_Facet_base::`RTTI Base Class Descriptor at (0,-1,0,64)'
PUBLIC	??_R1A@?0A@EA@facet@locale@std@@8		; std::locale::facet::`RTTI Base Class Descriptor at (0,-1,0,64)'
PUBLIC	??_R0?AVfacet@locale@std@@@8			; std::locale::facet `RTTI Type Descriptor'
PUBLIC	??_R3facet@locale@std@@8			; std::locale::facet::`RTTI Class Hierarchy Descriptor'
PUBLIC	??_R2facet@locale@std@@8			; std::locale::facet::`RTTI Base Class Array'
PUBLIC	??_R13?0A@EA@_Crt_new_delete@std@@8		; std::_Crt_new_delete::`RTTI Base Class Descriptor at (4,-1,0,64)'
PUBLIC	??_R0?AU_Crt_new_delete@std@@@8			; std::_Crt_new_delete `RTTI Type Descriptor'
PUBLIC	??_R3_Crt_new_delete@std@@8			; std::_Crt_new_delete::`RTTI Class Hierarchy Descriptor'
PUBLIC	??_R2_Crt_new_delete@std@@8			; std::_Crt_new_delete::`RTTI Base Class Array'
PUBLIC	??_R1A@?0A@EA@_Crt_new_delete@std@@8		; std::_Crt_new_delete::`RTTI Base Class Descriptor at (0,-1,0,64)'
PUBLIC	??_R4facet@locale@std@@6B@			; std::locale::facet::`RTTI Complete Object Locator'
PUBLIC	??_R4ctype_base@std@@6B@			; std::ctype_base::`RTTI Complete Object Locator'
PUBLIC	??_R0?AUctype_base@std@@@8			; std::ctype_base `RTTI Type Descriptor'
PUBLIC	??_R3ctype_base@std@@8				; std::ctype_base::`RTTI Class Hierarchy Descriptor'
PUBLIC	??_R2ctype_base@std@@8				; std::ctype_base::`RTTI Base Class Array'
PUBLIC	??_R1A@?0A@EA@ctype_base@std@@8			; std::ctype_base::`RTTI Base Class Descriptor at (0,-1,0,64)'
PUBLIC	??_R4?$ctype@D@std@@6B@				; std::ctype<char>::`RTTI Complete Object Locator'
PUBLIC	??_R0?AV?$ctype@D@std@@@8			; std::ctype<char> `RTTI Type Descriptor'
PUBLIC	??_R3?$ctype@D@std@@8				; std::ctype<char>::`RTTI Class Hierarchy Descriptor'
PUBLIC	??_R2?$ctype@D@std@@8				; std::ctype<char>::`RTTI Base Class Array'
PUBLIC	??_R1A@?0A@EA@?$ctype@D@std@@8			; std::ctype<char>::`RTTI Base Class Descriptor at (0,-1,0,64)'
PUBLIC	??_R4failure@ios_base@std@@6B@			; std::ios_base::failure::`RTTI Complete Object Locator'
PUBLIC	??_R3failure@ios_base@std@@8			; std::ios_base::failure::`RTTI Class Hierarchy Descriptor'
PUBLIC	??_R2failure@ios_base@std@@8			; std::ios_base::failure::`RTTI Base Class Array'
PUBLIC	??_R1A@?0A@EA@failure@ios_base@std@@8		; std::ios_base::failure::`RTTI Base Class Descriptor at (0,-1,0,64)'
PUBLIC	??_R4?$time_put@DV?$ostreambuf_iterator@DU?$char_traits@D@std@@@std@@@std@@6B@ ; std::time_put<char,std::ostreambuf_iterator<char,std::char_traits<char> > >::`RTTI Complete Object Locator'
PUBLIC	??_R0?AV?$time_put@DV?$ostreambuf_iterator@DU?$char_traits@D@std@@@std@@@std@@@8 ; std::time_put<char,std::ostreambuf_iterator<char,std::char_traits<char> > > `RTTI Type Descriptor'
PUBLIC	??_R3?$time_put@DV?$ostreambuf_iterator@DU?$char_traits@D@std@@@std@@@std@@8 ; std::time_put<char,std::ostreambuf_iterator<char,std::char_traits<char> > >::`RTTI Class Hierarchy Descriptor'
PUBLIC	??_R2?$time_put@DV?$ostreambuf_iterator@DU?$char_traits@D@std@@@std@@@std@@8 ; std::time_put<char,std::ostreambuf_iterator<char,std::char_traits<char> > >::`RTTI Base Class Array'
PUBLIC	??_R1A@?0A@EA@?$time_put@DV?$ostreambuf_iterator@DU?$char_traits@D@std@@@std@@@std@@8 ; std::time_put<char,std::ostreambuf_iterator<char,std::char_traits<char> > >::`RTTI Base Class Descriptor at (0,-1,0,64)'
EXTRN	__purecall:PROC
EXTRN	??2@YAPAXI@Z:PROC				; operator new
EXTRN	??3@YAXPAXI@Z:PROC				; operator delete
EXTRN	??_V@YAXPAX@Z:PROC				; operator delete[]
EXTRN	___std_terminate:PROC
EXTRN	__invalid_parameter_noinfo_noreturn:PROC
EXTRN	__imp__CreateDirectoryA@8:PROC
EXTRN	__imp__CreateFileA@28:PROC
EXTRN	__imp__CloseHandle@4:PROC
EXTRN	__imp__SetUnhandledExceptionFilter@4:PROC
EXTRN	__imp__GetCurrentProcess@0:PROC
EXTRN	__imp__GetCurrentProcessId@0:PROC
EXTRN	__imp__GetCurrentThreadId@0:PROC
EXTRN	__imp__GetProcAddress@8:PROC
EXTRN	__imp__LoadLibraryA@4:PROC
EXTRN	__localtime64:PROC
EXTRN	__time64:PROC
EXTRN	??0_Lockit@std@@QAE@H@Z:PROC			; std::_Lockit::_Lockit
EXTRN	??1_Lockit@std@@QAE@XZ:PROC			; std::_Lockit::~_Lockit
EXTRN	_free:PROC
EXTRN	?uncaught_exception@std@@YA_NXZ:PROC		; std::uncaught_exception
EXTRN	___std_exception_copy:PROC
EXTRN	___std_exception_destroy:PROC
EXTRN	??_Eexception@std@@UAEPAXI@Z:PROC		; std::exception::`vector deleting destructor'
EXTRN	??_Ebad_alloc@std@@UAEPAXI@Z:PROC		; std::bad_alloc::`vector deleting destructor'
EXTRN	??_Ebad_array_new_length@std@@UAEPAXI@Z:PROC	; std::bad_array_new_length::`vector deleting destructor'
EXTRN	?_Xlength_error@std@@YAXPBD@Z:PROC		; std::_Xlength_error
EXTRN	?_Xout_of_range@std@@YAXPBD@Z:PROC		; std::_Xout_of_range
EXTRN	?_Xruntime_error@std@@YAXPBD@Z:PROC		; std::_Xruntime_error
EXTRN	??_Eruntime_error@std@@UAEPAXI@Z:PROC		; std::runtime_error::`vector deleting destructor'
EXTRN	??_E_System_error@std@@UAEPAXI@Z:PROC		; std::_System_error::`vector deleting destructor'
EXTRN	??_Esystem_error@std@@UAEPAXI@Z:PROC		; std::system_error::`vector deleting destructor'
EXTRN	?_Syserror_map@std@@YAPBDH@Z:PROC		; std::_Syserror_map
EXTRN	??_E_Iostream_error_category2@std@@UAEPAXI@Z:PROC ; std::_Iostream_error_category2::`vector deleting destructor'
EXTRN	??_Ebad_cast@std@@UAEPAXI@Z:PROC		; std::bad_cast::`vector deleting destructor'
EXTRN	??_E_Facet_base@std@@UAEPAXI@Z:PROC		; std::_Facet_base::`vector deleting destructor'
EXTRN	?_Facet_Register@std@@YAXPAV_Facet_base@1@@Z:PROC ; std::_Facet_Register
EXTRN	__Gettnames:PROC
EXTRN	__Strftime:PROC
EXTRN	__Getctype:PROC
EXTRN	__Tolower:PROC
EXTRN	__Toupper:PROC
EXTRN	?_Locinfo_ctor@_Locinfo@std@@SAXPAV12@PBD@Z:PROC ; std::_Locinfo::_Locinfo_ctor
EXTRN	?_Locinfo_dtor@_Locinfo@std@@SAXPAV12@@Z:PROC	; std::_Locinfo::_Locinfo_dtor
EXTRN	??_Efacet@locale@std@@MAEPAXI@Z:PROC		; std::locale::facet::`vector deleting destructor'
EXTRN	?_Init@locale@std@@CAPAV_Locimp@12@_N@Z:PROC	; std::locale::_Init
EXTRN	?_Getgloballocale@locale@std@@CAPAV_Locimp@12@XZ:PROC ; std::locale::_Getgloballocale
EXTRN	??_Ectype_base@std@@UAEPAXI@Z:PROC		; std::ctype_base::`vector deleting destructor'
EXTRN	??_E?$ctype@D@std@@MAEPAXI@Z:PROC		; std::ctype<char>::`vector deleting destructor'
EXTRN	??_Efailure@ios_base@std@@UAEPAXI@Z:PROC	; std::ios_base::failure::`vector deleting destructor'
EXTRN	?_Addstd@ios_base@std@@SAXPAV12@@Z:PROC		; std::ios_base::_Addstd
EXTRN	?_Ios_base_dtor@ios_base@std@@CAXPAV12@@Z:PROC	; std::ios_base::_Ios_base_dtor
EXTRN	??_Eios_base@std@@UAEPAXI@Z:PROC		; std::ios_base::`vector deleting destructor'
EXTRN	??_E?$basic_ios@DU?$char_traits@D@std@@@std@@UAEPAXI@Z:PROC ; std::basic_ios<char,std::char_traits<char> >::`vector deleting destructor'
EXTRN	??_E?$basic_ostream@DU?$char_traits@D@std@@@std@@UAEPAXI@Z:PROC ; std::basic_ostream<char,std::char_traits<char> >::`vector deleting destructor'
EXTRN	??_E?$basic_streambuf@DU?$char_traits@D@std@@@std@@UAEPAXI@Z:PROC ; std::basic_streambuf<char,std::char_traits<char> >::`vector deleting destructor'
EXTRN	??_E?$basic_stringbuf@DU?$char_traits@D@std@@V?$allocator@D@2@@std@@UAEPAXI@Z:PROC ; std::basic_stringbuf<char,std::char_traits<char>,std::allocator<char> >::`vector deleting destructor'
EXTRN	??_E?$basic_ostringstream@DU?$char_traits@D@std@@V?$allocator@D@2@@std@@UAEPAXI@Z:PROC ; std::basic_ostringstream<char,std::char_traits<char>,std::allocator<char> >::`vector deleting destructor'
EXTRN	??_E?$time_put@DV?$ostreambuf_iterator@DU?$char_traits@D@std@@@std@@@std@@MAEPAXI@Z:PROC ; std::time_put<char,std::ostreambuf_iterator<char,std::char_traits<char> > >::`vector deleting destructor'
EXTRN	@__security_check_cookie@4:PROC
EXTRN	__CxxThrowException@8:PROC
EXTRN	___CxxFrameHandler3:PROC
EXTRN	_memcpy:PROC
EXTRN	_memmove:PROC
EXTRN	_memset:PROC
EXTRN	??_7type_info@@6B@:QWORD			; type_info::`vftable'
EXTRN	?_Id_cnt@id@locale@std@@0HA:DWORD		; std::locale::id::_Id_cnt
EXTRN	?id@?$ctype@D@std@@2V0locale@2@A:DWORD		; std::ctype<char>::id
EXTRN	___security_cookie:DWORD
;	COMDAT ?_Storage@?1???$_Immortalize_memcpy_image@V_Iostream_error_category2@std@@@std@@YAABV_Iostream_error_category2@1@XZ@4PAU?$atomic@I@1@A
_BSS	SEGMENT
?_Storage@?1???$_Immortalize_memcpy_image@V_Iostream_error_category2@std@@@std@@YAABV_Iostream_error_category2@1@XZ@4PAU?$atomic@I@1@A DD 02H DUP (?) ; `std::_Immortalize_memcpy_image<std::_Iostream_error_category2>'::`2'::_Storage
_BSS	ENDS
;	COMDAT ?_Psave@?$_Facetptr@V?$ctype@D@std@@@std@@2PBVfacet@locale@2@B
_BSS	SEGMENT
?_Psave@?$_Facetptr@V?$ctype@D@std@@@std@@2PBVfacet@locale@2@B DD 01H DUP (?) ; std::_Facetptr<std::ctype<char> >::_Psave
_BSS	ENDS
;	COMDAT ?id@?$time_put@DV?$ostreambuf_iterator@DU?$char_traits@D@std@@@std@@@std@@2V0locale@2@A
_BSS	SEGMENT
?id@?$time_put@DV?$ostreambuf_iterator@DU?$char_traits@D@std@@@std@@@std@@2V0locale@2@A DD 01H DUP (?) ; std::time_put<char,std::ostreambuf_iterator<char,std::char_traits<char> > >::id
_BSS	ENDS
;	COMDAT ?_Psave@?$_Facetptr@V?$time_put@DV?$ostreambuf_iterator@DU?$char_traits@D@std@@@std@@@std@@@std@@2PBVfacet@locale@2@B
_BSS	SEGMENT
?_Psave@?$_Facetptr@V?$time_put@DV?$ostreambuf_iterator@DU?$char_traits@D@std@@@std@@@std@@@std@@2PBVfacet@locale@2@B DD 01H DUP (?) ; std::_Facetptr<std::time_put<char,std::ostreambuf_iterator<char,std::char_traits<char> > > >::_Psave
_BSS	ENDS
;	COMDAT ??_R1A@?0A@EA@?$time_put@DV?$ostreambuf_iterator@DU?$char_traits@D@std@@@std@@@std@@8
rdata$r	SEGMENT
??_R1A@?0A@EA@?$time_put@DV?$ostreambuf_iterator@DU?$char_traits@D@std@@@std@@@std@@8 DD FLAT:??_R0?AV?$time_put@DV?$ostreambuf_iterator@DU?$char_traits@D@std@@@std@@@std@@@8 ; std::time_put<char,std::ostreambuf_iterator<char,std::char_traits<char> > >::`RTTI Base Class Descriptor at (0,-1,0,64)'
	DD	03H
	DD	00H
	DD	0ffffffffH
	DD	00H
	DD	040H
	DD	FLAT:??_R3?$time_put@DV?$ostreambuf_iterator@DU?$char_traits@D@std@@@std@@@std@@8
rdata$r	ENDS
;	COMDAT ??_R2?$time_put@DV?$ostreambuf_iterator@DU?$char_traits@D@std@@@std@@@std@@8
rdata$r	SEGMENT
??_R2?$time_put@DV?$ostreambuf_iterator@DU?$char_traits@D@std@@@std@@@std@@8 DD FLAT:??_R1A@?0A@EA@?$time_put@DV?$ostreambuf_iterator@DU?$char_traits@D@std@@@std@@@std@@8 ; std::time_put<char,std::ostreambuf_iterator<char,std::char_traits<char> > >::`RTTI Base Class Array'
	DD	FLAT:??_R1A@?0A@EA@facet@locale@std@@8
	DD	FLAT:??_R1A@?0A@EA@_Facet_base@std@@8
	DD	FLAT:??_R13?0A@EA@_Crt_new_delete@std@@8
rdata$r	ENDS
;	COMDAT ??_R3?$time_put@DV?$ostreambuf_iterator@DU?$char_traits@D@std@@@std@@@std@@8
rdata$r	SEGMENT
??_R3?$time_put@DV?$ostreambuf_iterator@DU?$char_traits@D@std@@@std@@@std@@8 DD 00H ; std::time_put<char,std::ostreambuf_iterator<char,std::char_traits<char> > >::`RTTI Class Hierarchy Descriptor'
	DD	01H
	DD	04H
	DD	FLAT:??_R2?$time_put@DV?$ostreambuf_iterator@DU?$char_traits@D@std@@@std@@@std@@8
rdata$r	ENDS
;	COMDAT ??_R0?AV?$time_put@DV?$ostreambuf_iterator@DU?$char_traits@D@std@@@std@@@std@@@8
data$r	SEGMENT
??_R0?AV?$time_put@DV?$ostreambuf_iterator@DU?$char_traits@D@std@@@std@@@std@@@8 DD FLAT:??_7type_info@@6B@ ; std::time_put<char,std::ostreambuf_iterator<char,std::char_traits<char> > > `RTTI Type Descriptor'
	DD	00H
	DB	'.?AV?$time_put@DV?$ostreambuf_iterator@DU?$char_traits@D'
	DB	'@std@@@std@@@std@@', 00H
data$r	ENDS
;	COMDAT ??_R4?$time_put@DV?$ostreambuf_iterator@DU?$char_traits@D@std@@@std@@@std@@6B@
rdata$r	SEGMENT
??_R4?$time_put@DV?$ostreambuf_iterator@DU?$char_traits@D@std@@@std@@@std@@6B@ DD 00H ; std::time_put<char,std::ostreambuf_iterator<char,std::char_traits<char> > >::`RTTI Complete Object Locator'
	DD	00H
	DD	00H
	DD	FLAT:??_R0?AV?$time_put@DV?$ostreambuf_iterator@DU?$char_traits@D@std@@@std@@@std@@@8
	DD	FLAT:??_R3?$time_put@DV?$ostreambuf_iterator@DU?$char_traits@D@std@@@std@@@std@@8
rdata$r	ENDS
;	COMDAT ??_R1A@?0A@EA@failure@ios_base@std@@8
rdata$r	SEGMENT
??_R1A@?0A@EA@failure@ios_base@std@@8 DD FLAT:??_R0?AVfailure@ios_base@std@@@8 ; std::ios_base::failure::`RTTI Base Class Descriptor at (0,-1,0,64)'
	DD	04H
	DD	00H
	DD	0ffffffffH
	DD	00H
	DD	040H
	DD	FLAT:??_R3failure@ios_base@std@@8
rdata$r	ENDS
;	COMDAT ??_R2failure@ios_base@std@@8
rdata$r	SEGMENT
??_R2failure@ios_base@std@@8 DD FLAT:??_R1A@?0A@EA@failure@ios_base@std@@8 ; std::ios_base::failure::`RTTI Base Class Array'
	DD	FLAT:??_R1A@?0A@EA@system_error@std@@8
	DD	FLAT:??_R1A@?0A@EA@_System_error@std@@8
	DD	FLAT:??_R1A@?0A@EA@runtime_error@std@@8
	DD	FLAT:??_R1A@?0A@EA@exception@std@@8
rdata$r	ENDS
;	COMDAT ??_R3failure@ios_base@std@@8
rdata$r	SEGMENT
??_R3failure@ios_base@std@@8 DD 00H			; std::ios_base::failure::`RTTI Class Hierarchy Descriptor'
	DD	00H
	DD	05H
	DD	FLAT:??_R2failure@ios_base@std@@8
rdata$r	ENDS
;	COMDAT ??_R4failure@ios_base@std@@6B@
rdata$r	SEGMENT
??_R4failure@ios_base@std@@6B@ DD 00H			; std::ios_base::failure::`RTTI Complete Object Locator'
	DD	00H
	DD	00H
	DD	FLAT:??_R0?AVfailure@ios_base@std@@@8
	DD	FLAT:??_R3failure@ios_base@std@@8
rdata$r	ENDS
;	COMDAT ??_R1A@?0A@EA@?$ctype@D@std@@8
rdata$r	SEGMENT
??_R1A@?0A@EA@?$ctype@D@std@@8 DD FLAT:??_R0?AV?$ctype@D@std@@@8 ; std::ctype<char>::`RTTI Base Class Descriptor at (0,-1,0,64)'
	DD	04H
	DD	00H
	DD	0ffffffffH
	DD	00H
	DD	040H
	DD	FLAT:??_R3?$ctype@D@std@@8
rdata$r	ENDS
;	COMDAT ??_R2?$ctype@D@std@@8
rdata$r	SEGMENT
??_R2?$ctype@D@std@@8 DD FLAT:??_R1A@?0A@EA@?$ctype@D@std@@8 ; std::ctype<char>::`RTTI Base Class Array'
	DD	FLAT:??_R1A@?0A@EA@ctype_base@std@@8
	DD	FLAT:??_R1A@?0A@EA@facet@locale@std@@8
	DD	FLAT:??_R1A@?0A@EA@_Facet_base@std@@8
	DD	FLAT:??_R13?0A@EA@_Crt_new_delete@std@@8
rdata$r	ENDS
;	COMDAT ??_R3?$ctype@D@std@@8
rdata$r	SEGMENT
??_R3?$ctype@D@std@@8 DD 00H				; std::ctype<char>::`RTTI Class Hierarchy Descriptor'
	DD	01H
	DD	05H
	DD	FLAT:??_R2?$ctype@D@std@@8
rdata$r	ENDS
;	COMDAT ??_R0?AV?$ctype@D@std@@@8
data$r	SEGMENT
??_R0?AV?$ctype@D@std@@@8 DD FLAT:??_7type_info@@6B@	; std::ctype<char> `RTTI Type Descriptor'
	DD	00H
	DB	'.?AV?$ctype@D@std@@', 00H
data$r	ENDS
;	COMDAT ??_R4?$ctype@D@std@@6B@
rdata$r	SEGMENT
??_R4?$ctype@D@std@@6B@ DD 00H				; std::ctype<char>::`RTTI Complete Object Locator'
	DD	00H
	DD	00H
	DD	FLAT:??_R0?AV?$ctype@D@std@@@8
	DD	FLAT:??_R3?$ctype@D@std@@8
rdata$r	ENDS
;	COMDAT ??_R1A@?0A@EA@ctype_base@std@@8
rdata$r	SEGMENT
??_R1A@?0A@EA@ctype_base@std@@8 DD FLAT:??_R0?AUctype_base@std@@@8 ; std::ctype_base::`RTTI Base Class Descriptor at (0,-1,0,64)'
	DD	03H
	DD	00H
	DD	0ffffffffH
	DD	00H
	DD	040H
	DD	FLAT:??_R3ctype_base@std@@8
rdata$r	ENDS
;	COMDAT ??_R2ctype_base@std@@8
rdata$r	SEGMENT
??_R2ctype_base@std@@8 DD FLAT:??_R1A@?0A@EA@ctype_base@std@@8 ; std::ctype_base::`RTTI Base Class Array'
	DD	FLAT:??_R1A@?0A@EA@facet@locale@std@@8
	DD	FLAT:??_R1A@?0A@EA@_Facet_base@std@@8
	DD	FLAT:??_R13?0A@EA@_Crt_new_delete@std@@8
rdata$r	ENDS
;	COMDAT ??_R3ctype_base@std@@8
rdata$r	SEGMENT
??_R3ctype_base@std@@8 DD 00H				; std::ctype_base::`RTTI Class Hierarchy Descriptor'
	DD	01H
	DD	04H
	DD	FLAT:??_R2ctype_base@std@@8
rdata$r	ENDS
;	COMDAT ??_R0?AUctype_base@std@@@8
data$r	SEGMENT
??_R0?AUctype_base@std@@@8 DD FLAT:??_7type_info@@6B@	; std::ctype_base `RTTI Type Descriptor'
	DD	00H
	DB	'.?AUctype_base@std@@', 00H
data$r	ENDS
;	COMDAT ??_R4ctype_base@std@@6B@
rdata$r	SEGMENT
??_R4ctype_base@std@@6B@ DD 00H				; std::ctype_base::`RTTI Complete Object Locator'
	DD	00H
	DD	00H
	DD	FLAT:??_R0?AUctype_base@std@@@8
	DD	FLAT:??_R3ctype_base@std@@8
rdata$r	ENDS
;	COMDAT ??_R4facet@locale@std@@6B@
rdata$r	SEGMENT
??_R4facet@locale@std@@6B@ DD 00H			; std::locale::facet::`RTTI Complete Object Locator'
	DD	00H
	DD	00H
	DD	FLAT:??_R0?AVfacet@locale@std@@@8
	DD	FLAT:??_R3facet@locale@std@@8
rdata$r	ENDS
;	COMDAT ??_R1A@?0A@EA@_Crt_new_delete@std@@8
rdata$r	SEGMENT
??_R1A@?0A@EA@_Crt_new_delete@std@@8 DD FLAT:??_R0?AU_Crt_new_delete@std@@@8 ; std::_Crt_new_delete::`RTTI Base Class Descriptor at (0,-1,0,64)'
	DD	00H
	DD	00H
	DD	0ffffffffH
	DD	00H
	DD	040H
	DD	FLAT:??_R3_Crt_new_delete@std@@8
rdata$r	ENDS
;	COMDAT ??_R2_Crt_new_delete@std@@8
rdata$r	SEGMENT
??_R2_Crt_new_delete@std@@8 DD FLAT:??_R1A@?0A@EA@_Crt_new_delete@std@@8 ; std::_Crt_new_delete::`RTTI Base Class Array'
rdata$r	ENDS
;	COMDAT ??_R3_Crt_new_delete@std@@8
rdata$r	SEGMENT
??_R3_Crt_new_delete@std@@8 DD 00H			; std::_Crt_new_delete::`RTTI Class Hierarchy Descriptor'
	DD	00H
	DD	01H
	DD	FLAT:??_R2_Crt_new_delete@std@@8
rdata$r	ENDS
;	COMDAT ??_R0?AU_Crt_new_delete@std@@@8
data$r	SEGMENT
??_R0?AU_Crt_new_delete@std@@@8 DD FLAT:??_7type_info@@6B@ ; std::_Crt_new_delete `RTTI Type Descriptor'
	DD	00H
	DB	'.?AU_Crt_new_delete@std@@', 00H
data$r	ENDS
;	COMDAT ??_R13?0A@EA@_Crt_new_delete@std@@8
rdata$r	SEGMENT
??_R13?0A@EA@_Crt_new_delete@std@@8 DD FLAT:??_R0?AU_Crt_new_delete@std@@@8 ; std::_Crt_new_delete::`RTTI Base Class Descriptor at (4,-1,0,64)'
	DD	00H
	DD	04H
	DD	0ffffffffH
	DD	00H
	DD	040H
	DD	FLAT:??_R3_Crt_new_delete@std@@8
rdata$r	ENDS
;	COMDAT ??_R2facet@locale@std@@8
rdata$r	SEGMENT
??_R2facet@locale@std@@8 DD FLAT:??_R1A@?0A@EA@facet@locale@std@@8 ; std::locale::facet::`RTTI Base Class Array'
	DD	FLAT:??_R1A@?0A@EA@_Facet_base@std@@8
	DD	FLAT:??_R13?0A@EA@_Crt_new_delete@std@@8
rdata$r	ENDS
;	COMDAT ??_R3facet@locale@std@@8
rdata$r	SEGMENT
??_R3facet@locale@std@@8 DD 00H				; std::locale::facet::`RTTI Class Hierarchy Descriptor'
	DD	01H
	DD	03H
	DD	FLAT:??_R2facet@locale@std@@8
rdata$r	ENDS
;	COMDAT ??_R0?AVfacet@locale@std@@@8
data$r	SEGMENT
??_R0?AVfacet@locale@std@@@8 DD FLAT:??_7type_info@@6B@	; std::locale::facet `RTTI Type Descriptor'
	DD	00H
	DB	'.?AVfacet@locale@std@@', 00H
data$r	ENDS
;	COMDAT ??_R1A@?0A@EA@facet@locale@std@@8
rdata$r	SEGMENT
??_R1A@?0A@EA@facet@locale@std@@8 DD FLAT:??_R0?AVfacet@locale@std@@@8 ; std::locale::facet::`RTTI Base Class Descriptor at (0,-1,0,64)'
	DD	02H
	DD	00H
	DD	0ffffffffH
	DD	00H
	DD	040H
	DD	FLAT:??_R3facet@locale@std@@8
rdata$r	ENDS
;	COMDAT ??_R1A@?0A@EA@_Facet_base@std@@8
rdata$r	SEGMENT
??_R1A@?0A@EA@_Facet_base@std@@8 DD FLAT:??_R0?AV_Facet_base@std@@@8 ; std::_Facet_base::`RTTI Base Class Descriptor at (0,-1,0,64)'
	DD	00H
	DD	00H
	DD	0ffffffffH
	DD	00H
	DD	040H
	DD	FLAT:??_R3_Facet_base@std@@8
rdata$r	ENDS
;	COMDAT ??_R2_Facet_base@std@@8
rdata$r	SEGMENT
??_R2_Facet_base@std@@8 DD FLAT:??_R1A@?0A@EA@_Facet_base@std@@8 ; std::_Facet_base::`RTTI Base Class Array'
rdata$r	ENDS
;	COMDAT ??_R3_Facet_base@std@@8
rdata$r	SEGMENT
??_R3_Facet_base@std@@8 DD 00H				; std::_Facet_base::`RTTI Class Hierarchy Descriptor'
	DD	00H
	DD	01H
	DD	FLAT:??_R2_Facet_base@std@@8
rdata$r	ENDS
;	COMDAT ??_R0?AV_Facet_base@std@@@8
data$r	SEGMENT
??_R0?AV_Facet_base@std@@@8 DD FLAT:??_7type_info@@6B@	; std::_Facet_base `RTTI Type Descriptor'
	DD	00H
	DB	'.?AV_Facet_base@std@@', 00H
data$r	ENDS
;	COMDAT ??_R4_Facet_base@std@@6B@
rdata$r	SEGMENT
??_R4_Facet_base@std@@6B@ DD 00H			; std::_Facet_base::`RTTI Complete Object Locator'
	DD	00H
	DD	00H
	DD	FLAT:??_R0?AV_Facet_base@std@@@8
	DD	FLAT:??_R3_Facet_base@std@@8
rdata$r	ENDS
;	COMDAT ??_R1A@?0A@EA@bad_cast@std@@8
rdata$r	SEGMENT
??_R1A@?0A@EA@bad_cast@std@@8 DD FLAT:??_R0?AVbad_cast@std@@@8 ; std::bad_cast::`RTTI Base Class Descriptor at (0,-1,0,64)'
	DD	01H
	DD	00H
	DD	0ffffffffH
	DD	00H
	DD	040H
	DD	FLAT:??_R3bad_cast@std@@8
rdata$r	ENDS
;	COMDAT ??_R2bad_cast@std@@8
rdata$r	SEGMENT
??_R2bad_cast@std@@8 DD FLAT:??_R1A@?0A@EA@bad_cast@std@@8 ; std::bad_cast::`RTTI Base Class Array'
	DD	FLAT:??_R1A@?0A@EA@exception@std@@8
rdata$r	ENDS
;	COMDAT ??_R3bad_cast@std@@8
rdata$r	SEGMENT
??_R3bad_cast@std@@8 DD 00H				; std::bad_cast::`RTTI Class Hierarchy Descriptor'
	DD	00H
	DD	02H
	DD	FLAT:??_R2bad_cast@std@@8
rdata$r	ENDS
;	COMDAT ??_R4bad_cast@std@@6B@
rdata$r	SEGMENT
??_R4bad_cast@std@@6B@ DD 00H				; std::bad_cast::`RTTI Complete Object Locator'
	DD	00H
	DD	00H
	DD	FLAT:??_R0?AVbad_cast@std@@@8
	DD	FLAT:??_R3bad_cast@std@@8
rdata$r	ENDS
;	COMDAT ??_R1A@?0A@EA@_Iostream_error_category2@std@@8
rdata$r	SEGMENT
??_R1A@?0A@EA@_Iostream_error_category2@std@@8 DD FLAT:??_R0?AV_Iostream_error_category2@std@@@8 ; std::_Iostream_error_category2::`RTTI Base Class Descriptor at (0,-1,0,64)'
	DD	01H
	DD	00H
	DD	0ffffffffH
	DD	00H
	DD	040H
	DD	FLAT:??_R3_Iostream_error_category2@std@@8
rdata$r	ENDS
;	COMDAT ??_R2_Iostream_error_category2@std@@8
rdata$r	SEGMENT
??_R2_Iostream_error_category2@std@@8 DD FLAT:??_R1A@?0A@EA@_Iostream_error_category2@std@@8 ; std::_Iostream_error_category2::`RTTI Base Class Array'
	DD	FLAT:??_R1A@?0A@EA@error_category@std@@8
rdata$r	ENDS
;	COMDAT ??_R3_Iostream_error_category2@std@@8
rdata$r	SEGMENT
??_R3_Iostream_error_category2@std@@8 DD 00H		; std::_Iostream_error_category2::`RTTI Class Hierarchy Descriptor'
	DD	00H
	DD	02H
	DD	FLAT:??_R2_Iostream_error_category2@std@@8
rdata$r	ENDS
;	COMDAT ??_R0?AV_Iostream_error_category2@std@@@8
data$r	SEGMENT
??_R0?AV_Iostream_error_category2@std@@@8 DD FLAT:??_7type_info@@6B@ ; std::_Iostream_error_category2 `RTTI Type Descriptor'
	DD	00H
	DB	'.?AV_Iostream_error_category2@std@@', 00H
data$r	ENDS
;	COMDAT ??_R4_Iostream_error_category2@std@@6B@
rdata$r	SEGMENT
??_R4_Iostream_error_category2@std@@6B@ DD 00H		; std::_Iostream_error_category2::`RTTI Complete Object Locator'
	DD	00H
	DD	00H
	DD	FLAT:??_R0?AV_Iostream_error_category2@std@@@8
	DD	FLAT:??_R3_Iostream_error_category2@std@@8
rdata$r	ENDS
;	COMDAT ??_R1A@?0A@EA@system_error@std@@8
rdata$r	SEGMENT
??_R1A@?0A@EA@system_error@std@@8 DD FLAT:??_R0?AVsystem_error@std@@@8 ; std::system_error::`RTTI Base Class Descriptor at (0,-1,0,64)'
	DD	03H
	DD	00H
	DD	0ffffffffH
	DD	00H
	DD	040H
	DD	FLAT:??_R3system_error@std@@8
rdata$r	ENDS
;	COMDAT ??_R2system_error@std@@8
rdata$r	SEGMENT
??_R2system_error@std@@8 DD FLAT:??_R1A@?0A@EA@system_error@std@@8 ; std::system_error::`RTTI Base Class Array'
	DD	FLAT:??_R1A@?0A@EA@_System_error@std@@8
	DD	FLAT:??_R1A@?0A@EA@runtime_error@std@@8
	DD	FLAT:??_R1A@?0A@EA@exception@std@@8
rdata$r	ENDS
;	COMDAT ??_R3system_error@std@@8
rdata$r	SEGMENT
??_R3system_error@std@@8 DD 00H				; std::system_error::`RTTI Class Hierarchy Descriptor'
	DD	00H
	DD	04H
	DD	FLAT:??_R2system_error@std@@8
rdata$r	ENDS
;	COMDAT ??_R4system_error@std@@6B@
rdata$r	SEGMENT
??_R4system_error@std@@6B@ DD 00H			; std::system_error::`RTTI Complete Object Locator'
	DD	00H
	DD	00H
	DD	FLAT:??_R0?AVsystem_error@std@@@8
	DD	FLAT:??_R3system_error@std@@8
rdata$r	ENDS
;	COMDAT ??_R1A@?0A@EA@_System_error@std@@8
rdata$r	SEGMENT
??_R1A@?0A@EA@_System_error@std@@8 DD FLAT:??_R0?AV_System_error@std@@@8 ; std::_System_error::`RTTI Base Class Descriptor at (0,-1,0,64)'
	DD	02H
	DD	00H
	DD	0ffffffffH
	DD	00H
	DD	040H
	DD	FLAT:??_R3_System_error@std@@8
rdata$r	ENDS
;	COMDAT ??_R2_System_error@std@@8
rdata$r	SEGMENT
??_R2_System_error@std@@8 DD FLAT:??_R1A@?0A@EA@_System_error@std@@8 ; std::_System_error::`RTTI Base Class Array'
	DD	FLAT:??_R1A@?0A@EA@runtime_error@std@@8
	DD	FLAT:??_R1A@?0A@EA@exception@std@@8
rdata$r	ENDS
;	COMDAT ??_R3_System_error@std@@8
rdata$r	SEGMENT
??_R3_System_error@std@@8 DD 00H			; std::_System_error::`RTTI Class Hierarchy Descriptor'
	DD	00H
	DD	03H
	DD	FLAT:??_R2_System_error@std@@8
rdata$r	ENDS
;	COMDAT ??_R4_System_error@std@@6B@
rdata$r	SEGMENT
??_R4_System_error@std@@6B@ DD 00H			; std::_System_error::`RTTI Complete Object Locator'
	DD	00H
	DD	00H
	DD	FLAT:??_R0?AV_System_error@std@@@8
	DD	FLAT:??_R3_System_error@std@@8
rdata$r	ENDS
;	COMDAT ??_R1A@?0A@EA@error_category@std@@8
rdata$r	SEGMENT
??_R1A@?0A@EA@error_category@std@@8 DD FLAT:??_R0?AVerror_category@std@@@8 ; std::error_category::`RTTI Base Class Descriptor at (0,-1,0,64)'
	DD	00H
	DD	00H
	DD	0ffffffffH
	DD	00H
	DD	040H
	DD	FLAT:??_R3error_category@std@@8
rdata$r	ENDS
;	COMDAT ??_R2error_category@std@@8
rdata$r	SEGMENT
??_R2error_category@std@@8 DD FLAT:??_R1A@?0A@EA@error_category@std@@8 ; std::error_category::`RTTI Base Class Array'
rdata$r	ENDS
;	COMDAT ??_R3error_category@std@@8
rdata$r	SEGMENT
??_R3error_category@std@@8 DD 00H			; std::error_category::`RTTI Class Hierarchy Descriptor'
	DD	00H
	DD	01H
	DD	FLAT:??_R2error_category@std@@8
rdata$r	ENDS
;	COMDAT ??_R0?AVerror_category@std@@@8
data$r	SEGMENT
??_R0?AVerror_category@std@@@8 DD FLAT:??_7type_info@@6B@ ; std::error_category `RTTI Type Descriptor'
	DD	00H
	DB	'.?AVerror_category@std@@', 00H
data$r	ENDS
;	COMDAT ??_R1A@?0A@EA@runtime_error@std@@8
rdata$r	SEGMENT
??_R1A@?0A@EA@runtime_error@std@@8 DD FLAT:??_R0?AVruntime_error@std@@@8 ; std::runtime_error::`RTTI Base Class Descriptor at (0,-1,0,64)'
	DD	01H
	DD	00H
	DD	0ffffffffH
	DD	00H
	DD	040H
	DD	FLAT:??_R3runtime_error@std@@8
rdata$r	ENDS
;	COMDAT ??_R2runtime_error@std@@8
rdata$r	SEGMENT
??_R2runtime_error@std@@8 DD FLAT:??_R1A@?0A@EA@runtime_error@std@@8 ; std::runtime_error::`RTTI Base Class Array'
	DD	FLAT:??_R1A@?0A@EA@exception@std@@8
rdata$r	ENDS
;	COMDAT ??_R3runtime_error@std@@8
rdata$r	SEGMENT
??_R3runtime_error@std@@8 DD 00H			; std::runtime_error::`RTTI Class Hierarchy Descriptor'
	DD	00H
	DD	02H
	DD	FLAT:??_R2runtime_error@std@@8
rdata$r	ENDS
;	COMDAT ??_R4runtime_error@std@@6B@
rdata$r	SEGMENT
??_R4runtime_error@std@@6B@ DD 00H			; std::runtime_error::`RTTI Complete Object Locator'
	DD	00H
	DD	00H
	DD	FLAT:??_R0?AVruntime_error@std@@@8
	DD	FLAT:??_R3runtime_error@std@@8
rdata$r	ENDS
;	COMDAT ??_R1A@?0A@EA@?$basic_ostringstream@DU?$char_traits@D@std@@V?$allocator@D@2@@std@@8
rdata$r	SEGMENT
??_R1A@?0A@EA@?$basic_ostringstream@DU?$char_traits@D@std@@V?$allocator@D@2@@std@@8 DD FLAT:??_R0?AV?$basic_ostringstream@DU?$char_traits@D@std@@V?$allocator@D@2@@std@@@8 ; std::basic_ostringstream<char,std::char_traits<char>,std::allocator<char> >::`RTTI Base Class Descriptor at (0,-1,0,64)'
	DD	04H
	DD	00H
	DD	0ffffffffH
	DD	00H
	DD	040H
	DD	FLAT:??_R3?$basic_ostringstream@DU?$char_traits@D@std@@V?$allocator@D@2@@std@@8
rdata$r	ENDS
;	COMDAT ??_R2?$basic_ostringstream@DU?$char_traits@D@std@@V?$allocator@D@2@@std@@8
rdata$r	SEGMENT
??_R2?$basic_ostringstream@DU?$char_traits@D@std@@V?$allocator@D@2@@std@@8 DD FLAT:??_R1A@?0A@EA@?$basic_ostringstream@DU?$char_traits@D@std@@V?$allocator@D@2@@std@@8 ; std::basic_ostringstream<char,std::char_traits<char>,std::allocator<char> >::`RTTI Base Class Array'
	DD	FLAT:??_R1A@?0A@EA@?$basic_ostream@DU?$char_traits@D@std@@@std@@8
	DD	FLAT:??_R1A@A@3FA@?$basic_ios@DU?$char_traits@D@std@@@std@@8
	DD	FLAT:??_R1A@A@3EA@ios_base@std@@8
	DD	FLAT:??_R17A@3EA@?$_Iosb@H@std@@8
rdata$r	ENDS
;	COMDAT ??_R3?$basic_ostringstream@DU?$char_traits@D@std@@V?$allocator@D@2@@std@@8
rdata$r	SEGMENT
??_R3?$basic_ostringstream@DU?$char_traits@D@std@@V?$allocator@D@2@@std@@8 DD 00H ; std::basic_ostringstream<char,std::char_traits<char>,std::allocator<char> >::`RTTI Class Hierarchy Descriptor'
	DD	00H
	DD	05H
	DD	FLAT:??_R2?$basic_ostringstream@DU?$char_traits@D@std@@V?$allocator@D@2@@std@@8
rdata$r	ENDS
;	COMDAT ??_R0?AV?$basic_ostringstream@DU?$char_traits@D@std@@V?$allocator@D@2@@std@@@8
data$r	SEGMENT
??_R0?AV?$basic_ostringstream@DU?$char_traits@D@std@@V?$allocator@D@2@@std@@@8 DD FLAT:??_7type_info@@6B@ ; std::basic_ostringstream<char,std::char_traits<char>,std::allocator<char> > `RTTI Type Descriptor'
	DD	00H
	DB	'.?AV?$basic_ostringstream@DU?$char_traits@D@std@@V?$allo'
	DB	'cator@D@2@@std@@', 00H
data$r	ENDS
;	COMDAT ??_R4?$basic_ostringstream@DU?$char_traits@D@std@@V?$allocator@D@2@@std@@6B@
rdata$r	SEGMENT
??_R4?$basic_ostringstream@DU?$char_traits@D@std@@V?$allocator@D@2@@std@@6B@ DD 00H ; std::basic_ostringstream<char,std::char_traits<char>,std::allocator<char> >::`RTTI Complete Object Locator'
	DD	050H
	DD	04H
	DD	FLAT:??_R0?AV?$basic_ostringstream@DU?$char_traits@D@std@@V?$allocator@D@2@@std@@@8
	DD	FLAT:??_R3?$basic_ostringstream@DU?$char_traits@D@std@@V?$allocator@D@2@@std@@8
rdata$r	ENDS
;	COMDAT ??_R1A@?0A@EA@?$basic_stringbuf@DU?$char_traits@D@std@@V?$allocator@D@2@@std@@8
rdata$r	SEGMENT
??_R1A@?0A@EA@?$basic_stringbuf@DU?$char_traits@D@std@@V?$allocator@D@2@@std@@8 DD FLAT:??_R0?AV?$basic_stringbuf@DU?$char_traits@D@std@@V?$allocator@D@2@@std@@@8 ; std::basic_stringbuf<char,std::char_traits<char>,std::allocator<char> >::`RTTI Base Class Descriptor at (0,-1,0,64)'
	DD	01H
	DD	00H
	DD	0ffffffffH
	DD	00H
	DD	040H
	DD	FLAT:??_R3?$basic_stringbuf@DU?$char_traits@D@std@@V?$allocator@D@2@@std@@8
rdata$r	ENDS
;	COMDAT ??_R2?$basic_stringbuf@DU?$char_traits@D@std@@V?$allocator@D@2@@std@@8
rdata$r	SEGMENT
??_R2?$basic_stringbuf@DU?$char_traits@D@std@@V?$allocator@D@2@@std@@8 DD FLAT:??_R1A@?0A@EA@?$basic_stringbuf@DU?$char_traits@D@std@@V?$allocator@D@2@@std@@8 ; std::basic_stringbuf<char,std::char_traits<char>,std::allocator<char> >::`RTTI Base Class Array'
	DD	FLAT:??_R1A@?0A@EA@?$basic_streambuf@DU?$char_traits@D@std@@@std@@8
rdata$r	ENDS
;	COMDAT ??_R3?$basic_stringbuf@DU?$char_traits@D@std@@V?$allocator@D@2@@std@@8
rdata$r	SEGMENT
??_R3?$basic_stringbuf@DU?$char_traits@D@std@@V?$allocator@D@2@@std@@8 DD 00H ; std::basic_stringbuf<char,std::char_traits<char>,std::allocator<char> >::`RTTI Class Hierarchy Descriptor'
	DD	00H
	DD	02H
	DD	FLAT:??_R2?$basic_stringbuf@DU?$char_traits@D@std@@V?$allocator@D@2@@std@@8
rdata$r	ENDS
;	COMDAT ??_R0?AV?$basic_stringbuf@DU?$char_traits@D@std@@V?$allocator@D@2@@std@@@8
data$r	SEGMENT
??_R0?AV?$basic_stringbuf@DU?$char_traits@D@std@@V?$allocator@D@2@@std@@@8 DD FLAT:??_7type_info@@6B@ ; std::basic_stringbuf<char,std::char_traits<char>,std::allocator<char> > `RTTI Type Descriptor'
	DD	00H
	DB	'.?AV?$basic_stringbuf@DU?$char_traits@D@std@@V?$allocato'
	DB	'r@D@2@@std@@', 00H
data$r	ENDS
;	COMDAT ??_R4?$basic_stringbuf@DU?$char_traits@D@std@@V?$allocator@D@2@@std@@6B@
rdata$r	SEGMENT
??_R4?$basic_stringbuf@DU?$char_traits@D@std@@V?$allocator@D@2@@std@@6B@ DD 00H ; std::basic_stringbuf<char,std::char_traits<char>,std::allocator<char> >::`RTTI Complete Object Locator'
	DD	00H
	DD	00H
	DD	FLAT:??_R0?AV?$basic_stringbuf@DU?$char_traits@D@std@@V?$allocator@D@2@@std@@@8
	DD	FLAT:??_R3?$basic_stringbuf@DU?$char_traits@D@std@@V?$allocator@D@2@@std@@8
rdata$r	ENDS
;	COMDAT ??_R17A@3EA@?$_Iosb@H@std@@8
rdata$r	SEGMENT
??_R17A@3EA@?$_Iosb@H@std@@8 DD FLAT:??_R0?AV?$_Iosb@H@std@@@8 ; std::_Iosb<int>::`RTTI Base Class Descriptor at (8,0,4,64)'
	DD	00H
	DD	08H
	DD	00H
	DD	04H
	DD	040H
	DD	FLAT:??_R3?$_Iosb@H@std@@8
rdata$r	ENDS
;	COMDAT ??_R1A@A@3EA@ios_base@std@@8
rdata$r	SEGMENT
??_R1A@A@3EA@ios_base@std@@8 DD FLAT:??_R0?AVios_base@std@@@8 ; std::ios_base::`RTTI Base Class Descriptor at (0,0,4,64)'
	DD	01H
	DD	00H
	DD	00H
	DD	04H
	DD	040H
	DD	FLAT:??_R3ios_base@std@@8
rdata$r	ENDS
;	COMDAT ??_R1A@A@3FA@?$basic_ios@DU?$char_traits@D@std@@@std@@8
rdata$r	SEGMENT
??_R1A@A@3FA@?$basic_ios@DU?$char_traits@D@std@@@std@@8 DD FLAT:??_R0?AV?$basic_ios@DU?$char_traits@D@std@@@std@@@8 ; std::basic_ios<char,std::char_traits<char> >::`RTTI Base Class Descriptor at (0,0,4,80)'
	DD	02H
	DD	00H
	DD	00H
	DD	04H
	DD	050H
	DD	FLAT:??_R3?$basic_ios@DU?$char_traits@D@std@@@std@@8
rdata$r	ENDS
;	COMDAT ??_R1A@?0A@EA@?$basic_ostream@DU?$char_traits@D@std@@@std@@8
rdata$r	SEGMENT
??_R1A@?0A@EA@?$basic_ostream@DU?$char_traits@D@std@@@std@@8 DD FLAT:??_R0?AV?$basic_ostream@DU?$char_traits@D@std@@@std@@@8 ; std::basic_ostream<char,std::char_traits<char> >::`RTTI Base Class Descriptor at (0,-1,0,64)'
	DD	03H
	DD	00H
	DD	0ffffffffH
	DD	00H
	DD	040H
	DD	FLAT:??_R3?$basic_ostream@DU?$char_traits@D@std@@@std@@8
rdata$r	ENDS
;	COMDAT ??_R2?$basic_ostream@DU?$char_traits@D@std@@@std@@8
rdata$r	SEGMENT
??_R2?$basic_ostream@DU?$char_traits@D@std@@@std@@8 DD FLAT:??_R1A@?0A@EA@?$basic_ostream@DU?$char_traits@D@std@@@std@@8 ; std::basic_ostream<char,std::char_traits<char> >::`RTTI Base Class Array'
	DD	FLAT:??_R1A@A@3FA@?$basic_ios@DU?$char_traits@D@std@@@std@@8
	DD	FLAT:??_R1A@A@3EA@ios_base@std@@8
	DD	FLAT:??_R17A@3EA@?$_Iosb@H@std@@8
rdata$r	ENDS
;	COMDAT ??_R3?$basic_ostream@DU?$char_traits@D@std@@@std@@8
rdata$r	SEGMENT
??_R3?$basic_ostream@DU?$char_traits@D@std@@@std@@8 DD 00H ; std::basic_ostream<char,std::char_traits<char> >::`RTTI Class Hierarchy Descriptor'
	DD	00H
	DD	04H
	DD	FLAT:??_R2?$basic_ostream@DU?$char_traits@D@std@@@std@@8
rdata$r	ENDS
;	COMDAT ??_R0?AV?$basic_ostream@DU?$char_traits@D@std@@@std@@@8
data$r	SEGMENT
??_R0?AV?$basic_ostream@DU?$char_traits@D@std@@@std@@@8 DD FLAT:??_7type_info@@6B@ ; std::basic_ostream<char,std::char_traits<char> > `RTTI Type Descriptor'
	DD	00H
	DB	'.?AV?$basic_ostream@DU?$char_traits@D@std@@@std@@', 00H
data$r	ENDS
;	COMDAT ??_R4?$basic_ostream@DU?$char_traits@D@std@@@std@@6B@
rdata$r	SEGMENT
??_R4?$basic_ostream@DU?$char_traits@D@std@@@std@@6B@ DD 00H ; std::basic_ostream<char,std::char_traits<char> >::`RTTI Complete Object Locator'
	DD	08H
	DD	04H
	DD	FLAT:??_R0?AV?$basic_ostream@DU?$char_traits@D@std@@@std@@@8
	DD	FLAT:??_R3?$basic_ostream@DU?$char_traits@D@std@@@std@@8
rdata$r	ENDS
;	COMDAT ??_R1A@?0A@EA@?$basic_streambuf@DU?$char_traits@D@std@@@std@@8
rdata$r	SEGMENT
??_R1A@?0A@EA@?$basic_streambuf@DU?$char_traits@D@std@@@std@@8 DD FLAT:??_R0?AV?$basic_streambuf@DU?$char_traits@D@std@@@std@@@8 ; std::basic_streambuf<char,std::char_traits<char> >::`RTTI Base Class Descriptor at (0,-1,0,64)'
	DD	00H
	DD	00H
	DD	0ffffffffH
	DD	00H
	DD	040H
	DD	FLAT:??_R3?$basic_streambuf@DU?$char_traits@D@std@@@std@@8
rdata$r	ENDS
;	COMDAT ??_R2?$basic_streambuf@DU?$char_traits@D@std@@@std@@8
rdata$r	SEGMENT
??_R2?$basic_streambuf@DU?$char_traits@D@std@@@std@@8 DD FLAT:??_R1A@?0A@EA@?$basic_streambuf@DU?$char_traits@D@std@@@std@@8 ; std::basic_streambuf<char,std::char_traits<char> >::`RTTI Base Class Array'
rdata$r	ENDS
;	COMDAT ??_R3?$basic_streambuf@DU?$char_traits@D@std@@@std@@8
rdata$r	SEGMENT
??_R3?$basic_streambuf@DU?$char_traits@D@std@@@std@@8 DD 00H ; std::basic_streambuf<char,std::char_traits<char> >::`RTTI Class Hierarchy Descriptor'
	DD	00H
	DD	01H
	DD	FLAT:??_R2?$basic_streambuf@DU?$char_traits@D@std@@@std@@8
rdata$r	ENDS
;	COMDAT ??_R0?AV?$basic_streambuf@DU?$char_traits@D@std@@@std@@@8
data$r	SEGMENT
??_R0?AV?$basic_streambuf@DU?$char_traits@D@std@@@std@@@8 DD FLAT:??_7type_info@@6B@ ; std::basic_streambuf<char,std::char_traits<char> > `RTTI Type Descriptor'
	DD	00H
	DB	'.?AV?$basic_streambuf@DU?$char_traits@D@std@@@std@@', 00H
data$r	ENDS
;	COMDAT ??_R4?$basic_streambuf@DU?$char_traits@D@std@@@std@@6B@
rdata$r	SEGMENT
??_R4?$basic_streambuf@DU?$char_traits@D@std@@@std@@6B@ DD 00H ; std::basic_streambuf<char,std::char_traits<char> >::`RTTI Complete Object Locator'
	DD	00H
	DD	00H
	DD	FLAT:??_R0?AV?$basic_streambuf@DU?$char_traits@D@std@@@std@@@8
	DD	FLAT:??_R3?$basic_streambuf@DU?$char_traits@D@std@@@std@@8
rdata$r	ENDS
;	COMDAT ??_R1A@?0A@EA@?$basic_ios@DU?$char_traits@D@std@@@std@@8
rdata$r	SEGMENT
??_R1A@?0A@EA@?$basic_ios@DU?$char_traits@D@std@@@std@@8 DD FLAT:??_R0?AV?$basic_ios@DU?$char_traits@D@std@@@std@@@8 ; std::basic_ios<char,std::char_traits<char> >::`RTTI Base Class Descriptor at (0,-1,0,64)'
	DD	02H
	DD	00H
	DD	0ffffffffH
	DD	00H
	DD	040H
	DD	FLAT:??_R3?$basic_ios@DU?$char_traits@D@std@@@std@@8
rdata$r	ENDS
;	COMDAT ??_R2?$basic_ios@DU?$char_traits@D@std@@@std@@8
rdata$r	SEGMENT
??_R2?$basic_ios@DU?$char_traits@D@std@@@std@@8 DD FLAT:??_R1A@?0A@EA@?$basic_ios@DU?$char_traits@D@std@@@std@@8 ; std::basic_ios<char,std::char_traits<char> >::`RTTI Base Class Array'
	DD	FLAT:??_R1A@?0A@EA@ios_base@std@@8
	DD	FLAT:??_R17?0A@EA@?$_Iosb@H@std@@8
rdata$r	ENDS
;	COMDAT ??_R3?$basic_ios@DU?$char_traits@D@std@@@std@@8
rdata$r	SEGMENT
??_R3?$basic_ios@DU?$char_traits@D@std@@@std@@8 DD 00H	; std::basic_ios<char,std::char_traits<char> >::`RTTI Class Hierarchy Descriptor'
	DD	00H
	DD	03H
	DD	FLAT:??_R2?$basic_ios@DU?$char_traits@D@std@@@std@@8
rdata$r	ENDS
;	COMDAT ??_R0?AV?$basic_ios@DU?$char_traits@D@std@@@std@@@8
data$r	SEGMENT
??_R0?AV?$basic_ios@DU?$char_traits@D@std@@@std@@@8 DD FLAT:??_7type_info@@6B@ ; std::basic_ios<char,std::char_traits<char> > `RTTI Type Descriptor'
	DD	00H
	DB	'.?AV?$basic_ios@DU?$char_traits@D@std@@@std@@', 00H
data$r	ENDS
;	COMDAT ??_R4?$basic_ios@DU?$char_traits@D@std@@@std@@6B@
rdata$r	SEGMENT
??_R4?$basic_ios@DU?$char_traits@D@std@@@std@@6B@ DD 00H ; std::basic_ios<char,std::char_traits<char> >::`RTTI Complete Object Locator'
	DD	00H
	DD	00H
	DD	FLAT:??_R0?AV?$basic_ios@DU?$char_traits@D@std@@@std@@@8
	DD	FLAT:??_R3?$basic_ios@DU?$char_traits@D@std@@@std@@8
rdata$r	ENDS
;	COMDAT ??_R1A@?0A@EA@?$_Iosb@H@std@@8
rdata$r	SEGMENT
??_R1A@?0A@EA@?$_Iosb@H@std@@8 DD FLAT:??_R0?AV?$_Iosb@H@std@@@8 ; std::_Iosb<int>::`RTTI Base Class Descriptor at (0,-1,0,64)'
	DD	00H
	DD	00H
	DD	0ffffffffH
	DD	00H
	DD	040H
	DD	FLAT:??_R3?$_Iosb@H@std@@8
rdata$r	ENDS
;	COMDAT ??_R2?$_Iosb@H@std@@8
rdata$r	SEGMENT
??_R2?$_Iosb@H@std@@8 DD FLAT:??_R1A@?0A@EA@?$_Iosb@H@std@@8 ; std::_Iosb<int>::`RTTI Base Class Array'
rdata$r	ENDS
;	COMDAT ??_R3?$_Iosb@H@std@@8
rdata$r	SEGMENT
??_R3?$_Iosb@H@std@@8 DD 00H				; std::_Iosb<int>::`RTTI Class Hierarchy Descriptor'
	DD	00H
	DD	01H
	DD	FLAT:??_R2?$_Iosb@H@std@@8
rdata$r	ENDS
;	COMDAT ??_R0?AV?$_Iosb@H@std@@@8
data$r	SEGMENT
??_R0?AV?$_Iosb@H@std@@@8 DD FLAT:??_7type_info@@6B@	; std::_Iosb<int> `RTTI Type Descriptor'
	DD	00H
	DB	'.?AV?$_Iosb@H@std@@', 00H
data$r	ENDS
;	COMDAT ??_R17?0A@EA@?$_Iosb@H@std@@8
rdata$r	SEGMENT
??_R17?0A@EA@?$_Iosb@H@std@@8 DD FLAT:??_R0?AV?$_Iosb@H@std@@@8 ; std::_Iosb<int>::`RTTI Base Class Descriptor at (8,-1,0,64)'
	DD	00H
	DD	08H
	DD	0ffffffffH
	DD	00H
	DD	040H
	DD	FLAT:??_R3?$_Iosb@H@std@@8
rdata$r	ENDS
;	COMDAT ??_R1A@?0A@EA@ios_base@std@@8
rdata$r	SEGMENT
??_R1A@?0A@EA@ios_base@std@@8 DD FLAT:??_R0?AVios_base@std@@@8 ; std::ios_base::`RTTI Base Class Descriptor at (0,-1,0,64)'
	DD	01H
	DD	00H
	DD	0ffffffffH
	DD	00H
	DD	040H
	DD	FLAT:??_R3ios_base@std@@8
rdata$r	ENDS
;	COMDAT ??_R2ios_base@std@@8
rdata$r	SEGMENT
??_R2ios_base@std@@8 DD FLAT:??_R1A@?0A@EA@ios_base@std@@8 ; std::ios_base::`RTTI Base Class Array'
	DD	FLAT:??_R17?0A@EA@?$_Iosb@H@std@@8
rdata$r	ENDS
;	COMDAT ??_R3ios_base@std@@8
rdata$r	SEGMENT
??_R3ios_base@std@@8 DD 00H				; std::ios_base::`RTTI Class Hierarchy Descriptor'
	DD	00H
	DD	02H
	DD	FLAT:??_R2ios_base@std@@8
rdata$r	ENDS
;	COMDAT ??_R0?AVios_base@std@@@8
data$r	SEGMENT
??_R0?AVios_base@std@@@8 DD FLAT:??_7type_info@@6B@	; std::ios_base `RTTI Type Descriptor'
	DD	00H
	DB	'.?AVios_base@std@@', 00H
data$r	ENDS
;	COMDAT ??_R4ios_base@std@@6B@
rdata$r	SEGMENT
??_R4ios_base@std@@6B@ DD 00H				; std::ios_base::`RTTI Complete Object Locator'
	DD	00H
	DD	00H
	DD	FLAT:??_R0?AVios_base@std@@@8
	DD	FLAT:??_R3ios_base@std@@8
rdata$r	ENDS
;	COMDAT ??_R1A@?0A@EA@bad_array_new_length@std@@8
rdata$r	SEGMENT
??_R1A@?0A@EA@bad_array_new_length@std@@8 DD FLAT:??_R0?AVbad_array_new_length@std@@@8 ; std::bad_array_new_length::`RTTI Base Class Descriptor at (0,-1,0,64)'
	DD	02H
	DD	00H
	DD	0ffffffffH
	DD	00H
	DD	040H
	DD	FLAT:??_R3bad_array_new_length@std@@8
rdata$r	ENDS
;	COMDAT ??_R2bad_array_new_length@std@@8
rdata$r	SEGMENT
??_R2bad_array_new_length@std@@8 DD FLAT:??_R1A@?0A@EA@bad_array_new_length@std@@8 ; std::bad_array_new_length::`RTTI Base Class Array'
	DD	FLAT:??_R1A@?0A@EA@bad_alloc@std@@8
	DD	FLAT:??_R1A@?0A@EA@exception@std@@8
rdata$r	ENDS
;	COMDAT ??_R3bad_array_new_length@std@@8
rdata$r	SEGMENT
??_R3bad_array_new_length@std@@8 DD 00H			; std::bad_array_new_length::`RTTI Class Hierarchy Descriptor'
	DD	00H
	DD	03H
	DD	FLAT:??_R2bad_array_new_length@std@@8
rdata$r	ENDS
;	COMDAT ??_R4bad_array_new_length@std@@6B@
rdata$r	SEGMENT
??_R4bad_array_new_length@std@@6B@ DD 00H		; std::bad_array_new_length::`RTTI Complete Object Locator'
	DD	00H
	DD	00H
	DD	FLAT:??_R0?AVbad_array_new_length@std@@@8
	DD	FLAT:??_R3bad_array_new_length@std@@8
rdata$r	ENDS
;	COMDAT ??_R1A@?0A@EA@bad_alloc@std@@8
rdata$r	SEGMENT
??_R1A@?0A@EA@bad_alloc@std@@8 DD FLAT:??_R0?AVbad_alloc@std@@@8 ; std::bad_alloc::`RTTI Base Class Descriptor at (0,-1,0,64)'
	DD	01H
	DD	00H
	DD	0ffffffffH
	DD	00H
	DD	040H
	DD	FLAT:??_R3bad_alloc@std@@8
rdata$r	ENDS
;	COMDAT ??_R2bad_alloc@std@@8
rdata$r	SEGMENT
??_R2bad_alloc@std@@8 DD FLAT:??_R1A@?0A@EA@bad_alloc@std@@8 ; std::bad_alloc::`RTTI Base Class Array'
	DD	FLAT:??_R1A@?0A@EA@exception@std@@8
rdata$r	ENDS
;	COMDAT ??_R3bad_alloc@std@@8
rdata$r	SEGMENT
??_R3bad_alloc@std@@8 DD 00H				; std::bad_alloc::`RTTI Class Hierarchy Descriptor'
	DD	00H
	DD	02H
	DD	FLAT:??_R2bad_alloc@std@@8
rdata$r	ENDS
;	COMDAT ??_R4bad_alloc@std@@6B@
rdata$r	SEGMENT
??_R4bad_alloc@std@@6B@ DD 00H				; std::bad_alloc::`RTTI Complete Object Locator'
	DD	00H
	DD	00H
	DD	FLAT:??_R0?AVbad_alloc@std@@@8
	DD	FLAT:??_R3bad_alloc@std@@8
rdata$r	ENDS
;	COMDAT ??_R1A@?0A@EA@exception@std@@8
rdata$r	SEGMENT
??_R1A@?0A@EA@exception@std@@8 DD FLAT:??_R0?AVexception@std@@@8 ; std::exception::`RTTI Base Class Descriptor at (0,-1,0,64)'
	DD	00H
	DD	00H
	DD	0ffffffffH
	DD	00H
	DD	040H
	DD	FLAT:??_R3exception@std@@8
rdata$r	ENDS
;	COMDAT ??_R2exception@std@@8
rdata$r	SEGMENT
??_R2exception@std@@8 DD FLAT:??_R1A@?0A@EA@exception@std@@8 ; std::exception::`RTTI Base Class Array'
rdata$r	ENDS
;	COMDAT ??_R3exception@std@@8
rdata$r	SEGMENT
??_R3exception@std@@8 DD 00H				; std::exception::`RTTI Class Hierarchy Descriptor'
	DD	00H
	DD	01H
	DD	FLAT:??_R2exception@std@@8
rdata$r	ENDS
;	COMDAT ??_R4exception@std@@6B@
rdata$r	SEGMENT
??_R4exception@std@@6B@ DD 00H				; std::exception::`RTTI Complete Object Locator'
	DD	00H
	DD	00H
	DD	FLAT:??_R0?AVexception@std@@@8
	DD	FLAT:??_R3exception@std@@8
rdata$r	ENDS
;	COMDAT ??_C@_04IHCGILC@?$CB?$CFx?$AA@
CONST	SEGMENT
??_C@_04IHCGILC@?$CB?$CFx?$AA@ DB '!%x', 00H, 00H	; `string'
CONST	ENDS
;	COMDAT ??_7?$time_put@DV?$ostreambuf_iterator@DU?$char_traits@D@std@@@std@@@std@@6B@
CONST	SEGMENT
??_7?$time_put@DV?$ostreambuf_iterator@DU?$char_traits@D@std@@@std@@@std@@6B@ DD FLAT:??_R4?$time_put@DV?$ostreambuf_iterator@DU?$char_traits@D@std@@@std@@@std@@6B@ ; std::time_put<char,std::ostreambuf_iterator<char,std::char_traits<char> > >::`vftable'
	DD	FLAT:??_E?$time_put@DV?$ostreambuf_iterator@DU?$char_traits@D@std@@@std@@@std@@MAEPAXI@Z
	DD	FLAT:?_Incref@facet@locale@std@@UAEXXZ
	DD	FLAT:?_Decref@facet@locale@std@@UAEPAV_Facet_base@3@XZ
	DD	FLAT:?do_put@?$time_put@DV?$ostreambuf_iterator@DU?$char_traits@D@std@@@std@@@std@@MBE?AV?$ostreambuf_iterator@DU?$char_traits@D@std@@@2@V32@AAVios_base@2@DPBUtm@@DD@Z
CONST	ENDS
;	COMDAT ??_C@_0BI@CFPLBAOH@invalid?5string?5position@
CONST	SEGMENT
??_C@_0BI@CFPLBAOH@invalid?5string?5position@ DB 'invalid string position'
	DB	00H						; `string'
CONST	ENDS
;	COMDAT ??_C@_0O@BMPKPIOH@metin2client_@
CONST	SEGMENT
??_C@_0O@BMPKPIOH@metin2client_@ DB 'metin2client_', 00H ; `string'
CONST	ENDS
;	COMDAT ??_C@_04JMFINIFG@?4dmp@
CONST	SEGMENT
??_C@_04JMFINIFG@?4dmp@ DB '.dmp', 00H			; `string'
CONST	ENDS
;	COMDAT ??_C@_0O@GHHCBHKH@?$CFY?$CFm?$CFd_?$CFH?$CFM?$CFS@
CONST	SEGMENT
??_C@_0O@GHHCBHKH@?$CFY?$CFm?$CFd_?$CFH?$CFM?$CFS@ DB '%Y%m%d_%H%M%S', 00H ; `string'
CONST	ENDS
;	COMDAT ??_C@_0BC@MNIKNFKD@MiniDumpWriteDump@
CONST	SEGMENT
??_C@_0BC@MNIKNFKD@MiniDumpWriteDump@ DB 'MiniDumpWriteDump', 00H ; `string'
CONST	ENDS
;	COMDAT ??_C@_07MOMJMPG@dbghelp@
CONST	SEGMENT
??_C@_07MOMJMPG@dbghelp@ DB 'dbghelp', 00H		; `string'
CONST	ENDS
;	COMDAT ??_8?$basic_ostringstream@DU?$char_traits@D@std@@V?$allocator@D@2@@std@@7B@
CONST	SEGMENT
??_8?$basic_ostringstream@DU?$char_traits@D@std@@V?$allocator@D@2@@std@@7B@ DD 00H ; std::basic_ostringstream<char,std::char_traits<char>,std::allocator<char> >::`vbtable'
	DD	050H
CONST	ENDS
;	COMDAT ??_7?$basic_ostringstream@DU?$char_traits@D@std@@V?$allocator@D@2@@std@@6B@
CONST	SEGMENT
??_7?$basic_ostringstream@DU?$char_traits@D@std@@V?$allocator@D@2@@std@@6B@ DD FLAT:??_R4?$basic_ostringstream@DU?$char_traits@D@std@@V?$allocator@D@2@@std@@6B@ ; std::basic_ostringstream<char,std::char_traits<char>,std::allocator<char> >::`vftable'
	DD	FLAT:??_E?$basic_ostringstream@DU?$char_traits@D@std@@V?$allocator@D@2@@std@@$4PPPPPPPM@A@AEPAXI@Z
CONST	ENDS
;	COMDAT ??_7?$basic_stringbuf@DU?$char_traits@D@std@@V?$allocator@D@2@@std@@6B@
CONST	SEGMENT
??_7?$basic_stringbuf@DU?$char_traits@D@std@@V?$allocator@D@2@@std@@6B@ DD FLAT:??_R4?$basic_stringbuf@DU?$char_traits@D@std@@V?$allocator@D@2@@std@@6B@ ; std::basic_stringbuf<char,std::char_traits<char>,std::allocator<char> >::`vftable'
	DD	FLAT:??_E?$basic_stringbuf@DU?$char_traits@D@std@@V?$allocator@D@2@@std@@UAEPAXI@Z
	DD	FLAT:?_Lock@?$basic_streambuf@DU?$char_traits@D@std@@@std@@UAEXXZ
	DD	FLAT:?_Unlock@?$basic_streambuf@DU?$char_traits@D@std@@@std@@UAEXXZ
	DD	FLAT:?overflow@?$basic_stringbuf@DU?$char_traits@D@std@@V?$allocator@D@2@@std@@MAEHH@Z
	DD	FLAT:?pbackfail@?$basic_stringbuf@DU?$char_traits@D@std@@V?$allocator@D@2@@std@@MAEHH@Z
	DD	FLAT:?showmanyc@?$basic_streambuf@DU?$char_traits@D@std@@@std@@MAE_JXZ
	DD	FLAT:?underflow@?$basic_stringbuf@DU?$char_traits@D@std@@V?$allocator@D@2@@std@@MAEHXZ
	DD	FLAT:?uflow@?$basic_streambuf@DU?$char_traits@D@std@@@std@@MAEHXZ
	DD	FLAT:?xsgetn@?$basic_streambuf@DU?$char_traits@D@std@@@std@@MAE_JPAD_J@Z
	DD	FLAT:?xsputn@?$basic_streambuf@DU?$char_traits@D@std@@@std@@MAE_JPBD_J@Z
	DD	FLAT:?seekoff@?$basic_stringbuf@DU?$char_traits@D@std@@V?$allocator@D@2@@std@@MAE?AV?$fpos@U_Mbstatet@@@2@_JHH@Z
	DD	FLAT:?seekpos@?$basic_stringbuf@DU?$char_traits@D@std@@V?$allocator@D@2@@std@@MAE?AV?$fpos@U_Mbstatet@@@2@V32@H@Z
	DD	FLAT:?setbuf@?$basic_streambuf@DU?$char_traits@D@std@@@std@@MAEPAV12@PAD_J@Z
	DD	FLAT:?sync@?$basic_streambuf@DU?$char_traits@D@std@@@std@@MAEHXZ
	DD	FLAT:?imbue@?$basic_streambuf@DU?$char_traits@D@std@@@std@@MAEXABVlocale@2@@Z
CONST	ENDS
;	COMDAT ??_7?$basic_streambuf@DU?$char_traits@D@std@@@std@@6B@
CONST	SEGMENT
??_7?$basic_streambuf@DU?$char_traits@D@std@@@std@@6B@ DD FLAT:??_R4?$basic_streambuf@DU?$char_traits@D@std@@@std@@6B@ ; std::basic_streambuf<char,std::char_traits<char> >::`vftable'
	DD	FLAT:??_E?$basic_streambuf@DU?$char_traits@D@std@@@std@@UAEPAXI@Z
	DD	FLAT:?_Lock@?$basic_streambuf@DU?$char_traits@D@std@@@std@@UAEXXZ
	DD	FLAT:?_Unlock@?$basic_streambuf@DU?$char_traits@D@std@@@std@@UAEXXZ
	DD	FLAT:?overflow@?$basic_streambuf@DU?$char_traits@D@std@@@std@@MAEHH@Z
	DD	FLAT:?pbackfail@?$basic_streambuf@DU?$char_traits@D@std@@@std@@MAEHH@Z
	DD	FLAT:?showmanyc@?$basic_streambuf@DU?$char_traits@D@std@@@std@@MAE_JXZ
	DD	FLAT:?underflow@?$basic_streambuf@DU?$char_traits@D@std@@@std@@MAEHXZ
	DD	FLAT:?uflow@?$basic_streambuf@DU?$char_traits@D@std@@@std@@MAEHXZ
	DD	FLAT:?xsgetn@?$basic_streambuf@DU?$char_traits@D@std@@@std@@MAE_JPAD_J@Z
	DD	FLAT:?xsputn@?$basic_streambuf@DU?$char_traits@D@std@@@std@@MAE_JPBD_J@Z
	DD	FLAT:?seekoff@?$basic_streambuf@DU?$char_traits@D@std@@@std@@MAE?AV?$fpos@U_Mbstatet@@@2@_JHH@Z
	DD	FLAT:?seekpos@?$basic_streambuf@DU?$char_traits@D@std@@@std@@MAE?AV?$fpos@U_Mbstatet@@@2@V32@H@Z
	DD	FLAT:?setbuf@?$basic_streambuf@DU?$char_traits@D@std@@@std@@MAEPAV12@PAD_J@Z
	DD	FLAT:?sync@?$basic_streambuf@DU?$char_traits@D@std@@@std@@MAEHXZ
	DD	FLAT:?imbue@?$basic_streambuf@DU?$char_traits@D@std@@@std@@MAEXABVlocale@2@@Z
CONST	ENDS
;	COMDAT ??_8?$basic_ostream@DU?$char_traits@D@std@@@std@@7B@
CONST	SEGMENT
??_8?$basic_ostream@DU?$char_traits@D@std@@@std@@7B@ DD 00H ; std::basic_ostream<char,std::char_traits<char> >::`vbtable'
	DD	08H
CONST	ENDS
;	COMDAT ??_7?$basic_ostream@DU?$char_traits@D@std@@@std@@6B@
CONST	SEGMENT
??_7?$basic_ostream@DU?$char_traits@D@std@@@std@@6B@ DD FLAT:??_R4?$basic_ostream@DU?$char_traits@D@std@@@std@@6B@ ; std::basic_ostream<char,std::char_traits<char> >::`vftable'
	DD	FLAT:??_E?$basic_ostream@DU?$char_traits@D@std@@@std@@$4PPPPPPPM@A@AEPAXI@Z
CONST	ENDS
;	COMDAT ??_7?$basic_ios@DU?$char_traits@D@std@@@std@@6B@
CONST	SEGMENT
??_7?$basic_ios@DU?$char_traits@D@std@@@std@@6B@ DD FLAT:??_R4?$basic_ios@DU?$char_traits@D@std@@@std@@6B@ ; std::basic_ios<char,std::char_traits<char> >::`vftable'
	DD	FLAT:??_E?$basic_ios@DU?$char_traits@D@std@@@std@@UAEPAXI@Z
CONST	ENDS
;	COMDAT __CT??_R0?AVfailure@ios_base@std@@@8??0failure@ios_base@std@@QAE@ABV012@@Z20
xdata$x	SEGMENT
__CT??_R0?AVfailure@ios_base@std@@@8??0failure@ios_base@std@@QAE@ABV012@@Z20 DD 00H
	DD	FLAT:??_R0?AVfailure@ios_base@std@@@8
	DD	00H
	DD	0ffffffffH
	ORG $+4
	DD	014H
	DD	FLAT:??0failure@ios_base@std@@QAE@ABV012@@Z
xdata$x	ENDS
;	COMDAT ??_R0?AVfailure@ios_base@std@@@8
data$r	SEGMENT
??_R0?AVfailure@ios_base@std@@@8 DD FLAT:??_7type_info@@6B@ ; std::ios_base::failure `RTTI Type Descriptor'
	DD	00H
	DB	'.?AVfailure@ios_base@std@@', 00H
data$r	ENDS
;	COMDAT __CTA5?AVfailure@ios_base@std@@
xdata$x	SEGMENT
__CTA5?AVfailure@ios_base@std@@ DD 05H
	DD	FLAT:__CT??_R0?AVfailure@ios_base@std@@@8??0failure@ios_base@std@@QAE@ABV012@@Z20
	DD	FLAT:__CT??_R0?AVsystem_error@std@@@8??0system_error@std@@QAE@ABV01@@Z20
	DD	FLAT:__CT??_R0?AV_System_error@std@@@8??0_System_error@std@@QAE@ABV01@@Z20
	DD	FLAT:__CT??_R0?AVruntime_error@std@@@8??0runtime_error@std@@QAE@ABV01@@Z12
	DD	FLAT:__CT??_R0?AVexception@std@@@8??0exception@std@@QAE@ABV01@@Z12
xdata$x	ENDS
;	COMDAT __TI5?AVfailure@ios_base@std@@
xdata$x	SEGMENT
__TI5?AVfailure@ios_base@std@@ DD 00H
	DD	FLAT:??1failure@ios_base@std@@UAE@XZ
	DD	00H
	DD	FLAT:__CTA5?AVfailure@ios_base@std@@
xdata$x	ENDS
;	COMDAT ??_C@_0BF@OOHOMBOF@ios_base?3?3eofbit?5set@
CONST	SEGMENT
??_C@_0BF@OOHOMBOF@ios_base?3?3eofbit?5set@ DB 'ios_base::eofbit set', 00H ; `string'
CONST	ENDS
;	COMDAT ??_C@_0BG@FMKFHCIL@ios_base?3?3failbit?5set@
CONST	SEGMENT
??_C@_0BG@FMKFHCIL@ios_base?3?3failbit?5set@ DB 'ios_base::failbit set', 00H ; `string'
CONST	ENDS
;	COMDAT ??_C@_0BF@PHHKMMFD@ios_base?3?3badbit?5set@
CONST	SEGMENT
??_C@_0BF@PHHKMMFD@ios_base?3?3badbit?5set@ DB 'ios_base::badbit set', 00H ; `string'
CONST	ENDS
;	COMDAT ??_7ios_base@std@@6B@
CONST	SEGMENT
??_7ios_base@std@@6B@ DD FLAT:??_R4ios_base@std@@6B@	; std::ios_base::`vftable'
	DD	FLAT:??_Eios_base@std@@UAEPAXI@Z
CONST	ENDS
;	COMDAT ??_7failure@ios_base@std@@6B@
CONST	SEGMENT
??_7failure@ios_base@std@@6B@ DD FLAT:??_R4failure@ios_base@std@@6B@ ; std::ios_base::failure::`vftable'
	DD	FLAT:??_Efailure@ios_base@std@@UAEPAXI@Z
	DD	FLAT:?what@exception@std@@UBEPBDXZ
CONST	ENDS
;	COMDAT ??_7?$ctype@D@std@@6B@
CONST	SEGMENT
??_7?$ctype@D@std@@6B@ DD FLAT:??_R4?$ctype@D@std@@6B@	; std::ctype<char>::`vftable'
	DD	FLAT:??_E?$ctype@D@std@@MAEPAXI@Z
	DD	FLAT:?_Incref@facet@locale@std@@UAEXXZ
	DD	FLAT:?_Decref@facet@locale@std@@UAEPAV_Facet_base@3@XZ
	DD	FLAT:?do_tolower@?$ctype@D@std@@MBEPBDPADPBD@Z
	DD	FLAT:?do_tolower@?$ctype@D@std@@MBEDD@Z
	DD	FLAT:?do_toupper@?$ctype@D@std@@MBEPBDPADPBD@Z
	DD	FLAT:?do_toupper@?$ctype@D@std@@MBEDD@Z
	DD	FLAT:?do_widen@?$ctype@D@std@@MBEPBDPBD0PAD@Z
	DD	FLAT:?do_widen@?$ctype@D@std@@MBEDD@Z
	DD	FLAT:?do_narrow@?$ctype@D@std@@MBEPBDPBD0DPAD@Z
	DD	FLAT:?do_narrow@?$ctype@D@std@@MBEDDD@Z
CONST	ENDS
;	COMDAT ??_7ctype_base@std@@6B@
CONST	SEGMENT
??_7ctype_base@std@@6B@ DD FLAT:??_R4ctype_base@std@@6B@ ; std::ctype_base::`vftable'
	DD	FLAT:??_Ectype_base@std@@UAEPAXI@Z
	DD	FLAT:?_Incref@facet@locale@std@@UAEXXZ
	DD	FLAT:?_Decref@facet@locale@std@@UAEPAV_Facet_base@3@XZ
CONST	ENDS
;	COMDAT ??_7facet@locale@std@@6B@
CONST	SEGMENT
??_7facet@locale@std@@6B@ DD FLAT:??_R4facet@locale@std@@6B@ ; std::locale::facet::`vftable'
	DD	FLAT:??_Efacet@locale@std@@MAEPAXI@Z
	DD	FLAT:?_Incref@facet@locale@std@@UAEXXZ
	DD	FLAT:?_Decref@facet@locale@std@@UAEPAV_Facet_base@3@XZ
CONST	ENDS
;	COMDAT ??_C@_0BA@ELKIONDK@bad?5locale?5name@
CONST	SEGMENT
??_C@_0BA@ELKIONDK@bad?5locale?5name@ DB 'bad locale name', 00H ; `string'
CONST	ENDS
;	COMDAT ??_7_Facet_base@std@@6B@
CONST	SEGMENT
??_7_Facet_base@std@@6B@ DD FLAT:??_R4_Facet_base@std@@6B@ ; std::_Facet_base::`vftable'
	DD	FLAT:??_E_Facet_base@std@@UAEPAXI@Z
	DD	FLAT:__purecall
	DD	FLAT:__purecall
CONST	ENDS
;	COMDAT __CT??_R0?AVbad_cast@std@@@8??0bad_cast@std@@QAE@ABV01@@Z12
xdata$x	SEGMENT
__CT??_R0?AVbad_cast@std@@@8??0bad_cast@std@@QAE@ABV01@@Z12 DD 00H
	DD	FLAT:??_R0?AVbad_cast@std@@@8
	DD	00H
	DD	0ffffffffH
	ORG $+4
	DD	0cH
	DD	FLAT:??0bad_cast@std@@QAE@ABV01@@Z
xdata$x	ENDS
;	COMDAT ??_R0?AVbad_cast@std@@@8
data$r	SEGMENT
??_R0?AVbad_cast@std@@@8 DD FLAT:??_7type_info@@6B@	; std::bad_cast `RTTI Type Descriptor'
	DD	00H
	DB	'.?AVbad_cast@std@@', 00H
data$r	ENDS
;	COMDAT __CTA2?AVbad_cast@std@@
xdata$x	SEGMENT
__CTA2?AVbad_cast@std@@ DD 02H
	DD	FLAT:__CT??_R0?AVbad_cast@std@@@8??0bad_cast@std@@QAE@ABV01@@Z12
	DD	FLAT:__CT??_R0?AVexception@std@@@8??0exception@std@@QAE@ABV01@@Z12
xdata$x	ENDS
;	COMDAT __TI2?AVbad_cast@std@@
xdata$x	SEGMENT
__TI2?AVbad_cast@std@@ DD 00H
	DD	FLAT:??1bad_cast@std@@UAE@XZ
	DD	00H
	DD	FLAT:__CTA2?AVbad_cast@std@@
xdata$x	ENDS
;	COMDAT ??_C@_08EPJLHIJG@bad?5cast@
CONST	SEGMENT
??_C@_08EPJLHIJG@bad?5cast@ DB 'bad cast', 00H		; `string'
CONST	ENDS
;	COMDAT ??_7bad_cast@std@@6B@
CONST	SEGMENT
??_7bad_cast@std@@6B@ DD FLAT:??_R4bad_cast@std@@6B@	; std::bad_cast::`vftable'
	DD	FLAT:??_Ebad_cast@std@@UAEPAXI@Z
	DD	FLAT:?what@exception@std@@UBEPBDXZ
CONST	ENDS
;	COMDAT ?_Iostream_error@?4??message@_Iostream_error_category2@std@@UBE?AV?$basic_string@DU?$char_traits@D@std@@V?$allocator@D@2@@3@H@Z@4QBDB
CONST	SEGMENT
?_Iostream_error@?4??message@_Iostream_error_category2@std@@UBE?AV?$basic_string@DU?$char_traits@D@std@@V?$allocator@D@2@@3@H@Z@4QBDB DB 069H ; `std::_Iostream_error_category2::message'::`5'::_Iostream_error
	DB	06fH
	DB	073H
	DB	074H
	DB	072H
	DB	065H
	DB	061H
	DB	06dH
	DB	020H
	DB	073H
	DB	074H
	DB	072H
	DB	065H
	DB	061H
	DB	06dH
	DB	020H
	DB	065H
	DB	072H
	DB	072H
	DB	06fH
	DB	072H
	DB	00H
CONST	ENDS
;	COMDAT ??_C@_08LLGCOLLL@iostream@
CONST	SEGMENT
??_C@_08LLGCOLLL@iostream@ DB 'iostream', 00H		; `string'
CONST	ENDS
;	COMDAT ??_7_Iostream_error_category2@std@@6B@
CONST	SEGMENT
??_7_Iostream_error_category2@std@@6B@ DD FLAT:??_R4_Iostream_error_category2@std@@6B@ ; std::_Iostream_error_category2::`vftable'
	DD	FLAT:??_E_Iostream_error_category2@std@@UAEPAXI@Z
	DD	FLAT:?name@_Iostream_error_category2@std@@UBEPBDXZ
	DD	FLAT:?message@_Iostream_error_category2@std@@UBE?AV?$basic_string@DU?$char_traits@D@std@@V?$allocator@D@2@@2@H@Z
	DD	FLAT:?default_error_condition@error_category@std@@UBE?AVerror_condition@2@H@Z
	DD	FLAT:?equivalent@error_category@std@@UBE_NABVerror_code@2@H@Z
	DD	FLAT:?equivalent@error_category@std@@UBE_NHABVerror_condition@2@@Z
CONST	ENDS
;	COMDAT __CT??_R0?AV_System_error@std@@@8??0_System_error@std@@QAE@ABV01@@Z20
xdata$x	SEGMENT
__CT??_R0?AV_System_error@std@@@8??0_System_error@std@@QAE@ABV01@@Z20 DD 00H
	DD	FLAT:??_R0?AV_System_error@std@@@8
	DD	00H
	DD	0ffffffffH
	ORG $+4
	DD	014H
	DD	FLAT:??0_System_error@std@@QAE@ABV01@@Z
xdata$x	ENDS
;	COMDAT ??_R0?AV_System_error@std@@@8
data$r	SEGMENT
??_R0?AV_System_error@std@@@8 DD FLAT:??_7type_info@@6B@ ; std::_System_error `RTTI Type Descriptor'
	DD	00H
	DB	'.?AV_System_error@std@@', 00H
data$r	ENDS
;	COMDAT __CT??_R0?AVsystem_error@std@@@8??0system_error@std@@QAE@ABV01@@Z20
xdata$x	SEGMENT
__CT??_R0?AVsystem_error@std@@@8??0system_error@std@@QAE@ABV01@@Z20 DD 00H
	DD	FLAT:??_R0?AVsystem_error@std@@@8
	DD	00H
	DD	0ffffffffH
	ORG $+4
	DD	014H
	DD	FLAT:??0system_error@std@@QAE@ABV01@@Z
xdata$x	ENDS
;	COMDAT ??_R0?AVsystem_error@std@@@8
data$r	SEGMENT
??_R0?AVsystem_error@std@@@8 DD FLAT:??_7type_info@@6B@	; std::system_error `RTTI Type Descriptor'
	DD	00H
	DB	'.?AVsystem_error@std@@', 00H
data$r	ENDS
;	COMDAT ??_C@_00CNPNBAHC@@
CONST	SEGMENT
??_C@_00CNPNBAHC@@ DB 00H				; `string'
CONST	ENDS
;	COMDAT ??_7system_error@std@@6B@
CONST	SEGMENT
??_7system_error@std@@6B@ DD FLAT:??_R4system_error@std@@6B@ ; std::system_error::`vftable'
	DD	FLAT:??_Esystem_error@std@@UAEPAXI@Z
	DD	FLAT:?what@exception@std@@UBEPBDXZ
CONST	ENDS
;	COMDAT ??_C@_02LMMGGCAJ@?3?5@
CONST	SEGMENT
??_C@_02LMMGGCAJ@?3?5@ DB ': ', 00H			; `string'
CONST	ENDS
;	COMDAT ??_7_System_error@std@@6B@
CONST	SEGMENT
??_7_System_error@std@@6B@ DD FLAT:??_R4_System_error@std@@6B@ ; std::_System_error::`vftable'
	DD	FLAT:??_E_System_error@std@@UAEPAXI@Z
	DD	FLAT:?what@exception@std@@UBEPBDXZ
CONST	ENDS
;	COMDAT __CT??_R0?AVruntime_error@std@@@8??0runtime_error@std@@QAE@ABV01@@Z12
xdata$x	SEGMENT
__CT??_R0?AVruntime_error@std@@@8??0runtime_error@std@@QAE@ABV01@@Z12 DD 00H
	DD	FLAT:??_R0?AVruntime_error@std@@@8
	DD	00H
	DD	0ffffffffH
	ORG $+4
	DD	0cH
	DD	FLAT:??0runtime_error@std@@QAE@ABV01@@Z
xdata$x	ENDS
;	COMDAT ??_R0?AVruntime_error@std@@@8
data$r	SEGMENT
??_R0?AVruntime_error@std@@@8 DD FLAT:??_7type_info@@6B@ ; std::runtime_error `RTTI Type Descriptor'
	DD	00H
	DB	'.?AVruntime_error@std@@', 00H
data$r	ENDS
;	COMDAT ??_7runtime_error@std@@6B@
CONST	SEGMENT
??_7runtime_error@std@@6B@ DD FLAT:??_R4runtime_error@std@@6B@ ; std::runtime_error::`vftable'
	DD	FLAT:??_Eruntime_error@std@@UAEPAXI@Z
	DD	FLAT:?what@exception@std@@UBEPBDXZ
CONST	ENDS
;	COMDAT ??_C@_0BA@JFNIOLAK@string?5too?5long@
CONST	SEGMENT
??_C@_0BA@JFNIOLAK@string?5too?5long@ DB 'string too long', 00H ; `string'
CONST	ENDS
;	COMDAT __CT??_R0?AVexception@std@@@8??0exception@std@@QAE@ABV01@@Z12
xdata$x	SEGMENT
__CT??_R0?AVexception@std@@@8??0exception@std@@QAE@ABV01@@Z12 DD 00H
	DD	FLAT:??_R0?AVexception@std@@@8
	DD	00H
	DD	0ffffffffH
	ORG $+4
	DD	0cH
	DD	FLAT:??0exception@std@@QAE@ABV01@@Z
xdata$x	ENDS
;	COMDAT ??_R0?AVexception@std@@@8
data$r	SEGMENT
??_R0?AVexception@std@@@8 DD FLAT:??_7type_info@@6B@	; std::exception `RTTI Type Descriptor'
	DD	00H
	DB	'.?AVexception@std@@', 00H
data$r	ENDS
;	COMDAT __CT??_R0?AVbad_alloc@std@@@8??0bad_alloc@std@@QAE@ABV01@@Z12
xdata$x	SEGMENT
__CT??_R0?AVbad_alloc@std@@@8??0bad_alloc@std@@QAE@ABV01@@Z12 DD 010H
	DD	FLAT:??_R0?AVbad_alloc@std@@@8
	DD	00H
	DD	0ffffffffH
	ORG $+4
	DD	0cH
	DD	FLAT:??0bad_alloc@std@@QAE@ABV01@@Z
xdata$x	ENDS
;	COMDAT ??_R0?AVbad_alloc@std@@@8
data$r	SEGMENT
??_R0?AVbad_alloc@std@@@8 DD FLAT:??_7type_info@@6B@	; std::bad_alloc `RTTI Type Descriptor'
	DD	00H
	DB	'.?AVbad_alloc@std@@', 00H
data$r	ENDS
;	COMDAT __CT??_R0?AVbad_array_new_length@std@@@8??0bad_array_new_length@std@@QAE@ABV01@@Z12
xdata$x	SEGMENT
__CT??_R0?AVbad_array_new_length@std@@@8??0bad_array_new_length@std@@QAE@ABV01@@Z12 DD 00H
	DD	FLAT:??_R0?AVbad_array_new_length@std@@@8
	DD	00H
	DD	0ffffffffH
	ORG $+4
	DD	0cH
	DD	FLAT:??0bad_array_new_length@std@@QAE@ABV01@@Z
xdata$x	ENDS
;	COMDAT ??_R0?AVbad_array_new_length@std@@@8
data$r	SEGMENT
??_R0?AVbad_array_new_length@std@@@8 DD FLAT:??_7type_info@@6B@ ; std::bad_array_new_length `RTTI Type Descriptor'
	DD	00H
	DB	'.?AVbad_array_new_length@std@@', 00H
data$r	ENDS
;	COMDAT __CTA3?AVbad_array_new_length@std@@
xdata$x	SEGMENT
__CTA3?AVbad_array_new_length@std@@ DD 03H
	DD	FLAT:__CT??_R0?AVbad_array_new_length@std@@@8??0bad_array_new_length@std@@QAE@ABV01@@Z12
	DD	FLAT:__CT??_R0?AVbad_alloc@std@@@8??0bad_alloc@std@@QAE@ABV01@@Z12
	DD	FLAT:__CT??_R0?AVexception@std@@@8??0exception@std@@QAE@ABV01@@Z12
xdata$x	ENDS
;	COMDAT __TI3?AVbad_array_new_length@std@@
xdata$x	SEGMENT
__TI3?AVbad_array_new_length@std@@ DD 00H
	DD	FLAT:??1bad_array_new_length@std@@UAE@XZ
	DD	00H
	DD	FLAT:__CTA3?AVbad_array_new_length@std@@
xdata$x	ENDS
;	COMDAT ??_C@_0BF@KINCDENJ@bad?5array?5new?5length@
CONST	SEGMENT
??_C@_0BF@KINCDENJ@bad?5array?5new?5length@ DB 'bad array new length', 00H ; `string'
CONST	ENDS
;	COMDAT ??_7bad_array_new_length@std@@6B@
CONST	SEGMENT
??_7bad_array_new_length@std@@6B@ DD FLAT:??_R4bad_array_new_length@std@@6B@ ; std::bad_array_new_length::`vftable'
	DD	FLAT:??_Ebad_array_new_length@std@@UAEPAXI@Z
	DD	FLAT:?what@exception@std@@UBEPBDXZ
CONST	ENDS
;	COMDAT ??_7bad_alloc@std@@6B@
CONST	SEGMENT
??_7bad_alloc@std@@6B@ DD FLAT:??_R4bad_alloc@std@@6B@	; std::bad_alloc::`vftable'
	DD	FLAT:??_Ebad_alloc@std@@UAEPAXI@Z
	DD	FLAT:?what@exception@std@@UBEPBDXZ
CONST	ENDS
;	COMDAT ??_C@_0BC@EOODALEL@Unknown?5exception@
CONST	SEGMENT
??_C@_0BC@EOODALEL@Unknown?5exception@ DB 'Unknown exception', 00H ; `string'
CONST	ENDS
;	COMDAT ??_7exception@std@@6B@
CONST	SEGMENT
??_7exception@std@@6B@ DD FLAT:??_R4exception@std@@6B@	; std::exception::`vftable'
	DD	FLAT:??_Eexception@std@@UAEPAXI@Z
	DD	FLAT:?what@exception@std@@UBEPBDXZ
CONST	ENDS
;	COMDAT xdata$x
xdata$x	SEGMENT
__unwindtable$?do_put@?$time_put@DV?$ostreambuf_iterator@DU?$char_traits@D@std@@@std@@@std@@MBE?AV?$ostreambuf_iterator@DU?$char_traits@D@std@@@2@V32@AAVios_base@2@DPBUtm@@DD@Z DD 0ffffffffH
	DD	FLAT:__unwindfunclet$?do_put@?$time_put@DV?$ostreambuf_iterator@DU?$char_traits@D@std@@@std@@@std@@MBE?AV?$ostreambuf_iterator@DU?$char_traits@D@std@@@2@V32@AAVios_base@2@DPBUtm@@DD@Z$0
__ehfuncinfo$?do_put@?$time_put@DV?$ostreambuf_iterator@DU?$char_traits@D@std@@@std@@@std@@MBE?AV?$ostreambuf_iterator@DU?$char_traits@D@std@@@2@V32@AAVios_base@2@DPBUtm@@DD@Z DD 019930522H
	DD	01H
	DD	FLAT:__unwindtable$?do_put@?$time_put@DV?$ostreambuf_iterator@DU?$char_traits@D@std@@@std@@@std@@MBE?AV?$ostreambuf_iterator@DU?$char_traits@D@std@@@2@V32@AAVios_base@2@DPBUtm@@DD@Z
	DD	2 DUP(00H)
	DD	2 DUP(00H)
	DD	00H
	DD	01H
xdata$x	ENDS
;	COMDAT xdata$x
xdata$x	SEGMENT
__unwindtable$?_Getcat@?$time_put@DV?$ostreambuf_iterator@DU?$char_traits@D@std@@@std@@@std@@SAIPAPBVfacet@locale@2@PBV42@@Z DD 0ffffffffH
	DD	FLAT:__unwindfunclet$?_Getcat@?$time_put@DV?$ostreambuf_iterator@DU?$char_traits@D@std@@@std@@@std@@SAIPAPBVfacet@locale@2@PBV42@@Z$0
__ehfuncinfo$?_Getcat@?$time_put@DV?$ostreambuf_iterator@DU?$char_traits@D@std@@@std@@@std@@SAIPAPBVfacet@locale@2@PBV42@@Z DD 019930522H
	DD	01H
	DD	FLAT:__unwindtable$?_Getcat@?$time_put@DV?$ostreambuf_iterator@DU?$char_traits@D@std@@@std@@@std@@SAIPAPBVfacet@locale@2@PBV42@@Z
	DD	2 DUP(00H)
	DD	2 DUP(00H)
	DD	00H
	DD	01H
xdata$x	ENDS
;	COMDAT xdata$x
xdata$x	SEGMENT
__unwindtable$?put@?$time_put@DV?$ostreambuf_iterator@DU?$char_traits@D@std@@@std@@@std@@QBE?AV?$ostreambuf_iterator@DU?$char_traits@D@std@@@2@V32@AAVios_base@2@DPBUtm@@PBD3@Z DD 0ffffffffH
	DD	FLAT:__unwindfunclet$?put@?$time_put@DV?$ostreambuf_iterator@DU?$char_traits@D@std@@@std@@@std@@QBE?AV?$ostreambuf_iterator@DU?$char_traits@D@std@@@2@V32@AAVios_base@2@DPBUtm@@PBD3@Z$0
__ehfuncinfo$?put@?$time_put@DV?$ostreambuf_iterator@DU?$char_traits@D@std@@@std@@@std@@QBE?AV?$ostreambuf_iterator@DU?$char_traits@D@std@@@2@V32@AAVios_base@2@DPBUtm@@PBD3@Z DD 019930522H
	DD	01H
	DD	FLAT:__unwindtable$?put@?$time_put@DV?$ostreambuf_iterator@DU?$char_traits@D@std@@@std@@@std@@QBE?AV?$ostreambuf_iterator@DU?$char_traits@D@std@@@2@V32@AAVios_base@2@DPBUtm@@PBD3@Z
	DD	2 DUP(00H)
	DD	2 DUP(00H)
	DD	00H
	DD	01H
xdata$x	ENDS
;	COMDAT xdata$x
xdata$x	SEGMENT
__unwindtable$??$use_facet@V?$time_put@DV?$ostreambuf_iterator@DU?$char_traits@D@std@@@std@@@std@@@std@@YAABV?$time_put@DV?$ostreambuf_iterator@DU?$char_traits@D@std@@@std@@@0@ABVlocale@0@@Z DD 0ffffffffH
	DD	FLAT:__unwindfunclet$??$use_facet@V?$time_put@DV?$ostreambuf_iterator@DU?$char_traits@D@std@@@std@@@std@@@std@@YAABV?$time_put@DV?$ostreambuf_iterator@DU?$char_traits@D@std@@@std@@@0@ABVlocale@0@@Z$0
	DD	00H
	DD	FLAT:__unwindfunclet$??$use_facet@V?$time_put@DV?$ostreambuf_iterator@DU?$char_traits@D@std@@@std@@@std@@@std@@YAABV?$time_put@DV?$ostreambuf_iterator@DU?$char_traits@D@std@@@std@@@0@ABVlocale@0@@Z$2
	DD	00H
	DD	FLAT:__unwindfunclet$??$use_facet@V?$time_put@DV?$ostreambuf_iterator@DU?$char_traits@D@std@@@std@@@std@@@std@@YAABV?$time_put@DV?$ostreambuf_iterator@DU?$char_traits@D@std@@@std@@@0@ABVlocale@0@@Z$1
__ehfuncinfo$??$use_facet@V?$time_put@DV?$ostreambuf_iterator@DU?$char_traits@D@std@@@std@@@std@@@std@@YAABV?$time_put@DV?$ostreambuf_iterator@DU?$char_traits@D@std@@@std@@@0@ABVlocale@0@@Z DD 019930522H
	DD	03H
	DD	FLAT:__unwindtable$??$use_facet@V?$time_put@DV?$ostreambuf_iterator@DU?$char_traits@D@std@@@std@@@std@@@std@@YAABV?$time_put@DV?$ostreambuf_iterator@DU?$char_traits@D@std@@@std@@@0@ABVlocale@0@@Z
	DD	2 DUP(00H)
	DD	2 DUP(00H)
	DD	00H
	DD	01H
xdata$x	ENDS
;	COMDAT xdata$x
xdata$x	SEGMENT
__unwindtable$??1sentry@?$basic_ostream@DU?$char_traits@D@std@@@std@@QAE@XZ DD 0ffffffffH
	DD	FLAT:___std_terminate
__ehfuncinfo$??1sentry@?$basic_ostream@DU?$char_traits@D@std@@@std@@QAE@XZ DD 019930522H
	DD	01H
	DD	FLAT:__unwindtable$??1sentry@?$basic_ostream@DU?$char_traits@D@std@@@std@@QAE@XZ
	DD	2 DUP(00H)
	DD	2 DUP(00H)
	DD	00H
	DD	05H
xdata$x	ENDS
;	COMDAT xdata$x
xdata$x	SEGMENT
__unwindtable$??0sentry@?$basic_ostream@DU?$char_traits@D@std@@@std@@QAE@AAV12@@Z DD 0ffffffffH
	DD	FLAT:__unwindfunclet$??0sentry@?$basic_ostream@DU?$char_traits@D@std@@@std@@QAE@AAV12@@Z$0
	DD	00H
	DD	FLAT:__unwindfunclet$??0sentry@?$basic_ostream@DU?$char_traits@D@std@@@std@@QAE@AAV12@@Z$1
	DD	00H
	DD	FLAT:___std_terminate
	DD	02H
	DD	FLAT:___std_terminate
__ehfuncinfo$??0sentry@?$basic_ostream@DU?$char_traits@D@std@@@std@@QAE@AAV12@@Z DD 019930522H
	DD	04H
	DD	FLAT:__unwindtable$??0sentry@?$basic_ostream@DU?$char_traits@D@std@@@std@@QAE@AAV12@@Z
	DD	2 DUP(00H)
	DD	2 DUP(00H)
	DD	00H
	DD	01H
xdata$x	ENDS
;	COMDAT xdata$x
xdata$x	SEGMENT
__ehfuncinfo$??1_Sentry_base@?$basic_ostream@DU?$char_traits@D@std@@@std@@QAE@XZ DD 019930522H
	DD	00H
	DD	00H
	DD	2 DUP(00H)
	DD	2 DUP(00H)
	DD	00H
	DD	05H
xdata$x	ENDS
;	COMDAT xdata$x
xdata$x	SEGMENT
__catchsym$??$?6DU?$char_traits@D@std@@D@std@@YAAAV?$basic_ostream@DU?$char_traits@D@std@@@0@AAV10@ABU?$_Timeobj@DPBUtm@@@0@@Z$6 DD 040H
	DD	00H
	DD	00H
	DD	FLAT:__catch$??$?6DU?$char_traits@D@std@@D@std@@YAAAV?$basic_ostream@DU?$char_traits@D@std@@@0@AAV10@ABU?$_Timeobj@DPBUtm@@@0@@Z$0
__tryblocktable$??$?6DU?$char_traits@D@std@@D@std@@YAAAV?$basic_ostream@DU?$char_traits@D@std@@@0@AAV10@ABU?$_Timeobj@DPBUtm@@@0@@Z DD 02H
	DD	02H
	DD	03H
	DD	01H
	DD	FLAT:__catchsym$??$?6DU?$char_traits@D@std@@D@std@@YAAAV?$basic_ostream@DU?$char_traits@D@std@@@0@AAV10@ABU?$_Timeobj@DPBUtm@@@0@@Z$6
__ehfuncinfo$??$?6DU?$char_traits@D@std@@D@std@@YAAAV?$basic_ostream@DU?$char_traits@D@std@@@0@AAV10@ABU?$_Timeobj@DPBUtm@@@0@@Z DD 019930522H
	DD	06H
	DD	FLAT:__unwindtable$??$?6DU?$char_traits@D@std@@D@std@@YAAAV?$basic_ostream@DU?$char_traits@D@std@@@0@AAV10@ABU?$_Timeobj@DPBUtm@@@0@@Z
	DD	01H
	DD	FLAT:__tryblocktable$??$?6DU?$char_traits@D@std@@D@std@@YAAAV?$basic_ostream@DU?$char_traits@D@std@@@0@AAV10@ABU?$_Timeobj@DPBUtm@@@0@@Z
	DD	2 DUP(00H)
	DD	00H
	DD	01H
__unwindtable$??$?6DU?$char_traits@D@std@@D@std@@YAAAV?$basic_ostream@DU?$char_traits@D@std@@@0@AAV10@ABU?$_Timeobj@DPBUtm@@@0@@Z DD 0ffffffffH
	DD	FLAT:__unwindfunclet$??$?6DU?$char_traits@D@std@@D@std@@YAAAV?$basic_ostream@DU?$char_traits@D@std@@@0@AAV10@ABU?$_Timeobj@DPBUtm@@@0@@Z$2
	DD	00H
	DD	FLAT:__unwindfunclet$??$?6DU?$char_traits@D@std@@D@std@@YAAAV?$basic_ostream@DU?$char_traits@D@std@@@0@AAV10@ABU?$_Timeobj@DPBUtm@@@0@@Z$3
	DD	00H
	DD	00H
	DD	00H
	DD	00H
	DD	0ffffffffH
	DD	FLAT:___std_terminate
	DD	04H
	DD	FLAT:___std_terminate
xdata$x	ENDS
;	COMDAT xdata$x
xdata$x	SEGMENT
__unwindtable$??_D?$basic_ostringstream@DU?$char_traits@D@std@@V?$allocator@D@2@@std@@QAEXXZ DD 0ffffffffH
	DD	FLAT:___std_terminate
__ehfuncinfo$??_D?$basic_ostringstream@DU?$char_traits@D@std@@V?$allocator@D@2@@std@@QAEXXZ DD 019930522H
	DD	01H
	DD	FLAT:__unwindtable$??_D?$basic_ostringstream@DU?$char_traits@D@std@@V?$allocator@D@2@@std@@QAEXXZ
	DD	2 DUP(00H)
	DD	2 DUP(00H)
	DD	00H
	DD	05H
xdata$x	ENDS
;	COMDAT xdata$x
xdata$x	SEGMENT
__unwindtable$?str@?$basic_stringbuf@DU?$char_traits@D@std@@V?$allocator@D@2@@std@@QBE?AV?$basic_string@DU?$char_traits@D@std@@V?$allocator@D@2@@2@XZ DD 0ffffffffH
	DD	FLAT:__unwindfunclet$?str@?$basic_stringbuf@DU?$char_traits@D@std@@V?$allocator@D@2@@std@@QBE?AV?$basic_string@DU?$char_traits@D@std@@V?$allocator@D@2@@2@XZ$0
__ehfuncinfo$?str@?$basic_stringbuf@DU?$char_traits@D@std@@V?$allocator@D@2@@std@@QBE?AV?$basic_string@DU?$char_traits@D@std@@V?$allocator@D@2@@2@XZ DD 019930522H
	DD	01H
	DD	FLAT:__unwindtable$?str@?$basic_stringbuf@DU?$char_traits@D@std@@V?$allocator@D@2@@std@@QBE?AV?$basic_string@DU?$char_traits@D@std@@V?$allocator@D@2@@2@XZ
	DD	2 DUP(00H)
	DD	2 DUP(00H)
	DD	00H
	DD	01H
xdata$x	ENDS
;	COMDAT xdata$x
xdata$x	SEGMENT
__unwindtable$??0?$basic_stringbuf@DU?$char_traits@D@std@@V?$allocator@D@2@@std@@QAE@H@Z DD 0ffffffffH
	DD	FLAT:___std_terminate
__ehfuncinfo$??0?$basic_stringbuf@DU?$char_traits@D@std@@V?$allocator@D@2@@std@@QAE@H@Z DD 019930522H
	DD	01H
	DD	FLAT:__unwindtable$??0?$basic_stringbuf@DU?$char_traits@D@std@@V?$allocator@D@2@@std@@QAE@H@Z
	DD	2 DUP(00H)
	DD	2 DUP(00H)
	DD	00H
	DD	01H
xdata$x	ENDS
;	COMDAT xdata$x
xdata$x	SEGMENT
__unwindtable$??0?$basic_streambuf@DU?$char_traits@D@std@@@std@@IAE@XZ DD 0ffffffffH
	DD	FLAT:___std_terminate
__ehfuncinfo$??0?$basic_streambuf@DU?$char_traits@D@std@@@std@@IAE@XZ DD 019930522H
	DD	01H
	DD	FLAT:__unwindtable$??0?$basic_streambuf@DU?$char_traits@D@std@@@std@@IAE@XZ
	DD	2 DUP(00H)
	DD	2 DUP(00H)
	DD	00H
	DD	01H
xdata$x	ENDS
;	COMDAT xdata$x
xdata$x	SEGMENT
__unwindtable$?str@?$basic_ostringstream@DU?$char_traits@D@std@@V?$allocator@D@2@@std@@QBE?AV?$basic_string@DU?$char_traits@D@std@@V?$allocator@D@2@@2@XZ DD 0ffffffffH
	DD	FLAT:__unwindfunclet$?str@?$basic_ostringstream@DU?$char_traits@D@std@@V?$allocator@D@2@@std@@QBE?AV?$basic_string@DU?$char_traits@D@std@@V?$allocator@D@2@@2@XZ$1
__ehfuncinfo$?str@?$basic_ostringstream@DU?$char_traits@D@std@@V?$allocator@D@2@@std@@QBE?AV?$basic_string@DU?$char_traits@D@std@@V?$allocator@D@2@@2@XZ DD 019930522H
	DD	01H
	DD	FLAT:__unwindtable$?str@?$basic_ostringstream@DU?$char_traits@D@std@@V?$allocator@D@2@@std@@QBE?AV?$basic_string@DU?$char_traits@D@std@@V?$allocator@D@2@@2@XZ
	DD	2 DUP(00H)
	DD	2 DUP(00H)
	DD	00H
	DD	01H
xdata$x	ENDS
;	COMDAT xdata$x
xdata$x	SEGMENT
__unwindtable$??0?$basic_ostringstream@DU?$char_traits@D@std@@V?$allocator@D@2@@std@@QAE@XZ DD 0ffffffffH
	DD	FLAT:__unwindfunclet$??0?$basic_ostringstream@DU?$char_traits@D@std@@V?$allocator@D@2@@std@@QAE@XZ$0
	DD	00H
	DD	FLAT:__unwindfunclet$??0?$basic_ostringstream@DU?$char_traits@D@std@@V?$allocator@D@2@@std@@QAE@XZ$1
	DD	01H
	DD	FLAT:___std_terminate
__ehfuncinfo$??0?$basic_ostringstream@DU?$char_traits@D@std@@V?$allocator@D@2@@std@@QAE@XZ DD 019930522H
	DD	03H
	DD	FLAT:__unwindtable$??0?$basic_ostringstream@DU?$char_traits@D@std@@V?$allocator@D@2@@std@@QAE@XZ
	DD	2 DUP(00H)
	DD	2 DUP(00H)
	DD	00H
	DD	01H
xdata$x	ENDS
;	COMDAT xdata$x
xdata$x	SEGMENT
__unwindtable$??_D?$basic_ostream@DU?$char_traits@D@std@@@std@@QAEXXZ DD 0ffffffffH
	DD	FLAT:___std_terminate
__ehfuncinfo$??_D?$basic_ostream@DU?$char_traits@D@std@@@std@@QAEXXZ DD 019930522H
	DD	01H
	DD	FLAT:__unwindtable$??_D?$basic_ostream@DU?$char_traits@D@std@@@std@@QAEXXZ
	DD	2 DUP(00H)
	DD	2 DUP(00H)
	DD	00H
	DD	05H
xdata$x	ENDS
;	COMDAT xdata$x
xdata$x	SEGMENT
__unwindtable$??_G?$basic_ostream@DU?$char_traits@D@std@@@std@@UAEPAXI@Z DD 0ffffffffH
	DD	FLAT:___std_terminate
__ehfuncinfo$??_G?$basic_ostream@DU?$char_traits@D@std@@@std@@UAEPAXI@Z DD 019930522H
	DD	01H
	DD	FLAT:__unwindtable$??_G?$basic_ostream@DU?$char_traits@D@std@@@std@@UAEPAXI@Z
	DD	2 DUP(00H)
	DD	2 DUP(00H)
	DD	00H
	DD	05H
xdata$x	ENDS
;	COMDAT xdata$x
xdata$x	SEGMENT
__unwindtable$?flush@?$basic_ostream@DU?$char_traits@D@std@@@std@@QAEAAV12@XZ DD 0ffffffffH
	DD	FLAT:__unwindfunclet$?flush@?$basic_ostream@DU?$char_traits@D@std@@@std@@QAEAAV12@XZ$0
	DD	0ffffffffH
	DD	FLAT:___std_terminate
	DD	01H
	DD	FLAT:___std_terminate
__ehfuncinfo$?flush@?$basic_ostream@DU?$char_traits@D@std@@@std@@QAEAAV12@XZ DD 019930522H
	DD	03H
	DD	FLAT:__unwindtable$?flush@?$basic_ostream@DU?$char_traits@D@std@@@std@@QAEAAV12@XZ
	DD	2 DUP(00H)
	DD	2 DUP(00H)
	DD	00H
	DD	01H
xdata$x	ENDS
;	COMDAT xdata$x
xdata$x	SEGMENT
__catchsym$?_Osfx@?$basic_ostream@DU?$char_traits@D@std@@@std@@QAEXXZ$2 DD 040H
	DD	00H
	DD	00H
	DD	FLAT:__catch$?_Osfx@?$basic_ostream@DU?$char_traits@D@std@@@std@@QAEXXZ$0
__unwindtable$?_Osfx@?$basic_ostream@DU?$char_traits@D@std@@@std@@QAEXXZ DD 0ffffffffH
	DD	00H
	DD	0ffffffffH
	DD	00H
__tryblocktable$?_Osfx@?$basic_ostream@DU?$char_traits@D@std@@@std@@QAEXXZ DD 00H
	DD	00H
	DD	01H
	DD	01H
	DD	FLAT:__catchsym$?_Osfx@?$basic_ostream@DU?$char_traits@D@std@@@std@@QAEXXZ$2
__ehfuncinfo$?_Osfx@?$basic_ostream@DU?$char_traits@D@std@@@std@@QAEXXZ DD 019930522H
	DD	02H
	DD	FLAT:__unwindtable$?_Osfx@?$basic_ostream@DU?$char_traits@D@std@@@std@@QAEXXZ
	DD	01H
	DD	FLAT:__tryblocktable$?_Osfx@?$basic_ostream@DU?$char_traits@D@std@@@std@@QAEXXZ
	DD	2 DUP(00H)
	DD	00H
	DD	01H
xdata$x	ENDS
;	COMDAT xdata$x
xdata$x	SEGMENT
__unwindtable$??0?$basic_ostream@DU?$char_traits@D@std@@@std@@QAE@PAV?$basic_streambuf@DU?$char_traits@D@std@@@1@_N@Z DD 0ffffffffH
	DD	FLAT:__unwindfunclet$??0?$basic_ostream@DU?$char_traits@D@std@@@std@@QAE@PAV?$basic_streambuf@DU?$char_traits@D@std@@@1@_N@Z$0
	DD	00H
	DD	FLAT:___std_terminate
	DD	00H
	DD	FLAT:__unwindfunclet$??0?$basic_ostream@DU?$char_traits@D@std@@@std@@QAE@PAV?$basic_streambuf@DU?$char_traits@D@std@@@1@_N@Z$2
__ehfuncinfo$??0?$basic_ostream@DU?$char_traits@D@std@@@std@@QAE@PAV?$basic_streambuf@DU?$char_traits@D@std@@@1@_N@Z DD 019930522H
	DD	03H
	DD	FLAT:__unwindtable$??0?$basic_ostream@DU?$char_traits@D@std@@@std@@QAE@PAV?$basic_streambuf@DU?$char_traits@D@std@@@1@_N@Z
	DD	2 DUP(00H)
	DD	2 DUP(00H)
	DD	00H
	DD	01H
xdata$x	ENDS
;	COMDAT xdata$x
xdata$x	SEGMENT
__unwindtable$??_G?$basic_ios@DU?$char_traits@D@std@@@std@@UAEPAXI@Z DD 0ffffffffH
	DD	FLAT:___std_terminate
__ehfuncinfo$??_G?$basic_ios@DU?$char_traits@D@std@@@std@@UAEPAXI@Z DD 019930522H
	DD	01H
	DD	FLAT:__unwindtable$??_G?$basic_ios@DU?$char_traits@D@std@@@std@@UAEPAXI@Z
	DD	2 DUP(00H)
	DD	2 DUP(00H)
	DD	00H
	DD	05H
xdata$x	ENDS
;	COMDAT xdata$x
xdata$x	SEGMENT
__unwindtable$?init@?$basic_ios@DU?$char_traits@D@std@@@std@@IAEXPAV?$basic_streambuf@DU?$char_traits@D@std@@@2@_N@Z DD 0ffffffffH
	DD	FLAT:___std_terminate
	DD	0ffffffffH
	DD	FLAT:__unwindfunclet$?init@?$basic_ios@DU?$char_traits@D@std@@@std@@IAEXPAV?$basic_streambuf@DU?$char_traits@D@std@@@2@_N@Z$1
__ehfuncinfo$?init@?$basic_ios@DU?$char_traits@D@std@@@std@@IAEXPAV?$basic_streambuf@DU?$char_traits@D@std@@@2@_N@Z DD 019930522H
	DD	02H
	DD	FLAT:__unwindtable$?init@?$basic_ios@DU?$char_traits@D@std@@@std@@IAEXPAV?$basic_streambuf@DU?$char_traits@D@std@@@2@_N@Z
	DD	2 DUP(00H)
	DD	2 DUP(00H)
	DD	00H
	DD	01H
xdata$x	ENDS
;	COMDAT xdata$x
xdata$x	SEGMENT
__unwindtable$?widen@?$basic_ios@DU?$char_traits@D@std@@@std@@QBEDD@Z DD 0ffffffffH
	DD	FLAT:__unwindfunclet$?widen@?$basic_ios@DU?$char_traits@D@std@@@std@@QBEDD@Z$0
__ehfuncinfo$?widen@?$basic_ios@DU?$char_traits@D@std@@@std@@QBEDD@Z DD 019930522H
	DD	01H
	DD	FLAT:__unwindtable$?widen@?$basic_ios@DU?$char_traits@D@std@@@std@@QBEDD@Z
	DD	2 DUP(00H)
	DD	2 DUP(00H)
	DD	00H
	DD	01H
xdata$x	ENDS
;	COMDAT xdata$x
xdata$x	SEGMENT
__unwindtable$??1?$basic_ios@DU?$char_traits@D@std@@@std@@UAE@XZ DD 0ffffffffH
	DD	FLAT:___std_terminate
__ehfuncinfo$??1?$basic_ios@DU?$char_traits@D@std@@@std@@UAE@XZ DD 019930522H
	DD	01H
	DD	FLAT:__unwindtable$??1?$basic_ios@DU?$char_traits@D@std@@@std@@UAE@XZ
	DD	2 DUP(00H)
	DD	2 DUP(00H)
	DD	00H
	DD	05H
xdata$x	ENDS
;	COMDAT xdata$x
xdata$x	SEGMENT
__ehfuncinfo$?make_minidump@@YAXPAU_EXCEPTION_POINTERS@@@Z DD 019930522H
	DD	01bH
	DD	FLAT:__unwindtable$?make_minidump@@YAXPAU_EXCEPTION_POINTERS@@@Z
	DD	2 DUP(00H)
	DD	2 DUP(00H)
	DD	00H
	DD	01H
__unwindtable$?make_minidump@@YAXPAU_EXCEPTION_POINTERS@@@Z DD 0ffffffffH
	DD	FLAT:__unwindfunclet$?make_minidump@@YAXPAU_EXCEPTION_POINTERS@@@Z$0
	DD	00H
	DD	FLAT:__unwindfunclet$?make_minidump@@YAXPAU_EXCEPTION_POINTERS@@@Z$13
	DD	01H
	DD	FLAT:__unwindfunclet$?make_minidump@@YAXPAU_EXCEPTION_POINTERS@@@Z$14
	DD	02H
	DD	FLAT:___std_terminate
	DD	00H
	DD	FLAT:__unwindfunclet$?make_minidump@@YAXPAU_EXCEPTION_POINTERS@@@Z$1
	DD	04H
	DD	FLAT:__unwindfunclet$?make_minidump@@YAXPAU_EXCEPTION_POINTERS@@@Z$19
	DD	04H
	DD	FLAT:__unwindfunclet$?make_minidump@@YAXPAU_EXCEPTION_POINTERS@@@Z$2
	DD	06H
	DD	FLAT:__unwindfunclet$?make_minidump@@YAXPAU_EXCEPTION_POINTERS@@@Z$3
	DD	07H
	DD	FLAT:__unwindfunclet$?make_minidump@@YAXPAU_EXCEPTION_POINTERS@@@Z$4
	DD	08H
	DD	FLAT:__unwindfunclet$?make_minidump@@YAXPAU_EXCEPTION_POINTERS@@@Z$5
	DD	09H
	DD	FLAT:__unwindfunclet$?make_minidump@@YAXPAU_EXCEPTION_POINTERS@@@Z$6
	DD	0aH
	DD	FLAT:__unwindfunclet$?make_minidump@@YAXPAU_EXCEPTION_POINTERS@@@Z$7
	DD	0bH
	DD	FLAT:__unwindfunclet$?make_minidump@@YAXPAU_EXCEPTION_POINTERS@@@Z$8
	DD	0cH
	DD	FLAT:__unwindfunclet$?make_minidump@@YAXPAU_EXCEPTION_POINTERS@@@Z$9
	DD	0dH
	DD	FLAT:__unwindfunclet$?make_minidump@@YAXPAU_EXCEPTION_POINTERS@@@Z$10
	DD	0eH
	DD	FLAT:__unwindfunclet$?make_minidump@@YAXPAU_EXCEPTION_POINTERS@@@Z$11
	DD	0fH
	DD	FLAT:__unwindfunclet$?make_minidump@@YAXPAU_EXCEPTION_POINTERS@@@Z$12
	DD	0eH
	DD	FLAT:__unwindfunclet$?make_minidump@@YAXPAU_EXCEPTION_POINTERS@@@Z$12
	DD	0dH
	DD	FLAT:__unwindfunclet$?make_minidump@@YAXPAU_EXCEPTION_POINTERS@@@Z$12
	DD	0cH
	DD	FLAT:__unwindfunclet$?make_minidump@@YAXPAU_EXCEPTION_POINTERS@@@Z$12
	DD	0bH
	DD	FLAT:__unwindfunclet$?make_minidump@@YAXPAU_EXCEPTION_POINTERS@@@Z$12
	DD	0aH
	DD	FLAT:__unwindfunclet$?make_minidump@@YAXPAU_EXCEPTION_POINTERS@@@Z$12
	DD	09H
	DD	FLAT:__unwindfunclet$?make_minidump@@YAXPAU_EXCEPTION_POINTERS@@@Z$12
	DD	08H
	DD	FLAT:__unwindfunclet$?make_minidump@@YAXPAU_EXCEPTION_POINTERS@@@Z$12
	DD	07H
	DD	FLAT:__unwindfunclet$?make_minidump@@YAXPAU_EXCEPTION_POINTERS@@@Z$12
	DD	06H
	DD	FLAT:__unwindfunclet$?make_minidump@@YAXPAU_EXCEPTION_POINTERS@@@Z$12
	DD	04H
	DD	FLAT:__unwindfunclet$?make_minidump@@YAXPAU_EXCEPTION_POINTERS@@@Z$12
xdata$x	ENDS
;	COMDAT xdata$x
xdata$x	SEGMENT
__unwindtable$??_Gios_base@std@@UAEPAXI@Z DD 0ffffffffH
	DD	FLAT:___std_terminate
__ehfuncinfo$??_Gios_base@std@@UAEPAXI@Z DD 019930522H
	DD	01H
	DD	FLAT:__unwindtable$??_Gios_base@std@@UAEPAXI@Z
	DD	2 DUP(00H)
	DD	2 DUP(00H)
	DD	00H
	DD	05H
xdata$x	ENDS
;	COMDAT xdata$x
xdata$x	SEGMENT
__unwindtable$?_Init@ios_base@std@@IAEXXZ DD 0ffffffffH
	DD	FLAT:___std_terminate
__ehfuncinfo$?_Init@ios_base@std@@IAEXXZ DD 019930522H
	DD	01H
	DD	FLAT:__unwindtable$?_Init@ios_base@std@@IAEXXZ
	DD	2 DUP(00H)
	DD	2 DUP(00H)
	DD	00H
	DD	01H
xdata$x	ENDS
;	COMDAT xdata$x
xdata$x	SEGMENT
__ehfuncinfo$??1ios_base@std@@UAE@XZ DD 019930522H
	DD	00H
	DD	00H
	DD	2 DUP(00H)
	DD	2 DUP(00H)
	DD	00H
	DD	05H
xdata$x	ENDS
;	COMDAT xdata$x
xdata$x	SEGMENT
__unwindtable$??0failure@ios_base@std@@QAE@PBDABVerror_code@2@@Z DD 0ffffffffH
	DD	FLAT:__unwindfunclet$??0failure@ios_base@std@@QAE@PBDABVerror_code@2@@Z$1
__ehfuncinfo$??0failure@ios_base@std@@QAE@PBDABVerror_code@2@@Z DD 019930522H
	DD	01H
	DD	FLAT:__unwindtable$??0failure@ios_base@std@@QAE@PBDABVerror_code@2@@Z
	DD	2 DUP(00H)
	DD	2 DUP(00H)
	DD	00H
	DD	01H
xdata$x	ENDS
;	COMDAT xdata$x
xdata$x	SEGMENT
__unwindtable$??$use_facet@V?$ctype@D@std@@@std@@YAABV?$ctype@D@0@ABVlocale@0@@Z DD 0ffffffffH
	DD	FLAT:__unwindfunclet$??$use_facet@V?$ctype@D@std@@@std@@YAABV?$ctype@D@0@ABVlocale@0@@Z$0
	DD	00H
	DD	FLAT:__unwindfunclet$??$use_facet@V?$ctype@D@std@@@std@@YAABV?$ctype@D@0@ABVlocale@0@@Z$2
	DD	00H
	DD	FLAT:__unwindfunclet$??$use_facet@V?$ctype@D@std@@@std@@YAABV?$ctype@D@0@ABVlocale@0@@Z$1
__ehfuncinfo$??$use_facet@V?$ctype@D@std@@@std@@YAABV?$ctype@D@0@ABVlocale@0@@Z DD 019930522H
	DD	03H
	DD	FLAT:__unwindtable$??$use_facet@V?$ctype@D@std@@@std@@YAABV?$ctype@D@0@ABVlocale@0@@Z
	DD	2 DUP(00H)
	DD	2 DUP(00H)
	DD	00H
	DD	01H
xdata$x	ENDS
;	COMDAT xdata$x
xdata$x	SEGMENT
__unwindtable$?_Getcat@?$ctype@D@std@@SAIPAPBVfacet@locale@2@PBV42@@Z DD 0ffffffffH
	DD	FLAT:__unwindfunclet$?_Getcat@?$ctype@D@std@@SAIPAPBVfacet@locale@2@PBV42@@Z$0
__ehfuncinfo$?_Getcat@?$ctype@D@std@@SAIPAPBVfacet@locale@2@PBV42@@Z DD 019930522H
	DD	01H
	DD	FLAT:__unwindtable$?_Getcat@?$ctype@D@std@@SAIPAPBVfacet@locale@2@PBV42@@Z
	DD	2 DUP(00H)
	DD	2 DUP(00H)
	DD	00H
	DD	01H
xdata$x	ENDS
;	COMDAT xdata$x
xdata$x	SEGMENT
__ehfuncinfo$??0locale@std@@QAE@XZ DD 019930522H
	DD	00H
	DD	00H
	DD	2 DUP(00H)
	DD	2 DUP(00H)
	DD	00H
	DD	05H
xdata$x	ENDS
;	COMDAT xdata$x
xdata$x	SEGMENT
__ehfuncinfo$??1_Locinfo@std@@QAE@XZ DD 019930522H
	DD	00H
	DD	00H
	DD	2 DUP(00H)
	DD	2 DUP(00H)
	DD	00H
	DD	05H
xdata$x	ENDS
;	COMDAT xdata$x
xdata$x	SEGMENT
__ehfuncinfo$??0_Locinfo@std@@QAE@PBD@Z DD 019930522H
	DD	07H
	DD	FLAT:__unwindtable$??0_Locinfo@std@@QAE@PBD@Z
	DD	2 DUP(00H)
	DD	2 DUP(00H)
	DD	00H
	DD	01H
__unwindtable$??0_Locinfo@std@@QAE@PBD@Z DD 0ffffffffH
	DD	FLAT:__unwindfunclet$??0_Locinfo@std@@QAE@PBD@Z$0
	DD	00H
	DD	FLAT:__unwindfunclet$??0_Locinfo@std@@QAE@PBD@Z$1
	DD	01H
	DD	FLAT:__unwindfunclet$??0_Locinfo@std@@QAE@PBD@Z$2
	DD	02H
	DD	FLAT:__unwindfunclet$??0_Locinfo@std@@QAE@PBD@Z$3
	DD	03H
	DD	FLAT:__unwindfunclet$??0_Locinfo@std@@QAE@PBD@Z$4
	DD	04H
	DD	FLAT:__unwindfunclet$??0_Locinfo@std@@QAE@PBD@Z$5
	DD	05H
	DD	FLAT:__unwindfunclet$??0_Locinfo@std@@QAE@PBD@Z$6
xdata$x	ENDS
;	COMDAT xdata$x
xdata$x	SEGMENT
__unwindtable$??0system_error@std@@QAE@Verror_code@1@PBD@Z DD 0ffffffffH
	DD	FLAT:__unwindfunclet$??0system_error@std@@QAE@Verror_code@1@PBD@Z$0
__ehfuncinfo$??0system_error@std@@QAE@Verror_code@1@PBD@Z DD 019930522H
	DD	01H
	DD	FLAT:__unwindtable$??0system_error@std@@QAE@Verror_code@1@PBD@Z
	DD	2 DUP(00H)
	DD	2 DUP(00H)
	DD	00H
	DD	01H
xdata$x	ENDS
;	COMDAT xdata$x
xdata$x	SEGMENT
__unwindtable$??0_System_error@std@@IAE@Verror_code@1@ABV?$basic_string@DU?$char_traits@D@std@@V?$allocator@D@2@@1@@Z DD 0ffffffffH
	DD	FLAT:__unwindfunclet$??0_System_error@std@@IAE@Verror_code@1@ABV?$basic_string@DU?$char_traits@D@std@@V?$allocator@D@2@@1@@Z$3
	DD	00H
	DD	FLAT:__unwindfunclet$??0_System_error@std@@IAE@Verror_code@1@ABV?$basic_string@DU?$char_traits@D@std@@V?$allocator@D@2@@1@@Z$4
__ehfuncinfo$??0_System_error@std@@IAE@Verror_code@1@ABV?$basic_string@DU?$char_traits@D@std@@V?$allocator@D@2@@1@@Z DD 019930522H
	DD	02H
	DD	FLAT:__unwindtable$??0_System_error@std@@IAE@Verror_code@1@ABV?$basic_string@DU?$char_traits@D@std@@V?$allocator@D@2@@1@@Z
	DD	2 DUP(00H)
	DD	2 DUP(00H)
	DD	00H
	DD	01H
xdata$x	ENDS
;	COMDAT xdata$x
xdata$x	SEGMENT
__unwindtable$?_Makestr@_System_error@std@@CA?AV?$basic_string@DU?$char_traits@D@std@@V?$allocator@D@2@@2@Verror_code@2@V32@@Z DD 0ffffffffH
	DD	FLAT:__unwindfunclet$?_Makestr@_System_error@std@@CA?AV?$basic_string@DU?$char_traits@D@std@@V?$allocator@D@2@@2@Verror_code@2@V32@@Z$0
	DD	00H
	DD	FLAT:__unwindfunclet$?_Makestr@_System_error@std@@CA?AV?$basic_string@DU?$char_traits@D@std@@V?$allocator@D@2@@2@Verror_code@2@V32@@Z$1
__ehfuncinfo$?_Makestr@_System_error@std@@CA?AV?$basic_string@DU?$char_traits@D@std@@V?$allocator@D@2@@2@Verror_code@2@V32@@Z DD 019930522H
	DD	02H
	DD	FLAT:__unwindtable$?_Makestr@_System_error@std@@CA?AV?$basic_string@DU?$char_traits@D@std@@V?$allocator@D@2@@2@Verror_code@2@V32@@Z
	DD	2 DUP(00H)
	DD	2 DUP(00H)
	DD	00H
	DD	01H
xdata$x	ENDS
; Function compile flags: /Odsp
;	COMDAT ??_E?$basic_ostringstream@DU?$char_traits@D@std@@V?$allocator@D@2@@std@@$4PPPPPPPM@A@AEPAXI@Z
_TEXT	SEGMENT
??_E?$basic_ostringstream@DU?$char_traits@D@std@@V?$allocator@D@2@@std@@$4PPPPPPPM@A@AEPAXI@Z PROC ; std::basic_ostringstream<char,std::char_traits<char>,std::allocator<char> >::`vector deleting destructor', COMDAT
  00000	2b 49 fc	 sub	 ecx, DWORD PTR [ecx-4]
  00003	e9 00 00 00 00	 jmp	 ??_E?$basic_ostringstream@DU?$char_traits@D@std@@V?$allocator@D@2@@std@@UAEPAXI@Z
??_E?$basic_ostringstream@DU?$char_traits@D@std@@V?$allocator@D@2@@std@@$4PPPPPPPM@A@AEPAXI@Z ENDP ; std::basic_ostringstream<char,std::char_traits<char>,std::allocator<char> >::`vector deleting destructor'
_TEXT	ENDS
; Function compile flags: /Odsp
;	COMDAT ??_E?$basic_ostream@DU?$char_traits@D@std@@@std@@$4PPPPPPPM@A@AEPAXI@Z
_TEXT	SEGMENT
??_E?$basic_ostream@DU?$char_traits@D@std@@@std@@$4PPPPPPPM@A@AEPAXI@Z PROC ; std::basic_ostream<char,std::char_traits<char> >::`vector deleting destructor', COMDAT
  00000	2b 49 fc	 sub	 ecx, DWORD PTR [ecx-4]
  00003	e9 00 00 00 00	 jmp	 ??_E?$basic_ostream@DU?$char_traits@D@std@@@std@@UAEPAXI@Z
??_E?$basic_ostream@DU?$char_traits@D@std@@@std@@$4PPPPPPPM@A@AEPAXI@Z ENDP ; std::basic_ostream<char,std::char_traits<char> >::`vector deleting destructor'
_TEXT	ENDS
; Function compile flags: /Ogtp
; File C:\Program Files (x86)\Microsoft Visual Studio\2019\Community\VC\Tools\MSVC\14.27.29110\include\atomic
;	COMDAT ??$_Atomic_reinterpret_as@JI@std@@YAJABI@Z
_TEXT	SEGMENT
__Source$ = 8						; size = 4
??$_Atomic_reinterpret_as@JI@std@@YAJABI@Z PROC		; std::_Atomic_reinterpret_as<long,unsigned int>, COMDAT

; 219  : _NODISCARD _Integral _Atomic_reinterpret_as(const _Ty& _Source) noexcept {

  00000	55		 push	 ebp
  00001	8b ec		 mov	 ebp, esp

; 220  :     // interprets _Source as the supplied integral type
; 221  :     static_assert(is_integral_v<_Integral>, "Tried to reinterpret memory as non-integral");
; 222  : #if _HAS_IF_CONSTEXPR
; 223  :     if constexpr (is_integral_v<_Ty> && sizeof(_Integral) == sizeof(_Ty)) {
; 224  :         return static_cast<_Integral>(_Source);

  00003	8b 45 08	 mov	 eax, DWORD PTR __Source$[ebp]
  00006	8b 00		 mov	 eax, DWORD PTR [eax]

; 225  :     } else if constexpr (is_pointer_v<_Ty> && sizeof(_Integral) == sizeof(_Ty)) {
; 226  :         return reinterpret_cast<_Integral>(_Source);
; 227  :     } else
; 228  : #endif // _HAS_IF_CONSTEXPR
; 229  :     {
; 230  :         _Integral _Result{}; // zero padding bits
; 231  :         _CSTD memcpy(&_Result, _STD addressof(_Source), sizeof(_Source));
; 232  :         return _Result;
; 233  :     }
; 234  : }

  00008	5d		 pop	 ebp
  00009	c3		 ret	 0
??$_Atomic_reinterpret_as@JI@std@@YAJABI@Z ENDP		; std::_Atomic_reinterpret_as<long,unsigned int>
_TEXT	ENDS
; Function compile flags: /Ogtp
; File C:\Program Files (x86)\Microsoft Visual Studio\2019\Community\VC\Tools\MSVC\14.27.29110\include\xatomic.h
;	COMDAT ??$_Atomic_address_as@JU?$_Atomic_padded@I@std@@@std@@YAPCJAAU?$_Atomic_padded@I@0@@Z
_TEXT	SEGMENT
__Source$ = 8						; size = 4
??$_Atomic_address_as@JU?$_Atomic_padded@I@std@@@std@@YAPCJAAU?$_Atomic_padded@I@0@@Z PROC ; std::_Atomic_address_as<long,std::_Atomic_padded<unsigned int> >, COMDAT

; 101  : _NODISCARD volatile _Integral* _Atomic_address_as(_Ty& _Source) noexcept {

  00000	55		 push	 ebp
  00001	8b ec		 mov	 ebp, esp

; 102  :     // gets a pointer to the argument as an integral type (to pass to intrinsics)
; 103  :     static_assert(is_integral_v<_Integral>, "Tried to reinterpret memory as non-integral");
; 104  :     return &reinterpret_cast<volatile _Integral&>(_Source);

  00003	8b 45 08	 mov	 eax, DWORD PTR __Source$[ebp]

; 105  : }

  00006	5d		 pop	 ebp
  00007	c3		 ret	 0
??$_Atomic_address_as@JU?$_Atomic_padded@I@std@@@std@@YAPCJAAU?$_Atomic_padded@I@0@@Z ENDP ; std::_Atomic_address_as<long,std::_Atomic_padded<unsigned int> >
_TEXT	ENDS
; Function compile flags: /Ogtp
; File C:\Program Files (x86)\Microsoft Visual Studio\2019\Community\VC\Tools\MSVC\14.27.29110\include\atomic
;	COMDAT ??$_Atomic_reinterpret_as@HI@std@@YAHABI@Z
_TEXT	SEGMENT
__Source$ = 8						; size = 4
??$_Atomic_reinterpret_as@HI@std@@YAHABI@Z PROC		; std::_Atomic_reinterpret_as<int,unsigned int>, COMDAT

; 219  : _NODISCARD _Integral _Atomic_reinterpret_as(const _Ty& _Source) noexcept {

  00000	55		 push	 ebp
  00001	8b ec		 mov	 ebp, esp

; 220  :     // interprets _Source as the supplied integral type
; 221  :     static_assert(is_integral_v<_Integral>, "Tried to reinterpret memory as non-integral");
; 222  : #if _HAS_IF_CONSTEXPR
; 223  :     if constexpr (is_integral_v<_Ty> && sizeof(_Integral) == sizeof(_Ty)) {
; 224  :         return static_cast<_Integral>(_Source);

  00003	8b 45 08	 mov	 eax, DWORD PTR __Source$[ebp]
  00006	8b 00		 mov	 eax, DWORD PTR [eax]

; 225  :     } else if constexpr (is_pointer_v<_Ty> && sizeof(_Integral) == sizeof(_Ty)) {
; 226  :         return reinterpret_cast<_Integral>(_Source);
; 227  :     } else
; 228  : #endif // _HAS_IF_CONSTEXPR
; 229  :     {
; 230  :         _Integral _Result{}; // zero padding bits
; 231  :         _CSTD memcpy(&_Result, _STD addressof(_Source), sizeof(_Source));
; 232  :         return _Result;
; 233  :     }
; 234  : }

  00008	5d		 pop	 ebp
  00009	c3		 ret	 0
??$_Atomic_reinterpret_as@HI@std@@YAHABI@Z ENDP		; std::_Atomic_reinterpret_as<int,unsigned int>
_TEXT	ENDS
; Function compile flags: /Ogtp
; File C:\Program Files (x86)\Microsoft Visual Studio\2019\Community\VC\Tools\MSVC\14.27.29110\include\xatomic.h
;	COMDAT ??$_Atomic_address_as@$$CBJ$$CBU?$_Atomic_padded@I@std@@@std@@YAPDJABU?$_Atomic_padded@I@0@@Z
_TEXT	SEGMENT
__Source$ = 8						; size = 4
??$_Atomic_address_as@$$CBJ$$CBU?$_Atomic_padded@I@std@@@std@@YAPDJABU?$_Atomic_padded@I@0@@Z PROC ; std::_Atomic_address_as<long const ,std::_Atomic_padded<unsigned int> const >, COMDAT

; 101  : _NODISCARD volatile _Integral* _Atomic_address_as(_Ty& _Source) noexcept {

  00000	55		 push	 ebp
  00001	8b ec		 mov	 ebp, esp

; 102  :     // gets a pointer to the argument as an integral type (to pass to intrinsics)
; 103  :     static_assert(is_integral_v<_Integral>, "Tried to reinterpret memory as non-integral");
; 104  :     return &reinterpret_cast<volatile _Integral&>(_Source);

  00003	8b 45 08	 mov	 eax, DWORD PTR __Source$[ebp]

; 105  : }

  00006	5d		 pop	 ebp
  00007	c3		 ret	 0
??$_Atomic_address_as@$$CBJ$$CBU?$_Atomic_padded@I@std@@@std@@YAPDJABU?$_Atomic_padded@I@0@@Z ENDP ; std::_Atomic_address_as<long const ,std::_Atomic_padded<unsigned int> const >
_TEXT	ENDS
; Function compile flags: /Ogtp
; File C:\Program Files (x86)\Microsoft Visual Studio\2019\Community\VC\Tools\MSVC\14.27.29110\include\xmemory
;	COMDAT ??$_Allocate_manually_vector_aligned@U_Default_allocate_traits@std@@@std@@YAPAXI@Z
_TEXT	SEGMENT
__Bytes$ = 8						; size = 4
??$_Allocate_manually_vector_aligned@U_Default_allocate_traits@std@@@std@@YAPAXI@Z PROC ; std::_Allocate_manually_vector_aligned<std::_Default_allocate_traits>, COMDAT

; 113  : __declspec(allocator) void* _Allocate_manually_vector_aligned(const size_t _Bytes) {

  00000	55		 push	 ebp
  00001	8b ec		 mov	 ebp, esp

; 114  :     // allocate _Bytes manually aligned to at least _Big_allocation_alignment
; 115  :     const size_t _Block_size = _Non_user_size + _Bytes;

  00003	8b 45 08	 mov	 eax, DWORD PTR __Bytes$[ebp]
  00006	8d 48 23	 lea	 ecx, DWORD PTR [eax+35]

; 116  :     if (_Block_size <= _Bytes) {

  00009	3b c8		 cmp	 ecx, eax
  0000b	0f 86 00 00 00
	00		 jbe	 ?_Throw_bad_array_new_length@std@@YAXXZ ; std::_Throw_bad_array_new_length

; 77   :         return ::operator new(_Bytes);

  00011	51		 push	 ecx
  00012	e8 00 00 00 00	 call	 ??2@YAPAXI@Z		; operator new

; 117  :         _Throw_bad_array_new_length(); // add overflow
; 118  :     }
; 119  : 
; 120  :     const uintptr_t _Ptr_container = reinterpret_cast<uintptr_t>(_Traits::_Allocate(_Block_size));

  00017	8b c8		 mov	 ecx, eax

; 77   :         return ::operator new(_Bytes);

  00019	83 c4 04	 add	 esp, 4

; 121  :     _STL_VERIFY(_Ptr_container != 0, "invalid argument"); // validate even in release since we're doing p[-1]

  0001c	85 c9		 test	 ecx, ecx
  0001e	74 0b		 je	 SHORT $LN7@Allocate_m

; 122  :     void* const _Ptr = reinterpret_cast<void*>((_Ptr_container + _Non_user_size) & ~(_Big_allocation_alignment - 1));

  00020	8d 41 23	 lea	 eax, DWORD PTR [ecx+35]
  00023	83 e0 e0	 and	 eax, -32		; ffffffe0H

; 123  :     static_cast<uintptr_t*>(_Ptr)[-1] = _Ptr_container;

  00026	89 48 fc	 mov	 DWORD PTR [eax-4], ecx

; 124  : 
; 125  : #ifdef _DEBUG
; 126  :     static_cast<uintptr_t*>(_Ptr)[-2] = _Big_allocation_sentinel;
; 127  : #endif // _DEBUG
; 128  :     return _Ptr;
; 129  : }

  00029	5d		 pop	 ebp
  0002a	c3		 ret	 0
$LN7@Allocate_m:

; 121  :     _STL_VERIFY(_Ptr_container != 0, "invalid argument"); // validate even in release since we're doing p[-1]

  0002b	e9 00 00 00 00	 jmp	 __invalid_parameter_noinfo_noreturn
??$_Allocate_manually_vector_aligned@U_Default_allocate_traits@std@@@std@@YAPAXI@Z ENDP ; std::_Allocate_manually_vector_aligned<std::_Default_allocate_traits>
_TEXT	ENDS
; Function compile flags: /Ogtp
; File C:\Program Files (x86)\Microsoft Visual Studio\2019\Community\VC\Tools\MSVC\14.27.29110\include\xloctime
; File C:\Program Files (x86)\Microsoft Visual Studio\2019\Community\VC\Tools\MSVC\14.27.29110\include\xlocinfo
; File C:\Program Files (x86)\Microsoft Visual Studio\2019\Community\VC\Tools\MSVC\14.27.29110\include\xloctime
; File C:\Program Files (x86)\Microsoft Visual Studio\2019\Community\VC\Tools\MSVC\14.27.29110\include\xlocinfo
; File C:\Program Files (x86)\Microsoft Visual Studio\2019\Community\VC\Tools\MSVC\14.27.29110\include\xloctime
;	COMDAT ??_G?$time_put@DV?$ostreambuf_iterator@DU?$char_traits@D@std@@@std@@@std@@MAEPAXI@Z
_TEXT	SEGMENT
___flags$ = 8						; size = 4
??_G?$time_put@DV?$ostreambuf_iterator@DU?$char_traits@D@std@@@std@@@std@@MAEPAXI@Z PROC ; std::time_put<char,std::ostreambuf_iterator<char,std::char_traits<char> > >::`scalar deleting destructor', COMDAT
; _this$ = ecx
  00000	55		 push	 ebp
  00001	8b ec		 mov	 ebp, esp

; 706  :     virtual __CLR_OR_THIS_CALL ~time_put() noexcept {}

  00003	56		 push	 esi
  00004	8b f1		 mov	 esi, ecx
; File C:\Program Files (x86)\Microsoft Visual Studio\2019\Community\VC\Tools\MSVC\14.27.29110\include\xlocinfo

; 34   :         _CSTD free(_Timeptr);

  00006	ff 76 08	 push	 DWORD PTR [esi+8]
; File C:\Program Files (x86)\Microsoft Visual Studio\2019\Community\VC\Tools\MSVC\14.27.29110\include\xloctime

; 706  :     virtual __CLR_OR_THIS_CALL ~time_put() noexcept {}

  00009	c7 06 00 00 00
	00		 mov	 DWORD PTR [esi], OFFSET ??_7?$time_put@DV?$ostreambuf_iterator@DU?$char_traits@D@std@@@std@@@std@@6B@
; File C:\Program Files (x86)\Microsoft Visual Studio\2019\Community\VC\Tools\MSVC\14.27.29110\include\xlocinfo

; 34   :         _CSTD free(_Timeptr);

  0000f	e8 00 00 00 00	 call	 _free
  00014	83 c4 04	 add	 esp, 4
; File C:\Program Files (x86)\Microsoft Visual Studio\2019\Community\VC\Tools\MSVC\14.27.29110\include\xloctime

; 706  :     virtual __CLR_OR_THIS_CALL ~time_put() noexcept {}

  00017	c7 06 00 00 00
	00		 mov	 DWORD PTR [esi], OFFSET ??_7_Facet_base@std@@6B@
  0001d	f6 45 08 01	 test	 BYTE PTR ___flags$[ebp], 1
  00021	74 0b		 je	 SHORT $LN9@scalar
  00023	6a 0c		 push	 12			; 0000000cH
  00025	56		 push	 esi
  00026	e8 00 00 00 00	 call	 ??3@YAXPAXI@Z		; operator delete
  0002b	83 c4 08	 add	 esp, 8
$LN9@scalar:
  0002e	8b c6		 mov	 eax, esi
  00030	5e		 pop	 esi
  00031	5d		 pop	 ebp
  00032	c2 04 00	 ret	 4
??_G?$time_put@DV?$ostreambuf_iterator@DU?$char_traits@D@std@@@std@@@std@@MAEPAXI@Z ENDP ; std::time_put<char,std::ostreambuf_iterator<char,std::char_traits<char> > >::`scalar deleting destructor'
_TEXT	ENDS
; Function compile flags: /Ogtp
; File C:\Program Files (x86)\Microsoft Visual Studio\2019\Community\VC\Tools\MSVC\14.27.29110\include\xloctime
; File C:\Program Files (x86)\Microsoft Visual Studio\2019\Community\VC\Tools\MSVC\14.27.29110\include\xstring
; File C:\Program Files (x86)\Microsoft Visual Studio\2019\Community\VC\Tools\MSVC\14.27.29110\include\xloctime
; File C:\Program Files (x86)\Microsoft Visual Studio\2019\Community\VC\Tools\MSVC\14.27.29110\include\xstring
; File C:\Program Files (x86)\Microsoft Visual Studio\2019\Community\VC\Tools\MSVC\14.27.29110\include\xloctime
; File C:\Program Files (x86)\Microsoft Visual Studio\2019\Community\VC\Tools\MSVC\14.27.29110\include\xstring
; File C:\Program Files (x86)\Microsoft Visual Studio\2019\Community\VC\Tools\MSVC\14.27.29110\include\xloctime
; File C:\Program Files (x86)\Microsoft Visual Studio\2019\Community\VC\Tools\MSVC\14.27.29110\include\xstring
; File C:\Program Files (x86)\Microsoft Visual Studio\2019\Community\VC\Tools\MSVC\14.27.29110\include\utility
; File C:\Program Files (x86)\Microsoft Visual Studio\2019\Community\VC\Tools\MSVC\14.27.29110\include\xstring
; File C:\Program Files (x86)\Microsoft Visual Studio\2019\Community\VC\Tools\MSVC\14.27.29110\include\xmemory
; File C:\Program Files (x86)\Microsoft Visual Studio\2019\Community\VC\Tools\MSVC\14.27.29110\include\xstring
; File C:\Program Files (x86)\Microsoft Visual Studio\2019\Community\VC\Tools\MSVC\14.27.29110\include\xmemory
; File C:\Program Files (x86)\Microsoft Visual Studio\2019\Community\VC\Tools\MSVC\14.27.29110\include\xstring
; File C:\Program Files (x86)\Microsoft Visual Studio\2019\Community\VC\Tools\MSVC\14.27.29110\include\xmemory
; File C:\Program Files (x86)\Microsoft Visual Studio\2019\Community\VC\Tools\MSVC\14.27.29110\include\xstring
; File C:\Program Files (x86)\Microsoft Visual Studio\2019\Community\VC\Tools\MSVC\14.27.29110\include\xloctime
; File C:\Program Files (x86)\Microsoft Visual Studio\2019\Community\VC\Tools\MSVC\14.27.29110\include\xstring
; File C:\Program Files (x86)\Microsoft Visual Studio\2019\Community\VC\Tools\MSVC\14.27.29110\include\xloctime
; File C:\Program Files (x86)\Microsoft Visual Studio\2019\Community\VC\Tools\MSVC\14.27.29110\include\xstring
; File C:\Program Files (x86)\Microsoft Visual Studio\2019\Community\VC\Tools\MSVC\14.27.29110\include\xutility
; File C:\Program Files (x86)\Microsoft Visual Studio\2019\Community\VC\Tools\MSVC\14.27.29110\include\xstring
; File C:\Program Files (x86)\Microsoft Visual Studio\2019\Community\VC\Tools\MSVC\14.27.29110\include\xutility
; File C:\Program Files (x86)\Microsoft Visual Studio\2019\Community\VC\Tools\MSVC\14.27.29110\include\xstring
; File C:\Program Files (x86)\Microsoft Visual Studio\2019\Community\VC\Tools\MSVC\14.27.29110\include\xutility
; File C:\Program Files (x86)\Microsoft Visual Studio\2019\Community\VC\Tools\MSVC\14.27.29110\include\iterator
; File C:\Program Files (x86)\Microsoft Visual Studio\2019\Community\VC\Tools\MSVC\14.27.29110\include\streambuf
; File C:\Program Files (x86)\Microsoft Visual Studio\2019\Community\VC\Tools\MSVC\14.27.29110\include\iterator
; File C:\Program Files (x86)\Microsoft Visual Studio\2019\Community\VC\Tools\MSVC\14.27.29110\include\streambuf
; File C:\Program Files (x86)\Microsoft Visual Studio\2019\Community\VC\Tools\MSVC\14.27.29110\include\xstring
; File C:\Program Files (x86)\Microsoft Visual Studio\2019\Community\VC\Tools\MSVC\14.27.29110\include\streambuf
; File C:\Program Files (x86)\Microsoft Visual Studio\2019\Community\VC\Tools\MSVC\14.27.29110\include\xstring
; File C:\Program Files (x86)\Microsoft Visual Studio\2019\Community\VC\Tools\MSVC\14.27.29110\include\streambuf
; File C:\Program Files (x86)\Microsoft Visual Studio\2019\Community\VC\Tools\MSVC\14.27.29110\include\iterator
; File C:\Program Files (x86)\Microsoft Visual Studio\2019\Community\VC\Tools\MSVC\14.27.29110\include\xstring
; File C:\Program Files (x86)\Microsoft Visual Studio\2019\Community\VC\Tools\MSVC\14.27.29110\include\iterator
; File C:\Program Files (x86)\Microsoft Visual Studio\2019\Community\VC\Tools\MSVC\14.27.29110\include\xutility
; File C:\Program Files (x86)\Microsoft Visual Studio\2019\Community\VC\Tools\MSVC\14.27.29110\include\xstring
; File C:\Program Files (x86)\Microsoft Visual Studio\2019\Community\VC\Tools\MSVC\14.27.29110\include\xmemory
; File C:\Program Files (x86)\Microsoft Visual Studio\2019\Community\VC\Tools\MSVC\14.27.29110\include\xloctime
; File C:\Program Files (x86)\Microsoft Visual Studio\2019\Community\VC\Tools\MSVC\14.27.29110\include\xstring
; File C:\Program Files (x86)\Microsoft Visual Studio\2019\Community\VC\Tools\MSVC\14.27.29110\include\xloctime
;	COMDAT ?do_put@?$time_put@DV?$ostreambuf_iterator@DU?$char_traits@D@std@@@std@@@std@@MBE?AV?$ostreambuf_iterator@DU?$char_traits@D@std@@@2@V32@AAVios_base@2@DPBUtm@@DD@Z
_TEXT	SEGMENT
___$ReturnUdt$GSCopy$1$ = -80				; size = 4
_this$GSCopy$1$ = -76					; size = 4
tv882 = -72						; size = 4
__Dest$ = -68						; size = 8
__Pt$GSCopy$1$ = -64					; size = 4
tv880 = -60						; size = 4
__Old_capacity$1$ = -56					; size = 4
__Last$1$ = -52						; size = 4
__New_ptr$2 = -52					; size = 4
__Str$ = -48						; size = 24
__Fmt$ = -24						; size = 5
__$ArrayPad$ = -16					; size = 4
__$EHRec$ = -12						; size = 12
___$ReturnUdt$ = 8					; size = 4
__Dest$ = 12						; size = 8
___formal$ = 20						; size = 4
___formal$ = 24						; size = 1
__Pt$ = 28						; size = 4
__Specifier$ = 32					; size = 1
__Modifier$ = 36					; size = 1
?do_put@?$time_put@DV?$ostreambuf_iterator@DU?$char_traits@D@std@@@std@@@std@@MBE?AV?$ostreambuf_iterator@DU?$char_traits@D@std@@@2@V32@AAVios_base@2@DPBUtm@@DD@Z PROC ; std::time_put<char,std::ostreambuf_iterator<char,std::char_traits<char> > >::do_put, COMDAT
; _this$ = ecx

; 713  :         char _Modifier = '\0') const { // put formatted time from _Pt to _Dest for [_Fmtfirst, _Fmtlast)

  00000	55		 push	 ebp
  00001	8b ec		 mov	 ebp, esp
  00003	6a ff		 push	 -1
  00005	68 00 00 00 00	 push	 __ehhandler$?do_put@?$time_put@DV?$ostreambuf_iterator@DU?$char_traits@D@std@@@std@@@std@@MBE?AV?$ostreambuf_iterator@DU?$char_traits@D@std@@@2@V32@AAVios_base@2@DPBUtm@@DD@Z
  0000a	64 a1 00 00 00
	00		 mov	 eax, DWORD PTR fs:0
  00010	50		 push	 eax
  00011	83 ec 44	 sub	 esp, 68			; 00000044H
  00014	a1 00 00 00 00	 mov	 eax, DWORD PTR ___security_cookie
  00019	33 c5		 xor	 eax, ebp
  0001b	89 45 f0	 mov	 DWORD PTR __$ArrayPad$[ebp], eax
  0001e	53		 push	 ebx
  0001f	56		 push	 esi
  00020	57		 push	 edi
  00021	50		 push	 eax
  00022	8d 45 f4	 lea	 eax, DWORD PTR __$EHRec$[ebp]
  00025	64 a3 00 00 00
	00		 mov	 DWORD PTR fs:0, eax
  0002b	89 4d b4	 mov	 DWORD PTR _this$GSCopy$1$[ebp], ecx
  0002e	8b 45 08	 mov	 eax, DWORD PTR ___$ReturnUdt$[ebp]
; File C:\Program Files (x86)\Microsoft Visual Studio\2019\Community\VC\Tools\MSVC\14.27.29110\include\xstring

; 4293 :         _Mypair._Myval2._Mysize = 0;

  00031	33 db		 xor	 ebx, ebx
; File C:\Program Files (x86)\Microsoft Visual Studio\2019\Community\VC\Tools\MSVC\14.27.29110\include\xloctime

; 713  :         char _Modifier = '\0') const { // put formatted time from _Pt to _Dest for [_Fmtfirst, _Fmtlast)

  00033	89 45 b0	 mov	 DWORD PTR ___$ReturnUdt$GSCopy$1$[ebp], eax
; File C:\Program Files (x86)\Microsoft Visual Studio\2019\Community\VC\Tools\MSVC\14.27.29110\include\xstring

; 4294 :         _Mypair._Myval2._Myres  = _BUF_SIZE - 1;

  00036	b9 0f 00 00 00	 mov	 ecx, 15			; 0000000fH
; File C:\Program Files (x86)\Microsoft Visual Studio\2019\Community\VC\Tools\MSVC\14.27.29110\include\xloctime

; 713  :         char _Modifier = '\0') const { // put formatted time from _Pt to _Dest for [_Fmtfirst, _Fmtlast)

  0003b	8b 45 1c	 mov	 eax, DWORD PTR __Pt$[ebp]
  0003e	89 45 c0	 mov	 DWORD PTR __Pt$GSCopy$1$[ebp], eax

; 714  :         char _Fmt[5] = "!%x\0"; // '!' for nonzero count, null for modifier

  00041	a1 00 00 00 00	 mov	 eax, DWORD PTR ??_C@_04IHCGILC@?$CB?$CFx?$AA@
  00046	89 45 e8	 mov	 DWORD PTR __Fmt$[ebp], eax
  00049	0f b6 05 04 00
	00 00		 movzx	 eax, BYTE PTR ??_C@_04IHCGILC@?$CB?$CFx?$AA@+4
  00050	88 45 ec	 mov	 BYTE PTR __Fmt$[ebp+4], al
; File C:\Program Files (x86)\Microsoft Visual Studio\2019\Community\VC\Tools\MSVC\14.27.29110\include\xstring

; 4293 :         _Mypair._Myval2._Mysize = 0;

  00053	89 5d e0	 mov	 DWORD PTR __Str$[ebp+16], ebx

; 4294 :         _Mypair._Myval2._Myres  = _BUF_SIZE - 1;

  00056	89 4d c8	 mov	 DWORD PTR __Old_capacity$1$[ebp], ecx
  00059	89 4d e4	 mov	 DWORD PTR __Str$[ebp+20], ecx

; 4295 :         // the _Traits::assign is last so the codegen doesn't think the char write can alias this
; 4296 :         _Traits::assign(_Mypair._Myval2._Bx._Buf[0], _Elem());

  0005c	88 5d d0	 mov	 BYTE PTR __Str$[ebp], bl
; File C:\Program Files (x86)\Microsoft Visual Studio\2019\Community\VC\Tools\MSVC\14.27.29110\include\xloctime

; 719  :         if (_Modifier == '\0') {

  0005f	8a 45 24	 mov	 al, BYTE PTR __Modifier$[ebp]
  00062	89 5d fc	 mov	 DWORD PTR __$EHRec$[ebp+8], ebx
  00065	84 c0		 test	 al, al
  00067	75 08		 jne	 SHORT $LN5@do_put

; 720  :             _Fmt[2] = _Specifier;

  00069	8a 45 20	 mov	 al, BYTE PTR __Specifier$[ebp]
  0006c	88 45 ea	 mov	 BYTE PTR __Fmt$[ebp+2], al

; 721  :         } else { // add both modifier and specifier

  0006f	eb 09		 jmp	 SHORT $LN6@do_put
$LN5@do_put:

; 722  :             _Fmt[2] = _Modifier;

  00071	88 45 ea	 mov	 BYTE PTR __Fmt$[ebp+2], al

; 723  :             _Fmt[3] = _Specifier;

  00074	8a 45 20	 mov	 al, BYTE PTR __Specifier$[ebp]
  00077	88 45 eb	 mov	 BYTE PTR __Fmt$[ebp+3], al
$LN6@do_put:

; 724  :         }
; 725  : 
; 726  :         for (_Num = 16;; _Num *= 2) { // convert into ever larger string buffer until success

  0007a	bf 10 00 00 00	 mov	 edi, 16			; 00000010H
  0007f	90		 npad	 1
$LL4@do_put:
; File C:\Program Files (x86)\Microsoft Visual Studio\2019\Community\VC\Tools\MSVC\14.27.29110\include\xstring

; 2884 :         const size_type _Old_size = _Mypair._Myval2._Mysize;

  00080	8b c1		 mov	 eax, ecx
  00082	2b c3		 sub	 eax, ebx

; 2885 :         if (_Count <= _Mypair._Myval2._Myres - _Old_size) {

  00084	3b f8		 cmp	 edi, eax
  00086	77 27		 ja	 SHORT $LN20@do_put

; 2153 :         return _BUF_SIZE <= _Myres;

  00088	83 f9 10	 cmp	 ecx, 16			; 00000010H

; 2135 :         value_type* _Result = _Bx._Buf;

  0008b	8d 75 d0	 lea	 esi, DWORD PTR __Str$[ebp]

; 369  :         return static_cast<_Elem*>(_CSTD memset(_First, _Ch, _Count));

  0008e	57		 push	 edi

; 2136 :         if (_Large_string_engaged()) {

  0008f	0f 43 75 d0	 cmovae	 esi, DWORD PTR __Str$[ebp]

; 2886 :             _Mypair._Myval2._Mysize = _Old_size + _Count;

  00093	8d 04 3b	 lea	 eax, DWORD PTR [ebx+edi]

; 2887 :             _Elem* const _Old_ptr   = _Mypair._Myval2._Myptr();
; 2888 :             _Traits::assign(_Old_ptr + _Old_size, _Count, _Ch);

  00096	03 f3		 add	 esi, ebx
  00098	89 45 e0	 mov	 DWORD PTR __Str$[ebp+16], eax

; 369  :         return static_cast<_Elem*>(_CSTD memset(_First, _Ch, _Count));

  0009b	6a 00		 push	 0
  0009d	56		 push	 esi
  0009e	e8 00 00 00 00	 call	 _memset
  000a3	83 c4 0c	 add	 esp, 12			; 0000000cH

; 2889 :             _Traits::assign(_Old_ptr[_Old_size + _Count], _Elem());

  000a6	c6 04 3e 00	 mov	 BYTE PTR [esi+edi], 0

; 2890 :             return *this;

  000aa	e9 c8 00 00 00	 jmp	 $LN32@do_put
$LN20@do_put:

; 4248 :         const size_type _Old_size = _My_data._Mysize;

  000af	b8 ff ff ff 7f	 mov	 eax, 2147483647		; 7fffffffH
  000b4	2b c3		 sub	 eax, ebx

; 4249 :         if (max_size() - _Old_size < _Size_increase) {

  000b6	3b c7		 cmp	 eax, edi
  000b8	0f 82 b1 01 00
	00		 jb	 $LN123@do_put

; 4251 :         }
; 4252 : 
; 4253 :         const size_type _New_size     = _Old_size + _Size_increase;

  000be	8d 34 3b	 lea	 esi, DWORD PTR [ebx+edi]

; 4201 :         const size_type _Masked = _Requested | _ALLOC_MASK;

  000c1	83 ce 0f	 or	 esi, 15			; 0000000fH
  000c4	81 fe ff ff ff
	7f		 cmp	 esi, 2147483647		; 7fffffffH

; 4202 :         if (_Masked > _Max) { // the mask overflows, settle for max_size()

  000ca	76 07		 jbe	 SHORT $LN37@do_put

; 4203 :             return _Max;

  000cc	be ff ff ff 7f	 mov	 esi, 2147483647		; 7fffffffH
  000d1	eb 1e		 jmp	 SHORT $LN36@do_put
$LN37@do_put:

; 4204 :         }
; 4205 : 
; 4206 :         if (_Old > _Max - _Old / 2) { // similarly, geometric overflows

  000d3	8b d1		 mov	 edx, ecx
  000d5	b8 ff ff ff 7f	 mov	 eax, 2147483647		; 7fffffffH
  000da	d1 ea		 shr	 edx, 1
  000dc	2b c2		 sub	 eax, edx
  000de	3b c8		 cmp	 ecx, eax
  000e0	76 07		 jbe	 SHORT $LN38@do_put

; 4207 :             return _Max;

  000e2	be ff ff ff 7f	 mov	 esi, 2147483647		; 7fffffffH
  000e7	eb 08		 jmp	 SHORT $LN36@do_put
$LN38@do_put:

; 4208 :         }
; 4209 : 
; 4210 :         return (_STD max)(_Masked, _Old + _Old / 2);

  000e9	8d 04 11	 lea	 eax, DWORD PTR [ecx+edx]
; File C:\Program Files (x86)\Microsoft Visual Studio\2019\Community\VC\Tools\MSVC\14.27.29110\include\utility

; 44   :     return _Left < _Right ? _Right : _Left;

  000ec	3b f0		 cmp	 esi, eax
  000ee	0f 42 f0	 cmovb	 esi, eax
$LN36@do_put:
; File C:\Program Files (x86)\Microsoft Visual Studio\2019\Community\VC\Tools\MSVC\14.27.29110\include\xstring

; 4257 :         const pointer _New_ptr        = _Al.allocate(_New_capacity + 1); // throws

  000f1	8d 46 01	 lea	 eax, DWORD PTR [esi+1]
; File C:\Program Files (x86)\Microsoft Visual Studio\2019\Community\VC\Tools\MSVC\14.27.29110\include\xmemory

; 807  :         return static_cast<_Ty*>(_Allocate<_New_alignof<_Ty>>(_Get_size_of_n<sizeof(_Ty)>(_Count)));

  000f4	50		 push	 eax
  000f5	e8 00 00 00 00	 call	 ??$_Allocate@$07U_Default_allocate_traits@std@@$0A@@std@@YAPAXI@Z ; std::_Allocate<8,std::_Default_allocate_traits,0>
; File C:\Program Files (x86)\Microsoft Visual Studio\2019\Community\VC\Tools\MSVC\14.27.29110\include\xstring

; 4257 :         const pointer _New_ptr        = _Al.allocate(_New_capacity + 1); // throws

  000fa	8b c8		 mov	 ecx, eax

; 4260 :         _My_data._Myres       = _New_capacity;

  000fc	89 75 e4	 mov	 DWORD PTR __Str$[ebp+20], esi
  000ff	8d 04 3b	 lea	 eax, DWORD PTR [ebx+edi]
  00102	89 4d cc	 mov	 DWORD PTR __New_ptr$2[ebp], ecx
; File C:\Program Files (x86)\Microsoft Visual Studio\2019\Community\VC\Tools\MSVC\14.27.29110\include\xmemory

; 807  :         return static_cast<_Ty*>(_Allocate<_New_alignof<_Ty>>(_Get_size_of_n<sizeof(_Ty)>(_Count)));

  00105	83 c4 04	 add	 esp, 4
; File C:\Program Files (x86)\Microsoft Visual Studio\2019\Community\VC\Tools\MSVC\14.27.29110\include\xstring

; 4259 :         _My_data._Mysize      = _New_size;

  00108	89 45 e0	 mov	 DWORD PTR __Str$[ebp+16], eax

; 4261 :         _Elem* const _Raw_new = _Unfancy(_New_ptr);

  0010b	8d 04 0b	 lea	 eax, DWORD PTR [ebx+ecx]
  0010e	03 c7		 add	 eax, edi
  00110	8d 34 0b	 lea	 esi, DWORD PTR [ebx+ecx]

; 4262 :         if (_BUF_SIZE <= _Old_capacity) {

  00113	83 7d c8 10	 cmp	 DWORD PTR __Old_capacity$1$[ebp], 16 ; 00000010H
  00117	89 75 b8	 mov	 DWORD PTR tv882[ebp], esi
  0011a	89 45 c4	 mov	 DWORD PTR tv880[ebp], eax
  0011d	53		 push	 ebx
  0011e	72 2e		 jb	 SHORT $LN31@do_put

; 4263 :             const pointer _Old_ptr = _My_data._Bx._Ptr;

  00120	8b 75 d0	 mov	 esi, DWORD PTR __Str$[ebp]

; 328  :         return static_cast<_Elem*>(_CSTD memcpy(_First1, _First2, _Count));

  00123	56		 push	 esi
  00124	51		 push	 ecx
  00125	e8 00 00 00 00	 call	 _memcpy

; 369  :         return static_cast<_Elem*>(_CSTD memset(_First, _Ch, _Count));

  0012a	57		 push	 edi
  0012b	6a 00		 push	 0
  0012d	ff 75 b8	 push	 DWORD PTR tv882[ebp]
  00130	e8 00 00 00 00	 call	 _memset

; 2899 :                 _Traits::assign(_New_ptr[_Old_size + _Count], _Elem());

  00135	8b 45 c4	 mov	 eax, DWORD PTR tv880[ebp]
  00138	c6 00 00	 mov	 BYTE PTR [eax], 0

; 4265 :             _Al.deallocate(_Old_ptr, _Old_capacity + 1);

  0013b	8b 45 c8	 mov	 eax, DWORD PTR __Old_capacity$1$[ebp]
  0013e	40		 inc	 eax
; File C:\Program Files (x86)\Microsoft Visual Studio\2019\Community\VC\Tools\MSVC\14.27.29110\include\xmemory

; 803  :         _Deallocate<_New_alignof<_Ty>>(_Ptr, sizeof(_Ty) * _Count);

  0013f	50		 push	 eax
  00140	56		 push	 esi
  00141	e8 00 00 00 00	 call	 ??$_Deallocate@$07$0A@@std@@YAXPAXI@Z ; std::_Deallocate<8,0>
; File C:\Program Files (x86)\Microsoft Visual Studio\2019\Community\VC\Tools\MSVC\14.27.29110\include\xstring

; 4266 :             _My_data._Bx._Ptr = _New_ptr;

  00146	8b 45 cc	 mov	 eax, DWORD PTR __New_ptr$2[ebp]
  00149	89 45 d0	 mov	 DWORD PTR __Str$[ebp], eax

; 4267 :         } else {

  0014c	eb 26		 jmp	 SHORT $LN134@do_put
$LN31@do_put:

; 328  :         return static_cast<_Elem*>(_CSTD memcpy(_First1, _First2, _Count));

  0014e	8d 45 d0	 lea	 eax, DWORD PTR __Str$[ebp]
  00151	50		 push	 eax
  00152	51		 push	 ecx
  00153	e8 00 00 00 00	 call	 _memcpy

; 369  :         return static_cast<_Elem*>(_CSTD memset(_First, _Ch, _Count));

  00158	57		 push	 edi
  00159	6a 00		 push	 0
  0015b	56		 push	 esi
  0015c	e8 00 00 00 00	 call	 _memset

; 2899 :                 _Traits::assign(_New_ptr[_Old_size + _Count], _Elem());

  00161	8b 45 c4	 mov	 eax, DWORD PTR tv880[ebp]
  00164	c6 00 00	 mov	 BYTE PTR [eax], 0

; 4269 :             _Construct_in_place(_My_data._Bx._Ptr, _New_ptr);

  00167	8d 45 cc	 lea	 eax, DWORD PTR __New_ptr$2[ebp]
  0016a	50		 push	 eax
  0016b	8d 45 d0	 lea	 eax, DWORD PTR __Str$[ebp]
  0016e	50		 push	 eax
  0016f	e8 00 00 00 00	 call	 ??$_Construct_in_place@PADABQAD@std@@YAXAAPADABQAD@Z ; std::_Construct_in_place<char *,char * const &>
$LN134@do_put:

; 2135 :         value_type* _Result = _Bx._Buf;

  00174	83 c4 20	 add	 esp, 32			; 00000020H
$LN32@do_put:
; File C:\Program Files (x86)\Microsoft Visual Studio\2019\Community\VC\Tools\MSVC\14.27.29110\include\xloctime

; 728  :             if (0 < (_Count = _Strftime(&_Str[0], _Str.size(), _Fmt, _Pt, _Tnames._Getptr()))) {

  00177	8b 4d b4	 mov	 ecx, DWORD PTR _this$GSCopy$1$[ebp]
; File C:\Program Files (x86)\Microsoft Visual Studio\2019\Community\VC\Tools\MSVC\14.27.29110\include\xstring

; 2135 :         value_type* _Result = _Bx._Buf;

  0017a	8d 45 d0	 lea	 eax, DWORD PTR __Str$[ebp]

; 2153 :         return _BUF_SIZE <= _Myres;

  0017d	83 7d e4 10	 cmp	 DWORD PTR __Str$[ebp+20], 16 ; 00000010H

; 2136 :         if (_Large_string_engaged()) {

  00181	0f 43 45 d0	 cmovae	 eax, DWORD PTR __Str$[ebp]
; File C:\Program Files (x86)\Microsoft Visual Studio\2019\Community\VC\Tools\MSVC\14.27.29110\include\xloctime

; 728  :             if (0 < (_Count = _Strftime(&_Str[0], _Str.size(), _Fmt, _Pt, _Tnames._Getptr()))) {

  00185	ff 71 08	 push	 DWORD PTR [ecx+8]
  00188	8d 4d e8	 lea	 ecx, DWORD PTR __Fmt$[ebp]
  0018b	ff 75 c0	 push	 DWORD PTR __Pt$GSCopy$1$[ebp]
  0018e	51		 push	 ecx
  0018f	ff 75 e0	 push	 DWORD PTR __Str$[ebp+16]
  00192	50		 push	 eax
  00193	e8 00 00 00 00	 call	 __Strftime
  00198	8b c8		 mov	 ecx, eax
  0019a	83 c4 14	 add	 esp, 20			; 00000014H
  0019d	85 c9		 test	 ecx, ecx
  0019f	75 10		 jne	 SHORT $LN124@do_put

; 724  :         }
; 725  : 
; 726  :         for (_Num = 16;; _Num *= 2) { // convert into ever larger string buffer until success

  001a1	8b 4d e4	 mov	 ecx, DWORD PTR __Str$[ebp+20]
  001a4	03 ff		 add	 edi, edi
  001a6	8b 5d e0	 mov	 ebx, DWORD PTR __Str$[ebp+16]
  001a9	89 4d c8	 mov	 DWORD PTR __Old_capacity$1$[ebp], ecx
  001ac	e9 cf fe ff ff	 jmp	 $LL4@do_put
$LN124@do_put:
; File C:\Program Files (x86)\Microsoft Visual Studio\2019\Community\VC\Tools\MSVC\14.27.29110\include\xstring

; 2153 :         return _BUF_SIZE <= _Myres;

  001b1	8b 55 e4	 mov	 edx, DWORD PTR __Str$[ebp+20]

; 2135 :         value_type* _Result = _Bx._Buf;

  001b4	8d 45 d0	 lea	 eax, DWORD PTR __Str$[ebp]

; 2136 :         if (_Large_string_engaged()) {

  001b7	8b 5d d0	 mov	 ebx, DWORD PTR __Str$[ebp]

; 2135 :         value_type* _Result = _Bx._Buf;

  001ba	8d 7d d0	 lea	 edi, DWORD PTR __Str$[ebp]
; File C:\Program Files (x86)\Microsoft Visual Studio\2019\Community\VC\Tools\MSVC\14.27.29110\include\xutility

; 4178 :     _Seek_wrapped(_Dest, _Copy_unchecked(_UFirst, _ULast, _UDest));

  001bd	8b 75 0c	 mov	 esi, DWORD PTR __Dest$[ebp]
; File C:\Program Files (x86)\Microsoft Visual Studio\2019\Community\VC\Tools\MSVC\14.27.29110\include\xstring

; 2153 :         return _BUF_SIZE <= _Myres;

  001c0	83 fa 10	 cmp	 edx, 16			; 00000010H
; File C:\Program Files (x86)\Microsoft Visual Studio\2019\Community\VC\Tools\MSVC\14.27.29110\include\xutility

; 4178 :     _Seek_wrapped(_Dest, _Copy_unchecked(_UFirst, _ULast, _UDest));

  001c3	89 75 bc	 mov	 DWORD PTR __Dest$[ebp], esi
  001c6	8b 75 10	 mov	 esi, DWORD PTR __Dest$[ebp+4]
; File C:\Program Files (x86)\Microsoft Visual Studio\2019\Community\VC\Tools\MSVC\14.27.29110\include\xstring

; 2136 :         if (_Large_string_engaged()) {

  001c9	0f 43 c3	 cmovae	 eax, ebx

; 3590 :         return _Mypair._Myval2._Myptr()[_Off];

  001cc	03 c8		 add	 ecx, eax

; 2153 :         return _BUF_SIZE <= _Myres;

  001ce	83 fa 10	 cmp	 edx, 16			; 00000010H

; 3590 :         return _Mypair._Myval2._Myptr()[_Off];

  001d1	89 4d cc	 mov	 DWORD PTR __Last$1$[ebp], ecx

; 2136 :         if (_Large_string_engaged()) {

  001d4	0f 43 fb	 cmovae	 edi, ebx

; 3590 :         return _Mypair._Myval2._Myptr()[_Off];

  001d7	47		 inc	 edi
; File C:\Program Files (x86)\Microsoft Visual Studio\2019\Community\VC\Tools\MSVC\14.27.29110\include\xutility

; 4141 :     for (; _First != _Last; ++_Dest, (void) ++_First) {

  001d8	3b f9		 cmp	 edi, ecx
  001da	74 56		 je	 SHORT $LN131@do_put
  001dc	0f 1f 40 00	 npad	 4
$LL88@do_put:
; File C:\Program Files (x86)\Microsoft Visual Studio\2019\Community\VC\Tools\MSVC\14.27.29110\include\iterator

; 488  :         if (!_Strbuf || traits_type::eq_int_type(_Traits::eof(), _Strbuf->sputc(_Right))) {

  001e0	85 f6		 test	 esi, esi
  001e2	74 3a		 je	 SHORT $LN92@do_put
; File C:\Program Files (x86)\Microsoft Visual Studio\2019\Community\VC\Tools\MSVC\14.27.29110\include\streambuf

; 258  :         return *_IPnext ? *_IPcount : 0;

  001e4	8b 46 20	 mov	 eax, DWORD PTR [esi+32]
; File C:\Program Files (x86)\Microsoft Visual Studio\2019\Community\VC\Tools\MSVC\14.27.29110\include\iterator

; 488  :         if (!_Strbuf || traits_type::eq_int_type(_Traits::eof(), _Strbuf->sputc(_Right))) {

  001e7	8a 1f		 mov	 bl, BYTE PTR [edi]
; File C:\Program Files (x86)\Microsoft Visual Studio\2019\Community\VC\Tools\MSVC\14.27.29110\include\streambuf

; 258  :         return *_IPnext ? *_IPcount : 0;

  001e9	83 38 00	 cmp	 DWORD PTR [eax], 0
  001ec	74 1d		 je	 SHORT $LN96@do_put
  001ee	8b 4e 30	 mov	 ecx, DWORD PTR [esi+48]
  001f1	8b 01		 mov	 eax, DWORD PTR [ecx]

; 167  :         return 0 < _Pnavail() ? _Traits::to_int_type(*_Pninc() = _Ch) : overflow(_Traits::to_int_type(_Ch));

  001f3	85 c0		 test	 eax, eax
  001f5	7e 14		 jle	 SHORT $LN96@do_put

; 253  :         --*_IPcount;

  001f7	48		 dec	 eax
  001f8	89 01		 mov	 DWORD PTR [ecx], eax

; 254  :         return (*_IPnext)++;

  001fa	8b 4e 20	 mov	 ecx, DWORD PTR [esi+32]
  001fd	8b 11		 mov	 edx, DWORD PTR [ecx]
  001ff	8d 42 01	 lea	 eax, DWORD PTR [edx+1]
  00202	89 01		 mov	 DWORD PTR [ecx], eax

; 167  :         return 0 < _Pnavail() ? _Traits::to_int_type(*_Pninc() = _Ch) : overflow(_Traits::to_int_type(_Ch));

  00204	88 1a		 mov	 BYTE PTR [edx], bl
; File C:\Program Files (x86)\Microsoft Visual Studio\2019\Community\VC\Tools\MSVC\14.27.29110\include\xstring

; 389  :         return static_cast<unsigned char>(_Ch);

  00206	0f b6 c3	 movzx	 eax, bl
; File C:\Program Files (x86)\Microsoft Visual Studio\2019\Community\VC\Tools\MSVC\14.27.29110\include\streambuf

; 167  :         return 0 < _Pnavail() ? _Traits::to_int_type(*_Pninc() = _Ch) : overflow(_Traits::to_int_type(_Ch));

  00209	eb 0b		 jmp	 SHORT $LN97@do_put
$LN96@do_put:
  0020b	8b 16		 mov	 edx, DWORD PTR [esi]
  0020d	8b ce		 mov	 ecx, esi
; File C:\Program Files (x86)\Microsoft Visual Studio\2019\Community\VC\Tools\MSVC\14.27.29110\include\xstring

; 389  :         return static_cast<unsigned char>(_Ch);

  0020f	0f b6 c3	 movzx	 eax, bl
; File C:\Program Files (x86)\Microsoft Visual Studio\2019\Community\VC\Tools\MSVC\14.27.29110\include\streambuf

; 167  :         return 0 < _Pnavail() ? _Traits::to_int_type(*_Pninc() = _Ch) : overflow(_Traits::to_int_type(_Ch));

  00212	50		 push	 eax
  00213	ff 52 0c	 call	 DWORD PTR [edx+12]
$LN97@do_put:
; File C:\Program Files (x86)\Microsoft Visual Studio\2019\Community\VC\Tools\MSVC\14.27.29110\include\iterator

; 488  :         if (!_Strbuf || traits_type::eq_int_type(_Traits::eof(), _Strbuf->sputc(_Right))) {

  00216	8b 4d cc	 mov	 ecx, DWORD PTR __Last$1$[ebp]
; File C:\Program Files (x86)\Microsoft Visual Studio\2019\Community\VC\Tools\MSVC\14.27.29110\include\xstring

; 393  :         return _Left == _Right;

  00219	83 f8 ff	 cmp	 eax, -1
; File C:\Program Files (x86)\Microsoft Visual Studio\2019\Community\VC\Tools\MSVC\14.27.29110\include\iterator

; 488  :         if (!_Strbuf || traits_type::eq_int_type(_Traits::eof(), _Strbuf->sputc(_Right))) {

  0021c	75 04		 jne	 SHORT $LN86@do_put
$LN92@do_put:

; 489  :             _Failed = true;

  0021e	c6 45 bc 01	 mov	 BYTE PTR __Dest$[ebp], 1
$LN86@do_put:
; File C:\Program Files (x86)\Microsoft Visual Studio\2019\Community\VC\Tools\MSVC\14.27.29110\include\xutility

; 4141 :     for (; _First != _Last; ++_Dest, (void) ++_First) {

  00222	47		 inc	 edi
  00223	3b f9		 cmp	 edi, ecx
  00225	75 b9		 jne	 SHORT $LL88@do_put
  00227	8b 55 e4	 mov	 edx, DWORD PTR __Str$[ebp+20]
  0022a	8b 5d d0	 mov	 ebx, DWORD PTR __Str$[ebp]
  0022d	8b 45 bc	 mov	 eax, DWORD PTR __Dest$[ebp]
  00230	eb 03		 jmp	 SHORT $LN87@do_put
$LN131@do_put:
  00232	8b 45 0c	 mov	 eax, DWORD PTR __Dest$[ebp]
$LN87@do_put:

; 4179 :     return _Dest;

  00235	8b 7d b0	 mov	 edi, DWORD PTR ___$ReturnUdt$GSCopy$1$[ebp]
  00238	89 07		 mov	 DWORD PTR [edi], eax
  0023a	89 77 04	 mov	 DWORD PTR [edi+4], esi
; File C:\Program Files (x86)\Microsoft Visual Studio\2019\Community\VC\Tools\MSVC\14.27.29110\include\xstring

; 2153 :         return _BUF_SIZE <= _Myres;

  0023d	83 fa 10	 cmp	 edx, 16			; 00000010H

; 4301 :         if (_Mypair._Myval2._Large_string_engaged()) {

  00240	72 0d		 jb	 SHORT $LN114@do_put

; 4302 :             const pointer _Ptr = _Mypair._Myval2._Bx._Ptr;
; 4303 :             auto& _Al          = _Getal();
; 4304 :             _Destroy_in_place(_Mypair._Myval2._Bx._Ptr);
; 4305 :             _Al.deallocate(_Ptr, _Mypair._Myval2._Myres + 1);

  00242	8d 4a 01	 lea	 ecx, DWORD PTR [edx+1]
; File C:\Program Files (x86)\Microsoft Visual Studio\2019\Community\VC\Tools\MSVC\14.27.29110\include\xmemory

; 803  :         _Deallocate<_New_alignof<_Ty>>(_Ptr, sizeof(_Ty) * _Count);

  00245	51		 push	 ecx
  00246	53		 push	 ebx
  00247	e8 00 00 00 00	 call	 ??$_Deallocate@$07$0A@@std@@YAXPAXI@Z ; std::_Deallocate<8,0>
  0024c	83 c4 08	 add	 esp, 8
$LN114@do_put:
; File C:\Program Files (x86)\Microsoft Visual Studio\2019\Community\VC\Tools\MSVC\14.27.29110\include\xloctime

; 733  :         return _STD copy(&_Str[1], &_Str[_Count], _Dest);

  0024f	8b c7		 mov	 eax, edi

; 734  :     }

  00251	8b 4d f4	 mov	 ecx, DWORD PTR __$EHRec$[ebp]
  00254	64 89 0d 00 00
	00 00		 mov	 DWORD PTR fs:0, ecx
  0025b	59		 pop	 ecx
  0025c	5f		 pop	 edi
  0025d	5e		 pop	 esi
  0025e	5b		 pop	 ebx
  0025f	8b 4d f0	 mov	 ecx, DWORD PTR __$ArrayPad$[ebp]
  00262	33 cd		 xor	 ecx, ebp
  00264	e8 00 00 00 00	 call	 @__security_check_cookie@4
  00269	8b e5		 mov	 esp, ebp
  0026b	5d		 pop	 ebp
  0026c	c2 20 00	 ret	 32			; 00000020H
$LN123@do_put:
; File C:\Program Files (x86)\Microsoft Visual Studio\2019\Community\VC\Tools\MSVC\14.27.29110\include\xstring

; 4250 :             _Xlen_string(); // result too long

  0026f	e8 00 00 00 00	 call	 ?_Xlen_string@std@@YAXXZ ; std::_Xlen_string
$LN133@do_put:
  00274	cc		 int	 3
_TEXT	ENDS
;	COMDAT text$x
text$x	SEGMENT
__unwindfunclet$?do_put@?$time_put@DV?$ostreambuf_iterator@DU?$char_traits@D@std@@@std@@@std@@MBE?AV?$ostreambuf_iterator@DU?$char_traits@D@std@@@2@V32@AAVios_base@2@DPBUtm@@DD@Z$0:
  00000	8d 4d d0	 lea	 ecx, DWORD PTR __Str$[ebp]
  00003	e9 00 00 00 00	 jmp	 ??1?$basic_string@DU?$char_traits@D@std@@V?$allocator@D@2@@std@@QAE@XZ ; std::basic_string<char,std::char_traits<char>,std::allocator<char> >::~basic_string<char,std::char_traits<char>,std::allocator<char> >
  00008	cc		 int	 3
  00009	cc		 int	 3
  0000a	cc		 int	 3
  0000b	cc		 int	 3
  0000c	cc		 int	 3
__ehhandler$?do_put@?$time_put@DV?$ostreambuf_iterator@DU?$char_traits@D@std@@@std@@@std@@MBE?AV?$ostreambuf_iterator@DU?$char_traits@D@std@@@2@V32@AAVios_base@2@DPBUtm@@DD@Z:
  0000d	90		 npad	 1
  0000e	90		 npad	 1
  0000f	8b 54 24 08	 mov	 edx, DWORD PTR [esp+8]
  00013	8d 42 0c	 lea	 eax, DWORD PTR [edx+12]
  00016	8b 4a ac	 mov	 ecx, DWORD PTR [edx-84]
  00019	33 c8		 xor	 ecx, eax
  0001b	e8 00 00 00 00	 call	 @__security_check_cookie@4
  00020	8b 4a fc	 mov	 ecx, DWORD PTR [edx-4]
  00023	33 c8		 xor	 ecx, eax
  00025	e8 00 00 00 00	 call	 @__security_check_cookie@4
  0002a	b8 00 00 00 00	 mov	 eax, OFFSET __ehfuncinfo$?do_put@?$time_put@DV?$ostreambuf_iterator@DU?$char_traits@D@std@@@std@@@std@@MBE?AV?$ostreambuf_iterator@DU?$char_traits@D@std@@@2@V32@AAVios_base@2@DPBUtm@@DD@Z
  0002f	e9 00 00 00 00	 jmp	 ___CxxFrameHandler3
text$x	ENDS
?do_put@?$time_put@DV?$ostreambuf_iterator@DU?$char_traits@D@std@@@std@@@std@@MBE?AV?$ostreambuf_iterator@DU?$char_traits@D@std@@@2@V32@AAVios_base@2@DPBUtm@@DD@Z ENDP ; std::time_put<char,std::ostreambuf_iterator<char,std::char_traits<char> > >::do_put
; Function compile flags: /Ogtp
; File C:\Program Files (x86)\Microsoft Visual Studio\2019\Community\VC\Tools\MSVC\14.27.29110\include\xloctime
; File C:\Program Files (x86)\Microsoft Visual Studio\2019\Community\VC\Tools\MSVC\14.27.29110\include\xlocinfo
; File C:\Program Files (x86)\Microsoft Visual Studio\2019\Community\VC\Tools\MSVC\14.27.29110\include\xloctime
; File C:\Program Files (x86)\Microsoft Visual Studio\2019\Community\VC\Tools\MSVC\14.27.29110\include\xlocinfo
; File C:\Program Files (x86)\Microsoft Visual Studio\2019\Community\VC\Tools\MSVC\14.27.29110\include\xloctime
;	COMDAT ??1?$time_put@DV?$ostreambuf_iterator@DU?$char_traits@D@std@@@std@@@std@@MAE@XZ
_TEXT	SEGMENT
??1?$time_put@DV?$ostreambuf_iterator@DU?$char_traits@D@std@@@std@@@std@@MAE@XZ PROC ; std::time_put<char,std::ostreambuf_iterator<char,std::char_traits<char> > >::~time_put<char,std::ostreambuf_iterator<char,std::char_traits<char> > >, COMDAT
; _this$ = ecx

; 706  :     virtual __CLR_OR_THIS_CALL ~time_put() noexcept {}

  00000	56		 push	 esi
  00001	8b f1		 mov	 esi, ecx
; File C:\Program Files (x86)\Microsoft Visual Studio\2019\Community\VC\Tools\MSVC\14.27.29110\include\xlocinfo

; 34   :         _CSTD free(_Timeptr);

  00003	ff 76 08	 push	 DWORD PTR [esi+8]
; File C:\Program Files (x86)\Microsoft Visual Studio\2019\Community\VC\Tools\MSVC\14.27.29110\include\xloctime

; 706  :     virtual __CLR_OR_THIS_CALL ~time_put() noexcept {}

  00006	c7 06 00 00 00
	00		 mov	 DWORD PTR [esi], OFFSET ??_7?$time_put@DV?$ostreambuf_iterator@DU?$char_traits@D@std@@@std@@@std@@6B@
; File C:\Program Files (x86)\Microsoft Visual Studio\2019\Community\VC\Tools\MSVC\14.27.29110\include\xlocinfo

; 34   :         _CSTD free(_Timeptr);

  0000c	e8 00 00 00 00	 call	 _free
  00011	83 c4 04	 add	 esp, 4
; File C:\Program Files (x86)\Microsoft Visual Studio\2019\Community\VC\Tools\MSVC\14.27.29110\include\xloctime

; 706  :     virtual __CLR_OR_THIS_CALL ~time_put() noexcept {}

  00014	c7 06 00 00 00
	00		 mov	 DWORD PTR [esi], OFFSET ??_7_Facet_base@std@@6B@
  0001a	5e		 pop	 esi
  0001b	c3		 ret	 0
??1?$time_put@DV?$ostreambuf_iterator@DU?$char_traits@D@std@@@std@@@std@@MAE@XZ ENDP ; std::time_put<char,std::ostreambuf_iterator<char,std::char_traits<char> > >::~time_put<char,std::ostreambuf_iterator<char,std::char_traits<char> > >
_TEXT	ENDS
; Function compile flags: /Ogtp
; File C:\Program Files (x86)\Microsoft Visual Studio\2019\Community\VC\Tools\MSVC\14.27.29110\include\xloctime
; File C:\Program Files (x86)\Microsoft Visual Studio\2019\Community\VC\Tools\MSVC\14.27.29110\include\xiosbase
; File C:\Program Files (x86)\Microsoft Visual Studio\2019\Community\VC\Tools\MSVC\14.27.29110\include\xlocale
; File C:\Program Files (x86)\Microsoft Visual Studio\2019\Community\VC\Tools\MSVC\14.27.29110\include\xloctime
; File C:\Program Files (x86)\Microsoft Visual Studio\2019\Community\VC\Tools\MSVC\14.27.29110\include\xlocale
; File C:\Program Files (x86)\Microsoft Visual Studio\2019\Community\VC\Tools\MSVC\14.27.29110\include\xloctime
; File C:\Program Files (x86)\Microsoft Visual Studio\2019\Community\VC\Tools\MSVC\14.27.29110\include\iterator
; File C:\Program Files (x86)\Microsoft Visual Studio\2019\Community\VC\Tools\MSVC\14.27.29110\include\xloctime
; File C:\Program Files (x86)\Microsoft Visual Studio\2019\Community\VC\Tools\MSVC\14.27.29110\include\xlocale
; File C:\Program Files (x86)\Microsoft Visual Studio\2019\Community\VC\Tools\MSVC\14.27.29110\include\xloctime
; File C:\Program Files (x86)\Microsoft Visual Studio\2019\Community\VC\Tools\MSVC\14.27.29110\include\xlocale
; File C:\Program Files (x86)\Microsoft Visual Studio\2019\Community\VC\Tools\MSVC\14.27.29110\include\xloctime
; File C:\Program Files (x86)\Microsoft Visual Studio\2019\Community\VC\Tools\MSVC\14.27.29110\include\iterator
; File C:\Program Files (x86)\Microsoft Visual Studio\2019\Community\VC\Tools\MSVC\14.27.29110\include\streambuf
; File C:\Program Files (x86)\Microsoft Visual Studio\2019\Community\VC\Tools\MSVC\14.27.29110\include\iterator
; File C:\Program Files (x86)\Microsoft Visual Studio\2019\Community\VC\Tools\MSVC\14.27.29110\include\streambuf
; File C:\Program Files (x86)\Microsoft Visual Studio\2019\Community\VC\Tools\MSVC\14.27.29110\include\xstring
; File C:\Program Files (x86)\Microsoft Visual Studio\2019\Community\VC\Tools\MSVC\14.27.29110\include\streambuf
; File C:\Program Files (x86)\Microsoft Visual Studio\2019\Community\VC\Tools\MSVC\14.27.29110\include\xstring
; File C:\Program Files (x86)\Microsoft Visual Studio\2019\Community\VC\Tools\MSVC\14.27.29110\include\streambuf
; File C:\Program Files (x86)\Microsoft Visual Studio\2019\Community\VC\Tools\MSVC\14.27.29110\include\iterator
; File C:\Program Files (x86)\Microsoft Visual Studio\2019\Community\VC\Tools\MSVC\14.27.29110\include\xstring
; File C:\Program Files (x86)\Microsoft Visual Studio\2019\Community\VC\Tools\MSVC\14.27.29110\include\iterator
; File C:\Program Files (x86)\Microsoft Visual Studio\2019\Community\VC\Tools\MSVC\14.27.29110\include\xloctime
; File C:\Program Files (x86)\Microsoft Visual Studio\2019\Community\VC\Tools\MSVC\14.27.29110\include\xlocale
; File C:\Program Files (x86)\Microsoft Visual Studio\2019\Community\VC\Tools\MSVC\14.27.29110\include\xloctime
; File C:\Program Files (x86)\Microsoft Visual Studio\2019\Community\VC\Tools\MSVC\14.27.29110\include\xlocale
; File C:\Program Files (x86)\Microsoft Visual Studio\2019\Community\VC\Tools\MSVC\14.27.29110\include\xloctime
; File C:\Program Files (x86)\Microsoft Visual Studio\2019\Community\VC\Tools\MSVC\14.27.29110\include\xlocale
; File C:\Program Files (x86)\Microsoft Visual Studio\2019\Community\VC\Tools\MSVC\14.27.29110\include\xloctime
; File C:\Program Files (x86)\Microsoft Visual Studio\2019\Community\VC\Tools\MSVC\14.27.29110\include\xlocale
; File C:\Program Files (x86)\Microsoft Visual Studio\2019\Community\VC\Tools\MSVC\14.27.29110\include\xloctime
; File C:\Program Files (x86)\Microsoft Visual Studio\2019\Community\VC\Tools\MSVC\14.27.29110\include\iterator
; File C:\Program Files (x86)\Microsoft Visual Studio\2019\Community\VC\Tools\MSVC\14.27.29110\include\streambuf
; File C:\Program Files (x86)\Microsoft Visual Studio\2019\Community\VC\Tools\MSVC\14.27.29110\include\xstring
; File C:\Program Files (x86)\Microsoft Visual Studio\2019\Community\VC\Tools\MSVC\14.27.29110\include\streambuf
; File C:\Program Files (x86)\Microsoft Visual Studio\2019\Community\VC\Tools\MSVC\14.27.29110\include\xstring
; File C:\Program Files (x86)\Microsoft Visual Studio\2019\Community\VC\Tools\MSVC\14.27.29110\include\streambuf
; File C:\Program Files (x86)\Microsoft Visual Studio\2019\Community\VC\Tools\MSVC\14.27.29110\include\iterator
; File C:\Program Files (x86)\Microsoft Visual Studio\2019\Community\VC\Tools\MSVC\14.27.29110\include\xstring
; File C:\Program Files (x86)\Microsoft Visual Studio\2019\Community\VC\Tools\MSVC\14.27.29110\include\iterator
; File C:\Program Files (x86)\Microsoft Visual Studio\2019\Community\VC\Tools\MSVC\14.27.29110\include\xloctime
; File C:\Program Files (x86)\Microsoft Visual Studio\2019\Community\VC\Tools\MSVC\14.27.29110\include\iterator
; File C:\Program Files (x86)\Microsoft Visual Studio\2019\Community\VC\Tools\MSVC\14.27.29110\include\streambuf
; File C:\Program Files (x86)\Microsoft Visual Studio\2019\Community\VC\Tools\MSVC\14.27.29110\include\xloctime
;	COMDAT ?put@?$time_put@DV?$ostreambuf_iterator@DU?$char_traits@D@std@@@std@@@std@@QBE?AV?$ostreambuf_iterator@DU?$char_traits@D@std@@@2@V32@AAVios_base@2@DPBUtm@@PBD3@Z
_TEXT	SEGMENT
$T2 = -52						; size = 8
_this$1$ = -44						; size = 4
$T3 = -40						; size = 8
__Ch$ = -36						; size = 1
__Ch$ = -32						; size = 1
__Ch$ = -28						; size = 1
__Specifier$4 = -24					; size = 1
__Modifier$5 = -20					; size = 1
__Ctype_fac$1$ = -16					; size = 4
__$EHRec$ = -12						; size = 12
___$ReturnUdt$ = 8					; size = 4
__Dest$ = 12						; size = 8
__Iosbase$ = 20						; size = 4
__Fill$ = 24						; size = 1
__Pt$ = 28						; size = 4
__Fmtfirst$ = 32					; size = 4
__Ch$1$ = 35						; size = 1
__Fmtlast$ = 36						; size = 4
?put@?$time_put@DV?$ostreambuf_iterator@DU?$char_traits@D@std@@@std@@@std@@QBE?AV?$ostreambuf_iterator@DU?$char_traits@D@std@@@2@V32@AAVios_base@2@DPBUtm@@PBD3@Z PROC ; std::time_put<char,std::ostreambuf_iterator<char,std::char_traits<char> > >::put, COMDAT
; _this$ = ecx

; 646  :         const _Elem* _Fmtlast) const { // put formatted time from _Pt to _Dest for [_Fmtfirst, _Fmtlast)

  00000	55		 push	 ebp
  00001	8b ec		 mov	 ebp, esp
  00003	6a ff		 push	 -1
  00005	68 00 00 00 00	 push	 __ehhandler$?put@?$time_put@DV?$ostreambuf_iterator@DU?$char_traits@D@std@@@std@@@std@@QBE?AV?$ostreambuf_iterator@DU?$char_traits@D@std@@@2@V32@AAVios_base@2@DPBUtm@@PBD3@Z
  0000a	64 a1 00 00 00
	00		 mov	 eax, DWORD PTR fs:0
  00010	50		 push	 eax
  00011	83 ec 28	 sub	 esp, 40			; 00000028H
  00014	53		 push	 ebx
  00015	56		 push	 esi
  00016	57		 push	 edi
  00017	a1 00 00 00 00	 mov	 eax, DWORD PTR ___security_cookie
  0001c	33 c5		 xor	 eax, ebp
  0001e	50		 push	 eax
  0001f	8d 45 f4	 lea	 eax, DWORD PTR __$EHRec$[ebp]
  00022	64 a3 00 00 00
	00		 mov	 DWORD PTR fs:0, eax
  00028	89 4d d4	 mov	 DWORD PTR _this$1$[ebp], ecx
; File C:\Program Files (x86)\Microsoft Visual Studio\2019\Community\VC\Tools\MSVC\14.27.29110\include\xiosbase

; 373  :         return *_Ploc;

  0002b	8b 45 14	 mov	 eax, DWORD PTR __Iosbase$[ebp]
  0002e	8b 40 30	 mov	 eax, DWORD PTR [eax+48]
; File C:\Program Files (x86)\Microsoft Visual Studio\2019\Community\VC\Tools\MSVC\14.27.29110\include\xlocale

; 267  :     locale(const locale& _Right) noexcept : _Ptr(_Right._Ptr) {

  00031	8b 70 04	 mov	 esi, DWORD PTR [eax+4]

; 268  :         _Ptr->_Incref();

  00034	8b ce		 mov	 ecx, esi
  00036	89 75 dc	 mov	 DWORD PTR $T3[ebp+4], esi
  00039	8b 06		 mov	 eax, DWORD PTR [esi]
  0003b	ff 50 04	 call	 DWORD PTR [eax+4]
; File C:\Program Files (x86)\Microsoft Visual Studio\2019\Community\VC\Tools\MSVC\14.27.29110\include\xloctime

; 647  :         const _Ctype& _Ctype_fac = _STD use_facet<_Ctype>(_Iosbase.getloc());

  0003e	8d 45 d8	 lea	 eax, DWORD PTR $T3[ebp]
  00041	c7 45 fc 00 00
	00 00		 mov	 DWORD PTR __$EHRec$[ebp+8], 0
  00048	50		 push	 eax
  00049	e8 00 00 00 00	 call	 ??$use_facet@V?$ctype@D@std@@@std@@YAABV?$ctype@D@0@ABVlocale@0@@Z ; std::use_facet<std::ctype<char> >
  0004e	83 c4 04	 add	 esp, 4
  00051	c7 45 fc ff ff
	ff ff		 mov	 DWORD PTR __$EHRec$[ebp+8], -1
  00058	8b d8		 mov	 ebx, eax
  0005a	89 5d f0	 mov	 DWORD PTR __Ctype_fac$1$[ebp], ebx
  0005d	85 f6		 test	 esi, esi
; File C:\Program Files (x86)\Microsoft Visual Studio\2019\Community\VC\Tools\MSVC\14.27.29110\include\xlocale

; 351  :         if (_Ptr) {

  0005f	74 13		 je	 SHORT $LN21@put

; 352  :             delete _Ptr->_Decref();

  00061	8b 16		 mov	 edx, DWORD PTR [esi]
  00063	8b ce		 mov	 ecx, esi
  00065	ff 52 08	 call	 DWORD PTR [edx+8]
  00068	85 c0		 test	 eax, eax
  0006a	74 08		 je	 SHORT $LN21@put
  0006c	8b 10		 mov	 edx, DWORD PTR [eax]
  0006e	8b c8		 mov	 ecx, eax
  00070	6a 01		 push	 1
  00072	ff 12		 call	 DWORD PTR [edx]
$LN21@put:
; File C:\Program Files (x86)\Microsoft Visual Studio\2019\Community\VC\Tools\MSVC\14.27.29110\include\xloctime

; 649  :         for (; _Fmtfirst != _Fmtlast; ++_Fmtfirst) {

  00074	8b 75 20	 mov	 esi, DWORD PTR __Fmtfirst$[ebp]
  00077	8b 7d 24	 mov	 edi, DWORD PTR __Fmtlast$[ebp]
  0007a	3b f7		 cmp	 esi, edi
  0007c	75 25		 jne	 SHORT $LN4@put
$LN118@put:
; File C:\Program Files (x86)\Microsoft Visual Studio\2019\Community\VC\Tools\MSVC\14.27.29110\include\iterator

; 488  :         if (!_Strbuf || traits_type::eq_int_type(_Traits::eof(), _Strbuf->sputc(_Right))) {

  0007e	8b 7d 10	 mov	 edi, DWORD PTR __Dest$[ebp+4]
$LN88@put:
; File C:\Program Files (x86)\Microsoft Visual Studio\2019\Community\VC\Tools\MSVC\14.27.29110\include\xloctime

; 676  :         return _Dest;

  00081	8b 45 08	 mov	 eax, DWORD PTR ___$ReturnUdt$[ebp]
  00084	8b 4d 0c	 mov	 ecx, DWORD PTR __Dest$[ebp]
  00087	89 08		 mov	 DWORD PTR [eax], ecx
  00089	89 78 04	 mov	 DWORD PTR [eax+4], edi

; 677  :     }

  0008c	8b 4d f4	 mov	 ecx, DWORD PTR __$EHRec$[ebp]
  0008f	64 89 0d 00 00
	00 00		 mov	 DWORD PTR fs:0, ecx
  00096	59		 pop	 ecx
  00097	5f		 pop	 edi
  00098	5e		 pop	 esi
  00099	5b		 pop	 ebx
  0009a	8b e5		 mov	 esp, ebp
  0009c	5d		 pop	 ebp
  0009d	c2 20 00	 ret	 32			; 00000020H
$LL120@put:

; 649  :         for (; _Fmtfirst != _Fmtlast; ++_Fmtfirst) {

  000a0	8b 7d 24	 mov	 edi, DWORD PTR __Fmtlast$[ebp]
$LN4@put:

; 650  :             if (_Ctype_fac.narrow(*_Fmtfirst) != '%') {

  000a3	8a 06		 mov	 al, BYTE PTR [esi]
; File C:\Program Files (x86)\Microsoft Visual Studio\2019\Community\VC\Tools\MSVC\14.27.29110\include\xlocale

; 2718 :         return do_narrow(_Ch, _Dflt);

  000a5	8b cb		 mov	 ecx, ebx
; File C:\Program Files (x86)\Microsoft Visual Studio\2019\Community\VC\Tools\MSVC\14.27.29110\include\xloctime

; 650  :             if (_Ctype_fac.narrow(*_Fmtfirst) != '%') {

  000a7	88 45 e4	 mov	 BYTE PTR __Ch$[ebp], al
; File C:\Program Files (x86)\Microsoft Visual Studio\2019\Community\VC\Tools\MSVC\14.27.29110\include\xlocale

; 2718 :         return do_narrow(_Ch, _Dflt);

  000aa	8b 03		 mov	 eax, DWORD PTR [ebx]
  000ac	6a 00		 push	 0
  000ae	ff 75 e4	 push	 DWORD PTR __Ch$[ebp]
  000b1	8b 40 28	 mov	 eax, DWORD PTR [eax+40]
  000b4	ff d0		 call	 eax
; File C:\Program Files (x86)\Microsoft Visual Studio\2019\Community\VC\Tools\MSVC\14.27.29110\include\xloctime

; 650  :             if (_Ctype_fac.narrow(*_Fmtfirst) != '%') {

  000b6	3c 25		 cmp	 al, 37			; 00000025H
  000b8	74 54		 je	 SHORT $LN5@put
; File C:\Program Files (x86)\Microsoft Visual Studio\2019\Community\VC\Tools\MSVC\14.27.29110\include\iterator

; 488  :         if (!_Strbuf || traits_type::eq_int_type(_Traits::eof(), _Strbuf->sputc(_Right))) {

  000ba	8b 7d 10	 mov	 edi, DWORD PTR __Dest$[ebp+4]
  000bd	85 ff		 test	 edi, edi
  000bf	74 44		 je	 SHORT $LN27@put
; File C:\Program Files (x86)\Microsoft Visual Studio\2019\Community\VC\Tools\MSVC\14.27.29110\include\streambuf

; 258  :         return *_IPnext ? *_IPcount : 0;

  000c1	8b 47 20	 mov	 eax, DWORD PTR [edi+32]
; File C:\Program Files (x86)\Microsoft Visual Studio\2019\Community\VC\Tools\MSVC\14.27.29110\include\iterator

; 488  :         if (!_Strbuf || traits_type::eq_int_type(_Traits::eof(), _Strbuf->sputc(_Right))) {

  000c4	8a 0e		 mov	 cl, BYTE PTR [esi]
  000c6	88 4d 23	 mov	 BYTE PTR __Ch$1$[ebp], cl
; File C:\Program Files (x86)\Microsoft Visual Studio\2019\Community\VC\Tools\MSVC\14.27.29110\include\streambuf

; 258  :         return *_IPnext ? *_IPcount : 0;

  000c9	83 38 00	 cmp	 DWORD PTR [eax], 0
  000cc	74 20		 je	 SHORT $LN115@put
  000ce	8b 57 30	 mov	 edx, DWORD PTR [edi+48]
  000d1	8b 02		 mov	 eax, DWORD PTR [edx]

; 167  :         return 0 < _Pnavail() ? _Traits::to_int_type(*_Pninc() = _Ch) : overflow(_Traits::to_int_type(_Ch));

  000d3	85 c0		 test	 eax, eax
  000d5	7e 17		 jle	 SHORT $LN115@put

; 253  :         --*_IPcount;

  000d7	48		 dec	 eax
  000d8	89 02		 mov	 DWORD PTR [edx], eax

; 254  :         return (*_IPnext)++;

  000da	8b 4f 20	 mov	 ecx, DWORD PTR [edi+32]
  000dd	8b 11		 mov	 edx, DWORD PTR [ecx]
  000df	8d 42 01	 lea	 eax, DWORD PTR [edx+1]
  000e2	89 01		 mov	 DWORD PTR [ecx], eax

; 167  :         return 0 < _Pnavail() ? _Traits::to_int_type(*_Pninc() = _Ch) : overflow(_Traits::to_int_type(_Ch));

  000e4	8a 45 23	 mov	 al, BYTE PTR __Ch$1$[ebp]
  000e7	88 02		 mov	 BYTE PTR [edx], al
; File C:\Program Files (x86)\Microsoft Visual Studio\2019\Community\VC\Tools\MSVC\14.27.29110\include\xstring

; 389  :         return static_cast<unsigned char>(_Ch);

  000e9	0f b6 c0	 movzx	 eax, al
; File C:\Program Files (x86)\Microsoft Visual Studio\2019\Community\VC\Tools\MSVC\14.27.29110\include\streambuf

; 167  :         return 0 < _Pnavail() ? _Traits::to_int_type(*_Pninc() = _Ch) : overflow(_Traits::to_int_type(_Ch));

  000ec	eb 0b		 jmp	 SHORT $LN32@put
$LN115@put:
  000ee	8b 17		 mov	 edx, DWORD PTR [edi]
; File C:\Program Files (x86)\Microsoft Visual Studio\2019\Community\VC\Tools\MSVC\14.27.29110\include\xstring

; 389  :         return static_cast<unsigned char>(_Ch);

  000f0	0f b6 c1	 movzx	 eax, cl
; File C:\Program Files (x86)\Microsoft Visual Studio\2019\Community\VC\Tools\MSVC\14.27.29110\include\streambuf

; 167  :         return 0 < _Pnavail() ? _Traits::to_int_type(*_Pninc() = _Ch) : overflow(_Traits::to_int_type(_Ch));

  000f3	8b cf		 mov	 ecx, edi
  000f5	50		 push	 eax
  000f6	ff 52 0c	 call	 DWORD PTR [edx+12]
$LN32@put:
; File C:\Program Files (x86)\Microsoft Visual Studio\2019\Community\VC\Tools\MSVC\14.27.29110\include\iterator

; 488  :         if (!_Strbuf || traits_type::eq_int_type(_Traits::eof(), _Strbuf->sputc(_Right))) {

  000f9	8b 7d 10	 mov	 edi, DWORD PTR __Dest$[ebp+4]
; File C:\Program Files (x86)\Microsoft Visual Studio\2019\Community\VC\Tools\MSVC\14.27.29110\include\xstring

; 393  :         return _Left == _Right;

  000fc	83 f8 ff	 cmp	 eax, -1
; File C:\Program Files (x86)\Microsoft Visual Studio\2019\Community\VC\Tools\MSVC\14.27.29110\include\iterator

; 488  :         if (!_Strbuf || traits_type::eq_int_type(_Traits::eof(), _Strbuf->sputc(_Right))) {

  000ff	0f 85 97 00 00
	00		 jne	 $LN2@put
$LN27@put:

; 489  :             _Failed = true;

  00105	c6 45 0c 01	 mov	 BYTE PTR __Dest$[ebp], 1

; 490  :         }
; 491  : 
; 492  :         return *this;
; 493  :     }

  00109	e9 8e 00 00 00	 jmp	 $LN2@put
$LN5@put:
; File C:\Program Files (x86)\Microsoft Visual Studio\2019\Community\VC\Tools\MSVC\14.27.29110\include\xloctime

; 652  :             } else if (++_Fmtfirst == _Fmtlast) { // treat trailing % as %%

  0010e	46		 inc	 esi
  0010f	3b f7		 cmp	 esi, edi
  00111	0f 84 20 01 00
	00		 je	 $LN110@put

; 656  :                 char _Specifier = _Ctype_fac.narrow(*_Fmtfirst);

  00117	8a 06		 mov	 al, BYTE PTR [esi]
; File C:\Program Files (x86)\Microsoft Visual Studio\2019\Community\VC\Tools\MSVC\14.27.29110\include\xlocale

; 2718 :         return do_narrow(_Ch, _Dflt);

  00119	8b cb		 mov	 ecx, ebx
; File C:\Program Files (x86)\Microsoft Visual Studio\2019\Community\VC\Tools\MSVC\14.27.29110\include\xloctime

; 656  :                 char _Specifier = _Ctype_fac.narrow(*_Fmtfirst);

  0011b	88 45 e0	 mov	 BYTE PTR __Ch$[ebp], al
; File C:\Program Files (x86)\Microsoft Visual Studio\2019\Community\VC\Tools\MSVC\14.27.29110\include\xlocale

; 2718 :         return do_narrow(_Ch, _Dflt);

  0011e	8b 03		 mov	 eax, DWORD PTR [ebx]
  00120	6a 00		 push	 0
  00122	ff 75 e0	 push	 DWORD PTR __Ch$[ebp]
  00125	8b 40 28	 mov	 eax, DWORD PTR [eax+40]
  00128	ff d0		 call	 eax
; File C:\Program Files (x86)\Microsoft Visual Studio\2019\Community\VC\Tools\MSVC\14.27.29110\include\xloctime

; 658  :                 _Elem _Percent  = _Fmtfirst[-1];

  0012a	8a 7e ff	 mov	 bh, BYTE PTR [esi-1]
  0012d	8a d8		 mov	 bl, al
  0012f	88 5d e8	 mov	 BYTE PTR __Specifier$4[ebp], bl
  00132	c6 45 ec 00	 mov	 BYTE PTR __Modifier$5[ebp], 0

; 659  : 
; 660  :                 if (_Specifier == 'E' || _Specifier == 'O' || _Specifier == 'Q' || _Specifier == '#') {

  00136	80 fb 45	 cmp	 bl, 69			; 00000045H
  00139	74 0f		 je	 SHORT $LN10@put
  0013b	80 fb 4f	 cmp	 bl, 79			; 0000004fH
  0013e	74 0a		 je	 SHORT $LN10@put
  00140	80 fb 51	 cmp	 bl, 81			; 00000051H
  00143	74 05		 je	 SHORT $LN10@put
  00145	80 fb 23	 cmp	 bl, 35			; 00000023H
  00148	75 23		 jne	 SHORT $LN119@put
$LN10@put:

; 661  :                     if (++_Fmtfirst == _Fmtlast) { // no specifier, copy %[E0Q#] as literal elements

  0014a	46		 inc	 esi
  0014b	3b f7		 cmp	 esi, edi
  0014d	74 5c		 je	 SHORT $LN111@put

; 669  :                     _Specifier = _Ctype_fac.narrow(*_Fmtfirst);

  0014f	8a 06		 mov	 al, BYTE PTR [esi]
  00151	88 5d ec	 mov	 BYTE PTR __Modifier$5[ebp], bl
; File C:\Program Files (x86)\Microsoft Visual Studio\2019\Community\VC\Tools\MSVC\14.27.29110\include\xlocale

; 2718 :         return do_narrow(_Ch, _Dflt);

  00154	8b 5d f0	 mov	 ebx, DWORD PTR __Ctype_fac$1$[ebp]
  00157	8b cb		 mov	 ecx, ebx
; File C:\Program Files (x86)\Microsoft Visual Studio\2019\Community\VC\Tools\MSVC\14.27.29110\include\xloctime

; 669  :                     _Specifier = _Ctype_fac.narrow(*_Fmtfirst);

  00159	88 45 dc	 mov	 BYTE PTR __Ch$[ebp], al
; File C:\Program Files (x86)\Microsoft Visual Studio\2019\Community\VC\Tools\MSVC\14.27.29110\include\xlocale

; 2718 :         return do_narrow(_Ch, _Dflt);

  0015c	6a 00		 push	 0
  0015e	ff 75 dc	 push	 DWORD PTR __Ch$[ebp]
  00161	8b 03		 mov	 eax, DWORD PTR [ebx]
  00163	8b 40 28	 mov	 eax, DWORD PTR [eax+40]
  00166	ff d0		 call	 eax
; File C:\Program Files (x86)\Microsoft Visual Studio\2019\Community\VC\Tools\MSVC\14.27.29110\include\xloctime

; 669  :                     _Specifier = _Ctype_fac.narrow(*_Fmtfirst);

  00168	88 45 e8	 mov	 BYTE PTR __Specifier$4[ebp], al
  0016b	eb 03		 jmp	 SHORT $LN9@put
$LN119@put:

; 659  : 
; 660  :                 if (_Specifier == 'E' || _Specifier == 'O' || _Specifier == 'Q' || _Specifier == '#') {

  0016d	8b 5d f0	 mov	 ebx, DWORD PTR __Ctype_fac$1$[ebp]
$LN9@put:

; 670  :                 }
; 671  : 
; 672  :                 _Dest = do_put(_Dest, _Iosbase, _Fill, _Pt, _Specifier, _Modifier); // convert a single field

  00170	ff 75 ec	 push	 DWORD PTR __Modifier$5[ebp]
  00173	8b 4d d4	 mov	 ecx, DWORD PTR _this$1$[ebp]
  00176	8d 55 cc	 lea	 edx, DWORD PTR $T2[ebp]
  00179	ff 75 e8	 push	 DWORD PTR __Specifier$4[ebp]
  0017c	ff 75 1c	 push	 DWORD PTR __Pt$[ebp]
  0017f	8b 01		 mov	 eax, DWORD PTR [ecx]
  00181	ff 75 18	 push	 DWORD PTR __Fill$[ebp]
  00184	ff 75 14	 push	 DWORD PTR __Iosbase$[ebp]
  00187	ff 75 10	 push	 DWORD PTR __Dest$[ebp+4]
  0018a	ff 75 0c	 push	 DWORD PTR __Dest$[ebp]
  0018d	52		 push	 edx
  0018e	ff 50 0c	 call	 DWORD PTR [eax+12]
  00191	8b 08		 mov	 ecx, DWORD PTR [eax]
  00193	89 4d 0c	 mov	 DWORD PTR __Dest$[ebp], ecx
  00196	8b 78 04	 mov	 edi, DWORD PTR [eax+4]
  00199	89 7d 10	 mov	 DWORD PTR __Dest$[ebp+4], edi
$LN2@put:

; 649  :         for (; _Fmtfirst != _Fmtlast; ++_Fmtfirst) {

  0019c	46		 inc	 esi
  0019d	3b 75 24	 cmp	 esi, DWORD PTR __Fmtlast$[ebp]
  001a0	0f 85 fa fe ff
	ff		 jne	 $LL120@put

; 661  :                     if (++_Fmtfirst == _Fmtlast) { // no specifier, copy %[E0Q#] as literal elements

  001a6	e9 d6 fe ff ff	 jmp	 $LN88@put
$LN111@put:
; File C:\Program Files (x86)\Microsoft Visual Studio\2019\Community\VC\Tools\MSVC\14.27.29110\include\iterator

; 488  :         if (!_Strbuf || traits_type::eq_int_type(_Traits::eof(), _Strbuf->sputc(_Right))) {

  001ab	8b 7d 10	 mov	 edi, DWORD PTR __Dest$[ebp+4]
  001ae	85 ff		 test	 edi, edi
  001b0	74 38		 je	 SHORT $LN69@put
; File C:\Program Files (x86)\Microsoft Visual Studio\2019\Community\VC\Tools\MSVC\14.27.29110\include\streambuf

; 258  :         return *_IPnext ? *_IPcount : 0;

  001b2	8b 47 20	 mov	 eax, DWORD PTR [edi+32]
  001b5	83 38 00	 cmp	 DWORD PTR [eax], 0
  001b8	74 1d		 je	 SHORT $LN73@put
  001ba	8b 4f 30	 mov	 ecx, DWORD PTR [edi+48]
  001bd	8b 01		 mov	 eax, DWORD PTR [ecx]

; 167  :         return 0 < _Pnavail() ? _Traits::to_int_type(*_Pninc() = _Ch) : overflow(_Traits::to_int_type(_Ch));

  001bf	85 c0		 test	 eax, eax
  001c1	7e 14		 jle	 SHORT $LN73@put

; 253  :         --*_IPcount;

  001c3	48		 dec	 eax
  001c4	89 01		 mov	 DWORD PTR [ecx], eax

; 254  :         return (*_IPnext)++;

  001c6	8b 4f 20	 mov	 ecx, DWORD PTR [edi+32]
  001c9	8b 11		 mov	 edx, DWORD PTR [ecx]
  001cb	8d 42 01	 lea	 eax, DWORD PTR [edx+1]
  001ce	89 01		 mov	 DWORD PTR [ecx], eax

; 167  :         return 0 < _Pnavail() ? _Traits::to_int_type(*_Pninc() = _Ch) : overflow(_Traits::to_int_type(_Ch));

  001d0	88 3a		 mov	 BYTE PTR [edx], bh
; File C:\Program Files (x86)\Microsoft Visual Studio\2019\Community\VC\Tools\MSVC\14.27.29110\include\xstring

; 389  :         return static_cast<unsigned char>(_Ch);

  001d2	0f b6 c7	 movzx	 eax, bh
; File C:\Program Files (x86)\Microsoft Visual Studio\2019\Community\VC\Tools\MSVC\14.27.29110\include\streambuf

; 167  :         return 0 < _Pnavail() ? _Traits::to_int_type(*_Pninc() = _Ch) : overflow(_Traits::to_int_type(_Ch));

  001d5	eb 0b		 jmp	 SHORT $LN74@put
$LN73@put:
  001d7	8b 17		 mov	 edx, DWORD PTR [edi]
  001d9	8b cf		 mov	 ecx, edi
; File C:\Program Files (x86)\Microsoft Visual Studio\2019\Community\VC\Tools\MSVC\14.27.29110\include\xstring

; 389  :         return static_cast<unsigned char>(_Ch);

  001db	0f b6 c7	 movzx	 eax, bh
; File C:\Program Files (x86)\Microsoft Visual Studio\2019\Community\VC\Tools\MSVC\14.27.29110\include\streambuf

; 167  :         return 0 < _Pnavail() ? _Traits::to_int_type(*_Pninc() = _Ch) : overflow(_Traits::to_int_type(_Ch));

  001de	50		 push	 eax
  001df	ff 52 0c	 call	 DWORD PTR [edx+12]
$LN74@put:
; File C:\Program Files (x86)\Microsoft Visual Studio\2019\Community\VC\Tools\MSVC\14.27.29110\include\iterator

; 488  :         if (!_Strbuf || traits_type::eq_int_type(_Traits::eof(), _Strbuf->sputc(_Right))) {

  001e2	8b 7d 10	 mov	 edi, DWORD PTR __Dest$[ebp+4]
; File C:\Program Files (x86)\Microsoft Visual Studio\2019\Community\VC\Tools\MSVC\14.27.29110\include\xstring

; 393  :         return _Left == _Right;

  001e5	83 f8 ff	 cmp	 eax, -1
; File C:\Program Files (x86)\Microsoft Visual Studio\2019\Community\VC\Tools\MSVC\14.27.29110\include\iterator

; 488  :         if (!_Strbuf || traits_type::eq_int_type(_Traits::eof(), _Strbuf->sputc(_Right))) {

  001e8	75 04		 jne	 SHORT $LN68@put
$LN69@put:

; 489  :             _Failed = true;

  001ea	c6 45 0c 01	 mov	 BYTE PTR __Dest$[ebp], 1
$LN68@put:

; 488  :         if (!_Strbuf || traits_type::eq_int_type(_Traits::eof(), _Strbuf->sputc(_Right))) {

  001ee	85 ff		 test	 edi, edi
  001f0	74 3c		 je	 SHORT $LN89@put
$LN122@put:
; File C:\Program Files (x86)\Microsoft Visual Studio\2019\Community\VC\Tools\MSVC\14.27.29110\include\xloctime

; 676  :         return _Dest;

  001f2	8b 47 20	 mov	 eax, DWORD PTR [edi+32]
  001f5	83 38 00	 cmp	 DWORD PTR [eax], 0
  001f8	74 1d		 je	 SHORT $LN93@put
  001fa	8b 4f 30	 mov	 ecx, DWORD PTR [edi+48]
  001fd	8b 01		 mov	 eax, DWORD PTR [ecx]
  001ff	85 c0		 test	 eax, eax
  00201	7e 14		 jle	 SHORT $LN93@put
  00203	48		 dec	 eax
  00204	89 01		 mov	 DWORD PTR [ecx], eax
  00206	8b 4f 20	 mov	 ecx, DWORD PTR [edi+32]
  00209	8b 11		 mov	 edx, DWORD PTR [ecx]
  0020b	8d 42 01	 lea	 eax, DWORD PTR [edx+1]
  0020e	89 01		 mov	 DWORD PTR [ecx], eax
  00210	88 1a		 mov	 BYTE PTR [edx], bl
  00212	0f b6 c3	 movzx	 eax, bl
  00215	eb 0b		 jmp	 SHORT $LN94@put
$LN93@put:
  00217	8b 17		 mov	 edx, DWORD PTR [edi]
  00219	8b cf		 mov	 ecx, edi
  0021b	0f b6 c3	 movzx	 eax, bl
  0021e	50		 push	 eax
  0021f	ff 52 0c	 call	 DWORD PTR [edx+12]
$LN94@put:
  00222	83 f8 ff	 cmp	 eax, -1
  00225	0f 85 53 fe ff
	ff		 jne	 $LN118@put
  0022b	8b 7d 10	 mov	 edi, DWORD PTR __Dest$[ebp+4]
$LN89@put:
  0022e	c6 45 0c 01	 mov	 BYTE PTR __Dest$[ebp], 1
  00232	e9 4a fe ff ff	 jmp	 $LN88@put
$LN110@put:
; File C:\Program Files (x86)\Microsoft Visual Studio\2019\Community\VC\Tools\MSVC\14.27.29110\include\iterator

; 488  :         if (!_Strbuf || traits_type::eq_int_type(_Traits::eof(), _Strbuf->sputc(_Right))) {

  00237	8b 7d 10	 mov	 edi, DWORD PTR __Dest$[ebp+4]
  0023a	85 ff		 test	 edi, edi
  0023c	74 f0		 je	 SHORT $LN89@put
  0023e	8a 5e ff	 mov	 bl, BYTE PTR [esi-1]
; File C:\Program Files (x86)\Microsoft Visual Studio\2019\Community\VC\Tools\MSVC\14.27.29110\include\streambuf

; 167  :         return 0 < _Pnavail() ? _Traits::to_int_type(*_Pninc() = _Ch) : overflow(_Traits::to_int_type(_Ch));

  00241	eb af		 jmp	 SHORT $LN122@put
_TEXT	ENDS
;	COMDAT text$x
text$x	SEGMENT
__unwindfunclet$?put@?$time_put@DV?$ostreambuf_iterator@DU?$char_traits@D@std@@@std@@@std@@QBE?AV?$ostreambuf_iterator@DU?$char_traits@D@std@@@2@V32@AAVios_base@2@DPBUtm@@PBD3@Z$0:
  00000	8d 4d d8	 lea	 ecx, DWORD PTR $T3[ebp]
  00003	e9 00 00 00 00	 jmp	 ??1locale@std@@QAE@XZ	; std::locale::~locale
  00008	cc		 int	 3
  00009	cc		 int	 3
  0000a	cc		 int	 3
  0000b	cc		 int	 3
  0000c	cc		 int	 3
__ehhandler$?put@?$time_put@DV?$ostreambuf_iterator@DU?$char_traits@D@std@@@std@@@std@@QBE?AV?$ostreambuf_iterator@DU?$char_traits@D@std@@@2@V32@AAVios_base@2@DPBUtm@@PBD3@Z:
  0000d	90		 npad	 1
  0000e	90		 npad	 1
  0000f	8b 54 24 08	 mov	 edx, DWORD PTR [esp+8]
  00013	8d 42 0c	 lea	 eax, DWORD PTR [edx+12]
  00016	8b 4a c8	 mov	 ecx, DWORD PTR [edx-56]
  00019	33 c8		 xor	 ecx, eax
  0001b	e8 00 00 00 00	 call	 @__security_check_cookie@4
  00020	b8 00 00 00 00	 mov	 eax, OFFSET __ehfuncinfo$?put@?$time_put@DV?$ostreambuf_iterator@DU?$char_traits@D@std@@@std@@@std@@QBE?AV?$ostreambuf_iterator@DU?$char_traits@D@std@@@2@V32@AAVios_base@2@DPBUtm@@PBD3@Z
  00025	e9 00 00 00 00	 jmp	 ___CxxFrameHandler3
text$x	ENDS
?put@?$time_put@DV?$ostreambuf_iterator@DU?$char_traits@D@std@@@std@@@std@@QBE?AV?$ostreambuf_iterator@DU?$char_traits@D@std@@@2@V32@AAVios_base@2@DPBUtm@@PBD3@Z ENDP ; std::time_put<char,std::ostreambuf_iterator<char,std::char_traits<char> > >::put
; Function compile flags: /Ogtp
; File C:\Program Files (x86)\Microsoft Visual Studio\2019\Community\VC\Tools\MSVC\14.27.29110\include\xlocale
; File C:\Program Files (x86)\Microsoft Visual Studio\2019\Community\VC\Tools\MSVC\14.27.29110\include\xloctime
; File C:\Program Files (x86)\Microsoft Visual Studio\2019\Community\VC\Tools\MSVC\14.27.29110\include\xlocale
; File C:\Program Files (x86)\Microsoft Visual Studio\2019\Community\VC\Tools\MSVC\14.27.29110\include\xlocinfo
; File C:\Program Files (x86)\Microsoft Visual Studio\2019\Community\VC\Tools\MSVC\14.27.29110\include\xlocale
; File C:\Program Files (x86)\Microsoft Visual Studio\2019\Community\VC\Tools\MSVC\14.27.29110\include\xloctime
; File C:\Program Files (x86)\Microsoft Visual Studio\2019\Community\VC\Tools\MSVC\14.27.29110\include\xlocale
; File C:\Program Files (x86)\Microsoft Visual Studio\2019\Community\VC\Tools\MSVC\14.27.29110\include\xloctime
; File C:\Program Files (x86)\Microsoft Visual Studio\2019\Community\VC\Tools\MSVC\14.27.29110\include\xlocinfo
; File C:\Program Files (x86)\Microsoft Visual Studio\2019\Community\VC\Tools\MSVC\14.27.29110\include\xloctime
; File C:\Program Files (x86)\Microsoft Visual Studio\2019\Community\VC\Tools\MSVC\14.27.29110\include\xmemory
; File C:\Program Files (x86)\Microsoft Visual Studio\2019\Community\VC\Tools\MSVC\14.27.29110\include\xlocale
;	COMDAT ??$use_facet@V?$time_put@DV?$ostreambuf_iterator@DU?$char_traits@D@std@@@std@@@std@@@std@@YAABV?$time_put@DV?$ostreambuf_iterator@DU?$char_traits@D@std@@@std@@@0@ABVlocale@0@@Z
_TEXT	SEGMENT
$T2 = -80						; size = 52
$T3 = -28						; size = 4
__Lock$4 = -24						; size = 4
$T5 = -20						; size = 4
__Lock$6 = -20						; size = 4
$T7 = -16						; size = 4
__$EHRec$ = -12						; size = 12
__Psave_guard$8 = 8					; size = 4
__Loc$ = 8						; size = 4
??$use_facet@V?$time_put@DV?$ostreambuf_iterator@DU?$char_traits@D@std@@@std@@@std@@@std@@YAABV?$time_put@DV?$ostreambuf_iterator@DU?$char_traits@D@std@@@std@@@0@ABVlocale@0@@Z PROC ; std::use_facet<std::time_put<char,std::ostreambuf_iterator<char,std::char_traits<char> > > >, COMDAT

; 426  : const _Facet& __CRTDECL use_facet(const locale& _Loc) { // get facet reference from locale

  00000	55		 push	 ebp
  00001	8b ec		 mov	 ebp, esp
  00003	6a ff		 push	 -1
  00005	68 00 00 00 00	 push	 __ehhandler$??$use_facet@V?$time_put@DV?$ostreambuf_iterator@DU?$char_traits@D@std@@@std@@@std@@@std@@YAABV?$time_put@DV?$ostreambuf_iterator@DU?$char_traits@D@std@@@std@@@0@ABVlocale@0@@Z
  0000a	64 a1 00 00 00
	00		 mov	 eax, DWORD PTR fs:0
  00010	50		 push	 eax
  00011	83 ec 44	 sub	 esp, 68			; 00000044H
  00014	53		 push	 ebx
  00015	56		 push	 esi
  00016	57		 push	 edi
  00017	a1 00 00 00 00	 mov	 eax, DWORD PTR ___security_cookie
  0001c	33 c5		 xor	 eax, ebp
  0001e	50		 push	 eax
  0001f	8d 45 f4	 lea	 eax, DWORD PTR __$EHRec$[ebp]
  00022	64 a3 00 00 00
	00		 mov	 DWORD PTR fs:0, eax

; 427  :     _BEGIN_LOCK(_LOCK_LOCALE) // the thread lock, make get atomic

  00028	6a 00		 push	 0
  0002a	8d 4d e8	 lea	 ecx, DWORD PTR __Lock$4[ebp]
  0002d	c7 45 f0 00 00
	00 00		 mov	 DWORD PTR $T7[ebp], 0
  00034	e8 00 00 00 00	 call	 ??0_Lockit@std@@QAE@H@Z	; std::_Lockit::_Lockit

; 105  :             if (_Id == 0) { // still zero, allocate stamp

  00039	8b 35 00 00 00
	00		 mov	 esi, DWORD PTR ?id@?$time_put@DV?$ostreambuf_iterator@DU?$char_traits@D@std@@@std@@@std@@2V0locale@2@A ; std::time_put<char,std::ostreambuf_iterator<char,std::char_traits<char> > >::id

; 428  :     const locale::facet* _Psave = _Facetptr<_Facet>::_Psave; // static pointer to lazy facet

  0003f	8b 1d 00 00 00
	00		 mov	 ebx, DWORD PTR ?_Psave@?$_Facetptr@V?$time_put@DV?$ostreambuf_iterator@DU?$char_traits@D@std@@@std@@@std@@@std@@2PBVfacet@locale@2@B ; std::_Facetptr<std::time_put<char,std::ostreambuf_iterator<char,std::char_traits<char> > > >::_Psave
  00045	c7 45 fc 00 00
	00 00		 mov	 DWORD PTR __$EHRec$[ebp+8], 0

; 105  :             if (_Id == 0) { // still zero, allocate stamp

  0004c	85 f6		 test	 esi, esi
  0004e	75 2f		 jne	 SHORT $LN11@use_facet

; 106  :                 _BEGIN_LOCK(_LOCK_LOCALE)

  00050	56		 push	 esi
  00051	8d 4d ec	 lea	 ecx, DWORD PTR __Lock$6[ebp]
  00054	e8 00 00 00 00	 call	 ??0_Lockit@std@@QAE@H@Z	; std::_Lockit::_Lockit

; 107  :                 if (_Id == 0) {

  00059	39 35 00 00 00
	00		 cmp	 DWORD PTR ?id@?$time_put@DV?$ostreambuf_iterator@DU?$char_traits@D@std@@@std@@@std@@2V0locale@2@A, esi ; std::time_put<char,std::ostreambuf_iterator<char,std::char_traits<char> > >::id
  0005f	75 10		 jne	 SHORT $LN12@use_facet

; 108  :                     _Id = static_cast<size_t>(++_Id_cnt);

  00061	a1 00 00 00 00	 mov	 eax, DWORD PTR ?_Id_cnt@id@locale@std@@0HA ; std::locale::id::_Id_cnt
  00066	40		 inc	 eax
  00067	a3 00 00 00 00	 mov	 DWORD PTR ?_Id_cnt@id@locale@std@@0HA, eax ; std::locale::id::_Id_cnt
  0006c	a3 00 00 00 00	 mov	 DWORD PTR ?id@?$time_put@DV?$ostreambuf_iterator@DU?$char_traits@D@std@@@std@@@std@@2V0locale@2@A, eax ; std::time_put<char,std::ostreambuf_iterator<char,std::char_traits<char> > >::id
$LN12@use_facet:

; 109  :                 }
; 110  :                 _END_LOCK()

  00071	8d 4d ec	 lea	 ecx, DWORD PTR __Lock$6[ebp]
  00074	e8 00 00 00 00	 call	 ??1_Lockit@std@@QAE@XZ	; std::_Lockit::~_Lockit
  00079	8b 35 00 00 00
	00		 mov	 esi, DWORD PTR ?id@?$time_put@DV?$ostreambuf_iterator@DU?$char_traits@D@std@@@std@@@std@@2V0locale@2@A ; std::time_put<char,std::ostreambuf_iterator<char,std::char_traits<char> > >::id
$LN11@use_facet:

; 374  :         const facet* _Facptr = _Id < _Ptr->_Facetcount ? _Ptr->_Facetvec[_Id] : nullptr; // null if id off end

  0007f	8b 4d 08	 mov	 ecx, DWORD PTR __Loc$[ebp]
  00082	8b 49 04	 mov	 ecx, DWORD PTR [ecx+4]
  00085	3b 71 0c	 cmp	 esi, DWORD PTR [ecx+12]
  00088	73 10		 jae	 SHORT $LN19@use_facet
  0008a	8b 41 08	 mov	 eax, DWORD PTR [ecx+8]
  0008d	8b 3c b0	 mov	 edi, DWORD PTR [eax+esi*4]

; 375  :         if (_Facptr || !_Ptr->_Xparent) {

  00090	85 ff		 test	 edi, edi
  00092	0f 85 d9 00 00
	00		 jne	 $LN70@use_facet
  00098	eb 02		 jmp	 SHORT $LN73@use_facet
$LN19@use_facet:

; 371  :     }
; 372  : 
; 373  :     const facet* _Getfacet(size_t _Id) const { // look up a facet in locale object
; 374  :         const facet* _Facptr = _Id < _Ptr->_Facetcount ? _Ptr->_Facetvec[_Id] : nullptr; // null if id off end

  0009a	33 ff		 xor	 edi, edi
$LN73@use_facet:

; 375  :         if (_Facptr || !_Ptr->_Xparent) {

  0009c	80 79 14 00	 cmp	 BYTE PTR [ecx+20], 0
  000a0	74 10		 je	 SHORT $LN14@use_facet

; 376  :             return _Facptr; // found facet or not transparent
; 377  :         }
; 378  : 
; 379  :         // look in current locale
; 380  :         locale::_Locimp* _Ptr0 = _Getgloballocale();

  000a2	e8 00 00 00 00	 call	 ?_Getgloballocale@locale@std@@CAPAV_Locimp@12@XZ ; std::locale::_Getgloballocale

; 381  :         if (_Id < _Ptr0->_Facetcount) {

  000a7	3b 70 0c	 cmp	 esi, DWORD PTR [eax+12]
  000aa	73 0e		 jae	 SHORT $LN74@use_facet

; 382  :             return _Ptr0->_Facetvec[_Id]; // get from current locale

  000ac	8b 40 08	 mov	 eax, DWORD PTR [eax+8]
  000af	8b 3c b0	 mov	 edi, DWORD PTR [eax+esi*4]
$LN14@use_facet:

; 429  : 
; 430  :     const size_t _Id         = _Facet::id;
; 431  :     const locale::facet* _Pf = _Loc._Getfacet(_Id);
; 432  : 
; 433  :     if (!_Pf) {

  000b2	85 ff		 test	 edi, edi
  000b4	0f 85 b7 00 00
	00		 jne	 $LN70@use_facet
$LN74@use_facet:

; 434  :         if (_Psave) {

  000ba	85 db		 test	 ebx, ebx
  000bc	74 07		 je	 SHORT $LN3@use_facet

; 435  :             _Pf = _Psave; // lazy facet already allocated

  000be	8b fb		 mov	 edi, ebx

; 436  :         } else if (_Facet::_Getcat(&_Psave, &_Loc) == static_cast<size_t>(-1)) {

  000c0	e9 ac 00 00 00	 jmp	 $LN70@use_facet
$LN3@use_facet:
; File C:\Program Files (x86)\Microsoft Visual Studio\2019\Community\VC\Tools\MSVC\14.27.29110\include\xloctime

; 699  :             *_Ppf = new time_put<_Elem, _OutIt>(_Locinfo(_Ploc->c_str()));

  000c5	6a 0c		 push	 12			; 0000000cH
  000c7	e8 00 00 00 00	 call	 ??2@YAPAXI@Z		; operator new
  000cc	8b f8		 mov	 edi, eax
  000ce	83 c4 04	 add	 esp, 4
  000d1	89 7d ec	 mov	 DWORD PTR $T5[ebp], edi
  000d4	c6 45 fc 01	 mov	 BYTE PTR __$EHRec$[ebp+8], 1
  000d8	85 ff		 test	 edi, edi
  000da	74 68		 je	 SHORT $LN24@use_facet
; File C:\Program Files (x86)\Microsoft Visual Studio\2019\Community\VC\Tools\MSVC\14.27.29110\include\xlocale

; 370  :         return _Ptr ? _Ptr->_Name.c_str() : "";

  000dc	8b 45 08	 mov	 eax, DWORD PTR __Loc$[ebp]
  000df	8b 48 04	 mov	 ecx, DWORD PTR [eax+4]
  000e2	85 c9		 test	 ecx, ecx
  000e4	74 0c		 je	 SHORT $LN32@use_facet
; File C:\Program Files (x86)\Microsoft Visual Studio\2019\Community\VC\Tools\MSVC\14.27.29110\include\xlocinfo

; 109  :         return _Myptr ? _Myptr : &_Nul;

  000e6	8b 41 18	 mov	 eax, DWORD PTR [ecx+24]
  000e9	85 c0		 test	 eax, eax
  000eb	75 0a		 jne	 SHORT $LN33@use_facet
  000ed	8d 41 1c	 lea	 eax, DWORD PTR [ecx+28]
; File C:\Program Files (x86)\Microsoft Visual Studio\2019\Community\VC\Tools\MSVC\14.27.29110\include\xlocale

; 370  :         return _Ptr ? _Ptr->_Name.c_str() : "";

  000f0	eb 05		 jmp	 SHORT $LN33@use_facet
$LN32@use_facet:
  000f2	b8 00 00 00 00	 mov	 eax, OFFSET ??_C@_00CNPNBAHC@@
$LN33@use_facet:
; File C:\Program Files (x86)\Microsoft Visual Studio\2019\Community\VC\Tools\MSVC\14.27.29110\include\xloctime

; 699  :             *_Ppf = new time_put<_Elem, _OutIt>(_Locinfo(_Ploc->c_str()));

  000f7	50		 push	 eax
  000f8	8d 4d b0	 lea	 ecx, DWORD PTR $T2[ebp]
  000fb	e8 00 00 00 00	 call	 ??0_Locinfo@std@@QAE@PBD@Z ; std::_Locinfo::_Locinfo
; File C:\Program Files (x86)\Microsoft Visual Studio\2019\Community\VC\Tools\MSVC\14.27.29110\include\xlocale

; 152  :             : _Myrefs(static_cast<_Atomic_counter_t>(_Initrefs)) // non-atomic initialization

  00100	c7 47 04 00 00
	00 00		 mov	 DWORD PTR [edi+4], 0
; File C:\Program Files (x86)\Microsoft Visual Studio\2019\Community\VC\Tools\MSVC\14.27.29110\include\xloctime

; 692  :     __CLR_OR_THIS_CALL time_put(const _Locinfo& _Lobj, size_t _Refs = 0) : locale::facet(_Refs) {

  00107	8d 5f 08	 lea	 ebx, DWORD PTR [edi+8]
  0010a	c7 07 00 00 00
	00		 mov	 DWORD PTR [edi], OFFSET ??_7?$time_put@DV?$ostreambuf_iterator@DU?$char_traits@D@std@@@std@@@std@@6B@

; 699  :             *_Ppf = new time_put<_Elem, _OutIt>(_Locinfo(_Ploc->c_str()));

  00110	c7 45 f0 01 00
	00 00		 mov	 DWORD PTR $T7[ebp], 1
; File C:\Program Files (x86)\Microsoft Visual Studio\2019\Community\VC\Tools\MSVC\14.27.29110\include\xlocinfo

; 27   :     explicit __CLR_OR_THIS_CALL _Timevec(void* _Ptr = nullptr) : _Timeptr(_Ptr) {}

  00117	c7 03 00 00 00
	00		 mov	 DWORD PTR [ebx], 0

; 211  :         return _Timevec(::_Gettnames());

  0011d	e8 00 00 00 00	 call	 __Gettnames

; 27   :     explicit __CLR_OR_THIS_CALL _Timevec(void* _Ptr = nullptr) : _Timeptr(_Ptr) {}

  00122	8b f0		 mov	 esi, eax

; 38   :         if (this != &_Right) {

  00124	8d 45 e4	 lea	 eax, DWORD PTR $T3[ebp]
  00127	3b d8		 cmp	 ebx, eax
  00129	74 0e		 je	 SHORT $LN53@use_facet

; 39   :             _CSTD free(_Timeptr);

  0012b	ff 33		 push	 DWORD PTR [ebx]
  0012d	e8 00 00 00 00	 call	 _free
  00132	83 c4 04	 add	 esp, 4

; 40   :             _Timeptr                               = _Right._Timeptr;

  00135	89 33		 mov	 DWORD PTR [ebx], esi

; 41   :             const_cast<_Timevec&>(_Right)._Timeptr = nullptr; // TRANSITION, should be movable-only

  00137	33 f6		 xor	 esi, esi
$LN53@use_facet:

; 34   :         _CSTD free(_Timeptr);

  00139	56		 push	 esi
  0013a	e8 00 00 00 00	 call	 _free
  0013f	83 c4 04	 add	 esp, 4
; File C:\Program Files (x86)\Microsoft Visual Studio\2019\Community\VC\Tools\MSVC\14.27.29110\include\xloctime

; 699  :             *_Ppf = new time_put<_Elem, _OutIt>(_Locinfo(_Ploc->c_str()));

  00142	eb 02		 jmp	 SHORT $LN25@use_facet
$LN24@use_facet:
  00144	33 ff		 xor	 edi, edi
$LN25@use_facet:
  00146	f6 45 f0 01	 test	 BYTE PTR $T7[ebp], 1
  0014a	74 08		 je	 SHORT $LN29@use_facet
  0014c	8d 4d b0	 lea	 ecx, DWORD PTR $T2[ebp]
  0014f	e8 00 00 00 00	 call	 ??1_Locinfo@std@@QAE@XZ	; std::_Locinfo::~_Locinfo
$LN29@use_facet:
; File C:\Program Files (x86)\Microsoft Visual Studio\2019\Community\VC\Tools\MSVC\14.27.29110\include\xmemory

; 1336 :         : _Ty1(), _Myval2(_STD forward<_Other2>(_Val2)...) {}

  00154	89 7d 08	 mov	 DWORD PTR __Psave_guard$8[ebp], edi
; File C:\Program Files (x86)\Microsoft Visual Studio\2019\Community\VC\Tools\MSVC\14.27.29110\include\xlocale

; 449  :             _Facet_Register(_Pfmod);

  00157	57		 push	 edi
  00158	c6 45 fc 02	 mov	 BYTE PTR __$EHRec$[ebp+8], 2
  0015c	e8 00 00 00 00	 call	 ?_Facet_Register@std@@YAXPAV_Facet_base@1@@Z ; std::_Facet_Register

; 450  : #endif // defined(_M_CEE)
; 451  : 
; 452  :             _Pfmod->_Incref();

  00161	8b 17		 mov	 edx, DWORD PTR [edi]
  00163	83 c4 04	 add	 esp, 4
  00166	8b cf		 mov	 ecx, edi
  00168	ff 52 04	 call	 DWORD PTR [edx+4]

; 453  :             _Facetptr<_Facet>::_Psave = _Psave;

  0016b	89 3d 00 00 00
	00		 mov	 DWORD PTR ?_Psave@?$_Facetptr@V?$time_put@DV?$ostreambuf_iterator@DU?$char_traits@D@std@@@std@@@std@@@std@@2PBVfacet@locale@2@B, edi ; std::_Facetptr<std::time_put<char,std::ostreambuf_iterator<char,std::char_traits<char> > > >::_Psave
$LN70@use_facet:

; 454  :             _Pf                       = _Psave;
; 455  : 
; 456  :             (void) _Psave_guard.release();
; 457  :         }
; 458  :     }
; 459  : 
; 460  :     return static_cast<const _Facet&>(*_Pf); // should be dynamic_cast

  00171	8d 4d e8	 lea	 ecx, DWORD PTR __Lock$4[ebp]
  00174	e8 00 00 00 00	 call	 ??1_Lockit@std@@QAE@XZ	; std::_Lockit::~_Lockit
  00179	8b c7		 mov	 eax, edi

; 461  :     _END_LOCK()
; 462  : } // end of use_facet body

  0017b	8b 4d f4	 mov	 ecx, DWORD PTR __$EHRec$[ebp]
  0017e	64 89 0d 00 00
	00 00		 mov	 DWORD PTR fs:0, ecx
  00185	59		 pop	 ecx
  00186	5f		 pop	 edi
  00187	5e		 pop	 esi
  00188	5b		 pop	 ebx
  00189	8b e5		 mov	 esp, ebp
  0018b	5d		 pop	 ebp
  0018c	c3		 ret	 0
_TEXT	ENDS
;	COMDAT text$x
text$x	SEGMENT
__unwindfunclet$??$use_facet@V?$time_put@DV?$ostreambuf_iterator@DU?$char_traits@D@std@@@std@@@std@@@std@@YAABV?$time_put@DV?$ostreambuf_iterator@DU?$char_traits@D@std@@@std@@@0@ABVlocale@0@@Z$0:
  00000	8d 4d e8	 lea	 ecx, DWORD PTR __Lock$4[ebp]
  00003	e9 00 00 00 00	 jmp	 ??1_Lockit@std@@QAE@XZ	; std::_Lockit::~_Lockit
__unwindfunclet$??$use_facet@V?$time_put@DV?$ostreambuf_iterator@DU?$char_traits@D@std@@@std@@@std@@@std@@YAABV?$time_put@DV?$ostreambuf_iterator@DU?$char_traits@D@std@@@std@@@0@ABVlocale@0@@Z$2:
  00008	6a 0c		 push	 12			; 0000000cH
  0000a	8b 45 ec	 mov	 eax, DWORD PTR $T5[ebp]
  0000d	50		 push	 eax
  0000e	e8 00 00 00 00	 call	 ??3@YAXPAXI@Z		; operator delete
  00013	83 c4 08	 add	 esp, 8
  00016	c3		 ret	 0
__unwindfunclet$??$use_facet@V?$time_put@DV?$ostreambuf_iterator@DU?$char_traits@D@std@@@std@@@std@@@std@@YAABV?$time_put@DV?$ostreambuf_iterator@DU?$char_traits@D@std@@@std@@@0@ABVlocale@0@@Z$1:
  00017	8d 4d 08	 lea	 ecx, DWORD PTR __Psave_guard$8[ebp]
  0001a	e9 00 00 00 00	 jmp	 ??1?$unique_ptr@V_Facet_base@std@@U?$default_delete@V_Facet_base@std@@@2@@std@@QAE@XZ ; std::unique_ptr<std::_Facet_base,std::default_delete<std::_Facet_base> >::~unique_ptr<std::_Facet_base,std::default_delete<std::_Facet_base> >
  0001f	cc		 int	 3
  00020	cc		 int	 3
  00021	cc		 int	 3
  00022	cc		 int	 3
  00023	cc		 int	 3
__ehhandler$??$use_facet@V?$time_put@DV?$ostreambuf_iterator@DU?$char_traits@D@std@@@std@@@std@@@std@@YAABV?$time_put@DV?$ostreambuf_iterator@DU?$char_traits@D@std@@@std@@@0@ABVlocale@0@@Z:
  00024	90		 npad	 1
  00025	90		 npad	 1
  00026	8b 54 24 08	 mov	 edx, DWORD PTR [esp+8]
  0002a	8d 42 0c	 lea	 eax, DWORD PTR [edx+12]
  0002d	8b 4a ac	 mov	 ecx, DWORD PTR [edx-84]
  00030	33 c8		 xor	 ecx, eax
  00032	e8 00 00 00 00	 call	 @__security_check_cookie@4
  00037	b8 00 00 00 00	 mov	 eax, OFFSET __ehfuncinfo$??$use_facet@V?$time_put@DV?$ostreambuf_iterator@DU?$char_traits@D@std@@@std@@@std@@@std@@YAABV?$time_put@DV?$ostreambuf_iterator@DU?$char_traits@D@std@@@std@@@0@ABVlocale@0@@Z
  0003c	e9 00 00 00 00	 jmp	 ___CxxFrameHandler3
text$x	ENDS
??$use_facet@V?$time_put@DV?$ostreambuf_iterator@DU?$char_traits@D@std@@@std@@@std@@@std@@YAABV?$time_put@DV?$ostreambuf_iterator@DU?$char_traits@D@std@@@std@@@0@ABVlocale@0@@Z ENDP ; std::use_facet<std::time_put<char,std::ostreambuf_iterator<char,std::char_traits<char> > > >
; Function compile flags: /Ogtp
; File C:\Program Files (x86)\Microsoft Visual Studio\2019\Community\VC\Tools\MSVC\14.27.29110\include\ostream
;	COMDAT ??1sentry@?$basic_ostream@DU?$char_traits@D@std@@@std@@QAE@XZ
_TEXT	SEGMENT
__$EHRec$ = -12						; size = 12
??1sentry@?$basic_ostream@DU?$char_traits@D@std@@@std@@QAE@XZ PROC ; std::basic_ostream<char,std::char_traits<char> >::sentry::~sentry, COMDAT
; _this$ = ecx

; 110  :         __CLR_OR_THIS_CALL ~sentry() noexcept {

  00000	55		 push	 ebp
  00001	8b ec		 mov	 ebp, esp
  00003	6a ff		 push	 -1
  00005	68 00 00 00 00	 push	 __ehhandler$??1sentry@?$basic_ostream@DU?$char_traits@D@std@@@std@@QAE@XZ
  0000a	64 a1 00 00 00
	00		 mov	 eax, DWORD PTR fs:0
  00010	50		 push	 eax
  00011	56		 push	 esi
  00012	a1 00 00 00 00	 mov	 eax, DWORD PTR ___security_cookie
  00017	33 c5		 xor	 eax, ebp
  00019	50		 push	 eax
  0001a	8d 45 f4	 lea	 eax, DWORD PTR __$EHRec$[ebp]
  0001d	64 a3 00 00 00
	00		 mov	 DWORD PTR fs:0, eax
  00023	8b f1		 mov	 esi, ecx

; 111  : #if !_HAS_EXCEPTIONS
; 112  :             const bool _Zero_uncaught_exceptions = true;
; 113  : #elif _HAS_DEPRECATED_UNCAUGHT_EXCEPTION
; 114  :             const bool _Zero_uncaught_exceptions = !_STD uncaught_exception(); // TRANSITION, ArchivedOS-12000909

  00025	e8 00 00 00 00	 call	 ?uncaught_exception@std@@YA_NXZ ; std::uncaught_exception

; 115  : #else // ^^^ _HAS_DEPRECATED_UNCAUGHT_EXCEPTION / !_HAS_DEPRECATED_UNCAUGHT_EXCEPTION vvv
; 116  :             const bool _Zero_uncaught_exceptions = _STD uncaught_exceptions() == 0;
; 117  : #endif // !_HAS_DEPRECATED_UNCAUGHT_EXCEPTION
; 118  : 
; 119  :             if (_Zero_uncaught_exceptions) {

  0002a	84 c0		 test	 al, al
  0002c	75 07		 jne	 SHORT $LN2@sentry

; 120  :                 this->_Myostr._Osfx();

  0002e	8b 0e		 mov	 ecx, DWORD PTR [esi]
  00030	e8 00 00 00 00	 call	 ?_Osfx@?$basic_ostream@DU?$char_traits@D@std@@@std@@QAEXXZ ; std::basic_ostream<char,std::char_traits<char> >::_Osfx
$LN2@sentry:

; 79   :             const auto _Rdbuf = _Myostr.rdbuf();

  00035	8b 0e		 mov	 ecx, DWORD PTR [esi]
  00037	c7 45 fc 00 00
	00 00		 mov	 DWORD PTR __$EHRec$[ebp+8], 0
  0003e	8b 01		 mov	 eax, DWORD PTR [ecx]
  00040	8b 40 04	 mov	 eax, DWORD PTR [eax+4]
  00043	8b 4c 08 38	 mov	 ecx, DWORD PTR [eax+ecx+56]

; 80   :             if (_Rdbuf) {

  00047	85 c9		 test	 ecx, ecx
  00049	74 05		 je	 SHORT $LN5@sentry

; 81   :                 _Rdbuf->_Unlock();

  0004b	8b 01		 mov	 eax, DWORD PTR [ecx]
  0004d	ff 50 08	 call	 DWORD PTR [eax+8]
$LN5@sentry:

; 121  :             }
; 122  :         }

  00050	8b 4d f4	 mov	 ecx, DWORD PTR __$EHRec$[ebp]
  00053	64 89 0d 00 00
	00 00		 mov	 DWORD PTR fs:0, ecx
  0005a	59		 pop	 ecx
  0005b	5e		 pop	 esi
  0005c	8b e5		 mov	 esp, ebp
  0005e	5d		 pop	 ebp
  0005f	c3		 ret	 0
  00060	cc		 int	 3
  00061	cc		 int	 3
  00062	cc		 int	 3
  00063	cc		 int	 3
  00064	cc		 int	 3
_TEXT	ENDS
;	COMDAT text$x
text$x	SEGMENT
__ehhandler$??1sentry@?$basic_ostream@DU?$char_traits@D@std@@@std@@QAE@XZ:
  00000	90		 npad	 1
  00001	90		 npad	 1
  00002	8b 54 24 08	 mov	 edx, DWORD PTR [esp+8]
  00006	8d 42 0c	 lea	 eax, DWORD PTR [edx+12]
  00009	8b 4a f8	 mov	 ecx, DWORD PTR [edx-8]
  0000c	33 c8		 xor	 ecx, eax
  0000e	e8 00 00 00 00	 call	 @__security_check_cookie@4
  00013	b8 00 00 00 00	 mov	 eax, OFFSET __ehfuncinfo$??1sentry@?$basic_ostream@DU?$char_traits@D@std@@@std@@QAE@XZ
  00018	e9 00 00 00 00	 jmp	 ___CxxFrameHandler3
text$x	ENDS
??1sentry@?$basic_ostream@DU?$char_traits@D@std@@@std@@QAE@XZ ENDP ; std::basic_ostream<char,std::char_traits<char> >::sentry::~sentry
; Function compile flags: /Ogtp
; File C:\Program Files (x86)\Microsoft Visual Studio\2019\Community\VC\Tools\MSVC\14.27.29110\include\ostream
; File C:\Program Files (x86)\Microsoft Visual Studio\2019\Community\VC\Tools\MSVC\14.27.29110\include\xiosbase
; File C:\Program Files (x86)\Microsoft Visual Studio\2019\Community\VC\Tools\MSVC\14.27.29110\include\ostream
; File C:\Program Files (x86)\Microsoft Visual Studio\2019\Community\VC\Tools\MSVC\14.27.29110\include\streambuf
; File C:\Program Files (x86)\Microsoft Visual Studio\2019\Community\VC\Tools\MSVC\14.27.29110\include\ostream
; File C:\Program Files (x86)\Microsoft Visual Studio\2019\Community\VC\Tools\MSVC\14.27.29110\include\xiosbase
; File C:\Program Files (x86)\Microsoft Visual Studio\2019\Community\VC\Tools\MSVC\14.27.29110\include\ostream
; File C:\Program Files (x86)\Microsoft Visual Studio\2019\Community\VC\Tools\MSVC\14.27.29110\include\xiosbase
; File C:\Program Files (x86)\Microsoft Visual Studio\2019\Community\VC\Tools\MSVC\14.27.29110\include\ostream
; File C:\Program Files (x86)\Microsoft Visual Studio\2019\Community\VC\Tools\MSVC\14.27.29110\include\xiosbase
; File C:\Program Files (x86)\Microsoft Visual Studio\2019\Community\VC\Tools\MSVC\14.27.29110\include\ostream
;	COMDAT ??0sentry@?$basic_ostream@DU?$char_traits@D@std@@@std@@QAE@AAV12@@Z
_TEXT	SEGMENT
$T2 = -52						; size = 20
$T3 = -32						; size = 8
__Ok$4 = -24						; size = 8
_this$ = -16						; size = 4
__$EHRec$ = -12						; size = 12
__Rdbuf$1$ = 8						; size = 4
__Ostr$ = 8						; size = 4
??0sentry@?$basic_ostream@DU?$char_traits@D@std@@@std@@QAE@AAV12@@Z PROC ; std::basic_ostream<char,std::char_traits<char> >::sentry::sentry, COMDAT
; _this$ = ecx

; 92   :         explicit __CLR_OR_THIS_CALL sentry(basic_ostream& _Ostr) : _Sentry_base(_Ostr) {

  00000	55		 push	 ebp
  00001	8b ec		 mov	 ebp, esp
  00003	6a ff		 push	 -1
  00005	68 00 00 00 00	 push	 __ehhandler$??0sentry@?$basic_ostream@DU?$char_traits@D@std@@@std@@QAE@AAV12@@Z
  0000a	64 a1 00 00 00
	00		 mov	 eax, DWORD PTR fs:0
  00010	50		 push	 eax
  00011	83 ec 28	 sub	 esp, 40			; 00000028H
  00014	53		 push	 ebx
  00015	56		 push	 esi
  00016	57		 push	 edi
  00017	a1 00 00 00 00	 mov	 eax, DWORD PTR ___security_cookie
  0001c	33 c5		 xor	 eax, ebp
  0001e	50		 push	 eax
  0001f	8d 45 f4	 lea	 eax, DWORD PTR __$EHRec$[ebp]
  00022	64 a3 00 00 00
	00		 mov	 DWORD PTR fs:0, eax
  00028	8b d9		 mov	 ebx, ecx
  0002a	89 5d f0	 mov	 DWORD PTR _this$[ebp], ebx
  0002d	8b 75 08	 mov	 esi, DWORD PTR __Ostr$[ebp]

; 71   :         __CLR_OR_THIS_CALL _Sentry_base(basic_ostream& _Ostr) : _Myostr(_Ostr) { // lock the stream buffer, if there

  00030	89 33		 mov	 DWORD PTR [ebx], esi

; 72   :             const auto _Rdbuf = _Myostr.rdbuf();

  00032	8b 16		 mov	 edx, DWORD PTR [esi]
  00034	8b 42 04	 mov	 eax, DWORD PTR [edx+4]
  00037	8b 4c 30 38	 mov	 ecx, DWORD PTR [eax+esi+56]

; 73   :             if (_Rdbuf) {

  0003b	85 c9		 test	 ecx, ecx
  0003d	74 07		 je	 SHORT $LN8@sentry

; 74   :                 _Rdbuf->_Lock();

  0003f	8b 01		 mov	 eax, DWORD PTR [ecx]
  00041	ff 50 04	 call	 DWORD PTR [eax+4]
  00044	8b 16		 mov	 edx, DWORD PTR [esi]
$LN8@sentry:
; File C:\Program Files (x86)\Microsoft Visual Studio\2019\Community\VC\Tools\MSVC\14.27.29110\include\xiosbase

; 295  :         return rdstate() == ios_base::goodbit;

  00046	8b 42 04	 mov	 eax, DWORD PTR [edx+4]
  00049	83 7c 30 0c 00	 cmp	 DWORD PTR [eax+esi+12], 0
  0004e	8d 3c 30	 lea	 edi, DWORD PTR [eax+esi]
; File C:\Program Files (x86)\Microsoft Visual Studio\2019\Community\VC\Tools\MSVC\14.27.29110\include\ostream

; 92   :         explicit __CLR_OR_THIS_CALL sentry(basic_ostream& _Ostr) : _Sentry_base(_Ostr) {

  00051	c7 45 fc 00 00
	00 00		 mov	 DWORD PTR __$EHRec$[ebp+8], 0

; 93   :             if (!_Ostr.good()) {

  00058	74 07		 je	 SHORT $LN2@sentry

; 94   :                 _Ok = false;

  0005a	32 c0		 xor	 al, al

; 95   :                 return;

  0005c	e9 9d 00 00 00	 jmp	 $LN1@sentry
$LN2@sentry:

; 96   :             }
; 97   : 
; 98   :             const auto _Tied = _Ostr.tie();

  00061	8b 7f 3c	 mov	 edi, DWORD PTR [edi+60]

; 99   :             if (!_Tied || _Tied == &_Ostr) {

  00064	85 ff		 test	 edi, edi
  00066	0f 84 90 00 00
	00		 je	 $LN4@sentry
  0006c	3b fe		 cmp	 edi, esi
  0006e	0f 84 88 00 00
	00		 je	 $LN4@sentry

; 547  :         const auto _Rdbuf = _Myios::rdbuf();

  00074	8b 07		 mov	 eax, DWORD PTR [edi]
  00076	8b 40 04	 mov	 eax, DWORD PTR [eax+4]
  00079	8b 44 38 38	 mov	 eax, DWORD PTR [eax+edi+56]
  0007d	89 45 08	 mov	 DWORD PTR __Rdbuf$1$[ebp], eax

; 548  :         if (_Rdbuf) { // buffer exists, flush it

  00080	85 c0		 test	 eax, eax
  00082	74 6b		 je	 SHORT $LN36@sentry

; 549  :             const sentry _Ok(*this);

  00084	57		 push	 edi
  00085	8d 4d e8	 lea	 ecx, DWORD PTR __Ok$4[ebp]
  00088	e8 00 00 00 00	 call	 ??0sentry@?$basic_ostream@DU?$char_traits@D@std@@@std@@QAE@AAV12@@Z ; std::basic_ostream<char,std::char_traits<char> >::sentry::sentry

; 551  :             if (_Ok && _Rdbuf->pubsync() == -1) {

  0008d	80 7d ec 00	 cmp	 BYTE PTR __Ok$4[ebp+4], 0
  00091	c6 45 fc 01	 mov	 BYTE PTR __$EHRec$[ebp+8], 1
  00095	74 28		 je	 SHORT $LN24@sentry
; File C:\Program Files (x86)\Microsoft Visual Studio\2019\Community\VC\Tools\MSVC\14.27.29110\include\streambuf

; 123  :         return sync();

  00097	8b 4d 08	 mov	 ecx, DWORD PTR __Rdbuf$1$[ebp]
  0009a	8b 01		 mov	 eax, DWORD PTR [ecx]
  0009c	ff 50 34	 call	 DWORD PTR [eax+52]
; File C:\Program Files (x86)\Microsoft Visual Studio\2019\Community\VC\Tools\MSVC\14.27.29110\include\ostream

; 551  :             if (_Ok && _Rdbuf->pubsync() == -1) {

  0009f	83 f8 ff	 cmp	 eax, -1
  000a2	75 1b		 jne	 SHORT $LN24@sentry

; 552  :                 _Myios::setstate(ios_base::badbit); // sync failed

  000a4	8b 07		 mov	 eax, DWORD PTR [edi]
  000a6	8b 48 04	 mov	 ecx, DWORD PTR [eax+4]
; File C:\Program Files (x86)\Microsoft Visual Studio\2019\Community\VC\Tools\MSVC\14.27.29110\include\xiosbase

; 244  :         _State &= _Statmask;

  000a9	8b 44 39 0c	 mov	 eax, DWORD PTR [ecx+edi+12]
  000ad	83 e0 13	 and	 eax, 19			; 00000013H
  000b0	83 c8 04	 or	 eax, 4

; 245  :         _Mystate             = _State;

  000b3	89 44 39 0c	 mov	 DWORD PTR [ecx+edi+12], eax

; 246  :         const auto _Filtered = _State & _Except;

  000b7	8b 4c 39 10	 mov	 ecx, DWORD PTR [ecx+edi+16]
  000bb	23 c8		 and	 ecx, eax

; 247  :         if (_Filtered) {

  000bd	75 58		 jne	 SHORT $LN48@sentry
$LN24@sentry:
; File C:\Program Files (x86)\Microsoft Visual Studio\2019\Community\VC\Tools\MSVC\14.27.29110\include\ostream

; 110  :         __CLR_OR_THIS_CALL ~sentry() noexcept {

  000bf	c6 45 fc 02	 mov	 BYTE PTR __$EHRec$[ebp+8], 2

; 111  : #if !_HAS_EXCEPTIONS
; 112  :             const bool _Zero_uncaught_exceptions = true;
; 113  : #elif _HAS_DEPRECATED_UNCAUGHT_EXCEPTION
; 114  :             const bool _Zero_uncaught_exceptions = !_STD uncaught_exception(); // TRANSITION, ArchivedOS-12000909

  000c3	e8 00 00 00 00	 call	 ?uncaught_exception@std@@YA_NXZ ; std::uncaught_exception

; 115  : #else // ^^^ _HAS_DEPRECATED_UNCAUGHT_EXCEPTION / !_HAS_DEPRECATED_UNCAUGHT_EXCEPTION vvv
; 116  :             const bool _Zero_uncaught_exceptions = _STD uncaught_exceptions() == 0;
; 117  : #endif // !_HAS_DEPRECATED_UNCAUGHT_EXCEPTION
; 118  : 
; 119  :             if (_Zero_uncaught_exceptions) {

  000c8	84 c0		 test	 al, al
  000ca	75 08		 jne	 SHORT $LN35@sentry

; 120  :                 this->_Myostr._Osfx();

  000cc	8b 4d e8	 mov	 ecx, DWORD PTR __Ok$4[ebp]
  000cf	e8 00 00 00 00	 call	 ?_Osfx@?$basic_ostream@DU?$char_traits@D@std@@@std@@QAEXXZ ; std::basic_ostream<char,std::char_traits<char> >::_Osfx
$LN35@sentry:

; 79   :             const auto _Rdbuf = _Myostr.rdbuf();

  000d4	8b 4d e8	 mov	 ecx, DWORD PTR __Ok$4[ebp]
  000d7	c6 45 fc 03	 mov	 BYTE PTR __$EHRec$[ebp+8], 3
  000db	8b 01		 mov	 eax, DWORD PTR [ecx]
  000dd	8b 40 04	 mov	 eax, DWORD PTR [eax+4]
  000e0	8b 4c 08 38	 mov	 ecx, DWORD PTR [eax+ecx+56]

; 80   :             if (_Rdbuf) {

  000e4	85 c9		 test	 ecx, ecx
  000e6	74 05		 je	 SHORT $LN39@sentry

; 81   :                 _Rdbuf->_Unlock();

  000e8	8b 01		 mov	 eax, DWORD PTR [ecx]
  000ea	ff 50 08	 call	 DWORD PTR [eax+8]
$LN39@sentry:
  000ed	8b 16		 mov	 edx, DWORD PTR [esi]
$LN36@sentry:
; File C:\Program Files (x86)\Microsoft Visual Studio\2019\Community\VC\Tools\MSVC\14.27.29110\include\xiosbase

; 295  :         return rdstate() == ios_base::goodbit;

  000ef	8b 42 04	 mov	 eax, DWORD PTR [edx+4]
  000f2	83 7c 30 0c 00	 cmp	 DWORD PTR [eax+esi+12], 0
  000f7	0f 94 c0	 sete	 al
; File C:\Program Files (x86)\Microsoft Visual Studio\2019\Community\VC\Tools\MSVC\14.27.29110\include\ostream

; 106  :             _Ok = _Ostr.good(); // store test only after flushing tie

  000fa	eb 02		 jmp	 SHORT $LN1@sentry
$LN4@sentry:

; 100  :                 _Ok = true;

  000fc	b0 01		 mov	 al, 1
$LN1@sentry:

; 107  :         }

  000fe	88 43 04	 mov	 BYTE PTR [ebx+4], al
  00101	8b c3		 mov	 eax, ebx
  00103	8b 4d f4	 mov	 ecx, DWORD PTR __$EHRec$[ebp]
  00106	64 89 0d 00 00
	00 00		 mov	 DWORD PTR fs:0, ecx
  0010d	59		 pop	 ecx
  0010e	5f		 pop	 edi
  0010f	5e		 pop	 esi
  00110	5b		 pop	 ebx
  00111	8b e5		 mov	 esp, ebp
  00113	5d		 pop	 ebp
  00114	c2 04 00	 ret	 4
$LN48@sentry:
; File C:\Program Files (x86)\Microsoft Visual Studio\2019\Community\VC\Tools\MSVC\14.27.29110\include\xiosbase

; 253  :             if (_Filtered & ios_base::badbit) {

  00117	f6 c1 04	 test	 cl, 4
  0011a	74 07		 je	 SHORT $LN26@sentry

; 254  :                 _Msg = "ios_base::badbit set";

  0011c	be 00 00 00 00	 mov	 esi, OFFSET ??_C@_0BF@PHHKMMFD@ios_base?3?3badbit?5set@
  00121	eb 10		 jmp	 SHORT $LN28@sentry
$LN26@sentry:

; 255  :             } else if (_Filtered & ios_base::failbit) {

  00123	f6 c1 02	 test	 cl, 2
  00126	be 00 00 00 00	 mov	 esi, OFFSET ??_C@_0BG@FMKFHCIL@ios_base?3?3failbit?5set@
  0012b	b8 00 00 00 00	 mov	 eax, OFFSET ??_C@_0BF@OOHOMBOF@ios_base?3?3eofbit?5set@
  00130	0f 44 f0	 cmove	 esi, eax
$LN28@sentry:

; 256  :                 _Msg = "ios_base::failbit set";
; 257  :             } else {
; 258  :                 _Msg = "ios_base::eofbit set";
; 259  :             }
; 260  : 
; 261  :             _THROW(failure(_Msg));

  00133	8d 45 e0	 lea	 eax, DWORD PTR $T3[ebp]
  00136	6a 01		 push	 1
  00138	50		 push	 eax
  00139	e8 00 00 00 00	 call	 ?make_error_code@std@@YA?AVerror_code@1@W4io_errc@1@@Z ; std::make_error_code
  0013e	83 c4 08	 add	 esp, 8
  00141	8d 4d cc	 lea	 ecx, DWORD PTR $T2[ebp]
  00144	50		 push	 eax
  00145	56		 push	 esi
  00146	e8 00 00 00 00	 call	 ??0failure@ios_base@std@@QAE@PBDABVerror_code@2@@Z ; std::ios_base::failure::failure
  0014b	68 00 00 00 00	 push	 OFFSET __TI5?AVfailure@ios_base@std@@
  00150	8d 45 cc	 lea	 eax, DWORD PTR $T2[ebp]
  00153	50		 push	 eax
  00154	e8 00 00 00 00	 call	 __CxxThrowException@8
$LN46@sentry:
  00159	cc		 int	 3
_TEXT	ENDS
;	COMDAT text$x
text$x	SEGMENT
__unwindfunclet$??0sentry@?$basic_ostream@DU?$char_traits@D@std@@@std@@QAE@AAV12@@Z$0:
  00000	8b 4d f0	 mov	 ecx, DWORD PTR _this$[ebp]
  00003	e9 00 00 00 00	 jmp	 ??1_Sentry_base@?$basic_ostream@DU?$char_traits@D@std@@@std@@QAE@XZ ; std::basic_ostream<char,std::char_traits<char> >::_Sentry_base::~_Sentry_base
__unwindfunclet$??0sentry@?$basic_ostream@DU?$char_traits@D@std@@@std@@QAE@AAV12@@Z$1:
  00008	8d 4d e8	 lea	 ecx, DWORD PTR __Ok$4[ebp]
  0000b	e9 00 00 00 00	 jmp	 ??1sentry@?$basic_ostream@DU?$char_traits@D@std@@@std@@QAE@XZ ; std::basic_ostream<char,std::char_traits<char> >::sentry::~sentry
  00010	cc		 int	 3
  00011	cc		 int	 3
  00012	cc		 int	 3
  00013	cc		 int	 3
  00014	cc		 int	 3
__ehhandler$??0sentry@?$basic_ostream@DU?$char_traits@D@std@@@std@@QAE@AAV12@@Z:
  00015	90		 npad	 1
  00016	90		 npad	 1
  00017	8b 54 24 08	 mov	 edx, DWORD PTR [esp+8]
  0001b	8d 42 0c	 lea	 eax, DWORD PTR [edx+12]
  0001e	8b 4a c8	 mov	 ecx, DWORD PTR [edx-56]
  00021	33 c8		 xor	 ecx, eax
  00023	e8 00 00 00 00	 call	 @__security_check_cookie@4
  00028	b8 00 00 00 00	 mov	 eax, OFFSET __ehfuncinfo$??0sentry@?$basic_ostream@DU?$char_traits@D@std@@@std@@QAE@AAV12@@Z
  0002d	e9 00 00 00 00	 jmp	 ___CxxFrameHandler3
text$x	ENDS
??0sentry@?$basic_ostream@DU?$char_traits@D@std@@@std@@QAE@AAV12@@Z ENDP ; std::basic_ostream<char,std::char_traits<char> >::sentry::sentry
; Function compile flags: /Ogtp
; File C:\Program Files (x86)\Microsoft Visual Studio\2019\Community\VC\Tools\MSVC\14.27.29110\include\ostream
;	COMDAT ??1_Sentry_base@?$basic_ostream@DU?$char_traits@D@std@@@std@@QAE@XZ
_TEXT	SEGMENT
__$EHRec$ = -12						; size = 12
??1_Sentry_base@?$basic_ostream@DU?$char_traits@D@std@@@std@@QAE@XZ PROC ; std::basic_ostream<char,std::char_traits<char> >::_Sentry_base::~_Sentry_base, COMDAT
; _this$ = ecx

; 78   :         __CLR_OR_THIS_CALL ~_Sentry_base() noexcept { // destroy after unlocking

  00000	55		 push	 ebp
  00001	8b ec		 mov	 ebp, esp
  00003	6a ff		 push	 -1
  00005	68 00 00 00 00	 push	 __ehhandler$??1_Sentry_base@?$basic_ostream@DU?$char_traits@D@std@@@std@@QAE@XZ
  0000a	64 a1 00 00 00
	00		 mov	 eax, DWORD PTR fs:0
  00010	50		 push	 eax
  00011	a1 00 00 00 00	 mov	 eax, DWORD PTR ___security_cookie
  00016	33 c5		 xor	 eax, ebp
  00018	50		 push	 eax
  00019	8d 45 f4	 lea	 eax, DWORD PTR __$EHRec$[ebp]
  0001c	64 a3 00 00 00
	00		 mov	 DWORD PTR fs:0, eax

; 79   :             const auto _Rdbuf = _Myostr.rdbuf();

  00022	8b 09		 mov	 ecx, DWORD PTR [ecx]
  00024	8b 01		 mov	 eax, DWORD PTR [ecx]
  00026	8b 40 04	 mov	 eax, DWORD PTR [eax+4]
  00029	8b 4c 08 38	 mov	 ecx, DWORD PTR [eax+ecx+56]

; 80   :             if (_Rdbuf) {

  0002d	85 c9		 test	 ecx, ecx
  0002f	74 05		 je	 SHORT $LN2@Sentry_bas

; 81   :                 _Rdbuf->_Unlock();

  00031	8b 01		 mov	 eax, DWORD PTR [ecx]
  00033	ff 50 08	 call	 DWORD PTR [eax+8]
$LN2@Sentry_bas:

; 82   :             }
; 83   :         }

  00036	8b 4d f4	 mov	 ecx, DWORD PTR __$EHRec$[ebp]
  00039	64 89 0d 00 00
	00 00		 mov	 DWORD PTR fs:0, ecx
  00040	59		 pop	 ecx
  00041	8b e5		 mov	 esp, ebp
  00043	5d		 pop	 ebp
  00044	c3		 ret	 0
  00045	cc		 int	 3
  00046	cc		 int	 3
  00047	cc		 int	 3
  00048	cc		 int	 3
  00049	cc		 int	 3
_TEXT	ENDS
;	COMDAT text$x
text$x	SEGMENT
__ehhandler$??1_Sentry_base@?$basic_ostream@DU?$char_traits@D@std@@@std@@QAE@XZ:
  00000	90		 npad	 1
  00001	90		 npad	 1
  00002	8b 54 24 08	 mov	 edx, DWORD PTR [esp+8]
  00006	8d 42 0c	 lea	 eax, DWORD PTR [edx+12]
  00009	8b 4a fc	 mov	 ecx, DWORD PTR [edx-4]
  0000c	33 c8		 xor	 ecx, eax
  0000e	e8 00 00 00 00	 call	 @__security_check_cookie@4
  00013	b8 00 00 00 00	 mov	 eax, OFFSET __ehfuncinfo$??1_Sentry_base@?$basic_ostream@DU?$char_traits@D@std@@@std@@QAE@XZ
  00018	e9 00 00 00 00	 jmp	 ___CxxFrameHandler3
text$x	ENDS
??1_Sentry_base@?$basic_ostream@DU?$char_traits@D@std@@@std@@QAE@XZ ENDP ; std::basic_ostream<char,std::char_traits<char> >::_Sentry_base::~_Sentry_base
; Function compile flags: /Ogtp
; File C:\Program Files (x86)\Microsoft Visual Studio\2019\Community\VC\Tools\MSVC\14.27.29110\include\memory
;	COMDAT ??1?$unique_ptr@V_Facet_base@std@@U?$default_delete@V_Facet_base@std@@@2@@std@@QAE@XZ
_TEXT	SEGMENT
??1?$unique_ptr@V_Facet_base@std@@U?$default_delete@V_Facet_base@std@@@2@@std@@QAE@XZ PROC ; std::unique_ptr<std::_Facet_base,std::default_delete<std::_Facet_base> >::~unique_ptr<std::_Facet_base,std::default_delete<std::_Facet_base> >, COMDAT
; _this$ = ecx

; 2511 :         if (_Mypair._Myval2) {

  00000	8b 09		 mov	 ecx, DWORD PTR [ecx]
  00002	85 c9		 test	 ecx, ecx
  00004	74 06		 je	 SHORT $LN6@unique_ptr

; 2402 :         delete _Ptr;

  00006	8b 01		 mov	 eax, DWORD PTR [ecx]
  00008	6a 01		 push	 1
  0000a	ff 10		 call	 DWORD PTR [eax]
$LN6@unique_ptr:

; 2512 :             _Mypair._Get_first()(_Mypair._Myval2);
; 2513 :         }
; 2514 :     }

  0000c	c3		 ret	 0
??1?$unique_ptr@V_Facet_base@std@@U?$default_delete@V_Facet_base@std@@@2@@std@@QAE@XZ ENDP ; std::unique_ptr<std::_Facet_base,std::default_delete<std::_Facet_base> >::~unique_ptr<std::_Facet_base,std::default_delete<std::_Facet_base> >
_TEXT	ENDS
; Function compile flags: /Ogtp
; File C:\Program Files (x86)\Microsoft Visual Studio\2019\Community\VC\Tools\MSVC\14.27.29110\include\string
;	COMDAT ??$_UIntegral_to_buff@DI@std@@YAPADPADI@Z
_TEXT	SEGMENT
__RNext$ = 8						; size = 4
__UVal$ = 12						; size = 4
??$_UIntegral_to_buff@DI@std@@YAPADPADI@Z PROC		; std::_UIntegral_to_buff<char,unsigned int>, COMDAT

; 454  : _Elem* _UIntegral_to_buff(_Elem* _RNext, _UTy _UVal) { // format _UVal into buffer *ending at* _RNext

  00000	55		 push	 ebp
  00001	8b ec		 mov	 ebp, esp

; 455  :     static_assert(is_unsigned_v<_UTy>, "_UTy must be unsigned");
; 456  : 
; 457  : #ifdef _WIN64
; 458  :     auto _UVal_trunc = _UVal;
; 459  : #else // ^^^ _WIN64 ^^^ // vvv !_WIN64 vvv
; 460  : 
; 461  :     constexpr bool _Big_uty = sizeof(_UTy) > 4;
; 462  :     if _CONSTEXPR_IF (_Big_uty) { // For 64-bit numbers, work in chunks to avoid 64-bit divisions.
; 463  :         while (_UVal > 0xFFFFFFFFU) {
; 464  :             auto _UVal_chunk = static_cast<unsigned long>(_UVal % 1000000000);
; 465  :             _UVal /= 1000000000;
; 466  : 
; 467  :             for (int _Idx = 0; _Idx != 9; ++_Idx) {
; 468  :                 *--_RNext = static_cast<_Elem>('0' + _UVal_chunk % 10);
; 469  :                 _UVal_chunk /= 10;
; 470  :             }
; 471  :         }
; 472  :     }
; 473  : 
; 474  :     auto _UVal_trunc = static_cast<unsigned long>(_UVal);

  00003	8b 4d 0c	 mov	 ecx, DWORD PTR __UVal$[ebp]
  00006	53		 push	 ebx
  00007	56		 push	 esi
  00008	8b 75 08	 mov	 esi, DWORD PTR __RNext$[ebp]
  0000b	0f 1f 44 00 00	 npad	 5
$LL4@UIntegral_:

; 475  : #endif // _WIN64
; 476  : 
; 477  :     do {
; 478  :         *--_RNext = static_cast<_Elem>('0' + _UVal_trunc % 10);

  00010	b8 cd cc cc cc	 mov	 eax, -858993459		; cccccccdH
  00015	4e		 dec	 esi
  00016	f7 e1		 mul	 ecx
  00018	c1 ea 03	 shr	 edx, 3
  0001b	8a c2		 mov	 al, dl
  0001d	c0 e0 02	 shl	 al, 2
  00020	8d 1c 10	 lea	 ebx, DWORD PTR [eax+edx]
  00023	02 db		 add	 bl, bl
  00025	2a cb		 sub	 cl, bl
  00027	80 c1 30	 add	 cl, 48			; 00000030H
  0002a	88 0e		 mov	 BYTE PTR [esi], cl

; 479  :         _UVal_trunc /= 10;

  0002c	8b ca		 mov	 ecx, edx

; 480  :     } while (_UVal_trunc != 0);

  0002e	85 c9		 test	 ecx, ecx
  00030	75 de		 jne	 SHORT $LL4@UIntegral_

; 481  :     return _RNext;

  00032	8b c6		 mov	 eax, esi
  00034	5e		 pop	 esi
  00035	5b		 pop	 ebx

; 482  : }

  00036	5d		 pop	 ebp
  00037	c3		 ret	 0
??$_UIntegral_to_buff@DI@std@@YAPADPADI@Z ENDP		; std::_UIntegral_to_buff<char,unsigned int>
_TEXT	ENDS
; Function compile flags: /Ogtp
; File C:\Program Files (x86)\Microsoft Visual Studio\2019\Community\VC\Tools\MSVC\14.27.29110\include\xmemory
;	COMDAT ??$_Deallocate@$07$0A@@std@@YAXPAXI@Z
_TEXT	SEGMENT
__Ptr$ = 8						; size = 4
__Bytes$ = 12						; size = 4
??$_Deallocate@$07$0A@@std@@YAXPAXI@Z PROC		; std::_Deallocate<8,0>, COMDAT

; 213  : void _Deallocate(void* _Ptr, size_t _Bytes) noexcept {

  00000	55		 push	 ebp
  00001	8b ec		 mov	 ebp, esp

; 214  :     // deallocate storage allocated by _Allocate when !_HAS_ALIGNED_NEW || _Align <= __STDCPP_DEFAULT_NEW_ALIGNMENT__
; 215  : #if defined(_M_IX86) || defined(_M_X64)
; 216  :     if (_Bytes >= _Big_allocation_threshold) { // boost the alignment of big allocations to help autovectorization

  00003	8b 4d 0c	 mov	 ecx, DWORD PTR __Bytes$[ebp]
  00006	81 f9 00 10 00
	00		 cmp	 ecx, 4096		; 00001000H
  0000c	72 18		 jb	 SHORT $LN15@Deallocate

; 137  :     const uintptr_t _Ptr_container   = _Ptr_user[-1];

  0000e	8b 45 08	 mov	 eax, DWORD PTR __Ptr$[ebp]
  00011	83 c1 23	 add	 ecx, 35			; 00000023H
  00014	8b 50 fc	 mov	 edx, DWORD PTR [eax-4]

; 138  : 
; 139  :     // If the following asserts, it likely means that we are performing
; 140  :     // an aligned delete on memory coming from an unaligned allocation.
; 141  :     _STL_ASSERT(_Ptr_user[-2] == _Big_allocation_sentinel, "invalid argument");
; 142  : 
; 143  :     // Extra paranoia on aligned allocation/deallocation; ensure _Ptr_container is
; 144  :     // in range [_Min_back_shift, _Non_user_size]
; 145  : #ifdef _DEBUG
; 146  :     constexpr uintptr_t _Min_back_shift = 2 * sizeof(void*);
; 147  : #else // ^^^ _DEBUG ^^^ // vvv !_DEBUG vvv
; 148  :     constexpr uintptr_t _Min_back_shift = sizeof(void*);
; 149  : #endif // _DEBUG
; 150  :     const uintptr_t _Back_shift = reinterpret_cast<uintptr_t>(_Ptr) - _Ptr_container;

  00017	2b c2		 sub	 eax, edx

; 151  :     _STL_VERIFY(_Back_shift >= _Min_back_shift && _Back_shift <= _Non_user_size, "invalid argument");

  00019	83 c0 fc	 add	 eax, -4			; fffffffcH
  0001c	83 f8 1f	 cmp	 eax, 31			; 0000001fH
  0001f	76 08		 jbe	 SHORT $LN13@Deallocate
  00021	e9 00 00 00 00	 jmp	 __invalid_parameter_noinfo_noreturn
$LN15@Deallocate:

; 214  :     // deallocate storage allocated by _Allocate when !_HAS_ALIGNED_NEW || _Align <= __STDCPP_DEFAULT_NEW_ALIGNMENT__
; 215  : #if defined(_M_IX86) || defined(_M_X64)
; 216  :     if (_Bytes >= _Big_allocation_threshold) { // boost the alignment of big allocations to help autovectorization

  00026	8b 55 08	 mov	 edx, DWORD PTR __Ptr$[ebp]
$LN13@Deallocate:

; 217  :         _Adjust_manually_vector_aligned(_Ptr, _Bytes);
; 218  :     }
; 219  : #endif // defined(_M_IX86) || defined(_M_X64)
; 220  : 
; 221  :     ::operator delete(_Ptr, _Bytes);

  00029	89 4d 0c	 mov	 DWORD PTR __Bytes$[ebp], ecx
  0002c	89 55 08	 mov	 DWORD PTR __Ptr$[ebp], edx

; 222  : }

  0002f	5d		 pop	 ebp

; 217  :         _Adjust_manually_vector_aligned(_Ptr, _Bytes);
; 218  :     }
; 219  : #endif // defined(_M_IX86) || defined(_M_X64)
; 220  : 
; 221  :     ::operator delete(_Ptr, _Bytes);

  00030	e9 00 00 00 00	 jmp	 ??3@YAXPAXI@Z		; operator delete
??$_Deallocate@$07$0A@@std@@YAXPAXI@Z ENDP		; std::_Deallocate<8,0>
_TEXT	ENDS
; Function compile flags: /Ogtp
; File C:\Program Files (x86)\Microsoft Visual Studio\2019\Community\VC\Tools\MSVC\14.27.29110\include\xmemory
;	COMDAT ??$_Allocate@$07U_Default_allocate_traits@std@@$0A@@std@@YAPAXI@Z
_TEXT	SEGMENT
__Bytes$ = 8						; size = 4
??$_Allocate@$07U_Default_allocate_traits@std@@$0A@@std@@YAPAXI@Z PROC ; std::_Allocate<8,std::_Default_allocate_traits,0>, COMDAT

; 197  : __declspec(allocator) void* _Allocate(const size_t _Bytes) {

  00000	55		 push	 ebp
  00001	8b ec		 mov	 ebp, esp

; 198  :     // allocate _Bytes when !_HAS_ALIGNED_NEW || _Align <= __STDCPP_DEFAULT_NEW_ALIGNMENT__
; 199  : #if defined(_M_IX86) || defined(_M_X64)
; 200  :     if (_Bytes >= _Big_allocation_threshold) { // boost the alignment of big allocations to help autovectorization

  00003	8b 45 08	 mov	 eax, DWORD PTR __Bytes$[ebp]
  00006	3d 00 10 00 00	 cmp	 eax, 4096		; 00001000H
  0000b	72 09		 jb	 SHORT $LN2@Allocate

; 201  :         return _Allocate_manually_vector_aligned<_Traits>(_Bytes);

  0000d	89 45 08	 mov	 DWORD PTR __Bytes$[ebp], eax

; 210  : }

  00010	5d		 pop	 ebp

; 201  :         return _Allocate_manually_vector_aligned<_Traits>(_Bytes);

  00011	e9 00 00 00 00	 jmp	 ??$_Allocate_manually_vector_aligned@U_Default_allocate_traits@std@@@std@@YAPAXI@Z ; std::_Allocate_manually_vector_aligned<std::_Default_allocate_traits>
$LN2@Allocate:

; 202  :     }
; 203  : #endif // defined(_M_IX86) || defined(_M_X64)
; 204  : 
; 205  :     if (_Bytes != 0) {

  00016	85 c0		 test	 eax, eax
  00018	74 09		 je	 SHORT $LN3@Allocate

; 77   :         return ::operator new(_Bytes);

  0001a	89 45 08	 mov	 DWORD PTR __Bytes$[ebp], eax

; 210  : }

  0001d	5d		 pop	 ebp

; 77   :         return ::operator new(_Bytes);

  0001e	e9 00 00 00 00	 jmp	 ??2@YAPAXI@Z		; operator new
$LN3@Allocate:

; 206  :         return _Traits::_Allocate(_Bytes);
; 207  :     }
; 208  : 
; 209  :     return nullptr;

  00023	33 c0		 xor	 eax, eax

; 210  : }

  00025	5d		 pop	 ebp
  00026	c3		 ret	 0
??$_Allocate@$07U_Default_allocate_traits@std@@$0A@@std@@YAPAXI@Z ENDP ; std::_Allocate<8,std::_Default_allocate_traits,0>
_TEXT	ENDS
; Function compile flags: /Ogtp
; File C:\Program Files (x86)\Microsoft Visual Studio\2019\Community\VC\Tools\MSVC\14.27.29110\include\xmemory
;	COMDAT ??$_Construct_in_place@PADABQAD@std@@YAXAAPADABQAD@Z
_TEXT	SEGMENT
__Obj$ = 8						; size = 4
_<_Args_0>$ = 12					; size = 4
??$_Construct_in_place@PADABQAD@std@@YAXAAPADABQAD@Z PROC ; std::_Construct_in_place<char *,char * const &>, COMDAT

; 228  : void _Construct_in_place(_Ty& _Obj, _Types&&... _Args) noexcept(is_nothrow_constructible_v<_Ty, _Types...>) {

  00000	55		 push	 ebp
  00001	8b ec		 mov	 ebp, esp

; 229  :     ::new (const_cast<void*>(static_cast<const volatile void*>(_STD addressof(_Obj))))

  00003	8b 45 0c	 mov	 eax, DWORD PTR _<_Args_0>$[ebp]
  00006	8b 08		 mov	 ecx, DWORD PTR [eax]
  00008	8b 45 08	 mov	 eax, DWORD PTR __Obj$[ebp]
  0000b	89 08		 mov	 DWORD PTR [eax], ecx

; 230  :         _Ty(_STD forward<_Types>(_Args)...);
; 231  : }

  0000d	5d		 pop	 ebp
  0000e	c3		 ret	 0
??$_Construct_in_place@PADABQAD@std@@YAXAAPADABQAD@Z ENDP ; std::_Construct_in_place<char *,char * const &>
_TEXT	ENDS
; Function compile flags: /Ogtp
; File C:\Program Files (x86)\Microsoft Visual Studio\2019\Community\VC\Tools\MSVC\14.27.29110\include\xmemory
;	COMDAT ??$_Destroy_in_place@PAD@std@@YAXAAPAD@Z
_TEXT	SEGMENT
__Obj$ = 8						; size = 4
??$_Destroy_in_place@PAD@std@@YAXAAPAD@Z PROC		; std::_Destroy_in_place<char *>, COMDAT

; 268  :     _Obj.~_Ty();
; 269  : }

  00000	c2 00 00	 ret	 0
??$_Destroy_in_place@PAD@std@@YAXAAPAD@Z ENDP		; std::_Destroy_in_place<char *>
_TEXT	ENDS
; Function compile flags: /Ogtp
; File C:\DS Project\DS Files\Source\ClientSource\Client\EterBase\error.cpp
;	COMDAT ?SetEterExceptionHandler@@YAXXZ
_TEXT	SEGMENT
?SetEterExceptionHandler@@YAXXZ PROC			; SetEterExceptionHandler, COMDAT

; 72   : 	SetUnhandledExceptionFilter(EterExceptionFilter);

  00000	68 00 00 00 00	 push	 OFFSET ?EterExceptionFilter@@YGJPAU_EXCEPTION_POINTERS@@@Z ; EterExceptionFilter
  00005	ff 15 00 00 00
	00		 call	 DWORD PTR __imp__SetUnhandledExceptionFilter@4

; 73   : }

  0000b	c3		 ret	 0
?SetEterExceptionHandler@@YAXXZ ENDP			; SetEterExceptionHandler
_TEXT	ENDS
; Function compile flags: /Ogtp
; File C:\DS Project\DS Files\Source\ClientSource\Client\EterBase\error.cpp
;	COMDAT ?EterExceptionFilter@@YGJPAU_EXCEPTION_POINTERS@@@Z
_TEXT	SEGMENT
_pExceptionInfo$ = 8					; size = 4
?EterExceptionFilter@@YGJPAU_EXCEPTION_POINTERS@@@Z PROC ; EterExceptionFilter, COMDAT

; 61   : {

  00000	55		 push	 ebp
  00001	8b ec		 mov	 ebp, esp

; 62   : #ifdef ENABLE_CRASH_MINIDUMP
; 63   : 	make_minidump(pExceptionInfo);

  00003	ff 75 08	 push	 DWORD PTR _pExceptionInfo$[ebp]
  00006	e8 00 00 00 00	 call	 ?make_minidump@@YAXPAU_EXCEPTION_POINTERS@@@Z ; make_minidump
  0000b	83 c4 04	 add	 esp, 4

; 64   : #else
; 65   : 	// eterlog trash
; 66   : #endif
; 67   : 	return EXCEPTION_EXECUTE_HANDLER;

  0000e	b8 01 00 00 00	 mov	 eax, 1

; 68   : }

  00013	5d		 pop	 ebp
  00014	c2 04 00	 ret	 4
?EterExceptionFilter@@YGJPAU_EXCEPTION_POINTERS@@@Z ENDP ; EterExceptionFilter
_TEXT	ENDS
; Function compile flags: /Ogtp
; File C:\Program Files (x86)\Microsoft Visual Studio\2019\Community\VC\Tools\MSVC\14.27.29110\include\xstring
;	COMDAT ??$?HDU?$char_traits@D@std@@V?$allocator@D@1@@std@@YA?AV?$basic_string@DU?$char_traits@D@std@@V?$allocator@D@2@@0@$$QAV10@QBD@Z
_TEXT	SEGMENT
___$ReturnUdt$ = 8					; size = 4
__Left$ = 12						; size = 4
__Right$ = 16						; size = 4
??$?HDU?$char_traits@D@std@@V?$allocator@D@1@@std@@YA?AV?$basic_string@DU?$char_traits@D@std@@V?$allocator@D@2@@0@$$QAV10@QBD@Z PROC ; std::operator+<char,std::char_traits<char>,std::allocator<char> >, COMDAT

; 4457 :     basic_string<_Elem, _Traits, _Alloc>&& _Left, _In_z_ const _Elem* const _Right) {

  00000	55		 push	 ebp
  00001	8b ec		 mov	 ebp, esp

; 321  :         return _CSTD strlen(reinterpret_cast<const char*>(_First));

  00003	8b 55 10	 mov	 edx, DWORD PTR __Right$[ebp]
  00006	8b c2		 mov	 eax, edx

; 4457 :     basic_string<_Elem, _Traits, _Alloc>&& _Left, _In_z_ const _Elem* const _Right) {

  00008	56		 push	 esi

; 321  :         return _CSTD strlen(reinterpret_cast<const char*>(_First));

  00009	8d 70 01	 lea	 esi, DWORD PTR [eax+1]
  0000c	0f 1f 40 00	 npad	 4
$LL22@operator:
  00010	8a 08		 mov	 cl, BYTE PTR [eax]
  00012	40		 inc	 eax
  00013	84 c9		 test	 cl, cl
  00015	75 f9		 jne	 SHORT $LL22@operator

; 2880 :         return append(_Ptr, _Convert_size<size_type>(_Traits::length(_Ptr)));

  00017	8b 4d 0c	 mov	 ecx, DWORD PTR __Left$[ebp]

; 321  :         return _CSTD strlen(reinterpret_cast<const char*>(_First));

  0001a	2b c6		 sub	 eax, esi

; 2880 :         return append(_Ptr, _Convert_size<size_type>(_Traits::length(_Ptr)));

  0001c	50		 push	 eax
  0001d	52		 push	 edx
  0001e	e8 00 00 00 00	 call	 ?append@?$basic_string@DU?$char_traits@D@std@@V?$allocator@D@2@@std@@QAEAAV12@QBDI@Z ; std::basic_string<char,std::char_traits<char>,std::allocator<char> >::append

; 2124 :     _String_val() : _Bx(), _Mysize(0), _Myres(0) {}

  00023	8b 4d 08	 mov	 ecx, DWORD PTR ___$ReturnUdt$[ebp]

; 4458 :     return _STD move(_Left.append(_Right));

  00026	5e		 pop	 esi

; 2124 :     _String_val() : _Bx(), _Mysize(0), _Myres(0) {}

  00027	c7 41 10 00 00
	00 00		 mov	 DWORD PTR [ecx+16], 0
  0002e	c7 41 14 00 00
	00 00		 mov	 DWORD PTR [ecx+20], 0

; 2606 :         _CSTD memcpy(_My_data_mem, _Right_data_mem, _Memcpy_val_size);

  00035	0f 10 00	 movups	 xmm0, XMMWORD PTR [eax]
  00038	0f 11 01	 movups	 XMMWORD PTR [ecx], xmm0
  0003b	f3 0f 7e 40 10	 movq	 xmm0, QWORD PTR [eax+16]
  00040	66 0f d6 41 10	 movq	 QWORD PTR [ecx+16], xmm0

; 4293 :         _Mypair._Myval2._Mysize = 0;

  00045	c7 40 10 00 00
	00 00		 mov	 DWORD PTR [eax+16], 0

; 4294 :         _Mypair._Myval2._Myres  = _BUF_SIZE - 1;

  0004c	c7 40 14 0f 00
	00 00		 mov	 DWORD PTR [eax+20], 15	; 0000000fH

; 4295 :         // the _Traits::assign is last so the codegen doesn't think the char write can alias this
; 4296 :         _Traits::assign(_Mypair._Myval2._Bx._Buf[0], _Elem());

  00053	c6 00 00	 mov	 BYTE PTR [eax], 0

; 4458 :     return _STD move(_Left.append(_Right));

  00056	8b c1		 mov	 eax, ecx

; 4459 : }

  00058	5d		 pop	 ebp
  00059	c3		 ret	 0
??$?HDU?$char_traits@D@std@@V?$allocator@D@1@@std@@YA?AV?$basic_string@DU?$char_traits@D@std@@V?$allocator@D@2@@0@$$QAV10@QBD@Z ENDP ; std::operator+<char,std::char_traits<char>,std::allocator<char> >
_TEXT	ENDS
; Function compile flags: /Ogtp
; File C:\Program Files (x86)\Microsoft Visual Studio\2019\Community\VC\Tools\MSVC\14.27.29110\include\iomanip
; File C:\Program Files (x86)\Microsoft Visual Studio\2019\Community\VC\Tools\MSVC\14.27.29110\include\xiosbase
; File C:\Program Files (x86)\Microsoft Visual Studio\2019\Community\VC\Tools\MSVC\14.27.29110\include\xlocale
; File C:\Program Files (x86)\Microsoft Visual Studio\2019\Community\VC\Tools\MSVC\14.27.29110\include\iomanip
; File C:\Program Files (x86)\Microsoft Visual Studio\2019\Community\VC\Tools\MSVC\14.27.29110\include\xlocale
; File C:\Program Files (x86)\Microsoft Visual Studio\2019\Community\VC\Tools\MSVC\14.27.29110\include\iomanip
; File C:\Program Files (x86)\Microsoft Visual Studio\2019\Community\VC\Tools\MSVC\14.27.29110\include\iterator
; File C:\Program Files (x86)\Microsoft Visual Studio\2019\Community\VC\Tools\MSVC\14.27.29110\include\iomanip
; File C:\Program Files (x86)\Microsoft Visual Studio\2019\Community\VC\Tools\MSVC\14.27.29110\include\ios
; File C:\Program Files (x86)\Microsoft Visual Studio\2019\Community\VC\Tools\MSVC\14.27.29110\include\iomanip
; File C:\Program Files (x86)\Microsoft Visual Studio\2019\Community\VC\Tools\MSVC\14.27.29110\include\ios
; File C:\Program Files (x86)\Microsoft Visual Studio\2019\Community\VC\Tools\MSVC\14.27.29110\include\xiosbase
; File C:\Program Files (x86)\Microsoft Visual Studio\2019\Community\VC\Tools\MSVC\14.27.29110\include\ostream
; File C:\Program Files (x86)\Microsoft Visual Studio\2019\Community\VC\Tools\MSVC\14.27.29110\include\iomanip
; File C:\Program Files (x86)\Microsoft Visual Studio\2019\Community\VC\Tools\MSVC\14.27.29110\include\xiosbase
; File C:\Program Files (x86)\Microsoft Visual Studio\2019\Community\VC\Tools\MSVC\14.27.29110\include\iomanip
;	COMDAT ??$?6DU?$char_traits@D@std@@D@std@@YAAAV?$basic_ostream@DU?$char_traits@D@std@@@0@AAV10@ABU?$_Timeobj@DPBUtm@@@0@@Z
_TEXT	SEGMENT
$T2 = -56						; size = 20
$T3 = -36						; size = 8
$T4 = -36						; size = 8
$T5 = -36						; size = 8
$T6 = -36						; size = 8
__Ok$ = -28						; size = 8
__State$ = -20						; size = 4
__$EHRec$ = -16						; size = 16
__Ostr$ = 8						; size = 4
__Manip$ = 12						; size = 4
??$?6DU?$char_traits@D@std@@D@std@@YAAAV?$basic_ostream@DU?$char_traits@D@std@@@0@AAV10@ABU?$_Timeobj@DPBUtm@@@0@@Z PROC ; std::operator<<<char,std::char_traits<char>,char>, COMDAT

; 174  :     const _Timeobj<_Elem2, const tm*>& _Manip) { // put time information to output stream

  00000	55		 push	 ebp
  00001	8b ec		 mov	 ebp, esp
  00003	6a ff		 push	 -1
  00005	68 00 00 00 00	 push	 __ehhandler$??$?6DU?$char_traits@D@std@@D@std@@YAAAV?$basic_ostream@DU?$char_traits@D@std@@@0@AAV10@ABU?$_Timeobj@DPBUtm@@@0@@Z
  0000a	64 a1 00 00 00
	00		 mov	 eax, DWORD PTR fs:0
  00010	50		 push	 eax
  00011	83 ec 2c	 sub	 esp, 44			; 0000002cH
  00014	53		 push	 ebx
  00015	56		 push	 esi
  00016	57		 push	 edi
  00017	a1 00 00 00 00	 mov	 eax, DWORD PTR ___security_cookie
  0001c	33 c5		 xor	 eax, ebp
  0001e	50		 push	 eax
  0001f	8d 45 f4	 lea	 eax, DWORD PTR __$EHRec$[ebp+4]
  00022	64 a3 00 00 00
	00		 mov	 DWORD PTR fs:0, eax
  00028	89 65 f0	 mov	 DWORD PTR __$EHRec$[ebp], esp

; 175  :     using _Myos   = basic_ostream<_Elem, _Traits>;
; 176  :     using _Iter   = ostreambuf_iterator<_Elem, _Traits>;
; 177  :     using _Mytput = time_put<_Elem2, _Iter>;
; 178  : 
; 179  :     static_assert(is_same_v<_Elem, _Elem2>, "wrong character type for put_time");
; 180  : 
; 181  :     ios_base::iostate _State = ios_base::goodbit;
; 182  :     const typename _Myos::sentry _Ok(_Ostr);

  0002b	8b 75 08	 mov	 esi, DWORD PTR __Ostr$[ebp]
  0002e	8d 4d e4	 lea	 ecx, DWORD PTR __Ok$[ebp]
  00031	33 ff		 xor	 edi, edi
  00033	56		 push	 esi
  00034	89 7d ec	 mov	 DWORD PTR __State$[ebp], edi
  00037	e8 00 00 00 00	 call	 ??0sentry@?$basic_ostream@DU?$char_traits@D@std@@@std@@QAE@AAV12@@Z ; std::basic_ostream<char,std::char_traits<char> >::sentry::sentry

; 183  : 
; 184  :     if (_Ok) { // state okay, insert monetary amount

  0003c	80 7d e8 00	 cmp	 BYTE PTR __Ok$[ebp+4], 0
  00040	89 7d fc	 mov	 DWORD PTR __$EHRec$[ebp+12], edi
  00043	0f 84 a9 00 00
	00		 je	 $LN46@operator

; 185  :         const _Mytput& _Tput_fac = _STD use_facet<_Mytput>(_Ostr.getloc());

  00049	8b 06		 mov	 eax, DWORD PTR [esi]
  0004b	8b 40 04	 mov	 eax, DWORD PTR [eax+4]
; File C:\Program Files (x86)\Microsoft Visual Studio\2019\Community\VC\Tools\MSVC\14.27.29110\include\xiosbase

; 373  :         return *_Ploc;

  0004e	8b 44 30 30	 mov	 eax, DWORD PTR [eax+esi+48]
; File C:\Program Files (x86)\Microsoft Visual Studio\2019\Community\VC\Tools\MSVC\14.27.29110\include\xlocale

; 267  :     locale(const locale& _Right) noexcept : _Ptr(_Right._Ptr) {

  00052	8b 78 04	 mov	 edi, DWORD PTR [eax+4]

; 268  :         _Ptr->_Incref();

  00055	8b cf		 mov	 ecx, edi
  00057	89 7d e0	 mov	 DWORD PTR $T6[ebp+4], edi
  0005a	8b 07		 mov	 eax, DWORD PTR [edi]
  0005c	ff 50 04	 call	 DWORD PTR [eax+4]
; File C:\Program Files (x86)\Microsoft Visual Studio\2019\Community\VC\Tools\MSVC\14.27.29110\include\iomanip

; 185  :         const _Mytput& _Tput_fac = _STD use_facet<_Mytput>(_Ostr.getloc());

  0005f	8d 45 dc	 lea	 eax, DWORD PTR $T6[ebp]
  00062	c6 45 fc 01	 mov	 BYTE PTR __$EHRec$[ebp+12], 1
  00066	50		 push	 eax
  00067	e8 00 00 00 00	 call	 ??$use_facet@V?$time_put@DV?$ostreambuf_iterator@DU?$char_traits@D@std@@@std@@@std@@@std@@YAABV?$time_put@DV?$ostreambuf_iterator@DU?$char_traits@D@std@@@std@@@0@ABVlocale@0@@Z ; std::use_facet<std::time_put<char,std::ostreambuf_iterator<char,std::char_traits<char> > > >
  0006c	83 c4 04	 add	 esp, 4
  0006f	8b d8		 mov	 ebx, eax
  00071	85 ff		 test	 edi, edi
; File C:\Program Files (x86)\Microsoft Visual Studio\2019\Community\VC\Tools\MSVC\14.27.29110\include\xlocale

; 351  :         if (_Ptr) {

  00073	74 13		 je	 SHORT $LN19@operator

; 352  :             delete _Ptr->_Decref();

  00075	8b 07		 mov	 eax, DWORD PTR [edi]
  00077	8b cf		 mov	 ecx, edi
  00079	ff 50 08	 call	 DWORD PTR [eax+8]
  0007c	8b c8		 mov	 ecx, eax
  0007e	85 c9		 test	 ecx, ecx
  00080	74 06		 je	 SHORT $LN19@operator
  00082	8b 01		 mov	 eax, DWORD PTR [ecx]
  00084	6a 01		 push	 1
  00086	ff 10		 call	 DWORD PTR [eax]
$LN19@operator:
; File C:\Program Files (x86)\Microsoft Visual Studio\2019\Community\VC\Tools\MSVC\14.27.29110\include\iomanip

; 188  :                 .failed()) {

  00088	8b 06		 mov	 eax, DWORD PTR [esi]
  0008a	c6 45 fc 02	 mov	 BYTE PTR __$EHRec$[ebp+12], 2
  0008e	8b 48 04	 mov	 ecx, DWORD PTR [eax+4]
  00091	8b 45 0c	 mov	 eax, DWORD PTR __Manip$[ebp]
  00094	03 ce		 add	 ecx, esi
; File C:\Program Files (x86)\Microsoft Visual Studio\2019\Community\VC\Tools\MSVC\14.27.29110\include\iterator

; 483  :     ostreambuf_iterator(streambuf_type* _Sb) noexcept : _Failed(false), _Strbuf(_Sb) {}

  00096	c6 45 dc 00	 mov	 BYTE PTR $T5[ebp], 0
; File C:\Program Files (x86)\Microsoft Visual Studio\2019\Community\VC\Tools\MSVC\14.27.29110\include\iomanip

; 188  :                 .failed()) {

  0009a	ff 70 08	 push	 DWORD PTR [eax+8]
  0009d	ff 70 04	 push	 DWORD PTR [eax+4]
  000a0	ff 30		 push	 DWORD PTR [eax]
  000a2	0f b6 41 40	 movzx	 eax, BYTE PTR [ecx+64]
  000a6	50		 push	 eax
  000a7	51		 push	 ecx
  000a8	ff 71 38	 push	 DWORD PTR [ecx+56]
  000ab	8d 45 dc	 lea	 eax, DWORD PTR $T4[ebp]
  000ae	8b cb		 mov	 ecx, ebx
  000b0	ff 75 dc	 push	 DWORD PTR $T5[ebp]
  000b3	50		 push	 eax
  000b4	e8 00 00 00 00	 call	 ?put@?$time_put@DV?$ostreambuf_iterator@DU?$char_traits@D@std@@@std@@@std@@QBE?AV?$ostreambuf_iterator@DU?$char_traits@D@std@@@2@V32@AAVios_base@2@DPBUtm@@PBD3@Z ; std::time_put<char,std::ostreambuf_iterator<char,std::char_traits<char> > >::put

; 189  :             _State |= ios_base::badbit;

  000b9	33 c9		 xor	 ecx, ecx
  000bb	ba 04 00 00 00	 mov	 edx, 4
  000c0	8b fa		 mov	 edi, edx
  000c2	89 4d fc	 mov	 DWORD PTR __$EHRec$[ebp+12], ecx
  000c5	38 08		 cmp	 BYTE PTR [eax], cl
  000c7	0f 44 f9	 cmove	 edi, ecx
  000ca	eb 2b		 jmp	 SHORT $LN10@operator
__catch$??$?6DU?$char_traits@D@std@@D@std@@YAAAV?$basic_ostream@DU?$char_traits@D@std@@@0@AAV10@ABU?$_Timeobj@DPBUtm@@@0@@Z$0:

; 190  :         }
; 191  :         _CATCH_IO_(ios_base, _Ostr)

  000cc	8b 55 08	 mov	 edx, DWORD PTR __Ostr$[ebp]
  000cf	6a 01		 push	 1
  000d1	6a 04		 push	 4
  000d3	8b 02		 mov	 eax, DWORD PTR [edx]
  000d5	8b 48 04	 mov	 ecx, DWORD PTR [eax+4]
  000d8	03 ca		 add	 ecx, edx
  000da	e8 00 00 00 00	 call	 ?setstate@?$basic_ios@DU?$char_traits@D@std@@@std@@QAEXH_N@Z ; std::basic_ios<char,std::char_traits<char> >::setstate
  000df	b8 00 00 00 00	 mov	 eax, $LN11@operator
  000e4	c3		 ret	 0
$LN11@operator:

; 183  : 
; 184  :     if (_Ok) { // state okay, insert monetary amount

  000e5	8b 75 08	 mov	 esi, DWORD PTR __Ostr$[ebp]
  000e8	8b 7d ec	 mov	 edi, DWORD PTR __State$[ebp]
; File C:\Program Files (x86)\Microsoft Visual Studio\2019\Community\VC\Tools\MSVC\14.27.29110\include\ostream
  000eb	c7 45 fc 00 00
	00 00		 mov	 DWORD PTR __$EHRec$[ebp+12], 0
$LN46@operator:
; File C:\Program Files (x86)\Microsoft Visual Studio\2019\Community\VC\Tools\MSVC\14.27.29110\include\iomanip

; 194  :     _Ostr.setstate(_State);

  000f2	ba 04 00 00 00	 mov	 edx, 4
$LN10@operator:
  000f7	8b 06		 mov	 eax, DWORD PTR [esi]
  000f9	8b 48 04	 mov	 ecx, DWORD PTR [eax+4]
; File C:\Program Files (x86)\Microsoft Visual Studio\2019\Community\VC\Tools\MSVC\14.27.29110\include\ios

; 53   :         clear(rdstate() | _State, _Reraise);

  000fc	8b 44 31 0c	 mov	 eax, DWORD PTR [ecx+esi+12]
; File C:\Program Files (x86)\Microsoft Visual Studio\2019\Community\VC\Tools\MSVC\14.27.29110\include\iomanip

; 194  :     _Ostr.setstate(_State);

  00100	03 ce		 add	 ecx, esi
; File C:\Program Files (x86)\Microsoft Visual Studio\2019\Community\VC\Tools\MSVC\14.27.29110\include\ios

; 53   :         clear(rdstate() | _State, _Reraise);

  00102	0b c7		 or	 eax, edi

; 42   :         ios_base::clear(_State | (_Mystrbuf ? ios_base::_Iostate{} : ios_base::badbit), _Reraise);

  00104	33 ff		 xor	 edi, edi
  00106	39 79 38	 cmp	 DWORD PTR [ecx+56], edi
  00109	0f 45 d7	 cmovne	 edx, edi
; File C:\Program Files (x86)\Microsoft Visual Studio\2019\Community\VC\Tools\MSVC\14.27.29110\include\xiosbase

; 244  :         _State &= _Statmask;

  0010c	0b d0		 or	 edx, eax

; 245  :         _Mystate             = _State;
; 246  :         const auto _Filtered = _State & _Except;

  0010e	8b 41 10	 mov	 eax, DWORD PTR [ecx+16]
  00111	83 e2 17	 and	 edx, 23			; 00000017H
  00114	89 51 0c	 mov	 DWORD PTR [ecx+12], edx
  00117	23 c2		 and	 eax, edx

; 247  :         if (_Filtered) {

  00119	75 45		 jne	 SHORT $LN50@operator
; File C:\Program Files (x86)\Microsoft Visual Studio\2019\Community\VC\Tools\MSVC\14.27.29110\include\ostream

; 110  :         __CLR_OR_THIS_CALL ~sentry() noexcept {

  0011b	c7 45 fc 04 00
	00 00		 mov	 DWORD PTR __$EHRec$[ebp+12], 4

; 111  : #if !_HAS_EXCEPTIONS
; 112  :             const bool _Zero_uncaught_exceptions = true;
; 113  : #elif _HAS_DEPRECATED_UNCAUGHT_EXCEPTION
; 114  :             const bool _Zero_uncaught_exceptions = !_STD uncaught_exception(); // TRANSITION, ArchivedOS-12000909

  00122	e8 00 00 00 00	 call	 ?uncaught_exception@std@@YA_NXZ ; std::uncaught_exception

; 115  : #else // ^^^ _HAS_DEPRECATED_UNCAUGHT_EXCEPTION / !_HAS_DEPRECATED_UNCAUGHT_EXCEPTION vvv
; 116  :             const bool _Zero_uncaught_exceptions = _STD uncaught_exceptions() == 0;
; 117  : #endif // !_HAS_DEPRECATED_UNCAUGHT_EXCEPTION
; 118  : 
; 119  :             if (_Zero_uncaught_exceptions) {

  00127	84 c0		 test	 al, al
  00129	75 08		 jne	 SHORT $LN39@operator

; 120  :                 this->_Myostr._Osfx();

  0012b	8b 4d e4	 mov	 ecx, DWORD PTR __Ok$[ebp]
  0012e	e8 00 00 00 00	 call	 ?_Osfx@?$basic_ostream@DU?$char_traits@D@std@@@std@@QAEXXZ ; std::basic_ostream<char,std::char_traits<char> >::_Osfx
$LN39@operator:

; 79   :             const auto _Rdbuf = _Myostr.rdbuf();

  00133	8b 4d e4	 mov	 ecx, DWORD PTR __Ok$[ebp]
  00136	c6 45 fc 05	 mov	 BYTE PTR __$EHRec$[ebp+12], 5
  0013a	8b 01		 mov	 eax, DWORD PTR [ecx]
  0013c	8b 40 04	 mov	 eax, DWORD PTR [eax+4]
  0013f	8b 4c 08 38	 mov	 ecx, DWORD PTR [eax+ecx+56]

; 80   :             if (_Rdbuf) {

  00143	85 c9		 test	 ecx, ecx
  00145	74 05		 je	 SHORT $LN43@operator

; 81   :                 _Rdbuf->_Unlock();

  00147	8b 11		 mov	 edx, DWORD PTR [ecx]
  00149	ff 52 08	 call	 DWORD PTR [edx+8]
$LN43@operator:
; File C:\Program Files (x86)\Microsoft Visual Studio\2019\Community\VC\Tools\MSVC\14.27.29110\include\iomanip

; 195  :     return _Ostr;

  0014c	8b c6		 mov	 eax, esi

; 196  : }

  0014e	8b 4d f4	 mov	 ecx, DWORD PTR __$EHRec$[ebp+4]
  00151	64 89 0d 00 00
	00 00		 mov	 DWORD PTR fs:0, ecx
  00158	59		 pop	 ecx
  00159	5f		 pop	 edi
  0015a	5e		 pop	 esi
  0015b	5b		 pop	 ebx
  0015c	8b e5		 mov	 esp, ebp
  0015e	5d		 pop	 ebp
  0015f	c3		 ret	 0
$LN50@operator:
; File C:\Program Files (x86)\Microsoft Visual Studio\2019\Community\VC\Tools\MSVC\14.27.29110\include\xiosbase

; 253  :             if (_Filtered & ios_base::badbit) {

  00160	a8 04		 test	 al, 4
  00162	74 07		 je	 SHORT $LN30@operator

; 254  :                 _Msg = "ios_base::badbit set";

  00164	be 00 00 00 00	 mov	 esi, OFFSET ??_C@_0BF@PHHKMMFD@ios_base?3?3badbit?5set@
  00169	eb 0f		 jmp	 SHORT $LN32@operator
$LN30@operator:

; 255  :             } else if (_Filtered & ios_base::failbit) {

  0016b	a8 02		 test	 al, 2
  0016d	be 00 00 00 00	 mov	 esi, OFFSET ??_C@_0BG@FMKFHCIL@ios_base?3?3failbit?5set@
  00172	b8 00 00 00 00	 mov	 eax, OFFSET ??_C@_0BF@OOHOMBOF@ios_base?3?3eofbit?5set@
  00177	0f 44 f0	 cmove	 esi, eax
$LN32@operator:

; 256  :                 _Msg = "ios_base::failbit set";
; 257  :             } else {
; 258  :                 _Msg = "ios_base::eofbit set";
; 259  :             }
; 260  : 
; 261  :             _THROW(failure(_Msg));

  0017a	8d 45 dc	 lea	 eax, DWORD PTR $T3[ebp]
  0017d	6a 01		 push	 1
  0017f	50		 push	 eax
  00180	e8 00 00 00 00	 call	 ?make_error_code@std@@YA?AVerror_code@1@W4io_errc@1@@Z ; std::make_error_code
  00185	83 c4 08	 add	 esp, 8
  00188	8d 4d c8	 lea	 ecx, DWORD PTR $T2[ebp]
  0018b	50		 push	 eax
  0018c	56		 push	 esi
  0018d	e8 00 00 00 00	 call	 ??0failure@ios_base@std@@QAE@PBDABVerror_code@2@@Z ; std::ios_base::failure::failure
  00192	68 00 00 00 00	 push	 OFFSET __TI5?AVfailure@ios_base@std@@
  00197	8d 45 c8	 lea	 eax, DWORD PTR $T2[ebp]
  0019a	50		 push	 eax
  0019b	e8 00 00 00 00	 call	 __CxxThrowException@8
$LN48@operator:
  001a0	cc		 int	 3
_TEXT	ENDS
;	COMDAT text$x
text$x	SEGMENT
__unwindfunclet$??$?6DU?$char_traits@D@std@@D@std@@YAAAV?$basic_ostream@DU?$char_traits@D@std@@@0@AAV10@ABU?$_Timeobj@DPBUtm@@@0@@Z$2:
  00000	8d 4d e4	 lea	 ecx, DWORD PTR __Ok$[ebp]
  00003	e9 00 00 00 00	 jmp	 ??1sentry@?$basic_ostream@DU?$char_traits@D@std@@@std@@QAE@XZ ; std::basic_ostream<char,std::char_traits<char> >::sentry::~sentry
__unwindfunclet$??$?6DU?$char_traits@D@std@@D@std@@YAAAV?$basic_ostream@DU?$char_traits@D@std@@@0@AAV10@ABU?$_Timeobj@DPBUtm@@@0@@Z$3:
  00008	8d 4d dc	 lea	 ecx, DWORD PTR $T6[ebp]
  0000b	e9 00 00 00 00	 jmp	 ??1locale@std@@QAE@XZ	; std::locale::~locale
  00010	cc		 int	 3
  00011	cc		 int	 3
  00012	cc		 int	 3
  00013	cc		 int	 3
  00014	cc		 int	 3
__ehhandler$??$?6DU?$char_traits@D@std@@D@std@@YAAAV?$basic_ostream@DU?$char_traits@D@std@@@0@AAV10@ABU?$_Timeobj@DPBUtm@@@0@@Z:
  00015	90		 npad	 1
  00016	90		 npad	 1
  00017	8b 54 24 08	 mov	 edx, DWORD PTR [esp+8]
  0001b	8d 42 0c	 lea	 eax, DWORD PTR [edx+12]
  0001e	8b 4a c4	 mov	 ecx, DWORD PTR [edx-60]
  00021	33 c8		 xor	 ecx, eax
  00023	e8 00 00 00 00	 call	 @__security_check_cookie@4
  00028	b8 00 00 00 00	 mov	 eax, OFFSET __ehfuncinfo$??$?6DU?$char_traits@D@std@@D@std@@YAAAV?$basic_ostream@DU?$char_traits@D@std@@@0@AAV10@ABU?$_Timeobj@DPBUtm@@@0@@Z
  0002d	e9 00 00 00 00	 jmp	 ___CxxFrameHandler3
text$x	ENDS
??$?6DU?$char_traits@D@std@@D@std@@YAAAV?$basic_ostream@DU?$char_traits@D@std@@@0@AAV10@ABU?$_Timeobj@DPBUtm@@@0@@Z ENDP ; std::operator<<<char,std::char_traits<char>,char>
; Function compile flags: /Ogtp
; File C:\Program Files (x86)\Microsoft Visual Studio\2019\Community\VC\Tools\MSVC\14.27.29110\include\iomanip
;	COMDAT ??$put_time@D@std@@YA?AU?$_Timeobj@DPBUtm@@@0@PBUtm@@PBD@Z
_TEXT	SEGMENT
___$ReturnUdt$ = 8					; size = 4
__Tptr_arg$ = 12					; size = 4
__Fmt_arg$ = 16						; size = 4
??$put_time@D@std@@YA?AU?$_Timeobj@DPBUtm@@@0@PBUtm@@PBD@Z PROC ; std::put_time<char>, COMDAT

; 168  : _NODISCARD _Timeobj<_Elem, const tm*> put_time(const tm* _Tptr_arg, const _Elem* _Fmt_arg) {

  00000	55		 push	 ebp
  00001	8b ec		 mov	 ebp, esp

; 126  :     _Timeobj(_Ptr _Tptr_arg, const _Elem* _Fmt_arg) : _Tptr(_Tptr_arg), _Fmtfirst(_Fmt_arg) {

  00003	8b 4d 10	 mov	 ecx, DWORD PTR __Fmt_arg$[ebp]
  00006	8b 55 08	 mov	 edx, DWORD PTR ___$ReturnUdt$[ebp]
  00009	8b 45 0c	 mov	 eax, DWORD PTR __Tptr_arg$[ebp]

; 127  :         for (_Fmtlast = _Fmtfirst; *_Fmtlast != 0; ++_Fmtlast) { // find end of format string

  0000c	80 39 00	 cmp	 BYTE PTR [ecx], 0
  0000f	89 02		 mov	 DWORD PTR [edx], eax
  00011	89 4a 04	 mov	 DWORD PTR [edx+4], ecx
  00014	89 4a 08	 mov	 DWORD PTR [edx+8], ecx
  00017	74 10		 je	 SHORT $LN12@put_time
  00019	0f 1f 80 00 00
	00 00		 npad	 7
$LL6@put_time:
  00020	41		 inc	 ecx
  00021	80 39 00	 cmp	 BYTE PTR [ecx], 0
  00024	75 fa		 jne	 SHORT $LL6@put_time
  00026	89 4a 08	 mov	 DWORD PTR [edx+8], ecx
$LN12@put_time:

; 169  :     return _Timeobj<_Elem, const tm*>(_Tptr_arg, _Fmt_arg);
; 170  : }

  00029	8b c2		 mov	 eax, edx
  0002b	5d		 pop	 ebp
  0002c	c3		 ret	 0
??$put_time@D@std@@YA?AU?$_Timeobj@DPBUtm@@@0@PBUtm@@PBD@Z ENDP ; std::put_time<char>
_TEXT	ENDS
; Function compile flags: /Ogtp
; File C:\Program Files (x86)\Microsoft Visual Studio\2019\Community\VC\Tools\MSVC\14.27.29110\include\sstream
; File C:\Program Files (x86)\Microsoft Visual Studio\2019\Community\VC\Tools\MSVC\14.27.29110\include\ostream
; File C:\Program Files (x86)\Microsoft Visual Studio\2019\Community\VC\Tools\MSVC\14.27.29110\include\xiosbase
;	COMDAT ??_D?$basic_ostringstream@DU?$char_traits@D@std@@V?$allocator@D@2@@std@@QAEXXZ
_TEXT	SEGMENT
__$EHRec$ = -12						; size = 12
??_D?$basic_ostringstream@DU?$char_traits@D@std@@V?$allocator@D@2@@std@@QAEXXZ PROC ; std::basic_ostringstream<char,std::char_traits<char>,std::allocator<char> >::`vbase destructor', COMDAT
; _this$ = ecx
  00000	55		 push	 ebp
  00001	8b ec		 mov	 ebp, esp
  00003	6a ff		 push	 -1
  00005	68 00 00 00 00	 push	 __ehhandler$??_D?$basic_ostringstream@DU?$char_traits@D@std@@V?$allocator@D@2@@std@@QAEXXZ
  0000a	64 a1 00 00 00
	00		 mov	 eax, DWORD PTR fs:0
  00010	50		 push	 eax
  00011	56		 push	 esi
  00012	a1 00 00 00 00	 mov	 eax, DWORD PTR ___security_cookie
  00017	33 c5		 xor	 eax, ebp
  00019	50		 push	 eax
  0001a	8d 45 f4	 lea	 eax, DWORD PTR __$EHRec$[ebp]
  0001d	64 a3 00 00 00
	00		 mov	 DWORD PTR fs:0, eax
; File C:\Program Files (x86)\Microsoft Visual Studio\2019\Community\VC\Tools\MSVC\14.27.29110\include\sstream

; 489  :     virtual ~basic_ostringstream() noexcept {}

  00023	8b 01		 mov	 eax, DWORD PTR [ecx]
  00025	8d 71 50	 lea	 esi, DWORD PTR [ecx+80]
  00028	8b 40 04	 mov	 eax, DWORD PTR [eax+4]
  0002b	c7 44 30 b0 00
	00 00 00	 mov	 DWORD PTR [eax+esi-80], OFFSET ??_7?$basic_ostringstream@DU?$char_traits@D@std@@V?$allocator@D@2@@std@@6B@
  00033	8b 46 b0	 mov	 eax, DWORD PTR [esi-80]
  00036	8b 48 04	 mov	 ecx, DWORD PTR [eax+4]
  00039	8d 41 b0	 lea	 eax, DWORD PTR [ecx-80]
  0003c	89 44 31 ac	 mov	 DWORD PTR [ecx+esi-84], eax
  00040	8d 4e b4	 lea	 ecx, DWORD PTR [esi-76]
  00043	e8 00 00 00 00	 call	 ??1?$basic_stringbuf@DU?$char_traits@D@std@@V?$allocator@D@2@@std@@UAE@XZ ; std::basic_stringbuf<char,std::char_traits<char>,std::allocator<char> >::~basic_stringbuf<char,std::char_traits<char>,std::allocator<char> >
; File C:\Program Files (x86)\Microsoft Visual Studio\2019\Community\VC\Tools\MSVC\14.27.29110\include\ostream

; 63   :     virtual __CLR_OR_THIS_CALL ~basic_ostream() noexcept {}

  00048	8b 46 b0	 mov	 eax, DWORD PTR [esi-80]
  0004b	8b 40 04	 mov	 eax, DWORD PTR [eax+4]
  0004e	c7 44 30 b0 00
	00 00 00	 mov	 DWORD PTR [eax+esi-80], OFFSET ??_7?$basic_ostream@DU?$char_traits@D@std@@@std@@6B@
  00056	8b 46 b0	 mov	 eax, DWORD PTR [esi-80]
  00059	8b 48 04	 mov	 ecx, DWORD PTR [eax+4]
  0005c	8d 41 f8	 lea	 eax, DWORD PTR [ecx-8]
  0005f	89 44 31 ac	 mov	 DWORD PTR [ecx+esi-84], eax
; File C:\Program Files (x86)\Microsoft Visual Studio\2019\Community\VC\Tools\MSVC\14.27.29110\include\xiosbase

; 452  :         _Ios_base_dtor(this);

  00063	56		 push	 esi
  00064	c7 45 fc 00 00
	00 00		 mov	 DWORD PTR __$EHRec$[ebp+8], 0
  0006b	c7 06 00 00 00
	00		 mov	 DWORD PTR [esi], OFFSET ??_7ios_base@std@@6B@
  00071	e8 00 00 00 00	 call	 ?_Ios_base_dtor@ios_base@std@@CAXPAV12@@Z ; std::ios_base::_Ios_base_dtor
  00076	83 c4 04	 add	 esp, 4
  00079	8b 4d f4	 mov	 ecx, DWORD PTR __$EHRec$[ebp]
  0007c	64 89 0d 00 00
	00 00		 mov	 DWORD PTR fs:0, ecx
  00083	59		 pop	 ecx
  00084	5e		 pop	 esi
  00085	8b e5		 mov	 esp, ebp
  00087	5d		 pop	 ebp
  00088	c3		 ret	 0
  00089	cc		 int	 3
  0008a	cc		 int	 3
  0008b	cc		 int	 3
  0008c	cc		 int	 3
  0008d	cc		 int	 3
_TEXT	ENDS
;	COMDAT text$x
text$x	SEGMENT
__ehhandler$??_D?$basic_ostringstream@DU?$char_traits@D@std@@V?$allocator@D@2@@std@@QAEXXZ:
  00000	90		 npad	 1
  00001	90		 npad	 1
  00002	8b 54 24 08	 mov	 edx, DWORD PTR [esp+8]
  00006	8d 42 0c	 lea	 eax, DWORD PTR [edx+12]
  00009	8b 4a f8	 mov	 ecx, DWORD PTR [edx-8]
  0000c	33 c8		 xor	 ecx, eax
  0000e	e8 00 00 00 00	 call	 @__security_check_cookie@4
  00013	b8 00 00 00 00	 mov	 eax, OFFSET __ehfuncinfo$??_D?$basic_ostringstream@DU?$char_traits@D@std@@V?$allocator@D@2@@std@@QAEXXZ
  00018	e9 00 00 00 00	 jmp	 ___CxxFrameHandler3
text$x	ENDS
??_D?$basic_ostringstream@DU?$char_traits@D@std@@V?$allocator@D@2@@std@@QAEXXZ ENDP ; std::basic_ostringstream<char,std::char_traits<char>,std::allocator<char> >::`vbase destructor'
; Function compile flags: /Ogtp
;	COMDAT ??_G?$basic_ostringstream@DU?$char_traits@D@std@@V?$allocator@D@2@@std@@UAEPAXI@Z
_TEXT	SEGMENT
___flags$ = 8						; size = 4
??_G?$basic_ostringstream@DU?$char_traits@D@std@@V?$allocator@D@2@@std@@UAEPAXI@Z PROC ; std::basic_ostringstream<char,std::char_traits<char>,std::allocator<char> >::`scalar deleting destructor', COMDAT
; _this$ = ecx
  00000	55		 push	 ebp
  00001	8b ec		 mov	 ebp, esp
  00003	56		 push	 esi
  00004	8d 71 b0	 lea	 esi, DWORD PTR [ecx-80]
  00007	8b ce		 mov	 ecx, esi
  00009	e8 00 00 00 00	 call	 ??_D?$basic_ostringstream@DU?$char_traits@D@std@@V?$allocator@D@2@@std@@QAEXXZ
  0000e	f6 45 08 01	 test	 BYTE PTR ___flags$[ebp], 1
  00012	74 0e		 je	 SHORT $LN4@scalar
  00014	68 98 00 00 00	 push	 152			; 00000098H
  00019	56		 push	 esi
  0001a	e8 00 00 00 00	 call	 ??3@YAXPAXI@Z		; operator delete
  0001f	83 c4 08	 add	 esp, 8
$LN4@scalar:
  00022	8b c6		 mov	 eax, esi
  00024	5e		 pop	 esi
  00025	5d		 pop	 ebp
  00026	c2 04 00	 ret	 4
??_G?$basic_ostringstream@DU?$char_traits@D@std@@V?$allocator@D@2@@std@@UAEPAXI@Z ENDP ; std::basic_ostringstream<char,std::char_traits<char>,std::allocator<char> >::`scalar deleting destructor'
_TEXT	ENDS
; Function compile flags: /Ogtp
;	COMDAT ??_G?$basic_stringbuf@DU?$char_traits@D@std@@V?$allocator@D@2@@std@@UAEPAXI@Z
_TEXT	SEGMENT
___flags$ = 8						; size = 4
??_G?$basic_stringbuf@DU?$char_traits@D@std@@V?$allocator@D@2@@std@@UAEPAXI@Z PROC ; std::basic_stringbuf<char,std::char_traits<char>,std::allocator<char> >::`scalar deleting destructor', COMDAT
; _this$ = ecx
  00000	55		 push	 ebp
  00001	8b ec		 mov	 ebp, esp
  00003	56		 push	 esi
  00004	8b f1		 mov	 esi, ecx
  00006	e8 00 00 00 00	 call	 ??1?$basic_stringbuf@DU?$char_traits@D@std@@V?$allocator@D@2@@std@@UAE@XZ ; std::basic_stringbuf<char,std::char_traits<char>,std::allocator<char> >::~basic_stringbuf<char,std::char_traits<char>,std::allocator<char> >
  0000b	f6 45 08 01	 test	 BYTE PTR ___flags$[ebp], 1
  0000f	74 0b		 je	 SHORT $LN4@scalar
  00011	6a 44		 push	 68			; 00000044H
  00013	56		 push	 esi
  00014	e8 00 00 00 00	 call	 ??3@YAXPAXI@Z		; operator delete
  00019	83 c4 08	 add	 esp, 8
$LN4@scalar:
  0001c	8b c6		 mov	 eax, esi
  0001e	5e		 pop	 esi
  0001f	5d		 pop	 ebp
  00020	c2 04 00	 ret	 4
??_G?$basic_stringbuf@DU?$char_traits@D@std@@V?$allocator@D@2@@std@@UAEPAXI@Z ENDP ; std::basic_stringbuf<char,std::char_traits<char>,std::allocator<char> >::`scalar deleting destructor'
_TEXT	ENDS
; Function compile flags: /Ogtp
; File C:\Program Files (x86)\Microsoft Visual Studio\2019\Community\VC\Tools\MSVC\14.27.29110\include\sstream
; File C:\Program Files (x86)\Microsoft Visual Studio\2019\Community\VC\Tools\MSVC\14.27.29110\include\iosfwd
; File C:\Program Files (x86)\Microsoft Visual Studio\2019\Community\VC\Tools\MSVC\14.27.29110\include\sstream
; File C:\Program Files (x86)\Microsoft Visual Studio\2019\Community\VC\Tools\MSVC\14.27.29110\include\iosfwd
; File C:\Program Files (x86)\Microsoft Visual Studio\2019\Community\VC\Tools\MSVC\14.27.29110\include\streambuf
; File C:\Program Files (x86)\Microsoft Visual Studio\2019\Community\VC\Tools\MSVC\14.27.29110\include\iosfwd
; File C:\Program Files (x86)\Microsoft Visual Studio\2019\Community\VC\Tools\MSVC\14.27.29110\include\streambuf
; File C:\Program Files (x86)\Microsoft Visual Studio\2019\Community\VC\Tools\MSVC\14.27.29110\include\sstream
; File C:\Program Files (x86)\Microsoft Visual Studio\2019\Community\VC\Tools\MSVC\14.27.29110\include\streambuf
; File C:\Program Files (x86)\Microsoft Visual Studio\2019\Community\VC\Tools\MSVC\14.27.29110\include\sstream
; File C:\Program Files (x86)\Microsoft Visual Studio\2019\Community\VC\Tools\MSVC\14.27.29110\include\streambuf
; File C:\Program Files (x86)\Microsoft Visual Studio\2019\Community\VC\Tools\MSVC\14.27.29110\include\sstream
; File C:\Program Files (x86)\Microsoft Visual Studio\2019\Community\VC\Tools\MSVC\14.27.29110\include\streambuf
; File C:\Program Files (x86)\Microsoft Visual Studio\2019\Community\VC\Tools\MSVC\14.27.29110\include\sstream
; File C:\Program Files (x86)\Microsoft Visual Studio\2019\Community\VC\Tools\MSVC\14.27.29110\include\streambuf
; File C:\Program Files (x86)\Microsoft Visual Studio\2019\Community\VC\Tools\MSVC\14.27.29110\include\iosfwd
; File C:\Program Files (x86)\Microsoft Visual Studio\2019\Community\VC\Tools\MSVC\14.27.29110\include\sstream
; File C:\Program Files (x86)\Microsoft Visual Studio\2019\Community\VC\Tools\MSVC\14.27.29110\include\iosfwd
; File C:\Program Files (x86)\Microsoft Visual Studio\2019\Community\VC\Tools\MSVC\14.27.29110\include\sstream
;	COMDAT ?seekpos@?$basic_stringbuf@DU?$char_traits@D@std@@V?$allocator@D@2@@std@@MAE?AV?$fpos@U_Mbstatet@@@2@V32@H@Z
_TEXT	SEGMENT
tv228 = -16						; size = 4
tv255 = -12						; size = 4
__Gptr_old$1$ = -8					; size = 4
__Seeklow$1$ = -4					; size = 4
___$ReturnUdt$ = 8					; size = 4
__Pos$ = 12						; size = 24
__Mode$ = 36						; size = 4
?seekpos@?$basic_stringbuf@DU?$char_traits@D@std@@V?$allocator@D@2@@std@@MAE?AV?$fpos@U_Mbstatet@@@2@V32@H@Z PROC ; std::basic_stringbuf<char,std::char_traits<char>,std::allocator<char> >::seekpos, COMDAT
; _this$ = ecx

; 264  :     virtual pos_type seekpos(pos_type _Pos, ios_base::openmode _Mode = ios_base::in | ios_base::out) {

  00000	55		 push	 ebp
  00001	8b ec		 mov	 ebp, esp
  00003	83 ec 14	 sub	 esp, 20			; 00000014H
  00006	53		 push	 ebx
; File C:\Program Files (x86)\Microsoft Visual Studio\2019\Community\VC\Tools\MSVC\14.27.29110\include\iosfwd

; 70   :         return _Myoff + _Fpos;

  00007	8b 5d 18	 mov	 ebx, DWORD PTR __Pos$[ebp+12]
; File C:\Program Files (x86)\Microsoft Visual Studio\2019\Community\VC\Tools\MSVC\14.27.29110\include\sstream

; 264  :     virtual pos_type seekpos(pos_type _Pos, ios_base::openmode _Mode = ios_base::in | ios_base::out) {

  0000a	56		 push	 esi
  0000b	8b f1		 mov	 esi, ecx
  0000d	57		 push	 edi
; File C:\Program Files (x86)\Microsoft Visual Studio\2019\Community\VC\Tools\MSVC\14.27.29110\include\iosfwd

; 70   :         return _Myoff + _Fpos;

  0000e	8b 7d 14	 mov	 edi, DWORD PTR __Pos$[ebp+8]
  00011	03 7d 0c	 add	 edi, DWORD PTR __Pos$[ebp]
; File C:\Program Files (x86)\Microsoft Visual Studio\2019\Community\VC\Tools\MSVC\14.27.29110\include\streambuf

; 185  :         return *_IGnext;

  00014	8b 46 1c	 mov	 eax, DWORD PTR [esi+28]
; File C:\Program Files (x86)\Microsoft Visual Studio\2019\Community\VC\Tools\MSVC\14.27.29110\include\iosfwd

; 70   :         return _Myoff + _Fpos;

  00017	13 5d 10	 adc	 ebx, DWORD PTR __Pos$[ebp+4]
; File C:\Program Files (x86)\Microsoft Visual Studio\2019\Community\VC\Tools\MSVC\14.27.29110\include\streambuf

; 185  :         return *_IGnext;

  0001a	8b 00		 mov	 eax, DWORD PTR [eax]
  0001c	89 45 f8	 mov	 DWORD PTR __Gptr_old$1$[ebp], eax

; 193  :         return *_IPnext;

  0001f	8b 46 20	 mov	 eax, DWORD PTR [esi+32]
  00022	8b 08		 mov	 ecx, DWORD PTR [eax]
; File C:\Program Files (x86)\Microsoft Visual Studio\2019\Community\VC\Tools\MSVC\14.27.29110\include\sstream

; 269  :         if (_Pptr_old && _Seekhigh < _Pptr_old) { // update high-water pointer

  00024	85 c9		 test	 ecx, ecx
  00026	74 08		 je	 SHORT $LN2@seekpos
  00028	39 4e 38	 cmp	 DWORD PTR [esi+56], ecx
  0002b	73 03		 jae	 SHORT $LN2@seekpos

; 270  :             _Seekhigh = _Pptr_old;

  0002d	89 4e 38	 mov	 DWORD PTR [esi+56], ecx
$LN2@seekpos:
; File C:\Program Files (x86)\Microsoft Visual Studio\2019\Community\VC\Tools\MSVC\14.27.29110\include\streambuf

; 181  :         return *_IGfirst;

  00030	8b 46 0c	 mov	 eax, DWORD PTR [esi+12]
  00033	8b 10		 mov	 edx, DWORD PTR [eax]
; File C:\Program Files (x86)\Microsoft Visual Studio\2019\Community\VC\Tools\MSVC\14.27.29110\include\sstream

; 274  :         const auto _Seekdist = _Seekhigh - _Seeklow;

  00035	8b 46 38	 mov	 eax, DWORD PTR [esi+56]
  00038	89 45 f0	 mov	 DWORD PTR tv228[ebp], eax
  0003b	2b c2		 sub	 eax, edx
; File C:\Program Files (x86)\Microsoft Visual Studio\2019\Community\VC\Tools\MSVC\14.27.29110\include\streambuf

; 181  :         return *_IGfirst;

  0003d	89 55 fc	 mov	 DWORD PTR __Seeklow$1$[ebp], edx
; File C:\Program Files (x86)\Microsoft Visual Studio\2019\Community\VC\Tools\MSVC\14.27.29110\include\sstream

; 275  :         if (static_cast<unsigned long long>(_Off) > static_cast<unsigned long long>(_Seekdist)) {

  00040	99		 cdq
  00041	3b da		 cmp	 ebx, edx
  00043	77 78		 ja	 SHORT $LN5@seekpos
  00045	72 04		 jb	 SHORT $LN30@seekpos
  00047	3b f8		 cmp	 edi, eax
  00049	77 72		 ja	 SHORT $LN5@seekpos
$LN30@seekpos:

; 276  :             return pos_type(off_type(-1));
; 277  :         }
; 278  : 
; 279  :         if (_Off != 0 && (((_Mode & ios_base::in) && !_Gptr_old) || ((_Mode & ios_base::out) && !_Pptr_old))) {

  0004b	8b 55 24	 mov	 edx, DWORD PTR __Mode$[ebp]
  0004e	8b c7		 mov	 eax, edi
  00050	0b c3		 or	 eax, ebx
  00052	74 14		 je	 SHORT $LN4@seekpos
  00054	f6 c2 01	 test	 dl, 1
  00057	74 06		 je	 SHORT $LN6@seekpos
  00059	83 7d f8 00	 cmp	 DWORD PTR __Gptr_old$1$[ebp], 0
  0005d	74 5e		 je	 SHORT $LN5@seekpos
$LN6@seekpos:
  0005f	f6 c2 02	 test	 dl, 2
  00062	74 04		 je	 SHORT $LN4@seekpos
  00064	85 c9		 test	 ecx, ecx
  00066	74 55		 je	 SHORT $LN5@seekpos
$LN4@seekpos:

; 280  :             return pos_type(off_type(-1));
; 281  :         }
; 282  : 
; 283  :         const auto _Newptr = _Seeklow + _Off; // may perform nullptr + 0

  00068	8b 45 fc	 mov	 eax, DWORD PTR __Seeklow$1$[ebp]
  0006b	03 c7		 add	 eax, edi

; 284  :         if ((_Mode & ios_base::in) && _Gptr_old) {

  0006d	f6 c2 01	 test	 dl, 1
  00070	74 18		 je	 SHORT $LN7@seekpos
  00072	83 7d f8 00	 cmp	 DWORD PTR __Gptr_old$1$[ebp], 0
  00076	74 12		 je	 SHORT $LN7@seekpos
; File C:\Program Files (x86)\Microsoft Visual Studio\2019\Community\VC\Tools\MSVC\14.27.29110\include\streambuf

; 207  :         *_IGnext  = _Next;

  00078	8b 56 1c	 mov	 edx, DWORD PTR [esi+28]
  0007b	89 02		 mov	 DWORD PTR [edx], eax

; 208  :         *_IGcount = static_cast<int>(_Last - _Next);

  0007d	8b 55 f0	 mov	 edx, DWORD PTR tv228[ebp]
  00080	2b d0		 sub	 edx, eax
  00082	8b 46 2c	 mov	 eax, DWORD PTR [esi+44]
  00085	89 10		 mov	 DWORD PTR [eax], edx
  00087	8b 55 24	 mov	 edx, DWORD PTR __Mode$[ebp]
$LN7@seekpos:
; File C:\Program Files (x86)\Microsoft Visual Studio\2019\Community\VC\Tools\MSVC\14.27.29110\include\sstream

; 288  :         if ((_Mode & ios_base::out) && _Pptr_old) {

  0008a	f6 c2 02	 test	 dl, 2
  0008d	74 24		 je	 SHORT $LN8@seekpos
  0008f	85 c9		 test	 ecx, ecx
  00091	74 20		 je	 SHORT $LN8@seekpos
; File C:\Program Files (x86)\Microsoft Visual Studio\2019\Community\VC\Tools\MSVC\14.27.29110\include\streambuf

; 212  :         return *_IPnext + *_IPcount;

  00093	8b 46 30	 mov	 eax, DWORD PTR [esi+48]
  00096	8b 4e 20	 mov	 ecx, DWORD PTR [esi+32]
  00099	8b 10		 mov	 edx, DWORD PTR [eax]

; 247  :         *_IPfirst = _First;

  0009b	8b 46 10	 mov	 eax, DWORD PTR [esi+16]

; 212  :         return *_IPnext + *_IPcount;

  0009e	03 11		 add	 edx, DWORD PTR [ecx]

; 247  :         *_IPfirst = _First;

  000a0	8b 4d fc	 mov	 ecx, DWORD PTR __Seeklow$1$[ebp]
  000a3	89 08		 mov	 DWORD PTR [eax], ecx

; 248  :         *_IPnext  = _Next;

  000a5	03 cf		 add	 ecx, edi
  000a7	8b 46 20	 mov	 eax, DWORD PTR [esi+32]

; 249  :         *_IPcount = static_cast<int>(_Last - _Next);

  000aa	2b d1		 sub	 edx, ecx
  000ac	89 08		 mov	 DWORD PTR [eax], ecx
  000ae	8b 46 30	 mov	 eax, DWORD PTR [esi+48]
  000b1	89 10		 mov	 DWORD PTR [eax], edx
$LN8@seekpos:
; File C:\Program Files (x86)\Microsoft Visual Studio\2019\Community\VC\Tools\MSVC\14.27.29110\include\iosfwd

; 55   :     /* implicit */ fpos(streamoff _Off = 0) : _Myoff(_Off), _Fpos(0), _Mystate() {}

  000b3	8b 45 08	 mov	 eax, DWORD PTR ___$ReturnUdt$[ebp]
  000b6	89 38		 mov	 DWORD PTR [eax], edi
  000b8	89 58 04	 mov	 DWORD PTR [eax+4], ebx
; File C:\Program Files (x86)\Microsoft Visual Studio\2019\Community\VC\Tools\MSVC\14.27.29110\include\sstream

; 292  :         return pos_type(_Off);

  000bb	eb 10		 jmp	 SHORT $LN31@seekpos
$LN5@seekpos:
; File C:\Program Files (x86)\Microsoft Visual Studio\2019\Community\VC\Tools\MSVC\14.27.29110\include\iosfwd

; 55   :     /* implicit */ fpos(streamoff _Off = 0) : _Myoff(_Off), _Fpos(0), _Mystate() {}

  000bd	8b 45 08	 mov	 eax, DWORD PTR ___$ReturnUdt$[ebp]
  000c0	c7 00 ff ff ff
	ff		 mov	 DWORD PTR [eax], -1
  000c6	c7 40 04 ff ff
	ff ff		 mov	 DWORD PTR [eax+4], -1
$LN31@seekpos:
  000cd	5f		 pop	 edi
; File C:\Program Files (x86)\Microsoft Visual Studio\2019\Community\VC\Tools\MSVC\14.27.29110\include\sstream

; 293  :     }

  000ce	0f 57 c0	 xorps	 xmm0, xmm0
  000d1	c7 40 08 00 00
	00 00		 mov	 DWORD PTR [eax+8], 0
  000d8	5e		 pop	 esi
  000d9	c7 40 0c 00 00
	00 00		 mov	 DWORD PTR [eax+12], 0
  000e0	66 0f d6 40 10	 movq	 QWORD PTR [eax+16], xmm0
  000e5	5b		 pop	 ebx
  000e6	8b e5		 mov	 esp, ebp
  000e8	5d		 pop	 ebp
  000e9	c2 20 00	 ret	 32			; 00000020H
?seekpos@?$basic_stringbuf@DU?$char_traits@D@std@@V?$allocator@D@2@@std@@MAE?AV?$fpos@U_Mbstatet@@@2@V32@H@Z ENDP ; std::basic_stringbuf<char,std::char_traits<char>,std::allocator<char> >::seekpos
_TEXT	ENDS
; Function compile flags: /Ogtp
; File C:\Program Files (x86)\Microsoft Visual Studio\2019\Community\VC\Tools\MSVC\14.27.29110\include\sstream
; File C:\Program Files (x86)\Microsoft Visual Studio\2019\Community\VC\Tools\MSVC\14.27.29110\include\streambuf
; File C:\Program Files (x86)\Microsoft Visual Studio\2019\Community\VC\Tools\MSVC\14.27.29110\include\sstream
; File C:\Program Files (x86)\Microsoft Visual Studio\2019\Community\VC\Tools\MSVC\14.27.29110\include\streambuf
; File C:\Program Files (x86)\Microsoft Visual Studio\2019\Community\VC\Tools\MSVC\14.27.29110\include\sstream
; File C:\Program Files (x86)\Microsoft Visual Studio\2019\Community\VC\Tools\MSVC\14.27.29110\include\streambuf
; File C:\Program Files (x86)\Microsoft Visual Studio\2019\Community\VC\Tools\MSVC\14.27.29110\include\sstream
; File C:\Program Files (x86)\Microsoft Visual Studio\2019\Community\VC\Tools\MSVC\14.27.29110\include\streambuf
; File C:\Program Files (x86)\Microsoft Visual Studio\2019\Community\VC\Tools\MSVC\14.27.29110\include\sstream
; File C:\Program Files (x86)\Microsoft Visual Studio\2019\Community\VC\Tools\MSVC\14.27.29110\include\streambuf
; File C:\Program Files (x86)\Microsoft Visual Studio\2019\Community\VC\Tools\MSVC\14.27.29110\include\sstream
; File C:\Program Files (x86)\Microsoft Visual Studio\2019\Community\VC\Tools\MSVC\14.27.29110\include\streambuf
; File C:\Program Files (x86)\Microsoft Visual Studio\2019\Community\VC\Tools\MSVC\14.27.29110\include\iosfwd
; File C:\Program Files (x86)\Microsoft Visual Studio\2019\Community\VC\Tools\MSVC\14.27.29110\include\sstream
; File C:\Program Files (x86)\Microsoft Visual Studio\2019\Community\VC\Tools\MSVC\14.27.29110\include\iosfwd
; File C:\Program Files (x86)\Microsoft Visual Studio\2019\Community\VC\Tools\MSVC\14.27.29110\include\sstream
;	COMDAT ?seekoff@?$basic_stringbuf@DU?$char_traits@D@std@@V?$allocator@D@2@@std@@MAE?AV?$fpos@U_Mbstatet@@@2@_JHH@Z
_TEXT	SEGMENT
__Newoff$ = -28						; size = 8
tv188 = -20						; size = 4
tv229 = -16						; size = 4
__Seeklow$1$ = -12					; size = 4
__Seekdist$1$ = -8					; size = 4
__Gptr_old$1$ = -4					; size = 4
___$ReturnUdt$ = 8					; size = 4
__Off$ = 12						; size = 8
__Off$2$ = 20						; size = 4
__Way$ = 20						; size = 4
__Newptr$1$ = 24					; size = 4
__Mode$ = 24						; size = 4
?seekoff@?$basic_stringbuf@DU?$char_traits@D@std@@V?$allocator@D@2@@std@@MAE?AV?$fpos@U_Mbstatet@@@2@_JHH@Z PROC ; std::basic_stringbuf<char,std::char_traits<char>,std::allocator<char> >::seekoff, COMDAT
; _this$ = ecx

; 205  :         off_type _Off, ios_base::seekdir _Way, ios_base::openmode _Mode = ios_base::in | ios_base::out) {

  00000	55		 push	 ebp
  00001	8b ec		 mov	 ebp, esp
  00003	83 ec 1c	 sub	 esp, 28			; 0000001cH
  00006	53		 push	 ebx
  00007	56		 push	 esi
  00008	8b f1		 mov	 esi, ecx
  0000a	57		 push	 edi
; File C:\Program Files (x86)\Microsoft Visual Studio\2019\Community\VC\Tools\MSVC\14.27.29110\include\streambuf

; 185  :         return *_IGnext;

  0000b	8b 46 1c	 mov	 eax, DWORD PTR [esi+28]
  0000e	8b 38		 mov	 edi, DWORD PTR [eax]

; 193  :         return *_IPnext;

  00010	8b 46 20	 mov	 eax, DWORD PTR [esi+32]

; 185  :         return *_IGnext;

  00013	89 7d fc	 mov	 DWORD PTR __Gptr_old$1$[ebp], edi

; 193  :         return *_IPnext;

  00016	8b 08		 mov	 ecx, DWORD PTR [eax]
; File C:\Program Files (x86)\Microsoft Visual Studio\2019\Community\VC\Tools\MSVC\14.27.29110\include\sstream

; 209  :         if (_Pptr_old && _Seekhigh < _Pptr_old) { // update high-water pointer

  00018	85 c9		 test	 ecx, ecx
  0001a	74 08		 je	 SHORT $LN4@seekoff
  0001c	39 4e 38	 cmp	 DWORD PTR [esi+56], ecx
  0001f	73 03		 jae	 SHORT $LN4@seekoff

; 210  :             _Seekhigh = _Pptr_old;

  00021	89 4e 38	 mov	 DWORD PTR [esi+56], ecx
$LN4@seekoff:
; File C:\Program Files (x86)\Microsoft Visual Studio\2019\Community\VC\Tools\MSVC\14.27.29110\include\streambuf

; 181  :         return *_IGfirst;

  00024	8b 46 0c	 mov	 eax, DWORD PTR [esi+12]
; File C:\Program Files (x86)\Microsoft Visual Studio\2019\Community\VC\Tools\MSVC\14.27.29110\include\sstream

; 216  :         switch (_Way) {

  00027	8b 5d 18	 mov	 ebx, DWORD PTR __Mode$[ebp]
; File C:\Program Files (x86)\Microsoft Visual Studio\2019\Community\VC\Tools\MSVC\14.27.29110\include\streambuf

; 181  :         return *_IGfirst;

  0002a	8b 10		 mov	 edx, DWORD PTR [eax]
; File C:\Program Files (x86)\Microsoft Visual Studio\2019\Community\VC\Tools\MSVC\14.27.29110\include\sstream

; 214  :         const auto _Seekdist = _Seekhigh - _Seeklow;

  0002c	8b 46 38	 mov	 eax, DWORD PTR [esi+56]
  0002f	89 45 ec	 mov	 DWORD PTR tv188[ebp], eax
  00032	2b c2		 sub	 eax, edx
  00034	89 45 f8	 mov	 DWORD PTR __Seekdist$1$[ebp], eax

; 216  :         switch (_Way) {

  00037	8b 45 14	 mov	 eax, DWORD PTR __Way$[ebp]
; File C:\Program Files (x86)\Microsoft Visual Studio\2019\Community\VC\Tools\MSVC\14.27.29110\include\streambuf

; 181  :         return *_IGfirst;

  0003a	89 55 f4	 mov	 DWORD PTR __Seeklow$1$[ebp], edx
; File C:\Program Files (x86)\Microsoft Visual Studio\2019\Community\VC\Tools\MSVC\14.27.29110\include\sstream

; 216  :         switch (_Way) {

  0003d	83 e8 00	 sub	 eax, 0
  00040	74 61		 je	 SHORT $LN5@seekoff
  00042	83 e8 01	 sub	 eax, 1
  00045	74 13		 je	 SHORT $LN7@seekoff
  00047	83 e8 01	 sub	 eax, 1
  0004a	0f 85 ec 00 00
	00		 jne	 $LN18@seekoff

; 219  :             break;
; 220  :         case ios_base::end:
; 221  :             _Newoff = _Seekdist;

  00050	8b 45 f8	 mov	 eax, DWORD PTR __Seekdist$1$[ebp]
  00053	99		 cdq
  00054	8b f8		 mov	 edi, eax
  00056	8b c2		 mov	 eax, edx

; 222  :             break;

  00058	eb 57		 jmp	 SHORT $LN2@seekoff
$LN7@seekoff:

; 223  :         case ios_base::cur: {
; 224  :             constexpr auto _Both = ios_base::in | ios_base::out;
; 225  :             if ((_Mode & _Both) != _Both) { // prohibited by N4727 [stringbuf.virtuals] Table 107 "seekoff positioning"

  0005a	8b c3		 mov	 eax, ebx
  0005c	83 e0 03	 and	 eax, 3
  0005f	3c 03		 cmp	 al, 3
  00061	0f 84 d5 00 00
	00		 je	 $LN18@seekoff

; 226  :                 if (_Mode & ios_base::in) {

  00067	f6 c3 01	 test	 bl, 1
  0006a	74 17		 je	 SHORT $LN9@seekoff

; 227  :                     if (_Gptr_old || !_Seeklow) {

  0006c	85 ff		 test	 edi, edi
  0006e	75 08		 jne	 SHORT $LN12@seekoff
  00070	85 d2		 test	 edx, edx
  00072	0f 85 c4 00 00
	00		 jne	 $LN18@seekoff
$LN12@seekoff:

; 228  :                         _Newoff = _Gptr_old - _Seeklow;

  00078	8b c7		 mov	 eax, edi
  0007a	2b c2		 sub	 eax, edx
  0007c	99		 cdq
  0007d	8b f8		 mov	 edi, eax
  0007f	8b c2		 mov	 eax, edx

; 229  :                         break;

  00081	eb 2e		 jmp	 SHORT $LN2@seekoff
$LN9@seekoff:

; 230  :                     }
; 231  :                 } else if ((_Mode & ios_base::out) && (_Pptr_old || !_Seeklow)) {

  00083	f6 c3 02	 test	 bl, 2
  00086	0f 84 b0 00 00
	00		 je	 $LN18@seekoff
  0008c	85 c9		 test	 ecx, ecx
  0008e	75 08		 jne	 SHORT $LN14@seekoff
  00090	85 d2		 test	 edx, edx
  00092	0f 85 a4 00 00
	00		 jne	 $LN18@seekoff
$LN14@seekoff:

; 232  :                     _Newoff = _Pptr_old - _Seeklow;

  00098	8b c1		 mov	 eax, ecx
  0009a	2b c2		 sub	 eax, edx
  0009c	99		 cdq
  0009d	8b f8		 mov	 edi, eax
  0009f	8b c2		 mov	 eax, edx

; 233  :                     break;

  000a1	eb 0e		 jmp	 SHORT $LN2@seekoff
$LN5@seekoff:
  000a3	0f 57 c0	 xorps	 xmm0, xmm0

; 217  :         case ios_base::beg:
; 218  :             _Newoff = 0;

  000a6	66 0f 13 45 e4	 movlpd	 QWORD PTR __Newoff$[ebp], xmm0
  000ab	8b 45 e8	 mov	 eax, DWORD PTR __Newoff$[ebp+4]
  000ae	8b 7d e4	 mov	 edi, DWORD PTR __Newoff$[ebp]
$LN2@seekoff:

; 234  :                 }
; 235  :             }
; 236  :         }
; 237  : 
; 238  :             // fallthrough
; 239  :         default:
; 240  :             return pos_type(off_type(-1));
; 241  :         }
; 242  : 
; 243  :         if (static_cast<unsigned long long>(_Off) + _Newoff > static_cast<unsigned long long>(_Seekdist)) {

  000b1	03 7d 0c	 add	 edi, DWORD PTR __Off$[ebp]
  000b4	13 45 10	 adc	 eax, DWORD PTR __Off$[ebp+4]
  000b7	89 45 14	 mov	 DWORD PTR __Off$2$[ebp], eax
  000ba	8b 45 f8	 mov	 eax, DWORD PTR __Seekdist$1$[ebp]
  000bd	99		 cdq
  000be	39 55 14	 cmp	 DWORD PTR __Off$2$[ebp], edx
  000c1	77 79		 ja	 SHORT $LN18@seekoff
  000c3	72 04		 jb	 SHORT $LN43@seekoff
  000c5	3b f8		 cmp	 edi, eax
  000c7	77 73		 ja	 SHORT $LN18@seekoff
$LN43@seekoff:

; 244  :             return pos_type(off_type(-1));
; 245  :         }
; 246  : 
; 247  :         _Off += _Newoff;
; 248  :         if (_Off != 0 && (((_Mode & ios_base::in) && !_Gptr_old) || ((_Mode & ios_base::out) && !_Pptr_old))) {

  000c9	8b 55 fc	 mov	 edx, DWORD PTR __Gptr_old$1$[ebp]
  000cc	8b c7		 mov	 eax, edi
  000ce	0b 45 14	 or	 eax, DWORD PTR __Off$2$[ebp]
  000d1	74 12		 je	 SHORT $LN17@seekoff
  000d3	f6 c3 01	 test	 bl, 1
  000d6	74 04		 je	 SHORT $LN19@seekoff
  000d8	85 d2		 test	 edx, edx
  000da	74 60		 je	 SHORT $LN18@seekoff
$LN19@seekoff:
  000dc	f6 c3 02	 test	 bl, 2
  000df	74 04		 je	 SHORT $LN17@seekoff
  000e1	85 c9		 test	 ecx, ecx
  000e3	74 57		 je	 SHORT $LN18@seekoff
$LN17@seekoff:

; 249  :             return pos_type(off_type(-1));
; 250  :         }
; 251  : 
; 252  :         const auto _Newptr = _Seeklow + _Off; // may perform nullptr + 0

  000e5	8b 45 f4	 mov	 eax, DWORD PTR __Seeklow$1$[ebp]
  000e8	03 c7		 add	 eax, edi
  000ea	89 45 18	 mov	 DWORD PTR __Newptr$1$[ebp], eax

; 253  :         if ((_Mode & ios_base::in) && _Gptr_old) {

  000ed	f6 c3 01	 test	 bl, 1
  000f0	74 13		 je	 SHORT $LN20@seekoff
  000f2	85 d2		 test	 edx, edx
  000f4	74 0f		 je	 SHORT $LN20@seekoff
; File C:\Program Files (x86)\Microsoft Visual Studio\2019\Community\VC\Tools\MSVC\14.27.29110\include\streambuf

; 207  :         *_IGnext  = _Next;

  000f6	8b 56 1c	 mov	 edx, DWORD PTR [esi+28]
  000f9	89 02		 mov	 DWORD PTR [edx], eax

; 208  :         *_IGcount = static_cast<int>(_Last - _Next);

  000fb	8b 55 ec	 mov	 edx, DWORD PTR tv188[ebp]
  000fe	2b d0		 sub	 edx, eax
  00100	8b 46 2c	 mov	 eax, DWORD PTR [esi+44]
  00103	89 10		 mov	 DWORD PTR [eax], edx
$LN20@seekoff:
; File C:\Program Files (x86)\Microsoft Visual Studio\2019\Community\VC\Tools\MSVC\14.27.29110\include\sstream

; 257  :         if ((_Mode & ios_base::out) && _Pptr_old) {

  00105	f6 c3 02	 test	 bl, 2
  00108	74 25		 je	 SHORT $LN21@seekoff
  0010a	85 c9		 test	 ecx, ecx
  0010c	74 21		 je	 SHORT $LN21@seekoff
; File C:\Program Files (x86)\Microsoft Visual Studio\2019\Community\VC\Tools\MSVC\14.27.29110\include\streambuf

; 212  :         return *_IPnext + *_IPcount;

  0010e	8b 46 30	 mov	 eax, DWORD PTR [esi+48]
  00111	8b 4e 20	 mov	 ecx, DWORD PTR [esi+32]
  00114	8b 10		 mov	 edx, DWORD PTR [eax]

; 247  :         *_IPfirst = _First;

  00116	8b 46 10	 mov	 eax, DWORD PTR [esi+16]

; 212  :         return *_IPnext + *_IPcount;

  00119	03 11		 add	 edx, DWORD PTR [ecx]

; 247  :         *_IPfirst = _First;

  0011b	8b 4d f4	 mov	 ecx, DWORD PTR __Seeklow$1$[ebp]
  0011e	89 08		 mov	 DWORD PTR [eax], ecx

; 248  :         *_IPnext  = _Next;

  00120	8b 46 20	 mov	 eax, DWORD PTR [esi+32]
  00123	8b 4d 18	 mov	 ecx, DWORD PTR __Newptr$1$[ebp]

; 249  :         *_IPcount = static_cast<int>(_Last - _Next);

  00126	2b d1		 sub	 edx, ecx
  00128	89 08		 mov	 DWORD PTR [eax], ecx
  0012a	8b 46 30	 mov	 eax, DWORD PTR [esi+48]
  0012d	89 10		 mov	 DWORD PTR [eax], edx
$LN21@seekoff:
; File C:\Program Files (x86)\Microsoft Visual Studio\2019\Community\VC\Tools\MSVC\14.27.29110\include\iosfwd

; 55   :     /* implicit */ fpos(streamoff _Off = 0) : _Myoff(_Off), _Fpos(0), _Mystate() {}

  0012f	8b 45 08	 mov	 eax, DWORD PTR ___$ReturnUdt$[ebp]
  00132	8b 4d 14	 mov	 ecx, DWORD PTR __Off$2$[ebp]
  00135	89 38		 mov	 DWORD PTR [eax], edi
  00137	89 48 04	 mov	 DWORD PTR [eax+4], ecx
; File C:\Program Files (x86)\Microsoft Visual Studio\2019\Community\VC\Tools\MSVC\14.27.29110\include\sstream

; 261  :         return pos_type(_Off);

  0013a	eb 10		 jmp	 SHORT $LN46@seekoff
$LN18@seekoff:
; File C:\Program Files (x86)\Microsoft Visual Studio\2019\Community\VC\Tools\MSVC\14.27.29110\include\iosfwd

; 55   :     /* implicit */ fpos(streamoff _Off = 0) : _Myoff(_Off), _Fpos(0), _Mystate() {}

  0013c	8b 45 08	 mov	 eax, DWORD PTR ___$ReturnUdt$[ebp]
  0013f	c7 00 ff ff ff
	ff		 mov	 DWORD PTR [eax], -1
  00145	c7 40 04 ff ff
	ff ff		 mov	 DWORD PTR [eax+4], -1
$LN46@seekoff:
  0014c	5f		 pop	 edi
; File C:\Program Files (x86)\Microsoft Visual Studio\2019\Community\VC\Tools\MSVC\14.27.29110\include\sstream

; 262  :     }

  0014d	0f 57 c0	 xorps	 xmm0, xmm0
  00150	c7 40 08 00 00
	00 00		 mov	 DWORD PTR [eax+8], 0
  00157	5e		 pop	 esi
  00158	c7 40 0c 00 00
	00 00		 mov	 DWORD PTR [eax+12], 0
  0015f	66 0f d6 40 10	 movq	 QWORD PTR [eax+16], xmm0
  00164	5b		 pop	 ebx
  00165	8b e5		 mov	 esp, ebp
  00167	5d		 pop	 ebp
  00168	c2 14 00	 ret	 20			; 00000014H
?seekoff@?$basic_stringbuf@DU?$char_traits@D@std@@V?$allocator@D@2@@std@@MAE?AV?$fpos@U_Mbstatet@@@2@_JHH@Z ENDP ; std::basic_stringbuf<char,std::char_traits<char>,std::allocator<char> >::seekoff
_TEXT	ENDS
; Function compile flags: /Ogtp
; File C:\Program Files (x86)\Microsoft Visual Studio\2019\Community\VC\Tools\MSVC\14.27.29110\include\sstream
; File C:\Program Files (x86)\Microsoft Visual Studio\2019\Community\VC\Tools\MSVC\14.27.29110\include\streambuf
; File C:\Program Files (x86)\Microsoft Visual Studio\2019\Community\VC\Tools\MSVC\14.27.29110\include\sstream
; File C:\Program Files (x86)\Microsoft Visual Studio\2019\Community\VC\Tools\MSVC\14.27.29110\include\streambuf
; File C:\Program Files (x86)\Microsoft Visual Studio\2019\Community\VC\Tools\MSVC\14.27.29110\include\sstream
; File C:\Program Files (x86)\Microsoft Visual Studio\2019\Community\VC\Tools\MSVC\14.27.29110\include\xstring
; File C:\Program Files (x86)\Microsoft Visual Studio\2019\Community\VC\Tools\MSVC\14.27.29110\include\sstream
; File C:\Program Files (x86)\Microsoft Visual Studio\2019\Community\VC\Tools\MSVC\14.27.29110\include\streambuf
; File C:\Program Files (x86)\Microsoft Visual Studio\2019\Community\VC\Tools\MSVC\14.27.29110\include\sstream
; File C:\Program Files (x86)\Microsoft Visual Studio\2019\Community\VC\Tools\MSVC\14.27.29110\include\utility
; File C:\Program Files (x86)\Microsoft Visual Studio\2019\Community\VC\Tools\MSVC\14.27.29110\include\sstream
; File C:\Program Files (x86)\Microsoft Visual Studio\2019\Community\VC\Tools\MSVC\14.27.29110\include\streambuf
; File C:\Program Files (x86)\Microsoft Visual Studio\2019\Community\VC\Tools\MSVC\14.27.29110\include\sstream
; File C:\Program Files (x86)\Microsoft Visual Studio\2019\Community\VC\Tools\MSVC\14.27.29110\include\streambuf
; File C:\Program Files (x86)\Microsoft Visual Studio\2019\Community\VC\Tools\MSVC\14.27.29110\include\xstring
; File C:\Program Files (x86)\Microsoft Visual Studio\2019\Community\VC\Tools\MSVC\14.27.29110\include\sstream
;	COMDAT ?underflow@?$basic_stringbuf@DU?$char_traits@D@std@@V?$allocator@D@2@@std@@MAEHXZ
_TEXT	SEGMENT
?underflow@?$basic_stringbuf@DU?$char_traits@D@std@@V?$allocator@D@2@@std@@MAEHXZ PROC ; std::basic_stringbuf<char,std::char_traits<char>,std::allocator<char> >::underflow, COMDAT
; _this$ = ecx

; 178  :     virtual int_type underflow() { // get an element from stream, but don't point past it

  00000	56		 push	 esi
  00001	57		 push	 edi
; File C:\Program Files (x86)\Microsoft Visual Studio\2019\Community\VC\Tools\MSVC\14.27.29110\include\streambuf

; 185  :         return *_IGnext;

  00002	8b 79 1c	 mov	 edi, DWORD PTR [ecx+28]
  00005	8b 17		 mov	 edx, DWORD PTR [edi]
; File C:\Program Files (x86)\Microsoft Visual Studio\2019\Community\VC\Tools\MSVC\14.27.29110\include\sstream

; 180  :         if (!_Gptr) { // no character buffer, fail

  00007	85 d2		 test	 edx, edx
  00009	74 45		 je	 SHORT $LN5@underflow
; File C:\Program Files (x86)\Microsoft Visual Studio\2019\Community\VC\Tools\MSVC\14.27.29110\include\streambuf

; 197  :         return *_IGnext + *_IGcount;

  0000b	8b 41 2c	 mov	 eax, DWORD PTR [ecx+44]
  0000e	8b 00		 mov	 eax, DWORD PTR [eax]
  00010	03 c2		 add	 eax, edx
; File C:\Program Files (x86)\Microsoft Visual Studio\2019\Community\VC\Tools\MSVC\14.27.29110\include\sstream

; 184  :         if (_Gptr < _Mysb::egptr()) {

  00012	3b d0		 cmp	 edx, eax
  00014	73 06		 jae	 SHORT $LN3@underflow
; File C:\Program Files (x86)\Microsoft Visual Studio\2019\Community\VC\Tools\MSVC\14.27.29110\include\xstring

; 389  :         return static_cast<unsigned char>(_Ch);

  00016	0f b6 02	 movzx	 eax, BYTE PTR [edx]
  00019	5f		 pop	 edi
; File C:\Program Files (x86)\Microsoft Visual Studio\2019\Community\VC\Tools\MSVC\14.27.29110\include\sstream

; 202  :     }

  0001a	5e		 pop	 esi
  0001b	c3		 ret	 0
$LN3@underflow:
; File C:\Program Files (x86)\Microsoft Visual Studio\2019\Community\VC\Tools\MSVC\14.27.29110\include\streambuf

; 193  :         return *_IPnext;

  0001c	8b 41 20	 mov	 eax, DWORD PTR [ecx+32]
; File C:\Program Files (x86)\Microsoft Visual Studio\2019\Community\VC\Tools\MSVC\14.27.29110\include\sstream

; 189  :         const auto _Pptr = _Mysb::pptr();

  0001f	8b 00		 mov	 eax, DWORD PTR [eax]
  00021	85 c0		 test	 eax, eax

; 190  :         if (!_Pptr || (_Mystate & _Noread)) { // no put area or read disallowed

  00023	74 2b		 je	 SHORT $LN5@underflow
  00025	f6 41 3c 04	 test	 BYTE PTR [ecx+60], 4
  00029	75 25		 jne	 SHORT $LN5@underflow
; File C:\Program Files (x86)\Microsoft Visual Studio\2019\Community\VC\Tools\MSVC\14.27.29110\include\utility

; 44   :     return _Left < _Right ? _Right : _Left;

  0002b	8b 71 38	 mov	 esi, DWORD PTR [ecx+56]
  0002e	3b f0		 cmp	 esi, eax
  00030	0f 42 f0	 cmovb	 esi, eax
; File C:\Program Files (x86)\Microsoft Visual Studio\2019\Community\VC\Tools\MSVC\14.27.29110\include\sstream

; 195  :         if (_Local_highwater <= _Gptr) { // nothing in the put area to take

  00033	3b f2		 cmp	 esi, edx
  00035	76 19		 jbe	 SHORT $LN5@underflow

; 196  :             return _Traits::eof();
; 197  :         }
; 198  : 
; 199  :         _Seekhigh = _Local_highwater;

  00037	89 71 38	 mov	 DWORD PTR [ecx+56], esi
; File C:\Program Files (x86)\Microsoft Visual Studio\2019\Community\VC\Tools\MSVC\14.27.29110\include\streambuf

; 185  :         return *_IGnext;

  0003a	8b 07		 mov	 eax, DWORD PTR [edi]

; 208  :         *_IGcount = static_cast<int>(_Last - _Next);

  0003c	2b f0		 sub	 esi, eax
  0003e	89 07		 mov	 DWORD PTR [edi], eax
  00040	8b 41 2c	 mov	 eax, DWORD PTR [ecx+44]
  00043	5f		 pop	 edi
  00044	89 30		 mov	 DWORD PTR [eax], esi

; 185  :         return *_IGnext;

  00046	8b 41 1c	 mov	 eax, DWORD PTR [ecx+28]
; File C:\Program Files (x86)\Microsoft Visual Studio\2019\Community\VC\Tools\MSVC\14.27.29110\include\sstream

; 202  :     }

  00049	5e		 pop	 esi
; File C:\Program Files (x86)\Microsoft Visual Studio\2019\Community\VC\Tools\MSVC\14.27.29110\include\streambuf

; 185  :         return *_IGnext;

  0004a	8b 00		 mov	 eax, DWORD PTR [eax]
; File C:\Program Files (x86)\Microsoft Visual Studio\2019\Community\VC\Tools\MSVC\14.27.29110\include\xstring

; 389  :         return static_cast<unsigned char>(_Ch);

  0004c	0f b6 00	 movzx	 eax, BYTE PTR [eax]
; File C:\Program Files (x86)\Microsoft Visual Studio\2019\Community\VC\Tools\MSVC\14.27.29110\include\sstream

; 202  :     }

  0004f	c3		 ret	 0
$LN5@underflow:
  00050	5f		 pop	 edi

; 191  :             return _Traits::eof();

  00051	83 c8 ff	 or	 eax, -1

; 202  :     }

  00054	5e		 pop	 esi
  00055	c3		 ret	 0
?underflow@?$basic_stringbuf@DU?$char_traits@D@std@@V?$allocator@D@2@@std@@MAEHXZ ENDP ; std::basic_stringbuf<char,std::char_traits<char>,std::allocator<char> >::underflow
_TEXT	ENDS
; Function compile flags: /Ogtp
; File C:\Program Files (x86)\Microsoft Visual Studio\2019\Community\VC\Tools\MSVC\14.27.29110\include\sstream
; File C:\Program Files (x86)\Microsoft Visual Studio\2019\Community\VC\Tools\MSVC\14.27.29110\include\streambuf
; File C:\Program Files (x86)\Microsoft Visual Studio\2019\Community\VC\Tools\MSVC\14.27.29110\include\sstream
; File C:\Program Files (x86)\Microsoft Visual Studio\2019\Community\VC\Tools\MSVC\14.27.29110\include\streambuf
; File C:\Program Files (x86)\Microsoft Visual Studio\2019\Community\VC\Tools\MSVC\14.27.29110\include\sstream
; File C:\Program Files (x86)\Microsoft Visual Studio\2019\Community\VC\Tools\MSVC\14.27.29110\include\streambuf
; File C:\Program Files (x86)\Microsoft Visual Studio\2019\Community\VC\Tools\MSVC\14.27.29110\include\sstream
; File C:\Program Files (x86)\Microsoft Visual Studio\2019\Community\VC\Tools\MSVC\14.27.29110\include\xstring
; File C:\Program Files (x86)\Microsoft Visual Studio\2019\Community\VC\Tools\MSVC\14.27.29110\include\sstream
; File C:\Program Files (x86)\Microsoft Visual Studio\2019\Community\VC\Tools\MSVC\14.27.29110\include\xstring
; File C:\Program Files (x86)\Microsoft Visual Studio\2019\Community\VC\Tools\MSVC\14.27.29110\include\sstream
; File C:\Program Files (x86)\Microsoft Visual Studio\2019\Community\VC\Tools\MSVC\14.27.29110\include\streambuf
; File C:\Program Files (x86)\Microsoft Visual Studio\2019\Community\VC\Tools\MSVC\14.27.29110\include\xstring
; File C:\Program Files (x86)\Microsoft Visual Studio\2019\Community\VC\Tools\MSVC\14.27.29110\include\sstream
; File C:\Program Files (x86)\Microsoft Visual Studio\2019\Community\VC\Tools\MSVC\14.27.29110\include\streambuf
; File C:\Program Files (x86)\Microsoft Visual Studio\2019\Community\VC\Tools\MSVC\14.27.29110\include\sstream
;	COMDAT ?pbackfail@?$basic_stringbuf@DU?$char_traits@D@std@@V?$allocator@D@2@@std@@MAEHH@Z
_TEXT	SEGMENT
__Meta$ = 8						; size = 4
?pbackfail@?$basic_stringbuf@DU?$char_traits@D@std@@V?$allocator@D@2@@std@@MAEHH@Z PROC ; std::basic_stringbuf<char,std::char_traits<char>,std::allocator<char> >::pbackfail, COMDAT
; _this$ = ecx

; 161  :     virtual int_type pbackfail(int_type _Meta = _Traits::eof()) { // put an element back to stream

  00000	55		 push	 ebp
  00001	8b ec		 mov	 ebp, esp
; File C:\Program Files (x86)\Microsoft Visual Studio\2019\Community\VC\Tools\MSVC\14.27.29110\include\streambuf

; 185  :         return *_IGnext;

  00003	8b 41 1c	 mov	 eax, DWORD PTR [ecx+28]
; File C:\Program Files (x86)\Microsoft Visual Studio\2019\Community\VC\Tools\MSVC\14.27.29110\include\sstream

; 161  :     virtual int_type pbackfail(int_type _Meta = _Traits::eof()) { // put an element back to stream

  00006	56		 push	 esi
; File C:\Program Files (x86)\Microsoft Visual Studio\2019\Community\VC\Tools\MSVC\14.27.29110\include\streambuf

; 185  :         return *_IGnext;

  00007	8b 30		 mov	 esi, DWORD PTR [eax]
; File C:\Program Files (x86)\Microsoft Visual Studio\2019\Community\VC\Tools\MSVC\14.27.29110\include\sstream

; 164  :             || (!_Traits::eq_int_type(_Traits::eof(), _Meta) && !_Traits::eq(_Traits::to_char_type(_Meta), _Gptr[-1])

  00009	85 f6		 test	 esi, esi
  0000b	74 3f		 je	 SHORT $LN3@pbackfail
; File C:\Program Files (x86)\Microsoft Visual Studio\2019\Community\VC\Tools\MSVC\14.27.29110\include\streambuf

; 181  :         return *_IGfirst;

  0000d	8b 41 0c	 mov	 eax, DWORD PTR [ecx+12]
; File C:\Program Files (x86)\Microsoft Visual Studio\2019\Community\VC\Tools\MSVC\14.27.29110\include\sstream

; 164  :             || (!_Traits::eq_int_type(_Traits::eof(), _Meta) && !_Traits::eq(_Traits::to_char_type(_Meta), _Gptr[-1])

  00010	3b 30		 cmp	 esi, DWORD PTR [eax]
  00012	76 38		 jbe	 SHORT $LN3@pbackfail
; File C:\Program Files (x86)\Microsoft Visual Studio\2019\Community\VC\Tools\MSVC\14.27.29110\include\xstring

; 393  :         return _Left == _Right;

  00014	8b 55 08	 mov	 edx, DWORD PTR __Meta$[ebp]
  00017	83 fa ff	 cmp	 edx, -1
; File C:\Program Files (x86)\Microsoft Visual Studio\2019\Community\VC\Tools\MSVC\14.27.29110\include\sstream

; 164  :             || (!_Traits::eq_int_type(_Traits::eof(), _Meta) && !_Traits::eq(_Traits::to_char_type(_Meta), _Gptr[-1])

  0001a	74 0b		 je	 SHORT $LN2@pbackfail
; File C:\Program Files (x86)\Microsoft Visual Studio\2019\Community\VC\Tools\MSVC\14.27.29110\include\xstring

; 377  :         return _Left == _Right;

  0001c	3a 56 ff	 cmp	 dl, BYTE PTR [esi-1]
; File C:\Program Files (x86)\Microsoft Visual Studio\2019\Community\VC\Tools\MSVC\14.27.29110\include\sstream

; 164  :             || (!_Traits::eq_int_type(_Traits::eof(), _Meta) && !_Traits::eq(_Traits::to_char_type(_Meta), _Gptr[-1])

  0001f	74 06		 je	 SHORT $LN2@pbackfail
  00021	f6 41 3c 02	 test	 BYTE PTR [ecx+60], 2
  00025	75 25		 jne	 SHORT $LN3@pbackfail
$LN2@pbackfail:
; File C:\Program Files (x86)\Microsoft Visual Studio\2019\Community\VC\Tools\MSVC\14.27.29110\include\streambuf

; 201  :         *_IGcount -= _Off;

  00027	8b 41 2c	 mov	 eax, DWORD PTR [ecx+44]
  0002a	ff 00		 inc	 DWORD PTR [eax]

; 202  :         *_IGnext += _Off;

  0002c	8b 41 1c	 mov	 eax, DWORD PTR [ecx+28]
  0002f	ff 08		 dec	 DWORD PTR [eax]
; File C:\Program Files (x86)\Microsoft Visual Studio\2019\Community\VC\Tools\MSVC\14.27.29110\include\xstring

; 393  :         return _Left == _Right;

  00031	83 fa ff	 cmp	 edx, -1
; File C:\Program Files (x86)\Microsoft Visual Studio\2019\Community\VC\Tools\MSVC\14.27.29110\include\sstream

; 171  :         if (!_Traits::eq_int_type(_Traits::eof(), _Meta)) {

  00034	74 07		 je	 SHORT $LN4@pbackfail
; File C:\Program Files (x86)\Microsoft Visual Studio\2019\Community\VC\Tools\MSVC\14.27.29110\include\streambuf

; 185  :         return *_IGnext;

  00036	8b 49 1c	 mov	 ecx, DWORD PTR [ecx+28]
  00039	8b 09		 mov	 ecx, DWORD PTR [ecx]
; File C:\Program Files (x86)\Microsoft Visual Studio\2019\Community\VC\Tools\MSVC\14.27.29110\include\sstream

; 172  :             *_Mysb::gptr() = _Traits::to_char_type(_Meta);

  0003b	88 11		 mov	 BYTE PTR [ecx], dl
$LN4@pbackfail:

; 173  :         }
; 174  : 
; 175  :         return _Traits::not_eof(_Meta);

  0003d	33 c0		 xor	 eax, eax
  0003f	83 fa ff	 cmp	 edx, -1
  00042	5e		 pop	 esi
  00043	0f 44 d0	 cmove	 edx, eax
  00046	8b c2		 mov	 eax, edx

; 176  :     }

  00048	5d		 pop	 ebp
  00049	c2 04 00	 ret	 4
$LN3@pbackfail:

; 165  :                 && (_Mystate & _Constant))) { // can't put back, fail
; 166  :             return _Traits::eof();

  0004c	83 c8 ff	 or	 eax, -1
  0004f	5e		 pop	 esi

; 176  :     }

  00050	5d		 pop	 ebp
  00051	c2 04 00	 ret	 4
?pbackfail@?$basic_stringbuf@DU?$char_traits@D@std@@V?$allocator@D@2@@std@@MAEHH@Z ENDP ; std::basic_stringbuf<char,std::char_traits<char>,std::allocator<char> >::pbackfail
_TEXT	ENDS
; Function compile flags: /Ogtp
; File C:\Program Files (x86)\Microsoft Visual Studio\2019\Community\VC\Tools\MSVC\14.27.29110\include\sstream
; File C:\Program Files (x86)\Microsoft Visual Studio\2019\Community\VC\Tools\MSVC\14.27.29110\include\xstring
; File C:\Program Files (x86)\Microsoft Visual Studio\2019\Community\VC\Tools\MSVC\14.27.29110\include\sstream
; File C:\Program Files (x86)\Microsoft Visual Studio\2019\Community\VC\Tools\MSVC\14.27.29110\include\streambuf
; File C:\Program Files (x86)\Microsoft Visual Studio\2019\Community\VC\Tools\MSVC\14.27.29110\include\sstream
; File C:\Program Files (x86)\Microsoft Visual Studio\2019\Community\VC\Tools\MSVC\14.27.29110\include\streambuf
; File C:\Program Files (x86)\Microsoft Visual Studio\2019\Community\VC\Tools\MSVC\14.27.29110\include\sstream
; File C:\Program Files (x86)\Microsoft Visual Studio\2019\Community\VC\Tools\MSVC\14.27.29110\include\streambuf
; File C:\Program Files (x86)\Microsoft Visual Studio\2019\Community\VC\Tools\MSVC\14.27.29110\include\sstream
; File C:\Program Files (x86)\Microsoft Visual Studio\2019\Community\VC\Tools\MSVC\14.27.29110\include\streambuf
; File C:\Program Files (x86)\Microsoft Visual Studio\2019\Community\VC\Tools\MSVC\14.27.29110\include\sstream
; File C:\Program Files (x86)\Microsoft Visual Studio\2019\Community\VC\Tools\MSVC\14.27.29110\include\streambuf
; File C:\Program Files (x86)\Microsoft Visual Studio\2019\Community\VC\Tools\MSVC\14.27.29110\include\sstream
; File C:\Program Files (x86)\Microsoft Visual Studio\2019\Community\VC\Tools\MSVC\14.27.29110\include\xmemory
; File C:\Program Files (x86)\Microsoft Visual Studio\2019\Community\VC\Tools\MSVC\14.27.29110\include\xstring
; File C:\Program Files (x86)\Microsoft Visual Studio\2019\Community\VC\Tools\MSVC\14.27.29110\include\sstream
; File C:\Program Files (x86)\Microsoft Visual Studio\2019\Community\VC\Tools\MSVC\14.27.29110\include\xstring
; File C:\Program Files (x86)\Microsoft Visual Studio\2019\Community\VC\Tools\MSVC\14.27.29110\include\streambuf
; File C:\Program Files (x86)\Microsoft Visual Studio\2019\Community\VC\Tools\MSVC\14.27.29110\include\sstream
; File C:\Program Files (x86)\Microsoft Visual Studio\2019\Community\VC\Tools\MSVC\14.27.29110\include\xstring
; File C:\Program Files (x86)\Microsoft Visual Studio\2019\Community\VC\Tools\MSVC\14.27.29110\include\sstream
; File C:\Program Files (x86)\Microsoft Visual Studio\2019\Community\VC\Tools\MSVC\14.27.29110\include\streambuf
; File C:\Program Files (x86)\Microsoft Visual Studio\2019\Community\VC\Tools\MSVC\14.27.29110\include\sstream
; File C:\Program Files (x86)\Microsoft Visual Studio\2019\Community\VC\Tools\MSVC\14.27.29110\include\streambuf
; File C:\Program Files (x86)\Microsoft Visual Studio\2019\Community\VC\Tools\MSVC\14.27.29110\include\sstream
; File C:\Program Files (x86)\Microsoft Visual Studio\2019\Community\VC\Tools\MSVC\14.27.29110\include\streambuf
; File C:\Program Files (x86)\Microsoft Visual Studio\2019\Community\VC\Tools\MSVC\14.27.29110\include\sstream
; File C:\Program Files (x86)\Microsoft Visual Studio\2019\Community\VC\Tools\MSVC\14.27.29110\include\streambuf
; File C:\Program Files (x86)\Microsoft Visual Studio\2019\Community\VC\Tools\MSVC\14.27.29110\include\sstream
; File C:\Program Files (x86)\Microsoft Visual Studio\2019\Community\VC\Tools\MSVC\14.27.29110\include\streambuf
; File C:\Program Files (x86)\Microsoft Visual Studio\2019\Community\VC\Tools\MSVC\14.27.29110\include\sstream
; File C:\Program Files (x86)\Microsoft Visual Studio\2019\Community\VC\Tools\MSVC\14.27.29110\include\xmemory
; File C:\Program Files (x86)\Microsoft Visual Studio\2019\Community\VC\Tools\MSVC\14.27.29110\include\sstream
; File C:\Program Files (x86)\Microsoft Visual Studio\2019\Community\VC\Tools\MSVC\14.27.29110\include\streambuf
; File C:\Program Files (x86)\Microsoft Visual Studio\2019\Community\VC\Tools\MSVC\14.27.29110\include\sstream
; File C:\Program Files (x86)\Microsoft Visual Studio\2019\Community\VC\Tools\MSVC\14.27.29110\include\streambuf
; File C:\Program Files (x86)\Microsoft Visual Studio\2019\Community\VC\Tools\MSVC\14.27.29110\include\sstream
;	COMDAT ?overflow@?$basic_stringbuf@DU?$char_traits@D@std@@V?$allocator@D@2@@std@@MAEHH@Z
_TEXT	SEGMENT
__Oldptr$1$ = -8					; size = 4
__Newsize$1$ = -4					; size = 4
__Meta$ = 8						; size = 4
?overflow@?$basic_stringbuf@DU?$char_traits@D@std@@V?$allocator@D@2@@std@@MAEHH@Z PROC ; std::basic_stringbuf<char,std::char_traits<char>,std::allocator<char> >::overflow, COMDAT
; _this$ = ecx

; 104  :     virtual int_type overflow(int_type _Meta = _Traits::eof()) { // put an element to stream

  00000	55		 push	 ebp
  00001	8b ec		 mov	 ebp, esp
  00003	83 ec 08	 sub	 esp, 8
  00006	53		 push	 ebx
  00007	56		 push	 esi
  00008	57		 push	 edi
  00009	8b f9		 mov	 edi, ecx

; 105  :         if (_Mystate & _Constant) {

  0000b	f6 47 3c 02	 test	 BYTE PTR [edi+60], 2
  0000f	0f 85 2c 01 00
	00		 jne	 $LN10@overflow
; File C:\Program Files (x86)\Microsoft Visual Studio\2019\Community\VC\Tools\MSVC\14.27.29110\include\xstring

; 393  :         return _Left == _Right;

  00015	83 7d 08 ff	 cmp	 DWORD PTR __Meta$[ebp], -1
; File C:\Program Files (x86)\Microsoft Visual Studio\2019\Community\VC\Tools\MSVC\14.27.29110\include\sstream

; 109  :         if (_Traits::eq_int_type(_Traits::eof(), _Meta)) {

  00019	75 0b		 jne	 SHORT $LN3@overflow

; 159  :     }

  0001b	5f		 pop	 edi
  0001c	5e		 pop	 esi
  0001d	33 c0		 xor	 eax, eax
  0001f	5b		 pop	 ebx
  00020	8b e5		 mov	 esp, ebp
  00022	5d		 pop	 ebp
  00023	c2 04 00	 ret	 4
$LN3@overflow:
; File C:\Program Files (x86)\Microsoft Visual Studio\2019\Community\VC\Tools\MSVC\14.27.29110\include\streambuf

; 193  :         return *_IPnext;

  00026	8b 47 20	 mov	 eax, DWORD PTR [edi+32]
  00029	8b 18		 mov	 ebx, DWORD PTR [eax]

; 212  :         return *_IPnext + *_IPcount;

  0002b	8b 47 30	 mov	 eax, DWORD PTR [edi+48]
  0002e	8b 10		 mov	 edx, DWORD PTR [eax]
  00030	8d 0c 1a	 lea	 ecx, DWORD PTR [edx+ebx]
; File C:\Program Files (x86)\Microsoft Visual Studio\2019\Community\VC\Tools\MSVC\14.27.29110\include\sstream

; 115  :         if (_Pptr && _Pptr < _Epptr) { // room in buffer, store it

  00033	85 db		 test	 ebx, ebx
  00035	74 27		 je	 SHORT $LN46@overflow
  00037	3b d9		 cmp	 ebx, ecx
  00039	73 23		 jae	 SHORT $LN46@overflow
; File C:\Program Files (x86)\Microsoft Visual Studio\2019\Community\VC\Tools\MSVC\14.27.29110\include\streambuf

; 253  :         --*_IPcount;

  0003b	8d 4a ff	 lea	 ecx, DWORD PTR [edx-1]
  0003e	89 08		 mov	 DWORD PTR [eax], ecx

; 254  :         return (*_IPnext)++;

  00040	8b 57 20	 mov	 edx, DWORD PTR [edi+32]
; File C:\Program Files (x86)\Microsoft Visual Studio\2019\Community\VC\Tools\MSVC\14.27.29110\include\sstream

; 116  :             *_Mysb::_Pninc() = _Traits::to_char_type(_Meta);

  00043	8b 45 08	 mov	 eax, DWORD PTR __Meta$[ebp]
; File C:\Program Files (x86)\Microsoft Visual Studio\2019\Community\VC\Tools\MSVC\14.27.29110\include\streambuf

; 254  :         return (*_IPnext)++;

  00046	8b 32		 mov	 esi, DWORD PTR [edx]
  00048	8d 4e 01	 lea	 ecx, DWORD PTR [esi+1]
  0004b	89 0a		 mov	 DWORD PTR [edx], ecx
; File C:\Program Files (x86)\Microsoft Visual Studio\2019\Community\VC\Tools\MSVC\14.27.29110\include\sstream

; 117  :             _Seekhigh        = _Pptr + 1;

  0004d	8d 4b 01	 lea	 ecx, DWORD PTR [ebx+1]
  00050	88 06		 mov	 BYTE PTR [esi], al
  00052	89 4f 38	 mov	 DWORD PTR [edi+56], ecx
  00055	5f		 pop	 edi

; 159  :     }

  00056	5e		 pop	 esi
  00057	5b		 pop	 ebx
  00058	8b e5		 mov	 esp, ebp
  0005a	5d		 pop	 ebp
  0005b	c2 04 00	 ret	 4
$LN46@overflow:
; File C:\Program Files (x86)\Microsoft Visual Studio\2019\Community\VC\Tools\MSVC\14.27.29110\include\streambuf

; 181  :         return *_IGfirst;

  0005e	8b 47 0c	 mov	 eax, DWORD PTR [edi+12]
  00061	8b 00		 mov	 eax, DWORD PTR [eax]
; File C:\Program Files (x86)\Microsoft Visual Studio\2019\Community\VC\Tools\MSVC\14.27.29110\include\sstream

; 129  :         if (_Oldsize < _MINSIZE) {

  00063	2b c8		 sub	 ecx, eax
  00065	f7 db		 neg	 ebx
; File C:\Program Files (x86)\Microsoft Visual Studio\2019\Community\VC\Tools\MSVC\14.27.29110\include\streambuf

; 181  :         return *_IGfirst;

  00067	89 45 f8	 mov	 DWORD PTR __Oldptr$1$[ebp], eax
; File C:\Program Files (x86)\Microsoft Visual Studio\2019\Community\VC\Tools\MSVC\14.27.29110\include\sstream

; 129  :         if (_Oldsize < _MINSIZE) {

  0006a	1b db		 sbb	 ebx, ebx
  0006c	23 d9		 and	 ebx, ecx
  0006e	83 fb 20	 cmp	 ebx, 32			; 00000020H
  00071	73 07		 jae	 SHORT $LN6@overflow

; 130  :             _Newsize = _MINSIZE;

  00073	b8 20 00 00 00	 mov	 eax, 32			; 00000020H
  00078	eb 1e		 jmp	 SHORT $LN47@overflow
$LN6@overflow:

; 131  :         } else if (_Oldsize < INT_MAX / 2) { // grow by 50 percent

  0007a	81 fb ff ff ff
	3f		 cmp	 ebx, 1073741823		; 3fffffffH
  00080	73 05		 jae	 SHORT $LN8@overflow

; 132  :             _Newsize = _Oldsize << 1;

  00082	8d 04 1b	 lea	 eax, DWORD PTR [ebx+ebx]
  00085	eb 11		 jmp	 SHORT $LN47@overflow
$LN8@overflow:

; 133  :         } else if (_Oldsize < INT_MAX) {

  00087	81 fb ff ff ff
	7f		 cmp	 ebx, 2147483647		; 7fffffffH
  0008d	0f 83 ae 00 00
	00		 jae	 $LN10@overflow

; 134  :             _Newsize = INT_MAX;

  00093	b8 ff ff ff 7f	 mov	 eax, 2147483647		; 7fffffffH
$LN47@overflow:
; File C:\Program Files (x86)\Microsoft Visual Studio\2019\Community\VC\Tools\MSVC\14.27.29110\include\xmemory

; 807  :         return static_cast<_Ty*>(_Allocate<_New_alignof<_Ty>>(_Get_size_of_n<sizeof(_Ty)>(_Count)));

  00098	50		 push	 eax
  00099	89 45 fc	 mov	 DWORD PTR __Newsize$1$[ebp], eax
  0009c	e8 00 00 00 00	 call	 ??$_Allocate@$07U_Default_allocate_traits@std@@$0A@@std@@YAPAXI@Z ; std::_Allocate<8,std::_Default_allocate_traits,0>
; File C:\Program Files (x86)\Microsoft Visual Studio\2019\Community\VC\Tools\MSVC\14.27.29110\include\xstring

; 328  :         return static_cast<_Elem*>(_CSTD memcpy(_First1, _First2, _Count));

  000a1	53		 push	 ebx
  000a2	ff 75 f8	 push	 DWORD PTR __Oldptr$1$[ebp]
; File C:\Program Files (x86)\Microsoft Visual Studio\2019\Community\VC\Tools\MSVC\14.27.29110\include\sstream

; 139  :         const auto _Newptr = _Unfancy(_Al.allocate(_Newsize));

  000a5	8b f0		 mov	 esi, eax
; File C:\Program Files (x86)\Microsoft Visual Studio\2019\Community\VC\Tools\MSVC\14.27.29110\include\xstring

; 328  :         return static_cast<_Elem*>(_CSTD memcpy(_First1, _First2, _Count));

  000a7	56		 push	 esi
  000a8	e8 00 00 00 00	 call	 _memcpy
; File C:\Program Files (x86)\Microsoft Visual Studio\2019\Community\VC\Tools\MSVC\14.27.29110\include\streambuf

; 247  :         *_IPfirst = _First;

  000ad	8b 47 10	 mov	 eax, DWORD PTR [edi+16]
; File C:\Program Files (x86)\Microsoft Visual Studio\2019\Community\VC\Tools\MSVC\14.27.29110\include\sstream

; 142  :         const auto _New_pnext = _Newptr + _Oldsize;

  000b0	8d 14 33	 lea	 edx, DWORD PTR [ebx+esi]

; 143  :         _Seekhigh             = _New_pnext + 1; // to include _Meta

  000b3	8d 4a 01	 lea	 ecx, DWORD PTR [edx+1]
; File C:\Program Files (x86)\Microsoft Visual Studio\2019\Community\VC\Tools\MSVC\14.27.29110\include\xstring

; 328  :         return static_cast<_Elem*>(_CSTD memcpy(_First1, _First2, _Count));

  000b6	83 c4 10	 add	 esp, 16			; 00000010H
; File C:\Program Files (x86)\Microsoft Visual Studio\2019\Community\VC\Tools\MSVC\14.27.29110\include\sstream

; 143  :         _Seekhigh             = _New_pnext + 1; // to include _Meta

  000b9	89 4f 38	 mov	 DWORD PTR [edi+56], ecx
; File C:\Program Files (x86)\Microsoft Visual Studio\2019\Community\VC\Tools\MSVC\14.27.29110\include\streambuf

; 249  :         *_IPcount = static_cast<int>(_Last - _Next);

  000bc	8b ce		 mov	 ecx, esi
  000be	2b ca		 sub	 ecx, edx
  000c0	03 4d fc	 add	 ecx, DWORD PTR __Newsize$1$[ebp]
  000c3	89 30		 mov	 DWORD PTR [eax], esi
  000c5	8b 47 20	 mov	 eax, DWORD PTR [edi+32]
  000c8	89 10		 mov	 DWORD PTR [eax], edx
  000ca	8b 47 30	 mov	 eax, DWORD PTR [edi+48]
  000cd	89 08		 mov	 DWORD PTR [eax], ecx
; File C:\Program Files (x86)\Microsoft Visual Studio\2019\Community\VC\Tools\MSVC\14.27.29110\include\sstream

; 146  :         if (_Mystate & _Noread) { // maintain eback() == allocated pointer invariant

  000cf	f6 47 3c 04	 test	 BYTE PTR [edi+60], 4
  000d3	74 15		 je	 SHORT $LN12@overflow
; File C:\Program Files (x86)\Microsoft Visual Studio\2019\Community\VC\Tools\MSVC\14.27.29110\include\streambuf

; 206  :         *_IGfirst = _First;

  000d5	8b 47 0c	 mov	 eax, DWORD PTR [edi+12]
  000d8	89 30		 mov	 DWORD PTR [eax], esi

; 207  :         *_IGnext  = _Next;

  000da	8b 47 1c	 mov	 eax, DWORD PTR [edi+28]
  000dd	c7 00 00 00 00
	00		 mov	 DWORD PTR [eax], 0

; 208  :         *_IGcount = static_cast<int>(_Last - _Next);

  000e3	8b 47 2c	 mov	 eax, DWORD PTR [edi+44]
  000e6	89 30		 mov	 DWORD PTR [eax], esi
; File C:\Program Files (x86)\Microsoft Visual Studio\2019\Community\VC\Tools\MSVC\14.27.29110\include\sstream

; 148  :         } else { // if readable, set the get area to initialized region

  000e8	eb 1e		 jmp	 SHORT $LN13@overflow
$LN12@overflow:
; File C:\Program Files (x86)\Microsoft Visual Studio\2019\Community\VC\Tools\MSVC\14.27.29110\include\streambuf

; 185  :         return *_IGnext;

  000ea	8b 47 1c	 mov	 eax, DWORD PTR [edi+28]
; File C:\Program Files (x86)\Microsoft Visual Studio\2019\Community\VC\Tools\MSVC\14.27.29110\include\sstream

; 149  :             _Mysb::setg(_Newptr, _Newptr + (_Mysb::gptr() - _Oldptr), _Seekhigh);

  000ed	8b 57 38	 mov	 edx, DWORD PTR [edi+56]
; File C:\Program Files (x86)\Microsoft Visual Studio\2019\Community\VC\Tools\MSVC\14.27.29110\include\streambuf

; 185  :         return *_IGnext;

  000f0	8b 08		 mov	 ecx, DWORD PTR [eax]

; 206  :         *_IGfirst = _First;

  000f2	8b 47 0c	 mov	 eax, DWORD PTR [edi+12]

; 185  :         return *_IGnext;

  000f5	2b 4d f8	 sub	 ecx, DWORD PTR __Oldptr$1$[ebp]
; File C:\Program Files (x86)\Microsoft Visual Studio\2019\Community\VC\Tools\MSVC\14.27.29110\include\sstream

; 149  :             _Mysb::setg(_Newptr, _Newptr + (_Mysb::gptr() - _Oldptr), _Seekhigh);

  000f8	03 ce		 add	 ecx, esi
; File C:\Program Files (x86)\Microsoft Visual Studio\2019\Community\VC\Tools\MSVC\14.27.29110\include\streambuf

; 208  :         *_IGcount = static_cast<int>(_Last - _Next);

  000fa	2b d1		 sub	 edx, ecx
  000fc	89 30		 mov	 DWORD PTR [eax], esi
  000fe	8b 47 1c	 mov	 eax, DWORD PTR [edi+28]
  00101	89 08		 mov	 DWORD PTR [eax], ecx
  00103	8b 47 2c	 mov	 eax, DWORD PTR [edi+44]
  00106	89 10		 mov	 DWORD PTR [eax], edx
$LN13@overflow:
; File C:\Program Files (x86)\Microsoft Visual Studio\2019\Community\VC\Tools\MSVC\14.27.29110\include\sstream

; 152  :         if (_Mystate & _Allocated) {

  00108	8b 47 3c	 mov	 eax, DWORD PTR [edi+60]
  0010b	a8 01		 test	 al, 1
  0010d	74 0f		 je	 SHORT $LN14@overflow
; File C:\Program Files (x86)\Microsoft Visual Studio\2019\Community\VC\Tools\MSVC\14.27.29110\include\xmemory

; 803  :         _Deallocate<_New_alignof<_Ty>>(_Ptr, sizeof(_Ty) * _Count);

  0010f	53		 push	 ebx
  00110	ff 75 f8	 push	 DWORD PTR __Oldptr$1$[ebp]
  00113	e8 00 00 00 00	 call	 ??$_Deallocate@$07$0A@@std@@YAXPAXI@Z ; std::_Deallocate<8,0>
  00118	8b 47 3c	 mov	 eax, DWORD PTR [edi+60]
  0011b	83 c4 08	 add	 esp, 8
$LN14@overflow:
; File C:\Program Files (x86)\Microsoft Visual Studio\2019\Community\VC\Tools\MSVC\14.27.29110\include\sstream

; 156  :         _Mystate |= _Allocated;

  0011e	83 c8 01	 or	 eax, 1
  00121	89 47 3c	 mov	 DWORD PTR [edi+60], eax
; File C:\Program Files (x86)\Microsoft Visual Studio\2019\Community\VC\Tools\MSVC\14.27.29110\include\streambuf

; 253  :         --*_IPcount;

  00124	8b 47 30	 mov	 eax, DWORD PTR [edi+48]
  00127	ff 08		 dec	 DWORD PTR [eax]

; 254  :         return (*_IPnext)++;

  00129	8b 4f 20	 mov	 ecx, DWORD PTR [edi+32]
  0012c	5f		 pop	 edi
; File C:\Program Files (x86)\Microsoft Visual Studio\2019\Community\VC\Tools\MSVC\14.27.29110\include\sstream

; 159  :     }

  0012d	5e		 pop	 esi
  0012e	5b		 pop	 ebx
; File C:\Program Files (x86)\Microsoft Visual Studio\2019\Community\VC\Tools\MSVC\14.27.29110\include\streambuf

; 254  :         return (*_IPnext)++;

  0012f	8b 11		 mov	 edx, DWORD PTR [ecx]
  00131	8d 42 01	 lea	 eax, DWORD PTR [edx+1]
  00134	89 01		 mov	 DWORD PTR [ecx], eax
; File C:\Program Files (x86)\Microsoft Visual Studio\2019\Community\VC\Tools\MSVC\14.27.29110\include\sstream

; 157  :         *_Mysb::_Pninc() = _Traits::to_char_type(_Meta);

  00136	8b 45 08	 mov	 eax, DWORD PTR __Meta$[ebp]
  00139	88 02		 mov	 BYTE PTR [edx], al

; 159  :     }

  0013b	8b e5		 mov	 esp, ebp
  0013d	5d		 pop	 ebp
  0013e	c2 04 00	 ret	 4
$LN10@overflow:
  00141	5f		 pop	 edi
  00142	5e		 pop	 esi
  00143	83 c8 ff	 or	 eax, -1
  00146	5b		 pop	 ebx
  00147	8b e5		 mov	 esp, ebp
  00149	5d		 pop	 ebp
  0014a	c2 04 00	 ret	 4
?overflow@?$basic_stringbuf@DU?$char_traits@D@std@@V?$allocator@D@2@@std@@MAEHH@Z ENDP ; std::basic_stringbuf<char,std::char_traits<char>,std::allocator<char> >::overflow
_TEXT	ENDS
; Function compile flags: /Ogtp
; File C:\Program Files (x86)\Microsoft Visual Studio\2019\Community\VC\Tools\MSVC\14.27.29110\include\sstream
; File C:\Program Files (x86)\Microsoft Visual Studio\2019\Community\VC\Tools\MSVC\14.27.29110\include\streambuf
; File C:\Program Files (x86)\Microsoft Visual Studio\2019\Community\VC\Tools\MSVC\14.27.29110\include\sstream
; File C:\Program Files (x86)\Microsoft Visual Studio\2019\Community\VC\Tools\MSVC\14.27.29110\include\streambuf
; File C:\Program Files (x86)\Microsoft Visual Studio\2019\Community\VC\Tools\MSVC\14.27.29110\include\sstream
; File C:\Program Files (x86)\Microsoft Visual Studio\2019\Community\VC\Tools\MSVC\14.27.29110\include\streambuf
; File C:\Program Files (x86)\Microsoft Visual Studio\2019\Community\VC\Tools\MSVC\14.27.29110\include\sstream
; File C:\Program Files (x86)\Microsoft Visual Studio\2019\Community\VC\Tools\MSVC\14.27.29110\include\xmemory
; File C:\Program Files (x86)\Microsoft Visual Studio\2019\Community\VC\Tools\MSVC\14.27.29110\include\streambuf
; File C:\Program Files (x86)\Microsoft Visual Studio\2019\Community\VC\Tools\MSVC\14.27.29110\include\sstream
; File C:\Program Files (x86)\Microsoft Visual Studio\2019\Community\VC\Tools\MSVC\14.27.29110\include\streambuf
; File C:\Program Files (x86)\Microsoft Visual Studio\2019\Community\VC\Tools\MSVC\14.27.29110\include\xlocale
; File C:\Program Files (x86)\Microsoft Visual Studio\2019\Community\VC\Tools\MSVC\14.27.29110\include\sstream
;	COMDAT ??1?$basic_stringbuf@DU?$char_traits@D@std@@V?$allocator@D@2@@std@@UAE@XZ
_TEXT	SEGMENT
??1?$basic_stringbuf@DU?$char_traits@D@std@@V?$allocator@D@2@@std@@UAE@XZ PROC ; std::basic_stringbuf<char,std::char_traits<char>,std::allocator<char> >::~basic_stringbuf<char,std::char_traits<char>,std::allocator<char> >, COMDAT
; _this$ = ecx

; 69   :     virtual ~basic_stringbuf() noexcept {

  00000	56		 push	 esi
  00001	8b f1		 mov	 esi, ecx

; 330  :         if (_Mystate & _Allocated) {

  00003	f6 46 3c 01	 test	 BYTE PTR [esi+60], 1

; 69   :     virtual ~basic_stringbuf() noexcept {

  00007	c7 06 00 00 00
	00		 mov	 DWORD PTR [esi], OFFSET ??_7?$basic_stringbuf@DU?$char_traits@D@std@@V?$allocator@D@2@@std@@6B@

; 330  :         if (_Mystate & _Allocated) {

  0000d	74 2d		 je	 SHORT $LN4@basic_stri
; File C:\Program Files (x86)\Microsoft Visual Studio\2019\Community\VC\Tools\MSVC\14.27.29110\include\streambuf

; 193  :         return *_IPnext;

  0000f	8b 46 20	 mov	 eax, DWORD PTR [esi+32]
; File C:\Program Files (x86)\Microsoft Visual Studio\2019\Community\VC\Tools\MSVC\14.27.29110\include\sstream

; 331  :             _Al.deallocate(_Ptr_traits::pointer_to(*_Mysb::eback()),

  00012	8b 08		 mov	 ecx, DWORD PTR [eax]
  00014	85 c9		 test	 ecx, ecx
  00016	74 09		 je	 SHORT $LN6@basic_stri
; File C:\Program Files (x86)\Microsoft Visual Studio\2019\Community\VC\Tools\MSVC\14.27.29110\include\streambuf

; 212  :         return *_IPnext + *_IPcount;

  00018	8b 46 30	 mov	 eax, DWORD PTR [esi+48]
  0001b	8b 10		 mov	 edx, DWORD PTR [eax]
  0001d	03 d1		 add	 edx, ecx
; File C:\Program Files (x86)\Microsoft Visual Studio\2019\Community\VC\Tools\MSVC\14.27.29110\include\sstream

; 331  :             _Al.deallocate(_Ptr_traits::pointer_to(*_Mysb::eback()),

  0001f	eb 0a		 jmp	 SHORT $LN7@basic_stri
$LN6@basic_stri:
; File C:\Program Files (x86)\Microsoft Visual Studio\2019\Community\VC\Tools\MSVC\14.27.29110\include\streambuf

; 197  :         return *_IGnext + *_IGcount;

  00021	8b 46 2c	 mov	 eax, DWORD PTR [esi+44]
  00024	8b 4e 1c	 mov	 ecx, DWORD PTR [esi+28]
  00027	8b 10		 mov	 edx, DWORD PTR [eax]
  00029	03 11		 add	 edx, DWORD PTR [ecx]
$LN7@basic_stri:

; 181  :         return *_IGfirst;

  0002b	8b 46 0c	 mov	 eax, DWORD PTR [esi+12]
; File C:\Program Files (x86)\Microsoft Visual Studio\2019\Community\VC\Tools\MSVC\14.27.29110\include\sstream

; 331  :             _Al.deallocate(_Ptr_traits::pointer_to(*_Mysb::eback()),

  0002e	8b 00		 mov	 eax, DWORD PTR [eax]
  00030	2b d0		 sub	 edx, eax
; File C:\Program Files (x86)\Microsoft Visual Studio\2019\Community\VC\Tools\MSVC\14.27.29110\include\xmemory

; 803  :         _Deallocate<_New_alignof<_Ty>>(_Ptr, sizeof(_Ty) * _Count);

  00032	52		 push	 edx
  00033	50		 push	 eax
  00034	e8 00 00 00 00	 call	 ??$_Deallocate@$07$0A@@std@@YAXPAXI@Z ; std::_Deallocate<8,0>
  00039	83 c4 08	 add	 esp, 8
$LN4@basic_stri:
; File C:\Program Files (x86)\Microsoft Visual Studio\2019\Community\VC\Tools\MSVC\14.27.29110\include\streambuf

; 206  :         *_IGfirst = _First;

  0003c	8b 46 0c	 mov	 eax, DWORD PTR [esi+12]
  0003f	c7 00 00 00 00
	00		 mov	 DWORD PTR [eax], 0

; 207  :         *_IGnext  = _Next;

  00045	8b 46 1c	 mov	 eax, DWORD PTR [esi+28]
  00048	c7 00 00 00 00
	00		 mov	 DWORD PTR [eax], 0

; 208  :         *_IGcount = static_cast<int>(_Last - _Next);

  0004e	8b 46 2c	 mov	 eax, DWORD PTR [esi+44]
  00051	c7 00 00 00 00
	00		 mov	 DWORD PTR [eax], 0

; 240  :         *_IPfirst = _First;

  00057	8b 46 10	 mov	 eax, DWORD PTR [esi+16]
  0005a	c7 00 00 00 00
	00		 mov	 DWORD PTR [eax], 0

; 241  :         *_IPnext  = _First;

  00060	8b 46 20	 mov	 eax, DWORD PTR [esi+32]
  00063	c7 00 00 00 00
	00		 mov	 DWORD PTR [eax], 0

; 242  :         *_IPcount = static_cast<int>(_Last - _First);

  00069	8b 46 30	 mov	 eax, DWORD PTR [esi+48]
  0006c	c7 00 00 00 00
	00		 mov	 DWORD PTR [eax], 0
; File C:\Program Files (x86)\Microsoft Visual Studio\2019\Community\VC\Tools\MSVC\14.27.29110\include\sstream

; 339  :         _Mystate &= ~_Allocated;

  00072	83 66 3c fe	 and	 DWORD PTR [esi+60], -2	; fffffffeH
  00076	c7 46 38 00 00
	00 00		 mov	 DWORD PTR [esi+56], 0
; File C:\Program Files (x86)\Microsoft Visual Studio\2019\Community\VC\Tools\MSVC\14.27.29110\include\streambuf

; 69   :     virtual __CLR_OR_THIS_CALL ~basic_streambuf() noexcept {

  0007d	c7 06 00 00 00
	00		 mov	 DWORD PTR [esi], OFFSET ??_7?$basic_streambuf@DU?$char_traits@D@std@@@std@@6B@

; 70   :         delete _Plocale;

  00083	8b 76 34	 mov	 esi, DWORD PTR [esi+52]
  00086	85 f6		 test	 esi, esi
  00088	74 23		 je	 SHORT $LN29@basic_stri
; File C:\Program Files (x86)\Microsoft Visual Studio\2019\Community\VC\Tools\MSVC\14.27.29110\include\xlocale

; 351  :         if (_Ptr) {

  0008a	8b 4e 04	 mov	 ecx, DWORD PTR [esi+4]
  0008d	85 c9		 test	 ecx, ecx
  0008f	74 11		 je	 SHORT $LN34@basic_stri

; 352  :             delete _Ptr->_Decref();

  00091	8b 01		 mov	 eax, DWORD PTR [ecx]
  00093	ff 50 08	 call	 DWORD PTR [eax+8]
  00096	85 c0		 test	 eax, eax
  00098	74 08		 je	 SHORT $LN34@basic_stri
  0009a	8b 10		 mov	 edx, DWORD PTR [eax]
  0009c	8b c8		 mov	 ecx, eax
  0009e	6a 01		 push	 1
  000a0	ff 12		 call	 DWORD PTR [edx]
$LN34@basic_stri:
  000a2	6a 08		 push	 8
  000a4	56		 push	 esi
  000a5	e8 00 00 00 00	 call	 ??3@YAXPAXI@Z		; operator delete
  000aa	83 c4 08	 add	 esp, 8
$LN29@basic_stri:
  000ad	5e		 pop	 esi
; File C:\Program Files (x86)\Microsoft Visual Studio\2019\Community\VC\Tools\MSVC\14.27.29110\include\sstream

; 71   :     }

  000ae	c3		 ret	 0
??1?$basic_stringbuf@DU?$char_traits@D@std@@V?$allocator@D@2@@std@@UAE@XZ ENDP ; std::basic_stringbuf<char,std::char_traits<char>,std::allocator<char> >::~basic_stringbuf<char,std::char_traits<char>,std::allocator<char> >
_TEXT	ENDS
; Function compile flags: /Ogtp
; File C:\Program Files (x86)\Microsoft Visual Studio\2019\Community\VC\Tools\MSVC\14.27.29110\include\streambuf
; File C:\Program Files (x86)\Microsoft Visual Studio\2019\Community\VC\Tools\MSVC\14.27.29110\include\xlocale
;	COMDAT ??_G?$basic_streambuf@DU?$char_traits@D@std@@@std@@UAEPAXI@Z
_TEXT	SEGMENT
___flags$ = 8						; size = 4
??_G?$basic_streambuf@DU?$char_traits@D@std@@@std@@UAEPAXI@Z PROC ; std::basic_streambuf<char,std::char_traits<char> >::`scalar deleting destructor', COMDAT
; _this$ = ecx
  00000	55		 push	 ebp
  00001	8b ec		 mov	 ebp, esp
; File C:\Program Files (x86)\Microsoft Visual Studio\2019\Community\VC\Tools\MSVC\14.27.29110\include\streambuf

; 69   :     virtual __CLR_OR_THIS_CALL ~basic_streambuf() noexcept {

  00003	56		 push	 esi
  00004	8b f1		 mov	 esi, ecx
  00006	57		 push	 edi

; 70   :         delete _Plocale;

  00007	8b 7e 34	 mov	 edi, DWORD PTR [esi+52]
  0000a	c7 06 00 00 00
	00		 mov	 DWORD PTR [esi], OFFSET ??_7?$basic_streambuf@DU?$char_traits@D@std@@@std@@6B@
  00010	85 ff		 test	 edi, edi
  00012	74 23		 je	 SHORT $LN9@scalar
; File C:\Program Files (x86)\Microsoft Visual Studio\2019\Community\VC\Tools\MSVC\14.27.29110\include\xlocale

; 351  :         if (_Ptr) {

  00014	8b 4f 04	 mov	 ecx, DWORD PTR [edi+4]
  00017	85 c9		 test	 ecx, ecx
  00019	74 11		 je	 SHORT $LN14@scalar

; 352  :             delete _Ptr->_Decref();

  0001b	8b 01		 mov	 eax, DWORD PTR [ecx]
  0001d	ff 50 08	 call	 DWORD PTR [eax+8]
  00020	85 c0		 test	 eax, eax
  00022	74 08		 je	 SHORT $LN14@scalar
  00024	8b 10		 mov	 edx, DWORD PTR [eax]
  00026	8b c8		 mov	 ecx, eax
  00028	6a 01		 push	 1
  0002a	ff 12		 call	 DWORD PTR [edx]
$LN14@scalar:
  0002c	6a 08		 push	 8
  0002e	57		 push	 edi
  0002f	e8 00 00 00 00	 call	 ??3@YAXPAXI@Z		; operator delete
  00034	83 c4 08	 add	 esp, 8
$LN9@scalar:
  00037	f6 45 08 01	 test	 BYTE PTR ___flags$[ebp], 1
  0003b	74 0b		 je	 SHORT $LN16@scalar
  0003d	6a 38		 push	 56			; 00000038H
  0003f	56		 push	 esi
  00040	e8 00 00 00 00	 call	 ??3@YAXPAXI@Z		; operator delete
  00045	83 c4 08	 add	 esp, 8
$LN16@scalar:
  00048	5f		 pop	 edi
  00049	8b c6		 mov	 eax, esi
  0004b	5e		 pop	 esi
  0004c	5d		 pop	 ebp
  0004d	c2 04 00	 ret	 4
??_G?$basic_streambuf@DU?$char_traits@D@std@@@std@@UAEPAXI@Z ENDP ; std::basic_streambuf<char,std::char_traits<char> >::`scalar deleting destructor'
_TEXT	ENDS
; Function compile flags: /Ogtp
; File C:\Program Files (x86)\Microsoft Visual Studio\2019\Community\VC\Tools\MSVC\14.27.29110\include\streambuf
;	COMDAT ?imbue@?$basic_streambuf@DU?$char_traits@D@std@@@std@@MAEXABVlocale@2@@Z
_TEXT	SEGMENT
___formal$ = 8						; size = 4
?imbue@?$basic_streambuf@DU?$char_traits@D@std@@@std@@MAEXABVlocale@2@@Z PROC ; std::basic_streambuf<char,std::char_traits<char> >::imbue, COMDAT
; _this$ = ecx

; 377  :     virtual void __CLR_OR_THIS_CALL imbue(const locale&) {} // set locale to argument (do nothing)

  00000	c2 04 00	 ret	 4
?imbue@?$basic_streambuf@DU?$char_traits@D@std@@@std@@MAEXABVlocale@2@@Z ENDP ; std::basic_streambuf<char,std::char_traits<char> >::imbue
_TEXT	ENDS
; Function compile flags: /Ogtp
; File C:\Program Files (x86)\Microsoft Visual Studio\2019\Community\VC\Tools\MSVC\14.27.29110\include\streambuf
;	COMDAT ?sync@?$basic_streambuf@DU?$char_traits@D@std@@@std@@MAEHXZ
_TEXT	SEGMENT
?sync@?$basic_streambuf@DU?$char_traits@D@std@@@std@@MAEHXZ PROC ; std::basic_streambuf<char,std::char_traits<char> >::sync, COMDAT
; _this$ = ecx

; 374  :         return 0;

  00000	33 c0		 xor	 eax, eax

; 375  :     }

  00002	c3		 ret	 0
?sync@?$basic_streambuf@DU?$char_traits@D@std@@@std@@MAEHXZ ENDP ; std::basic_streambuf<char,std::char_traits<char> >::sync
_TEXT	ENDS
; Function compile flags: /Ogtp
; File C:\Program Files (x86)\Microsoft Visual Studio\2019\Community\VC\Tools\MSVC\14.27.29110\include\streambuf
;	COMDAT ?setbuf@?$basic_streambuf@DU?$char_traits@D@std@@@std@@MAEPAV12@PAD_J@Z
_TEXT	SEGMENT
___formal$ = 8						; size = 4
___formal$ = 12						; size = 8
?setbuf@?$basic_streambuf@DU?$char_traits@D@std@@@std@@MAEPAV12@PAD_J@Z PROC ; std::basic_streambuf<char,std::char_traits<char> >::setbuf, COMDAT
; _this$ = ecx

; 369  :         // offer buffer to external agent (do nothing)
; 370  :         return this;

  00000	8b c1		 mov	 eax, ecx

; 371  :     }

  00002	c2 0c 00	 ret	 12			; 0000000cH
?setbuf@?$basic_streambuf@DU?$char_traits@D@std@@@std@@MAEPAV12@PAD_J@Z ENDP ; std::basic_streambuf<char,std::char_traits<char> >::setbuf
_TEXT	ENDS
; Function compile flags: /Ogtp
; File C:\Program Files (x86)\Microsoft Visual Studio\2019\Community\VC\Tools\MSVC\14.27.29110\include\streambuf
; File C:\Program Files (x86)\Microsoft Visual Studio\2019\Community\VC\Tools\MSVC\14.27.29110\include\iosfwd
; File C:\Program Files (x86)\Microsoft Visual Studio\2019\Community\VC\Tools\MSVC\14.27.29110\include\streambuf
;	COMDAT ?seekpos@?$basic_streambuf@DU?$char_traits@D@std@@@std@@MAE?AV?$fpos@U_Mbstatet@@@2@V32@H@Z
_TEXT	SEGMENT
___$ReturnUdt$ = 8					; size = 4
___formal$ = 12						; size = 24
___formal$ = 36						; size = 4
?seekpos@?$basic_streambuf@DU?$char_traits@D@std@@@std@@MAE?AV?$fpos@U_Mbstatet@@@2@V32@H@Z PROC ; std::basic_streambuf<char,std::char_traits<char> >::seekpos, COMDAT
; _this$ = ecx

; 363  :     virtual pos_type __CLR_OR_THIS_CALL seekpos(pos_type, ios_base::openmode = ios_base::in | ios_base::out) {

  00000	55		 push	 ebp
  00001	8b ec		 mov	 ebp, esp
; File C:\Program Files (x86)\Microsoft Visual Studio\2019\Community\VC\Tools\MSVC\14.27.29110\include\iosfwd

; 55   :     /* implicit */ fpos(streamoff _Off = 0) : _Myoff(_Off), _Fpos(0), _Mystate() {}

  00003	8b 45 08	 mov	 eax, DWORD PTR ___$ReturnUdt$[ebp]
  00006	0f 57 c0	 xorps	 xmm0, xmm0
  00009	c7 00 ff ff ff
	ff		 mov	 DWORD PTR [eax], -1
  0000f	c7 40 04 ff ff
	ff ff		 mov	 DWORD PTR [eax+4], -1
  00016	c7 40 08 00 00
	00 00		 mov	 DWORD PTR [eax+8], 0
  0001d	c7 40 0c 00 00
	00 00		 mov	 DWORD PTR [eax+12], 0
  00024	66 0f d6 40 10	 movq	 QWORD PTR [eax+16], xmm0
; File C:\Program Files (x86)\Microsoft Visual Studio\2019\Community\VC\Tools\MSVC\14.27.29110\include\streambuf

; 366  :     }

  00029	5d		 pop	 ebp
  0002a	c2 20 00	 ret	 32			; 00000020H
?seekpos@?$basic_streambuf@DU?$char_traits@D@std@@@std@@MAE?AV?$fpos@U_Mbstatet@@@2@V32@H@Z ENDP ; std::basic_streambuf<char,std::char_traits<char> >::seekpos
_TEXT	ENDS
; Function compile flags: /Ogtp
; File C:\Program Files (x86)\Microsoft Visual Studio\2019\Community\VC\Tools\MSVC\14.27.29110\include\streambuf
; File C:\Program Files (x86)\Microsoft Visual Studio\2019\Community\VC\Tools\MSVC\14.27.29110\include\iosfwd
; File C:\Program Files (x86)\Microsoft Visual Studio\2019\Community\VC\Tools\MSVC\14.27.29110\include\streambuf
;	COMDAT ?seekoff@?$basic_streambuf@DU?$char_traits@D@std@@@std@@MAE?AV?$fpos@U_Mbstatet@@@2@_JHH@Z
_TEXT	SEGMENT
___$ReturnUdt$ = 8					; size = 4
___formal$ = 12						; size = 8
___formal$ = 20						; size = 4
___formal$ = 24						; size = 4
?seekoff@?$basic_streambuf@DU?$char_traits@D@std@@@std@@MAE?AV?$fpos@U_Mbstatet@@@2@_JHH@Z PROC ; std::basic_streambuf<char,std::char_traits<char> >::seekoff, COMDAT
; _this$ = ecx

; 358  :         off_type, ios_base::seekdir, ios_base::openmode = ios_base::in | ios_base::out) {

  00000	55		 push	 ebp
  00001	8b ec		 mov	 ebp, esp
; File C:\Program Files (x86)\Microsoft Visual Studio\2019\Community\VC\Tools\MSVC\14.27.29110\include\iosfwd

; 55   :     /* implicit */ fpos(streamoff _Off = 0) : _Myoff(_Off), _Fpos(0), _Mystate() {}

  00003	8b 45 08	 mov	 eax, DWORD PTR ___$ReturnUdt$[ebp]
  00006	0f 57 c0	 xorps	 xmm0, xmm0
  00009	c7 00 ff ff ff
	ff		 mov	 DWORD PTR [eax], -1
  0000f	c7 40 04 ff ff
	ff ff		 mov	 DWORD PTR [eax+4], -1
  00016	c7 40 08 00 00
	00 00		 mov	 DWORD PTR [eax+8], 0
  0001d	c7 40 0c 00 00
	00 00		 mov	 DWORD PTR [eax+12], 0
  00024	66 0f d6 40 10	 movq	 QWORD PTR [eax+16], xmm0
; File C:\Program Files (x86)\Microsoft Visual Studio\2019\Community\VC\Tools\MSVC\14.27.29110\include\streambuf

; 361  :     }

  00029	5d		 pop	 ebp
  0002a	c2 14 00	 ret	 20			; 00000014H
?seekoff@?$basic_streambuf@DU?$char_traits@D@std@@@std@@MAE?AV?$fpos@U_Mbstatet@@@2@_JHH@Z ENDP ; std::basic_streambuf<char,std::char_traits<char> >::seekoff
_TEXT	ENDS
; Function compile flags: /Ogtp
; File C:\Program Files (x86)\Microsoft Visual Studio\2019\Community\VC\Tools\MSVC\14.27.29110\include\streambuf
; File C:\Program Files (x86)\Microsoft Visual Studio\2019\Community\VC\Tools\MSVC\14.27.29110\include\xstring
; File C:\Program Files (x86)\Microsoft Visual Studio\2019\Community\VC\Tools\MSVC\14.27.29110\include\streambuf
; File C:\Program Files (x86)\Microsoft Visual Studio\2019\Community\VC\Tools\MSVC\14.27.29110\include\xstring
; File C:\Program Files (x86)\Microsoft Visual Studio\2019\Community\VC\Tools\MSVC\14.27.29110\include\streambuf
; File C:\Program Files (x86)\Microsoft Visual Studio\2019\Community\VC\Tools\MSVC\14.27.29110\include\xstring
; File C:\Program Files (x86)\Microsoft Visual Studio\2019\Community\VC\Tools\MSVC\14.27.29110\include\streambuf
; File C:\Program Files (x86)\Microsoft Visual Studio\2019\Community\VC\Tools\MSVC\14.27.29110\include\xstring
; File C:\Program Files (x86)\Microsoft Visual Studio\2019\Community\VC\Tools\MSVC\14.27.29110\include\streambuf
; File C:\Program Files (x86)\Microsoft Visual Studio\2019\Community\VC\Tools\MSVC\14.27.29110\include\xstring
; File C:\Program Files (x86)\Microsoft Visual Studio\2019\Community\VC\Tools\MSVC\14.27.29110\include\streambuf
; File C:\Program Files (x86)\Microsoft Visual Studio\2019\Community\VC\Tools\MSVC\14.27.29110\include\xstring
; File C:\Program Files (x86)\Microsoft Visual Studio\2019\Community\VC\Tools\MSVC\14.27.29110\include\streambuf
;	COMDAT ?xsputn@?$basic_streambuf@DU?$char_traits@D@std@@@std@@MAE_JPBD_J@Z
_TEXT	SEGMENT
__Start_count$2$ = -12					; size = 4
__Start_count$1$ = -8					; size = 4
_this$1$ = -4						; size = 4
__Ptr$ = 8						; size = 4
__Count$ = 12						; size = 8
__Size$2$ = 16						; size = 4
?xsputn@?$basic_streambuf@DU?$char_traits@D@std@@@std@@MAE_JPBD_J@Z PROC ; std::basic_streambuf<char,std::char_traits<char> >::xsputn, COMDAT
; _this$ = ecx

; 332  :     virtual streamsize __CLR_OR_THIS_CALL xsputn(const _Elem* _Ptr, streamsize _Count) {

  00000	55		 push	 ebp
  00001	8b ec		 mov	 ebp, esp
  00003	83 ec 0c	 sub	 esp, 12			; 0000000cH
  00006	53		 push	 ebx

; 333  :         // put _Count characters to stream
; 334  :         const streamsize _Start_count = _Count;

  00007	8b 5d 10	 mov	 ebx, DWORD PTR __Count$[ebp+4]
  0000a	8b d3		 mov	 edx, ebx
  0000c	89 4d fc	 mov	 DWORD PTR _this$1$[ebp], ecx
  0000f	89 55 f4	 mov	 DWORD PTR __Start_count$2$[ebp], edx
  00012	57		 push	 edi
  00013	8b 7d 0c	 mov	 edi, DWORD PTR __Count$[ebp]
  00016	8b c7		 mov	 eax, edi
  00018	89 45 f8	 mov	 DWORD PTR __Start_count$1$[ebp], eax

; 335  :         while (0 < _Count) {

  0001b	85 db		 test	 ebx, ebx
  0001d	0f 8c 91 00 00
	00		 jl	 $LN27@xsputn
  00023	7f 08		 jg	 SHORT $LN31@xsputn
  00025	85 ff		 test	 edi, edi
  00027	0f 84 87 00 00
	00		 je	 $LN27@xsputn
$LN31@xsputn:
  0002d	56		 push	 esi
  0002e	66 90		 npad	 2
$LL2@xsputn:

; 336  :             streamsize _Size = _Pnavail();

  00030	e8 00 00 00 00	 call	 ?_Pnavail@?$basic_streambuf@DU?$char_traits@D@std@@@std@@IBE_JXZ ; std::basic_streambuf<char,std::char_traits<char> >::_Pnavail
  00035	8b f0		 mov	 esi, eax
  00037	8b c2		 mov	 eax, edx
  00039	89 45 10	 mov	 DWORD PTR __Size$2$[ebp], eax

; 337  :             if (0 < _Size) { // copy to write buffer

  0003c	85 c0		 test	 eax, eax
  0003e	7c 3e		 jl	 SHORT $LN4@xsputn
  00040	7f 04		 jg	 SHORT $LN25@xsputn
  00042	85 f6		 test	 esi, esi
  00044	74 38		 je	 SHORT $LN4@xsputn
$LN25@xsputn:

; 338  :                 if (_Count < _Size) {

  00046	3b d8		 cmp	 ebx, eax
  00048	7f 0b		 jg	 SHORT $LN6@xsputn
  0004a	7c 04		 jl	 SHORT $LN26@xsputn
  0004c	3b fe		 cmp	 edi, esi
  0004e	73 05		 jae	 SHORT $LN6@xsputn
$LN26@xsputn:

; 339  :                     _Size = _Count;

  00050	8b f7		 mov	 esi, edi
  00052	89 5d 10	 mov	 DWORD PTR __Size$2$[ebp], ebx
$LN6@xsputn:

; 193  :         return *_IPnext;

  00055	8b 4d fc	 mov	 ecx, DWORD PTR _this$1$[ebp]
; File C:\Program Files (x86)\Microsoft Visual Studio\2019\Community\VC\Tools\MSVC\14.27.29110\include\xstring

; 328  :         return static_cast<_Elem*>(_CSTD memcpy(_First1, _First2, _Count));

  00058	8b 45 08	 mov	 eax, DWORD PTR __Ptr$[ebp]
  0005b	56		 push	 esi
  0005c	50		 push	 eax
; File C:\Program Files (x86)\Microsoft Visual Studio\2019\Community\VC\Tools\MSVC\14.27.29110\include\streambuf

; 193  :         return *_IPnext;

  0005d	8b 41 20	 mov	 eax, DWORD PTR [ecx+32]
; File C:\Program Files (x86)\Microsoft Visual Studio\2019\Community\VC\Tools\MSVC\14.27.29110\include\xstring

; 328  :         return static_cast<_Elem*>(_CSTD memcpy(_First1, _First2, _Count));

  00060	ff 30		 push	 DWORD PTR [eax]
  00062	e8 00 00 00 00	 call	 _memcpy
; File C:\Program Files (x86)\Microsoft Visual Studio\2019\Community\VC\Tools\MSVC\14.27.29110\include\streambuf

; 235  :         *_IPcount -= _Off;

  00067	8b 4d fc	 mov	 ecx, DWORD PTR _this$1$[ebp]
; File C:\Program Files (x86)\Microsoft Visual Studio\2019\Community\VC\Tools\MSVC\14.27.29110\include\xstring

; 328  :         return static_cast<_Elem*>(_CSTD memcpy(_First1, _First2, _Count));

  0006a	83 c4 0c	 add	 esp, 12			; 0000000cH
; File C:\Program Files (x86)\Microsoft Visual Studio\2019\Community\VC\Tools\MSVC\14.27.29110\include\streambuf

; 344  :                 _Count -= _Size;

  0006d	2b fe		 sub	 edi, esi
  0006f	1b 5d 10	 sbb	 ebx, DWORD PTR __Size$2$[ebp]

; 235  :         *_IPcount -= _Off;

  00072	8b 41 30	 mov	 eax, DWORD PTR [ecx+48]
  00075	29 30		 sub	 DWORD PTR [eax], esi

; 236  :         *_IPnext += _Off;

  00077	8b 41 20	 mov	 eax, DWORD PTR [ecx+32]
  0007a	01 30		 add	 DWORD PTR [eax], esi

; 346  :             } else if (_Traits::eq_int_type(_Traits::eof(), overflow(_Traits::to_int_type(*_Ptr)))) {

  0007c	eb 22		 jmp	 SHORT $LN8@xsputn
$LN4@xsputn:
  0007e	8b 4d fc	 mov	 ecx, DWORD PTR _this$1$[ebp]
; File C:\Program Files (x86)\Microsoft Visual Studio\2019\Community\VC\Tools\MSVC\14.27.29110\include\xstring

; 389  :         return static_cast<unsigned char>(_Ch);

  00081	8b 45 08	 mov	 eax, DWORD PTR __Ptr$[ebp]
; File C:\Program Files (x86)\Microsoft Visual Studio\2019\Community\VC\Tools\MSVC\14.27.29110\include\streambuf

; 346  :             } else if (_Traits::eq_int_type(_Traits::eof(), overflow(_Traits::to_int_type(*_Ptr)))) {

  00084	8b 11		 mov	 edx, DWORD PTR [ecx]
; File C:\Program Files (x86)\Microsoft Visual Studio\2019\Community\VC\Tools\MSVC\14.27.29110\include\xstring

; 389  :         return static_cast<unsigned char>(_Ch);

  00086	0f b6 00	 movzx	 eax, BYTE PTR [eax]
; File C:\Program Files (x86)\Microsoft Visual Studio\2019\Community\VC\Tools\MSVC\14.27.29110\include\streambuf

; 346  :             } else if (_Traits::eq_int_type(_Traits::eof(), overflow(_Traits::to_int_type(*_Ptr)))) {

  00089	50		 push	 eax
  0008a	ff 52 0c	 call	 DWORD PTR [edx+12]
; File C:\Program Files (x86)\Microsoft Visual Studio\2019\Community\VC\Tools\MSVC\14.27.29110\include\xstring

; 393  :         return _Left == _Right;

  0008d	83 f8 ff	 cmp	 eax, -1
; File C:\Program Files (x86)\Microsoft Visual Studio\2019\Community\VC\Tools\MSVC\14.27.29110\include\streambuf

; 346  :             } else if (_Traits::eq_int_type(_Traits::eof(), overflow(_Traits::to_int_type(*_Ptr)))) {

  00090	74 1b		 je	 SHORT $LN30@xsputn

; 347  :                 break; // single character put failed, quit
; 348  :             } else { // count character successfully put
; 349  :                 ++_Ptr;
; 350  :                 --_Count;

  00092	8b 4d fc	 mov	 ecx, DWORD PTR _this$1$[ebp]
  00095	83 c7 ff	 add	 edi, -1
  00098	be 01 00 00 00	 mov	 esi, 1
  0009d	83 d3 ff	 adc	 ebx, -1
$LN8@xsputn:

; 335  :         while (0 < _Count) {

  000a0	01 75 08	 add	 DWORD PTR __Ptr$[ebp], esi
  000a3	85 db		 test	 ebx, ebx
  000a5	7f 89		 jg	 SHORT $LL2@xsputn
  000a7	7c 04		 jl	 SHORT $LN30@xsputn
  000a9	85 ff		 test	 edi, edi
  000ab	75 83		 jne	 SHORT $LL2@xsputn
$LN30@xsputn:
  000ad	8b 45 f8	 mov	 eax, DWORD PTR __Start_count$1$[ebp]
  000b0	8b 55 f4	 mov	 edx, DWORD PTR __Start_count$2$[ebp]
  000b3	5e		 pop	 esi
$LN27@xsputn:

; 351  :             }
; 352  :         }
; 353  : 
; 354  :         return _Start_count - _Count;

  000b4	2b c7		 sub	 eax, edi
  000b6	5f		 pop	 edi
  000b7	1b d3		 sbb	 edx, ebx
  000b9	5b		 pop	 ebx

; 355  :     }

  000ba	8b e5		 mov	 esp, ebp
  000bc	5d		 pop	 ebp
  000bd	c2 0c 00	 ret	 12			; 0000000cH
?xsputn@?$basic_streambuf@DU?$char_traits@D@std@@@std@@MAE_JPBD_J@Z ENDP ; std::basic_streambuf<char,std::char_traits<char> >::xsputn
_TEXT	ENDS
; Function compile flags: /Ogtp
; File C:\Program Files (x86)\Microsoft Visual Studio\2019\Community\VC\Tools\MSVC\14.27.29110\include\streambuf
; File C:\Program Files (x86)\Microsoft Visual Studio\2019\Community\VC\Tools\MSVC\14.27.29110\include\xstring
; File C:\Program Files (x86)\Microsoft Visual Studio\2019\Community\VC\Tools\MSVC\14.27.29110\include\streambuf
; File C:\Program Files (x86)\Microsoft Visual Studio\2019\Community\VC\Tools\MSVC\14.27.29110\include\xstring
; File C:\Program Files (x86)\Microsoft Visual Studio\2019\Community\VC\Tools\MSVC\14.27.29110\include\streambuf
; File C:\Program Files (x86)\Microsoft Visual Studio\2019\Community\VC\Tools\MSVC\14.27.29110\include\xstring
; File C:\Program Files (x86)\Microsoft Visual Studio\2019\Community\VC\Tools\MSVC\14.27.29110\include\streambuf
; File C:\Program Files (x86)\Microsoft Visual Studio\2019\Community\VC\Tools\MSVC\14.27.29110\include\xstring
; File C:\Program Files (x86)\Microsoft Visual Studio\2019\Community\VC\Tools\MSVC\14.27.29110\include\streambuf
;	COMDAT ?xsgetn@?$basic_streambuf@DU?$char_traits@D@std@@@std@@MAE_JPAD_J@Z
_TEXT	SEGMENT
__Start_count$2$ = -12					; size = 4
__Start_count$1$ = -8					; size = 4
_this$1$ = -4						; size = 4
__Ptr$ = 8						; size = 4
__Count$ = 12						; size = 8
__Size$2$ = 16						; size = 4
?xsgetn@?$basic_streambuf@DU?$char_traits@D@std@@@std@@MAE_JPAD_J@Z PROC ; std::basic_streambuf<char,std::char_traits<char> >::xsgetn, COMDAT
; _this$ = ecx

; 303  :     virtual streamsize __CLR_OR_THIS_CALL xsgetn(_Elem* _Ptr, streamsize _Count) { // get _Count characters from stream

  00000	55		 push	 ebp
  00001	8b ec		 mov	 ebp, esp
  00003	83 ec 0c	 sub	 esp, 12			; 0000000cH
  00006	53		 push	 ebx

; 304  :         const streamsize _Start_count = _Count;

  00007	8b 5d 10	 mov	 ebx, DWORD PTR __Count$[ebp+4]
  0000a	8b d3		 mov	 edx, ebx
  0000c	89 4d fc	 mov	 DWORD PTR _this$1$[ebp], ecx
  0000f	89 55 f4	 mov	 DWORD PTR __Start_count$2$[ebp], edx
  00012	57		 push	 edi
  00013	8b 7d 0c	 mov	 edi, DWORD PTR __Count$[ebp]
  00016	8b c7		 mov	 eax, edi
  00018	89 45 f8	 mov	 DWORD PTR __Start_count$1$[ebp], eax

; 305  : 
; 306  :         while (0 < _Count) {

  0001b	85 db		 test	 ebx, ebx
  0001d	0f 8c 99 00 00
	00		 jl	 $LN24@xsgetn
  00023	7f 08		 jg	 SHORT $LN28@xsgetn
  00025	85 ff		 test	 edi, edi
  00027	0f 84 8f 00 00
	00		 je	 $LN24@xsgetn
$LN28@xsgetn:
  0002d	56		 push	 esi
  0002e	66 90		 npad	 2
$LL2@xsgetn:

; 307  :             streamsize _Size = _Gnavail();

  00030	e8 00 00 00 00	 call	 ?_Gnavail@?$basic_streambuf@DU?$char_traits@D@std@@@std@@IBE_JXZ ; std::basic_streambuf<char,std::char_traits<char> >::_Gnavail
  00035	8b f0		 mov	 esi, eax
  00037	8b c2		 mov	 eax, edx
  00039	89 45 10	 mov	 DWORD PTR __Size$2$[ebp], eax

; 308  :             if (0 < _Size) { // copy from read buffer

  0003c	85 c0		 test	 eax, eax
  0003e	7c 40		 jl	 SHORT $LN4@xsgetn
  00040	7f 04		 jg	 SHORT $LN22@xsgetn
  00042	85 f6		 test	 esi, esi
  00044	74 3a		 je	 SHORT $LN4@xsgetn
$LN22@xsgetn:

; 309  :                 if (_Count < _Size) {

  00046	3b d8		 cmp	 ebx, eax
  00048	7f 0b		 jg	 SHORT $LN6@xsgetn
  0004a	7c 04		 jl	 SHORT $LN23@xsgetn
  0004c	3b fe		 cmp	 edi, esi
  0004e	73 05		 jae	 SHORT $LN6@xsgetn
$LN23@xsgetn:

; 310  :                     _Size = _Count;

  00050	8b f7		 mov	 esi, edi
  00052	89 5d 10	 mov	 DWORD PTR __Size$2$[ebp], ebx
$LN6@xsgetn:

; 185  :         return *_IGnext;

  00055	8b 4d fc	 mov	 ecx, DWORD PTR _this$1$[ebp]
; File C:\Program Files (x86)\Microsoft Visual Studio\2019\Community\VC\Tools\MSVC\14.27.29110\include\xstring

; 328  :         return static_cast<_Elem*>(_CSTD memcpy(_First1, _First2, _Count));

  00058	56		 push	 esi
; File C:\Program Files (x86)\Microsoft Visual Studio\2019\Community\VC\Tools\MSVC\14.27.29110\include\streambuf

; 185  :         return *_IGnext;

  00059	8b 41 1c	 mov	 eax, DWORD PTR [ecx+28]
; File C:\Program Files (x86)\Microsoft Visual Studio\2019\Community\VC\Tools\MSVC\14.27.29110\include\xstring

; 328  :         return static_cast<_Elem*>(_CSTD memcpy(_First1, _First2, _Count));

  0005c	ff 30		 push	 DWORD PTR [eax]
  0005e	ff 75 08	 push	 DWORD PTR __Ptr$[ebp]
  00061	e8 00 00 00 00	 call	 _memcpy
; File C:\Program Files (x86)\Microsoft Visual Studio\2019\Community\VC\Tools\MSVC\14.27.29110\include\streambuf

; 201  :         *_IGcount -= _Off;

  00066	8b 4d fc	 mov	 ecx, DWORD PTR _this$1$[ebp]
; File C:\Program Files (x86)\Microsoft Visual Studio\2019\Community\VC\Tools\MSVC\14.27.29110\include\xstring

; 328  :         return static_cast<_Elem*>(_CSTD memcpy(_First1, _First2, _Count));

  00069	83 c4 0c	 add	 esp, 12			; 0000000cH
; File C:\Program Files (x86)\Microsoft Visual Studio\2019\Community\VC\Tools\MSVC\14.27.29110\include\streambuf

; 315  :                 _Count -= _Size;

  0006c	2b fe		 sub	 edi, esi
  0006e	1b 5d 10	 sbb	 ebx, DWORD PTR __Size$2$[ebp]

; 201  :         *_IGcount -= _Off;

  00071	8b 41 2c	 mov	 eax, DWORD PTR [ecx+44]
  00074	29 30		 sub	 DWORD PTR [eax], esi

; 202  :         *_IGnext += _Off;

  00076	8b 41 1c	 mov	 eax, DWORD PTR [ecx+28]
  00079	01 30		 add	 DWORD PTR [eax], esi

; 316  :                 gbump(static_cast<int>(_Size));
; 317  :             } else {

  0007b	8b 45 08	 mov	 eax, DWORD PTR __Ptr$[ebp]
  0007e	eb 22		 jmp	 SHORT $LN5@xsgetn
$LN4@xsgetn:

; 318  :                 const int_type _Meta = uflow();

  00080	8b 4d fc	 mov	 ecx, DWORD PTR _this$1$[ebp]
  00083	8b 01		 mov	 eax, DWORD PTR [ecx]
  00085	ff 50 1c	 call	 DWORD PTR [eax+28]
  00088	8b c8		 mov	 ecx, eax
; File C:\Program Files (x86)\Microsoft Visual Studio\2019\Community\VC\Tools\MSVC\14.27.29110\include\xstring

; 393  :         return _Left == _Right;

  0008a	83 f9 ff	 cmp	 ecx, -1
; File C:\Program Files (x86)\Microsoft Visual Studio\2019\Community\VC\Tools\MSVC\14.27.29110\include\streambuf

; 319  :                 if (_Traits::eq_int_type(_Traits::eof(), _Meta)) {

  0008d	74 26		 je	 SHORT $LN27@xsgetn

; 320  :                     break; // end of file, quit
; 321  :                 }
; 322  : 
; 323  :                 // get a single character
; 324  :                 *_Ptr++ = _Traits::to_char_type(_Meta);

  0008f	8b 45 08	 mov	 eax, DWORD PTR __Ptr$[ebp]

; 325  :                 --_Count;

  00092	83 c7 ff	 add	 edi, -1
  00095	be 01 00 00 00	 mov	 esi, 1
  0009a	83 d3 ff	 adc	 ebx, -1
  0009d	88 08		 mov	 BYTE PTR [eax], cl
  0009f	8b 4d fc	 mov	 ecx, DWORD PTR _this$1$[ebp]
$LN5@xsgetn:

; 305  : 
; 306  :         while (0 < _Count) {

  000a2	03 c6		 add	 eax, esi
  000a4	89 45 08	 mov	 DWORD PTR __Ptr$[ebp], eax
  000a7	85 db		 test	 ebx, ebx
  000a9	7f 85		 jg	 SHORT $LL2@xsgetn
  000ab	7c 08		 jl	 SHORT $LN27@xsgetn
  000ad	85 ff		 test	 edi, edi
  000af	0f 85 7b ff ff
	ff		 jne	 $LL2@xsgetn
$LN27@xsgetn:
  000b5	8b 45 f8	 mov	 eax, DWORD PTR __Start_count$1$[ebp]
  000b8	8b 55 f4	 mov	 edx, DWORD PTR __Start_count$2$[ebp]
  000bb	5e		 pop	 esi
$LN24@xsgetn:

; 326  :             }
; 327  :         }
; 328  : 
; 329  :         return _Start_count - _Count;

  000bc	2b c7		 sub	 eax, edi
  000be	5f		 pop	 edi
  000bf	1b d3		 sbb	 edx, ebx
  000c1	5b		 pop	 ebx

; 330  :     }

  000c2	8b e5		 mov	 esp, ebp
  000c4	5d		 pop	 ebp
  000c5	c2 0c 00	 ret	 12			; 0000000cH
?xsgetn@?$basic_streambuf@DU?$char_traits@D@std@@@std@@MAE_JPAD_J@Z ENDP ; std::basic_streambuf<char,std::char_traits<char> >::xsgetn
_TEXT	ENDS
; Function compile flags: /Ogtp
; File C:\Program Files (x86)\Microsoft Visual Studio\2019\Community\VC\Tools\MSVC\14.27.29110\include\streambuf
; File C:\Program Files (x86)\Microsoft Visual Studio\2019\Community\VC\Tools\MSVC\14.27.29110\include\xstring
; File C:\Program Files (x86)\Microsoft Visual Studio\2019\Community\VC\Tools\MSVC\14.27.29110\include\streambuf
; File C:\Program Files (x86)\Microsoft Visual Studio\2019\Community\VC\Tools\MSVC\14.27.29110\include\xstring
; File C:\Program Files (x86)\Microsoft Visual Studio\2019\Community\VC\Tools\MSVC\14.27.29110\include\streambuf
;	COMDAT ?uflow@?$basic_streambuf@DU?$char_traits@D@std@@@std@@MAEHXZ
_TEXT	SEGMENT
?uflow@?$basic_streambuf@DU?$char_traits@D@std@@@std@@MAEHXZ PROC ; std::basic_streambuf<char,std::char_traits<char> >::uflow, COMDAT
; _this$ = ecx

; 299  :     virtual int_type __CLR_OR_THIS_CALL uflow() { // get a character from stream, point past it

  00000	56		 push	 esi
  00001	8b f1		 mov	 esi, ecx

; 300  :         return _Traits::eq_int_type(_Traits::eof(), underflow()) ? _Traits::eof() : _Traits::to_int_type(*_Gninc());

  00003	8b 06		 mov	 eax, DWORD PTR [esi]
  00005	ff 50 18	 call	 DWORD PTR [eax+24]
; File C:\Program Files (x86)\Microsoft Visual Studio\2019\Community\VC\Tools\MSVC\14.27.29110\include\xstring

; 393  :         return _Left == _Right;

  00008	83 f8 ff	 cmp	 eax, -1
; File C:\Program Files (x86)\Microsoft Visual Studio\2019\Community\VC\Tools\MSVC\14.27.29110\include\streambuf

; 300  :         return _Traits::eq_int_type(_Traits::eof(), underflow()) ? _Traits::eof() : _Traits::to_int_type(*_Gninc());

  0000b	75 04		 jne	 SHORT $LN3@uflow
  0000d	0b c0		 or	 eax, eax
  0000f	5e		 pop	 esi

; 301  :     }

  00010	c3		 ret	 0
$LN3@uflow:

; 221  :         --*_IGcount;

  00011	8b 46 2c	 mov	 eax, DWORD PTR [esi+44]
  00014	ff 08		 dec	 DWORD PTR [eax]

; 222  :         return (*_IGnext)++;

  00016	8b 4e 1c	 mov	 ecx, DWORD PTR [esi+28]
  00019	5e		 pop	 esi
  0001a	8b 11		 mov	 edx, DWORD PTR [ecx]
  0001c	8d 42 01	 lea	 eax, DWORD PTR [edx+1]
  0001f	89 01		 mov	 DWORD PTR [ecx], eax
; File C:\Program Files (x86)\Microsoft Visual Studio\2019\Community\VC\Tools\MSVC\14.27.29110\include\xstring

; 389  :         return static_cast<unsigned char>(_Ch);

  00021	0f b6 02	 movzx	 eax, BYTE PTR [edx]
; File C:\Program Files (x86)\Microsoft Visual Studio\2019\Community\VC\Tools\MSVC\14.27.29110\include\streambuf

; 301  :     }

  00024	c3		 ret	 0
?uflow@?$basic_streambuf@DU?$char_traits@D@std@@@std@@MAEHXZ ENDP ; std::basic_streambuf<char,std::char_traits<char> >::uflow
_TEXT	ENDS
; Function compile flags: /Ogtp
; File C:\Program Files (x86)\Microsoft Visual Studio\2019\Community\VC\Tools\MSVC\14.27.29110\include\streambuf
;	COMDAT ?underflow@?$basic_streambuf@DU?$char_traits@D@std@@@std@@MAEHXZ
_TEXT	SEGMENT
?underflow@?$basic_streambuf@DU?$char_traits@D@std@@@std@@MAEHXZ PROC ; std::basic_streambuf<char,std::char_traits<char> >::underflow, COMDAT
; _this$ = ecx

; 296  :         return _Traits::eof();

  00000	83 c8 ff	 or	 eax, -1

; 297  :     }

  00003	c3		 ret	 0
?underflow@?$basic_streambuf@DU?$char_traits@D@std@@@std@@MAEHXZ ENDP ; std::basic_streambuf<char,std::char_traits<char> >::underflow
_TEXT	ENDS
; Function compile flags: /Ogtp
; File C:\Program Files (x86)\Microsoft Visual Studio\2019\Community\VC\Tools\MSVC\14.27.29110\include\streambuf
;	COMDAT ?showmanyc@?$basic_streambuf@DU?$char_traits@D@std@@@std@@MAE_JXZ
_TEXT	SEGMENT
?showmanyc@?$basic_streambuf@DU?$char_traits@D@std@@@std@@MAE_JXZ PROC ; std::basic_streambuf<char,std::char_traits<char> >::showmanyc, COMDAT
; _this$ = ecx

; 292  :         return 0;

  00000	33 c0		 xor	 eax, eax
  00002	33 d2		 xor	 edx, edx

; 293  :     }

  00004	c3		 ret	 0
?showmanyc@?$basic_streambuf@DU?$char_traits@D@std@@@std@@MAE_JXZ ENDP ; std::basic_streambuf<char,std::char_traits<char> >::showmanyc
_TEXT	ENDS
; Function compile flags: /Ogtp
; File C:\Program Files (x86)\Microsoft Visual Studio\2019\Community\VC\Tools\MSVC\14.27.29110\include\streambuf
;	COMDAT ?pbackfail@?$basic_streambuf@DU?$char_traits@D@std@@@std@@MAEHH@Z
_TEXT	SEGMENT
___formal$ = 8						; size = 4
?pbackfail@?$basic_streambuf@DU?$char_traits@D@std@@@std@@MAEHH@Z PROC ; std::basic_streambuf<char,std::char_traits<char> >::pbackfail, COMDAT
; _this$ = ecx

; 287  :         // put a character back to stream (always fail)
; 288  :         return _Traits::eof();

  00000	83 c8 ff	 or	 eax, -1

; 289  :     }

  00003	c2 04 00	 ret	 4
?pbackfail@?$basic_streambuf@DU?$char_traits@D@std@@@std@@MAEHH@Z ENDP ; std::basic_streambuf<char,std::char_traits<char> >::pbackfail
_TEXT	ENDS
; Function compile flags: /Ogtp
; File C:\Program Files (x86)\Microsoft Visual Studio\2019\Community\VC\Tools\MSVC\14.27.29110\include\streambuf
;	COMDAT ?overflow@?$basic_streambuf@DU?$char_traits@D@std@@@std@@MAEHH@Z
_TEXT	SEGMENT
___formal$ = 8						; size = 4
?overflow@?$basic_streambuf@DU?$char_traits@D@std@@@std@@MAEHH@Z PROC ; std::basic_streambuf<char,std::char_traits<char> >::overflow, COMDAT
; _this$ = ecx

; 283  :         return _Traits::eof();

  00000	83 c8 ff	 or	 eax, -1

; 284  :     }

  00003	c2 04 00	 ret	 4
?overflow@?$basic_streambuf@DU?$char_traits@D@std@@@std@@MAEHH@Z ENDP ; std::basic_streambuf<char,std::char_traits<char> >::overflow
_TEXT	ENDS
; Function compile flags: /Ogtp
; File C:\Program Files (x86)\Microsoft Visual Studio\2019\Community\VC\Tools\MSVC\14.27.29110\include\streambuf
;	COMDAT ?_Pnavail@?$basic_streambuf@DU?$char_traits@D@std@@@std@@IBE_JXZ
_TEXT	SEGMENT
?_Pnavail@?$basic_streambuf@DU?$char_traits@D@std@@@std@@IBE_JXZ PROC ; std::basic_streambuf<char,std::char_traits<char> >::_Pnavail, COMDAT
; _this$ = ecx

; 258  :         return *_IPnext ? *_IPcount : 0;

  00000	8b 41 20	 mov	 eax, DWORD PTR [ecx+32]
  00003	83 38 00	 cmp	 DWORD PTR [eax], 0
  00006	74 07		 je	 SHORT $LN3@Pnavail
  00008	8b 41 30	 mov	 eax, DWORD PTR [ecx+48]
  0000b	8b 00		 mov	 eax, DWORD PTR [eax]
  0000d	99		 cdq

; 259  :     }

  0000e	c3		 ret	 0
$LN3@Pnavail:

; 258  :         return *_IPnext ? *_IPcount : 0;

  0000f	33 c0		 xor	 eax, eax
  00011	99		 cdq

; 259  :     }

  00012	c3		 ret	 0
?_Pnavail@?$basic_streambuf@DU?$char_traits@D@std@@@std@@IBE_JXZ ENDP ; std::basic_streambuf<char,std::char_traits<char> >::_Pnavail
_TEXT	ENDS
; Function compile flags: /Ogtp
; File C:\Program Files (x86)\Microsoft Visual Studio\2019\Community\VC\Tools\MSVC\14.27.29110\include\streambuf
;	COMDAT ?_Gnavail@?$basic_streambuf@DU?$char_traits@D@std@@@std@@IBE_JXZ
_TEXT	SEGMENT
?_Gnavail@?$basic_streambuf@DU?$char_traits@D@std@@@std@@IBE_JXZ PROC ; std::basic_streambuf<char,std::char_traits<char> >::_Gnavail, COMDAT
; _this$ = ecx

; 231  :         return *_IGnext ? *_IGcount : 0;

  00000	8b 41 1c	 mov	 eax, DWORD PTR [ecx+28]
  00003	83 38 00	 cmp	 DWORD PTR [eax], 0
  00006	74 07		 je	 SHORT $LN3@Gnavail
  00008	8b 41 2c	 mov	 eax, DWORD PTR [ecx+44]
  0000b	8b 00		 mov	 eax, DWORD PTR [eax]
  0000d	99		 cdq

; 232  :     }

  0000e	c3		 ret	 0
$LN3@Gnavail:

; 231  :         return *_IGnext ? *_IGcount : 0;

  0000f	33 c0		 xor	 eax, eax
  00011	99		 cdq

; 232  :     }

  00012	c3		 ret	 0
?_Gnavail@?$basic_streambuf@DU?$char_traits@D@std@@@std@@IBE_JXZ ENDP ; std::basic_streambuf<char,std::char_traits<char> >::_Gnavail
_TEXT	ENDS
; Function compile flags: /Ogtp
; File C:\Program Files (x86)\Microsoft Visual Studio\2019\Community\VC\Tools\MSVC\14.27.29110\include\streambuf
;	COMDAT ?_Unlock@?$basic_streambuf@DU?$char_traits@D@std@@@std@@UAEXXZ
_TEXT	SEGMENT
?_Unlock@?$basic_streambuf@DU?$char_traits@D@std@@@std@@UAEXXZ PROC ; std::basic_streambuf<char,std::char_traits<char> >::_Unlock, COMDAT
; _this$ = ecx

; 177  :     virtual void __CLR_OR_THIS_CALL _Unlock() {} // clear the thread lock (overridden by basic_filebuf)

  00000	c2 00 00	 ret	 0
?_Unlock@?$basic_streambuf@DU?$char_traits@D@std@@@std@@UAEXXZ ENDP ; std::basic_streambuf<char,std::char_traits<char> >::_Unlock
_TEXT	ENDS
; Function compile flags: /Ogtp
; File C:\Program Files (x86)\Microsoft Visual Studio\2019\Community\VC\Tools\MSVC\14.27.29110\include\streambuf
;	COMDAT ?_Lock@?$basic_streambuf@DU?$char_traits@D@std@@@std@@UAEXXZ
_TEXT	SEGMENT
?_Lock@?$basic_streambuf@DU?$char_traits@D@std@@@std@@UAEXXZ PROC ; std::basic_streambuf<char,std::char_traits<char> >::_Lock, COMDAT
; _this$ = ecx

; 175  :     virtual void __CLR_OR_THIS_CALL _Lock() {} // set the thread lock (overridden by basic_filebuf)

  00000	c2 00 00	 ret	 0
?_Lock@?$basic_streambuf@DU?$char_traits@D@std@@@std@@UAEXXZ ENDP ; std::basic_streambuf<char,std::char_traits<char> >::_Lock
_TEXT	ENDS
; Function compile flags: /Ogtp
; File C:\Program Files (x86)\Microsoft Visual Studio\2019\Community\VC\Tools\MSVC\14.27.29110\include\streambuf
; File C:\Program Files (x86)\Microsoft Visual Studio\2019\Community\VC\Tools\MSVC\14.27.29110\include\xlocale
; File C:\Program Files (x86)\Microsoft Visual Studio\2019\Community\VC\Tools\MSVC\14.27.29110\include\streambuf
;	COMDAT ??1?$basic_streambuf@DU?$char_traits@D@std@@@std@@UAE@XZ
_TEXT	SEGMENT
??1?$basic_streambuf@DU?$char_traits@D@std@@@std@@UAE@XZ PROC ; std::basic_streambuf<char,std::char_traits<char> >::~basic_streambuf<char,std::char_traits<char> >, COMDAT
; _this$ = ecx

; 69   :     virtual __CLR_OR_THIS_CALL ~basic_streambuf() noexcept {

  00000	56		 push	 esi

; 70   :         delete _Plocale;

  00001	8b 71 34	 mov	 esi, DWORD PTR [ecx+52]
  00004	c7 01 00 00 00
	00		 mov	 DWORD PTR [ecx], OFFSET ??_7?$basic_streambuf@DU?$char_traits@D@std@@@std@@6B@
  0000a	85 f6		 test	 esi, esi
  0000c	74 23		 je	 SHORT $LN6@basic_stre
; File C:\Program Files (x86)\Microsoft Visual Studio\2019\Community\VC\Tools\MSVC\14.27.29110\include\xlocale

; 351  :         if (_Ptr) {

  0000e	8b 4e 04	 mov	 ecx, DWORD PTR [esi+4]
  00011	85 c9		 test	 ecx, ecx
  00013	74 11		 je	 SHORT $LN11@basic_stre

; 352  :             delete _Ptr->_Decref();

  00015	8b 01		 mov	 eax, DWORD PTR [ecx]
  00017	ff 50 08	 call	 DWORD PTR [eax+8]
  0001a	85 c0		 test	 eax, eax
  0001c	74 08		 je	 SHORT $LN11@basic_stre
  0001e	8b 10		 mov	 edx, DWORD PTR [eax]
  00020	8b c8		 mov	 ecx, eax
  00022	6a 01		 push	 1
  00024	ff 12		 call	 DWORD PTR [edx]
$LN11@basic_stre:
  00026	6a 08		 push	 8
  00028	56		 push	 esi
  00029	e8 00 00 00 00	 call	 ??3@YAXPAXI@Z		; operator delete
  0002e	83 c4 08	 add	 esp, 8
$LN6@basic_stre:
  00031	5e		 pop	 esi
; File C:\Program Files (x86)\Microsoft Visual Studio\2019\Community\VC\Tools\MSVC\14.27.29110\include\streambuf

; 71   :     }

  00032	c3		 ret	 0
??1?$basic_streambuf@DU?$char_traits@D@std@@@std@@UAE@XZ ENDP ; std::basic_streambuf<char,std::char_traits<char> >::~basic_streambuf<char,std::char_traits<char> >
_TEXT	ENDS
; Function compile flags: /Ogtp
; File C:\Program Files (x86)\Microsoft Visual Studio\2019\Community\VC\Tools\MSVC\14.27.29110\include\sstream
; File C:\Program Files (x86)\Microsoft Visual Studio\2019\Community\VC\Tools\MSVC\14.27.29110\include\ostream
; File C:\Program Files (x86)\Microsoft Visual Studio\2019\Community\VC\Tools\MSVC\14.27.29110\include\sstream
;	COMDAT ??1?$basic_ostringstream@DU?$char_traits@D@std@@V?$allocator@D@2@@std@@UAE@XZ
_TEXT	SEGMENT
??1?$basic_ostringstream@DU?$char_traits@D@std@@V?$allocator@D@2@@std@@UAE@XZ PROC ; std::basic_ostringstream<char,std::char_traits<char>,std::allocator<char> >::~basic_ostringstream<char,std::char_traits<char>,std::allocator<char> >, COMDAT
; _this$ = ecx

; 489  :     virtual ~basic_ostringstream() noexcept {}

  00000	56		 push	 esi
  00001	8b f1		 mov	 esi, ecx
  00003	8b 46 b0	 mov	 eax, DWORD PTR [esi-80]
  00006	8d 4e b4	 lea	 ecx, DWORD PTR [esi-76]
  00009	8b 40 04	 mov	 eax, DWORD PTR [eax+4]
  0000c	c7 44 30 b0 00
	00 00 00	 mov	 DWORD PTR [eax+esi-80], OFFSET ??_7?$basic_ostringstream@DU?$char_traits@D@std@@V?$allocator@D@2@@std@@6B@
  00014	8b 46 b0	 mov	 eax, DWORD PTR [esi-80]
  00017	8b 50 04	 mov	 edx, DWORD PTR [eax+4]
  0001a	8d 42 b0	 lea	 eax, DWORD PTR [edx-80]
  0001d	89 44 32 ac	 mov	 DWORD PTR [edx+esi-84], eax
  00021	e8 00 00 00 00	 call	 ??1?$basic_stringbuf@DU?$char_traits@D@std@@V?$allocator@D@2@@std@@UAE@XZ ; std::basic_stringbuf<char,std::char_traits<char>,std::allocator<char> >::~basic_stringbuf<char,std::char_traits<char>,std::allocator<char> >
; File C:\Program Files (x86)\Microsoft Visual Studio\2019\Community\VC\Tools\MSVC\14.27.29110\include\ostream

; 63   :     virtual __CLR_OR_THIS_CALL ~basic_ostream() noexcept {}

  00026	8b 46 b0	 mov	 eax, DWORD PTR [esi-80]
  00029	8b 40 04	 mov	 eax, DWORD PTR [eax+4]
  0002c	c7 44 30 b0 00
	00 00 00	 mov	 DWORD PTR [eax+esi-80], OFFSET ??_7?$basic_ostream@DU?$char_traits@D@std@@@std@@6B@
  00034	8b 46 b0	 mov	 eax, DWORD PTR [esi-80]
  00037	8b 48 04	 mov	 ecx, DWORD PTR [eax+4]
  0003a	8d 41 f8	 lea	 eax, DWORD PTR [ecx-8]
  0003d	89 44 31 ac	 mov	 DWORD PTR [ecx+esi-84], eax
  00041	5e		 pop	 esi
; File C:\Program Files (x86)\Microsoft Visual Studio\2019\Community\VC\Tools\MSVC\14.27.29110\include\sstream

; 489  :     virtual ~basic_ostringstream() noexcept {}

  00042	c3		 ret	 0
??1?$basic_ostringstream@DU?$char_traits@D@std@@V?$allocator@D@2@@std@@UAE@XZ ENDP ; std::basic_ostringstream<char,std::char_traits<char>,std::allocator<char> >::~basic_ostringstream<char,std::char_traits<char>,std::allocator<char> >
_TEXT	ENDS
; Function compile flags: /Ogtp
; File C:\Program Files (x86)\Microsoft Visual Studio\2019\Community\VC\Tools\MSVC\14.27.29110\include\ostream
; File C:\Program Files (x86)\Microsoft Visual Studio\2019\Community\VC\Tools\MSVC\14.27.29110\include\xiosbase
;	COMDAT ??_G?$basic_ostream@DU?$char_traits@D@std@@@std@@UAEPAXI@Z
_TEXT	SEGMENT
__$EHRec$ = -12						; size = 12
___flags$ = 8						; size = 4
??_G?$basic_ostream@DU?$char_traits@D@std@@@std@@UAEPAXI@Z PROC ; std::basic_ostream<char,std::char_traits<char> >::`scalar deleting destructor', COMDAT
; _this$ = ecx
  00000	55		 push	 ebp
  00001	8b ec		 mov	 ebp, esp
  00003	6a ff		 push	 -1
  00005	68 00 00 00 00	 push	 __ehhandler$??_G?$basic_ostream@DU?$char_traits@D@std@@@std@@UAEPAXI@Z
  0000a	64 a1 00 00 00
	00		 mov	 eax, DWORD PTR fs:0
  00010	50		 push	 eax
  00011	56		 push	 esi
  00012	a1 00 00 00 00	 mov	 eax, DWORD PTR ___security_cookie
  00017	33 c5		 xor	 eax, ebp
  00019	50		 push	 eax
  0001a	8d 45 f4	 lea	 eax, DWORD PTR __$EHRec$[ebp]
  0001d	64 a3 00 00 00
	00		 mov	 DWORD PTR fs:0, eax
; File C:\Program Files (x86)\Microsoft Visual Studio\2019\Community\VC\Tools\MSVC\14.27.29110\include\ostream

; 63   :     virtual __CLR_OR_THIS_CALL ~basic_ostream() noexcept {}

  00023	8b 41 f8	 mov	 eax, DWORD PTR [ecx-8]
  00026	8d 71 f8	 lea	 esi, DWORD PTR [ecx-8]
  00029	8b 40 04	 mov	 eax, DWORD PTR [eax+4]
  0002c	c7 44 08 f8 00
	00 00 00	 mov	 DWORD PTR [eax+ecx-8], OFFSET ??_7?$basic_ostream@DU?$char_traits@D@std@@@std@@6B@
  00034	8b 06		 mov	 eax, DWORD PTR [esi]
  00036	8b 50 04	 mov	 edx, DWORD PTR [eax+4]
  00039	8d 42 f8	 lea	 eax, DWORD PTR [edx-8]
  0003c	89 44 0a f4	 mov	 DWORD PTR [edx+ecx-12], eax
; File C:\Program Files (x86)\Microsoft Visual Studio\2019\Community\VC\Tools\MSVC\14.27.29110\include\xiosbase

; 452  :         _Ios_base_dtor(this);

  00040	51		 push	 ecx
  00041	c7 45 fc 00 00
	00 00		 mov	 DWORD PTR __$EHRec$[ebp+8], 0
  00048	c7 01 00 00 00
	00		 mov	 DWORD PTR [ecx], OFFSET ??_7ios_base@std@@6B@
  0004e	e8 00 00 00 00	 call	 ?_Ios_base_dtor@ios_base@std@@CAXPAV12@@Z ; std::ios_base::_Ios_base_dtor
  00053	83 c4 04	 add	 esp, 4
  00056	f6 45 08 01	 test	 BYTE PTR ___flags$[ebp], 1
  0005a	74 0b		 je	 SHORT $LN14@scalar
  0005c	6a 50		 push	 80			; 00000050H
  0005e	56		 push	 esi
  0005f	e8 00 00 00 00	 call	 ??3@YAXPAXI@Z		; operator delete
  00064	83 c4 08	 add	 esp, 8
$LN14@scalar:
  00067	8b c6		 mov	 eax, esi
  00069	8b 4d f4	 mov	 ecx, DWORD PTR __$EHRec$[ebp]
  0006c	64 89 0d 00 00
	00 00		 mov	 DWORD PTR fs:0, ecx
  00073	59		 pop	 ecx
  00074	5e		 pop	 esi
  00075	8b e5		 mov	 esp, ebp
  00077	5d		 pop	 ebp
  00078	c2 04 00	 ret	 4
  0007b	cc		 int	 3
  0007c	cc		 int	 3
  0007d	cc		 int	 3
  0007e	cc		 int	 3
  0007f	cc		 int	 3
_TEXT	ENDS
;	COMDAT text$x
text$x	SEGMENT
__ehhandler$??_G?$basic_ostream@DU?$char_traits@D@std@@@std@@UAEPAXI@Z:
  00000	90		 npad	 1
  00001	90		 npad	 1
  00002	8b 54 24 08	 mov	 edx, DWORD PTR [esp+8]
  00006	8d 42 0c	 lea	 eax, DWORD PTR [edx+12]
  00009	8b 4a f8	 mov	 ecx, DWORD PTR [edx-8]
  0000c	33 c8		 xor	 ecx, eax
  0000e	e8 00 00 00 00	 call	 @__security_check_cookie@4
  00013	b8 00 00 00 00	 mov	 eax, OFFSET __ehfuncinfo$??_G?$basic_ostream@DU?$char_traits@D@std@@@std@@UAEPAXI@Z
  00018	e9 00 00 00 00	 jmp	 ___CxxFrameHandler3
text$x	ENDS
??_G?$basic_ostream@DU?$char_traits@D@std@@@std@@UAEPAXI@Z ENDP ; std::basic_ostream<char,std::char_traits<char> >::`scalar deleting destructor'
; Function compile flags: /Ogtp
; File C:\Program Files (x86)\Microsoft Visual Studio\2019\Community\VC\Tools\MSVC\14.27.29110\include\ostream
; File C:\Program Files (x86)\Microsoft Visual Studio\2019\Community\VC\Tools\MSVC\14.27.29110\include\xiosbase
; File C:\Program Files (x86)\Microsoft Visual Studio\2019\Community\VC\Tools\MSVC\14.27.29110\include\ostream
; File C:\Program Files (x86)\Microsoft Visual Studio\2019\Community\VC\Tools\MSVC\14.27.29110\include\xiosbase
; File C:\Program Files (x86)\Microsoft Visual Studio\2019\Community\VC\Tools\MSVC\14.27.29110\include\ostream
; File C:\Program Files (x86)\Microsoft Visual Studio\2019\Community\VC\Tools\MSVC\14.27.29110\include\streambuf
; File C:\Program Files (x86)\Microsoft Visual Studio\2019\Community\VC\Tools\MSVC\14.27.29110\include\ostream
; File C:\Program Files (x86)\Microsoft Visual Studio\2019\Community\VC\Tools\MSVC\14.27.29110\include\xiosbase
; File C:\Program Files (x86)\Microsoft Visual Studio\2019\Community\VC\Tools\MSVC\14.27.29110\include\ostream
; File C:\Program Files (x86)\Microsoft Visual Studio\2019\Community\VC\Tools\MSVC\14.27.29110\include\xiosbase
; File C:\Program Files (x86)\Microsoft Visual Studio\2019\Community\VC\Tools\MSVC\14.27.29110\include\ostream
;	COMDAT ?_Osfx@?$basic_ostream@DU?$char_traits@D@std@@@std@@QAEXXZ
_TEXT	SEGMENT
$T2 = -44						; size = 20
$T3 = -24						; size = 8
__$EHRec$ = -16						; size = 16
?_Osfx@?$basic_ostream@DU?$char_traits@D@std@@@std@@QAEXXZ PROC ; std::basic_ostream<char,std::char_traits<char> >::_Osfx, COMDAT
; _this$ = ecx

; 156  :     void __CLR_OR_THIS_CALL _Osfx() { // perform any wrapup

  00000	55		 push	 ebp
  00001	8b ec		 mov	 ebp, esp
  00003	6a ff		 push	 -1
  00005	68 00 00 00 00	 push	 __ehhandler$?_Osfx@?$basic_ostream@DU?$char_traits@D@std@@@std@@QAEXXZ
  0000a	64 a1 00 00 00
	00		 mov	 eax, DWORD PTR fs:0
  00010	50		 push	 eax
  00011	83 ec 20	 sub	 esp, 32			; 00000020H
  00014	53		 push	 ebx
  00015	56		 push	 esi
  00016	57		 push	 edi
  00017	a1 00 00 00 00	 mov	 eax, DWORD PTR ___security_cookie
  0001c	33 c5		 xor	 eax, ebp
  0001e	50		 push	 eax
  0001f	8d 45 f4	 lea	 eax, DWORD PTR __$EHRec$[ebp+4]
  00022	64 a3 00 00 00
	00		 mov	 DWORD PTR fs:0, eax
  00028	89 65 f0	 mov	 DWORD PTR __$EHRec$[ebp], esp
  0002b	8b f1		 mov	 esi, ecx
; File C:\Program Files (x86)\Microsoft Visual Studio\2019\Community\VC\Tools\MSVC\14.27.29110\include\xiosbase

; 295  :         return rdstate() == ios_base::goodbit;

  0002d	8b 06		 mov	 eax, DWORD PTR [esi]
; File C:\Program Files (x86)\Microsoft Visual Studio\2019\Community\VC\Tools\MSVC\14.27.29110\include\ostream

; 157  :         _TRY_BEGIN

  0002f	c7 45 fc 00 00
	00 00		 mov	 DWORD PTR __$EHRec$[ebp+12], 0
; File C:\Program Files (x86)\Microsoft Visual Studio\2019\Community\VC\Tools\MSVC\14.27.29110\include\xiosbase

; 295  :         return rdstate() == ios_base::goodbit;

  00036	8b 40 04	 mov	 eax, DWORD PTR [eax+4]
  00039	83 7c 30 0c 00	 cmp	 DWORD PTR [eax+esi+12], 0
; File C:\Program Files (x86)\Microsoft Visual Studio\2019\Community\VC\Tools\MSVC\14.27.29110\include\ostream

; 158  :         if (this->good() && this->flags() & ios_base::unitbuf) {

  0003e	75 38		 jne	 SHORT $LN19@Osfx
  00040	f6 44 30 14 02	 test	 BYTE PTR [eax+esi+20], 2
  00045	74 31		 je	 SHORT $LN19@Osfx

; 159  :             if (_Myios::rdbuf()->pubsync() == -1) { // flush stream as needed

  00047	8b 4c 30 38	 mov	 ecx, DWORD PTR [eax+esi+56]
; File C:\Program Files (x86)\Microsoft Visual Studio\2019\Community\VC\Tools\MSVC\14.27.29110\include\streambuf

; 123  :         return sync();

  0004b	8b 01		 mov	 eax, DWORD PTR [ecx]
  0004d	ff 50 34	 call	 DWORD PTR [eax+52]
; File C:\Program Files (x86)\Microsoft Visual Studio\2019\Community\VC\Tools\MSVC\14.27.29110\include\ostream

; 159  :             if (_Myios::rdbuf()->pubsync() == -1) { // flush stream as needed

  00050	83 f8 ff	 cmp	 eax, -1
  00053	75 23		 jne	 SHORT $LN19@Osfx

; 160  :                 _Myios::setstate(ios_base::badbit);

  00055	8b 06		 mov	 eax, DWORD PTR [esi]
  00057	8b 48 04	 mov	 ecx, DWORD PTR [eax+4]
; File C:\Program Files (x86)\Microsoft Visual Studio\2019\Community\VC\Tools\MSVC\14.27.29110\include\xiosbase

; 244  :         _State &= _Statmask;

  0005a	8b 44 31 0c	 mov	 eax, DWORD PTR [ecx+esi+12]
  0005e	83 e0 13	 and	 eax, 19			; 00000013H
  00061	83 c8 04	 or	 eax, 4

; 245  :         _Mystate             = _State;

  00064	89 44 31 0c	 mov	 DWORD PTR [ecx+esi+12], eax

; 246  :         const auto _Filtered = _State & _Except;

  00068	8b 4c 31 10	 mov	 ecx, DWORD PTR [ecx+esi+16]
  0006c	23 c8		 and	 ecx, eax

; 247  :         if (_Filtered) {

  0006e	75 1a		 jne	 SHORT $LN32@Osfx
  00070	eb 06		 jmp	 SHORT $LN19@Osfx
__catch$?_Osfx@?$basic_ostream@DU?$char_traits@D@std@@@std@@QAEXXZ$0:
; File C:\Program Files (x86)\Microsoft Visual Studio\2019\Community\VC\Tools\MSVC\14.27.29110\include\ostream

; 164  :         _CATCH_END

  00072	b8 00 00 00 00	 mov	 eax, $LN19@Osfx
  00077	c3		 ret	 0
$LN19@Osfx:

; 165  :     }

  00078	8b 4d f4	 mov	 ecx, DWORD PTR __$EHRec$[ebp+4]
  0007b	64 89 0d 00 00
	00 00		 mov	 DWORD PTR fs:0, ecx
  00082	59		 pop	 ecx
  00083	5f		 pop	 edi
  00084	5e		 pop	 esi
  00085	5b		 pop	 ebx
  00086	8b e5		 mov	 esp, ebp
  00088	5d		 pop	 ebp
  00089	c3		 ret	 0
$LN32@Osfx:
; File C:\Program Files (x86)\Microsoft Visual Studio\2019\Community\VC\Tools\MSVC\14.27.29110\include\xiosbase

; 253  :             if (_Filtered & ios_base::badbit) {

  0008a	f6 c1 04	 test	 cl, 4
  0008d	74 07		 je	 SHORT $LN21@Osfx

; 254  :                 _Msg = "ios_base::badbit set";

  0008f	be 00 00 00 00	 mov	 esi, OFFSET ??_C@_0BF@PHHKMMFD@ios_base?3?3badbit?5set@
  00094	eb 10		 jmp	 SHORT $LN23@Osfx
$LN21@Osfx:

; 255  :             } else if (_Filtered & ios_base::failbit) {

  00096	f6 c1 02	 test	 cl, 2
  00099	be 00 00 00 00	 mov	 esi, OFFSET ??_C@_0BG@FMKFHCIL@ios_base?3?3failbit?5set@
  0009e	b8 00 00 00 00	 mov	 eax, OFFSET ??_C@_0BF@OOHOMBOF@ios_base?3?3eofbit?5set@
  000a3	0f 44 f0	 cmove	 esi, eax
$LN23@Osfx:

; 256  :                 _Msg = "ios_base::failbit set";
; 257  :             } else {
; 258  :                 _Msg = "ios_base::eofbit set";
; 259  :             }
; 260  : 
; 261  :             _THROW(failure(_Msg));

  000a6	8d 45 e8	 lea	 eax, DWORD PTR $T3[ebp]
  000a9	6a 01		 push	 1
  000ab	50		 push	 eax
  000ac	e8 00 00 00 00	 call	 ?make_error_code@std@@YA?AVerror_code@1@W4io_errc@1@@Z ; std::make_error_code
  000b1	83 c4 08	 add	 esp, 8
  000b4	8d 4d d4	 lea	 ecx, DWORD PTR $T2[ebp]
  000b7	50		 push	 eax
  000b8	56		 push	 esi
  000b9	e8 00 00 00 00	 call	 ??0failure@ios_base@std@@QAE@PBDABVerror_code@2@@Z ; std::ios_base::failure::failure
  000be	68 00 00 00 00	 push	 OFFSET __TI5?AVfailure@ios_base@std@@
  000c3	8d 45 d4	 lea	 eax, DWORD PTR $T2[ebp]
  000c6	50		 push	 eax
  000c7	e8 00 00 00 00	 call	 __CxxThrowException@8
$LN30@Osfx:
  000cc	cc		 int	 3
  000cd	cc		 int	 3
  000ce	cc		 int	 3
  000cf	cc		 int	 3
  000d0	cc		 int	 3
  000d1	cc		 int	 3
_TEXT	ENDS
;	COMDAT text$x
text$x	SEGMENT
__ehhandler$?_Osfx@?$basic_ostream@DU?$char_traits@D@std@@@std@@QAEXXZ:
  00000	90		 npad	 1
  00001	90		 npad	 1
  00002	8b 54 24 08	 mov	 edx, DWORD PTR [esp+8]
  00006	8d 42 0c	 lea	 eax, DWORD PTR [edx+12]
  00009	8b 4a d0	 mov	 ecx, DWORD PTR [edx-48]
  0000c	33 c8		 xor	 ecx, eax
  0000e	e8 00 00 00 00	 call	 @__security_check_cookie@4
  00013	b8 00 00 00 00	 mov	 eax, OFFSET __ehfuncinfo$?_Osfx@?$basic_ostream@DU?$char_traits@D@std@@@std@@QAEXXZ
  00018	e9 00 00 00 00	 jmp	 ___CxxFrameHandler3
text$x	ENDS
?_Osfx@?$basic_ostream@DU?$char_traits@D@std@@@std@@QAEXXZ ENDP ; std::basic_ostream<char,std::char_traits<char> >::_Osfx
; Function compile flags: /Ogtp
; File C:\Program Files (x86)\Microsoft Visual Studio\2019\Community\VC\Tools\MSVC\14.27.29110\include\ostream
;	COMDAT ??1?$basic_ostream@DU?$char_traits@D@std@@@std@@UAE@XZ
_TEXT	SEGMENT
??1?$basic_ostream@DU?$char_traits@D@std@@@std@@UAE@XZ PROC ; std::basic_ostream<char,std::char_traits<char> >::~basic_ostream<char,std::char_traits<char> >, COMDAT
; _this$ = ecx

; 63   :     virtual __CLR_OR_THIS_CALL ~basic_ostream() noexcept {}

  00000	8b 41 f8	 mov	 eax, DWORD PTR [ecx-8]
  00003	8b 40 04	 mov	 eax, DWORD PTR [eax+4]
  00006	c7 44 08 f8 00
	00 00 00	 mov	 DWORD PTR [eax+ecx-8], OFFSET ??_7?$basic_ostream@DU?$char_traits@D@std@@@std@@6B@
  0000e	8b 41 f8	 mov	 eax, DWORD PTR [ecx-8]
  00011	8b 50 04	 mov	 edx, DWORD PTR [eax+4]
  00014	8d 42 f8	 lea	 eax, DWORD PTR [edx-8]
  00017	89 44 0a f4	 mov	 DWORD PTR [edx+ecx-12], eax
  0001b	c3		 ret	 0
??1?$basic_ostream@DU?$char_traits@D@std@@@std@@UAE@XZ ENDP ; std::basic_ostream<char,std::char_traits<char> >::~basic_ostream<char,std::char_traits<char> >
_TEXT	ENDS
; Function compile flags: /Ogtp
; File C:\Program Files (x86)\Microsoft Visual Studio\2019\Community\VC\Tools\MSVC\14.27.29110\include\ostream
; File C:\Program Files (x86)\Microsoft Visual Studio\2019\Community\VC\Tools\MSVC\14.27.29110\include\ios
; File C:\Program Files (x86)\Microsoft Visual Studio\2019\Community\VC\Tools\MSVC\14.27.29110\include\ostream
; File C:\Program Files (x86)\Microsoft Visual Studio\2019\Community\VC\Tools\MSVC\14.27.29110\include\xiosbase
; File C:\Program Files (x86)\Microsoft Visual Studio\2019\Community\VC\Tools\MSVC\14.27.29110\include\ostream
; File C:\Program Files (x86)\Microsoft Visual Studio\2019\Community\VC\Tools\MSVC\14.27.29110\include\xiosbase
; File C:\Program Files (x86)\Microsoft Visual Studio\2019\Community\VC\Tools\MSVC\14.27.29110\include\xlocale
; File C:\Program Files (x86)\Microsoft Visual Studio\2019\Community\VC\Tools\MSVC\14.27.29110\include\xiosbase
; File C:\Program Files (x86)\Microsoft Visual Studio\2019\Community\VC\Tools\MSVC\14.27.29110\include\ios
; File C:\Program Files (x86)\Microsoft Visual Studio\2019\Community\VC\Tools\MSVC\14.27.29110\include\xiosbase
; File C:\Program Files (x86)\Microsoft Visual Studio\2019\Community\VC\Tools\MSVC\14.27.29110\include\ios
; File C:\Program Files (x86)\Microsoft Visual Studio\2019\Community\VC\Tools\MSVC\14.27.29110\include\xlocale
; File C:\Program Files (x86)\Microsoft Visual Studio\2019\Community\VC\Tools\MSVC\14.27.29110\include\ios
; File C:\Program Files (x86)\Microsoft Visual Studio\2019\Community\VC\Tools\MSVC\14.27.29110\include\xlocale
; File C:\Program Files (x86)\Microsoft Visual Studio\2019\Community\VC\Tools\MSVC\14.27.29110\include\ios
; File C:\Program Files (x86)\Microsoft Visual Studio\2019\Community\VC\Tools\MSVC\14.27.29110\include\xlocale
; File C:\Program Files (x86)\Microsoft Visual Studio\2019\Community\VC\Tools\MSVC\14.27.29110\include\ios
; File C:\Program Files (x86)\Microsoft Visual Studio\2019\Community\VC\Tools\MSVC\14.27.29110\include\xiosbase
; File C:\Program Files (x86)\Microsoft Visual Studio\2019\Community\VC\Tools\MSVC\14.27.29110\include\ios
; File C:\Program Files (x86)\Microsoft Visual Studio\2019\Community\VC\Tools\MSVC\14.27.29110\include\ostream
; File C:\Program Files (x86)\Microsoft Visual Studio\2019\Community\VC\Tools\MSVC\14.27.29110\include\xiosbase
; File C:\Program Files (x86)\Microsoft Visual Studio\2019\Community\VC\Tools\MSVC\14.27.29110\include\ostream
;	COMDAT ??0?$basic_ostream@DU?$char_traits@D@std@@@std@@QAE@PAV?$basic_streambuf@DU?$char_traits@D@std@@@1@_N@Z
_TEXT	SEGMENT
$T2 = -48						; size = 20
$T3 = -28						; size = 8
$T4 = -28						; size = 8
_this$ = -20						; size = 4
$T5 = -16						; size = 4
__$EHRec$ = -12						; size = 12
__Strbuf$ = 8						; size = 4
__Isstd$ = 12						; size = 1
_$initVBases$ = 16					; size = 4
$T6 = 19						; size = 1
??0?$basic_ostream@DU?$char_traits@D@std@@@std@@QAE@PAV?$basic_streambuf@DU?$char_traits@D@std@@@1@_N@Z PROC ; std::basic_ostream<char,std::char_traits<char> >::basic_ostream<char,std::char_traits<char> >, COMDAT
; _this$ = ecx

; 32   :     explicit __CLR_OR_THIS_CALL basic_ostream(basic_streambuf<_Elem, _Traits>* _Strbuf, bool _Isstd = false) {

  00000	55		 push	 ebp
  00001	8b ec		 mov	 ebp, esp
  00003	6a ff		 push	 -1
  00005	68 00 00 00 00	 push	 __ehhandler$??0?$basic_ostream@DU?$char_traits@D@std@@@std@@QAE@PAV?$basic_streambuf@DU?$char_traits@D@std@@@1@_N@Z
  0000a	64 a1 00 00 00
	00		 mov	 eax, DWORD PTR fs:0
  00010	50		 push	 eax
  00011	83 ec 24	 sub	 esp, 36			; 00000024H
  00014	53		 push	 ebx
  00015	56		 push	 esi
  00016	57		 push	 edi
  00017	a1 00 00 00 00	 mov	 eax, DWORD PTR ___security_cookie
  0001c	33 c5		 xor	 eax, ebp
  0001e	50		 push	 eax
  0001f	8d 45 f4	 lea	 eax, DWORD PTR __$EHRec$[ebp]
  00022	64 a3 00 00 00
	00		 mov	 DWORD PTR fs:0, eax
  00028	8b f9		 mov	 edi, ecx
  0002a	89 7d ec	 mov	 DWORD PTR _this$[ebp], edi
  0002d	83 7d 10 00	 cmp	 DWORD PTR _$initVBases$[ebp], 0
  00031	c7 45 f0 00 00
	00 00		 mov	 DWORD PTR $T5[ebp], 0
  00038	74 1b		 je	 SHORT $LN2@basic_ostr
  0003a	c7 07 00 00 00
	00		 mov	 DWORD PTR [edi], OFFSET ??_8?$basic_ostream@DU?$char_traits@D@std@@@std@@7B@
; File C:\Program Files (x86)\Microsoft Visual Studio\2019\Community\VC\Tools\MSVC\14.27.29110\include\ios

; 161  :     __CLR_OR_THIS_CALL basic_ios() {}

  00040	c7 47 08 00 00
	00 00		 mov	 DWORD PTR [edi+8], OFFSET ??_7?$basic_ios@DU?$char_traits@D@std@@@std@@6B@
; File C:\Program Files (x86)\Microsoft Visual Studio\2019\Community\VC\Tools\MSVC\14.27.29110\include\ostream

; 32   :     explicit __CLR_OR_THIS_CALL basic_ostream(basic_streambuf<_Elem, _Traits>* _Strbuf, bool _Isstd = false) {

  00047	c7 45 fc 00 00
	00 00		 mov	 DWORD PTR __$EHRec$[ebp+8], 0
  0004e	c7 45 f0 01 00
	00 00		 mov	 DWORD PTR $T5[ebp], 1
$LN2@basic_ostr:
  00055	8b 07		 mov	 eax, DWORD PTR [edi]
; File C:\Program Files (x86)\Microsoft Visual Studio\2019\Community\VC\Tools\MSVC\14.27.29110\include\xiosbase

; 472  :         _Ploc = new locale;

  00057	6a 08		 push	 8
; File C:\Program Files (x86)\Microsoft Visual Studio\2019\Community\VC\Tools\MSVC\14.27.29110\include\ostream

; 32   :     explicit __CLR_OR_THIS_CALL basic_ostream(basic_streambuf<_Elem, _Traits>* _Strbuf, bool _Isstd = false) {

  00059	8b 40 04	 mov	 eax, DWORD PTR [eax+4]
  0005c	c7 04 07 00 00
	00 00		 mov	 DWORD PTR [edi+eax], OFFSET ??_7?$basic_ostream@DU?$char_traits@D@std@@@std@@6B@
  00063	8b 07		 mov	 eax, DWORD PTR [edi]
  00065	8b 48 04	 mov	 ecx, DWORD PTR [eax+4]
  00068	8d 41 f8	 lea	 eax, DWORD PTR [ecx-8]
  0006b	89 44 39 fc	 mov	 DWORD PTR [ecx+edi-4], eax

; 33   :         _Myios::init(_Strbuf, _Isstd);

  0006f	8b 07		 mov	 eax, DWORD PTR [edi]
  00071	8b 70 04	 mov	 esi, DWORD PTR [eax+4]
  00074	03 f7		 add	 esi, edi
; File C:\Program Files (x86)\Microsoft Visual Studio\2019\Community\VC\Tools\MSVC\14.27.29110\include\xiosbase

; 463  :         _Ploc   = nullptr;

  00076	c7 46 30 00 00
	00 00		 mov	 DWORD PTR [esi+48], 0

; 464  :         _Stdstr = 0;

  0007d	c7 46 08 00 00
	00 00		 mov	 DWORD PTR [esi+8], 0

; 465  :         _Except = goodbit;

  00084	c7 46 10 00 00
	00 00		 mov	 DWORD PTR [esi+16], 0

; 466  :         _Fmtfl  = skipws | dec;

  0008b	c7 46 14 01 02
	00 00		 mov	 DWORD PTR [esi+20], 513	; 00000201H

; 467  :         _Prec   = 6;

  00092	c7 46 18 06 00
	00 00		 mov	 DWORD PTR [esi+24], 6
  00099	c7 46 1c 00 00
	00 00		 mov	 DWORD PTR [esi+28], 0

; 468  :         _Wide   = 0;

  000a0	c7 46 20 00 00
	00 00		 mov	 DWORD PTR [esi+32], 0
  000a7	c7 46 24 00 00
	00 00		 mov	 DWORD PTR [esi+36], 0

; 469  :         _Arr    = nullptr;

  000ae	c7 46 28 00 00
	00 00		 mov	 DWORD PTR [esi+40], 0

; 470  :         _Calls  = nullptr;

  000b5	c7 46 2c 00 00
	00 00		 mov	 DWORD PTR [esi+44], 0

; 245  :         _Mystate             = _State;

  000bc	c7 46 0c 00 00
	00 00		 mov	 DWORD PTR [esi+12], 0

; 472  :         _Ploc = new locale;

  000c3	e8 00 00 00 00	 call	 ??2@YAPAXI@Z		; operator new
  000c8	8b d8		 mov	 ebx, eax
  000ca	83 c4 04	 add	 esp, 4
  000cd	85 db		 test	 ebx, ebx
  000cf	74 16		 je	 SHORT $LN16@basic_ostr
; File C:\Program Files (x86)\Microsoft Visual Studio\2019\Community\VC\Tools\MSVC\14.27.29110\include\xlocale

; 271  :     locale() noexcept : _Ptr(_Init(true)) {}

  000d1	6a 01		 push	 1
  000d3	c7 45 fc 01 00
	00 00		 mov	 DWORD PTR __$EHRec$[ebp+8], 1
  000da	e8 00 00 00 00	 call	 ?_Init@locale@std@@CAPAV_Locimp@12@_N@Z ; std::locale::_Init
  000df	83 c4 04	 add	 esp, 4
  000e2	89 43 04	 mov	 DWORD PTR [ebx+4], eax
; File C:\Program Files (x86)\Microsoft Visual Studio\2019\Community\VC\Tools\MSVC\14.27.29110\include\xiosbase

; 472  :         _Ploc = new locale;

  000e5	eb 02		 jmp	 SHORT $LN17@basic_ostr
$LN16@basic_ostr:
  000e7	33 db		 xor	 ebx, ebx
$LN17@basic_ostr:
; File C:\Program Files (x86)\Microsoft Visual Studio\2019\Community\VC\Tools\MSVC\14.27.29110\include\ios

; 148  :         _Mystrbuf = _Strbuf;

  000e9	8b 45 08	 mov	 eax, DWORD PTR __Strbuf$[ebp]
; File C:\Program Files (x86)\Microsoft Visual Studio\2019\Community\VC\Tools\MSVC\14.27.29110\include\xiosbase

; 472  :         _Ploc = new locale;

  000ec	89 5e 30	 mov	 DWORD PTR [esi+48], ebx
; File C:\Program Files (x86)\Microsoft Visual Studio\2019\Community\VC\Tools\MSVC\14.27.29110\include\ios

; 148  :         _Mystrbuf = _Strbuf;

  000ef	89 46 38	 mov	 DWORD PTR [esi+56], eax

; 149  :         _Tiestr   = nullptr;

  000f2	c7 46 3c 00 00
	00 00		 mov	 DWORD PTR [esi+60], 0
; File C:\Program Files (x86)\Microsoft Visual Studio\2019\Community\VC\Tools\MSVC\14.27.29110\include\xlocale

; 267  :     locale(const locale& _Right) noexcept : _Ptr(_Right._Ptr) {

  000f9	8b 5b 04	 mov	 ebx, DWORD PTR [ebx+4]

; 268  :         _Ptr->_Incref();

  000fc	8b cb		 mov	 ecx, ebx
  000fe	89 5d e8	 mov	 DWORD PTR $T4[ebp+4], ebx
  00101	8b 03		 mov	 eax, DWORD PTR [ebx]
  00103	ff 50 04	 call	 DWORD PTR [eax+4]
; File C:\Program Files (x86)\Microsoft Visual Studio\2019\Community\VC\Tools\MSVC\14.27.29110\include\ios

; 115  :         return _STD use_facet<_Ctype>(getloc()).widen(_Byte);

  00106	8d 45 e4	 lea	 eax, DWORD PTR $T4[ebp]
  00109	c7 45 fc 02 00
	00 00		 mov	 DWORD PTR __$EHRec$[ebp+8], 2
  00110	50		 push	 eax
  00111	e8 00 00 00 00	 call	 ??$use_facet@V?$ctype@D@std@@@std@@YAABV?$ctype@D@0@ABVlocale@0@@Z ; std::use_facet<std::ctype<char> >
  00116	83 c4 04	 add	 esp, 4
; File C:\Program Files (x86)\Microsoft Visual Studio\2019\Community\VC\Tools\MSVC\14.27.29110\include\xlocale

; 2709 :         return do_widen(_Byte);

  00119	8b c8		 mov	 ecx, eax
  0011b	8b 10		 mov	 edx, DWORD PTR [eax]
  0011d	6a 20		 push	 32			; 00000020H
  0011f	8b 42 20	 mov	 eax, DWORD PTR [edx+32]
  00122	ff d0		 call	 eax
; File C:\Program Files (x86)\Microsoft Visual Studio\2019\Community\VC\Tools\MSVC\14.27.29110\include\ios

; 115  :         return _STD use_facet<_Ctype>(getloc()).widen(_Byte);

  00124	88 45 13	 mov	 BYTE PTR $T6[ebp], al
  00127	c6 45 fc 00	 mov	 BYTE PTR __$EHRec$[ebp+8], 0
  0012b	85 db		 test	 ebx, ebx
; File C:\Program Files (x86)\Microsoft Visual Studio\2019\Community\VC\Tools\MSVC\14.27.29110\include\xlocale

; 351  :         if (_Ptr) {

  0012d	74 16		 je	 SHORT $LN46@basic_ostr

; 352  :             delete _Ptr->_Decref();

  0012f	8b 13		 mov	 edx, DWORD PTR [ebx]
  00131	8b cb		 mov	 ecx, ebx
  00133	ff 52 08	 call	 DWORD PTR [edx+8]
  00136	85 c0		 test	 eax, eax
  00138	74 08		 je	 SHORT $LN64@basic_ostr
  0013a	8b 10		 mov	 edx, DWORD PTR [eax]
  0013c	8b c8		 mov	 ecx, eax
  0013e	6a 01		 push	 1
  00140	ff 12		 call	 DWORD PTR [edx]
$LN64@basic_ostr:
; File C:\Program Files (x86)\Microsoft Visual Studio\2019\Community\VC\Tools\MSVC\14.27.29110\include\ios

; 150  :         _Fillch   = widen(' ');

  00142	8a 45 13	 mov	 al, BYTE PTR $T6[ebp]
$LN46@basic_ostr:

; 151  : 
; 152  :         if (!_Mystrbuf) {

  00145	83 7e 38 00	 cmp	 DWORD PTR [esi+56], 0
  00149	88 46 40	 mov	 BYTE PTR [esi+64], al
  0014c	75 13		 jne	 SHORT $LN53@basic_ostr
; File C:\Program Files (x86)\Microsoft Visual Studio\2019\Community\VC\Tools\MSVC\14.27.29110\include\xiosbase

; 244  :         _State &= _Statmask;

  0014e	8b 46 0c	 mov	 eax, DWORD PTR [esi+12]

; 246  :         const auto _Filtered = _State & _Except;

  00151	8b 4e 10	 mov	 ecx, DWORD PTR [esi+16]
  00154	83 e0 13	 and	 eax, 19			; 00000013H
  00157	83 c8 04	 or	 eax, 4
  0015a	89 46 0c	 mov	 DWORD PTR [esi+12], eax
  0015d	23 c8		 and	 ecx, eax

; 247  :         if (_Filtered) {

  0015f	75 25		 jne	 SHORT $LN68@basic_ostr
$LN53@basic_ostr:
; File C:\Program Files (x86)\Microsoft Visual Studio\2019\Community\VC\Tools\MSVC\14.27.29110\include\ios

; 156  :         if (_Isstd) {

  00161	80 7d 0c 00	 cmp	 BYTE PTR __Isstd$[ebp], 0
  00165	74 09		 je	 SHORT $LN12@basic_ostr

; 157  :             _Addstd(this); // special handling for standard streams

  00167	56		 push	 esi
  00168	e8 00 00 00 00	 call	 ?_Addstd@ios_base@std@@SAXPAV12@@Z ; std::ios_base::_Addstd
  0016d	83 c4 04	 add	 esp, 4
$LN12@basic_ostr:
; File C:\Program Files (x86)\Microsoft Visual Studio\2019\Community\VC\Tools\MSVC\14.27.29110\include\ostream

; 34   :     }

  00170	8b c7		 mov	 eax, edi
  00172	8b 4d f4	 mov	 ecx, DWORD PTR __$EHRec$[ebp]
  00175	64 89 0d 00 00
	00 00		 mov	 DWORD PTR fs:0, ecx
  0017c	59		 pop	 ecx
  0017d	5f		 pop	 edi
  0017e	5e		 pop	 esi
  0017f	5b		 pop	 ebx
  00180	8b e5		 mov	 esp, ebp
  00182	5d		 pop	 ebp
  00183	c2 0c 00	 ret	 12			; 0000000cH
$LN68@basic_ostr:
; File C:\Program Files (x86)\Microsoft Visual Studio\2019\Community\VC\Tools\MSVC\14.27.29110\include\xiosbase

; 253  :             if (_Filtered & ios_base::badbit) {

  00186	f6 c1 04	 test	 cl, 4
  00189	74 07		 je	 SHORT $LN55@basic_ostr

; 254  :                 _Msg = "ios_base::badbit set";

  0018b	be 00 00 00 00	 mov	 esi, OFFSET ??_C@_0BF@PHHKMMFD@ios_base?3?3badbit?5set@
  00190	eb 10		 jmp	 SHORT $LN57@basic_ostr
$LN55@basic_ostr:

; 255  :             } else if (_Filtered & ios_base::failbit) {

  00192	f6 c1 02	 test	 cl, 2
  00195	be 00 00 00 00	 mov	 esi, OFFSET ??_C@_0BG@FMKFHCIL@ios_base?3?3failbit?5set@
  0019a	b8 00 00 00 00	 mov	 eax, OFFSET ??_C@_0BF@OOHOMBOF@ios_base?3?3eofbit?5set@
  0019f	0f 44 f0	 cmove	 esi, eax
$LN57@basic_ostr:

; 256  :                 _Msg = "ios_base::failbit set";
; 257  :             } else {
; 258  :                 _Msg = "ios_base::eofbit set";
; 259  :             }
; 260  : 
; 261  :             _THROW(failure(_Msg));

  001a2	8d 45 e4	 lea	 eax, DWORD PTR $T3[ebp]
  001a5	6a 01		 push	 1
  001a7	50		 push	 eax
  001a8	e8 00 00 00 00	 call	 ?make_error_code@std@@YA?AVerror_code@1@W4io_errc@1@@Z ; std::make_error_code
  001ad	83 c4 08	 add	 esp, 8
  001b0	8d 4d d0	 lea	 ecx, DWORD PTR $T2[ebp]
  001b3	50		 push	 eax
  001b4	56		 push	 esi
  001b5	e8 00 00 00 00	 call	 ??0failure@ios_base@std@@QAE@PBDABVerror_code@2@@Z ; std::ios_base::failure::failure
  001ba	68 00 00 00 00	 push	 OFFSET __TI5?AVfailure@ios_base@std@@
  001bf	8d 45 d0	 lea	 eax, DWORD PTR $T2[ebp]
  001c2	50		 push	 eax
  001c3	e8 00 00 00 00	 call	 __CxxThrowException@8
$LN66@basic_ostr:
  001c8	cc		 int	 3
_TEXT	ENDS
;	COMDAT text$x
text$x	SEGMENT
__unwindfunclet$??0?$basic_ostream@DU?$char_traits@D@std@@@std@@QAE@PAV?$basic_streambuf@DU?$char_traits@D@std@@@1@_N@Z$0:
  00000	8b 45 f0	 mov	 eax, DWORD PTR $T5[ebp]
  00003	83 e0 01	 and	 eax, 1
  00006	0f 84 0f 00 00
	00		 je	 $LN5@basic_ostr
  0000c	83 65 f0 fe	 and	 DWORD PTR $T5[ebp], -2	; fffffffeH
  00010	8b 4d ec	 mov	 ecx, DWORD PTR _this$[ebp]
  00013	83 c1 08	 add	 ecx, 8
  00016	e9 00 00 00 00	 jmp	 ??1?$basic_ios@DU?$char_traits@D@std@@@std@@UAE@XZ ; std::basic_ios<char,std::char_traits<char> >::~basic_ios<char,std::char_traits<char> >
$LN5@basic_ostr:
  0001b	c3		 ret	 0
__unwindfunclet$??0?$basic_ostream@DU?$char_traits@D@std@@@std@@QAE@PAV?$basic_streambuf@DU?$char_traits@D@std@@@1@_N@Z$2:
  0001c	8d 4d e4	 lea	 ecx, DWORD PTR $T4[ebp]
  0001f	e9 00 00 00 00	 jmp	 ??1locale@std@@QAE@XZ	; std::locale::~locale
  00024	cc		 int	 3
  00025	cc		 int	 3
  00026	cc		 int	 3
  00027	cc		 int	 3
  00028	cc		 int	 3
__ehhandler$??0?$basic_ostream@DU?$char_traits@D@std@@@std@@QAE@PAV?$basic_streambuf@DU?$char_traits@D@std@@@1@_N@Z:
  00029	90		 npad	 1
  0002a	90		 npad	 1
  0002b	8b 54 24 08	 mov	 edx, DWORD PTR [esp+8]
  0002f	8d 42 0c	 lea	 eax, DWORD PTR [edx+12]
  00032	8b 4a cc	 mov	 ecx, DWORD PTR [edx-52]
  00035	33 c8		 xor	 ecx, eax
  00037	e8 00 00 00 00	 call	 @__security_check_cookie@4
  0003c	b8 00 00 00 00	 mov	 eax, OFFSET __ehfuncinfo$??0?$basic_ostream@DU?$char_traits@D@std@@@std@@QAE@PAV?$basic_streambuf@DU?$char_traits@D@std@@@1@_N@Z
  00041	e9 00 00 00 00	 jmp	 ___CxxFrameHandler3
text$x	ENDS
??0?$basic_ostream@DU?$char_traits@D@std@@@std@@QAE@PAV?$basic_streambuf@DU?$char_traits@D@std@@@1@_N@Z ENDP ; std::basic_ostream<char,std::char_traits<char> >::basic_ostream<char,std::char_traits<char> >
; Function compile flags: /Ogtp
; File C:\Program Files (x86)\Microsoft Visual Studio\2019\Community\VC\Tools\MSVC\14.27.29110\include\xiosbase
;	COMDAT ??_G?$basic_ios@DU?$char_traits@D@std@@@std@@UAEPAXI@Z
_TEXT	SEGMENT
__$EHRec$ = -12						; size = 12
___flags$ = 8						; size = 4
??_G?$basic_ios@DU?$char_traits@D@std@@@std@@UAEPAXI@Z PROC ; std::basic_ios<char,std::char_traits<char> >::`scalar deleting destructor', COMDAT
; _this$ = ecx
  00000	55		 push	 ebp
  00001	8b ec		 mov	 ebp, esp
  00003	6a ff		 push	 -1
  00005	68 00 00 00 00	 push	 __ehhandler$??_G?$basic_ios@DU?$char_traits@D@std@@@std@@UAEPAXI@Z
  0000a	64 a1 00 00 00
	00		 mov	 eax, DWORD PTR fs:0
  00010	50		 push	 eax
  00011	56		 push	 esi
  00012	a1 00 00 00 00	 mov	 eax, DWORD PTR ___security_cookie
  00017	33 c5		 xor	 eax, ebp
  00019	50		 push	 eax
  0001a	8d 45 f4	 lea	 eax, DWORD PTR __$EHRec$[ebp]
  0001d	64 a3 00 00 00
	00		 mov	 DWORD PTR fs:0, eax
  00023	8b f1		 mov	 esi, ecx

; 452  :         _Ios_base_dtor(this);

  00025	56		 push	 esi
  00026	c7 45 fc 00 00
	00 00		 mov	 DWORD PTR __$EHRec$[ebp+8], 0
  0002d	c7 06 00 00 00
	00		 mov	 DWORD PTR [esi], OFFSET ??_7ios_base@std@@6B@
  00033	e8 00 00 00 00	 call	 ?_Ios_base_dtor@ios_base@std@@CAXPAV12@@Z ; std::ios_base::_Ios_base_dtor
  00038	83 c4 04	 add	 esp, 4
  0003b	f6 45 08 01	 test	 BYTE PTR ___flags$[ebp], 1
  0003f	74 0b		 je	 SHORT $LN10@scalar
  00041	6a 48		 push	 72			; 00000048H
  00043	56		 push	 esi
  00044	e8 00 00 00 00	 call	 ??3@YAXPAXI@Z		; operator delete
  00049	83 c4 08	 add	 esp, 8
$LN10@scalar:
  0004c	8b c6		 mov	 eax, esi
  0004e	8b 4d f4	 mov	 ecx, DWORD PTR __$EHRec$[ebp]
  00051	64 89 0d 00 00
	00 00		 mov	 DWORD PTR fs:0, ecx
  00058	59		 pop	 ecx
  00059	5e		 pop	 esi
  0005a	8b e5		 mov	 esp, ebp
  0005c	5d		 pop	 ebp
  0005d	c2 04 00	 ret	 4
  00060	cc		 int	 3
  00061	cc		 int	 3
  00062	cc		 int	 3
  00063	cc		 int	 3
  00064	cc		 int	 3
_TEXT	ENDS
;	COMDAT text$x
text$x	SEGMENT
__ehhandler$??_G?$basic_ios@DU?$char_traits@D@std@@@std@@UAEPAXI@Z:
  00000	90		 npad	 1
  00001	90		 npad	 1
  00002	8b 54 24 08	 mov	 edx, DWORD PTR [esp+8]
  00006	8d 42 0c	 lea	 eax, DWORD PTR [edx+12]
  00009	8b 4a f8	 mov	 ecx, DWORD PTR [edx-8]
  0000c	33 c8		 xor	 ecx, eax
  0000e	e8 00 00 00 00	 call	 @__security_check_cookie@4
  00013	b8 00 00 00 00	 mov	 eax, OFFSET __ehfuncinfo$??_G?$basic_ios@DU?$char_traits@D@std@@@std@@UAEPAXI@Z
  00018	e9 00 00 00 00	 jmp	 ___CxxFrameHandler3
text$x	ENDS
??_G?$basic_ios@DU?$char_traits@D@std@@@std@@UAEPAXI@Z ENDP ; std::basic_ios<char,std::char_traits<char> >::`scalar deleting destructor'
; Function compile flags: /Ogtp
; File C:\Program Files (x86)\Microsoft Visual Studio\2019\Community\VC\Tools\MSVC\14.27.29110\include\ios
;	COMDAT ?setstate@?$basic_ios@DU?$char_traits@D@std@@@std@@QAEXH_N@Z
_TEXT	SEGMENT
__State$ = 8						; size = 4
__Reraise$ = 12						; size = 1
?setstate@?$basic_ios@DU?$char_traits@D@std@@@std@@QAEXH_N@Z PROC ; std::basic_ios<char,std::char_traits<char> >::setstate, COMDAT
; _this$ = ecx

; 52   :         iostate _State, bool _Reraise = false) { // merge _State into state, possibly reraise exception

  00000	55		 push	 ebp
  00001	8b ec		 mov	 ebp, esp

; 42   :         ios_base::clear(_State | (_Mystrbuf ? ios_base::_Iostate{} : ios_base::badbit), _Reraise);

  00003	ff 75 0c	 push	 DWORD PTR __Reraise$[ebp]
  00006	33 d2		 xor	 edx, edx
  00008	b8 04 00 00 00	 mov	 eax, 4
  0000d	39 51 38	 cmp	 DWORD PTR [ecx+56], edx
  00010	0f 45 c2	 cmovne	 eax, edx
  00013	0b 41 0c	 or	 eax, DWORD PTR [ecx+12]
  00016	0b 45 08	 or	 eax, DWORD PTR __State$[ebp]
  00019	50		 push	 eax
  0001a	e8 00 00 00 00	 call	 ?clear@ios_base@std@@QAEXH_N@Z ; std::ios_base::clear

; 53   :         clear(rdstate() | _State, _Reraise);
; 54   :     }

  0001f	5d		 pop	 ebp
  00020	c2 08 00	 ret	 8
?setstate@?$basic_ios@DU?$char_traits@D@std@@@std@@QAEXH_N@Z ENDP ; std::basic_ios<char,std::char_traits<char> >::setstate
_TEXT	ENDS
; Function compile flags: /Ogtp
; File C:\Program Files (x86)\Microsoft Visual Studio\2019\Community\VC\Tools\MSVC\14.27.29110\include\ios
; File C:\Program Files (x86)\Microsoft Visual Studio\2019\Community\VC\Tools\MSVC\14.27.29110\include\xiosbase
; File C:\Program Files (x86)\Microsoft Visual Studio\2019\Community\VC\Tools\MSVC\14.27.29110\include\ios
;	COMDAT ??1?$basic_ios@DU?$char_traits@D@std@@@std@@UAE@XZ
_TEXT	SEGMENT
__$EHRec$ = -12						; size = 12
??1?$basic_ios@DU?$char_traits@D@std@@@std@@UAE@XZ PROC	; std::basic_ios<char,std::char_traits<char> >::~basic_ios<char,std::char_traits<char> >, COMDAT
; _this$ = ecx

; 38   :     virtual __CLR_OR_THIS_CALL ~basic_ios() noexcept {}

  00000	55		 push	 ebp
  00001	8b ec		 mov	 ebp, esp
  00003	6a ff		 push	 -1
  00005	68 00 00 00 00	 push	 __ehhandler$??1?$basic_ios@DU?$char_traits@D@std@@@std@@UAE@XZ
  0000a	64 a1 00 00 00
	00		 mov	 eax, DWORD PTR fs:0
  00010	50		 push	 eax
  00011	a1 00 00 00 00	 mov	 eax, DWORD PTR ___security_cookie
  00016	33 c5		 xor	 eax, ebp
  00018	50		 push	 eax
  00019	8d 45 f4	 lea	 eax, DWORD PTR __$EHRec$[ebp]
  0001c	64 a3 00 00 00
	00		 mov	 DWORD PTR fs:0, eax
; File C:\Program Files (x86)\Microsoft Visual Studio\2019\Community\VC\Tools\MSVC\14.27.29110\include\xiosbase

; 452  :         _Ios_base_dtor(this);

  00022	51		 push	 ecx
  00023	c7 45 fc 00 00
	00 00		 mov	 DWORD PTR __$EHRec$[ebp+8], 0
  0002a	c7 01 00 00 00
	00		 mov	 DWORD PTR [ecx], OFFSET ??_7ios_base@std@@6B@
  00030	e8 00 00 00 00	 call	 ?_Ios_base_dtor@ios_base@std@@CAXPAV12@@Z ; std::ios_base::_Ios_base_dtor
  00035	83 c4 04	 add	 esp, 4
; File C:\Program Files (x86)\Microsoft Visual Studio\2019\Community\VC\Tools\MSVC\14.27.29110\include\ios

; 38   :     virtual __CLR_OR_THIS_CALL ~basic_ios() noexcept {}

  00038	8b 4d f4	 mov	 ecx, DWORD PTR __$EHRec$[ebp]
  0003b	64 89 0d 00 00
	00 00		 mov	 DWORD PTR fs:0, ecx
  00042	59		 pop	 ecx
  00043	8b e5		 mov	 esp, ebp
  00045	5d		 pop	 ebp
  00046	c3		 ret	 0
  00047	cc		 int	 3
  00048	cc		 int	 3
  00049	cc		 int	 3
  0004a	cc		 int	 3
  0004b	cc		 int	 3
_TEXT	ENDS
;	COMDAT text$x
text$x	SEGMENT
__ehhandler$??1?$basic_ios@DU?$char_traits@D@std@@@std@@UAE@XZ:
  00000	90		 npad	 1
  00001	90		 npad	 1
  00002	8b 54 24 08	 mov	 edx, DWORD PTR [esp+8]
  00006	8d 42 0c	 lea	 eax, DWORD PTR [edx+12]
  00009	8b 4a fc	 mov	 ecx, DWORD PTR [edx-4]
  0000c	33 c8		 xor	 ecx, eax
  0000e	e8 00 00 00 00	 call	 @__security_check_cookie@4
  00013	b8 00 00 00 00	 mov	 eax, OFFSET __ehfuncinfo$??1?$basic_ios@DU?$char_traits@D@std@@@std@@UAE@XZ
  00018	e9 00 00 00 00	 jmp	 ___CxxFrameHandler3
text$x	ENDS
??1?$basic_ios@DU?$char_traits@D@std@@@std@@UAE@XZ ENDP	; std::basic_ios<char,std::char_traits<char> >::~basic_ios<char,std::char_traits<char> >
; Function compile flags: /Ogtp
; File C:\DS Project\DS Files\Source\ClientSource\Client\EterBase\error.cpp
; File C:\Program Files (x86)\Microsoft Visual Studio\2019\Community\VC\Tools\MSVC\14.27.29110\include\xstring
; File C:\DS Project\DS Files\Source\ClientSource\Client\EterBase\error.cpp
; File C:\Program Files (x86)\Windows Kits\10\Include\10.0.18362.0\ucrt\time.h
; File C:\DS Project\DS Files\Source\ClientSource\Client\EterBase\error.cpp
; File C:\Program Files (x86)\Microsoft Visual Studio\2019\Community\VC\Tools\MSVC\14.27.29110\include\sstream
; File C:\Program Files (x86)\Microsoft Visual Studio\2019\Community\VC\Tools\MSVC\14.27.29110\include\ios
; File C:\Program Files (x86)\Microsoft Visual Studio\2019\Community\VC\Tools\MSVC\14.27.29110\include\sstream
; File C:\Program Files (x86)\Microsoft Visual Studio\2019\Community\VC\Tools\MSVC\14.27.29110\include\streambuf
; File C:\Program Files (x86)\Microsoft Visual Studio\2019\Community\VC\Tools\MSVC\14.27.29110\include\sstream
; File C:\Program Files (x86)\Microsoft Visual Studio\2019\Community\VC\Tools\MSVC\14.27.29110\include\streambuf
; File C:\Program Files (x86)\Microsoft Visual Studio\2019\Community\VC\Tools\MSVC\14.27.29110\include\xlocale
; File C:\Program Files (x86)\Microsoft Visual Studio\2019\Community\VC\Tools\MSVC\14.27.29110\include\streambuf
; File C:\Program Files (x86)\Microsoft Visual Studio\2019\Community\VC\Tools\MSVC\14.27.29110\include\sstream
; File C:\Program Files (x86)\Windows Kits\10\Include\10.0.18362.0\ucrt\time.h
; File C:\DS Project\DS Files\Source\ClientSource\Client\EterBase\error.cpp
; File C:\Program Files (x86)\Windows Kits\10\Include\10.0.18362.0\ucrt\time.h
; File C:\DS Project\DS Files\Source\ClientSource\Client\EterBase\error.cpp
; File C:\Program Files (x86)\Microsoft Visual Studio\2019\Community\VC\Tools\MSVC\14.27.29110\include\sstream
; File C:\Program Files (x86)\Microsoft Visual Studio\2019\Community\VC\Tools\MSVC\14.27.29110\include\xstring
; File C:\Program Files (x86)\Microsoft Visual Studio\2019\Community\VC\Tools\MSVC\14.27.29110\include\sstream
; File C:\Program Files (x86)\Microsoft Visual Studio\2019\Community\VC\Tools\MSVC\14.27.29110\include\streambuf
; File C:\Program Files (x86)\Microsoft Visual Studio\2019\Community\VC\Tools\MSVC\14.27.29110\include\sstream
; File C:\Program Files (x86)\Microsoft Visual Studio\2019\Community\VC\Tools\MSVC\14.27.29110\include\streambuf
; File C:\Program Files (x86)\Microsoft Visual Studio\2019\Community\VC\Tools\MSVC\14.27.29110\include\sstream
; File C:\Program Files (x86)\Microsoft Visual Studio\2019\Community\VC\Tools\MSVC\14.27.29110\include\streambuf
; File C:\Program Files (x86)\Microsoft Visual Studio\2019\Community\VC\Tools\MSVC\14.27.29110\include\sstream
; File C:\Program Files (x86)\Microsoft Visual Studio\2019\Community\VC\Tools\MSVC\14.27.29110\include\streambuf
; File C:\Program Files (x86)\Microsoft Visual Studio\2019\Community\VC\Tools\MSVC\14.27.29110\include\sstream
; File C:\Program Files (x86)\Microsoft Visual Studio\2019\Community\VC\Tools\MSVC\14.27.29110\include\streambuf
; File C:\Program Files (x86)\Microsoft Visual Studio\2019\Community\VC\Tools\MSVC\14.27.29110\include\sstream
; File C:\Program Files (x86)\Microsoft Visual Studio\2019\Community\VC\Tools\MSVC\14.27.29110\include\streambuf
; File C:\Program Files (x86)\Microsoft Visual Studio\2019\Community\VC\Tools\MSVC\14.27.29110\include\sstream
; File C:\Program Files (x86)\Microsoft Visual Studio\2019\Community\VC\Tools\MSVC\14.27.29110\include\xstring
; File C:\Program Files (x86)\Microsoft Visual Studio\2019\Community\VC\Tools\MSVC\14.27.29110\include\xmemory
; File C:\Program Files (x86)\Microsoft Visual Studio\2019\Community\VC\Tools\MSVC\14.27.29110\include\xstring
; File C:\Program Files (x86)\Microsoft Visual Studio\2019\Community\VC\Tools\MSVC\14.27.29110\include\sstream
; File C:\Program Files (x86)\Microsoft Visual Studio\2019\Community\VC\Tools\MSVC\14.27.29110\include\xstring
; File C:\Program Files (x86)\Microsoft Visual Studio\2019\Community\VC\Tools\MSVC\14.27.29110\include\string
; File C:\DS Project\DS Files\Source\ClientSource\Client\EterBase\error.cpp
; File C:\Program Files (x86)\Microsoft Visual Studio\2019\Community\VC\Tools\MSVC\14.27.29110\include\string
; File C:\Program Files (x86)\Microsoft Visual Studio\2019\Community\VC\Tools\MSVC\14.27.29110\include\xstring
; File C:\DS Project\DS Files\Source\ClientSource\Client\EterBase\error.cpp
; File C:\Program Files (x86)\Microsoft Visual Studio\2019\Community\VC\Tools\MSVC\14.27.29110\include\xstring
; File C:\Program Files (x86)\Microsoft Visual Studio\2019\Community\VC\Tools\MSVC\14.27.29110\include\xmemory
; File C:\Program Files (x86)\Microsoft Visual Studio\2019\Community\VC\Tools\MSVC\14.27.29110\include\xstring
; File C:\Program Files (x86)\Microsoft Visual Studio\2019\Community\VC\Tools\MSVC\14.27.29110\include\xmemory
; File C:\Program Files (x86)\Microsoft Visual Studio\2019\Community\VC\Tools\MSVC\14.27.29110\include\xstring
; File C:\Program Files (x86)\Microsoft Visual Studio\2019\Community\VC\Tools\MSVC\14.27.29110\include\xmemory
; File C:\Program Files (x86)\Microsoft Visual Studio\2019\Community\VC\Tools\MSVC\14.27.29110\include\xstring
; File C:\Program Files (x86)\Microsoft Visual Studio\2019\Community\VC\Tools\MSVC\14.27.29110\include\xmemory
; File C:\Program Files (x86)\Microsoft Visual Studio\2019\Community\VC\Tools\MSVC\14.27.29110\include\xstring
; File C:\Program Files (x86)\Microsoft Visual Studio\2019\Community\VC\Tools\MSVC\14.27.29110\include\xmemory
; File C:\Program Files (x86)\Microsoft Visual Studio\2019\Community\VC\Tools\MSVC\14.27.29110\include\xstring
; File C:\Program Files (x86)\Microsoft Visual Studio\2019\Community\VC\Tools\MSVC\14.27.29110\include\xmemory
; File C:\Program Files (x86)\Microsoft Visual Studio\2019\Community\VC\Tools\MSVC\14.27.29110\include\xstring
; File C:\Program Files (x86)\Microsoft Visual Studio\2019\Community\VC\Tools\MSVC\14.27.29110\include\xmemory
; File C:\Program Files (x86)\Microsoft Visual Studio\2019\Community\VC\Tools\MSVC\14.27.29110\include\xstring
; File C:\Program Files (x86)\Microsoft Visual Studio\2019\Community\VC\Tools\MSVC\14.27.29110\include\xmemory
; File C:\Program Files (x86)\Microsoft Visual Studio\2019\Community\VC\Tools\MSVC\14.27.29110\include\xstring
; File C:\Program Files (x86)\Microsoft Visual Studio\2019\Community\VC\Tools\MSVC\14.27.29110\include\xmemory
; File C:\Program Files (x86)\Microsoft Visual Studio\2019\Community\VC\Tools\MSVC\14.27.29110\include\xstring
; File C:\DS Project\DS Files\Source\ClientSource\Client\EterBase\error.cpp
; File C:\Program Files (x86)\Microsoft Visual Studio\2019\Community\VC\Tools\MSVC\14.27.29110\include\xstring
; File C:\Program Files (x86)\Microsoft Visual Studio\2019\Community\VC\Tools\MSVC\14.27.29110\include\xmemory
; File C:\Program Files (x86)\Microsoft Visual Studio\2019\Community\VC\Tools\MSVC\14.27.29110\include\xstring
; File C:\DS Project\DS Files\Source\ClientSource\Client\EterBase\error.cpp
; File C:\Program Files (x86)\Microsoft Visual Studio\2019\Community\VC\Tools\MSVC\14.27.29110\include\xstring
; File C:\DS Project\DS Files\Source\ClientSource\Client\EterBase\error.cpp
; File C:\Program Files (x86)\Microsoft Visual Studio\2019\Community\VC\Tools\MSVC\14.27.29110\include\xstring
; File C:\Program Files (x86)\Microsoft Visual Studio\2019\Community\VC\Tools\MSVC\14.27.29110\include\xmemory
; File C:\DS Project\DS Files\Source\ClientSource\Client\EterBase\error.cpp
; File C:\Program Files (x86)\Microsoft Visual Studio\2019\Community\VC\Tools\MSVC\14.27.29110\include\xstring
; File C:\DS Project\DS Files\Source\ClientSource\Client\EterBase\error.cpp
; File C:\Program Files (x86)\Microsoft Visual Studio\2019\Community\VC\Tools\MSVC\14.27.29110\include\xstring
; File C:\Program Files (x86)\Microsoft Visual Studio\2019\Community\VC\Tools\MSVC\14.27.29110\include\xmemory
; File C:\DS Project\DS Files\Source\ClientSource\Client\EterBase\error.cpp
; File C:\Program Files (x86)\Microsoft Visual Studio\2019\Community\VC\Tools\MSVC\14.27.29110\include\xstring
; File C:\DS Project\DS Files\Source\ClientSource\Client\EterBase\error.cpp
;	COMDAT ?make_minidump@@YAXPAU_EXCEPTION_POINTERS@@@Z
_TEXT	SEGMENT
_timefmt$ = -492					; size = 152
_exceptionInfo$ = -340					; size = 12
_t$ = -328						; size = 8
_pMiniDumpWriteDump$1$ = -320				; size = 4
__Base$1$ = -316					; size = 4
_e$GSCopy$1$ = -312					; size = 4
__New_ptr$2 = -308					; size = 4
$T3 = -308						; size = 4
$T4 = -304						; size = 24
$T5 = -280						; size = 24
$T6 = -256						; size = 24
$T7 = -232						; size = 24
$T8 = -208						; size = 24
$T9 = -184						; size = 24
$T10 = -160						; size = 24
_folder$ = -136						; size = 24
_filename$ = -112					; size = 24
$T11 = -88						; size = 24
$T12 = -64						; size = 24
$T13 = -40						; size = 24
$T14 = -28						; size = 12
__$ArrayPad$ = -16					; size = 4
__$EHRec$ = -12						; size = 12
_e$ = 8							; size = 4
?make_minidump@@YAXPAU_EXCEPTION_POINTERS@@@Z PROC	; make_minidump, COMDAT

; 16   : {

  00000	55		 push	 ebp
  00001	8b ec		 mov	 ebp, esp
  00003	6a ff		 push	 -1
  00005	68 00 00 00 00	 push	 __ehhandler$?make_minidump@@YAXPAU_EXCEPTION_POINTERS@@@Z
  0000a	64 a1 00 00 00
	00		 mov	 eax, DWORD PTR fs:0
  00010	50		 push	 eax
  00011	81 ec e0 01 00
	00		 sub	 esp, 480		; 000001e0H
  00017	a1 00 00 00 00	 mov	 eax, DWORD PTR ___security_cookie
  0001c	33 c5		 xor	 eax, ebp
  0001e	89 45 f0	 mov	 DWORD PTR __$ArrayPad$[ebp], eax
  00021	53		 push	 ebx
  00022	56		 push	 esi
  00023	57		 push	 edi
  00024	50		 push	 eax
  00025	8d 45 f4	 lea	 eax, DWORD PTR __$EHRec$[ebp]
  00028	64 a3 00 00 00
	00		 mov	 DWORD PTR fs:0, eax
  0002e	8b 7d 08	 mov	 edi, DWORD PTR _e$[ebp]

; 17   : 	auto hDbgHelp = LoadLibraryA("dbghelp");

  00031	68 00 00 00 00	 push	 OFFSET ??_C@_07MOMJMPG@dbghelp@
  00036	89 bd c8 fe ff
	ff		 mov	 DWORD PTR _e$GSCopy$1$[ebp], edi
  0003c	c7 85 cc fe ff
	ff 00 00 00 00	 mov	 DWORD PTR $T3[ebp], 0
  00046	ff 15 00 00 00
	00		 call	 DWORD PTR __imp__LoadLibraryA@4

; 18   : 	if (hDbgHelp == nullptr)

  0004c	85 c0		 test	 eax, eax
  0004e	0f 84 4f 06 00
	00		 je	 $LN452@make_minid

; 19   : 		return;
; 20   : 	auto pMiniDumpWriteDump = (decltype(&MiniDumpWriteDump))GetProcAddress(hDbgHelp, "MiniDumpWriteDump");

  00054	68 00 00 00 00	 push	 OFFSET ??_C@_0BC@MNIKNFKD@MiniDumpWriteDump@
  00059	50		 push	 eax
  0005a	ff 15 00 00 00
	00		 call	 DWORD PTR __imp__GetProcAddress@8
  00060	8b d8		 mov	 ebx, eax
  00062	89 9d c0 fe ff
	ff		 mov	 DWORD PTR _pMiniDumpWriteDump$1$[ebp], ebx

; 21   : 	if (pMiniDumpWriteDump == nullptr)

  00068	85 db		 test	 ebx, ebx
  0006a	0f 84 33 06 00
	00		 je	 $LN452@make_minid
; File C:\Program Files (x86)\Microsoft Visual Studio\2019\Community\VC\Tools\MSVC\14.27.29110\include\xstring

; 4294 :         _Mypair._Myval2._Myres  = _BUF_SIZE - 1;

  00070	c7 45 8c 0f 00
	00 00		 mov	 DWORD PTR _folder$[ebp+20], 15 ; 0000000fH

; 2968 :             _Mypair._Myval2._Mysize = _Count;

  00077	c7 45 88 04 00
	00 00		 mov	 DWORD PTR _folder$[ebp+16], 4

; 363  :         return static_cast<_Elem*>(_CSTD memmove(_First1, _First2, _Count));

  0007e	c7 85 78 ff ff
	ff 6c 6f 67 73	 mov	 DWORD PTR _folder$[ebp], 1936158572 ; 73676f6cH

; 2970 :             _Traits::assign(_Old_ptr[_Count], _Elem());

  00088	c6 85 7c ff ff
	ff 00		 mov	 BYTE PTR _folder$[ebp+4], 0
; File C:\DS Project\DS Files\Source\ClientSource\Client\EterBase\error.cpp

; 25   : 	CreateDirectoryA(folder.c_str(), nullptr);

  0008f	6a 00		 push	 0
  00091	8d 85 78 ff ff
	ff		 lea	 eax, DWORD PTR _folder$[ebp]
  00097	c7 45 fc 00 00
	00 00		 mov	 DWORD PTR __$EHRec$[ebp+8], 0
  0009e	50		 push	 eax
  0009f	ff 15 00 00 00
	00		 call	 DWORD PTR __imp__CreateDirectoryA@8
; File C:\Program Files (x86)\Windows Kits\10\Include\10.0.18362.0\ucrt\time.h

; 536  :             return _time64(_Time);

  000a5	6a 00		 push	 0
  000a7	e8 00 00 00 00	 call	 __time64
  000ac	83 c4 04	 add	 esp, 4
; File C:\DS Project\DS Files\Source\ClientSource\Client\EterBase\error.cpp

; 27   : 	auto t = std::time(nullptr);

  000af	89 85 b8 fe ff
	ff		 mov	 DWORD PTR _t$[ebp], eax
  000b5	89 95 bc fe ff
	ff		 mov	 DWORD PTR _t$[ebp+4], edx
; File C:\Program Files (x86)\Microsoft Visual Studio\2019\Community\VC\Tools\MSVC\14.27.29110\include\sstream

; 455  :     basic_ostringstream() : _Mybase(_STD addressof(_Stringbuffer)), _Stringbuffer(ios_base::out) {}

  000bb	c7 85 14 fe ff
	ff 00 00 00 00	 mov	 DWORD PTR _timefmt$[ebp], OFFSET ??_8?$basic_ostringstream@DU?$char_traits@D@std@@V?$allocator@D@2@@std@@7B@
; File C:\Program Files (x86)\Microsoft Visual Studio\2019\Community\VC\Tools\MSVC\14.27.29110\include\ios

; 161  :     __CLR_OR_THIS_CALL basic_ios() {}

  000c5	c7 85 64 fe ff
	ff 00 00 00 00	 mov	 DWORD PTR _timefmt$[ebp+80], OFFSET ??_7?$basic_ios@DU?$char_traits@D@std@@@std@@6B@
; File C:\Program Files (x86)\Microsoft Visual Studio\2019\Community\VC\Tools\MSVC\14.27.29110\include\sstream

; 455  :     basic_ostringstream() : _Mybase(_STD addressof(_Stringbuffer)), _Stringbuffer(ios_base::out) {}

  000cf	6a 00		 push	 0
  000d1	6a 00		 push	 0
  000d3	8d 85 18 fe ff
	ff		 lea	 eax, DWORD PTR _timefmt$[ebp+4]
  000d9	c6 45 fc 01	 mov	 BYTE PTR __$EHRec$[ebp+8], 1
  000dd	50		 push	 eax
  000de	8d 8d 14 fe ff
	ff		 lea	 ecx, DWORD PTR _timefmt$[ebp]
  000e4	c7 85 cc fe ff
	ff 01 00 00 00	 mov	 DWORD PTR $T3[ebp], 1
  000ee	e8 00 00 00 00	 call	 ??0?$basic_ostream@DU?$char_traits@D@std@@@std@@QAE@PAV?$basic_streambuf@DU?$char_traits@D@std@@@1@_N@Z ; std::basic_ostream<char,std::char_traits<char> >::basic_ostream<char,std::char_traits<char> >
  000f3	8b 85 14 fe ff
	ff		 mov	 eax, DWORD PTR _timefmt$[ebp]
; File C:\Program Files (x86)\Microsoft Visual Studio\2019\Community\VC\Tools\MSVC\14.27.29110\include\streambuf

; 25   :     __CLR_OR_THIS_CALL basic_streambuf() : _Plocale(new locale) {

  000f9	6a 08		 push	 8
; File C:\Program Files (x86)\Microsoft Visual Studio\2019\Community\VC\Tools\MSVC\14.27.29110\include\sstream

; 455  :     basic_ostringstream() : _Mybase(_STD addressof(_Stringbuffer)), _Stringbuffer(ios_base::out) {}

  000fb	c7 45 fc 02 00
	00 00		 mov	 DWORD PTR __$EHRec$[ebp+8], 2
  00102	8b 40 04	 mov	 eax, DWORD PTR [eax+4]
  00105	c7 84 05 14 fe
	ff ff 00 00 00
	00		 mov	 DWORD PTR _timefmt$[ebp+eax], OFFSET ??_7?$basic_ostringstream@DU?$char_traits@D@std@@V?$allocator@D@2@@std@@6B@
  00110	8b 85 14 fe ff
	ff		 mov	 eax, DWORD PTR _timefmt$[ebp]
  00116	8b 48 04	 mov	 ecx, DWORD PTR [eax+4]
  00119	8d 41 b0	 lea	 eax, DWORD PTR [ecx-80]
  0011c	89 84 0d 10 fe
	ff ff		 mov	 DWORD PTR _timefmt$[ebp+ecx-4], eax
; File C:\Program Files (x86)\Microsoft Visual Studio\2019\Community\VC\Tools\MSVC\14.27.29110\include\streambuf

; 25   :     __CLR_OR_THIS_CALL basic_streambuf() : _Plocale(new locale) {

  00123	c7 85 18 fe ff
	ff 00 00 00 00	 mov	 DWORD PTR _timefmt$[ebp+4], OFFSET ??_7?$basic_streambuf@DU?$char_traits@D@std@@@std@@6B@
  0012d	e8 00 00 00 00	 call	 ??2@YAPAXI@Z		; operator new
  00132	8b f0		 mov	 esi, eax
  00134	83 c4 04	 add	 esp, 4
  00137	85 f6		 test	 esi, esi
  00139	74 13		 je	 SHORT $LN92@make_minid
; File C:\Program Files (x86)\Microsoft Visual Studio\2019\Community\VC\Tools\MSVC\14.27.29110\include\xlocale

; 271  :     locale() noexcept : _Ptr(_Init(true)) {}

  0013b	6a 01		 push	 1
  0013d	c6 45 fc 03	 mov	 BYTE PTR __$EHRec$[ebp+8], 3
  00141	e8 00 00 00 00	 call	 ?_Init@locale@std@@CAPAV_Locimp@12@_N@Z ; std::locale::_Init
  00146	83 c4 04	 add	 esp, 4
  00149	89 46 04	 mov	 DWORD PTR [esi+4], eax
; File C:\Program Files (x86)\Microsoft Visual Studio\2019\Community\VC\Tools\MSVC\14.27.29110\include\streambuf

; 25   :     __CLR_OR_THIS_CALL basic_streambuf() : _Plocale(new locale) {

  0014c	eb 02		 jmp	 SHORT $LN93@make_minid
$LN92@make_minid:
  0014e	33 f6		 xor	 esi, esi
$LN93@make_minid:

; 262  :         _IGfirst = &_Gfirst;

  00150	8d 85 1c fe ff
	ff		 lea	 eax, DWORD PTR _timefmt$[ebp+8]

; 25   :     __CLR_OR_THIS_CALL basic_streambuf() : _Plocale(new locale) {

  00156	89 b5 4c fe ff
	ff		 mov	 DWORD PTR _timefmt$[ebp+56], esi

; 262  :         _IGfirst = &_Gfirst;

  0015c	89 85 24 fe ff
	ff		 mov	 DWORD PTR _timefmt$[ebp+16], eax

; 263  :         _IPfirst = &_Pfirst;

  00162	8d 85 20 fe ff
	ff		 lea	 eax, DWORD PTR _timefmt$[ebp+12]
  00168	89 85 28 fe ff
	ff		 mov	 DWORD PTR _timefmt$[ebp+20], eax

; 264  :         _IGnext  = &_Gnext;

  0016e	8d 85 2c fe ff
	ff		 lea	 eax, DWORD PTR _timefmt$[ebp+24]
  00174	89 85 34 fe ff
	ff		 mov	 DWORD PTR _timefmt$[ebp+32], eax

; 265  :         _IPnext  = &_Pnext;

  0017a	8d 85 30 fe ff
	ff		 lea	 eax, DWORD PTR _timefmt$[ebp+28]
  00180	89 85 38 fe ff
	ff		 mov	 DWORD PTR _timefmt$[ebp+36], eax

; 266  :         _IGcount = &_Gcount;

  00186	8d 85 3c fe ff
	ff		 lea	 eax, DWORD PTR _timefmt$[ebp+40]
  0018c	89 85 44 fe ff
	ff		 mov	 DWORD PTR _timefmt$[ebp+48], eax

; 267  :         _IPcount = &_Pcount;

  00192	8d 85 40 fe ff
	ff		 lea	 eax, DWORD PTR _timefmt$[ebp+44]
  00198	89 85 48 fe ff
	ff		 mov	 DWORD PTR _timefmt$[ebp+52], eax

; 240  :         *_IPfirst = _First;

  0019e	c7 85 20 fe ff
	ff 00 00 00 00	 mov	 DWORD PTR _timefmt$[ebp+12], 0

; 241  :         *_IPnext  = _First;

  001a8	c7 85 30 fe ff
	ff 00 00 00 00	 mov	 DWORD PTR _timefmt$[ebp+28], 0

; 242  :         *_IPcount = static_cast<int>(_Last - _First);

  001b2	c7 85 40 fe ff
	ff 00 00 00 00	 mov	 DWORD PTR _timefmt$[ebp+44], 0

; 206  :         *_IGfirst = _First;

  001bc	c7 85 1c fe ff
	ff 00 00 00 00	 mov	 DWORD PTR _timefmt$[ebp+8], 0

; 207  :         *_IGnext  = _Next;

  001c6	c7 85 2c fe ff
	ff 00 00 00 00	 mov	 DWORD PTR _timefmt$[ebp+24], 0

; 208  :         *_IGcount = static_cast<int>(_Last - _Next);

  001d0	c7 85 3c fe ff
	ff 00 00 00 00	 mov	 DWORD PTR _timefmt$[ebp+40], 0
; File C:\Program Files (x86)\Microsoft Visual Studio\2019\Community\VC\Tools\MSVC\14.27.29110\include\sstream

; 34   :     explicit basic_stringbuf(ios_base::openmode _Mode) : _Seekhigh(nullptr), _Mystate(_Getstate(_Mode)), _Al() {}

  001da	c7 85 18 fe ff
	ff 00 00 00 00	 mov	 DWORD PTR _timefmt$[ebp+4], OFFSET ??_7?$basic_stringbuf@DU?$char_traits@D@std@@V?$allocator@D@2@@std@@6B@
  001e4	c7 85 50 fe ff
	ff 00 00 00 00	 mov	 DWORD PTR _timefmt$[ebp+60], 0
  001ee	c7 85 54 fe ff
	ff 04 00 00 00	 mov	 DWORD PTR _timefmt$[ebp+64], 4
; File C:\Program Files (x86)\Windows Kits\10\Include\10.0.18362.0\ucrt\time.h

; 512  :             return _localtime64(_Time);

  001f8	8d 85 b8 fe ff
	ff		 lea	 eax, DWORD PTR _t$[ebp]
; File C:\DS Project\DS Files\Source\ClientSource\Client\EterBase\error.cpp

; 28   : 	std::ostringstream timefmt;

  001fe	c6 45 fc 04	 mov	 BYTE PTR __$EHRec$[ebp+8], 4
; File C:\Program Files (x86)\Windows Kits\10\Include\10.0.18362.0\ucrt\time.h

; 512  :             return _localtime64(_Time);

  00202	50		 push	 eax
  00203	e8 00 00 00 00	 call	 __localtime64
; File C:\DS Project\DS Files\Source\ClientSource\Client\EterBase\error.cpp

; 29   : 	timefmt << std::put_time(std::localtime(&t), "%Y%m%d_%H%M%S");

  00208	68 00 00 00 00	 push	 OFFSET ??_C@_0O@GHHCBHKH@?$CFY?$CFm?$CFd_?$CFH?$CFM?$CFS@
  0020d	50		 push	 eax
  0020e	8d 45 e4	 lea	 eax, DWORD PTR $T14[ebp]
  00211	50		 push	 eax
  00212	e8 00 00 00 00	 call	 ??$put_time@D@std@@YA?AU?$_Timeobj@DPBUtm@@@0@PBUtm@@PBD@Z ; std::put_time<char>
  00217	50		 push	 eax
  00218	8d 85 14 fe ff
	ff		 lea	 eax, DWORD PTR _timefmt$[ebp]
  0021e	50		 push	 eax
  0021f	e8 00 00 00 00	 call	 ??$?6DU?$char_traits@D@std@@D@std@@YAAAV?$basic_ostream@DU?$char_traits@D@std@@@0@AAV10@ABU?$_Timeobj@DPBUtm@@@0@@Z ; std::operator<<<char,std::char_traits<char>,char>
  00224	83 c4 18	 add	 esp, 24			; 00000018H
; File C:\Program Files (x86)\Microsoft Visual Studio\2019\Community\VC\Tools\MSVC\14.27.29110\include\sstream

; 87   :         if (!(_Mystate & _Constant) && _Mysb::pptr()) { // writable, make string from write buffer

  00227	8b 8d 54 fe ff
	ff		 mov	 ecx, DWORD PTR _timefmt$[ebp+64]

; 496  :         return _Stringbuffer.str();

  0022d	c6 45 fc 05	 mov	 BYTE PTR __$EHRec$[ebp+8], 5
; File C:\Program Files (x86)\Microsoft Visual Studio\2019\Community\VC\Tools\MSVC\14.27.29110\include\xstring

; 4293 :         _Mypair._Myval2._Mysize = 0;

  00231	c7 45 e8 00 00
	00 00		 mov	 DWORD PTR $T13[ebp+16], 0

; 4294 :         _Mypair._Myval2._Myres  = _BUF_SIZE - 1;

  00238	c7 45 ec 0f 00
	00 00		 mov	 DWORD PTR $T13[ebp+20], 15 ; 0000000fH

; 4295 :         // the _Traits::assign is last so the codegen doesn't think the char write can alias this
; 4296 :         _Traits::assign(_Mypair._Myval2._Bx._Buf[0], _Elem());

  0023f	c6 45 d8 00	 mov	 BYTE PTR $T13[ebp], 0
; File C:\Program Files (x86)\Microsoft Visual Studio\2019\Community\VC\Tools\MSVC\14.27.29110\include\sstream

; 95   :         return _Result;

  00243	c7 85 cc fe ff
	ff 05 00 00 00	 mov	 DWORD PTR $T3[ebp], 5
  0024d	f6 c1 02	 test	 cl, 2
  00250	75 32		 jne	 SHORT $LN116@make_minid
; File C:\Program Files (x86)\Microsoft Visual Studio\2019\Community\VC\Tools\MSVC\14.27.29110\include\streambuf

; 193  :         return *_IPnext;

  00252	8b 85 38 fe ff
	ff		 mov	 eax, DWORD PTR _timefmt$[ebp+36]
  00258	8b 10		 mov	 edx, DWORD PTR [eax]
; File C:\Program Files (x86)\Microsoft Visual Studio\2019\Community\VC\Tools\MSVC\14.27.29110\include\sstream

; 87   :         if (!(_Mystate & _Constant) && _Mysb::pptr()) { // writable, make string from write buffer

  0025a	85 d2		 test	 edx, edx
  0025c	74 26		 je	 SHORT $LN116@make_minid
; File C:\Program Files (x86)\Microsoft Visual Studio\2019\Community\VC\Tools\MSVC\14.27.29110\include\streambuf

; 189  :         return *_IPfirst;

  0025e	8b 85 28 fe ff
	ff		 mov	 eax, DWORD PTR _timefmt$[ebp+20]
; File C:\Program Files (x86)\Microsoft Visual Studio\2019\Community\VC\Tools\MSVC\14.27.29110\include\sstream

; 89   :             _Result.assign(_Base, static_cast<_Mysize_type>((_STD max)(_Mysb::pptr(), _Seekhigh) - _Base));

  00264	3b 95 50 fe ff
	ff		 cmp	 edx, DWORD PTR _timefmt$[ebp+60]
  0026a	0f 42 95 50 fe
	ff ff		 cmovb	 edx, DWORD PTR _timefmt$[ebp+60]
; File C:\Program Files (x86)\Microsoft Visual Studio\2019\Community\VC\Tools\MSVC\14.27.29110\include\streambuf

; 189  :         return *_IPfirst;

  00271	8b 08		 mov	 ecx, DWORD PTR [eax]
; File C:\Program Files (x86)\Microsoft Visual Studio\2019\Community\VC\Tools\MSVC\14.27.29110\include\sstream

; 89   :             _Result.assign(_Base, static_cast<_Mysize_type>((_STD max)(_Mysb::pptr(), _Seekhigh) - _Base));

  00273	2b d1		 sub	 edx, ecx
  00275	52		 push	 edx
  00276	51		 push	 ecx
  00277	8d 4d d8	 lea	 ecx, DWORD PTR $T13[ebp]
  0027a	e8 00 00 00 00	 call	 ?assign@?$basic_string@DU?$char_traits@D@std@@V?$allocator@D@2@@std@@QAEAAV12@QBDI@Z ; std::basic_string<char,std::char_traits<char>,std::allocator<char> >::assign
  0027f	e9 bf 00 00 00	 jmp	 $LN158@make_minid
$LN116@make_minid:

; 90   :         } else if (!(_Mystate & _Noread) && _Mysb::gptr()) { // readable, make string from read buffer

  00284	f6 c1 04	 test	 cl, 4
  00287	0f 85 b6 00 00
	00		 jne	 $LN158@make_minid
; File C:\Program Files (x86)\Microsoft Visual Studio\2019\Community\VC\Tools\MSVC\14.27.29110\include\streambuf

; 185  :         return *_IGnext;

  0028d	8b 85 34 fe ff
	ff		 mov	 eax, DWORD PTR _timefmt$[ebp+32]
  00293	8b 38		 mov	 edi, DWORD PTR [eax]
; File C:\Program Files (x86)\Microsoft Visual Studio\2019\Community\VC\Tools\MSVC\14.27.29110\include\sstream

; 90   :         } else if (!(_Mystate & _Noread) && _Mysb::gptr()) { // readable, make string from read buffer

  00295	85 ff		 test	 edi, edi
  00297	0f 84 a0 00 00
	00		 je	 $LN458@make_minid
; File C:\Program Files (x86)\Microsoft Visual Studio\2019\Community\VC\Tools\MSVC\14.27.29110\include\streambuf

; 181  :         return *_IGfirst;

  0029d	8b 85 24 fe ff
	ff		 mov	 eax, DWORD PTR _timefmt$[ebp+16]
  002a3	8b 08		 mov	 ecx, DWORD PTR [eax]
; File C:\Program Files (x86)\Microsoft Visual Studio\2019\Community\VC\Tools\MSVC\14.27.29110\include\sstream

; 92   :             _Result.assign(_Base, static_cast<_Mysize_type>(_Mysb::egptr() - _Base));

  002a5	2b f9		 sub	 edi, ecx
; File C:\Program Files (x86)\Microsoft Visual Studio\2019\Community\VC\Tools\MSVC\14.27.29110\include\streambuf

; 197  :         return *_IGnext + *_IGcount;

  002a7	8b 85 44 fe ff
	ff		 mov	 eax, DWORD PTR _timefmt$[ebp+48]

; 181  :         return *_IGfirst;

  002ad	89 8d c4 fe ff
	ff		 mov	 DWORD PTR __Base$1$[ebp], ecx

; 197  :         return *_IGnext + *_IGcount;

  002b3	03 38		 add	 edi, DWORD PTR [eax]
; File C:\Program Files (x86)\Microsoft Visual Studio\2019\Community\VC\Tools\MSVC\14.27.29110\include\sstream

; 92   :             _Result.assign(_Base, static_cast<_Mysize_type>(_Mysb::egptr() - _Base));

  002b5	83 ff 0f	 cmp	 edi, 15			; 0000000fH
; File C:\Program Files (x86)\Microsoft Visual Studio\2019\Community\VC\Tools\MSVC\14.27.29110\include\xstring

; 2966 :         if (_Count <= _Mypair._Myval2._Myres) {

  002b8	77 18		 ja	 SHORT $LN146@make_minid

; 363  :         return static_cast<_Elem*>(_CSTD memmove(_First1, _First2, _Count));

  002ba	57		 push	 edi
  002bb	51		 push	 ecx
  002bc	8d 45 d8	 lea	 eax, DWORD PTR $T13[ebp]

; 2968 :             _Mypair._Myval2._Mysize = _Count;

  002bf	89 7d e8	 mov	 DWORD PTR $T13[ebp+16], edi

; 363  :         return static_cast<_Elem*>(_CSTD memmove(_First1, _First2, _Count));

  002c2	50		 push	 eax
  002c3	e8 00 00 00 00	 call	 _memmove
  002c8	83 c4 0c	 add	 esp, 12			; 0000000cH

; 2970 :             _Traits::assign(_Old_ptr[_Count], _Elem());

  002cb	c6 44 3d d8 00	 mov	 BYTE PTR $T13[ebp+edi], 0

; 2971 :             return *this;

  002d0	eb 6b		 jmp	 SHORT $LN458@make_minid
$LN146@make_minid:

; 4221 :         if (_New_size > max_size()) {

  002d2	81 ff ff ff ff
	7f		 cmp	 edi, 2147483647		; 7fffffffH
  002d8	0f 87 e1 03 00
	00		 ja	 $LN462@make_minid

; 4201 :         const size_type _Masked = _Requested | _ALLOC_MASK;

  002de	8b df		 mov	 ebx, edi
  002e0	83 cb 0f	 or	 ebx, 15			; 0000000fH
  002e3	81 fb ff ff ff
	7f		 cmp	 ebx, 2147483647		; 7fffffffH

; 4202 :         if (_Masked > _Max) { // the mask overflows, settle for max_size()

  002e9	76 07		 jbe	 SHORT $LN163@make_minid

; 4203 :             return _Max;

  002eb	bb ff ff ff 7f	 mov	 ebx, 2147483647		; 7fffffffH
  002f0	eb 0a		 jmp	 SHORT $LN162@make_minid
$LN163@make_minid:

; 4204 :         }
; 4205 : 
; 4206 :         if (_Old > _Max - _Old / 2) { // similarly, geometric overflows
; 4207 :             return _Max;
; 4208 :         }
; 4209 : 
; 4210 :         return (_STD max)(_Masked, _Old + _Old / 2);

  002f2	b8 16 00 00 00	 mov	 eax, 22			; 00000016H
  002f7	3b d8		 cmp	 ebx, eax
  002f9	0f 42 d8	 cmovb	 ebx, eax
$LN162@make_minid:

; 4228 :         const pointer _New_ptr        = _Al.allocate(_New_capacity + 1); // throws

  002fc	8d 43 01	 lea	 eax, DWORD PTR [ebx+1]
; File C:\Program Files (x86)\Microsoft Visual Studio\2019\Community\VC\Tools\MSVC\14.27.29110\include\xmemory

; 807  :         return static_cast<_Ty*>(_Allocate<_New_alignof<_Ty>>(_Get_size_of_n<sizeof(_Ty)>(_Count)));

  002ff	50		 push	 eax
  00300	e8 00 00 00 00	 call	 ??$_Allocate@$07U_Default_allocate_traits@std@@$0A@@std@@YAPAXI@Z ; std::_Allocate<8,std::_Default_allocate_traits,0>
; File C:\Program Files (x86)\Microsoft Visual Studio\2019\Community\VC\Tools\MSVC\14.27.29110\include\xstring

; 328  :         return static_cast<_Elem*>(_CSTD memcpy(_First1, _First2, _Count));

  00305	57		 push	 edi
  00306	ff b5 c4 fe ff
	ff		 push	 DWORD PTR __Base$1$[ebp]

; 4228 :         const pointer _New_ptr        = _Al.allocate(_New_capacity + 1); // throws

  0030c	8b f0		 mov	 esi, eax

; 4229 :         _Mypair._Myval2._Orphan_all();
; 4230 :         _Mypair._Myval2._Mysize = _New_size;

  0030e	89 7d e8	 mov	 DWORD PTR $T13[ebp+16], edi

; 328  :         return static_cast<_Elem*>(_CSTD memcpy(_First1, _First2, _Count));

  00311	56		 push	 esi

; 4228 :         const pointer _New_ptr        = _Al.allocate(_New_capacity + 1); // throws

  00312	89 b5 cc fe ff
	ff		 mov	 DWORD PTR __New_ptr$2[ebp], esi

; 4231 :         _Mypair._Myval2._Myres  = _New_capacity;

  00318	89 5d ec	 mov	 DWORD PTR $T13[ebp+20], ebx

; 328  :         return static_cast<_Elem*>(_CSTD memcpy(_First1, _First2, _Count));

  0031b	e8 00 00 00 00	 call	 _memcpy

; 4237 :             _Construct_in_place(_Mypair._Myval2._Bx._Ptr, _New_ptr);

  00320	8d 85 cc fe ff
	ff		 lea	 eax, DWORD PTR __New_ptr$2[ebp]

; 2978 :                 _Traits::assign(_New_ptr[_Count], _Elem());

  00326	c6 04 3e 00	 mov	 BYTE PTR [esi+edi], 0

; 4237 :             _Construct_in_place(_Mypair._Myval2._Bx._Ptr, _New_ptr);

  0032a	50		 push	 eax
  0032b	8d 45 d8	 lea	 eax, DWORD PTR $T13[ebp]
  0032e	50		 push	 eax
  0032f	e8 00 00 00 00	 call	 ??$_Construct_in_place@PADABQAD@std@@YAXAAPADABQAD@Z ; std::_Construct_in_place<char *,char * const &>
  00334	8b 9d c0 fe ff
	ff		 mov	 ebx, DWORD PTR _pMiniDumpWriteDump$1$[ebp]
  0033a	83 c4 18	 add	 esp, 24			; 00000018H
$LN458@make_minid:
; File C:\Program Files (x86)\Microsoft Visual Studio\2019\Community\VC\Tools\MSVC\14.27.29110\include\sstream

; 496  :         return _Stringbuffer.str();

  0033d	8b bd c8 fe ff
	ff		 mov	 edi, DWORD PTR _e$GSCopy$1$[ebp]
$LN158@make_minid:
  00343	c7 45 fc 04 00
	00 00		 mov	 DWORD PTR __$EHRec$[ebp+8], 4
; File C:\Program Files (x86)\Microsoft Visual Studio\2019\Community\VC\Tools\MSVC\14.27.29110\include\xstring

; 4294 :         _Mypair._Myval2._Myres  = _BUF_SIZE - 1;

  0034a	c7 85 74 ff ff
	ff 0f 00 00 00	 mov	 DWORD PTR $T10[ebp+20], 15 ; 0000000fH

; 2968 :             _Mypair._Myval2._Mysize = _Count;

  00354	c7 85 70 ff ff
	ff 01 00 00 00	 mov	 DWORD PTR $T10[ebp+16], 1

; 363  :         return static_cast<_Elem*>(_CSTD memmove(_First1, _First2, _Count));

  0035e	66 c7 85 60 ff
	ff ff 5f 00	 mov	 WORD PTR $T10[ebp], 95	; 0000005fH
; File C:\Program Files (x86)\Microsoft Visual Studio\2019\Community\VC\Tools\MSVC\14.27.29110\include\string

; 515  :     return _Integral_to_string<char>(_Val);

  00367	8d 85 d0 fe ff
	ff		 lea	 eax, DWORD PTR $T4[ebp]
; File C:\DS Project\DS Files\Source\ClientSource\Client\EterBase\error.cpp

; 31   : 	std::string filename = folder + "\\"s + "metin2client_"s + std::to_string(METIN2_GET_VERSION()) + "_"s + timefmt.str() + ".dmp";

  0036d	c6 45 fc 07	 mov	 BYTE PTR __$EHRec$[ebp+8], 7
; File C:\Program Files (x86)\Microsoft Visual Studio\2019\Community\VC\Tools\MSVC\14.27.29110\include\string

; 515  :     return _Integral_to_string<char>(_Val);

  00371	68 27 a0 00 00	 push	 40999			; 0000a027H
  00376	50		 push	 eax
  00377	e8 00 00 00 00	 call	 ??$_Integral_to_string@DH@std@@YA?AV?$basic_string@DU?$char_traits@D@std@@V?$allocator@D@2@@0@H@Z ; std::_Integral_to_string<char,int>
; File C:\Program Files (x86)\Microsoft Visual Studio\2019\Community\VC\Tools\MSVC\14.27.29110\include\xstring

; 363  :         return static_cast<_Elem*>(_CSTD memmove(_First1, _First2, _Count));

  0037c	a1 08 00 00 00	 mov	 eax, DWORD PTR ??_C@_0O@BMPKPIOH@metin2client_@+8
  00381	f3 0f 7e 05 00
	00 00 00	 movq	 xmm0, QWORD PTR ??_C@_0O@BMPKPIOH@metin2client_@
  00389	89 45 b0	 mov	 DWORD PTR $T11[ebp+8], eax
  0038c	a0 0c 00 00 00	 mov	 al, BYTE PTR ??_C@_0O@BMPKPIOH@metin2client_@+12

; 4294 :         _Mypair._Myval2._Myres  = _BUF_SIZE - 1;

  00391	c7 45 bc 0f 00
	00 00		 mov	 DWORD PTR $T11[ebp+20], 15 ; 0000000fH

; 2968 :             _Mypair._Myval2._Mysize = _Count;

  00398	c7 45 b8 0d 00
	00 00		 mov	 DWORD PTR $T11[ebp+16], 13 ; 0000000dH

; 363  :         return static_cast<_Elem*>(_CSTD memmove(_First1, _First2, _Count));

  0039f	66 0f d6 45 a8	 movq	 QWORD PTR $T11[ebp], xmm0
  003a4	88 45 b4	 mov	 BYTE PTR $T11[ebp+12], al

; 2970 :             _Traits::assign(_Old_ptr[_Count], _Elem());

  003a7	c6 45 b5 00	 mov	 BYTE PTR $T11[ebp+13], 0

; 4294 :         _Mypair._Myval2._Myres  = _BUF_SIZE - 1;

  003ab	c7 45 d4 0f 00
	00 00		 mov	 DWORD PTR $T12[ebp+20], 15 ; 0000000fH

; 2968 :             _Mypair._Myval2._Mysize = _Count;

  003b2	c7 45 d0 01 00
	00 00		 mov	 DWORD PTR $T12[ebp+16], 1

; 363  :         return static_cast<_Elem*>(_CSTD memmove(_First1, _First2, _Count));

  003b9	66 c7 45 c0 5c
	00		 mov	 WORD PTR $T12[ebp], 92	; 0000005cH
; File C:\DS Project\DS Files\Source\ClientSource\Client\EterBase\error.cpp

; 31   : 	std::string filename = folder + "\\"s + "metin2client_"s + std::to_string(METIN2_GET_VERSION()) + "_"s + timefmt.str() + ".dmp";

  003bf	8d 45 c0	 lea	 eax, DWORD PTR $T12[ebp]
  003c2	c6 45 fc 0a	 mov	 BYTE PTR __$EHRec$[ebp+8], 10 ; 0000000aH
  003c6	50		 push	 eax
  003c7	8d 85 78 ff ff
	ff		 lea	 eax, DWORD PTR _folder$[ebp]
  003cd	50		 push	 eax
  003ce	8d 85 e8 fe ff
	ff		 lea	 eax, DWORD PTR $T5[ebp]
  003d4	50		 push	 eax
  003d5	e8 00 00 00 00	 call	 ??$?HDU?$char_traits@D@std@@V?$allocator@D@1@@std@@YA?AV?$basic_string@DU?$char_traits@D@std@@V?$allocator@D@2@@0@ABV10@$$QAV10@@Z ; std::operator+<char,std::char_traits<char>,std::allocator<char> >
  003da	8d 4d a8	 lea	 ecx, DWORD PTR $T11[ebp]
  003dd	c6 45 fc 0b	 mov	 BYTE PTR __$EHRec$[ebp+8], 11 ; 0000000bH
  003e1	51		 push	 ecx
  003e2	50		 push	 eax
  003e3	8d 85 00 ff ff
	ff		 lea	 eax, DWORD PTR $T6[ebp]
  003e9	50		 push	 eax
  003ea	e8 00 00 00 00	 call	 ??$?HDU?$char_traits@D@std@@V?$allocator@D@1@@std@@YA?AV?$basic_string@DU?$char_traits@D@std@@V?$allocator@D@2@@0@$$QAV10@0@Z ; std::operator+<char,std::char_traits<char>,std::allocator<char> >
  003ef	8d 8d d0 fe ff
	ff		 lea	 ecx, DWORD PTR $T4[ebp]
  003f5	c6 45 fc 0c	 mov	 BYTE PTR __$EHRec$[ebp+8], 12 ; 0000000cH
  003f9	51		 push	 ecx
  003fa	50		 push	 eax
  003fb	8d 85 18 ff ff
	ff		 lea	 eax, DWORD PTR $T7[ebp]
  00401	50		 push	 eax
  00402	e8 00 00 00 00	 call	 ??$?HDU?$char_traits@D@std@@V?$allocator@D@1@@std@@YA?AV?$basic_string@DU?$char_traits@D@std@@V?$allocator@D@2@@0@$$QAV10@0@Z ; std::operator+<char,std::char_traits<char>,std::allocator<char> >
  00407	8d 8d 60 ff ff
	ff		 lea	 ecx, DWORD PTR $T10[ebp]
  0040d	c6 45 fc 0d	 mov	 BYTE PTR __$EHRec$[ebp+8], 13 ; 0000000dH
  00411	51		 push	 ecx
  00412	50		 push	 eax
  00413	8d 85 30 ff ff
	ff		 lea	 eax, DWORD PTR $T8[ebp]
  00419	50		 push	 eax
  0041a	e8 00 00 00 00	 call	 ??$?HDU?$char_traits@D@std@@V?$allocator@D@1@@std@@YA?AV?$basic_string@DU?$char_traits@D@std@@V?$allocator@D@2@@0@$$QAV10@0@Z ; std::operator+<char,std::char_traits<char>,std::allocator<char> >
  0041f	8d 4d d8	 lea	 ecx, DWORD PTR $T13[ebp]
  00422	c6 45 fc 0e	 mov	 BYTE PTR __$EHRec$[ebp+8], 14 ; 0000000eH
  00426	51		 push	 ecx
  00427	50		 push	 eax
  00428	8d 85 48 ff ff
	ff		 lea	 eax, DWORD PTR $T9[ebp]
  0042e	50		 push	 eax
  0042f	e8 00 00 00 00	 call	 ??$?HDU?$char_traits@D@std@@V?$allocator@D@1@@std@@YA?AV?$basic_string@DU?$char_traits@D@std@@V?$allocator@D@2@@0@$$QAV10@0@Z ; std::operator+<char,std::char_traits<char>,std::allocator<char> >
  00434	83 c4 44	 add	 esp, 68			; 00000044H
  00437	68 00 00 00 00	 push	 OFFSET ??_C@_04JMFINIFG@?4dmp@
  0043c	50		 push	 eax
  0043d	8d 45 90	 lea	 eax, DWORD PTR _filename$[ebp]
  00440	c6 45 fc 0f	 mov	 BYTE PTR __$EHRec$[ebp+8], 15 ; 0000000fH
  00444	50		 push	 eax
  00445	e8 00 00 00 00	 call	 ??$?HDU?$char_traits@D@std@@V?$allocator@D@1@@std@@YA?AV?$basic_string@DU?$char_traits@D@std@@V?$allocator@D@2@@0@$$QAV10@QBD@Z ; std::operator+<char,std::char_traits<char>,std::allocator<char> >
  0044a	83 c4 0c	 add	 esp, 12			; 0000000cH
; File C:\Program Files (x86)\Microsoft Visual Studio\2019\Community\VC\Tools\MSVC\14.27.29110\include\xstring

; 4301 :         if (_Mypair._Myval2._Large_string_engaged()) {

  0044d	8b 85 5c ff ff
	ff		 mov	 eax, DWORD PTR $T9[ebp+20]
  00453	83 f8 10	 cmp	 eax, 16			; 00000010H
  00456	72 10		 jb	 SHORT $LN325@make_minid

; 4302 :             const pointer _Ptr = _Mypair._Myval2._Bx._Ptr;
; 4303 :             auto& _Al          = _Getal();
; 4304 :             _Destroy_in_place(_Mypair._Myval2._Bx._Ptr);
; 4305 :             _Al.deallocate(_Ptr, _Mypair._Myval2._Myres + 1);

  00458	40		 inc	 eax
; File C:\Program Files (x86)\Microsoft Visual Studio\2019\Community\VC\Tools\MSVC\14.27.29110\include\xmemory

; 803  :         _Deallocate<_New_alignof<_Ty>>(_Ptr, sizeof(_Ty) * _Count);

  00459	50		 push	 eax
  0045a	ff b5 48 ff ff
	ff		 push	 DWORD PTR $T9[ebp]
  00460	e8 00 00 00 00	 call	 ??$_Deallocate@$07$0A@@std@@YAXPAXI@Z ; std::_Deallocate<8,0>
  00465	83 c4 08	 add	 esp, 8
$LN325@make_minid:
; File C:\Program Files (x86)\Microsoft Visual Studio\2019\Community\VC\Tools\MSVC\14.27.29110\include\xstring

; 4308 :         _Mypair._Myval2._Mysize = 0;

  00468	c7 85 58 ff ff
	ff 00 00 00 00	 mov	 DWORD PTR $T9[ebp+16], 0

; 4309 :         _Mypair._Myval2._Myres  = _BUF_SIZE - 1;

  00472	c7 85 5c ff ff
	ff 0f 00 00 00	 mov	 DWORD PTR $T9[ebp+20], 15 ; 0000000fH

; 4310 :         // the _Traits::assign is last so the codegen doesn't think the char write can alias this
; 4311 :         _Traits::assign(_Mypair._Myval2._Bx._Buf[0], _Elem());

  0047c	c6 85 48 ff ff
	ff 00		 mov	 BYTE PTR $T9[ebp], 0

; 4301 :         if (_Mypair._Myval2._Large_string_engaged()) {

  00483	8b 85 44 ff ff
	ff		 mov	 eax, DWORD PTR $T8[ebp+20]
  00489	83 f8 10	 cmp	 eax, 16			; 00000010H
  0048c	72 10		 jb	 SHORT $LN335@make_minid

; 4302 :             const pointer _Ptr = _Mypair._Myval2._Bx._Ptr;
; 4303 :             auto& _Al          = _Getal();
; 4304 :             _Destroy_in_place(_Mypair._Myval2._Bx._Ptr);
; 4305 :             _Al.deallocate(_Ptr, _Mypair._Myval2._Myres + 1);

  0048e	40		 inc	 eax
; File C:\Program Files (x86)\Microsoft Visual Studio\2019\Community\VC\Tools\MSVC\14.27.29110\include\xmemory

; 803  :         _Deallocate<_New_alignof<_Ty>>(_Ptr, sizeof(_Ty) * _Count);

  0048f	50		 push	 eax
  00490	ff b5 30 ff ff
	ff		 push	 DWORD PTR $T8[ebp]
  00496	e8 00 00 00 00	 call	 ??$_Deallocate@$07$0A@@std@@YAXPAXI@Z ; std::_Deallocate<8,0>
  0049b	83 c4 08	 add	 esp, 8
$LN335@make_minid:
; File C:\Program Files (x86)\Microsoft Visual Studio\2019\Community\VC\Tools\MSVC\14.27.29110\include\xstring

; 4308 :         _Mypair._Myval2._Mysize = 0;

  0049e	c7 85 40 ff ff
	ff 00 00 00 00	 mov	 DWORD PTR $T8[ebp+16], 0

; 4309 :         _Mypair._Myval2._Myres  = _BUF_SIZE - 1;

  004a8	c7 85 44 ff ff
	ff 0f 00 00 00	 mov	 DWORD PTR $T8[ebp+20], 15 ; 0000000fH

; 4310 :         // the _Traits::assign is last so the codegen doesn't think the char write can alias this
; 4311 :         _Traits::assign(_Mypair._Myval2._Bx._Buf[0], _Elem());

  004b2	c6 85 30 ff ff
	ff 00		 mov	 BYTE PTR $T8[ebp], 0

; 4301 :         if (_Mypair._Myval2._Large_string_engaged()) {

  004b9	8b 85 2c ff ff
	ff		 mov	 eax, DWORD PTR $T7[ebp+20]
  004bf	83 f8 10	 cmp	 eax, 16			; 00000010H
  004c2	72 10		 jb	 SHORT $LN345@make_minid

; 4302 :             const pointer _Ptr = _Mypair._Myval2._Bx._Ptr;
; 4303 :             auto& _Al          = _Getal();
; 4304 :             _Destroy_in_place(_Mypair._Myval2._Bx._Ptr);
; 4305 :             _Al.deallocate(_Ptr, _Mypair._Myval2._Myres + 1);

  004c4	40		 inc	 eax
; File C:\Program Files (x86)\Microsoft Visual Studio\2019\Community\VC\Tools\MSVC\14.27.29110\include\xmemory

; 803  :         _Deallocate<_New_alignof<_Ty>>(_Ptr, sizeof(_Ty) * _Count);

  004c5	50		 push	 eax
  004c6	ff b5 18 ff ff
	ff		 push	 DWORD PTR $T7[ebp]
  004cc	e8 00 00 00 00	 call	 ??$_Deallocate@$07$0A@@std@@YAXPAXI@Z ; std::_Deallocate<8,0>
  004d1	83 c4 08	 add	 esp, 8
$LN345@make_minid:
; File C:\Program Files (x86)\Microsoft Visual Studio\2019\Community\VC\Tools\MSVC\14.27.29110\include\xstring

; 4308 :         _Mypair._Myval2._Mysize = 0;

  004d4	c7 85 28 ff ff
	ff 00 00 00 00	 mov	 DWORD PTR $T7[ebp+16], 0

; 4309 :         _Mypair._Myval2._Myres  = _BUF_SIZE - 1;

  004de	c7 85 2c ff ff
	ff 0f 00 00 00	 mov	 DWORD PTR $T7[ebp+20], 15 ; 0000000fH

; 4310 :         // the _Traits::assign is last so the codegen doesn't think the char write can alias this
; 4311 :         _Traits::assign(_Mypair._Myval2._Bx._Buf[0], _Elem());

  004e8	c6 85 18 ff ff
	ff 00		 mov	 BYTE PTR $T7[ebp], 0

; 4301 :         if (_Mypair._Myval2._Large_string_engaged()) {

  004ef	8b 85 14 ff ff
	ff		 mov	 eax, DWORD PTR $T6[ebp+20]
  004f5	83 f8 10	 cmp	 eax, 16			; 00000010H
  004f8	72 10		 jb	 SHORT $LN355@make_minid

; 4302 :             const pointer _Ptr = _Mypair._Myval2._Bx._Ptr;
; 4303 :             auto& _Al          = _Getal();
; 4304 :             _Destroy_in_place(_Mypair._Myval2._Bx._Ptr);
; 4305 :             _Al.deallocate(_Ptr, _Mypair._Myval2._Myres + 1);

  004fa	40		 inc	 eax
; File C:\Program Files (x86)\Microsoft Visual Studio\2019\Community\VC\Tools\MSVC\14.27.29110\include\xmemory

; 803  :         _Deallocate<_New_alignof<_Ty>>(_Ptr, sizeof(_Ty) * _Count);

  004fb	50		 push	 eax
  004fc	ff b5 00 ff ff
	ff		 push	 DWORD PTR $T6[ebp]
  00502	e8 00 00 00 00	 call	 ??$_Deallocate@$07$0A@@std@@YAXPAXI@Z ; std::_Deallocate<8,0>
  00507	83 c4 08	 add	 esp, 8
$LN355@make_minid:
; File C:\Program Files (x86)\Microsoft Visual Studio\2019\Community\VC\Tools\MSVC\14.27.29110\include\xstring

; 4308 :         _Mypair._Myval2._Mysize = 0;

  0050a	c7 85 10 ff ff
	ff 00 00 00 00	 mov	 DWORD PTR $T6[ebp+16], 0

; 4309 :         _Mypair._Myval2._Myres  = _BUF_SIZE - 1;

  00514	c7 85 14 ff ff
	ff 0f 00 00 00	 mov	 DWORD PTR $T6[ebp+20], 15 ; 0000000fH

; 4310 :         // the _Traits::assign is last so the codegen doesn't think the char write can alias this
; 4311 :         _Traits::assign(_Mypair._Myval2._Bx._Buf[0], _Elem());

  0051e	c6 85 00 ff ff
	ff 00		 mov	 BYTE PTR $T6[ebp], 0

; 4301 :         if (_Mypair._Myval2._Large_string_engaged()) {

  00525	8b 85 fc fe ff
	ff		 mov	 eax, DWORD PTR $T5[ebp+20]
  0052b	83 f8 10	 cmp	 eax, 16			; 00000010H
  0052e	72 10		 jb	 SHORT $LN365@make_minid

; 4302 :             const pointer _Ptr = _Mypair._Myval2._Bx._Ptr;
; 4303 :             auto& _Al          = _Getal();
; 4304 :             _Destroy_in_place(_Mypair._Myval2._Bx._Ptr);
; 4305 :             _Al.deallocate(_Ptr, _Mypair._Myval2._Myres + 1);

  00530	40		 inc	 eax
; File C:\Program Files (x86)\Microsoft Visual Studio\2019\Community\VC\Tools\MSVC\14.27.29110\include\xmemory

; 803  :         _Deallocate<_New_alignof<_Ty>>(_Ptr, sizeof(_Ty) * _Count);

  00531	50		 push	 eax
  00532	ff b5 e8 fe ff
	ff		 push	 DWORD PTR $T5[ebp]
  00538	e8 00 00 00 00	 call	 ??$_Deallocate@$07$0A@@std@@YAXPAXI@Z ; std::_Deallocate<8,0>
  0053d	83 c4 08	 add	 esp, 8
$LN365@make_minid:
; File C:\Program Files (x86)\Microsoft Visual Studio\2019\Community\VC\Tools\MSVC\14.27.29110\include\xstring

; 4308 :         _Mypair._Myval2._Mysize = 0;

  00540	c7 85 f8 fe ff
	ff 00 00 00 00	 mov	 DWORD PTR $T5[ebp+16], 0

; 4309 :         _Mypair._Myval2._Myres  = _BUF_SIZE - 1;

  0054a	c7 85 fc fe ff
	ff 0f 00 00 00	 mov	 DWORD PTR $T5[ebp+20], 15 ; 0000000fH

; 4310 :         // the _Traits::assign is last so the codegen doesn't think the char write can alias this
; 4311 :         _Traits::assign(_Mypair._Myval2._Bx._Buf[0], _Elem());

  00554	c6 85 e8 fe ff
	ff 00		 mov	 BYTE PTR $T5[ebp], 0

; 4301 :         if (_Mypair._Myval2._Large_string_engaged()) {

  0055b	8b 45 d4	 mov	 eax, DWORD PTR $T12[ebp+20]
  0055e	83 f8 10	 cmp	 eax, 16			; 00000010H
  00561	72 0d		 jb	 SHORT $LN375@make_minid

; 4302 :             const pointer _Ptr = _Mypair._Myval2._Bx._Ptr;
; 4303 :             auto& _Al          = _Getal();
; 4304 :             _Destroy_in_place(_Mypair._Myval2._Bx._Ptr);
; 4305 :             _Al.deallocate(_Ptr, _Mypair._Myval2._Myres + 1);

  00563	40		 inc	 eax
; File C:\Program Files (x86)\Microsoft Visual Studio\2019\Community\VC\Tools\MSVC\14.27.29110\include\xmemory

; 803  :         _Deallocate<_New_alignof<_Ty>>(_Ptr, sizeof(_Ty) * _Count);

  00564	50		 push	 eax
  00565	ff 75 c0	 push	 DWORD PTR $T12[ebp]
  00568	e8 00 00 00 00	 call	 ??$_Deallocate@$07$0A@@std@@YAXPAXI@Z ; std::_Deallocate<8,0>
  0056d	83 c4 08	 add	 esp, 8
$LN375@make_minid:
; File C:\Program Files (x86)\Microsoft Visual Studio\2019\Community\VC\Tools\MSVC\14.27.29110\include\xstring

; 4308 :         _Mypair._Myval2._Mysize = 0;

  00570	c7 45 d0 00 00
	00 00		 mov	 DWORD PTR $T12[ebp+16], 0

; 4309 :         _Mypair._Myval2._Myres  = _BUF_SIZE - 1;

  00577	c7 45 d4 0f 00
	00 00		 mov	 DWORD PTR $T12[ebp+20], 15 ; 0000000fH

; 4310 :         // the _Traits::assign is last so the codegen doesn't think the char write can alias this
; 4311 :         _Traits::assign(_Mypair._Myval2._Bx._Buf[0], _Elem());

  0057e	c6 45 c0 00	 mov	 BYTE PTR $T12[ebp], 0

; 4301 :         if (_Mypair._Myval2._Large_string_engaged()) {

  00582	8b 45 bc	 mov	 eax, DWORD PTR $T11[ebp+20]
  00585	83 f8 10	 cmp	 eax, 16			; 00000010H
  00588	72 0d		 jb	 SHORT $LN385@make_minid

; 4302 :             const pointer _Ptr = _Mypair._Myval2._Bx._Ptr;
; 4303 :             auto& _Al          = _Getal();
; 4304 :             _Destroy_in_place(_Mypair._Myval2._Bx._Ptr);
; 4305 :             _Al.deallocate(_Ptr, _Mypair._Myval2._Myres + 1);

  0058a	40		 inc	 eax
; File C:\Program Files (x86)\Microsoft Visual Studio\2019\Community\VC\Tools\MSVC\14.27.29110\include\xmemory

; 803  :         _Deallocate<_New_alignof<_Ty>>(_Ptr, sizeof(_Ty) * _Count);

  0058b	50		 push	 eax
  0058c	ff 75 a8	 push	 DWORD PTR $T11[ebp]
  0058f	e8 00 00 00 00	 call	 ??$_Deallocate@$07$0A@@std@@YAXPAXI@Z ; std::_Deallocate<8,0>
  00594	83 c4 08	 add	 esp, 8
$LN385@make_minid:
; File C:\Program Files (x86)\Microsoft Visual Studio\2019\Community\VC\Tools\MSVC\14.27.29110\include\xstring

; 4301 :         if (_Mypair._Myval2._Large_string_engaged()) {

  00597	8b 85 e4 fe ff
	ff		 mov	 eax, DWORD PTR $T4[ebp+20]
  0059d	83 f8 10	 cmp	 eax, 16			; 00000010H
  005a0	72 10		 jb	 SHORT $LN395@make_minid

; 4302 :             const pointer _Ptr = _Mypair._Myval2._Bx._Ptr;
; 4303 :             auto& _Al          = _Getal();
; 4304 :             _Destroy_in_place(_Mypair._Myval2._Bx._Ptr);
; 4305 :             _Al.deallocate(_Ptr, _Mypair._Myval2._Myres + 1);

  005a2	40		 inc	 eax
; File C:\Program Files (x86)\Microsoft Visual Studio\2019\Community\VC\Tools\MSVC\14.27.29110\include\xmemory

; 803  :         _Deallocate<_New_alignof<_Ty>>(_Ptr, sizeof(_Ty) * _Count);

  005a3	50		 push	 eax
  005a4	ff b5 d0 fe ff
	ff		 push	 DWORD PTR $T4[ebp]
  005aa	e8 00 00 00 00	 call	 ??$_Deallocate@$07$0A@@std@@YAXPAXI@Z ; std::_Deallocate<8,0>
  005af	83 c4 08	 add	 esp, 8
$LN395@make_minid:
; File C:\Program Files (x86)\Microsoft Visual Studio\2019\Community\VC\Tools\MSVC\14.27.29110\include\xstring

; 4301 :         if (_Mypair._Myval2._Large_string_engaged()) {

  005b2	8b 85 74 ff ff
	ff		 mov	 eax, DWORD PTR $T10[ebp+20]
  005b8	83 f8 10	 cmp	 eax, 16			; 00000010H
  005bb	72 10		 jb	 SHORT $LN405@make_minid

; 4302 :             const pointer _Ptr = _Mypair._Myval2._Bx._Ptr;
; 4303 :             auto& _Al          = _Getal();
; 4304 :             _Destroy_in_place(_Mypair._Myval2._Bx._Ptr);
; 4305 :             _Al.deallocate(_Ptr, _Mypair._Myval2._Myres + 1);

  005bd	40		 inc	 eax
; File C:\Program Files (x86)\Microsoft Visual Studio\2019\Community\VC\Tools\MSVC\14.27.29110\include\xmemory

; 803  :         _Deallocate<_New_alignof<_Ty>>(_Ptr, sizeof(_Ty) * _Count);

  005be	50		 push	 eax
  005bf	ff b5 60 ff ff
	ff		 push	 DWORD PTR $T10[ebp]
  005c5	e8 00 00 00 00	 call	 ??$_Deallocate@$07$0A@@std@@YAXPAXI@Z ; std::_Deallocate<8,0>
  005ca	83 c4 08	 add	 esp, 8
$LN405@make_minid:
; File C:\Program Files (x86)\Microsoft Visual Studio\2019\Community\VC\Tools\MSVC\14.27.29110\include\xstring

; 2153 :         return _BUF_SIZE <= _Myres;

  005cd	8b 45 ec	 mov	 eax, DWORD PTR $T13[ebp+20]
; File C:\DS Project\DS Files\Source\ClientSource\Client\EterBase\error.cpp

; 31   : 	std::string filename = folder + "\\"s + "metin2client_"s + std::to_string(METIN2_GET_VERSION()) + "_"s + timefmt.str() + ".dmp";

  005d0	c6 45 fc 1a	 mov	 BYTE PTR __$EHRec$[ebp+8], 26 ; 0000001aH
; File C:\Program Files (x86)\Microsoft Visual Studio\2019\Community\VC\Tools\MSVC\14.27.29110\include\xstring

; 2153 :         return _BUF_SIZE <= _Myres;

  005d4	83 f8 10	 cmp	 eax, 16			; 00000010H

; 4301 :         if (_Mypair._Myval2._Large_string_engaged()) {

  005d7	72 0d		 jb	 SHORT $LN415@make_minid

; 4302 :             const pointer _Ptr = _Mypair._Myval2._Bx._Ptr;
; 4303 :             auto& _Al          = _Getal();
; 4304 :             _Destroy_in_place(_Mypair._Myval2._Bx._Ptr);
; 4305 :             _Al.deallocate(_Ptr, _Mypair._Myval2._Myres + 1);

  005d9	40		 inc	 eax
; File C:\Program Files (x86)\Microsoft Visual Studio\2019\Community\VC\Tools\MSVC\14.27.29110\include\xmemory

; 803  :         _Deallocate<_New_alignof<_Ty>>(_Ptr, sizeof(_Ty) * _Count);

  005da	50		 push	 eax
  005db	ff 75 d8	 push	 DWORD PTR $T13[ebp]
  005de	e8 00 00 00 00	 call	 ??$_Deallocate@$07$0A@@std@@YAXPAXI@Z ; std::_Deallocate<8,0>
  005e3	83 c4 08	 add	 esp, 8
$LN415@make_minid:
; File C:\Program Files (x86)\Microsoft Visual Studio\2019\Community\VC\Tools\MSVC\14.27.29110\include\xstring

; 2153 :         return _BUF_SIZE <= _Myres;

  005e6	83 7d a4 10	 cmp	 DWORD PTR _filename$[ebp+20], 16 ; 00000010H

; 2144 :         const value_type* _Result = _Bx._Buf;

  005ea	8d 45 90	 lea	 eax, DWORD PTR _filename$[ebp]
; File C:\DS Project\DS Files\Source\ClientSource\Client\EterBase\error.cpp

; 33   : 	auto hFile = CreateFileA(filename.c_str(), GENERIC_WRITE, FILE_SHARE_READ, 0, CREATE_ALWAYS, FILE_ATTRIBUTE_NORMAL, 0);

  005ed	6a 00		 push	 0
; File C:\Program Files (x86)\Microsoft Visual Studio\2019\Community\VC\Tools\MSVC\14.27.29110\include\xstring

; 2145 :         if (_Large_string_engaged()) {

  005ef	0f 43 45 90	 cmovae	 eax, DWORD PTR _filename$[ebp]
; File C:\DS Project\DS Files\Source\ClientSource\Client\EterBase\error.cpp

; 33   : 	auto hFile = CreateFileA(filename.c_str(), GENERIC_WRITE, FILE_SHARE_READ, 0, CREATE_ALWAYS, FILE_ATTRIBUTE_NORMAL, 0);

  005f3	68 80 00 00 00	 push	 128			; 00000080H
  005f8	6a 02		 push	 2
  005fa	6a 00		 push	 0
  005fc	6a 01		 push	 1
  005fe	68 00 00 00 40	 push	 1073741824		; 40000000H
  00603	50		 push	 eax
  00604	ff 15 00 00 00
	00		 call	 DWORD PTR __imp__CreateFileA@28
  0060a	8b f0		 mov	 esi, eax

; 34   : 	if (hFile == INVALID_HANDLE_VALUE)

  0060c	83 fe ff	 cmp	 esi, -1
  0060f	74 48		 je	 SHORT $LN19@make_minid

; 35   : 		return;
; 36   : 
; 37   : 	MINIDUMP_EXCEPTION_INFORMATION exceptionInfo;
; 38   : 	exceptionInfo.ThreadId = GetCurrentThreadId();

  00611	ff 15 00 00 00
	00		 call	 DWORD PTR __imp__GetCurrentThreadId@0

; 39   : 	exceptionInfo.ExceptionPointers = e;
; 40   : 	exceptionInfo.ClientPointers = FALSE;
; 41   : 
; 42   : 	auto dumped = pMiniDumpWriteDump(

  00617	6a 00		 push	 0
  00619	33 c9		 xor	 ecx, ecx
  0061b	89 85 ac fe ff
	ff		 mov	 DWORD PTR _exceptionInfo$[ebp], eax
  00621	6a 00		 push	 0
  00623	85 ff		 test	 edi, edi
  00625	89 bd b0 fe ff
	ff		 mov	 DWORD PTR _exceptionInfo$[ebp+4], edi
  0062b	8d 85 ac fe ff
	ff		 lea	 eax, DWORD PTR _exceptionInfo$[ebp]
  00631	c7 85 b4 fe ff
	ff 00 00 00 00	 mov	 DWORD PTR _exceptionInfo$[ebp+8], 0
  0063b	0f 44 c1	 cmove	 eax, ecx
  0063e	50		 push	 eax
  0063f	6a 50		 push	 80			; 00000050H
  00641	56		 push	 esi
  00642	ff 15 00 00 00
	00		 call	 DWORD PTR __imp__GetCurrentProcessId@0
  00648	50		 push	 eax
  00649	ff 15 00 00 00
	00		 call	 DWORD PTR __imp__GetCurrentProcess@0
  0064f	50		 push	 eax
  00650	ff d3		 call	 ebx

; 43   : 		GetCurrentProcess(),
; 44   : 		GetCurrentProcessId(),
; 45   : 		hFile,
; 46   : 		MINIDUMP_TYPE(MiniDumpWithIndirectlyReferencedMemory | MiniDumpScanMemory),
; 47   : 		e ? &exceptionInfo : nullptr,
; 48   : 		nullptr,
; 49   : 		nullptr);
; 50   : 
; 51   : 	CloseHandle(hFile);

  00652	56		 push	 esi
  00653	ff 15 00 00 00
	00		 call	 DWORD PTR __imp__CloseHandle@4
$LN19@make_minid:
; File C:\Program Files (x86)\Microsoft Visual Studio\2019\Community\VC\Tools\MSVC\14.27.29110\include\xstring

; 2153 :         return _BUF_SIZE <= _Myres;

  00659	8b 45 a4	 mov	 eax, DWORD PTR _filename$[ebp+20]
  0065c	83 f8 10	 cmp	 eax, 16			; 00000010H

; 4301 :         if (_Mypair._Myval2._Large_string_engaged()) {

  0065f	72 0d		 jb	 SHORT $LN442@make_minid

; 4302 :             const pointer _Ptr = _Mypair._Myval2._Bx._Ptr;
; 4303 :             auto& _Al          = _Getal();
; 4304 :             _Destroy_in_place(_Mypair._Myval2._Bx._Ptr);
; 4305 :             _Al.deallocate(_Ptr, _Mypair._Myval2._Myres + 1);

  00661	40		 inc	 eax
; File C:\Program Files (x86)\Microsoft Visual Studio\2019\Community\VC\Tools\MSVC\14.27.29110\include\xmemory

; 803  :         _Deallocate<_New_alignof<_Ty>>(_Ptr, sizeof(_Ty) * _Count);

  00662	50		 push	 eax
  00663	ff 75 90	 push	 DWORD PTR _filename$[ebp]
  00666	e8 00 00 00 00	 call	 ??$_Deallocate@$07$0A@@std@@YAXPAXI@Z ; std::_Deallocate<8,0>
  0066b	83 c4 08	 add	 esp, 8
$LN442@make_minid:
; File C:\DS Project\DS Files\Source\ClientSource\Client\EterBase\error.cpp

; 56   : 	return;

  0066e	8d 8d 14 fe ff
	ff		 lea	 ecx, DWORD PTR _timefmt$[ebp]
; File C:\Program Files (x86)\Microsoft Visual Studio\2019\Community\VC\Tools\MSVC\14.27.29110\include\xstring

; 4308 :         _Mypair._Myval2._Mysize = 0;

  00674	c7 45 a0 00 00
	00 00		 mov	 DWORD PTR _filename$[ebp+16], 0

; 4309 :         _Mypair._Myval2._Myres  = _BUF_SIZE - 1;

  0067b	c7 45 a4 0f 00
	00 00		 mov	 DWORD PTR _filename$[ebp+20], 15 ; 0000000fH

; 4310 :         // the _Traits::assign is last so the codegen doesn't think the char write can alias this
; 4311 :         _Traits::assign(_Mypair._Myval2._Bx._Buf[0], _Elem());

  00682	c6 45 90 00	 mov	 BYTE PTR _filename$[ebp], 0
; File C:\DS Project\DS Files\Source\ClientSource\Client\EterBase\error.cpp

; 56   : 	return;

  00686	e8 00 00 00 00	 call	 ??_D?$basic_ostringstream@DU?$char_traits@D@std@@V?$allocator@D@2@@std@@QAEXXZ
; File C:\Program Files (x86)\Microsoft Visual Studio\2019\Community\VC\Tools\MSVC\14.27.29110\include\xstring

; 2153 :         return _BUF_SIZE <= _Myres;

  0068b	8b 45 8c	 mov	 eax, DWORD PTR _folder$[ebp+20]
  0068e	83 f8 10	 cmp	 eax, 16			; 00000010H

; 4301 :         if (_Mypair._Myval2._Large_string_engaged()) {

  00691	72 10		 jb	 SHORT $LN452@make_minid

; 4302 :             const pointer _Ptr = _Mypair._Myval2._Bx._Ptr;
; 4303 :             auto& _Al          = _Getal();
; 4304 :             _Destroy_in_place(_Mypair._Myval2._Bx._Ptr);
; 4305 :             _Al.deallocate(_Ptr, _Mypair._Myval2._Myres + 1);

  00693	40		 inc	 eax
; File C:\Program Files (x86)\Microsoft Visual Studio\2019\Community\VC\Tools\MSVC\14.27.29110\include\xmemory

; 803  :         _Deallocate<_New_alignof<_Ty>>(_Ptr, sizeof(_Ty) * _Count);

  00694	50		 push	 eax
  00695	ff b5 78 ff ff
	ff		 push	 DWORD PTR _folder$[ebp]
  0069b	e8 00 00 00 00	 call	 ??$_Deallocate@$07$0A@@std@@YAXPAXI@Z ; std::_Deallocate<8,0>
  006a0	83 c4 08	 add	 esp, 8
$LN452@make_minid:
; File C:\DS Project\DS Files\Source\ClientSource\Client\EterBase\error.cpp

; 57   : }

  006a3	8b 4d f4	 mov	 ecx, DWORD PTR __$EHRec$[ebp]
  006a6	64 89 0d 00 00
	00 00		 mov	 DWORD PTR fs:0, ecx
  006ad	59		 pop	 ecx
  006ae	5f		 pop	 edi
  006af	5e		 pop	 esi
  006b0	5b		 pop	 ebx
  006b1	8b 4d f0	 mov	 ecx, DWORD PTR __$ArrayPad$[ebp]
  006b4	33 cd		 xor	 ecx, ebp
  006b6	e8 00 00 00 00	 call	 @__security_check_cookie@4
  006bb	8b e5		 mov	 esp, ebp
  006bd	5d		 pop	 ebp
  006be	c3		 ret	 0
$LN462@make_minid:
; File C:\Program Files (x86)\Microsoft Visual Studio\2019\Community\VC\Tools\MSVC\14.27.29110\include\xstring

; 4222 :             _Xlen_string(); // result too long

  006bf	e8 00 00 00 00	 call	 ?_Xlen_string@std@@YAXXZ ; std::_Xlen_string
$LN460@make_minid:
  006c4	cc		 int	 3
_TEXT	ENDS
;	COMDAT text$x
text$x	SEGMENT
__unwindfunclet$?make_minidump@@YAXPAU_EXCEPTION_POINTERS@@@Z$0:
  00000	8d 8d 78 ff ff
	ff		 lea	 ecx, DWORD PTR _folder$[ebp]
  00006	e9 00 00 00 00	 jmp	 ??1?$basic_string@DU?$char_traits@D@std@@V?$allocator@D@2@@std@@QAE@XZ ; std::basic_string<char,std::char_traits<char>,std::allocator<char> >::~basic_string<char,std::char_traits<char>,std::allocator<char> >
__unwindfunclet$?make_minidump@@YAXPAU_EXCEPTION_POINTERS@@@Z$13:
  0000b	8b 85 cc fe ff
	ff		 mov	 eax, DWORD PTR $T3[ebp]
  00011	83 e0 01	 and	 eax, 1
  00014	0f 84 12 00 00
	00		 je	 $LN80@make_minid
  0001a	83 a5 cc fe ff
	ff fe		 and	 DWORD PTR $T3[ebp], -2	; fffffffeH
  00021	8d 8d 64 fe ff
	ff		 lea	 ecx, DWORD PTR _timefmt$[ebp+80]
  00027	e9 00 00 00 00	 jmp	 ??1?$basic_ios@DU?$char_traits@D@std@@@std@@UAE@XZ ; std::basic_ios<char,std::char_traits<char> >::~basic_ios<char,std::char_traits<char> >
$LN80@make_minid:
  0002c	c3		 ret	 0
__unwindfunclet$?make_minidump@@YAXPAU_EXCEPTION_POINTERS@@@Z$14:
  0002d	8d 8d 1c fe ff
	ff		 lea	 ecx, DWORD PTR _timefmt$[ebp+8]
  00033	e9 00 00 00 00	 jmp	 ??1?$basic_ostream@DU?$char_traits@D@std@@@std@@UAE@XZ ; std::basic_ostream<char,std::char_traits<char> >::~basic_ostream<char,std::char_traits<char> >
__unwindfunclet$?make_minidump@@YAXPAU_EXCEPTION_POINTERS@@@Z$1:
  00038	8d 8d 14 fe ff
	ff		 lea	 ecx, DWORD PTR _timefmt$[ebp]
  0003e	e9 00 00 00 00	 jmp	 ??_D?$basic_ostringstream@DU?$char_traits@D@std@@V?$allocator@D@2@@std@@QAEXXZ
__unwindfunclet$?make_minidump@@YAXPAU_EXCEPTION_POINTERS@@@Z$19:
  00043	8b 85 cc fe ff
	ff		 mov	 eax, DWORD PTR $T3[ebp]
  00049	83 e0 04	 and	 eax, 4
  0004c	0f 84 0f 00 00
	00		 je	 $LN121@make_minid
  00052	83 a5 cc fe ff
	ff fb		 and	 DWORD PTR $T3[ebp], -5	; fffffffbH
  00059	8d 4d d8	 lea	 ecx, DWORD PTR $T13[ebp]
  0005c	e9 00 00 00 00	 jmp	 ??1?$basic_string@DU?$char_traits@D@std@@V?$allocator@D@2@@std@@QAE@XZ ; std::basic_string<char,std::char_traits<char>,std::allocator<char> >::~basic_string<char,std::char_traits<char>,std::allocator<char> >
$LN121@make_minid:
  00061	c3		 ret	 0
__unwindfunclet$?make_minidump@@YAXPAU_EXCEPTION_POINTERS@@@Z$2:
  00062	8d 4d d8	 lea	 ecx, DWORD PTR $T13[ebp]
  00065	e9 00 00 00 00	 jmp	 ??1?$basic_string@DU?$char_traits@D@std@@V?$allocator@D@2@@std@@QAE@XZ ; std::basic_string<char,std::char_traits<char>,std::allocator<char> >::~basic_string<char,std::char_traits<char>,std::allocator<char> >
__unwindfunclet$?make_minidump@@YAXPAU_EXCEPTION_POINTERS@@@Z$3:
  0006a	8d 8d 60 ff ff
	ff		 lea	 ecx, DWORD PTR $T10[ebp]
  00070	e9 00 00 00 00	 jmp	 ??1?$basic_string@DU?$char_traits@D@std@@V?$allocator@D@2@@std@@QAE@XZ ; std::basic_string<char,std::char_traits<char>,std::allocator<char> >::~basic_string<char,std::char_traits<char>,std::allocator<char> >
__unwindfunclet$?make_minidump@@YAXPAU_EXCEPTION_POINTERS@@@Z$4:
  00075	8d 8d d0 fe ff
	ff		 lea	 ecx, DWORD PTR $T4[ebp]
  0007b	e9 00 00 00 00	 jmp	 ??1?$basic_string@DU?$char_traits@D@std@@V?$allocator@D@2@@std@@QAE@XZ ; std::basic_string<char,std::char_traits<char>,std::allocator<char> >::~basic_string<char,std::char_traits<char>,std::allocator<char> >
__unwindfunclet$?make_minidump@@YAXPAU_EXCEPTION_POINTERS@@@Z$5:
  00080	8d 4d a8	 lea	 ecx, DWORD PTR $T11[ebp]
  00083	e9 00 00 00 00	 jmp	 ??1?$basic_string@DU?$char_traits@D@std@@V?$allocator@D@2@@std@@QAE@XZ ; std::basic_string<char,std::char_traits<char>,std::allocator<char> >::~basic_string<char,std::char_traits<char>,std::allocator<char> >
__unwindfunclet$?make_minidump@@YAXPAU_EXCEPTION_POINTERS@@@Z$6:
  00088	8d 4d c0	 lea	 ecx, DWORD PTR $T12[ebp]
  0008b	e9 00 00 00 00	 jmp	 ??1?$basic_string@DU?$char_traits@D@std@@V?$allocator@D@2@@std@@QAE@XZ ; std::basic_string<char,std::char_traits<char>,std::allocator<char> >::~basic_string<char,std::char_traits<char>,std::allocator<char> >
__unwindfunclet$?make_minidump@@YAXPAU_EXCEPTION_POINTERS@@@Z$7:
  00090	8d 8d e8 fe ff
	ff		 lea	 ecx, DWORD PTR $T5[ebp]
  00096	e9 00 00 00 00	 jmp	 ??1?$basic_string@DU?$char_traits@D@std@@V?$allocator@D@2@@std@@QAE@XZ ; std::basic_string<char,std::char_traits<char>,std::allocator<char> >::~basic_string<char,std::char_traits<char>,std::allocator<char> >
__unwindfunclet$?make_minidump@@YAXPAU_EXCEPTION_POINTERS@@@Z$8:
  0009b	8d 8d 00 ff ff
	ff		 lea	 ecx, DWORD PTR $T6[ebp]
  000a1	e9 00 00 00 00	 jmp	 ??1?$basic_string@DU?$char_traits@D@std@@V?$allocator@D@2@@std@@QAE@XZ ; std::basic_string<char,std::char_traits<char>,std::allocator<char> >::~basic_string<char,std::char_traits<char>,std::allocator<char> >
__unwindfunclet$?make_minidump@@YAXPAU_EXCEPTION_POINTERS@@@Z$9:
  000a6	8d 8d 18 ff ff
	ff		 lea	 ecx, DWORD PTR $T7[ebp]
  000ac	e9 00 00 00 00	 jmp	 ??1?$basic_string@DU?$char_traits@D@std@@V?$allocator@D@2@@std@@QAE@XZ ; std::basic_string<char,std::char_traits<char>,std::allocator<char> >::~basic_string<char,std::char_traits<char>,std::allocator<char> >
__unwindfunclet$?make_minidump@@YAXPAU_EXCEPTION_POINTERS@@@Z$10:
  000b1	8d 8d 30 ff ff
	ff		 lea	 ecx, DWORD PTR $T8[ebp]
  000b7	e9 00 00 00 00	 jmp	 ??1?$basic_string@DU?$char_traits@D@std@@V?$allocator@D@2@@std@@QAE@XZ ; std::basic_string<char,std::char_traits<char>,std::allocator<char> >::~basic_string<char,std::char_traits<char>,std::allocator<char> >
__unwindfunclet$?make_minidump@@YAXPAU_EXCEPTION_POINTERS@@@Z$11:
  000bc	8d 8d 48 ff ff
	ff		 lea	 ecx, DWORD PTR $T9[ebp]
  000c2	e9 00 00 00 00	 jmp	 ??1?$basic_string@DU?$char_traits@D@std@@V?$allocator@D@2@@std@@QAE@XZ ; std::basic_string<char,std::char_traits<char>,std::allocator<char> >::~basic_string<char,std::char_traits<char>,std::allocator<char> >
__unwindfunclet$?make_minidump@@YAXPAU_EXCEPTION_POINTERS@@@Z$12:
  000c7	8d 4d 90	 lea	 ecx, DWORD PTR _filename$[ebp]
  000ca	e9 00 00 00 00	 jmp	 ??1?$basic_string@DU?$char_traits@D@std@@V?$allocator@D@2@@std@@QAE@XZ ; std::basic_string<char,std::char_traits<char>,std::allocator<char> >::~basic_string<char,std::char_traits<char>,std::allocator<char> >
  000cf	cc		 int	 3
  000d0	cc		 int	 3
  000d1	cc		 int	 3
  000d2	cc		 int	 3
  000d3	cc		 int	 3
__ehhandler$?make_minidump@@YAXPAU_EXCEPTION_POINTERS@@@Z:
  000d4	90		 npad	 1
  000d5	90		 npad	 1
  000d6	8b 54 24 08	 mov	 edx, DWORD PTR [esp+8]
  000da	8d 42 0c	 lea	 eax, DWORD PTR [edx+12]
  000dd	8b 8a 10 fe ff
	ff		 mov	 ecx, DWORD PTR [edx-496]
  000e3	33 c8		 xor	 ecx, eax
  000e5	e8 00 00 00 00	 call	 @__security_check_cookie@4
  000ea	8b 4a fc	 mov	 ecx, DWORD PTR [edx-4]
  000ed	33 c8		 xor	 ecx, eax
  000ef	e8 00 00 00 00	 call	 @__security_check_cookie@4
  000f4	b8 00 00 00 00	 mov	 eax, OFFSET __ehfuncinfo$?make_minidump@@YAXPAU_EXCEPTION_POINTERS@@@Z
  000f9	e9 00 00 00 00	 jmp	 ___CxxFrameHandler3
text$x	ENDS
?make_minidump@@YAXPAU_EXCEPTION_POINTERS@@@Z ENDP	; make_minidump
; Function compile flags: /Ogtp
; File C:\Program Files (x86)\Microsoft Visual Studio\2019\Community\VC\Tools\MSVC\14.27.29110\include\xiosbase
;	COMDAT ??_Gios_base@std@@UAEPAXI@Z
_TEXT	SEGMENT
__$EHRec$ = -12						; size = 12
___flags$ = 8						; size = 4
??_Gios_base@std@@UAEPAXI@Z PROC			; std::ios_base::`scalar deleting destructor', COMDAT
; _this$ = ecx
  00000	55		 push	 ebp
  00001	8b ec		 mov	 ebp, esp
  00003	6a ff		 push	 -1
  00005	68 00 00 00 00	 push	 __ehhandler$??_Gios_base@std@@UAEPAXI@Z
  0000a	64 a1 00 00 00
	00		 mov	 eax, DWORD PTR fs:0
  00010	50		 push	 eax
  00011	56		 push	 esi
  00012	a1 00 00 00 00	 mov	 eax, DWORD PTR ___security_cookie
  00017	33 c5		 xor	 eax, ebp
  00019	50		 push	 eax
  0001a	8d 45 f4	 lea	 eax, DWORD PTR __$EHRec$[ebp]
  0001d	64 a3 00 00 00
	00		 mov	 DWORD PTR fs:0, eax
  00023	8b f1		 mov	 esi, ecx

; 452  :         _Ios_base_dtor(this);

  00025	56		 push	 esi
  00026	c7 45 fc 00 00
	00 00		 mov	 DWORD PTR __$EHRec$[ebp+8], 0
  0002d	c7 06 00 00 00
	00		 mov	 DWORD PTR [esi], OFFSET ??_7ios_base@std@@6B@
  00033	e8 00 00 00 00	 call	 ?_Ios_base_dtor@ios_base@std@@CAXPAV12@@Z ; std::ios_base::_Ios_base_dtor
  00038	83 c4 04	 add	 esp, 4
  0003b	f6 45 08 01	 test	 BYTE PTR ___flags$[ebp], 1
  0003f	74 0b		 je	 SHORT $LN7@scalar
  00041	6a 38		 push	 56			; 00000038H
  00043	56		 push	 esi
  00044	e8 00 00 00 00	 call	 ??3@YAXPAXI@Z		; operator delete
  00049	83 c4 08	 add	 esp, 8
$LN7@scalar:
  0004c	8b c6		 mov	 eax, esi
  0004e	8b 4d f4	 mov	 ecx, DWORD PTR __$EHRec$[ebp]
  00051	64 89 0d 00 00
	00 00		 mov	 DWORD PTR fs:0, ecx
  00058	59		 pop	 ecx
  00059	5e		 pop	 esi
  0005a	8b e5		 mov	 esp, ebp
  0005c	5d		 pop	 ebp
  0005d	c2 04 00	 ret	 4
  00060	cc		 int	 3
  00061	cc		 int	 3
  00062	cc		 int	 3
  00063	cc		 int	 3
  00064	cc		 int	 3
_TEXT	ENDS
;	COMDAT text$x
text$x	SEGMENT
__ehhandler$??_Gios_base@std@@UAEPAXI@Z:
  00000	90		 npad	 1
  00001	90		 npad	 1
  00002	8b 54 24 08	 mov	 edx, DWORD PTR [esp+8]
  00006	8d 42 0c	 lea	 eax, DWORD PTR [edx+12]
  00009	8b 4a f8	 mov	 ecx, DWORD PTR [edx-8]
  0000c	33 c8		 xor	 ecx, eax
  0000e	e8 00 00 00 00	 call	 @__security_check_cookie@4
  00013	b8 00 00 00 00	 mov	 eax, OFFSET __ehfuncinfo$??_Gios_base@std@@UAEPAXI@Z
  00018	e9 00 00 00 00	 jmp	 ___CxxFrameHandler3
text$x	ENDS
??_Gios_base@std@@UAEPAXI@Z ENDP			; std::ios_base::`scalar deleting destructor'
; Function compile flags: /Ogtp
; File C:\Program Files (x86)\Microsoft Visual Studio\2019\Community\VC\Tools\MSVC\14.27.29110\include\xiosbase
;	COMDAT ??1ios_base@std@@UAE@XZ
_TEXT	SEGMENT
__$EHRec$ = -12						; size = 12
??1ios_base@std@@UAE@XZ PROC				; std::ios_base::~ios_base, COMDAT
; _this$ = ecx

; 451  :     virtual __CLR_OR_THIS_CALL ~ios_base() noexcept {

  00000	55		 push	 ebp
  00001	8b ec		 mov	 ebp, esp
  00003	6a ff		 push	 -1
  00005	68 00 00 00 00	 push	 __ehhandler$??1ios_base@std@@UAE@XZ
  0000a	64 a1 00 00 00
	00		 mov	 eax, DWORD PTR fs:0
  00010	50		 push	 eax
  00011	a1 00 00 00 00	 mov	 eax, DWORD PTR ___security_cookie
  00016	33 c5		 xor	 eax, ebp
  00018	50		 push	 eax
  00019	8d 45 f4	 lea	 eax, DWORD PTR __$EHRec$[ebp]
  0001c	64 a3 00 00 00
	00		 mov	 DWORD PTR fs:0, eax

; 452  :         _Ios_base_dtor(this);

  00022	51		 push	 ecx
  00023	c7 01 00 00 00
	00		 mov	 DWORD PTR [ecx], OFFSET ??_7ios_base@std@@6B@
  00029	e8 00 00 00 00	 call	 ?_Ios_base_dtor@ios_base@std@@CAXPAV12@@Z ; std::ios_base::_Ios_base_dtor
  0002e	83 c4 04	 add	 esp, 4

; 453  :     }

  00031	8b 4d f4	 mov	 ecx, DWORD PTR __$EHRec$[ebp]
  00034	64 89 0d 00 00
	00 00		 mov	 DWORD PTR fs:0, ecx
  0003b	59		 pop	 ecx
  0003c	8b e5		 mov	 esp, ebp
  0003e	5d		 pop	 ebp
  0003f	c3		 ret	 0
  00040	cc		 int	 3
  00041	cc		 int	 3
  00042	cc		 int	 3
  00043	cc		 int	 3
  00044	cc		 int	 3
_TEXT	ENDS
;	COMDAT text$x
text$x	SEGMENT
__ehhandler$??1ios_base@std@@UAE@XZ:
  00000	90		 npad	 1
  00001	90		 npad	 1
  00002	8b 54 24 08	 mov	 edx, DWORD PTR [esp+8]
  00006	8d 42 0c	 lea	 eax, DWORD PTR [edx+12]
  00009	8b 4a fc	 mov	 ecx, DWORD PTR [edx-4]
  0000c	33 c8		 xor	 ecx, eax
  0000e	e8 00 00 00 00	 call	 @__security_check_cookie@4
  00013	b8 00 00 00 00	 mov	 eax, OFFSET __ehfuncinfo$??1ios_base@std@@UAE@XZ
  00018	e9 00 00 00 00	 jmp	 ___CxxFrameHandler3
text$x	ENDS
??1ios_base@std@@UAE@XZ ENDP				; std::ios_base::~ios_base
; Function compile flags: /Ogtp
; File C:\Program Files (x86)\Microsoft Visual Studio\2019\Community\VC\Tools\MSVC\14.27.29110\include\xiosbase
;	COMDAT ?clear@ios_base@std@@QAEXH_N@Z
_TEXT	SEGMENT
$T1 = -28						; size = 20
$T2 = -8						; size = 8
__State$ = 8						; size = 4
__Reraise$ = 12						; size = 1
?clear@ios_base@std@@QAEXH_N@Z PROC			; std::ios_base::clear, COMDAT
; _this$ = ecx

; 243  :     void __CLR_OR_THIS_CALL clear(iostate _State, bool _Reraise) { // set state, possibly reraise exception

  00000	55		 push	 ebp
  00001	8b ec		 mov	 ebp, esp

; 244  :         _State &= _Statmask;

  00003	8b 45 08	 mov	 eax, DWORD PTR __State$[ebp]
  00006	83 ec 1c	 sub	 esp, 28			; 0000001cH
  00009	83 e0 17	 and	 eax, 23			; 00000017H

; 245  :         _Mystate             = _State;

  0000c	89 41 0c	 mov	 DWORD PTR [ecx+12], eax

; 246  :         const auto _Filtered = _State & _Except;

  0000f	8b 49 10	 mov	 ecx, DWORD PTR [ecx+16]
  00012	56		 push	 esi
  00013	23 c8		 and	 ecx, eax

; 247  :         if (_Filtered) {

  00015	74 08		 je	 SHORT $LN2@clear

; 248  :             if (_Reraise) {

  00017	80 7d 0c 00	 cmp	 BYTE PTR __Reraise$[ebp], 0
  0001b	74 12		 je	 SHORT $LN3@clear
  0001d	eb 07		 jmp	 SHORT $LN11@clear
$LN2@clear:

; 262  :         }
; 263  :     }

  0001f	5e		 pop	 esi
  00020	8b e5		 mov	 esp, ebp
  00022	5d		 pop	 ebp
  00023	c2 08 00	 ret	 8
$LN11@clear:

; 249  :                 _RERAISE;

  00026	6a 00		 push	 0
  00028	6a 00		 push	 0
  0002a	e8 00 00 00 00	 call	 __CxxThrowException@8
$LN3@clear:

; 250  :             }
; 251  : 
; 252  :             const char* _Msg;
; 253  :             if (_Filtered & ios_base::badbit) {

  0002f	f6 c1 04	 test	 cl, 4
  00032	74 07		 je	 SHORT $LN4@clear

; 254  :                 _Msg = "ios_base::badbit set";

  00034	be 00 00 00 00	 mov	 esi, OFFSET ??_C@_0BF@PHHKMMFD@ios_base?3?3badbit?5set@
  00039	eb 10		 jmp	 SHORT $LN6@clear
$LN4@clear:

; 255  :             } else if (_Filtered & ios_base::failbit) {

  0003b	f6 c1 02	 test	 cl, 2
  0003e	be 00 00 00 00	 mov	 esi, OFFSET ??_C@_0BG@FMKFHCIL@ios_base?3?3failbit?5set@
  00043	b8 00 00 00 00	 mov	 eax, OFFSET ??_C@_0BF@OOHOMBOF@ios_base?3?3eofbit?5set@
  00048	0f 44 f0	 cmove	 esi, eax
$LN6@clear:

; 256  :                 _Msg = "ios_base::failbit set";
; 257  :             } else {
; 258  :                 _Msg = "ios_base::eofbit set";
; 259  :             }
; 260  : 
; 261  :             _THROW(failure(_Msg));

  0004b	8d 45 f8	 lea	 eax, DWORD PTR $T2[ebp]
  0004e	6a 01		 push	 1
  00050	50		 push	 eax
  00051	e8 00 00 00 00	 call	 ?make_error_code@std@@YA?AVerror_code@1@W4io_errc@1@@Z ; std::make_error_code
  00056	83 c4 08	 add	 esp, 8
  00059	8d 4d e4	 lea	 ecx, DWORD PTR $T1[ebp]
  0005c	50		 push	 eax
  0005d	56		 push	 esi
  0005e	e8 00 00 00 00	 call	 ??0failure@ios_base@std@@QAE@PBDABVerror_code@2@@Z ; std::ios_base::failure::failure
  00063	68 00 00 00 00	 push	 OFFSET __TI5?AVfailure@ios_base@std@@
  00068	8d 45 e4	 lea	 eax, DWORD PTR $T1[ebp]
  0006b	50		 push	 eax
  0006c	e8 00 00 00 00	 call	 __CxxThrowException@8
$LN9@clear:
  00071	cc		 int	 3
?clear@ios_base@std@@QAEXH_N@Z ENDP			; std::ios_base::clear
_TEXT	ENDS
; Function compile flags: /Ogtp
; File C:\Program Files (x86)\Microsoft Visual Studio\2019\Community\VC\Tools\MSVC\14.27.29110\include\vcruntime_exception.h
;	COMDAT ??_Gfailure@ios_base@std@@UAEPAXI@Z
_TEXT	SEGMENT
___flags$ = 8						; size = 4
??_Gfailure@ios_base@std@@UAEPAXI@Z PROC		; std::ios_base::failure::`scalar deleting destructor', COMDAT
; _this$ = ecx
  00000	55		 push	 ebp
  00001	8b ec		 mov	 ebp, esp

; 89   :     {

  00003	56		 push	 esi
  00004	8b f1		 mov	 esi, ecx

; 90   :         __std_exception_destroy(&_Data);

  00006	8d 46 04	 lea	 eax, DWORD PTR [esi+4]
  00009	c7 06 00 00 00
	00		 mov	 DWORD PTR [esi], OFFSET ??_7exception@std@@6B@
  0000f	50		 push	 eax
  00010	e8 00 00 00 00	 call	 ___std_exception_destroy
  00015	83 c4 04	 add	 esp, 4
  00018	f6 45 08 01	 test	 BYTE PTR ___flags$[ebp], 1
  0001c	74 0b		 je	 SHORT $LN18@scalar
  0001e	6a 14		 push	 20			; 00000014H
  00020	56		 push	 esi
  00021	e8 00 00 00 00	 call	 ??3@YAXPAXI@Z		; operator delete
  00026	83 c4 08	 add	 esp, 8
$LN18@scalar:
  00029	8b c6		 mov	 eax, esi
  0002b	5e		 pop	 esi
  0002c	5d		 pop	 ebp
  0002d	c2 04 00	 ret	 4
??_Gfailure@ios_base@std@@UAEPAXI@Z ENDP		; std::ios_base::failure::`scalar deleting destructor'
_TEXT	ENDS
; Function compile flags: /Ogtp
; File C:\Program Files (x86)\Microsoft Visual Studio\2019\Community\VC\Tools\MSVC\14.27.29110\include\vcruntime_exception.h
;	COMDAT ??0failure@ios_base@std@@QAE@ABV012@@Z
_TEXT	SEGMENT
___that$ = 8						; size = 4
??0failure@ios_base@std@@QAE@ABV012@@Z PROC		; std::ios_base::failure::failure, COMDAT
; _this$ = ecx
  00000	55		 push	 ebp
  00001	8b ec		 mov	 ebp, esp

; 72   :     {

  00003	56		 push	 esi

; 73   :         __std_exception_copy(&_Other._Data, &_Data);

  00004	8b 75 08	 mov	 esi, DWORD PTR ___that$[ebp]
  00007	0f 57 c0	 xorps	 xmm0, xmm0

; 72   :     {

  0000a	57		 push	 edi
  0000b	8b f9		 mov	 edi, ecx

; 71   :         : _Data()

  0000d	8d 47 04	 lea	 eax, DWORD PTR [edi+4]

; 73   :         __std_exception_copy(&_Other._Data, &_Data);

  00010	50		 push	 eax
  00011	c7 07 00 00 00
	00		 mov	 DWORD PTR [edi], OFFSET ??_7exception@std@@6B@
  00017	66 0f d6 00	 movq	 QWORD PTR [eax], xmm0
  0001b	8d 46 04	 lea	 eax, DWORD PTR [esi+4]
  0001e	50		 push	 eax
  0001f	e8 00 00 00 00	 call	 ___std_exception_copy
  00024	c7 07 00 00 00
	00		 mov	 DWORD PTR [edi], OFFSET ??_7_System_error@std@@6B@
  0002a	83 c4 08	 add	 esp, 8
  0002d	8b 46 0c	 mov	 eax, DWORD PTR [esi+12]
  00030	89 47 0c	 mov	 DWORD PTR [edi+12], eax
  00033	8b 46 10	 mov	 eax, DWORD PTR [esi+16]
  00036	89 47 10	 mov	 DWORD PTR [edi+16], eax
  00039	8b c7		 mov	 eax, edi
  0003b	c7 07 00 00 00
	00		 mov	 DWORD PTR [edi], OFFSET ??_7failure@ios_base@std@@6B@
  00041	5f		 pop	 edi
  00042	5e		 pop	 esi
  00043	5d		 pop	 ebp
  00044	c2 04 00	 ret	 4
??0failure@ios_base@std@@QAE@ABV012@@Z ENDP		; std::ios_base::failure::failure
_TEXT	ENDS
; Function compile flags: /Ogtp
; File C:\Program Files (x86)\Microsoft Visual Studio\2019\Community\VC\Tools\MSVC\14.27.29110\include\vcruntime_exception.h
;	COMDAT ??1failure@ios_base@std@@UAE@XZ
_TEXT	SEGMENT
??1failure@ios_base@std@@UAE@XZ PROC			; std::ios_base::failure::~failure, COMDAT
; _this$ = ecx

; 90   :         __std_exception_destroy(&_Data);

  00000	8d 41 04	 lea	 eax, DWORD PTR [ecx+4]
  00003	c7 01 00 00 00
	00		 mov	 DWORD PTR [ecx], OFFSET ??_7exception@std@@6B@
  00009	50		 push	 eax
  0000a	e8 00 00 00 00	 call	 ___std_exception_destroy
  0000f	59		 pop	 ecx
  00010	c3		 ret	 0
??1failure@ios_base@std@@UAE@XZ ENDP			; std::ios_base::failure::~failure
_TEXT	ENDS
; Function compile flags: /Ogtp
; File C:\Program Files (x86)\Microsoft Visual Studio\2019\Community\VC\Tools\MSVC\14.27.29110\include\xiosbase
; File C:\Program Files (x86)\Microsoft Visual Studio\2019\Community\VC\Tools\MSVC\14.27.29110\include\xstring
; File C:\Program Files (x86)\Microsoft Visual Studio\2019\Community\VC\Tools\MSVC\14.27.29110\include\xiosbase
; File C:\Program Files (x86)\Microsoft Visual Studio\2019\Community\VC\Tools\MSVC\14.27.29110\include\xstring
; File C:\Program Files (x86)\Microsoft Visual Studio\2019\Community\VC\Tools\MSVC\14.27.29110\include\xiosbase
; File C:\Program Files (x86)\Microsoft Visual Studio\2019\Community\VC\Tools\MSVC\14.27.29110\include\xstring
; File C:\Program Files (x86)\Microsoft Visual Studio\2019\Community\VC\Tools\MSVC\14.27.29110\include\system_error
; File C:\Program Files (x86)\Microsoft Visual Studio\2019\Community\VC\Tools\MSVC\14.27.29110\include\xstring
; File C:\Program Files (x86)\Microsoft Visual Studio\2019\Community\VC\Tools\MSVC\14.27.29110\include\xmemory
; File C:\Program Files (x86)\Microsoft Visual Studio\2019\Community\VC\Tools\MSVC\14.27.29110\include\xiosbase
;	COMDAT ??0failure@ios_base@std@@QAE@PBDABVerror_code@2@@Z
_TEXT	SEGMENT
tv230 = -44						; size = 4
_this$GSCopy$ = -44					; size = 4
_this$ = -44						; size = 4
$T2 = -40						; size = 24
__$ArrayPad$ = -16					; size = 4
__$EHRec$ = -12						; size = 12
__Message$ = 8						; size = 4
__Errcode$ = 12						; size = 4
??0failure@ios_base@std@@QAE@PBDABVerror_code@2@@Z PROC	; std::ios_base::failure::failure, COMDAT
; _this$ = ecx

; 204  :         explicit failure(const char* _Message, const error_code& _Errcode = make_error_code(io_errc::stream))

  00000	55		 push	 ebp
  00001	8b ec		 mov	 ebp, esp
  00003	6a ff		 push	 -1
  00005	68 00 00 00 00	 push	 __ehhandler$??0failure@ios_base@std@@QAE@PBDABVerror_code@2@@Z
  0000a	64 a1 00 00 00
	00		 mov	 eax, DWORD PTR fs:0
  00010	50		 push	 eax
  00011	83 ec 20	 sub	 esp, 32			; 00000020H
  00014	a1 00 00 00 00	 mov	 eax, DWORD PTR ___security_cookie
  00019	33 c5		 xor	 eax, ebp
  0001b	89 45 f0	 mov	 DWORD PTR __$ArrayPad$[ebp], eax
  0001e	53		 push	 ebx
  0001f	56		 push	 esi
  00020	57		 push	 edi
  00021	50		 push	 eax
  00022	8d 45 f4	 lea	 eax, DWORD PTR __$EHRec$[ebp]
  00025	64 a3 00 00 00
	00		 mov	 DWORD PTR fs:0, eax
  0002b	8b f1		 mov	 esi, ecx
  0002d	89 75 d4	 mov	 DWORD PTR _this$[ebp], esi
  00030	8b 45 0c	 mov	 eax, DWORD PTR __Errcode$[ebp]
  00033	8b 55 08	 mov	 edx, DWORD PTR __Message$[ebp]
; File C:\Program Files (x86)\Microsoft Visual Studio\2019\Community\VC\Tools\MSVC\14.27.29110\include\xstring

; 321  :         return _CSTD strlen(reinterpret_cast<const char*>(_First));

  00036	8b ca		 mov	 ecx, edx
; File C:\Program Files (x86)\Microsoft Visual Studio\2019\Community\VC\Tools\MSVC\14.27.29110\include\xiosbase

; 204  :         explicit failure(const char* _Message, const error_code& _Errcode = make_error_code(io_errc::stream))

  00038	89 75 d4	 mov	 DWORD PTR _this$GSCopy$[ebp], esi
; File C:\Program Files (x86)\Microsoft Visual Studio\2019\Community\VC\Tools\MSVC\14.27.29110\include\xstring

; 4293 :         _Mypair._Myval2._Mysize = 0;

  0003b	c7 45 e8 00 00
	00 00		 mov	 DWORD PTR $T2[ebp+16], 0
; File C:\Program Files (x86)\Microsoft Visual Studio\2019\Community\VC\Tools\MSVC\14.27.29110\include\xiosbase

; 205  :             : system_error(_Errcode, _Message) {} // construct with message

  00042	8b 38		 mov	 edi, DWORD PTR [eax]
  00044	8b 58 04	 mov	 ebx, DWORD PTR [eax+4]
; File C:\Program Files (x86)\Microsoft Visual Studio\2019\Community\VC\Tools\MSVC\14.27.29110\include\xstring

; 321  :         return _CSTD strlen(reinterpret_cast<const char*>(_First));

  00047	8d 41 01	 lea	 eax, DWORD PTR [ecx+1]

; 4294 :         _Mypair._Myval2._Myres  = _BUF_SIZE - 1;

  0004a	c7 45 ec 0f 00
	00 00		 mov	 DWORD PTR $T2[ebp+20], 15 ; 0000000fH

; 4295 :         // the _Traits::assign is last so the codegen doesn't think the char write can alias this
; 4296 :         _Traits::assign(_Mypair._Myval2._Bx._Buf[0], _Elem());

  00051	c6 45 d8 00	 mov	 BYTE PTR $T2[ebp], 0

; 321  :         return _CSTD strlen(reinterpret_cast<const char*>(_First));

  00055	89 45 d4	 mov	 DWORD PTR tv230[ebp], eax
$LL30@failure:
  00058	8a 01		 mov	 al, BYTE PTR [ecx]
  0005a	41		 inc	 ecx
  0005b	84 c0		 test	 al, al
  0005d	75 f9		 jne	 SHORT $LL30@failure
  0005f	2b 4d d4	 sub	 ecx, DWORD PTR tv230[ebp]

; 2984 :         return assign(_Ptr, _Convert_size<size_type>(_Traits::length(_Ptr)));

  00062	51		 push	 ecx
  00063	52		 push	 edx
  00064	8d 4d d8	 lea	 ecx, DWORD PTR $T2[ebp]
  00067	e8 00 00 00 00	 call	 ?assign@?$basic_string@DU?$char_traits@D@std@@V?$allocator@D@2@@std@@QAEAAV12@QBDI@Z ; std::basic_string<char,std::char_traits<char>,std::allocator<char> >::assign
; File C:\Program Files (x86)\Microsoft Visual Studio\2019\Community\VC\Tools\MSVC\14.27.29110\include\system_error

; 410  :     system_error(error_code _Errcode, const char* _Message) : _Mybase(_Errcode, _Message) {}

  0006c	8d 45 d8	 lea	 eax, DWORD PTR $T2[ebp]
  0006f	c7 45 fc 00 00
	00 00		 mov	 DWORD PTR __$EHRec$[ebp+8], 0
  00076	50		 push	 eax
  00077	53		 push	 ebx
  00078	57		 push	 edi
  00079	8b ce		 mov	 ecx, esi
  0007b	e8 00 00 00 00	 call	 ??0_System_error@std@@IAE@Verror_code@1@ABV?$basic_string@DU?$char_traits@D@std@@V?$allocator@D@2@@1@@Z ; std::_System_error::_System_error
; File C:\Program Files (x86)\Microsoft Visual Studio\2019\Community\VC\Tools\MSVC\14.27.29110\include\xstring

; 2153 :         return _BUF_SIZE <= _Myres;

  00080	8b 4d ec	 mov	 ecx, DWORD PTR $T2[ebp+20]
  00083	83 f9 10	 cmp	 ecx, 16			; 00000010H

; 4301 :         if (_Mypair._Myval2._Large_string_engaged()) {

  00086	72 0d		 jb	 SHORT $LN31@failure

; 4302 :             const pointer _Ptr = _Mypair._Myval2._Bx._Ptr;
; 4303 :             auto& _Al          = _Getal();
; 4304 :             _Destroy_in_place(_Mypair._Myval2._Bx._Ptr);
; 4305 :             _Al.deallocate(_Ptr, _Mypair._Myval2._Myres + 1);

  00088	41		 inc	 ecx
; File C:\Program Files (x86)\Microsoft Visual Studio\2019\Community\VC\Tools\MSVC\14.27.29110\include\xmemory

; 803  :         _Deallocate<_New_alignof<_Ty>>(_Ptr, sizeof(_Ty) * _Count);

  00089	51		 push	 ecx
  0008a	ff 75 d8	 push	 DWORD PTR $T2[ebp]
  0008d	e8 00 00 00 00	 call	 ??$_Deallocate@$07$0A@@std@@YAXPAXI@Z ; std::_Deallocate<8,0>
  00092	83 c4 08	 add	 esp, 8
$LN31@failure:
; File C:\Program Files (x86)\Microsoft Visual Studio\2019\Community\VC\Tools\MSVC\14.27.29110\include\xiosbase

; 205  :             : system_error(_Errcode, _Message) {} // construct with message

  00095	8b c6		 mov	 eax, esi
  00097	c7 06 00 00 00
	00		 mov	 DWORD PTR [esi], OFFSET ??_7failure@ios_base@std@@6B@
  0009d	8b 4d f4	 mov	 ecx, DWORD PTR __$EHRec$[ebp]
  000a0	64 89 0d 00 00
	00 00		 mov	 DWORD PTR fs:0, ecx
  000a7	59		 pop	 ecx
  000a8	5f		 pop	 edi
  000a9	5e		 pop	 esi
  000aa	5b		 pop	 ebx
  000ab	8b 4d f0	 mov	 ecx, DWORD PTR __$ArrayPad$[ebp]
  000ae	33 cd		 xor	 ecx, ebp
  000b0	e8 00 00 00 00	 call	 @__security_check_cookie@4
  000b5	8b e5		 mov	 esp, ebp
  000b7	5d		 pop	 ebp
  000b8	c2 08 00	 ret	 8
_TEXT	ENDS
;	COMDAT text$x
text$x	SEGMENT
__unwindfunclet$??0failure@ios_base@std@@QAE@PBDABVerror_code@2@@Z$1:
  00000	8d 4d d8	 lea	 ecx, DWORD PTR $T2[ebp]
  00003	e9 00 00 00 00	 jmp	 ??1?$basic_string@DU?$char_traits@D@std@@V?$allocator@D@2@@std@@QAE@XZ ; std::basic_string<char,std::char_traits<char>,std::allocator<char> >::~basic_string<char,std::char_traits<char>,std::allocator<char> >
  00008	cc		 int	 3
  00009	cc		 int	 3
  0000a	cc		 int	 3
  0000b	cc		 int	 3
  0000c	cc		 int	 3
__ehhandler$??0failure@ios_base@std@@QAE@PBDABVerror_code@2@@Z:
  0000d	90		 npad	 1
  0000e	90		 npad	 1
  0000f	8b 54 24 08	 mov	 edx, DWORD PTR [esp+8]
  00013	8d 42 0c	 lea	 eax, DWORD PTR [edx+12]
  00016	8b 4a d0	 mov	 ecx, DWORD PTR [edx-48]
  00019	33 c8		 xor	 ecx, eax
  0001b	e8 00 00 00 00	 call	 @__security_check_cookie@4
  00020	8b 4a fc	 mov	 ecx, DWORD PTR [edx-4]
  00023	33 c8		 xor	 ecx, eax
  00025	e8 00 00 00 00	 call	 @__security_check_cookie@4
  0002a	b8 00 00 00 00	 mov	 eax, OFFSET __ehfuncinfo$??0failure@ios_base@std@@QAE@PBDABVerror_code@2@@Z
  0002f	e9 00 00 00 00	 jmp	 ___CxxFrameHandler3
text$x	ENDS
??0failure@ios_base@std@@QAE@PBDABVerror_code@2@@Z ENDP	; std::ios_base::failure::failure
; Function compile flags: /Ogtp
; File C:\Program Files (x86)\Microsoft Visual Studio\2019\Community\VC\Tools\MSVC\14.27.29110\include\xlocale
; File C:\Program Files (x86)\Microsoft Visual Studio\2019\Community\VC\Tools\MSVC\14.27.29110\include\xlocinfo
; File C:\Program Files (x86)\Microsoft Visual Studio\2019\Community\VC\Tools\MSVC\14.27.29110\include\xlocale
; File C:\Program Files (x86)\Microsoft Visual Studio\2019\Community\VC\Tools\MSVC\14.27.29110\include\xlocinfo
; File C:\Program Files (x86)\Microsoft Visual Studio\2019\Community\VC\Tools\MSVC\14.27.29110\include\xlocale
; File C:\Program Files (x86)\Microsoft Visual Studio\2019\Community\VC\Tools\MSVC\14.27.29110\include\xlocinfo
; File C:\Program Files (x86)\Microsoft Visual Studio\2019\Community\VC\Tools\MSVC\14.27.29110\include\xlocale
; File C:\Program Files (x86)\Microsoft Visual Studio\2019\Community\VC\Tools\MSVC\14.27.29110\include\xlocinfo
; File C:\Program Files (x86)\Microsoft Visual Studio\2019\Community\VC\Tools\MSVC\14.27.29110\include\xlocale
; File C:\Program Files (x86)\Microsoft Visual Studio\2019\Community\VC\Tools\MSVC\14.27.29110\include\xmemory
; File C:\Program Files (x86)\Microsoft Visual Studio\2019\Community\VC\Tools\MSVC\14.27.29110\include\xlocale
;	COMDAT ??$use_facet@V?$ctype@D@std@@@std@@YAABV?$ctype@D@0@ABVlocale@0@@Z
_TEXT	SEGMENT
$T2 = -96						; size = 52
$T3 = -44						; size = 16
__Lock$4 = -28						; size = 4
__Psave$1$ = -24					; size = 4
$T5 = -24						; size = 4
__Lock$6 = -20						; size = 4
$T7 = -16						; size = 4
__$EHRec$ = -12						; size = 12
__Psave_guard$8 = 8					; size = 4
__Loc$ = 8						; size = 4
??$use_facet@V?$ctype@D@std@@@std@@YAABV?$ctype@D@0@ABVlocale@0@@Z PROC ; std::use_facet<std::ctype<char> >, COMDAT

; 426  : const _Facet& __CRTDECL use_facet(const locale& _Loc) { // get facet reference from locale

  00000	55		 push	 ebp
  00001	8b ec		 mov	 ebp, esp
  00003	6a ff		 push	 -1
  00005	68 00 00 00 00	 push	 __ehhandler$??$use_facet@V?$ctype@D@std@@@std@@YAABV?$ctype@D@0@ABVlocale@0@@Z
  0000a	64 a1 00 00 00
	00		 mov	 eax, DWORD PTR fs:0
  00010	50		 push	 eax
  00011	83 ec 54	 sub	 esp, 84			; 00000054H
  00014	56		 push	 esi
  00015	57		 push	 edi
  00016	a1 00 00 00 00	 mov	 eax, DWORD PTR ___security_cookie
  0001b	33 c5		 xor	 eax, ebp
  0001d	50		 push	 eax
  0001e	8d 45 f4	 lea	 eax, DWORD PTR __$EHRec$[ebp]
  00021	64 a3 00 00 00
	00		 mov	 DWORD PTR fs:0, eax

; 427  :     _BEGIN_LOCK(_LOCK_LOCALE) // the thread lock, make get atomic

  00027	6a 00		 push	 0
  00029	8d 4d e4	 lea	 ecx, DWORD PTR __Lock$4[ebp]
  0002c	c7 45 f0 00 00
	00 00		 mov	 DWORD PTR $T7[ebp], 0
  00033	e8 00 00 00 00	 call	 ??0_Lockit@std@@QAE@H@Z	; std::_Lockit::_Lockit

; 105  :             if (_Id == 0) { // still zero, allocate stamp

  00038	8b 3d 00 00 00
	00		 mov	 edi, DWORD PTR ?id@?$ctype@D@std@@2V0locale@2@A ; std::ctype<char>::id

; 428  :     const locale::facet* _Psave = _Facetptr<_Facet>::_Psave; // static pointer to lazy facet

  0003e	a1 00 00 00 00	 mov	 eax, DWORD PTR ?_Psave@?$_Facetptr@V?$ctype@D@std@@@std@@2PBVfacet@locale@2@B ; std::_Facetptr<std::ctype<char> >::_Psave
  00043	c7 45 fc 00 00
	00 00		 mov	 DWORD PTR __$EHRec$[ebp+8], 0
  0004a	89 45 e8	 mov	 DWORD PTR __Psave$1$[ebp], eax

; 105  :             if (_Id == 0) { // still zero, allocate stamp

  0004d	85 ff		 test	 edi, edi
  0004f	75 2f		 jne	 SHORT $LN11@use_facet

; 106  :                 _BEGIN_LOCK(_LOCK_LOCALE)

  00051	57		 push	 edi
  00052	8d 4d ec	 lea	 ecx, DWORD PTR __Lock$6[ebp]
  00055	e8 00 00 00 00	 call	 ??0_Lockit@std@@QAE@H@Z	; std::_Lockit::_Lockit

; 107  :                 if (_Id == 0) {

  0005a	39 3d 00 00 00
	00		 cmp	 DWORD PTR ?id@?$ctype@D@std@@2V0locale@2@A, edi ; std::ctype<char>::id
  00060	75 10		 jne	 SHORT $LN12@use_facet

; 108  :                     _Id = static_cast<size_t>(++_Id_cnt);

  00062	a1 00 00 00 00	 mov	 eax, DWORD PTR ?_Id_cnt@id@locale@std@@0HA ; std::locale::id::_Id_cnt
  00067	40		 inc	 eax
  00068	a3 00 00 00 00	 mov	 DWORD PTR ?_Id_cnt@id@locale@std@@0HA, eax ; std::locale::id::_Id_cnt
  0006d	a3 00 00 00 00	 mov	 DWORD PTR ?id@?$ctype@D@std@@2V0locale@2@A, eax ; std::ctype<char>::id
$LN12@use_facet:

; 109  :                 }
; 110  :                 _END_LOCK()

  00072	8d 4d ec	 lea	 ecx, DWORD PTR __Lock$6[ebp]
  00075	e8 00 00 00 00	 call	 ??1_Lockit@std@@QAE@XZ	; std::_Lockit::~_Lockit
  0007a	8b 3d 00 00 00
	00		 mov	 edi, DWORD PTR ?id@?$ctype@D@std@@2V0locale@2@A ; std::ctype<char>::id
$LN11@use_facet:

; 374  :         const facet* _Facptr = _Id < _Ptr->_Facetcount ? _Ptr->_Facetvec[_Id] : nullptr; // null if id off end

  00080	8b 4d 08	 mov	 ecx, DWORD PTR __Loc$[ebp]
  00083	8b 49 04	 mov	 ecx, DWORD PTR [ecx+4]
  00086	3b 79 0c	 cmp	 edi, DWORD PTR [ecx+12]
  00089	73 10		 jae	 SHORT $LN19@use_facet
  0008b	8b 41 08	 mov	 eax, DWORD PTR [ecx+8]
  0008e	8b 34 b8	 mov	 esi, DWORD PTR [eax+edi*4]

; 375  :         if (_Facptr || !_Ptr->_Xparent) {

  00091	85 f6		 test	 esi, esi
  00093	0f 85 c1 00 00
	00		 jne	 $LN63@use_facet
  00099	eb 02		 jmp	 SHORT $LN66@use_facet
$LN19@use_facet:

; 371  :     }
; 372  : 
; 373  :     const facet* _Getfacet(size_t _Id) const { // look up a facet in locale object
; 374  :         const facet* _Facptr = _Id < _Ptr->_Facetcount ? _Ptr->_Facetvec[_Id] : nullptr; // null if id off end

  0009b	33 f6		 xor	 esi, esi
$LN66@use_facet:

; 375  :         if (_Facptr || !_Ptr->_Xparent) {

  0009d	80 79 14 00	 cmp	 BYTE PTR [ecx+20], 0
  000a1	74 10		 je	 SHORT $LN14@use_facet

; 376  :             return _Facptr; // found facet or not transparent
; 377  :         }
; 378  : 
; 379  :         // look in current locale
; 380  :         locale::_Locimp* _Ptr0 = _Getgloballocale();

  000a3	e8 00 00 00 00	 call	 ?_Getgloballocale@locale@std@@CAPAV_Locimp@12@XZ ; std::locale::_Getgloballocale

; 381  :         if (_Id < _Ptr0->_Facetcount) {

  000a8	3b 78 0c	 cmp	 edi, DWORD PTR [eax+12]
  000ab	73 0e		 jae	 SHORT $LN67@use_facet

; 382  :             return _Ptr0->_Facetvec[_Id]; // get from current locale

  000ad	8b 40 08	 mov	 eax, DWORD PTR [eax+8]
  000b0	8b 34 b8	 mov	 esi, DWORD PTR [eax+edi*4]
$LN14@use_facet:

; 429  : 
; 430  :     const size_t _Id         = _Facet::id;
; 431  :     const locale::facet* _Pf = _Loc._Getfacet(_Id);
; 432  : 
; 433  :     if (!_Pf) {

  000b3	85 f6		 test	 esi, esi
  000b5	0f 85 9f 00 00
	00		 jne	 $LN63@use_facet
$LN67@use_facet:

; 434  :         if (_Psave) {

  000bb	8b 45 e8	 mov	 eax, DWORD PTR __Psave$1$[ebp]
  000be	85 c0		 test	 eax, eax
  000c0	74 07		 je	 SHORT $LN3@use_facet

; 435  :             _Pf = _Psave; // lazy facet already allocated

  000c2	8b f0		 mov	 esi, eax

; 436  :         } else if (_Facet::_Getcat(&_Psave, &_Loc) == static_cast<size_t>(-1)) {

  000c4	e9 91 00 00 00	 jmp	 $LN63@use_facet
$LN3@use_facet:

; 2751 :             *_Ppf = new ctype<_Elem>(_Locinfo(_Ploc->c_str()));

  000c9	6a 18		 push	 24			; 00000018H
  000cb	e8 00 00 00 00	 call	 ??2@YAPAXI@Z		; operator new
  000d0	8b f0		 mov	 esi, eax
  000d2	83 c4 04	 add	 esp, 4
  000d5	89 75 e8	 mov	 DWORD PTR $T5[ebp], esi
  000d8	c6 45 fc 01	 mov	 BYTE PTR __$EHRec$[ebp+8], 1
  000dc	85 f6		 test	 esi, esi
  000de	74 4d		 je	 SHORT $LN24@use_facet

; 370  :         return _Ptr ? _Ptr->_Name.c_str() : "";

  000e0	8b 45 08	 mov	 eax, DWORD PTR __Loc$[ebp]
  000e3	8b 48 04	 mov	 ecx, DWORD PTR [eax+4]
  000e6	85 c9		 test	 ecx, ecx
  000e8	74 0c		 je	 SHORT $LN32@use_facet
; File C:\Program Files (x86)\Microsoft Visual Studio\2019\Community\VC\Tools\MSVC\14.27.29110\include\xlocinfo

; 109  :         return _Myptr ? _Myptr : &_Nul;

  000ea	8b 41 18	 mov	 eax, DWORD PTR [ecx+24]
  000ed	85 c0		 test	 eax, eax
  000ef	75 0a		 jne	 SHORT $LN33@use_facet
  000f1	8d 41 1c	 lea	 eax, DWORD PTR [ecx+28]
; File C:\Program Files (x86)\Microsoft Visual Studio\2019\Community\VC\Tools\MSVC\14.27.29110\include\xlocale

; 370  :         return _Ptr ? _Ptr->_Name.c_str() : "";

  000f4	eb 05		 jmp	 SHORT $LN33@use_facet
$LN32@use_facet:
  000f6	b8 00 00 00 00	 mov	 eax, OFFSET ??_C@_00CNPNBAHC@@
$LN33@use_facet:

; 2751 :             *_Ppf = new ctype<_Elem>(_Locinfo(_Ploc->c_str()));

  000fb	50		 push	 eax
  000fc	8d 4d a0	 lea	 ecx, DWORD PTR $T2[ebp]
  000ff	e8 00 00 00 00	 call	 ??0_Locinfo@std@@QAE@PBD@Z ; std::_Locinfo::_Locinfo
; File C:\Program Files (x86)\Microsoft Visual Studio\2019\Community\VC\Tools\MSVC\14.27.29110\include\xlocinfo

; 199  :         return ::_Getctype();

  00104	8d 45 d4	 lea	 eax, DWORD PTR $T3[ebp]
; File C:\Program Files (x86)\Microsoft Visual Studio\2019\Community\VC\Tools\MSVC\14.27.29110\include\xlocale

; 2751 :             *_Ppf = new ctype<_Elem>(_Locinfo(_Ploc->c_str()));

  00107	c7 45 f0 01 00
	00 00		 mov	 DWORD PTR $T7[ebp], 1
; File C:\Program Files (x86)\Microsoft Visual Studio\2019\Community\VC\Tools\MSVC\14.27.29110\include\xlocinfo

; 199  :         return ::_Getctype();

  0010e	50		 push	 eax
; File C:\Program Files (x86)\Microsoft Visual Studio\2019\Community\VC\Tools\MSVC\14.27.29110\include\xlocale

; 152  :             : _Myrefs(static_cast<_Atomic_counter_t>(_Initrefs)) // non-atomic initialization

  0010f	c7 46 04 00 00
	00 00		 mov	 DWORD PTR [esi+4], 0

; 2745 :     __CLR_OR_THIS_CALL ctype(const _Locinfo& _Lobj, size_t _Refs = 0) : ctype_base(_Refs) {

  00116	c7 06 00 00 00
	00		 mov	 DWORD PTR [esi], OFFSET ??_7?$ctype@D@std@@6B@
; File C:\Program Files (x86)\Microsoft Visual Studio\2019\Community\VC\Tools\MSVC\14.27.29110\include\xlocinfo

; 199  :         return ::_Getctype();

  0011c	e8 00 00 00 00	 call	 __Getctype
  00121	83 c4 04	 add	 esp, 4
; File C:\Program Files (x86)\Microsoft Visual Studio\2019\Community\VC\Tools\MSVC\14.27.29110\include\xlocale

; 2773 :         _Ctype = _Lobj._Getctype();

  00124	0f 10 00	 movups	 xmm0, XMMWORD PTR [eax]
  00127	0f 11 46 08	 movups	 XMMWORD PTR [esi+8], xmm0

; 2751 :             *_Ppf = new ctype<_Elem>(_Locinfo(_Ploc->c_str()));

  0012b	eb 02		 jmp	 SHORT $LN25@use_facet
$LN24@use_facet:
  0012d	33 f6		 xor	 esi, esi
$LN25@use_facet:
  0012f	f6 45 f0 01	 test	 BYTE PTR $T7[ebp], 1
  00133	74 08		 je	 SHORT $LN29@use_facet
  00135	8d 4d a0	 lea	 ecx, DWORD PTR $T2[ebp]
  00138	e8 00 00 00 00	 call	 ??1_Locinfo@std@@QAE@XZ	; std::_Locinfo::~_Locinfo
$LN29@use_facet:
; File C:\Program Files (x86)\Microsoft Visual Studio\2019\Community\VC\Tools\MSVC\14.27.29110\include\xmemory

; 1336 :         : _Ty1(), _Myval2(_STD forward<_Other2>(_Val2)...) {}

  0013d	89 75 08	 mov	 DWORD PTR __Psave_guard$8[ebp], esi
; File C:\Program Files (x86)\Microsoft Visual Studio\2019\Community\VC\Tools\MSVC\14.27.29110\include\xlocale

; 449  :             _Facet_Register(_Pfmod);

  00140	56		 push	 esi
  00141	c6 45 fc 02	 mov	 BYTE PTR __$EHRec$[ebp+8], 2
  00145	e8 00 00 00 00	 call	 ?_Facet_Register@std@@YAXPAV_Facet_base@1@@Z ; std::_Facet_Register

; 450  : #endif // defined(_M_CEE)
; 451  : 
; 452  :             _Pfmod->_Incref();

  0014a	8b 16		 mov	 edx, DWORD PTR [esi]
  0014c	83 c4 04	 add	 esp, 4
  0014f	8b ce		 mov	 ecx, esi
  00151	ff 52 04	 call	 DWORD PTR [edx+4]

; 453  :             _Facetptr<_Facet>::_Psave = _Psave;

  00154	89 35 00 00 00
	00		 mov	 DWORD PTR ?_Psave@?$_Facetptr@V?$ctype@D@std@@@std@@2PBVfacet@locale@2@B, esi ; std::_Facetptr<std::ctype<char> >::_Psave
$LN63@use_facet:

; 454  :             _Pf                       = _Psave;
; 455  : 
; 456  :             (void) _Psave_guard.release();
; 457  :         }
; 458  :     }
; 459  : 
; 460  :     return static_cast<const _Facet&>(*_Pf); // should be dynamic_cast

  0015a	8d 4d e4	 lea	 ecx, DWORD PTR __Lock$4[ebp]
  0015d	e8 00 00 00 00	 call	 ??1_Lockit@std@@QAE@XZ	; std::_Lockit::~_Lockit
  00162	8b c6		 mov	 eax, esi

; 461  :     _END_LOCK()
; 462  : } // end of use_facet body

  00164	8b 4d f4	 mov	 ecx, DWORD PTR __$EHRec$[ebp]
  00167	64 89 0d 00 00
	00 00		 mov	 DWORD PTR fs:0, ecx
  0016e	59		 pop	 ecx
  0016f	5f		 pop	 edi
  00170	5e		 pop	 esi
  00171	8b e5		 mov	 esp, ebp
  00173	5d		 pop	 ebp
  00174	c3		 ret	 0
_TEXT	ENDS
;	COMDAT text$x
text$x	SEGMENT
__unwindfunclet$??$use_facet@V?$ctype@D@std@@@std@@YAABV?$ctype@D@0@ABVlocale@0@@Z$0:
  00000	8d 4d e4	 lea	 ecx, DWORD PTR __Lock$4[ebp]
  00003	e9 00 00 00 00	 jmp	 ??1_Lockit@std@@QAE@XZ	; std::_Lockit::~_Lockit
__unwindfunclet$??$use_facet@V?$ctype@D@std@@@std@@YAABV?$ctype@D@0@ABVlocale@0@@Z$2:
  00008	6a 18		 push	 24			; 00000018H
  0000a	8b 45 e8	 mov	 eax, DWORD PTR $T5[ebp]
  0000d	50		 push	 eax
  0000e	e8 00 00 00 00	 call	 ??3@YAXPAXI@Z		; operator delete
  00013	83 c4 08	 add	 esp, 8
  00016	c3		 ret	 0
__unwindfunclet$??$use_facet@V?$ctype@D@std@@@std@@YAABV?$ctype@D@0@ABVlocale@0@@Z$1:
  00017	8d 4d 08	 lea	 ecx, DWORD PTR __Psave_guard$8[ebp]
  0001a	e9 00 00 00 00	 jmp	 ??1?$unique_ptr@V_Facet_base@std@@U?$default_delete@V_Facet_base@std@@@2@@std@@QAE@XZ ; std::unique_ptr<std::_Facet_base,std::default_delete<std::_Facet_base> >::~unique_ptr<std::_Facet_base,std::default_delete<std::_Facet_base> >
  0001f	cc		 int	 3
  00020	cc		 int	 3
  00021	cc		 int	 3
  00022	cc		 int	 3
  00023	cc		 int	 3
__ehhandler$??$use_facet@V?$ctype@D@std@@@std@@YAABV?$ctype@D@0@ABVlocale@0@@Z:
  00024	90		 npad	 1
  00025	90		 npad	 1
  00026	8b 54 24 08	 mov	 edx, DWORD PTR [esp+8]
  0002a	8d 42 0c	 lea	 eax, DWORD PTR [edx+12]
  0002d	8b 4a a0	 mov	 ecx, DWORD PTR [edx-96]
  00030	33 c8		 xor	 ecx, eax
  00032	e8 00 00 00 00	 call	 @__security_check_cookie@4
  00037	b8 00 00 00 00	 mov	 eax, OFFSET __ehfuncinfo$??$use_facet@V?$ctype@D@std@@@std@@YAABV?$ctype@D@0@ABVlocale@0@@Z
  0003c	e9 00 00 00 00	 jmp	 ___CxxFrameHandler3
text$x	ENDS
??$use_facet@V?$ctype@D@std@@@std@@YAABV?$ctype@D@0@ABVlocale@0@@Z ENDP ; std::use_facet<std::ctype<char> >
; Function compile flags: /Ogtp
; File C:\Program Files (x86)\Microsoft Visual Studio\2019\Community\VC\Tools\MSVC\14.27.29110\include\xlocale
;	COMDAT ??_G?$ctype@D@std@@MAEPAXI@Z
_TEXT	SEGMENT
___flags$ = 8						; size = 4
??_G?$ctype@D@std@@MAEPAXI@Z PROC			; std::ctype<char>::`scalar deleting destructor', COMDAT
; _this$ = ecx
  00000	55		 push	 ebp
  00001	8b ec		 mov	 ebp, esp

; 2768 :     virtual __CLR_OR_THIS_CALL ~ctype() noexcept {

  00003	56		 push	 esi
  00004	8b f1		 mov	 esi, ecx

; 2777 :         if (0 < _Ctype._Delfl) {

  00006	8b 46 10	 mov	 eax, DWORD PTR [esi+16]

; 2768 :     virtual __CLR_OR_THIS_CALL ~ctype() noexcept {

  00009	c7 06 00 00 00
	00		 mov	 DWORD PTR [esi], OFFSET ??_7?$ctype@D@std@@6B@

; 2777 :         if (0 < _Ctype._Delfl) {

  0000f	85 c0		 test	 eax, eax
  00011	7e 0a		 jle	 SHORT $LN13@scalar

; 2778 :             _CSTD free(const_cast<short*>(_Ctype._Table));

  00013	ff 76 0c	 push	 DWORD PTR [esi+12]
  00016	e8 00 00 00 00	 call	 _free
  0001b	eb 0a		 jmp	 SHORT $LN14@scalar
$LN13@scalar:

; 2779 :         } else if (_Ctype._Delfl < 0) {

  0001d	79 0b		 jns	 SHORT $LN10@scalar

; 2780 :             delete[] _Ctype._Table;

  0001f	ff 76 0c	 push	 DWORD PTR [esi+12]
  00022	e8 00 00 00 00	 call	 ??_V@YAXPAX@Z		; operator delete[]
$LN14@scalar:

; 2781 :         }
; 2782 : 
; 2783 :         _CSTD free(_Ctype._LocaleName);

  00027	83 c4 04	 add	 esp, 4
$LN10@scalar:
  0002a	ff 76 14	 push	 DWORD PTR [esi+20]
  0002d	e8 00 00 00 00	 call	 _free
  00032	83 c4 04	 add	 esp, 4

; 2770 :     }

  00035	c7 06 00 00 00
	00		 mov	 DWORD PTR [esi], OFFSET ??_7_Facet_base@std@@6B@
  0003b	f6 45 08 01	 test	 BYTE PTR ___flags$[ebp], 1
  0003f	74 0b		 je	 SHORT $LN12@scalar
  00041	6a 18		 push	 24			; 00000018H
  00043	56		 push	 esi
  00044	e8 00 00 00 00	 call	 ??3@YAXPAXI@Z		; operator delete
  00049	83 c4 08	 add	 esp, 8
$LN12@scalar:
  0004c	8b c6		 mov	 eax, esi
  0004e	5e		 pop	 esi
  0004f	5d		 pop	 ebp
  00050	c2 04 00	 ret	 4
??_G?$ctype@D@std@@MAEPAXI@Z ENDP			; std::ctype<char>::`scalar deleting destructor'
_TEXT	ENDS
; Function compile flags: /Ogtp
; File C:\Program Files (x86)\Microsoft Visual Studio\2019\Community\VC\Tools\MSVC\14.27.29110\include\xlocale
;	COMDAT ?do_narrow@?$ctype@D@std@@MBEPBDPBD0DPAD@Z
_TEXT	SEGMENT
__First$ = 8						; size = 4
__Last$ = 12						; size = 4
___formal$ = 16						; size = 1
__Dest$ = 20						; size = 4
?do_narrow@?$ctype@D@std@@MBEPBDPBD0DPAD@Z PROC		; std::ctype<char>::do_narrow, COMDAT
; _this$ = ecx

; 2830 :         char* _Dest) const { // narrow elements in [_First, _Last) to chars

  00000	55		 push	 ebp
  00001	8b ec		 mov	 ebp, esp

; 2831 :         _Adl_verify_range(_First, _Last);
; 2832 :         _CSTD memcpy(_Dest, _First, static_cast<size_t>(_Last - _First));

  00003	8b 55 08	 mov	 edx, DWORD PTR __First$[ebp]
  00006	8b 4d 0c	 mov	 ecx, DWORD PTR __Last$[ebp]
  00009	2b ca		 sub	 ecx, edx
  0000b	51		 push	 ecx
  0000c	52		 push	 edx
  0000d	ff 75 14	 push	 DWORD PTR __Dest$[ebp]
  00010	e8 00 00 00 00	 call	 _memcpy

; 2833 :         return _Last;

  00015	8b 45 0c	 mov	 eax, DWORD PTR __Last$[ebp]
  00018	83 c4 0c	 add	 esp, 12			; 0000000cH

; 2834 :     }

  0001b	5d		 pop	 ebp
  0001c	c2 10 00	 ret	 16			; 00000010H
?do_narrow@?$ctype@D@std@@MBEPBDPBD0DPAD@Z ENDP		; std::ctype<char>::do_narrow
_TEXT	ENDS
; Function compile flags: /Ogtp
; File C:\Program Files (x86)\Microsoft Visual Studio\2019\Community\VC\Tools\MSVC\14.27.29110\include\xlocale
;	COMDAT ?do_narrow@?$ctype@D@std@@MBEDDD@Z
_TEXT	SEGMENT
__Ch$ = 8						; size = 1
___formal$ = 12						; size = 1
?do_narrow@?$ctype@D@std@@MBEDDD@Z PROC			; std::ctype<char>::do_narrow, COMDAT
; _this$ = ecx

; 2825 :     virtual _Elem __CLR_OR_THIS_CALL do_narrow(_Elem _Ch, char) const { // narrow char

  00000	55		 push	 ebp
  00001	8b ec		 mov	 ebp, esp

; 2826 :         return _Ch;

  00003	8a 45 08	 mov	 al, BYTE PTR __Ch$[ebp]

; 2827 :     }

  00006	5d		 pop	 ebp
  00007	c2 08 00	 ret	 8
?do_narrow@?$ctype@D@std@@MBEDDD@Z ENDP			; std::ctype<char>::do_narrow
_TEXT	ENDS
; Function compile flags: /Ogtp
; File C:\Program Files (x86)\Microsoft Visual Studio\2019\Community\VC\Tools\MSVC\14.27.29110\include\xlocale
;	COMDAT ?do_widen@?$ctype@D@std@@MBEPBDPBD0PAD@Z
_TEXT	SEGMENT
__First$ = 8						; size = 4
__Last$ = 12						; size = 4
__Dest$ = 16						; size = 4
?do_widen@?$ctype@D@std@@MBEPBDPBD0PAD@Z PROC		; std::ctype<char>::do_widen, COMDAT
; _this$ = ecx

; 2819 :         const char* _First, const char* _Last, _Elem* _Dest) const { // widen chars in [_First, _Last)

  00000	55		 push	 ebp
  00001	8b ec		 mov	 ebp, esp

; 2820 :         _Adl_verify_range(_First, _Last);
; 2821 :         _CSTD memcpy(_Dest, _First, static_cast<size_t>(_Last - _First));

  00003	8b 55 08	 mov	 edx, DWORD PTR __First$[ebp]
  00006	8b 4d 0c	 mov	 ecx, DWORD PTR __Last$[ebp]
  00009	2b ca		 sub	 ecx, edx
  0000b	51		 push	 ecx
  0000c	52		 push	 edx
  0000d	ff 75 10	 push	 DWORD PTR __Dest$[ebp]
  00010	e8 00 00 00 00	 call	 _memcpy

; 2822 :         return _Last;

  00015	8b 45 0c	 mov	 eax, DWORD PTR __Last$[ebp]
  00018	83 c4 0c	 add	 esp, 12			; 0000000cH

; 2823 :     }

  0001b	5d		 pop	 ebp
  0001c	c2 0c 00	 ret	 12			; 0000000cH
?do_widen@?$ctype@D@std@@MBEPBDPBD0PAD@Z ENDP		; std::ctype<char>::do_widen
_TEXT	ENDS
; Function compile flags: /Ogtp
; File C:\Program Files (x86)\Microsoft Visual Studio\2019\Community\VC\Tools\MSVC\14.27.29110\include\xlocale
;	COMDAT ?do_widen@?$ctype@D@std@@MBEDD@Z
_TEXT	SEGMENT
__Byte$ = 8						; size = 1
?do_widen@?$ctype@D@std@@MBEDD@Z PROC			; std::ctype<char>::do_widen, COMDAT
; _this$ = ecx

; 2814 :     virtual _Elem __CLR_OR_THIS_CALL do_widen(char _Byte) const { // widen char

  00000	55		 push	 ebp
  00001	8b ec		 mov	 ebp, esp

; 2815 :         return _Byte;

  00003	8a 45 08	 mov	 al, BYTE PTR __Byte$[ebp]

; 2816 :     }

  00006	5d		 pop	 ebp
  00007	c2 04 00	 ret	 4
?do_widen@?$ctype@D@std@@MBEDD@Z ENDP			; std::ctype<char>::do_widen
_TEXT	ENDS
; Function compile flags: /Ogtp
; File C:\Program Files (x86)\Microsoft Visual Studio\2019\Community\VC\Tools\MSVC\14.27.29110\include\xlocale
;	COMDAT ?do_toupper@?$ctype@D@std@@MBEPBDPADPBD@Z
_TEXT	SEGMENT
__First$ = 8						; size = 4
__Last$ = 12						; size = 4
?do_toupper@?$ctype@D@std@@MBEPBDPADPBD@Z PROC		; std::ctype<char>::do_toupper, COMDAT
; _this$ = ecx

; 2805 :         const _Elem* _Last) const { // convert [_First, _Last) in place to upper case

  00000	55		 push	 ebp
  00001	8b ec		 mov	 ebp, esp
  00003	56		 push	 esi

; 2806 :         _Adl_verify_range(_First, _Last);
; 2807 :         for (; _First != _Last; ++_First) {

  00004	8b 75 08	 mov	 esi, DWORD PTR __First$[ebp]
  00007	57		 push	 edi
  00008	8b 7d 0c	 mov	 edi, DWORD PTR __Last$[ebp]
  0000b	3b f7		 cmp	 esi, edi
  0000d	74 19		 je	 SHORT $LN10@do_toupper
  0000f	53		 push	 ebx
  00010	8d 59 08	 lea	 ebx, DWORD PTR [ecx+8]
$LL4@do_toupper:

; 2808 :             *_First = static_cast<_Elem>(_Toupper(static_cast<unsigned char>(*_First), &_Ctype));

  00013	0f b6 06	 movzx	 eax, BYTE PTR [esi]
  00016	53		 push	 ebx
  00017	50		 push	 eax
  00018	e8 00 00 00 00	 call	 __Toupper
  0001d	88 06		 mov	 BYTE PTR [esi], al
  0001f	83 c4 08	 add	 esp, 8
  00022	46		 inc	 esi
  00023	3b f7		 cmp	 esi, edi
  00025	75 ec		 jne	 SHORT $LL4@do_toupper

; 2809 :         }
; 2810 : 
; 2811 :         return _First;

  00027	5b		 pop	 ebx
$LN10@do_toupper:
  00028	5f		 pop	 edi

; 2812 :     }

  00029	8b c6		 mov	 eax, esi
  0002b	5e		 pop	 esi
  0002c	5d		 pop	 ebp
  0002d	c2 08 00	 ret	 8
?do_toupper@?$ctype@D@std@@MBEPBDPADPBD@Z ENDP		; std::ctype<char>::do_toupper
_TEXT	ENDS
; Function compile flags: /Ogtp
; File C:\Program Files (x86)\Microsoft Visual Studio\2019\Community\VC\Tools\MSVC\14.27.29110\include\xlocale
;	COMDAT ?do_toupper@?$ctype@D@std@@MBEDD@Z
_TEXT	SEGMENT
__Ch$ = 8						; size = 1
?do_toupper@?$ctype@D@std@@MBEDD@Z PROC			; std::ctype<char>::do_toupper, COMDAT
; _this$ = ecx

; 2800 :     virtual _Elem __CLR_OR_THIS_CALL do_toupper(_Elem _Ch) const { // convert element to upper case

  00000	55		 push	 ebp
  00001	8b ec		 mov	 ebp, esp

; 2801 :         return static_cast<_Elem>(_Toupper(static_cast<unsigned char>(_Ch), &_Ctype));

  00003	8d 41 08	 lea	 eax, DWORD PTR [ecx+8]
  00006	50		 push	 eax
  00007	0f b6 45 08	 movzx	 eax, BYTE PTR __Ch$[ebp]
  0000b	50		 push	 eax
  0000c	e8 00 00 00 00	 call	 __Toupper
  00011	83 c4 08	 add	 esp, 8

; 2802 :     }

  00014	5d		 pop	 ebp
  00015	c2 04 00	 ret	 4
?do_toupper@?$ctype@D@std@@MBEDD@Z ENDP			; std::ctype<char>::do_toupper
_TEXT	ENDS
; Function compile flags: /Ogtp
; File C:\Program Files (x86)\Microsoft Visual Studio\2019\Community\VC\Tools\MSVC\14.27.29110\include\xlocale
;	COMDAT ?do_tolower@?$ctype@D@std@@MBEPBDPADPBD@Z
_TEXT	SEGMENT
__First$ = 8						; size = 4
__Last$ = 12						; size = 4
?do_tolower@?$ctype@D@std@@MBEPBDPADPBD@Z PROC		; std::ctype<char>::do_tolower, COMDAT
; _this$ = ecx

; 2791 :         const _Elem* _Last) const { // convert [_First, _Last) in place to lower case

  00000	55		 push	 ebp
  00001	8b ec		 mov	 ebp, esp
  00003	56		 push	 esi

; 2792 :         _Adl_verify_range(_First, _Last);
; 2793 :         for (; _First != _Last; ++_First) {

  00004	8b 75 08	 mov	 esi, DWORD PTR __First$[ebp]
  00007	57		 push	 edi
  00008	8b 7d 0c	 mov	 edi, DWORD PTR __Last$[ebp]
  0000b	3b f7		 cmp	 esi, edi
  0000d	74 19		 je	 SHORT $LN10@do_tolower
  0000f	53		 push	 ebx
  00010	8d 59 08	 lea	 ebx, DWORD PTR [ecx+8]
$LL4@do_tolower:

; 2794 :             *_First = static_cast<_Elem>(_Tolower(static_cast<unsigned char>(*_First), &_Ctype));

  00013	0f b6 06	 movzx	 eax, BYTE PTR [esi]
  00016	53		 push	 ebx
  00017	50		 push	 eax
  00018	e8 00 00 00 00	 call	 __Tolower
  0001d	88 06		 mov	 BYTE PTR [esi], al
  0001f	83 c4 08	 add	 esp, 8
  00022	46		 inc	 esi
  00023	3b f7		 cmp	 esi, edi
  00025	75 ec		 jne	 SHORT $LL4@do_tolower

; 2795 :         }
; 2796 : 
; 2797 :         return _First;

  00027	5b		 pop	 ebx
$LN10@do_tolower:
  00028	5f		 pop	 edi

; 2798 :     }

  00029	8b c6		 mov	 eax, esi
  0002b	5e		 pop	 esi
  0002c	5d		 pop	 ebp
  0002d	c2 08 00	 ret	 8
?do_tolower@?$ctype@D@std@@MBEPBDPADPBD@Z ENDP		; std::ctype<char>::do_tolower
_TEXT	ENDS
; Function compile flags: /Ogtp
; File C:\Program Files (x86)\Microsoft Visual Studio\2019\Community\VC\Tools\MSVC\14.27.29110\include\xlocale
;	COMDAT ?do_tolower@?$ctype@D@std@@MBEDD@Z
_TEXT	SEGMENT
__Ch$ = 8						; size = 1
?do_tolower@?$ctype@D@std@@MBEDD@Z PROC			; std::ctype<char>::do_tolower, COMDAT
; _this$ = ecx

; 2786 :     virtual _Elem __CLR_OR_THIS_CALL do_tolower(_Elem _Ch) const { // convert element to lower case

  00000	55		 push	 ebp
  00001	8b ec		 mov	 ebp, esp

; 2787 :         return static_cast<_Elem>(_Tolower(static_cast<unsigned char>(_Ch), &_Ctype));

  00003	8d 41 08	 lea	 eax, DWORD PTR [ecx+8]
  00006	50		 push	 eax
  00007	0f b6 45 08	 movzx	 eax, BYTE PTR __Ch$[ebp]
  0000b	50		 push	 eax
  0000c	e8 00 00 00 00	 call	 __Tolower
  00011	83 c4 08	 add	 esp, 8

; 2788 :     }

  00014	5d		 pop	 ebp
  00015	c2 04 00	 ret	 4
?do_tolower@?$ctype@D@std@@MBEDD@Z ENDP			; std::ctype<char>::do_tolower
_TEXT	ENDS
; Function compile flags: /Ogtp
; File C:\Program Files (x86)\Microsoft Visual Studio\2019\Community\VC\Tools\MSVC\14.27.29110\include\xlocale
;	COMDAT ??1?$ctype@D@std@@MAE@XZ
_TEXT	SEGMENT
??1?$ctype@D@std@@MAE@XZ PROC				; std::ctype<char>::~ctype<char>, COMDAT
; _this$ = ecx

; 2768 :     virtual __CLR_OR_THIS_CALL ~ctype() noexcept {

  00000	56		 push	 esi
  00001	8b f1		 mov	 esi, ecx

; 2777 :         if (0 < _Ctype._Delfl) {

  00003	8b 46 10	 mov	 eax, DWORD PTR [esi+16]

; 2768 :     virtual __CLR_OR_THIS_CALL ~ctype() noexcept {

  00006	c7 06 00 00 00
	00		 mov	 DWORD PTR [esi], OFFSET ??_7?$ctype@D@std@@6B@

; 2777 :         if (0 < _Ctype._Delfl) {

  0000c	85 c0		 test	 eax, eax
  0000e	7e 0a		 jle	 SHORT $LN8@ctype

; 2778 :             _CSTD free(const_cast<short*>(_Ctype._Table));

  00010	ff 76 0c	 push	 DWORD PTR [esi+12]
  00013	e8 00 00 00 00	 call	 _free
  00018	eb 0a		 jmp	 SHORT $LN9@ctype
$LN8@ctype:

; 2779 :         } else if (_Ctype._Delfl < 0) {

  0001a	79 0b		 jns	 SHORT $LN6@ctype

; 2780 :             delete[] _Ctype._Table;

  0001c	ff 76 0c	 push	 DWORD PTR [esi+12]
  0001f	e8 00 00 00 00	 call	 ??_V@YAXPAX@Z		; operator delete[]
$LN9@ctype:

; 2781 :         }
; 2782 : 
; 2783 :         _CSTD free(_Ctype._LocaleName);

  00024	83 c4 04	 add	 esp, 4
$LN6@ctype:
  00027	ff 76 14	 push	 DWORD PTR [esi+20]
  0002a	e8 00 00 00 00	 call	 _free
  0002f	83 c4 04	 add	 esp, 4

; 2769 :         _Tidy();
; 2770 :     }

  00032	c7 06 00 00 00
	00		 mov	 DWORD PTR [esi], OFFSET ??_7_Facet_base@std@@6B@
  00038	5e		 pop	 esi
  00039	c3		 ret	 0
??1?$ctype@D@std@@MAE@XZ ENDP				; std::ctype<char>::~ctype<char>
_TEXT	ENDS
; Function compile flags: /Ogtp
;	COMDAT ??_Gctype_base@std@@UAEPAXI@Z
_TEXT	SEGMENT
___flags$ = 8						; size = 4
??_Gctype_base@std@@UAEPAXI@Z PROC			; std::ctype_base::`scalar deleting destructor', COMDAT
; _this$ = ecx
  00000	55		 push	 ebp
  00001	8b ec		 mov	 ebp, esp
  00003	f6 45 08 01	 test	 BYTE PTR ___flags$[ebp], 1
  00007	56		 push	 esi
  00008	8b f1		 mov	 esi, ecx
  0000a	c7 06 00 00 00
	00		 mov	 DWORD PTR [esi], OFFSET ??_7_Facet_base@std@@6B@
  00010	74 0b		 je	 SHORT $LN4@scalar
  00012	6a 08		 push	 8
  00014	56		 push	 esi
  00015	e8 00 00 00 00	 call	 ??3@YAXPAXI@Z		; operator delete
  0001a	83 c4 08	 add	 esp, 8
$LN4@scalar:
  0001d	8b c6		 mov	 eax, esi
  0001f	5e		 pop	 esi
  00020	5d		 pop	 ebp
  00021	c2 04 00	 ret	 4
??_Gctype_base@std@@UAEPAXI@Z ENDP			; std::ctype_base::`scalar deleting destructor'
_TEXT	ENDS
; Function compile flags: /Ogtp
; File C:\Program Files (x86)\Microsoft Visual Studio\2019\Community\VC\Tools\MSVC\14.27.29110\include\xlocale
;	COMDAT ??1locale@std@@QAE@XZ
_TEXT	SEGMENT
??1locale@std@@QAE@XZ PROC				; std::locale::~locale, COMDAT
; _this$ = ecx

; 351  :         if (_Ptr) {

  00000	8b 49 04	 mov	 ecx, DWORD PTR [ecx+4]
  00003	85 c9		 test	 ecx, ecx
  00005	74 11		 je	 SHORT $LN4@locale

; 352  :             delete _Ptr->_Decref();

  00007	8b 01		 mov	 eax, DWORD PTR [ecx]
  00009	ff 50 08	 call	 DWORD PTR [eax+8]
  0000c	85 c0		 test	 eax, eax
  0000e	74 08		 je	 SHORT $LN4@locale
  00010	8b 10		 mov	 edx, DWORD PTR [eax]
  00012	8b c8		 mov	 ecx, eax
  00014	6a 01		 push	 1
  00016	ff 12		 call	 DWORD PTR [edx]
$LN4@locale:

; 353  :         }
; 354  :     }

  00018	c3		 ret	 0
??1locale@std@@QAE@XZ ENDP				; std::locale::~locale
_TEXT	ENDS
; Function compile flags: /Ogtp
;	COMDAT ??_Gfacet@locale@std@@MAEPAXI@Z
_TEXT	SEGMENT
___flags$ = 8						; size = 4
??_Gfacet@locale@std@@MAEPAXI@Z PROC			; std::locale::facet::`scalar deleting destructor', COMDAT
; _this$ = ecx
  00000	55		 push	 ebp
  00001	8b ec		 mov	 ebp, esp
  00003	f6 45 08 01	 test	 BYTE PTR ___flags$[ebp], 1
  00007	56		 push	 esi
  00008	8b f1		 mov	 esi, ecx
  0000a	c7 06 00 00 00
	00		 mov	 DWORD PTR [esi], OFFSET ??_7_Facet_base@std@@6B@
  00010	74 0b		 je	 SHORT $LN4@scalar
  00012	6a 08		 push	 8
  00014	56		 push	 esi
  00015	e8 00 00 00 00	 call	 ??3@YAXPAXI@Z		; operator delete
  0001a	83 c4 08	 add	 esp, 8
$LN4@scalar:
  0001d	8b c6		 mov	 eax, esi
  0001f	5e		 pop	 esi
  00020	5d		 pop	 ebp
  00021	c2 04 00	 ret	 4
??_Gfacet@locale@std@@MAEPAXI@Z ENDP			; std::locale::facet::`scalar deleting destructor'
_TEXT	ENDS
; Function compile flags: /Ogtp
; File C:\Program Files (x86)\Microsoft Visual Studio\2019\Community\VC\Tools\MSVC\14.27.29110\include\xlocale
;	COMDAT ??1facet@locale@std@@MAE@XZ
_TEXT	SEGMENT
??1facet@locale@std@@MAE@XZ PROC			; std::locale::facet::~facet, COMDAT
; _this$ = ecx

; 155  :         virtual __CLR_OR_THIS_CALL ~facet() noexcept override {}

  00000	c7 01 00 00 00
	00		 mov	 DWORD PTR [ecx], OFFSET ??_7_Facet_base@std@@6B@
  00006	c3		 ret	 0
??1facet@locale@std@@MAE@XZ ENDP			; std::locale::facet::~facet
_TEXT	ENDS
; Function compile flags: /Ogtp
; File C:\Program Files (x86)\Microsoft Visual Studio\2019\Community\VC\Tools\MSVC\14.27.29110\include\xlocale
;	COMDAT ?_Decref@facet@locale@std@@UAEPAV_Facet_base@3@XZ
_TEXT	SEGMENT
?_Decref@facet@locale@std@@UAEPAV_Facet_base@3@XZ PROC	; std::locale::facet::_Decref, COMDAT
; _this$ = ecx

; 140  :             if (_MT_DECR(_Myrefs) == 0) {

  00000	83 c8 ff	 or	 eax, -1
  00003	f0 0f c1 41 04	 lock	  xadd	 DWORD PTR [ecx+4], eax
  00008	b8 00 00 00 00	 mov	 eax, 0
  0000d	0f 44 c1	 cmove	 eax, ecx

; 141  :                 return this;
; 142  :             }
; 143  : 
; 144  :             return nullptr;
; 145  :         }

  00010	c3		 ret	 0
?_Decref@facet@locale@std@@UAEPAV_Facet_base@3@XZ ENDP	; std::locale::facet::_Decref
_TEXT	ENDS
; Function compile flags: /Ogtp
; File C:\Program Files (x86)\Microsoft Visual Studio\2019\Community\VC\Tools\MSVC\14.27.29110\include\xlocale
;	COMDAT ?_Incref@facet@locale@std@@UAEXXZ
_TEXT	SEGMENT
?_Incref@facet@locale@std@@UAEXXZ PROC			; std::locale::facet::_Incref, COMDAT
; _this$ = ecx

; 136  :             _MT_INCR(_Myrefs);

  00000	f0 ff 41 04	 lock	  inc	 DWORD PTR [ecx+4]

; 137  :         }

  00004	c3		 ret	 0
?_Incref@facet@locale@std@@UAEXXZ ENDP			; std::locale::facet::_Incref
_TEXT	ENDS
; Function compile flags: /Ogtp
; File C:\Program Files (x86)\Microsoft Visual Studio\2019\Community\VC\Tools\MSVC\14.27.29110\include\xlocinfo
;	COMDAT ??1?$_Yarn@_W@std@@QAE@XZ
_TEXT	SEGMENT
??1?$_Yarn@_W@std@@QAE@XZ PROC				; std::_Yarn<wchar_t>::~_Yarn<wchar_t>, COMDAT
; _this$ = ecx

; 100  :     __CLR_OR_THIS_CALL ~_Yarn() noexcept {

  00000	56		 push	 esi
  00001	8b f1		 mov	 esi, ecx

; 122  :         if (_Myptr) {

  00003	8b 06		 mov	 eax, DWORD PTR [esi]
  00005	85 c0		 test	 eax, eax
  00007	74 09		 je	 SHORT $LN6@Yarn

; 123  : #ifdef _DEBUG
; 124  :             _free_dbg(_Myptr, _CRT_BLOCK);
; 125  : #else // _DEBUG
; 126  :             _CSTD free(_Myptr);

  00009	50		 push	 eax
  0000a	e8 00 00 00 00	 call	 _free
  0000f	83 c4 04	 add	 esp, 4
$LN6@Yarn:

; 101  :         _Tidy();
; 102  :     }

  00012	c7 06 00 00 00
	00		 mov	 DWORD PTR [esi], 0
  00018	5e		 pop	 esi
  00019	c3		 ret	 0
??1?$_Yarn@_W@std@@QAE@XZ ENDP				; std::_Yarn<wchar_t>::~_Yarn<wchar_t>
_TEXT	ENDS
; Function compile flags: /Ogtp
; File C:\Program Files (x86)\Microsoft Visual Studio\2019\Community\VC\Tools\MSVC\14.27.29110\include\xlocinfo
;	COMDAT ??1?$_Yarn@D@std@@QAE@XZ
_TEXT	SEGMENT
??1?$_Yarn@D@std@@QAE@XZ PROC				; std::_Yarn<char>::~_Yarn<char>, COMDAT
; _this$ = ecx

; 100  :     __CLR_OR_THIS_CALL ~_Yarn() noexcept {

  00000	56		 push	 esi
  00001	8b f1		 mov	 esi, ecx

; 122  :         if (_Myptr) {

  00003	8b 06		 mov	 eax, DWORD PTR [esi]
  00005	85 c0		 test	 eax, eax
  00007	74 09		 je	 SHORT $LN6@Yarn

; 123  : #ifdef _DEBUG
; 124  :             _free_dbg(_Myptr, _CRT_BLOCK);
; 125  : #else // _DEBUG
; 126  :             _CSTD free(_Myptr);

  00009	50		 push	 eax
  0000a	e8 00 00 00 00	 call	 _free
  0000f	83 c4 04	 add	 esp, 4
$LN6@Yarn:

; 101  :         _Tidy();
; 102  :     }

  00012	c7 06 00 00 00
	00		 mov	 DWORD PTR [esi], 0
  00018	5e		 pop	 esi
  00019	c3		 ret	 0
??1?$_Yarn@D@std@@QAE@XZ ENDP				; std::_Yarn<char>::~_Yarn<char>
_TEXT	ENDS
; Function compile flags: /Ogtp
; File C:\Program Files (x86)\Microsoft Visual Studio\2019\Community\VC\Tools\MSVC\14.27.29110\include\xlocinfo
;	COMDAT ??1_Locinfo@std@@QAE@XZ
_TEXT	SEGMENT
__$EHRec$ = -12						; size = 12
??1_Locinfo@std@@QAE@XZ PROC				; std::_Locinfo::~_Locinfo, COMDAT
; _this$ = ecx

; 178  :     __CLR_OR_THIS_CALL ~_Locinfo() noexcept {

  00000	55		 push	 ebp
  00001	8b ec		 mov	 ebp, esp
  00003	6a ff		 push	 -1
  00005	68 00 00 00 00	 push	 __ehhandler$??1_Locinfo@std@@QAE@XZ
  0000a	64 a1 00 00 00
	00		 mov	 eax, DWORD PTR fs:0
  00010	50		 push	 eax
  00011	56		 push	 esi
  00012	a1 00 00 00 00	 mov	 eax, DWORD PTR ___security_cookie
  00017	33 c5		 xor	 eax, ebp
  00019	50		 push	 eax
  0001a	8d 45 f4	 lea	 eax, DWORD PTR __$EHRec$[ebp]
  0001d	64 a3 00 00 00
	00		 mov	 DWORD PTR fs:0, eax
  00023	8b f1		 mov	 esi, ecx

; 179  :         _Locinfo_dtor(this);

  00025	56		 push	 esi
  00026	e8 00 00 00 00	 call	 ?_Locinfo_dtor@_Locinfo@std@@SAXPAV12@@Z ; std::_Locinfo::_Locinfo_dtor

; 122  :         if (_Myptr) {

  0002b	8b 46 2c	 mov	 eax, DWORD PTR [esi+44]

; 179  :         _Locinfo_dtor(this);

  0002e	83 c4 04	 add	 esp, 4

; 122  :         if (_Myptr) {

  00031	85 c0		 test	 eax, eax
  00033	74 09		 je	 SHORT $LN6@Locinfo

; 123  : #ifdef _DEBUG
; 124  :             _free_dbg(_Myptr, _CRT_BLOCK);
; 125  : #else // _DEBUG
; 126  :             _CSTD free(_Myptr);

  00035	50		 push	 eax
  00036	e8 00 00 00 00	 call	 _free
  0003b	83 c4 04	 add	 esp, 4
$LN6@Locinfo:

; 127  : #endif // _DEBUG
; 128  :         }
; 129  : 
; 130  :         _Myptr = nullptr;

  0003e	c7 46 2c 00 00
	00 00		 mov	 DWORD PTR [esi+44], 0

; 122  :         if (_Myptr) {

  00045	8b 46 24	 mov	 eax, DWORD PTR [esi+36]
  00048	85 c0		 test	 eax, eax
  0004a	74 09		 je	 SHORT $LN11@Locinfo

; 123  : #ifdef _DEBUG
; 124  :             _free_dbg(_Myptr, _CRT_BLOCK);
; 125  : #else // _DEBUG
; 126  :             _CSTD free(_Myptr);

  0004c	50		 push	 eax
  0004d	e8 00 00 00 00	 call	 _free
  00052	83 c4 04	 add	 esp, 4
$LN11@Locinfo:

; 127  : #endif // _DEBUG
; 128  :         }
; 129  : 
; 130  :         _Myptr = nullptr;

  00055	c7 46 24 00 00
	00 00		 mov	 DWORD PTR [esi+36], 0

; 122  :         if (_Myptr) {

  0005c	8b 46 1c	 mov	 eax, DWORD PTR [esi+28]
  0005f	85 c0		 test	 eax, eax
  00061	74 09		 je	 SHORT $LN16@Locinfo

; 123  : #ifdef _DEBUG
; 124  :             _free_dbg(_Myptr, _CRT_BLOCK);
; 125  : #else // _DEBUG
; 126  :             _CSTD free(_Myptr);

  00063	50		 push	 eax
  00064	e8 00 00 00 00	 call	 _free
  00069	83 c4 04	 add	 esp, 4
$LN16@Locinfo:

; 127  : #endif // _DEBUG
; 128  :         }
; 129  : 
; 130  :         _Myptr = nullptr;

  0006c	c7 46 1c 00 00
	00 00		 mov	 DWORD PTR [esi+28], 0

; 122  :         if (_Myptr) {

  00073	8b 46 14	 mov	 eax, DWORD PTR [esi+20]
  00076	85 c0		 test	 eax, eax
  00078	74 09		 je	 SHORT $LN21@Locinfo

; 123  : #ifdef _DEBUG
; 124  :             _free_dbg(_Myptr, _CRT_BLOCK);
; 125  : #else // _DEBUG
; 126  :             _CSTD free(_Myptr);

  0007a	50		 push	 eax
  0007b	e8 00 00 00 00	 call	 _free
  00080	83 c4 04	 add	 esp, 4
$LN21@Locinfo:

; 127  : #endif // _DEBUG
; 128  :         }
; 129  : 
; 130  :         _Myptr = nullptr;

  00083	c7 46 14 00 00
	00 00		 mov	 DWORD PTR [esi+20], 0

; 122  :         if (_Myptr) {

  0008a	8b 46 0c	 mov	 eax, DWORD PTR [esi+12]
  0008d	85 c0		 test	 eax, eax
  0008f	74 09		 je	 SHORT $LN26@Locinfo

; 123  : #ifdef _DEBUG
; 124  :             _free_dbg(_Myptr, _CRT_BLOCK);
; 125  : #else // _DEBUG
; 126  :             _CSTD free(_Myptr);

  00091	50		 push	 eax
  00092	e8 00 00 00 00	 call	 _free
  00097	83 c4 04	 add	 esp, 4
$LN26@Locinfo:

; 127  : #endif // _DEBUG
; 128  :         }
; 129  : 
; 130  :         _Myptr = nullptr;

  0009a	c7 46 0c 00 00
	00 00		 mov	 DWORD PTR [esi+12], 0

; 122  :         if (_Myptr) {

  000a1	8b 46 04	 mov	 eax, DWORD PTR [esi+4]
  000a4	85 c0		 test	 eax, eax
  000a6	74 09		 je	 SHORT $LN31@Locinfo

; 123  : #ifdef _DEBUG
; 124  :             _free_dbg(_Myptr, _CRT_BLOCK);
; 125  : #else // _DEBUG
; 126  :             _CSTD free(_Myptr);

  000a8	50		 push	 eax
  000a9	e8 00 00 00 00	 call	 _free
  000ae	83 c4 04	 add	 esp, 4
$LN31@Locinfo:

; 180  :     }

  000b1	8b ce		 mov	 ecx, esi

; 130  :         _Myptr = nullptr;

  000b3	c7 46 04 00 00
	00 00		 mov	 DWORD PTR [esi+4], 0

; 180  :     }

  000ba	e8 00 00 00 00	 call	 ??1_Lockit@std@@QAE@XZ	; std::_Lockit::~_Lockit
  000bf	8b 4d f4	 mov	 ecx, DWORD PTR __$EHRec$[ebp]
  000c2	64 89 0d 00 00
	00 00		 mov	 DWORD PTR fs:0, ecx
  000c9	59		 pop	 ecx
  000ca	5e		 pop	 esi
  000cb	8b e5		 mov	 esp, ebp
  000cd	5d		 pop	 ebp
  000ce	c3		 ret	 0
  000cf	cc		 int	 3
  000d0	cc		 int	 3
  000d1	cc		 int	 3
  000d2	cc		 int	 3
  000d3	cc		 int	 3
_TEXT	ENDS
;	COMDAT text$x
text$x	SEGMENT
__ehhandler$??1_Locinfo@std@@QAE@XZ:
  00000	90		 npad	 1
  00001	90		 npad	 1
  00002	8b 54 24 08	 mov	 edx, DWORD PTR [esp+8]
  00006	8d 42 0c	 lea	 eax, DWORD PTR [edx+12]
  00009	8b 4a f8	 mov	 ecx, DWORD PTR [edx-8]
  0000c	33 c8		 xor	 ecx, eax
  0000e	e8 00 00 00 00	 call	 @__security_check_cookie@4
  00013	b8 00 00 00 00	 mov	 eax, OFFSET __ehfuncinfo$??1_Locinfo@std@@QAE@XZ
  00018	e9 00 00 00 00	 jmp	 ___CxxFrameHandler3
text$x	ENDS
??1_Locinfo@std@@QAE@XZ ENDP				; std::_Locinfo::~_Locinfo
; Function compile flags: /Ogtp
; File C:\Program Files (x86)\Microsoft Visual Studio\2019\Community\VC\Tools\MSVC\14.27.29110\include\xlocinfo
;	COMDAT ??0_Locinfo@std@@QAE@PBD@Z
_TEXT	SEGMENT
_this$ = -16						; size = 4
__$EHRec$ = -12						; size = 12
__Pch$ = 8						; size = 4
??0_Locinfo@std@@QAE@PBD@Z PROC				; std::_Locinfo::_Locinfo, COMDAT
; _this$ = ecx

; 155  :     {

  00000	55		 push	 ebp
  00001	8b ec		 mov	 ebp, esp
  00003	6a ff		 push	 -1
  00005	68 00 00 00 00	 push	 __ehhandler$??0_Locinfo@std@@QAE@PBD@Z
  0000a	64 a1 00 00 00
	00		 mov	 eax, DWORD PTR fs:0
  00010	50		 push	 eax
  00011	51		 push	 ecx
  00012	56		 push	 esi
  00013	a1 00 00 00 00	 mov	 eax, DWORD PTR ___security_cookie
  00018	33 c5		 xor	 eax, ebp
  0001a	50		 push	 eax
  0001b	8d 45 f4	 lea	 eax, DWORD PTR __$EHRec$[ebp]
  0001e	64 a3 00 00 00
	00		 mov	 DWORD PTR fs:0, eax
  00024	8b f1		 mov	 esi, ecx
  00026	89 75 f0	 mov	 DWORD PTR _this$[ebp], esi

; 60   : 
; 61   :     __CLR_OR_THIS_CALL _Yarn(const _Yarn& _Right) noexcept : _Myptr(nullptr), _Nul(0) {
; 62   :         *this = _Right;
; 63   :     }
; 64   : 
; 65   :     __CLR_OR_THIS_CALL _Yarn(const _Elem* _Right) noexcept : _Myptr(nullptr), _Nul(0) {
; 66   :         *this = _Right;
; 67   :     }
; 68   : 
; 69   :     _Yarn& __CLR_OR_THIS_CALL operator=(const _Yarn& _Right) noexcept {
; 70   :         return *this = _Right._Myptr;
; 71   :     }
; 72   : 
; 73   :     _Yarn& __CLR_OR_THIS_CALL operator=(const _Elem* _Right) noexcept {
; 74   :         if (_Myptr != _Right) { // new value, discard old and copy new
; 75   :             _Tidy();
; 76   : 
; 77   :             if (_Right) { // new is not empty, copy it
; 78   :                 const _Elem* _Ptr = _Right;
; 79   :                 while (*_Ptr != _Elem{}) {
; 80   :                     ++_Ptr;
; 81   :                 }
; 82   : 
; 83   :                 const auto _Count = (++_Ptr - _Right) * sizeof(_Elem);
; 84   : 
; 85   : #ifdef _DEBUG
; 86   :                 _Myptr = static_cast<_Elem*>(_malloc_dbg(_Count, _CRT_BLOCK, __FILE__, __LINE__));
; 87   : #else // _DEBUG
; 88   :                 _Myptr = static_cast<_Elem*>(_CSTD malloc(_Count));
; 89   : #endif // _DEBUG
; 90   : 
; 91   :                 if (_Myptr) {
; 92   :                     _CSTD memcpy(_Myptr, _Right, _Count);
; 93   :                 }
; 94   :             }
; 95   :         }
; 96   : 
; 97   :         return *this;
; 98   :     }
; 99   : 
; 100  :     __CLR_OR_THIS_CALL ~_Yarn() noexcept {
; 101  :         _Tidy();
; 102  :     }
; 103  : 
; 104  :     _NODISCARD bool __CLR_OR_THIS_CALL empty() const noexcept {
; 105  :         return _Myptr == nullptr;
; 106  :     }
; 107  : 
; 108  :     _Ret_z_ const _Elem* __CLR_OR_THIS_CALL c_str() const noexcept {
; 109  :         return _Myptr ? _Myptr : &_Nul;
; 110  :     }
; 111  : 
; 112  :     _NODISCARD bool __CLR_OR_THIS_CALL _Empty() const noexcept {
; 113  :         return _Myptr == nullptr;
; 114  :     }
; 115  : 
; 116  :     _Ret_z_ const _Elem* __CLR_OR_THIS_CALL _C_str() const noexcept {
; 117  :         return _Myptr ? _Myptr : &_Nul;
; 118  :     }
; 119  : 
; 120  : private:
; 121  :     void __CLR_OR_THIS_CALL _Tidy() noexcept {
; 122  :         if (_Myptr) {
; 123  : #ifdef _DEBUG
; 124  :             _free_dbg(_Myptr, _CRT_BLOCK);
; 125  : #else // _DEBUG
; 126  :             _CSTD free(_Myptr);
; 127  : #endif // _DEBUG
; 128  :         }
; 129  : 
; 130  :         _Myptr = nullptr;
; 131  :     }
; 132  : 
; 133  :     _Elem* _Myptr; // pointer to allocated string
; 134  :     _Elem _Nul; // nul terminator for unallocated string
; 135  : };
; 136  : 
; 137  : // CLASS _Locinfo
; 138  : class _CRTIMP2_PURE_IMPORT _Locinfo { // summary of all stuff specific to a locale used by standard facets
; 139  : public:
; 140  :     using _Collvec  = ::_Collvec;
; 141  :     using _Ctypevec = ::_Ctypevec;
; 142  :     using _Cvtvec   = ::_Cvtvec;
; 143  :     using _Timevec  = _STD _Timevec;
; 144  : 
; 145  :     static void __CLRCALL_PURE_OR_CDECL _Locinfo_ctor(_Locinfo*, const char*);
; 146  :     static void __CLRCALL_PURE_OR_CDECL _Locinfo_ctor(_Locinfo*, int, const char*);
; 147  :     static void __CLRCALL_PURE_OR_CDECL _Locinfo_dtor(_Locinfo*);
; 148  :     static _Locinfo& __CLRCALL_PURE_OR_CDECL _Locinfo_Addcats(_Locinfo*, int, const char*);
; 149  : 
; 150  :     __CLR_OR_THIS_CALL _Locinfo(const char* _Pch = "C")
; 151  : #ifndef _M_CEE
; 152  :         : _Lock(_LOCK_LOCALE)

  00029	6a 00		 push	 0
  0002b	e8 00 00 00 00	 call	 ??0_Lockit@std@@QAE@H@Z	; std::_Lockit::_Lockit
  00030	c7 45 fc 00 00
	00 00		 mov	 DWORD PTR __$EHRec$[ebp+8], 0

; 59   :     __CLR_OR_THIS_CALL _Yarn() noexcept : _Myptr(nullptr), _Nul(0) {}

  00037	c7 46 04 00 00
	00 00		 mov	 DWORD PTR [esi+4], 0
  0003e	c6 46 08 00	 mov	 BYTE PTR [esi+8], 0
  00042	c7 46 0c 00 00
	00 00		 mov	 DWORD PTR [esi+12], 0
  00049	c6 46 10 00	 mov	 BYTE PTR [esi+16], 0
  0004d	33 c0		 xor	 eax, eax
  0004f	c7 46 14 00 00
	00 00		 mov	 DWORD PTR [esi+20], 0
  00056	66 89 46 18	 mov	 WORD PTR [esi+24], ax
  0005a	89 46 1c	 mov	 DWORD PTR [esi+28], eax
  0005d	66 89 46 20	 mov	 WORD PTR [esi+32], ax
  00061	89 46 24	 mov	 DWORD PTR [esi+36], eax
  00064	88 46 28	 mov	 BYTE PTR [esi+40], al
  00067	89 46 2c	 mov	 DWORD PTR [esi+44], eax
  0006a	88 46 30	 mov	 BYTE PTR [esi+48], al

; 156  :         if (_Pch) {

  0006d	8b 45 08	 mov	 eax, DWORD PTR __Pch$[ebp]
  00070	c6 45 fc 06	 mov	 BYTE PTR __$EHRec$[ebp+8], 6
  00074	85 c0		 test	 eax, eax
  00076	74 1e		 je	 SHORT $LN2@Locinfo

; 157  :             _Locinfo_ctor(this, _Pch);

  00078	50		 push	 eax
  00079	56		 push	 esi
  0007a	e8 00 00 00 00	 call	 ?_Locinfo_ctor@_Locinfo@std@@SAXPAV12@PBD@Z ; std::_Locinfo::_Locinfo_ctor
  0007f	83 c4 08	 add	 esp, 8

; 162  :     }

  00082	8b c6		 mov	 eax, esi
  00084	8b 4d f4	 mov	 ecx, DWORD PTR __$EHRec$[ebp]
  00087	64 89 0d 00 00
	00 00		 mov	 DWORD PTR fs:0, ecx
  0008e	59		 pop	 ecx
  0008f	5e		 pop	 esi
  00090	8b e5		 mov	 esp, ebp
  00092	5d		 pop	 ebp
  00093	c2 04 00	 ret	 4
$LN2@Locinfo:

; 158  :             return;
; 159  :         }
; 160  : 
; 161  :         _Xruntime_error("bad locale name");

  00096	68 00 00 00 00	 push	 OFFSET ??_C@_0BA@ELKIONDK@bad?5locale?5name@
  0009b	e8 00 00 00 00	 call	 ?_Xruntime_error@std@@YAXPBD@Z ; std::_Xruntime_error
$LN24@Locinfo:
  000a0	cc		 int	 3
_TEXT	ENDS
;	COMDAT text$x
text$x	SEGMENT
__unwindfunclet$??0_Locinfo@std@@QAE@PBD@Z$0:
  00000	8b 4d f0	 mov	 ecx, DWORD PTR _this$[ebp]
  00003	e9 00 00 00 00	 jmp	 ??1_Lockit@std@@QAE@XZ	; std::_Lockit::~_Lockit
__unwindfunclet$??0_Locinfo@std@@QAE@PBD@Z$1:
  00008	8b 4d f0	 mov	 ecx, DWORD PTR _this$[ebp]
  0000b	83 c1 04	 add	 ecx, 4
  0000e	e9 00 00 00 00	 jmp	 ??1?$_Yarn@D@std@@QAE@XZ ; std::_Yarn<char>::~_Yarn<char>
__unwindfunclet$??0_Locinfo@std@@QAE@PBD@Z$2:
  00013	8b 4d f0	 mov	 ecx, DWORD PTR _this$[ebp]
  00016	83 c1 0c	 add	 ecx, 12			; 0000000cH
  00019	e9 00 00 00 00	 jmp	 ??1?$_Yarn@D@std@@QAE@XZ ; std::_Yarn<char>::~_Yarn<char>
__unwindfunclet$??0_Locinfo@std@@QAE@PBD@Z$3:
  0001e	8b 4d f0	 mov	 ecx, DWORD PTR _this$[ebp]
  00021	83 c1 14	 add	 ecx, 20			; 00000014H
  00024	e9 00 00 00 00	 jmp	 ??1?$_Yarn@_W@std@@QAE@XZ ; std::_Yarn<wchar_t>::~_Yarn<wchar_t>
__unwindfunclet$??0_Locinfo@std@@QAE@PBD@Z$4:
  00029	8b 4d f0	 mov	 ecx, DWORD PTR _this$[ebp]
  0002c	83 c1 1c	 add	 ecx, 28			; 0000001cH
  0002f	e9 00 00 00 00	 jmp	 ??1?$_Yarn@_W@std@@QAE@XZ ; std::_Yarn<wchar_t>::~_Yarn<wchar_t>
__unwindfunclet$??0_Locinfo@std@@QAE@PBD@Z$5:
  00034	8b 4d f0	 mov	 ecx, DWORD PTR _this$[ebp]
  00037	83 c1 24	 add	 ecx, 36			; 00000024H
  0003a	e9 00 00 00 00	 jmp	 ??1?$_Yarn@D@std@@QAE@XZ ; std::_Yarn<char>::~_Yarn<char>
__unwindfunclet$??0_Locinfo@std@@QAE@PBD@Z$6:
  0003f	8b 4d f0	 mov	 ecx, DWORD PTR _this$[ebp]
  00042	83 c1 2c	 add	 ecx, 44			; 0000002cH
  00045	e9 00 00 00 00	 jmp	 ??1?$_Yarn@D@std@@QAE@XZ ; std::_Yarn<char>::~_Yarn<char>
  0004a	cc		 int	 3
  0004b	cc		 int	 3
  0004c	cc		 int	 3
  0004d	cc		 int	 3
  0004e	cc		 int	 3
__ehhandler$??0_Locinfo@std@@QAE@PBD@Z:
  0004f	90		 npad	 1
  00050	90		 npad	 1
  00051	8b 54 24 08	 mov	 edx, DWORD PTR [esp+8]
  00055	8d 42 0c	 lea	 eax, DWORD PTR [edx+12]
  00058	8b 4a f4	 mov	 ecx, DWORD PTR [edx-12]
  0005b	33 c8		 xor	 ecx, eax
  0005d	e8 00 00 00 00	 call	 @__security_check_cookie@4
  00062	b8 00 00 00 00	 mov	 eax, OFFSET __ehfuncinfo$??0_Locinfo@std@@QAE@PBD@Z
  00067	e9 00 00 00 00	 jmp	 ___CxxFrameHandler3
text$x	ENDS
??0_Locinfo@std@@QAE@PBD@Z ENDP				; std::_Locinfo::_Locinfo
; Function compile flags: /Ogtp
;	COMDAT ??_G_Facet_base@std@@UAEPAXI@Z
_TEXT	SEGMENT
___flags$ = 8						; size = 4
??_G_Facet_base@std@@UAEPAXI@Z PROC			; std::_Facet_base::`scalar deleting destructor', COMDAT
; _this$ = ecx
  00000	55		 push	 ebp
  00001	8b ec		 mov	 ebp, esp
  00003	f6 45 08 01	 test	 BYTE PTR ___flags$[ebp], 1
  00007	56		 push	 esi
  00008	8b f1		 mov	 esi, ecx
  0000a	c7 06 00 00 00
	00		 mov	 DWORD PTR [esi], OFFSET ??_7_Facet_base@std@@6B@
  00010	74 0b		 je	 SHORT $LN4@scalar
  00012	6a 04		 push	 4
  00014	56		 push	 esi
  00015	e8 00 00 00 00	 call	 ??3@YAXPAXI@Z		; operator delete
  0001a	83 c4 08	 add	 esp, 8
$LN4@scalar:
  0001d	8b c6		 mov	 eax, esi
  0001f	5e		 pop	 esi
  00020	5d		 pop	 ebp
  00021	c2 04 00	 ret	 4
??_G_Facet_base@std@@UAEPAXI@Z ENDP			; std::_Facet_base::`scalar deleting destructor'
_TEXT	ENDS
; Function compile flags: /Ogtp
; File C:\Program Files (x86)\Microsoft Visual Studio\2019\Community\VC\Tools\MSVC\14.27.29110\include\xfacet
;	COMDAT ??1_Facet_base@std@@UAE@XZ
_TEXT	SEGMENT
??1_Facet_base@std@@UAE@XZ PROC				; std::_Facet_base::~_Facet_base, COMDAT
; _this$ = ecx

; 28   :     virtual __CLR_OR_THIS_CALL ~_Facet_base() noexcept {} // ensure that derived classes can be destroyed properly

  00000	c7 01 00 00 00
	00		 mov	 DWORD PTR [ecx], OFFSET ??_7_Facet_base@std@@6B@
  00006	c3		 ret	 0
??1_Facet_base@std@@UAE@XZ ENDP				; std::_Facet_base::~_Facet_base
_TEXT	ENDS
; Function compile flags: /Ogtp
; File C:\Program Files (x86)\Microsoft Visual Studio\2019\Community\VC\Tools\MSVC\14.27.29110\include\vcruntime_exception.h
;	COMDAT ??_Gbad_cast@std@@UAEPAXI@Z
_TEXT	SEGMENT
___flags$ = 8						; size = 4
??_Gbad_cast@std@@UAEPAXI@Z PROC			; std::bad_cast::`scalar deleting destructor', COMDAT
; _this$ = ecx
  00000	55		 push	 ebp
  00001	8b ec		 mov	 ebp, esp

; 89   :     {

  00003	56		 push	 esi
  00004	8b f1		 mov	 esi, ecx

; 90   :         __std_exception_destroy(&_Data);

  00006	8d 46 04	 lea	 eax, DWORD PTR [esi+4]
  00009	c7 06 00 00 00
	00		 mov	 DWORD PTR [esi], OFFSET ??_7exception@std@@6B@
  0000f	50		 push	 eax
  00010	e8 00 00 00 00	 call	 ___std_exception_destroy
  00015	83 c4 04	 add	 esp, 4
  00018	f6 45 08 01	 test	 BYTE PTR ___flags$[ebp], 1
  0001c	74 0b		 je	 SHORT $LN9@scalar
  0001e	6a 0c		 push	 12			; 0000000cH
  00020	56		 push	 esi
  00021	e8 00 00 00 00	 call	 ??3@YAXPAXI@Z		; operator delete
  00026	83 c4 08	 add	 esp, 8
$LN9@scalar:
  00029	8b c6		 mov	 eax, esi
  0002b	5e		 pop	 esi
  0002c	5d		 pop	 ebp
  0002d	c2 04 00	 ret	 4
??_Gbad_cast@std@@UAEPAXI@Z ENDP			; std::bad_cast::`scalar deleting destructor'
_TEXT	ENDS
; Function compile flags: /Ogtp
; File C:\Program Files (x86)\Microsoft Visual Studio\2019\Community\VC\Tools\MSVC\14.27.29110\include\vcruntime_exception.h
;	COMDAT ??0bad_cast@std@@QAE@ABV01@@Z
_TEXT	SEGMENT
___that$ = 8						; size = 4
??0bad_cast@std@@QAE@ABV01@@Z PROC			; std::bad_cast::bad_cast, COMDAT
; _this$ = ecx
  00000	55		 push	 ebp
  00001	8b ec		 mov	 ebp, esp

; 72   :     {

  00003	56		 push	 esi
  00004	8b f1		 mov	 esi, ecx
  00006	0f 57 c0	 xorps	 xmm0, xmm0

; 71   :         : _Data()

  00009	8d 46 04	 lea	 eax, DWORD PTR [esi+4]

; 73   :         __std_exception_copy(&_Other._Data, &_Data);

  0000c	50		 push	 eax
  0000d	c7 06 00 00 00
	00		 mov	 DWORD PTR [esi], OFFSET ??_7exception@std@@6B@
  00013	66 0f d6 00	 movq	 QWORD PTR [eax], xmm0
  00017	8b 45 08	 mov	 eax, DWORD PTR ___that$[ebp]
  0001a	83 c0 04	 add	 eax, 4
  0001d	50		 push	 eax
  0001e	e8 00 00 00 00	 call	 ___std_exception_copy
  00023	83 c4 08	 add	 esp, 8
  00026	c7 06 00 00 00
	00		 mov	 DWORD PTR [esi], OFFSET ??_7bad_cast@std@@6B@
  0002c	8b c6		 mov	 eax, esi
  0002e	5e		 pop	 esi
  0002f	5d		 pop	 ebp
  00030	c2 04 00	 ret	 4
??0bad_cast@std@@QAE@ABV01@@Z ENDP			; std::bad_cast::bad_cast
_TEXT	ENDS
; Function compile flags: /Ogtp
; File C:\Program Files (x86)\Microsoft Visual Studio\2019\Community\VC\Tools\MSVC\14.27.29110\include\vcruntime_exception.h
;	COMDAT ??1bad_cast@std@@UAE@XZ
_TEXT	SEGMENT
??1bad_cast@std@@UAE@XZ PROC				; std::bad_cast::~bad_cast, COMDAT
; _this$ = ecx

; 90   :         __std_exception_destroy(&_Data);

  00000	8d 41 04	 lea	 eax, DWORD PTR [ecx+4]
  00003	c7 01 00 00 00
	00		 mov	 DWORD PTR [ecx], OFFSET ??_7exception@std@@6B@
  00009	50		 push	 eax
  0000a	e8 00 00 00 00	 call	 ___std_exception_destroy
  0000f	59		 pop	 ecx
  00010	c3		 ret	 0
??1bad_cast@std@@UAE@XZ ENDP				; std::bad_cast::~bad_cast
_TEXT	ENDS
; Function compile flags: /Ogtp
; File C:\Program Files (x86)\Microsoft Visual Studio\2019\Community\VC\Tools\MSVC\14.27.29110\include\system_error
; File C:\Program Files (x86)\Microsoft Visual Studio\2019\Community\VC\Tools\MSVC\14.27.29110\include\atomic
; File C:\Program Files (x86)\Microsoft Visual Studio\2019\Community\VC\Tools\MSVC\14.27.29110\include\system_error
; File C:\Program Files (x86)\Microsoft Visual Studio\2019\Community\VC\Tools\MSVC\14.27.29110\include\atomic
; File C:\Program Files (x86)\Microsoft Visual Studio\2019\Community\VC\Tools\MSVC\14.27.29110\include\system_error
;	COMDAT ??$_Immortalize_memcpy_image@V_Iostream_error_category2@std@@@std@@YAABV_Iostream_error_category2@0@XZ
_TEXT	SEGMENT
__Value$ = -4						; size = 4
??$_Immortalize_memcpy_image@V_Iostream_error_category2@std@@@std@@YAABV_Iostream_error_category2@0@XZ PROC ; std::_Immortalize_memcpy_image<std::_Iostream_error_category2>, COMDAT

; 562  : _NODISCARD const _Ty& _Immortalize_memcpy_image() noexcept {

  00000	55		 push	 ebp
  00001	8b ec		 mov	 ebp, esp
  00003	51		 push	 ecx
; File C:\Program Files (x86)\Microsoft Visual Studio\2019\Community\VC\Tools\MSVC\14.27.29110\include\atomic

; 604  :         auto _As_bytes = _ISO_VOLATILE_LOAD32(_Storage);

  00004	68 00 00 00 00	 push	 OFFSET ?_Storage@?1???$_Immortalize_memcpy_image@V_Iostream_error_category2@std@@@std@@YAABV_Iostream_error_category2@1@XZ@4PAU?$atomic@I@1@A ; `std::_Immortalize_memcpy_image<std::_Iostream_error_category2>'::`2'::_Storage
  00009	e8 00 00 00 00	 call	 ??$_Atomic_address_as@$$CBJ$$CBU?$_Atomic_padded@I@std@@@std@@YAPDJABU?$_Atomic_padded@I@0@@Z ; std::_Atomic_address_as<long const ,std::_Atomic_padded<unsigned int> const >
  0000e	83 c4 04	 add	 esp, 4
  00011	8b 00		 mov	 eax, DWORD PTR [eax]
; File C:\Program Files (x86)\Microsoft Visual Studio\2019\Community\VC\Tools\MSVC\14.27.29110\include\system_error

; 569  :     if (_Storage[0].load(memory_order_acquire) != 0) {

  00013	85 c0		 test	 eax, eax
  00015	75 2d		 jne	 SHORT $LN28@Immortaliz

; 570  :         return reinterpret_cast<_Ty&>(_Storage);
; 571  :     }
; 572  : 
; 573  :     const _Ty _Target;
; 574  :     const auto _Target_iter = reinterpret_cast<const uintptr_t*>(_STD addressof(_Target));
; 575  :     _CSTD memcpy(_Storage + 1, _Target_iter + 1, sizeof(_Ty) - sizeof(uintptr_t));

  00017	56		 push	 esi
  00018	c7 05 04 00 00
	00 05 00 00 00	 mov	 DWORD PTR ?_Storage@?1???$_Immortalize_memcpy_image@V_Iostream_error_category2@std@@@std@@YAABV_Iostream_error_category2@1@XZ@4PAU?$atomic@I@1@A+4, 5

; 576  :     _Storage[0].store(_Target_iter[0], memory_order_release);

  00022	c7 45 fc 00 00
	00 00		 mov	 DWORD PTR __Value$[ebp], OFFSET ??_7_Iostream_error_category2@std@@6B@
; File C:\Program Files (x86)\Microsoft Visual Studio\2019\Community\VC\Tools\MSVC\14.27.29110\include\atomic

; 582  :             _Compiler_or_memory_barrier();

  00029	8d 45 fc	 lea	 eax, DWORD PTR __Value$[ebp]
  0002c	50		 push	 eax
  0002d	e8 00 00 00 00	 call	 ??$_Atomic_reinterpret_as@HI@std@@YAHABI@Z ; std::_Atomic_reinterpret_as<int,unsigned int>

; 583  :             _ISO_VOLATILE_STORE32(_Storage, _As_bytes);

  00032	68 00 00 00 00	 push	 OFFSET ?_Storage@?1???$_Immortalize_memcpy_image@V_Iostream_error_category2@std@@@std@@YAABV_Iostream_error_category2@1@XZ@4PAU?$atomic@I@1@A ; `std::_Immortalize_memcpy_image<std::_Iostream_error_category2>'::`2'::_Storage
  00037	8b f0		 mov	 esi, eax
  00039	e8 00 00 00 00	 call	 ??$_Atomic_address_as@JU?$_Atomic_padded@I@std@@@std@@YAPCJAAU?$_Atomic_padded@I@0@@Z ; std::_Atomic_address_as<long,std::_Atomic_padded<unsigned int> >
  0003e	83 c4 08	 add	 esp, 8
  00041	89 30		 mov	 DWORD PTR [eax], esi
; File C:\Program Files (x86)\Microsoft Visual Studio\2019\Community\VC\Tools\MSVC\14.27.29110\include\system_error

; 577  :     return reinterpret_cast<_Ty&>(_Storage);

  00043	5e		 pop	 esi
$LN28@Immortaliz:

; 578  : }

  00044	b8 00 00 00 00	 mov	 eax, OFFSET ?_Storage@?1???$_Immortalize_memcpy_image@V_Iostream_error_category2@std@@@std@@YAABV_Iostream_error_category2@1@XZ@4PAU?$atomic@I@1@A ; `std::_Immortalize_memcpy_image<std::_Iostream_error_category2>'::`2'::_Storage
  00049	8b e5		 mov	 esp, ebp
  0004b	5d		 pop	 ebp
  0004c	c3		 ret	 0
??$_Immortalize_memcpy_image@V_Iostream_error_category2@std@@@std@@YAABV_Iostream_error_category2@0@XZ ENDP ; std::_Immortalize_memcpy_image<std::_Iostream_error_category2>
_TEXT	ENDS
; Function compile flags: /Ogtp
;	COMDAT ??_G_Iostream_error_category2@std@@UAEPAXI@Z
_TEXT	SEGMENT
___flags$ = 8						; size = 4
??_G_Iostream_error_category2@std@@UAEPAXI@Z PROC	; std::_Iostream_error_category2::`scalar deleting destructor', COMDAT
; _this$ = ecx
  00000	55		 push	 ebp
  00001	8b ec		 mov	 ebp, esp
  00003	f6 45 08 01	 test	 BYTE PTR ___flags$[ebp], 1
  00007	56		 push	 esi
  00008	8b f1		 mov	 esi, ecx
  0000a	74 0b		 je	 SHORT $LN4@scalar
  0000c	6a 08		 push	 8
  0000e	56		 push	 esi
  0000f	e8 00 00 00 00	 call	 ??3@YAXPAXI@Z		; operator delete
  00014	83 c4 08	 add	 esp, 8
$LN4@scalar:
  00017	8b c6		 mov	 eax, esi
  00019	5e		 pop	 esi
  0001a	5d		 pop	 ebp
  0001b	c2 04 00	 ret	 4
??_G_Iostream_error_category2@std@@UAEPAXI@Z ENDP	; std::_Iostream_error_category2::`scalar deleting destructor'
_TEXT	ENDS
; Function compile flags: /Ogtp
; File C:\Program Files (x86)\Microsoft Visual Studio\2019\Community\VC\Tools\MSVC\14.27.29110\include\system_error
; File C:\Program Files (x86)\Microsoft Visual Studio\2019\Community\VC\Tools\MSVC\14.27.29110\include\xstring
; File C:\Program Files (x86)\Microsoft Visual Studio\2019\Community\VC\Tools\MSVC\14.27.29110\include\system_error
; File C:\Program Files (x86)\Microsoft Visual Studio\2019\Community\VC\Tools\MSVC\14.27.29110\include\xstring
; File C:\Program Files (x86)\Microsoft Visual Studio\2019\Community\VC\Tools\MSVC\14.27.29110\include\system_error
; File C:\Program Files (x86)\Microsoft Visual Studio\2019\Community\VC\Tools\MSVC\14.27.29110\include\xstring
; File C:\Program Files (x86)\Microsoft Visual Studio\2019\Community\VC\Tools\MSVC\14.27.29110\include\system_error
; File C:\Program Files (x86)\Microsoft Visual Studio\2019\Community\VC\Tools\MSVC\14.27.29110\include\xstring
; File C:\Program Files (x86)\Microsoft Visual Studio\2019\Community\VC\Tools\MSVC\14.27.29110\include\system_error
;	COMDAT ?message@_Iostream_error_category2@std@@UBE?AV?$basic_string@DU?$char_traits@D@std@@V?$allocator@D@2@@2@H@Z
_TEXT	SEGMENT
__New_ptr$1 = 8						; size = 4
___$ReturnUdt$ = 8					; size = 4
__Errcode$ = 12						; size = 4
?message@_Iostream_error_category2@std@@UBE?AV?$basic_string@DU?$char_traits@D@std@@V?$allocator@D@2@@2@H@Z PROC ; std::_Iostream_error_category2::message, COMDAT
; _this$ = ecx

; 475  :     _NODISCARD virtual string message(int _Errcode) const override {

  00000	55		 push	 ebp
  00001	8b ec		 mov	 ebp, esp

; 476  :         if (_Errcode == static_cast<int>(io_errc::stream)) {

  00003	8b 45 0c	 mov	 eax, DWORD PTR __Errcode$[ebp]
  00006	56		 push	 esi
  00007	83 f8 01	 cmp	 eax, 1
  0000a	75 60		 jne	 SHORT $LN2@message
; File C:\Program Files (x86)\Microsoft Visual Studio\2019\Community\VC\Tools\MSVC\14.27.29110\include\xstring

; 2124 :     _String_val() : _Bx(), _Mysize(0), _Myres(0) {}

  0000c	8b 75 08	 mov	 esi, DWORD PTR ___$ReturnUdt$[ebp]
  0000f	6a 20		 push	 32			; 00000020H

; 4293 :         _Mypair._Myval2._Mysize = 0;

  00011	c7 46 10 00 00
	00 00		 mov	 DWORD PTR [esi+16], 0

; 4294 :         _Mypair._Myval2._Myres  = _BUF_SIZE - 1;

  00018	c7 46 14 0f 00
	00 00		 mov	 DWORD PTR [esi+20], 15	; 0000000fH

; 4295 :         // the _Traits::assign is last so the codegen doesn't think the char write can alias this
; 4296 :         _Traits::assign(_Mypair._Myval2._Bx._Buf[0], _Elem());

  0001f	c6 06 00	 mov	 BYTE PTR [esi], 0
  00022	e8 00 00 00 00	 call	 ??$_Allocate@$07U_Default_allocate_traits@std@@$0A@@std@@YAPAXI@Z ; std::_Allocate<8,std::_Default_allocate_traits,0>
  00027	c7 46 10 15 00
	00 00		 mov	 DWORD PTR [esi+16], 21	; 00000015H
  0002e	c7 46 14 1f 00
	00 00		 mov	 DWORD PTR [esi+20], 31	; 0000001fH
  00035	0f 10 05 00 00
	00 00		 movups	 xmm0, XMMWORD PTR ?_Iostream_error@?4??message@_Iostream_error_category2@std@@UBE?AV?$basic_string@DU?$char_traits@D@std@@V?$allocator@D@2@@3@H@Z@4QBDB
  0003c	89 45 08	 mov	 DWORD PTR __New_ptr$1[ebp], eax
  0003f	0f 11 00	 movups	 XMMWORD PTR [eax], xmm0
  00042	8b 0d 10 00 00
	00		 mov	 ecx, DWORD PTR ?_Iostream_error@?4??message@_Iostream_error_category2@std@@UBE?AV?$basic_string@DU?$char_traits@D@std@@V?$allocator@D@2@@3@H@Z@4QBDB+16
  00048	89 48 10	 mov	 DWORD PTR [eax+16], ecx
  0004b	8a 0d 14 00 00
	00		 mov	 cl, BYTE PTR ?_Iostream_error@?4??message@_Iostream_error_category2@std@@UBE?AV?$basic_string@DU?$char_traits@D@std@@V?$allocator@D@2@@3@H@Z@4QBDB+20
  00051	88 48 14	 mov	 BYTE PTR [eax+20], cl
  00054	c6 40 15 00	 mov	 BYTE PTR [eax+21], 0

; 4237 :             _Construct_in_place(_Mypair._Myval2._Bx._Ptr, _New_ptr);

  00058	8d 45 08	 lea	 eax, DWORD PTR __New_ptr$1[ebp]
  0005b	50		 push	 eax
  0005c	56		 push	 esi
  0005d	e8 00 00 00 00	 call	 ??$_Construct_in_place@PADABQAD@std@@YAXAAPADABQAD@Z ; std::_Construct_in_place<char *,char * const &>
  00062	83 c4 0c	 add	 esp, 12			; 0000000cH
; File C:\Program Files (x86)\Microsoft Visual Studio\2019\Community\VC\Tools\MSVC\14.27.29110\include\system_error

; 483  :     }

  00065	8b c6		 mov	 eax, esi
  00067	5e		 pop	 esi
  00068	5d		 pop	 ebp
  00069	c2 08 00	 ret	 8
$LN2@message:
  0006c	57		 push	 edi

; 481  :             return _Syserror_map(_Errcode);

  0006d	50		 push	 eax
  0006e	e8 00 00 00 00	 call	 ?_Syserror_map@std@@YAPBDH@Z ; std::_Syserror_map
; File C:\Program Files (x86)\Microsoft Visual Studio\2019\Community\VC\Tools\MSVC\14.27.29110\include\xstring

; 4293 :         _Mypair._Myval2._Mysize = 0;

  00073	8b 75 08	 mov	 esi, DWORD PTR ___$ReturnUdt$[ebp]
; File C:\Program Files (x86)\Microsoft Visual Studio\2019\Community\VC\Tools\MSVC\14.27.29110\include\system_error

; 481  :             return _Syserror_map(_Errcode);

  00076	8b d0		 mov	 edx, eax
; File C:\Program Files (x86)\Microsoft Visual Studio\2019\Community\VC\Tools\MSVC\14.27.29110\include\xstring

; 321  :         return _CSTD strlen(reinterpret_cast<const char*>(_First));

  00078	8b ca		 mov	 ecx, edx
; File C:\Program Files (x86)\Microsoft Visual Studio\2019\Community\VC\Tools\MSVC\14.27.29110\include\system_error

; 481  :             return _Syserror_map(_Errcode);

  0007a	83 c4 04	 add	 esp, 4
; File C:\Program Files (x86)\Microsoft Visual Studio\2019\Community\VC\Tools\MSVC\14.27.29110\include\xstring

; 4293 :         _Mypair._Myval2._Mysize = 0;

  0007d	c7 46 10 00 00
	00 00		 mov	 DWORD PTR [esi+16], 0

; 4294 :         _Mypair._Myval2._Myres  = _BUF_SIZE - 1;

  00084	c7 46 14 0f 00
	00 00		 mov	 DWORD PTR [esi+20], 15	; 0000000fH

; 321  :         return _CSTD strlen(reinterpret_cast<const char*>(_First));

  0008b	8d 79 01	 lea	 edi, DWORD PTR [ecx+1]

; 4296 :         _Traits::assign(_Mypair._Myval2._Bx._Buf[0], _Elem());

  0008e	c6 06 00	 mov	 BYTE PTR [esi], 0
$LL61@message:

; 321  :         return _CSTD strlen(reinterpret_cast<const char*>(_First));

  00091	8a 01		 mov	 al, BYTE PTR [ecx]
  00093	41		 inc	 ecx
  00094	84 c0		 test	 al, al
  00096	75 f9		 jne	 SHORT $LL61@message
  00098	2b cf		 sub	 ecx, edi

; 2984 :         return assign(_Ptr, _Convert_size<size_type>(_Traits::length(_Ptr)));

  0009a	51		 push	 ecx
  0009b	52		 push	 edx
  0009c	8b ce		 mov	 ecx, esi
  0009e	e8 00 00 00 00	 call	 ?assign@?$basic_string@DU?$char_traits@D@std@@V?$allocator@D@2@@std@@QAEAAV12@QBDI@Z ; std::basic_string<char,std::char_traits<char>,std::allocator<char> >::assign
; File C:\Program Files (x86)\Microsoft Visual Studio\2019\Community\VC\Tools\MSVC\14.27.29110\include\system_error

; 481  :             return _Syserror_map(_Errcode);

  000a3	5f		 pop	 edi

; 483  :     }

  000a4	8b c6		 mov	 eax, esi
  000a6	5e		 pop	 esi
  000a7	5d		 pop	 ebp
  000a8	c2 08 00	 ret	 8
?message@_Iostream_error_category2@std@@UBE?AV?$basic_string@DU?$char_traits@D@std@@V?$allocator@D@2@@2@H@Z ENDP ; std::_Iostream_error_category2::message
_TEXT	ENDS
; Function compile flags: /Ogtp
; File C:\Program Files (x86)\Microsoft Visual Studio\2019\Community\VC\Tools\MSVC\14.27.29110\include\system_error
;	COMDAT ?name@_Iostream_error_category2@std@@UBEPBDXZ
_TEXT	SEGMENT
?name@_Iostream_error_category2@std@@UBEPBDXZ PROC	; std::_Iostream_error_category2::name, COMDAT
; _this$ = ecx

; 472  :         return "iostream";

  00000	b8 00 00 00 00	 mov	 eax, OFFSET ??_C@_08LLGCOLLL@iostream@

; 473  :     }

  00005	c3		 ret	 0
?name@_Iostream_error_category2@std@@UBEPBDXZ ENDP	; std::_Iostream_error_category2::name
_TEXT	ENDS
; Function compile flags: /Ogtp
; File C:\Program Files (x86)\Microsoft Visual Studio\2019\Community\VC\Tools\MSVC\14.27.29110\include\vcruntime_exception.h
;	COMDAT ??_Gsystem_error@std@@UAEPAXI@Z
_TEXT	SEGMENT
___flags$ = 8						; size = 4
??_Gsystem_error@std@@UAEPAXI@Z PROC			; std::system_error::`scalar deleting destructor', COMDAT
; _this$ = ecx
  00000	55		 push	 ebp
  00001	8b ec		 mov	 ebp, esp

; 89   :     {

  00003	56		 push	 esi
  00004	8b f1		 mov	 esi, ecx

; 90   :         __std_exception_destroy(&_Data);

  00006	8d 46 04	 lea	 eax, DWORD PTR [esi+4]
  00009	c7 06 00 00 00
	00		 mov	 DWORD PTR [esi], OFFSET ??_7exception@std@@6B@
  0000f	50		 push	 eax
  00010	e8 00 00 00 00	 call	 ___std_exception_destroy
  00015	83 c4 04	 add	 esp, 4
  00018	f6 45 08 01	 test	 BYTE PTR ___flags$[ebp], 1
  0001c	74 0b		 je	 SHORT $LN15@scalar
  0001e	6a 14		 push	 20			; 00000014H
  00020	56		 push	 esi
  00021	e8 00 00 00 00	 call	 ??3@YAXPAXI@Z		; operator delete
  00026	83 c4 08	 add	 esp, 8
$LN15@scalar:
  00029	8b c6		 mov	 eax, esi
  0002b	5e		 pop	 esi
  0002c	5d		 pop	 ebp
  0002d	c2 04 00	 ret	 4
??_Gsystem_error@std@@UAEPAXI@Z ENDP			; std::system_error::`scalar deleting destructor'
_TEXT	ENDS
; Function compile flags: /Ogtp
; File C:\Program Files (x86)\Microsoft Visual Studio\2019\Community\VC\Tools\MSVC\14.27.29110\include\vcruntime_exception.h
;	COMDAT ??0system_error@std@@QAE@ABV01@@Z
_TEXT	SEGMENT
___that$ = 8						; size = 4
??0system_error@std@@QAE@ABV01@@Z PROC			; std::system_error::system_error, COMDAT
; _this$ = ecx
  00000	55		 push	 ebp
  00001	8b ec		 mov	 ebp, esp

; 72   :     {

  00003	56		 push	 esi

; 73   :         __std_exception_copy(&_Other._Data, &_Data);

  00004	8b 75 08	 mov	 esi, DWORD PTR ___that$[ebp]
  00007	0f 57 c0	 xorps	 xmm0, xmm0

; 72   :     {

  0000a	57		 push	 edi
  0000b	8b f9		 mov	 edi, ecx

; 71   :         : _Data()

  0000d	8d 47 04	 lea	 eax, DWORD PTR [edi+4]

; 73   :         __std_exception_copy(&_Other._Data, &_Data);

  00010	50		 push	 eax
  00011	c7 07 00 00 00
	00		 mov	 DWORD PTR [edi], OFFSET ??_7exception@std@@6B@
  00017	66 0f d6 00	 movq	 QWORD PTR [eax], xmm0
  0001b	8d 46 04	 lea	 eax, DWORD PTR [esi+4]
  0001e	50		 push	 eax
  0001f	e8 00 00 00 00	 call	 ___std_exception_copy
  00024	c7 07 00 00 00
	00		 mov	 DWORD PTR [edi], OFFSET ??_7_System_error@std@@6B@
  0002a	83 c4 08	 add	 esp, 8
  0002d	8b 46 0c	 mov	 eax, DWORD PTR [esi+12]
  00030	89 47 0c	 mov	 DWORD PTR [edi+12], eax
  00033	8b 46 10	 mov	 eax, DWORD PTR [esi+16]
  00036	89 47 10	 mov	 DWORD PTR [edi+16], eax
  00039	8b c7		 mov	 eax, edi
  0003b	c7 07 00 00 00
	00		 mov	 DWORD PTR [edi], OFFSET ??_7system_error@std@@6B@
  00041	5f		 pop	 edi
  00042	5e		 pop	 esi
  00043	5d		 pop	 ebp
  00044	c2 04 00	 ret	 4
??0system_error@std@@QAE@ABV01@@Z ENDP			; std::system_error::system_error
_TEXT	ENDS
; Function compile flags: /Ogtp
; File C:\Program Files (x86)\Microsoft Visual Studio\2019\Community\VC\Tools\MSVC\14.27.29110\include\vcruntime_exception.h
;	COMDAT ??1system_error@std@@UAE@XZ
_TEXT	SEGMENT
??1system_error@std@@UAE@XZ PROC			; std::system_error::~system_error, COMDAT
; _this$ = ecx

; 90   :         __std_exception_destroy(&_Data);

  00000	8d 41 04	 lea	 eax, DWORD PTR [ecx+4]
  00003	c7 01 00 00 00
	00		 mov	 DWORD PTR [ecx], OFFSET ??_7exception@std@@6B@
  00009	50		 push	 eax
  0000a	e8 00 00 00 00	 call	 ___std_exception_destroy
  0000f	59		 pop	 ecx
  00010	c3		 ret	 0
??1system_error@std@@UAE@XZ ENDP			; std::system_error::~system_error
_TEXT	ENDS
; Function compile flags: /Ogtp
; File C:\Program Files (x86)\Microsoft Visual Studio\2019\Community\VC\Tools\MSVC\14.27.29110\include\vcruntime_exception.h
;	COMDAT ??_G_System_error@std@@UAEPAXI@Z
_TEXT	SEGMENT
___flags$ = 8						; size = 4
??_G_System_error@std@@UAEPAXI@Z PROC			; std::_System_error::`scalar deleting destructor', COMDAT
; _this$ = ecx
  00000	55		 push	 ebp
  00001	8b ec		 mov	 ebp, esp

; 89   :     {

  00003	56		 push	 esi
  00004	8b f1		 mov	 esi, ecx

; 90   :         __std_exception_destroy(&_Data);

  00006	8d 46 04	 lea	 eax, DWORD PTR [esi+4]
  00009	c7 06 00 00 00
	00		 mov	 DWORD PTR [esi], OFFSET ??_7exception@std@@6B@
  0000f	50		 push	 eax
  00010	e8 00 00 00 00	 call	 ___std_exception_destroy
  00015	83 c4 04	 add	 esp, 4
  00018	f6 45 08 01	 test	 BYTE PTR ___flags$[ebp], 1
  0001c	74 0b		 je	 SHORT $LN12@scalar
  0001e	6a 14		 push	 20			; 00000014H
  00020	56		 push	 esi
  00021	e8 00 00 00 00	 call	 ??3@YAXPAXI@Z		; operator delete
  00026	83 c4 08	 add	 esp, 8
$LN12@scalar:
  00029	8b c6		 mov	 eax, esi
  0002b	5e		 pop	 esi
  0002c	5d		 pop	 ebp
  0002d	c2 04 00	 ret	 4
??_G_System_error@std@@UAEPAXI@Z ENDP			; std::_System_error::`scalar deleting destructor'
_TEXT	ENDS
; Function compile flags: /Ogtp
; File C:\Program Files (x86)\Microsoft Visual Studio\2019\Community\VC\Tools\MSVC\14.27.29110\include\vcruntime_exception.h
;	COMDAT ??0_System_error@std@@QAE@ABV01@@Z
_TEXT	SEGMENT
___that$ = 8						; size = 4
??0_System_error@std@@QAE@ABV01@@Z PROC			; std::_System_error::_System_error, COMDAT
; _this$ = ecx
  00000	55		 push	 ebp
  00001	8b ec		 mov	 ebp, esp

; 72   :     {

  00003	56		 push	 esi

; 73   :         __std_exception_copy(&_Other._Data, &_Data);

  00004	8b 75 08	 mov	 esi, DWORD PTR ___that$[ebp]
  00007	0f 57 c0	 xorps	 xmm0, xmm0

; 72   :     {

  0000a	57		 push	 edi
  0000b	8b f9		 mov	 edi, ecx

; 71   :         : _Data()

  0000d	8d 47 04	 lea	 eax, DWORD PTR [edi+4]

; 73   :         __std_exception_copy(&_Other._Data, &_Data);

  00010	50		 push	 eax
  00011	c7 07 00 00 00
	00		 mov	 DWORD PTR [edi], OFFSET ??_7exception@std@@6B@
  00017	66 0f d6 00	 movq	 QWORD PTR [eax], xmm0
  0001b	8d 46 04	 lea	 eax, DWORD PTR [esi+4]
  0001e	50		 push	 eax
  0001f	e8 00 00 00 00	 call	 ___std_exception_copy
  00024	c7 07 00 00 00
	00		 mov	 DWORD PTR [edi], OFFSET ??_7_System_error@std@@6B@
  0002a	83 c4 08	 add	 esp, 8
  0002d	8b 46 0c	 mov	 eax, DWORD PTR [esi+12]
  00030	89 47 0c	 mov	 DWORD PTR [edi+12], eax
  00033	8b 46 10	 mov	 eax, DWORD PTR [esi+16]
  00036	89 47 10	 mov	 DWORD PTR [edi+16], eax
  00039	8b c7		 mov	 eax, edi
  0003b	5f		 pop	 edi
  0003c	5e		 pop	 esi
  0003d	5d		 pop	 ebp
  0003e	c2 04 00	 ret	 4
??0_System_error@std@@QAE@ABV01@@Z ENDP			; std::_System_error::_System_error
_TEXT	ENDS
; Function compile flags: /Ogtp
; File C:\Program Files (x86)\Microsoft Visual Studio\2019\Community\VC\Tools\MSVC\14.27.29110\include\system_error
; File C:\Program Files (x86)\Microsoft Visual Studio\2019\Community\VC\Tools\MSVC\14.27.29110\include\xstring
; File C:\Program Files (x86)\Microsoft Visual Studio\2019\Community\VC\Tools\MSVC\14.27.29110\include\xmemory
; File C:\Program Files (x86)\Microsoft Visual Studio\2019\Community\VC\Tools\MSVC\14.27.29110\include\xstring
; File C:\Program Files (x86)\Microsoft Visual Studio\2019\Community\VC\Tools\MSVC\14.27.29110\include\system_error
; File C:\Program Files (x86)\Microsoft Visual Studio\2019\Community\VC\Tools\MSVC\14.27.29110\include\xstring
; File C:\Program Files (x86)\Microsoft Visual Studio\2019\Community\VC\Tools\MSVC\14.27.29110\include\system_error
; File C:\Program Files (x86)\Microsoft Visual Studio\2019\Community\VC\Tools\MSVC\14.27.29110\include\xstring
; File C:\Program Files (x86)\Microsoft Visual Studio\2019\Community\VC\Tools\MSVC\14.27.29110\include\system_error
; File C:\Program Files (x86)\Microsoft Visual Studio\2019\Community\VC\Tools\MSVC\14.27.29110\include\xstring
; File C:\Program Files (x86)\Microsoft Visual Studio\2019\Community\VC\Tools\MSVC\14.27.29110\include\xmemory
; File C:\Program Files (x86)\Microsoft Visual Studio\2019\Community\VC\Tools\MSVC\14.27.29110\include\xstring
; File C:\Program Files (x86)\Microsoft Visual Studio\2019\Community\VC\Tools\MSVC\14.27.29110\include\vcruntime_exception.h
; File C:\Program Files (x86)\Microsoft Visual Studio\2019\Community\VC\Tools\MSVC\14.27.29110\include\xstring
; File C:\Program Files (x86)\Microsoft Visual Studio\2019\Community\VC\Tools\MSVC\14.27.29110\include\vcruntime_exception.h
; File C:\Program Files (x86)\Microsoft Visual Studio\2019\Community\VC\Tools\MSVC\14.27.29110\include\xstring
; File C:\Program Files (x86)\Microsoft Visual Studio\2019\Community\VC\Tools\MSVC\14.27.29110\include\vcruntime_exception.h
; File C:\Program Files (x86)\Microsoft Visual Studio\2019\Community\VC\Tools\MSVC\14.27.29110\include\xstring
; File C:\Program Files (x86)\Microsoft Visual Studio\2019\Community\VC\Tools\MSVC\14.27.29110\include\vcruntime_exception.h
; File C:\Program Files (x86)\Microsoft Visual Studio\2019\Community\VC\Tools\MSVC\14.27.29110\include\stdexcept
; File C:\Program Files (x86)\Microsoft Visual Studio\2019\Community\VC\Tools\MSVC\14.27.29110\include\xstring
; File C:\Program Files (x86)\Microsoft Visual Studio\2019\Community\VC\Tools\MSVC\14.27.29110\include\xmemory
; File C:\Program Files (x86)\Microsoft Visual Studio\2019\Community\VC\Tools\MSVC\14.27.29110\include\system_error
;	COMDAT ??0_System_error@std@@IAE@Verror_code@1@ABV?$basic_string@DU?$char_traits@D@std@@V?$allocator@D@2@@1@@Z
_TEXT	SEGMENT
$T2 = -108						; size = 24
__Right_size$1$ = -84					; size = 4
__Result$1$ = -80					; size = 4
__InitData$3 = -76					; size = 8
__Errcode$1$ = -72					; size = 4
_this$GSCopy$1$ = -72					; size = 4
_this$GSCopy$ = -68					; size = 4
__New_array$4 = -68					; size = 4
_this$ = -68						; size = 4
$T5 = -64						; size = 24
$T6 = -40						; size = 24
__$ArrayPad$ = -16					; size = 4
__$EHRec$ = -12						; size = 12
__Errcode$ = 8						; size = 8
__Message$ = 16						; size = 4
??0_System_error@std@@IAE@Verror_code@1@ABV?$basic_string@DU?$char_traits@D@std@@V?$allocator@D@2@@1@@Z PROC ; std::_System_error::_System_error, COMDAT
; _this$ = ecx

; 395  :     _System_error(error_code _Errcode, const string& _Message)

  00000	55		 push	 ebp
  00001	8b ec		 mov	 ebp, esp
  00003	6a ff		 push	 -1
  00005	68 00 00 00 00	 push	 __ehhandler$??0_System_error@std@@IAE@Verror_code@1@ABV?$basic_string@DU?$char_traits@D@std@@V?$allocator@D@2@@1@@Z
  0000a	64 a1 00 00 00
	00		 mov	 eax, DWORD PTR fs:0
  00010	50		 push	 eax
  00011	83 ec 60	 sub	 esp, 96			; 00000060H
  00014	a1 00 00 00 00	 mov	 eax, DWORD PTR ___security_cookie
  00019	33 c5		 xor	 eax, ebp
  0001b	89 45 f0	 mov	 DWORD PTR __$ArrayPad$[ebp], eax
  0001e	56		 push	 esi
  0001f	57		 push	 edi
  00020	50		 push	 eax
  00021	8d 45 f4	 lea	 eax, DWORD PTR __$EHRec$[ebp]
  00024	64 a3 00 00 00
	00		 mov	 DWORD PTR fs:0, eax
  0002a	8b f1		 mov	 esi, ecx
  0002c	89 75 b8	 mov	 DWORD PTR _this$GSCopy$1$[ebp], esi
  0002f	89 75 bc	 mov	 DWORD PTR _this$[ebp], esi
  00032	8b 45 10	 mov	 eax, DWORD PTR __Message$[ebp]
  00035	89 75 bc	 mov	 DWORD PTR _this$GSCopy$[ebp], esi
  00038	89 45 b0	 mov	 DWORD PTR __Result$1$[ebp], eax
; File C:\Program Files (x86)\Microsoft Visual Studio\2019\Community\VC\Tools\MSVC\14.27.29110\include\xstring

; 2124 :     _String_val() : _Bx(), _Mysize(0), _Myres(0) {}

  0003b	c7 45 a4 00 00
	00 00		 mov	 DWORD PTR $T2[ebp+16], 0

; 2145 :         if (_Large_string_engaged()) {

  00042	83 78 14 10	 cmp	 DWORD PTR [eax+20], 16	; 00000010H

; 2656 :         const size_type _Right_size   = _Right_data._Mysize;

  00046	8b 48 10	 mov	 ecx, DWORD PTR [eax+16]

; 2124 :     _String_val() : _Bx(), _Mysize(0), _Myres(0) {}

  00049	c7 45 a8 00 00
	00 00		 mov	 DWORD PTR $T2[ebp+20], 0

; 2656 :         const size_type _Right_size   = _Right_data._Mysize;

  00050	89 4d ac	 mov	 DWORD PTR __Right_size$1$[ebp], ecx

; 2145 :         if (_Large_string_engaged()) {

  00053	72 05		 jb	 SHORT $LN16@System_err

; 2146 :             _Result = _Unfancy(_Bx._Ptr);

  00055	8b 00		 mov	 eax, DWORD PTR [eax]
  00057	89 45 b0	 mov	 DWORD PTR __Result$1$[ebp], eax
$LN16@System_err:

; 2659 :         if (_Right_size < _BUF_SIZE) { // stay small, don't allocate

  0005a	83 f9 10	 cmp	 ecx, 16			; 00000010H
  0005d	73 10		 jae	 SHORT $LN13@System_err

; 328  :         return static_cast<_Elem*>(_CSTD memcpy(_First1, _First2, _Count));

  0005f	0f 10 00	 movups	 xmm0, XMMWORD PTR [eax]

; 2662 :             _My_data._Myres  = _BUF_SIZE - 1;

  00062	c7 45 a8 0f 00
	00 00		 mov	 DWORD PTR $T2[ebp+20], 15 ; 0000000fH

; 328  :         return static_cast<_Elem*>(_CSTD memcpy(_First1, _First2, _Count));

  00069	0f 11 45 94	 movups	 XMMWORD PTR $T2[ebp], xmm0

; 2663 :             return;

  0006d	eb 44		 jmp	 SHORT $LN107@System_err
$LN13@System_err:

; 2664 :         }
; 2665 : 
; 2666 :         auto& _Al                     = _Getal();
; 2667 :         const size_type _New_capacity = (_STD min)(_Right_size | _ALLOC_MASK, max_size());

  0006f	8b f9		 mov	 edi, ecx
  00071	b8 ff ff ff 7f	 mov	 eax, 2147483647		; 7fffffffH
  00076	83 cf 0f	 or	 edi, 15			; 0000000fH
  00079	3b f8		 cmp	 edi, eax
  0007b	0f 47 f8	 cmova	 edi, eax

; 2668 :         const pointer _New_array      = _Al.allocate(_New_capacity + 1); // throws

  0007e	8d 47 01	 lea	 eax, DWORD PTR [edi+1]
; File C:\Program Files (x86)\Microsoft Visual Studio\2019\Community\VC\Tools\MSVC\14.27.29110\include\xmemory

; 807  :         return static_cast<_Ty*>(_Allocate<_New_alignof<_Ty>>(_Get_size_of_n<sizeof(_Ty)>(_Count)));

  00081	50		 push	 eax
  00082	e8 00 00 00 00	 call	 ??$_Allocate@$07U_Default_allocate_traits@std@@$0A@@std@@YAPAXI@Z ; std::_Allocate<8,std::_Default_allocate_traits,0>
; File C:\Program Files (x86)\Microsoft Visual Studio\2019\Community\VC\Tools\MSVC\14.27.29110\include\xstring

; 2668 :         const pointer _New_array      = _Al.allocate(_New_capacity + 1); // throws

  00087	8b f0		 mov	 esi, eax

; 2669 :         _Construct_in_place(_My_data._Bx._Ptr, _New_array);

  00089	8d 45 bc	 lea	 eax, DWORD PTR __New_array$4[ebp]
  0008c	50		 push	 eax
  0008d	8d 45 94	 lea	 eax, DWORD PTR $T2[ebp]
  00090	89 75 bc	 mov	 DWORD PTR __New_array$4[ebp], esi
  00093	50		 push	 eax
  00094	e8 00 00 00 00	 call	 ??$_Construct_in_place@PADABQAD@std@@YAXAAPADABQAD@Z ; std::_Construct_in_place<char *,char * const &>

; 2670 :         _Traits::copy(_Unfancy(_New_array), _Right_ptr, _Right_size + 1);

  00099	8b 45 ac	 mov	 eax, DWORD PTR __Right_size$1$[ebp]
  0009c	40		 inc	 eax

; 328  :         return static_cast<_Elem*>(_CSTD memcpy(_First1, _First2, _Count));

  0009d	50		 push	 eax
  0009e	ff 75 b0	 push	 DWORD PTR __Result$1$[ebp]
  000a1	56		 push	 esi
  000a2	e8 00 00 00 00	 call	 _memcpy

; 2671 :         _My_data._Mysize = _Right_size;

  000a7	8b 4d ac	 mov	 ecx, DWORD PTR __Right_size$1$[ebp]

; 328  :         return static_cast<_Elem*>(_CSTD memcpy(_First1, _First2, _Count));

  000aa	83 c4 18	 add	 esp, 24			; 00000018H
  000ad	8b 75 b8	 mov	 esi, DWORD PTR _this$GSCopy$1$[ebp]

; 2672 :         _My_data._Myres  = _New_capacity;

  000b0	89 7d a8	 mov	 DWORD PTR $T2[ebp+20], edi
$LN107@System_err:
; File C:\Program Files (x86)\Microsoft Visual Studio\2019\Community\VC\Tools\MSVC\14.27.29110\include\system_error

; 396  :         : runtime_error(_Makestr(_Errcode, _Message)), _Mycode(_Errcode) {}

  000b3	8b 45 08	 mov	 eax, DWORD PTR __Errcode$[ebp]
  000b6	8b 7d 0c	 mov	 edi, DWORD PTR __Errcode$[ebp+4]
  000b9	89 4d a4	 mov	 DWORD PTR $T2[ebp+16], ecx
  000bc	89 45 b8	 mov	 DWORD PTR __Errcode$1$[ebp], eax

; 385  :     static string _Makestr(error_code _Errcode, string _Message) { // compose error message

  000bf	c7 45 fc 00 00
	00 00		 mov	 DWORD PTR __$EHRec$[ebp+8], 0

; 386  :         if (!_Message.empty()) {

  000c6	85 c9		 test	 ecx, ecx
  000c8	74 0f		 je	 SHORT $LN29@System_err
; File C:\Program Files (x86)\Microsoft Visual Studio\2019\Community\VC\Tools\MSVC\14.27.29110\include\xstring

; 2880 :         return append(_Ptr, _Convert_size<size_type>(_Traits::length(_Ptr)));

  000ca	6a 02		 push	 2
  000cc	68 00 00 00 00	 push	 OFFSET ??_C@_02LMMGGCAJ@?3?5@
  000d1	8d 4d 94	 lea	 ecx, DWORD PTR $T2[ebp]
  000d4	e8 00 00 00 00	 call	 ?append@?$basic_string@DU?$char_traits@D@std@@V?$allocator@D@2@@std@@QAEAAV12@QBDI@Z ; std::basic_string<char,std::char_traits<char>,std::allocator<char> >::append
$LN29@System_err:
; File C:\Program Files (x86)\Microsoft Visual Studio\2019\Community\VC\Tools\MSVC\14.27.29110\include\system_error

; 160  :         return category().message(value());

  000d9	ff 75 b8	 push	 DWORD PTR __Errcode$1$[ebp]
  000dc	8b 07		 mov	 eax, DWORD PTR [edi]
  000de	8d 4d d8	 lea	 ecx, DWORD PTR $T6[ebp]
  000e1	51		 push	 ecx
  000e2	8b cf		 mov	 ecx, edi
  000e4	ff 50 08	 call	 DWORD PTR [eax+8]
; File C:\Program Files (x86)\Microsoft Visual Studio\2019\Community\VC\Tools\MSVC\14.27.29110\include\xstring

; 2153 :         return _BUF_SIZE <= _Myres;

  000e7	83 7d ec 10	 cmp	 DWORD PTR $T6[ebp+20], 16 ; 00000010H

; 2144 :         const value_type* _Result = _Bx._Buf;

  000eb	8d 45 d8	 lea	 eax, DWORD PTR $T6[ebp]

; 2832 :         return append(_Right._Mypair._Myval2._Myptr(), _Right._Mypair._Myval2._Mysize);

  000ee	ff 75 e8	 push	 DWORD PTR $T6[ebp+16]

; 2145 :         if (_Large_string_engaged()) {

  000f1	0f 43 45 d8	 cmovae	 eax, DWORD PTR $T6[ebp]

; 2832 :         return append(_Right._Mypair._Myval2._Myptr(), _Right._Mypair._Myval2._Mysize);

  000f5	8d 4d 94	 lea	 ecx, DWORD PTR $T2[ebp]
  000f8	50		 push	 eax
; File C:\Program Files (x86)\Microsoft Visual Studio\2019\Community\VC\Tools\MSVC\14.27.29110\include\system_error

; 390  :         _Message.append(_Errcode.message());

  000f9	c6 45 fc 01	 mov	 BYTE PTR __$EHRec$[ebp+8], 1
; File C:\Program Files (x86)\Microsoft Visual Studio\2019\Community\VC\Tools\MSVC\14.27.29110\include\xstring

; 2832 :         return append(_Right._Mypair._Myval2._Myptr(), _Right._Mypair._Myval2._Mysize);

  000fd	e8 00 00 00 00	 call	 ?append@?$basic_string@DU?$char_traits@D@std@@V?$allocator@D@2@@std@@QAEAAV12@QBDI@Z ; std::basic_string<char,std::char_traits<char>,std::allocator<char> >::append

; 2153 :         return _BUF_SIZE <= _Myres;

  00102	8b 45 ec	 mov	 eax, DWORD PTR $T6[ebp+20]
  00105	83 f8 10	 cmp	 eax, 16			; 00000010H

; 4301 :         if (_Mypair._Myval2._Large_string_engaged()) {

  00108	72 0d		 jb	 SHORT $LN56@System_err

; 4302 :             const pointer _Ptr = _Mypair._Myval2._Bx._Ptr;
; 4303 :             auto& _Al          = _Getal();
; 4304 :             _Destroy_in_place(_Mypair._Myval2._Bx._Ptr);
; 4305 :             _Al.deallocate(_Ptr, _Mypair._Myval2._Myres + 1);

  0010a	40		 inc	 eax
; File C:\Program Files (x86)\Microsoft Visual Studio\2019\Community\VC\Tools\MSVC\14.27.29110\include\xmemory

; 803  :         _Deallocate<_New_alignof<_Ty>>(_Ptr, sizeof(_Ty) * _Count);

  0010b	50		 push	 eax
  0010c	ff 75 d8	 push	 DWORD PTR $T6[ebp]
  0010f	e8 00 00 00 00	 call	 ??$_Deallocate@$07$0A@@std@@YAXPAXI@Z ; std::_Deallocate<8,0>
  00114	83 c4 08	 add	 esp, 8
$LN56@System_err:
; File C:\Program Files (x86)\Microsoft Visual Studio\2019\Community\VC\Tools\MSVC\14.27.29110\include\xstring

; 2606 :         _CSTD memcpy(_My_data_mem, _Right_data_mem, _Memcpy_val_size);

  00117	0f 10 4d 94	 movups	 xmm1, XMMWORD PTR $T2[ebp]

; 2144 :         const value_type* _Result = _Bx._Buf;

  0011b	8d 4d c0	 lea	 ecx, DWORD PTR $T5[ebp]

; 2153 :         return _BUF_SIZE <= _Myres;

  0011e	83 7d a8 10	 cmp	 DWORD PTR $T2[ebp+20], 16 ; 00000010H

; 2606 :         _CSTD memcpy(_My_data_mem, _Right_data_mem, _Memcpy_val_size);

  00122	f3 0f 7e 45 a4	 movq	 xmm0, QWORD PTR $T2[ebp+16]

; 2145 :         if (_Large_string_engaged()) {

  00127	66 0f 7e c8	 movd	 eax, xmm1

; 2606 :         _CSTD memcpy(_My_data_mem, _Right_data_mem, _Memcpy_val_size);

  0012b	66 0f d6 45 d0	 movq	 QWORD PTR $T5[ebp+16], xmm0
  00130	0f 57 c0	 xorps	 xmm0, xmm0
; File C:\Program Files (x86)\Microsoft Visual Studio\2019\Community\VC\Tools\MSVC\14.27.29110\include\vcruntime_exception.h

; 59   :     {

  00133	c7 06 00 00 00
	00		 mov	 DWORD PTR [esi], OFFSET ??_7exception@std@@6B@
; File C:\Program Files (x86)\Microsoft Visual Studio\2019\Community\VC\Tools\MSVC\14.27.29110\include\xstring

; 2145 :         if (_Large_string_engaged()) {

  00139	0f 43 c8	 cmovae	 ecx, eax
; File C:\Program Files (x86)\Microsoft Visual Studio\2019\Community\VC\Tools\MSVC\14.27.29110\include\vcruntime_exception.h

; 58   :         : _Data()

  0013c	66 0f d6 46 04	 movq	 QWORD PTR [esi+4], xmm0
  00141	8d 46 04	 lea	 eax, DWORD PTR [esi+4]

; 60   :         __std_exception_data _InitData = { _Message, true };

  00144	89 4d b4	 mov	 DWORD PTR __InitData$3[ebp], ecx

; 61   :         __std_exception_copy(&_InitData, &_Data);

  00147	50		 push	 eax
  00148	8d 45 b4	 lea	 eax, DWORD PTR __InitData$3[ebp]
  0014b	c6 45 b8 01	 mov	 BYTE PTR __InitData$3[ebp+4], 1
  0014f	50		 push	 eax
; File C:\Program Files (x86)\Microsoft Visual Studio\2019\Community\VC\Tools\MSVC\14.27.29110\include\xstring

; 2606 :         _CSTD memcpy(_My_data_mem, _Right_data_mem, _Memcpy_val_size);

  00150	0f 11 4d c0	 movups	 XMMWORD PTR $T5[ebp], xmm1
; File C:\Program Files (x86)\Microsoft Visual Studio\2019\Community\VC\Tools\MSVC\14.27.29110\include\vcruntime_exception.h

; 61   :         __std_exception_copy(&_InitData, &_Data);

  00154	e8 00 00 00 00	 call	 ___std_exception_copy
; File C:\Program Files (x86)\Microsoft Visual Studio\2019\Community\VC\Tools\MSVC\14.27.29110\include\xstring

; 2153 :         return _BUF_SIZE <= _Myres;

  00159	8b 45 d4	 mov	 eax, DWORD PTR $T5[ebp+20]
; File C:\Program Files (x86)\Microsoft Visual Studio\2019\Community\VC\Tools\MSVC\14.27.29110\include\vcruntime_exception.h

; 61   :         __std_exception_copy(&_InitData, &_Data);

  0015c	83 c4 08	 add	 esp, 8
; File C:\Program Files (x86)\Microsoft Visual Studio\2019\Community\VC\Tools\MSVC\14.27.29110\include\stdexcept

; 111  :     explicit runtime_error(const string& _Message) : _Mybase(_Message.c_str()) {}

  0015f	c7 06 00 00 00
	00		 mov	 DWORD PTR [esi], OFFSET ??_7runtime_error@std@@6B@
; File C:\Program Files (x86)\Microsoft Visual Studio\2019\Community\VC\Tools\MSVC\14.27.29110\include\xstring

; 2153 :         return _BUF_SIZE <= _Myres;

  00165	83 f8 10	 cmp	 eax, 16			; 00000010H

; 4301 :         if (_Mypair._Myval2._Large_string_engaged()) {

  00168	72 0d		 jb	 SHORT $LN100@System_err

; 4302 :             const pointer _Ptr = _Mypair._Myval2._Bx._Ptr;
; 4303 :             auto& _Al          = _Getal();
; 4304 :             _Destroy_in_place(_Mypair._Myval2._Bx._Ptr);
; 4305 :             _Al.deallocate(_Ptr, _Mypair._Myval2._Myres + 1);

  0016a	40		 inc	 eax
; File C:\Program Files (x86)\Microsoft Visual Studio\2019\Community\VC\Tools\MSVC\14.27.29110\include\xmemory

; 803  :         _Deallocate<_New_alignof<_Ty>>(_Ptr, sizeof(_Ty) * _Count);

  0016b	50		 push	 eax
  0016c	ff 75 c0	 push	 DWORD PTR $T5[ebp]
  0016f	e8 00 00 00 00	 call	 ??$_Deallocate@$07$0A@@std@@YAXPAXI@Z ; std::_Deallocate<8,0>
  00174	83 c4 08	 add	 esp, 8
$LN100@System_err:
; File C:\Program Files (x86)\Microsoft Visual Studio\2019\Community\VC\Tools\MSVC\14.27.29110\include\system_error

; 396  :         : runtime_error(_Makestr(_Errcode, _Message)), _Mycode(_Errcode) {}

  00177	8b 4d 08	 mov	 ecx, DWORD PTR __Errcode$[ebp]
  0017a	8b c6		 mov	 eax, esi
  0017c	89 4e 0c	 mov	 DWORD PTR [esi+12], ecx
  0017f	8b 4d 0c	 mov	 ecx, DWORD PTR __Errcode$[ebp+4]
  00182	c7 06 00 00 00
	00		 mov	 DWORD PTR [esi], OFFSET ??_7_System_error@std@@6B@
  00188	89 4e 10	 mov	 DWORD PTR [esi+16], ecx
  0018b	8b 4d f4	 mov	 ecx, DWORD PTR __$EHRec$[ebp]
  0018e	64 89 0d 00 00
	00 00		 mov	 DWORD PTR fs:0, ecx
  00195	59		 pop	 ecx
  00196	5f		 pop	 edi
  00197	5e		 pop	 esi
  00198	8b 4d f0	 mov	 ecx, DWORD PTR __$ArrayPad$[ebp]
  0019b	33 cd		 xor	 ecx, ebp
  0019d	e8 00 00 00 00	 call	 @__security_check_cookie@4
  001a2	8b e5		 mov	 esp, ebp
  001a4	5d		 pop	 ebp
  001a5	c2 0c 00	 ret	 12			; 0000000cH
_TEXT	ENDS
;	COMDAT text$x
text$x	SEGMENT
__unwindfunclet$??0_System_error@std@@IAE@Verror_code@1@ABV?$basic_string@DU?$char_traits@D@std@@V?$allocator@D@2@@1@@Z$3:
  00000	8d 4d 94	 lea	 ecx, DWORD PTR $T2[ebp]
  00003	e9 00 00 00 00	 jmp	 ??1?$basic_string@DU?$char_traits@D@std@@V?$allocator@D@2@@std@@QAE@XZ ; std::basic_string<char,std::char_traits<char>,std::allocator<char> >::~basic_string<char,std::char_traits<char>,std::allocator<char> >
__unwindfunclet$??0_System_error@std@@IAE@Verror_code@1@ABV?$basic_string@DU?$char_traits@D@std@@V?$allocator@D@2@@1@@Z$4:
  00008	8d 4d d8	 lea	 ecx, DWORD PTR $T6[ebp]
  0000b	e9 00 00 00 00	 jmp	 ??1?$basic_string@DU?$char_traits@D@std@@V?$allocator@D@2@@std@@QAE@XZ ; std::basic_string<char,std::char_traits<char>,std::allocator<char> >::~basic_string<char,std::char_traits<char>,std::allocator<char> >
  00010	cc		 int	 3
  00011	cc		 int	 3
  00012	cc		 int	 3
  00013	cc		 int	 3
  00014	cc		 int	 3
__ehhandler$??0_System_error@std@@IAE@Verror_code@1@ABV?$basic_string@DU?$char_traits@D@std@@V?$allocator@D@2@@1@@Z:
  00015	90		 npad	 1
  00016	90		 npad	 1
  00017	8b 54 24 08	 mov	 edx, DWORD PTR [esp+8]
  0001b	8d 42 0c	 lea	 eax, DWORD PTR [edx+12]
  0001e	8b 4a 94	 mov	 ecx, DWORD PTR [edx-108]
  00021	33 c8		 xor	 ecx, eax
  00023	e8 00 00 00 00	 call	 @__security_check_cookie@4
  00028	8b 4a fc	 mov	 ecx, DWORD PTR [edx-4]
  0002b	33 c8		 xor	 ecx, eax
  0002d	e8 00 00 00 00	 call	 @__security_check_cookie@4
  00032	b8 00 00 00 00	 mov	 eax, OFFSET __ehfuncinfo$??0_System_error@std@@IAE@Verror_code@1@ABV?$basic_string@DU?$char_traits@D@std@@V?$allocator@D@2@@1@@Z
  00037	e9 00 00 00 00	 jmp	 ___CxxFrameHandler3
text$x	ENDS
??0_System_error@std@@IAE@Verror_code@1@ABV?$basic_string@DU?$char_traits@D@std@@V?$allocator@D@2@@1@@Z ENDP ; std::_System_error::_System_error
; Function compile flags: /Ogtp
; File C:\Program Files (x86)\Microsoft Visual Studio\2019\Community\VC\Tools\MSVC\14.27.29110\include\system_error
;	COMDAT ?equivalent@error_category@std@@UBE_NABVerror_code@2@H@Z
_TEXT	SEGMENT
__Code$ = 8						; size = 4
__Errval$ = 12						; size = 4
?equivalent@error_category@std@@UBE_NABVerror_code@2@H@Z PROC ; std::error_category::equivalent, COMDAT
; _this$ = ecx

; 333  : _NODISCARD inline bool error_category::equivalent(const error_code& _Code, int _Errval) const noexcept {

  00000	55		 push	 ebp
  00001	8b ec		 mov	 ebp, esp

; 90   :         return _Addr == _Right._Addr;

  00003	8b 41 04	 mov	 eax, DWORD PTR [ecx+4]

; 333  : _NODISCARD inline bool error_category::equivalent(const error_code& _Code, int _Errval) const noexcept {

  00006	56		 push	 esi

; 90   :         return _Addr == _Right._Addr;

  00007	8b 75 08	 mov	 esi, DWORD PTR __Code$[ebp]
  0000a	8b 56 04	 mov	 edx, DWORD PTR [esi+4]
  0000d	3b 42 04	 cmp	 eax, DWORD PTR [edx+4]

; 334  :     return *this == _Code.category() && _Code.value() == _Errval;

  00010	75 0e		 jne	 SHORT $LN3@equivalent
  00012	8b 06		 mov	 eax, DWORD PTR [esi]
  00014	3b 45 0c	 cmp	 eax, DWORD PTR __Errval$[ebp]
  00017	75 07		 jne	 SHORT $LN3@equivalent
  00019	b0 01		 mov	 al, 1
  0001b	5e		 pop	 esi

; 335  : }

  0001c	5d		 pop	 ebp
  0001d	c2 08 00	 ret	 8
$LN3@equivalent:

; 334  :     return *this == _Code.category() && _Code.value() == _Errval;

  00020	32 c0		 xor	 al, al
  00022	5e		 pop	 esi

; 335  : }

  00023	5d		 pop	 ebp
  00024	c2 08 00	 ret	 8
?equivalent@error_category@std@@UBE_NABVerror_code@2@H@Z ENDP ; std::error_category::equivalent
_TEXT	ENDS
; Function compile flags: /Ogtp
; File C:\Program Files (x86)\Microsoft Visual Studio\2019\Community\VC\Tools\MSVC\14.27.29110\include\system_error
;	COMDAT ?equivalent@error_category@std@@UBE_NHABVerror_condition@2@@Z
_TEXT	SEGMENT
$T1 = -8						; size = 8
__Errval$ = 8						; size = 4
__Cond$ = 12						; size = 4
?equivalent@error_category@std@@UBE_NHABVerror_condition@2@@Z PROC ; std::error_category::equivalent, COMDAT
; _this$ = ecx

; 329  : _NODISCARD inline bool error_category::equivalent(int _Errval, const error_condition& _Cond) const noexcept {

  00000	55		 push	 ebp
  00001	8b ec		 mov	 ebp, esp

; 330  :     return default_error_condition(_Errval) == _Cond;

  00003	8b 01		 mov	 eax, DWORD PTR [ecx]
  00005	8d 55 f8	 lea	 edx, DWORD PTR $T1[ebp]
  00008	83 ec 08	 sub	 esp, 8
  0000b	56		 push	 esi
  0000c	ff 75 08	 push	 DWORD PTR __Errval$[ebp]
  0000f	52		 push	 edx
  00010	ff 50 0c	 call	 DWORD PTR [eax+12]

; 90   :         return _Addr == _Right._Addr;

  00013	8b 75 0c	 mov	 esi, DWORD PTR __Cond$[ebp]
  00016	8b 48 04	 mov	 ecx, DWORD PTR [eax+4]
  00019	8b 56 04	 mov	 edx, DWORD PTR [esi+4]
  0001c	8b 49 04	 mov	 ecx, DWORD PTR [ecx+4]
  0001f	3b 4a 04	 cmp	 ecx, DWORD PTR [edx+4]

; 249  :         return _Left.category() == _Right.category() && _Left.value() == _Right.value();

  00022	75 0f		 jne	 SHORT $LN5@equivalent
  00024	8b 00		 mov	 eax, DWORD PTR [eax]
  00026	3b 06		 cmp	 eax, DWORD PTR [esi]
  00028	75 09		 jne	 SHORT $LN5@equivalent
  0002a	b0 01		 mov	 al, 1
  0002c	5e		 pop	 esi

; 331  : }

  0002d	8b e5		 mov	 esp, ebp
  0002f	5d		 pop	 ebp
  00030	c2 08 00	 ret	 8
$LN5@equivalent:

; 249  :         return _Left.category() == _Right.category() && _Left.value() == _Right.value();

  00033	32 c0		 xor	 al, al
  00035	5e		 pop	 esi

; 331  : }

  00036	8b e5		 mov	 esp, ebp
  00038	5d		 pop	 ebp
  00039	c2 08 00	 ret	 8
?equivalent@error_category@std@@UBE_NHABVerror_condition@2@@Z ENDP ; std::error_category::equivalent
_TEXT	ENDS
; Function compile flags: /Ogtp
; File C:\Program Files (x86)\Microsoft Visual Studio\2019\Community\VC\Tools\MSVC\14.27.29110\include\system_error
;	COMDAT ?default_error_condition@error_category@std@@UBE?AVerror_condition@2@H@Z
_TEXT	SEGMENT
___$ReturnUdt$ = 8					; size = 4
__Errval$ = 12						; size = 4
?default_error_condition@error_category@std@@UBE?AVerror_condition@2@H@Z PROC ; std::error_category::default_error_condition, COMDAT
; _this$ = ecx

; 324  : _NODISCARD inline error_condition error_category::default_error_condition(int _Errval) const noexcept {

  00000	55		 push	 ebp
  00001	8b ec		 mov	 ebp, esp

; 208  :     error_condition(int _Val, const error_category& _Cat) noexcept : _Myval(_Val), _Mycat(&_Cat) {}

  00003	8b 45 08	 mov	 eax, DWORD PTR ___$ReturnUdt$[ebp]
  00006	8b 55 0c	 mov	 edx, DWORD PTR __Errval$[ebp]
  00009	89 10		 mov	 DWORD PTR [eax], edx
  0000b	89 48 04	 mov	 DWORD PTR [eax+4], ecx

; 325  :     // make error_condition for error code
; 326  :     return error_condition(_Errval, *this);
; 327  : }

  0000e	5d		 pop	 ebp
  0000f	c2 08 00	 ret	 8
?default_error_condition@error_category@std@@UBE?AVerror_condition@2@H@Z ENDP ; std::error_category::default_error_condition
_TEXT	ENDS
; Function compile flags: /Ogtp
; File C:\Program Files (x86)\Microsoft Visual Studio\2019\Community\VC\Tools\MSVC\14.27.29110\include\system_error
;	COMDAT ??1error_category@std@@UAE@XZ
_TEXT	SEGMENT
??1error_category@std@@UAE@XZ PROC			; std::error_category::~error_category, COMDAT
; _this$ = ecx

; 115  : };

  00000	c2 00 00	 ret	 0
??1error_category@std@@UAE@XZ ENDP			; std::error_category::~error_category
_TEXT	ENDS
; Function compile flags: /Ogtp
; File C:\Program Files (x86)\Microsoft Visual Studio\2019\Community\VC\Tools\MSVC\14.27.29110\include\system_error
;	COMDAT ?make_error_code@std@@YA?AVerror_code@1@W4io_errc@1@@Z
_TEXT	SEGMENT
___$ReturnUdt$ = 8					; size = 4
__Errno$ = 12						; size = 4
?make_error_code@std@@YA?AVerror_code@1@W4io_errc@1@@Z PROC ; std::make_error_code, COMDAT

; 348  : _NODISCARD inline error_code make_error_code(io_errc _Errno) noexcept {

  00000	55		 push	 ebp
  00001	8b ec		 mov	 ebp, esp

; 586  :     return _Immortalize_memcpy_image<_Iostream_error_category2>();

  00003	e8 00 00 00 00	 call	 ??$_Immortalize_memcpy_image@V_Iostream_error_category2@std@@@std@@YAABV_Iostream_error_category2@0@XZ ; std::_Immortalize_memcpy_image<std::_Iostream_error_category2>

; 126  :     error_code(int _Val, const error_category& _Cat) noexcept : _Myval(_Val), _Mycat(&_Cat) {}

  00008	8b 55 08	 mov	 edx, DWORD PTR ___$ReturnUdt$[ebp]
  0000b	8b 4d 0c	 mov	 ecx, DWORD PTR __Errno$[ebp]
  0000e	89 42 04	 mov	 DWORD PTR [edx+4], eax

; 349  :     return error_code(static_cast<int>(_Errno), _STD iostream_category());

  00011	8b c2		 mov	 eax, edx

; 126  :     error_code(int _Val, const error_category& _Cat) noexcept : _Myval(_Val), _Mycat(&_Cat) {}

  00013	89 0a		 mov	 DWORD PTR [edx], ecx

; 350  : }

  00015	5d		 pop	 ebp
  00016	c3		 ret	 0
?make_error_code@std@@YA?AVerror_code@1@W4io_errc@1@@Z ENDP ; std::make_error_code
_TEXT	ENDS
; Function compile flags: /Ogtp
; File C:\Program Files (x86)\Microsoft Visual Studio\2019\Community\VC\Tools\MSVC\14.27.29110\include\vcruntime_exception.h
;	COMDAT ??_Gruntime_error@std@@UAEPAXI@Z
_TEXT	SEGMENT
___flags$ = 8						; size = 4
??_Gruntime_error@std@@UAEPAXI@Z PROC			; std::runtime_error::`scalar deleting destructor', COMDAT
; _this$ = ecx
  00000	55		 push	 ebp
  00001	8b ec		 mov	 ebp, esp

; 89   :     {

  00003	56		 push	 esi
  00004	8b f1		 mov	 esi, ecx

; 90   :         __std_exception_destroy(&_Data);

  00006	8d 46 04	 lea	 eax, DWORD PTR [esi+4]
  00009	c7 06 00 00 00
	00		 mov	 DWORD PTR [esi], OFFSET ??_7exception@std@@6B@
  0000f	50		 push	 eax
  00010	e8 00 00 00 00	 call	 ___std_exception_destroy
  00015	83 c4 04	 add	 esp, 4
  00018	f6 45 08 01	 test	 BYTE PTR ___flags$[ebp], 1
  0001c	74 0b		 je	 SHORT $LN9@scalar
  0001e	6a 0c		 push	 12			; 0000000cH
  00020	56		 push	 esi
  00021	e8 00 00 00 00	 call	 ??3@YAXPAXI@Z		; operator delete
  00026	83 c4 08	 add	 esp, 8
$LN9@scalar:
  00029	8b c6		 mov	 eax, esi
  0002b	5e		 pop	 esi
  0002c	5d		 pop	 ebp
  0002d	c2 04 00	 ret	 4
??_Gruntime_error@std@@UAEPAXI@Z ENDP			; std::runtime_error::`scalar deleting destructor'
_TEXT	ENDS
; Function compile flags: /Ogtp
; File C:\Program Files (x86)\Microsoft Visual Studio\2019\Community\VC\Tools\MSVC\14.27.29110\include\vcruntime_exception.h
;	COMDAT ??0runtime_error@std@@QAE@ABV01@@Z
_TEXT	SEGMENT
___that$ = 8						; size = 4
??0runtime_error@std@@QAE@ABV01@@Z PROC			; std::runtime_error::runtime_error, COMDAT
; _this$ = ecx
  00000	55		 push	 ebp
  00001	8b ec		 mov	 ebp, esp

; 72   :     {

  00003	56		 push	 esi
  00004	8b f1		 mov	 esi, ecx
  00006	0f 57 c0	 xorps	 xmm0, xmm0

; 71   :         : _Data()

  00009	8d 46 04	 lea	 eax, DWORD PTR [esi+4]

; 73   :         __std_exception_copy(&_Other._Data, &_Data);

  0000c	50		 push	 eax
  0000d	c7 06 00 00 00
	00		 mov	 DWORD PTR [esi], OFFSET ??_7exception@std@@6B@
  00013	66 0f d6 00	 movq	 QWORD PTR [eax], xmm0
  00017	8b 45 08	 mov	 eax, DWORD PTR ___that$[ebp]
  0001a	83 c0 04	 add	 eax, 4
  0001d	50		 push	 eax
  0001e	e8 00 00 00 00	 call	 ___std_exception_copy
  00023	83 c4 08	 add	 esp, 8
  00026	c7 06 00 00 00
	00		 mov	 DWORD PTR [esi], OFFSET ??_7runtime_error@std@@6B@
  0002c	8b c6		 mov	 eax, esi
  0002e	5e		 pop	 esi
  0002f	5d		 pop	 ebp
  00030	c2 04 00	 ret	 4
??0runtime_error@std@@QAE@ABV01@@Z ENDP			; std::runtime_error::runtime_error
_TEXT	ENDS
; Function compile flags: /Ogtp
; File C:\Program Files (x86)\Microsoft Visual Studio\2019\Community\VC\Tools\MSVC\14.27.29110\include\xstring
;	COMDAT ??$?HDU?$char_traits@D@std@@V?$allocator@D@1@@std@@YA?AV?$basic_string@DU?$char_traits@D@std@@V?$allocator@D@2@@0@ABV10@$$QAV10@@Z
_TEXT	SEGMENT
___$ReturnUdt$ = 8					; size = 4
__Left$ = 12						; size = 4
__Right$ = 16						; size = 4
??$?HDU?$char_traits@D@std@@V?$allocator@D@1@@std@@YA?AV?$basic_string@DU?$char_traits@D@std@@V?$allocator@D@2@@0@ABV10@$$QAV10@@Z PROC ; std::operator+<char,std::char_traits<char>,std::allocator<char> >, COMDAT

; 4420 :     const basic_string<_Elem, _Traits, _Alloc>& _Left, basic_string<_Elem, _Traits, _Alloc>&& _Right) {

  00000	55		 push	 ebp
  00001	8b ec		 mov	 ebp, esp

; 2144 :         const value_type* _Result = _Bx._Buf;

  00003	8b 45 0c	 mov	 eax, DWORD PTR __Left$[ebp]
  00006	8b c8		 mov	 ecx, eax

; 2153 :         return _BUF_SIZE <= _Myres;

  00008	83 78 14 10	 cmp	 DWORD PTR [eax+20], 16	; 00000010H

; 2145 :         if (_Large_string_engaged()) {

  0000c	72 02		 jb	 SHORT $LN8@operator

; 2146 :             _Result = _Unfancy(_Bx._Ptr);

  0000e	8b 08		 mov	 ecx, DWORD PTR [eax]
$LN8@operator:

; 3051 :         return insert(_Off, _Right._Mypair._Myval2._Myptr(), _Right._Mypair._Myval2._Mysize);

  00010	ff 70 10	 push	 DWORD PTR [eax+16]
  00013	51		 push	 ecx
  00014	8b 4d 10	 mov	 ecx, DWORD PTR __Right$[ebp]
  00017	6a 00		 push	 0
  00019	e8 00 00 00 00	 call	 ?insert@?$basic_string@DU?$char_traits@D@std@@V?$allocator@D@2@@std@@QAEAAV12@IQBDI@Z ; std::basic_string<char,std::char_traits<char>,std::allocator<char> >::insert

; 2124 :     _String_val() : _Bx(), _Mysize(0), _Myres(0) {}

  0001e	8b 4d 08	 mov	 ecx, DWORD PTR ___$ReturnUdt$[ebp]
  00021	c7 41 10 00 00
	00 00		 mov	 DWORD PTR [ecx+16], 0
  00028	c7 41 14 00 00
	00 00		 mov	 DWORD PTR [ecx+20], 0

; 2606 :         _CSTD memcpy(_My_data_mem, _Right_data_mem, _Memcpy_val_size);

  0002f	0f 10 00	 movups	 xmm0, XMMWORD PTR [eax]
  00032	0f 11 01	 movups	 XMMWORD PTR [ecx], xmm0
  00035	f3 0f 7e 40 10	 movq	 xmm0, QWORD PTR [eax+16]
  0003a	66 0f d6 41 10	 movq	 QWORD PTR [ecx+16], xmm0

; 4293 :         _Mypair._Myval2._Mysize = 0;

  0003f	c7 40 10 00 00
	00 00		 mov	 DWORD PTR [eax+16], 0

; 4294 :         _Mypair._Myval2._Myres  = _BUF_SIZE - 1;

  00046	c7 40 14 0f 00
	00 00		 mov	 DWORD PTR [eax+20], 15	; 0000000fH

; 4295 :         // the _Traits::assign is last so the codegen doesn't think the char write can alias this
; 4296 :         _Traits::assign(_Mypair._Myval2._Bx._Buf[0], _Elem());

  0004d	c6 00 00	 mov	 BYTE PTR [eax], 0

; 4421 :     return _STD move(_Right.insert(0, _Left));

  00050	8b c1		 mov	 eax, ecx

; 4422 : }

  00052	5d		 pop	 ebp
  00053	c3		 ret	 0
??$?HDU?$char_traits@D@std@@V?$allocator@D@1@@std@@YA?AV?$basic_string@DU?$char_traits@D@std@@V?$allocator@D@2@@0@ABV10@$$QAV10@@Z ENDP ; std::operator+<char,std::char_traits<char>,std::allocator<char> >
_TEXT	ENDS
; Function compile flags: /Ogtp
; File C:\Program Files (x86)\Microsoft Visual Studio\2019\Community\VC\Tools\MSVC\14.27.29110\include\xstring
;	COMDAT ??$?HDU?$char_traits@D@std@@V?$allocator@D@1@@std@@YA?AV?$basic_string@DU?$char_traits@D@std@@V?$allocator@D@2@@0@$$QAV10@0@Z
_TEXT	SEGMENT
$T1 = 8							; size = 1
___$ReturnUdt$ = 8					; size = 4
__Left$ = 12						; size = 4
__Right$ = 16						; size = 4
??$?HDU?$char_traits@D@std@@V?$allocator@D@1@@std@@YA?AV?$basic_string@DU?$char_traits@D@std@@V?$allocator@D@2@@0@$$QAV10@0@Z PROC ; std::operator+<char,std::char_traits<char>,std::allocator<char> >, COMDAT

; 4432 :     basic_string<_Elem, _Traits, _Alloc>&& _Left, basic_string<_Elem, _Traits, _Alloc>&& _Right) {

  00000	55		 push	 ebp
  00001	8b ec		 mov	 ebp, esp

; 4433 : #if _ITERATOR_DEBUG_LEVEL == 2
; 4434 :     _STL_VERIFY(_STD addressof(_Left) != _STD addressof(_Right),
; 4435 :         "You cannot concatenate the same moved string to itself. See "
; 4436 :         "N4849 [res.on.arguments]/1.3: If a function argument binds to an rvalue reference "
; 4437 :         "parameter, the implementation may assume that this parameter is a unique reference "
; 4438 :         "to this argument");
; 4439 : #endif // _ITERATOR_DEBUG_LEVEL == 2
; 4440 :     return {_String_constructor_concat_tag{}, _Left, _Right};

  00003	ff 75 10	 push	 DWORD PTR __Right$[ebp]
  00006	8b 4d 08	 mov	 ecx, DWORD PTR ___$ReturnUdt$[ebp]
  00009	ff 75 0c	 push	 DWORD PTR __Left$[ebp]
  0000c	ff 75 08	 push	 DWORD PTR $T1[ebp]
  0000f	e8 00 00 00 00	 call	 ??0?$basic_string@DU?$char_traits@D@std@@V?$allocator@D@2@@std@@QAE@U_String_constructor_concat_tag@1@AAV01@1@Z ; std::basic_string<char,std::char_traits<char>,std::allocator<char> >::basic_string<char,std::char_traits<char>,std::allocator<char> >
  00014	8b 45 08	 mov	 eax, DWORD PTR ___$ReturnUdt$[ebp]

; 4441 : }

  00017	5d		 pop	 ebp
  00018	c3		 ret	 0
??$?HDU?$char_traits@D@std@@V?$allocator@D@1@@std@@YA?AV?$basic_string@DU?$char_traits@D@std@@V?$allocator@D@2@@0@$$QAV10@0@Z ENDP ; std::operator+<char,std::char_traits<char>,std::allocator<char> >
_TEXT	ENDS
; Function compile flags: /Ogtp
; File C:\Program Files (x86)\Microsoft Visual Studio\2019\Community\VC\Tools\MSVC\14.27.29110\include\string
; File C:\Program Files (x86)\Microsoft Visual Studio\2019\Community\VC\Tools\MSVC\14.27.29110\include\xstring
; File C:\Program Files (x86)\Microsoft Visual Studio\2019\Community\VC\Tools\MSVC\14.27.29110\include\string
;	COMDAT ??$_Integral_to_string@DH@std@@YA?AV?$basic_string@DU?$char_traits@D@std@@V?$allocator@D@2@@0@H@Z
_TEXT	SEGMENT
___$ReturnUdt$GSCopy$ = -32				; size = 4
__Buff$ = -28						; size = 21
__$ArrayPad$ = -4					; size = 4
___$ReturnUdt$ = 8					; size = 4
__Val$ = 12						; size = 4
??$_Integral_to_string@DH@std@@YA?AV?$basic_string@DU?$char_traits@D@std@@V?$allocator@D@2@@0@H@Z PROC ; std::_Integral_to_string<char,int>, COMDAT

; 485  : basic_string<_Elem> _Integral_to_string(const _Ty _Val) { // convert _Val to string

  00000	55		 push	 ebp
  00001	8b ec		 mov	 ebp, esp
  00003	83 ec 20	 sub	 esp, 32			; 00000020H
  00006	a1 00 00 00 00	 mov	 eax, DWORD PTR ___security_cookie
  0000b	33 c5		 xor	 eax, ebp
  0000d	89 45 fc	 mov	 DWORD PTR __$ArrayPad$[ebp], eax

; 486  :     static_assert(is_integral_v<_Ty>, "_Ty must be integral");
; 487  :     using _UTy = make_unsigned_t<_Ty>;
; 488  :     _Elem _Buff[21]; // can hold -2^63 and 2^64 - 1, plus NUL
; 489  :     _Elem* const _Buff_end = _STD end(_Buff);
; 490  :     _Elem* _RNext          = _Buff_end;
; 491  :     const auto _UVal       = static_cast<_UTy>(_Val);
; 492  :     if (_Val < 0) {

  00010	8b 45 0c	 mov	 eax, DWORD PTR __Val$[ebp]
  00013	56		 push	 esi
  00014	8b 75 08	 mov	 esi, DWORD PTR ___$ReturnUdt$[ebp]
  00017	89 75 e0	 mov	 DWORD PTR ___$ReturnUdt$GSCopy$[ebp], esi
  0001a	85 c0		 test	 eax, eax
  0001c	79 16		 jns	 SHORT $LN2@Integral_t

; 493  :         _RNext    = _UIntegral_to_buff(_RNext, 0 - _UVal);

  0001e	f7 d8		 neg	 eax
  00020	50		 push	 eax
  00021	8d 45 f9	 lea	 eax, DWORD PTR __Buff$[ebp+21]
  00024	50		 push	 eax
  00025	e8 00 00 00 00	 call	 ??$_UIntegral_to_buff@DI@std@@YAPADPADI@Z ; std::_UIntegral_to_buff<char,unsigned int>
  0002a	83 c4 08	 add	 esp, 8

; 494  :         *--_RNext = '-';

  0002d	c6 40 ff 2d	 mov	 BYTE PTR [eax-1], 45	; 0000002dH
  00031	48		 dec	 eax

; 495  :     } else {

  00032	eb 0d		 jmp	 SHORT $LN3@Integral_t
$LN2@Integral_t:

; 496  :         _RNext = _UIntegral_to_buff(_RNext, _UVal);

  00034	50		 push	 eax
  00035	8d 45 f9	 lea	 eax, DWORD PTR __Buff$[ebp+21]
  00038	50		 push	 eax
  00039	e8 00 00 00 00	 call	 ??$_UIntegral_to_buff@DI@std@@YAPADPADI@Z ; std::_UIntegral_to_buff<char,unsigned int>
  0003e	83 c4 08	 add	 esp, 8
$LN3@Integral_t:
; File C:\Program Files (x86)\Microsoft Visual Studio\2019\Community\VC\Tools\MSVC\14.27.29110\include\xstring

; 2406 :         if (_First != _Last) {

  00041	8d 4d f9	 lea	 ecx, DWORD PTR __Buff$[ebp+21]

; 4293 :         _Mypair._Myval2._Mysize = 0;

  00044	c7 46 10 00 00
	00 00		 mov	 DWORD PTR [esi+16], 0

; 4294 :         _Mypair._Myval2._Myres  = _BUF_SIZE - 1;

  0004b	c7 46 14 0f 00
	00 00		 mov	 DWORD PTR [esi+20], 15	; 0000000fH

; 4295 :         // the _Traits::assign is last so the codegen doesn't think the char write can alias this
; 4296 :         _Traits::assign(_Mypair._Myval2._Bx._Buf[0], _Elem());

  00052	c6 06 00	 mov	 BYTE PTR [esi], 0

; 2406 :         if (_First != _Last) {

  00055	3b c1		 cmp	 eax, ecx
  00057	74 0b		 je	 SHORT $LN18@Integral_t

; 2407 :             assign(_First, _Convert_size<size_type>(static_cast<size_t>(_Last - _First)));

  00059	2b c8		 sub	 ecx, eax
  0005b	51		 push	 ecx
  0005c	50		 push	 eax
  0005d	8b ce		 mov	 ecx, esi
  0005f	e8 00 00 00 00	 call	 ?assign@?$basic_string@DU?$char_traits@D@std@@V?$allocator@D@2@@std@@QAEAAV12@QBDI@Z ; std::basic_string<char,std::char_traits<char>,std::allocator<char> >::assign
$LN18@Integral_t:
; File C:\Program Files (x86)\Microsoft Visual Studio\2019\Community\VC\Tools\MSVC\14.27.29110\include\string

; 500  : }

  00064	8b 4d fc	 mov	 ecx, DWORD PTR __$ArrayPad$[ebp]
  00067	8b c6		 mov	 eax, esi
  00069	33 cd		 xor	 ecx, ebp
  0006b	5e		 pop	 esi
  0006c	e8 00 00 00 00	 call	 @__security_check_cookie@4
  00071	8b e5		 mov	 esp, ebp
  00073	5d		 pop	 ebp
  00074	c3		 ret	 0
??$_Integral_to_string@DH@std@@YA?AV?$basic_string@DU?$char_traits@D@std@@V?$allocator@D@2@@0@H@Z ENDP ; std::_Integral_to_string<char,int>
_TEXT	ENDS
; Function compile flags: /Ogtp
; File C:\Program Files (x86)\Microsoft Visual Studio\2019\Community\VC\Tools\MSVC\14.27.29110\include\xstring
; File C:\Program Files (x86)\Microsoft Visual Studio\2019\Community\VC\Tools\MSVC\14.27.29110\include\utility
; File C:\Program Files (x86)\Microsoft Visual Studio\2019\Community\VC\Tools\MSVC\14.27.29110\include\xstring
; File C:\Program Files (x86)\Microsoft Visual Studio\2019\Community\VC\Tools\MSVC\14.27.29110\include\xmemory
; File C:\Program Files (x86)\Microsoft Visual Studio\2019\Community\VC\Tools\MSVC\14.27.29110\include\xstring
; File C:\Program Files (x86)\Microsoft Visual Studio\2019\Community\VC\Tools\MSVC\14.27.29110\include\xmemory
; File C:\Program Files (x86)\Microsoft Visual Studio\2019\Community\VC\Tools\MSVC\14.27.29110\include\xstring
; File C:\Program Files (x86)\Microsoft Visual Studio\2019\Community\VC\Tools\MSVC\14.27.29110\include\xmemory
; File C:\Program Files (x86)\Microsoft Visual Studio\2019\Community\VC\Tools\MSVC\14.27.29110\include\xstring
;	COMDAT ?insert@?$basic_string@DU?$char_traits@D@std@@V?$allocator@D@2@@std@@QAEAAV12@IQBDI@Z
_TEXT	SEGMENT
tv519 = -16						; size = 4
__New_ptr$1 = -12					; size = 4
tv518 = -8						; size = 4
__Old$1$ = -4						; size = 4
__Result$1$ = 8						; size = 4
__Ptr_shifted_after$1$ = 8				; size = 4
__Off$ = 8						; size = 4
__Ptr$ = 12						; size = 4
tv522 = 16						; size = 4
tv520 = 16						; size = 4
$T2 = 16						; size = 4
__Insert_at$1$ = 16					; size = 4
__Count$ = 16						; size = 4
?insert@?$basic_string@DU?$char_traits@D@std@@V?$allocator@D@2@@std@@QAEAAV12@IQBDI@Z PROC ; std::basic_string<char,std::char_traits<char>,std::allocator<char> >::insert, COMDAT
; _this$ = ecx

; 3078 :         const size_type _Off, _In_reads_(_Count) const _Elem* const _Ptr, _CRT_GUARDOVERFLOW const size_type _Count) {

  00000	55		 push	 ebp
  00001	8b ec		 mov	 ebp, esp
  00003	83 ec 10	 sub	 esp, 16			; 00000010H
  00006	53		 push	 ebx
  00007	56		 push	 esi
  00008	57		 push	 edi
  00009	8b f9		 mov	 edi, ecx

; 2157 :         if (_Mysize < _Off) {

  0000b	8b 4d 08	 mov	 ecx, DWORD PTR __Off$[ebp]
  0000e	8b 77 10	 mov	 esi, DWORD PTR [edi+16]
  00011	3b f1		 cmp	 esi, ecx
  00013	0f 82 a0 01 00
	00		 jb	 $LN61@insert

; 3079 :         // insert [_Ptr, _Ptr + _Count) at _Off
; 3080 :         _Mypair._Myval2._Check_offset(_Off);
; 3081 :         const size_type _Old_size = _Mypair._Myval2._Mysize;
; 3082 :         if (_Count <= _Mypair._Myval2._Myres - _Old_size) {

  00019	8b 57 14	 mov	 edx, DWORD PTR [edi+20]
  0001c	8b c2		 mov	 eax, edx
  0001e	8b 5d 10	 mov	 ebx, DWORD PTR __Count$[ebp]
  00021	2b c6		 sub	 eax, esi
  00023	89 55 fc	 mov	 DWORD PTR __Old$1$[ebp], edx
  00026	3b d8		 cmp	 ebx, eax
  00028	0f 87 8a 00 00
	00		 ja	 $LN2@insert

; 2135 :         value_type* _Result = _Bx._Buf;

  0002e	89 7d 08	 mov	 DWORD PTR __Result$1$[ebp], edi

; 3083 :             _Mypair._Myval2._Mysize = _Old_size + _Count;

  00031	8d 04 1e	 lea	 eax, DWORD PTR [esi+ebx]
  00034	89 47 10	 mov	 DWORD PTR [edi+16], eax

; 2135 :         value_type* _Result = _Bx._Buf;

  00037	8b c7		 mov	 eax, edi

; 2153 :         return _BUF_SIZE <= _Myres;

  00039	83 fa 10	 cmp	 edx, 16			; 00000010H

; 2136 :         if (_Large_string_engaged()) {

  0003c	72 05		 jb	 SHORT $LN14@insert

; 2137 :             _Result = _Unfancy(_Bx._Ptr);

  0003e	8b 07		 mov	 eax, DWORD PTR [edi]
  00040	89 45 08	 mov	 DWORD PTR __Result$1$[ebp], eax
$LN14@insert:

; 3084 :             _Elem* const _Old_ptr   = _Mypair._Myval2._Myptr();
; 3085 :             _Elem* const _Insert_at = _Old_ptr + _Off;

  00043	8d 14 08	 lea	 edx, DWORD PTR [eax+ecx]

; 3086 :             // the range [_Ptr, _Ptr + _Ptr_shifted_after) is left alone by moving the suffix out,
; 3087 :             // while the range [_Ptr + _Ptr_shifted_after, _Ptr + _Count) shifts down by _Count
; 3088 :             size_type _Ptr_shifted_after;
; 3089 :             if (_Ptr + _Count <= _Insert_at
; 3090 :                 || _Ptr > _Old_ptr + _Old_size) { // inserted content is before the shifted region, or does not alias

  00046	8b 45 0c	 mov	 eax, DWORD PTR __Ptr$[ebp]
  00049	03 c3		 add	 eax, ebx
  0004b	89 55 10	 mov	 DWORD PTR __Insert_at$1$[ebp], edx
  0004e	3b c2		 cmp	 eax, edx
  00050	76 20		 jbe	 SHORT $LN5@insert
  00052	8b 45 08	 mov	 eax, DWORD PTR __Result$1$[ebp]
  00055	03 c6		 add	 eax, esi
  00057	39 45 0c	 cmp	 DWORD PTR __Ptr$[ebp], eax
  0005a	77 16		 ja	 SHORT $LN5@insert

; 3092 :             } else if (_Insert_at <= _Ptr) { // all of [_Ptr, _Ptr + _Count) shifts

  0005c	3b 55 0c	 cmp	 edx, DWORD PTR __Ptr$[ebp]
  0005f	77 07		 ja	 SHORT $LN6@insert

; 3093 :                 _Ptr_shifted_after = 0;

  00061	33 c0		 xor	 eax, eax
  00063	89 45 08	 mov	 DWORD PTR __Ptr_shifted_after$1$[ebp], eax

; 3094 :             } else { // [_Ptr, _Ptr + _Count) contains _Insert_at, so only the part after _Insert_at shifts

  00066	eb 0d		 jmp	 SHORT $LN7@insert
$LN6@insert:

; 3095 :                 _Ptr_shifted_after = static_cast<size_type>(_Insert_at - _Ptr);

  00068	8b c2		 mov	 eax, edx
  0006a	2b 45 0c	 sub	 eax, DWORD PTR __Ptr$[ebp]
  0006d	89 45 08	 mov	 DWORD PTR __Ptr_shifted_after$1$[ebp], eax
  00070	eb 03		 jmp	 SHORT $LN7@insert
$LN5@insert:

; 3091 :                 _Ptr_shifted_after = _Count; // none of _Ptr's data shifts

  00072	89 5d 08	 mov	 DWORD PTR __Ptr_shifted_after$1$[ebp], ebx
$LN7@insert:

; 363  :         return static_cast<_Elem*>(_CSTD memmove(_First1, _First2, _Count));

  00075	2b f1		 sub	 esi, ecx

; 3096 :             }
; 3097 : 
; 3098 :             _Traits::move(_Insert_at + _Count, _Insert_at, _Old_size - _Off + 1); // move suffix + null down

  00077	8d 04 1a	 lea	 eax, DWORD PTR [edx+ebx]
  0007a	46		 inc	 esi

; 363  :         return static_cast<_Elem*>(_CSTD memmove(_First1, _First2, _Count));

  0007b	56		 push	 esi
  0007c	52		 push	 edx
  0007d	50		 push	 eax
  0007e	e8 00 00 00 00	 call	 _memmove

; 328  :         return static_cast<_Elem*>(_CSTD memcpy(_First1, _First2, _Count));

  00083	8b 75 08	 mov	 esi, DWORD PTR __Ptr_shifted_after$1$[ebp]
  00086	56		 push	 esi
  00087	ff 75 0c	 push	 DWORD PTR __Ptr$[ebp]
  0008a	ff 75 10	 push	 DWORD PTR __Insert_at$1$[ebp]
  0008d	e8 00 00 00 00	 call	 _memcpy

; 3099 :             _Traits::copy(_Insert_at, _Ptr, _Ptr_shifted_after);
; 3100 :             _Traits::copy(

  00092	8b c3		 mov	 eax, ebx
  00094	2b c6		 sub	 eax, esi

; 328  :         return static_cast<_Elem*>(_CSTD memcpy(_First1, _First2, _Count));

  00096	50		 push	 eax

; 3099 :             _Traits::copy(_Insert_at, _Ptr, _Ptr_shifted_after);
; 3100 :             _Traits::copy(

  00097	8b 45 0c	 mov	 eax, DWORD PTR __Ptr$[ebp]
  0009a	03 c6		 add	 eax, esi
  0009c	03 c3		 add	 eax, ebx

; 328  :         return static_cast<_Elem*>(_CSTD memcpy(_First1, _First2, _Count));

  0009e	50		 push	 eax

; 3099 :             _Traits::copy(_Insert_at, _Ptr, _Ptr_shifted_after);
; 3100 :             _Traits::copy(

  0009f	8b 45 10	 mov	 eax, DWORD PTR __Insert_at$1$[ebp]
  000a2	03 c6		 add	 eax, esi

; 328  :         return static_cast<_Elem*>(_CSTD memcpy(_First1, _First2, _Count));

  000a4	50		 push	 eax
  000a5	e8 00 00 00 00	 call	 _memcpy
  000aa	83 c4 24	 add	 esp, 36			; 00000024H

; 3112 :             },
; 3113 :             _Off, _Ptr, _Count);
; 3114 :     }

  000ad	8b c7		 mov	 eax, edi
  000af	5f		 pop	 edi
  000b0	5e		 pop	 esi
  000b1	5b		 pop	 ebx
  000b2	8b e5		 mov	 esp, ebp
  000b4	5d		 pop	 ebp
  000b5	c2 0c 00	 ret	 12			; 0000000cH
$LN2@insert:

; 4249 :         if (max_size() - _Old_size < _Size_increase) {

  000b8	b8 ff ff ff 7f	 mov	 eax, 2147483647		; 7fffffffH
  000bd	2b c6		 sub	 eax, esi
  000bf	3b c3		 cmp	 eax, ebx
  000c1	0f 82 f7 00 00
	00		 jb	 $LN62@insert

; 4251 :         }
; 4252 : 
; 4253 :         const size_type _New_size     = _Old_size + _Size_increase;

  000c7	8d 0c 1e	 lea	 ecx, DWORD PTR [esi+ebx]

; 4201 :         const size_type _Masked = _Requested | _ALLOC_MASK;

  000ca	83 c9 0f	 or	 ecx, 15			; 0000000fH
  000cd	81 f9 ff ff ff
	7f		 cmp	 ecx, 2147483647		; 7fffffffH

; 4202 :         if (_Masked > _Max) { // the mask overflows, settle for max_size()

  000d3	76 07		 jbe	 SHORT $LN32@insert

; 4203 :             return _Max;

  000d5	b9 ff ff ff 7f	 mov	 ecx, 2147483647		; 7fffffffH
  000da	eb 24		 jmp	 SHORT $LN58@insert
$LN32@insert:

; 4204 :         }
; 4205 : 
; 4206 :         if (_Old > _Max - _Old / 2) { // similarly, geometric overflows

  000dc	8b c2		 mov	 eax, edx
  000de	d1 e8		 shr	 eax, 1
  000e0	89 45 10	 mov	 DWORD PTR tv522[ebp], eax
  000e3	b8 ff ff ff 7f	 mov	 eax, 2147483647		; 7fffffffH
  000e8	2b 45 10	 sub	 eax, DWORD PTR tv522[ebp]
  000eb	3b d0		 cmp	 edx, eax
  000ed	76 07		 jbe	 SHORT $LN33@insert

; 4207 :             return _Max;

  000ef	b9 ff ff ff 7f	 mov	 ecx, 2147483647		; 7fffffffH
  000f4	eb 0a		 jmp	 SHORT $LN58@insert
$LN33@insert:

; 4208 :         }
; 4209 : 
; 4210 :         return (_STD max)(_Masked, _Old + _Old / 2);

  000f6	8b 45 10	 mov	 eax, DWORD PTR tv522[ebp]
  000f9	03 c2		 add	 eax, edx
; File C:\Program Files (x86)\Microsoft Visual Studio\2019\Community\VC\Tools\MSVC\14.27.29110\include\utility

; 44   :     return _Left < _Right ? _Right : _Left;

  000fb	3b c8		 cmp	 ecx, eax
  000fd	0f 42 c8	 cmovb	 ecx, eax
$LN58@insert:
; File C:\Program Files (x86)\Microsoft Visual Studio\2019\Community\VC\Tools\MSVC\14.27.29110\include\xstring

; 4257 :         const pointer _New_ptr        = _Al.allocate(_New_capacity + 1); // throws

  00100	8d 41 01	 lea	 eax, DWORD PTR [ecx+1]
  00103	89 4d 10	 mov	 DWORD PTR $T2[ebp], ecx
; File C:\Program Files (x86)\Microsoft Visual Studio\2019\Community\VC\Tools\MSVC\14.27.29110\include\xmemory

; 807  :         return static_cast<_Ty*>(_Allocate<_New_alignof<_Ty>>(_Get_size_of_n<sizeof(_Ty)>(_Count)));

  00106	50		 push	 eax
  00107	e8 00 00 00 00	 call	 ??$_Allocate@$07U_Default_allocate_traits@std@@$0A@@std@@YAPAXI@Z ; std::_Allocate<8,std::_Default_allocate_traits,0>
; File C:\Program Files (x86)\Microsoft Visual Studio\2019\Community\VC\Tools\MSVC\14.27.29110\include\xstring

; 4260 :         _My_data._Myres       = _New_capacity;

  0010c	8b 4d 10	 mov	 ecx, DWORD PTR $T2[ebp]
  0010f	8b d0		 mov	 edx, eax
  00111	8d 04 1e	 lea	 eax, DWORD PTR [esi+ebx]
  00114	89 4f 14	 mov	 DWORD PTR [edi+20], ecx
  00117	89 47 10	 mov	 DWORD PTR [edi+16], eax
; File C:\Program Files (x86)\Microsoft Visual Studio\2019\Community\VC\Tools\MSVC\14.27.29110\include\xmemory

; 807  :         return static_cast<_Ty*>(_Allocate<_New_alignof<_Ty>>(_Get_size_of_n<sizeof(_Ty)>(_Count)));

  0011a	83 c4 04	 add	 esp, 4
; File C:\Program Files (x86)\Microsoft Visual Studio\2019\Community\VC\Tools\MSVC\14.27.29110\include\xstring

; 4261 :         _Elem* const _Raw_new = _Unfancy(_New_ptr);

  0011d	8b 45 08	 mov	 eax, DWORD PTR __Off$[ebp]
  00120	2b f0		 sub	 esi, eax
  00122	46		 inc	 esi
  00123	89 55 f4	 mov	 DWORD PTR __New_ptr$1[ebp], edx
  00126	89 75 f0	 mov	 DWORD PTR tv519[ebp], esi

; 4262 :         if (_BUF_SIZE <= _Old_capacity) {

  00129	50		 push	 eax
  0012a	8d 0c 02	 lea	 ecx, DWORD PTR [edx+eax]
  0012d	89 4d 10	 mov	 DWORD PTR tv520[ebp], ecx
  00130	03 cb		 add	 ecx, ebx
  00132	83 7d fc 10	 cmp	 DWORD PTR __Old$1$[ebp], 16 ; 00000010H
  00136	89 4d f8	 mov	 DWORD PTR tv518[ebp], ecx
  00139	72 44		 jb	 SHORT $LN26@insert

; 4263 :             const pointer _Old_ptr = _My_data._Bx._Ptr;

  0013b	8b 37		 mov	 esi, DWORD PTR [edi]

; 328  :         return static_cast<_Elem*>(_CSTD memcpy(_First1, _First2, _Count));

  0013d	56		 push	 esi
  0013e	52		 push	 edx
  0013f	e8 00 00 00 00	 call	 _memcpy
  00144	53		 push	 ebx
  00145	ff 75 0c	 push	 DWORD PTR __Ptr$[ebp]
  00148	ff 75 10	 push	 DWORD PTR tv520[ebp]
  0014b	e8 00 00 00 00	 call	 _memcpy
  00150	ff 75 f0	 push	 DWORD PTR tv519[ebp]

; 3111 :                 _Traits::copy(_New_ptr + _Off + _Count, _Old_ptr + _Off, _Old_size - _Off + 1);

  00153	8b 45 08	 mov	 eax, DWORD PTR __Off$[ebp]
  00156	03 c6		 add	 eax, esi

; 328  :         return static_cast<_Elem*>(_CSTD memcpy(_First1, _First2, _Count));

  00158	50		 push	 eax
  00159	ff 75 f8	 push	 DWORD PTR tv518[ebp]
  0015c	e8 00 00 00 00	 call	 _memcpy

; 4265 :             _Al.deallocate(_Old_ptr, _Old_capacity + 1);

  00161	8b 45 fc	 mov	 eax, DWORD PTR __Old$1$[ebp]
  00164	40		 inc	 eax
; File C:\Program Files (x86)\Microsoft Visual Studio\2019\Community\VC\Tools\MSVC\14.27.29110\include\xmemory

; 803  :         _Deallocate<_New_alignof<_Ty>>(_Ptr, sizeof(_Ty) * _Count);

  00165	50		 push	 eax
  00166	56		 push	 esi
  00167	e8 00 00 00 00	 call	 ??$_Deallocate@$07$0A@@std@@YAXPAXI@Z ; std::_Deallocate<8,0>
; File C:\Program Files (x86)\Microsoft Visual Studio\2019\Community\VC\Tools\MSVC\14.27.29110\include\xstring

; 4266 :             _My_data._Bx._Ptr = _New_ptr;

  0016c	8b 45 f4	 mov	 eax, DWORD PTR __New_ptr$1[ebp]

; 3112 :             },
; 3113 :             _Off, _Ptr, _Count);
; 3114 :     }

  0016f	83 c4 2c	 add	 esp, 44			; 0000002cH

; 4266 :             _My_data._Bx._Ptr = _New_ptr;

  00172	89 07		 mov	 DWORD PTR [edi], eax

; 3112 :             },
; 3113 :             _Off, _Ptr, _Count);
; 3114 :     }

  00174	8b c7		 mov	 eax, edi
  00176	5f		 pop	 edi
  00177	5e		 pop	 esi
  00178	5b		 pop	 ebx
  00179	8b e5		 mov	 esp, ebp
  0017b	5d		 pop	 ebp
  0017c	c2 0c 00	 ret	 12			; 0000000cH
$LN26@insert:

; 328  :         return static_cast<_Elem*>(_CSTD memcpy(_First1, _First2, _Count));

  0017f	57		 push	 edi
  00180	52		 push	 edx
  00181	e8 00 00 00 00	 call	 _memcpy
  00186	53		 push	 ebx
  00187	ff 75 0c	 push	 DWORD PTR __Ptr$[ebp]
  0018a	ff 75 10	 push	 DWORD PTR tv520[ebp]
  0018d	e8 00 00 00 00	 call	 _memcpy

; 3111 :                 _Traits::copy(_New_ptr + _Off + _Count, _Old_ptr + _Off, _Old_size - _Off + 1);

  00192	8b 45 08	 mov	 eax, DWORD PTR __Off$[ebp]

; 328  :         return static_cast<_Elem*>(_CSTD memcpy(_First1, _First2, _Count));

  00195	56		 push	 esi

; 3111 :                 _Traits::copy(_New_ptr + _Off + _Count, _Old_ptr + _Off, _Old_size - _Off + 1);

  00196	03 c7		 add	 eax, edi

; 328  :         return static_cast<_Elem*>(_CSTD memcpy(_First1, _First2, _Count));

  00198	50		 push	 eax
  00199	ff 75 f8	 push	 DWORD PTR tv518[ebp]
  0019c	e8 00 00 00 00	 call	 _memcpy

; 4269 :             _Construct_in_place(_My_data._Bx._Ptr, _New_ptr);

  001a1	8d 45 f4	 lea	 eax, DWORD PTR __New_ptr$1[ebp]
  001a4	50		 push	 eax
  001a5	57		 push	 edi
  001a6	e8 00 00 00 00	 call	 ??$_Construct_in_place@PADABQAD@std@@YAXAAPADABQAD@Z ; std::_Construct_in_place<char *,char * const &>

; 3112 :             },
; 3113 :             _Off, _Ptr, _Count);
; 3114 :     }

  001ab	83 c4 2c	 add	 esp, 44			; 0000002cH
  001ae	8b c7		 mov	 eax, edi
  001b0	5f		 pop	 edi
  001b1	5e		 pop	 esi
  001b2	5b		 pop	 ebx
  001b3	8b e5		 mov	 esp, ebp
  001b5	5d		 pop	 ebp
  001b6	c2 0c 00	 ret	 12			; 0000000cH
$LN61@insert:

; 2158 :             _Xran();

  001b9	e8 00 00 00 00	 call	 ?_Xran@?$_String_val@U?$_Simple_types@D@std@@@std@@SAXXZ ; std::_String_val<std::_Simple_types<char> >::_Xran
$LN62@insert:

; 4250 :             _Xlen_string(); // result too long

  001be	e8 00 00 00 00	 call	 ?_Xlen_string@std@@YAXXZ ; std::_Xlen_string
$LN57@insert:
  001c3	cc		 int	 3
?insert@?$basic_string@DU?$char_traits@D@std@@V?$allocator@D@2@@std@@QAEAAV12@IQBDI@Z ENDP ; std::basic_string<char,std::char_traits<char>,std::allocator<char> >::insert
_TEXT	ENDS
; Function compile flags: /Ogtp
; File C:\Program Files (x86)\Microsoft Visual Studio\2019\Community\VC\Tools\MSVC\14.27.29110\include\xstring
; File C:\Program Files (x86)\Microsoft Visual Studio\2019\Community\VC\Tools\MSVC\14.27.29110\include\utility
; File C:\Program Files (x86)\Microsoft Visual Studio\2019\Community\VC\Tools\MSVC\14.27.29110\include\xstring
; File C:\Program Files (x86)\Microsoft Visual Studio\2019\Community\VC\Tools\MSVC\14.27.29110\include\xmemory
; File C:\Program Files (x86)\Microsoft Visual Studio\2019\Community\VC\Tools\MSVC\14.27.29110\include\xstring
; File C:\Program Files (x86)\Microsoft Visual Studio\2019\Community\VC\Tools\MSVC\14.27.29110\include\xmemory
; File C:\Program Files (x86)\Microsoft Visual Studio\2019\Community\VC\Tools\MSVC\14.27.29110\include\xstring
;	COMDAT ?assign@?$basic_string@DU?$char_traits@D@std@@V?$allocator@D@2@@std@@QAEAAV12@QBDI@Z
_TEXT	SEGMENT
__Old$1$ = -4						; size = 4
__Ptr$ = 8						; size = 4
__New_ptr$1 = 12					; size = 4
__Count$ = 12						; size = 4
?assign@?$basic_string@DU?$char_traits@D@std@@V?$allocator@D@2@@std@@QAEAAV12@QBDI@Z PROC ; std::basic_string<char,std::char_traits<char>,std::allocator<char> >::assign, COMDAT
; _this$ = ecx

; 2964 :     basic_string& assign(_In_reads_(_Count) const _Elem* const _Ptr, _CRT_GUARDOVERFLOW const size_type _Count) {

  00000	55		 push	 ebp
  00001	8b ec		 mov	 ebp, esp
  00003	51		 push	 ecx
  00004	53		 push	 ebx
  00005	56		 push	 esi
  00006	8b f1		 mov	 esi, ecx
  00008	57		 push	 edi

; 2965 :         // assign [_Ptr, _Ptr + _Count)
; 2966 :         if (_Count <= _Mypair._Myval2._Myres) {

  00009	8b 7d 0c	 mov	 edi, DWORD PTR __Count$[ebp]
  0000c	8b 4e 14	 mov	 ecx, DWORD PTR [esi+20]
  0000f	89 4d fc	 mov	 DWORD PTR __Old$1$[ebp], ecx
  00012	3b f9		 cmp	 edi, ecx
  00014	77 28		 ja	 SHORT $LN2@assign

; 2135 :         value_type* _Result = _Bx._Buf;

  00016	8b de		 mov	 ebx, esi

; 2153 :         return _BUF_SIZE <= _Myres;

  00018	83 f9 10	 cmp	 ecx, 16			; 00000010H

; 2136 :         if (_Large_string_engaged()) {

  0001b	72 02		 jb	 SHORT $LN5@assign

; 2137 :             _Result = _Unfancy(_Bx._Ptr);

  0001d	8b 1e		 mov	 ebx, DWORD PTR [esi]
$LN5@assign:

; 363  :         return static_cast<_Elem*>(_CSTD memmove(_First1, _First2, _Count));

  0001f	57		 push	 edi
  00020	ff 75 08	 push	 DWORD PTR __Ptr$[ebp]

; 2967 :             _Elem* const _Old_ptr   = _Mypair._Myval2._Myptr();
; 2968 :             _Mypair._Myval2._Mysize = _Count;

  00023	89 7e 10	 mov	 DWORD PTR [esi+16], edi

; 363  :         return static_cast<_Elem*>(_CSTD memmove(_First1, _First2, _Count));

  00026	53		 push	 ebx
  00027	e8 00 00 00 00	 call	 _memmove
  0002c	83 c4 0c	 add	 esp, 12			; 0000000cH

; 2969 :             _Traits::move(_Old_ptr, _Ptr, _Count);
; 2970 :             _Traits::assign(_Old_ptr[_Count], _Elem());

  0002f	c6 04 3b 00	 mov	 BYTE PTR [ebx+edi], 0

; 2981 :     }

  00033	8b c6		 mov	 eax, esi
  00035	5f		 pop	 edi
  00036	5e		 pop	 esi
  00037	5b		 pop	 ebx
  00038	8b e5		 mov	 esp, ebp
  0003a	5d		 pop	 ebp
  0003b	c2 08 00	 ret	 8
$LN2@assign:

; 4221 :         if (_New_size > max_size()) {

  0003e	81 ff ff ff ff
	7f		 cmp	 edi, 2147483647		; 7fffffffH
  00044	0f 87 91 00 00
	00		 ja	 $LN36@assign

; 4201 :         const size_type _Masked = _Requested | _ALLOC_MASK;

  0004a	8b df		 mov	 ebx, edi
  0004c	83 cb 0f	 or	 ebx, 15			; 0000000fH
  0004f	81 fb ff ff ff
	7f		 cmp	 ebx, 2147483647		; 7fffffffH

; 4202 :         if (_Masked > _Max) { // the mask overflows, settle for max_size()

  00055	76 07		 jbe	 SHORT $LN19@assign

; 4203 :             return _Max;

  00057	bb ff ff ff 7f	 mov	 ebx, 2147483647		; 7fffffffH
  0005c	eb 1e		 jmp	 SHORT $LN18@assign
$LN19@assign:

; 4204 :         }
; 4205 : 
; 4206 :         if (_Old > _Max - _Old / 2) { // similarly, geometric overflows

  0005e	8b d1		 mov	 edx, ecx
  00060	b8 ff ff ff 7f	 mov	 eax, 2147483647		; 7fffffffH
  00065	d1 ea		 shr	 edx, 1
  00067	2b c2		 sub	 eax, edx
  00069	3b c8		 cmp	 ecx, eax
  0006b	76 07		 jbe	 SHORT $LN20@assign

; 4207 :             return _Max;

  0006d	bb ff ff ff 7f	 mov	 ebx, 2147483647		; 7fffffffH
  00072	eb 08		 jmp	 SHORT $LN18@assign
$LN20@assign:

; 4208 :         }
; 4209 : 
; 4210 :         return (_STD max)(_Masked, _Old + _Old / 2);

  00074	8d 04 0a	 lea	 eax, DWORD PTR [edx+ecx]
; File C:\Program Files (x86)\Microsoft Visual Studio\2019\Community\VC\Tools\MSVC\14.27.29110\include\utility

; 44   :     return _Left < _Right ? _Right : _Left;

  00077	3b d8		 cmp	 ebx, eax
  00079	0f 42 d8	 cmovb	 ebx, eax
$LN18@assign:
; File C:\Program Files (x86)\Microsoft Visual Studio\2019\Community\VC\Tools\MSVC\14.27.29110\include\xstring

; 4228 :         const pointer _New_ptr        = _Al.allocate(_New_capacity + 1); // throws

  0007c	8d 43 01	 lea	 eax, DWORD PTR [ebx+1]
; File C:\Program Files (x86)\Microsoft Visual Studio\2019\Community\VC\Tools\MSVC\14.27.29110\include\xmemory

; 807  :         return static_cast<_Ty*>(_Allocate<_New_alignof<_Ty>>(_Get_size_of_n<sizeof(_Ty)>(_Count)));

  0007f	50		 push	 eax
  00080	e8 00 00 00 00	 call	 ??$_Allocate@$07U_Default_allocate_traits@std@@$0A@@std@@YAPAXI@Z ; std::_Allocate<8,std::_Default_allocate_traits,0>
; File C:\Program Files (x86)\Microsoft Visual Studio\2019\Community\VC\Tools\MSVC\14.27.29110\include\xstring

; 328  :         return static_cast<_Elem*>(_CSTD memcpy(_First1, _First2, _Count));

  00085	57		 push	 edi
  00086	ff 75 08	 push	 DWORD PTR __Ptr$[ebp]

; 4228 :         const pointer _New_ptr        = _Al.allocate(_New_capacity + 1); // throws

  00089	89 45 0c	 mov	 DWORD PTR __New_ptr$1[ebp], eax

; 328  :         return static_cast<_Elem*>(_CSTD memcpy(_First1, _First2, _Count));

  0008c	50		 push	 eax

; 4230 :         _Mypair._Myval2._Mysize = _New_size;

  0008d	89 7e 10	 mov	 DWORD PTR [esi+16], edi

; 4231 :         _Mypair._Myval2._Myres  = _New_capacity;

  00090	89 5e 14	 mov	 DWORD PTR [esi+20], ebx

; 328  :         return static_cast<_Elem*>(_CSTD memcpy(_First1, _First2, _Count));

  00093	e8 00 00 00 00	 call	 _memcpy

; 2978 :                 _Traits::assign(_New_ptr[_Count], _Elem());

  00098	8b 5d 0c	 mov	 ebx, DWORD PTR __New_ptr$1[ebp]

; 328  :         return static_cast<_Elem*>(_CSTD memcpy(_First1, _First2, _Count));

  0009b	83 c4 10	 add	 esp, 16			; 00000010H

; 4233 :         if (_BUF_SIZE <= _Old_capacity) {

  0009e	8b 45 fc	 mov	 eax, DWORD PTR __Old$1$[ebp]

; 2978 :                 _Traits::assign(_New_ptr[_Count], _Elem());

  000a1	c6 04 3b 00	 mov	 BYTE PTR [ebx+edi], 0

; 4233 :         if (_BUF_SIZE <= _Old_capacity) {

  000a5	83 f8 10	 cmp	 eax, 16			; 00000010H
  000a8	72 19		 jb	 SHORT $LN13@assign

; 4234 :             _Al.deallocate(_Mypair._Myval2._Bx._Ptr, _Old_capacity + 1);

  000aa	40		 inc	 eax
; File C:\Program Files (x86)\Microsoft Visual Studio\2019\Community\VC\Tools\MSVC\14.27.29110\include\xmemory

; 803  :         _Deallocate<_New_alignof<_Ty>>(_Ptr, sizeof(_Ty) * _Count);

  000ab	50		 push	 eax
  000ac	ff 36		 push	 DWORD PTR [esi]
  000ae	e8 00 00 00 00	 call	 ??$_Deallocate@$07$0A@@std@@YAXPAXI@Z ; std::_Deallocate<8,0>
; File C:\Program Files (x86)\Microsoft Visual Studio\2019\Community\VC\Tools\MSVC\14.27.29110\include\xstring

; 2981 :     }

  000b3	83 c4 08	 add	 esp, 8

; 4235 :             _Mypair._Myval2._Bx._Ptr = _New_ptr;

  000b6	89 1e		 mov	 DWORD PTR [esi], ebx

; 2981 :     }

  000b8	8b c6		 mov	 eax, esi
  000ba	5f		 pop	 edi
  000bb	5e		 pop	 esi
  000bc	5b		 pop	 ebx
  000bd	8b e5		 mov	 esp, ebp
  000bf	5d		 pop	 ebp
  000c0	c2 08 00	 ret	 8
$LN13@assign:

; 4237 :             _Construct_in_place(_Mypair._Myval2._Bx._Ptr, _New_ptr);

  000c3	8d 45 0c	 lea	 eax, DWORD PTR __New_ptr$1[ebp]
  000c6	50		 push	 eax
  000c7	56		 push	 esi
  000c8	e8 00 00 00 00	 call	 ??$_Construct_in_place@PADABQAD@std@@YAXAAPADABQAD@Z ; std::_Construct_in_place<char *,char * const &>

; 2981 :     }

  000cd	83 c4 08	 add	 esp, 8
  000d0	8b c6		 mov	 eax, esi
  000d2	5f		 pop	 edi
  000d3	5e		 pop	 esi
  000d4	5b		 pop	 ebx
  000d5	8b e5		 mov	 esp, ebp
  000d7	5d		 pop	 ebp
  000d8	c2 08 00	 ret	 8
$LN36@assign:

; 4222 :             _Xlen_string(); // result too long

  000db	e8 00 00 00 00	 call	 ?_Xlen_string@std@@YAXXZ ; std::_Xlen_string
$LN33@assign:
  000e0	cc		 int	 3
?assign@?$basic_string@DU?$char_traits@D@std@@V?$allocator@D@2@@std@@QAEAAV12@QBDI@Z ENDP ; std::basic_string<char,std::char_traits<char>,std::allocator<char> >::assign
_TEXT	ENDS
; Function compile flags: /Ogtp
; File C:\Program Files (x86)\Microsoft Visual Studio\2019\Community\VC\Tools\MSVC\14.27.29110\include\xstring
; File C:\Program Files (x86)\Microsoft Visual Studio\2019\Community\VC\Tools\MSVC\14.27.29110\include\utility
; File C:\Program Files (x86)\Microsoft Visual Studio\2019\Community\VC\Tools\MSVC\14.27.29110\include\xstring
; File C:\Program Files (x86)\Microsoft Visual Studio\2019\Community\VC\Tools\MSVC\14.27.29110\include\xmemory
; File C:\Program Files (x86)\Microsoft Visual Studio\2019\Community\VC\Tools\MSVC\14.27.29110\include\xstring
; File C:\Program Files (x86)\Microsoft Visual Studio\2019\Community\VC\Tools\MSVC\14.27.29110\include\xmemory
; File C:\Program Files (x86)\Microsoft Visual Studio\2019\Community\VC\Tools\MSVC\14.27.29110\include\xstring
; File C:\Program Files (x86)\Microsoft Visual Studio\2019\Community\VC\Tools\MSVC\14.27.29110\include\xmemory
; File C:\Program Files (x86)\Microsoft Visual Studio\2019\Community\VC\Tools\MSVC\14.27.29110\include\xstring
;	COMDAT ?append@?$basic_string@DU?$char_traits@D@std@@V?$allocator@D@2@@std@@QAEAAV12@QBDI@Z
_TEXT	SEGMENT
__Old_size$1$ = -16					; size = 4
__New_ptr$1 = -12					; size = 4
tv448 = -8						; size = 4
__Old$1$ = -4						; size = 4
__Ptr$ = 8						; size = 4
tv452 = 12						; size = 4
tv449 = 12						; size = 4
$T2 = 12						; size = 4
__Count$ = 12						; size = 4
?append@?$basic_string@DU?$char_traits@D@std@@V?$allocator@D@2@@std@@QAEAAV12@QBDI@Z PROC ; std::basic_string<char,std::char_traits<char>,std::allocator<char> >::append, COMDAT
; _this$ = ecx

; 2857 :     basic_string& append(_In_reads_(_Count) const _Elem* const _Ptr, _CRT_GUARDOVERFLOW const size_type _Count) {

  00000	55		 push	 ebp
  00001	8b ec		 mov	 ebp, esp
  00003	83 ec 10	 sub	 esp, 16			; 00000010H
  00006	53		 push	 ebx

; 2858 :         // append [_Ptr, _Ptr + _Count)
; 2859 :         const size_type _Old_size = _Mypair._Myval2._Mysize;
; 2860 :         if (_Count <= _Mypair._Myval2._Myres - _Old_size) {

  00007	8b 5d 0c	 mov	 ebx, DWORD PTR __Count$[ebp]
  0000a	56		 push	 esi
  0000b	57		 push	 edi
  0000c	8b f9		 mov	 edi, ecx
  0000e	8b 57 14	 mov	 edx, DWORD PTR [edi+20]
  00011	8b c2		 mov	 eax, edx
  00013	8b 77 10	 mov	 esi, DWORD PTR [edi+16]
  00016	2b c6		 sub	 eax, esi
  00018	89 75 f0	 mov	 DWORD PTR __Old_size$1$[ebp], esi
  0001b	89 55 fc	 mov	 DWORD PTR __Old$1$[ebp], edx
  0001e	3b d8		 cmp	 ebx, eax
  00020	77 2d		 ja	 SHORT $LN2@append

; 2861 :             _Mypair._Myval2._Mysize = _Old_size + _Count;

  00022	8d 04 1e	 lea	 eax, DWORD PTR [esi+ebx]
  00025	89 47 10	 mov	 DWORD PTR [edi+16], eax

; 2135 :         value_type* _Result = _Bx._Buf;

  00028	8b c7		 mov	 eax, edi

; 2153 :         return _BUF_SIZE <= _Myres;

  0002a	83 fa 10	 cmp	 edx, 16			; 00000010H

; 2136 :         if (_Large_string_engaged()) {

  0002d	72 02		 jb	 SHORT $LN5@append

; 2137 :             _Result = _Unfancy(_Bx._Ptr);

  0002f	8b 07		 mov	 eax, DWORD PTR [edi]
$LN5@append:

; 363  :         return static_cast<_Elem*>(_CSTD memmove(_First1, _First2, _Count));

  00031	53		 push	 ebx
  00032	ff 75 08	 push	 DWORD PTR __Ptr$[ebp]

; 2862 :             _Elem* const _Old_ptr   = _Mypair._Myval2._Myptr();
; 2863 :             _Traits::move(_Old_ptr + _Old_size, _Ptr, _Count);

  00035	03 f0		 add	 esi, eax

; 363  :         return static_cast<_Elem*>(_CSTD memmove(_First1, _First2, _Count));

  00037	56		 push	 esi
  00038	e8 00 00 00 00	 call	 _memmove
  0003d	83 c4 0c	 add	 esp, 12			; 0000000cH

; 2864 :             _Traits::assign(_Old_ptr[_Old_size + _Count], _Elem());

  00040	c6 04 1e 00	 mov	 BYTE PTR [esi+ebx], 0

; 2875 :             },
; 2876 :             _Ptr, _Count);
; 2877 :     }

  00044	8b c7		 mov	 eax, edi
  00046	5f		 pop	 edi
  00047	5e		 pop	 esi
  00048	5b		 pop	 ebx
  00049	8b e5		 mov	 esp, ebp
  0004b	5d		 pop	 ebp
  0004c	c2 08 00	 ret	 8
$LN2@append:

; 4249 :         if (max_size() - _Old_size < _Size_increase) {

  0004f	b8 ff ff ff 7f	 mov	 eax, 2147483647		; 7fffffffH
  00054	2b c6		 sub	 eax, esi
  00056	3b c3		 cmp	 eax, ebx
  00058	0f 82 d6 00 00
	00		 jb	 $LN45@append

; 4251 :         }
; 4252 : 
; 4253 :         const size_type _New_size     = _Old_size + _Size_increase;

  0005e	8d 0c 1e	 lea	 ecx, DWORD PTR [esi+ebx]

; 4201 :         const size_type _Masked = _Requested | _ALLOC_MASK;

  00061	83 c9 0f	 or	 ecx, 15			; 0000000fH
  00064	81 f9 ff ff ff
	7f		 cmp	 ecx, 2147483647		; 7fffffffH

; 4202 :         if (_Masked > _Max) { // the mask overflows, settle for max_size()

  0006a	76 07		 jbe	 SHORT $LN19@append

; 4203 :             return _Max;

  0006c	b9 ff ff ff 7f	 mov	 ecx, 2147483647		; 7fffffffH
  00071	eb 24		 jmp	 SHORT $LN42@append
$LN19@append:

; 4204 :         }
; 4205 : 
; 4206 :         if (_Old > _Max - _Old / 2) { // similarly, geometric overflows

  00073	8b c2		 mov	 eax, edx
  00075	d1 e8		 shr	 eax, 1
  00077	89 45 0c	 mov	 DWORD PTR tv452[ebp], eax
  0007a	b8 ff ff ff 7f	 mov	 eax, 2147483647		; 7fffffffH
  0007f	2b 45 0c	 sub	 eax, DWORD PTR tv452[ebp]
  00082	3b d0		 cmp	 edx, eax
  00084	76 07		 jbe	 SHORT $LN20@append

; 4207 :             return _Max;

  00086	b9 ff ff ff 7f	 mov	 ecx, 2147483647		; 7fffffffH
  0008b	eb 0a		 jmp	 SHORT $LN42@append
$LN20@append:

; 4208 :         }
; 4209 : 
; 4210 :         return (_STD max)(_Masked, _Old + _Old / 2);

  0008d	8b 45 0c	 mov	 eax, DWORD PTR tv452[ebp]
  00090	03 c2		 add	 eax, edx
; File C:\Program Files (x86)\Microsoft Visual Studio\2019\Community\VC\Tools\MSVC\14.27.29110\include\utility

; 44   :     return _Left < _Right ? _Right : _Left;

  00092	3b c8		 cmp	 ecx, eax
  00094	0f 42 c8	 cmovb	 ecx, eax
$LN42@append:
; File C:\Program Files (x86)\Microsoft Visual Studio\2019\Community\VC\Tools\MSVC\14.27.29110\include\xstring

; 4257 :         const pointer _New_ptr        = _Al.allocate(_New_capacity + 1); // throws

  00097	8d 41 01	 lea	 eax, DWORD PTR [ecx+1]
  0009a	89 4d 0c	 mov	 DWORD PTR $T2[ebp], ecx
; File C:\Program Files (x86)\Microsoft Visual Studio\2019\Community\VC\Tools\MSVC\14.27.29110\include\xmemory

; 807  :         return static_cast<_Ty*>(_Allocate<_New_alignof<_Ty>>(_Get_size_of_n<sizeof(_Ty)>(_Count)));

  0009d	50		 push	 eax
  0009e	e8 00 00 00 00	 call	 ??$_Allocate@$07U_Default_allocate_traits@std@@$0A@@std@@YAPAXI@Z ; std::_Allocate<8,std::_Default_allocate_traits,0>
; File C:\Program Files (x86)\Microsoft Visual Studio\2019\Community\VC\Tools\MSVC\14.27.29110\include\xstring

; 4259 :         _My_data._Mysize      = _New_size;

  000a3	8d 0c 1e	 lea	 ecx, DWORD PTR [esi+ebx]
  000a6	89 45 f4	 mov	 DWORD PTR __New_ptr$1[ebp], eax
  000a9	89 4f 10	 mov	 DWORD PTR [edi+16], ecx
; File C:\Program Files (x86)\Microsoft Visual Studio\2019\Community\VC\Tools\MSVC\14.27.29110\include\xmemory

; 807  :         return static_cast<_Ty*>(_Allocate<_New_alignof<_Ty>>(_Get_size_of_n<sizeof(_Ty)>(_Count)));

  000ac	83 c4 04	 add	 esp, 4
; File C:\Program Files (x86)\Microsoft Visual Studio\2019\Community\VC\Tools\MSVC\14.27.29110\include\xstring

; 4260 :         _My_data._Myres       = _New_capacity;

  000af	8b 4d 0c	 mov	 ecx, DWORD PTR $T2[ebp]
  000b2	89 4f 14	 mov	 DWORD PTR [edi+20], ecx

; 4261 :         _Elem* const _Raw_new = _Unfancy(_New_ptr);

  000b5	8d 0c 30	 lea	 ecx, DWORD PTR [eax+esi]
  000b8	89 4d 0c	 mov	 DWORD PTR tv449[ebp], ecx
  000bb	03 cb		 add	 ecx, ebx

; 4262 :         if (_BUF_SIZE <= _Old_capacity) {

  000bd	83 7d fc 10	 cmp	 DWORD PTR __Old$1$[ebp], 16 ; 00000010H
  000c1	89 4d f8	 mov	 DWORD PTR tv448[ebp], ecx
  000c4	72 3c		 jb	 SHORT $LN13@append

; 328  :         return static_cast<_Elem*>(_CSTD memcpy(_First1, _First2, _Count));

  000c6	ff 75 f0	 push	 DWORD PTR __Old_size$1$[ebp]

; 4263 :             const pointer _Old_ptr = _My_data._Bx._Ptr;

  000c9	8b 37		 mov	 esi, DWORD PTR [edi]

; 328  :         return static_cast<_Elem*>(_CSTD memcpy(_First1, _First2, _Count));

  000cb	56		 push	 esi
  000cc	50		 push	 eax
  000cd	e8 00 00 00 00	 call	 _memcpy
  000d2	53		 push	 ebx
  000d3	ff 75 08	 push	 DWORD PTR __Ptr$[ebp]
  000d6	ff 75 0c	 push	 DWORD PTR tv449[ebp]
  000d9	e8 00 00 00 00	 call	 _memcpy

; 2874 :                 _Traits::assign(_New_ptr[_Old_size + _Count], _Elem());

  000de	8b 45 f8	 mov	 eax, DWORD PTR tv448[ebp]
  000e1	c6 00 00	 mov	 BYTE PTR [eax], 0

; 4265 :             _Al.deallocate(_Old_ptr, _Old_capacity + 1);

  000e4	8b 45 fc	 mov	 eax, DWORD PTR __Old$1$[ebp]
  000e7	40		 inc	 eax
; File C:\Program Files (x86)\Microsoft Visual Studio\2019\Community\VC\Tools\MSVC\14.27.29110\include\xmemory

; 803  :         _Deallocate<_New_alignof<_Ty>>(_Ptr, sizeof(_Ty) * _Count);

  000e8	50		 push	 eax
  000e9	56		 push	 esi
  000ea	e8 00 00 00 00	 call	 ??$_Deallocate@$07$0A@@std@@YAXPAXI@Z ; std::_Deallocate<8,0>
; File C:\Program Files (x86)\Microsoft Visual Studio\2019\Community\VC\Tools\MSVC\14.27.29110\include\xstring

; 4266 :             _My_data._Bx._Ptr = _New_ptr;

  000ef	8b 45 f4	 mov	 eax, DWORD PTR __New_ptr$1[ebp]

; 2875 :             },
; 2876 :             _Ptr, _Count);
; 2877 :     }

  000f2	83 c4 20	 add	 esp, 32			; 00000020H

; 4266 :             _My_data._Bx._Ptr = _New_ptr;

  000f5	89 07		 mov	 DWORD PTR [edi], eax

; 2875 :             },
; 2876 :             _Ptr, _Count);
; 2877 :     }

  000f7	8b c7		 mov	 eax, edi
  000f9	5f		 pop	 edi
  000fa	5e		 pop	 esi
  000fb	5b		 pop	 ebx
  000fc	8b e5		 mov	 esp, ebp
  000fe	5d		 pop	 ebp
  000ff	c2 08 00	 ret	 8
$LN13@append:

; 328  :         return static_cast<_Elem*>(_CSTD memcpy(_First1, _First2, _Count));

  00102	56		 push	 esi
  00103	57		 push	 edi
  00104	50		 push	 eax
  00105	e8 00 00 00 00	 call	 _memcpy
  0010a	53		 push	 ebx
  0010b	ff 75 08	 push	 DWORD PTR __Ptr$[ebp]
  0010e	ff 75 0c	 push	 DWORD PTR tv449[ebp]
  00111	e8 00 00 00 00	 call	 _memcpy

; 2874 :                 _Traits::assign(_New_ptr[_Old_size + _Count], _Elem());

  00116	8b 45 f8	 mov	 eax, DWORD PTR tv448[ebp]
  00119	c6 00 00	 mov	 BYTE PTR [eax], 0

; 4269 :             _Construct_in_place(_My_data._Bx._Ptr, _New_ptr);

  0011c	8d 45 f4	 lea	 eax, DWORD PTR __New_ptr$1[ebp]
  0011f	50		 push	 eax
  00120	57		 push	 edi
  00121	e8 00 00 00 00	 call	 ??$_Construct_in_place@PADABQAD@std@@YAXAAPADABQAD@Z ; std::_Construct_in_place<char *,char * const &>

; 2875 :             },
; 2876 :             _Ptr, _Count);
; 2877 :     }

  00126	83 c4 20	 add	 esp, 32			; 00000020H
  00129	8b c7		 mov	 eax, edi
  0012b	5f		 pop	 edi
  0012c	5e		 pop	 esi
  0012d	5b		 pop	 ebx
  0012e	8b e5		 mov	 esp, ebp
  00130	5d		 pop	 ebp
  00131	c2 08 00	 ret	 8
$LN45@append:

; 4250 :             _Xlen_string(); // result too long

  00134	e8 00 00 00 00	 call	 ?_Xlen_string@std@@YAXXZ ; std::_Xlen_string
$LN41@append:
  00139	cc		 int	 3
?append@?$basic_string@DU?$char_traits@D@std@@V?$allocator@D@2@@std@@QAEAAV12@QBDI@Z ENDP ; std::basic_string<char,std::char_traits<char>,std::allocator<char> >::append
_TEXT	ENDS
; Function compile flags: /Ogtp
; File C:\Program Files (x86)\Microsoft Visual Studio\2019\Community\VC\Tools\MSVC\14.27.29110\include\xstring
; File C:\Program Files (x86)\Microsoft Visual Studio\2019\Community\VC\Tools\MSVC\14.27.29110\include\xmemory
; File C:\Program Files (x86)\Microsoft Visual Studio\2019\Community\VC\Tools\MSVC\14.27.29110\include\xstring
;	COMDAT ??1?$basic_string@DU?$char_traits@D@std@@V?$allocator@D@2@@std@@QAE@XZ
_TEXT	SEGMENT
??1?$basic_string@DU?$char_traits@D@std@@V?$allocator@D@2@@std@@QAE@XZ PROC ; std::basic_string<char,std::char_traits<char>,std::allocator<char> >::~basic_string<char,std::char_traits<char>,std::allocator<char> >, COMDAT
; _this$ = ecx

; 2722 :     ~basic_string() noexcept {

  00000	56		 push	 esi
  00001	8b f1		 mov	 esi, ecx

; 2153 :         return _BUF_SIZE <= _Myres;

  00003	8b 46 14	 mov	 eax, DWORD PTR [esi+20]
  00006	83 f8 10	 cmp	 eax, 16			; 00000010H

; 4301 :         if (_Mypair._Myval2._Large_string_engaged()) {

  00009	72 0c		 jb	 SHORT $LN4@basic_stri

; 4302 :             const pointer _Ptr = _Mypair._Myval2._Bx._Ptr;
; 4303 :             auto& _Al          = _Getal();
; 4304 :             _Destroy_in_place(_Mypair._Myval2._Bx._Ptr);
; 4305 :             _Al.deallocate(_Ptr, _Mypair._Myval2._Myres + 1);

  0000b	40		 inc	 eax
; File C:\Program Files (x86)\Microsoft Visual Studio\2019\Community\VC\Tools\MSVC\14.27.29110\include\xmemory

; 803  :         _Deallocate<_New_alignof<_Ty>>(_Ptr, sizeof(_Ty) * _Count);

  0000c	50		 push	 eax
  0000d	ff 36		 push	 DWORD PTR [esi]
  0000f	e8 00 00 00 00	 call	 ??$_Deallocate@$07$0A@@std@@YAXPAXI@Z ; std::_Deallocate<8,0>
  00014	83 c4 08	 add	 esp, 8
$LN4@basic_stri:
; File C:\Program Files (x86)\Microsoft Visual Studio\2019\Community\VC\Tools\MSVC\14.27.29110\include\xstring

; 4308 :         _Mypair._Myval2._Mysize = 0;

  00017	c7 46 10 00 00
	00 00		 mov	 DWORD PTR [esi+16], 0

; 4309 :         _Mypair._Myval2._Myres  = _BUF_SIZE - 1;

  0001e	c7 46 14 0f 00
	00 00		 mov	 DWORD PTR [esi+20], 15	; 0000000fH

; 4310 :         // the _Traits::assign is last so the codegen doesn't think the char write can alias this
; 4311 :         _Traits::assign(_Mypair._Myval2._Bx._Buf[0], _Elem());

  00025	c6 06 00	 mov	 BYTE PTR [esi], 0
  00028	5e		 pop	 esi

; 2723 :         _Tidy_deallocate();
; 2724 : #if _ITERATOR_DEBUG_LEVEL != 0
; 2725 :         auto&& _Alproxy          = _GET_PROXY_ALLOCATOR(_Alty, _Getal());
; 2726 :         const auto _To_delete    = _Mypair._Myval2._Myproxy;
; 2727 :         _Mypair._Myval2._Myproxy = nullptr;
; 2728 :         _Delete_plain_internal(_Alproxy, _To_delete);
; 2729 : #endif // _ITERATOR_DEBUG_LEVEL != 0
; 2730 :     }

  00029	c3		 ret	 0
??1?$basic_string@DU?$char_traits@D@std@@V?$allocator@D@2@@std@@QAE@XZ ENDP ; std::basic_string<char,std::char_traits<char>,std::allocator<char> >::~basic_string<char,std::char_traits<char>,std::allocator<char> >
_TEXT	ENDS
; Function compile flags: /Ogtp
; File C:\Program Files (x86)\Microsoft Visual Studio\2019\Community\VC\Tools\MSVC\14.27.29110\include\xstring
; File C:\Program Files (x86)\Microsoft Visual Studio\2019\Community\VC\Tools\MSVC\14.27.29110\include\utility
; File C:\Program Files (x86)\Microsoft Visual Studio\2019\Community\VC\Tools\MSVC\14.27.29110\include\xstring
; File C:\Program Files (x86)\Microsoft Visual Studio\2019\Community\VC\Tools\MSVC\14.27.29110\include\xmemory
; File C:\Program Files (x86)\Microsoft Visual Studio\2019\Community\VC\Tools\MSVC\14.27.29110\include\xstring
;	COMDAT ??0?$basic_string@DU?$char_traits@D@std@@V?$allocator@D@2@@std@@QAE@U_String_constructor_concat_tag@1@AAV01@1@Z
_TEXT	SEGMENT
__Right_size$1$ = -12					; size = 4
__Fancyptr$ = -8					; size = 4
__Left_size$1$ = -4					; size = 4
___formal$ = 8						; size = 1
__New_size$1$ = 12					; size = 4
__Left$ = 12						; size = 4
__New_capacity$1$ = 16					; size = 4
__Right$ = 16						; size = 4
??0?$basic_string@DU?$char_traits@D@std@@V?$allocator@D@2@@std@@QAE@U_String_constructor_concat_tag@1@AAV01@1@Z PROC ; std::basic_string<char,std::char_traits<char>,std::allocator<char> >::basic_string<char,std::char_traits<char>,std::allocator<char> >, COMDAT
; _this$ = ecx

; 2469 :         : _Mypair(_One_then_variadic_args_t{}, _Left._Getal()) {

  00000	55		 push	 ebp
  00001	8b ec		 mov	 ebp, esp
  00003	83 ec 0c	 sub	 esp, 12			; 0000000cH
  00006	53		 push	 ebx
  00007	56		 push	 esi

; 2470 :         auto& _My_data    = _Mypair._Myval2;
; 2471 :         auto& _Left_data  = _Left._Mypair._Myval2;
; 2472 :         auto& _Right_data = _Right._Mypair._Myval2;
; 2473 :         _Left_data._Orphan_all();
; 2474 :         _Right_data._Orphan_all();
; 2475 :         const auto _Left_size  = _Left_data._Mysize;

  00008	8b 75 0c	 mov	 esi, DWORD PTR __Left$[ebp]
  0000b	8b d9		 mov	 ebx, ecx
  0000d	57		 push	 edi

; 2476 :         const auto _Right_size = _Right_data._Mysize;

  0000e	8b 7d 10	 mov	 edi, DWORD PTR __Right$[ebp]

; 2124 :     _String_val() : _Bx(), _Mysize(0), _Myres(0) {}

  00011	c7 43 10 00 00
	00 00		 mov	 DWORD PTR [ebx+16], 0
  00018	c7 43 14 00 00
	00 00		 mov	 DWORD PTR [ebx+20], 0

; 2470 :         auto& _My_data    = _Mypair._Myval2;
; 2471 :         auto& _Left_data  = _Left._Mypair._Myval2;
; 2472 :         auto& _Right_data = _Right._Mypair._Myval2;
; 2473 :         _Left_data._Orphan_all();
; 2474 :         _Right_data._Orphan_all();
; 2475 :         const auto _Left_size  = _Left_data._Mysize;

  0001f	8b 4e 10	 mov	 ecx, DWORD PTR [esi+16]

; 2476 :         const auto _Right_size = _Right_data._Mysize;

  00022	8b 57 10	 mov	 edx, DWORD PTR [edi+16]
  00025	89 4d fc	 mov	 DWORD PTR __Left_size$1$[ebp], ecx
  00028	89 55 f4	 mov	 DWORD PTR __Right_size$1$[ebp], edx

; 2477 : 
; 2478 :         const auto _Left_capacity  = _Left_data._Myres;
; 2479 :         const auto _Right_capacity = _Right_data._Myres;
; 2480 :         // overflow is OK due to max_size() checks:
; 2481 :         const auto _New_size     = static_cast<size_type>(_Left_size + _Right_size);

  0002b	8d 04 0a	 lea	 eax, DWORD PTR [edx+ecx]
  0002e	89 45 0c	 mov	 DWORD PTR __New_size$1$[ebp], eax

; 2482 :         const bool _Fits_in_left = _Right_size <= _Left_capacity - _Left_size;

  00031	8b 46 14	 mov	 eax, DWORD PTR [esi+20]
  00034	2b c1		 sub	 eax, ecx
  00036	3b d0		 cmp	 edx, eax

; 2483 :         if (_Fits_in_left && _Right_capacity <= _Left_capacity) {

  00038	8b 47 14	 mov	 eax, DWORD PTR [edi+20]
  0003b	77 5a		 ja	 SHORT $LN2@basic_stri
  0003d	3b 46 14	 cmp	 eax, DWORD PTR [esi+20]
  00040	77 55		 ja	 SHORT $LN2@basic_stri

; 2606 :         _CSTD memcpy(_My_data_mem, _Right_data_mem, _Memcpy_val_size);

  00042	0f 10 06	 movups	 xmm0, XMMWORD PTR [esi]
  00045	0f 11 03	 movups	 XMMWORD PTR [ebx], xmm0
  00048	f3 0f 7e 46 10	 movq	 xmm0, QWORD PTR [esi+16]
  0004d	66 0f d6 43 10	 movq	 QWORD PTR [ebx+16], xmm0

; 4293 :         _Mypair._Myval2._Mysize = 0;

  00052	c7 46 10 00 00
	00 00		 mov	 DWORD PTR [esi+16], 0

; 4294 :         _Mypair._Myval2._Myres  = _BUF_SIZE - 1;

  00059	c7 46 14 0f 00
	00 00		 mov	 DWORD PTR [esi+20], 15	; 0000000fH

; 4295 :         // the _Traits::assign is last so the codegen doesn't think the char write can alias this
; 4296 :         _Traits::assign(_Mypair._Myval2._Bx._Buf[0], _Elem());

  00060	c6 06 00	 mov	 BYTE PTR [esi], 0

; 2135 :         value_type* _Result = _Bx._Buf;

  00063	8b f3		 mov	 esi, ebx

; 2153 :         return _BUF_SIZE <= _Myres;

  00065	83 7b 14 10	 cmp	 DWORD PTR [ebx+20], 16	; 00000010H

; 2136 :         if (_Large_string_engaged()) {

  00069	72 02		 jb	 SHORT $LN17@basic_stri

; 2137 :             _Result = _Unfancy(_Bx._Ptr);

  0006b	8b 33		 mov	 esi, DWORD PTR [ebx]
$LN17@basic_stri:

; 2153 :         return _BUF_SIZE <= _Myres;

  0006d	83 7f 14 10	 cmp	 DWORD PTR [edi+20], 16	; 00000010H

; 2136 :         if (_Large_string_engaged()) {

  00071	72 02		 jb	 SHORT $LN22@basic_stri

; 2137 :             _Result = _Unfancy(_Bx._Ptr);

  00073	8b 3f		 mov	 edi, DWORD PTR [edi]
$LN22@basic_stri:

; 2484 :             // take _Left's buffer, max_size() is OK because _Fits_in_left
; 2485 :             _My_data._Alloc_proxy(_GET_PROXY_ALLOCATOR(_Alty, _Getal())); // throws, hereafter nothrow in this block
; 2486 :             _Take_contents(_Left, bool_constant<_Can_memcpy_val>{});
; 2487 :             const auto _Ptr = _My_data._Myptr();
; 2488 :             _Traits::copy(_Ptr + _Left_size, _Right_data._Myptr(), _Right_size + 1);

  00075	8d 42 01	 lea	 eax, DWORD PTR [edx+1]

; 328  :         return static_cast<_Elem*>(_CSTD memcpy(_First1, _First2, _Count));

  00078	50		 push	 eax

; 2484 :             // take _Left's buffer, max_size() is OK because _Fits_in_left
; 2485 :             _My_data._Alloc_proxy(_GET_PROXY_ALLOCATOR(_Alty, _Getal())); // throws, hereafter nothrow in this block
; 2486 :             _Take_contents(_Left, bool_constant<_Can_memcpy_val>{});
; 2487 :             const auto _Ptr = _My_data._Myptr();
; 2488 :             _Traits::copy(_Ptr + _Left_size, _Right_data._Myptr(), _Right_size + 1);

  00079	8d 04 0e	 lea	 eax, DWORD PTR [esi+ecx]

; 328  :         return static_cast<_Elem*>(_CSTD memcpy(_First1, _First2, _Count));

  0007c	57		 push	 edi
  0007d	50		 push	 eax
  0007e	e8 00 00 00 00	 call	 _memcpy

; 2489 :             _My_data._Mysize = _New_size;

  00083	8b 45 0c	 mov	 eax, DWORD PTR __New_size$1$[ebp]

; 2531 :         _Proxy._Release();
; 2532 :     }

  00086	83 c4 0c	 add	 esp, 12			; 0000000cH
  00089	89 43 10	 mov	 DWORD PTR [ebx+16], eax
  0008c	8b c3		 mov	 eax, ebx
  0008e	5f		 pop	 edi
  0008f	5e		 pop	 esi
  00090	5b		 pop	 ebx
  00091	8b e5		 mov	 esp, ebp
  00093	5d		 pop	 ebp
  00094	c2 0c 00	 ret	 12			; 0000000cH
$LN2@basic_stri:

; 2490 :             return;
; 2491 :         }
; 2492 : 
; 2493 :         const bool _Fits_in_right = _Left_size <= _Right_capacity - _Right_size;

  00097	2b c2		 sub	 eax, edx
  00099	3b c8		 cmp	 ecx, eax

; 2494 :         if (_Allocators_equal(_Getal(), _Right._Getal()) && _Fits_in_right) {

  0009b	77 5a		 ja	 SHORT $LN3@basic_stri

; 2606 :         _CSTD memcpy(_My_data_mem, _Right_data_mem, _Memcpy_val_size);

  0009d	0f 10 07	 movups	 xmm0, XMMWORD PTR [edi]

; 2508 :             _Traits::move(_Ptr + _Left_size, _Ptr, _Right_size + 1);

  000a0	8d 42 01	 lea	 eax, DWORD PTR [edx+1]

; 363  :         return static_cast<_Elem*>(_CSTD memmove(_First1, _First2, _Count));

  000a3	50		 push	 eax

; 2606 :         _CSTD memcpy(_My_data_mem, _Right_data_mem, _Memcpy_val_size);

  000a4	0f 11 03	 movups	 XMMWORD PTR [ebx], xmm0
  000a7	f3 0f 7e 47 10	 movq	 xmm0, QWORD PTR [edi+16]
  000ac	66 0f d6 43 10	 movq	 QWORD PTR [ebx+16], xmm0

; 4293 :         _Mypair._Myval2._Mysize = 0;

  000b1	c7 47 10 00 00
	00 00		 mov	 DWORD PTR [edi+16], 0

; 4294 :         _Mypair._Myval2._Myres  = _BUF_SIZE - 1;

  000b8	c7 47 14 0f 00
	00 00		 mov	 DWORD PTR [edi+20], 15	; 0000000fH

; 4295 :         // the _Traits::assign is last so the codegen doesn't think the char write can alias this
; 4296 :         _Traits::assign(_Mypair._Myval2._Bx._Buf[0], _Elem());

  000bf	c6 07 00	 mov	 BYTE PTR [edi], 0

; 2495 :             // take _Right's buffer, max_size() is OK because _Fits_in_right
; 2496 :             // At this point, we have tested:
; 2497 :             // !(_Fits_in_left && _Right_capacity <= _Left_capacity) && _Fits_in_right
; 2498 :             // therefore: (by De Morgan's Laws)
; 2499 :             // (!_Fits_in_left || _Right_capacity > _Left_capacity) && _Fits_in_right
; 2500 :             // therefore: (by the distributive property)
; 2501 :             // (!_Fits_in_left && _Fits_in_right)  // implying _Right has more capacity
; 2502 :             //     || (_Right_capacity > _Left_capacity && _Fits_in_right)  // tests that _Right has more capacity
; 2503 :             // therefore: _Right must have more than the minimum capacity, so it must be _Large_string_engaged()
; 2504 :             _STL_INTERNAL_CHECK(_Right_data._Large_string_engaged());
; 2505 :             _My_data._Alloc_proxy(_GET_PROXY_ALLOCATOR(_Alty, _Getal())); // throws, hereafter nothrow in this block
; 2506 :             _Take_contents(_Right, bool_constant<_Can_memcpy_val>{});
; 2507 :             const auto _Ptr = _Unfancy(_My_data._Bx._Ptr);

  000c2	8b 3b		 mov	 edi, DWORD PTR [ebx]

; 363  :         return static_cast<_Elem*>(_CSTD memmove(_First1, _First2, _Count));

  000c4	57		 push	 edi

; 2508 :             _Traits::move(_Ptr + _Left_size, _Ptr, _Right_size + 1);

  000c5	8d 04 0f	 lea	 eax, DWORD PTR [edi+ecx]

; 363  :         return static_cast<_Elem*>(_CSTD memmove(_First1, _First2, _Count));

  000c8	50		 push	 eax
  000c9	e8 00 00 00 00	 call	 _memmove
  000ce	83 c4 0c	 add	 esp, 12			; 0000000cH

; 2153 :         return _BUF_SIZE <= _Myres;

  000d1	83 7e 14 10	 cmp	 DWORD PTR [esi+20], 16	; 00000010H

; 2136 :         if (_Large_string_engaged()) {

  000d5	72 02		 jb	 SHORT $LN37@basic_stri

; 2137 :             _Result = _Unfancy(_Bx._Ptr);

  000d7	8b 36		 mov	 esi, DWORD PTR [esi]
$LN37@basic_stri:

; 328  :         return static_cast<_Elem*>(_CSTD memcpy(_First1, _First2, _Count));

  000d9	ff 75 fc	 push	 DWORD PTR __Left_size$1$[ebp]
  000dc	56		 push	 esi
  000dd	57		 push	 edi
  000de	e8 00 00 00 00	 call	 _memcpy

; 2509 :             _Traits::copy(_Ptr, _Left_data._Myptr(), _Left_size);
; 2510 :             _My_data._Mysize = _New_size;

  000e3	8b 45 0c	 mov	 eax, DWORD PTR __New_size$1$[ebp]

; 2531 :         _Proxy._Release();
; 2532 :     }

  000e6	83 c4 0c	 add	 esp, 12			; 0000000cH
  000e9	89 43 10	 mov	 DWORD PTR [ebx+16], eax
  000ec	8b c3		 mov	 eax, ebx
  000ee	5f		 pop	 edi
  000ef	5e		 pop	 esi
  000f0	5b		 pop	 ebx
  000f1	8b e5		 mov	 esp, ebp
  000f3	5d		 pop	 ebp
  000f4	c2 0c 00	 ret	 12			; 0000000cH
$LN3@basic_stri:

; 2511 :             return;
; 2512 :         }
; 2513 : 
; 2514 :         // can't use either buffer, reallocate
; 2515 :         const auto _Max = max_size();
; 2516 :         if (_Max - _Left_size < _Right_size) { // check if max_size() is OK

  000f7	b8 ff ff ff 7f	 mov	 eax, 2147483647		; 7fffffffH
  000fc	2b c1		 sub	 eax, ecx
  000fe	3b c2		 cmp	 eax, edx
  00100	0f 82 83 00 00
	00		 jb	 $LN70@basic_stri

; 4201 :         const size_type _Masked = _Requested | _ALLOC_MASK;

  00106	8b 45 0c	 mov	 eax, DWORD PTR __New_size$1$[ebp]
  00109	83 c8 0f	 or	 eax, 15			; 0000000fH
  0010c	3d ff ff ff 7f	 cmp	 eax, 2147483647		; 7fffffffH

; 4202 :         if (_Masked > _Max) { // the mask overflows, settle for max_size()

  00111	76 07		 jbe	 SHORT $LN44@basic_stri

; 4203 :             return _Max;

  00113	b8 ff ff ff 7f	 mov	 eax, 2147483647		; 7fffffffH
  00118	eb 0a		 jmp	 SHORT $LN68@basic_stri
$LN44@basic_stri:
; File C:\Program Files (x86)\Microsoft Visual Studio\2019\Community\VC\Tools\MSVC\14.27.29110\include\utility

; 44   :     return _Left < _Right ? _Right : _Left;

  0011a	b9 16 00 00 00	 mov	 ecx, 22			; 00000016H
  0011f	3b c1		 cmp	 eax, ecx
  00121	0f 42 c1	 cmovb	 eax, ecx
$LN68@basic_stri:
; File C:\Program Files (x86)\Microsoft Visual Studio\2019\Community\VC\Tools\MSVC\14.27.29110\include\xstring

; 2523 :         const pointer _Fancyptr = _Getal().allocate(_New_capacity + 1); // throws

  00124	89 45 10	 mov	 DWORD PTR __New_capacity$1$[ebp], eax
  00127	40		 inc	 eax
; File C:\Program Files (x86)\Microsoft Visual Studio\2019\Community\VC\Tools\MSVC\14.27.29110\include\xmemory

; 807  :         return static_cast<_Ty*>(_Allocate<_New_alignof<_Ty>>(_Get_size_of_n<sizeof(_Ty)>(_Count)));

  00128	50		 push	 eax
  00129	e8 00 00 00 00	 call	 ??$_Allocate@$07U_Default_allocate_traits@std@@$0A@@std@@YAPAXI@Z ; std::_Allocate<8,std::_Default_allocate_traits,0>
; File C:\Program Files (x86)\Microsoft Visual Studio\2019\Community\VC\Tools\MSVC\14.27.29110\include\xstring

; 2523 :         const pointer _Fancyptr = _Getal().allocate(_New_capacity + 1); // throws

  0012e	89 45 f8	 mov	 DWORD PTR __Fancyptr$[ebp], eax

; 2524 :         // nothrow hereafter
; 2525 :         _Construct_in_place(_My_data._Bx._Ptr, _Fancyptr);

  00131	8d 45 f8	 lea	 eax, DWORD PTR __Fancyptr$[ebp]
  00134	50		 push	 eax
  00135	53		 push	 ebx
  00136	e8 00 00 00 00	 call	 ??$_Construct_in_place@PADABQAD@std@@YAXAAPADABQAD@Z ; std::_Construct_in_place<char *,char * const &>

; 2526 :         _My_data._Mysize = _New_size;

  0013b	8b 45 0c	 mov	 eax, DWORD PTR __New_size$1$[ebp]
  0013e	83 c4 0c	 add	 esp, 12			; 0000000cH

; 2527 :         _My_data._Myres  = _New_capacity;

  00141	8b 4d 10	 mov	 ecx, DWORD PTR __New_capacity$1$[ebp]
  00144	89 43 10	 mov	 DWORD PTR [ebx+16], eax
  00147	89 4b 14	 mov	 DWORD PTR [ebx+20], ecx

; 2153 :         return _BUF_SIZE <= _Myres;

  0014a	83 7e 14 10	 cmp	 DWORD PTR [esi+20], 16	; 00000010H

; 2136 :         if (_Large_string_engaged()) {

  0014e	72 02		 jb	 SHORT $LN52@basic_stri

; 2137 :             _Result = _Unfancy(_Bx._Ptr);

  00150	8b 36		 mov	 esi, DWORD PTR [esi]
$LN52@basic_stri:

; 328  :         return static_cast<_Elem*>(_CSTD memcpy(_First1, _First2, _Count));

  00152	ff 75 fc	 push	 DWORD PTR __Left_size$1$[ebp]
  00155	56		 push	 esi
  00156	8b 75 f8	 mov	 esi, DWORD PTR __Fancyptr$[ebp]
  00159	56		 push	 esi
  0015a	e8 00 00 00 00	 call	 _memcpy
  0015f	83 c4 0c	 add	 esp, 12			; 0000000cH

; 2153 :         return _BUF_SIZE <= _Myres;

  00162	83 7f 14 10	 cmp	 DWORD PTR [edi+20], 16	; 00000010H

; 2136 :         if (_Large_string_engaged()) {

  00166	72 02		 jb	 SHORT $LN59@basic_stri

; 2137 :             _Result = _Unfancy(_Bx._Ptr);

  00168	8b 3f		 mov	 edi, DWORD PTR [edi]
$LN59@basic_stri:

; 2528 :         const auto _Ptr  = _Unfancy(_Fancyptr);
; 2529 :         _Traits::copy(_Ptr, _Left_data._Myptr(), _Left_size);
; 2530 :         _Traits::copy(_Ptr + _Left_size, _Right_data._Myptr(), _Right_size + 1);

  0016a	8b 45 f4	 mov	 eax, DWORD PTR __Right_size$1$[ebp]
  0016d	40		 inc	 eax

; 328  :         return static_cast<_Elem*>(_CSTD memcpy(_First1, _First2, _Count));

  0016e	50		 push	 eax

; 2528 :         const auto _Ptr  = _Unfancy(_Fancyptr);
; 2529 :         _Traits::copy(_Ptr, _Left_data._Myptr(), _Left_size);
; 2530 :         _Traits::copy(_Ptr + _Left_size, _Right_data._Myptr(), _Right_size + 1);

  0016f	8b 45 fc	 mov	 eax, DWORD PTR __Left_size$1$[ebp]
  00172	03 c6		 add	 eax, esi

; 328  :         return static_cast<_Elem*>(_CSTD memcpy(_First1, _First2, _Count));

  00174	57		 push	 edi
  00175	50		 push	 eax
  00176	e8 00 00 00 00	 call	 _memcpy

; 2531 :         _Proxy._Release();
; 2532 :     }

  0017b	83 c4 0c	 add	 esp, 12			; 0000000cH
  0017e	8b c3		 mov	 eax, ebx
  00180	5f		 pop	 edi
  00181	5e		 pop	 esi
  00182	5b		 pop	 ebx
  00183	8b e5		 mov	 esp, ebp
  00185	5d		 pop	 ebp
  00186	c2 0c 00	 ret	 12			; 0000000cH
$LN70@basic_stri:

; 2517 :             _Xlen_string();

  00189	e8 00 00 00 00	 call	 ?_Xlen_string@std@@YAXXZ ; std::_Xlen_string
$LN66@basic_stri:
  0018e	cc		 int	 3
??0?$basic_string@DU?$char_traits@D@std@@V?$allocator@D@2@@std@@QAE@U_String_constructor_concat_tag@1@AAV01@1@Z ENDP ; std::basic_string<char,std::char_traits<char>,std::allocator<char> >::basic_string<char,std::char_traits<char>,std::allocator<char> >
_TEXT	ENDS
; Function compile flags: /Ogtp
; File C:\Program Files (x86)\Microsoft Visual Studio\2019\Community\VC\Tools\MSVC\14.27.29110\include\xstring
;	COMDAT ?_Xran@?$_String_val@U?$_Simple_types@D@std@@@std@@SAXXZ
_TEXT	SEGMENT
?_Xran@?$_String_val@U?$_Simple_types@D@std@@@std@@SAXXZ PROC ; std::_String_val<std::_Simple_types<char> >::_Xran, COMDAT

; 2169 :         _Xout_of_range("invalid string position");

  00000	68 00 00 00 00	 push	 OFFSET ??_C@_0BI@CFPLBAOH@invalid?5string?5position@
  00005	e8 00 00 00 00	 call	 ?_Xout_of_range@std@@YAXPBD@Z ; std::_Xout_of_range
$LN3@Xran:
  0000a	cc		 int	 3
?_Xran@?$_String_val@U?$_Simple_types@D@std@@@std@@SAXXZ ENDP ; std::_String_val<std::_Simple_types<char> >::_Xran
_TEXT	ENDS
; Function compile flags: /Ogtp
; File C:\Program Files (x86)\Microsoft Visual Studio\2019\Community\VC\Tools\MSVC\14.27.29110\include\xstring
;	COMDAT ?_Xlen_string@std@@YAXXZ
_TEXT	SEGMENT
?_Xlen_string@std@@YAXXZ PROC				; std::_Xlen_string, COMDAT

; 2201 :     _Xlength_error("string too long");

  00000	68 00 00 00 00	 push	 OFFSET ??_C@_0BA@JFNIOLAK@string?5too?5long@
  00005	e8 00 00 00 00	 call	 ?_Xlength_error@std@@YAXPBD@Z ; std::_Xlength_error
$LN3@Xlen_strin:
  0000a	cc		 int	 3
?_Xlen_string@std@@YAXXZ ENDP				; std::_Xlen_string
_TEXT	ENDS
; Function compile flags: /Ogtp
; File C:\Program Files (x86)\Microsoft Visual Studio\2019\Community\VC\Tools\MSVC\14.27.29110\include\exception
;	COMDAT ?_Throw_bad_array_new_length@std@@YAXXZ
_TEXT	SEGMENT
$T1 = -12						; size = 12
?_Throw_bad_array_new_length@std@@YAXXZ PROC		; std::_Throw_bad_array_new_length, COMDAT

; 320  : [[noreturn]] inline void _Throw_bad_array_new_length() {

  00000	55		 push	 ebp
  00001	8b ec		 mov	 ebp, esp
  00003	83 ec 0c	 sub	 esp, 12			; 0000000cH

; 321  :     _THROW(bad_array_new_length{});

  00006	8d 4d f4	 lea	 ecx, DWORD PTR $T1[ebp]
  00009	e8 00 00 00 00	 call	 ??0bad_array_new_length@std@@QAE@XZ ; std::bad_array_new_length::bad_array_new_length
  0000e	68 00 00 00 00	 push	 OFFSET __TI3?AVbad_array_new_length@std@@
  00013	8d 45 f4	 lea	 eax, DWORD PTR $T1[ebp]
  00016	50		 push	 eax
  00017	e8 00 00 00 00	 call	 __CxxThrowException@8
$LN3@Throw_bad_:
  0001c	cc		 int	 3
?_Throw_bad_array_new_length@std@@YAXXZ ENDP		; std::_Throw_bad_array_new_length
_TEXT	ENDS
; Function compile flags: /Ogtp
; File C:\Program Files (x86)\Microsoft Visual Studio\2019\Community\VC\Tools\MSVC\14.27.29110\include\vcruntime_exception.h
;	COMDAT ??_Gbad_array_new_length@std@@UAEPAXI@Z
_TEXT	SEGMENT
___flags$ = 8						; size = 4
??_Gbad_array_new_length@std@@UAEPAXI@Z PROC		; std::bad_array_new_length::`scalar deleting destructor', COMDAT
; _this$ = ecx
  00000	55		 push	 ebp
  00001	8b ec		 mov	 ebp, esp

; 89   :     {

  00003	56		 push	 esi
  00004	8b f1		 mov	 esi, ecx

; 90   :         __std_exception_destroy(&_Data);

  00006	8d 46 04	 lea	 eax, DWORD PTR [esi+4]
  00009	c7 06 00 00 00
	00		 mov	 DWORD PTR [esi], OFFSET ??_7exception@std@@6B@
  0000f	50		 push	 eax
  00010	e8 00 00 00 00	 call	 ___std_exception_destroy
  00015	83 c4 04	 add	 esp, 4
  00018	f6 45 08 01	 test	 BYTE PTR ___flags$[ebp], 1
  0001c	74 0b		 je	 SHORT $LN12@scalar
  0001e	6a 0c		 push	 12			; 0000000cH
  00020	56		 push	 esi
  00021	e8 00 00 00 00	 call	 ??3@YAXPAXI@Z		; operator delete
  00026	83 c4 08	 add	 esp, 8
$LN12@scalar:
  00029	8b c6		 mov	 eax, esi
  0002b	5e		 pop	 esi
  0002c	5d		 pop	 ebp
  0002d	c2 04 00	 ret	 4
??_Gbad_array_new_length@std@@UAEPAXI@Z ENDP		; std::bad_array_new_length::`scalar deleting destructor'
_TEXT	ENDS
; Function compile flags: /Ogtp
; File C:\Program Files (x86)\Microsoft Visual Studio\2019\Community\VC\Tools\MSVC\14.27.29110\include\vcruntime_exception.h
;	COMDAT ??0bad_array_new_length@std@@QAE@ABV01@@Z
_TEXT	SEGMENT
___that$ = 8						; size = 4
??0bad_array_new_length@std@@QAE@ABV01@@Z PROC		; std::bad_array_new_length::bad_array_new_length, COMDAT
; _this$ = ecx
  00000	55		 push	 ebp
  00001	8b ec		 mov	 ebp, esp

; 72   :     {

  00003	56		 push	 esi
  00004	8b f1		 mov	 esi, ecx
  00006	0f 57 c0	 xorps	 xmm0, xmm0

; 71   :         : _Data()

  00009	8d 46 04	 lea	 eax, DWORD PTR [esi+4]

; 73   :         __std_exception_copy(&_Other._Data, &_Data);

  0000c	50		 push	 eax
  0000d	c7 06 00 00 00
	00		 mov	 DWORD PTR [esi], OFFSET ??_7exception@std@@6B@
  00013	66 0f d6 00	 movq	 QWORD PTR [eax], xmm0
  00017	8b 45 08	 mov	 eax, DWORD PTR ___that$[ebp]
  0001a	83 c0 04	 add	 eax, 4
  0001d	50		 push	 eax
  0001e	e8 00 00 00 00	 call	 ___std_exception_copy
  00023	83 c4 08	 add	 esp, 8
  00026	c7 06 00 00 00
	00		 mov	 DWORD PTR [esi], OFFSET ??_7bad_array_new_length@std@@6B@
  0002c	8b c6		 mov	 eax, esi
  0002e	5e		 pop	 esi
  0002f	5d		 pop	 ebp
  00030	c2 04 00	 ret	 4
??0bad_array_new_length@std@@QAE@ABV01@@Z ENDP		; std::bad_array_new_length::bad_array_new_length
_TEXT	ENDS
; Function compile flags: /Ogtp
; File C:\Program Files (x86)\Microsoft Visual Studio\2019\Community\VC\Tools\MSVC\14.27.29110\include\vcruntime_exception.h
;	COMDAT ??1bad_array_new_length@std@@UAE@XZ
_TEXT	SEGMENT
??1bad_array_new_length@std@@UAE@XZ PROC		; std::bad_array_new_length::~bad_array_new_length, COMDAT
; _this$ = ecx

; 90   :         __std_exception_destroy(&_Data);

  00000	8d 41 04	 lea	 eax, DWORD PTR [ecx+4]
  00003	c7 01 00 00 00
	00		 mov	 DWORD PTR [ecx], OFFSET ??_7exception@std@@6B@
  00009	50		 push	 eax
  0000a	e8 00 00 00 00	 call	 ___std_exception_destroy
  0000f	59		 pop	 ecx
  00010	c3		 ret	 0
??1bad_array_new_length@std@@UAE@XZ ENDP		; std::bad_array_new_length::~bad_array_new_length
_TEXT	ENDS
; Function compile flags: /Ogtp
; File C:\Program Files (x86)\Microsoft Visual Studio\2019\Community\VC\Tools\MSVC\14.27.29110\include\vcruntime_exception.h
;	COMDAT ??0bad_array_new_length@std@@QAE@XZ
_TEXT	SEGMENT
??0bad_array_new_length@std@@QAE@XZ PROC		; std::bad_array_new_length::bad_array_new_length, COMDAT
; _this$ = ecx

; 141  :     {

  00000	0f 57 c0	 xorps	 xmm0, xmm0

; 142  :     }

  00003	8b c1		 mov	 eax, ecx

; 65   :         : _Data()

  00005	66 0f d6 41 04	 movq	 QWORD PTR [ecx+4], xmm0

; 66   :     {
; 67   :         _Data._What = _Message;

  0000a	c7 41 04 00 00
	00 00		 mov	 DWORD PTR [ecx+4], OFFSET ??_C@_0BF@KINCDENJ@bad?5array?5new?5length@

; 141  :     {

  00011	c7 01 00 00 00
	00		 mov	 DWORD PTR [ecx], OFFSET ??_7bad_array_new_length@std@@6B@

; 142  :     }

  00017	c3		 ret	 0
??0bad_array_new_length@std@@QAE@XZ ENDP		; std::bad_array_new_length::bad_array_new_length
_TEXT	ENDS
; Function compile flags: /Ogtp
; File C:\Program Files (x86)\Microsoft Visual Studio\2019\Community\VC\Tools\MSVC\14.27.29110\include\vcruntime_exception.h
;	COMDAT ??_Gbad_alloc@std@@UAEPAXI@Z
_TEXT	SEGMENT
___flags$ = 8						; size = 4
??_Gbad_alloc@std@@UAEPAXI@Z PROC			; std::bad_alloc::`scalar deleting destructor', COMDAT
; _this$ = ecx
  00000	55		 push	 ebp
  00001	8b ec		 mov	 ebp, esp

; 89   :     {

  00003	56		 push	 esi
  00004	8b f1		 mov	 esi, ecx

; 90   :         __std_exception_destroy(&_Data);

  00006	8d 46 04	 lea	 eax, DWORD PTR [esi+4]
  00009	c7 06 00 00 00
	00		 mov	 DWORD PTR [esi], OFFSET ??_7exception@std@@6B@
  0000f	50		 push	 eax
  00010	e8 00 00 00 00	 call	 ___std_exception_destroy
  00015	83 c4 04	 add	 esp, 4
  00018	f6 45 08 01	 test	 BYTE PTR ___flags$[ebp], 1
  0001c	74 0b		 je	 SHORT $LN9@scalar
  0001e	6a 0c		 push	 12			; 0000000cH
  00020	56		 push	 esi
  00021	e8 00 00 00 00	 call	 ??3@YAXPAXI@Z		; operator delete
  00026	83 c4 08	 add	 esp, 8
$LN9@scalar:
  00029	8b c6		 mov	 eax, esi
  0002b	5e		 pop	 esi
  0002c	5d		 pop	 ebp
  0002d	c2 04 00	 ret	 4
??_Gbad_alloc@std@@UAEPAXI@Z ENDP			; std::bad_alloc::`scalar deleting destructor'
_TEXT	ENDS
; Function compile flags: /Ogtp
; File C:\Program Files (x86)\Microsoft Visual Studio\2019\Community\VC\Tools\MSVC\14.27.29110\include\vcruntime_exception.h
;	COMDAT ??0bad_alloc@std@@QAE@ABV01@@Z
_TEXT	SEGMENT
___that$ = 8						; size = 4
??0bad_alloc@std@@QAE@ABV01@@Z PROC			; std::bad_alloc::bad_alloc, COMDAT
; _this$ = ecx
  00000	55		 push	 ebp
  00001	8b ec		 mov	 ebp, esp

; 72   :     {

  00003	56		 push	 esi
  00004	8b f1		 mov	 esi, ecx
  00006	0f 57 c0	 xorps	 xmm0, xmm0

; 71   :         : _Data()

  00009	8d 46 04	 lea	 eax, DWORD PTR [esi+4]

; 73   :         __std_exception_copy(&_Other._Data, &_Data);

  0000c	50		 push	 eax
  0000d	c7 06 00 00 00
	00		 mov	 DWORD PTR [esi], OFFSET ??_7exception@std@@6B@
  00013	66 0f d6 00	 movq	 QWORD PTR [eax], xmm0
  00017	8b 45 08	 mov	 eax, DWORD PTR ___that$[ebp]
  0001a	83 c0 04	 add	 eax, 4
  0001d	50		 push	 eax
  0001e	e8 00 00 00 00	 call	 ___std_exception_copy
  00023	83 c4 08	 add	 esp, 8
  00026	c7 06 00 00 00
	00		 mov	 DWORD PTR [esi], OFFSET ??_7bad_alloc@std@@6B@
  0002c	8b c6		 mov	 eax, esi
  0002e	5e		 pop	 esi
  0002f	5d		 pop	 ebp
  00030	c2 04 00	 ret	 4
??0bad_alloc@std@@QAE@ABV01@@Z ENDP			; std::bad_alloc::bad_alloc
_TEXT	ENDS
; Function compile flags: /Ogtp
; File C:\Program Files (x86)\Microsoft Visual Studio\2019\Community\VC\Tools\MSVC\14.27.29110\include\vcruntime_exception.h
;	COMDAT ??_Gexception@std@@UAEPAXI@Z
_TEXT	SEGMENT
___flags$ = 8						; size = 4
??_Gexception@std@@UAEPAXI@Z PROC			; std::exception::`scalar deleting destructor', COMDAT
; _this$ = ecx
  00000	55		 push	 ebp
  00001	8b ec		 mov	 ebp, esp

; 89   :     {

  00003	56		 push	 esi
  00004	8b f1		 mov	 esi, ecx

; 90   :         __std_exception_destroy(&_Data);

  00006	8d 46 04	 lea	 eax, DWORD PTR [esi+4]
  00009	c7 06 00 00 00
	00		 mov	 DWORD PTR [esi], OFFSET ??_7exception@std@@6B@
  0000f	50		 push	 eax
  00010	e8 00 00 00 00	 call	 ___std_exception_destroy
  00015	83 c4 04	 add	 esp, 4
  00018	f6 45 08 01	 test	 BYTE PTR ___flags$[ebp], 1
  0001c	74 0b		 je	 SHORT $LN6@scalar
  0001e	6a 0c		 push	 12			; 0000000cH
  00020	56		 push	 esi
  00021	e8 00 00 00 00	 call	 ??3@YAXPAXI@Z		; operator delete
  00026	83 c4 08	 add	 esp, 8
$LN6@scalar:
  00029	8b c6		 mov	 eax, esi
  0002b	5e		 pop	 esi
  0002c	5d		 pop	 ebp
  0002d	c2 04 00	 ret	 4
??_Gexception@std@@UAEPAXI@Z ENDP			; std::exception::`scalar deleting destructor'
_TEXT	ENDS
; Function compile flags: /Ogtp
; File C:\Program Files (x86)\Microsoft Visual Studio\2019\Community\VC\Tools\MSVC\14.27.29110\include\vcruntime_exception.h
;	COMDAT ?what@exception@std@@UBEPBDXZ
_TEXT	SEGMENT
?what@exception@std@@UBEPBDXZ PROC			; std::exception::what, COMDAT
; _this$ = ecx

; 95   :         return _Data._What ? _Data._What : "Unknown exception";

  00000	8b 49 04	 mov	 ecx, DWORD PTR [ecx+4]
  00003	b8 00 00 00 00	 mov	 eax, OFFSET ??_C@_0BC@EOODALEL@Unknown?5exception@
  00008	85 c9		 test	 ecx, ecx
  0000a	0f 45 c1	 cmovne	 eax, ecx

; 96   :     }

  0000d	c3		 ret	 0
?what@exception@std@@UBEPBDXZ ENDP			; std::exception::what
_TEXT	ENDS
; Function compile flags: /Ogtp
; File C:\Program Files (x86)\Microsoft Visual Studio\2019\Community\VC\Tools\MSVC\14.27.29110\include\vcruntime_exception.h
;	COMDAT ??1exception@std@@UAE@XZ
_TEXT	SEGMENT
??1exception@std@@UAE@XZ PROC				; std::exception::~exception, COMDAT
; _this$ = ecx

; 90   :         __std_exception_destroy(&_Data);

  00000	8d 41 04	 lea	 eax, DWORD PTR [ecx+4]
  00003	c7 01 00 00 00
	00		 mov	 DWORD PTR [ecx], OFFSET ??_7exception@std@@6B@
  00009	50		 push	 eax
  0000a	e8 00 00 00 00	 call	 ___std_exception_destroy
  0000f	59		 pop	 ecx

; 91   :     }

  00010	c3		 ret	 0
??1exception@std@@UAE@XZ ENDP				; std::exception::~exception
_TEXT	ENDS
; Function compile flags: /Ogtp
; File C:\Program Files (x86)\Microsoft Visual Studio\2019\Community\VC\Tools\MSVC\14.27.29110\include\vcruntime_exception.h
;	COMDAT ??0exception@std@@QAE@ABV01@@Z
_TEXT	SEGMENT
__Other$ = 8						; size = 4
??0exception@std@@QAE@ABV01@@Z PROC			; std::exception::exception, COMDAT
; _this$ = ecx

; 72   :     {

  00000	55		 push	 ebp
  00001	8b ec		 mov	 ebp, esp
  00003	56		 push	 esi
  00004	8b f1		 mov	 esi, ecx
  00006	0f 57 c0	 xorps	 xmm0, xmm0
  00009	8d 46 04	 lea	 eax, DWORD PTR [esi+4]

; 73   :         __std_exception_copy(&_Other._Data, &_Data);

  0000c	50		 push	 eax
  0000d	c7 06 00 00 00
	00		 mov	 DWORD PTR [esi], OFFSET ??_7exception@std@@6B@
  00013	66 0f d6 00	 movq	 QWORD PTR [eax], xmm0
  00017	8b 45 08	 mov	 eax, DWORD PTR __Other$[ebp]
  0001a	83 c0 04	 add	 eax, 4
  0001d	50		 push	 eax
  0001e	e8 00 00 00 00	 call	 ___std_exception_copy
  00023	83 c4 08	 add	 esp, 8

; 74   :     }

  00026	8b c6		 mov	 eax, esi
  00028	5e		 pop	 esi
  00029	5d		 pop	 ebp
  0002a	c2 04 00	 ret	 4
??0exception@std@@QAE@ABV01@@Z ENDP			; std::exception::exception
_TEXT	ENDS
END
