; Listing generated by Microsoft (R) Optimizing Compiler Version 19.27.29112.0 

	TITLE	C:\DS Project\DS Files\Source\ClientSource\Client\EterBase\TempFile.cpp
	.686P
	.XMM
	include listing.inc
	.model	flat

INCLUDELIB LIBCMT
INCLUDELIB OLDNAMES

PUBLIC	??0CTempFile@@QAE@PBD@Z				; CTempFile::CTempFile
PUBLIC	??1CTempFile@@UAE@XZ				; CTempFile::~CTempFile
PUBLIC	??_GCTempFile@@UAEPAXI@Z			; CTempFile::`scalar deleting destructor'
PUBLIC	??_7CTempFile@@6B@				; CTempFile::`vftable'
PUBLIC	??_C@_0EC@OBCJOLKA@CTempFile?3?3CTempFile?5cannot?5cre@ ; `string'
PUBLIC	??_R4CTempFile@@6B@				; CTempFile::`RTTI Complete Object Locator'
PUBLIC	??_R0?AVCTempFile@@@8				; CTempFile `RTTI Type Descriptor'
PUBLIC	??_R3CTempFile@@8				; CTempFile::`RTTI Class Hierarchy Descriptor'
PUBLIC	??_R2CTempFile@@8				; CTempFile::`RTTI Base Class Array'
PUBLIC	??_R1A@?0A@EA@CTempFile@@8			; CTempFile::`RTTI Base Class Descriptor at (0,-1,0,64)'
PUBLIC	??_R1A@?0A@EA@CFileBase@@8			; CFileBase::`RTTI Base Class Descriptor at (0,-1,0,64)'
PUBLIC	??_R0?AVCFileBase@@@8				; CFileBase `RTTI Type Descriptor'
PUBLIC	??_R3CFileBase@@8				; CFileBase::`RTTI Class Hierarchy Descriptor'
PUBLIC	??_R2CFileBase@@8				; CFileBase::`RTTI Base Class Array'
EXTRN	??3@YAXPAXI@Z:PROC				; operator delete
EXTRN	_strncpy:PROC
EXTRN	__imp__DeleteFileA@4:PROC
EXTRN	??0CFileBase@@QAE@XZ:PROC			; CFileBase::CFileBase
EXTRN	??1CFileBase@@UAE@XZ:PROC			; CFileBase::~CFileBase
EXTRN	?Destroy@CFileBase@@QAEXXZ:PROC			; CFileBase::Destroy
EXTRN	?Create@CFileBase@@QAEHPBDW4EFileMode@1@@Z:PROC	; CFileBase::Create
EXTRN	?Write@CFileBase@@UAEHPBXH@Z:PROC		; CFileBase::Write
EXTRN	??_ECTempFile@@UAEPAXI@Z:PROC			; CTempFile::`vector deleting destructor'
EXTRN	?CreateTempFileName@@YAPBDPBD@Z:PROC		; CreateTempFileName
EXTRN	?TraceError@@YAXPBDZZ:PROC			; TraceError
EXTRN	@__security_check_cookie@4:PROC
EXTRN	___CxxFrameHandler3:PROC
EXTRN	??_7type_info@@6B@:QWORD			; type_info::`vftable'
EXTRN	___security_cookie:DWORD
;	COMDAT ??_R2CFileBase@@8
rdata$r	SEGMENT
??_R2CFileBase@@8 DD FLAT:??_R1A@?0A@EA@CFileBase@@8	; CFileBase::`RTTI Base Class Array'
rdata$r	ENDS
;	COMDAT ??_R3CFileBase@@8
rdata$r	SEGMENT
??_R3CFileBase@@8 DD 00H				; CFileBase::`RTTI Class Hierarchy Descriptor'
	DD	00H
	DD	01H
	DD	FLAT:??_R2CFileBase@@8
rdata$r	ENDS
;	COMDAT ??_R0?AVCFileBase@@@8
data$r	SEGMENT
??_R0?AVCFileBase@@@8 DD FLAT:??_7type_info@@6B@	; CFileBase `RTTI Type Descriptor'
	DD	00H
	DB	'.?AVCFileBase@@', 00H
data$r	ENDS
;	COMDAT ??_R1A@?0A@EA@CFileBase@@8
rdata$r	SEGMENT
??_R1A@?0A@EA@CFileBase@@8 DD FLAT:??_R0?AVCFileBase@@@8 ; CFileBase::`RTTI Base Class Descriptor at (0,-1,0,64)'
	DD	00H
	DD	00H
	DD	0ffffffffH
	DD	00H
	DD	040H
	DD	FLAT:??_R3CFileBase@@8
rdata$r	ENDS
;	COMDAT ??_R1A@?0A@EA@CTempFile@@8
rdata$r	SEGMENT
??_R1A@?0A@EA@CTempFile@@8 DD FLAT:??_R0?AVCTempFile@@@8 ; CTempFile::`RTTI Base Class Descriptor at (0,-1,0,64)'
	DD	01H
	DD	00H
	DD	0ffffffffH
	DD	00H
	DD	040H
	DD	FLAT:??_R3CTempFile@@8
rdata$r	ENDS
;	COMDAT ??_R2CTempFile@@8
rdata$r	SEGMENT
??_R2CTempFile@@8 DD FLAT:??_R1A@?0A@EA@CTempFile@@8	; CTempFile::`RTTI Base Class Array'
	DD	FLAT:??_R1A@?0A@EA@CFileBase@@8
rdata$r	ENDS
;	COMDAT ??_R3CTempFile@@8
rdata$r	SEGMENT
??_R3CTempFile@@8 DD 00H				; CTempFile::`RTTI Class Hierarchy Descriptor'
	DD	00H
	DD	02H
	DD	FLAT:??_R2CTempFile@@8
rdata$r	ENDS
;	COMDAT ??_R0?AVCTempFile@@@8
data$r	SEGMENT
??_R0?AVCTempFile@@@8 DD FLAT:??_7type_info@@6B@	; CTempFile `RTTI Type Descriptor'
	DD	00H
	DB	'.?AVCTempFile@@', 00H
data$r	ENDS
;	COMDAT ??_R4CTempFile@@6B@
rdata$r	SEGMENT
??_R4CTempFile@@6B@ DD 00H				; CTempFile::`RTTI Complete Object Locator'
	DD	00H
	DD	00H
	DD	FLAT:??_R0?AVCTempFile@@@8
	DD	FLAT:??_R3CTempFile@@8
rdata$r	ENDS
;	COMDAT ??_C@_0EC@OBCJOLKA@CTempFile?3?3CTempFile?5cannot?5cre@
CONST	SEGMENT
??_C@_0EC@OBCJOLKA@CTempFile?3?3CTempFile?5cannot?5cre@ DB 'CTempFile::CT'
	DB	'empFile cannot create temporary file. (filename: %s)', 00H ; `string'
CONST	ENDS
;	COMDAT ??_7CTempFile@@6B@
CONST	SEGMENT
??_7CTempFile@@6B@ DD FLAT:??_R4CTempFile@@6B@		; CTempFile::`vftable'
	DD	FLAT:??_ECTempFile@@UAEPAXI@Z
	DD	FLAT:?Write@CFileBase@@UAEHPBXH@Z
CONST	ENDS
;	COMDAT xdata$x
xdata$x	SEGMENT
__ehfuncinfo$??1CTempFile@@UAE@XZ DD 019930522H
	DD	00H
	DD	00H
	DD	2 DUP(00H)
	DD	2 DUP(00H)
	DD	00H
	DD	05H
xdata$x	ENDS
;	COMDAT xdata$x
xdata$x	SEGMENT
__unwindtable$??0CTempFile@@QAE@PBD@Z DD 0ffffffffH
	DD	FLAT:__unwindfunclet$??0CTempFile@@QAE@PBD@Z$0
__ehfuncinfo$??0CTempFile@@QAE@PBD@Z DD 019930522H
	DD	01H
	DD	FLAT:__unwindtable$??0CTempFile@@QAE@PBD@Z
	DD	2 DUP(00H)
	DD	2 DUP(00H)
	DD	00H
	DD	01H
xdata$x	ENDS
; Function compile flags: /Ogtp
;	COMDAT ??_GCTempFile@@UAEPAXI@Z
_TEXT	SEGMENT
___flags$ = 8						; size = 4
??_GCTempFile@@UAEPAXI@Z PROC				; CTempFile::`scalar deleting destructor', COMDAT
; _this$ = ecx
  00000	55		 push	 ebp
  00001	8b ec		 mov	 ebp, esp
  00003	56		 push	 esi
  00004	8b f1		 mov	 esi, ecx
  00006	e8 00 00 00 00	 call	 ??1CTempFile@@UAE@XZ	; CTempFile::~CTempFile
  0000b	f6 45 08 01	 test	 BYTE PTR ___flags$[ebp], 1
  0000f	74 0e		 je	 SHORT $LN4@scalar
  00011	68 20 02 00 00	 push	 544			; 00000220H
  00016	56		 push	 esi
  00017	e8 00 00 00 00	 call	 ??3@YAXPAXI@Z		; operator delete
  0001c	83 c4 08	 add	 esp, 8
$LN4@scalar:
  0001f	8b c6		 mov	 eax, esi
  00021	5e		 pop	 esi
  00022	5d		 pop	 ebp
  00023	c2 04 00	 ret	 4
??_GCTempFile@@UAEPAXI@Z ENDP				; CTempFile::`scalar deleting destructor'
_TEXT	ENDS
; Function compile flags: /Ogtp
; File C:\DS Project\DS Files\Source\ClientSource\Client\EterBase\TempFile.cpp
;	COMDAT ??1CTempFile@@UAE@XZ
_TEXT	SEGMENT
__$EHRec$ = -12						; size = 12
??1CTempFile@@UAE@XZ PROC				; CTempFile::~CTempFile, COMDAT
; _this$ = ecx

; 7    : {

  00000	55		 push	 ebp
  00001	8b ec		 mov	 ebp, esp
  00003	6a ff		 push	 -1
  00005	68 00 00 00 00	 push	 __ehhandler$??1CTempFile@@UAE@XZ
  0000a	64 a1 00 00 00
	00		 mov	 eax, DWORD PTR fs:0
  00010	50		 push	 eax
  00011	56		 push	 esi
  00012	a1 00 00 00 00	 mov	 eax, DWORD PTR ___security_cookie
  00017	33 c5		 xor	 eax, ebp
  00019	50		 push	 eax
  0001a	8d 45 f4	 lea	 eax, DWORD PTR __$EHRec$[ebp]
  0001d	64 a3 00 00 00
	00		 mov	 DWORD PTR fs:0, eax
  00023	8b f1		 mov	 esi, ecx
  00025	c7 06 00 00 00
	00		 mov	 DWORD PTR [esi], OFFSET ??_7CTempFile@@6B@

; 8    : 	Destroy();

  0002b	e8 00 00 00 00	 call	 ?Destroy@CFileBase@@QAEXXZ ; CFileBase::Destroy

; 9    : 	DeleteFile(m_szFileName);

  00030	8d 86 18 01 00
	00		 lea	 eax, DWORD PTR [esi+280]
  00036	50		 push	 eax
  00037	ff 15 00 00 00
	00		 call	 DWORD PTR __imp__DeleteFileA@4

; 10   : }

  0003d	8b ce		 mov	 ecx, esi
  0003f	e8 00 00 00 00	 call	 ??1CFileBase@@UAE@XZ	; CFileBase::~CFileBase
  00044	8b 4d f4	 mov	 ecx, DWORD PTR __$EHRec$[ebp]
  00047	64 89 0d 00 00
	00 00		 mov	 DWORD PTR fs:0, ecx
  0004e	59		 pop	 ecx
  0004f	5e		 pop	 esi
  00050	8b e5		 mov	 esp, ebp
  00052	5d		 pop	 ebp
  00053	c3		 ret	 0
  00054	cc		 int	 3
  00055	cc		 int	 3
  00056	cc		 int	 3
  00057	cc		 int	 3
  00058	cc		 int	 3
_TEXT	ENDS
;	COMDAT text$x
text$x	SEGMENT
__ehhandler$??1CTempFile@@UAE@XZ:
  00000	90		 npad	 1
  00001	90		 npad	 1
  00002	8b 54 24 08	 mov	 edx, DWORD PTR [esp+8]
  00006	8d 42 0c	 lea	 eax, DWORD PTR [edx+12]
  00009	8b 4a f8	 mov	 ecx, DWORD PTR [edx-8]
  0000c	33 c8		 xor	 ecx, eax
  0000e	e8 00 00 00 00	 call	 @__security_check_cookie@4
  00013	b8 00 00 00 00	 mov	 eax, OFFSET __ehfuncinfo$??1CTempFile@@UAE@XZ
  00018	e9 00 00 00 00	 jmp	 ___CxxFrameHandler3
text$x	ENDS
??1CTempFile@@UAE@XZ ENDP				; CTempFile::~CTempFile
; Function compile flags: /Ogtp
; File C:\DS Project\DS Files\Source\ClientSource\Client\EterBase\TempFile.cpp
;	COMDAT ??0CTempFile@@QAE@PBD@Z
_TEXT	SEGMENT
_this$ = -16						; size = 4
__$EHRec$ = -12						; size = 12
_c_pszPrefix$ = 8					; size = 4
??0CTempFile@@QAE@PBD@Z PROC				; CTempFile::CTempFile, COMDAT
; _this$ = ecx

; 13   : {

  00000	55		 push	 ebp
  00001	8b ec		 mov	 ebp, esp
  00003	6a ff		 push	 -1
  00005	68 00 00 00 00	 push	 __ehhandler$??0CTempFile@@QAE@PBD@Z
  0000a	64 a1 00 00 00
	00		 mov	 eax, DWORD PTR fs:0
  00010	50		 push	 eax
  00011	51		 push	 ecx
  00012	56		 push	 esi
  00013	57		 push	 edi
  00014	a1 00 00 00 00	 mov	 eax, DWORD PTR ___security_cookie
  00019	33 c5		 xor	 eax, ebp
  0001b	50		 push	 eax
  0001c	8d 45 f4	 lea	 eax, DWORD PTR __$EHRec$[ebp]
  0001f	64 a3 00 00 00
	00		 mov	 DWORD PTR fs:0, eax
  00025	8b f1		 mov	 esi, ecx
  00027	89 75 f0	 mov	 DWORD PTR _this$[ebp], esi
  0002a	e8 00 00 00 00	 call	 ??0CFileBase@@QAE@XZ	; CFileBase::CFileBase

; 14   : 	strncpy(m_szFileName, CreateTempFileName(c_pszPrefix), MAX_PATH);

  0002f	68 04 01 00 00	 push	 260			; 00000104H
  00034	ff 75 08	 push	 DWORD PTR _c_pszPrefix$[ebp]
  00037	c7 45 fc 00 00
	00 00		 mov	 DWORD PTR __$EHRec$[ebp+8], 0
  0003e	8d be 18 01 00
	00		 lea	 edi, DWORD PTR [esi+280]
  00044	c7 06 00 00 00
	00		 mov	 DWORD PTR [esi], OFFSET ??_7CTempFile@@6B@
  0004a	e8 00 00 00 00	 call	 ?CreateTempFileName@@YAPBDPBD@Z ; CreateTempFileName
  0004f	83 c4 04	 add	 esp, 4
  00052	50		 push	 eax
  00053	57		 push	 edi
  00054	e8 00 00 00 00	 call	 _strncpy
  00059	83 c4 0c	 add	 esp, 12			; 0000000cH

; 15   : 
; 16   : 	if (!Create(m_szFileName, CFileBase::FILEMODE_WRITE))

  0005c	8b ce		 mov	 ecx, esi
  0005e	6a 02		 push	 2
  00060	57		 push	 edi
  00061	e8 00 00 00 00	 call	 ?Create@CFileBase@@QAEHPBDW4EFileMode@1@@Z ; CFileBase::Create
  00066	85 c0		 test	 eax, eax
  00068	75 0e		 jne	 SHORT $LN5@CTempFile

; 17   : 	{
; 18   : 		TraceError("CTempFile::CTempFile cannot create temporary file. (filename: %s)", m_szFileName);

  0006a	57		 push	 edi
  0006b	68 00 00 00 00	 push	 OFFSET ??_C@_0EC@OBCJOLKA@CTempFile?3?3CTempFile?5cannot?5cre@
  00070	e8 00 00 00 00	 call	 ?TraceError@@YAXPBDZZ	; TraceError
  00075	83 c4 08	 add	 esp, 8
$LN5@CTempFile:

; 19   : 		return;
; 20   : 	}
; 21   : }

  00078	8b c6		 mov	 eax, esi
  0007a	8b 4d f4	 mov	 ecx, DWORD PTR __$EHRec$[ebp]
  0007d	64 89 0d 00 00
	00 00		 mov	 DWORD PTR fs:0, ecx
  00084	59		 pop	 ecx
  00085	5f		 pop	 edi
  00086	5e		 pop	 esi
  00087	8b e5		 mov	 esp, ebp
  00089	5d		 pop	 ebp
  0008a	c2 04 00	 ret	 4
_TEXT	ENDS
;	COMDAT text$x
text$x	SEGMENT
__unwindfunclet$??0CTempFile@@QAE@PBD@Z$0:
  00000	8b 4d f0	 mov	 ecx, DWORD PTR _this$[ebp]
  00003	e9 00 00 00 00	 jmp	 ??1CFileBase@@UAE@XZ	; CFileBase::~CFileBase
  00008	cc		 int	 3
  00009	cc		 int	 3
  0000a	cc		 int	 3
  0000b	cc		 int	 3
  0000c	cc		 int	 3
__ehhandler$??0CTempFile@@QAE@PBD@Z:
  0000d	90		 npad	 1
  0000e	90		 npad	 1
  0000f	8b 54 24 08	 mov	 edx, DWORD PTR [esp+8]
  00013	8d 42 0c	 lea	 eax, DWORD PTR [edx+12]
  00016	8b 4a f0	 mov	 ecx, DWORD PTR [edx-16]
  00019	33 c8		 xor	 ecx, eax
  0001b	e8 00 00 00 00	 call	 @__security_check_cookie@4
  00020	b8 00 00 00 00	 mov	 eax, OFFSET __ehfuncinfo$??0CTempFile@@QAE@PBD@Z
  00025	e9 00 00 00 00	 jmp	 ___CxxFrameHandler3
text$x	ENDS
??0CTempFile@@QAE@PBD@Z ENDP				; CTempFile::CTempFile
END
