; Listing generated by Microsoft (R) Optimizing Compiler Version 19.27.29112.0 

	TITLE	C:\DS Project\DS Files\Source\ClientSource\Client\SphereLib\frustum.cpp
	.686P
	.XMM
	include listing.inc
	.model	flat

INCLUDELIB LIBCMT
INCLUDELIB OLDNAMES

PUBLIC	?BuildViewFrustum@Frustum@@QAEXAAUD3DXMATRIX@@@Z ; Frustum::BuildViewFrustum
PUBLIC	?BuildViewFrustum2@Frustum@@QAEXAAUD3DXMATRIX@@MMMMABUD3DXVECTOR3@@1@Z ; Frustum::BuildViewFrustum2
PUBLIC	?ViewVolumeTest@Frustum@@QBE?AW4ViewState@@ABVVector3d@@M@Z ; Frustum::ViewVolumeTest
PUBLIC	__real@3f000000
PUBLIC	__xmm@80000000800000008000000080000000
EXTRN	_sqrt:PROC
EXTRN	_tan:PROC
EXTRN	_D3DXPlaneNormalize@8:PROC
EXTRN	@__security_check_cookie@4:PROC
EXTRN	___security_cookie:DWORD
EXTRN	__fltused:DWORD
;	COMDAT __xmm@80000000800000008000000080000000
CONST	SEGMENT
__xmm@80000000800000008000000080000000 DB 00H, 00H, 00H, 080H, 00H, 00H, 00H
	DB	080H, 00H, 00H, 00H, 080H, 00H, 00H, 00H, 080H
CONST	ENDS
;	COMDAT __real@3f000000
CONST	SEGMENT
__real@3f000000 DD 03f000000r			; 0.5
CONST	ENDS
; Function compile flags: /Ogtp
; File C:\DS Project\DS Files\Source\ClientSource\Client\SphereLib\frustum.cpp
; File C:\DS Project\DS Files\Source\ClientSource\extern\include\d3dx8math.inl
; File C:\DS Project\DS Files\Source\ClientSource\Client\SphereLib\frustum.cpp
; File C:\DS Project\DS Files\Source\ClientSource\extern\include\d3dx8math.inl
; File C:\DS Project\DS Files\Source\ClientSource\Client\SphereLib\frustum.cpp
; File C:\DS Project\DS Files\Source\ClientSource\extern\include\d3dx8math.inl
; File C:\DS Project\DS Files\Source\ClientSource\Client\SphereLib\frustum.cpp
;	COMDAT ?ViewVolumeTest@Frustum@@QBE?AW4ViewState@@ABVVector3d@@M@Z
_TEXT	SEGMENT
_distance$ = -28					; size = 24
_center$ = -16						; size = 12
__$ArrayPad$ = -4					; size = 4
_c_v3Center$ = 8					; size = 4
_c_fRadius$ = 12					; size = 4
?ViewVolumeTest@Frustum@@QBE?AW4ViewState@@ABVVector3d@@M@Z PROC ; Frustum::ViewVolumeTest, COMDAT
; _this$ = ecx

; 26   : {

  00000	55		 push	 ebp
  00001	8b ec		 mov	 ebp, esp
  00003	83 ec 1c	 sub	 esp, 28			; 0000001cH
  00006	a1 00 00 00 00	 mov	 eax, DWORD PTR ___security_cookie
  0000b	33 c5		 xor	 eax, ebp
  0000d	89 45 fc	 mov	 DWORD PTR __$ArrayPad$[ebp], eax
  00010	8b 45 08	 mov	 eax, DWORD PTR _c_v3Center$[ebp]
  00013	8b d1		 mov	 edx, ecx

; 27   : 	if (m_bUsingSphere)

  00015	f3 0f 10 5d 0c	 movss	 xmm3, DWORD PTR _c_fRadius$[ebp]
  0001a	80 3a 00	 cmp	 BYTE PTR [edx], 0
  0001d	74 47		 je	 SHORT $LN9@ViewVolume

; 28   : 	{
; 29   : 		D3DXVECTOR3 v(

  0001f	f3 0f 10 40 04	 movss	 xmm0, DWORD PTR [eax+4]
  00024	f3 0f 5c 42 08	 subss	 xmm0, DWORD PTR [edx+8]
  00029	f3 0f 10 10	 movss	 xmm2, DWORD PTR [eax]
  0002d	f3 0f 5c 52 04	 subss	 xmm2, DWORD PTR [edx+4]
  00032	f3 0f 10 48 08	 movss	 xmm1, DWORD PTR [eax+8]
  00037	f3 0f 5c 4a 0c	 subss	 xmm1, DWORD PTR [edx+12]
; File C:\DS Project\DS Files\Source\ClientSource\extern\include\d3dx8math.inl

; 1253 :     return pV->x * pV->x + pV->y * pV->y + pV->z * pV->z;

  0003c	f3 0f 59 c0	 mulss	 xmm0, xmm0
  00040	f3 0f 59 d2	 mulss	 xmm2, xmm2
  00044	f3 0f 59 c9	 mulss	 xmm1, xmm1
  00048	f3 0f 58 d0	 addss	 xmm2, xmm0
; File C:\DS Project\DS Files\Source\ClientSource\Client\SphereLib\frustum.cpp

; 34   : 		if ((c_fRadius + m_fRadius) * (c_fRadius + m_fRadius) < D3DXVec3LengthSq(&v))

  0004c	f3 0f 10 42 10	 movss	 xmm0, DWORD PTR [edx+16]
  00051	f3 0f 58 c3	 addss	 xmm0, xmm3
; File C:\DS Project\DS Files\Source\ClientSource\extern\include\d3dx8math.inl

; 1253 :     return pV->x * pV->x + pV->y * pV->y + pV->z * pV->z;

  00055	f3 0f 58 d1	 addss	 xmm2, xmm1
; File C:\DS Project\DS Files\Source\ClientSource\Client\SphereLib\frustum.cpp

; 34   : 		if ((c_fRadius + m_fRadius) * (c_fRadius + m_fRadius) < D3DXVec3LengthSq(&v))

  00059	f3 0f 59 c0	 mulss	 xmm0, xmm0
  0005d	0f 2f d0	 comiss	 xmm2, xmm0
  00060	0f 87 ae 00 00
	00		 ja	 $LN21@ViewVolume
$LN9@ViewVolume:

; 35   : 		{
; 36   : 			return VS_OUTSIDE;
; 37   : 		}
; 38   : 	}
; 39   : 
; 40   : 	const int count=6;
; 41   : 
; 42   : 	D3DXVECTOR3 center = c_v3Center;

  00066	f3 0f 7e 00	 movq	 xmm0, QWORD PTR [eax]
  0006a	0f 28 d3	 movaps	 xmm2, xmm3
  0006d	8b 40 08	 mov	 eax, DWORD PTR [eax+8]

; 43   : 	//center.y *=-1;
; 44   : 
; 45   : 	int i;
; 46   : 
; 47   : 	float distance[count];
; 48   : 	for(i=0;i<count;i++)

  00070	33 c9		 xor	 ecx, ecx
  00072	0f 57 15 00 00
	00 00		 xorps	 xmm2, DWORD PTR __xmm@80000000800000008000000080000000
  00079	66 0f d6 45 f0	 movq	 QWORD PTR _center$[ebp], xmm0
  0007e	f3 0f 10 6d f4	 movss	 xmm5, DWORD PTR _center$[ebp+4]
  00083	f3 0f 10 75 f0	 movss	 xmm6, DWORD PTR _center$[ebp]
  00088	89 45 f8	 mov	 DWORD PTR _center$[ebp+8], eax
  0008b	8d 42 1c	 lea	 eax, DWORD PTR [edx+28]
  0008e	f3 0f 10 65 f8	 movss	 xmm4, DWORD PTR _center$[ebp+8]
  00093	0f 1f 40 00 66
	0f 1f 84 00 00
	00 00 00	 npad	 13
$LL4@ViewVolume:
; File C:\DS Project\DS Files\Source\ClientSource\extern\include\d3dx8math.inl

; 1647 :     return pP->a * pV->x + pP->b * pV->y + pP->c * pV->z + pP->d;

  000a0	f3 0f 10 40 f8	 movss	 xmm0, DWORD PTR [eax-8]
  000a5	f3 0f 10 48 fc	 movss	 xmm1, DWORD PTR [eax-4]
  000aa	f3 0f 59 cd	 mulss	 xmm1, xmm5
  000ae	f3 0f 59 c6	 mulss	 xmm0, xmm6
  000b2	f3 0f 58 c8	 addss	 xmm1, xmm0
  000b6	f3 0f 10 00	 movss	 xmm0, DWORD PTR [eax]
  000ba	f3 0f 59 c4	 mulss	 xmm0, xmm4
  000be	f3 0f 58 c8	 addss	 xmm1, xmm0
  000c2	f3 0f 58 48 04	 addss	 xmm1, DWORD PTR [eax+4]
; File C:\DS Project\DS Files\Source\ClientSource\Client\SphereLib\frustum.cpp

; 51   : 		if (distance[i]<=-c_fRadius)

  000c7	0f 2f d1	 comiss	 xmm2, xmm1
  000ca	f3 0f 11 4c 8d
	e4		 movss	 DWORD PTR _distance$[ebp+ecx*4], xmm1
  000d0	73 42		 jae	 SHORT $LN21@ViewVolume

; 43   : 	//center.y *=-1;
; 44   : 
; 45   : 	int i;
; 46   : 
; 47   : 	float distance[count];
; 48   : 	for(i=0;i<count;i++)

  000d2	41		 inc	 ecx
  000d3	83 c0 10	 add	 eax, 16			; 00000010H
  000d6	83 f9 06	 cmp	 ecx, 6
  000d9	7c c5		 jl	 SHORT $LL4@ViewVolume

; 52   : 			return VS_OUTSIDE;
; 53   : 	}
; 54   : 
; 55   : 	//return VS_INSIDE;
; 56   : 
; 57   : 	for(i=0;i<count;i++)

  000db	33 c0		 xor	 eax, eax
  000dd	0f 1f 00	 npad	 3
$LL7@ViewVolume:

; 58   : 	{
; 59   : 		if (distance[i]<=c_fRadius)

  000e0	0f 2f 5c 85 e4	 comiss	 xmm3, DWORD PTR _distance$[ebp+eax*4]
  000e5	73 18		 jae	 SHORT $LN22@ViewVolume

; 52   : 			return VS_OUTSIDE;
; 53   : 	}
; 54   : 
; 55   : 	//return VS_INSIDE;
; 56   : 
; 57   : 	for(i=0;i<count;i++)

  000e7	40		 inc	 eax
  000e8	83 f8 06	 cmp	 eax, 6
  000eb	7c f3		 jl	 SHORT $LL7@ViewVolume

; 61   : 	}
; 62   : 
; 63   : 	return VS_INSIDE;

  000ed	33 c0		 xor	 eax, eax

; 64   : }

  000ef	8b 4d fc	 mov	 ecx, DWORD PTR __$ArrayPad$[ebp]
  000f2	33 cd		 xor	 ecx, ebp
  000f4	e8 00 00 00 00	 call	 @__security_check_cookie@4
  000f9	8b e5		 mov	 esp, ebp
  000fb	5d		 pop	 ebp
  000fc	c2 08 00	 ret	 8
$LN22@ViewVolume:

; 60   : 			return VS_PARTIAL;

  000ff	b8 01 00 00 00	 mov	 eax, 1

; 64   : }

  00104	8b 4d fc	 mov	 ecx, DWORD PTR __$ArrayPad$[ebp]
  00107	33 cd		 xor	 ecx, ebp
  00109	e8 00 00 00 00	 call	 @__security_check_cookie@4
  0010e	8b e5		 mov	 esp, ebp
  00110	5d		 pop	 ebp
  00111	c2 08 00	 ret	 8
$LN21@ViewVolume:
  00114	8b 4d fc	 mov	 ecx, DWORD PTR __$ArrayPad$[ebp]
  00117	b8 02 00 00 00	 mov	 eax, 2
  0011c	33 cd		 xor	 ecx, ebp
  0011e	e8 00 00 00 00	 call	 @__security_check_cookie@4
  00123	8b e5		 mov	 esp, ebp
  00125	5d		 pop	 ebp
  00126	c2 08 00	 ret	 8
?ViewVolumeTest@Frustum@@QBE?AW4ViewState@@ABVVector3d@@M@Z ENDP ; Frustum::ViewVolumeTest
_TEXT	ENDS
; Function compile flags: /Ogtp
; File C:\DS Project\DS Files\Source\ClientSource\Client\SphereLib\frustum.cpp
; File C:\DS Project\DS Files\Source\ClientSource\extern\include\d3dx8math.inl
; File C:\DS Project\DS Files\Source\ClientSource\Client\SphereLib\frustum.cpp
; File C:\DS Project\DS Files\Source\ClientSource\extern\include\d3dx8math.inl
; File C:\Program Files (x86)\Windows Kits\10\Include\10.0.18362.0\ucrt\corecrt_math.h
; File C:\DS Project\DS Files\Source\ClientSource\Client\SphereLib\frustum.cpp
; File C:\Program Files (x86)\Windows Kits\10\Include\10.0.18362.0\ucrt\corecrt_math.h
; File C:\DS Project\DS Files\Source\ClientSource\Client\SphereLib\frustum.cpp
; File C:\DS Project\DS Files\Source\ClientSource\extern\include\d3dx8math.inl
; File C:\Program Files (x86)\Windows Kits\10\Include\10.0.18362.0\ucrt\corecrt_math.h
; File C:\DS Project\DS Files\Source\ClientSource\Client\SphereLib\frustum.cpp
; File C:\DS Project\DS Files\Source\ClientSource\extern\include\d3dx8math.inl
; File C:\DS Project\DS Files\Source\ClientSource\Client\SphereLib\frustum.cpp
; File C:\DS Project\DS Files\Source\ClientSource\extern\include\d3dx8math.inl
; File C:\DS Project\DS Files\Source\ClientSource\Client\SphereLib\frustum.cpp
;	COMDAT ?BuildViewFrustum2@Frustum@@QAEXAAUD3DXMATRIX@@MMMMABUD3DXVECTOR3@@1@Z
_TEXT	SEGMENT
$T2 = -12						; size = 12
tv486 = -8						; size = 8
_mat$ = 8						; size = 4
_fNear$ = 12						; size = 4
_fFar$ = 16						; size = 4
tv402 = 20						; size = 4
_fH$ = 20						; size = 4
_fFov$ = 20						; size = 4
_fAspect$ = 24						; size = 4
_vCamera$ = 28						; size = 4
_vLook$ = 32						; size = 4
?BuildViewFrustum2@Frustum@@QAEXAAUD3DXMATRIX@@MMMMABUD3DXVECTOR3@@1@Z PROC ; Frustum::BuildViewFrustum2, COMDAT
; _this$ = ecx

; 82   : {

  00000	55		 push	 ebp
  00001	8b ec		 mov	 ebp, esp
  00003	83 ec 0c	 sub	 esp, 12			; 0000000cH

; 83   : 	float fViewLen = fFar-fNear;

  00006	f3 0f 10 45 10	 movss	 xmm0, DWORD PTR _fFar$[ebp]
  0000b	f3 0f 5c 45 0c	 subss	 xmm0, DWORD PTR _fNear$[ebp]
  00010	56		 push	 esi

; 84   : 	float fH = fViewLen * tan(fFov*0.5f);

  00011	83 ec 08	 sub	 esp, 8
  00014	8b f1		 mov	 esi, ecx
  00016	f3 0f 11 45 10	 movss	 DWORD PTR _fFar$[ebp], xmm0
  0001b	f3 0f 10 45 14	 movss	 xmm0, DWORD PTR _fFov$[ebp]
  00020	f3 0f 59 05 00
	00 00 00	 mulss	 xmm0, DWORD PTR __real@3f000000
  00028	0f 5a c0	 cvtps2pd xmm0, xmm0
  0002b	f2 0f 11 04 24	 movsd	 QWORD PTR [esp], xmm0
  00030	e8 00 00 00 00	 call	 _tan
  00035	f3 0f 10 6d 10	 movss	 xmm5, DWORD PTR _fFar$[ebp]
  0003a	0f 57 db	 xorps	 xmm3, xmm3
  0003d	0f 5a c5	 cvtps2pd xmm0, xmm5

; 86   : 	D3DXVECTOR3 P(0.0f, 0.0f, fNear+fViewLen*0.5f);

  00040	0f 28 e5	 movaps	 xmm4, xmm5
  00043	0f 57 d2	 xorps	 xmm2, xmm2
  00046	f3 0f 59 25 00
	00 00 00	 mulss	 xmm4, DWORD PTR __real@3f000000
  0004e	f2 0f 11 45 f8	 movsd	 QWORD PTR tv486[ebp], xmm0
  00053	dc 4d f8	 fmul	 QWORD PTR tv486[ebp]
  00056	f3 0f 58 65 0c	 addss	 xmm4, DWORD PTR _fNear$[ebp]
  0005b	d9 5d 14	 fstp	 DWORD PTR _fH$[ebp]
  0005e	f3 0f 10 45 14	 movss	 xmm0, DWORD PTR _fH$[ebp]
; File C:\DS Project\DS Files\Source\ClientSource\extern\include\d3dx8math.inl

; 263  :     return D3DXVECTOR3(x - v.x, y - v.y, z - v.z);

  00063	f3 0f 5c e5	 subss	 xmm4, xmm5
; File C:\DS Project\DS Files\Source\ClientSource\Client\SphereLib\frustum.cpp

; 85   : 	float fW = fH*fAspect;

  00067	f3 0f 59 45 18	 mulss	 xmm0, DWORD PTR _fAspect$[ebp]
; File C:\DS Project\DS Files\Source\ClientSource\extern\include\d3dx8math.inl

; 263  :     return D3DXVECTOR3(x - v.x, y - v.y, z - v.z);

  0006c	f3 0f 5c 55 14	 subss	 xmm2, DWORD PTR _fH$[ebp]
  00071	f3 0f 5c d8	 subss	 xmm3, xmm0

; 1239 :     return sqrtf(pV->x * pV->x + pV->y * pV->y + pV->z * pV->z);

  00075	f3 0f 59 e4	 mulss	 xmm4, xmm4
  00079	f3 0f 59 d2	 mulss	 xmm2, xmm2
  0007d	f3 0f 59 db	 mulss	 xmm3, xmm3
  00081	f3 0f 58 da	 addss	 xmm3, xmm2
  00085	f3 0f 58 dc	 addss	 xmm3, xmm4
; File C:\Program Files (x86)\Windows Kits\10\Include\10.0.18362.0\ucrt\corecrt_math.h

; 760  :             return (float)sqrt(_X);

  00089	0f 5a c3	 cvtps2pd xmm0, xmm3
  0008c	f2 0f 11 04 24	 movsd	 QWORD PTR [esp], xmm0
  00091	e8 00 00 00 00	 call	 _sqrt
; File C:\DS Project\DS Files\Source\ClientSource\Client\SphereLib\frustum.cpp

; 90   : 	m_v3Center = vCamera + vLook * (fNear+fViewLen*0.5f);

  00096	f3 0f 10 5d 10	 movss	 xmm3, DWORD PTR _fFar$[ebp]
; File C:\Program Files (x86)\Windows Kits\10\Include\10.0.18362.0\ucrt\corecrt_math.h

; 760  :             return (float)sqrt(_X);

  0009b	83 c4 08	 add	 esp, 8
; File C:\DS Project\DS Files\Source\ClientSource\Client\SphereLib\frustum.cpp

; 90   : 	m_v3Center = vCamera + vLook * (fNear+fViewLen*0.5f);

  0009e	f3 0f 59 1d 00
	00 00 00	 mulss	 xmm3, DWORD PTR __real@3f000000

; 91   : 	BuildViewFrustum(mat);

  000a6	8b ce		 mov	 ecx, esi
; File C:\DS Project\DS Files\Source\ClientSource\extern\include\d3dx8math.inl

; 269  :     return D3DXVECTOR3(x * f, y * f, z * f);

  000a8	8b 45 20	 mov	 eax, DWORD PTR _vLook$[ebp]
; File C:\Program Files (x86)\Windows Kits\10\Include\10.0.18362.0\ucrt\corecrt_math.h

; 760  :             return (float)sqrt(_X);

  000ab	d9 5d 14	 fstp	 DWORD PTR tv402[ebp]
; File C:\DS Project\DS Files\Source\ClientSource\Client\SphereLib\frustum.cpp

; 89   : 	m_fRadius = D3DXVec3Length(&PQ);

  000ae	f3 0f 10 45 14	 movss	 xmm0, DWORD PTR tv402[ebp]

; 90   : 	m_v3Center = vCamera + vLook * (fNear+fViewLen*0.5f);

  000b3	f3 0f 58 5d 0c	 addss	 xmm3, DWORD PTR _fNear$[ebp]

; 91   : 	BuildViewFrustum(mat);

  000b8	ff 75 08	 push	 DWORD PTR _mat$[ebp]
  000bb	f3 0f 11 46 10	 movss	 DWORD PTR [esi+16], xmm0
; File C:\DS Project\DS Files\Source\ClientSource\extern\include\d3dx8math.inl

; 269  :     return D3DXVECTOR3(x * f, y * f, z * f);

  000c0	f3 0f 10 00	 movss	 xmm0, DWORD PTR [eax]
  000c4	f3 0f 10 48 04	 movss	 xmm1, DWORD PTR [eax+4]
  000c9	f3 0f 10 50 08	 movss	 xmm2, DWORD PTR [eax+8]

; 257  :     return D3DXVECTOR3(x + v.x, y + v.y, z + v.z);

  000ce	8b 45 1c	 mov	 eax, DWORD PTR _vCamera$[ebp]

; 269  :     return D3DXVECTOR3(x * f, y * f, z * f);

  000d1	f3 0f 59 c3	 mulss	 xmm0, xmm3
  000d5	f3 0f 59 cb	 mulss	 xmm1, xmm3

; 257  :     return D3DXVECTOR3(x + v.x, y + v.y, z + v.z);

  000d9	f3 0f 10 20	 movss	 xmm4, DWORD PTR [eax]

; 269  :     return D3DXVECTOR3(x * f, y * f, z * f);

  000dd	f3 0f 59 d3	 mulss	 xmm2, xmm3

; 257  :     return D3DXVECTOR3(x + v.x, y + v.y, z + v.z);

  000e1	f3 0f 58 e0	 addss	 xmm4, xmm0
  000e5	f3 0f 10 58 04	 movss	 xmm3, DWORD PTR [eax+4]
  000ea	f3 0f 10 40 08	 movss	 xmm0, DWORD PTR [eax+8]
  000ef	f3 0f 58 d9	 addss	 xmm3, xmm1
  000f3	f3 0f 58 c2	 addss	 xmm0, xmm2
; File C:\DS Project\DS Files\Source\ClientSource\Client\SphereLib\frustum.cpp

; 90   : 	m_v3Center = vCamera + vLook * (fNear+fViewLen*0.5f);

  000f7	0f 14 e3	 unpcklps xmm4, xmm3
; File C:\DS Project\DS Files\Source\ClientSource\extern\include\d3dx8math.inl

; 182  :     z = fz;

  000fa	f3 0f 11 45 fc	 movss	 DWORD PTR $T2[ebp+8], xmm0
; File C:\DS Project\DS Files\Source\ClientSource\Client\SphereLib\frustum.cpp

; 90   : 	m_v3Center = vCamera + vLook * (fNear+fViewLen*0.5f);

  000ff	8b 45 fc	 mov	 eax, DWORD PTR $T2[ebp+8]
  00102	66 0f d6 66 04	 movq	 QWORD PTR [esi+4], xmm4
  00107	89 46 0c	 mov	 DWORD PTR [esi+12], eax

; 91   : 	BuildViewFrustum(mat);

  0010a	e8 00 00 00 00	 call	 ?BuildViewFrustum@Frustum@@QAEXAAUD3DXMATRIX@@@Z ; Frustum::BuildViewFrustum

; 92   : 	m_bUsingSphere = true;

  0010f	c6 06 01	 mov	 BYTE PTR [esi], 1
  00112	5e		 pop	 esi

; 93   : }

  00113	8b e5		 mov	 esp, ebp
  00115	5d		 pop	 ebp
  00116	c2 1c 00	 ret	 28			; 0000001cH
?BuildViewFrustum2@Frustum@@QAEXAAUD3DXMATRIX@@MMMMABUD3DXVECTOR3@@1@Z ENDP ; Frustum::BuildViewFrustum2
_TEXT	ENDS
; Function compile flags: /Ogtp
; File C:\DS Project\DS Files\Source\ClientSource\Client\SphereLib\frustum.cpp
; File C:\DS Project\DS Files\Source\ClientSource\extern\include\d3dx8math.inl
; File C:\DS Project\DS Files\Source\ClientSource\Client\SphereLib\frustum.cpp
; File C:\DS Project\DS Files\Source\ClientSource\extern\include\d3dx8math.inl
; File C:\DS Project\DS Files\Source\ClientSource\Client\SphereLib\frustum.cpp
; File C:\DS Project\DS Files\Source\ClientSource\extern\include\d3dx8math.inl
; File C:\DS Project\DS Files\Source\ClientSource\Client\SphereLib\frustum.cpp
; File C:\DS Project\DS Files\Source\ClientSource\extern\include\d3dx8math.inl
; File C:\DS Project\DS Files\Source\ClientSource\Client\SphereLib\frustum.cpp
; File C:\DS Project\DS Files\Source\ClientSource\extern\include\d3dx8math.inl
; File C:\DS Project\DS Files\Source\ClientSource\Client\SphereLib\frustum.cpp
; File C:\DS Project\DS Files\Source\ClientSource\extern\include\d3dx8math.inl
; File C:\DS Project\DS Files\Source\ClientSource\Client\SphereLib\frustum.cpp
; File C:\DS Project\DS Files\Source\ClientSource\extern\include\d3dx8math.inl
; File C:\DS Project\DS Files\Source\ClientSource\Client\SphereLib\frustum.cpp
;	COMDAT ?BuildViewFrustum@Frustum@@QAEXAAUD3DXMATRIX@@@Z
_TEXT	SEGMENT
$T1 = -16						; size = 16
$T2 = -16						; size = 16
$T3 = -16						; size = 16
$T4 = -16						; size = 16
$T5 = -16						; size = 16
$T6 = -16						; size = 16
_mat$ = 8						; size = 4
?BuildViewFrustum@Frustum@@QAEXAAUD3DXMATRIX@@@Z PROC	; Frustum::BuildViewFrustum, COMDAT
; _this$ = ecx

; 67   : {

  00000	55		 push	 ebp
  00001	8b ec		 mov	 ebp, esp
  00003	83 ec 10	 sub	 esp, 16			; 00000010H

; 69   : 	m_plane[0] = D3DXPLANE(          mat._13,           mat._23,           mat._33,           mat._43);

  00006	8b 45 08	 mov	 eax, DWORD PTR _mat$[ebp]
  00009	c6 01 00	 mov	 BYTE PTR [ecx], 0
  0000c	56		 push	 esi
  0000d	8d 71 14	 lea	 esi, DWORD PTR [ecx+20]
  00010	f3 0f 10 58 08	 movss	 xmm3, DWORD PTR [eax+8]
  00015	f3 0f 10 50 18	 movss	 xmm2, DWORD PTR [eax+24]
  0001a	f3 0f 10 48 28	 movss	 xmm1, DWORD PTR [eax+40]
  0001f	f3 0f 10 40 38	 movss	 xmm0, DWORD PTR [eax+56]
; File C:\DS Project\DS Files\Source\ClientSource\extern\include\d3dx8math.inl

; 829  :     a = fa;

  00024	f3 0f 11 5d f0	 movss	 DWORD PTR $T6[ebp], xmm3

; 830  :     b = fb;

  00029	f3 0f 11 55 f4	 movss	 DWORD PTR $T6[ebp+4], xmm2

; 831  :     c = fc;

  0002e	f3 0f 11 4d f8	 movss	 DWORD PTR $T6[ebp+8], xmm1

; 832  :     d = fd;

  00033	f3 0f 11 45 fc	 movss	 DWORD PTR $T6[ebp+12], xmm0
; File C:\DS Project\DS Files\Source\ClientSource\Client\SphereLib\frustum.cpp

; 69   : 	m_plane[0] = D3DXPLANE(          mat._13,           mat._23,           mat._33,           mat._43);

  00038	0f 10 45 f0	 movups	 xmm0, XMMWORD PTR $T6[ebp]
  0003c	57		 push	 edi
  0003d	0f 11 06	 movups	 XMMWORD PTR [esi], xmm0

; 70   : 	m_plane[1] = D3DXPLANE(mat._14 - mat._13, mat._24 - mat._23, mat._34 - mat._33, mat._44 - mat._43);

  00040	f3 0f 10 58 0c	 movss	 xmm3, DWORD PTR [eax+12]
  00045	f3 0f 5c 58 08	 subss	 xmm3, DWORD PTR [eax+8]
  0004a	f3 0f 10 50 1c	 movss	 xmm2, DWORD PTR [eax+28]
  0004f	f3 0f 5c 50 18	 subss	 xmm2, DWORD PTR [eax+24]
  00054	f3 0f 10 48 2c	 movss	 xmm1, DWORD PTR [eax+44]
  00059	f3 0f 5c 48 28	 subss	 xmm1, DWORD PTR [eax+40]
  0005e	f3 0f 10 40 3c	 movss	 xmm0, DWORD PTR [eax+60]
  00063	f3 0f 5c 40 38	 subss	 xmm0, DWORD PTR [eax+56]
; File C:\DS Project\DS Files\Source\ClientSource\extern\include\d3dx8math.inl

; 829  :     a = fa;

  00068	f3 0f 11 5d f0	 movss	 DWORD PTR $T5[ebp], xmm3

; 830  :     b = fb;

  0006d	f3 0f 11 55 f4	 movss	 DWORD PTR $T5[ebp+4], xmm2

; 831  :     c = fc;

  00072	f3 0f 11 4d f8	 movss	 DWORD PTR $T5[ebp+8], xmm1

; 832  :     d = fd;

  00077	f3 0f 11 45 fc	 movss	 DWORD PTR $T5[ebp+12], xmm0
; File C:\DS Project\DS Files\Source\ClientSource\Client\SphereLib\frustum.cpp

; 70   : 	m_plane[1] = D3DXPLANE(mat._14 - mat._13, mat._24 - mat._23, mat._34 - mat._33, mat._44 - mat._43);

  0007c	0f 10 45 f0	 movups	 xmm0, XMMWORD PTR $T5[ebp]
  00080	0f 11 41 24	 movups	 XMMWORD PTR [ecx+36], xmm0

; 72   : 	m_plane[2] = D3DXPLANE(mat._14 + mat._11, mat._24 + mat._21, mat._34 + mat._31, mat._44 + mat._41);

  00084	f3 0f 10 18	 movss	 xmm3, DWORD PTR [eax]
  00088	f3 0f 58 58 0c	 addss	 xmm3, DWORD PTR [eax+12]
  0008d	f3 0f 10 50 10	 movss	 xmm2, DWORD PTR [eax+16]
  00092	f3 0f 58 50 1c	 addss	 xmm2, DWORD PTR [eax+28]
  00097	f3 0f 10 48 20	 movss	 xmm1, DWORD PTR [eax+32]
  0009c	f3 0f 58 48 2c	 addss	 xmm1, DWORD PTR [eax+44]
  000a1	f3 0f 10 40 30	 movss	 xmm0, DWORD PTR [eax+48]
  000a6	f3 0f 58 40 3c	 addss	 xmm0, DWORD PTR [eax+60]
; File C:\DS Project\DS Files\Source\ClientSource\extern\include\d3dx8math.inl

; 829  :     a = fa;

  000ab	f3 0f 11 5d f0	 movss	 DWORD PTR $T4[ebp], xmm3

; 830  :     b = fb;

  000b0	f3 0f 11 55 f4	 movss	 DWORD PTR $T4[ebp+4], xmm2

; 831  :     c = fc;

  000b5	f3 0f 11 4d f8	 movss	 DWORD PTR $T4[ebp+8], xmm1

; 832  :     d = fd;

  000ba	f3 0f 11 45 fc	 movss	 DWORD PTR $T4[ebp+12], xmm0
; File C:\DS Project\DS Files\Source\ClientSource\Client\SphereLib\frustum.cpp

; 72   : 	m_plane[2] = D3DXPLANE(mat._14 + mat._11, mat._24 + mat._21, mat._34 + mat._31, mat._44 + mat._41);

  000bf	0f 10 45 f0	 movups	 xmm0, XMMWORD PTR $T4[ebp]
  000c3	0f 11 41 34	 movups	 XMMWORD PTR [ecx+52], xmm0

; 73   : 	m_plane[3] = D3DXPLANE(mat._14 - mat._11, mat._24 - mat._21, mat._34 - mat._31, mat._44 - mat._41);

  000c7	f3 0f 10 58 0c	 movss	 xmm3, DWORD PTR [eax+12]
  000cc	f3 0f 5c 18	 subss	 xmm3, DWORD PTR [eax]
  000d0	f3 0f 10 50 1c	 movss	 xmm2, DWORD PTR [eax+28]
  000d5	f3 0f 5c 50 10	 subss	 xmm2, DWORD PTR [eax+16]
  000da	f3 0f 10 48 2c	 movss	 xmm1, DWORD PTR [eax+44]
  000df	f3 0f 5c 48 20	 subss	 xmm1, DWORD PTR [eax+32]
  000e4	f3 0f 10 40 3c	 movss	 xmm0, DWORD PTR [eax+60]
  000e9	f3 0f 5c 40 30	 subss	 xmm0, DWORD PTR [eax+48]
; File C:\DS Project\DS Files\Source\ClientSource\extern\include\d3dx8math.inl

; 829  :     a = fa;

  000ee	f3 0f 11 5d f0	 movss	 DWORD PTR $T3[ebp], xmm3

; 830  :     b = fb;

  000f3	f3 0f 11 55 f4	 movss	 DWORD PTR $T3[ebp+4], xmm2

; 831  :     c = fc;

  000f8	f3 0f 11 4d f8	 movss	 DWORD PTR $T3[ebp+8], xmm1

; 832  :     d = fd;

  000fd	f3 0f 11 45 fc	 movss	 DWORD PTR $T3[ebp+12], xmm0
; File C:\DS Project\DS Files\Source\ClientSource\Client\SphereLib\frustum.cpp

; 73   : 	m_plane[3] = D3DXPLANE(mat._14 - mat._11, mat._24 - mat._21, mat._34 - mat._31, mat._44 - mat._41);

  00102	0f 10 45 f0	 movups	 xmm0, XMMWORD PTR $T3[ebp]
  00106	0f 11 41 44	 movups	 XMMWORD PTR [ecx+68], xmm0

; 74   : 	m_plane[4] = D3DXPLANE(mat._14 + mat._12, mat._24 + mat._22, mat._34 + mat._32, mat._44 + mat._42);

  0010a	f3 0f 10 58 0c	 movss	 xmm3, DWORD PTR [eax+12]
  0010f	f3 0f 10 50 1c	 movss	 xmm2, DWORD PTR [eax+28]
  00114	f3 0f 10 48 2c	 movss	 xmm1, DWORD PTR [eax+44]
  00119	f3 0f 10 40 3c	 movss	 xmm0, DWORD PTR [eax+60]
  0011e	f3 0f 58 40 34	 addss	 xmm0, DWORD PTR [eax+52]
  00123	f3 0f 58 58 04	 addss	 xmm3, DWORD PTR [eax+4]
  00128	f3 0f 58 50 14	 addss	 xmm2, DWORD PTR [eax+20]
  0012d	f3 0f 58 48 24	 addss	 xmm1, DWORD PTR [eax+36]
; File C:\DS Project\DS Files\Source\ClientSource\extern\include\d3dx8math.inl

; 832  :     d = fd;

  00132	f3 0f 11 45 fc	 movss	 DWORD PTR $T2[ebp+12], xmm0
  00137	f3 0f 11 5d f0	 movss	 DWORD PTR $T2[ebp], xmm3
  0013c	f3 0f 11 55 f4	 movss	 DWORD PTR $T2[ebp+4], xmm2
  00141	f3 0f 11 4d f8	 movss	 DWORD PTR $T2[ebp+8], xmm1
; File C:\DS Project\DS Files\Source\ClientSource\Client\SphereLib\frustum.cpp

; 74   : 	m_plane[4] = D3DXPLANE(mat._14 + mat._12, mat._24 + mat._22, mat._34 + mat._32, mat._44 + mat._42);

  00146	0f 10 45 f0	 movups	 xmm0, XMMWORD PTR $T2[ebp]
  0014a	0f 11 41 54	 movups	 XMMWORD PTR [ecx+84], xmm0

; 75   : 	m_plane[5] = D3DXPLANE(mat._14 - mat._12, mat._24 - mat._22, mat._34 - mat._32, mat._44 - mat._42);

  0014e	f3 0f 10 58 0c	 movss	 xmm3, DWORD PTR [eax+12]
  00153	f3 0f 10 50 1c	 movss	 xmm2, DWORD PTR [eax+28]
  00158	f3 0f 5c 58 04	 subss	 xmm3, DWORD PTR [eax+4]
  0015d	f3 0f 5c 50 14	 subss	 xmm2, DWORD PTR [eax+20]
  00162	f3 0f 10 48 2c	 movss	 xmm1, DWORD PTR [eax+44]
  00167	f3 0f 10 40 3c	 movss	 xmm0, DWORD PTR [eax+60]
  0016c	f3 0f 5c 48 24	 subss	 xmm1, DWORD PTR [eax+36]
  00171	f3 0f 5c 40 34	 subss	 xmm0, DWORD PTR [eax+52]
; File C:\DS Project\DS Files\Source\ClientSource\extern\include\d3dx8math.inl

; 829  :     a = fa;

  00176	f3 0f 11 5d f0	 movss	 DWORD PTR $T1[ebp], xmm3

; 830  :     b = fb;

  0017b	f3 0f 11 55 f4	 movss	 DWORD PTR $T1[ebp+4], xmm2

; 831  :     c = fc;

  00180	f3 0f 11 4d f8	 movss	 DWORD PTR $T1[ebp+8], xmm1
; File C:\DS Project\DS Files\Source\ClientSource\Client\SphereLib\frustum.cpp

; 69   : 	m_plane[0] = D3DXPLANE(          mat._13,           mat._23,           mat._33,           mat._43);

  00185	bf 06 00 00 00	 mov	 edi, 6
; File C:\DS Project\DS Files\Source\ClientSource\extern\include\d3dx8math.inl

; 832  :     d = fd;

  0018a	f3 0f 11 45 fc	 movss	 DWORD PTR $T1[ebp+12], xmm0
; File C:\DS Project\DS Files\Source\ClientSource\Client\SphereLib\frustum.cpp

; 75   : 	m_plane[5] = D3DXPLANE(mat._14 - mat._12, mat._24 - mat._22, mat._34 - mat._32, mat._44 - mat._42);

  0018f	0f 10 45 f0	 movups	 xmm0, XMMWORD PTR $T1[ebp]
  00193	0f 11 41 64	 movups	 XMMWORD PTR [ecx+100], xmm0
$LL4@BuildViewF:

; 76   : 
; 77   : 	for(int i=0;i<6;i++)
; 78   : 		D3DXPlaneNormalize(&m_plane[i],&m_plane[i]);

  00197	56		 push	 esi
  00198	56		 push	 esi
  00199	e8 00 00 00 00	 call	 _D3DXPlaneNormalize@8
  0019e	83 c6 10	 add	 esi, 16			; 00000010H
  001a1	83 ef 01	 sub	 edi, 1
  001a4	75 f1		 jne	 SHORT $LL4@BuildViewF

; 79   : }

  001a6	5f		 pop	 edi
  001a7	5e		 pop	 esi
  001a8	8b e5		 mov	 esp, ebp
  001aa	5d		 pop	 ebp
  001ab	c2 04 00	 ret	 4
?BuildViewFrustum@Frustum@@QAEXAAUD3DXMATRIX@@@Z ENDP	; Frustum::BuildViewFrustum
_TEXT	ENDS
END
