; Listing generated by Microsoft (R) Optimizing Compiler Version 19.27.29112.0 

	TITLE	C:\DS Project\DS Files\Source\ClientSource\Client\SphereLib\spherepack.cpp
	.686P
	.XMM
	include listing.inc
	.model	flat

INCLUDELIB LIBCMT
INCLUDELIB OLDNAMES

PUBLIC	??1Sphere@@UAE@XZ				; Sphere::~Sphere
PUBLIC	??_GSphere@@UAEPAXI@Z				; Sphere::`scalar deleting destructor'
PUBLIC	??1SpherePackCallback@@UAE@XZ			; SpherePackCallback::~SpherePackCallback
PUBLIC	?VisibilityCallback@SpherePackCallback@@UAEXABVFrustum@@PAVSpherePack@@W4ViewState@@@Z ; SpherePackCallback::VisibilityCallback
PUBLIC	?RayTraceCallback@SpherePackCallback@@UAEXABVVector3d@@0M0PAVSpherePack@@@Z ; SpherePackCallback::RayTraceCallback
PUBLIC	?RangeTestCallback@SpherePackCallback@@UAEXABVVector3d@@MPAVSpherePack@@W4ViewState@@@Z ; SpherePackCallback::RangeTestCallback
PUBLIC	?PointTest2dCallback@SpherePackCallback@@UAEXABVVector3d@@PAVSpherePack@@W4ViewState@@@Z ; SpherePackCallback::PointTest2dCallback
PUBLIC	??_GSpherePackCallback@@UAEPAXI@Z		; SpherePackCallback::`scalar deleting destructor'
PUBLIC	??0SpherePack@@QAE@XZ				; SpherePack::SpherePack
PUBLIC	??1SpherePack@@UAE@XZ				; SpherePack::~SpherePack
PUBLIC	?Init@SpherePack@@QAEXPAVSpherePackFactory@@ABVVector3d@@MPAX_N@Z ; SpherePack::Init
PUBLIC	?NewPosRadius@SpherePack@@QAEXABVVector3d@@M@Z	; SpherePack::NewPosRadius
PUBLIC	?Unlink@SpherePack@@QAEXXZ			; SpherePack::Unlink
PUBLIC	?LostChild@SpherePack@@QAEXPAV1@@Z		; SpherePack::LostChild
PUBLIC	?Render@SpherePack@@QAEXI@Z			; SpherePack::Render
PUBLIC	?Recompute@SpherePack@@QAE_NM@Z			; SpherePack::Recompute
PUBLIC	?VisibilityTest@SpherePack@@QAEXABVFrustum@@PAVSpherePackCallback@@W4ViewState@@@Z ; SpherePack::VisibilityTest
PUBLIC	?RayTrace@SpherePack@@QAEXABVVector3d@@0MPAVSpherePackCallback@@@Z ; SpherePack::RayTrace
PUBLIC	?RangeTest@SpherePack@@QAEXABVVector3d@@MPAVSpherePackCallback@@W4ViewState@@@Z ; SpherePack::RangeTest
PUBLIC	?PointTest2d@SpherePack@@QAEXABVVector3d@@PAVSpherePackCallback@@W4ViewState@@@Z ; SpherePack::PointTest2d
PUBLIC	?Reset@SpherePack@@QAEXXZ			; SpherePack::Reset
PUBLIC	??_ESpherePack@@UAEPAXI@Z			; SpherePack::`vector deleting destructor'
PUBLIC	??1SpherePackFifo@@UAE@XZ			; SpherePackFifo::~SpherePackFifo
PUBLIC	??_GSpherePackFifo@@UAEPAXI@Z			; SpherePackFifo::`scalar deleting destructor'
PUBLIC	??0SpherePackFactory@@QAE@HMMM@Z		; SpherePackFactory::SpherePackFactory
PUBLIC	??1SpherePackFactory@@UAE@XZ			; SpherePackFactory::~SpherePackFactory
PUBLIC	?Process@SpherePackFactory@@QAEXXZ		; SpherePackFactory::Process
PUBLIC	?AddSphere_@SpherePackFactory@@QAEPAVSpherePack@@ABVVector3d@@MPAX_NH@Z ; SpherePackFactory::AddSphere_
PUBLIC	?AddIntegrate@SpherePackFactory@@QAEXPAVSpherePack@@@Z ; SpherePackFactory::AddIntegrate
PUBLIC	?AddRecompute@SpherePackFactory@@QAEXPAVSpherePack@@@Z ; SpherePackFactory::AddRecompute
PUBLIC	?Integrate@SpherePackFactory@@QAEXPAVSpherePack@@0M@Z ; SpherePackFactory::Integrate
PUBLIC	?Render@SpherePackFactory@@QAEXXZ		; SpherePackFactory::Render
PUBLIC	?Remove@SpherePackFactory@@QAEXPAVSpherePack@@@Z ; SpherePackFactory::Remove
PUBLIC	?FrustumTest@SpherePackFactory@@QAEXABVFrustum@@PAVSpherePackCallback@@@Z ; SpherePackFactory::FrustumTest
PUBLIC	?RayTrace@SpherePackFactory@@QAEXABVVector3d@@0PAVSpherePackCallback@@@Z ; SpherePackFactory::RayTrace
PUBLIC	?RangeTest@SpherePackFactory@@QAEXABVVector3d@@MPAVSpherePackCallback@@@Z ; SpherePackFactory::RangeTest
PUBLIC	?PointTest2d@SpherePackFactory@@QAEXABVVector3d@@PAVSpherePackCallback@@@Z ; SpherePackFactory::PointTest2d
PUBLIC	?RayTraceCallback@SpherePackFactory@@UAEXABVVector3d@@0M0PAVSpherePack@@@Z ; SpherePackFactory::RayTraceCallback
PUBLIC	?RangeTestCallback@SpherePackFactory@@UAEXABVVector3d@@MPAVSpherePack@@W4ViewState@@@Z ; SpherePackFactory::RangeTestCallback
PUBLIC	?PointTest2dCallback@SpherePackFactory@@UAEXABVVector3d@@PAVSpherePack@@W4ViewState@@@Z ; SpherePackFactory::PointTest2dCallback
PUBLIC	?VisibilityCallback@SpherePackFactory@@UAEXABVFrustum@@PAVSpherePack@@W4ViewState@@@Z ; SpherePackFactory::VisibilityCallback
PUBLIC	?Reset@SpherePackFactory@@QAEXXZ		; SpherePackFactory::Reset
PUBLIC	??1?$Pool@VSpherePack@@@@QAE@XZ			; Pool<SpherePack>::~Pool<SpherePack>
PUBLIC	?GetFreeLink@?$Pool@VSpherePack@@@@QAEPAVSpherePack@@XZ ; Pool<SpherePack>::GetFreeLink
PUBLIC	??_GSpherePackFactory@@UAEPAXI@Z		; SpherePackFactory::`scalar deleting destructor'
PUBLIC	??_7Sphere@@6B@					; Sphere::`vftable'
PUBLIC	??_7SpherePackCallback@@6B@			; SpherePackCallback::`vftable'
PUBLIC	??_7SpherePack@@6B@				; SpherePack::`vftable'
PUBLIC	??_7SpherePackFifo@@6B@				; SpherePackFifo::`vftable'
PUBLIC	??_7SpherePackFactory@@6B@			; SpherePackFactory::`vftable'
PUBLIC	??_R4Sphere@@6B@				; Sphere::`RTTI Complete Object Locator'
PUBLIC	??_R0?AVSphere@@@8				; Sphere `RTTI Type Descriptor'
PUBLIC	??_R3Sphere@@8					; Sphere::`RTTI Class Hierarchy Descriptor'
PUBLIC	??_R2Sphere@@8					; Sphere::`RTTI Base Class Array'
PUBLIC	??_R1A@?0A@EA@Sphere@@8				; Sphere::`RTTI Base Class Descriptor at (0,-1,0,64)'
PUBLIC	??_R4SpherePackFactory@@6B@			; SpherePackFactory::`RTTI Complete Object Locator'
PUBLIC	??_R0?AVSpherePackFactory@@@8			; SpherePackFactory `RTTI Type Descriptor'
PUBLIC	??_R3SpherePackFactory@@8			; SpherePackFactory::`RTTI Class Hierarchy Descriptor'
PUBLIC	??_R2SpherePackFactory@@8			; SpherePackFactory::`RTTI Base Class Array'
PUBLIC	??_R1A@?0A@EA@SpherePackFactory@@8		; SpherePackFactory::`RTTI Base Class Descriptor at (0,-1,0,64)'
PUBLIC	??_R1A@?0A@EA@SpherePackCallback@@8		; SpherePackCallback::`RTTI Base Class Descriptor at (0,-1,0,64)'
PUBLIC	??_R0?AVSpherePackCallback@@@8			; SpherePackCallback `RTTI Type Descriptor'
PUBLIC	??_R3SpherePackCallback@@8			; SpherePackCallback::`RTTI Class Hierarchy Descriptor'
PUBLIC	??_R2SpherePackCallback@@8			; SpherePackCallback::`RTTI Base Class Array'
PUBLIC	??_R4SpherePack@@6B@				; SpherePack::`RTTI Complete Object Locator'
PUBLIC	??_R0?AVSpherePack@@@8				; SpherePack `RTTI Type Descriptor'
PUBLIC	??_R3SpherePack@@8				; SpherePack::`RTTI Class Hierarchy Descriptor'
PUBLIC	??_R2SpherePack@@8				; SpherePack::`RTTI Base Class Array'
PUBLIC	??_R1A@?0A@EA@SpherePack@@8			; SpherePack::`RTTI Base Class Descriptor at (0,-1,0,64)'
PUBLIC	??_R4SpherePackCallback@@6B@			; SpherePackCallback::`RTTI Complete Object Locator'
PUBLIC	??_R4SpherePackFifo@@6B@			; SpherePackFifo::`RTTI Complete Object Locator'
PUBLIC	??_R0?AVSpherePackFifo@@@8			; SpherePackFifo `RTTI Type Descriptor'
PUBLIC	??_R3SpherePackFifo@@8				; SpherePackFifo::`RTTI Class Hierarchy Descriptor'
PUBLIC	??_R2SpherePackFifo@@8				; SpherePackFifo::`RTTI Base Class Array'
PUBLIC	??_R1A@?0A@EA@SpherePackFifo@@8			; SpherePackFifo::`RTTI Base Class Descriptor at (0,-1,0,64)'
PUBLIC	__real@3f800000
PUBLIC	__real@49c80000
PUBLIC	__real@4ac80000
PUBLIC	__real@7e967699
PUBLIC	__xmm@80000000800000008000000080000000
EXTRN	??_L@YGXPAXIIP6EX0@Z1@Z:PROC			; `eh vector constructor iterator'
EXTRN	??_M@YGXPAXIIP6EX0@Z@Z:PROC			; `eh vector destructor iterator'
EXTRN	??2@YAPAXI@Z:PROC				; operator new
EXTRN	??3@YAXPAXI@Z:PROC				; operator delete
EXTRN	??_U@YAPAXI@Z:PROC				; operator new[]
EXTRN	??_V@YAXPAX@Z:PROC				; operator delete[]
EXTRN	??_V@YAXPAXI@Z:PROC				; operator delete[]
EXTRN	_sqrt:PROC
EXTRN	?RayIntersection@Sphere@@QAE_NABVVector3d@@0MPAV2@@Z:PROC ; Sphere::RayIntersection
EXTRN	?RayIntersectionInFront@Sphere@@QAE_NABVVector3d@@0PAV2@@Z:PROC ; Sphere::RayIntersectionInFront
EXTRN	??_ESphere@@UAEPAXI@Z:PROC			; Sphere::`vector deleting destructor'
EXTRN	?ViewVolumeTest@Frustum@@QBE?AW4ViewState@@ABVVector3d@@M@Z:PROC ; Frustum::ViewVolumeTest
EXTRN	??_ESpherePackCallback@@UAEPAXI@Z:PROC		; SpherePackCallback::`vector deleting destructor'
EXTRN	??_ESpherePackFifo@@UAEPAXI@Z:PROC		; SpherePackFifo::`vector deleting destructor'
EXTRN	??_ESpherePackFactory@@UAEPAXI@Z:PROC		; SpherePackFactory::`vector deleting destructor'
EXTRN	@__security_check_cookie@4:PROC
EXTRN	___CxxFrameHandler3:PROC
EXTRN	??_7type_info@@6B@:QWORD			; type_info::`vftable'
EXTRN	___security_cookie:DWORD
EXTRN	__fltused:DWORD
;	COMDAT __xmm@80000000800000008000000080000000
CONST	SEGMENT
__xmm@80000000800000008000000080000000 DB 00H, 00H, 00H, 080H, 00H, 00H, 00H
	DB	080H, 00H, 00H, 00H, 080H, 00H, 00H, 00H, 080H
CONST	ENDS
;	COMDAT __real@7e967699
CONST	SEGMENT
__real@7e967699 DD 07e967699r			; 1e+38
CONST	ENDS
;	COMDAT __real@4ac80000
CONST	SEGMENT
__real@4ac80000 DD 04ac80000r			; 6.5536e+06
CONST	ENDS
;	COMDAT __real@49c80000
CONST	SEGMENT
__real@49c80000 DD 049c80000r			; 1.6384e+06
CONST	ENDS
;	COMDAT __real@3f800000
CONST	SEGMENT
__real@3f800000 DD 03f800000r			; 1
CONST	ENDS
;	COMDAT ??_R1A@?0A@EA@SpherePackFifo@@8
rdata$r	SEGMENT
??_R1A@?0A@EA@SpherePackFifo@@8 DD FLAT:??_R0?AVSpherePackFifo@@@8 ; SpherePackFifo::`RTTI Base Class Descriptor at (0,-1,0,64)'
	DD	00H
	DD	00H
	DD	0ffffffffH
	DD	00H
	DD	040H
	DD	FLAT:??_R3SpherePackFifo@@8
rdata$r	ENDS
;	COMDAT ??_R2SpherePackFifo@@8
rdata$r	SEGMENT
??_R2SpherePackFifo@@8 DD FLAT:??_R1A@?0A@EA@SpherePackFifo@@8 ; SpherePackFifo::`RTTI Base Class Array'
rdata$r	ENDS
;	COMDAT ??_R3SpherePackFifo@@8
rdata$r	SEGMENT
??_R3SpherePackFifo@@8 DD 00H				; SpherePackFifo::`RTTI Class Hierarchy Descriptor'
	DD	00H
	DD	01H
	DD	FLAT:??_R2SpherePackFifo@@8
rdata$r	ENDS
;	COMDAT ??_R0?AVSpherePackFifo@@@8
data$r	SEGMENT
??_R0?AVSpherePackFifo@@@8 DD FLAT:??_7type_info@@6B@	; SpherePackFifo `RTTI Type Descriptor'
	DD	00H
	DB	'.?AVSpherePackFifo@@', 00H
data$r	ENDS
;	COMDAT ??_R4SpherePackFifo@@6B@
rdata$r	SEGMENT
??_R4SpherePackFifo@@6B@ DD 00H				; SpherePackFifo::`RTTI Complete Object Locator'
	DD	00H
	DD	00H
	DD	FLAT:??_R0?AVSpherePackFifo@@@8
	DD	FLAT:??_R3SpherePackFifo@@8
rdata$r	ENDS
;	COMDAT ??_R4SpherePackCallback@@6B@
rdata$r	SEGMENT
??_R4SpherePackCallback@@6B@ DD 00H			; SpherePackCallback::`RTTI Complete Object Locator'
	DD	00H
	DD	00H
	DD	FLAT:??_R0?AVSpherePackCallback@@@8
	DD	FLAT:??_R3SpherePackCallback@@8
rdata$r	ENDS
;	COMDAT ??_R1A@?0A@EA@SpherePack@@8
rdata$r	SEGMENT
??_R1A@?0A@EA@SpherePack@@8 DD FLAT:??_R0?AVSpherePack@@@8 ; SpherePack::`RTTI Base Class Descriptor at (0,-1,0,64)'
	DD	01H
	DD	00H
	DD	0ffffffffH
	DD	00H
	DD	040H
	DD	FLAT:??_R3SpherePack@@8
rdata$r	ENDS
;	COMDAT ??_R2SpherePack@@8
rdata$r	SEGMENT
??_R2SpherePack@@8 DD FLAT:??_R1A@?0A@EA@SpherePack@@8	; SpherePack::`RTTI Base Class Array'
	DD	FLAT:??_R1A@?0A@EA@Sphere@@8
rdata$r	ENDS
;	COMDAT ??_R3SpherePack@@8
rdata$r	SEGMENT
??_R3SpherePack@@8 DD 00H				; SpherePack::`RTTI Class Hierarchy Descriptor'
	DD	00H
	DD	02H
	DD	FLAT:??_R2SpherePack@@8
rdata$r	ENDS
;	COMDAT ??_R0?AVSpherePack@@@8
data$r	SEGMENT
??_R0?AVSpherePack@@@8 DD FLAT:??_7type_info@@6B@	; SpherePack `RTTI Type Descriptor'
	DD	00H
	DB	'.?AVSpherePack@@', 00H
data$r	ENDS
;	COMDAT ??_R4SpherePack@@6B@
rdata$r	SEGMENT
??_R4SpherePack@@6B@ DD 00H				; SpherePack::`RTTI Complete Object Locator'
	DD	00H
	DD	00H
	DD	FLAT:??_R0?AVSpherePack@@@8
	DD	FLAT:??_R3SpherePack@@8
rdata$r	ENDS
;	COMDAT ??_R2SpherePackCallback@@8
rdata$r	SEGMENT
??_R2SpherePackCallback@@8 DD FLAT:??_R1A@?0A@EA@SpherePackCallback@@8 ; SpherePackCallback::`RTTI Base Class Array'
rdata$r	ENDS
;	COMDAT ??_R3SpherePackCallback@@8
rdata$r	SEGMENT
??_R3SpherePackCallback@@8 DD 00H			; SpherePackCallback::`RTTI Class Hierarchy Descriptor'
	DD	00H
	DD	01H
	DD	FLAT:??_R2SpherePackCallback@@8
rdata$r	ENDS
;	COMDAT ??_R0?AVSpherePackCallback@@@8
data$r	SEGMENT
??_R0?AVSpherePackCallback@@@8 DD FLAT:??_7type_info@@6B@ ; SpherePackCallback `RTTI Type Descriptor'
	DD	00H
	DB	'.?AVSpherePackCallback@@', 00H
data$r	ENDS
;	COMDAT ??_R1A@?0A@EA@SpherePackCallback@@8
rdata$r	SEGMENT
??_R1A@?0A@EA@SpherePackCallback@@8 DD FLAT:??_R0?AVSpherePackCallback@@@8 ; SpherePackCallback::`RTTI Base Class Descriptor at (0,-1,0,64)'
	DD	00H
	DD	00H
	DD	0ffffffffH
	DD	00H
	DD	040H
	DD	FLAT:??_R3SpherePackCallback@@8
rdata$r	ENDS
;	COMDAT ??_R1A@?0A@EA@SpherePackFactory@@8
rdata$r	SEGMENT
??_R1A@?0A@EA@SpherePackFactory@@8 DD FLAT:??_R0?AVSpherePackFactory@@@8 ; SpherePackFactory::`RTTI Base Class Descriptor at (0,-1,0,64)'
	DD	01H
	DD	00H
	DD	0ffffffffH
	DD	00H
	DD	040H
	DD	FLAT:??_R3SpherePackFactory@@8
rdata$r	ENDS
;	COMDAT ??_R2SpherePackFactory@@8
rdata$r	SEGMENT
??_R2SpherePackFactory@@8 DD FLAT:??_R1A@?0A@EA@SpherePackFactory@@8 ; SpherePackFactory::`RTTI Base Class Array'
	DD	FLAT:??_R1A@?0A@EA@SpherePackCallback@@8
rdata$r	ENDS
;	COMDAT ??_R3SpherePackFactory@@8
rdata$r	SEGMENT
??_R3SpherePackFactory@@8 DD 00H			; SpherePackFactory::`RTTI Class Hierarchy Descriptor'
	DD	00H
	DD	02H
	DD	FLAT:??_R2SpherePackFactory@@8
rdata$r	ENDS
;	COMDAT ??_R0?AVSpherePackFactory@@@8
data$r	SEGMENT
??_R0?AVSpherePackFactory@@@8 DD FLAT:??_7type_info@@6B@ ; SpherePackFactory `RTTI Type Descriptor'
	DD	00H
	DB	'.?AVSpherePackFactory@@', 00H
data$r	ENDS
;	COMDAT ??_R4SpherePackFactory@@6B@
rdata$r	SEGMENT
??_R4SpherePackFactory@@6B@ DD 00H			; SpherePackFactory::`RTTI Complete Object Locator'
	DD	00H
	DD	00H
	DD	FLAT:??_R0?AVSpherePackFactory@@@8
	DD	FLAT:??_R3SpherePackFactory@@8
rdata$r	ENDS
;	COMDAT ??_R1A@?0A@EA@Sphere@@8
rdata$r	SEGMENT
??_R1A@?0A@EA@Sphere@@8 DD FLAT:??_R0?AVSphere@@@8	; Sphere::`RTTI Base Class Descriptor at (0,-1,0,64)'
	DD	00H
	DD	00H
	DD	0ffffffffH
	DD	00H
	DD	040H
	DD	FLAT:??_R3Sphere@@8
rdata$r	ENDS
;	COMDAT ??_R2Sphere@@8
rdata$r	SEGMENT
??_R2Sphere@@8 DD FLAT:??_R1A@?0A@EA@Sphere@@8		; Sphere::`RTTI Base Class Array'
rdata$r	ENDS
;	COMDAT ??_R3Sphere@@8
rdata$r	SEGMENT
??_R3Sphere@@8 DD 00H					; Sphere::`RTTI Class Hierarchy Descriptor'
	DD	00H
	DD	01H
	DD	FLAT:??_R2Sphere@@8
rdata$r	ENDS
;	COMDAT ??_R0?AVSphere@@@8
data$r	SEGMENT
??_R0?AVSphere@@@8 DD FLAT:??_7type_info@@6B@		; Sphere `RTTI Type Descriptor'
	DD	00H
	DB	'.?AVSphere@@', 00H
data$r	ENDS
;	COMDAT ??_R4Sphere@@6B@
rdata$r	SEGMENT
??_R4Sphere@@6B@ DD 00H					; Sphere::`RTTI Complete Object Locator'
	DD	00H
	DD	00H
	DD	FLAT:??_R0?AVSphere@@@8
	DD	FLAT:??_R3Sphere@@8
rdata$r	ENDS
;	COMDAT ??_7SpherePackFactory@@6B@
CONST	SEGMENT
??_7SpherePackFactory@@6B@ DD FLAT:??_R4SpherePackFactory@@6B@ ; SpherePackFactory::`vftable'
	DD	FLAT:??_ESpherePackFactory@@UAEPAXI@Z
	DD	FLAT:?VisibilityCallback@SpherePackFactory@@UAEXABVFrustum@@PAVSpherePack@@W4ViewState@@@Z
	DD	FLAT:?RayTraceCallback@SpherePackFactory@@UAEXABVVector3d@@0M0PAVSpherePack@@@Z
	DD	FLAT:?RangeTestCallback@SpherePackFactory@@UAEXABVVector3d@@MPAVSpherePack@@W4ViewState@@@Z
	DD	FLAT:?PointTest2dCallback@SpherePackFactory@@UAEXABVVector3d@@PAVSpherePack@@W4ViewState@@@Z
CONST	ENDS
;	COMDAT ??_7SpherePackFifo@@6B@
CONST	SEGMENT
??_7SpherePackFifo@@6B@ DD FLAT:??_R4SpherePackFifo@@6B@ ; SpherePackFifo::`vftable'
	DD	FLAT:??_ESpherePackFifo@@UAEPAXI@Z
CONST	ENDS
;	COMDAT ??_7SpherePack@@6B@
CONST	SEGMENT
??_7SpherePack@@6B@ DD FLAT:??_R4SpherePack@@6B@	; SpherePack::`vftable'
	DD	FLAT:??_ESpherePack@@UAEPAXI@Z
CONST	ENDS
;	COMDAT ??_7SpherePackCallback@@6B@
CONST	SEGMENT
??_7SpherePackCallback@@6B@ DD FLAT:??_R4SpherePackCallback@@6B@ ; SpherePackCallback::`vftable'
	DD	FLAT:??_ESpherePackCallback@@UAEPAXI@Z
	DD	FLAT:?VisibilityCallback@SpherePackCallback@@UAEXABVFrustum@@PAVSpherePack@@W4ViewState@@@Z
	DD	FLAT:?RayTraceCallback@SpherePackCallback@@UAEXABVVector3d@@0M0PAVSpherePack@@@Z
	DD	FLAT:?RangeTestCallback@SpherePackCallback@@UAEXABVVector3d@@MPAVSpherePack@@W4ViewState@@@Z
	DD	FLAT:?PointTest2dCallback@SpherePackCallback@@UAEXABVVector3d@@PAVSpherePack@@W4ViewState@@@Z
CONST	ENDS
;	COMDAT ??_7Sphere@@6B@
CONST	SEGMENT
??_7Sphere@@6B@ DD FLAT:??_R4Sphere@@6B@		; Sphere::`vftable'
	DD	FLAT:??_ESphere@@UAEPAXI@Z
CONST	ENDS
;	COMDAT xdata$x
xdata$x	SEGMENT
__unwindtable$?Set@?$Pool@VSpherePack@@@@QAEXH@Z DD 0ffffffffH
	DD	FLAT:__unwindfunclet$?Set@?$Pool@VSpherePack@@@@QAEXH@Z$0
__ehfuncinfo$?Set@?$Pool@VSpherePack@@@@QAEXH@Z DD 019930522H
	DD	01H
	DD	FLAT:__unwindtable$?Set@?$Pool@VSpherePack@@@@QAEXH@Z
	DD	2 DUP(00H)
	DD	2 DUP(00H)
	DD	00H
	DD	01H
xdata$x	ENDS
;	COMDAT xdata$x
xdata$x	SEGMENT
__ehfuncinfo$??0SpherePackFactory@@QAE@HMMM@Z DD 019930522H
	DD	05H
	DD	FLAT:__unwindtable$??0SpherePackFactory@@QAE@HMMM@Z
	DD	2 DUP(00H)
	DD	2 DUP(00H)
	DD	00H
	DD	01H
__unwindtable$??0SpherePackFactory@@QAE@HMMM@Z DD 0ffffffffH
	DD	FLAT:__unwindfunclet$??0SpherePackFactory@@QAE@HMMM@Z$0
	DD	00H
	DD	FLAT:__unwindfunclet$??0SpherePackFactory@@QAE@HMMM@Z$1
	DD	01H
	DD	FLAT:__unwindfunclet$??0SpherePackFactory@@QAE@HMMM@Z$2
	DD	01H
	DD	FLAT:__unwindfunclet$??0SpherePackFactory@@QAE@HMMM@Z$3
	DD	01H
	DD	FLAT:__unwindfunclet$??0SpherePackFactory@@QAE@HMMM@Z$4
xdata$x	ENDS
;	COMDAT xdata$x
xdata$x	SEGMENT
__ehfuncinfo$??_ESpherePack@@UAEPAXI@Z DD 019930522H
	DD	00H
	DD	00H
	DD	2 DUP(00H)
	DD	2 DUP(00H)
	DD	00H
	DD	05H
xdata$x	ENDS
; Function compile flags: /Ogtp
;	COMDAT ??_GSpherePackFactory@@UAEPAXI@Z
_TEXT	SEGMENT
___flags$ = 8						; size = 4
??_GSpherePackFactory@@UAEPAXI@Z PROC			; SpherePackFactory::`scalar deleting destructor', COMDAT
; _this$ = ecx
  00000	55		 push	 ebp
  00001	8b ec		 mov	 ebp, esp
  00003	56		 push	 esi
  00004	8b f1		 mov	 esi, ecx
  00006	e8 00 00 00 00	 call	 ??1SpherePackFactory@@UAE@XZ ; SpherePackFactory::~SpherePackFactory
  0000b	f6 45 08 01	 test	 BYTE PTR ___flags$[ebp], 1
  0000f	74 0b		 je	 SHORT $LN4@scalar
  00011	6a 40		 push	 64			; 00000040H
  00013	56		 push	 esi
  00014	e8 00 00 00 00	 call	 ??3@YAXPAXI@Z		; operator delete
  00019	83 c4 08	 add	 esp, 8
$LN4@scalar:
  0001c	8b c6		 mov	 eax, esi
  0001e	5e		 pop	 esi
  0001f	5d		 pop	 ebp
  00020	c2 04 00	 ret	 4
??_GSpherePackFactory@@UAEPAXI@Z ENDP			; SpherePackFactory::`scalar deleting destructor'
_TEXT	ENDS
; Function compile flags: /Ogtp
; File C:\DS Project\DS Files\Source\ClientSource\Client\SphereLib\pool.h
;	COMDAT ?GetFreeLink@?$Pool@VSpherePack@@@@QAEPAVSpherePack@@XZ
_TEXT	SEGMENT
?GetFreeLink@?$Pool@VSpherePack@@@@QAEPAVSpherePack@@XZ PROC ; Pool<SpherePack>::GetFreeLink, COMDAT
; _this$ = ecx

; 184  : 	{

  00000	8b d1		 mov	 edx, ecx
  00002	56		 push	 esi

; 185  : 		// Free allocated items are always added to the head of the list
; 186  : 		if ( !mFree ) return 0;

  00003	8b 72 10	 mov	 esi, DWORD PTR [edx+16]
  00006	85 f6		 test	 esi, esi
  00008	75 04		 jne	 SHORT $LN2@GetFreeLin
  0000a	33 c0		 xor	 eax, eax
  0000c	5e		 pop	 esi

; 197  : 	};

  0000d	c3		 ret	 0
$LN2@GetFreeLin:

; 187  : 		Type *ret = mFree;
; 188  : 		mFree = ret->GetNext(); // new head of free list

  0000e	8b 46 18	 mov	 eax, DWORD PTR [esi+24]

; 189  : 		Type *temp = mHead; // current head of list
; 190  : 		mHead = ret;        // new head of list is this free one

  00011	8b ce		 mov	 ecx, esi
  00013	89 42 10	 mov	 DWORD PTR [edx+16], eax
  00016	8b 42 0c	 mov	 eax, DWORD PTR [edx+12]
  00019	89 72 0c	 mov	 DWORD PTR [edx+12], esi

; 191  : 		if ( temp ) temp->SetPrevious(ret);

  0001c	85 c0		 test	 eax, eax
  0001e	74 06		 je	 SHORT $LN3@GetFreeLin
  00020	89 70 1c	 mov	 DWORD PTR [eax+28], esi
  00023	8b 4a 0c	 mov	 ecx, DWORD PTR [edx+12]
$LN3@GetFreeLin:

; 192  : 		mHead->SetNext(temp);

  00026	89 41 18	 mov	 DWORD PTR [ecx+24], eax

; 193  : 		mHead->SetPrevious(0);
; 194  : 		mUsedCount++;
; 195  : 		mFreeCount--;
; 196  : 		return ret;

  00029	8b c6		 mov	 eax, esi
  0002b	8b 4a 0c	 mov	 ecx, DWORD PTR [edx+12]
  0002e	5e		 pop	 esi
  0002f	c7 41 1c 00 00
	00 00		 mov	 DWORD PTR [ecx+28], 0
  00036	ff 42 14	 inc	 DWORD PTR [edx+20]
  00039	ff 4a 18	 dec	 DWORD PTR [edx+24]

; 197  : 	};

  0003c	c3		 ret	 0
?GetFreeLink@?$Pool@VSpherePack@@@@QAEPAVSpherePack@@XZ ENDP ; Pool<SpherePack>::GetFreeLink
_TEXT	ENDS
; Function compile flags: /Ogtp
; File C:\DS Project\DS Files\Source\ClientSource\Client\SphereLib\pool.h
;	COMDAT ??1?$Pool@VSpherePack@@@@QAE@XZ
_TEXT	SEGMENT
??1?$Pool@VSpherePack@@@@QAE@XZ PROC			; Pool<SpherePack>::~Pool<SpherePack>, COMDAT
; _this$ = ecx

; 34   : 		if (mData)

  00000	8b 49 08	 mov	 ecx, DWORD PTR [ecx+8]
  00003	85 c9		 test	 ecx, ecx
  00005	74 1b		 je	 SHORT $LN5@Pool

; 35   : 			delete [] mData;

  00007	83 79 fc 00	 cmp	 DWORD PTR [ecx-4], 0
  0000b	8d 41 fc	 lea	 eax, DWORD PTR [ecx-4]
  0000e	74 07		 je	 SHORT $LN4@Pool
  00010	8b 01		 mov	 eax, DWORD PTR [ecx]
  00012	6a 03		 push	 3
  00014	ff 10		 call	 DWORD PTR [eax]

; 36   : 	};

  00016	c3		 ret	 0
$LN4@Pool:

; 35   : 			delete [] mData;

  00017	6a 04		 push	 4
  00019	50		 push	 eax
  0001a	e8 00 00 00 00	 call	 ??_V@YAXPAXI@Z		; operator delete[]
  0001f	83 c4 08	 add	 esp, 8
$LN5@Pool:

; 36   : 	};

  00022	c3		 ret	 0
??1?$Pool@VSpherePack@@@@QAE@XZ ENDP			; Pool<SpherePack>::~Pool<SpherePack>
_TEXT	ENDS
; Function compile flags: /Ogtp
; File C:\DS Project\DS Files\Source\ClientSource\Client\SphereLib\spherepack.cpp
;	COMDAT ?Reset@SpherePackFactory@@QAEXXZ
_TEXT	SEGMENT
?Reset@SpherePackFactory@@QAEXXZ PROC			; SpherePackFactory::Reset, COMDAT
; _this$ = ecx

; 852  : {

  00000	56		 push	 esi
  00001	8b f1		 mov	 esi, ecx

; 853  : 	mRoot->Reset();

  00003	8b 4e 04	 mov	 ecx, DWORD PTR [esi+4]
  00006	e8 00 00 00 00	 call	 ?Reset@SpherePack@@QAEXXZ ; SpherePack::Reset

; 854  : 	mLeaf->Reset();

  0000b	8b 4e 08	 mov	 ecx, DWORD PTR [esi+8]
  0000e	5e		 pop	 esi
  0000f	e9 00 00 00 00	 jmp	 ?Reset@SpherePack@@QAEXXZ ; SpherePack::Reset
?Reset@SpherePackFactory@@QAEXXZ ENDP			; SpherePackFactory::Reset
_TEXT	ENDS
; Function compile flags: /Ogtp
; File C:\DS Project\DS Files\Source\ClientSource\Client\SphereLib\spherepack.cpp
;	COMDAT ?VisibilityCallback@SpherePackFactory@@UAEXABVFrustum@@PAVSpherePack@@W4ViewState@@@Z
_TEXT	SEGMENT
_f$ = 8							; size = 4
_sphere$ = 12						; size = 4
_state$ = 16						; size = 4
?VisibilityCallback@SpherePackFactory@@UAEXABVFrustum@@PAVSpherePack@@W4ViewState@@@Z PROC ; SpherePackFactory::VisibilityCallback, COMDAT
; _this$ = ecx

; 871  : {

  00000	55		 push	 ebp
  00001	8b ec		 mov	 ebp, esp

; 872  : #ifdef SPHERELIB_STRICT
; 873  : 	if (!sphere->IS_SPHERE)
; 874  : 		puts("SpherePackFactory::VisibilityCallback");
; 875  : #endif
; 876  : 	SpherePack *link = (SpherePack *) sphere->GetUserData();

  00003	8b 45 0c	 mov	 eax, DWORD PTR _sphere$[ebp]
  00006	8b d1		 mov	 edx, ecx
  00008	8b 48 44	 mov	 ecx, DWORD PTR [eax+68]

; 877  : 	if (link) link->VisibilityTest(f,mCallback,state);

  0000b	85 c9		 test	 ecx, ecx
  0000d	74 0e		 je	 SHORT $LN2@Visibility
  0000f	ff 75 10	 push	 DWORD PTR _state$[ebp]
  00012	ff 72 0c	 push	 DWORD PTR [edx+12]
  00015	ff 75 08	 push	 DWORD PTR _f$[ebp]
  00018	e8 00 00 00 00	 call	 ?VisibilityTest@SpherePack@@QAEXABVFrustum@@PAVSpherePackCallback@@W4ViewState@@@Z ; SpherePack::VisibilityTest
$LN2@Visibility:

; 878  : }

  0001d	5d		 pop	 ebp
  0001e	c2 0c 00	 ret	 12			; 0000000cH
?VisibilityCallback@SpherePackFactory@@UAEXABVFrustum@@PAVSpherePack@@W4ViewState@@@Z ENDP ; SpherePackFactory::VisibilityCallback
_TEXT	ENDS
; Function compile flags: /Ogtp
; File C:\DS Project\DS Files\Source\ClientSource\Client\SphereLib\spherepack.cpp
;	COMDAT ?PointTest2dCallback@SpherePackFactory@@UAEXABVVector3d@@PAVSpherePack@@W4ViewState@@@Z
_TEXT	SEGMENT
_p$ = 8							; size = 4
_sphere$ = 12						; size = 4
_state$ = 16						; size = 4
?PointTest2dCallback@SpherePackFactory@@UAEXABVVector3d@@PAVSpherePack@@W4ViewState@@@Z PROC ; SpherePackFactory::PointTest2dCallback, COMDAT
; _this$ = ecx

; 787  : {

  00000	55		 push	 ebp
  00001	8b ec		 mov	 ebp, esp

; 788  : #ifdef SPHERELIB_STRICT
; 789  : 	if (!sphere->IS_SPHERE)
; 790  : 		puts("SpherePackFactory::PointTest2dCallback");
; 791  : #endif
; 792  : 	SpherePack *link = (SpherePack *) sphere->GetUserData();

  00003	8b 45 0c	 mov	 eax, DWORD PTR _sphere$[ebp]
  00006	8b d1		 mov	 edx, ecx
  00008	8b 48 44	 mov	 ecx, DWORD PTR [eax+68]

; 793  : 	if (link) link->PointTest2d(p, mCallback,state);

  0000b	85 c9		 test	 ecx, ecx
  0000d	74 0e		 je	 SHORT $LN2@PointTest2
  0000f	ff 75 10	 push	 DWORD PTR _state$[ebp]
  00012	ff 72 0c	 push	 DWORD PTR [edx+12]
  00015	ff 75 08	 push	 DWORD PTR _p$[ebp]
  00018	e8 00 00 00 00	 call	 ?PointTest2d@SpherePack@@QAEXABVVector3d@@PAVSpherePackCallback@@W4ViewState@@@Z ; SpherePack::PointTest2d
$LN2@PointTest2:

; 794  : };

  0001d	5d		 pop	 ebp
  0001e	c2 0c 00	 ret	 12			; 0000000cH
?PointTest2dCallback@SpherePackFactory@@UAEXABVVector3d@@PAVSpherePack@@W4ViewState@@@Z ENDP ; SpherePackFactory::PointTest2dCallback
_TEXT	ENDS
; Function compile flags: /Ogtp
; File C:\DS Project\DS Files\Source\ClientSource\Client\SphereLib\spherepack.cpp
;	COMDAT ?RangeTestCallback@SpherePackFactory@@UAEXABVVector3d@@MPAVSpherePack@@W4ViewState@@@Z
_TEXT	SEGMENT
_p$ = 8							; size = 4
_distance$ = 12						; size = 4
_sphere$ = 16						; size = 4
_state$ = 20						; size = 4
?RangeTestCallback@SpherePackFactory@@UAEXABVVector3d@@MPAVSpherePack@@W4ViewState@@@Z PROC ; SpherePackFactory::RangeTestCallback, COMDAT
; _this$ = ecx

; 777  : {

  00000	55		 push	 ebp
  00001	8b ec		 mov	 ebp, esp

; 778  : #ifdef SPHERELIB_STRICT
; 779  : 	if (!sphere->IS_SPHERE)
; 780  : 		puts("SpherePackFactory::RangeTestCallback");
; 781  : #endif
; 782  : 	SpherePack *link = (SpherePack *) sphere->GetUserData();

  00003	8b 45 10	 mov	 eax, DWORD PTR _sphere$[ebp]
  00006	8b d1		 mov	 edx, ecx
  00008	8b 48 44	 mov	 ecx, DWORD PTR [eax+68]

; 783  : 	if (link) link->RangeTest(p,distance,mCallback,state);

  0000b	85 c9		 test	 ecx, ecx
  0000d	74 19		 je	 SHORT $LN2@RangeTestC
  0000f	ff 75 14	 push	 DWORD PTR _state$[ebp]
  00012	f3 0f 10 45 0c	 movss	 xmm0, DWORD PTR _distance$[ebp]
  00017	ff 72 0c	 push	 DWORD PTR [edx+12]
  0001a	51		 push	 ecx
  0001b	f3 0f 11 04 24	 movss	 DWORD PTR [esp], xmm0
  00020	ff 75 08	 push	 DWORD PTR _p$[ebp]
  00023	e8 00 00 00 00	 call	 ?RangeTest@SpherePack@@QAEXABVVector3d@@MPAVSpherePackCallback@@W4ViewState@@@Z ; SpherePack::RangeTest
$LN2@RangeTestC:

; 784  : };

  00028	5d		 pop	 ebp
  00029	c2 10 00	 ret	 16			; 00000010H
?RangeTestCallback@SpherePackFactory@@UAEXABVVector3d@@MPAVSpherePack@@W4ViewState@@@Z ENDP ; SpherePackFactory::RangeTestCallback
_TEXT	ENDS
; Function compile flags: /Ogtp
; File C:\DS Project\DS Files\Source\ClientSource\Client\SphereLib\spherepack.cpp
;	COMDAT ?RayTraceCallback@SpherePackFactory@@UAEXABVVector3d@@0M0PAVSpherePack@@@Z
_TEXT	SEGMENT
_p1$ = 8						; size = 4
_dir$ = 12						; size = 4
_distance$ = 16						; size = 4
___formal$ = 20						; size = 4
_sphere$ = 24						; size = 4
?RayTraceCallback@SpherePackFactory@@UAEXABVVector3d@@0M0PAVSpherePack@@@Z PROC ; SpherePackFactory::RayTraceCallback, COMDAT
; _this$ = ecx

; 839  : {

  00000	55		 push	 ebp
  00001	8b ec		 mov	 ebp, esp

; 840  : #ifdef SPHERELIB_STRICT
; 841  : 	if (!sphere->IS_SPHERE)
; 842  : 		puts("SpherePackFactory::RayTraceCallback");
; 843  : #endif
; 844  : 	SpherePack *link = (SpherePack *) sphere->GetUserData();

  00003	8b 45 18	 mov	 eax, DWORD PTR _sphere$[ebp]
  00006	8b d1		 mov	 edx, ecx
  00008	8b 48 44	 mov	 ecx, DWORD PTR [eax+68]

; 845  : 	if (link) link->RayTrace(p1,dir,distance,mCallback);

  0000b	85 c9		 test	 ecx, ecx
  0000d	74 19		 je	 SHORT $LN2@RayTraceCa
  0000f	ff 72 0c	 push	 DWORD PTR [edx+12]
  00012	f3 0f 10 45 10	 movss	 xmm0, DWORD PTR _distance$[ebp]
  00017	51		 push	 ecx
  00018	f3 0f 11 04 24	 movss	 DWORD PTR [esp], xmm0
  0001d	ff 75 0c	 push	 DWORD PTR _dir$[ebp]
  00020	ff 75 08	 push	 DWORD PTR _p1$[ebp]
  00023	e8 00 00 00 00	 call	 ?RayTrace@SpherePack@@QAEXABVVector3d@@0MPAVSpherePackCallback@@@Z ; SpherePack::RayTrace
$LN2@RayTraceCa:

; 846  : };

  00028	5d		 pop	 ebp
  00029	c2 14 00	 ret	 20			; 00000014H
?RayTraceCallback@SpherePackFactory@@UAEXABVVector3d@@0M0PAVSpherePack@@@Z ENDP ; SpherePackFactory::RayTraceCallback
_TEXT	ENDS
; Function compile flags: /Ogtp
; File C:\DS Project\DS Files\Source\ClientSource\Client\SphereLib\spherepack.cpp
;	COMDAT ?PointTest2d@SpherePackFactory@@QAEXABVVector3d@@PAVSpherePackCallback@@@Z
_TEXT	SEGMENT
_center$ = 8						; size = 4
_callback$ = 12						; size = 4
?PointTest2d@SpherePackFactory@@QAEXABVVector3d@@PAVSpherePackCallback@@@Z PROC ; SpherePackFactory::PointTest2d, COMDAT
; _this$ = ecx

; 671  : {

  00000	55		 push	 ebp
  00001	8b ec		 mov	 ebp, esp

; 672  : #ifdef __STATIC_RANGE__
; 673  : 	if (!center.IsInStaticRange())
; 674  : 	{
; 675  : 		TraceError("SpherePackFactory::RangeTest2d - RANGE ERROR %f, %f, %f",
; 676  : 			center.x, center.y, center.z);
; 677  : 		assert("SpherePackFactory::RangeTest2d - RANGE ERROR");
; 678  : 		return;
; 679  : 	}
; 680  : #endif
; 681  : 	mCallback = callback;

  00003	8b 45 0c	 mov	 eax, DWORD PTR _callback$[ebp]

; 682  : 
; 683  : #ifdef SPHERELIB_STRICT
; 684  : 	mRoot->PointTest2d(center, this,VS_PARTIAL);
; 685  : 	extern bool MAPOUTDOOR_GET_HEIGHT_TRACE;
; 686  : 	if (MAPOUTDOOR_GET_HEIGHT_TRACE)
; 687  : 		puts("================================================");
; 688  : #else
; 689  : 	mRoot->PointTest2d(center, this,VS_PARTIAL);

  00006	6a 01		 push	 1
  00008	51		 push	 ecx
  00009	ff 75 08	 push	 DWORD PTR _center$[ebp]
  0000c	89 41 0c	 mov	 DWORD PTR [ecx+12], eax
  0000f	8b 49 04	 mov	 ecx, DWORD PTR [ecx+4]
  00012	e8 00 00 00 00	 call	 ?PointTest2d@SpherePack@@QAEXABVVector3d@@PAVSpherePackCallback@@W4ViewState@@@Z ; SpherePack::PointTest2d

; 690  : 
; 691  : #endif
; 692  : 
; 693  : }

  00017	5d		 pop	 ebp
  00018	c2 08 00	 ret	 8
?PointTest2d@SpherePackFactory@@QAEXABVVector3d@@PAVSpherePackCallback@@@Z ENDP ; SpherePackFactory::PointTest2d
_TEXT	ENDS
; Function compile flags: /Ogtp
; File C:\DS Project\DS Files\Source\ClientSource\Client\SphereLib\spherepack.cpp
;	COMDAT ?RangeTest@SpherePackFactory@@QAEXABVVector3d@@MPAVSpherePackCallback@@@Z
_TEXT	SEGMENT
_center$ = 8						; size = 4
_radius$ = 12						; size = 4
_callback$ = 16						; size = 4
?RangeTest@SpherePackFactory@@QAEXABVVector3d@@MPAVSpherePackCallback@@@Z PROC ; SpherePackFactory::RangeTest, COMDAT
; _this$ = ecx

; 656  : {

  00000	55		 push	 ebp
  00001	8b ec		 mov	 ebp, esp

; 657  : #ifdef __STATIC_RANGE__
; 658  : 	if (!center.IsInStaticRange())
; 659  : 	{
; 660  : 		TraceError("SpherePackFactory::RangeTest - RANGE ERROR %f, %f, %f",
; 661  : 			center.x, center.y, center.z);
; 662  : 		assert("SpherePackFactory::RangeTest - RANGE ERROR");
; 663  : 		return;
; 664  : 	}
; 665  : #endif
; 666  : 	mCallback = callback;
; 667  : 	mRoot->RangeTest(center,radius,this,VS_PARTIAL);

  00003	f3 0f 10 45 0c	 movss	 xmm0, DWORD PTR _radius$[ebp]
  00008	8b 45 10	 mov	 eax, DWORD PTR _callback$[ebp]
  0000b	6a 01		 push	 1
  0000d	51		 push	 ecx
  0000e	51		 push	 ecx
  0000f	f3 0f 11 04 24	 movss	 DWORD PTR [esp], xmm0
  00014	ff 75 08	 push	 DWORD PTR _center$[ebp]
  00017	89 41 0c	 mov	 DWORD PTR [ecx+12], eax
  0001a	8b 49 04	 mov	 ecx, DWORD PTR [ecx+4]
  0001d	e8 00 00 00 00	 call	 ?RangeTest@SpherePack@@QAEXABVVector3d@@MPAVSpherePackCallback@@W4ViewState@@@Z ; SpherePack::RangeTest

; 668  : }

  00022	5d		 pop	 ebp
  00023	c2 0c 00	 ret	 12			; 0000000cH
?RangeTest@SpherePackFactory@@QAEXABVVector3d@@MPAVSpherePackCallback@@@Z ENDP ; SpherePackFactory::RangeTest
_TEXT	ENDS
; Function compile flags: /Ogtp
; File C:\DS Project\DS Files\Source\ClientSource\Client\SphereLib\spherepack.cpp
; File C:\Program Files (x86)\Windows Kits\10\Include\10.0.18362.0\ucrt\corecrt_math.h
; File C:\DS Project\DS Files\Source\ClientSource\Client\SphereLib\vector.h
; File C:\DS Project\DS Files\Source\ClientSource\Client\SphereLib\spherepack.cpp
; File C:\DS Project\DS Files\Source\ClientSource\Client\SphereLib\vector.h
; File C:\Program Files (x86)\Windows Kits\10\Include\10.0.18362.0\ucrt\corecrt_math.h
; File C:\DS Project\DS Files\Source\ClientSource\Client\SphereLib\vector.h
; File C:\Program Files (x86)\Windows Kits\10\Include\10.0.18362.0\ucrt\corecrt_math.h
; File C:\DS Project\DS Files\Source\ClientSource\Client\SphereLib\vector.h
; File C:\DS Project\DS Files\Source\ClientSource\Client\SphereLib\spherepack.cpp
;	COMDAT ?RayTrace@SpherePackFactory@@QAEXABVVector3d@@0PAVSpherePackCallback@@@Z
_TEXT	SEGMENT
_l$1 = -20						; size = 4
_dir$ = -16						; size = 12
__$ArrayPad$ = -4					; size = 4
_p1$ = 8						; size = 4
_p2$ = 12						; size = 4
_callback$ = 16						; size = 4
?RayTrace@SpherePackFactory@@QAEXABVVector3d@@0PAVSpherePackCallback@@@Z PROC ; SpherePackFactory::RayTrace, COMDAT
; _this$ = ecx

; 645  : {

  00000	55		 push	 ebp
  00001	8b ec		 mov	 ebp, esp
  00003	83 ec 14	 sub	 esp, 20			; 00000014H
  00006	a1 00 00 00 00	 mov	 eax, DWORD PTR ___security_cookie
  0000b	33 c5		 xor	 eax, ebp
  0000d	89 45 fc	 mov	 DWORD PTR __$ArrayPad$[ebp], eax
  00010	8b 45 0c	 mov	 eax, DWORD PTR _p2$[ebp]
  00013	56		 push	 esi
  00014	57		 push	 edi
  00015	8b 7d 08	 mov	 edi, DWORD PTR _p1$[ebp]
; File C:\Program Files (x86)\Windows Kits\10\Include\10.0.18362.0\ucrt\corecrt_math.h

; 760  :             return (float)sqrt(_X);

  00018	83 ec 08	 sub	 esp, 8
; File C:\DS Project\DS Files\Source\ClientSource\Client\SphereLib\vector.h

; 30   : 		x = a.x;

  0001b	f3 0f 10 08	 movss	 xmm1, DWORD PTR [eax]
; File C:\DS Project\DS Files\Source\ClientSource\Client\SphereLib\spherepack.cpp

; 645  : {

  0001f	8b f1		 mov	 esi, ecx
; File C:\DS Project\DS Files\Source\ClientSource\Client\SphereLib\vector.h

; 31   : 		y = a.y;

  00021	f3 0f 10 50 04	 movss	 xmm2, DWORD PTR [eax+4]

; 32   : 		z = a.z;

  00026	f3 0f 10 40 08	 movss	 xmm0, DWORD PTR [eax+8]
  0002b	f3 0f 11 55 f4	 movss	 DWORD PTR _dir$[ebp+4], xmm2
  00030	f3 0f 11 4d f0	 movss	 DWORD PTR _dir$[ebp], xmm1

; 141  : 		return float(sqrtf( x*x + y*y + z*z ));

  00035	f3 0f 59 d2	 mulss	 xmm2, xmm2
  00039	f3 0f 59 c9	 mulss	 xmm1, xmm1

; 32   : 		z = a.z;

  0003d	f3 0f 11 45 f8	 movss	 DWORD PTR _dir$[ebp+8], xmm0

; 141  : 		return float(sqrtf( x*x + y*y + z*z ));

  00042	f3 0f 59 c0	 mulss	 xmm0, xmm0
  00046	f3 0f 58 d1	 addss	 xmm2, xmm1
  0004a	f3 0f 58 d0	 addss	 xmm2, xmm0
; File C:\Program Files (x86)\Windows Kits\10\Include\10.0.18362.0\ucrt\corecrt_math.h

; 760  :             return (float)sqrt(_X);

  0004e	0f 5a c2	 cvtps2pd xmm0, xmm2
  00051	f2 0f 11 04 24	 movsd	 QWORD PTR [esp], xmm0
  00056	e8 00 00 00 00	 call	 _sqrt
; File C:\DS Project\DS Files\Source\ClientSource\Client\SphereLib\vector.h

; 185  : 		float l = Length(); // get length.

  0005b	d9 5d ec	 fstp	 DWORD PTR _l$1[ebp]

; 186  : 		if ( l != 0 )

  0005e	f3 0f 10 4d ec	 movss	 xmm1, DWORD PTR _l$1[ebp]
; File C:\Program Files (x86)\Windows Kits\10\Include\10.0.18362.0\ucrt\corecrt_math.h

; 760  :             return (float)sqrt(_X);

  00063	83 c4 08	 add	 esp, 8
  00066	0f 57 c0	 xorps	 xmm0, xmm0
; File C:\DS Project\DS Files\Source\ClientSource\Client\SphereLib\vector.h

; 186  : 		if ( l != 0 )

  00069	0f 2e c8	 ucomiss xmm1, xmm0
  0006c	9f		 lahf
  0006d	f6 c4 44	 test	 ah, 68			; 00000044H
  00070	7b 2c		 jnp	 SHORT $LN6@RayTrace

; 187  : 		{
; 188  : 			x/=l;

  00072	f3 0f 10 45 f0	 movss	 xmm0, DWORD PTR _dir$[ebp]
  00077	f3 0f 5e c1	 divss	 xmm0, xmm1
  0007b	f3 0f 11 45 f0	 movss	 DWORD PTR _dir$[ebp], xmm0

; 189  : 			y/=l;

  00080	f3 0f 10 45 f4	 movss	 xmm0, DWORD PTR _dir$[ebp+4]
  00085	f3 0f 5e c1	 divss	 xmm0, xmm1
  00089	f3 0f 11 45 f4	 movss	 DWORD PTR _dir$[ebp+4], xmm0

; 190  : 			z/=l;

  0008e	f3 0f 10 45 f8	 movss	 xmm0, DWORD PTR _dir$[ebp+8]
  00093	f3 0f 5e c1	 divss	 xmm0, xmm1
  00097	f3 0f 11 45 f8	 movss	 DWORD PTR _dir$[ebp+8], xmm0

; 191  : 		}

  0009c	eb 15		 jmp	 SHORT $LN7@RayTrace
$LN6@RayTrace:

; 192  : 		else
; 193  : 		{
; 194  : 			x = y = z = 0;

  0009e	c7 45 f8 00 00
	00 00		 mov	 DWORD PTR _dir$[ebp+8], 0
  000a5	c7 45 f4 00 00
	00 00		 mov	 DWORD PTR _dir$[ebp+4], 0
  000ac	c7 45 f0 00 00
	00 00		 mov	 DWORD PTR _dir$[ebp], 0
$LN7@RayTrace:
; File C:\DS Project\DS Files\Source\ClientSource\Client\SphereLib\spherepack.cpp

; 649  : 	mCallback = callback;

  000b3	8b 45 10	 mov	 eax, DWORD PTR _callback$[ebp]

; 650  : 	mRoot->RayTrace(p1,dir,dist,this);

  000b6	56		 push	 esi
  000b7	51		 push	 ecx
  000b8	8b 4e 04	 mov	 ecx, DWORD PTR [esi+4]
  000bb	89 46 0c	 mov	 DWORD PTR [esi+12], eax
  000be	8d 45 f0	 lea	 eax, DWORD PTR _dir$[ebp]
  000c1	f3 0f 11 0c 24	 movss	 DWORD PTR [esp], xmm1
  000c6	50		 push	 eax
  000c7	57		 push	 edi
  000c8	e8 00 00 00 00	 call	 ?RayTrace@SpherePack@@QAEXABVVector3d@@0MPAVSpherePackCallback@@@Z ; SpherePack::RayTrace

; 651  : }

  000cd	8b 4d fc	 mov	 ecx, DWORD PTR __$ArrayPad$[ebp]
  000d0	5f		 pop	 edi
  000d1	33 cd		 xor	 ecx, ebp
  000d3	5e		 pop	 esi
  000d4	e8 00 00 00 00	 call	 @__security_check_cookie@4
  000d9	8b e5		 mov	 esp, ebp
  000db	5d		 pop	 ebp
  000dc	c2 0c 00	 ret	 12			; 0000000cH
?RayTrace@SpherePackFactory@@QAEXABVVector3d@@0PAVSpherePackCallback@@@Z ENDP ; SpherePackFactory::RayTrace
_TEXT	ENDS
; Function compile flags: /Ogtp
; File C:\DS Project\DS Files\Source\ClientSource\Client\SphereLib\spherepack.cpp
;	COMDAT ?FrustumTest@SpherePackFactory@@QAEXABVFrustum@@PAVSpherePackCallback@@@Z
_TEXT	SEGMENT
_f$ = 8							; size = 4
_callback$ = 12						; size = 4
?FrustumTest@SpherePackFactory@@QAEXABVFrustum@@PAVSpherePackCallback@@@Z PROC ; SpherePackFactory::FrustumTest, COMDAT
; _this$ = ecx

; 554  : {

  00000	55		 push	 ebp
  00001	8b ec		 mov	 ebp, esp

; 555  : 	// test case here, just traverse children.
; 556  : 	mCallback = callback;

  00003	8b 45 0c	 mov	 eax, DWORD PTR _callback$[ebp]

; 557  : 	mRoot->VisibilityTest(f,this,VS_PARTIAL);

  00006	6a 01		 push	 1
  00008	51		 push	 ecx
  00009	ff 75 08	 push	 DWORD PTR _f$[ebp]
  0000c	89 41 0c	 mov	 DWORD PTR [ecx+12], eax
  0000f	8b 49 04	 mov	 ecx, DWORD PTR [ecx+4]
  00012	e8 00 00 00 00	 call	 ?VisibilityTest@SpherePack@@QAEXABVFrustum@@PAVSpherePackCallback@@W4ViewState@@@Z ; SpherePack::VisibilityTest

; 558  : }

  00017	5d		 pop	 ebp
  00018	c2 08 00	 ret	 8
?FrustumTest@SpherePackFactory@@QAEXABVFrustum@@PAVSpherePackCallback@@@Z ENDP ; SpherePackFactory::FrustumTest
_TEXT	ENDS
; Function compile flags: /Ogtp
; File C:\DS Project\DS Files\Source\ClientSource\Client\SphereLib\spherepack.cpp
; File C:\DS Project\DS Files\Source\ClientSource\Client\SphereLib\spherepack.h
; File C:\DS Project\DS Files\Source\ClientSource\Client\SphereLib\spherepack.cpp
; File C:\DS Project\DS Files\Source\ClientSource\Client\SphereLib\spherepack.h
; File C:\DS Project\DS Files\Source\ClientSource\Client\SphereLib\spherepack.cpp
; File C:\DS Project\DS Files\Source\ClientSource\Client\SphereLib\pool.h
; File C:\DS Project\DS Files\Source\ClientSource\Client\SphereLib\spherepack.cpp
;	COMDAT ?Remove@SpherePackFactory@@QAEXPAVSpherePack@@@Z
_TEXT	SEGMENT
_pack$ = 8						; size = 4
?Remove@SpherePackFactory@@QAEXPAVSpherePack@@@Z PROC	; SpherePackFactory::Remove, COMDAT
; _this$ = ecx

; 367  : {

  00000	55		 push	 ebp
  00001	8b ec		 mov	 ebp, esp
  00003	56		 push	 esi
; File C:\DS Project\DS Files\Source\ClientSource\Client\SphereLib\spherepack.h

; 133  : 		if ( mFlags & flag ) return true;

  00004	8b 75 08	 mov	 esi, DWORD PTR _pack$[ebp]
; File C:\DS Project\DS Files\Source\ClientSource\Client\SphereLib\spherepack.cpp

; 367  : {

  00007	57		 push	 edi
  00008	8b f9		 mov	 edi, ecx
; File C:\DS Project\DS Files\Source\ClientSource\Client\SphereLib\spherepack.h

; 133  : 		if ( mFlags & flag ) return true;

  0000a	8b 46 38	 mov	 eax, DWORD PTR [esi+56]
  0000d	a8 08		 test	 al, 8
  0000f	75 5c		 jne	 SHORT $LN1@Remove
  00011	a8 01		 test	 al, 1
  00013	74 0c		 je	 SHORT $LN3@Remove
  00015	a8 04		 test	 al, 4
  00017	74 08		 je	 SHORT $LN3@Remove
; File C:\DS Project\DS Files\Source\ClientSource\Client\SphereLib\spherepack.cpp

; 379  : 		Remove(link);

  00019	ff 76 44	 push	 DWORD PTR [esi+68]
  0001c	e8 00 00 00 00	 call	 ?Remove@SpherePackFactory@@QAEXPAVSpherePack@@@Z ; SpherePackFactory::Remove
$LN3@Remove:

; 380  : 	}
; 381  : 
; 382  : 	pack->Unlink();

  00021	8b ce		 mov	 ecx, esi
  00023	e8 00 00 00 00	 call	 ?Unlink@SpherePack@@QAEXXZ ; SpherePack::Unlink
; File C:\DS Project\DS Files\Source\ClientSource\Client\SphereLib\pool.h

; 142  : 		if ( t == mCurrent ) mCurrent = t->GetNext();

  00028	3b 77 14	 cmp	 esi, DWORD PTR [edi+20]
  0002b	75 06		 jne	 SHORT $LN20@Remove
  0002d	8b 46 18	 mov	 eax, DWORD PTR [esi+24]
  00030	89 47 14	 mov	 DWORD PTR [edi+20], eax
$LN20@Remove:

; 143  : 
; 144  : 		// first patch old linked list.. his previous now points to his next
; 145  : 		Type *prev = t->GetPrevious();

  00033	8b 4e 1c	 mov	 ecx, DWORD PTR [esi+28]
  00036	8b 46 18	 mov	 eax, DWORD PTR [esi+24]

; 146  : 
; 147  : 		if ( prev )

  00039	85 c9		 test	 ecx, ecx
  0003b	74 0c		 je	 SHORT $LN21@Remove

; 148  : 		{
; 149  : 			Type *next = t->GetNext();
; 150  : 			prev->SetNext( next ); // my previous now points to my next

  0003d	89 41 18	 mov	 DWORD PTR [ecx+24], eax

; 151  : 			if ( next ) next->SetPrevious(prev);

  00040	85 c0		 test	 eax, eax
  00042	74 13		 je	 SHORT $LN24@Remove
  00044	89 48 1c	 mov	 DWORD PTR [eax+28], ecx

; 152  : 			// list is patched!
; 153  : 		}

  00047	eb 0e		 jmp	 SHORT $LN24@Remove
$LN21@Remove:

; 154  : 		else
; 155  : 		{
; 156  : 			Type *next = t->GetNext();
; 157  : 			mHead = next;

  00049	89 47 1c	 mov	 DWORD PTR [edi+28], eax

; 158  : 			if ( mHead ) mHead->SetPrevious(0);

  0004c	85 c0		 test	 eax, eax
  0004e	74 07		 je	 SHORT $LN24@Remove
  00050	c7 40 1c 00 00
	00 00		 mov	 DWORD PTR [eax+28], 0
$LN24@Remove:

; 159  : 		}
; 160  : 
; 161  : 		Type *temp = mFree; // old head of free list.

  00057	8b 47 20	 mov	 eax, DWORD PTR [edi+32]

; 162  : 		mFree = t; // new head of linked list.

  0005a	89 77 20	 mov	 DWORD PTR [edi+32], esi

; 163  : 		t->SetPrevious(0);

  0005d	c7 46 1c 00 00
	00 00		 mov	 DWORD PTR [esi+28], 0

; 164  : 		t->SetNext(temp);

  00064	89 46 18	 mov	 DWORD PTR [esi+24], eax

; 165  : 
; 166  : 		mUsedCount--;

  00067	ff 4f 24	 dec	 DWORD PTR [edi+36]

; 167  : 		mFreeCount++;

  0006a	ff 47 28	 inc	 DWORD PTR [edi+40]
$LN1@Remove:
  0006d	5f		 pop	 edi
; File C:\DS Project\DS Files\Source\ClientSource\Client\SphereLib\spherepack.cpp

; 385  : }

  0006e	5e		 pop	 esi
  0006f	5d		 pop	 ebp
  00070	c2 04 00	 ret	 4
?Remove@SpherePackFactory@@QAEXPAVSpherePack@@@Z ENDP	; SpherePackFactory::Remove
_TEXT	ENDS
; Function compile flags: /Ogtp
; File C:\DS Project\DS Files\Source\ClientSource\Client\SphereLib\spherepack.cpp
;	COMDAT ?Render@SpherePackFactory@@QAEXXZ
_TEXT	SEGMENT
?Render@SpherePackFactory@@QAEXXZ PROC			; SpherePackFactory::Render, COMDAT
; _this$ = ecx

; 173  : #if DEMO
; 174  : 	mRoot->Render(mRoot->GetColor());
; 175  : 	mLeaf->Render(mLeaf->GetColor());
; 176  : #endif
; 177  : }

  00000	c2 00 00	 ret	 0
?Render@SpherePackFactory@@QAEXXZ ENDP			; SpherePackFactory::Render
_TEXT	ENDS
; Function compile flags: /Ogtp
; File C:\DS Project\DS Files\Source\ClientSource\Client\SphereLib\spherepack.cpp
; File C:\DS Project\DS Files\Source\ClientSource\Client\SphereLib\spherepack.h
; File C:\DS Project\DS Files\Source\ClientSource\Client\SphereLib\spherepack.cpp
; File C:\DS Project\DS Files\Source\ClientSource\Client\SphereLib\vector.h
; File C:\DS Project\DS Files\Source\ClientSource\Client\SphereLib\spherepack.cpp
; File C:\Program Files (x86)\Windows Kits\10\Include\10.0.18362.0\ucrt\corecrt_math.h
; File C:\DS Project\DS Files\Source\ClientSource\Client\SphereLib\spherepack.cpp
; File C:\Program Files (x86)\Windows Kits\10\Include\10.0.18362.0\ucrt\corecrt_math.h
; File C:\DS Project\DS Files\Source\ClientSource\Client\SphereLib\spherepack.cpp
; File C:\Program Files (x86)\Windows Kits\10\Include\10.0.18362.0\ucrt\corecrt_math.h
; File C:\DS Project\DS Files\Source\ClientSource\Client\SphereLib\spherepack.cpp
; File C:\Program Files (x86)\Windows Kits\10\Include\10.0.18362.0\ucrt\corecrt_math.h
; File C:\DS Project\DS Files\Source\ClientSource\Client\SphereLib\spherepack.cpp
; File C:\Program Files (x86)\Windows Kits\10\Include\10.0.18362.0\ucrt\corecrt_math.h
; File C:\DS Project\DS Files\Source\ClientSource\Client\SphereLib\spherepack.cpp
; File C:\Program Files (x86)\Windows Kits\10\Include\10.0.18362.0\ucrt\corecrt_math.h
; File C:\DS Project\DS Files\Source\ClientSource\Client\SphereLib\spherepack.cpp
; File C:\DS Project\DS Files\Source\ClientSource\Client\SphereLib\spherepack.h
; File C:\DS Project\DS Files\Source\ClientSource\Client\SphereLib\spherepack.cpp
; File C:\DS Project\DS Files\Source\ClientSource\Client\SphereLib\spherepack.h
; File C:\DS Project\DS Files\Source\ClientSource\Client\SphereLib\spherepack.cpp
; File C:\DS Project\DS Files\Source\ClientSource\Client\SphereLib\spherepack.h
; File C:\DS Project\DS Files\Source\ClientSource\Client\SphereLib\spherepack.cpp
; File C:\DS Project\DS Files\Source\ClientSource\Client\SphereLib\spherepack.h
; File C:\DS Project\DS Files\Source\ClientSource\Client\SphereLib\sphere.h
; File C:\DS Project\DS Files\Source\ClientSource\Client\SphereLib\spherepack.h
; File C:\DS Project\DS Files\Source\ClientSource\Client\SphereLib\sphere.h
; File C:\DS Project\DS Files\Source\ClientSource\Client\SphereLib\spherepack.h
; File C:\DS Project\DS Files\Source\ClientSource\Client\SphereLib\spherepack.cpp
; File C:\DS Project\DS Files\Source\ClientSource\Client\SphereLib\spherepack.h
; File C:\DS Project\DS Files\Source\ClientSource\Client\SphereLib\spherepack.cpp
; File C:\DS Project\DS Files\Source\ClientSource\Client\SphereLib\spherepack.h
; File C:\DS Project\DS Files\Source\ClientSource\Client\SphereLib\spherepack.cpp
; File C:\DS Project\DS Files\Source\ClientSource\Client\SphereLib\spherepack.h
; File C:\DS Project\DS Files\Source\ClientSource\Client\SphereLib\spherepack.cpp
; File C:\DS Project\DS Files\Source\ClientSource\Client\SphereLib\spherepack.h
; File C:\DS Project\DS Files\Source\ClientSource\Client\SphereLib\spherepack.cpp
; File C:\DS Project\DS Files\Source\ClientSource\Client\SphereLib\spherepack.h
; File C:\DS Project\DS Files\Source\ClientSource\Client\SphereLib\vector.h
; File C:\DS Project\DS Files\Source\ClientSource\Client\SphereLib\spherepack.h
; File C:\DS Project\DS Files\Source\ClientSource\Client\SphereLib\sphere.h
; File C:\DS Project\DS Files\Source\ClientSource\Client\SphereLib\spherepack.h
; File C:\DS Project\DS Files\Source\ClientSource\Client\SphereLib\spherepack.cpp
; File C:\DS Project\DS Files\Source\ClientSource\Client\SphereLib\spherepack.h
; File C:\DS Project\DS Files\Source\ClientSource\Client\SphereLib\spherepack.cpp
; File C:\DS Project\DS Files\Source\ClientSource\Client\SphereLib\spherepack.h
; File C:\DS Project\DS Files\Source\ClientSource\Client\SphereLib\spherepack.cpp
;	COMDAT ?Integrate@SpherePackFactory@@QAEXPAVSpherePack@@0M@Z
_TEXT	SEGMENT
tv695 = -20						; size = 4
tv686 = -20						; size = 4
_this$1$ = -16						; size = 4
_neardist2$1$ = -12					; size = 4
_neardist1$1$ = -8					; size = 4
_nearest2$1$ = -4					; size = 4
_newsize$1$ = 8						; size = 4
_dist$1$ = 8						; size = 4
_pack$ = 8						; size = 4
_supersphere$ = 12					; size = 4
_node_size$ = 16					; size = 4
?Integrate@SpherePackFactory@@QAEXPAVSpherePack@@0M@Z PROC ; SpherePackFactory::Integrate, COMDAT
; _this$ = ecx

; 400  : {

  00000	55		 push	 ebp
  00001	8b ec		 mov	 ebp, esp
  00003	83 ec 14	 sub	 esp, 20			; 00000014H

; 401  : 	// ok..time to integrate this sphere with the tree
; 402  : 	// first find which supersphere we are closest to the center of
; 403  : 
; 404  : 	SpherePack *search = supersphere->GetChildren();
; 405  : 
; 406  : 	SpherePack *nearest1 = 0;  // nearest supersphere we are completely
; 407  : 	float neardist1 = 1e38f;     // enclosed within

  00006	f3 0f 10 1d 00
	00 00 00	 movss	 xmm3, DWORD PTR __real@7e967699

; 408  : 
; 409  : 	SpherePack *nearest2 = 0; // supersphere we must grow the least to

  0000e	33 c0		 xor	 eax, eax
  00010	53		 push	 ebx
  00011	56		 push	 esi

; 410  : 	float neardist2 = 1e38f;    // add ourselves to.
; 411  : 
; 412  : 	//int scount = 1;
; 413  : 
; 414  : 	while (search)

  00012	8b 75 08	 mov	 esi, DWORD PTR _pack$[ebp]
  00015	33 db		 xor	 ebx, ebx
  00017	57		 push	 edi
  00018	8b 7d 0c	 mov	 edi, DWORD PTR _supersphere$[ebp]
  0001b	0f 28 d3	 movaps	 xmm2, xmm3
  0001e	89 4d f0	 mov	 DWORD PTR _this$1$[ebp], ecx
  00021	f3 0f 11 5d f8	 movss	 DWORD PTR _neardist1$1$[ebp], xmm3
  00026	89 45 fc	 mov	 DWORD PTR _nearest2$1$[ebp], eax
  00029	8b 7f 24	 mov	 edi, DWORD PTR [edi+36]
  0002c	f3 0f 11 55 f4	 movss	 DWORD PTR _neardist2$1$[ebp], xmm2
  00031	85 ff		 test	 edi, edi
  00033	0f 84 d6 02 00
	00		 je	 $LN119@Integrate
  00039	0f 1f 80 00 00
	00 00		 npad	 7
$LL2@Integrate:
; File C:\DS Project\DS Files\Source\ClientSource\Client\SphereLib\spherepack.h

; 133  : 		if ( mFlags & flag ) return true;

  00040	8b 4f 38	 mov	 ecx, DWORD PTR [edi+56]
  00043	f6 c1 01	 test	 cl, 1
  00046	0f 84 02 01 00
	00		 je	 $LN11@Integrate
  0004c	f6 c1 08	 test	 cl, 8
  0004f	0f 85 f9 00 00
	00		 jne	 $LN11@Integrate
; File C:\DS Project\DS Files\Source\ClientSource\Client\SphereLib\spherepack.cpp

; 416  : 		if (search->HasSpherePackFlag(SPF_SUPERSPHERE) && !search->HasSpherePackFlag(SPF_ROOTNODE) && search->GetChildCount())

  00055	83 7f 3c 00	 cmp	 DWORD PTR [edi+60], 0
  00059	0f 84 ef 00 00
	00		 je	 $LN11@Integrate
; File C:\DS Project\DS Files\Source\ClientSource\Client\SphereLib\vector.h

; 170  : 		float dx = a.x - x;

  0005f	f3 0f 10 4f 04	 movss	 xmm1, DWORD PTR [edi+4]

; 171  : 		float dy = a.y - y;

  00064	f3 0f 10 57 08	 movss	 xmm2, DWORD PTR [edi+8]

; 172  : 		float dz = a.z - z;

  00069	f3 0f 10 47 0c	 movss	 xmm0, DWORD PTR [edi+12]
  0006e	f3 0f 5c 56 08	 subss	 xmm2, DWORD PTR [esi+8]
  00073	f3 0f 5c 4e 04	 subss	 xmm1, DWORD PTR [esi+4]
  00078	f3 0f 5c 46 0c	 subss	 xmm0, DWORD PTR [esi+12]

; 173  : 		return dx*dx + dy*dy + dz*dz;

  0007d	f3 0f 59 d2	 mulss	 xmm2, xmm2
  00081	f3 0f 59 c9	 mulss	 xmm1, xmm1
  00085	f3 0f 59 c0	 mulss	 xmm0, xmm0
  00089	f3 0f 58 d1	 addss	 xmm2, xmm1
  0008d	f3 0f 58 d0	 addss	 xmm2, xmm0
  00091	f3 0f 11 55 08	 movss	 DWORD PTR _dist$1$[ebp], xmm2
; File C:\DS Project\DS Files\Source\ClientSource\Client\SphereLib\spherepack.cpp

; 421  : 			if (nearest1)

  00096	85 db		 test	 ebx, ebx
  00098	74 49		 je	 SHORT $LN5@Integrate

; 422  : 			{
; 423  : 				if (dist < neardist1)

  0009a	0f 2f da	 comiss	 xmm3, xmm2
  0009d	0f 86 a6 00 00
	00		 jbe	 $LN118@Integrate
; File C:\Program Files (x86)\Windows Kits\10\Include\10.0.18362.0\ucrt\corecrt_math.h

; 760  :             return (float)sqrt(_X);

  000a3	0f 5a c2	 cvtps2pd xmm0, xmm2
  000a6	83 ec 08	 sub	 esp, 8
  000a9	f2 0f 11 04 24	 movsd	 QWORD PTR [esp], xmm0
  000ae	e8 00 00 00 00	 call	 _sqrt
; File C:\DS Project\DS Files\Source\ClientSource\Client\SphereLib\spherepack.cpp

; 426  : 					float d = sqrtf(dist)+pack->GetRadius();

  000b3	f3 0f 10 4e 10	 movss	 xmm1, DWORD PTR [esi+16]
; File C:\Program Files (x86)\Windows Kits\10\Include\10.0.18362.0\ucrt\corecrt_math.h

; 760  :             return (float)sqrt(_X);

  000b8	83 c4 08	 add	 esp, 8
; File C:\DS Project\DS Files\Source\ClientSource\Client\SphereLib\spherepack.cpp

; 428  : 					if (d <= search->GetRadius())

  000bb	f3 0f 10 47 10	 movss	 xmm0, DWORD PTR [edi+16]
  000c0	f3 0f 10 55 f4	 movss	 xmm2, DWORD PTR _neardist2$1$[ebp]
  000c5	8b 45 fc	 mov	 eax, DWORD PTR _nearest2$1$[ebp]
; File C:\Program Files (x86)\Windows Kits\10\Include\10.0.18362.0\ucrt\corecrt_math.h

; 760  :             return (float)sqrt(_X);

  000c8	d9 5d ec	 fstp	 DWORD PTR tv686[ebp]
; File C:\DS Project\DS Files\Source\ClientSource\Client\SphereLib\spherepack.cpp

; 426  : 					float d = sqrtf(dist)+pack->GetRadius();

  000cb	f3 0f 58 4d ec	 addss	 xmm1, DWORD PTR tv686[ebp]

; 428  : 					if (d <= search->GetRadius())

  000d0	0f 2f c1	 comiss	 xmm0, xmm1
  000d3	72 63		 jb	 SHORT $LN116@Integrate

; 429  : 					{
; 430  : 						neardist1 = dist;

  000d5	f3 0f 10 5d 08	 movss	 xmm3, DWORD PTR _dist$1$[ebp]

; 431  : 						nearest1  = search;

  000da	8b df		 mov	 ebx, edi
  000dc	f3 0f 11 5d f8	 movss	 DWORD PTR _neardist1$1$[ebp], xmm3

; 432  : 					}
; 433  : 				}
; 434  : 			}

  000e1	eb 6b		 jmp	 SHORT $LN11@Integrate
$LN5@Integrate:
; File C:\Program Files (x86)\Windows Kits\10\Include\10.0.18362.0\ucrt\corecrt_math.h

; 760  :             return (float)sqrt(_X);

  000e3	0f 5a c2	 cvtps2pd xmm0, xmm2
  000e6	83 ec 08	 sub	 esp, 8
  000e9	f2 0f 11 04 24	 movsd	 QWORD PTR [esp], xmm0
  000ee	e8 00 00 00 00	 call	 _sqrt
; File C:\DS Project\DS Files\Source\ClientSource\Client\SphereLib\spherepack.cpp

; 438  : 				float d = (sqrtf(dist) + pack->GetRadius())-search->GetRadius();

  000f3	f3 0f 10 46 10	 movss	 xmm0, DWORD PTR [esi+16]
; File C:\Program Files (x86)\Windows Kits\10\Include\10.0.18362.0\ucrt\corecrt_math.h

; 760  :             return (float)sqrt(_X);

  000f8	83 c4 08	 add	 esp, 8
; File C:\DS Project\DS Files\Source\ClientSource\Client\SphereLib\spherepack.cpp

; 440  : 				if (d < neardist2)

  000fb	f3 0f 10 55 f4	 movss	 xmm2, DWORD PTR _neardist2$1$[ebp]
; File C:\Program Files (x86)\Windows Kits\10\Include\10.0.18362.0\ucrt\corecrt_math.h

; 760  :             return (float)sqrt(_X);

  00100	d9 5d ec	 fstp	 DWORD PTR tv695[ebp]
; File C:\DS Project\DS Files\Source\ClientSource\Client\SphereLib\spherepack.cpp

; 438  : 				float d = (sqrtf(dist) + pack->GetRadius())-search->GetRadius();

  00103	f3 0f 58 45 ec	 addss	 xmm0, DWORD PTR tv695[ebp]
  00108	f3 0f 5c 47 10	 subss	 xmm0, DWORD PTR [edi+16]

; 440  : 				if (d < neardist2)

  0010d	0f 2f d0	 comiss	 xmm2, xmm0
  00110	76 2d		 jbe	 SHORT $LN117@Integrate

; 441  : 				{
; 442  : 					if (d < 0)

  00112	0f 57 c9	 xorps	 xmm1, xmm1
  00115	0f 2f c8	 comiss	 xmm1, xmm0
  00118	76 11		 jbe	 SHORT $LN10@Integrate

; 443  : 					{
; 444  : 						neardist1 = dist;

  0011a	f3 0f 10 5d 08	 movss	 xmm3, DWORD PTR _dist$1$[ebp]

; 445  : 						nearest1  = search;

  0011f	8b df		 mov	 ebx, edi

; 446  : 					}

  00121	8b 45 fc	 mov	 eax, DWORD PTR _nearest2$1$[ebp]
  00124	f3 0f 11 5d f8	 movss	 DWORD PTR _neardist1$1$[ebp], xmm3
  00129	eb 23		 jmp	 SHORT $LN11@Integrate
$LN10@Integrate:

; 447  : 					else
; 448  : 					{
; 449  : 						neardist2 = d;

  0012b	0f 28 d0	 movaps	 xmm2, xmm0

; 450  : 						nearest2  = search;

  0012e	8b c7		 mov	 eax, edi
  00130	f3 0f 11 55 f4	 movss	 DWORD PTR _neardist2$1$[ebp], xmm2
  00135	89 45 fc	 mov	 DWORD PTR _nearest2$1$[ebp], eax
$LN116@Integrate:

; 451  : 					}
; 452  : 				}
; 453  : 			}
; 454  : 		}
; 455  : 		search = search->_GetNextSibling();

  00138	f3 0f 10 5d f8	 movss	 xmm3, DWORD PTR _neardist1$1$[ebp]
  0013d	eb 0f		 jmp	 SHORT $LN11@Integrate
$LN117@Integrate:

; 440  : 				if (d < neardist2)

  0013f	f3 0f 10 5d f8	 movss	 xmm3, DWORD PTR _neardist1$1$[ebp]
  00144	8b 45 fc	 mov	 eax, DWORD PTR _nearest2$1$[ebp]
  00147	eb 05		 jmp	 SHORT $LN11@Integrate
$LN118@Integrate:

; 422  : 			{
; 423  : 				if (dist < neardist1)

  00149	f3 0f 10 55 f4	 movss	 xmm2, DWORD PTR _neardist2$1$[ebp]
$LN11@Integrate:

; 451  : 					}
; 452  : 				}
; 453  : 			}
; 454  : 		}
; 455  : 		search = search->_GetNextSibling();

  0014e	8b 7f 28	 mov	 edi, DWORD PTR [edi+40]
  00151	85 ff		 test	 edi, edi
  00153	0f 85 e7 fe ff
	ff		 jne	 $LL2@Integrate

; 456  : 	}
; 457  : 
; 458  : 	// ok...now..on exit let's see what we got.
; 459  : 	if (nearest1)

  00159	85 db		 test	 ebx, ebx
  0015b	0f 84 b2 00 00
	00		 je	 $LN12@Integrate
; File C:\DS Project\DS Files\Source\ClientSource\Client\SphereLib\spherepack.h

; 148  : 		if ( mFifo1 ) // if we belong to fifo1, null us out

  00161	8b 46 30	 mov	 eax, DWORD PTR [esi+48]
  00164	85 c0		 test	 eax, eax
  00166	74 05		 je	 SHORT $LN38@Integrate

; 149  : 		{
; 150  : 			*mFifo1 = 0;

  00168	89 38		 mov	 DWORD PTR [eax], edi

; 151  : 			mFifo1 = 0;

  0016a	89 7e 30	 mov	 DWORD PTR [esi+48], edi
$LN38@Integrate:

; 152  : 		}
; 153  : 
; 154  : 		if ( mFifo2 ) // if we belong to fifo2, null us out

  0016d	8b 46 34	 mov	 eax, DWORD PTR [esi+52]
  00170	85 c0		 test	 eax, eax
  00172	74 0d		 je	 SHORT $LN39@Integrate

; 155  : 		{
; 156  : 			*mFifo2 = 0;

  00174	c7 00 00 00 00
	00		 mov	 DWORD PTR [eax], 0

; 157  : 			mFifo2 = 0;

  0017a	c7 46 34 00 00
	00 00		 mov	 DWORD PTR [esi+52], 0
$LN39@Integrate:

; 158  : 		}
; 159  : 
; 160  : 		if ( mParent ) mParent->LostChild(this);

  00181	8b 4e 20	 mov	 ecx, DWORD PTR [esi+32]
  00184	85 c9		 test	 ecx, ecx
  00186	74 06		 je	 SHORT $LN40@Integrate
  00188	56		 push	 esi
  00189	e8 00 00 00 00	 call	 ?LostChild@SpherePack@@QAEXPAV1@@Z ; SpherePack::LostChild
$LN40@Integrate:

; 164  : 		mParent = 0; // got no father anymore

  0018e	c7 46 20 00 00
	00 00		 mov	 DWORD PTR [esi+32], 0

; 171  : 		SpherePack *my_child = mChildren;

  00195	8b 43 24	 mov	 eax, DWORD PTR [ebx+36]

; 172  : 		mChildren = pack; // new head of list

  00198	89 73 24	 mov	 DWORD PTR [ebx+36], esi

; 174  : 		pack->SetNextSibling(my_child); // his next is my old next

  0019b	89 46 28	 mov	 DWORD PTR [esi+40], eax

; 175  : 		pack->SetPrevSibling(0); // at head of list, no previous

  0019e	c7 46 2c 00 00
	00 00		 mov	 DWORD PTR [esi+44], 0

; 176  : 		pack->SetParent(this);

  001a5	89 5e 20	 mov	 DWORD PTR [esi+32], ebx

; 177  : 
; 178  : 		if ( my_child ) my_child->SetPrevSibling(pack); // previous now this..

  001a8	85 c0		 test	 eax, eax
  001aa	74 03		 je	 SHORT $LN43@Integrate
  001ac	89 70 2c	 mov	 DWORD PTR [eax+44], esi
$LN43@Integrate:

; 179  : 
; 180  : 		mChildCount++;

  001af	ff 43 3c	 inc	 DWORD PTR [ebx+60]
  001b2	0f 57 c0	 xorps	 xmm0, xmm0

; 241  : 		mBindingDistance = parent->GetRadius() - GetRadius();

  001b5	f3 0f 10 4b 10	 movss	 xmm1, DWORD PTR [ebx+16]
  001ba	f3 0f 5c 4e 10	 subss	 xmm1, DWORD PTR [esi+16]

; 242  : 		if ( mBindingDistance <= 0 )

  001bf	0f 2f c1	 comiss	 xmm0, xmm1
  001c2	73 07		 jae	 SHORT $LN47@Integrate

; 243  : 			mBindingDistance = 0;
; 244  : 		else
; 245  : 			mBindingDistance*=mBindingDistance;

  001c4	0f 28 c1	 movaps	 xmm0, xmm1
  001c7	f3 0f 59 c1	 mulss	 xmm0, xmm1
$LN47@Integrate:
; File C:\DS Project\DS Files\Source\ClientSource\Client\SphereLib\spherepack.cpp

; 467  : 		nearest1->Recompute(mSuperSphereGravy);

  001cb	8b 45 f0	 mov	 eax, DWORD PTR _this$1$[ebp]
  001ce	f3 0f 11 46 40	 movss	 DWORD PTR [esi+64], xmm0
  001d3	51		 push	 ecx
  001d4	8b cb		 mov	 ecx, ebx
  001d6	f3 0f 10 40 3c	 movss	 xmm0, DWORD PTR [eax+60]
  001db	f3 0f 11 04 24	 movss	 DWORD PTR [esp], xmm0
  001e0	e8 00 00 00 00	 call	 ?Recompute@SpherePack@@QAE_NM@Z ; SpherePack::Recompute
; File C:\DS Project\DS Files\Source\ClientSource\Client\SphereLib\spherepack.h

; 133  : 		if ( mFlags & flag ) return true;

  001e5	f6 43 38 04	 test	 BYTE PTR [ebx+56], 4
  001e9	0f 84 78 02 00
	00		 je	 $LN21@Integrate
; File C:\DS Project\DS Files\Source\ClientSource\Client\SphereLib\spherepack.cpp

; 476  : 			link->NewPosRadius(nearest1->GetPos(), nearest1->GetRadius());

  001ef	f3 0f 10 43 10	 movss	 xmm0, DWORD PTR [ebx+16]
  001f4	8d 43 04	 lea	 eax, DWORD PTR [ebx+4]
  001f7	51		 push	 ecx
  001f8	8b 4b 44	 mov	 ecx, DWORD PTR [ebx+68]
  001fb	f3 0f 11 04 24	 movss	 DWORD PTR [esp], xmm0
  00200	50		 push	 eax
  00201	e8 00 00 00 00	 call	 ?NewPosRadius@SpherePack@@QAEXABVVector3d@@M@Z ; SpherePack::NewPosRadius
; File C:\DS Project\DS Files\Source\ClientSource\Client\SphereLib\spherepack.h

; 130  : 	void ClearSpherePackFlag(SpherePackFlag flag) { mFlags&=~flag; };

  00206	83 66 38 df	 and	 DWORD PTR [esi+56], -33	; ffffffdfH
  0020a	5f		 pop	 edi
  0020b	5e		 pop	 esi
  0020c	5b		 pop	 ebx
; File C:\DS Project\DS Files\Source\ClientSource\Client\SphereLib\spherepack.cpp

; 550  : }

  0020d	8b e5		 mov	 esp, ebp
  0020f	5d		 pop	 ebp
  00210	c2 0c 00	 ret	 12			; 0000000cH
$LN12@Integrate:

; 477  : 		}
; 478  : 
; 479  : 	}
; 480  : 	else
; 481  : 	{
; 482  : 		bool newsphere = true;
; 483  : 
; 484  : 		if (nearest2)

  00213	8b 5d f0	 mov	 ebx, DWORD PTR _this$1$[ebp]
  00216	85 c0		 test	 eax, eax
  00218	0f 84 f3 00 00
	00		 je	 $LN113@Integrate

; 485  : 		{
; 486  : 			float newsize = neardist2 + nearest2->GetRadius() + mSuperSphereGravy;

  0021e	f3 0f 10 48 10	 movss	 xmm1, DWORD PTR [eax+16]

; 487  : 
; 488  : 			if (newsize <= node_size)

  00223	f3 0f 10 45 10	 movss	 xmm0, DWORD PTR _node_size$[ebp]
  00228	f3 0f 58 ca	 addss	 xmm1, xmm2
  0022c	f3 0f 58 4b 3c	 addss	 xmm1, DWORD PTR [ebx+60]
  00231	0f 2f c1	 comiss	 xmm0, xmm1
  00234	f3 0f 11 4d 08	 movss	 DWORD PTR _newsize$1$[ebp], xmm1
  00239	0f 82 d2 00 00
	00		 jb	 $LN113@Integrate
; File C:\DS Project\DS Files\Source\ClientSource\Client\SphereLib\spherepack.h

; 148  : 		if ( mFifo1 ) // if we belong to fifo1, null us out

  0023f	8b 4e 30	 mov	 ecx, DWORD PTR [esi+48]
  00242	85 c9		 test	 ecx, ecx
  00244	74 0d		 je	 SHORT $LN53@Integrate

; 149  : 		{
; 150  : 			*mFifo1 = 0;

  00246	c7 01 00 00 00
	00		 mov	 DWORD PTR [ecx], 0

; 151  : 			mFifo1 = 0;

  0024c	c7 46 30 00 00
	00 00		 mov	 DWORD PTR [esi+48], 0
$LN53@Integrate:

; 152  : 		}
; 153  : 
; 154  : 		if ( mFifo2 ) // if we belong to fifo2, null us out

  00253	8b 4e 34	 mov	 ecx, DWORD PTR [esi+52]
  00256	85 c9		 test	 ecx, ecx
  00258	74 0d		 je	 SHORT $LN54@Integrate

; 155  : 		{
; 156  : 			*mFifo2 = 0;

  0025a	c7 01 00 00 00
	00		 mov	 DWORD PTR [ecx], 0

; 157  : 			mFifo2 = 0;

  00260	c7 46 34 00 00
	00 00		 mov	 DWORD PTR [esi+52], 0
$LN54@Integrate:

; 158  : 		}
; 159  : 
; 160  : 		if ( mParent ) mParent->LostChild(this);

  00267	8b 4e 20	 mov	 ecx, DWORD PTR [esi+32]
  0026a	85 c9		 test	 ecx, ecx
  0026c	74 0e		 je	 SHORT $LN55@Integrate
  0026e	56		 push	 esi
  0026f	e8 00 00 00 00	 call	 ?LostChild@SpherePack@@QAEXPAV1@@Z ; SpherePack::LostChild
  00274	f3 0f 10 4d 08	 movss	 xmm1, DWORD PTR _newsize$1$[ebp]
  00279	8b 45 fc	 mov	 eax, DWORD PTR _nearest2$1$[ebp]
$LN55@Integrate:

; 164  : 		mParent = 0; // got no father anymore

  0027c	c7 46 20 00 00
	00 00		 mov	 DWORD PTR [esi+32], 0

; 171  : 		SpherePack *my_child = mChildren;

  00283	8b 48 24	 mov	 ecx, DWORD PTR [eax+36]
; File C:\DS Project\DS Files\Source\ClientSource\Client\SphereLib\sphere.h

; 67   : 		mRadius = radius;

  00286	f3 0f 11 48 10	 movss	 DWORD PTR [eax+16], xmm1

; 68   : 		mRadius2 = radius*radius;

  0028b	f3 0f 59 c9	 mulss	 xmm1, xmm1
; File C:\DS Project\DS Files\Source\ClientSource\Client\SphereLib\spherepack.h

; 172  : 		mChildren = pack; // new head of list

  0028f	89 70 24	 mov	 DWORD PTR [eax+36], esi
; File C:\DS Project\DS Files\Source\ClientSource\Client\SphereLib\sphere.h

; 68   : 		mRadius2 = radius*radius;

  00292	f3 0f 11 48 14	 movss	 DWORD PTR [eax+20], xmm1
; File C:\DS Project\DS Files\Source\ClientSource\Client\SphereLib\spherepack.h

; 174  : 		pack->SetNextSibling(my_child); // his next is my old next

  00297	89 4e 28	 mov	 DWORD PTR [esi+40], ecx

; 175  : 		pack->SetPrevSibling(0); // at head of list, no previous

  0029a	c7 46 2c 00 00
	00 00		 mov	 DWORD PTR [esi+44], 0

; 176  : 		pack->SetParent(this);

  002a1	89 46 20	 mov	 DWORD PTR [esi+32], eax

; 177  : 
; 178  : 		if ( my_child ) my_child->SetPrevSibling(pack); // previous now this..

  002a4	85 c9		 test	 ecx, ecx
  002a6	74 03		 je	 SHORT $LN60@Integrate
  002a8	89 71 2c	 mov	 DWORD PTR [ecx+44], esi
$LN60@Integrate:

; 179  : 
; 180  : 		mChildCount++;

  002ab	ff 40 3c	 inc	 DWORD PTR [eax+60]
; File C:\DS Project\DS Files\Source\ClientSource\Client\SphereLib\spherepack.cpp

; 494  : 				nearest2->Recompute(mSuperSphereGravy);

  002ae	f3 0f 10 43 3c	 movss	 xmm0, DWORD PTR [ebx+60]
  002b3	51		 push	 ecx
  002b4	8b c8		 mov	 ecx, eax
  002b6	f3 0f 11 04 24	 movss	 DWORD PTR [esp], xmm0
  002bb	e8 00 00 00 00	 call	 ?Recompute@SpherePack@@QAE_NM@Z ; SpherePack::Recompute
; File C:\DS Project\DS Files\Source\ClientSource\Client\SphereLib\spherepack.h

; 241  : 		mBindingDistance = parent->GetRadius() - GetRadius();

  002c0	8b 4d fc	 mov	 ecx, DWORD PTR _nearest2$1$[ebp]
  002c3	0f 57 c0	 xorps	 xmm0, xmm0
  002c6	f3 0f 10 49 10	 movss	 xmm1, DWORD PTR [ecx+16]
  002cb	f3 0f 5c 4e 10	 subss	 xmm1, DWORD PTR [esi+16]

; 242  : 		if ( mBindingDistance <= 0 )

  002d0	0f 2f c1	 comiss	 xmm0, xmm1
  002d3	73 07		 jae	 SHORT $LN64@Integrate

; 243  : 			mBindingDistance = 0;
; 244  : 		else
; 245  : 			mBindingDistance*=mBindingDistance;

  002d5	0f 28 c1	 movaps	 xmm0, xmm1
  002d8	f3 0f 59 c1	 mulss	 xmm0, xmm1
$LN64@Integrate:

; 133  : 		if ( mFlags & flag ) return true;

  002dc	f3 0f 11 46 40	 movss	 DWORD PTR [esi+64], xmm0
  002e1	f6 41 38 04	 test	 BYTE PTR [ecx+56], 4
  002e5	0f 84 7c 01 00
	00		 je	 $LN21@Integrate
; File C:\DS Project\DS Files\Source\ClientSource\Client\SphereLib\spherepack.cpp

; 504  : 					link->NewPosRadius(nearest2->GetPos(), nearest2->GetRadius());

  002eb	f3 0f 10 41 10	 movss	 xmm0, DWORD PTR [ecx+16]
  002f0	8d 41 04	 lea	 eax, DWORD PTR [ecx+4]
  002f3	51		 push	 ecx
  002f4	8b 49 44	 mov	 ecx, DWORD PTR [ecx+68]
  002f7	f3 0f 11 04 24	 movss	 DWORD PTR [esp], xmm0
  002fc	50		 push	 eax
  002fd	e8 00 00 00 00	 call	 ?NewPosRadius@SpherePack@@QAEXABVVector3d@@M@Z ; SpherePack::NewPosRadius
; File C:\DS Project\DS Files\Source\ClientSource\Client\SphereLib\spherepack.h

; 130  : 	void ClearSpherePackFlag(SpherePackFlag flag) { mFlags&=~flag; };

  00302	83 66 38 df	 and	 DWORD PTR [esi+56], -33	; ffffffdfH
  00306	5f		 pop	 edi
  00307	5e		 pop	 esi
  00308	5b		 pop	 ebx
; File C:\DS Project\DS Files\Source\ClientSource\Client\SphereLib\spherepack.cpp

; 550  : }

  00309	8b e5		 mov	 esp, ebp
  0030b	5d		 pop	 ebp
  0030c	c2 0c 00	 ret	 12			; 0000000cH
$LN119@Integrate:

; 410  : 	float neardist2 = 1e38f;    // add ourselves to.
; 411  : 
; 412  : 	//int scount = 1;
; 413  : 
; 414  : 	while (search)

  0030f	8b d9		 mov	 ebx, ecx
$LN113@Integrate:
; File C:\DS Project\DS Files\Source\ClientSource\Client\SphereLib\spherepack.h

; 148  : 		if ( mFifo1 ) // if we belong to fifo1, null us out

  00311	8b 46 30	 mov	 eax, DWORD PTR [esi+48]
  00314	85 c0		 test	 eax, eax
  00316	74 0d		 je	 SHORT $LN70@Integrate

; 149  : 		{
; 150  : 			*mFifo1 = 0;

  00318	c7 00 00 00 00
	00		 mov	 DWORD PTR [eax], 0

; 151  : 			mFifo1 = 0;

  0031e	c7 46 30 00 00
	00 00		 mov	 DWORD PTR [esi+48], 0
$LN70@Integrate:

; 152  : 		}
; 153  : 
; 154  : 		if ( mFifo2 ) // if we belong to fifo2, null us out

  00325	8b 46 34	 mov	 eax, DWORD PTR [esi+52]
  00328	85 c0		 test	 eax, eax
  0032a	74 0d		 je	 SHORT $LN71@Integrate

; 155  : 		{
; 156  : 			*mFifo2 = 0;

  0032c	c7 00 00 00 00
	00		 mov	 DWORD PTR [eax], 0

; 157  : 			mFifo2 = 0;

  00332	c7 46 34 00 00
	00 00		 mov	 DWORD PTR [esi+52], 0
$LN71@Integrate:

; 158  : 		}
; 159  : 
; 160  : 		if ( mParent ) mParent->LostChild(this);

  00339	8b 4e 20	 mov	 ecx, DWORD PTR [esi+32]
  0033c	85 c9		 test	 ecx, ecx
  0033e	74 06		 je	 SHORT $LN72@Integrate
  00340	56		 push	 esi
  00341	e8 00 00 00 00	 call	 ?LostChild@SpherePack@@QAEXPAV1@@Z ; SpherePack::LostChild
$LN72@Integrate:
; File C:\DS Project\DS Files\Source\ClientSource\Client\SphereLib\spherepack.cpp

; 519  : 			SpherePack *parent = mSpheres.GetFreeLink();

  00346	8d 4b 10	 lea	 ecx, DWORD PTR [ebx+16]
; File C:\DS Project\DS Files\Source\ClientSource\Client\SphereLib\spherepack.h

; 164  : 		mParent = 0; // got no father anymore

  00349	c7 46 20 00 00
	00 00		 mov	 DWORD PTR [esi+32], 0
; File C:\DS Project\DS Files\Source\ClientSource\Client\SphereLib\spherepack.cpp

; 519  : 			SpherePack *parent = mSpheres.GetFreeLink();

  00350	e8 00 00 00 00	 call	 ?GetFreeLink@?$Pool@VSpherePack@@@@QAEPAVSpherePack@@XZ ; Pool<SpherePack>::GetFreeLink

; 520  : 			assert(parent);
; 521  : 			parent->Init(this, pack->GetPos(), pack->GetRadius()+mSuperSphereGravy, 0, false);

  00355	f3 0f 10 46 10	 movss	 xmm0, DWORD PTR [esi+16]
  0035a	8b f8		 mov	 edi, eax
  0035c	f3 0f 58 43 3c	 addss	 xmm0, DWORD PTR [ebx+60]
; File C:\DS Project\DS Files\Source\ClientSource\Client\SphereLib\spherepack.h

; 133  : 		if ( mFlags & flag ) return true;

  00361	8b 4d 0c	 mov	 ecx, DWORD PTR _supersphere$[ebp]

; 120  : 		mFlags            = 0;

  00364	c7 47 38 00 00
	00 00		 mov	 DWORD PTR [edi+56], 0
  0036b	c6 47 4c 00	 mov	 BYTE PTR [edi+76], 0
  0036f	c7 47 44 00 00
	00 00		 mov	 DWORD PTR [edi+68], 0
  00376	c7 47 20 00 00
	00 00		 mov	 DWORD PTR [edi+32], 0
  0037d	c7 47 28 00 00
	00 00		 mov	 DWORD PTR [edi+40], 0
  00384	c7 47 2c 00 00
	00 00		 mov	 DWORD PTR [edi+44], 0

; 121  : 		mFifo1            = 0;

  0038b	c7 47 30 00 00
	00 00		 mov	 DWORD PTR [edi+48], 0

; 122  : 		mFifo2            = 0;

  00392	c7 47 34 00 00
	00 00		 mov	 DWORD PTR [edi+52], 0

; 123  : 		mFactory          = factory;

  00399	89 5f 48	 mov	 DWORD PTR [edi+72], ebx
; File C:\DS Project\DS Files\Source\ClientSource\Client\SphereLib\vector.h

; 57   : 	{ x=A.x; y=A.y; z=A.z;

  0039c	8b 46 04	 mov	 eax, DWORD PTR [esi+4]
  0039f	89 47 04	 mov	 DWORD PTR [edi+4], eax
  003a2	8b 46 08	 mov	 eax, DWORD PTR [esi+8]
  003a5	89 47 08	 mov	 DWORD PTR [edi+8], eax
  003a8	8b 46 0c	 mov	 eax, DWORD PTR [esi+12]
  003ab	89 47 0c	 mov	 DWORD PTR [edi+12], eax
; File C:\DS Project\DS Files\Source\ClientSource\Client\SphereLib\spherepack.h

; 129  : 	void SetSpherePackFlag(SpherePackFlag flag) { mFlags|=flag; };

  003ae	b8 00 00 00 00	 mov	 eax, 0
; File C:\DS Project\DS Files\Source\ClientSource\Client\SphereLib\sphere.h

; 67   : 		mRadius = radius;

  003b3	f3 0f 11 47 10	 movss	 DWORD PTR [edi+16], xmm0

; 68   : 		mRadius2 = radius*radius;

  003b8	f3 0f 59 c0	 mulss	 xmm0, xmm0
  003bc	f3 0f 11 47 14	 movss	 DWORD PTR [edi+20], xmm0
; File C:\DS Project\DS Files\Source\ClientSource\Client\SphereLib\spherepack.h

; 133  : 		if ( mFlags & flag ) return true;

  003c1	f6 41 38 02	 test	 BYTE PTR [ecx+56], 2

; 129  : 	void SetSpherePackFlag(SpherePackFlag flag) { mFlags|=flag; };

  003c5	0f 94 c0	 sete	 al
  003c8	8d 04 45 02 00
	00 00		 lea	 eax, DWORD PTR [eax*2+2]
  003cf	83 c8 01	 or	 eax, 1
  003d2	09 47 38	 or	 DWORD PTR [edi+56], eax

; 171  : 		SpherePack *my_child = mChildren;

  003d5	8b 47 24	 mov	 eax, DWORD PTR [edi+36]

; 172  : 		mChildren = pack; // new head of list

  003d8	89 77 24	 mov	 DWORD PTR [edi+36], esi

; 174  : 		pack->SetNextSibling(my_child); // his next is my old next

  003db	89 46 28	 mov	 DWORD PTR [esi+40], eax

; 175  : 		pack->SetPrevSibling(0); // at head of list, no previous

  003de	c7 46 2c 00 00
	00 00		 mov	 DWORD PTR [esi+44], 0

; 176  : 		pack->SetParent(this);

  003e5	89 7e 20	 mov	 DWORD PTR [esi+32], edi

; 177  : 
; 178  : 		if ( my_child ) my_child->SetPrevSibling(pack); // previous now this..

  003e8	85 c0		 test	 eax, eax
  003ea	74 03		 je	 SHORT $LN90@Integrate
  003ec	89 70 2c	 mov	 DWORD PTR [eax+44], esi
$LN90@Integrate:

; 179  : 
; 180  : 		mChildCount++;

  003ef	ff 47 3c	 inc	 DWORD PTR [edi+60]

; 171  : 		SpherePack *my_child = mChildren;

  003f2	8b 41 24	 mov	 eax, DWORD PTR [ecx+36]

; 172  : 		mChildren = pack; // new head of list

  003f5	89 79 24	 mov	 DWORD PTR [ecx+36], edi

; 174  : 		pack->SetNextSibling(my_child); // his next is my old next

  003f8	89 47 28	 mov	 DWORD PTR [edi+40], eax

; 175  : 		pack->SetPrevSibling(0); // at head of list, no previous

  003fb	c7 47 2c 00 00
	00 00		 mov	 DWORD PTR [edi+44], 0

; 176  : 		pack->SetParent(this);

  00402	89 4f 20	 mov	 DWORD PTR [edi+32], ecx

; 177  : 
; 178  : 		if ( my_child ) my_child->SetPrevSibling(pack); // previous now this..

  00405	85 c0		 test	 eax, eax
  00407	74 03		 je	 SHORT $LN93@Integrate
  00409	89 78 2c	 mov	 DWORD PTR [eax+44], edi
$LN93@Integrate:

; 179  : 
; 180  : 		mChildCount++;

  0040c	ff 41 3c	 inc	 DWORD PTR [ecx+60]
; File C:\DS Project\DS Files\Source\ClientSource\Client\SphereLib\spherepack.cpp

; 536  : 			parent->Recompute(mSuperSphereGravy);

  0040f	f3 0f 10 43 3c	 movss	 xmm0, DWORD PTR [ebx+60]
  00414	51		 push	 ecx
  00415	8b cf		 mov	 ecx, edi
  00417	f3 0f 11 04 24	 movss	 DWORD PTR [esp], xmm0
  0041c	e8 00 00 00 00	 call	 ?Recompute@SpherePack@@QAE_NM@Z ; SpherePack::Recompute
; File C:\DS Project\DS Files\Source\ClientSource\Client\SphereLib\spherepack.h

; 241  : 		mBindingDistance = parent->GetRadius() - GetRadius();

  00421	f3 0f 10 4f 10	 movss	 xmm1, DWORD PTR [edi+16]
  00426	0f 57 c0	 xorps	 xmm0, xmm0
  00429	f3 0f 5c 4e 10	 subss	 xmm1, DWORD PTR [esi+16]

; 242  : 		if ( mBindingDistance <= 0 )

  0042e	0f 2f c1	 comiss	 xmm0, xmm1
  00431	73 07		 jae	 SHORT $LN97@Integrate

; 243  : 			mBindingDistance = 0;
; 244  : 		else
; 245  : 			mBindingDistance*=mBindingDistance;

  00433	0f 28 c1	 movaps	 xmm0, xmm1
  00436	f3 0f 59 c1	 mulss	 xmm0, xmm1
$LN97@Integrate:

; 133  : 		if ( mFlags & flag ) return true;

  0043a	f3 0f 11 46 40	 movss	 DWORD PTR [esi+64], xmm0
  0043f	f6 47 38 04	 test	 BYTE PTR [edi+56], 4
  00443	74 22		 je	 SHORT $LN21@Integrate
; File C:\DS Project\DS Files\Source\ClientSource\Client\SphereLib\spherepack.cpp

; 542  : 				SpherePack *link = AddSphere_(parent->GetPos(), parent->GetRadius(), parent, true, SPF_ROOT_TREE);

  00445	f3 0f 10 47 10	 movss	 xmm0, DWORD PTR [edi+16]
  0044a	8d 47 04	 lea	 eax, DWORD PTR [edi+4]
  0044d	6a 02		 push	 2
  0044f	6a 01		 push	 1
  00451	57		 push	 edi
  00452	51		 push	 ecx
  00453	f3 0f 11 04 24	 movss	 DWORD PTR [esp], xmm0
  00458	8b cb		 mov	 ecx, ebx
  0045a	50		 push	 eax
  0045b	e8 00 00 00 00	 call	 ?AddSphere_@SpherePackFactory@@QAEPAVSpherePack@@ABVVector3d@@MPAX_NH@Z ; SpherePackFactory::AddSphere_
; File C:\DS Project\DS Files\Source\ClientSource\Client\SphereLib\spherepack.h

; 210  : 	void   SetUserData(void *data, bool isSphere) { mUserData = data; IS_SPHERE=isSphere;};

  00460	89 47 44	 mov	 DWORD PTR [edi+68], eax
  00463	c6 47 4c 01	 mov	 BYTE PTR [edi+76], 1
$LN21@Integrate:

; 130  : 	void ClearSpherePackFlag(SpherePackFlag flag) { mFlags&=~flag; };

  00467	83 66 38 df	 and	 DWORD PTR [esi+56], -33	; ffffffdfH
  0046b	5f		 pop	 edi
  0046c	5e		 pop	 esi
  0046d	5b		 pop	 ebx
; File C:\DS Project\DS Files\Source\ClientSource\Client\SphereLib\spherepack.cpp

; 550  : }

  0046e	8b e5		 mov	 esp, ebp
  00470	5d		 pop	 ebp
  00471	c2 0c 00	 ret	 12			; 0000000cH
?Integrate@SpherePackFactory@@QAEXPAVSpherePack@@0M@Z ENDP ; SpherePackFactory::Integrate
_TEXT	ENDS
; Function compile flags: /Ogtp
; File C:\DS Project\DS Files\Source\ClientSource\Client\SphereLib\spherepack.cpp
; File C:\DS Project\DS Files\Source\ClientSource\Client\SphereLib\spherepack.h
; File C:\DS Project\DS Files\Source\ClientSource\Client\SphereLib\spherepack.cpp
; File C:\DS Project\DS Files\Source\ClientSource\Client\SphereLib\spherepack.h
; File C:\DS Project\DS Files\Source\ClientSource\Client\SphereLib\spherepack.cpp
; File C:\DS Project\DS Files\Source\ClientSource\Client\SphereLib\spherepack.h
; File C:\DS Project\DS Files\Source\ClientSource\Client\SphereLib\spherepack.cpp
;	COMDAT ?AddRecompute@SpherePackFactory@@QAEXPAVSpherePack@@@Z
_TEXT	SEGMENT
_recompute$ = 8						; size = 4
?AddRecompute@SpherePackFactory@@QAEXPAVSpherePack@@@Z PROC ; SpherePackFactory::AddRecompute, COMDAT
; _this$ = ecx

; 155  : {

  00000	55		 push	 ebp
  00001	8b ec		 mov	 ebp, esp
  00003	57		 push	 edi
; File C:\DS Project\DS Files\Source\ClientSource\Client\SphereLib\spherepack.h

; 133  : 		if ( mFlags & flag ) return true;

  00004	8b 7d 08	 mov	 edi, DWORD PTR _recompute$[ebp]
  00007	8b 47 38	 mov	 eax, DWORD PTR [edi+56]
  0000a	a8 10		 test	 al, 16			; 00000010H
  0000c	75 43		 jne	 SHORT $LN4@AddRecompu
; File C:\DS Project\DS Files\Source\ClientSource\Client\SphereLib\spherepack.cpp

; 158  : 		if (recompute->GetChildCount())

  0000e	83 7f 3c 00	 cmp	 DWORD PTR [edi+60], 0
  00012	74 37		 je	 SHORT $LN3@AddRecompu
; File C:\DS Project\DS Files\Source\ClientSource\Client\SphereLib\spherepack.h

; 129  : 	void SetSpherePackFlag(SpherePackFlag flag) { mFlags|=flag; };

  00014	53		 push	 ebx
  00015	83 c8 10	 or	 eax, 16			; 00000010H

; 321  : 		if ( mSP == mFifoSize ) mSP = 0;

  00018	33 db		 xor	 ebx, ebx

; 129  : 	void SetSpherePackFlag(SpherePackFlag flag) { mFlags|=flag; };

  0001a	89 47 38	 mov	 DWORD PTR [edi+56], eax
  0001d	56		 push	 esi
; File C:\DS Project\DS Files\Source\ClientSource\Client\SphereLib\spherepack.cpp

; 161  : 			SpherePack **fifo = mRecompute->Push(recompute);

  0001e	8b 71 30	 mov	 esi, DWORD PTR [ecx+48]
; File C:\DS Project\DS Files\Source\ClientSource\Client\SphereLib\spherepack.h

; 318  : 		SpherePack **ret = &mFifo[mSP];

  00021	8b 4e 08	 mov	 ecx, DWORD PTR [esi+8]
  00024	8b 46 14	 mov	 eax, DWORD PTR [esi+20]
  00027	ff 46 04	 inc	 DWORD PTR [esi+4]

; 319  : 		mFifo[mSP] = sphere;

  0002a	89 3c 88	 mov	 DWORD PTR [eax+ecx*4], edi

; 320  : 		mSP++;

  0002d	ff 46 08	 inc	 DWORD PTR [esi+8]
  00030	8d 14 88	 lea	 edx, DWORD PTR [eax+ecx*4]
  00033	8b 46 08	 mov	 eax, DWORD PTR [esi+8]

; 321  : 		if ( mSP == mFifoSize ) mSP = 0;

  00036	3b 46 10	 cmp	 eax, DWORD PTR [esi+16]
  00039	8b c8		 mov	 ecx, eax
  0003b	0f 44 cb	 cmove	 ecx, ebx
  0003e	89 4e 08	 mov	 DWORD PTR [esi+8], ecx
; File C:\DS Project\DS Files\Source\ClientSource\Client\SphereLib\spherepack.cpp

; 162  : 			recompute->SetFifo1(fifo);

  00041	5e		 pop	 esi
  00042	5b		 pop	 ebx
  00043	89 57 30	 mov	 DWORD PTR [edi+48], edx
  00046	5f		 pop	 edi

; 167  : 		}
; 168  : 	}
; 169  : }

  00047	5d		 pop	 ebp
  00048	c2 04 00	 ret	 4
$LN3@AddRecompu:

; 163  : 		}
; 164  : 		else
; 165  : 		{
; 166  : 			Remove(recompute);

  0004b	57		 push	 edi
  0004c	e8 00 00 00 00	 call	 ?Remove@SpherePackFactory@@QAEXPAVSpherePack@@@Z ; SpherePackFactory::Remove
$LN4@AddRecompu:
  00051	5f		 pop	 edi

; 167  : 		}
; 168  : 	}
; 169  : }

  00052	5d		 pop	 ebp
  00053	c2 04 00	 ret	 4
?AddRecompute@SpherePackFactory@@QAEXPAVSpherePack@@@Z ENDP ; SpherePackFactory::AddRecompute
_TEXT	ENDS
; Function compile flags: /Ogtp
; File C:\DS Project\DS Files\Source\ClientSource\Client\SphereLib\spherepack.cpp
; File C:\DS Project\DS Files\Source\ClientSource\Client\SphereLib\spherepack.h
; File C:\DS Project\DS Files\Source\ClientSource\Client\SphereLib\spherepack.cpp
; File C:\DS Project\DS Files\Source\ClientSource\Client\SphereLib\spherepack.h
; File C:\DS Project\DS Files\Source\ClientSource\Client\SphereLib\spherepack.cpp
; File C:\DS Project\DS Files\Source\ClientSource\Client\SphereLib\spherepack.h
; File C:\DS Project\DS Files\Source\ClientSource\Client\SphereLib\spherepack.cpp
; File C:\DS Project\DS Files\Source\ClientSource\Client\SphereLib\spherepack.h
; File C:\DS Project\DS Files\Source\ClientSource\Client\SphereLib\spherepack.cpp
;	COMDAT ?AddIntegrate@SpherePackFactory@@QAEXPAVSpherePack@@@Z
_TEXT	SEGMENT
_pack$ = 8						; size = 4
?AddIntegrate@SpherePackFactory@@QAEXPAVSpherePack@@@Z PROC ; SpherePackFactory::AddIntegrate, COMDAT
; _this$ = ecx

; 143  : {

  00000	55		 push	 ebp
  00001	8b ec		 mov	 ebp, esp
  00003	53		 push	 ebx
  00004	56		 push	 esi
  00005	57		 push	 edi
; File C:\DS Project\DS Files\Source\ClientSource\Client\SphereLib\spherepack.h

; 133  : 		if ( mFlags & flag ) return true;

  00006	8b 7d 08	 mov	 edi, DWORD PTR _pack$[ebp]
; File C:\DS Project\DS Files\Source\ClientSource\Client\SphereLib\spherepack.cpp

; 143  : {

  00009	8b f1		 mov	 esi, ecx
; File C:\DS Project\DS Files\Source\ClientSource\Client\SphereLib\spherepack.h

; 133  : 		if ( mFlags & flag ) return true;

  0000b	f6 47 38 02	 test	 BYTE PTR [edi+56], 2
; File C:\DS Project\DS Files\Source\ClientSource\Client\SphereLib\spherepack.cpp

; 144  : 	if (pack->HasSpherePackFlag(SPF_ROOT_TREE))

  0000f	74 05		 je	 SHORT $LN2@AddIntegra

; 145  : 		mRoot->AddChild(pack);

  00011	8b 46 04	 mov	 eax, DWORD PTR [esi+4]
  00014	eb 03		 jmp	 SHORT $LN21@AddIntegra
$LN2@AddIntegra:

; 146  : 	else
; 147  : 		mLeaf->AddChild(pack);

  00016	8b 46 08	 mov	 eax, DWORD PTR [esi+8]
$LN21@AddIntegra:
; File C:\DS Project\DS Files\Source\ClientSource\Client\SphereLib\spherepack.h

; 129  : 	void SetSpherePackFlag(SpherePackFlag flag) { mFlags|=flag; };

  00019	8b 48 24	 mov	 ecx, DWORD PTR [eax+36]
  0001c	89 78 24	 mov	 DWORD PTR [eax+36], edi
  0001f	89 47 20	 mov	 DWORD PTR [edi+32], eax
  00022	c7 47 2c 00 00
	00 00		 mov	 DWORD PTR [edi+44], 0
  00029	89 4f 28	 mov	 DWORD PTR [edi+40], ecx
  0002c	85 c9		 test	 ecx, ecx
  0002e	74 03		 je	 SHORT $LN12@AddIntegra
  00030	89 79 2c	 mov	 DWORD PTR [ecx+44], edi
$LN12@AddIntegra:
  00033	ff 40 3c	 inc	 DWORD PTR [eax+60]

; 321  : 		if ( mSP == mFifoSize ) mSP = 0;

  00036	33 db		 xor	 ebx, ebx

; 129  : 	void SetSpherePackFlag(SpherePackFlag flag) { mFlags|=flag; };

  00038	83 4f 38 20	 or	 DWORD PTR [edi+56], 32	; 00000020H
; File C:\DS Project\DS Files\Source\ClientSource\Client\SphereLib\spherepack.cpp

; 150  : 	SpherePack **fifo = mIntegrate->Push(pack); // add it to the integration stack.

  0003c	8b 76 2c	 mov	 esi, DWORD PTR [esi+44]
; File C:\DS Project\DS Files\Source\ClientSource\Client\SphereLib\spherepack.h

; 318  : 		SpherePack **ret = &mFifo[mSP];

  0003f	8b 4e 08	 mov	 ecx, DWORD PTR [esi+8]
  00042	8b 46 14	 mov	 eax, DWORD PTR [esi+20]
  00045	ff 46 04	 inc	 DWORD PTR [esi+4]

; 319  : 		mFifo[mSP] = sphere;

  00048	89 3c 88	 mov	 DWORD PTR [eax+ecx*4], edi

; 320  : 		mSP++;

  0004b	ff 46 08	 inc	 DWORD PTR [esi+8]
  0004e	8d 14 88	 lea	 edx, DWORD PTR [eax+ecx*4]
  00051	8b 46 08	 mov	 eax, DWORD PTR [esi+8]

; 321  : 		if ( mSP == mFifoSize ) mSP = 0;

  00054	3b 46 10	 cmp	 eax, DWORD PTR [esi+16]
  00057	8b c8		 mov	 ecx, eax
  00059	0f 44 cb	 cmove	 ecx, ebx
  0005c	89 4e 08	 mov	 DWORD PTR [esi+8], ecx
; File C:\DS Project\DS Files\Source\ClientSource\Client\SphereLib\spherepack.cpp

; 151  : 	pack->SetFifo2(fifo);

  0005f	89 57 34	 mov	 DWORD PTR [edi+52], edx
  00062	5f		 pop	 edi
  00063	5e		 pop	 esi
  00064	5b		 pop	 ebx

; 152  : }

  00065	5d		 pop	 ebp
  00066	c2 04 00	 ret	 4
?AddIntegrate@SpherePackFactory@@QAEXPAVSpherePack@@@Z ENDP ; SpherePackFactory::AddIntegrate
_TEXT	ENDS
; Function compile flags: /Ogtp
; File C:\DS Project\DS Files\Source\ClientSource\Client\SphereLib\spherepack.cpp
; File C:\DS Project\DS Files\Source\ClientSource\Client\SphereLib\pool.h
; File C:\DS Project\DS Files\Source\ClientSource\Client\SphereLib\spherepack.cpp
; File C:\DS Project\DS Files\Source\ClientSource\Client\SphereLib\pool.h
; File C:\DS Project\DS Files\Source\ClientSource\Client\SphereLib\spherepack.cpp
; File C:\DS Project\DS Files\Source\ClientSource\Client\SphereLib\pool.h
; File C:\DS Project\DS Files\Source\ClientSource\Client\SphereLib\spherepack.cpp
; File C:\DS Project\DS Files\Source\ClientSource\Client\SphereLib\pool.h
; File C:\DS Project\DS Files\Source\ClientSource\Client\SphereLib\spherepack.cpp
; File C:\DS Project\DS Files\Source\ClientSource\Client\SphereLib\spherepack.h
; File C:\DS Project\DS Files\Source\ClientSource\Client\SphereLib\spherepack.cpp
; File C:\DS Project\DS Files\Source\ClientSource\Client\SphereLib\spherepack.h
; File C:\DS Project\DS Files\Source\ClientSource\Client\SphereLib\spherepack.cpp
;	COMDAT ?AddSphere_@SpherePackFactory@@QAEPAVSpherePack@@ABVVector3d@@MPAX_NH@Z
_TEXT	SEGMENT
_pos$ = 8						; size = 4
_radius$ = 12						; size = 4
_userdata$ = 16						; size = 4
_isSphere$ = 20						; size = 1
_flags$ = 24						; size = 4
?AddSphere_@SpherePackFactory@@QAEPAVSpherePack@@ABVVector3d@@MPAX_NH@Z PROC ; SpherePackFactory::AddSphere_, COMDAT
; _this$ = ecx

; 117  : {

  00000	55		 push	 ebp
  00001	8b ec		 mov	 ebp, esp
  00003	56		 push	 esi
  00004	8b f1		 mov	 esi, ecx
  00006	57		 push	 edi
; File C:\DS Project\DS Files\Source\ClientSource\Client\SphereLib\pool.h

; 186  : 		if ( !mFree ) return 0;

  00007	8b 7e 20	 mov	 edi, DWORD PTR [esi+32]
  0000a	85 ff		 test	 edi, edi
  0000c	75 08		 jne	 SHORT $LN7@AddSphere_
; File C:\DS Project\DS Files\Source\ClientSource\Client\SphereLib\spherepack.cpp

; 139  : 	return pack;

  0000e	5f		 pop	 edi
  0000f	33 c0		 xor	 eax, eax

; 140  : }

  00011	5e		 pop	 esi
  00012	5d		 pop	 ebp
  00013	c2 14 00	 ret	 20			; 00000014H
$LN7@AddSphere_:
; File C:\DS Project\DS Files\Source\ClientSource\Client\SphereLib\pool.h

; 188  : 		mFree = ret->GetNext(); // new head of free list

  00016	8b 47 18	 mov	 eax, DWORD PTR [edi+24]

; 189  : 		Type *temp = mHead; // current head of list
; 190  : 		mHead = ret;        // new head of list is this free one

  00019	8b cf		 mov	 ecx, edi
  0001b	89 46 20	 mov	 DWORD PTR [esi+32], eax
  0001e	8b 46 1c	 mov	 eax, DWORD PTR [esi+28]
  00021	89 7e 1c	 mov	 DWORD PTR [esi+28], edi

; 191  : 		if ( temp ) temp->SetPrevious(ret);

  00024	85 c0		 test	 eax, eax
  00026	74 06		 je	 SHORT $LN8@AddSphere_
  00028	89 78 1c	 mov	 DWORD PTR [eax+28], edi
  0002b	8b 4e 1c	 mov	 ecx, DWORD PTR [esi+28]
$LN8@AddSphere_:
; File C:\DS Project\DS Files\Source\ClientSource\Client\SphereLib\spherepack.cpp

; 125  : 		if (flags & SPF_ROOT_TREE)

  0002e	ff 75 14	 push	 DWORD PTR _isSphere$[ebp]
  00031	f3 0f 10 45 0c	 movss	 xmm0, DWORD PTR _radius$[ebp]
  00036	ff 75 10	 push	 DWORD PTR _userdata$[ebp]
; File C:\DS Project\DS Files\Source\ClientSource\Client\SphereLib\pool.h

; 192  : 		mHead->SetNext(temp);

  00039	89 41 18	 mov	 DWORD PTR [ecx+24], eax

; 193  : 		mHead->SetPrevious(0);

  0003c	8b 46 1c	 mov	 eax, DWORD PTR [esi+28]
; File C:\DS Project\DS Files\Source\ClientSource\Client\SphereLib\spherepack.cpp

; 125  : 		if (flags & SPF_ROOT_TREE)

  0003f	51		 push	 ecx
  00040	f3 0f 11 04 24	 movss	 DWORD PTR [esp], xmm0
  00045	8b cf		 mov	 ecx, edi
  00047	ff 75 08	 push	 DWORD PTR _pos$[ebp]
; File C:\DS Project\DS Files\Source\ClientSource\Client\SphereLib\pool.h

; 193  : 		mHead->SetPrevious(0);

  0004a	c7 40 1c 00 00
	00 00		 mov	 DWORD PTR [eax+28], 0

; 194  : 		mUsedCount++;

  00051	ff 46 24	 inc	 DWORD PTR [esi+36]

; 195  : 		mFreeCount--;

  00054	ff 4e 28	 dec	 DWORD PTR [esi+40]
; File C:\DS Project\DS Files\Source\ClientSource\Client\SphereLib\spherepack.cpp

; 125  : 		if (flags & SPF_ROOT_TREE)

  00057	56		 push	 esi
  00058	e8 00 00 00 00	 call	 ?Init@SpherePack@@QAEXPAVSpherePackFactory@@ABVVector3d@@MPAX_N@Z ; SpherePack::Init
  0005d	f6 45 18 02	 test	 BYTE PTR _flags$[ebp], 2
  00061	8b ce		 mov	 ecx, esi
  00063	57		 push	 edi
  00064	74 11		 je	 SHORT $LN3@AddSphere_
; File C:\DS Project\DS Files\Source\ClientSource\Client\SphereLib\spherepack.h

; 129  : 	void SetSpherePackFlag(SpherePackFlag flag) { mFlags|=flag; };

  00066	83 4f 38 02	 or	 DWORD PTR [edi+56], 2
; File C:\DS Project\DS Files\Source\ClientSource\Client\SphereLib\spherepack.cpp

; 140  : }

  0006a	e8 00 00 00 00	 call	 ?AddIntegrate@SpherePackFactory@@QAEXPAVSpherePack@@@Z ; SpherePackFactory::AddIntegrate
  0006f	8b c7		 mov	 eax, edi
  00071	5f		 pop	 edi
  00072	5e		 pop	 esi
  00073	5d		 pop	 ebp
  00074	c2 14 00	 ret	 20			; 00000014H
$LN3@AddSphere_:
; File C:\DS Project\DS Files\Source\ClientSource\Client\SphereLib\spherepack.h

; 129  : 	void SetSpherePackFlag(SpherePackFlag flag) { mFlags|=flag; };

  00077	83 4f 38 04	 or	 DWORD PTR [edi+56], 4
; File C:\DS Project\DS Files\Source\ClientSource\Client\SphereLib\spherepack.cpp

; 140  : }

  0007b	e8 00 00 00 00	 call	 ?AddIntegrate@SpherePackFactory@@QAEXPAVSpherePack@@@Z ; SpherePackFactory::AddIntegrate
  00080	8b c7		 mov	 eax, edi
  00082	5f		 pop	 edi
  00083	5e		 pop	 esi
  00084	5d		 pop	 ebp
  00085	c2 14 00	 ret	 20			; 00000014H
?AddSphere_@SpherePackFactory@@QAEPAVSpherePack@@ABVVector3d@@MPAX_NH@Z ENDP ; SpherePackFactory::AddSphere_
_TEXT	ENDS
; Function compile flags: /Ogtp
; File C:\DS Project\DS Files\Source\ClientSource\Client\SphereLib\spherepack.cpp
; File C:\DS Project\DS Files\Source\ClientSource\Client\SphereLib\spherepack.h
; File C:\DS Project\DS Files\Source\ClientSource\Client\SphereLib\spherepack.cpp
; File C:\DS Project\DS Files\Source\ClientSource\Client\SphereLib\spherepack.h
; File C:\DS Project\DS Files\Source\ClientSource\Client\SphereLib\spherepack.cpp
; File C:\DS Project\DS Files\Source\ClientSource\Client\SphereLib\spherepack.h
; File C:\DS Project\DS Files\Source\ClientSource\Client\SphereLib\spherepack.cpp
; File C:\DS Project\DS Files\Source\ClientSource\Client\SphereLib\spherepack.h
; File C:\DS Project\DS Files\Source\ClientSource\Client\SphereLib\spherepack.cpp
;	COMDAT ?Process@SpherePackFactory@@QAEXXZ
_TEXT	SEGMENT
_maxintegrate$1$ = -8					; size = 4
_maxrecompute$1$ = -8					; size = 4
_i$1$ = -4						; size = 4
_i$1$ = -4						; size = 4
?Process@SpherePackFactory@@QAEXXZ PROC			; SpherePackFactory::Process, COMDAT
; _this$ = ecx

; 74   : {

  00000	55		 push	 ebp
  00001	8b ec		 mov	 ebp, esp
  00003	83 ec 08	 sub	 esp, 8
  00006	53		 push	 ebx
  00007	56		 push	 esi
  00008	57		 push	 edi
  00009	8b f9		 mov	 edi, ecx

; 75   : 	{
; 76   : 		// First recompute anybody that needs to be recomputed!!
; 77   : 		// When leaf node spheres exit their parent sphere, then the parent sphere needs to be rebalanced.  In fact,it may now be empty and
; 78   : 		// need to be removed.
; 79   : 		// This is the location where (n) number of spheres in the recomputation FIFO are allowed to be rebalanced in the tree.
; 80   : 		int maxrecompute = mRecompute->GetCount();
; 81   : 		for (int i = 0; i < maxrecompute; ++i)

  0000b	c7 45 fc 00 00
	00 00		 mov	 DWORD PTR _i$1$[ebp], 0
  00012	8b 47 30	 mov	 eax, DWORD PTR [edi+48]
  00015	8b 40 04	 mov	 eax, DWORD PTR [eax+4]
  00018	89 45 f8	 mov	 DWORD PTR _maxrecompute$1$[ebp], eax
  0001b	85 c0		 test	 eax, eax
  0001d	7e 66		 jle	 SHORT $LN52@Process
  0001f	90		 npad	 1
$LL4@Process:

; 82   : 		{
; 83   : 			SpherePack * pack = mRecompute->Pop();

  00020	8b 4f 30	 mov	 ecx, DWORD PTR [edi+48]
; File C:\DS Project\DS Files\Source\ClientSource\Client\SphereLib\spherepack.h

; 327  : 		while ( mSP != mBottom )

  00023	8b 59 08	 mov	 ebx, DWORD PTR [ecx+8]
  00026	8b 41 0c	 mov	 eax, DWORD PTR [ecx+12]
  00029	3b d8		 cmp	 ebx, eax
$LN54@Process:

; 328  : 		{
; 329  : 			mCount--;

  0002b	74 58		 je	 SHORT $LN52@Process
  0002d	8b 51 14	 mov	 edx, DWORD PTR [ecx+20]
  00030	ff 49 04	 dec	 DWORD PTR [ecx+4]

; 330  : 			SpherePack *ret = mFifo[mBottom];

  00033	8b 34 82	 mov	 esi, DWORD PTR [edx+eax*4]

; 331  : 			mBottom++;

  00036	40		 inc	 eax

; 332  : 			if ( mBottom == mFifoSize ) mBottom = 0;

  00037	8b d0		 mov	 edx, eax
  00039	89 41 0c	 mov	 DWORD PTR [ecx+12], eax
  0003c	3b 41 10	 cmp	 eax, DWORD PTR [ecx+16]
  0003f	75 0b		 jne	 SHORT $LN17@Process
  00041	33 d2		 xor	 edx, edx
  00043	c7 41 0c 00 00
	00 00		 mov	 DWORD PTR [ecx+12], 0
  0004a	33 c0		 xor	 eax, eax
$LN17@Process:

; 333  : 			if ( ret ) return ret;

  0004c	85 f6		 test	 esi, esi
  0004e	75 04		 jne	 SHORT $LN33@Process

; 327  : 		while ( mSP != mBottom )

  00050	3b da		 cmp	 ebx, edx
  00052	eb d7		 jmp	 SHORT $LN54@Process
$LN33@Process:
; File C:\DS Project\DS Files\Source\ClientSource\Client\SphereLib\spherepack.cpp

; 85   : 			pack->SetFifo1(0); // no longer on the fifo!!

  00054	c7 46 30 00 00
	00 00		 mov	 DWORD PTR [esi+48], 0

; 86   : 			bool kill = pack->Recompute(mSuperSphereGravy);

  0005b	f3 0f 10 47 3c	 movss	 xmm0, DWORD PTR [edi+60]
  00060	51		 push	 ecx
  00061	8b ce		 mov	 ecx, esi
  00063	f3 0f 11 04 24	 movss	 DWORD PTR [esp], xmm0
  00068	e8 00 00 00 00	 call	 ?Recompute@SpherePack@@QAE_NM@Z ; SpherePack::Recompute

; 87   : 			if (kill) Remove(pack);

  0006d	84 c0		 test	 al, al
  0006f	74 08		 je	 SHORT $LN2@Process
  00071	56		 push	 esi
  00072	8b cf		 mov	 ecx, edi
  00074	e8 00 00 00 00	 call	 ?Remove@SpherePackFactory@@QAEXPAVSpherePack@@@Z ; SpherePackFactory::Remove
$LN2@Process:

; 75   : 	{
; 76   : 		// First recompute anybody that needs to be recomputed!!
; 77   : 		// When leaf node spheres exit their parent sphere, then the parent sphere needs to be rebalanced.  In fact,it may now be empty and
; 78   : 		// need to be removed.
; 79   : 		// This is the location where (n) number of spheres in the recomputation FIFO are allowed to be rebalanced in the tree.
; 80   : 		int maxrecompute = mRecompute->GetCount();
; 81   : 		for (int i = 0; i < maxrecompute; ++i)

  00079	8b 55 fc	 mov	 edx, DWORD PTR _i$1$[ebp]
  0007c	42		 inc	 edx
  0007d	89 55 fc	 mov	 DWORD PTR _i$1$[ebp], edx
  00080	3b 55 f8	 cmp	 edx, DWORD PTR _maxrecompute$1$[ebp]
  00083	7c 9b		 jl	 SHORT $LL4@Process
$LN52@Process:

; 88   : 		}
; 89   : 	}
; 90   : 
; 91   : 	{
; 92   : 		// Now, process the integration step.
; 93   : 		int maxintegrate = mIntegrate->GetCount();

  00085	8b 47 2c	 mov	 eax, DWORD PTR [edi+44]

; 94   : 
; 95   : 		for (int i = 0; i < maxintegrate; ++i)

  00088	c7 45 fc 00 00
	00 00		 mov	 DWORD PTR _i$1$[ebp], 0
  0008f	8b 40 04	 mov	 eax, DWORD PTR [eax+4]
  00092	89 45 f8	 mov	 DWORD PTR _maxintegrate$1$[ebp], eax
  00095	85 c0		 test	 eax, eax
  00097	7e 78		 jle	 SHORT $LN53@Process
  00099	0f 1f 80 00 00
	00 00		 npad	 7
$LL7@Process:

; 96   : 		{
; 97   : 			SpherePack * pack = mIntegrate->Pop();

  000a0	8b 4f 2c	 mov	 ecx, DWORD PTR [edi+44]
; File C:\DS Project\DS Files\Source\ClientSource\Client\SphereLib\spherepack.h

; 327  : 		while ( mSP != mBottom )

  000a3	8b 71 08	 mov	 esi, DWORD PTR [ecx+8]
  000a6	8b 41 0c	 mov	 eax, DWORD PTR [ecx+12]
  000a9	3b f0		 cmp	 esi, eax
  000ab	74 64		 je	 SHORT $LN53@Process

; 330  : 			SpherePack *ret = mFifo[mBottom];

  000ad	8b 59 14	 mov	 ebx, DWORD PTR [ecx+20]
$LL21@Process:

; 328  : 		{
; 329  : 			mCount--;

  000b0	ff 49 04	 dec	 DWORD PTR [ecx+4]

; 330  : 			SpherePack *ret = mFifo[mBottom];

  000b3	8b 14 83	 mov	 edx, DWORD PTR [ebx+eax*4]

; 331  : 			mBottom++;

  000b6	40		 inc	 eax
  000b7	89 41 0c	 mov	 DWORD PTR [ecx+12], eax

; 332  : 			if ( mBottom == mFifoSize ) mBottom = 0;

  000ba	3b 41 10	 cmp	 eax, DWORD PTR [ecx+16]
  000bd	75 09		 jne	 SHORT $LN44@Process
  000bf	c7 41 0c 00 00
	00 00		 mov	 DWORD PTR [ecx+12], 0
  000c6	33 c0		 xor	 eax, eax
$LN44@Process:

; 333  : 			if ( ret ) return ret;

  000c8	85 d2		 test	 edx, edx
  000ca	75 0b		 jne	 SHORT $LN35@Process

; 327  : 		while ( mSP != mBottom )

  000cc	3b f0		 cmp	 esi, eax
  000ce	75 e0		 jne	 SHORT $LL21@Process
; File C:\DS Project\DS Files\Source\ClientSource\Client\SphereLib\spherepack.cpp

; 109  : }

  000d0	5f		 pop	 edi
  000d1	5e		 pop	 esi
  000d2	5b		 pop	 ebx
  000d3	8b e5		 mov	 esp, ebp
  000d5	5d		 pop	 ebp
  000d6	c3		 ret	 0
$LN35@Process:
; File C:\DS Project\DS Files\Source\ClientSource\Client\SphereLib\spherepack.h

; 133  : 		if ( mFlags & flag ) return true;

  000d7	f6 42 38 02	 test	 BYTE PTR [edx+56], 2
; File C:\DS Project\DS Files\Source\ClientSource\Client\SphereLib\spherepack.cpp

; 100  : 			pack->SetFifo2(0);

  000db	c7 42 34 00 00
	00 00		 mov	 DWORD PTR [edx+52], 0
; File C:\DS Project\DS Files\Source\ClientSource\Client\SphereLib\spherepack.h

; 133  : 		if ( mFlags & flag ) return true;

  000e2	74 0a		 je	 SHORT $LN11@Process
; File C:\DS Project\DS Files\Source\ClientSource\Client\SphereLib\spherepack.cpp

; 103  : 				Integrate(pack,mRoot,mMaxRootSize); // integrate this one single dude against the root node.

  000e4	8b 47 04	 mov	 eax, DWORD PTR [edi+4]
  000e7	f3 0f 10 47 34	 movss	 xmm0, DWORD PTR [edi+52]
  000ec	eb 08		 jmp	 SHORT $LN5@Process
$LN11@Process:

; 104  : 			else
; 105  : 				Integrate(pack,mLeaf,mMaxLeafSize); // integrate this one single dude against the root node.

  000ee	8b 47 08	 mov	 eax, DWORD PTR [edi+8]
  000f1	f3 0f 10 47 38	 movss	 xmm0, DWORD PTR [edi+56]
$LN5@Process:

; 94   : 
; 95   : 		for (int i = 0; i < maxintegrate; ++i)

  000f6	51		 push	 ecx
  000f7	f3 0f 11 04 24	 movss	 DWORD PTR [esp], xmm0
  000fc	8b cf		 mov	 ecx, edi
  000fe	50		 push	 eax
  000ff	52		 push	 edx
  00100	e8 00 00 00 00	 call	 ?Integrate@SpherePackFactory@@QAEXPAVSpherePack@@0M@Z ; SpherePackFactory::Integrate
  00105	8b 55 fc	 mov	 edx, DWORD PTR _i$1$[ebp]
  00108	42		 inc	 edx
  00109	89 55 fc	 mov	 DWORD PTR _i$1$[ebp], edx
  0010c	3b 55 f8	 cmp	 edx, DWORD PTR _maxintegrate$1$[ebp]
  0010f	7c 8f		 jl	 SHORT $LL7@Process
$LN53@Process:
  00111	5f		 pop	 edi

; 109  : }

  00112	5e		 pop	 esi
  00113	5b		 pop	 ebx
  00114	8b e5		 mov	 esp, ebp
  00116	5d		 pop	 ebp
  00117	c3		 ret	 0
?Process@SpherePackFactory@@QAEXXZ ENDP			; SpherePackFactory::Process
_TEXT	ENDS
; Function compile flags: /Ogtp
; File C:\DS Project\DS Files\Source\ClientSource\Client\SphereLib\spherepack.cpp
; File C:\DS Project\DS Files\Source\ClientSource\Client\SphereLib\pool.h
; File C:\DS Project\DS Files\Source\ClientSource\Client\SphereLib\spherepack.cpp
; File C:\DS Project\DS Files\Source\ClientSource\Client\SphereLib\pool.h
; File C:\DS Project\DS Files\Source\ClientSource\Client\SphereLib\spherepack.cpp
;	COMDAT ??1SpherePackFactory@@UAE@XZ
_TEXT	SEGMENT
??1SpherePackFactory@@UAE@XZ PROC			; SpherePackFactory::~SpherePackFactory, COMDAT
; _this$ = ecx

; 68   : {

  00000	56		 push	 esi
  00001	8b f1		 mov	 esi, ecx

; 69   : 	delete mIntegrate;  // free up integration fifo

  00003	8b 4e 2c	 mov	 ecx, DWORD PTR [esi+44]
  00006	c7 06 00 00 00
	00		 mov	 DWORD PTR [esi], OFFSET ??_7SpherePackFactory@@6B@
  0000c	85 c9		 test	 ecx, ecx
  0000e	74 06		 je	 SHORT $LN3@SpherePack
  00010	8b 01		 mov	 eax, DWORD PTR [ecx]
  00012	6a 01		 push	 1
  00014	ff 10		 call	 DWORD PTR [eax]
$LN3@SpherePack:

; 70   : 	delete mRecompute;  // free up recomputation fifo.

  00016	8b 4e 30	 mov	 ecx, DWORD PTR [esi+48]
  00019	85 c9		 test	 ecx, ecx
  0001b	74 06		 je	 SHORT $LN5@SpherePack
  0001d	8b 01		 mov	 eax, DWORD PTR [ecx]
  0001f	6a 01		 push	 1
  00021	ff 10		 call	 DWORD PTR [eax]
$LN5@SpherePack:
; File C:\DS Project\DS Files\Source\ClientSource\Client\SphereLib\pool.h

; 34   : 		if (mData)

  00023	8b 4e 18	 mov	 ecx, DWORD PTR [esi+24]
  00026	85 c9		 test	 ecx, ecx
  00028	74 22		 je	 SHORT $LN14@SpherePack

; 35   : 			delete [] mData;

  0002a	83 79 fc 00	 cmp	 DWORD PTR [ecx-4], 0
  0002e	8d 41 fc	 lea	 eax, DWORD PTR [ecx-4]
  00031	74 0e		 je	 SHORT $LN10@SpherePack
  00033	8b 01		 mov	 eax, DWORD PTR [ecx]
  00035	6a 03		 push	 3
  00037	ff 10		 call	 DWORD PTR [eax]
; File C:\DS Project\DS Files\Source\ClientSource\Client\SphereLib\spherepack.cpp

; 71   : }

  00039	c7 06 00 00 00
	00		 mov	 DWORD PTR [esi], OFFSET ??_7SpherePackCallback@@6B@
  0003f	5e		 pop	 esi
  00040	c3		 ret	 0
$LN10@SpherePack:
; File C:\DS Project\DS Files\Source\ClientSource\Client\SphereLib\pool.h

; 35   : 			delete [] mData;

  00041	6a 04		 push	 4
  00043	50		 push	 eax
  00044	e8 00 00 00 00	 call	 ??_V@YAXPAXI@Z		; operator delete[]
  00049	83 c4 08	 add	 esp, 8
$LN14@SpherePack:
; File C:\DS Project\DS Files\Source\ClientSource\Client\SphereLib\spherepack.cpp

; 71   : }

  0004c	c7 06 00 00 00
	00		 mov	 DWORD PTR [esi], OFFSET ??_7SpherePackCallback@@6B@
  00052	5e		 pop	 esi
  00053	c3		 ret	 0
??1SpherePackFactory@@UAE@XZ ENDP			; SpherePackFactory::~SpherePackFactory
_TEXT	ENDS
; Function compile flags: /Ogtp
; File C:\DS Project\DS Files\Source\ClientSource\Client\SphereLib\spherepack.cpp
; File C:\DS Project\DS Files\Source\ClientSource\Client\SphereLib\pool.h
; File C:\DS Project\DS Files\Source\ClientSource\Client\SphereLib\spherepack.cpp
; File C:\DS Project\DS Files\Source\ClientSource\Client\SphereLib\spherepack.h
; File C:\DS Project\DS Files\Source\ClientSource\Client\SphereLib\spherepack.cpp
; File C:\DS Project\DS Files\Source\ClientSource\Client\SphereLib\spherepack.h
; File C:\DS Project\DS Files\Source\ClientSource\Client\SphereLib\spherepack.cpp
; File C:\DS Project\DS Files\Source\ClientSource\Client\SphereLib\pool.h
; File C:\DS Project\DS Files\Source\ClientSource\Client\SphereLib\spherepack.cpp
; File C:\DS Project\DS Files\Source\ClientSource\Client\SphereLib\pool.h
; File C:\DS Project\DS Files\Source\ClientSource\Client\SphereLib\sphere.h
; File C:\DS Project\DS Files\Source\ClientSource\Client\SphereLib\spherepack.cpp
; File C:\DS Project\DS Files\Source\ClientSource\Client\SphereLib\sphere.h
; File C:\DS Project\DS Files\Source\ClientSource\Client\SphereLib\spherepack.h
; File C:\DS Project\DS Files\Source\ClientSource\Client\SphereLib\vector.h
; File C:\DS Project\DS Files\Source\ClientSource\Client\SphereLib\sphere.h
; File C:\DS Project\DS Files\Source\ClientSource\Client\SphereLib\spherepack.cpp
; File C:\DS Project\DS Files\Source\ClientSource\Client\SphereLib\spherepack.h
; File C:\DS Project\DS Files\Source\ClientSource\Client\SphereLib\pool.h
; File C:\DS Project\DS Files\Source\ClientSource\Client\SphereLib\sphere.h
; File C:\DS Project\DS Files\Source\ClientSource\Client\SphereLib\spherepack.cpp
; File C:\DS Project\DS Files\Source\ClientSource\Client\SphereLib\sphere.h
; File C:\DS Project\DS Files\Source\ClientSource\Client\SphereLib\spherepack.h
; File C:\DS Project\DS Files\Source\ClientSource\Client\SphereLib\vector.h
; File C:\DS Project\DS Files\Source\ClientSource\Client\SphereLib\sphere.h
; File C:\DS Project\DS Files\Source\ClientSource\Client\SphereLib\spherepack.cpp
; File C:\DS Project\DS Files\Source\ClientSource\Client\SphereLib\spherepack.h
; File C:\DS Project\DS Files\Source\ClientSource\Client\SphereLib\spherepack.cpp
;	COMDAT ??0SpherePackFactory@@QAE@HMMM@Z
_TEXT	SEGMENT
_maxspheres$1$ = -20					; size = 4
_this$ = -16						; size = 4
__$EHRec$ = -12						; size = 12
$T2 = 8							; size = 4
$T3 = 8							; size = 4
$T4 = 8							; size = 4
_maxspheres$ = 8					; size = 4
$T5 = 12						; size = 4
_rootsize$ = 12						; size = 4
$T6 = 16						; size = 4
_leafsize$ = 16						; size = 4
_gravy$ = 20						; size = 4
??0SpherePackFactory@@QAE@HMMM@Z PROC			; SpherePackFactory::SpherePackFactory, COMDAT
; _this$ = ecx

; 21   : {

  00000	55		 push	 ebp
  00001	8b ec		 mov	 ebp, esp
  00003	6a ff		 push	 -1
  00005	68 00 00 00 00	 push	 __ehhandler$??0SpherePackFactory@@QAE@HMMM@Z
  0000a	64 a1 00 00 00
	00		 mov	 eax, DWORD PTR fs:0
  00010	50		 push	 eax
  00011	83 ec 08	 sub	 esp, 8
  00014	53		 push	 ebx
  00015	56		 push	 esi
  00016	57		 push	 edi
  00017	a1 00 00 00 00	 mov	 eax, DWORD PTR ___security_cookie
  0001c	33 c5		 xor	 eax, ebp
  0001e	50		 push	 eax
  0001f	8d 45 f4	 lea	 eax, DWORD PTR __$EHRec$[ebp]
  00022	64 a3 00 00 00
	00		 mov	 DWORD PTR fs:0, eax
  00028	89 4d f0	 mov	 DWORD PTR _this$[ebp], ecx
  0002b	c7 01 00 00 00
	00		 mov	 DWORD PTR [ecx], OFFSET ??_7SpherePackFactory@@6B@
  00031	c7 45 fc 00 00
	00 00		 mov	 DWORD PTR __$EHRec$[ebp+8], 0
; File C:\DS Project\DS Files\Source\ClientSource\Client\SphereLib\pool.h

; 24   : 		mHead = 0;

  00038	c7 41 1c 00 00
	00 00		 mov	 DWORD PTR [ecx+28], 0

; 25   : 		mFree = 0;

  0003f	c7 41 20 00 00
	00 00		 mov	 DWORD PTR [ecx+32], 0

; 26   : 		mData = 0;

  00046	c7 41 18 00 00
	00 00		 mov	 DWORD PTR [ecx+24], 0

; 27   : 		mCurrent = 0;

  0004d	c7 41 14 00 00
	00 00		 mov	 DWORD PTR [ecx+20], 0

; 28   : 		mFreeCount = 0;

  00054	c7 41 28 00 00
	00 00		 mov	 DWORD PTR [ecx+40], 0

; 29   : 		mUsedCount = 0;

  0005b	c7 41 24 00 00
	00 00		 mov	 DWORD PTR [ecx+36], 0
; File C:\DS Project\DS Files\Source\ClientSource\Client\SphereLib\spherepack.cpp

; 21   : {

  00062	c6 45 fc 01	 mov	 BYTE PTR __$EHRec$[ebp+8], 1

; 22   : 	NANOBEGIN

  00066	eb		 DB	 -21			; ffffffebH
  00067	03		 DB	 3
  00068	d6		 DB	 -42			; ffffffd6H
  00069	d7		 DB	 -41			; ffffffd7H
  0006a	01		 DB	 1

; 23   : 	maxspheres *= 4; // include room for both trees, the root node and leaf node tree, and the superspheres
; 24   : 	mMaxRootSize      = rootsize;

  0006b	8b 5d f0	 mov	 ebx, DWORD PTR _this$[ebp]
  0006e	f3 0f 10 45 0c	 movss	 xmm0, DWORD PTR _rootsize$[ebp]
  00073	8b 45 08	 mov	 eax, DWORD PTR _maxspheres$[ebp]

; 27   : 	mIntegrate        = new SpherePackFifo(maxspheres);

  00076	6a 18		 push	 24			; 00000018H
  00078	f3 0f 11 43 34	 movss	 DWORD PTR [ebx+52], xmm0
  0007d	f3 0f 10 45 10	 movss	 xmm0, DWORD PTR _leafsize$[ebp]
  00082	f3 0f 11 43 38	 movss	 DWORD PTR [ebx+56], xmm0
  00087	8d 3c 85 00 00
	00 00		 lea	 edi, DWORD PTR [eax*4]
  0008e	f3 0f 10 45 14	 movss	 xmm0, DWORD PTR _gravy$[ebp]
  00093	89 7d ec	 mov	 DWORD PTR _maxspheres$1$[ebp], edi
  00096	f3 0f 11 43 3c	 movss	 DWORD PTR [ebx+60], xmm0
  0009b	e8 00 00 00 00	 call	 ??2@YAPAXI@Z		; operator new
  000a0	8b f0		 mov	 esi, eax
  000a2	83 c4 04	 add	 esp, 4
  000a5	89 75 08	 mov	 DWORD PTR $T4[ebp], esi
  000a8	c6 45 fc 02	 mov	 BYTE PTR __$EHRec$[ebp+8], 2
  000ac	ba 04 00 00 00	 mov	 edx, 4
  000b1	85 f6		 test	 esi, esi
  000b3	74 39		 je	 SHORT $LN3@SpherePack
; File C:\DS Project\DS Files\Source\ClientSource\Client\SphereLib\spherepack.h

; 307  : 		mFifo = new SpherePack *[mFifoSize];

  000b5	33 c9		 xor	 ecx, ecx
  000b7	c7 06 00 00 00
	00		 mov	 DWORD PTR [esi], OFFSET ??_7SpherePackFifo@@6B@
  000bd	8b c7		 mov	 eax, edi
  000bf	c7 46 04 00 00
	00 00		 mov	 DWORD PTR [esi+4], 0
  000c6	f7 e2		 mul	 edx
  000c8	c7 46 08 00 00
	00 00		 mov	 DWORD PTR [esi+8], 0
  000cf	c7 46 0c 00 00
	00 00		 mov	 DWORD PTR [esi+12], 0
  000d6	0f 90 c1	 seto	 cl
  000d9	89 7e 10	 mov	 DWORD PTR [esi+16], edi
  000dc	f7 d9		 neg	 ecx
  000de	0b c8		 or	 ecx, eax
  000e0	51		 push	 ecx
  000e1	e8 00 00 00 00	 call	 ??_U@YAPAXI@Z		; operator new[]
  000e6	83 c4 04	 add	 esp, 4
  000e9	89 46 14	 mov	 DWORD PTR [esi+20], eax
; File C:\DS Project\DS Files\Source\ClientSource\Client\SphereLib\spherepack.cpp

; 27   : 	mIntegrate        = new SpherePackFifo(maxspheres);

  000ec	eb 02		 jmp	 SHORT $LN4@SpherePack
$LN3@SpherePack:
  000ee	33 f6		 xor	 esi, esi
$LN4@SpherePack:

; 28   : 	mRecompute        = new SpherePackFifo(maxspheres);

  000f0	6a 18		 push	 24			; 00000018H
  000f2	c6 45 fc 01	 mov	 BYTE PTR __$EHRec$[ebp+8], 1
  000f6	89 73 2c	 mov	 DWORD PTR [ebx+44], esi
  000f9	e8 00 00 00 00	 call	 ??2@YAPAXI@Z		; operator new
  000fe	8b f0		 mov	 esi, eax
  00100	83 c4 04	 add	 esp, 4
  00103	89 75 08	 mov	 DWORD PTR $T3[ebp], esi
  00106	c6 45 fc 03	 mov	 BYTE PTR __$EHRec$[ebp+8], 3
  0010a	85 f6		 test	 esi, esi
  0010c	74 3e		 je	 SHORT $LN5@SpherePack
; File C:\DS Project\DS Files\Source\ClientSource\Client\SphereLib\spherepack.h

; 307  : 		mFifo = new SpherePack *[mFifoSize];

  0010e	33 c9		 xor	 ecx, ecx
  00110	c7 06 00 00 00
	00		 mov	 DWORD PTR [esi], OFFSET ??_7SpherePackFifo@@6B@
  00116	8b c7		 mov	 eax, edi
  00118	c7 46 04 00 00
	00 00		 mov	 DWORD PTR [esi+4], 0
  0011f	ba 04 00 00 00	 mov	 edx, 4
  00124	c7 46 08 00 00
	00 00		 mov	 DWORD PTR [esi+8], 0
  0012b	f7 e2		 mul	 edx
  0012d	c7 46 0c 00 00
	00 00		 mov	 DWORD PTR [esi+12], 0
  00134	89 7e 10	 mov	 DWORD PTR [esi+16], edi
  00137	0f 90 c1	 seto	 cl
  0013a	f7 d9		 neg	 ecx
  0013c	0b c8		 or	 ecx, eax
  0013e	51		 push	 ecx
  0013f	e8 00 00 00 00	 call	 ??_U@YAPAXI@Z		; operator new[]
  00144	83 c4 04	 add	 esp, 4
  00147	89 46 14	 mov	 DWORD PTR [esi+20], eax
; File C:\DS Project\DS Files\Source\ClientSource\Client\SphereLib\spherepack.cpp

; 28   : 	mRecompute        = new SpherePackFifo(maxspheres);

  0014a	eb 02		 jmp	 SHORT $LN6@SpherePack
$LN5@SpherePack:
  0014c	33 f6		 xor	 esi, esi
$LN6@SpherePack:
  0014e	89 73 30	 mov	 DWORD PTR [ebx+48], esi
; File C:\DS Project\DS Files\Source\ClientSource\Client\SphereLib\pool.h

; 55   : 		if (mData)

  00151	8b 4b 18	 mov	 ecx, DWORD PTR [ebx+24]
; File C:\DS Project\DS Files\Source\ClientSource\Client\SphereLib\spherepack.cpp

; 28   : 	mRecompute        = new SpherePackFifo(maxspheres);

  00154	c6 45 fc 01	 mov	 BYTE PTR __$EHRec$[ebp+8], 1
; File C:\DS Project\DS Files\Source\ClientSource\Client\SphereLib\pool.h

; 55   : 		if (mData)

  00158	85 c9		 test	 ecx, ecx
  0015a	74 1c		 je	 SHORT $LN28@SpherePack

; 56   : 			delete [] mData; // delete any previous incarnation.

  0015c	83 79 fc 00	 cmp	 DWORD PTR [ecx-4], 0
  00160	8d 41 fc	 lea	 eax, DWORD PTR [ecx-4]
  00163	74 08		 je	 SHORT $LN27@SpherePack
  00165	8b 01		 mov	 eax, DWORD PTR [ecx]
  00167	6a 03		 push	 3
  00169	ff 10		 call	 DWORD PTR [eax]
  0016b	eb 0b		 jmp	 SHORT $LN28@SpherePack
$LN27@SpherePack:
  0016d	6a 04		 push	 4
  0016f	50		 push	 eax
  00170	e8 00 00 00 00	 call	 ??_V@YAXPAXI@Z		; operator delete[]
  00175	83 c4 08	 add	 esp, 8
$LN28@SpherePack:

; 57   : 		mMaxItems = maxitems;
; 58   : 		mData = new Type[mMaxItems];

  00178	33 c9		 xor	 ecx, ecx
  0017a	89 7b 10	 mov	 DWORD PTR [ebx+16], edi
  0017d	8b c7		 mov	 eax, edi
  0017f	89 7d 0c	 mov	 DWORD PTR $T5[ebp], edi
  00182	ba 50 00 00 00	 mov	 edx, 80			; 00000050H
  00187	f7 e2		 mul	 edx
  00189	0f 90 c1	 seto	 cl
  0018c	f7 d9		 neg	 ecx
  0018e	0b c8		 or	 ecx, eax
  00190	33 c0		 xor	 eax, eax
  00192	83 c1 04	 add	 ecx, 4
  00195	0f 92 c0	 setb	 al
  00198	f7 d8		 neg	 eax
  0019a	0b c1		 or	 eax, ecx
  0019c	50		 push	 eax
  0019d	e8 00 00 00 00	 call	 ??_U@YAPAXI@Z		; operator new[]
  001a2	83 c4 04	 add	 esp, 4
  001a5	89 45 10	 mov	 DWORD PTR $T6[ebp], eax
  001a8	c6 45 fc 04	 mov	 BYTE PTR __$EHRec$[ebp+8], 4
  001ac	85 c0		 test	 eax, eax
  001ae	74 1d		 je	 SHORT $LN31@SpherePack
  001b0	68 00 00 00 00	 push	 OFFSET ??1SpherePack@@UAE@XZ ; SpherePack::~SpherePack
  001b5	68 00 00 00 00	 push	 OFFSET ??0SpherePack@@QAE@XZ ; SpherePack::SpherePack
  001ba	57		 push	 edi
  001bb	8d 70 04	 lea	 esi, DWORD PTR [eax+4]
  001be	89 38		 mov	 DWORD PTR [eax], edi
  001c0	6a 50		 push	 80			; 00000050H
  001c2	56		 push	 esi
  001c3	89 75 08	 mov	 DWORD PTR $T2[ebp], esi
  001c6	e8 00 00 00 00	 call	 ??_L@YGXPAXIIP6EX0@Z1@Z
  001cb	eb 05		 jmp	 SHORT $LN32@SpherePack
$LN31@SpherePack:
  001cd	33 f6		 xor	 esi, esi
  001cf	89 75 08	 mov	 DWORD PTR $T2[ebp], esi
$LN32@SpherePack:

; 59   : 		mFree = mData;
; 60   : 		mHead = 0;
; 61   : 		int loopValue = (mMaxItems-1);

  001d2	8b 7b 10	 mov	 edi, DWORD PTR [ebx+16]
  001d5	89 73 18	 mov	 DWORD PTR [ebx+24], esi
  001d8	4f		 dec	 edi
  001d9	89 73 20	 mov	 DWORD PTR [ebx+32], esi
  001dc	33 f6		 xor	 esi, esi
  001de	c7 43 1c 00 00
	00 00		 mov	 DWORD PTR [ebx+28], 0

; 62   : 		for (int i=0; i<loopValue; i++)

  001e5	85 ff		 test	 edi, edi
  001e7	7e 39		 jle	 SHORT $LN64@SpherePack
  001e9	0f 1f 80 00 00
	00 00		 npad	 7
$LL22@SpherePack:

; 63   : 		{
; 64   : 			mData[i].SetNext( &mData[i+1] );

  001f0	8b 4b 18	 mov	 ecx, DWORD PTR [ebx+24]
  001f3	8d 14 b6	 lea	 edx, DWORD PTR [esi+esi*4]
  001f6	c1 e2 04	 shl	 edx, 4
  001f9	8d 41 50	 lea	 eax, DWORD PTR [ecx+80]
  001fc	03 c2		 add	 eax, edx
  001fe	89 44 0a 18	 mov	 DWORD PTR [edx+ecx+24], eax
  00202	8b 4b 18	 mov	 ecx, DWORD PTR [ebx+24]

; 65   : 			if ( i == 0 )

  00205	85 f6		 test	 esi, esi
  00207	75 06		 jne	 SHORT $LN24@SpherePack

; 66   : 				mData[i].SetPrevious( 0 );

  00209	89 74 0a 1c	 mov	 DWORD PTR [edx+ecx+28], esi
  0020d	eb 09		 jmp	 SHORT $LN20@SpherePack
$LN24@SpherePack:

; 67   : 			else
; 68   : 				mData[i].SetPrevious( &mData[i-1] );

  0020f	8d 41 b0	 lea	 eax, DWORD PTR [ecx-80]
  00212	03 c2		 add	 eax, edx
  00214	89 44 0a 1c	 mov	 DWORD PTR [edx+ecx+28], eax
$LN20@SpherePack:

; 62   : 		for (int i=0; i<loopValue; i++)

  00218	46		 inc	 esi
  00219	3b f7		 cmp	 esi, edi
  0021b	7c d3		 jl	 SHORT $LL22@SpherePack
  0021d	8b 43 18	 mov	 eax, DWORD PTR [ebx+24]
  00220	eb 03		 jmp	 SHORT $LN21@SpherePack
$LN64@SpherePack:
  00222	8b 45 08	 mov	 eax, DWORD PTR $T2[ebp]
$LN21@SpherePack:

; 69   : 		}
; 70   : 
; 71   : 		mData[loopValue].SetNext(0);

  00225	8d 14 bf	 lea	 edx, DWORD PTR [edi+edi*4]
  00228	c1 e2 04	 shl	 edx, 4
  0022b	c7 44 02 18 00
	00 00 00	 mov	 DWORD PTR [edx+eax+24], 0

; 72   : 		mData[loopValue].SetPrevious( &mData[loopValue-1] );

  00233	8b 4b 18	 mov	 ecx, DWORD PTR [ebx+24]
  00236	8d 41 b0	 lea	 eax, DWORD PTR [ecx-80]
  00239	03 c2		 add	 eax, edx
  0023b	89 44 0a 1c	 mov	 DWORD PTR [edx+ecx+28], eax

; 73   : 		mCurrent = 0; // there is no current, currently. <g>
; 74   : 		mFreeCount = maxitems;

  0023f	8b 45 ec	 mov	 eax, DWORD PTR _maxspheres$1$[ebp]
  00242	c7 43 14 00 00
	00 00		 mov	 DWORD PTR [ebx+20], 0
  00249	89 43 28	 mov	 DWORD PTR [ebx+40], eax

; 75   : 		mUsedCount = 0;

  0024c	c7 43 24 00 00
	00 00		 mov	 DWORD PTR [ebx+36], 0

; 186  : 		if ( !mFree ) return 0;

  00253	8b 4b 20	 mov	 ecx, DWORD PTR [ebx+32]
  00256	85 c9		 test	 ecx, ecx
  00258	74 2b		 je	 SHORT $LN36@SpherePack
$LN37@SpherePack:

; 187  : 		Type *ret = mFree;
; 188  : 		mFree = ret->GetNext(); // new head of free list

  0025a	8b 41 18	 mov	 eax, DWORD PTR [ecx+24]

; 189  : 		Type *temp = mHead; // current head of list
; 190  : 		mHead = ret;        // new head of list is this free one

  0025d	8b d1		 mov	 edx, ecx
  0025f	89 43 20	 mov	 DWORD PTR [ebx+32], eax
  00262	8b 43 1c	 mov	 eax, DWORD PTR [ebx+28]
  00265	89 4b 1c	 mov	 DWORD PTR [ebx+28], ecx

; 191  : 		if ( temp ) temp->SetPrevious(ret);

  00268	85 c0		 test	 eax, eax
  0026a	74 06		 je	 SHORT $LN38@SpherePack
  0026c	89 48 1c	 mov	 DWORD PTR [eax+28], ecx
  0026f	8b 53 1c	 mov	 edx, DWORD PTR [ebx+28]
$LN38@SpherePack:

; 192  : 		mHead->SetNext(temp);

  00272	89 42 18	 mov	 DWORD PTR [edx+24], eax

; 193  : 		mHead->SetPrevious(0);

  00275	8b 43 1c	 mov	 eax, DWORD PTR [ebx+28]
  00278	c7 40 1c 00 00
	00 00		 mov	 DWORD PTR [eax+28], 0

; 194  : 		mUsedCount++;

  0027f	ff 43 24	 inc	 DWORD PTR [ebx+36]

; 195  : 		mFreeCount--;

  00282	ff 4b 28	 dec	 DWORD PTR [ebx+40]
$LN36@SpherePack:
; File C:\DS Project\DS Files\Source\ClientSource\Client\SphereLib\sphere.h

; 67   : 		mRadius = radius;

  00285	f3 0f 10 05 00
	00 00 00	 movss	 xmm0, DWORD PTR __real@4ac80000
; File C:\DS Project\DS Files\Source\ClientSource\Client\SphereLib\spherepack.cpp

; 34   : 	mRoot = mSpheres.GetFreeLink(); // initially empty

  0028d	89 4b 04	 mov	 DWORD PTR [ebx+4], ecx
; File C:\DS Project\DS Files\Source\ClientSource\Client\SphereLib\sphere.h

; 68   : 		mRadius2 = radius*radius;

  00290	f3 0f 59 c0	 mulss	 xmm0, xmm0
; File C:\DS Project\DS Files\Source\ClientSource\Client\SphereLib\spherepack.h

; 115  : 		IS_SPHERE			= isSphere;

  00294	c6 41 4c 00	 mov	 BYTE PTR [ecx+76], 0

; 116  : 		mUserData         = userdata;

  00298	c7 41 44 00 00
	00 00		 mov	 DWORD PTR [ecx+68], 0

; 117  : 		mParent           = 0;

  0029f	c7 41 20 00 00
	00 00		 mov	 DWORD PTR [ecx+32], 0

; 118  : 		mNextSibling      = 0;

  002a6	c7 41 28 00 00
	00 00		 mov	 DWORD PTR [ecx+40], 0

; 119  : 		mPrevSibling      = 0;

  002ad	c7 41 2c 00 00
	00 00		 mov	 DWORD PTR [ecx+44], 0

; 120  : 		mFlags            = 0;

  002b4	c7 41 38 00 00
	00 00		 mov	 DWORD PTR [ecx+56], 0

; 121  : 		mFifo1            = 0;

  002bb	c7 41 30 00 00
	00 00		 mov	 DWORD PTR [ecx+48], 0

; 122  : 		mFifo2            = 0;

  002c2	c7 41 34 00 00
	00 00		 mov	 DWORD PTR [ecx+52], 0

; 123  : 		mFactory          = factory;

  002c9	89 59 48	 mov	 DWORD PTR [ecx+72], ebx
; File C:\DS Project\DS Files\Source\ClientSource\Client\SphereLib\vector.h

; 57   : 	{ x=A.x; y=A.y; z=A.z;

  002cc	c7 41 04 00 00
	00 00		 mov	 DWORD PTR [ecx+4], 0
  002d3	c7 41 08 00 00
	00 00		 mov	 DWORD PTR [ecx+8], 0
  002da	c7 41 0c 00 00
	00 00		 mov	 DWORD PTR [ecx+12], 0
; File C:\DS Project\DS Files\Source\ClientSource\Client\SphereLib\sphere.h

; 67   : 		mRadius = radius;

  002e1	c7 41 10 00 00
	c8 4a		 mov	 DWORD PTR [ecx+16], 1254621184 ; 4ac80000H

; 68   : 		mRadius2 = radius*radius;

  002e8	f3 0f 11 41 14	 movss	 DWORD PTR [ecx+20], xmm0
; File C:\DS Project\DS Files\Source\ClientSource\Client\SphereLib\spherepack.cpp

; 36   : 	mRoot->SetSpherePackFlag(SpherePackFlag(SPF_SUPERSPHERE | SPF_ROOTNODE | SPF_ROOT_TREE));

  002ed	8b 43 04	 mov	 eax, DWORD PTR [ebx+4]
; File C:\DS Project\DS Files\Source\ClientSource\Client\SphereLib\spherepack.h

; 129  : 	void SetSpherePackFlag(SpherePackFlag flag) { mFlags|=flag; };

  002f0	83 48 38 0b	 or	 DWORD PTR [eax+56], 11	; 0000000bH
; File C:\DS Project\DS Files\Source\ClientSource\Client\SphereLib\pool.h

; 186  : 		if ( !mFree ) return 0;

  002f4	8b 4b 20	 mov	 ecx, DWORD PTR [ebx+32]
  002f7	85 c9		 test	 ecx, ecx
  002f9	74 2b		 je	 SHORT $LN48@SpherePack
$LN49@SpherePack:

; 187  : 		Type *ret = mFree;
; 188  : 		mFree = ret->GetNext(); // new head of free list

  002fb	8b 41 18	 mov	 eax, DWORD PTR [ecx+24]

; 189  : 		Type *temp = mHead; // current head of list
; 190  : 		mHead = ret;        // new head of list is this free one

  002fe	8b d1		 mov	 edx, ecx
  00300	89 43 20	 mov	 DWORD PTR [ebx+32], eax
  00303	8b 43 1c	 mov	 eax, DWORD PTR [ebx+28]
  00306	89 4b 1c	 mov	 DWORD PTR [ebx+28], ecx

; 191  : 		if ( temp ) temp->SetPrevious(ret);

  00309	85 c0		 test	 eax, eax
  0030b	74 06		 je	 SHORT $LN50@SpherePack
  0030d	89 48 1c	 mov	 DWORD PTR [eax+28], ecx
  00310	8b 53 1c	 mov	 edx, DWORD PTR [ebx+28]
$LN50@SpherePack:

; 192  : 		mHead->SetNext(temp);

  00313	89 42 18	 mov	 DWORD PTR [edx+24], eax

; 193  : 		mHead->SetPrevious(0);

  00316	8b 43 1c	 mov	 eax, DWORD PTR [ebx+28]
  00319	c7 40 1c 00 00
	00 00		 mov	 DWORD PTR [eax+28], 0

; 194  : 		mUsedCount++;

  00320	ff 43 24	 inc	 DWORD PTR [ebx+36]

; 195  : 		mFreeCount--;

  00323	ff 4b 28	 dec	 DWORD PTR [ebx+40]
$LN48@SpherePack:
; File C:\DS Project\DS Files\Source\ClientSource\Client\SphereLib\sphere.h

; 67   : 		mRadius = radius;

  00326	f3 0f 10 05 00
	00 00 00	 movss	 xmm0, DWORD PTR __real@49c80000
; File C:\DS Project\DS Files\Source\ClientSource\Client\SphereLib\spherepack.cpp

; 42   : 	mLeaf = mSpheres.GetFreeLink();; // initially empty

  0032e	89 4b 08	 mov	 DWORD PTR [ebx+8], ecx
; File C:\DS Project\DS Files\Source\ClientSource\Client\SphereLib\sphere.h

; 68   : 		mRadius2 = radius*radius;

  00331	f3 0f 59 c0	 mulss	 xmm0, xmm0
; File C:\DS Project\DS Files\Source\ClientSource\Client\SphereLib\spherepack.h

; 115  : 		IS_SPHERE			= isSphere;

  00335	c6 41 4c 00	 mov	 BYTE PTR [ecx+76], 0

; 116  : 		mUserData         = userdata;

  00339	c7 41 44 00 00
	00 00		 mov	 DWORD PTR [ecx+68], 0

; 117  : 		mParent           = 0;

  00340	c7 41 20 00 00
	00 00		 mov	 DWORD PTR [ecx+32], 0

; 118  : 		mNextSibling      = 0;

  00347	c7 41 28 00 00
	00 00		 mov	 DWORD PTR [ecx+40], 0

; 119  : 		mPrevSibling      = 0;

  0034e	c7 41 2c 00 00
	00 00		 mov	 DWORD PTR [ecx+44], 0

; 120  : 		mFlags            = 0;

  00355	c7 41 38 00 00
	00 00		 mov	 DWORD PTR [ecx+56], 0

; 121  : 		mFifo1            = 0;

  0035c	c7 41 30 00 00
	00 00		 mov	 DWORD PTR [ecx+48], 0

; 122  : 		mFifo2            = 0;

  00363	c7 41 34 00 00
	00 00		 mov	 DWORD PTR [ecx+52], 0

; 123  : 		mFactory          = factory;

  0036a	89 59 48	 mov	 DWORD PTR [ecx+72], ebx
; File C:\DS Project\DS Files\Source\ClientSource\Client\SphereLib\vector.h

; 57   : 	{ x=A.x; y=A.y; z=A.z;

  0036d	c7 41 04 00 00
	00 00		 mov	 DWORD PTR [ecx+4], 0
  00374	c7 41 08 00 00
	00 00		 mov	 DWORD PTR [ecx+8], 0
  0037b	c7 41 0c 00 00
	00 00		 mov	 DWORD PTR [ecx+12], 0
; File C:\DS Project\DS Files\Source\ClientSource\Client\SphereLib\sphere.h

; 67   : 		mRadius = radius;

  00382	c7 41 10 00 00
	c8 49		 mov	 DWORD PTR [ecx+16], 1237843968 ; 49c80000H

; 68   : 		mRadius2 = radius*radius;

  00389	f3 0f 11 41 14	 movss	 DWORD PTR [ecx+20], xmm0
; File C:\DS Project\DS Files\Source\ClientSource\Client\SphereLib\spherepack.cpp

; 44   : 	mLeaf->SetSpherePackFlag(SpherePackFlag(SPF_SUPERSPHERE | SPF_ROOTNODE | SPF_LEAF_TREE));

  0038e	8b 43 08	 mov	 eax, DWORD PTR [ebx+8]
; File C:\DS Project\DS Files\Source\ClientSource\Client\SphereLib\spherepack.h

; 129  : 	void SetSpherePackFlag(SpherePackFlag flag) { mFlags|=flag; };

  00391	83 48 38 0d	 or	 DWORD PTR [eax+56], 13	; 0000000dH
; File C:\DS Project\DS Files\Source\ClientSource\Client\SphereLib\spherepack.cpp

; 64   : 	NANOEND

  00395	eb		 DB	 -21			; ffffffebH
  00396	03		 DB	 3
  00397	d6		 DB	 -42			; ffffffd6H
  00398	d7		 DB	 -41			; ffffffd7H
  00399	00		 DB	 0
  0039a	8b 45 f0	 mov	 eax, DWORD PTR _this$[ebp]
  0039d	8b 4d f4	 mov	 ecx, DWORD PTR __$EHRec$[ebp]
  003a0	64 89 0d 00 00
	00 00		 mov	 DWORD PTR fs:0, ecx
  003a7	59		 pop	 ecx
  003a8	5f		 pop	 edi
  003a9	5e		 pop	 esi
  003aa	5b		 pop	 ebx
  003ab	8b e5		 mov	 esp, ebp
  003ad	5d		 pop	 ebp
  003ae	c2 10 00	 ret	 16			; 00000010H
_TEXT	ENDS
;	COMDAT text$x
text$x	SEGMENT
__unwindfunclet$??0SpherePackFactory@@QAE@HMMM@Z$0:
  00000	8b 4d f0	 mov	 ecx, DWORD PTR _this$[ebp]
  00003	e9 00 00 00 00	 jmp	 ??1SpherePackCallback@@UAE@XZ ; SpherePackCallback::~SpherePackCallback
__unwindfunclet$??0SpherePackFactory@@QAE@HMMM@Z$1:
  00008	8b 4d f0	 mov	 ecx, DWORD PTR _this$[ebp]
  0000b	83 c1 10	 add	 ecx, 16			; 00000010H
  0000e	e9 00 00 00 00	 jmp	 ??1?$Pool@VSpherePack@@@@QAE@XZ ; Pool<SpherePack>::~Pool<SpherePack>
__unwindfunclet$??0SpherePackFactory@@QAE@HMMM@Z$2:
  00013	6a 18		 push	 24			; 00000018H
  00015	8b 45 08	 mov	 eax, DWORD PTR $T4[ebp]
  00018	50		 push	 eax
  00019	e8 00 00 00 00	 call	 ??3@YAXPAXI@Z		; operator delete
  0001e	83 c4 08	 add	 esp, 8
  00021	c3		 ret	 0
__unwindfunclet$??0SpherePackFactory@@QAE@HMMM@Z$3:
  00022	6a 18		 push	 24			; 00000018H
  00024	8b 45 08	 mov	 eax, DWORD PTR $T3[ebp]
  00027	50		 push	 eax
  00028	e8 00 00 00 00	 call	 ??3@YAXPAXI@Z		; operator delete
  0002d	83 c4 08	 add	 esp, 8
  00030	c3		 ret	 0
__unwindfunclet$??0SpherePackFactory@@QAE@HMMM@Z$4:
  00031	33 db		 xor	 ebx, ebx
  00033	8b 45 0c	 mov	 eax, DWORD PTR $T5[ebp]
  00036	b9 50 00 00 00	 mov	 ecx, 80			; 00000050H
  0003b	f7 e1		 mul	 ecx
  0003d	0f 90 c3	 seto	 bl
  00040	f7 db		 neg	 ebx
  00042	0b d8		 or	 ebx, eax
  00044	33 c0		 xor	 eax, eax
  00046	83 c3 04	 add	 ebx, 4
  00049	0f 92 c0	 setb	 al
  0004c	f7 d8		 neg	 eax
  0004e	0b c3		 or	 eax, ebx
  00050	50		 push	 eax
  00051	8b 45 10	 mov	 eax, DWORD PTR $T6[ebp]
  00054	50		 push	 eax
  00055	e8 00 00 00 00	 call	 ??_V@YAXPAXI@Z		; operator delete[]
  0005a	83 c4 08	 add	 esp, 8
  0005d	c3		 ret	 0
  0005e	cc		 int	 3
  0005f	cc		 int	 3
  00060	cc		 int	 3
  00061	cc		 int	 3
  00062	cc		 int	 3
__ehhandler$??0SpherePackFactory@@QAE@HMMM@Z:
  00063	90		 npad	 1
  00064	90		 npad	 1
  00065	8b 54 24 08	 mov	 edx, DWORD PTR [esp+8]
  00069	8d 42 0c	 lea	 eax, DWORD PTR [edx+12]
  0006c	8b 4a e8	 mov	 ecx, DWORD PTR [edx-24]
  0006f	33 c8		 xor	 ecx, eax
  00071	e8 00 00 00 00	 call	 @__security_check_cookie@4
  00076	b8 00 00 00 00	 mov	 eax, OFFSET __ehfuncinfo$??0SpherePackFactory@@QAE@HMMM@Z
  0007b	e9 00 00 00 00	 jmp	 ___CxxFrameHandler3
text$x	ENDS
??0SpherePackFactory@@QAE@HMMM@Z ENDP			; SpherePackFactory::SpherePackFactory
; Function compile flags: /Ogtp
; File C:\DS Project\DS Files\Source\ClientSource\Client\SphereLib\spherepack.h
;	COMDAT ??_GSpherePackFifo@@UAEPAXI@Z
_TEXT	SEGMENT
___flags$ = 8						; size = 4
??_GSpherePackFifo@@UAEPAXI@Z PROC			; SpherePackFifo::`scalar deleting destructor', COMDAT
; _this$ = ecx
  00000	55		 push	 ebp
  00001	8b ec		 mov	 ebp, esp

; 311  : 	{

  00003	56		 push	 esi
  00004	8b f1		 mov	 esi, ecx

; 312  : 		delete [] mFifo;

  00006	ff 76 14	 push	 DWORD PTR [esi+20]
  00009	c7 06 00 00 00
	00		 mov	 DWORD PTR [esi], OFFSET ??_7SpherePackFifo@@6B@
  0000f	e8 00 00 00 00	 call	 ??_V@YAXPAX@Z		; operator delete[]
  00014	83 c4 04	 add	 esp, 4
  00017	f6 45 08 01	 test	 BYTE PTR ___flags$[ebp], 1
  0001b	74 0b		 je	 SHORT $LN6@scalar
  0001d	6a 18		 push	 24			; 00000018H
  0001f	56		 push	 esi
  00020	e8 00 00 00 00	 call	 ??3@YAXPAXI@Z		; operator delete
  00025	83 c4 08	 add	 esp, 8
$LN6@scalar:
  00028	8b c6		 mov	 eax, esi
  0002a	5e		 pop	 esi
  0002b	5d		 pop	 ebp
  0002c	c2 04 00	 ret	 4
??_GSpherePackFifo@@UAEPAXI@Z ENDP			; SpherePackFifo::`scalar deleting destructor'
_TEXT	ENDS
; Function compile flags: /Ogtp
; File C:\DS Project\DS Files\Source\ClientSource\Client\SphereLib\spherepack.h
;	COMDAT ??1SpherePackFifo@@UAE@XZ
_TEXT	SEGMENT
??1SpherePackFifo@@UAE@XZ PROC				; SpherePackFifo::~SpherePackFifo, COMDAT
; _this$ = ecx

; 312  : 		delete [] mFifo;

  00000	ff 71 14	 push	 DWORD PTR [ecx+20]
  00003	c7 01 00 00 00
	00		 mov	 DWORD PTR [ecx], OFFSET ??_7SpherePackFifo@@6B@
  00009	e8 00 00 00 00	 call	 ??_V@YAXPAX@Z		; operator delete[]
  0000e	59		 pop	 ecx

; 313  : 	};

  0000f	c3		 ret	 0
??1SpherePackFifo@@UAE@XZ ENDP				; SpherePackFifo::~SpherePackFifo
_TEXT	ENDS
; Function compile flags: /Ogtp
;	COMDAT ??_ESpherePack@@UAEPAXI@Z
_TEXT	SEGMENT
__$EHRec$ = -12						; size = 12
___flags$ = 8						; size = 4
??_ESpherePack@@UAEPAXI@Z PROC				; SpherePack::`vector deleting destructor', COMDAT
; _this$ = ecx
  00000	55		 push	 ebp
  00001	8b ec		 mov	 ebp, esp
  00003	6a ff		 push	 -1
  00005	68 00 00 00 00	 push	 __ehhandler$??_ESpherePack@@UAEPAXI@Z
  0000a	64 a1 00 00 00
	00		 mov	 eax, DWORD PTR fs:0
  00010	50		 push	 eax
  00011	53		 push	 ebx
  00012	56		 push	 esi
  00013	57		 push	 edi
  00014	a1 00 00 00 00	 mov	 eax, DWORD PTR ___security_cookie
  00019	33 c5		 xor	 eax, ebp
  0001b	50		 push	 eax
  0001c	8d 45 f4	 lea	 eax, DWORD PTR __$EHRec$[ebp]
  0001f	64 a3 00 00 00
	00		 mov	 DWORD PTR fs:0, eax
  00025	8b f1		 mov	 esi, ecx
  00027	8b 45 08	 mov	 eax, DWORD PTR ___flags$[ebp]
  0002a	8b d8		 mov	 ebx, eax
  0002c	83 e3 01	 and	 ebx, 1
  0002f	a8 02		 test	 al, 2
  00031	74 42		 je	 SHORT $LN2@vector
  00033	68 00 00 00 00	 push	 OFFSET ??1SpherePack@@UAE@XZ ; SpherePack::~SpherePack
  00038	ff 76 fc	 push	 DWORD PTR [esi-4]
  0003b	8d 7e fc	 lea	 edi, DWORD PTR [esi-4]
  0003e	6a 50		 push	 80			; 00000050H
  00040	56		 push	 esi
  00041	e8 00 00 00 00	 call	 ??_M@YGXPAXIIP6EX0@Z@Z
  00046	85 db		 test	 ebx, ebx
  00048	74 15		 je	 SHORT $LN3@vector
  0004a	8b 0f		 mov	 ecx, DWORD PTR [edi]
  0004c	8d 0c 89	 lea	 ecx, DWORD PTR [ecx+ecx*4]
  0004f	c1 e1 04	 shl	 ecx, 4
  00052	83 c1 04	 add	 ecx, 4
  00055	51		 push	 ecx
  00056	57		 push	 edi
  00057	e8 00 00 00 00	 call	 ??_V@YAXPAXI@Z		; operator delete[]
  0005c	83 c4 08	 add	 esp, 8
$LN3@vector:
  0005f	8b c7		 mov	 eax, edi
  00061	8b 4d f4	 mov	 ecx, DWORD PTR __$EHRec$[ebp]
  00064	64 89 0d 00 00
	00 00		 mov	 DWORD PTR fs:0, ecx
  0006b	59		 pop	 ecx
  0006c	5f		 pop	 edi
  0006d	5e		 pop	 esi
  0006e	5b		 pop	 ebx
  0006f	8b e5		 mov	 esp, ebp
  00071	5d		 pop	 ebp
  00072	c2 04 00	 ret	 4
$LN2@vector:
  00075	c7 06 00 00 00
	00		 mov	 DWORD PTR [esi], OFFSET ??_7Sphere@@6B@
  0007b	85 db		 test	 ebx, ebx
  0007d	74 0b		 je	 SHORT $LN4@vector
  0007f	6a 50		 push	 80			; 00000050H
  00081	56		 push	 esi
  00082	e8 00 00 00 00	 call	 ??3@YAXPAXI@Z		; operator delete
  00087	83 c4 08	 add	 esp, 8
$LN4@vector:
  0008a	8b c6		 mov	 eax, esi
  0008c	8b 4d f4	 mov	 ecx, DWORD PTR __$EHRec$[ebp]
  0008f	64 89 0d 00 00
	00 00		 mov	 DWORD PTR fs:0, ecx
  00096	59		 pop	 ecx
  00097	5f		 pop	 edi
  00098	5e		 pop	 esi
  00099	5b		 pop	 ebx
  0009a	8b e5		 mov	 esp, ebp
  0009c	5d		 pop	 ebp
  0009d	c2 04 00	 ret	 4
  000a0	cc		 int	 3
  000a1	cc		 int	 3
  000a2	cc		 int	 3
  000a3	cc		 int	 3
  000a4	cc		 int	 3
_TEXT	ENDS
;	COMDAT text$x
text$x	SEGMENT
__ehhandler$??_ESpherePack@@UAEPAXI@Z:
  00000	90		 npad	 1
  00001	90		 npad	 1
  00002	8b 54 24 08	 mov	 edx, DWORD PTR [esp+8]
  00006	8d 42 0c	 lea	 eax, DWORD PTR [edx+12]
  00009	8b 4a f0	 mov	 ecx, DWORD PTR [edx-16]
  0000c	33 c8		 xor	 ecx, eax
  0000e	e8 00 00 00 00	 call	 @__security_check_cookie@4
  00013	b8 00 00 00 00	 mov	 eax, OFFSET __ehfuncinfo$??_ESpherePack@@UAEPAXI@Z
  00018	e9 00 00 00 00	 jmp	 ___CxxFrameHandler3
text$x	ENDS
??_ESpherePack@@UAEPAXI@Z ENDP				; SpherePack::`vector deleting destructor'
; Function compile flags: /Ogtp
; File C:\DS Project\DS Files\Source\ClientSource\Client\SphereLib\spherepack.cpp
; File C:\DS Project\DS Files\Source\ClientSource\Client\SphereLib\spherepack.h
; File C:\DS Project\DS Files\Source\ClientSource\Client\SphereLib\spherepack.cpp
;	COMDAT ?Reset@SpherePack@@QAEXXZ
_TEXT	SEGMENT
?Reset@SpherePack@@QAEXXZ PROC				; SpherePack::Reset, COMDAT
; _this$ = ecx
; File C:\DS Project\DS Files\Source\ClientSource\Client\SphereLib\spherepack.h

; 130  : 	void ClearSpherePackFlag(SpherePackFlag flag) { mFlags&=~flag; };

  00000	81 61 38 3f fe
	ff ff		 and	 DWORD PTR [ecx+56], -449 ; fffffe3fH
; File C:\DS Project\DS Files\Source\ClientSource\Client\SphereLib\spherepack.cpp

; 859  : {

  00007	56		 push	 esi

; 860  : 	ClearSpherePackFlag(SpherePackFlag(SPF_HIDDEN | SPF_PARTIAL | SPF_INSIDE));
; 861  : 
; 862  : 	SpherePack *pack = mChildren;

  00008	8b 71 24	 mov	 esi, DWORD PTR [ecx+36]

; 863  : 	while (pack)

  0000b	85 f6		 test	 esi, esi
  0000d	74 0f		 je	 SHORT $LN3@Reset
  0000f	90		 npad	 1
$LL2@Reset:

; 864  : 	{
; 865  : 		pack->Reset();

  00010	8b ce		 mov	 ecx, esi
  00012	e8 00 00 00 00	 call	 ?Reset@SpherePack@@QAEXXZ ; SpherePack::Reset

; 866  : 		pack = pack->_GetNextSibling();

  00017	8b 76 28	 mov	 esi, DWORD PTR [esi+40]
  0001a	85 f6		 test	 esi, esi
  0001c	75 f2		 jne	 SHORT $LL2@Reset
$LN3@Reset:
  0001e	5e		 pop	 esi

; 867  : 	}
; 868  : }

  0001f	c3		 ret	 0
?Reset@SpherePack@@QAEXXZ ENDP				; SpherePack::Reset
_TEXT	ENDS
; Function compile flags: /Ogtp
; File C:\DS Project\DS Files\Source\ClientSource\Client\SphereLib\spherepack.cpp
; File C:\DS Project\DS Files\Source\ClientSource\Client\SphereLib\spherepack.h
; File C:\DS Project\DS Files\Source\ClientSource\Client\SphereLib\spherepack.cpp
;	COMDAT ?PointTest2d@SpherePack@@QAEXABVVector3d@@PAVSpherePackCallback@@W4ViewState@@@Z
_TEXT	SEGMENT
_p$ = 8							; size = 4
_callback$ = 12						; size = 4
_state$ = 16						; size = 4
?PointTest2d@SpherePack@@QAEXABVVector3d@@PAVSpherePackCallback@@W4ViewState@@@Z PROC ; SpherePack::PointTest2d, COMDAT
; _this$ = ecx

; 733  : {

  00000	55		 push	 ebp
  00001	8b ec		 mov	 ebp, esp

; 734  : 	if (state == VS_PARTIAL)

  00003	8b 55 08	 mov	 edx, DWORD PTR _p$[ebp]
  00006	56		 push	 esi
  00007	57		 push	 edi
  00008	8b 7d 10	 mov	 edi, DWORD PTR _state$[ebp]
  0000b	8b f1		 mov	 esi, ecx
  0000d	83 ff 01	 cmp	 edi, 1
  00010	75 35		 jne	 SHORT $LN6@PointTest2

; 735  : 	{
; 736  : 		float dx=p.x-mCenter.x;

  00012	f3 0f 10 02	 movss	 xmm0, DWORD PTR [edx]

; 737  : 		float dy=p.y-mCenter.y;

  00016	f3 0f 10 4a 04	 movss	 xmm1, DWORD PTR [edx+4]
  0001b	f3 0f 5c 4e 08	 subss	 xmm1, DWORD PTR [esi+8]
  00020	f3 0f 5c 46 04	 subss	 xmm0, DWORD PTR [esi+4]

; 738  : 		float distSquare = (dx*dx)+(dy*dy);

  00025	f3 0f 59 c9	 mulss	 xmm1, xmm1
  00029	f3 0f 59 c0	 mulss	 xmm0, xmm0
  0002d	f3 0f 58 c8	 addss	 xmm1, xmm0

; 739  : 
; 740  : 		if (distSquare > GetRadius2()) return;;

  00031	0f 2f 4e 14	 comiss	 xmm1, DWORD PTR [esi+20]
  00035	77 44		 ja	 SHORT $LN8@PointTest2

; 741  : 		if (GetRadius2() < -distSquare) state = VS_INSIDE;

  00037	0f 57 0d 00 00
	00 00		 xorps	 xmm1, DWORD PTR __xmm@80000000800000008000000080000000
  0003e	33 c0		 xor	 eax, eax
  00040	0f 2f 4e 14	 comiss	 xmm1, DWORD PTR [esi+20]
  00044	0f 47 f8	 cmova	 edi, eax
$LN6@PointTest2:
; File C:\DS Project\DS Files\Source\ClientSource\Client\SphereLib\spherepack.h

; 133  : 		if ( mFlags & flag ) return true;

  00047	f6 46 38 01	 test	 BYTE PTR [esi+56], 1
  0004b	74 23		 je	 SHORT $LN7@PointTest2
; File C:\DS Project\DS Files\Source\ClientSource\Client\SphereLib\spherepack.cpp

; 753  : 		while (pack) // we NULL (m2l OK) if cculling not process|update()ed

  0004d	8b 76 24	 mov	 esi, DWORD PTR [esi+36]
  00050	85 f6		 test	 esi, esi
  00052	74 27		 je	 SHORT $LN8@PointTest2
$LL2@PointTest2:

; 754  : 		{
; 755  : 			pack->PointTest2d(p, callback, state);

  00054	57		 push	 edi
  00055	ff 75 0c	 push	 DWORD PTR _callback$[ebp]
  00058	8b ce		 mov	 ecx, esi
  0005a	52		 push	 edx
  0005b	e8 00 00 00 00	 call	 ?PointTest2d@SpherePack@@QAEXABVVector3d@@PAVSpherePackCallback@@W4ViewState@@@Z ; SpherePack::PointTest2d

; 756  : 			pack = pack->_GetNextSibling();

  00060	8b 76 28	 mov	 esi, DWORD PTR [esi+40]
  00063	8b 55 08	 mov	 edx, DWORD PTR _p$[ebp]
  00066	85 f6		 test	 esi, esi
  00068	75 ea		 jne	 SHORT $LL2@PointTest2

; 773  : 	}
; 774  : }

  0006a	5f		 pop	 edi
  0006b	5e		 pop	 esi
  0006c	5d		 pop	 ebp
  0006d	c2 0c 00	 ret	 12			; 0000000cH
$LN7@PointTest2:

; 757  : 		}
; 758  : 
; 759  : 	}
; 760  : 	else
; 761  : 	{
; 762  : #ifdef SPHERELIB_STRICT
; 763  : 		extern bool MAPOUTDOOR_GET_HEIGHT_TRACE;
; 764  : 		if (MAPOUTDOOR_GET_HEIGHT_TRACE)
; 765  : 		{
; 766  : 			float dx=p.x-mCenter.x;
; 767  : 			float dy=p.y-mCenter.y;
; 768  : 			float distSquare = (dx*dx)+(dy*dy);
; 769  : 			printf("--- (%f, %f) dist %f radius %f isSphere %d\n", mCenter.x, mCenter.y, distSquare, GetRadius(), IS_SPHERE);
; 770  : 		}
; 771  : #endif
; 772  : 		callback->PointTest2dCallback(p, this, state);

  00070	8b 4d 0c	 mov	 ecx, DWORD PTR _callback$[ebp]
  00073	57		 push	 edi
  00074	56		 push	 esi
  00075	52		 push	 edx
  00076	8b 01		 mov	 eax, DWORD PTR [ecx]
  00078	ff 50 10	 call	 DWORD PTR [eax+16]
$LN8@PointTest2:

; 773  : 	}
; 774  : }

  0007b	5f		 pop	 edi
  0007c	5e		 pop	 esi
  0007d	5d		 pop	 ebp
  0007e	c2 0c 00	 ret	 12			; 0000000cH
?PointTest2d@SpherePack@@QAEXABVVector3d@@PAVSpherePackCallback@@W4ViewState@@@Z ENDP ; SpherePack::PointTest2d
_TEXT	ENDS
; Function compile flags: /Ogtp
; File C:\DS Project\DS Files\Source\ClientSource\Client\SphereLib\spherepack.cpp
; File C:\DS Project\DS Files\Source\ClientSource\Client\SphereLib\vector.h
; File C:\Program Files (x86)\Windows Kits\10\Include\10.0.18362.0\ucrt\corecrt_math.h
; File C:\DS Project\DS Files\Source\ClientSource\Client\SphereLib\vector.h
; File C:\Program Files (x86)\Windows Kits\10\Include\10.0.18362.0\ucrt\corecrt_math.h
; File C:\DS Project\DS Files\Source\ClientSource\Client\SphereLib\spherepack.cpp
; File C:\Program Files (x86)\Windows Kits\10\Include\10.0.18362.0\ucrt\corecrt_math.h
; File C:\DS Project\DS Files\Source\ClientSource\Client\SphereLib\spherepack.cpp
; File C:\DS Project\DS Files\Source\ClientSource\Client\SphereLib\spherepack.h
; File C:\DS Project\DS Files\Source\ClientSource\Client\SphereLib\spherepack.cpp
;	COMDAT ?RangeTest@SpherePack@@QAEXABVVector3d@@MPAVSpherePackCallback@@W4ViewState@@@Z
_TEXT	SEGMENT
_p$ = 8							; size = 4
_distance$ = 12						; size = 4
_callback$ = 16						; size = 4
_d$1 = 20						; size = 4
_state$ = 20						; size = 4
?RangeTest@SpherePack@@QAEXABVVector3d@@MPAVSpherePackCallback@@W4ViewState@@@Z PROC ; SpherePack::RangeTest, COMDAT
; _this$ = ecx

; 699  : {

  00000	55		 push	 ebp
  00001	8b ec		 mov	 ebp, esp
  00003	53		 push	 ebx

; 700  : 
; 701  : 	if (state == VS_PARTIAL)

  00004	8b 5d 08	 mov	 ebx, DWORD PTR _p$[ebp]
  00007	56		 push	 esi
  00008	57		 push	 edi
  00009	8b 7d 14	 mov	 edi, DWORD PTR _state$[ebp]
  0000c	8b f1		 mov	 esi, ecx
  0000e	83 ff 01	 cmp	 edi, 1
  00011	75 6f		 jne	 SHORT $LN6@RangeTest
; File C:\DS Project\DS Files\Source\ClientSource\Client\SphereLib\vector.h

; 170  : 		float dx = a.x - x;

  00013	f3 0f 10 4e 04	 movss	 xmm1, DWORD PTR [esi+4]
; File C:\Program Files (x86)\Windows Kits\10\Include\10.0.18362.0\ucrt\corecrt_math.h

; 760  :             return (float)sqrt(_X);

  00018	83 ec 08	 sub	 esp, 8
; File C:\DS Project\DS Files\Source\ClientSource\Client\SphereLib\vector.h

; 171  : 		float dy = a.y - y;

  0001b	f3 0f 10 56 08	 movss	 xmm2, DWORD PTR [esi+8]
  00020	f3 0f 5c 53 04	 subss	 xmm2, DWORD PTR [ebx+4]
  00025	f3 0f 5c 0b	 subss	 xmm1, DWORD PTR [ebx]

; 172  : 		float dz = a.z - z;

  00029	f3 0f 10 46 0c	 movss	 xmm0, DWORD PTR [esi+12]
  0002e	f3 0f 5c 43 08	 subss	 xmm0, DWORD PTR [ebx+8]

; 173  : 		return dx*dx + dy*dy + dz*dz;

  00033	f3 0f 59 d2	 mulss	 xmm2, xmm2
  00037	f3 0f 59 c9	 mulss	 xmm1, xmm1
  0003b	f3 0f 59 c0	 mulss	 xmm0, xmm0
  0003f	f3 0f 58 d1	 addss	 xmm2, xmm1
  00043	f3 0f 58 d0	 addss	 xmm2, xmm0
; File C:\Program Files (x86)\Windows Kits\10\Include\10.0.18362.0\ucrt\corecrt_math.h

; 760  :             return (float)sqrt(_X);

  00047	0f 5a c2	 cvtps2pd xmm0, xmm2
  0004a	f2 0f 11 04 24	 movsd	 QWORD PTR [esp], xmm0
  0004f	e8 00 00 00 00	 call	 _sqrt
; File C:\DS Project\DS Files\Source\ClientSource\Client\SphereLib\spherepack.cpp

; 704  : 		if ((d-distance) > GetRadius()) return;;

  00054	f3 0f 10 55 0c	 movss	 xmm2, DWORD PTR _distance$[ebp]
; File C:\Program Files (x86)\Windows Kits\10\Include\10.0.18362.0\ucrt\corecrt_math.h

; 760  :             return (float)sqrt(_X);

  00059	83 c4 08	 add	 esp, 8
; File C:\DS Project\DS Files\Source\ClientSource\Client\SphereLib\spherepack.cpp

; 703  : 		float d = p.Distance(mCenter);

  0005c	d9 5d 14	 fstp	 DWORD PTR _d$1[ebp]

; 704  : 		if ((d-distance) > GetRadius()) return;;

  0005f	f3 0f 10 4d 14	 movss	 xmm1, DWORD PTR _d$1[ebp]
  00064	0f 28 c1	 movaps	 xmm0, xmm1
  00067	f3 0f 5c c2	 subss	 xmm0, xmm2
  0006b	0f 2f 46 10	 comiss	 xmm0, DWORD PTR [esi+16]
  0006f	77 5a		 ja	 SHORT $LN8@RangeTest

; 705  : 		if ((GetRadius()+d) < distance) state = VS_INSIDE;

  00071	f3 0f 10 46 10	 movss	 xmm0, DWORD PTR [esi+16]
  00076	33 c0		 xor	 eax, eax
  00078	f3 0f 58 c1	 addss	 xmm0, xmm1
  0007c	0f 2f d0	 comiss	 xmm2, xmm0
  0007f	0f 47 f8	 cmova	 edi, eax
$LN6@RangeTest:
; File C:\DS Project\DS Files\Source\ClientSource\Client\SphereLib\spherepack.h

; 133  : 		if ( mFlags & flag ) return true;

  00082	f6 46 38 01	 test	 BYTE PTR [esi+56], 1
  00086	74 2d		 je	 SHORT $LN7@RangeTest
; File C:\DS Project\DS Files\Source\ClientSource\Client\SphereLib\spherepack.cpp

; 717  : 		while (pack)

  00088	8b 76 24	 mov	 esi, DWORD PTR [esi+36]
  0008b	85 f6		 test	 esi, esi
  0008d	74 3c		 je	 SHORT $LN8@RangeTest
  0008f	90		 npad	 1
$LL2@RangeTest:

; 718  : 		{
; 719  : 			pack->RangeTest(p,distance,callback,state);

  00090	f3 0f 10 45 0c	 movss	 xmm0, DWORD PTR _distance$[ebp]
  00095	57		 push	 edi
  00096	ff 75 10	 push	 DWORD PTR _callback$[ebp]
  00099	51		 push	 ecx
  0009a	f3 0f 11 04 24	 movss	 DWORD PTR [esp], xmm0
  0009f	8b ce		 mov	 ecx, esi
  000a1	53		 push	 ebx
  000a2	e8 00 00 00 00	 call	 ?RangeTest@SpherePack@@QAEXABVVector3d@@MPAVSpherePackCallback@@W4ViewState@@@Z ; SpherePack::RangeTest

; 720  : 			pack = pack->_GetNextSibling();

  000a7	8b 76 28	 mov	 esi, DWORD PTR [esi+40]
  000aa	85 f6		 test	 esi, esi
  000ac	75 e2		 jne	 SHORT $LL2@RangeTest

; 727  : 	}
; 728  : }

  000ae	5f		 pop	 edi
  000af	5e		 pop	 esi
  000b0	5b		 pop	 ebx
  000b1	5d		 pop	 ebp
  000b2	c2 10 00	 ret	 16			; 00000010H
$LN7@RangeTest:

; 721  : 		}
; 722  : 
; 723  : 	}
; 724  : 	else
; 725  : 	{
; 726  : 		callback->RangeTestCallback(p,distance,this,state);

  000b5	8b 4d 10	 mov	 ecx, DWORD PTR _callback$[ebp]
  000b8	f3 0f 10 45 0c	 movss	 xmm0, DWORD PTR _distance$[ebp]
  000bd	57		 push	 edi
  000be	56		 push	 esi
  000bf	8b 01		 mov	 eax, DWORD PTR [ecx]
  000c1	51		 push	 ecx
  000c2	f3 0f 11 04 24	 movss	 DWORD PTR [esp], xmm0
  000c7	53		 push	 ebx
  000c8	ff 50 0c	 call	 DWORD PTR [eax+12]
$LN8@RangeTest:

; 727  : 	}
; 728  : }

  000cb	5f		 pop	 edi
  000cc	5e		 pop	 esi
  000cd	5b		 pop	 ebx
  000ce	5d		 pop	 ebp
  000cf	c2 10 00	 ret	 16			; 00000010H
?RangeTest@SpherePack@@QAEXABVVector3d@@MPAVSpherePackCallback@@W4ViewState@@@Z ENDP ; SpherePack::RangeTest
_TEXT	ENDS
; Function compile flags: /Ogtp
; File C:\DS Project\DS Files\Source\ClientSource\Client\SphereLib\spherepack.cpp
; File C:\DS Project\DS Files\Source\ClientSource\Client\SphereLib\spherepack.h
; File C:\DS Project\DS Files\Source\ClientSource\Client\SphereLib\spherepack.cpp
;	COMDAT ?RayTrace@SpherePack@@QAEXABVVector3d@@0MPAVSpherePackCallback@@@Z
_TEXT	SEGMENT
_callback$GSCopy$1$ = -20				; size = 4
_sect$1 = -16						; size = 12
__$ArrayPad$ = -4					; size = 4
_p1$ = 8						; size = 4
_dir$ = 12						; size = 4
_distance$ = 16						; size = 4
_callback$ = 20						; size = 4
?RayTrace@SpherePack@@QAEXABVVector3d@@0MPAVSpherePackCallback@@@Z PROC ; SpherePack::RayTrace, COMDAT
; _this$ = ecx

; 800  : {

  00000	55		 push	 ebp
  00001	8b ec		 mov	 ebp, esp
  00003	83 ec 14	 sub	 esp, 20			; 00000014H
  00006	a1 00 00 00 00	 mov	 eax, DWORD PTR ___security_cookie
  0000b	33 c5		 xor	 eax, ebp
  0000d	89 45 fc	 mov	 DWORD PTR __$ArrayPad$[ebp], eax
  00010	8b 45 14	 mov	 eax, DWORD PTR _callback$[ebp]
  00013	53		 push	 ebx
  00014	8b 5d 0c	 mov	 ebx, DWORD PTR _dir$[ebp]
  00017	56		 push	 esi
  00018	8b f1		 mov	 esi, ecx
  0001a	89 45 ec	 mov	 DWORD PTR _callback$GSCopy$1$[ebp], eax
  0001d	57		 push	 edi
  0001e	8b 7d 08	 mov	 edi, DWORD PTR _p1$[ebp]
; File C:\DS Project\DS Files\Source\ClientSource\Client\SphereLib\spherepack.h

; 133  : 		if ( mFlags & flag ) return true;

  00021	f6 46 38 01	 test	 BYTE PTR [esi+56], 1
  00025	74 4a		 je	 SHORT $LN4@RayTrace
; File C:\DS Project\DS Files\Source\ClientSource\Client\SphereLib\spherepack.cpp

; 806  : 		hit = RayIntersectionInFront(p1,dir,0);

  00027	6a 00		 push	 0
  00029	53		 push	 ebx
  0002a	57		 push	 edi
  0002b	e8 00 00 00 00	 call	 ?RayIntersectionInFront@Sphere@@QAE_NABVVector3d@@0PAV2@@Z ; Sphere::RayIntersectionInFront

; 807  : 
; 808  : 		if (hit)

  00030	84 c0		 test	 al, al
  00032	74 71		 je	 SHORT $LN7@RayTrace

; 809  : 		{
; 810  : #if DEMO
; 811  : 			DrawCircle(int(mCenter.x), int(mCenter.y), int(GetRadius()), 0x404040);
; 812  : #endif
; 813  : 			SpherePack *pack = mChildren;

  00034	8b 76 24	 mov	 esi, DWORD PTR [esi+36]

; 814  : 
; 815  : 			while (pack)

  00037	85 f6		 test	 esi, esi
  00039	74 6a		 je	 SHORT $LN7@RayTrace
  0003b	0f 1f 44 00 00	 npad	 5
$LL2@RayTrace:

; 816  : 			{
; 817  : 				pack->RayTrace(p1,dir,distance,callback);

  00040	ff 75 ec	 push	 DWORD PTR _callback$GSCopy$1$[ebp]
  00043	f3 0f 10 45 10	 movss	 xmm0, DWORD PTR _distance$[ebp]
  00048	51		 push	 ecx
  00049	f3 0f 11 04 24	 movss	 DWORD PTR [esp], xmm0
  0004e	8b ce		 mov	 ecx, esi
  00050	53		 push	 ebx
  00051	57		 push	 edi
  00052	e8 00 00 00 00	 call	 ?RayTrace@SpherePack@@QAEXABVVector3d@@0MPAVSpherePackCallback@@@Z ; SpherePack::RayTrace

; 818  : 				pack = pack->_GetNextSibling();

  00057	8b 76 28	 mov	 esi, DWORD PTR [esi+40]
  0005a	85 f6		 test	 esi, esi
  0005c	75 e2		 jne	 SHORT $LL2@RayTrace

; 830  : 		}
; 831  : 	}
; 832  : }

  0005e	5f		 pop	 edi
  0005f	5e		 pop	 esi
  00060	5b		 pop	 ebx
  00061	8b 4d fc	 mov	 ecx, DWORD PTR __$ArrayPad$[ebp]
  00064	33 cd		 xor	 ecx, ebp
  00066	e8 00 00 00 00	 call	 @__security_check_cookie@4
  0006b	8b e5		 mov	 esp, ebp
  0006d	5d		 pop	 ebp
  0006e	c2 10 00	 ret	 16			; 00000010H
$LN4@RayTrace:

; 819  : 			}
; 820  : 		}
; 821  : 
; 822  : 	}
; 823  : 	else
; 824  : 	{
; 825  : 		Vector3d sect;
; 826  : 		hit = RayIntersection(p1,dir,distance,&sect);

  00071	f3 0f 10 45 10	 movss	 xmm0, DWORD PTR _distance$[ebp]
  00076	8d 45 f0	 lea	 eax, DWORD PTR _sect$1[ebp]
  00079	50		 push	 eax
  0007a	51		 push	 ecx
  0007b	f3 0f 11 04 24	 movss	 DWORD PTR [esp], xmm0
  00080	53		 push	 ebx
  00081	57		 push	 edi
  00082	e8 00 00 00 00	 call	 ?RayIntersection@Sphere@@QAE_NABVVector3d@@0MPAV2@@Z ; Sphere::RayIntersection

; 827  : 		if (hit)

  00087	84 c0		 test	 al, al
  00089	74 1a		 je	 SHORT $LN7@RayTrace

; 828  : 		{
; 829  : 			callback->RayTraceCallback(p1,dir,distance,sect,this);

  0008b	8b 4d ec	 mov	 ecx, DWORD PTR _callback$GSCopy$1$[ebp]
  0008e	8d 55 f0	 lea	 edx, DWORD PTR _sect$1[ebp]
  00091	f3 0f 10 45 10	 movss	 xmm0, DWORD PTR _distance$[ebp]
  00096	56		 push	 esi
  00097	52		 push	 edx
  00098	8b 01		 mov	 eax, DWORD PTR [ecx]
  0009a	51		 push	 ecx
  0009b	f3 0f 11 04 24	 movss	 DWORD PTR [esp], xmm0
  000a0	53		 push	 ebx
  000a1	57		 push	 edi
  000a2	ff 50 08	 call	 DWORD PTR [eax+8]
$LN7@RayTrace:

; 830  : 		}
; 831  : 	}
; 832  : }

  000a5	8b 4d fc	 mov	 ecx, DWORD PTR __$ArrayPad$[ebp]
  000a8	5f		 pop	 edi
  000a9	5e		 pop	 esi
  000aa	33 cd		 xor	 ecx, ebp
  000ac	5b		 pop	 ebx
  000ad	e8 00 00 00 00	 call	 @__security_check_cookie@4
  000b2	8b e5		 mov	 esp, ebp
  000b4	5d		 pop	 ebp
  000b5	c2 10 00	 ret	 16			; 00000010H
?RayTrace@SpherePack@@QAEXABVVector3d@@0MPAVSpherePackCallback@@@Z ENDP ; SpherePack::RayTrace
_TEXT	ENDS
; Function compile flags: /Ogtp
; File C:\DS Project\DS Files\Source\ClientSource\Client\SphereLib\spherepack.cpp
; File C:\DS Project\DS Files\Source\ClientSource\Client\SphereLib\spherepack.h
; File C:\DS Project\DS Files\Source\ClientSource\Client\SphereLib\spherepack.cpp
; File C:\DS Project\DS Files\Source\ClientSource\Client\SphereLib\spherepack.h
; File C:\DS Project\DS Files\Source\ClientSource\Client\SphereLib\spherepack.cpp
; File C:\DS Project\DS Files\Source\ClientSource\Client\SphereLib\spherepack.h
; File C:\DS Project\DS Files\Source\ClientSource\Client\SphereLib\spherepack.cpp
; File C:\DS Project\DS Files\Source\ClientSource\Client\SphereLib\spherepack.h
; File C:\DS Project\DS Files\Source\ClientSource\Client\SphereLib\spherepack.cpp
; File C:\DS Project\DS Files\Source\ClientSource\Client\SphereLib\spherepack.h
; File C:\DS Project\DS Files\Source\ClientSource\Client\SphereLib\spherepack.cpp
; File C:\DS Project\DS Files\Source\ClientSource\Client\SphereLib\spherepack.h
; File C:\DS Project\DS Files\Source\ClientSource\Client\SphereLib\spherepack.cpp
; File C:\DS Project\DS Files\Source\ClientSource\Client\SphereLib\spherepack.h
; File C:\DS Project\DS Files\Source\ClientSource\Client\SphereLib\spherepack.cpp
;	COMDAT ?VisibilityTest@SpherePack@@QAEXABVFrustum@@PAVSpherePackCallback@@W4ViewState@@@Z
_TEXT	SEGMENT
_f$ = 8							; size = 4
_callback$ = 12						; size = 4
_state$ = 16						; size = 4
?VisibilityTest@SpherePack@@QAEXABVFrustum@@PAVSpherePackCallback@@W4ViewState@@@Z PROC ; SpherePack::VisibilityTest, COMDAT
; _this$ = ecx

; 562  : {

  00000	55		 push	 ebp
  00001	8b ec		 mov	 ebp, esp
  00003	53		 push	 ebx

; 563  : 
; 564  : 	if (state == VS_PARTIAL)

  00004	8b 5d 08	 mov	 ebx, DWORD PTR _f$[ebp]
  00007	56		 push	 esi
  00008	57		 push	 edi
  00009	8b 7d 10	 mov	 edi, DWORD PTR _state$[ebp]
  0000c	8b f1		 mov	 esi, ecx
  0000e	83 ff 01	 cmp	 edi, 1
  00011	75 18		 jne	 SHORT $LN6@Visibility

; 565  : 	{
; 566  : 		state = f.ViewVolumeTest(mCenter, GetRadius());

  00013	f3 0f 10 46 10	 movss	 xmm0, DWORD PTR [esi+16]
  00018	8d 46 04	 lea	 eax, DWORD PTR [esi+4]
  0001b	51		 push	 ecx
  0001c	f3 0f 11 04 24	 movss	 DWORD PTR [esp], xmm0
  00021	8b cb		 mov	 ecx, ebx
  00023	50		 push	 eax
  00024	e8 00 00 00 00	 call	 ?ViewVolumeTest@Frustum@@QBE?AW4ViewState@@ABVVector3d@@M@Z ; Frustum::ViewVolumeTest
  00029	8b f8		 mov	 edi, eax
$LN6@Visibility:
; File C:\DS Project\DS Files\Source\ClientSource\Client\SphereLib\spherepack.h

; 133  : 		if ( mFlags & flag ) return true;

  0002b	8b 4e 38	 mov	 ecx, DWORD PTR [esi+56]
  0002e	f6 c1 01	 test	 cl, 1
  00031	74 6b		 je	 SHORT $LN7@Visibility
; File C:\DS Project\DS Files\Source\ClientSource\Client\SphereLib\spherepack.cpp

; 579  : 		if (state == VS_OUTSIDE)

  00033	83 ff 02	 cmp	 edi, 2
  00036	75 14		 jne	 SHORT $LN9@Visibility
; File C:\DS Project\DS Files\Source\ClientSource\Client\SphereLib\spherepack.h

; 133  : 		if ( mFlags & flag ) return true;

  00038	f6 c1 40	 test	 cl, 64			; 00000040H
  0003b	0f 85 d5 00 00
	00		 jne	 $LN16@Visibility

; 130  : 	void ClearSpherePackFlag(SpherePackFlag flag) { mFlags&=~flag; };

  00041	81 e1 7f fe ff
	ff		 and	 ecx, -385		; fffffe7fH

; 129  : 	void SetSpherePackFlag(SpherePackFlag flag) { mFlags|=flag; };

  00047	83 c9 40	 or	 ecx, 64			; 00000040H
; File C:\DS Project\DS Files\Source\ClientSource\Client\SphereLib\spherepack.cpp

; 584  : 		}

  0004a	eb 2a		 jmp	 SHORT $LN13@Visibility
$LN9@Visibility:

; 585  : 		else
; 586  : 		{
; 587  : 			if (state == VS_INSIDE)

  0004c	85 ff		 test	 edi, edi
  0004e	75 1a		 jne	 SHORT $LN12@Visibility
; File C:\DS Project\DS Files\Source\ClientSource\Client\SphereLib\spherepack.h

; 133  : 		if ( mFlags & flag ) return true;

  00050	f7 c1 00 01 00
	00		 test	 ecx, 256		; 00000100H
  00056	0f 85 ba 00 00
	00		 jne	 $LN16@Visibility

; 130  : 	void ClearSpherePackFlag(SpherePackFlag flag) { mFlags&=~flag; };

  0005c	81 e1 3f ff ff
	ff		 and	 ecx, -193		; ffffff3fH

; 129  : 	void SetSpherePackFlag(SpherePackFlag flag) { mFlags|=flag; };

  00062	81 c9 00 01 00
	00		 or	 ecx, 256		; 00000100H
; File C:\DS Project\DS Files\Source\ClientSource\Client\SphereLib\spherepack.cpp

; 592  : 			}

  00068	eb 0c		 jmp	 SHORT $LN13@Visibility
$LN12@Visibility:
; File C:\DS Project\DS Files\Source\ClientSource\Client\SphereLib\spherepack.h

; 130  : 	void ClearSpherePackFlag(SpherePackFlag flag) { mFlags&=~flag; };

  0006a	81 e1 bf fe ff
	ff		 and	 ecx, -321		; fffffebfH

; 129  : 	void SetSpherePackFlag(SpherePackFlag flag) { mFlags|=flag; };

  00070	81 c9 80 00 00
	00		 or	 ecx, 128		; 00000080H
$LN13@Visibility:
; File C:\DS Project\DS Files\Source\ClientSource\Client\SphereLib\spherepack.cpp

; 600  : 		SpherePack *pack = mChildren;

  00076	89 4e 38	 mov	 DWORD PTR [esi+56], ecx
  00079	8b 76 24	 mov	 esi, DWORD PTR [esi+36]

; 601  : 
; 602  : 		while (pack)

  0007c	85 f6		 test	 esi, esi
  0007e	0f 84 92 00 00
	00		 je	 $LN16@Visibility
$LL2@Visibility:

; 603  : 		{
; 604  : 			pack->VisibilityTest(f,callback,state);

  00084	57		 push	 edi
  00085	ff 75 0c	 push	 DWORD PTR _callback$[ebp]
  00088	8b ce		 mov	 ecx, esi
  0008a	53		 push	 ebx
  0008b	e8 00 00 00 00	 call	 ?VisibilityTest@SpherePack@@QAEXABVFrustum@@PAVSpherePackCallback@@W4ViewState@@@Z ; SpherePack::VisibilityTest

; 605  : 			pack = pack->_GetNextSibling();

  00090	8b 76 28	 mov	 esi, DWORD PTR [esi+40]
  00093	85 f6		 test	 esi, esi
  00095	75 ed		 jne	 SHORT $LL2@Visibility

; 640  : }

  00097	5f		 pop	 edi
  00098	5e		 pop	 esi
  00099	5b		 pop	 ebx
  0009a	5d		 pop	 ebp
  0009b	c2 0c 00	 ret	 12			; 0000000cH
$LN7@Visibility:

; 606  : 		}
; 607  : 
; 608  : 	}
; 609  : 	else
; 610  : 	{
; 611  : 		switch (state)

  0009e	83 ef 00	 sub	 edi, 0
  000a1	74 50		 je	 SHORT $LN15@Visibility
  000a3	83 ef 01	 sub	 edi, 1
  000a6	74 29		 je	 SHORT $LN19@Visibility
  000a8	83 ef 01	 sub	 edi, 1
  000ab	75 69		 jne	 SHORT $LN16@Visibility
; File C:\DS Project\DS Files\Source\ClientSource\Client\SphereLib\spherepack.h

; 133  : 		if ( mFlags & flag ) return true;

  000ad	f6 c1 40	 test	 cl, 64			; 00000040H
  000b0	75 64		 jne	 SHORT $LN16@Visibility

; 130  : 	void ClearSpherePackFlag(SpherePackFlag flag) { mFlags&=~flag; };

  000b2	81 e1 7f fe ff
	ff		 and	 ecx, -385		; fffffe7fH

; 129  : 	void SetSpherePackFlag(SpherePackFlag flag) { mFlags|=flag; };

  000b8	83 c9 40	 or	 ecx, 64			; 00000040H
; File C:\DS Project\DS Files\Source\ClientSource\Client\SphereLib\spherepack.cpp

; 640  : }

  000bb	89 4e 38	 mov	 DWORD PTR [esi+56], ecx
  000be	8b 4d 0c	 mov	 ecx, DWORD PTR _callback$[ebp]
  000c1	6a 02		 push	 2
  000c3	56		 push	 esi
  000c4	53		 push	 ebx
  000c5	8b 01		 mov	 eax, DWORD PTR [ecx]
  000c7	ff 50 04	 call	 DWORD PTR [eax+4]
  000ca	5f		 pop	 edi
  000cb	5e		 pop	 esi
  000cc	5b		 pop	 ebx
  000cd	5d		 pop	 ebp
  000ce	c2 0c 00	 ret	 12			; 0000000cH
$LN19@Visibility:
; File C:\DS Project\DS Files\Source\ClientSource\Client\SphereLib\spherepack.h

; 130  : 	void ClearSpherePackFlag(SpherePackFlag flag) { mFlags&=~flag; };

  000d1	81 e1 bf fe ff
	ff		 and	 ecx, -321		; fffffebfH

; 129  : 	void SetSpherePackFlag(SpherePackFlag flag) { mFlags|=flag; };

  000d7	81 c9 80 00 00
	00		 or	 ecx, 128		; 00000080H
; File C:\DS Project\DS Files\Source\ClientSource\Client\SphereLib\spherepack.cpp

; 640  : }

  000dd	89 4e 38	 mov	 DWORD PTR [esi+56], ecx
  000e0	8b 4d 0c	 mov	 ecx, DWORD PTR _callback$[ebp]
  000e3	6a 01		 push	 1
  000e5	56		 push	 esi
  000e6	53		 push	 ebx
  000e7	8b 01		 mov	 eax, DWORD PTR [ecx]
  000e9	ff 50 04	 call	 DWORD PTR [eax+4]
  000ec	5f		 pop	 edi
  000ed	5e		 pop	 esi
  000ee	5b		 pop	 ebx
  000ef	5d		 pop	 ebp
  000f0	c2 0c 00	 ret	 12			; 0000000cH
$LN15@Visibility:
; File C:\DS Project\DS Files\Source\ClientSource\Client\SphereLib\spherepack.h

; 133  : 		if ( mFlags & flag ) return true;

  000f3	f7 c1 00 01 00
	00		 test	 ecx, 256		; 00000100H
  000f9	75 1b		 jne	 SHORT $LN16@Visibility

; 130  : 	void ClearSpherePackFlag(SpherePackFlag flag) { mFlags&=~flag; };

  000fb	81 e1 3f ff ff
	ff		 and	 ecx, -193		; ffffff3fH

; 129  : 	void SetSpherePackFlag(SpherePackFlag flag) { mFlags|=flag; };

  00101	81 c9 00 01 00
	00		 or	 ecx, 256		; 00000100H
; File C:\DS Project\DS Files\Source\ClientSource\Client\SphereLib\spherepack.cpp

; 640  : }

  00107	89 4e 38	 mov	 DWORD PTR [esi+56], ecx
  0010a	8b 4d 0c	 mov	 ecx, DWORD PTR _callback$[ebp]
  0010d	6a 00		 push	 0
  0010f	56		 push	 esi
  00110	53		 push	 ebx
  00111	8b 01		 mov	 eax, DWORD PTR [ecx]
  00113	ff 50 04	 call	 DWORD PTR [eax+4]
$LN16@Visibility:
  00116	5f		 pop	 edi
  00117	5e		 pop	 esi
  00118	5b		 pop	 ebx
  00119	5d		 pop	 ebp
  0011a	c2 0c 00	 ret	 12			; 0000000cH
?VisibilityTest@SpherePack@@QAEXABVFrustum@@PAVSpherePackCallback@@W4ViewState@@@Z ENDP ; SpherePack::VisibilityTest
_TEXT	ENDS
; Function compile flags: /Ogtp
; File C:\DS Project\DS Files\Source\ClientSource\Client\SphereLib\spherepack.cpp
; File C:\DS Project\DS Files\Source\ClientSource\Client\SphereLib\spherepack.h
; File C:\DS Project\DS Files\Source\ClientSource\Client\SphereLib\spherepack.cpp
; File C:\DS Project\DS Files\Source\ClientSource\Client\SphereLib\vector.h
; File C:\DS Project\DS Files\Source\ClientSource\Client\SphereLib\spherepack.cpp
; File C:\DS Project\DS Files\Source\ClientSource\Client\SphereLib\vector.h
; File C:\DS Project\DS Files\Source\ClientSource\Client\SphereLib\spherepack.cpp
; File C:\DS Project\DS Files\Source\ClientSource\Client\SphereLib\vector.h
; File C:\DS Project\DS Files\Source\ClientSource\Client\SphereLib\spherepack.cpp
; File C:\DS Project\DS Files\Source\ClientSource\Client\SphereLib\vector.h
; File C:\DS Project\DS Files\Source\ClientSource\Client\SphereLib\spherepack.cpp
; File C:\DS Project\DS Files\Source\ClientSource\Client\SphereLib\vector.h
; File C:\Program Files (x86)\Windows Kits\10\Include\10.0.18362.0\ucrt\corecrt_math.h
; File C:\DS Project\DS Files\Source\ClientSource\Client\SphereLib\vector.h
; File C:\Program Files (x86)\Windows Kits\10\Include\10.0.18362.0\ucrt\corecrt_math.h
; File C:\DS Project\DS Files\Source\ClientSource\Client\SphereLib\spherepack.cpp
; File C:\Program Files (x86)\Windows Kits\10\Include\10.0.18362.0\ucrt\corecrt_math.h
; File C:\DS Project\DS Files\Source\ClientSource\Client\SphereLib\spherepack.cpp
; File C:\Program Files (x86)\Windows Kits\10\Include\10.0.18362.0\ucrt\corecrt_math.h
; File C:\DS Project\DS Files\Source\ClientSource\Client\SphereLib\spherepack.cpp
; File C:\DS Project\DS Files\Source\ClientSource\Client\SphereLib\sphere.h
; File C:\DS Project\DS Files\Source\ClientSource\Client\SphereLib\spherepack.cpp
; File C:\DS Project\DS Files\Source\ClientSource\Client\SphereLib\spherepack.h
; File C:\DS Project\DS Files\Source\ClientSource\Client\SphereLib\vector.h
; File C:\DS Project\DS Files\Source\ClientSource\Client\SphereLib\spherepack.cpp
; File C:\DS Project\DS Files\Source\ClientSource\Client\SphereLib\spherepack.h
; File C:\DS Project\DS Files\Source\ClientSource\Client\SphereLib\spherepack.cpp
;	COMDAT ?Recompute@SpherePack@@QAE_NM@Z
_TEXT	SEGMENT
_oldpos$2$sroa$370$1$ = -20				; size = 4
_oldpos$2$sroa$372$1$ = -16				; size = 4
_oldpos$2$sroa$373$1$ = -12				; size = 4
tv586 = -8						; size = 4
_maxradius$2$ = -4					; size = 4
_gravy$ = 8						; size = 4
?Recompute@SpherePack@@QAE_NM@Z PROC			; SpherePack::Recompute, COMDAT
; _this$ = ecx

; 245  : {

  00000	55		 push	 ebp
  00001	8b ec		 mov	 ebp, esp
  00003	83 ec 14	 sub	 esp, 20			; 00000014H
  00006	56		 push	 esi
  00007	57		 push	 edi
  00008	8b f9		 mov	 edi, ecx

; 246  : 	if (!mChildren) return true; // kill it!

  0000a	8b 47 24	 mov	 eax, DWORD PTR [edi+36]
  0000d	85 c0		 test	 eax, eax
  0000f	75 0a		 jne	 SHORT $LN8@Recompute
  00011	b0 01		 mov	 al, 1

; 316  : }

  00013	5f		 pop	 edi
  00014	5e		 pop	 esi
  00015	8b e5		 mov	 esp, ebp
  00017	5d		 pop	 ebp
  00018	c2 04 00	 ret	 4
$LN8@Recompute:
; File C:\DS Project\DS Files\Source\ClientSource\Client\SphereLib\spherepack.h

; 133  : 		if ( mFlags & flag ) return true;

  0001b	f6 47 38 08	 test	 BYTE PTR [edi+56], 8
  0001f	0f 85 82 01 00
	00		 jne	 $LN62@Recompute
; File C:\DS Project\DS Files\Source\ClientSource\Client\SphereLib\spherepack.cpp

; 252  : 	int count=0;

  00025	0f 57 d2	 xorps	 xmm2, xmm2
  00028	0f 57 db	 xorps	 xmm3, xmm3
  0002b	0f 57 e4	 xorps	 xmm4, xmm4
  0002e	0f 57 ed	 xorps	 xmm5, xmm5
  00031	33 c9		 xor	 ecx, ecx
  00033	0f 1f 40 00 66
	0f 1f 84 00 00
	00 00 00	 npad	 13
$LL2@Recompute:
; File C:\DS Project\DS Files\Source\ClientSource\Client\SphereLib\vector.h

; 80   : 	{ x+=A.x; y+=A.y; z+=A.z; };

  00040	f3 0f 58 58 04	 addss	 xmm3, DWORD PTR [eax+4]
  00045	f3 0f 58 60 08	 addss	 xmm4, DWORD PTR [eax+8]
  0004a	f3 0f 58 68 0c	 addss	 xmm5, DWORD PTR [eax+12]
; File C:\DS Project\DS Files\Source\ClientSource\Client\SphereLib\spherepack.cpp

; 258  : 		pack = pack->_GetNextSibling();

  0004f	8b 40 28	 mov	 eax, DWORD PTR [eax+40]
  00052	41		 inc	 ecx
  00053	85 c0		 test	 eax, eax
  00055	75 e9		 jne	 SHORT $LL2@Recompute

; 259  : 	}
; 260  : 
; 261  : 	if (count)

  00057	85 c9		 test	 ecx, ecx
  00059	0f 84 44 01 00
	00		 je	 $LN7@Recompute

; 262  : 	{
; 263  : 		float recip = 1.0f / float(count);

  0005f	f3 0f 10 0d 00
	00 00 00	 movss	 xmm1, DWORD PTR __real@3f800000
  00067	66 0f 6e c1	 movd	 xmm0, ecx
  0006b	0f 5b c0	 cvtdq2ps xmm0, xmm0
  0006e	f3 0f 5e c8	 divss	 xmm1, xmm0
; File C:\DS Project\DS Files\Source\ClientSource\Client\SphereLib\vector.h

; 30   : 		x = a.x;

  00072	f3 0f 10 47 04	 movss	 xmm0, DWORD PTR [edi+4]

; 84   : 	{x*=s; y*=s; z*=s;}

  00077	f3 0f 59 d9	 mulss	 xmm3, xmm1
  0007b	f3 0f 59 e1	 mulss	 xmm4, xmm1
  0007f	f3 0f 59 e9	 mulss	 xmm5, xmm1
; File C:\DS Project\DS Files\Source\ClientSource\Client\SphereLib\spherepack.cpp

; 272  : 		float maxradius = 0;

  00083	0f 28 ca	 movaps	 xmm1, xmm2
; File C:\DS Project\DS Files\Source\ClientSource\Client\SphereLib\vector.h

; 30   : 		x = a.x;

  00086	f3 0f 11 45 f4	 movss	 DWORD PTR _oldpos$2$sroa$373$1$[ebp], xmm0

; 31   : 		y = a.y;

  0008b	f3 0f 10 47 08	 movss	 xmm0, DWORD PTR [edi+8]
  00090	f3 0f 11 45 f0	 movss	 DWORD PTR _oldpos$2$sroa$372$1$[ebp], xmm0

; 32   : 		z = a.z;

  00095	f3 0f 10 47 0c	 movss	 xmm0, DWORD PTR [edi+12]

; 57   : 	{ x=A.x; y=A.y; z=A.z;

  0009a	f3 0f 11 5f 04	 movss	 DWORD PTR [edi+4], xmm3
  0009f	f3 0f 11 67 08	 movss	 DWORD PTR [edi+8], xmm4
  000a4	f3 0f 11 6f 0c	 movss	 DWORD PTR [edi+12], xmm5
; File C:\DS Project\DS Files\Source\ClientSource\Client\SphereLib\spherepack.cpp

; 274  : 		pack = mChildren;

  000a9	8b 77 24	 mov	 esi, DWORD PTR [edi+36]
; File C:\DS Project\DS Files\Source\ClientSource\Client\SphereLib\vector.h

; 32   : 		z = a.z;

  000ac	f3 0f 11 45 ec	 movss	 DWORD PTR _oldpos$2$sroa$370$1$[ebp], xmm0
; File C:\DS Project\DS Files\Source\ClientSource\Client\SphereLib\spherepack.cpp

; 272  : 		float maxradius = 0;

  000b1	f3 0f 11 4d fc	 movss	 DWORD PTR _maxradius$2$[ebp], xmm1

; 275  : 
; 276  : 		while (pack)

  000b6	85 f6		 test	 esi, esi
  000b8	0f 84 7e 00 00
	00		 je	 $LN5@Recompute
  000be	66 90		 npad	 2
$LL4@Recompute:
; File C:\DS Project\DS Files\Source\ClientSource\Client\SphereLib\vector.h

; 170  : 		float dx = a.x - x;

  000c0	f3 0f 10 4e 04	 movss	 xmm1, DWORD PTR [esi+4]
; File C:\Program Files (x86)\Windows Kits\10\Include\10.0.18362.0\ucrt\corecrt_math.h

; 760  :             return (float)sqrt(_X);

  000c5	83 ec 08	 sub	 esp, 8
; File C:\DS Project\DS Files\Source\ClientSource\Client\SphereLib\vector.h

; 171  : 		float dy = a.y - y;

  000c8	f3 0f 10 56 08	 movss	 xmm2, DWORD PTR [esi+8]
  000cd	f3 0f 5c 57 08	 subss	 xmm2, DWORD PTR [edi+8]
  000d2	f3 0f 5c 4f 04	 subss	 xmm1, DWORD PTR [edi+4]

; 172  : 		float dz = a.z - z;

  000d7	f3 0f 10 46 0c	 movss	 xmm0, DWORD PTR [esi+12]
  000dc	f3 0f 5c 47 0c	 subss	 xmm0, DWORD PTR [edi+12]

; 173  : 		return dx*dx + dy*dy + dz*dz;

  000e1	f3 0f 59 d2	 mulss	 xmm2, xmm2
  000e5	f3 0f 59 c9	 mulss	 xmm1, xmm1
  000e9	f3 0f 59 c0	 mulss	 xmm0, xmm0
  000ed	f3 0f 58 d1	 addss	 xmm2, xmm1
  000f1	f3 0f 58 d0	 addss	 xmm2, xmm0
; File C:\Program Files (x86)\Windows Kits\10\Include\10.0.18362.0\ucrt\corecrt_math.h

; 760  :             return (float)sqrt(_X);

  000f5	0f 5a c2	 cvtps2pd xmm0, xmm2
  000f8	f2 0f 11 04 24	 movsd	 QWORD PTR [esp], xmm0
  000fd	e8 00 00 00 00	 call	 _sqrt
; File C:\DS Project\DS Files\Source\ClientSource\Client\SphereLib\spherepack.cpp

; 279  : 			float radius = sqrtf(dist) + pack->GetRadius();

  00102	f3 0f 10 46 10	 movss	 xmm0, DWORD PTR [esi+16]
; File C:\Program Files (x86)\Windows Kits\10\Include\10.0.18362.0\ucrt\corecrt_math.h

; 760  :             return (float)sqrt(_X);

  00107	83 c4 08	 add	 esp, 8
; File C:\DS Project\DS Files\Source\ClientSource\Client\SphereLib\spherepack.cpp

; 280  : 			if (radius > maxradius)

  0010a	f3 0f 10 4d fc	 movss	 xmm1, DWORD PTR _maxradius$2$[ebp]
; File C:\Program Files (x86)\Windows Kits\10\Include\10.0.18362.0\ucrt\corecrt_math.h

; 760  :             return (float)sqrt(_X);

  0010f	d9 5d f8	 fstp	 DWORD PTR tv586[ebp]
; File C:\DS Project\DS Files\Source\ClientSource\Client\SphereLib\spherepack.cpp

; 279  : 			float radius = sqrtf(dist) + pack->GetRadius();

  00112	f3 0f 58 45 f8	 addss	 xmm0, DWORD PTR tv586[ebp]

; 280  : 			if (radius > maxradius)

  00117	0f 2f c1	 comiss	 xmm0, xmm1
  0011a	76 13		 jbe	 SHORT $LN12@Recompute

; 281  : 			{
; 282  : 				maxradius = radius;

  0011c	0f 28 c8	 movaps	 xmm1, xmm0

; 283  : 				if ((maxradius+gravy) >= GetRadius())

  0011f	f3 0f 58 45 08	 addss	 xmm0, DWORD PTR _gravy$[ebp]
  00124	f3 0f 11 4d fc	 movss	 DWORD PTR _maxradius$2$[ebp], xmm1
  00129	0f 2f 47 10	 comiss	 xmm0, DWORD PTR [edi+16]
  0012d	73 38		 jae	 SHORT $LN50@Recompute
$LN12@Recompute:

; 284  : 				{
; 285  : #ifdef __STATIC_RANGE__
; 286  : 					assert(oldpos.IsInStaticRange());
; 287  : #endif
; 288  : 					mCenter = oldpos;
; 289  : 					ClearSpherePackFlag(SPF_RECOMPUTE);
; 290  : 					return false;
; 291  : 				}
; 292  : 			}
; 293  : 			pack = pack->_GetNextSibling();

  0012f	8b 76 28	 mov	 esi, DWORD PTR [esi+40]
  00132	85 f6		 test	 esi, esi
  00134	75 8a		 jne	 SHORT $LL4@Recompute

; 283  : 				if ((maxradius+gravy) >= GetRadius())

  00136	8b 77 24	 mov	 esi, DWORD PTR [edi+36]
  00139	0f 57 d2	 xorps	 xmm2, xmm2
$LN5@Recompute:

; 294  : 		}
; 295  : 
; 296  : 		maxradius+=gravy;

  0013c	f3 0f 58 4d 08	 addss	 xmm1, DWORD PTR _gravy$[ebp]
; File C:\DS Project\DS Files\Source\ClientSource\Client\SphereLib\sphere.h

; 67   : 		mRadius = radius;

  00141	f3 0f 11 4f 10	 movss	 DWORD PTR [edi+16], xmm1

; 68   : 		mRadius2 = radius*radius;

  00146	f3 0f 59 c9	 mulss	 xmm1, xmm1
  0014a	f3 0f 11 4f 14	 movss	 DWORD PTR [edi+20], xmm1
; File C:\DS Project\DS Files\Source\ClientSource\Client\SphereLib\spherepack.cpp

; 303  : 		while (pack)

  0014f	85 f6		 test	 esi, esi
  00151	74 50		 je	 SHORT $LN7@Recompute
$LL6@Recompute:
; File C:\DS Project\DS Files\Source\ClientSource\Client\SphereLib\spherepack.h

; 241  : 		mBindingDistance = parent->GetRadius() - GetRadius();

  00153	f3 0f 10 47 10	 movss	 xmm0, DWORD PTR [edi+16]
  00158	f3 0f 5c 46 10	 subss	 xmm0, DWORD PTR [esi+16]

; 242  : 		if ( mBindingDistance <= 0 )

  0015d	0f 2f d0	 comiss	 xmm2, xmm0
  00160	72 31		 jb	 SHORT $LN42@Recompute

; 243  : 			mBindingDistance = 0;

  00162	0f 28 c2	 movaps	 xmm0, xmm2
  00165	eb 30		 jmp	 SHORT $LN43@Recompute
$LN50@Recompute:
; File C:\DS Project\DS Files\Source\ClientSource\Client\SphereLib\vector.h

; 57   : 	{ x=A.x; y=A.y; z=A.z;

  00167	f3 0f 10 45 f4	 movss	 xmm0, DWORD PTR _oldpos$2$sroa$373$1$[ebp]
  0016c	f3 0f 11 47 04	 movss	 DWORD PTR [edi+4], xmm0
  00171	f3 0f 10 45 f0	 movss	 xmm0, DWORD PTR _oldpos$2$sroa$372$1$[ebp]
  00176	f3 0f 11 47 08	 movss	 DWORD PTR [edi+8], xmm0
  0017b	f3 0f 10 45 ec	 movss	 xmm0, DWORD PTR _oldpos$2$sroa$370$1$[ebp]
  00180	f3 0f 11 47 0c	 movss	 DWORD PTR [edi+12], xmm0
; File C:\DS Project\DS Files\Source\ClientSource\Client\SphereLib\spherepack.cpp

; 316  : }

  00185	83 67 38 ef	 and	 DWORD PTR [edi+56], -17	; ffffffefH
  00189	32 c0		 xor	 al, al
  0018b	5f		 pop	 edi
  0018c	5e		 pop	 esi
  0018d	8b e5		 mov	 esp, ebp
  0018f	5d		 pop	 ebp
  00190	c2 04 00	 ret	 4
$LN42@Recompute:
; File C:\DS Project\DS Files\Source\ClientSource\Client\SphereLib\spherepack.h

; 245  : 			mBindingDistance*=mBindingDistance;

  00193	f3 0f 59 c0	 mulss	 xmm0, xmm0
$LN43@Recompute:
; File C:\DS Project\DS Files\Source\ClientSource\Client\SphereLib\spherepack.cpp

; 306  : 			pack = pack->_GetNextSibling();

  00197	f3 0f 11 46 40	 movss	 DWORD PTR [esi+64], xmm0
  0019c	8b 76 28	 mov	 esi, DWORD PTR [esi+40]
  0019f	85 f6		 test	 esi, esi
  001a1	75 b0		 jne	 SHORT $LL6@Recompute
$LN7@Recompute:

; 316  : }

  001a3	83 67 38 ef	 and	 DWORD PTR [edi+56], -17	; ffffffefH
$LN62@Recompute:
  001a7	5f		 pop	 edi
  001a8	32 c0		 xor	 al, al
  001aa	5e		 pop	 esi
  001ab	8b e5		 mov	 esp, ebp
  001ad	5d		 pop	 ebp
  001ae	c2 04 00	 ret	 4
?Recompute@SpherePack@@QAE_NM@Z ENDP			; SpherePack::Recompute
_TEXT	ENDS
; Function compile flags: /Ogtp
; File C:\DS Project\DS Files\Source\ClientSource\Client\SphereLib\spherepack.cpp
;	COMDAT ?Render@SpherePack@@QAEXI@Z
_TEXT	SEGMENT
___formal$ = 8						; size = 4
?Render@SpherePack@@QAEXI@Z PROC			; SpherePack::Render, COMDAT
; _this$ = ecx

; 182  : #if DEMO
; 183  : 	if (!HasSpherePackFlag(SPF_ROOTNODE))
; 184  : 	{
; 185  : 
; 186  : 		if (HasSpherePackFlag(SPF_SUPERSPHERE))
; 187  : 		{
; 188  : 			color = mColor;
; 189  : 		}
; 190  : 		else
; 191  : 		{
; 192  : 			if (mParent->HasSpherePackFlag(SPF_ROOTNODE)) color = 0x00FFFFFF;
; 193  : 		}
; 194  : #if DEMO
; 195  : 		DrawCircle(int(mCenter.x), int(mCenter.y),int(GetRadius()),color);
; 196  : #endif
; 197  : 		if (HasSpherePackFlag(SPF_SUPERSPHERE))
; 198  : 		{
; 199  : 			if (HasSpherePackFlag(SPF_LEAF_TREE))
; 200  : 			{
; 201  : 
; 202  : #if DEMO
; 203  : 				DrawCircle(int(mCenter.x), int(mCenter.y),int(GetRadius()),color);
; 204  : #endif
; 205  : #ifdef SPHERELIB_STRICT
; 206  : 		if (!sphere->IS_SPHERE)
; 207  : 			puts("SpherePack::Render");
; 208  : #endif
; 209  : 				SpherePack *link = (SpherePack *) GetUserData();
; 210  : 
; 211  : 				link = link->GetParent();
; 212  : 
; 213  : 				if (link && !link->HasSpherePackFlag(SPF_ROOTNODE))
; 214  : 				{
; 215  : 					DrawLine(int(mCenter.x), int(mCenter.y),
; 216  : 						int(link->mCenter.x), int(link->mCenter.y),
; 217  : 						link->GetColor());
; 218  : 				}
; 219  : 			}
; 220  : 			else
; 221  : 			{
; 222  : #if DEMO
; 223  : 				DrawCircle(int(mCenter.x), int(mCenter.y),int(GetRadius())+3,color);
; 224  : #endif
; 225  : 			}
; 226  : 
; 227  : 		}
; 228  : 
; 229  : 	}
; 230  : 
; 231  : 	if (mChildren)
; 232  : 	{
; 233  : 		SpherePack *pack = mChildren;
; 234  : 
; 235  : 		while (pack)
; 236  : 		{
; 237  : 			pack->Render(color);
; 238  : 			pack = pack->_GetNextSibling();
; 239  : 		}
; 240  : 	}
; 241  : #endif
; 242  : }

  00000	c2 04 00	 ret	 4
?Render@SpherePack@@QAEXI@Z ENDP			; SpherePack::Render
_TEXT	ENDS
; Function compile flags: /Ogtp
; File C:\DS Project\DS Files\Source\ClientSource\Client\SphereLib\spherepack.cpp
; File C:\DS Project\DS Files\Source\ClientSource\Client\SphereLib\spherepack.h
; File C:\DS Project\DS Files\Source\ClientSource\Client\SphereLib\spherepack.cpp
;	COMDAT ?LostChild@SpherePack@@QAEXPAV1@@Z
_TEXT	SEGMENT
_t$ = 8							; size = 4
?LostChild@SpherePack@@QAEXPAV1@@Z PROC			; SpherePack::LostChild, COMDAT
; _this$ = ecx

; 320  : {

  00000	55		 push	 ebp
  00001	8b ec		 mov	 ebp, esp

; 321  : 	assert(mChildCount);
; 322  : 	assert(mChildren);
; 323  : 
; 324  : #ifdef _DEBUG  // debug validation code.
; 325  : 
; 326  : 	SpherePack *pack = mChildren;
; 327  : 	bool found = false;
; 328  : 	while (pack)
; 329  : 	{
; 330  : 		if (pack == t)
; 331  : 		{
; 332  : 			assert(!found);
; 333  : 			found = true;
; 334  : 		}
; 335  : 		pack = pack->_GetNextSibling();
; 336  : 	}
; 337  : 	assert(found);
; 338  : 
; 339  : #endif
; 340  : 
; 341  : 	// first patch old linked list.. his previous now points to his next
; 342  : 	SpherePack *prev = t->_GetPrevSibling();

  00003	8b 45 08	 mov	 eax, DWORD PTR _t$[ebp]
  00006	8b 50 2c	 mov	 edx, DWORD PTR [eax+44]
  00009	8b 40 28	 mov	 eax, DWORD PTR [eax+40]

; 343  : 
; 344  : 	if (prev)

  0000c	85 d2		 test	 edx, edx
  0000e	74 0c		 je	 SHORT $LN2@LostChild

; 345  : 	{
; 346  : 		SpherePack *next = t->_GetNextSibling();
; 347  : 		prev->SetNextSibling(next); // my previous now points to my next

  00010	89 42 28	 mov	 DWORD PTR [edx+40], eax

; 348  : 		if (next) next->SetPrevSibling(prev);

  00013	85 c0		 test	 eax, eax
  00015	74 13		 je	 SHORT $LN5@LostChild
  00017	89 50 2c	 mov	 DWORD PTR [eax+44], edx

; 349  : 		// list is patched!
; 350  : 	}

  0001a	eb 0e		 jmp	 SHORT $LN5@LostChild
$LN2@LostChild:

; 351  : 	else
; 352  : 	{
; 353  : 		SpherePack *next = t->_GetNextSibling();
; 354  : 		mChildren = next;

  0001c	89 41 24	 mov	 DWORD PTR [ecx+36], eax

; 355  : 		if (mChildren) mChildren->SetPrevSibling(0);

  0001f	85 c0		 test	 eax, eax
  00021	74 07		 je	 SHORT $LN5@LostChild
  00023	c7 40 2c 00 00
	00 00		 mov	 DWORD PTR [eax+44], 0
$LN5@LostChild:

; 356  : 	}
; 357  : 
; 358  : 	mChildCount--;

  0002a	83 41 3c ff	 add	 DWORD PTR [ecx+60], -1

; 359  : 
; 360  : 	if (!mChildCount && HasSpherePackFlag(SPF_SUPERSPHERE))

  0002e	75 12		 jne	 SHORT $LN6@LostChild
; File C:\DS Project\DS Files\Source\ClientSource\Client\SphereLib\spherepack.h

; 133  : 		if ( mFlags & flag ) return true;

  00030	f6 41 38 01	 test	 BYTE PTR [ecx+56], 1
  00034	74 0c		 je	 SHORT $LN6@LostChild
; File C:\DS Project\DS Files\Source\ClientSource\Client\SphereLib\spherepack.cpp

; 362  : 		mFactory->Remove(this);

  00036	89 4d 08	 mov	 DWORD PTR _t$[ebp], ecx
  00039	8b 49 48	 mov	 ecx, DWORD PTR [ecx+72]

; 363  : 	}
; 364  : }

  0003c	5d		 pop	 ebp

; 362  : 		mFactory->Remove(this);

  0003d	e9 00 00 00 00	 jmp	 ?Remove@SpherePackFactory@@QAEXPAVSpherePack@@@Z ; SpherePackFactory::Remove
$LN6@LostChild:

; 363  : 	}
; 364  : }

  00042	5d		 pop	 ebp
  00043	c2 04 00	 ret	 4
?LostChild@SpherePack@@QAEXPAV1@@Z ENDP			; SpherePack::LostChild
_TEXT	ENDS
; Function compile flags: /Ogtp
; File C:\DS Project\DS Files\Source\ClientSource\Client\SphereLib\spherepack.h
;	COMDAT ?Unlink@SpherePack@@QAEXXZ
_TEXT	SEGMENT
?Unlink@SpherePack@@QAEXXZ PROC				; SpherePack::Unlink, COMDAT
; _this$ = ecx

; 147  : 	{

  00000	56		 push	 esi
  00001	8b f1		 mov	 esi, ecx

; 148  : 		if ( mFifo1 ) // if we belong to fifo1, null us out

  00003	8b 46 30	 mov	 eax, DWORD PTR [esi+48]
  00006	85 c0		 test	 eax, eax
  00008	74 0d		 je	 SHORT $LN2@Unlink

; 149  : 		{
; 150  : 			*mFifo1 = 0;

  0000a	c7 00 00 00 00
	00		 mov	 DWORD PTR [eax], 0

; 151  : 			mFifo1 = 0;

  00010	c7 46 30 00 00
	00 00		 mov	 DWORD PTR [esi+48], 0
$LN2@Unlink:

; 152  : 		}
; 153  : 
; 154  : 		if ( mFifo2 ) // if we belong to fifo2, null us out

  00017	8b 46 34	 mov	 eax, DWORD PTR [esi+52]
  0001a	85 c0		 test	 eax, eax
  0001c	74 0d		 je	 SHORT $LN3@Unlink

; 155  : 		{
; 156  : 			*mFifo2 = 0;

  0001e	c7 00 00 00 00
	00		 mov	 DWORD PTR [eax], 0

; 157  : 			mFifo2 = 0;

  00024	c7 46 34 00 00
	00 00		 mov	 DWORD PTR [esi+52], 0
$LN3@Unlink:

; 158  : 		}
; 159  : 
; 160  : 		if ( mParent ) mParent->LostChild(this);

  0002b	8b 4e 20	 mov	 ecx, DWORD PTR [esi+32]
  0002e	85 c9		 test	 ecx, ecx
  00030	74 06		 je	 SHORT $LN6@Unlink
  00032	56		 push	 esi
  00033	e8 00 00 00 00	 call	 ?LostChild@SpherePack@@QAEXPAV1@@Z ; SpherePack::LostChild
$LN6@Unlink:

; 161  : 
; 162  : 		assert( !mChildren ); // can't unlink guys with children!
; 163  : 
; 164  : 		mParent = 0; // got no father anymore
; 165  : 	}

  00038	c7 46 20 00 00
	00 00		 mov	 DWORD PTR [esi+32], 0
  0003f	5e		 pop	 esi
  00040	c3		 ret	 0
?Unlink@SpherePack@@QAEXXZ ENDP				; SpherePack::Unlink
_TEXT	ENDS
; Function compile flags: /Ogtp
; File C:\DS Project\DS Files\Source\ClientSource\Client\SphereLib\spherepack.h
; File C:\DS Project\DS Files\Source\ClientSource\Client\SphereLib\vector.h
; File C:\DS Project\DS Files\Source\ClientSource\Client\SphereLib\spherepack.h
; File C:\DS Project\DS Files\Source\ClientSource\Client\SphereLib\vector.h
; File C:\DS Project\DS Files\Source\ClientSource\Client\SphereLib\spherepack.h
; File C:\DS Project\DS Files\Source\ClientSource\Client\SphereLib\sphere.h
; File C:\DS Project\DS Files\Source\ClientSource\Client\SphereLib\spherepack.h
; File C:\DS Project\DS Files\Source\ClientSource\Client\SphereLib\vector.h
; File C:\DS Project\DS Files\Source\ClientSource\Client\SphereLib\spherepack.h
;	COMDAT ?NewPosRadius@SpherePack@@QAEXABVVector3d@@M@Z
_TEXT	SEGMENT
_pos$ = 8						; size = 4
_radius$ = 12						; size = 4
?NewPosRadius@SpherePack@@QAEXABVVector3d@@M@Z PROC	; SpherePack::NewPosRadius, COMDAT
; _this$ = ecx

; 470  : {

  00000	55		 push	 ebp
  00001	8b ec		 mov	 ebp, esp
; File C:\DS Project\DS Files\Source\ClientSource\Client\SphereLib\vector.h

; 57   : 	{ x=A.x; y=A.y; z=A.z;

  00003	8b 55 08	 mov	 edx, DWORD PTR _pos$[ebp]
; File C:\DS Project\DS Files\Source\ClientSource\Client\SphereLib\spherepack.h

; 470  : {

  00006	56		 push	 esi
  00007	8b f1		 mov	 esi, ecx
; File C:\DS Project\DS Files\Source\ClientSource\Client\SphereLib\vector.h

; 57   : 	{ x=A.x; y=A.y; z=A.z;

  00009	8b 02		 mov	 eax, DWORD PTR [edx]
  0000b	89 46 04	 mov	 DWORD PTR [esi+4], eax
  0000e	8b 42 04	 mov	 eax, DWORD PTR [edx+4]
  00011	89 46 08	 mov	 DWORD PTR [esi+8], eax
  00014	8b 42 08	 mov	 eax, DWORD PTR [edx+8]
  00017	89 46 0c	 mov	 DWORD PTR [esi+12], eax
; File C:\DS Project\DS Files\Source\ClientSource\Client\SphereLib\spherepack.h

; 474  : 	if (mParent && !HasSpherePackFlag(SPF_INTEGRATE))

  0001a	8b 4e 20	 mov	 ecx, DWORD PTR [esi+32]
  0001d	85 c9		 test	 ecx, ecx
  0001f	0f 84 a1 00 00
	00		 je	 $LN4@NewPosRadi

; 133  : 		if ( mFlags & flag ) return true;

  00025	f6 46 38 20	 test	 BYTE PTR [esi+56], 32	; 00000020H
  00029	0f 85 97 00 00
	00		 jne	 $LN4@NewPosRadi

; 475  : 	{
; 476  : 		if (radius != GetRadius())

  0002f	f3 0f 10 55 0c	 movss	 xmm2, DWORD PTR _radius$[ebp]
  00034	0f 2e 56 10	 ucomiss xmm2, DWORD PTR [esi+16]
  00038	9f		 lahf
  00039	f6 c4 44	 test	 ah, 68			; 00000044H
  0003c	7b 34		 jnp	 SHORT $LN15@NewPosRadi
; File C:\DS Project\DS Files\Source\ClientSource\Client\SphereLib\sphere.h

; 68   : 		mRadius2 = radius*radius;

  0003e	0f 28 c2	 movaps	 xmm0, xmm2
  00041	f3 0f 11 56 10	 movss	 DWORD PTR [esi+16], xmm2
  00046	f3 0f 59 c2	 mulss	 xmm0, xmm2
  0004a	f3 0f 11 46 14	 movss	 DWORD PTR [esi+20], xmm0
  0004f	0f 57 c0	 xorps	 xmm0, xmm0
; File C:\DS Project\DS Files\Source\ClientSource\Client\SphereLib\spherepack.h

; 241  : 		mBindingDistance = parent->GetRadius() - GetRadius();

  00052	f3 0f 10 49 10	 movss	 xmm1, DWORD PTR [ecx+16]
  00057	f3 0f 5c ca	 subss	 xmm1, xmm2

; 242  : 		if ( mBindingDistance <= 0 )

  0005b	0f 2f c1	 comiss	 xmm0, xmm1
  0005e	72 09		 jb	 SHORT $LN14@NewPosRadi

; 243  : 			mBindingDistance = 0;

  00060	c7 46 40 00 00
	00 00		 mov	 DWORD PTR [esi+64], 0
  00067	eb 09		 jmp	 SHORT $LN15@NewPosRadi
$LN14@NewPosRadi:

; 244  : 		else
; 245  : 			mBindingDistance*=mBindingDistance;

  00069	f3 0f 59 c9	 mulss	 xmm1, xmm1
  0006d	f3 0f 11 4e 40	 movss	 DWORD PTR [esi+64], xmm1
$LN15@NewPosRadi:

; 477  : 		{
; 478  : 			SetRadius(radius);
; 479  : 			ComputeBindingDistance(mParent);
; 480  : 		}
; 481  : 
; 482  : 		mFactory->AddRecompute(mParent);

  00072	51		 push	 ecx
  00073	8b 4e 48	 mov	 ecx, DWORD PTR [esi+72]
  00076	e8 00 00 00 00	 call	 ?AddRecompute@SpherePackFactory@@QAEXPAVSpherePack@@@Z ; SpherePackFactory::AddRecompute

; 212  : 	float DistanceSquared(const SpherePack *pack) const { return mCenter.DistanceSq( pack->mCenter );  };

  0007b	8b 46 20	 mov	 eax, DWORD PTR [esi+32]
; File C:\DS Project\DS Files\Source\ClientSource\Client\SphereLib\vector.h

; 170  : 		float dx = a.x - x;

  0007e	f3 0f 10 48 04	 movss	 xmm1, DWORD PTR [eax+4]

; 171  : 		float dy = a.y - y;

  00083	f3 0f 10 50 08	 movss	 xmm2, DWORD PTR [eax+8]
  00088	f3 0f 5c 56 08	 subss	 xmm2, DWORD PTR [esi+8]
  0008d	f3 0f 5c 4e 04	 subss	 xmm1, DWORD PTR [esi+4]

; 172  : 		float dz = a.z - z;

  00092	f3 0f 10 40 0c	 movss	 xmm0, DWORD PTR [eax+12]
  00097	f3 0f 5c 46 0c	 subss	 xmm0, DWORD PTR [esi+12]

; 173  : 		return dx*dx + dy*dy + dz*dz;

  0009c	f3 0f 59 d2	 mulss	 xmm2, xmm2
  000a0	f3 0f 59 c9	 mulss	 xmm1, xmm1
  000a4	f3 0f 59 c0	 mulss	 xmm0, xmm0
  000a8	f3 0f 58 d1	 addss	 xmm2, xmm1
  000ac	f3 0f 58 d0	 addss	 xmm2, xmm0
; File C:\DS Project\DS Files\Source\ClientSource\Client\SphereLib\spherepack.h

; 486  : 		if (dist >= mBindingDistance)

  000b0	0f 2f 56 40	 comiss	 xmm2, DWORD PTR [esi+64]
  000b4	72 10		 jb	 SHORT $LN4@NewPosRadi

; 487  : 		{
; 488  : 			Unlink();

  000b6	8b ce		 mov	 ecx, esi
  000b8	e8 00 00 00 00	 call	 ?Unlink@SpherePack@@QAEXXZ ; SpherePack::Unlink

; 489  : 			mFactory->AddIntegrate(this);

  000bd	8b 4e 48	 mov	 ecx, DWORD PTR [esi+72]
  000c0	56		 push	 esi
  000c1	e8 00 00 00 00	 call	 ?AddIntegrate@SpherePackFactory@@QAEXPAVSpherePack@@@Z ; SpherePackFactory::AddIntegrate
$LN4@NewPosRadi:
  000c6	5e		 pop	 esi

; 490  : 		}
; 491  : 	}
; 492  : }

  000c7	5d		 pop	 ebp
  000c8	c2 08 00	 ret	 8
?NewPosRadius@SpherePack@@QAEXABVVector3d@@M@Z ENDP	; SpherePack::NewPosRadius
_TEXT	ENDS
; Function compile flags: /Ogtp
; File C:\DS Project\DS Files\Source\ClientSource\Client\SphereLib\spherepack.h
; File C:\DS Project\DS Files\Source\ClientSource\Client\SphereLib\vector.h
; File C:\DS Project\DS Files\Source\ClientSource\Client\SphereLib\sphere.h
; File C:\DS Project\DS Files\Source\ClientSource\Client\SphereLib\spherepack.h
; File C:\DS Project\DS Files\Source\ClientSource\Client\SphereLib\vector.h
; File C:\DS Project\DS Files\Source\ClientSource\Client\SphereLib\sphere.h
; File C:\DS Project\DS Files\Source\ClientSource\Client\SphereLib\vector.h
; File C:\DS Project\DS Files\Source\ClientSource\Client\SphereLib\sphere.h
; File C:\DS Project\DS Files\Source\ClientSource\Client\SphereLib\spherepack.h
;	COMDAT ?Init@SpherePack@@QAEXPAVSpherePackFactory@@ABVVector3d@@MPAX_N@Z
_TEXT	SEGMENT
_factory$ = 8						; size = 4
_pos$ = 12						; size = 4
_radius$ = 16						; size = 4
_userdata$ = 20						; size = 4
_isSphere$ = 24						; size = 1
?Init@SpherePack@@QAEXPAVSpherePackFactory@@ABVVector3d@@MPAX_N@Z PROC ; SpherePack::Init, COMDAT
; _this$ = ecx

; 114  : 	{

  00000	55		 push	 ebp
  00001	8b ec		 mov	 ebp, esp

; 115  : 		IS_SPHERE			= isSphere;

  00003	8a 45 18	 mov	 al, BYTE PTR _isSphere$[ebp]
  00006	8b d1		 mov	 edx, ecx
; File C:\DS Project\DS Files\Source\ClientSource\Client\SphereLib\vector.h

; 57   : 	{ x=A.x; y=A.y; z=A.z;

  00008	8b 4d 0c	 mov	 ecx, DWORD PTR _pos$[ebp]
; File C:\DS Project\DS Files\Source\ClientSource\Client\SphereLib\sphere.h

; 67   : 		mRadius = radius;

  0000b	f3 0f 10 45 10	 movss	 xmm0, DWORD PTR _radius$[ebp]
; File C:\DS Project\DS Files\Source\ClientSource\Client\SphereLib\spherepack.h

; 115  : 		IS_SPHERE			= isSphere;

  00010	88 42 4c	 mov	 BYTE PTR [edx+76], al

; 116  : 		mUserData         = userdata;

  00013	8b 45 14	 mov	 eax, DWORD PTR _userdata$[ebp]
  00016	89 42 44	 mov	 DWORD PTR [edx+68], eax

; 117  : 		mParent           = 0;
; 118  : 		mNextSibling      = 0;
; 119  : 		mPrevSibling      = 0;
; 120  : 		mFlags            = 0;
; 121  : 		mFifo1            = 0;
; 122  : 		mFifo2            = 0;
; 123  : 		mFactory          = factory;

  00019	8b 45 08	 mov	 eax, DWORD PTR _factory$[ebp]
  0001c	c7 42 20 00 00
	00 00		 mov	 DWORD PTR [edx+32], 0
  00023	c7 42 28 00 00
	00 00		 mov	 DWORD PTR [edx+40], 0
  0002a	c7 42 2c 00 00
	00 00		 mov	 DWORD PTR [edx+44], 0
  00031	c7 42 38 00 00
	00 00		 mov	 DWORD PTR [edx+56], 0
  00038	c7 42 30 00 00
	00 00		 mov	 DWORD PTR [edx+48], 0
  0003f	c7 42 34 00 00
	00 00		 mov	 DWORD PTR [edx+52], 0
  00046	89 42 48	 mov	 DWORD PTR [edx+72], eax
; File C:\DS Project\DS Files\Source\ClientSource\Client\SphereLib\vector.h

; 57   : 	{ x=A.x; y=A.y; z=A.z;

  00049	8b 01		 mov	 eax, DWORD PTR [ecx]
  0004b	89 42 04	 mov	 DWORD PTR [edx+4], eax
  0004e	8b 41 04	 mov	 eax, DWORD PTR [ecx+4]
  00051	89 42 08	 mov	 DWORD PTR [edx+8], eax
  00054	8b 41 08	 mov	 eax, DWORD PTR [ecx+8]
; File C:\DS Project\DS Files\Source\ClientSource\Client\SphereLib\sphere.h

; 67   : 		mRadius = radius;

  00057	f3 0f 11 42 10	 movss	 DWORD PTR [edx+16], xmm0

; 68   : 		mRadius2 = radius*radius;

  0005c	f3 0f 59 c0	 mulss	 xmm0, xmm0
; File C:\DS Project\DS Files\Source\ClientSource\Client\SphereLib\vector.h

; 57   : 	{ x=A.x; y=A.y; z=A.z;

  00060	89 42 0c	 mov	 DWORD PTR [edx+12], eax
; File C:\DS Project\DS Files\Source\ClientSource\Client\SphereLib\sphere.h

; 68   : 		mRadius2 = radius*radius;

  00063	f3 0f 11 42 14	 movss	 DWORD PTR [edx+20], xmm0
; File C:\DS Project\DS Files\Source\ClientSource\Client\SphereLib\spherepack.h

; 126  : 	};

  00068	5d		 pop	 ebp
  00069	c2 14 00	 ret	 20			; 00000014H
?Init@SpherePack@@QAEXPAVSpherePackFactory@@ABVVector3d@@MPAX_N@Z ENDP ; SpherePack::Init
_TEXT	ENDS
; Function compile flags: /Ogtp
; File C:\DS Project\DS Files\Source\ClientSource\Client\SphereLib\spherepack.h
;	COMDAT ??1SpherePack@@UAE@XZ
_TEXT	SEGMENT
??1SpherePack@@UAE@XZ PROC				; SpherePack::~SpherePack, COMDAT
; _this$ = ecx

; 108  : 	}

  00000	c7 01 00 00 00
	00		 mov	 DWORD PTR [ecx], OFFSET ??_7Sphere@@6B@
  00006	c3		 ret	 0
??1SpherePack@@UAE@XZ ENDP				; SpherePack::~SpherePack
_TEXT	ENDS
; Function compile flags: /Ogtp
; File C:\DS Project\DS Files\Source\ClientSource\Client\SphereLib\spherepack.h
; File C:\DS Project\DS Files\Source\ClientSource\Client\SphereLib\vector.h
; File C:\DS Project\DS Files\Source\ClientSource\Client\SphereLib\sphere.h
; File C:\DS Project\DS Files\Source\ClientSource\Client\SphereLib\spherepack.h
; File C:\DS Project\DS Files\Source\ClientSource\Client\SphereLib\sphere.h
; File C:\DS Project\DS Files\Source\ClientSource\Client\SphereLib\vector.h
; File C:\DS Project\DS Files\Source\ClientSource\Client\SphereLib\spherepack.h
;	COMDAT ??0SpherePack@@QAE@XZ
_TEXT	SEGMENT
_this$ = -4						; size = 4
??0SpherePack@@QAE@XZ PROC				; SpherePack::SpherePack, COMDAT
; _this$ = ecx

; 89   : 	SpherePack(void)

  00000	55		 push	 ebp
  00001	8b ec		 mov	 ebp, esp
  00003	51		 push	 ecx
; File C:\DS Project\DS Files\Source\ClientSource\Client\SphereLib\vector.h

; 37   : 		x = a;

  00004	c7 41 04 00 00
	00 00		 mov	 DWORD PTR [ecx+4], 0
  0000b	0f 57 c0	 xorps	 xmm0, xmm0
; File C:\DS Project\DS Files\Source\ClientSource\Client\SphereLib\sphere.h

; 68   : 		mRadius2 = radius*radius;

  0000e	f3 0f 59 c0	 mulss	 xmm0, xmm0
; File C:\DS Project\DS Files\Source\ClientSource\Client\SphereLib\spherepack.h

; 105  : 	};

  00012	8b c1		 mov	 eax, ecx
  00014	c7 01 00 00 00
	00		 mov	 DWORD PTR [ecx], OFFSET ??_7SpherePack@@6B@
  0001a	c7 41 44 00 00
	00 00		 mov	 DWORD PTR [ecx+68], 0
  00021	c7 41 48 00 00
	00 00		 mov	 DWORD PTR [ecx+72], 0
  00028	c7 41 18 00 00
	00 00		 mov	 DWORD PTR [ecx+24], 0
  0002f	c7 41 1c 00 00
	00 00		 mov	 DWORD PTR [ecx+28], 0
  00036	c7 41 20 00 00
	00 00		 mov	 DWORD PTR [ecx+32], 0
  0003d	c7 41 28 00 00
	00 00		 mov	 DWORD PTR [ecx+40], 0
  00044	c7 41 2c 00 00
	00 00		 mov	 DWORD PTR [ecx+44], 0
  0004b	c7 41 24 00 00
	00 00		 mov	 DWORD PTR [ecx+36], 0
  00052	c7 41 3c 00 00
	00 00		 mov	 DWORD PTR [ecx+60], 0
  00059	c7 41 30 00 00
	00 00		 mov	 DWORD PTR [ecx+48], 0
  00060	c7 41 34 00 00
	00 00		 mov	 DWORD PTR [ecx+52], 0
; File C:\DS Project\DS Files\Source\ClientSource\Client\SphereLib\sphere.h

; 67   : 		mRadius = radius;

  00067	c7 41 10 00 00
	00 00		 mov	 DWORD PTR [ecx+16], 0

; 68   : 		mRadius2 = radius*radius;

  0006e	f3 0f 11 41 14	 movss	 DWORD PTR [ecx+20], xmm0
; File C:\DS Project\DS Files\Source\ClientSource\Client\SphereLib\vector.h

; 107  : 		x = a;

  00073	c7 41 04 00 00
	00 00		 mov	 DWORD PTR [ecx+4], 0

; 108  : 		y = b;

  0007a	c7 41 08 00 00
	00 00		 mov	 DWORD PTR [ecx+8], 0

; 109  : 		z = c;

  00081	c7 41 0c 00 00
	00 00		 mov	 DWORD PTR [ecx+12], 0
; File C:\DS Project\DS Files\Source\ClientSource\Client\SphereLib\spherepack.h

; 89   : 	SpherePack(void)

  00088	89 4d fc	 mov	 DWORD PTR _this$[ebp], ecx

; 90   : 	{
; 91   : 		mUserData         = 0; // default user data is null
; 92   : 		mFactory          = 0; // factory we are a member of
; 93   : 		mNext             = 0; // linked list pointers
; 94   : 		mPrevious         = 0;
; 95   : 		mParent           = 0;
; 96   : 		mNextSibling      = 0; // our brothers and sisters at this level.
; 97   : 		mPrevSibling      = 0;
; 98   : 		mChildren         = 0; // our children.
; 99   : 		mChildCount       = 0; // number of children we have.
; 100  : 		mFifo1            = 0; // our FIFO1 location if we have one.
; 101  : 		mFifo2            = 0; // our FIFO2 location if we have one.
; 102  : 		SetRadius(0);          // default radius
; 103  : 		mCenter.Set(0,0,0);    // default center position.
; 104  : 		IS_SPHERE	= false;

  0008b	c6 41 4c 00	 mov	 BYTE PTR [ecx+76], 0

; 105  : 	};

  0008f	8b e5		 mov	 esp, ebp
  00091	5d		 pop	 ebp
  00092	c3		 ret	 0
??0SpherePack@@QAE@XZ ENDP				; SpherePack::SpherePack
_TEXT	ENDS
; Function compile flags: /Ogtp
;	COMDAT ??_GSpherePackCallback@@UAEPAXI@Z
_TEXT	SEGMENT
___flags$ = 8						; size = 4
??_GSpherePackCallback@@UAEPAXI@Z PROC			; SpherePackCallback::`scalar deleting destructor', COMDAT
; _this$ = ecx
  00000	55		 push	 ebp
  00001	8b ec		 mov	 ebp, esp
  00003	f6 45 08 01	 test	 BYTE PTR ___flags$[ebp], 1
  00007	56		 push	 esi
  00008	8b f1		 mov	 esi, ecx
  0000a	c7 06 00 00 00
	00		 mov	 DWORD PTR [esi], OFFSET ??_7SpherePackCallback@@6B@
  00010	74 0b		 je	 SHORT $LN4@scalar
  00012	6a 04		 push	 4
  00014	56		 push	 esi
  00015	e8 00 00 00 00	 call	 ??3@YAXPAXI@Z		; operator delete
  0001a	83 c4 08	 add	 esp, 8
$LN4@scalar:
  0001d	8b c6		 mov	 eax, esi
  0001f	5e		 pop	 esi
  00020	5d		 pop	 ebp
  00021	c2 04 00	 ret	 4
??_GSpherePackCallback@@UAEPAXI@Z ENDP			; SpherePackCallback::`scalar deleting destructor'
_TEXT	ENDS
; Function compile flags: /Ogtp
; File C:\DS Project\DS Files\Source\ClientSource\Client\SphereLib\spherepack.h
;	COMDAT ?PointTest2dCallback@SpherePackCallback@@UAEXABVVector3d@@PAVSpherePack@@W4ViewState@@@Z
_TEXT	SEGMENT
_searchpos$ = 8						; size = 4
_sphere$ = 12						; size = 4
_state$ = 16						; size = 4
?PointTest2dCallback@SpherePackCallback@@UAEXABVVector3d@@PAVSpherePack@@W4ViewState@@@Z PROC ; SpherePackCallback::PointTest2dCallback, COMDAT
; _this$ = ecx

; 79   : 	{};

  00000	c2 0c 00	 ret	 12			; 0000000cH
?PointTest2dCallback@SpherePackCallback@@UAEXABVVector3d@@PAVSpherePack@@W4ViewState@@@Z ENDP ; SpherePackCallback::PointTest2dCallback
_TEXT	ENDS
; Function compile flags: /Ogtp
; File C:\DS Project\DS Files\Source\ClientSource\Client\SphereLib\spherepack.h
;	COMDAT ?RangeTestCallback@SpherePackCallback@@UAEXABVVector3d@@MPAVSpherePack@@W4ViewState@@@Z
_TEXT	SEGMENT
_searchpos$ = 8						; size = 4
_distance$ = 12						; size = 4
_sphere$ = 16						; size = 4
_state$ = 20						; size = 4
?RangeTestCallback@SpherePackCallback@@UAEXABVVector3d@@MPAVSpherePack@@W4ViewState@@@Z PROC ; SpherePackCallback::RangeTestCallback, COMDAT
; _this$ = ecx

; 74   : 	{};

  00000	c2 10 00	 ret	 16			; 00000010H
?RangeTestCallback@SpherePackCallback@@UAEXABVVector3d@@MPAVSpherePack@@W4ViewState@@@Z ENDP ; SpherePackCallback::RangeTestCallback
_TEXT	ENDS
; Function compile flags: /Ogtp
; File C:\DS Project\DS Files\Source\ClientSource\Client\SphereLib\spherepack.h
;	COMDAT ?RayTraceCallback@SpherePackCallback@@UAEXABVVector3d@@0M0PAVSpherePack@@@Z
_TEXT	SEGMENT
_p1$ = 8						; size = 4
_dir$ = 12						; size = 4
_distance$ = 16						; size = 4
_sect$ = 20						; size = 4
_sphere$ = 24						; size = 4
?RayTraceCallback@SpherePackCallback@@UAEXABVVector3d@@0M0PAVSpherePack@@@Z PROC ; SpherePackCallback::RayTraceCallback, COMDAT
; _this$ = ecx

; 68   : 	{};

  00000	c2 14 00	 ret	 20			; 00000014H
?RayTraceCallback@SpherePackCallback@@UAEXABVVector3d@@0M0PAVSpherePack@@@Z ENDP ; SpherePackCallback::RayTraceCallback
_TEXT	ENDS
; Function compile flags: /Ogtp
; File C:\DS Project\DS Files\Source\ClientSource\Client\SphereLib\spherepack.h
;	COMDAT ?VisibilityCallback@SpherePackCallback@@UAEXABVFrustum@@PAVSpherePack@@W4ViewState@@@Z
_TEXT	SEGMENT
_f$ = 8							; size = 4
_sphere$ = 12						; size = 4
_state$ = 16						; size = 4
?VisibilityCallback@SpherePackCallback@@UAEXABVFrustum@@PAVSpherePack@@W4ViewState@@@Z PROC ; SpherePackCallback::VisibilityCallback, COMDAT
; _this$ = ecx

; 61   : 	{};

  00000	c2 0c 00	 ret	 12			; 0000000cH
?VisibilityCallback@SpherePackCallback@@UAEXABVFrustum@@PAVSpherePack@@W4ViewState@@@Z ENDP ; SpherePackCallback::VisibilityCallback
_TEXT	ENDS
; Function compile flags: /Ogtp
; File C:\DS Project\DS Files\Source\ClientSource\Client\SphereLib\spherepack.h
;	COMDAT ??1SpherePackCallback@@UAE@XZ
_TEXT	SEGMENT
??1SpherePackCallback@@UAE@XZ PROC			; SpherePackCallback::~SpherePackCallback, COMDAT
; _this$ = ecx

; 56   : 	virtual ~SpherePackCallback() {}

  00000	c7 01 00 00 00
	00		 mov	 DWORD PTR [ecx], OFFSET ??_7SpherePackCallback@@6B@
  00006	c3		 ret	 0
??1SpherePackCallback@@UAE@XZ ENDP			; SpherePackCallback::~SpherePackCallback
_TEXT	ENDS
; Function compile flags: /Ogtp
;	COMDAT ??_GSphere@@UAEPAXI@Z
_TEXT	SEGMENT
___flags$ = 8						; size = 4
??_GSphere@@UAEPAXI@Z PROC				; Sphere::`scalar deleting destructor', COMDAT
; _this$ = ecx
  00000	55		 push	 ebp
  00001	8b ec		 mov	 ebp, esp
  00003	f6 45 08 01	 test	 BYTE PTR ___flags$[ebp], 1
  00007	56		 push	 esi
  00008	8b f1		 mov	 esi, ecx
  0000a	c7 06 00 00 00
	00		 mov	 DWORD PTR [esi], OFFSET ??_7Sphere@@6B@
  00010	74 0b		 je	 SHORT $LN4@scalar
  00012	6a 18		 push	 24			; 00000018H
  00014	56		 push	 esi
  00015	e8 00 00 00 00	 call	 ??3@YAXPAXI@Z		; operator delete
  0001a	83 c4 08	 add	 esp, 8
$LN4@scalar:
  0001d	8b c6		 mov	 eax, esi
  0001f	5e		 pop	 esi
  00020	5d		 pop	 ebp
  00021	c2 04 00	 ret	 4
??_GSphere@@UAEPAXI@Z ENDP				; Sphere::`scalar deleting destructor'
_TEXT	ENDS
; Function compile flags: /Ogtp
; File C:\DS Project\DS Files\Source\ClientSource\Client\SphereLib\sphere.h
;	COMDAT ??1Sphere@@UAE@XZ
_TEXT	SEGMENT
??1Sphere@@UAE@XZ PROC					; Sphere::~Sphere, COMDAT
; _this$ = ecx

; 39   : 	virtual ~Sphere() {}

  00000	c7 01 00 00 00
	00		 mov	 DWORD PTR [ecx], OFFSET ??_7Sphere@@6B@
  00006	c3		 ret	 0
??1Sphere@@UAE@XZ ENDP					; Sphere::~Sphere
_TEXT	ENDS
END
