; Listing generated by Microsoft (R) Optimizing Compiler Version 19.27.29112.0 

	TITLE	C:\DS Project\DS Files\Source\ClientSource\Client\scriptLib\StdAfx.cpp
	.686P
	.XMM
	include listing.inc
	.model	flat

INCLUDELIB LIBCMT
INCLUDELIB OLDNAMES

PUBLIC	___@@_PchSym_@00@UwhLkilqvxgUwhLurovhUhlfixvUxorvmghlfixvUxorvmgUhxirkgoryUwrhgiryfgvUhgwzucOlyq@4B2008FD98C1DD4
;	COMDAT ___@@_PchSym_@00@UwhLkilqvxgUwhLurovhUhlfixvUxorvmghlfixvUxorvmgUhxirkgoryUwrhgiryfgvUhgwzucOlyq@4B2008FD98C1DD4
_BSS	SEGMENT
___@@_PchSym_@00@UwhLkilqvxgUwhLurovhUhlfixvUxorvmghlfixvUxorvmgUhxirkgoryUwrhgiryfgvUhgwzucOlyq@4B2008FD98C1DD4 DD 01H DUP (?)
_BSS	ENDS
PUBLIC	?SetExceptionSender@@YAXPAVIPythonExceptionSender@@@Z ; SetExceptionSender
EXTRN	?g_pkExceptionSender@@3PAVIPythonExceptionSender@@A:DWORD ; g_pkExceptionSender
; Function compile flags: /Ogtp
; File C:\DS Project\DS Files\Source\ClientSource\Client\scriptLib\StdAfx.cpp
;	COMDAT ?SetExceptionSender@@YAXPAVIPythonExceptionSender@@@Z
_TEXT	SEGMENT
_pkExceptionSender$ = 8					; size = 4
?SetExceptionSender@@YAXPAVIPythonExceptionSender@@@Z PROC ; SetExceptionSender, COMDAT

; 8    : {

  00000	55		 push	 ebp
  00001	8b ec		 mov	 ebp, esp

; 9    : 	g_pkExceptionSender = pkExceptionSender;

  00003	8b 45 08	 mov	 eax, DWORD PTR _pkExceptionSender$[ebp]
  00006	a3 00 00 00 00	 mov	 DWORD PTR ?g_pkExceptionSender@@3PAVIPythonExceptionSender@@A, eax ; g_pkExceptionSender

; 10   : }

  0000b	5d		 pop	 ebp
  0000c	c3		 ret	 0
?SetExceptionSender@@YAXPAVIPythonExceptionSender@@@Z ENDP ; SetExceptionSender
_TEXT	ENDS
END
