; Listing generated by Microsoft (R) Optimizing Compiler Version 19.27.29112.0 

	TITLE	C:\DS Project\DS Files\Source\ClientSource\Client\EterLocale\StringCodec_Vietnamese.cpp
	.686P
	.XMM
	include listing.inc
	.model	flat

INCLUDELIB LIBCMT
INCLUDELIB OLDNAMES

PUBLIC	?EL_String_Decode_Vietnamese@@YAHPBDHPA_WH@Z	; EL_String_Decode_Vietnamese
PUBLIC	?EL_String_Encode_Vietnamese@@YAHPB_WHPADH@Z	; EL_String_Encode_Vietnamese
_DATA	SEGMENT
?cp1258_to_unicode@@3PA_WA DW 00H			; cp1258_to_unicode
	DW	01H
	DW	02H
	DW	03H
	DW	04H
	DW	05H
	DW	06H
	DW	07H
	DW	08H
	DW	09H
	DW	0aH
	DW	0bH
	DW	0cH
	DW	0dH
	DW	0eH
	DW	0fH
	DW	010H
	DW	011H
	DW	012H
	DW	013H
	DW	014H
	DW	015H
	DW	016H
	DW	017H
	DW	018H
	DW	019H
	DW	01aH
	DW	01bH
	DW	01cH
	DW	01dH
	DW	01eH
	DW	01fH
	DW	020H
	DW	021H
	DW	022H
	DW	023H
	DW	024H
	DW	025H
	DW	026H
	DW	027H
	DW	028H
	DW	029H
	DW	02aH
	DW	02bH
	DW	02cH
	DW	02dH
	DW	02eH
	DW	02fH
	DW	030H
	DW	031H
	DW	032H
	DW	033H
	DW	034H
	DW	035H
	DW	036H
	DW	037H
	DW	038H
	DW	039H
	DW	03aH
	DW	03bH
	DW	03cH
	DW	03dH
	DW	03eH
	DW	03fH
	DW	040H
	DW	041H
	DW	042H
	DW	043H
	DW	044H
	DW	045H
	DW	046H
	DW	047H
	DW	048H
	DW	049H
	DW	04aH
	DW	04bH
	DW	04cH
	DW	04dH
	DW	04eH
	DW	04fH
	DW	050H
	DW	051H
	DW	052H
	DW	053H
	DW	054H
	DW	055H
	DW	056H
	DW	057H
	DW	058H
	DW	059H
	DW	05aH
	DW	05bH
	DW	05cH
	DW	05dH
	DW	05eH
	DW	05fH
	DW	060H
	DW	061H
	DW	062H
	DW	063H
	DW	064H
	DW	065H
	DW	066H
	DW	067H
	DW	068H
	DW	069H
	DW	06aH
	DW	06bH
	DW	06cH
	DW	06dH
	DW	06eH
	DW	06fH
	DW	070H
	DW	071H
	DW	072H
	DW	073H
	DW	074H
	DW	075H
	DW	076H
	DW	077H
	DW	078H
	DW	079H
	DW	07aH
	DW	07bH
	DW	07cH
	DW	07dH
	DW	07eH
	DW	07fH
	DW	020acH
	DW	081H
	DW	0201aH
	DW	0192H
	DW	0201eH
	DW	02026H
	DW	02020H
	DW	02021H
	DW	02c6H
	DW	02030H
	DW	08aH
	DW	02039H
	DW	0152H
	DW	08dH
	DW	08eH
	DW	08fH
	DW	090H
	DW	02018H
	DW	02019H
	DW	0201cH
	DW	0201dH
	DW	02022H
	DW	02013H
	DW	02014H
	DW	02dcH
	DW	02122H
	DW	09aH
	DW	0203aH
	DW	0153H
	DW	09dH
	DW	09eH
	DW	0178H
	DW	0a0H
	DW	0a1H
	DW	0a2H
	DW	0a3H
	DW	0a4H
	DW	0a5H
	DW	0a6H
	DW	0a7H
	DW	0a8H
	DW	0a9H
	DW	0aaH
	DW	0abH
	DW	0acH
	DW	0adH
	DW	0aeH
	DW	0afH
	DW	0b0H
	DW	0b1H
	DW	0b2H
	DW	0b3H
	DW	0b4H
	DW	0b5H
	DW	0b6H
	DW	0b7H
	DW	0b8H
	DW	0b9H
	DW	0baH
	DW	0bbH
	DW	0bcH
	DW	0bdH
	DW	0beH
	DW	0bfH
	DW	0c0H
	DW	0c1H
	DW	0c2H
	DW	0102H
	DW	0c4H
	DW	0c5H
	DW	0c6H
	DW	0c7H
	DW	0c8H
	DW	0c9H
	DW	0caH
	DW	0cbH
	DW	0300H
	DW	0cdH
	DW	0ceH
	DW	0cfH
	DW	0110H
	DW	0d1H
	DW	0309H
	DW	0d3H
	DW	0d4H
	DW	01a0H
	DW	0d6H
	DW	0d7H
	DW	0d8H
	DW	0d9H
	DW	0daH
	DW	0dbH
	DW	0dcH
	DW	01afH
	DW	0303H
	DW	0dfH
	DW	0e0H
	DW	0e1H
	DW	0e2H
	DW	0103H
	DW	0e4H
	DW	0e5H
	DW	0e6H
	DW	0e7H
	DW	0e8H
	DW	0e9H
	DW	0eaH
	DW	0ebH
	DW	0301H
	DW	0edH
	DW	0eeH
	DW	0efH
	DW	0111H
	DW	0f1H
	DW	0323H
	DW	0f3H
	DW	0f4H
	DW	01a1H
	DW	0f6H
	DW	0f7H
	DW	0f8H
	DW	0f9H
	DW	0faH
	DW	0fbH
	DW	0fcH
	DW	01b0H
	DW	020abH
	DW	0ffH
?cp1258_composed_table@@3PAY04_WA DW 0c1H		; cp1258_composed_table
	DW	0c0H
	DW	01ea2H
	DW	0c3H
	DW	01ea0H
	DW	0e1H
	DW	0e0H
	DW	01ea3H
	DW	0e3H
	DW	01ea1H
	DW	01eaeH
	DW	01eb0H
	DW	01eb2H
	DW	01eb4H
	DW	01eb6H
	DW	01eafH
	DW	01eb1H
	DW	01eb3H
	DW	01eb5H
	DW	01eb7H
	DW	01ea4H
	DW	01ea6H
	DW	01ea8H
	DW	01eaaH
	DW	01eacH
	DW	01ea5H
	DW	01ea7H
	DW	01ea9H
	DW	01eabH
	DW	01eadH
	DW	0c9H
	DW	0c8H
	DW	01ebaH
	DW	01ebcH
	DW	01eb8H
	DW	0e9H
	DW	0e8H
	DW	01ebbH
	DW	01ebdH
	DW	01eb9H
	DW	01ebeH
	DW	01ec0H
	DW	01ec2H
	DW	01ec4H
	DW	01ec6H
	DW	01ebfH
	DW	01ec1H
	DW	01ec3H
	DW	01ec5H
	DW	01ec7H
	DW	0cdH
	DW	0ccH
	DW	01ec8H
	DW	0128H
	DW	01ecaH
	DW	0edH
	DW	0ecH
	DW	01ec9H
	DW	0129H
	DW	01ecbH
	DW	0d3H
	DW	0d2H
	DW	01eceH
	DW	0d5H
	DW	01eccH
	DW	0f3H
	DW	0f2H
	DW	01ecfH
	DW	0f5H
	DW	01ecdH
	DW	01ed0H
	DW	01ed2H
	DW	01ed4H
	DW	01ed6H
	DW	01ed8H
	DW	01ed1H
	DW	01ed3H
	DW	01ed5H
	DW	01ed7H
	DW	01ed9H
	DW	01edaH
	DW	01edcH
	DW	01edeH
	DW	01ee0H
	DW	01ee2H
	DW	01edbH
	DW	01eddH
	DW	01edfH
	DW	01ee1H
	DW	01ee3H
	DW	0daH
	DW	0d9H
	DW	01ee6H
	DW	0168H
	DW	01ee4H
	DW	0faH
	DW	0f9H
	DW	01ee7H
	DW	0169H
	DW	01ee5H
	DW	01ee8H
	DW	01eeaH
	DW	01eecH
	DW	01eeeH
	DW	01ef0H
	DW	01ee9H
	DW	01eebH
	DW	01eedH
	DW	01eefH
	DW	01ef1H
	DW	0ddH
	DW	01ef2H
	DW	01ef6H
	DW	01ef8H
	DW	01ef4H
	DW	0fdH
	DW	01ef3H
	DW	01ef7H
	DW	01ef9H
	DW	01ef5H
_DATA	ENDS
; Function compile flags: /Ogtp
; File C:\DS Project\DS Files\Source\ClientSource\Client\EterLocale\StringCodec_Vietnamese.cpp
;	COMDAT ?DecomposeTone@@YA_N_WPAD@Z
_TEXT	SEGMENT
_input$ = 8						; size = 2
_tone$ = 12						; size = 4
?DecomposeTone@@YA_N_WPAD@Z PROC			; DecomposeTone, COMDAT

; 387  : {

  00000	55		 push	 ebp
  00001	8b ec		 mov	 ebp, esp

; 388  : 	switch(input)

  00003	0f b7 45 08	 movzx	 eax, WORD PTR _input$[ebp]
  00007	3d a1 1e 00 00	 cmp	 eax, 7841		; 00001ea1H
  0000c	77 21		 ja	 SHORT $LN10@DecomposeT
  0000e	3d a0 1e 00 00	 cmp	 eax, 7840		; 00001ea0H
  00013	73 5a		 jae	 SHORT $LN8@DecomposeT
  00015	2d c0 00 00 00	 sub	 eax, 192		; 000000c0H
  0001a	3d a9 00 00 00	 cmp	 eax, 169		; 000000a9H
  0001f	77 58		 ja	 SHORT $LN2@DecomposeT
  00021	0f b6 80 00 00
	00 00		 movzx	 eax, BYTE PTR $LN11@DecomposeT[eax]
  00028	ff 24 85 00 00
	00 00		 jmp	 DWORD PTR $LN12@DecomposeT[eax*4]
$LN10@DecomposeT:
  0002f	2d a2 1e 00 00	 sub	 eax, 7842		; 00001ea2H
  00034	83 f8 57	 cmp	 eax, 87			; 00000057H
  00037	77 40		 ja	 SHORT $LN2@DecomposeT
  00039	0f b6 80 00 00
	00 00		 movzx	 eax, BYTE PTR $LN13@DecomposeT[eax]
  00040	ff 24 85 00 00
	00 00		 jmp	 DWORD PTR $LN14@DecomposeT[eax*4]
$LN4@DecomposeT:

; 389  : 	{
; 390  : 	case 0x00c1:
; 391  : 	case 0x00e1:
; 392  : 	case 0x1eae:
; 393  : 	case 0x1eaf:
; 394  : 	case 0x1ea4:
; 395  : 	case 0x1ea5:
; 396  : 	case 0x00c9:
; 397  : 	case 0x00e9:
; 398  : 	case 0x1ebe:
; 399  : 	case 0x1ebf:
; 400  : 	case 0x00cd:
; 401  : 	case 0x00ed:
; 402  : 	case 0x00d3:
; 403  : 	case 0x00f3:
; 404  : 	case 0x1ed0:
; 405  : 	case 0x1ed1:
; 406  : 	case 0x1eda:
; 407  : 	case 0x1edb:
; 408  : 	case 0x00da:
; 409  : 	case 0x00fa:
; 410  : 	case 0x1ee8:
; 411  : 	case 0x1ee9:
; 412  : 	case 0x00dd:
; 413  : 	case 0x00fd:
; 414  : 		*tone = (char)0xec;

  00047	8b 45 0c	 mov	 eax, DWORD PTR _tone$[ebp]
  0004a	c6 00 ec	 mov	 BYTE PTR [eax], -20	; ffffffecH

; 415  : 		return true;

  0004d	b0 01		 mov	 al, 1

; 523  : }

  0004f	5d		 pop	 ebp
  00050	c3		 ret	 0
$LN5@DecomposeT:

; 416  : 	case 0x00c0:
; 417  : 	case 0x00e0:
; 418  : 	case 0x1eb0:
; 419  : 	case 0x1eb1:
; 420  : 	case 0x1ea6:
; 421  : 	case 0x1ea7:
; 422  : 	case 0x00c8:
; 423  : 	case 0x00e8:
; 424  : 	case 0x1ec0:
; 425  : 	case 0x1ec1:
; 426  : 	case 0x00cc:
; 427  : 	case 0x00ec:
; 428  : 	case 0x00d2:
; 429  : 	case 0x00f2:
; 430  : 	case 0x1ed2:
; 431  : 	case 0x1ed3:
; 432  : 	case 0x1edc:
; 433  : 	case 0x1edd:
; 434  : 	case 0x00d9:
; 435  : 	case 0x00f9:
; 436  : 	case 0x1eea:
; 437  : 	case 0x1eeb:
; 438  : 	case 0x1ef2:
; 439  : 	case 0x1ef3:
; 440  : 		*tone = (char)0xcc;

  00051	8b 45 0c	 mov	 eax, DWORD PTR _tone$[ebp]
  00054	c6 00 cc	 mov	 BYTE PTR [eax], -52	; ffffffccH

; 441  : 		return true;

  00057	b0 01		 mov	 al, 1

; 523  : }

  00059	5d		 pop	 ebp
  0005a	c3		 ret	 0
$LN6@DecomposeT:

; 442  : 	case 0x1ea2:
; 443  : 	case 0x1ea3:
; 444  : 	case 0x1eb2:
; 445  : 	case 0x1eb3:
; 446  : 	case 0x1ea8:
; 447  : 	case 0x1ea9:
; 448  : 	case 0x1eba:
; 449  : 	case 0x1ebb:
; 450  : 	case 0x1ec2:
; 451  : 	case 0x1ec3:
; 452  : 	case 0x1ec8:
; 453  : 	case 0x1ec9:
; 454  : 	case 0x1ece:
; 455  : 	case 0x1ecf:
; 456  : 	case 0x1ed4:
; 457  : 	case 0x1ed5:
; 458  : 	case 0x1ede:
; 459  : 	case 0x1edf:
; 460  : 	case 0x1ee6:
; 461  : 	case 0x1ee7:
; 462  : 	case 0x1eec:
; 463  : 	case 0x1eed:
; 464  : 	case 0x1ef6:
; 465  : 	case 0x1ef7:
; 466  : 		*tone = (char)0xd2;

  0005b	8b 45 0c	 mov	 eax, DWORD PTR _tone$[ebp]
  0005e	c6 00 d2	 mov	 BYTE PTR [eax], -46	; ffffffd2H

; 467  : 		return true;

  00061	b0 01		 mov	 al, 1

; 523  : }

  00063	5d		 pop	 ebp
  00064	c3		 ret	 0
$LN7@DecomposeT:

; 468  : 	case 0x00c3:
; 469  : 	case 0x00e3:
; 470  : 	case 0x1eb4:
; 471  : 	case 0x1eb5:
; 472  : 	case 0x1eaa:
; 473  : 	case 0x1eab:
; 474  : 	case 0x1ebc:
; 475  : 	case 0x1ebd:
; 476  : 	case 0x1ec4:
; 477  : 	case 0x1ec5:
; 478  : 	case 0x0128:
; 479  : 	case 0x0129:
; 480  : 	case 0x00d5:
; 481  : 	case 0x00f5:
; 482  : 	case 0x1ed6:
; 483  : 	case 0x1ed7:
; 484  : 	case 0x1ee0:
; 485  : 	case 0x1ee1:
; 486  : 	case 0x0169:
; 487  : 	case 0x0168:
; 488  : 	case 0x1eee:
; 489  : 	case 0x1eef:
; 490  : 	case 0x1ef8:
; 491  : 	case 0x1ef9:
; 492  : 		*tone = (char)0xde;

  00065	8b 45 0c	 mov	 eax, DWORD PTR _tone$[ebp]
  00068	c6 00 de	 mov	 BYTE PTR [eax], -34	; ffffffdeH

; 493  : 		return true;

  0006b	b0 01		 mov	 al, 1

; 523  : }

  0006d	5d		 pop	 ebp
  0006e	c3		 ret	 0
$LN8@DecomposeT:

; 494  : 	case 0x1ea0:
; 495  : 	case 0x1ea1:
; 496  : 	case 0x1eb6:
; 497  : 	case 0x1eb7:
; 498  : 	case 0x1eac:
; 499  : 	case 0x1ead:
; 500  : 	case 0x1eb8:
; 501  : 	case 0x1eb9:
; 502  : 	case 0x1ec6:
; 503  : 	case 0x1ec7:
; 504  : 	case 0x1eca:
; 505  : 	case 0x1ecb:
; 506  : 	case 0x1ecc:
; 507  : 	case 0x1ecd:
; 508  : 	case 0x1ed8:
; 509  : 	case 0x1ed9:
; 510  : 	case 0x1ee2:
; 511  : 	case 0x1ee3:
; 512  : 	case 0x1ee4:
; 513  : 	case 0x1ee5:
; 514  : 	case 0x1ef0:
; 515  : 	case 0x1ef1:
; 516  : 	case 0x1ef4:
; 517  : 	case 0x1ef5:
; 518  : 		*tone = (char)0xf2;

  0006f	8b 45 0c	 mov	 eax, DWORD PTR _tone$[ebp]
  00072	c6 00 f2	 mov	 BYTE PTR [eax], -14	; fffffff2H

; 519  : 		return true;

  00075	b0 01		 mov	 al, 1

; 523  : }

  00077	5d		 pop	 ebp
  00078	c3		 ret	 0
$LN2@DecomposeT:

; 520  : 	}
; 521  : 
; 522  : 	return false;

  00079	32 c0		 xor	 al, al

; 523  : }

  0007b	5d		 pop	 ebp
  0007c	c3		 ret	 0
  0007d	0f 1f 00	 npad	 3
$LN12@DecomposeT:
  00080	00 00 00 00	 DD	 $LN5@DecomposeT
  00084	00 00 00 00	 DD	 $LN4@DecomposeT
  00088	00 00 00 00	 DD	 $LN7@DecomposeT
  0008c	00 00 00 00	 DD	 $LN2@DecomposeT
$LN11@DecomposeT:
  00090	00		 DB	 0
  00091	01		 DB	 1
  00092	03		 DB	 3
  00093	02		 DB	 2
  00094	03		 DB	 3
  00095	03		 DB	 3
  00096	03		 DB	 3
  00097	03		 DB	 3
  00098	00		 DB	 0
  00099	01		 DB	 1
  0009a	03		 DB	 3
  0009b	03		 DB	 3
  0009c	00		 DB	 0
  0009d	01		 DB	 1
  0009e	03		 DB	 3
  0009f	03		 DB	 3
  000a0	03		 DB	 3
  000a1	03		 DB	 3
  000a2	00		 DB	 0
  000a3	01		 DB	 1
  000a4	03		 DB	 3
  000a5	02		 DB	 2
  000a6	03		 DB	 3
  000a7	03		 DB	 3
  000a8	03		 DB	 3
  000a9	00		 DB	 0
  000aa	01		 DB	 1
  000ab	03		 DB	 3
  000ac	03		 DB	 3
  000ad	01		 DB	 1
  000ae	03		 DB	 3
  000af	03		 DB	 3
  000b0	00		 DB	 0
  000b1	01		 DB	 1
  000b2	03		 DB	 3
  000b3	02		 DB	 2
  000b4	03		 DB	 3
  000b5	03		 DB	 3
  000b6	03		 DB	 3
  000b7	03		 DB	 3
  000b8	00		 DB	 0
  000b9	01		 DB	 1
  000ba	03		 DB	 3
  000bb	03		 DB	 3
  000bc	00		 DB	 0
  000bd	01		 DB	 1
  000be	03		 DB	 3
  000bf	03		 DB	 3
  000c0	03		 DB	 3
  000c1	03		 DB	 3
  000c2	00		 DB	 0
  000c3	01		 DB	 1
  000c4	03		 DB	 3
  000c5	02		 DB	 2
  000c6	03		 DB	 3
  000c7	03		 DB	 3
  000c8	03		 DB	 3
  000c9	00		 DB	 0
  000ca	01		 DB	 1
  000cb	03		 DB	 3
  000cc	03		 DB	 3
  000cd	01		 DB	 1
  000ce	03		 DB	 3
  000cf	03		 DB	 3
  000d0	03		 DB	 3
  000d1	03		 DB	 3
  000d2	03		 DB	 3
  000d3	03		 DB	 3
  000d4	03		 DB	 3
  000d5	03		 DB	 3
  000d6	03		 DB	 3
  000d7	03		 DB	 3
  000d8	03		 DB	 3
  000d9	03		 DB	 3
  000da	03		 DB	 3
  000db	03		 DB	 3
  000dc	03		 DB	 3
  000dd	03		 DB	 3
  000de	03		 DB	 3
  000df	03		 DB	 3
  000e0	03		 DB	 3
  000e1	03		 DB	 3
  000e2	03		 DB	 3
  000e3	03		 DB	 3
  000e4	03		 DB	 3
  000e5	03		 DB	 3
  000e6	03		 DB	 3
  000e7	03		 DB	 3
  000e8	03		 DB	 3
  000e9	03		 DB	 3
  000ea	03		 DB	 3
  000eb	03		 DB	 3
  000ec	03		 DB	 3
  000ed	03		 DB	 3
  000ee	03		 DB	 3
  000ef	03		 DB	 3
  000f0	03		 DB	 3
  000f1	03		 DB	 3
  000f2	03		 DB	 3
  000f3	03		 DB	 3
  000f4	03		 DB	 3
  000f5	03		 DB	 3
  000f6	03		 DB	 3
  000f7	03		 DB	 3
  000f8	02		 DB	 2
  000f9	02		 DB	 2
  000fa	03		 DB	 3
  000fb	03		 DB	 3
  000fc	03		 DB	 3
  000fd	03		 DB	 3
  000fe	03		 DB	 3
  000ff	03		 DB	 3
  00100	03		 DB	 3
  00101	03		 DB	 3
  00102	03		 DB	 3
  00103	03		 DB	 3
  00104	03		 DB	 3
  00105	03		 DB	 3
  00106	03		 DB	 3
  00107	03		 DB	 3
  00108	03		 DB	 3
  00109	03		 DB	 3
  0010a	03		 DB	 3
  0010b	03		 DB	 3
  0010c	03		 DB	 3
  0010d	03		 DB	 3
  0010e	03		 DB	 3
  0010f	03		 DB	 3
  00110	03		 DB	 3
  00111	03		 DB	 3
  00112	03		 DB	 3
  00113	03		 DB	 3
  00114	03		 DB	 3
  00115	03		 DB	 3
  00116	03		 DB	 3
  00117	03		 DB	 3
  00118	03		 DB	 3
  00119	03		 DB	 3
  0011a	03		 DB	 3
  0011b	03		 DB	 3
  0011c	03		 DB	 3
  0011d	03		 DB	 3
  0011e	03		 DB	 3
  0011f	03		 DB	 3
  00120	03		 DB	 3
  00121	03		 DB	 3
  00122	03		 DB	 3
  00123	03		 DB	 3
  00124	03		 DB	 3
  00125	03		 DB	 3
  00126	03		 DB	 3
  00127	03		 DB	 3
  00128	03		 DB	 3
  00129	03		 DB	 3
  0012a	03		 DB	 3
  0012b	03		 DB	 3
  0012c	03		 DB	 3
  0012d	03		 DB	 3
  0012e	03		 DB	 3
  0012f	03		 DB	 3
  00130	03		 DB	 3
  00131	03		 DB	 3
  00132	03		 DB	 3
  00133	03		 DB	 3
  00134	03		 DB	 3
  00135	03		 DB	 3
  00136	03		 DB	 3
  00137	03		 DB	 3
  00138	02		 DB	 2
  00139	02		 DB	 2
  0013a	66 90		 npad	 2
$LN14@DecomposeT:
  0013c	00 00 00 00	 DD	 $LN6@DecomposeT
  00140	00 00 00 00	 DD	 $LN4@DecomposeT
  00144	00 00 00 00	 DD	 $LN5@DecomposeT
  00148	00 00 00 00	 DD	 $LN7@DecomposeT
  0014c	00 00 00 00	 DD	 $LN8@DecomposeT
$LN13@DecomposeT:
  00150	00		 DB	 0
  00151	00		 DB	 0
  00152	01		 DB	 1
  00153	01		 DB	 1
  00154	02		 DB	 2
  00155	02		 DB	 2
  00156	00		 DB	 0
  00157	00		 DB	 0
  00158	03		 DB	 3
  00159	03		 DB	 3
  0015a	04		 DB	 4
  0015b	04		 DB	 4
  0015c	01		 DB	 1
  0015d	01		 DB	 1
  0015e	02		 DB	 2
  0015f	02		 DB	 2
  00160	00		 DB	 0
  00161	00		 DB	 0
  00162	03		 DB	 3
  00163	03		 DB	 3
  00164	04		 DB	 4
  00165	04		 DB	 4
  00166	04		 DB	 4
  00167	04		 DB	 4
  00168	00		 DB	 0
  00169	00		 DB	 0
  0016a	03		 DB	 3
  0016b	03		 DB	 3
  0016c	01		 DB	 1
  0016d	01		 DB	 1
  0016e	02		 DB	 2
  0016f	02		 DB	 2
  00170	00		 DB	 0
  00171	00		 DB	 0
  00172	03		 DB	 3
  00173	03		 DB	 3
  00174	04		 DB	 4
  00175	04		 DB	 4
  00176	00		 DB	 0
  00177	00		 DB	 0
  00178	04		 DB	 4
  00179	04		 DB	 4
  0017a	04		 DB	 4
  0017b	04		 DB	 4
  0017c	00		 DB	 0
  0017d	00		 DB	 0
  0017e	01		 DB	 1
  0017f	01		 DB	 1
  00180	02		 DB	 2
  00181	02		 DB	 2
  00182	00		 DB	 0
  00183	00		 DB	 0
  00184	03		 DB	 3
  00185	03		 DB	 3
  00186	04		 DB	 4
  00187	04		 DB	 4
  00188	01		 DB	 1
  00189	01		 DB	 1
  0018a	02		 DB	 2
  0018b	02		 DB	 2
  0018c	00		 DB	 0
  0018d	00		 DB	 0
  0018e	03		 DB	 3
  0018f	03		 DB	 3
  00190	04		 DB	 4
  00191	04		 DB	 4
  00192	04		 DB	 4
  00193	04		 DB	 4
  00194	00		 DB	 0
  00195	00		 DB	 0
  00196	01		 DB	 1
  00197	01		 DB	 1
  00198	02		 DB	 2
  00199	02		 DB	 2
  0019a	00		 DB	 0
  0019b	00		 DB	 0
  0019c	03		 DB	 3
  0019d	03		 DB	 3
  0019e	04		 DB	 4
  0019f	04		 DB	 4
  001a0	02		 DB	 2
  001a1	02		 DB	 2
  001a2	04		 DB	 4
  001a3	04		 DB	 4
  001a4	00		 DB	 0
  001a5	00		 DB	 0
  001a6	03		 DB	 3
  001a7	03		 DB	 3
?DecomposeTone@@YA_N_WPAD@Z ENDP			; DecomposeTone
_TEXT	ENDS
; Function compile flags: /Ogtp
; File C:\DS Project\DS Files\Source\ClientSource\Client\EterLocale\StringCodec_Vietnamese.cpp
;	COMDAT ?DecomposeLetter@@YA_N_WPAD@Z
_TEXT	SEGMENT
_input$ = 8						; size = 2
_letter$ = 12						; size = 4
?DecomposeLetter@@YA_N_WPAD@Z PROC			; DecomposeLetter, COMDAT

; 172  : {

  00000	55		 push	 ebp
  00001	8b ec		 mov	 ebp, esp

; 173  : 	switch(input)

  00003	66 8b 4d 08	 mov	 cx, WORD PTR _input$[ebp]
  00007	0f b7 c1	 movzx	 eax, cx
  0000a	3d a0 1e 00 00	 cmp	 eax, 7840		; 00001ea0H
  0000f	77 34		 ja	 SHORT $LN41@DecomposeL
  00011	74 5f		 je	 SHORT $LN4@DecomposeL
  00013	2d c0 00 00 00	 sub	 eax, 192		; 000000c0H
  00018	3d f0 00 00 00	 cmp	 eax, 240		; 000000f0H
  0001d	0f 87 4d 01 00
	00		 ja	 $LN2@DecomposeL
  00023	0f b6 80 00 00
	00 00		 movzx	 eax, BYTE PTR $LN43@DecomposeL[eax]
  0002a	ff 24 85 00 00
	00 00		 jmp	 DWORD PTR $LN44@DecomposeL[eax*4]
$LN30@DecomposeL:

; 342  : 		return true;
; 343  : 	case 0x0102:
; 344  : 		*letter = (char)0xc3;
; 345  : 		return true;
; 346  : 	case 0x0103:
; 347  : 		*letter = (char)0xe3;
; 348  : 		return true;
; 349  : 	case 0x0110:
; 350  : 		*letter = (char)0xd0;

  00031	8b 45 0c	 mov	 eax, DWORD PTR _letter$[ebp]
  00034	c6 00 d0	 mov	 BYTE PTR [eax], -48	; ffffffd0H

; 384  : }

  00037	b0 01		 mov	 al, 1
  00039	5d		 pop	 ebp
  0003a	c3		 ret	 0
$LN31@DecomposeL:

; 351  : 		return true;
; 352  : 	case 0x0111:
; 353  : 		*letter = (char)0xf0;

  0003b	8b 45 0c	 mov	 eax, DWORD PTR _letter$[ebp]
  0003e	c6 00 f0	 mov	 BYTE PTR [eax], -16	; fffffff0H

; 384  : }

  00041	b0 01		 mov	 al, 1
  00043	5d		 pop	 ebp
  00044	c3		 ret	 0
$LN41@DecomposeL:

; 173  : 	switch(input)

  00045	3d 1c 20 00 00	 cmp	 eax, 8220		; 0000201cH
  0004a	0f 87 12 01 00
	00		 ja	 $LN42@DecomposeL
  00050	0f 84 3b 01 00
	00		 je	 $LN38@DecomposeL
  00056	2d a1 1e 00 00	 sub	 eax, 7841		; 00001ea1H
  0005b	83 f8 58	 cmp	 eax, 88			; 00000058H
  0005e	0f 87 0c 01 00
	00		 ja	 $LN2@DecomposeL
  00064	0f b6 80 00 00
	00 00		 movzx	 eax, BYTE PTR $LN45@DecomposeL[eax]
  0006b	ff 24 85 00 00
	00 00		 jmp	 DWORD PTR $LN46@DecomposeL[eax*4]
$LN4@DecomposeL:

; 174  : 	{
; 175  : 	case 0x00c1:
; 176  : 	case 0x00c0:
; 177  : 	case 0x1ea2:
; 178  : 	case 0x00c3:
; 179  : 	case 0x1ea0:
; 180  : 		*letter = 'A';

  00072	8b 45 0c	 mov	 eax, DWORD PTR _letter$[ebp]
  00075	c6 00 41	 mov	 BYTE PTR [eax], 65	; 00000041H

; 384  : }

  00078	b0 01		 mov	 al, 1
  0007a	5d		 pop	 ebp
  0007b	c3		 ret	 0
$LN5@DecomposeL:

; 181  : 		return true;
; 182  : 	case 0x00e1:
; 183  : 	case 0x00e0:
; 184  : 	case 0x1ea3:
; 185  : 	case 0x00e3:
; 186  : 	case 0x1ea1:
; 187  : 		*letter = 'a';

  0007c	8b 45 0c	 mov	 eax, DWORD PTR _letter$[ebp]
  0007f	c6 00 61	 mov	 BYTE PTR [eax], 97	; 00000061H

; 384  : }

  00082	b0 01		 mov	 al, 1
  00084	5d		 pop	 ebp
  00085	c3		 ret	 0
$LN6@DecomposeL:

; 188  : 		return true;
; 189  : 	case 0x1eae:
; 190  : 	case 0x1eb0:
; 191  : 	case 0x1eb2:
; 192  : 	case 0x1eb4:
; 193  : 	case 0x1eb6:
; 194  : 		*letter = (char)0xc3;

  00086	8b 45 0c	 mov	 eax, DWORD PTR _letter$[ebp]
  00089	c6 00 c3	 mov	 BYTE PTR [eax], -61	; ffffffc3H

; 384  : }

  0008c	b0 01		 mov	 al, 1
  0008e	5d		 pop	 ebp
  0008f	c3		 ret	 0
$LN7@DecomposeL:

; 195  : 		return true;
; 196  : 	case 0x1eaf:
; 197  : 	case 0x1eb1:
; 198  : 	case 0x1eb3:
; 199  : 	case 0x1eb5:
; 200  : 	case 0x1eb7:
; 201  : 		*letter = (char)0xe3;

  00090	8b 45 0c	 mov	 eax, DWORD PTR _letter$[ebp]
  00093	c6 00 e3	 mov	 BYTE PTR [eax], -29	; ffffffe3H

; 384  : }

  00096	b0 01		 mov	 al, 1
  00098	5d		 pop	 ebp
  00099	c3		 ret	 0
$LN8@DecomposeL:

; 202  : 		return true;
; 203  : 	case 0x1ea4:
; 204  : 	case 0x1ea6:
; 205  : 	case 0x1ea8:
; 206  : 	case 0x1eaa:
; 207  : 	case 0x1eac:
; 208  : 		*letter = (char)0xc2;

  0009a	8b 45 0c	 mov	 eax, DWORD PTR _letter$[ebp]
  0009d	c6 00 c2	 mov	 BYTE PTR [eax], -62	; ffffffc2H

; 384  : }

  000a0	b0 01		 mov	 al, 1
  000a2	5d		 pop	 ebp
  000a3	c3		 ret	 0
$LN9@DecomposeL:

; 209  : 		return true;
; 210  : 	case 0x1ea5:
; 211  : 	case 0x1ea7:
; 212  : 	case 0x1ea9:
; 213  : 	case 0x1eab:
; 214  : 	case 0x1ead:
; 215  : 		*letter = (char)0xe2;

  000a4	8b 45 0c	 mov	 eax, DWORD PTR _letter$[ebp]
  000a7	c6 00 e2	 mov	 BYTE PTR [eax], -30	; ffffffe2H

; 384  : }

  000aa	b0 01		 mov	 al, 1
  000ac	5d		 pop	 ebp
  000ad	c3		 ret	 0
$LN10@DecomposeL:

; 216  : 		return true;
; 217  : 	case 0x00c9:
; 218  : 	case 0x00c8:
; 219  : 	case 0x1eba:
; 220  : 	case 0x1ebc:
; 221  : 	case 0x1eb8:
; 222  : 		*letter = (char)'E';

  000ae	8b 45 0c	 mov	 eax, DWORD PTR _letter$[ebp]
  000b1	c6 00 45	 mov	 BYTE PTR [eax], 69	; 00000045H

; 384  : }

  000b4	b0 01		 mov	 al, 1
  000b6	5d		 pop	 ebp
  000b7	c3		 ret	 0
$LN11@DecomposeL:

; 223  : 		return true;
; 224  : 	case 0x00e9:
; 225  : 	case 0x00e8:
; 226  : 	case 0x1ebb:
; 227  : 	case 0x1ebd:
; 228  : 	case 0x1eb9:
; 229  : 		*letter = (char)'e';

  000b8	8b 45 0c	 mov	 eax, DWORD PTR _letter$[ebp]
  000bb	c6 00 65	 mov	 BYTE PTR [eax], 101	; 00000065H

; 384  : }

  000be	b0 01		 mov	 al, 1
  000c0	5d		 pop	 ebp
  000c1	c3		 ret	 0
$LN12@DecomposeL:

; 230  : 		return true;
; 231  : 	case 0x1ebe:
; 232  : 	case 0x1ec0:
; 233  : 	case 0x1ec2:
; 234  : 	case 0x1ec4:
; 235  : 	case 0x1ec6:
; 236  : 		*letter = (char)0xca;

  000c2	8b 45 0c	 mov	 eax, DWORD PTR _letter$[ebp]
  000c5	c6 00 ca	 mov	 BYTE PTR [eax], -54	; ffffffcaH

; 384  : }

  000c8	b0 01		 mov	 al, 1
  000ca	5d		 pop	 ebp
  000cb	c3		 ret	 0
$LN13@DecomposeL:

; 237  : 		return true;
; 238  : 	case 0x1ebf:
; 239  : 	case 0x1ec1:
; 240  : 	case 0x1ec3:
; 241  : 	case 0x1ec5:
; 242  : 	case 0x1ec7:
; 243  : 		*letter = (char)0xea;

  000cc	8b 45 0c	 mov	 eax, DWORD PTR _letter$[ebp]
  000cf	c6 00 ea	 mov	 BYTE PTR [eax], -22	; ffffffeaH

; 384  : }

  000d2	b0 01		 mov	 al, 1
  000d4	5d		 pop	 ebp
  000d5	c3		 ret	 0
$LN14@DecomposeL:

; 244  : 		return true;
; 245  : 	case 0x00cd:
; 246  : 	case 0x00cc:
; 247  : 	case 0x1ec8:
; 248  : 	case 0x0128:
; 249  : 	case 0x1eca:
; 250  : 		*letter = (char)'I';

  000d6	8b 45 0c	 mov	 eax, DWORD PTR _letter$[ebp]
  000d9	c6 00 49	 mov	 BYTE PTR [eax], 73	; 00000049H

; 384  : }

  000dc	b0 01		 mov	 al, 1
  000de	5d		 pop	 ebp
  000df	c3		 ret	 0
$LN15@DecomposeL:

; 251  : 		return true;
; 252  : 	case 0x00ed:
; 253  : 	case 0x00ec:
; 254  : 	case 0x1ec9:
; 255  : 	case 0x0129:
; 256  : 	case 0x1ecb:
; 257  : 		*letter = (char)'i';

  000e0	8b 45 0c	 mov	 eax, DWORD PTR _letter$[ebp]
  000e3	c6 00 69	 mov	 BYTE PTR [eax], 105	; 00000069H

; 384  : }

  000e6	b0 01		 mov	 al, 1
  000e8	5d		 pop	 ebp
  000e9	c3		 ret	 0
$LN16@DecomposeL:

; 258  : 		return true;
; 259  : 	case 0x00d3:
; 260  : 	case 0x00d2:
; 261  : 	case 0x1ece:
; 262  : 	case 0x00d5:
; 263  : 	case 0x1ecc:
; 264  : 		*letter = (char)'O';

  000ea	8b 45 0c	 mov	 eax, DWORD PTR _letter$[ebp]
  000ed	c6 00 4f	 mov	 BYTE PTR [eax], 79	; 0000004fH

; 384  : }

  000f0	b0 01		 mov	 al, 1
  000f2	5d		 pop	 ebp
  000f3	c3		 ret	 0
$LN17@DecomposeL:

; 265  : 		return true;
; 266  : 	case 0x00f3:
; 267  : 	case 0x00f2:
; 268  : 	case 0x1ecf:
; 269  : 	case 0x00f5:
; 270  : 	case 0x1ecd:
; 271  : 		*letter = (char)'o';

  000f4	8b 45 0c	 mov	 eax, DWORD PTR _letter$[ebp]
  000f7	c6 00 6f	 mov	 BYTE PTR [eax], 111	; 0000006fH

; 384  : }

  000fa	b0 01		 mov	 al, 1
  000fc	5d		 pop	 ebp
  000fd	c3		 ret	 0
$LN18@DecomposeL:

; 272  : 		return true;
; 273  : 	case 0x1ed0:
; 274  : 	case 0x1ed2:
; 275  : 	case 0x1ed4:
; 276  : 	case 0x1ed6:
; 277  : 	case 0x1ed8:
; 278  : 		*letter = (char)0xd4;

  000fe	8b 45 0c	 mov	 eax, DWORD PTR _letter$[ebp]
  00101	c6 00 d4	 mov	 BYTE PTR [eax], -44	; ffffffd4H

; 384  : }

  00104	b0 01		 mov	 al, 1
  00106	5d		 pop	 ebp
  00107	c3		 ret	 0
$LN19@DecomposeL:

; 279  : 		return true;
; 280  : 	case 0x1ed1:
; 281  : 	case 0x1ed3:
; 282  : 	case 0x1ed5:
; 283  : 	case 0x1ed7:
; 284  : 	case 0x1ed9:
; 285  : 		*letter = (char)0xf4;

  00108	8b 45 0c	 mov	 eax, DWORD PTR _letter$[ebp]
  0010b	c6 00 f4	 mov	 BYTE PTR [eax], -12	; fffffff4H

; 384  : }

  0010e	b0 01		 mov	 al, 1
  00110	5d		 pop	 ebp
  00111	c3		 ret	 0
$LN20@DecomposeL:

; 286  : 		return true;
; 287  : 	case 0x1eda:
; 288  : 	case 0x1edc:
; 289  : 	case 0x1ede:
; 290  : 	case 0x1ee0:
; 291  : 	case 0x1ee2:
; 292  : 		*letter = (char)0xd5;

  00112	8b 45 0c	 mov	 eax, DWORD PTR _letter$[ebp]
  00115	c6 00 d5	 mov	 BYTE PTR [eax], -43	; ffffffd5H

; 384  : }

  00118	b0 01		 mov	 al, 1
  0011a	5d		 pop	 ebp
  0011b	c3		 ret	 0
$LN21@DecomposeL:

; 293  : 		return true;
; 294  : 	case 0x1edb:
; 295  : 	case 0x1edd:
; 296  : 	case 0x1edf:
; 297  : 	case 0x1ee1:
; 298  : 	case 0x1ee3:
; 299  : 		*letter = (char)0xf5;

  0011c	8b 45 0c	 mov	 eax, DWORD PTR _letter$[ebp]
  0011f	c6 00 f5	 mov	 BYTE PTR [eax], -11	; fffffff5H

; 384  : }

  00122	b0 01		 mov	 al, 1
  00124	5d		 pop	 ebp
  00125	c3		 ret	 0
$LN22@DecomposeL:

; 300  : 		return true;
; 301  : 	case 0x00da:
; 302  : 	case 0x00d9:
; 303  : 	case 0x1ee6:
; 304  : 	case 0x0168:
; 305  : 	case 0x1ee4:
; 306  : 		*letter = (char)'U';

  00126	8b 45 0c	 mov	 eax, DWORD PTR _letter$[ebp]
  00129	c6 00 55	 mov	 BYTE PTR [eax], 85	; 00000055H

; 384  : }

  0012c	b0 01		 mov	 al, 1
  0012e	5d		 pop	 ebp
  0012f	c3		 ret	 0
$LN23@DecomposeL:

; 307  : 		return true;
; 308  : 	case 0x00fa:
; 309  : 	case 0x00f9:
; 310  : 	case 0x1ee7:
; 311  : 	case 0x0169:
; 312  : 	case 0x1ee5:
; 313  : 		*letter = (char)'u';

  00130	8b 45 0c	 mov	 eax, DWORD PTR _letter$[ebp]
  00133	c6 00 75	 mov	 BYTE PTR [eax], 117	; 00000075H

; 384  : }

  00136	b0 01		 mov	 al, 1
  00138	5d		 pop	 ebp
  00139	c3		 ret	 0
$LN24@DecomposeL:

; 314  : 		return true;
; 315  : 	case 0x1ee8:
; 316  : 	case 0x1eea:
; 317  : 	case 0x1eec:
; 318  : 	case 0x1eee:
; 319  : 	case 0x1ef0:
; 320  : 		*letter = (char)0xdd;

  0013a	8b 45 0c	 mov	 eax, DWORD PTR _letter$[ebp]
  0013d	c6 00 dd	 mov	 BYTE PTR [eax], -35	; ffffffddH

; 384  : }

  00140	b0 01		 mov	 al, 1
  00142	5d		 pop	 ebp
  00143	c3		 ret	 0
$LN25@DecomposeL:

; 321  : 		return true;
; 322  : 	case 0x1ee9:
; 323  : 	case 0x1eeb:
; 324  : 	case 0x1eed:
; 325  : 	case 0x1eef:
; 326  : 	case 0x1ef1:
; 327  : 		*letter = (char)0xfd;

  00144	8b 45 0c	 mov	 eax, DWORD PTR _letter$[ebp]
  00147	c6 00 fd	 mov	 BYTE PTR [eax], -3	; fffffffdH

; 384  : }

  0014a	b0 01		 mov	 al, 1
  0014c	5d		 pop	 ebp
  0014d	c3		 ret	 0
$LN26@DecomposeL:

; 328  : 		return true;
; 329  : 	case 0x1ef2:
; 330  : 	case 0x00dd:
; 331  : 	case 0x1ef6:
; 332  : 	case 0x1ef8:
; 333  : 	case 0x1ef4:
; 334  : 		*letter = (char)'Y';

  0014e	8b 45 0c	 mov	 eax, DWORD PTR _letter$[ebp]
  00151	c6 00 59	 mov	 BYTE PTR [eax], 89	; 00000059H

; 384  : }

  00154	b0 01		 mov	 al, 1
  00156	5d		 pop	 ebp
  00157	c3		 ret	 0
$LN27@DecomposeL:

; 335  : 		return true;
; 336  : 	case 0x1ef3:
; 337  : 	case 0x00fd:
; 338  : 	case 0x1ef7:
; 339  : 	case 0x1ef9:
; 340  : 	case 0x1ef5:
; 341  : 		*letter = (char)'y';

  00158	8b 45 0c	 mov	 eax, DWORD PTR _letter$[ebp]
  0015b	c6 00 79	 mov	 BYTE PTR [eax], 121	; 00000079H

; 384  : }

  0015e	b0 01		 mov	 al, 1
  00160	5d		 pop	 ebp
  00161	c3		 ret	 0
$LN42@DecomposeL:

; 173  : 	switch(input)

  00162	3d 1d 20 00 00	 cmp	 eax, 8221		; 0000201dH
  00167	74 28		 je	 SHORT $LN38@DecomposeL
  00169	3d ab 20 00 00	 cmp	 eax, 8363		; 000020abH
  0016e	74 17		 je	 SHORT $LN36@DecomposeL
$LN2@DecomposeL:

; 375  : 		return true;
; 376  : 	}
; 377  : 
; 378  : 	if(input < 256)

  00170	b8 00 01 00 00	 mov	 eax, 256		; 00000100H
  00175	66 3b c8	 cmp	 cx, ax
  00178	73 09		 jae	 SHORT $LN39@DecomposeL

; 379  : 	{
; 380  : 		*letter = (char)input;

  0017a	8b 45 0c	 mov	 eax, DWORD PTR _letter$[ebp]
  0017d	88 08		 mov	 BYTE PTR [eax], cl

; 384  : }

  0017f	b0 01		 mov	 al, 1
  00181	5d		 pop	 ebp
  00182	c3		 ret	 0
$LN39@DecomposeL:

; 381  : 		return true;
; 382  : 	}
; 383  :     return false;

  00183	32 c0		 xor	 al, al

; 384  : }

  00185	5d		 pop	 ebp
  00186	c3		 ret	 0
$LN36@DecomposeL:

; 354  : 		return true;
; 355  : 	case 0x01a0:
; 356  : 		*letter = (char)0xd5;
; 357  : 		return true;
; 358  : 	case 0x01a1:
; 359  : 		*letter = (char)0xf5;
; 360  : 		return true;
; 361  : 	case 0x01af:
; 362  : 		*letter = (char)0xdd;
; 363  : 		return true;
; 364  : 	case 0x01b0:
; 365  : 		*letter = (char)0xfd;
; 366  : 		return true;
; 367  : 	case 0x20ab:
; 368  : 		*letter = (char)0xfe;

  00187	8b 45 0c	 mov	 eax, DWORD PTR _letter$[ebp]
  0018a	c6 00 fe	 mov	 BYTE PTR [eax], -2	; fffffffeH

; 384  : }

  0018d	b0 01		 mov	 al, 1
  0018f	5d		 pop	 ebp
  00190	c3		 ret	 0
$LN38@DecomposeL:

; 369  : 		return true;
; 370  : 	case 0x201c:
; 371  : 		*letter = (char)'"';
; 372  : 		return true;
; 373  : 	case 0x201d:
; 374  : 		*letter = (char)'"';

  00191	8b 45 0c	 mov	 eax, DWORD PTR _letter$[ebp]
  00194	c6 00 22	 mov	 BYTE PTR [eax], 34	; 00000022H

; 384  : }

  00197	b0 01		 mov	 al, 1
  00199	5d		 pop	 ebp
  0019a	c3		 ret	 0
  0019b	90		 npad	 1
$LN44@DecomposeL:
  0019c	00 00 00 00	 DD	 $LN4@DecomposeL
  001a0	00 00 00 00	 DD	 $LN10@DecomposeL
  001a4	00 00 00 00	 DD	 $LN14@DecomposeL
  001a8	00 00 00 00	 DD	 $LN16@DecomposeL
  001ac	00 00 00 00	 DD	 $LN22@DecomposeL
  001b0	00 00 00 00	 DD	 $LN26@DecomposeL
  001b4	00 00 00 00	 DD	 $LN5@DecomposeL
  001b8	00 00 00 00	 DD	 $LN11@DecomposeL
  001bc	00 00 00 00	 DD	 $LN15@DecomposeL
  001c0	00 00 00 00	 DD	 $LN17@DecomposeL
  001c4	00 00 00 00	 DD	 $LN23@DecomposeL
  001c8	00 00 00 00	 DD	 $LN27@DecomposeL
  001cc	00 00 00 00	 DD	 $LN6@DecomposeL
  001d0	00 00 00 00	 DD	 $LN7@DecomposeL
  001d4	00 00 00 00	 DD	 $LN30@DecomposeL
  001d8	00 00 00 00	 DD	 $LN31@DecomposeL
  001dc	00 00 00 00	 DD	 $LN20@DecomposeL
  001e0	00 00 00 00	 DD	 $LN21@DecomposeL
  001e4	00 00 00 00	 DD	 $LN24@DecomposeL
  001e8	00 00 00 00	 DD	 $LN25@DecomposeL
  001ec	00 00 00 00	 DD	 $LN2@DecomposeL
$LN43@DecomposeL:
  001f0	00		 DB	 0
  001f1	00		 DB	 0
  001f2	14		 DB	 20			; 00000014H
  001f3	00		 DB	 0
  001f4	14		 DB	 20			; 00000014H
  001f5	14		 DB	 20			; 00000014H
  001f6	14		 DB	 20			; 00000014H
  001f7	14		 DB	 20			; 00000014H
  001f8	01		 DB	 1
  001f9	01		 DB	 1
  001fa	14		 DB	 20			; 00000014H
  001fb	14		 DB	 20			; 00000014H
  001fc	02		 DB	 2
  001fd	02		 DB	 2
  001fe	14		 DB	 20			; 00000014H
  001ff	14		 DB	 20			; 00000014H
  00200	14		 DB	 20			; 00000014H
  00201	14		 DB	 20			; 00000014H
  00202	03		 DB	 3
  00203	03		 DB	 3
  00204	14		 DB	 20			; 00000014H
  00205	03		 DB	 3
  00206	14		 DB	 20			; 00000014H
  00207	14		 DB	 20			; 00000014H
  00208	14		 DB	 20			; 00000014H
  00209	04		 DB	 4
  0020a	04		 DB	 4
  0020b	14		 DB	 20			; 00000014H
  0020c	14		 DB	 20			; 00000014H
  0020d	05		 DB	 5
  0020e	14		 DB	 20			; 00000014H
  0020f	14		 DB	 20			; 00000014H
  00210	06		 DB	 6
  00211	06		 DB	 6
  00212	14		 DB	 20			; 00000014H
  00213	06		 DB	 6
  00214	14		 DB	 20			; 00000014H
  00215	14		 DB	 20			; 00000014H
  00216	14		 DB	 20			; 00000014H
  00217	14		 DB	 20			; 00000014H
  00218	07		 DB	 7
  00219	07		 DB	 7
  0021a	14		 DB	 20			; 00000014H
  0021b	14		 DB	 20			; 00000014H
  0021c	08		 DB	 8
  0021d	08		 DB	 8
  0021e	14		 DB	 20			; 00000014H
  0021f	14		 DB	 20			; 00000014H
  00220	14		 DB	 20			; 00000014H
  00221	14		 DB	 20			; 00000014H
  00222	09		 DB	 9
  00223	09		 DB	 9
  00224	14		 DB	 20			; 00000014H
  00225	09		 DB	 9
  00226	14		 DB	 20			; 00000014H
  00227	14		 DB	 20			; 00000014H
  00228	14		 DB	 20			; 00000014H
  00229	0a		 DB	 10			; 0000000aH
  0022a	0a		 DB	 10			; 0000000aH
  0022b	14		 DB	 20			; 00000014H
  0022c	14		 DB	 20			; 00000014H
  0022d	0b		 DB	 11			; 0000000bH
  0022e	14		 DB	 20			; 00000014H
  0022f	14		 DB	 20			; 00000014H
  00230	14		 DB	 20			; 00000014H
  00231	14		 DB	 20			; 00000014H
  00232	0c		 DB	 12			; 0000000cH
  00233	0d		 DB	 13			; 0000000dH
  00234	14		 DB	 20			; 00000014H
  00235	14		 DB	 20			; 00000014H
  00236	14		 DB	 20			; 00000014H
  00237	14		 DB	 20			; 00000014H
  00238	14		 DB	 20			; 00000014H
  00239	14		 DB	 20			; 00000014H
  0023a	14		 DB	 20			; 00000014H
  0023b	14		 DB	 20			; 00000014H
  0023c	14		 DB	 20			; 00000014H
  0023d	14		 DB	 20			; 00000014H
  0023e	14		 DB	 20			; 00000014H
  0023f	14		 DB	 20			; 00000014H
  00240	0e		 DB	 14			; 0000000eH
  00241	0f		 DB	 15			; 0000000fH
  00242	14		 DB	 20			; 00000014H
  00243	14		 DB	 20			; 00000014H
  00244	14		 DB	 20			; 00000014H
  00245	14		 DB	 20			; 00000014H
  00246	14		 DB	 20			; 00000014H
  00247	14		 DB	 20			; 00000014H
  00248	14		 DB	 20			; 00000014H
  00249	14		 DB	 20			; 00000014H
  0024a	14		 DB	 20			; 00000014H
  0024b	14		 DB	 20			; 00000014H
  0024c	14		 DB	 20			; 00000014H
  0024d	14		 DB	 20			; 00000014H
  0024e	14		 DB	 20			; 00000014H
  0024f	14		 DB	 20			; 00000014H
  00250	14		 DB	 20			; 00000014H
  00251	14		 DB	 20			; 00000014H
  00252	14		 DB	 20			; 00000014H
  00253	14		 DB	 20			; 00000014H
  00254	14		 DB	 20			; 00000014H
  00255	14		 DB	 20			; 00000014H
  00256	14		 DB	 20			; 00000014H
  00257	14		 DB	 20			; 00000014H
  00258	02		 DB	 2
  00259	08		 DB	 8
  0025a	14		 DB	 20			; 00000014H
  0025b	14		 DB	 20			; 00000014H
  0025c	14		 DB	 20			; 00000014H
  0025d	14		 DB	 20			; 00000014H
  0025e	14		 DB	 20			; 00000014H
  0025f	14		 DB	 20			; 00000014H
  00260	14		 DB	 20			; 00000014H
  00261	14		 DB	 20			; 00000014H
  00262	14		 DB	 20			; 00000014H
  00263	14		 DB	 20			; 00000014H
  00264	14		 DB	 20			; 00000014H
  00265	14		 DB	 20			; 00000014H
  00266	14		 DB	 20			; 00000014H
  00267	14		 DB	 20			; 00000014H
  00268	14		 DB	 20			; 00000014H
  00269	14		 DB	 20			; 00000014H
  0026a	14		 DB	 20			; 00000014H
  0026b	14		 DB	 20			; 00000014H
  0026c	14		 DB	 20			; 00000014H
  0026d	14		 DB	 20			; 00000014H
  0026e	14		 DB	 20			; 00000014H
  0026f	14		 DB	 20			; 00000014H
  00270	14		 DB	 20			; 00000014H
  00271	14		 DB	 20			; 00000014H
  00272	14		 DB	 20			; 00000014H
  00273	14		 DB	 20			; 00000014H
  00274	14		 DB	 20			; 00000014H
  00275	14		 DB	 20			; 00000014H
  00276	14		 DB	 20			; 00000014H
  00277	14		 DB	 20			; 00000014H
  00278	14		 DB	 20			; 00000014H
  00279	14		 DB	 20			; 00000014H
  0027a	14		 DB	 20			; 00000014H
  0027b	14		 DB	 20			; 00000014H
  0027c	14		 DB	 20			; 00000014H
  0027d	14		 DB	 20			; 00000014H
  0027e	14		 DB	 20			; 00000014H
  0027f	14		 DB	 20			; 00000014H
  00280	14		 DB	 20			; 00000014H
  00281	14		 DB	 20			; 00000014H
  00282	14		 DB	 20			; 00000014H
  00283	14		 DB	 20			; 00000014H
  00284	14		 DB	 20			; 00000014H
  00285	14		 DB	 20			; 00000014H
  00286	14		 DB	 20			; 00000014H
  00287	14		 DB	 20			; 00000014H
  00288	14		 DB	 20			; 00000014H
  00289	14		 DB	 20			; 00000014H
  0028a	14		 DB	 20			; 00000014H
  0028b	14		 DB	 20			; 00000014H
  0028c	14		 DB	 20			; 00000014H
  0028d	14		 DB	 20			; 00000014H
  0028e	14		 DB	 20			; 00000014H
  0028f	14		 DB	 20			; 00000014H
  00290	14		 DB	 20			; 00000014H
  00291	14		 DB	 20			; 00000014H
  00292	14		 DB	 20			; 00000014H
  00293	14		 DB	 20			; 00000014H
  00294	14		 DB	 20			; 00000014H
  00295	14		 DB	 20			; 00000014H
  00296	14		 DB	 20			; 00000014H
  00297	14		 DB	 20			; 00000014H
  00298	04		 DB	 4
  00299	0a		 DB	 10			; 0000000aH
  0029a	14		 DB	 20			; 00000014H
  0029b	14		 DB	 20			; 00000014H
  0029c	14		 DB	 20			; 00000014H
  0029d	14		 DB	 20			; 00000014H
  0029e	14		 DB	 20			; 00000014H
  0029f	14		 DB	 20			; 00000014H
  002a0	14		 DB	 20			; 00000014H
  002a1	14		 DB	 20			; 00000014H
  002a2	14		 DB	 20			; 00000014H
  002a3	14		 DB	 20			; 00000014H
  002a4	14		 DB	 20			; 00000014H
  002a5	14		 DB	 20			; 00000014H
  002a6	14		 DB	 20			; 00000014H
  002a7	14		 DB	 20			; 00000014H
  002a8	14		 DB	 20			; 00000014H
  002a9	14		 DB	 20			; 00000014H
  002aa	14		 DB	 20			; 00000014H
  002ab	14		 DB	 20			; 00000014H
  002ac	14		 DB	 20			; 00000014H
  002ad	14		 DB	 20			; 00000014H
  002ae	14		 DB	 20			; 00000014H
  002af	14		 DB	 20			; 00000014H
  002b0	14		 DB	 20			; 00000014H
  002b1	14		 DB	 20			; 00000014H
  002b2	14		 DB	 20			; 00000014H
  002b3	14		 DB	 20			; 00000014H
  002b4	14		 DB	 20			; 00000014H
  002b5	14		 DB	 20			; 00000014H
  002b6	14		 DB	 20			; 00000014H
  002b7	14		 DB	 20			; 00000014H
  002b8	14		 DB	 20			; 00000014H
  002b9	14		 DB	 20			; 00000014H
  002ba	14		 DB	 20			; 00000014H
  002bb	14		 DB	 20			; 00000014H
  002bc	14		 DB	 20			; 00000014H
  002bd	14		 DB	 20			; 00000014H
  002be	14		 DB	 20			; 00000014H
  002bf	14		 DB	 20			; 00000014H
  002c0	14		 DB	 20			; 00000014H
  002c1	14		 DB	 20			; 00000014H
  002c2	14		 DB	 20			; 00000014H
  002c3	14		 DB	 20			; 00000014H
  002c4	14		 DB	 20			; 00000014H
  002c5	14		 DB	 20			; 00000014H
  002c6	14		 DB	 20			; 00000014H
  002c7	14		 DB	 20			; 00000014H
  002c8	14		 DB	 20			; 00000014H
  002c9	14		 DB	 20			; 00000014H
  002ca	14		 DB	 20			; 00000014H
  002cb	14		 DB	 20			; 00000014H
  002cc	14		 DB	 20			; 00000014H
  002cd	14		 DB	 20			; 00000014H
  002ce	14		 DB	 20			; 00000014H
  002cf	14		 DB	 20			; 00000014H
  002d0	10		 DB	 16			; 00000010H
  002d1	11		 DB	 17			; 00000011H
  002d2	14		 DB	 20			; 00000014H
  002d3	14		 DB	 20			; 00000014H
  002d4	14		 DB	 20			; 00000014H
  002d5	14		 DB	 20			; 00000014H
  002d6	14		 DB	 20			; 00000014H
  002d7	14		 DB	 20			; 00000014H
  002d8	14		 DB	 20			; 00000014H
  002d9	14		 DB	 20			; 00000014H
  002da	14		 DB	 20			; 00000014H
  002db	14		 DB	 20			; 00000014H
  002dc	14		 DB	 20			; 00000014H
  002dd	14		 DB	 20			; 00000014H
  002de	14		 DB	 20			; 00000014H
  002df	12		 DB	 18			; 00000012H
  002e0	13		 DB	 19			; 00000013H
  002e1	0f 1f 00	 npad	 3
$LN46@DecomposeL:
  002e4	00 00 00 00	 DD	 $LN5@DecomposeL
  002e8	00 00 00 00	 DD	 $LN4@DecomposeL
  002ec	00 00 00 00	 DD	 $LN8@DecomposeL
  002f0	00 00 00 00	 DD	 $LN9@DecomposeL
  002f4	00 00 00 00	 DD	 $LN6@DecomposeL
  002f8	00 00 00 00	 DD	 $LN7@DecomposeL
  002fc	00 00 00 00	 DD	 $LN10@DecomposeL
  00300	00 00 00 00	 DD	 $LN11@DecomposeL
  00304	00 00 00 00	 DD	 $LN12@DecomposeL
  00308	00 00 00 00	 DD	 $LN13@DecomposeL
  0030c	00 00 00 00	 DD	 $LN14@DecomposeL
  00310	00 00 00 00	 DD	 $LN15@DecomposeL
  00314	00 00 00 00	 DD	 $LN16@DecomposeL
  00318	00 00 00 00	 DD	 $LN17@DecomposeL
  0031c	00 00 00 00	 DD	 $LN18@DecomposeL
  00320	00 00 00 00	 DD	 $LN19@DecomposeL
  00324	00 00 00 00	 DD	 $LN20@DecomposeL
  00328	00 00 00 00	 DD	 $LN21@DecomposeL
  0032c	00 00 00 00	 DD	 $LN22@DecomposeL
  00330	00 00 00 00	 DD	 $LN23@DecomposeL
  00334	00 00 00 00	 DD	 $LN24@DecomposeL
  00338	00 00 00 00	 DD	 $LN25@DecomposeL
  0033c	00 00 00 00	 DD	 $LN26@DecomposeL
  00340	00 00 00 00	 DD	 $LN27@DecomposeL
$LN45@DecomposeL:
  00344	00		 DB	 0
  00345	01		 DB	 1
  00346	00		 DB	 0
  00347	02		 DB	 2
  00348	03		 DB	 3
  00349	02		 DB	 2
  0034a	03		 DB	 3
  0034b	02		 DB	 2
  0034c	03		 DB	 3
  0034d	02		 DB	 2
  0034e	03		 DB	 3
  0034f	02		 DB	 2
  00350	03		 DB	 3
  00351	04		 DB	 4
  00352	05		 DB	 5
  00353	04		 DB	 4
  00354	05		 DB	 5
  00355	04		 DB	 4
  00356	05		 DB	 5
  00357	04		 DB	 4
  00358	05		 DB	 5
  00359	04		 DB	 4
  0035a	05		 DB	 5
  0035b	06		 DB	 6
  0035c	07		 DB	 7
  0035d	06		 DB	 6
  0035e	07		 DB	 7
  0035f	06		 DB	 6
  00360	07		 DB	 7
  00361	08		 DB	 8
  00362	09		 DB	 9
  00363	08		 DB	 8
  00364	09		 DB	 9
  00365	08		 DB	 8
  00366	09		 DB	 9
  00367	08		 DB	 8
  00368	09		 DB	 9
  00369	08		 DB	 8
  0036a	09		 DB	 9
  0036b	0a		 DB	 10			; 0000000aH
  0036c	0b		 DB	 11			; 0000000bH
  0036d	0a		 DB	 10			; 0000000aH
  0036e	0b		 DB	 11			; 0000000bH
  0036f	0c		 DB	 12			; 0000000cH
  00370	0d		 DB	 13			; 0000000dH
  00371	0c		 DB	 12			; 0000000cH
  00372	0d		 DB	 13			; 0000000dH
  00373	0e		 DB	 14			; 0000000eH
  00374	0f		 DB	 15			; 0000000fH
  00375	0e		 DB	 14			; 0000000eH
  00376	0f		 DB	 15			; 0000000fH
  00377	0e		 DB	 14			; 0000000eH
  00378	0f		 DB	 15			; 0000000fH
  00379	0e		 DB	 14			; 0000000eH
  0037a	0f		 DB	 15			; 0000000fH
  0037b	0e		 DB	 14			; 0000000eH
  0037c	0f		 DB	 15			; 0000000fH
  0037d	10		 DB	 16			; 00000010H
  0037e	11		 DB	 17			; 00000011H
  0037f	10		 DB	 16			; 00000010H
  00380	11		 DB	 17			; 00000011H
  00381	10		 DB	 16			; 00000010H
  00382	11		 DB	 17			; 00000011H
  00383	10		 DB	 16			; 00000010H
  00384	11		 DB	 17			; 00000011H
  00385	10		 DB	 16			; 00000010H
  00386	11		 DB	 17			; 00000011H
  00387	12		 DB	 18			; 00000012H
  00388	13		 DB	 19			; 00000013H
  00389	12		 DB	 18			; 00000012H
  0038a	13		 DB	 19			; 00000013H
  0038b	14		 DB	 20			; 00000014H
  0038c	15		 DB	 21			; 00000015H
  0038d	14		 DB	 20			; 00000014H
  0038e	15		 DB	 21			; 00000015H
  0038f	14		 DB	 20			; 00000014H
  00390	15		 DB	 21			; 00000015H
  00391	14		 DB	 20			; 00000014H
  00392	15		 DB	 21			; 00000015H
  00393	14		 DB	 20			; 00000014H
  00394	15		 DB	 21			; 00000015H
  00395	16		 DB	 22			; 00000016H
  00396	17		 DB	 23			; 00000017H
  00397	16		 DB	 22			; 00000016H
  00398	17		 DB	 23			; 00000017H
  00399	16		 DB	 22			; 00000016H
  0039a	17		 DB	 23			; 00000017H
  0039b	16		 DB	 22			; 00000016H
  0039c	17		 DB	 23			; 00000017H
?DecomposeLetter@@YA_N_WPAD@Z ENDP			; DecomposeLetter
_TEXT	ENDS
; Function compile flags: /Ogtp
; File C:\DS Project\DS Files\Source\ClientSource\Client\EterLocale\StringCodec_Vietnamese.cpp
;	COMDAT ?ComposeTone@@YA_W_W0@Z
_TEXT	SEGMENT
_prev$ = 8						; size = 2
_tone$ = 12						; size = 2
?ComposeTone@@YA_W_W0@Z PROC				; ComposeTone, COMDAT

; 84   : {

  00000	55		 push	 ebp
  00001	8b ec		 mov	 ebp, esp

; 85   : 	int col, row;
; 86   : 
; 87   : 	switch(tone)

  00003	0f b7 45 0c	 movzx	 eax, WORD PTR _tone$[ebp]
  00007	66 8b 55 08	 mov	 dx, WORD PTR _prev$[ebp]
  0000b	05 00 fd ff ff	 add	 eax, -768		; fffffd00H
  00010	83 f8 23	 cmp	 eax, 35			; 00000023H
  00013	0f 87 bd 01 00
	00		 ja	 $LN11@ComposeTon
  00019	0f b6 80 00 00
	00 00		 movzx	 eax, BYTE PTR $LN39@ComposeTon[eax]
  00020	ff 24 85 00 00
	00 00		 jmp	 DWORD PTR $LN40@ComposeTon[eax*4]
$LN6@ComposeTon:

; 88   : 	{
; 89   : 	case 0x0301:	col = 0;	break;

  00027	b9 00 00 00 00	 mov	 ecx, OFFSET ?cp1258_composed_table@@3PAY04_WA
  0002c	eb 1a		 jmp	 SHORT $LN2@ComposeTon
$LN7@ComposeTon:

; 90   : 	case 0x0300:	col = 1;	break;

  0002e	b9 02 00 00 00	 mov	 ecx, OFFSET ?cp1258_composed_table@@3PAY04_WA+2
  00033	eb 13		 jmp	 SHORT $LN2@ComposeTon
$LN8@ComposeTon:

; 91   : 	case 0x0309:	col = 2;	break;

  00035	b9 04 00 00 00	 mov	 ecx, OFFSET ?cp1258_composed_table@@3PAY04_WA+4
  0003a	eb 0c		 jmp	 SHORT $LN2@ComposeTon
$LN9@ComposeTon:

; 92   : 	case 0x0303:	col = 3;	break;

  0003c	b9 06 00 00 00	 mov	 ecx, OFFSET ?cp1258_composed_table@@3PAY04_WA+6
  00041	eb 05		 jmp	 SHORT $LN2@ComposeTon
$LN10@ComposeTon:

; 93   : 	case 0x0323:	col = 4;	break;

  00043	b9 08 00 00 00	 mov	 ecx, OFFSET ?cp1258_composed_table@@3PAY04_WA+8
$LN2@ComposeTon:

; 96   : 	}
; 97   : 
; 98   : 	switch(prev)

  00048	0f b7 c2	 movzx	 eax, dx
  0004b	3d a0 01 00 00	 cmp	 eax, 416		; 000001a0H
  00050	0f 87 45 01 00
	00		 ja	 $LN38@ComposeTon
  00056	0f 84 31 01 00
	00		 je	 $LN28@ComposeTon
  0005c	83 e8 41	 sub	 eax, 65			; 00000041H
  0005f	3d c2 00 00 00	 cmp	 eax, 194		; 000000c2H
  00064	0f 87 6c 01 00
	00		 ja	 $LN11@ComposeTon
  0006a	0f b6 80 00 00
	00 00		 movzx	 eax, BYTE PTR $LN41@ComposeTon[eax]
  00071	ff 24 85 00 00
	00 00		 jmp	 DWORD PTR $LN42@ComposeTon[eax*4]
$LN12@ComposeTon:

; 99   : 	{
; 100  : 	case 0x0041:	row = 0;	break;

  00078	33 c0		 xor	 eax, eax

; 124  : 	default:
; 125  : 		return prev;
; 126  : 	}
; 127  : 
; 128  : 	return cp1258_composed_table[row][col];

  0007a	8d 04 80	 lea	 eax, DWORD PTR [eax+eax*4]
  0007d	66 8b 04 41	 mov	 ax, WORD PTR [ecx+eax*2]

; 129  : }

  00081	5d		 pop	 ebp
  00082	c3		 ret	 0
$LN13@ComposeTon:

; 101  : 	case 0x0061:	row = 1;	break;

  00083	b8 01 00 00 00	 mov	 eax, 1

; 124  : 	default:
; 125  : 		return prev;
; 126  : 	}
; 127  : 
; 128  : 	return cp1258_composed_table[row][col];

  00088	8d 04 80	 lea	 eax, DWORD PTR [eax+eax*4]
  0008b	66 8b 04 41	 mov	 ax, WORD PTR [ecx+eax*2]

; 129  : }

  0008f	5d		 pop	 ebp
  00090	c3		 ret	 0
$LN14@ComposeTon:

; 102  : 	case 0x0102:	row = 2;	break;

  00091	b8 02 00 00 00	 mov	 eax, 2

; 124  : 	default:
; 125  : 		return prev;
; 126  : 	}
; 127  : 
; 128  : 	return cp1258_composed_table[row][col];

  00096	8d 04 80	 lea	 eax, DWORD PTR [eax+eax*4]
  00099	66 8b 04 41	 mov	 ax, WORD PTR [ecx+eax*2]

; 129  : }

  0009d	5d		 pop	 ebp
  0009e	c3		 ret	 0
$LN15@ComposeTon:

; 103  : 	case 0x0103:	row = 3;	break;

  0009f	b8 03 00 00 00	 mov	 eax, 3

; 124  : 	default:
; 125  : 		return prev;
; 126  : 	}
; 127  : 
; 128  : 	return cp1258_composed_table[row][col];

  000a4	8d 04 80	 lea	 eax, DWORD PTR [eax+eax*4]
  000a7	66 8b 04 41	 mov	 ax, WORD PTR [ecx+eax*2]

; 129  : }

  000ab	5d		 pop	 ebp
  000ac	c3		 ret	 0
$LN16@ComposeTon:

; 104  : 	case 0x00C2:	row = 4;	break;

  000ad	b8 04 00 00 00	 mov	 eax, 4

; 124  : 	default:
; 125  : 		return prev;
; 126  : 	}
; 127  : 
; 128  : 	return cp1258_composed_table[row][col];

  000b2	8d 04 80	 lea	 eax, DWORD PTR [eax+eax*4]
  000b5	66 8b 04 41	 mov	 ax, WORD PTR [ecx+eax*2]

; 129  : }

  000b9	5d		 pop	 ebp
  000ba	c3		 ret	 0
$LN17@ComposeTon:

; 105  : 	case 0x00E2:	row = 5;	break;

  000bb	b8 05 00 00 00	 mov	 eax, 5

; 124  : 	default:
; 125  : 		return prev;
; 126  : 	}
; 127  : 
; 128  : 	return cp1258_composed_table[row][col];

  000c0	8d 04 80	 lea	 eax, DWORD PTR [eax+eax*4]
  000c3	66 8b 04 41	 mov	 ax, WORD PTR [ecx+eax*2]

; 129  : }

  000c7	5d		 pop	 ebp
  000c8	c3		 ret	 0
$LN18@ComposeTon:

; 106  : 	case 0x0045:	row = 6;	break;

  000c9	b8 06 00 00 00	 mov	 eax, 6

; 124  : 	default:
; 125  : 		return prev;
; 126  : 	}
; 127  : 
; 128  : 	return cp1258_composed_table[row][col];

  000ce	8d 04 80	 lea	 eax, DWORD PTR [eax+eax*4]
  000d1	66 8b 04 41	 mov	 ax, WORD PTR [ecx+eax*2]

; 129  : }

  000d5	5d		 pop	 ebp
  000d6	c3		 ret	 0
$LN19@ComposeTon:

; 107  : 	case 0x0065:	row = 7;	break;

  000d7	b8 07 00 00 00	 mov	 eax, 7

; 124  : 	default:
; 125  : 		return prev;
; 126  : 	}
; 127  : 
; 128  : 	return cp1258_composed_table[row][col];

  000dc	8d 04 80	 lea	 eax, DWORD PTR [eax+eax*4]
  000df	66 8b 04 41	 mov	 ax, WORD PTR [ecx+eax*2]

; 129  : }

  000e3	5d		 pop	 ebp
  000e4	c3		 ret	 0
$LN20@ComposeTon:

; 108  : 	case 0x00CA:	row = 8;	break;

  000e5	b8 08 00 00 00	 mov	 eax, 8

; 124  : 	default:
; 125  : 		return prev;
; 126  : 	}
; 127  : 
; 128  : 	return cp1258_composed_table[row][col];

  000ea	8d 04 80	 lea	 eax, DWORD PTR [eax+eax*4]
  000ed	66 8b 04 41	 mov	 ax, WORD PTR [ecx+eax*2]

; 129  : }

  000f1	5d		 pop	 ebp
  000f2	c3		 ret	 0
$LN21@ComposeTon:

; 109  : 	case 0x00EA:	row = 9;	break;

  000f3	b8 09 00 00 00	 mov	 eax, 9

; 124  : 	default:
; 125  : 		return prev;
; 126  : 	}
; 127  : 
; 128  : 	return cp1258_composed_table[row][col];

  000f8	8d 04 80	 lea	 eax, DWORD PTR [eax+eax*4]
  000fb	66 8b 04 41	 mov	 ax, WORD PTR [ecx+eax*2]

; 129  : }

  000ff	5d		 pop	 ebp
  00100	c3		 ret	 0
$LN22@ComposeTon:

; 110  : 	case 0x0049:	row = 10;	break;

  00101	b8 0a 00 00 00	 mov	 eax, 10			; 0000000aH

; 124  : 	default:
; 125  : 		return prev;
; 126  : 	}
; 127  : 
; 128  : 	return cp1258_composed_table[row][col];

  00106	8d 04 80	 lea	 eax, DWORD PTR [eax+eax*4]
  00109	66 8b 04 41	 mov	 ax, WORD PTR [ecx+eax*2]

; 129  : }

  0010d	5d		 pop	 ebp
  0010e	c3		 ret	 0
$LN23@ComposeTon:

; 111  : 	case 0x0069:	row = 11;	break;

  0010f	b8 0b 00 00 00	 mov	 eax, 11			; 0000000bH

; 124  : 	default:
; 125  : 		return prev;
; 126  : 	}
; 127  : 
; 128  : 	return cp1258_composed_table[row][col];

  00114	8d 04 80	 lea	 eax, DWORD PTR [eax+eax*4]
  00117	66 8b 04 41	 mov	 ax, WORD PTR [ecx+eax*2]

; 129  : }

  0011b	5d		 pop	 ebp
  0011c	c3		 ret	 0
$LN24@ComposeTon:

; 112  : 	case 0x004F:	row = 12;	break;

  0011d	b8 0c 00 00 00	 mov	 eax, 12			; 0000000cH

; 124  : 	default:
; 125  : 		return prev;
; 126  : 	}
; 127  : 
; 128  : 	return cp1258_composed_table[row][col];

  00122	8d 04 80	 lea	 eax, DWORD PTR [eax+eax*4]
  00125	66 8b 04 41	 mov	 ax, WORD PTR [ecx+eax*2]

; 129  : }

  00129	5d		 pop	 ebp
  0012a	c3		 ret	 0
$LN25@ComposeTon:

; 113  : 	case 0x006F:	row = 13;	break;

  0012b	b8 0d 00 00 00	 mov	 eax, 13			; 0000000dH

; 124  : 	default:
; 125  : 		return prev;
; 126  : 	}
; 127  : 
; 128  : 	return cp1258_composed_table[row][col];

  00130	8d 04 80	 lea	 eax, DWORD PTR [eax+eax*4]
  00133	66 8b 04 41	 mov	 ax, WORD PTR [ecx+eax*2]

; 129  : }

  00137	5d		 pop	 ebp
  00138	c3		 ret	 0
$LN26@ComposeTon:

; 114  : 	case 0x00D4:	row = 14;	break;

  00139	b8 0e 00 00 00	 mov	 eax, 14			; 0000000eH

; 124  : 	default:
; 125  : 		return prev;
; 126  : 	}
; 127  : 
; 128  : 	return cp1258_composed_table[row][col];

  0013e	8d 04 80	 lea	 eax, DWORD PTR [eax+eax*4]
  00141	66 8b 04 41	 mov	 ax, WORD PTR [ecx+eax*2]

; 129  : }

  00145	5d		 pop	 ebp
  00146	c3		 ret	 0
$LN27@ComposeTon:

; 115  : 	case 0x00F4:	row = 15;	break;

  00147	b8 0f 00 00 00	 mov	 eax, 15			; 0000000fH

; 124  : 	default:
; 125  : 		return prev;
; 126  : 	}
; 127  : 
; 128  : 	return cp1258_composed_table[row][col];

  0014c	8d 04 80	 lea	 eax, DWORD PTR [eax+eax*4]
  0014f	66 8b 04 41	 mov	 ax, WORD PTR [ecx+eax*2]

; 129  : }

  00153	5d		 pop	 ebp
  00154	c3		 ret	 0
$LN30@ComposeTon:

; 118  : 	case 0x0055:	row = 18;	break;

  00155	b8 12 00 00 00	 mov	 eax, 18			; 00000012H

; 124  : 	default:
; 125  : 		return prev;
; 126  : 	}
; 127  : 
; 128  : 	return cp1258_composed_table[row][col];

  0015a	8d 04 80	 lea	 eax, DWORD PTR [eax+eax*4]
  0015d	66 8b 04 41	 mov	 ax, WORD PTR [ecx+eax*2]

; 129  : }

  00161	5d		 pop	 ebp
  00162	c3		 ret	 0
$LN31@ComposeTon:

; 119  : 	case 0x0075:	row = 19;	break;

  00163	b8 13 00 00 00	 mov	 eax, 19			; 00000013H

; 124  : 	default:
; 125  : 		return prev;
; 126  : 	}
; 127  : 
; 128  : 	return cp1258_composed_table[row][col];

  00168	8d 04 80	 lea	 eax, DWORD PTR [eax+eax*4]
  0016b	66 8b 04 41	 mov	 ax, WORD PTR [ecx+eax*2]

; 129  : }

  0016f	5d		 pop	 ebp
  00170	c3		 ret	 0
$LN34@ComposeTon:

; 122  : 	case 0x0059:	row = 22;	break;

  00171	b8 16 00 00 00	 mov	 eax, 22			; 00000016H

; 124  : 	default:
; 125  : 		return prev;
; 126  : 	}
; 127  : 
; 128  : 	return cp1258_composed_table[row][col];

  00176	8d 04 80	 lea	 eax, DWORD PTR [eax+eax*4]
  00179	66 8b 04 41	 mov	 ax, WORD PTR [ecx+eax*2]

; 129  : }

  0017d	5d		 pop	 ebp
  0017e	c3		 ret	 0
$LN35@ComposeTon:

; 123  : 	case 0x0079:	row = 23;	break;

  0017f	b8 17 00 00 00	 mov	 eax, 23			; 00000017H

; 124  : 	default:
; 125  : 		return prev;
; 126  : 	}
; 127  : 
; 128  : 	return cp1258_composed_table[row][col];

  00184	8d 04 80	 lea	 eax, DWORD PTR [eax+eax*4]
  00187	66 8b 04 41	 mov	 ax, WORD PTR [ecx+eax*2]

; 129  : }

  0018b	5d		 pop	 ebp
  0018c	c3		 ret	 0
$LN28@ComposeTon:

; 116  : 	case 0x01A0:	row = 16;	break;

  0018d	b8 10 00 00 00	 mov	 eax, 16			; 00000010H

; 124  : 	default:
; 125  : 		return prev;
; 126  : 	}
; 127  : 
; 128  : 	return cp1258_composed_table[row][col];

  00192	8d 04 80	 lea	 eax, DWORD PTR [eax+eax*4]
  00195	66 8b 04 41	 mov	 ax, WORD PTR [ecx+eax*2]

; 129  : }

  00199	5d		 pop	 ebp
  0019a	c3		 ret	 0
$LN38@ComposeTon:

; 96   : 	}
; 97   : 
; 98   : 	switch(prev)

  0019b	2d a1 01 00 00	 sub	 eax, 417		; 000001a1H
  001a0	74 26		 je	 SHORT $LN29@ComposeTon
  001a2	83 e8 0e	 sub	 eax, 14			; 0000000eH
  001a5	74 13		 je	 SHORT $LN32@ComposeTon
  001a7	83 e8 01	 sub	 eax, 1
  001aa	75 2a		 jne	 SHORT $LN11@ComposeTon

; 121  : 	case 0x01B0:	row = 21;	break;

  001ac	b8 15 00 00 00	 mov	 eax, 21			; 00000015H

; 124  : 	default:
; 125  : 		return prev;
; 126  : 	}
; 127  : 
; 128  : 	return cp1258_composed_table[row][col];

  001b1	8d 04 80	 lea	 eax, DWORD PTR [eax+eax*4]
  001b4	66 8b 04 41	 mov	 ax, WORD PTR [ecx+eax*2]

; 129  : }

  001b8	5d		 pop	 ebp
  001b9	c3		 ret	 0
$LN32@ComposeTon:

; 120  : 	case 0x01AF:	row = 20;	break;

  001ba	b8 14 00 00 00	 mov	 eax, 20			; 00000014H

; 124  : 	default:
; 125  : 		return prev;
; 126  : 	}
; 127  : 
; 128  : 	return cp1258_composed_table[row][col];

  001bf	8d 04 80	 lea	 eax, DWORD PTR [eax+eax*4]
  001c2	66 8b 04 41	 mov	 ax, WORD PTR [ecx+eax*2]

; 129  : }

  001c6	5d		 pop	 ebp
  001c7	c3		 ret	 0
$LN29@ComposeTon:

; 117  : 	case 0x01A1:	row = 17;	break;

  001c8	b8 11 00 00 00	 mov	 eax, 17			; 00000011H

; 124  : 	default:
; 125  : 		return prev;
; 126  : 	}
; 127  : 
; 128  : 	return cp1258_composed_table[row][col];

  001cd	8d 04 80	 lea	 eax, DWORD PTR [eax+eax*4]
  001d0	66 8b 04 41	 mov	 ax, WORD PTR [ecx+eax*2]

; 129  : }

  001d4	5d		 pop	 ebp
  001d5	c3		 ret	 0
$LN11@ComposeTon:

; 94   : 	default:
; 95   : 		return prev;

  001d6	66 8b c2	 mov	 ax, dx

; 129  : }

  001d9	5d		 pop	 ebp
  001da	c3		 ret	 0
  001db	90		 npad	 1
$LN40@ComposeTon:
  001dc	00 00 00 00	 DD	 $LN7@ComposeTon
  001e0	00 00 00 00	 DD	 $LN6@ComposeTon
  001e4	00 00 00 00	 DD	 $LN9@ComposeTon
  001e8	00 00 00 00	 DD	 $LN8@ComposeTon
  001ec	00 00 00 00	 DD	 $LN10@ComposeTon
  001f0	00 00 00 00	 DD	 $LN11@ComposeTon
$LN39@ComposeTon:
  001f4	00		 DB	 0
  001f5	01		 DB	 1
  001f6	05		 DB	 5
  001f7	02		 DB	 2
  001f8	05		 DB	 5
  001f9	05		 DB	 5
  001fa	05		 DB	 5
  001fb	05		 DB	 5
  001fc	05		 DB	 5
  001fd	03		 DB	 3
  001fe	05		 DB	 5
  001ff	05		 DB	 5
  00200	05		 DB	 5
  00201	05		 DB	 5
  00202	05		 DB	 5
  00203	05		 DB	 5
  00204	05		 DB	 5
  00205	05		 DB	 5
  00206	05		 DB	 5
  00207	05		 DB	 5
  00208	05		 DB	 5
  00209	05		 DB	 5
  0020a	05		 DB	 5
  0020b	05		 DB	 5
  0020c	05		 DB	 5
  0020d	05		 DB	 5
  0020e	05		 DB	 5
  0020f	05		 DB	 5
  00210	05		 DB	 5
  00211	05		 DB	 5
  00212	05		 DB	 5
  00213	05		 DB	 5
  00214	05		 DB	 5
  00215	05		 DB	 5
  00216	05		 DB	 5
  00217	04		 DB	 4
$LN42@ComposeTon:
  00218	00 00 00 00	 DD	 $LN12@ComposeTon
  0021c	00 00 00 00	 DD	 $LN18@ComposeTon
  00220	00 00 00 00	 DD	 $LN22@ComposeTon
  00224	00 00 00 00	 DD	 $LN24@ComposeTon
  00228	00 00 00 00	 DD	 $LN30@ComposeTon
  0022c	00 00 00 00	 DD	 $LN34@ComposeTon
  00230	00 00 00 00	 DD	 $LN13@ComposeTon
  00234	00 00 00 00	 DD	 $LN19@ComposeTon
  00238	00 00 00 00	 DD	 $LN23@ComposeTon
  0023c	00 00 00 00	 DD	 $LN25@ComposeTon
  00240	00 00 00 00	 DD	 $LN31@ComposeTon
  00244	00 00 00 00	 DD	 $LN35@ComposeTon
  00248	00 00 00 00	 DD	 $LN16@ComposeTon
  0024c	00 00 00 00	 DD	 $LN20@ComposeTon
  00250	00 00 00 00	 DD	 $LN26@ComposeTon
  00254	00 00 00 00	 DD	 $LN17@ComposeTon
  00258	00 00 00 00	 DD	 $LN21@ComposeTon
  0025c	00 00 00 00	 DD	 $LN27@ComposeTon
  00260	00 00 00 00	 DD	 $LN14@ComposeTon
  00264	00 00 00 00	 DD	 $LN15@ComposeTon
  00268	00 00 00 00	 DD	 $LN11@ComposeTon
$LN41@ComposeTon:
  0026c	00		 DB	 0
  0026d	14		 DB	 20			; 00000014H
  0026e	14		 DB	 20			; 00000014H
  0026f	14		 DB	 20			; 00000014H
  00270	01		 DB	 1
  00271	14		 DB	 20			; 00000014H
  00272	14		 DB	 20			; 00000014H
  00273	14		 DB	 20			; 00000014H
  00274	02		 DB	 2
  00275	14		 DB	 20			; 00000014H
  00276	14		 DB	 20			; 00000014H
  00277	14		 DB	 20			; 00000014H
  00278	14		 DB	 20			; 00000014H
  00279	14		 DB	 20			; 00000014H
  0027a	03		 DB	 3
  0027b	14		 DB	 20			; 00000014H
  0027c	14		 DB	 20			; 00000014H
  0027d	14		 DB	 20			; 00000014H
  0027e	14		 DB	 20			; 00000014H
  0027f	14		 DB	 20			; 00000014H
  00280	04		 DB	 4
  00281	14		 DB	 20			; 00000014H
  00282	14		 DB	 20			; 00000014H
  00283	14		 DB	 20			; 00000014H
  00284	05		 DB	 5
  00285	14		 DB	 20			; 00000014H
  00286	14		 DB	 20			; 00000014H
  00287	14		 DB	 20			; 00000014H
  00288	14		 DB	 20			; 00000014H
  00289	14		 DB	 20			; 00000014H
  0028a	14		 DB	 20			; 00000014H
  0028b	14		 DB	 20			; 00000014H
  0028c	06		 DB	 6
  0028d	14		 DB	 20			; 00000014H
  0028e	14		 DB	 20			; 00000014H
  0028f	14		 DB	 20			; 00000014H
  00290	07		 DB	 7
  00291	14		 DB	 20			; 00000014H
  00292	14		 DB	 20			; 00000014H
  00293	14		 DB	 20			; 00000014H
  00294	08		 DB	 8
  00295	14		 DB	 20			; 00000014H
  00296	14		 DB	 20			; 00000014H
  00297	14		 DB	 20			; 00000014H
  00298	14		 DB	 20			; 00000014H
  00299	14		 DB	 20			; 00000014H
  0029a	09		 DB	 9
  0029b	14		 DB	 20			; 00000014H
  0029c	14		 DB	 20			; 00000014H
  0029d	14		 DB	 20			; 00000014H
  0029e	14		 DB	 20			; 00000014H
  0029f	14		 DB	 20			; 00000014H
  002a0	0a		 DB	 10			; 0000000aH
  002a1	14		 DB	 20			; 00000014H
  002a2	14		 DB	 20			; 00000014H
  002a3	14		 DB	 20			; 00000014H
  002a4	0b		 DB	 11			; 0000000bH
  002a5	14		 DB	 20			; 00000014H
  002a6	14		 DB	 20			; 00000014H
  002a7	14		 DB	 20			; 00000014H
  002a8	14		 DB	 20			; 00000014H
  002a9	14		 DB	 20			; 00000014H
  002aa	14		 DB	 20			; 00000014H
  002ab	14		 DB	 20			; 00000014H
  002ac	14		 DB	 20			; 00000014H
  002ad	14		 DB	 20			; 00000014H
  002ae	14		 DB	 20			; 00000014H
  002af	14		 DB	 20			; 00000014H
  002b0	14		 DB	 20			; 00000014H
  002b1	14		 DB	 20			; 00000014H
  002b2	14		 DB	 20			; 00000014H
  002b3	14		 DB	 20			; 00000014H
  002b4	14		 DB	 20			; 00000014H
  002b5	14		 DB	 20			; 00000014H
  002b6	14		 DB	 20			; 00000014H
  002b7	14		 DB	 20			; 00000014H
  002b8	14		 DB	 20			; 00000014H
  002b9	14		 DB	 20			; 00000014H
  002ba	14		 DB	 20			; 00000014H
  002bb	14		 DB	 20			; 00000014H
  002bc	14		 DB	 20			; 00000014H
  002bd	14		 DB	 20			; 00000014H
  002be	14		 DB	 20			; 00000014H
  002bf	14		 DB	 20			; 00000014H
  002c0	14		 DB	 20			; 00000014H
  002c1	14		 DB	 20			; 00000014H
  002c2	14		 DB	 20			; 00000014H
  002c3	14		 DB	 20			; 00000014H
  002c4	14		 DB	 20			; 00000014H
  002c5	14		 DB	 20			; 00000014H
  002c6	14		 DB	 20			; 00000014H
  002c7	14		 DB	 20			; 00000014H
  002c8	14		 DB	 20			; 00000014H
  002c9	14		 DB	 20			; 00000014H
  002ca	14		 DB	 20			; 00000014H
  002cb	14		 DB	 20			; 00000014H
  002cc	14		 DB	 20			; 00000014H
  002cd	14		 DB	 20			; 00000014H
  002ce	14		 DB	 20			; 00000014H
  002cf	14		 DB	 20			; 00000014H
  002d0	14		 DB	 20			; 00000014H
  002d1	14		 DB	 20			; 00000014H
  002d2	14		 DB	 20			; 00000014H
  002d3	14		 DB	 20			; 00000014H
  002d4	14		 DB	 20			; 00000014H
  002d5	14		 DB	 20			; 00000014H
  002d6	14		 DB	 20			; 00000014H
  002d7	14		 DB	 20			; 00000014H
  002d8	14		 DB	 20			; 00000014H
  002d9	14		 DB	 20			; 00000014H
  002da	14		 DB	 20			; 00000014H
  002db	14		 DB	 20			; 00000014H
  002dc	14		 DB	 20			; 00000014H
  002dd	14		 DB	 20			; 00000014H
  002de	14		 DB	 20			; 00000014H
  002df	14		 DB	 20			; 00000014H
  002e0	14		 DB	 20			; 00000014H
  002e1	14		 DB	 20			; 00000014H
  002e2	14		 DB	 20			; 00000014H
  002e3	14		 DB	 20			; 00000014H
  002e4	14		 DB	 20			; 00000014H
  002e5	14		 DB	 20			; 00000014H
  002e6	14		 DB	 20			; 00000014H
  002e7	14		 DB	 20			; 00000014H
  002e8	14		 DB	 20			; 00000014H
  002e9	14		 DB	 20			; 00000014H
  002ea	14		 DB	 20			; 00000014H
  002eb	14		 DB	 20			; 00000014H
  002ec	14		 DB	 20			; 00000014H
  002ed	0c		 DB	 12			; 0000000cH
  002ee	14		 DB	 20			; 00000014H
  002ef	14		 DB	 20			; 00000014H
  002f0	14		 DB	 20			; 00000014H
  002f1	14		 DB	 20			; 00000014H
  002f2	14		 DB	 20			; 00000014H
  002f3	14		 DB	 20			; 00000014H
  002f4	14		 DB	 20			; 00000014H
  002f5	0d		 DB	 13			; 0000000dH
  002f6	14		 DB	 20			; 00000014H
  002f7	14		 DB	 20			; 00000014H
  002f8	14		 DB	 20			; 00000014H
  002f9	14		 DB	 20			; 00000014H
  002fa	14		 DB	 20			; 00000014H
  002fb	14		 DB	 20			; 00000014H
  002fc	14		 DB	 20			; 00000014H
  002fd	14		 DB	 20			; 00000014H
  002fe	14		 DB	 20			; 00000014H
  002ff	0e		 DB	 14			; 0000000eH
  00300	14		 DB	 20			; 00000014H
  00301	14		 DB	 20			; 00000014H
  00302	14		 DB	 20			; 00000014H
  00303	14		 DB	 20			; 00000014H
  00304	14		 DB	 20			; 00000014H
  00305	14		 DB	 20			; 00000014H
  00306	14		 DB	 20			; 00000014H
  00307	14		 DB	 20			; 00000014H
  00308	14		 DB	 20			; 00000014H
  00309	14		 DB	 20			; 00000014H
  0030a	14		 DB	 20			; 00000014H
  0030b	14		 DB	 20			; 00000014H
  0030c	14		 DB	 20			; 00000014H
  0030d	0f		 DB	 15			; 0000000fH
  0030e	14		 DB	 20			; 00000014H
  0030f	14		 DB	 20			; 00000014H
  00310	14		 DB	 20			; 00000014H
  00311	14		 DB	 20			; 00000014H
  00312	14		 DB	 20			; 00000014H
  00313	14		 DB	 20			; 00000014H
  00314	14		 DB	 20			; 00000014H
  00315	10		 DB	 16			; 00000010H
  00316	14		 DB	 20			; 00000014H
  00317	14		 DB	 20			; 00000014H
  00318	14		 DB	 20			; 00000014H
  00319	14		 DB	 20			; 00000014H
  0031a	14		 DB	 20			; 00000014H
  0031b	14		 DB	 20			; 00000014H
  0031c	14		 DB	 20			; 00000014H
  0031d	14		 DB	 20			; 00000014H
  0031e	14		 DB	 20			; 00000014H
  0031f	11		 DB	 17			; 00000011H
  00320	14		 DB	 20			; 00000014H
  00321	14		 DB	 20			; 00000014H
  00322	14		 DB	 20			; 00000014H
  00323	14		 DB	 20			; 00000014H
  00324	14		 DB	 20			; 00000014H
  00325	14		 DB	 20			; 00000014H
  00326	14		 DB	 20			; 00000014H
  00327	14		 DB	 20			; 00000014H
  00328	14		 DB	 20			; 00000014H
  00329	14		 DB	 20			; 00000014H
  0032a	14		 DB	 20			; 00000014H
  0032b	14		 DB	 20			; 00000014H
  0032c	14		 DB	 20			; 00000014H
  0032d	12		 DB	 18			; 00000012H
  0032e	13		 DB	 19			; 00000013H
?ComposeTone@@YA_W_W0@Z ENDP				; ComposeTone
_TEXT	ENDS
; Function compile flags: /Ogtp
; File C:\DS Project\DS Files\Source\ClientSource\Client\EterLocale\StringCodec_Vietnamese.cpp
;	COMDAT ?IsTone@@YA_N_W@Z
_TEXT	SEGMENT
_tone$ = 8						; size = 2
?IsTone@@YA_N_W@Z PROC					; IsTone, COMDAT

; 69   : {

  00000	55		 push	 ebp
  00001	8b ec		 mov	 ebp, esp

; 70   : 	switch(tone)

  00003	0f b7 45 08	 movzx	 eax, WORD PTR _tone$[ebp]
  00007	05 00 fd ff ff	 add	 eax, -768		; fffffd00H
  0000c	83 f8 23	 cmp	 eax, 35			; 00000023H
  0000f	77 12		 ja	 SHORT $LN5@IsTone
  00011	0f b6 80 00 00
	00 00		 movzx	 eax, BYTE PTR $LN7@IsTone[eax]
  00018	ff 24 85 00 00
	00 00		 jmp	 DWORD PTR $LN8@IsTone[eax*4]
$LN4@IsTone:

; 71   : 	{
; 72   : 	case 0x0300:
; 73   : 	case 0x0301:
; 74   : 	case 0x0309:
; 75   : 	case 0x0303:
; 76   : 	case 0x0323:
; 77   : 		return true;

  0001f	b0 01		 mov	 al, 1

; 80   : 	}
; 81   : }

  00021	5d		 pop	 ebp
  00022	c3		 ret	 0
$LN5@IsTone:

; 78   : 	default:
; 79   : 		return false;

  00023	32 c0		 xor	 al, al

; 80   : 	}
; 81   : }

  00025	5d		 pop	 ebp
  00026	c3		 ret	 0
  00027	90		 npad	 1
$LN8@IsTone:
  00028	00 00 00 00	 DD	 $LN4@IsTone
  0002c	00 00 00 00	 DD	 $LN5@IsTone
$LN7@IsTone:
  00030	00		 DB	 0
  00031	00		 DB	 0
  00032	01		 DB	 1
  00033	00		 DB	 0
  00034	01		 DB	 1
  00035	01		 DB	 1
  00036	01		 DB	 1
  00037	01		 DB	 1
  00038	01		 DB	 1
  00039	00		 DB	 0
  0003a	01		 DB	 1
  0003b	01		 DB	 1
  0003c	01		 DB	 1
  0003d	01		 DB	 1
  0003e	01		 DB	 1
  0003f	01		 DB	 1
  00040	01		 DB	 1
  00041	01		 DB	 1
  00042	01		 DB	 1
  00043	01		 DB	 1
  00044	01		 DB	 1
  00045	01		 DB	 1
  00046	01		 DB	 1
  00047	01		 DB	 1
  00048	01		 DB	 1
  00049	01		 DB	 1
  0004a	01		 DB	 1
  0004b	01		 DB	 1
  0004c	01		 DB	 1
  0004d	01		 DB	 1
  0004e	01		 DB	 1
  0004f	01		 DB	 1
  00050	01		 DB	 1
  00051	01		 DB	 1
  00052	01		 DB	 1
  00053	00		 DB	 0
?IsTone@@YA_N_W@Z ENDP					; IsTone
_TEXT	ENDS
; Function compile flags: /Ogtp
; File C:\DS Project\DS Files\Source\ClientSource\Client\EterLocale\StringCodec_Vietnamese.cpp
;	COMDAT ?EL_String_Encode_Vietnamese@@YAHPB_WHPADH@Z
_TEXT	SEGMENT
_tone$1 = -2						; size = 1
_letter$2 = -1						; size = 1
_wide$ = 8						; size = 4
_wideLen$ = 12						; size = 4
_multi$ = 16						; size = 4
_multiLen$ = 20						; size = 4
?EL_String_Encode_Vietnamese@@YAHPB_WHPADH@Z PROC	; EL_String_Encode_Vietnamese, COMDAT

; 526  : {

  00000	55		 push	 ebp
  00001	8b ec		 mov	 ebp, esp
  00003	51		 push	 ecx

; 527  : 	if(wideLen < 0)

  00004	8b 45 0c	 mov	 eax, DWORD PTR _wideLen$[ebp]
  00007	56		 push	 esi
  00008	57		 push	 edi
  00009	8b 7d 08	 mov	 edi, DWORD PTR _wide$[ebp]
  0000c	85 c0		 test	 eax, eax
  0000e	79 1a		 jns	 SHORT $LN4@EL_String_

; 528  : 		wideLen = (int)wcslen(wide) + 1;

  00010	8b cf		 mov	 ecx, edi
  00012	8d 51 02	 lea	 edx, DWORD PTR [ecx+2]
$LL15@EL_String_:
  00015	66 8b 01	 mov	 ax, WORD PTR [ecx]
  00018	83 c1 02	 add	 ecx, 2
  0001b	66 85 c0	 test	 ax, ax
  0001e	75 f5		 jne	 SHORT $LL15@EL_String_
  00020	2b ca		 sub	 ecx, edx
  00022	d1 f9		 sar	 ecx, 1
  00024	8d 41 01	 lea	 eax, DWORD PTR [ecx+1]
  00027	89 45 0c	 mov	 DWORD PTR _wideLen$[ebp], eax
$LN4@EL_String_:

; 529  : 
; 530  : 	int src = 0;

  0002a	33 f6		 xor	 esi, esi

; 531  : 	int dest = 0;

  0002c	33 d2		 xor	 edx, edx

; 532  : 
; 533  : 	if(wideLen > 0)

  0002e	85 c0		 test	 eax, eax
  00030	7e 5e		 jle	 SHORT $LN17@EL_String_
  00032	53		 push	 ebx
  00033	8b 5d 14	 mov	 ebx, DWORD PTR _multiLen$[ebp]
$LL2@EL_String_:

; 534  : 	{
; 535  : 		while(src < wideLen && dest < multiLen)

  00036	3b d3		 cmp	 edx, ebx
  00038	7d 4d		 jge	 SHORT $LN16@EL_String_

; 536  : 		{
; 537  : 			char letter;
; 538  : 			if(DecomposeLetter(wide[src], &letter))

  0003a	0f b7 04 77	 movzx	 eax, WORD PTR [edi+esi*2]
  0003e	8d 4d ff	 lea	 ecx, DWORD PTR _letter$2[ebp]
  00041	51		 push	 ecx
  00042	50		 push	 eax
  00043	8b f8		 mov	 edi, eax
  00045	e8 00 00 00 00	 call	 ?DecomposeLetter@@YA_N_WPAD@Z ; DecomposeLetter
  0004a	8b 4d 10	 mov	 ecx, DWORD PTR _multi$[ebp]
  0004d	83 c4 08	 add	 esp, 8
  00050	84 c0		 test	 al, al
  00052	74 0e		 je	 SHORT $LN6@EL_String_

; 539  : 			{
; 540  : 				multi[dest++] = letter;

  00054	8a 45 ff	 mov	 al, BYTE PTR _letter$2[ebp]
  00057	88 04 0a	 mov	 BYTE PTR [edx+ecx], al
  0005a	42		 inc	 edx
  0005b	8b 45 08	 mov	 eax, DWORD PTR _wide$[ebp]
  0005e	0f b7 3c 70	 movzx	 edi, WORD PTR [eax+esi*2]
$LN6@EL_String_:

; 541  : 			}
; 542  : 
; 543  : 			char tone;
; 544  : 			if(DecomposeTone(wide[src], &tone) && dest < multiLen)

  00062	8d 45 fe	 lea	 eax, DWORD PTR _tone$1[ebp]
  00065	50		 push	 eax
  00066	57		 push	 edi
  00067	e8 00 00 00 00	 call	 ?DecomposeTone@@YA_N_WPAD@Z ; DecomposeTone
  0006c	83 c4 08	 add	 esp, 8
  0006f	84 c0		 test	 al, al
  00071	74 0b		 je	 SHORT $LN7@EL_String_
  00073	3b d3		 cmp	 edx, ebx
  00075	7d 07		 jge	 SHORT $LN7@EL_String_

; 545  : 			{
; 546  : 				multi[dest++] = tone;

  00077	8a 45 fe	 mov	 al, BYTE PTR _tone$1[ebp]
  0007a	88 04 0a	 mov	 BYTE PTR [edx+ecx], al
  0007d	42		 inc	 edx
$LN7@EL_String_:

; 547  : 			}
; 548  : 
; 549  : 			++src;

  0007e	8b 7d 08	 mov	 edi, DWORD PTR _wide$[ebp]
  00081	46		 inc	 esi
  00082	3b 75 0c	 cmp	 esi, DWORD PTR _wideLen$[ebp]
  00085	7c af		 jl	 SHORT $LL2@EL_String_
$LN16@EL_String_:
  00087	5b		 pop	 ebx
  00088	5f		 pop	 edi

; 550  : 		}
; 551  : 	}
; 552  : 
; 553  : 	return dest;

  00089	8b c2		 mov	 eax, edx

; 554  : }

  0008b	5e		 pop	 esi
  0008c	8b e5		 mov	 esp, ebp
  0008e	5d		 pop	 ebp
  0008f	c3		 ret	 0
$LN17@EL_String_:
  00090	5f		 pop	 edi

; 550  : 		}
; 551  : 	}
; 552  : 
; 553  : 	return dest;

  00091	8b c2		 mov	 eax, edx

; 554  : }

  00093	5e		 pop	 esi
  00094	8b e5		 mov	 esp, ebp
  00096	5d		 pop	 ebp
  00097	c3		 ret	 0
?EL_String_Encode_Vietnamese@@YAHPB_WHPADH@Z ENDP	; EL_String_Encode_Vietnamese
_TEXT	ENDS
; Function compile flags: /Ogtp
; File C:\DS Project\DS Files\Source\ClientSource\Client\EterLocale\StringCodec_Vietnamese.cpp
;	COMDAT ?EL_String_Decode_Vietnamese@@YAHPBDHPA_WH@Z
_TEXT	SEGMENT
_multi$ = 8						; size = 4
_multiLen$ = 12						; size = 4
_wide$ = 16						; size = 4
_wideLen$ = 20						; size = 4
?EL_String_Decode_Vietnamese@@YAHPBDHPA_WH@Z PROC	; EL_String_Decode_Vietnamese, COMDAT

; 132  : {

  00000	55		 push	 ebp
  00001	8b ec		 mov	 ebp, esp

; 133  : 	if(multiLen < 0)

  00003	8b 55 08	 mov	 edx, DWORD PTR _multi$[ebp]
  00006	53		 push	 ebx
  00007	8b 5d 0c	 mov	 ebx, DWORD PTR _multiLen$[ebp]
  0000a	56		 push	 esi
  0000b	85 db		 test	 ebx, ebx
  0000d	79 11		 jns	 SHORT $LN4@EL_String_

; 134  : 		multiLen = (int)strlen(multi) + 1;

  0000f	8b ca		 mov	 ecx, edx
  00011	8d 71 01	 lea	 esi, DWORD PTR [ecx+1]
$LL15@EL_String_:
  00014	8a 01		 mov	 al, BYTE PTR [ecx]
  00016	41		 inc	 ecx
  00017	84 c0		 test	 al, al
  00019	75 f9		 jne	 SHORT $LL15@EL_String_
  0001b	2b ce		 sub	 ecx, esi
  0001d	8d 59 01	 lea	 ebx, DWORD PTR [ecx+1]
$LN4@EL_String_:

; 135  : 
; 136  : 	int src = 0;
; 137  : 	int dest = 0;

  00020	33 f6		 xor	 esi, esi

; 138  : 
; 139  : 	if(multiLen > 0)

  00022	85 db		 test	 ebx, ebx
  00024	7e 74		 jle	 SHORT $LN17@EL_String_

; 140  : 	{
; 141  : 
; 142  : 		wchar_t prev = cp1258_to_unicode[(BYTE)multi[src++]];

  00026	0f b6 02	 movzx	 eax, BYTE PTR [edx]
  00029	57		 push	 edi
  0002a	8d 7e 01	 lea	 edi, DWORD PTR [esi+1]
  0002d	0f b7 0c 45 00
	00 00 00	 movzx	 ecx, WORD PTR ?cp1258_to_unicode@@3PA_WA[eax*2]

; 143  : 
; 144  : 		while(src < multiLen)

  00035	8b 45 14	 mov	 eax, DWORD PTR _wideLen$[ebp]
  00038	3b df		 cmp	 ebx, edi
  0003a	7e 4b		 jle	 SHORT $LN3@EL_String_
  0003c	0f 1f 40 00	 npad	 4
$LL2@EL_String_:

; 145  : 		{
; 146  : 			wchar_t unicode = cp1258_to_unicode[(BYTE)multi[src]];

  00040	0f b6 04 17	 movzx	 eax, BYTE PTR [edi+edx]
  00044	0f b7 14 45 00
	00 00 00	 movzx	 edx, WORD PTR ?cp1258_to_unicode@@3PA_WA[eax*2]

; 147  : 
; 148  : 
; 149  : 			if(IsTone(unicode))

  0004c	52		 push	 edx
  0004d	e8 00 00 00 00	 call	 ?IsTone@@YA_N_W@Z	; IsTone
  00052	83 c4 04	 add	 esp, 4
  00055	84 c0		 test	 al, al
  00057	74 12		 je	 SHORT $LN6@EL_String_

; 150  : 			{
; 151  : 
; 152  : 				prev = ComposeTone(prev, unicode);

  00059	52		 push	 edx
  0005a	51		 push	 ecx
  0005b	e8 00 00 00 00	 call	 ?ComposeTone@@YA_W_W0@Z	; ComposeTone
  00060	0f b7 c8	 movzx	 ecx, ax
  00063	83 c4 08	 add	 esp, 8

; 153  : 			}

  00066	8b 45 14	 mov	 eax, DWORD PTR _wideLen$[ebp]
  00069	eb 14		 jmp	 SHORT $LN7@EL_String_
$LN6@EL_String_:

; 154  : 			else
; 155  : 			{
; 156  : 
; 157  : 				if(dest < wideLen)

  0006b	8b 45 14	 mov	 eax, DWORD PTR _wideLen$[ebp]
  0006e	3b f0		 cmp	 esi, eax
  00070	7d 0b		 jge	 SHORT $LN8@EL_String_

; 158  : 					wide[dest++] = prev;

  00072	8b 45 10	 mov	 eax, DWORD PTR _wide$[ebp]
  00075	66 89 0c 70	 mov	 WORD PTR [eax+esi*2], cx
  00079	46		 inc	 esi
  0007a	8b 45 14	 mov	 eax, DWORD PTR _wideLen$[ebp]
$LN8@EL_String_:

; 159  : 				prev = unicode;

  0007d	8b ca		 mov	 ecx, edx
$LN7@EL_String_:

; 143  : 
; 144  : 		while(src < multiLen)

  0007f	8b 55 08	 mov	 edx, DWORD PTR _multi$[ebp]

; 160  : 			}
; 161  : 			++src;

  00082	47		 inc	 edi
  00083	3b fb		 cmp	 edi, ebx
  00085	7c b9		 jl	 SHORT $LL2@EL_String_
$LN3@EL_String_:

; 162  : 		}
; 163  : 
; 164  : 		if(dest < wideLen)

  00087	5f		 pop	 edi
  00088	3b f0		 cmp	 esi, eax
  0008a	7d 0e		 jge	 SHORT $LN17@EL_String_

; 165  : 			wide[dest++] = prev;

  0008c	8b 45 10	 mov	 eax, DWORD PTR _wide$[ebp]
  0008f	66 89 0c 70	 mov	 WORD PTR [eax+esi*2], cx
  00093	8d 46 01	 lea	 eax, DWORD PTR [esi+1]
  00096	5e		 pop	 esi

; 166  : 	}
; 167  : 
; 168  : 	return dest;
; 169  : }

  00097	5b		 pop	 ebx
  00098	5d		 pop	 ebp
  00099	c3		 ret	 0
$LN17@EL_String_:
  0009a	8b c6		 mov	 eax, esi
  0009c	5e		 pop	 esi
  0009d	5b		 pop	 ebx
  0009e	5d		 pop	 ebp
  0009f	c3		 ret	 0
?EL_String_Decode_Vietnamese@@YAHPBDHPA_WH@Z ENDP	; EL_String_Decode_Vietnamese
_TEXT	ENDS
END
