; Listing generated by Microsoft (R) Optimizing Compiler Version 19.27.29112.0 

	TITLE	C:\DS Project\DS Files\Source\ClientSource\Client\EterLocale\StringCodec.cpp
	.686P
	.XMM
	include listing.inc
	.model	flat

INCLUDELIB LIBCMT
INCLUDELIB OLDNAMES

PUBLIC	?Ymir_WideCharToMultiByte@@YAHIKPB_WHPADHPBDPAH@Z ; Ymir_WideCharToMultiByte
PUBLIC	?Ymir_MultiByteToWideChar@@YAHIKPBDHPA_WH@Z	; Ymir_MultiByteToWideChar
EXTRN	__imp__MultiByteToWideChar@24:PROC
EXTRN	__imp__WideCharToMultiByte@32:PROC
EXTRN	?EL_String_Decode_Vietnamese@@YAHPBDHPA_WH@Z:PROC ; EL_String_Decode_Vietnamese
EXTRN	?EL_String_Encode_Vietnamese@@YAHPB_WHPADH@Z:PROC ; EL_String_Encode_Vietnamese
; Function compile flags: /Ogtp
; File C:\DS Project\DS Files\Source\ClientSource\Client\EterLocale\StringCodec.cpp
;	COMDAT ?Ymir_MultiByteToWideChar@@YAHIKPBDHPA_WH@Z
_TEXT	SEGMENT
_CodePage$ = 8						; size = 4
_dwFlags$ = 12						; size = 4
_lpMultiByteStr$ = 16					; size = 4
_cbMultiByte$ = 20					; size = 4
_lpWideCharStr$ = 24					; size = 4
_cchWideChar$ = 28					; size = 4
?Ymir_MultiByteToWideChar@@YAHIKPBDHPA_WH@Z PROC	; Ymir_MultiByteToWideChar, COMDAT

; 34   : {

  00000	55		 push	 ebp
  00001	8b ec		 mov	 ebp, esp

; 35   : 	if (CodePage == CP_1258)

  00003	ff 75 1c	 push	 DWORD PTR _cchWideChar$[ebp]
  00006	8b 45 08	 mov	 eax, DWORD PTR _CodePage$[ebp]
  00009	ff 75 18	 push	 DWORD PTR _lpWideCharStr$[ebp]
  0000c	ff 75 14	 push	 DWORD PTR _cbMultiByte$[ebp]
  0000f	ff 75 10	 push	 DWORD PTR _lpMultiByteStr$[ebp]
  00012	3d ea 04 00 00	 cmp	 eax, 1258		; 000004eaH
  00017	75 0a		 jne	 SHORT $LN2@Ymir_Multi

; 36   : 	{
; 37   : 		return EL_String_Decode_Vietnamese(lpMultiByteStr, cbMultiByte, lpWideCharStr, cchWideChar);

  00019	e8 00 00 00 00	 call	 ?EL_String_Decode_Vietnamese@@YAHPBDHPA_WH@Z ; EL_String_Decode_Vietnamese
  0001e	83 c4 10	 add	 esp, 16			; 00000010H

; 42   : 	}
; 43   : }

  00021	5d		 pop	 ebp
  00022	c3		 ret	 0
$LN2@Ymir_Multi:

; 38   : 	}
; 39   : 	else
; 40   : 	{
; 41   : 		return MultiByteToWideChar(CodePage, dwFlags, lpMultiByteStr, cbMultiByte, lpWideCharStr, cchWideChar);

  00023	ff 75 0c	 push	 DWORD PTR _dwFlags$[ebp]
  00026	50		 push	 eax
  00027	ff 15 00 00 00
	00		 call	 DWORD PTR __imp__MultiByteToWideChar@24

; 42   : 	}
; 43   : }

  0002d	5d		 pop	 ebp
  0002e	c3		 ret	 0
?Ymir_MultiByteToWideChar@@YAHIKPBDHPA_WH@Z ENDP	; Ymir_MultiByteToWideChar
_TEXT	ENDS
; Function compile flags: /Ogtp
; File C:\DS Project\DS Files\Source\ClientSource\Client\EterLocale\StringCodec.cpp
;	COMDAT ?Ymir_WideCharToMultiByte@@YAHIKPB_WHPADHPBDPAH@Z
_TEXT	SEGMENT
_CodePage$ = 8						; size = 4
_dwFlags$ = 12						; size = 4
_lpWideCharStr$ = 16					; size = 4
_cchWideChar$ = 20					; size = 4
_lpMultiByteStr$ = 24					; size = 4
_cbMultiByte$ = 28					; size = 4
_lpDefaultChar$ = 32					; size = 4
_lpUsedDefaultChar$ = 36				; size = 4
?Ymir_WideCharToMultiByte@@YAHIKPB_WHPADHPBDPAH@Z PROC	; Ymir_WideCharToMultiByte, COMDAT

; 15   : {

  00000	55		 push	 ebp
  00001	8b ec		 mov	 ebp, esp

; 16   : 	if (CodePage == CP_1258)

  00003	8b 45 08	 mov	 eax, DWORD PTR _CodePage$[ebp]
  00006	3d ea 04 00 00	 cmp	 eax, 1258		; 000004eaH
  0000b	75 16		 jne	 SHORT $LN2@Ymir_WideC

; 17   : 	{
; 18   : 		return EL_String_Encode_Vietnamese(lpWideCharStr, cchWideChar, lpMultiByteStr, cbMultiByte);

  0000d	ff 75 1c	 push	 DWORD PTR _cbMultiByte$[ebp]
  00010	ff 75 18	 push	 DWORD PTR _lpMultiByteStr$[ebp]
  00013	ff 75 14	 push	 DWORD PTR _cchWideChar$[ebp]
  00016	ff 75 10	 push	 DWORD PTR _lpWideCharStr$[ebp]
  00019	e8 00 00 00 00	 call	 ?EL_String_Encode_Vietnamese@@YAHPB_WHPADH@Z ; EL_String_Encode_Vietnamese
  0001e	83 c4 10	 add	 esp, 16			; 00000010H

; 23   : 	}
; 24   : }

  00021	5d		 pop	 ebp
  00022	c3		 ret	 0
$LN2@Ymir_WideC:

; 19   : 	}
; 20   : 	else
; 21   : 	{
; 22   : 		return WideCharToMultiByte(CodePage, dwFlags, lpWideCharStr, cchWideChar, lpMultiByteStr, cbMultiByte, lpDefaultChar, lpUsedDefaultChar);

  00023	ff 75 24	 push	 DWORD PTR _lpUsedDefaultChar$[ebp]
  00026	ff 75 20	 push	 DWORD PTR _lpDefaultChar$[ebp]
  00029	ff 75 1c	 push	 DWORD PTR _cbMultiByte$[ebp]
  0002c	ff 75 18	 push	 DWORD PTR _lpMultiByteStr$[ebp]
  0002f	ff 75 14	 push	 DWORD PTR _cchWideChar$[ebp]
  00032	ff 75 10	 push	 DWORD PTR _lpWideCharStr$[ebp]
  00035	ff 75 0c	 push	 DWORD PTR _dwFlags$[ebp]
  00038	50		 push	 eax
  00039	ff 15 00 00 00
	00		 call	 DWORD PTR __imp__WideCharToMultiByte@32

; 23   : 	}
; 24   : }

  0003f	5d		 pop	 ebp
  00040	c3		 ret	 0
?Ymir_WideCharToMultiByte@@YAHIKPB_WHPADHPBDPAH@Z ENDP	; Ymir_WideCharToMultiByte
_TEXT	ENDS
END
