; Listing generated by Microsoft (R) Optimizing Compiler Version 19.27.29112.0 

	TITLE	C:\DS Project\DS Files\Source\ClientSource\Client\EterPack\EterPack.cpp
	.686P
	.XMM
	include listing.inc
	.model	flat

INCLUDELIB LIBCMT
INCLUDELIB OLDNAMES

CONST	SEGMENT
?c_IndexCC@eterpack@@3KB DD 0444b5045H			; eterpack::c_IndexCC
?c_Version@eterpack@@3KB DD 02H				; eterpack::c_Version
?piecewise_construct@std@@3Upiecewise_construct_t@1@B	ORG $+1 ; std::piecewise_construct
CONST	ENDS
PUBLIC	___local_stdio_printf_options
PUBLIC	_printf
PUBLIC	??0exception@std@@QAE@ABV01@@Z			; std::exception::exception
PUBLIC	??1exception@std@@UAE@XZ			; std::exception::~exception
PUBLIC	?what@exception@std@@UBEPBDXZ			; std::exception::what
PUBLIC	??_Gexception@std@@UAEPAXI@Z			; std::exception::`scalar deleting destructor'
PUBLIC	??0bad_alloc@std@@QAE@ABV01@@Z			; std::bad_alloc::bad_alloc
PUBLIC	??_Gbad_alloc@std@@UAEPAXI@Z			; std::bad_alloc::`scalar deleting destructor'
PUBLIC	??0bad_array_new_length@std@@QAE@XZ		; std::bad_array_new_length::bad_array_new_length
PUBLIC	??1bad_array_new_length@std@@UAE@XZ		; std::bad_array_new_length::~bad_array_new_length
PUBLIC	??0bad_array_new_length@std@@QAE@ABV01@@Z	; std::bad_array_new_length::bad_array_new_length
PUBLIC	??_Gbad_array_new_length@std@@UAEPAXI@Z		; std::bad_array_new_length::`scalar deleting destructor'
PUBLIC	?_Throw_bad_array_new_length@std@@YAXXZ		; std::_Throw_bad_array_new_length
PUBLIC	?_Xlen_string@std@@YAXXZ			; std::_Xlen_string
PUBLIC	?_Xran@?$_String_val@U?$_Simple_types@D@std@@@std@@SAXXZ ; std::_String_val<std::_Simple_types<char> >::_Xran
PUBLIC	??0?$basic_string@DU?$char_traits@D@std@@V?$allocator@D@2@@std@@QAE@ABV01@@Z ; std::basic_string<char,std::char_traits<char>,std::allocator<char> >::basic_string<char,std::char_traits<char>,std::allocator<char> >
PUBLIC	??0?$basic_string@DU?$char_traits@D@std@@V?$allocator@D@2@@std@@QAE@QBD@Z ; std::basic_string<char,std::char_traits<char>,std::allocator<char> >::basic_string<char,std::char_traits<char>,std::allocator<char> >
PUBLIC	??0?$basic_string@DU?$char_traits@D@std@@V?$allocator@D@2@@std@@QAE@U_String_constructor_concat_tag@1@ABV01@QBDI2I@Z ; std::basic_string<char,std::char_traits<char>,std::allocator<char> >::basic_string<char,std::char_traits<char>,std::allocator<char> >
PUBLIC	??1?$basic_string@DU?$char_traits@D@std@@V?$allocator@D@2@@std@@QAE@XZ ; std::basic_string<char,std::char_traits<char>,std::allocator<char> >::~basic_string<char,std::char_traits<char>,std::allocator<char> >
PUBLIC	?append@?$basic_string@DU?$char_traits@D@std@@V?$allocator@D@2@@std@@QAEAAV12@QBDI@Z ; std::basic_string<char,std::char_traits<char>,std::allocator<char> >::append
PUBLIC	?assign@?$basic_string@DU?$char_traits@D@std@@V?$allocator@D@2@@std@@QAEAAV12@QBDI@Z ; std::basic_string<char,std::char_traits<char>,std::allocator<char> >::assign
PUBLIC	?insert@?$basic_string@DU?$char_traits@D@std@@V?$allocator@D@2@@std@@QAEAAV12@IQBDI@Z ; std::basic_string<char,std::char_traits<char>,std::allocator<char> >::insert
PUBLIC	?reserve@?$basic_string@DU?$char_traits@D@std@@V?$allocator@D@2@@std@@QAEXI@Z ; std::basic_string<char,std::char_traits<char>,std::allocator<char> >::reserve
PUBLIC	??0?$basic_string@_WU?$char_traits@_W@std@@V?$allocator@_W@2@@std@@QAE@ABV01@@Z ; std::basic_string<wchar_t,std::char_traits<wchar_t>,std::allocator<wchar_t> >::basic_string<wchar_t,std::char_traits<wchar_t>,std::allocator<wchar_t> >
PUBLIC	??4?$basic_string@_WU?$char_traits@_W@std@@V?$allocator@_W@2@@std@@QAEAAV01@$$QAV01@@Z ; std::basic_string<wchar_t,std::char_traits<wchar_t>,std::allocator<wchar_t> >::operator=
PUBLIC	??1?$basic_string@_WU?$char_traits@_W@std@@V?$allocator@_W@2@@std@@QAE@XZ ; std::basic_string<wchar_t,std::char_traits<wchar_t>,std::allocator<wchar_t> >::~basic_string<wchar_t,std::char_traits<wchar_t>,std::allocator<wchar_t> >
PUBLIC	??1bad_cast@std@@UAE@XZ				; std::bad_cast::~bad_cast
PUBLIC	??0bad_cast@std@@QAE@ABV01@@Z			; std::bad_cast::bad_cast
PUBLIC	??_Gbad_cast@std@@UAEPAXI@Z			; std::bad_cast::`scalar deleting destructor'
PUBLIC	??0runtime_error@std@@QAE@ABV01@@Z		; std::runtime_error::runtime_error
PUBLIC	??_Gruntime_error@std@@UAEPAXI@Z		; std::runtime_error::`scalar deleting destructor'
PUBLIC	?make_error_code@std@@YA?AVerror_code@1@W4io_errc@1@@Z ; std::make_error_code
PUBLIC	??1error_category@std@@UAE@XZ			; std::error_category::~error_category
PUBLIC	?default_error_condition@error_category@std@@UBE?AVerror_condition@2@H@Z ; std::error_category::default_error_condition
PUBLIC	?equivalent@error_category@std@@UBE_NHABVerror_condition@2@@Z ; std::error_category::equivalent
PUBLIC	?equivalent@error_category@std@@UBE_NABVerror_code@2@H@Z ; std::error_category::equivalent
PUBLIC	??0_System_error@std@@IAE@Verror_code@1@ABV?$basic_string@DU?$char_traits@D@std@@V?$allocator@D@2@@1@@Z ; std::_System_error::_System_error
PUBLIC	??0_System_error@std@@QAE@ABV01@@Z		; std::_System_error::_System_error
PUBLIC	??_G_System_error@std@@UAEPAXI@Z		; std::_System_error::`scalar deleting destructor'
PUBLIC	??1system_error@std@@UAE@XZ			; std::system_error::~system_error
PUBLIC	??0system_error@std@@QAE@ABV01@@Z		; std::system_error::system_error
PUBLIC	??_Gsystem_error@std@@UAEPAXI@Z			; std::system_error::`scalar deleting destructor'
PUBLIC	?name@_Iostream_error_category2@std@@UBEPBDXZ	; std::_Iostream_error_category2::name
PUBLIC	?message@_Iostream_error_category2@std@@UBE?AV?$basic_string@DU?$char_traits@D@std@@V?$allocator@D@2@@2@H@Z ; std::_Iostream_error_category2::message
PUBLIC	??_G_Iostream_error_category2@std@@UAEPAXI@Z	; std::_Iostream_error_category2::`scalar deleting destructor'
PUBLIC	??$_Immortalize_memcpy_image@V_Iostream_error_category2@std@@@std@@YAABV_Iostream_error_category2@0@XZ ; std::_Immortalize_memcpy_image<std::_Iostream_error_category2>
PUBLIC	??$hash_value@K@boost@@YAIK@Z			; boost::hash_value<unsigned long>
PUBLIC	?InsertItem@CEterFileDict@@QAEXPAVCEterPack@@PAUSEterPackIndex@@@Z ; CEterFileDict::InsertItem
PUBLIC	?UpdateItem@CEterFileDict@@QAEXPAVCEterPack@@PAUSEterPackIndex@@@Z ; CEterFileDict::UpdateItem
PUBLIC	?GetItem@CEterFileDict@@QAEPAUItem@1@KPBD@Z	; CEterFileDict::GetItem
PUBLIC	?min_buckets_for_size@?$table@U?$map@V?$allocator@U?$pair@$$CBKUItem@CEterFileDict@@@std@@@std@@KUItem@CEterFileDict@@U?$hash@K@boost@@U?$equal_to@K@2@@detail@unordered@boost@@@detail@unordered@boost@@QBEII@Z ; boost::unordered::detail::table<boost::unordered::detail::map<std::allocator<std::pair<unsigned long const ,CEterFileDict::Item> >,unsigned long,CEterFileDict::Item,boost::hash<unsigned long>,std::equal_to<unsigned long> > >::min_buckets_for_size
PUBLIC	?create_buckets@?$table@U?$map@V?$allocator@U?$pair@$$CBKUItem@CEterFileDict@@@std@@@std@@KUItem@CEterFileDict@@U?$hash@K@boost@@U?$equal_to@K@2@@detail@unordered@boost@@@detail@unordered@boost@@QAEXI@Z ; boost::unordered::detail::table<boost::unordered::detail::map<std::allocator<std::pair<unsigned long const ,CEterFileDict::Item> >,unsigned long,CEterFileDict::Item,boost::hash<unsigned long>,std::equal_to<unsigned long> > >::create_buckets
PUBLIC	?rehash_impl@?$table@U?$map@V?$allocator@U?$pair@$$CBKUItem@CEterFileDict@@@std@@@std@@KUItem@CEterFileDict@@U?$hash@K@boost@@U?$equal_to@K@2@@detail@unordered@boost@@@detail@unordered@boost@@QAEXI@Z ; boost::unordered::detail::table<boost::unordered::detail::map<std::allocator<std::pair<unsigned long const ,CEterFileDict::Item> >,unsigned long,CEterFileDict::Item,boost::hash<unsigned long>,std::equal_to<unsigned long> > >::rehash_impl
PUBLIC	?emplace_equiv@?$table@U?$map@V?$allocator@U?$pair@$$CBKUItem@CEterFileDict@@@std@@@std@@KUItem@CEterFileDict@@U?$hash@K@boost@@U?$equal_to@K@2@@detail@unordered@boost@@@detail@unordered@boost@@QAE?AU?$iterator@U?$ptr_node@U?$pair@$$CBKUItem@CEterFileDict@@@std@@@detail@unordered@boost@@@iterator_detail@34@PAU?$ptr_node@U?$pair@$$CBKUItem@CEterFileDict@@@std@@@234@@Z ; boost::unordered::detail::table<boost::unordered::detail::map<std::allocator<std::pair<unsigned long const ,CEterFileDict::Item> >,unsigned long,CEterFileDict::Item,boost::hash<unsigned long>,std::equal_to<unsigned long> > >::emplace_equiv
PUBLIC	?insert@?$unordered_multimap@KUItem@CEterFileDict@@U?$hash@K@boost@@U?$equal_to@K@std@@V?$allocator@U?$pair@$$CBKUItem@CEterFileDict@@@std@@@6@@unordered@boost@@QAE?AU?$iterator@U?$ptr_node@U?$pair@$$CBKUItem@CEterFileDict@@@std@@@detail@unordered@boost@@@iterator_detail@23@$$QAU?$pair@$$CBKUItem@CEterFileDict@@@std@@@Z ; boost::unordered::unordered_multimap<unsigned long,CEterFileDict::Item,boost::hash<unsigned long>,std::equal_to<unsigned long>,std::allocator<std::pair<unsigned long const ,CEterFileDict::Item> > >::insert
PUBLIC	?find@?$unordered_multimap@KUItem@CEterFileDict@@U?$hash@K@boost@@U?$equal_to@K@std@@V?$allocator@U?$pair@$$CBKUItem@CEterFileDict@@@std@@@6@@unordered@boost@@QAE?AU?$iterator@U?$ptr_node@U?$pair@$$CBKUItem@CEterFileDict@@@std@@@detail@unordered@boost@@@iterator_detail@23@ABK@Z ; boost::unordered::unordered_multimap<unsigned long,CEterFileDict::Item,boost::hash<unsigned long>,std::equal_to<unsigned long>,std::allocator<std::pair<unsigned long const ,CEterFileDict::Item> > >::find
PUBLIC	?equal_range@?$unordered_multimap@KUItem@CEterFileDict@@U?$hash@K@boost@@U?$equal_to@K@std@@V?$allocator@U?$pair@$$CBKUItem@CEterFileDict@@@std@@@6@@unordered@boost@@QAE?AU?$pair@U?$iterator@U?$ptr_node@U?$pair@$$CBKUItem@CEterFileDict@@@std@@@detail@unordered@boost@@@iterator_detail@unordered@boost@@U1234@@std@@ABK@Z ; boost::unordered::unordered_multimap<unsigned long,CEterFileDict::Item,boost::hash<unsigned long>,std::equal_to<unsigned long>,std::allocator<std::pair<unsigned long const ,CEterFileDict::Item> > >::equal_range
PUBLIC	??0CEterPack@@QAE@XZ				; CEterPack::CEterPack
PUBLIC	??1CEterPack@@UAE@XZ				; CEterPack::~CEterPack
PUBLIC	?Destroy@CEterPack@@QAEXXZ			; CEterPack::Destroy
PUBLIC	?Create@CEterPack@@QAE_NAAVCEterFileDict@@PBD1_NPBE@Z ; CEterPack::Create
PUBLIC	?DecryptIV@CEterPack@@QAE_NK@Z			; CEterPack::DecryptIV
PUBLIC	?GetPathName@CEterPack@@QAEABV?$basic_string@DU?$char_traits@D@std@@V?$allocator@D@2@@std@@XZ ; CEterPack::GetPathName
PUBLIC	?GetDBName@CEterPack@@QAEPBDXZ			; CEterPack::GetDBName
PUBLIC	?Get@CEterPack@@QAE_NAAVCMappedFile@@PBDPAPBX@Z	; CEterPack::Get
PUBLIC	?Get2@CEterPack@@QAE_NAAVCMappedFile@@PBDPAUSEterPackIndex@@PAPBX@Z ; CEterPack::Get2
PUBLIC	?Put@CEterPack@@QAE_NPBD0EABV?$basic_string@DU?$char_traits@D@std@@V?$allocator@D@2@@std@@@Z ; CEterPack::Put
PUBLIC	?Put@CEterPack@@QAE_NPBDPBXJE@Z			; CEterPack::Put
PUBLIC	?Delete@CEterPack@@QAE_NPBD@Z			; CEterPack::Delete
PUBLIC	?Extract@CEterPack@@QAE_NXZ			; CEterPack::Extract
PUBLIC	?GetFragmentSize@CEterPack@@QAEJXZ		; CEterPack::GetFragmentSize
PUBLIC	?IsExist@CEterPack@@QAE_NPBD@Z			; CEterPack::IsExist
PUBLIC	?GetIndexMap@CEterPack@@QAEAAV?$unordered_map@KPAUSEterPackIndex@@U?$hash@K@boost@@U?$equal_to@K@std@@V?$allocator@U?$pair@$$CBKPAUSEterPackIndex@@@std@@@5@@unordered@boost@@XZ ; CEterPack::GetIndexMap
PUBLIC	?EncryptIndexFile@CEterPack@@QAE_NXZ		; CEterPack::EncryptIndexFile
PUBLIC	?DecryptIndexFile@CEterPack@@QAE_NXZ		; CEterPack::DecryptIndexFile
PUBLIC	?DeleteUnreferencedData@CEterPack@@QAEKXZ	; CEterPack::DeleteUnreferencedData
PUBLIC	?GetNames@CEterPack@@QAE_NPAV?$vector@V?$basic_string@DU?$char_traits@D@std@@V?$allocator@D@2@@std@@V?$allocator@V?$basic_string@DU?$char_traits@D@std@@V?$allocator@D@2@@std@@@2@@std@@@Z ; CEterPack::GetNames
PUBLIC	?GetPackPolicy_HybridCrypt@CEterPack@@QBEPAVEterPackPolicy_CSHybridCrypt@@XZ ; CEterPack::GetPackPolicy_HybridCrypt
PUBLIC	?__BuildIndex@CEterPack@@AAE_NAAVCEterFileDict@@_N@Z ; CEterPack::__BuildIndex
PUBLIC	?CreateIndexFile@CEterPack@@AAE_NXZ		; CEterPack::CreateIndexFile
PUBLIC	?FindIndex@CEterPack@@AAEPAUSEterPackIndex@@PBD@Z ; CEterPack::FindIndex
PUBLIC	?GetNewIndexPosition@CEterPack@@AAEJAAVCFileBase@@@Z ; CEterPack::GetNewIndexPosition
PUBLIC	?NewIndex@CEterPack@@AAEPAUSEterPackIndex@@AAVCFileBase@@PBDJ@Z ; CEterPack::NewIndex
PUBLIC	?WriteIndex@CEterPack@@AAEXAAVCFileBase@@PAUSEterPackIndex@@@Z ; CEterPack::WriteIndex
PUBLIC	?GetFreeBlockIndex@CEterPack@@AAEHJ@Z		; CEterPack::GetFreeBlockIndex
PUBLIC	?PushFreeIndex@CEterPack@@AAEXPAUSEterPackIndex@@@Z ; CEterPack::PushFreeIndex
PUBLIC	?CreateDataFile@CEterPack@@AAE_NXZ		; CEterPack::CreateDataFile
PUBLIC	?GetNewDataPosition@CEterPack@@AAEJAAVCFileBase@@@Z ; CEterPack::GetNewDataPosition
PUBLIC	?ReadData@CEterPack@@AAE_NAAVCFileBase@@PAUSEterPackIndex@@PAXJ@Z ; CEterPack::ReadData
PUBLIC	?WriteData@CEterPack@@AAE_NAAVCFileBase@@PAUSEterPackIndex@@PBX@Z ; CEterPack::WriteData
PUBLIC	?WriteNewData@CEterPack@@AAE_NAAVCFileBase@@PAUSEterPackIndex@@PBX@Z ; CEterPack::WriteNewData
PUBLIC	?Delete@CEterPack@@AAE_NPAUSEterPackIndex@@@Z	; CEterPack::Delete
PUBLIC	?min_buckets_for_size@?$table@U?$map@V?$allocator@U?$pair@$$CBKK@std@@@std@@KKU?$hash@K@boost@@U?$equal_to@K@2@@detail@unordered@boost@@@detail@unordered@boost@@QBEII@Z ; boost::unordered::detail::table<boost::unordered::detail::map<std::allocator<std::pair<unsigned long const ,unsigned long> >,unsigned long,unsigned long,boost::hash<unsigned long>,std::equal_to<unsigned long> > >::min_buckets_for_size
PUBLIC	?create_buckets@?$table@U?$map@V?$allocator@U?$pair@$$CBKK@std@@@std@@KKU?$hash@K@boost@@U?$equal_to@K@2@@detail@unordered@boost@@@detail@unordered@boost@@QAEXI@Z ; boost::unordered::detail::table<boost::unordered::detail::map<std::allocator<std::pair<unsigned long const ,unsigned long> >,unsigned long,unsigned long,boost::hash<unsigned long>,std::equal_to<unsigned long> > >::create_buckets
PUBLIC	??1?$table@U?$map@V?$allocator@U?$pair@$$CBKK@std@@@std@@KKU?$hash@K@boost@@U?$equal_to@K@2@@detail@unordered@boost@@@detail@unordered@boost@@QAE@XZ ; boost::unordered::detail::table<boost::unordered::detail::map<std::allocator<std::pair<unsigned long const ,unsigned long> >,unsigned long,unsigned long,boost::hash<unsigned long>,std::equal_to<unsigned long> > >::~table<boost::unordered::detail::map<std::allocator<std::pair<unsigned long const ,unsigned long> >,unsigned long,unsigned long,boost::hash<unsigned long>,std::equal_to<unsigned long> > >
PUBLIC	?rehash_impl@?$table@U?$map@V?$allocator@U?$pair@$$CBKK@std@@@std@@KKU?$hash@K@boost@@U?$equal_to@K@2@@detail@unordered@boost@@@detail@unordered@boost@@QAEXI@Z ; boost::unordered::detail::table<boost::unordered::detail::map<std::allocator<std::pair<unsigned long const ,unsigned long> >,unsigned long,unsigned long,boost::hash<unsigned long>,std::equal_to<unsigned long> > >::rehash_impl
PUBLIC	??0?$unordered_map@KKU?$hash@K@boost@@U?$equal_to@K@std@@V?$allocator@U?$pair@$$CBKK@std@@@4@@unordered@boost@@QAE@XZ ; boost::unordered::unordered_map<unsigned long,unsigned long,boost::hash<unsigned long>,std::equal_to<unsigned long>,std::allocator<std::pair<unsigned long const ,unsigned long> > >::unordered_map<unsigned long,unsigned long,boost::hash<unsigned long>,std::equal_to<unsigned long>,std::allocator<std::pair<unsigned long const ,unsigned long> > >
PUBLIC	??1?$unordered_map@KKU?$hash@K@boost@@U?$equal_to@K@std@@V?$allocator@U?$pair@$$CBKK@std@@@4@@unordered@boost@@QAE@XZ ; boost::unordered::unordered_map<unsigned long,unsigned long,boost::hash<unsigned long>,std::equal_to<unsigned long>,std::allocator<std::pair<unsigned long const ,unsigned long> > >::~unordered_map<unsigned long,unsigned long,boost::hash<unsigned long>,std::equal_to<unsigned long>,std::allocator<std::pair<unsigned long const ,unsigned long> > >
PUBLIC	??A?$unordered_map@KKU?$hash@K@boost@@U?$equal_to@K@std@@V?$allocator@U?$pair@$$CBKK@std@@@4@@unordered@boost@@QAEAAKABK@Z ; boost::unordered::unordered_map<unsigned long,unsigned long,boost::hash<unsigned long>,std::equal_to<unsigned long>,std::allocator<std::pair<unsigned long const ,unsigned long> > >::operator[]
PUBLIC	?min_buckets_for_size@?$table@U?$map@V?$allocator@U?$pair@$$CBKPAUSEterPackIndex@@@std@@@std@@KPAUSEterPackIndex@@U?$hash@K@boost@@U?$equal_to@K@2@@detail@unordered@boost@@@detail@unordered@boost@@QBEII@Z ; boost::unordered::detail::table<boost::unordered::detail::map<std::allocator<std::pair<unsigned long const ,SEterPackIndex *> >,unsigned long,SEterPackIndex *,boost::hash<unsigned long>,std::equal_to<unsigned long> > >::min_buckets_for_size
PUBLIC	?create_buckets@?$table@U?$map@V?$allocator@U?$pair@$$CBKPAUSEterPackIndex@@@std@@@std@@KPAUSEterPackIndex@@U?$hash@K@boost@@U?$equal_to@K@2@@detail@unordered@boost@@@detail@unordered@boost@@QAEXI@Z ; boost::unordered::detail::table<boost::unordered::detail::map<std::allocator<std::pair<unsigned long const ,SEterPackIndex *> >,unsigned long,SEterPackIndex *,boost::hash<unsigned long>,std::equal_to<unsigned long> > >::create_buckets
PUBLIC	??1?$table@U?$map@V?$allocator@U?$pair@$$CBKPAUSEterPackIndex@@@std@@@std@@KPAUSEterPackIndex@@U?$hash@K@boost@@U?$equal_to@K@2@@detail@unordered@boost@@@detail@unordered@boost@@QAE@XZ ; boost::unordered::detail::table<boost::unordered::detail::map<std::allocator<std::pair<unsigned long const ,SEterPackIndex *> >,unsigned long,SEterPackIndex *,boost::hash<unsigned long>,std::equal_to<unsigned long> > >::~table<boost::unordered::detail::map<std::allocator<std::pair<unsigned long const ,SEterPackIndex *> >,unsigned long,SEterPackIndex *,boost::hash<unsigned long>,std::equal_to<unsigned long> > >
PUBLIC	?rehash_impl@?$table@U?$map@V?$allocator@U?$pair@$$CBKPAUSEterPackIndex@@@std@@@std@@KPAUSEterPackIndex@@U?$hash@K@boost@@U?$equal_to@K@2@@detail@unordered@boost@@@detail@unordered@boost@@QAEXI@Z ; boost::unordered::detail::table<boost::unordered::detail::map<std::allocator<std::pair<unsigned long const ,SEterPackIndex *> >,unsigned long,SEterPackIndex *,boost::hash<unsigned long>,std::equal_to<unsigned long> > >::rehash_impl
PUBLIC	??0?$unordered_map@KPAUSEterPackIndex@@U?$hash@K@boost@@U?$equal_to@K@std@@V?$allocator@U?$pair@$$CBKPAUSEterPackIndex@@@std@@@5@@unordered@boost@@QAE@XZ ; boost::unordered::unordered_map<unsigned long,SEterPackIndex *,boost::hash<unsigned long>,std::equal_to<unsigned long>,std::allocator<std::pair<unsigned long const ,SEterPackIndex *> > >::unordered_map<unsigned long,SEterPackIndex *,boost::hash<unsigned long>,std::equal_to<unsigned long>,std::allocator<std::pair<unsigned long const ,SEterPackIndex *> > >
PUBLIC	??1?$unordered_map@KPAUSEterPackIndex@@U?$hash@K@boost@@U?$equal_to@K@std@@V?$allocator@U?$pair@$$CBKPAUSEterPackIndex@@@std@@@5@@unordered@boost@@QAE@XZ ; boost::unordered::unordered_map<unsigned long,SEterPackIndex *,boost::hash<unsigned long>,std::equal_to<unsigned long>,std::allocator<std::pair<unsigned long const ,SEterPackIndex *> > >::~unordered_map<unsigned long,SEterPackIndex *,boost::hash<unsigned long>,std::equal_to<unsigned long>,std::allocator<std::pair<unsigned long const ,SEterPackIndex *> > >
PUBLIC	?erase@?$unordered_map@KPAUSEterPackIndex@@U?$hash@K@boost@@U?$equal_to@K@std@@V?$allocator@U?$pair@$$CBKPAUSEterPackIndex@@@std@@@5@@unordered@boost@@QAE?AU?$iterator@U?$ptr_node@U?$pair@$$CBKPAUSEterPackIndex@@@std@@@detail@unordered@boost@@@iterator_detail@23@U4523@@Z ; boost::unordered::unordered_map<unsigned long,SEterPackIndex *,boost::hash<unsigned long>,std::equal_to<unsigned long>,std::allocator<std::pair<unsigned long const ,SEterPackIndex *> > >::erase
PUBLIC	?find@?$unordered_map@KPAUSEterPackIndex@@U?$hash@K@boost@@U?$equal_to@K@std@@V?$allocator@U?$pair@$$CBKPAUSEterPackIndex@@@std@@@5@@unordered@boost@@QAE?AU?$iterator@U?$ptr_node@U?$pair@$$CBKPAUSEterPackIndex@@@std@@@detail@unordered@boost@@@iterator_detail@23@ABK@Z ; boost::unordered::unordered_map<unsigned long,SEterPackIndex *,boost::hash<unsigned long>,std::equal_to<unsigned long>,std::allocator<std::pair<unsigned long const ,SEterPackIndex *> > >::find
PUBLIC	??0?$list@PAUSEterPackIndex@@V?$allocator@PAUSEterPackIndex@@@std@@@std@@QAE@XZ ; std::list<SEterPackIndex *,std::allocator<SEterPackIndex *> >::list<SEterPackIndex *,std::allocator<SEterPackIndex *> >
PUBLIC	??1?$list@PAUSEterPackIndex@@V?$allocator@PAUSEterPackIndex@@@std@@@std@@QAE@XZ ; std::list<SEterPackIndex *,std::allocator<SEterPackIndex *> >::~list<SEterPackIndex *,std::allocator<SEterPackIndex *> >
PUBLIC	?__CreateFileNameKey_Panama@CEterPack@@AAEXPBDPAEI@Z ; CEterPack::__CreateFileNameKey_Panama
PUBLIC	?__Decrypt_Panama@CEterPack@@AAE_NPBDPBEKAAVCLZObject@@@Z ; CEterPack::__Decrypt_Panama
PUBLIC	?__Encrypt_Panama@CEterPack@@AAE_NPBDPBEKAAVCLZObject@@@Z ; CEterPack::__Encrypt_Panama
PUBLIC	??_GCEterPack@@UAEPAXI@Z			; CEterPack::`scalar deleting destructor'
PUBLIC	?GetSingleton@CMakePackLog@@SAAAV1@XZ		; CMakePackLog::GetSingleton
PUBLIC	??0CMakePackLog@@QAE@XZ				; CMakePackLog::CMakePackLog
PUBLIC	??1CMakePackLog@@QAE@XZ				; CMakePackLog::~CMakePackLog
PUBLIC	?SetFileName@CMakePackLog@@QAEXPBD@Z		; CMakePackLog::SetFileName
PUBLIC	?Writef@CMakePackLog@@QAAXPBDZZ			; CMakePackLog::Writef
PUBLIC	?Writenf@CMakePackLog@@QAAXPBDZZ		; CMakePackLog::Writenf
PUBLIC	?Write@CMakePackLog@@QAEXPBD@Z			; CMakePackLog::Write
PUBLIC	?WriteErrorf@CMakePackLog@@QAAXPBDZZ		; CMakePackLog::WriteErrorf
PUBLIC	?WriteErrornf@CMakePackLog@@QAAXPBDZZ		; CMakePackLog::WriteErrornf
PUBLIC	?WriteError@CMakePackLog@@QAEXPBD@Z		; CMakePackLog::WriteError
PUBLIC	?FlushError@CMakePackLog@@QAEXXZ		; CMakePackLog::FlushError
PUBLIC	?__Write@CMakePackLog@@AAEXPBDH@Z		; CMakePackLog::__Write
PUBLIC	?__WriteError@CMakePackLog@@AAEXPBDH@Z		; CMakePackLog::__WriteError
PUBLIC	?__IsLogMode@CMakePackLog@@AAE_NXZ		; CMakePackLog::__IsLogMode
PUBLIC	??1Exception@CryptoPP@@UAE@XZ			; CryptoPP::Exception::~Exception
PUBLIC	?what@Exception@CryptoPP@@UBEPBDXZ		; CryptoPP::Exception::what
PUBLIC	??0Exception@CryptoPP@@QAE@ABV01@@Z		; CryptoPP::Exception::Exception
PUBLIC	??_GException@CryptoPP@@UAEPAXI@Z		; CryptoPP::Exception::`scalar deleting destructor'
PUBLIC	??0InvalidArgument@CryptoPP@@QAE@ABV?$basic_string@DU?$char_traits@D@std@@V?$allocator@D@2@@std@@@Z ; CryptoPP::InvalidArgument::InvalidArgument
PUBLIC	??1InvalidArgument@CryptoPP@@UAE@XZ		; CryptoPP::InvalidArgument::~InvalidArgument
PUBLIC	??0InvalidArgument@CryptoPP@@QAE@ABV01@@Z	; CryptoPP::InvalidArgument::InvalidArgument
PUBLIC	??_GInvalidArgument@CryptoPP@@UAEPAXI@Z		; CryptoPP::InvalidArgument::`scalar deleting destructor'
PUBLIC	??0NotImplemented@CryptoPP@@QAE@ABV?$basic_string@DU?$char_traits@D@std@@V?$allocator@D@2@@std@@@Z ; CryptoPP::NotImplemented::NotImplemented
PUBLIC	??1NotImplemented@CryptoPP@@UAE@XZ		; CryptoPP::NotImplemented::~NotImplemented
PUBLIC	??0NotImplemented@CryptoPP@@QAE@ABV01@@Z	; CryptoPP::NotImplemented::NotImplemented
PUBLIC	??_GNotImplemented@CryptoPP@@UAEPAXI@Z		; CryptoPP::NotImplemented::`scalar deleting destructor'
PUBLIC	??1NameValuePairs@CryptoPP@@UAE@XZ		; CryptoPP::NameValuePairs::~NameValuePairs
PUBLIC	??0ValueTypeMismatch@NameValuePairs@CryptoPP@@QAE@ABV?$basic_string@DU?$char_traits@D@std@@V?$allocator@D@2@@std@@ABVtype_info@@1@Z ; CryptoPP::NameValuePairs::ValueTypeMismatch::ValueTypeMismatch
PUBLIC	??1ValueTypeMismatch@NameValuePairs@CryptoPP@@UAE@XZ ; CryptoPP::NameValuePairs::ValueTypeMismatch::~ValueTypeMismatch
PUBLIC	??0ValueTypeMismatch@NameValuePairs@CryptoPP@@QAE@ABV012@@Z ; CryptoPP::NameValuePairs::ValueTypeMismatch::ValueTypeMismatch
PUBLIC	??_GValueTypeMismatch@NameValuePairs@CryptoPP@@UAEPAXI@Z ; CryptoPP::NameValuePairs::ValueTypeMismatch::`scalar deleting destructor'
PUBLIC	?ThrowIfTypeMismatch@NameValuePairs@CryptoPP@@SAXPBDABVtype_info@@1@Z ; CryptoPP::NameValuePairs::ThrowIfTypeMismatch
PUBLIC	??_GNameValuePairs@CryptoPP@@UAEPAXI@Z		; CryptoPP::NameValuePairs::`scalar deleting destructor'
PUBLIC	??$?HDU?$char_traits@D@std@@V?$allocator@D@1@@std@@YA?AV?$basic_string@DU?$char_traits@D@std@@V?$allocator@D@2@@0@QBDABV10@@Z ; std::operator+<char,std::char_traits<char>,std::allocator<char> >
PUBLIC	??$?HDU?$char_traits@D@std@@V?$allocator@D@1@@std@@YA?AV?$basic_string@DU?$char_traits@D@std@@V?$allocator@D@2@@0@$$QAV10@QBD@Z ; std::operator+<char,std::char_traits<char>,std::allocator<char> >
PUBLIC	??1Clonable@CryptoPP@@UAE@XZ			; CryptoPP::Clonable::~Clonable
PUBLIC	?Clone@Clonable@CryptoPP@@UBEPAV12@XZ		; CryptoPP::Clonable::Clone
PUBLIC	??1Algorithm@CryptoPP@@UAE@XZ			; CryptoPP::Algorithm::~Algorithm
PUBLIC	?AlgorithmName@Algorithm@CryptoPP@@UBE?AV?$basic_string@DU?$char_traits@D@std@@V?$allocator@D@2@@std@@XZ ; CryptoPP::Algorithm::AlgorithmName
PUBLIC	?AlgorithmProvider@Algorithm@CryptoPP@@UBE?AV?$basic_string@DU?$char_traits@D@std@@V?$allocator@D@2@@std@@XZ ; CryptoPP::Algorithm::AlgorithmProvider
PUBLIC	??1SimpleKeyingInterface@CryptoPP@@UAE@XZ	; CryptoPP::SimpleKeyingInterface::~SimpleKeyingInterface
PUBLIC	?IsValidKeyLength@SimpleKeyingInterface@CryptoPP@@UBE_NI@Z ; CryptoPP::SimpleKeyingInterface::IsValidKeyLength
PUBLIC	?IVSize@SimpleKeyingInterface@CryptoPP@@UBEIXZ	; CryptoPP::SimpleKeyingInterface::IVSize
PUBLIC	?MinIVLength@SimpleKeyingInterface@CryptoPP@@UBEIXZ ; CryptoPP::SimpleKeyingInterface::MinIVLength
PUBLIC	?MaxIVLength@SimpleKeyingInterface@CryptoPP@@UBEIXZ ; CryptoPP::SimpleKeyingInterface::MaxIVLength
PUBLIC	??1StreamTransformation@CryptoPP@@UAE@XZ	; CryptoPP::StreamTransformation::~StreamTransformation
PUBLIC	?MandatoryBlockSize@StreamTransformation@CryptoPP@@UBEIXZ ; CryptoPP::StreamTransformation::MandatoryBlockSize
PUBLIC	?GetOptimalBlockSizeUsed@StreamTransformation@CryptoPP@@UBEIXZ ; CryptoPP::StreamTransformation::GetOptimalBlockSizeUsed
PUBLIC	?MinLastBlockSize@StreamTransformation@CryptoPP@@UBEIXZ ; CryptoPP::StreamTransformation::MinLastBlockSize
PUBLIC	?IsLastBlockSpecial@StreamTransformation@CryptoPP@@UBE_NXZ ; CryptoPP::StreamTransformation::IsLastBlockSpecial
PUBLIC	??1HashTransformation@CryptoPP@@UAE@XZ		; CryptoPP::HashTransformation::~HashTransformation
PUBLIC	?Final@HashTransformation@CryptoPP@@UAEXPAE@Z	; CryptoPP::HashTransformation::Final
PUBLIC	?CalculateDigest@HashTransformation@CryptoPP@@UAEXPAEPBEI@Z ; CryptoPP::HashTransformation::CalculateDigest
PUBLIC	?Verify@HashTransformation@CryptoPP@@UAE_NPBE@Z	; CryptoPP::HashTransformation::Verify
PUBLIC	?VerifyDigest@HashTransformation@CryptoPP@@UAE_NPBE0I@Z ; CryptoPP::HashTransformation::VerifyDigest
PUBLIC	?CalculateTruncatedDigest@HashTransformation@CryptoPP@@UAEXPAEIPBEI@Z ; CryptoPP::HashTransformation::CalculateTruncatedDigest
PUBLIC	?VerifyTruncatedDigest@HashTransformation@CryptoPP@@UAE_NPBEI0I@Z ; CryptoPP::HashTransformation::VerifyTruncatedDigest
PUBLIC	?GetAlgorithm@SymmetricCipher@CryptoPP@@MBEABVAlgorithm@2@XZ ; CryptoPP::SymmetricCipher::GetAlgorithm
PUBLIC	??1RandomNumberGenerator@CryptoPP@@UAE@XZ	; CryptoPP::RandomNumberGenerator::~RandomNumberGenerator
PUBLIC	?IncorporateEntropy@RandomNumberGenerator@CryptoPP@@UAEXPBEI@Z ; CryptoPP::RandomNumberGenerator::IncorporateEntropy
PUBLIC	?CanIncorporateEntropy@RandomNumberGenerator@CryptoPP@@UBE_NXZ ; CryptoPP::RandomNumberGenerator::CanIncorporateEntropy
PUBLIC	??1Waitable@CryptoPP@@UAE@XZ			; CryptoPP::Waitable::~Waitable
PUBLIC	??1BufferedTransformation@CryptoPP@@UAE@XZ	; CryptoPP::BufferedTransformation::~BufferedTransformation
PUBLIC	?CreatePutSpace@BufferedTransformation@CryptoPP@@UAEPAEAAI@Z ; CryptoPP::BufferedTransformation::CreatePutSpace
PUBLIC	?CanModifyInput@BufferedTransformation@CryptoPP@@UBE_NXZ ; CryptoPP::BufferedTransformation::CanModifyInput
PUBLIC	?PutModifiable2@BufferedTransformation@CryptoPP@@UAEIPAEIH_N@Z ; CryptoPP::BufferedTransformation::PutModifiable2
PUBLIC	?IsolatedMessageSeriesEnd@BufferedTransformation@CryptoPP@@UAE_N_N@Z ; CryptoPP::BufferedTransformation::IsolatedMessageSeriesEnd
PUBLIC	?SetAutoSignalPropagation@BufferedTransformation@CryptoPP@@UAEXH@Z ; CryptoPP::BufferedTransformation::SetAutoSignalPropagation
PUBLIC	?GetAutoSignalPropagation@BufferedTransformation@CryptoPP@@UBEHXZ ; CryptoPP::BufferedTransformation::GetAutoSignalPropagation
PUBLIC	?GetNextMessageSeries@BufferedTransformation@CryptoPP@@UAE_NXZ ; CryptoPP::BufferedTransformation::GetNextMessageSeries
PUBLIC	?NumberOfMessagesInThisSeries@BufferedTransformation@CryptoPP@@UBEIXZ ; CryptoPP::BufferedTransformation::NumberOfMessagesInThisSeries
PUBLIC	?NumberOfMessageSeries@BufferedTransformation@CryptoPP@@UBEIXZ ; CryptoPP::BufferedTransformation::NumberOfMessageSeries
PUBLIC	?Attachable@BufferedTransformation@CryptoPP@@UAE_NXZ ; CryptoPP::BufferedTransformation::Attachable
PUBLIC	?AttachedTransformation@BufferedTransformation@CryptoPP@@UAEPAV12@XZ ; CryptoPP::BufferedTransformation::AttachedTransformation
PUBLIC	?AttachedTransformation@BufferedTransformation@CryptoPP@@UBEPBV12@XZ ; CryptoPP::BufferedTransformation::AttachedTransformation
PUBLIC	?Detach@BufferedTransformation@CryptoPP@@UAEXPAV12@@Z ; CryptoPP::BufferedTransformation::Detach
PUBLIC	?Put2@?$InputRejecting@VBufferedTransformation@CryptoPP@@@CryptoPP@@UAEIPBEIH_N@Z ; CryptoPP::InputRejecting<CryptoPP::BufferedTransformation>::Put2
PUBLIC	?IsolatedFlush@?$InputRejecting@VBufferedTransformation@CryptoPP@@@CryptoPP@@UAE_N_N0@Z ; CryptoPP::InputRejecting<CryptoPP::BufferedTransformation>::IsolatedFlush
PUBLIC	?IsolatedMessageSeriesEnd@?$InputRejecting@VBufferedTransformation@CryptoPP@@@CryptoPP@@UAE_N_N@Z ; CryptoPP::InputRejecting<CryptoPP::BufferedTransformation>::IsolatedMessageSeriesEnd
PUBLIC	?ChannelPut2@?$InputRejecting@VBufferedTransformation@CryptoPP@@@CryptoPP@@UAEIABV?$basic_string@DU?$char_traits@D@std@@V?$allocator@D@2@@std@@PBEIH_N@Z ; CryptoPP::InputRejecting<CryptoPP::BufferedTransformation>::ChannelPut2
PUBLIC	?ChannelMessageSeriesEnd@?$InputRejecting@VBufferedTransformation@CryptoPP@@@CryptoPP@@UAE_NABV?$basic_string@DU?$char_traits@D@std@@V?$allocator@D@2@@std@@H_N@Z ; CryptoPP::InputRejecting<CryptoPP::BufferedTransformation>::ChannelMessageSeriesEnd
PUBLIC	?SetAutoSignalPropagation@?$AutoSignaling@V?$InputRejecting@VBufferedTransformation@CryptoPP@@@CryptoPP@@@CryptoPP@@UAEXH@Z ; CryptoPP::AutoSignaling<CryptoPP::InputRejecting<CryptoPP::BufferedTransformation> >::SetAutoSignalPropagation
PUBLIC	?GetAutoSignalPropagation@?$AutoSignaling@V?$InputRejecting@VBufferedTransformation@CryptoPP@@@CryptoPP@@@CryptoPP@@UBEHXZ ; CryptoPP::AutoSignaling<CryptoPP::InputRejecting<CryptoPP::BufferedTransformation> >::GetAutoSignalPropagation
PUBLIC	?IsolatedInitialize@Store@CryptoPP@@UAEXABVNameValuePairs@2@@Z ; CryptoPP::Store::IsolatedInitialize
PUBLIC	?NumberOfMessages@Store@CryptoPP@@UBEIXZ	; CryptoPP::Store::NumberOfMessages
PUBLIC	?TransferTo2@Sink@CryptoPP@@UAEIAAVBufferedTransformation@2@AA_KABV?$basic_string@DU?$char_traits@D@std@@V?$allocator@D@2@@std@@_N@Z ; CryptoPP::Sink::TransferTo2
PUBLIC	?CopyRangeTo2@Sink@CryptoPP@@UBEIAAVBufferedTransformation@2@AA_K_KABV?$basic_string@DU?$char_traits@D@std@@V?$allocator@D@2@@std@@_N@Z ; CryptoPP::Sink::CopyRangeTo2
PUBLIC	?IsolatedFlush@?$Bufferless@VSink@CryptoPP@@@CryptoPP@@UAE_N_N0@Z ; CryptoPP::Bufferless<CryptoPP::Sink>::IsolatedFlush
PUBLIC	??1?$table@U?$map@V?$allocator@U?$pair@$$CBKUSCSHybridCryptKey@EterPackPolicy_CSHybridCrypt@@@std@@@std@@KUSCSHybridCryptKey@EterPackPolicy_CSHybridCrypt@@U?$hash@K@boost@@U?$equal_to@K@2@@detail@unordered@boost@@@detail@unordered@boost@@QAE@XZ ; boost::unordered::detail::table<boost::unordered::detail::map<std::allocator<std::pair<unsigned long const ,EterPackPolicy_CSHybridCrypt::SCSHybridCryptKey> >,unsigned long,EterPackPolicy_CSHybridCrypt::SCSHybridCryptKey,boost::hash<unsigned long>,std::equal_to<unsigned long> > >::~table<boost::unordered::detail::map<std::allocator<std::pair<unsigned long const ,EterPackPolicy_CSHybridCrypt::SCSHybridCryptKey> >,unsigned long,EterPackPolicy_CSHybridCrypt::SCSHybridCryptKey,boost::hash<unsigned long>,std::equal_to<unsigned long> > >
PUBLIC	??0?$unordered_map@KUSCSHybridCryptKey@EterPackPolicy_CSHybridCrypt@@U?$hash@K@boost@@U?$equal_to@K@std@@V?$allocator@U?$pair@$$CBKUSCSHybridCryptKey@EterPackPolicy_CSHybridCrypt@@@std@@@6@@unordered@boost@@QAE@XZ ; boost::unordered::unordered_map<unsigned long,EterPackPolicy_CSHybridCrypt::SCSHybridCryptKey,boost::hash<unsigned long>,std::equal_to<unsigned long>,std::allocator<std::pair<unsigned long const ,EterPackPolicy_CSHybridCrypt::SCSHybridCryptKey> > >::unordered_map<unsigned long,EterPackPolicy_CSHybridCrypt::SCSHybridCryptKey,boost::hash<unsigned long>,std::equal_to<unsigned long>,std::allocator<std::pair<unsigned long const ,EterPackPolicy_CSHybridCrypt::SCSHybridCryptKey> > >
PUBLIC	??1?$unordered_map@KUSCSHybridCryptKey@EterPackPolicy_CSHybridCrypt@@U?$hash@K@boost@@U?$equal_to@K@std@@V?$allocator@U?$pair@$$CBKUSCSHybridCryptKey@EterPackPolicy_CSHybridCrypt@@@std@@@6@@unordered@boost@@QAE@XZ ; boost::unordered::unordered_map<unsigned long,EterPackPolicy_CSHybridCrypt::SCSHybridCryptKey,boost::hash<unsigned long>,std::equal_to<unsigned long>,std::allocator<std::pair<unsigned long const ,EterPackPolicy_CSHybridCrypt::SCSHybridCryptKey> > >::~unordered_map<unsigned long,EterPackPolicy_CSHybridCrypt::SCSHybridCryptKey,boost::hash<unsigned long>,std::equal_to<unsigned long>,std::allocator<std::pair<unsigned long const ,EterPackPolicy_CSHybridCrypt::SCSHybridCryptKey> > >
PUBLIC	??1?$table@U?$map@V?$allocator@U?$pair@$$CBKUSSupplementaryDataBlockInfo@EterPackPolicy_CSHybridCrypt@@@std@@@std@@KUSSupplementaryDataBlockInfo@EterPackPolicy_CSHybridCrypt@@U?$hash@K@boost@@U?$equal_to@K@2@@detail@unordered@boost@@@detail@unordered@boost@@QAE@XZ ; boost::unordered::detail::table<boost::unordered::detail::map<std::allocator<std::pair<unsigned long const ,EterPackPolicy_CSHybridCrypt::SSupplementaryDataBlockInfo> >,unsigned long,EterPackPolicy_CSHybridCrypt::SSupplementaryDataBlockInfo,boost::hash<unsigned long>,std::equal_to<unsigned long> > >::~table<boost::unordered::detail::map<std::allocator<std::pair<unsigned long const ,EterPackPolicy_CSHybridCrypt::SSupplementaryDataBlockInfo> >,unsigned long,EterPackPolicy_CSHybridCrypt::SSupplementaryDataBlockInfo,boost::hash<unsigned long>,std::equal_to<unsigned long> > >
PUBLIC	??0?$unordered_map@KUSSupplementaryDataBlockInfo@EterPackPolicy_CSHybridCrypt@@U?$hash@K@boost@@U?$equal_to@K@std@@V?$allocator@U?$pair@$$CBKUSSupplementaryDataBlockInfo@EterPackPolicy_CSHybridCrypt@@@std@@@6@@unordered@boost@@QAE@XZ ; boost::unordered::unordered_map<unsigned long,EterPackPolicy_CSHybridCrypt::SSupplementaryDataBlockInfo,boost::hash<unsigned long>,std::equal_to<unsigned long>,std::allocator<std::pair<unsigned long const ,EterPackPolicy_CSHybridCrypt::SSupplementaryDataBlockInfo> > >::unordered_map<unsigned long,EterPackPolicy_CSHybridCrypt::SSupplementaryDataBlockInfo,boost::hash<unsigned long>,std::equal_to<unsigned long>,std::allocator<std::pair<unsigned long const ,EterPackPolicy_CSHybridCrypt::SSupplementaryDataBlockInfo> > >
PUBLIC	??1?$unordered_map@KUSSupplementaryDataBlockInfo@EterPackPolicy_CSHybridCrypt@@U?$hash@K@boost@@U?$equal_to@K@std@@V?$allocator@U?$pair@$$CBKUSSupplementaryDataBlockInfo@EterPackPolicy_CSHybridCrypt@@@std@@@6@@unordered@boost@@QAE@XZ ; boost::unordered::unordered_map<unsigned long,EterPackPolicy_CSHybridCrypt::SSupplementaryDataBlockInfo,boost::hash<unsigned long>,std::equal_to<unsigned long>,std::allocator<std::pair<unsigned long const ,EterPackPolicy_CSHybridCrypt::SSupplementaryDataBlockInfo> > >::~unordered_map<unsigned long,EterPackPolicy_CSHybridCrypt::SSupplementaryDataBlockInfo,boost::hash<unsigned long>,std::equal_to<unsigned long>,std::allocator<std::pair<unsigned long const ,EterPackPolicy_CSHybridCrypt::SSupplementaryDataBlockInfo> > >
PUBLIC	??1?$SecBlock@EV?$AllocatorWithCleanup@E$0A@@CryptoPP@@@CryptoPP@@QAE@XZ ; CryptoPP::SecBlock<unsigned char,CryptoPP::AllocatorWithCleanup<unsigned char,0> >::~SecBlock<unsigned char,CryptoPP::AllocatorWithCleanup<unsigned char,0> >
PUBLIC	??1ConstByteArrayParameter@CryptoPP@@QAE@XZ	; CryptoPP::ConstByteArrayParameter::~ConstByteArrayParameter
PUBLIC	??0ConstByteArrayParameter@CryptoPP@@QAE@ABV01@@Z ; CryptoPP::ConstByteArrayParameter::ConstByteArrayParameter
PUBLIC	??0ParameterNotUsed@AlgorithmParametersBase@CryptoPP@@QAE@PBD@Z ; CryptoPP::AlgorithmParametersBase::ParameterNotUsed::ParameterNotUsed
PUBLIC	??1ParameterNotUsed@AlgorithmParametersBase@CryptoPP@@UAE@XZ ; CryptoPP::AlgorithmParametersBase::ParameterNotUsed::~ParameterNotUsed
PUBLIC	??0ParameterNotUsed@AlgorithmParametersBase@CryptoPP@@QAE@ABV012@@Z ; CryptoPP::AlgorithmParametersBase::ParameterNotUsed::ParameterNotUsed
PUBLIC	??_GParameterNotUsed@AlgorithmParametersBase@CryptoPP@@UAEPAXI@Z ; CryptoPP::AlgorithmParametersBase::ParameterNotUsed::`scalar deleting destructor'
PUBLIC	??1AlgorithmParametersBase@CryptoPP@@UAE@XZ	; CryptoPP::AlgorithmParametersBase::~AlgorithmParametersBase
PUBLIC	??1?$member_ptr@VAlgorithmParametersBase@CryptoPP@@@CryptoPP@@QAE@XZ ; CryptoPP::member_ptr<CryptoPP::AlgorithmParametersBase>::~member_ptr<CryptoPP::AlgorithmParametersBase>
PUBLIC	?reset@?$member_ptr@VAlgorithmParametersBase@CryptoPP@@@CryptoPP@@QAEXPAVAlgorithmParametersBase@2@@Z ; CryptoPP::member_ptr<CryptoPP::AlgorithmParametersBase>::reset
PUBLIC	??_GAlgorithmParametersBase@CryptoPP@@UAEPAXI@Z	; CryptoPP::AlgorithmParametersBase::`scalar deleting destructor'
PUBLIC	?AssignValue@?$AlgorithmParametersTemplate@VConstByteArrayParameter@CryptoPP@@@CryptoPP@@UBEXPBDABVtype_info@@PAX@Z ; CryptoPP::AlgorithmParametersTemplate<CryptoPP::ConstByteArrayParameter>::AssignValue
PUBLIC	?MoveInto@?$AlgorithmParametersTemplate@VConstByteArrayParameter@CryptoPP@@@CryptoPP@@UBEXPAX@Z ; CryptoPP::AlgorithmParametersTemplate<CryptoPP::ConstByteArrayParameter>::MoveInto
PUBLIC	??_G?$AlgorithmParametersTemplate@VConstByteArrayParameter@CryptoPP@@@CryptoPP@@UAEPAXI@Z ; CryptoPP::AlgorithmParametersTemplate<CryptoPP::ConstByteArrayParameter>::`scalar deleting destructor'
PUBLIC	??1AlgorithmParameters@CryptoPP@@UAE@XZ		; CryptoPP::AlgorithmParameters::~AlgorithmParameters
PUBLIC	??1Filter@CryptoPP@@UAE@XZ			; CryptoPP::Filter::~Filter
PUBLIC	?Attachable@Filter@CryptoPP@@UAE_NXZ		; CryptoPP::Filter::Attachable
PUBLIC	?ShouldPropagateMessageEnd@Filter@CryptoPP@@MBE_NXZ ; CryptoPP::Filter::ShouldPropagateMessageEnd
PUBLIC	?ShouldPropagateMessageSeriesEnd@Filter@CryptoPP@@MBE_NXZ ; CryptoPP::Filter::ShouldPropagateMessageSeriesEnd
PUBLIC	??1?$member_ptr@VBufferedTransformation@CryptoPP@@@CryptoPP@@QAE@XZ ; CryptoPP::member_ptr<CryptoPP::BufferedTransformation>::~member_ptr<CryptoPP::BufferedTransformation>
PUBLIC	??1?$StringSinkTemplate@V?$basic_string@DU?$char_traits@D@std@@V?$allocator@D@2@@std@@@CryptoPP@@UAE@XZ ; CryptoPP::StringSinkTemplate<std::basic_string<char,std::char_traits<char>,std::allocator<char> > >::~StringSinkTemplate<std::basic_string<char,std::char_traits<char>,std::allocator<char> > >
PUBLIC	?IsolatedInitialize@?$StringSinkTemplate@V?$basic_string@DU?$char_traits@D@std@@V?$allocator@D@2@@std@@@CryptoPP@@UAEXABVNameValuePairs@2@@Z ; CryptoPP::StringSinkTemplate<std::basic_string<char,std::char_traits<char>,std::allocator<char> > >::IsolatedInitialize
PUBLIC	?Put2@?$StringSinkTemplate@V?$basic_string@DU?$char_traits@D@std@@V?$allocator@D@2@@std@@@CryptoPP@@UAEIPBEIH_N@Z ; CryptoPP::StringSinkTemplate<std::basic_string<char,std::char_traits<char>,std::allocator<char> > >::Put2
PUBLIC	??_G?$StringSinkTemplate@V?$basic_string@DU?$char_traits@D@std@@V?$allocator@D@2@@std@@@CryptoPP@@UAEPAXI@Z ; CryptoPP::StringSinkTemplate<std::basic_string<char,std::char_traits<char>,std::allocator<char> > >::`scalar deleting destructor'
PUBLIC	??1ArraySink@CryptoPP@@UAE@XZ			; CryptoPP::ArraySink::~ArraySink
PUBLIC	??_GArraySink@CryptoPP@@UAEPAXI@Z		; CryptoPP::ArraySink::`scalar deleting destructor'
PUBLIC	??_GStringStore@CryptoPP@@UAEPAXI@Z		; CryptoPP::StringStore::`scalar deleting destructor'
PUBLIC	??$MakeParameters@VConstByteArrayParameter@CryptoPP@@@CryptoPP@@YA?AVAlgorithmParameters@0@PBDABVConstByteArrayParameter@0@_N@Z ; CryptoPP::MakeParameters<CryptoPP::ConstByteArrayParameter>
PUBLIC	?Put2@?$InputRejecting@VFilter@CryptoPP@@@CryptoPP@@UAEIPBEIH_N@Z ; CryptoPP::InputRejecting<CryptoPP::Filter>::Put2
PUBLIC	?IsolatedFlush@?$InputRejecting@VFilter@CryptoPP@@@CryptoPP@@UAE_N_N0@Z ; CryptoPP::InputRejecting<CryptoPP::Filter>::IsolatedFlush
PUBLIC	?IsolatedMessageSeriesEnd@?$InputRejecting@VFilter@CryptoPP@@@CryptoPP@@UAE_N_N@Z ; CryptoPP::InputRejecting<CryptoPP::Filter>::IsolatedMessageSeriesEnd
PUBLIC	?ChannelPut2@?$InputRejecting@VFilter@CryptoPP@@@CryptoPP@@UAEIABV?$basic_string@DU?$char_traits@D@std@@V?$allocator@D@2@@std@@PBEIH_N@Z ; CryptoPP::InputRejecting<CryptoPP::Filter>::ChannelPut2
PUBLIC	?ChannelMessageSeriesEnd@?$InputRejecting@VFilter@CryptoPP@@@CryptoPP@@UAE_NABV?$basic_string@DU?$char_traits@D@std@@V?$allocator@D@2@@std@@H_N@Z ; CryptoPP::InputRejecting<CryptoPP::Filter>::ChannelMessageSeriesEnd
PUBLIC	??1?$InputRejecting@VFilter@CryptoPP@@@CryptoPP@@UAE@XZ ; CryptoPP::InputRejecting<CryptoPP::Filter>::~InputRejecting<CryptoPP::Filter>
PUBLIC	??1Source@CryptoPP@@UAE@XZ			; CryptoPP::Source::~Source
PUBLIC	??1?$SourceTemplate@VStringStore@CryptoPP@@@CryptoPP@@UAE@XZ ; CryptoPP::SourceTemplate<CryptoPP::StringStore>::~SourceTemplate<CryptoPP::StringStore>
PUBLIC	??0?$SourceTemplate@VStringStore@CryptoPP@@@CryptoPP@@QAE@PAVBufferedTransformation@1@@Z ; CryptoPP::SourceTemplate<CryptoPP::StringStore>::SourceTemplate<CryptoPP::StringStore>
PUBLIC	?IsolatedInitialize@?$SourceTemplate@VStringStore@CryptoPP@@@CryptoPP@@UAEXABVNameValuePairs@2@@Z ; CryptoPP::SourceTemplate<CryptoPP::StringStore>::IsolatedInitialize
PUBLIC	?Pump2@?$SourceTemplate@VStringStore@CryptoPP@@@CryptoPP@@UAEIAA_K_N@Z ; CryptoPP::SourceTemplate<CryptoPP::StringStore>::Pump2
PUBLIC	?PumpMessages2@?$SourceTemplate@VStringStore@CryptoPP@@@CryptoPP@@UAEIAAI_N@Z ; CryptoPP::SourceTemplate<CryptoPP::StringStore>::PumpMessages2
PUBLIC	?PumpAll2@?$SourceTemplate@VStringStore@CryptoPP@@@CryptoPP@@UAEI_N@Z ; CryptoPP::SourceTemplate<CryptoPP::StringStore>::PumpAll2
PUBLIC	?SourceExhausted@?$SourceTemplate@VStringStore@CryptoPP@@@CryptoPP@@UBE_NXZ ; CryptoPP::SourceTemplate<CryptoPP::StringStore>::SourceExhausted
PUBLIC	?SetAutoSignalPropagation@?$SourceTemplate@VStringStore@CryptoPP@@@CryptoPP@@UAEXH@Z ; CryptoPP::SourceTemplate<CryptoPP::StringStore>::SetAutoSignalPropagation
PUBLIC	?GetAutoSignalPropagation@?$SourceTemplate@VStringStore@CryptoPP@@@CryptoPP@@UBEHXZ ; CryptoPP::SourceTemplate<CryptoPP::StringStore>::GetAutoSignalPropagation
PUBLIC	??_G?$SourceTemplate@VStringStore@CryptoPP@@@CryptoPP@@UAEPAXI@Z ; CryptoPP::SourceTemplate<CryptoPP::StringStore>::`scalar deleting destructor'
PUBLIC	??0StringSource@CryptoPP@@QAE@PBEI_NPAVBufferedTransformation@1@@Z ; CryptoPP::StringSource::StringSource
PUBLIC	??0StringSource@CryptoPP@@QAE@ABV?$basic_string@DU?$char_traits@D@std@@V?$allocator@D@2@@std@@_NPAVBufferedTransformation@1@@Z ; CryptoPP::StringSource::StringSource
PUBLIC	??_GStringSource@CryptoPP@@UAEPAXI@Z		; CryptoPP::StringSource::`scalar deleting destructor'
PUBLIC	??1AdditiveCipherAbstractPolicy@CryptoPP@@UAE@XZ ; CryptoPP::AdditiveCipherAbstractPolicy::~AdditiveCipherAbstractPolicy
PUBLIC	?GetOptimalBlockSize@AdditiveCipherAbstractPolicy@CryptoPP@@UBEIXZ ; CryptoPP::AdditiveCipherAbstractPolicy::GetOptimalBlockSize
PUBLIC	?WriteKeystream@AdditiveCipherAbstractPolicy@CryptoPP@@UAEXPAEI@Z ; CryptoPP::AdditiveCipherAbstractPolicy::WriteKeystream
PUBLIC	?SeekToIteration@AdditiveCipherAbstractPolicy@CryptoPP@@UAEX_K@Z ; CryptoPP::AdditiveCipherAbstractPolicy::SeekToIteration
PUBLIC	??1?$AbstractPolicyHolder@UAdditiveCipherAbstractPolicy@CryptoPP@@VSymmetricCipher@2@@CryptoPP@@UAE@XZ ; CryptoPP::AbstractPolicyHolder<CryptoPP::AdditiveCipherAbstractPolicy,CryptoPP::SymmetricCipher>::~AbstractPolicyHolder<CryptoPP::AdditiveCipherAbstractPolicy,CryptoPP::SymmetricCipher>
PUBLIC	??1?$AdditiveCipherTemplate@V?$AbstractPolicyHolder@UAdditiveCipherAbstractPolicy@CryptoPP@@VSymmetricCipher@2@@CryptoPP@@@CryptoPP@@UAE@XZ ; CryptoPP::AdditiveCipherTemplate<CryptoPP::AbstractPolicyHolder<CryptoPP::AdditiveCipherAbstractPolicy,CryptoPP::SymmetricCipher> >::~AdditiveCipherTemplate<CryptoPP::AbstractPolicyHolder<CryptoPP::AdditiveCipherAbstractPolicy,CryptoPP::SymmetricCipher> >
PUBLIC	?OptimalBlockSize@?$AdditiveCipherTemplate@V?$AbstractPolicyHolder@UAdditiveCipherAbstractPolicy@CryptoPP@@VSymmetricCipher@2@@CryptoPP@@@CryptoPP@@UBEIXZ ; CryptoPP::AdditiveCipherTemplate<CryptoPP::AbstractPolicyHolder<CryptoPP::AdditiveCipherAbstractPolicy,CryptoPP::SymmetricCipher> >::OptimalBlockSize
PUBLIC	?OptimalDataAlignment@?$AdditiveCipherTemplate@V?$AbstractPolicyHolder@UAdditiveCipherAbstractPolicy@CryptoPP@@VSymmetricCipher@2@@CryptoPP@@@CryptoPP@@UBEIXZ ; CryptoPP::AdditiveCipherTemplate<CryptoPP::AbstractPolicyHolder<CryptoPP::AdditiveCipherAbstractPolicy,CryptoPP::SymmetricCipher> >::OptimalDataAlignment
PUBLIC	?IsSelfInverting@?$AdditiveCipherTemplate@V?$AbstractPolicyHolder@UAdditiveCipherAbstractPolicy@CryptoPP@@VSymmetricCipher@2@@CryptoPP@@@CryptoPP@@UBE_NXZ ; CryptoPP::AdditiveCipherTemplate<CryptoPP::AbstractPolicyHolder<CryptoPP::AdditiveCipherAbstractPolicy,CryptoPP::SymmetricCipher> >::IsSelfInverting
PUBLIC	?IsForwardTransformation@?$AdditiveCipherTemplate@V?$AbstractPolicyHolder@UAdditiveCipherAbstractPolicy@CryptoPP@@VSymmetricCipher@2@@CryptoPP@@@CryptoPP@@UBE_NXZ ; CryptoPP::AdditiveCipherTemplate<CryptoPP::AbstractPolicyHolder<CryptoPP::AdditiveCipherAbstractPolicy,CryptoPP::SymmetricCipher> >::IsForwardTransformation
PUBLIC	?IsRandomAccess@?$AdditiveCipherTemplate@V?$AbstractPolicyHolder@UAdditiveCipherAbstractPolicy@CryptoPP@@VSymmetricCipher@2@@CryptoPP@@@CryptoPP@@UBE_NXZ ; CryptoPP::AdditiveCipherTemplate<CryptoPP::AbstractPolicyHolder<CryptoPP::AdditiveCipherAbstractPolicy,CryptoPP::SymmetricCipher> >::IsRandomAccess
PUBLIC	?AlgorithmProvider@?$AdditiveCipherTemplate@V?$AbstractPolicyHolder@UAdditiveCipherAbstractPolicy@CryptoPP@@VSymmetricCipher@2@@CryptoPP@@@CryptoPP@@UBE?AV?$basic_string@DU?$char_traits@D@std@@V?$allocator@D@2@@std@@XZ ; CryptoPP::AdditiveCipherTemplate<CryptoPP::AbstractPolicyHolder<CryptoPP::AdditiveCipherAbstractPolicy,CryptoPP::SymmetricCipher> >::AlgorithmProvider
PUBLIC	??1?$IteratedHashBase@_KVHashTransformation@CryptoPP@@@CryptoPP@@UAE@XZ ; CryptoPP::IteratedHashBase<unsigned __int64,CryptoPP::HashTransformation>::~IteratedHashBase<unsigned __int64,CryptoPP::HashTransformation>
PUBLIC	?OptimalBlockSize@?$IteratedHashBase@_KVHashTransformation@CryptoPP@@@CryptoPP@@UBEIXZ ; CryptoPP::IteratedHashBase<unsigned __int64,CryptoPP::HashTransformation>::OptimalBlockSize
PUBLIC	?OptimalDataAlignment@?$IteratedHashBase@_KVHashTransformation@CryptoPP@@@CryptoPP@@UBEIXZ ; CryptoPP::IteratedHashBase<unsigned __int64,CryptoPP::HashTransformation>::OptimalDataAlignment
PUBLIC	??1?$IteratedHashBase@IVHashTransformation@CryptoPP@@@CryptoPP@@UAE@XZ ; CryptoPP::IteratedHashBase<unsigned int,CryptoPP::HashTransformation>::~IteratedHashBase<unsigned int,CryptoPP::HashTransformation>
PUBLIC	?OptimalBlockSize@?$IteratedHashBase@IVHashTransformation@CryptoPP@@@CryptoPP@@UBEIXZ ; CryptoPP::IteratedHashBase<unsigned int,CryptoPP::HashTransformation>::OptimalBlockSize
PUBLIC	?OptimalDataAlignment@?$IteratedHashBase@IVHashTransformation@CryptoPP@@@CryptoPP@@UBEIXZ ; CryptoPP::IteratedHashBase<unsigned int,CryptoPP::HashTransformation>::OptimalDataAlignment
PUBLIC	?AlgorithmProvider@?$IteratedHashBase@IVHashTransformation@CryptoPP@@@CryptoPP@@UBE?AV?$basic_string@DU?$char_traits@D@std@@V?$allocator@D@2@@std@@XZ ; CryptoPP::IteratedHashBase<unsigned int,CryptoPP::HashTransformation>::AlgorithmProvider
PUBLIC	??1?$IteratedHash@_KU?$EnumToType@W4ByteOrder@CryptoPP@@$0A@@CryptoPP@@$0EA@VHashTransformation@2@@CryptoPP@@UAE@XZ ; CryptoPP::IteratedHash<unsigned __int64,CryptoPP::EnumToType<enum CryptoPP::ByteOrder,0>,64,CryptoPP::HashTransformation>::~IteratedHash<unsigned __int64,CryptoPP::EnumToType<enum CryptoPP::ByteOrder,0>,64,CryptoPP::HashTransformation>
PUBLIC	?BlockSize@?$IteratedHash@_KU?$EnumToType@W4ByteOrder@CryptoPP@@$0A@@CryptoPP@@$0EA@VHashTransformation@2@@CryptoPP@@UBEIXZ ; CryptoPP::IteratedHash<unsigned __int64,CryptoPP::EnumToType<enum CryptoPP::ByteOrder,0>,64,CryptoPP::HashTransformation>::BlockSize
PUBLIC	?GetByteOrder@?$IteratedHash@_KU?$EnumToType@W4ByteOrder@CryptoPP@@$0A@@CryptoPP@@$0EA@VHashTransformation@2@@CryptoPP@@UBE?AW4ByteOrder@2@XZ ; CryptoPP::IteratedHash<unsigned __int64,CryptoPP::EnumToType<enum CryptoPP::ByteOrder,0>,64,CryptoPP::HashTransformation>::GetByteOrder
PUBLIC	?DataBuf@?$IteratedHash@_KU?$EnumToType@W4ByteOrder@CryptoPP@@$0A@@CryptoPP@@$0EA@VHashTransformation@2@@CryptoPP@@MAEPA_KXZ ; CryptoPP::IteratedHash<unsigned __int64,CryptoPP::EnumToType<enum CryptoPP::ByteOrder,0>,64,CryptoPP::HashTransformation>::DataBuf
PUBLIC	??0?$FixedSizeSecBlock@_K$07V?$FixedSizeAllocatorWithCleanup@_K$07V?$NullAllocator@_K@CryptoPP@@$0A@@CryptoPP@@@CryptoPP@@QAE@ABV01@@Z ; CryptoPP::FixedSizeSecBlock<unsigned __int64,8,CryptoPP::FixedSizeAllocatorWithCleanup<unsigned __int64,8,CryptoPP::NullAllocator<unsigned __int64>,0> >::FixedSizeSecBlock<unsigned __int64,8,CryptoPP::FixedSizeAllocatorWithCleanup<unsigned __int64,8,CryptoPP::NullAllocator<unsigned __int64>,0> >
PUBLIC	?AlgorithmName@?$AlgorithmImpl@V?$IteratedHash@_KU?$EnumToType@W4ByteOrder@CryptoPP@@$0A@@CryptoPP@@$0EA@VHashTransformation@2@@CryptoPP@@VTiger@2@@CryptoPP@@UBE?AV?$basic_string@DU?$char_traits@D@std@@V?$allocator@D@2@@std@@XZ ; CryptoPP::AlgorithmImpl<CryptoPP::IteratedHash<unsigned __int64,CryptoPP::EnumToType<enum CryptoPP::ByteOrder,0>,64,CryptoPP::HashTransformation>,CryptoPP::Tiger>::AlgorithmName
PUBLIC	?Clone@?$ClonableImpl@VTiger@CryptoPP@@V?$AlgorithmImpl@V?$IteratedHash@_KU?$EnumToType@W4ByteOrder@CryptoPP@@$0A@@CryptoPP@@$0EA@VHashTransformation@2@@CryptoPP@@VTiger@2@@2@@CryptoPP@@UBEPAVClonable@2@XZ ; CryptoPP::ClonableImpl<CryptoPP::Tiger,CryptoPP::AlgorithmImpl<CryptoPP::IteratedHash<unsigned __int64,CryptoPP::EnumToType<enum CryptoPP::ByteOrder,0>,64,CryptoPP::HashTransformation>,CryptoPP::Tiger> >::Clone
PUBLIC	??1?$ClonableImpl@VTiger@CryptoPP@@V?$AlgorithmImpl@V?$IteratedHash@_KU?$EnumToType@W4ByteOrder@CryptoPP@@$0A@@CryptoPP@@$0EA@VHashTransformation@2@@CryptoPP@@VTiger@2@@2@@CryptoPP@@UAE@XZ ; CryptoPP::ClonableImpl<CryptoPP::Tiger,CryptoPP::AlgorithmImpl<CryptoPP::IteratedHash<unsigned __int64,CryptoPP::EnumToType<enum CryptoPP::ByteOrder,0>,64,CryptoPP::HashTransformation>,CryptoPP::Tiger> >::~ClonableImpl<CryptoPP::Tiger,CryptoPP::AlgorithmImpl<CryptoPP::IteratedHash<unsigned __int64,CryptoPP::EnumToType<enum CryptoPP::ByteOrder,0>,64,CryptoPP::HashTransformation>,CryptoPP::Tiger> >
PUBLIC	??1?$IteratedHashWithStaticTransform@_KU?$EnumToType@W4ByteOrder@CryptoPP@@$0A@@CryptoPP@@$0EA@$0BI@VTiger@2@$0A@$0A@@CryptoPP@@UAE@XZ ; CryptoPP::IteratedHashWithStaticTransform<unsigned __int64,CryptoPP::EnumToType<enum CryptoPP::ByteOrder,0>,64,24,CryptoPP::Tiger,0,0>::~IteratedHashWithStaticTransform<unsigned __int64,CryptoPP::EnumToType<enum CryptoPP::ByteOrder,0>,64,24,CryptoPP::Tiger,0,0>
PUBLIC	?DigestSize@?$IteratedHashWithStaticTransform@_KU?$EnumToType@W4ByteOrder@CryptoPP@@$0A@@CryptoPP@@$0EA@$0BI@VTiger@2@$0A@$0A@@CryptoPP@@UBEIXZ ; CryptoPP::IteratedHashWithStaticTransform<unsigned __int64,CryptoPP::EnumToType<enum CryptoPP::ByteOrder,0>,64,24,CryptoPP::Tiger,0,0>::DigestSize
PUBLIC	?HashEndianCorrectedBlock@?$IteratedHashWithStaticTransform@_KU?$EnumToType@W4ByteOrder@CryptoPP@@$0A@@CryptoPP@@$0EA@$0BI@VTiger@2@$0A@$0A@@CryptoPP@@MAEXPB_K@Z ; CryptoPP::IteratedHashWithStaticTransform<unsigned __int64,CryptoPP::EnumToType<enum CryptoPP::ByteOrder,0>,64,24,CryptoPP::Tiger,0,0>::HashEndianCorrectedBlock
PUBLIC	?Init@?$IteratedHashWithStaticTransform@_KU?$EnumToType@W4ByteOrder@CryptoPP@@$0A@@CryptoPP@@$0EA@$0BI@VTiger@2@$0A@$0A@@CryptoPP@@MAEXXZ ; CryptoPP::IteratedHashWithStaticTransform<unsigned __int64,CryptoPP::EnumToType<enum CryptoPP::ByteOrder,0>,64,24,CryptoPP::Tiger,0,0>::Init
PUBLIC	?StateBuf@?$IteratedHashWithStaticTransform@_KU?$EnumToType@W4ByteOrder@CryptoPP@@$0A@@CryptoPP@@$0EA@$0BI@VTiger@2@$0A@$0A@@CryptoPP@@MAEPA_KXZ ; CryptoPP::IteratedHashWithStaticTransform<unsigned __int64,CryptoPP::EnumToType<enum CryptoPP::ByteOrder,0>,64,24,CryptoPP::Tiger,0,0>::StateBuf
PUBLIC	??1?$FixedSizeAlignedSecBlock@_K$07$0A@@CryptoPP@@QAE@XZ ; CryptoPP::FixedSizeAlignedSecBlock<unsigned __int64,8,0>::~FixedSizeAlignedSecBlock<unsigned __int64,8,0>
PUBLIC	??_GTiger@CryptoPP@@UAEPAXI@Z			; CryptoPP::Tiger::`scalar deleting destructor'
PUBLIC	??1?$IteratedHash@IU?$EnumToType@W4ByteOrder@CryptoPP@@$00@CryptoPP@@$0EA@VHashTransformation@2@@CryptoPP@@UAE@XZ ; CryptoPP::IteratedHash<unsigned int,CryptoPP::EnumToType<enum CryptoPP::ByteOrder,1>,64,CryptoPP::HashTransformation>::~IteratedHash<unsigned int,CryptoPP::EnumToType<enum CryptoPP::ByteOrder,1>,64,CryptoPP::HashTransformation>
PUBLIC	?BlockSize@?$IteratedHash@IU?$EnumToType@W4ByteOrder@CryptoPP@@$00@CryptoPP@@$0EA@VHashTransformation@2@@CryptoPP@@UBEIXZ ; CryptoPP::IteratedHash<unsigned int,CryptoPP::EnumToType<enum CryptoPP::ByteOrder,1>,64,CryptoPP::HashTransformation>::BlockSize
PUBLIC	?GetByteOrder@?$IteratedHash@IU?$EnumToType@W4ByteOrder@CryptoPP@@$00@CryptoPP@@$0EA@VHashTransformation@2@@CryptoPP@@UBE?AW4ByteOrder@2@XZ ; CryptoPP::IteratedHash<unsigned int,CryptoPP::EnumToType<enum CryptoPP::ByteOrder,1>,64,CryptoPP::HashTransformation>::GetByteOrder
PUBLIC	?DataBuf@?$IteratedHash@IU?$EnumToType@W4ByteOrder@CryptoPP@@$00@CryptoPP@@$0EA@VHashTransformation@2@@CryptoPP@@MAEPAIXZ ; CryptoPP::IteratedHash<unsigned int,CryptoPP::EnumToType<enum CryptoPP::ByteOrder,1>,64,CryptoPP::HashTransformation>::DataBuf
PUBLIC	??0?$FixedSizeSecBlock@I$0BA@V?$FixedSizeAllocatorWithCleanup@I$0BA@V?$NullAllocator@I@CryptoPP@@$0A@@CryptoPP@@@CryptoPP@@QAE@ABV01@@Z ; CryptoPP::FixedSizeSecBlock<unsigned int,16,CryptoPP::FixedSizeAllocatorWithCleanup<unsigned int,16,CryptoPP::NullAllocator<unsigned int>,0> >::FixedSizeSecBlock<unsigned int,16,CryptoPP::FixedSizeAllocatorWithCleanup<unsigned int,16,CryptoPP::NullAllocator<unsigned int>,0> >
PUBLIC	?AlgorithmName@?$AlgorithmImpl@V?$IteratedHash@IU?$EnumToType@W4ByteOrder@CryptoPP@@$00@CryptoPP@@$0EA@VHashTransformation@2@@CryptoPP@@VSHA1@2@@CryptoPP@@UBE?AV?$basic_string@DU?$char_traits@D@std@@V?$allocator@D@2@@std@@XZ ; CryptoPP::AlgorithmImpl<CryptoPP::IteratedHash<unsigned int,CryptoPP::EnumToType<enum CryptoPP::ByteOrder,1>,64,CryptoPP::HashTransformation>,CryptoPP::SHA1>::AlgorithmName
PUBLIC	?Clone@?$ClonableImpl@VSHA1@CryptoPP@@V?$AlgorithmImpl@V?$IteratedHash@IU?$EnumToType@W4ByteOrder@CryptoPP@@$00@CryptoPP@@$0EA@VHashTransformation@2@@CryptoPP@@VSHA1@2@@2@@CryptoPP@@UBEPAVClonable@2@XZ ; CryptoPP::ClonableImpl<CryptoPP::SHA1,CryptoPP::AlgorithmImpl<CryptoPP::IteratedHash<unsigned int,CryptoPP::EnumToType<enum CryptoPP::ByteOrder,1>,64,CryptoPP::HashTransformation>,CryptoPP::SHA1> >::Clone
PUBLIC	??1?$ClonableImpl@VSHA1@CryptoPP@@V?$AlgorithmImpl@V?$IteratedHash@IU?$EnumToType@W4ByteOrder@CryptoPP@@$00@CryptoPP@@$0EA@VHashTransformation@2@@CryptoPP@@VSHA1@2@@2@@CryptoPP@@UAE@XZ ; CryptoPP::ClonableImpl<CryptoPP::SHA1,CryptoPP::AlgorithmImpl<CryptoPP::IteratedHash<unsigned int,CryptoPP::EnumToType<enum CryptoPP::ByteOrder,1>,64,CryptoPP::HashTransformation>,CryptoPP::SHA1> >::~ClonableImpl<CryptoPP::SHA1,CryptoPP::AlgorithmImpl<CryptoPP::IteratedHash<unsigned int,CryptoPP::EnumToType<enum CryptoPP::ByteOrder,1>,64,CryptoPP::HashTransformation>,CryptoPP::SHA1> >
PUBLIC	??1?$IteratedHashWithStaticTransform@IU?$EnumToType@W4ByteOrder@CryptoPP@@$00@CryptoPP@@$0EA@$0BE@VSHA1@2@$0A@$0A@@CryptoPP@@UAE@XZ ; CryptoPP::IteratedHashWithStaticTransform<unsigned int,CryptoPP::EnumToType<enum CryptoPP::ByteOrder,1>,64,20,CryptoPP::SHA1,0,0>::~IteratedHashWithStaticTransform<unsigned int,CryptoPP::EnumToType<enum CryptoPP::ByteOrder,1>,64,20,CryptoPP::SHA1,0,0>
PUBLIC	?DigestSize@?$IteratedHashWithStaticTransform@IU?$EnumToType@W4ByteOrder@CryptoPP@@$00@CryptoPP@@$0EA@$0BE@VSHA1@2@$0A@$0A@@CryptoPP@@UBEIXZ ; CryptoPP::IteratedHashWithStaticTransform<unsigned int,CryptoPP::EnumToType<enum CryptoPP::ByteOrder,1>,64,20,CryptoPP::SHA1,0,0>::DigestSize
PUBLIC	?HashEndianCorrectedBlock@?$IteratedHashWithStaticTransform@IU?$EnumToType@W4ByteOrder@CryptoPP@@$00@CryptoPP@@$0EA@$0BE@VSHA1@2@$0A@$0A@@CryptoPP@@MAEXPBI@Z ; CryptoPP::IteratedHashWithStaticTransform<unsigned int,CryptoPP::EnumToType<enum CryptoPP::ByteOrder,1>,64,20,CryptoPP::SHA1,0,0>::HashEndianCorrectedBlock
PUBLIC	?Init@?$IteratedHashWithStaticTransform@IU?$EnumToType@W4ByteOrder@CryptoPP@@$00@CryptoPP@@$0EA@$0BE@VSHA1@2@$0A@$0A@@CryptoPP@@MAEXXZ ; CryptoPP::IteratedHashWithStaticTransform<unsigned int,CryptoPP::EnumToType<enum CryptoPP::ByteOrder,1>,64,20,CryptoPP::SHA1,0,0>::Init
PUBLIC	?StateBuf@?$IteratedHashWithStaticTransform@IU?$EnumToType@W4ByteOrder@CryptoPP@@$00@CryptoPP@@$0EA@$0BE@VSHA1@2@$0A@$0A@@CryptoPP@@MAEPAIXZ ; CryptoPP::IteratedHashWithStaticTransform<unsigned int,CryptoPP::EnumToType<enum CryptoPP::ByteOrder,1>,64,20,CryptoPP::SHA1,0,0>::StateBuf
PUBLIC	??1?$FixedSizeAlignedSecBlock@I$0BA@$0A@@CryptoPP@@QAE@XZ ; CryptoPP::FixedSizeAlignedSecBlock<unsigned int,16,0>::~FixedSizeAlignedSecBlock<unsigned int,16,0>
PUBLIC	??_GSHA1@CryptoPP@@UAEPAXI@Z			; CryptoPP::SHA1::`scalar deleting destructor'
PUBLIC	??1?$IteratedHash@IU?$EnumToType@W4ByteOrder@CryptoPP@@$0A@@CryptoPP@@$0EA@VHashTransformation@2@@CryptoPP@@UAE@XZ ; CryptoPP::IteratedHash<unsigned int,CryptoPP::EnumToType<enum CryptoPP::ByteOrder,0>,64,CryptoPP::HashTransformation>::~IteratedHash<unsigned int,CryptoPP::EnumToType<enum CryptoPP::ByteOrder,0>,64,CryptoPP::HashTransformation>
PUBLIC	?BlockSize@?$IteratedHash@IU?$EnumToType@W4ByteOrder@CryptoPP@@$0A@@CryptoPP@@$0EA@VHashTransformation@2@@CryptoPP@@UBEIXZ ; CryptoPP::IteratedHash<unsigned int,CryptoPP::EnumToType<enum CryptoPP::ByteOrder,0>,64,CryptoPP::HashTransformation>::BlockSize
PUBLIC	?GetByteOrder@?$IteratedHash@IU?$EnumToType@W4ByteOrder@CryptoPP@@$0A@@CryptoPP@@$0EA@VHashTransformation@2@@CryptoPP@@UBE?AW4ByteOrder@2@XZ ; CryptoPP::IteratedHash<unsigned int,CryptoPP::EnumToType<enum CryptoPP::ByteOrder,0>,64,CryptoPP::HashTransformation>::GetByteOrder
PUBLIC	?DataBuf@?$IteratedHash@IU?$EnumToType@W4ByteOrder@CryptoPP@@$0A@@CryptoPP@@$0EA@VHashTransformation@2@@CryptoPP@@MAEPAIXZ ; CryptoPP::IteratedHash<unsigned int,CryptoPP::EnumToType<enum CryptoPP::ByteOrder,0>,64,CryptoPP::HashTransformation>::DataBuf
PUBLIC	?AlgorithmName@?$AlgorithmImpl@V?$IteratedHash@IU?$EnumToType@W4ByteOrder@CryptoPP@@$0A@@CryptoPP@@$0EA@VHashTransformation@2@@CryptoPP@@VRIPEMD128@2@@CryptoPP@@UBE?AV?$basic_string@DU?$char_traits@D@std@@V?$allocator@D@2@@std@@XZ ; CryptoPP::AlgorithmImpl<CryptoPP::IteratedHash<unsigned int,CryptoPP::EnumToType<enum CryptoPP::ByteOrder,0>,64,CryptoPP::HashTransformation>,CryptoPP::RIPEMD128>::AlgorithmName
PUBLIC	?Clone@?$ClonableImpl@VRIPEMD128@CryptoPP@@V?$AlgorithmImpl@V?$IteratedHash@IU?$EnumToType@W4ByteOrder@CryptoPP@@$0A@@CryptoPP@@$0EA@VHashTransformation@2@@CryptoPP@@VRIPEMD128@2@@2@@CryptoPP@@UBEPAVClonable@2@XZ ; CryptoPP::ClonableImpl<CryptoPP::RIPEMD128,CryptoPP::AlgorithmImpl<CryptoPP::IteratedHash<unsigned int,CryptoPP::EnumToType<enum CryptoPP::ByteOrder,0>,64,CryptoPP::HashTransformation>,CryptoPP::RIPEMD128> >::Clone
PUBLIC	??1?$ClonableImpl@VRIPEMD128@CryptoPP@@V?$AlgorithmImpl@V?$IteratedHash@IU?$EnumToType@W4ByteOrder@CryptoPP@@$0A@@CryptoPP@@$0EA@VHashTransformation@2@@CryptoPP@@VRIPEMD128@2@@2@@CryptoPP@@UAE@XZ ; CryptoPP::ClonableImpl<CryptoPP::RIPEMD128,CryptoPP::AlgorithmImpl<CryptoPP::IteratedHash<unsigned int,CryptoPP::EnumToType<enum CryptoPP::ByteOrder,0>,64,CryptoPP::HashTransformation>,CryptoPP::RIPEMD128> >::~ClonableImpl<CryptoPP::RIPEMD128,CryptoPP::AlgorithmImpl<CryptoPP::IteratedHash<unsigned int,CryptoPP::EnumToType<enum CryptoPP::ByteOrder,0>,64,CryptoPP::HashTransformation>,CryptoPP::RIPEMD128> >
PUBLIC	??1?$IteratedHashWithStaticTransform@IU?$EnumToType@W4ByteOrder@CryptoPP@@$0A@@CryptoPP@@$0EA@$0BA@VRIPEMD128@2@$0A@$0A@@CryptoPP@@UAE@XZ ; CryptoPP::IteratedHashWithStaticTransform<unsigned int,CryptoPP::EnumToType<enum CryptoPP::ByteOrder,0>,64,16,CryptoPP::RIPEMD128,0,0>::~IteratedHashWithStaticTransform<unsigned int,CryptoPP::EnumToType<enum CryptoPP::ByteOrder,0>,64,16,CryptoPP::RIPEMD128,0,0>
PUBLIC	?DigestSize@?$IteratedHashWithStaticTransform@IU?$EnumToType@W4ByteOrder@CryptoPP@@$0A@@CryptoPP@@$0EA@$0BA@VRIPEMD128@2@$0A@$0A@@CryptoPP@@UBEIXZ ; CryptoPP::IteratedHashWithStaticTransform<unsigned int,CryptoPP::EnumToType<enum CryptoPP::ByteOrder,0>,64,16,CryptoPP::RIPEMD128,0,0>::DigestSize
PUBLIC	?HashEndianCorrectedBlock@?$IteratedHashWithStaticTransform@IU?$EnumToType@W4ByteOrder@CryptoPP@@$0A@@CryptoPP@@$0EA@$0BA@VRIPEMD128@2@$0A@$0A@@CryptoPP@@MAEXPBI@Z ; CryptoPP::IteratedHashWithStaticTransform<unsigned int,CryptoPP::EnumToType<enum CryptoPP::ByteOrder,0>,64,16,CryptoPP::RIPEMD128,0,0>::HashEndianCorrectedBlock
PUBLIC	?Init@?$IteratedHashWithStaticTransform@IU?$EnumToType@W4ByteOrder@CryptoPP@@$0A@@CryptoPP@@$0EA@$0BA@VRIPEMD128@2@$0A@$0A@@CryptoPP@@MAEXXZ ; CryptoPP::IteratedHashWithStaticTransform<unsigned int,CryptoPP::EnumToType<enum CryptoPP::ByteOrder,0>,64,16,CryptoPP::RIPEMD128,0,0>::Init
PUBLIC	?StateBuf@?$IteratedHashWithStaticTransform@IU?$EnumToType@W4ByteOrder@CryptoPP@@$0A@@CryptoPP@@$0EA@$0BA@VRIPEMD128@2@$0A@$0A@@CryptoPP@@MAEPAIXZ ; CryptoPP::IteratedHashWithStaticTransform<unsigned int,CryptoPP::EnumToType<enum CryptoPP::ByteOrder,0>,64,16,CryptoPP::RIPEMD128,0,0>::StateBuf
PUBLIC	??_GRIPEMD128@CryptoPP@@UAEPAXI@Z		; CryptoPP::RIPEMD128::`scalar deleting destructor'
PUBLIC	??1?$IteratedHash@_KU?$EnumToType@W4ByteOrder@CryptoPP@@$00@CryptoPP@@$0EA@VHashTransformation@2@@CryptoPP@@UAE@XZ ; CryptoPP::IteratedHash<unsigned __int64,CryptoPP::EnumToType<enum CryptoPP::ByteOrder,1>,64,CryptoPP::HashTransformation>::~IteratedHash<unsigned __int64,CryptoPP::EnumToType<enum CryptoPP::ByteOrder,1>,64,CryptoPP::HashTransformation>
PUBLIC	?BlockSize@?$IteratedHash@_KU?$EnumToType@W4ByteOrder@CryptoPP@@$00@CryptoPP@@$0EA@VHashTransformation@2@@CryptoPP@@UBEIXZ ; CryptoPP::IteratedHash<unsigned __int64,CryptoPP::EnumToType<enum CryptoPP::ByteOrder,1>,64,CryptoPP::HashTransformation>::BlockSize
PUBLIC	?GetByteOrder@?$IteratedHash@_KU?$EnumToType@W4ByteOrder@CryptoPP@@$00@CryptoPP@@$0EA@VHashTransformation@2@@CryptoPP@@UBE?AW4ByteOrder@2@XZ ; CryptoPP::IteratedHash<unsigned __int64,CryptoPP::EnumToType<enum CryptoPP::ByteOrder,1>,64,CryptoPP::HashTransformation>::GetByteOrder
PUBLIC	?DataBuf@?$IteratedHash@_KU?$EnumToType@W4ByteOrder@CryptoPP@@$00@CryptoPP@@$0EA@VHashTransformation@2@@CryptoPP@@MAEPA_KXZ ; CryptoPP::IteratedHash<unsigned __int64,CryptoPP::EnumToType<enum CryptoPP::ByteOrder,1>,64,CryptoPP::HashTransformation>::DataBuf
PUBLIC	?AlgorithmName@?$AlgorithmImpl@V?$IteratedHash@_KU?$EnumToType@W4ByteOrder@CryptoPP@@$00@CryptoPP@@$0EA@VHashTransformation@2@@CryptoPP@@VWhirlpool@2@@CryptoPP@@UBE?AV?$basic_string@DU?$char_traits@D@std@@V?$allocator@D@2@@std@@XZ ; CryptoPP::AlgorithmImpl<CryptoPP::IteratedHash<unsigned __int64,CryptoPP::EnumToType<enum CryptoPP::ByteOrder,1>,64,CryptoPP::HashTransformation>,CryptoPP::Whirlpool>::AlgorithmName
PUBLIC	?Clone@?$ClonableImpl@VWhirlpool@CryptoPP@@V?$AlgorithmImpl@V?$IteratedHash@_KU?$EnumToType@W4ByteOrder@CryptoPP@@$00@CryptoPP@@$0EA@VHashTransformation@2@@CryptoPP@@VWhirlpool@2@@2@@CryptoPP@@UBEPAVClonable@2@XZ ; CryptoPP::ClonableImpl<CryptoPP::Whirlpool,CryptoPP::AlgorithmImpl<CryptoPP::IteratedHash<unsigned __int64,CryptoPP::EnumToType<enum CryptoPP::ByteOrder,1>,64,CryptoPP::HashTransformation>,CryptoPP::Whirlpool> >::Clone
PUBLIC	??1?$ClonableImpl@VWhirlpool@CryptoPP@@V?$AlgorithmImpl@V?$IteratedHash@_KU?$EnumToType@W4ByteOrder@CryptoPP@@$00@CryptoPP@@$0EA@VHashTransformation@2@@CryptoPP@@VWhirlpool@2@@2@@CryptoPP@@UAE@XZ ; CryptoPP::ClonableImpl<CryptoPP::Whirlpool,CryptoPP::AlgorithmImpl<CryptoPP::IteratedHash<unsigned __int64,CryptoPP::EnumToType<enum CryptoPP::ByteOrder,1>,64,CryptoPP::HashTransformation>,CryptoPP::Whirlpool> >::~ClonableImpl<CryptoPP::Whirlpool,CryptoPP::AlgorithmImpl<CryptoPP::IteratedHash<unsigned __int64,CryptoPP::EnumToType<enum CryptoPP::ByteOrder,1>,64,CryptoPP::HashTransformation>,CryptoPP::Whirlpool> >
PUBLIC	??1?$IteratedHashWithStaticTransform@_KU?$EnumToType@W4ByteOrder@CryptoPP@@$00@CryptoPP@@$0EA@$0EA@VWhirlpool@2@$0A@$0A@@CryptoPP@@UAE@XZ ; CryptoPP::IteratedHashWithStaticTransform<unsigned __int64,CryptoPP::EnumToType<enum CryptoPP::ByteOrder,1>,64,64,CryptoPP::Whirlpool,0,0>::~IteratedHashWithStaticTransform<unsigned __int64,CryptoPP::EnumToType<enum CryptoPP::ByteOrder,1>,64,64,CryptoPP::Whirlpool,0,0>
PUBLIC	?DigestSize@?$IteratedHashWithStaticTransform@_KU?$EnumToType@W4ByteOrder@CryptoPP@@$00@CryptoPP@@$0EA@$0EA@VWhirlpool@2@$0A@$0A@@CryptoPP@@UBEIXZ ; CryptoPP::IteratedHashWithStaticTransform<unsigned __int64,CryptoPP::EnumToType<enum CryptoPP::ByteOrder,1>,64,64,CryptoPP::Whirlpool,0,0>::DigestSize
PUBLIC	?HashEndianCorrectedBlock@?$IteratedHashWithStaticTransform@_KU?$EnumToType@W4ByteOrder@CryptoPP@@$00@CryptoPP@@$0EA@$0EA@VWhirlpool@2@$0A@$0A@@CryptoPP@@MAEXPB_K@Z ; CryptoPP::IteratedHashWithStaticTransform<unsigned __int64,CryptoPP::EnumToType<enum CryptoPP::ByteOrder,1>,64,64,CryptoPP::Whirlpool,0,0>::HashEndianCorrectedBlock
PUBLIC	?Init@?$IteratedHashWithStaticTransform@_KU?$EnumToType@W4ByteOrder@CryptoPP@@$00@CryptoPP@@$0EA@$0EA@VWhirlpool@2@$0A@$0A@@CryptoPP@@MAEXXZ ; CryptoPP::IteratedHashWithStaticTransform<unsigned __int64,CryptoPP::EnumToType<enum CryptoPP::ByteOrder,1>,64,64,CryptoPP::Whirlpool,0,0>::Init
PUBLIC	?StateBuf@?$IteratedHashWithStaticTransform@_KU?$EnumToType@W4ByteOrder@CryptoPP@@$00@CryptoPP@@$0EA@$0EA@VWhirlpool@2@$0A@$0A@@CryptoPP@@MAEPA_KXZ ; CryptoPP::IteratedHashWithStaticTransform<unsigned __int64,CryptoPP::EnumToType<enum CryptoPP::ByteOrder,1>,64,64,CryptoPP::Whirlpool,0,0>::StateBuf
PUBLIC	??_GWhirlpool@CryptoPP@@UAEPAXI@Z		; CryptoPP::Whirlpool::`scalar deleting destructor'
PUBLIC	??0?$FixedSizeSecBlock@I$07V?$FixedSizeAllocatorWithCleanup@I$07V?$NullAllocator@I@CryptoPP@@$0A@@CryptoPP@@@CryptoPP@@QAE@ABV01@@Z ; CryptoPP::FixedSizeSecBlock<unsigned int,8,CryptoPP::FixedSizeAllocatorWithCleanup<unsigned int,8,CryptoPP::NullAllocator<unsigned int>,0> >::FixedSizeSecBlock<unsigned int,8,CryptoPP::FixedSizeAllocatorWithCleanup<unsigned int,8,CryptoPP::NullAllocator<unsigned int>,0> >
PUBLIC	??1?$AdditiveCipherConcretePolicy@I$07$00UAdditiveCipherAbstractPolicy@CryptoPP@@@CryptoPP@@UAE@XZ ; CryptoPP::AdditiveCipherConcretePolicy<unsigned int,8,1,CryptoPP::AdditiveCipherAbstractPolicy>::~AdditiveCipherConcretePolicy<unsigned int,8,1,CryptoPP::AdditiveCipherAbstractPolicy>
PUBLIC	?GetBytesPerIteration@?$AdditiveCipherConcretePolicy@I$07$00UAdditiveCipherAbstractPolicy@CryptoPP@@@CryptoPP@@UBEIXZ ; CryptoPP::AdditiveCipherConcretePolicy<unsigned int,8,1,CryptoPP::AdditiveCipherAbstractPolicy>::GetBytesPerIteration
PUBLIC	?GetIterationsToBuffer@?$AdditiveCipherConcretePolicy@I$07$00UAdditiveCipherAbstractPolicy@CryptoPP@@@CryptoPP@@UBEIXZ ; CryptoPP::AdditiveCipherConcretePolicy<unsigned int,8,1,CryptoPP::AdditiveCipherAbstractPolicy>::GetIterationsToBuffer
PUBLIC	?CanOperateKeystream@?$AdditiveCipherConcretePolicy@I$07$00UAdditiveCipherAbstractPolicy@CryptoPP@@@CryptoPP@@UBE_NXZ ; CryptoPP::AdditiveCipherConcretePolicy<unsigned int,8,1,CryptoPP::AdditiveCipherAbstractPolicy>::CanOperateKeystream
PUBLIC	??1_Facet_base@std@@UAE@XZ			; std::_Facet_base::~_Facet_base
PUBLIC	??_G_Facet_base@std@@UAEPAXI@Z			; std::_Facet_base::`scalar deleting destructor'
PUBLIC	??0_Locinfo@std@@QAE@PBD@Z			; std::_Locinfo::_Locinfo
PUBLIC	??1_Locinfo@std@@QAE@XZ				; std::_Locinfo::~_Locinfo
PUBLIC	??1?$_Yarn@D@std@@QAE@XZ			; std::_Yarn<char>::~_Yarn<char>
PUBLIC	??1?$_Yarn@_W@std@@QAE@XZ			; std::_Yarn<wchar_t>::~_Yarn<wchar_t>
PUBLIC	?_Incref@facet@locale@std@@UAEXXZ		; std::locale::facet::_Incref
PUBLIC	?_Decref@facet@locale@std@@UAEPAV_Facet_base@3@XZ ; std::locale::facet::_Decref
PUBLIC	??1facet@locale@std@@MAE@XZ			; std::locale::facet::~facet
PUBLIC	??_Gfacet@locale@std@@MAEPAXI@Z			; std::locale::facet::`scalar deleting destructor'
PUBLIC	??1locale@std@@QAE@XZ				; std::locale::~locale
PUBLIC	?do_always_noconv@codecvt_base@std@@MBE_NXZ	; std::codecvt_base::do_always_noconv
PUBLIC	?do_max_length@codecvt_base@std@@MBEHXZ		; std::codecvt_base::do_max_length
PUBLIC	?do_encoding@codecvt_base@std@@MBEHXZ		; std::codecvt_base::do_encoding
PUBLIC	??_Gcodecvt_base@std@@UAEPAXI@Z			; std::codecvt_base::`scalar deleting destructor'
PUBLIC	??1?$codecvt@_WDU_Mbstatet@@@std@@MAE@XZ	; std::codecvt<wchar_t,char,_Mbstatet>::~codecvt<wchar_t,char,_Mbstatet>
PUBLIC	?do_in@?$codecvt@_WDU_Mbstatet@@@std@@MBEHAAU_Mbstatet@@PBD1AAPBDPA_W3AAPA_W@Z ; std::codecvt<wchar_t,char,_Mbstatet>::do_in
PUBLIC	?do_out@?$codecvt@_WDU_Mbstatet@@@std@@MBEHAAU_Mbstatet@@PB_W1AAPB_WPAD3AAPAD@Z ; std::codecvt<wchar_t,char,_Mbstatet>::do_out
PUBLIC	?do_unshift@?$codecvt@_WDU_Mbstatet@@@std@@MBEHAAU_Mbstatet@@PAD1AAPAD@Z ; std::codecvt<wchar_t,char,_Mbstatet>::do_unshift
PUBLIC	?do_length@?$codecvt@_WDU_Mbstatet@@@std@@MBEHAAU_Mbstatet@@PBD1I@Z ; std::codecvt<wchar_t,char,_Mbstatet>::do_length
PUBLIC	?do_always_noconv@?$codecvt@_WDU_Mbstatet@@@std@@MBE_NXZ ; std::codecvt<wchar_t,char,_Mbstatet>::do_always_noconv
PUBLIC	?do_max_length@?$codecvt@_WDU_Mbstatet@@@std@@MBEHXZ ; std::codecvt<wchar_t,char,_Mbstatet>::do_max_length
PUBLIC	?do_encoding@?$codecvt@_WDU_Mbstatet@@@std@@MBEHXZ ; std::codecvt<wchar_t,char,_Mbstatet>::do_encoding
PUBLIC	??_G?$codecvt@_WDU_Mbstatet@@@std@@MAEPAXI@Z	; std::codecvt<wchar_t,char,_Mbstatet>::`scalar deleting destructor'
PUBLIC	??_Gctype_base@std@@UAEPAXI@Z			; std::ctype_base::`scalar deleting destructor'
PUBLIC	??1?$ctype@_W@std@@MAE@XZ			; std::ctype<wchar_t>::~ctype<wchar_t>
PUBLIC	?do_is@?$ctype@_W@std@@MBE_NF_W@Z		; std::ctype<wchar_t>::do_is
PUBLIC	?do_is@?$ctype@_W@std@@MBEPB_WPB_W0PAF@Z	; std::ctype<wchar_t>::do_is
PUBLIC	?do_scan_is@?$ctype@_W@std@@MBEPB_WFPB_W0@Z	; std::ctype<wchar_t>::do_scan_is
PUBLIC	?do_scan_not@?$ctype@_W@std@@MBEPB_WFPB_W0@Z	; std::ctype<wchar_t>::do_scan_not
PUBLIC	?do_tolower@?$ctype@_W@std@@MBE_W_W@Z		; std::ctype<wchar_t>::do_tolower
PUBLIC	?do_tolower@?$ctype@_W@std@@MBEPB_WPA_WPB_W@Z	; std::ctype<wchar_t>::do_tolower
PUBLIC	?do_toupper@?$ctype@_W@std@@MBE_W_W@Z		; std::ctype<wchar_t>::do_toupper
PUBLIC	?do_toupper@?$ctype@_W@std@@MBEPB_WPA_WPB_W@Z	; std::ctype<wchar_t>::do_toupper
PUBLIC	?do_widen@?$ctype@_W@std@@MBE_WD@Z		; std::ctype<wchar_t>::do_widen
PUBLIC	?do_widen@?$ctype@_W@std@@MBEPBDPBD0PA_W@Z	; std::ctype<wchar_t>::do_widen
PUBLIC	?do_narrow@?$ctype@_W@std@@MBED_WD@Z		; std::ctype<wchar_t>::do_narrow
PUBLIC	?do_narrow@?$ctype@_W@std@@MBEPB_WPB_W0DPAD@Z	; std::ctype<wchar_t>::do_narrow
PUBLIC	??_G?$ctype@_W@std@@MAEPAXI@Z			; std::ctype<wchar_t>::`scalar deleting destructor'
PUBLIC	??0failure@ios_base@std@@QAE@PBDABVerror_code@2@@Z ; std::ios_base::failure::failure
PUBLIC	??1failure@ios_base@std@@UAE@XZ			; std::ios_base::failure::~failure
PUBLIC	??0failure@ios_base@std@@QAE@ABV012@@Z		; std::ios_base::failure::failure
PUBLIC	??_Gfailure@ios_base@std@@UAEPAXI@Z		; std::ios_base::failure::`scalar deleting destructor'
PUBLIC	?clear@ios_base@std@@QAEXH_N@Z			; std::ios_base::clear
PUBLIC	??1ios_base@std@@UAE@XZ				; std::ios_base::~ios_base
PUBLIC	??_Gios_base@std@@UAEPAXI@Z			; std::ios_base::`scalar deleting destructor'
PUBLIC	??$_Fputc@_W@std@@YA_N_WPAU_iobuf@@@Z		; std::_Fputc<wchar_t>
PUBLIC	??1?$basic_ios@_WU?$char_traits@_W@std@@@std@@UAE@XZ ; std::basic_ios<wchar_t,std::char_traits<wchar_t> >::~basic_ios<wchar_t,std::char_traits<wchar_t> >
PUBLIC	?setstate@?$basic_ios@_WU?$char_traits@_W@std@@@std@@QAEXH_N@Z ; std::basic_ios<wchar_t,std::char_traits<wchar_t> >::setstate
PUBLIC	??_G?$basic_ios@_WU?$char_traits@_W@std@@@std@@UAEPAXI@Z ; std::basic_ios<wchar_t,std::char_traits<wchar_t> >::`scalar deleting destructor'
PUBLIC	??0?$basic_istream@_WU?$char_traits@_W@std@@@std@@QAE@PAV?$basic_streambuf@_WU?$char_traits@_W@std@@@1@_N@Z ; std::basic_istream<wchar_t,std::char_traits<wchar_t> >::basic_istream<wchar_t,std::char_traits<wchar_t> >
PUBLIC	??1?$basic_istream@_WU?$char_traits@_W@std@@@std@@UAE@XZ ; std::basic_istream<wchar_t,std::char_traits<wchar_t> >::~basic_istream<wchar_t,std::char_traits<wchar_t> >
PUBLIC	?_Ipfx@?$basic_istream@_WU?$char_traits@_W@std@@@std@@QAE_N_N@Z ; std::basic_istream<wchar_t,std::char_traits<wchar_t> >::_Ipfx
PUBLIC	??_G?$basic_istream@_WU?$char_traits@_W@std@@@std@@UAEPAXI@Z ; std::basic_istream<wchar_t,std::char_traits<wchar_t> >::`scalar deleting destructor'
PUBLIC	??0?$basic_ifstream@_WU?$char_traits@_W@std@@@std@@QAE@PBDHH@Z ; std::basic_ifstream<wchar_t,std::char_traits<wchar_t> >::basic_ifstream<wchar_t,std::char_traits<wchar_t> >
PUBLIC	??1?$basic_ifstream@_WU?$char_traits@_W@std@@@std@@UAE@XZ ; std::basic_ifstream<wchar_t,std::char_traits<wchar_t> >::~basic_ifstream<wchar_t,std::char_traits<wchar_t> >
PUBLIC	??1?$basic_streambuf@_WU?$char_traits@_W@std@@@std@@UAE@XZ ; std::basic_streambuf<wchar_t,std::char_traits<wchar_t> >::~basic_streambuf<wchar_t,std::char_traits<wchar_t> >
PUBLIC	?snextc@?$basic_streambuf@_WU?$char_traits@_W@std@@@std@@QAEGXZ ; std::basic_streambuf<wchar_t,std::char_traits<wchar_t> >::snextc
PUBLIC	?_Lock@?$basic_streambuf@_WU?$char_traits@_W@std@@@std@@UAEXXZ ; std::basic_streambuf<wchar_t,std::char_traits<wchar_t> >::_Lock
PUBLIC	?_Unlock@?$basic_streambuf@_WU?$char_traits@_W@std@@@std@@UAEXXZ ; std::basic_streambuf<wchar_t,std::char_traits<wchar_t> >::_Unlock
PUBLIC	?_Gnavail@?$basic_streambuf@_WU?$char_traits@_W@std@@@std@@IBE_JXZ ; std::basic_streambuf<wchar_t,std::char_traits<wchar_t> >::_Gnavail
PUBLIC	?_Pnavail@?$basic_streambuf@_WU?$char_traits@_W@std@@@std@@IBE_JXZ ; std::basic_streambuf<wchar_t,std::char_traits<wchar_t> >::_Pnavail
PUBLIC	?overflow@?$basic_streambuf@_WU?$char_traits@_W@std@@@std@@MAEGG@Z ; std::basic_streambuf<wchar_t,std::char_traits<wchar_t> >::overflow
PUBLIC	?pbackfail@?$basic_streambuf@_WU?$char_traits@_W@std@@@std@@MAEGG@Z ; std::basic_streambuf<wchar_t,std::char_traits<wchar_t> >::pbackfail
PUBLIC	?showmanyc@?$basic_streambuf@_WU?$char_traits@_W@std@@@std@@MAE_JXZ ; std::basic_streambuf<wchar_t,std::char_traits<wchar_t> >::showmanyc
PUBLIC	?underflow@?$basic_streambuf@_WU?$char_traits@_W@std@@@std@@MAEGXZ ; std::basic_streambuf<wchar_t,std::char_traits<wchar_t> >::underflow
PUBLIC	?uflow@?$basic_streambuf@_WU?$char_traits@_W@std@@@std@@MAEGXZ ; std::basic_streambuf<wchar_t,std::char_traits<wchar_t> >::uflow
PUBLIC	?xsgetn@?$basic_streambuf@_WU?$char_traits@_W@std@@@std@@MAE_JPA_W_J@Z ; std::basic_streambuf<wchar_t,std::char_traits<wchar_t> >::xsgetn
PUBLIC	?xsputn@?$basic_streambuf@_WU?$char_traits@_W@std@@@std@@MAE_JPB_W_J@Z ; std::basic_streambuf<wchar_t,std::char_traits<wchar_t> >::xsputn
PUBLIC	?seekoff@?$basic_streambuf@_WU?$char_traits@_W@std@@@std@@MAE?AV?$fpos@U_Mbstatet@@@2@_JHH@Z ; std::basic_streambuf<wchar_t,std::char_traits<wchar_t> >::seekoff
PUBLIC	?seekpos@?$basic_streambuf@_WU?$char_traits@_W@std@@@std@@MAE?AV?$fpos@U_Mbstatet@@@2@V32@H@Z ; std::basic_streambuf<wchar_t,std::char_traits<wchar_t> >::seekpos
PUBLIC	?setbuf@?$basic_streambuf@_WU?$char_traits@_W@std@@@std@@MAEPAV12@PA_W_J@Z ; std::basic_streambuf<wchar_t,std::char_traits<wchar_t> >::setbuf
PUBLIC	?sync@?$basic_streambuf@_WU?$char_traits@_W@std@@@std@@MAEHXZ ; std::basic_streambuf<wchar_t,std::char_traits<wchar_t> >::sync
PUBLIC	?imbue@?$basic_streambuf@_WU?$char_traits@_W@std@@@std@@MAEXABVlocale@2@@Z ; std::basic_streambuf<wchar_t,std::char_traits<wchar_t> >::imbue
PUBLIC	??_G?$basic_streambuf@_WU?$char_traits@_W@std@@@std@@UAEPAXI@Z ; std::basic_streambuf<wchar_t,std::char_traits<wchar_t> >::`scalar deleting destructor'
PUBLIC	??1?$basic_filebuf@_WU?$char_traits@_W@std@@@std@@UAE@XZ ; std::basic_filebuf<wchar_t,std::char_traits<wchar_t> >::~basic_filebuf<wchar_t,std::char_traits<wchar_t> >
PUBLIC	?_Lock@?$basic_filebuf@_WU?$char_traits@_W@std@@@std@@UAEXXZ ; std::basic_filebuf<wchar_t,std::char_traits<wchar_t> >::_Lock
PUBLIC	?_Unlock@?$basic_filebuf@_WU?$char_traits@_W@std@@@std@@UAEXXZ ; std::basic_filebuf<wchar_t,std::char_traits<wchar_t> >::_Unlock
PUBLIC	?overflow@?$basic_filebuf@_WU?$char_traits@_W@std@@@std@@MAEGG@Z ; std::basic_filebuf<wchar_t,std::char_traits<wchar_t> >::overflow
PUBLIC	?pbackfail@?$basic_filebuf@_WU?$char_traits@_W@std@@@std@@MAEGG@Z ; std::basic_filebuf<wchar_t,std::char_traits<wchar_t> >::pbackfail
PUBLIC	?underflow@?$basic_filebuf@_WU?$char_traits@_W@std@@@std@@MAEGXZ ; std::basic_filebuf<wchar_t,std::char_traits<wchar_t> >::underflow
PUBLIC	?uflow@?$basic_filebuf@_WU?$char_traits@_W@std@@@std@@MAEGXZ ; std::basic_filebuf<wchar_t,std::char_traits<wchar_t> >::uflow
PUBLIC	?xsgetn@?$basic_filebuf@_WU?$char_traits@_W@std@@@std@@MAE_JPA_W_J@Z ; std::basic_filebuf<wchar_t,std::char_traits<wchar_t> >::xsgetn
PUBLIC	?xsputn@?$basic_filebuf@_WU?$char_traits@_W@std@@@std@@MAE_JPB_W_J@Z ; std::basic_filebuf<wchar_t,std::char_traits<wchar_t> >::xsputn
PUBLIC	?seekoff@?$basic_filebuf@_WU?$char_traits@_W@std@@@std@@MAE?AV?$fpos@U_Mbstatet@@@2@_JHH@Z ; std::basic_filebuf<wchar_t,std::char_traits<wchar_t> >::seekoff
PUBLIC	?seekpos@?$basic_filebuf@_WU?$char_traits@_W@std@@@std@@MAE?AV?$fpos@U_Mbstatet@@@2@V32@H@Z ; std::basic_filebuf<wchar_t,std::char_traits<wchar_t> >::seekpos
PUBLIC	?setbuf@?$basic_filebuf@_WU?$char_traits@_W@std@@@std@@MAEPAV?$basic_streambuf@_WU?$char_traits@_W@std@@@2@PA_W_J@Z ; std::basic_filebuf<wchar_t,std::char_traits<wchar_t> >::setbuf
PUBLIC	?sync@?$basic_filebuf@_WU?$char_traits@_W@std@@@std@@MAEHXZ ; std::basic_filebuf<wchar_t,std::char_traits<wchar_t> >::sync
PUBLIC	?imbue@?$basic_filebuf@_WU?$char_traits@_W@std@@@std@@MAEXABVlocale@2@@Z ; std::basic_filebuf<wchar_t,std::char_traits<wchar_t> >::imbue
PUBLIC	?_Init@?$basic_filebuf@_WU?$char_traits@_W@std@@@std@@IAEXPAU_iobuf@@W4_Initfl@12@@Z ; std::basic_filebuf<wchar_t,std::char_traits<wchar_t> >::_Init
PUBLIC	?_Endwrite@?$basic_filebuf@_WU?$char_traits@_W@std@@@std@@IAE_NXZ ; std::basic_filebuf<wchar_t,std::char_traits<wchar_t> >::_Endwrite
PUBLIC	?_Initcvt@?$basic_filebuf@_WU?$char_traits@_W@std@@@std@@IAEXABV?$codecvt@_WDU_Mbstatet@@@2@@Z ; std::basic_filebuf<wchar_t,std::char_traits<wchar_t> >::_Initcvt
PUBLIC	?_Reset_back@?$basic_filebuf@_WU?$char_traits@_W@std@@@std@@AAEXXZ ; std::basic_filebuf<wchar_t,std::char_traits<wchar_t> >::_Reset_back
PUBLIC	??_G?$basic_filebuf@_WU?$char_traits@_W@std@@@std@@UAEPAXI@Z ; std::basic_filebuf<wchar_t,std::char_traits<wchar_t> >::`scalar deleting destructor'
PUBLIC	??_G?$basic_ifstream@_WU?$char_traits@_W@std@@@std@@UAEPAXI@Z ; std::basic_ifstream<wchar_t,std::char_traits<wchar_t> >::`scalar deleting destructor'
PUBLIC	??_D?$basic_ifstream@_WU?$char_traits@_W@std@@@std@@QAEXXZ ; std::basic_ifstream<wchar_t,std::char_traits<wchar_t> >::`vbase destructor'
PUBLIC	??1?$istream_iterator@V?$basic_string@_WU?$char_traits@_W@std@@V?$allocator@_W@2@@std@@_WU?$char_traits@_W@2@H@std@@QAE@XZ ; std::istream_iterator<std::basic_string<wchar_t,std::char_traits<wchar_t>,std::allocator<wchar_t> >,wchar_t,std::char_traits<wchar_t>,int>::~istream_iterator<std::basic_string<wchar_t,std::char_traits<wchar_t>,std::allocator<wchar_t> >,wchar_t,std::char_traits<wchar_t>,int>
PUBLIC	?deallocate@?$allocator@V?$basic_string@_WU?$char_traits@_W@std@@V?$allocator@_W@2@@std@@@std@@QAEXQAV?$basic_string@_WU?$char_traits@_W@std@@V?$allocator@_W@2@@2@I@Z ; std::allocator<std::basic_string<wchar_t,std::char_traits<wchar_t>,std::allocator<wchar_t> > >::deallocate
PUBLIC	??1?$vector@V?$basic_string@_WU?$char_traits@_W@std@@V?$allocator@_W@2@@std@@V?$allocator@V?$basic_string@_WU?$char_traits@_W@std@@V?$allocator@_W@2@@std@@@2@@std@@QAE@XZ ; std::vector<std::basic_string<wchar_t,std::char_traits<wchar_t>,std::allocator<wchar_t> >,std::allocator<std::basic_string<wchar_t,std::char_traits<wchar_t>,std::allocator<wchar_t> > > >::~vector<std::basic_string<wchar_t,std::char_traits<wchar_t>,std::allocator<wchar_t> >,std::allocator<std::basic_string<wchar_t,std::char_traits<wchar_t>,std::allocator<wchar_t> > > >
PUBLIC	?_Destroy@?$vector@V?$basic_string@_WU?$char_traits@_W@std@@V?$allocator@_W@2@@std@@V?$allocator@V?$basic_string@_WU?$char_traits@_W@std@@V?$allocator@_W@2@@std@@@2@@std@@AAEXPAV?$basic_string@_WU?$char_traits@_W@std@@V?$allocator@_W@2@@2@0@Z ; std::vector<std::basic_string<wchar_t,std::char_traits<wchar_t>,std::allocator<wchar_t> >,std::allocator<std::basic_string<wchar_t,std::char_traits<wchar_t>,std::allocator<wchar_t> > > >::_Destroy
PUBLIC	?_Xlength@?$vector@V?$basic_string@_WU?$char_traits@_W@std@@V?$allocator@_W@2@@std@@V?$allocator@V?$basic_string@_WU?$char_traits@_W@std@@V?$allocator@_W@2@@std@@@2@@std@@CAXXZ ; std::vector<std::basic_string<wchar_t,std::char_traits<wchar_t>,std::allocator<wchar_t> >,std::allocator<std::basic_string<wchar_t,std::char_traits<wchar_t>,std::allocator<wchar_t> > > >::_Xlength
PUBLIC	??$back_inserter@V?$vector@V?$basic_string@_WU?$char_traits@_W@std@@V?$allocator@_W@2@@std@@V?$allocator@V?$basic_string@_WU?$char_traits@_W@std@@V?$allocator@_W@2@@std@@@2@@std@@@std@@YA?AV?$back_insert_iterator@V?$vector@V?$basic_string@_WU?$char_traits@_W@std@@V?$allocator@_W@2@@std@@V?$allocator@V?$basic_string@_WU?$char_traits@_W@std@@V?$allocator@_W@2@@std@@@2@@std@@@0@AAV?$vector@V?$basic_string@_WU?$char_traits@_W@std@@V?$allocator@_W@2@@std@@V?$allocator@V?$basic_string@_WU?$char_traits@_W@std@@V?$allocator@_W@2@@std@@@2@@0@@Z ; std::back_inserter<std::vector<std::basic_string<wchar_t,std::char_traits<wchar_t>,std::allocator<wchar_t> >,std::allocator<std::basic_string<wchar_t,std::char_traits<wchar_t>,std::allocator<wchar_t> > > > >
PUBLIC	??$copy@V?$istream_iterator@V?$basic_string@_WU?$char_traits@_W@std@@V?$allocator@_W@2@@std@@_WU?$char_traits@_W@2@H@std@@V?$back_insert_iterator@V?$vector@V?$basic_string@_WU?$char_traits@_W@std@@V?$allocator@_W@2@@std@@V?$allocator@V?$basic_string@_WU?$char_traits@_W@std@@V?$allocator@_W@2@@std@@@2@@std@@@2@@std@@YA?AV?$back_insert_iterator@V?$vector@V?$basic_string@_WU?$char_traits@_W@std@@V?$allocator@_W@2@@std@@V?$allocator@V?$basic_string@_WU?$char_traits@_W@std@@V?$allocator@_W@2@@std@@@2@@std@@@0@V?$istream_iterator@V?$basic_string@_WU?$char_traits@_W@std@@V?$allocator@_W@2@@std@@_WU?$char_traits@_W@2@H@0@0V10@@Z ; std::copy<std::istream_iterator<std::basic_string<wchar_t,std::char_traits<wchar_t>,std::allocator<wchar_t> >,wchar_t,std::char_traits<wchar_t>,int>,std::back_insert_iterator<std::vector<std::basic_string<wchar_t,std::char_traits<wchar_t>,std::allocator<wchar_t> >,std::allocator<std::basic_string<wchar_t,std::char_traits<wchar_t>,std::allocator<wchar_t> > > > > >
PUBLIC	?_Osfx@?$basic_ostream@_WU?$char_traits@_W@std@@@std@@QAEXXZ ; std::basic_ostream<wchar_t,std::char_traits<wchar_t> >::_Osfx
PUBLIC	?flush@?$basic_ostream@_WU?$char_traits@_W@std@@@std@@QAEAAV12@XZ ; std::basic_ostream<wchar_t,std::char_traits<wchar_t> >::flush
PUBLIC	?_Xlength@?$vector@V?$basic_string@DU?$char_traits@D@std@@V?$allocator@D@2@@std@@V?$allocator@V?$basic_string@DU?$char_traits@D@std@@V?$allocator@D@2@@std@@@2@@std@@CAXXZ ; std::vector<std::basic_string<char,std::char_traits<char>,std::allocator<char> >,std::allocator<std::basic_string<char,std::char_traits<char>,std::allocator<char> > > >::_Xlength
PUBLIC	??1?$Panama@U?$EnumToType@W4ByteOrder@CryptoPP@@$0A@@CryptoPP@@@CryptoPP@@UAE@XZ ; CryptoPP::Panama<CryptoPP::EnumToType<enum CryptoPP::ByteOrder,0> >::~Panama<CryptoPP::EnumToType<enum CryptoPP::ByteOrder,0> >
PUBLIC	??1?$PanamaCipherPolicy@U?$EnumToType@W4ByteOrder@CryptoPP@@$0A@@CryptoPP@@@CryptoPP@@MAE@XZ ; CryptoPP::PanamaCipherPolicy<CryptoPP::EnumToType<enum CryptoPP::ByteOrder,0> >::~PanamaCipherPolicy<CryptoPP::EnumToType<enum CryptoPP::ByteOrder,0> >
PUBLIC	?CipherIsRandomAccess@?$PanamaCipherPolicy@U?$EnumToType@W4ByteOrder@CryptoPP@@$0A@@CryptoPP@@@CryptoPP@@MBE_NXZ ; CryptoPP::PanamaCipherPolicy<CryptoPP::EnumToType<enum CryptoPP::ByteOrder,0> >::CipherIsRandomAccess
PUBLIC	??_G?$PanamaCipherPolicy@U?$EnumToType@W4ByteOrder@CryptoPP@@$0A@@CryptoPP@@@CryptoPP@@MAEPAXI@Z ; CryptoPP::PanamaCipherPolicy<CryptoPP::EnumToType<enum CryptoPP::ByteOrder,0> >::`scalar deleting destructor'
PUBLIC	??1?$ConcretePolicyHolder@V?$PanamaCipherPolicy@U?$EnumToType@W4ByteOrder@CryptoPP@@$0A@@CryptoPP@@@CryptoPP@@V?$AdditiveCipherTemplate@V?$AbstractPolicyHolder@UAdditiveCipherAbstractPolicy@CryptoPP@@VSymmetricCipher@2@@CryptoPP@@@2@UAdditiveCipherAbstractPolicy@2@@CryptoPP@@UAE@XZ ; CryptoPP::ConcretePolicyHolder<CryptoPP::PanamaCipherPolicy<CryptoPP::EnumToType<enum CryptoPP::ByteOrder,0> >,CryptoPP::AdditiveCipherTemplate<CryptoPP::AbstractPolicyHolder<CryptoPP::AdditiveCipherAbstractPolicy,CryptoPP::SymmetricCipher> >,CryptoPP::AdditiveCipherAbstractPolicy>::~ConcretePolicyHolder<CryptoPP::PanamaCipherPolicy<CryptoPP::EnumToType<enum CryptoPP::ByteOrder,0> >,CryptoPP::AdditiveCipherTemplate<CryptoPP::AbstractPolicyHolder<CryptoPP::AdditiveCipherAbstractPolicy,CryptoPP::SymmetricCipher> >,CryptoPP::AdditiveCipherAbstractPolicy>
PUBLIC	?GetPolicy@?$ConcretePolicyHolder@V?$PanamaCipherPolicy@U?$EnumToType@W4ByteOrder@CryptoPP@@$0A@@CryptoPP@@@CryptoPP@@V?$AdditiveCipherTemplate@V?$AbstractPolicyHolder@UAdditiveCipherAbstractPolicy@CryptoPP@@VSymmetricCipher@2@@CryptoPP@@@2@UAdditiveCipherAbstractPolicy@2@@CryptoPP@@MBEABUAdditiveCipherAbstractPolicy@2@XZ ; CryptoPP::ConcretePolicyHolder<CryptoPP::PanamaCipherPolicy<CryptoPP::EnumToType<enum CryptoPP::ByteOrder,0> >,CryptoPP::AdditiveCipherTemplate<CryptoPP::AbstractPolicyHolder<CryptoPP::AdditiveCipherAbstractPolicy,CryptoPP::SymmetricCipher> >,CryptoPP::AdditiveCipherAbstractPolicy>::GetPolicy
PUBLIC	?AccessPolicy@?$ConcretePolicyHolder@V?$PanamaCipherPolicy@U?$EnumToType@W4ByteOrder@CryptoPP@@$0A@@CryptoPP@@@CryptoPP@@V?$AdditiveCipherTemplate@V?$AbstractPolicyHolder@UAdditiveCipherAbstractPolicy@CryptoPP@@VSymmetricCipher@2@@CryptoPP@@@2@UAdditiveCipherAbstractPolicy@2@@CryptoPP@@MAEAAUAdditiveCipherAbstractPolicy@2@XZ ; CryptoPP::ConcretePolicyHolder<CryptoPP::PanamaCipherPolicy<CryptoPP::EnumToType<enum CryptoPP::ByteOrder,0> >,CryptoPP::AdditiveCipherTemplate<CryptoPP::AbstractPolicyHolder<CryptoPP::AdditiveCipherAbstractPolicy,CryptoPP::SymmetricCipher> >,CryptoPP::AdditiveCipherAbstractPolicy>::AccessPolicy
PUBLIC	??0?$ConcretePolicyHolder@V?$PanamaCipherPolicy@U?$EnumToType@W4ByteOrder@CryptoPP@@$0A@@CryptoPP@@@CryptoPP@@V?$AdditiveCipherTemplate@V?$AbstractPolicyHolder@UAdditiveCipherAbstractPolicy@CryptoPP@@VSymmetricCipher@2@@CryptoPP@@@2@UAdditiveCipherAbstractPolicy@2@@CryptoPP@@QAE@ABV01@@Z ; CryptoPP::ConcretePolicyHolder<CryptoPP::PanamaCipherPolicy<CryptoPP::EnumToType<enum CryptoPP::ByteOrder,0> >,CryptoPP::AdditiveCipherTemplate<CryptoPP::AbstractPolicyHolder<CryptoPP::AdditiveCipherAbstractPolicy,CryptoPP::SymmetricCipher> >,CryptoPP::AdditiveCipherAbstractPolicy>::ConcretePolicyHolder<CryptoPP::PanamaCipherPolicy<CryptoPP::EnumToType<enum CryptoPP::ByteOrder,0> >,CryptoPP::AdditiveCipherTemplate<CryptoPP::AbstractPolicyHolder<CryptoPP::AdditiveCipherAbstractPolicy,CryptoPP::SymmetricCipher> >,CryptoPP::AdditiveCipherAbstractPolicy>
PUBLIC	??_G?$ConcretePolicyHolder@V?$PanamaCipherPolicy@U?$EnumToType@W4ByteOrder@CryptoPP@@$0A@@CryptoPP@@@CryptoPP@@V?$AdditiveCipherTemplate@V?$AbstractPolicyHolder@UAdditiveCipherAbstractPolicy@CryptoPP@@VSymmetricCipher@2@@CryptoPP@@@2@UAdditiveCipherAbstractPolicy@2@@CryptoPP@@UAEPAXI@Z ; CryptoPP::ConcretePolicyHolder<CryptoPP::PanamaCipherPolicy<CryptoPP::EnumToType<enum CryptoPP::ByteOrder,0> >,CryptoPP::AdditiveCipherTemplate<CryptoPP::AbstractPolicyHolder<CryptoPP::AdditiveCipherAbstractPolicy,CryptoPP::SymmetricCipher> >,CryptoPP::AdditiveCipherAbstractPolicy>::`scalar deleting destructor'
PUBLIC	?MinKeyLength@?$SimpleKeyingInterfaceImpl@V?$ConcretePolicyHolder@V?$PanamaCipherPolicy@U?$EnumToType@W4ByteOrder@CryptoPP@@$0A@@CryptoPP@@@CryptoPP@@V?$AdditiveCipherTemplate@V?$AbstractPolicyHolder@UAdditiveCipherAbstractPolicy@CryptoPP@@VSymmetricCipher@2@@CryptoPP@@@2@UAdditiveCipherAbstractPolicy@2@@CryptoPP@@U?$PanamaCipherInfo@U?$EnumToType@W4ByteOrder@CryptoPP@@$0A@@CryptoPP@@@2@@CryptoPP@@UBEIXZ ; CryptoPP::SimpleKeyingInterfaceImpl<CryptoPP::ConcretePolicyHolder<CryptoPP::PanamaCipherPolicy<CryptoPP::EnumToType<enum CryptoPP::ByteOrder,0> >,CryptoPP::AdditiveCipherTemplate<CryptoPP::AbstractPolicyHolder<CryptoPP::AdditiveCipherAbstractPolicy,CryptoPP::SymmetricCipher> >,CryptoPP::AdditiveCipherAbstractPolicy>,CryptoPP::PanamaCipherInfo<CryptoPP::EnumToType<enum CryptoPP::ByteOrder,0> > >::MinKeyLength
PUBLIC	?MaxKeyLength@?$SimpleKeyingInterfaceImpl@V?$ConcretePolicyHolder@V?$PanamaCipherPolicy@U?$EnumToType@W4ByteOrder@CryptoPP@@$0A@@CryptoPP@@@CryptoPP@@V?$AdditiveCipherTemplate@V?$AbstractPolicyHolder@UAdditiveCipherAbstractPolicy@CryptoPP@@VSymmetricCipher@2@@CryptoPP@@@2@UAdditiveCipherAbstractPolicy@2@@CryptoPP@@U?$PanamaCipherInfo@U?$EnumToType@W4ByteOrder@CryptoPP@@$0A@@CryptoPP@@@2@@CryptoPP@@UBEIXZ ; CryptoPP::SimpleKeyingInterfaceImpl<CryptoPP::ConcretePolicyHolder<CryptoPP::PanamaCipherPolicy<CryptoPP::EnumToType<enum CryptoPP::ByteOrder,0> >,CryptoPP::AdditiveCipherTemplate<CryptoPP::AbstractPolicyHolder<CryptoPP::AdditiveCipherAbstractPolicy,CryptoPP::SymmetricCipher> >,CryptoPP::AdditiveCipherAbstractPolicy>,CryptoPP::PanamaCipherInfo<CryptoPP::EnumToType<enum CryptoPP::ByteOrder,0> > >::MaxKeyLength
PUBLIC	?DefaultKeyLength@?$SimpleKeyingInterfaceImpl@V?$ConcretePolicyHolder@V?$PanamaCipherPolicy@U?$EnumToType@W4ByteOrder@CryptoPP@@$0A@@CryptoPP@@@CryptoPP@@V?$AdditiveCipherTemplate@V?$AbstractPolicyHolder@UAdditiveCipherAbstractPolicy@CryptoPP@@VSymmetricCipher@2@@CryptoPP@@@2@UAdditiveCipherAbstractPolicy@2@@CryptoPP@@U?$PanamaCipherInfo@U?$EnumToType@W4ByteOrder@CryptoPP@@$0A@@CryptoPP@@@2@@CryptoPP@@UBEIXZ ; CryptoPP::SimpleKeyingInterfaceImpl<CryptoPP::ConcretePolicyHolder<CryptoPP::PanamaCipherPolicy<CryptoPP::EnumToType<enum CryptoPP::ByteOrder,0> >,CryptoPP::AdditiveCipherTemplate<CryptoPP::AbstractPolicyHolder<CryptoPP::AdditiveCipherAbstractPolicy,CryptoPP::SymmetricCipher> >,CryptoPP::AdditiveCipherAbstractPolicy>,CryptoPP::PanamaCipherInfo<CryptoPP::EnumToType<enum CryptoPP::ByteOrder,0> > >::DefaultKeyLength
PUBLIC	?GetValidKeyLength@?$SimpleKeyingInterfaceImpl@V?$ConcretePolicyHolder@V?$PanamaCipherPolicy@U?$EnumToType@W4ByteOrder@CryptoPP@@$0A@@CryptoPP@@@CryptoPP@@V?$AdditiveCipherTemplate@V?$AbstractPolicyHolder@UAdditiveCipherAbstractPolicy@CryptoPP@@VSymmetricCipher@2@@CryptoPP@@@2@UAdditiveCipherAbstractPolicy@2@@CryptoPP@@U?$PanamaCipherInfo@U?$EnumToType@W4ByteOrder@CryptoPP@@$0A@@CryptoPP@@@2@@CryptoPP@@UBEII@Z ; CryptoPP::SimpleKeyingInterfaceImpl<CryptoPP::ConcretePolicyHolder<CryptoPP::PanamaCipherPolicy<CryptoPP::EnumToType<enum CryptoPP::ByteOrder,0> >,CryptoPP::AdditiveCipherTemplate<CryptoPP::AbstractPolicyHolder<CryptoPP::AdditiveCipherAbstractPolicy,CryptoPP::SymmetricCipher> >,CryptoPP::AdditiveCipherAbstractPolicy>,CryptoPP::PanamaCipherInfo<CryptoPP::EnumToType<enum CryptoPP::ByteOrder,0> > >::GetValidKeyLength
PUBLIC	?IVRequirement@?$SimpleKeyingInterfaceImpl@V?$ConcretePolicyHolder@V?$PanamaCipherPolicy@U?$EnumToType@W4ByteOrder@CryptoPP@@$0A@@CryptoPP@@@CryptoPP@@V?$AdditiveCipherTemplate@V?$AbstractPolicyHolder@UAdditiveCipherAbstractPolicy@CryptoPP@@VSymmetricCipher@2@@CryptoPP@@@2@UAdditiveCipherAbstractPolicy@2@@CryptoPP@@U?$PanamaCipherInfo@U?$EnumToType@W4ByteOrder@CryptoPP@@$0A@@CryptoPP@@@2@@CryptoPP@@UBE?AW4IV_Requirement@SimpleKeyingInterface@2@XZ ; CryptoPP::SimpleKeyingInterfaceImpl<CryptoPP::ConcretePolicyHolder<CryptoPP::PanamaCipherPolicy<CryptoPP::EnumToType<enum CryptoPP::ByteOrder,0> >,CryptoPP::AdditiveCipherTemplate<CryptoPP::AbstractPolicyHolder<CryptoPP::AdditiveCipherAbstractPolicy,CryptoPP::SymmetricCipher> >,CryptoPP::AdditiveCipherAbstractPolicy>,CryptoPP::PanamaCipherInfo<CryptoPP::EnumToType<enum CryptoPP::ByteOrder,0> > >::IVRequirement
PUBLIC	?IVSize@?$SimpleKeyingInterfaceImpl@V?$ConcretePolicyHolder@V?$PanamaCipherPolicy@U?$EnumToType@W4ByteOrder@CryptoPP@@$0A@@CryptoPP@@@CryptoPP@@V?$AdditiveCipherTemplate@V?$AbstractPolicyHolder@UAdditiveCipherAbstractPolicy@CryptoPP@@VSymmetricCipher@2@@CryptoPP@@@2@UAdditiveCipherAbstractPolicy@2@@CryptoPP@@U?$PanamaCipherInfo@U?$EnumToType@W4ByteOrder@CryptoPP@@$0A@@CryptoPP@@@2@@CryptoPP@@UBEIXZ ; CryptoPP::SimpleKeyingInterfaceImpl<CryptoPP::ConcretePolicyHolder<CryptoPP::PanamaCipherPolicy<CryptoPP::EnumToType<enum CryptoPP::ByteOrder,0> >,CryptoPP::AdditiveCipherTemplate<CryptoPP::AbstractPolicyHolder<CryptoPP::AdditiveCipherAbstractPolicy,CryptoPP::SymmetricCipher> >,CryptoPP::AdditiveCipherAbstractPolicy>,CryptoPP::PanamaCipherInfo<CryptoPP::EnumToType<enum CryptoPP::ByteOrder,0> > >::IVSize
PUBLIC	?AlgorithmName@?$AlgorithmImpl@V?$SimpleKeyingInterfaceImpl@V?$ConcretePolicyHolder@V?$PanamaCipherPolicy@U?$EnumToType@W4ByteOrder@CryptoPP@@$0A@@CryptoPP@@@CryptoPP@@V?$AdditiveCipherTemplate@V?$AbstractPolicyHolder@UAdditiveCipherAbstractPolicy@CryptoPP@@VSymmetricCipher@2@@CryptoPP@@@2@UAdditiveCipherAbstractPolicy@2@@CryptoPP@@U?$PanamaCipherInfo@U?$EnumToType@W4ByteOrder@CryptoPP@@$0A@@CryptoPP@@@2@@CryptoPP@@U?$PanamaCipherInfo@U?$EnumToType@W4ByteOrder@CryptoPP@@$0A@@CryptoPP@@@2@@CryptoPP@@UBE?AV?$basic_string@DU?$char_traits@D@std@@V?$allocator@D@2@@std@@XZ ; CryptoPP::AlgorithmImpl<CryptoPP::SimpleKeyingInterfaceImpl<CryptoPP::ConcretePolicyHolder<CryptoPP::PanamaCipherPolicy<CryptoPP::EnumToType<enum CryptoPP::ByteOrder,0> >,CryptoPP::AdditiveCipherTemplate<CryptoPP::AbstractPolicyHolder<CryptoPP::AdditiveCipherAbstractPolicy,CryptoPP::SymmetricCipher> >,CryptoPP::AdditiveCipherAbstractPolicy>,CryptoPP::PanamaCipherInfo<CryptoPP::EnumToType<enum CryptoPP::ByteOrder,0> > >,CryptoPP::PanamaCipherInfo<CryptoPP::EnumToType<enum CryptoPP::ByteOrder,0> > >::AlgorithmName
PUBLIC	??1?$SymmetricCipherFinal@V?$ConcretePolicyHolder@V?$PanamaCipherPolicy@U?$EnumToType@W4ByteOrder@CryptoPP@@$0A@@CryptoPP@@@CryptoPP@@V?$AdditiveCipherTemplate@V?$AbstractPolicyHolder@UAdditiveCipherAbstractPolicy@CryptoPP@@VSymmetricCipher@2@@CryptoPP@@@2@UAdditiveCipherAbstractPolicy@2@@CryptoPP@@U?$PanamaCipherInfo@U?$EnumToType@W4ByteOrder@CryptoPP@@$0A@@CryptoPP@@@2@@CryptoPP@@UAE@XZ ; CryptoPP::SymmetricCipherFinal<CryptoPP::ConcretePolicyHolder<CryptoPP::PanamaCipherPolicy<CryptoPP::EnumToType<enum CryptoPP::ByteOrder,0> >,CryptoPP::AdditiveCipherTemplate<CryptoPP::AbstractPolicyHolder<CryptoPP::AdditiveCipherAbstractPolicy,CryptoPP::SymmetricCipher> >,CryptoPP::AdditiveCipherAbstractPolicy>,CryptoPP::PanamaCipherInfo<CryptoPP::EnumToType<enum CryptoPP::ByteOrder,0> > >::~SymmetricCipherFinal<CryptoPP::ConcretePolicyHolder<CryptoPP::PanamaCipherPolicy<CryptoPP::EnumToType<enum CryptoPP::ByteOrder,0> >,CryptoPP::AdditiveCipherTemplate<CryptoPP::AbstractPolicyHolder<CryptoPP::AdditiveCipherAbstractPolicy,CryptoPP::SymmetricCipher> >,CryptoPP::AdditiveCipherAbstractPolicy>,CryptoPP::PanamaCipherInfo<CryptoPP::EnumToType<enum CryptoPP::ByteOrder,0> > >
PUBLIC	??0?$SymmetricCipherFinal@V?$ConcretePolicyHolder@V?$PanamaCipherPolicy@U?$EnumToType@W4ByteOrder@CryptoPP@@$0A@@CryptoPP@@@CryptoPP@@V?$AdditiveCipherTemplate@V?$AbstractPolicyHolder@UAdditiveCipherAbstractPolicy@CryptoPP@@VSymmetricCipher@2@@CryptoPP@@@2@UAdditiveCipherAbstractPolicy@2@@CryptoPP@@U?$PanamaCipherInfo@U?$EnumToType@W4ByteOrder@CryptoPP@@$0A@@CryptoPP@@@2@@CryptoPP@@QAE@XZ ; CryptoPP::SymmetricCipherFinal<CryptoPP::ConcretePolicyHolder<CryptoPP::PanamaCipherPolicy<CryptoPP::EnumToType<enum CryptoPP::ByteOrder,0> >,CryptoPP::AdditiveCipherTemplate<CryptoPP::AbstractPolicyHolder<CryptoPP::AdditiveCipherAbstractPolicy,CryptoPP::SymmetricCipher> >,CryptoPP::AdditiveCipherAbstractPolicy>,CryptoPP::PanamaCipherInfo<CryptoPP::EnumToType<enum CryptoPP::ByteOrder,0> > >::SymmetricCipherFinal<CryptoPP::ConcretePolicyHolder<CryptoPP::PanamaCipherPolicy<CryptoPP::EnumToType<enum CryptoPP::ByteOrder,0> >,CryptoPP::AdditiveCipherTemplate<CryptoPP::AbstractPolicyHolder<CryptoPP::AdditiveCipherAbstractPolicy,CryptoPP::SymmetricCipher> >,CryptoPP::AdditiveCipherAbstractPolicy>,CryptoPP::PanamaCipherInfo<CryptoPP::EnumToType<enum CryptoPP::ByteOrder,0> > >
PUBLIC	?Clone@?$SymmetricCipherFinal@V?$ConcretePolicyHolder@V?$PanamaCipherPolicy@U?$EnumToType@W4ByteOrder@CryptoPP@@$0A@@CryptoPP@@@CryptoPP@@V?$AdditiveCipherTemplate@V?$AbstractPolicyHolder@UAdditiveCipherAbstractPolicy@CryptoPP@@VSymmetricCipher@2@@CryptoPP@@@2@UAdditiveCipherAbstractPolicy@2@@CryptoPP@@U?$PanamaCipherInfo@U?$EnumToType@W4ByteOrder@CryptoPP@@$0A@@CryptoPP@@@2@@CryptoPP@@UBEPAVClonable@2@XZ ; CryptoPP::SymmetricCipherFinal<CryptoPP::ConcretePolicyHolder<CryptoPP::PanamaCipherPolicy<CryptoPP::EnumToType<enum CryptoPP::ByteOrder,0> >,CryptoPP::AdditiveCipherTemplate<CryptoPP::AbstractPolicyHolder<CryptoPP::AdditiveCipherAbstractPolicy,CryptoPP::SymmetricCipher> >,CryptoPP::AdditiveCipherAbstractPolicy>,CryptoPP::PanamaCipherInfo<CryptoPP::EnumToType<enum CryptoPP::ByteOrder,0> > >::Clone
PUBLIC	??_G?$SymmetricCipherFinal@V?$ConcretePolicyHolder@V?$PanamaCipherPolicy@U?$EnumToType@W4ByteOrder@CryptoPP@@$0A@@CryptoPP@@@CryptoPP@@V?$AdditiveCipherTemplate@V?$AbstractPolicyHolder@UAdditiveCipherAbstractPolicy@CryptoPP@@VSymmetricCipher@2@@CryptoPP@@@2@UAdditiveCipherAbstractPolicy@2@@CryptoPP@@U?$PanamaCipherInfo@U?$EnumToType@W4ByteOrder@CryptoPP@@$0A@@CryptoPP@@@2@@CryptoPP@@UAEPAXI@Z ; CryptoPP::SymmetricCipherFinal<CryptoPP::ConcretePolicyHolder<CryptoPP::PanamaCipherPolicy<CryptoPP::EnumToType<enum CryptoPP::ByteOrder,0> >,CryptoPP::AdditiveCipherTemplate<CryptoPP::AbstractPolicyHolder<CryptoPP::AdditiveCipherAbstractPolicy,CryptoPP::SymmetricCipher> >,CryptoPP::AdditiveCipherAbstractPolicy>,CryptoPP::PanamaCipherInfo<CryptoPP::EnumToType<enum CryptoPP::ByteOrder,0> > >::`scalar deleting destructor'
PUBLIC	??$_Emplace_reallocate@V?$basic_string@DU?$char_traits@D@std@@V?$allocator@D@2@@std@@@?$vector@V?$basic_string@DU?$char_traits@D@std@@V?$allocator@D@2@@std@@V?$allocator@V?$basic_string@DU?$char_traits@D@std@@V?$allocator@D@2@@std@@@2@@std@@QAEPAV?$basic_string@DU?$char_traits@D@std@@V?$allocator@D@2@@1@QAV21@$$QAV21@@Z ; std::vector<std::basic_string<char,std::char_traits<char>,std::allocator<char> >,std::allocator<std::basic_string<char,std::char_traits<char>,std::allocator<char> > > >::_Emplace_reallocate<std::basic_string<char,std::char_traits<char>,std::allocator<char> > >
PUBLIC	??$use_facet@V?$codecvt@_WDU_Mbstatet@@@std@@@std@@YAABV?$codecvt@_WDU_Mbstatet@@@0@ABVlocale@0@@Z ; std::use_facet<std::codecvt<wchar_t,char,_Mbstatet> >
PUBLIC	??0InputRejected@?$InputRejecting@VFilter@CryptoPP@@@CryptoPP@@QAE@XZ ; CryptoPP::InputRejecting<CryptoPP::Filter>::InputRejected::InputRejected
PUBLIC	??1InputRejected@?$InputRejecting@VFilter@CryptoPP@@@CryptoPP@@UAE@XZ ; CryptoPP::InputRejecting<CryptoPP::Filter>::InputRejected::~InputRejected
PUBLIC	??0InputRejected@?$InputRejecting@VFilter@CryptoPP@@@CryptoPP@@QAE@ABU012@@Z ; CryptoPP::InputRejecting<CryptoPP::Filter>::InputRejected::InputRejected
PUBLIC	??_GInputRejected@?$InputRejecting@VFilter@CryptoPP@@@CryptoPP@@UAEPAXI@Z ; CryptoPP::InputRejecting<CryptoPP::Filter>::InputRejected::`scalar deleting destructor'
PUBLIC	??0InputRejected@?$InputRejecting@VBufferedTransformation@CryptoPP@@@CryptoPP@@QAE@XZ ; CryptoPP::InputRejecting<CryptoPP::BufferedTransformation>::InputRejected::InputRejected
PUBLIC	??1InputRejected@?$InputRejecting@VBufferedTransformation@CryptoPP@@@CryptoPP@@UAE@XZ ; CryptoPP::InputRejecting<CryptoPP::BufferedTransformation>::InputRejected::~InputRejected
PUBLIC	??0InputRejected@?$InputRejecting@VBufferedTransformation@CryptoPP@@@CryptoPP@@QAE@ABU012@@Z ; CryptoPP::InputRejecting<CryptoPP::BufferedTransformation>::InputRejected::InputRejected
PUBLIC	??_GInputRejected@?$InputRejecting@VBufferedTransformation@CryptoPP@@@CryptoPP@@UAEPAXI@Z ; CryptoPP::InputRejecting<CryptoPP::BufferedTransformation>::InputRejected::`scalar deleting destructor'
PUBLIC	??$?5_WU?$char_traits@_W@std@@V?$allocator@_W@1@@std@@YAAAV?$basic_istream@_WU?$char_traits@_W@std@@@0@AAV10@AAV?$basic_string@_WU?$char_traits@_W@std@@V?$allocator@_W@2@@0@@Z ; std::operator>><wchar_t,std::char_traits<wchar_t>,std::allocator<wchar_t> >
PUBLIC	??$?5_WU?$char_traits@_W@std@@V?$allocator@_W@1@@std@@YAAAV?$basic_istream@_WU?$char_traits@_W@std@@@0@$$QAV10@AAV?$basic_string@_WU?$char_traits@_W@std@@V?$allocator@_W@2@@0@@Z ; std::operator>><wchar_t,std::char_traits<wchar_t>,std::allocator<wchar_t> >
PUBLIC	??$StandardReallocate@EV?$AllocatorWithCleanup@E$0A@@CryptoPP@@@CryptoPP@@YAPAEAAV?$AllocatorWithCleanup@E$0A@@0@PAEII_N@Z ; CryptoPP::StandardReallocate<unsigned char,CryptoPP::AllocatorWithCleanup<unsigned char,0> >
PUBLIC	??$_Construct_in_place@PAU?$_List_node@PAUSEterPackIndex@@PAX@std@@AAPAU12@@std@@YAXAAPAU?$_List_node@PAUSEterPackIndex@@PAX@0@0@Z ; std::_Construct_in_place<std::_List_node<SEterPackIndex *,void *> *,std::_List_node<SEterPackIndex *,void *> * &>
PUBLIC	??$_Destroy_in_place@PA_W@std@@YAXAAPA_W@Z	; std::_Destroy_in_place<wchar_t *>
PUBLIC	??$_Construct_in_place@PA_WABQA_W@std@@YAXAAPA_WABQA_W@Z ; std::_Construct_in_place<wchar_t *,wchar_t * const &>
PUBLIC	??$_Destroy_in_place@PAD@std@@YAXAAPAD@Z	; std::_Destroy_in_place<char *>
PUBLIC	??$_Refancy@PAD$0A@@std@@YAPADPAD@Z		; std::_Refancy<char *,0>
PUBLIC	??$_Construct_in_place@PADABQAD@std@@YAXAAPADABQAD@Z ; std::_Construct_in_place<char *,char * const &>
PUBLIC	??$_Destroy_range@V?$allocator@V?$basic_string@_WU?$char_traits@_W@std@@V?$allocator@_W@2@@std@@@std@@@std@@YAXPAV?$basic_string@_WU?$char_traits@_W@std@@V?$allocator@_W@2@@0@QAV10@AAV?$allocator@V?$basic_string@_WU?$char_traits@_W@std@@V?$allocator@_W@2@@std@@@0@@Z ; std::_Destroy_range<std::allocator<std::basic_string<wchar_t,std::char_traits<wchar_t>,std::allocator<wchar_t> > > >
PUBLIC	??$_Deallocate@$07$0A@@std@@YAXPAXI@Z		; std::_Deallocate<8,0>
PUBLIC	??$_Allocate@$07U_Default_allocate_traits@std@@$0A@@std@@YAPAXI@Z ; std::_Allocate<8,std::_Default_allocate_traits,0>
PUBLIC	??$use_facet@V?$ctype@_W@std@@@std@@YAABV?$ctype@_W@0@ABVlocale@0@@Z ; std::use_facet<std::ctype<wchar_t> >
PUBLIC	??$_Destroy_range@V?$allocator@E@std@@@std@@YAXPAEQAEAAV?$allocator@E@0@@Z ; std::_Destroy_range<std::allocator<unsigned char> >
PUBLIC	??$try_emplace_unique@ABK@?$table@U?$map@V?$allocator@U?$pair@$$CBKK@std@@@std@@KKU?$hash@K@boost@@U?$equal_to@K@2@@detail@unordered@boost@@@detail@unordered@boost@@QAE?AU?$pair@U?$iterator@U?$ptr_node@U?$pair@$$CBKK@std@@@detail@unordered@boost@@@iterator_detail@unordered@boost@@_N@std@@ABK@Z ; boost::unordered::detail::table<boost::unordered::detail::map<std::allocator<std::pair<unsigned long const ,unsigned long> >,unsigned long,unsigned long,boost::hash<unsigned long>,std::equal_to<unsigned long> > >::try_emplace_unique<unsigned long const &>
PUBLIC	??1?$unique_ptr@V_Facet_base@std@@U?$default_delete@V_Facet_base@std@@@2@@std@@QAE@XZ ; std::unique_ptr<std::_Facet_base,std::default_delete<std::_Facet_base> >::~unique_ptr<std::_Facet_base,std::default_delete<std::_Facet_base> >
PUBLIC	??1?$_Alloc_construct_ptr@V?$allocator@U?$_List_node@PAUSEterPackIndex@@PAX@std@@@std@@@std@@QAE@XZ ; std::_Alloc_construct_ptr<std::allocator<std::_List_node<SEterPackIndex *,void *> > >::~_Alloc_construct_ptr<std::allocator<std::_List_node<SEterPackIndex *,void *> > >
PUBLIC	??$emplace_unique@U?$pair@$$CBKPAUSEterPackIndex@@@std@@@?$table@U?$map@V?$allocator@U?$pair@$$CBKPAUSEterPackIndex@@@std@@@std@@KPAUSEterPackIndex@@U?$hash@K@boost@@U?$equal_to@K@2@@detail@unordered@boost@@@detail@unordered@boost@@QAE?AU?$pair@U?$iterator@U?$ptr_node@U?$pair@$$CBKPAUSEterPackIndex@@@std@@@detail@unordered@boost@@@iterator_detail@unordered@boost@@_N@std@@ABK$$QAU?$pair@$$CBKPAUSEterPackIndex@@@5@@Z ; boost::unordered::detail::table<boost::unordered::detail::map<std::allocator<std::pair<unsigned long const ,SEterPackIndex *> >,unsigned long,SEterPackIndex *,boost::hash<unsigned long>,std::equal_to<unsigned long> > >::emplace_unique<std::pair<unsigned long const ,SEterPackIndex *> >
PUBLIC	??$_Destroy_in_place@PAU?$_List_node@PAUSEterPackIndex@@PAX@std@@@std@@YAXAAPAU?$_List_node@PAUSEterPackIndex@@PAX@0@@Z ; std::_Destroy_in_place<std::_List_node<SEterPackIndex *,void *> *>
PUBLIC	??$_Allocate_manually_vector_aligned@U_Default_allocate_traits@std@@@std@@YAPAXI@Z ; std::_Allocate_manually_vector_aligned<std::_Default_allocate_traits>
PUBLIC	??$_Construct_in_place@PAU?$_List_node@PAUSEterPackIndex@@PAX@std@@ABQAU12@@std@@YAXAAPAU?$_List_node@PAUSEterPackIndex@@PAX@0@ABQAU10@@Z ; std::_Construct_in_place<std::_List_node<SEterPackIndex *,void *> *,std::_List_node<SEterPackIndex *,void *> * const &>
PUBLIC	??$_Atomic_address_as@$$CBJ$$CBU?$_Atomic_padded@I@std@@@std@@YAPDJABU?$_Atomic_padded@I@0@@Z ; std::_Atomic_address_as<long const ,std::_Atomic_padded<unsigned int> const >
PUBLIC	??$_Atomic_reinterpret_as@HI@std@@YAHABI@Z	; std::_Atomic_reinterpret_as<int,unsigned int>
PUBLIC	??$_Atomic_address_as@JU?$_Atomic_padded@I@std@@@std@@YAPCJAAU?$_Atomic_padded@I@0@@Z ; std::_Atomic_address_as<long,std::_Atomic_padded<unsigned int> >
PUBLIC	??$_Destroy_range@V?$allocator@V?$basic_string@DU?$char_traits@D@std@@V?$allocator@D@2@@std@@@std@@@std@@YAXPAV?$basic_string@DU?$char_traits@D@std@@V?$allocator@D@2@@0@QAV10@AAV?$allocator@V?$basic_string@DU?$char_traits@D@std@@V?$allocator@D@2@@std@@@0@@Z ; std::_Destroy_range<std::allocator<std::basic_string<char,std::char_traits<char>,std::allocator<char> > > >
PUBLIC	??$_Uninitialized_move@PAV?$basic_string@DU?$char_traits@D@std@@V?$allocator@D@2@@std@@V?$allocator@V?$basic_string@DU?$char_traits@D@std@@V?$allocator@D@2@@std@@@2@@std@@YAPAV?$basic_string@DU?$char_traits@D@std@@V?$allocator@D@2@@0@QAV10@0PAV10@AAV?$allocator@V?$basic_string@DU?$char_traits@D@std@@V?$allocator@D@2@@std@@@0@@Z ; std::_Uninitialized_move<std::basic_string<char,std::char_traits<char>,std::allocator<char> > *,std::allocator<std::basic_string<char,std::char_traits<char>,std::allocator<char> > > >
PUBLIC	?new_bucket_count@?$prime_policy@I@detail@unordered@boost@@SAII@Z ; boost::unordered::detail::prime_policy<unsigned int>::new_bucket_count
PUBLIC	??$find_node_impl@KU?$equal_to@K@std@@@?$table@U?$map@V?$allocator@U?$pair@$$CBKPAUSEterPackIndex@@@std@@@std@@KPAUSEterPackIndex@@U?$hash@K@boost@@U?$equal_to@K@2@@detail@unordered@boost@@@detail@unordered@boost@@QBEPAU?$ptr_node@U?$pair@$$CBKPAUSEterPackIndex@@@std@@@123@IABKABU?$equal_to@K@std@@@Z ; boost::unordered::detail::table<boost::unordered::detail::map<std::allocator<std::pair<unsigned long const ,SEterPackIndex *> >,unsigned long,SEterPackIndex *,boost::hash<unsigned long>,std::equal_to<unsigned long> > >::find_node_impl<unsigned long,std::equal_to<unsigned long> >
PUBLIC	??1?$node_tmp@V?$allocator@U?$ptr_node@U?$pair@$$CBKUItem@CEterFileDict@@@std@@@detail@unordered@boost@@@std@@@detail@unordered@boost@@QAE@XZ ; boost::unordered::detail::node_tmp<std::allocator<boost::unordered::detail::ptr_node<std::pair<unsigned long const ,CEterFileDict::Item> > > >::~node_tmp<std::allocator<boost::unordered::detail::ptr_node<std::pair<unsigned long const ,CEterFileDict::Item> > > >
PUBLIC	??$find_node_impl@KU?$equal_to@K@std@@@?$table@U?$map@V?$allocator@U?$pair@$$CBKUItem@CEterFileDict@@@std@@@std@@KUItem@CEterFileDict@@U?$hash@K@boost@@U?$equal_to@K@2@@detail@unordered@boost@@@detail@unordered@boost@@QBEPAU?$ptr_node@U?$pair@$$CBKUItem@CEterFileDict@@@std@@@123@IABKABU?$equal_to@K@std@@@Z ; boost::unordered::detail::table<boost::unordered::detail::map<std::allocator<std::pair<unsigned long const ,CEterFileDict::Item> >,unsigned long,CEterFileDict::Item,boost::hash<unsigned long>,std::equal_to<unsigned long> > >::find_node_impl<unsigned long,std::equal_to<unsigned long> >
PUBLIC	??$_Atomic_reinterpret_as@JI@std@@YAJABI@Z	; std::_Atomic_reinterpret_as<long,unsigned int>
PUBLIC	??1_Sentry_base@?$basic_istream@_WU?$char_traits@_W@std@@@std@@QAE@XZ ; std::basic_istream<wchar_t,std::char_traits<wchar_t> >::_Sentry_base::~_Sentry_base
PUBLIC	??1sentry@?$basic_istream@_WU?$char_traits@_W@std@@@std@@QAE@XZ ; std::basic_istream<wchar_t,std::char_traits<wchar_t> >::sentry::~sentry
PUBLIC	??$?9V?$basic_string@_WU?$char_traits@_W@std@@V?$allocator@_W@2@@std@@_WU?$char_traits@_W@1@H@std@@YA_NABV?$istream_iterator@V?$basic_string@_WU?$char_traits@_W@std@@V?$allocator@_W@2@@std@@_WU?$char_traits@_W@2@H@0@0@Z ; std::operator!=<std::basic_string<wchar_t,std::char_traits<wchar_t>,std::allocator<wchar_t> >,wchar_t,std::char_traits<wchar_t>,int>
PUBLIC	??$_Sort_unchecked@PAV?$basic_string@_WU?$char_traits@_W@std@@V?$allocator@_W@2@@std@@U?$less@X@2@@std@@YAXPAV?$basic_string@_WU?$char_traits@_W@std@@V?$allocator@_W@2@@0@0HU?$less@X@0@@Z ; std::_Sort_unchecked<std::basic_string<wchar_t,std::char_traits<wchar_t>,std::allocator<wchar_t> > *,std::less<void> >
PUBLIC	??1?$node_constructor@V?$allocator@U?$ptr_node@U?$pair@$$CBKUItem@CEterFileDict@@@std@@@detail@unordered@boost@@@std@@@detail@unordered@boost@@QAE@XZ ; boost::unordered::detail::node_constructor<std::allocator<boost::unordered::detail::ptr_node<std::pair<unsigned long const ,CEterFileDict::Item> > > >::~node_constructor<std::allocator<boost::unordered::detail::ptr_node<std::pair<unsigned long const ,CEterFileDict::Item> > > >
PUBLIC	?create_node@?$node_constructor@V?$allocator@U?$ptr_node@U?$pair@$$CBKUItem@CEterFileDict@@@std@@@detail@unordered@boost@@@std@@@detail@unordered@boost@@QAEXXZ ; boost::unordered::detail::node_constructor<std::allocator<boost::unordered::detail::ptr_node<std::pair<unsigned long const ,CEterFileDict::Item> > > >::create_node
PUBLIC	??$?6_WU?$char_traits@_W@std@@V?$allocator@_W@1@@std@@YAAAV?$basic_ostream@_WU?$char_traits@_W@std@@@0@AAV10@ABV?$basic_string@_WU?$char_traits@_W@std@@V?$allocator@_W@2@@0@@Z ; std::operator<<<wchar_t,std::char_traits<wchar_t>,std::allocator<wchar_t> >
PUBLIC	??$?6_WU?$char_traits@_W@std@@@std@@YAAAV?$basic_ostream@_WU?$char_traits@_W@std@@@0@AAV10@PB_W@Z ; std::operator<<<wchar_t,std::char_traits<wchar_t> >
PUBLIC	??1?$node_tmp@V?$allocator@U?$ptr_node@U?$pair@$$CBKPAUSEterPackIndex@@@std@@@detail@unordered@boost@@@std@@@detail@unordered@boost@@QAE@XZ ; boost::unordered::detail::node_tmp<std::allocator<boost::unordered::detail::ptr_node<std::pair<unsigned long const ,SEterPackIndex *> > > >::~node_tmp<std::allocator<boost::unordered::detail::ptr_node<std::pair<unsigned long const ,SEterPackIndex *> > > >
PUBLIC	??1?$node_tmp@V?$allocator@U?$ptr_node@U?$pair@$$CBKK@std@@@detail@unordered@boost@@@std@@@detail@unordered@boost@@QAE@XZ ; boost::unordered::detail::node_tmp<std::allocator<boost::unordered::detail::ptr_node<std::pair<unsigned long const ,unsigned long> > > >::~node_tmp<std::allocator<boost::unordered::detail::ptr_node<std::pair<unsigned long const ,unsigned long> > > >
PUBLIC	??$_Emplace_reallocate@ABV?$basic_string@_WU?$char_traits@_W@std@@V?$allocator@_W@2@@std@@@?$vector@V?$basic_string@_WU?$char_traits@_W@std@@V?$allocator@_W@2@@std@@V?$allocator@V?$basic_string@_WU?$char_traits@_W@std@@V?$allocator@_W@2@@std@@@2@@std@@QAEPAV?$basic_string@_WU?$char_traits@_W@std@@V?$allocator@_W@2@@1@QAV21@ABV21@@Z ; std::vector<std::basic_string<wchar_t,std::char_traits<wchar_t>,std::allocator<wchar_t> >,std::allocator<std::basic_string<wchar_t,std::char_traits<wchar_t>,std::allocator<wchar_t> > > >::_Emplace_reallocate<std::basic_string<wchar_t,std::char_traits<wchar_t>,std::allocator<wchar_t> > const &>
PUBLIC	??1_Sentry_base@?$basic_ostream@_WU?$char_traits@_W@std@@@std@@QAE@XZ ; std::basic_ostream<wchar_t,std::char_traits<wchar_t> >::_Sentry_base::~_Sentry_base
PUBLIC	??0sentry@?$basic_ostream@_WU?$char_traits@_W@std@@@std@@QAE@AAV12@@Z ; std::basic_ostream<wchar_t,std::char_traits<wchar_t> >::sentry::sentry
PUBLIC	??1sentry@?$basic_ostream@_WU?$char_traits@_W@std@@@std@@QAE@XZ ; std::basic_ostream<wchar_t,std::char_traits<wchar_t> >::sentry::~sentry
PUBLIC	??1?$node_constructor@V?$allocator@U?$ptr_node@U?$pair@$$CBKK@std@@@detail@unordered@boost@@@std@@@detail@unordered@boost@@QAE@XZ ; boost::unordered::detail::node_constructor<std::allocator<boost::unordered::detail::ptr_node<std::pair<unsigned long const ,unsigned long> > > >::~node_constructor<std::allocator<boost::unordered::detail::ptr_node<std::pair<unsigned long const ,unsigned long> > > >
PUBLIC	?create_node@?$node_constructor@V?$allocator@U?$ptr_node@U?$pair@$$CBKK@std@@@detail@unordered@boost@@@std@@@detail@unordered@boost@@QAEXXZ ; boost::unordered::detail::node_constructor<std::allocator<boost::unordered::detail::ptr_node<std::pair<unsigned long const ,unsigned long> > > >::create_node
PUBLIC	??$?8V?$basic_string@_WU?$char_traits@_W@std@@V?$allocator@_W@2@@std@@_WU?$char_traits@_W@1@H@std@@YA_NABV?$istream_iterator@V?$basic_string@_WU?$char_traits@_W@std@@V?$allocator@_W@2@@std@@_WU?$char_traits@_W@2@H@0@0@Z ; std::operator==<std::basic_string<wchar_t,std::char_traits<wchar_t>,std::allocator<wchar_t> >,wchar_t,std::char_traits<wchar_t>,int>
PUBLIC	??$_Insertion_sort_unchecked@PAV?$basic_string@_WU?$char_traits@_W@std@@V?$allocator@_W@2@@std@@U?$less@X@2@@std@@YAPAV?$basic_string@_WU?$char_traits@_W@std@@V?$allocator@_W@2@@0@PAV10@QAV10@U?$less@X@0@@Z ; std::_Insertion_sort_unchecked<std::basic_string<wchar_t,std::char_traits<wchar_t>,std::allocator<wchar_t> > *,std::less<void> >
PUBLIC	??$_Partition_by_median_guess_unchecked@PAV?$basic_string@_WU?$char_traits@_W@std@@V?$allocator@_W@2@@std@@U?$less@X@2@@std@@YA?AU?$pair@PAV?$basic_string@_WU?$char_traits@_W@std@@V?$allocator@_W@2@@std@@PAV12@@0@PAV?$basic_string@_WU?$char_traits@_W@std@@V?$allocator@_W@2@@0@0U?$less@X@0@@Z ; std::_Partition_by_median_guess_unchecked<std::basic_string<wchar_t,std::char_traits<wchar_t>,std::allocator<wchar_t> > *,std::less<void> >
PUBLIC	??1?$node_constructor@V?$allocator@U?$ptr_node@U?$pair@$$CBKPAUSEterPackIndex@@@std@@@detail@unordered@boost@@@std@@@detail@unordered@boost@@QAE@XZ ; boost::unordered::detail::node_constructor<std::allocator<boost::unordered::detail::ptr_node<std::pair<unsigned long const ,SEterPackIndex *> > > >::~node_constructor<std::allocator<boost::unordered::detail::ptr_node<std::pair<unsigned long const ,SEterPackIndex *> > > >
PUBLIC	?create_node@?$node_constructor@V?$allocator@U?$ptr_node@U?$pair@$$CBKPAUSEterPackIndex@@@std@@@detail@unordered@boost@@@std@@@detail@unordered@boost@@QAEXXZ ; boost::unordered::detail::node_constructor<std::allocator<boost::unordered::detail::ptr_node<std::pair<unsigned long const ,SEterPackIndex *> > > >::create_node
PUBLIC	??$_Insert_string@_WU?$char_traits@_W@std@@I@std@@YAAAV?$basic_ostream@_WU?$char_traits@_W@std@@@0@AAV10@QB_WI@Z ; std::_Insert_string<wchar_t,std::char_traits<wchar_t>,unsigned int>
PUBLIC	??$_Uninitialized_move@PAV?$basic_string@_WU?$char_traits@_W@std@@V?$allocator@_W@2@@std@@V?$allocator@V?$basic_string@_WU?$char_traits@_W@std@@V?$allocator@_W@2@@std@@@2@@std@@YAPAV?$basic_string@_WU?$char_traits@_W@std@@V?$allocator@_W@2@@0@QAV10@0PAV10@AAV?$allocator@V?$basic_string@_WU?$char_traits@_W@std@@V?$allocator@_W@2@@std@@@0@@Z ; std::_Uninitialized_move<std::basic_string<wchar_t,std::char_traits<wchar_t>,std::allocator<wchar_t> > *,std::allocator<std::basic_string<wchar_t,std::char_traits<wchar_t>,std::allocator<wchar_t> > > >
PUBLIC	??$?0ABK$$Z$$V@?$pair@$$CBKK@std@@QAE@Upiecewise_construct_t@1@V?$tuple@ABK@1@V?$tuple@$$V@1@@Z ; std::pair<unsigned long const ,unsigned long>::pair<unsigned long const ,unsigned long><unsigned long const &>
PUBLIC	??$?M_WU?$char_traits@_W@std@@V?$allocator@_W@1@@std@@YA_NABV?$basic_string@_WU?$char_traits@_W@std@@V?$allocator@_W@2@@0@0@Z ; std::operator<<wchar_t,std::char_traits<wchar_t>,std::allocator<wchar_t> >
PUBLIC	??$_Pop_heap_hole_by_index@PAV?$basic_string@_WU?$char_traits@_W@std@@V?$allocator@_W@2@@std@@V12@U?$less@X@2@@std@@YAXPAV?$basic_string@_WU?$char_traits@_W@std@@V?$allocator@_W@2@@0@HH$$QAV10@U?$less@X@0@@Z ; std::_Pop_heap_hole_by_index<std::basic_string<wchar_t,std::char_traits<wchar_t>,std::allocator<wchar_t> > *,std::basic_string<wchar_t,std::char_traits<wchar_t>,std::allocator<wchar_t> >,std::less<void> >
PUBLIC	??$_Pocma@V?$allocator@_W@std@@@std@@YAXAAV?$allocator@_W@0@0@Z ; std::_Pocma<std::allocator<wchar_t> >
PUBLIC	??$?0V?$tuple@ABK@std@@V?$tuple@$$V@1@$0A@$$Z$S@?$pair@$$CBKK@std@@QAE@AAV?$tuple@ABK@1@AAV?$tuple@$$V@1@U?$integer_sequence@I$0A@@1@U?$integer_sequence@I$S@1@@Z ; std::pair<unsigned long const ,unsigned long>::pair<unsigned long const ,unsigned long><std::tuple<unsigned long const &>,std::tuple<>,0>
PUBLIC	??$_Med3_unchecked@PAV?$basic_string@_WU?$char_traits@_W@std@@V?$allocator@_W@2@@std@@U?$less@X@2@@std@@YAXPAV?$basic_string@_WU?$char_traits@_W@std@@V?$allocator@_W@2@@0@00U?$less@X@0@@Z ; std::_Med3_unchecked<std::basic_string<wchar_t,std::char_traits<wchar_t>,std::allocator<wchar_t> > *,std::less<void> >
PUBLIC	??$swap@_WU?$char_traits@_W@std@@V?$allocator@_W@2@@std@@YAXAAV?$basic_string@_WU?$char_traits@_W@std@@V?$allocator@_W@2@@0@0@Z ; std::swap<wchar_t,std::char_traits<wchar_t>,std::allocator<wchar_t> >
PUBLIC	??$_Pocs@V?$allocator@_W@std@@@std@@YAXAAV?$allocator@_W@0@0@Z ; std::_Pocs<std::allocator<wchar_t> >
PUBLIC	??_E?$basic_istream@_WU?$char_traits@_W@std@@@std@@$4PPPPPPPM@A@AEPAXI@Z ; std::basic_istream<wchar_t,std::char_traits<wchar_t> >::`vector deleting destructor'
PUBLIC	??_E?$basic_ifstream@_WU?$char_traits@_W@std@@@std@@$4PPPPPPPM@A@AEPAXI@Z ; std::basic_ifstream<wchar_t,std::char_traits<wchar_t> >::`vector deleting destructor'
PUBLIC	??_E?$StringSinkTemplate@V?$basic_string@DU?$char_traits@D@std@@V?$allocator@D@2@@std@@@CryptoPP@@W3AEPAXI@Z ; [thunk]:CryptoPP::StringSinkTemplate<std::basic_string<char,std::char_traits<char>,std::allocator<char> > >::`vector deleting destructor'
PUBLIC	??_EArraySink@CryptoPP@@W3AEPAXI@Z		; [thunk]:CryptoPP::ArraySink::`vector deleting destructor'
PUBLIC	??_EStringStore@CryptoPP@@W3AEPAXI@Z		; [thunk]:CryptoPP::StringStore::`vector deleting destructor'
PUBLIC	??_EStringSource@CryptoPP@@W3AEPAXI@Z		; [thunk]:CryptoPP::StringSource::`vector deleting destructor'
PUBLIC	??_E?$SourceTemplate@VStringStore@CryptoPP@@@CryptoPP@@W3AEPAXI@Z ; [thunk]:CryptoPP::SourceTemplate<CryptoPP::StringStore>::`vector deleting destructor'
PUBLIC	?AlgorithmProvider@?$AdditiveCipherTemplate@V?$AbstractPolicyHolder@UAdditiveCipherAbstractPolicy@CryptoPP@@VSymmetricCipher@2@@CryptoPP@@@CryptoPP@@W3BE?AV?$basic_string@DU?$char_traits@D@std@@V?$allocator@D@2@@std@@XZ ; [thunk]:CryptoPP::AdditiveCipherTemplate<CryptoPP::AbstractPolicyHolder<CryptoPP::AdditiveCipherAbstractPolicy,CryptoPP::SymmetricCipher> >::AlgorithmProvider`adjustor{4}'
PUBLIC	??_E?$PanamaCipherPolicy@U?$EnumToType@W4ByteOrder@CryptoPP@@$0A@@CryptoPP@@@CryptoPP@@O7AEPAXI@Z ; [thunk]:CryptoPP::PanamaCipherPolicy<CryptoPP::EnumToType<enum CryptoPP::ByteOrder,0> >::`vector deleting destructor'
PUBLIC	??_E?$ConcretePolicyHolder@V?$PanamaCipherPolicy@U?$EnumToType@W4ByteOrder@CryptoPP@@$0A@@CryptoPP@@@CryptoPP@@V?$AdditiveCipherTemplate@V?$AbstractPolicyHolder@UAdditiveCipherAbstractPolicy@CryptoPP@@VSymmetricCipher@2@@CryptoPP@@@2@UAdditiveCipherAbstractPolicy@2@@CryptoPP@@W3AEPAXI@Z ; [thunk]:CryptoPP::ConcretePolicyHolder<CryptoPP::PanamaCipherPolicy<CryptoPP::EnumToType<enum CryptoPP::ByteOrder,0> >,CryptoPP::AdditiveCipherTemplate<CryptoPP::AbstractPolicyHolder<CryptoPP::AdditiveCipherAbstractPolicy,CryptoPP::SymmetricCipher> >,CryptoPP::AdditiveCipherAbstractPolicy>::`vector deleting destructor'
PUBLIC	??_E?$ConcretePolicyHolder@V?$PanamaCipherPolicy@U?$EnumToType@W4ByteOrder@CryptoPP@@$0A@@CryptoPP@@@CryptoPP@@V?$AdditiveCipherTemplate@V?$AbstractPolicyHolder@UAdditiveCipherAbstractPolicy@CryptoPP@@VSymmetricCipher@2@@CryptoPP@@@2@UAdditiveCipherAbstractPolicy@2@@CryptoPP@@W7AEPAXI@Z ; [thunk]:CryptoPP::ConcretePolicyHolder<CryptoPP::PanamaCipherPolicy<CryptoPP::EnumToType<enum CryptoPP::ByteOrder,0> >,CryptoPP::AdditiveCipherTemplate<CryptoPP::AbstractPolicyHolder<CryptoPP::AdditiveCipherAbstractPolicy,CryptoPP::SymmetricCipher> >,CryptoPP::AdditiveCipherAbstractPolicy>::`vector deleting destructor'
PUBLIC	??_E?$ConcretePolicyHolder@V?$PanamaCipherPolicy@U?$EnumToType@W4ByteOrder@CryptoPP@@$0A@@CryptoPP@@@CryptoPP@@V?$AdditiveCipherTemplate@V?$AbstractPolicyHolder@UAdditiveCipherAbstractPolicy@CryptoPP@@VSymmetricCipher@2@@CryptoPP@@@2@UAdditiveCipherAbstractPolicy@2@@CryptoPP@@WCA@AEPAXI@Z ; [thunk]:CryptoPP::ConcretePolicyHolder<CryptoPP::PanamaCipherPolicy<CryptoPP::EnumToType<enum CryptoPP::ByteOrder,0> >,CryptoPP::AdditiveCipherTemplate<CryptoPP::AbstractPolicyHolder<CryptoPP::AdditiveCipherAbstractPolicy,CryptoPP::SymmetricCipher> >,CryptoPP::AdditiveCipherAbstractPolicy>::`vector deleting destructor'
PUBLIC	??_E?$ConcretePolicyHolder@V?$PanamaCipherPolicy@U?$EnumToType@W4ByteOrder@CryptoPP@@$0A@@CryptoPP@@@CryptoPP@@V?$AdditiveCipherTemplate@V?$AbstractPolicyHolder@UAdditiveCipherAbstractPolicy@CryptoPP@@VSymmetricCipher@2@@CryptoPP@@@2@UAdditiveCipherAbstractPolicy@2@@CryptoPP@@WCI@AEPAXI@Z ; [thunk]:CryptoPP::ConcretePolicyHolder<CryptoPP::PanamaCipherPolicy<CryptoPP::EnumToType<enum CryptoPP::ByteOrder,0> >,CryptoPP::AdditiveCipherTemplate<CryptoPP::AbstractPolicyHolder<CryptoPP::AdditiveCipherAbstractPolicy,CryptoPP::SymmetricCipher> >,CryptoPP::AdditiveCipherAbstractPolicy>::`vector deleting destructor'
PUBLIC	??_E?$SymmetricCipherFinal@V?$ConcretePolicyHolder@V?$PanamaCipherPolicy@U?$EnumToType@W4ByteOrder@CryptoPP@@$0A@@CryptoPP@@@CryptoPP@@V?$AdditiveCipherTemplate@V?$AbstractPolicyHolder@UAdditiveCipherAbstractPolicy@CryptoPP@@VSymmetricCipher@2@@CryptoPP@@@2@UAdditiveCipherAbstractPolicy@2@@CryptoPP@@U?$PanamaCipherInfo@U?$EnumToType@W4ByteOrder@CryptoPP@@$0A@@CryptoPP@@@2@@CryptoPP@@W3AEPAXI@Z ; [thunk]:CryptoPP::SymmetricCipherFinal<CryptoPP::ConcretePolicyHolder<CryptoPP::PanamaCipherPolicy<CryptoPP::EnumToType<enum CryptoPP::ByteOrder,0> >,CryptoPP::AdditiveCipherTemplate<CryptoPP::AbstractPolicyHolder<CryptoPP::AdditiveCipherAbstractPolicy,CryptoPP::SymmetricCipher> >,CryptoPP::AdditiveCipherAbstractPolicy>,CryptoPP::PanamaCipherInfo<CryptoPP::EnumToType<enum CryptoPP::ByteOrder,0> > >::`vector deleting destructor'
PUBLIC	??_E?$SymmetricCipherFinal@V?$ConcretePolicyHolder@V?$PanamaCipherPolicy@U?$EnumToType@W4ByteOrder@CryptoPP@@$0A@@CryptoPP@@@CryptoPP@@V?$AdditiveCipherTemplate@V?$AbstractPolicyHolder@UAdditiveCipherAbstractPolicy@CryptoPP@@VSymmetricCipher@2@@CryptoPP@@@2@UAdditiveCipherAbstractPolicy@2@@CryptoPP@@U?$PanamaCipherInfo@U?$EnumToType@W4ByteOrder@CryptoPP@@$0A@@CryptoPP@@@2@@CryptoPP@@W7AEPAXI@Z ; [thunk]:CryptoPP::SymmetricCipherFinal<CryptoPP::ConcretePolicyHolder<CryptoPP::PanamaCipherPolicy<CryptoPP::EnumToType<enum CryptoPP::ByteOrder,0> >,CryptoPP::AdditiveCipherTemplate<CryptoPP::AbstractPolicyHolder<CryptoPP::AdditiveCipherAbstractPolicy,CryptoPP::SymmetricCipher> >,CryptoPP::AdditiveCipherAbstractPolicy>,CryptoPP::PanamaCipherInfo<CryptoPP::EnumToType<enum CryptoPP::ByteOrder,0> > >::`vector deleting destructor'
PUBLIC	?Clone@?$SymmetricCipherFinal@V?$ConcretePolicyHolder@V?$PanamaCipherPolicy@U?$EnumToType@W4ByteOrder@CryptoPP@@$0A@@CryptoPP@@@CryptoPP@@V?$AdditiveCipherTemplate@V?$AbstractPolicyHolder@UAdditiveCipherAbstractPolicy@CryptoPP@@VSymmetricCipher@2@@CryptoPP@@@2@UAdditiveCipherAbstractPolicy@2@@CryptoPP@@U?$PanamaCipherInfo@U?$EnumToType@W4ByteOrder@CryptoPP@@$0A@@CryptoPP@@@2@@CryptoPP@@W3BEPAVClonable@2@XZ ; [thunk]:CryptoPP::SymmetricCipherFinal<CryptoPP::ConcretePolicyHolder<CryptoPP::PanamaCipherPolicy<CryptoPP::EnumToType<enum CryptoPP::ByteOrder,0> >,CryptoPP::AdditiveCipherTemplate<CryptoPP::AbstractPolicyHolder<CryptoPP::AdditiveCipherAbstractPolicy,CryptoPP::SymmetricCipher> >,CryptoPP::AdditiveCipherAbstractPolicy>,CryptoPP::PanamaCipherInfo<CryptoPP::EnumToType<enum CryptoPP::ByteOrder,0> > >::Clone`adjustor{4}'
PUBLIC	?AlgorithmName@?$AlgorithmImpl@V?$SimpleKeyingInterfaceImpl@V?$ConcretePolicyHolder@V?$PanamaCipherPolicy@U?$EnumToType@W4ByteOrder@CryptoPP@@$0A@@CryptoPP@@@CryptoPP@@V?$AdditiveCipherTemplate@V?$AbstractPolicyHolder@UAdditiveCipherAbstractPolicy@CryptoPP@@VSymmetricCipher@2@@CryptoPP@@@2@UAdditiveCipherAbstractPolicy@2@@CryptoPP@@U?$PanamaCipherInfo@U?$EnumToType@W4ByteOrder@CryptoPP@@$0A@@CryptoPP@@@2@@CryptoPP@@U?$PanamaCipherInfo@U?$EnumToType@W4ByteOrder@CryptoPP@@$0A@@CryptoPP@@@2@@CryptoPP@@W3BE?AV?$basic_string@DU?$char_traits@D@std@@V?$allocator@D@2@@std@@XZ ; [thunk]:CryptoPP::AlgorithmImpl<CryptoPP::SimpleKeyingInterfaceImpl<CryptoPP::ConcretePolicyHolder<CryptoPP::PanamaCipherPolicy<CryptoPP::EnumToType<enum CryptoPP::ByteOrder,0> >,CryptoPP::AdditiveCipherTemplate<CryptoPP::AbstractPolicyHolder<CryptoPP::AdditiveCipherAbstractPolicy,CryptoPP::SymmetricCipher> >,CryptoPP::AdditiveCipherAbstractPolicy>,CryptoPP::PanamaCipherInfo<CryptoPP::EnumToType<enum CryptoPP::ByteOrder,0> > >,CryptoPP::PanamaCipherInfo<CryptoPP::EnumToType<enum CryptoPP::ByteOrder,0> > >::AlgorithmName`adjustor{4}'
PUBLIC	??_E?$SymmetricCipherFinal@V?$ConcretePolicyHolder@V?$PanamaCipherPolicy@U?$EnumToType@W4ByteOrder@CryptoPP@@$0A@@CryptoPP@@@CryptoPP@@V?$AdditiveCipherTemplate@V?$AbstractPolicyHolder@UAdditiveCipherAbstractPolicy@CryptoPP@@VSymmetricCipher@2@@CryptoPP@@@2@UAdditiveCipherAbstractPolicy@2@@CryptoPP@@U?$PanamaCipherInfo@U?$EnumToType@W4ByteOrder@CryptoPP@@$0A@@CryptoPP@@@2@@CryptoPP@@WCA@AEPAXI@Z ; [thunk]:CryptoPP::SymmetricCipherFinal<CryptoPP::ConcretePolicyHolder<CryptoPP::PanamaCipherPolicy<CryptoPP::EnumToType<enum CryptoPP::ByteOrder,0> >,CryptoPP::AdditiveCipherTemplate<CryptoPP::AbstractPolicyHolder<CryptoPP::AdditiveCipherAbstractPolicy,CryptoPP::SymmetricCipher> >,CryptoPP::AdditiveCipherAbstractPolicy>,CryptoPP::PanamaCipherInfo<CryptoPP::EnumToType<enum CryptoPP::ByteOrder,0> > >::`vector deleting destructor'
PUBLIC	??_E?$SymmetricCipherFinal@V?$ConcretePolicyHolder@V?$PanamaCipherPolicy@U?$EnumToType@W4ByteOrder@CryptoPP@@$0A@@CryptoPP@@@CryptoPP@@V?$AdditiveCipherTemplate@V?$AbstractPolicyHolder@UAdditiveCipherAbstractPolicy@CryptoPP@@VSymmetricCipher@2@@CryptoPP@@@2@UAdditiveCipherAbstractPolicy@2@@CryptoPP@@U?$PanamaCipherInfo@U?$EnumToType@W4ByteOrder@CryptoPP@@$0A@@CryptoPP@@@2@@CryptoPP@@WCI@AEPAXI@Z ; [thunk]:CryptoPP::SymmetricCipherFinal<CryptoPP::ConcretePolicyHolder<CryptoPP::PanamaCipherPolicy<CryptoPP::EnumToType<enum CryptoPP::ByteOrder,0> >,CryptoPP::AdditiveCipherTemplate<CryptoPP::AbstractPolicyHolder<CryptoPP::AdditiveCipherAbstractPolicy,CryptoPP::SymmetricCipher> >,CryptoPP::AdditiveCipherAbstractPolicy>,CryptoPP::PanamaCipherInfo<CryptoPP::EnumToType<enum CryptoPP::ByteOrder,0> > >::`vector deleting destructor'
PUBLIC	?_OptionsStorage@?1??__local_stdio_printf_options@@9@4_KA ; `__local_stdio_printf_options'::`2'::_OptionsStorage
PUBLIC	??_7exception@std@@6B@				; std::exception::`vftable'
PUBLIC	??_C@_0BC@EOODALEL@Unknown?5exception@		; `string'
PUBLIC	??_7bad_alloc@std@@6B@				; std::bad_alloc::`vftable'
PUBLIC	??_7bad_array_new_length@std@@6B@		; std::bad_array_new_length::`vftable'
PUBLIC	??_C@_0BF@KINCDENJ@bad?5array?5new?5length@	; `string'
PUBLIC	__TI3?AVbad_array_new_length@std@@
PUBLIC	__CTA3?AVbad_array_new_length@std@@
PUBLIC	??_R0?AVbad_array_new_length@std@@@8		; std::bad_array_new_length `RTTI Type Descriptor'
PUBLIC	__CT??_R0?AVbad_array_new_length@std@@@8??0bad_array_new_length@std@@QAE@ABV01@@Z12
PUBLIC	??_R0?AVbad_alloc@std@@@8			; std::bad_alloc `RTTI Type Descriptor'
PUBLIC	__CT??_R0?AVbad_alloc@std@@@8??0bad_alloc@std@@QAE@ABV01@@Z12
PUBLIC	??_R0?AVexception@std@@@8			; std::exception `RTTI Type Descriptor'
PUBLIC	__CT??_R0?AVexception@std@@@8??0exception@std@@QAE@ABV01@@Z12
PUBLIC	??_C@_0BA@JFNIOLAK@string?5too?5long@		; `string'
PUBLIC	??_7bad_cast@std@@6B@				; std::bad_cast::`vftable'
PUBLIC	??_C@_08EPJLHIJG@bad?5cast@			; `string'
PUBLIC	__TI2?AVbad_cast@std@@
PUBLIC	__CTA2?AVbad_cast@std@@
PUBLIC	??_R0?AVbad_cast@std@@@8			; std::bad_cast `RTTI Type Descriptor'
PUBLIC	__CT??_R0?AVbad_cast@std@@@8??0bad_cast@std@@QAE@ABV01@@Z12
PUBLIC	??_7runtime_error@std@@6B@			; std::runtime_error::`vftable'
PUBLIC	??_R0?AVruntime_error@std@@@8			; std::runtime_error `RTTI Type Descriptor'
PUBLIC	__CT??_R0?AVruntime_error@std@@@8??0runtime_error@std@@QAE@ABV01@@Z12
PUBLIC	??_7_System_error@std@@6B@			; std::_System_error::`vftable'
PUBLIC	??_C@_02LMMGGCAJ@?3?5@				; `string'
PUBLIC	??_7system_error@std@@6B@			; std::system_error::`vftable'
PUBLIC	??_C@_00CNPNBAHC@@				; `string'
PUBLIC	??_R0?AVsystem_error@std@@@8			; std::system_error `RTTI Type Descriptor'
PUBLIC	__CT??_R0?AVsystem_error@std@@@8??0system_error@std@@QAE@ABV01@@Z20
PUBLIC	??_R0?AV_System_error@std@@@8			; std::_System_error `RTTI Type Descriptor'
PUBLIC	__CT??_R0?AV_System_error@std@@@8??0_System_error@std@@QAE@ABV01@@Z20
PUBLIC	??_7_Iostream_error_category2@std@@6B@		; std::_Iostream_error_category2::`vftable'
PUBLIC	??_C@_08LLGCOLLL@iostream@			; `string'
PUBLIC	?_Iostream_error@?4??message@_Iostream_error_category2@std@@UBE?AV?$basic_string@DU?$char_traits@D@std@@V?$allocator@D@2@@3@H@Z@4QBDB ; `std::_Iostream_error_category2::message'::`5'::_Iostream_error
PUBLIC	?value@?$prime_list_template@I@detail@unordered@boost@@2QBIB ; boost::unordered::detail::prime_list_template<unsigned int>::value
PUBLIC	?ms_singleton@?$CSingleton@VCLZO@@@@0PAVCLZO@@A	; CSingleton<CLZO>::ms_singleton
PUBLIC	??_7CEterPack@@6B@				; CEterPack::`vftable'
PUBLIC	??_7Exception@CryptoPP@@6B@			; CryptoPP::Exception::`vftable'
PUBLIC	??_7InvalidArgument@CryptoPP@@6B@		; CryptoPP::InvalidArgument::`vftable'
PUBLIC	??_7NotImplemented@CryptoPP@@6B@		; CryptoPP::NotImplemented::`vftable'
PUBLIC	??_7ValueTypeMismatch@NameValuePairs@CryptoPP@@6B@ ; CryptoPP::NameValuePairs::ValueTypeMismatch::`vftable'
PUBLIC	??_7NameValuePairs@CryptoPP@@6B@		; CryptoPP::NameValuePairs::`vftable'
PUBLIC	??_C@_01GEODFPGF@?8@				; `string'
PUBLIC	??_C@_0BI@CPJAGCKP@?8?0?5trying?5to?5retrieve?5?8@ ; `string'
PUBLIC	??_C@_0M@PGGGIJHH@?8?0?5stored?5?8@		; `string'
PUBLIC	??_C@_0CE@LNMKHLKF@NameValuePairs?3?5type?5mismatch?5f@ ; `string'
PUBLIC	__TI4?AVValueTypeMismatch@NameValuePairs@CryptoPP@@
PUBLIC	__CTA4?AVValueTypeMismatch@NameValuePairs@CryptoPP@@
PUBLIC	??_R0?AVValueTypeMismatch@NameValuePairs@CryptoPP@@@8 ; CryptoPP::NameValuePairs::ValueTypeMismatch `RTTI Type Descriptor'
PUBLIC	__CT??_R0?AVValueTypeMismatch@NameValuePairs@CryptoPP@@@8??0ValueTypeMismatch@NameValuePairs@CryptoPP@@QAE@ABV012@@Z48
PUBLIC	??_R0?AVInvalidArgument@CryptoPP@@@8		; CryptoPP::InvalidArgument `RTTI Type Descriptor'
PUBLIC	__CT??_R0?AVInvalidArgument@CryptoPP@@@8??0InvalidArgument@CryptoPP@@QAE@ABV01@@Z40
PUBLIC	??_R0?AVException@CryptoPP@@@8			; CryptoPP::Exception `RTTI Type Descriptor'
PUBLIC	__CT??_R0?AVException@CryptoPP@@@8??0Exception@CryptoPP@@QAE@ABV01@@Z40
PUBLIC	__TI3?AVInvalidArgument@CryptoPP@@
PUBLIC	__CTA3?AVInvalidArgument@CryptoPP@@
PUBLIC	__TI3?AVNotImplemented@CryptoPP@@
PUBLIC	__CTA3?AVNotImplemented@CryptoPP@@
PUBLIC	??_R0?AVNotImplemented@CryptoPP@@@8		; CryptoPP::NotImplemented `RTTI Type Descriptor'
PUBLIC	__CT??_R0?AVNotImplemented@CryptoPP@@@8??0NotImplemented@CryptoPP@@QAE@ABV01@@Z40
PUBLIC	??_C@_0CA@CCPAJEEJ@Clone?$CI?$CJ?5is?5not?5implemented?5yet?4@ ; `string'
PUBLIC	??_C@_07CIFAGBMG@unknown@			; `string'
PUBLIC	??_C@_03BFHCIDFI@C?$CL?$CL@			; `string'
PUBLIC	??_C@_0DA@CJIHPKKH@?3?5this?5object?5doesn?8t?5support?5r@ ; `string'
PUBLIC	??_C@_0EA@BPAJPOGP@StreamTransformation?3?5this?5obje@ ; `string'
PUBLIC	??_C@_0DK@CFJCNMFC@RandomNumberGenerator?3?5Incorpor@ ; `string'
PUBLIC	??_C@_0DG@FIHMKEGL@BufferedTransformation?3?5this?5ob@ ; `string'
PUBLIC	??_7ParameterNotUsed@AlgorithmParametersBase@CryptoPP@@6B@ ; CryptoPP::AlgorithmParametersBase::ParameterNotUsed::`vftable'
PUBLIC	??_7AlgorithmParametersBase@CryptoPP@@6B@	; CryptoPP::AlgorithmParametersBase::`vftable'
PUBLIC	??_C@_0L@IAABKFFP@?$CC?5not?5used@		; `string'
PUBLIC	??_C@_0CF@BLINCPFB@AlgorithmParametersBase?3?5parame@ ; `string'
PUBLIC	__TI3?AVParameterNotUsed@AlgorithmParametersBase@CryptoPP@@
PUBLIC	__CTA3?AVParameterNotUsed@AlgorithmParametersBase@CryptoPP@@
PUBLIC	??_R0?AVParameterNotUsed@AlgorithmParametersBase@CryptoPP@@@8 ; CryptoPP::AlgorithmParametersBase::ParameterNotUsed `RTTI Type Descriptor'
PUBLIC	__CT??_R0?AVParameterNotUsed@AlgorithmParametersBase@CryptoPP@@@8??0ParameterNotUsed@AlgorithmParametersBase@CryptoPP@@QAE@ABV012@@Z40
PUBLIC	??_7?$AlgorithmParametersTemplate@VConstByteArrayParameter@CryptoPP@@@CryptoPP@@6B@ ; CryptoPP::AlgorithmParametersTemplate<CryptoPP::ConstByteArrayParameter>::`vftable'
PUBLIC	??_7?$StringSinkTemplate@V?$basic_string@DU?$char_traits@D@std@@V?$allocator@D@2@@std@@@CryptoPP@@6BAlgorithm@1@@ ; CryptoPP::StringSinkTemplate<std::basic_string<char,std::char_traits<char>,std::allocator<char> > >::`vftable'
PUBLIC	??_7?$StringSinkTemplate@V?$basic_string@DU?$char_traits@D@std@@V?$allocator@D@2@@std@@@CryptoPP@@6BWaitable@1@@ ; CryptoPP::StringSinkTemplate<std::basic_string<char,std::char_traits<char>,std::allocator<char> > >::`vftable'
PUBLIC	??_7ArraySink@CryptoPP@@6BAlgorithm@1@@		; CryptoPP::ArraySink::`vftable'
PUBLIC	??_7ArraySink@CryptoPP@@6BWaitable@1@@		; CryptoPP::ArraySink::`vftable'
PUBLIC	??_7StringStore@CryptoPP@@6BAlgorithm@1@@	; CryptoPP::StringStore::`vftable'
PUBLIC	??_7StringStore@CryptoPP@@6BWaitable@1@@	; CryptoPP::StringStore::`vftable'
PUBLIC	??_C@_0M@JMHEFFAI@InputBuffer@			; `string'
PUBLIC	??_7?$SourceTemplate@VStringStore@CryptoPP@@@CryptoPP@@6BAlgorithm@1@@ ; CryptoPP::SourceTemplate<CryptoPP::StringStore>::`vftable'
PUBLIC	??_7?$SourceTemplate@VStringStore@CryptoPP@@@CryptoPP@@6BWaitable@1@@ ; CryptoPP::SourceTemplate<CryptoPP::StringStore>::`vftable'
PUBLIC	??_7StringSource@CryptoPP@@6BAlgorithm@1@@	; CryptoPP::StringSource::`vftable'
PUBLIC	??_7StringSource@CryptoPP@@6BWaitable@1@@	; CryptoPP::StringSource::`vftable'
PUBLIC	??_7Tiger@CryptoPP@@6B@				; CryptoPP::Tiger::`vftable'
PUBLIC	??_C@_05LIOENMIE@Tiger@				; `string'
PUBLIC	??_7SHA1@CryptoPP@@6B@				; CryptoPP::SHA1::`vftable'
PUBLIC	??_C@_05HJMENKNE@SHA?91@			; `string'
PUBLIC	??_7RIPEMD128@CryptoPP@@6B@			; CryptoPP::RIPEMD128::`vftable'
PUBLIC	??_C@_0L@DFIJCONE@RIPEMD?9128@			; `string'
PUBLIC	??_7Whirlpool@CryptoPP@@6B@			; CryptoPP::Whirlpool::`vftable'
PUBLIC	??_C@_09HLDHDDJL@Whirlpool@			; `string'
PUBLIC	??_7_Facet_base@std@@6B@			; std::_Facet_base::`vftable'
PUBLIC	??_C@_0BA@ELKIONDK@bad?5locale?5name@		; `string'
PUBLIC	??_7facet@locale@std@@6B@			; std::locale::facet::`vftable'
PUBLIC	??_7codecvt_base@std@@6B@			; std::codecvt_base::`vftable'
PUBLIC	??_7?$codecvt@_WDU_Mbstatet@@@std@@6B@		; std::codecvt<wchar_t,char,_Mbstatet>::`vftable'
PUBLIC	??_7ctype_base@std@@6B@				; std::ctype_base::`vftable'
PUBLIC	??_7?$ctype@_W@std@@6B@				; std::ctype<wchar_t>::`vftable'
PUBLIC	??_7failure@ios_base@std@@6B@			; std::ios_base::failure::`vftable'
PUBLIC	??_7ios_base@std@@6B@				; std::ios_base::`vftable'
PUBLIC	??_C@_0BF@PHHKMMFD@ios_base?3?3badbit?5set@	; `string'
PUBLIC	??_C@_0BG@FMKFHCIL@ios_base?3?3failbit?5set@	; `string'
PUBLIC	??_C@_0BF@OOHOMBOF@ios_base?3?3eofbit?5set@	; `string'
PUBLIC	__TI5?AVfailure@ios_base@std@@
PUBLIC	__CTA5?AVfailure@ios_base@std@@
PUBLIC	??_R0?AVfailure@ios_base@std@@@8		; std::ios_base::failure `RTTI Type Descriptor'
PUBLIC	__CT??_R0?AVfailure@ios_base@std@@@8??0failure@ios_base@std@@QAE@ABV012@@Z20
PUBLIC	??_C@_04FPOLKAEB@?4log@				; `string'
PUBLIC	??_C@_04BKIDJPM@?4err@				; `string'
PUBLIC	??_C@_01NOFIACDB@w@				; `string'
PUBLIC	??_C@_02DKCKIIND@?$CFs@				; `string'
PUBLIC	??_C@_09BOOFBHDC@Error?3?5?$CFs@		; `string'
PUBLIC	??_7?$basic_ios@_WU?$char_traits@_W@std@@@std@@6B@ ; std::basic_ios<wchar_t,std::char_traits<wchar_t> >::`vftable'
PUBLIC	??_7?$basic_istream@_WU?$char_traits@_W@std@@@std@@6B@ ; std::basic_istream<wchar_t,std::char_traits<wchar_t> >::`vftable'
PUBLIC	??_8?$basic_istream@_WU?$char_traits@_W@std@@@std@@7B@ ; std::basic_istream<wchar_t,std::char_traits<wchar_t> >::`vbtable'
PUBLIC	??_7?$basic_streambuf@_WU?$char_traits@_W@std@@@std@@6B@ ; std::basic_streambuf<wchar_t,std::char_traits<wchar_t> >::`vftable'
PUBLIC	??_7?$basic_filebuf@_WU?$char_traits@_W@std@@@std@@6B@ ; std::basic_filebuf<wchar_t,std::char_traits<wchar_t> >::`vftable'
PUBLIC	??_7?$basic_ifstream@_WU?$char_traits@_W@std@@@std@@6B@ ; std::basic_ifstream<wchar_t,std::char_traits<wchar_t> >::`vftable'
PUBLIC	??_8?$basic_ifstream@_WU?$char_traits@_W@std@@@std@@7B@ ; std::basic_ifstream<wchar_t,std::char_traits<wchar_t> >::`vbtable'
PUBLIC	??_C@_04OLDEJNOH@?4eix@				; `string'
PUBLIC	??_C@_04JJCMEEIK@?4epk@				; `string'
PUBLIC	??_C@_0CO@LCLPMBOA@EncryptIndex?3?5Cannot?5open?5pack?5@ ; `string'
PUBLIC	??_C@_0CB@BKLKOCID@EncryptIndex?3?5Cannot?5encrypt?$CB?5?$CF@ ; `string'
PUBLIC	??_C@_02GMLFBBN@wb@				; `string'
PUBLIC	??_C@_0CP@NIHCOGLD@EncryptIndex?3?5Cannot?5open?5file?5@ ; `string'
PUBLIC	??_C@_0CH@FFDEAKBO@Encryptindex?3?5Cannot?5write?5to?5f@ ; `string'
PUBLIC	??_C@_0CA@IACKDODI@Cannot?5open?5pack?5index?5file?$CB?5?$CFs@ ; `string'
PUBLIC	??_C@_0CB@KNLDPAAC@Pack?5index?5file?5header?5error?$CB?5?$CF@ ; `string'
PUBLIC	??_C@_0CB@HPBCEBAA@Pack?5index?5file?5fourcc?5error?$CB?5?$CF@ ; `string'
PUBLIC	??_C@_0CC@KGHAJIDH@Pack?5index?5file?5version?5error?$CB?5@ ; `string'
PUBLIC	??_C@_0CO@JMMFBMPC@Pack?5index?5file?5size?5error?$CB?5?$CFs?0@ ; `string'
PUBLIC	??_C@_0BK@CFBHFFAK@Failed?5to?5decompress?5?3?5?$CFs@ ; `string'
PUBLIC	??_C@_0BH@CFAPLGOA@Failed?5to?5encrypt?5?3?5?$CFs@ ; `string'
PUBLIC	??_C@_03OFAPEBGM@?$CFs?6@			; `string'
PUBLIC	??_C@_0BC@OILLCEPM@cannot?5decompress@		; `string'
PUBLIC	??_C@_0EE@JIDJMBKL@EterPack?3?3Put?5?3?5Cannot?5put?5to?5e@ ; `string'
PUBLIC	??_C@_0BH@IGHIDEHN@Overwrite?$FLtype?3?$CFu?$FN?5?$CFs?6@ ; `string'
PUBLIC	??_C@_0BD@JEPAOIH@Write?$FLtype?3?$CFu?$FN?5?$CFs?6@ ; `string'
PUBLIC	??_C@_02JDPG@rb@				; `string'
PUBLIC	??_C@_0EC@IGPMDEEF@SYSERR?3?5WriteNewData?$CI?$CJ?3?5CRITICA@ ; `string'
PUBLIC	??_C@_0P@MDGHMGJK@Unref?5File?5?$CFs?6@		; `string'
PUBLIC	??_7?$PanamaCipherPolicy@U?$EnumToType@W4ByteOrder@CryptoPP@@$0A@@CryptoPP@@@CryptoPP@@6B?$AdditiveCipherConcretePolicy@I$07$00UAdditiveCipherAbstractPolicy@CryptoPP@@@1@@ ; CryptoPP::PanamaCipherPolicy<CryptoPP::EnumToType<enum CryptoPP::ByteOrder,0> >::`vftable'
PUBLIC	??_7?$PanamaCipherPolicy@U?$EnumToType@W4ByteOrder@CryptoPP@@$0A@@CryptoPP@@@CryptoPP@@6B?$Panama@U?$EnumToType@W4ByteOrder@CryptoPP@@$0A@@CryptoPP@@@1@@ ; CryptoPP::PanamaCipherPolicy<CryptoPP::EnumToType<enum CryptoPP::ByteOrder,0> >::`vftable'
PUBLIC	??_7?$ConcretePolicyHolder@V?$PanamaCipherPolicy@U?$EnumToType@W4ByteOrder@CryptoPP@@$0A@@CryptoPP@@@CryptoPP@@V?$AdditiveCipherTemplate@V?$AbstractPolicyHolder@UAdditiveCipherAbstractPolicy@CryptoPP@@VSymmetricCipher@2@@CryptoPP@@@2@UAdditiveCipherAbstractPolicy@2@@CryptoPP@@6BSimpleKeyingInterface@1@@ ; CryptoPP::ConcretePolicyHolder<CryptoPP::PanamaCipherPolicy<CryptoPP::EnumToType<enum CryptoPP::ByteOrder,0> >,CryptoPP::AdditiveCipherTemplate<CryptoPP::AbstractPolicyHolder<CryptoPP::AdditiveCipherAbstractPolicy,CryptoPP::SymmetricCipher> >,CryptoPP::AdditiveCipherAbstractPolicy>::`vftable'
PUBLIC	??_7?$ConcretePolicyHolder@V?$PanamaCipherPolicy@U?$EnumToType@W4ByteOrder@CryptoPP@@$0A@@CryptoPP@@@CryptoPP@@V?$AdditiveCipherTemplate@V?$AbstractPolicyHolder@UAdditiveCipherAbstractPolicy@CryptoPP@@VSymmetricCipher@2@@CryptoPP@@@2@UAdditiveCipherAbstractPolicy@2@@CryptoPP@@6BStreamTransformation@1@@ ; CryptoPP::ConcretePolicyHolder<CryptoPP::PanamaCipherPolicy<CryptoPP::EnumToType<enum CryptoPP::ByteOrder,0> >,CryptoPP::AdditiveCipherTemplate<CryptoPP::AbstractPolicyHolder<CryptoPP::AdditiveCipherAbstractPolicy,CryptoPP::SymmetricCipher> >,CryptoPP::AdditiveCipherAbstractPolicy>::`vftable'
PUBLIC	??_7?$ConcretePolicyHolder@V?$PanamaCipherPolicy@U?$EnumToType@W4ByteOrder@CryptoPP@@$0A@@CryptoPP@@@CryptoPP@@V?$AdditiveCipherTemplate@V?$AbstractPolicyHolder@UAdditiveCipherAbstractPolicy@CryptoPP@@VSymmetricCipher@2@@CryptoPP@@@2@UAdditiveCipherAbstractPolicy@2@@CryptoPP@@6B@ ; CryptoPP::ConcretePolicyHolder<CryptoPP::PanamaCipherPolicy<CryptoPP::EnumToType<enum CryptoPP::ByteOrder,0> >,CryptoPP::AdditiveCipherTemplate<CryptoPP::AbstractPolicyHolder<CryptoPP::AdditiveCipherAbstractPolicy,CryptoPP::SymmetricCipher> >,CryptoPP::AdditiveCipherAbstractPolicy>::`vftable'
PUBLIC	??_7?$ConcretePolicyHolder@V?$PanamaCipherPolicy@U?$EnumToType@W4ByteOrder@CryptoPP@@$0A@@CryptoPP@@@CryptoPP@@V?$AdditiveCipherTemplate@V?$AbstractPolicyHolder@UAdditiveCipherAbstractPolicy@CryptoPP@@VSymmetricCipher@2@@CryptoPP@@@2@UAdditiveCipherAbstractPolicy@2@@CryptoPP@@6B?$AdditiveCipherConcretePolicy@I$07$00UAdditiveCipherAbstractPolicy@CryptoPP@@@1@@ ; CryptoPP::ConcretePolicyHolder<CryptoPP::PanamaCipherPolicy<CryptoPP::EnumToType<enum CryptoPP::ByteOrder,0> >,CryptoPP::AdditiveCipherTemplate<CryptoPP::AbstractPolicyHolder<CryptoPP::AdditiveCipherAbstractPolicy,CryptoPP::SymmetricCipher> >,CryptoPP::AdditiveCipherAbstractPolicy>::`vftable'
PUBLIC	??_7?$ConcretePolicyHolder@V?$PanamaCipherPolicy@U?$EnumToType@W4ByteOrder@CryptoPP@@$0A@@CryptoPP@@@CryptoPP@@V?$AdditiveCipherTemplate@V?$AbstractPolicyHolder@UAdditiveCipherAbstractPolicy@CryptoPP@@VSymmetricCipher@2@@CryptoPP@@@2@UAdditiveCipherAbstractPolicy@2@@CryptoPP@@6B?$Panama@U?$EnumToType@W4ByteOrder@CryptoPP@@$0A@@CryptoPP@@@1@@ ; CryptoPP::ConcretePolicyHolder<CryptoPP::PanamaCipherPolicy<CryptoPP::EnumToType<enum CryptoPP::ByteOrder,0> >,CryptoPP::AdditiveCipherTemplate<CryptoPP::AbstractPolicyHolder<CryptoPP::AdditiveCipherAbstractPolicy,CryptoPP::SymmetricCipher> >,CryptoPP::AdditiveCipherAbstractPolicy>::`vftable'
PUBLIC	??_7?$SymmetricCipherFinal@V?$ConcretePolicyHolder@V?$PanamaCipherPolicy@U?$EnumToType@W4ByteOrder@CryptoPP@@$0A@@CryptoPP@@@CryptoPP@@V?$AdditiveCipherTemplate@V?$AbstractPolicyHolder@UAdditiveCipherAbstractPolicy@CryptoPP@@VSymmetricCipher@2@@CryptoPP@@@2@UAdditiveCipherAbstractPolicy@2@@CryptoPP@@U?$PanamaCipherInfo@U?$EnumToType@W4ByteOrder@CryptoPP@@$0A@@CryptoPP@@@2@@CryptoPP@@6BSimpleKeyingInterface@1@@ ; CryptoPP::SymmetricCipherFinal<CryptoPP::ConcretePolicyHolder<CryptoPP::PanamaCipherPolicy<CryptoPP::EnumToType<enum CryptoPP::ByteOrder,0> >,CryptoPP::AdditiveCipherTemplate<CryptoPP::AbstractPolicyHolder<CryptoPP::AdditiveCipherAbstractPolicy,CryptoPP::SymmetricCipher> >,CryptoPP::AdditiveCipherAbstractPolicy>,CryptoPP::PanamaCipherInfo<CryptoPP::EnumToType<enum CryptoPP::ByteOrder,0> > >::`vftable'
PUBLIC	??_7?$SymmetricCipherFinal@V?$ConcretePolicyHolder@V?$PanamaCipherPolicy@U?$EnumToType@W4ByteOrder@CryptoPP@@$0A@@CryptoPP@@@CryptoPP@@V?$AdditiveCipherTemplate@V?$AbstractPolicyHolder@UAdditiveCipherAbstractPolicy@CryptoPP@@VSymmetricCipher@2@@CryptoPP@@@2@UAdditiveCipherAbstractPolicy@2@@CryptoPP@@U?$PanamaCipherInfo@U?$EnumToType@W4ByteOrder@CryptoPP@@$0A@@CryptoPP@@@2@@CryptoPP@@6BStreamTransformation@1@@ ; CryptoPP::SymmetricCipherFinal<CryptoPP::ConcretePolicyHolder<CryptoPP::PanamaCipherPolicy<CryptoPP::EnumToType<enum CryptoPP::ByteOrder,0> >,CryptoPP::AdditiveCipherTemplate<CryptoPP::AbstractPolicyHolder<CryptoPP::AdditiveCipherAbstractPolicy,CryptoPP::SymmetricCipher> >,CryptoPP::AdditiveCipherAbstractPolicy>,CryptoPP::PanamaCipherInfo<CryptoPP::EnumToType<enum CryptoPP::ByteOrder,0> > >::`vftable'
PUBLIC	??_7?$SymmetricCipherFinal@V?$ConcretePolicyHolder@V?$PanamaCipherPolicy@U?$EnumToType@W4ByteOrder@CryptoPP@@$0A@@CryptoPP@@@CryptoPP@@V?$AdditiveCipherTemplate@V?$AbstractPolicyHolder@UAdditiveCipherAbstractPolicy@CryptoPP@@VSymmetricCipher@2@@CryptoPP@@@2@UAdditiveCipherAbstractPolicy@2@@CryptoPP@@U?$PanamaCipherInfo@U?$EnumToType@W4ByteOrder@CryptoPP@@$0A@@CryptoPP@@@2@@CryptoPP@@6B@ ; CryptoPP::SymmetricCipherFinal<CryptoPP::ConcretePolicyHolder<CryptoPP::PanamaCipherPolicy<CryptoPP::EnumToType<enum CryptoPP::ByteOrder,0> >,CryptoPP::AdditiveCipherTemplate<CryptoPP::AbstractPolicyHolder<CryptoPP::AdditiveCipherAbstractPolicy,CryptoPP::SymmetricCipher> >,CryptoPP::AdditiveCipherAbstractPolicy>,CryptoPP::PanamaCipherInfo<CryptoPP::EnumToType<enum CryptoPP::ByteOrder,0> > >::`vftable'
PUBLIC	??_7?$SymmetricCipherFinal@V?$ConcretePolicyHolder@V?$PanamaCipherPolicy@U?$EnumToType@W4ByteOrder@CryptoPP@@$0A@@CryptoPP@@@CryptoPP@@V?$AdditiveCipherTemplate@V?$AbstractPolicyHolder@UAdditiveCipherAbstractPolicy@CryptoPP@@VSymmetricCipher@2@@CryptoPP@@@2@UAdditiveCipherAbstractPolicy@2@@CryptoPP@@U?$PanamaCipherInfo@U?$EnumToType@W4ByteOrder@CryptoPP@@$0A@@CryptoPP@@@2@@CryptoPP@@6B?$AdditiveCipherConcretePolicy@I$07$00UAdditiveCipherAbstractPolicy@CryptoPP@@@1@@ ; CryptoPP::SymmetricCipherFinal<CryptoPP::ConcretePolicyHolder<CryptoPP::PanamaCipherPolicy<CryptoPP::EnumToType<enum CryptoPP::ByteOrder,0> >,CryptoPP::AdditiveCipherTemplate<CryptoPP::AbstractPolicyHolder<CryptoPP::AdditiveCipherAbstractPolicy,CryptoPP::SymmetricCipher> >,CryptoPP::AdditiveCipherAbstractPolicy>,CryptoPP::PanamaCipherInfo<CryptoPP::EnumToType<enum CryptoPP::ByteOrder,0> > >::`vftable'
PUBLIC	??_7?$SymmetricCipherFinal@V?$ConcretePolicyHolder@V?$PanamaCipherPolicy@U?$EnumToType@W4ByteOrder@CryptoPP@@$0A@@CryptoPP@@@CryptoPP@@V?$AdditiveCipherTemplate@V?$AbstractPolicyHolder@UAdditiveCipherAbstractPolicy@CryptoPP@@VSymmetricCipher@2@@CryptoPP@@@2@UAdditiveCipherAbstractPolicy@2@@CryptoPP@@U?$PanamaCipherInfo@U?$EnumToType@W4ByteOrder@CryptoPP@@$0A@@CryptoPP@@@2@@CryptoPP@@6B?$Panama@U?$EnumToType@W4ByteOrder@CryptoPP@@$0A@@CryptoPP@@@1@@ ; CryptoPP::SymmetricCipherFinal<CryptoPP::ConcretePolicyHolder<CryptoPP::PanamaCipherPolicy<CryptoPP::EnumToType<enum CryptoPP::ByteOrder,0> >,CryptoPP::AdditiveCipherTemplate<CryptoPP::AbstractPolicyHolder<CryptoPP::AdditiveCipherAbstractPolicy,CryptoPP::SymmetricCipher> >,CryptoPP::AdditiveCipherAbstractPolicy>,CryptoPP::PanamaCipherInfo<CryptoPP::EnumToType<enum CryptoPP::ByteOrder,0> > >::`vftable'
PUBLIC	??_C@_0CA@GEOIKNCG@NAME_COLLISION?3?5OLD?3?5?$CFs?5NEW?3?5?$CFs@ ; `string'
PUBLIC	??_7InputRejected@?$InputRejecting@VFilter@CryptoPP@@@CryptoPP@@6B@ ; CryptoPP::InputRejecting<CryptoPP::Filter>::InputRejected::`vftable'
PUBLIC	__TI4?AUInputRejected@?$InputRejecting@VFilter@CryptoPP@@@CryptoPP@@
PUBLIC	__CTA4?AUInputRejected@?$InputRejecting@VFilter@CryptoPP@@@CryptoPP@@
PUBLIC	??_R0?AUInputRejected@?$InputRejecting@VFilter@CryptoPP@@@CryptoPP@@@8 ; CryptoPP::InputRejecting<CryptoPP::Filter>::InputRejected `RTTI Type Descriptor'
PUBLIC	__CT??_R0?AUInputRejected@?$InputRejecting@VFilter@CryptoPP@@@CryptoPP@@@8??0InputRejected@?$InputRejecting@VFilter@CryptoPP@@@CryptoPP@@QAE@ABU012@@Z40
PUBLIC	??_C@_0BE@NDOICOBI@OutputStringPointer@		; `string'
PUBLIC	??_C@_0CO@DDPAKADP@StringSink?3?5OutputStringPointer@ ; `string'
PUBLIC	??_R0?AVConstByteArrayParameter@CryptoPP@@@8	; CryptoPP::ConstByteArrayParameter `RTTI Type Descriptor'
PUBLIC	??_R0H@8					; int `RTTI Type Descriptor'
PUBLIC	??_7InputRejected@?$InputRejecting@VBufferedTransformation@CryptoPP@@@CryptoPP@@6B@ ; CryptoPP::InputRejecting<CryptoPP::BufferedTransformation>::InputRejected::`vftable'
PUBLIC	__TI4?AUInputRejected@?$InputRejecting@VBufferedTransformation@CryptoPP@@@CryptoPP@@
PUBLIC	__CTA4?AUInputRejected@?$InputRejecting@VBufferedTransformation@CryptoPP@@@CryptoPP@@
PUBLIC	??_R0?AUInputRejected@?$InputRejecting@VBufferedTransformation@CryptoPP@@@CryptoPP@@@8 ; CryptoPP::InputRejecting<CryptoPP::BufferedTransformation>::InputRejected `RTTI Type Descriptor'
PUBLIC	__CT??_R0?AUInputRejected@?$InputRejecting@VBufferedTransformation@CryptoPP@@@CryptoPP@@@8??0InputRejected@?$InputRejecting@VBufferedTransformation@CryptoPP@@@CryptoPP@@QAE@ABU012@@Z40
PUBLIC	??_C@_0DI@JMMKBAHA@BufferedTransformation?3?5this?5ob@ ; `string'
PUBLIC	??_C@_09LKKJKGIK@Panama?9BE@			; `string'
PUBLIC	??_C@_09LADHILIA@Panama?9LE@			; `string'
PUBLIC	?_Stinit@?1??_Init@?$basic_filebuf@_WU?$char_traits@_W@std@@@std@@IAEXPAU_iobuf@@W4_Initfl@23@@Z@4U_Mbstatet@@A ; `std::basic_filebuf<wchar_t,std::char_traits<wchar_t> >::_Init'::`2'::_Stinit
PUBLIC	??_C@_0BA@FOIKENOD@vector?5too?5long@		; `string'
PUBLIC	??_C@_0BI@CFPLBAOH@invalid?5string?5position@	; `string'
PUBLIC	?_Storage@?1???$_Immortalize_memcpy_image@V_Iostream_error_category2@std@@@std@@YAABV_Iostream_error_category2@1@XZ@4PAU?$atomic@I@1@A ; `std::_Immortalize_memcpy_image<std::_Iostream_error_category2>'::`2'::_Storage
PUBLIC	?_Psave@?$_Facetptr@V?$codecvt@_WDU_Mbstatet@@@std@@@std@@2PBVfacet@locale@2@B ; std::_Facetptr<std::codecvt<wchar_t,char,_Mbstatet> >::_Psave
PUBLIC	??_R0PAV?$basic_string@DU?$char_traits@D@std@@V?$allocator@D@2@@std@@@8 ; std::basic_string<char,std::char_traits<char>,std::allocator<char> > * `RTTI Type Descriptor'
PUBLIC	??_C@_0O@NKNMEGII@list?5too?5long@		; `string'
PUBLIC	?_Psave@?$_Facetptr@V?$ctype@_W@std@@@std@@2PBVfacet@locale@2@B ; std::_Facetptr<std::ctype<wchar_t> >::_Psave
PUBLIC	??_R4exception@std@@6B@				; std::exception::`RTTI Complete Object Locator'
PUBLIC	??_R3exception@std@@8				; std::exception::`RTTI Class Hierarchy Descriptor'
PUBLIC	??_R2exception@std@@8				; std::exception::`RTTI Base Class Array'
PUBLIC	??_R1A@?0A@EA@exception@std@@8			; std::exception::`RTTI Base Class Descriptor at (0,-1,0,64)'
PUBLIC	??_R4bad_alloc@std@@6B@				; std::bad_alloc::`RTTI Complete Object Locator'
PUBLIC	??_R3bad_alloc@std@@8				; std::bad_alloc::`RTTI Class Hierarchy Descriptor'
PUBLIC	??_R2bad_alloc@std@@8				; std::bad_alloc::`RTTI Base Class Array'
PUBLIC	??_R1A@?0A@EA@bad_alloc@std@@8			; std::bad_alloc::`RTTI Base Class Descriptor at (0,-1,0,64)'
PUBLIC	??_R4bad_array_new_length@std@@6B@		; std::bad_array_new_length::`RTTI Complete Object Locator'
PUBLIC	??_R3bad_array_new_length@std@@8		; std::bad_array_new_length::`RTTI Class Hierarchy Descriptor'
PUBLIC	??_R2bad_array_new_length@std@@8		; std::bad_array_new_length::`RTTI Base Class Array'
PUBLIC	??_R1A@?0A@EA@bad_array_new_length@std@@8	; std::bad_array_new_length::`RTTI Base Class Descriptor at (0,-1,0,64)'
PUBLIC	??_R4ios_base@std@@6B@				; std::ios_base::`RTTI Complete Object Locator'
PUBLIC	??_R0?AVios_base@std@@@8			; std::ios_base `RTTI Type Descriptor'
PUBLIC	??_R3ios_base@std@@8				; std::ios_base::`RTTI Class Hierarchy Descriptor'
PUBLIC	??_R2ios_base@std@@8				; std::ios_base::`RTTI Base Class Array'
PUBLIC	??_R1A@?0A@EA@ios_base@std@@8			; std::ios_base::`RTTI Base Class Descriptor at (0,-1,0,64)'
PUBLIC	??_R17?0A@EA@?$_Iosb@H@std@@8			; std::_Iosb<int>::`RTTI Base Class Descriptor at (8,-1,0,64)'
PUBLIC	??_R0?AV?$_Iosb@H@std@@@8			; std::_Iosb<int> `RTTI Type Descriptor'
PUBLIC	??_R3?$_Iosb@H@std@@8				; std::_Iosb<int>::`RTTI Class Hierarchy Descriptor'
PUBLIC	??_R2?$_Iosb@H@std@@8				; std::_Iosb<int>::`RTTI Base Class Array'
PUBLIC	??_R1A@?0A@EA@?$_Iosb@H@std@@8			; std::_Iosb<int>::`RTTI Base Class Descriptor at (0,-1,0,64)'
PUBLIC	??_R4?$basic_ios@_WU?$char_traits@_W@std@@@std@@6B@ ; std::basic_ios<wchar_t,std::char_traits<wchar_t> >::`RTTI Complete Object Locator'
PUBLIC	??_R0?AV?$basic_ios@_WU?$char_traits@_W@std@@@std@@@8 ; std::basic_ios<wchar_t,std::char_traits<wchar_t> > `RTTI Type Descriptor'
PUBLIC	??_R3?$basic_ios@_WU?$char_traits@_W@std@@@std@@8 ; std::basic_ios<wchar_t,std::char_traits<wchar_t> >::`RTTI Class Hierarchy Descriptor'
PUBLIC	??_R2?$basic_ios@_WU?$char_traits@_W@std@@@std@@8 ; std::basic_ios<wchar_t,std::char_traits<wchar_t> >::`RTTI Base Class Array'
PUBLIC	??_R1A@?0A@EA@?$basic_ios@_WU?$char_traits@_W@std@@@std@@8 ; std::basic_ios<wchar_t,std::char_traits<wchar_t> >::`RTTI Base Class Descriptor at (0,-1,0,64)'
PUBLIC	??_R4?$basic_streambuf@_WU?$char_traits@_W@std@@@std@@6B@ ; std::basic_streambuf<wchar_t,std::char_traits<wchar_t> >::`RTTI Complete Object Locator'
PUBLIC	??_R0?AV?$basic_streambuf@_WU?$char_traits@_W@std@@@std@@@8 ; std::basic_streambuf<wchar_t,std::char_traits<wchar_t> > `RTTI Type Descriptor'
PUBLIC	??_R3?$basic_streambuf@_WU?$char_traits@_W@std@@@std@@8 ; std::basic_streambuf<wchar_t,std::char_traits<wchar_t> >::`RTTI Class Hierarchy Descriptor'
PUBLIC	??_R2?$basic_streambuf@_WU?$char_traits@_W@std@@@std@@8 ; std::basic_streambuf<wchar_t,std::char_traits<wchar_t> >::`RTTI Base Class Array'
PUBLIC	??_R1A@?0A@EA@?$basic_streambuf@_WU?$char_traits@_W@std@@@std@@8 ; std::basic_streambuf<wchar_t,std::char_traits<wchar_t> >::`RTTI Base Class Descriptor at (0,-1,0,64)'
PUBLIC	??_R4?$basic_istream@_WU?$char_traits@_W@std@@@std@@6B@ ; std::basic_istream<wchar_t,std::char_traits<wchar_t> >::`RTTI Complete Object Locator'
PUBLIC	??_R0?AV?$basic_istream@_WU?$char_traits@_W@std@@@std@@@8 ; std::basic_istream<wchar_t,std::char_traits<wchar_t> > `RTTI Type Descriptor'
PUBLIC	??_R3?$basic_istream@_WU?$char_traits@_W@std@@@std@@8 ; std::basic_istream<wchar_t,std::char_traits<wchar_t> >::`RTTI Class Hierarchy Descriptor'
PUBLIC	??_R2?$basic_istream@_WU?$char_traits@_W@std@@@std@@8 ; std::basic_istream<wchar_t,std::char_traits<wchar_t> >::`RTTI Base Class Array'
PUBLIC	??_R1A@?0A@EA@?$basic_istream@_WU?$char_traits@_W@std@@@std@@8 ; std::basic_istream<wchar_t,std::char_traits<wchar_t> >::`RTTI Base Class Descriptor at (0,-1,0,64)'
PUBLIC	??_R1A@A@3FA@?$basic_ios@_WU?$char_traits@_W@std@@@std@@8 ; std::basic_ios<wchar_t,std::char_traits<wchar_t> >::`RTTI Base Class Descriptor at (0,0,4,80)'
PUBLIC	??_R1A@A@3EA@ios_base@std@@8			; std::ios_base::`RTTI Base Class Descriptor at (0,0,4,64)'
PUBLIC	??_R17A@3EA@?$_Iosb@H@std@@8			; std::_Iosb<int>::`RTTI Base Class Descriptor at (8,0,4,64)'
PUBLIC	??_R4?$basic_filebuf@_WU?$char_traits@_W@std@@@std@@6B@ ; std::basic_filebuf<wchar_t,std::char_traits<wchar_t> >::`RTTI Complete Object Locator'
PUBLIC	??_R0?AV?$basic_filebuf@_WU?$char_traits@_W@std@@@std@@@8 ; std::basic_filebuf<wchar_t,std::char_traits<wchar_t> > `RTTI Type Descriptor'
PUBLIC	??_R3?$basic_filebuf@_WU?$char_traits@_W@std@@@std@@8 ; std::basic_filebuf<wchar_t,std::char_traits<wchar_t> >::`RTTI Class Hierarchy Descriptor'
PUBLIC	??_R2?$basic_filebuf@_WU?$char_traits@_W@std@@@std@@8 ; std::basic_filebuf<wchar_t,std::char_traits<wchar_t> >::`RTTI Base Class Array'
PUBLIC	??_R1A@?0A@EA@?$basic_filebuf@_WU?$char_traits@_W@std@@@std@@8 ; std::basic_filebuf<wchar_t,std::char_traits<wchar_t> >::`RTTI Base Class Descriptor at (0,-1,0,64)'
PUBLIC	??_R4?$basic_ifstream@_WU?$char_traits@_W@std@@@std@@6B@ ; std::basic_ifstream<wchar_t,std::char_traits<wchar_t> >::`RTTI Complete Object Locator'
PUBLIC	??_R0?AV?$basic_ifstream@_WU?$char_traits@_W@std@@@std@@@8 ; std::basic_ifstream<wchar_t,std::char_traits<wchar_t> > `RTTI Type Descriptor'
PUBLIC	??_R3?$basic_ifstream@_WU?$char_traits@_W@std@@@std@@8 ; std::basic_ifstream<wchar_t,std::char_traits<wchar_t> >::`RTTI Class Hierarchy Descriptor'
PUBLIC	??_R2?$basic_ifstream@_WU?$char_traits@_W@std@@@std@@8 ; std::basic_ifstream<wchar_t,std::char_traits<wchar_t> >::`RTTI Base Class Array'
PUBLIC	??_R1A@?0A@EA@?$basic_ifstream@_WU?$char_traits@_W@std@@@std@@8 ; std::basic_ifstream<wchar_t,std::char_traits<wchar_t> >::`RTTI Base Class Descriptor at (0,-1,0,64)'
PUBLIC	??_R4bad_cast@std@@6B@				; std::bad_cast::`RTTI Complete Object Locator'
PUBLIC	??_R3bad_cast@std@@8				; std::bad_cast::`RTTI Class Hierarchy Descriptor'
PUBLIC	??_R2bad_cast@std@@8				; std::bad_cast::`RTTI Base Class Array'
PUBLIC	??_R1A@?0A@EA@bad_cast@std@@8			; std::bad_cast::`RTTI Base Class Descriptor at (0,-1,0,64)'
PUBLIC	??_R4runtime_error@std@@6B@			; std::runtime_error::`RTTI Complete Object Locator'
PUBLIC	??_R3runtime_error@std@@8			; std::runtime_error::`RTTI Class Hierarchy Descriptor'
PUBLIC	??_R2runtime_error@std@@8			; std::runtime_error::`RTTI Base Class Array'
PUBLIC	??_R1A@?0A@EA@runtime_error@std@@8		; std::runtime_error::`RTTI Base Class Descriptor at (0,-1,0,64)'
PUBLIC	??_R0?AVerror_category@std@@@8			; std::error_category `RTTI Type Descriptor'
PUBLIC	??_R3error_category@std@@8			; std::error_category::`RTTI Class Hierarchy Descriptor'
PUBLIC	??_R2error_category@std@@8			; std::error_category::`RTTI Base Class Array'
PUBLIC	??_R1A@?0A@EA@error_category@std@@8		; std::error_category::`RTTI Base Class Descriptor at (0,-1,0,64)'
PUBLIC	??_R4_System_error@std@@6B@			; std::_System_error::`RTTI Complete Object Locator'
PUBLIC	??_R3_System_error@std@@8			; std::_System_error::`RTTI Class Hierarchy Descriptor'
PUBLIC	??_R2_System_error@std@@8			; std::_System_error::`RTTI Base Class Array'
PUBLIC	??_R1A@?0A@EA@_System_error@std@@8		; std::_System_error::`RTTI Base Class Descriptor at (0,-1,0,64)'
PUBLIC	??_R4system_error@std@@6B@			; std::system_error::`RTTI Complete Object Locator'
PUBLIC	??_R3system_error@std@@8			; std::system_error::`RTTI Class Hierarchy Descriptor'
PUBLIC	??_R2system_error@std@@8			; std::system_error::`RTTI Base Class Array'
PUBLIC	??_R1A@?0A@EA@system_error@std@@8		; std::system_error::`RTTI Base Class Descriptor at (0,-1,0,64)'
PUBLIC	??_R4_Iostream_error_category2@std@@6B@		; std::_Iostream_error_category2::`RTTI Complete Object Locator'
PUBLIC	??_R0?AV_Iostream_error_category2@std@@@8	; std::_Iostream_error_category2 `RTTI Type Descriptor'
PUBLIC	??_R3_Iostream_error_category2@std@@8		; std::_Iostream_error_category2::`RTTI Class Hierarchy Descriptor'
PUBLIC	??_R2_Iostream_error_category2@std@@8		; std::_Iostream_error_category2::`RTTI Base Class Array'
PUBLIC	??_R1A@?0A@EA@_Iostream_error_category2@std@@8	; std::_Iostream_error_category2::`RTTI Base Class Descriptor at (0,-1,0,64)'
PUBLIC	??_R4CEterPack@@6B@				; CEterPack::`RTTI Complete Object Locator'
PUBLIC	??_R0?AVCEterPack@@@8				; CEterPack `RTTI Type Descriptor'
PUBLIC	??_R3CEterPack@@8				; CEterPack::`RTTI Class Hierarchy Descriptor'
PUBLIC	??_R2CEterPack@@8				; CEterPack::`RTTI Base Class Array'
PUBLIC	??_R1A@?0A@EA@CEterPack@@8			; CEterPack::`RTTI Base Class Descriptor at (0,-1,0,64)'
PUBLIC	??_R0?AVRandomNumberGenerator@CryptoPP@@@8	; CryptoPP::RandomNumberGenerator `RTTI Type Descriptor'
PUBLIC	??_R3RandomNumberGenerator@CryptoPP@@8		; CryptoPP::RandomNumberGenerator::`RTTI Class Hierarchy Descriptor'
PUBLIC	??_R2RandomNumberGenerator@CryptoPP@@8		; CryptoPP::RandomNumberGenerator::`RTTI Base Class Array'
PUBLIC	??_R1A@?0A@EA@RandomNumberGenerator@CryptoPP@@8	; CryptoPP::RandomNumberGenerator::`RTTI Base Class Descriptor at (0,-1,0,64)'
PUBLIC	??_R1A@?0A@EA@Algorithm@CryptoPP@@8		; CryptoPP::Algorithm::`RTTI Base Class Descriptor at (0,-1,0,64)'
PUBLIC	??_R0?AVAlgorithm@CryptoPP@@@8			; CryptoPP::Algorithm `RTTI Type Descriptor'
PUBLIC	??_R3Algorithm@CryptoPP@@8			; CryptoPP::Algorithm::`RTTI Class Hierarchy Descriptor'
PUBLIC	??_R2Algorithm@CryptoPP@@8			; CryptoPP::Algorithm::`RTTI Base Class Array'
PUBLIC	??_R1A@?0A@EA@Clonable@CryptoPP@@8		; CryptoPP::Clonable::`RTTI Base Class Descriptor at (0,-1,0,64)'
PUBLIC	??_R0?AVClonable@CryptoPP@@@8			; CryptoPP::Clonable `RTTI Type Descriptor'
PUBLIC	??_R3Clonable@CryptoPP@@8			; CryptoPP::Clonable::`RTTI Class Hierarchy Descriptor'
PUBLIC	??_R2Clonable@CryptoPP@@8			; CryptoPP::Clonable::`RTTI Base Class Array'
PUBLIC	??_R0?AVBufferedTransformation@CryptoPP@@@8	; CryptoPP::BufferedTransformation `RTTI Type Descriptor'
PUBLIC	??_R3BufferedTransformation@CryptoPP@@8		; CryptoPP::BufferedTransformation::`RTTI Class Hierarchy Descriptor'
PUBLIC	??_R2BufferedTransformation@CryptoPP@@8		; CryptoPP::BufferedTransformation::`RTTI Base Class Array'
PUBLIC	??_R1A@?0A@EA@BufferedTransformation@CryptoPP@@8 ; CryptoPP::BufferedTransformation::`RTTI Base Class Descriptor at (0,-1,0,64)'
PUBLIC	??_R13?0A@EA@Waitable@CryptoPP@@8		; CryptoPP::Waitable::`RTTI Base Class Descriptor at (4,-1,0,64)'
PUBLIC	??_R0?AVWaitable@CryptoPP@@@8			; CryptoPP::Waitable `RTTI Type Descriptor'
PUBLIC	??_R3Waitable@CryptoPP@@8			; CryptoPP::Waitable::`RTTI Class Hierarchy Descriptor'
PUBLIC	??_R2Waitable@CryptoPP@@8			; CryptoPP::Waitable::`RTTI Base Class Array'
PUBLIC	??_R1A@?0A@EA@Waitable@CryptoPP@@8		; CryptoPP::Waitable::`RTTI Base Class Descriptor at (0,-1,0,64)'
PUBLIC	??_R4Exception@CryptoPP@@6B@			; CryptoPP::Exception::`RTTI Complete Object Locator'
PUBLIC	??_R3Exception@CryptoPP@@8			; CryptoPP::Exception::`RTTI Class Hierarchy Descriptor'
PUBLIC	??_R2Exception@CryptoPP@@8			; CryptoPP::Exception::`RTTI Base Class Array'
PUBLIC	??_R1A@?0A@EA@Exception@CryptoPP@@8		; CryptoPP::Exception::`RTTI Base Class Descriptor at (0,-1,0,64)'
PUBLIC	??_R4InvalidArgument@CryptoPP@@6B@		; CryptoPP::InvalidArgument::`RTTI Complete Object Locator'
PUBLIC	??_R3InvalidArgument@CryptoPP@@8		; CryptoPP::InvalidArgument::`RTTI Class Hierarchy Descriptor'
PUBLIC	??_R2InvalidArgument@CryptoPP@@8		; CryptoPP::InvalidArgument::`RTTI Base Class Array'
PUBLIC	??_R1A@?0A@EA@InvalidArgument@CryptoPP@@8	; CryptoPP::InvalidArgument::`RTTI Base Class Descriptor at (0,-1,0,64)'
PUBLIC	??_R4NotImplemented@CryptoPP@@6B@		; CryptoPP::NotImplemented::`RTTI Complete Object Locator'
PUBLIC	??_R3NotImplemented@CryptoPP@@8			; CryptoPP::NotImplemented::`RTTI Class Hierarchy Descriptor'
PUBLIC	??_R2NotImplemented@CryptoPP@@8			; CryptoPP::NotImplemented::`RTTI Base Class Array'
PUBLIC	??_R1A@?0A@EA@NotImplemented@CryptoPP@@8	; CryptoPP::NotImplemented::`RTTI Base Class Descriptor at (0,-1,0,64)'
PUBLIC	??_R4NameValuePairs@CryptoPP@@6B@		; CryptoPP::NameValuePairs::`RTTI Complete Object Locator'
PUBLIC	??_R0?AVNameValuePairs@CryptoPP@@@8		; CryptoPP::NameValuePairs `RTTI Type Descriptor'
PUBLIC	??_R3NameValuePairs@CryptoPP@@8			; CryptoPP::NameValuePairs::`RTTI Class Hierarchy Descriptor'
PUBLIC	??_R2NameValuePairs@CryptoPP@@8			; CryptoPP::NameValuePairs::`RTTI Base Class Array'
PUBLIC	??_R1A@?0A@EA@NameValuePairs@CryptoPP@@8	; CryptoPP::NameValuePairs::`RTTI Base Class Descriptor at (0,-1,0,64)'
PUBLIC	??_R4ValueTypeMismatch@NameValuePairs@CryptoPP@@6B@ ; CryptoPP::NameValuePairs::ValueTypeMismatch::`RTTI Complete Object Locator'
PUBLIC	??_R3ValueTypeMismatch@NameValuePairs@CryptoPP@@8 ; CryptoPP::NameValuePairs::ValueTypeMismatch::`RTTI Class Hierarchy Descriptor'
PUBLIC	??_R2ValueTypeMismatch@NameValuePairs@CryptoPP@@8 ; CryptoPP::NameValuePairs::ValueTypeMismatch::`RTTI Base Class Array'
PUBLIC	??_R1A@?0A@EA@ValueTypeMismatch@NameValuePairs@CryptoPP@@8 ; CryptoPP::NameValuePairs::ValueTypeMismatch::`RTTI Base Class Descriptor at (0,-1,0,64)'
PUBLIC	??_R0?AVSimpleKeyingInterface@CryptoPP@@@8	; CryptoPP::SimpleKeyingInterface `RTTI Type Descriptor'
PUBLIC	??_R3SimpleKeyingInterface@CryptoPP@@8		; CryptoPP::SimpleKeyingInterface::`RTTI Class Hierarchy Descriptor'
PUBLIC	??_R2SimpleKeyingInterface@CryptoPP@@8		; CryptoPP::SimpleKeyingInterface::`RTTI Base Class Array'
PUBLIC	??_R1A@?0A@EA@SimpleKeyingInterface@CryptoPP@@8	; CryptoPP::SimpleKeyingInterface::`RTTI Base Class Descriptor at (0,-1,0,64)'
PUBLIC	??_R0?AVStreamTransformation@CryptoPP@@@8	; CryptoPP::StreamTransformation `RTTI Type Descriptor'
PUBLIC	??_R3StreamTransformation@CryptoPP@@8		; CryptoPP::StreamTransformation::`RTTI Class Hierarchy Descriptor'
PUBLIC	??_R2StreamTransformation@CryptoPP@@8		; CryptoPP::StreamTransformation::`RTTI Base Class Array'
PUBLIC	??_R1A@?0A@EA@StreamTransformation@CryptoPP@@8	; CryptoPP::StreamTransformation::`RTTI Base Class Descriptor at (0,-1,0,64)'
PUBLIC	??_R0?AVHashTransformation@CryptoPP@@@8		; CryptoPP::HashTransformation `RTTI Type Descriptor'
PUBLIC	??_R3HashTransformation@CryptoPP@@8		; CryptoPP::HashTransformation::`RTTI Class Hierarchy Descriptor'
PUBLIC	??_R2HashTransformation@CryptoPP@@8		; CryptoPP::HashTransformation::`RTTI Base Class Array'
PUBLIC	??_R1A@?0A@EA@HashTransformation@CryptoPP@@8	; CryptoPP::HashTransformation::`RTTI Base Class Descriptor at (0,-1,0,64)'
PUBLIC	??_R0?AVSymmetricCipher@CryptoPP@@@8		; CryptoPP::SymmetricCipher `RTTI Type Descriptor'
PUBLIC	??_R3SymmetricCipher@CryptoPP@@8		; CryptoPP::SymmetricCipher::`RTTI Class Hierarchy Descriptor'
PUBLIC	??_R2SymmetricCipher@CryptoPP@@8		; CryptoPP::SymmetricCipher::`RTTI Base Class Array'
PUBLIC	??_R1A@?0A@EA@SymmetricCipher@CryptoPP@@8	; CryptoPP::SymmetricCipher::`RTTI Base Class Descriptor at (0,-1,0,64)'
PUBLIC	??_R13?0A@EA@StreamTransformation@CryptoPP@@8	; CryptoPP::StreamTransformation::`RTTI Base Class Descriptor at (4,-1,0,64)'
PUBLIC	??_R13?0A@EA@Algorithm@CryptoPP@@8		; CryptoPP::Algorithm::`RTTI Base Class Descriptor at (4,-1,0,64)'
PUBLIC	??_R13?0A@EA@Clonable@CryptoPP@@8		; CryptoPP::Clonable::`RTTI Base Class Descriptor at (4,-1,0,64)'
PUBLIC	??_R13?0A@EC@Algorithm@CryptoPP@@8		; CryptoPP::Algorithm::`RTTI Base Class Descriptor at (4,-1,0,66)'
PUBLIC	??_R13?0A@EC@Clonable@CryptoPP@@8		; CryptoPP::Clonable::`RTTI Base Class Descriptor at (4,-1,0,66)'
PUBLIC	??_R17?0A@EC@Algorithm@CryptoPP@@8		; CryptoPP::Algorithm::`RTTI Base Class Descriptor at (8,-1,0,66)'
PUBLIC	??_R17?0A@EC@Clonable@CryptoPP@@8		; CryptoPP::Clonable::`RTTI Base Class Descriptor at (8,-1,0,66)'
PUBLIC	??_R0?AVStore@CryptoPP@@@8			; CryptoPP::Store `RTTI Type Descriptor'
PUBLIC	??_R3Store@CryptoPP@@8				; CryptoPP::Store::`RTTI Class Hierarchy Descriptor'
PUBLIC	??_R2Store@CryptoPP@@8				; CryptoPP::Store::`RTTI Base Class Array'
PUBLIC	??_R1A@?0A@EA@Store@CryptoPP@@8			; CryptoPP::Store::`RTTI Base Class Descriptor at (0,-1,0,64)'
PUBLIC	??_R1A@?0A@EA@?$AutoSignaling@V?$InputRejecting@VBufferedTransformation@CryptoPP@@@CryptoPP@@@CryptoPP@@8 ; CryptoPP::AutoSignaling<CryptoPP::InputRejecting<CryptoPP::BufferedTransformation> >::`RTTI Base Class Descriptor at (0,-1,0,64)'
PUBLIC	??_R0?AV?$AutoSignaling@V?$InputRejecting@VBufferedTransformation@CryptoPP@@@CryptoPP@@@CryptoPP@@@8 ; CryptoPP::AutoSignaling<CryptoPP::InputRejecting<CryptoPP::BufferedTransformation> > `RTTI Type Descriptor'
PUBLIC	??_R3?$AutoSignaling@V?$InputRejecting@VBufferedTransformation@CryptoPP@@@CryptoPP@@@CryptoPP@@8 ; CryptoPP::AutoSignaling<CryptoPP::InputRejecting<CryptoPP::BufferedTransformation> >::`RTTI Class Hierarchy Descriptor'
PUBLIC	??_R2?$AutoSignaling@V?$InputRejecting@VBufferedTransformation@CryptoPP@@@CryptoPP@@@CryptoPP@@8 ; CryptoPP::AutoSignaling<CryptoPP::InputRejecting<CryptoPP::BufferedTransformation> >::`RTTI Base Class Array'
PUBLIC	??_R1A@?0A@EA@?$InputRejecting@VBufferedTransformation@CryptoPP@@@CryptoPP@@8 ; CryptoPP::InputRejecting<CryptoPP::BufferedTransformation>::`RTTI Base Class Descriptor at (0,-1,0,64)'
PUBLIC	??_R0?AV?$InputRejecting@VBufferedTransformation@CryptoPP@@@CryptoPP@@@8 ; CryptoPP::InputRejecting<CryptoPP::BufferedTransformation> `RTTI Type Descriptor'
PUBLIC	??_R3?$InputRejecting@VBufferedTransformation@CryptoPP@@@CryptoPP@@8 ; CryptoPP::InputRejecting<CryptoPP::BufferedTransformation>::`RTTI Class Hierarchy Descriptor'
PUBLIC	??_R2?$InputRejecting@VBufferedTransformation@CryptoPP@@@CryptoPP@@8 ; CryptoPP::InputRejecting<CryptoPP::BufferedTransformation>::`RTTI Base Class Array'
PUBLIC	??_R4InputRejected@?$InputRejecting@VBufferedTransformation@CryptoPP@@@CryptoPP@@6B@ ; CryptoPP::InputRejecting<CryptoPP::BufferedTransformation>::InputRejected::`RTTI Complete Object Locator'
PUBLIC	??_R3InputRejected@?$InputRejecting@VBufferedTransformation@CryptoPP@@@CryptoPP@@8 ; CryptoPP::InputRejecting<CryptoPP::BufferedTransformation>::InputRejected::`RTTI Class Hierarchy Descriptor'
PUBLIC	??_R2InputRejected@?$InputRejecting@VBufferedTransformation@CryptoPP@@@CryptoPP@@8 ; CryptoPP::InputRejecting<CryptoPP::BufferedTransformation>::InputRejected::`RTTI Base Class Array'
PUBLIC	??_R1A@?0A@EA@InputRejected@?$InputRejecting@VBufferedTransformation@CryptoPP@@@CryptoPP@@8 ; CryptoPP::InputRejecting<CryptoPP::BufferedTransformation>::InputRejected::`RTTI Base Class Descriptor at (0,-1,0,64)'
PUBLIC	??_R0?AVSink@CryptoPP@@@8			; CryptoPP::Sink `RTTI Type Descriptor'
PUBLIC	??_R3Sink@CryptoPP@@8				; CryptoPP::Sink::`RTTI Class Hierarchy Descriptor'
PUBLIC	??_R2Sink@CryptoPP@@8				; CryptoPP::Sink::`RTTI Base Class Array'
PUBLIC	??_R1A@?0A@EA@Sink@CryptoPP@@8			; CryptoPP::Sink::`RTTI Base Class Descriptor at (0,-1,0,64)'
PUBLIC	??_R0?AV?$Bufferless@VSink@CryptoPP@@@CryptoPP@@@8 ; CryptoPP::Bufferless<CryptoPP::Sink> `RTTI Type Descriptor'
PUBLIC	??_R3?$Bufferless@VSink@CryptoPP@@@CryptoPP@@8	; CryptoPP::Bufferless<CryptoPP::Sink>::`RTTI Class Hierarchy Descriptor'
PUBLIC	??_R2?$Bufferless@VSink@CryptoPP@@@CryptoPP@@8	; CryptoPP::Bufferless<CryptoPP::Sink>::`RTTI Base Class Array'
PUBLIC	??_R1A@?0A@EA@?$Bufferless@VSink@CryptoPP@@@CryptoPP@@8 ; CryptoPP::Bufferless<CryptoPP::Sink>::`RTTI Base Class Descriptor at (0,-1,0,64)'
PUBLIC	??_R4AlgorithmParametersBase@CryptoPP@@6B@	; CryptoPP::AlgorithmParametersBase::`RTTI Complete Object Locator'
PUBLIC	??_R0?AVAlgorithmParametersBase@CryptoPP@@@8	; CryptoPP::AlgorithmParametersBase `RTTI Type Descriptor'
PUBLIC	??_R3AlgorithmParametersBase@CryptoPP@@8	; CryptoPP::AlgorithmParametersBase::`RTTI Class Hierarchy Descriptor'
PUBLIC	??_R2AlgorithmParametersBase@CryptoPP@@8	; CryptoPP::AlgorithmParametersBase::`RTTI Base Class Array'
PUBLIC	??_R1A@?0A@EA@AlgorithmParametersBase@CryptoPP@@8 ; CryptoPP::AlgorithmParametersBase::`RTTI Base Class Descriptor at (0,-1,0,64)'
PUBLIC	??_R4ParameterNotUsed@AlgorithmParametersBase@CryptoPP@@6B@ ; CryptoPP::AlgorithmParametersBase::ParameterNotUsed::`RTTI Complete Object Locator'
PUBLIC	??_R3ParameterNotUsed@AlgorithmParametersBase@CryptoPP@@8 ; CryptoPP::AlgorithmParametersBase::ParameterNotUsed::`RTTI Class Hierarchy Descriptor'
PUBLIC	??_R2ParameterNotUsed@AlgorithmParametersBase@CryptoPP@@8 ; CryptoPP::AlgorithmParametersBase::ParameterNotUsed::`RTTI Base Class Array'
PUBLIC	??_R1A@?0A@EA@ParameterNotUsed@AlgorithmParametersBase@CryptoPP@@8 ; CryptoPP::AlgorithmParametersBase::ParameterNotUsed::`RTTI Base Class Descriptor at (0,-1,0,64)'
PUBLIC	??_R4?$AlgorithmParametersTemplate@VConstByteArrayParameter@CryptoPP@@@CryptoPP@@6B@ ; CryptoPP::AlgorithmParametersTemplate<CryptoPP::ConstByteArrayParameter>::`RTTI Complete Object Locator'
PUBLIC	??_R0?AV?$AlgorithmParametersTemplate@VConstByteArrayParameter@CryptoPP@@@CryptoPP@@@8 ; CryptoPP::AlgorithmParametersTemplate<CryptoPP::ConstByteArrayParameter> `RTTI Type Descriptor'
PUBLIC	??_R3?$AlgorithmParametersTemplate@VConstByteArrayParameter@CryptoPP@@@CryptoPP@@8 ; CryptoPP::AlgorithmParametersTemplate<CryptoPP::ConstByteArrayParameter>::`RTTI Class Hierarchy Descriptor'
PUBLIC	??_R2?$AlgorithmParametersTemplate@VConstByteArrayParameter@CryptoPP@@@CryptoPP@@8 ; CryptoPP::AlgorithmParametersTemplate<CryptoPP::ConstByteArrayParameter>::`RTTI Base Class Array'
PUBLIC	??_R1A@?0A@EA@?$AlgorithmParametersTemplate@VConstByteArrayParameter@CryptoPP@@@CryptoPP@@8 ; CryptoPP::AlgorithmParametersTemplate<CryptoPP::ConstByteArrayParameter>::`RTTI Base Class Descriptor at (0,-1,0,64)'
PUBLIC	??_R0?AVFilter@CryptoPP@@@8			; CryptoPP::Filter `RTTI Type Descriptor'
PUBLIC	??_R3Filter@CryptoPP@@8				; CryptoPP::Filter::`RTTI Class Hierarchy Descriptor'
PUBLIC	??_R2Filter@CryptoPP@@8				; CryptoPP::Filter::`RTTI Base Class Array'
PUBLIC	??_R1A@?0A@EA@Filter@CryptoPP@@8		; CryptoPP::Filter::`RTTI Base Class Descriptor at (0,-1,0,64)'
PUBLIC	??_R1M@?0A@EA@NotCopyable@CryptoPP@@8		; CryptoPP::NotCopyable::`RTTI Base Class Descriptor at (12,-1,0,64)'
PUBLIC	??_R0?AVNotCopyable@CryptoPP@@@8		; CryptoPP::NotCopyable `RTTI Type Descriptor'
PUBLIC	??_R3NotCopyable@CryptoPP@@8			; CryptoPP::NotCopyable::`RTTI Class Hierarchy Descriptor'
PUBLIC	??_R2NotCopyable@CryptoPP@@8			; CryptoPP::NotCopyable::`RTTI Base Class Array'
PUBLIC	??_R1A@?0A@EA@NotCopyable@CryptoPP@@8		; CryptoPP::NotCopyable::`RTTI Base Class Descriptor at (0,-1,0,64)'
PUBLIC	??_R4?$StringSinkTemplate@V?$basic_string@DU?$char_traits@D@std@@V?$allocator@D@2@@std@@@CryptoPP@@6BAlgorithm@1@@ ; CryptoPP::StringSinkTemplate<std::basic_string<char,std::char_traits<char>,std::allocator<char> > >::`RTTI Complete Object Locator'
PUBLIC	??_R0?AV?$StringSinkTemplate@V?$basic_string@DU?$char_traits@D@std@@V?$allocator@D@2@@std@@@CryptoPP@@@8 ; CryptoPP::StringSinkTemplate<std::basic_string<char,std::char_traits<char>,std::allocator<char> > > `RTTI Type Descriptor'
PUBLIC	??_R3?$StringSinkTemplate@V?$basic_string@DU?$char_traits@D@std@@V?$allocator@D@2@@std@@@CryptoPP@@8 ; CryptoPP::StringSinkTemplate<std::basic_string<char,std::char_traits<char>,std::allocator<char> > >::`RTTI Class Hierarchy Descriptor'
PUBLIC	??_R2?$StringSinkTemplate@V?$basic_string@DU?$char_traits@D@std@@V?$allocator@D@2@@std@@@CryptoPP@@8 ; CryptoPP::StringSinkTemplate<std::basic_string<char,std::char_traits<char>,std::allocator<char> > >::`RTTI Base Class Array'
PUBLIC	??_R1A@?0A@EA@?$StringSinkTemplate@V?$basic_string@DU?$char_traits@D@std@@V?$allocator@D@2@@std@@@CryptoPP@@8 ; CryptoPP::StringSinkTemplate<std::basic_string<char,std::char_traits<char>,std::allocator<char> > >::`RTTI Base Class Descriptor at (0,-1,0,64)'
PUBLIC	??_R4?$StringSinkTemplate@V?$basic_string@DU?$char_traits@D@std@@V?$allocator@D@2@@std@@@CryptoPP@@6BWaitable@1@@ ; CryptoPP::StringSinkTemplate<std::basic_string<char,std::char_traits<char>,std::allocator<char> > >::`RTTI Complete Object Locator'
PUBLIC	??_R4ArraySink@CryptoPP@@6BAlgorithm@1@@	; CryptoPP::ArraySink::`RTTI Complete Object Locator'
PUBLIC	??_R0?AVArraySink@CryptoPP@@@8			; CryptoPP::ArraySink `RTTI Type Descriptor'
PUBLIC	??_R3ArraySink@CryptoPP@@8			; CryptoPP::ArraySink::`RTTI Class Hierarchy Descriptor'
PUBLIC	??_R2ArraySink@CryptoPP@@8			; CryptoPP::ArraySink::`RTTI Base Class Array'
PUBLIC	??_R1A@?0A@EA@ArraySink@CryptoPP@@8		; CryptoPP::ArraySink::`RTTI Base Class Descriptor at (0,-1,0,64)'
PUBLIC	??_R4ArraySink@CryptoPP@@6BWaitable@1@@		; CryptoPP::ArraySink::`RTTI Complete Object Locator'
PUBLIC	??_R4StringStore@CryptoPP@@6BAlgorithm@1@@	; CryptoPP::StringStore::`RTTI Complete Object Locator'
PUBLIC	??_R0?AVStringStore@CryptoPP@@@8		; CryptoPP::StringStore `RTTI Type Descriptor'
PUBLIC	??_R3StringStore@CryptoPP@@8			; CryptoPP::StringStore::`RTTI Class Hierarchy Descriptor'
PUBLIC	??_R2StringStore@CryptoPP@@8			; CryptoPP::StringStore::`RTTI Base Class Array'
PUBLIC	??_R1A@?0A@EA@StringStore@CryptoPP@@8		; CryptoPP::StringStore::`RTTI Base Class Descriptor at (0,-1,0,64)'
PUBLIC	??_R4StringStore@CryptoPP@@6BWaitable@1@@	; CryptoPP::StringStore::`RTTI Complete Object Locator'
PUBLIC	??_R0?AVSource@CryptoPP@@@8			; CryptoPP::Source `RTTI Type Descriptor'
PUBLIC	??_R3Source@CryptoPP@@8				; CryptoPP::Source::`RTTI Class Hierarchy Descriptor'
PUBLIC	??_R2Source@CryptoPP@@8				; CryptoPP::Source::`RTTI Base Class Array'
PUBLIC	??_R1A@?0A@EA@Source@CryptoPP@@8		; CryptoPP::Source::`RTTI Base Class Descriptor at (0,-1,0,64)'
PUBLIC	??_R1A@?0A@EA@?$InputRejecting@VFilter@CryptoPP@@@CryptoPP@@8 ; CryptoPP::InputRejecting<CryptoPP::Filter>::`RTTI Base Class Descriptor at (0,-1,0,64)'
PUBLIC	??_R0?AV?$InputRejecting@VFilter@CryptoPP@@@CryptoPP@@@8 ; CryptoPP::InputRejecting<CryptoPP::Filter> `RTTI Type Descriptor'
PUBLIC	??_R3?$InputRejecting@VFilter@CryptoPP@@@CryptoPP@@8 ; CryptoPP::InputRejecting<CryptoPP::Filter>::`RTTI Class Hierarchy Descriptor'
PUBLIC	??_R2?$InputRejecting@VFilter@CryptoPP@@@CryptoPP@@8 ; CryptoPP::InputRejecting<CryptoPP::Filter>::`RTTI Base Class Array'
PUBLIC	??_R4InputRejected@?$InputRejecting@VFilter@CryptoPP@@@CryptoPP@@6B@ ; CryptoPP::InputRejecting<CryptoPP::Filter>::InputRejected::`RTTI Complete Object Locator'
PUBLIC	??_R3InputRejected@?$InputRejecting@VFilter@CryptoPP@@@CryptoPP@@8 ; CryptoPP::InputRejecting<CryptoPP::Filter>::InputRejected::`RTTI Class Hierarchy Descriptor'
PUBLIC	??_R2InputRejected@?$InputRejecting@VFilter@CryptoPP@@@CryptoPP@@8 ; CryptoPP::InputRejecting<CryptoPP::Filter>::InputRejected::`RTTI Base Class Array'
PUBLIC	??_R1A@?0A@EA@InputRejected@?$InputRejecting@VFilter@CryptoPP@@@CryptoPP@@8 ; CryptoPP::InputRejecting<CryptoPP::Filter>::InputRejected::`RTTI Base Class Descriptor at (0,-1,0,64)'
PUBLIC	??_R4StringSource@CryptoPP@@6BAlgorithm@1@@	; CryptoPP::StringSource::`RTTI Complete Object Locator'
PUBLIC	??_R0?AVStringSource@CryptoPP@@@8		; CryptoPP::StringSource `RTTI Type Descriptor'
PUBLIC	??_R3StringSource@CryptoPP@@8			; CryptoPP::StringSource::`RTTI Class Hierarchy Descriptor'
PUBLIC	??_R2StringSource@CryptoPP@@8			; CryptoPP::StringSource::`RTTI Base Class Array'
PUBLIC	??_R1A@?0A@EA@StringSource@CryptoPP@@8		; CryptoPP::StringSource::`RTTI Base Class Descriptor at (0,-1,0,64)'
PUBLIC	??_R1A@?0A@EA@?$SourceTemplate@VStringStore@CryptoPP@@@CryptoPP@@8 ; CryptoPP::SourceTemplate<CryptoPP::StringStore>::`RTTI Base Class Descriptor at (0,-1,0,64)'
PUBLIC	??_R0?AV?$SourceTemplate@VStringStore@CryptoPP@@@CryptoPP@@@8 ; CryptoPP::SourceTemplate<CryptoPP::StringStore> `RTTI Type Descriptor'
PUBLIC	??_R3?$SourceTemplate@VStringStore@CryptoPP@@@CryptoPP@@8 ; CryptoPP::SourceTemplate<CryptoPP::StringStore>::`RTTI Class Hierarchy Descriptor'
PUBLIC	??_R2?$SourceTemplate@VStringStore@CryptoPP@@@CryptoPP@@8 ; CryptoPP::SourceTemplate<CryptoPP::StringStore>::`RTTI Base Class Array'
PUBLIC	??_R4StringSource@CryptoPP@@6BWaitable@1@@	; CryptoPP::StringSource::`RTTI Complete Object Locator'
PUBLIC	??_R4?$SourceTemplate@VStringStore@CryptoPP@@@CryptoPP@@6BAlgorithm@1@@ ; CryptoPP::SourceTemplate<CryptoPP::StringStore>::`RTTI Complete Object Locator'
PUBLIC	??_R4?$SourceTemplate@VStringStore@CryptoPP@@@CryptoPP@@6BWaitable@1@@ ; CryptoPP::SourceTemplate<CryptoPP::StringStore>::`RTTI Complete Object Locator'
PUBLIC	??_R0?AUAdditiveCipherAbstractPolicy@CryptoPP@@@8 ; CryptoPP::AdditiveCipherAbstractPolicy `RTTI Type Descriptor'
PUBLIC	??_R3AdditiveCipherAbstractPolicy@CryptoPP@@8	; CryptoPP::AdditiveCipherAbstractPolicy::`RTTI Class Hierarchy Descriptor'
PUBLIC	??_R2AdditiveCipherAbstractPolicy@CryptoPP@@8	; CryptoPP::AdditiveCipherAbstractPolicy::`RTTI Base Class Array'
PUBLIC	??_R1A@?0A@EA@AdditiveCipherAbstractPolicy@CryptoPP@@8 ; CryptoPP::AdditiveCipherAbstractPolicy::`RTTI Base Class Descriptor at (0,-1,0,64)'
PUBLIC	??_R0?AV?$AbstractPolicyHolder@UAdditiveCipherAbstractPolicy@CryptoPP@@VSymmetricCipher@2@@CryptoPP@@@8 ; CryptoPP::AbstractPolicyHolder<CryptoPP::AdditiveCipherAbstractPolicy,CryptoPP::SymmetricCipher> `RTTI Type Descriptor'
PUBLIC	??_R3?$AbstractPolicyHolder@UAdditiveCipherAbstractPolicy@CryptoPP@@VSymmetricCipher@2@@CryptoPP@@8 ; CryptoPP::AbstractPolicyHolder<CryptoPP::AdditiveCipherAbstractPolicy,CryptoPP::SymmetricCipher>::`RTTI Class Hierarchy Descriptor'
PUBLIC	??_R2?$AbstractPolicyHolder@UAdditiveCipherAbstractPolicy@CryptoPP@@VSymmetricCipher@2@@CryptoPP@@8 ; CryptoPP::AbstractPolicyHolder<CryptoPP::AdditiveCipherAbstractPolicy,CryptoPP::SymmetricCipher>::`RTTI Base Class Array'
PUBLIC	??_R1A@?0A@EA@?$AbstractPolicyHolder@UAdditiveCipherAbstractPolicy@CryptoPP@@VSymmetricCipher@2@@CryptoPP@@8 ; CryptoPP::AbstractPolicyHolder<CryptoPP::AdditiveCipherAbstractPolicy,CryptoPP::SymmetricCipher>::`RTTI Base Class Descriptor at (0,-1,0,64)'
PUBLIC	??_R0?AV?$AdditiveCipherTemplate@V?$AbstractPolicyHolder@UAdditiveCipherAbstractPolicy@CryptoPP@@VSymmetricCipher@2@@CryptoPP@@@CryptoPP@@@8 ; CryptoPP::AdditiveCipherTemplate<CryptoPP::AbstractPolicyHolder<CryptoPP::AdditiveCipherAbstractPolicy,CryptoPP::SymmetricCipher> > `RTTI Type Descriptor'
PUBLIC	??_R3?$AdditiveCipherTemplate@V?$AbstractPolicyHolder@UAdditiveCipherAbstractPolicy@CryptoPP@@VSymmetricCipher@2@@CryptoPP@@@CryptoPP@@8 ; CryptoPP::AdditiveCipherTemplate<CryptoPP::AbstractPolicyHolder<CryptoPP::AdditiveCipherAbstractPolicy,CryptoPP::SymmetricCipher> >::`RTTI Class Hierarchy Descriptor'
PUBLIC	??_R2?$AdditiveCipherTemplate@V?$AbstractPolicyHolder@UAdditiveCipherAbstractPolicy@CryptoPP@@VSymmetricCipher@2@@CryptoPP@@@CryptoPP@@8 ; CryptoPP::AdditiveCipherTemplate<CryptoPP::AbstractPolicyHolder<CryptoPP::AdditiveCipherAbstractPolicy,CryptoPP::SymmetricCipher> >::`RTTI Base Class Array'
PUBLIC	??_R1A@?0A@EA@?$AdditiveCipherTemplate@V?$AbstractPolicyHolder@UAdditiveCipherAbstractPolicy@CryptoPP@@VSymmetricCipher@2@@CryptoPP@@@CryptoPP@@8 ; CryptoPP::AdditiveCipherTemplate<CryptoPP::AbstractPolicyHolder<CryptoPP::AdditiveCipherAbstractPolicy,CryptoPP::SymmetricCipher> >::`RTTI Base Class Descriptor at (0,-1,0,64)'
PUBLIC	??_R17?0A@EA@RandomNumberGenerator@CryptoPP@@8	; CryptoPP::RandomNumberGenerator::`RTTI Base Class Descriptor at (8,-1,0,64)'
PUBLIC	??_R0?AV?$IteratedHashBase@_KVHashTransformation@CryptoPP@@@CryptoPP@@@8 ; CryptoPP::IteratedHashBase<unsigned __int64,CryptoPP::HashTransformation> `RTTI Type Descriptor'
PUBLIC	??_R3?$IteratedHashBase@_KVHashTransformation@CryptoPP@@@CryptoPP@@8 ; CryptoPP::IteratedHashBase<unsigned __int64,CryptoPP::HashTransformation>::`RTTI Class Hierarchy Descriptor'
PUBLIC	??_R2?$IteratedHashBase@_KVHashTransformation@CryptoPP@@@CryptoPP@@8 ; CryptoPP::IteratedHashBase<unsigned __int64,CryptoPP::HashTransformation>::`RTTI Base Class Array'
PUBLIC	??_R1A@?0A@EA@?$IteratedHashBase@_KVHashTransformation@CryptoPP@@@CryptoPP@@8 ; CryptoPP::IteratedHashBase<unsigned __int64,CryptoPP::HashTransformation>::`RTTI Base Class Descriptor at (0,-1,0,64)'
PUBLIC	??_R0?AV?$IteratedHashBase@IVHashTransformation@CryptoPP@@@CryptoPP@@@8 ; CryptoPP::IteratedHashBase<unsigned int,CryptoPP::HashTransformation> `RTTI Type Descriptor'
PUBLIC	??_R3?$IteratedHashBase@IVHashTransformation@CryptoPP@@@CryptoPP@@8 ; CryptoPP::IteratedHashBase<unsigned int,CryptoPP::HashTransformation>::`RTTI Class Hierarchy Descriptor'
PUBLIC	??_R2?$IteratedHashBase@IVHashTransformation@CryptoPP@@@CryptoPP@@8 ; CryptoPP::IteratedHashBase<unsigned int,CryptoPP::HashTransformation>::`RTTI Base Class Array'
PUBLIC	??_R1A@?0A@EA@?$IteratedHashBase@IVHashTransformation@CryptoPP@@@CryptoPP@@8 ; CryptoPP::IteratedHashBase<unsigned int,CryptoPP::HashTransformation>::`RTTI Base Class Descriptor at (0,-1,0,64)'
PUBLIC	??_R4Tiger@CryptoPP@@6B@			; CryptoPP::Tiger::`RTTI Complete Object Locator'
PUBLIC	??_R0?AVTiger@CryptoPP@@@8			; CryptoPP::Tiger `RTTI Type Descriptor'
PUBLIC	??_R3Tiger@CryptoPP@@8				; CryptoPP::Tiger::`RTTI Class Hierarchy Descriptor'
PUBLIC	??_R2Tiger@CryptoPP@@8				; CryptoPP::Tiger::`RTTI Base Class Array'
PUBLIC	??_R1A@?0A@EA@Tiger@CryptoPP@@8			; CryptoPP::Tiger::`RTTI Base Class Descriptor at (0,-1,0,64)'
PUBLIC	??_R1A@?0A@EA@?$IteratedHashWithStaticTransform@_KU?$EnumToType@W4ByteOrder@CryptoPP@@$0A@@CryptoPP@@$0EA@$0BI@VTiger@2@$0A@$0A@@CryptoPP@@8 ; CryptoPP::IteratedHashWithStaticTransform<unsigned __int64,CryptoPP::EnumToType<enum CryptoPP::ByteOrder,0>,64,24,CryptoPP::Tiger,0,0>::`RTTI Base Class Descriptor at (0,-1,0,64)'
PUBLIC	??_R0?AV?$IteratedHashWithStaticTransform@_KU?$EnumToType@W4ByteOrder@CryptoPP@@$0A@@CryptoPP@@$0EA@$0BI@VTiger@2@$0A@$0A@@CryptoPP@@@8 ; CryptoPP::IteratedHashWithStaticTransform<unsigned __int64,CryptoPP::EnumToType<enum CryptoPP::ByteOrder,0>,64,24,CryptoPP::Tiger,0,0> `RTTI Type Descriptor'
PUBLIC	??_R3?$IteratedHashWithStaticTransform@_KU?$EnumToType@W4ByteOrder@CryptoPP@@$0A@@CryptoPP@@$0EA@$0BI@VTiger@2@$0A@$0A@@CryptoPP@@8 ; CryptoPP::IteratedHashWithStaticTransform<unsigned __int64,CryptoPP::EnumToType<enum CryptoPP::ByteOrder,0>,64,24,CryptoPP::Tiger,0,0>::`RTTI Class Hierarchy Descriptor'
PUBLIC	??_R2?$IteratedHashWithStaticTransform@_KU?$EnumToType@W4ByteOrder@CryptoPP@@$0A@@CryptoPP@@$0EA@$0BI@VTiger@2@$0A@$0A@@CryptoPP@@8 ; CryptoPP::IteratedHashWithStaticTransform<unsigned __int64,CryptoPP::EnumToType<enum CryptoPP::ByteOrder,0>,64,24,CryptoPP::Tiger,0,0>::`RTTI Base Class Array'
PUBLIC	??_R1A@?0A@EA@?$ClonableImpl@VTiger@CryptoPP@@V?$AlgorithmImpl@V?$IteratedHash@_KU?$EnumToType@W4ByteOrder@CryptoPP@@$0A@@CryptoPP@@$0EA@VHashTransformation@2@@CryptoPP@@VTiger@2@@2@@CryptoPP@@8 ; CryptoPP::ClonableImpl<CryptoPP::Tiger,CryptoPP::AlgorithmImpl<CryptoPP::IteratedHash<unsigned __int64,CryptoPP::EnumToType<enum CryptoPP::ByteOrder,0>,64,CryptoPP::HashTransformation>,CryptoPP::Tiger> >::`RTTI Base Class Descriptor at (0,-1,0,64)'
PUBLIC	??_R0?AV?$ClonableImpl@VTiger@CryptoPP@@V?$AlgorithmImpl@V?$IteratedHash@_KU?$EnumToType@W4ByteOrder@CryptoPP@@$0A@@CryptoPP@@$0EA@VHashTransformation@2@@CryptoPP@@VTiger@2@@2@@CryptoPP@@@8 ; CryptoPP::ClonableImpl<CryptoPP::Tiger,CryptoPP::AlgorithmImpl<CryptoPP::IteratedHash<unsigned __int64,CryptoPP::EnumToType<enum CryptoPP::ByteOrder,0>,64,CryptoPP::HashTransformation>,CryptoPP::Tiger> > `RTTI Type Descriptor'
PUBLIC	??_R3?$ClonableImpl@VTiger@CryptoPP@@V?$AlgorithmImpl@V?$IteratedHash@_KU?$EnumToType@W4ByteOrder@CryptoPP@@$0A@@CryptoPP@@$0EA@VHashTransformation@2@@CryptoPP@@VTiger@2@@2@@CryptoPP@@8 ; CryptoPP::ClonableImpl<CryptoPP::Tiger,CryptoPP::AlgorithmImpl<CryptoPP::IteratedHash<unsigned __int64,CryptoPP::EnumToType<enum CryptoPP::ByteOrder,0>,64,CryptoPP::HashTransformation>,CryptoPP::Tiger> >::`RTTI Class Hierarchy Descriptor'
PUBLIC	??_R2?$ClonableImpl@VTiger@CryptoPP@@V?$AlgorithmImpl@V?$IteratedHash@_KU?$EnumToType@W4ByteOrder@CryptoPP@@$0A@@CryptoPP@@$0EA@VHashTransformation@2@@CryptoPP@@VTiger@2@@2@@CryptoPP@@8 ; CryptoPP::ClonableImpl<CryptoPP::Tiger,CryptoPP::AlgorithmImpl<CryptoPP::IteratedHash<unsigned __int64,CryptoPP::EnumToType<enum CryptoPP::ByteOrder,0>,64,CryptoPP::HashTransformation>,CryptoPP::Tiger> >::`RTTI Base Class Array'
PUBLIC	??_R1A@?0A@EA@?$AlgorithmImpl@V?$IteratedHash@_KU?$EnumToType@W4ByteOrder@CryptoPP@@$0A@@CryptoPP@@$0EA@VHashTransformation@2@@CryptoPP@@VTiger@2@@CryptoPP@@8 ; CryptoPP::AlgorithmImpl<CryptoPP::IteratedHash<unsigned __int64,CryptoPP::EnumToType<enum CryptoPP::ByteOrder,0>,64,CryptoPP::HashTransformation>,CryptoPP::Tiger>::`RTTI Base Class Descriptor at (0,-1,0,64)'
PUBLIC	??_R0?AV?$AlgorithmImpl@V?$IteratedHash@_KU?$EnumToType@W4ByteOrder@CryptoPP@@$0A@@CryptoPP@@$0EA@VHashTransformation@2@@CryptoPP@@VTiger@2@@CryptoPP@@@8 ; CryptoPP::AlgorithmImpl<CryptoPP::IteratedHash<unsigned __int64,CryptoPP::EnumToType<enum CryptoPP::ByteOrder,0>,64,CryptoPP::HashTransformation>,CryptoPP::Tiger> `RTTI Type Descriptor'
PUBLIC	??_R3?$AlgorithmImpl@V?$IteratedHash@_KU?$EnumToType@W4ByteOrder@CryptoPP@@$0A@@CryptoPP@@$0EA@VHashTransformation@2@@CryptoPP@@VTiger@2@@CryptoPP@@8 ; CryptoPP::AlgorithmImpl<CryptoPP::IteratedHash<unsigned __int64,CryptoPP::EnumToType<enum CryptoPP::ByteOrder,0>,64,CryptoPP::HashTransformation>,CryptoPP::Tiger>::`RTTI Class Hierarchy Descriptor'
PUBLIC	??_R2?$AlgorithmImpl@V?$IteratedHash@_KU?$EnumToType@W4ByteOrder@CryptoPP@@$0A@@CryptoPP@@$0EA@VHashTransformation@2@@CryptoPP@@VTiger@2@@CryptoPP@@8 ; CryptoPP::AlgorithmImpl<CryptoPP::IteratedHash<unsigned __int64,CryptoPP::EnumToType<enum CryptoPP::ByteOrder,0>,64,CryptoPP::HashTransformation>,CryptoPP::Tiger>::`RTTI Base Class Array'
PUBLIC	??_R1A@?0A@EA@?$IteratedHash@_KU?$EnumToType@W4ByteOrder@CryptoPP@@$0A@@CryptoPP@@$0EA@VHashTransformation@2@@CryptoPP@@8 ; CryptoPP::IteratedHash<unsigned __int64,CryptoPP::EnumToType<enum CryptoPP::ByteOrder,0>,64,CryptoPP::HashTransformation>::`RTTI Base Class Descriptor at (0,-1,0,64)'
PUBLIC	??_R0?AV?$IteratedHash@_KU?$EnumToType@W4ByteOrder@CryptoPP@@$0A@@CryptoPP@@$0EA@VHashTransformation@2@@CryptoPP@@@8 ; CryptoPP::IteratedHash<unsigned __int64,CryptoPP::EnumToType<enum CryptoPP::ByteOrder,0>,64,CryptoPP::HashTransformation> `RTTI Type Descriptor'
PUBLIC	??_R3?$IteratedHash@_KU?$EnumToType@W4ByteOrder@CryptoPP@@$0A@@CryptoPP@@$0EA@VHashTransformation@2@@CryptoPP@@8 ; CryptoPP::IteratedHash<unsigned __int64,CryptoPP::EnumToType<enum CryptoPP::ByteOrder,0>,64,CryptoPP::HashTransformation>::`RTTI Class Hierarchy Descriptor'
PUBLIC	??_R2?$IteratedHash@_KU?$EnumToType@W4ByteOrder@CryptoPP@@$0A@@CryptoPP@@$0EA@VHashTransformation@2@@CryptoPP@@8 ; CryptoPP::IteratedHash<unsigned __int64,CryptoPP::EnumToType<enum CryptoPP::ByteOrder,0>,64,CryptoPP::HashTransformation>::`RTTI Base Class Array'
PUBLIC	??_R4SHA1@CryptoPP@@6B@				; CryptoPP::SHA1::`RTTI Complete Object Locator'
PUBLIC	??_R0?AVSHA1@CryptoPP@@@8			; CryptoPP::SHA1 `RTTI Type Descriptor'
PUBLIC	??_R3SHA1@CryptoPP@@8				; CryptoPP::SHA1::`RTTI Class Hierarchy Descriptor'
PUBLIC	??_R2SHA1@CryptoPP@@8				; CryptoPP::SHA1::`RTTI Base Class Array'
PUBLIC	??_R1A@?0A@EA@SHA1@CryptoPP@@8			; CryptoPP::SHA1::`RTTI Base Class Descriptor at (0,-1,0,64)'
PUBLIC	??_R1A@?0A@EA@?$IteratedHashWithStaticTransform@IU?$EnumToType@W4ByteOrder@CryptoPP@@$00@CryptoPP@@$0EA@$0BE@VSHA1@2@$0A@$0A@@CryptoPP@@8 ; CryptoPP::IteratedHashWithStaticTransform<unsigned int,CryptoPP::EnumToType<enum CryptoPP::ByteOrder,1>,64,20,CryptoPP::SHA1,0,0>::`RTTI Base Class Descriptor at (0,-1,0,64)'
PUBLIC	??_R0?AV?$IteratedHashWithStaticTransform@IU?$EnumToType@W4ByteOrder@CryptoPP@@$00@CryptoPP@@$0EA@$0BE@VSHA1@2@$0A@$0A@@CryptoPP@@@8 ; CryptoPP::IteratedHashWithStaticTransform<unsigned int,CryptoPP::EnumToType<enum CryptoPP::ByteOrder,1>,64,20,CryptoPP::SHA1,0,0> `RTTI Type Descriptor'
PUBLIC	??_R3?$IteratedHashWithStaticTransform@IU?$EnumToType@W4ByteOrder@CryptoPP@@$00@CryptoPP@@$0EA@$0BE@VSHA1@2@$0A@$0A@@CryptoPP@@8 ; CryptoPP::IteratedHashWithStaticTransform<unsigned int,CryptoPP::EnumToType<enum CryptoPP::ByteOrder,1>,64,20,CryptoPP::SHA1,0,0>::`RTTI Class Hierarchy Descriptor'
PUBLIC	??_R2?$IteratedHashWithStaticTransform@IU?$EnumToType@W4ByteOrder@CryptoPP@@$00@CryptoPP@@$0EA@$0BE@VSHA1@2@$0A@$0A@@CryptoPP@@8 ; CryptoPP::IteratedHashWithStaticTransform<unsigned int,CryptoPP::EnumToType<enum CryptoPP::ByteOrder,1>,64,20,CryptoPP::SHA1,0,0>::`RTTI Base Class Array'
PUBLIC	??_R1A@?0A@EA@?$ClonableImpl@VSHA1@CryptoPP@@V?$AlgorithmImpl@V?$IteratedHash@IU?$EnumToType@W4ByteOrder@CryptoPP@@$00@CryptoPP@@$0EA@VHashTransformation@2@@CryptoPP@@VSHA1@2@@2@@CryptoPP@@8 ; CryptoPP::ClonableImpl<CryptoPP::SHA1,CryptoPP::AlgorithmImpl<CryptoPP::IteratedHash<unsigned int,CryptoPP::EnumToType<enum CryptoPP::ByteOrder,1>,64,CryptoPP::HashTransformation>,CryptoPP::SHA1> >::`RTTI Base Class Descriptor at (0,-1,0,64)'
PUBLIC	??_R0?AV?$ClonableImpl@VSHA1@CryptoPP@@V?$AlgorithmImpl@V?$IteratedHash@IU?$EnumToType@W4ByteOrder@CryptoPP@@$00@CryptoPP@@$0EA@VHashTransformation@2@@CryptoPP@@VSHA1@2@@2@@CryptoPP@@@8 ; CryptoPP::ClonableImpl<CryptoPP::SHA1,CryptoPP::AlgorithmImpl<CryptoPP::IteratedHash<unsigned int,CryptoPP::EnumToType<enum CryptoPP::ByteOrder,1>,64,CryptoPP::HashTransformation>,CryptoPP::SHA1> > `RTTI Type Descriptor'
PUBLIC	??_R3?$ClonableImpl@VSHA1@CryptoPP@@V?$AlgorithmImpl@V?$IteratedHash@IU?$EnumToType@W4ByteOrder@CryptoPP@@$00@CryptoPP@@$0EA@VHashTransformation@2@@CryptoPP@@VSHA1@2@@2@@CryptoPP@@8 ; CryptoPP::ClonableImpl<CryptoPP::SHA1,CryptoPP::AlgorithmImpl<CryptoPP::IteratedHash<unsigned int,CryptoPP::EnumToType<enum CryptoPP::ByteOrder,1>,64,CryptoPP::HashTransformation>,CryptoPP::SHA1> >::`RTTI Class Hierarchy Descriptor'
PUBLIC	??_R2?$ClonableImpl@VSHA1@CryptoPP@@V?$AlgorithmImpl@V?$IteratedHash@IU?$EnumToType@W4ByteOrder@CryptoPP@@$00@CryptoPP@@$0EA@VHashTransformation@2@@CryptoPP@@VSHA1@2@@2@@CryptoPP@@8 ; CryptoPP::ClonableImpl<CryptoPP::SHA1,CryptoPP::AlgorithmImpl<CryptoPP::IteratedHash<unsigned int,CryptoPP::EnumToType<enum CryptoPP::ByteOrder,1>,64,CryptoPP::HashTransformation>,CryptoPP::SHA1> >::`RTTI Base Class Array'
PUBLIC	??_R1A@?0A@EA@?$AlgorithmImpl@V?$IteratedHash@IU?$EnumToType@W4ByteOrder@CryptoPP@@$00@CryptoPP@@$0EA@VHashTransformation@2@@CryptoPP@@VSHA1@2@@CryptoPP@@8 ; CryptoPP::AlgorithmImpl<CryptoPP::IteratedHash<unsigned int,CryptoPP::EnumToType<enum CryptoPP::ByteOrder,1>,64,CryptoPP::HashTransformation>,CryptoPP::SHA1>::`RTTI Base Class Descriptor at (0,-1,0,64)'
PUBLIC	??_R0?AV?$AlgorithmImpl@V?$IteratedHash@IU?$EnumToType@W4ByteOrder@CryptoPP@@$00@CryptoPP@@$0EA@VHashTransformation@2@@CryptoPP@@VSHA1@2@@CryptoPP@@@8 ; CryptoPP::AlgorithmImpl<CryptoPP::IteratedHash<unsigned int,CryptoPP::EnumToType<enum CryptoPP::ByteOrder,1>,64,CryptoPP::HashTransformation>,CryptoPP::SHA1> `RTTI Type Descriptor'
PUBLIC	??_R3?$AlgorithmImpl@V?$IteratedHash@IU?$EnumToType@W4ByteOrder@CryptoPP@@$00@CryptoPP@@$0EA@VHashTransformation@2@@CryptoPP@@VSHA1@2@@CryptoPP@@8 ; CryptoPP::AlgorithmImpl<CryptoPP::IteratedHash<unsigned int,CryptoPP::EnumToType<enum CryptoPP::ByteOrder,1>,64,CryptoPP::HashTransformation>,CryptoPP::SHA1>::`RTTI Class Hierarchy Descriptor'
PUBLIC	??_R2?$AlgorithmImpl@V?$IteratedHash@IU?$EnumToType@W4ByteOrder@CryptoPP@@$00@CryptoPP@@$0EA@VHashTransformation@2@@CryptoPP@@VSHA1@2@@CryptoPP@@8 ; CryptoPP::AlgorithmImpl<CryptoPP::IteratedHash<unsigned int,CryptoPP::EnumToType<enum CryptoPP::ByteOrder,1>,64,CryptoPP::HashTransformation>,CryptoPP::SHA1>::`RTTI Base Class Array'
PUBLIC	??_R1A@?0A@EA@?$IteratedHash@IU?$EnumToType@W4ByteOrder@CryptoPP@@$00@CryptoPP@@$0EA@VHashTransformation@2@@CryptoPP@@8 ; CryptoPP::IteratedHash<unsigned int,CryptoPP::EnumToType<enum CryptoPP::ByteOrder,1>,64,CryptoPP::HashTransformation>::`RTTI Base Class Descriptor at (0,-1,0,64)'
PUBLIC	??_R0?AV?$IteratedHash@IU?$EnumToType@W4ByteOrder@CryptoPP@@$00@CryptoPP@@$0EA@VHashTransformation@2@@CryptoPP@@@8 ; CryptoPP::IteratedHash<unsigned int,CryptoPP::EnumToType<enum CryptoPP::ByteOrder,1>,64,CryptoPP::HashTransformation> `RTTI Type Descriptor'
PUBLIC	??_R3?$IteratedHash@IU?$EnumToType@W4ByteOrder@CryptoPP@@$00@CryptoPP@@$0EA@VHashTransformation@2@@CryptoPP@@8 ; CryptoPP::IteratedHash<unsigned int,CryptoPP::EnumToType<enum CryptoPP::ByteOrder,1>,64,CryptoPP::HashTransformation>::`RTTI Class Hierarchy Descriptor'
PUBLIC	??_R2?$IteratedHash@IU?$EnumToType@W4ByteOrder@CryptoPP@@$00@CryptoPP@@$0EA@VHashTransformation@2@@CryptoPP@@8 ; CryptoPP::IteratedHash<unsigned int,CryptoPP::EnumToType<enum CryptoPP::ByteOrder,1>,64,CryptoPP::HashTransformation>::`RTTI Base Class Array'
PUBLIC	??_R1A@?0A@EA@?$IteratedHash@IU?$EnumToType@W4ByteOrder@CryptoPP@@$0A@@CryptoPP@@$0EA@VHashTransformation@2@@CryptoPP@@8 ; CryptoPP::IteratedHash<unsigned int,CryptoPP::EnumToType<enum CryptoPP::ByteOrder,0>,64,CryptoPP::HashTransformation>::`RTTI Base Class Descriptor at (0,-1,0,64)'
PUBLIC	??_R0?AV?$IteratedHash@IU?$EnumToType@W4ByteOrder@CryptoPP@@$0A@@CryptoPP@@$0EA@VHashTransformation@2@@CryptoPP@@@8 ; CryptoPP::IteratedHash<unsigned int,CryptoPP::EnumToType<enum CryptoPP::ByteOrder,0>,64,CryptoPP::HashTransformation> `RTTI Type Descriptor'
PUBLIC	??_R3?$IteratedHash@IU?$EnumToType@W4ByteOrder@CryptoPP@@$0A@@CryptoPP@@$0EA@VHashTransformation@2@@CryptoPP@@8 ; CryptoPP::IteratedHash<unsigned int,CryptoPP::EnumToType<enum CryptoPP::ByteOrder,0>,64,CryptoPP::HashTransformation>::`RTTI Class Hierarchy Descriptor'
PUBLIC	??_R2?$IteratedHash@IU?$EnumToType@W4ByteOrder@CryptoPP@@$0A@@CryptoPP@@$0EA@VHashTransformation@2@@CryptoPP@@8 ; CryptoPP::IteratedHash<unsigned int,CryptoPP::EnumToType<enum CryptoPP::ByteOrder,0>,64,CryptoPP::HashTransformation>::`RTTI Base Class Array'
PUBLIC	??_R4RIPEMD128@CryptoPP@@6B@			; CryptoPP::RIPEMD128::`RTTI Complete Object Locator'
PUBLIC	??_R0?AVRIPEMD128@CryptoPP@@@8			; CryptoPP::RIPEMD128 `RTTI Type Descriptor'
PUBLIC	??_R3RIPEMD128@CryptoPP@@8			; CryptoPP::RIPEMD128::`RTTI Class Hierarchy Descriptor'
PUBLIC	??_R2RIPEMD128@CryptoPP@@8			; CryptoPP::RIPEMD128::`RTTI Base Class Array'
PUBLIC	??_R1A@?0A@EA@RIPEMD128@CryptoPP@@8		; CryptoPP::RIPEMD128::`RTTI Base Class Descriptor at (0,-1,0,64)'
PUBLIC	??_R1A@?0A@EA@?$IteratedHashWithStaticTransform@IU?$EnumToType@W4ByteOrder@CryptoPP@@$0A@@CryptoPP@@$0EA@$0BA@VRIPEMD128@2@$0A@$0A@@CryptoPP@@8 ; CryptoPP::IteratedHashWithStaticTransform<unsigned int,CryptoPP::EnumToType<enum CryptoPP::ByteOrder,0>,64,16,CryptoPP::RIPEMD128,0,0>::`RTTI Base Class Descriptor at (0,-1,0,64)'
PUBLIC	??_R0?AV?$IteratedHashWithStaticTransform@IU?$EnumToType@W4ByteOrder@CryptoPP@@$0A@@CryptoPP@@$0EA@$0BA@VRIPEMD128@2@$0A@$0A@@CryptoPP@@@8 ; CryptoPP::IteratedHashWithStaticTransform<unsigned int,CryptoPP::EnumToType<enum CryptoPP::ByteOrder,0>,64,16,CryptoPP::RIPEMD128,0,0> `RTTI Type Descriptor'
PUBLIC	??_R3?$IteratedHashWithStaticTransform@IU?$EnumToType@W4ByteOrder@CryptoPP@@$0A@@CryptoPP@@$0EA@$0BA@VRIPEMD128@2@$0A@$0A@@CryptoPP@@8 ; CryptoPP::IteratedHashWithStaticTransform<unsigned int,CryptoPP::EnumToType<enum CryptoPP::ByteOrder,0>,64,16,CryptoPP::RIPEMD128,0,0>::`RTTI Class Hierarchy Descriptor'
PUBLIC	??_R2?$IteratedHashWithStaticTransform@IU?$EnumToType@W4ByteOrder@CryptoPP@@$0A@@CryptoPP@@$0EA@$0BA@VRIPEMD128@2@$0A@$0A@@CryptoPP@@8 ; CryptoPP::IteratedHashWithStaticTransform<unsigned int,CryptoPP::EnumToType<enum CryptoPP::ByteOrder,0>,64,16,CryptoPP::RIPEMD128,0,0>::`RTTI Base Class Array'
PUBLIC	??_R1A@?0A@EA@?$ClonableImpl@VRIPEMD128@CryptoPP@@V?$AlgorithmImpl@V?$IteratedHash@IU?$EnumToType@W4ByteOrder@CryptoPP@@$0A@@CryptoPP@@$0EA@VHashTransformation@2@@CryptoPP@@VRIPEMD128@2@@2@@CryptoPP@@8 ; CryptoPP::ClonableImpl<CryptoPP::RIPEMD128,CryptoPP::AlgorithmImpl<CryptoPP::IteratedHash<unsigned int,CryptoPP::EnumToType<enum CryptoPP::ByteOrder,0>,64,CryptoPP::HashTransformation>,CryptoPP::RIPEMD128> >::`RTTI Base Class Descriptor at (0,-1,0,64)'
PUBLIC	??_R0?AV?$ClonableImpl@VRIPEMD128@CryptoPP@@V?$AlgorithmImpl@V?$IteratedHash@IU?$EnumToType@W4ByteOrder@CryptoPP@@$0A@@CryptoPP@@$0EA@VHashTransformation@2@@CryptoPP@@VRIPEMD128@2@@2@@CryptoPP@@@8 ; CryptoPP::ClonableImpl<CryptoPP::RIPEMD128,CryptoPP::AlgorithmImpl<CryptoPP::IteratedHash<unsigned int,CryptoPP::EnumToType<enum CryptoPP::ByteOrder,0>,64,CryptoPP::HashTransformation>,CryptoPP::RIPEMD128> > `RTTI Type Descriptor'
PUBLIC	??_R3?$ClonableImpl@VRIPEMD128@CryptoPP@@V?$AlgorithmImpl@V?$IteratedHash@IU?$EnumToType@W4ByteOrder@CryptoPP@@$0A@@CryptoPP@@$0EA@VHashTransformation@2@@CryptoPP@@VRIPEMD128@2@@2@@CryptoPP@@8 ; CryptoPP::ClonableImpl<CryptoPP::RIPEMD128,CryptoPP::AlgorithmImpl<CryptoPP::IteratedHash<unsigned int,CryptoPP::EnumToType<enum CryptoPP::ByteOrder,0>,64,CryptoPP::HashTransformation>,CryptoPP::RIPEMD128> >::`RTTI Class Hierarchy Descriptor'
PUBLIC	??_R2?$ClonableImpl@VRIPEMD128@CryptoPP@@V?$AlgorithmImpl@V?$IteratedHash@IU?$EnumToType@W4ByteOrder@CryptoPP@@$0A@@CryptoPP@@$0EA@VHashTransformation@2@@CryptoPP@@VRIPEMD128@2@@2@@CryptoPP@@8 ; CryptoPP::ClonableImpl<CryptoPP::RIPEMD128,CryptoPP::AlgorithmImpl<CryptoPP::IteratedHash<unsigned int,CryptoPP::EnumToType<enum CryptoPP::ByteOrder,0>,64,CryptoPP::HashTransformation>,CryptoPP::RIPEMD128> >::`RTTI Base Class Array'
PUBLIC	??_R1A@?0A@EA@?$AlgorithmImpl@V?$IteratedHash@IU?$EnumToType@W4ByteOrder@CryptoPP@@$0A@@CryptoPP@@$0EA@VHashTransformation@2@@CryptoPP@@VRIPEMD128@2@@CryptoPP@@8 ; CryptoPP::AlgorithmImpl<CryptoPP::IteratedHash<unsigned int,CryptoPP::EnumToType<enum CryptoPP::ByteOrder,0>,64,CryptoPP::HashTransformation>,CryptoPP::RIPEMD128>::`RTTI Base Class Descriptor at (0,-1,0,64)'
PUBLIC	??_R0?AV?$AlgorithmImpl@V?$IteratedHash@IU?$EnumToType@W4ByteOrder@CryptoPP@@$0A@@CryptoPP@@$0EA@VHashTransformation@2@@CryptoPP@@VRIPEMD128@2@@CryptoPP@@@8 ; CryptoPP::AlgorithmImpl<CryptoPP::IteratedHash<unsigned int,CryptoPP::EnumToType<enum CryptoPP::ByteOrder,0>,64,CryptoPP::HashTransformation>,CryptoPP::RIPEMD128> `RTTI Type Descriptor'
PUBLIC	??_R3?$AlgorithmImpl@V?$IteratedHash@IU?$EnumToType@W4ByteOrder@CryptoPP@@$0A@@CryptoPP@@$0EA@VHashTransformation@2@@CryptoPP@@VRIPEMD128@2@@CryptoPP@@8 ; CryptoPP::AlgorithmImpl<CryptoPP::IteratedHash<unsigned int,CryptoPP::EnumToType<enum CryptoPP::ByteOrder,0>,64,CryptoPP::HashTransformation>,CryptoPP::RIPEMD128>::`RTTI Class Hierarchy Descriptor'
PUBLIC	??_R2?$AlgorithmImpl@V?$IteratedHash@IU?$EnumToType@W4ByteOrder@CryptoPP@@$0A@@CryptoPP@@$0EA@VHashTransformation@2@@CryptoPP@@VRIPEMD128@2@@CryptoPP@@8 ; CryptoPP::AlgorithmImpl<CryptoPP::IteratedHash<unsigned int,CryptoPP::EnumToType<enum CryptoPP::ByteOrder,0>,64,CryptoPP::HashTransformation>,CryptoPP::RIPEMD128>::`RTTI Base Class Array'
PUBLIC	??_R4Whirlpool@CryptoPP@@6B@			; CryptoPP::Whirlpool::`RTTI Complete Object Locator'
PUBLIC	??_R0?AVWhirlpool@CryptoPP@@@8			; CryptoPP::Whirlpool `RTTI Type Descriptor'
PUBLIC	??_R3Whirlpool@CryptoPP@@8			; CryptoPP::Whirlpool::`RTTI Class Hierarchy Descriptor'
PUBLIC	??_R2Whirlpool@CryptoPP@@8			; CryptoPP::Whirlpool::`RTTI Base Class Array'
PUBLIC	??_R1A@?0A@EA@Whirlpool@CryptoPP@@8		; CryptoPP::Whirlpool::`RTTI Base Class Descriptor at (0,-1,0,64)'
PUBLIC	??_R1A@?0A@EA@?$IteratedHashWithStaticTransform@_KU?$EnumToType@W4ByteOrder@CryptoPP@@$00@CryptoPP@@$0EA@$0EA@VWhirlpool@2@$0A@$0A@@CryptoPP@@8 ; CryptoPP::IteratedHashWithStaticTransform<unsigned __int64,CryptoPP::EnumToType<enum CryptoPP::ByteOrder,1>,64,64,CryptoPP::Whirlpool,0,0>::`RTTI Base Class Descriptor at (0,-1,0,64)'
PUBLIC	??_R0?AV?$IteratedHashWithStaticTransform@_KU?$EnumToType@W4ByteOrder@CryptoPP@@$00@CryptoPP@@$0EA@$0EA@VWhirlpool@2@$0A@$0A@@CryptoPP@@@8 ; CryptoPP::IteratedHashWithStaticTransform<unsigned __int64,CryptoPP::EnumToType<enum CryptoPP::ByteOrder,1>,64,64,CryptoPP::Whirlpool,0,0> `RTTI Type Descriptor'
PUBLIC	??_R3?$IteratedHashWithStaticTransform@_KU?$EnumToType@W4ByteOrder@CryptoPP@@$00@CryptoPP@@$0EA@$0EA@VWhirlpool@2@$0A@$0A@@CryptoPP@@8 ; CryptoPP::IteratedHashWithStaticTransform<unsigned __int64,CryptoPP::EnumToType<enum CryptoPP::ByteOrder,1>,64,64,CryptoPP::Whirlpool,0,0>::`RTTI Class Hierarchy Descriptor'
PUBLIC	??_R2?$IteratedHashWithStaticTransform@_KU?$EnumToType@W4ByteOrder@CryptoPP@@$00@CryptoPP@@$0EA@$0EA@VWhirlpool@2@$0A@$0A@@CryptoPP@@8 ; CryptoPP::IteratedHashWithStaticTransform<unsigned __int64,CryptoPP::EnumToType<enum CryptoPP::ByteOrder,1>,64,64,CryptoPP::Whirlpool,0,0>::`RTTI Base Class Array'
PUBLIC	??_R1A@?0A@EA@?$ClonableImpl@VWhirlpool@CryptoPP@@V?$AlgorithmImpl@V?$IteratedHash@_KU?$EnumToType@W4ByteOrder@CryptoPP@@$00@CryptoPP@@$0EA@VHashTransformation@2@@CryptoPP@@VWhirlpool@2@@2@@CryptoPP@@8 ; CryptoPP::ClonableImpl<CryptoPP::Whirlpool,CryptoPP::AlgorithmImpl<CryptoPP::IteratedHash<unsigned __int64,CryptoPP::EnumToType<enum CryptoPP::ByteOrder,1>,64,CryptoPP::HashTransformation>,CryptoPP::Whirlpool> >::`RTTI Base Class Descriptor at (0,-1,0,64)'
PUBLIC	??_R0?AV?$ClonableImpl@VWhirlpool@CryptoPP@@V?$AlgorithmImpl@V?$IteratedHash@_KU?$EnumToType@W4ByteOrder@CryptoPP@@$00@CryptoPP@@$0EA@VHashTransformation@2@@CryptoPP@@VWhirlpool@2@@2@@CryptoPP@@@8 ; CryptoPP::ClonableImpl<CryptoPP::Whirlpool,CryptoPP::AlgorithmImpl<CryptoPP::IteratedHash<unsigned __int64,CryptoPP::EnumToType<enum CryptoPP::ByteOrder,1>,64,CryptoPP::HashTransformation>,CryptoPP::Whirlpool> > `RTTI Type Descriptor'
PUBLIC	??_R3?$ClonableImpl@VWhirlpool@CryptoPP@@V?$AlgorithmImpl@V?$IteratedHash@_KU?$EnumToType@W4ByteOrder@CryptoPP@@$00@CryptoPP@@$0EA@VHashTransformation@2@@CryptoPP@@VWhirlpool@2@@2@@CryptoPP@@8 ; CryptoPP::ClonableImpl<CryptoPP::Whirlpool,CryptoPP::AlgorithmImpl<CryptoPP::IteratedHash<unsigned __int64,CryptoPP::EnumToType<enum CryptoPP::ByteOrder,1>,64,CryptoPP::HashTransformation>,CryptoPP::Whirlpool> >::`RTTI Class Hierarchy Descriptor'
PUBLIC	??_R2?$ClonableImpl@VWhirlpool@CryptoPP@@V?$AlgorithmImpl@V?$IteratedHash@_KU?$EnumToType@W4ByteOrder@CryptoPP@@$00@CryptoPP@@$0EA@VHashTransformation@2@@CryptoPP@@VWhirlpool@2@@2@@CryptoPP@@8 ; CryptoPP::ClonableImpl<CryptoPP::Whirlpool,CryptoPP::AlgorithmImpl<CryptoPP::IteratedHash<unsigned __int64,CryptoPP::EnumToType<enum CryptoPP::ByteOrder,1>,64,CryptoPP::HashTransformation>,CryptoPP::Whirlpool> >::`RTTI Base Class Array'
PUBLIC	??_R1A@?0A@EA@?$AlgorithmImpl@V?$IteratedHash@_KU?$EnumToType@W4ByteOrder@CryptoPP@@$00@CryptoPP@@$0EA@VHashTransformation@2@@CryptoPP@@VWhirlpool@2@@CryptoPP@@8 ; CryptoPP::AlgorithmImpl<CryptoPP::IteratedHash<unsigned __int64,CryptoPP::EnumToType<enum CryptoPP::ByteOrder,1>,64,CryptoPP::HashTransformation>,CryptoPP::Whirlpool>::`RTTI Base Class Descriptor at (0,-1,0,64)'
PUBLIC	??_R0?AV?$AlgorithmImpl@V?$IteratedHash@_KU?$EnumToType@W4ByteOrder@CryptoPP@@$00@CryptoPP@@$0EA@VHashTransformation@2@@CryptoPP@@VWhirlpool@2@@CryptoPP@@@8 ; CryptoPP::AlgorithmImpl<CryptoPP::IteratedHash<unsigned __int64,CryptoPP::EnumToType<enum CryptoPP::ByteOrder,1>,64,CryptoPP::HashTransformation>,CryptoPP::Whirlpool> `RTTI Type Descriptor'
PUBLIC	??_R3?$AlgorithmImpl@V?$IteratedHash@_KU?$EnumToType@W4ByteOrder@CryptoPP@@$00@CryptoPP@@$0EA@VHashTransformation@2@@CryptoPP@@VWhirlpool@2@@CryptoPP@@8 ; CryptoPP::AlgorithmImpl<CryptoPP::IteratedHash<unsigned __int64,CryptoPP::EnumToType<enum CryptoPP::ByteOrder,1>,64,CryptoPP::HashTransformation>,CryptoPP::Whirlpool>::`RTTI Class Hierarchy Descriptor'
PUBLIC	??_R2?$AlgorithmImpl@V?$IteratedHash@_KU?$EnumToType@W4ByteOrder@CryptoPP@@$00@CryptoPP@@$0EA@VHashTransformation@2@@CryptoPP@@VWhirlpool@2@@CryptoPP@@8 ; CryptoPP::AlgorithmImpl<CryptoPP::IteratedHash<unsigned __int64,CryptoPP::EnumToType<enum CryptoPP::ByteOrder,1>,64,CryptoPP::HashTransformation>,CryptoPP::Whirlpool>::`RTTI Base Class Array'
PUBLIC	??_R1A@?0A@EA@?$IteratedHash@_KU?$EnumToType@W4ByteOrder@CryptoPP@@$00@CryptoPP@@$0EA@VHashTransformation@2@@CryptoPP@@8 ; CryptoPP::IteratedHash<unsigned __int64,CryptoPP::EnumToType<enum CryptoPP::ByteOrder,1>,64,CryptoPP::HashTransformation>::`RTTI Base Class Descriptor at (0,-1,0,64)'
PUBLIC	??_R0?AV?$IteratedHash@_KU?$EnumToType@W4ByteOrder@CryptoPP@@$00@CryptoPP@@$0EA@VHashTransformation@2@@CryptoPP@@@8 ; CryptoPP::IteratedHash<unsigned __int64,CryptoPP::EnumToType<enum CryptoPP::ByteOrder,1>,64,CryptoPP::HashTransformation> `RTTI Type Descriptor'
PUBLIC	??_R3?$IteratedHash@_KU?$EnumToType@W4ByteOrder@CryptoPP@@$00@CryptoPP@@$0EA@VHashTransformation@2@@CryptoPP@@8 ; CryptoPP::IteratedHash<unsigned __int64,CryptoPP::EnumToType<enum CryptoPP::ByteOrder,1>,64,CryptoPP::HashTransformation>::`RTTI Class Hierarchy Descriptor'
PUBLIC	??_R2?$IteratedHash@_KU?$EnumToType@W4ByteOrder@CryptoPP@@$00@CryptoPP@@$0EA@VHashTransformation@2@@CryptoPP@@8 ; CryptoPP::IteratedHash<unsigned __int64,CryptoPP::EnumToType<enum CryptoPP::ByteOrder,1>,64,CryptoPP::HashTransformation>::`RTTI Base Class Array'
PUBLIC	??_R0?AU?$AdditiveCipherConcretePolicy@I$07$00UAdditiveCipherAbstractPolicy@CryptoPP@@@CryptoPP@@@8 ; CryptoPP::AdditiveCipherConcretePolicy<unsigned int,8,1,CryptoPP::AdditiveCipherAbstractPolicy> `RTTI Type Descriptor'
PUBLIC	??_R3?$AdditiveCipherConcretePolicy@I$07$00UAdditiveCipherAbstractPolicy@CryptoPP@@@CryptoPP@@8 ; CryptoPP::AdditiveCipherConcretePolicy<unsigned int,8,1,CryptoPP::AdditiveCipherAbstractPolicy>::`RTTI Class Hierarchy Descriptor'
PUBLIC	??_R2?$AdditiveCipherConcretePolicy@I$07$00UAdditiveCipherAbstractPolicy@CryptoPP@@@CryptoPP@@8 ; CryptoPP::AdditiveCipherConcretePolicy<unsigned int,8,1,CryptoPP::AdditiveCipherAbstractPolicy>::`RTTI Base Class Array'
PUBLIC	??_R1A@?0A@EA@?$AdditiveCipherConcretePolicy@I$07$00UAdditiveCipherAbstractPolicy@CryptoPP@@@CryptoPP@@8 ; CryptoPP::AdditiveCipherConcretePolicy<unsigned int,8,1,CryptoPP::AdditiveCipherAbstractPolicy>::`RTTI Base Class Descriptor at (0,-1,0,64)'
PUBLIC	??_R4_Facet_base@std@@6B@			; std::_Facet_base::`RTTI Complete Object Locator'
PUBLIC	??_R0?AV_Facet_base@std@@@8			; std::_Facet_base `RTTI Type Descriptor'
PUBLIC	??_R3_Facet_base@std@@8				; std::_Facet_base::`RTTI Class Hierarchy Descriptor'
PUBLIC	??_R2_Facet_base@std@@8				; std::_Facet_base::`RTTI Base Class Array'
PUBLIC	??_R1A@?0A@EA@_Facet_base@std@@8		; std::_Facet_base::`RTTI Base Class Descriptor at (0,-1,0,64)'
PUBLIC	??_R1A@?0A@EA@facet@locale@std@@8		; std::locale::facet::`RTTI Base Class Descriptor at (0,-1,0,64)'
PUBLIC	??_R0?AVfacet@locale@std@@@8			; std::locale::facet `RTTI Type Descriptor'
PUBLIC	??_R3facet@locale@std@@8			; std::locale::facet::`RTTI Class Hierarchy Descriptor'
PUBLIC	??_R2facet@locale@std@@8			; std::locale::facet::`RTTI Base Class Array'
PUBLIC	??_R13?0A@EA@_Crt_new_delete@std@@8		; std::_Crt_new_delete::`RTTI Base Class Descriptor at (4,-1,0,64)'
PUBLIC	??_R0?AU_Crt_new_delete@std@@@8			; std::_Crt_new_delete `RTTI Type Descriptor'
PUBLIC	??_R3_Crt_new_delete@std@@8			; std::_Crt_new_delete::`RTTI Class Hierarchy Descriptor'
PUBLIC	??_R2_Crt_new_delete@std@@8			; std::_Crt_new_delete::`RTTI Base Class Array'
PUBLIC	??_R1A@?0A@EA@_Crt_new_delete@std@@8		; std::_Crt_new_delete::`RTTI Base Class Descriptor at (0,-1,0,64)'
PUBLIC	??_R4facet@locale@std@@6B@			; std::locale::facet::`RTTI Complete Object Locator'
PUBLIC	??_R4codecvt_base@std@@6B@			; std::codecvt_base::`RTTI Complete Object Locator'
PUBLIC	??_R0?AVcodecvt_base@std@@@8			; std::codecvt_base `RTTI Type Descriptor'
PUBLIC	??_R3codecvt_base@std@@8			; std::codecvt_base::`RTTI Class Hierarchy Descriptor'
PUBLIC	??_R2codecvt_base@std@@8			; std::codecvt_base::`RTTI Base Class Array'
PUBLIC	??_R1A@?0A@EA@codecvt_base@std@@8		; std::codecvt_base::`RTTI Base Class Descriptor at (0,-1,0,64)'
PUBLIC	??_R4?$codecvt@_WDU_Mbstatet@@@std@@6B@		; std::codecvt<wchar_t,char,_Mbstatet>::`RTTI Complete Object Locator'
PUBLIC	??_R0?AV?$codecvt@_WDU_Mbstatet@@@std@@@8	; std::codecvt<wchar_t,char,_Mbstatet> `RTTI Type Descriptor'
PUBLIC	??_R3?$codecvt@_WDU_Mbstatet@@@std@@8		; std::codecvt<wchar_t,char,_Mbstatet>::`RTTI Class Hierarchy Descriptor'
PUBLIC	??_R2?$codecvt@_WDU_Mbstatet@@@std@@8		; std::codecvt<wchar_t,char,_Mbstatet>::`RTTI Base Class Array'
PUBLIC	??_R1A@?0A@EA@?$codecvt@_WDU_Mbstatet@@@std@@8	; std::codecvt<wchar_t,char,_Mbstatet>::`RTTI Base Class Descriptor at (0,-1,0,64)'
PUBLIC	??_R4ctype_base@std@@6B@			; std::ctype_base::`RTTI Complete Object Locator'
PUBLIC	??_R0?AUctype_base@std@@@8			; std::ctype_base `RTTI Type Descriptor'
PUBLIC	??_R3ctype_base@std@@8				; std::ctype_base::`RTTI Class Hierarchy Descriptor'
PUBLIC	??_R2ctype_base@std@@8				; std::ctype_base::`RTTI Base Class Array'
PUBLIC	??_R1A@?0A@EA@ctype_base@std@@8			; std::ctype_base::`RTTI Base Class Descriptor at (0,-1,0,64)'
PUBLIC	??_R4?$ctype@_W@std@@6B@			; std::ctype<wchar_t>::`RTTI Complete Object Locator'
PUBLIC	??_R0?AV?$ctype@_W@std@@@8			; std::ctype<wchar_t> `RTTI Type Descriptor'
PUBLIC	??_R3?$ctype@_W@std@@8				; std::ctype<wchar_t>::`RTTI Class Hierarchy Descriptor'
PUBLIC	??_R2?$ctype@_W@std@@8				; std::ctype<wchar_t>::`RTTI Base Class Array'
PUBLIC	??_R1A@?0A@EA@?$ctype@_W@std@@8			; std::ctype<wchar_t>::`RTTI Base Class Descriptor at (0,-1,0,64)'
PUBLIC	??_R4failure@ios_base@std@@6B@			; std::ios_base::failure::`RTTI Complete Object Locator'
PUBLIC	??_R3failure@ios_base@std@@8			; std::ios_base::failure::`RTTI Class Hierarchy Descriptor'
PUBLIC	??_R2failure@ios_base@std@@8			; std::ios_base::failure::`RTTI Base Class Array'
PUBLIC	??_R1A@?0A@EA@failure@ios_base@std@@8		; std::ios_base::failure::`RTTI Base Class Descriptor at (0,-1,0,64)'
PUBLIC	??_R4?$PanamaCipherPolicy@U?$EnumToType@W4ByteOrder@CryptoPP@@$0A@@CryptoPP@@@CryptoPP@@6B?$AdditiveCipherConcretePolicy@I$07$00UAdditiveCipherAbstractPolicy@CryptoPP@@@1@@ ; CryptoPP::PanamaCipherPolicy<CryptoPP::EnumToType<enum CryptoPP::ByteOrder,0> >::`RTTI Complete Object Locator'
PUBLIC	??_R0?AV?$PanamaCipherPolicy@U?$EnumToType@W4ByteOrder@CryptoPP@@$0A@@CryptoPP@@@CryptoPP@@@8 ; CryptoPP::PanamaCipherPolicy<CryptoPP::EnumToType<enum CryptoPP::ByteOrder,0> > `RTTI Type Descriptor'
PUBLIC	??_R3?$PanamaCipherPolicy@U?$EnumToType@W4ByteOrder@CryptoPP@@$0A@@CryptoPP@@@CryptoPP@@8 ; CryptoPP::PanamaCipherPolicy<CryptoPP::EnumToType<enum CryptoPP::ByteOrder,0> >::`RTTI Class Hierarchy Descriptor'
PUBLIC	??_R2?$PanamaCipherPolicy@U?$EnumToType@W4ByteOrder@CryptoPP@@$0A@@CryptoPP@@@CryptoPP@@8 ; CryptoPP::PanamaCipherPolicy<CryptoPP::EnumToType<enum CryptoPP::ByteOrder,0> >::`RTTI Base Class Array'
PUBLIC	??_R1A@?0A@EA@?$PanamaCipherPolicy@U?$EnumToType@W4ByteOrder@CryptoPP@@$0A@@CryptoPP@@@CryptoPP@@8 ; CryptoPP::PanamaCipherPolicy<CryptoPP::EnumToType<enum CryptoPP::ByteOrder,0> >::`RTTI Base Class Descriptor at (0,-1,0,64)'
PUBLIC	??_R1EIB@?0A@EA@?$PanamaCipherInfo@U?$EnumToType@W4ByteOrder@CryptoPP@@$0A@@CryptoPP@@@CryptoPP@@8 ; CryptoPP::PanamaCipherInfo<CryptoPP::EnumToType<enum CryptoPP::ByteOrder,0> >::`RTTI Base Class Descriptor at (1153,-1,0,64)'
PUBLIC	??_R0?AU?$PanamaCipherInfo@U?$EnumToType@W4ByteOrder@CryptoPP@@$0A@@CryptoPP@@@CryptoPP@@@8 ; CryptoPP::PanamaCipherInfo<CryptoPP::EnumToType<enum CryptoPP::ByteOrder,0> > `RTTI Type Descriptor'
PUBLIC	??_R3?$PanamaCipherInfo@U?$EnumToType@W4ByteOrder@CryptoPP@@$0A@@CryptoPP@@@CryptoPP@@8 ; CryptoPP::PanamaCipherInfo<CryptoPP::EnumToType<enum CryptoPP::ByteOrder,0> >::`RTTI Class Hierarchy Descriptor'
PUBLIC	??_R2?$PanamaCipherInfo@U?$EnumToType@W4ByteOrder@CryptoPP@@$0A@@CryptoPP@@@CryptoPP@@8 ; CryptoPP::PanamaCipherInfo<CryptoPP::EnumToType<enum CryptoPP::ByteOrder,0> >::`RTTI Base Class Array'
PUBLIC	??_R1A@?0A@EA@?$PanamaCipherInfo@U?$EnumToType@W4ByteOrder@CryptoPP@@$0A@@CryptoPP@@@CryptoPP@@8 ; CryptoPP::PanamaCipherInfo<CryptoPP::EnumToType<enum CryptoPP::ByteOrder,0> >::`RTTI Base Class Descriptor at (0,-1,0,64)'
PUBLIC	??_R1A@?0A@EA@?$FixedKeyLength@$0CA@$0A@$0CA@@CryptoPP@@8 ; CryptoPP::FixedKeyLength<32,0,32>::`RTTI Base Class Descriptor at (0,-1,0,64)'
PUBLIC	??_R0?AV?$FixedKeyLength@$0CA@$0A@$0CA@@CryptoPP@@@8 ; CryptoPP::FixedKeyLength<32,0,32> `RTTI Type Descriptor'
PUBLIC	??_R3?$FixedKeyLength@$0CA@$0A@$0CA@@CryptoPP@@8 ; CryptoPP::FixedKeyLength<32,0,32>::`RTTI Class Hierarchy Descriptor'
PUBLIC	??_R2?$FixedKeyLength@$0CA@$0A@$0CA@@CryptoPP@@8 ; CryptoPP::FixedKeyLength<32,0,32>::`RTTI Base Class Array'
PUBLIC	??_R1EIB@?0A@EA@?$FixedKeyLength@$0CA@$0A@$0CA@@CryptoPP@@8 ; CryptoPP::FixedKeyLength<32,0,32>::`RTTI Base Class Descriptor at (1153,-1,0,64)'
PUBLIC	??_R17?0A@EN@?$Panama@U?$EnumToType@W4ByteOrder@CryptoPP@@$0A@@CryptoPP@@@CryptoPP@@8 ; CryptoPP::Panama<CryptoPP::EnumToType<enum CryptoPP::ByteOrder,0> >::`RTTI Base Class Descriptor at (8,-1,0,77)'
PUBLIC	??_R0?AV?$Panama@U?$EnumToType@W4ByteOrder@CryptoPP@@$0A@@CryptoPP@@@CryptoPP@@@8 ; CryptoPP::Panama<CryptoPP::EnumToType<enum CryptoPP::ByteOrder,0> > `RTTI Type Descriptor'
PUBLIC	??_R3?$Panama@U?$EnumToType@W4ByteOrder@CryptoPP@@$0A@@CryptoPP@@@CryptoPP@@8 ; CryptoPP::Panama<CryptoPP::EnumToType<enum CryptoPP::ByteOrder,0> >::`RTTI Class Hierarchy Descriptor'
PUBLIC	??_R2?$Panama@U?$EnumToType@W4ByteOrder@CryptoPP@@$0A@@CryptoPP@@@CryptoPP@@8 ; CryptoPP::Panama<CryptoPP::EnumToType<enum CryptoPP::ByteOrder,0> >::`RTTI Base Class Array'
PUBLIC	??_R1A@?0A@EA@?$Panama@U?$EnumToType@W4ByteOrder@CryptoPP@@$0A@@CryptoPP@@@CryptoPP@@8 ; CryptoPP::Panama<CryptoPP::EnumToType<enum CryptoPP::ByteOrder,0> >::`RTTI Base Class Descriptor at (0,-1,0,64)'
PUBLIC	??_R4?$PanamaCipherPolicy@U?$EnumToType@W4ByteOrder@CryptoPP@@$0A@@CryptoPP@@@CryptoPP@@6B?$Panama@U?$EnumToType@W4ByteOrder@CryptoPP@@$0A@@CryptoPP@@@1@@ ; CryptoPP::PanamaCipherPolicy<CryptoPP::EnumToType<enum CryptoPP::ByteOrder,0> >::`RTTI Complete Object Locator'
PUBLIC	??_R4?$ConcretePolicyHolder@V?$PanamaCipherPolicy@U?$EnumToType@W4ByteOrder@CryptoPP@@$0A@@CryptoPP@@@CryptoPP@@V?$AdditiveCipherTemplate@V?$AbstractPolicyHolder@UAdditiveCipherAbstractPolicy@CryptoPP@@VSymmetricCipher@2@@CryptoPP@@@2@UAdditiveCipherAbstractPolicy@2@@CryptoPP@@6BSimpleKeyingInterface@1@@ ; CryptoPP::ConcretePolicyHolder<CryptoPP::PanamaCipherPolicy<CryptoPP::EnumToType<enum CryptoPP::ByteOrder,0> >,CryptoPP::AdditiveCipherTemplate<CryptoPP::AbstractPolicyHolder<CryptoPP::AdditiveCipherAbstractPolicy,CryptoPP::SymmetricCipher> >,CryptoPP::AdditiveCipherAbstractPolicy>::`RTTI Complete Object Locator'
PUBLIC	??_R0?AV?$ConcretePolicyHolder@V?$PanamaCipherPolicy@U?$EnumToType@W4ByteOrder@CryptoPP@@$0A@@CryptoPP@@@CryptoPP@@V?$AdditiveCipherTemplate@V?$AbstractPolicyHolder@UAdditiveCipherAbstractPolicy@CryptoPP@@VSymmetricCipher@2@@CryptoPP@@@2@UAdditiveCipherAbstractPolicy@2@@CryptoPP@@@8 ; CryptoPP::ConcretePolicyHolder<CryptoPP::PanamaCipherPolicy<CryptoPP::EnumToType<enum CryptoPP::ByteOrder,0> >,CryptoPP::AdditiveCipherTemplate<CryptoPP::AbstractPolicyHolder<CryptoPP::AdditiveCipherAbstractPolicy,CryptoPP::SymmetricCipher> >,CryptoPP::AdditiveCipherAbstractPolicy> `RTTI Type Descriptor'
PUBLIC	??_R3?$ConcretePolicyHolder@V?$PanamaCipherPolicy@U?$EnumToType@W4ByteOrder@CryptoPP@@$0A@@CryptoPP@@@CryptoPP@@V?$AdditiveCipherTemplate@V?$AbstractPolicyHolder@UAdditiveCipherAbstractPolicy@CryptoPP@@VSymmetricCipher@2@@CryptoPP@@@2@UAdditiveCipherAbstractPolicy@2@@CryptoPP@@8 ; CryptoPP::ConcretePolicyHolder<CryptoPP::PanamaCipherPolicy<CryptoPP::EnumToType<enum CryptoPP::ByteOrder,0> >,CryptoPP::AdditiveCipherTemplate<CryptoPP::AbstractPolicyHolder<CryptoPP::AdditiveCipherAbstractPolicy,CryptoPP::SymmetricCipher> >,CryptoPP::AdditiveCipherAbstractPolicy>::`RTTI Class Hierarchy Descriptor'
PUBLIC	??_R2?$ConcretePolicyHolder@V?$PanamaCipherPolicy@U?$EnumToType@W4ByteOrder@CryptoPP@@$0A@@CryptoPP@@@CryptoPP@@V?$AdditiveCipherTemplate@V?$AbstractPolicyHolder@UAdditiveCipherAbstractPolicy@CryptoPP@@VSymmetricCipher@2@@CryptoPP@@@2@UAdditiveCipherAbstractPolicy@2@@CryptoPP@@8 ; CryptoPP::ConcretePolicyHolder<CryptoPP::PanamaCipherPolicy<CryptoPP::EnumToType<enum CryptoPP::ByteOrder,0> >,CryptoPP::AdditiveCipherTemplate<CryptoPP::AbstractPolicyHolder<CryptoPP::AdditiveCipherAbstractPolicy,CryptoPP::SymmetricCipher> >,CryptoPP::AdditiveCipherAbstractPolicy>::`RTTI Base Class Array'
PUBLIC	??_R1A@?0A@EA@?$ConcretePolicyHolder@V?$PanamaCipherPolicy@U?$EnumToType@W4ByteOrder@CryptoPP@@$0A@@CryptoPP@@@CryptoPP@@V?$AdditiveCipherTemplate@V?$AbstractPolicyHolder@UAdditiveCipherAbstractPolicy@CryptoPP@@VSymmetricCipher@2@@CryptoPP@@@2@UAdditiveCipherAbstractPolicy@2@@CryptoPP@@8 ; CryptoPP::ConcretePolicyHolder<CryptoPP::PanamaCipherPolicy<CryptoPP::EnumToType<enum CryptoPP::ByteOrder,0> >,CryptoPP::AdditiveCipherTemplate<CryptoPP::AbstractPolicyHolder<CryptoPP::AdditiveCipherAbstractPolicy,CryptoPP::SymmetricCipher> >,CryptoPP::AdditiveCipherAbstractPolicy>::`RTTI Base Class Descriptor at (0,-1,0,64)'
PUBLIC	??_R1CA@?0A@EN@?$PanamaCipherPolicy@U?$EnumToType@W4ByteOrder@CryptoPP@@$0A@@CryptoPP@@@CryptoPP@@8 ; CryptoPP::PanamaCipherPolicy<CryptoPP::EnumToType<enum CryptoPP::ByteOrder,0> >::`RTTI Base Class Descriptor at (32,-1,0,77)'
PUBLIC	??_R1CA@?0A@EJ@?$AdditiveCipherConcretePolicy@I$07$00UAdditiveCipherAbstractPolicy@CryptoPP@@@CryptoPP@@8 ; CryptoPP::AdditiveCipherConcretePolicy<unsigned int,8,1,CryptoPP::AdditiveCipherAbstractPolicy>::`RTTI Base Class Descriptor at (32,-1,0,73)'
PUBLIC	??_R1CA@?0A@EJ@AdditiveCipherAbstractPolicy@CryptoPP@@8 ; CryptoPP::AdditiveCipherAbstractPolicy::`RTTI Base Class Descriptor at (32,-1,0,73)'
PUBLIC	??_R1EKB@?0A@EJ@?$PanamaCipherInfo@U?$EnumToType@W4ByteOrder@CryptoPP@@$0A@@CryptoPP@@@CryptoPP@@8 ; CryptoPP::PanamaCipherInfo<CryptoPP::EnumToType<enum CryptoPP::ByteOrder,0> >::`RTTI Base Class Descriptor at (1185,-1,0,73)'
PUBLIC	??_R1EKB@?0A@EJ@?$FixedKeyLength@$0CA@$0A@$0CA@@CryptoPP@@8 ; CryptoPP::FixedKeyLength<32,0,32>::`RTTI Base Class Descriptor at (1185,-1,0,73)'
PUBLIC	??_R1CI@?0A@EN@?$Panama@U?$EnumToType@W4ByteOrder@CryptoPP@@$0A@@CryptoPP@@@CryptoPP@@8 ; CryptoPP::Panama<CryptoPP::EnumToType<enum CryptoPP::ByteOrder,0> >::`RTTI Base Class Descriptor at (40,-1,0,77)'
PUBLIC	??_R4?$ConcretePolicyHolder@V?$PanamaCipherPolicy@U?$EnumToType@W4ByteOrder@CryptoPP@@$0A@@CryptoPP@@@CryptoPP@@V?$AdditiveCipherTemplate@V?$AbstractPolicyHolder@UAdditiveCipherAbstractPolicy@CryptoPP@@VSymmetricCipher@2@@CryptoPP@@@2@UAdditiveCipherAbstractPolicy@2@@CryptoPP@@6BStreamTransformation@1@@ ; CryptoPP::ConcretePolicyHolder<CryptoPP::PanamaCipherPolicy<CryptoPP::EnumToType<enum CryptoPP::ByteOrder,0> >,CryptoPP::AdditiveCipherTemplate<CryptoPP::AbstractPolicyHolder<CryptoPP::AdditiveCipherAbstractPolicy,CryptoPP::SymmetricCipher> >,CryptoPP::AdditiveCipherAbstractPolicy>::`RTTI Complete Object Locator'
PUBLIC	??_R4?$ConcretePolicyHolder@V?$PanamaCipherPolicy@U?$EnumToType@W4ByteOrder@CryptoPP@@$0A@@CryptoPP@@@CryptoPP@@V?$AdditiveCipherTemplate@V?$AbstractPolicyHolder@UAdditiveCipherAbstractPolicy@CryptoPP@@VSymmetricCipher@2@@CryptoPP@@@2@UAdditiveCipherAbstractPolicy@2@@CryptoPP@@6B@ ; CryptoPP::ConcretePolicyHolder<CryptoPP::PanamaCipherPolicy<CryptoPP::EnumToType<enum CryptoPP::ByteOrder,0> >,CryptoPP::AdditiveCipherTemplate<CryptoPP::AbstractPolicyHolder<CryptoPP::AdditiveCipherAbstractPolicy,CryptoPP::SymmetricCipher> >,CryptoPP::AdditiveCipherAbstractPolicy>::`RTTI Complete Object Locator'
PUBLIC	??_R4?$ConcretePolicyHolder@V?$PanamaCipherPolicy@U?$EnumToType@W4ByteOrder@CryptoPP@@$0A@@CryptoPP@@@CryptoPP@@V?$AdditiveCipherTemplate@V?$AbstractPolicyHolder@UAdditiveCipherAbstractPolicy@CryptoPP@@VSymmetricCipher@2@@CryptoPP@@@2@UAdditiveCipherAbstractPolicy@2@@CryptoPP@@6B?$AdditiveCipherConcretePolicy@I$07$00UAdditiveCipherAbstractPolicy@CryptoPP@@@1@@ ; CryptoPP::ConcretePolicyHolder<CryptoPP::PanamaCipherPolicy<CryptoPP::EnumToType<enum CryptoPP::ByteOrder,0> >,CryptoPP::AdditiveCipherTemplate<CryptoPP::AbstractPolicyHolder<CryptoPP::AdditiveCipherAbstractPolicy,CryptoPP::SymmetricCipher> >,CryptoPP::AdditiveCipherAbstractPolicy>::`RTTI Complete Object Locator'
PUBLIC	??_R4?$ConcretePolicyHolder@V?$PanamaCipherPolicy@U?$EnumToType@W4ByteOrder@CryptoPP@@$0A@@CryptoPP@@@CryptoPP@@V?$AdditiveCipherTemplate@V?$AbstractPolicyHolder@UAdditiveCipherAbstractPolicy@CryptoPP@@VSymmetricCipher@2@@CryptoPP@@@2@UAdditiveCipherAbstractPolicy@2@@CryptoPP@@6B?$Panama@U?$EnumToType@W4ByteOrder@CryptoPP@@$0A@@CryptoPP@@@1@@ ; CryptoPP::ConcretePolicyHolder<CryptoPP::PanamaCipherPolicy<CryptoPP::EnumToType<enum CryptoPP::ByteOrder,0> >,CryptoPP::AdditiveCipherTemplate<CryptoPP::AbstractPolicyHolder<CryptoPP::AdditiveCipherAbstractPolicy,CryptoPP::SymmetricCipher> >,CryptoPP::AdditiveCipherAbstractPolicy>::`RTTI Complete Object Locator'
PUBLIC	??_R4?$SymmetricCipherFinal@V?$ConcretePolicyHolder@V?$PanamaCipherPolicy@U?$EnumToType@W4ByteOrder@CryptoPP@@$0A@@CryptoPP@@@CryptoPP@@V?$AdditiveCipherTemplate@V?$AbstractPolicyHolder@UAdditiveCipherAbstractPolicy@CryptoPP@@VSymmetricCipher@2@@CryptoPP@@@2@UAdditiveCipherAbstractPolicy@2@@CryptoPP@@U?$PanamaCipherInfo@U?$EnumToType@W4ByteOrder@CryptoPP@@$0A@@CryptoPP@@@2@@CryptoPP@@6BSimpleKeyingInterface@1@@ ; CryptoPP::SymmetricCipherFinal<CryptoPP::ConcretePolicyHolder<CryptoPP::PanamaCipherPolicy<CryptoPP::EnumToType<enum CryptoPP::ByteOrder,0> >,CryptoPP::AdditiveCipherTemplate<CryptoPP::AbstractPolicyHolder<CryptoPP::AdditiveCipherAbstractPolicy,CryptoPP::SymmetricCipher> >,CryptoPP::AdditiveCipherAbstractPolicy>,CryptoPP::PanamaCipherInfo<CryptoPP::EnumToType<enum CryptoPP::ByteOrder,0> > >::`RTTI Complete Object Locator'
PUBLIC	??_R0?AV?$SymmetricCipherFinal@V?$ConcretePolicyHolder@V?$PanamaCipherPolicy@U?$EnumToType@W4ByteOrder@CryptoPP@@$0A@@CryptoPP@@@CryptoPP@@V?$AdditiveCipherTemplate@V?$AbstractPolicyHolder@UAdditiveCipherAbstractPolicy@CryptoPP@@VSymmetricCipher@2@@CryptoPP@@@2@UAdditiveCipherAbstractPolicy@2@@CryptoPP@@U?$PanamaCipherInfo@U?$EnumToType@W4ByteOrder@CryptoPP@@$0A@@CryptoPP@@@2@@CryptoPP@@@8 ; CryptoPP::SymmetricCipherFinal<CryptoPP::ConcretePolicyHolder<CryptoPP::PanamaCipherPolicy<CryptoPP::EnumToType<enum CryptoPP::ByteOrder,0> >,CryptoPP::AdditiveCipherTemplate<CryptoPP::AbstractPolicyHolder<CryptoPP::AdditiveCipherAbstractPolicy,CryptoPP::SymmetricCipher> >,CryptoPP::AdditiveCipherAbstractPolicy>,CryptoPP::PanamaCipherInfo<CryptoPP::EnumToType<enum CryptoPP::ByteOrder,0> > > `RTTI Type Descriptor'
PUBLIC	??_R3?$SymmetricCipherFinal@V?$ConcretePolicyHolder@V?$PanamaCipherPolicy@U?$EnumToType@W4ByteOrder@CryptoPP@@$0A@@CryptoPP@@@CryptoPP@@V?$AdditiveCipherTemplate@V?$AbstractPolicyHolder@UAdditiveCipherAbstractPolicy@CryptoPP@@VSymmetricCipher@2@@CryptoPP@@@2@UAdditiveCipherAbstractPolicy@2@@CryptoPP@@U?$PanamaCipherInfo@U?$EnumToType@W4ByteOrder@CryptoPP@@$0A@@CryptoPP@@@2@@CryptoPP@@8 ; CryptoPP::SymmetricCipherFinal<CryptoPP::ConcretePolicyHolder<CryptoPP::PanamaCipherPolicy<CryptoPP::EnumToType<enum CryptoPP::ByteOrder,0> >,CryptoPP::AdditiveCipherTemplate<CryptoPP::AbstractPolicyHolder<CryptoPP::AdditiveCipherAbstractPolicy,CryptoPP::SymmetricCipher> >,CryptoPP::AdditiveCipherAbstractPolicy>,CryptoPP::PanamaCipherInfo<CryptoPP::EnumToType<enum CryptoPP::ByteOrder,0> > >::`RTTI Class Hierarchy Descriptor'
PUBLIC	??_R2?$SymmetricCipherFinal@V?$ConcretePolicyHolder@V?$PanamaCipherPolicy@U?$EnumToType@W4ByteOrder@CryptoPP@@$0A@@CryptoPP@@@CryptoPP@@V?$AdditiveCipherTemplate@V?$AbstractPolicyHolder@UAdditiveCipherAbstractPolicy@CryptoPP@@VSymmetricCipher@2@@CryptoPP@@@2@UAdditiveCipherAbstractPolicy@2@@CryptoPP@@U?$PanamaCipherInfo@U?$EnumToType@W4ByteOrder@CryptoPP@@$0A@@CryptoPP@@@2@@CryptoPP@@8 ; CryptoPP::SymmetricCipherFinal<CryptoPP::ConcretePolicyHolder<CryptoPP::PanamaCipherPolicy<CryptoPP::EnumToType<enum CryptoPP::ByteOrder,0> >,CryptoPP::AdditiveCipherTemplate<CryptoPP::AbstractPolicyHolder<CryptoPP::AdditiveCipherAbstractPolicy,CryptoPP::SymmetricCipher> >,CryptoPP::AdditiveCipherAbstractPolicy>,CryptoPP::PanamaCipherInfo<CryptoPP::EnumToType<enum CryptoPP::ByteOrder,0> > >::`RTTI Base Class Array'
PUBLIC	??_R1A@?0A@EA@?$SymmetricCipherFinal@V?$ConcretePolicyHolder@V?$PanamaCipherPolicy@U?$EnumToType@W4ByteOrder@CryptoPP@@$0A@@CryptoPP@@@CryptoPP@@V?$AdditiveCipherTemplate@V?$AbstractPolicyHolder@UAdditiveCipherAbstractPolicy@CryptoPP@@VSymmetricCipher@2@@CryptoPP@@@2@UAdditiveCipherAbstractPolicy@2@@CryptoPP@@U?$PanamaCipherInfo@U?$EnumToType@W4ByteOrder@CryptoPP@@$0A@@CryptoPP@@@2@@CryptoPP@@8 ; CryptoPP::SymmetricCipherFinal<CryptoPP::ConcretePolicyHolder<CryptoPP::PanamaCipherPolicy<CryptoPP::EnumToType<enum CryptoPP::ByteOrder,0> >,CryptoPP::AdditiveCipherTemplate<CryptoPP::AbstractPolicyHolder<CryptoPP::AdditiveCipherAbstractPolicy,CryptoPP::SymmetricCipher> >,CryptoPP::AdditiveCipherAbstractPolicy>,CryptoPP::PanamaCipherInfo<CryptoPP::EnumToType<enum CryptoPP::ByteOrder,0> > >::`RTTI Base Class Descriptor at (0,-1,0,64)'
PUBLIC	??_R1A@?0A@EA@?$AlgorithmImpl@V?$SimpleKeyingInterfaceImpl@V?$ConcretePolicyHolder@V?$PanamaCipherPolicy@U?$EnumToType@W4ByteOrder@CryptoPP@@$0A@@CryptoPP@@@CryptoPP@@V?$AdditiveCipherTemplate@V?$AbstractPolicyHolder@UAdditiveCipherAbstractPolicy@CryptoPP@@VSymmetricCipher@2@@CryptoPP@@@2@UAdditiveCipherAbstractPolicy@2@@CryptoPP@@U?$PanamaCipherInfo@U?$EnumToType@W4ByteOrder@CryptoPP@@$0A@@CryptoPP@@@2@@CryptoPP@@U?$PanamaCipherInfo@U?$EnumToType@W4ByteOrder@CryptoPP@@$0A@@CryptoPP@@@2@@CryptoPP@@8 ; CryptoPP::AlgorithmImpl<CryptoPP::SimpleKeyingInterfaceImpl<CryptoPP::ConcretePolicyHolder<CryptoPP::PanamaCipherPolicy<CryptoPP::EnumToType<enum CryptoPP::ByteOrder,0> >,CryptoPP::AdditiveCipherTemplate<CryptoPP::AbstractPolicyHolder<CryptoPP::AdditiveCipherAbstractPolicy,CryptoPP::SymmetricCipher> >,CryptoPP::AdditiveCipherAbstractPolicy>,CryptoPP::PanamaCipherInfo<CryptoPP::EnumToType<enum CryptoPP::ByteOrder,0> > >,CryptoPP::PanamaCipherInfo<CryptoPP::EnumToType<enum CryptoPP::ByteOrder,0> > >::`RTTI Base Class Descriptor at (0,-1,0,64)'
PUBLIC	??_R0?AV?$AlgorithmImpl@V?$SimpleKeyingInterfaceImpl@V?$ConcretePolicyHolder@V?$PanamaCipherPolicy@U?$EnumToType@W4ByteOrder@CryptoPP@@$0A@@CryptoPP@@@CryptoPP@@V?$AdditiveCipherTemplate@V?$AbstractPolicyHolder@UAdditiveCipherAbstractPolicy@CryptoPP@@VSymmetricCipher@2@@CryptoPP@@@2@UAdditiveCipherAbstractPolicy@2@@CryptoPP@@U?$PanamaCipherInfo@U?$EnumToType@W4ByteOrder@CryptoPP@@$0A@@CryptoPP@@@2@@CryptoPP@@U?$PanamaCipherInfo@U?$EnumToType@W4ByteOrder@CryptoPP@@$0A@@CryptoPP@@@2@@CryptoPP@@@8 ; CryptoPP::AlgorithmImpl<CryptoPP::SimpleKeyingInterfaceImpl<CryptoPP::ConcretePolicyHolder<CryptoPP::PanamaCipherPolicy<CryptoPP::EnumToType<enum CryptoPP::ByteOrder,0> >,CryptoPP::AdditiveCipherTemplate<CryptoPP::AbstractPolicyHolder<CryptoPP::AdditiveCipherAbstractPolicy,CryptoPP::SymmetricCipher> >,CryptoPP::AdditiveCipherAbstractPolicy>,CryptoPP::PanamaCipherInfo<CryptoPP::EnumToType<enum CryptoPP::ByteOrder,0> > >,CryptoPP::PanamaCipherInfo<CryptoPP::EnumToType<enum CryptoPP::ByteOrder,0> > > `RTTI Type Descriptor'
PUBLIC	??_R3?$AlgorithmImpl@V?$SimpleKeyingInterfaceImpl@V?$ConcretePolicyHolder@V?$PanamaCipherPolicy@U?$EnumToType@W4ByteOrder@CryptoPP@@$0A@@CryptoPP@@@CryptoPP@@V?$AdditiveCipherTemplate@V?$AbstractPolicyHolder@UAdditiveCipherAbstractPolicy@CryptoPP@@VSymmetricCipher@2@@CryptoPP@@@2@UAdditiveCipherAbstractPolicy@2@@CryptoPP@@U?$PanamaCipherInfo@U?$EnumToType@W4ByteOrder@CryptoPP@@$0A@@CryptoPP@@@2@@CryptoPP@@U?$PanamaCipherInfo@U?$EnumToType@W4ByteOrder@CryptoPP@@$0A@@CryptoPP@@@2@@CryptoPP@@8 ; CryptoPP::AlgorithmImpl<CryptoPP::SimpleKeyingInterfaceImpl<CryptoPP::ConcretePolicyHolder<CryptoPP::PanamaCipherPolicy<CryptoPP::EnumToType<enum CryptoPP::ByteOrder,0> >,CryptoPP::AdditiveCipherTemplate<CryptoPP::AbstractPolicyHolder<CryptoPP::AdditiveCipherAbstractPolicy,CryptoPP::SymmetricCipher> >,CryptoPP::AdditiveCipherAbstractPolicy>,CryptoPP::PanamaCipherInfo<CryptoPP::EnumToType<enum CryptoPP::ByteOrder,0> > >,CryptoPP::PanamaCipherInfo<CryptoPP::EnumToType<enum CryptoPP::ByteOrder,0> > >::`RTTI Class Hierarchy Descriptor'
PUBLIC	??_R2?$AlgorithmImpl@V?$SimpleKeyingInterfaceImpl@V?$ConcretePolicyHolder@V?$PanamaCipherPolicy@U?$EnumToType@W4ByteOrder@CryptoPP@@$0A@@CryptoPP@@@CryptoPP@@V?$AdditiveCipherTemplate@V?$AbstractPolicyHolder@UAdditiveCipherAbstractPolicy@CryptoPP@@VSymmetricCipher@2@@CryptoPP@@@2@UAdditiveCipherAbstractPolicy@2@@CryptoPP@@U?$PanamaCipherInfo@U?$EnumToType@W4ByteOrder@CryptoPP@@$0A@@CryptoPP@@@2@@CryptoPP@@U?$PanamaCipherInfo@U?$EnumToType@W4ByteOrder@CryptoPP@@$0A@@CryptoPP@@@2@@CryptoPP@@8 ; CryptoPP::AlgorithmImpl<CryptoPP::SimpleKeyingInterfaceImpl<CryptoPP::ConcretePolicyHolder<CryptoPP::PanamaCipherPolicy<CryptoPP::EnumToType<enum CryptoPP::ByteOrder,0> >,CryptoPP::AdditiveCipherTemplate<CryptoPP::AbstractPolicyHolder<CryptoPP::AdditiveCipherAbstractPolicy,CryptoPP::SymmetricCipher> >,CryptoPP::AdditiveCipherAbstractPolicy>,CryptoPP::PanamaCipherInfo<CryptoPP::EnumToType<enum CryptoPP::ByteOrder,0> > >,CryptoPP::PanamaCipherInfo<CryptoPP::EnumToType<enum CryptoPP::ByteOrder,0> > >::`RTTI Base Class Array'
PUBLIC	??_R1A@?0A@EA@?$SimpleKeyingInterfaceImpl@V?$ConcretePolicyHolder@V?$PanamaCipherPolicy@U?$EnumToType@W4ByteOrder@CryptoPP@@$0A@@CryptoPP@@@CryptoPP@@V?$AdditiveCipherTemplate@V?$AbstractPolicyHolder@UAdditiveCipherAbstractPolicy@CryptoPP@@VSymmetricCipher@2@@CryptoPP@@@2@UAdditiveCipherAbstractPolicy@2@@CryptoPP@@U?$PanamaCipherInfo@U?$EnumToType@W4ByteOrder@CryptoPP@@$0A@@CryptoPP@@@2@@CryptoPP@@8 ; CryptoPP::SimpleKeyingInterfaceImpl<CryptoPP::ConcretePolicyHolder<CryptoPP::PanamaCipherPolicy<CryptoPP::EnumToType<enum CryptoPP::ByteOrder,0> >,CryptoPP::AdditiveCipherTemplate<CryptoPP::AbstractPolicyHolder<CryptoPP::AdditiveCipherAbstractPolicy,CryptoPP::SymmetricCipher> >,CryptoPP::AdditiveCipherAbstractPolicy>,CryptoPP::PanamaCipherInfo<CryptoPP::EnumToType<enum CryptoPP::ByteOrder,0> > >::`RTTI Base Class Descriptor at (0,-1,0,64)'
PUBLIC	??_R0?AV?$SimpleKeyingInterfaceImpl@V?$ConcretePolicyHolder@V?$PanamaCipherPolicy@U?$EnumToType@W4ByteOrder@CryptoPP@@$0A@@CryptoPP@@@CryptoPP@@V?$AdditiveCipherTemplate@V?$AbstractPolicyHolder@UAdditiveCipherAbstractPolicy@CryptoPP@@VSymmetricCipher@2@@CryptoPP@@@2@UAdditiveCipherAbstractPolicy@2@@CryptoPP@@U?$PanamaCipherInfo@U?$EnumToType@W4ByteOrder@CryptoPP@@$0A@@CryptoPP@@@2@@CryptoPP@@@8 ; CryptoPP::SimpleKeyingInterfaceImpl<CryptoPP::ConcretePolicyHolder<CryptoPP::PanamaCipherPolicy<CryptoPP::EnumToType<enum CryptoPP::ByteOrder,0> >,CryptoPP::AdditiveCipherTemplate<CryptoPP::AbstractPolicyHolder<CryptoPP::AdditiveCipherAbstractPolicy,CryptoPP::SymmetricCipher> >,CryptoPP::AdditiveCipherAbstractPolicy>,CryptoPP::PanamaCipherInfo<CryptoPP::EnumToType<enum CryptoPP::ByteOrder,0> > > `RTTI Type Descriptor'
PUBLIC	??_R3?$SimpleKeyingInterfaceImpl@V?$ConcretePolicyHolder@V?$PanamaCipherPolicy@U?$EnumToType@W4ByteOrder@CryptoPP@@$0A@@CryptoPP@@@CryptoPP@@V?$AdditiveCipherTemplate@V?$AbstractPolicyHolder@UAdditiveCipherAbstractPolicy@CryptoPP@@VSymmetricCipher@2@@CryptoPP@@@2@UAdditiveCipherAbstractPolicy@2@@CryptoPP@@U?$PanamaCipherInfo@U?$EnumToType@W4ByteOrder@CryptoPP@@$0A@@CryptoPP@@@2@@CryptoPP@@8 ; CryptoPP::SimpleKeyingInterfaceImpl<CryptoPP::ConcretePolicyHolder<CryptoPP::PanamaCipherPolicy<CryptoPP::EnumToType<enum CryptoPP::ByteOrder,0> >,CryptoPP::AdditiveCipherTemplate<CryptoPP::AbstractPolicyHolder<CryptoPP::AdditiveCipherAbstractPolicy,CryptoPP::SymmetricCipher> >,CryptoPP::AdditiveCipherAbstractPolicy>,CryptoPP::PanamaCipherInfo<CryptoPP::EnumToType<enum CryptoPP::ByteOrder,0> > >::`RTTI Class Hierarchy Descriptor'
PUBLIC	??_R2?$SimpleKeyingInterfaceImpl@V?$ConcretePolicyHolder@V?$PanamaCipherPolicy@U?$EnumToType@W4ByteOrder@CryptoPP@@$0A@@CryptoPP@@@CryptoPP@@V?$AdditiveCipherTemplate@V?$AbstractPolicyHolder@UAdditiveCipherAbstractPolicy@CryptoPP@@VSymmetricCipher@2@@CryptoPP@@@2@UAdditiveCipherAbstractPolicy@2@@CryptoPP@@U?$PanamaCipherInfo@U?$EnumToType@W4ByteOrder@CryptoPP@@$0A@@CryptoPP@@@2@@CryptoPP@@8 ; CryptoPP::SimpleKeyingInterfaceImpl<CryptoPP::ConcretePolicyHolder<CryptoPP::PanamaCipherPolicy<CryptoPP::EnumToType<enum CryptoPP::ByteOrder,0> >,CryptoPP::AdditiveCipherTemplate<CryptoPP::AbstractPolicyHolder<CryptoPP::AdditiveCipherAbstractPolicy,CryptoPP::SymmetricCipher> >,CryptoPP::AdditiveCipherAbstractPolicy>,CryptoPP::PanamaCipherInfo<CryptoPP::EnumToType<enum CryptoPP::ByteOrder,0> > >::`RTTI Base Class Array'
PUBLIC	??_R4?$SymmetricCipherFinal@V?$ConcretePolicyHolder@V?$PanamaCipherPolicy@U?$EnumToType@W4ByteOrder@CryptoPP@@$0A@@CryptoPP@@@CryptoPP@@V?$AdditiveCipherTemplate@V?$AbstractPolicyHolder@UAdditiveCipherAbstractPolicy@CryptoPP@@VSymmetricCipher@2@@CryptoPP@@@2@UAdditiveCipherAbstractPolicy@2@@CryptoPP@@U?$PanamaCipherInfo@U?$EnumToType@W4ByteOrder@CryptoPP@@$0A@@CryptoPP@@@2@@CryptoPP@@6BStreamTransformation@1@@ ; CryptoPP::SymmetricCipherFinal<CryptoPP::ConcretePolicyHolder<CryptoPP::PanamaCipherPolicy<CryptoPP::EnumToType<enum CryptoPP::ByteOrder,0> >,CryptoPP::AdditiveCipherTemplate<CryptoPP::AbstractPolicyHolder<CryptoPP::AdditiveCipherAbstractPolicy,CryptoPP::SymmetricCipher> >,CryptoPP::AdditiveCipherAbstractPolicy>,CryptoPP::PanamaCipherInfo<CryptoPP::EnumToType<enum CryptoPP::ByteOrder,0> > >::`RTTI Complete Object Locator'
PUBLIC	??_R4?$SymmetricCipherFinal@V?$ConcretePolicyHolder@V?$PanamaCipherPolicy@U?$EnumToType@W4ByteOrder@CryptoPP@@$0A@@CryptoPP@@@CryptoPP@@V?$AdditiveCipherTemplate@V?$AbstractPolicyHolder@UAdditiveCipherAbstractPolicy@CryptoPP@@VSymmetricCipher@2@@CryptoPP@@@2@UAdditiveCipherAbstractPolicy@2@@CryptoPP@@U?$PanamaCipherInfo@U?$EnumToType@W4ByteOrder@CryptoPP@@$0A@@CryptoPP@@@2@@CryptoPP@@6B@ ; CryptoPP::SymmetricCipherFinal<CryptoPP::ConcretePolicyHolder<CryptoPP::PanamaCipherPolicy<CryptoPP::EnumToType<enum CryptoPP::ByteOrder,0> >,CryptoPP::AdditiveCipherTemplate<CryptoPP::AbstractPolicyHolder<CryptoPP::AdditiveCipherAbstractPolicy,CryptoPP::SymmetricCipher> >,CryptoPP::AdditiveCipherAbstractPolicy>,CryptoPP::PanamaCipherInfo<CryptoPP::EnumToType<enum CryptoPP::ByteOrder,0> > >::`RTTI Complete Object Locator'
PUBLIC	??_R4?$SymmetricCipherFinal@V?$ConcretePolicyHolder@V?$PanamaCipherPolicy@U?$EnumToType@W4ByteOrder@CryptoPP@@$0A@@CryptoPP@@@CryptoPP@@V?$AdditiveCipherTemplate@V?$AbstractPolicyHolder@UAdditiveCipherAbstractPolicy@CryptoPP@@VSymmetricCipher@2@@CryptoPP@@@2@UAdditiveCipherAbstractPolicy@2@@CryptoPP@@U?$PanamaCipherInfo@U?$EnumToType@W4ByteOrder@CryptoPP@@$0A@@CryptoPP@@@2@@CryptoPP@@6B?$AdditiveCipherConcretePolicy@I$07$00UAdditiveCipherAbstractPolicy@CryptoPP@@@1@@ ; CryptoPP::SymmetricCipherFinal<CryptoPP::ConcretePolicyHolder<CryptoPP::PanamaCipherPolicy<CryptoPP::EnumToType<enum CryptoPP::ByteOrder,0> >,CryptoPP::AdditiveCipherTemplate<CryptoPP::AbstractPolicyHolder<CryptoPP::AdditiveCipherAbstractPolicy,CryptoPP::SymmetricCipher> >,CryptoPP::AdditiveCipherAbstractPolicy>,CryptoPP::PanamaCipherInfo<CryptoPP::EnumToType<enum CryptoPP::ByteOrder,0> > >::`RTTI Complete Object Locator'
PUBLIC	??_R4?$SymmetricCipherFinal@V?$ConcretePolicyHolder@V?$PanamaCipherPolicy@U?$EnumToType@W4ByteOrder@CryptoPP@@$0A@@CryptoPP@@@CryptoPP@@V?$AdditiveCipherTemplate@V?$AbstractPolicyHolder@UAdditiveCipherAbstractPolicy@CryptoPP@@VSymmetricCipher@2@@CryptoPP@@@2@UAdditiveCipherAbstractPolicy@2@@CryptoPP@@U?$PanamaCipherInfo@U?$EnumToType@W4ByteOrder@CryptoPP@@$0A@@CryptoPP@@@2@@CryptoPP@@6B?$Panama@U?$EnumToType@W4ByteOrder@CryptoPP@@$0A@@CryptoPP@@@1@@ ; CryptoPP::SymmetricCipherFinal<CryptoPP::ConcretePolicyHolder<CryptoPP::PanamaCipherPolicy<CryptoPP::EnumToType<enum CryptoPP::ByteOrder,0> >,CryptoPP::AdditiveCipherTemplate<CryptoPP::AbstractPolicyHolder<CryptoPP::AdditiveCipherAbstractPolicy,CryptoPP::SymmetricCipher> >,CryptoPP::AdditiveCipherAbstractPolicy>,CryptoPP::PanamaCipherInfo<CryptoPP::EnumToType<enum CryptoPP::ByteOrder,0> > >::`RTTI Complete Object Locator'
PUBLIC	__real@3ff0000000000000
PUBLIC	__real@41efffffffe00000
PUBLIC	__xmm@41f00000000000000000000000000000
EXTRN	??_L@YGXPAXIIP6EX0@Z1@Z:PROC			; `eh vector constructor iterator'
EXTRN	??_M@YGXPAXIIP6EX0@Z@Z:PROC			; `eh vector destructor iterator'
EXTRN	__purecall:PROC
EXTRN	??2@YAPAXI@Z:PROC				; operator new
EXTRN	??3@YAXPAXI@Z:PROC				; operator delete
EXTRN	??_U@YAPAXI@Z:PROC				; operator new[]
EXTRN	??_V@YAXPAX@Z:PROC				; operator delete[]
EXTRN	_atexit:PROC
EXTRN	___report_rangecheckfailure:PROC
EXTRN	__Init_thread_header:PROC
EXTRN	__Init_thread_abort:PROC
EXTRN	__Init_thread_footer:PROC
EXTRN	___std_terminate:PROC
EXTRN	__invalid_parameter_noinfo:PROC
EXTRN	__invalid_parameter_noinfo_noreturn:PROC
EXTRN	_tolower:PROC
EXTRN	__errno:PROC
EXTRN	_strchr:PROC
EXTRN	_strncpy:PROC
EXTRN	__imp__CreateDirectoryA@8:PROC
EXTRN	__imp__DeleteFileA@4:PROC
EXTRN	___acrt_iob_func:PROC
EXTRN	_fgetwc:PROC
EXTRN	_fputwc:PROC
EXTRN	_ungetwc:PROC
EXTRN	_fclose:PROC
EXTRN	_fflush:PROC
EXTRN	_fgetc:PROC
EXTRN	_fgetpos:PROC
EXTRN	_fopen:PROC
EXTRN	_fsetpos:PROC
EXTRN	__fseeki64:PROC
EXTRN	_fwrite:PROC
EXTRN	_setvbuf:PROC
EXTRN	_ungetc:PROC
EXTRN	__lock_file:PROC
EXTRN	__unlock_file:PROC
EXTRN	___stdio_common_vfprintf:PROC
EXTRN	___stdio_common_vsprintf:PROC
EXTRN	??0_Lockit@std@@QAE@H@Z:PROC			; std::_Lockit::_Lockit
EXTRN	??1_Lockit@std@@QAE@XZ:PROC			; std::_Lockit::~_Lockit
EXTRN	_calloc:PROC
EXTRN	_free:PROC
EXTRN	_exit:PROC
EXTRN	?uncaught_exception@std@@YA_NXZ:PROC		; std::uncaught_exception
EXTRN	?uncaught_exceptions@std@@YAHXZ:PROC		; std::uncaught_exceptions
EXTRN	___std_exception_copy:PROC
EXTRN	___std_exception_destroy:PROC
EXTRN	??_Eexception@std@@UAEPAXI@Z:PROC		; std::exception::`vector deleting destructor'
EXTRN	??_Ebad_alloc@std@@UAEPAXI@Z:PROC		; std::bad_alloc::`vector deleting destructor'
EXTRN	??_Ebad_array_new_length@std@@UAEPAXI@Z:PROC	; std::bad_array_new_length::`vector deleting destructor'
EXTRN	?_Xlength_error@std@@YAXPBD@Z:PROC		; std::_Xlength_error
EXTRN	?_Xout_of_range@std@@YAXPBD@Z:PROC		; std::_Xout_of_range
EXTRN	?_Xruntime_error@std@@YAXPBD@Z:PROC		; std::_Xruntime_error
EXTRN	___std_type_info_compare:PROC
EXTRN	___std_type_info_name:PROC
EXTRN	??_Ebad_cast@std@@UAEPAXI@Z:PROC		; std::bad_cast::`vector deleting destructor'
EXTRN	??_Eruntime_error@std@@UAEPAXI@Z:PROC		; std::runtime_error::`vector deleting destructor'
EXTRN	??_E_System_error@std@@UAEPAXI@Z:PROC		; std::_System_error::`vector deleting destructor'
EXTRN	??_Esystem_error@std@@UAEPAXI@Z:PROC		; std::system_error::`vector deleting destructor'
EXTRN	?_Syserror_map@std@@YAPBDH@Z:PROC		; std::_Syserror_map
EXTRN	??_E_Iostream_error_category2@std@@UAEPAXI@Z:PROC ; std::_Iostream_error_category2::`vector deleting destructor'
EXTRN	??0CLZObject@@QAE@XZ:PROC			; CLZObject::CLZObject
EXTRN	??1CLZObject@@QAE@XZ:PROC			; CLZObject::~CLZObject
EXTRN	?Clear@CLZObject@@QAEXXZ:PROC			; CLZObject::Clear
EXTRN	?GetSize@CLZObject@@QAEKXZ:PROC			; CLZObject::GetSize
EXTRN	?AllocBuffer@CLZObject@@QAEXK@Z:PROC		; CLZObject::AllocBuffer
EXTRN	?CompressMemory@CLZO@@QAE_NAAVCLZObject@@PBXI@Z:PROC ; CLZO::CompressMemory
EXTRN	?CompressEncryptedMemory@CLZO@@QAE_NAAVCLZObject@@PBXIPAK@Z:PROC ; CLZO::CompressEncryptedMemory
EXTRN	?Decompress@CLZO@@QAE_NAAVCLZObject@@PBEPAK@Z:PROC ; CLZO::Decompress
EXTRN	??0CFileBase@@QAE@XZ:PROC			; CFileBase::CFileBase
EXTRN	??1CFileBase@@UAE@XZ:PROC			; CFileBase::~CFileBase
EXTRN	?Destroy@CFileBase@@QAEXXZ:PROC			; CFileBase::Destroy
EXTRN	?Close@CFileBase@@QAEXXZ:PROC			; CFileBase::Close
EXTRN	?Create@CFileBase@@QAEHPBDW4EFileMode@1@@Z:PROC	; CFileBase::Create
EXTRN	?Size@CFileBase@@QAEKXZ:PROC			; CFileBase::Size
EXTRN	?Seek@CFileBase@@QAEXK@Z:PROC			; CFileBase::Seek
EXTRN	?Write@CFileBase@@UAEHPBXH@Z:PROC		; CFileBase::Write
EXTRN	?Read@CFileBase@@QAEHPAXH@Z:PROC		; CFileBase::Read
EXTRN	??0CMappedFile@@QAE@XZ:PROC			; CMappedFile::CMappedFile
EXTRN	??1CMappedFile@@UAE@XZ:PROC			; CMappedFile::~CMappedFile
EXTRN	?Create@CMappedFile@@QAEHPBDPAPBXHH@Z:PROC	; CMappedFile::Create
EXTRN	?Destroy@CMappedFile@@QAEXXZ:PROC		; CMappedFile::Destroy
EXTRN	?Size@CMappedFile@@QAEKXZ:PROC			; CMappedFile::Size
EXTRN	?BindLZObject@CMappedFile@@QAEXPAVCLZObject@@@Z:PROC ; CMappedFile::BindLZObject
EXTRN	?BindLZObjectWithBufferedSize@CMappedFile@@QAEXPAVCLZObject@@@Z:PROC ; CMappedFile::BindLZObjectWithBufferedSize
EXTRN	?AppendDataBlock@CMappedFile@@QAEPAEPBXK@Z:PROC	; CMappedFile::AppendDataBlock
EXTRN	??_ECEterPack@@UAEPAXI@Z:PROC			; CEterPack::`vector deleting destructor'
EXTRN	??_EException@CryptoPP@@UAEPAXI@Z:PROC		; CryptoPP::Exception::`vector deleting destructor'
EXTRN	??_EInvalidArgument@CryptoPP@@UAEPAXI@Z:PROC	; CryptoPP::InvalidArgument::`vector deleting destructor'
EXTRN	??_ENotImplemented@CryptoPP@@UAEPAXI@Z:PROC	; CryptoPP::NotImplemented::`vector deleting destructor'
EXTRN	??_EValueTypeMismatch@NameValuePairs@CryptoPP@@UAEPAXI@Z:PROC ; CryptoPP::NameValuePairs::ValueTypeMismatch::`vector deleting destructor'
EXTRN	??_ENameValuePairs@CryptoPP@@UAEPAXI@Z:PROC	; CryptoPP::NameValuePairs::`vector deleting destructor'
EXTRN	??0Algorithm@CryptoPP@@QAE@_N@Z:PROC		; CryptoPP::Algorithm::Algorithm
EXTRN	?SetKey@SimpleKeyingInterface@CryptoPP@@UAEXPBEIABVNameValuePairs@2@@Z:PROC ; CryptoPP::SimpleKeyingInterface::SetKey
EXTRN	?SetKeyWithIV@SimpleKeyingInterface@CryptoPP@@QAEXPBEI0I@Z:PROC ; CryptoPP::SimpleKeyingInterface::SetKeyWithIV
EXTRN	?GetNextIV@SimpleKeyingInterface@CryptoPP@@UAEXAAVRandomNumberGenerator@2@PAE@Z:PROC ; CryptoPP::SimpleKeyingInterface::GetNextIV
EXTRN	?ProcessLastBlock@StreamTransformation@CryptoPP@@UAEIPAEIPBEI@Z:PROC ; CryptoPP::StreamTransformation::ProcessLastBlock
EXTRN	?TruncatedVerify@HashTransformation@CryptoPP@@UAE_NPBEI@Z:PROC ; CryptoPP::HashTransformation::TruncatedVerify
EXTRN	?GenerateByte@RandomNumberGenerator@CryptoPP@@UAEEXZ:PROC ; CryptoPP::RandomNumberGenerator::GenerateByte
EXTRN	?GenerateBit@RandomNumberGenerator@CryptoPP@@UAEIXZ:PROC ; CryptoPP::RandomNumberGenerator::GenerateBit
EXTRN	?GenerateWord32@RandomNumberGenerator@CryptoPP@@UAEIII@Z:PROC ; CryptoPP::RandomNumberGenerator::GenerateWord32
EXTRN	?GenerateIntoBufferedTransformation@RandomNumberGenerator@CryptoPP@@UAEXAAVBufferedTransformation@2@ABV?$basic_string@DU?$char_traits@D@std@@V?$allocator@D@2@@std@@_K@Z:PROC ; CryptoPP::RandomNumberGenerator::GenerateIntoBufferedTransformation
EXTRN	?DiscardBytes@RandomNumberGenerator@CryptoPP@@UAEXI@Z:PROC ; CryptoPP::RandomNumberGenerator::DiscardBytes
EXTRN	?GetMaxWaitObjectCount@BufferedTransformation@CryptoPP@@UBEIXZ:PROC ; CryptoPP::BufferedTransformation::GetMaxWaitObjectCount
EXTRN	?GetWaitObjects@BufferedTransformation@CryptoPP@@UAEXAAVWaitObjectContainer@2@ABVCallStack@2@@Z:PROC ; CryptoPP::BufferedTransformation::GetWaitObjects
EXTRN	?Initialize@BufferedTransformation@CryptoPP@@UAEXABVNameValuePairs@2@H@Z:PROC ; CryptoPP::BufferedTransformation::Initialize
EXTRN	?Flush@BufferedTransformation@CryptoPP@@UAE_N_NH0@Z:PROC ; CryptoPP::BufferedTransformation::Flush
EXTRN	?MessageSeriesEnd@BufferedTransformation@CryptoPP@@UAE_NH_N@Z:PROC ; CryptoPP::BufferedTransformation::MessageSeriesEnd
EXTRN	?MaxRetrievable@BufferedTransformation@CryptoPP@@UBE_KXZ:PROC ; CryptoPP::BufferedTransformation::MaxRetrievable
EXTRN	?AnyRetrievable@BufferedTransformation@CryptoPP@@UBE_NXZ:PROC ; CryptoPP::BufferedTransformation::AnyRetrievable
EXTRN	?Get@BufferedTransformation@CryptoPP@@UAEIAAE@Z:PROC ; CryptoPP::BufferedTransformation::Get
EXTRN	?Get@BufferedTransformation@CryptoPP@@UAEIPAEI@Z:PROC ; CryptoPP::BufferedTransformation::Get
EXTRN	?Peek@BufferedTransformation@CryptoPP@@UBEIAAE@Z:PROC ; CryptoPP::BufferedTransformation::Peek
EXTRN	?Peek@BufferedTransformation@CryptoPP@@UBEIPAEI@Z:PROC ; CryptoPP::BufferedTransformation::Peek
EXTRN	?Skip@BufferedTransformation@CryptoPP@@UAE_K_K@Z:PROC ; CryptoPP::BufferedTransformation::Skip
EXTRN	?TotalBytesRetrievable@BufferedTransformation@CryptoPP@@UBE_KXZ:PROC ; CryptoPP::BufferedTransformation::TotalBytesRetrievable
EXTRN	?NumberOfMessages@BufferedTransformation@CryptoPP@@UBEIXZ:PROC ; CryptoPP::BufferedTransformation::NumberOfMessages
EXTRN	?AnyMessages@BufferedTransformation@CryptoPP@@UBE_NXZ:PROC ; CryptoPP::BufferedTransformation::AnyMessages
EXTRN	?GetNextMessage@BufferedTransformation@CryptoPP@@UAE_NXZ:PROC ; CryptoPP::BufferedTransformation::GetNextMessage
EXTRN	?SkipMessages@BufferedTransformation@CryptoPP@@UAEII@Z:PROC ; CryptoPP::BufferedTransformation::SkipMessages
EXTRN	?SkipAll@BufferedTransformation@CryptoPP@@UAEXXZ:PROC ; CryptoPP::BufferedTransformation::SkipAll
EXTRN	?TransferMessagesTo2@BufferedTransformation@CryptoPP@@QAEIAAV12@AAIABV?$basic_string@DU?$char_traits@D@std@@V?$allocator@D@2@@std@@_N@Z:PROC ; CryptoPP::BufferedTransformation::TransferMessagesTo2
EXTRN	?TransferAllTo2@BufferedTransformation@CryptoPP@@QAEIAAV12@ABV?$basic_string@DU?$char_traits@D@std@@V?$allocator@D@2@@std@@_N@Z:PROC ; CryptoPP::BufferedTransformation::TransferAllTo2
EXTRN	?ChannelCreatePutSpace@BufferedTransformation@CryptoPP@@UAEPAEABV?$basic_string@DU?$char_traits@D@std@@V?$allocator@D@2@@std@@AAI@Z:PROC ; CryptoPP::BufferedTransformation::ChannelCreatePutSpace
EXTRN	?ChannelPut2@BufferedTransformation@CryptoPP@@UAEIABV?$basic_string@DU?$char_traits@D@std@@V?$allocator@D@2@@std@@PBEIH_N@Z:PROC ; CryptoPP::BufferedTransformation::ChannelPut2
EXTRN	?ChannelPutModifiable2@BufferedTransformation@CryptoPP@@UAEIABV?$basic_string@DU?$char_traits@D@std@@V?$allocator@D@2@@std@@PAEIH_N@Z:PROC ; CryptoPP::BufferedTransformation::ChannelPutModifiable2
EXTRN	?ChannelFlush@BufferedTransformation@CryptoPP@@UAE_NABV?$basic_string@DU?$char_traits@D@std@@V?$allocator@D@2@@std@@_NH1@Z:PROC ; CryptoPP::BufferedTransformation::ChannelFlush
EXTRN	?ChannelMessageSeriesEnd@BufferedTransformation@CryptoPP@@UAE_NABV?$basic_string@DU?$char_traits@D@std@@V?$allocator@D@2@@std@@H_N@Z:PROC ; CryptoPP::BufferedTransformation::ChannelMessageSeriesEnd
EXTRN	?SetRetrievalChannel@BufferedTransformation@CryptoPP@@UAEXABV?$basic_string@DU?$char_traits@D@std@@V?$allocator@D@2@@std@@@Z:PROC ; CryptoPP::BufferedTransformation::SetRetrievalChannel
EXTRN	?Attach@BufferedTransformation@CryptoPP@@UAEXPAV12@@Z:PROC ; CryptoPP::BufferedTransformation::Attach
EXTRN	?AlignedAllocate@CryptoPP@@YAPAXI@Z:PROC	; CryptoPP::AlignedAllocate
EXTRN	?AlignedDeallocate@CryptoPP@@YAXPAX@Z:PROC	; CryptoPP::AlignedDeallocate
EXTRN	?UnalignedAllocate@CryptoPP@@YAPAXI@Z:PROC	; CryptoPP::UnalignedAllocate
EXTRN	?UnalignedDeallocate@CryptoPP@@YAXPAX@Z:PROC	; CryptoPP::UnalignedDeallocate
EXTRN	?GetNextMessage@Store@CryptoPP@@UAE_NXZ:PROC	; CryptoPP::Store::GetNextMessage
EXTRN	??1EterPackPolicy_CSHybridCrypt@@QAE@XZ:PROC	; EterPackPolicy_CSHybridCrypt::~EterPackPolicy_CSHybridCrypt
EXTRN	?GenerateCryptKey@EterPackPolicy_CSHybridCrypt@@QAE_NAAV?$basic_string@DU?$char_traits@D@std@@V?$allocator@D@2@@std@@@Z:PROC ; EterPackPolicy_CSHybridCrypt::GenerateCryptKey
EXTRN	?EncryptMemory@EterPackPolicy_CSHybridCrypt@@QAE_NAAV?$basic_string@DU?$char_traits@D@std@@V?$allocator@D@2@@std@@PBEHAAVCLZObject@@@Z:PROC ; EterPackPolicy_CSHybridCrypt::EncryptMemory
EXTRN	?DecryptMemory@EterPackPolicy_CSHybridCrypt@@QAE_NAAV?$basic_string@DU?$char_traits@D@std@@V?$allocator@D@2@@std@@PBEHAAVCLZObject@@@Z:PROC ; EterPackPolicy_CSHybridCrypt::DecryptMemory
EXTRN	?GenerateSupplementaryDataBlock@EterPackPolicy_CSHybridCrypt@@QAE_NAAV?$basic_string@DU?$char_traits@D@std@@V?$allocator@D@2@@std@@ABV23@PBEHAAPAEAAH@Z:PROC ; EterPackPolicy_CSHybridCrypt::GenerateSupplementaryDataBlock
EXTRN	?GetSupplementaryDataBlock@EterPackPolicy_CSHybridCrypt@@QAE_NAAV?$basic_string@DU?$char_traits@D@std@@V?$allocator@D@2@@std@@AAPAEAAH@Z:PROC ; EterPackPolicy_CSHybridCrypt::GetSupplementaryDataBlock
EXTRN	?AssignIntToInteger@CryptoPP@@YA_NABVtype_info@@PAXPBX@Z:PROC ; CryptoPP::AssignIntToInteger
EXTRN	??_EParameterNotUsed@AlgorithmParametersBase@CryptoPP@@UAEPAXI@Z:PROC ; CryptoPP::AlgorithmParametersBase::ParameterNotUsed::`vector deleting destructor'
EXTRN	??_EAlgorithmParametersBase@CryptoPP@@UAEPAXI@Z:PROC ; CryptoPP::AlgorithmParametersBase::`vector deleting destructor'
EXTRN	??_E?$AlgorithmParametersTemplate@VConstByteArrayParameter@CryptoPP@@@CryptoPP@@UAEPAXI@Z:PROC ; CryptoPP::AlgorithmParametersTemplate<CryptoPP::ConstByteArrayParameter>::`vector deleting destructor'
EXTRN	??0AlgorithmParameters@CryptoPP@@QAE@XZ:PROC	; CryptoPP::AlgorithmParameters::AlgorithmParameters
EXTRN	??0AlgorithmParameters@CryptoPP@@QAE@ABV01@@Z:PROC ; CryptoPP::AlgorithmParameters::AlgorithmParameters
EXTRN	??0Filter@CryptoPP@@QAE@PAVBufferedTransformation@1@@Z:PROC ; CryptoPP::Filter::Filter
EXTRN	?AttachedTransformation@Filter@CryptoPP@@UAEPAVBufferedTransformation@2@XZ:PROC ; CryptoPP::Filter::AttachedTransformation
EXTRN	?AttachedTransformation@Filter@CryptoPP@@UBEPBVBufferedTransformation@2@XZ:PROC ; CryptoPP::Filter::AttachedTransformation
EXTRN	?Detach@Filter@CryptoPP@@UAEXPAVBufferedTransformation@2@@Z:PROC ; CryptoPP::Filter::Detach
EXTRN	?TransferTo2@Filter@CryptoPP@@UAEIAAVBufferedTransformation@2@AA_KABV?$basic_string@DU?$char_traits@D@std@@V?$allocator@D@2@@std@@_N@Z:PROC ; CryptoPP::Filter::TransferTo2
EXTRN	?CopyRangeTo2@Filter@CryptoPP@@UBEIAAVBufferedTransformation@2@AA_K_KABV?$basic_string@DU?$char_traits@D@std@@V?$allocator@D@2@@std@@_N@Z:PROC ; CryptoPP::Filter::CopyRangeTo2
