; Listing generated by Microsoft (R) Optimizing Compiler Version 19.27.29112.0 

	TITLE	C:\DS Project\DS Files\Source\ClientSource\Client\MilesLib\SoundManagerStream.cpp
	.686P
	.XMM
	include listing.inc
	.model	flat

INCLUDELIB LIBCMT
INCLUDELIB OLDNAMES

PUBLIC	??0CSoundManagerStream@@QAE@XZ			; CSoundManagerStream::CSoundManagerStream
PUBLIC	??1CSoundManagerStream@@UAE@XZ			; CSoundManagerStream::~CSoundManagerStream
PUBLIC	?Initialize@CSoundManagerStream@@QAE_NXZ	; CSoundManagerStream::Initialize
PUBLIC	?Destroy@CSoundManagerStream@@QAEXXZ		; CSoundManagerStream::Destroy
PUBLIC	?SetInstance@CSoundManagerStream@@QAE_NKPBD@Z	; CSoundManagerStream::SetInstance
PUBLIC	?GetInstance@CSoundManagerStream@@QAEPAVCSoundInstanceStream@@K@Z ; CSoundManagerStream::GetInstance
PUBLIC	?CheckInstanceIndex@CSoundManagerStream@@IAE_NK@Z ; CSoundManagerStream::CheckInstanceIndex
PUBLIC	??_GCSoundManagerStream@@UAEPAXI@Z		; CSoundManagerStream::`scalar deleting destructor'
PUBLIC	??_7CSoundManagerStream@@6B@			; CSoundManagerStream::`vftable'
PUBLIC	??_R1A@?0A@EA@CSoundBase@@8			; CSoundBase::`RTTI Base Class Descriptor at (0,-1,0,64)'
PUBLIC	??_R0?AVCSoundBase@@@8				; CSoundBase `RTTI Type Descriptor'
PUBLIC	??_R3CSoundBase@@8				; CSoundBase::`RTTI Class Hierarchy Descriptor'
PUBLIC	??_R2CSoundBase@@8				; CSoundBase::`RTTI Base Class Array'
PUBLIC	??_R4CSoundManagerStream@@6B@			; CSoundManagerStream::`RTTI Complete Object Locator'
PUBLIC	??_R0?AVCSoundManagerStream@@@8			; CSoundManagerStream `RTTI Type Descriptor'
PUBLIC	??_R3CSoundManagerStream@@8			; CSoundManagerStream::`RTTI Class Hierarchy Descriptor'
PUBLIC	??_R2CSoundManagerStream@@8			; CSoundManagerStream::`RTTI Base Class Array'
PUBLIC	??_R1A@?0A@EA@CSoundManagerStream@@8		; CSoundManagerStream::`RTTI Base Class Descriptor at (0,-1,0,64)'
EXTRN	??_L@YGXPAXIIP6EX0@Z1@Z:PROC			; `eh vector constructor iterator'
EXTRN	??_M@YGXPAXIIP6EX0@Z@Z:PROC			; `eh vector destructor iterator'
EXTRN	??3@YAXPAXI@Z:PROC				; operator delete
EXTRN	__imp__AIL_open_digital_driver@16:PROC
EXTRN	__imp__AIL_open_stream@12:PROC
EXTRN	??0CSoundBase@@QAE@XZ:PROC			; CSoundBase::CSoundBase
EXTRN	??1CSoundBase@@UAE@XZ:PROC			; CSoundBase::~CSoundBase
EXTRN	?Initialize@CSoundBase@@QAEXXZ:PROC		; CSoundBase::Initialize
EXTRN	?Destroy@CSoundBase@@QAEXXZ:PROC		; CSoundBase::Destroy
EXTRN	??0CSoundInstanceStream@@QAE@XZ:PROC		; CSoundInstanceStream::CSoundInstanceStream
EXTRN	??1CSoundInstanceStream@@UAE@XZ:PROC		; CSoundInstanceStream::~CSoundInstanceStream
EXTRN	?SetStream@CSoundInstanceStream@@QAEXPAU_STREAM@@@Z:PROC ; CSoundInstanceStream::SetStream
EXTRN	??_ECSoundManagerStream@@UAEPAXI@Z:PROC		; CSoundManagerStream::`vector deleting destructor'
EXTRN	@__security_check_cookie@4:PROC
EXTRN	___CxxFrameHandler3:PROC
EXTRN	??_7type_info@@6B@:QWORD			; type_info::`vftable'
EXTRN	?ms_DIGDriver@CSoundBase@@1PAU_DIG_DRIVER@@A:DWORD ; CSoundBase::ms_DIGDriver
EXTRN	___security_cookie:DWORD
;	COMDAT ??_R1A@?0A@EA@CSoundManagerStream@@8
rdata$r	SEGMENT
??_R1A@?0A@EA@CSoundManagerStream@@8 DD FLAT:??_R0?AVCSoundManagerStream@@@8 ; CSoundManagerStream::`RTTI Base Class Descriptor at (0,-1,0,64)'
	DD	01H
	DD	00H
	DD	0ffffffffH
	DD	00H
	DD	040H
	DD	FLAT:??_R3CSoundManagerStream@@8
rdata$r	ENDS
;	COMDAT ??_R2CSoundManagerStream@@8
rdata$r	SEGMENT
??_R2CSoundManagerStream@@8 DD FLAT:??_R1A@?0A@EA@CSoundManagerStream@@8 ; CSoundManagerStream::`RTTI Base Class Array'
	DD	FLAT:??_R1A@?0A@EA@CSoundBase@@8
rdata$r	ENDS
;	COMDAT ??_R3CSoundManagerStream@@8
rdata$r	SEGMENT
??_R3CSoundManagerStream@@8 DD 00H			; CSoundManagerStream::`RTTI Class Hierarchy Descriptor'
	DD	00H
	DD	02H
	DD	FLAT:??_R2CSoundManagerStream@@8
rdata$r	ENDS
;	COMDAT ??_R0?AVCSoundManagerStream@@@8
data$r	SEGMENT
??_R0?AVCSoundManagerStream@@@8 DD FLAT:??_7type_info@@6B@ ; CSoundManagerStream `RTTI Type Descriptor'
	DD	00H
	DB	'.?AVCSoundManagerStream@@', 00H
data$r	ENDS
;	COMDAT ??_R4CSoundManagerStream@@6B@
rdata$r	SEGMENT
??_R4CSoundManagerStream@@6B@ DD 00H			; CSoundManagerStream::`RTTI Complete Object Locator'
	DD	00H
	DD	00H
	DD	FLAT:??_R0?AVCSoundManagerStream@@@8
	DD	FLAT:??_R3CSoundManagerStream@@8
rdata$r	ENDS
;	COMDAT ??_R2CSoundBase@@8
rdata$r	SEGMENT
??_R2CSoundBase@@8 DD FLAT:??_R1A@?0A@EA@CSoundBase@@8	; CSoundBase::`RTTI Base Class Array'
rdata$r	ENDS
;	COMDAT ??_R3CSoundBase@@8
rdata$r	SEGMENT
??_R3CSoundBase@@8 DD 00H				; CSoundBase::`RTTI Class Hierarchy Descriptor'
	DD	00H
	DD	01H
	DD	FLAT:??_R2CSoundBase@@8
rdata$r	ENDS
;	COMDAT ??_R0?AVCSoundBase@@@8
data$r	SEGMENT
??_R0?AVCSoundBase@@@8 DD FLAT:??_7type_info@@6B@	; CSoundBase `RTTI Type Descriptor'
	DD	00H
	DB	'.?AVCSoundBase@@', 00H
data$r	ENDS
;	COMDAT ??_R1A@?0A@EA@CSoundBase@@8
rdata$r	SEGMENT
??_R1A@?0A@EA@CSoundBase@@8 DD FLAT:??_R0?AVCSoundBase@@@8 ; CSoundBase::`RTTI Base Class Descriptor at (0,-1,0,64)'
	DD	00H
	DD	00H
	DD	0ffffffffH
	DD	00H
	DD	040H
	DD	FLAT:??_R3CSoundBase@@8
rdata$r	ENDS
;	COMDAT ??_7CSoundManagerStream@@6B@
CONST	SEGMENT
??_7CSoundManagerStream@@6B@ DD FLAT:??_R4CSoundManagerStream@@6B@ ; CSoundManagerStream::`vftable'
	DD	FLAT:??_ECSoundManagerStream@@UAEPAXI@Z
CONST	ENDS
;	COMDAT xdata$x
xdata$x	SEGMENT
__ehfuncinfo$??1CSoundManagerStream@@UAE@XZ DD 019930522H
	DD	00H
	DD	00H
	DD	2 DUP(00H)
	DD	2 DUP(00H)
	DD	00H
	DD	05H
xdata$x	ENDS
;	COMDAT xdata$x
xdata$x	SEGMENT
__unwindtable$??0CSoundManagerStream@@QAE@XZ DD 0ffffffffH
	DD	FLAT:__unwindfunclet$??0CSoundManagerStream@@QAE@XZ$0
__ehfuncinfo$??0CSoundManagerStream@@QAE@XZ DD 019930522H
	DD	01H
	DD	FLAT:__unwindtable$??0CSoundManagerStream@@QAE@XZ
	DD	2 DUP(00H)
	DD	2 DUP(00H)
	DD	00H
	DD	01H
xdata$x	ENDS
; Function compile flags: /Ogtp
;	COMDAT ??_GCSoundManagerStream@@UAEPAXI@Z
_TEXT	SEGMENT
___flags$ = 8						; size = 4
??_GCSoundManagerStream@@UAEPAXI@Z PROC			; CSoundManagerStream::`scalar deleting destructor', COMDAT
; _this$ = ecx
  00000	55		 push	 ebp
  00001	8b ec		 mov	 ebp, esp
  00003	56		 push	 esi
  00004	8b f1		 mov	 esi, ecx
  00006	e8 00 00 00 00	 call	 ??1CSoundManagerStream@@UAE@XZ ; CSoundManagerStream::~CSoundManagerStream
  0000b	f6 45 08 01	 test	 BYTE PTR ___flags$[ebp], 1
  0000f	74 0b		 je	 SHORT $LN4@scalar
  00011	6a 1c		 push	 28			; 0000001cH
  00013	56		 push	 esi
  00014	e8 00 00 00 00	 call	 ??3@YAXPAXI@Z		; operator delete
  00019	83 c4 08	 add	 esp, 8
$LN4@scalar:
  0001c	8b c6		 mov	 eax, esi
  0001e	5e		 pop	 esi
  0001f	5d		 pop	 ebp
  00020	c2 04 00	 ret	 4
??_GCSoundManagerStream@@UAEPAXI@Z ENDP			; CSoundManagerStream::`scalar deleting destructor'
_TEXT	ENDS
; Function compile flags: /Ogtp
; File C:\DS Project\DS Files\Source\ClientSource\Client\MilesLib\SoundManagerStream.cpp
;	COMDAT ?CheckInstanceIndex@CSoundManagerStream@@IAE_NK@Z
_TEXT	SEGMENT
_dwIndex$ = 8						; size = 4
?CheckInstanceIndex@CSoundManagerStream@@IAE_NK@Z PROC	; CSoundManagerStream::CheckInstanceIndex, COMDAT
; _this$ = ecx

; 59   : {

  00000	55		 push	 ebp
  00001	8b ec		 mov	 ebp, esp

; 60   : 	if (dwIndex >= DWORD(MUSIC_INSTANCE_MAX_NUM))

  00003	83 7d 08 03	 cmp	 DWORD PTR _dwIndex$[ebp], 3
  00007	0f 92 c0	 setb	 al

; 61   : 		return false;
; 62   : 
; 63   : 	return true;
; 64   : }

  0000a	5d		 pop	 ebp
  0000b	c2 04 00	 ret	 4
?CheckInstanceIndex@CSoundManagerStream@@IAE_NK@Z ENDP	; CSoundManagerStream::CheckInstanceIndex
_TEXT	ENDS
; Function compile flags: /Ogtp
; File C:\DS Project\DS Files\Source\ClientSource\Client\MilesLib\SoundManagerStream.cpp
;	COMDAT ?GetInstance@CSoundManagerStream@@QAEPAVCSoundInstanceStream@@K@Z
_TEXT	SEGMENT
_dwIndex$ = 8						; size = 4
?GetInstance@CSoundManagerStream@@QAEPAVCSoundInstanceStream@@K@Z PROC ; CSoundManagerStream::GetInstance, COMDAT
; _this$ = ecx

; 51   : {

  00000	55		 push	 ebp
  00001	8b ec		 mov	 ebp, esp
  00003	56		 push	 esi
  00004	57		 push	 edi

; 52   : 	if (!CheckInstanceIndex(dwIndex))

  00005	8b 7d 08	 mov	 edi, DWORD PTR _dwIndex$[ebp]
  00008	8b f1		 mov	 esi, ecx
  0000a	57		 push	 edi
  0000b	e8 00 00 00 00	 call	 ?CheckInstanceIndex@CSoundManagerStream@@IAE_NK@Z ; CSoundManagerStream::CheckInstanceIndex
  00010	84 c0		 test	 al, al
  00012	75 08		 jne	 SHORT $LN2@GetInstanc

; 53   : 		return NULL;

  00014	5f		 pop	 edi
  00015	33 c0		 xor	 eax, eax

; 56   : }

  00017	5e		 pop	 esi
  00018	5d		 pop	 ebp
  00019	c2 04 00	 ret	 4
$LN2@GetInstanc:

; 54   : 
; 55   : 	return &m_Instances[dwIndex];

  0001c	8d 04 fd 04 00
	00 00		 lea	 eax, DWORD PTR [edi*8+4]
  00023	5f		 pop	 edi
  00024	03 c6		 add	 eax, esi

; 56   : }

  00026	5e		 pop	 esi
  00027	5d		 pop	 ebp
  00028	c2 04 00	 ret	 4
?GetInstance@CSoundManagerStream@@QAEPAVCSoundInstanceStream@@K@Z ENDP ; CSoundManagerStream::GetInstance
_TEXT	ENDS
; Function compile flags: /Ogtp
; File C:\DS Project\DS Files\Source\ClientSource\Client\MilesLib\SoundManagerStream.cpp
;	COMDAT ?SetInstance@CSoundManagerStream@@QAE_NKPBD@Z
_TEXT	SEGMENT
_dwIndex$ = 8						; size = 4
_filename$ = 12						; size = 4
?SetInstance@CSoundManagerStream@@QAE_NKPBD@Z PROC	; CSoundManagerStream::SetInstance, COMDAT
; _this$ = ecx

; 36   : {

  00000	55		 push	 ebp
  00001	8b ec		 mov	 ebp, esp
  00003	56		 push	 esi
  00004	57		 push	 edi

; 37   : 	if (!CheckInstanceIndex(dwIndex))

  00005	8b 7d 08	 mov	 edi, DWORD PTR _dwIndex$[ebp]
  00008	8b f1		 mov	 esi, ecx
  0000a	57		 push	 edi
  0000b	e8 00 00 00 00	 call	 ?CheckInstanceIndex@CSoundManagerStream@@IAE_NK@Z ; CSoundManagerStream::CheckInstanceIndex
  00010	84 c0		 test	 al, al
  00012	74 2c		 je	 SHORT $LN5@SetInstanc

; 38   : 		return false;
; 39   : 
; 40   : 	HSTREAM hStream = AIL_open_stream(ms_DIGDriver, filename, 0);

  00014	6a 00		 push	 0
  00016	ff 75 0c	 push	 DWORD PTR _filename$[ebp]
  00019	ff 35 00 00 00
	00		 push	 DWORD PTR ?ms_DIGDriver@CSoundBase@@1PAU_DIG_DRIVER@@A ; CSoundBase::ms_DIGDriver
  0001f	ff 15 00 00 00
	00		 call	 DWORD PTR __imp__AIL_open_stream@12

; 41   : 
; 42   : 	if (NULL == hStream)

  00025	85 c0		 test	 eax, eax
  00027	74 17		 je	 SHORT $LN5@SetInstanc

; 44   : 
; 45   : 	m_Instances[dwIndex].SetStream(hStream);

  00029	8d 0c fd 04 00
	00 00		 lea	 ecx, DWORD PTR [edi*8+4]
  00030	50		 push	 eax
  00031	03 ce		 add	 ecx, esi
  00033	e8 00 00 00 00	 call	 ?SetStream@CSoundInstanceStream@@QAEXPAU_STREAM@@@Z ; CSoundInstanceStream::SetStream
  00038	5f		 pop	 edi

; 46   : 
; 47   : 	return true;

  00039	b0 01		 mov	 al, 1

; 48   : }

  0003b	5e		 pop	 esi
  0003c	5d		 pop	 ebp
  0003d	c2 08 00	 ret	 8
$LN5@SetInstanc:
  00040	5f		 pop	 edi

; 43   : 		return false;

  00041	32 c0		 xor	 al, al

; 48   : }

  00043	5e		 pop	 esi
  00044	5d		 pop	 ebp
  00045	c2 08 00	 ret	 8
?SetInstance@CSoundManagerStream@@QAE_NKPBD@Z ENDP	; CSoundManagerStream::SetInstance
_TEXT	ENDS
; Function compile flags: /Ogtp
; File C:\DS Project\DS Files\Source\ClientSource\Client\MilesLib\SoundManagerStream.cpp
;	COMDAT ?Destroy@CSoundManagerStream@@QAEXXZ
_TEXT	SEGMENT
?Destroy@CSoundManagerStream@@QAEXXZ PROC		; CSoundManagerStream::Destroy, COMDAT
; _this$ = ecx

; 28   : {

  00000	53		 push	 ebx
  00001	8b d9		 mov	 ebx, ecx
  00003	56		 push	 esi
  00004	57		 push	 edi

; 29   : 	for (int i=0; i<MUSIC_INSTANCE_MAX_NUM; ++i)

  00005	bf 03 00 00 00	 mov	 edi, 3
  0000a	8d 73 04	 lea	 esi, DWORD PTR [ebx+4]
  0000d	0f 1f 00	 npad	 3
$LL4@Destroy:

; 30   : 		m_Instances[i].Stop();

  00010	8b 06		 mov	 eax, DWORD PTR [esi]
  00012	8b ce		 mov	 ecx, esi
  00014	ff 50 1c	 call	 DWORD PTR [eax+28]
  00017	83 c6 08	 add	 esi, 8
  0001a	83 ef 01	 sub	 edi, 1
  0001d	75 f1		 jne	 SHORT $LL4@Destroy

; 31   : 
; 32   : 	CSoundBase::Destroy();

  0001f	5f		 pop	 edi
  00020	5e		 pop	 esi
  00021	8b cb		 mov	 ecx, ebx
  00023	5b		 pop	 ebx
  00024	e9 00 00 00 00	 jmp	 ?Destroy@CSoundBase@@QAEXXZ ; CSoundBase::Destroy
?Destroy@CSoundManagerStream@@QAEXXZ ENDP		; CSoundManagerStream::Destroy
_TEXT	ENDS
; Function compile flags: /Ogtp
; File C:\DS Project\DS Files\Source\ClientSource\Client\MilesLib\SoundManagerStream.cpp
;	COMDAT ?Initialize@CSoundManagerStream@@QAE_NXZ
_TEXT	SEGMENT
?Initialize@CSoundManagerStream@@QAE_NXZ PROC		; CSoundManagerStream::Initialize, COMDAT
; _this$ = ecx

; 13   : {

  00000	56		 push	 esi
  00001	8b f1		 mov	 esi, ecx

; 14   : 	CSoundBase::Initialize();

  00003	e8 00 00 00 00	 call	 ?Initialize@CSoundBase@@QAEXXZ ; CSoundBase::Initialize

; 15   : 
; 16   : 	if (ms_DIGDriver)

  00008	83 3d 00 00 00
	00 00		 cmp	 DWORD PTR ?ms_DIGDriver@CSoundBase@@1PAU_DIG_DRIVER@@A, 0 ; CSoundBase::ms_DIGDriver
  0000f	75 2f		 jne	 SHORT $LN12@Initialize

; 17   : 		return true;
; 18   : 
; 19   : 	ms_DIGDriver = AIL_open_digital_driver(44100, 16, 2, 0);

  00011	57		 push	 edi
  00012	6a 00		 push	 0
  00014	6a 02		 push	 2
  00016	6a 10		 push	 16			; 00000010H
  00018	68 44 ac 00 00	 push	 44100			; 0000ac44H
  0001d	ff 15 00 00 00
	00		 call	 DWORD PTR __imp__AIL_open_digital_driver@16
  00023	a3 00 00 00 00	 mov	 DWORD PTR ?ms_DIGDriver@CSoundBase@@1PAU_DIG_DRIVER@@A, eax ; CSoundBase::ms_DIGDriver
  00028	83 c6 04	 add	 esi, 4
  0002b	bf 03 00 00 00	 mov	 edi, 3
$LL4@Initialize:

; 20   : 
; 21   : 	for (int i = 0; i < MUSIC_INSTANCE_MAX_NUM; ++i)
; 22   : 		m_Instances[i].Initialize();

  00030	8b 06		 mov	 eax, DWORD PTR [esi]
  00032	8b ce		 mov	 ecx, esi
  00034	ff 50 04	 call	 DWORD PTR [eax+4]
  00037	83 c6 08	 add	 esi, 8
  0003a	83 ef 01	 sub	 edi, 1
  0003d	75 f1		 jne	 SHORT $LL4@Initialize

; 23   : 
; 24   : 	return true;

  0003f	5f		 pop	 edi
$LN12@Initialize:

; 25   : }

  00040	b0 01		 mov	 al, 1
  00042	5e		 pop	 esi
  00043	c3		 ret	 0
?Initialize@CSoundManagerStream@@QAE_NXZ ENDP		; CSoundManagerStream::Initialize
_TEXT	ENDS
; Function compile flags: /Ogtp
; File C:\DS Project\DS Files\Source\ClientSource\Client\MilesLib\SoundManagerStream.cpp
;	COMDAT ??1CSoundManagerStream@@UAE@XZ
_TEXT	SEGMENT
__$EHRec$ = -12						; size = 12
??1CSoundManagerStream@@UAE@XZ PROC			; CSoundManagerStream::~CSoundManagerStream, COMDAT
; _this$ = ecx

; 9    : {

  00000	55		 push	 ebp
  00001	8b ec		 mov	 ebp, esp
  00003	6a ff		 push	 -1
  00005	68 00 00 00 00	 push	 __ehhandler$??1CSoundManagerStream@@UAE@XZ
  0000a	64 a1 00 00 00
	00		 mov	 eax, DWORD PTR fs:0
  00010	50		 push	 eax
  00011	56		 push	 esi
  00012	a1 00 00 00 00	 mov	 eax, DWORD PTR ___security_cookie
  00017	33 c5		 xor	 eax, ebp
  00019	50		 push	 eax
  0001a	8d 45 f4	 lea	 eax, DWORD PTR __$EHRec$[ebp]
  0001d	64 a3 00 00 00
	00		 mov	 DWORD PTR fs:0, eax
  00023	8b f1		 mov	 esi, ecx

; 10   : }

  00025	68 00 00 00 00	 push	 OFFSET ??1CSoundInstanceStream@@UAE@XZ ; CSoundInstanceStream::~CSoundInstanceStream
  0002a	6a 03		 push	 3
  0002c	6a 08		 push	 8
  0002e	8d 46 04	 lea	 eax, DWORD PTR [esi+4]
  00031	c7 06 00 00 00
	00		 mov	 DWORD PTR [esi], OFFSET ??_7CSoundManagerStream@@6B@
  00037	50		 push	 eax
  00038	e8 00 00 00 00	 call	 ??_M@YGXPAXIIP6EX0@Z@Z
  0003d	8b ce		 mov	 ecx, esi
  0003f	e8 00 00 00 00	 call	 ??1CSoundBase@@UAE@XZ	; CSoundBase::~CSoundBase
  00044	8b 4d f4	 mov	 ecx, DWORD PTR __$EHRec$[ebp]
  00047	64 89 0d 00 00
	00 00		 mov	 DWORD PTR fs:0, ecx
  0004e	59		 pop	 ecx
  0004f	5e		 pop	 esi
  00050	8b e5		 mov	 esp, ebp
  00052	5d		 pop	 ebp
  00053	c3		 ret	 0
  00054	cc		 int	 3
  00055	cc		 int	 3
  00056	cc		 int	 3
  00057	cc		 int	 3
  00058	cc		 int	 3
_TEXT	ENDS
;	COMDAT text$x
text$x	SEGMENT
__ehhandler$??1CSoundManagerStream@@UAE@XZ:
  00000	90		 npad	 1
  00001	90		 npad	 1
  00002	8b 54 24 08	 mov	 edx, DWORD PTR [esp+8]
  00006	8d 42 0c	 lea	 eax, DWORD PTR [edx+12]
  00009	8b 4a f8	 mov	 ecx, DWORD PTR [edx-8]
  0000c	33 c8		 xor	 ecx, eax
  0000e	e8 00 00 00 00	 call	 @__security_check_cookie@4
  00013	b8 00 00 00 00	 mov	 eax, OFFSET __ehfuncinfo$??1CSoundManagerStream@@UAE@XZ
  00018	e9 00 00 00 00	 jmp	 ___CxxFrameHandler3
text$x	ENDS
??1CSoundManagerStream@@UAE@XZ ENDP			; CSoundManagerStream::~CSoundManagerStream
; Function compile flags: /Ogtp
; File C:\DS Project\DS Files\Source\ClientSource\Client\MilesLib\SoundManagerStream.cpp
;	COMDAT ??0CSoundManagerStream@@QAE@XZ
_TEXT	SEGMENT
_this$ = -16						; size = 4
__$EHRec$ = -12						; size = 12
??0CSoundManagerStream@@QAE@XZ PROC			; CSoundManagerStream::CSoundManagerStream, COMDAT
; _this$ = ecx

; 5    : {

  00000	55		 push	 ebp
  00001	8b ec		 mov	 ebp, esp
  00003	6a ff		 push	 -1
  00005	68 00 00 00 00	 push	 __ehhandler$??0CSoundManagerStream@@QAE@XZ
  0000a	64 a1 00 00 00
	00		 mov	 eax, DWORD PTR fs:0
  00010	50		 push	 eax
  00011	51		 push	 ecx
  00012	56		 push	 esi
  00013	a1 00 00 00 00	 mov	 eax, DWORD PTR ___security_cookie
  00018	33 c5		 xor	 eax, ebp
  0001a	50		 push	 eax
  0001b	8d 45 f4	 lea	 eax, DWORD PTR __$EHRec$[ebp]
  0001e	64 a3 00 00 00
	00		 mov	 DWORD PTR fs:0, eax
  00024	8b f1		 mov	 esi, ecx
  00026	89 75 f0	 mov	 DWORD PTR _this$[ebp], esi
  00029	e8 00 00 00 00	 call	 ??0CSoundBase@@QAE@XZ	; CSoundBase::CSoundBase
  0002e	68 00 00 00 00	 push	 OFFSET ??1CSoundInstanceStream@@UAE@XZ ; CSoundInstanceStream::~CSoundInstanceStream
  00033	68 00 00 00 00	 push	 OFFSET ??0CSoundInstanceStream@@QAE@XZ ; CSoundInstanceStream::CSoundInstanceStream
  00038	6a 03		 push	 3
  0003a	6a 08		 push	 8
  0003c	8d 46 04	 lea	 eax, DWORD PTR [esi+4]
  0003f	c7 45 fc 00 00
	00 00		 mov	 DWORD PTR __$EHRec$[ebp+8], 0
  00046	50		 push	 eax
  00047	c7 06 00 00 00
	00		 mov	 DWORD PTR [esi], OFFSET ??_7CSoundManagerStream@@6B@
  0004d	e8 00 00 00 00	 call	 ??_L@YGXPAXIIP6EX0@Z1@Z

; 6    : }

  00052	8b c6		 mov	 eax, esi
  00054	8b 4d f4	 mov	 ecx, DWORD PTR __$EHRec$[ebp]
  00057	64 89 0d 00 00
	00 00		 mov	 DWORD PTR fs:0, ecx
  0005e	59		 pop	 ecx
  0005f	5e		 pop	 esi
  00060	8b e5		 mov	 esp, ebp
  00062	5d		 pop	 ebp
  00063	c3		 ret	 0
_TEXT	ENDS
;	COMDAT text$x
text$x	SEGMENT
__unwindfunclet$??0CSoundManagerStream@@QAE@XZ$0:
  00000	8b 4d f0	 mov	 ecx, DWORD PTR _this$[ebp]
  00003	e9 00 00 00 00	 jmp	 ??1CSoundBase@@UAE@XZ	; CSoundBase::~CSoundBase
  00008	cc		 int	 3
  00009	cc		 int	 3
  0000a	cc		 int	 3
  0000b	cc		 int	 3
  0000c	cc		 int	 3
__ehhandler$??0CSoundManagerStream@@QAE@XZ:
  0000d	90		 npad	 1
  0000e	90		 npad	 1
  0000f	8b 54 24 08	 mov	 edx, DWORD PTR [esp+8]
  00013	8d 42 0c	 lea	 eax, DWORD PTR [edx+12]
  00016	8b 4a f4	 mov	 ecx, DWORD PTR [edx-12]
  00019	33 c8		 xor	 ecx, eax
  0001b	e8 00 00 00 00	 call	 @__security_check_cookie@4
  00020	b8 00 00 00 00	 mov	 eax, OFFSET __ehfuncinfo$??0CSoundManagerStream@@QAE@XZ
  00025	e9 00 00 00 00	 jmp	 ___CxxFrameHandler3
text$x	ENDS
??0CSoundManagerStream@@QAE@XZ ENDP			; CSoundManagerStream::CSoundManagerStream
END
