; Listing generated by Microsoft (R) Optimizing Compiler Version 19.27.29112.0 

	TITLE	C:\DS Project\DS Files\Source\ClientSource\Client\MilesLib\SoundManager3D.cpp
	.686P
	.XMM
	include listing.inc
	.model	flat

INCLUDELIB LIBCMT
INCLUDELIB OLDNAMES

PUBLIC	??0exception@std@@QAE@ABV01@@Z			; std::exception::exception
PUBLIC	??1exception@std@@UAE@XZ			; std::exception::~exception
PUBLIC	?what@exception@std@@UBEPBDXZ			; std::exception::what
PUBLIC	??_Gexception@std@@UAEPAXI@Z			; std::exception::`scalar deleting destructor'
PUBLIC	??0bad_alloc@std@@QAE@ABV01@@Z			; std::bad_alloc::bad_alloc
PUBLIC	??_Gbad_alloc@std@@UAEPAXI@Z			; std::bad_alloc::`scalar deleting destructor'
PUBLIC	??0bad_array_new_length@std@@QAE@XZ		; std::bad_array_new_length::bad_array_new_length
PUBLIC	??1bad_array_new_length@std@@UAE@XZ		; std::bad_array_new_length::~bad_array_new_length
PUBLIC	??0bad_array_new_length@std@@QAE@ABV01@@Z	; std::bad_array_new_length::bad_array_new_length
PUBLIC	??_Gbad_array_new_length@std@@UAEPAXI@Z		; std::bad_array_new_length::`scalar deleting destructor'
PUBLIC	?_Throw_bad_array_new_length@std@@YAXXZ		; std::_Throw_bad_array_new_length
PUBLIC	??0CSoundManager3D@@QAE@XZ			; CSoundManager3D::CSoundManager3D
PUBLIC	??1CSoundManager3D@@UAE@XZ			; CSoundManager3D::~CSoundManager3D
PUBLIC	?Initialize@CSoundManager3D@@QAE_NXZ		; CSoundManager3D::Initialize
PUBLIC	?Destroy@CSoundManager3D@@QAEXXZ		; CSoundManager3D::Destroy
PUBLIC	?SetInstance@CSoundManager3D@@QAEHPBD@Z		; CSoundManager3D::SetInstance
PUBLIC	?GetInstance@CSoundManager3D@@QAEPAVISoundInstance@@K@Z ; CSoundManager3D::GetInstance
PUBLIC	?SetListenerDirection@CSoundManager3D@@QAEXMMMMMM@Z ; CSoundManager3D::SetListenerDirection
PUBLIC	?SetListenerPosition@CSoundManager3D@@QAEXMMM@Z	; CSoundManager3D::SetListenerPosition
PUBLIC	?SetListenerVelocity@CSoundManager3D@@QAEXMMMM@Z ; CSoundManager3D::SetListenerVelocity
PUBLIC	?Lock@CSoundManager3D@@QAEXH@Z			; CSoundManager3D::Lock
PUBLIC	?Unlock@CSoundManager3D@@QAEXH@Z		; CSoundManager3D::Unlock
PUBLIC	??_GCSoundManager3D@@UAEPAXI@Z			; CSoundManager3D::`scalar deleting destructor'
PUBLIC	?_Xlength@?$vector@USProvider@@V?$allocator@USProvider@@@std@@@std@@CAXXZ ; std::vector<SProvider,std::allocator<SProvider> >::_Xlength
PUBLIC	??$_Deallocate@$07$0A@@std@@YAXPAXI@Z		; std::_Deallocate<8,0>
PUBLIC	??$_Resize_reallocate@U_Value_init_tag@std@@@?$vector@USProvider@@V?$allocator@USProvider@@@std@@@std@@AAEXIABU_Value_init_tag@1@@Z ; std::vector<SProvider,std::allocator<SProvider> >::_Resize_reallocate<std::_Value_init_tag>
PUBLIC	??$_Destroy_range@V?$allocator@USProvider@@@std@@@std@@YAXPAUSProvider@@QAU1@AAV?$allocator@USProvider@@@0@@Z ; std::_Destroy_range<std::allocator<SProvider> >
PUBLIC	??$_Uninitialized_value_construct_n@V?$allocator@USProvider@@@std@@@std@@YAPAUSProvider@@PAU1@IAAV?$allocator@USProvider@@@0@@Z ; std::_Uninitialized_value_construct_n<std::allocator<SProvider> >
PUBLIC	??$_Allocate@$07U_Default_allocate_traits@std@@$0A@@std@@YAPAXI@Z ; std::_Allocate<8,std::_Default_allocate_traits,0>
PUBLIC	??$_Allocate_manually_vector_aligned@U_Default_allocate_traits@std@@@std@@YAPAXI@Z ; std::_Allocate_manually_vector_aligned<std::_Default_allocate_traits>
PUBLIC	??$_Uninitialized_move@PAUSProvider@@V?$allocator@USProvider@@@std@@@std@@YAPAUSProvider@@QAU1@0PAU1@AAV?$allocator@USProvider@@@0@@Z ; std::_Uninitialized_move<SProvider *,std::allocator<SProvider> >
PUBLIC	??$_Copy_memmove@PAUSProvider@@PAU1@@std@@YAPAUSProvider@@PAU1@00@Z ; std::_Copy_memmove<SProvider *,SProvider *>
PUBLIC	??_7exception@std@@6B@				; std::exception::`vftable'
PUBLIC	??_C@_0BC@EOODALEL@Unknown?5exception@		; `string'
PUBLIC	??_7bad_alloc@std@@6B@				; std::bad_alloc::`vftable'
PUBLIC	??_7bad_array_new_length@std@@6B@		; std::bad_array_new_length::`vftable'
PUBLIC	??_C@_0BF@KINCDENJ@bad?5array?5new?5length@	; `string'
PUBLIC	__TI3?AVbad_array_new_length@std@@
PUBLIC	__CTA3?AVbad_array_new_length@std@@
PUBLIC	??_R0?AVbad_array_new_length@std@@@8		; std::bad_array_new_length `RTTI Type Descriptor'
PUBLIC	__CT??_R0?AVbad_array_new_length@std@@@8??0bad_array_new_length@std@@QAE@ABV01@@Z12
PUBLIC	??_R0?AVbad_alloc@std@@@8			; std::bad_alloc `RTTI Type Descriptor'
PUBLIC	__CT??_R0?AVbad_alloc@std@@@8??0bad_alloc@std@@QAE@ABV01@@Z12
PUBLIC	??_R0?AVexception@std@@@8			; std::exception `RTTI Type Descriptor'
PUBLIC	__CT??_R0?AVexception@std@@@8??0exception@std@@QAE@ABV01@@Z12
PUBLIC	??_7CSoundManager3D@@6B@			; CSoundManager3D::`vftable'
PUBLIC	??_C@_0BP@KDDGJLNF@Miles?5Fast?52D?5Positional?5Audio@ ; `string'
PUBLIC	??_C@_0CM@LDIAPBKD@CSoundManager3D?3?3GetInstance?5?$CIf@ ; `string'
PUBLIC	??_C@_0BA@FOIKENOD@vector?5too?5long@		; `string'
PUBLIC	??_R4exception@std@@6B@				; std::exception::`RTTI Complete Object Locator'
PUBLIC	??_R3exception@std@@8				; std::exception::`RTTI Class Hierarchy Descriptor'
PUBLIC	??_R2exception@std@@8				; std::exception::`RTTI Base Class Array'
PUBLIC	??_R1A@?0A@EA@exception@std@@8			; std::exception::`RTTI Base Class Descriptor at (0,-1,0,64)'
PUBLIC	??_R4bad_alloc@std@@6B@				; std::bad_alloc::`RTTI Complete Object Locator'
PUBLIC	??_R3bad_alloc@std@@8				; std::bad_alloc::`RTTI Class Hierarchy Descriptor'
PUBLIC	??_R2bad_alloc@std@@8				; std::bad_alloc::`RTTI Base Class Array'
PUBLIC	??_R1A@?0A@EA@bad_alloc@std@@8			; std::bad_alloc::`RTTI Base Class Descriptor at (0,-1,0,64)'
PUBLIC	??_R4bad_array_new_length@std@@6B@		; std::bad_array_new_length::`RTTI Complete Object Locator'
PUBLIC	??_R3bad_array_new_length@std@@8		; std::bad_array_new_length::`RTTI Class Hierarchy Descriptor'
PUBLIC	??_R2bad_array_new_length@std@@8		; std::bad_array_new_length::`RTTI Base Class Array'
PUBLIC	??_R1A@?0A@EA@bad_array_new_length@std@@8	; std::bad_array_new_length::`RTTI Base Class Descriptor at (0,-1,0,64)'
PUBLIC	??_R1A@?0A@EA@CSoundBase@@8			; CSoundBase::`RTTI Base Class Descriptor at (0,-1,0,64)'
PUBLIC	??_R0?AVCSoundBase@@@8				; CSoundBase `RTTI Type Descriptor'
PUBLIC	??_R3CSoundBase@@8				; CSoundBase::`RTTI Class Hierarchy Descriptor'
PUBLIC	??_R2CSoundBase@@8				; CSoundBase::`RTTI Base Class Array'
PUBLIC	??_R4CSoundManager3D@@6B@			; CSoundManager3D::`RTTI Complete Object Locator'
PUBLIC	??_R0?AVCSoundManager3D@@@8			; CSoundManager3D `RTTI Type Descriptor'
PUBLIC	??_R3CSoundManager3D@@8				; CSoundManager3D::`RTTI Class Hierarchy Descriptor'
PUBLIC	??_R2CSoundManager3D@@8				; CSoundManager3D::`RTTI Base Class Array'
PUBLIC	??_R1A@?0A@EA@CSoundManager3D@@8		; CSoundManager3D::`RTTI Base Class Descriptor at (0,-1,0,64)'
PUBLIC	__xmm@80000000800000008000000080000000
EXTRN	??_L@YGXPAXIIP6EX0@Z1@Z:PROC			; `eh vector constructor iterator'
EXTRN	??_M@YGXPAXIIP6EX0@Z@Z:PROC			; `eh vector destructor iterator'
EXTRN	??2@YAPAXI@Z:PROC				; operator new
EXTRN	??3@YAXPAXI@Z:PROC				; operator delete
EXTRN	__invalid_parameter_noinfo_noreturn:PROC
EXTRN	__imp__AIL_enumerate_3D_providers@12:PROC
EXTRN	__imp__AIL_open_3D_provider@4:PROC
EXTRN	__imp__AIL_close_3D_provider@4:PROC
EXTRN	__imp__AIL_open_3D_listener@4:PROC
EXTRN	__imp__AIL_close_3D_listener@4:PROC
EXTRN	__imp__AIL_set_3D_position@16:PROC
EXTRN	__imp__AIL_set_3D_velocity@20:PROC
EXTRN	__imp__AIL_set_3D_orientation@28:PROC
EXTRN	___std_exception_copy:PROC
EXTRN	___std_exception_destroy:PROC
EXTRN	??_Eexception@std@@UAEPAXI@Z:PROC		; std::exception::`vector deleting destructor'
EXTRN	??_Ebad_alloc@std@@UAEPAXI@Z:PROC		; std::bad_alloc::`vector deleting destructor'
EXTRN	??_Ebad_array_new_length@std@@UAEPAXI@Z:PROC	; std::bad_array_new_length::`vector deleting destructor'
EXTRN	?_Xlength_error@std@@YAXPBD@Z:PROC		; std::_Xlength_error
EXTRN	?TraceError@@YAXPBDZZ:PROC			; TraceError
EXTRN	??0CSoundBase@@QAE@XZ:PROC			; CSoundBase::CSoundBase
EXTRN	??1CSoundBase@@UAE@XZ:PROC			; CSoundBase::~CSoundBase
EXTRN	?Initialize@CSoundBase@@QAEXXZ:PROC		; CSoundBase::Initialize
EXTRN	?Destroy@CSoundBase@@QAEXXZ:PROC		; CSoundBase::Destroy
EXTRN	?AddFile@CSoundBase@@QAEPAVCSoundData@@KPBD@Z:PROC ; CSoundBase::AddFile
EXTRN	?GetFileCRC@CSoundBase@@QAEKPBD@Z:PROC		; CSoundBase::GetFileCRC
EXTRN	??0CSoundInstance3D@@QAE@XZ:PROC		; CSoundInstance3D::CSoundInstance3D
EXTRN	??1CSoundInstance3D@@UAE@XZ:PROC		; CSoundInstance3D::~CSoundInstance3D
EXTRN	??_ECSoundManager3D@@UAEPAXI@Z:PROC		; CSoundManager3D::`vector deleting destructor'
EXTRN	@__security_check_cookie@4:PROC
EXTRN	__CxxThrowException@8:PROC
EXTRN	___CxxFrameHandler3:PROC
EXTRN	_memmove:PROC
EXTRN	_memset:PROC
EXTRN	??_7type_info@@6B@:QWORD			; type_info::`vftable'
EXTRN	?ms_pProviderDefault@CSoundBase@@1PAUSProvider@@A:DWORD ; CSoundBase::ms_pProviderDefault
EXTRN	?ms_ProviderVector@CSoundBase@@1V?$vector@USProvider@@V?$allocator@USProvider@@@std@@@std@@A:BYTE ; CSoundBase::ms_ProviderVector
EXTRN	?ms_dataMap@CSoundBase@@1V?$map@KPAVCSoundData@@U?$less@K@std@@V?$allocator@U?$pair@$$CBKPAVCSoundData@@@std@@@3@@std@@A:QWORD ; CSoundBase::ms_dataMap
EXTRN	___security_cookie:DWORD
EXTRN	__fltused:DWORD
;	COMDAT ?k@?1??SetInstance@CSoundManager3D@@QAEHPBD@Z@4KA
_BSS	SEGMENT
?k@?1??SetInstance@CSoundManager3D@@QAEHPBD@Z@4KA DD 01H DUP (?) ; `CSoundManager3D::SetInstance'::`2'::k
_BSS	ENDS
;	COMDAT __xmm@80000000800000008000000080000000
CONST	SEGMENT
__xmm@80000000800000008000000080000000 DB 00H, 00H, 00H, 080H, 00H, 00H, 00H
	DB	080H, 00H, 00H, 00H, 080H, 00H, 00H, 00H, 080H
CONST	ENDS
;	COMDAT ??_R1A@?0A@EA@CSoundManager3D@@8
rdata$r	SEGMENT
??_R1A@?0A@EA@CSoundManager3D@@8 DD FLAT:??_R0?AVCSoundManager3D@@@8 ; CSoundManager3D::`RTTI Base Class Descriptor at (0,-1,0,64)'
	DD	01H
	DD	00H
	DD	0ffffffffH
	DD	00H
	DD	040H
	DD	FLAT:??_R3CSoundManager3D@@8
rdata$r	ENDS
;	COMDAT ??_R2CSoundManager3D@@8
rdata$r	SEGMENT
??_R2CSoundManager3D@@8 DD FLAT:??_R1A@?0A@EA@CSoundManager3D@@8 ; CSoundManager3D::`RTTI Base Class Array'
	DD	FLAT:??_R1A@?0A@EA@CSoundBase@@8
rdata$r	ENDS
;	COMDAT ??_R3CSoundManager3D@@8
rdata$r	SEGMENT
??_R3CSoundManager3D@@8 DD 00H				; CSoundManager3D::`RTTI Class Hierarchy Descriptor'
	DD	00H
	DD	02H
	DD	FLAT:??_R2CSoundManager3D@@8
rdata$r	ENDS
;	COMDAT ??_R0?AVCSoundManager3D@@@8
data$r	SEGMENT
??_R0?AVCSoundManager3D@@@8 DD FLAT:??_7type_info@@6B@	; CSoundManager3D `RTTI Type Descriptor'
	DD	00H
	DB	'.?AVCSoundManager3D@@', 00H
data$r	ENDS
;	COMDAT ??_R4CSoundManager3D@@6B@
rdata$r	SEGMENT
??_R4CSoundManager3D@@6B@ DD 00H			; CSoundManager3D::`RTTI Complete Object Locator'
	DD	00H
	DD	00H
	DD	FLAT:??_R0?AVCSoundManager3D@@@8
	DD	FLAT:??_R3CSoundManager3D@@8
rdata$r	ENDS
;	COMDAT ??_R2CSoundBase@@8
rdata$r	SEGMENT
??_R2CSoundBase@@8 DD FLAT:??_R1A@?0A@EA@CSoundBase@@8	; CSoundBase::`RTTI Base Class Array'
rdata$r	ENDS
;	COMDAT ??_R3CSoundBase@@8
rdata$r	SEGMENT
??_R3CSoundBase@@8 DD 00H				; CSoundBase::`RTTI Class Hierarchy Descriptor'
	DD	00H
	DD	01H
	DD	FLAT:??_R2CSoundBase@@8
rdata$r	ENDS
;	COMDAT ??_R0?AVCSoundBase@@@8
data$r	SEGMENT
??_R0?AVCSoundBase@@@8 DD FLAT:??_7type_info@@6B@	; CSoundBase `RTTI Type Descriptor'
	DD	00H
	DB	'.?AVCSoundBase@@', 00H
data$r	ENDS
;	COMDAT ??_R1A@?0A@EA@CSoundBase@@8
rdata$r	SEGMENT
??_R1A@?0A@EA@CSoundBase@@8 DD FLAT:??_R0?AVCSoundBase@@@8 ; CSoundBase::`RTTI Base Class Descriptor at (0,-1,0,64)'
	DD	00H
	DD	00H
	DD	0ffffffffH
	DD	00H
	DD	040H
	DD	FLAT:??_R3CSoundBase@@8
rdata$r	ENDS
;	COMDAT ??_R1A@?0A@EA@bad_array_new_length@std@@8
rdata$r	SEGMENT
??_R1A@?0A@EA@bad_array_new_length@std@@8 DD FLAT:??_R0?AVbad_array_new_length@std@@@8 ; std::bad_array_new_length::`RTTI Base Class Descriptor at (0,-1,0,64)'
	DD	02H
	DD	00H
	DD	0ffffffffH
	DD	00H
	DD	040H
	DD	FLAT:??_R3bad_array_new_length@std@@8
rdata$r	ENDS
;	COMDAT ??_R2bad_array_new_length@std@@8
rdata$r	SEGMENT
??_R2bad_array_new_length@std@@8 DD FLAT:??_R1A@?0A@EA@bad_array_new_length@std@@8 ; std::bad_array_new_length::`RTTI Base Class Array'
	DD	FLAT:??_R1A@?0A@EA@bad_alloc@std@@8
	DD	FLAT:??_R1A@?0A@EA@exception@std@@8
rdata$r	ENDS
;	COMDAT ??_R3bad_array_new_length@std@@8
rdata$r	SEGMENT
??_R3bad_array_new_length@std@@8 DD 00H			; std::bad_array_new_length::`RTTI Class Hierarchy Descriptor'
	DD	00H
	DD	03H
	DD	FLAT:??_R2bad_array_new_length@std@@8
rdata$r	ENDS
;	COMDAT ??_R4bad_array_new_length@std@@6B@
rdata$r	SEGMENT
??_R4bad_array_new_length@std@@6B@ DD 00H		; std::bad_array_new_length::`RTTI Complete Object Locator'
	DD	00H
	DD	00H
	DD	FLAT:??_R0?AVbad_array_new_length@std@@@8
	DD	FLAT:??_R3bad_array_new_length@std@@8
rdata$r	ENDS
;	COMDAT ??_R1A@?0A@EA@bad_alloc@std@@8
rdata$r	SEGMENT
??_R1A@?0A@EA@bad_alloc@std@@8 DD FLAT:??_R0?AVbad_alloc@std@@@8 ; std::bad_alloc::`RTTI Base Class Descriptor at (0,-1,0,64)'
	DD	01H
	DD	00H
	DD	0ffffffffH
	DD	00H
	DD	040H
	DD	FLAT:??_R3bad_alloc@std@@8
rdata$r	ENDS
;	COMDAT ??_R2bad_alloc@std@@8
rdata$r	SEGMENT
??_R2bad_alloc@std@@8 DD FLAT:??_R1A@?0A@EA@bad_alloc@std@@8 ; std::bad_alloc::`RTTI Base Class Array'
	DD	FLAT:??_R1A@?0A@EA@exception@std@@8
rdata$r	ENDS
;	COMDAT ??_R3bad_alloc@std@@8
rdata$r	SEGMENT
??_R3bad_alloc@std@@8 DD 00H				; std::bad_alloc::`RTTI Class Hierarchy Descriptor'
	DD	00H
	DD	02H
	DD	FLAT:??_R2bad_alloc@std@@8
rdata$r	ENDS
;	COMDAT ??_R4bad_alloc@std@@6B@
rdata$r	SEGMENT
??_R4bad_alloc@std@@6B@ DD 00H				; std::bad_alloc::`RTTI Complete Object Locator'
	DD	00H
	DD	00H
	DD	FLAT:??_R0?AVbad_alloc@std@@@8
	DD	FLAT:??_R3bad_alloc@std@@8
rdata$r	ENDS
;	COMDAT ??_R1A@?0A@EA@exception@std@@8
rdata$r	SEGMENT
??_R1A@?0A@EA@exception@std@@8 DD FLAT:??_R0?AVexception@std@@@8 ; std::exception::`RTTI Base Class Descriptor at (0,-1,0,64)'
	DD	00H
	DD	00H
	DD	0ffffffffH
	DD	00H
	DD	040H
	DD	FLAT:??_R3exception@std@@8
rdata$r	ENDS
;	COMDAT ??_R2exception@std@@8
rdata$r	SEGMENT
??_R2exception@std@@8 DD FLAT:??_R1A@?0A@EA@exception@std@@8 ; std::exception::`RTTI Base Class Array'
rdata$r	ENDS
;	COMDAT ??_R3exception@std@@8
rdata$r	SEGMENT
??_R3exception@std@@8 DD 00H				; std::exception::`RTTI Class Hierarchy Descriptor'
	DD	00H
	DD	01H
	DD	FLAT:??_R2exception@std@@8
rdata$r	ENDS
;	COMDAT ??_R4exception@std@@6B@
rdata$r	SEGMENT
??_R4exception@std@@6B@ DD 00H				; std::exception::`RTTI Complete Object Locator'
	DD	00H
	DD	00H
	DD	FLAT:??_R0?AVexception@std@@@8
	DD	FLAT:??_R3exception@std@@8
rdata$r	ENDS
;	COMDAT ??_C@_0BA@FOIKENOD@vector?5too?5long@
CONST	SEGMENT
??_C@_0BA@FOIKENOD@vector?5too?5long@ DB 'vector too long', 00H ; `string'
CONST	ENDS
;	COMDAT ??_C@_0CM@LDIAPBKD@CSoundManager3D?3?3GetInstance?5?$CIf@
CONST	SEGMENT
??_C@_0CM@LDIAPBKD@CSoundManager3D?3?3GetInstance?5?$CIf@ DB 'CSoundManag'
	DB	'er3D::GetInstance (filename: %s)', 00H	; `string'
CONST	ENDS
;	COMDAT ??_C@_0BP@KDDGJLNF@Miles?5Fast?52D?5Positional?5Audio@
CONST	SEGMENT
??_C@_0BP@KDDGJLNF@Miles?5Fast?52D?5Positional?5Audio@ DB 'Miles Fast 2D '
	DB	'Positional Audio', 00H			; `string'
CONST	ENDS
;	COMDAT ??_7CSoundManager3D@@6B@
CONST	SEGMENT
??_7CSoundManager3D@@6B@ DD FLAT:??_R4CSoundManager3D@@6B@ ; CSoundManager3D::`vftable'
	DD	FLAT:??_ECSoundManager3D@@UAEPAXI@Z
CONST	ENDS
;	COMDAT __CT??_R0?AVexception@std@@@8??0exception@std@@QAE@ABV01@@Z12
xdata$x	SEGMENT
__CT??_R0?AVexception@std@@@8??0exception@std@@QAE@ABV01@@Z12 DD 00H
	DD	FLAT:??_R0?AVexception@std@@@8
	DD	00H
	DD	0ffffffffH
	ORG $+4
	DD	0cH
	DD	FLAT:??0exception@std@@QAE@ABV01@@Z
xdata$x	ENDS
;	COMDAT ??_R0?AVexception@std@@@8
data$r	SEGMENT
??_R0?AVexception@std@@@8 DD FLAT:??_7type_info@@6B@	; std::exception `RTTI Type Descriptor'
	DD	00H
	DB	'.?AVexception@std@@', 00H
data$r	ENDS
;	COMDAT __CT??_R0?AVbad_alloc@std@@@8??0bad_alloc@std@@QAE@ABV01@@Z12
xdata$x	SEGMENT
__CT??_R0?AVbad_alloc@std@@@8??0bad_alloc@std@@QAE@ABV01@@Z12 DD 010H
	DD	FLAT:??_R0?AVbad_alloc@std@@@8
	DD	00H
	DD	0ffffffffH
	ORG $+4
	DD	0cH
	DD	FLAT:??0bad_alloc@std@@QAE@ABV01@@Z
xdata$x	ENDS
;	COMDAT ??_R0?AVbad_alloc@std@@@8
data$r	SEGMENT
??_R0?AVbad_alloc@std@@@8 DD FLAT:??_7type_info@@6B@	; std::bad_alloc `RTTI Type Descriptor'
	DD	00H
	DB	'.?AVbad_alloc@std@@', 00H
data$r	ENDS
;	COMDAT __CT??_R0?AVbad_array_new_length@std@@@8??0bad_array_new_length@std@@QAE@ABV01@@Z12
xdata$x	SEGMENT
__CT??_R0?AVbad_array_new_length@std@@@8??0bad_array_new_length@std@@QAE@ABV01@@Z12 DD 00H
	DD	FLAT:??_R0?AVbad_array_new_length@std@@@8
	DD	00H
	DD	0ffffffffH
	ORG $+4
	DD	0cH
	DD	FLAT:??0bad_array_new_length@std@@QAE@ABV01@@Z
xdata$x	ENDS
;	COMDAT ??_R0?AVbad_array_new_length@std@@@8
data$r	SEGMENT
??_R0?AVbad_array_new_length@std@@@8 DD FLAT:??_7type_info@@6B@ ; std::bad_array_new_length `RTTI Type Descriptor'
	DD	00H
	DB	'.?AVbad_array_new_length@std@@', 00H
data$r	ENDS
;	COMDAT __CTA3?AVbad_array_new_length@std@@
xdata$x	SEGMENT
__CTA3?AVbad_array_new_length@std@@ DD 03H
	DD	FLAT:__CT??_R0?AVbad_array_new_length@std@@@8??0bad_array_new_length@std@@QAE@ABV01@@Z12
	DD	FLAT:__CT??_R0?AVbad_alloc@std@@@8??0bad_alloc@std@@QAE@ABV01@@Z12
	DD	FLAT:__CT??_R0?AVexception@std@@@8??0exception@std@@QAE@ABV01@@Z12
xdata$x	ENDS
;	COMDAT __TI3?AVbad_array_new_length@std@@
xdata$x	SEGMENT
__TI3?AVbad_array_new_length@std@@ DD 00H
	DD	FLAT:??1bad_array_new_length@std@@UAE@XZ
	DD	00H
	DD	FLAT:__CTA3?AVbad_array_new_length@std@@
xdata$x	ENDS
;	COMDAT ??_C@_0BF@KINCDENJ@bad?5array?5new?5length@
CONST	SEGMENT
??_C@_0BF@KINCDENJ@bad?5array?5new?5length@ DB 'bad array new length', 00H ; `string'
CONST	ENDS
;	COMDAT ??_7bad_array_new_length@std@@6B@
CONST	SEGMENT
??_7bad_array_new_length@std@@6B@ DD FLAT:??_R4bad_array_new_length@std@@6B@ ; std::bad_array_new_length::`vftable'
	DD	FLAT:??_Ebad_array_new_length@std@@UAEPAXI@Z
	DD	FLAT:?what@exception@std@@UBEPBDXZ
CONST	ENDS
;	COMDAT ??_7bad_alloc@std@@6B@
CONST	SEGMENT
??_7bad_alloc@std@@6B@ DD FLAT:??_R4bad_alloc@std@@6B@	; std::bad_alloc::`vftable'
	DD	FLAT:??_Ebad_alloc@std@@UAEPAXI@Z
	DD	FLAT:?what@exception@std@@UBEPBDXZ
CONST	ENDS
;	COMDAT ??_C@_0BC@EOODALEL@Unknown?5exception@
CONST	SEGMENT
??_C@_0BC@EOODALEL@Unknown?5exception@ DB 'Unknown exception', 00H ; `string'
CONST	ENDS
;	COMDAT ??_7exception@std@@6B@
CONST	SEGMENT
??_7exception@std@@6B@ DD FLAT:??_R4exception@std@@6B@	; std::exception::`vftable'
	DD	FLAT:??_Eexception@std@@UAEPAXI@Z
	DD	FLAT:?what@exception@std@@UBEPBDXZ
CONST	ENDS
;	COMDAT xdata$x
xdata$x	SEGMENT
__ehfuncinfo$??1CSoundManager3D@@UAE@XZ DD 019930522H
	DD	00H
	DD	00H
	DD	2 DUP(00H)
	DD	2 DUP(00H)
	DD	00H
	DD	05H
xdata$x	ENDS
;	COMDAT xdata$x
xdata$x	SEGMENT
__unwindtable$??0CSoundManager3D@@QAE@XZ DD 0ffffffffH
	DD	FLAT:__unwindfunclet$??0CSoundManager3D@@QAE@XZ$0
__ehfuncinfo$??0CSoundManager3D@@QAE@XZ DD 019930522H
	DD	01H
	DD	FLAT:__unwindtable$??0CSoundManager3D@@QAE@XZ
	DD	2 DUP(00H)
	DD	2 DUP(00H)
	DD	00H
	DD	01H
xdata$x	ENDS
; Function compile flags: /Ogtp
; File C:\Program Files (x86)\Microsoft Visual Studio\2019\Community\VC\Tools\MSVC\14.27.29110\include\xutility
;	COMDAT ??$_Copy_memmove@PAUSProvider@@PAU1@@std@@YAPAUSProvider@@PAU1@00@Z
_TEXT	SEGMENT
__First$ = 8						; size = 4
__Last$ = 12						; size = 4
__Dest$ = 16						; size = 4
??$_Copy_memmove@PAUSProvider@@PAU1@@std@@YAPAUSProvider@@PAU1@00@Z PROC ; std::_Copy_memmove<SProvider *,SProvider *>, COMDAT

; 4113 : _OutIt _Copy_memmove(_InIt _First, _InIt _Last, _OutIt _Dest) {

  00000	55		 push	 ebp
  00001	8b ec		 mov	 ebp, esp

; 4114 :     const char* const _First_ch = const_cast<const char*>(reinterpret_cast<const volatile char*>(_First));
; 4115 :     const char* const _Last_ch  = const_cast<const char*>(reinterpret_cast<const volatile char*>(_Last));
; 4116 :     char* const _Dest_ch        = const_cast<char*>(reinterpret_cast<volatile char*>(_Dest));
; 4117 :     const auto _Count           = static_cast<size_t>(_Last_ch - _First_ch);

  00003	8b 45 08	 mov	 eax, DWORD PTR __First$[ebp]
  00006	56		 push	 esi

; 4118 :     _CSTD memmove(_Dest_ch, _First_ch, _Count);

  00007	8b 75 10	 mov	 esi, DWORD PTR __Dest$[ebp]
  0000a	57		 push	 edi
  0000b	8b 7d 0c	 mov	 edi, DWORD PTR __Last$[ebp]
  0000e	2b f8		 sub	 edi, eax
  00010	57		 push	 edi
  00011	50		 push	 eax
  00012	56		 push	 esi
  00013	e8 00 00 00 00	 call	 _memmove
  00018	83 c4 0c	 add	 esp, 12			; 0000000cH

; 4119 :     return reinterpret_cast<_OutIt>(_Dest_ch + _Count);

  0001b	8d 04 37	 lea	 eax, DWORD PTR [edi+esi]
  0001e	5f		 pop	 edi
  0001f	5e		 pop	 esi

; 4120 : }

  00020	5d		 pop	 ebp
  00021	c3		 ret	 0
??$_Copy_memmove@PAUSProvider@@PAU1@@std@@YAPAUSProvider@@PAU1@00@Z ENDP ; std::_Copy_memmove<SProvider *,SProvider *>
_TEXT	ENDS
; Function compile flags: /Ogtp
; File C:\Program Files (x86)\Microsoft Visual Studio\2019\Community\VC\Tools\MSVC\14.27.29110\include\xmemory
;	COMDAT ??$_Uninitialized_move@PAUSProvider@@V?$allocator@USProvider@@@std@@@std@@YAPAUSProvider@@QAU1@0PAU1@AAV?$allocator@USProvider@@@0@@Z
_TEXT	SEGMENT
__First$ = 8						; size = 4
__Last$ = 12						; size = 4
__Dest$ = 16						; size = 4
__Al$ = 20						; size = 4
??$_Uninitialized_move@PAUSProvider@@V?$allocator@USProvider@@@std@@@std@@YAPAUSProvider@@QAU1@0PAU1@AAV?$allocator@USProvider@@@0@@Z PROC ; std::_Uninitialized_move<SProvider *,std::allocator<SProvider> >, COMDAT

; 1647 :     const _InIt _First, const _InIt _Last, _Alloc_ptr_t<_Alloc> _Dest, _Alloc& _Al) {

  00000	55		 push	 ebp
  00001	8b ec		 mov	 ebp, esp
  00003	53		 push	 ebx

; 1648 :     // move [_First, _Last) to raw _Dest, using _Al
; 1649 :     // note: only called internally from elsewhere in the STL
; 1650 :     using _Ptrval     = typename _Alloc::value_type*;
; 1651 :     auto _UFirst      = _Get_unwrapped(_First);
; 1652 :     const auto _ULast = _Get_unwrapped(_Last);
; 1653 :     if constexpr (conjunction_v<bool_constant<_Ptr_move_cat<decltype(_UFirst), _Ptrval>::_Really_trivial>,
; 1654 :                       _Uses_default_construct<_Alloc, _Ptrval, decltype(_STD move(*_UFirst))>>) {
; 1655 :         _Copy_memmove(_UFirst, _ULast, _Unfancy(_Dest));

  00004	8b 5d 10	 mov	 ebx, DWORD PTR __Dest$[ebp]
  00007	57		 push	 edi
  00008	8b 7d 0c	 mov	 edi, DWORD PTR __Last$[ebp]
  0000b	53		 push	 ebx
  0000c	57		 push	 edi
  0000d	ff 75 08	 push	 DWORD PTR __First$[ebp]
  00010	e8 00 00 00 00	 call	 ??$_Copy_memmove@PAUSProvider@@PAU1@@std@@YAPAUSProvider@@PAU1@00@Z ; std::_Copy_memmove<SProvider *,SProvider *>

; 1656 :         return _Dest + (_ULast - _UFirst);

  00015	2b 7d 08	 sub	 edi, DWORD PTR __First$[ebp]
  00018	83 c4 0c	 add	 esp, 12			; 0000000cH
  0001b	c1 ff 03	 sar	 edi, 3
  0001e	8d 04 fb	 lea	 eax, DWORD PTR [ebx+edi*8]
  00021	5f		 pop	 edi
  00022	5b		 pop	 ebx

; 1657 :     } else {
; 1658 :         _Uninitialized_backout_al<_Alloc> _Backout{_Dest, _Al};
; 1659 :         for (; _UFirst != _ULast; ++_UFirst) {
; 1660 :             _Backout._Emplace_back(_STD move(*_UFirst));
; 1661 :         }
; 1662 : 
; 1663 :         return _Backout._Release();
; 1664 :     }
; 1665 : }

  00023	5d		 pop	 ebp
  00024	c3		 ret	 0
??$_Uninitialized_move@PAUSProvider@@V?$allocator@USProvider@@@std@@@std@@YAPAUSProvider@@QAU1@0PAU1@AAV?$allocator@USProvider@@@0@@Z ENDP ; std::_Uninitialized_move<SProvider *,std::allocator<SProvider> >
_TEXT	ENDS
; Function compile flags: /Ogtp
; File C:\Program Files (x86)\Microsoft Visual Studio\2019\Community\VC\Tools\MSVC\14.27.29110\include\xmemory
;	COMDAT ??$_Allocate_manually_vector_aligned@U_Default_allocate_traits@std@@@std@@YAPAXI@Z
_TEXT	SEGMENT
__Bytes$ = 8						; size = 4
??$_Allocate_manually_vector_aligned@U_Default_allocate_traits@std@@@std@@YAPAXI@Z PROC ; std::_Allocate_manually_vector_aligned<std::_Default_allocate_traits>, COMDAT

; 113  : __declspec(allocator) void* _Allocate_manually_vector_aligned(const size_t _Bytes) {

  00000	55		 push	 ebp
  00001	8b ec		 mov	 ebp, esp

; 114  :     // allocate _Bytes manually aligned to at least _Big_allocation_alignment
; 115  :     const size_t _Block_size = _Non_user_size + _Bytes;

  00003	8b 45 08	 mov	 eax, DWORD PTR __Bytes$[ebp]
  00006	8d 48 23	 lea	 ecx, DWORD PTR [eax+35]

; 116  :     if (_Block_size <= _Bytes) {

  00009	3b c8		 cmp	 ecx, eax
  0000b	0f 86 00 00 00
	00		 jbe	 ?_Throw_bad_array_new_length@std@@YAXXZ ; std::_Throw_bad_array_new_length

; 77   :         return ::operator new(_Bytes);

  00011	51		 push	 ecx
  00012	e8 00 00 00 00	 call	 ??2@YAPAXI@Z		; operator new

; 117  :         _Throw_bad_array_new_length(); // add overflow
; 118  :     }
; 119  : 
; 120  :     const uintptr_t _Ptr_container = reinterpret_cast<uintptr_t>(_Traits::_Allocate(_Block_size));

  00017	8b c8		 mov	 ecx, eax

; 77   :         return ::operator new(_Bytes);

  00019	83 c4 04	 add	 esp, 4

; 121  :     _STL_VERIFY(_Ptr_container != 0, "invalid argument"); // validate even in release since we're doing p[-1]

  0001c	85 c9		 test	 ecx, ecx
  0001e	74 0b		 je	 SHORT $LN7@Allocate_m

; 122  :     void* const _Ptr = reinterpret_cast<void*>((_Ptr_container + _Non_user_size) & ~(_Big_allocation_alignment - 1));

  00020	8d 41 23	 lea	 eax, DWORD PTR [ecx+35]
  00023	83 e0 e0	 and	 eax, -32		; ffffffe0H

; 123  :     static_cast<uintptr_t*>(_Ptr)[-1] = _Ptr_container;

  00026	89 48 fc	 mov	 DWORD PTR [eax-4], ecx

; 124  : 
; 125  : #ifdef _DEBUG
; 126  :     static_cast<uintptr_t*>(_Ptr)[-2] = _Big_allocation_sentinel;
; 127  : #endif // _DEBUG
; 128  :     return _Ptr;
; 129  : }

  00029	5d		 pop	 ebp
  0002a	c3		 ret	 0
$LN7@Allocate_m:

; 121  :     _STL_VERIFY(_Ptr_container != 0, "invalid argument"); // validate even in release since we're doing p[-1]

  0002b	e9 00 00 00 00	 jmp	 __invalid_parameter_noinfo_noreturn
??$_Allocate_manually_vector_aligned@U_Default_allocate_traits@std@@@std@@YAPAXI@Z ENDP ; std::_Allocate_manually_vector_aligned<std::_Default_allocate_traits>
_TEXT	ENDS
; Function compile flags: /Ogtp
; File C:\Program Files (x86)\Microsoft Visual Studio\2019\Community\VC\Tools\MSVC\14.27.29110\include\xmemory
;	COMDAT ??$_Allocate@$07U_Default_allocate_traits@std@@$0A@@std@@YAPAXI@Z
_TEXT	SEGMENT
__Bytes$ = 8						; size = 4
??$_Allocate@$07U_Default_allocate_traits@std@@$0A@@std@@YAPAXI@Z PROC ; std::_Allocate<8,std::_Default_allocate_traits,0>, COMDAT

; 197  : __declspec(allocator) void* _Allocate(const size_t _Bytes) {

  00000	55		 push	 ebp
  00001	8b ec		 mov	 ebp, esp

; 198  :     // allocate _Bytes when !_HAS_ALIGNED_NEW || _Align <= __STDCPP_DEFAULT_NEW_ALIGNMENT__
; 199  : #if defined(_M_IX86) || defined(_M_X64)
; 200  :     if (_Bytes >= _Big_allocation_threshold) { // boost the alignment of big allocations to help autovectorization

  00003	8b 45 08	 mov	 eax, DWORD PTR __Bytes$[ebp]
  00006	3d 00 10 00 00	 cmp	 eax, 4096		; 00001000H
  0000b	72 09		 jb	 SHORT $LN2@Allocate

; 201  :         return _Allocate_manually_vector_aligned<_Traits>(_Bytes);

  0000d	89 45 08	 mov	 DWORD PTR __Bytes$[ebp], eax

; 210  : }

  00010	5d		 pop	 ebp

; 201  :         return _Allocate_manually_vector_aligned<_Traits>(_Bytes);

  00011	e9 00 00 00 00	 jmp	 ??$_Allocate_manually_vector_aligned@U_Default_allocate_traits@std@@@std@@YAPAXI@Z ; std::_Allocate_manually_vector_aligned<std::_Default_allocate_traits>
$LN2@Allocate:

; 202  :     }
; 203  : #endif // defined(_M_IX86) || defined(_M_X64)
; 204  : 
; 205  :     if (_Bytes != 0) {

  00016	85 c0		 test	 eax, eax
  00018	74 09		 je	 SHORT $LN3@Allocate

; 77   :         return ::operator new(_Bytes);

  0001a	89 45 08	 mov	 DWORD PTR __Bytes$[ebp], eax

; 210  : }

  0001d	5d		 pop	 ebp

; 77   :         return ::operator new(_Bytes);

  0001e	e9 00 00 00 00	 jmp	 ??2@YAPAXI@Z		; operator new
$LN3@Allocate:

; 206  :         return _Traits::_Allocate(_Bytes);
; 207  :     }
; 208  : 
; 209  :     return nullptr;

  00023	33 c0		 xor	 eax, eax

; 210  : }

  00025	5d		 pop	 ebp
  00026	c3		 ret	 0
??$_Allocate@$07U_Default_allocate_traits@std@@$0A@@std@@YAPAXI@Z ENDP ; std::_Allocate<8,std::_Default_allocate_traits,0>
_TEXT	ENDS
; Function compile flags: /Ogtp
; File C:\Program Files (x86)\Microsoft Visual Studio\2019\Community\VC\Tools\MSVC\14.27.29110\include\xmemory
;	COMDAT ??$_Uninitialized_value_construct_n@V?$allocator@USProvider@@@std@@@std@@YAPAUSProvider@@PAU1@IAAV?$allocator@USProvider@@@0@@Z
_TEXT	SEGMENT
__First$ = 8						; size = 4
__Count$ = 12						; size = 4
__Al$ = 16						; size = 4
??$_Uninitialized_value_construct_n@V?$allocator@USProvider@@@std@@@std@@YAPAUSProvider@@PAU1@IAAV?$allocator@USProvider@@@0@@Z PROC ; std::_Uninitialized_value_construct_n<std::allocator<SProvider> >, COMDAT

; 1824 :     _Alloc_ptr_t<_Alloc> _First, _Alloc_size_t<_Alloc> _Count, _Alloc& _Al) {

  00000	55		 push	 ebp
  00001	8b ec		 mov	 ebp, esp
  00003	56		 push	 esi

; 1497 :     _Uninitialized_backout_al(pointer _Dest, _Alloc& _Al_) : _First(_Dest), _Last(_Dest), _Al(_Al_) {}

  00004	8b 75 08	 mov	 esi, DWORD PTR __First$[ebp]

; 1824 :     _Alloc_ptr_t<_Alloc> _First, _Alloc_size_t<_Alloc> _Count, _Alloc& _Al) {

  00007	57		 push	 edi

; 1825 :     // value-initialize _Count objects to raw _First, using _Al
; 1826 :     using _Ptrty = typename _Alloc::value_type*;
; 1827 :     if constexpr (_Use_memset_value_construct_v<_Ptrty> && _Uses_default_construct<_Alloc, _Ptrty>::value) {
; 1828 :         auto _PFirst = _Unfancy(_First);
; 1829 :         _Zero_range(_PFirst, _PFirst + _Count);
; 1830 :         return _First + _Count;
; 1831 :     } else {
; 1832 :         _Uninitialized_backout_al<_Alloc> _Backout{_First, _Al};
; 1833 :         for (; 0 < _Count; --_Count) {

  00008	8b 7d 0c	 mov	 edi, DWORD PTR __Count$[ebp]
  0000b	85 ff		 test	 edi, edi
  0000d	74 1a		 je	 SHORT $LN18@Uninitiali
  0000f	8d 04 fd 00 00
	00 00		 lea	 eax, DWORD PTR [edi*8]
  00016	50		 push	 eax
  00017	6a 00		 push	 0
  00019	56		 push	 esi
  0001a	e8 00 00 00 00	 call	 _memset
  0001f	83 c4 0c	 add	 esp, 12			; 0000000cH
  00022	8d 04 fe	 lea	 eax, DWORD PTR [esi+edi*8]
  00025	5f		 pop	 edi

; 1838 :     }
; 1839 : }

  00026	5e		 pop	 esi
  00027	5d		 pop	 ebp
  00028	c3		 ret	 0
$LN18@Uninitiali:
  00029	5f		 pop	 edi

; 1834 :             _Backout._Emplace_back();
; 1835 :         }
; 1836 : 
; 1837 :         return _Backout._Release();

  0002a	8b c6		 mov	 eax, esi

; 1838 :     }
; 1839 : }

  0002c	5e		 pop	 esi
  0002d	5d		 pop	 ebp
  0002e	c3		 ret	 0
??$_Uninitialized_value_construct_n@V?$allocator@USProvider@@@std@@@std@@YAPAUSProvider@@PAU1@IAAV?$allocator@USProvider@@@0@@Z ENDP ; std::_Uninitialized_value_construct_n<std::allocator<SProvider> >
_TEXT	ENDS
; Function compile flags: /Ogtp
; File C:\Program Files (x86)\Microsoft Visual Studio\2019\Community\VC\Tools\MSVC\14.27.29110\include\xmemory
;	COMDAT ??$_Destroy_range@V?$allocator@USProvider@@@std@@@std@@YAXPAUSProvider@@QAU1@AAV?$allocator@USProvider@@@0@@Z
_TEXT	SEGMENT
__First$ = 8						; size = 4
__Last$ = 12						; size = 4
__Al$ = 16						; size = 4
??$_Destroy_range@V?$allocator@USProvider@@@std@@@std@@YAXPAUSProvider@@QAU1@AAV?$allocator@USProvider@@@0@@Z PROC ; std::_Destroy_range<std::allocator<SProvider> >, COMDAT

; 956  :     // note that this is an optimization for debug mode codegen; in release mode the BE removes all of this
; 957  :     using _Ty = typename _Alloc::value_type;
; 958  :     if _CONSTEXPR_IF (!conjunction_v<is_trivially_destructible<_Ty>, _Uses_default_destroy<_Alloc, _Ty*>>) {
; 959  :         for (; _First != _Last; ++_First) {
; 960  :             allocator_traits<_Alloc>::destroy(_Al, _Unfancy(_First));
; 961  :         }
; 962  :     }
; 963  : }

  00000	c2 00 00	 ret	 0
??$_Destroy_range@V?$allocator@USProvider@@@std@@@std@@YAXPAUSProvider@@QAU1@AAV?$allocator@USProvider@@@0@@Z ENDP ; std::_Destroy_range<std::allocator<SProvider> >
_TEXT	ENDS
; Function compile flags: /Ogtp
; File C:\Program Files (x86)\Microsoft Visual Studio\2019\Community\VC\Tools\MSVC\14.27.29110\include\vector
; File C:\Program Files (x86)\Microsoft Visual Studio\2019\Community\VC\Tools\MSVC\14.27.29110\include\xmemory
; File C:\Program Files (x86)\Microsoft Visual Studio\2019\Community\VC\Tools\MSVC\14.27.29110\include\vector
; File C:\Program Files (x86)\Microsoft Visual Studio\2019\Community\VC\Tools\MSVC\14.27.29110\include\xmemory
; File C:\Program Files (x86)\Microsoft Visual Studio\2019\Community\VC\Tools\MSVC\14.27.29110\include\vector
; File C:\Program Files (x86)\Microsoft Visual Studio\2019\Community\VC\Tools\MSVC\14.27.29110\include\xmemory
; File C:\Program Files (x86)\Microsoft Visual Studio\2019\Community\VC\Tools\MSVC\14.27.29110\include\vector
; File C:\Program Files (x86)\Microsoft Visual Studio\2019\Community\VC\Tools\MSVC\14.27.29110\include\xmemory
; File C:\Program Files (x86)\Microsoft Visual Studio\2019\Community\VC\Tools\MSVC\14.27.29110\include\vector
;	COMDAT ??$_Resize_reallocate@U_Value_init_tag@std@@@?$vector@USProvider@@V?$allocator@USProvider@@@std@@@std@@AAEXIABU_Value_init_tag@1@@Z
_TEXT	SEGMENT
tv346 = -4						; size = 4
__Newvec$1$ = 8						; size = 4
__Newsize$ = 8						; size = 4
__Val$ = 12						; size = 4
??$_Resize_reallocate@U_Value_init_tag@std@@@?$vector@USProvider@@V?$allocator@USProvider@@@std@@@std@@AAEXIABU_Value_init_tag@1@@Z PROC ; std::vector<SProvider,std::allocator<SProvider> >::_Resize_reallocate<std::_Value_init_tag>, COMDAT
; _this$ = ecx

; 1182 :     void _Resize_reallocate(const size_type _Newsize, const _Ty2& _Val) {

  00000	55		 push	 ebp
  00001	8b ec		 mov	 ebp, esp
  00003	51		 push	 ecx
  00004	53		 push	 ebx
  00005	56		 push	 esi
  00006	57		 push	 edi

; 1183 :         if (_Newsize > max_size()) {

  00007	8b 7d 08	 mov	 edi, DWORD PTR __Newsize$[ebp]
  0000a	8b f1		 mov	 esi, ecx
  0000c	81 ff ff ff ff
	1f		 cmp	 edi, 536870911		; 1fffffffH
  00012	0f 87 92 00 00
	00		 ja	 $LN36@Resize_rea

; 1494 :         return static_cast<size_type>(_My_data._Myend - _My_data._Myfirst);

  00018	8b 4e 08	 mov	 ecx, DWORD PTR [esi+8]

; 1619 :         if (_Oldcapacity > max_size() - _Oldcapacity / 2) {

  0001b	b8 ff ff ff 1f	 mov	 eax, 536870911		; 1fffffffH

; 1494 :         return static_cast<size_type>(_My_data._Myend - _My_data._Myfirst);

  00020	2b 0e		 sub	 ecx, DWORD PTR [esi]

; 1185 :         }
; 1186 : 
; 1187 :         auto& _My_data    = _Mypair._Myval2;
; 1188 :         pointer& _Myfirst = _My_data._Myfirst;
; 1189 :         pointer& _Mylast  = _My_data._Mylast;
; 1190 : 
; 1191 :         const auto _Oldsize          = static_cast<size_type>(_Mylast - _Myfirst);

  00022	8b 5e 04	 mov	 ebx, DWORD PTR [esi+4]
  00025	2b 1e		 sub	 ebx, DWORD PTR [esi]

; 1494 :         return static_cast<size_type>(_My_data._Myend - _My_data._Myfirst);

  00027	c1 f9 03	 sar	 ecx, 3

; 1619 :         if (_Oldcapacity > max_size() - _Oldcapacity / 2) {

  0002a	8b d1		 mov	 edx, ecx

; 1185 :         }
; 1186 : 
; 1187 :         auto& _My_data    = _Mypair._Myval2;
; 1188 :         pointer& _Myfirst = _My_data._Myfirst;
; 1189 :         pointer& _Mylast  = _My_data._Mylast;
; 1190 : 
; 1191 :         const auto _Oldsize          = static_cast<size_type>(_Mylast - _Myfirst);

  0002c	c1 fb 03	 sar	 ebx, 3

; 1619 :         if (_Oldcapacity > max_size() - _Oldcapacity / 2) {

  0002f	d1 ea		 shr	 edx, 1
  00031	2b c2		 sub	 eax, edx
  00033	3b c8		 cmp	 ecx, eax
  00035	77 10		 ja	 SHORT $LN34@Resize_rea

; 1620 :             return _Newsize; // geometric growth would overflow
; 1621 :         }
; 1622 : 
; 1623 :         const size_type _Geometric = _Oldcapacity + _Oldcapacity / 2;

  00037	8d 04 0a	 lea	 eax, DWORD PTR [edx+ecx]

; 1624 : 
; 1625 :         if (_Geometric < _Newsize) {

  0003a	3b c7		 cmp	 eax, edi
  0003c	72 09		 jb	 SHORT $LN34@Resize_rea
; File C:\Program Files (x86)\Microsoft Visual Studio\2019\Community\VC\Tools\MSVC\14.27.29110\include\xmemory

; 60   :         if (_Count > _Max_possible) {

  0003e	3d ff ff ff 1f	 cmp	 eax, 536870911		; 1fffffffH
  00043	77 6a		 ja	 SHORT $LN37@Resize_rea
  00045	eb 02		 jmp	 SHORT $LN18@Resize_rea
$LN34@Resize_rea:

; 62   :         }
; 63   :     }
; 64   : 
; 65   :     return _Count * _Ty_size;

  00047	8b c7		 mov	 eax, edi
$LN18@Resize_rea:
  00049	c1 e0 03	 shl	 eax, 3

; 807  :         return static_cast<_Ty*>(_Allocate<_New_alignof<_Ty>>(_Get_size_of_n<sizeof(_Ty)>(_Count)));

  0004c	50		 push	 eax

; 65   :     return _Count * _Ty_size;

  0004d	89 45 fc	 mov	 DWORD PTR tv346[ebp], eax

; 807  :         return static_cast<_Ty*>(_Allocate<_New_alignof<_Ty>>(_Get_size_of_n<sizeof(_Ty)>(_Count)));

  00050	e8 00 00 00 00	 call	 ??$_Allocate@$07U_Default_allocate_traits@std@@$0A@@std@@YAPAXI@Z ; std::_Allocate<8,std::_Default_allocate_traits,0>
; File C:\Program Files (x86)\Microsoft Visual Studio\2019\Community\VC\Tools\MSVC\14.27.29110\include\vector

; 1199 :         _Appended_last = _Ufill(_Appended_first, _Newsize - _Oldsize, _Val);

  00055	8b cf		 mov	 ecx, edi
; File C:\Program Files (x86)\Microsoft Visual Studio\2019\Community\VC\Tools\MSVC\14.27.29110\include\xmemory

; 807  :         return static_cast<_Ty*>(_Allocate<_New_alignof<_Ty>>(_Get_size_of_n<sizeof(_Ty)>(_Count)));

  00057	89 45 08	 mov	 DWORD PTR __Newvec$1$[ebp], eax
; File C:\Program Files (x86)\Microsoft Visual Studio\2019\Community\VC\Tools\MSVC\14.27.29110\include\vector

; 1199 :         _Appended_last = _Ufill(_Appended_first, _Newsize - _Oldsize, _Val);

  0005a	2b cb		 sub	 ecx, ebx

; 1583 :         return _Uninitialized_value_construct_n(_Dest, _Count, _Getal());

  0005c	56		 push	 esi
  0005d	51		 push	 ecx

; 1192 :         const size_type _Newcapacity = _Calculate_growth(_Newsize);
; 1193 : 
; 1194 :         const pointer _Newvec         = _Getal().allocate(_Newcapacity);
; 1195 :         const pointer _Appended_first = _Newvec + _Oldsize;

  0005e	8d 0c d8	 lea	 ecx, DWORD PTR [eax+ebx*8]

; 1583 :         return _Uninitialized_value_construct_n(_Dest, _Count, _Getal());

  00061	51		 push	 ecx
  00062	e8 00 00 00 00	 call	 ??$_Uninitialized_value_construct_n@V?$allocator@USProvider@@@std@@@std@@YAPAUSProvider@@PAU1@IAAV?$allocator@USProvider@@@0@@Z ; std::_Uninitialized_value_construct_n<std::allocator<SProvider> >

; 1597 :         _Uninitialized_move(_First, _Last, _Dest, _Getal());

  00067	8b 5d 08	 mov	 ebx, DWORD PTR __Newvec$1$[ebp]
  0006a	56		 push	 esi
  0006b	53		 push	 ebx
  0006c	ff 76 04	 push	 DWORD PTR [esi+4]
  0006f	ff 36		 push	 DWORD PTR [esi]
  00071	e8 00 00 00 00	 call	 ??$_Uninitialized_move@PAUSProvider@@V?$allocator@USProvider@@@std@@@std@@YAPAUSProvider@@QAU1@0PAU1@AAV?$allocator@USProvider@@@0@@Z ; std::_Uninitialized_move<SProvider *,std::allocator<SProvider> >

; 1675 :         if (_Myfirst) { // destroy and deallocate old array

  00076	8b 0e		 mov	 ecx, DWORD PTR [esi]

; 1597 :         _Uninitialized_move(_First, _Last, _Dest, _Getal());

  00078	83 c4 20	 add	 esp, 32			; 00000020H

; 1675 :         if (_Myfirst) { // destroy and deallocate old array

  0007b	85 c9		 test	 ecx, ecx
  0007d	74 12		 je	 SHORT $LN29@Resize_rea

; 1676 :             _Destroy(_Myfirst, _Mylast);
; 1677 :             _Getal().deallocate(_Myfirst, static_cast<size_type>(_Myend - _Myfirst));

  0007f	8b 46 08	 mov	 eax, DWORD PTR [esi+8]
  00082	2b c1		 sub	 eax, ecx
; File C:\Program Files (x86)\Microsoft Visual Studio\2019\Community\VC\Tools\MSVC\14.27.29110\include\xmemory

; 803  :         _Deallocate<_New_alignof<_Ty>>(_Ptr, sizeof(_Ty) * _Count);

  00084	83 e0 f8	 and	 eax, -8			; fffffff8H
  00087	50		 push	 eax
  00088	51		 push	 ecx
  00089	e8 00 00 00 00	 call	 ??$_Deallocate@$07$0A@@std@@YAXPAXI@Z ; std::_Deallocate<8,0>
  0008e	83 c4 08	 add	 esp, 8
$LN29@Resize_rea:
; File C:\Program Files (x86)\Microsoft Visual Studio\2019\Community\VC\Tools\MSVC\14.27.29110\include\vector

; 1681 :         _Mylast  = _Newvec + _Newsize;

  00091	8d 04 fb	 lea	 eax, DWORD PTR [ebx+edi*8]
  00094	89 1e		 mov	 DWORD PTR [esi], ebx
  00096	89 46 04	 mov	 DWORD PTR [esi+4], eax

; 1682 :         _Myend   = _Newvec + _Newcapacity;

  00099	8b 45 fc	 mov	 eax, DWORD PTR tv346[ebp]
  0009c	03 c3		 add	 eax, ebx
  0009e	5f		 pop	 edi
  0009f	89 46 08	 mov	 DWORD PTR [esi+8], eax
  000a2	5e		 pop	 esi
  000a3	5b		 pop	 ebx

; 1208 :     }

  000a4	8b e5		 mov	 esp, ebp
  000a6	5d		 pop	 ebp
  000a7	c2 08 00	 ret	 8
$LN36@Resize_rea:

; 1184 :             _Xlength();

  000aa	e8 00 00 00 00	 call	 ?_Xlength@?$vector@USProvider@@V?$allocator@USProvider@@@std@@@std@@CAXXZ ; std::vector<SProvider,std::allocator<SProvider> >::_Xlength
$LN37@Resize_rea:
; File C:\Program Files (x86)\Microsoft Visual Studio\2019\Community\VC\Tools\MSVC\14.27.29110\include\xmemory

; 61   :             _Throw_bad_array_new_length(); // multiply overflow

  000af	e8 00 00 00 00	 call	 ?_Throw_bad_array_new_length@std@@YAXXZ ; std::_Throw_bad_array_new_length
$LN33@Resize_rea:
  000b4	cc		 int	 3
??$_Resize_reallocate@U_Value_init_tag@std@@@?$vector@USProvider@@V?$allocator@USProvider@@@std@@@std@@AAEXIABU_Value_init_tag@1@@Z ENDP ; std::vector<SProvider,std::allocator<SProvider> >::_Resize_reallocate<std::_Value_init_tag>
_TEXT	ENDS
; Function compile flags: /Ogtp
; File C:\Program Files (x86)\Microsoft Visual Studio\2019\Community\VC\Tools\MSVC\14.27.29110\include\xmemory
;	COMDAT ??$_Deallocate@$07$0A@@std@@YAXPAXI@Z
_TEXT	SEGMENT
__Ptr$ = 8						; size = 4
__Bytes$ = 12						; size = 4
??$_Deallocate@$07$0A@@std@@YAXPAXI@Z PROC		; std::_Deallocate<8,0>, COMDAT

; 213  : void _Deallocate(void* _Ptr, size_t _Bytes) noexcept {

  00000	55		 push	 ebp
  00001	8b ec		 mov	 ebp, esp

; 214  :     // deallocate storage allocated by _Allocate when !_HAS_ALIGNED_NEW || _Align <= __STDCPP_DEFAULT_NEW_ALIGNMENT__
; 215  : #if defined(_M_IX86) || defined(_M_X64)
; 216  :     if (_Bytes >= _Big_allocation_threshold) { // boost the alignment of big allocations to help autovectorization

  00003	8b 4d 0c	 mov	 ecx, DWORD PTR __Bytes$[ebp]
  00006	81 f9 00 10 00
	00		 cmp	 ecx, 4096		; 00001000H
  0000c	72 18		 jb	 SHORT $LN15@Deallocate

; 137  :     const uintptr_t _Ptr_container   = _Ptr_user[-1];

  0000e	8b 45 08	 mov	 eax, DWORD PTR __Ptr$[ebp]
  00011	83 c1 23	 add	 ecx, 35			; 00000023H
  00014	8b 50 fc	 mov	 edx, DWORD PTR [eax-4]

; 138  : 
; 139  :     // If the following asserts, it likely means that we are performing
; 140  :     // an aligned delete on memory coming from an unaligned allocation.
; 141  :     _STL_ASSERT(_Ptr_user[-2] == _Big_allocation_sentinel, "invalid argument");
; 142  : 
; 143  :     // Extra paranoia on aligned allocation/deallocation; ensure _Ptr_container is
; 144  :     // in range [_Min_back_shift, _Non_user_size]
; 145  : #ifdef _DEBUG
; 146  :     constexpr uintptr_t _Min_back_shift = 2 * sizeof(void*);
; 147  : #else // ^^^ _DEBUG ^^^ // vvv !_DEBUG vvv
; 148  :     constexpr uintptr_t _Min_back_shift = sizeof(void*);
; 149  : #endif // _DEBUG
; 150  :     const uintptr_t _Back_shift = reinterpret_cast<uintptr_t>(_Ptr) - _Ptr_container;

  00017	2b c2		 sub	 eax, edx

; 151  :     _STL_VERIFY(_Back_shift >= _Min_back_shift && _Back_shift <= _Non_user_size, "invalid argument");

  00019	83 c0 fc	 add	 eax, -4			; fffffffcH
  0001c	83 f8 1f	 cmp	 eax, 31			; 0000001fH
  0001f	76 08		 jbe	 SHORT $LN13@Deallocate
  00021	e9 00 00 00 00	 jmp	 __invalid_parameter_noinfo_noreturn
$LN15@Deallocate:

; 214  :     // deallocate storage allocated by _Allocate when !_HAS_ALIGNED_NEW || _Align <= __STDCPP_DEFAULT_NEW_ALIGNMENT__
; 215  : #if defined(_M_IX86) || defined(_M_X64)
; 216  :     if (_Bytes >= _Big_allocation_threshold) { // boost the alignment of big allocations to help autovectorization

  00026	8b 55 08	 mov	 edx, DWORD PTR __Ptr$[ebp]
$LN13@Deallocate:

; 217  :         _Adjust_manually_vector_aligned(_Ptr, _Bytes);
; 218  :     }
; 219  : #endif // defined(_M_IX86) || defined(_M_X64)
; 220  : 
; 221  :     ::operator delete(_Ptr, _Bytes);

  00029	89 4d 0c	 mov	 DWORD PTR __Bytes$[ebp], ecx
  0002c	89 55 08	 mov	 DWORD PTR __Ptr$[ebp], edx

; 222  : }

  0002f	5d		 pop	 ebp

; 217  :         _Adjust_manually_vector_aligned(_Ptr, _Bytes);
; 218  :     }
; 219  : #endif // defined(_M_IX86) || defined(_M_X64)
; 220  : 
; 221  :     ::operator delete(_Ptr, _Bytes);

  00030	e9 00 00 00 00	 jmp	 ??3@YAXPAXI@Z		; operator delete
??$_Deallocate@$07$0A@@std@@YAXPAXI@Z ENDP		; std::_Deallocate<8,0>
_TEXT	ENDS
; Function compile flags: /Ogtp
; File C:\Program Files (x86)\Microsoft Visual Studio\2019\Community\VC\Tools\MSVC\14.27.29110\include\vector
;	COMDAT ?_Xlength@?$vector@USProvider@@V?$allocator@USProvider@@@std@@@std@@CAXXZ
_TEXT	SEGMENT
?_Xlength@?$vector@USProvider@@V?$allocator@USProvider@@@std@@@std@@CAXXZ PROC ; std::vector<SProvider,std::allocator<SProvider> >::_Xlength, COMDAT

; 1704 :         _Xlength_error("vector too long");

  00000	68 00 00 00 00	 push	 OFFSET ??_C@_0BA@FOIKENOD@vector?5too?5long@
  00005	e8 00 00 00 00	 call	 ?_Xlength_error@std@@YAXPBD@Z ; std::_Xlength_error
$LN3@Xlength:
  0000a	cc		 int	 3
?_Xlength@?$vector@USProvider@@V?$allocator@USProvider@@@std@@@std@@CAXXZ ENDP ; std::vector<SProvider,std::allocator<SProvider> >::_Xlength
_TEXT	ENDS
; Function compile flags: /Ogtp
;	COMDAT ??_GCSoundManager3D@@UAEPAXI@Z
_TEXT	SEGMENT
___flags$ = 8						; size = 4
??_GCSoundManager3D@@UAEPAXI@Z PROC			; CSoundManager3D::`scalar deleting destructor', COMDAT
; _this$ = ecx
  00000	55		 push	 ebp
  00001	8b ec		 mov	 ebp, esp
  00003	56		 push	 esi
  00004	8b f1		 mov	 esi, ecx
  00006	e8 00 00 00 00	 call	 ??1CSoundManager3D@@UAE@XZ ; CSoundManager3D::~CSoundManager3D
  0000b	f6 45 08 01	 test	 BYTE PTR ___flags$[ebp], 1
  0000f	74 0e		 je	 SHORT $LN4@scalar
  00011	68 ac 01 00 00	 push	 428			; 000001acH
  00016	56		 push	 esi
  00017	e8 00 00 00 00	 call	 ??3@YAXPAXI@Z		; operator delete
  0001c	83 c4 08	 add	 esp, 8
$LN4@scalar:
  0001f	8b c6		 mov	 eax, esi
  00021	5e		 pop	 esi
  00022	5d		 pop	 ebp
  00023	c2 04 00	 ret	 4
??_GCSoundManager3D@@UAEPAXI@Z ENDP			; CSoundManager3D::`scalar deleting destructor'
_TEXT	ENDS
; Function compile flags: /Ogtp
; File C:\DS Project\DS Files\Source\ClientSource\Client\MilesLib\SoundManager3D.cpp
;	COMDAT ?Unlock@CSoundManager3D@@QAEXH@Z
_TEXT	SEGMENT
_iIndex$ = 8						; size = 4
?Unlock@CSoundManager3D@@QAEXH@Z PROC			; CSoundManager3D::Unlock, COMDAT
; _this$ = ecx

; 198  : {

  00000	55		 push	 ebp
  00001	8b ec		 mov	 ebp, esp

; 183  : 	if (iIndex >= 0 && iIndex < INSTANCE_MAX_COUNT)

  00003	8b 45 08	 mov	 eax, DWORD PTR _iIndex$[ebp]
  00006	83 f8 1f	 cmp	 eax, 31			; 0000001fH
  00009	77 05		 ja	 SHORT $LN1@Unlock

; 199  : 	if (!IsValidInstanceIndex(iIndex))
; 200  : 		return;
; 201  : 
; 202  : 	m_bLockingFlag[iIndex] = false;

  0000b	c6 44 08 04 00	 mov	 BYTE PTR [eax+ecx+4], 0
$LN1@Unlock:

; 203  : }

  00010	5d		 pop	 ebp
  00011	c2 04 00	 ret	 4
?Unlock@CSoundManager3D@@QAEXH@Z ENDP			; CSoundManager3D::Unlock
_TEXT	ENDS
; Function compile flags: /Ogtp
; File C:\DS Project\DS Files\Source\ClientSource\Client\MilesLib\SoundManager3D.cpp
;	COMDAT ?Lock@CSoundManager3D@@QAEXH@Z
_TEXT	SEGMENT
_iIndex$ = 8						; size = 4
?Lock@CSoundManager3D@@QAEXH@Z PROC			; CSoundManager3D::Lock, COMDAT
; _this$ = ecx

; 190  : {

  00000	55		 push	 ebp
  00001	8b ec		 mov	 ebp, esp

; 183  : 	if (iIndex >= 0 && iIndex < INSTANCE_MAX_COUNT)

  00003	8b 45 08	 mov	 eax, DWORD PTR _iIndex$[ebp]
  00006	83 f8 1f	 cmp	 eax, 31			; 0000001fH
  00009	77 05		 ja	 SHORT $LN1@Lock

; 191  : 	if (!IsValidInstanceIndex(iIndex))
; 192  : 		return;
; 193  : 
; 194  : 	m_bLockingFlag[iIndex] = true;

  0000b	c6 44 08 04 01	 mov	 BYTE PTR [eax+ecx+4], 1
$LN1@Lock:

; 195  : }

  00010	5d		 pop	 ebp
  00011	c2 04 00	 ret	 4
?Lock@CSoundManager3D@@QAEXH@Z ENDP			; CSoundManager3D::Lock
_TEXT	ENDS
; Function compile flags: /Ogtp
; File C:\DS Project\DS Files\Source\ClientSource\Client\MilesLib\SoundManager3D.cpp
;	COMDAT ?SetListenerVelocity@CSoundManager3D@@QAEXMMMM@Z
_TEXT	SEGMENT
_fDistanceX$ = 8					; size = 4
_fDistanceY$ = 12					; size = 4
_fDistanceZ$ = 16					; size = 4
_fNagnitude$ = 20					; size = 4
?SetListenerVelocity@CSoundManager3D@@QAEXMMMM@Z PROC	; CSoundManager3D::SetListenerVelocity, COMDAT
; _this$ = ecx

; 118  : {

  00000	55		 push	 ebp
  00001	8b ec		 mov	 ebp, esp

; 119  : // 	assert(m_pListener != NULL);
; 120  : 	if (NULL == m_pListener)

  00003	8b 81 a4 01 00
	00		 mov	 eax, DWORD PTR [ecx+420]
  00009	85 c0		 test	 eax, eax
  0000b	74 3c		 je	 SHORT $LN1@SetListene

; 121  : 		return;
; 122  : 	AIL_set_3D_velocity(m_pListener, fDistanceX, fDistanceY, -fDistanceZ, fNagnitude);

  0000d	f3 0f 10 45 14	 movss	 xmm0, DWORD PTR _fNagnitude$[ebp]
  00012	83 ec 10	 sub	 esp, 16			; 00000010H
  00015	f3 0f 11 44 24
	0c		 movss	 DWORD PTR [esp+12], xmm0
  0001b	f3 0f 10 45 10	 movss	 xmm0, DWORD PTR _fDistanceZ$[ebp]
  00020	0f 57 05 00 00
	00 00		 xorps	 xmm0, DWORD PTR __xmm@80000000800000008000000080000000
  00027	f3 0f 11 44 24
	08		 movss	 DWORD PTR [esp+8], xmm0
  0002d	f3 0f 10 45 0c	 movss	 xmm0, DWORD PTR _fDistanceY$[ebp]
  00032	f3 0f 11 44 24
	04		 movss	 DWORD PTR [esp+4], xmm0
  00038	f3 0f 10 45 08	 movss	 xmm0, DWORD PTR _fDistanceX$[ebp]
  0003d	f3 0f 11 04 24	 movss	 DWORD PTR [esp], xmm0
  00042	50		 push	 eax
  00043	ff 15 00 00 00
	00		 call	 DWORD PTR __imp__AIL_set_3D_velocity@20
$LN1@SetListene:

; 123  : }

  00049	5d		 pop	 ebp
  0004a	c2 10 00	 ret	 16			; 00000010H
?SetListenerVelocity@CSoundManager3D@@QAEXMMMM@Z ENDP	; CSoundManager3D::SetListenerVelocity
_TEXT	ENDS
; Function compile flags: /Ogtp
; File C:\DS Project\DS Files\Source\ClientSource\Client\MilesLib\SoundManager3D.cpp
;	COMDAT ?SetListenerPosition@CSoundManager3D@@QAEXMMM@Z
_TEXT	SEGMENT
_fX$ = 8						; size = 4
_fY$ = 12						; size = 4
_fZ$ = 16						; size = 4
?SetListenerPosition@CSoundManager3D@@QAEXMMM@Z PROC	; CSoundManager3D::SetListenerPosition, COMDAT
; _this$ = ecx

; 110  : {

  00000	55		 push	 ebp
  00001	8b ec		 mov	 ebp, esp

; 111  : // 	assert(m_pListener != NULL);
; 112  : 	if (NULL == m_pListener)

  00003	8b 81 a4 01 00
	00		 mov	 eax, DWORD PTR [ecx+420]
  00009	85 c0		 test	 eax, eax
  0000b	74 31		 je	 SHORT $LN1@SetListene

; 113  : 		return;
; 114  : 	AIL_set_3D_position(m_pListener, fX, fY, -fZ);

  0000d	f3 0f 10 45 10	 movss	 xmm0, DWORD PTR _fZ$[ebp]
  00012	83 ec 0c	 sub	 esp, 12			; 0000000cH
  00015	0f 57 05 00 00
	00 00		 xorps	 xmm0, DWORD PTR __xmm@80000000800000008000000080000000
  0001c	f3 0f 11 44 24
	08		 movss	 DWORD PTR [esp+8], xmm0
  00022	f3 0f 10 45 0c	 movss	 xmm0, DWORD PTR _fY$[ebp]
  00027	f3 0f 11 44 24
	04		 movss	 DWORD PTR [esp+4], xmm0
  0002d	f3 0f 10 45 08	 movss	 xmm0, DWORD PTR _fX$[ebp]
  00032	f3 0f 11 04 24	 movss	 DWORD PTR [esp], xmm0
  00037	50		 push	 eax
  00038	ff 15 00 00 00
	00		 call	 DWORD PTR __imp__AIL_set_3D_position@16
$LN1@SetListene:

; 115  : }

  0003e	5d		 pop	 ebp
  0003f	c2 0c 00	 ret	 12			; 0000000cH
?SetListenerPosition@CSoundManager3D@@QAEXMMM@Z ENDP	; CSoundManager3D::SetListenerPosition
_TEXT	ENDS
; Function compile flags: /Ogtp
; File C:\DS Project\DS Files\Source\ClientSource\Client\MilesLib\SoundManager3D.cpp
;	COMDAT ?SetListenerDirection@CSoundManager3D@@QAEXMMMMMM@Z
_TEXT	SEGMENT
_fxDir$ = 8						; size = 4
_fyDir$ = 12						; size = 4
_fzDir$ = 16						; size = 4
_fxUp$ = 20						; size = 4
_fyUp$ = 24						; size = 4
_fzUp$ = 28						; size = 4
?SetListenerDirection@CSoundManager3D@@QAEXMMMMMM@Z PROC ; CSoundManager3D::SetListenerDirection, COMDAT
; _this$ = ecx

; 103  : {

  00000	55		 push	 ebp
  00001	8b ec		 mov	 ebp, esp

; 104  : 	if (NULL == m_pListener)

  00003	8b 81 a4 01 00
	00		 mov	 eax, DWORD PTR [ecx+420]
  00009	85 c0		 test	 eax, eax
  0000b	74 59		 je	 SHORT $LN1@SetListene

; 105  : 		return;
; 106  : 	AIL_set_3D_orientation(m_pListener, fxDir, fyDir, -fzDir, fxUp, fyUp, -fzUp);

  0000d	f3 0f 10 45 1c	 movss	 xmm0, DWORD PTR _fzUp$[ebp]
  00012	83 ec 18	 sub	 esp, 24			; 00000018H
  00015	0f 57 05 00 00
	00 00		 xorps	 xmm0, DWORD PTR __xmm@80000000800000008000000080000000
  0001c	f3 0f 11 44 24
	14		 movss	 DWORD PTR [esp+20], xmm0
  00022	f3 0f 10 45 18	 movss	 xmm0, DWORD PTR _fyUp$[ebp]
  00027	f3 0f 11 44 24
	10		 movss	 DWORD PTR [esp+16], xmm0
  0002d	f3 0f 10 45 14	 movss	 xmm0, DWORD PTR _fxUp$[ebp]
  00032	f3 0f 11 44 24
	0c		 movss	 DWORD PTR [esp+12], xmm0
  00038	f3 0f 10 45 10	 movss	 xmm0, DWORD PTR _fzDir$[ebp]
  0003d	0f 57 05 00 00
	00 00		 xorps	 xmm0, DWORD PTR __xmm@80000000800000008000000080000000
  00044	f3 0f 11 44 24
	08		 movss	 DWORD PTR [esp+8], xmm0
  0004a	f3 0f 10 45 0c	 movss	 xmm0, DWORD PTR _fyDir$[ebp]
  0004f	f3 0f 11 44 24
	04		 movss	 DWORD PTR [esp+4], xmm0
  00055	f3 0f 10 45 08	 movss	 xmm0, DWORD PTR _fxDir$[ebp]
  0005a	f3 0f 11 04 24	 movss	 DWORD PTR [esp], xmm0
  0005f	50		 push	 eax
  00060	ff 15 00 00 00
	00		 call	 DWORD PTR __imp__AIL_set_3D_orientation@28
$LN1@SetListene:

; 107  : }

  00066	5d		 pop	 ebp
  00067	c2 18 00	 ret	 24			; 00000018H
?SetListenerDirection@CSoundManager3D@@QAEXMMMMMM@Z ENDP ; CSoundManager3D::SetListenerDirection
_TEXT	ENDS
; Function compile flags: /Ogtp
; File C:\DS Project\DS Files\Source\ClientSource\Client\MilesLib\SoundManager3D.cpp
;	COMDAT ?GetInstance@CSoundManager3D@@QAEPAVISoundInstance@@K@Z
_TEXT	SEGMENT
_dwIndex$ = 8						; size = 4
?GetInstance@CSoundManager3D@@QAEPAVISoundInstance@@K@Z PROC ; CSoundManager3D::GetInstance, COMDAT
; _this$ = ecx

; 172  : {

  00000	55		 push	 ebp
  00001	8b ec		 mov	 ebp, esp
  00003	8b 45 08	 mov	 eax, DWORD PTR _dwIndex$[ebp]

; 173  : 	if (dwIndex >= INSTANCE_MAX_COUNT)

  00006	83 f8 20	 cmp	 eax, 32			; 00000020H
  00009	72 06		 jb	 SHORT $LN2@GetInstanc

; 174  : 	{
; 175  : 		assert(dwIndex < INSTANCE_MAX_COUNT);
; 176  : 		return NULL;

  0000b	33 c0		 xor	 eax, eax

; 179  : }

  0000d	5d		 pop	 ebp
  0000e	c2 04 00	 ret	 4
$LN2@GetInstanc:

; 177  : 	}
; 178  : 	return &m_Instances[dwIndex];

  00011	8d 04 40	 lea	 eax, DWORD PTR [eax+eax*2]
  00014	8d 40 09	 lea	 eax, DWORD PTR [eax+9]
  00017	8d 04 81	 lea	 eax, DWORD PTR [ecx+eax*4]

; 179  : }

  0001a	5d		 pop	 ebp
  0001b	c2 04 00	 ret	 4
?GetInstance@CSoundManager3D@@QAEPAVISoundInstance@@K@Z ENDP ; CSoundManager3D::GetInstance
_TEXT	ENDS
; Function compile flags: /Ogtp
; File C:\DS Project\DS Files\Source\ClientSource\Client\MilesLib\SoundManager3D.cpp
; File C:\Program Files (x86)\Microsoft Visual Studio\2019\Community\VC\Tools\MSVC\14.27.29110\include\xtree
; File C:\Program Files (x86)\Microsoft Visual Studio\2019\Community\VC\Tools\MSVC\14.27.29110\include\xstddef
; File C:\Program Files (x86)\Microsoft Visual Studio\2019\Community\VC\Tools\MSVC\14.27.29110\include\xtree
; File C:\Program Files (x86)\Microsoft Visual Studio\2019\Community\VC\Tools\MSVC\14.27.29110\include\xstddef
; File C:\Program Files (x86)\Microsoft Visual Studio\2019\Community\VC\Tools\MSVC\14.27.29110\include\xtree
; File C:\DS Project\DS Files\Source\ClientSource\Client\MilesLib\SoundManager3D.cpp
;	COMDAT ?SetInstance@CSoundManager3D@@QAEHPBD@Z
_TEXT	SEGMENT
_this$1$ = -8						; size = 4
_pkSoundData$1$ = -4					; size = 4
_c_pszFileName$ = 8					; size = 4
?SetInstance@CSoundManager3D@@QAEHPBD@Z PROC		; CSoundManager3D::SetInstance, COMDAT
; _this$ = ecx

; 126  : {

  00000	55		 push	 ebp
  00001	8b ec		 mov	 ebp, esp
  00003	83 ec 08	 sub	 esp, 8
  00006	53		 push	 ebx

; 127  : 	DWORD dwFileCRC = GetFileCRC(c_pszFileName);

  00007	8b 5d 08	 mov	 ebx, DWORD PTR _c_pszFileName$[ebp]
  0000a	56		 push	 esi
  0000b	57		 push	 edi
  0000c	8b f9		 mov	 edi, ecx
  0000e	53		 push	 ebx
  0000f	89 7d f8	 mov	 DWORD PTR _this$1$[ebp], edi
  00012	e8 00 00 00 00	 call	 ?GetFileCRC@CSoundBase@@QAEKPBD@Z ; CSoundBase::GetFileCRC
; File C:\Program Files (x86)\Microsoft Visual Studio\2019\Community\VC\Tools\MSVC\14.27.29110\include\xtree

; 1701 :         _Tree_find_result<_Nodeptr> _Result{{_Scary->_Myhead->_Parent, _Tree_child::_Right}, _Scary->_Myhead};

  00017	8b 35 00 00 00
	00		 mov	 esi, DWORD PTR ?ms_dataMap@CSoundBase@@1V?$map@KPAVCSoundData@@U?$less@K@std@@V?$allocator@U?$pair@$$CBKPAVCSoundData@@@std@@@3@@std@@A
  0001d	8b ce		 mov	 ecx, esi
  0001f	8b 56 04	 mov	 edx, DWORD PTR [esi+4]

; 1702 :         _Nodeptr _Trynode = _Result._Location._Parent;
; 1703 :         while (!_Trynode->_Isnil) {

  00022	80 7a 0d 00	 cmp	 BYTE PTR [edx+13], 0
  00026	75 14		 jne	 SHORT $LN17@SetInstanc
$LL16@SetInstanc:
; File C:\Program Files (x86)\Microsoft Visual Studio\2019\Community\VC\Tools\MSVC\14.27.29110\include\xstddef

; 127  :         return _Left < _Right;

  00028	39 42 10	 cmp	 DWORD PTR [edx+16], eax
; File C:\Program Files (x86)\Microsoft Visual Studio\2019\Community\VC\Tools\MSVC\14.27.29110\include\xtree

; 1705 :             if (_DEBUG_LT_PRED(_Getcomp(), _Traits::_Kfn(_Trynode->_Myval), _Keyval)) {

  0002b	73 05		 jae	 SHORT $LN18@SetInstanc

; 1706 :                 _Result._Location._Child = _Tree_child::_Right;
; 1707 :                 _Trynode                 = _Trynode->_Right;

  0002d	8b 52 08	 mov	 edx, DWORD PTR [edx+8]

; 1708 :             } else {

  00030	eb 04		 jmp	 SHORT $LN19@SetInstanc
$LN18@SetInstanc:

; 1709 :                 _Result._Location._Child = _Tree_child::_Left;
; 1710 :                 _Result._Bound           = _Trynode;

  00032	8b ca		 mov	 ecx, edx

; 1711 :                 _Trynode                 = _Trynode->_Left;

  00034	8b 12		 mov	 edx, DWORD PTR [edx]
$LN19@SetInstanc:

; 1702 :         _Nodeptr _Trynode = _Result._Location._Parent;
; 1703 :         while (!_Trynode->_Isnil) {

  00036	80 7a 0d 00	 cmp	 BYTE PTR [edx+13], 0
  0003a	74 ec		 je	 SHORT $LL16@SetInstanc
$LN17@SetInstanc:

; 1695 :         return !_Bound->_Isnil && !_DEBUG_LT_PRED(_Getcomp(), _Keyval, _Traits::_Kfn(_Bound->_Myval));

  0003c	80 79 0d 00	 cmp	 BYTE PTR [ecx+13], 0
  00040	75 0e		 jne	 SHORT $LN60@SetInstanc
; File C:\Program Files (x86)\Microsoft Visual Studio\2019\Community\VC\Tools\MSVC\14.27.29110\include\xstddef

; 127  :         return _Left < _Right;

  00042	3b 41 10	 cmp	 eax, DWORD PTR [ecx+16]
; File C:\Program Files (x86)\Microsoft Visual Studio\2019\Community\VC\Tools\MSVC\14.27.29110\include\xtree

; 1695 :         return !_Bound->_Isnil && !_DEBUG_LT_PRED(_Getcomp(), _Keyval, _Traits::_Kfn(_Bound->_Myval));

  00045	72 09		 jb	 SHORT $LN60@SetInstanc

; 232  :         return this->_Ptr == _Right._Ptr;

  00047	3b ce		 cmp	 ecx, esi
; File C:\DS Project\DS Files\Source\ClientSource\Client\MilesLib\SoundManager3D.cpp

; 132  : 	if (itor == ms_dataMap.end())

  00049	74 05		 je	 SHORT $LN60@SetInstanc

; 134  : 	else
; 135  : 		pkSoundData = itor->second;

  0004b	8b 41 14	 mov	 eax, DWORD PTR [ecx+20]
  0004e	eb 09		 jmp	 SHORT $LN61@SetInstanc
$LN60@SetInstanc:

; 133  : 		pkSoundData = AddFile(dwFileCRC, c_pszFileName); // CSoundBase::AddFile

  00050	53		 push	 ebx
  00051	50		 push	 eax
  00052	8b cf		 mov	 ecx, edi
  00054	e8 00 00 00 00	 call	 ?AddFile@CSoundBase@@QAEPAVCSoundData@@KPBD@Z ; CSoundBase::AddFile
$LN61@SetInstanc:

; 136  : 
; 137  : 	assert(pkSoundData != NULL);
; 138  : 
; 139  : 	static DWORD k = 0;
; 140  : 
; 141  : 	DWORD start = k++;

  00059	8b 35 00 00 00
	00		 mov	 esi, DWORD PTR ?k@?1??SetInstance@CSoundManager3D@@QAEHPBD@Z@4KA
  0005f	89 45 fc	 mov	 DWORD PTR _pkSoundData$1$[ebp], eax

; 142  : 	DWORD end = start + INSTANCE_MAX_COUNT;

  00062	8d 5e 20	 lea	 ebx, DWORD PTR [esi+32]
  00065	8d 4e 01	 lea	 ecx, DWORD PTR [esi+1]
  00068	89 0d 00 00 00
	00		 mov	 DWORD PTR ?k@?1??SetInstance@CSoundManager3D@@QAEHPBD@Z@4KA, ecx

; 143  : 
; 144  : 	while (start < end)

  0006e	3b f3		 cmp	 esi, ebx
  00070	73 2b		 jae	 SHORT $LN3@SetInstanc
$LL2@SetInstanc:

; 145  : 	{
; 146  : 		CSoundInstance3D * pkInst = &m_Instances[start % INSTANCE_MAX_COUNT];

  00072	8b c6		 mov	 eax, esi
  00074	83 e0 1f	 and	 eax, 31			; 0000001fH
  00077	83 c0 03	 add	 eax, 3
  0007a	8d 04 40	 lea	 eax, DWORD PTR [eax+eax*2]
  0007d	8d 3c 87	 lea	 edi, DWORD PTR [edi+eax*4]

; 147  : 
; 148  : 		if (pkInst->IsDone())

  00080	8b 07		 mov	 eax, DWORD PTR [edi]
  00082	8b cf		 mov	 ecx, edi
  00084	8b 40 28	 mov	 eax, DWORD PTR [eax+40]
  00087	ff d0		 call	 eax
  00089	84 c0		 test	 al, al
  0008b	75 1c		 jne	 SHORT $LN53@SetInstanc

; 157  : 		}
; 158  : 
; 159  : 		++start;

  0008d	46		 inc	 esi

; 160  : 
; 161  : 		if (start > 50000)

  0008e	81 fe 50 c3 00
	00		 cmp	 esi, 50000		; 0000c350H
  00094	77 07		 ja	 SHORT $LN3@SetInstanc

; 143  : 
; 144  : 	while (start < end)

  00096	8b 7d f8	 mov	 edi, DWORD PTR _this$1$[ebp]
  00099	3b f3		 cmp	 esi, ebx
  0009b	72 d5		 jb	 SHORT $LL2@SetInstanc
$LN3@SetInstanc:
  0009d	5f		 pop	 edi

; 162  : 		{
; 163  : 			start = 0;
; 164  : 			return -1;
; 165  : 		}
; 166  : 	}
; 167  : 
; 168  : 	return -1;
; 169  : }

  0009e	5e		 pop	 esi
  0009f	83 c8 ff	 or	 eax, -1
  000a2	5b		 pop	 ebx
  000a3	8b e5		 mov	 esp, ebp
  000a5	5d		 pop	 ebp
  000a6	c2 04 00	 ret	 4
$LN53@SetInstanc:

; 149  : 		{
; 150  : 			if (!pkInst->SetSound(pkSoundData))

  000a9	8b 07		 mov	 eax, DWORD PTR [edi]
  000ab	8b cf		 mov	 ecx, edi
  000ad	ff 75 fc	 push	 DWORD PTR _pkSoundData$1$[ebp]
  000b0	8b 40 0c	 mov	 eax, DWORD PTR [eax+12]
  000b3	ff d0		 call	 eax
  000b5	84 c0		 test	 al, al
  000b7	75 1c		 jne	 SHORT $LN7@SetInstanc

; 151  : 			{
; 152  : 				TraceError("CSoundManager3D::GetInstance (filename: %s)", c_pszFileName);

  000b9	ff 75 08	 push	 DWORD PTR _c_pszFileName$[ebp]
  000bc	68 00 00 00 00	 push	 OFFSET ??_C@_0CM@LDIAPBKD@CSoundManager3D?3?3GetInstance?5?$CIf@
  000c1	e8 00 00 00 00	 call	 ?TraceError@@YAXPBDZZ	; TraceError
  000c6	83 c4 08	 add	 esp, 8

; 162  : 		{
; 163  : 			start = 0;
; 164  : 			return -1;
; 165  : 		}
; 166  : 	}
; 167  : 
; 168  : 	return -1;
; 169  : }

  000c9	83 c8 ff	 or	 eax, -1
  000cc	5f		 pop	 edi
  000cd	5e		 pop	 esi
  000ce	5b		 pop	 ebx
  000cf	8b e5		 mov	 esp, ebp
  000d1	5d		 pop	 ebp
  000d2	c2 04 00	 ret	 4
$LN7@SetInstanc:

; 153  : 				return -1;
; 154  : 			}
; 155  : 
; 156  : 			return (start % INSTANCE_MAX_COUNT);

  000d5	83 e6 1f	 and	 esi, 31			; 0000001fH
  000d8	5f		 pop	 edi
  000d9	8b c6		 mov	 eax, esi

; 162  : 		{
; 163  : 			start = 0;
; 164  : 			return -1;
; 165  : 		}
; 166  : 	}
; 167  : 
; 168  : 	return -1;
; 169  : }

  000db	5e		 pop	 esi
  000dc	5b		 pop	 ebx
  000dd	8b e5		 mov	 esp, ebp
  000df	5d		 pop	 ebp
  000e0	c2 04 00	 ret	 4
?SetInstance@CSoundManager3D@@QAEHPBD@Z ENDP		; CSoundManager3D::SetInstance
_TEXT	ENDS
; Function compile flags: /Ogtp
; File C:\DS Project\DS Files\Source\ClientSource\Client\MilesLib\SoundManager3D.cpp
;	COMDAT ?Destroy@CSoundManager3D@@QAEXXZ
_TEXT	SEGMENT
?Destroy@CSoundManager3D@@QAEXXZ PROC			; CSoundManager3D::Destroy, COMDAT
; _this$ = ecx

; 79   : {

  00000	57		 push	 edi
  00001	8b f9		 mov	 edi, ecx

; 80   : 	if (!m_bInit)

  00003	80 bf a8 01 00
	00 00		 cmp	 BYTE PTR [edi+424], 0
  0000a	74 60		 je	 SHORT $LN1@Destroy

; 81   : 		return;
; 82   : 
; 83   : 	for (int i = 0; i < INSTANCE_MAX_COUNT; ++i)

  0000c	53		 push	 ebx
  0000d	56		 push	 esi
  0000e	8d 77 24	 lea	 esi, DWORD PTR [edi+36]
  00011	bb 20 00 00 00	 mov	 ebx, 32			; 00000020H
$LL4@Destroy:

; 84   : 		m_Instances[i].Destroy();

  00016	8b 06		 mov	 eax, DWORD PTR [esi]
  00018	8b ce		 mov	 ecx, esi
  0001a	ff 50 08	 call	 DWORD PTR [eax+8]
  0001d	83 c6 0c	 add	 esi, 12			; 0000000cH
  00020	83 eb 01	 sub	 ebx, 1
  00023	75 f1		 jne	 SHORT $LL4@Destroy

; 85   : 
; 86   : 	if (m_pListener)

  00025	8b 87 a4 01 00
	00		 mov	 eax, DWORD PTR [edi+420]
  0002b	5e		 pop	 esi
  0002c	5b		 pop	 ebx
  0002d	85 c0		 test	 eax, eax
  0002f	74 11		 je	 SHORT $LN6@Destroy

; 87   : 	{
; 88   : 		AIL_close_3D_listener(m_pListener);

  00031	50		 push	 eax
  00032	ff 15 00 00 00
	00		 call	 DWORD PTR __imp__AIL_close_3D_listener@4

; 89   : 		m_pListener = NULL;

  00038	c7 87 a4 01 00
	00 00 00 00 00	 mov	 DWORD PTR [edi+420], 0
$LN6@Destroy:

; 90   : 	}
; 91   : 
; 92   : 	if (ms_pProviderDefault)

  00042	a1 00 00 00 00	 mov	 eax, DWORD PTR ?ms_pProviderDefault@CSoundBase@@1PAUSProvider@@A ; CSoundBase::ms_pProviderDefault
  00047	85 c0		 test	 eax, eax
  00049	74 13		 je	 SHORT $LN7@Destroy

; 93   : 	{
; 94   : 		AIL_close_3D_provider(ms_pProviderDefault->hProvider);

  0004b	ff 70 04	 push	 DWORD PTR [eax+4]
  0004e	ff 15 00 00 00
	00		 call	 DWORD PTR __imp__AIL_close_3D_provider@4

; 95   : 		ms_pProviderDefault = NULL;

  00054	c7 05 00 00 00
	00 00 00 00 00	 mov	 DWORD PTR ?ms_pProviderDefault@CSoundBase@@1PAUSProvider@@A, 0 ; CSoundBase::ms_pProviderDefault
$LN7@Destroy:

; 96   : 	}
; 97   : 
; 98   : 	CSoundBase::Destroy();

  0005e	8b cf		 mov	 ecx, edi
  00060	e8 00 00 00 00	 call	 ?Destroy@CSoundBase@@QAEXXZ ; CSoundBase::Destroy

; 99   : 	m_bInit = false;

  00065	c6 87 a8 01 00
	00 00		 mov	 BYTE PTR [edi+424], 0
$LN1@Destroy:

; 100  : }

  0006c	5f		 pop	 edi
  0006d	c3		 ret	 0
?Destroy@CSoundManager3D@@QAEXXZ ENDP			; CSoundManager3D::Destroy
_TEXT	ENDS
; Function compile flags: /Ogtp
; File C:\DS Project\DS Files\Source\ClientSource\Client\MilesLib\SoundManager3D.cpp
; File C:\Program Files (x86)\Microsoft Visual Studio\2019\Community\VC\Tools\MSVC\14.27.29110\include\vector
; File C:\DS Project\DS Files\Source\ClientSource\Client\MilesLib\SoundManager3D.cpp
; File C:\Program Files (x86)\Microsoft Visual Studio\2019\Community\VC\Tools\MSVC\14.27.29110\include\vector
; File C:\DS Project\DS Files\Source\ClientSource\Client\MilesLib\SoundManager3D.cpp
; File C:\Program Files (x86)\Microsoft Visual Studio\2019\Community\VC\Tools\MSVC\14.27.29110\include\vector
; File C:\DS Project\DS Files\Source\ClientSource\Client\MilesLib\SoundManager3D.cpp
; File C:\Program Files (x86)\Microsoft Visual Studio\2019\Community\VC\Tools\MSVC\14.27.29110\include\vector
; File C:\DS Project\DS Files\Source\ClientSource\Client\MilesLib\SoundManager3D.cpp
; File C:\Program Files (x86)\Microsoft Visual Studio\2019\Community\VC\Tools\MSVC\14.27.29110\include\vector
; File C:\DS Project\DS Files\Source\ClientSource\Client\MilesLib\SoundManager3D.cpp
;	COMDAT ?Initialize@CSoundManager3D@@QAE_NXZ
_TEXT	SEGMENT
_enum3D$ = -8						; size = 4
$T1 = -1						; size = 1
?Initialize@CSoundManager3D@@QAE_NXZ PROC		; CSoundManager3D::Initialize, COMDAT
; _this$ = ecx

; 14   : {

  00000	55		 push	 ebp
  00001	8b ec		 mov	 ebp, esp
  00003	83 ec 08	 sub	 esp, 8
  00006	53		 push	 ebx
  00007	8b d9		 mov	 ebx, ecx

; 15   : 	CSoundBase::Initialize();

  00009	e8 00 00 00 00	 call	 ?Initialize@CSoundBase@@QAEXXZ ; CSoundBase::Initialize

; 16   : 
; 17   : 	if (ms_pProviderDefault)

  0000e	83 3d 00 00 00
	00 00		 cmp	 DWORD PTR ?ms_pProviderDefault@CSoundBase@@1PAUSProvider@@A, 0 ; CSoundBase::ms_pProviderDefault
  00015	74 07		 je	 SHORT $LN7@Initialize

; 18   : 		return true;

  00017	b0 01		 mov	 al, 1
  00019	5b		 pop	 ebx

; 75   : }

  0001a	8b e5		 mov	 esp, ebp
  0001c	5d		 pop	 ebp
  0001d	c3		 ret	 0
$LN7@Initialize:
; File C:\Program Files (x86)\Microsoft Visual Studio\2019\Community\VC\Tools\MSVC\14.27.29110\include\vector

; 1215 :         const auto _Oldsize = static_cast<size_type>(_Mylast - _Myfirst);

  0001e	8b 15 00 00 00
	00		 mov	 edx, DWORD PTR ?ms_ProviderVector@CSoundBase@@1V?$vector@USProvider@@V?$allocator@USProvider@@@std@@@std@@A
  00024	56		 push	 esi
  00025	8b 35 04 00 00
	00		 mov	 esi, DWORD PTR ?ms_ProviderVector@CSoundBase@@1V?$vector@USProvider@@V?$allocator@USProvider@@@std@@@std@@A+4
  0002b	8b ce		 mov	 ecx, esi
  0002d	2b ca		 sub	 ecx, edx
  0002f	c1 f9 03	 sar	 ecx, 3

; 1216 :         if (_Newsize < _Oldsize) { // trim

  00032	83 f9 20	 cmp	 ecx, 32			; 00000020H
  00035	76 08		 jbe	 SHORT $LN15@Initialize

; 1217 :             const pointer _Newlast = _Myfirst + _Newsize;

  00037	8d 82 00 01 00
	00		 lea	 eax, DWORD PTR [edx+256]

; 1218 :             _Orphan_range(_Newlast, _Mylast);
; 1219 :             _Destroy(_Newlast, _Mylast);
; 1220 :             _Mylast = _Newlast;
; 1221 :             return;

  0003d	eb 39		 jmp	 SHORT $LN43@Initialize
$LN15@Initialize:

; 1222 :         }
; 1223 : 
; 1224 :         if (_Newsize > _Oldsize) { // append

  0003f	73 3c		 jae	 SHORT $LN16@Initialize

; 1225 :             const auto _Oldcapacity = static_cast<size_type>(_My_data._Myend - _Myfirst);

  00041	a1 08 00 00 00	 mov	 eax, DWORD PTR ?ms_ProviderVector@CSoundBase@@1V?$vector@USProvider@@V?$allocator@USProvider@@@std@@@std@@A+8
  00046	2b c2		 sub	 eax, edx
  00048	c1 f8 03	 sar	 eax, 3

; 1226 :             if (_Newsize > _Oldcapacity) { // reallocate

  0004b	83 f8 20	 cmp	 eax, 32			; 00000020H
  0004e	73 12		 jae	 SHORT $LN17@Initialize

; 1227 :                 _Resize_reallocate(_Newsize, _Val);

  00050	8d 45 ff	 lea	 eax, DWORD PTR $T1[ebp]
  00053	b9 00 00 00 00	 mov	 ecx, OFFSET ?ms_ProviderVector@CSoundBase@@1V?$vector@USProvider@@V?$allocator@USProvider@@@std@@@std@@A ; CSoundBase::ms_ProviderVector
  00058	50		 push	 eax
  00059	6a 20		 push	 32			; 00000020H
  0005b	e8 00 00 00 00	 call	 ??$_Resize_reallocate@U_Value_init_tag@std@@@?$vector@USProvider@@V?$allocator@USProvider@@@std@@@std@@AAEXIABU_Value_init_tag@1@@Z ; std::vector<SProvider,std::allocator<SProvider> >::_Resize_reallocate<std::_Value_init_tag>

; 1228 :                 return;

  00060	eb 1b		 jmp	 SHORT $LN16@Initialize
$LN17@Initialize:

; 1229 :             }
; 1230 : 
; 1231 :             const pointer _Oldlast = _Mylast;
; 1232 :             _Mylast                = _Ufill(_Oldlast, _Newsize - _Oldsize, _Val);

  00062	b8 20 00 00 00	 mov	 eax, 32			; 00000020H

; 1583 :         return _Uninitialized_value_construct_n(_Dest, _Count, _Getal());

  00067	68 00 00 00 00	 push	 OFFSET ?ms_ProviderVector@CSoundBase@@1V?$vector@USProvider@@V?$allocator@USProvider@@@std@@@std@@A ; CSoundBase::ms_ProviderVector

; 1232 :             _Mylast                = _Ufill(_Oldlast, _Newsize - _Oldsize, _Val);

  0006c	2b c1		 sub	 eax, ecx

; 1583 :         return _Uninitialized_value_construct_n(_Dest, _Count, _Getal());

  0006e	50		 push	 eax
  0006f	56		 push	 esi
  00070	e8 00 00 00 00	 call	 ??$_Uninitialized_value_construct_n@V?$allocator@USProvider@@@std@@@std@@YAPAUSProvider@@PAU1@IAAV?$allocator@USProvider@@@0@@Z ; std::_Uninitialized_value_construct_n<std::allocator<SProvider> >
  00075	83 c4 0c	 add	 esp, 12			; 0000000cH
$LN43@Initialize:
; File C:\DS Project\DS Files\Source\ClientSource\Client\MilesLib\SoundManager3D.cpp

; 22   : 	HPROENUM enum3D = HPROENUM_FIRST;

  00078	a3 04 00 00 00	 mov	 DWORD PTR ?ms_ProviderVector@CSoundBase@@1V?$vector@USProvider@@V?$allocator@USProvider@@@std@@@std@@A+4, eax
$LN16@Initialize:
; File C:\Program Files (x86)\Microsoft Visual Studio\2019\Community\VC\Tools\MSVC\14.27.29110\include\vector

; 1504 :         return _My_data._Myfirst[_Pos];

  0007d	a1 00 00 00 00	 mov	 eax, DWORD PTR ?ms_ProviderVector@CSoundBase@@1V?$vector@USProvider@@V?$allocator@USProvider@@@std@@@std@@A
  00082	57		 push	 edi
; File C:\DS Project\DS Files\Source\ClientSource\Client\MilesLib\SoundManager3D.cpp

; 27   : 									  &ms_ProviderVector[i].name) && (i < MAX_PROVIDERS))

  00083	50		 push	 eax
  00084	83 c0 04	 add	 eax, 4
  00087	c7 45 f8 00 00
	00 00		 mov	 DWORD PTR _enum3D$[ebp], 0
  0008e	50		 push	 eax
  0008f	8d 45 f8	 lea	 eax, DWORD PTR _enum3D$[ebp]
  00092	50		 push	 eax
  00093	ff 15 00 00 00
	00		 call	 DWORD PTR __imp__AIL_enumerate_3D_providers@12
  00099	85 c0		 test	 eax, eax
  0009b	74 6b		 je	 SHORT $LN40@Initialize

; 22   : 	HPROENUM enum3D = HPROENUM_FIRST;

  0009d	33 f6		 xor	 esi, esi
  0009f	90		 npad	 1
$LL2@Initialize:

; 27   : 									  &ms_ProviderVector[i].name) && (i < MAX_PROVIDERS))

  000a0	81 fe 00 01 00
	00		 cmp	 esi, 256		; 00000100H
  000a6	7d 60		 jge	 SHORT $LN40@Initialize
; File C:\Program Files (x86)\Microsoft Visual Studio\2019\Community\VC\Tools\MSVC\14.27.29110\include\vector

; 1504 :         return _My_data._Myfirst[_Pos];

  000a8	8b 3d 00 00 00
	00		 mov	 edi, DWORD PTR ?ms_ProviderVector@CSoundBase@@1V?$vector@USProvider@@V?$allocator@USProvider@@@std@@@std@@A
; File C:\DS Project\DS Files\Source\ClientSource\Client\MilesLib\SoundManager3D.cpp

; 38   : 		if (strcmp(provider->name, "Miles Fast 2D Positional Audio") == 0)

  000ae	b9 00 00 00 00	 mov	 ecx, OFFSET ??_C@_0BP@KDDGJLNF@Miles?5Fast?52D?5Positional?5Audio@
; File C:\Program Files (x86)\Microsoft Visual Studio\2019\Community\VC\Tools\MSVC\14.27.29110\include\vector

; 1504 :         return _My_data._Myfirst[_Pos];

  000b3	8d 04 3e	 lea	 eax, DWORD PTR [esi+edi]
; File C:\DS Project\DS Files\Source\ClientSource\Client\MilesLib\SoundManager3D.cpp

; 38   : 		if (strcmp(provider->name, "Miles Fast 2D Positional Audio") == 0)

  000b6	8b 00		 mov	 eax, DWORD PTR [eax]
$LL36@Initialize:
  000b8	8a 10		 mov	 dl, BYTE PTR [eax]
  000ba	3a 11		 cmp	 dl, BYTE PTR [ecx]
  000bc	75 1a		 jne	 SHORT $LN37@Initialize
  000be	84 d2		 test	 dl, dl
  000c0	74 12		 je	 SHORT $LN38@Initialize
  000c2	8a 50 01	 mov	 dl, BYTE PTR [eax+1]
  000c5	3a 51 01	 cmp	 dl, BYTE PTR [ecx+1]
  000c8	75 0e		 jne	 SHORT $LN37@Initialize
  000ca	83 c0 02	 add	 eax, 2
  000cd	83 c1 02	 add	 ecx, 2
  000d0	84 d2		 test	 dl, dl
  000d2	75 e4		 jne	 SHORT $LL36@Initialize
$LN38@Initialize:
  000d4	33 c9		 xor	 ecx, ecx
  000d6	eb 05		 jmp	 SHORT $LN39@Initialize
$LN37@Initialize:
  000d8	1b c9		 sbb	 ecx, ecx
  000da	83 c9 01	 or	 ecx, 1
$LN39@Initialize:
  000dd	a1 00 00 00 00	 mov	 eax, DWORD PTR ?ms_pProviderDefault@CSoundBase@@1PAUSProvider@@A ; CSoundBase::ms_pProviderDefault
  000e2	85 c9		 test	 ecx, ecx
  000e4	8d 0c 3e	 lea	 ecx, DWORD PTR [esi+edi]
  000e7	0f 44 c1	 cmove	 eax, ecx

; 39   : 			ms_pProviderDefault = provider;
; 40   : 
; 41   : 		++i;

  000ea	83 c6 08	 add	 esi, 8
  000ed	a3 00 00 00 00	 mov	 DWORD PTR ?ms_pProviderDefault@CSoundBase@@1PAUSProvider@@A, eax ; CSoundBase::ms_pProviderDefault
; File C:\Program Files (x86)\Microsoft Visual Studio\2019\Community\VC\Tools\MSVC\14.27.29110\include\vector

; 1504 :         return _My_data._Myfirst[_Pos];

  000f2	8d 04 3e	 lea	 eax, DWORD PTR [esi+edi]
; File C:\DS Project\DS Files\Source\ClientSource\Client\MilesLib\SoundManager3D.cpp

; 27   : 									  &ms_ProviderVector[i].name) && (i < MAX_PROVIDERS))

  000f5	50		 push	 eax
  000f6	83 c0 04	 add	 eax, 4
  000f9	50		 push	 eax
  000fa	8d 45 f8	 lea	 eax, DWORD PTR _enum3D$[ebp]
  000fd	50		 push	 eax
  000fe	ff 15 00 00 00
	00		 call	 DWORD PTR __imp__AIL_enumerate_3D_providers@12
  00104	85 c0		 test	 eax, eax
  00106	75 98		 jne	 SHORT $LL2@Initialize
$LN40@Initialize:

; 42   : 	}
; 43   : 
; 44   : 	if (!ms_pProviderDefault)

  00108	a1 00 00 00 00	 mov	 eax, DWORD PTR ?ms_pProviderDefault@CSoundBase@@1PAUSProvider@@A ; CSoundBase::ms_pProviderDefault
  0010d	85 c0		 test	 eax, eax
  0010f	74 6c		 je	 SHORT $LN35@Initialize

; 45   : 	{
; 46   : 		CSoundBase::Destroy();
; 47   : 		return false;
; 48   : 	}
; 49   : 
; 50   : 	assert(ms_pProviderDefault != NULL);
; 51   : 
; 52   : 	if (M3D_NOERR != AIL_open_3D_provider(ms_pProviderDefault->hProvider))

  00111	ff 70 04	 push	 DWORD PTR [eax+4]
  00114	ff 15 00 00 00
	00		 call	 DWORD PTR __imp__AIL_open_3D_provider@4
  0011a	85 c0		 test	 eax, eax
  0011c	75 5f		 jne	 SHORT $LN35@Initialize

; 61   : 	}
; 62   : 
; 63   : 	m_pListener = AIL_open_3D_listener(ms_pProviderDefault->hProvider);

  0011e	a1 00 00 00 00	 mov	 eax, DWORD PTR ?ms_pProviderDefault@CSoundBase@@1PAUSProvider@@A ; CSoundBase::ms_pProviderDefault
  00123	ff 70 04	 push	 DWORD PTR [eax+4]
  00126	ff 15 00 00 00
	00		 call	 DWORD PTR __imp__AIL_open_3D_listener@4

; 64   : 
; 65   : 	SetListenerPosition(0.0f, 0.0f, 0.0f);

  0012c	83 ec 0c	 sub	 esp, 12			; 0000000cH
  0012f	89 83 a4 01 00
	00		 mov	 DWORD PTR [ebx+420], eax
  00135	8b cb		 mov	 ecx, ebx
  00137	c7 44 24 08 00
	00 00 00	 mov	 DWORD PTR [esp+8], 0
  0013f	c7 44 24 04 00
	00 00 00	 mov	 DWORD PTR [esp+4], 0
  00147	c7 04 24 00 00
	00 00		 mov	 DWORD PTR [esp], 0
  0014e	e8 00 00 00 00	 call	 ?SetListenerPosition@CSoundManager3D@@QAEXMMM@Z ; CSoundManager3D::SetListenerPosition
  00153	33 f6		 xor	 esi, esi
  00155	8d 7b 24	 lea	 edi, DWORD PTR [ebx+36]
$LL6@Initialize:

; 66   : 
; 67   : 	for (i = 0; i < INSTANCE_MAX_COUNT; ++i)
; 68   : 	{
; 69   : 		m_Instances[i].Initialize();

  00158	8b 07		 mov	 eax, DWORD PTR [edi]
  0015a	8b cf		 mov	 ecx, edi
  0015c	ff 50 04	 call	 DWORD PTR [eax+4]

; 70   : 		m_bLockingFlag[i] = false;

  0015f	c6 44 33 04 00	 mov	 BYTE PTR [ebx+esi+4], 0
  00164	83 c7 0c	 add	 edi, 12			; 0000000cH
  00167	46		 inc	 esi
  00168	83 fe 20	 cmp	 esi, 32			; 00000020H
  0016b	7c eb		 jl	 SHORT $LL6@Initialize

; 71   : 	}
; 72   : 
; 73   : 	m_bInit = true;

  0016d	5f		 pop	 edi
  0016e	5e		 pop	 esi
  0016f	c6 83 a8 01 00
	00 01		 mov	 BYTE PTR [ebx+424], 1

; 74   : 	return true;

  00176	b0 01		 mov	 al, 1
  00178	5b		 pop	 ebx

; 75   : }

  00179	8b e5		 mov	 esp, ebp
  0017b	5d		 pop	 ebp
  0017c	c3		 ret	 0
$LN35@Initialize:

; 53   : 	{
; 54   : //		assert(!"AIL_open_3D_provider error");
; 55   : //		char buf[64];
; 56   : //		sprintf(buf, "Error AIL_open_3D_provider: %s\n", AIL_last_error());
; 57   : //		OutputDebugString(buf);
; 58   : 
; 59   : 		CSoundBase::Destroy();

  0017d	8b cb		 mov	 ecx, ebx
  0017f	e8 00 00 00 00	 call	 ?Destroy@CSoundBase@@QAEXXZ ; CSoundBase::Destroy
  00184	5f		 pop	 edi
  00185	5e		 pop	 esi

; 60   : 		return false;

  00186	32 c0		 xor	 al, al
  00188	5b		 pop	 ebx

; 75   : }

  00189	8b e5		 mov	 esp, ebp
  0018b	5d		 pop	 ebp
  0018c	c3		 ret	 0
?Initialize@CSoundManager3D@@QAE_NXZ ENDP		; CSoundManager3D::Initialize
_TEXT	ENDS
; Function compile flags: /Ogtp
; File C:\DS Project\DS Files\Source\ClientSource\Client\MilesLib\SoundManager3D.cpp
;	COMDAT ??1CSoundManager3D@@UAE@XZ
_TEXT	SEGMENT
__$EHRec$ = -12						; size = 12
??1CSoundManager3D@@UAE@XZ PROC				; CSoundManager3D::~CSoundManager3D, COMDAT
; _this$ = ecx

; 10   : {

  00000	55		 push	 ebp
  00001	8b ec		 mov	 ebp, esp
  00003	6a ff		 push	 -1
  00005	68 00 00 00 00	 push	 __ehhandler$??1CSoundManager3D@@UAE@XZ
  0000a	64 a1 00 00 00
	00		 mov	 eax, DWORD PTR fs:0
  00010	50		 push	 eax
  00011	56		 push	 esi
  00012	a1 00 00 00 00	 mov	 eax, DWORD PTR ___security_cookie
  00017	33 c5		 xor	 eax, ebp
  00019	50		 push	 eax
  0001a	8d 45 f4	 lea	 eax, DWORD PTR __$EHRec$[ebp]
  0001d	64 a3 00 00 00
	00		 mov	 DWORD PTR fs:0, eax
  00023	8b f1		 mov	 esi, ecx

; 11   : }

  00025	68 00 00 00 00	 push	 OFFSET ??1CSoundInstance3D@@UAE@XZ ; CSoundInstance3D::~CSoundInstance3D
  0002a	6a 20		 push	 32			; 00000020H
  0002c	6a 0c		 push	 12			; 0000000cH
  0002e	8d 46 24	 lea	 eax, DWORD PTR [esi+36]
  00031	c7 06 00 00 00
	00		 mov	 DWORD PTR [esi], OFFSET ??_7CSoundManager3D@@6B@
  00037	50		 push	 eax
  00038	e8 00 00 00 00	 call	 ??_M@YGXPAXIIP6EX0@Z@Z
  0003d	8b ce		 mov	 ecx, esi
  0003f	e8 00 00 00 00	 call	 ??1CSoundBase@@UAE@XZ	; CSoundBase::~CSoundBase
  00044	8b 4d f4	 mov	 ecx, DWORD PTR __$EHRec$[ebp]
  00047	64 89 0d 00 00
	00 00		 mov	 DWORD PTR fs:0, ecx
  0004e	59		 pop	 ecx
  0004f	5e		 pop	 esi
  00050	8b e5		 mov	 esp, ebp
  00052	5d		 pop	 ebp
  00053	c3		 ret	 0
  00054	cc		 int	 3
  00055	cc		 int	 3
  00056	cc		 int	 3
  00057	cc		 int	 3
  00058	cc		 int	 3
_TEXT	ENDS
;	COMDAT text$x
text$x	SEGMENT
__ehhandler$??1CSoundManager3D@@UAE@XZ:
  00000	90		 npad	 1
  00001	90		 npad	 1
  00002	8b 54 24 08	 mov	 edx, DWORD PTR [esp+8]
  00006	8d 42 0c	 lea	 eax, DWORD PTR [edx+12]
  00009	8b 4a f8	 mov	 ecx, DWORD PTR [edx-8]
  0000c	33 c8		 xor	 ecx, eax
  0000e	e8 00 00 00 00	 call	 @__security_check_cookie@4
  00013	b8 00 00 00 00	 mov	 eax, OFFSET __ehfuncinfo$??1CSoundManager3D@@UAE@XZ
  00018	e9 00 00 00 00	 jmp	 ___CxxFrameHandler3
text$x	ENDS
??1CSoundManager3D@@UAE@XZ ENDP				; CSoundManager3D::~CSoundManager3D
; Function compile flags: /Ogtp
; File C:\DS Project\DS Files\Source\ClientSource\Client\MilesLib\SoundManager3D.cpp
;	COMDAT ??0CSoundManager3D@@QAE@XZ
_TEXT	SEGMENT
_this$ = -16						; size = 4
__$EHRec$ = -12						; size = 12
??0CSoundManager3D@@QAE@XZ PROC				; CSoundManager3D::CSoundManager3D, COMDAT
; _this$ = ecx

; 5    : {

  00000	55		 push	 ebp
  00001	8b ec		 mov	 ebp, esp
  00003	6a ff		 push	 -1
  00005	68 00 00 00 00	 push	 __ehhandler$??0CSoundManager3D@@QAE@XZ
  0000a	64 a1 00 00 00
	00		 mov	 eax, DWORD PTR fs:0
  00010	50		 push	 eax
  00011	51		 push	 ecx
  00012	56		 push	 esi
  00013	a1 00 00 00 00	 mov	 eax, DWORD PTR ___security_cookie
  00018	33 c5		 xor	 eax, ebp
  0001a	50		 push	 eax
  0001b	8d 45 f4	 lea	 eax, DWORD PTR __$EHRec$[ebp]
  0001e	64 a3 00 00 00
	00		 mov	 DWORD PTR fs:0, eax
  00024	8b f1		 mov	 esi, ecx
  00026	89 75 f0	 mov	 DWORD PTR _this$[ebp], esi
  00029	e8 00 00 00 00	 call	 ??0CSoundBase@@QAE@XZ	; CSoundBase::CSoundBase
  0002e	68 00 00 00 00	 push	 OFFSET ??1CSoundInstance3D@@UAE@XZ ; CSoundInstance3D::~CSoundInstance3D
  00033	68 00 00 00 00	 push	 OFFSET ??0CSoundInstance3D@@QAE@XZ ; CSoundInstance3D::CSoundInstance3D
  00038	6a 20		 push	 32			; 00000020H
  0003a	6a 0c		 push	 12			; 0000000cH
  0003c	8d 46 24	 lea	 eax, DWORD PTR [esi+36]
  0003f	c7 45 fc 00 00
	00 00		 mov	 DWORD PTR __$EHRec$[ebp+8], 0
  00046	50		 push	 eax
  00047	c7 06 00 00 00
	00		 mov	 DWORD PTR [esi], OFFSET ??_7CSoundManager3D@@6B@
  0004d	e8 00 00 00 00	 call	 ??_L@YGXPAXIIP6EX0@Z1@Z

; 6    : 	m_bInit = false;

  00052	c6 86 a8 01 00
	00 00		 mov	 BYTE PTR [esi+424], 0

; 7    : }

  00059	8b c6		 mov	 eax, esi
  0005b	8b 4d f4	 mov	 ecx, DWORD PTR __$EHRec$[ebp]
  0005e	64 89 0d 00 00
	00 00		 mov	 DWORD PTR fs:0, ecx
  00065	59		 pop	 ecx
  00066	5e		 pop	 esi
  00067	8b e5		 mov	 esp, ebp
  00069	5d		 pop	 ebp
  0006a	c3		 ret	 0
_TEXT	ENDS
;	COMDAT text$x
text$x	SEGMENT
__unwindfunclet$??0CSoundManager3D@@QAE@XZ$0:
  00000	8b 4d f0	 mov	 ecx, DWORD PTR _this$[ebp]
  00003	e9 00 00 00 00	 jmp	 ??1CSoundBase@@UAE@XZ	; CSoundBase::~CSoundBase
  00008	cc		 int	 3
  00009	cc		 int	 3
  0000a	cc		 int	 3
  0000b	cc		 int	 3
  0000c	cc		 int	 3
__ehhandler$??0CSoundManager3D@@QAE@XZ:
  0000d	90		 npad	 1
  0000e	90		 npad	 1
  0000f	8b 54 24 08	 mov	 edx, DWORD PTR [esp+8]
  00013	8d 42 0c	 lea	 eax, DWORD PTR [edx+12]
  00016	8b 4a f4	 mov	 ecx, DWORD PTR [edx-12]
  00019	33 c8		 xor	 ecx, eax
  0001b	e8 00 00 00 00	 call	 @__security_check_cookie@4
  00020	b8 00 00 00 00	 mov	 eax, OFFSET __ehfuncinfo$??0CSoundManager3D@@QAE@XZ
  00025	e9 00 00 00 00	 jmp	 ___CxxFrameHandler3
text$x	ENDS
??0CSoundManager3D@@QAE@XZ ENDP				; CSoundManager3D::CSoundManager3D
; Function compile flags: /Ogtp
; File C:\Program Files (x86)\Microsoft Visual Studio\2019\Community\VC\Tools\MSVC\14.27.29110\include\exception
;	COMDAT ?_Throw_bad_array_new_length@std@@YAXXZ
_TEXT	SEGMENT
$T1 = -12						; size = 12
?_Throw_bad_array_new_length@std@@YAXXZ PROC		; std::_Throw_bad_array_new_length, COMDAT

; 320  : [[noreturn]] inline void _Throw_bad_array_new_length() {

  00000	55		 push	 ebp
  00001	8b ec		 mov	 ebp, esp
  00003	83 ec 0c	 sub	 esp, 12			; 0000000cH

; 321  :     _THROW(bad_array_new_length{});

  00006	8d 4d f4	 lea	 ecx, DWORD PTR $T1[ebp]
  00009	e8 00 00 00 00	 call	 ??0bad_array_new_length@std@@QAE@XZ ; std::bad_array_new_length::bad_array_new_length
  0000e	68 00 00 00 00	 push	 OFFSET __TI3?AVbad_array_new_length@std@@
  00013	8d 45 f4	 lea	 eax, DWORD PTR $T1[ebp]
  00016	50		 push	 eax
  00017	e8 00 00 00 00	 call	 __CxxThrowException@8
$LN3@Throw_bad_:
  0001c	cc		 int	 3
?_Throw_bad_array_new_length@std@@YAXXZ ENDP		; std::_Throw_bad_array_new_length
_TEXT	ENDS
; Function compile flags: /Ogtp
; File C:\Program Files (x86)\Microsoft Visual Studio\2019\Community\VC\Tools\MSVC\14.27.29110\include\vcruntime_exception.h
;	COMDAT ??_Gbad_array_new_length@std@@UAEPAXI@Z
_TEXT	SEGMENT
___flags$ = 8						; size = 4
??_Gbad_array_new_length@std@@UAEPAXI@Z PROC		; std::bad_array_new_length::`scalar deleting destructor', COMDAT
; _this$ = ecx
  00000	55		 push	 ebp
  00001	8b ec		 mov	 ebp, esp

; 89   :     {

  00003	56		 push	 esi
  00004	8b f1		 mov	 esi, ecx

; 90   :         __std_exception_destroy(&_Data);

  00006	8d 46 04	 lea	 eax, DWORD PTR [esi+4]
  00009	c7 06 00 00 00
	00		 mov	 DWORD PTR [esi], OFFSET ??_7exception@std@@6B@
  0000f	50		 push	 eax
  00010	e8 00 00 00 00	 call	 ___std_exception_destroy
  00015	83 c4 04	 add	 esp, 4
  00018	f6 45 08 01	 test	 BYTE PTR ___flags$[ebp], 1
  0001c	74 0b		 je	 SHORT $LN12@scalar
  0001e	6a 0c		 push	 12			; 0000000cH
  00020	56		 push	 esi
  00021	e8 00 00 00 00	 call	 ??3@YAXPAXI@Z		; operator delete
  00026	83 c4 08	 add	 esp, 8
$LN12@scalar:
  00029	8b c6		 mov	 eax, esi
  0002b	5e		 pop	 esi
  0002c	5d		 pop	 ebp
  0002d	c2 04 00	 ret	 4
??_Gbad_array_new_length@std@@UAEPAXI@Z ENDP		; std::bad_array_new_length::`scalar deleting destructor'
_TEXT	ENDS
; Function compile flags: /Ogtp
; File C:\Program Files (x86)\Microsoft Visual Studio\2019\Community\VC\Tools\MSVC\14.27.29110\include\vcruntime_exception.h
;	COMDAT ??0bad_array_new_length@std@@QAE@ABV01@@Z
_TEXT	SEGMENT
___that$ = 8						; size = 4
??0bad_array_new_length@std@@QAE@ABV01@@Z PROC		; std::bad_array_new_length::bad_array_new_length, COMDAT
; _this$ = ecx
  00000	55		 push	 ebp
  00001	8b ec		 mov	 ebp, esp

; 72   :     {

  00003	56		 push	 esi
  00004	8b f1		 mov	 esi, ecx
  00006	0f 57 c0	 xorps	 xmm0, xmm0

; 71   :         : _Data()

  00009	8d 46 04	 lea	 eax, DWORD PTR [esi+4]

; 73   :         __std_exception_copy(&_Other._Data, &_Data);

  0000c	50		 push	 eax
  0000d	c7 06 00 00 00
	00		 mov	 DWORD PTR [esi], OFFSET ??_7exception@std@@6B@
  00013	66 0f d6 00	 movq	 QWORD PTR [eax], xmm0
  00017	8b 45 08	 mov	 eax, DWORD PTR ___that$[ebp]
  0001a	83 c0 04	 add	 eax, 4
  0001d	50		 push	 eax
  0001e	e8 00 00 00 00	 call	 ___std_exception_copy
  00023	83 c4 08	 add	 esp, 8
  00026	c7 06 00 00 00
	00		 mov	 DWORD PTR [esi], OFFSET ??_7bad_array_new_length@std@@6B@
  0002c	8b c6		 mov	 eax, esi
  0002e	5e		 pop	 esi
  0002f	5d		 pop	 ebp
  00030	c2 04 00	 ret	 4
??0bad_array_new_length@std@@QAE@ABV01@@Z ENDP		; std::bad_array_new_length::bad_array_new_length
_TEXT	ENDS
; Function compile flags: /Ogtp
; File C:\Program Files (x86)\Microsoft Visual Studio\2019\Community\VC\Tools\MSVC\14.27.29110\include\vcruntime_exception.h
;	COMDAT ??1bad_array_new_length@std@@UAE@XZ
_TEXT	SEGMENT
??1bad_array_new_length@std@@UAE@XZ PROC		; std::bad_array_new_length::~bad_array_new_length, COMDAT
; _this$ = ecx

; 90   :         __std_exception_destroy(&_Data);

  00000	8d 41 04	 lea	 eax, DWORD PTR [ecx+4]
  00003	c7 01 00 00 00
	00		 mov	 DWORD PTR [ecx], OFFSET ??_7exception@std@@6B@
  00009	50		 push	 eax
  0000a	e8 00 00 00 00	 call	 ___std_exception_destroy
  0000f	59		 pop	 ecx
  00010	c3		 ret	 0
??1bad_array_new_length@std@@UAE@XZ ENDP		; std::bad_array_new_length::~bad_array_new_length
_TEXT	ENDS
; Function compile flags: /Ogtp
; File C:\Program Files (x86)\Microsoft Visual Studio\2019\Community\VC\Tools\MSVC\14.27.29110\include\vcruntime_exception.h
;	COMDAT ??0bad_array_new_length@std@@QAE@XZ
_TEXT	SEGMENT
??0bad_array_new_length@std@@QAE@XZ PROC		; std::bad_array_new_length::bad_array_new_length, COMDAT
; _this$ = ecx

; 141  :     {

  00000	0f 57 c0	 xorps	 xmm0, xmm0

; 142  :     }

  00003	8b c1		 mov	 eax, ecx

; 65   :         : _Data()

  00005	66 0f d6 41 04	 movq	 QWORD PTR [ecx+4], xmm0

; 66   :     {
; 67   :         _Data._What = _Message;

  0000a	c7 41 04 00 00
	00 00		 mov	 DWORD PTR [ecx+4], OFFSET ??_C@_0BF@KINCDENJ@bad?5array?5new?5length@

; 141  :     {

  00011	c7 01 00 00 00
	00		 mov	 DWORD PTR [ecx], OFFSET ??_7bad_array_new_length@std@@6B@

; 142  :     }

  00017	c3		 ret	 0
??0bad_array_new_length@std@@QAE@XZ ENDP		; std::bad_array_new_length::bad_array_new_length
_TEXT	ENDS
; Function compile flags: /Ogtp
; File C:\Program Files (x86)\Microsoft Visual Studio\2019\Community\VC\Tools\MSVC\14.27.29110\include\vcruntime_exception.h
;	COMDAT ??_Gbad_alloc@std@@UAEPAXI@Z
_TEXT	SEGMENT
___flags$ = 8						; size = 4
??_Gbad_alloc@std@@UAEPAXI@Z PROC			; std::bad_alloc::`scalar deleting destructor', COMDAT
; _this$ = ecx
  00000	55		 push	 ebp
  00001	8b ec		 mov	 ebp, esp

; 89   :     {

  00003	56		 push	 esi
  00004	8b f1		 mov	 esi, ecx

; 90   :         __std_exception_destroy(&_Data);

  00006	8d 46 04	 lea	 eax, DWORD PTR [esi+4]
  00009	c7 06 00 00 00
	00		 mov	 DWORD PTR [esi], OFFSET ??_7exception@std@@6B@
  0000f	50		 push	 eax
  00010	e8 00 00 00 00	 call	 ___std_exception_destroy
  00015	83 c4 04	 add	 esp, 4
  00018	f6 45 08 01	 test	 BYTE PTR ___flags$[ebp], 1
  0001c	74 0b		 je	 SHORT $LN9@scalar
  0001e	6a 0c		 push	 12			; 0000000cH
  00020	56		 push	 esi
  00021	e8 00 00 00 00	 call	 ??3@YAXPAXI@Z		; operator delete
  00026	83 c4 08	 add	 esp, 8
$LN9@scalar:
  00029	8b c6		 mov	 eax, esi
  0002b	5e		 pop	 esi
  0002c	5d		 pop	 ebp
  0002d	c2 04 00	 ret	 4
??_Gbad_alloc@std@@UAEPAXI@Z ENDP			; std::bad_alloc::`scalar deleting destructor'
_TEXT	ENDS
; Function compile flags: /Ogtp
; File C:\Program Files (x86)\Microsoft Visual Studio\2019\Community\VC\Tools\MSVC\14.27.29110\include\vcruntime_exception.h
;	COMDAT ??0bad_alloc@std@@QAE@ABV01@@Z
_TEXT	SEGMENT
___that$ = 8						; size = 4
??0bad_alloc@std@@QAE@ABV01@@Z PROC			; std::bad_alloc::bad_alloc, COMDAT
; _this$ = ecx
  00000	55		 push	 ebp
  00001	8b ec		 mov	 ebp, esp

; 72   :     {

  00003	56		 push	 esi
  00004	8b f1		 mov	 esi, ecx
  00006	0f 57 c0	 xorps	 xmm0, xmm0

; 71   :         : _Data()

  00009	8d 46 04	 lea	 eax, DWORD PTR [esi+4]

; 73   :         __std_exception_copy(&_Other._Data, &_Data);

  0000c	50		 push	 eax
  0000d	c7 06 00 00 00
	00		 mov	 DWORD PTR [esi], OFFSET ??_7exception@std@@6B@
  00013	66 0f d6 00	 movq	 QWORD PTR [eax], xmm0
  00017	8b 45 08	 mov	 eax, DWORD PTR ___that$[ebp]
  0001a	83 c0 04	 add	 eax, 4
  0001d	50		 push	 eax
  0001e	e8 00 00 00 00	 call	 ___std_exception_copy
  00023	83 c4 08	 add	 esp, 8
  00026	c7 06 00 00 00
	00		 mov	 DWORD PTR [esi], OFFSET ??_7bad_alloc@std@@6B@
  0002c	8b c6		 mov	 eax, esi
  0002e	5e		 pop	 esi
  0002f	5d		 pop	 ebp
  00030	c2 04 00	 ret	 4
??0bad_alloc@std@@QAE@ABV01@@Z ENDP			; std::bad_alloc::bad_alloc
_TEXT	ENDS
; Function compile flags: /Ogtp
; File C:\Program Files (x86)\Microsoft Visual Studio\2019\Community\VC\Tools\MSVC\14.27.29110\include\vcruntime_exception.h
;	COMDAT ??_Gexception@std@@UAEPAXI@Z
_TEXT	SEGMENT
___flags$ = 8						; size = 4
??_Gexception@std@@UAEPAXI@Z PROC			; std::exception::`scalar deleting destructor', COMDAT
; _this$ = ecx
  00000	55		 push	 ebp
  00001	8b ec		 mov	 ebp, esp

; 89   :     {

  00003	56		 push	 esi
  00004	8b f1		 mov	 esi, ecx

; 90   :         __std_exception_destroy(&_Data);

  00006	8d 46 04	 lea	 eax, DWORD PTR [esi+4]
  00009	c7 06 00 00 00
	00		 mov	 DWORD PTR [esi], OFFSET ??_7exception@std@@6B@
  0000f	50		 push	 eax
  00010	e8 00 00 00 00	 call	 ___std_exception_destroy
  00015	83 c4 04	 add	 esp, 4
  00018	f6 45 08 01	 test	 BYTE PTR ___flags$[ebp], 1
  0001c	74 0b		 je	 SHORT $LN6@scalar
  0001e	6a 0c		 push	 12			; 0000000cH
  00020	56		 push	 esi
  00021	e8 00 00 00 00	 call	 ??3@YAXPAXI@Z		; operator delete
  00026	83 c4 08	 add	 esp, 8
$LN6@scalar:
  00029	8b c6		 mov	 eax, esi
  0002b	5e		 pop	 esi
  0002c	5d		 pop	 ebp
  0002d	c2 04 00	 ret	 4
??_Gexception@std@@UAEPAXI@Z ENDP			; std::exception::`scalar deleting destructor'
_TEXT	ENDS
; Function compile flags: /Ogtp
; File C:\Program Files (x86)\Microsoft Visual Studio\2019\Community\VC\Tools\MSVC\14.27.29110\include\vcruntime_exception.h
;	COMDAT ?what@exception@std@@UBEPBDXZ
_TEXT	SEGMENT
?what@exception@std@@UBEPBDXZ PROC			; std::exception::what, COMDAT
; _this$ = ecx

; 95   :         return _Data._What ? _Data._What : "Unknown exception";

  00000	8b 49 04	 mov	 ecx, DWORD PTR [ecx+4]
  00003	b8 00 00 00 00	 mov	 eax, OFFSET ??_C@_0BC@EOODALEL@Unknown?5exception@
  00008	85 c9		 test	 ecx, ecx
  0000a	0f 45 c1	 cmovne	 eax, ecx

; 96   :     }

  0000d	c3		 ret	 0
?what@exception@std@@UBEPBDXZ ENDP			; std::exception::what
_TEXT	ENDS
; Function compile flags: /Ogtp
; File C:\Program Files (x86)\Microsoft Visual Studio\2019\Community\VC\Tools\MSVC\14.27.29110\include\vcruntime_exception.h
;	COMDAT ??1exception@std@@UAE@XZ
_TEXT	SEGMENT
??1exception@std@@UAE@XZ PROC				; std::exception::~exception, COMDAT
; _this$ = ecx

; 90   :         __std_exception_destroy(&_Data);

  00000	8d 41 04	 lea	 eax, DWORD PTR [ecx+4]
  00003	c7 01 00 00 00
	00		 mov	 DWORD PTR [ecx], OFFSET ??_7exception@std@@6B@
  00009	50		 push	 eax
  0000a	e8 00 00 00 00	 call	 ___std_exception_destroy
  0000f	59		 pop	 ecx

; 91   :     }

  00010	c3		 ret	 0
??1exception@std@@UAE@XZ ENDP				; std::exception::~exception
_TEXT	ENDS
; Function compile flags: /Ogtp
; File C:\Program Files (x86)\Microsoft Visual Studio\2019\Community\VC\Tools\MSVC\14.27.29110\include\vcruntime_exception.h
;	COMDAT ??0exception@std@@QAE@ABV01@@Z
_TEXT	SEGMENT
__Other$ = 8						; size = 4
??0exception@std@@QAE@ABV01@@Z PROC			; std::exception::exception, COMDAT
; _this$ = ecx

; 72   :     {

  00000	55		 push	 ebp
  00001	8b ec		 mov	 ebp, esp
  00003	56		 push	 esi
  00004	8b f1		 mov	 esi, ecx
  00006	0f 57 c0	 xorps	 xmm0, xmm0
  00009	8d 46 04	 lea	 eax, DWORD PTR [esi+4]

; 73   :         __std_exception_copy(&_Other._Data, &_Data);

  0000c	50		 push	 eax
  0000d	c7 06 00 00 00
	00		 mov	 DWORD PTR [esi], OFFSET ??_7exception@std@@6B@
  00013	66 0f d6 00	 movq	 QWORD PTR [eax], xmm0
  00017	8b 45 08	 mov	 eax, DWORD PTR __Other$[ebp]
  0001a	83 c0 04	 add	 eax, 4
  0001d	50		 push	 eax
  0001e	e8 00 00 00 00	 call	 ___std_exception_copy
  00023	83 c4 08	 add	 esp, 8

; 74   :     }

  00026	8b c6		 mov	 eax, esi
  00028	5e		 pop	 esi
  00029	5d		 pop	 ebp
  0002a	c2 04 00	 ret	 4
??0exception@std@@QAE@ABV01@@Z ENDP			; std::exception::exception
_TEXT	ENDS
END
