; Listing generated by Microsoft (R) Optimizing Compiler Version 19.27.29112.0 

	TITLE	C:\DS Project\DS Files\Source\ClientSource\Client\eterPythonLib\PythonWindowManager.cpp
	.686P
	.XMM
	include listing.inc
	.model	flat

INCLUDELIB LIBCMT
INCLUDELIB OLDNAMES

PUBLIC	?g_bShowOverInWindowName@@3HA			; g_bShowOverInWindowName
_BSS	SEGMENT
?g_bShowOverInWindowName@@3HA DD 01H DUP (?)		; g_bShowOverInWindowName
_BSS	ENDS
CONST	SEGMENT
?piecewise_construct@std@@3Upiecewise_construct_t@1@B	ORG $+1 ; std::piecewise_construct
CONST	ENDS
PUBLIC	??0exception@std@@QAE@ABV01@@Z			; std::exception::exception
PUBLIC	??1exception@std@@UAE@XZ			; std::exception::~exception
PUBLIC	?what@exception@std@@UBEPBDXZ			; std::exception::what
PUBLIC	??_Gexception@std@@UAEPAXI@Z			; std::exception::`scalar deleting destructor'
PUBLIC	??0bad_alloc@std@@QAE@ABV01@@Z			; std::bad_alloc::bad_alloc
PUBLIC	??_Gbad_alloc@std@@UAEPAXI@Z			; std::bad_alloc::`scalar deleting destructor'
PUBLIC	??0bad_array_new_length@std@@QAE@XZ		; std::bad_array_new_length::bad_array_new_length
PUBLIC	??1bad_array_new_length@std@@UAE@XZ		; std::bad_array_new_length::~bad_array_new_length
PUBLIC	??0bad_array_new_length@std@@QAE@ABV01@@Z	; std::bad_array_new_length::bad_array_new_length
PUBLIC	??_Gbad_array_new_length@std@@UAEPAXI@Z		; std::bad_array_new_length::`scalar deleting destructor'
PUBLIC	?_Throw_bad_array_new_length@std@@YAXXZ		; std::_Throw_bad_array_new_length
PUBLIC	?_Xlen_string@std@@YAXXZ			; std::_Xlen_string
PUBLIC	??1?$basic_string@DU?$char_traits@D@std@@V?$allocator@D@2@@std@@QAE@XZ ; std::basic_string<char,std::char_traits<char>,std::allocator<char> >::~basic_string<char,std::char_traits<char>,std::allocator<char> >
PUBLIC	?assign@?$basic_string@DU?$char_traits@D@std@@V?$allocator@D@2@@std@@QAEAAV12@QBD@Z ; std::basic_string<char,std::char_traits<char>,std::allocator<char> >::assign
PUBLIC	?_Throw_tree_length_error@std@@YAXXZ		; std::_Throw_tree_length_error
PUBLIC	??1?$CSingleton@VCWindowManager@UI@@@@UAE@XZ	; CSingleton<UI::CWindowManager>::~CSingleton<UI::CWindowManager>
PUBLIC	??_G?$CSingleton@VCWindowManager@UI@@@@UAEPAXI@Z ; CSingleton<UI::CWindowManager>::`scalar deleting destructor'
PUBLIC	??0CWindowManager@UI@@QAE@XZ			; UI::CWindowManager::CWindowManager
PUBLIC	??1CWindowManager@UI@@UAE@XZ			; UI::CWindowManager::~CWindowManager
PUBLIC	?Destroy@CWindowManager@UI@@QAEXXZ		; UI::CWindowManager::Destroy
PUBLIC	?GetAspect@CWindowManager@UI@@QAEMXZ		; UI::CWindowManager::GetAspect
PUBLIC	?SetScreenSize@CWindowManager@UI@@QAEXJJ@Z	; UI::CWindowManager::SetScreenSize
PUBLIC	?SetResolution@CWindowManager@UI@@QAEXHH@Z	; UI::CWindowManager::SetResolution
PUBLIC	?SetMouseHandler@CWindowManager@UI@@QAEXPAU_object@@@Z ; UI::CWindowManager::SetMouseHandler
PUBLIC	?GetMousePosition@CWindowManager@UI@@QAEXAAJ0@Z	; UI::CWindowManager::GetMousePosition
PUBLIC	?IsDragging@CWindowManager@UI@@QAEHXZ		; UI::CWindowManager::IsDragging
PUBLIC	?SetParent@CWindowManager@UI@@QAEXPAVCWindow@2@0@Z ; UI::CWindowManager::SetParent
PUBLIC	?SetPickAlways@CWindowManager@UI@@QAEXPAVCWindow@2@@Z ; UI::CWindowManager::SetPickAlways
PUBLIC	?RegisterWindow@CWindowManager@UI@@QAEPAVCWindow@2@PAU_object@@PBD@Z ; UI::CWindowManager::RegisterWindow
PUBLIC	?RegisterTypeWindow@CWindowManager@UI@@QAEPAVCWindow@2@PAU_object@@KPBD@Z ; UI::CWindowManager::RegisterTypeWindow
PUBLIC	?RegisterSlotWindow@CWindowManager@UI@@QAEPAVCWindow@2@PAU_object@@PBD@Z ; UI::CWindowManager::RegisterSlotWindow
PUBLIC	?RegisterGridSlotWindow@CWindowManager@UI@@QAEPAVCWindow@2@PAU_object@@PBD@Z ; UI::CWindowManager::RegisterGridSlotWindow
PUBLIC	?RegisterTextLine@CWindowManager@UI@@QAEPAVCWindow@2@PAU_object@@PBD@Z ; UI::CWindowManager::RegisterTextLine
PUBLIC	?RegisterMarkBox@CWindowManager@UI@@QAEPAVCWindow@2@PAU_object@@PBD@Z ; UI::CWindowManager::RegisterMarkBox
PUBLIC	?RegisterImageBox@CWindowManager@UI@@QAEPAVCWindow@2@PAU_object@@PBD@Z ; UI::CWindowManager::RegisterImageBox
PUBLIC	?RegisterExpandedImageBox@CWindowManager@UI@@QAEPAVCWindow@2@PAU_object@@PBD@Z ; UI::CWindowManager::RegisterExpandedImageBox
PUBLIC	?RegisterAniImageBox@CWindowManager@UI@@QAEPAVCWindow@2@PAU_object@@PBD@Z ; UI::CWindowManager::RegisterAniImageBox
PUBLIC	?RegisterButton@CWindowManager@UI@@QAEPAVCWindow@2@PAU_object@@PBD@Z ; UI::CWindowManager::RegisterButton
PUBLIC	?RegisterRadioButton@CWindowManager@UI@@QAEPAVCWindow@2@PAU_object@@PBD@Z ; UI::CWindowManager::RegisterRadioButton
PUBLIC	?RegisterToggleButton@CWindowManager@UI@@QAEPAVCWindow@2@PAU_object@@PBD@Z ; UI::CWindowManager::RegisterToggleButton
PUBLIC	?RegisterDragButton@CWindowManager@UI@@QAEPAVCWindow@2@PAU_object@@PBD@Z ; UI::CWindowManager::RegisterDragButton
PUBLIC	?RegisterBox@CWindowManager@UI@@QAEPAVCWindow@2@PAU_object@@PBD@Z ; UI::CWindowManager::RegisterBox
PUBLIC	?RegisterBar@CWindowManager@UI@@QAEPAVCWindow@2@PAU_object@@PBD@Z ; UI::CWindowManager::RegisterBar
PUBLIC	?RegisterLine@CWindowManager@UI@@QAEPAVCWindow@2@PAU_object@@PBD@Z ; UI::CWindowManager::RegisterLine
PUBLIC	?RegisterBar3D@CWindowManager@UI@@QAEPAVCWindow@2@PAU_object@@PBD@Z ; UI::CWindowManager::RegisterBar3D
PUBLIC	?RegisterNumberLine@CWindowManager@UI@@QAEPAVCWindow@2@PAU_object@@PBD@Z ; UI::CWindowManager::RegisterNumberLine
PUBLIC	?DestroyWindow@CWindowManager@UI@@QAEXPAVCWindow@2@@Z ; UI::CWindowManager::DestroyWindow
PUBLIC	?NotifyDestroyWindow@CWindowManager@UI@@QAEXPAVCWindow@2@@Z ; UI::CWindowManager::NotifyDestroyWindow
PUBLIC	?IsAttaching@CWindowManager@UI@@QAEHXZ		; UI::CWindowManager::IsAttaching
PUBLIC	?GetAttachingType@CWindowManager@UI@@QAEKXZ	; UI::CWindowManager::GetAttachingType
PUBLIC	?GetAttachingIndex@CWindowManager@UI@@QAEKXZ	; UI::CWindowManager::GetAttachingIndex
PUBLIC	?GetAttachingSlotNumber@CWindowManager@UI@@QAEKXZ ; UI::CWindowManager::GetAttachingSlotNumber
PUBLIC	?GetAttachingIconSize@CWindowManager@UI@@QAEXPAE0@Z ; UI::CWindowManager::GetAttachingIconSize
PUBLIC	?AttachIcon@CWindowManager@UI@@QAEXKKKEE@Z	; UI::CWindowManager::AttachIcon
PUBLIC	?DeattachIcon@CWindowManager@UI@@QAEXXZ		; UI::CWindowManager::DeattachIcon
PUBLIC	?SetAttachingFlag@CWindowManager@UI@@QAEXH@Z	; UI::CWindowManager::SetAttachingFlag
PUBLIC	?OnceIgnoreMouseLeftButtonUpEvent@CWindowManager@UI@@QAEXXZ ; UI::CWindowManager::OnceIgnoreMouseLeftButtonUpEvent
PUBLIC	?LockWindow@CWindowManager@UI@@QAEXPAVCWindow@2@@Z ; UI::CWindowManager::LockWindow
PUBLIC	?UnlockWindow@CWindowManager@UI@@QAEXXZ		; UI::CWindowManager::UnlockWindow
PUBLIC	?ActivateWindow@CWindowManager@UI@@QAEXPAVCWindow@2@@Z ; UI::CWindowManager::ActivateWindow
PUBLIC	?DeactivateWindow@CWindowManager@UI@@QAEXXZ	; UI::CWindowManager::DeactivateWindow
PUBLIC	?GetActivateWindow@CWindowManager@UI@@QAEPAVCWindow@2@XZ ; UI::CWindowManager::GetActivateWindow
PUBLIC	?SetTop@CWindowManager@UI@@QAEXPAVCWindow@2@@Z	; UI::CWindowManager::SetTop
PUBLIC	?SetTopUIWindow@CWindowManager@UI@@QAEXXZ	; UI::CWindowManager::SetTopUIWindow
PUBLIC	?ResetCapture@CWindowManager@UI@@QAEXXZ		; UI::CWindowManager::ResetCapture
PUBLIC	?Update@CWindowManager@UI@@QAEXXZ		; UI::CWindowManager::Update
PUBLIC	?Render@CWindowManager@UI@@QAEXXZ		; UI::CWindowManager::Render
PUBLIC	?RunMouseMove@CWindowManager@UI@@QAEXJJ@Z	; UI::CWindowManager::RunMouseMove
PUBLIC	?RunMouseLeftButtonDown@CWindowManager@UI@@QAEXJJ@Z ; UI::CWindowManager::RunMouseLeftButtonDown
PUBLIC	?RunMouseLeftButtonUp@CWindowManager@UI@@QAEXJJ@Z ; UI::CWindowManager::RunMouseLeftButtonUp
PUBLIC	?RunMouseLeftButtonDoubleClick@CWindowManager@UI@@QAEXJJ@Z ; UI::CWindowManager::RunMouseLeftButtonDoubleClick
PUBLIC	?RunMouseRightButtonDown@CWindowManager@UI@@QAEXJJ@Z ; UI::CWindowManager::RunMouseRightButtonDown
PUBLIC	?RunMouseRightButtonUp@CWindowManager@UI@@QAEXJJ@Z ; UI::CWindowManager::RunMouseRightButtonUp
PUBLIC	?RunMouseRightButtonDoubleClick@CWindowManager@UI@@QAEXJJ@Z ; UI::CWindowManager::RunMouseRightButtonDoubleClick
PUBLIC	?RunMouseMiddleButtonDown@CWindowManager@UI@@QAEXJJ@Z ; UI::CWindowManager::RunMouseMiddleButtonDown
PUBLIC	?RunMouseMiddleButtonUp@CWindowManager@UI@@QAEXJJ@Z ; UI::CWindowManager::RunMouseMiddleButtonUp
PUBLIC	?RunMouseWheelScroll@CWindowManager@UI@@QAE_NJJF@Z ; UI::CWindowManager::RunMouseWheelScroll
PUBLIC	?RunIMEUpdate@CWindowManager@UI@@QAEXXZ		; UI::CWindowManager::RunIMEUpdate
PUBLIC	?RunIMETabEvent@CWindowManager@UI@@QAEXXZ	; UI::CWindowManager::RunIMETabEvent
PUBLIC	?RunIMEReturnEvent@CWindowManager@UI@@QAEXXZ	; UI::CWindowManager::RunIMEReturnEvent
PUBLIC	?RunIMEKeyDown@CWindowManager@UI@@QAEXH@Z	; UI::CWindowManager::RunIMEKeyDown
PUBLIC	?RunChangeCodePage@CWindowManager@UI@@QAEXXZ	; UI::CWindowManager::RunChangeCodePage
PUBLIC	?RunOpenCandidate@CWindowManager@UI@@QAEXXZ	; UI::CWindowManager::RunOpenCandidate
PUBLIC	?RunCloseCandidate@CWindowManager@UI@@QAEXXZ	; UI::CWindowManager::RunCloseCandidate
PUBLIC	?RunOpenReading@CWindowManager@UI@@QAEXXZ	; UI::CWindowManager::RunOpenReading
PUBLIC	?RunCloseReading@CWindowManager@UI@@QAEXXZ	; UI::CWindowManager::RunCloseReading
PUBLIC	?RunKeyDown@CWindowManager@UI@@QAEXH@Z		; UI::CWindowManager::RunKeyDown
PUBLIC	?RunKeyUp@CWindowManager@UI@@QAEXH@Z		; UI::CWindowManager::RunKeyUp
PUBLIC	?RunPressEscapeKey@CWindowManager@UI@@QAEXXZ	; UI::CWindowManager::RunPressEscapeKey
PUBLIC	?RunPressExitKey@CWindowManager@UI@@QAEXXZ	; UI::CWindowManager::RunPressExitKey
PUBLIC	?SetMousePosition@CWindowManager@UI@@AAEXJJ@Z	; UI::CWindowManager::SetMousePosition
PUBLIC	?__PickWindow@CWindowManager@UI@@AAEPAVCWindow@2@JJ@Z ; UI::CWindowManager::__PickWindow
PUBLIC	?__NewWindow@CWindowManager@UI@@AAEPAVCWindow@2@PAU_object@@K@Z ; UI::CWindowManager::__NewWindow
PUBLIC	?__ClearReserveDeleteWindowList@CWindowManager@UI@@AAEXXZ ; UI::CWindowManager::__ClearReserveDeleteWindowList
PUBLIC	??1?$list@PAVCWindow@UI@@V?$allocator@PAVCWindow@UI@@@std@@@std@@QAE@XZ ; std::list<UI::CWindow *,std::allocator<UI::CWindow *> >::~list<UI::CWindow *,std::allocator<UI::CWindow *> >
PUBLIC	?push_back@?$list@PAVCWindow@UI@@V?$allocator@PAVCWindow@UI@@@std@@@std@@QAEXABQAVCWindow@UI@@@Z ; std::list<UI::CWindow *,std::allocator<UI::CWindow *> >::push_back
PUBLIC	?remove@?$list@PAVCWindow@UI@@V?$allocator@PAVCWindow@UI@@@std@@@std@@QAE@ABQAVCWindow@UI@@@Z ; std::list<UI::CWindow *,std::allocator<UI::CWindow *> >::remove
PUBLIC	??1?$_Tree@V?$_Tmap_traits@HPAVCWindow@UI@@U?$less@H@std@@V?$allocator@U?$pair@$$CBHPAVCWindow@UI@@@std@@@4@$0A@@std@@@std@@QAE@XZ ; std::_Tree<std::_Tmap_traits<int,UI::CWindow *,std::less<int>,std::allocator<std::pair<int const ,UI::CWindow *> >,0> >::~_Tree<std::_Tmap_traits<int,UI::CWindow *,std::less<int>,std::allocator<std::pair<int const ,UI::CWindow *> >,0> >
PUBLIC	?_Lrotate@?$_Tree_val@U?$_Tree_simple_types@U?$pair@$$CBHPAVCWindow@UI@@@std@@@std@@@std@@QAEXPAU?$_Tree_node@U?$pair@$$CBHPAVCWindow@UI@@@std@@PAX@2@@Z ; std::_Tree_val<std::_Tree_simple_types<std::pair<int const ,UI::CWindow *> > >::_Lrotate
PUBLIC	?_Rrotate@?$_Tree_val@U?$_Tree_simple_types@U?$pair@$$CBHPAVCWindow@UI@@@std@@@std@@@std@@QAEXPAU?$_Tree_node@U?$pair@$$CBHPAVCWindow@UI@@@std@@PAX@2@@Z ; std::_Tree_val<std::_Tree_simple_types<std::pair<int const ,UI::CWindow *> > >::_Rrotate
PUBLIC	?_Extract@?$_Tree_val@U?$_Tree_simple_types@U?$pair@$$CBHPAVCWindow@UI@@@std@@@std@@@std@@QAEPAU?$_Tree_node@U?$pair@$$CBHPAVCWindow@UI@@@std@@PAX@2@V?$_Tree_unchecked_const_iterator@V?$_Tree_val@U?$_Tree_simple_types@U?$pair@$$CBHPAVCWindow@UI@@@std@@@std@@@std@@U_Iterator_base0@2@@2@@Z ; std::_Tree_val<std::_Tree_simple_types<std::pair<int const ,UI::CWindow *> > >::_Extract
PUBLIC	?_Insert_node@?$_Tree_val@U?$_Tree_simple_types@U?$pair@$$CBHPAVCWindow@UI@@@std@@@std@@@std@@QAEPAU?$_Tree_node@U?$pair@$$CBHPAVCWindow@UI@@@std@@PAX@2@U?$_Tree_id@PAU?$_Tree_node@U?$pair@$$CBHPAVCWindow@UI@@@std@@PAX@std@@@2@QAU32@@Z ; std::_Tree_val<std::_Tree_simple_types<std::pair<int const ,UI::CWindow *> > >::_Insert_node
PUBLIC	??1?$map@HPAVCWindow@UI@@U?$less@H@std@@V?$allocator@U?$pair@$$CBHPAVCWindow@UI@@@std@@@4@@std@@QAE@XZ ; std::map<int,UI::CWindow *,std::less<int>,std::allocator<std::pair<int const ,UI::CWindow *> > >::~map<int,UI::CWindow *,std::less<int>,std::allocator<std::pair<int const ,UI::CWindow *> > >
PUBLIC	?_Insert_node@?$_Tree_val@U?$_Tree_simple_types@U?$pair@$$CBV?$basic_string@DU?$char_traits@D@std@@V?$allocator@D@2@@std@@PAVCWindow@UI@@@std@@@std@@@std@@QAEPAU?$_Tree_node@U?$pair@$$CBV?$basic_string@DU?$char_traits@D@std@@V?$allocator@D@2@@std@@PAVCWindow@UI@@@std@@PAX@2@U?$_Tree_id@PAU?$_Tree_node@U?$pair@$$CBV?$basic_string@DU?$char_traits@D@std@@V?$allocator@D@2@@std@@PAVCWindow@UI@@@std@@PAX@std@@@2@QAU32@@Z ; std::_Tree_val<std::_Tree_simple_types<std::pair<std::basic_string<char,std::char_traits<char>,std::allocator<char> > const ,UI::CWindow *> > >::_Insert_node
PUBLIC	??A?$map@V?$basic_string@DU?$char_traits@D@std@@V?$allocator@D@2@@std@@PAVCWindow@UI@@U?$less@V?$basic_string@DU?$char_traits@D@std@@V?$allocator@D@2@@std@@@2@V?$allocator@U?$pair@$$CBV?$basic_string@DU?$char_traits@D@std@@V?$allocator@D@2@@std@@PAVCWindow@UI@@@std@@@2@@std@@QAEAAPAVCWindow@UI@@$$QAV?$basic_string@DU?$char_traits@D@std@@V?$allocator@D@2@@1@@Z ; std::map<std::basic_string<char,std::char_traits<char>,std::allocator<char> >,UI::CWindow *,std::less<std::basic_string<char,std::char_traits<char>,std::allocator<char> > >,std::allocator<std::pair<std::basic_string<char,std::char_traits<char>,std::allocator<char> > const ,UI::CWindow *> > >::operator[]
PUBLIC	??1?$map@V?$basic_string@DU?$char_traits@D@std@@V?$allocator@D@2@@std@@PAVCWindow@UI@@U?$less@V?$basic_string@DU?$char_traits@D@std@@V?$allocator@D@2@@std@@@2@V?$allocator@U?$pair@$$CBV?$basic_string@DU?$char_traits@D@std@@V?$allocator@D@2@@std@@PAVCWindow@UI@@@std@@@2@@std@@QAE@XZ ; std::map<std::basic_string<char,std::char_traits<char>,std::allocator<char> >,UI::CWindow *,std::less<std::basic_string<char,std::char_traits<char>,std::allocator<char> > >,std::allocator<std::pair<std::basic_string<char,std::char_traits<char>,std::allocator<char> > const ,UI::CWindow *> > >::~map<std::basic_string<char,std::char_traits<char>,std::allocator<char> >,UI::CWindow *,std::less<std::basic_string<char,std::char_traits<char>,std::allocator<char> > >,std::allocator<std::pair<std::basic_string<char,std::char_traits<char>,std::allocator<char> > const ,UI::CWindow *> > >
PUBLIC	??_GCWindowManager@UI@@UAEPAXI@Z		; UI::CWindowManager::`scalar deleting destructor'
PUBLIC	?BuildEmptyTuple@UI@@YAPAU_object@@XZ		; UI::BuildEmptyTuple
PUBLIC	??$_Traits_compare@U?$char_traits@D@std@@@std@@YAHQBDI0I@Z ; std::_Traits_compare<std::char_traits<char> >
PUBLIC	??$_Destroy_in_place@PAD@std@@YAXAAPAD@Z	; std::_Destroy_in_place<char *>
PUBLIC	??$_Construct_in_place@PADABQAD@std@@YAXAAPADABQAD@Z ; std::_Construct_in_place<char *,char * const &>
PUBLIC	??$_Deallocate@$07$0A@@std@@YAXPAXI@Z		; std::_Deallocate<8,0>
PUBLIC	??$_Allocate@$07U_Default_allocate_traits@std@@$0A@@std@@YAPAXI@Z ; std::_Allocate<8,std::_Default_allocate_traits,0>
PUBLIC	??$_Allocate_manually_vector_aligned@U_Default_allocate_traits@std@@@std@@YAPAXI@Z ; std::_Allocate_manually_vector_aligned<std::_Default_allocate_traits>
PUBLIC	?OnChangePosition@CWindow@UI@@UAEXXZ		; UI::CWindow::OnChangePosition
PUBLIC	?SetColor@CWindow@UI@@UAEXK@Z			; UI::CWindow::SetColor
PUBLIC	??1CLayer@UI@@UAE@XZ				; UI::CLayer::~CLayer
PUBLIC	?IsWindow@CLayer@UI@@UAEHXZ			; UI::CLayer::IsWindow
PUBLIC	??_GCLayer@UI@@UAEPAXI@Z			; UI::CLayer::`scalar deleting destructor'
PUBLIC	??1?$_Tree@V?$_Tset_traits@PAVCWindow@UI@@U?$less@PAVCWindow@UI@@@std@@V?$allocator@PAVCWindow@UI@@@4@$0A@@std@@@std@@QAE@XZ ; std::_Tree<std::_Tset_traits<UI::CWindow *,std::less<UI::CWindow *>,std::allocator<UI::CWindow *>,0> >::~_Tree<std::_Tset_traits<UI::CWindow *,std::less<UI::CWindow *>,std::allocator<UI::CWindow *>,0> >
PUBLIC	??1?$pair@$$CBV?$basic_string@DU?$char_traits@D@std@@V?$allocator@D@2@@std@@PAVCWindow@UI@@@std@@QAE@XZ ; std::pair<std::basic_string<char,std::char_traits<char>,std::allocator<char> > const ,UI::CWindow *>::~pair<std::basic_string<char,std::char_traits<char>,std::allocator<char> > const ,UI::CWindow *>
PUBLIC	??E?$_Tree_unchecked_const_iterator@V?$_Tree_val@U?$_Tree_simple_types@U?$pair@$$CBHPAVCWindow@UI@@@std@@@std@@@std@@U_Iterator_base0@2@@std@@QAEAAV01@XZ ; std::_Tree_unchecked_const_iterator<std::_Tree_val<std::_Tree_simple_types<std::pair<int const ,UI::CWindow *> > >,std::_Iterator_base0>::operator++
PUBLIC	??$insert@U?$pair@HPAVCWindow@UI@@@std@@$0A@@?$map@HPAVCWindow@UI@@U?$less@H@std@@V?$allocator@U?$pair@$$CBHPAVCWindow@UI@@@std@@@4@@std@@QAE?AU?$pair@V?$_Tree_iterator@V?$_Tree_val@U?$_Tree_simple_types@U?$pair@$$CBHPAVCWindow@UI@@@std@@@std@@@std@@@std@@_N@1@$$QAU?$pair@HPAVCWindow@UI@@@1@@Z ; std::map<int,UI::CWindow *,std::less<int>,std::allocator<std::pair<int const ,UI::CWindow *> > >::insert<std::pair<int,UI::CWindow *>,0>
PUBLIC	??$_Erase_tree@V?$allocator@U?$_Tree_node@U?$pair@$$CBV?$basic_string@DU?$char_traits@D@std@@V?$allocator@D@2@@std@@PAVCWindow@UI@@@std@@PAX@std@@@std@@@?$_Tree_val@U?$_Tree_simple_types@U?$pair@$$CBV?$basic_string@DU?$char_traits@D@std@@V?$allocator@D@2@@std@@PAVCWindow@UI@@@std@@@std@@@std@@QAEXAAV?$allocator@U?$_Tree_node@U?$pair@$$CBV?$basic_string@DU?$char_traits@D@std@@V?$allocator@D@2@@std@@PAVCWindow@UI@@@std@@PAX@std@@@1@PAU?$_Tree_node@U?$pair@$$CBV?$basic_string@DU?$char_traits@D@std@@V?$allocator@D@2@@std@@PAVCWindow@UI@@@std@@PAX@1@@Z ; std::_Tree_val<std::_Tree_simple_types<std::pair<std::basic_string<char,std::char_traits<char>,std::allocator<char> > const ,UI::CWindow *> > >::_Erase_tree<std::allocator<std::_Tree_node<std::pair<std::basic_string<char,std::char_traits<char>,std::allocator<char> > const ,UI::CWindow *>,void *> > >
PUBLIC	??$_Erase_tree@V?$allocator@U?$_Tree_node@U?$pair@$$CBHPAVCWindow@UI@@@std@@PAX@std@@@std@@@?$_Tree_val@U?$_Tree_simple_types@U?$pair@$$CBHPAVCWindow@UI@@@std@@@std@@@std@@QAEXAAV?$allocator@U?$_Tree_node@U?$pair@$$CBHPAVCWindow@UI@@@std@@PAX@std@@@1@PAU?$_Tree_node@U?$pair@$$CBHPAVCWindow@UI@@@std@@PAX@1@@Z ; std::_Tree_val<std::_Tree_simple_types<std::pair<int const ,UI::CWindow *> > >::_Erase_tree<std::allocator<std::_Tree_node<std::pair<int const ,UI::CWindow *>,void *> > >
PUBLIC	??$_Construct_in_place@PAU?$_List_node@PAVCWindow@UI@@PAX@std@@AAPAU12@@std@@YAXAAPAU?$_List_node@PAVCWindow@UI@@PAX@0@0@Z ; std::_Construct_in_place<std::_List_node<UI::CWindow *,void *> *,std::_List_node<UI::CWindow *,void *> * &>
PUBLIC	??$_Erase_tree@V?$allocator@U?$_Tree_node@PAVCWindow@UI@@PAX@std@@@std@@@?$_Tree_val@U?$_Tree_simple_types@PAVCWindow@UI@@@std@@@std@@QAEXAAV?$allocator@U?$_Tree_node@PAVCWindow@UI@@PAX@std@@@1@PAU?$_Tree_node@PAVCWindow@UI@@PAX@1@@Z ; std::_Tree_val<std::_Tree_simple_types<UI::CWindow *> >::_Erase_tree<std::allocator<std::_Tree_node<UI::CWindow *,void *> > >
PUBLIC	??$_Find_lower_bound@V?$basic_string@DU?$char_traits@D@std@@V?$allocator@D@2@@std@@@?$_Tree@V?$_Tmap_traits@V?$basic_string@DU?$char_traits@D@std@@V?$allocator@D@2@@std@@PAVCWindow@UI@@U?$less@V?$basic_string@DU?$char_traits@D@std@@V?$allocator@D@2@@std@@@2@V?$allocator@U?$pair@$$CBV?$basic_string@DU?$char_traits@D@std@@V?$allocator@D@2@@std@@PAVCWindow@UI@@@std@@@2@$0A@@std@@@std@@IBE?AU?$_Tree_find_result@PAU?$_Tree_node@U?$pair@$$CBV?$basic_string@DU?$char_traits@D@std@@V?$allocator@D@2@@std@@PAVCWindow@UI@@@std@@PAX@std@@@1@ABV?$basic_string@DU?$char_traits@D@std@@V?$allocator@D@2@@1@@Z ; std::_Tree<std::_Tmap_traits<std::basic_string<char,std::char_traits<char>,std::allocator<char> >,UI::CWindow *,std::less<std::basic_string<char,std::char_traits<char>,std::allocator<char> > >,std::allocator<std::pair<std::basic_string<char,std::char_traits<char>,std::allocator<char> > const ,UI::CWindow *> >,0> >::_Find_lower_bound<std::basic_string<char,std::char_traits<char>,std::allocator<char> > >
PUBLIC	??1?$_Alloc_construct_ptr@V?$allocator@U?$_Tree_node@U?$pair@$$CBV?$basic_string@DU?$char_traits@D@std@@V?$allocator@D@2@@std@@PAVCWindow@UI@@@std@@PAX@std@@@std@@@std@@QAE@XZ ; std::_Alloc_construct_ptr<std::allocator<std::_Tree_node<std::pair<std::basic_string<char,std::char_traits<char>,std::allocator<char> > const ,UI::CWindow *>,void *> > >::~_Alloc_construct_ptr<std::allocator<std::_Tree_node<std::pair<std::basic_string<char,std::char_traits<char>,std::allocator<char> > const ,UI::CWindow *>,void *> > >
PUBLIC	??1?$_Tree_temp_node_alloc@V?$allocator@U?$_Tree_node@U?$pair@$$CBV?$basic_string@DU?$char_traits@D@std@@V?$allocator@D@2@@std@@PAVCWindow@UI@@@std@@PAX@std@@@std@@@std@@QAE@XZ ; std::_Tree_temp_node_alloc<std::allocator<std::_Tree_node<std::pair<std::basic_string<char,std::char_traits<char>,std::allocator<char> > const ,UI::CWindow *>,void *> > >::~_Tree_temp_node_alloc<std::allocator<std::_Tree_node<std::pair<std::basic_string<char,std::char_traits<char>,std::allocator<char> > const ,UI::CWindow *>,void *> > >
PUBLIC	??$_Find_lower_bound@H@?$_Tree@V?$_Tmap_traits@HPAVCWindow@UI@@U?$less@H@std@@V?$allocator@U?$pair@$$CBHPAVCWindow@UI@@@std@@@4@$0A@@std@@@std@@IBE?AU?$_Tree_find_result@PAU?$_Tree_node@U?$pair@$$CBHPAVCWindow@UI@@@std@@PAX@std@@@1@ABH@Z ; std::_Tree<std::_Tmap_traits<int,UI::CWindow *,std::less<int>,std::allocator<std::pair<int const ,UI::CWindow *> >,0> >::_Find_lower_bound<int>
PUBLIC	??1?$_Alloc_construct_ptr@V?$allocator@U?$_List_node@PAVCWindow@UI@@PAX@std@@@std@@@std@@QAE@XZ ; std::_Alloc_construct_ptr<std::allocator<std::_List_node<UI::CWindow *,void *> > >::~_Alloc_construct_ptr<std::allocator<std::_List_node<UI::CWindow *,void *> > >
PUBLIC	??$_Destroy_in_place@PAU?$_List_node@PAVCWindow@UI@@PAX@std@@@std@@YAXAAPAU?$_List_node@PAVCWindow@UI@@PAX@0@@Z ; std::_Destroy_in_place<std::_List_node<UI::CWindow *,void *> *>
PUBLIC	??$_Construct_in_place@PAU?$_Tree_node@PAVCWindow@UI@@PAX@std@@ABQAU12@@std@@YAXAAPAU?$_Tree_node@PAVCWindow@UI@@PAX@0@ABQAU10@@Z ; std::_Construct_in_place<std::_Tree_node<UI::CWindow *,void *> *,std::_Tree_node<UI::CWindow *,void *> * const &>
PUBLIC	??$_Construct_in_place@PAU?$_Tree_node@U?$pair@$$CBV?$basic_string@DU?$char_traits@D@std@@V?$allocator@D@2@@std@@PAVCWindow@UI@@@std@@PAX@std@@ABQAU12@@std@@YAXAAPAU?$_Tree_node@U?$pair@$$CBV?$basic_string@DU?$char_traits@D@std@@V?$allocator@D@2@@std@@PAVCWindow@UI@@@std@@PAX@0@ABQAU10@@Z ; std::_Construct_in_place<std::_Tree_node<std::pair<std::basic_string<char,std::char_traits<char>,std::allocator<char> > const ,UI::CWindow *>,void *> *,std::_Tree_node<std::pair<std::basic_string<char,std::char_traits<char>,std::allocator<char> > const ,UI::CWindow *>,void *> * const &>
PUBLIC	??$_Construct_in_place@PAU?$_Tree_node@U?$pair@$$CBHPAVCWindow@UI@@@std@@PAX@std@@ABQAU12@@std@@YAXAAPAU?$_Tree_node@U?$pair@$$CBHPAVCWindow@UI@@@std@@PAX@0@ABQAU10@@Z ; std::_Construct_in_place<std::_Tree_node<std::pair<int const ,UI::CWindow *>,void *> *,std::_Tree_node<std::pair<int const ,UI::CWindow *>,void *> * const &>
PUBLIC	??$_Construct_in_place@PAU?$_List_node@PAVCWindow@UI@@PAX@std@@ABQAU12@@std@@YAXAAPAU?$_List_node@PAVCWindow@UI@@PAX@0@ABQAU10@@Z ; std::_Construct_in_place<std::_List_node<UI::CWindow *,void *> *,std::_List_node<UI::CWindow *,void *> * const &>
PUBLIC	??$_Destroy_in_place@PAU?$_Tree_node@U?$pair@$$CBV?$basic_string@DU?$char_traits@D@std@@V?$allocator@D@2@@std@@PAVCWindow@UI@@@std@@PAX@std@@@std@@YAXAAPAU?$_Tree_node@U?$pair@$$CBV?$basic_string@DU?$char_traits@D@std@@V?$allocator@D@2@@std@@PAVCWindow@UI@@@std@@PAX@0@@Z ; std::_Destroy_in_place<std::_Tree_node<std::pair<std::basic_string<char,std::char_traits<char>,std::allocator<char> > const ,UI::CWindow *>,void *> *>
PUBLIC	??1?$_Alloc_construct_ptr@V?$allocator@U?$_Tree_node@U?$pair@$$CBHPAVCWindow@UI@@@std@@PAX@std@@@std@@@std@@QAE@XZ ; std::_Alloc_construct_ptr<std::allocator<std::_Tree_node<std::pair<int const ,UI::CWindow *>,void *> > >::~_Alloc_construct_ptr<std::allocator<std::_Tree_node<std::pair<int const ,UI::CWindow *>,void *> > >
PUBLIC	??$_Destroy_in_place@PAU?$_Tree_node@PAVCWindow@UI@@PAX@std@@@std@@YAXAAPAU?$_Tree_node@PAVCWindow@UI@@PAX@0@@Z ; std::_Destroy_in_place<std::_Tree_node<UI::CWindow *,void *> *>
PUBLIC	??$_Construct_in_place@PAU?$_Tree_node@U?$pair@$$CBV?$basic_string@DU?$char_traits@D@std@@V?$allocator@D@2@@std@@PAVCWindow@UI@@@std@@PAX@std@@AAPAU12@@std@@YAXAAPAU?$_Tree_node@U?$pair@$$CBV?$basic_string@DU?$char_traits@D@std@@V?$allocator@D@2@@std@@PAVCWindow@UI@@@std@@PAX@0@0@Z ; std::_Construct_in_place<std::_Tree_node<std::pair<std::basic_string<char,std::char_traits<char>,std::allocator<char> > const ,UI::CWindow *>,void *> *,std::_Tree_node<std::pair<std::basic_string<char,std::char_traits<char>,std::allocator<char> > const ,UI::CWindow *>,void *> * &>
PUBLIC	??$_Destroy_in_place@PAU?$_Tree_node@U?$pair@$$CBHPAVCWindow@UI@@@std@@PAX@std@@@std@@YAXAAPAU?$_Tree_node@U?$pair@$$CBHPAVCWindow@UI@@@std@@PAX@0@@Z ; std::_Destroy_in_place<std::_Tree_node<std::pair<int const ,UI::CWindow *>,void *> *>
PUBLIC	??$?MDU?$char_traits@D@std@@V?$allocator@D@1@@std@@YA_NABV?$basic_string@DU?$char_traits@D@std@@V?$allocator@D@2@@0@0@Z ; std::operator<<char,std::char_traits<char>,std::allocator<char> >
PUBLIC	??$_Construct_in_place@PAU?$_Tree_node@U?$pair@$$CBHPAVCWindow@UI@@@std@@PAX@std@@AAPAU12@@std@@YAXAAPAU?$_Tree_node@U?$pair@$$CBHPAVCWindow@UI@@@std@@PAX@0@0@Z ; std::_Construct_in_place<std::_Tree_node<std::pair<int const ,UI::CWindow *>,void *> *,std::_Tree_node<std::pair<int const ,UI::CWindow *>,void *> * &>
PUBLIC	??$?0$$QAV?$basic_string@DU?$char_traits@D@std@@V?$allocator@D@2@@std@@$$Z$$V@?$pair@$$CBV?$basic_string@DU?$char_traits@D@std@@V?$allocator@D@2@@std@@PAVCWindow@UI@@@std@@QAE@Upiecewise_construct_t@1@V?$tuple@$$QAV?$basic_string@DU?$char_traits@D@std@@V?$allocator@D@2@@std@@@1@V?$tuple@$$V@1@@Z ; std::pair<std::basic_string<char,std::char_traits<char>,std::allocator<char> > const ,UI::CWindow *>::pair<std::basic_string<char,std::char_traits<char>,std::allocator<char> > const ,UI::CWindow *><std::basic_string<char,std::char_traits<char>,std::allocator<char> > &&>
PUBLIC	??$?0V?$tuple@$$QAV?$basic_string@DU?$char_traits@D@std@@V?$allocator@D@2@@std@@@std@@V?$tuple@$$V@1@$0A@$$Z$S@?$pair@$$CBV?$basic_string@DU?$char_traits@D@std@@V?$allocator@D@2@@std@@PAVCWindow@UI@@@std@@QAE@AAV?$tuple@$$QAV?$basic_string@DU?$char_traits@D@std@@V?$allocator@D@2@@std@@@1@AAV?$tuple@$$V@1@U?$integer_sequence@I$0A@@1@U?$integer_sequence@I$S@1@@Z ; std::pair<std::basic_string<char,std::char_traits<char>,std::allocator<char> > const ,UI::CWindow *>::pair<std::basic_string<char,std::char_traits<char>,std::allocator<char> > const ,UI::CWindow *><std::tuple<std::basic_string<char,std::char_traits<char>,std::allocator<char> > &&>,std::tuple<>,0>
PUBLIC	??_7exception@std@@6B@				; std::exception::`vftable'
PUBLIC	??_C@_0BC@EOODALEL@Unknown?5exception@		; `string'
PUBLIC	??_7bad_alloc@std@@6B@				; std::bad_alloc::`vftable'
PUBLIC	??_7bad_array_new_length@std@@6B@		; std::bad_array_new_length::`vftable'
PUBLIC	??_C@_0BF@KINCDENJ@bad?5array?5new?5length@	; `string'
PUBLIC	__TI3?AVbad_array_new_length@std@@
PUBLIC	__CTA3?AVbad_array_new_length@std@@
PUBLIC	??_R0?AVbad_array_new_length@std@@@8		; std::bad_array_new_length `RTTI Type Descriptor'
PUBLIC	__CT??_R0?AVbad_array_new_length@std@@@8??0bad_array_new_length@std@@QAE@ABV01@@Z12
PUBLIC	??_R0?AVbad_alloc@std@@@8			; std::bad_alloc `RTTI Type Descriptor'
PUBLIC	__CT??_R0?AVbad_alloc@std@@@8??0bad_alloc@std@@QAE@ABV01@@Z12
PUBLIC	??_R0?AVexception@std@@@8			; std::exception `RTTI Type Descriptor'
PUBLIC	__CT??_R0?AVexception@std@@@8??0exception@std@@QAE@ABV01@@Z12
PUBLIC	??_C@_0BA@JFNIOLAK@string?5too?5long@		; `string'
PUBLIC	??_C@_0BB@GCADKGJO@map?1set?5too?5long@		; `string'
PUBLIC	??_C@_00CNPNBAHC@@				; `string'
PUBLIC	?ms_singleton@?$CSingleton@VCWindowManager@UI@@@@0PAVCWindowManager@UI@@A ; CSingleton<UI::CWindowManager>::ms_singleton
PUBLIC	??_7?$CSingleton@VCWindowManager@UI@@@@6B@	; CSingleton<UI::CWindowManager>::`vftable'
PUBLIC	??_7CWindowManager@UI@@6B@			; UI::CWindowManager::`vftable'
PUBLIC	??_R4exception@std@@6B@				; std::exception::`RTTI Complete Object Locator'
PUBLIC	??_R3exception@std@@8				; std::exception::`RTTI Class Hierarchy Descriptor'
PUBLIC	??_R2exception@std@@8				; std::exception::`RTTI Base Class Array'
PUBLIC	??_R1A@?0A@EA@exception@std@@8			; std::exception::`RTTI Base Class Descriptor at (0,-1,0,64)'
PUBLIC	??_R4bad_alloc@std@@6B@				; std::bad_alloc::`RTTI Complete Object Locator'
PUBLIC	??_R3bad_alloc@std@@8				; std::bad_alloc::`RTTI Class Hierarchy Descriptor'
PUBLIC	??_R2bad_alloc@std@@8				; std::bad_alloc::`RTTI Base Class Array'
PUBLIC	??_R1A@?0A@EA@bad_alloc@std@@8			; std::bad_alloc::`RTTI Base Class Descriptor at (0,-1,0,64)'
PUBLIC	??_R4bad_array_new_length@std@@6B@		; std::bad_array_new_length::`RTTI Complete Object Locator'
PUBLIC	??_R3bad_array_new_length@std@@8		; std::bad_array_new_length::`RTTI Class Hierarchy Descriptor'
PUBLIC	??_R2bad_array_new_length@std@@8		; std::bad_array_new_length::`RTTI Base Class Array'
PUBLIC	??_R1A@?0A@EA@bad_array_new_length@std@@8	; std::bad_array_new_length::`RTTI Base Class Descriptor at (0,-1,0,64)'
PUBLIC	??_R4?$CSingleton@VCWindowManager@UI@@@@6B@	; CSingleton<UI::CWindowManager>::`RTTI Complete Object Locator'
PUBLIC	??_R0?AV?$CSingleton@VCWindowManager@UI@@@@@8	; CSingleton<UI::CWindowManager> `RTTI Type Descriptor'
PUBLIC	??_R3?$CSingleton@VCWindowManager@UI@@@@8	; CSingleton<UI::CWindowManager>::`RTTI Class Hierarchy Descriptor'
PUBLIC	??_R2?$CSingleton@VCWindowManager@UI@@@@8	; CSingleton<UI::CWindowManager>::`RTTI Base Class Array'
PUBLIC	??_R1A@?0A@EA@?$CSingleton@VCWindowManager@UI@@@@8 ; CSingleton<UI::CWindowManager>::`RTTI Base Class Descriptor at (0,-1,0,64)'
PUBLIC	??_7CLayer@UI@@6B@				; UI::CLayer::`vftable'
PUBLIC	?gs_kSet_pkWnd@UI@@3V?$set@PAVCWindow@UI@@U?$less@PAVCWindow@UI@@@std@@V?$allocator@PAVCWindow@UI@@@4@@std@@A ; UI::gs_kSet_pkWnd
PUBLIC	??_C@_04NBFCGMPH@root@				; `string'
PUBLIC	??_C@_04FOKBGDA@GAME@				; `string'
PUBLIC	??_C@_09CHAIFIBB@UI_BOTTOM@			; `string'
PUBLIC	??_C@_02ELHCDOPK@UI@				; `string'
PUBLIC	??_C@_08MLMBKENF@TOP_MOST@			; `string'
PUBLIC	??_C@_07PCOOAIOD@CURTAIN@			; `string'
PUBLIC	??_C@_02HCKGKOFO@?$CI?$CJ@			; `string'
PUBLIC	??_C@_0P@KLAFPINF@DeattachObject@		; `string'
PUBLIC	??_C@_0BI@MLGEFGCP@?5OverInWindowName?5?$FL?$CFs?$FN?6@ ; `string'
PUBLIC	??_C@_0O@NKNMEGII@list?5too?5long@		; `string'
PUBLIC	??_R4CWindowManager@UI@@6B@			; UI::CWindowManager::`RTTI Complete Object Locator'
PUBLIC	??_R0?AVCWindowManager@UI@@@8			; UI::CWindowManager `RTTI Type Descriptor'
PUBLIC	??_R3CWindowManager@UI@@8			; UI::CWindowManager::`RTTI Class Hierarchy Descriptor'
PUBLIC	??_R2CWindowManager@UI@@8			; UI::CWindowManager::`RTTI Base Class Array'
PUBLIC	??_R1A@?0A@EA@CWindowManager@UI@@8		; UI::CWindowManager::`RTTI Base Class Descriptor at (0,-1,0,64)'
PUBLIC	??_R4CLayer@UI@@6B@				; UI::CLayer::`RTTI Complete Object Locator'
PUBLIC	??_R0?AVCLayer@UI@@@8				; UI::CLayer `RTTI Type Descriptor'
PUBLIC	??_R3CLayer@UI@@8				; UI::CLayer::`RTTI Class Hierarchy Descriptor'
PUBLIC	??_R2CLayer@UI@@8				; UI::CLayer::`RTTI Base Class Array'
PUBLIC	??_R1A@?0A@EA@CLayer@UI@@8			; UI::CLayer::`RTTI Base Class Descriptor at (0,-1,0,64)'
PUBLIC	??_R1A@?0A@EA@CWindow@UI@@8			; UI::CWindow::`RTTI Base Class Descriptor at (0,-1,0,64)'
PUBLIC	??_R0?AVCWindow@UI@@@8				; UI::CWindow `RTTI Type Descriptor'
PUBLIC	??_R3CWindow@UI@@8				; UI::CWindow::`RTTI Class Hierarchy Descriptor'
PUBLIC	??_R2CWindow@UI@@8				; UI::CWindow::`RTTI Base Class Array'
EXTRN	??2@YAPAXI@Z:PROC				; operator new
EXTRN	??3@YAXPAXI@Z:PROC				; operator delete
EXTRN	_atexit:PROC
EXTRN	__Init_thread_header:PROC
EXTRN	__Init_thread_abort:PROC
EXTRN	__Init_thread_footer:PROC
EXTRN	__invalid_parameter_noinfo_noreturn:PROC
EXTRN	__imp__timeGetTime@0:PROC
EXTRN	___std_exception_copy:PROC
EXTRN	___std_exception_destroy:PROC
EXTRN	??_Eexception@std@@UAEPAXI@Z:PROC		; std::exception::`vector deleting destructor'
EXTRN	??_Ebad_alloc@std@@UAEPAXI@Z:PROC		; std::bad_alloc::`vector deleting destructor'
EXTRN	??_Ebad_array_new_length@std@@UAEPAXI@Z:PROC	; std::bad_array_new_length::`vector deleting destructor'
EXTRN	?_Xlength_error@std@@YAXPBD@Z:PROC		; std::_Xlength_error
EXTRN	?Tracef@@YAXPBDZZ:PROC				; Tracef
EXTRN	__imp__Py_BuildValue:PROC
EXTRN	?PyCallClassMemberFunc@@YA_NPAU_object@@PBD0@Z:PROC ; PyCallClassMemberFunc
EXTRN	??_E?$CSingleton@VCWindowManager@UI@@@@UAEPAXI@Z:PROC ; CSingleton<UI::CWindowManager>::`vector deleting destructor'
EXTRN	??_ECWindowManager@UI@@UAEPAXI@Z:PROC		; UI::CWindowManager::`vector deleting destructor'
EXTRN	??0CWindow@UI@@QAE@PAU_object@@@Z:PROC		; UI::CWindow::CWindow
EXTRN	??1CWindow@UI@@UAE@XZ:PROC			; UI::CWindow::~CWindow
EXTRN	?AddChild@CWindow@UI@@QAEXPAV12@@Z:PROC		; UI::CWindow::AddChild
EXTRN	?Clear@CWindow@UI@@QAEXXZ:PROC			; UI::CWindow::Clear
EXTRN	?Update@CWindow@UI@@QAEXXZ:PROC			; UI::CWindow::Update
EXTRN	?Render@CWindow@UI@@QAEXXZ:PROC			; UI::CWindow::Render
EXTRN	?SetName@CWindow@UI@@QAEXPBD@Z:PROC		; UI::CWindow::SetName
EXTRN	?SetSize@CWindow@UI@@QAEXJJ@Z:PROC		; UI::CWindow::SetSize
EXTRN	?SetPosition@CWindow@UI@@QAEXJJ@Z:PROC		; UI::CWindow::SetPosition
EXTRN	?GetPosition@CWindow@UI@@QAEXPAJ0@Z:PROC	; UI::CWindow::GetPosition
EXTRN	?Show@CWindow@UI@@QAEXXZ:PROC			; UI::CWindow::Show
EXTRN	?IsRendering@CWindow@UI@@QAE_NXZ:PROC		; UI::CWindow::IsRendering
EXTRN	?GetRoot@CWindow@UI@@QAEPAV12@XZ:PROC		; UI::CWindow::GetRoot
EXTRN	?GetParent@CWindow@UI@@QAEPAV12@XZ:PROC		; UI::CWindow::GetParent
EXTRN	?DeleteChild@CWindow@UI@@QAEXPAV12@@Z:PROC	; UI::CWindow::DeleteChild
EXTRN	?SetTop@CWindow@UI@@QAEXPAV12@@Z:PROC		; UI::CWindow::SetTop
EXTRN	?IsIn@CWindow@UI@@QAE_NJJ@Z:PROC		; UI::CWindow::IsIn
EXTRN	?PickWindow@CWindow@UI@@QAEPAV12@JJ@Z:PROC	; UI::CWindow::PickWindow
EXTRN	?PickTopWindow@CWindow@UI@@QAEPAV12@JJ@Z:PROC	; UI::CWindow::PickTopWindow
EXTRN	?OnRender@CWindow@UI@@UAEXXZ:PROC		; UI::CWindow::OnRender
EXTRN	?OnUpdate@CWindow@UI@@UAEXXZ:PROC		; UI::CWindow::OnUpdate
EXTRN	?OnSetFocus@CWindow@UI@@UAEXXZ:PROC		; UI::CWindow::OnSetFocus
EXTRN	?OnKillFocus@CWindow@UI@@UAEXXZ:PROC		; UI::CWindow::OnKillFocus
EXTRN	?OnMouseDrag@CWindow@UI@@UAEXJJ@Z:PROC		; UI::CWindow::OnMouseDrag
EXTRN	?OnMouseOverIn@CWindow@UI@@UAEXXZ:PROC		; UI::CWindow::OnMouseOverIn
EXTRN	?OnMouseOverOut@CWindow@UI@@UAEXXZ:PROC		; UI::CWindow::OnMouseOverOut
EXTRN	?OnMouseOver@CWindow@UI@@UAEXXZ:PROC		; UI::CWindow::OnMouseOver
EXTRN	?OnDrop@CWindow@UI@@UAEXXZ:PROC			; UI::CWindow::OnDrop
EXTRN	?OnTop@CWindow@UI@@UAEXXZ:PROC			; UI::CWindow::OnTop
EXTRN	?OnIMEUpdate@CWindow@UI@@UAEXXZ:PROC		; UI::CWindow::OnIMEUpdate
EXTRN	?OnMoveWindow@CWindow@UI@@UAEXJJ@Z:PROC		; UI::CWindow::OnMoveWindow
EXTRN	?RunIMETabEvent@CWindow@UI@@QAEHXZ:PROC		; UI::CWindow::RunIMETabEvent
EXTRN	?RunIMEReturnEvent@CWindow@UI@@QAEHXZ:PROC	; UI::CWindow::RunIMEReturnEvent
EXTRN	?RunKeyDownEvent@CWindow@UI@@QAEPAV12@H@Z:PROC	; UI::CWindow::RunKeyDownEvent
EXTRN	?RunKeyUpEvent@CWindow@UI@@QAEHH@Z:PROC		; UI::CWindow::RunKeyUpEvent
EXTRN	?RunPressEscapeKeyEvent@CWindow@UI@@QAEHXZ:PROC	; UI::CWindow::RunPressEscapeKeyEvent
EXTRN	?RunPressExitKeyEvent@CWindow@UI@@QAEHXZ:PROC	; UI::CWindow::RunPressExitKeyEvent
EXTRN	?OnIMETabEvent@CWindow@UI@@UAEHXZ:PROC		; UI::CWindow::OnIMETabEvent
EXTRN	?OnIMEReturnEvent@CWindow@UI@@UAEHXZ:PROC	; UI::CWindow::OnIMEReturnEvent
EXTRN	?OnIMEKeyDownEvent@CWindow@UI@@UAEHH@Z:PROC	; UI::CWindow::OnIMEKeyDownEvent
EXTRN	?OnIMEChangeCodePage@CWindow@UI@@UAEHXZ:PROC	; UI::CWindow::OnIMEChangeCodePage
EXTRN	?OnIMEOpenCandidateListEvent@CWindow@UI@@UAEHXZ:PROC ; UI::CWindow::OnIMEOpenCandidateListEvent
EXTRN	?OnIMECloseCandidateListEvent@CWindow@UI@@UAEHXZ:PROC ; UI::CWindow::OnIMECloseCandidateListEvent
EXTRN	?OnIMEOpenReadingWndEvent@CWindow@UI@@UAEHXZ:PROC ; UI::CWindow::OnIMEOpenReadingWndEvent
EXTRN	?OnIMECloseReadingWndEvent@CWindow@UI@@UAEHXZ:PROC ; UI::CWindow::OnIMECloseReadingWndEvent
EXTRN	?OnMouseLeftButtonDown@CWindow@UI@@UAEHXZ:PROC	; UI::CWindow::OnMouseLeftButtonDown
EXTRN	?OnMouseLeftButtonUp@CWindow@UI@@UAEHXZ:PROC	; UI::CWindow::OnMouseLeftButtonUp
EXTRN	?OnMouseLeftButtonDoubleClick@CWindow@UI@@UAEHXZ:PROC ; UI::CWindow::OnMouseLeftButtonDoubleClick
EXTRN	?OnMouseRightButtonDown@CWindow@UI@@UAEHXZ:PROC	; UI::CWindow::OnMouseRightButtonDown
EXTRN	?OnMouseRightButtonUp@CWindow@UI@@UAEHXZ:PROC	; UI::CWindow::OnMouseRightButtonUp
EXTRN	?OnMouseRightButtonDoubleClick@CWindow@UI@@UAEHXZ:PROC ; UI::CWindow::OnMouseRightButtonDoubleClick
EXTRN	?OnMouseMiddleButtonDown@CWindow@UI@@UAEHXZ:PROC ; UI::CWindow::OnMouseMiddleButtonDown
EXTRN	?OnMouseMiddleButtonUp@CWindow@UI@@UAEHXZ:PROC	; UI::CWindow::OnMouseMiddleButtonUp
EXTRN	?OnMouseWheelScroll@CWindow@UI@@UAEHF@Z:PROC	; UI::CWindow::OnMouseWheelScroll
EXTRN	?SetScrollable@CWindow@UI@@UAEXXZ:PROC		; UI::CWindow::SetScrollable
EXTRN	?OnKeyDown@CWindow@UI@@UAEHH@Z:PROC		; UI::CWindow::OnKeyDown
EXTRN	?OnKeyUp@CWindow@UI@@UAEHH@Z:PROC		; UI::CWindow::OnKeyUp
EXTRN	?OnPressEscapeKey@CWindow@UI@@UAEHXZ:PROC	; UI::CWindow::OnPressEscapeKey
EXTRN	?OnPressExitKey@CWindow@UI@@UAEHXZ:PROC		; UI::CWindow::OnPressExitKey
EXTRN	?OnIsType@CWindow@UI@@UAEHK@Z:PROC		; UI::CWindow::OnIsType
EXTRN	??_ECLayer@UI@@UAEPAXI@Z:PROC			; UI::CLayer::`vector deleting destructor'
EXTRN	??0CBox@UI@@QAE@PAU_object@@@Z:PROC		; UI::CBox::CBox
EXTRN	??0CBar@UI@@QAE@PAU_object@@@Z:PROC		; UI::CBar::CBar
EXTRN	??0CLine@UI@@QAE@PAU_object@@@Z:PROC		; UI::CLine::CLine
EXTRN	??0CBar3D@UI@@QAE@PAU_object@@@Z:PROC		; UI::CBar3D::CBar3D
EXTRN	??0CTextLine@UI@@QAE@PAU_object@@@Z:PROC	; UI::CTextLine::CTextLine
EXTRN	??0CNumberLine@UI@@QAE@PAU_object@@@Z:PROC	; UI::CNumberLine::CNumberLine
EXTRN	??0CImageBox@UI@@QAE@PAU_object@@@Z:PROC	; UI::CImageBox::CImageBox
EXTRN	??0CMarkBox@UI@@QAE@PAU_object@@@Z:PROC		; UI::CMarkBox::CMarkBox
EXTRN	??0CExpandedImageBox@UI@@QAE@PAU_object@@@Z:PROC ; UI::CExpandedImageBox::CExpandedImageBox
EXTRN	??0CAniImageBox@UI@@QAE@PAU_object@@@Z:PROC	; UI::CAniImageBox::CAniImageBox
EXTRN	??0CButton@UI@@QAE@PAU_object@@@Z:PROC		; UI::CButton::CButton
EXTRN	??0CRadioButton@UI@@QAE@PAU_object@@@Z:PROC	; UI::CRadioButton::CRadioButton
EXTRN	??0CToggleButton@UI@@QAE@PAU_object@@@Z:PROC	; UI::CToggleButton::CToggleButton
EXTRN	??0CDragButton@UI@@QAE@PAU_object@@@Z:PROC	; UI::CDragButton::CDragButton
EXTRN	??0CSlotWindow@UI@@QAE@PAU_object@@@Z:PROC	; UI::CSlotWindow::CSlotWindow
EXTRN	??0CGridSlotWindow@UI@@QAE@PAU_object@@@Z:PROC	; UI::CGridSlotWindow::CGridSlotWindow
EXTRN	@__security_check_cookie@4:PROC
EXTRN	__CxxThrowException@8:PROC
EXTRN	___CxxFrameHandler3:PROC
EXTRN	_memcpy:PROC
EXTRN	_memmove:PROC
EXTRN	__Init_thread_epoch:DWORD
EXTRN	??_7type_info@@6B@:QWORD			; type_info::`vftable'
EXTRN	___security_cookie:DWORD
EXTRN	__fltused:DWORD
EXTRN	__tls_array:DWORD
EXTRN	__tls_index:DWORD
;	COMDAT ?ms_singleton@?$CSingleton@VCWindowManager@UI@@@@0PAVCWindowManager@UI@@A
_BSS	SEGMENT
?ms_singleton@?$CSingleton@VCWindowManager@UI@@@@0PAVCWindowManager@UI@@A DD 01H DUP (?) ; CSingleton<UI::CWindowManager>::ms_singleton
_BSS	ENDS
_BSS	SEGMENT
?gs_poEmptyTuple@UI@@3PAU_object@@A DD 01H DUP (?)	; UI::gs_poEmptyTuple
?gs_kSet_pkWnd@UI@@3V?$set@PAVCWindow@UI@@U?$less@PAVCWindow@UI@@@std@@V?$allocator@PAVCWindow@UI@@@4@@std@@A DQ 01H DUP (?) ; UI::gs_kSet_pkWnd
_BSS	ENDS
;	COMDAT ?$TSS0@?P@??RunMouseMove@CWindowManager@UI@@QAEXJJ@Z@4HA
_BSS	SEGMENT
?$TSS0@?P@??RunMouseMove@CWindowManager@UI@@QAEXJJ@Z@4HA DD 01H DUP (?) ; `UI::CWindowManager::RunMouseMove'::`15'::$TSS0
_BSS	ENDS
CRT$XCU	SEGMENT
?gs_kSet_pkWnd$initializer$@UI@@3P6AXXZA DD FLAT:??__Egs_kSet_pkWnd@UI@@YAXXZ ; UI::gs_kSet_pkWnd$initializer$
CRT$XCU	ENDS
;	COMDAT ??_R2CWindow@UI@@8
rdata$r	SEGMENT
??_R2CWindow@UI@@8 DD FLAT:??_R1A@?0A@EA@CWindow@UI@@8	; UI::CWindow::`RTTI Base Class Array'
rdata$r	ENDS
;	COMDAT ??_R3CWindow@UI@@8
rdata$r	SEGMENT
??_R3CWindow@UI@@8 DD 00H				; UI::CWindow::`RTTI Class Hierarchy Descriptor'
	DD	00H
	DD	01H
	DD	FLAT:??_R2CWindow@UI@@8
rdata$r	ENDS
;	COMDAT ??_R0?AVCWindow@UI@@@8
data$r	SEGMENT
??_R0?AVCWindow@UI@@@8 DD FLAT:??_7type_info@@6B@	; UI::CWindow `RTTI Type Descriptor'
	DD	00H
	DB	'.?AVCWindow@UI@@', 00H
data$r	ENDS
;	COMDAT ??_R1A@?0A@EA@CWindow@UI@@8
rdata$r	SEGMENT
??_R1A@?0A@EA@CWindow@UI@@8 DD FLAT:??_R0?AVCWindow@UI@@@8 ; UI::CWindow::`RTTI Base Class Descriptor at (0,-1,0,64)'
	DD	00H
	DD	00H
	DD	0ffffffffH
	DD	00H
	DD	040H
	DD	FLAT:??_R3CWindow@UI@@8
rdata$r	ENDS
;	COMDAT ??_R1A@?0A@EA@CLayer@UI@@8
rdata$r	SEGMENT
??_R1A@?0A@EA@CLayer@UI@@8 DD FLAT:??_R0?AVCLayer@UI@@@8 ; UI::CLayer::`RTTI Base Class Descriptor at (0,-1,0,64)'
	DD	01H
	DD	00H
	DD	0ffffffffH
	DD	00H
	DD	040H
	DD	FLAT:??_R3CLayer@UI@@8
rdata$r	ENDS
;	COMDAT ??_R2CLayer@UI@@8
rdata$r	SEGMENT
??_R2CLayer@UI@@8 DD FLAT:??_R1A@?0A@EA@CLayer@UI@@8	; UI::CLayer::`RTTI Base Class Array'
	DD	FLAT:??_R1A@?0A@EA@CWindow@UI@@8
rdata$r	ENDS
;	COMDAT ??_R3CLayer@UI@@8
rdata$r	SEGMENT
??_R3CLayer@UI@@8 DD 00H				; UI::CLayer::`RTTI Class Hierarchy Descriptor'
	DD	00H
	DD	02H
	DD	FLAT:??_R2CLayer@UI@@8
rdata$r	ENDS
;	COMDAT ??_R0?AVCLayer@UI@@@8
data$r	SEGMENT
??_R0?AVCLayer@UI@@@8 DD FLAT:??_7type_info@@6B@	; UI::CLayer `RTTI Type Descriptor'
	DD	00H
	DB	'.?AVCLayer@UI@@', 00H
data$r	ENDS
;	COMDAT ??_R4CLayer@UI@@6B@
rdata$r	SEGMENT
??_R4CLayer@UI@@6B@ DD 00H				; UI::CLayer::`RTTI Complete Object Locator'
	DD	00H
	DD	00H
	DD	FLAT:??_R0?AVCLayer@UI@@@8
	DD	FLAT:??_R3CLayer@UI@@8
rdata$r	ENDS
;	COMDAT ??_R1A@?0A@EA@CWindowManager@UI@@8
rdata$r	SEGMENT
??_R1A@?0A@EA@CWindowManager@UI@@8 DD FLAT:??_R0?AVCWindowManager@UI@@@8 ; UI::CWindowManager::`RTTI Base Class Descriptor at (0,-1,0,64)'
	DD	01H
	DD	00H
	DD	0ffffffffH
	DD	00H
	DD	040H
	DD	FLAT:??_R3CWindowManager@UI@@8
rdata$r	ENDS
;	COMDAT ??_R2CWindowManager@UI@@8
rdata$r	SEGMENT
??_R2CWindowManager@UI@@8 DD FLAT:??_R1A@?0A@EA@CWindowManager@UI@@8 ; UI::CWindowManager::`RTTI Base Class Array'
	DD	FLAT:??_R1A@?0A@EA@?$CSingleton@VCWindowManager@UI@@@@8
rdata$r	ENDS
;	COMDAT ??_R3CWindowManager@UI@@8
rdata$r	SEGMENT
??_R3CWindowManager@UI@@8 DD 00H			; UI::CWindowManager::`RTTI Class Hierarchy Descriptor'
	DD	00H
	DD	02H
	DD	FLAT:??_R2CWindowManager@UI@@8
rdata$r	ENDS
;	COMDAT ??_R0?AVCWindowManager@UI@@@8
data$r	SEGMENT
??_R0?AVCWindowManager@UI@@@8 DD FLAT:??_7type_info@@6B@ ; UI::CWindowManager `RTTI Type Descriptor'
	DD	00H
	DB	'.?AVCWindowManager@UI@@', 00H
data$r	ENDS
;	COMDAT ??_R4CWindowManager@UI@@6B@
rdata$r	SEGMENT
??_R4CWindowManager@UI@@6B@ DD 00H			; UI::CWindowManager::`RTTI Complete Object Locator'
	DD	00H
	DD	00H
	DD	FLAT:??_R0?AVCWindowManager@UI@@@8
	DD	FLAT:??_R3CWindowManager@UI@@8
rdata$r	ENDS
;	COMDAT ??_C@_0O@NKNMEGII@list?5too?5long@
CONST	SEGMENT
??_C@_0O@NKNMEGII@list?5too?5long@ DB 'list too long', 00H ; `string'
CONST	ENDS
;	COMDAT ??_C@_0BI@MLGEFGCP@?5OverInWindowName?5?$FL?$CFs?$FN?6@
CONST	SEGMENT
??_C@_0BI@MLGEFGCP@?5OverInWindowName?5?$FL?$CFs?$FN?6@ DB ' OverInWindow'
	DB	'Name [%s]', 0aH, 00H			; `string'
CONST	ENDS
;	COMDAT ?strPickWindowName@?P@??RunMouseMove@CWindowManager@UI@@QAEXJJ@Z@4V?$basic_string@DU?$char_traits@D@std@@V?$allocator@D@2@@std@@A
_DATA	SEGMENT
?strPickWindowName@?P@??RunMouseMove@CWindowManager@UI@@QAEXJJ@Z@4V?$basic_string@DU?$char_traits@D@std@@V?$allocator@D@2@@std@@A DB 00H ; `UI::CWindowManager::RunMouseMove'::`15'::strPickWindowName
	DB	19 DUP(00H)
	DD	0fH
_DATA	ENDS
;	COMDAT ??_C@_0P@KLAFPINF@DeattachObject@
CONST	SEGMENT
??_C@_0P@KLAFPINF@DeattachObject@ DB 'DeattachObject', 00H ; `string'
CONST	ENDS
;	COMDAT ??_C@_02HCKGKOFO@?$CI?$CJ@
CONST	SEGMENT
??_C@_02HCKGKOFO@?$CI?$CJ@ DB '()', 00H			; `string'
CONST	ENDS
;	COMDAT ??_C@_07PCOOAIOD@CURTAIN@
CONST	SEGMENT
??_C@_07PCOOAIOD@CURTAIN@ DB 'CURTAIN', 00H		; `string'
CONST	ENDS
;	COMDAT ??_C@_08MLMBKENF@TOP_MOST@
CONST	SEGMENT
??_C@_08MLMBKENF@TOP_MOST@ DB 'TOP_MOST', 00H		; `string'
CONST	ENDS
;	COMDAT ??_C@_02ELHCDOPK@UI@
CONST	SEGMENT
??_C@_02ELHCDOPK@UI@ DB 'UI', 00H			; `string'
CONST	ENDS
;	COMDAT ??_C@_09CHAIFIBB@UI_BOTTOM@
CONST	SEGMENT
??_C@_09CHAIFIBB@UI_BOTTOM@ DB 'UI_BOTTOM', 00H		; `string'
CONST	ENDS
;	COMDAT ??_C@_04FOKBGDA@GAME@
CONST	SEGMENT
??_C@_04FOKBGDA@GAME@ DB 'GAME', 00H			; `string'
CONST	ENDS
;	COMDAT ??_C@_04NBFCGMPH@root@
CONST	SEGMENT
??_C@_04NBFCGMPH@root@ DB 'root', 00H			; `string'
CONST	ENDS
;	COMDAT ??_7CLayer@UI@@6B@
CONST	SEGMENT
??_7CLayer@UI@@6B@ DD FLAT:??_R4CLayer@UI@@6B@		; UI::CLayer::`vftable'
	DD	FLAT:??_ECLayer@UI@@UAEPAXI@Z
	DD	FLAT:?OnRender@CWindow@UI@@UAEXXZ
	DD	FLAT:?OnUpdate@CWindow@UI@@UAEXXZ
	DD	FLAT:?OnChangePosition@CWindow@UI@@UAEXXZ
	DD	FLAT:?OnSetFocus@CWindow@UI@@UAEXXZ
	DD	FLAT:?OnKillFocus@CWindow@UI@@UAEXXZ
	DD	FLAT:?OnMouseDrag@CWindow@UI@@UAEXJJ@Z
	DD	FLAT:?OnMouseOverIn@CWindow@UI@@UAEXXZ
	DD	FLAT:?OnMouseOverOut@CWindow@UI@@UAEXXZ
	DD	FLAT:?OnMouseOver@CWindow@UI@@UAEXXZ
	DD	FLAT:?OnDrop@CWindow@UI@@UAEXXZ
	DD	FLAT:?OnTop@CWindow@UI@@UAEXXZ
	DD	FLAT:?OnIMEUpdate@CWindow@UI@@UAEXXZ
	DD	FLAT:?OnMoveWindow@CWindow@UI@@UAEXJJ@Z
	DD	FLAT:?OnIMETabEvent@CWindow@UI@@UAEHXZ
	DD	FLAT:?OnIMEReturnEvent@CWindow@UI@@UAEHXZ
	DD	FLAT:?OnIMEKeyDownEvent@CWindow@UI@@UAEHH@Z
	DD	FLAT:?OnIMEChangeCodePage@CWindow@UI@@UAEHXZ
	DD	FLAT:?OnIMEOpenCandidateListEvent@CWindow@UI@@UAEHXZ
	DD	FLAT:?OnIMECloseCandidateListEvent@CWindow@UI@@UAEHXZ
	DD	FLAT:?OnIMEOpenReadingWndEvent@CWindow@UI@@UAEHXZ
	DD	FLAT:?OnIMECloseReadingWndEvent@CWindow@UI@@UAEHXZ
	DD	FLAT:?OnMouseLeftButtonDown@CWindow@UI@@UAEHXZ
	DD	FLAT:?OnMouseLeftButtonUp@CWindow@UI@@UAEHXZ
	DD	FLAT:?OnMouseLeftButtonDoubleClick@CWindow@UI@@UAEHXZ
	DD	FLAT:?OnMouseRightButtonDown@CWindow@UI@@UAEHXZ
	DD	FLAT:?OnMouseRightButtonUp@CWindow@UI@@UAEHXZ
	DD	FLAT:?OnMouseRightButtonDoubleClick@CWindow@UI@@UAEHXZ
	DD	FLAT:?OnMouseMiddleButtonDown@CWindow@UI@@UAEHXZ
	DD	FLAT:?OnMouseMiddleButtonUp@CWindow@UI@@UAEHXZ
	DD	FLAT:?OnMouseWheelScroll@CWindow@UI@@UAEHF@Z
	DD	FLAT:?SetScrollable@CWindow@UI@@UAEXXZ
	DD	FLAT:?OnKeyDown@CWindow@UI@@UAEHH@Z
	DD	FLAT:?OnKeyUp@CWindow@UI@@UAEHH@Z
	DD	FLAT:?OnPressEscapeKey@CWindow@UI@@UAEHXZ
	DD	FLAT:?OnPressExitKey@CWindow@UI@@UAEHXZ
	DD	FLAT:?SetColor@CWindow@UI@@UAEXK@Z
	DD	FLAT:?OnIsType@CWindow@UI@@UAEHK@Z
	DD	FLAT:?IsWindow@CLayer@UI@@UAEHXZ
CONST	ENDS
;	COMDAT ??_R1A@?0A@EA@?$CSingleton@VCWindowManager@UI@@@@8
rdata$r	SEGMENT
??_R1A@?0A@EA@?$CSingleton@VCWindowManager@UI@@@@8 DD FLAT:??_R0?AV?$CSingleton@VCWindowManager@UI@@@@@8 ; CSingleton<UI::CWindowManager>::`RTTI Base Class Descriptor at (0,-1,0,64)'
	DD	00H
	DD	00H
	DD	0ffffffffH
	DD	00H
	DD	040H
	DD	FLAT:??_R3?$CSingleton@VCWindowManager@UI@@@@8
rdata$r	ENDS
;	COMDAT ??_R2?$CSingleton@VCWindowManager@UI@@@@8
rdata$r	SEGMENT
??_R2?$CSingleton@VCWindowManager@UI@@@@8 DD FLAT:??_R1A@?0A@EA@?$CSingleton@VCWindowManager@UI@@@@8 ; CSingleton<UI::CWindowManager>::`RTTI Base Class Array'
rdata$r	ENDS
;	COMDAT ??_R3?$CSingleton@VCWindowManager@UI@@@@8
rdata$r	SEGMENT
??_R3?$CSingleton@VCWindowManager@UI@@@@8 DD 00H	; CSingleton<UI::CWindowManager>::`RTTI Class Hierarchy Descriptor'
	DD	00H
	DD	01H
	DD	FLAT:??_R2?$CSingleton@VCWindowManager@UI@@@@8
rdata$r	ENDS
;	COMDAT ??_R0?AV?$CSingleton@VCWindowManager@UI@@@@@8
data$r	SEGMENT
??_R0?AV?$CSingleton@VCWindowManager@UI@@@@@8 DD FLAT:??_7type_info@@6B@ ; CSingleton<UI::CWindowManager> `RTTI Type Descriptor'
	DD	00H
	DB	'.?AV?$CSingleton@VCWindowManager@UI@@@@', 00H
data$r	ENDS
;	COMDAT ??_R4?$CSingleton@VCWindowManager@UI@@@@6B@
rdata$r	SEGMENT
??_R4?$CSingleton@VCWindowManager@UI@@@@6B@ DD 00H	; CSingleton<UI::CWindowManager>::`RTTI Complete Object Locator'
	DD	00H
	DD	00H
	DD	FLAT:??_R0?AV?$CSingleton@VCWindowManager@UI@@@@@8
	DD	FLAT:??_R3?$CSingleton@VCWindowManager@UI@@@@8
rdata$r	ENDS
;	COMDAT ??_R1A@?0A@EA@bad_array_new_length@std@@8
rdata$r	SEGMENT
??_R1A@?0A@EA@bad_array_new_length@std@@8 DD FLAT:??_R0?AVbad_array_new_length@std@@@8 ; std::bad_array_new_length::`RTTI Base Class Descriptor at (0,-1,0,64)'
	DD	02H
	DD	00H
	DD	0ffffffffH
	DD	00H
	DD	040H
	DD	FLAT:??_R3bad_array_new_length@std@@8
rdata$r	ENDS
;	COMDAT ??_R2bad_array_new_length@std@@8
rdata$r	SEGMENT
??_R2bad_array_new_length@std@@8 DD FLAT:??_R1A@?0A@EA@bad_array_new_length@std@@8 ; std::bad_array_new_length::`RTTI Base Class Array'
	DD	FLAT:??_R1A@?0A@EA@bad_alloc@std@@8
	DD	FLAT:??_R1A@?0A@EA@exception@std@@8
rdata$r	ENDS
;	COMDAT ??_R3bad_array_new_length@std@@8
rdata$r	SEGMENT
??_R3bad_array_new_length@std@@8 DD 00H			; std::bad_array_new_length::`RTTI Class Hierarchy Descriptor'
	DD	00H
	DD	03H
	DD	FLAT:??_R2bad_array_new_length@std@@8
rdata$r	ENDS
;	COMDAT ??_R4bad_array_new_length@std@@6B@
rdata$r	SEGMENT
??_R4bad_array_new_length@std@@6B@ DD 00H		; std::bad_array_new_length::`RTTI Complete Object Locator'
	DD	00H
	DD	00H
	DD	FLAT:??_R0?AVbad_array_new_length@std@@@8
	DD	FLAT:??_R3bad_array_new_length@std@@8
rdata$r	ENDS
;	COMDAT ??_R1A@?0A@EA@bad_alloc@std@@8
rdata$r	SEGMENT
??_R1A@?0A@EA@bad_alloc@std@@8 DD FLAT:??_R0?AVbad_alloc@std@@@8 ; std::bad_alloc::`RTTI Base Class Descriptor at (0,-1,0,64)'
	DD	01H
	DD	00H
	DD	0ffffffffH
	DD	00H
	DD	040H
	DD	FLAT:??_R3bad_alloc@std@@8
rdata$r	ENDS
;	COMDAT ??_R2bad_alloc@std@@8
rdata$r	SEGMENT
??_R2bad_alloc@std@@8 DD FLAT:??_R1A@?0A@EA@bad_alloc@std@@8 ; std::bad_alloc::`RTTI Base Class Array'
	DD	FLAT:??_R1A@?0A@EA@exception@std@@8
rdata$r	ENDS
;	COMDAT ??_R3bad_alloc@std@@8
rdata$r	SEGMENT
??_R3bad_alloc@std@@8 DD 00H				; std::bad_alloc::`RTTI Class Hierarchy Descriptor'
	DD	00H
	DD	02H
	DD	FLAT:??_R2bad_alloc@std@@8
rdata$r	ENDS
;	COMDAT ??_R4bad_alloc@std@@6B@
rdata$r	SEGMENT
??_R4bad_alloc@std@@6B@ DD 00H				; std::bad_alloc::`RTTI Complete Object Locator'
	DD	00H
	DD	00H
	DD	FLAT:??_R0?AVbad_alloc@std@@@8
	DD	FLAT:??_R3bad_alloc@std@@8
rdata$r	ENDS
;	COMDAT ??_R1A@?0A@EA@exception@std@@8
rdata$r	SEGMENT
??_R1A@?0A@EA@exception@std@@8 DD FLAT:??_R0?AVexception@std@@@8 ; std::exception::`RTTI Base Class Descriptor at (0,-1,0,64)'
	DD	00H
	DD	00H
	DD	0ffffffffH
	DD	00H
	DD	040H
	DD	FLAT:??_R3exception@std@@8
rdata$r	ENDS
;	COMDAT ??_R2exception@std@@8
rdata$r	SEGMENT
??_R2exception@std@@8 DD FLAT:??_R1A@?0A@EA@exception@std@@8 ; std::exception::`RTTI Base Class Array'
rdata$r	ENDS
;	COMDAT ??_R3exception@std@@8
rdata$r	SEGMENT
??_R3exception@std@@8 DD 00H				; std::exception::`RTTI Class Hierarchy Descriptor'
	DD	00H
	DD	01H
	DD	FLAT:??_R2exception@std@@8
rdata$r	ENDS
;	COMDAT ??_R4exception@std@@6B@
rdata$r	SEGMENT
??_R4exception@std@@6B@ DD 00H				; std::exception::`RTTI Complete Object Locator'
	DD	00H
	DD	00H
	DD	FLAT:??_R0?AVexception@std@@@8
	DD	FLAT:??_R3exception@std@@8
rdata$r	ENDS
;	COMDAT ??_7CWindowManager@UI@@6B@
CONST	SEGMENT
??_7CWindowManager@UI@@6B@ DD FLAT:??_R4CWindowManager@UI@@6B@ ; UI::CWindowManager::`vftable'
	DD	FLAT:??_ECWindowManager@UI@@UAEPAXI@Z
CONST	ENDS
;	COMDAT ??_7?$CSingleton@VCWindowManager@UI@@@@6B@
CONST	SEGMENT
??_7?$CSingleton@VCWindowManager@UI@@@@6B@ DD FLAT:??_R4?$CSingleton@VCWindowManager@UI@@@@6B@ ; CSingleton<UI::CWindowManager>::`vftable'
	DD	FLAT:??_E?$CSingleton@VCWindowManager@UI@@@@UAEPAXI@Z
CONST	ENDS
;	COMDAT ??_C@_00CNPNBAHC@@
CONST	SEGMENT
??_C@_00CNPNBAHC@@ DB 00H				; `string'
CONST	ENDS
;	COMDAT ??_C@_0BB@GCADKGJO@map?1set?5too?5long@
CONST	SEGMENT
??_C@_0BB@GCADKGJO@map?1set?5too?5long@ DB 'map/set too long', 00H ; `string'
CONST	ENDS
;	COMDAT ??_C@_0BA@JFNIOLAK@string?5too?5long@
CONST	SEGMENT
??_C@_0BA@JFNIOLAK@string?5too?5long@ DB 'string too long', 00H ; `string'
CONST	ENDS
;	COMDAT __CT??_R0?AVexception@std@@@8??0exception@std@@QAE@ABV01@@Z12
xdata$x	SEGMENT
__CT??_R0?AVexception@std@@@8??0exception@std@@QAE@ABV01@@Z12 DD 00H
	DD	FLAT:??_R0?AVexception@std@@@8
	DD	00H
	DD	0ffffffffH
	ORG $+4
	DD	0cH
	DD	FLAT:??0exception@std@@QAE@ABV01@@Z
xdata$x	ENDS
;	COMDAT ??_R0?AVexception@std@@@8
data$r	SEGMENT
??_R0?AVexception@std@@@8 DD FLAT:??_7type_info@@6B@	; std::exception `RTTI Type Descriptor'
	DD	00H
	DB	'.?AVexception@std@@', 00H
data$r	ENDS
;	COMDAT __CT??_R0?AVbad_alloc@std@@@8??0bad_alloc@std@@QAE@ABV01@@Z12
xdata$x	SEGMENT
__CT??_R0?AVbad_alloc@std@@@8??0bad_alloc@std@@QAE@ABV01@@Z12 DD 010H
	DD	FLAT:??_R0?AVbad_alloc@std@@@8
	DD	00H
	DD	0ffffffffH
	ORG $+4
	DD	0cH
	DD	FLAT:??0bad_alloc@std@@QAE@ABV01@@Z
xdata$x	ENDS
;	COMDAT ??_R0?AVbad_alloc@std@@@8
data$r	SEGMENT
??_R0?AVbad_alloc@std@@@8 DD FLAT:??_7type_info@@6B@	; std::bad_alloc `RTTI Type Descriptor'
	DD	00H
	DB	'.?AVbad_alloc@std@@', 00H
data$r	ENDS
;	COMDAT __CT??_R0?AVbad_array_new_length@std@@@8??0bad_array_new_length@std@@QAE@ABV01@@Z12
xdata$x	SEGMENT
__CT??_R0?AVbad_array_new_length@std@@@8??0bad_array_new_length@std@@QAE@ABV01@@Z12 DD 00H
	DD	FLAT:??_R0?AVbad_array_new_length@std@@@8
	DD	00H
	DD	0ffffffffH
	ORG $+4
	DD	0cH
	DD	FLAT:??0bad_array_new_length@std@@QAE@ABV01@@Z
xdata$x	ENDS
;	COMDAT ??_R0?AVbad_array_new_length@std@@@8
data$r	SEGMENT
??_R0?AVbad_array_new_length@std@@@8 DD FLAT:??_7type_info@@6B@ ; std::bad_array_new_length `RTTI Type Descriptor'
	DD	00H
	DB	'.?AVbad_array_new_length@std@@', 00H
data$r	ENDS
;	COMDAT __CTA3?AVbad_array_new_length@std@@
xdata$x	SEGMENT
__CTA3?AVbad_array_new_length@std@@ DD 03H
	DD	FLAT:__CT??_R0?AVbad_array_new_length@std@@@8??0bad_array_new_length@std@@QAE@ABV01@@Z12
	DD	FLAT:__CT??_R0?AVbad_alloc@std@@@8??0bad_alloc@std@@QAE@ABV01@@Z12
	DD	FLAT:__CT??_R0?AVexception@std@@@8??0exception@std@@QAE@ABV01@@Z12
xdata$x	ENDS
;	COMDAT __TI3?AVbad_array_new_length@std@@
xdata$x	SEGMENT
__TI3?AVbad_array_new_length@std@@ DD 00H
	DD	FLAT:??1bad_array_new_length@std@@UAE@XZ
	DD	00H
	DD	FLAT:__CTA3?AVbad_array_new_length@std@@
xdata$x	ENDS
;	COMDAT ??_C@_0BF@KINCDENJ@bad?5array?5new?5length@
CONST	SEGMENT
??_C@_0BF@KINCDENJ@bad?5array?5new?5length@ DB 'bad array new length', 00H ; `string'
CONST	ENDS
;	COMDAT ??_7bad_array_new_length@std@@6B@
CONST	SEGMENT
??_7bad_array_new_length@std@@6B@ DD FLAT:??_R4bad_array_new_length@std@@6B@ ; std::bad_array_new_length::`vftable'
	DD	FLAT:??_Ebad_array_new_length@std@@UAEPAXI@Z
	DD	FLAT:?what@exception@std@@UBEPBDXZ
CONST	ENDS
;	COMDAT ??_7bad_alloc@std@@6B@
CONST	SEGMENT
??_7bad_alloc@std@@6B@ DD FLAT:??_R4bad_alloc@std@@6B@	; std::bad_alloc::`vftable'
	DD	FLAT:??_Ebad_alloc@std@@UAEPAXI@Z
	DD	FLAT:?what@exception@std@@UBEPBDXZ
CONST	ENDS
;	COMDAT ??_C@_0BC@EOODALEL@Unknown?5exception@
CONST	SEGMENT
??_C@_0BC@EOODALEL@Unknown?5exception@ DB 'Unknown exception', 00H ; `string'
CONST	ENDS
;	COMDAT ??_7exception@std@@6B@
CONST	SEGMENT
??_7exception@std@@6B@ DD FLAT:??_R4exception@std@@6B@	; std::exception::`vftable'
	DD	FLAT:??_Eexception@std@@UAEPAXI@Z
	DD	FLAT:?what@exception@std@@UBEPBDXZ
CONST	ENDS
;	COMDAT xdata$x
xdata$x	SEGMENT
__unwindtable$??$?0U?$pair@HPAVCWindow@UI@@@std@@@?$_Tree_temp_node@V?$allocator@U?$_Tree_node@U?$pair@$$CBHPAVCWindow@UI@@@std@@PAX@std@@@std@@@std@@QAE@AAV?$allocator@U?$_Tree_node@U?$pair@$$CBHPAVCWindow@UI@@@std@@PAX@std@@@1@PAU?$_Tree_node@U?$pair@$$CBHPAVCWindow@UI@@@std@@PAX@1@$$QAU?$pair@HPAVCWindow@UI@@@1@@Z DD 0ffffffffH
	DD	FLAT:__unwindfunclet$??$?0U?$pair@HPAVCWindow@UI@@@std@@@?$_Tree_temp_node@V?$allocator@U?$_Tree_node@U?$pair@$$CBHPAVCWindow@UI@@@std@@PAX@std@@@std@@@std@@QAE@AAV?$allocator@U?$_Tree_node@U?$pair@$$CBHPAVCWindow@UI@@@std@@PAX@std@@@1@PAU?$_Tree_node@U?$pair@$$CBHPAVCWindow@UI@@@std@@PAX@1@$$QAU?$pair@HPAVCWindow@UI@@@1@@Z$1
__ehfuncinfo$??$?0U?$pair@HPAVCWindow@UI@@@std@@@?$_Tree_temp_node@V?$allocator@U?$_Tree_node@U?$pair@$$CBHPAVCWindow@UI@@@std@@PAX@std@@@std@@@std@@QAE@AAV?$allocator@U?$_Tree_node@U?$pair@$$CBHPAVCWindow@UI@@@std@@PAX@std@@@1@PAU?$_Tree_node@U?$pair@$$CBHPAVCWindow@UI@@@std@@PAX@1@$$QAU?$pair@HPAVCWindow@UI@@@1@@Z DD 019930522H
	DD	01H
	DD	FLAT:__unwindtable$??$?0U?$pair@HPAVCWindow@UI@@@std@@@?$_Tree_temp_node@V?$allocator@U?$_Tree_node@U?$pair@$$CBHPAVCWindow@UI@@@std@@PAX@std@@@std@@@std@@QAE@AAV?$allocator@U?$_Tree_node@U?$pair@$$CBHPAVCWindow@UI@@@std@@PAX@std@@@1@PAU?$_Tree_node@U?$pair@$$CBHPAVCWindow@UI@@@std@@PAX@1@$$QAU?$pair@HPAVCWindow@UI@@@1@@Z
	DD	2 DUP(00H)
	DD	2 DUP(00H)
	DD	00H
	DD	01H
xdata$x	ENDS
;	COMDAT xdata$x
xdata$x	SEGMENT
__unwindtable$??$?0U?$pair@$$CBHPAVCWindow@UI@@@std@@@?$_Tree_temp_node@V?$allocator@U?$_Tree_node@U?$pair@$$CBHPAVCWindow@UI@@@std@@PAX@std@@@std@@@std@@QAE@AAV?$allocator@U?$_Tree_node@U?$pair@$$CBHPAVCWindow@UI@@@std@@PAX@std@@@1@PAU?$_Tree_node@U?$pair@$$CBHPAVCWindow@UI@@@std@@PAX@1@$$QAU?$pair@$$CBHPAVCWindow@UI@@@1@@Z DD 0ffffffffH
	DD	FLAT:__unwindfunclet$??$?0U?$pair@$$CBHPAVCWindow@UI@@@std@@@?$_Tree_temp_node@V?$allocator@U?$_Tree_node@U?$pair@$$CBHPAVCWindow@UI@@@std@@PAX@std@@@std@@@std@@QAE@AAV?$allocator@U?$_Tree_node@U?$pair@$$CBHPAVCWindow@UI@@@std@@PAX@std@@@1@PAU?$_Tree_node@U?$pair@$$CBHPAVCWindow@UI@@@std@@PAX@1@$$QAU?$pair@$$CBHPAVCWindow@UI@@@1@@Z$1
__ehfuncinfo$??$?0U?$pair@$$CBHPAVCWindow@UI@@@std@@@?$_Tree_temp_node@V?$allocator@U?$_Tree_node@U?$pair@$$CBHPAVCWindow@UI@@@std@@PAX@std@@@std@@@std@@QAE@AAV?$allocator@U?$_Tree_node@U?$pair@$$CBHPAVCWindow@UI@@@std@@PAX@std@@@1@PAU?$_Tree_node@U?$pair@$$CBHPAVCWindow@UI@@@std@@PAX@1@$$QAU?$pair@$$CBHPAVCWindow@UI@@@1@@Z DD 019930522H
	DD	01H
	DD	FLAT:__unwindtable$??$?0U?$pair@$$CBHPAVCWindow@UI@@@std@@@?$_Tree_temp_node@V?$allocator@U?$_Tree_node@U?$pair@$$CBHPAVCWindow@UI@@@std@@PAX@std@@@std@@@std@@QAE@AAV?$allocator@U?$_Tree_node@U?$pair@$$CBHPAVCWindow@UI@@@std@@PAX@std@@@1@PAU?$_Tree_node@U?$pair@$$CBHPAVCWindow@UI@@@std@@PAX@1@$$QAU?$pair@$$CBHPAVCWindow@UI@@@1@@Z
	DD	2 DUP(00H)
	DD	2 DUP(00H)
	DD	00H
	DD	01H
xdata$x	ENDS
;	COMDAT xdata$x
xdata$x	SEGMENT
__unwindtable$??0?$_Tree_temp_node_alloc@V?$allocator@U?$_Tree_node@U?$pair@$$CBHPAVCWindow@UI@@@std@@PAX@std@@@std@@@std@@QAE@AAV?$allocator@U?$_Tree_node@U?$pair@$$CBHPAVCWindow@UI@@@std@@PAX@std@@@1@@Z DD 0ffffffffH
	DD	FLAT:__unwindfunclet$??0?$_Tree_temp_node_alloc@V?$allocator@U?$_Tree_node@U?$pair@$$CBHPAVCWindow@UI@@@std@@PAX@std@@@std@@@std@@QAE@AAV?$allocator@U?$_Tree_node@U?$pair@$$CBHPAVCWindow@UI@@@std@@PAX@std@@@1@@Z$0
__ehfuncinfo$??0?$_Tree_temp_node_alloc@V?$allocator@U?$_Tree_node@U?$pair@$$CBHPAVCWindow@UI@@@std@@PAX@std@@@std@@@std@@QAE@AAV?$allocator@U?$_Tree_node@U?$pair@$$CBHPAVCWindow@UI@@@std@@PAX@std@@@1@@Z DD 019930522H
	DD	01H
	DD	FLAT:__unwindtable$??0?$_Tree_temp_node_alloc@V?$allocator@U?$_Tree_node@U?$pair@$$CBHPAVCWindow@UI@@@std@@PAX@std@@@std@@@std@@QAE@AAV?$allocator@U?$_Tree_node@U?$pair@$$CBHPAVCWindow@UI@@@std@@PAX@std@@@1@@Z
	DD	2 DUP(00H)
	DD	2 DUP(00H)
	DD	00H
	DD	01H
xdata$x	ENDS
;	COMDAT xdata$x
xdata$x	SEGMENT
__unwindtable$??$_Emplace@U?$pair@HPAVCWindow@UI@@@std@@@?$_Tree@V?$_Tmap_traits@HPAVCWindow@UI@@U?$less@H@std@@V?$allocator@U?$pair@$$CBHPAVCWindow@UI@@@std@@@4@$0A@@std@@@std@@IAE?AU?$pair@PAU?$_Tree_node@U?$pair@$$CBHPAVCWindow@UI@@@std@@PAX@std@@_N@1@$$QAU?$pair@HPAVCWindow@UI@@@1@@Z DD 0ffffffffH
	DD	FLAT:__unwindfunclet$??$_Emplace@U?$pair@HPAVCWindow@UI@@@std@@@?$_Tree@V?$_Tmap_traits@HPAVCWindow@UI@@U?$less@H@std@@V?$allocator@U?$pair@$$CBHPAVCWindow@UI@@@std@@@4@$0A@@std@@@std@@IAE?AU?$pair@PAU?$_Tree_node@U?$pair@$$CBHPAVCWindow@UI@@@std@@PAX@std@@_N@1@$$QAU?$pair@HPAVCWindow@UI@@@1@@Z$2
__ehfuncinfo$??$_Emplace@U?$pair@HPAVCWindow@UI@@@std@@@?$_Tree@V?$_Tmap_traits@HPAVCWindow@UI@@U?$less@H@std@@V?$allocator@U?$pair@$$CBHPAVCWindow@UI@@@std@@@4@$0A@@std@@@std@@IAE?AU?$pair@PAU?$_Tree_node@U?$pair@$$CBHPAVCWindow@UI@@@std@@PAX@std@@_N@1@$$QAU?$pair@HPAVCWindow@UI@@@1@@Z DD 019930522H
	DD	01H
	DD	FLAT:__unwindtable$??$_Emplace@U?$pair@HPAVCWindow@UI@@@std@@@?$_Tree@V?$_Tmap_traits@HPAVCWindow@UI@@U?$less@H@std@@V?$allocator@U?$pair@$$CBHPAVCWindow@UI@@@std@@@4@$0A@@std@@@std@@IAE?AU?$pair@PAU?$_Tree_node@U?$pair@$$CBHPAVCWindow@UI@@@std@@PAX@std@@_N@1@$$QAU?$pair@HPAVCWindow@UI@@@1@@Z
	DD	2 DUP(00H)
	DD	2 DUP(00H)
	DD	00H
	DD	01H
xdata$x	ENDS
;	COMDAT xdata$x
xdata$x	SEGMENT
__unwindtable$??$?0U?$pair@$$CBV?$basic_string@DU?$char_traits@D@std@@V?$allocator@D@2@@std@@PAVCWindow@UI@@@std@@@?$_Tree_temp_node@V?$allocator@U?$_Tree_node@U?$pair@$$CBV?$basic_string@DU?$char_traits@D@std@@V?$allocator@D@2@@std@@PAVCWindow@UI@@@std@@PAX@std@@@std@@@std@@QAE@AAV?$allocator@U?$_Tree_node@U?$pair@$$CBV?$basic_string@DU?$char_traits@D@std@@V?$allocator@D@2@@std@@PAVCWindow@UI@@@std@@PAX@std@@@1@PAU?$_Tree_node@U?$pair@$$CBV?$basic_string@DU?$char_traits@D@std@@V?$allocator@D@2@@std@@PAVCWindow@UI@@@std@@PAX@1@$$QAU?$pair@$$CBV?$basic_string@DU?$char_traits@D@std@@V?$allocator@D@2@@std@@PAVCWindow@UI@@@1@@Z DD 0ffffffffH
	DD	FLAT:__unwindfunclet$??$?0U?$pair@$$CBV?$basic_string@DU?$char_traits@D@std@@V?$allocator@D@2@@std@@PAVCWindow@UI@@@std@@@?$_Tree_temp_node@V?$allocator@U?$_Tree_node@U?$pair@$$CBV?$basic_string@DU?$char_traits@D@std@@V?$allocator@D@2@@std@@PAVCWindow@UI@@@std@@PAX@std@@@std@@@std@@QAE@AAV?$allocator@U?$_Tree_node@U?$pair@$$CBV?$basic_string@DU?$char_traits@D@std@@V?$allocator@D@2@@std@@PAVCWindow@UI@@@std@@PAX@std@@@1@PAU?$_Tree_node@U?$pair@$$CBV?$basic_string@DU?$char_traits@D@std@@V?$allocator@D@2@@std@@PAVCWindow@UI@@@std@@PAX@1@$$QAU?$pair@$$CBV?$basic_string@DU?$char_traits@D@std@@V?$allocator@D@2@@std@@PAVCWindow@UI@@@1@@Z$1
	DD	0ffffffffH
	DD	FLAT:__unwindfunclet$??$?0U?$pair@$$CBV?$basic_string@DU?$char_traits@D@std@@V?$allocator@D@2@@std@@PAVCWindow@UI@@@std@@@?$_Tree_temp_node@V?$allocator@U?$_Tree_node@U?$pair@$$CBV?$basic_string@DU?$char_traits@D@std@@V?$allocator@D@2@@std@@PAVCWindow@UI@@@std@@PAX@std@@@std@@@std@@QAE@AAV?$allocator@U?$_Tree_node@U?$pair@$$CBV?$basic_string@DU?$char_traits@D@std@@V?$allocator@D@2@@std@@PAVCWindow@UI@@@std@@PAX@std@@@1@PAU?$_Tree_node@U?$pair@$$CBV?$basic_string@DU?$char_traits@D@std@@V?$allocator@D@2@@std@@PAVCWindow@UI@@@std@@PAX@1@$$QAU?$pair@$$CBV?$basic_string@DU?$char_traits@D@std@@V?$allocator@D@2@@std@@PAVCWindow@UI@@@1@@Z$0
__ehfuncinfo$??$?0U?$pair@$$CBV?$basic_string@DU?$char_traits@D@std@@V?$allocator@D@2@@std@@PAVCWindow@UI@@@std@@@?$_Tree_temp_node@V?$allocator@U?$_Tree_node@U?$pair@$$CBV?$basic_string@DU?$char_traits@D@std@@V?$allocator@D@2@@std@@PAVCWindow@UI@@@std@@PAX@std@@@std@@@std@@QAE@AAV?$allocator@U?$_Tree_node@U?$pair@$$CBV?$basic_string@DU?$char_traits@D@std@@V?$allocator@D@2@@std@@PAVCWindow@UI@@@std@@PAX@std@@@1@PAU?$_Tree_node@U?$pair@$$CBV?$basic_string@DU?$char_traits@D@std@@V?$allocator@D@2@@std@@PAVCWindow@UI@@@std@@PAX@1@$$QAU?$pair@$$CBV?$basic_string@DU?$char_traits@D@std@@V?$allocator@D@2@@std@@PAVCWindow@UI@@@1@@Z DD 019930522H
	DD	02H
	DD	FLAT:__unwindtable$??$?0U?$pair@$$CBV?$basic_string@DU?$char_traits@D@std@@V?$allocator@D@2@@std@@PAVCWindow@UI@@@std@@@?$_Tree_temp_node@V?$allocator@U?$_Tree_node@U?$pair@$$CBV?$basic_string@DU?$char_traits@D@std@@V?$allocator@D@2@@std@@PAVCWindow@UI@@@std@@PAX@std@@@std@@@std@@QAE@AAV?$allocator@U?$_Tree_node@U?$pair@$$CBV?$basic_string@DU?$char_traits@D@std@@V?$allocator@D@2@@std@@PAVCWindow@UI@@@std@@PAX@std@@@1@PAU?$_Tree_node@U?$pair@$$CBV?$basic_string@DU?$char_traits@D@std@@V?$allocator@D@2@@std@@PAVCWindow@UI@@@std@@PAX@1@$$QAU?$pair@$$CBV?$basic_string@DU?$char_traits@D@std@@V?$allocator@D@2@@std@@PAVCWindow@UI@@@1@@Z
	DD	2 DUP(00H)
	DD	2 DUP(00H)
	DD	00H
	DD	01H
xdata$x	ENDS
;	COMDAT xdata$x
xdata$x	SEGMENT
__unwindtable$??$?0ABQAVCWindow@UI@@@?$_List_node_emplace_op2@V?$allocator@U?$_List_node@PAVCWindow@UI@@PAX@std@@@std@@@std@@QAE@AAV?$allocator@U?$_List_node@PAVCWindow@UI@@PAX@std@@@1@ABQAVCWindow@UI@@@Z DD 0ffffffffH
	DD	FLAT:__unwindfunclet$??$?0ABQAVCWindow@UI@@@?$_List_node_emplace_op2@V?$allocator@U?$_List_node@PAVCWindow@UI@@PAX@std@@@std@@@std@@QAE@AAV?$allocator@U?$_List_node@PAVCWindow@UI@@PAX@std@@@1@ABQAVCWindow@UI@@@Z$0
__ehfuncinfo$??$?0ABQAVCWindow@UI@@@?$_List_node_emplace_op2@V?$allocator@U?$_List_node@PAVCWindow@UI@@PAX@std@@@std@@@std@@QAE@AAV?$allocator@U?$_List_node@PAVCWindow@UI@@PAX@std@@@1@ABQAVCWindow@UI@@@Z DD 019930522H
	DD	01H
	DD	FLAT:__unwindtable$??$?0ABQAVCWindow@UI@@@?$_List_node_emplace_op2@V?$allocator@U?$_List_node@PAVCWindow@UI@@PAX@std@@@std@@@std@@QAE@AAV?$allocator@U?$_List_node@PAVCWindow@UI@@PAX@std@@@1@ABQAVCWindow@UI@@@Z
	DD	2 DUP(00H)
	DD	2 DUP(00H)
	DD	00H
	DD	01H
xdata$x	ENDS
;	COMDAT xdata$x
xdata$x	SEGMENT
__unwindtable$??$?0ABUpiecewise_construct_t@std@@V?$tuple@$$QAV?$basic_string@DU?$char_traits@D@std@@V?$allocator@D@2@@std@@@1@V?$tuple@$$V@1@@?$_Tree_temp_node@V?$allocator@U?$_Tree_node@U?$pair@$$CBV?$basic_string@DU?$char_traits@D@std@@V?$allocator@D@2@@std@@PAVCWindow@UI@@@std@@PAX@std@@@std@@@std@@QAE@AAV?$allocator@U?$_Tree_node@U?$pair@$$CBV?$basic_string@DU?$char_traits@D@std@@V?$allocator@D@2@@std@@PAVCWindow@UI@@@std@@PAX@std@@@1@PAU?$_Tree_node@U?$pair@$$CBV?$basic_string@DU?$char_traits@D@std@@V?$allocator@D@2@@std@@PAVCWindow@UI@@@std@@PAX@1@ABUpiecewise_construct_t@1@$$QAV?$tuple@$$QAV?$basic_string@DU?$char_traits@D@std@@V?$allocator@D@2@@std@@@1@$$QAV?$tuple@$$V@1@@Z DD 0ffffffffH
	DD	FLAT:__unwindfunclet$??$?0ABUpiecewise_construct_t@std@@V?$tuple@$$QAV?$basic_string@DU?$char_traits@D@std@@V?$allocator@D@2@@std@@@1@V?$tuple@$$V@1@@?$_Tree_temp_node@V?$allocator@U?$_Tree_node@U?$pair@$$CBV?$basic_string@DU?$char_traits@D@std@@V?$allocator@D@2@@std@@PAVCWindow@UI@@@std@@PAX@std@@@std@@@std@@QAE@AAV?$allocator@U?$_Tree_node@U?$pair@$$CBV?$basic_string@DU?$char_traits@D@std@@V?$allocator@D@2@@std@@PAVCWindow@UI@@@std@@PAX@std@@@1@PAU?$_Tree_node@U?$pair@$$CBV?$basic_string@DU?$char_traits@D@std@@V?$allocator@D@2@@std@@PAVCWindow@UI@@@std@@PAX@1@ABUpiecewise_construct_t@1@$$QAV?$tuple@$$QAV?$basic_string@DU?$char_traits@D@std@@V?$allocator@D@2@@std@@@1@$$QAV?$tuple@$$V@1@@Z$1
__ehfuncinfo$??$?0ABUpiecewise_construct_t@std@@V?$tuple@$$QAV?$basic_string@DU?$char_traits@D@std@@V?$allocator@D@2@@std@@@1@V?$tuple@$$V@1@@?$_Tree_temp_node@V?$allocator@U?$_Tree_node@U?$pair@$$CBV?$basic_string@DU?$char_traits@D@std@@V?$allocator@D@2@@std@@PAVCWindow@UI@@@std@@PAX@std@@@std@@@std@@QAE@AAV?$allocator@U?$_Tree_node@U?$pair@$$CBV?$basic_string@DU?$char_traits@D@std@@V?$allocator@D@2@@std@@PAVCWindow@UI@@@std@@PAX@std@@@1@PAU?$_Tree_node@U?$pair@$$CBV?$basic_string@DU?$char_traits@D@std@@V?$allocator@D@2@@std@@PAVCWindow@UI@@@std@@PAX@1@ABUpiecewise_construct_t@1@$$QAV?$tuple@$$QAV?$basic_string@DU?$char_traits@D@std@@V?$allocator@D@2@@std@@@1@$$QAV?$tuple@$$V@1@@Z DD 019930522H
	DD	01H
	DD	FLAT:__unwindtable$??$?0ABUpiecewise_construct_t@std@@V?$tuple@$$QAV?$basic_string@DU?$char_traits@D@std@@V?$allocator@D@2@@std@@@1@V?$tuple@$$V@1@@?$_Tree_temp_node@V?$allocator@U?$_Tree_node@U?$pair@$$CBV?$basic_string@DU?$char_traits@D@std@@V?$allocator@D@2@@std@@PAVCWindow@UI@@@std@@PAX@std@@@std@@@std@@QAE@AAV?$allocator@U?$_Tree_node@U?$pair@$$CBV?$basic_string@DU?$char_traits@D@std@@V?$allocator@D@2@@std@@PAVCWindow@UI@@@std@@PAX@std@@@1@PAU?$_Tree_node@U?$pair@$$CBV?$basic_string@DU?$char_traits@D@std@@V?$allocator@D@2@@std@@PAVCWindow@UI@@@std@@PAX@1@ABUpiecewise_construct_t@1@$$QAV?$tuple@$$QAV?$basic_string@DU?$char_traits@D@std@@V?$allocator@D@2@@std@@@1@$$QAV?$tuple@$$V@1@@Z
	DD	2 DUP(00H)
	DD	2 DUP(00H)
	DD	00H
	DD	01H
xdata$x	ENDS
;	COMDAT xdata$x
xdata$x	SEGMENT
__unwindtable$??0?$_Tree_temp_node_alloc@V?$allocator@U?$_Tree_node@U?$pair@$$CBV?$basic_string@DU?$char_traits@D@std@@V?$allocator@D@2@@std@@PAVCWindow@UI@@@std@@PAX@std@@@std@@@std@@QAE@AAV?$allocator@U?$_Tree_node@U?$pair@$$CBV?$basic_string@DU?$char_traits@D@std@@V?$allocator@D@2@@std@@PAVCWindow@UI@@@std@@PAX@std@@@1@@Z DD 0ffffffffH
	DD	FLAT:__unwindfunclet$??0?$_Tree_temp_node_alloc@V?$allocator@U?$_Tree_node@U?$pair@$$CBV?$basic_string@DU?$char_traits@D@std@@V?$allocator@D@2@@std@@PAVCWindow@UI@@@std@@PAX@std@@@std@@@std@@QAE@AAV?$allocator@U?$_Tree_node@U?$pair@$$CBV?$basic_string@DU?$char_traits@D@std@@V?$allocator@D@2@@std@@PAVCWindow@UI@@@std@@PAX@std@@@1@@Z$0
__ehfuncinfo$??0?$_Tree_temp_node_alloc@V?$allocator@U?$_Tree_node@U?$pair@$$CBV?$basic_string@DU?$char_traits@D@std@@V?$allocator@D@2@@std@@PAVCWindow@UI@@@std@@PAX@std@@@std@@@std@@QAE@AAV?$allocator@U?$_Tree_node@U?$pair@$$CBV?$basic_string@DU?$char_traits@D@std@@V?$allocator@D@2@@std@@PAVCWindow@UI@@@std@@PAX@std@@@1@@Z DD 019930522H
	DD	01H
	DD	FLAT:__unwindtable$??0?$_Tree_temp_node_alloc@V?$allocator@U?$_Tree_node@U?$pair@$$CBV?$basic_string@DU?$char_traits@D@std@@V?$allocator@D@2@@std@@PAVCWindow@UI@@@std@@PAX@std@@@std@@@std@@QAE@AAV?$allocator@U?$_Tree_node@U?$pair@$$CBV?$basic_string@DU?$char_traits@D@std@@V?$allocator@D@2@@std@@PAVCWindow@UI@@@std@@PAX@std@@@1@@Z
	DD	2 DUP(00H)
	DD	2 DUP(00H)
	DD	00H
	DD	01H
xdata$x	ENDS
;	COMDAT xdata$x
xdata$x	SEGMENT
__unwindtable$??$_Emplace@U?$pair@$$CBHPAVCWindow@UI@@@std@@@?$_Tree@V?$_Tmap_traits@HPAVCWindow@UI@@U?$less@H@std@@V?$allocator@U?$pair@$$CBHPAVCWindow@UI@@@std@@@4@$0A@@std@@@std@@IAE?AU?$pair@PAU?$_Tree_node@U?$pair@$$CBHPAVCWindow@UI@@@std@@PAX@std@@_N@1@$$QAU?$pair@$$CBHPAVCWindow@UI@@@1@@Z DD 0ffffffffH
	DD	FLAT:__unwindfunclet$??$_Emplace@U?$pair@$$CBHPAVCWindow@UI@@@std@@@?$_Tree@V?$_Tmap_traits@HPAVCWindow@UI@@U?$less@H@std@@V?$allocator@U?$pair@$$CBHPAVCWindow@UI@@@std@@@4@$0A@@std@@@std@@IAE?AU?$pair@PAU?$_Tree_node@U?$pair@$$CBHPAVCWindow@UI@@@std@@PAX@std@@_N@1@$$QAU?$pair@$$CBHPAVCWindow@UI@@@1@@Z$2
__ehfuncinfo$??$_Emplace@U?$pair@$$CBHPAVCWindow@UI@@@std@@@?$_Tree@V?$_Tmap_traits@HPAVCWindow@UI@@U?$less@H@std@@V?$allocator@U?$pair@$$CBHPAVCWindow@UI@@@std@@@4@$0A@@std@@@std@@IAE?AU?$pair@PAU?$_Tree_node@U?$pair@$$CBHPAVCWindow@UI@@@std@@PAX@std@@_N@1@$$QAU?$pair@$$CBHPAVCWindow@UI@@@1@@Z DD 019930522H
	DD	01H
	DD	FLAT:__unwindtable$??$_Emplace@U?$pair@$$CBHPAVCWindow@UI@@@std@@@?$_Tree@V?$_Tmap_traits@HPAVCWindow@UI@@U?$less@H@std@@V?$allocator@U?$pair@$$CBHPAVCWindow@UI@@@std@@@4@$0A@@std@@@std@@IAE?AU?$pair@PAU?$_Tree_node@U?$pair@$$CBHPAVCWindow@UI@@@std@@PAX@std@@_N@1@$$QAU?$pair@$$CBHPAVCWindow@UI@@@1@@Z
	DD	2 DUP(00H)
	DD	2 DUP(00H)
	DD	00H
	DD	01H
xdata$x	ENDS
;	COMDAT xdata$x
xdata$x	SEGMENT
__unwindtable$??$emplace@U?$pair@HPAVCWindow@UI@@@std@@@?$_Tree@V?$_Tmap_traits@HPAVCWindow@UI@@U?$less@H@std@@V?$allocator@U?$pair@$$CBHPAVCWindow@UI@@@std@@@4@$0A@@std@@@std@@QAE?AU?$pair@V?$_Tree_iterator@V?$_Tree_val@U?$_Tree_simple_types@U?$pair@$$CBHPAVCWindow@UI@@@std@@@std@@@std@@@std@@_N@1@$$QAU?$pair@HPAVCWindow@UI@@@1@@Z DD 0ffffffffH
	DD	FLAT:__unwindfunclet$??$emplace@U?$pair@HPAVCWindow@UI@@@std@@@?$_Tree@V?$_Tmap_traits@HPAVCWindow@UI@@U?$less@H@std@@V?$allocator@U?$pair@$$CBHPAVCWindow@UI@@@std@@@4@$0A@@std@@@std@@QAE?AU?$pair@V?$_Tree_iterator@V?$_Tree_val@U?$_Tree_simple_types@U?$pair@$$CBHPAVCWindow@UI@@@std@@@std@@@std@@@std@@_N@1@$$QAU?$pair@HPAVCWindow@UI@@@1@@Z$2
__ehfuncinfo$??$emplace@U?$pair@HPAVCWindow@UI@@@std@@@?$_Tree@V?$_Tmap_traits@HPAVCWindow@UI@@U?$less@H@std@@V?$allocator@U?$pair@$$CBHPAVCWindow@UI@@@std@@@4@$0A@@std@@@std@@QAE?AU?$pair@V?$_Tree_iterator@V?$_Tree_val@U?$_Tree_simple_types@U?$pair@$$CBHPAVCWindow@UI@@@std@@@std@@@std@@@std@@_N@1@$$QAU?$pair@HPAVCWindow@UI@@@1@@Z DD 019930522H
	DD	01H
	DD	FLAT:__unwindtable$??$emplace@U?$pair@HPAVCWindow@UI@@@std@@@?$_Tree@V?$_Tmap_traits@HPAVCWindow@UI@@U?$less@H@std@@V?$allocator@U?$pair@$$CBHPAVCWindow@UI@@@std@@@4@$0A@@std@@@std@@QAE?AU?$pair@V?$_Tree_iterator@V?$_Tree_val@U?$_Tree_simple_types@U?$pair@$$CBHPAVCWindow@UI@@@std@@@std@@@std@@@std@@_N@1@$$QAU?$pair@HPAVCWindow@UI@@@1@@Z
	DD	2 DUP(00H)
	DD	2 DUP(00H)
	DD	00H
	DD	01H
xdata$x	ENDS
;	COMDAT xdata$x
xdata$x	SEGMENT
__unwindtable$??$_Emplace@U?$pair@$$CBV?$basic_string@DU?$char_traits@D@std@@V?$allocator@D@2@@std@@PAVCWindow@UI@@@std@@@?$_Tree@V?$_Tmap_traits@V?$basic_string@DU?$char_traits@D@std@@V?$allocator@D@2@@std@@PAVCWindow@UI@@U?$less@V?$basic_string@DU?$char_traits@D@std@@V?$allocator@D@2@@std@@@2@V?$allocator@U?$pair@$$CBV?$basic_string@DU?$char_traits@D@std@@V?$allocator@D@2@@std@@PAVCWindow@UI@@@std@@@2@$0A@@std@@@std@@IAE?AU?$pair@PAU?$_Tree_node@U?$pair@$$CBV?$basic_string@DU?$char_traits@D@std@@V?$allocator@D@2@@std@@PAVCWindow@UI@@@std@@PAX@std@@_N@1@$$QAU?$pair@$$CBV?$basic_string@DU?$char_traits@D@std@@V?$allocator@D@2@@std@@PAVCWindow@UI@@@1@@Z DD 0ffffffffH
	DD	FLAT:__unwindfunclet$??$_Emplace@U?$pair@$$CBV?$basic_string@DU?$char_traits@D@std@@V?$allocator@D@2@@std@@PAVCWindow@UI@@@std@@@?$_Tree@V?$_Tmap_traits@V?$basic_string@DU?$char_traits@D@std@@V?$allocator@D@2@@std@@PAVCWindow@UI@@U?$less@V?$basic_string@DU?$char_traits@D@std@@V?$allocator@D@2@@std@@@2@V?$allocator@U?$pair@$$CBV?$basic_string@DU?$char_traits@D@std@@V?$allocator@D@2@@std@@PAVCWindow@UI@@@std@@@2@$0A@@std@@@std@@IAE?AU?$pair@PAU?$_Tree_node@U?$pair@$$CBV?$basic_string@DU?$char_traits@D@std@@V?$allocator@D@2@@std@@PAVCWindow@UI@@@std@@PAX@std@@_N@1@$$QAU?$pair@$$CBV?$basic_string@DU?$char_traits@D@std@@V?$allocator@D@2@@std@@PAVCWindow@UI@@@1@@Z$2
	DD	0ffffffffH
	DD	FLAT:__unwindfunclet$??$_Emplace@U?$pair@$$CBV?$basic_string@DU?$char_traits@D@std@@V?$allocator@D@2@@std@@PAVCWindow@UI@@@std@@@?$_Tree@V?$_Tmap_traits@V?$basic_string@DU?$char_traits@D@std@@V?$allocator@D@2@@std@@PAVCWindow@UI@@U?$less@V?$basic_string@DU?$char_traits@D@std@@V?$allocator@D@2@@std@@@2@V?$allocator@U?$pair@$$CBV?$basic_string@DU?$char_traits@D@std@@V?$allocator@D@2@@std@@PAVCWindow@UI@@@std@@@2@$0A@@std@@@std@@IAE?AU?$pair@PAU?$_Tree_node@U?$pair@$$CBV?$basic_string@DU?$char_traits@D@std@@V?$allocator@D@2@@std@@PAVCWindow@UI@@@std@@PAX@std@@_N@1@$$QAU?$pair@$$CBV?$basic_string@DU?$char_traits@D@std@@V?$allocator@D@2@@std@@PAVCWindow@UI@@@1@@Z$1
__ehfuncinfo$??$_Emplace@U?$pair@$$CBV?$basic_string@DU?$char_traits@D@std@@V?$allocator@D@2@@std@@PAVCWindow@UI@@@std@@@?$_Tree@V?$_Tmap_traits@V?$basic_string@DU?$char_traits@D@std@@V?$allocator@D@2@@std@@PAVCWindow@UI@@U?$less@V?$basic_string@DU?$char_traits@D@std@@V?$allocator@D@2@@std@@@2@V?$allocator@U?$pair@$$CBV?$basic_string@DU?$char_traits@D@std@@V?$allocator@D@2@@std@@PAVCWindow@UI@@@std@@@2@$0A@@std@@@std@@IAE?AU?$pair@PAU?$_Tree_node@U?$pair@$$CBV?$basic_string@DU?$char_traits@D@std@@V?$allocator@D@2@@std@@PAVCWindow@UI@@@std@@PAX@std@@_N@1@$$QAU?$pair@$$CBV?$basic_string@DU?$char_traits@D@std@@V?$allocator@D@2@@std@@PAVCWindow@UI@@@1@@Z DD 019930522H
	DD	02H
	DD	FLAT:__unwindtable$??$_Emplace@U?$pair@$$CBV?$basic_string@DU?$char_traits@D@std@@V?$allocator@D@2@@std@@PAVCWindow@UI@@@std@@@?$_Tree@V?$_Tmap_traits@V?$basic_string@DU?$char_traits@D@std@@V?$allocator@D@2@@std@@PAVCWindow@UI@@U?$less@V?$basic_string@DU?$char_traits@D@std@@V?$allocator@D@2@@std@@@2@V?$allocator@U?$pair@$$CBV?$basic_string@DU?$char_traits@D@std@@V?$allocator@D@2@@std@@PAVCWindow@UI@@@std@@@2@$0A@@std@@@std@@IAE?AU?$pair@PAU?$_Tree_node@U?$pair@$$CBV?$basic_string@DU?$char_traits@D@std@@V?$allocator@D@2@@std@@PAVCWindow@UI@@@std@@PAX@std@@_N@1@$$QAU?$pair@$$CBV?$basic_string@DU?$char_traits@D@std@@V?$allocator@D@2@@std@@PAVCWindow@UI@@@1@@Z
	DD	2 DUP(00H)
	DD	2 DUP(00H)
	DD	00H
	DD	01H
xdata$x	ENDS
;	COMDAT xdata$x
xdata$x	SEGMENT
__unwindtable$??$_Emplace@ABQAVCWindow@UI@@@?$list@PAVCWindow@UI@@V?$allocator@PAVCWindow@UI@@@std@@@std@@QAEPAU?$_List_node@PAVCWindow@UI@@PAX@1@QAU21@ABQAVCWindow@UI@@@Z DD 0ffffffffH
	DD	FLAT:__unwindfunclet$??$_Emplace@ABQAVCWindow@UI@@@?$list@PAVCWindow@UI@@V?$allocator@PAVCWindow@UI@@@std@@@std@@QAEPAU?$_List_node@PAVCWindow@UI@@PAX@1@QAU21@ABQAVCWindow@UI@@@Z$1
__ehfuncinfo$??$_Emplace@ABQAVCWindow@UI@@@?$list@PAVCWindow@UI@@V?$allocator@PAVCWindow@UI@@@std@@@std@@QAEPAU?$_List_node@PAVCWindow@UI@@PAX@1@QAU21@ABQAVCWindow@UI@@@Z DD 019930522H
	DD	01H
	DD	FLAT:__unwindtable$??$_Emplace@ABQAVCWindow@UI@@@?$list@PAVCWindow@UI@@V?$allocator@PAVCWindow@UI@@@std@@@std@@QAEPAU?$_List_node@PAVCWindow@UI@@PAX@1@QAU21@ABQAVCWindow@UI@@@Z
	DD	2 DUP(00H)
	DD	2 DUP(00H)
	DD	00H
	DD	01H
xdata$x	ENDS
;	COMDAT xdata$x
xdata$x	SEGMENT
__unwindtable$??$_Try_emplace@V?$basic_string@DU?$char_traits@D@std@@V?$allocator@D@2@@std@@$$V@?$map@V?$basic_string@DU?$char_traits@D@std@@V?$allocator@D@2@@std@@PAVCWindow@UI@@U?$less@V?$basic_string@DU?$char_traits@D@std@@V?$allocator@D@2@@std@@@2@V?$allocator@U?$pair@$$CBV?$basic_string@DU?$char_traits@D@std@@V?$allocator@D@2@@std@@PAVCWindow@UI@@@std@@@2@@std@@AAE?AU?$pair@PAU?$_Tree_node@U?$pair@$$CBV?$basic_string@DU?$char_traits@D@std@@V?$allocator@D@2@@std@@PAVCWindow@UI@@@std@@PAX@std@@_N@1@$$QAV?$basic_string@DU?$char_traits@D@std@@V?$allocator@D@2@@1@@Z DD 0ffffffffH
	DD	FLAT:__unwindfunclet$??$_Try_emplace@V?$basic_string@DU?$char_traits@D@std@@V?$allocator@D@2@@std@@$$V@?$map@V?$basic_string@DU?$char_traits@D@std@@V?$allocator@D@2@@std@@PAVCWindow@UI@@U?$less@V?$basic_string@DU?$char_traits@D@std@@V?$allocator@D@2@@std@@@2@V?$allocator@U?$pair@$$CBV?$basic_string@DU?$char_traits@D@std@@V?$allocator@D@2@@std@@PAVCWindow@UI@@@std@@@2@@std@@AAE?AU?$pair@PAU?$_Tree_node@U?$pair@$$CBV?$basic_string@DU?$char_traits@D@std@@V?$allocator@D@2@@std@@PAVCWindow@UI@@@std@@PAX@std@@_N@1@$$QAV?$basic_string@DU?$char_traits@D@std@@V?$allocator@D@2@@1@@Z$2
__ehfuncinfo$??$_Try_emplace@V?$basic_string@DU?$char_traits@D@std@@V?$allocator@D@2@@std@@$$V@?$map@V?$basic_string@DU?$char_traits@D@std@@V?$allocator@D@2@@std@@PAVCWindow@UI@@U?$less@V?$basic_string@DU?$char_traits@D@std@@V?$allocator@D@2@@std@@@2@V?$allocator@U?$pair@$$CBV?$basic_string@DU?$char_traits@D@std@@V?$allocator@D@2@@std@@PAVCWindow@UI@@@std@@@2@@std@@AAE?AU?$pair@PAU?$_Tree_node@U?$pair@$$CBV?$basic_string@DU?$char_traits@D@std@@V?$allocator@D@2@@std@@PAVCWindow@UI@@@std@@PAX@std@@_N@1@$$QAV?$basic_string@DU?$char_traits@D@std@@V?$allocator@D@2@@1@@Z DD 019930522H
	DD	01H
	DD	FLAT:__unwindtable$??$_Try_emplace@V?$basic_string@DU?$char_traits@D@std@@V?$allocator@D@2@@std@@$$V@?$map@V?$basic_string@DU?$char_traits@D@std@@V?$allocator@D@2@@std@@PAVCWindow@UI@@U?$less@V?$basic_string@DU?$char_traits@D@std@@V?$allocator@D@2@@std@@@2@V?$allocator@U?$pair@$$CBV?$basic_string@DU?$char_traits@D@std@@V?$allocator@D@2@@std@@PAVCWindow@UI@@@std@@@2@@std@@AAE?AU?$pair@PAU?$_Tree_node@U?$pair@$$CBV?$basic_string@DU?$char_traits@D@std@@V?$allocator@D@2@@std@@PAVCWindow@UI@@@std@@PAX@std@@_N@1@$$QAV?$basic_string@DU?$char_traits@D@std@@V?$allocator@D@2@@1@@Z
	DD	2 DUP(00H)
	DD	2 DUP(00H)
	DD	00H
	DD	01H
xdata$x	ENDS
;	COMDAT xdata$x
xdata$x	SEGMENT
__unwindtable$??$insert@$0A@$0A@@?$_Tree@V?$_Tmap_traits@HPAVCWindow@UI@@U?$less@H@std@@V?$allocator@U?$pair@$$CBHPAVCWindow@UI@@@std@@@4@$0A@@std@@@std@@QAE?AU?$pair@V?$_Tree_iterator@V?$_Tree_val@U?$_Tree_simple_types@U?$pair@$$CBHPAVCWindow@UI@@@std@@@std@@@std@@@std@@_N@1@$$QAU?$pair@$$CBHPAVCWindow@UI@@@1@@Z DD 0ffffffffH
	DD	FLAT:__unwindfunclet$??$insert@$0A@$0A@@?$_Tree@V?$_Tmap_traits@HPAVCWindow@UI@@U?$less@H@std@@V?$allocator@U?$pair@$$CBHPAVCWindow@UI@@@std@@@4@$0A@@std@@@std@@QAE?AU?$pair@V?$_Tree_iterator@V?$_Tree_val@U?$_Tree_simple_types@U?$pair@$$CBHPAVCWindow@UI@@@std@@@std@@@std@@@std@@_N@1@$$QAU?$pair@$$CBHPAVCWindow@UI@@@1@@Z$2
__ehfuncinfo$??$insert@$0A@$0A@@?$_Tree@V?$_Tmap_traits@HPAVCWindow@UI@@U?$less@H@std@@V?$allocator@U?$pair@$$CBHPAVCWindow@UI@@@std@@@4@$0A@@std@@@std@@QAE?AU?$pair@V?$_Tree_iterator@V?$_Tree_val@U?$_Tree_simple_types@U?$pair@$$CBHPAVCWindow@UI@@@std@@@std@@@std@@@std@@_N@1@$$QAU?$pair@$$CBHPAVCWindow@UI@@@1@@Z DD 019930522H
	DD	01H
	DD	FLAT:__unwindtable$??$insert@$0A@$0A@@?$_Tree@V?$_Tmap_traits@HPAVCWindow@UI@@U?$less@H@std@@V?$allocator@U?$pair@$$CBHPAVCWindow@UI@@@std@@@4@$0A@@std@@@std@@QAE?AU?$pair@V?$_Tree_iterator@V?$_Tree_val@U?$_Tree_simple_types@U?$pair@$$CBHPAVCWindow@UI@@@std@@@std@@@std@@@std@@_N@1@$$QAU?$pair@$$CBHPAVCWindow@UI@@@1@@Z
	DD	2 DUP(00H)
	DD	2 DUP(00H)
	DD	00H
	DD	01H
xdata$x	ENDS
;	COMDAT xdata$x
xdata$x	SEGMENT
__unwindtable$??$insert@U?$pair@HPAVCWindow@UI@@@std@@$0A@@?$map@HPAVCWindow@UI@@U?$less@H@std@@V?$allocator@U?$pair@$$CBHPAVCWindow@UI@@@std@@@4@@std@@QAE?AU?$pair@V?$_Tree_iterator@V?$_Tree_val@U?$_Tree_simple_types@U?$pair@$$CBHPAVCWindow@UI@@@std@@@std@@@std@@@std@@_N@1@$$QAU?$pair@HPAVCWindow@UI@@@1@@Z DD 0ffffffffH
	DD	FLAT:__unwindfunclet$??$insert@U?$pair@HPAVCWindow@UI@@@std@@$0A@@?$map@HPAVCWindow@UI@@U?$less@H@std@@V?$allocator@U?$pair@$$CBHPAVCWindow@UI@@@std@@@4@@std@@QAE?AU?$pair@V?$_Tree_iterator@V?$_Tree_val@U?$_Tree_simple_types@U?$pair@$$CBHPAVCWindow@UI@@@std@@@std@@@std@@@std@@_N@1@$$QAU?$pair@HPAVCWindow@UI@@@1@@Z$2
__ehfuncinfo$??$insert@U?$pair@HPAVCWindow@UI@@@std@@$0A@@?$map@HPAVCWindow@UI@@U?$less@H@std@@V?$allocator@U?$pair@$$CBHPAVCWindow@UI@@@std@@@4@@std@@QAE?AU?$pair@V?$_Tree_iterator@V?$_Tree_val@U?$_Tree_simple_types@U?$pair@$$CBHPAVCWindow@UI@@@std@@@std@@@std@@@std@@_N@1@$$QAU?$pair@HPAVCWindow@UI@@@1@@Z DD 019930522H
	DD	01H
	DD	FLAT:__unwindtable$??$insert@U?$pair@HPAVCWindow@UI@@@std@@$0A@@?$map@HPAVCWindow@UI@@U?$less@H@std@@V?$allocator@U?$pair@$$CBHPAVCWindow@UI@@@std@@@4@@std@@QAE?AU?$pair@V?$_Tree_iterator@V?$_Tree_val@U?$_Tree_simple_types@U?$pair@$$CBHPAVCWindow@UI@@@std@@@std@@@std@@@std@@_N@1@$$QAU?$pair@HPAVCWindow@UI@@@1@@Z
	DD	2 DUP(00H)
	DD	2 DUP(00H)
	DD	00H
	DD	01H
xdata$x	ENDS
;	COMDAT xdata$x
xdata$x	SEGMENT
__unwindtable$??$insert@$0A@$0A@@?$_Tree@V?$_Tmap_traits@V?$basic_string@DU?$char_traits@D@std@@V?$allocator@D@2@@std@@PAVCWindow@UI@@U?$less@V?$basic_string@DU?$char_traits@D@std@@V?$allocator@D@2@@std@@@2@V?$allocator@U?$pair@$$CBV?$basic_string@DU?$char_traits@D@std@@V?$allocator@D@2@@std@@PAVCWindow@UI@@@std@@@2@$0A@@std@@@std@@QAE?AU?$pair@V?$_Tree_iterator@V?$_Tree_val@U?$_Tree_simple_types@U?$pair@$$CBV?$basic_string@DU?$char_traits@D@std@@V?$allocator@D@2@@std@@PAVCWindow@UI@@@std@@@std@@@std@@@std@@_N@1@$$QAU?$pair@$$CBV?$basic_string@DU?$char_traits@D@std@@V?$allocator@D@2@@std@@PAVCWindow@UI@@@1@@Z DD 0ffffffffH
	DD	FLAT:__unwindfunclet$??$insert@$0A@$0A@@?$_Tree@V?$_Tmap_traits@V?$basic_string@DU?$char_traits@D@std@@V?$allocator@D@2@@std@@PAVCWindow@UI@@U?$less@V?$basic_string@DU?$char_traits@D@std@@V?$allocator@D@2@@std@@@2@V?$allocator@U?$pair@$$CBV?$basic_string@DU?$char_traits@D@std@@V?$allocator@D@2@@std@@PAVCWindow@UI@@@std@@@2@$0A@@std@@@std@@QAE?AU?$pair@V?$_Tree_iterator@V?$_Tree_val@U?$_Tree_simple_types@U?$pair@$$CBV?$basic_string@DU?$char_traits@D@std@@V?$allocator@D@2@@std@@PAVCWindow@UI@@@std@@@std@@@std@@@std@@_N@1@$$QAU?$pair@$$CBV?$basic_string@DU?$char_traits@D@std@@V?$allocator@D@2@@std@@PAVCWindow@UI@@@1@@Z$2
	DD	0ffffffffH
	DD	FLAT:__unwindfunclet$??$insert@$0A@$0A@@?$_Tree@V?$_Tmap_traits@V?$basic_string@DU?$char_traits@D@std@@V?$allocator@D@2@@std@@PAVCWindow@UI@@U?$less@V?$basic_string@DU?$char_traits@D@std@@V?$allocator@D@2@@std@@@2@V?$allocator@U?$pair@$$CBV?$basic_string@DU?$char_traits@D@std@@V?$allocator@D@2@@std@@PAVCWindow@UI@@@std@@@2@$0A@@std@@@std@@QAE?AU?$pair@V?$_Tree_iterator@V?$_Tree_val@U?$_Tree_simple_types@U?$pair@$$CBV?$basic_string@DU?$char_traits@D@std@@V?$allocator@D@2@@std@@PAVCWindow@UI@@@std@@@std@@@std@@@std@@_N@1@$$QAU?$pair@$$CBV?$basic_string@DU?$char_traits@D@std@@V?$allocator@D@2@@std@@PAVCWindow@UI@@@1@@Z$1
__ehfuncinfo$??$insert@$0A@$0A@@?$_Tree@V?$_Tmap_traits@V?$basic_string@DU?$char_traits@D@std@@V?$allocator@D@2@@std@@PAVCWindow@UI@@U?$less@V?$basic_string@DU?$char_traits@D@std@@V?$allocator@D@2@@std@@@2@V?$allocator@U?$pair@$$CBV?$basic_string@DU?$char_traits@D@std@@V?$allocator@D@2@@std@@PAVCWindow@UI@@@std@@@2@$0A@@std@@@std@@QAE?AU?$pair@V?$_Tree_iterator@V?$_Tree_val@U?$_Tree_simple_types@U?$pair@$$CBV?$basic_string@DU?$char_traits@D@std@@V?$allocator@D@2@@std@@PAVCWindow@UI@@@std@@@std@@@std@@@std@@_N@1@$$QAU?$pair@$$CBV?$basic_string@DU?$char_traits@D@std@@V?$allocator@D@2@@std@@PAVCWindow@UI@@@1@@Z DD 019930522H
	DD	02H
	DD	FLAT:__unwindtable$??$insert@$0A@$0A@@?$_Tree@V?$_Tmap_traits@V?$basic_string@DU?$char_traits@D@std@@V?$allocator@D@2@@std@@PAVCWindow@UI@@U?$less@V?$basic_string@DU?$char_traits@D@std@@V?$allocator@D@2@@std@@@2@V?$allocator@U?$pair@$$CBV?$basic_string@DU?$char_traits@D@std@@V?$allocator@D@2@@std@@PAVCWindow@UI@@@std@@@2@$0A@@std@@@std@@QAE?AU?$pair@V?$_Tree_iterator@V?$_Tree_val@U?$_Tree_simple_types@U?$pair@$$CBV?$basic_string@DU?$char_traits@D@std@@V?$allocator@D@2@@std@@PAVCWindow@UI@@@std@@@std@@@std@@@std@@_N@1@$$QAU?$pair@$$CBV?$basic_string@DU?$char_traits@D@std@@V?$allocator@D@2@@std@@PAVCWindow@UI@@@1@@Z
	DD	2 DUP(00H)
	DD	2 DUP(00H)
	DD	00H
	DD	01H
xdata$x	ENDS
;	COMDAT xdata$x
xdata$x	SEGMENT
__unwindtable$??A?$map@V?$basic_string@DU?$char_traits@D@std@@V?$allocator@D@2@@std@@PAVCWindow@UI@@U?$less@V?$basic_string@DU?$char_traits@D@std@@V?$allocator@D@2@@std@@@2@V?$allocator@U?$pair@$$CBV?$basic_string@DU?$char_traits@D@std@@V?$allocator@D@2@@std@@PAVCWindow@UI@@@std@@@2@@std@@QAEAAPAVCWindow@UI@@$$QAV?$basic_string@DU?$char_traits@D@std@@V?$allocator@D@2@@1@@Z DD 0ffffffffH
	DD	FLAT:__unwindfunclet$??A?$map@V?$basic_string@DU?$char_traits@D@std@@V?$allocator@D@2@@std@@PAVCWindow@UI@@U?$less@V?$basic_string@DU?$char_traits@D@std@@V?$allocator@D@2@@std@@@2@V?$allocator@U?$pair@$$CBV?$basic_string@DU?$char_traits@D@std@@V?$allocator@D@2@@std@@PAVCWindow@UI@@@std@@@2@@std@@QAEAAPAVCWindow@UI@@$$QAV?$basic_string@DU?$char_traits@D@std@@V?$allocator@D@2@@1@@Z$2
__ehfuncinfo$??A?$map@V?$basic_string@DU?$char_traits@D@std@@V?$allocator@D@2@@std@@PAVCWindow@UI@@U?$less@V?$basic_string@DU?$char_traits@D@std@@V?$allocator@D@2@@std@@@2@V?$allocator@U?$pair@$$CBV?$basic_string@DU?$char_traits@D@std@@V?$allocator@D@2@@std@@PAVCWindow@UI@@@std@@@2@@std@@QAEAAPAVCWindow@UI@@$$QAV?$basic_string@DU?$char_traits@D@std@@V?$allocator@D@2@@1@@Z DD 019930522H
	DD	01H
	DD	FLAT:__unwindtable$??A?$map@V?$basic_string@DU?$char_traits@D@std@@V?$allocator@D@2@@std@@PAVCWindow@UI@@U?$less@V?$basic_string@DU?$char_traits@D@std@@V?$allocator@D@2@@std@@@2@V?$allocator@U?$pair@$$CBV?$basic_string@DU?$char_traits@D@std@@V?$allocator@D@2@@std@@PAVCWindow@UI@@@std@@@2@@std@@QAEAAPAVCWindow@UI@@$$QAV?$basic_string@DU?$char_traits@D@std@@V?$allocator@D@2@@1@@Z
	DD	2 DUP(00H)
	DD	2 DUP(00H)
	DD	00H
	DD	01H
xdata$x	ENDS
;	COMDAT xdata$x
xdata$x	SEGMENT
__unwindtable$?push_back@?$list@PAVCWindow@UI@@V?$allocator@PAVCWindow@UI@@@std@@@std@@QAEXABQAVCWindow@UI@@@Z DD 0ffffffffH
	DD	FLAT:__unwindfunclet$?push_back@?$list@PAVCWindow@UI@@V?$allocator@PAVCWindow@UI@@@std@@@std@@QAEXABQAVCWindow@UI@@@Z$1
__ehfuncinfo$?push_back@?$list@PAVCWindow@UI@@V?$allocator@PAVCWindow@UI@@@std@@@std@@QAEXABQAVCWindow@UI@@@Z DD 019930522H
	DD	01H
	DD	FLAT:__unwindtable$?push_back@?$list@PAVCWindow@UI@@V?$allocator@PAVCWindow@UI@@@std@@@std@@QAEXABQAVCWindow@UI@@@Z
	DD	2 DUP(00H)
	DD	2 DUP(00H)
	DD	00H
	DD	01H
xdata$x	ENDS
;	COMDAT xdata$x
xdata$x	SEGMENT
__ehfuncinfo$?__NewWindow@CWindowManager@UI@@AAEPAVCWindow@2@PAU_object@@K@Z DD 019930522H
	DD	011H
	DD	FLAT:__unwindtable$?__NewWindow@CWindowManager@UI@@AAEPAVCWindow@2@PAU_object@@K@Z
	DD	2 DUP(00H)
	DD	2 DUP(00H)
	DD	00H
	DD	01H
__unwindtable$?__NewWindow@CWindowManager@UI@@AAEPAVCWindow@2@PAU_object@@K@Z DD 0ffffffffH
	DD	FLAT:__unwindfunclet$?__NewWindow@CWindowManager@UI@@AAEPAVCWindow@2@PAU_object@@K@Z$0
	DD	0ffffffffH
	DD	FLAT:__unwindfunclet$?__NewWindow@CWindowManager@UI@@AAEPAVCWindow@2@PAU_object@@K@Z$1
	DD	0ffffffffH
	DD	FLAT:__unwindfunclet$?__NewWindow@CWindowManager@UI@@AAEPAVCWindow@2@PAU_object@@K@Z$2
	DD	0ffffffffH
	DD	FLAT:__unwindfunclet$?__NewWindow@CWindowManager@UI@@AAEPAVCWindow@2@PAU_object@@K@Z$3
	DD	0ffffffffH
	DD	FLAT:__unwindfunclet$?__NewWindow@CWindowManager@UI@@AAEPAVCWindow@2@PAU_object@@K@Z$4
	DD	0ffffffffH
	DD	FLAT:__unwindfunclet$?__NewWindow@CWindowManager@UI@@AAEPAVCWindow@2@PAU_object@@K@Z$5
	DD	0ffffffffH
	DD	FLAT:__unwindfunclet$?__NewWindow@CWindowManager@UI@@AAEPAVCWindow@2@PAU_object@@K@Z$6
	DD	0ffffffffH
	DD	FLAT:__unwindfunclet$?__NewWindow@CWindowManager@UI@@AAEPAVCWindow@2@PAU_object@@K@Z$7
	DD	0ffffffffH
	DD	FLAT:__unwindfunclet$?__NewWindow@CWindowManager@UI@@AAEPAVCWindow@2@PAU_object@@K@Z$8
	DD	0ffffffffH
	DD	FLAT:__unwindfunclet$?__NewWindow@CWindowManager@UI@@AAEPAVCWindow@2@PAU_object@@K@Z$9
	DD	0ffffffffH
	DD	FLAT:__unwindfunclet$?__NewWindow@CWindowManager@UI@@AAEPAVCWindow@2@PAU_object@@K@Z$10
	DD	0ffffffffH
	DD	FLAT:__unwindfunclet$?__NewWindow@CWindowManager@UI@@AAEPAVCWindow@2@PAU_object@@K@Z$11
	DD	0ffffffffH
	DD	FLAT:__unwindfunclet$?__NewWindow@CWindowManager@UI@@AAEPAVCWindow@2@PAU_object@@K@Z$12
	DD	0ffffffffH
	DD	FLAT:__unwindfunclet$?__NewWindow@CWindowManager@UI@@AAEPAVCWindow@2@PAU_object@@K@Z$13
	DD	0ffffffffH
	DD	FLAT:__unwindfunclet$?__NewWindow@CWindowManager@UI@@AAEPAVCWindow@2@PAU_object@@K@Z$14
	DD	0ffffffffH
	DD	FLAT:__unwindfunclet$?__NewWindow@CWindowManager@UI@@AAEPAVCWindow@2@PAU_object@@K@Z$15
	DD	0ffffffffH
	DD	FLAT:__unwindfunclet$?__NewWindow@CWindowManager@UI@@AAEPAVCWindow@2@PAU_object@@K@Z$16
xdata$x	ENDS
;	COMDAT xdata$x
xdata$x	SEGMENT
__unwindtable$?RunKeyDown@CWindowManager@UI@@QAEXH@Z DD 0ffffffffH
	DD	FLAT:__unwindfunclet$?RunKeyDown@CWindowManager@UI@@QAEXH@Z$2
__ehfuncinfo$?RunKeyDown@CWindowManager@UI@@QAEXH@Z DD 019930522H
	DD	01H
	DD	FLAT:__unwindtable$?RunKeyDown@CWindowManager@UI@@QAEXH@Z
	DD	2 DUP(00H)
	DD	2 DUP(00H)
	DD	00H
	DD	01H
xdata$x	ENDS
;	COMDAT xdata$x
xdata$x	SEGMENT
__unwindtable$?RunIMETabEvent@CWindowManager@UI@@QAEXXZ DD 0ffffffffH
	DD	FLAT:__unwindfunclet$?RunIMETabEvent@CWindowManager@UI@@QAEXXZ$0
__ehfuncinfo$?RunIMETabEvent@CWindowManager@UI@@QAEXXZ DD 019930522H
	DD	01H
	DD	FLAT:__unwindtable$?RunIMETabEvent@CWindowManager@UI@@QAEXXZ
	DD	2 DUP(00H)
	DD	2 DUP(00H)
	DD	00H
	DD	01H
xdata$x	ENDS
;	COMDAT xdata$x
xdata$x	SEGMENT
__unwindtable$?RunMouseMove@CWindowManager@UI@@QAEXJJ@Z DD 0ffffffffH
	DD	FLAT:__unwindfunclet$?RunMouseMove@CWindowManager@UI@@QAEXJJ@Z$0
__ehfuncinfo$?RunMouseMove@CWindowManager@UI@@QAEXJJ@Z DD 019930522H
	DD	01H
	DD	FLAT:__unwindtable$?RunMouseMove@CWindowManager@UI@@QAEXJJ@Z
	DD	2 DUP(00H)
	DD	2 DUP(00H)
	DD	00H
	DD	01H
xdata$x	ENDS
;	COMDAT xdata$x
xdata$x	SEGMENT
__unwindtable$?RegisterNumberLine@CWindowManager@UI@@QAEPAVCWindow@2@PAU_object@@PBD@Z DD 0ffffffffH
	DD	FLAT:__unwindfunclet$?RegisterNumberLine@CWindowManager@UI@@QAEPAVCWindow@2@PAU_object@@PBD@Z$0
	DD	0ffffffffH
	DD	FLAT:__unwindfunclet$?RegisterNumberLine@CWindowManager@UI@@QAEPAVCWindow@2@PAU_object@@PBD@Z$1
__ehfuncinfo$?RegisterNumberLine@CWindowManager@UI@@QAEPAVCWindow@2@PAU_object@@PBD@Z DD 019930522H
	DD	02H
	DD	FLAT:__unwindtable$?RegisterNumberLine@CWindowManager@UI@@QAEPAVCWindow@2@PAU_object@@PBD@Z
	DD	2 DUP(00H)
	DD	2 DUP(00H)
	DD	00H
	DD	01H
xdata$x	ENDS
;	COMDAT xdata$x
xdata$x	SEGMENT
__unwindtable$?RegisterBar3D@CWindowManager@UI@@QAEPAVCWindow@2@PAU_object@@PBD@Z DD 0ffffffffH
	DD	FLAT:__unwindfunclet$?RegisterBar3D@CWindowManager@UI@@QAEPAVCWindow@2@PAU_object@@PBD@Z$0
	DD	0ffffffffH
	DD	FLAT:__unwindfunclet$?RegisterBar3D@CWindowManager@UI@@QAEPAVCWindow@2@PAU_object@@PBD@Z$1
__ehfuncinfo$?RegisterBar3D@CWindowManager@UI@@QAEPAVCWindow@2@PAU_object@@PBD@Z DD 019930522H
	DD	02H
	DD	FLAT:__unwindtable$?RegisterBar3D@CWindowManager@UI@@QAEPAVCWindow@2@PAU_object@@PBD@Z
	DD	2 DUP(00H)
	DD	2 DUP(00H)
	DD	00H
	DD	01H
xdata$x	ENDS
;	COMDAT xdata$x
xdata$x	SEGMENT
__unwindtable$?RegisterLine@CWindowManager@UI@@QAEPAVCWindow@2@PAU_object@@PBD@Z DD 0ffffffffH
	DD	FLAT:__unwindfunclet$?RegisterLine@CWindowManager@UI@@QAEPAVCWindow@2@PAU_object@@PBD@Z$0
	DD	0ffffffffH
	DD	FLAT:__unwindfunclet$?RegisterLine@CWindowManager@UI@@QAEPAVCWindow@2@PAU_object@@PBD@Z$1
__ehfuncinfo$?RegisterLine@CWindowManager@UI@@QAEPAVCWindow@2@PAU_object@@PBD@Z DD 019930522H
	DD	02H
	DD	FLAT:__unwindtable$?RegisterLine@CWindowManager@UI@@QAEPAVCWindow@2@PAU_object@@PBD@Z
	DD	2 DUP(00H)
	DD	2 DUP(00H)
	DD	00H
	DD	01H
xdata$x	ENDS
;	COMDAT xdata$x
xdata$x	SEGMENT
__unwindtable$?RegisterBar@CWindowManager@UI@@QAEPAVCWindow@2@PAU_object@@PBD@Z DD 0ffffffffH
	DD	FLAT:__unwindfunclet$?RegisterBar@CWindowManager@UI@@QAEPAVCWindow@2@PAU_object@@PBD@Z$0
	DD	0ffffffffH
	DD	FLAT:__unwindfunclet$?RegisterBar@CWindowManager@UI@@QAEPAVCWindow@2@PAU_object@@PBD@Z$1
__ehfuncinfo$?RegisterBar@CWindowManager@UI@@QAEPAVCWindow@2@PAU_object@@PBD@Z DD 019930522H
	DD	02H
	DD	FLAT:__unwindtable$?RegisterBar@CWindowManager@UI@@QAEPAVCWindow@2@PAU_object@@PBD@Z
	DD	2 DUP(00H)
	DD	2 DUP(00H)
	DD	00H
	DD	01H
xdata$x	ENDS
;	COMDAT xdata$x
xdata$x	SEGMENT
__unwindtable$?RegisterBox@CWindowManager@UI@@QAEPAVCWindow@2@PAU_object@@PBD@Z DD 0ffffffffH
	DD	FLAT:__unwindfunclet$?RegisterBox@CWindowManager@UI@@QAEPAVCWindow@2@PAU_object@@PBD@Z$0
	DD	0ffffffffH
	DD	FLAT:__unwindfunclet$?RegisterBox@CWindowManager@UI@@QAEPAVCWindow@2@PAU_object@@PBD@Z$1
__ehfuncinfo$?RegisterBox@CWindowManager@UI@@QAEPAVCWindow@2@PAU_object@@PBD@Z DD 019930522H
	DD	02H
	DD	FLAT:__unwindtable$?RegisterBox@CWindowManager@UI@@QAEPAVCWindow@2@PAU_object@@PBD@Z
	DD	2 DUP(00H)
	DD	2 DUP(00H)
	DD	00H
	DD	01H
xdata$x	ENDS
;	COMDAT xdata$x
xdata$x	SEGMENT
__unwindtable$?RegisterDragButton@CWindowManager@UI@@QAEPAVCWindow@2@PAU_object@@PBD@Z DD 0ffffffffH
	DD	FLAT:__unwindfunclet$?RegisterDragButton@CWindowManager@UI@@QAEPAVCWindow@2@PAU_object@@PBD@Z$0
	DD	0ffffffffH
	DD	FLAT:__unwindfunclet$?RegisterDragButton@CWindowManager@UI@@QAEPAVCWindow@2@PAU_object@@PBD@Z$1
__ehfuncinfo$?RegisterDragButton@CWindowManager@UI@@QAEPAVCWindow@2@PAU_object@@PBD@Z DD 019930522H
	DD	02H
	DD	FLAT:__unwindtable$?RegisterDragButton@CWindowManager@UI@@QAEPAVCWindow@2@PAU_object@@PBD@Z
	DD	2 DUP(00H)
	DD	2 DUP(00H)
	DD	00H
	DD	01H
xdata$x	ENDS
;	COMDAT xdata$x
xdata$x	SEGMENT
__unwindtable$?RegisterToggleButton@CWindowManager@UI@@QAEPAVCWindow@2@PAU_object@@PBD@Z DD 0ffffffffH
	DD	FLAT:__unwindfunclet$?RegisterToggleButton@CWindowManager@UI@@QAEPAVCWindow@2@PAU_object@@PBD@Z$0
	DD	0ffffffffH
	DD	FLAT:__unwindfunclet$?RegisterToggleButton@CWindowManager@UI@@QAEPAVCWindow@2@PAU_object@@PBD@Z$1
__ehfuncinfo$?RegisterToggleButton@CWindowManager@UI@@QAEPAVCWindow@2@PAU_object@@PBD@Z DD 019930522H
	DD	02H
	DD	FLAT:__unwindtable$?RegisterToggleButton@CWindowManager@UI@@QAEPAVCWindow@2@PAU_object@@PBD@Z
	DD	2 DUP(00H)
	DD	2 DUP(00H)
	DD	00H
	DD	01H
xdata$x	ENDS
;	COMDAT xdata$x
xdata$x	SEGMENT
__unwindtable$?RegisterRadioButton@CWindowManager@UI@@QAEPAVCWindow@2@PAU_object@@PBD@Z DD 0ffffffffH
	DD	FLAT:__unwindfunclet$?RegisterRadioButton@CWindowManager@UI@@QAEPAVCWindow@2@PAU_object@@PBD@Z$0
	DD	0ffffffffH
	DD	FLAT:__unwindfunclet$?RegisterRadioButton@CWindowManager@UI@@QAEPAVCWindow@2@PAU_object@@PBD@Z$1
__ehfuncinfo$?RegisterRadioButton@CWindowManager@UI@@QAEPAVCWindow@2@PAU_object@@PBD@Z DD 019930522H
	DD	02H
	DD	FLAT:__unwindtable$?RegisterRadioButton@CWindowManager@UI@@QAEPAVCWindow@2@PAU_object@@PBD@Z
	DD	2 DUP(00H)
	DD	2 DUP(00H)
	DD	00H
	DD	01H
xdata$x	ENDS
;	COMDAT xdata$x
xdata$x	SEGMENT
__unwindtable$?RegisterButton@CWindowManager@UI@@QAEPAVCWindow@2@PAU_object@@PBD@Z DD 0ffffffffH
	DD	FLAT:__unwindfunclet$?RegisterButton@CWindowManager@UI@@QAEPAVCWindow@2@PAU_object@@PBD@Z$0
	DD	0ffffffffH
	DD	FLAT:__unwindfunclet$?RegisterButton@CWindowManager@UI@@QAEPAVCWindow@2@PAU_object@@PBD@Z$1
__ehfuncinfo$?RegisterButton@CWindowManager@UI@@QAEPAVCWindow@2@PAU_object@@PBD@Z DD 019930522H
	DD	02H
	DD	FLAT:__unwindtable$?RegisterButton@CWindowManager@UI@@QAEPAVCWindow@2@PAU_object@@PBD@Z
	DD	2 DUP(00H)
	DD	2 DUP(00H)
	DD	00H
	DD	01H
xdata$x	ENDS
;	COMDAT xdata$x
xdata$x	SEGMENT
__unwindtable$?RegisterAniImageBox@CWindowManager@UI@@QAEPAVCWindow@2@PAU_object@@PBD@Z DD 0ffffffffH
	DD	FLAT:__unwindfunclet$?RegisterAniImageBox@CWindowManager@UI@@QAEPAVCWindow@2@PAU_object@@PBD@Z$0
	DD	0ffffffffH
	DD	FLAT:__unwindfunclet$?RegisterAniImageBox@CWindowManager@UI@@QAEPAVCWindow@2@PAU_object@@PBD@Z$1
__ehfuncinfo$?RegisterAniImageBox@CWindowManager@UI@@QAEPAVCWindow@2@PAU_object@@PBD@Z DD 019930522H
	DD	02H
	DD	FLAT:__unwindtable$?RegisterAniImageBox@CWindowManager@UI@@QAEPAVCWindow@2@PAU_object@@PBD@Z
	DD	2 DUP(00H)
	DD	2 DUP(00H)
	DD	00H
	DD	01H
xdata$x	ENDS
;	COMDAT xdata$x
xdata$x	SEGMENT
__unwindtable$?RegisterExpandedImageBox@CWindowManager@UI@@QAEPAVCWindow@2@PAU_object@@PBD@Z DD 0ffffffffH
	DD	FLAT:__unwindfunclet$?RegisterExpandedImageBox@CWindowManager@UI@@QAEPAVCWindow@2@PAU_object@@PBD@Z$0
	DD	0ffffffffH
	DD	FLAT:__unwindfunclet$?RegisterExpandedImageBox@CWindowManager@UI@@QAEPAVCWindow@2@PAU_object@@PBD@Z$1
__ehfuncinfo$?RegisterExpandedImageBox@CWindowManager@UI@@QAEPAVCWindow@2@PAU_object@@PBD@Z DD 019930522H
	DD	02H
	DD	FLAT:__unwindtable$?RegisterExpandedImageBox@CWindowManager@UI@@QAEPAVCWindow@2@PAU_object@@PBD@Z
	DD	2 DUP(00H)
	DD	2 DUP(00H)
	DD	00H
	DD	01H
xdata$x	ENDS
;	COMDAT xdata$x
xdata$x	SEGMENT
__unwindtable$?RegisterImageBox@CWindowManager@UI@@QAEPAVCWindow@2@PAU_object@@PBD@Z DD 0ffffffffH
	DD	FLAT:__unwindfunclet$?RegisterImageBox@CWindowManager@UI@@QAEPAVCWindow@2@PAU_object@@PBD@Z$0
	DD	0ffffffffH
	DD	FLAT:__unwindfunclet$?RegisterImageBox@CWindowManager@UI@@QAEPAVCWindow@2@PAU_object@@PBD@Z$1
__ehfuncinfo$?RegisterImageBox@CWindowManager@UI@@QAEPAVCWindow@2@PAU_object@@PBD@Z DD 019930522H
	DD	02H
	DD	FLAT:__unwindtable$?RegisterImageBox@CWindowManager@UI@@QAEPAVCWindow@2@PAU_object@@PBD@Z
	DD	2 DUP(00H)
	DD	2 DUP(00H)
	DD	00H
	DD	01H
xdata$x	ENDS
;	COMDAT xdata$x
xdata$x	SEGMENT
__unwindtable$?RegisterMarkBox@CWindowManager@UI@@QAEPAVCWindow@2@PAU_object@@PBD@Z DD 0ffffffffH
	DD	FLAT:__unwindfunclet$?RegisterMarkBox@CWindowManager@UI@@QAEPAVCWindow@2@PAU_object@@PBD@Z$0
	DD	0ffffffffH
	DD	FLAT:__unwindfunclet$?RegisterMarkBox@CWindowManager@UI@@QAEPAVCWindow@2@PAU_object@@PBD@Z$1
__ehfuncinfo$?RegisterMarkBox@CWindowManager@UI@@QAEPAVCWindow@2@PAU_object@@PBD@Z DD 019930522H
	DD	02H
	DD	FLAT:__unwindtable$?RegisterMarkBox@CWindowManager@UI@@QAEPAVCWindow@2@PAU_object@@PBD@Z
	DD	2 DUP(00H)
	DD	2 DUP(00H)
	DD	00H
	DD	01H
xdata$x	ENDS
;	COMDAT xdata$x
xdata$x	SEGMENT
__unwindtable$?RegisterTextLine@CWindowManager@UI@@QAEPAVCWindow@2@PAU_object@@PBD@Z DD 0ffffffffH
	DD	FLAT:__unwindfunclet$?RegisterTextLine@CWindowManager@UI@@QAEPAVCWindow@2@PAU_object@@PBD@Z$0
	DD	0ffffffffH
	DD	FLAT:__unwindfunclet$?RegisterTextLine@CWindowManager@UI@@QAEPAVCWindow@2@PAU_object@@PBD@Z$1
__ehfuncinfo$?RegisterTextLine@CWindowManager@UI@@QAEPAVCWindow@2@PAU_object@@PBD@Z DD 019930522H
	DD	02H
	DD	FLAT:__unwindtable$?RegisterTextLine@CWindowManager@UI@@QAEPAVCWindow@2@PAU_object@@PBD@Z
	DD	2 DUP(00H)
	DD	2 DUP(00H)
	DD	00H
	DD	01H
xdata$x	ENDS
;	COMDAT xdata$x
xdata$x	SEGMENT
__unwindtable$?RegisterGridSlotWindow@CWindowManager@UI@@QAEPAVCWindow@2@PAU_object@@PBD@Z DD 0ffffffffH
	DD	FLAT:__unwindfunclet$?RegisterGridSlotWindow@CWindowManager@UI@@QAEPAVCWindow@2@PAU_object@@PBD@Z$0
	DD	0ffffffffH
	DD	FLAT:__unwindfunclet$?RegisterGridSlotWindow@CWindowManager@UI@@QAEPAVCWindow@2@PAU_object@@PBD@Z$1
__ehfuncinfo$?RegisterGridSlotWindow@CWindowManager@UI@@QAEPAVCWindow@2@PAU_object@@PBD@Z DD 019930522H
	DD	02H
	DD	FLAT:__unwindtable$?RegisterGridSlotWindow@CWindowManager@UI@@QAEPAVCWindow@2@PAU_object@@PBD@Z
	DD	2 DUP(00H)
	DD	2 DUP(00H)
	DD	00H
	DD	01H
xdata$x	ENDS
;	COMDAT xdata$x
xdata$x	SEGMENT
__unwindtable$?RegisterSlotWindow@CWindowManager@UI@@QAEPAVCWindow@2@PAU_object@@PBD@Z DD 0ffffffffH
	DD	FLAT:__unwindfunclet$?RegisterSlotWindow@CWindowManager@UI@@QAEPAVCWindow@2@PAU_object@@PBD@Z$0
	DD	0ffffffffH
	DD	FLAT:__unwindfunclet$?RegisterSlotWindow@CWindowManager@UI@@QAEPAVCWindow@2@PAU_object@@PBD@Z$1
__ehfuncinfo$?RegisterSlotWindow@CWindowManager@UI@@QAEPAVCWindow@2@PAU_object@@PBD@Z DD 019930522H
	DD	02H
	DD	FLAT:__unwindtable$?RegisterSlotWindow@CWindowManager@UI@@QAEPAVCWindow@2@PAU_object@@PBD@Z
	DD	2 DUP(00H)
	DD	2 DUP(00H)
	DD	00H
	DD	01H
xdata$x	ENDS
;	COMDAT xdata$x
xdata$x	SEGMENT
__unwindtable$?RegisterTypeWindow@CWindowManager@UI@@QAEPAVCWindow@2@PAU_object@@KPBD@Z DD 0ffffffffH
	DD	FLAT:__unwindfunclet$?RegisterTypeWindow@CWindowManager@UI@@QAEPAVCWindow@2@PAU_object@@KPBD@Z$0
__ehfuncinfo$?RegisterTypeWindow@CWindowManager@UI@@QAEPAVCWindow@2@PAU_object@@KPBD@Z DD 019930522H
	DD	01H
	DD	FLAT:__unwindtable$?RegisterTypeWindow@CWindowManager@UI@@QAEPAVCWindow@2@PAU_object@@KPBD@Z
	DD	2 DUP(00H)
	DD	2 DUP(00H)
	DD	00H
	DD	01H
xdata$x	ENDS
;	COMDAT xdata$x
xdata$x	SEGMENT
__unwindtable$?RegisterWindow@CWindowManager@UI@@QAEPAVCWindow@2@PAU_object@@PBD@Z DD 0ffffffffH
	DD	FLAT:__unwindfunclet$?RegisterWindow@CWindowManager@UI@@QAEPAVCWindow@2@PAU_object@@PBD@Z$0
	DD	0ffffffffH
	DD	FLAT:__unwindfunclet$?RegisterWindow@CWindowManager@UI@@QAEPAVCWindow@2@PAU_object@@PBD@Z$1
__ehfuncinfo$?RegisterWindow@CWindowManager@UI@@QAEPAVCWindow@2@PAU_object@@PBD@Z DD 019930522H
	DD	02H
	DD	FLAT:__unwindtable$?RegisterWindow@CWindowManager@UI@@QAEPAVCWindow@2@PAU_object@@PBD@Z
	DD	2 DUP(00H)
	DD	2 DUP(00H)
	DD	00H
	DD	01H
xdata$x	ENDS
;	COMDAT xdata$x
xdata$x	SEGMENT
__ehfuncinfo$??1CWindowManager@UI@@UAE@XZ DD 019930522H
	DD	00H
	DD	00H
	DD	2 DUP(00H)
	DD	2 DUP(00H)
	DD	00H
	DD	05H
xdata$x	ENDS
;	COMDAT xdata$x
xdata$x	SEGMENT
__ehfuncinfo$??0CWindowManager@UI@@QAE@XZ DD 019930522H
	DD	0eH
	DD	FLAT:__unwindtable$??0CWindowManager@UI@@QAE@XZ
	DD	2 DUP(00H)
	DD	2 DUP(00H)
	DD	00H
	DD	01H
__unwindtable$??0CWindowManager@UI@@QAE@XZ DD 0ffffffffH
	DD	FLAT:__unwindfunclet$??0CWindowManager@UI@@QAE@XZ$0
	DD	00H
	DD	FLAT:__unwindfunclet$??0CWindowManager@UI@@QAE@XZ$1
	DD	01H
	DD	FLAT:__unwindfunclet$??0CWindowManager@UI@@QAE@XZ$2
	DD	02H
	DD	FLAT:__unwindfunclet$??0CWindowManager@UI@@QAE@XZ$3
	DD	03H
	DD	FLAT:__unwindfunclet$??0CWindowManager@UI@@QAE@XZ$4
	DD	04H
	DD	FLAT:__unwindfunclet$??0CWindowManager@UI@@QAE@XZ$5
	DD	05H
	DD	FLAT:__unwindfunclet$??0CWindowManager@UI@@QAE@XZ$6
	DD	06H
	DD	FLAT:__unwindfunclet$??0CWindowManager@UI@@QAE@XZ$7
	DD	07H
	DD	FLAT:__unwindfunclet$??0CWindowManager@UI@@QAE@XZ$8
	DD	07H
	DD	FLAT:__unwindfunclet$??0CWindowManager@UI@@QAE@XZ$9
	DD	07H
	DD	FLAT:__unwindfunclet$??0CWindowManager@UI@@QAE@XZ$10
	DD	0aH
	DD	FLAT:__unwindfunclet$??0CWindowManager@UI@@QAE@XZ$17
	DD	0aH
	DD	FLAT:__unwindfunclet$??0CWindowManager@UI@@QAE@XZ$16
	DD	07H
	DD	FLAT:__unwindfunclet$??0CWindowManager@UI@@QAE@XZ$26
xdata$x	ENDS
; Function compile flags: /Ogtp
; File C:\Program Files (x86)\Microsoft Visual Studio\2019\Community\VC\Tools\MSVC\14.27.29110\include\tuple
; File C:\Program Files (x86)\Microsoft Visual Studio\2019\Community\VC\Tools\MSVC\14.27.29110\include\xstring
; File C:\Program Files (x86)\Microsoft Visual Studio\2019\Community\VC\Tools\MSVC\14.27.29110\include\tuple
;	COMDAT ??$?0V?$tuple@$$QAV?$basic_string@DU?$char_traits@D@std@@V?$allocator@D@2@@std@@@std@@V?$tuple@$$V@1@$0A@$$Z$S@?$pair@$$CBV?$basic_string@DU?$char_traits@D@std@@V?$allocator@D@2@@std@@PAVCWindow@UI@@@std@@QAE@AAV?$tuple@$$QAV?$basic_string@DU?$char_traits@D@std@@V?$allocator@D@2@@std@@@1@AAV?$tuple@$$V@1@U?$integer_sequence@I$0A@@1@U?$integer_sequence@I$S@1@@Z
_TEXT	SEGMENT
_this$ = -4						; size = 4
__Val1$ = 8						; size = 4
__Val2$ = 12						; size = 4
___formal$ = 16						; size = 1
___formal$ = 20						; size = 1
??$?0V?$tuple@$$QAV?$basic_string@DU?$char_traits@D@std@@V?$allocator@D@2@@std@@@std@@V?$tuple@$$V@1@$0A@$$Z$S@?$pair@$$CBV?$basic_string@DU?$char_traits@D@std@@V?$allocator@D@2@@std@@PAVCWindow@UI@@@std@@QAE@AAV?$tuple@$$QAV?$basic_string@DU?$char_traits@D@std@@V?$allocator@D@2@@std@@@1@AAV?$tuple@$$V@1@U?$integer_sequence@I$0A@@1@U?$integer_sequence@I$S@1@@Z PROC ; std::pair<std::basic_string<char,std::char_traits<char>,std::allocator<char> > const ,UI::CWindow *>::pair<std::basic_string<char,std::char_traits<char>,std::allocator<char> > const ,UI::CWindow *><std::tuple<std::basic_string<char,std::char_traits<char>,std::allocator<char> > &&>,std::tuple<>,0>, COMDAT
; _this$ = ecx

; 975  :     : first(_STD get<_Indexes1>(_STD move(_Val1))...), second(_STD get<_Indexes2>(_STD move(_Val2))...) {}

  00000	55		 push	 ebp
  00001	8b ec		 mov	 ebp, esp
  00003	51		 push	 ecx
  00004	8b 45 08	 mov	 eax, DWORD PTR __Val1$[ebp]
  00007	89 4d fc	 mov	 DWORD PTR _this$[ebp], ecx
  0000a	8b 00		 mov	 eax, DWORD PTR [eax]
; File C:\Program Files (x86)\Microsoft Visual Studio\2019\Community\VC\Tools\MSVC\14.27.29110\include\xstring

; 2124 :     _String_val() : _Bx(), _Mysize(0), _Myres(0) {}

  0000c	c7 41 10 00 00
	00 00		 mov	 DWORD PTR [ecx+16], 0
  00013	c7 41 14 00 00
	00 00		 mov	 DWORD PTR [ecx+20], 0

; 2606 :         _CSTD memcpy(_My_data_mem, _Right_data_mem, _Memcpy_val_size);

  0001a	0f 10 00	 movups	 xmm0, XMMWORD PTR [eax]
  0001d	0f 11 01	 movups	 XMMWORD PTR [ecx], xmm0
  00020	f3 0f 7e 40 10	 movq	 xmm0, QWORD PTR [eax+16]
  00025	66 0f d6 41 10	 movq	 QWORD PTR [ecx+16], xmm0

; 4293 :         _Mypair._Myval2._Mysize = 0;

  0002a	c7 40 10 00 00
	00 00		 mov	 DWORD PTR [eax+16], 0

; 4294 :         _Mypair._Myval2._Myres  = _BUF_SIZE - 1;

  00031	c7 40 14 0f 00
	00 00		 mov	 DWORD PTR [eax+20], 15	; 0000000fH

; 4295 :         // the _Traits::assign is last so the codegen doesn't think the char write can alias this
; 4296 :         _Traits::assign(_Mypair._Myval2._Bx._Buf[0], _Elem());

  00038	c6 00 00	 mov	 BYTE PTR [eax], 0
; File C:\Program Files (x86)\Microsoft Visual Studio\2019\Community\VC\Tools\MSVC\14.27.29110\include\tuple

; 975  :     : first(_STD get<_Indexes1>(_STD move(_Val1))...), second(_STD get<_Indexes2>(_STD move(_Val2))...) {}

  0003b	8b c1		 mov	 eax, ecx
  0003d	c7 41 18 00 00
	00 00		 mov	 DWORD PTR [ecx+24], 0
  00044	8b e5		 mov	 esp, ebp
  00046	5d		 pop	 ebp
  00047	c2 10 00	 ret	 16			; 00000010H
??$?0V?$tuple@$$QAV?$basic_string@DU?$char_traits@D@std@@V?$allocator@D@2@@std@@@std@@V?$tuple@$$V@1@$0A@$$Z$S@?$pair@$$CBV?$basic_string@DU?$char_traits@D@std@@V?$allocator@D@2@@std@@PAVCWindow@UI@@@std@@QAE@AAV?$tuple@$$QAV?$basic_string@DU?$char_traits@D@std@@V?$allocator@D@2@@std@@@1@AAV?$tuple@$$V@1@U?$integer_sequence@I$0A@@1@U?$integer_sequence@I$S@1@@Z ENDP ; std::pair<std::basic_string<char,std::char_traits<char>,std::allocator<char> > const ,UI::CWindow *>::pair<std::basic_string<char,std::char_traits<char>,std::allocator<char> > const ,UI::CWindow *><std::tuple<std::basic_string<char,std::char_traits<char>,std::allocator<char> > &&>,std::tuple<>,0>
_TEXT	ENDS
; Function compile flags: /Ogtp
; File C:\Program Files (x86)\Microsoft Visual Studio\2019\Community\VC\Tools\MSVC\14.27.29110\include\tuple
;	COMDAT ??$?0$$QAV?$basic_string@DU?$char_traits@D@std@@V?$allocator@D@2@@std@@$$Z$$V@?$pair@$$CBV?$basic_string@DU?$char_traits@D@std@@V?$allocator@D@2@@std@@PAVCWindow@UI@@@std@@QAE@Upiecewise_construct_t@1@V?$tuple@$$QAV?$basic_string@DU?$char_traits@D@std@@V?$allocator@D@2@@std@@@1@V?$tuple@$$V@1@@Z
_TEXT	SEGMENT
$T1 = -8						; size = 1
_this$ = -8						; size = 4
$T2 = -4						; size = 1
___formal$ = 8						; size = 1
__Val1$ = 12						; size = 4
__Val2$ = 16						; size = 1
??$?0$$QAV?$basic_string@DU?$char_traits@D@std@@V?$allocator@D@2@@std@@$$Z$$V@?$pair@$$CBV?$basic_string@DU?$char_traits@D@std@@V?$allocator@D@2@@std@@PAVCWindow@UI@@@std@@QAE@Upiecewise_construct_t@1@V?$tuple@$$QAV?$basic_string@DU?$char_traits@D@std@@V?$allocator@D@2@@std@@@1@V?$tuple@$$V@1@@Z PROC ; std::pair<std::basic_string<char,std::char_traits<char>,std::allocator<char> > const ,UI::CWindow *>::pair<std::basic_string<char,std::char_traits<char>,std::allocator<char> > const ,UI::CWindow *><std::basic_string<char,std::char_traits<char>,std::allocator<char> > &&>, COMDAT
; _this$ = ecx

; 981  :     : pair(_Val1, _Val2, index_sequence_for<_Types1...>{}, index_sequence_for<_Types2...>{}) {}

  00000	55		 push	 ebp
  00001	8b ec		 mov	 ebp, esp
  00003	83 ec 08	 sub	 esp, 8
  00006	56		 push	 esi
  00007	8b f1		 mov	 esi, ecx
  00009	8d 45 10	 lea	 eax, DWORD PTR __Val2$[ebp]
  0000c	89 75 f8	 mov	 DWORD PTR _this$[ebp], esi
  0000f	c6 45 fc 00	 mov	 BYTE PTR $T2[ebp], 0
  00013	ff 75 fc	 push	 DWORD PTR $T2[ebp]
  00016	c6 45 f8 00	 mov	 BYTE PTR $T1[ebp], 0
  0001a	ff 75 f8	 push	 DWORD PTR $T1[ebp]
  0001d	50		 push	 eax
  0001e	8d 45 0c	 lea	 eax, DWORD PTR __Val1$[ebp]
  00021	50		 push	 eax
  00022	e8 00 00 00 00	 call	 ??$?0V?$tuple@$$QAV?$basic_string@DU?$char_traits@D@std@@V?$allocator@D@2@@std@@@std@@V?$tuple@$$V@1@$0A@$$Z$S@?$pair@$$CBV?$basic_string@DU?$char_traits@D@std@@V?$allocator@D@2@@std@@PAVCWindow@UI@@@std@@QAE@AAV?$tuple@$$QAV?$basic_string@DU?$char_traits@D@std@@V?$allocator@D@2@@std@@@1@AAV?$tuple@$$V@1@U?$integer_sequence@I$0A@@1@U?$integer_sequence@I$S@1@@Z ; std::pair<std::basic_string<char,std::char_traits<char>,std::allocator<char> > const ,UI::CWindow *>::pair<std::basic_string<char,std::char_traits<char>,std::allocator<char> > const ,UI::CWindow *><std::tuple<std::basic_string<char,std::char_traits<char>,std::allocator<char> > &&>,std::tuple<>,0>
  00027	8b c6		 mov	 eax, esi
  00029	5e		 pop	 esi
  0002a	8b e5		 mov	 esp, ebp
  0002c	5d		 pop	 ebp
  0002d	c2 0c 00	 ret	 12			; 0000000cH
??$?0$$QAV?$basic_string@DU?$char_traits@D@std@@V?$allocator@D@2@@std@@$$Z$$V@?$pair@$$CBV?$basic_string@DU?$char_traits@D@std@@V?$allocator@D@2@@std@@PAVCWindow@UI@@@std@@QAE@Upiecewise_construct_t@1@V?$tuple@$$QAV?$basic_string@DU?$char_traits@D@std@@V?$allocator@D@2@@std@@@1@V?$tuple@$$V@1@@Z ENDP ; std::pair<std::basic_string<char,std::char_traits<char>,std::allocator<char> > const ,UI::CWindow *>::pair<std::basic_string<char,std::char_traits<char>,std::allocator<char> > const ,UI::CWindow *><std::basic_string<char,std::char_traits<char>,std::allocator<char> > &&>
_TEXT	ENDS
; Function compile flags: /Ogtp
; File C:\Program Files (x86)\Microsoft Visual Studio\2019\Community\VC\Tools\MSVC\14.27.29110\include\xmemory
;	COMDAT ??$_Construct_in_place@PAU?$_Tree_node@U?$pair@$$CBHPAVCWindow@UI@@@std@@PAX@std@@AAPAU12@@std@@YAXAAPAU?$_Tree_node@U?$pair@$$CBHPAVCWindow@UI@@@std@@PAX@0@0@Z
_TEXT	SEGMENT
__Obj$ = 8						; size = 4
_<_Args_0>$ = 12					; size = 4
??$_Construct_in_place@PAU?$_Tree_node@U?$pair@$$CBHPAVCWindow@UI@@@std@@PAX@std@@AAPAU12@@std@@YAXAAPAU?$_Tree_node@U?$pair@$$CBHPAVCWindow@UI@@@std@@PAX@0@0@Z PROC ; std::_Construct_in_place<std::_Tree_node<std::pair<int const ,UI::CWindow *>,void *> *,std::_Tree_node<std::pair<int const ,UI::CWindow *>,void *> * &>, COMDAT

; 228  : void _Construct_in_place(_Ty& _Obj, _Types&&... _Args) noexcept(is_nothrow_constructible_v<_Ty, _Types...>) {

  00000	55		 push	 ebp
  00001	8b ec		 mov	 ebp, esp

; 229  :     ::new (const_cast<void*>(static_cast<const volatile void*>(_STD addressof(_Obj))))

  00003	8b 45 0c	 mov	 eax, DWORD PTR _<_Args_0>$[ebp]
  00006	8b 08		 mov	 ecx, DWORD PTR [eax]
  00008	8b 45 08	 mov	 eax, DWORD PTR __Obj$[ebp]
  0000b	89 08		 mov	 DWORD PTR [eax], ecx

; 230  :         _Ty(_STD forward<_Types>(_Args)...);
; 231  : }

  0000d	5d		 pop	 ebp
  0000e	c3		 ret	 0
??$_Construct_in_place@PAU?$_Tree_node@U?$pair@$$CBHPAVCWindow@UI@@@std@@PAX@std@@AAPAU12@@std@@YAXAAPAU?$_Tree_node@U?$pair@$$CBHPAVCWindow@UI@@@std@@PAX@0@0@Z ENDP ; std::_Construct_in_place<std::_Tree_node<std::pair<int const ,UI::CWindow *>,void *> *,std::_Tree_node<std::pair<int const ,UI::CWindow *>,void *> * &>
_TEXT	ENDS
; Function compile flags: /Ogtp
; File C:\Program Files (x86)\Microsoft Visual Studio\2019\Community\VC\Tools\MSVC\14.27.29110\include\xstring
;	COMDAT ??$?MDU?$char_traits@D@std@@V?$allocator@D@1@@std@@YA_NABV?$basic_string@DU?$char_traits@D@std@@V?$allocator@D@2@@0@0@Z
_TEXT	SEGMENT
__Left$ = 8						; size = 4
__Right$ = 12						; size = 4
??$?MDU?$char_traits@D@std@@V?$allocator@D@1@@std@@YA_NABV?$basic_string@DU?$char_traits@D@std@@V?$allocator@D@2@@0@0@Z PROC ; std::operator<<char,std::char_traits<char>,std::allocator<char> >, COMDAT

; 4502 :     const basic_string<_Elem, _Traits, _Alloc>& _Left, const basic_string<_Elem, _Traits, _Alloc>& _Right) noexcept {

  00000	55		 push	 ebp
  00001	8b ec		 mov	 ebp, esp

; 2144 :         const value_type* _Result = _Bx._Buf;

  00003	8b 45 0c	 mov	 eax, DWORD PTR __Right$[ebp]
  00006	8b d0		 mov	 edx, eax

; 2153 :         return _BUF_SIZE <= _Myres;

  00008	83 78 14 10	 cmp	 DWORD PTR [eax+20], 16	; 00000010H

; 2145 :         if (_Large_string_engaged()) {

  0000c	72 02		 jb	 SHORT $LN6@operator

; 2146 :             _Result = _Unfancy(_Bx._Ptr);

  0000e	8b 10		 mov	 edx, DWORD PTR [eax]
$LN6@operator:

; 2144 :         const value_type* _Result = _Bx._Buf;

  00010	8b 4d 08	 mov	 ecx, DWORD PTR __Left$[ebp]
  00013	56		 push	 esi
  00014	8b f1		 mov	 esi, ecx

; 2153 :         return _BUF_SIZE <= _Myres;

  00016	83 79 14 10	 cmp	 DWORD PTR [ecx+20], 16	; 00000010H

; 2145 :         if (_Large_string_engaged()) {

  0001a	72 02		 jb	 SHORT $LN11@operator

; 2146 :             _Result = _Unfancy(_Bx._Ptr);

  0001c	8b 31		 mov	 esi, DWORD PTR [ecx]
$LN11@operator:

; 4129 :         return _Traits_compare<_Traits>(_Mypair._Myval2._Myptr(), _Mypair._Myval2._Mysize,

  0001e	ff 70 10	 push	 DWORD PTR [eax+16]
  00021	52		 push	 edx
  00022	ff 71 10	 push	 DWORD PTR [ecx+16]
  00025	56		 push	 esi
  00026	e8 00 00 00 00	 call	 ??$_Traits_compare@U?$char_traits@D@std@@@std@@YAHQBDI0I@Z ; std::_Traits_compare<std::char_traits<char> >
  0002b	83 c4 10	 add	 esp, 16			; 00000010H

; 4503 :     return _Left.compare(_Right) < 0;

  0002e	c1 e8 1f	 shr	 eax, 31			; 0000001fH
  00031	5e		 pop	 esi

; 4504 : }

  00032	5d		 pop	 ebp
  00033	c3		 ret	 0
??$?MDU?$char_traits@D@std@@V?$allocator@D@1@@std@@YA_NABV?$basic_string@DU?$char_traits@D@std@@V?$allocator@D@2@@0@0@Z ENDP ; std::operator<<char,std::char_traits<char>,std::allocator<char> >
_TEXT	ENDS
; Function compile flags: /Ogtp
; File C:\Program Files (x86)\Microsoft Visual Studio\2019\Community\VC\Tools\MSVC\14.27.29110\include\xmemory
;	COMDAT ??$_Destroy_in_place@PAU?$_Tree_node@U?$pair@$$CBHPAVCWindow@UI@@@std@@PAX@std@@@std@@YAXAAPAU?$_Tree_node@U?$pair@$$CBHPAVCWindow@UI@@@std@@PAX@0@@Z
_TEXT	SEGMENT
__Obj$ = 8						; size = 4
??$_Destroy_in_place@PAU?$_Tree_node@U?$pair@$$CBHPAVCWindow@UI@@@std@@PAX@std@@@std@@YAXAAPAU?$_Tree_node@U?$pair@$$CBHPAVCWindow@UI@@@std@@PAX@0@@Z PROC ; std::_Destroy_in_place<std::_Tree_node<std::pair<int const ,UI::CWindow *>,void *> *>, COMDAT

; 268  :     _Obj.~_Ty();
; 269  : }

  00000	c2 00 00	 ret	 0
??$_Destroy_in_place@PAU?$_Tree_node@U?$pair@$$CBHPAVCWindow@UI@@@std@@PAX@std@@@std@@YAXAAPAU?$_Tree_node@U?$pair@$$CBHPAVCWindow@UI@@@std@@PAX@0@@Z ENDP ; std::_Destroy_in_place<std::_Tree_node<std::pair<int const ,UI::CWindow *>,void *> *>
_TEXT	ENDS
; Function compile flags: /Ogtp
; File C:\Program Files (x86)\Microsoft Visual Studio\2019\Community\VC\Tools\MSVC\14.27.29110\include\xmemory
;	COMDAT ??$_Construct_in_place@PAU?$_Tree_node@U?$pair@$$CBV?$basic_string@DU?$char_traits@D@std@@V?$allocator@D@2@@std@@PAVCWindow@UI@@@std@@PAX@std@@AAPAU12@@std@@YAXAAPAU?$_Tree_node@U?$pair@$$CBV?$basic_string@DU?$char_traits@D@std@@V?$allocator@D@2@@std@@PAVCWindow@UI@@@std@@PAX@0@0@Z
_TEXT	SEGMENT
__Obj$ = 8						; size = 4
_<_Args_0>$ = 12					; size = 4
??$_Construct_in_place@PAU?$_Tree_node@U?$pair@$$CBV?$basic_string@DU?$char_traits@D@std@@V?$allocator@D@2@@std@@PAVCWindow@UI@@@std@@PAX@std@@AAPAU12@@std@@YAXAAPAU?$_Tree_node@U?$pair@$$CBV?$basic_string@DU?$char_traits@D@std@@V?$allocator@D@2@@std@@PAVCWindow@UI@@@std@@PAX@0@0@Z PROC ; std::_Construct_in_place<std::_Tree_node<std::pair<std::basic_string<char,std::char_traits<char>,std::allocator<char> > const ,UI::CWindow *>,void *> *,std::_Tree_node<std::pair<std::basic_string<char,std::char_traits<char>,std::allocator<char> > const ,UI::CWindow *>,void *> * &>, COMDAT

; 228  : void _Construct_in_place(_Ty& _Obj, _Types&&... _Args) noexcept(is_nothrow_constructible_v<_Ty, _Types...>) {

  00000	55		 push	 ebp
  00001	8b ec		 mov	 ebp, esp

; 229  :     ::new (const_cast<void*>(static_cast<const volatile void*>(_STD addressof(_Obj))))

  00003	8b 45 0c	 mov	 eax, DWORD PTR _<_Args_0>$[ebp]
  00006	8b 08		 mov	 ecx, DWORD PTR [eax]
  00008	8b 45 08	 mov	 eax, DWORD PTR __Obj$[ebp]
  0000b	89 08		 mov	 DWORD PTR [eax], ecx

; 230  :         _Ty(_STD forward<_Types>(_Args)...);
; 231  : }

  0000d	5d		 pop	 ebp
  0000e	c3		 ret	 0
??$_Construct_in_place@PAU?$_Tree_node@U?$pair@$$CBV?$basic_string@DU?$char_traits@D@std@@V?$allocator@D@2@@std@@PAVCWindow@UI@@@std@@PAX@std@@AAPAU12@@std@@YAXAAPAU?$_Tree_node@U?$pair@$$CBV?$basic_string@DU?$char_traits@D@std@@V?$allocator@D@2@@std@@PAVCWindow@UI@@@std@@PAX@0@0@Z ENDP ; std::_Construct_in_place<std::_Tree_node<std::pair<std::basic_string<char,std::char_traits<char>,std::allocator<char> > const ,UI::CWindow *>,void *> *,std::_Tree_node<std::pair<std::basic_string<char,std::char_traits<char>,std::allocator<char> > const ,UI::CWindow *>,void *> * &>
_TEXT	ENDS
; Function compile flags: /Ogtp
; File C:\Program Files (x86)\Microsoft Visual Studio\2019\Community\VC\Tools\MSVC\14.27.29110\include\xmemory
;	COMDAT ??$_Destroy_in_place@PAU?$_Tree_node@PAVCWindow@UI@@PAX@std@@@std@@YAXAAPAU?$_Tree_node@PAVCWindow@UI@@PAX@0@@Z
_TEXT	SEGMENT
__Obj$ = 8						; size = 4
??$_Destroy_in_place@PAU?$_Tree_node@PAVCWindow@UI@@PAX@std@@@std@@YAXAAPAU?$_Tree_node@PAVCWindow@UI@@PAX@0@@Z PROC ; std::_Destroy_in_place<std::_Tree_node<UI::CWindow *,void *> *>, COMDAT

; 268  :     _Obj.~_Ty();
; 269  : }

  00000	c2 00 00	 ret	 0
??$_Destroy_in_place@PAU?$_Tree_node@PAVCWindow@UI@@PAX@std@@@std@@YAXAAPAU?$_Tree_node@PAVCWindow@UI@@PAX@0@@Z ENDP ; std::_Destroy_in_place<std::_Tree_node<UI::CWindow *,void *> *>
_TEXT	ENDS
; Function compile flags: /Ogtp
; File C:\Program Files (x86)\Microsoft Visual Studio\2019\Community\VC\Tools\MSVC\14.27.29110\include\xmemory
;	COMDAT ??1?$_Alloc_construct_ptr@V?$allocator@U?$_Tree_node@U?$pair@$$CBHPAVCWindow@UI@@@std@@PAX@std@@@std@@@std@@QAE@XZ
_TEXT	SEGMENT
??1?$_Alloc_construct_ptr@V?$allocator@U?$_Tree_node@U?$pair@$$CBHPAVCWindow@UI@@@std@@PAX@std@@@std@@@std@@QAE@XZ PROC ; std::_Alloc_construct_ptr<std::allocator<std::_Tree_node<std::pair<int const ,UI::CWindow *>,void *> > >::~_Alloc_construct_ptr<std::allocator<std::_Tree_node<std::pair<int const ,UI::CWindow *>,void *> > >, COMDAT
; _this$ = ecx

; 1052 :         if (_Ptr) {

  00000	8b 41 04	 mov	 eax, DWORD PTR [ecx+4]
  00003	85 c0		 test	 eax, eax
  00005	74 0b		 je	 SHORT $LN2@Alloc_cons

; 803  :         _Deallocate<_New_alignof<_Ty>>(_Ptr, sizeof(_Ty) * _Count);

  00007	6a 18		 push	 24			; 00000018H
  00009	50		 push	 eax
  0000a	e8 00 00 00 00	 call	 ??$_Deallocate@$07$0A@@std@@YAXPAXI@Z ; std::_Deallocate<8,0>
  0000f	83 c4 08	 add	 esp, 8
$LN2@Alloc_cons:

; 1053 :             _Al.deallocate(_Ptr, 1);
; 1054 :         }
; 1055 :     }

  00012	c3		 ret	 0
??1?$_Alloc_construct_ptr@V?$allocator@U?$_Tree_node@U?$pair@$$CBHPAVCWindow@UI@@@std@@PAX@std@@@std@@@std@@QAE@XZ ENDP ; std::_Alloc_construct_ptr<std::allocator<std::_Tree_node<std::pair<int const ,UI::CWindow *>,void *> > >::~_Alloc_construct_ptr<std::allocator<std::_Tree_node<std::pair<int const ,UI::CWindow *>,void *> > >
_TEXT	ENDS
; Function compile flags: /Ogtp
; File C:\Program Files (x86)\Microsoft Visual Studio\2019\Community\VC\Tools\MSVC\14.27.29110\include\xmemory
;	COMDAT ??$_Destroy_in_place@PAU?$_Tree_node@U?$pair@$$CBV?$basic_string@DU?$char_traits@D@std@@V?$allocator@D@2@@std@@PAVCWindow@UI@@@std@@PAX@std@@@std@@YAXAAPAU?$_Tree_node@U?$pair@$$CBV?$basic_string@DU?$char_traits@D@std@@V?$allocator@D@2@@std@@PAVCWindow@UI@@@std@@PAX@0@@Z
_TEXT	SEGMENT
__Obj$ = 8						; size = 4
??$_Destroy_in_place@PAU?$_Tree_node@U?$pair@$$CBV?$basic_string@DU?$char_traits@D@std@@V?$allocator@D@2@@std@@PAVCWindow@UI@@@std@@PAX@std@@@std@@YAXAAPAU?$_Tree_node@U?$pair@$$CBV?$basic_string@DU?$char_traits@D@std@@V?$allocator@D@2@@std@@PAVCWindow@UI@@@std@@PAX@0@@Z PROC ; std::_Destroy_in_place<std::_Tree_node<std::pair<std::basic_string<char,std::char_traits<char>,std::allocator<char> > const ,UI::CWindow *>,void *> *>, COMDAT

; 268  :     _Obj.~_Ty();
; 269  : }

  00000	c2 00 00	 ret	 0
??$_Destroy_in_place@PAU?$_Tree_node@U?$pair@$$CBV?$basic_string@DU?$char_traits@D@std@@V?$allocator@D@2@@std@@PAVCWindow@UI@@@std@@PAX@std@@@std@@YAXAAPAU?$_Tree_node@U?$pair@$$CBV?$basic_string@DU?$char_traits@D@std@@V?$allocator@D@2@@std@@PAVCWindow@UI@@@std@@PAX@0@@Z ENDP ; std::_Destroy_in_place<std::_Tree_node<std::pair<std::basic_string<char,std::char_traits<char>,std::allocator<char> > const ,UI::CWindow *>,void *> *>
_TEXT	ENDS
; Function compile flags: /Ogtp
; File C:\Program Files (x86)\Microsoft Visual Studio\2019\Community\VC\Tools\MSVC\14.27.29110\include\xmemory
;	COMDAT ??$_Construct_in_place@PAU?$_List_node@PAVCWindow@UI@@PAX@std@@ABQAU12@@std@@YAXAAPAU?$_List_node@PAVCWindow@UI@@PAX@0@ABQAU10@@Z
_TEXT	SEGMENT
__Obj$ = 8						; size = 4
_<_Args_0>$ = 12					; size = 4
??$_Construct_in_place@PAU?$_List_node@PAVCWindow@UI@@PAX@std@@ABQAU12@@std@@YAXAAPAU?$_List_node@PAVCWindow@UI@@PAX@0@ABQAU10@@Z PROC ; std::_Construct_in_place<std::_List_node<UI::CWindow *,void *> *,std::_List_node<UI::CWindow *,void *> * const &>, COMDAT

; 228  : void _Construct_in_place(_Ty& _Obj, _Types&&... _Args) noexcept(is_nothrow_constructible_v<_Ty, _Types...>) {

  00000	55		 push	 ebp
  00001	8b ec		 mov	 ebp, esp

; 229  :     ::new (const_cast<void*>(static_cast<const volatile void*>(_STD addressof(_Obj))))

  00003	8b 45 0c	 mov	 eax, DWORD PTR _<_Args_0>$[ebp]
  00006	8b 08		 mov	 ecx, DWORD PTR [eax]
  00008	8b 45 08	 mov	 eax, DWORD PTR __Obj$[ebp]
  0000b	89 08		 mov	 DWORD PTR [eax], ecx

; 230  :         _Ty(_STD forward<_Types>(_Args)...);
; 231  : }

  0000d	5d		 pop	 ebp
  0000e	c3		 ret	 0
??$_Construct_in_place@PAU?$_List_node@PAVCWindow@UI@@PAX@std@@ABQAU12@@std@@YAXAAPAU?$_List_node@PAVCWindow@UI@@PAX@0@ABQAU10@@Z ENDP ; std::_Construct_in_place<std::_List_node<UI::CWindow *,void *> *,std::_List_node<UI::CWindow *,void *> * const &>
_TEXT	ENDS
; Function compile flags: /Ogtp
; File C:\Program Files (x86)\Microsoft Visual Studio\2019\Community\VC\Tools\MSVC\14.27.29110\include\xmemory
;	COMDAT ??$_Construct_in_place@PAU?$_Tree_node@U?$pair@$$CBHPAVCWindow@UI@@@std@@PAX@std@@ABQAU12@@std@@YAXAAPAU?$_Tree_node@U?$pair@$$CBHPAVCWindow@UI@@@std@@PAX@0@ABQAU10@@Z
_TEXT	SEGMENT
__Obj$ = 8						; size = 4
_<_Args_0>$ = 12					; size = 4
??$_Construct_in_place@PAU?$_Tree_node@U?$pair@$$CBHPAVCWindow@UI@@@std@@PAX@std@@ABQAU12@@std@@YAXAAPAU?$_Tree_node@U?$pair@$$CBHPAVCWindow@UI@@@std@@PAX@0@ABQAU10@@Z PROC ; std::_Construct_in_place<std::_Tree_node<std::pair<int const ,UI::CWindow *>,void *> *,std::_Tree_node<std::pair<int const ,UI::CWindow *>,void *> * const &>, COMDAT

; 228  : void _Construct_in_place(_Ty& _Obj, _Types&&... _Args) noexcept(is_nothrow_constructible_v<_Ty, _Types...>) {

  00000	55		 push	 ebp
  00001	8b ec		 mov	 ebp, esp

; 229  :     ::new (const_cast<void*>(static_cast<const volatile void*>(_STD addressof(_Obj))))

  00003	8b 45 0c	 mov	 eax, DWORD PTR _<_Args_0>$[ebp]
  00006	8b 08		 mov	 ecx, DWORD PTR [eax]
  00008	8b 45 08	 mov	 eax, DWORD PTR __Obj$[ebp]
  0000b	89 08		 mov	 DWORD PTR [eax], ecx

; 230  :         _Ty(_STD forward<_Types>(_Args)...);
; 231  : }

  0000d	5d		 pop	 ebp
  0000e	c3		 ret	 0
??$_Construct_in_place@PAU?$_Tree_node@U?$pair@$$CBHPAVCWindow@UI@@@std@@PAX@std@@ABQAU12@@std@@YAXAAPAU?$_Tree_node@U?$pair@$$CBHPAVCWindow@UI@@@std@@PAX@0@ABQAU10@@Z ENDP ; std::_Construct_in_place<std::_Tree_node<std::pair<int const ,UI::CWindow *>,void *> *,std::_Tree_node<std::pair<int const ,UI::CWindow *>,void *> * const &>
_TEXT	ENDS
; Function compile flags: /Ogtp
; File C:\Program Files (x86)\Microsoft Visual Studio\2019\Community\VC\Tools\MSVC\14.27.29110\include\xmemory
;	COMDAT ??$_Construct_in_place@PAU?$_Tree_node@U?$pair@$$CBV?$basic_string@DU?$char_traits@D@std@@V?$allocator@D@2@@std@@PAVCWindow@UI@@@std@@PAX@std@@ABQAU12@@std@@YAXAAPAU?$_Tree_node@U?$pair@$$CBV?$basic_string@DU?$char_traits@D@std@@V?$allocator@D@2@@std@@PAVCWindow@UI@@@std@@PAX@0@ABQAU10@@Z
_TEXT	SEGMENT
__Obj$ = 8						; size = 4
_<_Args_0>$ = 12					; size = 4
??$_Construct_in_place@PAU?$_Tree_node@U?$pair@$$CBV?$basic_string@DU?$char_traits@D@std@@V?$allocator@D@2@@std@@PAVCWindow@UI@@@std@@PAX@std@@ABQAU12@@std@@YAXAAPAU?$_Tree_node@U?$pair@$$CBV?$basic_string@DU?$char_traits@D@std@@V?$allocator@D@2@@std@@PAVCWindow@UI@@@std@@PAX@0@ABQAU10@@Z PROC ; std::_Construct_in_place<std::_Tree_node<std::pair<std::basic_string<char,std::char_traits<char>,std::allocator<char> > const ,UI::CWindow *>,void *> *,std::_Tree_node<std::pair<std::basic_string<char,std::char_traits<char>,std::allocator<char> > const ,UI::CWindow *>,void *> * const &>, COMDAT

; 228  : void _Construct_in_place(_Ty& _Obj, _Types&&... _Args) noexcept(is_nothrow_constructible_v<_Ty, _Types...>) {

  00000	55		 push	 ebp
  00001	8b ec		 mov	 ebp, esp

; 229  :     ::new (const_cast<void*>(static_cast<const volatile void*>(_STD addressof(_Obj))))

  00003	8b 45 0c	 mov	 eax, DWORD PTR _<_Args_0>$[ebp]
  00006	8b 08		 mov	 ecx, DWORD PTR [eax]
  00008	8b 45 08	 mov	 eax, DWORD PTR __Obj$[ebp]
  0000b	89 08		 mov	 DWORD PTR [eax], ecx

; 230  :         _Ty(_STD forward<_Types>(_Args)...);
; 231  : }

  0000d	5d		 pop	 ebp
  0000e	c3		 ret	 0
??$_Construct_in_place@PAU?$_Tree_node@U?$pair@$$CBV?$basic_string@DU?$char_traits@D@std@@V?$allocator@D@2@@std@@PAVCWindow@UI@@@std@@PAX@std@@ABQAU12@@std@@YAXAAPAU?$_Tree_node@U?$pair@$$CBV?$basic_string@DU?$char_traits@D@std@@V?$allocator@D@2@@std@@PAVCWindow@UI@@@std@@PAX@0@ABQAU10@@Z ENDP ; std::_Construct_in_place<std::_Tree_node<std::pair<std::basic_string<char,std::char_traits<char>,std::allocator<char> > const ,UI::CWindow *>,void *> *,std::_Tree_node<std::pair<std::basic_string<char,std::char_traits<char>,std::allocator<char> > const ,UI::CWindow *>,void *> * const &>
_TEXT	ENDS
; Function compile flags: /Ogtp
; File C:\Program Files (x86)\Microsoft Visual Studio\2019\Community\VC\Tools\MSVC\14.27.29110\include\xmemory
;	COMDAT ??$_Construct_in_place@PAU?$_Tree_node@PAVCWindow@UI@@PAX@std@@ABQAU12@@std@@YAXAAPAU?$_Tree_node@PAVCWindow@UI@@PAX@0@ABQAU10@@Z
_TEXT	SEGMENT
__Obj$ = 8						; size = 4
_<_Args_0>$ = 12					; size = 4
??$_Construct_in_place@PAU?$_Tree_node@PAVCWindow@UI@@PAX@std@@ABQAU12@@std@@YAXAAPAU?$_Tree_node@PAVCWindow@UI@@PAX@0@ABQAU10@@Z PROC ; std::_Construct_in_place<std::_Tree_node<UI::CWindow *,void *> *,std::_Tree_node<UI::CWindow *,void *> * const &>, COMDAT

; 228  : void _Construct_in_place(_Ty& _Obj, _Types&&... _Args) noexcept(is_nothrow_constructible_v<_Ty, _Types...>) {

  00000	55		 push	 ebp
  00001	8b ec		 mov	 ebp, esp

; 229  :     ::new (const_cast<void*>(static_cast<const volatile void*>(_STD addressof(_Obj))))

  00003	8b 45 0c	 mov	 eax, DWORD PTR _<_Args_0>$[ebp]
  00006	8b 08		 mov	 ecx, DWORD PTR [eax]
  00008	8b 45 08	 mov	 eax, DWORD PTR __Obj$[ebp]
  0000b	89 08		 mov	 DWORD PTR [eax], ecx

; 230  :         _Ty(_STD forward<_Types>(_Args)...);
; 231  : }

  0000d	5d		 pop	 ebp
  0000e	c3		 ret	 0
??$_Construct_in_place@PAU?$_Tree_node@PAVCWindow@UI@@PAX@std@@ABQAU12@@std@@YAXAAPAU?$_Tree_node@PAVCWindow@UI@@PAX@0@ABQAU10@@Z ENDP ; std::_Construct_in_place<std::_Tree_node<UI::CWindow *,void *> *,std::_Tree_node<UI::CWindow *,void *> * const &>
_TEXT	ENDS
; Function compile flags: /Ogtp
; File C:\Program Files (x86)\Microsoft Visual Studio\2019\Community\VC\Tools\MSVC\14.27.29110\include\xmemory
;	COMDAT ??$_Destroy_in_place@PAU?$_List_node@PAVCWindow@UI@@PAX@std@@@std@@YAXAAPAU?$_List_node@PAVCWindow@UI@@PAX@0@@Z
_TEXT	SEGMENT
__Obj$ = 8						; size = 4
??$_Destroy_in_place@PAU?$_List_node@PAVCWindow@UI@@PAX@std@@@std@@YAXAAPAU?$_List_node@PAVCWindow@UI@@PAX@0@@Z PROC ; std::_Destroy_in_place<std::_List_node<UI::CWindow *,void *> *>, COMDAT

; 268  :     _Obj.~_Ty();
; 269  : }

  00000	c2 00 00	 ret	 0
??$_Destroy_in_place@PAU?$_List_node@PAVCWindow@UI@@PAX@std@@@std@@YAXAAPAU?$_List_node@PAVCWindow@UI@@PAX@0@@Z ENDP ; std::_Destroy_in_place<std::_List_node<UI::CWindow *,void *> *>
_TEXT	ENDS
; Function compile flags: /Ogtp
; File C:\Program Files (x86)\Microsoft Visual Studio\2019\Community\VC\Tools\MSVC\14.27.29110\include\xmemory
;	COMDAT ??1?$_Alloc_construct_ptr@V?$allocator@U?$_List_node@PAVCWindow@UI@@PAX@std@@@std@@@std@@QAE@XZ
_TEXT	SEGMENT
??1?$_Alloc_construct_ptr@V?$allocator@U?$_List_node@PAVCWindow@UI@@PAX@std@@@std@@@std@@QAE@XZ PROC ; std::_Alloc_construct_ptr<std::allocator<std::_List_node<UI::CWindow *,void *> > >::~_Alloc_construct_ptr<std::allocator<std::_List_node<UI::CWindow *,void *> > >, COMDAT
; _this$ = ecx

; 1052 :         if (_Ptr) {

  00000	8b 41 04	 mov	 eax, DWORD PTR [ecx+4]
  00003	85 c0		 test	 eax, eax
  00005	74 0b		 je	 SHORT $LN2@Alloc_cons

; 803  :         _Deallocate<_New_alignof<_Ty>>(_Ptr, sizeof(_Ty) * _Count);

  00007	6a 0c		 push	 12			; 0000000cH
  00009	50		 push	 eax
  0000a	e8 00 00 00 00	 call	 ??$_Deallocate@$07$0A@@std@@YAXPAXI@Z ; std::_Deallocate<8,0>
  0000f	83 c4 08	 add	 esp, 8
$LN2@Alloc_cons:

; 1053 :             _Al.deallocate(_Ptr, 1);
; 1054 :         }
; 1055 :     }

  00012	c3		 ret	 0
??1?$_Alloc_construct_ptr@V?$allocator@U?$_List_node@PAVCWindow@UI@@PAX@std@@@std@@@std@@QAE@XZ ENDP ; std::_Alloc_construct_ptr<std::allocator<std::_List_node<UI::CWindow *,void *> > >::~_Alloc_construct_ptr<std::allocator<std::_List_node<UI::CWindow *,void *> > >
_TEXT	ENDS
; Function compile flags: /Ogtp
; File C:\Program Files (x86)\Microsoft Visual Studio\2019\Community\VC\Tools\MSVC\14.27.29110\include\xtree
; File C:\Program Files (x86)\Microsoft Visual Studio\2019\Community\VC\Tools\MSVC\14.27.29110\include\xstddef
; File C:\Program Files (x86)\Microsoft Visual Studio\2019\Community\VC\Tools\MSVC\14.27.29110\include\xtree
; File C:\Program Files (x86)\Microsoft Visual Studio\2019\Community\VC\Tools\MSVC\14.27.29110\include\xstddef
; File C:\Program Files (x86)\Microsoft Visual Studio\2019\Community\VC\Tools\MSVC\14.27.29110\include\xtree
;	COMDAT ??$_Find_lower_bound@H@?$_Tree@V?$_Tmap_traits@HPAVCWindow@UI@@U?$less@H@std@@V?$allocator@U?$pair@$$CBHPAVCWindow@UI@@@std@@@4@$0A@@std@@@std@@IBE?AU?$_Tree_find_result@PAU?$_Tree_node@U?$pair@$$CBHPAVCWindow@UI@@@std@@PAX@std@@@1@ABH@Z
_TEXT	SEGMENT
___$ReturnUdt$ = 8					; size = 4
__Keyval$ = 12						; size = 4
??$_Find_lower_bound@H@?$_Tree@V?$_Tmap_traits@HPAVCWindow@UI@@U?$less@H@std@@V?$allocator@U?$pair@$$CBHPAVCWindow@UI@@@std@@@4@$0A@@std@@@std@@IBE?AU?$_Tree_find_result@PAU?$_Tree_node@U?$pair@$$CBHPAVCWindow@UI@@@std@@PAX@std@@@1@ABH@Z PROC ; std::_Tree<std::_Tmap_traits<int,UI::CWindow *,std::less<int>,std::allocator<std::pair<int const ,UI::CWindow *> >,0> >::_Find_lower_bound<int>, COMDAT
; _this$ = ecx

; 1699 :     _Tree_find_result<_Nodeptr> _Find_lower_bound(const _Keyty& _Keyval) const {

  00000	55		 push	 ebp
  00001	8b ec		 mov	 ebp, esp

; 1700 :         const auto _Scary = _Get_scary();
; 1701 :         _Tree_find_result<_Nodeptr> _Result{{_Scary->_Myhead->_Parent, _Tree_child::_Right}, _Scary->_Myhead};

  00003	8b 09		 mov	 ecx, DWORD PTR [ecx]
  00005	8b 55 08	 mov	 edx, DWORD PTR ___$ReturnUdt$[ebp]
  00008	8b 41 04	 mov	 eax, DWORD PTR [ecx+4]
  0000b	89 02		 mov	 DWORD PTR [edx], eax
  0000d	c7 42 04 00 00
	00 00		 mov	 DWORD PTR [edx+4], 0
  00014	89 4a 08	 mov	 DWORD PTR [edx+8], ecx

; 1702 :         _Nodeptr _Trynode = _Result._Location._Parent;
; 1703 :         while (!_Trynode->_Isnil) {

  00017	80 78 0d 00	 cmp	 BYTE PTR [eax+13], 0
  0001b	75 28		 jne	 SHORT $LN12@Find_lower
; File C:\Program Files (x86)\Microsoft Visual Studio\2019\Community\VC\Tools\MSVC\14.27.29110\include\xstddef

; 127  :         return _Left < _Right;

  0001d	8b 4d 0c	 mov	 ecx, DWORD PTR __Keyval$[ebp]
  00020	56		 push	 esi
  00021	8b 31		 mov	 esi, DWORD PTR [ecx]
$LL2@Find_lower:
; File C:\Program Files (x86)\Microsoft Visual Studio\2019\Community\VC\Tools\MSVC\14.27.29110\include\xtree

; 1704 :             _Result._Location._Parent = _Trynode;

  00023	89 02		 mov	 DWORD PTR [edx], eax
; File C:\Program Files (x86)\Microsoft Visual Studio\2019\Community\VC\Tools\MSVC\14.27.29110\include\xstddef

; 127  :         return _Left < _Right;

  00025	39 70 10	 cmp	 DWORD PTR [eax+16], esi
; File C:\Program Files (x86)\Microsoft Visual Studio\2019\Community\VC\Tools\MSVC\14.27.29110\include\xtree

; 1705 :             if (_DEBUG_LT_PRED(_Getcomp(), _Traits::_Kfn(_Trynode->_Myval), _Keyval)) {

  00028	7d 07		 jge	 SHORT $LN4@Find_lower

; 1706 :                 _Result._Location._Child = _Tree_child::_Right;
; 1707 :                 _Trynode                 = _Trynode->_Right;

  0002a	8b 40 08	 mov	 eax, DWORD PTR [eax+8]
  0002d	33 c9		 xor	 ecx, ecx

; 1708 :             } else {

  0002f	eb 0a		 jmp	 SHORT $LN5@Find_lower
$LN4@Find_lower:

; 1709 :                 _Result._Location._Child = _Tree_child::_Left;
; 1710 :                 _Result._Bound           = _Trynode;

  00031	89 42 08	 mov	 DWORD PTR [edx+8], eax

; 1711 :                 _Trynode                 = _Trynode->_Left;

  00034	b9 01 00 00 00	 mov	 ecx, 1
  00039	8b 00		 mov	 eax, DWORD PTR [eax]
$LN5@Find_lower:

; 1702 :         _Nodeptr _Trynode = _Result._Location._Parent;
; 1703 :         while (!_Trynode->_Isnil) {

  0003b	89 4a 04	 mov	 DWORD PTR [edx+4], ecx
  0003e	80 78 0d 00	 cmp	 BYTE PTR [eax+13], 0
  00042	74 df		 je	 SHORT $LL2@Find_lower

; 1712 :             }
; 1713 :         }
; 1714 : 
; 1715 :         return _Result;

  00044	5e		 pop	 esi
$LN12@Find_lower:

; 1716 :     }

  00045	8b c2		 mov	 eax, edx
  00047	5d		 pop	 ebp
  00048	c2 08 00	 ret	 8
??$_Find_lower_bound@H@?$_Tree@V?$_Tmap_traits@HPAVCWindow@UI@@U?$less@H@std@@V?$allocator@U?$pair@$$CBHPAVCWindow@UI@@@std@@@4@$0A@@std@@@std@@IBE?AU?$_Tree_find_result@PAU?$_Tree_node@U?$pair@$$CBHPAVCWindow@UI@@@std@@PAX@std@@@1@ABH@Z ENDP ; std::_Tree<std::_Tmap_traits<int,UI::CWindow *,std::less<int>,std::allocator<std::pair<int const ,UI::CWindow *> >,0> >::_Find_lower_bound<int>
_TEXT	ENDS
; Function compile flags: /Ogtp
; File C:\Program Files (x86)\Microsoft Visual Studio\2019\Community\VC\Tools\MSVC\14.27.29110\include\xmemory
;	COMDAT ??1?$_Tree_temp_node_alloc@V?$allocator@U?$_Tree_node@U?$pair@$$CBV?$basic_string@DU?$char_traits@D@std@@V?$allocator@D@2@@std@@PAVCWindow@UI@@@std@@PAX@std@@@std@@@std@@QAE@XZ
_TEXT	SEGMENT
??1?$_Tree_temp_node_alloc@V?$allocator@U?$_Tree_node@U?$pair@$$CBV?$basic_string@DU?$char_traits@D@std@@V?$allocator@D@2@@std@@PAVCWindow@UI@@@std@@PAX@std@@@std@@@std@@QAE@XZ PROC ; std::_Tree_temp_node_alloc<std::allocator<std::_Tree_node<std::pair<std::basic_string<char,std::char_traits<char>,std::allocator<char> > const ,UI::CWindow *>,void *> > >::~_Tree_temp_node_alloc<std::allocator<std::_Tree_node<std::pair<std::basic_string<char,std::char_traits<char>,std::allocator<char> > const ,UI::CWindow *>,void *> > >, COMDAT
; _this$ = ecx

; 1052 :         if (_Ptr) {

  00000	8b 41 04	 mov	 eax, DWORD PTR [ecx+4]
  00003	85 c0		 test	 eax, eax
  00005	74 0b		 je	 SHORT $LN4@Tree_temp_

; 803  :         _Deallocate<_New_alignof<_Ty>>(_Ptr, sizeof(_Ty) * _Count);

  00007	6a 2c		 push	 44			; 0000002cH
  00009	50		 push	 eax
  0000a	e8 00 00 00 00	 call	 ??$_Deallocate@$07$0A@@std@@YAXPAXI@Z ; std::_Deallocate<8,0>
  0000f	83 c4 08	 add	 esp, 8
$LN4@Tree_temp_:
  00012	c3		 ret	 0
??1?$_Tree_temp_node_alloc@V?$allocator@U?$_Tree_node@U?$pair@$$CBV?$basic_string@DU?$char_traits@D@std@@V?$allocator@D@2@@std@@PAVCWindow@UI@@@std@@PAX@std@@@std@@@std@@QAE@XZ ENDP ; std::_Tree_temp_node_alloc<std::allocator<std::_Tree_node<std::pair<std::basic_string<char,std::char_traits<char>,std::allocator<char> > const ,UI::CWindow *>,void *> > >::~_Tree_temp_node_alloc<std::allocator<std::_Tree_node<std::pair<std::basic_string<char,std::char_traits<char>,std::allocator<char> > const ,UI::CWindow *>,void *> > >
_TEXT	ENDS
; Function compile flags: /Ogtp
; File C:\Program Files (x86)\Microsoft Visual Studio\2019\Community\VC\Tools\MSVC\14.27.29110\include\xmemory
;	COMDAT ??1?$_Alloc_construct_ptr@V?$allocator@U?$_Tree_node@U?$pair@$$CBV?$basic_string@DU?$char_traits@D@std@@V?$allocator@D@2@@std@@PAVCWindow@UI@@@std@@PAX@std@@@std@@@std@@QAE@XZ
_TEXT	SEGMENT
??1?$_Alloc_construct_ptr@V?$allocator@U?$_Tree_node@U?$pair@$$CBV?$basic_string@DU?$char_traits@D@std@@V?$allocator@D@2@@std@@PAVCWindow@UI@@@std@@PAX@std@@@std@@@std@@QAE@XZ PROC ; std::_Alloc_construct_ptr<std::allocator<std::_Tree_node<std::pair<std::basic_string<char,std::char_traits<char>,std::allocator<char> > const ,UI::CWindow *>,void *> > >::~_Alloc_construct_ptr<std::allocator<std::_Tree_node<std::pair<std::basic_string<char,std::char_traits<char>,std::allocator<char> > const ,UI::CWindow *>,void *> > >, COMDAT
; _this$ = ecx

; 1052 :         if (_Ptr) {

  00000	8b 41 04	 mov	 eax, DWORD PTR [ecx+4]
  00003	85 c0		 test	 eax, eax
  00005	74 0b		 je	 SHORT $LN2@Alloc_cons

; 803  :         _Deallocate<_New_alignof<_Ty>>(_Ptr, sizeof(_Ty) * _Count);

  00007	6a 2c		 push	 44			; 0000002cH
  00009	50		 push	 eax
  0000a	e8 00 00 00 00	 call	 ??$_Deallocate@$07$0A@@std@@YAXPAXI@Z ; std::_Deallocate<8,0>
  0000f	83 c4 08	 add	 esp, 8
$LN2@Alloc_cons:

; 1053 :             _Al.deallocate(_Ptr, 1);
; 1054 :         }
; 1055 :     }

  00012	c3		 ret	 0
??1?$_Alloc_construct_ptr@V?$allocator@U?$_Tree_node@U?$pair@$$CBV?$basic_string@DU?$char_traits@D@std@@V?$allocator@D@2@@std@@PAVCWindow@UI@@@std@@PAX@std@@@std@@@std@@QAE@XZ ENDP ; std::_Alloc_construct_ptr<std::allocator<std::_Tree_node<std::pair<std::basic_string<char,std::char_traits<char>,std::allocator<char> > const ,UI::CWindow *>,void *> > >::~_Alloc_construct_ptr<std::allocator<std::_Tree_node<std::pair<std::basic_string<char,std::char_traits<char>,std::allocator<char> > const ,UI::CWindow *>,void *> > >
_TEXT	ENDS
; Function compile flags: /Ogtp
; File C:\Program Files (x86)\Microsoft Visual Studio\2019\Community\VC\Tools\MSVC\14.27.29110\include\xtree
; File C:\Program Files (x86)\Microsoft Visual Studio\2019\Community\VC\Tools\MSVC\14.27.29110\include\xstddef
; File C:\Program Files (x86)\Microsoft Visual Studio\2019\Community\VC\Tools\MSVC\14.27.29110\include\xtree
;	COMDAT ??$_Find_lower_bound@V?$basic_string@DU?$char_traits@D@std@@V?$allocator@D@2@@std@@@?$_Tree@V?$_Tmap_traits@V?$basic_string@DU?$char_traits@D@std@@V?$allocator@D@2@@std@@PAVCWindow@UI@@U?$less@V?$basic_string@DU?$char_traits@D@std@@V?$allocator@D@2@@std@@@2@V?$allocator@U?$pair@$$CBV?$basic_string@DU?$char_traits@D@std@@V?$allocator@D@2@@std@@PAVCWindow@UI@@@std@@@2@$0A@@std@@@std@@IBE?AU?$_Tree_find_result@PAU?$_Tree_node@U?$pair@$$CBV?$basic_string@DU?$char_traits@D@std@@V?$allocator@D@2@@std@@PAVCWindow@UI@@@std@@PAX@std@@@1@ABV?$basic_string@DU?$char_traits@D@std@@V?$allocator@D@2@@1@@Z
_TEXT	SEGMENT
___$ReturnUdt$ = 8					; size = 4
__Keyval$ = 12						; size = 4
??$_Find_lower_bound@V?$basic_string@DU?$char_traits@D@std@@V?$allocator@D@2@@std@@@?$_Tree@V?$_Tmap_traits@V?$basic_string@DU?$char_traits@D@std@@V?$allocator@D@2@@std@@PAVCWindow@UI@@U?$less@V?$basic_string@DU?$char_traits@D@std@@V?$allocator@D@2@@std@@@2@V?$allocator@U?$pair@$$CBV?$basic_string@DU?$char_traits@D@std@@V?$allocator@D@2@@std@@PAVCWindow@UI@@@std@@@2@$0A@@std@@@std@@IBE?AU?$_Tree_find_result@PAU?$_Tree_node@U?$pair@$$CBV?$basic_string@DU?$char_traits@D@std@@V?$allocator@D@2@@std@@PAVCWindow@UI@@@std@@PAX@std@@@1@ABV?$basic_string@DU?$char_traits@D@std@@V?$allocator@D@2@@1@@Z PROC ; std::_Tree<std::_Tmap_traits<std::basic_string<char,std::char_traits<char>,std::allocator<char> >,UI::CWindow *,std::less<std::basic_string<char,std::char_traits<char>,std::allocator<char> > >,std::allocator<std::pair<std::basic_string<char,std::char_traits<char>,std::allocator<char> > const ,UI::CWindow *> >,0> >::_Find_lower_bound<std::basic_string<char,std::char_traits<char>,std::allocator<char> > >, COMDAT
; _this$ = ecx

; 1699 :     _Tree_find_result<_Nodeptr> _Find_lower_bound(const _Keyty& _Keyval) const {

  00000	55		 push	 ebp
  00001	8b ec		 mov	 ebp, esp

; 1700 :         const auto _Scary = _Get_scary();
; 1701 :         _Tree_find_result<_Nodeptr> _Result{{_Scary->_Myhead->_Parent, _Tree_child::_Right}, _Scary->_Myhead};

  00003	8b 01		 mov	 eax, DWORD PTR [ecx]
  00005	56		 push	 esi
  00006	57		 push	 edi
  00007	8b 7d 08	 mov	 edi, DWORD PTR ___$ReturnUdt$[ebp]
  0000a	8b 70 04	 mov	 esi, DWORD PTR [eax+4]
  0000d	89 37		 mov	 DWORD PTR [edi], esi

; 1702 :         _Nodeptr _Trynode = _Result._Location._Parent;
; 1703 :         while (!_Trynode->_Isnil) {

  0000f	80 7e 0d 00	 cmp	 BYTE PTR [esi+13], 0
  00013	c7 47 04 00 00
	00 00		 mov	 DWORD PTR [edi+4], 0
  0001a	89 47 08	 mov	 DWORD PTR [edi+8], eax
  0001d	75 32		 jne	 SHORT $LN12@Find_lower
  0001f	53		 push	 ebx
  00020	8b 5d 0c	 mov	 ebx, DWORD PTR __Keyval$[ebp]
$LL2@Find_lower:

; 1705 :             if (_DEBUG_LT_PRED(_Getcomp(), _Traits::_Kfn(_Trynode->_Myval), _Keyval)) {

  00023	8d 46 10	 lea	 eax, DWORD PTR [esi+16]
  00026	89 37		 mov	 DWORD PTR [edi], esi
; File C:\Program Files (x86)\Microsoft Visual Studio\2019\Community\VC\Tools\MSVC\14.27.29110\include\xstddef

; 127  :         return _Left < _Right;

  00028	53		 push	 ebx
  00029	50		 push	 eax
  0002a	e8 00 00 00 00	 call	 ??$?MDU?$char_traits@D@std@@V?$allocator@D@1@@std@@YA_NABV?$basic_string@DU?$char_traits@D@std@@V?$allocator@D@2@@0@0@Z ; std::operator<<char,std::char_traits<char>,std::allocator<char> >
  0002f	83 c4 08	 add	 esp, 8
; File C:\Program Files (x86)\Microsoft Visual Studio\2019\Community\VC\Tools\MSVC\14.27.29110\include\xtree

; 1705 :             if (_DEBUG_LT_PRED(_Getcomp(), _Traits::_Kfn(_Trynode->_Myval), _Keyval)) {

  00032	84 c0		 test	 al, al
  00034	74 07		 je	 SHORT $LN4@Find_lower

; 1706 :                 _Result._Location._Child = _Tree_child::_Right;
; 1707 :                 _Trynode                 = _Trynode->_Right;

  00036	8b 76 08	 mov	 esi, DWORD PTR [esi+8]
  00039	33 c0		 xor	 eax, eax

; 1708 :             } else {

  0003b	eb 0a		 jmp	 SHORT $LN5@Find_lower
$LN4@Find_lower:

; 1709 :                 _Result._Location._Child = _Tree_child::_Left;
; 1710 :                 _Result._Bound           = _Trynode;

  0003d	89 77 08	 mov	 DWORD PTR [edi+8], esi

; 1711 :                 _Trynode                 = _Trynode->_Left;

  00040	b8 01 00 00 00	 mov	 eax, 1
  00045	8b 36		 mov	 esi, DWORD PTR [esi]
$LN5@Find_lower:

; 1702 :         _Nodeptr _Trynode = _Result._Location._Parent;
; 1703 :         while (!_Trynode->_Isnil) {

  00047	89 47 04	 mov	 DWORD PTR [edi+4], eax
  0004a	80 7e 0d 00	 cmp	 BYTE PTR [esi+13], 0
  0004e	74 d3		 je	 SHORT $LL2@Find_lower

; 1712 :             }
; 1713 :         }
; 1714 : 
; 1715 :         return _Result;

  00050	5b		 pop	 ebx
$LN12@Find_lower:

; 1716 :     }

  00051	8b c7		 mov	 eax, edi
  00053	5f		 pop	 edi
  00054	5e		 pop	 esi
  00055	5d		 pop	 ebp
  00056	c2 08 00	 ret	 8
??$_Find_lower_bound@V?$basic_string@DU?$char_traits@D@std@@V?$allocator@D@2@@std@@@?$_Tree@V?$_Tmap_traits@V?$basic_string@DU?$char_traits@D@std@@V?$allocator@D@2@@std@@PAVCWindow@UI@@U?$less@V?$basic_string@DU?$char_traits@D@std@@V?$allocator@D@2@@std@@@2@V?$allocator@U?$pair@$$CBV?$basic_string@DU?$char_traits@D@std@@V?$allocator@D@2@@std@@PAVCWindow@UI@@@std@@@2@$0A@@std@@@std@@IBE?AU?$_Tree_find_result@PAU?$_Tree_node@U?$pair@$$CBV?$basic_string@DU?$char_traits@D@std@@V?$allocator@D@2@@std@@PAVCWindow@UI@@@std@@PAX@std@@@1@ABV?$basic_string@DU?$char_traits@D@std@@V?$allocator@D@2@@1@@Z ENDP ; std::_Tree<std::_Tmap_traits<std::basic_string<char,std::char_traits<char>,std::allocator<char> >,UI::CWindow *,std::less<std::basic_string<char,std::char_traits<char>,std::allocator<char> > >,std::allocator<std::pair<std::basic_string<char,std::char_traits<char>,std::allocator<char> > const ,UI::CWindow *> >,0> >::_Find_lower_bound<std::basic_string<char,std::char_traits<char>,std::allocator<char> > >
_TEXT	ENDS
; Function compile flags: /Ogtp
; File C:\Program Files (x86)\Microsoft Visual Studio\2019\Community\VC\Tools\MSVC\14.27.29110\include\xtree
; File C:\Program Files (x86)\Microsoft Visual Studio\2019\Community\VC\Tools\MSVC\14.27.29110\include\utility
; File C:\Program Files (x86)\Microsoft Visual Studio\2019\Community\VC\Tools\MSVC\14.27.29110\include\xmemory
; File C:\Program Files (x86)\Microsoft Visual Studio\2019\Community\VC\Tools\MSVC\14.27.29110\include\xtree
;	COMDAT ??$_Erase_tree@V?$allocator@U?$_Tree_node@PAVCWindow@UI@@PAX@std@@@std@@@?$_Tree_val@U?$_Tree_simple_types@PAVCWindow@UI@@@std@@@std@@QAEXAAV?$allocator@U?$_Tree_node@PAVCWindow@UI@@PAX@std@@@1@PAU?$_Tree_node@PAVCWindow@UI@@PAX@1@@Z
_TEXT	SEGMENT
__Al$ = 8						; size = 4
__Rootnode$ = 12					; size = 4
??$_Erase_tree@V?$allocator@U?$_Tree_node@PAVCWindow@UI@@PAX@std@@@std@@@?$_Tree_val@U?$_Tree_simple_types@PAVCWindow@UI@@@std@@@std@@QAEXAAV?$allocator@U?$_Tree_node@PAVCWindow@UI@@PAX@std@@@1@PAU?$_Tree_node@PAVCWindow@UI@@PAX@1@@Z PROC ; std::_Tree_val<std::_Tree_simple_types<UI::CWindow *> >::_Erase_tree<std::allocator<std::_Tree_node<UI::CWindow *,void *> > >, COMDAT
; _this$ = ecx

; 742  :     void _Erase_tree(_Alnode& _Al, _Nodeptr _Rootnode) noexcept {

  00000	55		 push	 ebp
  00001	8b ec		 mov	 ebp, esp
  00003	53		 push	 ebx
  00004	56		 push	 esi

; 743  :         while (!_Rootnode->_Isnil) { // free subtrees, then node

  00005	8b 75 0c	 mov	 esi, DWORD PTR __Rootnode$[ebp]
  00008	8b d9		 mov	 ebx, ecx
  0000a	80 7e 0d 00	 cmp	 BYTE PTR [esi+13], 0
  0000e	75 25		 jne	 SHORT $LN3@Erase_tree
  00010	57		 push	 edi
  00011	8b 7d 08	 mov	 edi, DWORD PTR __Al$[ebp]
$LL2@Erase_tree:

; 744  :             _Erase_tree(_Al, _Rootnode->_Right);

  00014	ff 76 08	 push	 DWORD PTR [esi+8]
  00017	8b cb		 mov	 ecx, ebx
  00019	57		 push	 edi
  0001a	e8 00 00 00 00	 call	 ??$_Erase_tree@V?$allocator@U?$_Tree_node@PAVCWindow@UI@@PAX@std@@@std@@@?$_Tree_val@U?$_Tree_simple_types@PAVCWindow@UI@@@std@@@std@@QAEXAAV?$allocator@U?$_Tree_node@PAVCWindow@UI@@PAX@std@@@1@PAU?$_Tree_node@PAVCWindow@UI@@PAX@1@@Z ; std::_Tree_val<std::_Tree_simple_types<UI::CWindow *> >::_Erase_tree<std::allocator<std::_Tree_node<UI::CWindow *,void *> > >
; File C:\Program Files (x86)\Microsoft Visual Studio\2019\Community\VC\Tools\MSVC\14.27.29110\include\utility

; 599  :     _Ty _Old_val = static_cast<_Ty&&>(_Val);

  0001f	8b c6		 mov	 eax, esi

; 600  :     _Val         = static_cast<_Other&&>(_New_val);

  00021	8b 36		 mov	 esi, DWORD PTR [esi]
; File C:\Program Files (x86)\Microsoft Visual Studio\2019\Community\VC\Tools\MSVC\14.27.29110\include\xmemory

; 689  :         _Deallocate<_New_alignof<value_type>>(_Ptr, sizeof(value_type) * _Count);

  00023	6a 14		 push	 20			; 00000014H
  00025	50		 push	 eax
  00026	e8 00 00 00 00	 call	 ??$_Deallocate@$07$0A@@std@@YAXPAXI@Z ; std::_Deallocate<8,0>
  0002b	83 c4 08	 add	 esp, 8
; File C:\Program Files (x86)\Microsoft Visual Studio\2019\Community\VC\Tools\MSVC\14.27.29110\include\xtree

; 743  :         while (!_Rootnode->_Isnil) { // free subtrees, then node

  0002e	80 7e 0d 00	 cmp	 BYTE PTR [esi+13], 0
  00032	74 e0		 je	 SHORT $LL2@Erase_tree
  00034	5f		 pop	 edi
$LN3@Erase_tree:
  00035	5e		 pop	 esi

; 745  :             _Alnode::value_type::_Freenode(_Al, _STD exchange(_Rootnode, _Rootnode->_Left));
; 746  :         }
; 747  :     }

  00036	5b		 pop	 ebx
  00037	5d		 pop	 ebp
  00038	c2 08 00	 ret	 8
??$_Erase_tree@V?$allocator@U?$_Tree_node@PAVCWindow@UI@@PAX@std@@@std@@@?$_Tree_val@U?$_Tree_simple_types@PAVCWindow@UI@@@std@@@std@@QAEXAAV?$allocator@U?$_Tree_node@PAVCWindow@UI@@PAX@std@@@1@PAU?$_Tree_node@PAVCWindow@UI@@PAX@1@@Z ENDP ; std::_Tree_val<std::_Tree_simple_types<UI::CWindow *> >::_Erase_tree<std::allocator<std::_Tree_node<UI::CWindow *,void *> > >
_TEXT	ENDS
; Function compile flags: /Ogtp
; File C:\Program Files (x86)\Microsoft Visual Studio\2019\Community\VC\Tools\MSVC\14.27.29110\include\xmemory
;	COMDAT ??$_Construct_in_place@PAU?$_List_node@PAVCWindow@UI@@PAX@std@@AAPAU12@@std@@YAXAAPAU?$_List_node@PAVCWindow@UI@@PAX@0@0@Z
_TEXT	SEGMENT
__Obj$ = 8						; size = 4
_<_Args_0>$ = 12					; size = 4
??$_Construct_in_place@PAU?$_List_node@PAVCWindow@UI@@PAX@std@@AAPAU12@@std@@YAXAAPAU?$_List_node@PAVCWindow@UI@@PAX@0@0@Z PROC ; std::_Construct_in_place<std::_List_node<UI::CWindow *,void *> *,std::_List_node<UI::CWindow *,void *> * &>, COMDAT

; 228  : void _Construct_in_place(_Ty& _Obj, _Types&&... _Args) noexcept(is_nothrow_constructible_v<_Ty, _Types...>) {

  00000	55		 push	 ebp
  00001	8b ec		 mov	 ebp, esp

; 229  :     ::new (const_cast<void*>(static_cast<const volatile void*>(_STD addressof(_Obj))))

  00003	8b 45 0c	 mov	 eax, DWORD PTR _<_Args_0>$[ebp]
  00006	8b 08		 mov	 ecx, DWORD PTR [eax]
  00008	8b 45 08	 mov	 eax, DWORD PTR __Obj$[ebp]
  0000b	89 08		 mov	 DWORD PTR [eax], ecx

; 230  :         _Ty(_STD forward<_Types>(_Args)...);
; 231  : }

  0000d	5d		 pop	 ebp
  0000e	c3		 ret	 0
??$_Construct_in_place@PAU?$_List_node@PAVCWindow@UI@@PAX@std@@AAPAU12@@std@@YAXAAPAU?$_List_node@PAVCWindow@UI@@PAX@0@0@Z ENDP ; std::_Construct_in_place<std::_List_node<UI::CWindow *,void *> *,std::_List_node<UI::CWindow *,void *> * &>
_TEXT	ENDS
; Function compile flags: /Ogtp
; File C:\Program Files (x86)\Microsoft Visual Studio\2019\Community\VC\Tools\MSVC\14.27.29110\include\xtree
; File C:\Program Files (x86)\Microsoft Visual Studio\2019\Community\VC\Tools\MSVC\14.27.29110\include\utility
; File C:\Program Files (x86)\Microsoft Visual Studio\2019\Community\VC\Tools\MSVC\14.27.29110\include\xmemory
; File C:\Program Files (x86)\Microsoft Visual Studio\2019\Community\VC\Tools\MSVC\14.27.29110\include\xtree
;	COMDAT ??$_Erase_tree@V?$allocator@U?$_Tree_node@U?$pair@$$CBHPAVCWindow@UI@@@std@@PAX@std@@@std@@@?$_Tree_val@U?$_Tree_simple_types@U?$pair@$$CBHPAVCWindow@UI@@@std@@@std@@@std@@QAEXAAV?$allocator@U?$_Tree_node@U?$pair@$$CBHPAVCWindow@UI@@@std@@PAX@std@@@1@PAU?$_Tree_node@U?$pair@$$CBHPAVCWindow@UI@@@std@@PAX@1@@Z
_TEXT	SEGMENT
__Al$ = 8						; size = 4
__Rootnode$ = 12					; size = 4
??$_Erase_tree@V?$allocator@U?$_Tree_node@U?$pair@$$CBHPAVCWindow@UI@@@std@@PAX@std@@@std@@@?$_Tree_val@U?$_Tree_simple_types@U?$pair@$$CBHPAVCWindow@UI@@@std@@@std@@@std@@QAEXAAV?$allocator@U?$_Tree_node@U?$pair@$$CBHPAVCWindow@UI@@@std@@PAX@std@@@1@PAU?$_Tree_node@U?$pair@$$CBHPAVCWindow@UI@@@std@@PAX@1@@Z PROC ; std::_Tree_val<std::_Tree_simple_types<std::pair<int const ,UI::CWindow *> > >::_Erase_tree<std::allocator<std::_Tree_node<std::pair<int const ,UI::CWindow *>,void *> > >, COMDAT
; _this$ = ecx

; 742  :     void _Erase_tree(_Alnode& _Al, _Nodeptr _Rootnode) noexcept {

  00000	55		 push	 ebp
  00001	8b ec		 mov	 ebp, esp
  00003	53		 push	 ebx
  00004	56		 push	 esi

; 743  :         while (!_Rootnode->_Isnil) { // free subtrees, then node

  00005	8b 75 0c	 mov	 esi, DWORD PTR __Rootnode$[ebp]
  00008	8b d9		 mov	 ebx, ecx
  0000a	80 7e 0d 00	 cmp	 BYTE PTR [esi+13], 0
  0000e	75 25		 jne	 SHORT $LN3@Erase_tree
  00010	57		 push	 edi
  00011	8b 7d 08	 mov	 edi, DWORD PTR __Al$[ebp]
$LL2@Erase_tree:

; 744  :             _Erase_tree(_Al, _Rootnode->_Right);

  00014	ff 76 08	 push	 DWORD PTR [esi+8]
  00017	8b cb		 mov	 ecx, ebx
  00019	57		 push	 edi
  0001a	e8 00 00 00 00	 call	 ??$_Erase_tree@V?$allocator@U?$_Tree_node@U?$pair@$$CBHPAVCWindow@UI@@@std@@PAX@std@@@std@@@?$_Tree_val@U?$_Tree_simple_types@U?$pair@$$CBHPAVCWindow@UI@@@std@@@std@@@std@@QAEXAAV?$allocator@U?$_Tree_node@U?$pair@$$CBHPAVCWindow@UI@@@std@@PAX@std@@@1@PAU?$_Tree_node@U?$pair@$$CBHPAVCWindow@UI@@@std@@PAX@1@@Z ; std::_Tree_val<std::_Tree_simple_types<std::pair<int const ,UI::CWindow *> > >::_Erase_tree<std::allocator<std::_Tree_node<std::pair<int const ,UI::CWindow *>,void *> > >
; File C:\Program Files (x86)\Microsoft Visual Studio\2019\Community\VC\Tools\MSVC\14.27.29110\include\utility

; 599  :     _Ty _Old_val = static_cast<_Ty&&>(_Val);

  0001f	8b c6		 mov	 eax, esi

; 600  :     _Val         = static_cast<_Other&&>(_New_val);

  00021	8b 36		 mov	 esi, DWORD PTR [esi]
; File C:\Program Files (x86)\Microsoft Visual Studio\2019\Community\VC\Tools\MSVC\14.27.29110\include\xmemory

; 689  :         _Deallocate<_New_alignof<value_type>>(_Ptr, sizeof(value_type) * _Count);

  00023	6a 18		 push	 24			; 00000018H
  00025	50		 push	 eax
  00026	e8 00 00 00 00	 call	 ??$_Deallocate@$07$0A@@std@@YAXPAXI@Z ; std::_Deallocate<8,0>
  0002b	83 c4 08	 add	 esp, 8
; File C:\Program Files (x86)\Microsoft Visual Studio\2019\Community\VC\Tools\MSVC\14.27.29110\include\xtree

; 743  :         while (!_Rootnode->_Isnil) { // free subtrees, then node

  0002e	80 7e 0d 00	 cmp	 BYTE PTR [esi+13], 0
  00032	74 e0		 je	 SHORT $LL2@Erase_tree
  00034	5f		 pop	 edi
$LN3@Erase_tree:
  00035	5e		 pop	 esi

; 745  :             _Alnode::value_type::_Freenode(_Al, _STD exchange(_Rootnode, _Rootnode->_Left));
; 746  :         }
; 747  :     }

  00036	5b		 pop	 ebx
  00037	5d		 pop	 ebp
  00038	c2 08 00	 ret	 8
??$_Erase_tree@V?$allocator@U?$_Tree_node@U?$pair@$$CBHPAVCWindow@UI@@@std@@PAX@std@@@std@@@?$_Tree_val@U?$_Tree_simple_types@U?$pair@$$CBHPAVCWindow@UI@@@std@@@std@@@std@@QAEXAAV?$allocator@U?$_Tree_node@U?$pair@$$CBHPAVCWindow@UI@@@std@@PAX@std@@@1@PAU?$_Tree_node@U?$pair@$$CBHPAVCWindow@UI@@@std@@PAX@1@@Z ENDP ; std::_Tree_val<std::_Tree_simple_types<std::pair<int const ,UI::CWindow *> > >::_Erase_tree<std::allocator<std::_Tree_node<std::pair<int const ,UI::CWindow *>,void *> > >
_TEXT	ENDS
; Function compile flags: /Ogtp
; File C:\Program Files (x86)\Microsoft Visual Studio\2019\Community\VC\Tools\MSVC\14.27.29110\include\xtree
; File C:\Program Files (x86)\Microsoft Visual Studio\2019\Community\VC\Tools\MSVC\14.27.29110\include\utility
; File C:\Program Files (x86)\Microsoft Visual Studio\2019\Community\VC\Tools\MSVC\14.27.29110\include\xstring
; File C:\Program Files (x86)\Microsoft Visual Studio\2019\Community\VC\Tools\MSVC\14.27.29110\include\xmemory
; File C:\Program Files (x86)\Microsoft Visual Studio\2019\Community\VC\Tools\MSVC\14.27.29110\include\xstring
; File C:\Program Files (x86)\Microsoft Visual Studio\2019\Community\VC\Tools\MSVC\14.27.29110\include\xmemory
; File C:\Program Files (x86)\Microsoft Visual Studio\2019\Community\VC\Tools\MSVC\14.27.29110\include\xtree
; File C:\Program Files (x86)\Microsoft Visual Studio\2019\Community\VC\Tools\MSVC\14.27.29110\include\xmemory
; File C:\Program Files (x86)\Microsoft Visual Studio\2019\Community\VC\Tools\MSVC\14.27.29110\include\xtree
;	COMDAT ??$_Erase_tree@V?$allocator@U?$_Tree_node@U?$pair@$$CBV?$basic_string@DU?$char_traits@D@std@@V?$allocator@D@2@@std@@PAVCWindow@UI@@@std@@PAX@std@@@std@@@?$_Tree_val@U?$_Tree_simple_types@U?$pair@$$CBV?$basic_string@DU?$char_traits@D@std@@V?$allocator@D@2@@std@@PAVCWindow@UI@@@std@@@std@@@std@@QAEXAAV?$allocator@U?$_Tree_node@U?$pair@$$CBV?$basic_string@DU?$char_traits@D@std@@V?$allocator@D@2@@std@@PAVCWindow@UI@@@std@@PAX@std@@@1@PAU?$_Tree_node@U?$pair@$$CBV?$basic_string@DU?$char_traits@D@std@@V?$allocator@D@2@@std@@PAVCWindow@UI@@@std@@PAX@1@@Z
_TEXT	SEGMENT
_this$1$ = -4						; size = 4
__Al$ = 8						; size = 4
__Rootnode$ = 12					; size = 4
??$_Erase_tree@V?$allocator@U?$_Tree_node@U?$pair@$$CBV?$basic_string@DU?$char_traits@D@std@@V?$allocator@D@2@@std@@PAVCWindow@UI@@@std@@PAX@std@@@std@@@?$_Tree_val@U?$_Tree_simple_types@U?$pair@$$CBV?$basic_string@DU?$char_traits@D@std@@V?$allocator@D@2@@std@@PAVCWindow@UI@@@std@@@std@@@std@@QAEXAAV?$allocator@U?$_Tree_node@U?$pair@$$CBV?$basic_string@DU?$char_traits@D@std@@V?$allocator@D@2@@std@@PAVCWindow@UI@@@std@@PAX@std@@@1@PAU?$_Tree_node@U?$pair@$$CBV?$basic_string@DU?$char_traits@D@std@@V?$allocator@D@2@@std@@PAVCWindow@UI@@@std@@PAX@1@@Z PROC ; std::_Tree_val<std::_Tree_simple_types<std::pair<std::basic_string<char,std::char_traits<char>,std::allocator<char> > const ,UI::CWindow *> > >::_Erase_tree<std::allocator<std::_Tree_node<std::pair<std::basic_string<char,std::char_traits<char>,std::allocator<char> > const ,UI::CWindow *>,void *> > >, COMDAT
; _this$ = ecx

; 742  :     void _Erase_tree(_Alnode& _Al, _Nodeptr _Rootnode) noexcept {

  00000	55		 push	 ebp
  00001	8b ec		 mov	 ebp, esp
  00003	51		 push	 ecx
  00004	57		 push	 edi

; 743  :         while (!_Rootnode->_Isnil) { // free subtrees, then node

  00005	8b 7d 0c	 mov	 edi, DWORD PTR __Rootnode$[ebp]
  00008	8b c1		 mov	 eax, ecx
  0000a	89 45 fc	 mov	 DWORD PTR _this$1$[ebp], eax
  0000d	80 7f 0d 00	 cmp	 BYTE PTR [edi+13], 0
  00011	75 51		 jne	 SHORT $LN3@Erase_tree
  00013	53		 push	 ebx
  00014	8b 5d 08	 mov	 ebx, DWORD PTR __Al$[ebp]
  00017	56		 push	 esi
$LL2@Erase_tree:

; 744  :             _Erase_tree(_Al, _Rootnode->_Right);

  00018	ff 77 08	 push	 DWORD PTR [edi+8]
  0001b	8b c8		 mov	 ecx, eax
  0001d	53		 push	 ebx
  0001e	e8 00 00 00 00	 call	 ??$_Erase_tree@V?$allocator@U?$_Tree_node@U?$pair@$$CBV?$basic_string@DU?$char_traits@D@std@@V?$allocator@D@2@@std@@PAVCWindow@UI@@@std@@PAX@std@@@std@@@?$_Tree_val@U?$_Tree_simple_types@U?$pair@$$CBV?$basic_string@DU?$char_traits@D@std@@V?$allocator@D@2@@std@@PAVCWindow@UI@@@std@@@std@@@std@@QAEXAAV?$allocator@U?$_Tree_node@U?$pair@$$CBV?$basic_string@DU?$char_traits@D@std@@V?$allocator@D@2@@std@@PAVCWindow@UI@@@std@@PAX@std@@@1@PAU?$_Tree_node@U?$pair@$$CBV?$basic_string@DU?$char_traits@D@std@@V?$allocator@D@2@@std@@PAVCWindow@UI@@@std@@PAX@1@@Z ; std::_Tree_val<std::_Tree_simple_types<std::pair<std::basic_string<char,std::char_traits<char>,std::allocator<char> > const ,UI::CWindow *> > >::_Erase_tree<std::allocator<std::_Tree_node<std::pair<std::basic_string<char,std::char_traits<char>,std::allocator<char> > const ,UI::CWindow *>,void *> > >
; File C:\Program Files (x86)\Microsoft Visual Studio\2019\Community\VC\Tools\MSVC\14.27.29110\include\utility

; 599  :     _Ty _Old_val = static_cast<_Ty&&>(_Val);

  00023	8b f7		 mov	 esi, edi

; 600  :     _Val         = static_cast<_Other&&>(_New_val);

  00025	8b 3f		 mov	 edi, DWORD PTR [edi]
; File C:\Program Files (x86)\Microsoft Visual Studio\2019\Community\VC\Tools\MSVC\14.27.29110\include\xstring

; 2153 :         return _BUF_SIZE <= _Myres;

  00027	8b 46 24	 mov	 eax, DWORD PTR [esi+36]
  0002a	83 f8 10	 cmp	 eax, 16			; 00000010H

; 4301 :         if (_Mypair._Myval2._Large_string_engaged()) {

  0002d	72 0d		 jb	 SHORT $LN21@Erase_tree

; 4302 :             const pointer _Ptr = _Mypair._Myval2._Bx._Ptr;
; 4303 :             auto& _Al          = _Getal();
; 4304 :             _Destroy_in_place(_Mypair._Myval2._Bx._Ptr);
; 4305 :             _Al.deallocate(_Ptr, _Mypair._Myval2._Myres + 1);

  0002f	40		 inc	 eax
; File C:\Program Files (x86)\Microsoft Visual Studio\2019\Community\VC\Tools\MSVC\14.27.29110\include\xmemory

; 803  :         _Deallocate<_New_alignof<_Ty>>(_Ptr, sizeof(_Ty) * _Count);

  00030	50		 push	 eax
  00031	ff 76 10	 push	 DWORD PTR [esi+16]
  00034	e8 00 00 00 00	 call	 ??$_Deallocate@$07$0A@@std@@YAXPAXI@Z ; std::_Deallocate<8,0>
  00039	83 c4 08	 add	 esp, 8
$LN21@Erase_tree:

; 689  :         _Deallocate<_New_alignof<value_type>>(_Ptr, sizeof(value_type) * _Count);

  0003c	6a 2c		 push	 44			; 0000002cH
  0003e	56		 push	 esi
; File C:\Program Files (x86)\Microsoft Visual Studio\2019\Community\VC\Tools\MSVC\14.27.29110\include\xstring

; 4308 :         _Mypair._Myval2._Mysize = 0;

  0003f	c7 46 20 00 00
	00 00		 mov	 DWORD PTR [esi+32], 0

; 4309 :         _Mypair._Myval2._Myres  = _BUF_SIZE - 1;

  00046	c7 46 24 0f 00
	00 00		 mov	 DWORD PTR [esi+36], 15	; 0000000fH

; 4310 :         // the _Traits::assign is last so the codegen doesn't think the char write can alias this
; 4311 :         _Traits::assign(_Mypair._Myval2._Bx._Buf[0], _Elem());

  0004d	c6 46 10 00	 mov	 BYTE PTR [esi+16], 0
; File C:\Program Files (x86)\Microsoft Visual Studio\2019\Community\VC\Tools\MSVC\14.27.29110\include\xmemory

; 689  :         _Deallocate<_New_alignof<value_type>>(_Ptr, sizeof(value_type) * _Count);

  00051	e8 00 00 00 00	 call	 ??$_Deallocate@$07$0A@@std@@YAXPAXI@Z ; std::_Deallocate<8,0>
; File C:\Program Files (x86)\Microsoft Visual Studio\2019\Community\VC\Tools\MSVC\14.27.29110\include\xtree

; 743  :         while (!_Rootnode->_Isnil) { // free subtrees, then node

  00056	8b 45 fc	 mov	 eax, DWORD PTR _this$1$[ebp]
; File C:\Program Files (x86)\Microsoft Visual Studio\2019\Community\VC\Tools\MSVC\14.27.29110\include\xmemory

; 689  :         _Deallocate<_New_alignof<value_type>>(_Ptr, sizeof(value_type) * _Count);

  00059	83 c4 08	 add	 esp, 8
; File C:\Program Files (x86)\Microsoft Visual Studio\2019\Community\VC\Tools\MSVC\14.27.29110\include\xtree

; 743  :         while (!_Rootnode->_Isnil) { // free subtrees, then node

  0005c	80 7f 0d 00	 cmp	 BYTE PTR [edi+13], 0
  00060	74 b6		 je	 SHORT $LL2@Erase_tree
  00062	5e		 pop	 esi
  00063	5b		 pop	 ebx
$LN3@Erase_tree:
  00064	5f		 pop	 edi

; 745  :             _Alnode::value_type::_Freenode(_Al, _STD exchange(_Rootnode, _Rootnode->_Left));
; 746  :         }
; 747  :     }

  00065	8b e5		 mov	 esp, ebp
  00067	5d		 pop	 ebp
  00068	c2 08 00	 ret	 8
??$_Erase_tree@V?$allocator@U?$_Tree_node@U?$pair@$$CBV?$basic_string@DU?$char_traits@D@std@@V?$allocator@D@2@@std@@PAVCWindow@UI@@@std@@PAX@std@@@std@@@?$_Tree_val@U?$_Tree_simple_types@U?$pair@$$CBV?$basic_string@DU?$char_traits@D@std@@V?$allocator@D@2@@std@@PAVCWindow@UI@@@std@@@std@@@std@@QAEXAAV?$allocator@U?$_Tree_node@U?$pair@$$CBV?$basic_string@DU?$char_traits@D@std@@V?$allocator@D@2@@std@@PAVCWindow@UI@@@std@@PAX@std@@@1@PAU?$_Tree_node@U?$pair@$$CBV?$basic_string@DU?$char_traits@D@std@@V?$allocator@D@2@@std@@PAVCWindow@UI@@@std@@PAX@1@@Z ENDP ; std::_Tree_val<std::_Tree_simple_types<std::pair<std::basic_string<char,std::char_traits<char>,std::allocator<char> > const ,UI::CWindow *> > >::_Erase_tree<std::allocator<std::_Tree_node<std::pair<std::basic_string<char,std::char_traits<char>,std::allocator<char> > const ,UI::CWindow *>,void *> > >
_TEXT	ENDS
; Function compile flags: /Ogtp
; File C:\Program Files (x86)\Microsoft Visual Studio\2019\Community\VC\Tools\MSVC\14.27.29110\include\map
; File C:\Program Files (x86)\Microsoft Visual Studio\2019\Community\VC\Tools\MSVC\14.27.29110\include\xtree
; File C:\Program Files (x86)\Microsoft Visual Studio\2019\Community\VC\Tools\MSVC\14.27.29110\include\xstddef
; File C:\Program Files (x86)\Microsoft Visual Studio\2019\Community\VC\Tools\MSVC\14.27.29110\include\xtree
; File C:\Program Files (x86)\Microsoft Visual Studio\2019\Community\VC\Tools\MSVC\14.27.29110\include\utility
; File C:\Program Files (x86)\Microsoft Visual Studio\2019\Community\VC\Tools\MSVC\14.27.29110\include\xtree
; File C:\Program Files (x86)\Microsoft Visual Studio\2019\Community\VC\Tools\MSVC\14.27.29110\include\xmemory
; File C:\Program Files (x86)\Microsoft Visual Studio\2019\Community\VC\Tools\MSVC\14.27.29110\include\xtree
; File C:\Program Files (x86)\Microsoft Visual Studio\2019\Community\VC\Tools\MSVC\14.27.29110\include\xmemory
; File C:\Program Files (x86)\Microsoft Visual Studio\2019\Community\VC\Tools\MSVC\14.27.29110\include\utility
; File C:\Program Files (x86)\Microsoft Visual Studio\2019\Community\VC\Tools\MSVC\14.27.29110\include\xmemory
; File C:\Program Files (x86)\Microsoft Visual Studio\2019\Community\VC\Tools\MSVC\14.27.29110\include\xtree
; File C:\Program Files (x86)\Microsoft Visual Studio\2019\Community\VC\Tools\MSVC\14.27.29110\include\utility
; File C:\Program Files (x86)\Microsoft Visual Studio\2019\Community\VC\Tools\MSVC\14.27.29110\include\xtree
; File C:\Program Files (x86)\Microsoft Visual Studio\2019\Community\VC\Tools\MSVC\14.27.29110\include\utility
; File C:\Program Files (x86)\Microsoft Visual Studio\2019\Community\VC\Tools\MSVC\14.27.29110\include\map
; File C:\Program Files (x86)\Microsoft Visual Studio\2019\Community\VC\Tools\MSVC\14.27.29110\include\xtree
; File C:\Program Files (x86)\Microsoft Visual Studio\2019\Community\VC\Tools\MSVC\14.27.29110\include\map
;	COMDAT ??$insert@U?$pair@HPAVCWindow@UI@@@std@@$0A@@?$map@HPAVCWindow@UI@@U?$less@H@std@@V?$allocator@U?$pair@$$CBHPAVCWindow@UI@@@std@@@4@@std@@QAE?AU?$pair@V?$_Tree_iterator@V?$_Tree_val@U?$_Tree_simple_types@U?$pair@$$CBHPAVCWindow@UI@@@std@@@std@@@std@@@std@@_N@1@$$QAU?$pair@HPAVCWindow@UI@@@1@@Z
_TEXT	SEGMENT
__Loc$3 = -36						; size = 12
$T4 = -24						; size = 12
$T5 = -20						; size = 8
__$EHRec$ = -12						; size = 12
___$ReturnUdt$ = 8					; size = 4
__Myhead$6 = 12						; size = 4
__Val$ = 12						; size = 4
??$insert@U?$pair@HPAVCWindow@UI@@@std@@$0A@@?$map@HPAVCWindow@UI@@U?$less@H@std@@V?$allocator@U?$pair@$$CBHPAVCWindow@UI@@@std@@@4@@std@@QAE?AU?$pair@V?$_Tree_iterator@V?$_Tree_val@U?$_Tree_simple_types@U?$pair@$$CBHPAVCWindow@UI@@@std@@@std@@@std@@@std@@_N@1@$$QAU?$pair@HPAVCWindow@UI@@@1@@Z PROC ; std::map<int,UI::CWindow *,std::less<int>,std::allocator<std::pair<int const ,UI::CWindow *> > >::insert<std::pair<int,UI::CWindow *>,0>, COMDAT
; _this$ = ecx

; 164  :     pair<iterator, bool> insert(_Valty&& _Val) {

  00000	55		 push	 ebp
  00001	8b ec		 mov	 ebp, esp
  00003	6a ff		 push	 -1
  00005	68 00 00 00 00	 push	 __ehhandler$??$insert@U?$pair@HPAVCWindow@UI@@@std@@$0A@@?$map@HPAVCWindow@UI@@U?$less@H@std@@V?$allocator@U?$pair@$$CBHPAVCWindow@UI@@@std@@@4@@std@@QAE?AU?$pair@V?$_Tree_iterator@V?$_Tree_val@U?$_Tree_simple_types@U?$pair@$$CBHPAVCWindow@UI@@@std@@@std@@@std@@@std@@_N@1@$$QAU?$pair@HPAVCWindow@UI@@@1@@Z
  0000a	64 a1 00 00 00
	00		 mov	 eax, DWORD PTR fs:0
  00010	50		 push	 eax
  00011	83 ec 18	 sub	 esp, 24			; 00000018H
  00014	53		 push	 ebx
  00015	56		 push	 esi
  00016	57		 push	 edi
  00017	a1 00 00 00 00	 mov	 eax, DWORD PTR ___security_cookie
  0001c	33 c5		 xor	 eax, ebp
  0001e	50		 push	 eax
  0001f	8d 45 f4	 lea	 eax, DWORD PTR __$EHRec$[ebp]
  00022	64 a3 00 00 00
	00		 mov	 DWORD PTR fs:0, eax
  00028	8b f9		 mov	 edi, ecx
; File C:\Program Files (x86)\Microsoft Visual Studio\2019\Community\VC\Tools\MSVC\14.27.29110\include\xtree

; 1009 :             _Loc                = _Find_lower_bound(_Keyval);

  0002a	8b 5d 0c	 mov	 ebx, DWORD PTR __Val$[ebp]
  0002d	8d 45 e8	 lea	 eax, DWORD PTR $T4[ebp]
  00030	53		 push	 ebx
  00031	50		 push	 eax
  00032	e8 00 00 00 00	 call	 ??$_Find_lower_bound@H@?$_Tree@V?$_Tmap_traits@HPAVCWindow@UI@@U?$less@H@std@@V?$allocator@U?$pair@$$CBHPAVCWindow@UI@@@std@@@4@$0A@@std@@@std@@IBE?AU?$_Tree_find_result@PAU?$_Tree_node@U?$pair@$$CBHPAVCWindow@UI@@@std@@PAX@std@@@1@ABH@Z ; std::_Tree<std::_Tmap_traits<int,UI::CWindow *,std::less<int>,std::allocator<std::pair<int const ,UI::CWindow *> >,0> >::_Find_lower_bound<int>
  00037	8b 48 08	 mov	 ecx, DWORD PTR [eax+8]
  0003a	f3 0f 7e 00	 movq	 xmm0, QWORD PTR [eax]
  0003e	66 0f d6 45 dc	 movq	 QWORD PTR __Loc$3[ebp], xmm0

; 1695 :         return !_Bound->_Isnil && !_DEBUG_LT_PRED(_Getcomp(), _Keyval, _Traits::_Kfn(_Bound->_Myval));

  00043	80 79 0d 00	 cmp	 BYTE PTR [ecx+13], 0
  00047	75 0b		 jne	 SHORT $LN6@insert
; File C:\Program Files (x86)\Microsoft Visual Studio\2019\Community\VC\Tools\MSVC\14.27.29110\include\xstddef

; 127  :         return _Left < _Right;

  00049	8b 03		 mov	 eax, DWORD PTR [ebx]
  0004b	3b 41 10	 cmp	 eax, DWORD PTR [ecx+16]
; File C:\Program Files (x86)\Microsoft Visual Studio\2019\Community\VC\Tools\MSVC\14.27.29110\include\xtree

; 1695 :         return !_Bound->_Isnil && !_DEBUG_LT_PRED(_Getcomp(), _Keyval, _Traits::_Kfn(_Bound->_Myval));

  0004e	7c 04		 jl	 SHORT $LN6@insert
; File C:\Program Files (x86)\Microsoft Visual Studio\2019\Community\VC\Tools\MSVC\14.27.29110\include\utility

; 192  :         : first(_STD forward<_Other1>(_Val1)), second(_STD forward<_Other2>(_Val2)) {}

  00050	32 d2		 xor	 dl, dl
; File C:\Program Files (x86)\Microsoft Visual Studio\2019\Community\VC\Tools\MSVC\14.27.29110\include\xtree

; 1011 :                 return {_Loc._Bound, false};

  00052	eb 76		 jmp	 SHORT $LN61@insert
$LN6@insert:

; 1719 :         if (max_size() == _Get_scary()->_Mysize) {

  00054	81 7f 04 aa aa
	aa 0a		 cmp	 DWORD PTR [edi+4], 178956970 ; 0aaaaaaaH
  0005b	0f 84 85 00 00
	00		 je	 $LN78@insert

; 1015 :             _Inserted = _Tree_temp_node<_Alnode>(_Getal(), _Scary->_Myhead, _STD forward<_Valtys>(_Vals)...)._Release();

  00061	8b 07		 mov	 eax, DWORD PTR [edi]
  00063	89 45 0c	 mov	 DWORD PTR __Myhead$6[ebp], eax
; File C:\Program Files (x86)\Microsoft Visual Studio\2019\Community\VC\Tools\MSVC\14.27.29110\include\xmemory

; 1040 :     explicit _Alloc_construct_ptr(_Alloc& _Al_) : _Al(_Al_), _Ptr(nullptr) {}

  00066	89 7d ec	 mov	 DWORD PTR $T5[ebp], edi

; 807  :         return static_cast<_Ty*>(_Allocate<_New_alignof<_Ty>>(_Get_size_of_n<sizeof(_Ty)>(_Count)));

  00069	6a 18		 push	 24			; 00000018H
; File C:\Program Files (x86)\Microsoft Visual Studio\2019\Community\VC\Tools\MSVC\14.27.29110\include\xtree

; 784  :     explicit _Tree_temp_node_alloc(_Alnode& _Al_) : _Alloc_construct_ptr<_Alnode>(_Al_) {

  0006b	c7 45 fc 00 00
	00 00		 mov	 DWORD PTR __$EHRec$[ebp+8], 0
; File C:\Program Files (x86)\Microsoft Visual Studio\2019\Community\VC\Tools\MSVC\14.27.29110\include\xmemory

; 1047 :         _Ptr = nullptr; // if allocate throws, prevents double-free

  00072	c7 45 f0 00 00
	00 00		 mov	 DWORD PTR $T5[ebp+4], 0

; 807  :         return static_cast<_Ty*>(_Allocate<_New_alignof<_Ty>>(_Get_size_of_n<sizeof(_Ty)>(_Count)));

  00079	e8 00 00 00 00	 call	 ??$_Allocate@$07U_Default_allocate_traits@std@@$0A@@std@@YAPAXI@Z ; std::_Allocate<8,std::_Default_allocate_traits,0>
; File C:\Program Files (x86)\Microsoft Visual Studio\2019\Community\VC\Tools\MSVC\14.27.29110\include\utility

; 248  :         : first(_STD forward<_Other1>(_Right.first)), second(_STD forward<_Other2>(_Right.second)) {}

  0007e	8b 0b		 mov	 ecx, DWORD PTR [ebx]
; File C:\Program Files (x86)\Microsoft Visual Studio\2019\Community\VC\Tools\MSVC\14.27.29110\include\xmemory

; 1048 :         _Ptr = _Al.allocate(1);

  00080	8b f0		 mov	 esi, eax
; File C:\Program Files (x86)\Microsoft Visual Studio\2019\Community\VC\Tools\MSVC\14.27.29110\include\xtree

; 807  :         _Construct_in_place(this->_Ptr->_Left, _Myhead);

  00082	8d 45 0c	 lea	 eax, DWORD PTR __Myhead$6[ebp]
  00085	50		 push	 eax
  00086	56		 push	 esi
; File C:\Program Files (x86)\Microsoft Visual Studio\2019\Community\VC\Tools\MSVC\14.27.29110\include\utility

; 248  :         : first(_STD forward<_Other1>(_Right.first)), second(_STD forward<_Other2>(_Right.second)) {}

  00087	89 4e 10	 mov	 DWORD PTR [esi+16], ecx
  0008a	8b 4b 04	 mov	 ecx, DWORD PTR [ebx+4]
  0008d	89 4e 14	 mov	 DWORD PTR [esi+20], ecx
; File C:\Program Files (x86)\Microsoft Visual Studio\2019\Community\VC\Tools\MSVC\14.27.29110\include\xtree

; 807  :         _Construct_in_place(this->_Ptr->_Left, _Myhead);

  00090	e8 00 00 00 00	 call	 ??$_Construct_in_place@PAU?$_Tree_node@U?$pair@$$CBHPAVCWindow@UI@@@std@@PAX@std@@AAPAU12@@std@@YAXAAPAU?$_Tree_node@U?$pair@$$CBHPAVCWindow@UI@@@std@@PAX@0@0@Z ; std::_Construct_in_place<std::_Tree_node<std::pair<int const ,UI::CWindow *>,void *> *,std::_Tree_node<std::pair<int const ,UI::CWindow *>,void *> * &>

; 808  :         _Construct_in_place(this->_Ptr->_Parent, _Myhead);

  00095	8d 45 0c	 lea	 eax, DWORD PTR __Myhead$6[ebp]
  00098	50		 push	 eax
  00099	8d 46 04	 lea	 eax, DWORD PTR [esi+4]
  0009c	50		 push	 eax
  0009d	e8 00 00 00 00	 call	 ??$_Construct_in_place@PAU?$_Tree_node@U?$pair@$$CBHPAVCWindow@UI@@@std@@PAX@std@@AAPAU12@@std@@YAXAAPAU?$_Tree_node@U?$pair@$$CBHPAVCWindow@UI@@@std@@PAX@0@0@Z ; std::_Construct_in_place<std::_Tree_node<std::pair<int const ,UI::CWindow *>,void *> *,std::_Tree_node<std::pair<int const ,UI::CWindow *>,void *> * &>

; 809  :         _Construct_in_place(this->_Ptr->_Right, _Myhead);

  000a2	8d 45 0c	 lea	 eax, DWORD PTR __Myhead$6[ebp]
  000a5	50		 push	 eax
  000a6	8d 46 08	 lea	 eax, DWORD PTR [esi+8]
  000a9	50		 push	 eax
  000aa	e8 00 00 00 00	 call	 ??$_Construct_in_place@PAU?$_Tree_node@U?$pair@$$CBHPAVCWindow@UI@@@std@@PAX@std@@AAPAU12@@std@@YAXAAPAU?$_Tree_node@U?$pair@$$CBHPAVCWindow@UI@@@std@@PAX@0@0@Z ; std::_Construct_in_place<std::_Tree_node<std::pair<int const ,UI::CWindow *>,void *> *,std::_Tree_node<std::pair<int const ,UI::CWindow *>,void *> * &>
  000af	83 c4 1c	 add	 esp, 28			; 0000001cH

; 810  :         this->_Ptr->_Color = _Red;

  000b2	66 c7 46 0c 00
	00		 mov	 WORD PTR [esi+12], 0

; 1034 :         return {_Scary->_Insert_node(_Loc._Location, _Inserted), true};

  000b8	8b cf		 mov	 ecx, edi
  000ba	56		 push	 esi
  000bb	ff 75 e0	 push	 DWORD PTR __Loc$3[ebp+4]
  000be	ff 75 dc	 push	 DWORD PTR __Loc$3[ebp]
  000c1	e8 00 00 00 00	 call	 ?_Insert_node@?$_Tree_val@U?$_Tree_simple_types@U?$pair@$$CBHPAVCWindow@UI@@@std@@@std@@@std@@QAEPAU?$_Tree_node@U?$pair@$$CBHPAVCWindow@UI@@@std@@PAX@2@U?$_Tree_id@PAU?$_Tree_node@U?$pair@$$CBHPAVCWindow@UI@@@std@@PAX@std@@@2@QAU32@@Z ; std::_Tree_val<std::_Tree_simple_types<std::pair<int const ,UI::CWindow *> > >::_Insert_node
; File C:\Program Files (x86)\Microsoft Visual Studio\2019\Community\VC\Tools\MSVC\14.27.29110\include\utility

; 192  :         : first(_STD forward<_Other1>(_Val1)), second(_STD forward<_Other2>(_Val2)) {}

  000c6	8b c8		 mov	 ecx, eax
  000c8	b2 01		 mov	 dl, 1
$LN61@insert:
  000ca	8b 45 08	 mov	 eax, DWORD PTR ___$ReturnUdt$[ebp]
  000cd	89 08		 mov	 DWORD PTR [eax], ecx
  000cf	88 50 04	 mov	 BYTE PTR [eax+4], dl
; File C:\Program Files (x86)\Microsoft Visual Studio\2019\Community\VC\Tools\MSVC\14.27.29110\include\map

; 166  :     }

  000d2	8b 4d f4	 mov	 ecx, DWORD PTR __$EHRec$[ebp]
  000d5	64 89 0d 00 00
	00 00		 mov	 DWORD PTR fs:0, ecx
  000dc	59		 pop	 ecx
  000dd	5f		 pop	 edi
  000de	5e		 pop	 esi
  000df	5b		 pop	 ebx
  000e0	8b e5		 mov	 esp, ebp
  000e2	5d		 pop	 ebp
  000e3	c2 08 00	 ret	 8
$LN78@insert:
; File C:\Program Files (x86)\Microsoft Visual Studio\2019\Community\VC\Tools\MSVC\14.27.29110\include\xtree

; 1720 :             _Throw_tree_length_error();

  000e6	e8 00 00 00 00	 call	 ?_Throw_tree_length_error@std@@YAXXZ ; std::_Throw_tree_length_error
$LN76@insert:
  000eb	cc		 int	 3
_TEXT	ENDS
;	COMDAT text$x
text$x	SEGMENT
__unwindfunclet$??$insert@U?$pair@HPAVCWindow@UI@@@std@@$0A@@?$map@HPAVCWindow@UI@@U?$less@H@std@@V?$allocator@U?$pair@$$CBHPAVCWindow@UI@@@std@@@4@@std@@QAE?AU?$pair@V?$_Tree_iterator@V?$_Tree_val@U?$_Tree_simple_types@U?$pair@$$CBHPAVCWindow@UI@@@std@@@std@@@std@@@std@@_N@1@$$QAU?$pair@HPAVCWindow@UI@@@1@@Z$2:
  00000	8d 4d ec	 lea	 ecx, DWORD PTR $T5[ebp]
  00003	e9 00 00 00 00	 jmp	 ??1?$_Alloc_construct_ptr@V?$allocator@U?$_Tree_node@U?$pair@$$CBHPAVCWindow@UI@@@std@@PAX@std@@@std@@@std@@QAE@XZ ; std::_Alloc_construct_ptr<std::allocator<std::_Tree_node<std::pair<int const ,UI::CWindow *>,void *> > >::~_Alloc_construct_ptr<std::allocator<std::_Tree_node<std::pair<int const ,UI::CWindow *>,void *> > >
  00008	cc		 int	 3
  00009	cc		 int	 3
  0000a	cc		 int	 3
  0000b	cc		 int	 3
  0000c	cc		 int	 3
__ehhandler$??$insert@U?$pair@HPAVCWindow@UI@@@std@@$0A@@?$map@HPAVCWindow@UI@@U?$less@H@std@@V?$allocator@U?$pair@$$CBHPAVCWindow@UI@@@std@@@4@@std@@QAE?AU?$pair@V?$_Tree_iterator@V?$_Tree_val@U?$_Tree_simple_types@U?$pair@$$CBHPAVCWindow@UI@@@std@@@std@@@std@@@std@@_N@1@$$QAU?$pair@HPAVCWindow@UI@@@1@@Z:
  0000d	90		 npad	 1
  0000e	90		 npad	 1
  0000f	8b 54 24 08	 mov	 edx, DWORD PTR [esp+8]
  00013	8d 42 0c	 lea	 eax, DWORD PTR [edx+12]
  00016	8b 4a d8	 mov	 ecx, DWORD PTR [edx-40]
  00019	33 c8		 xor	 ecx, eax
  0001b	e8 00 00 00 00	 call	 @__security_check_cookie@4
  00020	b8 00 00 00 00	 mov	 eax, OFFSET __ehfuncinfo$??$insert@U?$pair@HPAVCWindow@UI@@@std@@$0A@@?$map@HPAVCWindow@UI@@U?$less@H@std@@V?$allocator@U?$pair@$$CBHPAVCWindow@UI@@@std@@@4@@std@@QAE?AU?$pair@V?$_Tree_iterator@V?$_Tree_val@U?$_Tree_simple_types@U?$pair@$$CBHPAVCWindow@UI@@@std@@@std@@@std@@@std@@_N@1@$$QAU?$pair@HPAVCWindow@UI@@@1@@Z
  00025	e9 00 00 00 00	 jmp	 ___CxxFrameHandler3
text$x	ENDS
??$insert@U?$pair@HPAVCWindow@UI@@@std@@$0A@@?$map@HPAVCWindow@UI@@U?$less@H@std@@V?$allocator@U?$pair@$$CBHPAVCWindow@UI@@@std@@@4@@std@@QAE?AU?$pair@V?$_Tree_iterator@V?$_Tree_val@U?$_Tree_simple_types@U?$pair@$$CBHPAVCWindow@UI@@@std@@@std@@@std@@@std@@_N@1@$$QAU?$pair@HPAVCWindow@UI@@@1@@Z ENDP ; std::map<int,UI::CWindow *,std::less<int>,std::allocator<std::pair<int const ,UI::CWindow *> > >::insert<std::pair<int,UI::CWindow *>,0>
; Function compile flags: /Ogtp
; File C:\Program Files (x86)\Microsoft Visual Studio\2019\Community\VC\Tools\MSVC\14.27.29110\include\xstring
; File C:\Program Files (x86)\Microsoft Visual Studio\2019\Community\VC\Tools\MSVC\14.27.29110\include\xmemory
; File C:\Program Files (x86)\Microsoft Visual Studio\2019\Community\VC\Tools\MSVC\14.27.29110\include\xstring
;	COMDAT ??__FstrPickWindowName@?P@??RunMouseMove@CWindowManager@UI@@QAEXJJ@Z@YAXXZ
text$yd	SEGMENT
??__FstrPickWindowName@?P@??RunMouseMove@CWindowManager@UI@@QAEXJJ@Z@YAXXZ PROC ; `UI::CWindowManager::RunMouseMove'::`15'::`dynamic atexit destructor for 'strPickWindowName'', COMDAT

; 2153 :         return _BUF_SIZE <= _Myres;

  00000	83 3d 14 00 00
	00 10		 cmp	 DWORD PTR ?strPickWindowName@?P@??RunMouseMove@CWindowManager@UI@@QAEXJJ@Z@4V?$basic_string@DU?$char_traits@D@std@@V?$allocator@D@2@@std@@A+20, 16 ; 00000010H

; 4301 :         if (_Mypair._Myval2._Large_string_engaged()) {

  00007	72 22		 jb	 SHORT $LN7@dynamic

; 4302 :             const pointer _Ptr = _Mypair._Myval2._Bx._Ptr;

  00009	56		 push	 esi
  0000a	8b 35 00 00 00
	00		 mov	 esi, DWORD PTR ?strPickWindowName@?P@??RunMouseMove@CWindowManager@UI@@QAEXJJ@Z@4V?$basic_string@DU?$char_traits@D@std@@V?$allocator@D@2@@std@@A

; 4303 :             auto& _Al          = _Getal();
; 4304 :             _Destroy_in_place(_Mypair._Myval2._Bx._Ptr);

  00010	68 00 00 00 00	 push	 OFFSET ?strPickWindowName@?P@??RunMouseMove@CWindowManager@UI@@QAEXJJ@Z@4V?$basic_string@DU?$char_traits@D@std@@V?$allocator@D@2@@std@@A
  00015	e8 00 00 00 00	 call	 ??$_Destroy_in_place@PAD@std@@YAXAAPAD@Z ; std::_Destroy_in_place<char *>

; 4305 :             _Al.deallocate(_Ptr, _Mypair._Myval2._Myres + 1);

  0001a	a1 14 00 00 00	 mov	 eax, DWORD PTR ?strPickWindowName@?P@??RunMouseMove@CWindowManager@UI@@QAEXJJ@Z@4V?$basic_string@DU?$char_traits@D@std@@V?$allocator@D@2@@std@@A+20
  0001f	40		 inc	 eax
; File C:\Program Files (x86)\Microsoft Visual Studio\2019\Community\VC\Tools\MSVC\14.27.29110\include\xmemory

; 803  :         _Deallocate<_New_alignof<_Ty>>(_Ptr, sizeof(_Ty) * _Count);

  00020	50		 push	 eax
  00021	56		 push	 esi
  00022	e8 00 00 00 00	 call	 ??$_Deallocate@$07$0A@@std@@YAXPAXI@Z ; std::_Deallocate<8,0>
  00027	83 c4 0c	 add	 esp, 12			; 0000000cH
  0002a	5e		 pop	 esi
$LN7@dynamic:
; File C:\Program Files (x86)\Microsoft Visual Studio\2019\Community\VC\Tools\MSVC\14.27.29110\include\xstring

; 4308 :         _Mypair._Myval2._Mysize = 0;

  0002b	c7 05 10 00 00
	00 00 00 00 00	 mov	 DWORD PTR ?strPickWindowName@?P@??RunMouseMove@CWindowManager@UI@@QAEXJJ@Z@4V?$basic_string@DU?$char_traits@D@std@@V?$allocator@D@2@@std@@A+16, 0

; 4309 :         _Mypair._Myval2._Myres  = _BUF_SIZE - 1;

  00035	c7 05 14 00 00
	00 0f 00 00 00	 mov	 DWORD PTR ?strPickWindowName@?P@??RunMouseMove@CWindowManager@UI@@QAEXJJ@Z@4V?$basic_string@DU?$char_traits@D@std@@V?$allocator@D@2@@std@@A+20, 15 ; 0000000fH

; 4310 :         // the _Traits::assign is last so the codegen doesn't think the char write can alias this
; 4311 :         _Traits::assign(_Mypair._Myval2._Bx._Buf[0], _Elem());

  0003f	c6 05 00 00 00
	00 00		 mov	 BYTE PTR ?strPickWindowName@?P@??RunMouseMove@CWindowManager@UI@@QAEXJJ@Z@4V?$basic_string@DU?$char_traits@D@std@@V?$allocator@D@2@@std@@A, 0
  00046	c3		 ret	 0
??__FstrPickWindowName@?P@??RunMouseMove@CWindowManager@UI@@QAEXJJ@Z@YAXXZ ENDP ; `UI::CWindowManager::RunMouseMove'::`15'::`dynamic atexit destructor for 'strPickWindowName''
text$yd	ENDS
; Function compile flags: /Ogtp
; File C:\Program Files (x86)\Microsoft Visual Studio\2019\Community\VC\Tools\MSVC\14.27.29110\include\xtree
;	COMDAT ??E?$_Tree_unchecked_const_iterator@V?$_Tree_val@U?$_Tree_simple_types@U?$pair@$$CBHPAVCWindow@UI@@@std@@@std@@@std@@U_Iterator_base0@2@@std@@QAEAAV01@XZ
_TEXT	SEGMENT
??E?$_Tree_unchecked_const_iterator@V?$_Tree_val@U?$_Tree_simple_types@U?$pair@$$CBHPAVCWindow@UI@@@std@@@std@@@std@@U_Iterator_base0@2@@std@@QAEAAV01@XZ PROC ; std::_Tree_unchecked_const_iterator<std::_Tree_val<std::_Tree_simple_types<std::pair<int const ,UI::CWindow *> > >,std::_Iterator_base0>::operator++, COMDAT
; _this$ = ecx

; 51   :     _Tree_unchecked_const_iterator& operator++() {

  00000	56		 push	 esi
  00001	8b f1		 mov	 esi, ecx
  00003	57		 push	 edi

; 52   :         if (_Ptr->_Right->_Isnil) { // climb looking for right subtree

  00004	8b 16		 mov	 edx, DWORD PTR [esi]
  00006	8b 7a 08	 mov	 edi, DWORD PTR [edx+8]
  00009	80 7f 0d 00	 cmp	 BYTE PTR [edi+13], 0
  0000d	74 22		 je	 SHORT $LN4@operator

; 53   :             _Nodeptr _Pnode;
; 54   :             while (!(_Pnode = _Ptr->_Parent)->_Isnil && _Ptr == _Pnode->_Right) {

  0000f	8b 42 04	 mov	 eax, DWORD PTR [edx+4]
  00012	80 78 0d 00	 cmp	 BYTE PTR [eax+13], 0
  00016	75 12		 jne	 SHORT $LN19@operator
$LL2@operator:
  00018	3b 50 08	 cmp	 edx, DWORD PTR [eax+8]
  0001b	75 0d		 jne	 SHORT $LN19@operator

; 55   :                 _Ptr = _Pnode; // ==> parent while right subtree

  0001d	89 06		 mov	 DWORD PTR [esi], eax
  0001f	8b d0		 mov	 edx, eax
  00021	8b 40 04	 mov	 eax, DWORD PTR [eax+4]
  00024	80 78 0d 00	 cmp	 BYTE PTR [eax+13], 0
  00028	74 ee		 je	 SHORT $LL2@operator
$LN19@operator:

; 56   :             }
; 57   : 
; 58   :             _Ptr = _Pnode; // ==> parent (head if end())
; 59   :         } else {
; 60   :             _Ptr = _Mytree::_Min(_Ptr->_Right); // ==> smallest of right subtree
; 61   :         }
; 62   : 
; 63   :         return *this;

  0002a	89 06		 mov	 DWORD PTR [esi], eax

; 64   :     }

  0002c	8b c6		 mov	 eax, esi
  0002e	5f		 pop	 edi
  0002f	5e		 pop	 esi
  00030	c3		 ret	 0
$LN4@operator:

; 451  :         while (!_Pnode->_Left->_Isnil) {

  00031	8b 0f		 mov	 ecx, DWORD PTR [edi]
  00033	80 79 0d 00	 cmp	 BYTE PTR [ecx+13], 0
  00037	75 13		 jne	 SHORT $LN9@operator
  00039	0f 1f 80 00 00
	00 00		 npad	 7
$LL8@operator:
  00040	8b 01		 mov	 eax, DWORD PTR [ecx]

; 452  :             _Pnode = _Pnode->_Left;

  00042	8b f9		 mov	 edi, ecx
  00044	8b c8		 mov	 ecx, eax
  00046	80 78 0d 00	 cmp	 BYTE PTR [eax+13], 0
  0004a	74 f4		 je	 SHORT $LL8@operator
$LN9@operator:

; 56   :             }
; 57   : 
; 58   :             _Ptr = _Pnode; // ==> parent (head if end())
; 59   :         } else {
; 60   :             _Ptr = _Mytree::_Min(_Ptr->_Right); // ==> smallest of right subtree
; 61   :         }
; 62   : 
; 63   :         return *this;

  0004c	89 3e		 mov	 DWORD PTR [esi], edi

; 64   :     }

  0004e	8b c6		 mov	 eax, esi
  00050	5f		 pop	 edi
  00051	5e		 pop	 esi
  00052	c3		 ret	 0
??E?$_Tree_unchecked_const_iterator@V?$_Tree_val@U?$_Tree_simple_types@U?$pair@$$CBHPAVCWindow@UI@@@std@@@std@@@std@@U_Iterator_base0@2@@std@@QAEAAV01@XZ ENDP ; std::_Tree_unchecked_const_iterator<std::_Tree_val<std::_Tree_simple_types<std::pair<int const ,UI::CWindow *> > >,std::_Iterator_base0>::operator++
_TEXT	ENDS
; Function compile flags: /Ogtp
; File C:\Program Files (x86)\Microsoft Visual Studio\2019\Community\VC\Tools\MSVC\14.27.29110\include\xstring
; File C:\Program Files (x86)\Microsoft Visual Studio\2019\Community\VC\Tools\MSVC\14.27.29110\include\xmemory
; File C:\Program Files (x86)\Microsoft Visual Studio\2019\Community\VC\Tools\MSVC\14.27.29110\include\xstring
;	COMDAT ??1?$pair@$$CBV?$basic_string@DU?$char_traits@D@std@@V?$allocator@D@2@@std@@PAVCWindow@UI@@@std@@QAE@XZ
_TEXT	SEGMENT
??1?$pair@$$CBV?$basic_string@DU?$char_traits@D@std@@V?$allocator@D@2@@std@@PAVCWindow@UI@@@std@@QAE@XZ PROC ; std::pair<std::basic_string<char,std::char_traits<char>,std::allocator<char> > const ,UI::CWindow *>::~pair<std::basic_string<char,std::char_traits<char>,std::allocator<char> > const ,UI::CWindow *>, COMDAT
; _this$ = ecx

; 2153 :         return _BUF_SIZE <= _Myres;

  00000	56		 push	 esi
  00001	8b f1		 mov	 esi, ecx
  00003	8b 46 14	 mov	 eax, DWORD PTR [esi+20]
  00006	83 f8 10	 cmp	 eax, 16			; 00000010H

; 4301 :         if (_Mypair._Myval2._Large_string_engaged()) {

  00009	72 0c		 jb	 SHORT $LN7@pair

; 4302 :             const pointer _Ptr = _Mypair._Myval2._Bx._Ptr;
; 4303 :             auto& _Al          = _Getal();
; 4304 :             _Destroy_in_place(_Mypair._Myval2._Bx._Ptr);
; 4305 :             _Al.deallocate(_Ptr, _Mypair._Myval2._Myres + 1);

  0000b	40		 inc	 eax
; File C:\Program Files (x86)\Microsoft Visual Studio\2019\Community\VC\Tools\MSVC\14.27.29110\include\xmemory

; 803  :         _Deallocate<_New_alignof<_Ty>>(_Ptr, sizeof(_Ty) * _Count);

  0000c	50		 push	 eax
  0000d	ff 36		 push	 DWORD PTR [esi]
  0000f	e8 00 00 00 00	 call	 ??$_Deallocate@$07$0A@@std@@YAXPAXI@Z ; std::_Deallocate<8,0>
  00014	83 c4 08	 add	 esp, 8
$LN7@pair:
; File C:\Program Files (x86)\Microsoft Visual Studio\2019\Community\VC\Tools\MSVC\14.27.29110\include\xstring

; 4308 :         _Mypair._Myval2._Mysize = 0;

  00017	c7 46 10 00 00
	00 00		 mov	 DWORD PTR [esi+16], 0

; 4309 :         _Mypair._Myval2._Myres  = _BUF_SIZE - 1;

  0001e	c7 46 14 0f 00
	00 00		 mov	 DWORD PTR [esi+20], 15	; 0000000fH

; 4310 :         // the _Traits::assign is last so the codegen doesn't think the char write can alias this
; 4311 :         _Traits::assign(_Mypair._Myval2._Bx._Buf[0], _Elem());

  00025	c6 06 00	 mov	 BYTE PTR [esi], 0
  00028	5e		 pop	 esi
  00029	c3		 ret	 0
??1?$pair@$$CBV?$basic_string@DU?$char_traits@D@std@@V?$allocator@D@2@@std@@PAVCWindow@UI@@@std@@QAE@XZ ENDP ; std::pair<std::basic_string<char,std::char_traits<char>,std::allocator<char> > const ,UI::CWindow *>::~pair<std::basic_string<char,std::char_traits<char>,std::allocator<char> > const ,UI::CWindow *>
_TEXT	ENDS
; Function compile flags: /Ogtp
;	COMDAT ??__Fgs_kSet_pkWnd@UI@@YAXXZ
text$yd	SEGMENT
??__Fgs_kSet_pkWnd@UI@@YAXXZ PROC			; UI::`dynamic atexit destructor for 'gs_kSet_pkWnd'', COMDAT
  00000	b9 00 00 00 00	 mov	 ecx, OFFSET ?gs_kSet_pkWnd@UI@@3V?$set@PAVCWindow@UI@@U?$less@PAVCWindow@UI@@@std@@V?$allocator@PAVCWindow@UI@@@4@@std@@A ; UI::gs_kSet_pkWnd
  00005	e9 00 00 00 00	 jmp	 ??1?$_Tree@V?$_Tset_traits@PAVCWindow@UI@@U?$less@PAVCWindow@UI@@@std@@V?$allocator@PAVCWindow@UI@@@4@$0A@@std@@@std@@QAE@XZ ; std::_Tree<std::_Tset_traits<UI::CWindow *,std::less<UI::CWindow *>,std::allocator<UI::CWindow *>,0> >::~_Tree<std::_Tset_traits<UI::CWindow *,std::less<UI::CWindow *>,std::allocator<UI::CWindow *>,0> >
??__Fgs_kSet_pkWnd@UI@@YAXXZ ENDP			; UI::`dynamic atexit destructor for 'gs_kSet_pkWnd''
text$yd	ENDS
; Function compile flags: /Ogtp
; File C:\DS Project\DS Files\Source\ClientSource\Client\eterPythonLib\PythonWindowManager.cpp
; File C:\Program Files (x86)\Microsoft Visual Studio\2019\Community\VC\Tools\MSVC\14.27.29110\include\xmemory
; File C:\Program Files (x86)\Microsoft Visual Studio\2019\Community\VC\Tools\MSVC\14.27.29110\include\xtree
; File C:\DS Project\DS Files\Source\ClientSource\Client\eterPythonLib\PythonWindowManager.cpp
; File C:\Program Files (x86)\Microsoft Visual Studio\2019\Community\VC\Tools\MSVC\14.27.29110\include\xtree
; File C:\DS Project\DS Files\Source\ClientSource\Client\eterPythonLib\PythonWindowManager.cpp
;	COMDAT ??__Egs_kSet_pkWnd@UI@@YAXXZ
text$di	SEGMENT
__Pnode$1 = -4						; size = 4
??__Egs_kSet_pkWnd@UI@@YAXXZ PROC			; UI::`dynamic initializer for 'gs_kSet_pkWnd'', COMDAT

; 21   : 	std::set<CWindow*> gs_kSet_pkWnd;

  00000	55		 push	 ebp
  00001	8b ec		 mov	 ebp, esp
  00003	51		 push	 ecx
; File C:\Program Files (x86)\Microsoft Visual Studio\2019\Community\VC\Tools\MSVC\14.27.29110\include\xmemory

; 807  :         return static_cast<_Ty*>(_Allocate<_New_alignof<_Ty>>(_Get_size_of_n<sizeof(_Ty)>(_Count)));

  00004	6a 14		 push	 20			; 00000014H
  00006	e8 00 00 00 00	 call	 ??$_Allocate@$07U_Default_allocate_traits@std@@$0A@@std@@YAPAXI@Z ; std::_Allocate<8,std::_Default_allocate_traits,0>
; File C:\Program Files (x86)\Microsoft Visual Studio\2019\Community\VC\Tools\MSVC\14.27.29110\include\xtree

; 344  :         _Construct_in_place(_Pnode->_Left, _Pnode);

  0000b	8d 4d fc	 lea	 ecx, DWORD PTR __Pnode$1[ebp]
  0000e	89 45 fc	 mov	 DWORD PTR __Pnode$1[ebp], eax
  00011	51		 push	 ecx
  00012	50		 push	 eax
  00013	e8 00 00 00 00	 call	 ??$_Construct_in_place@PAU?$_Tree_node@PAVCWindow@UI@@PAX@std@@ABQAU12@@std@@YAXAAPAU?$_Tree_node@PAVCWindow@UI@@PAX@0@ABQAU10@@Z ; std::_Construct_in_place<std::_Tree_node<UI::CWindow *,void *> *,std::_Tree_node<UI::CWindow *,void *> * const &>

; 345  :         _Construct_in_place(_Pnode->_Parent, _Pnode);

  00018	8d 45 fc	 lea	 eax, DWORD PTR __Pnode$1[ebp]
  0001b	50		 push	 eax
  0001c	8b 45 fc	 mov	 eax, DWORD PTR __Pnode$1[ebp]
  0001f	83 c0 04	 add	 eax, 4
  00022	50		 push	 eax
  00023	e8 00 00 00 00	 call	 ??$_Construct_in_place@PAU?$_Tree_node@PAVCWindow@UI@@PAX@std@@ABQAU12@@std@@YAXAAPAU?$_Tree_node@PAVCWindow@UI@@PAX@0@ABQAU10@@Z ; std::_Construct_in_place<std::_Tree_node<UI::CWindow *,void *> *,std::_Tree_node<UI::CWindow *,void *> * const &>

; 346  :         _Construct_in_place(_Pnode->_Right, _Pnode);

  00028	8d 45 fc	 lea	 eax, DWORD PTR __Pnode$1[ebp]
  0002b	50		 push	 eax
  0002c	8b 45 fc	 mov	 eax, DWORD PTR __Pnode$1[ebp]
  0002f	83 c0 08	 add	 eax, 8
  00032	50		 push	 eax
  00033	e8 00 00 00 00	 call	 ??$_Construct_in_place@PAU?$_Tree_node@PAVCWindow@UI@@PAX@std@@ABQAU12@@std@@YAXAAPAU?$_Tree_node@PAVCWindow@UI@@PAX@0@ABQAU10@@Z ; std::_Construct_in_place<std::_Tree_node<UI::CWindow *,void *> *,std::_Tree_node<UI::CWindow *,void *> * const &>

; 347  :         _Pnode->_Color = _Black;

  00038	8b 45 fc	 mov	 eax, DWORD PTR __Pnode$1[ebp]
; File C:\DS Project\DS Files\Source\ClientSource\Client\eterPythonLib\PythonWindowManager.cpp

; 21   : 	std::set<CWindow*> gs_kSet_pkWnd;

  0003b	68 00 00 00 00	 push	 OFFSET ??__Fgs_kSet_pkWnd@UI@@YAXXZ ; UI::`dynamic atexit destructor for 'gs_kSet_pkWnd''
; File C:\Program Files (x86)\Microsoft Visual Studio\2019\Community\VC\Tools\MSVC\14.27.29110\include\xtree

; 347  :         _Pnode->_Color = _Black;

  00040	c6 40 0c 01	 mov	 BYTE PTR [eax+12], 1

; 348  :         _Pnode->_Isnil = true;

  00044	8b 45 fc	 mov	 eax, DWORD PTR __Pnode$1[ebp]
  00047	c6 40 0d 01	 mov	 BYTE PTR [eax+13], 1

; 2021 :         _Scary->_Myhead = _Node::_Buyheadnode(_Getal());

  0004b	8b 45 fc	 mov	 eax, DWORD PTR __Pnode$1[ebp]
  0004e	a3 00 00 00 00	 mov	 DWORD PTR ?gs_kSet_pkWnd@UI@@3V?$set@PAVCWindow@UI@@U?$less@PAVCWindow@UI@@@std@@V?$allocator@PAVCWindow@UI@@@4@@std@@A, eax
; File C:\DS Project\DS Files\Source\ClientSource\Client\eterPythonLib\PythonWindowManager.cpp

; 21   : 	std::set<CWindow*> gs_kSet_pkWnd;

  00053	e8 00 00 00 00	 call	 _atexit
  00058	83 c4 20	 add	 esp, 32			; 00000020H
  0005b	8b e5		 mov	 esp, ebp
  0005d	5d		 pop	 ebp
  0005e	c3		 ret	 0
??__Egs_kSet_pkWnd@UI@@YAXXZ ENDP			; UI::`dynamic initializer for 'gs_kSet_pkWnd''
text$di	ENDS
; Function compile flags: /Ogtp
; File C:\Program Files (x86)\Microsoft Visual Studio\2019\Community\VC\Tools\MSVC\14.27.29110\include\xtree
; File C:\Program Files (x86)\Microsoft Visual Studio\2019\Community\VC\Tools\MSVC\14.27.29110\include\utility
; File C:\Program Files (x86)\Microsoft Visual Studio\2019\Community\VC\Tools\MSVC\14.27.29110\include\xmemory
; File C:\Program Files (x86)\Microsoft Visual Studio\2019\Community\VC\Tools\MSVC\14.27.29110\include\xtree
; File C:\Program Files (x86)\Microsoft Visual Studio\2019\Community\VC\Tools\MSVC\14.27.29110\include\xmemory
; File C:\Program Files (x86)\Microsoft Visual Studio\2019\Community\VC\Tools\MSVC\14.27.29110\include\xtree
;	COMDAT ??1?$_Tree@V?$_Tset_traits@PAVCWindow@UI@@U?$less@PAVCWindow@UI@@@std@@V?$allocator@PAVCWindow@UI@@@4@$0A@@std@@@std@@QAE@XZ
_TEXT	SEGMENT
??1?$_Tree@V?$_Tset_traits@PAVCWindow@UI@@U?$less@PAVCWindow@UI@@@std@@V?$allocator@PAVCWindow@UI@@@4@$0A@@std@@@std@@QAE@XZ PROC ; std::_Tree<std::_Tset_traits<UI::CWindow *,std::less<UI::CWindow *>,std::allocator<UI::CWindow *>,0> >::~_Tree<std::_Tset_traits<UI::CWindow *,std::less<UI::CWindow *>,std::allocator<UI::CWindow *>,0> >, COMDAT
; _this$ = ecx

; 1189 :     ~_Tree() noexcept {

  00000	56		 push	 esi
  00001	57		 push	 edi
  00002	8b f9		 mov	 edi, ecx

; 752  :         _Erase_tree(_Al, _Myhead->_Parent);

  00004	8b 07		 mov	 eax, DWORD PTR [edi]
  00006	8b 70 04	 mov	 esi, DWORD PTR [eax+4]

; 743  :         while (!_Rootnode->_Isnil) { // free subtrees, then node

  00009	80 7e 0d 00	 cmp	 BYTE PTR [esi+13], 0
  0000d	75 23		 jne	 SHORT $LN7@Tree
  0000f	90		 npad	 1
$LL6@Tree:

; 744  :             _Erase_tree(_Al, _Rootnode->_Right);

  00010	ff 76 08	 push	 DWORD PTR [esi+8]
  00013	8b cf		 mov	 ecx, edi
  00015	57		 push	 edi
  00016	e8 00 00 00 00	 call	 ??$_Erase_tree@V?$allocator@U?$_Tree_node@PAVCWindow@UI@@PAX@std@@@std@@@?$_Tree_val@U?$_Tree_simple_types@PAVCWindow@UI@@@std@@@std@@QAEXAAV?$allocator@U?$_Tree_node@PAVCWindow@UI@@PAX@std@@@1@PAU?$_Tree_node@PAVCWindow@UI@@PAX@1@@Z ; std::_Tree_val<std::_Tree_simple_types<UI::CWindow *> >::_Erase_tree<std::allocator<std::_Tree_node<UI::CWindow *,void *> > >
; File C:\Program Files (x86)\Microsoft Visual Studio\2019\Community\VC\Tools\MSVC\14.27.29110\include\utility

; 599  :     _Ty _Old_val = static_cast<_Ty&&>(_Val);

  0001b	8b c6		 mov	 eax, esi

; 600  :     _Val         = static_cast<_Other&&>(_New_val);

  0001d	8b 36		 mov	 esi, DWORD PTR [esi]
; File C:\Program Files (x86)\Microsoft Visual Studio\2019\Community\VC\Tools\MSVC\14.27.29110\include\xmemory

; 689  :         _Deallocate<_New_alignof<value_type>>(_Ptr, sizeof(value_type) * _Count);

  0001f	6a 14		 push	 20			; 00000014H
  00021	50		 push	 eax
  00022	e8 00 00 00 00	 call	 ??$_Deallocate@$07$0A@@std@@YAXPAXI@Z ; std::_Deallocate<8,0>
  00027	83 c4 08	 add	 esp, 8
; File C:\Program Files (x86)\Microsoft Visual Studio\2019\Community\VC\Tools\MSVC\14.27.29110\include\xtree

; 743  :         while (!_Rootnode->_Isnil) { // free subtrees, then node

  0002a	80 7e 0d 00	 cmp	 BYTE PTR [esi+13], 0
  0002e	74 e0		 je	 SHORT $LL6@Tree
  00030	8b 07		 mov	 eax, DWORD PTR [edi]
$LN7@Tree:
; File C:\Program Files (x86)\Microsoft Visual Studio\2019\Community\VC\Tools\MSVC\14.27.29110\include\xmemory

; 689  :         _Deallocate<_New_alignof<value_type>>(_Ptr, sizeof(value_type) * _Count);

  00032	6a 14		 push	 20			; 00000014H
  00034	50		 push	 eax
  00035	e8 00 00 00 00	 call	 ??$_Deallocate@$07$0A@@std@@YAXPAXI@Z ; std::_Deallocate<8,0>
  0003a	83 c4 08	 add	 esp, 8
  0003d	5f		 pop	 edi
  0003e	5e		 pop	 esi
; File C:\Program Files (x86)\Microsoft Visual Studio\2019\Community\VC\Tools\MSVC\14.27.29110\include\xtree

; 1196 :     }

  0003f	c3		 ret	 0
??1?$_Tree@V?$_Tset_traits@PAVCWindow@UI@@U?$less@PAVCWindow@UI@@@std@@V?$allocator@PAVCWindow@UI@@@4@$0A@@std@@@std@@QAE@XZ ENDP ; std::_Tree<std::_Tset_traits<UI::CWindow *,std::less<UI::CWindow *>,std::allocator<UI::CWindow *>,0> >::~_Tree<std::_Tset_traits<UI::CWindow *,std::less<UI::CWindow *>,std::allocator<UI::CWindow *>,0> >
_TEXT	ENDS
; Function compile flags: /Ogtp
; File C:\DS Project\DS Files\Source\ClientSource\Client\eterPythonLib\PythonWindow.h
;	COMDAT ??_GCLayer@UI@@UAEPAXI@Z
_TEXT	SEGMENT
___flags$ = 8						; size = 4
??_GCLayer@UI@@UAEPAXI@Z PROC				; UI::CLayer::`scalar deleting destructor', COMDAT
; _this$ = ecx
  00000	55		 push	 ebp
  00001	8b ec		 mov	 ebp, esp

; 203  : 			virtual ~CLayer() {}

  00003	56		 push	 esi
  00004	8b f1		 mov	 esi, ecx
  00006	c7 06 00 00 00
	00		 mov	 DWORD PTR [esi], OFFSET ??_7CLayer@UI@@6B@
  0000c	e8 00 00 00 00	 call	 ??1CWindow@UI@@UAE@XZ	; UI::CWindow::~CWindow
  00011	f6 45 08 01	 test	 BYTE PTR ___flags$[ebp], 1
  00015	74 0b		 je	 SHORT $LN7@scalar
  00017	6a 7c		 push	 124			; 0000007cH
  00019	56		 push	 esi
  0001a	e8 00 00 00 00	 call	 ??3@YAXPAXI@Z		; operator delete
  0001f	83 c4 08	 add	 esp, 8
$LN7@scalar:
  00022	8b c6		 mov	 eax, esi
  00024	5e		 pop	 esi
  00025	5d		 pop	 ebp
  00026	c2 04 00	 ret	 4
??_GCLayer@UI@@UAEPAXI@Z ENDP				; UI::CLayer::`scalar deleting destructor'
_TEXT	ENDS
; Function compile flags: /Ogtp
; File C:\DS Project\DS Files\Source\ClientSource\Client\eterPythonLib\PythonWindow.h
;	COMDAT ?IsWindow@CLayer@UI@@UAEHXZ
_TEXT	SEGMENT
?IsWindow@CLayer@UI@@UAEHXZ PROC			; UI::CLayer::IsWindow, COMDAT
; _this$ = ecx

; 205  : 			BOOL IsWindow() { return FALSE; }

  00000	33 c0		 xor	 eax, eax
  00002	c3		 ret	 0
?IsWindow@CLayer@UI@@UAEHXZ ENDP			; UI::CLayer::IsWindow
_TEXT	ENDS
; Function compile flags: /Ogtp
; File C:\DS Project\DS Files\Source\ClientSource\Client\eterPythonLib\PythonWindow.h
;	COMDAT ??1CLayer@UI@@UAE@XZ
_TEXT	SEGMENT
??1CLayer@UI@@UAE@XZ PROC				; UI::CLayer::~CLayer, COMDAT
; _this$ = ecx

; 203  : 			virtual ~CLayer() {}

  00000	c7 01 00 00 00
	00		 mov	 DWORD PTR [ecx], OFFSET ??_7CLayer@UI@@6B@
  00006	e9 00 00 00 00	 jmp	 ??1CWindow@UI@@UAE@XZ	; UI::CWindow::~CWindow
??1CLayer@UI@@UAE@XZ ENDP				; UI::CLayer::~CLayer
_TEXT	ENDS
; Function compile flags: /Ogtp
; File C:\DS Project\DS Files\Source\ClientSource\Client\eterPythonLib\PythonWindow.h
;	COMDAT ?SetColor@CWindow@UI@@UAEXK@Z
_TEXT	SEGMENT
_dwColor$ = 8						; size = 4
?SetColor@CWindow@UI@@UAEXK@Z PROC			; UI::CWindow::SetColor, COMDAT
; _this$ = ecx

; 159  : 			virtual void	SetColor(DWORD dwColor){}

  00000	c2 04 00	 ret	 4
?SetColor@CWindow@UI@@UAEXK@Z ENDP			; UI::CWindow::SetColor
_TEXT	ENDS
; Function compile flags: /Ogtp
; File C:\DS Project\DS Files\Source\ClientSource\Client\eterPythonLib\PythonWindow.h
;	COMDAT ?OnChangePosition@CWindow@UI@@UAEXXZ
_TEXT	SEGMENT
?OnChangePosition@CWindow@UI@@UAEXXZ PROC		; UI::CWindow::OnChangePosition, COMDAT
; _this$ = ecx

; 105  : 			virtual void	OnChangePosition(){}

  00000	c2 00 00	 ret	 0
?OnChangePosition@CWindow@UI@@UAEXXZ ENDP		; UI::CWindow::OnChangePosition
_TEXT	ENDS
; Function compile flags: /Ogtp
; File C:\Program Files (x86)\Microsoft Visual Studio\2019\Community\VC\Tools\MSVC\14.27.29110\include\xmemory
;	COMDAT ??$_Allocate_manually_vector_aligned@U_Default_allocate_traits@std@@@std@@YAPAXI@Z
_TEXT	SEGMENT
__Bytes$ = 8						; size = 4
??$_Allocate_manually_vector_aligned@U_Default_allocate_traits@std@@@std@@YAPAXI@Z PROC ; std::_Allocate_manually_vector_aligned<std::_Default_allocate_traits>, COMDAT

; 113  : __declspec(allocator) void* _Allocate_manually_vector_aligned(const size_t _Bytes) {

  00000	55		 push	 ebp
  00001	8b ec		 mov	 ebp, esp

; 114  :     // allocate _Bytes manually aligned to at least _Big_allocation_alignment
; 115  :     const size_t _Block_size = _Non_user_size + _Bytes;

  00003	8b 45 08	 mov	 eax, DWORD PTR __Bytes$[ebp]
  00006	8d 48 23	 lea	 ecx, DWORD PTR [eax+35]

; 116  :     if (_Block_size <= _Bytes) {

  00009	3b c8		 cmp	 ecx, eax
  0000b	0f 86 00 00 00
	00		 jbe	 ?_Throw_bad_array_new_length@std@@YAXXZ ; std::_Throw_bad_array_new_length

; 77   :         return ::operator new(_Bytes);

  00011	51		 push	 ecx
  00012	e8 00 00 00 00	 call	 ??2@YAPAXI@Z		; operator new

; 117  :         _Throw_bad_array_new_length(); // add overflow
; 118  :     }
; 119  : 
; 120  :     const uintptr_t _Ptr_container = reinterpret_cast<uintptr_t>(_Traits::_Allocate(_Block_size));

  00017	8b c8		 mov	 ecx, eax

; 77   :         return ::operator new(_Bytes);

  00019	83 c4 04	 add	 esp, 4

; 121  :     _STL_VERIFY(_Ptr_container != 0, "invalid argument"); // validate even in release since we're doing p[-1]

  0001c	85 c9		 test	 ecx, ecx
  0001e	74 0b		 je	 SHORT $LN7@Allocate_m

; 122  :     void* const _Ptr = reinterpret_cast<void*>((_Ptr_container + _Non_user_size) & ~(_Big_allocation_alignment - 1));

  00020	8d 41 23	 lea	 eax, DWORD PTR [ecx+35]
  00023	83 e0 e0	 and	 eax, -32		; ffffffe0H

; 123  :     static_cast<uintptr_t*>(_Ptr)[-1] = _Ptr_container;

  00026	89 48 fc	 mov	 DWORD PTR [eax-4], ecx

; 124  : 
; 125  : #ifdef _DEBUG
; 126  :     static_cast<uintptr_t*>(_Ptr)[-2] = _Big_allocation_sentinel;
; 127  : #endif // _DEBUG
; 128  :     return _Ptr;
; 129  : }

  00029	5d		 pop	 ebp
  0002a	c3		 ret	 0
$LN7@Allocate_m:

; 121  :     _STL_VERIFY(_Ptr_container != 0, "invalid argument"); // validate even in release since we're doing p[-1]

  0002b	e9 00 00 00 00	 jmp	 __invalid_parameter_noinfo_noreturn
??$_Allocate_manually_vector_aligned@U_Default_allocate_traits@std@@@std@@YAPAXI@Z ENDP ; std::_Allocate_manually_vector_aligned<std::_Default_allocate_traits>
_TEXT	ENDS
; Function compile flags: /Ogtp
; File C:\Program Files (x86)\Microsoft Visual Studio\2019\Community\VC\Tools\MSVC\14.27.29110\include\xmemory
;	COMDAT ??$_Allocate@$07U_Default_allocate_traits@std@@$0A@@std@@YAPAXI@Z
_TEXT	SEGMENT
__Bytes$ = 8						; size = 4
??$_Allocate@$07U_Default_allocate_traits@std@@$0A@@std@@YAPAXI@Z PROC ; std::_Allocate<8,std::_Default_allocate_traits,0>, COMDAT

; 197  : __declspec(allocator) void* _Allocate(const size_t _Bytes) {

  00000	55		 push	 ebp
  00001	8b ec		 mov	 ebp, esp

; 198  :     // allocate _Bytes when !_HAS_ALIGNED_NEW || _Align <= __STDCPP_DEFAULT_NEW_ALIGNMENT__
; 199  : #if defined(_M_IX86) || defined(_M_X64)
; 200  :     if (_Bytes >= _Big_allocation_threshold) { // boost the alignment of big allocations to help autovectorization

  00003	8b 45 08	 mov	 eax, DWORD PTR __Bytes$[ebp]
  00006	3d 00 10 00 00	 cmp	 eax, 4096		; 00001000H
  0000b	72 09		 jb	 SHORT $LN2@Allocate

; 201  :         return _Allocate_manually_vector_aligned<_Traits>(_Bytes);

  0000d	89 45 08	 mov	 DWORD PTR __Bytes$[ebp], eax

; 210  : }

  00010	5d		 pop	 ebp

; 201  :         return _Allocate_manually_vector_aligned<_Traits>(_Bytes);

  00011	e9 00 00 00 00	 jmp	 ??$_Allocate_manually_vector_aligned@U_Default_allocate_traits@std@@@std@@YAPAXI@Z ; std::_Allocate_manually_vector_aligned<std::_Default_allocate_traits>
$LN2@Allocate:

; 202  :     }
; 203  : #endif // defined(_M_IX86) || defined(_M_X64)
; 204  : 
; 205  :     if (_Bytes != 0) {

  00016	85 c0		 test	 eax, eax
  00018	74 09		 je	 SHORT $LN3@Allocate

; 77   :         return ::operator new(_Bytes);

  0001a	89 45 08	 mov	 DWORD PTR __Bytes$[ebp], eax

; 210  : }

  0001d	5d		 pop	 ebp

; 77   :         return ::operator new(_Bytes);

  0001e	e9 00 00 00 00	 jmp	 ??2@YAPAXI@Z		; operator new
$LN3@Allocate:

; 206  :         return _Traits::_Allocate(_Bytes);
; 207  :     }
; 208  : 
; 209  :     return nullptr;

  00023	33 c0		 xor	 eax, eax

; 210  : }

  00025	5d		 pop	 ebp
  00026	c3		 ret	 0
??$_Allocate@$07U_Default_allocate_traits@std@@$0A@@std@@YAPAXI@Z ENDP ; std::_Allocate<8,std::_Default_allocate_traits,0>
_TEXT	ENDS
; Function compile flags: /Ogtp
; File C:\Program Files (x86)\Microsoft Visual Studio\2019\Community\VC\Tools\MSVC\14.27.29110\include\xmemory
;	COMDAT ??$_Deallocate@$07$0A@@std@@YAXPAXI@Z
_TEXT	SEGMENT
__Ptr$ = 8						; size = 4
__Bytes$ = 12						; size = 4
??$_Deallocate@$07$0A@@std@@YAXPAXI@Z PROC		; std::_Deallocate<8,0>, COMDAT

; 213  : void _Deallocate(void* _Ptr, size_t _Bytes) noexcept {

  00000	55		 push	 ebp
  00001	8b ec		 mov	 ebp, esp

; 214  :     // deallocate storage allocated by _Allocate when !_HAS_ALIGNED_NEW || _Align <= __STDCPP_DEFAULT_NEW_ALIGNMENT__
; 215  : #if defined(_M_IX86) || defined(_M_X64)
; 216  :     if (_Bytes >= _Big_allocation_threshold) { // boost the alignment of big allocations to help autovectorization

  00003	8b 4d 0c	 mov	 ecx, DWORD PTR __Bytes$[ebp]
  00006	81 f9 00 10 00
	00		 cmp	 ecx, 4096		; 00001000H
  0000c	72 18		 jb	 SHORT $LN15@Deallocate

; 137  :     const uintptr_t _Ptr_container   = _Ptr_user[-1];

  0000e	8b 45 08	 mov	 eax, DWORD PTR __Ptr$[ebp]
  00011	83 c1 23	 add	 ecx, 35			; 00000023H
  00014	8b 50 fc	 mov	 edx, DWORD PTR [eax-4]

; 138  : 
; 139  :     // If the following asserts, it likely means that we are performing
; 140  :     // an aligned delete on memory coming from an unaligned allocation.
; 141  :     _STL_ASSERT(_Ptr_user[-2] == _Big_allocation_sentinel, "invalid argument");
; 142  : 
; 143  :     // Extra paranoia on aligned allocation/deallocation; ensure _Ptr_container is
; 144  :     // in range [_Min_back_shift, _Non_user_size]
; 145  : #ifdef _DEBUG
; 146  :     constexpr uintptr_t _Min_back_shift = 2 * sizeof(void*);
; 147  : #else // ^^^ _DEBUG ^^^ // vvv !_DEBUG vvv
; 148  :     constexpr uintptr_t _Min_back_shift = sizeof(void*);
; 149  : #endif // _DEBUG
; 150  :     const uintptr_t _Back_shift = reinterpret_cast<uintptr_t>(_Ptr) - _Ptr_container;

  00017	2b c2		 sub	 eax, edx

; 151  :     _STL_VERIFY(_Back_shift >= _Min_back_shift && _Back_shift <= _Non_user_size, "invalid argument");

  00019	83 c0 fc	 add	 eax, -4			; fffffffcH
  0001c	83 f8 1f	 cmp	 eax, 31			; 0000001fH
  0001f	76 08		 jbe	 SHORT $LN13@Deallocate
  00021	e9 00 00 00 00	 jmp	 __invalid_parameter_noinfo_noreturn
$LN15@Deallocate:

; 214  :     // deallocate storage allocated by _Allocate when !_HAS_ALIGNED_NEW || _Align <= __STDCPP_DEFAULT_NEW_ALIGNMENT__
; 215  : #if defined(_M_IX86) || defined(_M_X64)
; 216  :     if (_Bytes >= _Big_allocation_threshold) { // boost the alignment of big allocations to help autovectorization

  00026	8b 55 08	 mov	 edx, DWORD PTR __Ptr$[ebp]
$LN13@Deallocate:

; 217  :         _Adjust_manually_vector_aligned(_Ptr, _Bytes);
; 218  :     }
; 219  : #endif // defined(_M_IX86) || defined(_M_X64)
; 220  : 
; 221  :     ::operator delete(_Ptr, _Bytes);

  00029	89 4d 0c	 mov	 DWORD PTR __Bytes$[ebp], ecx
  0002c	89 55 08	 mov	 DWORD PTR __Ptr$[ebp], edx

; 222  : }

  0002f	5d		 pop	 ebp

; 217  :         _Adjust_manually_vector_aligned(_Ptr, _Bytes);
; 218  :     }
; 219  : #endif // defined(_M_IX86) || defined(_M_X64)
; 220  : 
; 221  :     ::operator delete(_Ptr, _Bytes);

  00030	e9 00 00 00 00	 jmp	 ??3@YAXPAXI@Z		; operator delete
??$_Deallocate@$07$0A@@std@@YAXPAXI@Z ENDP		; std::_Deallocate<8,0>
_TEXT	ENDS
; Function compile flags: /Ogtp
; File C:\Program Files (x86)\Microsoft Visual Studio\2019\Community\VC\Tools\MSVC\14.27.29110\include\xmemory
;	COMDAT ??$_Construct_in_place@PADABQAD@std@@YAXAAPADABQAD@Z
_TEXT	SEGMENT
__Obj$ = 8						; size = 4
_<_Args_0>$ = 12					; size = 4
??$_Construct_in_place@PADABQAD@std@@YAXAAPADABQAD@Z PROC ; std::_Construct_in_place<char *,char * const &>, COMDAT

; 228  : void _Construct_in_place(_Ty& _Obj, _Types&&... _Args) noexcept(is_nothrow_constructible_v<_Ty, _Types...>) {

  00000	55		 push	 ebp
  00001	8b ec		 mov	 ebp, esp

; 229  :     ::new (const_cast<void*>(static_cast<const volatile void*>(_STD addressof(_Obj))))

  00003	8b 45 0c	 mov	 eax, DWORD PTR _<_Args_0>$[ebp]
  00006	8b 08		 mov	 ecx, DWORD PTR [eax]
  00008	8b 45 08	 mov	 eax, DWORD PTR __Obj$[ebp]
  0000b	89 08		 mov	 DWORD PTR [eax], ecx

; 230  :         _Ty(_STD forward<_Types>(_Args)...);
; 231  : }

  0000d	5d		 pop	 ebp
  0000e	c3		 ret	 0
??$_Construct_in_place@PADABQAD@std@@YAXAAPADABQAD@Z ENDP ; std::_Construct_in_place<char *,char * const &>
_TEXT	ENDS
; Function compile flags: /Ogtp
; File C:\Program Files (x86)\Microsoft Visual Studio\2019\Community\VC\Tools\MSVC\14.27.29110\include\xmemory
;	COMDAT ??$_Destroy_in_place@PAD@std@@YAXAAPAD@Z
_TEXT	SEGMENT
__Obj$ = 8						; size = 4
??$_Destroy_in_place@PAD@std@@YAXAAPAD@Z PROC		; std::_Destroy_in_place<char *>, COMDAT

; 268  :     _Obj.~_Ty();
; 269  : }

  00000	c2 00 00	 ret	 0
??$_Destroy_in_place@PAD@std@@YAXAAPAD@Z ENDP		; std::_Destroy_in_place<char *>
_TEXT	ENDS
; Function compile flags: /Ogtp
; File C:\Program Files (x86)\Microsoft Visual Studio\2019\Community\VC\Tools\MSVC\14.27.29110\include\xstring
; File C:\Program Files (x86)\Microsoft Visual Studio\2019\Community\VC\Tools\MSVC\14.27.29110\include\utility
; File C:\Program Files (x86)\Microsoft Visual Studio\2019\Community\VC\Tools\MSVC\14.27.29110\include\xstring
; File C:\Program Files (x86)\Microsoft Visual Studio\2019\Community\VC\Tools\MSVC\14.27.29110\include\utility
; File C:\Program Files (x86)\Microsoft Visual Studio\2019\Community\VC\Tools\MSVC\14.27.29110\include\xstring
;	COMDAT ??$_Traits_compare@U?$char_traits@D@std@@@std@@YAHQBDI0I@Z
_TEXT	SEGMENT
__Left$ = 8						; size = 4
__Left_size$ = 12					; size = 4
__Right$ = 16						; size = 4
__Right_size$ = 20					; size = 4
??$_Traits_compare@U?$char_traits@D@std@@@std@@YAHQBDI0I@Z PROC ; std::_Traits_compare<std::char_traits<char> >, COMDAT

; 509  :     _In_reads_(_Right_size) const _Traits_ptr_t<_Traits> _Right, const size_t _Right_size) noexcept {

  00000	55		 push	 ebp
  00001	8b ec		 mov	 ebp, esp

; 301  :         return _CSTD memcmp(_First1, _First2, _Count);

  00003	8b 55 08	 mov	 edx, DWORD PTR __Left$[ebp]

; 509  :     _In_reads_(_Right_size) const _Traits_ptr_t<_Traits> _Right, const size_t _Right_size) noexcept {

  00006	53		 push	 ebx
; File C:\Program Files (x86)\Microsoft Visual Studio\2019\Community\VC\Tools\MSVC\14.27.29110\include\utility

; 69   :     return _Right < _Left ? _Right : _Left;

  00007	8b 5d 14	 mov	 ebx, DWORD PTR __Right_size$[ebp]
; File C:\Program Files (x86)\Microsoft Visual Studio\2019\Community\VC\Tools\MSVC\14.27.29110\include\xstring

; 509  :     _In_reads_(_Right_size) const _Traits_ptr_t<_Traits> _Right, const size_t _Right_size) noexcept {

  0000a	56		 push	 esi

; 301  :         return _CSTD memcmp(_First1, _First2, _Count);

  0000b	8b 75 10	 mov	 esi, DWORD PTR __Right$[ebp]

; 509  :     _In_reads_(_Right_size) const _Traits_ptr_t<_Traits> _Right, const size_t _Right_size) noexcept {

  0000e	57		 push	 edi
; File C:\Program Files (x86)\Microsoft Visual Studio\2019\Community\VC\Tools\MSVC\14.27.29110\include\utility

; 69   :     return _Right < _Left ? _Right : _Left;

  0000f	8b 7d 0c	 mov	 edi, DWORD PTR __Left_size$[ebp]
  00012	3b df		 cmp	 ebx, edi
  00014	8b cf		 mov	 ecx, edi
  00016	0f 42 cb	 cmovb	 ecx, ebx
; File C:\Program Files (x86)\Microsoft Visual Studio\2019\Community\VC\Tools\MSVC\14.27.29110\include\xstring

; 301  :         return _CSTD memcmp(_First1, _First2, _Count);

  00019	83 e9 04	 sub	 ecx, 4
  0001c	72 13		 jb	 SHORT $LN12@Traits_com
  0001e	66 90		 npad	 2
$LL13@Traits_com:
  00020	8b 02		 mov	 eax, DWORD PTR [edx]
  00022	3b 06		 cmp	 eax, DWORD PTR [esi]
  00024	75 10		 jne	 SHORT $LN11@Traits_com
  00026	83 c2 04	 add	 edx, 4
  00029	83 c6 04	 add	 esi, 4
  0002c	83 e9 04	 sub	 ecx, 4
  0002f	73 ef		 jae	 SHORT $LL13@Traits_com
$LN12@Traits_com:
  00031	83 f9 fc	 cmp	 ecx, -4			; fffffffcH
  00034	74 34		 je	 SHORT $LN10@Traits_com
$LN11@Traits_com:
  00036	8a 02		 mov	 al, BYTE PTR [edx]
  00038	3a 06		 cmp	 al, BYTE PTR [esi]
  0003a	75 27		 jne	 SHORT $LN14@Traits_com
  0003c	83 f9 fd	 cmp	 ecx, -3			; fffffffdH
  0003f	74 29		 je	 SHORT $LN10@Traits_com
  00041	8a 42 01	 mov	 al, BYTE PTR [edx+1]
  00044	3a 46 01	 cmp	 al, BYTE PTR [esi+1]
  00047	75 1a		 jne	 SHORT $LN14@Traits_com
  00049	83 f9 fe	 cmp	 ecx, -2			; fffffffeH
  0004c	74 1c		 je	 SHORT $LN10@Traits_com
  0004e	8a 42 02	 mov	 al, BYTE PTR [edx+2]
  00051	3a 46 02	 cmp	 al, BYTE PTR [esi+2]
  00054	75 0d		 jne	 SHORT $LN14@Traits_com
  00056	83 f9 ff	 cmp	 ecx, -1
  00059	74 0f		 je	 SHORT $LN10@Traits_com
  0005b	8a 42 03	 mov	 al, BYTE PTR [edx+3]
  0005e	3a 46 03	 cmp	 al, BYTE PTR [esi+3]
  00061	74 07		 je	 SHORT $LN10@Traits_com
$LN14@Traits_com:
  00063	1b c0		 sbb	 eax, eax
  00065	83 c8 01	 or	 eax, 1
  00068	eb 02		 jmp	 SHORT $LN15@Traits_com
$LN10@Traits_com:
  0006a	33 c0		 xor	 eax, eax
$LN15@Traits_com:

; 510  :     // compare [_Left, _Left + _Left_size) to [_Right, _Right + _Right_size) using _Traits
; 511  :     const int _Ans = _Traits::compare(_Left, _Right, (_STD min)(_Left_size, _Right_size));
; 512  : 
; 513  :     if (_Ans != 0) {

  0006c	85 c0		 test	 eax, eax
  0006e	75 10		 jne	 SHORT $LN4@Traits_com

; 514  :         return _Ans;
; 515  :     }
; 516  : 
; 517  :     if (_Left_size < _Right_size) {

  00070	3b df		 cmp	 ebx, edi
  00072	76 08		 jbe	 SHORT $LN16@Traits_com

; 522  :         return 1;
; 523  :     }
; 524  : 
; 525  :     return 0;
; 526  : }

  00074	5f		 pop	 edi
  00075	5e		 pop	 esi
  00076	83 c8 ff	 or	 eax, -1
  00079	5b		 pop	 ebx
  0007a	5d		 pop	 ebp
  0007b	c3		 ret	 0
$LN16@Traits_com:

; 518  :         return -1;
; 519  :     }
; 520  : 
; 521  :     if (_Left_size > _Right_size) {

  0007c	1b c0		 sbb	 eax, eax
  0007e	f7 d8		 neg	 eax
$LN4@Traits_com:

; 522  :         return 1;
; 523  :     }
; 524  : 
; 525  :     return 0;
; 526  : }

  00080	5f		 pop	 edi
  00081	5e		 pop	 esi
  00082	5b		 pop	 ebx
  00083	5d		 pop	 ebp
  00084	c3		 ret	 0
??$_Traits_compare@U?$char_traits@D@std@@@std@@YAHQBDI0I@Z ENDP ; std::_Traits_compare<std::char_traits<char> >
_TEXT	ENDS
; Function compile flags: /Ogtp
; File C:\DS Project\DS Files\Source\ClientSource\Client\eterPythonLib\PythonWindowManager.cpp
;	COMDAT ?BuildEmptyTuple@UI@@YAPAU_object@@XZ
_TEXT	SEGMENT
?BuildEmptyTuple@UI@@YAPAU_object@@XZ PROC		; UI::BuildEmptyTuple, COMDAT

; 17   : 		Py_INCREF(gs_poEmptyTuple);

  00000	a1 00 00 00 00	 mov	 eax, DWORD PTR ?gs_poEmptyTuple@UI@@3PAU_object@@A
  00005	ff 00		 inc	 DWORD PTR [eax]

; 18   : 		return gs_poEmptyTuple;
; 19   : 	}

  00007	c3		 ret	 0
?BuildEmptyTuple@UI@@YAPAU_object@@XZ ENDP		; UI::BuildEmptyTuple
_TEXT	ENDS
; Function compile flags: /Ogtp
;	COMDAT ??_GCWindowManager@UI@@UAEPAXI@Z
_TEXT	SEGMENT
___flags$ = 8						; size = 4
??_GCWindowManager@UI@@UAEPAXI@Z PROC			; UI::CWindowManager::`scalar deleting destructor', COMDAT
; _this$ = ecx
  00000	55		 push	 ebp
  00001	8b ec		 mov	 ebp, esp
  00003	56		 push	 esi
  00004	8b f1		 mov	 esi, ecx
  00006	e8 00 00 00 00	 call	 ??1CWindowManager@UI@@UAE@XZ ; UI::CWindowManager::~CWindowManager
  0000b	f6 45 08 01	 test	 BYTE PTR ___flags$[ebp], 1
  0000f	74 0e		 je	 SHORT $LN4@scalar
  00011	68 a0 00 00 00	 push	 160			; 000000a0H
  00016	56		 push	 esi
  00017	e8 00 00 00 00	 call	 ??3@YAXPAXI@Z		; operator delete
  0001c	83 c4 08	 add	 esp, 8
$LN4@scalar:
  0001f	8b c6		 mov	 eax, esi
  00021	5e		 pop	 esi
  00022	5d		 pop	 ebp
  00023	c2 04 00	 ret	 4
??_GCWindowManager@UI@@UAEPAXI@Z ENDP			; UI::CWindowManager::`scalar deleting destructor'
_TEXT	ENDS
; Function compile flags: /Ogtp
; File C:\Program Files (x86)\Microsoft Visual Studio\2019\Community\VC\Tools\MSVC\14.27.29110\include\xtree
; File C:\Program Files (x86)\Microsoft Visual Studio\2019\Community\VC\Tools\MSVC\14.27.29110\include\xmemory
;	COMDAT ??1?$map@V?$basic_string@DU?$char_traits@D@std@@V?$allocator@D@2@@std@@PAVCWindow@UI@@U?$less@V?$basic_string@DU?$char_traits@D@std@@V?$allocator@D@2@@std@@@2@V?$allocator@U?$pair@$$CBV?$basic_string@DU?$char_traits@D@std@@V?$allocator@D@2@@std@@PAVCWindow@UI@@@std@@@2@@std@@QAE@XZ
_TEXT	SEGMENT
??1?$map@V?$basic_string@DU?$char_traits@D@std@@V?$allocator@D@2@@std@@PAVCWindow@UI@@U?$less@V?$basic_string@DU?$char_traits@D@std@@V?$allocator@D@2@@std@@@2@V?$allocator@U?$pair@$$CBV?$basic_string@DU?$char_traits@D@std@@V?$allocator@D@2@@std@@PAVCWindow@UI@@@std@@@2@@std@@QAE@XZ PROC ; std::map<std::basic_string<char,std::char_traits<char>,std::allocator<char> >,UI::CWindow *,std::less<std::basic_string<char,std::char_traits<char>,std::allocator<char> > >,std::allocator<std::pair<std::basic_string<char,std::char_traits<char>,std::allocator<char> > const ,UI::CWindow *> > >::~map<std::basic_string<char,std::char_traits<char>,std::allocator<char> >,UI::CWindow *,std::less<std::basic_string<char,std::char_traits<char>,std::allocator<char> > >,std::allocator<std::pair<std::basic_string<char,std::char_traits<char>,std::allocator<char> > const ,UI::CWindow *> > >, COMDAT
; _this$ = ecx
; File C:\Program Files (x86)\Microsoft Visual Studio\2019\Community\VC\Tools\MSVC\14.27.29110\include\xtree

; 752  :         _Erase_tree(_Al, _Myhead->_Parent);

  00000	56		 push	 esi
  00001	8b f1		 mov	 esi, ecx
  00003	8b 06		 mov	 eax, DWORD PTR [esi]
  00005	ff 70 04	 push	 DWORD PTR [eax+4]
  00008	56		 push	 esi
  00009	e8 00 00 00 00	 call	 ??$_Erase_tree@V?$allocator@U?$_Tree_node@U?$pair@$$CBV?$basic_string@DU?$char_traits@D@std@@V?$allocator@D@2@@std@@PAVCWindow@UI@@@std@@PAX@std@@@std@@@?$_Tree_val@U?$_Tree_simple_types@U?$pair@$$CBV?$basic_string@DU?$char_traits@D@std@@V?$allocator@D@2@@std@@PAVCWindow@UI@@@std@@@std@@@std@@QAEXAAV?$allocator@U?$_Tree_node@U?$pair@$$CBV?$basic_string@DU?$char_traits@D@std@@V?$allocator@D@2@@std@@PAVCWindow@UI@@@std@@PAX@std@@@1@PAU?$_Tree_node@U?$pair@$$CBV?$basic_string@DU?$char_traits@D@std@@V?$allocator@D@2@@std@@PAVCWindow@UI@@@std@@PAX@1@@Z ; std::_Tree_val<std::_Tree_simple_types<std::pair<std::basic_string<char,std::char_traits<char>,std::allocator<char> > const ,UI::CWindow *> > >::_Erase_tree<std::allocator<std::_Tree_node<std::pair<std::basic_string<char,std::char_traits<char>,std::allocator<char> > const ,UI::CWindow *>,void *> > >
; File C:\Program Files (x86)\Microsoft Visual Studio\2019\Community\VC\Tools\MSVC\14.27.29110\include\xmemory

; 689  :         _Deallocate<_New_alignof<value_type>>(_Ptr, sizeof(value_type) * _Count);

  0000e	6a 2c		 push	 44			; 0000002cH
  00010	ff 36		 push	 DWORD PTR [esi]
  00012	e8 00 00 00 00	 call	 ??$_Deallocate@$07$0A@@std@@YAXPAXI@Z ; std::_Deallocate<8,0>
  00017	83 c4 08	 add	 esp, 8
  0001a	5e		 pop	 esi
  0001b	c3		 ret	 0
??1?$map@V?$basic_string@DU?$char_traits@D@std@@V?$allocator@D@2@@std@@PAVCWindow@UI@@U?$less@V?$basic_string@DU?$char_traits@D@std@@V?$allocator@D@2@@std@@@2@V?$allocator@U?$pair@$$CBV?$basic_string@DU?$char_traits@D@std@@V?$allocator@D@2@@std@@PAVCWindow@UI@@@std@@@2@@std@@QAE@XZ ENDP ; std::map<std::basic_string<char,std::char_traits<char>,std::allocator<char> >,UI::CWindow *,std::less<std::basic_string<char,std::char_traits<char>,std::allocator<char> > >,std::allocator<std::pair<std::basic_string<char,std::char_traits<char>,std::allocator<char> > const ,UI::CWindow *> > >::~map<std::basic_string<char,std::char_traits<char>,std::allocator<char> >,UI::CWindow *,std::less<std::basic_string<char,std::char_traits<char>,std::allocator<char> > >,std::allocator<std::pair<std::basic_string<char,std::char_traits<char>,std::allocator<char> > const ,UI::CWindow *> > >
_TEXT	ENDS
; Function compile flags: /Ogtp
; File C:\Program Files (x86)\Microsoft Visual Studio\2019\Community\VC\Tools\MSVC\14.27.29110\include\map
; File C:\Program Files (x86)\Microsoft Visual Studio\2019\Community\VC\Tools\MSVC\14.27.29110\include\xtree
; File C:\Program Files (x86)\Microsoft Visual Studio\2019\Community\VC\Tools\MSVC\14.27.29110\include\xstddef
; File C:\Program Files (x86)\Microsoft Visual Studio\2019\Community\VC\Tools\MSVC\14.27.29110\include\xtree
; File C:\Program Files (x86)\Microsoft Visual Studio\2019\Community\VC\Tools\MSVC\14.27.29110\include\map
; File C:\Program Files (x86)\Microsoft Visual Studio\2019\Community\VC\Tools\MSVC\14.27.29110\include\xmemory
; File C:\Program Files (x86)\Microsoft Visual Studio\2019\Community\VC\Tools\MSVC\14.27.29110\include\xtree
; File C:\Program Files (x86)\Microsoft Visual Studio\2019\Community\VC\Tools\MSVC\14.27.29110\include\xmemory
; File C:\Program Files (x86)\Microsoft Visual Studio\2019\Community\VC\Tools\MSVC\14.27.29110\include\xtree
; File C:\Program Files (x86)\Microsoft Visual Studio\2019\Community\VC\Tools\MSVC\14.27.29110\include\xmemory
; File C:\DS Project\DS Files\Source\ClientSource\Client\eterPythonLib\PythonWindowManager.cpp
; File C:\Program Files (x86)\Microsoft Visual Studio\2019\Community\VC\Tools\MSVC\14.27.29110\include\xmemory
; File C:\Program Files (x86)\Microsoft Visual Studio\2019\Community\VC\Tools\MSVC\14.27.29110\include\xtree
; File C:\Program Files (x86)\Microsoft Visual Studio\2019\Community\VC\Tools\MSVC\14.27.29110\include\map
; File C:\Program Files (x86)\Microsoft Visual Studio\2019\Community\VC\Tools\MSVC\14.27.29110\include\xtree
; File C:\Program Files (x86)\Microsoft Visual Studio\2019\Community\VC\Tools\MSVC\14.27.29110\include\map
;	COMDAT ??A?$map@V?$basic_string@DU?$char_traits@D@std@@V?$allocator@D@2@@std@@PAVCWindow@UI@@U?$less@V?$basic_string@DU?$char_traits@D@std@@V?$allocator@D@2@@std@@@2@V?$allocator@U?$pair@$$CBV?$basic_string@DU?$char_traits@D@std@@V?$allocator@D@2@@std@@PAVCWindow@UI@@@std@@@2@@std@@QAEAAPAVCWindow@UI@@$$QAV?$basic_string@DU?$char_traits@D@std@@V?$allocator@D@2@@1@@Z
_TEXT	SEGMENT
__Loc$3 = -32						; size = 12
$T4 = -20						; size = 8
__$EHRec$ = -12						; size = 12
__Myhead$ = 8						; size = 4
__Keyval$ = 8						; size = 4
??A?$map@V?$basic_string@DU?$char_traits@D@std@@V?$allocator@D@2@@std@@PAVCWindow@UI@@U?$less@V?$basic_string@DU?$char_traits@D@std@@V?$allocator@D@2@@std@@@2@V?$allocator@U?$pair@$$CBV?$basic_string@DU?$char_traits@D@std@@V?$allocator@D@2@@std@@PAVCWindow@UI@@@std@@@2@@std@@QAEAAPAVCWindow@UI@@$$QAV?$basic_string@DU?$char_traits@D@std@@V?$allocator@D@2@@1@@Z PROC ; std::map<std::basic_string<char,std::char_traits<char>,std::allocator<char> >,UI::CWindow *,std::less<std::basic_string<char,std::char_traits<char>,std::allocator<char> > >,std::allocator<std::pair<std::basic_string<char,std::char_traits<char>,std::allocator<char> > const ,UI::CWindow *> > >::operator[], COMDAT
; _this$ = ecx

; 153  :     mapped_type& operator[](key_type&& _Keyval) { // find element matching _Keyval or insert value-initialized value

  00000	55		 push	 ebp
  00001	8b ec		 mov	 ebp, esp
  00003	6a ff		 push	 -1
  00005	68 00 00 00 00	 push	 __ehhandler$??A?$map@V?$basic_string@DU?$char_traits@D@std@@V?$allocator@D@2@@std@@PAVCWindow@UI@@U?$less@V?$basic_string@DU?$char_traits@D@std@@V?$allocator@D@2@@std@@@2@V?$allocator@U?$pair@$$CBV?$basic_string@DU?$char_traits@D@std@@V?$allocator@D@2@@std@@PAVCWindow@UI@@@std@@@2@@std@@QAEAAPAVCWindow@UI@@$$QAV?$basic_string@DU?$char_traits@D@std@@V?$allocator@D@2@@1@@Z
  0000a	64 a1 00 00 00
	00		 mov	 eax, DWORD PTR fs:0
  00010	50		 push	 eax
  00011	83 ec 14	 sub	 esp, 20			; 00000014H
  00014	53		 push	 ebx
  00015	56		 push	 esi
  00016	57		 push	 edi
  00017	a1 00 00 00 00	 mov	 eax, DWORD PTR ___security_cookie
  0001c	33 c5		 xor	 eax, ebp
  0001e	50		 push	 eax
  0001f	8d 45 f4	 lea	 eax, DWORD PTR __$EHRec$[ebp]
  00022	64 a3 00 00 00
	00		 mov	 DWORD PTR fs:0, eax
  00028	8b f9		 mov	 edi, ecx

; 176  :         const auto _Loc = _Mybase::_Find_lower_bound(_Keyval);

  0002a	8b 5d 08	 mov	 ebx, DWORD PTR __Keyval$[ebp]
  0002d	8d 45 e0	 lea	 eax, DWORD PTR __Loc$3[ebp]
  00030	53		 push	 ebx
  00031	50		 push	 eax
  00032	e8 00 00 00 00	 call	 ??$_Find_lower_bound@V?$basic_string@DU?$char_traits@D@std@@V?$allocator@D@2@@std@@@?$_Tree@V?$_Tmap_traits@V?$basic_string@DU?$char_traits@D@std@@V?$allocator@D@2@@std@@PAVCWindow@UI@@U?$less@V?$basic_string@DU?$char_traits@D@std@@V?$allocator@D@2@@std@@@2@V?$allocator@U?$pair@$$CBV?$basic_string@DU?$char_traits@D@std@@V?$allocator@D@2@@std@@PAVCWindow@UI@@@std@@@2@$0A@@std@@@std@@IBE?AU?$_Tree_find_result@PAU?$_Tree_node@U?$pair@$$CBV?$basic_string@DU?$char_traits@D@std@@V?$allocator@D@2@@std@@PAVCWindow@UI@@@std@@PAX@std@@@1@ABV?$basic_string@DU?$char_traits@D@std@@V?$allocator@D@2@@1@@Z ; std::_Tree<std::_Tmap_traits<std::basic_string<char,std::char_traits<char>,std::allocator<char> >,UI::CWindow *,std::less<std::basic_string<char,std::char_traits<char>,std::allocator<char> > >,std::allocator<std::pair<std::basic_string<char,std::char_traits<char>,std::allocator<char> > const ,UI::CWindow *> >,0> >::_Find_lower_bound<std::basic_string<char,std::char_traits<char>,std::allocator<char> > >
; File C:\Program Files (x86)\Microsoft Visual Studio\2019\Community\VC\Tools\MSVC\14.27.29110\include\xtree

; 1695 :         return !_Bound->_Isnil && !_DEBUG_LT_PRED(_Getcomp(), _Keyval, _Traits::_Kfn(_Bound->_Myval));

  00037	8b 75 e8	 mov	 esi, DWORD PTR __Loc$3[ebp+8]
  0003a	80 7e 0d 00	 cmp	 BYTE PTR [esi+13], 0
  0003e	75 11		 jne	 SHORT $LN4@operator
  00040	8d 46 10	 lea	 eax, DWORD PTR [esi+16]
; File C:\Program Files (x86)\Microsoft Visual Studio\2019\Community\VC\Tools\MSVC\14.27.29110\include\xstddef

; 127  :         return _Left < _Right;

  00043	50		 push	 eax
  00044	53		 push	 ebx
  00045	e8 00 00 00 00	 call	 ??$?MDU?$char_traits@D@std@@V?$allocator@D@1@@std@@YA_NABV?$basic_string@DU?$char_traits@D@std@@V?$allocator@D@2@@0@0@Z ; std::operator<<char,std::char_traits<char>,std::allocator<char> >
  0004a	83 c4 08	 add	 esp, 8
; File C:\Program Files (x86)\Microsoft Visual Studio\2019\Community\VC\Tools\MSVC\14.27.29110\include\xtree

; 1695 :         return !_Bound->_Isnil && !_DEBUG_LT_PRED(_Getcomp(), _Keyval, _Traits::_Kfn(_Bound->_Myval));

  0004d	84 c0		 test	 al, al
  0004f	74 7e		 je	 SHORT $LN3@operator
$LN4@operator:

; 1719 :         if (max_size() == _Get_scary()->_Mysize) {

  00051	81 7f 04 5d 74
	d1 05		 cmp	 DWORD PTR [edi+4], 97612893 ; 05d1745dH
  00058	0f 84 88 00 00
	00		 je	 $LN91@operator
; File C:\Program Files (x86)\Microsoft Visual Studio\2019\Community\VC\Tools\MSVC\14.27.29110\include\map

; 184  :         const auto _Inserted = _Tree_temp_node<_Alnode>(_Mybase::_Getal(), _Scary->_Myhead, piecewise_construct,

  0005e	8b 07		 mov	 eax, DWORD PTR [edi]
  00060	89 45 08	 mov	 DWORD PTR __Myhead$[ebp], eax
; File C:\Program Files (x86)\Microsoft Visual Studio\2019\Community\VC\Tools\MSVC\14.27.29110\include\xmemory

; 1040 :     explicit _Alloc_construct_ptr(_Alloc& _Al_) : _Al(_Al_), _Ptr(nullptr) {}

  00063	89 7d ec	 mov	 DWORD PTR $T4[ebp], edi

; 807  :         return static_cast<_Ty*>(_Allocate<_New_alignof<_Ty>>(_Get_size_of_n<sizeof(_Ty)>(_Count)));

  00066	6a 2c		 push	 44			; 0000002cH
; File C:\Program Files (x86)\Microsoft Visual Studio\2019\Community\VC\Tools\MSVC\14.27.29110\include\xtree

; 784  :     explicit _Tree_temp_node_alloc(_Alnode& _Al_) : _Alloc_construct_ptr<_Alnode>(_Al_) {

  00068	c7 45 fc 00 00
	00 00		 mov	 DWORD PTR __$EHRec$[ebp+8], 0
; File C:\Program Files (x86)\Microsoft Visual Studio\2019\Community\VC\Tools\MSVC\14.27.29110\include\xmemory

; 1047 :         _Ptr = nullptr; // if allocate throws, prevents double-free

  0006f	c7 45 f0 00 00
	00 00		 mov	 DWORD PTR $T4[ebp+4], 0

; 807  :         return static_cast<_Ty*>(_Allocate<_New_alignof<_Ty>>(_Get_size_of_n<sizeof(_Ty)>(_Count)));

  00076	e8 00 00 00 00	 call	 ??$_Allocate@$07U_Default_allocate_traits@std@@$0A@@std@@YAPAXI@Z ; std::_Allocate<8,std::_Default_allocate_traits,0>

; 1048 :         _Ptr = _Al.allocate(1);

  0007b	8b f0		 mov	 esi, eax
; File C:\Program Files (x86)\Microsoft Visual Studio\2019\Community\VC\Tools\MSVC\14.27.29110\include\xtree

; 806  :         _Alnode_traits::construct(this->_Al, _STD addressof(this->_Ptr->_Myval), _STD forward<_Valtys>(_Vals)...);

  0007d	8d 4e 10	 lea	 ecx, DWORD PTR [esi+16]
; File C:\Program Files (x86)\Microsoft Visual Studio\2019\Community\VC\Tools\MSVC\14.27.29110\include\xmemory

; 694  :         ::new (const_cast<void*>(static_cast<const volatile void*>(_Ptr))) _Objty(_STD forward<_Types>(_Args)...);

  00080	51		 push	 ecx
  00081	8b c4		 mov	 eax, esp
; File C:\DS Project\DS Files\Source\ClientSource\Client\eterPythonLib\PythonWindowManager.cpp

  00083	89 18		 mov	 DWORD PTR [eax], ebx
; File C:\Program Files (x86)\Microsoft Visual Studio\2019\Community\VC\Tools\MSVC\14.27.29110\include\xmemory

; 694  :         ::new (const_cast<void*>(static_cast<const volatile void*>(_Ptr))) _Objty(_STD forward<_Types>(_Args)...);

  00085	0f b6 05 00 00
	00 00		 movzx	 eax, BYTE PTR ?piecewise_construct@std@@3Upiecewise_construct_t@1@B
  0008c	50		 push	 eax
  0008d	e8 00 00 00 00	 call	 ??$?0$$QAV?$basic_string@DU?$char_traits@D@std@@V?$allocator@D@2@@std@@$$Z$$V@?$pair@$$CBV?$basic_string@DU?$char_traits@D@std@@V?$allocator@D@2@@std@@PAVCWindow@UI@@@std@@QAE@Upiecewise_construct_t@1@V?$tuple@$$QAV?$basic_string@DU?$char_traits@D@std@@V?$allocator@D@2@@std@@@1@V?$tuple@$$V@1@@Z ; std::pair<std::basic_string<char,std::char_traits<char>,std::allocator<char> > const ,UI::CWindow *>::pair<std::basic_string<char,std::char_traits<char>,std::allocator<char> > const ,UI::CWindow *><std::basic_string<char,std::char_traits<char>,std::allocator<char> > &&>
; File C:\Program Files (x86)\Microsoft Visual Studio\2019\Community\VC\Tools\MSVC\14.27.29110\include\xtree

; 807  :         _Construct_in_place(this->_Ptr->_Left, _Myhead);

  00092	8d 45 08	 lea	 eax, DWORD PTR __Myhead$[ebp]
  00095	50		 push	 eax
  00096	56		 push	 esi
  00097	e8 00 00 00 00	 call	 ??$_Construct_in_place@PAU?$_Tree_node@U?$pair@$$CBV?$basic_string@DU?$char_traits@D@std@@V?$allocator@D@2@@std@@PAVCWindow@UI@@@std@@PAX@std@@AAPAU12@@std@@YAXAAPAU?$_Tree_node@U?$pair@$$CBV?$basic_string@DU?$char_traits@D@std@@V?$allocator@D@2@@std@@PAVCWindow@UI@@@std@@PAX@0@0@Z ; std::_Construct_in_place<std::_Tree_node<std::pair<std::basic_string<char,std::char_traits<char>,std::allocator<char> > const ,UI::CWindow *>,void *> *,std::_Tree_node<std::pair<std::basic_string<char,std::char_traits<char>,std::allocator<char> > const ,UI::CWindow *>,void *> * &>

; 808  :         _Construct_in_place(this->_Ptr->_Parent, _Myhead);

  0009c	8d 45 08	 lea	 eax, DWORD PTR __Myhead$[ebp]
  0009f	50		 push	 eax
  000a0	8d 46 04	 lea	 eax, DWORD PTR [esi+4]
  000a3	50		 push	 eax
  000a4	e8 00 00 00 00	 call	 ??$_Construct_in_place@PAU?$_Tree_node@U?$pair@$$CBV?$basic_string@DU?$char_traits@D@std@@V?$allocator@D@2@@std@@PAVCWindow@UI@@@std@@PAX@std@@AAPAU12@@std@@YAXAAPAU?$_Tree_node@U?$pair@$$CBV?$basic_string@DU?$char_traits@D@std@@V?$allocator@D@2@@std@@PAVCWindow@UI@@@std@@PAX@0@0@Z ; std::_Construct_in_place<std::_Tree_node<std::pair<std::basic_string<char,std::char_traits<char>,std::allocator<char> > const ,UI::CWindow *>,void *> *,std::_Tree_node<std::pair<std::basic_string<char,std::char_traits<char>,std::allocator<char> > const ,UI::CWindow *>,void *> * &>

; 809  :         _Construct_in_place(this->_Ptr->_Right, _Myhead);

  000a9	8d 45 08	 lea	 eax, DWORD PTR __Myhead$[ebp]
  000ac	50		 push	 eax
  000ad	8d 46 08	 lea	 eax, DWORD PTR [esi+8]
  000b0	50		 push	 eax
  000b1	e8 00 00 00 00	 call	 ??$_Construct_in_place@PAU?$_Tree_node@U?$pair@$$CBV?$basic_string@DU?$char_traits@D@std@@V?$allocator@D@2@@std@@PAVCWindow@UI@@@std@@PAX@std@@AAPAU12@@std@@YAXAAPAU?$_Tree_node@U?$pair@$$CBV?$basic_string@DU?$char_traits@D@std@@V?$allocator@D@2@@std@@PAVCWindow@UI@@@std@@PAX@0@0@Z ; std::_Construct_in_place<std::_Tree_node<std::pair<std::basic_string<char,std::char_traits<char>,std::allocator<char> > const ,UI::CWindow *>,void *> *,std::_Tree_node<std::pair<std::basic_string<char,std::char_traits<char>,std::allocator<char> > const ,UI::CWindow *>,void *> * &>
  000b6	83 c4 18	 add	 esp, 24			; 00000018H

; 810  :         this->_Ptr->_Color = _Red;

  000b9	66 c7 46 0c 00
	00		 mov	 WORD PTR [esi+12], 0
; File C:\Program Files (x86)\Microsoft Visual Studio\2019\Community\VC\Tools\MSVC\14.27.29110\include\map

; 190  :         return {_Scary->_Insert_node(_Loc._Location, _Inserted), true};

  000bf	8b cf		 mov	 ecx, edi
  000c1	56		 push	 esi
  000c2	ff 75 e4	 push	 DWORD PTR __Loc$3[ebp+4]
  000c5	ff 75 e0	 push	 DWORD PTR __Loc$3[ebp]
  000c8	e8 00 00 00 00	 call	 ?_Insert_node@?$_Tree_val@U?$_Tree_simple_types@U?$pair@$$CBV?$basic_string@DU?$char_traits@D@std@@V?$allocator@D@2@@std@@PAVCWindow@UI@@@std@@@std@@@std@@QAEPAU?$_Tree_node@U?$pair@$$CBV?$basic_string@DU?$char_traits@D@std@@V?$allocator@D@2@@std@@PAVCWindow@UI@@@std@@PAX@2@U?$_Tree_id@PAU?$_Tree_node@U?$pair@$$CBV?$basic_string@DU?$char_traits@D@std@@V?$allocator@D@2@@std@@PAVCWindow@UI@@@std@@PAX@std@@@2@QAU32@@Z ; std::_Tree_val<std::_Tree_simple_types<std::pair<std::basic_string<char,std::char_traits<char>,std::allocator<char> > const ,UI::CWindow *> > >::_Insert_node
  000cd	8b f0		 mov	 esi, eax
$LN3@operator:

; 154  :         return _Try_emplace(_STD move(_Keyval)).first->_Myval.second;

  000cf	8d 46 28	 lea	 eax, DWORD PTR [esi+40]

; 155  :     }

  000d2	8b 4d f4	 mov	 ecx, DWORD PTR __$EHRec$[ebp]
  000d5	64 89 0d 00 00
	00 00		 mov	 DWORD PTR fs:0, ecx
  000dc	59		 pop	 ecx
  000dd	5f		 pop	 edi
  000de	5e		 pop	 esi
  000df	5b		 pop	 ebx
  000e0	8b e5		 mov	 esp, ebp
  000e2	5d		 pop	 ebp
  000e3	c2 04 00	 ret	 4
$LN91@operator:
; File C:\Program Files (x86)\Microsoft Visual Studio\2019\Community\VC\Tools\MSVC\14.27.29110\include\xtree

; 1720 :             _Throw_tree_length_error();

  000e6	e8 00 00 00 00	 call	 ?_Throw_tree_length_error@std@@YAXXZ ; std::_Throw_tree_length_error
$LN89@operator:
  000eb	cc		 int	 3
_TEXT	ENDS
;	COMDAT text$x
text$x	SEGMENT
__unwindfunclet$??A?$map@V?$basic_string@DU?$char_traits@D@std@@V?$allocator@D@2@@std@@PAVCWindow@UI@@U?$less@V?$basic_string@DU?$char_traits@D@std@@V?$allocator@D@2@@std@@@2@V?$allocator@U?$pair@$$CBV?$basic_string@DU?$char_traits@D@std@@V?$allocator@D@2@@std@@PAVCWindow@UI@@@std@@@2@@std@@QAEAAPAVCWindow@UI@@$$QAV?$basic_string@DU?$char_traits@D@std@@V?$allocator@D@2@@1@@Z$2:
  00000	8d 4d ec	 lea	 ecx, DWORD PTR $T4[ebp]
  00003	e9 00 00 00 00	 jmp	 ??1?$_Alloc_construct_ptr@V?$allocator@U?$_Tree_node@U?$pair@$$CBV?$basic_string@DU?$char_traits@D@std@@V?$allocator@D@2@@std@@PAVCWindow@UI@@@std@@PAX@std@@@std@@@std@@QAE@XZ ; std::_Alloc_construct_ptr<std::allocator<std::_Tree_node<std::pair<std::basic_string<char,std::char_traits<char>,std::allocator<char> > const ,UI::CWindow *>,void *> > >::~_Alloc_construct_ptr<std::allocator<std::_Tree_node<std::pair<std::basic_string<char,std::char_traits<char>,std::allocator<char> > const ,UI::CWindow *>,void *> > >
  00008	cc		 int	 3
  00009	cc		 int	 3
  0000a	cc		 int	 3
  0000b	cc		 int	 3
  0000c	cc		 int	 3
__ehhandler$??A?$map@V?$basic_string@DU?$char_traits@D@std@@V?$allocator@D@2@@std@@PAVCWindow@UI@@U?$less@V?$basic_string@DU?$char_traits@D@std@@V?$allocator@D@2@@std@@@2@V?$allocator@U?$pair@$$CBV?$basic_string@DU?$char_traits@D@std@@V?$allocator@D@2@@std@@PAVCWindow@UI@@@std@@@2@@std@@QAEAAPAVCWindow@UI@@$$QAV?$basic_string@DU?$char_traits@D@std@@V?$allocator@D@2@@1@@Z:
  0000d	90		 npad	 1
  0000e	90		 npad	 1
  0000f	8b 54 24 08	 mov	 edx, DWORD PTR [esp+8]
  00013	8d 42 0c	 lea	 eax, DWORD PTR [edx+12]
  00016	8b 4a dc	 mov	 ecx, DWORD PTR [edx-36]
  00019	33 c8		 xor	 ecx, eax
  0001b	e8 00 00 00 00	 call	 @__security_check_cookie@4
  00020	b8 00 00 00 00	 mov	 eax, OFFSET __ehfuncinfo$??A?$map@V?$basic_string@DU?$char_traits@D@std@@V?$allocator@D@2@@std@@PAVCWindow@UI@@U?$less@V?$basic_string@DU?$char_traits@D@std@@V?$allocator@D@2@@std@@@2@V?$allocator@U?$pair@$$CBV?$basic_string@DU?$char_traits@D@std@@V?$allocator@D@2@@std@@PAVCWindow@UI@@@std@@@2@@std@@QAEAAPAVCWindow@UI@@$$QAV?$basic_string@DU?$char_traits@D@std@@V?$allocator@D@2@@1@@Z
  00025	e9 00 00 00 00	 jmp	 ___CxxFrameHandler3
text$x	ENDS
??A?$map@V?$basic_string@DU?$char_traits@D@std@@V?$allocator@D@2@@std@@PAVCWindow@UI@@U?$less@V?$basic_string@DU?$char_traits@D@std@@V?$allocator@D@2@@std@@@2@V?$allocator@U?$pair@$$CBV?$basic_string@DU?$char_traits@D@std@@V?$allocator@D@2@@std@@PAVCWindow@UI@@@std@@@2@@std@@QAEAAPAVCWindow@UI@@$$QAV?$basic_string@DU?$char_traits@D@std@@V?$allocator@D@2@@1@@Z ENDP ; std::map<std::basic_string<char,std::char_traits<char>,std::allocator<char> >,UI::CWindow *,std::less<std::basic_string<char,std::char_traits<char>,std::allocator<char> > >,std::allocator<std::pair<std::basic_string<char,std::char_traits<char>,std::allocator<char> > const ,UI::CWindow *> > >::operator[]
; Function compile flags: /Ogtp
; File C:\Program Files (x86)\Microsoft Visual Studio\2019\Community\VC\Tools\MSVC\14.27.29110\include\xtree
;	COMDAT ?_Insert_node@?$_Tree_val@U?$_Tree_simple_types@U?$pair@$$CBV?$basic_string@DU?$char_traits@D@std@@V?$allocator@D@2@@std@@PAVCWindow@UI@@@std@@@std@@@std@@QAEPAU?$_Tree_node@U?$pair@$$CBV?$basic_string@DU?$char_traits@D@std@@V?$allocator@D@2@@std@@PAVCWindow@UI@@@std@@PAX@2@U?$_Tree_id@PAU?$_Tree_node@U?$pair@$$CBV?$basic_string@DU?$char_traits@D@std@@V?$allocator@D@2@@std@@PAVCWindow@UI@@@std@@PAX@std@@@2@QAU32@@Z
_TEXT	SEGMENT
__Head$1$ = -8						; size = 4
_this$1$ = -4						; size = 4
__Loc$ = 8						; size = 8
__Newnode$ = 16						; size = 4
?_Insert_node@?$_Tree_val@U?$_Tree_simple_types@U?$pair@$$CBV?$basic_string@DU?$char_traits@D@std@@V?$allocator@D@2@@std@@PAVCWindow@UI@@@std@@@std@@@std@@QAEPAU?$_Tree_node@U?$pair@$$CBV?$basic_string@DU?$char_traits@D@std@@V?$allocator@D@2@@std@@PAVCWindow@UI@@@std@@PAX@2@U?$_Tree_id@PAU?$_Tree_node@U?$pair@$$CBV?$basic_string@DU?$char_traits@D@std@@V?$allocator@D@2@@std@@PAVCWindow@UI@@@std@@PAX@std@@@2@QAU32@@Z PROC ; std::_Tree_val<std::_Tree_simple_types<std::pair<std::basic_string<char,std::char_traits<char>,std::allocator<char> > const ,UI::CWindow *> > >::_Insert_node, COMDAT
; _this$ = ecx

; 644  :     _Nodeptr _Insert_node(const _Tree_id<_Nodeptr> _Loc, const _Nodeptr _Newnode) noexcept {

  00000	55		 push	 ebp
  00001	8b ec		 mov	 ebp, esp
  00003	83 ec 08	 sub	 esp, 8

; 645  :         ++_Mysize;
; 646  :         const auto _Head  = _Myhead;
; 647  :         _Newnode->_Parent = _Loc._Parent;

  00006	8b 55 08	 mov	 edx, DWORD PTR __Loc$[ebp]
  00009	8b c1		 mov	 eax, ecx
  0000b	89 45 fc	 mov	 DWORD PTR _this$1$[ebp], eax
  0000e	8b 08		 mov	 ecx, DWORD PTR [eax]
  00010	ff 40 04	 inc	 DWORD PTR [eax+4]
  00013	8b 45 10	 mov	 eax, DWORD PTR __Newnode$[ebp]
  00016	89 4d f8	 mov	 DWORD PTR __Head$1$[ebp], ecx
  00019	89 50 04	 mov	 DWORD PTR [eax+4], edx

; 648  :         if (_Loc._Parent == _Head) { // first node in tree, just set head values

  0001c	3b d1		 cmp	 edx, ecx
  0001e	75 12		 jne	 SHORT $LN5@Insert_nod

; 649  :             _Head->_Left     = _Newnode;

  00020	89 01		 mov	 DWORD PTR [ecx], eax

; 650  :             _Head->_Parent   = _Newnode;

  00022	89 41 04	 mov	 DWORD PTR [ecx+4], eax

; 651  :             _Head->_Right    = _Newnode;

  00025	89 41 08	 mov	 DWORD PTR [ecx+8], eax

; 652  :             _Newnode->_Color = _Black; // the root is black

  00028	c6 40 0c 01	 mov	 BYTE PTR [eax+12], 1

; 711  :     }

  0002c	8b e5		 mov	 esp, ebp
  0002e	5d		 pop	 ebp
  0002f	c2 0c 00	 ret	 12			; 0000000cH
$LN5@Insert_nod:

; 653  :             return _Newnode;
; 654  :         }
; 655  : 
; 656  :         _STL_INTERNAL_CHECK(_Loc._Child != _Tree_child::_Unused);
; 657  :         if (_Loc._Child == _Tree_child::_Right) { // add to right of _Loc._Parent

  00032	83 7d 0c 00	 cmp	 DWORD PTR __Loc$[ebp+4], 0
  00036	75 0d		 jne	 SHORT $LN6@Insert_nod

; 658  :             _STL_INTERNAL_CHECK(_Loc._Parent->_Right->_Isnil);
; 659  :             _Loc._Parent->_Right = _Newnode;

  00038	89 42 08	 mov	 DWORD PTR [edx+8], eax

; 660  :             if (_Loc._Parent == _Head->_Right) { // remember rightmost node

  0003b	3b 51 08	 cmp	 edx, DWORD PTR [ecx+8]
  0003e	75 0d		 jne	 SHORT $LN9@Insert_nod

; 661  :                 _Head->_Right = _Newnode;

  00040	89 41 08	 mov	 DWORD PTR [ecx+8], eax

; 662  :             }
; 663  :         } else { // add to left of _Loc._Parent

  00043	eb 08		 jmp	 SHORT $LN9@Insert_nod
$LN6@Insert_nod:

; 664  :             _STL_INTERNAL_CHECK(_Loc._Parent->_Left->_Isnil);
; 665  :             _Loc._Parent->_Left = _Newnode;

  00045	89 02		 mov	 DWORD PTR [edx], eax

; 666  :             if (_Loc._Parent == _Head->_Left) { // remember leftmost node

  00047	3b 11		 cmp	 edx, DWORD PTR [ecx]
  00049	75 02		 jne	 SHORT $LN9@Insert_nod

; 667  :                 _Head->_Left = _Newnode;

  0004b	89 01		 mov	 DWORD PTR [ecx], eax
$LN9@Insert_nod:

; 668  :             }
; 669  :         }
; 670  : 
; 671  :         for (_Nodeptr _Pnode = _Newnode; _Pnode->_Parent->_Color == _Red;) {

  0004d	8b d0		 mov	 edx, eax
  0004f	8b 40 04	 mov	 eax, DWORD PTR [eax+4]
  00052	80 78 0c 00	 cmp	 BYTE PTR [eax+12], 0
  00056	0f 85 99 01 00
	00		 jne	 $LN3@Insert_nod
  0005c	53		 push	 ebx
  0005d	56		 push	 esi
  0005e	57		 push	 edi
  0005f	90		 npad	 1
$LL2@Insert_nod:

; 672  :             if (_Pnode->_Parent == _Pnode->_Parent->_Parent->_Left) { // fixup red-red in left subtree

  00060	8b 4a 04	 mov	 ecx, DWORD PTR [edx+4]
  00063	8d 7a 04	 lea	 edi, DWORD PTR [edx+4]
  00066	8b 71 04	 mov	 esi, DWORD PTR [ecx+4]
  00069	8d 59 04	 lea	 ebx, DWORD PTR [ecx+4]
  0006c	8b 06		 mov	 eax, DWORD PTR [esi]
  0006e	3b c8		 cmp	 ecx, eax
  00070	0f 85 ba 00 00
	00		 jne	 $LN10@Insert_nod

; 673  :                 const auto _Parent_sibling = _Pnode->_Parent->_Parent->_Right;

  00076	8b 46 08	 mov	 eax, DWORD PTR [esi+8]

; 674  :                 if (_Parent_sibling->_Color == _Red) { // parent's sibling has two red children, blacken both

  00079	80 78 0c 00	 cmp	 BYTE PTR [eax+12], 0
  0007d	0f 84 b3 00 00
	00		 je	 $LN53@Insert_nod

; 675  :                     _Pnode->_Parent->_Color          = _Black;
; 676  :                     _Parent_sibling->_Color          = _Black;
; 677  :                     _Pnode->_Parent->_Parent->_Color = _Red;
; 678  :                     _Pnode                           = _Pnode->_Parent->_Parent;
; 679  :                 } else { // parent's sibling has red and black children
; 680  :                     if (_Pnode == _Pnode->_Parent->_Right) { // rotate right child to left

  00083	8b 71 08	 mov	 esi, DWORD PTR [ecx+8]
  00086	3b d6		 cmp	 edx, esi
  00088	75 47		 jne	 SHORT $LN51@Insert_nod

; 460  :         _Wherenode->_Right = _Pnode->_Left;

  0008a	8b 06		 mov	 eax, DWORD PTR [esi]

; 681  :                         _Pnode = _Pnode->_Parent;

  0008c	8b d1		 mov	 edx, ecx

; 460  :         _Wherenode->_Right = _Pnode->_Left;

  0008e	89 42 08	 mov	 DWORD PTR [edx+8], eax

; 461  : 
; 462  :         if (!_Pnode->_Left->_Isnil) {

  00091	8b 06		 mov	 eax, DWORD PTR [esi]
  00093	80 78 0d 00	 cmp	 BYTE PTR [eax+13], 0
  00097	75 03		 jne	 SHORT $LN20@Insert_nod

; 463  :             _Pnode->_Left->_Parent = _Wherenode;

  00099	89 50 04	 mov	 DWORD PTR [eax+4], edx
$LN20@Insert_nod:

; 464  :         }
; 465  : 
; 466  :         _Pnode->_Parent = _Wherenode->_Parent;

  0009c	8b 03		 mov	 eax, DWORD PTR [ebx]
  0009e	89 46 04	 mov	 DWORD PTR [esi+4], eax

; 467  : 
; 468  :         if (_Wherenode == _Myhead->_Parent) {

  000a1	8b 45 fc	 mov	 eax, DWORD PTR _this$1$[ebp]
  000a4	8b 00		 mov	 eax, DWORD PTR [eax]
  000a6	3b 50 04	 cmp	 edx, DWORD PTR [eax+4]
  000a9	75 0b		 jne	 SHORT $LN21@Insert_nod

; 469  :             _Myhead->_Parent = _Pnode;

  000ab	89 70 04	 mov	 DWORD PTR [eax+4], esi

; 477  :         _Wherenode->_Parent = _Pnode;

  000ae	8b fb		 mov	 edi, ebx
  000b0	89 16		 mov	 DWORD PTR [esi], edx
  000b2	89 33		 mov	 DWORD PTR [ebx], esi
  000b4	eb 1d		 jmp	 SHORT $LN49@Insert_nod
$LN21@Insert_nod:

; 470  :         } else if (_Wherenode == _Wherenode->_Parent->_Left) {

  000b6	8b 03		 mov	 eax, DWORD PTR [ebx]
  000b8	3b 10		 cmp	 edx, DWORD PTR [eax]
  000ba	75 0a		 jne	 SHORT $LN23@Insert_nod

; 471  :             _Wherenode->_Parent->_Left = _Pnode;

  000bc	89 30		 mov	 DWORD PTR [eax], esi

; 477  :         _Wherenode->_Parent = _Pnode;

  000be	8b fb		 mov	 edi, ebx
  000c0	89 16		 mov	 DWORD PTR [esi], edx
  000c2	89 33		 mov	 DWORD PTR [ebx], esi
  000c4	eb 0d		 jmp	 SHORT $LN49@Insert_nod
$LN23@Insert_nod:

; 473  :             _Wherenode->_Parent->_Right = _Pnode;

  000c6	89 70 08	 mov	 DWORD PTR [eax+8], esi

; 477  :         _Wherenode->_Parent = _Pnode;

  000c9	8b fb		 mov	 edi, ebx
  000cb	89 16		 mov	 DWORD PTR [esi], edx
  000cd	89 33		 mov	 DWORD PTR [ebx], esi
  000cf	eb 02		 jmp	 SHORT $LN49@Insert_nod
$LN51@Insert_nod:
  000d1	8b f1		 mov	 esi, ecx
$LN49@Insert_nod:

; 682  :                         _Lrotate(_Pnode);
; 683  :                     }
; 684  : 
; 685  :                     _Pnode->_Parent->_Color          = _Black; // propagate red up

  000d3	c6 46 0c 01	 mov	 BYTE PTR [esi+12], 1

; 686  :                     _Pnode->_Parent->_Parent->_Color = _Red;

  000d7	8b 07		 mov	 eax, DWORD PTR [edi]
  000d9	8b 40 04	 mov	 eax, DWORD PTR [eax+4]
  000dc	c6 40 0c 00	 mov	 BYTE PTR [eax+12], 0

; 687  :                     _Rrotate(_Pnode->_Parent->_Parent);

  000e0	8b 07		 mov	 eax, DWORD PTR [edi]
  000e2	8b 48 04	 mov	 ecx, DWORD PTR [eax+4]

; 481  :         _Nodeptr _Pnode   = _Wherenode->_Left;

  000e5	8b 31		 mov	 esi, DWORD PTR [ecx]

; 482  :         _Wherenode->_Left = _Pnode->_Right;

  000e7	8b 46 08	 mov	 eax, DWORD PTR [esi+8]
  000ea	89 01		 mov	 DWORD PTR [ecx], eax

; 483  : 
; 484  :         if (!_Pnode->_Right->_Isnil) {

  000ec	8b 46 08	 mov	 eax, DWORD PTR [esi+8]
  000ef	80 78 0d 00	 cmp	 BYTE PTR [eax+13], 0
  000f3	75 03		 jne	 SHORT $LN27@Insert_nod

; 485  :             _Pnode->_Right->_Parent = _Wherenode;

  000f5	89 48 04	 mov	 DWORD PTR [eax+4], ecx
$LN27@Insert_nod:

; 486  :         }
; 487  : 
; 488  :         _Pnode->_Parent = _Wherenode->_Parent;

  000f8	8b 41 04	 mov	 eax, DWORD PTR [ecx+4]
  000fb	89 46 04	 mov	 DWORD PTR [esi+4], eax

; 489  : 
; 490  :         if (_Wherenode == _Myhead->_Parent) {

  000fe	8b 45 fc	 mov	 eax, DWORD PTR _this$1$[ebp]
  00101	8b 00		 mov	 eax, DWORD PTR [eax]
  00103	3b 48 04	 cmp	 ecx, DWORD PTR [eax+4]
  00106	75 0b		 jne	 SHORT $LN28@Insert_nod

; 491  :             _Myhead->_Parent = _Pnode;

  00108	89 70 04	 mov	 DWORD PTR [eax+4], esi

; 496  :         }
; 497  : 
; 498  :         _Pnode->_Right      = _Wherenode;

  0010b	89 4e 08	 mov	 DWORD PTR [esi+8], ecx

; 688  :                 }
; 689  :             } else { // fixup red-red in right subtree

  0010e	e9 cc 00 00 00	 jmp	 $LN52@Insert_nod
$LN28@Insert_nod:

; 492  :         } else if (_Wherenode == _Wherenode->_Parent->_Right) {

  00113	8b 41 04	 mov	 eax, DWORD PTR [ecx+4]
  00116	3b 48 08	 cmp	 ecx, DWORD PTR [eax+8]
  00119	75 0b		 jne	 SHORT $LN30@Insert_nod

; 493  :             _Wherenode->_Parent->_Right = _Pnode;

  0011b	89 70 08	 mov	 DWORD PTR [eax+8], esi

; 496  :         }
; 497  : 
; 498  :         _Pnode->_Right      = _Wherenode;

  0011e	89 4e 08	 mov	 DWORD PTR [esi+8], ecx

; 688  :                 }
; 689  :             } else { // fixup red-red in right subtree

  00121	e9 b9 00 00 00	 jmp	 $LN52@Insert_nod
$LN30@Insert_nod:

; 495  :             _Wherenode->_Parent->_Left = _Pnode;

  00126	89 30		 mov	 DWORD PTR [eax], esi

; 496  :         }
; 497  : 
; 498  :         _Pnode->_Right      = _Wherenode;

  00128	89 4e 08	 mov	 DWORD PTR [esi+8], ecx

; 688  :                 }
; 689  :             } else { // fixup red-red in right subtree

  0012b	e9 af 00 00 00	 jmp	 $LN52@Insert_nod
$LN10@Insert_nod:

; 690  :                 const auto _Parent_sibling = _Pnode->_Parent->_Parent->_Left;
; 691  :                 if (_Parent_sibling->_Color == _Red) { // parent's sibling has two red children, blacken both

  00130	80 78 0c 00	 cmp	 BYTE PTR [eax+12], 0
  00134	75 1b		 jne	 SHORT $LN15@Insert_nod
$LN53@Insert_nod:

; 668  :             }
; 669  :         }
; 670  : 
; 671  :         for (_Nodeptr _Pnode = _Newnode; _Pnode->_Parent->_Color == _Red;) {

  00136	c6 41 0c 01	 mov	 BYTE PTR [ecx+12], 1
  0013a	c6 40 0c 01	 mov	 BYTE PTR [eax+12], 1
  0013e	8b 07		 mov	 eax, DWORD PTR [edi]
  00140	8b 40 04	 mov	 eax, DWORD PTR [eax+4]
  00143	c6 40 0c 00	 mov	 BYTE PTR [eax+12], 0
  00147	8b 07		 mov	 eax, DWORD PTR [edi]
  00149	8b 50 04	 mov	 edx, DWORD PTR [eax+4]
  0014c	e9 91 00 00 00	 jmp	 $LN46@Insert_nod
$LN15@Insert_nod:

; 692  :                     _Pnode->_Parent->_Color          = _Black;
; 693  :                     _Parent_sibling->_Color          = _Black;
; 694  :                     _Pnode->_Parent->_Parent->_Color = _Red;
; 695  :                     _Pnode                           = _Pnode->_Parent->_Parent;
; 696  :                 } else { // parent's sibling has red and black children
; 697  :                     if (_Pnode == _Pnode->_Parent->_Left) { // rotate left child to right

  00151	8b 01		 mov	 eax, DWORD PTR [ecx]
  00153	3b d0		 cmp	 edx, eax
  00155	75 3e		 jne	 SHORT $LN39@Insert_nod

; 698  :                         _Pnode = _Pnode->_Parent;

  00157	8b d1		 mov	 edx, ecx

; 481  :         _Nodeptr _Pnode   = _Wherenode->_Left;

  00159	8b c8		 mov	 ecx, eax

; 482  :         _Wherenode->_Left = _Pnode->_Right;

  0015b	8b 41 08	 mov	 eax, DWORD PTR [ecx+8]
  0015e	89 02		 mov	 DWORD PTR [edx], eax

; 483  : 
; 484  :         if (!_Pnode->_Right->_Isnil) {

  00160	8b 41 08	 mov	 eax, DWORD PTR [ecx+8]
  00163	80 78 0d 00	 cmp	 BYTE PTR [eax+13], 0
  00167	75 03		 jne	 SHORT $LN34@Insert_nod

; 485  :             _Pnode->_Right->_Parent = _Wherenode;

  00169	89 50 04	 mov	 DWORD PTR [eax+4], edx
$LN34@Insert_nod:

; 486  :         }
; 487  : 
; 488  :         _Pnode->_Parent = _Wherenode->_Parent;

  0016c	8b 03		 mov	 eax, DWORD PTR [ebx]
  0016e	89 41 04	 mov	 DWORD PTR [ecx+4], eax

; 489  : 
; 490  :         if (_Wherenode == _Myhead->_Parent) {

  00171	8b 45 fc	 mov	 eax, DWORD PTR _this$1$[ebp]
  00174	8b 00		 mov	 eax, DWORD PTR [eax]
  00176	3b 50 04	 cmp	 edx, DWORD PTR [eax+4]
  00179	75 05		 jne	 SHORT $LN35@Insert_nod

; 491  :             _Myhead->_Parent = _Pnode;

  0017b	89 48 04	 mov	 DWORD PTR [eax+4], ecx
  0017e	eb 0e		 jmp	 SHORT $LN38@Insert_nod
$LN35@Insert_nod:

; 492  :         } else if (_Wherenode == _Wherenode->_Parent->_Right) {

  00180	8b 03		 mov	 eax, DWORD PTR [ebx]
  00182	3b 50 08	 cmp	 edx, DWORD PTR [eax+8]
  00185	75 05		 jne	 SHORT $LN37@Insert_nod

; 493  :             _Wherenode->_Parent->_Right = _Pnode;

  00187	89 48 08	 mov	 DWORD PTR [eax+8], ecx

; 494  :         } else {

  0018a	eb 02		 jmp	 SHORT $LN38@Insert_nod
$LN37@Insert_nod:

; 495  :             _Wherenode->_Parent->_Left = _Pnode;

  0018c	89 08		 mov	 DWORD PTR [eax], ecx
$LN38@Insert_nod:

; 496  :         }
; 497  : 
; 498  :         _Pnode->_Right      = _Wherenode;

  0018e	89 51 08	 mov	 DWORD PTR [ecx+8], edx

; 499  :         _Wherenode->_Parent = _Pnode;

  00191	8b fb		 mov	 edi, ebx
  00193	89 0b		 mov	 DWORD PTR [ebx], ecx
$LN39@Insert_nod:

; 699  :                         _Rrotate(_Pnode);
; 700  :                     }
; 701  : 
; 702  :                     _Pnode->_Parent->_Color          = _Black; // propagate red up

  00195	c6 41 0c 01	 mov	 BYTE PTR [ecx+12], 1

; 703  :                     _Pnode->_Parent->_Parent->_Color = _Red;

  00199	8b 07		 mov	 eax, DWORD PTR [edi]
