; Listing generated by Microsoft (R) Optimizing Compiler Version 19.27.29112.0 

	TITLE	C:\DS Project\DS Files\Source\ClientSource\Client\eterPythonLib\PythonGraphic.cpp
	.686P
	.XMM
	include listing.inc
	.model	flat

INCLUDELIB LIBCMT
INCLUDELIB OLDNAMES

PUBLIC	?g_isScreenShotKey@@3_NA			; g_isScreenShotKey
_BSS	SEGMENT
?g_isScreenShotKey@@3_NA DB 01H DUP (?)			; g_isScreenShotKey
_BSS	ENDS
PUBLIC	??_H@YGXPAXIIP6EPAX0@Z@Z			; `vector constructor iterator'
PUBLIC	??0D3DXMATRIX@@QAE@XZ				; D3DXMATRIX::D3DXMATRIX
PUBLIC	___local_stdio_printf_options
PUBLIC	__snprintf
PUBLIC	??0exception@std@@QAE@ABV01@@Z			; std::exception::exception
PUBLIC	??1exception@std@@UAE@XZ			; std::exception::~exception
PUBLIC	?what@exception@std@@UBEPBDXZ			; std::exception::what
PUBLIC	??_Gexception@std@@UAEPAXI@Z			; std::exception::`scalar deleting destructor'
PUBLIC	??0bad_alloc@std@@QAE@ABV01@@Z			; std::bad_alloc::bad_alloc
PUBLIC	??_Gbad_alloc@std@@UAEPAXI@Z			; std::bad_alloc::`scalar deleting destructor'
PUBLIC	??0bad_array_new_length@std@@QAE@XZ		; std::bad_array_new_length::bad_array_new_length
PUBLIC	??1bad_array_new_length@std@@UAE@XZ		; std::bad_array_new_length::~bad_array_new_length
PUBLIC	??0bad_array_new_length@std@@QAE@ABV01@@Z	; std::bad_array_new_length::bad_array_new_length
PUBLIC	??_Gbad_array_new_length@std@@UAEPAXI@Z		; std::bad_array_new_length::`scalar deleting destructor'
PUBLIC	?_Throw_bad_array_new_length@std@@YAXXZ		; std::_Throw_bad_array_new_length
PUBLIC	??0SPDTVertex@@QAE@XZ				; SPDTVertex::SPDTVertex
PUBLIC	??1?$CSingleton@VCPythonGraphic@@@@UAE@XZ	; CSingleton<CPythonGraphic>::~CSingleton<CPythonGraphic>
PUBLIC	??_G?$CSingleton@VCPythonGraphic@@@@UAEPAXI@Z	; CSingleton<CPythonGraphic>::`scalar deleting destructor'
PUBLIC	??0CPythonGraphic@@QAE@XZ			; CPythonGraphic::CPythonGraphic
PUBLIC	??1CPythonGraphic@@UAE@XZ			; CPythonGraphic::~CPythonGraphic
PUBLIC	?Destroy@CPythonGraphic@@QAEXXZ			; CPythonGraphic::Destroy
PUBLIC	?PushState@CPythonGraphic@@QAEXXZ		; CPythonGraphic::PushState
PUBLIC	?PopState@CPythonGraphic@@QAEXXZ		; CPythonGraphic::PopState
PUBLIC	?GetD3D@CPythonGraphic@@QAEPAUIDirect3D8@@XZ	; CPythonGraphic::GetD3D
PUBLIC	?GetOrthoDepth@CPythonGraphic@@QAEMXZ		; CPythonGraphic::GetOrthoDepth
PUBLIC	?SetInterfaceRenderState@CPythonGraphic@@QAEXXZ	; CPythonGraphic::SetInterfaceRenderState
PUBLIC	?SetGameRenderState@CPythonGraphic@@QAEXXZ	; CPythonGraphic::SetGameRenderState
PUBLIC	?SetCursorPosition@CPythonGraphic@@QAEXHH@Z	; CPythonGraphic::SetCursorPosition
PUBLIC	?SetOmniLight@CPythonGraphic@@QAEXXZ		; CPythonGraphic::SetOmniLight
PUBLIC	?SetViewport@CPythonGraphic@@QAEXMMMM@Z		; CPythonGraphic::SetViewport
PUBLIC	?RestoreViewport@CPythonGraphic@@QAEXXZ		; CPythonGraphic::RestoreViewport
PUBLIC	?GenerateColor@CPythonGraphic@@QAEJMMMM@Z	; CPythonGraphic::GenerateColor
PUBLIC	?RenderDownButton@CPythonGraphic@@QAEXMMMM@Z	; CPythonGraphic::RenderDownButton
PUBLIC	?RenderUpButton@CPythonGraphic@@QAEXMMMM@Z	; CPythonGraphic::RenderUpButton
PUBLIC	?RenderImage@CPythonGraphic@@QAEXPAVCGraphicImageInstance@@MM@Z ; CPythonGraphic::RenderImage
PUBLIC	?RenderAlphaImage@CPythonGraphic@@QAEXPAVCGraphicImageInstance@@MMMM@Z ; CPythonGraphic::RenderAlphaImage
PUBLIC	?RenderCoolTimeBox@CPythonGraphic@@QAEXMMMM@Z	; CPythonGraphic::RenderCoolTimeBox
PUBLIC	?SaveJPEG@CPythonGraphic@@QAE_NPBDPAEII@Z	; CPythonGraphic::SaveJPEG
PUBLIC	?SaveScreenShot@CPythonGraphic@@QAE_NPBD@Z	; CPythonGraphic::SaveScreenShot
PUBLIC	?GetAvailableMemory@CPythonGraphic@@QAEKXZ	; CPythonGraphic::GetAvailableMemory
PUBLIC	?SetGamma@CPythonGraphic@@QAEXM@Z		; CPythonGraphic::SetGamma
PUBLIC	??1?$deque@USState@CPythonGraphic@@V?$allocator@USState@CPythonGraphic@@@std@@@std@@QAE@XZ ; std::deque<CPythonGraphic::SState,std::allocator<CPythonGraphic::SState> >::~deque<CPythonGraphic::SState,std::allocator<CPythonGraphic::SState> >
PUBLIC	?_Xlen@?$deque@USState@CPythonGraphic@@V?$allocator@USState@CPythonGraphic@@@std@@@std@@ABEXXZ ; std::deque<CPythonGraphic::SState,std::allocator<CPythonGraphic::SState> >::_Xlen
PUBLIC	??1?$stack@USState@CPythonGraphic@@V?$deque@USState@CPythonGraphic@@V?$allocator@USState@CPythonGraphic@@@std@@@std@@@std@@QAE@XZ ; std::stack<CPythonGraphic::SState,std::deque<CPythonGraphic::SState,std::allocator<CPythonGraphic::SState> > >::~stack<CPythonGraphic::SState,std::deque<CPythonGraphic::SState,std::allocator<CPythonGraphic::SState> > >
PUBLIC	??_GCPythonGraphic@@UAEPAXI@Z			; CPythonGraphic::`scalar deleting destructor'
PUBLIC	??$_Deallocate@$07$0A@@std@@YAXPAXI@Z		; std::_Deallocate<8,0>
PUBLIC	??$_Allocate@$07U_Default_allocate_traits@std@@$0A@@std@@YAPAXI@Z ; std::_Allocate<8,std::_Default_allocate_traits,0>
PUBLIC	??$_Allocate_manually_vector_aligned@U_Default_allocate_traits@std@@@std@@YAPAXI@Z ; std::_Allocate_manually_vector_aligned<std::_Default_allocate_traits>
PUBLIC	?GenScreenShotTag@@YAXPBDKPADI@Z		; GenScreenShotTag
PUBLIC	??1?$vector@USPDTVertex@@V?$allocator@USPDTVertex@@@std@@@std@@QAE@XZ ; std::vector<SPDTVertex,std::allocator<SPDTVertex> >::~vector<SPDTVertex,std::allocator<SPDTVertex> >
PUBLIC	?_Xlength@?$vector@USPDTVertex@@V?$allocator@USPDTVertex@@@std@@@std@@CAXXZ ; std::vector<SPDTVertex,std::allocator<SPDTVertex> >::_Xlength
PUBLIC	??$_Emplace_reallocate@ABUSPDTVertex@@@?$vector@USPDTVertex@@V?$allocator@USPDTVertex@@@std@@@std@@QAEPAUSPDTVertex@@QAU2@ABU2@@Z ; std::vector<SPDTVertex,std::allocator<SPDTVertex> >::_Emplace_reallocate<SPDTVertex const &>
PUBLIC	??$_Delete_plain_internal@V?$allocator@U_Container_proxy@std@@@std@@@std@@YAXAAV?$allocator@U_Container_proxy@std@@@0@QAU_Container_proxy@0@@Z ; std::_Delete_plain_internal<std::allocator<std::_Container_proxy> >
PUBLIC	??$_Destroy_in_place@PAUSState@CPythonGraphic@@@std@@YAXAAPAUSState@CPythonGraphic@@@Z ; std::_Destroy_in_place<CPythonGraphic::SState *>
PUBLIC	??$_Emplace_back_internal@ABUSState@CPythonGraphic@@@?$deque@USState@CPythonGraphic@@V?$allocator@USState@CPythonGraphic@@@std@@@std@@AAEXABUSState@CPythonGraphic@@@Z ; std::deque<CPythonGraphic::SState,std::allocator<CPythonGraphic::SState> >::_Emplace_back_internal<CPythonGraphic::SState const &>
PUBLIC	??$_Destroy_range@V?$allocator@USPDTVertex@@@std@@@std@@YAXPAUSPDTVertex@@QAU1@AAV?$allocator@USPDTVertex@@@0@@Z ; std::_Destroy_range<std::allocator<SPDTVertex> >
PUBLIC	??$_Deallocate_plain@V?$allocator@U_Container_proxy@std@@@std@@@std@@YAXAAV?$allocator@U_Container_proxy@std@@@0@QAU_Container_proxy@0@@Z ; std::_Deallocate_plain<std::allocator<std::_Container_proxy> >
PUBLIC	??$_Construct_in_place@U_Container_proxy@std@@PAU_Container_base12@2@@std@@YAXAAU_Container_proxy@0@$$QAPAU_Container_base12@0@@Z ; std::_Construct_in_place<std::_Container_proxy,std::_Container_base12 *>
PUBLIC	??$_Uninitialized_move@PAUSPDTVertex@@V?$allocator@USPDTVertex@@@std@@@std@@YAPAUSPDTVertex@@QAU1@0PAU1@AAV?$allocator@USPDTVertex@@@0@@Z ; std::_Uninitialized_move<SPDTVertex *,std::allocator<SPDTVertex> >
PUBLIC	??$uninitialized_copy@PAPAUSState@CPythonGraphic@@PAPAU12@@std@@YAPAPAUSState@CPythonGraphic@@QAPAU12@0PAPAU12@@Z ; std::uninitialized_copy<CPythonGraphic::SState * *,CPythonGraphic::SState * *>
PUBLIC	??$_Uninitialized_value_construct_n_unchecked1@PAPAUSState@CPythonGraphic@@I@std@@YAPAPAUSState@CPythonGraphic@@PAPAU12@I@Z ; std::_Uninitialized_value_construct_n_unchecked1<CPythonGraphic::SState * *,unsigned int>
PUBLIC	??$_Destroy_range@PAPAUSState@CPythonGraphic@@@std@@YAXPAPAUSState@CPythonGraphic@@QAPAU12@@Z ; std::_Destroy_range<CPythonGraphic::SState * *>
PUBLIC	??$_Copy_memmove@PAPAUSState@CPythonGraphic@@PAPAU12@@std@@YAPAPAUSState@CPythonGraphic@@PAPAU12@00@Z ; std::_Copy_memmove<CPythonGraphic::SState * *,CPythonGraphic::SState * *>
PUBLIC	??$_Zero_range@PAPAUSState@CPythonGraphic@@@std@@YAPAPAUSState@CPythonGraphic@@QAPAU12@0@Z ; std::_Zero_range<CPythonGraphic::SState * *>
PUBLIC	??_ECPythonGraphic@@W3AEPAXI@Z			; [thunk]:CPythonGraphic::`vector deleting destructor'
PUBLIC	?_OptionsStorage@?1??__local_stdio_printf_options@@9@4_KA ; `__local_stdio_printf_options'::`2'::_OptionsStorage
PUBLIC	??_7exception@std@@6B@				; std::exception::`vftable'
PUBLIC	??_C@_0BC@EOODALEL@Unknown?5exception@		; `string'
PUBLIC	??_7bad_alloc@std@@6B@				; std::bad_alloc::`vftable'
PUBLIC	??_7bad_array_new_length@std@@6B@		; std::bad_array_new_length::`vftable'
PUBLIC	??_C@_0BF@KINCDENJ@bad?5array?5new?5length@	; `string'
PUBLIC	__TI3?AVbad_array_new_length@std@@
PUBLIC	__CTA3?AVbad_array_new_length@std@@
PUBLIC	??_R0?AVbad_array_new_length@std@@@8		; std::bad_array_new_length `RTTI Type Descriptor'
PUBLIC	__CT??_R0?AVbad_array_new_length@std@@@8??0bad_array_new_length@std@@QAE@ABV01@@Z12
PUBLIC	??_R0?AVbad_alloc@std@@@8			; std::bad_alloc `RTTI Type Descriptor'
PUBLIC	__CT??_R0?AVbad_alloc@std@@@8??0bad_alloc@std@@QAE@ABV01@@Z12
PUBLIC	??_R0?AVexception@std@@@8			; std::exception `RTTI Type Descriptor'
PUBLIC	__CT??_R0?AVexception@std@@@8??0exception@std@@QAE@ABV01@@Z12
PUBLIC	?ms_singleton@?$CSingleton@VCPythonGraphic@@@@0PAVCPythonGraphic@@A ; CSingleton<CPythonGraphic>::ms_singleton
PUBLIC	??_7?$CSingleton@VCPythonGraphic@@@@6B@		; CSingleton<CPythonGraphic>::`vftable'
PUBLIC	??_7CPythonGraphic@@6BCScreen@@@		; CPythonGraphic::`vftable'
PUBLIC	??_7CPythonGraphic@@6B?$CSingleton@VCPythonGraphic@@@@@ ; CPythonGraphic::`vftable'
PUBLIC	??_C@_0BA@FOIKENOD@vector?5too?5long@		; `string'
PUBLIC	??_R4exception@std@@6B@				; std::exception::`RTTI Complete Object Locator'
PUBLIC	??_R3exception@std@@8				; std::exception::`RTTI Class Hierarchy Descriptor'
PUBLIC	??_R2exception@std@@8				; std::exception::`RTTI Base Class Array'
PUBLIC	??_R1A@?0A@EA@exception@std@@8			; std::exception::`RTTI Base Class Descriptor at (0,-1,0,64)'
PUBLIC	??_R4bad_alloc@std@@6B@				; std::bad_alloc::`RTTI Complete Object Locator'
PUBLIC	??_R3bad_alloc@std@@8				; std::bad_alloc::`RTTI Class Hierarchy Descriptor'
PUBLIC	??_R2bad_alloc@std@@8				; std::bad_alloc::`RTTI Base Class Array'
PUBLIC	??_R1A@?0A@EA@bad_alloc@std@@8			; std::bad_alloc::`RTTI Base Class Descriptor at (0,-1,0,64)'
PUBLIC	??_R4bad_array_new_length@std@@6B@		; std::bad_array_new_length::`RTTI Complete Object Locator'
PUBLIC	??_R3bad_array_new_length@std@@8		; std::bad_array_new_length::`RTTI Class Hierarchy Descriptor'
PUBLIC	??_R2bad_array_new_length@std@@8		; std::bad_array_new_length::`RTTI Base Class Array'
PUBLIC	??_R1A@?0A@EA@bad_array_new_length@std@@8	; std::bad_array_new_length::`RTTI Base Class Descriptor at (0,-1,0,64)'
PUBLIC	??_R4?$CSingleton@VCPythonGraphic@@@@6B@	; CSingleton<CPythonGraphic>::`RTTI Complete Object Locator'
PUBLIC	??_R0?AV?$CSingleton@VCPythonGraphic@@@@@8	; CSingleton<CPythonGraphic> `RTTI Type Descriptor'
PUBLIC	??_R3?$CSingleton@VCPythonGraphic@@@@8		; CSingleton<CPythonGraphic>::`RTTI Class Hierarchy Descriptor'
PUBLIC	??_R2?$CSingleton@VCPythonGraphic@@@@8		; CSingleton<CPythonGraphic>::`RTTI Base Class Array'
PUBLIC	??_R1A@?0A@EA@?$CSingleton@VCPythonGraphic@@@@8	; CSingleton<CPythonGraphic>::`RTTI Base Class Descriptor at (0,-1,0,64)'
PUBLIC	?ms_singleton@?$CSingleton@VCStateManager@@@@0PAVCStateManager@@A ; CSingleton<CStateManager>::ms_singleton
PUBLIC	??_C@_0DE@BKCCNGJK@CPythonGraphic?3?3SetViewport?$CI?$CFd?0@ ; `string'
PUBLIC	??_C@_0BG@HJKBJNEI@YMIR_METIN2?3?$CFs?30x?$CF?48x@ ; `string'
PUBLIC	??_C@_0CD@MBNJPOAA@Failed?5to?5get?5back?5buffer?5?$CI0x?$CF0@ ; `string'
PUBLIC	??_C@_0CE@NBEFCAIB@Failed?5to?5get?5surface?5desc?5?$CI0x?$CF@ ; `string'
PUBLIC	??_C@_0EJ@CMPHLGKC@Unsupported?5BackBuffer?5Format?$CI?$CF@ ; `string'
PUBLIC	??_C@_0CE@GBOBAJOB@Failed?5to?5lock?5the?5surface?5?$CI0x?$CF@ ; `string'
PUBLIC	??_C@_0CF@KCPFIPM@Failed?5to?5allocate?5screenshot?5b@ ; `string'
PUBLIC	??_C@_0CH@IOAMCLFA@Failed?5to?5save?5JPEG?5file?4?5?$CI?$CFs?0?5@ ; `string'
PUBLIC	??_C@_02JDPG@rb@				; `string'
PUBLIC	??_C@_02GMLFBBN@wb@				; `string'
PUBLIC	??_C@_0BG@PCGMMCML@Python?5Graphic?5Clear?6@	; `string'
PUBLIC	??_C@_0BC@KBDMBKEH@deque?$DMT?$DO?5too?5long@	; `string'
PUBLIC	??_R4CPythonGraphic@@6BCScreen@@@		; CPythonGraphic::`RTTI Complete Object Locator'
PUBLIC	??_R0?AVCPythonGraphic@@@8			; CPythonGraphic `RTTI Type Descriptor'
PUBLIC	??_R3CPythonGraphic@@8				; CPythonGraphic::`RTTI Class Hierarchy Descriptor'
PUBLIC	??_R2CPythonGraphic@@8				; CPythonGraphic::`RTTI Base Class Array'
PUBLIC	??_R1A@?0A@EA@CPythonGraphic@@8			; CPythonGraphic::`RTTI Base Class Descriptor at (0,-1,0,64)'
PUBLIC	??_R1A@?0A@EA@CScreen@@8			; CScreen::`RTTI Base Class Descriptor at (0,-1,0,64)'
PUBLIC	??_R0?AVCScreen@@@8				; CScreen `RTTI Type Descriptor'
PUBLIC	??_R3CScreen@@8					; CScreen::`RTTI Class Hierarchy Descriptor'
PUBLIC	??_R2CScreen@@8					; CScreen::`RTTI Base Class Array'
PUBLIC	??_R1A@?0A@EA@CGraphicCollisionObject@@8	; CGraphicCollisionObject::`RTTI Base Class Descriptor at (0,-1,0,64)'
PUBLIC	??_R0?AVCGraphicCollisionObject@@@8		; CGraphicCollisionObject `RTTI Type Descriptor'
PUBLIC	??_R3CGraphicCollisionObject@@8			; CGraphicCollisionObject::`RTTI Class Hierarchy Descriptor'
PUBLIC	??_R2CGraphicCollisionObject@@8			; CGraphicCollisionObject::`RTTI Base Class Array'
PUBLIC	??_R1A@?0A@EA@CGraphicBase@@8			; CGraphicBase::`RTTI Base Class Descriptor at (0,-1,0,64)'
PUBLIC	??_R0?AVCGraphicBase@@@8			; CGraphicBase `RTTI Type Descriptor'
PUBLIC	??_R3CGraphicBase@@8				; CGraphicBase::`RTTI Class Hierarchy Descriptor'
PUBLIC	??_R2CGraphicBase@@8				; CGraphicBase::`RTTI Base Class Array'
PUBLIC	??_R13?0A@EA@?$CSingleton@VCPythonGraphic@@@@8	; CSingleton<CPythonGraphic>::`RTTI Base Class Descriptor at (4,-1,0,64)'
PUBLIC	??_R4CPythonGraphic@@6B?$CSingleton@VCPythonGraphic@@@@@ ; CPythonGraphic::`RTTI Complete Object Locator'
PUBLIC	__real@00000000
PUBLIC	__real@3f000000
PUBLIC	__real@3f800000
PUBLIC	__real@41000000
PUBLIC	__real@437f0000
PUBLIC	__xmm@000000003ba3d70a000000003f800000
PUBLIC	__xmm@3f8000003dcccccd3dcccccd3dcccccd
PUBLIC	__xmm@3f8000003e99999a3e99999a3e99999a
PUBLIC	__xmm@3f8000003f8000003f8000003f800000
PUBLIC	__xmm@be19999a43af00004316000042480000
EXTRN	??2@YAPAXI@Z:PROC				; operator new
EXTRN	??3@YAXPAXI@Z:PROC				; operator delete
EXTRN	??_U@YAPAXI@Z:PROC				; operator new[]
EXTRN	??_V@YAXPAX@Z:PROC				; operator delete[]
EXTRN	___std_terminate:PROC
EXTRN	__invalid_parameter_noinfo_noreturn:PROC
EXTRN	_free:PROC
EXTRN	_malloc:PROC
EXTRN	_strchr:PROC
EXTRN	_fclose:PROC
EXTRN	_fopen:PROC
EXTRN	_fputc:PROC
EXTRN	_fread:PROC
EXTRN	_fseek:PROC
EXTRN	_ftell:PROC
EXTRN	_fwrite:PROC
EXTRN	___stdio_common_vsprintf:PROC
EXTRN	___std_exception_copy:PROC
EXTRN	___std_exception_destroy:PROC
EXTRN	??_Eexception@std@@UAEPAXI@Z:PROC		; std::exception::`vector deleting destructor'
EXTRN	??_Ebad_alloc@std@@UAEPAXI@Z:PROC		; std::bad_alloc::`vector deleting destructor'
EXTRN	??_Ebad_array_new_length@std@@UAEPAXI@Z:PROC	; std::bad_array_new_length::`vector deleting destructor'
EXTRN	?_Xlength_error@std@@YAXPBD@Z:PROC		; std::_Xlength_error
EXTRN	?Tracef@@YAXPBDZZ:PROC				; Tracef
EXTRN	?TraceError@@YAXPBDZZ:PROC			; TraceError
EXTRN	?GetCRC32@@YAKPBDI@Z:PROC			; GetCRC32
EXTRN	?SetOrtho2D@CGraphicBase@@QAEXMMM@Z:PROC	; CGraphicBase::SetOrtho2D
EXTRN	?GetColor@CGraphicBase@@QAEKMMMM@Z:PROC		; CGraphicBase::GetColor
EXTRN	?SetDefaultIndexBuffer@CGraphicBase@@SAXI@Z:PROC ; CGraphicBase::SetDefaultIndexBuffer
EXTRN	?SetPDTStream@CGraphicBase@@SA_NPAUSPDTVertex@@I@Z:PROC ; CGraphicBase::SetPDTStream
EXTRN	?UpdatePipeLineMatrix@CGraphicBase@@IAEXXZ:PROC	; CGraphicBase::UpdatePipeLineMatrix
EXTRN	?SetTextureStage@CGraphicTexture@@QBEXH@Z:PROC	; CGraphicTexture::SetTextureStage
EXTRN	?GetWidth@CGraphicImageInstance@@QAEHXZ:PROC	; CGraphicImageInstance::GetWidth
EXTRN	?GetHeight@CGraphicImageInstance@@QAEHXZ:PROC	; CGraphicImageInstance::GetHeight
EXTRN	?GetTexturePointer@CGraphicImageInstance@@QAEPAVCGraphicTexture@@XZ:PROC ; CGraphicImageInstance::GetTexturePointer
EXTRN	??0CScreen@@QAE@XZ:PROC				; CScreen::CScreen
EXTRN	??1CScreen@@UAE@XZ:PROC				; CScreen::~CScreen
EXTRN	?RenderLine2d@CScreen@@QAEXMMMMM@Z:PROC		; CScreen::RenderLine2d
EXTRN	?RenderBox2d@CScreen@@QAEXMMMMM@Z:PROC		; CScreen::RenderBox2d
EXTRN	?RenderTextureBox@CScreen@@QAEXMMMMMMMMM@Z:PROC	; CScreen::RenderTextureBox
EXTRN	?SetBlendOperation@CScreen@@QAEXXZ:PROC		; CScreen::SetBlendOperation
EXTRN	?SetDiffuseColor@CScreen@@QAEXK@Z:PROC		; CScreen::SetDiffuseColor
EXTRN	?SetCursorPosition@CScreen@@QAEXHHHH@Z:PROC	; CScreen::SetCursorPosition
EXTRN	??0CCullingManager@@QAE@XZ:PROC			; CCullingManager::CCullingManager
EXTRN	??1CCullingManager@@UAE@XZ:PROC			; CCullingManager::~CCullingManager
EXTRN	??_E?$CSingleton@VCPythonGraphic@@@@UAEPAXI@Z:PROC ; CSingleton<CPythonGraphic>::`vector deleting destructor'
EXTRN	??_ECPythonGraphic@@UAEPAXI@Z:PROC		; CPythonGraphic::`vector deleting destructor'
EXTRN	?SetMaterial@CStateManager@@QAEXPBU_D3DMATERIAL8@@@Z:PROC ; CStateManager::SetMaterial
EXTRN	?SetRenderState@CStateManager@@QAEXW4_D3DRENDERSTATETYPE@@K@Z:PROC ; CStateManager::SetRenderState
EXTRN	?SetTexture@CStateManager@@QAEXKPAUIDirect3DBaseTexture8@@@Z:PROC ; CStateManager::SetTexture
EXTRN	?SaveTextureStageState@CStateManager@@QAEXKW4_D3DTEXTURESTAGESTATETYPE@@K@Z:PROC ; CStateManager::SaveTextureStageState
EXTRN	?RestoreTextureStageState@CStateManager@@QAEXKW4_D3DTEXTURESTAGESTATETYPE@@@Z:PROC ; CStateManager::RestoreTextureStageState
EXTRN	?SetTextureStageState@CStateManager@@QAEXKW4_D3DTEXTURESTAGESTATETYPE@@K@Z:PROC ; CStateManager::SetTextureStageState
EXTRN	?SetVertexShader@CStateManager@@QAEXK@Z:PROC	; CStateManager::SetVertexShader
EXTRN	?SetTransform@CStateManager@@QAEXW4_D3DTRANSFORMSTATETYPE@@PBU_D3DMATRIX@@@Z:PROC ; CStateManager::SetTransform
EXTRN	?DrawPrimitive@CStateManager@@QAEJW4_D3DPRIMITIVETYPE@@II@Z:PROC ; CStateManager::DrawPrimitive
EXTRN	?DrawIndexedPrimitive@CStateManager@@QAEJW4_D3DPRIMITIVETYPE@@IIII@Z:PROC ; CStateManager::DrawIndexedPrimitive
EXTRN	?jpeg_save@@YAHPAEHHHPBD@Z:PROC			; jpeg_save
EXTRN	@__security_check_cookie@4:PROC
EXTRN	__CxxThrowException@8:PROC
EXTRN	___CxxFrameHandler3:PROC
EXTRN	__ftoui3:PROC
EXTRN	_memmove:PROC
EXTRN	_memset:PROC
EXTRN	??_7type_info@@6B@:QWORD			; type_info::`vftable'
EXTRN	?ms_matIdentity@CGraphicBase@@1UD3DXMATRIX@@A:BYTE ; CGraphicBase::ms_matIdentity
EXTRN	?ms_matView@CGraphicBase@@1UD3DXMATRIX@@A:BYTE	; CGraphicBase::ms_matView
EXTRN	?ms_matProj@CGraphicBase@@1UD3DXMATRIX@@A:BYTE	; CGraphicBase::ms_matProj
EXTRN	?ms_iWidth@CGraphicBase@@1HA:DWORD		; CGraphicBase::ms_iWidth
EXTRN	?ms_iHeight@CGraphicBase@@1HA:DWORD		; CGraphicBase::ms_iHeight
EXTRN	?ms_lpd3d@CGraphicBase@@1PAUIDirect3D8@@A:DWORD	; CGraphicBase::ms_lpd3d
EXTRN	?ms_lpd3dDevice@CGraphicBase@@1PAUIDirect3DDevice8@@A:DWORD ; CGraphicBase::ms_lpd3dDevice
EXTRN	?ms_pntVS@CGraphicBase@@1KA:DWORD		; CGraphicBase::ms_pntVS
EXTRN	___security_cookie:DWORD
EXTRN	__fltused:DWORD
EXTRN	__tls_array:DWORD
EXTRN	__tls_index:DWORD
;	COMDAT ?_OptionsStorage@?1??__local_stdio_printf_options@@9@4_KA
_BSS	SEGMENT
?_OptionsStorage@?1??__local_stdio_printf_options@@9@4_KA DQ 01H DUP (?) ; `__local_stdio_printf_options'::`2'::_OptionsStorage
_BSS	ENDS
;	COMDAT ?ms_singleton@?$CSingleton@VCPythonGraphic@@@@0PAVCPythonGraphic@@A
_BSS	SEGMENT
?ms_singleton@?$CSingleton@VCPythonGraphic@@@@0PAVCPythonGraphic@@A DD 01H DUP (?) ; CSingleton<CPythonGraphic>::ms_singleton
_BSS	ENDS
;	COMDAT ?ms_singleton@?$CSingleton@VCStateManager@@@@0PAVCStateManager@@A
_BSS	SEGMENT
?ms_singleton@?$CSingleton@VCStateManager@@@@0PAVCStateManager@@A DD 01H DUP (?) ; CSingleton<CStateManager>::ms_singleton
_BSS	ENDS
;	COMDAT __xmm@be19999a43af00004316000042480000
CONST	SEGMENT
__xmm@be19999a43af00004316000042480000 DB 00H, 00H, 'HB', 00H, 00H, 016H, 'C'
	DB	00H, 00H, 0afH, 'C', 09aH, 099H, 019H, 0beH
CONST	ENDS
;	COMDAT __xmm@3f8000003f8000003f8000003f800000
CONST	SEGMENT
__xmm@3f8000003f8000003f8000003f800000 DB 00H, 00H, 080H, '?', 00H, 00H, 080H
	DB	'?', 00H, 00H, 080H, '?', 00H, 00H, 080H, '?'
CONST	ENDS
;	COMDAT __xmm@3f8000003e99999a3e99999a3e99999a
CONST	SEGMENT
__xmm@3f8000003e99999a3e99999a3e99999a DB 09aH, 099H, 099H, '>', 09aH, 099H
	DB	099H, '>', 09aH, 099H, 099H, '>', 00H, 00H, 080H, '?'
CONST	ENDS
;	COMDAT __xmm@3f8000003dcccccd3dcccccd3dcccccd
CONST	SEGMENT
__xmm@3f8000003dcccccd3dcccccd3dcccccd DB 0cdH, 0ccH, 0ccH, '=', 0cdH, 0ccH
	DB	0ccH, '=', 0cdH, 0ccH, 0ccH, '=', 00H, 00H, 080H, '?'
CONST	ENDS
;	COMDAT __xmm@000000003ba3d70a000000003f800000
CONST	SEGMENT
__xmm@000000003ba3d70a000000003f800000 DB 00H, 00H, 080H, '?', 00H, 00H, 00H
	DB	00H, 0aH, 0d7H, 0a3H, ';', 00H, 00H, 00H, 00H
CONST	ENDS
;	COMDAT __real@437f0000
CONST	SEGMENT
__real@437f0000 DD 0437f0000r			; 255
CONST	ENDS
;	COMDAT __real@41000000
CONST	SEGMENT
__real@41000000 DD 041000000r			; 8
CONST	ENDS
;	COMDAT __real@3f800000
CONST	SEGMENT
__real@3f800000 DD 03f800000r			; 1
CONST	ENDS
;	COMDAT __real@3f000000
CONST	SEGMENT
__real@3f000000 DD 03f000000r			; 0.5
CONST	ENDS
;	COMDAT __real@00000000
CONST	SEGMENT
__real@00000000 DD 000000000r			; 0
CONST	ENDS
;	COMDAT ??_R4CPythonGraphic@@6B?$CSingleton@VCPythonGraphic@@@@@
rdata$r	SEGMENT
??_R4CPythonGraphic@@6B?$CSingleton@VCPythonGraphic@@@@@ DD 00H ; CPythonGraphic::`RTTI Complete Object Locator'
	DD	04H
	DD	00H
	DD	FLAT:??_R0?AVCPythonGraphic@@@8
	DD	FLAT:??_R3CPythonGraphic@@8
rdata$r	ENDS
;	COMDAT ??_R13?0A@EA@?$CSingleton@VCPythonGraphic@@@@8
rdata$r	SEGMENT
??_R13?0A@EA@?$CSingleton@VCPythonGraphic@@@@8 DD FLAT:??_R0?AV?$CSingleton@VCPythonGraphic@@@@@8 ; CSingleton<CPythonGraphic>::`RTTI Base Class Descriptor at (4,-1,0,64)'
	DD	00H
	DD	04H
	DD	0ffffffffH
	DD	00H
	DD	040H
	DD	FLAT:??_R3?$CSingleton@VCPythonGraphic@@@@8
rdata$r	ENDS
;	COMDAT ??_R2CGraphicBase@@8
rdata$r	SEGMENT
??_R2CGraphicBase@@8 DD FLAT:??_R1A@?0A@EA@CGraphicBase@@8 ; CGraphicBase::`RTTI Base Class Array'
rdata$r	ENDS
;	COMDAT ??_R3CGraphicBase@@8
rdata$r	SEGMENT
??_R3CGraphicBase@@8 DD 00H				; CGraphicBase::`RTTI Class Hierarchy Descriptor'
	DD	00H
	DD	01H
	DD	FLAT:??_R2CGraphicBase@@8
rdata$r	ENDS
;	COMDAT ??_R0?AVCGraphicBase@@@8
data$r	SEGMENT
??_R0?AVCGraphicBase@@@8 DD FLAT:??_7type_info@@6B@	; CGraphicBase `RTTI Type Descriptor'
	DD	00H
	DB	'.?AVCGraphicBase@@', 00H
data$r	ENDS
;	COMDAT ??_R1A@?0A@EA@CGraphicBase@@8
rdata$r	SEGMENT
??_R1A@?0A@EA@CGraphicBase@@8 DD FLAT:??_R0?AVCGraphicBase@@@8 ; CGraphicBase::`RTTI Base Class Descriptor at (0,-1,0,64)'
	DD	00H
	DD	00H
	DD	0ffffffffH
	DD	00H
	DD	040H
	DD	FLAT:??_R3CGraphicBase@@8
rdata$r	ENDS
;	COMDAT ??_R2CGraphicCollisionObject@@8
rdata$r	SEGMENT
??_R2CGraphicCollisionObject@@8 DD FLAT:??_R1A@?0A@EA@CGraphicCollisionObject@@8 ; CGraphicCollisionObject::`RTTI Base Class Array'
	DD	FLAT:??_R1A@?0A@EA@CGraphicBase@@8
rdata$r	ENDS
;	COMDAT ??_R3CGraphicCollisionObject@@8
rdata$r	SEGMENT
??_R3CGraphicCollisionObject@@8 DD 00H			; CGraphicCollisionObject::`RTTI Class Hierarchy Descriptor'
	DD	00H
	DD	02H
	DD	FLAT:??_R2CGraphicCollisionObject@@8
rdata$r	ENDS
;	COMDAT ??_R0?AVCGraphicCollisionObject@@@8
data$r	SEGMENT
??_R0?AVCGraphicCollisionObject@@@8 DD FLAT:??_7type_info@@6B@ ; CGraphicCollisionObject `RTTI Type Descriptor'
	DD	00H
	DB	'.?AVCGraphicCollisionObject@@', 00H
data$r	ENDS
;	COMDAT ??_R1A@?0A@EA@CGraphicCollisionObject@@8
rdata$r	SEGMENT
??_R1A@?0A@EA@CGraphicCollisionObject@@8 DD FLAT:??_R0?AVCGraphicCollisionObject@@@8 ; CGraphicCollisionObject::`RTTI Base Class Descriptor at (0,-1,0,64)'
	DD	01H
	DD	00H
	DD	0ffffffffH
	DD	00H
	DD	040H
	DD	FLAT:??_R3CGraphicCollisionObject@@8
rdata$r	ENDS
;	COMDAT ??_R2CScreen@@8
rdata$r	SEGMENT
??_R2CScreen@@8 DD FLAT:??_R1A@?0A@EA@CScreen@@8	; CScreen::`RTTI Base Class Array'
	DD	FLAT:??_R1A@?0A@EA@CGraphicCollisionObject@@8
	DD	FLAT:??_R1A@?0A@EA@CGraphicBase@@8
rdata$r	ENDS
;	COMDAT ??_R3CScreen@@8
rdata$r	SEGMENT
??_R3CScreen@@8 DD 00H					; CScreen::`RTTI Class Hierarchy Descriptor'
	DD	00H
	DD	03H
	DD	FLAT:??_R2CScreen@@8
rdata$r	ENDS
;	COMDAT ??_R0?AVCScreen@@@8
data$r	SEGMENT
??_R0?AVCScreen@@@8 DD FLAT:??_7type_info@@6B@		; CScreen `RTTI Type Descriptor'
	DD	00H
	DB	'.?AVCScreen@@', 00H
data$r	ENDS
;	COMDAT ??_R1A@?0A@EA@CScreen@@8
rdata$r	SEGMENT
??_R1A@?0A@EA@CScreen@@8 DD FLAT:??_R0?AVCScreen@@@8	; CScreen::`RTTI Base Class Descriptor at (0,-1,0,64)'
	DD	02H
	DD	00H
	DD	0ffffffffH
	DD	00H
	DD	040H
	DD	FLAT:??_R3CScreen@@8
rdata$r	ENDS
;	COMDAT ??_R1A@?0A@EA@CPythonGraphic@@8
rdata$r	SEGMENT
??_R1A@?0A@EA@CPythonGraphic@@8 DD FLAT:??_R0?AVCPythonGraphic@@@8 ; CPythonGraphic::`RTTI Base Class Descriptor at (0,-1,0,64)'
	DD	04H
	DD	00H
	DD	0ffffffffH
	DD	00H
	DD	040H
	DD	FLAT:??_R3CPythonGraphic@@8
rdata$r	ENDS
;	COMDAT ??_R2CPythonGraphic@@8
rdata$r	SEGMENT
??_R2CPythonGraphic@@8 DD FLAT:??_R1A@?0A@EA@CPythonGraphic@@8 ; CPythonGraphic::`RTTI Base Class Array'
	DD	FLAT:??_R1A@?0A@EA@CScreen@@8
	DD	FLAT:??_R1A@?0A@EA@CGraphicCollisionObject@@8
	DD	FLAT:??_R1A@?0A@EA@CGraphicBase@@8
	DD	FLAT:??_R13?0A@EA@?$CSingleton@VCPythonGraphic@@@@8
rdata$r	ENDS
;	COMDAT ??_R3CPythonGraphic@@8
rdata$r	SEGMENT
??_R3CPythonGraphic@@8 DD 00H				; CPythonGraphic::`RTTI Class Hierarchy Descriptor'
	DD	01H
	DD	05H
	DD	FLAT:??_R2CPythonGraphic@@8
rdata$r	ENDS
;	COMDAT ??_R0?AVCPythonGraphic@@@8
data$r	SEGMENT
??_R0?AVCPythonGraphic@@@8 DD FLAT:??_7type_info@@6B@	; CPythonGraphic `RTTI Type Descriptor'
	DD	00H
	DB	'.?AVCPythonGraphic@@', 00H
data$r	ENDS
;	COMDAT ??_R4CPythonGraphic@@6BCScreen@@@
rdata$r	SEGMENT
??_R4CPythonGraphic@@6BCScreen@@@ DD 00H		; CPythonGraphic::`RTTI Complete Object Locator'
	DD	00H
	DD	00H
	DD	FLAT:??_R0?AVCPythonGraphic@@@8
	DD	FLAT:??_R3CPythonGraphic@@8
rdata$r	ENDS
;	COMDAT ??_C@_0BC@KBDMBKEH@deque?$DMT?$DO?5too?5long@
CONST	SEGMENT
??_C@_0BC@KBDMBKEH@deque?$DMT?$DO?5too?5long@ DB 'deque<T> too long', 00H ; `string'
CONST	ENDS
;	COMDAT ??_C@_0BG@PCGMMCML@Python?5Graphic?5Clear?6@
CONST	SEGMENT
??_C@_0BG@PCGMMCML@Python?5Graphic?5Clear?6@ DB 'Python Graphic Clear', 0aH
	DB	00H						; `string'
CONST	ENDS
;	COMDAT ?s_v2BoxPos@?1??RenderCoolTimeBox@CPythonGraphic@@QAEXMMMM@Z@4PAUD3DXVECTOR2@@A
_DATA	SEGMENT
?s_v2BoxPos@?1??RenderCoolTimeBox@CPythonGraphic@@QAEXMMMM@Z@4PAUD3DXVECTOR2@@A DD 0bf800000r ; -1 ; `CPythonGraphic::RenderCoolTimeBox'::`2'::s_v2BoxPos
	DD	0bf800000r			; -1
	DD	0bf800000r			; -1
	DD	000000000r			; 0
	DD	0bf800000r			; -1
	DD	03f800000r			; 1
	DD	000000000r			; 0
	DD	03f800000r			; 1
	DD	03f800000r			; 1
	DD	03f800000r			; 1
	DD	03f800000r			; 1
	DD	000000000r			; 0
	DD	03f800000r			; 1
	DD	0bf800000r			; -1
	DD	000000000r			; 0
	DD	0bf800000r			; -1
_DATA	ENDS
;	COMDAT ?color@?1??RenderCoolTimeBox@CPythonGraphic@@QAEXMMMM@Z@4UD3DXCOLOR@@A
_DATA	SEGMENT
?color@?1??RenderCoolTimeBox@CPythonGraphic@@QAEXMMMM@Z@4UD3DXCOLOR@@A DD 000000000r ; 0 ; `CPythonGraphic::RenderCoolTimeBox'::`2'::color
	DD	000000000r			; 0
	DD	000000000r			; 0
	DD	03f000000r			; 0.5
_DATA	ENDS
;	COMDAT ??_C@_02GMLFBBN@wb@
CONST	SEGMENT
??_C@_02GMLFBBN@wb@ DB 'wb', 00H			; `string'
CONST	ENDS
;	COMDAT ??_C@_02JDPG@rb@
CONST	SEGMENT
??_C@_02JDPG@rb@ DB 'rb', 00H				; `string'
CONST	ENDS
;	COMDAT ??_C@_0CH@IOAMCLFA@Failed?5to?5save?5JPEG?5file?4?5?$CI?$CFs?0?5@
CONST	SEGMENT
??_C@_0CH@IOAMCLFA@Failed?5to?5save?5JPEG?5file?4?5?$CI?$CFs?0?5@ DB 'Fai'
	DB	'led to save JPEG file. (%s, %d, %d)', 00H	; `string'
CONST	ENDS
;	COMDAT ??_C@_0CF@KCPFIPM@Failed?5to?5allocate?5screenshot?5b@
CONST	SEGMENT
??_C@_0CF@KCPFIPM@Failed?5to?5allocate?5screenshot?5b@ DB 'Failed to allo'
	DB	'cate screenshot buffer', 00H		; `string'
CONST	ENDS
;	COMDAT ??_C@_0CE@GBOBAJOB@Failed?5to?5lock?5the?5surface?5?$CI0x?$CF@
CONST	SEGMENT
??_C@_0CE@GBOBAJOB@Failed?5to?5lock?5the?5surface?5?$CI0x?$CF@ DB 'Failed'
	DB	' to lock the surface (0x%08x)', 00H		; `string'
CONST	ENDS
;	COMDAT ??_C@_0EJ@CMPHLGKC@Unsupported?5BackBuffer?5Format?$CI?$CF@
CONST	SEGMENT
??_C@_0EJ@CMPHLGKC@Unsupported?5BackBuffer?5Format?$CI?$CF@ DB 'Unsupport'
	DB	'ed BackBuffer Format(%d). Please contact Metin 2 Administrato'
	DB	'r.', 00H					; `string'
CONST	ENDS
;	COMDAT ??_C@_0CE@NBEFCAIB@Failed?5to?5get?5surface?5desc?5?$CI0x?$CF@
CONST	SEGMENT
??_C@_0CE@NBEFCAIB@Failed?5to?5get?5surface?5desc?5?$CI0x?$CF@ DB 'Failed'
	DB	' to get surface desc (0x%08x)', 00H		; `string'
CONST	ENDS
;	COMDAT ??_C@_0CD@MBNJPOAA@Failed?5to?5get?5back?5buffer?5?$CI0x?$CF0@
CONST	SEGMENT
??_C@_0CD@MBNJPOAA@Failed?5to?5get?5back?5buffer?5?$CI0x?$CF0@ DB 'Failed'
	DB	' to get back buffer (0x%08x)', 00H		; `string'
CONST	ENDS
;	COMDAT ??_C@_0BG@HJKBJNEI@YMIR_METIN2?3?$CFs?30x?$CF?48x@
CONST	SEGMENT
??_C@_0BG@HJKBJNEI@YMIR_METIN2?3?$CFs?30x?$CF?48x@ DB 'YMIR_METIN2:%s:0x%'
	DB	'.8x', 00H					; `string'
CONST	ENDS
;	COMDAT ??_C@_0DE@BKCCNGJK@CPythonGraphic?3?3SetViewport?$CI?$CFd?0@
CONST	SEGMENT
??_C@_0DE@BKCCNGJK@CPythonGraphic?3?3SetViewport?$CI?$CFd?0@ DB 'CPythonG'
	DB	'raphic::SetViewport(%d, %d, %d, %d) - Error', 00H ; `string'
CONST	ENDS
;	COMDAT ??_R1A@?0A@EA@?$CSingleton@VCPythonGraphic@@@@8
rdata$r	SEGMENT
??_R1A@?0A@EA@?$CSingleton@VCPythonGraphic@@@@8 DD FLAT:??_R0?AV?$CSingleton@VCPythonGraphic@@@@@8 ; CSingleton<CPythonGraphic>::`RTTI Base Class Descriptor at (0,-1,0,64)'
	DD	00H
	DD	00H
	DD	0ffffffffH
	DD	00H
	DD	040H
	DD	FLAT:??_R3?$CSingleton@VCPythonGraphic@@@@8
rdata$r	ENDS
;	COMDAT ??_R2?$CSingleton@VCPythonGraphic@@@@8
rdata$r	SEGMENT
??_R2?$CSingleton@VCPythonGraphic@@@@8 DD FLAT:??_R1A@?0A@EA@?$CSingleton@VCPythonGraphic@@@@8 ; CSingleton<CPythonGraphic>::`RTTI Base Class Array'
rdata$r	ENDS
;	COMDAT ??_R3?$CSingleton@VCPythonGraphic@@@@8
rdata$r	SEGMENT
??_R3?$CSingleton@VCPythonGraphic@@@@8 DD 00H		; CSingleton<CPythonGraphic>::`RTTI Class Hierarchy Descriptor'
	DD	00H
	DD	01H
	DD	FLAT:??_R2?$CSingleton@VCPythonGraphic@@@@8
rdata$r	ENDS
;	COMDAT ??_R0?AV?$CSingleton@VCPythonGraphic@@@@@8
data$r	SEGMENT
??_R0?AV?$CSingleton@VCPythonGraphic@@@@@8 DD FLAT:??_7type_info@@6B@ ; CSingleton<CPythonGraphic> `RTTI Type Descriptor'
	DD	00H
	DB	'.?AV?$CSingleton@VCPythonGraphic@@@@', 00H
data$r	ENDS
;	COMDAT ??_R4?$CSingleton@VCPythonGraphic@@@@6B@
rdata$r	SEGMENT
??_R4?$CSingleton@VCPythonGraphic@@@@6B@ DD 00H		; CSingleton<CPythonGraphic>::`RTTI Complete Object Locator'
	DD	00H
	DD	00H
	DD	FLAT:??_R0?AV?$CSingleton@VCPythonGraphic@@@@@8
	DD	FLAT:??_R3?$CSingleton@VCPythonGraphic@@@@8
rdata$r	ENDS
;	COMDAT ??_R1A@?0A@EA@bad_array_new_length@std@@8
rdata$r	SEGMENT
??_R1A@?0A@EA@bad_array_new_length@std@@8 DD FLAT:??_R0?AVbad_array_new_length@std@@@8 ; std::bad_array_new_length::`RTTI Base Class Descriptor at (0,-1,0,64)'
	DD	02H
	DD	00H
	DD	0ffffffffH
	DD	00H
	DD	040H
	DD	FLAT:??_R3bad_array_new_length@std@@8
rdata$r	ENDS
;	COMDAT ??_R2bad_array_new_length@std@@8
rdata$r	SEGMENT
??_R2bad_array_new_length@std@@8 DD FLAT:??_R1A@?0A@EA@bad_array_new_length@std@@8 ; std::bad_array_new_length::`RTTI Base Class Array'
	DD	FLAT:??_R1A@?0A@EA@bad_alloc@std@@8
	DD	FLAT:??_R1A@?0A@EA@exception@std@@8
rdata$r	ENDS
;	COMDAT ??_R3bad_array_new_length@std@@8
rdata$r	SEGMENT
??_R3bad_array_new_length@std@@8 DD 00H			; std::bad_array_new_length::`RTTI Class Hierarchy Descriptor'
	DD	00H
	DD	03H
	DD	FLAT:??_R2bad_array_new_length@std@@8
rdata$r	ENDS
;	COMDAT ??_R4bad_array_new_length@std@@6B@
rdata$r	SEGMENT
??_R4bad_array_new_length@std@@6B@ DD 00H		; std::bad_array_new_length::`RTTI Complete Object Locator'
	DD	00H
	DD	00H
	DD	FLAT:??_R0?AVbad_array_new_length@std@@@8
	DD	FLAT:??_R3bad_array_new_length@std@@8
rdata$r	ENDS
;	COMDAT ??_R1A@?0A@EA@bad_alloc@std@@8
rdata$r	SEGMENT
??_R1A@?0A@EA@bad_alloc@std@@8 DD FLAT:??_R0?AVbad_alloc@std@@@8 ; std::bad_alloc::`RTTI Base Class Descriptor at (0,-1,0,64)'
	DD	01H
	DD	00H
	DD	0ffffffffH
	DD	00H
	DD	040H
	DD	FLAT:??_R3bad_alloc@std@@8
rdata$r	ENDS
;	COMDAT ??_R2bad_alloc@std@@8
rdata$r	SEGMENT
??_R2bad_alloc@std@@8 DD FLAT:??_R1A@?0A@EA@bad_alloc@std@@8 ; std::bad_alloc::`RTTI Base Class Array'
	DD	FLAT:??_R1A@?0A@EA@exception@std@@8
rdata$r	ENDS
;	COMDAT ??_R3bad_alloc@std@@8
rdata$r	SEGMENT
??_R3bad_alloc@std@@8 DD 00H				; std::bad_alloc::`RTTI Class Hierarchy Descriptor'
	DD	00H
	DD	02H
	DD	FLAT:??_R2bad_alloc@std@@8
rdata$r	ENDS
;	COMDAT ??_R4bad_alloc@std@@6B@
rdata$r	SEGMENT
??_R4bad_alloc@std@@6B@ DD 00H				; std::bad_alloc::`RTTI Complete Object Locator'
	DD	00H
	DD	00H
	DD	FLAT:??_R0?AVbad_alloc@std@@@8
	DD	FLAT:??_R3bad_alloc@std@@8
rdata$r	ENDS
;	COMDAT ??_R1A@?0A@EA@exception@std@@8
rdata$r	SEGMENT
??_R1A@?0A@EA@exception@std@@8 DD FLAT:??_R0?AVexception@std@@@8 ; std::exception::`RTTI Base Class Descriptor at (0,-1,0,64)'
	DD	00H
	DD	00H
	DD	0ffffffffH
	DD	00H
	DD	040H
	DD	FLAT:??_R3exception@std@@8
rdata$r	ENDS
;	COMDAT ??_R2exception@std@@8
rdata$r	SEGMENT
??_R2exception@std@@8 DD FLAT:??_R1A@?0A@EA@exception@std@@8 ; std::exception::`RTTI Base Class Array'
rdata$r	ENDS
;	COMDAT ??_R3exception@std@@8
rdata$r	SEGMENT
??_R3exception@std@@8 DD 00H				; std::exception::`RTTI Class Hierarchy Descriptor'
	DD	00H
	DD	01H
	DD	FLAT:??_R2exception@std@@8
rdata$r	ENDS
;	COMDAT ??_R4exception@std@@6B@
rdata$r	SEGMENT
??_R4exception@std@@6B@ DD 00H				; std::exception::`RTTI Complete Object Locator'
	DD	00H
	DD	00H
	DD	FLAT:??_R0?AVexception@std@@@8
	DD	FLAT:??_R3exception@std@@8
rdata$r	ENDS
;	COMDAT ??_C@_0BA@FOIKENOD@vector?5too?5long@
CONST	SEGMENT
??_C@_0BA@FOIKENOD@vector?5too?5long@ DB 'vector too long', 00H ; `string'
CONST	ENDS
;	COMDAT ??_7CPythonGraphic@@6B?$CSingleton@VCPythonGraphic@@@@@
CONST	SEGMENT
??_7CPythonGraphic@@6B?$CSingleton@VCPythonGraphic@@@@@ DD FLAT:??_R4CPythonGraphic@@6B?$CSingleton@VCPythonGraphic@@@@@ ; CPythonGraphic::`vftable'
	DD	FLAT:??_ECPythonGraphic@@W3AEPAXI@Z
CONST	ENDS
;	COMDAT ??_7CPythonGraphic@@6BCScreen@@@
CONST	SEGMENT
??_7CPythonGraphic@@6BCScreen@@@ DD FLAT:??_R4CPythonGraphic@@6BCScreen@@@ ; CPythonGraphic::`vftable'
	DD	FLAT:??_ECPythonGraphic@@UAEPAXI@Z
CONST	ENDS
;	COMDAT ??_7?$CSingleton@VCPythonGraphic@@@@6B@
CONST	SEGMENT
??_7?$CSingleton@VCPythonGraphic@@@@6B@ DD FLAT:??_R4?$CSingleton@VCPythonGraphic@@@@6B@ ; CSingleton<CPythonGraphic>::`vftable'
	DD	FLAT:??_E?$CSingleton@VCPythonGraphic@@@@UAEPAXI@Z
CONST	ENDS
;	COMDAT __CT??_R0?AVexception@std@@@8??0exception@std@@QAE@ABV01@@Z12
xdata$x	SEGMENT
__CT??_R0?AVexception@std@@@8??0exception@std@@QAE@ABV01@@Z12 DD 00H
	DD	FLAT:??_R0?AVexception@std@@@8
	DD	00H
	DD	0ffffffffH
	ORG $+4
	DD	0cH
	DD	FLAT:??0exception@std@@QAE@ABV01@@Z
xdata$x	ENDS
;	COMDAT ??_R0?AVexception@std@@@8
data$r	SEGMENT
??_R0?AVexception@std@@@8 DD FLAT:??_7type_info@@6B@	; std::exception `RTTI Type Descriptor'
	DD	00H
	DB	'.?AVexception@std@@', 00H
data$r	ENDS
;	COMDAT __CT??_R0?AVbad_alloc@std@@@8??0bad_alloc@std@@QAE@ABV01@@Z12
xdata$x	SEGMENT
__CT??_R0?AVbad_alloc@std@@@8??0bad_alloc@std@@QAE@ABV01@@Z12 DD 010H
	DD	FLAT:??_R0?AVbad_alloc@std@@@8
	DD	00H
	DD	0ffffffffH
	ORG $+4
	DD	0cH
	DD	FLAT:??0bad_alloc@std@@QAE@ABV01@@Z
xdata$x	ENDS
;	COMDAT ??_R0?AVbad_alloc@std@@@8
data$r	SEGMENT
??_R0?AVbad_alloc@std@@@8 DD FLAT:??_7type_info@@6B@	; std::bad_alloc `RTTI Type Descriptor'
	DD	00H
	DB	'.?AVbad_alloc@std@@', 00H
data$r	ENDS
;	COMDAT __CT??_R0?AVbad_array_new_length@std@@@8??0bad_array_new_length@std@@QAE@ABV01@@Z12
xdata$x	SEGMENT
__CT??_R0?AVbad_array_new_length@std@@@8??0bad_array_new_length@std@@QAE@ABV01@@Z12 DD 00H
	DD	FLAT:??_R0?AVbad_array_new_length@std@@@8
	DD	00H
	DD	0ffffffffH
	ORG $+4
	DD	0cH
	DD	FLAT:??0bad_array_new_length@std@@QAE@ABV01@@Z
xdata$x	ENDS
;	COMDAT ??_R0?AVbad_array_new_length@std@@@8
data$r	SEGMENT
??_R0?AVbad_array_new_length@std@@@8 DD FLAT:??_7type_info@@6B@ ; std::bad_array_new_length `RTTI Type Descriptor'
	DD	00H
	DB	'.?AVbad_array_new_length@std@@', 00H
data$r	ENDS
;	COMDAT __CTA3?AVbad_array_new_length@std@@
xdata$x	SEGMENT
__CTA3?AVbad_array_new_length@std@@ DD 03H
	DD	FLAT:__CT??_R0?AVbad_array_new_length@std@@@8??0bad_array_new_length@std@@QAE@ABV01@@Z12
	DD	FLAT:__CT??_R0?AVbad_alloc@std@@@8??0bad_alloc@std@@QAE@ABV01@@Z12
	DD	FLAT:__CT??_R0?AVexception@std@@@8??0exception@std@@QAE@ABV01@@Z12
xdata$x	ENDS
;	COMDAT __TI3?AVbad_array_new_length@std@@
xdata$x	SEGMENT
__TI3?AVbad_array_new_length@std@@ DD 00H
	DD	FLAT:??1bad_array_new_length@std@@UAE@XZ
	DD	00H
	DD	FLAT:__CTA3?AVbad_array_new_length@std@@
xdata$x	ENDS
;	COMDAT ??_C@_0BF@KINCDENJ@bad?5array?5new?5length@
CONST	SEGMENT
??_C@_0BF@KINCDENJ@bad?5array?5new?5length@ DB 'bad array new length', 00H ; `string'
CONST	ENDS
;	COMDAT ??_7bad_array_new_length@std@@6B@
CONST	SEGMENT
??_7bad_array_new_length@std@@6B@ DD FLAT:??_R4bad_array_new_length@std@@6B@ ; std::bad_array_new_length::`vftable'
	DD	FLAT:??_Ebad_array_new_length@std@@UAEPAXI@Z
	DD	FLAT:?what@exception@std@@UBEPBDXZ
CONST	ENDS
;	COMDAT ??_7bad_alloc@std@@6B@
CONST	SEGMENT
??_7bad_alloc@std@@6B@ DD FLAT:??_R4bad_alloc@std@@6B@	; std::bad_alloc::`vftable'
	DD	FLAT:??_Ebad_alloc@std@@UAEPAXI@Z
	DD	FLAT:?what@exception@std@@UBEPBDXZ
CONST	ENDS
;	COMDAT ??_C@_0BC@EOODALEL@Unknown?5exception@
CONST	SEGMENT
??_C@_0BC@EOODALEL@Unknown?5exception@ DB 'Unknown exception', 00H ; `string'
CONST	ENDS
;	COMDAT ??_7exception@std@@6B@
CONST	SEGMENT
??_7exception@std@@6B@ DD FLAT:??_R4exception@std@@6B@	; std::exception::`vftable'
	DD	FLAT:??_Eexception@std@@UAEPAXI@Z
	DD	FLAT:?what@exception@std@@UBEPBDXZ
CONST	ENDS
;	COMDAT xdata$x
xdata$x	SEGMENT
__ehfuncinfo$??0?$stack@USState@CPythonGraphic@@V?$deque@USState@CPythonGraphic@@V?$allocator@USState@CPythonGraphic@@@std@@@std@@@std@@QAE@XZ DD 019930522H
	DD	00H
	DD	00H
	DD	2 DUP(00H)
	DD	2 DUP(00H)
	DD	00H
	DD	05H
xdata$x	ENDS
;	COMDAT xdata$x
xdata$x	SEGMENT
__unwindtable$?RenderCoolTimeBox@CPythonGraphic@@QAEXMMMM@Z DD 0ffffffffH
	DD	FLAT:__unwindfunclet$?RenderCoolTimeBox@CPythonGraphic@@QAEXMMMM@Z$2
__ehfuncinfo$?RenderCoolTimeBox@CPythonGraphic@@QAEXMMMM@Z DD 019930522H
	DD	01H
	DD	FLAT:__unwindtable$?RenderCoolTimeBox@CPythonGraphic@@QAEXMMMM@Z
	DD	2 DUP(00H)
	DD	2 DUP(00H)
	DD	00H
	DD	01H
xdata$x	ENDS
;	COMDAT xdata$x
xdata$x	SEGMENT
__ehfuncinfo$??1CPythonGraphic@@UAE@XZ DD 019930522H
	DD	00H
	DD	00H
	DD	2 DUP(00H)
	DD	2 DUP(00H)
	DD	00H
	DD	05H
xdata$x	ENDS
;	COMDAT xdata$x
xdata$x	SEGMENT
__ehfuncinfo$??0CPythonGraphic@@QAE@XZ DD 019930522H
	DD	05H
	DD	FLAT:__unwindtable$??0CPythonGraphic@@QAE@XZ
	DD	2 DUP(00H)
	DD	2 DUP(00H)
	DD	00H
	DD	01H
__unwindtable$??0CPythonGraphic@@QAE@XZ DD 0ffffffffH
	DD	FLAT:__unwindfunclet$??0CPythonGraphic@@QAE@XZ$0
	DD	00H
	DD	FLAT:__unwindfunclet$??0CPythonGraphic@@QAE@XZ$1
	DD	01H
	DD	FLAT:___std_terminate
	DD	01H
	DD	FLAT:__unwindfunclet$??0CPythonGraphic@@QAE@XZ$2
	DD	03H
	DD	FLAT:__unwindfunclet$??0CPythonGraphic@@QAE@XZ$3
xdata$x	ENDS
; Function compile flags: /Odsp
;	COMDAT ??_ECPythonGraphic@@W3AEPAXI@Z
_TEXT	SEGMENT
??_ECPythonGraphic@@W3AEPAXI@Z PROC			; [thunk]:CPythonGraphic::`vector deleting destructor', COMDAT
  00000	83 e9 04	 sub	 ecx, 4
  00003	e9 00 00 00 00	 jmp	 ??_ECPythonGraphic@@UAEPAXI@Z
??_ECPythonGraphic@@W3AEPAXI@Z ENDP			; [thunk]:CPythonGraphic::`vector deleting destructor'
_TEXT	ENDS
; Function compile flags: /Ogtp
; File C:\Program Files (x86)\Microsoft Visual Studio\2019\Community\VC\Tools\MSVC\14.27.29110\include\xmemory
;	COMDAT ??$_Zero_range@PAPAUSState@CPythonGraphic@@@std@@YAPAPAUSState@CPythonGraphic@@QAPAU12@0@Z
_TEXT	SEGMENT
__First$ = 8						; size = 4
__Last$ = 12						; size = 4
??$_Zero_range@PAPAUSState@CPythonGraphic@@@std@@YAPAPAUSState@CPythonGraphic@@QAPAU12@0@Z PROC ; std::_Zero_range<CPythonGraphic::SState * *>, COMDAT

; 1814 : _Ptr _Zero_range(const _Ptr _First, const _Ptr _Last) { // fill [_First, _Last) with zeroes

  00000	55		 push	 ebp
  00001	8b ec		 mov	 ebp, esp

; 1815 :     char* const _First_ch = reinterpret_cast<char*>(_First);
; 1816 :     char* const _Last_ch  = reinterpret_cast<char*>(_Last);
; 1817 :     _CSTD memset(_First_ch, 0, static_cast<size_t>(_Last_ch - _First_ch));

  00003	8b 55 08	 mov	 edx, DWORD PTR __First$[ebp]
  00006	8b 4d 0c	 mov	 ecx, DWORD PTR __Last$[ebp]
  00009	2b ca		 sub	 ecx, edx
  0000b	51		 push	 ecx
  0000c	6a 00		 push	 0
  0000e	52		 push	 edx
  0000f	e8 00 00 00 00	 call	 _memset

; 1818 :     return _Last;

  00014	8b 45 0c	 mov	 eax, DWORD PTR __Last$[ebp]
  00017	83 c4 0c	 add	 esp, 12			; 0000000cH

; 1819 : }

  0001a	5d		 pop	 ebp
  0001b	c3		 ret	 0
??$_Zero_range@PAPAUSState@CPythonGraphic@@@std@@YAPAPAUSState@CPythonGraphic@@QAPAU12@0@Z ENDP ; std::_Zero_range<CPythonGraphic::SState * *>
_TEXT	ENDS
; Function compile flags: /Ogtp
; File C:\Program Files (x86)\Microsoft Visual Studio\2019\Community\VC\Tools\MSVC\14.27.29110\include\xutility
;	COMDAT ??$_Copy_memmove@PAPAUSState@CPythonGraphic@@PAPAU12@@std@@YAPAPAUSState@CPythonGraphic@@PAPAU12@00@Z
_TEXT	SEGMENT
__First$ = 8						; size = 4
__Last$ = 12						; size = 4
__Dest$ = 16						; size = 4
??$_Copy_memmove@PAPAUSState@CPythonGraphic@@PAPAU12@@std@@YAPAPAUSState@CPythonGraphic@@PAPAU12@00@Z PROC ; std::_Copy_memmove<CPythonGraphic::SState * *,CPythonGraphic::SState * *>, COMDAT

; 4113 : _OutIt _Copy_memmove(_InIt _First, _InIt _Last, _OutIt _Dest) {

  00000	55		 push	 ebp
  00001	8b ec		 mov	 ebp, esp

; 4114 :     const char* const _First_ch = const_cast<const char*>(reinterpret_cast<const volatile char*>(_First));
; 4115 :     const char* const _Last_ch  = const_cast<const char*>(reinterpret_cast<const volatile char*>(_Last));
; 4116 :     char* const _Dest_ch        = const_cast<char*>(reinterpret_cast<volatile char*>(_Dest));
; 4117 :     const auto _Count           = static_cast<size_t>(_Last_ch - _First_ch);

  00003	8b 45 08	 mov	 eax, DWORD PTR __First$[ebp]
  00006	56		 push	 esi

; 4118 :     _CSTD memmove(_Dest_ch, _First_ch, _Count);

  00007	8b 75 10	 mov	 esi, DWORD PTR __Dest$[ebp]
  0000a	57		 push	 edi
  0000b	8b 7d 0c	 mov	 edi, DWORD PTR __Last$[ebp]
  0000e	2b f8		 sub	 edi, eax
  00010	57		 push	 edi
  00011	50		 push	 eax
  00012	56		 push	 esi
  00013	e8 00 00 00 00	 call	 _memmove
  00018	83 c4 0c	 add	 esp, 12			; 0000000cH

; 4119 :     return reinterpret_cast<_OutIt>(_Dest_ch + _Count);

  0001b	8d 04 37	 lea	 eax, DWORD PTR [edi+esi]
  0001e	5f		 pop	 edi
  0001f	5e		 pop	 esi

; 4120 : }

  00020	5d		 pop	 ebp
  00021	c3		 ret	 0
??$_Copy_memmove@PAPAUSState@CPythonGraphic@@PAPAU12@@std@@YAPAPAUSState@CPythonGraphic@@PAPAU12@00@Z ENDP ; std::_Copy_memmove<CPythonGraphic::SState * *,CPythonGraphic::SState * *>
_TEXT	ENDS
; Function compile flags: /Ogtp
; File C:\Program Files (x86)\Microsoft Visual Studio\2019\Community\VC\Tools\MSVC\14.27.29110\include\xmemory
;	COMDAT ??$_Destroy_range@PAPAUSState@CPythonGraphic@@@std@@YAXPAPAUSState@CPythonGraphic@@QAPAU12@@Z
_TEXT	SEGMENT
__First$ = 8						; size = 4
__Last$ = 12						; size = 4
??$_Destroy_range@PAPAUSState@CPythonGraphic@@@std@@YAXPAPAUSState@CPythonGraphic@@QAPAU12@@Z PROC ; std::_Destroy_range<CPythonGraphic::SState * *>, COMDAT

; 969  :     // note that this is an optimization for debug mode codegen; in release mode the BE removes all of this
; 970  :     if _CONSTEXPR_IF (!is_trivially_destructible_v<_Iter_value_t<_NoThrowFwdIt>>) {
; 971  :         for (; _First != _Last; ++_First) {
; 972  :             _Destroy_in_place(*_First);
; 973  :         }
; 974  :     }
; 975  : }

  00000	c2 00 00	 ret	 0
??$_Destroy_range@PAPAUSState@CPythonGraphic@@@std@@YAXPAPAUSState@CPythonGraphic@@QAPAU12@@Z ENDP ; std::_Destroy_range<CPythonGraphic::SState * *>
_TEXT	ENDS
; Function compile flags: /Ogtp
; File C:\Program Files (x86)\Microsoft Visual Studio\2019\Community\VC\Tools\MSVC\14.27.29110\include\xmemory
;	COMDAT ??$_Uninitialized_value_construct_n_unchecked1@PAPAUSState@CPythonGraphic@@I@std@@YAPAPAUSState@CPythonGraphic@@PAPAU12@I@Z
_TEXT	SEGMENT
__UFirst$ = 8						; size = 4
__Count$ = 12						; size = 4
??$_Uninitialized_value_construct_n_unchecked1@PAPAUSState@CPythonGraphic@@I@std@@YAPAPAUSState@CPythonGraphic@@PAPAU12@I@Z PROC ; std::_Uninitialized_value_construct_n_unchecked1<CPythonGraphic::SState * *,unsigned int>, COMDAT

; 1874 : _NoThrowFwdIt _Uninitialized_value_construct_n_unchecked1(_NoThrowFwdIt _UFirst, _Diff _Count) {

  00000	55		 push	 ebp
  00001	8b ec		 mov	 ebp, esp

; 1875 :     // value-initialize all elements in [_UFirst, _UFirst + _Count_raw)
; 1876 :     _STL_INTERNAL_CHECK(_Count >= 0);
; 1877 :     if constexpr (_Use_memset_value_construct_v<_NoThrowFwdIt>) {
; 1878 :         return _Zero_range(_UFirst, _UFirst + _Count);

  00003	8b 4d 08	 mov	 ecx, DWORD PTR __UFirst$[ebp]
  00006	8b 45 0c	 mov	 eax, DWORD PTR __Count$[ebp]
  00009	8d 04 81	 lea	 eax, DWORD PTR [ecx+eax*4]
  0000c	89 45 0c	 mov	 DWORD PTR __Count$[ebp], eax
  0000f	89 4d 08	 mov	 DWORD PTR __UFirst$[ebp], ecx

; 1879 :     } else {
; 1880 :         _Uninitialized_backout<_NoThrowFwdIt> _Backout{_UFirst};
; 1881 :         for (; 0 < _Count; --_Count) {
; 1882 :             _Backout._Emplace_back();
; 1883 :         }
; 1884 : 
; 1885 :         return _Backout._Release();
; 1886 :     }
; 1887 : }

  00012	5d		 pop	 ebp

; 1875 :     // value-initialize all elements in [_UFirst, _UFirst + _Count_raw)
; 1876 :     _STL_INTERNAL_CHECK(_Count >= 0);
; 1877 :     if constexpr (_Use_memset_value_construct_v<_NoThrowFwdIt>) {
; 1878 :         return _Zero_range(_UFirst, _UFirst + _Count);

  00013	e9 00 00 00 00	 jmp	 ??$_Zero_range@PAPAUSState@CPythonGraphic@@@std@@YAPAPAUSState@CPythonGraphic@@QAPAU12@0@Z ; std::_Zero_range<CPythonGraphic::SState * *>
??$_Uninitialized_value_construct_n_unchecked1@PAPAUSState@CPythonGraphic@@I@std@@YAPAPAUSState@CPythonGraphic@@PAPAU12@I@Z ENDP ; std::_Uninitialized_value_construct_n_unchecked1<CPythonGraphic::SState * *,unsigned int>
_TEXT	ENDS
; Function compile flags: /Ogtp
; File C:\Program Files (x86)\Microsoft Visual Studio\2019\Community\VC\Tools\MSVC\14.27.29110\include\xmemory
;	COMDAT ??$uninitialized_copy@PAPAUSState@CPythonGraphic@@PAPAU12@@std@@YAPAPAUSState@CPythonGraphic@@QAPAU12@0PAPAU12@@Z
_TEXT	SEGMENT
__First$ = 8						; size = 4
__Last$ = 12						; size = 4
__Dest$ = 16						; size = 4
??$uninitialized_copy@PAPAUSState@CPythonGraphic@@PAPAU12@@std@@YAPAPAUSState@CPythonGraphic@@QAPAU12@0PAPAU12@@Z PROC ; std::uninitialized_copy<CPythonGraphic::SState * *,CPythonGraphic::SState * *>, COMDAT

; 1591 : _NoThrowFwdIt uninitialized_copy(const _InIt _First, const _InIt _Last, _NoThrowFwdIt _Dest) {

  00000	55		 push	 ebp
  00001	8b ec		 mov	 ebp, esp

; 1599 :     } else {
; 1600 :         _Uninitialized_backout<decltype(_UDest)> _Backout{_UDest};
; 1601 :         for (; _UFirst != _ULast; ++_UFirst) {
; 1602 :             _Backout._Emplace_back(*_UFirst);
; 1603 :         }
; 1604 : 
; 1605 :         _UDest = _Backout._Release();
; 1606 :     }
; 1607 : 
; 1608 :     _Seek_wrapped(_Dest, _UDest);
; 1609 :     return _Dest;
; 1610 : }

  00003	5d		 pop	 ebp

; 1592 :     // copy [_First, _Last) to raw [_Dest, ...)
; 1593 :     _Adl_verify_range(_First, _Last);
; 1594 :     auto _UFirst      = _Get_unwrapped(_First);
; 1595 :     const auto _ULast = _Get_unwrapped(_Last);
; 1596 :     auto _UDest       = _Get_unwrapped_n(_Dest, _Idl_distance<_InIt>(_UFirst, _ULast));
; 1597 :     if constexpr (_Ptr_copy_cat<decltype(_UFirst), decltype(_UDest)>::_Really_trivial) {
; 1598 :         _UDest = _Copy_memmove(_UFirst, _ULast, _UDest);

  00004	e9 00 00 00 00	 jmp	 ??$_Copy_memmove@PAPAUSState@CPythonGraphic@@PAPAU12@@std@@YAPAPAUSState@CPythonGraphic@@PAPAU12@00@Z ; std::_Copy_memmove<CPythonGraphic::SState * *,CPythonGraphic::SState * *>
??$uninitialized_copy@PAPAUSState@CPythonGraphic@@PAPAU12@@std@@YAPAPAUSState@CPythonGraphic@@QAPAU12@0PAPAU12@@Z ENDP ; std::uninitialized_copy<CPythonGraphic::SState * *,CPythonGraphic::SState * *>
_TEXT	ENDS
; Function compile flags: /Ogtp
; File C:\Program Files (x86)\Microsoft Visual Studio\2019\Community\VC\Tools\MSVC\14.27.29110\include\xmemory
;	COMDAT ??$_Uninitialized_move@PAUSPDTVertex@@V?$allocator@USPDTVertex@@@std@@@std@@YAPAUSPDTVertex@@QAU1@0PAU1@AAV?$allocator@USPDTVertex@@@0@@Z
_TEXT	SEGMENT
__First$ = 8						; size = 4
__Last$ = 12						; size = 4
__Dest$ = 16						; size = 4
__Al$ = 20						; size = 4
??$_Uninitialized_move@PAUSPDTVertex@@V?$allocator@USPDTVertex@@@std@@@std@@YAPAUSPDTVertex@@QAU1@0PAU1@AAV?$allocator@USPDTVertex@@@0@@Z PROC ; std::_Uninitialized_move<SPDTVertex *,std::allocator<SPDTVertex> >, COMDAT

; 1647 :     const _InIt _First, const _InIt _Last, _Alloc_ptr_t<_Alloc> _Dest, _Alloc& _Al) {

  00000	55		 push	 ebp
  00001	8b ec		 mov	 ebp, esp

; 1648 :     // move [_First, _Last) to raw _Dest, using _Al
; 1649 :     // note: only called internally from elsewhere in the STL
; 1650 :     using _Ptrval     = typename _Alloc::value_type*;
; 1651 :     auto _UFirst      = _Get_unwrapped(_First);
; 1652 :     const auto _ULast = _Get_unwrapped(_Last);
; 1653 :     if constexpr (conjunction_v<bool_constant<_Ptr_move_cat<decltype(_UFirst), _Ptrval>::_Really_trivial>,
; 1654 :                       _Uses_default_construct<_Alloc, _Ptrval, decltype(_STD move(*_UFirst))>>) {
; 1655 :         _Copy_memmove(_UFirst, _ULast, _Unfancy(_Dest));
; 1656 :         return _Dest + (_ULast - _UFirst);
; 1657 :     } else {
; 1658 :         _Uninitialized_backout_al<_Alloc> _Backout{_Dest, _Al};
; 1659 :         for (; _UFirst != _ULast; ++_UFirst) {

  00003	8b 4d 08	 mov	 ecx, DWORD PTR __First$[ebp]
  00006	8b 55 0c	 mov	 edx, DWORD PTR __Last$[ebp]

; 1497 :     _Uninitialized_backout_al(pointer _Dest, _Alloc& _Al_) : _First(_Dest), _Last(_Dest), _Al(_Al_) {}

  00009	8b 45 10	 mov	 eax, DWORD PTR __Dest$[ebp]

; 1648 :     // move [_First, _Last) to raw _Dest, using _Al
; 1649 :     // note: only called internally from elsewhere in the STL
; 1650 :     using _Ptrval     = typename _Alloc::value_type*;
; 1651 :     auto _UFirst      = _Get_unwrapped(_First);
; 1652 :     const auto _ULast = _Get_unwrapped(_Last);
; 1653 :     if constexpr (conjunction_v<bool_constant<_Ptr_move_cat<decltype(_UFirst), _Ptrval>::_Really_trivial>,
; 1654 :                       _Uses_default_construct<_Alloc, _Ptrval, decltype(_STD move(*_UFirst))>>) {
; 1655 :         _Copy_memmove(_UFirst, _ULast, _Unfancy(_Dest));
; 1656 :         return _Dest + (_ULast - _UFirst);
; 1657 :     } else {
; 1658 :         _Uninitialized_backout_al<_Alloc> _Backout{_Dest, _Al};
; 1659 :         for (; _UFirst != _ULast; ++_UFirst) {

  0000c	3b ca		 cmp	 ecx, edx
  0000e	74 1a		 je	 SHORT $LN3@Uninitiali
$LL4@Uninitiali:

; 694  :         ::new (const_cast<void*>(static_cast<const volatile void*>(_Ptr))) _Objty(_STD forward<_Types>(_Args)...);

  00010	0f 10 01	 movups	 xmm0, XMMWORD PTR [ecx]
  00013	0f 11 00	 movups	 XMMWORD PTR [eax], xmm0
  00016	f3 0f 7e 41 10	 movq	 xmm0, QWORD PTR [ecx+16]

; 1509 :         ++_Last;

  0001b	83 c1 18	 add	 ecx, 24			; 00000018H

; 694  :         ::new (const_cast<void*>(static_cast<const volatile void*>(_Ptr))) _Objty(_STD forward<_Types>(_Args)...);

  0001e	66 0f d6 40 10	 movq	 QWORD PTR [eax+16], xmm0

; 1509 :         ++_Last;

  00023	83 c0 18	 add	 eax, 24			; 00000018H

; 1648 :     // move [_First, _Last) to raw _Dest, using _Al
; 1649 :     // note: only called internally from elsewhere in the STL
; 1650 :     using _Ptrval     = typename _Alloc::value_type*;
; 1651 :     auto _UFirst      = _Get_unwrapped(_First);
; 1652 :     const auto _ULast = _Get_unwrapped(_Last);
; 1653 :     if constexpr (conjunction_v<bool_constant<_Ptr_move_cat<decltype(_UFirst), _Ptrval>::_Really_trivial>,
; 1654 :                       _Uses_default_construct<_Alloc, _Ptrval, decltype(_STD move(*_UFirst))>>) {
; 1655 :         _Copy_memmove(_UFirst, _ULast, _Unfancy(_Dest));
; 1656 :         return _Dest + (_ULast - _UFirst);
; 1657 :     } else {
; 1658 :         _Uninitialized_backout_al<_Alloc> _Backout{_Dest, _Al};
; 1659 :         for (; _UFirst != _ULast; ++_UFirst) {

  00026	3b ca		 cmp	 ecx, edx
  00028	75 e6		 jne	 SHORT $LL4@Uninitiali
$LN3@Uninitiali:

; 1660 :             _Backout._Emplace_back(_STD move(*_UFirst));
; 1661 :         }
; 1662 : 
; 1663 :         return _Backout._Release();
; 1664 :     }
; 1665 : }

  0002a	5d		 pop	 ebp
  0002b	c3		 ret	 0
??$_Uninitialized_move@PAUSPDTVertex@@V?$allocator@USPDTVertex@@@std@@@std@@YAPAUSPDTVertex@@QAU1@0PAU1@AAV?$allocator@USPDTVertex@@@0@@Z ENDP ; std::_Uninitialized_move<SPDTVertex *,std::allocator<SPDTVertex> >
_TEXT	ENDS
; Function compile flags: /Ogtp
; File C:\Program Files (x86)\Microsoft Visual Studio\2019\Community\VC\Tools\MSVC\14.27.29110\include\xmemory
;	COMDAT ??$_Construct_in_place@U_Container_proxy@std@@PAU_Container_base12@2@@std@@YAXAAU_Container_proxy@0@$$QAPAU_Container_base12@0@@Z
_TEXT	SEGMENT
__Obj$ = 8						; size = 4
_<_Args_0>$ = 12					; size = 4
??$_Construct_in_place@U_Container_proxy@std@@PAU_Container_base12@2@@std@@YAXAAU_Container_proxy@0@$$QAPAU_Container_base12@0@@Z PROC ; std::_Construct_in_place<std::_Container_proxy,std::_Container_base12 *>, COMDAT

; 228  : void _Construct_in_place(_Ty& _Obj, _Types&&... _Args) noexcept(is_nothrow_constructible_v<_Ty, _Types...>) {

  00000	55		 push	 ebp
  00001	8b ec		 mov	 ebp, esp

; 1084 :     _Container_proxy(_Container_base12* _Mycont_) noexcept : _Mycont(_Mycont_), _Myfirstiter(nullptr) {}

  00003	8b 45 0c	 mov	 eax, DWORD PTR _<_Args_0>$[ebp]
  00006	8b 4d 08	 mov	 ecx, DWORD PTR __Obj$[ebp]
  00009	8b 00		 mov	 eax, DWORD PTR [eax]
  0000b	89 01		 mov	 DWORD PTR [ecx], eax
  0000d	c7 41 04 00 00
	00 00		 mov	 DWORD PTR [ecx+4], 0

; 229  :     ::new (const_cast<void*>(static_cast<const volatile void*>(_STD addressof(_Obj))))
; 230  :         _Ty(_STD forward<_Types>(_Args)...);
; 231  : }

  00014	5d		 pop	 ebp
  00015	c3		 ret	 0
??$_Construct_in_place@U_Container_proxy@std@@PAU_Container_base12@2@@std@@YAXAAU_Container_proxy@0@$$QAPAU_Container_base12@0@@Z ENDP ; std::_Construct_in_place<std::_Container_proxy,std::_Container_base12 *>
_TEXT	ENDS
; Function compile flags: /Ogtp
; File C:\Program Files (x86)\Microsoft Visual Studio\2019\Community\VC\Tools\MSVC\14.27.29110\include\xmemory
;	COMDAT ??$_Deallocate_plain@V?$allocator@U_Container_proxy@std@@@std@@@std@@YAXAAV?$allocator@U_Container_proxy@std@@@0@QAU_Container_proxy@0@@Z
_TEXT	SEGMENT
__Al$ = 8						; size = 4
__Ptr$ = 12						; size = 4
??$_Deallocate_plain@V?$allocator@U_Container_proxy@std@@@std@@@std@@YAXAAV?$allocator@U_Container_proxy@std@@@0@QAU_Container_proxy@0@@Z PROC ; std::_Deallocate_plain<std::allocator<std::_Container_proxy> >, COMDAT

; 998  : void _Deallocate_plain(_Alloc& _Al, typename _Alloc::value_type* const _Ptr) noexcept {

  00000	55		 push	 ebp
  00001	8b ec		 mov	 ebp, esp

; 689  :         _Deallocate<_New_alignof<value_type>>(_Ptr, sizeof(value_type) * _Count);

  00003	6a 08		 push	 8
  00005	ff 75 0c	 push	 DWORD PTR __Ptr$[ebp]
  00008	e8 00 00 00 00	 call	 ??$_Deallocate@$07$0A@@std@@YAXPAXI@Z ; std::_Deallocate<8,0>
  0000d	83 c4 08	 add	 esp, 8

; 999  :     // deallocate a plain pointer using an allocator
; 1000 :     using _Alloc_traits = allocator_traits<_Alloc>;
; 1001 :     if constexpr (is_same_v<_Alloc_ptr_t<_Alloc>, typename _Alloc::value_type*>) {
; 1002 :         _Alloc_traits::deallocate(_Al, _Ptr, 1);
; 1003 :     } else {
; 1004 :         using _Ptr_traits = pointer_traits<_Alloc_ptr_t<_Alloc>>;
; 1005 :         _Alloc_traits::deallocate(_Al, _Ptr_traits::pointer_to(*_Ptr), 1);
; 1006 :     }
; 1007 : }

  00010	5d		 pop	 ebp
  00011	c3		 ret	 0
??$_Deallocate_plain@V?$allocator@U_Container_proxy@std@@@std@@@std@@YAXAAV?$allocator@U_Container_proxy@std@@@0@QAU_Container_proxy@0@@Z ENDP ; std::_Deallocate_plain<std::allocator<std::_Container_proxy> >
_TEXT	ENDS
; Function compile flags: /Ogtp
; File C:\Program Files (x86)\Microsoft Visual Studio\2019\Community\VC\Tools\MSVC\14.27.29110\include\xmemory
;	COMDAT ??$_Destroy_range@V?$allocator@USPDTVertex@@@std@@@std@@YAXPAUSPDTVertex@@QAU1@AAV?$allocator@USPDTVertex@@@0@@Z
_TEXT	SEGMENT
__First$ = 8						; size = 4
__Last$ = 12						; size = 4
__Al$ = 16						; size = 4
??$_Destroy_range@V?$allocator@USPDTVertex@@@std@@@std@@YAXPAUSPDTVertex@@QAU1@AAV?$allocator@USPDTVertex@@@0@@Z PROC ; std::_Destroy_range<std::allocator<SPDTVertex> >, COMDAT

; 956  :     // note that this is an optimization for debug mode codegen; in release mode the BE removes all of this
; 957  :     using _Ty = typename _Alloc::value_type;
; 958  :     if _CONSTEXPR_IF (!conjunction_v<is_trivially_destructible<_Ty>, _Uses_default_destroy<_Alloc, _Ty*>>) {
; 959  :         for (; _First != _Last; ++_First) {
; 960  :             allocator_traits<_Alloc>::destroy(_Al, _Unfancy(_First));
; 961  :         }
; 962  :     }
; 963  : }

  00000	c2 00 00	 ret	 0
??$_Destroy_range@V?$allocator@USPDTVertex@@@std@@@std@@YAXPAUSPDTVertex@@QAU1@AAV?$allocator@USPDTVertex@@@0@@Z ENDP ; std::_Destroy_range<std::allocator<SPDTVertex> >
_TEXT	ENDS
; Function compile flags: /Ogtp
; File C:\Program Files (x86)\Microsoft Visual Studio\2019\Community\VC\Tools\MSVC\14.27.29110\include\deque
; File C:\Program Files (x86)\Microsoft Visual Studio\2019\Community\VC\Tools\MSVC\14.27.29110\include\xmemory
; File C:\Program Files (x86)\Microsoft Visual Studio\2019\Community\VC\Tools\MSVC\14.27.29110\include\deque
; File C:\Program Files (x86)\Microsoft Visual Studio\2019\Community\VC\Tools\MSVC\14.27.29110\include\xmemory
; File C:\Program Files (x86)\Microsoft Visual Studio\2019\Community\VC\Tools\MSVC\14.27.29110\include\deque
; File C:\Program Files (x86)\Microsoft Visual Studio\2019\Community\VC\Tools\MSVC\14.27.29110\include\xmemory
; File C:\Program Files (x86)\Microsoft Visual Studio\2019\Community\VC\Tools\MSVC\14.27.29110\include\deque
; File C:\Program Files (x86)\Microsoft Visual Studio\2019\Community\VC\Tools\MSVC\14.27.29110\include\xmemory
; File C:\Program Files (x86)\Microsoft Visual Studio\2019\Community\VC\Tools\MSVC\14.27.29110\include\deque
; File C:\Program Files (x86)\Microsoft Visual Studio\2019\Community\VC\Tools\MSVC\14.27.29110\include\xmemory
; File C:\Program Files (x86)\Microsoft Visual Studio\2019\Community\VC\Tools\MSVC\14.27.29110\include\deque
; File C:\Program Files (x86)\Microsoft Visual Studio\2019\Community\VC\Tools\MSVC\14.27.29110\include\xmemory
; File C:\Program Files (x86)\Microsoft Visual Studio\2019\Community\VC\Tools\MSVC\14.27.29110\include\deque
; File C:\Program Files (x86)\Microsoft Visual Studio\2019\Community\VC\Tools\MSVC\14.27.29110\include\xmemory
; File C:\Program Files (x86)\Microsoft Visual Studio\2019\Community\VC\Tools\MSVC\14.27.29110\include\deque
;	COMDAT ??$_Emplace_back_internal@ABUSState@CPythonGraphic@@@?$deque@USState@CPythonGraphic@@V?$allocator@USState@CPythonGraphic@@@std@@@std@@AAEXABUSState@CPythonGraphic@@@Z
_TEXT	SEGMENT
tv592 = -8						; size = 4
__Newmap$1$ = -4					; size = 4
_<_Vals_0>$ = 8						; size = 4
??$_Emplace_back_internal@ABUSState@CPythonGraphic@@@?$deque@USState@CPythonGraphic@@V?$allocator@USState@CPythonGraphic@@@std@@@std@@AAEXABUSState@CPythonGraphic@@@Z PROC ; std::deque<CPythonGraphic::SState,std::allocator<CPythonGraphic::SState> >::_Emplace_back_internal<CPythonGraphic::SState const &>, COMDAT
; _this$ = ecx

; 1113 :     void _Emplace_back_internal(_Tys&&... _Vals) {

  00000	55		 push	 ebp
  00001	8b ec		 mov	 ebp, esp
  00003	83 ec 08	 sub	 esp, 8
  00006	53		 push	 ebx
  00007	8b d9		 mov	 ebx, ecx
  00009	56		 push	 esi
  0000a	57		 push	 edi

; 1114 :         _PUSH_BACK_BEGIN;

  0000b	8b 73 10	 mov	 esi, DWORD PTR [ebx+16]
  0000e	8b 53 08	 mov	 edx, DWORD PTR [ebx+8]
  00011	8d 46 01	 lea	 eax, DWORD PTR [esi+1]
  00014	3b d0		 cmp	 edx, eax
  00016	0f 87 e1 00 00
	00		 ja	 $LN43@Emplace_ba

; 1429 :         size_type _Newsize = 0 < _Mapsize() ? _Mapsize() : 1;

  0001c	85 d2		 test	 edx, edx
  0001e	b8 01 00 00 00	 mov	 eax, 1
  00023	0f 45 c2	 cmovne	 eax, edx
$LL6@Emplace_ba:

; 1430 :         while (_Newsize - _Mapsize() < _Count || _Newsize < _DEQUEMAPSIZ) {

  00026	8b f0		 mov	 esi, eax
  00028	2b f2		 sub	 esi, edx
  0002a	83 fe 01	 cmp	 esi, 1
  0002d	72 05		 jb	 SHORT $LN8@Emplace_ba
  0002f	83 f8 08	 cmp	 eax, 8
  00032	73 13		 jae	 SHORT $LN7@Emplace_ba
$LN8@Emplace_ba:

; 1431 :             // scale _Newsize to 2^N >= _Mapsize() + _Count
; 1432 :             if (max_size() / _DEQUESIZ - _Newsize < _Newsize) {

  00034	b9 ff ff ff 01	 mov	 ecx, 33554431		; 01ffffffH
  00039	2b c8		 sub	 ecx, eax
  0003b	3b c8		 cmp	 ecx, eax
  0003d	0f 82 06 01 00
	00		 jb	 $LN39@Emplace_ba

; 1434 :             }
; 1435 : 
; 1436 :             _Newsize *= 2;

  00043	03 c0		 add	 eax, eax

; 1437 :         }

  00045	eb df		 jmp	 SHORT $LL6@Emplace_ba
$LN7@Emplace_ba:

; 1438 :         _Count = _Newsize - _Mapsize();
; 1439 : 
; 1440 :         size_type _Myboff = _Myoff() / _DEQUESIZ;

  00047	8b 7b 0c	 mov	 edi, DWORD PTR [ebx+12]
; File C:\Program Files (x86)\Microsoft Visual Studio\2019\Community\VC\Tools\MSVC\14.27.29110\include\xmemory

; 60   :         if (_Count > _Max_possible) {

  0004a	3d ff ff ff 3f	 cmp	 eax, 1073741823		; 3fffffffH
  0004f	0f 87 fb 00 00
	00		 ja	 $LN47@Emplace_ba

; 62   :         }
; 63   :     }
; 64   : 
; 65   :     return _Count * _Ty_size;

  00055	c1 e0 02	 shl	 eax, 2

; 807  :         return static_cast<_Ty*>(_Allocate<_New_alignof<_Ty>>(_Get_size_of_n<sizeof(_Ty)>(_Count)));

  00058	50		 push	 eax
  00059	e8 00 00 00 00	 call	 ??$_Allocate@$07U_Default_allocate_traits@std@@$0A@@std@@YAPAXI@Z ; std::_Allocate<8,std::_Default_allocate_traits,0>
; File C:\Program Files (x86)\Microsoft Visual Studio\2019\Community\VC\Tools\MSVC\14.27.29110\include\deque

; 1444 :         _Myptr = _STD uninitialized_copy(_Map() + _Myboff, _Map() + _Mapsize(), _Myptr); // copy initial to end

  0005e	8b 53 04	 mov	 edx, DWORD PTR [ebx+4]
  00061	8d 0c bd 00 00
	00 00		 lea	 ecx, DWORD PTR [edi*4]
  00068	89 4d f8	 mov	 DWORD PTR tv592[ebp], ecx
  0006b	03 c8		 add	 ecx, eax
  0006d	51		 push	 ecx
  0006e	8b 4b 08	 mov	 ecx, DWORD PTR [ebx+8]
; File C:\Program Files (x86)\Microsoft Visual Studio\2019\Community\VC\Tools\MSVC\14.27.29110\include\xmemory

; 807  :         return static_cast<_Ty*>(_Allocate<_New_alignof<_Ty>>(_Get_size_of_n<sizeof(_Ty)>(_Count)));

  00071	89 45 fc	 mov	 DWORD PTR __Newmap$1$[ebp], eax
; File C:\Program Files (x86)\Microsoft Visual Studio\2019\Community\VC\Tools\MSVC\14.27.29110\include\deque

; 1444 :         _Myptr = _STD uninitialized_copy(_Map() + _Myboff, _Map() + _Mapsize(), _Myptr); // copy initial to end

  00074	8d 04 ba	 lea	 eax, DWORD PTR [edx+edi*4]
  00077	8d 0c 8a	 lea	 ecx, DWORD PTR [edx+ecx*4]
  0007a	51		 push	 ecx
  0007b	50		 push	 eax
  0007c	e8 00 00 00 00	 call	 ??$uninitialized_copy@PAPAUSState@CPythonGraphic@@PAPAU12@@std@@YAPAPAUSState@CPythonGraphic@@QAPAU12@0PAPAU12@@Z ; std::uninitialized_copy<CPythonGraphic::SState * *,CPythonGraphic::SState * *>
  00081	8b 4b 04	 mov	 ecx, DWORD PTR [ebx+4]
  00084	83 c4 10	 add	 esp, 16			; 00000010H

; 1445 :         if (_Myboff <= _Count) { // increment greater than offset of initial block

  00087	50		 push	 eax
  00088	3b fe		 cmp	 edi, esi
  0008a	77 1d		 ja	 SHORT $LN10@Emplace_ba

; 1446 :             _Myptr = _STD uninitialized_copy(_Map(), _Map() + _Myboff, _Myptr); // copy rest of old

  0008c	8d 04 b9	 lea	 eax, DWORD PTR [ecx+edi*4]
  0008f	50		 push	 eax
  00090	51		 push	 ecx
  00091	e8 00 00 00 00	 call	 ??$uninitialized_copy@PAPAUSState@CPythonGraphic@@PAPAU12@@std@@YAPAPAUSState@CPythonGraphic@@QAPAU12@0PAPAU12@@Z ; std::uninitialized_copy<CPythonGraphic::SState * *,CPythonGraphic::SState * *>

; 1447 :             _Uninitialized_value_construct_n_unchecked1(_Myptr, _Count - _Myboff); // clear suffix of new

  00096	8b ce		 mov	 ecx, esi
  00098	2b cf		 sub	 ecx, edi
  0009a	51		 push	 ecx
  0009b	50		 push	 eax
  0009c	e8 00 00 00 00	 call	 ??$_Uninitialized_value_construct_n_unchecked1@PAPAUSState@CPythonGraphic@@I@std@@YAPAPAUSState@CPythonGraphic@@PAPAU12@I@Z ; std::_Uninitialized_value_construct_n_unchecked1<CPythonGraphic::SState * *,unsigned int>

; 1448 :             _Uninitialized_value_construct_n_unchecked1(_Newmap, _Myboff); // clear prefix of new

  000a1	8b 45 fc	 mov	 eax, DWORD PTR __Newmap$1$[ebp]
  000a4	83 c4 14	 add	 esp, 20			; 00000014H

; 1449 :         } else { // increment not greater than offset of initial block

  000a7	eb 24		 jmp	 SHORT $LN11@Emplace_ba
$LN10@Emplace_ba:

; 1450 :             _STD uninitialized_copy(_Map(), _Map() + _Count, _Myptr); // copy more old

  000a9	8d 04 b1	 lea	 eax, DWORD PTR [ecx+esi*4]
  000ac	50		 push	 eax
  000ad	51		 push	 ecx
  000ae	e8 00 00 00 00	 call	 ??$uninitialized_copy@PAPAUSState@CPythonGraphic@@PAPAU12@@std@@YAPAPAUSState@CPythonGraphic@@QAPAU12@0PAPAU12@@Z ; std::uninitialized_copy<CPythonGraphic::SState * *,CPythonGraphic::SState * *>

; 1451 :             _Myptr = _STD uninitialized_copy(_Map() + _Count, _Map() + _Myboff, _Newmap); // copy rest of old

  000b3	8b 4b 04	 mov	 ecx, DWORD PTR [ebx+4]
  000b6	ff 75 fc	 push	 DWORD PTR __Newmap$1$[ebp]
  000b9	8b 45 f8	 mov	 eax, DWORD PTR tv592[ebp]
  000bc	03 c1		 add	 eax, ecx
  000be	50		 push	 eax
  000bf	8d 04 b1	 lea	 eax, DWORD PTR [ecx+esi*4]
  000c2	50		 push	 eax
  000c3	e8 00 00 00 00	 call	 ??$uninitialized_copy@PAPAUSState@CPythonGraphic@@PAPAU12@@std@@YAPAPAUSState@CPythonGraphic@@QAPAU12@0PAPAU12@@Z ; std::uninitialized_copy<CPythonGraphic::SState * *,CPythonGraphic::SState * *>
  000c8	83 c4 18	 add	 esp, 24			; 00000018H

; 1452 :             _Uninitialized_value_construct_n_unchecked1(_Myptr, _Count); // clear rest to initial block

  000cb	8b fe		 mov	 edi, esi
$LN11@Emplace_ba:

; 1453 :         }
; 1454 : 
; 1455 :         _Destroy_range(_Map() + _Myboff, _Map() + _Mapsize());
; 1456 :         if (_Map() != _Mapptr()) {

  000cd	57		 push	 edi
  000ce	50		 push	 eax
  000cf	e8 00 00 00 00	 call	 ??$_Uninitialized_value_construct_n_unchecked1@PAPAUSState@CPythonGraphic@@I@std@@YAPAPAUSState@CPythonGraphic@@PAPAU12@I@Z ; std::_Uninitialized_value_construct_n_unchecked1<CPythonGraphic::SState * *,unsigned int>
  000d4	8b 4b 04	 mov	 ecx, DWORD PTR [ebx+4]
  000d7	83 c4 08	 add	 esp, 8
  000da	85 c9		 test	 ecx, ecx
  000dc	74 10		 je	 SHORT $LN12@Emplace_ba
; File C:\Program Files (x86)\Microsoft Visual Studio\2019\Community\VC\Tools\MSVC\14.27.29110\include\xmemory

; 803  :         _Deallocate<_New_alignof<_Ty>>(_Ptr, sizeof(_Ty) * _Count);

  000de	8b 43 08	 mov	 eax, DWORD PTR [ebx+8]
  000e1	c1 e0 02	 shl	 eax, 2
  000e4	50		 push	 eax
  000e5	51		 push	 ecx
  000e6	e8 00 00 00 00	 call	 ??$_Deallocate@$07$0A@@std@@YAXPAXI@Z ; std::_Deallocate<8,0>
  000eb	83 c4 08	 add	 esp, 8
$LN12@Emplace_ba:
; File C:\Program Files (x86)\Microsoft Visual Studio\2019\Community\VC\Tools\MSVC\14.27.29110\include\deque

; 1460 :         _Map() = _Newmap; // point at new

  000ee	8b 45 fc	 mov	 eax, DWORD PTR __Newmap$1$[ebp]
  000f1	89 43 04	 mov	 DWORD PTR [ebx+4], eax

; 1461 :         _Mapsize() += _Count;

  000f4	01 73 08	 add	 DWORD PTR [ebx+8], esi
  000f7	8b 53 08	 mov	 edx, DWORD PTR [ebx+8]
  000fa	8b 73 10	 mov	 esi, DWORD PTR [ebx+16]
$LN43@Emplace_ba:

; 1114 :         _PUSH_BACK_BEGIN;

  000fd	8d 4a ff	 lea	 ecx, DWORD PTR [edx-1]
  00100	21 4b 0c	 and	 DWORD PTR [ebx+12], ecx
  00103	8b 43 0c	 mov	 eax, DWORD PTR [ebx+12]
  00106	03 c6		 add	 eax, esi

; 547  :         return (_Off / _DEQUESIZ) & (_Mapsize - 1);

  00108	23 c1		 and	 eax, ecx

; 1114 :         _PUSH_BACK_BEGIN;

  0010a	8d 3c 85 00 00
	00 00		 lea	 edi, DWORD PTR [eax*4]
  00111	8b 43 04	 mov	 eax, DWORD PTR [ebx+4]
  00114	83 3c 07 00	 cmp	 DWORD PTR [edi+eax], 0
  00118	75 16		 jne	 SHORT $LN3@Emplace_ba
; File C:\Program Files (x86)\Microsoft Visual Studio\2019\Community\VC\Tools\MSVC\14.27.29110\include\xmemory

; 807  :         return static_cast<_Ty*>(_Allocate<_New_alignof<_Ty>>(_Get_size_of_n<sizeof(_Ty)>(_Count)));

  0011a	68 80 00 00 00	 push	 128			; 00000080H
  0011f	e8 00 00 00 00	 call	 ??$_Allocate@$07U_Default_allocate_traits@std@@$0A@@std@@YAPAXI@Z ; std::_Allocate<8,std::_Default_allocate_traits,0>
; File C:\Program Files (x86)\Microsoft Visual Studio\2019\Community\VC\Tools\MSVC\14.27.29110\include\deque

; 1114 :         _PUSH_BACK_BEGIN;

  00124	8b 4b 04	 mov	 ecx, DWORD PTR [ebx+4]
; File C:\Program Files (x86)\Microsoft Visual Studio\2019\Community\VC\Tools\MSVC\14.27.29110\include\xmemory

; 807  :         return static_cast<_Ty*>(_Allocate<_New_alignof<_Ty>>(_Get_size_of_n<sizeof(_Ty)>(_Count)));

  00127	83 c4 04	 add	 esp, 4
; File C:\Program Files (x86)\Microsoft Visual Studio\2019\Community\VC\Tools\MSVC\14.27.29110\include\deque

; 1114 :         _PUSH_BACK_BEGIN;

  0012a	89 04 0f	 mov	 DWORD PTR [edi+ecx], eax
  0012d	8b 43 04	 mov	 eax, DWORD PTR [ebx+4]
$LN3@Emplace_ba:
; File C:\Program Files (x86)\Microsoft Visual Studio\2019\Community\VC\Tools\MSVC\14.27.29110\include\xmemory

; 694  :         ::new (const_cast<void*>(static_cast<const volatile void*>(_Ptr))) _Objty(_STD forward<_Types>(_Args)...);

  00130	8b 3c 07	 mov	 edi, DWORD PTR [edi+eax]
  00133	b9 20 00 00 00	 mov	 ecx, 32			; 00000020H
  00138	8b 75 08	 mov	 esi, DWORD PTR _<_Vals_0>$[ebp]
  0013b	f3 a5		 rep movsd
; File C:\Program Files (x86)\Microsoft Visual Studio\2019\Community\VC\Tools\MSVC\14.27.29110\include\deque

; 1116 :         _PUSH_BACK_END;

  0013d	ff 43 10	 inc	 DWORD PTR [ebx+16]
  00140	5f		 pop	 edi
  00141	5e		 pop	 esi
  00142	5b		 pop	 ebx

; 1117 :     }

  00143	8b e5		 mov	 esp, ebp
  00145	5d		 pop	 ebp
  00146	c2 04 00	 ret	 4
$LN39@Emplace_ba:

; 1433 :                 _Xlen(); // result too long

  00149	8b cb		 mov	 ecx, ebx
  0014b	e8 00 00 00 00	 call	 ?_Xlen@?$deque@USState@CPythonGraphic@@V?$allocator@USState@CPythonGraphic@@@std@@@std@@ABEXXZ ; std::deque<CPythonGraphic::SState,std::allocator<CPythonGraphic::SState> >::_Xlen
$LN47@Emplace_ba:
; File C:\Program Files (x86)\Microsoft Visual Studio\2019\Community\VC\Tools\MSVC\14.27.29110\include\xmemory

; 61   :             _Throw_bad_array_new_length(); // multiply overflow

  00150	e8 00 00 00 00	 call	 ?_Throw_bad_array_new_length@std@@YAXXZ ; std::_Throw_bad_array_new_length
$LN45@Emplace_ba:
  00155	cc		 int	 3
??$_Emplace_back_internal@ABUSState@CPythonGraphic@@@?$deque@USState@CPythonGraphic@@V?$allocator@USState@CPythonGraphic@@@std@@@std@@AAEXABUSState@CPythonGraphic@@@Z ENDP ; std::deque<CPythonGraphic::SState,std::allocator<CPythonGraphic::SState> >::_Emplace_back_internal<CPythonGraphic::SState const &>
_TEXT	ENDS
; Function compile flags: /Ogtp
; File C:\Program Files (x86)\Microsoft Visual Studio\2019\Community\VC\Tools\MSVC\14.27.29110\include\xmemory
;	COMDAT ??$_Destroy_in_place@PAUSState@CPythonGraphic@@@std@@YAXAAPAUSState@CPythonGraphic@@@Z
_TEXT	SEGMENT
__Obj$ = 8						; size = 4
??$_Destroy_in_place@PAUSState@CPythonGraphic@@@std@@YAXAAPAUSState@CPythonGraphic@@@Z PROC ; std::_Destroy_in_place<CPythonGraphic::SState *>, COMDAT

; 268  :     _Obj.~_Ty();
; 269  : }

  00000	c2 00 00	 ret	 0
??$_Destroy_in_place@PAUSState@CPythonGraphic@@@std@@YAXAAPAUSState@CPythonGraphic@@@Z ENDP ; std::_Destroy_in_place<CPythonGraphic::SState *>
_TEXT	ENDS
; Function compile flags: /Ogtp
; File C:\Program Files (x86)\Microsoft Visual Studio\2019\Community\VC\Tools\MSVC\14.27.29110\include\xmemory
;	COMDAT ??$_Delete_plain_internal@V?$allocator@U_Container_proxy@std@@@std@@@std@@YAXAAV?$allocator@U_Container_proxy@std@@@0@QAU_Container_proxy@0@@Z
_TEXT	SEGMENT
__Al$ = 8						; size = 4
__Ptr$ = 12						; size = 4
??$_Delete_plain_internal@V?$allocator@U_Container_proxy@std@@@std@@@std@@YAXAAV?$allocator@U_Container_proxy@std@@@0@QAU_Container_proxy@0@@Z PROC ; std::_Delete_plain_internal<std::allocator<std::_Container_proxy> >, COMDAT

; 1027 :     // destroy *_Ptr in place, then deallocate _Ptr using _Al; used for internal container types the user didn't name
; 1028 :     using _Ty = typename _Alloc::value_type;
; 1029 :     _Ptr->~_Ty();
; 1030 :     _Deallocate_plain(_Al, _Ptr);

  00000	e9 00 00 00 00	 jmp	 ??$_Deallocate_plain@V?$allocator@U_Container_proxy@std@@@std@@@std@@YAXAAV?$allocator@U_Container_proxy@std@@@0@QAU_Container_proxy@0@@Z ; std::_Deallocate_plain<std::allocator<std::_Container_proxy> >
??$_Delete_plain_internal@V?$allocator@U_Container_proxy@std@@@std@@@std@@YAXAAV?$allocator@U_Container_proxy@std@@@0@QAU_Container_proxy@0@@Z ENDP ; std::_Delete_plain_internal<std::allocator<std::_Container_proxy> >
_TEXT	ENDS
; Function compile flags: /Ogtp
; File C:\Program Files (x86)\Microsoft Visual Studio\2019\Community\VC\Tools\MSVC\14.27.29110\include\vector
; File C:\Program Files (x86)\Microsoft Visual Studio\2019\Community\VC\Tools\MSVC\14.27.29110\include\xmemory
; File C:\Program Files (x86)\Microsoft Visual Studio\2019\Community\VC\Tools\MSVC\14.27.29110\include\vector
; File C:\Program Files (x86)\Microsoft Visual Studio\2019\Community\VC\Tools\MSVC\14.27.29110\include\xmemory
; File C:\Program Files (x86)\Microsoft Visual Studio\2019\Community\VC\Tools\MSVC\14.27.29110\include\vector
; File C:\Program Files (x86)\Microsoft Visual Studio\2019\Community\VC\Tools\MSVC\14.27.29110\include\xmemory
; File C:\Program Files (x86)\Microsoft Visual Studio\2019\Community\VC\Tools\MSVC\14.27.29110\include\vector
; File C:\Program Files (x86)\Microsoft Visual Studio\2019\Community\VC\Tools\MSVC\14.27.29110\include\xmemory
; File C:\Program Files (x86)\Microsoft Visual Studio\2019\Community\VC\Tools\MSVC\14.27.29110\include\vector
; File C:\Program Files (x86)\Microsoft Visual Studio\2019\Community\VC\Tools\MSVC\14.27.29110\include\xmemory
; File C:\Program Files (x86)\Microsoft Visual Studio\2019\Community\VC\Tools\MSVC\14.27.29110\include\vector
; File C:\Program Files (x86)\Microsoft Visual Studio\2019\Community\VC\Tools\MSVC\14.27.29110\include\xmemory
; File C:\Program Files (x86)\Microsoft Visual Studio\2019\Community\VC\Tools\MSVC\14.27.29110\include\vector
;	COMDAT ??$_Emplace_reallocate@ABUSPDTVertex@@@?$vector@USPDTVertex@@V?$allocator@USPDTVertex@@@std@@@std@@QAEPAUSPDTVertex@@QAU2@ABU2@@Z
_TEXT	SEGMENT
tv377 = -8						; size = 4
tv376 = -4						; size = 4
__Whereoff$1$ = -4					; size = 4
__Whereptr$ = 8						; size = 4
_<_Val_0>$ = 12						; size = 4
??$_Emplace_reallocate@ABUSPDTVertex@@@?$vector@USPDTVertex@@V?$allocator@USPDTVertex@@@std@@@std@@QAEPAUSPDTVertex@@QAU2@ABU2@@Z PROC ; std::vector<SPDTVertex,std::allocator<SPDTVertex> >::_Emplace_reallocate<SPDTVertex const &>, COMDAT
; _this$ = ecx

; 725  :     pointer _Emplace_reallocate(const pointer _Whereptr, _Valty&&... _Val) {

  00000	55		 push	 ebp
  00001	8b ec		 mov	 ebp, esp
  00003	83 ec 08	 sub	 esp, 8

; 726  :         // reallocate and insert by perfectly forwarding _Val at _Whereptr
; 727  :         _Alty& _Al        = _Getal();
; 728  :         auto& _My_data    = _Mypair._Myval2;
; 729  :         pointer& _Myfirst = _My_data._Myfirst;
; 730  :         pointer& _Mylast  = _My_data._Mylast;
; 731  : 
; 732  :         _STL_INTERNAL_CHECK(_Mylast == _My_data._Myend); // check that we have no unused capacity
; 733  : 
; 734  :         const auto _Whereoff = static_cast<size_type>(_Whereptr - _Myfirst);

  00006	8b 55 08	 mov	 edx, DWORD PTR __Whereptr$[ebp]
  00009	b8 ab aa aa 2a	 mov	 eax, 715827883		; 2aaaaaabH
  0000e	53		 push	 ebx
  0000f	56		 push	 esi
  00010	8b f1		 mov	 esi, ecx
  00012	57		 push	 edi
  00013	8b 3e		 mov	 edi, DWORD PTR [esi]
  00015	2b d7		 sub	 edx, edi

; 735  :         const auto _Oldsize  = static_cast<size_type>(_Mylast - _Myfirst);

  00017	8b 4e 04	 mov	 ecx, DWORD PTR [esi+4]
  0001a	f7 ea		 imul	 edx
  0001c	2b cf		 sub	 ecx, edi
  0001e	c1 fa 02	 sar	 edx, 2
  00021	8b c2		 mov	 eax, edx
  00023	c1 e8 1f	 shr	 eax, 31			; 0000001fH
  00026	03 c2		 add	 eax, edx
  00028	89 45 fc	 mov	 DWORD PTR __Whereoff$1$[ebp], eax
  0002b	b8 ab aa aa 2a	 mov	 eax, 715827883		; 2aaaaaabH
  00030	f7 e9		 imul	 ecx
  00032	c1 fa 02	 sar	 edx, 2
  00035	8b da		 mov	 ebx, edx
  00037	c1 eb 1f	 shr	 ebx, 31			; 0000001fH
  0003a	03 da		 add	 ebx, edx

; 736  : 
; 737  :         if (_Oldsize == max_size()) {

  0003c	81 fb aa aa aa
	0a		 cmp	 ebx, 178956970		; 0aaaaaaaH
  00042	0f 84 f0 00 00
	00		 je	 $LN41@Emplace_re

; 1494 :         return static_cast<size_type>(_My_data._Myend - _My_data._Myfirst);

  00048	8b 4e 08	 mov	 ecx, DWORD PTR [esi+8]
  0004b	b8 ab aa aa 2a	 mov	 eax, 715827883		; 2aaaaaabH
  00050	2b cf		 sub	 ecx, edi

; 739  :         }
; 740  : 
; 741  :         const size_type _Newsize     = _Oldsize + 1;

  00052	43		 inc	 ebx

; 1494 :         return static_cast<size_type>(_My_data._Myend - _My_data._Myfirst);

  00053	f7 e9		 imul	 ecx

; 1619 :         if (_Oldcapacity > max_size() - _Oldcapacity / 2) {

  00055	b8 aa aa aa 0a	 mov	 eax, 178956970		; 0aaaaaaaH

; 1494 :         return static_cast<size_type>(_My_data._Myend - _My_data._Myfirst);

  0005a	c1 fa 02	 sar	 edx, 2
  0005d	8b ca		 mov	 ecx, edx
  0005f	c1 e9 1f	 shr	 ecx, 31			; 0000001fH
  00062	03 ca		 add	 ecx, edx

; 1619 :         if (_Oldcapacity > max_size() - _Oldcapacity / 2) {

  00064	8b d1		 mov	 edx, ecx
  00066	d1 ea		 shr	 edx, 1
  00068	2b c2		 sub	 eax, edx
  0006a	3b c8		 cmp	 ecx, eax
  0006c	76 04		 jbe	 SHORT $LN12@Emplace_re

; 1620 :             return _Newsize; // geometric growth would overflow

  0006e	8b c3		 mov	 eax, ebx
  00070	eb 08		 jmp	 SHORT $LN13@Emplace_re
$LN12@Emplace_re:

; 1621 :         }
; 1622 : 
; 1623 :         const size_type _Geometric = _Oldcapacity + _Oldcapacity / 2;

  00072	8d 04 0a	 lea	 eax, DWORD PTR [edx+ecx]

; 1624 : 
; 1625 :         if (_Geometric < _Newsize) {

  00075	3b c3		 cmp	 eax, ebx
  00077	0f 42 c3	 cmovb	 eax, ebx
$LN13@Emplace_re:
; File C:\Program Files (x86)\Microsoft Visual Studio\2019\Community\VC\Tools\MSVC\14.27.29110\include\xmemory

; 60   :         if (_Count > _Max_possible) {

  0007a	3d aa aa aa 0a	 cmp	 eax, 178956970		; 0aaaaaaaH
  0007f	0f 87 b8 00 00
	00		 ja	 $LN42@Emplace_re

; 62   :         }
; 63   :     }
; 64   : 
; 65   :     return _Count * _Ty_size;

  00085	8d 04 40	 lea	 eax, DWORD PTR [eax+eax*2]
  00088	c1 e0 03	 shl	 eax, 3

; 807  :         return static_cast<_Ty*>(_Allocate<_New_alignof<_Ty>>(_Get_size_of_n<sizeof(_Ty)>(_Count)));

  0008b	50		 push	 eax

; 65   :     return _Count * _Ty_size;

  0008c	89 45 f8	 mov	 DWORD PTR tv377[ebp], eax

; 807  :         return static_cast<_Ty*>(_Allocate<_New_alignof<_Ty>>(_Get_size_of_n<sizeof(_Ty)>(_Count)));

  0008f	e8 00 00 00 00	 call	 ??$_Allocate@$07U_Default_allocate_traits@std@@$0A@@std@@YAPAXI@Z ; std::_Allocate<8,std::_Default_allocate_traits,0>
  00094	8b f8		 mov	 edi, eax
  00096	83 c4 04	 add	 esp, 4
; File C:\Program Files (x86)\Microsoft Visual Studio\2019\Community\VC\Tools\MSVC\14.27.29110\include\vector

; 749  :         _Alty_traits::construct(_Al, _Unfancy(_Newvec + _Whereoff), _STD forward<_Valty>(_Val)...);

  00099	8b 45 fc	 mov	 eax, DWORD PTR __Whereoff$1$[ebp]
  0009c	8d 04 40	 lea	 eax, DWORD PTR [eax+eax*2]
  0009f	8d 0c c7	 lea	 ecx, DWORD PTR [edi+eax*8]
; File C:\Program Files (x86)\Microsoft Visual Studio\2019\Community\VC\Tools\MSVC\14.27.29110\include\xmemory

; 694  :         ::new (const_cast<void*>(static_cast<const volatile void*>(_Ptr))) _Objty(_STD forward<_Types>(_Args)...);

  000a2	8b 45 0c	 mov	 eax, DWORD PTR _<_Val_0>$[ebp]
; File C:\Program Files (x86)\Microsoft Visual Studio\2019\Community\VC\Tools\MSVC\14.27.29110\include\vector

; 749  :         _Alty_traits::construct(_Al, _Unfancy(_Newvec + _Whereoff), _STD forward<_Valty>(_Val)...);

  000a5	89 4d fc	 mov	 DWORD PTR tv376[ebp], ecx
; File C:\Program Files (x86)\Microsoft Visual Studio\2019\Community\VC\Tools\MSVC\14.27.29110\include\xmemory

; 694  :         ::new (const_cast<void*>(static_cast<const volatile void*>(_Ptr))) _Objty(_STD forward<_Types>(_Args)...);

  000a8	0f 10 00	 movups	 xmm0, XMMWORD PTR [eax]
  000ab	0f 11 01	 movups	 XMMWORD PTR [ecx], xmm0
  000ae	f3 0f 7e 40 10	 movq	 xmm0, QWORD PTR [eax+16]
; File C:\Program Files (x86)\Microsoft Visual Studio\2019\Community\VC\Tools\MSVC\14.27.29110\include\vector

; 752  :         if (_Whereptr == _Mylast) { // at back, provide strong guarantee

  000b3	8b 45 08	 mov	 eax, DWORD PTR __Whereptr$[ebp]
; File C:\Program Files (x86)\Microsoft Visual Studio\2019\Community\VC\Tools\MSVC\14.27.29110\include\xmemory

; 694  :         ::new (const_cast<void*>(static_cast<const volatile void*>(_Ptr))) _Objty(_STD forward<_Types>(_Args)...);

  000b6	66 0f d6 41 10	 movq	 QWORD PTR [ecx+16], xmm0
; File C:\Program Files (x86)\Microsoft Visual Studio\2019\Community\VC\Tools\MSVC\14.27.29110\include\vector

; 752  :         if (_Whereptr == _Mylast) { // at back, provide strong guarantee

  000bb	8b 56 04	 mov	 edx, DWORD PTR [esi+4]
  000be	8b 0e		 mov	 ecx, DWORD PTR [esi]
  000c0	3b c2		 cmp	 eax, edx
  000c2	75 04		 jne	 SHORT $LN4@Emplace_re

; 1597 :         _Uninitialized_move(_First, _Last, _Dest, _Getal());

  000c4	8b c7		 mov	 eax, edi

; 753  :             _Umove_if_noexcept(_Myfirst, _Mylast, _Newvec);
; 754  :         } else { // provide basic guarantee

  000c6	eb 18		 jmp	 SHORT $LN5@Emplace_re
$LN4@Emplace_re:

; 1592 :         return _Uninitialized_move(_First, _Last, _Dest, _Getal());

  000c8	56		 push	 esi
  000c9	57		 push	 edi
  000ca	50		 push	 eax
  000cb	51		 push	 ecx
  000cc	e8 00 00 00 00	 call	 ??$_Uninitialized_move@PAUSPDTVertex@@V?$allocator@USPDTVertex@@@std@@@std@@YAPAUSPDTVertex@@QAU1@0PAU1@AAV?$allocator@USPDTVertex@@@0@@Z ; std::_Uninitialized_move<SPDTVertex *,std::allocator<SPDTVertex> >

; 755  :             _Umove(_Myfirst, _Whereptr, _Newvec);
; 756  :             _Constructed_first = _Newvec;
; 757  :             _Umove(_Whereptr, _Mylast, _Newvec + _Whereoff + 1);

  000d1	8b 45 fc	 mov	 eax, DWORD PTR tv376[ebp]

; 1592 :         return _Uninitialized_move(_First, _Last, _Dest, _Getal());

  000d4	83 c4 10	 add	 esp, 16			; 00000010H
  000d7	8b 4d 08	 mov	 ecx, DWORD PTR __Whereptr$[ebp]

; 755  :             _Umove(_Myfirst, _Whereptr, _Newvec);
; 756  :             _Constructed_first = _Newvec;
; 757  :             _Umove(_Whereptr, _Mylast, _Newvec + _Whereoff + 1);

  000da	83 c0 18	 add	 eax, 24			; 00000018H

; 1592 :         return _Uninitialized_move(_First, _Last, _Dest, _Getal());

  000dd	8b 56 04	 mov	 edx, DWORD PTR [esi+4]
$LN5@Emplace_re:

; 755  :             _Umove(_Myfirst, _Whereptr, _Newvec);
; 756  :             _Constructed_first = _Newvec;
; 757  :             _Umove(_Whereptr, _Mylast, _Newvec + _Whereoff + 1);

  000e0	56		 push	 esi
  000e1	50		 push	 eax
  000e2	52		 push	 edx
  000e3	51		 push	 ecx
  000e4	e8 00 00 00 00	 call	 ??$_Uninitialized_move@PAUSPDTVertex@@V?$allocator@USPDTVertex@@@std@@@std@@YAPAUSPDTVertex@@QAU1@0PAU1@AAV?$allocator@USPDTVertex@@@0@@Z ; std::_Uninitialized_move<SPDTVertex *,std::allocator<SPDTVertex> >

; 1675 :         if (_Myfirst) { // destroy and deallocate old array

  000e9	8b 06		 mov	 eax, DWORD PTR [esi]

; 755  :             _Umove(_Myfirst, _Whereptr, _Newvec);
; 756  :             _Constructed_first = _Newvec;
; 757  :             _Umove(_Whereptr, _Mylast, _Newvec + _Whereoff + 1);

  000eb	83 c4 10	 add	 esp, 16			; 00000010H

; 1675 :         if (_Myfirst) { // destroy and deallocate old array

  000ee	85 c0		 test	 eax, eax
  000f0	74 27		 je	 SHORT $LN35@Emplace_re

; 1676 :             _Destroy(_Myfirst, _Mylast);
; 1677 :             _Getal().deallocate(_Myfirst, static_cast<size_type>(_Myend - _Myfirst));

  000f2	8b 4e 08	 mov	 ecx, DWORD PTR [esi+8]
  000f5	2b c8		 sub	 ecx, eax
  000f7	b8 ab aa aa 2a	 mov	 eax, 715827883		; 2aaaaaabH
  000fc	f7 e9		 imul	 ecx
  000fe	c1 fa 02	 sar	 edx, 2
  00101	8b c2		 mov	 eax, edx
  00103	c1 e8 1f	 shr	 eax, 31			; 0000001fH
  00106	03 c2		 add	 eax, edx
; File C:\Program Files (x86)\Microsoft Visual Studio\2019\Community\VC\Tools\MSVC\14.27.29110\include\xmemory

; 803  :         _Deallocate<_New_alignof<_Ty>>(_Ptr, sizeof(_Ty) * _Count);

  00108	8d 04 40	 lea	 eax, DWORD PTR [eax+eax*2]
  0010b	c1 e0 03	 shl	 eax, 3
  0010e	50		 push	 eax
  0010f	ff 36		 push	 DWORD PTR [esi]
  00111	e8 00 00 00 00	 call	 ??$_Deallocate@$07$0A@@std@@YAXPAXI@Z ; std::_Deallocate<8,0>
  00116	83 c4 08	 add	 esp, 8
$LN35@Emplace_re:
; File C:\Program Files (x86)\Microsoft Visual Studio\2019\Community\VC\Tools\MSVC\14.27.29110\include\vector

; 766  :         return _Newvec + _Whereoff;

  00119	8b 45 fc	 mov	 eax, DWORD PTR tv376[ebp]

; 1681 :         _Mylast  = _Newvec + _Newsize;

  0011c	8d 0c 5b	 lea	 ecx, DWORD PTR [ebx+ebx*2]
  0011f	8d 0c cf	 lea	 ecx, DWORD PTR [edi+ecx*8]
  00122	89 3e		 mov	 DWORD PTR [esi], edi
  00124	89 4e 04	 mov	 DWORD PTR [esi+4], ecx

; 1682 :         _Myend   = _Newvec + _Newcapacity;

  00127	8b 4d f8	 mov	 ecx, DWORD PTR tv377[ebp]
  0012a	03 cf		 add	 ecx, edi

; 766  :         return _Newvec + _Whereoff;

  0012c	5f		 pop	 edi

; 1682 :         _Myend   = _Newvec + _Newcapacity;

  0012d	89 4e 08	 mov	 DWORD PTR [esi+8], ecx

; 766  :         return _Newvec + _Whereoff;

  00130	5e		 pop	 esi
  00131	5b		 pop	 ebx

; 767  :     }

  00132	8b e5		 mov	 esp, ebp
  00134	5d		 pop	 ebp
  00135	c2 08 00	 ret	 8
$LN41@Emplace_re:

; 738  :             _Xlength();

  00138	e8 00 00 00 00	 call	 ?_Xlength@?$vector@USPDTVertex@@V?$allocator@USPDTVertex@@@std@@@std@@CAXXZ ; std::vector<SPDTVertex,std::allocator<SPDTVertex> >::_Xlength
$LN42@Emplace_re:
; File C:\Program Files (x86)\Microsoft Visual Studio\2019\Community\VC\Tools\MSVC\14.27.29110\include\xmemory

; 61   :             _Throw_bad_array_new_length(); // multiply overflow

  0013d	e8 00 00 00 00	 call	 ?_Throw_bad_array_new_length@std@@YAXXZ ; std::_Throw_bad_array_new_length
$LN39@Emplace_re:
  00142	cc		 int	 3
??$_Emplace_reallocate@ABUSPDTVertex@@@?$vector@USPDTVertex@@V?$allocator@USPDTVertex@@@std@@@std@@QAEPAUSPDTVertex@@QAU2@ABU2@@Z ENDP ; std::vector<SPDTVertex,std::allocator<SPDTVertex> >::_Emplace_reallocate<SPDTVertex const &>
_TEXT	ENDS
; Function compile flags: /Ogtp
; File C:\Program Files (x86)\Microsoft Visual Studio\2019\Community\VC\Tools\MSVC\14.27.29110\include\vector
;	COMDAT ?_Xlength@?$vector@USPDTVertex@@V?$allocator@USPDTVertex@@@std@@@std@@CAXXZ
_TEXT	SEGMENT
?_Xlength@?$vector@USPDTVertex@@V?$allocator@USPDTVertex@@@std@@@std@@CAXXZ PROC ; std::vector<SPDTVertex,std::allocator<SPDTVertex> >::_Xlength, COMDAT

; 1704 :         _Xlength_error("vector too long");

  00000	68 00 00 00 00	 push	 OFFSET ??_C@_0BA@FOIKENOD@vector?5too?5long@
  00005	e8 00 00 00 00	 call	 ?_Xlength_error@std@@YAXPBD@Z ; std::_Xlength_error
$LN3@Xlength:
  0000a	cc		 int	 3
?_Xlength@?$vector@USPDTVertex@@V?$allocator@USPDTVertex@@@std@@@std@@CAXXZ ENDP ; std::vector<SPDTVertex,std::allocator<SPDTVertex> >::_Xlength
_TEXT	ENDS
; Function compile flags: /Ogtp
; File C:\Program Files (x86)\Microsoft Visual Studio\2019\Community\VC\Tools\MSVC\14.27.29110\include\vector
; File C:\Program Files (x86)\Microsoft Visual Studio\2019\Community\VC\Tools\MSVC\14.27.29110\include\xmemory
; File C:\Program Files (x86)\Microsoft Visual Studio\2019\Community\VC\Tools\MSVC\14.27.29110\include\vector
; File C:\Program Files (x86)\Microsoft Visual Studio\2019\Community\VC\Tools\MSVC\14.27.29110\include\xmemory
; File C:\Program Files (x86)\Microsoft Visual Studio\2019\Community\VC\Tools\MSVC\14.27.29110\include\vector
;	COMDAT ??1?$vector@USPDTVertex@@V?$allocator@USPDTVertex@@@std@@@std@@QAE@XZ
_TEXT	SEGMENT
??1?$vector@USPDTVertex@@V?$allocator@USPDTVertex@@@std@@@std@@QAE@XZ PROC ; std::vector<SPDTVertex,std::allocator<SPDTVertex> >::~vector<SPDTVertex,std::allocator<SPDTVertex> >, COMDAT
; _this$ = ecx

; 672  :     ~vector() noexcept {

  00000	56		 push	 esi
  00001	8b f1		 mov	 esi, ecx

; 1693 :         if (_Myfirst) { // destroy and deallocate old array

  00003	8b 0e		 mov	 ecx, DWORD PTR [esi]
  00005	85 c9		 test	 ecx, ecx
  00007	74 3a		 je	 SHORT $LN4@vector

; 1694 :             _Destroy(_Myfirst, _Mylast);
; 1695 :             _Getal().deallocate(_Myfirst, static_cast<size_type>(_Myend - _Myfirst));

  00009	8b 56 08	 mov	 edx, DWORD PTR [esi+8]
  0000c	b8 ab aa aa 2a	 mov	 eax, 715827883		; 2aaaaaabH
  00011	2b d1		 sub	 edx, ecx
  00013	f7 ea		 imul	 edx
  00015	c1 fa 02	 sar	 edx, 2
  00018	8b c2		 mov	 eax, edx
  0001a	c1 e8 1f	 shr	 eax, 31			; 0000001fH
  0001d	03 c2		 add	 eax, edx
; File C:\Program Files (x86)\Microsoft Visual Studio\2019\Community\VC\Tools\MSVC\14.27.29110\include\xmemory

; 803  :         _Deallocate<_New_alignof<_Ty>>(_Ptr, sizeof(_Ty) * _Count);

  0001f	8d 04 40	 lea	 eax, DWORD PTR [eax+eax*2]
  00022	c1 e0 03	 shl	 eax, 3
  00025	50		 push	 eax
  00026	51		 push	 ecx
  00027	e8 00 00 00 00	 call	 ??$_Deallocate@$07$0A@@std@@YAXPAXI@Z ; std::_Deallocate<8,0>
; File C:\Program Files (x86)\Microsoft Visual Studio\2019\Community\VC\Tools\MSVC\14.27.29110\include\vector

; 1697 :             _Myfirst = pointer();

  0002c	c7 06 00 00 00
	00		 mov	 DWORD PTR [esi], 0
; File C:\Program Files (x86)\Microsoft Visual Studio\2019\Community\VC\Tools\MSVC\14.27.29110\include\xmemory

; 803  :         _Deallocate<_New_alignof<_Ty>>(_Ptr, sizeof(_Ty) * _Count);

  00032	83 c4 08	 add	 esp, 8
; File C:\Program Files (x86)\Microsoft Visual Studio\2019\Community\VC\Tools\MSVC\14.27.29110\include\vector

; 1698 :             _Mylast  = pointer();

  00035	c7 46 04 00 00
	00 00		 mov	 DWORD PTR [esi+4], 0

; 1699 :             _Myend   = pointer();

  0003c	c7 46 08 00 00
	00 00		 mov	 DWORD PTR [esi+8], 0
$LN4@vector:
  00043	5e		 pop	 esi

; 673  :         _Tidy();
; 674  : #if _ITERATOR_DEBUG_LEVEL != 0
; 675  :         auto&& _Alproxy = _GET_PROXY_ALLOCATOR(_Alty, _Getal());
; 676  :         _Delete_plain_internal(_Alproxy, _STD exchange(_Mypair._Myval2._Myproxy, nullptr));
; 677  : #endif // _ITERATOR_DEBUG_LEVEL != 0
; 678  :     }

  00044	c3		 ret	 0
??1?$vector@USPDTVertex@@V?$allocator@USPDTVertex@@@std@@@std@@QAE@XZ ENDP ; std::vector<SPDTVertex,std::allocator<SPDTVertex> >::~vector<SPDTVertex,std::allocator<SPDTVertex> >
_TEXT	ENDS
; Function compile flags: /Ogtp
; File C:\DS Project\DS Files\Source\ClientSource\Client\eterPythonLib\PythonGraphic.cpp
;	COMDAT ?GenScreenShotTag@@YAXPBDKPADI@Z
_TEXT	SEGMENT
_src$ = 8						; size = 4
_crc32$ = 12						; size = 4
_leaf$ = 16						; size = 4
_leafLen$ = 20						; size = 4
?GenScreenShotTag@@YAXPBDKPADI@Z PROC			; GenScreenShotTag, COMDAT

; 158  : {

  00000	55		 push	 ebp
  00001	8b ec		 mov	 ebp, esp
  00003	56		 push	 esi

; 159  : 	const char* p = src;

  00004	8b 75 08	 mov	 esi, DWORD PTR _src$[ebp]

; 160  : 	const char* n = p;
; 161  : 	while (n = strchr(p, '\\'))

  00007	6a 5c		 push	 92			; 0000005cH
  00009	56		 push	 esi
  0000a	e8 00 00 00 00	 call	 _strchr
  0000f	83 c4 08	 add	 esp, 8
  00012	85 c0		 test	 eax, eax
  00014	74 12		 je	 SHORT $LN3@GenScreenS
$LL2@GenScreenS:

; 162  : 		p = n + 1;

  00016	8d 70 01	 lea	 esi, DWORD PTR [eax+1]
  00019	6a 5c		 push	 92			; 0000005cH
  0001b	56		 push	 esi
  0001c	e8 00 00 00 00	 call	 _strchr
  00021	83 c4 08	 add	 esp, 8
  00024	85 c0		 test	 eax, eax
  00026	75 ee		 jne	 SHORT $LL2@GenScreenS
$LN3@GenScreenS:

; 163  : 
; 164  : 	_snprintf(leaf, leafLen, "YMIR_METIN2:%s:0x%.8x", p, crc32);

  00028	ff 75 0c	 push	 DWORD PTR _crc32$[ebp]
  0002b	56		 push	 esi
  0002c	68 00 00 00 00	 push	 OFFSET ??_C@_0BG@HJKBJNEI@YMIR_METIN2?3?$CFs?30x?$CF?48x@
  00031	ff 75 14	 push	 DWORD PTR _leafLen$[ebp]
  00034	ff 75 10	 push	 DWORD PTR _leaf$[ebp]
  00037	e8 00 00 00 00	 call	 __snprintf
  0003c	83 c4 14	 add	 esp, 20			; 00000014H
  0003f	5e		 pop	 esi

; 165  : }

  00040	5d		 pop	 ebp
  00041	c3		 ret	 0
?GenScreenShotTag@@YAXPBDKPADI@Z ENDP			; GenScreenShotTag
_TEXT	ENDS
; Function compile flags: /Ogtp
; File C:\Program Files (x86)\Microsoft Visual Studio\2019\Community\VC\Tools\MSVC\14.27.29110\include\xmemory
;	COMDAT ??$_Allocate_manually_vector_aligned@U_Default_allocate_traits@std@@@std@@YAPAXI@Z
_TEXT	SEGMENT
__Bytes$ = 8						; size = 4
??$_Allocate_manually_vector_aligned@U_Default_allocate_traits@std@@@std@@YAPAXI@Z PROC ; std::_Allocate_manually_vector_aligned<std::_Default_allocate_traits>, COMDAT

; 113  : __declspec(allocator) void* _Allocate_manually_vector_aligned(const size_t _Bytes) {

  00000	55		 push	 ebp
  00001	8b ec		 mov	 ebp, esp

; 114  :     // allocate _Bytes manually aligned to at least _Big_allocation_alignment
; 115  :     const size_t _Block_size = _Non_user_size + _Bytes;

  00003	8b 45 08	 mov	 eax, DWORD PTR __Bytes$[ebp]
  00006	8d 48 23	 lea	 ecx, DWORD PTR [eax+35]

; 116  :     if (_Block_size <= _Bytes) {

  00009	3b c8		 cmp	 ecx, eax
  0000b	0f 86 00 00 00
	00		 jbe	 ?_Throw_bad_array_new_length@std@@YAXXZ ; std::_Throw_bad_array_new_length

; 77   :         return ::operator new(_Bytes);

  00011	51		 push	 ecx
  00012	e8 00 00 00 00	 call	 ??2@YAPAXI@Z		; operator new

; 117  :         _Throw_bad_array_new_length(); // add overflow
; 118  :     }
; 119  : 
; 120  :     const uintptr_t _Ptr_container = reinterpret_cast<uintptr_t>(_Traits::_Allocate(_Block_size));

  00017	8b c8		 mov	 ecx, eax

; 77   :         return ::operator new(_Bytes);

  00019	83 c4 04	 add	 esp, 4

; 121  :     _STL_VERIFY(_Ptr_container != 0, "invalid argument"); // validate even in release since we're doing p[-1]

  0001c	85 c9		 test	 ecx, ecx
  0001e	74 0b		 je	 SHORT $LN7@Allocate_m

; 122  :     void* const _Ptr = reinterpret_cast<void*>((_Ptr_container + _Non_user_size) & ~(_Big_allocation_alignment - 1));

  00020	8d 41 23	 lea	 eax, DWORD PTR [ecx+35]
  00023	83 e0 e0	 and	 eax, -32		; ffffffe0H

; 123  :     static_cast<uintptr_t*>(_Ptr)[-1] = _Ptr_container;

  00026	89 48 fc	 mov	 DWORD PTR [eax-4], ecx

; 124  : 
; 125  : #ifdef _DEBUG
; 126  :     static_cast<uintptr_t*>(_Ptr)[-2] = _Big_allocation_sentinel;
; 127  : #endif // _DEBUG
; 128  :     return _Ptr;
; 129  : }

  00029	5d		 pop	 ebp
  0002a	c3		 ret	 0
$LN7@Allocate_m:

; 121  :     _STL_VERIFY(_Ptr_container != 0, "invalid argument"); // validate even in release since we're doing p[-1]

  0002b	e9 00 00 00 00	 jmp	 __invalid_parameter_noinfo_noreturn
??$_Allocate_manually_vector_aligned@U_Default_allocate_traits@std@@@std@@YAPAXI@Z ENDP ; std::_Allocate_manually_vector_aligned<std::_Default_allocate_traits>
_TEXT	ENDS
; Function compile flags: /Ogtp
; File C:\Program Files (x86)\Microsoft Visual Studio\2019\Community\VC\Tools\MSVC\14.27.29110\include\xmemory
;	COMDAT ??$_Allocate@$07U_Default_allocate_traits@std@@$0A@@std@@YAPAXI@Z
_TEXT	SEGMENT
__Bytes$ = 8						; size = 4
??$_Allocate@$07U_Default_allocate_traits@std@@$0A@@std@@YAPAXI@Z PROC ; std::_Allocate<8,std::_Default_allocate_traits,0>, COMDAT

; 197  : __declspec(allocator) void* _Allocate(const size_t _Bytes) {

  00000	55		 push	 ebp
  00001	8b ec		 mov	 ebp, esp

; 198  :     // allocate _Bytes when !_HAS_ALIGNED_NEW || _Align <= __STDCPP_DEFAULT_NEW_ALIGNMENT__
; 199  : #if defined(_M_IX86) || defined(_M_X64)
; 200  :     if (_Bytes >= _Big_allocation_threshold) { // boost the alignment of big allocations to help autovectorization

  00003	8b 45 08	 mov	 eax, DWORD PTR __Bytes$[ebp]
  00006	3d 00 10 00 00	 cmp	 eax, 4096		; 00001000H
  0000b	72 09		 jb	 SHORT $LN2@Allocate

; 201  :         return _Allocate_manually_vector_aligned<_Traits>(_Bytes);

  0000d	89 45 08	 mov	 DWORD PTR __Bytes$[ebp], eax

; 210  : }

  00010	5d		 pop	 ebp

; 201  :         return _Allocate_manually_vector_aligned<_Traits>(_Bytes);

  00011	e9 00 00 00 00	 jmp	 ??$_Allocate_manually_vector_aligned@U_Default_allocate_traits@std@@@std@@YAPAXI@Z ; std::_Allocate_manually_vector_aligned<std::_Default_allocate_traits>
$LN2@Allocate:

; 202  :     }
; 203  : #endif // defined(_M_IX86) || defined(_M_X64)
; 204  : 
; 205  :     if (_Bytes != 0) {

  00016	85 c0		 test	 eax, eax
  00018	74 09		 je	 SHORT $LN3@Allocate

; 77   :         return ::operator new(_Bytes);

  0001a	89 45 08	 mov	 DWORD PTR __Bytes$[ebp], eax

; 210  : }

  0001d	5d		 pop	 ebp

; 77   :         return ::operator new(_Bytes);

  0001e	e9 00 00 00 00	 jmp	 ??2@YAPAXI@Z		; operator new
$LN3@Allocate:

; 206  :         return _Traits::_Allocate(_Bytes);
; 207  :     }
; 208  : 
; 209  :     return nullptr;

  00023	33 c0		 xor	 eax, eax

; 210  : }

  00025	5d		 pop	 ebp
  00026	c3		 ret	 0
??$_Allocate@$07U_Default_allocate_traits@std@@$0A@@std@@YAPAXI@Z ENDP ; std::_Allocate<8,std::_Default_allocate_traits,0>
_TEXT	ENDS
; Function compile flags: /Ogtp
; File C:\Program Files (x86)\Microsoft Visual Studio\2019\Community\VC\Tools\MSVC\14.27.29110\include\xmemory
;	COMDAT ??$_Deallocate@$07$0A@@std@@YAXPAXI@Z
_TEXT	SEGMENT
__Ptr$ = 8						; size = 4
__Bytes$ = 12						; size = 4
??$_Deallocate@$07$0A@@std@@YAXPAXI@Z PROC		; std::_Deallocate<8,0>, COMDAT

; 213  : void _Deallocate(void* _Ptr, size_t _Bytes) noexcept {

  00000	55		 push	 ebp
  00001	8b ec		 mov	 ebp, esp

; 214  :     // deallocate storage allocated by _Allocate when !_HAS_ALIGNED_NEW || _Align <= __STDCPP_DEFAULT_NEW_ALIGNMENT__
; 215  : #if defined(_M_IX86) || defined(_M_X64)
; 216  :     if (_Bytes >= _Big_allocation_threshold) { // boost the alignment of big allocations to help autovectorization

  00003	8b 4d 0c	 mov	 ecx, DWORD PTR __Bytes$[ebp]
  00006	81 f9 00 10 00
	00		 cmp	 ecx, 4096		; 00001000H
  0000c	72 18		 jb	 SHORT $LN15@Deallocate

; 137  :     const uintptr_t _Ptr_container   = _Ptr_user[-1];

  0000e	8b 45 08	 mov	 eax, DWORD PTR __Ptr$[ebp]
  00011	83 c1 23	 add	 ecx, 35			; 00000023H
  00014	8b 50 fc	 mov	 edx, DWORD PTR [eax-4]

; 138  : 
; 139  :     // If the following asserts, it likely means that we are performing
; 140  :     // an aligned delete on memory coming from an unaligned allocation.
; 141  :     _STL_ASSERT(_Ptr_user[-2] == _Big_allocation_sentinel, "invalid argument");
; 142  : 
; 143  :     // Extra paranoia on aligned allocation/deallocation; ensure _Ptr_container is
; 144  :     // in range [_Min_back_shift, _Non_user_size]
; 145  : #ifdef _DEBUG
; 146  :     constexpr uintptr_t _Min_back_shift = 2 * sizeof(void*);
; 147  : #else // ^^^ _DEBUG ^^^ // vvv !_DEBUG vvv
; 148  :     constexpr uintptr_t _Min_back_shift = sizeof(void*);
; 149  : #endif // _DEBUG
; 150  :     const uintptr_t _Back_shift = reinterpret_cast<uintptr_t>(_Ptr) - _Ptr_container;

  00017	2b c2		 sub	 eax, edx

; 151  :     _STL_VERIFY(_Back_shift >= _Min_back_shift && _Back_shift <= _Non_user_size, "invalid argument");

  00019	83 c0 fc	 add	 eax, -4			; fffffffcH
  0001c	83 f8 1f	 cmp	 eax, 31			; 0000001fH
  0001f	76 08		 jbe	 SHORT $LN13@Deallocate
  00021	e9 00 00 00 00	 jmp	 __invalid_parameter_noinfo_noreturn
$LN15@Deallocate:

; 214  :     // deallocate storage allocated by _Allocate when !_HAS_ALIGNED_NEW || _Align <= __STDCPP_DEFAULT_NEW_ALIGNMENT__
; 215  : #if defined(_M_IX86) || defined(_M_X64)
; 216  :     if (_Bytes >= _Big_allocation_threshold) { // boost the alignment of big allocations to help autovectorization

  00026	8b 55 08	 mov	 edx, DWORD PTR __Ptr$[ebp]
$LN13@Deallocate:

; 217  :         _Adjust_manually_vector_aligned(_Ptr, _Bytes);
; 218  :     }
; 219  : #endif // defined(_M_IX86) || defined(_M_X64)
; 220  : 
; 221  :     ::operator delete(_Ptr, _Bytes);

  00029	89 4d 0c	 mov	 DWORD PTR __Bytes$[ebp], ecx
  0002c	89 55 08	 mov	 DWORD PTR __Ptr$[ebp], edx

; 222  : }

  0002f	5d		 pop	 ebp

; 217  :         _Adjust_manually_vector_aligned(_Ptr, _Bytes);
; 218  :     }
; 219  : #endif // defined(_M_IX86) || defined(_M_X64)
; 220  : 
; 221  :     ::operator delete(_Ptr, _Bytes);

  00030	e9 00 00 00 00	 jmp	 ??3@YAXPAXI@Z		; operator delete
??$_Deallocate@$07$0A@@std@@YAXPAXI@Z ENDP		; std::_Deallocate<8,0>
_TEXT	ENDS
; Function compile flags: /Ogtp
;	COMDAT ??_GCPythonGraphic@@UAEPAXI@Z
_TEXT	SEGMENT
___flags$ = 8						; size = 4
??_GCPythonGraphic@@UAEPAXI@Z PROC			; CPythonGraphic::`scalar deleting destructor', COMDAT
; _this$ = ecx
  00000	55		 push	 ebp
  00001	8b ec		 mov	 ebp, esp
  00003	56		 push	 esi
  00004	8b f1		 mov	 esi, ecx
  00006	e8 00 00 00 00	 call	 ??1CPythonGraphic@@UAE@XZ ; CPythonGraphic::~CPythonGraphic
  0000b	f6 45 08 01	 test	 BYTE PTR ___flags$[ebp], 1
  0000f	74 0e		 je	 SHORT $LN4@scalar
  00011	68 a0 00 00 00	 push	 160			; 000000a0H
  00016	56		 push	 esi
  00017	e8 00 00 00 00	 call	 ??3@YAXPAXI@Z		; operator delete
  0001c	83 c4 08	 add	 esp, 8
$LN4@scalar:
  0001f	8b c6		 mov	 eax, esi
  00021	5e		 pop	 esi
  00022	5d		 pop	 ebp
  00023	c2 04 00	 ret	 4
??_GCPythonGraphic@@UAEPAXI@Z ENDP			; CPythonGraphic::`scalar deleting destructor'
_TEXT	ENDS
; Function compile flags: /Ogtp
;	COMDAT ??1?$stack@USState@CPythonGraphic@@V?$deque@USState@CPythonGraphic@@V?$allocator@USState@CPythonGraphic@@@std@@@std@@@std@@QAE@XZ
_TEXT	SEGMENT
??1?$stack@USState@CPythonGraphic@@V?$deque@USState@CPythonGraphic@@V?$allocator@USState@CPythonGraphic@@@std@@@std@@@std@@QAE@XZ PROC ; std::stack<CPythonGraphic::SState,std::deque<CPythonGraphic::SState,std::allocator<CPythonGraphic::SState> > >::~stack<CPythonGraphic::SState,std::deque<CPythonGraphic::SState,std::allocator<CPythonGraphic::SState> > >, COMDAT
; _this$ = ecx
  00000	e9 00 00 00 00	 jmp	 ??1?$deque@USState@CPythonGraphic@@V?$allocator@USState@CPythonGraphic@@@std@@@std@@QAE@XZ ; std::deque<CPythonGraphic::SState,std::allocator<CPythonGraphic::SState> >::~deque<CPythonGraphic::SState,std::allocator<CPythonGraphic::SState> >
??1?$stack@USState@CPythonGraphic@@V?$deque@USState@CPythonGraphic@@V?$allocator@USState@CPythonGraphic@@@std@@@std@@@std@@QAE@XZ ENDP ; std::stack<CPythonGraphic::SState,std::deque<CPythonGraphic::SState,std::allocator<CPythonGraphic::SState> > >::~stack<CPythonGraphic::SState,std::deque<CPythonGraphic::SState,std::allocator<CPythonGraphic::SState> > >
_TEXT	ENDS
; Function compile flags: /Ogtp
; File C:\Program Files (x86)\Microsoft Visual Studio\2019\Community\VC\Tools\MSVC\14.27.29110\include\deque
;	COMDAT ?_Xlen@?$deque@USState@CPythonGraphic@@V?$allocator@USState@CPythonGraphic@@@std@@@std@@ABEXXZ
_TEXT	SEGMENT
?_Xlen@?$deque@USState@CPythonGraphic@@V?$allocator@USState@CPythonGraphic@@@std@@@std@@ABEXXZ PROC ; std::deque<CPythonGraphic::SState,std::allocator<CPythonGraphic::SState> >::_Xlen, COMDAT
; _this$ = ecx

; 1418 :         _Xlength_error("deque<T> too long");

  00000	68 00 00 00 00	 push	 OFFSET ??_C@_0BC@KBDMBKEH@deque?$DMT?$DO?5too?5long@
  00005	e8 00 00 00 00	 call	 ?_Xlength_error@std@@YAXPBD@Z ; std::_Xlength_error
$LN3@Xlen:
  0000a	cc		 int	 3
?_Xlen@?$deque@USState@CPythonGraphic@@V?$allocator@USState@CPythonGraphic@@@std@@@std@@ABEXXZ ENDP ; std::deque<CPythonGraphic::SState,std::allocator<CPythonGraphic::SState> >::_Xlen
_TEXT	ENDS
; Function compile flags: /Ogtp
; File C:\Program Files (x86)\Microsoft Visual Studio\2019\Community\VC\Tools\MSVC\14.27.29110\include\deque
; File C:\Program Files (x86)\Microsoft Visual Studio\2019\Community\VC\Tools\MSVC\14.27.29110\include\xmemory
; File C:\Program Files (x86)\Microsoft Visual Studio\2019\Community\VC\Tools\MSVC\14.27.29110\include\deque
; File C:\Program Files (x86)\Microsoft Visual Studio\2019\Community\VC\Tools\MSVC\14.27.29110\include\xmemory
; File C:\Program Files (x86)\Microsoft Visual Studio\2019\Community\VC\Tools\MSVC\14.27.29110\include\utility
; File C:\Program Files (x86)\Microsoft Visual Studio\2019\Community\VC\Tools\MSVC\14.27.29110\include\deque
; File C:\Program Files (x86)\Microsoft Visual Studio\2019\Community\VC\Tools\MSVC\14.27.29110\include\utility
; File C:\Program Files (x86)\Microsoft Visual Studio\2019\Community\VC\Tools\MSVC\14.27.29110\include\deque
;	COMDAT ??1?$deque@USState@CPythonGraphic@@V?$allocator@USState@CPythonGraphic@@@std@@@std@@QAE@XZ
_TEXT	SEGMENT
__Proxy_allocator$ = -1					; size = 1
??1?$deque@USState@CPythonGraphic@@V?$allocator@USState@CPythonGraphic@@@std@@@std@@QAE@XZ PROC ; std::deque<CPythonGraphic::SState,std::allocator<CPythonGraphic::SState> >::~deque<CPythonGraphic::SState,std::allocator<CPythonGraphic::SState> >, COMDAT
; _this$ = ecx

; 868  :     ~deque() noexcept {

  00000	55		 push	 ebp
  00001	8b ec		 mov	 ebp, esp
  00003	51		 push	 ecx
  00004	56		 push	 esi
  00005	8b f1		 mov	 esi, ecx

; 1009 :         return _Mysize() == 0;

  00007	8b 4e 10	 mov	 ecx, DWORD PTR [esi+16]
  0000a	85 c9		 test	 ecx, ecx

; 1468 :         while (!empty()) {

  0000c	74 11		 je	 SHORT $LN34@deque
  0000e	66 90		 npad	 2
$LL4@deque:

; 1143 :         if (--_Mysize() == 0) {

  00010	8d 41 ff	 lea	 eax, DWORD PTR [ecx-1]
  00013	89 46 10	 mov	 DWORD PTR [esi+16], eax
  00016	8b c8		 mov	 ecx, eax
  00018	85 c0		 test	 eax, eax
  0001a	75 f4		 jne	 SHORT $LL4@deque

; 1144 :             _Myoff() = 0;

  0001c	89 46 0c	 mov	 DWORD PTR [esi+12], eax
$LN34@deque:
  0001f	57		 push	 edi

; 1472 :         for (size_type _Block = _Mapsize(); 0 < _Block;) { // free storage for a block and destroy pointer

  00020	8b 7e 08	 mov	 edi, DWORD PTR [esi+8]
  00023	85 ff		 test	 edi, edi
  00025	74 1d		 je	 SHORT $LN7@deque
$LL29@deque:

; 1473 :             if (_Map()[--_Block]) { // free block and destroy its pointer

  00027	8b 46 04	 mov	 eax, DWORD PTR [esi+4]
  0002a	4f		 dec	 edi
  0002b	8b 04 b8	 mov	 eax, DWORD PTR [eax+edi*4]
  0002e	85 c0		 test	 eax, eax
  00030	74 0e		 je	 SHORT $LN9@deque
; File C:\Program Files (x86)\Microsoft Visual Studio\2019\Community\VC\Tools\MSVC\14.27.29110\include\xmemory

; 803  :         _Deallocate<_New_alignof<_Ty>>(_Ptr, sizeof(_Ty) * _Count);

  00032	68 80 00 00 00	 push	 128			; 00000080H
  00037	50		 push	 eax
  00038	e8 00 00 00 00	 call	 ??$_Deallocate@$07$0A@@std@@YAXPAXI@Z ; std::_Deallocate<8,0>
  0003d	83 c4 08	 add	 esp, 8
$LN9@deque:
; File C:\Program Files (x86)\Microsoft Visual Studio\2019\Community\VC\Tools\MSVC\14.27.29110\include\deque

; 1472 :         for (size_type _Block = _Mapsize(); 0 < _Block;) { // free storage for a block and destroy pointer

  00040	85 ff		 test	 edi, edi
  00042	75 e3		 jne	 SHORT $LL29@deque
$LN7@deque:

; 1474 :                 _Getal().deallocate(_Map()[_Block], _DEQUESIZ);
; 1475 :                 _Destroy_in_place(_Map()[_Block]);
; 1476 :             }
; 1477 :         }
; 1478 : 
; 1479 :         if (_Map() != _Mapptr()) {

  00044	8b 4e 04	 mov	 ecx, DWORD PTR [esi+4]
  00047	5f		 pop	 edi
  00048	85 c9		 test	 ecx, ecx
  0004a	74 10		 je	 SHORT $LN10@deque
; File C:\Program Files (x86)\Microsoft Visual Studio\2019\Community\VC\Tools\MSVC\14.27.29110\include\xmemory

; 803  :         _Deallocate<_New_alignof<_Ty>>(_Ptr, sizeof(_Ty) * _Count);

  0004c	8b 46 08	 mov	 eax, DWORD PTR [esi+8]
  0004f	c1 e0 02	 shl	 eax, 2
  00052	50		 push	 eax
  00053	51		 push	 ecx
  00054	e8 00 00 00 00	 call	 ??$_Deallocate@$07$0A@@std@@YAXPAXI@Z ; std::_Deallocate<8,0>
  00059	83 c4 08	 add	 esp, 8
$LN10@deque:
; File C:\Program Files (x86)\Microsoft Visual Studio\2019\Community\VC\Tools\MSVC\14.27.29110\include\utility

; 599  :     _Ty _Old_val = static_cast<_Ty&&>(_Val);

  0005c	8b 06		 mov	 eax, DWORD PTR [esi]
; File C:\Program Files (x86)\Microsoft Visual Studio\2019\Community\VC\Tools\MSVC\14.27.29110\include\deque

; 871  :         _Delete_plain_internal(_Proxy_allocator, _STD exchange(_Get_data()._Myproxy, nullptr));

  0005e	50		 push	 eax
  0005f	8d 45 ff	 lea	 eax, DWORD PTR __Proxy_allocator$[ebp]

; 1483 :         _Mapsize() = 0;

  00062	c7 46 08 00 00
	00 00		 mov	 DWORD PTR [esi+8], 0

; 871  :         _Delete_plain_internal(_Proxy_allocator, _STD exchange(_Get_data()._Myproxy, nullptr));

  00069	50		 push	 eax

; 1484 :         _Map()     = _Mapptr();

  0006a	c7 46 04 00 00
	00 00		 mov	 DWORD PTR [esi+4], 0
; File C:\Program Files (x86)\Microsoft Visual Studio\2019\Community\VC\Tools\MSVC\14.27.29110\include\utility

; 600  :     _Val         = static_cast<_Other&&>(_New_val);

  00071	c7 06 00 00 00
	00		 mov	 DWORD PTR [esi], 0
; File C:\Program Files (x86)\Microsoft Visual Studio\2019\Community\VC\Tools\MSVC\14.27.29110\include\deque

; 871  :         _Delete_plain_internal(_Proxy_allocator, _STD exchange(_Get_data()._Myproxy, nullptr));

  00077	e8 00 00 00 00	 call	 ??$_Delete_plain_internal@V?$allocator@U_Container_proxy@std@@@std@@@std@@YAXAAV?$allocator@U_Container_proxy@std@@@0@QAU_Container_proxy@0@@Z ; std::_Delete_plain_internal<std::allocator<std::_Container_proxy> >
  0007c	83 c4 08	 add	 esp, 8
  0007f	5e		 pop	 esi

; 872  :     }

  00080	8b e5		 mov	 esp, ebp
  00082	5d		 pop	 ebp
  00083	c3		 ret	 0
??1?$deque@USState@CPythonGraphic@@V?$allocator@USState@CPythonGraphic@@@std@@@std@@QAE@XZ ENDP ; std::deque<CPythonGraphic::SState,std::allocator<CPythonGraphic::SState> >::~deque<CPythonGraphic::SState,std::allocator<CPythonGraphic::SState> >
_TEXT	ENDS
; Function compile flags: /Ogtp
; File C:\DS Project\DS Files\Source\ClientSource\Client\eterPythonLib\PythonGraphic.cpp
;	COMDAT ?SetGamma@CPythonGraphic@@QAEXM@Z
_TEXT	SEGMENT
_NewRamp$ = -1752					; size = 1536
_d3dCaps$ = -216					; size = 212
__$ArrayPad$ = -4					; size = 4
_fGammaFactor$ = 8					; size = 4
?SetGamma@CPythonGraphic@@QAEXM@Z PROC			; CPythonGraphic::SetGamma, COMDAT
; _this$ = ecx

; 125  : {

  00000	55		 push	 ebp
  00001	8b ec		 mov	 ebp, esp
  00003	81 ec d8 06 00
	00		 sub	 esp, 1752		; 000006d8H
  00009	a1 00 00 00 00	 mov	 eax, DWORD PTR ___security_cookie
  0000e	33 c5		 xor	 eax, ebp
  00010	89 45 fc	 mov	 DWORD PTR __$ArrayPad$[ebp], eax

; 126  : 	D3DCAPS8		d3dCaps;
; 127  : 	D3DGAMMARAMP	NewRamp;
; 128  : 	int				ui, val;
; 129  : 
; 130  : 	ms_lpd3dDevice->GetDeviceCaps(&d3dCaps);

  00013	a1 00 00 00 00	 mov	 eax, DWORD PTR ?ms_lpd3dDevice@CGraphicBase@@1PAUIDirect3DDevice8@@A ; CGraphicBase::ms_lpd3dDevice
  00018	8d 95 28 ff ff
	ff		 lea	 edx, DWORD PTR _d3dCaps$[ebp]
  0001e	52		 push	 edx
  0001f	50		 push	 eax
  00020	8b 08		 mov	 ecx, DWORD PTR [eax]
  00022	ff 51 1c	 call	 DWORD PTR [ecx+28]

; 131  : 
; 132  : 	if (D3DCAPS2_FULLSCREENGAMMA != (d3dCaps.Caps2 & D3DCAPS2_FULLSCREENGAMMA))

  00025	f7 85 34 ff ff
	ff 00 00 02 00	 test	 DWORD PTR _d3dCaps$[ebp+12], 131072 ; 00020000H
  0002f	0f 84 7d 00 00
	00		 je	 $LN1@SetGamma

; 133  : 		return;
; 134  : 
; 135  : 	for (int i = 0; i < 256; ++i)

  00035	f3 0f 10 4d 08	 movss	 xmm1, DWORD PTR _fGammaFactor$[ebp]
  0003a	33 d2		 xor	 edx, edx
  0003c	f3 0f 10 15 00
	00 00 00	 movss	 xmm2, DWORD PTR __real@437f0000
  00044	53		 push	 ebx
  00045	56		 push	 esi
  00046	57		 push	 edi
  00047	bf ff 7f 00 00	 mov	 edi, 32767		; 00007fffH
  0004c	8d 5f 01	 lea	 ebx, DWORD PTR [edi+1]
  0004f	90		 npad	 1
$LL11@SetGamma:

; 136  : 	{
; 137  : 		val	= (int) (i * fGammaFactor * 255.0f);

  00050	66 0f 6e c2	 movd	 xmm0, edx
  00054	0f 5b c0	 cvtdq2ps xmm0, xmm0
  00057	f3 0f 59 c1	 mulss	 xmm0, xmm1
  0005b	f3 0f 59 c2	 mulss	 xmm0, xmm2
  0005f	f3 0f 2c c8	 cvttss2si ecx, xmm0

; 138  : 		ui = 0;
; 139  : 
; 140  : 		if (val > 32767)

  00063	8b f1		 mov	 esi, ecx
  00065	3b cf		 cmp	 ecx, edi
  00067	7e 07		 jle	 SHORT $LN13@SetGamma

; 141  : 		{
; 142  : 			val = val - 32767;

  00069	2b cf		 sub	 ecx, edi

; 143  : 			ui = 1;
; 144  : 		}
; 145  : 
; 146  : 		if (val > 32767)

  0006b	3b cf		 cmp	 ecx, edi
  0006d	0f 4f cf	 cmovg	 ecx, edi
$LN13@SetGamma:

; 147  : 			val = 32767;
; 148  : 
; 149  : 		NewRamp.red[i] = (WORD) (val | (32768 * ui));

  00070	33 c0		 xor	 eax, eax
  00072	3b f7		 cmp	 esi, edi
  00074	0f 4f c3	 cmovg	 eax, ebx
  00077	66 0b c1	 or	 ax, cx
  0007a	66 89 84 55 28
	f9 ff ff	 mov	 WORD PTR _NewRamp$[ebp+edx*2], ax

; 150  : 		NewRamp.green[i] = (WORD) (val | (32768 * ui));

  00082	66 89 84 55 28
	fb ff ff	 mov	 WORD PTR _NewRamp$[ebp+edx*2+512], ax

; 151  : 		NewRamp.blue[i] = (WORD) (val | (32768 * ui));

  0008a	66 89 84 55 28
	fd ff ff	 mov	 WORD PTR _NewRamp$[ebp+edx*2+1024], ax
  00092	42		 inc	 edx
  00093	81 fa 00 01 00
	00		 cmp	 edx, 256		; 00000100H
  00099	7c b5		 jl	 SHORT $LL11@SetGamma

; 152  : 	}
; 153  : 
; 154  : 	ms_lpd3dDevice->SetGammaRamp(D3DSGR_NO_CALIBRATION, &NewRamp);

  0009b	a1 00 00 00 00	 mov	 eax, DWORD PTR ?ms_lpd3dDevice@CGraphicBase@@1PAUIDirect3DDevice8@@A ; CGraphicBase::ms_lpd3dDevice
  000a0	8d 95 28 f9 ff
	ff		 lea	 edx, DWORD PTR _NewRamp$[ebp]
  000a6	52		 push	 edx
  000a7	6a 00		 push	 0
  000a9	50		 push	 eax
  000aa	8b 08		 mov	 ecx, DWORD PTR [eax]
  000ac	ff 51 48	 call	 DWORD PTR [ecx+72]
  000af	5f		 pop	 edi
  000b0	5e		 pop	 esi
  000b1	5b		 pop	 ebx
$LN1@SetGamma:

; 155  : }

  000b2	8b 4d fc	 mov	 ecx, DWORD PTR __$ArrayPad$[ebp]
  000b5	33 cd		 xor	 ecx, ebp
  000b7	e8 00 00 00 00	 call	 @__security_check_cookie@4
  000bc	8b e5		 mov	 esp, ebp
  000be	5d		 pop	 ebp
  000bf	c2 04 00	 ret	 4
?SetGamma@CPythonGraphic@@QAEXM@Z ENDP			; CPythonGraphic::SetGamma
_TEXT	ENDS
; Function compile flags: /Ogtp
; File C:\DS Project\DS Files\Source\ClientSource\Client\eterPythonLib\PythonGraphic.cpp
;	COMDAT ?GetAvailableMemory@CPythonGraphic@@QAEKXZ
_TEXT	SEGMENT
?GetAvailableMemory@CPythonGraphic@@QAEKXZ PROC		; CPythonGraphic::GetAvailableMemory, COMDAT
; _this$ = ecx

; 608  : 	return ms_lpd3dDevice->GetAvailableTextureMem();

  00000	a1 00 00 00 00	 mov	 eax, DWORD PTR ?ms_lpd3dDevice@CGraphicBase@@1PAUIDirect3DDevice8@@A ; CGraphicBase::ms_lpd3dDevice
  00005	50		 push	 eax
  00006	8b 08		 mov	 ecx, DWORD PTR [eax]
  00008	ff 51 10	 call	 DWORD PTR [ecx+16]

; 609  : }

  0000b	c3		 ret	 0
?GetAvailableMemory@CPythonGraphic@@QAEKXZ ENDP		; CPythonGraphic::GetAvailableMemory
_TEXT	ENDS
; Function compile flags: /Ogtp
; File C:\DS Project\DS Files\Source\ClientSource\Client\eterPythonLib\PythonGraphic.cpp
;	COMDAT ?SaveScreenShot@CPythonGraphic@@QAE_NPBD@Z
_TEXT	SEGMENT
_lockRect$ = -204					; size = 8
_pbyBuffer$1$ = -196					; size = 4
tv815 = -192						; size = 4
_uWidth$1$ = -188					; size = 4
_imgDescLen$1$ = -184					; size = 4
_this$1$ = -184						; size = 4
_tailSize$1$ = -180					; size = 4
_uHeight$1$ = -180					; size = 4
_uColor$1$ = -176					; size = 4
_uColor$1$ = -176					; size = 4
_c_pszFileName$GSCopy$1$ = -172				; size = 4
_pbySource$1$ = -168					; size = 4
_lpSurface$ = -164					; size = 4
_stSurfaceDesc$ = -160					; size = 32
_imgDesc$1 = -128					; size = 64
_head$2 = -64						; size = 21
_exifHeader$3 = -40					; size = 35
__$ArrayPad$ = -4					; size = 4
_c_pszFileName$ = 8					; size = 4
?SaveScreenShot@CPythonGraphic@@QAE_NPBD@Z PROC		; CPythonGraphic::SaveScreenShot, COMDAT
; _this$ = ecx

; 173  : {

  00000	55		 push	 ebp
  00001	8b ec		 mov	 ebp, esp
  00003	81 ec cc 00 00
	00		 sub	 esp, 204		; 000000ccH
  00009	a1 00 00 00 00	 mov	 eax, DWORD PTR ___security_cookie
  0000e	33 c5		 xor	 eax, ebp
  00010	89 45 fc	 mov	 DWORD PTR __$ArrayPad$[ebp], eax

; 174  : 	HRESULT hr;
; 175  : 	LPDIRECT3DSURFACE8 lpSurface;
; 176  : 	D3DSURFACE_DESC stSurfaceDesc;
; 177  : 
; 178  : 	if (FAILED(hr = ms_lpd3dDevice->GetBackBuffer(0, D3DBACKBUFFER_TYPE_MONO, &lpSurface)))

  00013	a1 00 00 00 00	 mov	 eax, DWORD PTR ?ms_lpd3dDevice@CGraphicBase@@1PAUIDirect3DDevice8@@A ; CGraphicBase::ms_lpd3dDevice
  00018	53		 push	 ebx
  00019	8b 5d 08	 mov	 ebx, DWORD PTR _c_pszFileName$[ebp]
  0001c	89 8d 48 ff ff
	ff		 mov	 DWORD PTR _this$1$[ebp], ecx
  00022	8d 8d 5c ff ff
	ff		 lea	 ecx, DWORD PTR _lpSurface$[ebp]
  00028	8b 10		 mov	 edx, DWORD PTR [eax]
  0002a	51		 push	 ecx
  0002b	6a 00		 push	 0
  0002d	6a 00		 push	 0
  0002f	50		 push	 eax
  00030	89 9d 54 ff ff
	ff		 mov	 DWORD PTR _c_pszFileName$GSCopy$1$[ebp], ebx
  00036	ff 52 40	 call	 DWORD PTR [edx+64]
  00039	85 c0		 test	 eax, eax
  0003b	79 21		 jns	 SHORT $LN21@SaveScreen

; 179  : 	{
; 180  : 		TraceError("Failed to get back buffer (0x%08x)", hr);

  0003d	50		 push	 eax
  0003e	68 00 00 00 00	 push	 OFFSET ??_C@_0CD@MBNJPOAA@Failed?5to?5get?5back?5buffer?5?$CI0x?$CF0@
  00043	e8 00 00 00 00	 call	 ?TraceError@@YAXPBDZZ	; TraceError
  00048	83 c4 08	 add	 esp, 8

; 181  : 		return false;

  0004b	32 c0		 xor	 al, al
  0004d	5b		 pop	 ebx

; 382  : 		}
; 383  : 	}
; 384  : 	return true;
; 385  : }

  0004e	8b 4d fc	 mov	 ecx, DWORD PTR __$ArrayPad$[ebp]
  00051	33 cd		 xor	 ecx, ebp
  00053	e8 00 00 00 00	 call	 @__security_check_cookie@4
  00058	8b e5		 mov	 esp, ebp
  0005a	5d		 pop	 ebp
  0005b	c2 04 00	 ret	 4
$LN21@SaveScreen:

; 182  : 	}
; 183  : 
; 184  : 	if (FAILED(hr = lpSurface->GetDesc(&stSurfaceDesc)))

  0005e	8b 85 5c ff ff
	ff		 mov	 eax, DWORD PTR _lpSurface$[ebp]
  00064	8d 95 60 ff ff
	ff		 lea	 edx, DWORD PTR _stSurfaceDesc$[ebp]
  0006a	56		 push	 esi
  0006b	57		 push	 edi
  0006c	52		 push	 edx
  0006d	8b 08		 mov	 ecx, DWORD PTR [eax]
  0006f	50		 push	 eax
  00070	ff 51 20	 call	 DWORD PTR [ecx+32]
  00073	85 c0		 test	 eax, eax
  00075	79 08		 jns	 SHORT $LN22@SaveScreen

; 185  : 	{
; 186  : 		TraceError("Failed to get surface desc (0x%08x)", hr);

  00077	50		 push	 eax
  00078	68 00 00 00 00	 push	 OFFSET ??_C@_0CE@NBEFCAIB@Failed?5to?5get?5surface?5desc?5?$CI0x?$CF@
  0007d	eb 60		 jmp	 SHORT $LN68@SaveScreen
$LN22@SaveScreen:

; 187  : 		SAFE_RELEASE(lpSurface);
; 188  : 		return false;
; 189  : 	}
; 190  : 
; 191  : 	UINT uWidth = stSurfaceDesc.Width;
; 192  : 	UINT uHeight = stSurfaceDesc.Height;
; 193  : 
; 194  : 	switch( stSurfaceDesc.Format ) {

  0007f	8b 8d 60 ff ff
	ff		 mov	 ecx, DWORD PTR _stSurfaceDesc$[ebp]
  00085	8b bd 78 ff ff
	ff		 mov	 edi, DWORD PTR _stSurfaceDesc$[ebp+24]
  0008b	8b b5 7c ff ff
	ff		 mov	 esi, DWORD PTR _stSurfaceDesc$[ebp+28]
  00091	89 bd 44 ff ff
	ff		 mov	 DWORD PTR _uWidth$1$[ebp], edi
  00097	8d 41 e6	 lea	 eax, DWORD PTR [ecx-26]
  0009a	89 b5 4c ff ff
	ff		 mov	 DWORD PTR _uHeight$1$[ebp], esi
  000a0	83 f8 05	 cmp	 eax, 5
  000a3	77 16		 ja	 SHORT $LN2@SaveScreen
  000a5	0f b6 80 00 00
	00 00		 movzx	 eax, BYTE PTR $LN61@SaveScreen[eax]
  000ac	ff 24 85 00 00
	00 00		 jmp	 DWORD PTR $LN62@SaveScreen[eax*4]
$LN25@SaveScreen:

; 195  : 	case D3DFMT_R8G8B8 :
; 196  : 	case D3DFMT_A8R8G8B8 :
; 197  : 	case D3DFMT_X8R8G8B8 :
; 198  : 	case D3DFMT_R5G6B5 :
; 199  : 	case D3DFMT_X1R5G5B5 :
; 200  : 	case D3DFMT_A1R5G5B5 :
; 201  : 		break;
; 202  : 	case D3DFMT_A4R4G4B4 :
; 203  : 	case D3DFMT_R3G3B2 :
; 204  : 	case D3DFMT_A8R3G3B2 :
; 205  : 	case D3DFMT_X4R4G4B4 :
; 206  : 	case D3DFMT_A2B10G10R10 :
; 207  : 		TraceError("Unsupported BackBuffer Format(%d). Please contact Metin 2 Administrator.", stSurfaceDesc.Format);

  000b3	51		 push	 ecx
  000b4	68 00 00 00 00	 push	 OFFSET ??_C@_0EJ@CMPHLGKC@Unsupported?5BackBuffer?5Format?$CI?$CF@
  000b9	eb 24		 jmp	 SHORT $LN68@SaveScreen
$LN2@SaveScreen:

; 208  : 		SAFE_RELEASE(lpSurface);
; 209  : 		return false;
; 210  : 	}
; 211  : 
; 212  : 	D3DLOCKED_RECT lockRect;
; 213  : 	if (FAILED(hr = lpSurface->LockRect(&lockRect, NULL, D3DLOCK_NO_DIRTY_UPDATE | D3DLOCK_READONLY | D3DLOCK_NOSYSLOCK)))

  000bb	8b 85 5c ff ff
	ff		 mov	 eax, DWORD PTR _lpSurface$[ebp]
  000c1	8d 95 34 ff ff
	ff		 lea	 edx, DWORD PTR _lockRect$[ebp]
  000c7	68 10 88 00 00	 push	 34832			; 00008810H
  000cc	6a 00		 push	 0
  000ce	52		 push	 edx
  000cf	8b 08		 mov	 ecx, DWORD PTR [eax]
  000d1	50		 push	 eax
  000d2	ff 51 24	 call	 DWORD PTR [ecx+36]
  000d5	85 c0		 test	 eax, eax
  000d7	79 33		 jns	 SHORT $LN27@SaveScreen

; 214  : 	{
; 215  : 		TraceError("Failed to lock the surface (0x%08x)", hr);

  000d9	50		 push	 eax
  000da	68 00 00 00 00	 push	 OFFSET ??_C@_0CE@GBOBAJOB@Failed?5to?5lock?5the?5surface?5?$CI0x?$CF@
$LN68@SaveScreen:

; 216  : 		SAFE_RELEASE(lpSurface);
; 217  : 		return false;

  000df	e8 00 00 00 00	 call	 ?TraceError@@YAXPBDZZ	; TraceError
  000e4	8b 8d 5c ff ff
	ff		 mov	 ecx, DWORD PTR _lpSurface$[ebp]
  000ea	83 c4 08	 add	 esp, 8
  000ed	85 c9		 test	 ecx, ecx
  000ef	74 06		 je	 SHORT $LN28@SaveScreen
  000f1	8b 01		 mov	 eax, DWORD PTR [ecx]
  000f3	51		 push	 ecx
  000f4	ff 50 08	 call	 DWORD PTR [eax+8]
$LN28@SaveScreen:
  000f7	5f		 pop	 edi
  000f8	5e		 pop	 esi
  000f9	32 c0		 xor	 al, al
  000fb	5b		 pop	 ebx

; 382  : 		}
; 383  : 	}
; 384  : 	return true;
; 385  : }

  000fc	8b 4d fc	 mov	 ecx, DWORD PTR __$ArrayPad$[ebp]
  000ff	33 cd		 xor	 ecx, ebp
  00101	e8 00 00 00 00	 call	 @__security_check_cookie@4
  00106	8b e5		 mov	 esp, ebp
  00108	5d		 pop	 ebp
  00109	c2 04 00	 ret	 4
$LN27@SaveScreen:

; 218  : 	}
; 219  : 
; 220  : 	BYTE* pbyBuffer = new BYTE[uWidth * uHeight * 3];

  0010c	8b c6		 mov	 eax, esi
  0010e	0f af c7	 imul	 eax, edi
  00111	8d 04 40	 lea	 eax, DWORD PTR [eax+eax*2]
  00114	50		 push	 eax
  00115	e8 00 00 00 00	 call	 ??_U@YAPAXI@Z		; operator new[]
  0011a	83 c4 04	 add	 esp, 4
  0011d	89 85 3c ff ff
	ff		 mov	 DWORD PTR _pbyBuffer$1$[ebp], eax

; 221  : 	if (pbyBuffer == NULL) {

  00123	85 c0		 test	 eax, eax
  00125	75 44		 jne	 SHORT $LN29@SaveScreen

; 222  : 		lpSurface->UnlockRect();

  00127	8b 85 5c ff ff
	ff		 mov	 eax, DWORD PTR _lpSurface$[ebp]
  0012d	50		 push	 eax
  0012e	8b 08		 mov	 ecx, DWORD PTR [eax]
  00130	ff 51 28	 call	 DWORD PTR [ecx+40]

; 223  : 		lpSurface->Release();

  00133	8b 85 5c ff ff
	ff		 mov	 eax, DWORD PTR _lpSurface$[ebp]
  00139	50		 push	 eax
  0013a	8b 08		 mov	 ecx, DWORD PTR [eax]
  0013c	ff 51 08	 call	 DWORD PTR [ecx+8]

; 224  : 		lpSurface = NULL;
; 225  : 		TraceError("Failed to allocate screenshot buffer");

  0013f	68 00 00 00 00	 push	 OFFSET ??_C@_0CF@KCPFIPM@Failed?5to?5allocate?5screenshot?5b@
  00144	c7 85 5c ff ff
	ff 00 00 00 00	 mov	 DWORD PTR _lpSurface$[ebp], 0
  0014e	e8 00 00 00 00	 call	 ?TraceError@@YAXPBDZZ	; TraceError
  00153	83 c4 04	 add	 esp, 4

; 226  : 		return false;

  00156	32 c0		 xor	 al, al
  00158	5f		 pop	 edi
  00159	5e		 pop	 esi
  0015a	5b		 pop	 ebx

; 382  : 		}
; 383  : 	}
; 384  : 	return true;
; 385  : }

  0015b	8b 4d fc	 mov	 ecx, DWORD PTR __$ArrayPad$[ebp]
  0015e	33 cd		 xor	 ecx, ebp
  00160	e8 00 00 00 00	 call	 @__security_check_cookie@4
  00165	8b e5		 mov	 esp, ebp
  00167	5d		 pop	 ebp
  00168	c2 04 00	 ret	 4
$LN29@SaveScreen:

; 227  : 	}
; 228  : 	BYTE* pbySource = (BYTE*) lockRect.pBits;

  0016b	8b 8d 38 ff ff
	ff		 mov	 ecx, DWORD PTR _lockRect$[ebp+4]
  00171	89 8d 58 ff ff
	ff		 mov	 DWORD PTR _pbySource$1$[ebp], ecx

; 229  : 	BYTE* pbyDestination = (BYTE*) pbyBuffer;
; 230  : 	for(UINT y = 0; y < uHeight; ++y) {

  00177	85 f6		 test	 esi, esi
  00179	0f 84 74 01 00
	00		 je	 $LN5@SaveScreen

; 227  : 	}
; 228  : 	BYTE* pbySource = (BYTE*) lockRect.pBits;

  0017f	89 b5 40 ff ff
	ff		 mov	 DWORD PTR tv815[ebp], esi
$LL6@SaveScreen:

; 231  : 		BYTE *pRow = pbySource;

  00185	8b f1		 mov	 esi, ecx

; 232  : 
; 233  : 		switch( stSurfaceDesc.Format ) {

  00187	8b 8d 60 ff ff
	ff		 mov	 ecx, DWORD PTR _stSurfaceDesc$[ebp]
  0018d	83 c1 ec	 add	 ecx, -20		; ffffffecH
  00190	83 f9 05	 cmp	 ecx, 5
  00193	0f 87 2f 01 00
	00		 ja	 $LN19@SaveScreen
  00199	ff 24 8d 00 00
	00 00		 jmp	 DWORD PTR $LN63@SaveScreen[ecx*4]
$LN30@SaveScreen:

; 234  : 		case D3DFMT_R8G8B8 :
; 235  : 			for(UINT x = 0; x < uWidth; ++x) {

  001a0	85 ff		 test	 edi, edi
  001a2	0f 84 20 01 00
	00		 je	 $LN19@SaveScreen
  001a8	8b 95 58 ff ff
	ff		 mov	 edx, DWORD PTR _pbySource$1$[ebp]
  001ae	8b f7		 mov	 esi, edi
  001b0	42		 inc	 edx
$LL11@SaveScreen:

; 236  : 				*pbyDestination++ = pRow[2];	// Blue

  001b1	0f b6 4a 01	 movzx	 ecx, BYTE PTR [edx+1]

; 237  : 				*pbyDestination++ = pRow[1];	// Green
; 238  : 				*pbyDestination++ = pRow[0];	// Red
; 239  : 				pRow += 3;

  001b5	8d 52 03	 lea	 edx, DWORD PTR [edx+3]
  001b8	88 08		 mov	 BYTE PTR [eax], cl
  001ba	0f b6 4a fd	 movzx	 ecx, BYTE PTR [edx-3]
  001be	88 48 01	 mov	 BYTE PTR [eax+1], cl
  001c1	0f b6 4a fc	 movzx	 ecx, BYTE PTR [edx-4]
  001c5	88 48 02	 mov	 BYTE PTR [eax+2], cl
  001c8	83 c0 03	 add	 eax, 3
  001cb	83 ee 01	 sub	 esi, 1
  001ce	75 e1		 jne	 SHORT $LL11@SaveScreen

; 240  : 			}
; 241  : 			break;

  001d0	e9 f3 00 00 00	 jmp	 $LN19@SaveScreen
$LN31@SaveScreen:

; 242  : 		case D3DFMT_A8R8G8B8 :
; 243  : 		case D3DFMT_X8R8G8B8 :
; 244  : 			for(UINT x = 0; x < uWidth; ++x) {

  001d5	85 ff		 test	 edi, edi
  001d7	0f 84 eb 00 00
	00		 je	 $LN19@SaveScreen
  001dd	8b 95 58 ff ff
	ff		 mov	 edx, DWORD PTR _pbySource$1$[ebp]
  001e3	8b f7		 mov	 esi, edi
  001e5	42		 inc	 edx
$LL14@SaveScreen:

; 245  : 				*pbyDestination++ = pRow[2];	// Blue

  001e6	0f b6 4a 01	 movzx	 ecx, BYTE PTR [edx+1]

; 246  : 				*pbyDestination++ = pRow[1];	// Green
; 247  : 				*pbyDestination++ = pRow[0];	// Red
; 248  : 				pRow += 4;

  001ea	8d 52 04	 lea	 edx, DWORD PTR [edx+4]
  001ed	88 08		 mov	 BYTE PTR [eax], cl
  001ef	0f b6 4a fc	 movzx	 ecx, BYTE PTR [edx-4]
  001f3	88 48 01	 mov	 BYTE PTR [eax+1], cl
  001f6	0f b6 4a fb	 movzx	 ecx, BYTE PTR [edx-5]
  001fa	88 48 02	 mov	 BYTE PTR [eax+2], cl
  001fd	83 c0 03	 add	 eax, 3
  00200	83 ee 01	 sub	 esi, 1
  00203	75 e1		 jne	 SHORT $LL14@SaveScreen

; 249  : 			}
; 250  : 			break;

  00205	e9 be 00 00 00	 jmp	 $LN19@SaveScreen
$LN32@SaveScreen:

; 251  : 		case D3DFMT_R5G6B5 :
; 252  : 			{
; 253  : 				for(UINT x = 0; x < uWidth; ++x) {

  0020a	85 ff		 test	 edi, edi
  0020c	0f 84 b6 00 00
	00		 je	 $LN19@SaveScreen
$LL17@SaveScreen:

; 254  : 					UINT uColor		= *((UINT *) pRow);

  00212	8b 0e		 mov	 ecx, DWORD PTR [esi]

; 255  : 					BYTE byBlue		= (uColor >> 11) & 0x1F;
; 256  : 					BYTE byGreen	= (uColor >> 5) & 0x3F;
; 257  : 					BYTE byRed		= uColor & 0x1F;
; 258  : 
; 259  : 					*pbyDestination++ = (byBlue << 3)	| (byBlue >> 2);		// Blue
; 260  : 					*pbyDestination++ = (byGreen << 2)	| (byGreen >> 2);		// Green
; 261  : 					*pbyDestination++ = (byRed << 3)	| (byRed >> 2);			// Red
; 262  : 					pRow += 2;

  00214	8d 76 02	 lea	 esi, DWORD PTR [esi+2]
  00217	8b d1		 mov	 edx, ecx
  00219	8b d9		 mov	 ebx, ecx
  0021b	80 e1 1f	 and	 cl, 31			; 0000001fH
  0021e	c1 ea 0b	 shr	 edx, 11			; 0000000bH
  00221	89 8d 50 ff ff
	ff		 mov	 DWORD PTR _uColor$1$[ebp], ecx
  00227	80 e2 1f	 and	 dl, 31			; 0000001fH
  0022a	8a ca		 mov	 cl, dl
  0022c	c1 eb 05	 shr	 ebx, 5
  0022f	c0 e9 02	 shr	 cl, 2
  00232	80 e3 3f	 and	 bl, 63			; 0000003fH
  00235	c0 e2 03	 shl	 dl, 3
  00238	0a ca		 or	 cl, dl
  0023a	8b 95 50 ff ff
	ff		 mov	 edx, DWORD PTR _uColor$1$[ebp]
  00240	88 08		 mov	 BYTE PTR [eax], cl
  00242	8a cb		 mov	 cl, bl
  00244	c0 e9 02	 shr	 cl, 2
  00247	c0 e3 02	 shl	 bl, 2
  0024a	0a cb		 or	 cl, bl
  0024c	88 48 01	 mov	 BYTE PTR [eax+1], cl
  0024f	8a ca		 mov	 cl, dl
  00251	c0 e9 02	 shr	 cl, 2
  00254	c0 e2 03	 shl	 dl, 3
  00257	0a ca		 or	 cl, dl
  00259	88 48 02	 mov	 BYTE PTR [eax+2], cl
  0025c	83 c0 03	 add	 eax, 3
  0025f	83 ef 01	 sub	 edi, 1
  00262	75 ae		 jne	 SHORT $LL17@SaveScreen

; 263  : 				}
; 264  : 			}
; 265  : 			break;

  00264	eb 5c		 jmp	 SHORT $LN69@SaveScreen
$LN33@SaveScreen:

; 266  : 		case D3DFMT_X1R5G5B5 :
; 267  : 		case D3DFMT_A1R5G5B5 :
; 268  : 			{
; 269  : 				for(UINT x = 0; x < uWidth; ++x) {

  00266	85 ff		 test	 edi, edi
  00268	74 5e		 je	 SHORT $LN19@SaveScreen
  0026a	66 0f 1f 44 00
	00		 npad	 6
$LL20@SaveScreen:

; 270  : 					UINT uColor		= *((UINT *) pRow);

  00270	8b 0e		 mov	 ecx, DWORD PTR [esi]

; 271  : 					BYTE byBlue		= (uColor >> 10) & 0x1F;
; 272  : 					BYTE byGreen	= (uColor >> 5) & 0x1F;
; 273  : 					BYTE byRed		= uColor & 0x1F;
; 274  : 
; 275  : 					*pbyDestination++ = (byBlue << 3)	| (byBlue >> 2);		// Blue
; 276  : 					*pbyDestination++ = (byGreen << 3)	| (byGreen >> 2);		// Green
; 277  : 					*pbyDestination++ = (byRed << 3)	| (byRed >> 2);			// Red
; 278  : 					pRow += 2;

  00272	8d 76 02	 lea	 esi, DWORD PTR [esi+2]
  00275	8b d1		 mov	 edx, ecx
  00277	8b d9		 mov	 ebx, ecx
  00279	80 e1 1f	 and	 cl, 31			; 0000001fH
  0027c	c1 ea 0a	 shr	 edx, 10			; 0000000aH
  0027f	89 8d 50 ff ff
	ff		 mov	 DWORD PTR _uColor$1$[ebp], ecx
  00285	80 e2 1f	 and	 dl, 31			; 0000001fH
  00288	8a ca		 mov	 cl, dl
  0028a	c1 eb 05	 shr	 ebx, 5
  0028d	c0 e9 02	 shr	 cl, 2
  00290	80 e3 1f	 and	 bl, 31			; 0000001fH
  00293	c0 e2 03	 shl	 dl, 3
  00296	0a ca		 or	 cl, dl
  00298	8b 95 50 ff ff
	ff		 mov	 edx, DWORD PTR _uColor$1$[ebp]
  0029e	88 08		 mov	 BYTE PTR [eax], cl
  002a0	8a cb		 mov	 cl, bl
  002a2	c0 e9 02	 shr	 cl, 2
  002a5	c0 e3 03	 shl	 bl, 3
  002a8	0a cb		 or	 cl, bl
  002aa	88 48 01	 mov	 BYTE PTR [eax+1], cl
  002ad	8a ca		 mov	 cl, dl
  002af	c0 e9 02	 shr	 cl, 2
  002b2	c0 e2 03	 shl	 dl, 3
  002b5	0a ca		 or	 cl, dl
  002b7	88 48 02	 mov	 BYTE PTR [eax+2], cl
  002ba	83 c0 03	 add	 eax, 3
  002bd	83 ef 01	 sub	 edi, 1
  002c0	75 ae		 jne	 SHORT $LL20@SaveScreen
$LN69@SaveScreen:

; 279  : 				}
; 280  : 			}
; 281  : 			break;
; 282  : 		}
; 283  : 
; 284  : 		// increase by one line
; 285  : 		pbySource += lockRect.Pitch;

  002c2	8b bd 44 ff ff
	ff		 mov	 edi, DWORD PTR _uWidth$1$[ebp]
$LN19@SaveScreen:
  002c8	8b 8d 58 ff ff
	ff		 mov	 ecx, DWORD PTR _pbySource$1$[ebp]
  002ce	03 8d 34 ff ff
	ff		 add	 ecx, DWORD PTR _lockRect$[ebp]
  002d4	83 ad 40 ff ff
	ff 01		 sub	 DWORD PTR tv815[ebp], 1
  002db	89 8d 58 ff ff
	ff		 mov	 DWORD PTR _pbySource$1$[ebp], ecx
  002e1	0f 85 9e fe ff
	ff		 jne	 $LL6@SaveScreen
  002e7	8b b5 4c ff ff
	ff		 mov	 esi, DWORD PTR _uHeight$1$[ebp]
  002ed	8b 9d 54 ff ff
	ff		 mov	 ebx, DWORD PTR _c_pszFileName$GSCopy$1$[ebp]
$LN5@SaveScreen:

; 286  : 	}
; 287  : 
; 288  : 	if(lpSurface) {

  002f3	8b 8d 5c ff ff
	ff		 mov	 ecx, DWORD PTR _lpSurface$[ebp]
  002f9	85 c9		 test	 ecx, ecx
  002fb	74 1c		 je	 SHORT $LN34@SaveScreen

; 289  : 		lpSurface->UnlockRect();

  002fd	8b 01		 mov	 eax, DWORD PTR [ecx]
  002ff	51		 push	 ecx
  00300	ff 50 28	 call	 DWORD PTR [eax+40]

; 290  : 		lpSurface->Release();

  00303	8b 85 5c ff ff
	ff		 mov	 eax, DWORD PTR _lpSurface$[ebp]
  00309	50		 push	 eax
  0030a	8b 08		 mov	 ecx, DWORD PTR [eax]
  0030c	ff 51 08	 call	 DWORD PTR [ecx+8]

; 291  : 		lpSurface = NULL;

  0030f	c7 85 5c ff ff
	ff 00 00 00 00	 mov	 DWORD PTR _lpSurface$[ebp], 0
$LN34@SaveScreen:

; 292  : 	}
; 293  : 
; 294  : 	bool bSaved = SaveJPEG(c_pszFileName, (LPBYTE)pbyBuffer, uWidth, uHeight);

  00319	8b 8d 48 ff ff
	ff		 mov	 ecx, DWORD PTR _this$1$[ebp]
  0031f	56		 push	 esi
  00320	57		 push	 edi
  00321	ff b5 3c ff ff
	ff		 push	 DWORD PTR _pbyBuffer$1$[ebp]
  00327	53		 push	 ebx
  00328	e8 00 00 00 00	 call	 ?SaveJPEG@CPythonGraphic@@QAE_NPBDPAEII@Z ; CPythonGraphic::SaveJPEG

; 295  : 
; 296  : 	if(pbyBuffer) {
; 297  : 		delete [] pbyBuffer;

  0032d	ff b5 3c ff ff
	ff		 push	 DWORD PTR _pbyBuffer$1$[ebp]
  00333	8a d8		 mov	 bl, al
  00335	e8 00 00 00 00	 call	 ??_V@YAXPAX@Z		; operator delete[]
  0033a	83 c4 04	 add	 esp, 4

; 298  : 		pbyBuffer = NULL;
; 299  : 	}
; 300  : 
; 301  : 	if(bSaved == false) {

  0033d	84 db		 test	 bl, bl
  0033f	75 2a		 jne	 SHORT $LN36@SaveScreen

; 302  : 		TraceError("Failed to save JPEG file. (%s, %d, %d)", c_pszFileName, uWidth, uHeight);

  00341	56		 push	 esi
  00342	57		 push	 edi
  00343	ff b5 54 ff ff
	ff		 push	 DWORD PTR _c_pszFileName$GSCopy$1$[ebp]
  00349	68 00 00 00 00	 push	 OFFSET ??_C@_0CH@IOAMCLFA@Failed?5to?5save?5JPEG?5file?4?5?$CI?$CFs?0?5@
  0034e	e8 00 00 00 00	 call	 ?TraceError@@YAXPBDZZ	; TraceError
  00353	83 c4 10	 add	 esp, 16			; 00000010H

; 303  : 		return false;

  00356	32 c0		 xor	 al, al
  00358	5f		 pop	 edi
  00359	5e		 pop	 esi
  0035a	5b		 pop	 ebx

; 382  : 		}
; 383  : 	}
; 384  : 	return true;
; 385  : }

  0035b	8b 4d fc	 mov	 ecx, DWORD PTR __$ArrayPad$[ebp]
  0035e	33 cd		 xor	 ecx, ebp
  00360	e8 00 00 00 00	 call	 @__security_check_cookie@4
  00365	8b e5		 mov	 esp, ebp
  00367	5d		 pop	 ebp
  00368	c2 04 00	 ret	 4
$LN36@SaveScreen:

; 304  : 	}
; 305  : 
; 306  : 	if (g_isScreenShotKey)

  0036b	80 3d 00 00 00
	00 00		 cmp	 BYTE PTR ?g_isScreenShotKey@@3_NA, 0 ; g_isScreenShotKey
  00372	0f 84 6c 01 00
	00		 je	 $LN38@SaveScreen

; 307  : 	{
; 308  : 		FILE* srcFilePtr = fopen(c_pszFileName, "rb");

  00378	68 00 00 00 00	 push	 OFFSET ??_C@_02JDPG@rb@
  0037d	ff b5 54 ff ff
	ff		 push	 DWORD PTR _c_pszFileName$GSCopy$1$[ebp]
  00383	e8 00 00 00 00	 call	 _fopen
  00388	8b f8		 mov	 edi, eax
  0038a	83 c4 08	 add	 esp, 8

; 309  : 		if (srcFilePtr)

  0038d	85 ff		 test	 edi, edi
  0038f	0f 84 4f 01 00
	00		 je	 $LN38@SaveScreen

; 310  : 		{
; 311  : 			fseek(srcFilePtr, 0, SEEK_END);

  00395	6a 02		 push	 2
  00397	6a 00		 push	 0
  00399	57		 push	 edi
  0039a	e8 00 00 00 00	 call	 _fseek

; 312  : 			size_t fileSize = ftell(srcFilePtr);

  0039f	57		 push	 edi
  003a0	e8 00 00 00 00	 call	 _ftell

; 313  : 			fseek(srcFilePtr, 0, SEEK_SET);

  003a5	6a 00		 push	 0
  003a7	6a 00		 push	 0
  003a9	57		 push	 edi
  003aa	8b f0		 mov	 esi, eax
  003ac	e8 00 00 00 00	 call	 _fseek

; 314  : 
; 315  : 			char head[21];
; 316  : 			size_t tailSize = fileSize - sizeof(head);

  003b1	83 c6 eb	 add	 esi, -21		; ffffffebH

; 317  : 			char* tail = (char*)malloc(tailSize);

  003b4	56		 push	 esi
  003b5	89 b5 4c ff ff
	ff		 mov	 DWORD PTR _tailSize$1$[ebp], esi
  003bb	e8 00 00 00 00	 call	 _malloc

; 318  : 
; 319  : 			fread(head, sizeof(head), 1, srcFilePtr);

  003c0	57		 push	 edi
  003c1	6a 01		 push	 1
  003c3	8b d8		 mov	 ebx, eax
  003c5	8d 45 c0	 lea	 eax, DWORD PTR _head$2[ebp]
  003c8	6a 15		 push	 21			; 00000015H
  003ca	50		 push	 eax
  003cb	e8 00 00 00 00	 call	 _fread

; 320  : 			fread(tail, tailSize, 1, srcFilePtr);

  003d0	57		 push	 edi
  003d1	6a 01		 push	 1
  003d3	56		 push	 esi
  003d4	53		 push	 ebx
  003d5	e8 00 00 00 00	 call	 _fread
  003da	83 c4 40	 add	 esp, 64			; 00000040H

; 321  : 			fclose(srcFilePtr);

  003dd	57		 push	 edi
  003de	e8 00 00 00 00	 call	 _fclose
  003e3	83 c4 04	 add	 esp, 4

; 322  : 
; 323  : 			char imgDesc[64];
; 324  : 			GenScreenShotTag(c_pszFileName, GetCRC32(tail, tailSize), imgDesc, sizeof(imgDesc));

  003e6	8d 45 80	 lea	 eax, DWORD PTR _imgDesc$1[ebp]
  003e9	6a 40		 push	 64			; 00000040H
  003eb	50		 push	 eax
  003ec	56		 push	 esi
  003ed	53		 push	 ebx
  003ee	e8 00 00 00 00	 call	 ?GetCRC32@@YAKPBDI@Z	; GetCRC32
  003f3	8b b5 54 ff ff
	ff		 mov	 esi, DWORD PTR _c_pszFileName$GSCopy$1$[ebp]
  003f9	83 c4 08	 add	 esp, 8
  003fc	50		 push	 eax
  003fd	56		 push	 esi
  003fe	e8 00 00 00 00	 call	 ?GenScreenShotTag@@YAXPBDKPADI@Z ; GenScreenShotTag

; 325  : 
; 326  : 			int imgDescLen = strlen(imgDesc) + 1;

  00403	8d 4d 80	 lea	 ecx, DWORD PTR _imgDesc$1[ebp]
  00406	83 c4 10	 add	 esp, 16			; 00000010H
  00409	8d 51 01	 lea	 edx, DWORD PTR [ecx+1]
  0040c	0f 1f 40 00	 npad	 4
$LL64@SaveScreen:
  00410	8a 01		 mov	 al, BYTE PTR [ecx]
  00412	41		 inc	 ecx
  00413	84 c0		 test	 al, al
  00415	75 f9		 jne	 SHORT $LL64@SaveScreen
  00417	2b ca		 sub	 ecx, edx

; 327  : 
; 328  : 			unsigned char exifHeader[] = {
; 329  : 				0xe1,

  00419	66 c7 45 d8 e1
	00		 mov	 WORD PTR _exifHeader$3[ebp], 225 ; 000000e1H

; 330  : 				0, // blockLen[1],
; 331  : 				0, // blockLen[0],
; 332  : 				0x45,
; 333  : 				0x78,
; 334  : 				0x69,
; 335  : 				0x66,
; 336  : 				0x0,
; 337  : 				0x0,
; 338  : 				0x49,
; 339  : 				0x49,
; 340  : 				0x2a,
; 341  : 				0x0,
; 342  : 				0x8,
; 343  : 				0x0,
; 344  : 				0x0,
; 345  : 				0x0,
; 346  : 				0x1,
; 347  : 				0x0,
; 348  : 				0xe,
; 349  : 				0x1,
; 350  : 				0x2,
; 351  : 				0x0,
; 352  : 				imgDescLen, // textLen[0],
; 353  : 				0, // textLen[1],
; 354  : 				0, // textLen[2],
; 355  : 				0, // textLen[3],
; 356  : 				0x1a,
; 357  : 				0x0,
; 358  : 				0x0,
; 359  : 				0x0,
; 360  : 				0x0,
; 361  : 				0x0,
; 362  : 				0x0,
; 363  : 				0x0,
; 364  : 			};
; 365  : 
; 366  : 			exifHeader[2] = sizeof(exifHeader) + imgDescLen;
; 367  : 
; 368  : 			FILE* dstFilePtr = fopen(c_pszFileName, "wb");

  0041f	68 00 00 00 00	 push	 OFFSET ??_C@_02GMLFBBN@wb@
  00424	56		 push	 esi
  00425	c7 45 db 45 78
	69 66		 mov	 DWORD PTR _exifHeader$3[ebp+3], 1718188101 ; 66697845H
  0042c	8d 41 01	 lea	 eax, DWORD PTR [ecx+1]
  0042f	c7 45 df 00 00
	49 49		 mov	 DWORD PTR _exifHeader$3[ebp+7], 1229520896 ; 49490000H
  00436	89 85 48 ff ff
	ff		 mov	 DWORD PTR _imgDescLen$1$[ebp], eax
  0043c	88 45 ef	 mov	 BYTE PTR _exifHeader$3[ebp+23], al
  0043f	04 23		 add	 al, 35			; 00000023H
  00441	c7 45 e3 2a 00
	08 00		 mov	 DWORD PTR _exifHeader$3[ebp+11], 524330 ; 0008002aH
  00448	c7 45 e7 00 00
	01 00		 mov	 DWORD PTR _exifHeader$3[ebp+15], 65536 ; 00010000H
  0044f	c7 45 eb 0e 01
	02 00		 mov	 DWORD PTR _exifHeader$3[ebp+19], 131342 ; 0002010eH
  00456	c7 45 f0 00 00
	00 1a		 mov	 DWORD PTR _exifHeader$3[ebp+24], 436207616 ; 1a000000H
  0045d	c7 45 f4 00 00
	00 00		 mov	 DWORD PTR _exifHeader$3[ebp+28], 0
  00464	66 c7 45 f8 00
	00		 mov	 WORD PTR _exifHeader$3[ebp+32], 0
  0046a	c6 45 fa 00	 mov	 BYTE PTR _exifHeader$3[ebp+34], 0
  0046e	88 45 da	 mov	 BYTE PTR _exifHeader$3[ebp+2], al
  00471	e8 00 00 00 00	 call	 _fopen
  00476	8b f0		 mov	 esi, eax
  00478	83 c4 08	 add	 esp, 8

; 369  : 			//FILE* dstFilePtr = fopen("temp.jpg", "wb");
; 370  : 			if (dstFilePtr)

  0047b	85 f6		 test	 esi, esi
  0047d	74 5c		 je	 SHORT $LN39@SaveScreen

; 371  : 			{
; 372  : 				fwrite(head, sizeof(head), 1, dstFilePtr);

  0047f	56		 push	 esi
  00480	6a 01		 push	 1
  00482	8d 45 c0	 lea	 eax, DWORD PTR _head$2[ebp]
  00485	6a 15		 push	 21			; 00000015H
  00487	50		 push	 eax
  00488	e8 00 00 00 00	 call	 _fwrite

; 373  : 				fwrite(exifHeader, sizeof(exifHeader), 1, dstFilePtr);

  0048d	56		 push	 esi
  0048e	6a 01		 push	 1
  00490	8d 45 d8	 lea	 eax, DWORD PTR _exifHeader$3[ebp]
  00493	6a 23		 push	 35			; 00000023H
  00495	50		 push	 eax
  00496	e8 00 00 00 00	 call	 _fwrite

; 374  : 				fwrite(imgDesc, imgDescLen, 1, dstFilePtr);

  0049b	56		 push	 esi
  0049c	6a 01		 push	 1
  0049e	ff b5 48 ff ff
	ff		 push	 DWORD PTR _imgDescLen$1$[ebp]
  004a4	8d 45 80	 lea	 eax, DWORD PTR _imgDesc$1[ebp]
  004a7	50		 push	 eax
  004a8	e8 00 00 00 00	 call	 _fwrite

; 375  : 				fputc(0x00, dstFilePtr);

  004ad	56		 push	 esi
  004ae	6a 00		 push	 0
  004b0	e8 00 00 00 00	 call	 _fputc

; 376  : 				fputc(0xff, dstFilePtr);

  004b5	56		 push	 esi
  004b6	68 ff 00 00 00	 push	 255			; 000000ffH
  004bb	e8 00 00 00 00	 call	 _fputc
  004c0	83 c4 40	 add	 esp, 64			; 00000040H

; 377  : 				fwrite(tail, tailSize, 1, dstFilePtr);

  004c3	56		 push	 esi
  004c4	6a 01		 push	 1
  004c6	ff b5 4c ff ff
	ff		 push	 DWORD PTR _tailSize$1$[ebp]
  004cc	53		 push	 ebx
  004cd	e8 00 00 00 00	 call	 _fwrite

; 378  : 				fclose(dstFilePtr);

  004d2	56		 push	 esi
  004d3	e8 00 00 00 00	 call	 _fclose
  004d8	83 c4 14	 add	 esp, 20			; 00000014H
$LN39@SaveScreen:

; 379  : 			}
; 380  : 
; 381  : 			free(tail);

  004db	53		 push	 ebx
  004dc	e8 00 00 00 00	 call	 _free
  004e1	83 c4 04	 add	 esp, 4
$LN38@SaveScreen:

; 382  : 		}
; 383  : 	}
; 384  : 	return true;
; 385  : }

  004e4	8b 4d fc	 mov	 ecx, DWORD PTR __$ArrayPad$[ebp]
  004e7	b0 01		 mov	 al, 1
  004e9	5f		 pop	 edi
  004ea	5e		 pop	 esi
  004eb	33 cd		 xor	 ecx, ebp
  004ed	5b		 pop	 ebx
  004ee	e8 00 00 00 00	 call	 @__security_check_cookie@4
  004f3	8b e5		 mov	 esp, ebp
  004f5	5d		 pop	 ebp
  004f6	c2 04 00	 ret	 4
  004f9	0f 1f 00	 npad	 3
$LN62@SaveScreen:
  004fc	00 00 00 00	 DD	 $LN25@SaveScreen
  00500	00 00 00 00	 DD	 $LN2@SaveScreen
$LN61@SaveScreen:
  00504	00		 DB	 0
  00505	00		 DB	 0
  00506	01		 DB	 1
  00507	00		 DB	 0
  00508	00		 DB	 0
  00509	00		 DB	 0
  0050a	66 90		 npad	 2
$LN63@SaveScreen:
  0050c	00 00 00 00	 DD	 $LN30@SaveScreen
  00510	00 00 00 00	 DD	 $LN31@SaveScreen
  00514	00 00 00 00	 DD	 $LN31@SaveScreen
  00518	00 00 00 00	 DD	 $LN32@SaveScreen
  0051c	00 00 00 00	 DD	 $LN33@SaveScreen
  00520	00 00 00 00	 DD	 $LN33@SaveScreen
?SaveScreenShot@CPythonGraphic@@QAE_NPBD@Z ENDP		; CPythonGraphic::SaveScreenShot
_TEXT	ENDS
; Function compile flags: /Ogtp
; File C:\DS Project\DS Files\Source\ClientSource\Client\eterPythonLib\PythonGraphic.cpp
;	COMDAT ?SaveJPEG@CPythonGraphic@@QAE_NPBDPAEII@Z
_TEXT	SEGMENT
_pszFileName$ = 8					; size = 4
_pbyBuffer$ = 12					; size = 4
_uWidth$ = 16						; size = 4
_uHeight$ = 20						; size = 4
?SaveJPEG@CPythonGraphic@@QAE_NPBDPAEII@Z PROC		; CPythonGraphic::SaveJPEG, COMDAT
; _this$ = ecx

; 168  : {

  00000	55		 push	 ebp
  00001	8b ec		 mov	 ebp, esp

; 169  : 	return jpeg_save(pbyBuffer, uWidth, uHeight, 85, pszFileName) != 0;

  00003	ff 75 08	 push	 DWORD PTR _pszFileName$[ebp]
  00006	6a 55		 push	 85			; 00000055H
  00008	ff 75 14	 push	 DWORD PTR _uHeight$[ebp]
  0000b	ff 75 10	 push	 DWORD PTR _uWidth$[ebp]
  0000e	ff 75 0c	 push	 DWORD PTR _pbyBuffer$[ebp]
  00011	e8 00 00 00 00	 call	 ?jpeg_save@@YAHPAEHHHPBD@Z ; jpeg_save
  00016	83 c4 14	 add	 esp, 20			; 00000014H
  00019	85 c0		 test	 eax, eax
  0001b	0f 95 c0	 setne	 al

; 170  : }

  0001e	5d		 pop	 ebp
  0001f	c2 10 00	 ret	 16			; 00000010H
?SaveJPEG@CPythonGraphic@@QAE_NPBDPAEII@Z ENDP		; CPythonGraphic::SaveJPEG
_TEXT	ENDS
; Function compile flags: /Ogtp
; File C:\DS Project\DS Files\Source\ClientSource\Client\eterPythonLib\PythonGraphic.cpp
; File C:\Program Files (x86)\Microsoft Visual Studio\2019\Community\VC\Tools\MSVC\14.27.29110\include\vector
; File C:\DS Project\DS Files\Source\ClientSource\Client\eterPythonLib\PythonGraphic.cpp
; File C:\Program Files (x86)\Microsoft Visual Studio\2019\Community\VC\Tools\MSVC\14.27.29110\include\vector
; File C:\DS Project\DS Files\Source\ClientSource\Client\eterPythonLib\PythonGraphic.cpp
; File C:\Program Files (x86)\Microsoft Visual Studio\2019\Community\VC\Tools\MSVC\14.27.29110\include\vector
; File C:\DS Project\DS Files\Source\ClientSource\Client\eterPythonLib\PythonGraphic.cpp
; File C:\DS Project\DS Files\Source\ClientSource\extern\include\d3dx8math.inl
; File C:\DS Project\DS Files\Source\ClientSource\Client\eterPythonLib\PythonGraphic.cpp
; File C:\DS Project\DS Files\Source\ClientSource\extern\include\d3dx8math.inl
; File C:\DS Project\DS Files\Source\ClientSource\Client\eterPythonLib\PythonGraphic.cpp
; File C:\DS Project\DS Files\Source\ClientSource\extern\include\d3dx8math.inl
; File C:\Program Files (x86)\Microsoft Visual Studio\2019\Community\VC\Tools\MSVC\14.27.29110\include\vector
; File C:\DS Project\DS Files\Source\ClientSource\extern\include\d3dx8math.inl
; File C:\DS Project\DS Files\Source\ClientSource\Client\eterPythonLib\PythonGraphic.cpp
; File C:\DS Project\DS Files\Source\ClientSource\extern\include\d3dx8math.inl
; File C:\DS Project\DS Files\Source\ClientSource\Client\eterPythonLib\PythonGraphic.cpp
; File C:\Program Files (x86)\Microsoft Visual Studio\2019\Community\VC\Tools\MSVC\14.27.29110\include\vector
; File C:\DS Project\DS Files\Source\ClientSource\Client\eterPythonLib\PythonGraphic.cpp
; File C:\DS Project\DS Files\Source\ClientSource\extern\include\d3dx8math.inl
; File C:\DS Project\DS Files\Source\ClientSource\Client\eterPythonLib\PythonGraphic.cpp
; File C:\DS Project\DS Files\Source\ClientSource\extern\include\d3dx8math.inl
; File C:\Program Files (x86)\Microsoft Visual Studio\2019\Community\VC\Tools\MSVC\14.27.29110\include\vector
; File C:\DS Project\DS Files\Source\ClientSource\extern\include\d3dx8math.inl
; File C:\Program Files (x86)\Microsoft Visual Studio\2019\Community\VC\Tools\MSVC\14.27.29110\include\vector
; File C:\DS Project\DS Files\Source\ClientSource\extern\include\d3dx8math.inl
; File C:\DS Project\DS Files\Source\ClientSource\Client\eterPythonLib\PythonGraphic.cpp
; File C:\Program Files (x86)\Microsoft Visual Studio\2019\Community\VC\Tools\MSVC\14.27.29110\include\vector
; File C:\Program Files (x86)\Microsoft Visual Studio\2019\Community\VC\Tools\MSVC\14.27.29110\include\xmemory
; File C:\Program Files (x86)\Microsoft Visual Studio\2019\Community\VC\Tools\MSVC\14.27.29110\include\vector
; File C:\DS Project\DS Files\Source\ClientSource\Client\eterPythonLib\PythonGraphic.cpp
; File C:\Program Files (x86)\Microsoft Visual Studio\2019\Community\VC\Tools\MSVC\14.27.29110\include\vector
; File C:\Program Files (x86)\Microsoft Visual Studio\2019\Community\VC\Tools\MSVC\14.27.29110\include\xmemory
; File C:\Program Files (x86)\Microsoft Visual Studio\2019\Community\VC\Tools\MSVC\14.27.29110\include\vector
; File C:\DS Project\DS Files\Source\ClientSource\Client\eterPythonLib\PythonGraphic.cpp
; File C:\Program Files (x86)\Microsoft Visual Studio\2019\Community\VC\Tools\MSVC\14.27.29110\include\vector
; File C:\Program Files (x86)\Microsoft Visual Studio\2019\Community\VC\Tools\MSVC\14.27.29110\include\xmemory
; File C:\Program Files (x86)\Microsoft Visual Studio\2019\Community\VC\Tools\MSVC\14.27.29110\include\vector
; File C:\DS Project\DS Files\Source\ClientSource\Client\eterPythonLib\PythonGraphic.cpp
; File C:\Program Files (x86)\Microsoft Visual Studio\2019\Community\VC\Tools\MSVC\14.27.29110\include\vector
; File C:\DS Project\DS Files\Source\ClientSource\Client\eterPythonLib\PythonGraphic.cpp
; File C:\Program Files (x86)\Microsoft Visual Studio\2019\Community\VC\Tools\MSVC\14.27.29110\include\vector
; File C:\DS Project\DS Files\Source\ClientSource\Client\eterPythonLib\PythonGraphic.cpp
; File C:\Program Files (x86)\Microsoft Visual Studio\2019\Community\VC\Tools\MSVC\14.27.29110\include\vector
; File C:\Program Files (x86)\Microsoft Visual Studio\2019\Community\VC\Tools\MSVC\14.27.29110\include\xmemory
; File C:\DS Project\DS Files\Source\ClientSource\Client\eterPythonLib\PythonGraphic.cpp
;	COMDAT ?RenderCoolTimeBox@CPythonGraphic@@QAEXMMMM@Z
_TEXT	SEGMENT
_vertex$ = -56						; size = 24
_vertices$ = -32					; size = 12
_fLastPercentage$1$ = -20				; size = 4
_dwR$1$ = -16						; size = 4
_dwR$1$ = -16						; size = 4
__$EHRec$ = -12						; size = 12
_fxCenter$ = 8						; size = 4
_fyCenter$ = 12						; size = 4
_fRadius$ = 16						; size = 4
_iTriCount$1$ = 20					; size = 4
_fTime$ = 20						; size = 4
?RenderCoolTimeBox@CPythonGraphic@@QAEXMMMM@Z PROC	; CPythonGraphic::RenderCoolTimeBox, COMDAT
; _this$ = ecx

; 492  : {

  00000	55		 push	 ebp
  00001	8b ec		 mov	 ebp, esp
  00003	6a ff		 push	 -1
  00005	68 00 00 00 00	 push	 __ehhandler$?RenderCoolTimeBox@CPythonGraphic@@QAEXMMMM@Z
  0000a	64 a1 00 00 00
	00		 mov	 eax, DWORD PTR fs:0
  00010	50		 push	 eax
  00011	83 ec 2c	 sub	 esp, 44			; 0000002cH
  00014	56		 push	 esi
  00015	57		 push	 edi
  00016	a1 00 00 00 00	 mov	 eax, DWORD PTR ___security_cookie
  0001b	33 c5		 xor	 eax, ebp
  0001d	50		 push	 eax
  0001e	8d 45 f4	 lea	 eax, DWORD PTR __$EHRec$[ebp]
  00021	64 a3 00 00 00
	00		 mov	 DWORD PTR fs:0, eax

; 493  : 	if (fTime >= 1.0f)

  00027	f3 0f 10 5d 14	 movss	 xmm3, DWORD PTR _fTime$[ebp]
  0002c	f3 0f 10 0d 00
	00 00 00	 movss	 xmm1, DWORD PTR __real@3f800000
  00034	0f 2f d9	 comiss	 xmm3, xmm1
  00037	0f 83 56 05 00
	00		 jae	 $LN130@RenderCool
  0003d	0f 57 c0	 xorps	 xmm0, xmm0
; File C:\Program Files (x86)\Microsoft Visual Studio\2019\Community\VC\Tools\MSVC\14.27.29110\include\vector

; 375  :     _Vector_val() noexcept : _Myfirst(), _Mylast(), _Myend() {}

  00040	c7 45 e0 00 00
	00 00		 mov	 DWORD PTR _vertices$[ebp], 0
; File C:\DS Project\DS Files\Source\ClientSource\Client\eterPythonLib\PythonGraphic.cpp

; 496  : 	fTime = max(0.0f, fTime);

  00047	f3 0f 5f c3	 maxss	 xmm0, xmm3
; File C:\Program Files (x86)\Microsoft Visual Studio\2019\Community\VC\Tools\MSVC\14.27.29110\include\vector

; 375  :     _Vector_val() noexcept : _Myfirst(), _Mylast(), _Myend() {}

  0004b	c7 45 e4 00 00
	00 00		 mov	 DWORD PTR _vertices$[ebp+4], 0
; File C:\DS Project\DS Files\Source\ClientSource\Client\eterPythonLib\PythonGraphic.cpp

; 512  : 	int iTriCount = int(8 - 8.0f * fTime);

  00052	f3 0f 10 1d 00
	00 00 00	 movss	 xmm3, DWORD PTR __real@41000000
  0005a	0f 57 d2	 xorps	 xmm2, xmm2
; File C:\Program Files (x86)\Microsoft Visual Studio\2019\Community\VC\Tools\MSVC\14.27.29110\include\vector

; 375  :     _Vector_val() noexcept : _Myfirst(), _Mylast(), _Myend() {}

  0005d	c7 45 e8 00 00
	00 00		 mov	 DWORD PTR _vertices$[ebp+8], 0
; File C:\DS Project\DS Files\Source\ClientSource\Client\eterPythonLib\PythonGraphic.cpp

; 512  : 	int iTriCount = int(8 - 8.0f * fTime);

  00064	f3 0f 59 c3	 mulss	 xmm0, xmm3
  00068	f3 0f 5c d8	 subss	 xmm3, xmm0
  0006c	f3 0f 2c c3	 cvttss2si eax, xmm3
  00070	89 45 14	 mov	 DWORD PTR _iTriCount$1$[ebp], eax
  00073	66 0f 6e c0	 movd	 xmm0, eax

; 513  : 	float fLastPercentage = (8 - 8.0f * fTime) - iTriCount;

  00077	0f 5b c0	 cvtdq2ps xmm0, xmm0
  0007a	f3 0f 5c d8	 subss	 xmm3, xmm0
  0007e	f3 0f 11 5d ec	 movss	 DWORD PTR _fLastPercentage$1$[ebp], xmm3

; 517  : 	vertex.position.x = fxCenter;

  00083	f3 0f 10 45 08	 movss	 xmm0, DWORD PTR _fxCenter$[ebp]
; File C:\DS Project\DS Files\Source\ClientSource\extern\include\d3dx8math.inl

; 931  :     DWORD dwR = r >= 1.0f ? 0xff : r <= 0.0f ? 0x00 : (DWORD) (r * 255.0f + 0.5f);

  00088	f3 0f 10 1d 00
	00 00 00	 movss	 xmm3, DWORD PTR __real@437f0000
  00090	f3 0f 10 25 00
	00 00 00	 movss	 xmm4, DWORD PTR __real@3f000000
; File C:\DS Project\DS Files\Source\ClientSource\Client\eterPythonLib\PythonGraphic.cpp

; 517  : 	vertex.position.x = fxCenter;

  00098	f3 0f 11 45 c8	 movss	 DWORD PTR _vertex$[ebp], xmm0

; 518  : 	vertex.position.y = fyCenter;

  0009d	f3 0f 10 45 0c	 movss	 xmm0, DWORD PTR _fyCenter$[ebp]
  000a2	f3 0f 11 45 cc	 movss	 DWORD PTR _vertex$[ebp+4], xmm0
; File C:\DS Project\DS Files\Source\ClientSource\extern\include\d3dx8math.inl

; 931  :     DWORD dwR = r >= 1.0f ? 0xff : r <= 0.0f ? 0x00 : (DWORD) (r * 255.0f + 0.5f);

  000a7	f3 0f 10 05 00
	00 00 00	 movss	 xmm0, DWORD PTR ?color@?1??RenderCoolTimeBox@CPythonGraphic@@QAEXMMMM@Z@4UD3DXCOLOR@@A
  000af	0f 2f c1	 comiss	 xmm0, xmm1
; File C:\DS Project\DS Files\Source\ClientSource\Client\eterPythonLib\PythonGraphic.cpp

; 515  : 	std::vector<TPDTVertex> vertices;

  000b2	c7 45 fc 00 00
	00 00		 mov	 DWORD PTR __$EHRec$[ebp+8], 0

; 519  : 	vertex.position.z = 0.0f;

  000b9	c7 45 d0 00 00
	00 00		 mov	 DWORD PTR _vertex$[ebp+8], 0
; File C:\DS Project\DS Files\Source\ClientSource\extern\include\d3dx8math.inl

; 931  :     DWORD dwR = r >= 1.0f ? 0xff : r <= 0.0f ? 0x00 : (DWORD) (r * 255.0f + 0.5f);

  000c0	72 09		 jb	 SHORT $LN46@RenderCool
  000c2	c7 45 f0 ff 00
	00 00		 mov	 DWORD PTR _dwR$1$[ebp], 255 ; 000000ffH
  000c9	eb 39		 jmp	 SHORT $LN45@RenderCool
$LN46@RenderCool:
  000cb	0f 2f d0	 comiss	 xmm2, xmm0
  000ce	72 09		 jb	 SHORT $LN44@RenderCool
  000d0	c7 45 f0 00 00
	00 00		 mov	 DWORD PTR _dwR$1$[ebp], 0
  000d7	eb 2b		 jmp	 SHORT $LN45@RenderCool
$LN44@RenderCool:
  000d9	f3 0f 59 c3	 mulss	 xmm0, xmm3
  000dd	f3 0f 58 c4	 addss	 xmm0, xmm4
  000e1	e8 00 00 00 00	 call	 __ftoui3
  000e6	f3 0f 10 0d 00
	00 00 00	 movss	 xmm1, DWORD PTR __real@3f800000
  000ee	0f 57 d2	 xorps	 xmm2, xmm2
  000f1	f3 0f 10 1d 00
	00 00 00	 movss	 xmm3, DWORD PTR __real@437f0000
  000f9	f3 0f 10 25 00
	00 00 00	 movss	 xmm4, DWORD PTR __real@3f000000
  00101	89 45 f0	 mov	 DWORD PTR _dwR$1$[ebp], eax
$LN45@RenderCool:

; 932  :     DWORD dwG = g >= 1.0f ? 0xff : g <= 0.0f ? 0x00 : (DWORD) (g * 255.0f + 0.5f);

  00104	f3 0f 10 05 04
	00 00 00	 movss	 xmm0, DWORD PTR ?color@?1??RenderCoolTimeBox@CPythonGraphic@@QAEXMMMM@Z@4UD3DXCOLOR@@A+4
  0010c	0f 2f c1	 comiss	 xmm0, xmm1
  0010f	72 07		 jb	 SHORT $LN50@RenderCool
  00111	bf ff 00 00 00	 mov	 edi, 255		; 000000ffH
  00116	eb 20		 jmp	 SHORT $LN49@RenderCool
$LN50@RenderCool:
  00118	0f 2f d0	 comiss	 xmm2, xmm0
  0011b	72 04		 jb	 SHORT $LN48@RenderCool
  0011d	33 ff		 xor	 edi, edi
  0011f	eb 17		 jmp	 SHORT $LN49@RenderCool
$LN48@RenderCool:
  00121	f3 0f 59 c3	 mulss	 xmm0, xmm3
  00125	f3 0f 58 c4	 addss	 xmm0, xmm4
  00129	e8 00 00 00 00	 call	 __ftoui3
  0012e	f3 0f 10 0d 00
	00 00 00	 movss	 xmm1, DWORD PTR __real@3f800000
  00136	8b f8		 mov	 edi, eax
$LN49@RenderCool:

; 933  :     DWORD dwB = b >= 1.0f ? 0xff : b <= 0.0f ? 0x00 : (DWORD) (b * 255.0f + 0.5f);

  00138	f3 0f 10 05 08
	00 00 00	 movss	 xmm0, DWORD PTR ?color@?1??RenderCoolTimeBox@CPythonGraphic@@QAEXMMMM@Z@4UD3DXCOLOR@@A+8
  00140	0f 57 d2	 xorps	 xmm2, xmm2
  00143	0f 2f c1	 comiss	 xmm0, xmm1
  00146	72 07		 jb	 SHORT $LN54@RenderCool
  00148	be ff 00 00 00	 mov	 esi, 255		; 000000ffH
  0014d	eb 2b		 jmp	 SHORT $LN53@RenderCool
$LN54@RenderCool:
  0014f	0f 2f d0	 comiss	 xmm2, xmm0
  00152	72 04		 jb	 SHORT $LN52@RenderCool
  00154	33 f6		 xor	 esi, esi
  00156	eb 22		 jmp	 SHORT $LN53@RenderCool
$LN52@RenderCool:
  00158	f3 0f 59 05 00
	00 00 00	 mulss	 xmm0, DWORD PTR __real@437f0000
  00160	f3 0f 58 05 00
	00 00 00	 addss	 xmm0, DWORD PTR __real@3f000000
  00168	e8 00 00 00 00	 call	 __ftoui3
  0016d	f3 0f 10 0d 00
	00 00 00	 movss	 xmm1, DWORD PTR __real@3f800000
  00175	8b f0		 mov	 esi, eax
  00177	0f 57 d2	 xorps	 xmm2, xmm2
$LN53@RenderCool:

; 934  :     DWORD dwA = a >= 1.0f ? 0xff : a <= 0.0f ? 0x00 : (DWORD) (a * 255.0f + 0.5f);

  0017a	f3 0f 10 05 0c
	00 00 00	 movss	 xmm0, DWORD PTR ?color@?1??RenderCoolTimeBox@CPythonGraphic@@QAEXMMMM@Z@4UD3DXCOLOR@@A+12
  00182	0f 2f c1	 comiss	 xmm0, xmm1
  00185	72 07		 jb	 SHORT $LN58@RenderCool
  00187	b8 ff 00 00 00	 mov	 eax, 255		; 000000ffH
  0018c	eb 1e		 jmp	 SHORT $LN57@RenderCool
$LN58@RenderCool:
  0018e	0f 2f d0	 comiss	 xmm2, xmm0
  00191	72 04		 jb	 SHORT $LN56@RenderCool
  00193	33 c0		 xor	 eax, eax
  00195	eb 15		 jmp	 SHORT $LN57@RenderCool
$LN56@RenderCool:
  00197	f3 0f 59 05 00
	00 00 00	 mulss	 xmm0, DWORD PTR __real@437f0000
  0019f	f3 0f 58 05 00
	00 00 00	 addss	 xmm0, DWORD PTR __real@3f000000
  001a7	e8 00 00 00 00	 call	 __ftoui3
$LN57@RenderCool:

; 936  :     return (dwA << 24) | (dwR << 16) | (dwG << 8) | dwB;

  001ac	c1 e0 08	 shl	 eax, 8
; File C:\Program Files (x86)\Microsoft Visual Studio\2019\Community\VC\Tools\MSVC\14.27.29110\include\vector

; 708  :         _Ty& _Result = *_Emplace_reallocate(_Mylast, _STD forward<_Valty>(_Val)...);

  001af	8d 4d e0	 lea	 ecx, DWORD PTR _vertices$[ebp]
; File C:\DS Project\DS Files\Source\ClientSource\extern\include\d3dx8math.inl

; 936  :     return (dwA << 24) | (dwR << 16) | (dwG << 8) | dwB;

  001b2	0b 45 f0	 or	 eax, DWORD PTR _dwR$1$[ebp]
  001b5	c1 e0 08	 shl	 eax, 8
  001b8	0b c7		 or	 eax, edi
; File C:\DS Project\DS Files\Source\ClientSource\Client\eterPythonLib\PythonGraphic.cpp

; 522  : 	vertex.texCoord.x = 0.0f;

  001ba	c7 45 d8 00 00
	00 00		 mov	 DWORD PTR _vertex$[ebp+16], 0
; File C:\DS Project\DS Files\Source\ClientSource\extern\include\d3dx8math.inl

; 936  :     return (dwA << 24) | (dwR << 16) | (dwG << 8) | dwB;

  001c1	c1 e0 08	 shl	 eax, 8
  001c4	0b c6		 or	 eax, esi
; File C:\DS Project\DS Files\Source\ClientSource\Client\eterPythonLib\PythonGraphic.cpp

; 520  : 	vertex.diffuse = color;

  001c6	89 45 d4	 mov	 DWORD PTR _vertex$[ebp+12], eax
; File C:\Program Files (x86)\Microsoft Visual Studio\2019\Community\VC\Tools\MSVC\14.27.29110\include\vector

; 708  :         _Ty& _Result = *_Emplace_reallocate(_Mylast, _STD forward<_Valty>(_Val)...);

  001c9	8d 45 c8	 lea	 eax, DWORD PTR _vertex$[ebp]
  001cc	50		 push	 eax
  001cd	6a 00		 push	 0
  001cf	e8 00 00 00 00	 call	 ??$_Emplace_reallocate@ABUSPDTVertex@@@?$vector@USPDTVertex@@V?$allocator@USPDTVertex@@@std@@@std@@QAEPAUSPDTVertex@@QAU2@ABU2@@Z ; std::vector<SPDTVertex,std::allocator<SPDTVertex> >::_Emplace_reallocate<SPDTVertex const &>
; File C:\DS Project\DS Files\Source\ClientSource\Client\eterPythonLib\PythonGraphic.cpp

; 525  : 	vertex.position.y = fyCenter - fRadius;

  001d4	f3 0f 10 45 0c	 movss	 xmm0, DWORD PTR _fyCenter$[ebp]
; File C:\DS Project\DS Files\Source\ClientSource\extern\include\d3dx8math.inl

; 931  :     DWORD dwR = r >= 1.0f ? 0xff : r <= 0.0f ? 0x00 : (DWORD) (r * 255.0f + 0.5f);

  001d9	0f 57 c9	 xorps	 xmm1, xmm1
; File C:\DS Project\DS Files\Source\ClientSource\Client\eterPythonLib\PythonGraphic.cpp

; 525  : 	vertex.position.y = fyCenter - fRadius;

  001dc	f3 0f 5c 45 10	 subss	 xmm0, DWORD PTR _fRadius$[ebp]
  001e1	f3 0f 11 45 cc	 movss	 DWORD PTR _vertex$[ebp+4], xmm0
; File C:\DS Project\DS Files\Source\ClientSource\extern\include\d3dx8math.inl

; 931  :     DWORD dwR = r >= 1.0f ? 0xff : r <= 0.0f ? 0x00 : (DWORD) (r * 255.0f + 0.5f);

  001e6	f3 0f 10 05 00
	00 00 00	 movss	 xmm0, DWORD PTR ?color@?1??RenderCoolTimeBox@CPythonGraphic@@QAEXMMMM@Z@4UD3DXCOLOR@@A
  001ee	0f 2f 05 00 00
	00 00		 comiss	 xmm0, DWORD PTR __real@3f800000
  001f5	72 09		 jb	 SHORT $LN73@RenderCool
  001f7	c7 45 f0 ff 00
	00 00		 mov	 DWORD PTR _dwR$1$[ebp], 255 ; 000000ffH
  001fe	eb 29		 jmp	 SHORT $LN72@RenderCool
$LN73@RenderCool:
  00200	0f 2f c8	 comiss	 xmm1, xmm0
  00203	72 09		 jb	 SHORT $LN71@RenderCool
  00205	c7 45 f0 00 00
	00 00		 mov	 DWORD PTR _dwR$1$[ebp], 0
  0020c	eb 1b		 jmp	 SHORT $LN72@RenderCool
$LN71@RenderCool:
  0020e	f3 0f 59 05 00
	00 00 00	 mulss	 xmm0, DWORD PTR __real@437f0000
  00216	f3 0f 58 05 00
	00 00 00	 addss	 xmm0, DWORD PTR __real@3f000000
  0021e	e8 00 00 00 00	 call	 __ftoui3
  00223	89 45 f0	 mov	 DWORD PTR _dwR$1$[ebp], eax
  00226	0f 57 c9	 xorps	 xmm1, xmm1
$LN72@RenderCool:

; 932  :     DWORD dwG = g >= 1.0f ? 0xff : g <= 0.0f ? 0x00 : (DWORD) (g * 255.0f + 0.5f);

  00229	f3 0f 10 05 04
	00 00 00	 movss	 xmm0, DWORD PTR ?color@?1??RenderCoolTimeBox@CPythonGraphic@@QAEXMMMM@Z@4UD3DXCOLOR@@A+4
  00231	0f 2f 05 00 00
	00 00		 comiss	 xmm0, DWORD PTR __real@3f800000
  00238	72 07		 jb	 SHORT $LN77@RenderCool
  0023a	bf ff 00 00 00	 mov	 edi, 255		; 000000ffH
  0023f	eb 20		 jmp	 SHORT $LN76@RenderCool
$LN77@RenderCool:
  00241	0f 2f c8	 comiss	 xmm1, xmm0
  00244	72 04		 jb	 SHORT $LN75@RenderCool
  00246	33 ff		 xor	 edi, edi
  00248	eb 17		 jmp	 SHORT $LN76@RenderCool
$LN75@RenderCool:
  0024a	f3 0f 59 05 00
	00 00 00	 mulss	 xmm0, DWORD PTR __real@437f0000
  00252	f3 0f 58 05 00
	00 00 00	 addss	 xmm0, DWORD PTR __real@3f000000
  0025a	e8 00 00 00 00	 call	 __ftoui3
  0025f	8b f8		 mov	 edi, eax
$LN76@RenderCool:

; 933  :     DWORD dwB = b >= 1.0f ? 0xff : b <= 0.0f ? 0x00 : (DWORD) (b * 255.0f + 0.5f);

  00261	f3 0f 10 0d 08
	00 00 00	 movss	 xmm1, DWORD PTR ?color@?1??RenderCoolTimeBox@CPythonGraphic@@QAEXMMMM@Z@4UD3DXCOLOR@@A+8
  00269	0f 57 d2	 xorps	 xmm2, xmm2
  0026c	f3 0f 10 05 00
	00 00 00	 movss	 xmm0, DWORD PTR __real@3f800000
  00274	0f 2f c8	 comiss	 xmm1, xmm0
  00277	72 07		 jb	 SHORT $LN81@RenderCool
  00279	be ff 00 00 00	 mov	 esi, 255		; 000000ffH
  0027e	eb 2e		 jmp	 SHORT $LN80@RenderCool
$LN81@RenderCool:
  00280	0f 2f d1	 comiss	 xmm2, xmm1
  00283	72 04		 jb	 SHORT $LN79@RenderCool
  00285	33 f6		 xor	 esi, esi
  00287	eb 25		 jmp	 SHORT $LN80@RenderCool
$LN79@RenderCool:
  00289	f3 0f 59 0d 00
	00 00 00	 mulss	 xmm1, DWORD PTR __real@437f0000
  00291	f3 0f 58 0d 00
	00 00 00	 addss	 xmm1, DWORD PTR __real@3f000000
  00299	0f 28 c1	 movaps	 xmm0, xmm1
  0029c	e8 00 00 00 00	 call	 __ftoui3
  002a1	f3 0f 10 05 00
	00 00 00	 movss	 xmm0, DWORD PTR __real@3f800000
  002a9	8b f0		 mov	 esi, eax
  002ab	0f 57 d2	 xorps	 xmm2, xmm2
$LN80@RenderCool:

; 934  :     DWORD dwA = a >= 1.0f ? 0xff : a <= 0.0f ? 0x00 : (DWORD) (a * 255.0f + 0.5f);

  002ae	f3 0f 10 0d 0c
	00 00 00	 movss	 xmm1, DWORD PTR ?color@?1??RenderCoolTimeBox@CPythonGraphic@@QAEXMMMM@Z@4UD3DXCOLOR@@A+12
  002b6	0f 2f c8	 comiss	 xmm1, xmm0
  002b9	72 07		 jb	 SHORT $LN85@RenderCool
  002bb	b8 ff 00 00 00	 mov	 eax, 255		; 000000ffH
  002c0	eb 21		 jmp	 SHORT $LN84@RenderCool
$LN85@RenderCool:
  002c2	0f 2f d1	 comiss	 xmm2, xmm1
  002c5	72 04		 jb	 SHORT $LN83@RenderCool
  002c7	33 c0		 xor	 eax, eax
  002c9	eb 18		 jmp	 SHORT $LN84@RenderCool
$LN83@RenderCool:
  002cb	f3 0f 59 0d 00
	00 00 00	 mulss	 xmm1, DWORD PTR __real@437f0000
  002d3	f3 0f 58 0d 00
	00 00 00	 addss	 xmm1, DWORD PTR __real@3f000000
  002db	0f 28 c1	 movaps	 xmm0, xmm1
  002de	e8 00 00 00 00	 call	 __ftoui3
$LN84@RenderCool:
; File C:\Program Files (x86)\Microsoft Visual Studio\2019\Community\VC\Tools\MSVC\14.27.29110\include\vector

; 704  :         if (_Mylast != _My_data._Myend) {

  002e3	8b 55 e4	 mov	 edx, DWORD PTR _vertices$[ebp+4]
; File C:\DS Project\DS Files\Source\ClientSource\extern\include\d3dx8math.inl

; 936  :     return (dwA << 24) | (dwR << 16) | (dwG << 8) | dwB;

  002e6	c1 e0 08	 shl	 eax, 8
  002e9	0b 45 f0	 or	 eax, DWORD PTR _dwR$1$[ebp]
  002ec	c1 e0 08	 shl	 eax, 8
  002ef	0b c7		 or	 eax, edi
; File C:\Program Files (x86)\Microsoft Visual Studio\2019\Community\VC\Tools\MSVC\14.27.29110\include\vector

; 704  :         if (_Mylast != _My_data._Myend) {

  002f1	8b 7d e8	 mov	 edi, DWORD PTR _vertices$[ebp+8]
; File C:\DS Project\DS Files\Source\ClientSource\extern\include\d3dx8math.inl

; 936  :     return (dwA << 24) | (dwR << 16) | (dwG << 8) | dwB;

  002f4	c1 e0 08	 shl	 eax, 8
  002f7	0b c6		 or	 eax, esi
; File C:\DS Project\DS Files\Source\ClientSource\Client\eterPythonLib\PythonGraphic.cpp

; 527  : 	vertex.diffuse = color;

  002f9	89 45 d4	 mov	 DWORD PTR _vertex$[ebp+12], eax
; File C:\Program Files (x86)\Microsoft Visual Studio\2019\Community\VC\Tools\MSVC\14.27.29110\include\vector

; 704  :         if (_Mylast != _My_data._Myend) {

  002fc	3b d7		 cmp	 edx, edi
  002fe	74 19		 je	 SHORT $LN90@RenderCool
; File C:\Program Files (x86)\Microsoft Visual Studio\2019\Community\VC\Tools\MSVC\14.27.29110\include\xmemory

; 694  :         ::new (const_cast<void*>(static_cast<const volatile void*>(_Ptr))) _Objty(_STD forward<_Types>(_Args)...);

  00300	0f 10 45 c8	 movups	 xmm0, XMMWORD PTR _vertex$[ebp]
  00304	f3 0f 7e 55 d8	 movq	 xmm2, QWORD PTR _vertex$[ebp+16]
  00309	0f 11 02	 movups	 XMMWORD PTR [edx], xmm0
  0030c	66 0f d6 52 10	 movq	 QWORD PTR [edx+16], xmm2
; File C:\Program Files (x86)\Microsoft Visual Studio\2019\Community\VC\Tools\MSVC\14.27.29110\include\vector

; 690  :         ++_Mylast;

  00311	83 c2 18	 add	 edx, 24			; 00000018H
  00314	89 55 e4	 mov	 DWORD PTR _vertices$[ebp+4], edx

; 705  :             return _Emplace_back_with_unused_capacity(_STD forward<_Valty>(_Val)...);

  00317	eb 18		 jmp	 SHORT $LN89@RenderCool
$LN90@RenderCool:

; 708  :         _Ty& _Result = *_Emplace_reallocate(_Mylast, _STD forward<_Valty>(_Val)...);

  00319	8d 45 c8	 lea	 eax, DWORD PTR _vertex$[ebp]
  0031c	50		 push	 eax
  0031d	52		 push	 edx
  0031e	8d 4d e0	 lea	 ecx, DWORD PTR _vertices$[ebp]
  00321	e8 00 00 00 00	 call	 ??$_Emplace_reallocate@ABUSPDTVertex@@@?$vector@USPDTVertex@@V?$allocator@USPDTVertex@@@std@@@std@@QAEPAUSPDTVertex@@QAU2@ABU2@@Z ; std::vector<SPDTVertex,std::allocator<SPDTVertex> >::_Emplace_reallocate<SPDTVertex const &>
  00326	8b 7d e8	 mov	 edi, DWORD PTR _vertices$[ebp+8]
  00329	8b 55 e4	 mov	 edx, DWORD PTR _vertices$[ebp+4]
  0032c	f3 0f 7e 55 d8	 movq	 xmm2, QWORD PTR _vertex$[ebp+16]
$LN89@RenderCool:
; File C:\DS Project\DS Files\Source\ClientSource\Client\eterPythonLib\PythonGraphic.cpp

; 532  : 	for (int j = 0; j < iTriCount; ++j)

  00331	8b 45 14	 mov	 eax, DWORD PTR _iTriCount$1$[ebp]
  00334	33 f6		 xor	 esi, esi
  00336	85 c0		 test	 eax, eax
  00338	0f 8e 85 00 00
	00		 jle	 $LN5@RenderCool
  0033e	f3 0f 10 4d 10	 movss	 xmm1, DWORD PTR _fRadius$[ebp]
  00343	f3 0f 10 5d 0c	 movss	 xmm3, DWORD PTR _fyCenter$[ebp]
  00348	f3 0f 10 65 08	 movss	 xmm4, DWORD PTR _fxCenter$[ebp]
  0034d	0f 1f 00	 npad	 3
$LL6@RenderCool:

; 533  : 	{
; 534  : 		vertex.position.x = fxCenter + s_v2BoxPos[j].x * fRadius;

  00350	f3 0f 10 04 f5
	00 00 00 00	 movss	 xmm0, DWORD PTR ?s_v2BoxPos@?1??RenderCoolTimeBox@CPythonGraphic@@QAEXMMMM@Z@4PAUD3DXVECTOR2@@A[esi*8]
  00359	f3 0f 59 c1	 mulss	 xmm0, xmm1
  0035d	f3 0f 58 c4	 addss	 xmm0, xmm4
  00361	f3 0f 11 45 c8	 movss	 DWORD PTR _vertex$[ebp], xmm0

; 535  : 		vertex.position.y = fyCenter + s_v2BoxPos[j].y * fRadius;

  00366	f3 0f 10 04 f5
	04 00 00 00	 movss	 xmm0, DWORD PTR ?s_v2BoxPos@?1??RenderCoolTimeBox@CPythonGraphic@@QAEXMMMM@Z@4PAUD3DXVECTOR2@@A[esi*8+4]
  0036f	f3 0f 59 c1	 mulss	 xmm0, xmm1
  00373	f3 0f 58 c3	 addss	 xmm0, xmm3
  00377	f3 0f 11 45 cc	 movss	 DWORD PTR _vertex$[ebp+4], xmm0
; File C:\Program Files (x86)\Microsoft Visual Studio\2019\Community\VC\Tools\MSVC\14.27.29110\include\vector

; 704  :         if (_Mylast != _My_data._Myend) {

  0037c	3b d7		 cmp	 edx, edi
  0037e	74 14		 je	 SHORT $LN99@RenderCool
; File C:\Program Files (x86)\Microsoft Visual Studio\2019\Community\VC\Tools\MSVC\14.27.29110\include\xmemory

; 694  :         ::new (const_cast<void*>(static_cast<const volatile void*>(_Ptr))) _Objty(_STD forward<_Types>(_Args)...);

  00380	0f 10 45 c8	 movups	 xmm0, XMMWORD PTR _vertex$[ebp]
  00384	0f 11 02	 movups	 XMMWORD PTR [edx], xmm0
  00387	66 0f d6 52 10	 movq	 QWORD PTR [edx+16], xmm2
; File C:\Program Files (x86)\Microsoft Visual Studio\2019\Community\VC\Tools\MSVC\14.27.29110\include\vector

; 690  :         ++_Mylast;

  0038c	83 c2 18	 add	 edx, 24			; 00000018H
  0038f	89 55 e4	 mov	 DWORD PTR _vertices$[ebp+4], edx

; 705  :             return _Emplace_back_with_unused_capacity(_STD forward<_Valty>(_Val)...);

  00392	eb 2a		 jmp	 SHORT $LN4@RenderCool
$LN99@RenderCool:

; 708  :         _Ty& _Result = *_Emplace_reallocate(_Mylast, _STD forward<_Valty>(_Val)...);

  00394	8d 45 c8	 lea	 eax, DWORD PTR _vertex$[ebp]
  00397	50		 push	 eax
  00398	52		 push	 edx
  00399	8d 4d e0	 lea	 ecx, DWORD PTR _vertices$[ebp]
  0039c	e8 00 00 00 00	 call	 ??$_Emplace_reallocate@ABUSPDTVertex@@@?$vector@USPDTVertex@@V?$allocator@USPDTVertex@@@std@@@std@@QAEPAUSPDTVertex@@QAU2@ABU2@@Z ; std::vector<SPDTVertex,std::allocator<SPDTVertex> >::_Emplace_reallocate<SPDTVertex const &>
  003a1	8b 7d e8	 mov	 edi, DWORD PTR _vertices$[ebp+8]
  003a4	8b 55 e4	 mov	 edx, DWORD PTR _vertices$[ebp+4]
  003a7	f3 0f 7e 55 d8	 movq	 xmm2, QWORD PTR _vertex$[ebp+16]
  003ac	f3 0f 10 4d 10	 movss	 xmm1, DWORD PTR _fRadius$[ebp]
  003b1	f3 0f 10 5d 0c	 movss	 xmm3, DWORD PTR _fyCenter$[ebp]
  003b6	f3 0f 10 65 08	 movss	 xmm4, DWORD PTR _fxCenter$[ebp]
  003bb	8b 45 14	 mov	 eax, DWORD PTR _iTriCount$1$[ebp]
$LN4@RenderCool:
; File C:\DS Project\DS Files\Source\ClientSource\Client\eterPythonLib\PythonGraphic.cpp

; 532  : 	for (int j = 0; j < iTriCount; ++j)

  003be	46		 inc	 esi
  003bf	3b f0		 cmp	 esi, eax
  003c1	7c 8d		 jl	 SHORT $LL6@RenderCool
$LN5@RenderCool:

; 536  : 		vertices.push_back(vertex);
; 537  : 	}
; 538  : 
; 539  : 	if (fLastPercentage > 0.0f)

  003c3	f3 0f 10 65 ec	 movss	 xmm4, DWORD PTR _fLastPercentage$1$[ebp]
  003c8	0f 2f 25 00 00
	00 00		 comiss	 xmm4, DWORD PTR __real@00000000
  003cf	0f 86 a7 00 00
	00		 jbe	 $LN8@RenderCool

; 540  : 	{
; 541  : 		D3DXVECTOR2 * pv2Pos;
; 542  : 		D3DXVECTOR2 * pv2LastPos;
; 543  : 
; 544  : 		assert((iTriCount-1+8)%8 >= 0 && (iTriCount-1+8)%8 < 8);
; 545  : 		assert((iTriCount+8)%8 >= 0 && (iTriCount+8)%8 < 8);
; 546  : 		pv2LastPos = &s_v2BoxPos[(iTriCount-1+8)%8];

  003d5	8d 48 07	 lea	 ecx, DWORD PTR [eax+7]
  003d8	81 e1 07 00 00
	80		 and	 ecx, -2147483641	; 80000007H
  003de	79 05		 jns	 SHORT $LN139@RenderCool
  003e0	49		 dec	 ecx
  003e1	83 c9 f8	 or	 ecx, -8			; fffffff8H
  003e4	41		 inc	 ecx
$LN139@RenderCool:

; 547  : 		pv2Pos = &s_v2BoxPos[(iTriCount+8)%8];

  003e5	83 c0 08	 add	 eax, 8
  003e8	25 07 00 00 80	 and	 eax, -2147483641	; 80000007H
  003ed	79 05		 jns	 SHORT $LN140@RenderCool
  003ef	48		 dec	 eax
  003f0	83 c8 f8	 or	 eax, -8			; fffffff8H
  003f3	40		 inc	 eax
$LN140@RenderCool:

; 548  : 
; 549  : 		vertex.position.x = fxCenter + ((pv2Pos->x-pv2LastPos->x) * fLastPercentage + pv2LastPos->x) * fRadius;

  003f4	f3 0f 10 04 cd
	00 00 00 00	 movss	 xmm0, DWORD PTR ?s_v2BoxPos@?1??RenderCoolTimeBox@CPythonGraphic@@QAEXMMMM@Z@4PAUD3DXVECTOR2@@A[ecx*8]
  003fd	f3 0f 10 0c c5
	00 00 00 00	 movss	 xmm1, DWORD PTR ?s_v2BoxPos@?1??RenderCoolTimeBox@CPythonGraphic@@QAEXMMMM@Z@4PAUD3DXVECTOR2@@A[eax*8]
  00406	f3 0f 5c c8	 subss	 xmm1, xmm0
  0040a	f3 0f 59 cc	 mulss	 xmm1, xmm4
  0040e	f3 0f 58 c8	 addss	 xmm1, xmm0

; 550  : 		vertex.position.y = fyCenter + ((pv2Pos->y-pv2LastPos->y) * fLastPercentage + pv2LastPos->y) * fRadius;

  00412	f3 0f 10 04 cd
	04 00 00 00	 movss	 xmm0, DWORD PTR ?s_v2BoxPos@?1??RenderCoolTimeBox@CPythonGraphic@@QAEXMMMM@Z@4PAUD3DXVECTOR2@@A[ecx*8+4]
  0041b	f3 0f 59 4d 10	 mulss	 xmm1, DWORD PTR _fRadius$[ebp]
  00420	f3 0f 58 4d 08	 addss	 xmm1, DWORD PTR _fxCenter$[ebp]
  00425	f3 0f 11 4d c8	 movss	 DWORD PTR _vertex$[ebp], xmm1
  0042a	f3 0f 10 0c c5
	04 00 00 00	 movss	 xmm1, DWORD PTR ?s_v2BoxPos@?1??RenderCoolTimeBox@CPythonGraphic@@QAEXMMMM@Z@4PAUD3DXVECTOR2@@A[eax*8+4]
  00433	f3 0f 5c c8	 subss	 xmm1, xmm0
  00437	f3 0f 59 cc	 mulss	 xmm1, xmm4
  0043b	f3 0f 58 c8	 addss	 xmm1, xmm0
  0043f	f3 0f 59 4d 10	 mulss	 xmm1, DWORD PTR _fRadius$[ebp]
  00444	f3 0f 58 4d 0c	 addss	 xmm1, DWORD PTR _fyCenter$[ebp]
  00449	f3 0f 11 4d cc	 movss	 DWORD PTR _vertex$[ebp+4], xmm1
; File C:\Program Files (x86)\Microsoft Visual Studio\2019\Community\VC\Tools\MSVC\14.27.29110\include\vector

; 704  :         if (_Mylast != _My_data._Myend) {

  0044e	3b d7		 cmp	 edx, edi
  00450	74 14		 je	 SHORT $LN108@RenderCool
; File C:\Program Files (x86)\Microsoft Visual Studio\2019\Community\VC\Tools\MSVC\14.27.29110\include\xmemory

; 694  :         ::new (const_cast<void*>(static_cast<const volatile void*>(_Ptr))) _Objty(_STD forward<_Types>(_Args)...);

  00452	0f 10 45 c8	 movups	 xmm0, XMMWORD PTR _vertex$[ebp]
  00456	0f 11 02	 movups	 XMMWORD PTR [edx], xmm0
  00459	66 0f d6 52 10	 movq	 QWORD PTR [edx+16], xmm2
; File C:\Program Files (x86)\Microsoft Visual Studio\2019\Community\VC\Tools\MSVC\14.27.29110\include\vector

; 690  :         ++_Mylast;

  0045e	83 c2 18	 add	 edx, 24			; 00000018H
  00461	89 55 e4	 mov	 DWORD PTR _vertices$[ebp+4], edx

; 705  :             return _Emplace_back_with_unused_capacity(_STD forward<_Valty>(_Val)...);

  00464	eb 13		 jmp	 SHORT $LN107@RenderCool
$LN108@RenderCool:

; 708  :         _Ty& _Result = *_Emplace_reallocate(_Mylast, _STD forward<_Valty>(_Val)...);

  00466	8d 45 c8	 lea	 eax, DWORD PTR _vertex$[ebp]
  00469	50		 push	 eax
  0046a	52		 push	 edx
  0046b	8d 4d e0	 lea	 ecx, DWORD PTR _vertices$[ebp]
  0046e	e8 00 00 00 00	 call	 ??$_Emplace_reallocate@ABUSPDTVertex@@@?$vector@USPDTVertex@@V?$allocator@USPDTVertex@@@std@@@std@@QAEPAUSPDTVertex@@QAU2@ABU2@@Z ; std::vector<SPDTVertex,std::allocator<SPDTVertex> >::_Emplace_reallocate<SPDTVertex const &>
  00473	8b 7d e8	 mov	 edi, DWORD PTR _vertices$[ebp+8]
  00476	8b 55 e4	 mov	 edx, DWORD PTR _vertices$[ebp+4]
$LN107@RenderCool:
; File C:\DS Project\DS Files\Source\ClientSource\Client\eterPythonLib\PythonGraphic.cpp

; 552  : 		++iTriCount;

  00479	ff 45 14	 inc	 DWORD PTR _iTriCount$1$[ebp]
$LN8@RenderCool:
; File C:\Program Files (x86)\Microsoft Visual Studio\2019\Community\VC\Tools\MSVC\14.27.29110\include\vector

; 1479 :         return _My_data._Myfirst == _My_data._Mylast;

  0047c	8b 75 e0	 mov	 esi, DWORD PTR _vertices$[ebp]
  0047f	3b f2		 cmp	 esi, edx
; File C:\DS Project\DS Files\Source\ClientSource\Client\eterPythonLib\PythonGraphic.cpp

; 555  : 	if (vertices.empty())

  00481	0f 84 e5 00 00
	00		 je	 $LN10@RenderCool
; File C:\Program Files (x86)\Microsoft Visual Studio\2019\Community\VC\Tools\MSVC\14.27.29110\include\vector

; 1484 :         return static_cast<size_type>(_My_data._Mylast - _My_data._Myfirst);

  00487	2b d6		 sub	 edx, esi
  00489	b8 ab aa aa 2a	 mov	 eax, 715827883		; 2aaaaaabH
  0048e	f7 ea		 imul	 edx
  00490	c1 fa 02	 sar	 edx, 2
  00493	8b c2		 mov	 eax, edx
  00495	c1 e8 1f	 shr	 eax, 31			; 0000001fH
  00498	03 c2		 add	 eax, edx
; File C:\DS Project\DS Files\Source\ClientSource\Client\eterPythonLib\PythonGraphic.cpp

; 558  : 	if (SetPDTStream(&vertices[0], vertices.size()))

  0049a	50		 push	 eax
  0049b	56		 push	 esi
  0049c	e8 00 00 00 00	 call	 ?SetPDTStream@CGraphicBase@@SA_NPAUSPDTVertex@@I@Z ; CGraphicBase::SetPDTStream
  004a1	83 c4 08	 add	 esp, 8
  004a4	84 c0		 test	 al, al
  004a6	0f 84 c0 00 00
	00		 je	 $LN10@RenderCool

; 559  : 	{
; 560  : 		STATEMANAGER.SaveTextureStageState(0, D3DTSS_COLORARG1,	D3DTA_DIFFUSE);

  004ac	8b 0d 00 00 00
	00		 mov	 ecx, DWORD PTR ?ms_singleton@?$CSingleton@VCStateManager@@@@0PAVCStateManager@@A ; CSingleton<CStateManager>::ms_singleton
  004b2	6a 00		 push	 0
  004b4	6a 02		 push	 2
  004b6	6a 00		 push	 0
  004b8	e8 00 00 00 00	 call	 ?SaveTextureStageState@CStateManager@@QAEXKW4_D3DTEXTURESTAGESTATETYPE@@K@Z ; CStateManager::SaveTextureStageState

; 561  : 		STATEMANAGER.SaveTextureStageState(0, D3DTSS_COLOROP,	D3DTOP_SELECTARG1);

  004bd	8b 0d 00 00 00
	00		 mov	 ecx, DWORD PTR ?ms_singleton@?$CSingleton@VCStateManager@@@@0PAVCStateManager@@A ; CSingleton<CStateManager>::ms_singleton
  004c3	6a 02		 push	 2
  004c5	6a 01		 push	 1
  004c7	6a 00		 push	 0
  004c9	e8 00 00 00 00	 call	 ?SaveTextureStageState@CStateManager@@QAEXKW4_D3DTEXTURESTAGESTATETYPE@@K@Z ; CStateManager::SaveTextureStageState

; 562  : 		STATEMANAGER.SaveTextureStageState(0, D3DTSS_ALPHAARG1,	D3DTA_DIFFUSE);

  004ce	8b 0d 00 00 00
	00		 mov	 ecx, DWORD PTR ?ms_singleton@?$CSingleton@VCStateManager@@@@0PAVCStateManager@@A ; CSingleton<CStateManager>::ms_singleton
  004d4	6a 00		 push	 0
  004d6	6a 05		 push	 5
  004d8	6a 00		 push	 0
  004da	e8 00 00 00 00	 call	 ?SaveTextureStageState@CStateManager@@QAEXKW4_D3DTEXTURESTAGESTATETYPE@@K@Z ; CStateManager::SaveTextureStageState

; 563  : 		STATEMANAGER.SaveTextureStageState(0, D3DTSS_ALPHAOP,	D3DTOP_SELECTARG1);

  004df	8b 0d 00 00 00
	00		 mov	 ecx, DWORD PTR ?ms_singleton@?$CSingleton@VCStateManager@@@@0PAVCStateManager@@A ; CSingleton<CStateManager>::ms_singleton
  004e5	6a 02		 push	 2
  004e7	6a 04		 push	 4
  004e9	6a 00		 push	 0
  004eb	e8 00 00 00 00	 call	 ?SaveTextureStageState@CStateManager@@QAEXKW4_D3DTEXTURESTAGESTATETYPE@@K@Z ; CStateManager::SaveTextureStageState

; 564  : 		STATEMANAGER.SetTexture(0, NULL);

  004f0	8b 0d 00 00 00
	00		 mov	 ecx, DWORD PTR ?ms_singleton@?$CSingleton@VCStateManager@@@@0PAVCStateManager@@A ; CSingleton<CStateManager>::ms_singleton
  004f6	6a 00		 push	 0
  004f8	6a 00		 push	 0
  004fa	e8 00 00 00 00	 call	 ?SetTexture@CStateManager@@QAEXKPAUIDirect3DBaseTexture8@@@Z ; CStateManager::SetTexture

; 565  : 		STATEMANAGER.SetTexture(1, NULL);

  004ff	8b 0d 00 00 00
	00		 mov	 ecx, DWORD PTR ?ms_singleton@?$CSingleton@VCStateManager@@@@0PAVCStateManager@@A ; CSingleton<CStateManager>::ms_singleton
  00505	6a 00		 push	 0
  00507	6a 01		 push	 1
  00509	e8 00 00 00 00	 call	 ?SetTexture@CStateManager@@QAEXKPAUIDirect3DBaseTexture8@@@Z ; CStateManager::SetTexture

; 566  : 		STATEMANAGER.SetVertexShader(D3DFVF_XYZ|D3DFVF_DIFFUSE|D3DFVF_TEX1);

  0050e	8b 0d 00 00 00
	00		 mov	 ecx, DWORD PTR ?ms_singleton@?$CSingleton@VCStateManager@@@@0PAVCStateManager@@A ; CSingleton<CStateManager>::ms_singleton
  00514	68 42 01 00 00	 push	 322			; 00000142H
  00519	e8 00 00 00 00	 call	 ?SetVertexShader@CStateManager@@QAEXK@Z ; CStateManager::SetVertexShader

; 567  : 		STATEMANAGER.DrawPrimitive(D3DPT_TRIANGLEFAN, 0, iTriCount);

  0051e	ff 75 14	 push	 DWORD PTR _iTriCount$1$[ebp]
  00521	8b 0d 00 00 00
	00		 mov	 ecx, DWORD PTR ?ms_singleton@?$CSingleton@VCStateManager@@@@0PAVCStateManager@@A ; CSingleton<CStateManager>::ms_singleton
  00527	6a 00		 push	 0
  00529	6a 06		 push	 6
  0052b	e8 00 00 00 00	 call	 ?DrawPrimitive@CStateManager@@QAEJW4_D3DPRIMITIVETYPE@@II@Z ; CStateManager::DrawPrimitive

; 568  : 		STATEMANAGER.RestoreTextureStageState(0, D3DTSS_COLORARG1);

  00530	8b 0d 00 00 00
	00		 mov	 ecx, DWORD PTR ?ms_singleton@?$CSingleton@VCStateManager@@@@0PAVCStateManager@@A ; CSingleton<CStateManager>::ms_singleton
  00536	6a 02		 push	 2
  00538	6a 00		 push	 0
  0053a	e8 00 00 00 00	 call	 ?RestoreTextureStageState@CStateManager@@QAEXKW4_D3DTEXTURESTAGESTATETYPE@@@Z ; CStateManager::RestoreTextureStageState

; 569  : 		STATEMANAGER.RestoreTextureStageState(0, D3DTSS_COLOROP);

  0053f	8b 0d 00 00 00
	00		 mov	 ecx, DWORD PTR ?ms_singleton@?$CSingleton@VCStateManager@@@@0PAVCStateManager@@A ; CSingleton<CStateManager>::ms_singleton
  00545	6a 01		 push	 1
  00547	6a 00		 push	 0
  00549	e8 00 00 00 00	 call	 ?RestoreTextureStageState@CStateManager@@QAEXKW4_D3DTEXTURESTAGESTATETYPE@@@Z ; CStateManager::RestoreTextureStageState

; 570  : 		STATEMANAGER.RestoreTextureStageState(0, D3DTSS_ALPHAARG1);

  0054e	8b 0d 00 00 00
	00		 mov	 ecx, DWORD PTR ?ms_singleton@?$CSingleton@VCStateManager@@@@0PAVCStateManager@@A ; CSingleton<CStateManager>::ms_singleton
  00554	6a 05		 push	 5
  00556	6a 00		 push	 0
  00558	e8 00 00 00 00	 call	 ?RestoreTextureStageState@CStateManager@@QAEXKW4_D3DTEXTURESTAGESTATETYPE@@@Z ; CStateManager::RestoreTextureStageState

; 571  : 		STATEMANAGER.RestoreTextureStageState(0, D3DTSS_ALPHAOP);

  0055d	8b 0d 00 00 00
	00		 mov	 ecx, DWORD PTR ?ms_singleton@?$CSingleton@VCStateManager@@@@0PAVCStateManager@@A ; CSingleton<CStateManager>::ms_singleton
  00563	6a 04		 push	 4
  00565	6a 00		 push	 0
  00567	e8 00 00 00 00	 call	 ?RestoreTextureStageState@CStateManager@@QAEXKW4_D3DTEXTURESTAGESTATETYPE@@@Z ; CStateManager::RestoreTextureStageState
$LN10@RenderCool:
; File C:\Program Files (x86)\Microsoft Visual Studio\2019\Community\VC\Tools\MSVC\14.27.29110\include\vector

; 1693 :         if (_Myfirst) { // destroy and deallocate old array

  0056c	85 f6		 test	 esi, esi
  0056e	74 23		 je	 SHORT $LN130@RenderCool

; 1694 :             _Destroy(_Myfirst, _Mylast);
; 1695 :             _Getal().deallocate(_Myfirst, static_cast<size_type>(_Myend - _Myfirst));

  00570	2b fe		 sub	 edi, esi
  00572	b8 ab aa aa 2a	 mov	 eax, 715827883		; 2aaaaaabH
  00577	f7 ef		 imul	 edi
  00579	c1 fa 02	 sar	 edx, 2
  0057c	8b c2		 mov	 eax, edx
  0057e	c1 e8 1f	 shr	 eax, 31			; 0000001fH
  00581	03 c2		 add	 eax, edx
; File C:\Program Files (x86)\Microsoft Visual Studio\2019\Community\VC\Tools\MSVC\14.27.29110\include\xmemory

; 803  :         _Deallocate<_New_alignof<_Ty>>(_Ptr, sizeof(_Ty) * _Count);

  00583	8d 04 40	 lea	 eax, DWORD PTR [eax+eax*2]
  00586	c1 e0 03	 shl	 eax, 3
  00589	50		 push	 eax
  0058a	56		 push	 esi
  0058b	e8 00 00 00 00	 call	 ??$_Deallocate@$07$0A@@std@@YAXPAXI@Z ; std::_Deallocate<8,0>
  00590	83 c4 08	 add	 esp, 8
$LN130@RenderCool:
; File C:\DS Project\DS Files\Source\ClientSource\Client\eterPythonLib\PythonGraphic.cpp

; 573  : }

  00593	8b 4d f4	 mov	 ecx, DWORD PTR __$EHRec$[ebp]
  00596	64 89 0d 00 00
	00 00		 mov	 DWORD PTR fs:0, ecx
  0059d	59		 pop	 ecx
  0059e	5f		 pop	 edi
  0059f	5e		 pop	 esi
  005a0	8b e5		 mov	 esp, ebp
  005a2	5d		 pop	 ebp
  005a3	c2 10 00	 ret	 16			; 00000010H
_TEXT	ENDS
;	COMDAT text$x
text$x	SEGMENT
__unwindfunclet$?RenderCoolTimeBox@CPythonGraphic@@QAEXMMMM@Z$2:
  00000	8d 4d e0	 lea	 ecx, DWORD PTR _vertices$[ebp]
  00003	e9 00 00 00 00	 jmp	 ??1?$vector@USPDTVertex@@V?$allocator@USPDTVertex@@@std@@@std@@QAE@XZ ; std::vector<SPDTVertex,std::allocator<SPDTVertex> >::~vector<SPDTVertex,std::allocator<SPDTVertex> >
  00008	cc		 int	 3
  00009	cc		 int	 3
  0000a	cc		 int	 3
  0000b	cc		 int	 3
  0000c	cc		 int	 3
__ehhandler$?RenderCoolTimeBox@CPythonGraphic@@QAEXMMMM@Z:
  0000d	90		 npad	 1
  0000e	90		 npad	 1
  0000f	8b 54 24 08	 mov	 edx, DWORD PTR [esp+8]
  00013	8d 42 0c	 lea	 eax, DWORD PTR [edx+12]
  00016	8b 4a c8	 mov	 ecx, DWORD PTR [edx-56]
  00019	33 c8		 xor	 ecx, eax
  0001b	e8 00 00 00 00	 call	 @__security_check_cookie@4
  00020	b8 00 00 00 00	 mov	 eax, OFFSET __ehfuncinfo$?RenderCoolTimeBox@CPythonGraphic@@QAEXMMMM@Z
  00025	e9 00 00 00 00	 jmp	 ___CxxFrameHandler3
text$x	ENDS
?RenderCoolTimeBox@CPythonGraphic@@QAEXMMMM@Z ENDP	; CPythonGraphic::RenderCoolTimeBox
; Function compile flags: /Ogtp
; File C:\DS Project\DS Files\Source\ClientSource\Client\eterPythonLib\PythonGraphic.cpp
; File C:\DS Project\DS Files\Source\ClientSource\extern\include\d3dx8math.inl
; File C:\DS Project\DS Files\Source\ClientSource\Client\eterPythonLib\PythonGraphic.cpp
; File C:\DS Project\DS Files\Source\ClientSource\extern\include\d3dx8math.inl
; File C:\DS Project\DS Files\Source\ClientSource\Client\eterPythonLib\PythonGraphic.cpp
; File C:\DS Project\DS Files\Source\ClientSource\extern\include\d3dx8math.inl
; File C:\DS Project\DS Files\Source\ClientSource\Client\eterPythonLib\PythonGraphic.cpp
; File C:\DS Project\DS Files\Source\ClientSource\extern\include\d3dx8math.inl
; File C:\DS Project\DS Files\Source\ClientSource\Client\eterPythonLib\PythonGraphic.cpp
; File C:\DS Project\DS Files\Source\ClientSource\extern\include\d3dx8math.inl
; File C:\DS Project\DS Files\Source\ClientSource\Client\eterPythonLib\PythonGraphic.cpp
; File C:\DS Project\DS Files\Source\ClientSource\extern\include\d3dx8math.inl
; File C:\DS Project\DS Files\Source\ClientSource\Client\eterPythonLib\PythonGraphic.cpp
; File C:\DS Project\DS Files\Source\ClientSource\extern\include\d3dx8math.inl
; File C:\DS Project\DS Files\Source\ClientSource\Client\eterPythonLib\PythonGraphic.cpp
; File C:\DS Project\DS Files\Source\ClientSource\extern\include\d3dx8math.inl
; File C:\DS Project\DS Files\Source\ClientSource\Client\eterPythonLib\PythonGraphic.cpp
; File C:\DS Project\DS Files\Source\ClientSource\extern\include\d3dx8math.inl
; File C:\DS Project\DS Files\Source\ClientSource\Client\eterPythonLib\PythonGraphic.cpp
; File C:\DS Project\DS Files\Source\ClientSource\extern\include\d3dx8math.inl
; File C:\DS Project\DS Files\Source\ClientSource\Client\eterPythonLib\PythonGraphic.cpp
; File C:\DS Project\DS Files\Source\ClientSource\extern\include\d3dx8math.inl
; File C:\DS Project\DS Files\Source\ClientSource\Client\eterPythonLib\PythonGraphic.cpp
; File C:\DS Project\DS Files\Source\ClientSource\extern\include\d3dx8math.inl
; File C:\DS Project\DS Files\Source\ClientSource\Client\eterPythonLib\PythonGraphic.cpp
; File C:\DS Project\DS Files\Source\ClientSource\extern\include\d3dx8math.inl
; File C:\DS Project\DS Files\Source\ClientSource\Client\eterPythonLib\PythonGraphic.cpp
; File C:\DS Project\DS Files\Source\ClientSource\extern\include\d3dx8math.inl
; File C:\DS Project\DS Files\Source\ClientSource\Client\eterPythonLib\PythonGraphic.cpp
; File C:\DS Project\DS Files\Source\ClientSource\extern\include\d3dx8math.inl
; File C:\DS Project\DS Files\Source\ClientSource\Client\eterPythonLib\PythonGraphic.cpp
; File C:\DS Project\DS Files\Source\ClientSource\extern\include\d3dx8math.inl
; File C:\DS Project\DS Files\Source\ClientSource\Client\eterPythonLib\PythonGraphic.cpp
; File C:\DS Project\DS Files\Source\ClientSource\extern\include\d3dx8math.inl
; File C:\DS Project\DS Files\Source\ClientSource\Client\eterPythonLib\PythonGraphic.cpp
; File C:\DS Project\DS Files\Source\ClientSource\extern\include\d3dx8math.inl
; File C:\DS Project\DS Files\Source\ClientSource\Client\eterPythonLib\PythonGraphic.cpp
; File C:\DS Project\DS Files\Source\ClientSource\extern\include\d3dx8math.inl
; File C:\DS Project\DS Files\Source\ClientSource\Client\eterPythonLib\PythonGraphic.cpp
; File C:\DS Project\DS Files\Source\ClientSource\extern\include\d3dx8math.inl
; File C:\DS Project\DS Files\Source\ClientSource\Client\eterPythonLib\PythonGraphic.cpp
;	COMDAT ?RenderAlphaImage@CPythonGraphic@@QAEXPAVCGraphicImageInstance@@MMMM@Z
_TEXT	SEGMENT
tv910 = -160						; size = 16
tv909 = -144						; size = 16
$T5 = -120						; size = 12
$T6 = -120						; size = 12
$T7 = -120						; size = 12
$T8 = -120						; size = 12
$T9 = -108						; size = 4
_vertices$ = -104					; size = 96
__$ArrayPad$ = -4					; size = 4
_pImageInstance$ = 8					; size = 4
_x$ = 12						; size = 4
_y$ = 16						; size = 4
_aLeft$ = 20						; size = 4
_aRight$ = 24						; size = 4
?RenderAlphaImage@CPythonGraphic@@QAEXPAVCGraphicImageInstance@@MMMM@Z PROC ; CPythonGraphic::RenderAlphaImage, COMDAT
; _this$ = ecx

; 443  : {

  00000	53		 push	 ebx
  00001	8b dc		 mov	 ebx, esp
  00003	83 ec 08	 sub	 esp, 8
  00006	83 e4 f0	 and	 esp, -16		; fffffff0H
  00009	83 c4 04	 add	 esp, 4
  0000c	55		 push	 ebp
  0000d	8b 6b 04	 mov	 ebp, DWORD PTR [ebx+4]
  00010	89 6c 24 04	 mov	 DWORD PTR [esp+4], ebp
  00014	8b ec		 mov	 ebp, esp
  00016	81 ec a8 00 00
	00		 sub	 esp, 168		; 000000a8H
  0001c	a1 00 00 00 00	 mov	 eax, DWORD PTR ___security_cookie
  00021	33 c5		 xor	 eax, ebp
  00023	89 45 fc	 mov	 DWORD PTR __$ArrayPad$[ebp], eax
  00026	56		 push	 esi
  00027	8b 73 08	 mov	 esi, DWORD PTR _pImageInstance$[ebx]

; 444  : 	assert(pImageInstance != NULL);
; 445  : 
; 446  : 	D3DXCOLOR DiffuseColor1 = D3DXCOLOR(1.0f, 1.0f, 1.0f, aLeft);
; 447  : 	D3DXCOLOR DiffuseColor2 = D3DXCOLOR(1.0f, 1.0f, 1.0f, aRight);
; 448  : 
; 449  : 	const CGraphicTexture * c_pTexture = pImageInstance->GetTexturePointer();

  0002a	8b ce		 mov	 ecx, esi
  0002c	57		 push	 edi
  0002d	e8 00 00 00 00	 call	 ?GetTexturePointer@CGraphicImageInstance@@QAEPAVCGraphicTexture@@XZ ; CGraphicImageInstance::GetTexturePointer

; 450  : 
; 451  : 	float width = (float) pImageInstance->GetWidth();

  00032	8b ce		 mov	 ecx, esi
  00034	8b f8		 mov	 edi, eax
  00036	e8 00 00 00 00	 call	 ?GetWidth@CGraphicImageInstance@@QAEHXZ ; CGraphicImageInstance::GetWidth

; 452  : 	float height = (float) pImageInstance->GetHeight();

  0003b	8b ce		 mov	 ecx, esi
  0003d	66 0f 6e c0	 movd	 xmm0, eax
  00041	0f 5b c0	 cvtdq2ps xmm0, xmm0
  00044	0f 29 85 70 ff
	ff ff		 movaps	 XMMWORD PTR tv909[ebp], xmm0
  0004b	e8 00 00 00 00	 call	 ?GetHeight@CGraphicImageInstance@@QAEHXZ ; CGraphicImageInstance::GetHeight

; 453  : 
; 454  : 	c_pTexture->SetTextureStage(0);

  00050	6a 00		 push	 0
  00052	8b cf		 mov	 ecx, edi
  00054	66 0f 6e c0	 movd	 xmm0, eax
  00058	0f 5b c0	 cvtdq2ps xmm0, xmm0
  0005b	f3 0f 11 45 94	 movss	 DWORD PTR $T9[ebp], xmm0
  00060	e8 00 00 00 00	 call	 ?SetTextureStage@CGraphicTexture@@QBEXH@Z ; CGraphicTexture::SetTextureStage

; 455  : 
; 456  : 	float sx = x;
; 457  : 	float sy = y;
; 458  : 	float ex = x + width;

  00065	f3 0f 10 4b 0c	 movss	 xmm1, DWORD PTR _x$[ebx]
  0006a	0f 28 85 70 ff
	ff ff		 movaps	 xmm0, XMMWORD PTR tv909[ebp]

; 459  : 	float ey = y + height;

  00071	f3 0f 10 53 10	 movss	 xmm2, DWORD PTR _y$[ebx]
  00076	f3 0f 58 c1	 addss	 xmm0, xmm1
; File C:\DS Project\DS Files\Source\ClientSource\extern\include\d3dx8math.inl

; 934  :     DWORD dwA = a >= 1.0f ? 0xff : a <= 0.0f ? 0x00 : (DWORD) (a * 255.0f + 0.5f);

  0007a	f3 0f 10 1d 00
	00 00 00	 movss	 xmm3, DWORD PTR __real@3f000000

; 182  :     z = fz;

  00082	c7 45 90 00 00
	00 00		 mov	 DWORD PTR $T8[ebp+8], 0
; File C:\DS Project\DS Files\Source\ClientSource\Client\eterPythonLib\PythonGraphic.cpp

; 468  : 	vertices[0].position = TPosition(sx, sy, z);

  00089	8b 45 90	 mov	 eax, DWORD PTR $T8[ebp+8]
  0008c	0f 11 8d 60 ff
	ff ff		 movups	 XMMWORD PTR tv910[ebp], xmm1
  00093	89 45 a0	 mov	 DWORD PTR _vertices$[ebp+8], eax
  00096	0f 29 85 70 ff
	ff ff		 movaps	 XMMWORD PTR tv909[ebp], xmm0
  0009d	f3 0f 10 45 94	 movss	 xmm0, DWORD PTR $T9[ebp]
  000a2	f3 0f 58 c2	 addss	 xmm0, xmm2
  000a6	f3 0f 11 45 94	 movss	 DWORD PTR $T9[ebp], xmm0
  000ab	0f 28 c1	 movaps	 xmm0, xmm1
  000ae	0f 14 c2	 unpcklps xmm0, xmm2
; File C:\DS Project\DS Files\Source\ClientSource\extern\include\d3dx8math.inl

; 934  :     DWORD dwA = a >= 1.0f ? 0xff : a <= 0.0f ? 0x00 : (DWORD) (a * 255.0f + 0.5f);

  000b1	0f 57 c9	 xorps	 xmm1, xmm1
  000b4	f3 0f 10 15 00
	00 00 00	 movss	 xmm2, DWORD PTR __real@437f0000
; File C:\DS Project\DS Files\Source\ClientSource\Client\eterPythonLib\PythonGraphic.cpp

; 468  : 	vertices[0].position = TPosition(sx, sy, z);

  000bc	66 0f d6 45 98	 movq	 QWORD PTR _vertices$[ebp], xmm0
; File C:\DS Project\DS Files\Source\ClientSource\extern\include\d3dx8math.inl

; 934  :     DWORD dwA = a >= 1.0f ? 0xff : a <= 0.0f ? 0x00 : (DWORD) (a * 255.0f + 0.5f);

  000c1	f3 0f 10 43 14	 movss	 xmm0, DWORD PTR _aLeft$[ebx]
  000c6	0f 2f 05 00 00
	00 00		 comiss	 xmm0, DWORD PTR __real@3f800000
  000cd	72 07		 jb	 SHORT $LN30@RenderAlph
  000cf	b8 ff 00 00 00	 mov	 eax, 255		; 000000ffH
  000d4	eb 29		 jmp	 SHORT $LN29@RenderAlph
$LN30@RenderAlph:
  000d6	0f 2f c8	 comiss	 xmm1, xmm0
  000d9	72 04		 jb	 SHORT $LN28@RenderAlph
  000db	33 c0		 xor	 eax, eax
  000dd	eb 20		 jmp	 SHORT $LN29@RenderAlph
$LN28@RenderAlph:
  000df	f3 0f 59 c2	 mulss	 xmm0, xmm2
  000e3	f3 0f 58 c3	 addss	 xmm0, xmm3
  000e7	e8 00 00 00 00	 call	 __ftoui3
  000ec	f3 0f 10 15 00
	00 00 00	 movss	 xmm2, DWORD PTR __real@437f0000
  000f4	0f 57 c9	 xorps	 xmm1, xmm1
  000f7	f3 0f 10 1d 00
	00 00 00	 movss	 xmm3, DWORD PTR __real@3f000000
$LN29@RenderAlph:
; File C:\DS Project\DS Files\Source\ClientSource\Client\eterPythonLib\PythonGraphic.cpp

; 472  : 	vertices[1].position = TPosition(ex, sy, z);

  000ff	0f 28 85 70 ff
	ff ff		 movaps	 xmm0, XMMWORD PTR tv909[ebp]
  00106	f3 0f 10 63 10	 movss	 xmm4, DWORD PTR _y$[ebx]
; File C:\DS Project\DS Files\Source\ClientSource\extern\include\d3dx8math.inl

; 936  :     return (dwA << 24) | (dwR << 16) | (dwG << 8) | dwB;

  0010b	c1 e0 18	 shl	 eax, 24			; 00000018H
; File C:\DS Project\DS Files\Source\ClientSource\Client\eterPythonLib\PythonGraphic.cpp

; 472  : 	vertices[1].position = TPosition(ex, sy, z);

  0010e	0f 14 c4	 unpcklps xmm0, xmm4
; File C:\DS Project\DS Files\Source\ClientSource\extern\include\d3dx8math.inl

; 936  :     return (dwA << 24) | (dwR << 16) | (dwG << 8) | dwB;

  00111	0d ff ff ff 00	 or	 eax, 16777215		; 00ffffffH
; File C:\DS Project\DS Files\Source\ClientSource\Client\eterPythonLib\PythonGraphic.cpp

; 472  : 	vertices[1].position = TPosition(ex, sy, z);

  00116	66 0f d6 45 b0	 movq	 QWORD PTR _vertices$[ebp+24], xmm0
; File C:\DS Project\DS Files\Source\ClientSource\extern\include\d3dx8math.inl

; 934  :     DWORD dwA = a >= 1.0f ? 0xff : a <= 0.0f ? 0x00 : (DWORD) (a * 255.0f + 0.5f);

  0011b	f3 0f 10 43 18	 movss	 xmm0, DWORD PTR _aRight$[ebx]
  00120	0f 2f 05 00 00
	00 00		 comiss	 xmm0, DWORD PTR __real@3f800000
; File C:\DS Project\DS Files\Source\ClientSource\Client\eterPythonLib\PythonGraphic.cpp

; 469  : 	vertices[0].diffuse = DiffuseColor1;

  00127	89 45 a4	 mov	 DWORD PTR _vertices$[ebp+12], eax
; File C:\DS Project\DS Files\Source\ClientSource\extern\include\d3dx8math.inl

; 182  :     z = fz;

  0012a	c7 45 90 00 00
	00 00		 mov	 DWORD PTR $T7[ebp+8], 0
; File C:\DS Project\DS Files\Source\ClientSource\Client\eterPythonLib\PythonGraphic.cpp

; 472  : 	vertices[1].position = TPosition(ex, sy, z);

  00131	8b 45 90	 mov	 eax, DWORD PTR $T7[ebp+8]
  00134	c7 45 a8 00 00
	00 00		 mov	 DWORD PTR _vertices$[ebp+16], 0
  0013b	c7 45 ac 00 00
	00 00		 mov	 DWORD PTR _vertices$[ebp+20], 0
  00142	89 45 b8	 mov	 DWORD PTR _vertices$[ebp+32], eax
; File C:\DS Project\DS Files\Source\ClientSource\extern\include\d3dx8math.inl

; 934  :     DWORD dwA = a >= 1.0f ? 0xff : a <= 0.0f ? 0x00 : (DWORD) (a * 255.0f + 0.5f);

  00145	72 07		 jb	 SHORT $LN52@RenderAlph
  00147	b8 ff 00 00 00	 mov	 eax, 255		; 000000ffH
  0014c	eb 16		 jmp	 SHORT $LN51@RenderAlph
$LN52@RenderAlph:
  0014e	0f 2f c8	 comiss	 xmm1, xmm0
  00151	72 04		 jb	 SHORT $LN50@RenderAlph
  00153	33 c0		 xor	 eax, eax
  00155	eb 0d		 jmp	 SHORT $LN51@RenderAlph
$LN50@RenderAlph:
  00157	f3 0f 59 c2	 mulss	 xmm0, xmm2
  0015b	f3 0f 58 c3	 addss	 xmm0, xmm3
  0015f	e8 00 00 00 00	 call	 __ftoui3
$LN51@RenderAlph:
; File C:\DS Project\DS Files\Source\ClientSource\Client\eterPythonLib\PythonGraphic.cpp

; 476  : 	vertices[2].position = TPosition(sx, ey, z);

  00164	0f 10 85 60 ff
	ff ff		 movups	 xmm0, XMMWORD PTR tv910[ebp]
; File C:\DS Project\DS Files\Source\ClientSource\extern\include\d3dx8math.inl

; 936  :     return (dwA << 24) | (dwR << 16) | (dwG << 8) | dwB;

  0016b	c1 e0 18	 shl	 eax, 24			; 00000018H
; File C:\DS Project\DS Files\Source\ClientSource\Client\eterPythonLib\PythonGraphic.cpp

; 476  : 	vertices[2].position = TPosition(sx, ey, z);

  0016e	f3 0f 10 4d 94	 movss	 xmm1, DWORD PTR $T9[ebp]
; File C:\DS Project\DS Files\Source\ClientSource\extern\include\d3dx8math.inl

; 936  :     return (dwA << 24) | (dwR << 16) | (dwG << 8) | dwB;

  00173	0d ff ff ff 00	 or	 eax, 16777215		; 00ffffffH
; File C:\DS Project\DS Files\Source\ClientSource\Client\eterPythonLib\PythonGraphic.cpp

; 476  : 	vertices[2].position = TPosition(sx, ey, z);

  00178	0f 14 c1	 unpcklps xmm0, xmm1
; File C:\DS Project\DS Files\Source\ClientSource\extern\include\d3dx8math.inl

; 934  :     DWORD dwA = a >= 1.0f ? 0xff : a <= 0.0f ? 0x00 : (DWORD) (a * 255.0f + 0.5f);

  0017b	0f 57 c9	 xorps	 xmm1, xmm1
; File C:\DS Project\DS Files\Source\ClientSource\Client\eterPythonLib\PythonGraphic.cpp

; 476  : 	vertices[2].position = TPosition(sx, ey, z);

  0017e	66 0f d6 45 c8	 movq	 QWORD PTR _vertices$[ebp+48], xmm0
; File C:\DS Project\DS Files\Source\ClientSource\extern\include\d3dx8math.inl

; 934  :     DWORD dwA = a >= 1.0f ? 0xff : a <= 0.0f ? 0x00 : (DWORD) (a * 255.0f + 0.5f);

  00183	f3 0f 10 43 14	 movss	 xmm0, DWORD PTR _aLeft$[ebx]
  00188	0f 2f 05 00 00
	00 00		 comiss	 xmm0, DWORD PTR __real@3f800000
; File C:\DS Project\DS Files\Source\ClientSource\Client\eterPythonLib\PythonGraphic.cpp

; 473  : 	vertices[1].diffuse = DiffuseColor2;

  0018f	89 45 bc	 mov	 DWORD PTR _vertices$[ebp+36], eax
; File C:\DS Project\DS Files\Source\ClientSource\extern\include\d3dx8math.inl

; 182  :     z = fz;

  00192	c7 45 90 00 00
	00 00		 mov	 DWORD PTR $T6[ebp+8], 0
; File C:\DS Project\DS Files\Source\ClientSource\Client\eterPythonLib\PythonGraphic.cpp

; 476  : 	vertices[2].position = TPosition(sx, ey, z);

  00199	8b 45 90	 mov	 eax, DWORD PTR $T6[ebp+8]
  0019c	c7 45 c0 00 00
	80 3f		 mov	 DWORD PTR _vertices$[ebp+40], 1065353216 ; 3f800000H
  001a3	c7 45 c4 00 00
	00 00		 mov	 DWORD PTR _vertices$[ebp+44], 0
  001aa	89 45 d0	 mov	 DWORD PTR _vertices$[ebp+56], eax
; File C:\DS Project\DS Files\Source\ClientSource\extern\include\d3dx8math.inl

; 934  :     DWORD dwA = a >= 1.0f ? 0xff : a <= 0.0f ? 0x00 : (DWORD) (a * 255.0f + 0.5f);

  001ad	72 07		 jb	 SHORT $LN74@RenderAlph
  001af	b8 ff 00 00 00	 mov	 eax, 255		; 000000ffH
  001b4	eb 21		 jmp	 SHORT $LN73@RenderAlph
$LN74@RenderAlph:
  001b6	0f 2f c8	 comiss	 xmm1, xmm0
  001b9	72 04		 jb	 SHORT $LN72@RenderAlph
  001bb	33 c0		 xor	 eax, eax
  001bd	eb 18		 jmp	 SHORT $LN73@RenderAlph
$LN72@RenderAlph:
  001bf	f3 0f 59 05 00
	00 00 00	 mulss	 xmm0, DWORD PTR __real@437f0000
  001c7	f3 0f 58 05 00
	00 00 00	 addss	 xmm0, DWORD PTR __real@3f000000
  001cf	e8 00 00 00 00	 call	 __ftoui3
  001d4	0f 57 c9	 xorps	 xmm1, xmm1
$LN73@RenderAlph:
; File C:\DS Project\DS Files\Source\ClientSource\Client\eterPythonLib\PythonGraphic.cpp

; 480  : 	vertices[3].position = TPosition(ex, ey, z);

  001d7	0f 28 85 70 ff
	ff ff		 movaps	 xmm0, XMMWORD PTR tv909[ebp]
  001de	f3 0f 10 55 94	 movss	 xmm2, DWORD PTR $T9[ebp]
; File C:\DS Project\DS Files\Source\ClientSource\extern\include\d3dx8math.inl

; 936  :     return (dwA << 24) | (dwR << 16) | (dwG << 8) | dwB;

  001e3	c1 e0 18	 shl	 eax, 24			; 00000018H
; File C:\DS Project\DS Files\Source\ClientSource\Client\eterPythonLib\PythonGraphic.cpp

; 480  : 	vertices[3].position = TPosition(ex, ey, z);

  001e6	0f 14 c2	 unpcklps xmm0, xmm2
; File C:\DS Project\DS Files\Source\ClientSource\extern\include\d3dx8math.inl

; 936  :     return (dwA << 24) | (dwR << 16) | (dwG << 8) | dwB;

  001e9	0d ff ff ff 00	 or	 eax, 16777215		; 00ffffffH
; File C:\DS Project\DS Files\Source\ClientSource\Client\eterPythonLib\PythonGraphic.cpp

; 480  : 	vertices[3].position = TPosition(ex, ey, z);

  001ee	66 0f d6 45 e0	 movq	 QWORD PTR _vertices$[ebp+72], xmm0
; File C:\DS Project\DS Files\Source\ClientSource\extern\include\d3dx8math.inl

; 934  :     DWORD dwA = a >= 1.0f ? 0xff : a <= 0.0f ? 0x00 : (DWORD) (a * 255.0f + 0.5f);

  001f3	f3 0f 10 43 18	 movss	 xmm0, DWORD PTR _aRight$[ebx]
  001f8	0f 2f 05 00 00
	00 00		 comiss	 xmm0, DWORD PTR __real@3f800000
; File C:\DS Project\DS Files\Source\ClientSource\Client\eterPythonLib\PythonGraphic.cpp

; 477  : 	vertices[2].diffuse = DiffuseColor1;

  001ff	89 45 d4	 mov	 DWORD PTR _vertices$[ebp+60], eax
; File C:\DS Project\DS Files\Source\ClientSource\extern\include\d3dx8math.inl

; 182  :     z = fz;

  00202	c7 45 90 00 00
	00 00		 mov	 DWORD PTR $T5[ebp+8], 0
; File C:\DS Project\DS Files\Source\ClientSource\Client\eterPythonLib\PythonGraphic.cpp

; 480  : 	vertices[3].position = TPosition(ex, ey, z);

  00209	8b 45 90	 mov	 eax, DWORD PTR $T5[ebp+8]
  0020c	c7 45 d8 00 00
	00 00		 mov	 DWORD PTR _vertices$[ebp+64], 0
  00213	c7 45 dc 00 00
	80 3f		 mov	 DWORD PTR _vertices$[ebp+68], 1065353216 ; 3f800000H
  0021a	89 45 e8	 mov	 DWORD PTR _vertices$[ebp+80], eax
; File C:\DS Project\DS Files\Source\ClientSource\extern\include\d3dx8math.inl

; 934  :     DWORD dwA = a >= 1.0f ? 0xff : a <= 0.0f ? 0x00 : (DWORD) (a * 255.0f + 0.5f);

  0021d	72 07		 jb	 SHORT $LN96@RenderAlph
  0021f	b8 ff 00 00 00	 mov	 eax, 255		; 000000ffH
  00224	eb 1e		 jmp	 SHORT $LN95@RenderAlph
$LN96@RenderAlph:
  00226	0f 2f c8	 comiss	 xmm1, xmm0
  00229	72 04		 jb	 SHORT $LN94@RenderAlph
  0022b	33 c0		 xor	 eax, eax
  0022d	eb 15		 jmp	 SHORT $LN95@RenderAlph
$LN94@RenderAlph:
  0022f	f3 0f 59 05 00
	00 00 00	 mulss	 xmm0, DWORD PTR __real@437f0000
  00237	f3 0f 58 05 00
	00 00 00	 addss	 xmm0, DWORD PTR __real@3f000000
  0023f	e8 00 00 00 00	 call	 __ftoui3
$LN95@RenderAlph:
; File C:\DS Project\DS Files\Source\ClientSource\Client\eterPythonLib\PythonGraphic.cpp

; 484  : 	STATEMANAGER.SetVertexShader(ms_pntVS);

  00244	ff 35 00 00 00
	00		 push	 DWORD PTR ?ms_pntVS@CGraphicBase@@1KA ; CGraphicBase::ms_pntVS
  0024a	8b 0d 00 00 00
	00		 mov	 ecx, DWORD PTR ?ms_singleton@?$CSingleton@VCStateManager@@@@0PAVCStateManager@@A ; CSingleton<CStateManager>::ms_singleton
; File C:\DS Project\DS Files\Source\ClientSource\extern\include\d3dx8math.inl

; 936  :     return (dwA << 24) | (dwR << 16) | (dwG << 8) | dwB;

  00250	c1 e0 18	 shl	 eax, 24			; 00000018H
  00253	0d ff ff ff 00	 or	 eax, 16777215		; 00ffffffH
; File C:\DS Project\DS Files\Source\ClientSource\Client\eterPythonLib\PythonGraphic.cpp

; 482  : 	vertices[3].texCoord = TTextureCoordinate(eu, ev);

  00258	c7 45 f0 00 00
	80 3f		 mov	 DWORD PTR _vertices$[ebp+88], 1065353216 ; 3f800000H
  0025f	89 45 ec	 mov	 DWORD PTR _vertices$[ebp+84], eax
  00262	c7 45 f4 00 00
	80 3f		 mov	 DWORD PTR _vertices$[ebp+92], 1065353216 ; 3f800000H

; 484  : 	STATEMANAGER.SetVertexShader(ms_pntVS);

  00269	e8 00 00 00 00	 call	 ?SetVertexShader@CStateManager@@QAEXK@Z ; CStateManager::SetVertexShader

; 485  : 	// 2004.11.18.myevan.DrawIndexPrimitiveUP -> DynamicVertexBuffer
; 486  : 	CGraphicBase::SetDefaultIndexBuffer(DEFAULT_IB_FILL_RECT);

  0026e	6a 05		 push	 5
  00270	e8 00 00 00 00	 call	 ?SetDefaultIndexBuffer@CGraphicBase@@SAXI@Z ; CGraphicBase::SetDefaultIndexBuffer

; 487  : 	if (CGraphicBase::SetPDTStream(vertices, 4))

  00275	8d 45 98	 lea	 eax, DWORD PTR _vertices$[ebp]
  00278	6a 04		 push	 4
  0027a	50		 push	 eax
  0027b	e8 00 00 00 00	 call	 ?SetPDTStream@CGraphicBase@@SA_NPAUSPDTVertex@@I@Z ; CGraphicBase::SetPDTStream
  00280	83 c4 0c	 add	 esp, 12			; 0000000cH
  00283	84 c0		 test	 al, al
  00285	74 15		 je	 SHORT $LN2@RenderAlph

; 488  : 		STATEMANAGER.DrawIndexedPrimitive(D3DPT_TRIANGLELIST, 0, 4, 0, 2);

  00287	8b 0d 00 00 00
	00		 mov	 ecx, DWORD PTR ?ms_singleton@?$CSingleton@VCStateManager@@@@0PAVCStateManager@@A ; CSingleton<CStateManager>::ms_singleton
  0028d	6a 02		 push	 2
  0028f	6a 00		 push	 0
  00291	6a 04		 push	 4
  00293	6a 00		 push	 0
  00295	6a 04		 push	 4
  00297	e8 00 00 00 00	 call	 ?DrawIndexedPrimitive@CStateManager@@QAEJW4_D3DPRIMITIVETYPE@@IIII@Z ; CStateManager::DrawIndexedPrimitive
$LN2@RenderAlph:

; 489  : }

  0029c	8b 4d fc	 mov	 ecx, DWORD PTR __$ArrayPad$[ebp]
  0029f	5f		 pop	 edi
  002a0	33 cd		 xor	 ecx, ebp
  002a2	5e		 pop	 esi
  002a3	e8 00 00 00 00	 call	 @__security_check_cookie@4
  002a8	8b e5		 mov	 esp, ebp
  002aa	5d		 pop	 ebp
  002ab	8b e3		 mov	 esp, ebx
  002ad	5b		 pop	 ebx
  002ae	c2 14 00	 ret	 20			; 00000014H
?RenderAlphaImage@CPythonGraphic@@QAEXPAVCGraphicImageInstance@@MMMM@Z ENDP ; CPythonGraphic::RenderAlphaImage
_TEXT	ENDS
; Function compile flags: /Ogtp
; File C:\DS Project\DS Files\Source\ClientSource\Client\eterPythonLib\PythonGraphic.cpp
;	COMDAT ?RenderImage@CPythonGraphic@@QAEXPAVCGraphicImageInstance@@MM@Z
_TEXT	SEGMENT
_width$1$ = -4						; size = 4
_height$1$ = 8						; size = 4
_pImageInstance$ = 8					; size = 4
_x$ = 12						; size = 4
_y$ = 16						; size = 4
?RenderImage@CPythonGraphic@@QAEXPAVCGraphicImageInstance@@MM@Z PROC ; CPythonGraphic::RenderImage, COMDAT
; _this$ = ecx

; 420  : {

  00000	55		 push	 ebp
  00001	8b ec		 mov	 ebp, esp
  00003	51		 push	 ecx
  00004	53		 push	 ebx
  00005	56		 push	 esi

; 421  : 	assert(pImageInstance != NULL);
; 422  : 
; 423  : 	//SetColorRenderState();
; 424  : 	const CGraphicTexture * c_pTexture = pImageInstance->GetTexturePointer();

  00006	8b 75 08	 mov	 esi, DWORD PTR _pImageInstance$[ebp]
  00009	8b d9		 mov	 ebx, ecx
  0000b	57		 push	 edi
  0000c	8b ce		 mov	 ecx, esi
  0000e	e8 00 00 00 00	 call	 ?GetTexturePointer@CGraphicImageInstance@@QAEPAVCGraphicTexture@@XZ ; CGraphicImageInstance::GetTexturePointer

; 425  : 
; 426  : 	float width = (float) pImageInstance->GetWidth();

  00013	8b ce		 mov	 ecx, esi
  00015	8b f8		 mov	 edi, eax
  00017	e8 00 00 00 00	 call	 ?GetWidth@CGraphicImageInstance@@QAEHXZ ; CGraphicImageInstance::GetWidth

; 427  : 	float height = (float) pImageInstance->GetHeight();

  0001c	8b ce		 mov	 ecx, esi
  0001e	66 0f 6e c0	 movd	 xmm0, eax
  00022	0f 5b c0	 cvtdq2ps xmm0, xmm0
  00025	f3 0f 11 45 fc	 movss	 DWORD PTR _width$1$[ebp], xmm0
  0002a	e8 00 00 00 00	 call	 ?GetHeight@CGraphicImageInstance@@QAEHXZ ; CGraphicImageInstance::GetHeight

; 428  : 
; 429  : 	c_pTexture->SetTextureStage(0);

  0002f	6a 00		 push	 0
  00031	8b cf		 mov	 ecx, edi
  00033	66 0f 6e c0	 movd	 xmm0, eax
  00037	0f 5b c0	 cvtdq2ps xmm0, xmm0
  0003a	f3 0f 11 45 08	 movss	 DWORD PTR _height$1$[ebp], xmm0
  0003f	e8 00 00 00 00	 call	 ?SetTextureStage@CGraphicTexture@@QBEXH@Z ; CGraphicTexture::SetTextureStage

; 430  : 
; 431  : 	RenderTextureBox(x,

  00044	f3 0f 10 55 08	 movss	 xmm2, DWORD PTR _height$1$[ebp]
  00049	83 ec 24	 sub	 esp, 36			; 00000024H
  0004c	f3 0f 10 0d 00
	00 00 00	 movss	 xmm1, DWORD PTR __real@3f000000
  00054	0f 28 c2	 movaps	 xmm0, xmm2
  00057	f3 0f 58 c1	 addss	 xmm0, xmm1
  0005b	f3 0f 10 5d fc	 movss	 xmm3, DWORD PTR _width$1$[ebp]
  00060	8b cb		 mov	 ecx, ebx
  00062	f3 0f 5e c2	 divss	 xmm0, xmm2
  00066	f3 0f 11 44 24
	20		 movss	 DWORD PTR [esp+32], xmm0
  0006c	0f 28 c3	 movaps	 xmm0, xmm3
  0006f	f3 0f 58 c1	 addss	 xmm0, xmm1
  00073	f3 0f 5e c3	 divss	 xmm0, xmm3
  00077	f3 0f 11 44 24
	1c		 movss	 DWORD PTR [esp+28], xmm0
  0007d	0f 28 c1	 movaps	 xmm0, xmm1
  00080	f3 0f 5e c2	 divss	 xmm0, xmm2
  00084	f3 0f 5e cb	 divss	 xmm1, xmm3
  00088	f3 0f 11 44 24
	18		 movss	 DWORD PTR [esp+24], xmm0
  0008e	f3 0f 10 45 0c	 movss	 xmm0, DWORD PTR _x$[ebp]
  00093	f3 0f 11 4c 24
	14		 movss	 DWORD PTR [esp+20], xmm1
  00099	f3 0f 58 d8	 addss	 xmm3, xmm0
  0009d	f3 0f 10 4d 10	 movss	 xmm1, DWORD PTR _y$[ebp]
  000a2	f3 0f 58 d1	 addss	 xmm2, xmm1
  000a6	c7 44 24 10 00
	00 00 00	 mov	 DWORD PTR [esp+16], 0
  000ae	f3 0f 11 54 24
	0c		 movss	 DWORD PTR [esp+12], xmm2
  000b4	f3 0f 11 5c 24
	08		 movss	 DWORD PTR [esp+8], xmm3
  000ba	f3 0f 11 4c 24
	04		 movss	 DWORD PTR [esp+4], xmm1
  000c0	f3 0f 11 04 24	 movss	 DWORD PTR [esp], xmm0
  000c5	e8 00 00 00 00	 call	 ?RenderTextureBox@CScreen@@QAEXMMMMMMMMM@Z ; CScreen::RenderTextureBox
  000ca	5f		 pop	 edi
  000cb	5e		 pop	 esi
  000cc	5b		 pop	 ebx

; 432  : 					 y,
; 433  : 					 x + width,
; 434  : 					 y + height,
; 435  : 					 0.0f,
; 436  : 					 0.5f / width,
; 437  : 					 0.5f / height,
; 438  : 					 (width + 0.5f) / width,
; 439  : 					 (height + 0.5f) / height);
; 440  : }

  000cd	8b e5		 mov	 esp, ebp
  000cf	5d		 pop	 ebp
  000d0	c2 0c 00	 ret	 12			; 0000000cH
?RenderImage@CPythonGraphic@@QAEXPAVCGraphicImageInstance@@MM@Z ENDP ; CPythonGraphic::RenderImage
_TEXT	ENDS
; Function compile flags: /Ogtp
; File C:\DS Project\DS Files\Source\ClientSource\Client\eterPythonLib\PythonGraphic.cpp
;	COMDAT ?RenderUpButton@CPythonGraphic@@QAEXMMMM@Z
_TEXT	SEGMENT
_sx$ = 8						; size = 4
_sy$ = 12						; size = 4
_ex$ = 16						; size = 4
_ey$ = 20						; size = 4
?RenderUpButton@CPythonGraphic@@QAEXMMMM@Z PROC		; CPythonGraphic::RenderUpButton, COMDAT
; _this$ = ecx

; 594  : {

  00000	55		 push	 ebp
  00001	8b ec		 mov	 ebp, esp

; 595  : 	RenderBox2d(sx, sy, ex, ey);

  00003	f3 0f 10 45 14	 movss	 xmm0, DWORD PTR _ey$[ebp]
  00008	f3 0f 10 4d 0c	 movss	 xmm1, DWORD PTR _sy$[ebp]
  0000d	56		 push	 esi
  0000e	83 ec 14	 sub	 esp, 20			; 00000014H
  00011	8b f1		 mov	 esi, ecx
  00013	c7 44 24 10 00
	00 00 00	 mov	 DWORD PTR [esp+16], 0
  0001b	f3 0f 11 44 24
	0c		 movss	 DWORD PTR [esp+12], xmm0
  00021	f3 0f 10 45 10	 movss	 xmm0, DWORD PTR _ex$[ebp]
  00026	f3 0f 11 44 24
	08		 movss	 DWORD PTR [esp+8], xmm0
  0002c	f3 0f 10 45 08	 movss	 xmm0, DWORD PTR _sx$[ebp]
  00031	f3 0f 11 4c 24
	04		 movss	 DWORD PTR [esp+4], xmm1
  00037	f3 0f 11 04 24	 movss	 DWORD PTR [esp], xmm0
  0003c	e8 00 00 00 00	 call	 ?RenderBox2d@CScreen@@QAEXMMMMM@Z ; CScreen::RenderBox2d

; 596  : 
; 597  : 	SetDiffuseColor(m_lightColor);

  00041	ff 76 08	 push	 DWORD PTR [esi+8]
  00044	8b ce		 mov	 ecx, esi
  00046	e8 00 00 00 00	 call	 ?SetDiffuseColor@CScreen@@QAEXK@Z ; CScreen::SetDiffuseColor

; 598  : 	RenderLine2d(sx, sy, ex, sy);

  0004b	f3 0f 10 45 0c	 movss	 xmm0, DWORD PTR _sy$[ebp]
  00050	83 ec 14	 sub	 esp, 20			; 00000014H
  00053	f3 0f 10 4d 10	 movss	 xmm1, DWORD PTR _ex$[ebp]
  00058	8b ce		 mov	 ecx, esi
  0005a	c7 44 24 10 00
	00 00 00	 mov	 DWORD PTR [esp+16], 0
  00062	f3 0f 11 44 24
	0c		 movss	 DWORD PTR [esp+12], xmm0
  00068	f3 0f 11 4c 24
	08		 movss	 DWORD PTR [esp+8], xmm1
  0006e	f3 0f 11 44 24
	04		 movss	 DWORD PTR [esp+4], xmm0
  00074	f3 0f 10 45 08	 movss	 xmm0, DWORD PTR _sx$[ebp]
  00079	f3 0f 11 04 24	 movss	 DWORD PTR [esp], xmm0
  0007e	e8 00 00 00 00	 call	 ?RenderLine2d@CScreen@@QAEXMMMMM@Z ; CScreen::RenderLine2d

; 599  : 	RenderLine2d(sx, sy, sx, ey);

  00083	f3 0f 10 45 14	 movss	 xmm0, DWORD PTR _ey$[ebp]
  00088	83 ec 14	 sub	 esp, 20			; 00000014H
  0008b	f3 0f 10 4d 0c	 movss	 xmm1, DWORD PTR _sy$[ebp]
  00090	8b ce		 mov	 ecx, esi
  00092	c7 44 24 10 00
	00 00 00	 mov	 DWORD PTR [esp+16], 0
  0009a	f3 0f 11 44 24
	0c		 movss	 DWORD PTR [esp+12], xmm0
  000a0	f3 0f 10 45 08	 movss	 xmm0, DWORD PTR _sx$[ebp]
  000a5	f3 0f 11 44 24
	08		 movss	 DWORD PTR [esp+8], xmm0
  000ab	f3 0f 11 4c 24
	04		 movss	 DWORD PTR [esp+4], xmm1
  000b1	f3 0f 11 04 24	 movss	 DWORD PTR [esp], xmm0
  000b6	e8 00 00 00 00	 call	 ?RenderLine2d@CScreen@@QAEXMMMMM@Z ; CScreen::RenderLine2d

; 600  : 
; 601  : 	SetDiffuseColor(m_darkColor);

  000bb	ff 76 0c	 push	 DWORD PTR [esi+12]
  000be	8b ce		 mov	 ecx, esi
  000c0	e8 00 00 00 00	 call	 ?SetDiffuseColor@CScreen@@QAEXK@Z ; CScreen::SetDiffuseColor

; 602  : 	RenderLine2d(sx, ey, ex, ey);

  000c5	f3 0f 10 45 14	 movss	 xmm0, DWORD PTR _ey$[ebp]
  000ca	83 ec 14	 sub	 esp, 20			; 00000014H
  000cd	f3 0f 10 4d 10	 movss	 xmm1, DWORD PTR _ex$[ebp]
  000d2	8b ce		 mov	 ecx, esi
  000d4	c7 44 24 10 00
	00 00 00	 mov	 DWORD PTR [esp+16], 0
  000dc	f3 0f 11 44 24
	0c		 movss	 DWORD PTR [esp+12], xmm0
  000e2	f3 0f 11 4c 24
	08		 movss	 DWORD PTR [esp+8], xmm1
  000e8	f3 0f 11 44 24
	04		 movss	 DWORD PTR [esp+4], xmm0
  000ee	f3 0f 10 45 08	 movss	 xmm0, DWORD PTR _sx$[ebp]
  000f3	f3 0f 11 04 24	 movss	 DWORD PTR [esp], xmm0
  000f8	e8 00 00 00 00	 call	 ?RenderLine2d@CScreen@@QAEXMMMMM@Z ; CScreen::RenderLine2d

; 603  : 	RenderLine2d(ex, sy, ex, ey);

  000fd	f3 0f 10 45 14	 movss	 xmm0, DWORD PTR _ey$[ebp]
  00102	83 ec 14	 sub	 esp, 20			; 00000014H
  00105	f3 0f 10 4d 10	 movss	 xmm1, DWORD PTR _ex$[ebp]
  0010a	8b ce		 mov	 ecx, esi
  0010c	c7 44 24 10 00
	00 00 00	 mov	 DWORD PTR [esp+16], 0
  00114	f3 0f 11 44 24
	0c		 movss	 DWORD PTR [esp+12], xmm0
  0011a	f3 0f 10 45 0c	 movss	 xmm0, DWORD PTR _sy$[ebp]
  0011f	f3 0f 11 4c 24
	08		 movss	 DWORD PTR [esp+8], xmm1
  00125	f3 0f 11 44 24
	04		 movss	 DWORD PTR [esp+4], xmm0
  0012b	f3 0f 11 0c 24	 movss	 DWORD PTR [esp], xmm1
  00130	e8 00 00 00 00	 call	 ?RenderLine2d@CScreen@@QAEXMMMMM@Z ; CScreen::RenderLine2d
  00135	5e		 pop	 esi

; 604  : }

  00136	5d		 pop	 ebp
  00137	c2 10 00	 ret	 16			; 00000010H
?RenderUpButton@CPythonGraphic@@QAEXMMMM@Z ENDP		; CPythonGraphic::RenderUpButton
_TEXT	ENDS
; Function compile flags: /Ogtp
; File C:\DS Project\DS Files\Source\ClientSource\Client\eterPythonLib\PythonGraphic.cpp
;	COMDAT ?RenderDownButton@CPythonGraphic@@QAEXMMMM@Z
_TEXT	SEGMENT
_sx$ = 8						; size = 4
_sy$ = 12						; size = 4
_ex$ = 16						; size = 4
_ey$ = 20						; size = 4
?RenderDownButton@CPythonGraphic@@QAEXMMMM@Z PROC	; CPythonGraphic::RenderDownButton, COMDAT
; _this$ = ecx

; 581  : {

  00000	55		 push	 ebp
  00001	8b ec		 mov	 ebp, esp

; 582  : 	RenderBox2d(sx, sy, ex, ey);

  00003	f3 0f 10 45 14	 movss	 xmm0, DWORD PTR _ey$[ebp]
  00008	f3 0f 10 4d 0c	 movss	 xmm1, DWORD PTR _sy$[ebp]
  0000d	56		 push	 esi
  0000e	83 ec 14	 sub	 esp, 20			; 00000014H
  00011	8b f1		 mov	 esi, ecx
  00013	c7 44 24 10 00
	00 00 00	 mov	 DWORD PTR [esp+16], 0
  0001b	f3 0f 11 44 24
	0c		 movss	 DWORD PTR [esp+12], xmm0
  00021	f3 0f 10 45 10	 movss	 xmm0, DWORD PTR _ex$[ebp]
  00026	f3 0f 11 44 24
	08		 movss	 DWORD PTR [esp+8], xmm0
  0002c	f3 0f 10 45 08	 movss	 xmm0, DWORD PTR _sx$[ebp]
  00031	f3 0f 11 4c 24
	04		 movss	 DWORD PTR [esp+4], xmm1
  00037	f3 0f 11 04 24	 movss	 DWORD PTR [esp], xmm0
  0003c	e8 00 00 00 00	 call	 ?RenderBox2d@CScreen@@QAEXMMMMM@Z ; CScreen::RenderBox2d

; 583  : 
; 584  : 	SetDiffuseColor(m_darkColor);

  00041	ff 76 0c	 push	 DWORD PTR [esi+12]
  00044	8b ce		 mov	 ecx, esi
  00046	e8 00 00 00 00	 call	 ?SetDiffuseColor@CScreen@@QAEXK@Z ; CScreen::SetDiffuseColor

; 585  : 	RenderLine2d(sx, sy, ex, sy);

  0004b	f3 0f 10 45 0c	 movss	 xmm0, DWORD PTR _sy$[ebp]
  00050	83 ec 14	 sub	 esp, 20			; 00000014H
  00053	f3 0f 10 4d 10	 movss	 xmm1, DWORD PTR _ex$[ebp]
  00058	8b ce		 mov	 ecx, esi
  0005a	c7 44 24 10 00
	00 00 00	 mov	 DWORD PTR [esp+16], 0
  00062	f3 0f 11 44 24
	0c		 movss	 DWORD PTR [esp+12], xmm0
  00068	f3 0f 11 4c 24
	08		 movss	 DWORD PTR [esp+8], xmm1
  0006e	f3 0f 11 44 24
	04		 movss	 DWORD PTR [esp+4], xmm0
  00074	f3 0f 10 45 08	 movss	 xmm0, DWORD PTR _sx$[ebp]
  00079	f3 0f 11 04 24	 movss	 DWORD PTR [esp], xmm0
  0007e	e8 00 00 00 00	 call	 ?RenderLine2d@CScreen@@QAEXMMMMM@Z ; CScreen::RenderLine2d

; 586  : 	RenderLine2d(sx, sy, sx, ey);

  00083	f3 0f 10 45 14	 movss	 xmm0, DWORD PTR _ey$[ebp]
  00088	83 ec 14	 sub	 esp, 20			; 00000014H
  0008b	f3 0f 10 4d 0c	 movss	 xmm1, DWORD PTR _sy$[ebp]
  00090	8b ce		 mov	 ecx, esi
  00092	c7 44 24 10 00
	00 00 00	 mov	 DWORD PTR [esp+16], 0
  0009a	f3 0f 11 44 24
	0c		 movss	 DWORD PTR [esp+12], xmm0
  000a0	f3 0f 10 45 08	 movss	 xmm0, DWORD PTR _sx$[ebp]
  000a5	f3 0f 11 44 24
	08		 movss	 DWORD PTR [esp+8], xmm0
  000ab	f3 0f 11 4c 24
	04		 movss	 DWORD PTR [esp+4], xmm1
  000b1	f3 0f 11 04 24	 movss	 DWORD PTR [esp], xmm0
  000b6	e8 00 00 00 00	 call	 ?RenderLine2d@CScreen@@QAEXMMMMM@Z ; CScreen::RenderLine2d

; 587  : 
; 588  : 	SetDiffuseColor(m_lightColor);

  000bb	ff 76 08	 push	 DWORD PTR [esi+8]
  000be	8b ce		 mov	 ecx, esi
  000c0	e8 00 00 00 00	 call	 ?SetDiffuseColor@CScreen@@QAEXK@Z ; CScreen::SetDiffuseColor

; 589  : 	RenderLine2d(sx, ey, ex, ey);

  000c5	f3 0f 10 45 14	 movss	 xmm0, DWORD PTR _ey$[ebp]
  000ca	83 ec 14	 sub	 esp, 20			; 00000014H
  000cd	f3 0f 10 4d 10	 movss	 xmm1, DWORD PTR _ex$[ebp]
  000d2	8b ce		 mov	 ecx, esi
  000d4	c7 44 24 10 00
	00 00 00	 mov	 DWORD PTR [esp+16], 0
  000dc	f3 0f 11 44 24
	0c		 movss	 DWORD PTR [esp+12], xmm0
  000e2	f3 0f 11 4c 24
	08		 movss	 DWORD PTR [esp+8], xmm1
  000e8	f3 0f 11 44 24
	04		 movss	 DWORD PTR [esp+4], xmm0
  000ee	f3 0f 10 45 08	 movss	 xmm0, DWORD PTR _sx$[ebp]
  000f3	f3 0f 11 04 24	 movss	 DWORD PTR [esp], xmm0
  000f8	e8 00 00 00 00	 call	 ?RenderLine2d@CScreen@@QAEXMMMMM@Z ; CScreen::RenderLine2d

; 590  : 	RenderLine2d(ex, sy, ex, ey);

  000fd	f3 0f 10 45 14	 movss	 xmm0, DWORD PTR _ey$[ebp]
  00102	83 ec 14	 sub	 esp, 20			; 00000014H
  00105	f3 0f 10 4d 10	 movss	 xmm1, DWORD PTR _ex$[ebp]
  0010a	8b ce		 mov	 ecx, esi
  0010c	c7 44 24 10 00
	00 00 00	 mov	 DWORD PTR [esp+16], 0
  00114	f3 0f 11 44 24
	0c		 movss	 DWORD PTR [esp+12], xmm0
  0011a	f3 0f 10 45 0c	 movss	 xmm0, DWORD PTR _sy$[ebp]
  0011f	f3 0f 11 4c 24
	08		 movss	 DWORD PTR [esp+8], xmm1
  00125	f3 0f 11 44 24
	04		 movss	 DWORD PTR [esp+4], xmm0
  0012b	f3 0f 11 0c 24	 movss	 DWORD PTR [esp], xmm1
  00130	e8 00 00 00 00	 call	 ?RenderLine2d@CScreen@@QAEXMMMMM@Z ; CScreen::RenderLine2d
  00135	5e		 pop	 esi

; 591  : }

  00136	5d		 pop	 ebp
  00137	c2 10 00	 ret	 16			; 00000010H
?RenderDownButton@CPythonGraphic@@QAEXMMMM@Z ENDP	; CPythonGraphic::RenderDownButton
_TEXT	ENDS
; Function compile flags: /Ogtp
; File C:\DS Project\DS Files\Source\ClientSource\Client\eterPythonLib\PythonGraphic.cpp
;	COMDAT ?GenerateColor@CPythonGraphic@@QAEJMMMM@Z
_TEXT	SEGMENT
_r$ = 8							; size = 4
_g$ = 12						; size = 4
_b$ = 16						; size = 4
_a$ = 20						; size = 4
?GenerateColor@CPythonGraphic@@QAEJMMMM@Z PROC		; CPythonGraphic::GenerateColor, COMDAT
; _this$ = ecx

; 576  : {

  00000	55		 push	 ebp
  00001	8b ec		 mov	 ebp, esp

; 577  : 	return GetColor(r, g, b, a);

  00003	f3 0f 10 45 14	 movss	 xmm0, DWORD PTR _a$[ebp]
  00008	83 ec 10	 sub	 esp, 16			; 00000010H
  0000b	f3 0f 11 44 24
	0c		 movss	 DWORD PTR [esp+12], xmm0
  00011	f3 0f 10 45 10	 movss	 xmm0, DWORD PTR _b$[ebp]
  00016	f3 0f 11 44 24
	08		 movss	 DWORD PTR [esp+8], xmm0
  0001c	f3 0f 10 45 0c	 movss	 xmm0, DWORD PTR _g$[ebp]
  00021	f3 0f 11 44 24
	04		 movss	 DWORD PTR [esp+4], xmm0
  00027	f3 0f 10 45 08	 movss	 xmm0, DWORD PTR _r$[ebp]
  0002c	f3 0f 11 04 24	 movss	 DWORD PTR [esp], xmm0
  00031	e8 00 00 00 00	 call	 ?GetColor@CGraphicBase@@QAEKMMMM@Z ; CGraphicBase::GetColor

; 578  : }

  00036	5d		 pop	 ebp
  00037	c2 10 00	 ret	 16			; 00000010H
?GenerateColor@CPythonGraphic@@QAEJMMMM@Z ENDP		; CPythonGraphic::GenerateColor
_TEXT	ENDS
; Function compile flags: /Ogtp
; File C:\DS Project\DS Files\Source\ClientSource\Client\eterPythonLib\PythonGraphic.cpp
;	COMDAT ?RestoreViewport@CPythonGraphic@@QAEXXZ
_TEXT	SEGMENT
?RestoreViewport@CPythonGraphic@@QAEXXZ PROC		; CPythonGraphic::RestoreViewport, COMDAT
; _this$ = ecx

; 121  : 	ms_lpd3dDevice->SetViewport(&m_backupViewport);

  00000	8b 15 00 00 00
	00		 mov	 edx, DWORD PTR ?ms_lpd3dDevice@CGraphicBase@@1PAUIDirect3DDevice8@@A ; CGraphicBase::ms_lpd3dDevice
  00006	8d 81 84 00 00
	00		 lea	 eax, DWORD PTR [ecx+132]
  0000c	56		 push	 esi
  0000d	50		 push	 eax
  0000e	52		 push	 edx
  0000f	8b 32		 mov	 esi, DWORD PTR [edx]
  00011	ff 96 a0 00 00
	00		 call	 DWORD PTR [esi+160]
  00017	5e		 pop	 esi

; 122  : }

  00018	c3		 ret	 0
?RestoreViewport@CPythonGraphic@@QAEXXZ ENDP		; CPythonGraphic::RestoreViewport
_TEXT	ENDS
; Function compile flags: /Ogtp
; File C:\DS Project\DS Files\Source\ClientSource\Client\eterPythonLib\PythonGraphic.cpp
;	COMDAT ?SetViewport@CPythonGraphic@@QAEXMMMM@Z
_TEXT	SEGMENT
_ViewPort$ = -28					; size = 24
__$ArrayPad$ = -4					; size = 4
_fx$ = 8						; size = 4
_fy$ = 12						; size = 4
_fWidth$ = 16						; size = 4
_fHeight$ = 20						; size = 4
?SetViewport@CPythonGraphic@@QAEXMMMM@Z PROC		; CPythonGraphic::SetViewport, COMDAT
; _this$ = ecx

; 98   : {

  00000	55		 push	 ebp
  00001	8b ec		 mov	 ebp, esp
  00003	83 ec 1c	 sub	 esp, 28			; 0000001cH
  00006	a1 00 00 00 00	 mov	 eax, DWORD PTR ___security_cookie
  0000b	33 c5		 xor	 eax, ebp
  0000d	89 45 fc	 mov	 DWORD PTR __$ArrayPad$[ebp], eax

; 99   : 	ms_lpd3dDevice->GetViewport(&m_backupViewport);

  00010	8b 15 00 00 00
	00		 mov	 edx, DWORD PTR ?ms_lpd3dDevice@CGraphicBase@@1PAUIDirect3DDevice8@@A ; CGraphicBase::ms_lpd3dDevice
  00016	8d 81 84 00 00
	00		 lea	 eax, DWORD PTR [ecx+132]
  0001c	56		 push	 esi
  0001d	50		 push	 eax
  0001e	52		 push	 edx
  0001f	8b 32		 mov	 esi, DWORD PTR [edx]
  00021	ff 96 a4 00 00
	00		 call	 DWORD PTR [esi+164]

; 100  : 
; 101  : 	D3DVIEWPORT8 ViewPort;
; 102  : 	ViewPort.X = fx;

  00027	f3 0f 10 45 08	 movss	 xmm0, DWORD PTR _fx$[ebp]
  0002c	e8 00 00 00 00	 call	 __ftoui3

; 103  : 	ViewPort.Y = fy;

  00031	f3 0f 10 45 0c	 movss	 xmm0, DWORD PTR _fy$[ebp]
  00036	89 45 e4	 mov	 DWORD PTR _ViewPort$[ebp], eax
  00039	e8 00 00 00 00	 call	 __ftoui3

; 104  : 	ViewPort.Width = fWidth;

  0003e	f3 0f 10 45 10	 movss	 xmm0, DWORD PTR _fWidth$[ebp]
  00043	89 45 e8	 mov	 DWORD PTR _ViewPort$[ebp+4], eax
  00046	e8 00 00 00 00	 call	 __ftoui3

; 105  : 	ViewPort.Height = fHeight;

  0004b	f3 0f 10 45 14	 movss	 xmm0, DWORD PTR _fHeight$[ebp]
  00050	89 45 ec	 mov	 DWORD PTR _ViewPort$[ebp+8], eax
  00053	e8 00 00 00 00	 call	 __ftoui3
  00058	89 45 f0	 mov	 DWORD PTR _ViewPort$[ebp+12], eax

; 106  : 	ViewPort.MinZ = 0.0f;
; 107  : 	ViewPort.MaxZ = 1.0f;
; 108  : 	if (FAILED(

  0005b	8d 55 e4	 lea	 edx, DWORD PTR _ViewPort$[ebp]
  0005e	a1 00 00 00 00	 mov	 eax, DWORD PTR ?ms_lpd3dDevice@CGraphicBase@@1PAUIDirect3DDevice8@@A ; CGraphicBase::ms_lpd3dDevice
  00063	c7 45 f4 00 00
	00 00		 mov	 DWORD PTR _ViewPort$[ebp+16], 0
  0006a	c7 45 f8 00 00
	80 3f		 mov	 DWORD PTR _ViewPort$[ebp+20], 1065353216 ; 3f800000H
  00071	52		 push	 edx
  00072	8b 08		 mov	 ecx, DWORD PTR [eax]
  00074	50		 push	 eax
  00075	ff 91 a0 00 00
	00		 call	 DWORD PTR [ecx+160]
  0007b	5e		 pop	 esi
  0007c	85 c0		 test	 eax, eax
  0007e	79 19		 jns	 SHORT $LN2@SetViewpor

; 109  : 		ms_lpd3dDevice->SetViewport(&ViewPort)
; 110  : 	))
; 111  : 	{
; 112  : 		Tracef("CPythonGraphic::SetViewport(%d, %d, %d, %d) - Error",

  00080	ff 75 f0	 push	 DWORD PTR _ViewPort$[ebp+12]
  00083	ff 75 ec	 push	 DWORD PTR _ViewPort$[ebp+8]
  00086	ff 75 e8	 push	 DWORD PTR _ViewPort$[ebp+4]
  00089	ff 75 e4	 push	 DWORD PTR _ViewPort$[ebp]
  0008c	68 00 00 00 00	 push	 OFFSET ??_C@_0DE@BKCCNGJK@CPythonGraphic?3?3SetViewport?$CI?$CFd?0@
  00091	e8 00 00 00 00	 call	 ?Tracef@@YAXPBDZZ	; Tracef
  00096	83 c4 14	 add	 esp, 20			; 00000014H
$LN2@SetViewpor:

; 113  : 			ViewPort.X, ViewPort.Y,
; 114  : 			ViewPort.Width, ViewPort.Height
; 115  : 		);
; 116  : 	}
; 117  : }

  00099	8b 4d fc	 mov	 ecx, DWORD PTR __$ArrayPad$[ebp]
  0009c	33 cd		 xor	 ecx, ebp
  0009e	e8 00 00 00 00	 call	 @__security_check_cookie@4
  000a3	8b e5		 mov	 esp, ebp
  000a5	5d		 pop	 ebp
  000a6	c2 10 00	 ret	 16			; 00000010H
?SetViewport@CPythonGraphic@@QAEXMMMM@Z ENDP		; CPythonGraphic::SetViewport
_TEXT	ENDS
; Function compile flags: /Ogtp
; File C:\DS Project\DS Files\Source\ClientSource\Client\eterPythonLib\PythonGraphic.cpp
;	COMDAT ?SetOmniLight@CPythonGraphic@@QAEXXZ
_TEXT	SEGMENT
_Material$ = -176					; size = 68
_Light$ = -108						; size = 104
__$ArrayPad$ = -4					; size = 4
?SetOmniLight@CPythonGraphic@@QAEXXZ PROC		; CPythonGraphic::SetOmniLight, COMDAT
; _this$ = ecx

; 58   : {

  00000	55		 push	 ebp
  00001	8b ec		 mov	 ebp, esp
  00003	81 ec b0 00 00
	00		 sub	 esp, 176		; 000000b0H
  00009	a1 00 00 00 00	 mov	 eax, DWORD PTR ___security_cookie
  0000e	33 c5		 xor	 eax, ebp
  00010	89 45 fc	 mov	 DWORD PTR __$ArrayPad$[ebp], eax

; 59   :     // Set up a material
; 60   :     D3DMATERIAL8 Material;
; 61   : 	Material.Ambient = D3DXCOLOR(0.3f, 0.3f, 0.3f, 1.0f);

  00013	0f 28 05 00 00
	00 00		 movaps	 xmm0, XMMWORD PTR __xmm@3f8000003e99999a3e99999a3e99999a

; 62   : 	Material.Diffuse = D3DXCOLOR(1.0f, 1.0f, 1.0f, 1.0f);
; 63   : 	Material.Emissive = D3DXCOLOR(0.1f, 0.1f, 0.1f, 1.0f);
; 64   :     STATEMANAGER.SetMaterial(&Material);

  0001a	8d 85 50 ff ff
	ff		 lea	 eax, DWORD PTR _Material$[ebp]
  00020	8b 0d 00 00 00
	00		 mov	 ecx, DWORD PTR ?ms_singleton@?$CSingleton@VCStateManager@@@@0PAVCStateManager@@A ; CSingleton<CStateManager>::ms_singleton
  00026	0f 11 85 60 ff
	ff ff		 movups	 XMMWORD PTR _Material$[ebp+16], xmm0
  0002d	50		 push	 eax
  0002e	0f 28 05 00 00
	00 00		 movaps	 xmm0, XMMWORD PTR __xmm@3f8000003f8000003f8000003f800000
  00035	0f 11 85 50 ff
	ff ff		 movups	 XMMWORD PTR _Material$[ebp], xmm0
  0003c	0f 28 05 00 00
	00 00		 movaps	 xmm0, XMMWORD PTR __xmm@3f8000003dcccccd3dcccccd3dcccccd
  00043	0f 11 45 80	 movups	 XMMWORD PTR _Material$[ebp+48], xmm0
  00047	e8 00 00 00 00	 call	 ?SetMaterial@CStateManager@@QAEXPBU_D3DMATERIAL8@@@Z ; CStateManager::SetMaterial

; 65   : 
; 66   : 	D3DLIGHT8 Light;
; 67   : 	Light.Type = D3DLIGHT_SPOT;
; 68   :     Light.Position = D3DXVECTOR3(50.0f, 150.0f, 350.0f);

  0004c	0f 28 05 00 00
	00 00		 movaps	 xmm0, XMMWORD PTR __xmm@be19999a43af00004316000042480000

; 69   :     Light.Direction = D3DXVECTOR3(-0.15f, -0.3f, -0.9f);
; 70   :     Light.Theta = D3DXToRadian(30.0f);
; 71   :     Light.Phi = D3DXToRadian(45.0f);
; 72   :     Light.Falloff = 1.0f;
; 73   :     Light.Attenuation0 = 0.0f;
; 74   :     Light.Attenuation1 = 0.005f;
; 75   :     Light.Attenuation2 = 0.0f;
; 76   :     Light.Diffuse.r = 1.0f;
; 77   :     Light.Diffuse.g = 1.0f;
; 78   :     Light.Diffuse.b = 1.0f;
; 79   : 	Light.Diffuse.a = 1.0f;
; 80   : 	Light.Ambient.r = 1.0f;
; 81   : 	Light.Ambient.g = 1.0f;
; 82   : 	Light.Ambient.b = 1.0f;
; 83   : 	Light.Ambient.a = 1.0f;
; 84   :     Light.Range = 500.0f;
; 85   : 	ms_lpd3dDevice->SetLight(0, &Light);

  00053	8d 55 94	 lea	 edx, DWORD PTR _Light$[ebp]
  00056	a1 00 00 00 00	 mov	 eax, DWORD PTR ?ms_lpd3dDevice@CGraphicBase@@1PAUIDirect3DDevice8@@A ; CGraphicBase::ms_lpd3dDevice
  0005b	0f 11 45 c8	 movups	 XMMWORD PTR _Light$[ebp+52], xmm0
  0005f	52		 push	 edx
  00060	0f 28 05 00 00
	00 00		 movaps	 xmm0, XMMWORD PTR __xmm@000000003ba3d70a000000003f800000
  00067	0f 11 45 e4	 movups	 XMMWORD PTR _Light$[ebp+80], xmm0
  0006b	c7 45 94 02 00
	00 00		 mov	 DWORD PTR _Light$[ebp], 2
  00072	0f 28 05 00 00
	00 00		 movaps	 xmm0, XMMWORD PTR __xmm@3f8000003f8000003f8000003f800000
  00079	0f 11 45 98	 movups	 XMMWORD PTR _Light$[ebp+4], xmm0
  0007d	c7 45 d8 9a 99
	99 be		 mov	 DWORD PTR _Light$[ebp+68], -1097229926 ; be99999aH
  00084	0f 28 05 00 00
	00 00		 movaps	 xmm0, XMMWORD PTR __xmm@3f8000003f8000003f8000003f800000
  0008b	c7 45 dc 66 66
	66 bf		 mov	 DWORD PTR _Light$[ebp+72], -1083808154 ; bf666666H
  00092	c7 45 f4 92 0a
	06 3f		 mov	 DWORD PTR _Light$[ebp+96], 1057360530 ; 3f060a92H
  00099	c7 45 f8 db 0f
	49 3f		 mov	 DWORD PTR _Light$[ebp+100], 1061752795 ; 3f490fdbH
  000a0	0f 11 45 b8	 movups	 XMMWORD PTR _Light$[ebp+36], xmm0
  000a4	c7 45 e0 00 00
	fa 43		 mov	 DWORD PTR _Light$[ebp+76], 1140457472 ; 43fa0000H
  000ab	8b 08		 mov	 ecx, DWORD PTR [eax]
  000ad	6a 00		 push	 0
  000af	50		 push	 eax
  000b0	ff 91 b0 00 00
	00		 call	 DWORD PTR [ecx+176]

; 86   : 	ms_lpd3dDevice->LightEnable(0, TRUE);

  000b6	a1 00 00 00 00	 mov	 eax, DWORD PTR ?ms_lpd3dDevice@CGraphicBase@@1PAUIDirect3DDevice8@@A ; CGraphicBase::ms_lpd3dDevice
  000bb	6a 01		 push	 1
  000bd	6a 00		 push	 0
  000bf	50		 push	 eax
  000c0	8b 08		 mov	 ecx, DWORD PTR [eax]
  000c2	ff 91 b8 00 00
	00		 call	 DWORD PTR [ecx+184]

; 87   : 
; 88   : 	Light.Type = D3DLIGHT_POINT;
; 89   : 	Light.Position = D3DXVECTOR3(0.0f, 200.0f, 200.0f);
; 90   : 	Light.Attenuation0 = 0.1f;
; 91   : 	Light.Attenuation1 = 0.01f;
; 92   : 	Light.Attenuation2 = 0.0f;
; 93   : 	ms_lpd3dDevice->SetLight(1, &Light);

  000c8	a1 00 00 00 00	 mov	 eax, DWORD PTR ?ms_lpd3dDevice@CGraphicBase@@1PAUIDirect3DDevice8@@A ; CGraphicBase::ms_lpd3dDevice
  000cd	8d 55 94	 lea	 edx, DWORD PTR _Light$[ebp]
  000d0	52		 push	 edx
  000d1	c7 45 94 01 00
	00 00		 mov	 DWORD PTR _Light$[ebp], 1
  000d8	c7 45 c8 00 00
	00 00		 mov	 DWORD PTR _Light$[ebp+52], 0
  000df	c7 45 cc 00 00
	48 43		 mov	 DWORD PTR _Light$[ebp+56], 1128792064 ; 43480000H
  000e6	c7 45 d0 00 00
	48 43		 mov	 DWORD PTR _Light$[ebp+60], 1128792064 ; 43480000H
  000ed	c7 45 e8 cd cc
	cc 3d		 mov	 DWORD PTR _Light$[ebp+84], 1036831949 ; 3dcccccdH
  000f4	c7 45 ec 0a d7
	23 3c		 mov	 DWORD PTR _Light$[ebp+88], 1008981770 ; 3c23d70aH
  000fb	c7 45 f0 00 00
	00 00		 mov	 DWORD PTR _Light$[ebp+92], 0
  00102	8b 08		 mov	 ecx, DWORD PTR [eax]
  00104	6a 01		 push	 1
  00106	50		 push	 eax
  00107	ff 91 b0 00 00
	00		 call	 DWORD PTR [ecx+176]

; 94   : 	ms_lpd3dDevice->LightEnable(1, TRUE);

  0010d	a1 00 00 00 00	 mov	 eax, DWORD PTR ?ms_lpd3dDevice@CGraphicBase@@1PAUIDirect3DDevice8@@A ; CGraphicBase::ms_lpd3dDevice
  00112	6a 01		 push	 1
  00114	6a 01		 push	 1
  00116	50		 push	 eax
  00117	8b 08		 mov	 ecx, DWORD PTR [eax]
  00119	ff 91 b8 00 00
	00		 call	 DWORD PTR [ecx+184]

; 95   : }

  0011f	8b 4d fc	 mov	 ecx, DWORD PTR __$ArrayPad$[ebp]
  00122	33 cd		 xor	 ecx, ebp
  00124	e8 00 00 00 00	 call	 @__security_check_cookie@4
  00129	8b e5		 mov	 esp, ebp
  0012b	5d		 pop	 ebp
  0012c	c3		 ret	 0
?SetOmniLight@CPythonGraphic@@QAEXXZ ENDP		; CPythonGraphic::SetOmniLight
_TEXT	ENDS
; Function compile flags: /Ogtp
; File C:\DS Project\DS Files\Source\ClientSource\Client\eterPythonLib\PythonGraphic.cpp
;	COMDAT ?SetCursorPosition@CPythonGraphic@@QAEXHH@Z
_TEXT	SEGMENT
_x$ = 8							; size = 4
_y$ = 12						; size = 4
?SetCursorPosition@CPythonGraphic@@QAEXHH@Z PROC	; CPythonGraphic::SetCursorPosition, COMDAT
; _this$ = ecx

; 53   : {

  00000	55		 push	 ebp
  00001	8b ec		 mov	 ebp, esp

; 54   : 	CScreen::SetCursorPosition(x, y, ms_iWidth, ms_iHeight);

  00003	ff 35 00 00 00
	00		 push	 DWORD PTR ?ms_iHeight@CGraphicBase@@1HA ; CGraphicBase::ms_iHeight
  00009	ff 35 00 00 00
	00		 push	 DWORD PTR ?ms_iWidth@CGraphicBase@@1HA ; CGraphicBase::ms_iWidth
  0000f	ff 75 0c	 push	 DWORD PTR _y$[ebp]
  00012	ff 75 08	 push	 DWORD PTR _x$[ebp]
  00015	e8 00 00 00 00	 call	 ?SetCursorPosition@CScreen@@QAEXHHHH@Z ; CScreen::SetCursorPosition

; 55   : }

  0001a	5d		 pop	 ebp
  0001b	c2 08 00	 ret	 8
?SetCursorPosition@CPythonGraphic@@QAEXHH@Z ENDP	; CPythonGraphic::SetCursorPosition
_TEXT	ENDS
; Function compile flags: /Ogtp
; File C:\DS Project\DS Files\Source\ClientSource\Client\eterPythonLib\PythonGraphic.cpp
;	COMDAT ?SetGameRenderState@CPythonGraphic@@QAEXXZ
_TEXT	SEGMENT
?SetGameRenderState@CPythonGraphic@@QAEXXZ PROC		; CPythonGraphic::SetGameRenderState, COMDAT
; _this$ = ecx

; 44   : 	STATEMANAGER.SetTextureStageState(0, D3DTSS_MINFILTER, D3DTEXF_LINEAR);

  00000	8b 0d 00 00 00
	00		 mov	 ecx, DWORD PTR ?ms_singleton@?$CSingleton@VCStateManager@@@@0PAVCStateManager@@A ; CSingleton<CStateManager>::ms_singleton
  00006	6a 02		 push	 2
  00008	6a 11		 push	 17			; 00000011H
  0000a	6a 00		 push	 0
  0000c	e8 00 00 00 00	 call	 ?SetTextureStageState@CStateManager@@QAEXKW4_D3DTEXTURESTAGESTATETYPE@@K@Z ; CStateManager::SetTextureStageState

; 45   : 	STATEMANAGER.SetTextureStageState(0, D3DTSS_MAGFILTER, D3DTEXF_LINEAR);

  00011	8b 0d 00 00 00
	00		 mov	 ecx, DWORD PTR ?ms_singleton@?$CSingleton@VCStateManager@@@@0PAVCStateManager@@A ; CSingleton<CStateManager>::ms_singleton
  00017	6a 02		 push	 2
  00019	6a 10		 push	 16			; 00000010H
  0001b	6a 00		 push	 0
  0001d	e8 00 00 00 00	 call	 ?SetTextureStageState@CStateManager@@QAEXKW4_D3DTEXTURESTAGESTATETYPE@@K@Z ; CStateManager::SetTextureStageState

; 46   : 	STATEMANAGER.SetTextureStageState(0, D3DTSS_MIPFILTER, D3DTEXF_LINEAR);

  00022	8b 0d 00 00 00
	00		 mov	 ecx, DWORD PTR ?ms_singleton@?$CSingleton@VCStateManager@@@@0PAVCStateManager@@A ; CSingleton<CStateManager>::ms_singleton
  00028	6a 02		 push	 2
  0002a	6a 12		 push	 18			; 00000012H
  0002c	6a 00		 push	 0
  0002e	e8 00 00 00 00	 call	 ?SetTextureStageState@CStateManager@@QAEXKW4_D3DTEXTURESTAGESTATETYPE@@K@Z ; CStateManager::SetTextureStageState

; 47   : 
; 48   : 	STATEMANAGER.SetRenderState(D3DRS_ALPHABLENDENABLE, FALSE);

  00033	8b 0d 00 00 00
	00		 mov	 ecx, DWORD PTR ?ms_singleton@?$CSingleton@VCStateManager@@@@0PAVCStateManager@@A ; CSingleton<CStateManager>::ms_singleton
  00039	6a 00		 push	 0
  0003b	6a 1b		 push	 27			; 0000001bH
  0003d	e8 00 00 00 00	 call	 ?SetRenderState@CStateManager@@QAEXW4_D3DRENDERSTATETYPE@@K@Z ; CStateManager::SetRenderState

; 49   : 	STATEMANAGER.SetRenderState(D3DRS_LIGHTING, TRUE);

  00042	8b 0d 00 00 00
	00		 mov	 ecx, DWORD PTR ?ms_singleton@?$CSingleton@VCStateManager@@@@0PAVCStateManager@@A ; CSingleton<CStateManager>::ms_singleton
  00048	6a 01		 push	 1
  0004a	68 89 00 00 00	 push	 137			; 00000089H
  0004f	e8 00 00 00 00	 call	 ?SetRenderState@CStateManager@@QAEXW4_D3DRENDERSTATETYPE@@K@Z ; CStateManager::SetRenderState

; 50   : }

  00054	c3		 ret	 0
?SetGameRenderState@CPythonGraphic@@QAEXXZ ENDP		; CPythonGraphic::SetGameRenderState
_TEXT	ENDS
; Function compile flags: /Ogtp
; File C:\DS Project\DS Files\Source\ClientSource\Client\eterPythonLib\PythonGraphic.cpp
;	COMDAT ?SetInterfaceRenderState@CPythonGraphic@@QAEXXZ
_TEXT	SEGMENT
?SetInterfaceRenderState@CPythonGraphic@@QAEXXZ PROC	; CPythonGraphic::SetInterfaceRenderState, COMDAT
; _this$ = ecx

; 23   : {

  00000	56		 push	 esi

; 24   : 	STATEMANAGER.SetTransform(D3DTS_PROJECTION, &ms_matIdentity);

  00001	68 00 00 00 00	 push	 OFFSET ?ms_matIdentity@CGraphicBase@@1UD3DXMATRIX@@A ; CGraphicBase::ms_matIdentity
  00006	8b f1		 mov	 esi, ecx
  00008	8b 0d 00 00 00
	00		 mov	 ecx, DWORD PTR ?ms_singleton@?$CSingleton@VCStateManager@@@@0PAVCStateManager@@A ; CSingleton<CStateManager>::ms_singleton
  0000e	6a 03		 push	 3
  00010	e8 00 00 00 00	 call	 ?SetTransform@CStateManager@@QAEXW4_D3DTRANSFORMSTATETYPE@@PBU_D3DMATRIX@@@Z ; CStateManager::SetTransform

; 25   :  	STATEMANAGER.SetTransform(D3DTS_VIEW, &ms_matIdentity);

  00015	8b 0d 00 00 00
	00		 mov	 ecx, DWORD PTR ?ms_singleton@?$CSingleton@VCStateManager@@@@0PAVCStateManager@@A ; CSingleton<CStateManager>::ms_singleton
  0001b	68 00 00 00 00	 push	 OFFSET ?ms_matIdentity@CGraphicBase@@1UD3DXMATRIX@@A ; CGraphicBase::ms_matIdentity
  00020	6a 02		 push	 2
  00022	e8 00 00 00 00	 call	 ?SetTransform@CStateManager@@QAEXW4_D3DTRANSFORMSTATETYPE@@PBU_D3DMATRIX@@@Z ; CStateManager::SetTransform

; 26   : 	STATEMANAGER.SetTransform(D3DTS_WORLD, &ms_matIdentity);

  00027	8b 0d 00 00 00
	00		 mov	 ecx, DWORD PTR ?ms_singleton@?$CSingleton@VCStateManager@@@@0PAVCStateManager@@A ; CSingleton<CStateManager>::ms_singleton
  0002d	68 00 00 00 00	 push	 OFFSET ?ms_matIdentity@CGraphicBase@@1UD3DXMATRIX@@A ; CGraphicBase::ms_matIdentity
  00032	68 00 01 00 00	 push	 256			; 00000100H
  00037	e8 00 00 00 00	 call	 ?SetTransform@CStateManager@@QAEXW4_D3DTRANSFORMSTATETYPE@@PBU_D3DMATRIX@@@Z ; CStateManager::SetTransform

; 27   : 
; 28   : 	STATEMANAGER.SetTextureStageState(0, D3DTSS_MINFILTER, D3DTEXF_NONE);

  0003c	8b 0d 00 00 00
	00		 mov	 ecx, DWORD PTR ?ms_singleton@?$CSingleton@VCStateManager@@@@0PAVCStateManager@@A ; CSingleton<CStateManager>::ms_singleton
  00042	6a 00		 push	 0
  00044	6a 11		 push	 17			; 00000011H
  00046	6a 00		 push	 0
  00048	e8 00 00 00 00	 call	 ?SetTextureStageState@CStateManager@@QAEXKW4_D3DTEXTURESTAGESTATETYPE@@K@Z ; CStateManager::SetTextureStageState

; 29   : 	STATEMANAGER.SetTextureStageState(0, D3DTSS_MAGFILTER, D3DTEXF_NONE);

  0004d	8b 0d 00 00 00
	00		 mov	 ecx, DWORD PTR ?ms_singleton@?$CSingleton@VCStateManager@@@@0PAVCStateManager@@A ; CSingleton<CStateManager>::ms_singleton
  00053	6a 00		 push	 0
  00055	6a 10		 push	 16			; 00000010H
  00057	6a 00		 push	 0
  00059	e8 00 00 00 00	 call	 ?SetTextureStageState@CStateManager@@QAEXKW4_D3DTEXTURESTAGESTATETYPE@@K@Z ; CStateManager::SetTextureStageState

; 30   : 	STATEMANAGER.SetTextureStageState(0, D3DTSS_MIPFILTER, D3DTEXF_NONE);

  0005e	8b 0d 00 00 00
	00		 mov	 ecx, DWORD PTR ?ms_singleton@?$CSingleton@VCStateManager@@@@0PAVCStateManager@@A ; CSingleton<CStateManager>::ms_singleton
  00064	6a 00		 push	 0
  00066	6a 12		 push	 18			; 00000012H
  00068	6a 00		 push	 0
  0006a	e8 00 00 00 00	 call	 ?SetTextureStageState@CStateManager@@QAEXKW4_D3DTEXTURESTAGESTATETYPE@@K@Z ; CStateManager::SetTextureStageState

; 31   : 
; 32   : 	STATEMANAGER.SetRenderState(D3DRS_ALPHABLENDENABLE, TRUE);

  0006f	8b 0d 00 00 00
	00		 mov	 ecx, DWORD PTR ?ms_singleton@?$CSingleton@VCStateManager@@@@0PAVCStateManager@@A ; CSingleton<CStateManager>::ms_singleton
  00075	6a 01		 push	 1
  00077	6a 1b		 push	 27			; 0000001bH
  00079	e8 00 00 00 00	 call	 ?SetRenderState@CStateManager@@QAEXW4_D3DRENDERSTATETYPE@@K@Z ; CStateManager::SetRenderState

; 33   : 	STATEMANAGER.SetRenderState(D3DRS_SRCBLEND,	D3DBLEND_SRCALPHA);

  0007e	8b 0d 00 00 00
	00		 mov	 ecx, DWORD PTR ?ms_singleton@?$CSingleton@VCStateManager@@@@0PAVCStateManager@@A ; CSingleton<CStateManager>::ms_singleton
  00084	6a 05		 push	 5
  00086	6a 13		 push	 19			; 00000013H
  00088	e8 00 00 00 00	 call	 ?SetRenderState@CStateManager@@QAEXW4_D3DRENDERSTATETYPE@@K@Z ; CStateManager::SetRenderState

; 34   : 	STATEMANAGER.SetRenderState(D3DRS_DESTBLEND, D3DBLEND_INVSRCALPHA);

  0008d	8b 0d 00 00 00
	00		 mov	 ecx, DWORD PTR ?ms_singleton@?$CSingleton@VCStateManager@@@@0PAVCStateManager@@A ; CSingleton<CStateManager>::ms_singleton
  00093	6a 06		 push	 6
  00095	6a 14		 push	 20			; 00000014H
  00097	e8 00 00 00 00	 call	 ?SetRenderState@CStateManager@@QAEXW4_D3DRENDERSTATETYPE@@K@Z ; CStateManager::SetRenderState

; 35   : 
; 36   : 	CPythonGraphic::Instance().SetBlendOperation();

  0009c	8b 0d 00 00 00
	00		 mov	 ecx, DWORD PTR ?ms_singleton@?$CSingleton@VCPythonGraphic@@@@0PAVCPythonGraphic@@A ; CSingleton<CPythonGraphic>::ms_singleton
  000a2	e8 00 00 00 00	 call	 ?SetBlendOperation@CScreen@@QAEXXZ ; CScreen::SetBlendOperation

; 37   : 	CPythonGraphic::Instance().SetOrtho2D(ms_iWidth, ms_iHeight, GetOrthoDepth());

  000a7	8b ce		 mov	 ecx, esi
  000a9	e8 00 00 00 00	 call	 ?GetOrthoDepth@CPythonGraphic@@QAEMXZ ; CPythonGraphic::GetOrthoDepth
  000ae	66 0f 6e 05 00
	00 00 00	 movd	 xmm0, DWORD PTR ?ms_iHeight@CGraphicBase@@1HA ; CGraphicBase::ms_iHeight
  000b6	83 ec 0c	 sub	 esp, 12			; 0000000cH
  000b9	8b 0d 00 00 00
	00		 mov	 ecx, DWORD PTR ?ms_singleton@?$CSingleton@VCPythonGraphic@@@@0PAVCPythonGraphic@@A ; CSingleton<CPythonGraphic>::ms_singleton
  000bf	0f 5b c0	 cvtdq2ps xmm0, xmm0
  000c2	d9 5c 24 08	 fstp	 DWORD PTR [esp+8]
  000c6	f3 0f 11 44 24
	04		 movss	 DWORD PTR [esp+4], xmm0
  000cc	66 0f 6e 05 00
	00 00 00	 movd	 xmm0, DWORD PTR ?ms_iWidth@CGraphicBase@@1HA ; CGraphicBase::ms_iWidth
  000d4	0f 5b c0	 cvtdq2ps xmm0, xmm0
  000d7	f3 0f 11 04 24	 movss	 DWORD PTR [esp], xmm0
  000dc	e8 00 00 00 00	 call	 ?SetOrtho2D@CGraphicBase@@QAEXMMM@Z ; CGraphicBase::SetOrtho2D

; 38   : 
; 39   : 	STATEMANAGER.SetRenderState(D3DRS_LIGHTING, FALSE);

  000e1	8b 0d 00 00 00
	00		 mov	 ecx, DWORD PTR ?ms_singleton@?$CSingleton@VCStateManager@@@@0PAVCStateManager@@A ; CSingleton<CStateManager>::ms_singleton
  000e7	6a 00		 push	 0
  000e9	68 89 00 00 00	 push	 137			; 00000089H
  000ee	e8 00 00 00 00	 call	 ?SetRenderState@CStateManager@@QAEXW4_D3DRENDERSTATETYPE@@K@Z ; CStateManager::SetRenderState
  000f3	5e		 pop	 esi

; 40   : }

  000f4	c3		 ret	 0
?SetInterfaceRenderState@CPythonGraphic@@QAEXXZ ENDP	; CPythonGraphic::SetInterfaceRenderState
_TEXT	ENDS
; Function compile flags: /Ogtp
; File C:\DS Project\DS Files\Source\ClientSource\Client\eterPythonLib\PythonGraphic.cpp
;	COMDAT ?GetOrthoDepth@CPythonGraphic@@QAEMXZ
_TEXT	SEGMENT
?GetOrthoDepth@CPythonGraphic@@QAEMXZ PROC		; CPythonGraphic::GetOrthoDepth, COMDAT
; _this$ = ecx

; 19   : 	return m_fOrthoDepth;

  00000	d9 81 9c 00 00
	00		 fld	 DWORD PTR [ecx+156]

; 20   : }

  00006	c3		 ret	 0
?GetOrthoDepth@CPythonGraphic@@QAEMXZ ENDP		; CPythonGraphic::GetOrthoDepth
_TEXT	ENDS
; Function compile flags: /Ogtp
; File C:\DS Project\DS Files\Source\ClientSource\Client\eterPythonLib\PythonGraphic.cpp
;	COMDAT ?GetD3D@CPythonGraphic@@QAEPAUIDirect3D8@@XZ
_TEXT	SEGMENT
?GetD3D@CPythonGraphic@@QAEPAUIDirect3D8@@XZ PROC	; CPythonGraphic::GetD3D, COMDAT
; _this$ = ecx

; 14   : 	return ms_lpd3d;

  00000	a1 00 00 00 00	 mov	 eax, DWORD PTR ?ms_lpd3d@CGraphicBase@@1PAUIDirect3D8@@A ; CGraphicBase::ms_lpd3d

; 15   : }

  00005	c3		 ret	 0
?GetD3D@CPythonGraphic@@QAEPAUIDirect3D8@@XZ ENDP	; CPythonGraphic::GetD3D
_TEXT	ENDS
; Function compile flags: /Ogtp
; File C:\DS Project\DS Files\Source\ClientSource\Client\eterPythonLib\PythonGraphic.cpp
; File C:\Program Files (x86)\Microsoft Visual Studio\2019\Community\VC\Tools\MSVC\14.27.29110\include\deque
; File C:\DS Project\DS Files\Source\ClientSource\Client\eterPythonLib\PythonGraphic.cpp
; File C:\Program Files (x86)\Microsoft Visual Studio\2019\Community\VC\Tools\MSVC\14.27.29110\include\deque
; File C:\Program Files (x86)\Microsoft Visual Studio\2019\Community\VC\Tools\MSVC\14.27.29110\include\stack
; File C:\DS Project\DS Files\Source\ClientSource\Client\eterPythonLib\PythonGraphic.cpp
; File C:\Program Files (x86)\Microsoft Visual Studio\2019\Community\VC\Tools\MSVC\14.27.29110\include\deque
; File C:\DS Project\DS Files\Source\ClientSource\Client\eterPythonLib\PythonGraphic.cpp
;	COMDAT ?PopState@CPythonGraphic@@QAEXXZ
_TEXT	SEGMENT
?PopState@CPythonGraphic@@QAEXXZ PROC			; CPythonGraphic::PopState, COMDAT
; _this$ = ecx

; 400  : {

  00000	55		 push	 ebp
  00001	8b ec		 mov	 ebp, esp
  00003	83 ec 08	 sub	 esp, 8
  00006	56		 push	 esi
  00007	8b f1		 mov	 esi, ecx
; File C:\Program Files (x86)\Microsoft Visual Studio\2019\Community\VC\Tools\MSVC\14.27.29110\include\deque

; 1009 :         return _Mysize() == 0;

  00009	83 7e 20 00	 cmp	 DWORD PTR [esi+32], 0
; File C:\DS Project\DS Files\Source\ClientSource\Client\eterPythonLib\PythonGraphic.cpp

; 401  : 	if (m_stateStack.empty())

  0000d	74 7e		 je	 SHORT $LN33@PopState
; File C:\Program Files (x86)\Microsoft Visual Studio\2019\Community\VC\Tools\MSVC\14.27.29110\include\deque

; 921  :         return _Unchecked_iterator(_Myoff() + _Mysize(), _STD addressof(_Get_data()));

  0000f	8b 46 20	 mov	 eax, DWORD PTR [esi+32]
  00012	03 46 1c	 add	 eax, DWORD PTR [esi+28]

; 547  :         return (_Off / _DEQUESIZ) & (_Mapsize - 1);

  00015	8b 4e 18	 mov	 ecx, DWORD PTR [esi+24]

; 97   :         _Myoff -= _Off;

  00018	48		 dec	 eax

; 547  :         return (_Off / _DEQUESIZ) & (_Mapsize - 1);

  00019	49		 dec	 ecx
  0001a	23 c8		 and	 ecx, eax
; File C:\Program Files (x86)\Microsoft Visual Studio\2019\Community\VC\Tools\MSVC\14.27.29110\include\stack

; 102  :         return c.back();

  0001c	8b 46 14	 mov	 eax, DWORD PTR [esi+20]
  0001f	8b 04 88	 mov	 eax, DWORD PTR [eax+ecx*4]
; File C:\DS Project\DS Files\Source\ClientSource\Client\eterPythonLib\PythonGraphic.cpp

; 413  : 	UpdatePipeLineMatrix();

  00022	8b ce		 mov	 ecx, esi
  00024	0f 10 40 40	 movups	 xmm0, XMMWORD PTR [eax+64]
  00028	0f 11 05 00 00
	00 00		 movups	 XMMWORD PTR ?ms_matProj@CGraphicBase@@1UD3DXMATRIX@@A, xmm0
  0002f	0f 10 40 50	 movups	 xmm0, XMMWORD PTR [eax+80]
  00033	0f 11 05 10 00
	00 00		 movups	 XMMWORD PTR ?ms_matProj@CGraphicBase@@1UD3DXMATRIX@@A+16, xmm0
  0003a	0f 10 40 60	 movups	 xmm0, XMMWORD PTR [eax+96]
  0003e	0f 11 05 20 00
	00 00		 movups	 XMMWORD PTR ?ms_matProj@CGraphicBase@@1UD3DXMATRIX@@A+32, xmm0
  00045	0f 10 40 70	 movups	 xmm0, XMMWORD PTR [eax+112]
  00049	0f 11 05 30 00
	00 00		 movups	 XMMWORD PTR ?ms_matProj@CGraphicBase@@1UD3DXMATRIX@@A+48, xmm0
  00050	0f 10 00	 movups	 xmm0, XMMWORD PTR [eax]
  00053	0f 11 05 00 00
	00 00		 movups	 XMMWORD PTR ?ms_matView@CGraphicBase@@1UD3DXMATRIX@@A, xmm0
  0005a	0f 10 40 10	 movups	 xmm0, XMMWORD PTR [eax+16]
  0005e	0f 11 05 10 00
	00 00		 movups	 XMMWORD PTR ?ms_matView@CGraphicBase@@1UD3DXMATRIX@@A+16, xmm0
  00065	0f 10 40 20	 movups	 xmm0, XMMWORD PTR [eax+32]
  00069	0f 11 05 20 00
	00 00		 movups	 XMMWORD PTR ?ms_matView@CGraphicBase@@1UD3DXMATRIX@@A+32, xmm0
  00070	0f 10 40 30	 movups	 xmm0, XMMWORD PTR [eax+48]
  00074	0f 11 05 30 00
	00 00		 movups	 XMMWORD PTR ?ms_matView@CGraphicBase@@1UD3DXMATRIX@@A+48, xmm0
  0007b	e8 00 00 00 00	 call	 ?UpdatePipeLineMatrix@CGraphicBase@@IAEXXZ ; CGraphicBase::UpdatePipeLineMatrix
; File C:\Program Files (x86)\Microsoft Visual Studio\2019\Community\VC\Tools\MSVC\14.27.29110\include\deque

; 1143 :         if (--_Mysize() == 0) {

  00080	83 46 20 ff	 add	 DWORD PTR [esi+32], -1
  00084	75 07		 jne	 SHORT $LN33@PopState

; 1144 :             _Myoff() = 0;

  00086	c7 46 1c 00 00
	00 00		 mov	 DWORD PTR [esi+28], 0
$LN33@PopState:
  0008d	5e		 pop	 esi
; File C:\DS Project\DS Files\Source\ClientSource\Client\eterPythonLib\PythonGraphic.cpp

; 417  : }

  0008e	8b e5		 mov	 esp, ebp
  00090	5d		 pop	 ebp
  00091	c3		 ret	 0
?PopState@CPythonGraphic@@QAEXXZ ENDP			; CPythonGraphic::PopState
_TEXT	ENDS
; Function compile flags: /Ogtp
; File C:\DS Project\DS Files\Source\ClientSource\Client\eterPythonLib\PythonGraphic.cpp
; File C:\Program Files (x86)\Microsoft Visual Studio\2019\Community\VC\Tools\MSVC\14.27.29110\include\deque
; File C:\Program Files (x86)\Microsoft Visual Studio\2019\Community\VC\Tools\MSVC\14.27.29110\include\stack
; File C:\Program Files (x86)\Microsoft Visual Studio\2019\Community\VC\Tools\MSVC\14.27.29110\include\deque
; File C:\DS Project\DS Files\Source\ClientSource\Client\eterPythonLib\PythonGraphic.cpp
; File C:\Program Files (x86)\Microsoft Visual Studio\2019\Community\VC\Tools\MSVC\14.27.29110\include\deque
; File C:\DS Project\DS Files\Source\ClientSource\Client\eterPythonLib\PythonGraphic.cpp
;	COMDAT ?PushState@CPythonGraphic@@QAEXXZ
_TEXT	SEGMENT
_curState$ = -128					; size = 128
?PushState@CPythonGraphic@@QAEXXZ PROC			; CPythonGraphic::PushState, COMDAT
; _this$ = ecx

; 388  : {

  00000	55		 push	 ebp
  00001	8b ec		 mov	 ebp, esp
  00003	81 ec 80 00 00
	00		 sub	 esp, 128		; 00000080H

; 391  : 	curState.matProj = ms_matProj;

  00009	0f 10 05 00 00
	00 00		 movups	 xmm0, XMMWORD PTR ?ms_matProj@CGraphicBase@@1UD3DXMATRIX@@A
; File C:\Program Files (x86)\Microsoft Visual Studio\2019\Community\VC\Tools\MSVC\14.27.29110\include\deque

; 1122 :         _Emplace_back_internal(_Val);

  00010	8d 45 80	 lea	 eax, DWORD PTR _curState$[ebp]
; File C:\Program Files (x86)\Microsoft Visual Studio\2019\Community\VC\Tools\MSVC\14.27.29110\include\stack

; 110  :         c.push_back(_Val);

  00013	83 c1 10	 add	 ecx, 16			; 00000010H
; File C:\Program Files (x86)\Microsoft Visual Studio\2019\Community\VC\Tools\MSVC\14.27.29110\include\deque

; 1122 :         _Emplace_back_internal(_Val);

  00016	50		 push	 eax
; File C:\DS Project\DS Files\Source\ClientSource\Client\eterPythonLib\PythonGraphic.cpp

; 391  : 	curState.matProj = ms_matProj;

  00017	0f 11 45 c0	 movups	 XMMWORD PTR _curState$[ebp+64], xmm0
  0001b	0f 10 05 10 00
	00 00		 movups	 xmm0, XMMWORD PTR ?ms_matProj@CGraphicBase@@1UD3DXMATRIX@@A+16
  00022	0f 11 45 d0	 movups	 XMMWORD PTR _curState$[ebp+80], xmm0
  00026	0f 10 05 20 00
	00 00		 movups	 xmm0, XMMWORD PTR ?ms_matProj@CGraphicBase@@1UD3DXMATRIX@@A+32
  0002d	0f 11 45 e0	 movups	 XMMWORD PTR _curState$[ebp+96], xmm0
  00031	0f 10 05 30 00
	00 00		 movups	 xmm0, XMMWORD PTR ?ms_matProj@CGraphicBase@@1UD3DXMATRIX@@A+48
  00038	0f 11 45 f0	 movups	 XMMWORD PTR _curState$[ebp+112], xmm0

; 392  : 	curState.matView = ms_matView;

  0003c	0f 10 05 00 00
	00 00		 movups	 xmm0, XMMWORD PTR ?ms_matView@CGraphicBase@@1UD3DXMATRIX@@A
  00043	0f 11 45 80	 movups	 XMMWORD PTR _curState$[ebp], xmm0
  00047	0f 10 05 10 00
	00 00		 movups	 xmm0, XMMWORD PTR ?ms_matView@CGraphicBase@@1UD3DXMATRIX@@A+16
  0004e	0f 11 45 90	 movups	 XMMWORD PTR _curState$[ebp+16], xmm0
  00052	0f 10 05 20 00
	00 00		 movups	 xmm0, XMMWORD PTR ?ms_matView@CGraphicBase@@1UD3DXMATRIX@@A+32
  00059	0f 11 45 a0	 movups	 XMMWORD PTR _curState$[ebp+32], xmm0
  0005d	0f 10 05 30 00
	00 00		 movups	 xmm0, XMMWORD PTR ?ms_matView@CGraphicBase@@1UD3DXMATRIX@@A+48
  00064	0f 11 45 b0	 movups	 XMMWORD PTR _curState$[ebp+48], xmm0
; File C:\Program Files (x86)\Microsoft Visual Studio\2019\Community\VC\Tools\MSVC\14.27.29110\include\deque

; 1122 :         _Emplace_back_internal(_Val);

  00068	e8 00 00 00 00	 call	 ??$_Emplace_back_internal@ABUSState@CPythonGraphic@@@?$deque@USState@CPythonGraphic@@V?$allocator@USState@CPythonGraphic@@@std@@@std@@AAEXABUSState@CPythonGraphic@@@Z ; std::deque<CPythonGraphic::SState,std::allocator<CPythonGraphic::SState> >::_Emplace_back_internal<CPythonGraphic::SState const &>
; File C:\DS Project\DS Files\Source\ClientSource\Client\eterPythonLib\PythonGraphic.cpp

; 397  : }

  0006d	8b e5		 mov	 esp, ebp
  0006f	5d		 pop	 ebp
  00070	c3		 ret	 0
?PushState@CPythonGraphic@@QAEXXZ ENDP			; CPythonGraphic::PushState
_TEXT	ENDS
; Function compile flags: /Ogtp
; File C:\DS Project\DS Files\Source\ClientSource\Client\eterPythonLib\PythonGraphic.cpp
;	COMDAT ?Destroy@CPythonGraphic@@QAEXXZ
_TEXT	SEGMENT
?Destroy@CPythonGraphic@@QAEXXZ PROC			; CPythonGraphic::Destroy, COMDAT
; _this$ = ecx

; 10   : }

  00000	c2 00 00	 ret	 0
?Destroy@CPythonGraphic@@QAEXXZ ENDP			; CPythonGraphic::Destroy
_TEXT	ENDS
; Function compile flags: /Ogtp
; File C:\DS Project\DS Files\Source\ClientSource\Client\eterPythonLib\PythonGraphic.cpp
; File C:\DS Project\DS Files\Source\ClientSource\Client\eterBase\Singleton.h
; File C:\DS Project\DS Files\Source\ClientSource\Client\eterPythonLib\PythonGraphic.cpp
; File C:\DS Project\DS Files\Source\ClientSource\Client\eterBase\Singleton.h
; File C:\DS Project\DS Files\Source\ClientSource\Client\eterPythonLib\PythonGraphic.cpp
;	COMDAT ??1CPythonGraphic@@UAE@XZ
_TEXT	SEGMENT
__$EHRec$ = -12						; size = 12
??1CPythonGraphic@@UAE@XZ PROC				; CPythonGraphic::~CPythonGraphic, COMDAT
; _this$ = ecx

; 622  : {

  00000	55		 push	 ebp
  00001	8b ec		 mov	 ebp, esp
  00003	6a ff		 push	 -1
  00005	68 00 00 00 00	 push	 __ehhandler$??1CPythonGraphic@@UAE@XZ
  0000a	64 a1 00 00 00
	00		 mov	 eax, DWORD PTR fs:0
  00010	50		 push	 eax
  00011	56		 push	 esi
  00012	a1 00 00 00 00	 mov	 eax, DWORD PTR ___security_cookie
  00017	33 c5		 xor	 eax, ebp
  00019	50		 push	 eax
  0001a	8d 45 f4	 lea	 eax, DWORD PTR __$EHRec$[ebp]
  0001d	64 a3 00 00 00
	00		 mov	 DWORD PTR fs:0, eax
  00023	8b f1		 mov	 esi, ecx

; 623  : 	Tracef("Python Graphic Clear\n");

  00025	68 00 00 00 00	 push	 OFFSET ??_C@_0BG@PCGMMCML@Python?5Graphic?5Clear?6@
  0002a	c7 06 00 00 00
	00		 mov	 DWORD PTR [esi], OFFSET ??_7CPythonGraphic@@6BCScreen@@@
  00030	c7 46 04 00 00
	00 00		 mov	 DWORD PTR [esi+4], OFFSET ??_7CPythonGraphic@@6B?$CSingleton@VCPythonGraphic@@@@@
  00037	e8 00 00 00 00	 call	 ?Tracef@@YAXPBDZZ	; Tracef
  0003c	83 c4 04	 add	 esp, 4

; 624  : }

  0003f	8d 4e 64	 lea	 ecx, DWORD PTR [esi+100]
  00042	e8 00 00 00 00	 call	 ??1CCullingManager@@UAE@XZ ; CCullingManager::~CCullingManager
  00047	8d 4e 10	 lea	 ecx, DWORD PTR [esi+16]
  0004a	e8 00 00 00 00	 call	 ??1?$deque@USState@CPythonGraphic@@V?$allocator@USState@CPythonGraphic@@@std@@@std@@QAE@XZ ; std::deque<CPythonGraphic::SState,std::allocator<CPythonGraphic::SState> >::~deque<CPythonGraphic::SState,std::allocator<CPythonGraphic::SState> >
; File C:\DS Project\DS Files\Source\ClientSource\Client\eterBase\Singleton.h

; 19   : 	{

  0004f	c7 46 04 00 00
	00 00		 mov	 DWORD PTR [esi+4], OFFSET ??_7?$CSingleton@VCPythonGraphic@@@@6B@
; File C:\DS Project\DS Files\Source\ClientSource\Client\eterPythonLib\PythonGraphic.cpp

; 624  : }

  00056	8b ce		 mov	 ecx, esi
; File C:\DS Project\DS Files\Source\ClientSource\Client\eterBase\Singleton.h

; 21   : 		ms_singleton = 0;

  00058	c7 05 00 00 00
	00 00 00 00 00	 mov	 DWORD PTR ?ms_singleton@?$CSingleton@VCPythonGraphic@@@@0PAVCPythonGraphic@@A, 0 ; CSingleton<CPythonGraphic>::ms_singleton
; File C:\DS Project\DS Files\Source\ClientSource\Client\eterPythonLib\PythonGraphic.cpp

; 624  : }

  00062	e8 00 00 00 00	 call	 ??1CScreen@@UAE@XZ	; CScreen::~CScreen
  00067	8b 4d f4	 mov	 ecx, DWORD PTR __$EHRec$[ebp]
  0006a	64 89 0d 00 00
	00 00		 mov	 DWORD PTR fs:0, ecx
  00071	59		 pop	 ecx
  00072	5e		 pop	 esi
  00073	8b e5		 mov	 esp, ebp
  00075	5d		 pop	 ebp
  00076	c3		 ret	 0
  00077	cc		 int	 3
  00078	cc		 int	 3
  00079	cc		 int	 3
  0007a	cc		 int	 3
  0007b	cc		 int	 3
_TEXT	ENDS
;	COMDAT text$x
text$x	SEGMENT
__ehhandler$??1CPythonGraphic@@UAE@XZ:
  00000	90		 npad	 1
  00001	90		 npad	 1
  00002	8b 54 24 08	 mov	 edx, DWORD PTR [esp+8]
  00006	8d 42 0c	 lea	 eax, DWORD PTR [edx+12]
  00009	8b 4a f8	 mov	 ecx, DWORD PTR [edx-8]
  0000c	33 c8		 xor	 ecx, eax
  0000e	e8 00 00 00 00	 call	 @__security_check_cookie@4
  00013	b8 00 00 00 00	 mov	 eax, OFFSET __ehfuncinfo$??1CPythonGraphic@@UAE@XZ
  00018	e9 00 00 00 00	 jmp	 ___CxxFrameHandler3
text$x	ENDS
??1CPythonGraphic@@UAE@XZ ENDP				; CPythonGraphic::~CPythonGraphic
; Function compile flags: /Ogtp
; File C:\DS Project\DS Files\Source\ClientSource\Client\eterPythonLib\PythonGraphic.cpp
; File C:\DS Project\DS Files\Source\ClientSource\Client\eterBase\Singleton.h
; File C:\DS Project\DS Files\Source\ClientSource\Client\eterPythonLib\PythonGraphic.cpp
; File C:\DS Project\DS Files\Source\ClientSource\Client\eterBase\Singleton.h
; File C:\DS Project\DS Files\Source\ClientSource\Client\eterPythonLib\PythonGraphic.cpp
; File C:\Program Files (x86)\Microsoft Visual Studio\2019\Community\VC\Tools\MSVC\14.27.29110\include\xmemory
; File C:\DS Project\DS Files\Source\ClientSource\Client\eterPythonLib\PythonGraphic.cpp
; File C:\Program Files (x86)\Microsoft Visual Studio\2019\Community\VC\Tools\MSVC\14.27.29110\include\xmemory
; File C:\Program Files (x86)\Microsoft Visual Studio\2019\Community\VC\Tools\MSVC\14.27.29110\include\deque
; File C:\Program Files (x86)\Microsoft Visual Studio\2019\Community\VC\Tools\MSVC\14.27.29110\include\xmemory
; File C:\DS Project\DS Files\Source\ClientSource\Client\eterPythonLib\PythonGraphic.cpp
;	COMDAT ??0CPythonGraphic@@QAE@XZ
_TEXT	SEGMENT
_this$ = -20						; size = 4
$T2 = -16						; size = 4
__$EHRec$ = -12						; size = 12
