; Listing generated by Microsoft (R) Optimizing Compiler Version 19.27.29112.0 

	TITLE	C:\DS Project\DS Files\Source\ClientSource\Client\eterPythonLib\PythonGraphicModule.cpp
	.686P
	.XMM
	include listing.inc
	.model	flat

INCLUDELIB LIBCMT
INCLUDELIB OLDNAMES

PUBLIC	___local_stdio_printf_options
PUBLIC	_sprintf
PUBLIC	__snprintf
PUBLIC	?initgrp@@YAXXZ					; initgrp
PUBLIC	?grpCreateTextBar@@YAPAU_object@@PAU1@0@Z	; grpCreateTextBar
PUBLIC	?grpCreateBigTextBar@@YAPAU_object@@PAU1@0@Z	; grpCreateBigTextBar
PUBLIC	?grpDestroyTextBar@@YAPAU_object@@PAU1@0@Z	; grpDestroyTextBar
PUBLIC	?grpRenderTextBar@@YAPAU_object@@PAU1@0@Z	; grpRenderTextBar
PUBLIC	?grpTextBarSetTextColor@@YAPAU_object@@PAU1@0@Z	; grpTextBarSetTextColor
PUBLIC	?grpTextBarGetTextExtent@@YAPAU_object@@PAU1@0@Z ; grpTextBarGetTextExtent
PUBLIC	?grpTextBarTextOut@@YAPAU_object@@PAU1@0@Z	; grpTextBarTextOut
PUBLIC	?grpClearTextBar@@YAPAU_object@@PAU1@0@Z	; grpClearTextBar
PUBLIC	?grpSetTextBarClipRect@@YAPAU_object@@PAU1@0@Z	; grpSetTextBarClipRect
PUBLIC	?grpCulling@@YAPAU_object@@PAU1@0@Z		; grpCulling
PUBLIC	?grpInitScreenEffect@@YAPAU_object@@PAU1@0@Z	; grpInitScreenEffect
PUBLIC	?grpClearDepthBuffer@@YAPAU_object@@PAU1@0@Z	; grpClearDepthBuffer
PUBLIC	?grpPushState@@YAPAU_object@@PAU1@0@Z		; grpPushState
PUBLIC	?grpPopState@@YAPAU_object@@PAU1@0@Z		; grpPopState
PUBLIC	?grpPushMatrix@@YAPAU_object@@PAU1@0@Z		; grpPushMatrix
PUBLIC	?grpPopMatrix@@YAPAU_object@@PAU1@0@Z		; grpPopMatrix
PUBLIC	?grpTranslate@@YAPAU_object@@PAU1@0@Z		; grpTranslate
PUBLIC	?grpRotate@@YAPAU_object@@PAU1@0@Z		; grpRotate
PUBLIC	?grpSetColorRenderState@@YAPAU_object@@PAU1@0@Z	; grpSetColorRenderState
PUBLIC	?grpSetAroundCamera@@YAPAU_object@@PAU1@0@Z	; grpSetAroundCamera
PUBLIC	?grpSetPositionCamera@@YAPAU_object@@PAU1@0@Z	; grpSetPositionCamera
PUBLIC	?grpSetEyeCamera@@YAPAU_object@@PAU1@0@Z	; grpSetEyeCamera
PUBLIC	?grpSetPerspective@@YAPAU_object@@PAU1@0@Z	; grpSetPerspective
PUBLIC	?grpSetOrtho2D@@YAPAU_object@@PAU1@0@Z		; grpSetOrtho2D
PUBLIC	?grpSetOrtho3D@@YAPAU_object@@PAU1@0@Z		; grpSetOrtho3D
PUBLIC	?grpGenerateColor@@YAPAU_object@@PAU1@0@Z	; grpGenerateColor
PUBLIC	?grpSetColor@@YAPAU_object@@PAU1@0@Z		; grpSetColor
PUBLIC	?grpSetAlpha@@YAPAU_object@@PAU1@0@Z		; grpSetAlpha
PUBLIC	?grpGetCursorPosition3d@@YAPAU_object@@PAU1@0@Z	; grpGetCursorPosition3d
PUBLIC	?grpSetCursorPosition@@YAPAU_object@@PAU1@0@Z	; grpSetCursorPosition
PUBLIC	?grpRenderLine@@YAPAU_object@@PAU1@0@Z		; grpRenderLine
PUBLIC	?grpRenderRoundBox@@YAPAU_object@@PAU1@0@Z	; grpRenderRoundBox
PUBLIC	?grpRenderBox@@YAPAU_object@@PAU1@0@Z		; grpRenderBox
PUBLIC	?grpRenderBar@@YAPAU_object@@PAU1@0@Z		; grpRenderBar
PUBLIC	?grpRenderCube@@YAPAU_object@@PAU1@0@Z		; grpRenderCube
PUBLIC	?grpRenderBar3d@@YAPAU_object@@PAU1@0@Z		; grpRenderBar3d
PUBLIC	?grpRenderGradationBar@@YAPAU_object@@PAU1@0@Z	; grpRenderGradationBar
PUBLIC	?grpRenderDownButton@@YAPAU_object@@PAU1@0@Z	; grpRenderDownButton
PUBLIC	?grpRenderUpButton@@YAPAU_object@@PAU1@0@Z	; grpRenderUpButton
PUBLIC	?grpRenderBox3d@@YAPAU_object@@PAU1@0@Z		; grpRenderBox3d
PUBLIC	?grpSetClearColor@@YAPAU_object@@PAU1@0@Z	; grpSetClearColor
PUBLIC	?grpSetDiffuseColor@@YAPAU_object@@PAU1@0@Z	; grpSetDiffuseColor
PUBLIC	?grpIdentity@@YAPAU_object@@PAU1@0@Z		; grpIdentity
PUBLIC	?grpGetAvailableMemory@@YAPAU_object@@PAU1@0@Z	; grpGetAvailableMemory
PUBLIC	?grpSaveScreenShotToPath@@YAPAU_object@@PAU1@0@Z ; grpSaveScreenShotToPath
PUBLIC	?grpSaveScreenShot@@YAPAU_object@@PAU1@0@Z	; grpSaveScreenShot
PUBLIC	?grpSetGamma@@YAPAU_object@@PAU1@0@Z		; grpSetGamma
PUBLIC	?grpSetInterfaceRenderState@@YAPAU_object@@PAU1@0@Z ; grpSetInterfaceRenderState
PUBLIC	?grpSetGameRenderState@@YAPAU_object@@PAU1@0@Z	; grpSetGameRenderState
PUBLIC	?grpSetViewport@@YAPAU_object@@PAU1@0@Z		; grpSetViewport
PUBLIC	?grpRestoreViewport@@YAPAU_object@@PAU1@0@Z	; grpRestoreViewport
PUBLIC	?grpSetOmniLight@@YAPAU_object@@PAU1@0@Z	; grpSetOmniLight
PUBLIC	?grpGetCameraPosition@@YAPAU_object@@PAU1@0@Z	; grpGetCameraPosition
PUBLIC	?grpGetTargetPosition@@YAPAU_object@@PAU1@0@Z	; grpGetTargetPosition
PUBLIC	?_OptionsStorage@?1??__local_stdio_printf_options@@9@4_KA ; `__local_stdio_printf_options'::`2'::_OptionsStorage
PUBLIC	??_C@_00CNPNBAHC@@				; `string'
PUBLIC	?ms_singleton@?$CSingleton@VCCullingManager@@@@0PAVCCullingManager@@A ; CSingleton<CCullingManager>::ms_singleton
PUBLIC	?ms_singleton@?$CSingleton@VCPythonGraphic@@@@0PAVCPythonGraphic@@A ; CSingleton<CPythonGraphic>::ms_singleton
PUBLIC	?ms_singleton@?$CSingleton@VCCameraManager@@@@0PAVCCameraManager@@A ; CSingleton<CCameraManager>::ms_singleton
PUBLIC	??_C@_01KBJDNOO@i@				; `string'
PUBLIC	??_C@_02PDIHAGKM@ii@				; `string'
PUBLIC	??_C@_0BG@LCHGAFDO@grp?4Translate?3Wrong?5X@	; `string'
PUBLIC	??_C@_0BG@KLGNDEHP@grp?4Translate?3Wrong?5Y@	; `string'
PUBLIC	??_C@_0BG@IAEAGHLM@grp?4Translate?3Wrong?5Z@	; `string'
PUBLIC	??_C@_01HHGOMJKL@l@				; `string'
PUBLIC	??_C@_05KFOBNLEM@?$CIfff?$CJ@			; `string'
PUBLIC	??_C@_0BM@PKDBOENC@?$CFs?$CF02d?$CF02d_?$CF02d?$CF02d?$CF02d?4jpg@ ; `string'
PUBLIC	??_C@_04JMLDJNEM@?$CIis?$CJ@			; `string'
PUBLIC	??_C@_08KBONKIKA@?2METIN2?2@			; `string'
PUBLIC	??_C@_0CB@MCALMLJH@Failed?5to?5create?5directory?5?$FL?$CFs?$FN@ ; `string'
PUBLIC	??_C@_0BK@BHNKPMOJ@?$CF02d?$CF02d_?$CF02d?$CF02d?$CF02d?4jpg@ ; `string'
PUBLIC	??_C@_03LPALPDIP@fff@				; `string'
PUBLIC	??_C@_0BB@KOODLHHI@InitScreenEffect@		; `string'
PUBLIC	??_C@_07IOLAOMLK@Culling@			; `string'
PUBLIC	??_C@_0BB@IFNDOIJA@ClearDepthBuffer@		; `string'
PUBLIC	??_C@_08DDGPABJB@Identity@			; `string'
PUBLIC	??_C@_0O@MOAEMMO@GenerateColor@			; `string'
PUBLIC	??_C@_08MAKHDLEF@PopState@			; `string'
PUBLIC	??_C@_09MLHDPAPE@PushState@			; `string'
PUBLIC	??_C@_0L@LNHGHMPK@PushMatrix@			; `string'
PUBLIC	??_C@_09BBLCLCL@PopMatrix@			; `string'
PUBLIC	??_C@_09KMILOHFO@Translate@			; `string'
PUBLIC	??_C@_06OLMBOMJH@Rotate@			; `string'
PUBLIC	??_C@_0BE@DBBIDKJI@SetColorRenderState@		; `string'
PUBLIC	??_C@_0BA@DLALGBBE@SetAroundCamera@		; `string'
PUBLIC	??_C@_0BC@FJHFAPLD@SetPositionCamera@		; `string'
PUBLIC	??_C@_0N@PGNLCOBA@SetEyeCamera@			; `string'
PUBLIC	??_C@_0P@BKKFLFGG@SetPerspective@		; `string'
PUBLIC	??_C@_0L@BICFLCML@SetOrtho2d@			; `string'
PUBLIC	??_C@_0L@BJOHNIPM@SetOrtho3d@			; `string'
PUBLIC	??_C@_08GPNJILIJ@SetColor@			; `string'
PUBLIC	??_C@_08BLNOOPGC@SetAlpha@			; `string'
PUBLIC	??_C@_0BA@CAEBLOMF@SetDiffuseColor@		; `string'
PUBLIC	??_C@_0O@JFBMCOI@SetClearColor@			; `string'
PUBLIC	??_C@_0BE@EPLGHCNG@GetCursorPosition3d@		; `string'
PUBLIC	??_C@_0BC@BMJNLHPP@SetCursorPosition@		; `string'
PUBLIC	??_C@_0L@FNOOKKDE@RenderLine@			; `string'
PUBLIC	??_C@_09EDKDBNHL@RenderBox@			; `string'
PUBLIC	??_C@_0P@CKDANCCA@RenderRoundBox@		; `string'
PUBLIC	??_C@_0M@IIHBHKCN@RenderBox3d@			; `string'
PUBLIC	??_C@_09LDNCNIPL@RenderBar@			; `string'
PUBLIC	??_C@_0M@FIPMCECI@RenderBar3d@			; `string'
PUBLIC	??_C@_0BD@CPGFJEEL@RenderGradationBar@		; `string'
PUBLIC	??_C@_0L@MMGLCMKG@RenderCube@			; `string'
PUBLIC	??_C@_0BB@MFONHDMI@RenderDownButton@		; `string'
PUBLIC	??_C@_0P@EGCHHAMC@RenderUpButton@		; `string'
PUBLIC	??_C@_0BD@JHIOAGAP@GetAvailableMemory@		; `string'
PUBLIC	??_C@_0P@PDKBLCOH@SaveScreenShot@		; `string'
PUBLIC	??_C@_0BF@EIHOMNAC@SaveScreenShotToPath@	; `string'
PUBLIC	??_C@_08JBKPIFGH@SetGamma@			; `string'
PUBLIC	??_C@_0BI@MMHBDHLH@SetInterfaceRenderState@	; `string'
PUBLIC	??_C@_0BD@FOOBKHKK@SetGameRenderState@		; `string'
PUBLIC	??_C@_0M@JGBKHEPF@SetViewport@			; `string'
PUBLIC	??_C@_0BA@INPFCPDH@RestoreViewport@		; `string'
PUBLIC	??_C@_0N@OEMNGPDB@SetOmniLight@			; `string'
PUBLIC	??_C@_0BC@JPCBAHEC@GetCameraPosition@		; `string'
PUBLIC	??_C@_0BC@HJEEOBID@GetTargetPosition@		; `string'
PUBLIC	??_C@_0O@IHAJFDDM@CreateTextBar@		; `string'
PUBLIC	??_C@_0BB@NHMJCAIE@CreateBigTextBar@		; `string'
PUBLIC	??_C@_0P@BMMFBFMK@DestroyTextBar@		; `string'
PUBLIC	??_C@_0O@LFMIODIG@RenderTextBar@		; `string'
PUBLIC	??_C@_0P@LEIHKEKD@TextBarTextOut@		; `string'
PUBLIC	??_C@_0BE@JIGPMAIC@TextBarSetTextColor@		; `string'
PUBLIC	??_C@_0BF@GAHBODGD@TextBarGetTextExtent@	; `string'
PUBLIC	??_C@_0N@JKKHKGPO@ClearTextBar@			; `string'
PUBLIC	??_C@_0BD@IHMMAKBI@SetTextBarClipRect@		; `string'
PUBLIC	??_C@_03CKJB@grp@				; `string'
PUBLIC	__real@3f800000
PUBLIC	__real@40000000
PUBLIC	__real@40400000
PUBLIC	__real@40800000
PUBLIC	__xmm@41f00000000000000000000000000000
EXTRN	??2@YAPAXI@Z:PROC				; operator new
EXTRN	??3@YAXPAXI@Z:PROC				; operator delete
EXTRN	__imp__CreateDirectoryA@8:PROC
EXTRN	___stdio_common_vsprintf:PROC
EXTRN	__localtime64:PROC
EXTRN	__time64:PROC
EXTRN	?TraceError@@YAXPBDZZ:PROC			; TraceError
EXTRN	__access:PROC
EXTRN	__imp__Py_BuildValue:PROC
EXTRN	__imp__Py_InitModule4:PROC
EXTRN	?PyTuple_GetString@@YA_NPAU_object@@HPAPAD@Z:PROC ; PyTuple_GetString
EXTRN	?PyTuple_GetInteger@@YA_NPAU_object@@HPAH@Z:PROC ; PyTuple_GetInteger
EXTRN	?PyTuple_GetFloat@@YA_NPAU_object@@HPAM@Z:PROC	; PyTuple_GetFloat
EXTRN	?Py_BuildException@@YAPAU_object@@PBDZZ:PROC	; Py_BuildException
EXTRN	?Py_BadArgument@@YAPAU_object@@XZ:PROC		; Py_BadArgument
EXTRN	?Py_BuildNone@@YAPAU_object@@XZ:PROC		; Py_BuildNone
EXTRN	?SetEyeCamera@CGraphicBase@@QAEXMMMMMMMMM@Z:PROC ; CGraphicBase::SetEyeCamera
EXTRN	?SetAroundCamera@CGraphicBase@@QAEXMMMM@Z:PROC	; CGraphicBase::SetAroundCamera
EXTRN	?SetPositionCamera@CGraphicBase@@QAEXMMMMMM@Z:PROC ; CGraphicBase::SetPositionCamera
EXTRN	?SetOrtho2D@CGraphicBase@@QAEXMMM@Z:PROC	; CGraphicBase::SetOrtho2D
EXTRN	?SetOrtho3D@CGraphicBase@@QAEXMMMM@Z:PROC	; CGraphicBase::SetOrtho3D
EXTRN	?SetPerspective@CGraphicBase@@QAEXMMMM@Z:PROC	; CGraphicBase::SetPerspective
EXTRN	?PushMatrix@CGraphicBase@@QAEXXZ:PROC		; CGraphicBase::PushMatrix
EXTRN	?Translate@CGraphicBase@@QAEXMMM@Z:PROC		; CGraphicBase::Translate
EXTRN	?Rotate@CGraphicBase@@QAEXMMMM@Z:PROC		; CGraphicBase::Rotate
EXTRN	?PopMatrix@CGraphicBase@@QAEXXZ:PROC		; CGraphicBase::PopMatrix
EXTRN	?InitScreenEffect@CGraphicBase@@QAEXXZ:PROC	; CGraphicBase::InitScreenEffect
EXTRN	?GetBackBufferSize@CGraphicBase@@SAXPAI0@Z:PROC	; CGraphicBase::GetBackBufferSize
EXTRN	?ClearDepthBuffer@CScreen@@QAEXXZ:PROC		; CScreen::ClearDepthBuffer
EXTRN	?RenderLine2d@CScreen@@QAEXMMMMM@Z:PROC		; CScreen::RenderLine2d
EXTRN	?RenderBox2d@CScreen@@QAEXMMMMM@Z:PROC		; CScreen::RenderBox2d
EXTRN	?RenderBar2d@CScreen@@QAEXMMMMM@Z:PROC		; CScreen::RenderBar2d
EXTRN	?RenderGradationBar2d@CScreen@@QAEXMMMMKKM@Z:PROC ; CScreen::RenderGradationBar2d
EXTRN	?RenderBox3d@CScreen@@QAEXMMMMMM@Z:PROC		; CScreen::RenderBox3d
EXTRN	?RenderBar3d@CScreen@@QAEXMMMMMM@Z:PROC		; CScreen::RenderBar3d
EXTRN	?RenderCube@CScreen@@QAEXMMMMMM@Z:PROC		; CScreen::RenderCube
EXTRN	?SetDiffuseColor@CScreen@@QAEXK@Z:PROC		; CScreen::SetDiffuseColor
EXTRN	?SetDiffuseColor@CScreen@@QAEXMMMM@Z:PROC	; CScreen::SetDiffuseColor
EXTRN	?SetClearColor@CScreen@@QAEXMMMM@Z:PROC		; CScreen::SetClearColor
EXTRN	?GetCursorPosition@CScreen@@QAE_NPAM00@Z:PROC	; CScreen::GetCursorPosition
EXTRN	?Identity@CScreen@@SAXXZ:PROC			; CScreen::Identity
EXTRN	?Process@CCullingManager@@QAEXXZ:PROC		; CCullingManager::Process
EXTRN	?PushState@CPythonGraphic@@QAEXXZ:PROC		; CPythonGraphic::PushState
EXTRN	?PopState@CPythonGraphic@@QAEXXZ:PROC		; CPythonGraphic::PopState
EXTRN	?SetInterfaceRenderState@CPythonGraphic@@QAEXXZ:PROC ; CPythonGraphic::SetInterfaceRenderState
EXTRN	?SetGameRenderState@CPythonGraphic@@QAEXXZ:PROC	; CPythonGraphic::SetGameRenderState
EXTRN	?SetCursorPosition@CPythonGraphic@@QAEXHH@Z:PROC ; CPythonGraphic::SetCursorPosition
EXTRN	?SetOmniLight@CPythonGraphic@@QAEXXZ:PROC	; CPythonGraphic::SetOmniLight
EXTRN	?SetViewport@CPythonGraphic@@QAEXMMMM@Z:PROC	; CPythonGraphic::SetViewport
EXTRN	?RestoreViewport@CPythonGraphic@@QAEXXZ:PROC	; CPythonGraphic::RestoreViewport
EXTRN	?GenerateColor@CPythonGraphic@@QAEJMMMM@Z:PROC	; CPythonGraphic::GenerateColor
EXTRN	?RenderDownButton@CPythonGraphic@@QAEXMMMM@Z:PROC ; CPythonGraphic::RenderDownButton
EXTRN	?RenderUpButton@CPythonGraphic@@QAEXMMMM@Z:PROC	; CPythonGraphic::RenderUpButton
EXTRN	?SaveScreenShot@CPythonGraphic@@QAE_NPBD@Z:PROC	; CPythonGraphic::SaveScreenShot
EXTRN	?GetAvailableMemory@CPythonGraphic@@QAEKXZ:PROC	; CPythonGraphic::GetAvailableMemory
EXTRN	?SetGamma@CPythonGraphic@@QAEXM@Z:PROC		; CPythonGraphic::SetGamma
EXTRN	?GetCurrentCamera@CCameraManager@@QAEPAVCCamera@@XZ:PROC ; CCameraManager::GetCurrentCamera
EXTRN	?Create@CDibBar@@QAE_NPAUHDC__@@KK@Z:PROC	; CDibBar::Create
EXTRN	?SetClipRect@CDibBar@@QAEXABUtagRECT@@@Z:PROC	; CDibBar::SetClipRect
EXTRN	?ClearBar@CDibBar@@QAEXXZ:PROC			; CDibBar::ClearBar
EXTRN	?Render@CDibBar@@QAEXHH@Z:PROC			; CDibBar::Render
EXTRN	??0CTextBar@@QAE@H_N@Z:PROC			; CTextBar::CTextBar
EXTRN	?TextOutA@CTextBar@@QAEXHHPBD@Z:PROC		; CTextBar::TextOutA
EXTRN	?SetTextColor@CTextBar@@QAEXHHH@Z:PROC		; CTextBar::SetTextColor
EXTRN	?GetTextExtent@CTextBar@@QAEXPBDPAUtagSIZE@@@Z:PROC ; CTextBar::GetTextExtent
EXTRN	__imp__SHGetSpecialFolderPathA@16:PROC
EXTRN	@__security_check_cookie@4:PROC
EXTRN	___CxxFrameHandler3:PROC
EXTRN	___security_cookie:DWORD
EXTRN	__fltused:DWORD
;	COMDAT ?_OptionsStorage@?1??__local_stdio_printf_options@@9@4_KA
_BSS	SEGMENT
?_OptionsStorage@?1??__local_stdio_printf_options@@9@4_KA DQ 01H DUP (?) ; `__local_stdio_printf_options'::`2'::_OptionsStorage
_BSS	ENDS
;	COMDAT ?ms_singleton@?$CSingleton@VCCullingManager@@@@0PAVCCullingManager@@A
_BSS	SEGMENT
?ms_singleton@?$CSingleton@VCCullingManager@@@@0PAVCCullingManager@@A DD 01H DUP (?) ; CSingleton<CCullingManager>::ms_singleton
_BSS	ENDS
;	COMDAT ?ms_singleton@?$CSingleton@VCPythonGraphic@@@@0PAVCPythonGraphic@@A
_BSS	SEGMENT
?ms_singleton@?$CSingleton@VCPythonGraphic@@@@0PAVCPythonGraphic@@A DD 01H DUP (?) ; CSingleton<CPythonGraphic>::ms_singleton
_BSS	ENDS
;	COMDAT ?ms_singleton@?$CSingleton@VCCameraManager@@@@0PAVCCameraManager@@A
_BSS	SEGMENT
?ms_singleton@?$CSingleton@VCCameraManager@@@@0PAVCCameraManager@@A DD 01H DUP (?) ; CSingleton<CCameraManager>::ms_singleton
_BSS	ENDS
;	COMDAT __xmm@41f00000000000000000000000000000
CONST	SEGMENT
__xmm@41f00000000000000000000000000000 DB 00H, 00H, 00H, 00H, 00H, 00H, 00H
	DB	00H, 00H, 00H, 00H, 00H, 00H, 00H, 0f0H, 'A'
CONST	ENDS
;	COMDAT __real@40800000
CONST	SEGMENT
__real@40800000 DD 040800000r			; 4
CONST	ENDS
;	COMDAT __real@40400000
CONST	SEGMENT
__real@40400000 DD 040400000r			; 3
CONST	ENDS
;	COMDAT __real@40000000
CONST	SEGMENT
__real@40000000 DD 040000000r			; 2
CONST	ENDS
;	COMDAT __real@3f800000
CONST	SEGMENT
__real@3f800000 DD 03f800000r			; 1
CONST	ENDS
;	COMDAT ??_C@_03CKJB@grp@
CONST	SEGMENT
??_C@_03CKJB@grp@ DB 'grp', 00H				; `string'
CONST	ENDS
;	COMDAT ??_C@_0BD@IHMMAKBI@SetTextBarClipRect@
CONST	SEGMENT
??_C@_0BD@IHMMAKBI@SetTextBarClipRect@ DB 'SetTextBarClipRect', 00H ; `string'
CONST	ENDS
;	COMDAT ??_C@_0N@JKKHKGPO@ClearTextBar@
CONST	SEGMENT
??_C@_0N@JKKHKGPO@ClearTextBar@ DB 'ClearTextBar', 00H	; `string'
CONST	ENDS
;	COMDAT ??_C@_0BF@GAHBODGD@TextBarGetTextExtent@
CONST	SEGMENT
??_C@_0BF@GAHBODGD@TextBarGetTextExtent@ DB 'TextBarGetTextExtent', 00H ; `string'
CONST	ENDS
;	COMDAT ??_C@_0BE@JIGPMAIC@TextBarSetTextColor@
CONST	SEGMENT
??_C@_0BE@JIGPMAIC@TextBarSetTextColor@ DB 'TextBarSetTextColor', 00H ; `string'
CONST	ENDS
;	COMDAT ??_C@_0P@LEIHKEKD@TextBarTextOut@
CONST	SEGMENT
??_C@_0P@LEIHKEKD@TextBarTextOut@ DB 'TextBarTextOut', 00H ; `string'
CONST	ENDS
;	COMDAT ??_C@_0O@LFMIODIG@RenderTextBar@
CONST	SEGMENT
??_C@_0O@LFMIODIG@RenderTextBar@ DB 'RenderTextBar', 00H ; `string'
CONST	ENDS
;	COMDAT ??_C@_0P@BMMFBFMK@DestroyTextBar@
CONST	SEGMENT
??_C@_0P@BMMFBFMK@DestroyTextBar@ DB 'DestroyTextBar', 00H ; `string'
CONST	ENDS
;	COMDAT ??_C@_0BB@NHMJCAIE@CreateBigTextBar@
CONST	SEGMENT
??_C@_0BB@NHMJCAIE@CreateBigTextBar@ DB 'CreateBigTextBar', 00H ; `string'
CONST	ENDS
;	COMDAT ??_C@_0O@IHAJFDDM@CreateTextBar@
CONST	SEGMENT
??_C@_0O@IHAJFDDM@CreateTextBar@ DB 'CreateTextBar', 00H ; `string'
CONST	ENDS
;	COMDAT ??_C@_0BC@HJEEOBID@GetTargetPosition@
CONST	SEGMENT
??_C@_0BC@HJEEOBID@GetTargetPosition@ DB 'GetTargetPosition', 00H ; `string'
CONST	ENDS
;	COMDAT ??_C@_0BC@JPCBAHEC@GetCameraPosition@
CONST	SEGMENT
??_C@_0BC@JPCBAHEC@GetCameraPosition@ DB 'GetCameraPosition', 00H ; `string'
CONST	ENDS
;	COMDAT ??_C@_0N@OEMNGPDB@SetOmniLight@
CONST	SEGMENT
??_C@_0N@OEMNGPDB@SetOmniLight@ DB 'SetOmniLight', 00H	; `string'
CONST	ENDS
;	COMDAT ??_C@_0BA@INPFCPDH@RestoreViewport@
CONST	SEGMENT
??_C@_0BA@INPFCPDH@RestoreViewport@ DB 'RestoreViewport', 00H ; `string'
CONST	ENDS
;	COMDAT ??_C@_0M@JGBKHEPF@SetViewport@
CONST	SEGMENT
??_C@_0M@JGBKHEPF@SetViewport@ DB 'SetViewport', 00H	; `string'
CONST	ENDS
;	COMDAT ??_C@_0BD@FOOBKHKK@SetGameRenderState@
CONST	SEGMENT
??_C@_0BD@FOOBKHKK@SetGameRenderState@ DB 'SetGameRenderState', 00H ; `string'
CONST	ENDS
;	COMDAT ??_C@_0BI@MMHBDHLH@SetInterfaceRenderState@
CONST	SEGMENT
??_C@_0BI@MMHBDHLH@SetInterfaceRenderState@ DB 'SetInterfaceRenderState', 00H ; `string'
CONST	ENDS
;	COMDAT ??_C@_08JBKPIFGH@SetGamma@
CONST	SEGMENT
??_C@_08JBKPIFGH@SetGamma@ DB 'SetGamma', 00H		; `string'
CONST	ENDS
;	COMDAT ??_C@_0BF@EIHOMNAC@SaveScreenShotToPath@
CONST	SEGMENT
??_C@_0BF@EIHOMNAC@SaveScreenShotToPath@ DB 'SaveScreenShotToPath', 00H ; `string'
CONST	ENDS
;	COMDAT ??_C@_0P@PDKBLCOH@SaveScreenShot@
CONST	SEGMENT
??_C@_0P@PDKBLCOH@SaveScreenShot@ DB 'SaveScreenShot', 00H ; `string'
CONST	ENDS
;	COMDAT ??_C@_0BD@JHIOAGAP@GetAvailableMemory@
CONST	SEGMENT
??_C@_0BD@JHIOAGAP@GetAvailableMemory@ DB 'GetAvailableMemory', 00H ; `string'
CONST	ENDS
;	COMDAT ??_C@_0P@EGCHHAMC@RenderUpButton@
CONST	SEGMENT
??_C@_0P@EGCHHAMC@RenderUpButton@ DB 'RenderUpButton', 00H ; `string'
CONST	ENDS
;	COMDAT ??_C@_0BB@MFONHDMI@RenderDownButton@
CONST	SEGMENT
??_C@_0BB@MFONHDMI@RenderDownButton@ DB 'RenderDownButton', 00H ; `string'
CONST	ENDS
;	COMDAT ??_C@_0L@MMGLCMKG@RenderCube@
CONST	SEGMENT
??_C@_0L@MMGLCMKG@RenderCube@ DB 'RenderCube', 00H	; `string'
CONST	ENDS
;	COMDAT ??_C@_0BD@CPGFJEEL@RenderGradationBar@
CONST	SEGMENT
??_C@_0BD@CPGFJEEL@RenderGradationBar@ DB 'RenderGradationBar', 00H ; `string'
CONST	ENDS
;	COMDAT ??_C@_0M@FIPMCECI@RenderBar3d@
CONST	SEGMENT
??_C@_0M@FIPMCECI@RenderBar3d@ DB 'RenderBar3d', 00H	; `string'
CONST	ENDS
;	COMDAT ??_C@_09LDNCNIPL@RenderBar@
CONST	SEGMENT
??_C@_09LDNCNIPL@RenderBar@ DB 'RenderBar', 00H		; `string'
CONST	ENDS
;	COMDAT ??_C@_0M@IIHBHKCN@RenderBox3d@
CONST	SEGMENT
??_C@_0M@IIHBHKCN@RenderBox3d@ DB 'RenderBox3d', 00H	; `string'
CONST	ENDS
;	COMDAT ??_C@_0P@CKDANCCA@RenderRoundBox@
CONST	SEGMENT
??_C@_0P@CKDANCCA@RenderRoundBox@ DB 'RenderRoundBox', 00H ; `string'
CONST	ENDS
;	COMDAT ??_C@_09EDKDBNHL@RenderBox@
CONST	SEGMENT
??_C@_09EDKDBNHL@RenderBox@ DB 'RenderBox', 00H		; `string'
CONST	ENDS
;	COMDAT ??_C@_0L@FNOOKKDE@RenderLine@
CONST	SEGMENT
??_C@_0L@FNOOKKDE@RenderLine@ DB 'RenderLine', 00H	; `string'
CONST	ENDS
;	COMDAT ??_C@_0BC@BMJNLHPP@SetCursorPosition@
CONST	SEGMENT
??_C@_0BC@BMJNLHPP@SetCursorPosition@ DB 'SetCursorPosition', 00H ; `string'
CONST	ENDS
;	COMDAT ??_C@_0BE@EPLGHCNG@GetCursorPosition3d@
CONST	SEGMENT
??_C@_0BE@EPLGHCNG@GetCursorPosition3d@ DB 'GetCursorPosition3d', 00H ; `string'
CONST	ENDS
;	COMDAT ??_C@_0O@JFBMCOI@SetClearColor@
CONST	SEGMENT
??_C@_0O@JFBMCOI@SetClearColor@ DB 'SetClearColor', 00H	; `string'
CONST	ENDS
;	COMDAT ??_C@_0BA@CAEBLOMF@SetDiffuseColor@
CONST	SEGMENT
??_C@_0BA@CAEBLOMF@SetDiffuseColor@ DB 'SetDiffuseColor', 00H ; `string'
CONST	ENDS
;	COMDAT ??_C@_08BLNOOPGC@SetAlpha@
CONST	SEGMENT
??_C@_08BLNOOPGC@SetAlpha@ DB 'SetAlpha', 00H		; `string'
CONST	ENDS
;	COMDAT ??_C@_08GPNJILIJ@SetColor@
CONST	SEGMENT
??_C@_08GPNJILIJ@SetColor@ DB 'SetColor', 00H		; `string'
CONST	ENDS
;	COMDAT ??_C@_0L@BJOHNIPM@SetOrtho3d@
CONST	SEGMENT
??_C@_0L@BJOHNIPM@SetOrtho3d@ DB 'SetOrtho3d', 00H	; `string'
CONST	ENDS
;	COMDAT ??_C@_0L@BICFLCML@SetOrtho2d@
CONST	SEGMENT
??_C@_0L@BICFLCML@SetOrtho2d@ DB 'SetOrtho2d', 00H	; `string'
CONST	ENDS
;	COMDAT ??_C@_0P@BKKFLFGG@SetPerspective@
CONST	SEGMENT
??_C@_0P@BKKFLFGG@SetPerspective@ DB 'SetPerspective', 00H ; `string'
CONST	ENDS
;	COMDAT ??_C@_0N@PGNLCOBA@SetEyeCamera@
CONST	SEGMENT
??_C@_0N@PGNLCOBA@SetEyeCamera@ DB 'SetEyeCamera', 00H	; `string'
CONST	ENDS
;	COMDAT ??_C@_0BC@FJHFAPLD@SetPositionCamera@
CONST	SEGMENT
??_C@_0BC@FJHFAPLD@SetPositionCamera@ DB 'SetPositionCamera', 00H ; `string'
CONST	ENDS
;	COMDAT ??_C@_0BA@DLALGBBE@SetAroundCamera@
CONST	SEGMENT
??_C@_0BA@DLALGBBE@SetAroundCamera@ DB 'SetAroundCamera', 00H ; `string'
CONST	ENDS
;	COMDAT ??_C@_0BE@DBBIDKJI@SetColorRenderState@
CONST	SEGMENT
??_C@_0BE@DBBIDKJI@SetColorRenderState@ DB 'SetColorRenderState', 00H ; `string'
CONST	ENDS
;	COMDAT ??_C@_06OLMBOMJH@Rotate@
CONST	SEGMENT
??_C@_06OLMBOMJH@Rotate@ DB 'Rotate', 00H		; `string'
CONST	ENDS
;	COMDAT ??_C@_09KMILOHFO@Translate@
CONST	SEGMENT
??_C@_09KMILOHFO@Translate@ DB 'Translate', 00H		; `string'
CONST	ENDS
;	COMDAT ??_C@_09BBLCLCL@PopMatrix@
CONST	SEGMENT
??_C@_09BBLCLCL@PopMatrix@ DB 'PopMatrix', 00H		; `string'
CONST	ENDS
;	COMDAT ??_C@_0L@LNHGHMPK@PushMatrix@
CONST	SEGMENT
??_C@_0L@LNHGHMPK@PushMatrix@ DB 'PushMatrix', 00H	; `string'
CONST	ENDS
;	COMDAT ??_C@_09MLHDPAPE@PushState@
CONST	SEGMENT
??_C@_09MLHDPAPE@PushState@ DB 'PushState', 00H		; `string'
CONST	ENDS
;	COMDAT ??_C@_08MAKHDLEF@PopState@
CONST	SEGMENT
??_C@_08MAKHDLEF@PopState@ DB 'PopState', 00H		; `string'
CONST	ENDS
;	COMDAT ??_C@_0O@MOAEMMO@GenerateColor@
CONST	SEGMENT
??_C@_0O@MOAEMMO@GenerateColor@ DB 'GenerateColor', 00H	; `string'
CONST	ENDS
;	COMDAT ??_C@_08DDGPABJB@Identity@
CONST	SEGMENT
??_C@_08DDGPABJB@Identity@ DB 'Identity', 00H		; `string'
CONST	ENDS
;	COMDAT ??_C@_0BB@IFNDOIJA@ClearDepthBuffer@
CONST	SEGMENT
??_C@_0BB@IFNDOIJA@ClearDepthBuffer@ DB 'ClearDepthBuffer', 00H ; `string'
CONST	ENDS
;	COMDAT ??_C@_07IOLAOMLK@Culling@
CONST	SEGMENT
??_C@_07IOLAOMLK@Culling@ DB 'Culling', 00H		; `string'
CONST	ENDS
;	COMDAT ??_C@_0BB@KOODLHHI@InitScreenEffect@
CONST	SEGMENT
??_C@_0BB@KOODLHHI@InitScreenEffect@ DB 'InitScreenEffect', 00H ; `string'
CONST	ENDS
;	COMDAT ?s_methods@?1??initgrp@@YAXXZ@4PAUPyMethodDef@@A
_DATA	SEGMENT
?s_methods@?1??initgrp@@YAXXZ@4PAUPyMethodDef@@A DD FLAT:??_C@_0BB@KOODLHHI@InitScreenEffect@ ; `initgrp'::`2'::s_methods
	DD	FLAT:?grpInitScreenEffect@@YAPAU_object@@PAU1@0@Z
	DD	01H
	ORG $+4
	DD	FLAT:??_C@_07IOLAOMLK@Culling@
	DD	FLAT:?grpCulling@@YAPAU_object@@PAU1@0@Z
	DD	01H
	ORG $+4
	DD	FLAT:??_C@_0BB@IFNDOIJA@ClearDepthBuffer@
	DD	FLAT:?grpClearDepthBuffer@@YAPAU_object@@PAU1@0@Z
	DD	01H
	ORG $+4
	DD	FLAT:??_C@_08DDGPABJB@Identity@
	DD	FLAT:?grpIdentity@@YAPAU_object@@PAU1@0@Z
	DD	01H
	ORG $+4
	DD	FLAT:??_C@_0O@MOAEMMO@GenerateColor@
	DD	FLAT:?grpGenerateColor@@YAPAU_object@@PAU1@0@Z
	DD	01H
	ORG $+4
	DD	FLAT:??_C@_08MAKHDLEF@PopState@
	DD	FLAT:?grpPopState@@YAPAU_object@@PAU1@0@Z
	DD	01H
	ORG $+4
	DD	FLAT:??_C@_09MLHDPAPE@PushState@
	DD	FLAT:?grpPushState@@YAPAU_object@@PAU1@0@Z
	DD	01H
	ORG $+4
	DD	FLAT:??_C@_0L@LNHGHMPK@PushMatrix@
	DD	FLAT:?grpPushMatrix@@YAPAU_object@@PAU1@0@Z
	DD	01H
	ORG $+4
	DD	FLAT:??_C@_09BBLCLCL@PopMatrix@
	DD	FLAT:?grpPopMatrix@@YAPAU_object@@PAU1@0@Z
	DD	01H
	ORG $+4
	DD	FLAT:??_C@_09KMILOHFO@Translate@
	DD	FLAT:?grpTranslate@@YAPAU_object@@PAU1@0@Z
	DD	01H
	ORG $+4
	DD	FLAT:??_C@_06OLMBOMJH@Rotate@
	DD	FLAT:?grpRotate@@YAPAU_object@@PAU1@0@Z
	DD	01H
	ORG $+4
	DD	FLAT:??_C@_0BE@DBBIDKJI@SetColorRenderState@
	DD	FLAT:?grpSetColorRenderState@@YAPAU_object@@PAU1@0@Z
	DD	01H
	ORG $+4
	DD	FLAT:??_C@_0BA@DLALGBBE@SetAroundCamera@
	DD	FLAT:?grpSetAroundCamera@@YAPAU_object@@PAU1@0@Z
	DD	01H
	ORG $+4
	DD	FLAT:??_C@_0BC@FJHFAPLD@SetPositionCamera@
	DD	FLAT:?grpSetPositionCamera@@YAPAU_object@@PAU1@0@Z
	DD	01H
	ORG $+4
	DD	FLAT:??_C@_0N@PGNLCOBA@SetEyeCamera@
	DD	FLAT:?grpSetEyeCamera@@YAPAU_object@@PAU1@0@Z
	DD	01H
	ORG $+4
	DD	FLAT:??_C@_0P@BKKFLFGG@SetPerspective@
	DD	FLAT:?grpSetPerspective@@YAPAU_object@@PAU1@0@Z
	DD	01H
	ORG $+4
	DD	FLAT:??_C@_0L@BICFLCML@SetOrtho2d@
	DD	FLAT:?grpSetOrtho2D@@YAPAU_object@@PAU1@0@Z
	DD	01H
	ORG $+4
	DD	FLAT:??_C@_0L@BJOHNIPM@SetOrtho3d@
	DD	FLAT:?grpSetOrtho3D@@YAPAU_object@@PAU1@0@Z
	DD	01H
	ORG $+4
	DD	FLAT:??_C@_08GPNJILIJ@SetColor@
	DD	FLAT:?grpSetColor@@YAPAU_object@@PAU1@0@Z
	DD	01H
	ORG $+4
	DD	FLAT:??_C@_08BLNOOPGC@SetAlpha@
	DD	FLAT:?grpSetAlpha@@YAPAU_object@@PAU1@0@Z
	DD	01H
	ORG $+4
	DD	FLAT:??_C@_0BA@CAEBLOMF@SetDiffuseColor@
	DD	FLAT:?grpSetDiffuseColor@@YAPAU_object@@PAU1@0@Z
	DD	01H
	ORG $+4
	DD	FLAT:??_C@_0O@JFBMCOI@SetClearColor@
	DD	FLAT:?grpSetClearColor@@YAPAU_object@@PAU1@0@Z
	DD	01H
	ORG $+4
	DD	FLAT:??_C@_0BE@EPLGHCNG@GetCursorPosition3d@
	DD	FLAT:?grpGetCursorPosition3d@@YAPAU_object@@PAU1@0@Z
	DD	01H
	ORG $+4
	DD	FLAT:??_C@_0BC@BMJNLHPP@SetCursorPosition@
	DD	FLAT:?grpSetCursorPosition@@YAPAU_object@@PAU1@0@Z
	DD	01H
	ORG $+4
	DD	FLAT:??_C@_0L@FNOOKKDE@RenderLine@
	DD	FLAT:?grpRenderLine@@YAPAU_object@@PAU1@0@Z
	DD	01H
	ORG $+4
	DD	FLAT:??_C@_09EDKDBNHL@RenderBox@
	DD	FLAT:?grpRenderBox@@YAPAU_object@@PAU1@0@Z
	DD	01H
	ORG $+4
	DD	FLAT:??_C@_0P@CKDANCCA@RenderRoundBox@
	DD	FLAT:?grpRenderRoundBox@@YAPAU_object@@PAU1@0@Z
	DD	01H
	ORG $+4
	DD	FLAT:??_C@_0M@IIHBHKCN@RenderBox3d@
	DD	FLAT:?grpRenderBox3d@@YAPAU_object@@PAU1@0@Z
	DD	01H
	ORG $+4
	DD	FLAT:??_C@_09LDNCNIPL@RenderBar@
	DD	FLAT:?grpRenderBar@@YAPAU_object@@PAU1@0@Z
	DD	01H
	ORG $+4
	DD	FLAT:??_C@_0M@FIPMCECI@RenderBar3d@
	DD	FLAT:?grpRenderBar3d@@YAPAU_object@@PAU1@0@Z
	DD	01H
	ORG $+4
	DD	FLAT:??_C@_0BD@CPGFJEEL@RenderGradationBar@
	DD	FLAT:?grpRenderGradationBar@@YAPAU_object@@PAU1@0@Z
	DD	01H
	ORG $+4
	DD	FLAT:??_C@_0L@MMGLCMKG@RenderCube@
	DD	FLAT:?grpRenderCube@@YAPAU_object@@PAU1@0@Z
	DD	01H
	ORG $+4
	DD	FLAT:??_C@_0BB@MFONHDMI@RenderDownButton@
	DD	FLAT:?grpRenderDownButton@@YAPAU_object@@PAU1@0@Z
	DD	01H
	ORG $+4
	DD	FLAT:??_C@_0P@EGCHHAMC@RenderUpButton@
	DD	FLAT:?grpRenderUpButton@@YAPAU_object@@PAU1@0@Z
	DD	01H
	ORG $+4
	DD	FLAT:??_C@_0BD@JHIOAGAP@GetAvailableMemory@
	DD	FLAT:?grpGetAvailableMemory@@YAPAU_object@@PAU1@0@Z
	DD	01H
	ORG $+4
	DD	FLAT:??_C@_0P@PDKBLCOH@SaveScreenShot@
	DD	FLAT:?grpSaveScreenShot@@YAPAU_object@@PAU1@0@Z
	DD	01H
	ORG $+4
	DD	FLAT:??_C@_0BF@EIHOMNAC@SaveScreenShotToPath@
	DD	FLAT:?grpSaveScreenShotToPath@@YAPAU_object@@PAU1@0@Z
	DD	01H
	ORG $+4
	DD	FLAT:??_C@_08JBKPIFGH@SetGamma@
	DD	FLAT:?grpSetGamma@@YAPAU_object@@PAU1@0@Z
	DD	01H
	ORG $+4
	DD	FLAT:??_C@_0BI@MMHBDHLH@SetInterfaceRenderState@
	DD	FLAT:?grpSetInterfaceRenderState@@YAPAU_object@@PAU1@0@Z
	DD	01H
	ORG $+4
	DD	FLAT:??_C@_0BD@FOOBKHKK@SetGameRenderState@
	DD	FLAT:?grpSetGameRenderState@@YAPAU_object@@PAU1@0@Z
	DD	01H
	ORG $+4
	DD	FLAT:??_C@_0M@JGBKHEPF@SetViewport@
	DD	FLAT:?grpSetViewport@@YAPAU_object@@PAU1@0@Z
	DD	01H
	ORG $+4
	DD	FLAT:??_C@_0BA@INPFCPDH@RestoreViewport@
	DD	FLAT:?grpRestoreViewport@@YAPAU_object@@PAU1@0@Z
	DD	01H
	ORG $+4
	DD	FLAT:??_C@_0N@OEMNGPDB@SetOmniLight@
	DD	FLAT:?grpSetOmniLight@@YAPAU_object@@PAU1@0@Z
	DD	01H
	ORG $+4
	DD	FLAT:??_C@_0BC@JPCBAHEC@GetCameraPosition@
	DD	FLAT:?grpGetCameraPosition@@YAPAU_object@@PAU1@0@Z
	DD	01H
	ORG $+4
	DD	FLAT:??_C@_0BC@HJEEOBID@GetTargetPosition@
	DD	FLAT:?grpGetTargetPosition@@YAPAU_object@@PAU1@0@Z
	DD	01H
	ORG $+4
	DD	FLAT:??_C@_0O@IHAJFDDM@CreateTextBar@
	DD	FLAT:?grpCreateTextBar@@YAPAU_object@@PAU1@0@Z
	DD	01H
	ORG $+4
	DD	FLAT:??_C@_0BB@NHMJCAIE@CreateBigTextBar@
	DD	FLAT:?grpCreateBigTextBar@@YAPAU_object@@PAU1@0@Z
	DD	01H
	ORG $+4
	DD	FLAT:??_C@_0P@BMMFBFMK@DestroyTextBar@
	DD	FLAT:?grpDestroyTextBar@@YAPAU_object@@PAU1@0@Z
	DD	01H
	ORG $+4
	DD	FLAT:??_C@_0O@LFMIODIG@RenderTextBar@
	DD	FLAT:?grpRenderTextBar@@YAPAU_object@@PAU1@0@Z
	DD	01H
	ORG $+4
	DD	FLAT:??_C@_0P@LEIHKEKD@TextBarTextOut@
	DD	FLAT:?grpTextBarTextOut@@YAPAU_object@@PAU1@0@Z
	DD	01H
	ORG $+4
	DD	FLAT:??_C@_0BE@JIGPMAIC@TextBarSetTextColor@
	DD	FLAT:?grpTextBarSetTextColor@@YAPAU_object@@PAU1@0@Z
	DD	01H
	ORG $+4
	DD	FLAT:??_C@_0BF@GAHBODGD@TextBarGetTextExtent@
	DD	FLAT:?grpTextBarGetTextExtent@@YAPAU_object@@PAU1@0@Z
	DD	01H
	ORG $+4
	DD	FLAT:??_C@_0N@JKKHKGPO@ClearTextBar@
	DD	FLAT:?grpClearTextBar@@YAPAU_object@@PAU1@0@Z
	DD	01H
	ORG $+4
	DD	FLAT:??_C@_0BD@IHMMAKBI@SetTextBarClipRect@
	DD	FLAT:?grpSetTextBarClipRect@@YAPAU_object@@PAU1@0@Z
	DD	01H
	ORG $+4
	DD	00H
	DD	00H
	DD	00H
	ORG $+4
_DATA	ENDS
;	COMDAT ??_C@_03LPALPDIP@fff@
CONST	SEGMENT
??_C@_03LPALPDIP@fff@ DB 'fff', 00H			; `string'
CONST	ENDS
;	COMDAT ??_C@_0BK@BHNKPMOJ@?$CF02d?$CF02d_?$CF02d?$CF02d?$CF02d?4jpg@
CONST	SEGMENT
??_C@_0BK@BHNKPMOJ@?$CF02d?$CF02d_?$CF02d?$CF02d?$CF02d?4jpg@ DB '%02d%02'
	DB	'd_%02d%02d%02d.jpg', 00H			; `string'
CONST	ENDS
;	COMDAT ??_C@_0CB@MCALMLJH@Failed?5to?5create?5directory?5?$FL?$CFs?$FN@
CONST	SEGMENT
??_C@_0CB@MCALMLJH@Failed?5to?5create?5directory?5?$FL?$CFs?$FN@ DB 'Fail'
	DB	'ed to create directory [%s]', 0aH, 00H	; `string'
CONST	ENDS
;	COMDAT ??_C@_08KBONKIKA@?2METIN2?2@
CONST	SEGMENT
??_C@_08KBONKIKA@?2METIN2?2@ DB '\METIN2\', 00H		; `string'
CONST	ENDS
;	COMDAT ??_C@_04JMLDJNEM@?$CIis?$CJ@
CONST	SEGMENT
??_C@_04JMLDJNEM@?$CIis?$CJ@ DB '(is)', 00H		; `string'
CONST	ENDS
;	COMDAT ??_C@_0BM@PKDBOENC@?$CFs?$CF02d?$CF02d_?$CF02d?$CF02d?$CF02d?4jpg@
CONST	SEGMENT
??_C@_0BM@PKDBOENC@?$CFs?$CF02d?$CF02d_?$CF02d?$CF02d?$CF02d?4jpg@ DB '%s'
	DB	'%02d%02d_%02d%02d%02d.jpg', 00H		; `string'
CONST	ENDS
;	COMDAT ??_C@_05KFOBNLEM@?$CIfff?$CJ@
CONST	SEGMENT
??_C@_05KFOBNLEM@?$CIfff?$CJ@ DB '(fff)', 00H		; `string'
CONST	ENDS
;	COMDAT ??_C@_01HHGOMJKL@l@
CONST	SEGMENT
??_C@_01HHGOMJKL@l@ DB 'l', 00H				; `string'
CONST	ENDS
;	COMDAT ??_C@_0BG@IAEAGHLM@grp?4Translate?3Wrong?5Z@
CONST	SEGMENT
??_C@_0BG@IAEAGHLM@grp?4Translate?3Wrong?5Z@ DB 'grp.Translate:Wrong Z', 00H ; `string'
CONST	ENDS
;	COMDAT ??_C@_0BG@KLGNDEHP@grp?4Translate?3Wrong?5Y@
CONST	SEGMENT
??_C@_0BG@KLGNDEHP@grp?4Translate?3Wrong?5Y@ DB 'grp.Translate:Wrong Y', 00H ; `string'
CONST	ENDS
;	COMDAT ??_C@_0BG@LCHGAFDO@grp?4Translate?3Wrong?5X@
CONST	SEGMENT
??_C@_0BG@LCHGAFDO@grp?4Translate?3Wrong?5X@ DB 'grp.Translate:Wrong X', 00H ; `string'
CONST	ENDS
;	COMDAT ??_C@_02PDIHAGKM@ii@
CONST	SEGMENT
??_C@_02PDIHAGKM@ii@ DB 'ii', 00H			; `string'
CONST	ENDS
;	COMDAT ??_C@_01KBJDNOO@i@
CONST	SEGMENT
??_C@_01KBJDNOO@i@ DB 'i', 00H				; `string'
CONST	ENDS
;	COMDAT ??_C@_00CNPNBAHC@@
CONST	SEGMENT
??_C@_00CNPNBAHC@@ DB 00H				; `string'
CONST	ENDS
;	COMDAT xdata$x
xdata$x	SEGMENT
__unwindtable$?grpCreateBigTextBar@@YAPAU_object@@PAU1@0@Z DD 0ffffffffH
	DD	FLAT:__unwindfunclet$?grpCreateBigTextBar@@YAPAU_object@@PAU1@0@Z$0
__ehfuncinfo$?grpCreateBigTextBar@@YAPAU_object@@PAU1@0@Z DD 019930522H
	DD	01H
	DD	FLAT:__unwindtable$?grpCreateBigTextBar@@YAPAU_object@@PAU1@0@Z
	DD	2 DUP(00H)
	DD	2 DUP(00H)
	DD	00H
	DD	01H
xdata$x	ENDS
;	COMDAT xdata$x
xdata$x	SEGMENT
__unwindtable$?grpCreateTextBar@@YAPAU_object@@PAU1@0@Z DD 0ffffffffH
	DD	FLAT:__unwindfunclet$?grpCreateTextBar@@YAPAU_object@@PAU1@0@Z$0
__ehfuncinfo$?grpCreateTextBar@@YAPAU_object@@PAU1@0@Z DD 019930522H
	DD	01H
	DD	FLAT:__unwindtable$?grpCreateTextBar@@YAPAU_object@@PAU1@0@Z
	DD	2 DUP(00H)
	DD	2 DUP(00H)
	DD	00H
	DD	01H
xdata$x	ENDS
; Function compile flags: /Ogtp
; File C:\DS Project\DS Files\Source\ClientSource\Client\eterPythonLib\PythonGraphicModule.cpp
;	COMDAT ?grpGetTargetPosition@@YAPAU_object@@PAU1@0@Z
_TEXT	SEGMENT
_v3Target$ = -12					; size = 12
_poSelf$ = 8						; size = 4
_poArgs$ = 12						; size = 4
?grpGetTargetPosition@@YAPAU_object@@PAU1@0@Z PROC	; grpGetTargetPosition, COMDAT

; 936  : {

  00000	55		 push	 ebp
  00001	8b ec		 mov	 ebp, esp
  00003	83 ec 0c	 sub	 esp, 12			; 0000000cH

; 937  : 	D3DXVECTOR3 v3Target = CCameraManager::Instance().GetCurrentCamera()->GetTarget();

  00006	8b 0d 00 00 00
	00		 mov	 ecx, DWORD PTR ?ms_singleton@?$CSingleton@VCCameraManager@@@@0PAVCCameraManager@@A ; CSingleton<CCameraManager>::ms_singleton
  0000c	e8 00 00 00 00	 call	 ?GetCurrentCamera@CCameraManager@@QAEPAVCCamera@@XZ ; CCameraManager::GetCurrentCamera

; 938  : 	return Py_BuildValue("fff", v3Target.x, v3Target.y, v3Target.z);

  00011	83 ec 18	 sub	 esp, 24			; 00000018H
  00014	f3 0f 7e 40 3c	 movq	 xmm0, QWORD PTR [eax+60]
  00019	8b 40 44	 mov	 eax, DWORD PTR [eax+68]
  0001c	66 0f d6 45 f4	 movq	 QWORD PTR _v3Target$[ebp], xmm0
  00021	89 45 fc	 mov	 DWORD PTR _v3Target$[ebp+8], eax
  00024	f3 0f 10 45 fc	 movss	 xmm0, DWORD PTR _v3Target$[ebp+8]
  00029	0f 5a c0	 cvtps2pd xmm0, xmm0
  0002c	f2 0f 11 44 24
	10		 movsd	 QWORD PTR [esp+16], xmm0
  00032	f3 0f 10 45 f8	 movss	 xmm0, DWORD PTR _v3Target$[ebp+4]
  00037	0f 5a c0	 cvtps2pd xmm0, xmm0
  0003a	f2 0f 11 44 24
	08		 movsd	 QWORD PTR [esp+8], xmm0
  00040	f3 0f 10 45 f4	 movss	 xmm0, DWORD PTR _v3Target$[ebp]
  00045	0f 5a c0	 cvtps2pd xmm0, xmm0
  00048	f2 0f 11 04 24	 movsd	 QWORD PTR [esp], xmm0
  0004d	68 00 00 00 00	 push	 OFFSET ??_C@_03LPALPDIP@fff@
  00052	ff 15 00 00 00
	00		 call	 DWORD PTR __imp__Py_BuildValue
  00058	83 c4 1c	 add	 esp, 28			; 0000001cH

; 939  : }

  0005b	8b e5		 mov	 esp, ebp
  0005d	5d		 pop	 ebp
  0005e	c3		 ret	 0
?grpGetTargetPosition@@YAPAU_object@@PAU1@0@Z ENDP	; grpGetTargetPosition
_TEXT	ENDS
; Function compile flags: /Ogtp
; File C:\DS Project\DS Files\Source\ClientSource\Client\eterPythonLib\PythonGraphicModule.cpp
;	COMDAT ?grpGetCameraPosition@@YAPAU_object@@PAU1@0@Z
_TEXT	SEGMENT
_v3Eye$ = -12						; size = 12
_poSelf$ = 8						; size = 4
_poArgs$ = 12						; size = 4
?grpGetCameraPosition@@YAPAU_object@@PAU1@0@Z PROC	; grpGetCameraPosition, COMDAT

; 930  : {

  00000	55		 push	 ebp
  00001	8b ec		 mov	 ebp, esp
  00003	83 ec 0c	 sub	 esp, 12			; 0000000cH

; 931  : 	D3DXVECTOR3 v3Eye = CCameraManager::Instance().GetCurrentCamera()->GetEye();

  00006	8b 0d 00 00 00
	00		 mov	 ecx, DWORD PTR ?ms_singleton@?$CSingleton@VCCameraManager@@@@0PAVCCameraManager@@A ; CSingleton<CCameraManager>::ms_singleton
  0000c	e8 00 00 00 00	 call	 ?GetCurrentCamera@CCameraManager@@QAEPAVCCamera@@XZ ; CCameraManager::GetCurrentCamera

; 932  : 	return Py_BuildValue("fff", v3Eye.x, v3Eye.y, v3Eye.z);

  00011	83 ec 18	 sub	 esp, 24			; 00000018H
  00014	f3 0f 7e 40 30	 movq	 xmm0, QWORD PTR [eax+48]
  00019	8b 40 38	 mov	 eax, DWORD PTR [eax+56]
  0001c	66 0f d6 45 f4	 movq	 QWORD PTR _v3Eye$[ebp], xmm0
  00021	89 45 fc	 mov	 DWORD PTR _v3Eye$[ebp+8], eax
  00024	f3 0f 10 45 fc	 movss	 xmm0, DWORD PTR _v3Eye$[ebp+8]
  00029	0f 5a c0	 cvtps2pd xmm0, xmm0
  0002c	f2 0f 11 44 24
	10		 movsd	 QWORD PTR [esp+16], xmm0
  00032	f3 0f 10 45 f8	 movss	 xmm0, DWORD PTR _v3Eye$[ebp+4]
  00037	0f 5a c0	 cvtps2pd xmm0, xmm0
  0003a	f2 0f 11 44 24
	08		 movsd	 QWORD PTR [esp+8], xmm0
  00040	f3 0f 10 45 f4	 movss	 xmm0, DWORD PTR _v3Eye$[ebp]
  00045	0f 5a c0	 cvtps2pd xmm0, xmm0
  00048	f2 0f 11 04 24	 movsd	 QWORD PTR [esp], xmm0
  0004d	68 00 00 00 00	 push	 OFFSET ??_C@_03LPALPDIP@fff@
  00052	ff 15 00 00 00
	00		 call	 DWORD PTR __imp__Py_BuildValue
  00058	83 c4 1c	 add	 esp, 28			; 0000001cH

; 933  : }

  0005b	8b e5		 mov	 esp, ebp
  0005d	5d		 pop	 ebp
  0005e	c3		 ret	 0
?grpGetCameraPosition@@YAPAU_object@@PAU1@0@Z ENDP	; grpGetCameraPosition
_TEXT	ENDS
; Function compile flags: /Ogtp
; File C:\DS Project\DS Files\Source\ClientSource\Client\eterPythonLib\PythonGraphicModule.cpp
;	COMDAT ?grpSetOmniLight@@YAPAU_object@@PAU1@0@Z
_TEXT	SEGMENT
_poSelf$ = 8						; size = 4
_poArgs$ = 12						; size = 4
?grpSetOmniLight@@YAPAU_object@@PAU1@0@Z PROC		; grpSetOmniLight, COMDAT

; 925  : 	CPythonGraphic::Instance().SetOmniLight();

  00000	8b 0d 00 00 00
	00		 mov	 ecx, DWORD PTR ?ms_singleton@?$CSingleton@VCPythonGraphic@@@@0PAVCPythonGraphic@@A ; CSingleton<CPythonGraphic>::ms_singleton
  00006	e8 00 00 00 00	 call	 ?SetOmniLight@CPythonGraphic@@QAEXXZ ; CPythonGraphic::SetOmniLight

; 926  : 	return Py_BuildNone();

  0000b	e9 00 00 00 00	 jmp	 ?Py_BuildNone@@YAPAU_object@@XZ ; Py_BuildNone
?grpSetOmniLight@@YAPAU_object@@PAU1@0@Z ENDP		; grpSetOmniLight
_TEXT	ENDS
; Function compile flags: /Ogtp
; File C:\DS Project\DS Files\Source\ClientSource\Client\eterPythonLib\PythonGraphicModule.cpp
;	COMDAT ?grpRestoreViewport@@YAPAU_object@@PAU1@0@Z
_TEXT	SEGMENT
_poSelf$ = 8						; size = 4
_poArgs$ = 12						; size = 4
?grpRestoreViewport@@YAPAU_object@@PAU1@0@Z PROC	; grpRestoreViewport, COMDAT

; 919  : 	CPythonGraphic::Instance().RestoreViewport();

  00000	8b 0d 00 00 00
	00		 mov	 ecx, DWORD PTR ?ms_singleton@?$CSingleton@VCPythonGraphic@@@@0PAVCPythonGraphic@@A ; CSingleton<CPythonGraphic>::ms_singleton
  00006	e8 00 00 00 00	 call	 ?RestoreViewport@CPythonGraphic@@QAEXXZ ; CPythonGraphic::RestoreViewport

; 920  : 	return Py_BuildNone();

  0000b	e9 00 00 00 00	 jmp	 ?Py_BuildNone@@YAPAU_object@@XZ ; Py_BuildNone
?grpRestoreViewport@@YAPAU_object@@PAU1@0@Z ENDP	; grpRestoreViewport
_TEXT	ENDS
; Function compile flags: /Ogtp
; File C:\DS Project\DS Files\Source\ClientSource\Client\eterPythonLib\PythonGraphicModule.cpp
;	COMDAT ?grpSetViewport@@YAPAU_object@@PAU1@0@Z
_TEXT	SEGMENT
_fx$ = -24						; size = 4
_fy$ = -20						; size = 4
_fWidth$ = -16						; size = 4
_fHeight$ = -12						; size = 4
_uWidth$ = -8						; size = 4
_uHeight$ = -4						; size = 4
_poSelf$ = 8						; size = 4
_poArgs$ = 12						; size = 4
?grpSetViewport@@YAPAU_object@@PAU1@0@Z PROC		; grpSetViewport, COMDAT

; 895  : {

  00000	55		 push	 ebp
  00001	8b ec		 mov	 ebp, esp
  00003	83 ec 18	 sub	 esp, 24			; 00000018H

; 896  : 	float fx;
; 897  : 	if (!PyTuple_GetFloat(poArgs, 0, &fx))

  00006	8d 45 e8	 lea	 eax, DWORD PTR _fx$[ebp]
  00009	56		 push	 esi
  0000a	8b 75 0c	 mov	 esi, DWORD PTR _poArgs$[ebp]
  0000d	50		 push	 eax
  0000e	6a 00		 push	 0
  00010	56		 push	 esi
  00011	e8 00 00 00 00	 call	 ?PyTuple_GetFloat@@YA_NPAU_object@@HPAM@Z ; PyTuple_GetFloat
  00016	83 c4 0c	 add	 esp, 12			; 0000000cH
  00019	84 c0		 test	 al, al
  0001b	75 0f		 jne	 SHORT $LN2@grpSetView
$LN7@grpSetView:

; 915  : }

  0001d	6a 00		 push	 0
  0001f	e8 00 00 00 00	 call	 ?Py_BuildException@@YAPAU_object@@PBDZZ ; Py_BuildException
  00024	83 c4 04	 add	 esp, 4
  00027	5e		 pop	 esi
  00028	8b e5		 mov	 esp, ebp
  0002a	5d		 pop	 ebp
  0002b	c3		 ret	 0
$LN2@grpSetView:

; 898  : 		return Py_BuildException();
; 899  : 	float fy;
; 900  : 	if (!PyTuple_GetFloat(poArgs, 1, &fy))

  0002c	8d 45 ec	 lea	 eax, DWORD PTR _fy$[ebp]
  0002f	50		 push	 eax
  00030	6a 01		 push	 1
  00032	56		 push	 esi
  00033	e8 00 00 00 00	 call	 ?PyTuple_GetFloat@@YA_NPAU_object@@HPAM@Z ; PyTuple_GetFloat
  00038	83 c4 0c	 add	 esp, 12			; 0000000cH
  0003b	84 c0		 test	 al, al
  0003d	74 de		 je	 SHORT $LN7@grpSetView

; 901  : 		return Py_BuildException();
; 902  : 
; 903  : 	float fWidth;
; 904  : 	if (!PyTuple_GetFloat(poArgs, 2, &fWidth))

  0003f	8d 45 f0	 lea	 eax, DWORD PTR _fWidth$[ebp]
  00042	50		 push	 eax
  00043	6a 02		 push	 2
  00045	56		 push	 esi
  00046	e8 00 00 00 00	 call	 ?PyTuple_GetFloat@@YA_NPAU_object@@HPAM@Z ; PyTuple_GetFloat
  0004b	83 c4 0c	 add	 esp, 12			; 0000000cH
  0004e	84 c0		 test	 al, al
  00050	74 cb		 je	 SHORT $LN7@grpSetView

; 905  : 		return Py_BuildException();
; 906  : 	float fHeight;
; 907  : 	if (!PyTuple_GetFloat(poArgs, 3, &fHeight))

  00052	8d 45 f4	 lea	 eax, DWORD PTR _fHeight$[ebp]
  00055	50		 push	 eax
  00056	6a 03		 push	 3
  00058	56		 push	 esi
  00059	e8 00 00 00 00	 call	 ?PyTuple_GetFloat@@YA_NPAU_object@@HPAM@Z ; PyTuple_GetFloat
  0005e	83 c4 0c	 add	 esp, 12			; 0000000cH
  00061	84 c0		 test	 al, al
  00063	74 b8		 je	 SHORT $LN7@grpSetView

; 908  : 		return Py_BuildException();
; 909  : 
; 910  : 	UINT uWidth;
; 911  : 	UINT uHeight;
; 912  : 	CPythonGraphic::Instance().GetBackBufferSize(&uWidth, &uHeight);

  00065	8d 45 fc	 lea	 eax, DWORD PTR _uHeight$[ebp]
  00068	50		 push	 eax
  00069	8d 45 f8	 lea	 eax, DWORD PTR _uWidth$[ebp]
  0006c	50		 push	 eax
  0006d	e8 00 00 00 00	 call	 ?GetBackBufferSize@CGraphicBase@@SAXPAI0@Z ; CGraphicBase::GetBackBufferSize

; 913  : 	CPythonGraphic::Instance().SetViewport(fx*uWidth, fy*uHeight, fWidth*uWidth, fHeight*uHeight);

  00072	8b 45 fc	 mov	 eax, DWORD PTR _uHeight$[ebp]
  00075	8b 0d 00 00 00
	00		 mov	 ecx, DWORD PTR ?ms_singleton@?$CSingleton@VCPythonGraphic@@@@0PAVCPythonGraphic@@A ; CSingleton<CPythonGraphic>::ms_singleton
  0007b	66 0f 6e c0	 movd	 xmm0, eax
  0007f	f3 0f e6 c0	 cvtdq2pd xmm0, xmm0
  00083	c1 e8 1f	 shr	 eax, 31			; 0000001fH
  00086	f2 0f 58 04 c5
	00 00 00 00	 addsd	 xmm0, QWORD PTR __xmm@41f00000000000000000000000000000[eax*8]
  0008f	8b 45 f8	 mov	 eax, DWORD PTR _uWidth$[ebp]
  00092	66 0f 5a d0	 cvtpd2ps xmm2, xmm0
  00096	66 0f 6e c0	 movd	 xmm0, eax
  0009a	f3 0f e6 c0	 cvtdq2pd xmm0, xmm0
  0009e	c1 e8 1f	 shr	 eax, 31			; 0000001fH
  000a1	f2 0f 58 04 c5
	00 00 00 00	 addsd	 xmm0, QWORD PTR __xmm@41f00000000000000000000000000000[eax*8]
  000aa	66 0f 5a c8	 cvtpd2ps xmm1, xmm0
  000ae	0f 28 c2	 movaps	 xmm0, xmm2
  000b1	f3 0f 59 55 ec	 mulss	 xmm2, DWORD PTR _fy$[ebp]
  000b6	f3 0f 59 45 f4	 mulss	 xmm0, DWORD PTR _fHeight$[ebp]
  000bb	f3 0f 11 44 24
	04		 movss	 DWORD PTR [esp+4], xmm0
  000c1	0f 28 c1	 movaps	 xmm0, xmm1
  000c4	f3 0f 59 45 f0	 mulss	 xmm0, DWORD PTR _fWidth$[ebp]
  000c9	f3 0f 59 4d e8	 mulss	 xmm1, DWORD PTR _fx$[ebp]
  000ce	f3 0f 11 04 24	 movss	 DWORD PTR [esp], xmm0
  000d3	83 ec 08	 sub	 esp, 8
  000d6	f3 0f 11 54 24
	04		 movss	 DWORD PTR [esp+4], xmm2
  000dc	f3 0f 11 0c 24	 movss	 DWORD PTR [esp], xmm1
  000e1	e8 00 00 00 00	 call	 ?SetViewport@CPythonGraphic@@QAEXMMMM@Z ; CPythonGraphic::SetViewport

; 914  : 	return Py_BuildNone();

  000e6	e8 00 00 00 00	 call	 ?Py_BuildNone@@YAPAU_object@@XZ ; Py_BuildNone
  000eb	5e		 pop	 esi

; 915  : }

  000ec	8b e5		 mov	 esp, ebp
  000ee	5d		 pop	 ebp
  000ef	c3		 ret	 0
?grpSetViewport@@YAPAU_object@@PAU1@0@Z ENDP		; grpSetViewport
_TEXT	ENDS
; Function compile flags: /Ogtp
; File C:\DS Project\DS Files\Source\ClientSource\Client\eterPythonLib\PythonGraphicModule.cpp
;	COMDAT ?grpSetGameRenderState@@YAPAU_object@@PAU1@0@Z
_TEXT	SEGMENT
_poSelf$ = 8						; size = 4
_poArgs$ = 12						; size = 4
?grpSetGameRenderState@@YAPAU_object@@PAU1@0@Z PROC	; grpSetGameRenderState, COMDAT

; 890  : 	CPythonGraphic::Instance().SetGameRenderState();

  00000	8b 0d 00 00 00
	00		 mov	 ecx, DWORD PTR ?ms_singleton@?$CSingleton@VCPythonGraphic@@@@0PAVCPythonGraphic@@A ; CSingleton<CPythonGraphic>::ms_singleton
  00006	e8 00 00 00 00	 call	 ?SetGameRenderState@CPythonGraphic@@QAEXXZ ; CPythonGraphic::SetGameRenderState

; 891  : 	return Py_BuildNone();

  0000b	e9 00 00 00 00	 jmp	 ?Py_BuildNone@@YAPAU_object@@XZ ; Py_BuildNone
?grpSetGameRenderState@@YAPAU_object@@PAU1@0@Z ENDP	; grpSetGameRenderState
_TEXT	ENDS
; Function compile flags: /Ogtp
; File C:\DS Project\DS Files\Source\ClientSource\Client\eterPythonLib\PythonGraphicModule.cpp
;	COMDAT ?grpSetInterfaceRenderState@@YAPAU_object@@PAU1@0@Z
_TEXT	SEGMENT
_poSelf$ = 8						; size = 4
_poArgs$ = 12						; size = 4
?grpSetInterfaceRenderState@@YAPAU_object@@PAU1@0@Z PROC ; grpSetInterfaceRenderState, COMDAT

; 884  : 	CPythonGraphic::Instance().SetInterfaceRenderState();

  00000	8b 0d 00 00 00
	00		 mov	 ecx, DWORD PTR ?ms_singleton@?$CSingleton@VCPythonGraphic@@@@0PAVCPythonGraphic@@A ; CSingleton<CPythonGraphic>::ms_singleton
  00006	e8 00 00 00 00	 call	 ?SetInterfaceRenderState@CPythonGraphic@@QAEXXZ ; CPythonGraphic::SetInterfaceRenderState

; 885  : 	return Py_BuildNone();

  0000b	e9 00 00 00 00	 jmp	 ?Py_BuildNone@@YAPAU_object@@XZ ; Py_BuildNone
?grpSetInterfaceRenderState@@YAPAU_object@@PAU1@0@Z ENDP ; grpSetInterfaceRenderState
_TEXT	ENDS
; Function compile flags: /Ogtp
; File C:\DS Project\DS Files\Source\ClientSource\Client\eterPythonLib\PythonGraphicModule.cpp
;	COMDAT ?grpSetGamma@@YAPAU_object@@PAU1@0@Z
_TEXT	SEGMENT
_gamma$ = -4						; size = 4
_poSelf$ = 8						; size = 4
_poArgs$ = 12						; size = 4
?grpSetGamma@@YAPAU_object@@PAU1@0@Z PROC		; grpSetGamma, COMDAT

; 872  : {

  00000	55		 push	 ebp
  00001	8b ec		 mov	 ebp, esp
  00003	51		 push	 ecx

; 873  : 	float gamma;
; 874  : 
; 875  : 	if (!PyTuple_GetFloat(poArgs, 0, &gamma))

  00004	8d 45 fc	 lea	 eax, DWORD PTR _gamma$[ebp]
  00007	50		 push	 eax
  00008	6a 00		 push	 0
  0000a	ff 75 0c	 push	 DWORD PTR _poArgs$[ebp]
  0000d	e8 00 00 00 00	 call	 ?PyTuple_GetFloat@@YA_NPAU_object@@HPAM@Z ; PyTuple_GetFloat
  00012	83 c4 0c	 add	 esp, 12			; 0000000cH
  00015	84 c0		 test	 al, al
  00017	75 0e		 jne	 SHORT $LN2@grpSetGamm

; 876  : 		return Py_BuildException();

  00019	6a 00		 push	 0
  0001b	e8 00 00 00 00	 call	 ?Py_BuildException@@YAPAU_object@@PBDZZ ; Py_BuildException
  00020	83 c4 04	 add	 esp, 4

; 880  : }

  00023	8b e5		 mov	 esp, ebp
  00025	5d		 pop	 ebp
  00026	c3		 ret	 0
$LN2@grpSetGamm:

; 877  : 
; 878  : 	CPythonGraphic::Instance().SetGamma(gamma);

  00027	f3 0f 10 45 fc	 movss	 xmm0, DWORD PTR _gamma$[ebp]
  0002c	51		 push	 ecx
  0002d	8b 0d 00 00 00
	00		 mov	 ecx, DWORD PTR ?ms_singleton@?$CSingleton@VCPythonGraphic@@@@0PAVCPythonGraphic@@A ; CSingleton<CPythonGraphic>::ms_singleton
  00033	f3 0f 11 04 24	 movss	 DWORD PTR [esp], xmm0
  00038	e8 00 00 00 00	 call	 ?SetGamma@CPythonGraphic@@QAEXM@Z ; CPythonGraphic::SetGamma

; 879  : 	return Py_BuildNone();

  0003d	e8 00 00 00 00	 call	 ?Py_BuildNone@@YAPAU_object@@XZ ; Py_BuildNone

; 880  : }

  00042	8b e5		 mov	 esp, ebp
  00044	5d		 pop	 ebp
  00045	c3		 ret	 0
?grpSetGamma@@YAPAU_object@@PAU1@0@Z ENDP		; grpSetGamma
_TEXT	ENDS
; Function compile flags: /Ogtp
; File C:\DS Project\DS Files\Source\ClientSource\Client\eterPythonLib\PythonGraphicModule.cpp
; File C:\Program Files (x86)\Windows Kits\10\Include\10.0.18362.0\ucrt\time.h
; File C:\DS Project\DS Files\Source\ClientSource\Client\eterPythonLib\PythonGraphicModule.cpp
; File C:\Program Files (x86)\Windows Kits\10\Include\10.0.18362.0\ucrt\time.h
; File C:\DS Project\DS Files\Source\ClientSource\Client\eterPythonLib\PythonGraphicModule.cpp
; File C:\Program Files (x86)\Windows Kits\10\Include\10.0.18362.0\ucrt\time.h
; File C:\DS Project\DS Files\Source\ClientSource\Client\eterPythonLib\PythonGraphicModule.cpp
;	COMDAT ?grpSaveScreenShot@@YAPAU_object@@PAU1@0@Z
_TEXT	SEGMENT
_ct$ = -528						; size = 8
_szPath$ = -520						; size = 516
__$ArrayPad$ = -4					; size = 4
_poSelf$ = 8						; size = 4
_poArgs$ = 12						; size = 4
?grpSaveScreenShot@@YAPAU_object@@PAU1@0@Z PROC		; grpSaveScreenShot, COMDAT

; 841  : {

  00000	55		 push	 ebp
  00001	8b ec		 mov	 ebp, esp
  00003	81 ec 10 02 00
	00		 sub	 esp, 528		; 00000210H
  00009	a1 00 00 00 00	 mov	 eax, DWORD PTR ___security_cookie
  0000e	33 c5		 xor	 eax, ebp
  00010	89 45 fc	 mov	 DWORD PTR __$ArrayPad$[ebp], eax
  00013	56		 push	 esi
; File C:\Program Files (x86)\Windows Kits\10\Include\10.0.18362.0\ucrt\time.h

; 536  :             return _time64(_Time);

  00014	6a 00		 push	 0
  00016	e8 00 00 00 00	 call	 __time64
; File C:\DS Project\DS Files\Source\ClientSource\Client\eterPythonLib\PythonGraphicModule.cpp

; 845  : 	ct = time(0);

  0001b	89 85 f0 fd ff
	ff		 mov	 DWORD PTR _ct$[ebp], eax
; File C:\Program Files (x86)\Windows Kits\10\Include\10.0.18362.0\ucrt\time.h

; 512  :             return _localtime64(_Time);

  00021	8d 85 f0 fd ff
	ff		 lea	 eax, DWORD PTR _ct$[ebp]
  00027	50		 push	 eax
; File C:\DS Project\DS Files\Source\ClientSource\Client\eterPythonLib\PythonGraphicModule.cpp

; 845  : 	ct = time(0);

  00028	89 95 f4 fd ff
	ff		 mov	 DWORD PTR _ct$[ebp+4], edx
; File C:\Program Files (x86)\Windows Kits\10\Include\10.0.18362.0\ucrt\time.h

; 512  :             return _localtime64(_Time);

  0002e	e8 00 00 00 00	 call	 __localtime64
  00033	83 c4 08	 add	 esp, 8
; File C:\DS Project\DS Files\Source\ClientSource\Client\eterPythonLib\PythonGraphicModule.cpp

; 846  : 	tmNow = localtime(&ct);

  00036	8b f0		 mov	 esi, eax

; 847  : 
; 848  : 	char szPath[MAX_PATH + 256];
; 849  : 	SHGetSpecialFolderPath(NULL, szPath, CSIDL_PERSONAL, TRUE);

  00038	8d 85 f8 fd ff
	ff		 lea	 eax, DWORD PTR _szPath$[ebp]
  0003e	6a 01		 push	 1
  00040	6a 05		 push	 5
  00042	50		 push	 eax
  00043	6a 00		 push	 0
  00045	ff 15 00 00 00
	00		 call	 DWORD PTR __imp__SHGetSpecialFolderPathA@16

; 850  : 	//GetTempPath();
; 851  : 	strcat(szPath, "\\METIN2\\");

  0004b	8d 8d f8 fd ff
	ff		 lea	 ecx, DWORD PTR _szPath$[ebp]
  00051	49		 dec	 ecx
$LL9@grpSaveScr:
  00052	8a 41 01	 mov	 al, BYTE PTR [ecx+1]
  00055	8d 49 01	 lea	 ecx, DWORD PTR [ecx+1]
  00058	84 c0		 test	 al, al
  0005a	75 f6		 jne	 SHORT $LL9@grpSaveScr
  0005c	a1 00 00 00 00	 mov	 eax, DWORD PTR ??_C@_08KBONKIKA@?2METIN2?2@
  00061	89 01		 mov	 DWORD PTR [ecx], eax
  00063	a1 04 00 00 00	 mov	 eax, DWORD PTR ??_C@_08KBONKIKA@?2METIN2?2@+4
  00068	89 41 04	 mov	 DWORD PTR [ecx+4], eax
  0006b	a0 08 00 00 00	 mov	 al, BYTE PTR ??_C@_08KBONKIKA@?2METIN2?2@+8
  00070	88 41 08	 mov	 BYTE PTR [ecx+8], al

; 852  : 
; 853  : 	if (-1 == _access(szPath, 0))

  00073	8d 85 f8 fd ff
	ff		 lea	 eax, DWORD PTR _szPath$[ebp]
  00079	6a 00		 push	 0
  0007b	50		 push	 eax
  0007c	e8 00 00 00 00	 call	 __access
  00081	83 c4 08	 add	 esp, 8
  00084	83 f8 ff	 cmp	 eax, -1
  00087	75 48		 jne	 SHORT $LN3@grpSaveScr

; 854  : 		if (!CreateDirectory(szPath, NULL))

  00089	6a 00		 push	 0
  0008b	8d 85 f8 fd ff
	ff		 lea	 eax, DWORD PTR _szPath$[ebp]
  00091	50		 push	 eax
  00092	ff 15 00 00 00
	00		 call	 DWORD PTR __imp__CreateDirectoryA@8
  00098	85 c0		 test	 eax, eax
  0009a	75 35		 jne	 SHORT $LN3@grpSaveScr

; 855  : 		{
; 856  : 			TraceError("Failed to create directory [%s]\n", szPath);

  0009c	8d 85 f8 fd ff
	ff		 lea	 eax, DWORD PTR _szPath$[ebp]
  000a2	50		 push	 eax
  000a3	68 00 00 00 00	 push	 OFFSET ??_C@_0CB@MCALMLJH@Failed?5to?5create?5directory?5?$FL?$CFs?$FN@
  000a8	e8 00 00 00 00	 call	 ?TraceError@@YAXPBDZZ	; TraceError

; 857  : 			return Py_BuildValue("(is)", FALSE, "");

  000ad	68 00 00 00 00	 push	 OFFSET ??_C@_00CNPNBAHC@@
  000b2	6a 00		 push	 0
  000b4	68 00 00 00 00	 push	 OFFSET ??_C@_04JMLDJNEM@?$CIis?$CJ@
  000b9	ff 15 00 00 00
	00		 call	 DWORD PTR __imp__Py_BuildValue
  000bf	83 c4 14	 add	 esp, 20			; 00000014H
  000c2	5e		 pop	 esi

; 869  : }

  000c3	8b 4d fc	 mov	 ecx, DWORD PTR __$ArrayPad$[ebp]
  000c6	33 cd		 xor	 ecx, ebp
  000c8	e8 00 00 00 00	 call	 @__security_check_cookie@4
  000cd	8b e5		 mov	 esp, ebp
  000cf	5d		 pop	 ebp
  000d0	c3		 ret	 0
$LN3@grpSaveScr:

; 858  : 		}
; 859  : 
; 860  : 	sprintf(szPath + strlen(szPath), "%02d%02d_%02d%02d%02d.jpg",

  000d1	8d 8d f8 fd ff
	ff		 lea	 ecx, DWORD PTR _szPath$[ebp]
  000d7	8d 51 01	 lea	 edx, DWORD PTR [ecx+1]
  000da	66 0f 1f 44 00
	00		 npad	 6
$LL10@grpSaveScr:
  000e0	8a 01		 mov	 al, BYTE PTR [ecx]
  000e2	41		 inc	 ecx
  000e3	84 c0		 test	 al, al
  000e5	75 f9		 jne	 SHORT $LL10@grpSaveScr
  000e7	ff 36		 push	 DWORD PTR [esi]
  000e9	8b 46 10	 mov	 eax, DWORD PTR [esi+16]
  000ec	2b ca		 sub	 ecx, edx
  000ee	ff 76 04	 push	 DWORD PTR [esi+4]
  000f1	40		 inc	 eax
  000f2	ff 76 08	 push	 DWORD PTR [esi+8]
  000f5	ff 76 0c	 push	 DWORD PTR [esi+12]
  000f8	50		 push	 eax
  000f9	8d 85 f8 fd ff
	ff		 lea	 eax, DWORD PTR _szPath$[ebp]
  000ff	03 c1		 add	 eax, ecx
  00101	68 00 00 00 00	 push	 OFFSET ??_C@_0BK@BHNKPMOJ@?$CF02d?$CF02d_?$CF02d?$CF02d?$CF02d?4jpg@
  00106	50		 push	 eax
  00107	e8 00 00 00 00	 call	 _sprintf

; 861  : 			tmNow->tm_mon + 1,
; 862  : 			tmNow->tm_mday,
; 863  : 			tmNow->tm_hour,
; 864  : 			tmNow->tm_min,
; 865  : 			tmNow->tm_sec);
; 866  : 
; 867  : 	BOOL bResult = CPythonGraphic::Instance().SaveScreenShot(szPath);

  0010c	8b 0d 00 00 00
	00		 mov	 ecx, DWORD PTR ?ms_singleton@?$CSingleton@VCPythonGraphic@@@@0PAVCPythonGraphic@@A ; CSingleton<CPythonGraphic>::ms_singleton
  00112	8d 85 f8 fd ff
	ff		 lea	 eax, DWORD PTR _szPath$[ebp]
  00118	83 c4 1c	 add	 esp, 28			; 0000001cH
  0011b	50		 push	 eax
  0011c	e8 00 00 00 00	 call	 ?SaveScreenShot@CPythonGraphic@@QAE_NPBD@Z ; CPythonGraphic::SaveScreenShot

; 868  : 	return Py_BuildValue("(is)", bResult, szPath);

  00121	8d 8d f8 fd ff
	ff		 lea	 ecx, DWORD PTR _szPath$[ebp]
  00127	0f b6 c0	 movzx	 eax, al
  0012a	51		 push	 ecx
  0012b	50		 push	 eax
  0012c	68 00 00 00 00	 push	 OFFSET ??_C@_04JMLDJNEM@?$CIis?$CJ@
  00131	ff 15 00 00 00
	00		 call	 DWORD PTR __imp__Py_BuildValue

; 869  : }

  00137	8b 4d fc	 mov	 ecx, DWORD PTR __$ArrayPad$[ebp]
  0013a	83 c4 0c	 add	 esp, 12			; 0000000cH
  0013d	33 cd		 xor	 ecx, ebp
  0013f	5e		 pop	 esi
  00140	e8 00 00 00 00	 call	 @__security_check_cookie@4
  00145	8b e5		 mov	 esp, ebp
  00147	5d		 pop	 ebp
  00148	c3		 ret	 0
?grpSaveScreenShot@@YAPAU_object@@PAU1@0@Z ENDP		; grpSaveScreenShot
_TEXT	ENDS
; Function compile flags: /Ogtp
; File C:\DS Project\DS Files\Source\ClientSource\Client\eterPythonLib\PythonGraphicModule.cpp
; File C:\Program Files (x86)\Windows Kits\10\Include\10.0.18362.0\ucrt\time.h
; File C:\DS Project\DS Files\Source\ClientSource\Client\eterPythonLib\PythonGraphicModule.cpp
; File C:\Program Files (x86)\Windows Kits\10\Include\10.0.18362.0\ucrt\time.h
; File C:\DS Project\DS Files\Source\ClientSource\Client\eterPythonLib\PythonGraphicModule.cpp
; File C:\Program Files (x86)\Windows Kits\10\Include\10.0.18362.0\ucrt\time.h
; File C:\DS Project\DS Files\Source\ClientSource\Client\eterPythonLib\PythonGraphicModule.cpp
;	COMDAT ?grpSaveScreenShotToPath@@YAPAU_object@@PAU1@0@Z
_TEXT	SEGMENT
_ct$ = -532						; size = 8
_szBasePath$ = -524					; size = 4
_szPath$ = -520						; size = 516
__$ArrayPad$ = -4					; size = 4
_poSelf$ = 8						; size = 4
_poArgs$ = 12						; size = 4
?grpSaveScreenShotToPath@@YAPAU_object@@PAU1@0@Z PROC	; grpSaveScreenShotToPath, COMDAT

; 815  : {

  00000	55		 push	 ebp
  00001	8b ec		 mov	 ebp, esp
  00003	81 ec 14 02 00
	00		 sub	 esp, 532		; 00000214H
  00009	a1 00 00 00 00	 mov	 eax, DWORD PTR ___security_cookie
  0000e	33 c5		 xor	 eax, ebp
  00010	89 45 fc	 mov	 DWORD PTR __$ArrayPad$[ebp], eax
  00013	8b 45 0c	 mov	 eax, DWORD PTR _poArgs$[ebp]

; 816  : 	char * szBasePath;
; 817  : 	if (!PyTuple_GetString(poArgs, 0, &szBasePath))

  00016	8d 8d f4 fd ff
	ff		 lea	 ecx, DWORD PTR _szBasePath$[ebp]
  0001c	51		 push	 ecx
  0001d	6a 00		 push	 0
  0001f	50		 push	 eax
  00020	e8 00 00 00 00	 call	 ?PyTuple_GetString@@YA_NPAU_object@@HPAPAD@Z ; PyTuple_GetString
  00025	83 c4 0c	 add	 esp, 12			; 0000000cH
  00028	6a 00		 push	 0
  0002a	84 c0		 test	 al, al
  0002c	75 16		 jne	 SHORT $LN2@grpSaveScr

; 818  : 		return Py_BuildException();

  0002e	e8 00 00 00 00	 call	 ?Py_BuildException@@YAPAU_object@@PBDZZ ; Py_BuildException
  00033	83 c4 04	 add	 esp, 4

; 837  : }

  00036	8b 4d fc	 mov	 ecx, DWORD PTR __$ArrayPad$[ebp]
  00039	33 cd		 xor	 ecx, ebp
  0003b	e8 00 00 00 00	 call	 @__security_check_cookie@4
  00040	8b e5		 mov	 esp, ebp
  00042	5d		 pop	 ebp
  00043	c3		 ret	 0
$LN2@grpSaveScr:
; File C:\Program Files (x86)\Windows Kits\10\Include\10.0.18362.0\ucrt\time.h

; 536  :             return _time64(_Time);

  00044	e8 00 00 00 00	 call	 __time64
; File C:\DS Project\DS Files\Source\ClientSource\Client\eterPythonLib\PythonGraphicModule.cpp

; 823  : 	ct = time(0);

  00049	89 85 ec fd ff
	ff		 mov	 DWORD PTR _ct$[ebp], eax
; File C:\Program Files (x86)\Windows Kits\10\Include\10.0.18362.0\ucrt\time.h

; 512  :             return _localtime64(_Time);

  0004f	8d 85 ec fd ff
	ff		 lea	 eax, DWORD PTR _ct$[ebp]
  00055	50		 push	 eax
; File C:\DS Project\DS Files\Source\ClientSource\Client\eterPythonLib\PythonGraphicModule.cpp

; 823  : 	ct = time(0);

  00056	89 95 f0 fd ff
	ff		 mov	 DWORD PTR _ct$[ebp+4], edx
; File C:\Program Files (x86)\Windows Kits\10\Include\10.0.18362.0\ucrt\time.h

; 512  :             return _localtime64(_Time);

  0005c	e8 00 00 00 00	 call	 __localtime64
; File C:\DS Project\DS Files\Source\ClientSource\Client\eterPythonLib\PythonGraphicModule.cpp

; 827  : 	snprintf(szPath, sizeof(szPath), "%s%02d%02d_%02d%02d%02d.jpg",

  00061	ff 30		 push	 DWORD PTR [eax]
  00063	ff 70 04	 push	 DWORD PTR [eax+4]
  00066	ff 70 08	 push	 DWORD PTR [eax+8]
  00069	ff 70 0c	 push	 DWORD PTR [eax+12]
  0006c	8b 40 10	 mov	 eax, DWORD PTR [eax+16]
  0006f	40		 inc	 eax
  00070	50		 push	 eax
  00071	ff b5 f4 fd ff
	ff		 push	 DWORD PTR _szBasePath$[ebp]
  00077	8d 85 f8 fd ff
	ff		 lea	 eax, DWORD PTR _szPath$[ebp]
  0007d	68 00 00 00 00	 push	 OFFSET ??_C@_0BM@PKDBOENC@?$CFs?$CF02d?$CF02d_?$CF02d?$CF02d?$CF02d?4jpg@
  00082	68 04 02 00 00	 push	 516			; 00000204H
  00087	50		 push	 eax
  00088	e8 00 00 00 00	 call	 __snprintf

; 828  : 			szBasePath,
; 829  : 			tmNow->tm_mon + 1,
; 830  : 			tmNow->tm_mday,
; 831  : 			tmNow->tm_hour,
; 832  : 			tmNow->tm_min,
; 833  : 			tmNow->tm_sec);
; 834  : 
; 835  : 	BOOL bResult = CPythonGraphic::Instance().SaveScreenShot(szPath);

  0008d	8b 0d 00 00 00
	00		 mov	 ecx, DWORD PTR ?ms_singleton@?$CSingleton@VCPythonGraphic@@@@0PAVCPythonGraphic@@A ; CSingleton<CPythonGraphic>::ms_singleton
  00093	8d 85 f8 fd ff
	ff		 lea	 eax, DWORD PTR _szPath$[ebp]
  00099	83 c4 2c	 add	 esp, 44			; 0000002cH
  0009c	50		 push	 eax
  0009d	e8 00 00 00 00	 call	 ?SaveScreenShot@CPythonGraphic@@QAE_NPBD@Z ; CPythonGraphic::SaveScreenShot

; 836  : 	return Py_BuildValue("(is)", bResult, szPath);

  000a2	8d 8d f8 fd ff
	ff		 lea	 ecx, DWORD PTR _szPath$[ebp]
  000a8	0f b6 c0	 movzx	 eax, al
  000ab	51		 push	 ecx
  000ac	50		 push	 eax
  000ad	68 00 00 00 00	 push	 OFFSET ??_C@_04JMLDJNEM@?$CIis?$CJ@
  000b2	ff 15 00 00 00
	00		 call	 DWORD PTR __imp__Py_BuildValue

; 837  : }

  000b8	8b 4d fc	 mov	 ecx, DWORD PTR __$ArrayPad$[ebp]
  000bb	83 c4 0c	 add	 esp, 12			; 0000000cH
  000be	33 cd		 xor	 ecx, ebp
  000c0	e8 00 00 00 00	 call	 @__security_check_cookie@4
  000c5	8b e5		 mov	 esp, ebp
  000c7	5d		 pop	 ebp
  000c8	c3		 ret	 0
?grpSaveScreenShotToPath@@YAPAU_object@@PAU1@0@Z ENDP	; grpSaveScreenShotToPath
_TEXT	ENDS
; Function compile flags: /Ogtp
; File C:\DS Project\DS Files\Source\ClientSource\Client\eterPythonLib\PythonGraphicModule.cpp
;	COMDAT ?grpGetAvailableMemory@@YAPAU_object@@PAU1@0@Z
_TEXT	SEGMENT
_poSelf$ = 8						; size = 4
_poArgs$ = 12						; size = 4
?grpGetAvailableMemory@@YAPAU_object@@PAU1@0@Z PROC	; grpGetAvailableMemory, COMDAT

; 809  : 	int iValue = CPythonGraphic::Instance().GetAvailableMemory();

  00000	8b 0d 00 00 00
	00		 mov	 ecx, DWORD PTR ?ms_singleton@?$CSingleton@VCPythonGraphic@@@@0PAVCPythonGraphic@@A ; CSingleton<CPythonGraphic>::ms_singleton
  00006	e8 00 00 00 00	 call	 ?GetAvailableMemory@CPythonGraphic@@QAEKXZ ; CPythonGraphic::GetAvailableMemory

; 810  : 	return Py_BuildValue("i", iValue);

  0000b	50		 push	 eax
  0000c	68 00 00 00 00	 push	 OFFSET ??_C@_01KBJDNOO@i@
  00011	ff 15 00 00 00
	00		 call	 DWORD PTR __imp__Py_BuildValue
  00017	83 c4 08	 add	 esp, 8

; 811  : }

  0001a	c3		 ret	 0
?grpGetAvailableMemory@@YAPAU_object@@PAU1@0@Z ENDP	; grpGetAvailableMemory
_TEXT	ENDS
; Function compile flags: /Ogtp
; File C:\DS Project\DS Files\Source\ClientSource\Client\eterPythonLib\PythonGraphicModule.cpp
;	COMDAT ?grpIdentity@@YAPAU_object@@PAU1@0@Z
_TEXT	SEGMENT
_poSelf$ = 8						; size = 4
_poArgs$ = 12						; size = 4
?grpIdentity@@YAPAU_object@@PAU1@0@Z PROC		; grpIdentity, COMDAT

; 803  : 	CPythonGraphic::Instance().Identity();

  00000	e8 00 00 00 00	 call	 ?Identity@CScreen@@SAXXZ ; CScreen::Identity

; 804  : 	return Py_BuildNone();

  00005	e9 00 00 00 00	 jmp	 ?Py_BuildNone@@YAPAU_object@@XZ ; Py_BuildNone
?grpIdentity@@YAPAU_object@@PAU1@0@Z ENDP		; grpIdentity
_TEXT	ENDS
; Function compile flags: /Ogtp
; File C:\DS Project\DS Files\Source\ClientSource\Client\eterPythonLib\PythonGraphicModule.cpp
;	COMDAT ?grpSetDiffuseColor@@YAPAU_object@@PAU1@0@Z
_TEXT	SEGMENT
_r$ = -16						; size = 4
_g$ = -12						; size = 4
_b$ = -8						; size = 4
_a$ = -4						; size = 4
_poSelf$ = 8						; size = 4
_poArgs$ = 12						; size = 4
?grpSetDiffuseColor@@YAPAU_object@@PAU1@0@Z PROC	; grpSetDiffuseColor, COMDAT

; 780  : {

  00000	55		 push	 ebp
  00001	8b ec		 mov	 ebp, esp
  00003	83 ec 10	 sub	 esp, 16			; 00000010H

; 781  : 	float r;
; 782  : 	if (!PyTuple_GetFloat(poArgs, 0, &r))

  00006	8d 45 f0	 lea	 eax, DWORD PTR _r$[ebp]
  00009	56		 push	 esi
  0000a	8b 75 0c	 mov	 esi, DWORD PTR _poArgs$[ebp]
  0000d	50		 push	 eax
  0000e	6a 00		 push	 0
  00010	56		 push	 esi
  00011	e8 00 00 00 00	 call	 ?PyTuple_GetFloat@@YA_NPAU_object@@HPAM@Z ; PyTuple_GetFloat
  00016	83 c4 0c	 add	 esp, 12			; 0000000cH
  00019	84 c0		 test	 al, al
  0001b	75 0f		 jne	 SHORT $LN2@grpSetDiff
$LN7@grpSetDiff:

; 799  : }

  0001d	6a 00		 push	 0
  0001f	e8 00 00 00 00	 call	 ?Py_BuildException@@YAPAU_object@@PBDZZ ; Py_BuildException
  00024	83 c4 04	 add	 esp, 4
  00027	5e		 pop	 esi
  00028	8b e5		 mov	 esp, ebp
  0002a	5d		 pop	 ebp
  0002b	c3		 ret	 0
$LN2@grpSetDiff:

; 783  : 		return Py_BuildException();
; 784  : 
; 785  : 	float g;
; 786  : 	if (!PyTuple_GetFloat(poArgs, 1, &g))

  0002c	8d 45 f4	 lea	 eax, DWORD PTR _g$[ebp]
  0002f	50		 push	 eax
  00030	6a 01		 push	 1
  00032	56		 push	 esi
  00033	e8 00 00 00 00	 call	 ?PyTuple_GetFloat@@YA_NPAU_object@@HPAM@Z ; PyTuple_GetFloat
  00038	83 c4 0c	 add	 esp, 12			; 0000000cH
  0003b	84 c0		 test	 al, al
  0003d	74 de		 je	 SHORT $LN7@grpSetDiff

; 787  : 		return Py_BuildException();
; 788  : 
; 789  : 	float b;
; 790  : 	if (!PyTuple_GetFloat(poArgs, 2, &b))

  0003f	8d 45 f8	 lea	 eax, DWORD PTR _b$[ebp]
  00042	50		 push	 eax
  00043	6a 02		 push	 2
  00045	56		 push	 esi
  00046	e8 00 00 00 00	 call	 ?PyTuple_GetFloat@@YA_NPAU_object@@HPAM@Z ; PyTuple_GetFloat
  0004b	83 c4 0c	 add	 esp, 12			; 0000000cH
  0004e	84 c0		 test	 al, al
  00050	74 cb		 je	 SHORT $LN7@grpSetDiff

; 791  : 		return Py_BuildException();
; 792  : 
; 793  : 	float a;
; 794  : 	if (!PyTuple_GetFloat(poArgs, 3, &a))

  00052	8d 45 fc	 lea	 eax, DWORD PTR _a$[ebp]
  00055	50		 push	 eax
  00056	6a 03		 push	 3
  00058	56		 push	 esi
  00059	e8 00 00 00 00	 call	 ?PyTuple_GetFloat@@YA_NPAU_object@@HPAM@Z ; PyTuple_GetFloat
  0005e	83 c4 0c	 add	 esp, 12			; 0000000cH
  00061	84 c0		 test	 al, al
  00063	74 b8		 je	 SHORT $LN7@grpSetDiff

; 795  : 		return Py_BuildException();
; 796  : 
; 797  : 	CPythonGraphic::Instance().SetDiffuseColor(r, g, b, a);

  00065	f3 0f 10 45 fc	 movss	 xmm0, DWORD PTR _a$[ebp]
  0006a	83 ec 10	 sub	 esp, 16			; 00000010H
  0006d	8b 0d 00 00 00
	00		 mov	 ecx, DWORD PTR ?ms_singleton@?$CSingleton@VCPythonGraphic@@@@0PAVCPythonGraphic@@A ; CSingleton<CPythonGraphic>::ms_singleton
  00073	f3 0f 11 44 24
	0c		 movss	 DWORD PTR [esp+12], xmm0
  00079	f3 0f 10 45 f8	 movss	 xmm0, DWORD PTR _b$[ebp]
  0007e	f3 0f 11 44 24
	08		 movss	 DWORD PTR [esp+8], xmm0
  00084	f3 0f 10 45 f4	 movss	 xmm0, DWORD PTR _g$[ebp]
  00089	f3 0f 11 44 24
	04		 movss	 DWORD PTR [esp+4], xmm0
  0008f	f3 0f 10 45 f0	 movss	 xmm0, DWORD PTR _r$[ebp]
  00094	f3 0f 11 04 24	 movss	 DWORD PTR [esp], xmm0
  00099	e8 00 00 00 00	 call	 ?SetDiffuseColor@CScreen@@QAEXMMMM@Z ; CScreen::SetDiffuseColor

; 798  : 	return Py_BuildNone();

  0009e	e8 00 00 00 00	 call	 ?Py_BuildNone@@YAPAU_object@@XZ ; Py_BuildNone
  000a3	5e		 pop	 esi

; 799  : }

  000a4	8b e5		 mov	 esp, ebp
  000a6	5d		 pop	 ebp
  000a7	c3		 ret	 0
?grpSetDiffuseColor@@YAPAU_object@@PAU1@0@Z ENDP	; grpSetDiffuseColor
_TEXT	ENDS
; Function compile flags: /Ogtp
; File C:\DS Project\DS Files\Source\ClientSource\Client\eterPythonLib\PythonGraphicModule.cpp
;	COMDAT ?grpSetClearColor@@YAPAU_object@@PAU1@0@Z
_TEXT	SEGMENT
_fr$ = -12						; size = 4
_fg$ = -8						; size = 4
_fb$ = -4						; size = 4
_poSelf$ = 8						; size = 4
_poArgs$ = 12						; size = 4
?grpSetClearColor@@YAPAU_object@@PAU1@0@Z PROC		; grpSetClearColor, COMDAT

; 762  : {

  00000	55		 push	 ebp
  00001	8b ec		 mov	 ebp, esp
  00003	83 ec 0c	 sub	 esp, 12			; 0000000cH

; 763  : 	float fr;
; 764  : 	if (!PyTuple_GetFloat(poArgs, 0, &fr))

  00006	8d 45 f4	 lea	 eax, DWORD PTR _fr$[ebp]
  00009	56		 push	 esi
  0000a	8b 75 0c	 mov	 esi, DWORD PTR _poArgs$[ebp]
  0000d	50		 push	 eax
  0000e	6a 00		 push	 0
  00010	56		 push	 esi
  00011	e8 00 00 00 00	 call	 ?PyTuple_GetFloat@@YA_NPAU_object@@HPAM@Z ; PyTuple_GetFloat
  00016	83 c4 0c	 add	 esp, 12			; 0000000cH
  00019	84 c0		 test	 al, al
  0001b	75 0f		 jne	 SHORT $LN2@grpSetClea
$LN6@grpSetClea:

; 777  : }

  0001d	6a 00		 push	 0
  0001f	e8 00 00 00 00	 call	 ?Py_BuildException@@YAPAU_object@@PBDZZ ; Py_BuildException
  00024	83 c4 04	 add	 esp, 4
  00027	5e		 pop	 esi
  00028	8b e5		 mov	 esp, ebp
  0002a	5d		 pop	 ebp
  0002b	c3		 ret	 0
$LN2@grpSetClea:

; 765  : 		return Py_BuildException();
; 766  : 
; 767  : 	float fg;
; 768  : 	if (!PyTuple_GetFloat(poArgs, 1, &fg))

  0002c	8d 45 f8	 lea	 eax, DWORD PTR _fg$[ebp]
  0002f	50		 push	 eax
  00030	6a 01		 push	 1
  00032	56		 push	 esi
  00033	e8 00 00 00 00	 call	 ?PyTuple_GetFloat@@YA_NPAU_object@@HPAM@Z ; PyTuple_GetFloat
  00038	83 c4 0c	 add	 esp, 12			; 0000000cH
  0003b	84 c0		 test	 al, al
  0003d	74 de		 je	 SHORT $LN6@grpSetClea

; 769  : 		return Py_BuildException();
; 770  : 
; 771  : 	float fb;
; 772  : 	if (!PyTuple_GetFloat(poArgs, 2, &fb))

  0003f	8d 45 fc	 lea	 eax, DWORD PTR _fb$[ebp]
  00042	50		 push	 eax
  00043	6a 02		 push	 2
  00045	56		 push	 esi
  00046	e8 00 00 00 00	 call	 ?PyTuple_GetFloat@@YA_NPAU_object@@HPAM@Z ; PyTuple_GetFloat
  0004b	83 c4 0c	 add	 esp, 12			; 0000000cH
  0004e	84 c0		 test	 al, al
  00050	74 cb		 je	 SHORT $LN6@grpSetClea

; 773  : 		return Py_BuildException();
; 774  : 
; 775  : 	CPythonGraphic::Instance().SetClearColor(fr, fg, fb, 1.0f);

  00052	f3 0f 10 45 fc	 movss	 xmm0, DWORD PTR _fb$[ebp]
  00057	83 ec 10	 sub	 esp, 16			; 00000010H
  0005a	8b 0d 00 00 00
	00		 mov	 ecx, DWORD PTR ?ms_singleton@?$CSingleton@VCPythonGraphic@@@@0PAVCPythonGraphic@@A ; CSingleton<CPythonGraphic>::ms_singleton
  00060	c7 44 24 0c 00
	00 80 3f	 mov	 DWORD PTR [esp+12], 1065353216 ; 3f800000H
  00068	f3 0f 11 44 24
	08		 movss	 DWORD PTR [esp+8], xmm0
  0006e	f3 0f 10 45 f8	 movss	 xmm0, DWORD PTR _fg$[ebp]
  00073	f3 0f 11 44 24
	04		 movss	 DWORD PTR [esp+4], xmm0
  00079	f3 0f 10 45 f4	 movss	 xmm0, DWORD PTR _fr$[ebp]
  0007e	f3 0f 11 04 24	 movss	 DWORD PTR [esp], xmm0
  00083	e8 00 00 00 00	 call	 ?SetClearColor@CScreen@@QAEXMMMM@Z ; CScreen::SetClearColor

; 776  : 	return Py_BuildNone();

  00088	e8 00 00 00 00	 call	 ?Py_BuildNone@@YAPAU_object@@XZ ; Py_BuildNone
  0008d	5e		 pop	 esi

; 777  : }

  0008e	8b e5		 mov	 esp, ebp
  00090	5d		 pop	 ebp
  00091	c3		 ret	 0
?grpSetClearColor@@YAPAU_object@@PAU1@0@Z ENDP		; grpSetClearColor
_TEXT	ENDS
; Function compile flags: /Ogtp
; File C:\DS Project\DS Files\Source\ClientSource\Client\eterPythonLib\PythonGraphicModule.cpp
;	COMDAT ?grpRenderBox3d@@YAPAU_object@@PAU1@0@Z
_TEXT	SEGMENT
_sx$ = -24						; size = 4
_sy$ = -20						; size = 4
_sz$ = -16						; size = 4
_ex$ = -12						; size = 4
_ey$ = -8						; size = 4
_ez$ = -4						; size = 4
_poSelf$ = 8						; size = 4
_poArgs$ = 12						; size = 4
?grpRenderBox3d@@YAPAU_object@@PAU1@0@Z PROC		; grpRenderBox3d, COMDAT

; 732  : {

  00000	55		 push	 ebp
  00001	8b ec		 mov	 ebp, esp
  00003	83 ec 18	 sub	 esp, 24			; 00000018H

; 733  : 	float sx;
; 734  : 	if (!PyTuple_GetFloat(poArgs, 0, &sx))

  00006	8d 45 e8	 lea	 eax, DWORD PTR _sx$[ebp]
  00009	56		 push	 esi
  0000a	8b 75 0c	 mov	 esi, DWORD PTR _poArgs$[ebp]
  0000d	50		 push	 eax
  0000e	6a 00		 push	 0
  00010	56		 push	 esi
  00011	e8 00 00 00 00	 call	 ?PyTuple_GetFloat@@YA_NPAU_object@@HPAM@Z ; PyTuple_GetFloat
  00016	83 c4 0c	 add	 esp, 12			; 0000000cH
  00019	84 c0		 test	 al, al
  0001b	75 0f		 jne	 SHORT $LN2@grpRenderB
$LN9@grpRenderB:

; 759  : }

  0001d	6a 00		 push	 0
  0001f	e8 00 00 00 00	 call	 ?Py_BuildException@@YAPAU_object@@PBDZZ ; Py_BuildException
  00024	83 c4 04	 add	 esp, 4
  00027	5e		 pop	 esi
  00028	8b e5		 mov	 esp, ebp
  0002a	5d		 pop	 ebp
  0002b	c3		 ret	 0
$LN2@grpRenderB:

; 735  : 		return Py_BuildException();
; 736  : 
; 737  : 	float sy;
; 738  : 	if (!PyTuple_GetFloat(poArgs, 1, &sy))

  0002c	8d 45 ec	 lea	 eax, DWORD PTR _sy$[ebp]
  0002f	50		 push	 eax
  00030	6a 01		 push	 1
  00032	56		 push	 esi
  00033	e8 00 00 00 00	 call	 ?PyTuple_GetFloat@@YA_NPAU_object@@HPAM@Z ; PyTuple_GetFloat
  00038	83 c4 0c	 add	 esp, 12			; 0000000cH
  0003b	84 c0		 test	 al, al
  0003d	74 de		 je	 SHORT $LN9@grpRenderB

; 739  : 		return Py_BuildException();
; 740  : 
; 741  : 	float sz;
; 742  : 	if (!PyTuple_GetFloat(poArgs, 2, &sz))

  0003f	8d 45 f0	 lea	 eax, DWORD PTR _sz$[ebp]
  00042	50		 push	 eax
  00043	6a 02		 push	 2
  00045	56		 push	 esi
  00046	e8 00 00 00 00	 call	 ?PyTuple_GetFloat@@YA_NPAU_object@@HPAM@Z ; PyTuple_GetFloat
  0004b	83 c4 0c	 add	 esp, 12			; 0000000cH
  0004e	84 c0		 test	 al, al
  00050	74 cb		 je	 SHORT $LN9@grpRenderB

; 743  : 		return Py_BuildException();
; 744  : 
; 745  : 	float ex;
; 746  : 	if (!PyTuple_GetFloat(poArgs, 3, &ex))

  00052	8d 45 f4	 lea	 eax, DWORD PTR _ex$[ebp]
  00055	50		 push	 eax
  00056	6a 03		 push	 3
  00058	56		 push	 esi
  00059	e8 00 00 00 00	 call	 ?PyTuple_GetFloat@@YA_NPAU_object@@HPAM@Z ; PyTuple_GetFloat
  0005e	83 c4 0c	 add	 esp, 12			; 0000000cH
  00061	84 c0		 test	 al, al
  00063	74 b8		 je	 SHORT $LN9@grpRenderB

; 747  : 		return Py_BuildException();
; 748  : 
; 749  : 	float ey;
; 750  : 	if (!PyTuple_GetFloat(poArgs, 4, &ey))

  00065	8d 45 f8	 lea	 eax, DWORD PTR _ey$[ebp]
  00068	50		 push	 eax
  00069	6a 04		 push	 4
  0006b	56		 push	 esi
  0006c	e8 00 00 00 00	 call	 ?PyTuple_GetFloat@@YA_NPAU_object@@HPAM@Z ; PyTuple_GetFloat
  00071	83 c4 0c	 add	 esp, 12			; 0000000cH
  00074	84 c0		 test	 al, al
  00076	74 a5		 je	 SHORT $LN9@grpRenderB

; 751  : 		return Py_BuildException();
; 752  : 
; 753  : 	float ez;
; 754  : 	if (!PyTuple_GetFloat(poArgs, 5, &ez))

  00078	8d 45 fc	 lea	 eax, DWORD PTR _ez$[ebp]
  0007b	50		 push	 eax
  0007c	6a 05		 push	 5
  0007e	56		 push	 esi
  0007f	e8 00 00 00 00	 call	 ?PyTuple_GetFloat@@YA_NPAU_object@@HPAM@Z ; PyTuple_GetFloat
  00084	83 c4 0c	 add	 esp, 12			; 0000000cH
  00087	84 c0		 test	 al, al
  00089	74 92		 je	 SHORT $LN9@grpRenderB

; 755  : 		return Py_BuildException();
; 756  : 
; 757  : 	CPythonGraphic::Instance().RenderBox3d((float) sx, (float) sy, (float) sz, (float) ex, (float) ey, (float) ez);

  0008b	f3 0f 10 45 fc	 movss	 xmm0, DWORD PTR _ez$[ebp]
  00090	83 ec 18	 sub	 esp, 24			; 00000018H
  00093	8b 0d 00 00 00
	00		 mov	 ecx, DWORD PTR ?ms_singleton@?$CSingleton@VCPythonGraphic@@@@0PAVCPythonGraphic@@A ; CSingleton<CPythonGraphic>::ms_singleton
  00099	f3 0f 11 44 24
	14		 movss	 DWORD PTR [esp+20], xmm0
  0009f	f3 0f 10 45 f8	 movss	 xmm0, DWORD PTR _ey$[ebp]
  000a4	f3 0f 11 44 24
	10		 movss	 DWORD PTR [esp+16], xmm0
  000aa	f3 0f 10 45 f4	 movss	 xmm0, DWORD PTR _ex$[ebp]
  000af	f3 0f 11 44 24
	0c		 movss	 DWORD PTR [esp+12], xmm0
  000b5	f3 0f 10 45 f0	 movss	 xmm0, DWORD PTR _sz$[ebp]
  000ba	f3 0f 11 44 24
	08		 movss	 DWORD PTR [esp+8], xmm0
  000c0	f3 0f 10 45 ec	 movss	 xmm0, DWORD PTR _sy$[ebp]
  000c5	f3 0f 11 44 24
	04		 movss	 DWORD PTR [esp+4], xmm0
  000cb	f3 0f 10 45 e8	 movss	 xmm0, DWORD PTR _sx$[ebp]
  000d0	f3 0f 11 04 24	 movss	 DWORD PTR [esp], xmm0
  000d5	e8 00 00 00 00	 call	 ?RenderBox3d@CScreen@@QAEXMMMMMM@Z ; CScreen::RenderBox3d

; 758  : 	return Py_BuildNone();

  000da	e8 00 00 00 00	 call	 ?Py_BuildNone@@YAPAU_object@@XZ ; Py_BuildNone
  000df	5e		 pop	 esi

; 759  : }

  000e0	8b e5		 mov	 esp, ebp
  000e2	5d		 pop	 ebp
  000e3	c3		 ret	 0
?grpRenderBox3d@@YAPAU_object@@PAU1@0@Z ENDP		; grpRenderBox3d
_TEXT	ENDS
; Function compile flags: /Ogtp
; File C:\DS Project\DS Files\Source\ClientSource\Client\eterPythonLib\PythonGraphicModule.cpp
;	COMDAT ?grpRenderUpButton@@YAPAU_object@@PAU1@0@Z
_TEXT	SEGMENT
_width$ = -16						; size = 4
_height$ = -12						; size = 4
_x$ = -8						; size = 4
_y$ = -4						; size = 4
_poSelf$ = 8						; size = 4
_poArgs$ = 12						; size = 4
?grpRenderUpButton@@YAPAU_object@@PAU1@0@Z PROC		; grpRenderUpButton, COMDAT

; 710  : {

  00000	55		 push	 ebp
  00001	8b ec		 mov	 ebp, esp
  00003	83 ec 10	 sub	 esp, 16			; 00000010H

; 711  : 	int x;
; 712  : 	if (!PyTuple_GetInteger(poArgs, 0, &x))

  00006	8d 45 f8	 lea	 eax, DWORD PTR _x$[ebp]
  00009	56		 push	 esi
  0000a	8b 75 0c	 mov	 esi, DWORD PTR _poArgs$[ebp]
  0000d	50		 push	 eax
  0000e	6a 00		 push	 0
  00010	56		 push	 esi
  00011	e8 00 00 00 00	 call	 ?PyTuple_GetInteger@@YA_NPAU_object@@HPAH@Z ; PyTuple_GetInteger
  00016	83 c4 0c	 add	 esp, 12			; 0000000cH
  00019	84 c0		 test	 al, al
  0001b	75 0f		 jne	 SHORT $LN2@grpRenderU
$LN7@grpRenderU:

; 729  : }

  0001d	6a 00		 push	 0
  0001f	e8 00 00 00 00	 call	 ?Py_BuildException@@YAPAU_object@@PBDZZ ; Py_BuildException
  00024	83 c4 04	 add	 esp, 4
  00027	5e		 pop	 esi
  00028	8b e5		 mov	 esp, ebp
  0002a	5d		 pop	 ebp
  0002b	c3		 ret	 0
$LN2@grpRenderU:

; 713  : 		return Py_BuildException();
; 714  : 
; 715  : 	int y;
; 716  : 	if (!PyTuple_GetInteger(poArgs, 1, &y))

  0002c	8d 45 fc	 lea	 eax, DWORD PTR _y$[ebp]
  0002f	50		 push	 eax
  00030	6a 01		 push	 1
  00032	56		 push	 esi
  00033	e8 00 00 00 00	 call	 ?PyTuple_GetInteger@@YA_NPAU_object@@HPAH@Z ; PyTuple_GetInteger
  00038	83 c4 0c	 add	 esp, 12			; 0000000cH
  0003b	84 c0		 test	 al, al
  0003d	74 de		 je	 SHORT $LN7@grpRenderU

; 717  : 		return Py_BuildException();
; 718  : 
; 719  : 	int width;
; 720  : 	if (!PyTuple_GetInteger(poArgs, 2, &width))

  0003f	8d 45 f0	 lea	 eax, DWORD PTR _width$[ebp]
  00042	50		 push	 eax
  00043	6a 02		 push	 2
  00045	56		 push	 esi
  00046	e8 00 00 00 00	 call	 ?PyTuple_GetInteger@@YA_NPAU_object@@HPAH@Z ; PyTuple_GetInteger
  0004b	83 c4 0c	 add	 esp, 12			; 0000000cH
  0004e	84 c0		 test	 al, al
  00050	74 cb		 je	 SHORT $LN7@grpRenderU

; 721  : 		return Py_BuildException();
; 722  : 
; 723  : 	int height;
; 724  : 	if (!PyTuple_GetInteger(poArgs, 3, &height))

  00052	8d 45 f4	 lea	 eax, DWORD PTR _height$[ebp]
  00055	50		 push	 eax
  00056	6a 03		 push	 3
  00058	56		 push	 esi
  00059	e8 00 00 00 00	 call	 ?PyTuple_GetInteger@@YA_NPAU_object@@HPAH@Z ; PyTuple_GetInteger
  0005e	83 c4 0c	 add	 esp, 12			; 0000000cH
  00061	84 c0		 test	 al, al
  00063	74 b8		 je	 SHORT $LN7@grpRenderU

; 725  : 		return Py_BuildException();
; 726  : 
; 727  : 	CPythonGraphic::Instance().RenderUpButton((float) x, (float) y, (float) x+width, (float) y+height);

  00065	66 0f 6e 4d fc	 movd	 xmm1, DWORD PTR _y$[ebp]
  0006a	83 ec 10	 sub	 esp, 16			; 00000010H
  0006d	66 0f 6e 45 f4	 movd	 xmm0, DWORD PTR _height$[ebp]
  00072	66 0f 6e 55 f8	 movd	 xmm2, DWORD PTR _x$[ebp]
  00077	0f 5b c0	 cvtdq2ps xmm0, xmm0
  0007a	8b 0d 00 00 00
	00		 mov	 ecx, DWORD PTR ?ms_singleton@?$CSingleton@VCPythonGraphic@@@@0PAVCPythonGraphic@@A ; CSingleton<CPythonGraphic>::ms_singleton
  00080	0f 5b c9	 cvtdq2ps xmm1, xmm1
  00083	0f 5b d2	 cvtdq2ps xmm2, xmm2
  00086	f3 0f 58 c1	 addss	 xmm0, xmm1
  0008a	f3 0f 11 44 24
	0c		 movss	 DWORD PTR [esp+12], xmm0
  00090	66 0f 6e 45 f0	 movd	 xmm0, DWORD PTR _width$[ebp]
  00095	0f 5b c0	 cvtdq2ps xmm0, xmm0
  00098	f3 0f 58 c2	 addss	 xmm0, xmm2
  0009c	f3 0f 11 44 24
	08		 movss	 DWORD PTR [esp+8], xmm0
  000a2	f3 0f 11 4c 24
	04		 movss	 DWORD PTR [esp+4], xmm1
  000a8	f3 0f 11 14 24	 movss	 DWORD PTR [esp], xmm2
  000ad	e8 00 00 00 00	 call	 ?RenderUpButton@CPythonGraphic@@QAEXMMMM@Z ; CPythonGraphic::RenderUpButton

; 728  : 	return Py_BuildNone();

  000b2	e8 00 00 00 00	 call	 ?Py_BuildNone@@YAPAU_object@@XZ ; Py_BuildNone
  000b7	5e		 pop	 esi

; 729  : }

  000b8	8b e5		 mov	 esp, ebp
  000ba	5d		 pop	 ebp
  000bb	c3		 ret	 0
?grpRenderUpButton@@YAPAU_object@@PAU1@0@Z ENDP		; grpRenderUpButton
_TEXT	ENDS
; Function compile flags: /Ogtp
; File C:\DS Project\DS Files\Source\ClientSource\Client\eterPythonLib\PythonGraphicModule.cpp
;	COMDAT ?grpRenderDownButton@@YAPAU_object@@PAU1@0@Z
_TEXT	SEGMENT
_width$ = -16						; size = 4
_height$ = -12						; size = 4
_x$ = -8						; size = 4
_y$ = -4						; size = 4
_poSelf$ = 8						; size = 4
_poArgs$ = 12						; size = 4
?grpRenderDownButton@@YAPAU_object@@PAU1@0@Z PROC	; grpRenderDownButton, COMDAT

; 688  : {

  00000	55		 push	 ebp
  00001	8b ec		 mov	 ebp, esp
  00003	83 ec 10	 sub	 esp, 16			; 00000010H

; 689  : 	int x;
; 690  : 	if (!PyTuple_GetInteger(poArgs, 0, &x))

  00006	8d 45 f8	 lea	 eax, DWORD PTR _x$[ebp]
  00009	56		 push	 esi
  0000a	8b 75 0c	 mov	 esi, DWORD PTR _poArgs$[ebp]
  0000d	50		 push	 eax
  0000e	6a 00		 push	 0
  00010	56		 push	 esi
  00011	e8 00 00 00 00	 call	 ?PyTuple_GetInteger@@YA_NPAU_object@@HPAH@Z ; PyTuple_GetInteger
  00016	83 c4 0c	 add	 esp, 12			; 0000000cH
  00019	84 c0		 test	 al, al
  0001b	75 0f		 jne	 SHORT $LN2@grpRenderD
$LN7@grpRenderD:

; 707  : }

  0001d	6a 00		 push	 0
  0001f	e8 00 00 00 00	 call	 ?Py_BuildException@@YAPAU_object@@PBDZZ ; Py_BuildException
  00024	83 c4 04	 add	 esp, 4
  00027	5e		 pop	 esi
  00028	8b e5		 mov	 esp, ebp
  0002a	5d		 pop	 ebp
  0002b	c3		 ret	 0
$LN2@grpRenderD:

; 691  : 		return Py_BuildException();
; 692  : 
; 693  : 	int y;
; 694  : 	if (!PyTuple_GetInteger(poArgs, 1, &y))

  0002c	8d 45 fc	 lea	 eax, DWORD PTR _y$[ebp]
  0002f	50		 push	 eax
  00030	6a 01		 push	 1
  00032	56		 push	 esi
  00033	e8 00 00 00 00	 call	 ?PyTuple_GetInteger@@YA_NPAU_object@@HPAH@Z ; PyTuple_GetInteger
  00038	83 c4 0c	 add	 esp, 12			; 0000000cH
  0003b	84 c0		 test	 al, al
  0003d	74 de		 je	 SHORT $LN7@grpRenderD

; 695  : 		return Py_BuildException();
; 696  : 
; 697  : 	int width;
; 698  : 	if (!PyTuple_GetInteger(poArgs, 2, &width))

  0003f	8d 45 f0	 lea	 eax, DWORD PTR _width$[ebp]
  00042	50		 push	 eax
  00043	6a 02		 push	 2
  00045	56		 push	 esi
  00046	e8 00 00 00 00	 call	 ?PyTuple_GetInteger@@YA_NPAU_object@@HPAH@Z ; PyTuple_GetInteger
  0004b	83 c4 0c	 add	 esp, 12			; 0000000cH
  0004e	84 c0		 test	 al, al
  00050	74 cb		 je	 SHORT $LN7@grpRenderD

; 699  : 		return Py_BuildException();
; 700  : 
; 701  : 	int height;
; 702  : 	if (!PyTuple_GetInteger(poArgs, 3, &height))

  00052	8d 45 f4	 lea	 eax, DWORD PTR _height$[ebp]
  00055	50		 push	 eax
  00056	6a 03		 push	 3
  00058	56		 push	 esi
  00059	e8 00 00 00 00	 call	 ?PyTuple_GetInteger@@YA_NPAU_object@@HPAH@Z ; PyTuple_GetInteger
  0005e	83 c4 0c	 add	 esp, 12			; 0000000cH
  00061	84 c0		 test	 al, al
  00063	74 b8		 je	 SHORT $LN7@grpRenderD

; 703  : 		return Py_BuildException();
; 704  : 
; 705  : 	CPythonGraphic::Instance().RenderDownButton((float) x, (float) y, (float) x+width, (float) y+height);

  00065	66 0f 6e 4d fc	 movd	 xmm1, DWORD PTR _y$[ebp]
  0006a	83 ec 10	 sub	 esp, 16			; 00000010H
  0006d	66 0f 6e 45 f4	 movd	 xmm0, DWORD PTR _height$[ebp]
  00072	66 0f 6e 55 f8	 movd	 xmm2, DWORD PTR _x$[ebp]
  00077	0f 5b c0	 cvtdq2ps xmm0, xmm0
  0007a	8b 0d 00 00 00
	00		 mov	 ecx, DWORD PTR ?ms_singleton@?$CSingleton@VCPythonGraphic@@@@0PAVCPythonGraphic@@A ; CSingleton<CPythonGraphic>::ms_singleton
  00080	0f 5b c9	 cvtdq2ps xmm1, xmm1
  00083	0f 5b d2	 cvtdq2ps xmm2, xmm2
  00086	f3 0f 58 c1	 addss	 xmm0, xmm1
  0008a	f3 0f 11 44 24
	0c		 movss	 DWORD PTR [esp+12], xmm0
  00090	66 0f 6e 45 f0	 movd	 xmm0, DWORD PTR _width$[ebp]
  00095	0f 5b c0	 cvtdq2ps xmm0, xmm0
  00098	f3 0f 58 c2	 addss	 xmm0, xmm2
  0009c	f3 0f 11 44 24
	08		 movss	 DWORD PTR [esp+8], xmm0
  000a2	f3 0f 11 4c 24
	04		 movss	 DWORD PTR [esp+4], xmm1
  000a8	f3 0f 11 14 24	 movss	 DWORD PTR [esp], xmm2
  000ad	e8 00 00 00 00	 call	 ?RenderDownButton@CPythonGraphic@@QAEXMMMM@Z ; CPythonGraphic::RenderDownButton

; 706  : 	return Py_BuildNone();

  000b2	e8 00 00 00 00	 call	 ?Py_BuildNone@@YAPAU_object@@XZ ; Py_BuildNone
  000b7	5e		 pop	 esi

; 707  : }

  000b8	8b e5		 mov	 esp, ebp
  000ba	5d		 pop	 ebp
  000bb	c3		 ret	 0
?grpRenderDownButton@@YAPAU_object@@PAU1@0@Z ENDP	; grpRenderDownButton
_TEXT	ENDS
; Function compile flags: /Ogtp
; File C:\DS Project\DS Files\Source\ClientSource\Client\eterPythonLib\PythonGraphicModule.cpp
;	COMDAT ?grpRenderGradationBar@@YAPAU_object@@PAU1@0@Z
_TEXT	SEGMENT
_width$ = -24						; size = 4
_height$ = -20						; size = 4
_iStartColor$ = -16					; size = 4
_iEndColor$ = -12					; size = 4
_x$ = -8						; size = 4
_y$ = -4						; size = 4
_poSelf$ = 8						; size = 4
_poArgs$ = 12						; size = 4
?grpRenderGradationBar@@YAPAU_object@@PAU1@0@Z PROC	; grpRenderGradationBar, COMDAT

; 658  : {

  00000	55		 push	 ebp
  00001	8b ec		 mov	 ebp, esp
  00003	83 ec 18	 sub	 esp, 24			; 00000018H

; 659  : 	int x;
; 660  : 	if (!PyTuple_GetInteger(poArgs, 0, &x))

  00006	8d 45 f8	 lea	 eax, DWORD PTR _x$[ebp]
  00009	56		 push	 esi
  0000a	8b 75 0c	 mov	 esi, DWORD PTR _poArgs$[ebp]
  0000d	50		 push	 eax
  0000e	6a 00		 push	 0
  00010	56		 push	 esi
  00011	e8 00 00 00 00	 call	 ?PyTuple_GetInteger@@YA_NPAU_object@@HPAH@Z ; PyTuple_GetInteger
  00016	83 c4 0c	 add	 esp, 12			; 0000000cH
  00019	84 c0		 test	 al, al
  0001b	75 0a		 jne	 SHORT $LN2@grpRenderG
$LN9@grpRenderG:

; 685  : }

  0001d	e8 00 00 00 00	 call	 ?Py_BadArgument@@YAPAU_object@@XZ ; Py_BadArgument
  00022	5e		 pop	 esi
  00023	8b e5		 mov	 esp, ebp
  00025	5d		 pop	 ebp
  00026	c3		 ret	 0
$LN2@grpRenderG:

; 661  : 		return Py_BadArgument();
; 662  : 
; 663  : 	int y;
; 664  : 	if (!PyTuple_GetInteger(poArgs, 1, &y))

  00027	8d 45 fc	 lea	 eax, DWORD PTR _y$[ebp]
  0002a	50		 push	 eax
  0002b	6a 01		 push	 1
  0002d	56		 push	 esi
  0002e	e8 00 00 00 00	 call	 ?PyTuple_GetInteger@@YA_NPAU_object@@HPAH@Z ; PyTuple_GetInteger
  00033	83 c4 0c	 add	 esp, 12			; 0000000cH
  00036	84 c0		 test	 al, al
  00038	74 e3		 je	 SHORT $LN9@grpRenderG

; 665  : 		return Py_BadArgument();
; 666  : 
; 667  : 	int width;
; 668  : 	if (!PyTuple_GetInteger(poArgs, 2, &width))

  0003a	8d 45 e8	 lea	 eax, DWORD PTR _width$[ebp]
  0003d	50		 push	 eax
  0003e	6a 02		 push	 2
  00040	56		 push	 esi
  00041	e8 00 00 00 00	 call	 ?PyTuple_GetInteger@@YA_NPAU_object@@HPAH@Z ; PyTuple_GetInteger
  00046	83 c4 0c	 add	 esp, 12			; 0000000cH
  00049	84 c0		 test	 al, al
  0004b	74 d0		 je	 SHORT $LN9@grpRenderG

; 669  : 		return Py_BadArgument();
; 670  : 
; 671  : 	int height;
; 672  : 	if (!PyTuple_GetInteger(poArgs, 3, &height))

  0004d	8d 45 ec	 lea	 eax, DWORD PTR _height$[ebp]
  00050	50		 push	 eax
  00051	6a 03		 push	 3
  00053	56		 push	 esi
  00054	e8 00 00 00 00	 call	 ?PyTuple_GetInteger@@YA_NPAU_object@@HPAH@Z ; PyTuple_GetInteger
  00059	83 c4 0c	 add	 esp, 12			; 0000000cH
  0005c	84 c0		 test	 al, al
  0005e	74 bd		 je	 SHORT $LN9@grpRenderG

; 673  : 		return Py_BadArgument();
; 674  : 
; 675  : 	int iStartColor;
; 676  : 	if (!PyTuple_GetInteger(poArgs, 4, &iStartColor))

  00060	8d 45 f0	 lea	 eax, DWORD PTR _iStartColor$[ebp]
  00063	50		 push	 eax
  00064	6a 04		 push	 4
  00066	56		 push	 esi
  00067	e8 00 00 00 00	 call	 ?PyTuple_GetInteger@@YA_NPAU_object@@HPAH@Z ; PyTuple_GetInteger
  0006c	83 c4 0c	 add	 esp, 12			; 0000000cH
  0006f	84 c0		 test	 al, al
  00071	74 aa		 je	 SHORT $LN9@grpRenderG

; 677  : 		return Py_BadArgument();
; 678  : 
; 679  : 	int iEndColor;
; 680  : 	if (!PyTuple_GetInteger(poArgs, 5, &iEndColor))

  00073	8d 45 f4	 lea	 eax, DWORD PTR _iEndColor$[ebp]
  00076	50		 push	 eax
  00077	6a 05		 push	 5
  00079	56		 push	 esi
  0007a	e8 00 00 00 00	 call	 ?PyTuple_GetInteger@@YA_NPAU_object@@HPAH@Z ; PyTuple_GetInteger
  0007f	83 c4 0c	 add	 esp, 12			; 0000000cH
  00082	84 c0		 test	 al, al
  00084	74 97		 je	 SHORT $LN9@grpRenderG

; 681  : 		return Py_BadArgument();
; 682  : 
; 683  : 	CPythonGraphic::Instance().RenderGradationBar2d((float)x, (float)y, (float)x+width, (float)y+height, iStartColor, iEndColor);

  00086	66 0f 6e 4d fc	 movd	 xmm1, DWORD PTR _y$[ebp]
  0008b	66 0f 6e 45 ec	 movd	 xmm0, DWORD PTR _height$[ebp]
  00090	66 0f 6e 55 f8	 movd	 xmm2, DWORD PTR _x$[ebp]
  00095	51		 push	 ecx
  00096	c7 04 24 00 00
	00 00		 mov	 DWORD PTR [esp], 0
  0009d	ff 75 f4	 push	 DWORD PTR _iEndColor$[ebp]
  000a0	0f 5b c0	 cvtdq2ps xmm0, xmm0
  000a3	8b 0d 00 00 00
	00		 mov	 ecx, DWORD PTR ?ms_singleton@?$CSingleton@VCPythonGraphic@@@@0PAVCPythonGraphic@@A ; CSingleton<CPythonGraphic>::ms_singleton
  000a9	ff 75 f0	 push	 DWORD PTR _iStartColor$[ebp]
  000ac	0f 5b c9	 cvtdq2ps xmm1, xmm1
  000af	83 ec 10	 sub	 esp, 16			; 00000010H
  000b2	0f 5b d2	 cvtdq2ps xmm2, xmm2
  000b5	f3 0f 58 c1	 addss	 xmm0, xmm1
  000b9	f3 0f 11 44 24
	0c		 movss	 DWORD PTR [esp+12], xmm0
  000bf	66 0f 6e 45 e8	 movd	 xmm0, DWORD PTR _width$[ebp]
  000c4	0f 5b c0	 cvtdq2ps xmm0, xmm0
  000c7	f3 0f 58 c2	 addss	 xmm0, xmm2
  000cb	f3 0f 11 44 24
	08		 movss	 DWORD PTR [esp+8], xmm0
  000d1	f3 0f 11 4c 24
	04		 movss	 DWORD PTR [esp+4], xmm1
  000d7	f3 0f 11 14 24	 movss	 DWORD PTR [esp], xmm2
  000dc	e8 00 00 00 00	 call	 ?RenderGradationBar2d@CScreen@@QAEXMMMMKKM@Z ; CScreen::RenderGradationBar2d

; 684  : 	return Py_BuildNone();

  000e1	e8 00 00 00 00	 call	 ?Py_BuildNone@@YAPAU_object@@XZ ; Py_BuildNone
  000e6	5e		 pop	 esi

; 685  : }

  000e7	8b e5		 mov	 esp, ebp
  000e9	5d		 pop	 ebp
  000ea	c3		 ret	 0
?grpRenderGradationBar@@YAPAU_object@@PAU1@0@Z ENDP	; grpRenderGradationBar
_TEXT	ENDS
; Function compile flags: /Ogtp
; File C:\DS Project\DS Files\Source\ClientSource\Client\eterPythonLib\PythonGraphicModule.cpp
;	COMDAT ?grpRenderBar3d@@YAPAU_object@@PAU1@0@Z
_TEXT	SEGMENT
_sx$ = -24						; size = 4
_sy$ = -20						; size = 4
_sz$ = -16						; size = 4
_ex$ = -12						; size = 4
_ey$ = -8						; size = 4
_ez$ = -4						; size = 4
_poSelf$ = 8						; size = 4
_poArgs$ = 12						; size = 4
?grpRenderBar3d@@YAPAU_object@@PAU1@0@Z PROC		; grpRenderBar3d, COMDAT

; 628  : {

  00000	55		 push	 ebp
  00001	8b ec		 mov	 ebp, esp
  00003	83 ec 18	 sub	 esp, 24			; 00000018H

; 629  : 	int sx;
; 630  : 	if (!PyTuple_GetInteger(poArgs, 0, &sx))

  00006	8d 45 e8	 lea	 eax, DWORD PTR _sx$[ebp]
  00009	56		 push	 esi
  0000a	8b 75 0c	 mov	 esi, DWORD PTR _poArgs$[ebp]
  0000d	50		 push	 eax
  0000e	6a 00		 push	 0
  00010	56		 push	 esi
  00011	e8 00 00 00 00	 call	 ?PyTuple_GetInteger@@YA_NPAU_object@@HPAH@Z ; PyTuple_GetInteger
  00016	83 c4 0c	 add	 esp, 12			; 0000000cH
  00019	84 c0		 test	 al, al
  0001b	75 0f		 jne	 SHORT $LN2@grpRenderB
$LN9@grpRenderB:

; 655  : }

  0001d	6a 00		 push	 0
  0001f	e8 00 00 00 00	 call	 ?Py_BuildException@@YAPAU_object@@PBDZZ ; Py_BuildException
  00024	83 c4 04	 add	 esp, 4
  00027	5e		 pop	 esi
  00028	8b e5		 mov	 esp, ebp
  0002a	5d		 pop	 ebp
  0002b	c3		 ret	 0
$LN2@grpRenderB:

; 631  : 		return Py_BuildException();
; 632  : 
; 633  : 	int sy;
; 634  : 	if (!PyTuple_GetInteger(poArgs, 1, &sy))

  0002c	8d 45 ec	 lea	 eax, DWORD PTR _sy$[ebp]
  0002f	50		 push	 eax
  00030	6a 01		 push	 1
  00032	56		 push	 esi
  00033	e8 00 00 00 00	 call	 ?PyTuple_GetInteger@@YA_NPAU_object@@HPAH@Z ; PyTuple_GetInteger
  00038	83 c4 0c	 add	 esp, 12			; 0000000cH
  0003b	84 c0		 test	 al, al
  0003d	74 de		 je	 SHORT $LN9@grpRenderB

; 635  : 		return Py_BuildException();
; 636  : 
; 637  : 	int sz;
; 638  : 	if (!PyTuple_GetInteger(poArgs, 2, &sz))

  0003f	8d 45 f0	 lea	 eax, DWORD PTR _sz$[ebp]
  00042	50		 push	 eax
  00043	6a 02		 push	 2
  00045	56		 push	 esi
  00046	e8 00 00 00 00	 call	 ?PyTuple_GetInteger@@YA_NPAU_object@@HPAH@Z ; PyTuple_GetInteger
  0004b	83 c4 0c	 add	 esp, 12			; 0000000cH
  0004e	84 c0		 test	 al, al
  00050	74 cb		 je	 SHORT $LN9@grpRenderB

; 639  : 		return Py_BuildException();
; 640  : 
; 641  : 	int ex;
; 642  : 	if (!PyTuple_GetInteger(poArgs, 3, &ex))

  00052	8d 45 f4	 lea	 eax, DWORD PTR _ex$[ebp]
  00055	50		 push	 eax
  00056	6a 03		 push	 3
  00058	56		 push	 esi
  00059	e8 00 00 00 00	 call	 ?PyTuple_GetInteger@@YA_NPAU_object@@HPAH@Z ; PyTuple_GetInteger
  0005e	83 c4 0c	 add	 esp, 12			; 0000000cH
  00061	84 c0		 test	 al, al
  00063	74 b8		 je	 SHORT $LN9@grpRenderB

; 643  : 		return Py_BuildException();
; 644  : 
; 645  : 	int ey;
; 646  : 	if (!PyTuple_GetInteger(poArgs, 4, &ey))

  00065	8d 45 f8	 lea	 eax, DWORD PTR _ey$[ebp]
  00068	50		 push	 eax
  00069	6a 04		 push	 4
  0006b	56		 push	 esi
  0006c	e8 00 00 00 00	 call	 ?PyTuple_GetInteger@@YA_NPAU_object@@HPAH@Z ; PyTuple_GetInteger
  00071	83 c4 0c	 add	 esp, 12			; 0000000cH
  00074	84 c0		 test	 al, al
  00076	74 a5		 je	 SHORT $LN9@grpRenderB

; 647  : 		return Py_BuildException();
; 648  : 
; 649  : 	int ez;
; 650  : 	if (!PyTuple_GetInteger(poArgs, 5, &ez))

  00078	8d 45 fc	 lea	 eax, DWORD PTR _ez$[ebp]
  0007b	50		 push	 eax
  0007c	6a 05		 push	 5
  0007e	56		 push	 esi
  0007f	e8 00 00 00 00	 call	 ?PyTuple_GetInteger@@YA_NPAU_object@@HPAH@Z ; PyTuple_GetInteger
  00084	83 c4 0c	 add	 esp, 12			; 0000000cH
  00087	84 c0		 test	 al, al
  00089	74 92		 je	 SHORT $LN9@grpRenderB

; 651  : 		return Py_BuildException();
; 652  : 
; 653  : 	CPythonGraphic::Instance().RenderBar3d(sx, sy, sz, ex, ey, ez);

  0008b	66 0f 6e 45 fc	 movd	 xmm0, DWORD PTR _ez$[ebp]
  00090	83 ec 18	 sub	 esp, 24			; 00000018H
  00093	0f 5b c0	 cvtdq2ps xmm0, xmm0
  00096	8b 0d 00 00 00
	00		 mov	 ecx, DWORD PTR ?ms_singleton@?$CSingleton@VCPythonGraphic@@@@0PAVCPythonGraphic@@A ; CSingleton<CPythonGraphic>::ms_singleton
  0009c	f3 0f 11 44 24
	14		 movss	 DWORD PTR [esp+20], xmm0
  000a2	66 0f 6e 45 f8	 movd	 xmm0, DWORD PTR _ey$[ebp]
  000a7	0f 5b c0	 cvtdq2ps xmm0, xmm0
  000aa	f3 0f 11 44 24
	10		 movss	 DWORD PTR [esp+16], xmm0
  000b0	66 0f 6e 45 f4	 movd	 xmm0, DWORD PTR _ex$[ebp]
  000b5	0f 5b c0	 cvtdq2ps xmm0, xmm0
  000b8	f3 0f 11 44 24
	0c		 movss	 DWORD PTR [esp+12], xmm0
  000be	66 0f 6e 45 f0	 movd	 xmm0, DWORD PTR _sz$[ebp]
  000c3	0f 5b c0	 cvtdq2ps xmm0, xmm0
  000c6	f3 0f 11 44 24
	08		 movss	 DWORD PTR [esp+8], xmm0
  000cc	66 0f 6e 45 ec	 movd	 xmm0, DWORD PTR _sy$[ebp]
  000d1	0f 5b c0	 cvtdq2ps xmm0, xmm0
  000d4	f3 0f 11 44 24
	04		 movss	 DWORD PTR [esp+4], xmm0
  000da	66 0f 6e 45 e8	 movd	 xmm0, DWORD PTR _sx$[ebp]
  000df	0f 5b c0	 cvtdq2ps xmm0, xmm0
  000e2	f3 0f 11 04 24	 movss	 DWORD PTR [esp], xmm0
  000e7	e8 00 00 00 00	 call	 ?RenderBar3d@CScreen@@QAEXMMMMMM@Z ; CScreen::RenderBar3d

; 654  : 	return Py_BuildNone();

  000ec	e8 00 00 00 00	 call	 ?Py_BuildNone@@YAPAU_object@@XZ ; Py_BuildNone
  000f1	5e		 pop	 esi

; 655  : }

  000f2	8b e5		 mov	 esp, ebp
  000f4	5d		 pop	 ebp
  000f5	c3		 ret	 0
?grpRenderBar3d@@YAPAU_object@@PAU1@0@Z ENDP		; grpRenderBar3d
_TEXT	ENDS
; Function compile flags: /Ogtp
; File C:\DS Project\DS Files\Source\ClientSource\Client\eterPythonLib\PythonGraphicModule.cpp
;	COMDAT ?grpRenderCube@@YAPAU_object@@PAU1@0@Z
_TEXT	SEGMENT
_sx$ = -24						; size = 4
_sy$ = -20						; size = 4
_sz$ = -16						; size = 4
_ex$ = -12						; size = 4
_ey$ = -8						; size = 4
_ez$ = -4						; size = 4
_poSelf$ = 8						; size = 4
_poArgs$ = 12						; size = 4
?grpRenderCube@@YAPAU_object@@PAU1@0@Z PROC		; grpRenderCube, COMDAT

; 598  : {

  00000	55		 push	 ebp
  00001	8b ec		 mov	 ebp, esp
  00003	83 ec 18	 sub	 esp, 24			; 00000018H

; 599  : 	float sx;
; 600  : 	if (!PyTuple_GetFloat(poArgs, 0, &sx))

  00006	8d 45 e8	 lea	 eax, DWORD PTR _sx$[ebp]
  00009	56		 push	 esi
  0000a	8b 75 0c	 mov	 esi, DWORD PTR _poArgs$[ebp]
  0000d	50		 push	 eax
  0000e	6a 00		 push	 0
  00010	56		 push	 esi
  00011	e8 00 00 00 00	 call	 ?PyTuple_GetFloat@@YA_NPAU_object@@HPAM@Z ; PyTuple_GetFloat
  00016	83 c4 0c	 add	 esp, 12			; 0000000cH
  00019	84 c0		 test	 al, al
  0001b	75 0f		 jne	 SHORT $LN2@grpRenderC
$LN9@grpRenderC:

; 625  : }

  0001d	6a 00		 push	 0
  0001f	e8 00 00 00 00	 call	 ?Py_BuildException@@YAPAU_object@@PBDZZ ; Py_BuildException
  00024	83 c4 04	 add	 esp, 4
  00027	5e		 pop	 esi
  00028	8b e5		 mov	 esp, ebp
  0002a	5d		 pop	 ebp
  0002b	c3		 ret	 0
$LN2@grpRenderC:

; 601  : 		return Py_BuildException();
; 602  : 
; 603  : 	float sy;
; 604  : 	if (!PyTuple_GetFloat(poArgs, 1, &sy))

  0002c	8d 45 ec	 lea	 eax, DWORD PTR _sy$[ebp]
  0002f	50		 push	 eax
  00030	6a 01		 push	 1
  00032	56		 push	 esi
  00033	e8 00 00 00 00	 call	 ?PyTuple_GetFloat@@YA_NPAU_object@@HPAM@Z ; PyTuple_GetFloat
  00038	83 c4 0c	 add	 esp, 12			; 0000000cH
  0003b	84 c0		 test	 al, al
  0003d	74 de		 je	 SHORT $LN9@grpRenderC

; 605  : 		return Py_BuildException();
; 606  : 
; 607  : 	float sz;
; 608  : 	if (!PyTuple_GetFloat(poArgs, 2, &sz))

  0003f	8d 45 f0	 lea	 eax, DWORD PTR _sz$[ebp]
  00042	50		 push	 eax
  00043	6a 02		 push	 2
  00045	56		 push	 esi
  00046	e8 00 00 00 00	 call	 ?PyTuple_GetFloat@@YA_NPAU_object@@HPAM@Z ; PyTuple_GetFloat
  0004b	83 c4 0c	 add	 esp, 12			; 0000000cH
  0004e	84 c0		 test	 al, al
  00050	74 cb		 je	 SHORT $LN9@grpRenderC

; 609  : 		return Py_BuildException();
; 610  : 
; 611  : 	float ex;
; 612  : 	if (!PyTuple_GetFloat(poArgs, 3, &ex))

  00052	8d 45 f4	 lea	 eax, DWORD PTR _ex$[ebp]
  00055	50		 push	 eax
  00056	6a 03		 push	 3
  00058	56		 push	 esi
  00059	e8 00 00 00 00	 call	 ?PyTuple_GetFloat@@YA_NPAU_object@@HPAM@Z ; PyTuple_GetFloat
  0005e	83 c4 0c	 add	 esp, 12			; 0000000cH
  00061	84 c0		 test	 al, al
  00063	74 b8		 je	 SHORT $LN9@grpRenderC

; 613  : 		return Py_BuildException();
; 614  : 
; 615  : 	float ey;
; 616  : 	if (!PyTuple_GetFloat(poArgs, 4, &ey))

  00065	8d 45 f8	 lea	 eax, DWORD PTR _ey$[ebp]
  00068	50		 push	 eax
  00069	6a 04		 push	 4
  0006b	56		 push	 esi
  0006c	e8 00 00 00 00	 call	 ?PyTuple_GetFloat@@YA_NPAU_object@@HPAM@Z ; PyTuple_GetFloat
  00071	83 c4 0c	 add	 esp, 12			; 0000000cH
  00074	84 c0		 test	 al, al
  00076	74 a5		 je	 SHORT $LN9@grpRenderC

; 617  : 		return Py_BuildException();
; 618  : 
; 619  : 	float ez;
; 620  : 	if (!PyTuple_GetFloat(poArgs, 5, &ez))

  00078	8d 45 fc	 lea	 eax, DWORD PTR _ez$[ebp]
  0007b	50		 push	 eax
  0007c	6a 05		 push	 5
  0007e	56		 push	 esi
  0007f	e8 00 00 00 00	 call	 ?PyTuple_GetFloat@@YA_NPAU_object@@HPAM@Z ; PyTuple_GetFloat
  00084	83 c4 0c	 add	 esp, 12			; 0000000cH
  00087	84 c0		 test	 al, al
  00089	74 92		 je	 SHORT $LN9@grpRenderC

; 621  : 		return Py_BuildException();
; 622  : 
; 623  : 	CPythonGraphic::Instance().RenderCube(sx, sy, sz, ex, ey, ez);

  0008b	f3 0f 10 45 fc	 movss	 xmm0, DWORD PTR _ez$[ebp]
  00090	83 ec 18	 sub	 esp, 24			; 00000018H
  00093	8b 0d 00 00 00
	00		 mov	 ecx, DWORD PTR ?ms_singleton@?$CSingleton@VCPythonGraphic@@@@0PAVCPythonGraphic@@A ; CSingleton<CPythonGraphic>::ms_singleton
  00099	f3 0f 11 44 24
	14		 movss	 DWORD PTR [esp+20], xmm0
  0009f	f3 0f 10 45 f8	 movss	 xmm0, DWORD PTR _ey$[ebp]
  000a4	f3 0f 11 44 24
	10		 movss	 DWORD PTR [esp+16], xmm0
  000aa	f3 0f 10 45 f4	 movss	 xmm0, DWORD PTR _ex$[ebp]
  000af	f3 0f 11 44 24
	0c		 movss	 DWORD PTR [esp+12], xmm0
  000b5	f3 0f 10 45 f0	 movss	 xmm0, DWORD PTR _sz$[ebp]
  000ba	f3 0f 11 44 24
	08		 movss	 DWORD PTR [esp+8], xmm0
  000c0	f3 0f 10 45 ec	 movss	 xmm0, DWORD PTR _sy$[ebp]
  000c5	f3 0f 11 44 24
	04		 movss	 DWORD PTR [esp+4], xmm0
  000cb	f3 0f 10 45 e8	 movss	 xmm0, DWORD PTR _sx$[ebp]
  000d0	f3 0f 11 04 24	 movss	 DWORD PTR [esp], xmm0
  000d5	e8 00 00 00 00	 call	 ?RenderCube@CScreen@@QAEXMMMMMM@Z ; CScreen::RenderCube

; 624  : 	return Py_BuildNone();

  000da	e8 00 00 00 00	 call	 ?Py_BuildNone@@YAPAU_object@@XZ ; Py_BuildNone
  000df	5e		 pop	 esi

; 625  : }

  000e0	8b e5		 mov	 esp, ebp
  000e2	5d		 pop	 ebp
  000e3	c3		 ret	 0
?grpRenderCube@@YAPAU_object@@PAU1@0@Z ENDP		; grpRenderCube
_TEXT	ENDS
; Function compile flags: /Ogtp
; File C:\DS Project\DS Files\Source\ClientSource\Client\eterPythonLib\PythonGraphicModule.cpp
;	COMDAT ?grpRenderBar@@YAPAU_object@@PAU1@0@Z
_TEXT	SEGMENT
_width$ = -16						; size = 4
_height$ = -12						; size = 4
_x$ = -8						; size = 4
_y$ = -4						; size = 4
_poSelf$ = 8						; size = 4
_poArgs$ = 12						; size = 4
?grpRenderBar@@YAPAU_object@@PAU1@0@Z PROC		; grpRenderBar, COMDAT

; 576  : {

  00000	55		 push	 ebp
  00001	8b ec		 mov	 ebp, esp
  00003	83 ec 10	 sub	 esp, 16			; 00000010H

; 577  : 	int x;
; 578  : 	if (!PyTuple_GetInteger(poArgs, 0, &x))

  00006	8d 45 f8	 lea	 eax, DWORD PTR _x$[ebp]
  00009	56		 push	 esi
  0000a	8b 75 0c	 mov	 esi, DWORD PTR _poArgs$[ebp]
  0000d	50		 push	 eax
  0000e	6a 00		 push	 0
  00010	56		 push	 esi
  00011	e8 00 00 00 00	 call	 ?PyTuple_GetInteger@@YA_NPAU_object@@HPAH@Z ; PyTuple_GetInteger
  00016	83 c4 0c	 add	 esp, 12			; 0000000cH
  00019	84 c0		 test	 al, al
  0001b	75 0f		 jne	 SHORT $LN2@grpRenderB
$LN7@grpRenderB:

; 595  : }

  0001d	6a 00		 push	 0
  0001f	e8 00 00 00 00	 call	 ?Py_BuildException@@YAPAU_object@@PBDZZ ; Py_BuildException
  00024	83 c4 04	 add	 esp, 4
  00027	5e		 pop	 esi
  00028	8b e5		 mov	 esp, ebp
  0002a	5d		 pop	 ebp
  0002b	c3		 ret	 0
$LN2@grpRenderB:

; 579  : 		return Py_BuildException();
; 580  : 
; 581  : 	int y;
; 582  : 	if (!PyTuple_GetInteger(poArgs, 1, &y))

  0002c	8d 45 fc	 lea	 eax, DWORD PTR _y$[ebp]
  0002f	50		 push	 eax
  00030	6a 01		 push	 1
  00032	56		 push	 esi
  00033	e8 00 00 00 00	 call	 ?PyTuple_GetInteger@@YA_NPAU_object@@HPAH@Z ; PyTuple_GetInteger
  00038	83 c4 0c	 add	 esp, 12			; 0000000cH
  0003b	84 c0		 test	 al, al
  0003d	74 de		 je	 SHORT $LN7@grpRenderB

; 583  : 		return Py_BuildException();
; 584  : 
; 585  : 	int width;
; 586  : 	if (!PyTuple_GetInteger(poArgs, 2, &width))

  0003f	8d 45 f0	 lea	 eax, DWORD PTR _width$[ebp]
  00042	50		 push	 eax
  00043	6a 02		 push	 2
  00045	56		 push	 esi
  00046	e8 00 00 00 00	 call	 ?PyTuple_GetInteger@@YA_NPAU_object@@HPAH@Z ; PyTuple_GetInteger
  0004b	83 c4 0c	 add	 esp, 12			; 0000000cH
  0004e	84 c0		 test	 al, al
  00050	74 cb		 je	 SHORT $LN7@grpRenderB

; 587  : 		return Py_BuildException();
; 588  : 
; 589  : 	int height;
; 590  : 	if (!PyTuple_GetInteger(poArgs, 3, &height))

  00052	8d 45 f4	 lea	 eax, DWORD PTR _height$[ebp]
  00055	50		 push	 eax
  00056	6a 03		 push	 3
  00058	56		 push	 esi
  00059	e8 00 00 00 00	 call	 ?PyTuple_GetInteger@@YA_NPAU_object@@HPAH@Z ; PyTuple_GetInteger
  0005e	83 c4 0c	 add	 esp, 12			; 0000000cH
  00061	84 c0		 test	 al, al
  00063	74 b8		 je	 SHORT $LN7@grpRenderB

; 591  : 		return Py_BuildException();
; 592  : 
; 593  : 	CPythonGraphic::Instance().RenderBar2d((float) x, (float) y, (float) x+width, (float) y+height);

  00065	66 0f 6e 4d fc	 movd	 xmm1, DWORD PTR _y$[ebp]
  0006a	83 ec 14	 sub	 esp, 20			; 00000014H
  0006d	66 0f 6e 45 f4	 movd	 xmm0, DWORD PTR _height$[ebp]
  00072	66 0f 6e 55 f8	 movd	 xmm2, DWORD PTR _x$[ebp]
  00077	0f 5b c0	 cvtdq2ps xmm0, xmm0
  0007a	8b 0d 00 00 00
	00		 mov	 ecx, DWORD PTR ?ms_singleton@?$CSingleton@VCPythonGraphic@@@@0PAVCPythonGraphic@@A ; CSingleton<CPythonGraphic>::ms_singleton
  00080	c7 44 24 10 00
	00 00 00	 mov	 DWORD PTR [esp+16], 0
  00088	0f 5b c9	 cvtdq2ps xmm1, xmm1
  0008b	0f 5b d2	 cvtdq2ps xmm2, xmm2
  0008e	f3 0f 58 c1	 addss	 xmm0, xmm1
  00092	f3 0f 11 44 24
	0c		 movss	 DWORD PTR [esp+12], xmm0
  00098	66 0f 6e 45 f0	 movd	 xmm0, DWORD PTR _width$[ebp]
  0009d	0f 5b c0	 cvtdq2ps xmm0, xmm0
  000a0	f3 0f 58 c2	 addss	 xmm0, xmm2
  000a4	f3 0f 11 44 24
	08		 movss	 DWORD PTR [esp+8], xmm0
  000aa	f3 0f 11 4c 24
	04		 movss	 DWORD PTR [esp+4], xmm1
  000b0	f3 0f 11 14 24	 movss	 DWORD PTR [esp], xmm2
  000b5	e8 00 00 00 00	 call	 ?RenderBar2d@CScreen@@QAEXMMMMM@Z ; CScreen::RenderBar2d

; 594  : 	return Py_BuildNone();

  000ba	e8 00 00 00 00	 call	 ?Py_BuildNone@@YAPAU_object@@XZ ; Py_BuildNone
  000bf	5e		 pop	 esi

; 595  : }

  000c0	8b e5		 mov	 esp, ebp
  000c2	5d		 pop	 ebp
  000c3	c3		 ret	 0
?grpRenderBar@@YAPAU_object@@PAU1@0@Z ENDP		; grpRenderBar
_TEXT	ENDS
; Function compile flags: /Ogtp
; File C:\DS Project\DS Files\Source\ClientSource\Client\eterPythonLib\PythonGraphicModule.cpp
;	COMDAT ?grpRenderBox@@YAPAU_object@@PAU1@0@Z
_TEXT	SEGMENT
_width$ = -16						; size = 4
_height$ = -12						; size = 4
_x$ = -8						; size = 4
_y$ = -4						; size = 4
_poSelf$ = 8						; size = 4
_poArgs$ = 12						; size = 4
?grpRenderBox@@YAPAU_object@@PAU1@0@Z PROC		; grpRenderBox, COMDAT

; 554  : {

  00000	55		 push	 ebp
  00001	8b ec		 mov	 ebp, esp
  00003	83 ec 10	 sub	 esp, 16			; 00000010H

; 555  : 	int x;
; 556  : 	if (!PyTuple_GetInteger(poArgs, 0, &x))

  00006	8d 45 f8	 lea	 eax, DWORD PTR _x$[ebp]
  00009	56		 push	 esi
  0000a	8b 75 0c	 mov	 esi, DWORD PTR _poArgs$[ebp]
  0000d	50		 push	 eax
  0000e	6a 00		 push	 0
  00010	56		 push	 esi
  00011	e8 00 00 00 00	 call	 ?PyTuple_GetInteger@@YA_NPAU_object@@HPAH@Z ; PyTuple_GetInteger
  00016	83 c4 0c	 add	 esp, 12			; 0000000cH
  00019	84 c0		 test	 al, al
  0001b	75 0f		 jne	 SHORT $LN2@grpRenderB
$LN7@grpRenderB:

; 573  : }

  0001d	6a 00		 push	 0
  0001f	e8 00 00 00 00	 call	 ?Py_BuildException@@YAPAU_object@@PBDZZ ; Py_BuildException
  00024	83 c4 04	 add	 esp, 4
  00027	5e		 pop	 esi
  00028	8b e5		 mov	 esp, ebp
  0002a	5d		 pop	 ebp
  0002b	c3		 ret	 0
$LN2@grpRenderB:

; 557  : 		return Py_BuildException();
; 558  : 
; 559  : 	int y;
; 560  : 	if (!PyTuple_GetInteger(poArgs, 1, &y))

  0002c	8d 45 fc	 lea	 eax, DWORD PTR _y$[ebp]
  0002f	50		 push	 eax
  00030	6a 01		 push	 1
  00032	56		 push	 esi
  00033	e8 00 00 00 00	 call	 ?PyTuple_GetInteger@@YA_NPAU_object@@HPAH@Z ; PyTuple_GetInteger
  00038	83 c4 0c	 add	 esp, 12			; 0000000cH
  0003b	84 c0		 test	 al, al
  0003d	74 de		 je	 SHORT $LN7@grpRenderB

; 561  : 		return Py_BuildException();
; 562  : 
; 563  : 	int width;
; 564  : 	if (!PyTuple_GetInteger(poArgs, 2, &width))

  0003f	8d 45 f0	 lea	 eax, DWORD PTR _width$[ebp]
  00042	50		 push	 eax
  00043	6a 02		 push	 2
  00045	56		 push	 esi
  00046	e8 00 00 00 00	 call	 ?PyTuple_GetInteger@@YA_NPAU_object@@HPAH@Z ; PyTuple_GetInteger
  0004b	83 c4 0c	 add	 esp, 12			; 0000000cH
  0004e	84 c0		 test	 al, al
  00050	74 cb		 je	 SHORT $LN7@grpRenderB

; 565  : 		return Py_BuildException();
; 566  : 
; 567  : 	int height;
; 568  : 	if (!PyTuple_GetInteger(poArgs, 3, &height))

  00052	8d 45 f4	 lea	 eax, DWORD PTR _height$[ebp]
  00055	50		 push	 eax
  00056	6a 03		 push	 3
  00058	56		 push	 esi
  00059	e8 00 00 00 00	 call	 ?PyTuple_GetInteger@@YA_NPAU_object@@HPAH@Z ; PyTuple_GetInteger
  0005e	83 c4 0c	 add	 esp, 12			; 0000000cH
  00061	84 c0		 test	 al, al
  00063	74 b8		 je	 SHORT $LN7@grpRenderB

; 569  : 		return Py_BuildException();
; 570  : 
; 571  : 	CPythonGraphic::Instance().RenderBox2d((float) x, (float) y, (float) x+width, (float) y+height);

  00065	66 0f 6e 4d fc	 movd	 xmm1, DWORD PTR _y$[ebp]
  0006a	83 ec 14	 sub	 esp, 20			; 00000014H
  0006d	66 0f 6e 45 f4	 movd	 xmm0, DWORD PTR _height$[ebp]
  00072	66 0f 6e 55 f8	 movd	 xmm2, DWORD PTR _x$[ebp]
  00077	0f 5b c0	 cvtdq2ps xmm0, xmm0
  0007a	8b 0d 00 00 00
	00		 mov	 ecx, DWORD PTR ?ms_singleton@?$CSingleton@VCPythonGraphic@@@@0PAVCPythonGraphic@@A ; CSingleton<CPythonGraphic>::ms_singleton
  00080	c7 44 24 10 00
	00 00 00	 mov	 DWORD PTR [esp+16], 0
  00088	0f 5b c9	 cvtdq2ps xmm1, xmm1
  0008b	0f 5b d2	 cvtdq2ps xmm2, xmm2
  0008e	f3 0f 58 c1	 addss	 xmm0, xmm1
  00092	f3 0f 11 44 24
	0c		 movss	 DWORD PTR [esp+12], xmm0
  00098	66 0f 6e 45 f0	 movd	 xmm0, DWORD PTR _width$[ebp]
  0009d	0f 5b c0	 cvtdq2ps xmm0, xmm0
  000a0	f3 0f 58 c2	 addss	 xmm0, xmm2
  000a4	f3 0f 11 44 24
	08		 movss	 DWORD PTR [esp+8], xmm0
  000aa	f3 0f 11 4c 24
	04		 movss	 DWORD PTR [esp+4], xmm1
  000b0	f3 0f 11 14 24	 movss	 DWORD PTR [esp], xmm2
  000b5	e8 00 00 00 00	 call	 ?RenderBox2d@CScreen@@QAEXMMMMM@Z ; CScreen::RenderBox2d

; 572  : 	return Py_BuildNone();

  000ba	e8 00 00 00 00	 call	 ?Py_BuildNone@@YAPAU_object@@XZ ; Py_BuildNone
  000bf	5e		 pop	 esi

; 573  : }

  000c0	8b e5		 mov	 esp, ebp
  000c2	5d		 pop	 ebp
  000c3	c3		 ret	 0
?grpRenderBox@@YAPAU_object@@PAU1@0@Z ENDP		; grpRenderBox
_TEXT	ENDS
; Function compile flags: /Ogtp
; File C:\DS Project\DS Files\Source\ClientSource\Client\eterPythonLib\PythonGraphicModule.cpp
;	COMDAT ?grpRenderRoundBox@@YAPAU_object@@PAU1@0@Z
_TEXT	SEGMENT
_height$ = -44						; size = 4
_width$ = -40						; size = 4
_y$ = -36						; size = 4
_x$ = -32						; size = 4
tv273 = -28						; size = 4
tv367 = -24						; size = 4
tv279 = -24						; size = 4
tv283 = -20						; size = 4
tv272 = -20						; size = 4
tv275 = -16						; size = 4
_fHeight$1$ = -16					; size = 4
_fWidth$1$ = -12					; size = 4
_fx$1$ = -8						; size = 4
_fy$1$ = -4						; size = 4
_poSelf$ = 8						; size = 4
_poArgs$ = 12						; size = 4
?grpRenderRoundBox@@YAPAU_object@@PAU1@0@Z PROC		; grpRenderRoundBox, COMDAT

; 520  : {

  00000	55		 push	 ebp
  00001	8b ec		 mov	 ebp, esp
  00003	83 ec 2c	 sub	 esp, 44			; 0000002cH

; 521  : 	int x;
; 522  : 	if (!PyTuple_GetInteger(poArgs, 0, &x))

  00006	8d 45 e0	 lea	 eax, DWORD PTR _x$[ebp]
  00009	56		 push	 esi
  0000a	8b 75 0c	 mov	 esi, DWORD PTR _poArgs$[ebp]
  0000d	50		 push	 eax
  0000e	6a 00		 push	 0
  00010	56		 push	 esi
  00011	e8 00 00 00 00	 call	 ?PyTuple_GetInteger@@YA_NPAU_object@@HPAH@Z ; PyTuple_GetInteger
  00016	83 c4 0c	 add	 esp, 12			; 0000000cH
  00019	84 c0		 test	 al, al
  0001b	75 0f		 jne	 SHORT $LN2@grpRenderR
$LN7@grpRenderR:

; 551  : }

  0001d	6a 00		 push	 0
  0001f	e8 00 00 00 00	 call	 ?Py_BuildException@@YAPAU_object@@PBDZZ ; Py_BuildException
  00024	83 c4 04	 add	 esp, 4
  00027	5e		 pop	 esi
  00028	8b e5		 mov	 esp, ebp
  0002a	5d		 pop	 ebp
  0002b	c3		 ret	 0
$LN2@grpRenderR:

; 523  : 		return Py_BuildException();
; 524  : 
; 525  : 	int y;
; 526  : 	if (!PyTuple_GetInteger(poArgs, 1, &y))

  0002c	8d 45 dc	 lea	 eax, DWORD PTR _y$[ebp]
  0002f	50		 push	 eax
  00030	6a 01		 push	 1
  00032	56		 push	 esi
  00033	e8 00 00 00 00	 call	 ?PyTuple_GetInteger@@YA_NPAU_object@@HPAH@Z ; PyTuple_GetInteger
  00038	83 c4 0c	 add	 esp, 12			; 0000000cH
  0003b	84 c0		 test	 al, al
  0003d	74 de		 je	 SHORT $LN7@grpRenderR

; 527  : 		return Py_BuildException();
; 528  : 
; 529  : 	int width;
; 530  : 	if (!PyTuple_GetInteger(poArgs, 2, &width))

  0003f	8d 45 d8	 lea	 eax, DWORD PTR _width$[ebp]
  00042	50		 push	 eax
  00043	6a 02		 push	 2
  00045	56		 push	 esi
  00046	e8 00 00 00 00	 call	 ?PyTuple_GetInteger@@YA_NPAU_object@@HPAH@Z ; PyTuple_GetInteger
  0004b	83 c4 0c	 add	 esp, 12			; 0000000cH
  0004e	84 c0		 test	 al, al
  00050	74 cb		 je	 SHORT $LN7@grpRenderR

; 531  : 		return Py_BuildException();
; 532  : 
; 533  : 	int height;
; 534  : 	if (!PyTuple_GetInteger(poArgs, 3, &height))

  00052	8d 45 d4	 lea	 eax, DWORD PTR _height$[ebp]
  00055	50		 push	 eax
  00056	6a 03		 push	 3
  00058	56		 push	 esi
  00059	e8 00 00 00 00	 call	 ?PyTuple_GetInteger@@YA_NPAU_object@@HPAH@Z ; PyTuple_GetInteger
  0005e	83 c4 0c	 add	 esp, 12			; 0000000cH
  00061	84 c0		 test	 al, al
  00063	74 b8		 je	 SHORT $LN7@grpRenderR

; 535  : 		return Py_BuildException();
; 536  : 
; 537  : 	float fx = float(x);
; 538  : 	float fy = float(y);
; 539  : 	float fWidth = float(width);
; 540  : 	float fHeight = float(height);
; 541  : 
; 542  : 	CPythonGraphic::Instance().RenderLine2d(fx+2.0f, fy, fx+2.0f + (fWidth-3.0f), fy);

  00065	66 0f 6e 4d e0	 movd	 xmm1, DWORD PTR _x$[ebp]
  0006a	83 ec 14	 sub	 esp, 20			; 00000014H
  0006d	66 0f 6e 65 d8	 movd	 xmm4, DWORD PTR _width$[ebp]
  00072	66 0f 6e 5d dc	 movd	 xmm3, DWORD PTR _y$[ebp]
  00077	66 0f 6e 45 d4	 movd	 xmm0, DWORD PTR _height$[ebp]
  0007c	8b 0d 00 00 00
	00		 mov	 ecx, DWORD PTR ?ms_singleton@?$CSingleton@VCPythonGraphic@@@@0PAVCPythonGraphic@@A ; CSingleton<CPythonGraphic>::ms_singleton
  00082	0f 5b c9	 cvtdq2ps xmm1, xmm1
  00085	c7 44 24 10 00
	00 00 00	 mov	 DWORD PTR [esp+16], 0
  0008d	0f 5b e4	 cvtdq2ps xmm4, xmm4
  00090	0f 28 d1	 movaps	 xmm2, xmm1
  00093	f3 0f 11 4d f8	 movss	 DWORD PTR _fx$1$[ebp], xmm1
  00098	f3 0f 58 15 00
	00 00 00	 addss	 xmm2, DWORD PTR __real@40000000
  000a0	0f 28 cc	 movaps	 xmm1, xmm4
  000a3	f3 0f 11 65 f4	 movss	 DWORD PTR _fWidth$1$[ebp], xmm4
  000a8	f3 0f 5c 0d 00
	00 00 00	 subss	 xmm1, DWORD PTR __real@40400000
  000b0	0f 5b db	 cvtdq2ps xmm3, xmm3
  000b3	f3 0f 58 ca	 addss	 xmm1, xmm2
  000b7	f3 0f 11 55 ec	 movss	 DWORD PTR tv283[ebp], xmm2
  000bc	0f 5b c0	 cvtdq2ps xmm0, xmm0
  000bf	f3 0f 11 5c 24
	0c		 movss	 DWORD PTR [esp+12], xmm3
  000c5	f3 0f 11 4c 24
	08		 movss	 DWORD PTR [esp+8], xmm1
  000cb	f3 0f 11 5c 24
	04		 movss	 DWORD PTR [esp+4], xmm3
  000d1	f3 0f 11 5d fc	 movss	 DWORD PTR _fy$1$[ebp], xmm3
  000d6	f3 0f 11 45 f0	 movss	 DWORD PTR _fHeight$1$[ebp], xmm0
  000db	f3 0f 11 4d e8	 movss	 DWORD PTR tv367[ebp], xmm1
  000e0	f3 0f 11 14 24	 movss	 DWORD PTR [esp], xmm2
  000e5	e8 00 00 00 00	 call	 ?RenderLine2d@CScreen@@QAEXMMMMM@Z ; CScreen::RenderLine2d

; 543  : 	CPythonGraphic::Instance().RenderLine2d(fx+2.0f, fy+fHeight, fx+2.0f + (fWidth-3.0f), fy+fHeight);

  000ea	f3 0f 10 4d f0	 movss	 xmm1, DWORD PTR _fHeight$1$[ebp]
  000ef	83 ec 14	 sub	 esp, 20			; 00000014H
  000f2	f3 0f 58 4d fc	 addss	 xmm1, DWORD PTR _fy$1$[ebp]
  000f7	f3 0f 10 45 e8	 movss	 xmm0, DWORD PTR tv367[ebp]
  000fc	8b 0d 00 00 00
	00		 mov	 ecx, DWORD PTR ?ms_singleton@?$CSingleton@VCPythonGraphic@@@@0PAVCPythonGraphic@@A ; CSingleton<CPythonGraphic>::ms_singleton
  00102	c7 44 24 10 00
	00 00 00	 mov	 DWORD PTR [esp+16], 0
  0010a	f3 0f 11 4c 24
	0c		 movss	 DWORD PTR [esp+12], xmm1
  00110	f3 0f 11 44 24
	08		 movss	 DWORD PTR [esp+8], xmm0
  00116	f3 0f 11 4c 24
	04		 movss	 DWORD PTR [esp+4], xmm1
  0011c	f3 0f 11 4d e4	 movss	 DWORD PTR tv273[ebp], xmm1
  00121	f3 0f 10 4d ec	 movss	 xmm1, DWORD PTR tv283[ebp]
  00126	f3 0f 11 0c 24	 movss	 DWORD PTR [esp], xmm1
  0012b	e8 00 00 00 00	 call	 ?RenderLine2d@CScreen@@QAEXMMMMM@Z ; CScreen::RenderLine2d

; 544  : 	CPythonGraphic::Instance().RenderLine2d(fx, fy+2.0f, fx, fy+2.0f + fHeight-4.0f);

  00130	f3 0f 10 4d fc	 movss	 xmm1, DWORD PTR _fy$1$[ebp]
  00135	83 ec 14	 sub	 esp, 20			; 00000014H
  00138	f3 0f 58 0d 00
	00 00 00	 addss	 xmm1, DWORD PTR __real@40000000
  00140	8b 0d 00 00 00
	00		 mov	 ecx, DWORD PTR ?ms_singleton@?$CSingleton@VCPythonGraphic@@@@0PAVCPythonGraphic@@A ; CSingleton<CPythonGraphic>::ms_singleton
  00146	c7 44 24 10 00
	00 00 00	 mov	 DWORD PTR [esp+16], 0
  0014e	0f 28 c1	 movaps	 xmm0, xmm1
  00151	f3 0f 11 4d e8	 movss	 DWORD PTR tv279[ebp], xmm1
  00156	f3 0f 58 45 f0	 addss	 xmm0, DWORD PTR _fHeight$1$[ebp]
  0015b	f3 0f 5c 05 00
	00 00 00	 subss	 xmm0, DWORD PTR __real@40800000
  00163	f3 0f 11 44 24
	0c		 movss	 DWORD PTR [esp+12], xmm0
  00169	f3 0f 10 45 f8	 movss	 xmm0, DWORD PTR _fx$1$[ebp]
  0016e	f3 0f 11 44 24
	08		 movss	 DWORD PTR [esp+8], xmm0
  00174	f3 0f 11 4c 24
	04		 movss	 DWORD PTR [esp+4], xmm1
  0017a	f3 0f 11 04 24	 movss	 DWORD PTR [esp], xmm0
  0017f	e8 00 00 00 00	 call	 ?RenderLine2d@CScreen@@QAEXMMMMM@Z ; CScreen::RenderLine2d

; 545  : 	CPythonGraphic::Instance().RenderLine2d(fx+fWidth, fy+1.0f, fx+fWidth, fy+1.0f + fHeight-3.0f);

  00184	f3 0f 10 4d fc	 movss	 xmm1, DWORD PTR _fy$1$[ebp]
  00189	83 ec 14	 sub	 esp, 20			; 00000014H
  0018c	f3 0f 58 0d 00
	00 00 00	 addss	 xmm1, DWORD PTR __real@3f800000
  00194	f3 0f 10 55 f4	 movss	 xmm2, DWORD PTR _fWidth$1$[ebp]
  00199	f3 0f 58 55 f8	 addss	 xmm2, DWORD PTR _fx$1$[ebp]
  0019e	8b 0d 00 00 00
	00		 mov	 ecx, DWORD PTR ?ms_singleton@?$CSingleton@VCPythonGraphic@@@@0PAVCPythonGraphic@@A ; CSingleton<CPythonGraphic>::ms_singleton
  001a4	c7 44 24 10 00
	00 00 00	 mov	 DWORD PTR [esp+16], 0
  001ac	0f 28 c1	 movaps	 xmm0, xmm1
  001af	f3 0f 58 45 f0	 addss	 xmm0, DWORD PTR _fHeight$1$[ebp]
  001b4	f3 0f 11 55 f4	 movss	 DWORD PTR _fWidth$1$[ebp], xmm2
  001b9	f3 0f 5c 05 00
	00 00 00	 subss	 xmm0, DWORD PTR __real@40400000
  001c1	f3 0f 11 44 24
	0c		 movss	 DWORD PTR [esp+12], xmm0
  001c7	f3 0f 11 54 24
	08		 movss	 DWORD PTR [esp+8], xmm2
  001cd	f3 0f 11 4c 24
	04		 movss	 DWORD PTR [esp+4], xmm1
  001d3	f3 0f 11 14 24	 movss	 DWORD PTR [esp], xmm2
  001d8	e8 00 00 00 00	 call	 ?RenderLine2d@CScreen@@QAEXMMMMM@Z ; CScreen::RenderLine2d

; 546  : 	CPythonGraphic::Instance().RenderLine2d(fx, fy+2.0f, fx+2.0f, fy);

  001dd	f3 0f 10 45 fc	 movss	 xmm0, DWORD PTR _fy$1$[ebp]
  001e2	83 ec 14	 sub	 esp, 20			; 00000014H
  001e5	c7 44 24 10 00
	00 00 00	 mov	 DWORD PTR [esp+16], 0
  001ed	f3 0f 11 44 24
	0c		 movss	 DWORD PTR [esp+12], xmm0
  001f3	f3 0f 10 45 ec	 movss	 xmm0, DWORD PTR tv283[ebp]
  001f8	f3 0f 11 44 24
	08		 movss	 DWORD PTR [esp+8], xmm0
  001fe	f3 0f 10 45 e8	 movss	 xmm0, DWORD PTR tv279[ebp]
  00203	f3 0f 11 44 24
	04		 movss	 DWORD PTR [esp+4], xmm0
  00209	f3 0f 10 45 f8	 movss	 xmm0, DWORD PTR _fx$1$[ebp]
  0020e	f3 0f 11 04 24	 movss	 DWORD PTR [esp], xmm0
  00213	8b 0d 00 00 00
	00		 mov	 ecx, DWORD PTR ?ms_singleton@?$CSingleton@VCPythonGraphic@@@@0PAVCPythonGraphic@@A ; CSingleton<CPythonGraphic>::ms_singleton
  00219	e8 00 00 00 00	 call	 ?RenderLine2d@CScreen@@QAEXMMMMM@Z ; CScreen::RenderLine2d

; 547  : 	CPythonGraphic::Instance().RenderLine2d(fx, fy+fHeight-2.0f, fx+2.0f, fy+fHeight);

  0021e	f3 0f 10 4d e4	 movss	 xmm1, DWORD PTR tv273[ebp]
  00223	83 ec 14	 sub	 esp, 20			; 00000014H
  00226	8b 0d 00 00 00
	00		 mov	 ecx, DWORD PTR ?ms_singleton@?$CSingleton@VCPythonGraphic@@@@0PAVCPythonGraphic@@A ; CSingleton<CPythonGraphic>::ms_singleton
  0022c	0f 28 c1	 movaps	 xmm0, xmm1
  0022f	f3 0f 5c 05 00
	00 00 00	 subss	 xmm0, DWORD PTR __real@40000000
  00237	c7 44 24 10 00
	00 00 00	 mov	 DWORD PTR [esp+16], 0
  0023f	f3 0f 11 4c 24
	0c		 movss	 DWORD PTR [esp+12], xmm1
  00245	f3 0f 10 4d ec	 movss	 xmm1, DWORD PTR tv283[ebp]
  0024a	f3 0f 11 4c 24
	08		 movss	 DWORD PTR [esp+8], xmm1
  00250	f3 0f 11 44 24
	04		 movss	 DWORD PTR [esp+4], xmm0
  00256	f3 0f 11 45 f0	 movss	 DWORD PTR tv275[ebp], xmm0
  0025b	f3 0f 10 45 f8	 movss	 xmm0, DWORD PTR _fx$1$[ebp]
  00260	f3 0f 11 04 24	 movss	 DWORD PTR [esp], xmm0
  00265	e8 00 00 00 00	 call	 ?RenderLine2d@CScreen@@QAEXMMMMM@Z ; CScreen::RenderLine2d

; 548  : 	CPythonGraphic::Instance().RenderLine2d(fx+fWidth-2.0f, fy, fx+fWidth, fy+2.0f);

  0026a	f3 0f 10 55 f4	 movss	 xmm2, DWORD PTR _fWidth$1$[ebp]
  0026f	83 ec 14	 sub	 esp, 20			; 00000014H
  00272	f3 0f 10 4d e8	 movss	 xmm1, DWORD PTR tv279[ebp]
  00277	0f 28 c2	 movaps	 xmm0, xmm2
  0027a	f3 0f 5c 05 00
	00 00 00	 subss	 xmm0, DWORD PTR __real@40000000
  00282	8b 0d 00 00 00
	00		 mov	 ecx, DWORD PTR ?ms_singleton@?$CSingleton@VCPythonGraphic@@@@0PAVCPythonGraphic@@A ; CSingleton<CPythonGraphic>::ms_singleton
  00288	c7 44 24 10 00
	00 00 00	 mov	 DWORD PTR [esp+16], 0
  00290	f3 0f 11 4c 24
	0c		 movss	 DWORD PTR [esp+12], xmm1
  00296	f3 0f 11 54 24
	08		 movss	 DWORD PTR [esp+8], xmm2
  0029c	f3 0f 10 55 fc	 movss	 xmm2, DWORD PTR _fy$1$[ebp]
  002a1	f3 0f 11 54 24
	04		 movss	 DWORD PTR [esp+4], xmm2
  002a7	f3 0f 11 45 ec	 movss	 DWORD PTR tv272[ebp], xmm0
  002ac	f3 0f 11 04 24	 movss	 DWORD PTR [esp], xmm0
  002b1	e8 00 00 00 00	 call	 ?RenderLine2d@CScreen@@QAEXMMMMM@Z ; CScreen::RenderLine2d

; 549  : 	CPythonGraphic::Instance().RenderLine2d(fx+fWidth-2.0f, fy+fHeight, fx+fWidth, fy+fHeight-2.0f);

  002b6	f3 0f 10 45 f0	 movss	 xmm0, DWORD PTR tv275[ebp]
  002bb	83 ec 14	 sub	 esp, 20			; 00000014H
  002be	8b 0d 00 00 00
	00		 mov	 ecx, DWORD PTR ?ms_singleton@?$CSingleton@VCPythonGraphic@@@@0PAVCPythonGraphic@@A ; CSingleton<CPythonGraphic>::ms_singleton
  002c4	c7 44 24 10 00
	00 00 00	 mov	 DWORD PTR [esp+16], 0
  002cc	f3 0f 11 44 24
	0c		 movss	 DWORD PTR [esp+12], xmm0
  002d2	f3 0f 10 45 f4	 movss	 xmm0, DWORD PTR _fWidth$1$[ebp]
  002d7	f3 0f 11 44 24
	08		 movss	 DWORD PTR [esp+8], xmm0
  002dd	f3 0f 10 45 e4	 movss	 xmm0, DWORD PTR tv273[ebp]
  002e2	f3 0f 11 44 24
	04		 movss	 DWORD PTR [esp+4], xmm0
  002e8	f3 0f 10 45 ec	 movss	 xmm0, DWORD PTR tv272[ebp]
  002ed	f3 0f 11 04 24	 movss	 DWORD PTR [esp], xmm0
  002f2	e8 00 00 00 00	 call	 ?RenderLine2d@CScreen@@QAEXMMMMM@Z ; CScreen::RenderLine2d

; 550  : 	return Py_BuildNone();

  002f7	e8 00 00 00 00	 call	 ?Py_BuildNone@@YAPAU_object@@XZ ; Py_BuildNone
  002fc	5e		 pop	 esi

; 551  : }

  002fd	8b e5		 mov	 esp, ebp
  002ff	5d		 pop	 ebp
  00300	c3		 ret	 0
?grpRenderRoundBox@@YAPAU_object@@PAU1@0@Z ENDP		; grpRenderRoundBox
_TEXT	ENDS
; Function compile flags: /Ogtp
; File C:\DS Project\DS Files\Source\ClientSource\Client\eterPythonLib\PythonGraphicModule.cpp
;	COMDAT ?grpRenderLine@@YAPAU_object@@PAU1@0@Z
_TEXT	SEGMENT
_width$ = -16						; size = 4
_height$ = -12						; size = 4
_x$ = -8						; size = 4
_y$ = -4						; size = 4
_poSelf$ = 8						; size = 4
_poArgs$ = 12						; size = 4
?grpRenderLine@@YAPAU_object@@PAU1@0@Z PROC		; grpRenderLine, COMDAT

; 498  : {

  00000	55		 push	 ebp
  00001	8b ec		 mov	 ebp, esp
  00003	83 ec 10	 sub	 esp, 16			; 00000010H

; 499  : 	int x;
; 500  : 	if (!PyTuple_GetInteger(poArgs, 0, &x))

  00006	8d 45 f8	 lea	 eax, DWORD PTR _x$[ebp]
  00009	56		 push	 esi
  0000a	8b 75 0c	 mov	 esi, DWORD PTR _poArgs$[ebp]
  0000d	50		 push	 eax
  0000e	6a 00		 push	 0
  00010	56		 push	 esi
  00011	e8 00 00 00 00	 call	 ?PyTuple_GetInteger@@YA_NPAU_object@@HPAH@Z ; PyTuple_GetInteger
  00016	83 c4 0c	 add	 esp, 12			; 0000000cH
  00019	84 c0		 test	 al, al
  0001b	75 0f		 jne	 SHORT $LN2@grpRenderL
$LN7@grpRenderL:

; 517  : }

  0001d	6a 00		 push	 0
  0001f	e8 00 00 00 00	 call	 ?Py_BuildException@@YAPAU_object@@PBDZZ ; Py_BuildException
  00024	83 c4 04	 add	 esp, 4
  00027	5e		 pop	 esi
  00028	8b e5		 mov	 esp, ebp
  0002a	5d		 pop	 ebp
  0002b	c3		 ret	 0
$LN2@grpRenderL:

; 501  : 		return Py_BuildException();
; 502  : 
; 503  : 	int y;
; 504  : 	if (!PyTuple_GetInteger(poArgs, 1, &y))

  0002c	8d 45 fc	 lea	 eax, DWORD PTR _y$[ebp]
  0002f	50		 push	 eax
  00030	6a 01		 push	 1
  00032	56		 push	 esi
  00033	e8 00 00 00 00	 call	 ?PyTuple_GetInteger@@YA_NPAU_object@@HPAH@Z ; PyTuple_GetInteger
  00038	83 c4 0c	 add	 esp, 12			; 0000000cH
  0003b	84 c0		 test	 al, al
  0003d	74 de		 je	 SHORT $LN7@grpRenderL

; 505  : 		return Py_BuildException();
; 506  : 
; 507  : 	int width;
; 508  : 	if (!PyTuple_GetInteger(poArgs, 2, &width))

  0003f	8d 45 f0	 lea	 eax, DWORD PTR _width$[ebp]
  00042	50		 push	 eax
  00043	6a 02		 push	 2
  00045	56		 push	 esi
  00046	e8 00 00 00 00	 call	 ?PyTuple_GetInteger@@YA_NPAU_object@@HPAH@Z ; PyTuple_GetInteger
  0004b	83 c4 0c	 add	 esp, 12			; 0000000cH
  0004e	84 c0		 test	 al, al
  00050	74 cb		 je	 SHORT $LN7@grpRenderL

; 509  : 		return Py_BuildException();
; 510  : 
; 511  : 	int height;
; 512  : 	if (!PyTuple_GetInteger(poArgs, 3, &height))

  00052	8d 45 f4	 lea	 eax, DWORD PTR _height$[ebp]
  00055	50		 push	 eax
  00056	6a 03		 push	 3
  00058	56		 push	 esi
  00059	e8 00 00 00 00	 call	 ?PyTuple_GetInteger@@YA_NPAU_object@@HPAH@Z ; PyTuple_GetInteger
  0005e	83 c4 0c	 add	 esp, 12			; 0000000cH
  00061	84 c0		 test	 al, al
  00063	74 b8		 je	 SHORT $LN7@grpRenderL

; 513  : 		return Py_BuildException();
; 514  : 
; 515  : 	CPythonGraphic::Instance().RenderLine2d((float) x, (float) y, (float) x+width, (float) y+height);

  00065	66 0f 6e 4d fc	 movd	 xmm1, DWORD PTR _y$[ebp]
  0006a	83 ec 14	 sub	 esp, 20			; 00000014H
  0006d	66 0f 6e 45 f4	 movd	 xmm0, DWORD PTR _height$[ebp]
  00072	66 0f 6e 55 f8	 movd	 xmm2, DWORD PTR _x$[ebp]
  00077	0f 5b c0	 cvtdq2ps xmm0, xmm0
  0007a	8b 0d 00 00 00
	00		 mov	 ecx, DWORD PTR ?ms_singleton@?$CSingleton@VCPythonGraphic@@@@0PAVCPythonGraphic@@A ; CSingleton<CPythonGraphic>::ms_singleton
  00080	c7 44 24 10 00
	00 00 00	 mov	 DWORD PTR [esp+16], 0
  00088	0f 5b c9	 cvtdq2ps xmm1, xmm1
  0008b	0f 5b d2	 cvtdq2ps xmm2, xmm2
  0008e	f3 0f 58 c1	 addss	 xmm0, xmm1
  00092	f3 0f 11 44 24
	0c		 movss	 DWORD PTR [esp+12], xmm0
  00098	66 0f 6e 45 f0	 movd	 xmm0, DWORD PTR _width$[ebp]
  0009d	0f 5b c0	 cvtdq2ps xmm0, xmm0
  000a0	f3 0f 58 c2	 addss	 xmm0, xmm2
  000a4	f3 0f 11 44 24
	08		 movss	 DWORD PTR [esp+8], xmm0
  000aa	f3 0f 11 4c 24
	04		 movss	 DWORD PTR [esp+4], xmm1
  000b0	f3 0f 11 14 24	 movss	 DWORD PTR [esp], xmm2
  000b5	e8 00 00 00 00	 call	 ?RenderLine2d@CScreen@@QAEXMMMMM@Z ; CScreen::RenderLine2d

; 516  : 	return Py_BuildNone();

  000ba	e8 00 00 00 00	 call	 ?Py_BuildNone@@YAPAU_object@@XZ ; Py_BuildNone
  000bf	5e		 pop	 esi

; 517  : }

  000c0	8b e5		 mov	 esp, ebp
  000c2	5d		 pop	 ebp
  000c3	c3		 ret	 0
?grpRenderLine@@YAPAU_object@@PAU1@0@Z ENDP		; grpRenderLine
_TEXT	ENDS
; Function compile flags: /Ogtp
; File C:\DS Project\DS Files\Source\ClientSource\Client\eterPythonLib\PythonGraphicModule.cpp
;	COMDAT ?grpSetCursorPosition@@YAPAU_object@@PAU1@0@Z
_TEXT	SEGMENT
_ix$ = -8						; size = 4
_iy$ = -4						; size = 4
_poSelf$ = 8						; size = 4
_poArgs$ = 12						; size = 4
?grpSetCursorPosition@@YAPAU_object@@PAU1@0@Z PROC	; grpSetCursorPosition, COMDAT

; 485  : {

  00000	55		 push	 ebp
  00001	8b ec		 mov	 ebp, esp
  00003	83 ec 08	 sub	 esp, 8

; 486  : 	int ix;
; 487  : 	if (!PyTuple_GetInteger(poArgs, 0, &ix))

  00006	8d 45 f8	 lea	 eax, DWORD PTR _ix$[ebp]
  00009	50		 push	 eax
  0000a	6a 00		 push	 0
  0000c	ff 75 0c	 push	 DWORD PTR _poArgs$[ebp]
  0000f	e8 00 00 00 00	 call	 ?PyTuple_GetInteger@@YA_NPAU_object@@HPAH@Z ; PyTuple_GetInteger
  00014	83 c4 0c	 add	 esp, 12			; 0000000cH
  00017	84 c0		 test	 al, al
  00019	75 0e		 jne	 SHORT $LN2@grpSetCurs
$LN5@grpSetCurs:

; 495  : }

  0001b	6a 00		 push	 0
  0001d	e8 00 00 00 00	 call	 ?Py_BuildException@@YAPAU_object@@PBDZZ ; Py_BuildException
  00022	83 c4 04	 add	 esp, 4
  00025	8b e5		 mov	 esp, ebp
  00027	5d		 pop	 ebp
  00028	c3		 ret	 0
$LN2@grpSetCurs:

; 488  : 		return Py_BuildException();
; 489  : 	int iy;
; 490  : 	if (!PyTuple_GetInteger(poArgs, 1, &iy))

  00029	8d 45 fc	 lea	 eax, DWORD PTR _iy$[ebp]
  0002c	50		 push	 eax
  0002d	6a 01		 push	 1
  0002f	ff 75 0c	 push	 DWORD PTR _poArgs$[ebp]
  00032	e8 00 00 00 00	 call	 ?PyTuple_GetInteger@@YA_NPAU_object@@HPAH@Z ; PyTuple_GetInteger
  00037	83 c4 0c	 add	 esp, 12			; 0000000cH
  0003a	84 c0		 test	 al, al
  0003c	74 dd		 je	 SHORT $LN5@grpSetCurs

; 491  : 		return Py_BuildException();
; 492  : 
; 493  : 	CPythonGraphic::Instance().SetCursorPosition(ix, iy);

  0003e	ff 75 fc	 push	 DWORD PTR _iy$[ebp]
  00041	8b 0d 00 00 00
	00		 mov	 ecx, DWORD PTR ?ms_singleton@?$CSingleton@VCPythonGraphic@@@@0PAVCPythonGraphic@@A ; CSingleton<CPythonGraphic>::ms_singleton
  00047	ff 75 f8	 push	 DWORD PTR _ix$[ebp]
  0004a	e8 00 00 00 00	 call	 ?SetCursorPosition@CPythonGraphic@@QAEXHH@Z ; CPythonGraphic::SetCursorPosition

; 494  : 	return Py_BuildNone();

  0004f	e8 00 00 00 00	 call	 ?Py_BuildNone@@YAPAU_object@@XZ ; Py_BuildNone

; 495  : }

  00054	8b e5		 mov	 esp, ebp
  00056	5d		 pop	 ebp
  00057	c3		 ret	 0
?grpSetCursorPosition@@YAPAU_object@@PAU1@0@Z ENDP	; grpSetCursorPosition
_TEXT	ENDS
; Function compile flags: /Ogtp
; File C:\DS Project\DS Files\Source\ClientSource\Client\eterPythonLib\PythonGraphicModule.cpp
;	COMDAT ?grpGetCursorPosition3d@@YAPAU_object@@PAU1@0@Z
_TEXT	SEGMENT
_x$ = -12						; size = 4
_y$ = -8						; size = 4
_z$ = -4						; size = 4
_poSelf$ = 8						; size = 4
_poArgs$ = 12						; size = 4
?grpGetCursorPosition3d@@YAPAU_object@@PAU1@0@Z PROC	; grpGetCursorPosition3d, COMDAT

; 478  : {

  00000	55		 push	 ebp
  00001	8b ec		 mov	 ebp, esp
  00003	83 ec 0c	 sub	 esp, 12			; 0000000cH

; 479  : 	float x, y, z;
; 480  : 	CPythonGraphic::Instance().GetCursorPosition(&x, &y, &z);

  00006	8b 0d 00 00 00
	00		 mov	 ecx, DWORD PTR ?ms_singleton@?$CSingleton@VCPythonGraphic@@@@0PAVCPythonGraphic@@A ; CSingleton<CPythonGraphic>::ms_singleton
  0000c	8d 45 fc	 lea	 eax, DWORD PTR _z$[ebp]
  0000f	50		 push	 eax
  00010	8d 45 f8	 lea	 eax, DWORD PTR _y$[ebp]
  00013	50		 push	 eax
  00014	8d 45 f4	 lea	 eax, DWORD PTR _x$[ebp]
  00017	50		 push	 eax
  00018	e8 00 00 00 00	 call	 ?GetCursorPosition@CScreen@@QAE_NPAM00@Z ; CScreen::GetCursorPosition
  0001d	f3 0f 10 45 fc	 movss	 xmm0, DWORD PTR _z$[ebp]

; 481  : 	return Py_BuildValue("(fff)", x, y, z);

  00022	83 ec 18	 sub	 esp, 24			; 00000018H
  00025	0f 5a c0	 cvtps2pd xmm0, xmm0
  00028	f2 0f 11 44 24
	10		 movsd	 QWORD PTR [esp+16], xmm0
  0002e	f3 0f 10 45 f8	 movss	 xmm0, DWORD PTR _y$[ebp]
  00033	0f 5a c0	 cvtps2pd xmm0, xmm0
  00036	f2 0f 11 44 24
	08		 movsd	 QWORD PTR [esp+8], xmm0
  0003c	f3 0f 10 45 f4	 movss	 xmm0, DWORD PTR _x$[ebp]
  00041	0f 5a c0	 cvtps2pd xmm0, xmm0
  00044	f2 0f 11 04 24	 movsd	 QWORD PTR [esp], xmm0
  00049	68 00 00 00 00	 push	 OFFSET ??_C@_05KFOBNLEM@?$CIfff?$CJ@
  0004e	ff 15 00 00 00
	00		 call	 DWORD PTR __imp__Py_BuildValue
  00054	83 c4 1c	 add	 esp, 28			; 0000001cH

; 482  : }

  00057	8b e5		 mov	 esp, ebp
  00059	5d		 pop	 ebp
  0005a	c3		 ret	 0
?grpGetCursorPosition3d@@YAPAU_object@@PAU1@0@Z ENDP	; grpGetCursorPosition3d
_TEXT	ENDS
; Function compile flags: /Ogtp
; File C:\DS Project\DS Files\Source\ClientSource\Client\eterPythonLib\PythonGraphicModule.cpp
;	COMDAT ?grpSetAlpha@@YAPAU_object@@PAU1@0@Z
_TEXT	SEGMENT
_Alpha$ = -4						; size = 4
_poSelf$ = 8						; size = 4
_poArgs$ = 12						; size = 4
?grpSetAlpha@@YAPAU_object@@PAU1@0@Z PROC		; grpSetAlpha, COMDAT

; 468  : {

  00000	55		 push	 ebp
  00001	8b ec		 mov	 ebp, esp
  00003	51		 push	 ecx

; 469  : 	float Alpha;
; 470  : 	if (!PyTuple_GetFloat(poArgs, 0, &Alpha))

  00004	8d 45 fc	 lea	 eax, DWORD PTR _Alpha$[ebp]
  00007	50		 push	 eax
  00008	6a 00		 push	 0
  0000a	ff 75 0c	 push	 DWORD PTR _poArgs$[ebp]
  0000d	e8 00 00 00 00	 call	 ?PyTuple_GetFloat@@YA_NPAU_object@@HPAM@Z ; PyTuple_GetFloat
  00012	83 c4 0c	 add	 esp, 12			; 0000000cH
  00015	84 c0		 test	 al, al
  00017	75 0e		 jne	 SHORT $LN2@grpSetAlph

; 471  : 		return Py_BuildException();

  00019	6a 00		 push	 0
  0001b	e8 00 00 00 00	 call	 ?Py_BuildException@@YAPAU_object@@PBDZZ ; Py_BuildException
  00020	83 c4 04	 add	 esp, 4

; 475  : }

  00023	8b e5		 mov	 esp, ebp
  00025	5d		 pop	 ebp
  00026	c3		 ret	 0
$LN2@grpSetAlph:

; 472  : 
; 473  : 	//CPythonGraphic::Instance().SetAlpha(Alpha);
; 474  : 	return Py_BuildNone();

  00027	e8 00 00 00 00	 call	 ?Py_BuildNone@@YAPAU_object@@XZ ; Py_BuildNone

; 475  : }

  0002c	8b e5		 mov	 esp, ebp
  0002e	5d		 pop	 ebp
  0002f	c3		 ret	 0
?grpSetAlpha@@YAPAU_object@@PAU1@0@Z ENDP		; grpSetAlpha
_TEXT	ENDS
; Function compile flags: /Ogtp
; File C:\DS Project\DS Files\Source\ClientSource\Client\eterPythonLib\PythonGraphicModule.cpp
;	COMDAT ?grpSetColor@@YAPAU_object@@PAU1@0@Z
_TEXT	SEGMENT
_color$ = -4						; size = 4
_poSelf$ = 8						; size = 4
_poArgs$ = 12						; size = 4
?grpSetColor@@YAPAU_object@@PAU1@0@Z PROC		; grpSetColor, COMDAT

; 458  : {

  00000	55		 push	 ebp
  00001	8b ec		 mov	 ebp, esp
  00003	51		 push	 ecx

; 459  : 	int color;
; 460  : 	if (!PyTuple_GetInteger(poArgs, 0, &color))

  00004	8d 45 fc	 lea	 eax, DWORD PTR _color$[ebp]
  00007	50		 push	 eax
  00008	6a 00		 push	 0
  0000a	ff 75 0c	 push	 DWORD PTR _poArgs$[ebp]
  0000d	e8 00 00 00 00	 call	 ?PyTuple_GetInteger@@YA_NPAU_object@@HPAH@Z ; PyTuple_GetInteger
  00012	83 c4 0c	 add	 esp, 12			; 0000000cH
  00015	84 c0		 test	 al, al
  00017	75 0e		 jne	 SHORT $LN2@grpSetColo

; 461  : 		return Py_BuildException();

  00019	6a 00		 push	 0
  0001b	e8 00 00 00 00	 call	 ?Py_BuildException@@YAPAU_object@@PBDZZ ; Py_BuildException
  00020	83 c4 04	 add	 esp, 4

; 465  : }

  00023	8b e5		 mov	 esp, ebp
  00025	5d		 pop	 ebp
  00026	c3		 ret	 0
$LN2@grpSetColo:

; 462  : 
; 463  : 	CPythonGraphic::Instance().SetDiffuseColor(DWORD(color));

  00027	ff 75 fc	 push	 DWORD PTR _color$[ebp]
  0002a	8b 0d 00 00 00
	00		 mov	 ecx, DWORD PTR ?ms_singleton@?$CSingleton@VCPythonGraphic@@@@0PAVCPythonGraphic@@A ; CSingleton<CPythonGraphic>::ms_singleton
  00030	e8 00 00 00 00	 call	 ?SetDiffuseColor@CScreen@@QAEXK@Z ; CScreen::SetDiffuseColor

; 464  : 	return Py_BuildNone();

  00035	e8 00 00 00 00	 call	 ?Py_BuildNone@@YAPAU_object@@XZ ; Py_BuildNone

; 465  : }

  0003a	8b e5		 mov	 esp, ebp
  0003c	5d		 pop	 ebp
  0003d	c3		 ret	 0
?grpSetColor@@YAPAU_object@@PAU1@0@Z ENDP		; grpSetColor
_TEXT	ENDS
; Function compile flags: /Ogtp
; File C:\DS Project\DS Files\Source\ClientSource\Client\eterPythonLib\PythonGraphicModule.cpp
;	COMDAT ?grpGenerateColor@@YAPAU_object@@PAU1@0@Z
_TEXT	SEGMENT
_r$ = -16						; size = 4
_g$ = -12						; size = 4
_b$ = -8						; size = 4
_a$ = -4						; size = 4
_poSelf$ = 8						; size = 4
_poArgs$ = 12						; size = 4
?grpGenerateColor@@YAPAU_object@@PAU1@0@Z PROC		; grpGenerateColor, COMDAT

; 437  : {

  00000	55		 push	 ebp
  00001	8b ec		 mov	 ebp, esp
  00003	83 ec 10	 sub	 esp, 16			; 00000010H

; 438  : 	float r;
; 439  : 	if (!PyTuple_GetFloat(poArgs, 0, &r))

  00006	8d 45 f0	 lea	 eax, DWORD PTR _r$[ebp]
  00009	56		 push	 esi
  0000a	8b 75 0c	 mov	 esi, DWORD PTR _poArgs$[ebp]
  0000d	50		 push	 eax
  0000e	6a 00		 push	 0
  00010	56		 push	 esi
  00011	e8 00 00 00 00	 call	 ?PyTuple_GetFloat@@YA_NPAU_object@@HPAM@Z ; PyTuple_GetFloat
  00016	83 c4 0c	 add	 esp, 12			; 0000000cH
  00019	84 c0		 test	 al, al
  0001b	75 0f		 jne	 SHORT $LN2@grpGenerat
$LN7@grpGenerat:

; 455  : }

  0001d	6a 00		 push	 0
  0001f	e8 00 00 00 00	 call	 ?Py_BuildException@@YAPAU_object@@PBDZZ ; Py_BuildException
  00024	83 c4 04	 add	 esp, 4
  00027	5e		 pop	 esi
  00028	8b e5		 mov	 esp, ebp
  0002a	5d		 pop	 ebp
  0002b	c3		 ret	 0
$LN2@grpGenerat:

; 440  : 		return Py_BuildException();
; 441  : 
; 442  : 	float g;
; 443  : 	if (!PyTuple_GetFloat(poArgs, 1, &g))

  0002c	8d 45 f4	 lea	 eax, DWORD PTR _g$[ebp]
  0002f	50		 push	 eax
  00030	6a 01		 push	 1
  00032	56		 push	 esi
  00033	e8 00 00 00 00	 call	 ?PyTuple_GetFloat@@YA_NPAU_object@@HPAM@Z ; PyTuple_GetFloat
  00038	83 c4 0c	 add	 esp, 12			; 0000000cH
  0003b	84 c0		 test	 al, al
  0003d	74 de		 je	 SHORT $LN7@grpGenerat

; 444  : 		return Py_BuildException();
; 445  : 
; 446  : 	float b;
; 447  : 	if (!PyTuple_GetFloat(poArgs, 2, &b))

  0003f	8d 45 f8	 lea	 eax, DWORD PTR _b$[ebp]
  00042	50		 push	 eax
  00043	6a 02		 push	 2
  00045	56		 push	 esi
  00046	e8 00 00 00 00	 call	 ?PyTuple_GetFloat@@YA_NPAU_object@@HPAM@Z ; PyTuple_GetFloat
  0004b	83 c4 0c	 add	 esp, 12			; 0000000cH
  0004e	84 c0		 test	 al, al
  00050	74 cb		 je	 SHORT $LN7@grpGenerat

; 448  : 		return Py_BuildException();
; 449  : 
; 450  : 	float a;
; 451  : 	if (!PyTuple_GetFloat(poArgs, 3, &a))

  00052	8d 45 fc	 lea	 eax, DWORD PTR _a$[ebp]
  00055	50		 push	 eax
  00056	6a 03		 push	 3
  00058	56		 push	 esi
  00059	e8 00 00 00 00	 call	 ?PyTuple_GetFloat@@YA_NPAU_object@@HPAM@Z ; PyTuple_GetFloat
  0005e	83 c4 0c	 add	 esp, 12			; 0000000cH
  00061	84 c0		 test	 al, al
  00063	74 b8		 je	 SHORT $LN7@grpGenerat

; 452  : 		return Py_BuildException();
; 453  : 
; 454  : 	return Py_BuildValue("l", CPythonGraphic::Instance().GenerateColor(r, g, b, a));

  00065	f3 0f 10 45 fc	 movss	 xmm0, DWORD PTR _a$[ebp]
  0006a	83 ec 10	 sub	 esp, 16			; 00000010H
  0006d	8b 0d 00 00 00
	00		 mov	 ecx, DWORD PTR ?ms_singleton@?$CSingleton@VCPythonGraphic@@@@0PAVCPythonGraphic@@A ; CSingleton<CPythonGraphic>::ms_singleton
  00073	f3 0f 11 44 24
	0c		 movss	 DWORD PTR [esp+12], xmm0
  00079	f3 0f 10 45 f8	 movss	 xmm0, DWORD PTR _b$[ebp]
  0007e	f3 0f 11 44 24
	08		 movss	 DWORD PTR [esp+8], xmm0
  00084	f3 0f 10 45 f4	 movss	 xmm0, DWORD PTR _g$[ebp]
  00089	f3 0f 11 44 24
	04		 movss	 DWORD PTR [esp+4], xmm0
  0008f	f3 0f 10 45 f0	 movss	 xmm0, DWORD PTR _r$[ebp]
  00094	f3 0f 11 04 24	 movss	 DWORD PTR [esp], xmm0
  00099	e8 00 00 00 00	 call	 ?GenerateColor@CPythonGraphic@@QAEJMMMM@Z ; CPythonGraphic::GenerateColor
  0009e	50		 push	 eax
  0009f	68 00 00 00 00	 push	 OFFSET ??_C@_01HHGOMJKL@l@
  000a4	ff 15 00 00 00
	00		 call	 DWORD PTR __imp__Py_BuildValue
  000aa	83 c4 08	 add	 esp, 8
  000ad	5e		 pop	 esi

; 455  : }

  000ae	8b e5		 mov	 esp, ebp
  000b0	5d		 pop	 ebp
  000b1	c3		 ret	 0
?grpGenerateColor@@YAPAU_object@@PAU1@0@Z ENDP		; grpGenerateColor
_TEXT	ENDS
; Function compile flags: /Ogtp
; File C:\DS Project\DS Files\Source\ClientSource\Client\eterPythonLib\PythonGraphicModule.cpp
;	COMDAT ?grpSetOrtho3D@@YAPAU_object@@PAU1@0@Z
_TEXT	SEGMENT
_width$ = -16						; size = 4
_height$ = -12						; size = 4
_zmin$ = -8						; size = 4
_zmax$ = -4						; size = 4
_poSelf$ = 8						; size = 4
_poArgs$ = 12						; size = 4
?grpSetOrtho3D@@YAPAU_object@@PAU1@0@Z PROC		; grpSetOrtho3D, COMDAT

; 414  : {

  00000	55		 push	 ebp
  00001	8b ec		 mov	 ebp, esp
  00003	83 ec 10	 sub	 esp, 16			; 00000010H

; 415  : 	float width;
; 416  : 	if (!PyTuple_GetFloat(poArgs, 0, &width))

  00006	8d 45 f0	 lea	 eax, DWORD PTR _width$[ebp]
  00009	56		 push	 esi
  0000a	8b 75 0c	 mov	 esi, DWORD PTR _poArgs$[ebp]
  0000d	50		 push	 eax
  0000e	6a 00		 push	 0
  00010	56		 push	 esi
  00011	e8 00 00 00 00	 call	 ?PyTuple_GetFloat@@YA_NPAU_object@@HPAM@Z ; PyTuple_GetFloat
  00016	83 c4 0c	 add	 esp, 12			; 0000000cH
  00019	84 c0		 test	 al, al
  0001b	75 0f		 jne	 SHORT $LN2@grpSetOrth
$LN7@grpSetOrth:

; 433  : }

  0001d	6a 00		 push	 0
  0001f	e8 00 00 00 00	 call	 ?Py_BuildException@@YAPAU_object@@PBDZZ ; Py_BuildException
  00024	83 c4 04	 add	 esp, 4
  00027	5e		 pop	 esi
  00028	8b e5		 mov	 esp, ebp
  0002a	5d		 pop	 ebp
  0002b	c3		 ret	 0
$LN2@grpSetOrth:

; 417  : 		return Py_BuildException();
; 418  : 
; 419  : 	float height;
; 420  : 	if (!PyTuple_GetFloat(poArgs, 1, &height))

  0002c	8d 45 f4	 lea	 eax, DWORD PTR _height$[ebp]
  0002f	50		 push	 eax
  00030	6a 01		 push	 1
  00032	56		 push	 esi
  00033	e8 00 00 00 00	 call	 ?PyTuple_GetFloat@@YA_NPAU_object@@HPAM@Z ; PyTuple_GetFloat
  00038	83 c4 0c	 add	 esp, 12			; 0000000cH
  0003b	84 c0		 test	 al, al
  0003d	74 de		 je	 SHORT $LN7@grpSetOrth

; 421  : 		return Py_BuildException();
; 422  : 
; 423  : 	float zmin;
; 424  : 	if (!PyTuple_GetFloat(poArgs, 2, &zmin))

  0003f	8d 45 f8	 lea	 eax, DWORD PTR _zmin$[ebp]
  00042	50		 push	 eax
  00043	6a 02		 push	 2
  00045	56		 push	 esi
  00046	e8 00 00 00 00	 call	 ?PyTuple_GetFloat@@YA_NPAU_object@@HPAM@Z ; PyTuple_GetFloat
  0004b	83 c4 0c	 add	 esp, 12			; 0000000cH
  0004e	84 c0		 test	 al, al
  00050	74 cb		 je	 SHORT $LN7@grpSetOrth

; 425  : 		return Py_BuildException();
; 426  : 
; 427  : 	float zmax;
; 428  : 	if (!PyTuple_GetFloat(poArgs, 3, &zmax))

  00052	8d 45 fc	 lea	 eax, DWORD PTR _zmax$[ebp]
  00055	50		 push	 eax
  00056	6a 03		 push	 3
  00058	56		 push	 esi
  00059	e8 00 00 00 00	 call	 ?PyTuple_GetFloat@@YA_NPAU_object@@HPAM@Z ; PyTuple_GetFloat
  0005e	83 c4 0c	 add	 esp, 12			; 0000000cH
  00061	84 c0		 test	 al, al
  00063	74 b8		 je	 SHORT $LN7@grpSetOrth

; 429  : 		return Py_BuildException();
; 430  : 
; 431  : 	CPythonGraphic::Instance().SetOrtho3D(width, height, zmin, zmax);

  00065	f3 0f 10 45 fc	 movss	 xmm0, DWORD PTR _zmax$[ebp]
  0006a	83 ec 10	 sub	 esp, 16			; 00000010H
  0006d	8b 0d 00 00 00
	00		 mov	 ecx, DWORD PTR ?ms_singleton@?$CSingleton@VCPythonGraphic@@@@0PAVCPythonGraphic@@A ; CSingleton<CPythonGraphic>::ms_singleton
  00073	f3 0f 11 44 24
	0c		 movss	 DWORD PTR [esp+12], xmm0
  00079	f3 0f 10 45 f8	 movss	 xmm0, DWORD PTR _zmin$[ebp]
  0007e	f3 0f 11 44 24
	08		 movss	 DWORD PTR [esp+8], xmm0
  00084	f3 0f 10 45 f4	 movss	 xmm0, DWORD PTR _height$[ebp]
  00089	f3 0f 11 44 24
	04		 movss	 DWORD PTR [esp+4], xmm0
  0008f	f3 0f 10 45 f0	 movss	 xmm0, DWORD PTR _width$[ebp]
  00094	f3 0f 11 04 24	 movss	 DWORD PTR [esp], xmm0
  00099	e8 00 00 00 00	 call	 ?SetOrtho3D@CGraphicBase@@QAEXMMMM@Z ; CGraphicBase::SetOrtho3D

; 432  : 	return Py_BuildNone();

  0009e	e8 00 00 00 00	 call	 ?Py_BuildNone@@YAPAU_object@@XZ ; Py_BuildNone
  000a3	5e		 pop	 esi

; 433  : }

  000a4	8b e5		 mov	 esp, ebp
  000a6	5d		 pop	 ebp
  000a7	c3		 ret	 0
?grpSetOrtho3D@@YAPAU_object@@PAU1@0@Z ENDP		; grpSetOrtho3D
_TEXT	ENDS
; Function compile flags: /Ogtp
; File C:\DS Project\DS Files\Source\ClientSource\Client\eterPythonLib\PythonGraphicModule.cpp
;	COMDAT ?grpSetOrtho2D@@YAPAU_object@@PAU1@0@Z
_TEXT	SEGMENT
_width$ = -12						; size = 4
_height$ = -8						; size = 4
_length$ = -4						; size = 4
_poSelf$ = 8						; size = 4
_poArgs$ = 12						; size = 4
?grpSetOrtho2D@@YAPAU_object@@PAU1@0@Z PROC		; grpSetOrtho2D, COMDAT

; 395  : {

  00000	55		 push	 ebp
  00001	8b ec		 mov	 ebp, esp
  00003	83 ec 0c	 sub	 esp, 12			; 0000000cH

; 396  : 	float width;
; 397  : 	if (!PyTuple_GetFloat(poArgs, 0, &width))

  00006	8d 45 f4	 lea	 eax, DWORD PTR _width$[ebp]
  00009	56		 push	 esi
  0000a	8b 75 0c	 mov	 esi, DWORD PTR _poArgs$[ebp]
  0000d	50		 push	 eax
  0000e	6a 00		 push	 0
  00010	56		 push	 esi
  00011	e8 00 00 00 00	 call	 ?PyTuple_GetFloat@@YA_NPAU_object@@HPAM@Z ; PyTuple_GetFloat
  00016	83 c4 0c	 add	 esp, 12			; 0000000cH
  00019	84 c0		 test	 al, al
  0001b	75 0f		 jne	 SHORT $LN2@grpSetOrth
$LN6@grpSetOrth:

; 410  : }

  0001d	6a 00		 push	 0
  0001f	e8 00 00 00 00	 call	 ?Py_BuildException@@YAPAU_object@@PBDZZ ; Py_BuildException
  00024	83 c4 04	 add	 esp, 4
  00027	5e		 pop	 esi
  00028	8b e5		 mov	 esp, ebp
  0002a	5d		 pop	 ebp
  0002b	c3		 ret	 0
$LN2@grpSetOrth:

; 398  : 		return Py_BuildException();
; 399  : 
; 400  : 	float height;
; 401  : 	if (!PyTuple_GetFloat(poArgs, 1, &height))

  0002c	8d 45 f8	 lea	 eax, DWORD PTR _height$[ebp]
  0002f	50		 push	 eax
  00030	6a 01		 push	 1
  00032	56		 push	 esi
  00033	e8 00 00 00 00	 call	 ?PyTuple_GetFloat@@YA_NPAU_object@@HPAM@Z ; PyTuple_GetFloat
  00038	83 c4 0c	 add	 esp, 12			; 0000000cH
  0003b	84 c0		 test	 al, al
  0003d	74 de		 je	 SHORT $LN6@grpSetOrth

; 402  : 		return Py_BuildException();
; 403  : 
; 404  : 	float length;
; 405  : 	if (!PyTuple_GetFloat(poArgs, 2, &length))

  0003f	8d 45 fc	 lea	 eax, DWORD PTR _length$[ebp]
  00042	50		 push	 eax
  00043	6a 02		 push	 2
  00045	56		 push	 esi
  00046	e8 00 00 00 00	 call	 ?PyTuple_GetFloat@@YA_NPAU_object@@HPAM@Z ; PyTuple_GetFloat
  0004b	83 c4 0c	 add	 esp, 12			; 0000000cH
  0004e	84 c0		 test	 al, al
  00050	74 cb		 je	 SHORT $LN6@grpSetOrth

; 406  : 		return Py_BuildException();
; 407  : 
; 408  : 	CPythonGraphic::Instance().SetOrtho2D(width, height, length);

  00052	f3 0f 10 45 fc	 movss	 xmm0, DWORD PTR _length$[ebp]
  00057	83 ec 0c	 sub	 esp, 12			; 0000000cH
  0005a	8b 0d 00 00 00
	00		 mov	 ecx, DWORD PTR ?ms_singleton@?$CSingleton@VCPythonGraphic@@@@0PAVCPythonGraphic@@A ; CSingleton<CPythonGraphic>::ms_singleton
  00060	f3 0f 11 44 24
	08		 movss	 DWORD PTR [esp+8], xmm0
  00066	f3 0f 10 45 f8	 movss	 xmm0, DWORD PTR _height$[ebp]
  0006b	f3 0f 11 44 24
	04		 movss	 DWORD PTR [esp+4], xmm0
  00071	f3 0f 10 45 f4	 movss	 xmm0, DWORD PTR _width$[ebp]
  00076	f3 0f 11 04 24	 movss	 DWORD PTR [esp], xmm0
  0007b	e8 00 00 00 00	 call	 ?SetOrtho2D@CGraphicBase@@QAEXMMM@Z ; CGraphicBase::SetOrtho2D

; 409  : 	return Py_BuildNone();

  00080	e8 00 00 00 00	 call	 ?Py_BuildNone@@YAPAU_object@@XZ ; Py_BuildNone
  00085	5e		 pop	 esi

; 410  : }

  00086	8b e5		 mov	 esp, ebp
  00088	5d		 pop	 ebp
  00089	c3		 ret	 0
?grpSetOrtho2D@@YAPAU_object@@PAU1@0@Z ENDP		; grpSetOrtho2D
_TEXT	ENDS
; Function compile flags: /Ogtp
; File C:\DS Project\DS Files\Source\ClientSource\Client\eterPythonLib\PythonGraphicModule.cpp
;	COMDAT ?grpSetPerspective@@YAPAU_object@@PAU1@0@Z
_TEXT	SEGMENT
_fov$ = -16						; size = 4
_aspect$ = -12						; size = 4
_zNear$ = -8						; size = 4
_zFar$ = -4						; size = 4
_poSelf$ = 8						; size = 4
_poArgs$ = 12						; size = 4
?grpSetPerspective@@YAPAU_object@@PAU1@0@Z PROC		; grpSetPerspective, COMDAT

; 372  : {

  00000	55		 push	 ebp
  00001	8b ec		 mov	 ebp, esp
  00003	83 ec 10	 sub	 esp, 16			; 00000010H

; 373  : 	float fov;
; 374  : 	if (!PyTuple_GetFloat(poArgs, 0, &fov))

  00006	8d 45 f0	 lea	 eax, DWORD PTR _fov$[ebp]
  00009	56		 push	 esi
  0000a	8b 75 0c	 mov	 esi, DWORD PTR _poArgs$[ebp]
  0000d	50		 push	 eax
  0000e	6a 00		 push	 0
  00010	56		 push	 esi
  00011	e8 00 00 00 00	 call	 ?PyTuple_GetFloat@@YA_NPAU_object@@HPAM@Z ; PyTuple_GetFloat
  00016	83 c4 0c	 add	 esp, 12			; 0000000cH
  00019	84 c0		 test	 al, al
  0001b	75 0f		 jne	 SHORT $LN2@grpSetPers
$LN7@grpSetPers:

; 391  : }

  0001d	6a 00		 push	 0
  0001f	e8 00 00 00 00	 call	 ?Py_BuildException@@YAPAU_object@@PBDZZ ; Py_BuildException
  00024	83 c4 04	 add	 esp, 4
  00027	5e		 pop	 esi
  00028	8b e5		 mov	 esp, ebp
  0002a	5d		 pop	 ebp
  0002b	c3		 ret	 0
$LN2@grpSetPers:

; 375  : 		return Py_BuildException();
; 376  : 
; 377  : 	float aspect;
; 378  : 	if (!PyTuple_GetFloat(poArgs, 1, &aspect))

  0002c	8d 45 f4	 lea	 eax, DWORD PTR _aspect$[ebp]
  0002f	50		 push	 eax
  00030	6a 01		 push	 1
  00032	56		 push	 esi
  00033	e8 00 00 00 00	 call	 ?PyTuple_GetFloat@@YA_NPAU_object@@HPAM@Z ; PyTuple_GetFloat
  00038	83 c4 0c	 add	 esp, 12			; 0000000cH
  0003b	84 c0		 test	 al, al
  0003d	74 de		 je	 SHORT $LN7@grpSetPers

; 379  : 		return Py_BuildException();
; 380  : 
; 381  : 	float zNear;
; 382  : 	if (!PyTuple_GetFloat(poArgs, 2, &zNear))

  0003f	8d 45 f8	 lea	 eax, DWORD PTR _zNear$[ebp]
  00042	50		 push	 eax
  00043	6a 02		 push	 2
  00045	56		 push	 esi
  00046	e8 00 00 00 00	 call	 ?PyTuple_GetFloat@@YA_NPAU_object@@HPAM@Z ; PyTuple_GetFloat
  0004b	83 c4 0c	 add	 esp, 12			; 0000000cH
  0004e	84 c0		 test	 al, al
  00050	74 cb		 je	 SHORT $LN7@grpSetPers

; 383  : 		return Py_BuildException();
; 384  : 
; 385  : 	float zFar;
; 386  : 	if (!PyTuple_GetFloat(poArgs, 3, &zFar))

  00052	8d 45 fc	 lea	 eax, DWORD PTR _zFar$[ebp]
  00055	50		 push	 eax
  00056	6a 03		 push	 3
  00058	56		 push	 esi
  00059	e8 00 00 00 00	 call	 ?PyTuple_GetFloat@@YA_NPAU_object@@HPAM@Z ; PyTuple_GetFloat
  0005e	83 c4 0c	 add	 esp, 12			; 0000000cH
  00061	84 c0		 test	 al, al
  00063	74 b8		 je	 SHORT $LN7@grpSetPers

; 387  : 		return Py_BuildException();
; 388  : 
; 389  : 	CPythonGraphic::Instance().SetPerspective(fov, aspect, zNear, zFar);

  00065	f3 0f 10 45 fc	 movss	 xmm0, DWORD PTR _zFar$[ebp]
  0006a	83 ec 10	 sub	 esp, 16			; 00000010H
  0006d	8b 0d 00 00 00
	00		 mov	 ecx, DWORD PTR ?ms_singleton@?$CSingleton@VCPythonGraphic@@@@0PAVCPythonGraphic@@A ; CSingleton<CPythonGraphic>::ms_singleton
  00073	f3 0f 11 44 24
	0c		 movss	 DWORD PTR [esp+12], xmm0
  00079	f3 0f 10 45 f8	 movss	 xmm0, DWORD PTR _zNear$[ebp]
  0007e	f3 0f 11 44 24
	08		 movss	 DWORD PTR [esp+8], xmm0
  00084	f3 0f 10 45 f4	 movss	 xmm0, DWORD PTR _aspect$[ebp]
  00089	f3 0f 11 44 24
	04		 movss	 DWORD PTR [esp+4], xmm0
  0008f	f3 0f 10 45 f0	 movss	 xmm0, DWORD PTR _fov$[ebp]
  00094	f3 0f 11 04 24	 movss	 DWORD PTR [esp], xmm0
  00099	e8 00 00 00 00	 call	 ?SetPerspective@CGraphicBase@@QAEXMMMM@Z ; CGraphicBase::SetPerspective

; 390  : 	return Py_BuildNone();

  0009e	e8 00 00 00 00	 call	 ?Py_BuildNone@@YAPAU_object@@XZ ; Py_BuildNone
  000a3	5e		 pop	 esi

; 391  : }

  000a4	8b e5		 mov	 esp, ebp
  000a6	5d		 pop	 ebp
  000a7	c3		 ret	 0
?grpSetPerspective@@YAPAU_object@@PAU1@0@Z ENDP		; grpSetPerspective
_TEXT	ENDS
; Function compile flags: /Ogtp
; File C:\DS Project\DS Files\Source\ClientSource\Client\eterPythonLib\PythonGraphicModule.cpp
;	COMDAT ?grpSetEyeCamera@@YAPAU_object@@PAU1@0@Z
_TEXT	SEGMENT
_xEye$ = -36						; size = 4
_yEye$ = -32						; size = 4
_zEye$ = -28						; size = 4
_xCenter$ = -24						; size = 4
_yCenter$ = -20						; size = 4
_zCenter$ = -16						; size = 4
_xUp$ = -12						; size = 4
_yUp$ = -8						; size = 4
_zUp$ = -4						; size = 4
_poSelf$ = 8						; size = 4
_poArgs$ = 12						; size = 4
?grpSetEyeCamera@@YAPAU_object@@PAU1@0@Z PROC		; grpSetEyeCamera, COMDAT

; 329  : {

  00000	55		 push	 ebp
  00001	8b ec		 mov	 ebp, esp
  00003	83 ec 24	 sub	 esp, 36			; 00000024H

; 330  : 	float xEye;
; 331  : 	if (!PyTuple_GetFloat(poArgs, 0, &xEye))

  00006	8d 45 dc	 lea	 eax, DWORD PTR _xEye$[ebp]
  00009	56		 push	 esi
  0000a	8b 75 0c	 mov	 esi, DWORD PTR _poArgs$[ebp]
  0000d	50		 push	 eax
  0000e	6a 00		 push	 0
  00010	56		 push	 esi
  00011	e8 00 00 00 00	 call	 ?PyTuple_GetFloat@@YA_NPAU_object@@HPAM@Z ; PyTuple_GetFloat
  00016	83 c4 0c	 add	 esp, 12			; 0000000cH
  00019	84 c0		 test	 al, al
  0001b	75 0f		 jne	 SHORT $LN2@grpSetEyeC
$LN12@grpSetEyeC:

; 368  : }

  0001d	6a 00		 push	 0
  0001f	e8 00 00 00 00	 call	 ?Py_BuildException@@YAPAU_object@@PBDZZ ; Py_BuildException
  00024	83 c4 04	 add	 esp, 4
  00027	5e		 pop	 esi
  00028	8b e5		 mov	 esp, ebp
  0002a	5d		 pop	 ebp
  0002b	c3		 ret	 0
$LN2@grpSetEyeC:

; 332  : 		return Py_BuildException();
; 333  : 
; 334  : 	float yEye;
; 335  : 	if (!PyTuple_GetFloat(poArgs, 1, &yEye))

  0002c	8d 45 e0	 lea	 eax, DWORD PTR _yEye$[ebp]
  0002f	50		 push	 eax
  00030	6a 01		 push	 1
  00032	56		 push	 esi
  00033	e8 00 00 00 00	 call	 ?PyTuple_GetFloat@@YA_NPAU_object@@HPAM@Z ; PyTuple_GetFloat
  00038	83 c4 0c	 add	 esp, 12			; 0000000cH
  0003b	84 c0		 test	 al, al
  0003d	74 de		 je	 SHORT $LN12@grpSetEyeC

; 336  : 		return Py_BuildException();
; 337  : 
; 338  : 	float zEye;
; 339  : 	if (!PyTuple_GetFloat(poArgs, 2, &zEye))

  0003f	8d 45 e4	 lea	 eax, DWORD PTR _zEye$[ebp]
  00042	50		 push	 eax
  00043	6a 02		 push	 2
  00045	56		 push	 esi
  00046	e8 00 00 00 00	 call	 ?PyTuple_GetFloat@@YA_NPAU_object@@HPAM@Z ; PyTuple_GetFloat
  0004b	83 c4 0c	 add	 esp, 12			; 0000000cH
  0004e	84 c0		 test	 al, al
  00050	74 cb		 je	 SHORT $LN12@grpSetEyeC

; 340  : 		return Py_BuildException();
; 341  : 
; 342  : 	float xCenter;
; 343  : 	if (!PyTuple_GetFloat(poArgs, 3, &xCenter))

  00052	8d 45 e8	 lea	 eax, DWORD PTR _xCenter$[ebp]
  00055	50		 push	 eax
  00056	6a 03		 push	 3
  00058	56		 push	 esi
  00059	e8 00 00 00 00	 call	 ?PyTuple_GetFloat@@YA_NPAU_object@@HPAM@Z ; PyTuple_GetFloat
  0005e	83 c4 0c	 add	 esp, 12			; 0000000cH
  00061	84 c0		 test	 al, al
  00063	74 b8		 je	 SHORT $LN12@grpSetEyeC

; 344  : 		return Py_BuildException();
; 345  : 
; 346  : 	float yCenter;
; 347  : 	if (!PyTuple_GetFloat(poArgs, 4, &yCenter))

  00065	8d 45 ec	 lea	 eax, DWORD PTR _yCenter$[ebp]
  00068	50		 push	 eax
  00069	6a 04		 push	 4
  0006b	56		 push	 esi
  0006c	e8 00 00 00 00	 call	 ?PyTuple_GetFloat@@YA_NPAU_object@@HPAM@Z ; PyTuple_GetFloat
  00071	83 c4 0c	 add	 esp, 12			; 0000000cH
  00074	84 c0		 test	 al, al
  00076	74 a5		 je	 SHORT $LN12@grpSetEyeC

; 348  : 		return Py_BuildException();
; 349  : 
; 350  : 	float zCenter;
; 351  : 	if (!PyTuple_GetFloat(poArgs, 5, &zCenter))

  00078	8d 45 f0	 lea	 eax, DWORD PTR _zCenter$[ebp]
  0007b	50		 push	 eax
  0007c	6a 05		 push	 5
  0007e	56		 push	 esi
  0007f	e8 00 00 00 00	 call	 ?PyTuple_GetFloat@@YA_NPAU_object@@HPAM@Z ; PyTuple_GetFloat
  00084	83 c4 0c	 add	 esp, 12			; 0000000cH
  00087	84 c0		 test	 al, al
  00089	74 92		 je	 SHORT $LN12@grpSetEyeC

; 352  : 		return Py_BuildException();
; 353  : 
; 354  : 	float xUp;
; 355  : 	if (!PyTuple_GetFloat(poArgs, 6, &xUp))

  0008b	8d 45 f4	 lea	 eax, DWORD PTR _xUp$[ebp]
  0008e	50		 push	 eax
  0008f	6a 06		 push	 6
  00091	56		 push	 esi
  00092	e8 00 00 00 00	 call	 ?PyTuple_GetFloat@@YA_NPAU_object@@HPAM@Z ; PyTuple_GetFloat
  00097	83 c4 0c	 add	 esp, 12			; 0000000cH
  0009a	84 c0		 test	 al, al
  0009c	0f 84 7b ff ff
	ff		 je	 $LN12@grpSetEyeC

; 356  : 		return Py_BuildException();
; 357  : 
; 358  : 	float yUp;
; 359  : 	if (!PyTuple_GetFloat(poArgs, 7, &yUp))

  000a2	8d 45 f8	 lea	 eax, DWORD PTR _yUp$[ebp]
  000a5	50		 push	 eax
  000a6	6a 07		 push	 7
  000a8	56		 push	 esi
  000a9	e8 00 00 00 00	 call	 ?PyTuple_GetFloat@@YA_NPAU_object@@HPAM@Z ; PyTuple_GetFloat
  000ae	83 c4 0c	 add	 esp, 12			; 0000000cH
  000b1	84 c0		 test	 al, al
  000b3	0f 84 64 ff ff
	ff		 je	 $LN12@grpSetEyeC

; 360  : 		return Py_BuildException();
; 361  : 
; 362  : 	float zUp;
; 363  : 	if (!PyTuple_GetFloat(poArgs, 8, &zUp))

  000b9	8d 45 fc	 lea	 eax, DWORD PTR _zUp$[ebp]
  000bc	50		 push	 eax
  000bd	6a 08		 push	 8
  000bf	56		 push	 esi
  000c0	e8 00 00 00 00	 call	 ?PyTuple_GetFloat@@YA_NPAU_object@@HPAM@Z ; PyTuple_GetFloat
  000c5	83 c4 0c	 add	 esp, 12			; 0000000cH
  000c8	84 c0		 test	 al, al
  000ca	0f 84 4d ff ff
	ff		 je	 $LN12@grpSetEyeC

; 364  : 		return Py_BuildException();
; 365  : 
; 366  : 	CPythonGraphic::Instance().SetEyeCamera(xEye, yEye, zEye, xCenter, yCenter, zCenter, xUp, yUp, zUp);

  000d0	f3 0f 10 45 fc	 movss	 xmm0, DWORD PTR _zUp$[ebp]
  000d5	83 ec 24	 sub	 esp, 36			; 00000024H
  000d8	8b 0d 00 00 00
	00		 mov	 ecx, DWORD PTR ?ms_singleton@?$CSingleton@VCPythonGraphic@@@@0PAVCPythonGraphic@@A ; CSingleton<CPythonGraphic>::ms_singleton
  000de	f3 0f 11 44 24
	20		 movss	 DWORD PTR [esp+32], xmm0
  000e4	f3 0f 10 45 f8	 movss	 xmm0, DWORD PTR _yUp$[ebp]
  000e9	f3 0f 11 44 24
	1c		 movss	 DWORD PTR [esp+28], xmm0
  000ef	f3 0f 10 45 f4	 movss	 xmm0, DWORD PTR _xUp$[ebp]
  000f4	f3 0f 11 44 24
	18		 movss	 DWORD PTR [esp+24], xmm0
  000fa	f3 0f 10 45 f0	 movss	 xmm0, DWORD PTR _zCenter$[ebp]
  000ff	f3 0f 11 44 24
	14		 movss	 DWORD PTR [esp+20], xmm0
  00105	f3 0f 10 45 ec	 movss	 xmm0, DWORD PTR _yCenter$[ebp]
  0010a	f3 0f 11 44 24
	10		 movss	 DWORD PTR [esp+16], xmm0
  00110	f3 0f 10 45 e8	 movss	 xmm0, DWORD PTR _xCenter$[ebp]
  00115	f3 0f 11 44 24
	0c		 movss	 DWORD PTR [esp+12], xmm0
  0011b	f3 0f 10 45 e4	 movss	 xmm0, DWORD PTR _zEye$[ebp]
  00120	f3 0f 11 44 24
	08		 movss	 DWORD PTR [esp+8], xmm0
  00126	f3 0f 10 45 e0	 movss	 xmm0, DWORD PTR _yEye$[ebp]
  0012b	f3 0f 11 44 24
	04		 movss	 DWORD PTR [esp+4], xmm0
  00131	f3 0f 10 45 dc	 movss	 xmm0, DWORD PTR _xEye$[ebp]
  00136	f3 0f 11 04 24	 movss	 DWORD PTR [esp], xmm0
  0013b	e8 00 00 00 00	 call	 ?SetEyeCamera@CGraphicBase@@QAEXMMMMMMMMM@Z ; CGraphicBase::SetEyeCamera

; 367  : 	return Py_BuildNone();

  00140	e8 00 00 00 00	 call	 ?Py_BuildNone@@YAPAU_object@@XZ ; Py_BuildNone
  00145	5e		 pop	 esi

; 368  : }

  00146	8b e5		 mov	 esp, ebp
  00148	5d		 pop	 ebp
  00149	c3		 ret	 0
?grpSetEyeCamera@@YAPAU_object@@PAU1@0@Z ENDP		; grpSetEyeCamera
_TEXT	ENDS
; Function compile flags: /Ogtp
; File C:\DS Project\DS Files\Source\ClientSource\Client\eterPythonLib\PythonGraphicModule.cpp
;	COMDAT ?grpSetPositionCamera@@YAPAU_object@@PAU1@0@Z
_TEXT	SEGMENT
_fx$ = -24						; size = 4
_fy$ = -20						; size = 4
_fz$ = -16						; size = 4
_distance$ = -12					; size = 4
_pitch$ = -8						; size = 4
_roll$ = -4						; size = 4
_poSelf$ = 8						; size = 4
_poArgs$ = 12						; size = 4
?grpSetPositionCamera@@YAPAU_object@@PAU1@0@Z PROC	; grpSetPositionCamera, COMDAT

; 299  : {

  00000	55		 push	 ebp
  00001	8b ec		 mov	 ebp, esp
  00003	83 ec 18	 sub	 esp, 24			; 00000018H

; 300  : 	float fx;
; 301  : 	if (!PyTuple_GetFloat(poArgs, 0, &fx))

  00006	8d 45 e8	 lea	 eax, DWORD PTR _fx$[ebp]
  00009	56		 push	 esi
  0000a	8b 75 0c	 mov	 esi, DWORD PTR _poArgs$[ebp]
  0000d	50		 push	 eax
  0000e	6a 00		 push	 0
  00010	56		 push	 esi
  00011	e8 00 00 00 00	 call	 ?PyTuple_GetFloat@@YA_NPAU_object@@HPAM@Z ; PyTuple_GetFloat
  00016	83 c4 0c	 add	 esp, 12			; 0000000cH
  00019	84 c0		 test	 al, al
  0001b	75 0f		 jne	 SHORT $LN2@grpSetPosi
$LN9@grpSetPosi:

; 326  : }

  0001d	6a 00		 push	 0
  0001f	e8 00 00 00 00	 call	 ?Py_BuildException@@YAPAU_object@@PBDZZ ; Py_BuildException
  00024	83 c4 04	 add	 esp, 4
  00027	5e		 pop	 esi
  00028	8b e5		 mov	 esp, ebp
  0002a	5d		 pop	 ebp
  0002b	c3		 ret	 0
$LN2@grpSetPosi:

; 302  : 		return Py_BuildException();
; 303  : 
; 304  : 	float fy;
; 305  : 	if (!PyTuple_GetFloat(poArgs, 1, &fy))

  0002c	8d 45 ec	 lea	 eax, DWORD PTR _fy$[ebp]
  0002f	50		 push	 eax
  00030	6a 01		 push	 1
  00032	56		 push	 esi
  00033	e8 00 00 00 00	 call	 ?PyTuple_GetFloat@@YA_NPAU_object@@HPAM@Z ; PyTuple_GetFloat
  00038	83 c4 0c	 add	 esp, 12			; 0000000cH
  0003b	84 c0		 test	 al, al
  0003d	74 de		 je	 SHORT $LN9@grpSetPosi

; 306  : 		return Py_BuildException();
; 307  : 
; 308  : 	float fz;
; 309  : 	if (!PyTuple_GetFloat(poArgs, 2, &fz))

  0003f	8d 45 f0	 lea	 eax, DWORD PTR _fz$[ebp]
  00042	50		 push	 eax
  00043	6a 02		 push	 2
  00045	56		 push	 esi
  00046	e8 00 00 00 00	 call	 ?PyTuple_GetFloat@@YA_NPAU_object@@HPAM@Z ; PyTuple_GetFloat
  0004b	83 c4 0c	 add	 esp, 12			; 0000000cH
  0004e	84 c0		 test	 al, al
  00050	74 cb		 je	 SHORT $LN9@grpSetPosi

; 310  : 		return Py_BuildException();
; 311  : 
; 312  : 	float distance;
; 313  : 	if (!PyTuple_GetFloat(poArgs, 3, &distance))

  00052	8d 45 f4	 lea	 eax, DWORD PTR _distance$[ebp]
  00055	50		 push	 eax
  00056	6a 03		 push	 3
  00058	56		 push	 esi
  00059	e8 00 00 00 00	 call	 ?PyTuple_GetFloat@@YA_NPAU_object@@HPAM@Z ; PyTuple_GetFloat
  0005e	83 c4 0c	 add	 esp, 12			; 0000000cH
  00061	84 c0		 test	 al, al
  00063	74 b8		 je	 SHORT $LN9@grpSetPosi

; 314  : 		return Py_BuildException();
; 315  : 
; 316  : 	float pitch;
; 317  : 	if (!PyTuple_GetFloat(poArgs, 4, &pitch))

  00065	8d 45 f8	 lea	 eax, DWORD PTR _pitch$[ebp]
  00068	50		 push	 eax
  00069	6a 04		 push	 4
  0006b	56		 push	 esi
  0006c	e8 00 00 00 00	 call	 ?PyTuple_GetFloat@@YA_NPAU_object@@HPAM@Z ; PyTuple_GetFloat
  00071	83 c4 0c	 add	 esp, 12			; 0000000cH
  00074	84 c0		 test	 al, al
  00076	74 a5		 je	 SHORT $LN9@grpSetPosi

; 318  : 		return Py_BuildException();
; 319  : 
; 320  : 	float roll;
; 321  : 	if (!PyTuple_GetFloat(poArgs, 5, &roll))

  00078	8d 45 fc	 lea	 eax, DWORD PTR _roll$[ebp]
  0007b	50		 push	 eax
  0007c	6a 05		 push	 5
  0007e	56		 push	 esi
  0007f	e8 00 00 00 00	 call	 ?PyTuple_GetFloat@@YA_NPAU_object@@HPAM@Z ; PyTuple_GetFloat
  00084	83 c4 0c	 add	 esp, 12			; 0000000cH
  00087	84 c0		 test	 al, al
  00089	74 92		 je	 SHORT $LN9@grpSetPosi

; 322  : 		return Py_BuildException();
; 323  : 
; 324  : 	CPythonGraphic::Instance().SetPositionCamera(fx, fy, fz, distance, pitch, roll);

  0008b	f3 0f 10 45 fc	 movss	 xmm0, DWORD PTR _roll$[ebp]
  00090	83 ec 18	 sub	 esp, 24			; 00000018H
  00093	8b 0d 00 00 00
	00		 mov	 ecx, DWORD PTR ?ms_singleton@?$CSingleton@VCPythonGraphic@@@@0PAVCPythonGraphic@@A ; CSingleton<CPythonGraphic>::ms_singleton
  00099	f3 0f 11 44 24
	14		 movss	 DWORD PTR [esp+20], xmm0
  0009f	f3 0f 10 45 f8	 movss	 xmm0, DWORD PTR _pitch$[ebp]
  000a4	f3 0f 11 44 24
	10		 movss	 DWORD PTR [esp+16], xmm0
  000aa	f3 0f 10 45 f4	 movss	 xmm0, DWORD PTR _distance$[ebp]
  000af	f3 0f 11 44 24
	0c		 movss	 DWORD PTR [esp+12], xmm0
  000b5	f3 0f 10 45 f0	 movss	 xmm0, DWORD PTR _fz$[ebp]
  000ba	f3 0f 11 44 24
	08		 movss	 DWORD PTR [esp+8], xmm0
  000c0	f3 0f 10 45 ec	 movss	 xmm0, DWORD PTR _fy$[ebp]
  000c5	f3 0f 11 44 24
	04		 movss	 DWORD PTR [esp+4], xmm0
  000cb	f3 0f 10 45 e8	 movss	 xmm0, DWORD PTR _fx$[ebp]
  000d0	f3 0f 11 04 24	 movss	 DWORD PTR [esp], xmm0
  000d5	e8 00 00 00 00	 call	 ?SetPositionCamera@CGraphicBase@@QAEXMMMMMM@Z ; CGraphicBase::SetPositionCamera

; 325  : 	return Py_BuildNone();

  000da	e8 00 00 00 00	 call	 ?Py_BuildNone@@YAPAU_object@@XZ ; Py_BuildNone
  000df	5e		 pop	 esi

; 326  : }

  000e0	8b e5		 mov	 esp, ebp
  000e2	5d		 pop	 ebp
  000e3	c3		 ret	 0
?grpSetPositionCamera@@YAPAU_object@@PAU1@0@Z ENDP	; grpSetPositionCamera
_TEXT	ENDS
; Function compile flags: /Ogtp
; File C:\DS Project\DS Files\Source\ClientSource\Client\eterPythonLib\PythonGraphicModule.cpp
;	COMDAT ?grpSetAroundCamera@@YAPAU_object@@PAU1@0@Z
_TEXT	SEGMENT
_distance$ = -16					; size = 4
_pitch$ = -12						; size = 4
_roll$ = -8						; size = 4
_lookAtZ$ = -4						; size = 4
_poSelf$ = 8						; size = 4
_poArgs$ = 12						; size = 4
?grpSetAroundCamera@@YAPAU_object@@PAU1@0@Z PROC	; grpSetAroundCamera, COMDAT

; 277  : {

  00000	55		 push	 ebp
  00001	8b ec		 mov	 ebp, esp
  00003	83 ec 10	 sub	 esp, 16			; 00000010H

; 278  : 	float distance;
; 279  : 	if (!PyTuple_GetFloat(poArgs, 0, &distance))

  00006	8d 45 f0	 lea	 eax, DWORD PTR _distance$[ebp]
  00009	56		 push	 esi
  0000a	8b 75 0c	 mov	 esi, DWORD PTR _poArgs$[ebp]
  0000d	50		 push	 eax
  0000e	6a 00		 push	 0
  00010	56		 push	 esi
  00011	e8 00 00 00 00	 call	 ?PyTuple_GetFloat@@YA_NPAU_object@@HPAM@Z ; PyTuple_GetFloat
  00016	83 c4 0c	 add	 esp, 12			; 0000000cH
  00019	84 c0		 test	 al, al
  0001b	75 0f		 jne	 SHORT $LN2@grpSetArou
$LN7@grpSetArou:

; 296  : }

  0001d	6a 00		 push	 0
  0001f	e8 00 00 00 00	 call	 ?Py_BuildException@@YAPAU_object@@PBDZZ ; Py_BuildException
  00024	83 c4 04	 add	 esp, 4
  00027	5e		 pop	 esi
  00028	8b e5		 mov	 esp, ebp
  0002a	5d		 pop	 ebp
  0002b	c3		 ret	 0
$LN2@grpSetArou:

; 280  : 		return Py_BuildException();
; 281  : 
; 282  : 	float pitch;
; 283  : 	if (!PyTuple_GetFloat(poArgs, 1, &pitch))

  0002c	8d 45 f4	 lea	 eax, DWORD PTR _pitch$[ebp]
  0002f	50		 push	 eax
  00030	6a 01		 push	 1
  00032	56		 push	 esi
  00033	e8 00 00 00 00	 call	 ?PyTuple_GetFloat@@YA_NPAU_object@@HPAM@Z ; PyTuple_GetFloat
  00038	83 c4 0c	 add	 esp, 12			; 0000000cH
  0003b	84 c0		 test	 al, al
  0003d	74 de		 je	 SHORT $LN7@grpSetArou

; 284  : 		return Py_BuildException();
; 285  : 
; 286  : 	float roll;
; 287  : 	if (!PyTuple_GetFloat(poArgs, 2, &roll))

  0003f	8d 45 f8	 lea	 eax, DWORD PTR _roll$[ebp]
  00042	50		 push	 eax
  00043	6a 02		 push	 2
  00045	56		 push	 esi
  00046	e8 00 00 00 00	 call	 ?PyTuple_GetFloat@@YA_NPAU_object@@HPAM@Z ; PyTuple_GetFloat
  0004b	83 c4 0c	 add	 esp, 12			; 0000000cH
  0004e	84 c0		 test	 al, al
  00050	74 cb		 je	 SHORT $LN7@grpSetArou

; 288  : 		return Py_BuildException();
; 289  : 
; 290  : 	float lookAtZ;
; 291  : 	if (!PyTuple_GetFloat(poArgs, 3, &lookAtZ))

  00052	8d 45 fc	 lea	 eax, DWORD PTR _lookAtZ$[ebp]
  00055	50		 push	 eax
  00056	6a 03		 push	 3
  00058	56		 push	 esi
  00059	e8 00 00 00 00	 call	 ?PyTuple_GetFloat@@YA_NPAU_object@@HPAM@Z ; PyTuple_GetFloat
  0005e	83 c4 0c	 add	 esp, 12			; 0000000cH
  00061	84 c0		 test	 al, al
  00063	74 b8		 je	 SHORT $LN7@grpSetArou

; 292  : 		return Py_BuildException();
; 293  : 
; 294  : 	CPythonGraphic::Instance().SetAroundCamera(distance, pitch, roll, lookAtZ);

  00065	f3 0f 10 45 fc	 movss	 xmm0, DWORD PTR _lookAtZ$[ebp]
  0006a	83 ec 10	 sub	 esp, 16			; 00000010H
  0006d	8b 0d 00 00 00
	00		 mov	 ecx, DWORD PTR ?ms_singleton@?$CSingleton@VCPythonGraphic@@@@0PAVCPythonGraphic@@A ; CSingleton<CPythonGraphic>::ms_singleton
  00073	f3 0f 11 44 24
	0c		 movss	 DWORD PTR [esp+12], xmm0
  00079	f3 0f 10 45 f8	 movss	 xmm0, DWORD PTR _roll$[ebp]
  0007e	f3 0f 11 44 24
	08		 movss	 DWORD PTR [esp+8], xmm0
  00084	f3 0f 10 45 f4	 movss	 xmm0, DWORD PTR _pitch$[ebp]
  00089	f3 0f 11 44 24
	04		 movss	 DWORD PTR [esp+4], xmm0
  0008f	f3 0f 10 45 f0	 movss	 xmm0, DWORD PTR _distance$[ebp]
  00094	f3 0f 11 04 24	 movss	 DWORD PTR [esp], xmm0
  00099	e8 00 00 00 00	 call	 ?SetAroundCamera@CGraphicBase@@QAEXMMMM@Z ; CGraphicBase::SetAroundCamera

; 295  : 	return Py_BuildNone();

  0009e	e8 00 00 00 00	 call	 ?Py_BuildNone@@YAPAU_object@@XZ ; Py_BuildNone
  000a3	5e		 pop	 esi

; 296  : }

  000a4	8b e5		 mov	 esp, ebp
  000a6	5d		 pop	 ebp
  000a7	c3		 ret	 0
?grpSetAroundCamera@@YAPAU_object@@PAU1@0@Z ENDP	; grpSetAroundCamera
_TEXT	ENDS
; Function compile flags: /Ogtp
; File C:\DS Project\DS Files\Source\ClientSource\Client\eterPythonLib\PythonGraphicModule.cpp
;	COMDAT ?grpSetColorRenderState@@YAPAU_object@@PAU1@0@Z
_TEXT	SEGMENT
_poSelf$ = 8						; size = 4
_poArgs$ = 12						; size = 4
?grpSetColorRenderState@@YAPAU_object@@PAU1@0@Z PROC	; grpSetColorRenderState, COMDAT

; 273  : 	return Py_BuildNone();

  00000	e9 00 00 00 00	 jmp	 ?Py_BuildNone@@YAPAU_object@@XZ ; Py_BuildNone
?grpSetColorRenderState@@YAPAU_object@@PAU1@0@Z ENDP	; grpSetColorRenderState
_TEXT	ENDS
; Function compile flags: /Ogtp
; File C:\DS Project\DS Files\Source\ClientSource\Client\eterPythonLib\PythonGraphicModule.cpp
;	COMDAT ?grpRotate@@YAPAU_object@@PAU1@0@Z
_TEXT	SEGMENT
_Degree$ = -16						; size = 4
_x$ = -12						; size = 4
_y$ = -8						; size = 4
_z$ = -4						; size = 4
_poSelf$ = 8						; size = 4
_poArgs$ = 12						; size = 4
?grpRotate@@YAPAU_object@@PAU1@0@Z PROC			; grpRotate, COMDAT

; 249  : {

  00000	55		 push	 ebp
  00001	8b ec		 mov	 ebp, esp
  00003	83 ec 10	 sub	 esp, 16			; 00000010H

; 250  : 	float Degree;
; 251  : 	if (!PyTuple_GetFloat(poArgs, 0, &Degree))

  00006	8d 45 f0	 lea	 eax, DWORD PTR _Degree$[ebp]
  00009	56		 push	 esi
  0000a	8b 75 0c	 mov	 esi, DWORD PTR _poArgs$[ebp]
  0000d	50		 push	 eax
  0000e	6a 00		 push	 0
  00010	56		 push	 esi
  00011	e8 00 00 00 00	 call	 ?PyTuple_GetFloat@@YA_NPAU_object@@HPAM@Z ; PyTuple_GetFloat
  00016	83 c4 0c	 add	 esp, 12			; 0000000cH
  00019	84 c0		 test	 al, al
  0001b	75 0f		 jne	 SHORT $LN2@grpRotate
$LN7@grpRotate:

; 269  : }

  0001d	6a 00		 push	 0
  0001f	e8 00 00 00 00	 call	 ?Py_BuildException@@YAPAU_object@@PBDZZ ; Py_BuildException
  00024	83 c4 04	 add	 esp, 4
  00027	5e		 pop	 esi
  00028	8b e5		 mov	 esp, ebp
  0002a	5d		 pop	 ebp
  0002b	c3		 ret	 0
$LN2@grpRotate:

; 252  : 		return Py_BuildException();
; 253  : 
; 254  : 	float x;
; 255  : 	if (!PyTuple_GetFloat(poArgs, 1, &x))

  0002c	8d 45 f4	 lea	 eax, DWORD PTR _x$[ebp]
  0002f	50		 push	 eax
  00030	6a 01		 push	 1
  00032	56		 push	 esi
  00033	e8 00 00 00 00	 call	 ?PyTuple_GetFloat@@YA_NPAU_object@@HPAM@Z ; PyTuple_GetFloat
  00038	83 c4 0c	 add	 esp, 12			; 0000000cH
  0003b	84 c0		 test	 al, al
  0003d	74 de		 je	 SHORT $LN7@grpRotate

; 256  : 		return Py_BuildException();
; 257  : 
; 258  : 	float y;
; 259  : 	if (!PyTuple_GetFloat(poArgs, 2, &y))

  0003f	8d 45 f8	 lea	 eax, DWORD PTR _y$[ebp]
  00042	50		 push	 eax
  00043	6a 02		 push	 2
  00045	56		 push	 esi
  00046	e8 00 00 00 00	 call	 ?PyTuple_GetFloat@@YA_NPAU_object@@HPAM@Z ; PyTuple_GetFloat
  0004b	83 c4 0c	 add	 esp, 12			; 0000000cH
  0004e	84 c0		 test	 al, al
  00050	74 cb		 je	 SHORT $LN7@grpRotate

; 260  : 		return Py_BuildException();
; 261  : 
; 262  : 	float z;
; 263  : 	if (!PyTuple_GetFloat(poArgs, 3, &z))

  00052	8d 45 fc	 lea	 eax, DWORD PTR _z$[ebp]
  00055	50		 push	 eax
  00056	6a 03		 push	 3
  00058	56		 push	 esi
  00059	e8 00 00 00 00	 call	 ?PyTuple_GetFloat@@YA_NPAU_object@@HPAM@Z ; PyTuple_GetFloat
  0005e	83 c4 0c	 add	 esp, 12			; 0000000cH
  00061	84 c0		 test	 al, al
  00063	74 b8		 je	 SHORT $LN7@grpRotate

; 264  : 		return Py_BuildException();
; 265  : 
; 266  : 	CPythonGraphic::Instance().Rotate(Degree, x, y, z);

  00065	f3 0f 10 45 fc	 movss	 xmm0, DWORD PTR _z$[ebp]
  0006a	83 ec 10	 sub	 esp, 16			; 00000010H
  0006d	8b 0d 00 00 00
	00		 mov	 ecx, DWORD PTR ?ms_singleton@?$CSingleton@VCPythonGraphic@@@@0PAVCPythonGraphic@@A ; CSingleton<CPythonGraphic>::ms_singleton
  00073	f3 0f 11 44 24
	0c		 movss	 DWORD PTR [esp+12], xmm0
  00079	f3 0f 10 45 f8	 movss	 xmm0, DWORD PTR _y$[ebp]
  0007e	f3 0f 11 44 24
	08		 movss	 DWORD PTR [esp+8], xmm0
  00084	f3 0f 10 45 f4	 movss	 xmm0, DWORD PTR _x$[ebp]
  00089	f3 0f 11 44 24
	04		 movss	 DWORD PTR [esp+4], xmm0
  0008f	f3 0f 10 45 f0	 movss	 xmm0, DWORD PTR _Degree$[ebp]
  00094	f3 0f 11 04 24	 movss	 DWORD PTR [esp], xmm0
  00099	e8 00 00 00 00	 call	 ?Rotate@CGraphicBase@@QAEXMMMM@Z ; CGraphicBase::Rotate

; 267  : 
; 268  : 	return Py_BuildNone();

  0009e	e8 00 00 00 00	 call	 ?Py_BuildNone@@YAPAU_object@@XZ ; Py_BuildNone
  000a3	5e		 pop	 esi

; 269  : }

  000a4	8b e5		 mov	 esp, ebp
  000a6	5d		 pop	 ebp
  000a7	c3		 ret	 0
?grpRotate@@YAPAU_object@@PAU1@0@Z ENDP			; grpRotate
_TEXT	ENDS
; Function compile flags: /Ogtp
; File C:\DS Project\DS Files\Source\ClientSource\Client\eterPythonLib\PythonGraphicModule.cpp
;	COMDAT ?grpTranslate@@YAPAU_object@@PAU1@0@Z
_TEXT	SEGMENT
_x$ = -12						; size = 4
_y$ = -8						; size = 4
_z$ = -4						; size = 4
_poSelf$ = 8						; size = 4
_poArgs$ = 12						; size = 4
?grpTranslate@@YAPAU_object@@PAU1@0@Z PROC		; grpTranslate, COMDAT

; 230  : {

  00000	55		 push	 ebp
  00001	8b ec		 mov	 ebp, esp
  00003	83 ec 0c	 sub	 esp, 12			; 0000000cH

; 231  : 	float x;
; 232  : 	if (!PyTuple_GetFloat(poArgs, 0, &x))

  00006	8d 45 f4	 lea	 eax, DWORD PTR _x$[ebp]
  00009	56		 push	 esi
  0000a	8b 75 0c	 mov	 esi, DWORD PTR _poArgs$[ebp]
  0000d	50		 push	 eax
  0000e	6a 00		 push	 0
  00010	56		 push	 esi
  00011	e8 00 00 00 00	 call	 ?PyTuple_GetFloat@@YA_NPAU_object@@HPAM@Z ; PyTuple_GetFloat
  00016	83 c4 0c	 add	 esp, 12			; 0000000cH
  00019	84 c0		 test	 al, al
  0001b	75 12		 jne	 SHORT $LN2@grpTransla

; 233  : 		return Py_BuildException("grp.Translate:Wrong X");

  0001d	68 00 00 00 00	 push	 OFFSET ??_C@_0BG@LCHGAFDO@grp?4Translate?3Wrong?5X@
  00022	e8 00 00 00 00	 call	 ?Py_BuildException@@YAPAU_object@@PBDZZ ; Py_BuildException
  00027	83 c4 04	 add	 esp, 4
  0002a	5e		 pop	 esi

; 246  : }

  0002b	8b e5		 mov	 esp, ebp
  0002d	5d		 pop	 ebp
  0002e	c3		 ret	 0
$LN2@grpTransla:

; 234  : 
; 235  : 	float y;
; 236  : 	if (!PyTuple_GetFloat(poArgs, 1, &y))

  0002f	8d 45 f8	 lea	 eax, DWORD PTR _y$[ebp]
  00032	50		 push	 eax
  00033	6a 01		 push	 1
  00035	56		 push	 esi
  00036	e8 00 00 00 00	 call	 ?PyTuple_GetFloat@@YA_NPAU_object@@HPAM@Z ; PyTuple_GetFloat
  0003b	83 c4 0c	 add	 esp, 12			; 0000000cH
  0003e	84 c0		 test	 al, al
  00040	75 12		 jne	 SHORT $LN3@grpTransla

; 237  : 		return Py_BuildException("grp.Translate:Wrong Y");

  00042	68 00 00 00 00	 push	 OFFSET ??_C@_0BG@KLGNDEHP@grp?4Translate?3Wrong?5Y@
  00047	e8 00 00 00 00	 call	 ?Py_BuildException@@YAPAU_object@@PBDZZ ; Py_BuildException
  0004c	83 c4 04	 add	 esp, 4
  0004f	5e		 pop	 esi

; 246  : }

  00050	8b e5		 mov	 esp, ebp
  00052	5d		 pop	 ebp
  00053	c3		 ret	 0
$LN3@grpTransla:

; 238  : 
; 239  : 	float z;
; 240  : 	if (!PyTuple_GetFloat(poArgs, 2, &z))

  00054	8d 45 fc	 lea	 eax, DWORD PTR _z$[ebp]
  00057	50		 push	 eax
  00058	6a 02		 push	 2
  0005a	56		 push	 esi
  0005b	e8 00 00 00 00	 call	 ?PyTuple_GetFloat@@YA_NPAU_object@@HPAM@Z ; PyTuple_GetFloat
  00060	83 c4 0c	 add	 esp, 12			; 0000000cH
  00063	84 c0		 test	 al, al
  00065	75 12		 jne	 SHORT $LN4@grpTransla

; 241  : 		return Py_BuildException("grp.Translate:Wrong Z");

  00067	68 00 00 00 00	 push	 OFFSET ??_C@_0BG@IAEAGHLM@grp?4Translate?3Wrong?5Z@
  0006c	e8 00 00 00 00	 call	 ?Py_BuildException@@YAPAU_object@@PBDZZ ; Py_BuildException
  00071	83 c4 04	 add	 esp, 4
  00074	5e		 pop	 esi

; 246  : }

  00075	8b e5		 mov	 esp, ebp
  00077	5d		 pop	 ebp
  00078	c3		 ret	 0
$LN4@grpTransla:

; 242  : 
; 243  : 	CPythonGraphic::Instance().Translate(x, y, z);

  00079	f3 0f 10 45 fc	 movss	 xmm0, DWORD PTR _z$[ebp]
  0007e	83 ec 0c	 sub	 esp, 12			; 0000000cH
  00081	8b 0d 00 00 00
	00		 mov	 ecx, DWORD PTR ?ms_singleton@?$CSingleton@VCPythonGraphic@@@@0PAVCPythonGraphic@@A ; CSingleton<CPythonGraphic>::ms_singleton
  00087	f3 0f 11 44 24
	08		 movss	 DWORD PTR [esp+8], xmm0
  0008d	f3 0f 10 45 f8	 movss	 xmm0, DWORD PTR _y$[ebp]
  00092	f3 0f 11 44 24
	04		 movss	 DWORD PTR [esp+4], xmm0
  00098	f3 0f 10 45 f4	 movss	 xmm0, DWORD PTR _x$[ebp]
  0009d	f3 0f 11 04 24	 movss	 DWORD PTR [esp], xmm0
  000a2	e8 00 00 00 00	 call	 ?Translate@CGraphicBase@@QAEXMMM@Z ; CGraphicBase::Translate

; 244  : 
; 245  : 	return Py_BuildNone();

  000a7	e8 00 00 00 00	 call	 ?Py_BuildNone@@YAPAU_object@@XZ ; Py_BuildNone
  000ac	5e		 pop	 esi

; 246  : }

  000ad	8b e5		 mov	 esp, ebp
  000af	5d		 pop	 ebp
  000b0	c3		 ret	 0
?grpTranslate@@YAPAU_object@@PAU1@0@Z ENDP		; grpTranslate
_TEXT	ENDS
; Function compile flags: /Ogtp
; File C:\DS Project\DS Files\Source\ClientSource\Client\eterPythonLib\PythonGraphicModule.cpp
;	COMDAT ?grpPopMatrix@@YAPAU_object@@PAU1@0@Z
_TEXT	SEGMENT
_poSelf$ = 8						; size = 4
_poArgs$ = 12						; size = 4
?grpPopMatrix@@YAPAU_object@@PAU1@0@Z PROC		; grpPopMatrix, COMDAT

; 225  : 	CPythonGraphic::Instance().PopMatrix();

  00000	8b 0d 00 00 00
	00		 mov	 ecx, DWORD PTR ?ms_singleton@?$CSingleton@VCPythonGraphic@@@@0PAVCPythonGraphic@@A ; CSingleton<CPythonGraphic>::ms_singleton
  00006	e8 00 00 00 00	 call	 ?PopMatrix@CGraphicBase@@QAEXXZ ; CGraphicBase::PopMatrix

; 226  : 	return Py_BuildNone();

  0000b	e9 00 00 00 00	 jmp	 ?Py_BuildNone@@YAPAU_object@@XZ ; Py_BuildNone
?grpPopMatrix@@YAPAU_object@@PAU1@0@Z ENDP		; grpPopMatrix
_TEXT	ENDS
; Function compile flags: /Ogtp
; File C:\DS Project\DS Files\Source\ClientSource\Client\eterPythonLib\PythonGraphicModule.cpp
;	COMDAT ?grpPushMatrix@@YAPAU_object@@PAU1@0@Z
_TEXT	SEGMENT
_poSelf$ = 8						; size = 4
_poArgs$ = 12						; size = 4
?grpPushMatrix@@YAPAU_object@@PAU1@0@Z PROC		; grpPushMatrix, COMDAT

; 219  : 	CPythonGraphic::Instance().PushMatrix();

  00000	8b 0d 00 00 00
	00		 mov	 ecx, DWORD PTR ?ms_singleton@?$CSingleton@VCPythonGraphic@@@@0PAVCPythonGraphic@@A ; CSingleton<CPythonGraphic>::ms_singleton
  00006	e8 00 00 00 00	 call	 ?PushMatrix@CGraphicBase@@QAEXXZ ; CGraphicBase::PushMatrix

; 220  : 	return Py_BuildNone();

  0000b	e9 00 00 00 00	 jmp	 ?Py_BuildNone@@YAPAU_object@@XZ ; Py_BuildNone
?grpPushMatrix@@YAPAU_object@@PAU1@0@Z ENDP		; grpPushMatrix
_TEXT	ENDS
; Function compile flags: /Ogtp
; File C:\DS Project\DS Files\Source\ClientSource\Client\eterPythonLib\PythonGraphicModule.cpp
;	COMDAT ?grpPopState@@YAPAU_object@@PAU1@0@Z
_TEXT	SEGMENT
_poSelf$ = 8						; size = 4
_poArgs$ = 12						; size = 4
?grpPopState@@YAPAU_object@@PAU1@0@Z PROC		; grpPopState, COMDAT

; 213  : 	CPythonGraphic::Instance().PopState();

  00000	8b 0d 00 00 00
	00		 mov	 ecx, DWORD PTR ?ms_singleton@?$CSingleton@VCPythonGraphic@@@@0PAVCPythonGraphic@@A ; CSingleton<CPythonGraphic>::ms_singleton
  00006	e8 00 00 00 00	 call	 ?PopState@CPythonGraphic@@QAEXXZ ; CPythonGraphic::PopState

; 214  : 	return Py_BuildNone();

  0000b	e9 00 00 00 00	 jmp	 ?Py_BuildNone@@YAPAU_object@@XZ ; Py_BuildNone
?grpPopState@@YAPAU_object@@PAU1@0@Z ENDP		; grpPopState
_TEXT	ENDS
; Function compile flags: /Ogtp
; File C:\DS Project\DS Files\Source\ClientSource\Client\eterPythonLib\PythonGraphicModule.cpp
;	COMDAT ?grpPushState@@YAPAU_object@@PAU1@0@Z
_TEXT	SEGMENT
_poSelf$ = 8						; size = 4
_poArgs$ = 12						; size = 4
?grpPushState@@YAPAU_object@@PAU1@0@Z PROC		; grpPushState, COMDAT

; 207  : 	CPythonGraphic::Instance().PushState();

  00000	8b 0d 00 00 00
	00		 mov	 ecx, DWORD PTR ?ms_singleton@?$CSingleton@VCPythonGraphic@@@@0PAVCPythonGraphic@@A ; CSingleton<CPythonGraphic>::ms_singleton
  00006	e8 00 00 00 00	 call	 ?PushState@CPythonGraphic@@QAEXXZ ; CPythonGraphic::PushState

; 208  : 	return Py_BuildNone();

  0000b	e9 00 00 00 00	 jmp	 ?Py_BuildNone@@YAPAU_object@@XZ ; Py_BuildNone
?grpPushState@@YAPAU_object@@PAU1@0@Z ENDP		; grpPushState
_TEXT	ENDS
; Function compile flags: /Ogtp
; File C:\DS Project\DS Files\Source\ClientSource\Client\eterPythonLib\PythonGraphicModule.cpp
;	COMDAT ?grpClearDepthBuffer@@YAPAU_object@@PAU1@0@Z
_TEXT	SEGMENT
_poSelf$ = 8						; size = 4
_poArgs$ = 12						; size = 4
?grpClearDepthBuffer@@YAPAU_object@@PAU1@0@Z PROC	; grpClearDepthBuffer, COMDAT

; 201  : 	CPythonGraphic::Instance().ClearDepthBuffer();

  00000	8b 0d 00 00 00
	00		 mov	 ecx, DWORD PTR ?ms_singleton@?$CSingleton@VCPythonGraphic@@@@0PAVCPythonGraphic@@A ; CSingleton<CPythonGraphic>::ms_singleton
  00006	e8 00 00 00 00	 call	 ?ClearDepthBuffer@CScreen@@QAEXXZ ; CScreen::ClearDepthBuffer

; 202  : 	return Py_BuildNone();

  0000b	e9 00 00 00 00	 jmp	 ?Py_BuildNone@@YAPAU_object@@XZ ; Py_BuildNone
?grpClearDepthBuffer@@YAPAU_object@@PAU1@0@Z ENDP	; grpClearDepthBuffer
_TEXT	ENDS
; Function compile flags: /Ogtp
; File C:\DS Project\DS Files\Source\ClientSource\Client\eterPythonLib\PythonGraphicModule.cpp
;	COMDAT ?grpInitScreenEffect@@YAPAU_object@@PAU1@0@Z
_TEXT	SEGMENT
_poSelf$ = 8						; size = 4
_poArgs$ = 12						; size = 4
?grpInitScreenEffect@@YAPAU_object@@PAU1@0@Z PROC	; grpInitScreenEffect, COMDAT

; 195  : 	CPythonGraphic::Instance().InitScreenEffect();

  00000	8b 0d 00 00 00
	00		 mov	 ecx, DWORD PTR ?ms_singleton@?$CSingleton@VCPythonGraphic@@@@0PAVCPythonGraphic@@A ; CSingleton<CPythonGraphic>::ms_singleton
  00006	e8 00 00 00 00	 call	 ?InitScreenEffect@CGraphicBase@@QAEXXZ ; CGraphicBase::InitScreenEffect

; 196  : 	return Py_BuildNone();

  0000b	e9 00 00 00 00	 jmp	 ?Py_BuildNone@@YAPAU_object@@XZ ; Py_BuildNone
?grpInitScreenEffect@@YAPAU_object@@PAU1@0@Z ENDP	; grpInitScreenEffect
_TEXT	ENDS
; Function compile flags: /Ogtp
; File C:\DS Project\DS Files\Source\ClientSource\Client\eterPythonLib\PythonGraphicModule.cpp
;	COMDAT ?grpCulling@@YAPAU_object@@PAU1@0@Z
_TEXT	SEGMENT
_poSelf$ = 8						; size = 4
_poArgs$ = 12						; size = 4
?grpCulling@@YAPAU_object@@PAU1@0@Z PROC		; grpCulling, COMDAT

; 189  : 	CCullingManager::Instance().Process();

  00000	8b 0d 00 00 00
	00		 mov	 ecx, DWORD PTR ?ms_singleton@?$CSingleton@VCCullingManager@@@@0PAVCCullingManager@@A ; CSingleton<CCullingManager>::ms_singleton
  00006	e8 00 00 00 00	 call	 ?Process@CCullingManager@@QAEXXZ ; CCullingManager::Process

; 190  : 	return Py_BuildNone();

  0000b	e9 00 00 00 00	 jmp	 ?Py_BuildNone@@YAPAU_object@@XZ ; Py_BuildNone
?grpCulling@@YAPAU_object@@PAU1@0@Z ENDP		; grpCulling
_TEXT	ENDS
; Function compile flags: /Ogtp
; File C:\DS Project\DS Files\Source\ClientSource\Client\eterPythonLib\PythonGraphicModule.cpp
;	COMDAT ?grpSetTextBarClipRect@@YAPAU_object@@PAU1@0@Z
_TEXT	SEGMENT
_iey$ = -40						; size = 4
_iex$ = -36						; size = 4
_isy$ = -32						; size = 4
_isx$ = -28						; size = 4
_iHandle$ = -24						; size = 4
_rect$1 = -20						; size = 16
__$ArrayPad$ = -4					; size = 4
_poSelf$ = 8						; size = 4
_poArgs$ = 12						; size = 4
?grpSetTextBarClipRect@@YAPAU_object@@PAU1@0@Z PROC	; grpSetTextBarClipRect, COMDAT

; 155  : {

  00000	55		 push	 ebp
  00001	8b ec		 mov	 ebp, esp
  00003	83 ec 28	 sub	 esp, 40			; 00000028H
  00006	a1 00 00 00 00	 mov	 eax, DWORD PTR ___security_cookie
  0000b	33 c5		 xor	 eax, ebp
  0000d	89 45 fc	 mov	 DWORD PTR __$ArrayPad$[ebp], eax
  00010	56		 push	 esi
  00011	8b 75 0c	 mov	 esi, DWORD PTR _poArgs$[ebp]

; 156  : 	int iHandle;
; 157  : 	if (!PyTuple_GetInteger(poArgs, 0, &iHandle))

  00014	8d 45 e8	 lea	 eax, DWORD PTR _iHandle$[ebp]
  00017	50		 push	 eax
  00018	6a 00		 push	 0
  0001a	56		 push	 esi
  0001b	e8 00 00 00 00	 call	 ?PyTuple_GetInteger@@YA_NPAU_object@@HPAH@Z ; PyTuple_GetInteger
  00020	83 c4 0c	 add	 esp, 12			; 0000000cH
  00023	84 c0		 test	 al, al
  00025	75 19		 jne	 SHORT $LN2@grpSetText
$LN9@grpSetText:

; 185  : }

  00027	6a 00		 push	 0
  00029	e8 00 00 00 00	 call	 ?Py_BuildException@@YAPAU_object@@PBDZZ ; Py_BuildException
  0002e	83 c4 04	 add	 esp, 4
  00031	5e		 pop	 esi
  00032	8b 4d fc	 mov	 ecx, DWORD PTR __$ArrayPad$[ebp]
  00035	33 cd		 xor	 ecx, ebp
  00037	e8 00 00 00 00	 call	 @__security_check_cookie@4
  0003c	8b e5		 mov	 esp, ebp
  0003e	5d		 pop	 ebp
  0003f	c3		 ret	 0
$LN2@grpSetText:

; 158  : 		return Py_BuildException();
; 159  : 	int isx;
; 160  : 	if (!PyTuple_GetInteger(poArgs, 1, &isx))

  00040	8d 45 e4	 lea	 eax, DWORD PTR _isx$[ebp]
  00043	50		 push	 eax
  00044	6a 01		 push	 1
  00046	56		 push	 esi
  00047	e8 00 00 00 00	 call	 ?PyTuple_GetInteger@@YA_NPAU_object@@HPAH@Z ; PyTuple_GetInteger
  0004c	83 c4 0c	 add	 esp, 12			; 0000000cH
  0004f	84 c0		 test	 al, al
  00051	74 d4		 je	 SHORT $LN9@grpSetText

; 161  : 		return Py_BuildException();
; 162  : 	int isy;
; 163  : 	if (!PyTuple_GetInteger(poArgs, 2, &isy))

  00053	8d 45 e0	 lea	 eax, DWORD PTR _isy$[ebp]
  00056	50		 push	 eax
  00057	6a 02		 push	 2
  00059	56		 push	 esi
  0005a	e8 00 00 00 00	 call	 ?PyTuple_GetInteger@@YA_NPAU_object@@HPAH@Z ; PyTuple_GetInteger
  0005f	83 c4 0c	 add	 esp, 12			; 0000000cH
  00062	84 c0		 test	 al, al
  00064	74 c1		 je	 SHORT $LN9@grpSetText

; 164  : 		return Py_BuildException();
; 165  : 	int iex;
; 166  : 	if (!PyTuple_GetInteger(poArgs, 3, &iex))

  00066	8d 45 dc	 lea	 eax, DWORD PTR _iex$[ebp]
  00069	50		 push	 eax
  0006a	6a 03		 push	 3
  0006c	56		 push	 esi
  0006d	e8 00 00 00 00	 call	 ?PyTuple_GetInteger@@YA_NPAU_object@@HPAH@Z ; PyTuple_GetInteger
  00072	83 c4 0c	 add	 esp, 12			; 0000000cH
  00075	84 c0		 test	 al, al
  00077	74 ae		 je	 SHORT $LN9@grpSetText

; 167  : 		return Py_BuildException();
; 168  : 	int iey;
; 169  : 	if (!PyTuple_GetInteger(poArgs, 4, &iey))

  00079	8d 45 d8	 lea	 eax, DWORD PTR _iey$[ebp]
  0007c	50		 push	 eax
  0007d	6a 04		 push	 4
  0007f	56		 push	 esi
  00080	e8 00 00 00 00	 call	 ?PyTuple_GetInteger@@YA_NPAU_object@@HPAH@Z ; PyTuple_GetInteger
  00085	83 c4 0c	 add	 esp, 12			; 0000000cH
  00088	84 c0		 test	 al, al
  0008a	74 9b		 je	 SHORT $LN9@grpSetText

; 170  : 		return Py_BuildException();
; 171  : 
; 172  : 	CTextBar * pTextBar = (CTextBar *)iHandle;
; 173  : 	if (pTextBar)

  0008c	8b 4d e8	 mov	 ecx, DWORD PTR _iHandle$[ebp]
  0008f	85 c9		 test	 ecx, ecx
  00091	74 21		 je	 SHORT $LN7@grpSetText

; 174  : 	{
; 175  : 		RECT rect;
; 176  : 		rect.left = isx;

  00093	8b 45 e4	 mov	 eax, DWORD PTR _isx$[ebp]
  00096	89 45 ec	 mov	 DWORD PTR _rect$1[ebp], eax

; 177  : 		rect.top = isy;

  00099	8b 45 e0	 mov	 eax, DWORD PTR _isy$[ebp]
  0009c	89 45 f0	 mov	 DWORD PTR _rect$1[ebp+4], eax

; 178  : 		rect.right = iex;

  0009f	8b 45 dc	 mov	 eax, DWORD PTR _iex$[ebp]
  000a2	89 45 f4	 mov	 DWORD PTR _rect$1[ebp+8], eax

; 179  : 		rect.bottom = iey;

  000a5	8b 45 d8	 mov	 eax, DWORD PTR _iey$[ebp]
  000a8	89 45 f8	 mov	 DWORD PTR _rect$1[ebp+12], eax

; 180  : 
; 181  : 		pTextBar->SetClipRect(rect);

  000ab	8d 45 ec	 lea	 eax, DWORD PTR _rect$1[ebp]
  000ae	50		 push	 eax
  000af	e8 00 00 00 00	 call	 ?SetClipRect@CDibBar@@QAEXABUtagRECT@@@Z ; CDibBar::SetClipRect
$LN7@grpSetText:

; 182  : 	}
; 183  : 
; 184  : 	return Py_BuildNone();

  000b4	e8 00 00 00 00	 call	 ?Py_BuildNone@@YAPAU_object@@XZ ; Py_BuildNone

; 185  : }

  000b9	8b 4d fc	 mov	 ecx, DWORD PTR __$ArrayPad$[ebp]
  000bc	33 cd		 xor	 ecx, ebp
  000be	5e		 pop	 esi
  000bf	e8 00 00 00 00	 call	 @__security_check_cookie@4
  000c4	8b e5		 mov	 esp, ebp
  000c6	5d		 pop	 ebp
  000c7	c3		 ret	 0
?grpSetTextBarClipRect@@YAPAU_object@@PAU1@0@Z ENDP	; grpSetTextBarClipRect
_TEXT	ENDS
; Function compile flags: /Ogtp
; File C:\DS Project\DS Files\Source\ClientSource\Client\eterPythonLib\PythonGraphicModule.cpp
;	COMDAT ?grpClearTextBar@@YAPAU_object@@PAU1@0@Z
_TEXT	SEGMENT
_iHandle$ = -4						; size = 4
_poSelf$ = 8						; size = 4
_poArgs$ = 12						; size = 4
?grpClearTextBar@@YAPAU_object@@PAU1@0@Z PROC		; grpClearTextBar, COMDAT

; 142  : {

  00000	55		 push	 ebp
  00001	8b ec		 mov	 ebp, esp
  00003	51		 push	 ecx

; 143  : 	int iHandle;
; 144  : 	if (!PyTuple_GetInteger(poArgs, 0, &iHandle))

  00004	8d 45 fc	 lea	 eax, DWORD PTR _iHandle$[ebp]
  00007	50		 push	 eax
  00008	6a 00		 push	 0
  0000a	ff 75 0c	 push	 DWORD PTR _poArgs$[ebp]
  0000d	e8 00 00 00 00	 call	 ?PyTuple_GetInteger@@YA_NPAU_object@@HPAH@Z ; PyTuple_GetInteger
  00012	83 c4 0c	 add	 esp, 12			; 0000000cH
  00015	84 c0		 test	 al, al
  00017	75 0e		 jne	 SHORT $LN2@grpClearTe

; 145  : 		return Py_BuildException();

  00019	6a 00		 push	 0
  0001b	e8 00 00 00 00	 call	 ?Py_BuildException@@YAPAU_object@@PBDZZ ; Py_BuildException
  00020	83 c4 04	 add	 esp, 4

; 152  : }

  00023	8b e5		 mov	 esp, ebp
  00025	5d		 pop	 ebp
  00026	c3		 ret	 0
$LN2@grpClearTe:

; 146  : 
; 147  : 	CTextBar * pTextBar = (CTextBar *)iHandle;
; 148  : 	if (pTextBar)

  00027	8b 4d fc	 mov	 ecx, DWORD PTR _iHandle$[ebp]
  0002a	85 c9		 test	 ecx, ecx
  0002c	74 05		 je	 SHORT $LN3@grpClearTe

; 149  : 		pTextBar->ClearBar();

  0002e	e8 00 00 00 00	 call	 ?ClearBar@CDibBar@@QAEXXZ ; CDibBar::ClearBar
$LN3@grpClearTe:

; 150  : 
; 151  : 	return Py_BuildNone();

  00033	e8 00 00 00 00	 call	 ?Py_BuildNone@@YAPAU_object@@XZ ; Py_BuildNone

; 152  : }

  00038	8b e5		 mov	 esp, ebp
  0003a	5d		 pop	 ebp
  0003b	c3		 ret	 0
?grpClearTextBar@@YAPAU_object@@PAU1@0@Z ENDP		; grpClearTextBar
_TEXT	ENDS
; Function compile flags: /Ogtp
; File C:\DS Project\DS Files\Source\ClientSource\Client\eterPythonLib\PythonGraphicModule.cpp
;	COMDAT ?grpTextBarTextOut@@YAPAU_object@@PAU1@0@Z
_TEXT	SEGMENT
_ix$ = -16						; size = 4
_iy$ = -12						; size = 4
_szText$ = -8						; size = 4
_iHandle$ = -4						; size = 4
_poSelf$ = 8						; size = 4
_poArgs$ = 12						; size = 4
?grpTextBarTextOut@@YAPAU_object@@PAU1@0@Z PROC		; grpTextBarTextOut, COMDAT

; 120  : {

  00000	55		 push	 ebp
  00001	8b ec		 mov	 ebp, esp
  00003	83 ec 10	 sub	 esp, 16			; 00000010H

; 121  : 	int iHandle;
; 122  : 	if (!PyTuple_GetInteger(poArgs, 0, &iHandle))

  00006	8d 45 fc	 lea	 eax, DWORD PTR _iHandle$[ebp]
  00009	56		 push	 esi
  0000a	8b 75 0c	 mov	 esi, DWORD PTR _poArgs$[ebp]
  0000d	50		 push	 eax
  0000e	6a 00		 push	 0
  00010	56		 push	 esi
  00011	e8 00 00 00 00	 call	 ?PyTuple_GetInteger@@YA_NPAU_object@@HPAH@Z ; PyTuple_GetInteger
  00016	83 c4 0c	 add	 esp, 12			; 0000000cH
  00019	84 c0		 test	 al, al
  0001b	75 0f		 jne	 SHORT $LN2@grpTextBar
$LN8@grpTextBar:

; 139  : }

  0001d	6a 00		 push	 0
  0001f	e8 00 00 00 00	 call	 ?Py_BuildException@@YAPAU_object@@PBDZZ ; Py_BuildException
  00024	83 c4 04	 add	 esp, 4
  00027	5e		 pop	 esi
  00028	8b e5		 mov	 esp, ebp
  0002a	5d		 pop	 ebp
  0002b	c3		 ret	 0
$LN2@grpTextBar:

; 123  : 		return Py_BuildException();
; 124  : 	int ix;
; 125  : 	if (!PyTuple_GetInteger(poArgs, 1, &ix))

  0002c	8d 45 f0	 lea	 eax, DWORD PTR _ix$[ebp]
  0002f	50		 push	 eax
  00030	6a 01		 push	 1
  00032	56		 push	 esi
  00033	e8 00 00 00 00	 call	 ?PyTuple_GetInteger@@YA_NPAU_object@@HPAH@Z ; PyTuple_GetInteger
  00038	83 c4 0c	 add	 esp, 12			; 0000000cH
  0003b	84 c0		 test	 al, al
  0003d	74 de		 je	 SHORT $LN8@grpTextBar

; 126  : 		return Py_BuildException();
; 127  : 	int iy;
; 128  : 	if (!PyTuple_GetInteger(poArgs, 2, &iy))

  0003f	8d 45 f4	 lea	 eax, DWORD PTR _iy$[ebp]
  00042	50		 push	 eax
  00043	6a 02		 push	 2
  00045	56		 push	 esi
  00046	e8 00 00 00 00	 call	 ?PyTuple_GetInteger@@YA_NPAU_object@@HPAH@Z ; PyTuple_GetInteger
  0004b	83 c4 0c	 add	 esp, 12			; 0000000cH
  0004e	84 c0		 test	 al, al
  00050	74 cb		 je	 SHORT $LN8@grpTextBar

; 129  : 		return Py_BuildException();
; 130  : 	char * szText;
; 131  : 	if (!PyTuple_GetString(poArgs, 3, &szText))

  00052	8d 45 f8	 lea	 eax, DWORD PTR _szText$[ebp]
  00055	50		 push	 eax
  00056	6a 03		 push	 3
  00058	56		 push	 esi
  00059	e8 00 00 00 00	 call	 ?PyTuple_GetString@@YA_NPAU_object@@HPAPAD@Z ; PyTuple_GetString
  0005e	83 c4 0c	 add	 esp, 12			; 0000000cH
  00061	84 c0		 test	 al, al
  00063	74 b8		 je	 SHORT $LN8@grpTextBar

; 132  : 		return Py_BuildException();
; 133  : 
; 134  : 	CTextBar * pTextBar = (CTextBar *)iHandle;
; 135  : 	if (pTextBar)

  00065	8b 4d fc	 mov	 ecx, DWORD PTR _iHandle$[ebp]
  00068	85 c9		 test	 ecx, ecx
  0006a	74 0e		 je	 SHORT $LN6@grpTextBar

; 136  : 		pTextBar->TextOut(ix, iy, szText);

  0006c	ff 75 f8	 push	 DWORD PTR _szText$[ebp]
  0006f	ff 75 f4	 push	 DWORD PTR _iy$[ebp]
  00072	ff 75 f0	 push	 DWORD PTR _ix$[ebp]
  00075	e8 00 00 00 00	 call	 ?TextOutA@CTextBar@@QAEXHHPBD@Z ; CTextBar::TextOutA
$LN6@grpTextBar:

; 137  : 
; 138  : 	return Py_BuildNone();

  0007a	e8 00 00 00 00	 call	 ?Py_BuildNone@@YAPAU_object@@XZ ; Py_BuildNone
  0007f	5e		 pop	 esi

; 139  : }

  00080	8b e5		 mov	 esp, ebp
  00082	5d		 pop	 ebp
  00083	c3		 ret	 0
?grpTextBarTextOut@@YAPAU_object@@PAU1@0@Z ENDP		; grpTextBarTextOut
_TEXT	ENDS
; Function compile flags: /Ogtp
; File C:\DS Project\DS Files\Source\ClientSource\Client\eterPythonLib\PythonGraphicModule.cpp
;	COMDAT ?grpTextBarGetTextExtent@@YAPAU_object@@PAU1@0@Z
_TEXT	SEGMENT
_size$ = -16						; size = 8
_szText$ = -8						; size = 4
_iHandle$ = -4						; size = 4
_poSelf$ = 8						; size = 4
_poArgs$ = 12						; size = 4
?grpTextBarGetTextExtent@@YAPAU_object@@PAU1@0@Z PROC	; grpTextBarGetTextExtent, COMDAT

; 103  : {

  00000	55		 push	 ebp
  00001	8b ec		 mov	 ebp, esp
  00003	83 ec 10	 sub	 esp, 16			; 00000010H

; 104  : 	int iHandle;
; 105  : 	if (!PyTuple_GetInteger(poArgs, 0, &iHandle))

  00006	8d 45 fc	 lea	 eax, DWORD PTR _iHandle$[ebp]
  00009	50		 push	 eax
  0000a	6a 00		 push	 0
  0000c	ff 75 0c	 push	 DWORD PTR _poArgs$[ebp]
  0000f	e8 00 00 00 00	 call	 ?PyTuple_GetInteger@@YA_NPAU_object@@HPAH@Z ; PyTuple_GetInteger
  00014	83 c4 0c	 add	 esp, 12			; 0000000cH
  00017	84 c0		 test	 al, al
  00019	75 0e		 jne	 SHORT $LN2@grpTextBar
$LN6@grpTextBar:

; 117  : }

  0001b	6a 00		 push	 0
  0001d	e8 00 00 00 00	 call	 ?Py_BuildException@@YAPAU_object@@PBDZZ ; Py_BuildException
  00022	83 c4 04	 add	 esp, 4
  00025	8b e5		 mov	 esp, ebp
  00027	5d		 pop	 ebp
  00028	c3		 ret	 0
$LN2@grpTextBar:

; 106  : 		return Py_BuildException();
; 107  : 	char * szText;
; 108  : 	if (!PyTuple_GetString(poArgs, 1, &szText))

  00029	8d 45 f8	 lea	 eax, DWORD PTR _szText$[ebp]
  0002c	50		 push	 eax
  0002d	6a 01		 push	 1
  0002f	ff 75 0c	 push	 DWORD PTR _poArgs$[ebp]
  00032	e8 00 00 00 00	 call	 ?PyTuple_GetString@@YA_NPAU_object@@HPAPAD@Z ; PyTuple_GetString
  00037	83 c4 0c	 add	 esp, 12			; 0000000cH
  0003a	84 c0		 test	 al, al
  0003c	74 dd		 je	 SHORT $LN6@grpTextBar

; 109  : 		return Py_BuildException();
; 110  : 
; 111  : 	SIZE size = {0, 0};
; 112  : 	CTextBar * pTextBar = (CTextBar *)iHandle;
; 113  : 	if (pTextBar)

  0003e	8b 4d fc	 mov	 ecx, DWORD PTR _iHandle$[ebp]
  00041	33 c0		 xor	 eax, eax
  00043	33 d2		 xor	 edx, edx
  00045	89 45 f0	 mov	 DWORD PTR _size$[ebp], eax
  00048	89 55 f4	 mov	 DWORD PTR _size$[ebp+4], edx
  0004b	85 c9		 test	 ecx, ecx
  0004d	74 12		 je	 SHORT $LN4@grpTextBar

; 114  : 		pTextBar->GetTextExtent(szText, &size);

  0004f	8d 45 f0	 lea	 eax, DWORD PTR _size$[ebp]
  00052	50		 push	 eax
  00053	ff 75 f8	 push	 DWORD PTR _szText$[ebp]
  00056	e8 00 00 00 00	 call	 ?GetTextExtent@CTextBar@@QAEXPBDPAUtagSIZE@@@Z ; CTextBar::GetTextExtent
  0005b	8b 55 f4	 mov	 edx, DWORD PTR _size$[ebp+4]
  0005e	8b 45 f0	 mov	 eax, DWORD PTR _size$[ebp]
$LN4@grpTextBar:

; 115  : 
; 116  : 	return Py_BuildValue("ii", size.cx, size.cy);

  00061	52		 push	 edx
  00062	50		 push	 eax
  00063	68 00 00 00 00	 push	 OFFSET ??_C@_02PDIHAGKM@ii@
  00068	ff 15 00 00 00
	00		 call	 DWORD PTR __imp__Py_BuildValue
  0006e	83 c4 0c	 add	 esp, 12			; 0000000cH

; 117  : }

  00071	8b e5		 mov	 esp, ebp
  00073	5d		 pop	 ebp
  00074	c3		 ret	 0
?grpTextBarGetTextExtent@@YAPAU_object@@PAU1@0@Z ENDP	; grpTextBarGetTextExtent
_TEXT	ENDS
; Function compile flags: /Ogtp
; File C:\DS Project\DS Files\Source\ClientSource\Client\eterPythonLib\PythonGraphicModule.cpp
;	COMDAT ?grpTextBarSetTextColor@@YAPAU_object@@PAU1@0@Z
_TEXT	SEGMENT
_r$ = -16						; size = 4
_g$ = -12						; size = 4
_b$ = -8						; size = 4
_iHandle$ = -4						; size = 4
_poSelf$ = 8						; size = 4
_poArgs$ = 12						; size = 4
?grpTextBarSetTextColor@@YAPAU_object@@PAU1@0@Z PROC	; grpTextBarSetTextColor, COMDAT

; 81   : {

  00000	55		 push	 ebp
  00001	8b ec		 mov	 ebp, esp
  00003	83 ec 10	 sub	 esp, 16			; 00000010H

; 82   : 	int iHandle;
; 83   : 	if (!PyTuple_GetInteger(poArgs, 0, &iHandle))

  00006	8d 45 fc	 lea	 eax, DWORD PTR _iHandle$[ebp]
  00009	56		 push	 esi
  0000a	8b 75 0c	 mov	 esi, DWORD PTR _poArgs$[ebp]
  0000d	50		 push	 eax
  0000e	6a 00		 push	 0
  00010	56		 push	 esi
  00011	e8 00 00 00 00	 call	 ?PyTuple_GetInteger@@YA_NPAU_object@@HPAH@Z ; PyTuple_GetInteger
  00016	83 c4 0c	 add	 esp, 12			; 0000000cH
  00019	84 c0		 test	 al, al
  0001b	75 0f		 jne	 SHORT $LN2@grpTextBar
$LN8@grpTextBar:

; 100  : }

  0001d	6a 00		 push	 0
  0001f	e8 00 00 00 00	 call	 ?Py_BuildException@@YAPAU_object@@PBDZZ ; Py_BuildException
  00024	83 c4 04	 add	 esp, 4
  00027	5e		 pop	 esi
  00028	8b e5		 mov	 esp, ebp
  0002a	5d		 pop	 ebp
  0002b	c3		 ret	 0
$LN2@grpTextBar:

; 84   : 		return Py_BuildException();
; 85   : 	int r;
; 86   : 	if (!PyTuple_GetInteger(poArgs, 1, &r))

  0002c	8d 45 f0	 lea	 eax, DWORD PTR _r$[ebp]
  0002f	50		 push	 eax
  00030	6a 01		 push	 1
  00032	56		 push	 esi
  00033	e8 00 00 00 00	 call	 ?PyTuple_GetInteger@@YA_NPAU_object@@HPAH@Z ; PyTuple_GetInteger
  00038	83 c4 0c	 add	 esp, 12			; 0000000cH
  0003b	84 c0		 test	 al, al
  0003d	74 de		 je	 SHORT $LN8@grpTextBar

; 87   : 		return Py_BuildException();
; 88   : 	int g;
; 89   : 	if (!PyTuple_GetInteger(poArgs, 2, &g))

  0003f	8d 45 f4	 lea	 eax, DWORD PTR _g$[ebp]
  00042	50		 push	 eax
  00043	6a 02		 push	 2
  00045	56		 push	 esi
  00046	e8 00 00 00 00	 call	 ?PyTuple_GetInteger@@YA_NPAU_object@@HPAH@Z ; PyTuple_GetInteger
  0004b	83 c4 0c	 add	 esp, 12			; 0000000cH
  0004e	84 c0		 test	 al, al
  00050	74 cb		 je	 SHORT $LN8@grpTextBar

; 90   : 		return Py_BuildException();
; 91   : 	int b;
; 92   : 	if (!PyTuple_GetInteger(poArgs, 3, &b))

  00052	8d 45 f8	 lea	 eax, DWORD PTR _b$[ebp]
  00055	50		 push	 eax
  00056	6a 03		 push	 3
  00058	56		 push	 esi
  00059	e8 00 00 00 00	 call	 ?PyTuple_GetInteger@@YA_NPAU_object@@HPAH@Z ; PyTuple_GetInteger
  0005e	83 c4 0c	 add	 esp, 12			; 0000000cH
  00061	84 c0		 test	 al, al
  00063	74 b8		 je	 SHORT $LN8@grpTextBar

; 93   : 		return Py_BuildException();
; 94   : 
; 95   : 	CTextBar * pTextBar = (CTextBar *)iHandle;
; 96   : 	if (pTextBar)

  00065	8b 4d fc	 mov	 ecx, DWORD PTR _iHandle$[ebp]
  00068	85 c9		 test	 ecx, ecx
  0006a	74 0e		 je	 SHORT $LN6@grpTextBar

; 97   : 		pTextBar->SetTextColor(r, g, b);

  0006c	ff 75 f8	 push	 DWORD PTR _b$[ebp]
  0006f	ff 75 f4	 push	 DWORD PTR _g$[ebp]
  00072	ff 75 f0	 push	 DWORD PTR _r$[ebp]
  00075	e8 00 00 00 00	 call	 ?SetTextColor@CTextBar@@QAEXHHH@Z ; CTextBar::SetTextColor
$LN6@grpTextBar:

; 98   : 
; 99   : 	return Py_BuildNone();

  0007a	e8 00 00 00 00	 call	 ?Py_BuildNone@@YAPAU_object@@XZ ; Py_BuildNone
  0007f	5e		 pop	 esi

; 100  : }

  00080	8b e5		 mov	 esp, ebp
  00082	5d		 pop	 ebp
  00083	c3		 ret	 0
?grpTextBarSetTextColor@@YAPAU_object@@PAU1@0@Z ENDP	; grpTextBarSetTextColor
_TEXT	ENDS
; Function compile flags: /Ogtp
; File C:\DS Project\DS Files\Source\ClientSource\Client\eterPythonLib\PythonGraphicModule.cpp
;	COMDAT ?grpRenderTextBar@@YAPAU_object@@PAU1@0@Z
_TEXT	SEGMENT
_ix$ = -12						; size = 4
_iy$ = -8						; size = 4
_iHandle$ = -4						; size = 4
_poSelf$ = 8						; size = 4
_poArgs$ = 12						; size = 4
?grpRenderTextBar@@YAPAU_object@@PAU1@0@Z PROC		; grpRenderTextBar, COMDAT

; 62   : {

  00000	55		 push	 ebp
  00001	8b ec		 mov	 ebp, esp
  00003	83 ec 0c	 sub	 esp, 12			; 0000000cH

; 63   : 	int iHandle;
; 64   : 	if (!PyTuple_GetInteger(poArgs, 0, &iHandle))

  00006	8d 45 fc	 lea	 eax, DWORD PTR _iHandle$[ebp]
  00009	56		 push	 esi
  0000a	8b 75 0c	 mov	 esi, DWORD PTR _poArgs$[ebp]
  0000d	50		 push	 eax
  0000e	6a 00		 push	 0
  00010	56		 push	 esi
  00011	e8 00 00 00 00	 call	 ?PyTuple_GetInteger@@YA_NPAU_object@@HPAH@Z ; PyTuple_GetInteger
  00016	83 c4 0c	 add	 esp, 12			; 0000000cH
  00019	84 c0		 test	 al, al
  0001b	75 0f		 jne	 SHORT $LN2@grpRenderT
$LN7@grpRenderT:

; 78   : }

  0001d	6a 00		 push	 0
  0001f	e8 00 00 00 00	 call	 ?Py_BuildException@@YAPAU_object@@PBDZZ ; Py_BuildException
  00024	83 c4 04	 add	 esp, 4
  00027	5e		 pop	 esi
  00028	8b e5		 mov	 esp, ebp
  0002a	5d		 pop	 ebp
  0002b	c3		 ret	 0
$LN2@grpRenderT:

; 65   : 		return Py_BuildException();
; 66   : 	int ix;
; 67   : 	if (!PyTuple_GetInteger(poArgs, 1, &ix))

  0002c	8d 45 f4	 lea	 eax, DWORD PTR _ix$[ebp]
  0002f	50		 push	 eax
  00030	6a 01		 push	 1
  00032	56		 push	 esi
  00033	e8 00 00 00 00	 call	 ?PyTuple_GetInteger@@YA_NPAU_object@@HPAH@Z ; PyTuple_GetInteger
  00038	83 c4 0c	 add	 esp, 12			; 0000000cH
  0003b	84 c0		 test	 al, al
  0003d	74 de		 je	 SHORT $LN7@grpRenderT

; 68   : 		return Py_BuildException();
; 69   : 	int iy;
; 70   : 	if (!PyTuple_GetInteger(poArgs, 2, &iy))

  0003f	8d 45 f8	 lea	 eax, DWORD PTR _iy$[ebp]
  00042	50		 push	 eax
  00043	6a 02		 push	 2
  00045	56		 push	 esi
  00046	e8 00 00 00 00	 call	 ?PyTuple_GetInteger@@YA_NPAU_object@@HPAH@Z ; PyTuple_GetInteger
  0004b	83 c4 0c	 add	 esp, 12			; 0000000cH
  0004e	84 c0		 test	 al, al
  00050	74 cb		 je	 SHORT $LN7@grpRenderT

; 71   : 		return Py_BuildException();
; 72   : 
; 73   : 	CTextBar * pTextBar = (CTextBar *)iHandle;
; 74   : 	if (pTextBar)

  00052	8b 4d fc	 mov	 ecx, DWORD PTR _iHandle$[ebp]
  00055	85 c9		 test	 ecx, ecx
  00057	74 0b		 je	 SHORT $LN5@grpRenderT

; 75   : 		pTextBar->Render(ix, iy);

  00059	ff 75 f8	 push	 DWORD PTR _iy$[ebp]
  0005c	ff 75 f4	 push	 DWORD PTR _ix$[ebp]
  0005f	e8 00 00 00 00	 call	 ?Render@CDibBar@@QAEXHH@Z ; CDibBar::Render
$LN5@grpRenderT:

; 76   : 
; 77   : 	return Py_BuildNone();

  00064	e8 00 00 00 00	 call	 ?Py_BuildNone@@YAPAU_object@@XZ ; Py_BuildNone
  00069	5e		 pop	 esi

; 78   : }

  0006a	8b e5		 mov	 esp, ebp
  0006c	5d		 pop	 ebp
  0006d	c3		 ret	 0
?grpRenderTextBar@@YAPAU_object@@PAU1@0@Z ENDP		; grpRenderTextBar
_TEXT	ENDS
; Function compile flags: /Ogtp
; File C:\DS Project\DS Files\Source\ClientSource\Client\eterPythonLib\PythonGraphicModule.cpp
;	COMDAT ?grpDestroyTextBar@@YAPAU_object@@PAU1@0@Z
_TEXT	SEGMENT
_iHandle$ = -4						; size = 4
_poSelf$ = 8						; size = 4
_poArgs$ = 12						; size = 4
?grpDestroyTextBar@@YAPAU_object@@PAU1@0@Z PROC		; grpDestroyTextBar, COMDAT

; 50   : {

  00000	55		 push	 ebp
  00001	8b ec		 mov	 ebp, esp
  00003	51		 push	 ecx

; 51   : 	int iHandle;
; 52   : 	if (!PyTuple_GetInteger(poArgs, 0, &iHandle))

  00004	8d 45 fc	 lea	 eax, DWORD PTR _iHandle$[ebp]
  00007	50		 push	 eax
  00008	6a 00		 push	 0
  0000a	ff 75 0c	 push	 DWORD PTR _poArgs$[ebp]
  0000d	e8 00 00 00 00	 call	 ?PyTuple_GetInteger@@YA_NPAU_object@@HPAH@Z ; PyTuple_GetInteger
  00012	83 c4 0c	 add	 esp, 12			; 0000000cH
  00015	84 c0		 test	 al, al
  00017	75 0e		 jne	 SHORT $LN2@grpDestroy

; 53   : 		return Py_BuildException();

  00019	6a 00		 push	 0
  0001b	e8 00 00 00 00	 call	 ?Py_BuildException@@YAPAU_object@@PBDZZ ; Py_BuildException
  00020	83 c4 04	 add	 esp, 4

; 59   : }

  00023	8b e5		 mov	 esp, ebp
  00025	5d		 pop	 ebp
  00026	c3		 ret	 0
$LN2@grpDestroy:

; 54   : 
; 55   : 	CTextBar * pTextBar = (CTextBar *)iHandle;
; 56   : 	delete pTextBar;

  00027	8b 4d fc	 mov	 ecx, DWORD PTR _iHandle$[ebp]
  0002a	85 c9		 test	 ecx, ecx
  0002c	74 06		 je	 SHORT $LN4@grpDestroy
  0002e	8b 01		 mov	 eax, DWORD PTR [ecx]
  00030	6a 01		 push	 1
  00032	ff 10		 call	 DWORD PTR [eax]
$LN4@grpDestroy:

; 57   : 
; 58   : 	return Py_BuildNone();

  00034	e8 00 00 00 00	 call	 ?Py_BuildNone@@YAPAU_object@@XZ ; Py_BuildNone

; 59   : }

  00039	8b e5		 mov	 esp, ebp
  0003b	5d		 pop	 ebp
  0003c	c3		 ret	 0
?grpDestroyTextBar@@YAPAU_object@@PAU1@0@Z ENDP		; grpDestroyTextBar
_TEXT	ENDS
; Function compile flags: /Ogtp
; File C:\DS Project\DS Files\Source\ClientSource\Client\eterPythonLib\PythonGraphicModule.cpp
;	COMDAT ?grpCreateBigTextBar@@YAPAU_object@@PAU1@0@Z
_TEXT	SEGMENT
$T2 = -28						; size = 4
_iWidth$ = -24						; size = 4
_iHeight$ = -20						; size = 4
_iFontSize$ = -16					; size = 4
__$EHRec$ = -12						; size = 12
_poSelf$ = 8						; size = 4
_poArgs$ = 12						; size = 4
?grpCreateBigTextBar@@YAPAU_object@@PAU1@0@Z PROC	; grpCreateBigTextBar, COMDAT

; 27   : {

  00000	55		 push	 ebp
  00001	8b ec		 mov	 ebp, esp
  00003	6a ff		 push	 -1
  00005	68 00 00 00 00	 push	 __ehhandler$?grpCreateBigTextBar@@YAPAU_object@@PAU1@0@Z
  0000a	64 a1 00 00 00
	00		 mov	 eax, DWORD PTR fs:0
  00010	50		 push	 eax
  00011	83 ec 10	 sub	 esp, 16			; 00000010H
  00014	56		 push	 esi
  00015	a1 00 00 00 00	 mov	 eax, DWORD PTR ___security_cookie
  0001a	33 c5		 xor	 eax, ebp
  0001c	50		 push	 eax
  0001d	8d 45 f4	 lea	 eax, DWORD PTR __$EHRec$[ebp]
  00020	64 a3 00 00 00
	00		 mov	 DWORD PTR fs:0, eax

; 28   : 	int iWidth;
; 29   : 	if (!PyTuple_GetInteger(poArgs, 0, &iWidth))

  00026	8b 75 0c	 mov	 esi, DWORD PTR _poArgs$[ebp]
  00029	8d 45 e8	 lea	 eax, DWORD PTR _iWidth$[ebp]
  0002c	50		 push	 eax
  0002d	6a 00		 push	 0
  0002f	56		 push	 esi
  00030	e8 00 00 00 00	 call	 ?PyTuple_GetInteger@@YA_NPAU_object@@HPAH@Z ; PyTuple_GetInteger
  00035	83 c4 0c	 add	 esp, 12			; 0000000cH
  00038	84 c0		 test	 al, al
  0003a	75 1a		 jne	 SHORT $LN2@grpCreateB
$LN14@grpCreateB:

; 47   : }

  0003c	6a 00		 push	 0
  0003e	e8 00 00 00 00	 call	 ?Py_BuildException@@YAPAU_object@@PBDZZ ; Py_BuildException
  00043	83 c4 04	 add	 esp, 4
  00046	8b 4d f4	 mov	 ecx, DWORD PTR __$EHRec$[ebp]
  00049	64 89 0d 00 00
	00 00		 mov	 DWORD PTR fs:0, ecx
  00050	59		 pop	 ecx
  00051	5e		 pop	 esi
  00052	8b e5		 mov	 esp, ebp
  00054	5d		 pop	 ebp
  00055	c3		 ret	 0
$LN2@grpCreateB:

; 30   : 		return Py_BuildException();
; 31   : 	int iHeight;
; 32   : 	if (!PyTuple_GetInteger(poArgs, 1, &iHeight))

  00056	8d 45 ec	 lea	 eax, DWORD PTR _iHeight$[ebp]
  00059	50		 push	 eax
  0005a	6a 01		 push	 1
  0005c	56		 push	 esi
  0005d	e8 00 00 00 00	 call	 ?PyTuple_GetInteger@@YA_NPAU_object@@HPAH@Z ; PyTuple_GetInteger
  00062	83 c4 0c	 add	 esp, 12			; 0000000cH
  00065	84 c0		 test	 al, al
  00067	74 d3		 je	 SHORT $LN14@grpCreateB

; 33   : 		return Py_BuildException();
; 34   : 
; 35   : 	int iFontSize;
; 36   : 	if (!PyTuple_GetInteger(poArgs, 2, &iFontSize))

  00069	8d 45 f0	 lea	 eax, DWORD PTR _iFontSize$[ebp]
  0006c	50		 push	 eax
  0006d	6a 02		 push	 2
  0006f	56		 push	 esi
  00070	e8 00 00 00 00	 call	 ?PyTuple_GetInteger@@YA_NPAU_object@@HPAH@Z ; PyTuple_GetInteger
  00075	83 c4 0c	 add	 esp, 12			; 0000000cH
  00078	84 c0		 test	 al, al
  0007a	74 c0		 je	 SHORT $LN14@grpCreateB

; 37   : 		return Py_BuildException();
; 38   : 
; 39   : 	CTextBar * pTextBar = new CTextBar(iFontSize, true);

  0007c	6a 6c		 push	 108			; 0000006cH
  0007e	e8 00 00 00 00	 call	 ??2@YAPAXI@Z		; operator new
  00083	83 c4 04	 add	 esp, 4
  00086	89 45 e4	 mov	 DWORD PTR $T2[ebp], eax
  00089	c7 45 fc 00 00
	00 00		 mov	 DWORD PTR __$EHRec$[ebp+8], 0
  00090	85 c0		 test	 eax, eax
  00092	74 10		 je	 SHORT $LN7@grpCreateB
  00094	6a 01		 push	 1
  00096	ff 75 f0	 push	 DWORD PTR _iFontSize$[ebp]
  00099	8b c8		 mov	 ecx, eax
  0009b	e8 00 00 00 00	 call	 ??0CTextBar@@QAE@H_N@Z	; CTextBar::CTextBar
  000a0	8b f0		 mov	 esi, eax
  000a2	eb 02		 jmp	 SHORT $LN8@grpCreateB
$LN7@grpCreateB:
  000a4	33 f6		 xor	 esi, esi
$LN8@grpCreateB:

; 40   : 	if (!pTextBar->Create(NULL, iWidth, iHeight))

  000a6	ff 75 ec	 push	 DWORD PTR _iHeight$[ebp]
  000a9	8b ce		 mov	 ecx, esi
  000ab	c7 45 fc ff ff
	ff ff		 mov	 DWORD PTR __$EHRec$[ebp+8], -1
  000b2	ff 75 e8	 push	 DWORD PTR _iWidth$[ebp]
  000b5	6a 00		 push	 0
  000b7	e8 00 00 00 00	 call	 ?Create@CDibBar@@QAE_NPAUHDC__@@KK@Z ; CDibBar::Create
  000bc	84 c0		 test	 al, al
  000be	75 10		 jne	 SHORT $LN5@grpCreateB

; 41   : 	{
; 42   : 		delete pTextBar;

  000c0	85 f6		 test	 esi, esi
  000c2	74 08		 je	 SHORT $LN9@grpCreateB
  000c4	8b 06		 mov	 eax, DWORD PTR [esi]
  000c6	8b ce		 mov	 ecx, esi
  000c8	6a 01		 push	 1
  000ca	ff 10		 call	 DWORD PTR [eax]
$LN9@grpCreateB:

; 43   : 		return Py_BuildValue("i", NULL);

  000cc	6a 00		 push	 0
  000ce	eb 01		 jmp	 SHORT $LN13@grpCreateB
$LN5@grpCreateB:

; 44   : 	}
; 45   : 
; 46   : 	return Py_BuildValue("i", pTextBar);

  000d0	56		 push	 esi
$LN13@grpCreateB:

; 47   : }

  000d1	68 00 00 00 00	 push	 OFFSET ??_C@_01KBJDNOO@i@
  000d6	ff 15 00 00 00
	00		 call	 DWORD PTR __imp__Py_BuildValue
  000dc	83 c4 08	 add	 esp, 8
  000df	8b 4d f4	 mov	 ecx, DWORD PTR __$EHRec$[ebp]
  000e2	64 89 0d 00 00
	00 00		 mov	 DWORD PTR fs:0, ecx
  000e9	59		 pop	 ecx
  000ea	5e		 pop	 esi
  000eb	8b e5		 mov	 esp, ebp
  000ed	5d		 pop	 ebp
  000ee	c3		 ret	 0
_TEXT	ENDS
;	COMDAT text$x
text$x	SEGMENT
__unwindfunclet$?grpCreateBigTextBar@@YAPAU_object@@PAU1@0@Z$0:
  00000	6a 6c		 push	 108			; 0000006cH
  00002	8b 45 e4	 mov	 eax, DWORD PTR $T2[ebp]
  00005	50		 push	 eax
  00006	e8 00 00 00 00	 call	 ??3@YAXPAXI@Z		; operator delete
  0000b	83 c4 08	 add	 esp, 8
  0000e	c3		 ret	 0
  0000f	cc		 int	 3
  00010	cc		 int	 3
  00011	cc		 int	 3
  00012	cc		 int	 3
  00013	cc		 int	 3
__ehhandler$?grpCreateBigTextBar@@YAPAU_object@@PAU1@0@Z:
  00014	90		 npad	 1
  00015	90		 npad	 1
  00016	8b 54 24 08	 mov	 edx, DWORD PTR [esp+8]
  0001a	8d 42 0c	 lea	 eax, DWORD PTR [edx+12]
  0001d	8b 4a e8	 mov	 ecx, DWORD PTR [edx-24]
  00020	33 c8		 xor	 ecx, eax
  00022	e8 00 00 00 00	 call	 @__security_check_cookie@4
  00027	b8 00 00 00 00	 mov	 eax, OFFSET __ehfuncinfo$?grpCreateBigTextBar@@YAPAU_object@@PAU1@0@Z
  0002c	e9 00 00 00 00	 jmp	 ___CxxFrameHandler3
text$x	ENDS
?grpCreateBigTextBar@@YAPAU_object@@PAU1@0@Z ENDP	; grpCreateBigTextBar
; Function compile flags: /Ogtp
; File C:\DS Project\DS Files\Source\ClientSource\Client\eterPythonLib\PythonGraphicModule.cpp
;	COMDAT ?grpCreateTextBar@@YAPAU_object@@PAU1@0@Z
_TEXT	SEGMENT
$T2 = -24						; size = 4
_iWidth$ = -20						; size = 4
_iHeight$ = -16						; size = 4
__$EHRec$ = -12						; size = 12
_poSelf$ = 8						; size = 4
_poArgs$ = 12						; size = 4
?grpCreateTextBar@@YAPAU_object@@PAU1@0@Z PROC		; grpCreateTextBar, COMDAT

; 8    : {

  00000	55		 push	 ebp
  00001	8b ec		 mov	 ebp, esp
  00003	6a ff		 push	 -1
  00005	68 00 00 00 00	 push	 __ehhandler$?grpCreateTextBar@@YAPAU_object@@PAU1@0@Z
  0000a	64 a1 00 00 00
	00		 mov	 eax, DWORD PTR fs:0
  00010	50		 push	 eax
  00011	83 ec 0c	 sub	 esp, 12			; 0000000cH
  00014	56		 push	 esi
  00015	a1 00 00 00 00	 mov	 eax, DWORD PTR ___security_cookie
  0001a	33 c5		 xor	 eax, ebp
  0001c	50		 push	 eax
  0001d	8d 45 f4	 lea	 eax, DWORD PTR __$EHRec$[ebp]
  00020	64 a3 00 00 00
	00		 mov	 DWORD PTR fs:0, eax

; 9    : 	int iWidth;
; 10   : 	if (!PyTuple_GetInteger(poArgs, 0, &iWidth))

  00026	8b 75 0c	 mov	 esi, DWORD PTR _poArgs$[ebp]
  00029	8d 45 ec	 lea	 eax, DWORD PTR _iWidth$[ebp]
  0002c	50		 push	 eax
  0002d	6a 00		 push	 0
  0002f	56		 push	 esi
  00030	e8 00 00 00 00	 call	 ?PyTuple_GetInteger@@YA_NPAU_object@@HPAH@Z ; PyTuple_GetInteger
  00035	83 c4 0c	 add	 esp, 12			; 0000000cH
  00038	84 c0		 test	 al, al
  0003a	75 1a		 jne	 SHORT $LN2@grpCreateT
$LN13@grpCreateT:

; 24   : }

  0003c	6a 00		 push	 0
  0003e	e8 00 00 00 00	 call	 ?Py_BuildException@@YAPAU_object@@PBDZZ ; Py_BuildException
  00043	83 c4 04	 add	 esp, 4
  00046	8b 4d f4	 mov	 ecx, DWORD PTR __$EHRec$[ebp]
  00049	64 89 0d 00 00
	00 00		 mov	 DWORD PTR fs:0, ecx
  00050	59		 pop	 ecx
  00051	5e		 pop	 esi
  00052	8b e5		 mov	 esp, ebp
  00054	5d		 pop	 ebp
  00055	c3		 ret	 0
$LN2@grpCreateT:

; 11   : 		return Py_BuildException();
; 12   : 	int iHeight;
; 13   : 	if (!PyTuple_GetInteger(poArgs, 1, &iHeight))

  00056	8d 45 f0	 lea	 eax, DWORD PTR _iHeight$[ebp]
  00059	50		 push	 eax
  0005a	6a 01		 push	 1
  0005c	56		 push	 esi
  0005d	e8 00 00 00 00	 call	 ?PyTuple_GetInteger@@YA_NPAU_object@@HPAH@Z ; PyTuple_GetInteger
  00062	83 c4 0c	 add	 esp, 12			; 0000000cH
  00065	84 c0		 test	 al, al
  00067	74 d3		 je	 SHORT $LN13@grpCreateT

; 14   : 		return Py_BuildException();
; 15   : 
; 16   : 	CTextBar * pTextBar = new CTextBar(12, false);

  00069	6a 6c		 push	 108			; 0000006cH
  0006b	e8 00 00 00 00	 call	 ??2@YAPAXI@Z		; operator new
  00070	83 c4 04	 add	 esp, 4
  00073	89 45 e8	 mov	 DWORD PTR $T2[ebp], eax
  00076	c7 45 fc 00 00
	00 00		 mov	 DWORD PTR __$EHRec$[ebp+8], 0
  0007d	85 c0		 test	 eax, eax
  0007f	74 0f		 je	 SHORT $LN6@grpCreateT
  00081	6a 00		 push	 0
  00083	6a 0c		 push	 12			; 0000000cH
  00085	8b c8		 mov	 ecx, eax
  00087	e8 00 00 00 00	 call	 ??0CTextBar@@QAE@H_N@Z	; CTextBar::CTextBar
  0008c	8b f0		 mov	 esi, eax
  0008e	eb 02		 jmp	 SHORT $LN7@grpCreateT
$LN6@grpCreateT:
  00090	33 f6		 xor	 esi, esi
$LN7@grpCreateT:

; 17   : 	if (!pTextBar->Create(NULL, iWidth, iHeight))

  00092	ff 75 f0	 push	 DWORD PTR _iHeight$[ebp]
  00095	8b ce		 mov	 ecx, esi
  00097	c7 45 fc ff ff
	ff ff		 mov	 DWORD PTR __$EHRec$[ebp+8], -1
  0009e	ff 75 ec	 push	 DWORD PTR _iWidth$[ebp]
  000a1	6a 00		 push	 0
  000a3	e8 00 00 00 00	 call	 ?Create@CDibBar@@QAE_NPAUHDC__@@KK@Z ; CDibBar::Create
  000a8	84 c0		 test	 al, al
  000aa	75 10		 jne	 SHORT $LN4@grpCreateT

; 18   : 	{
; 19   : 		delete pTextBar;

  000ac	85 f6		 test	 esi, esi
  000ae	74 08		 je	 SHORT $LN8@grpCreateT
  000b0	8b 06		 mov	 eax, DWORD PTR [esi]
  000b2	8b ce		 mov	 ecx, esi
  000b4	6a 01		 push	 1
  000b6	ff 10		 call	 DWORD PTR [eax]
$LN8@grpCreateT:

; 20   : 		return Py_BuildValue("i", NULL);

  000b8	6a 00		 push	 0
  000ba	eb 01		 jmp	 SHORT $LN12@grpCreateT
$LN4@grpCreateT:

; 21   : 	}
; 22   : 
; 23   : 	return Py_BuildValue("i", pTextBar);

  000bc	56		 push	 esi
$LN12@grpCreateT:

; 24   : }

  000bd	68 00 00 00 00	 push	 OFFSET ??_C@_01KBJDNOO@i@
  000c2	ff 15 00 00 00
	00		 call	 DWORD PTR __imp__Py_BuildValue
  000c8	83 c4 08	 add	 esp, 8
  000cb	8b 4d f4	 mov	 ecx, DWORD PTR __$EHRec$[ebp]
  000ce	64 89 0d 00 00
	00 00		 mov	 DWORD PTR fs:0, ecx
  000d5	59		 pop	 ecx
  000d6	5e		 pop	 esi
  000d7	8b e5		 mov	 esp, ebp
  000d9	5d		 pop	 ebp
  000da	c3		 ret	 0
_TEXT	ENDS
;	COMDAT text$x
text$x	SEGMENT
__unwindfunclet$?grpCreateTextBar@@YAPAU_object@@PAU1@0@Z$0:
  00000	6a 6c		 push	 108			; 0000006cH
  00002	8b 45 e8	 mov	 eax, DWORD PTR $T2[ebp]
  00005	50		 push	 eax
  00006	e8 00 00 00 00	 call	 ??3@YAXPAXI@Z		; operator delete
  0000b	83 c4 08	 add	 esp, 8
  0000e	c3		 ret	 0
  0000f	cc		 int	 3
  00010	cc		 int	 3
  00011	cc		 int	 3
  00012	cc		 int	 3
  00013	cc		 int	 3
__ehhandler$?grpCreateTextBar@@YAPAU_object@@PAU1@0@Z:
  00014	90		 npad	 1
  00015	90		 npad	 1
  00016	8b 54 24 08	 mov	 edx, DWORD PTR [esp+8]
  0001a	8d 42 0c	 lea	 eax, DWORD PTR [edx+12]
  0001d	8b 4a ec	 mov	 ecx, DWORD PTR [edx-20]
  00020	33 c8		 xor	 ecx, eax
  00022	e8 00 00 00 00	 call	 @__security_check_cookie@4
  00027	b8 00 00 00 00	 mov	 eax, OFFSET __ehfuncinfo$?grpCreateTextBar@@YAPAU_object@@PAU1@0@Z
  0002c	e9 00 00 00 00	 jmp	 ___CxxFrameHandler3
text$x	ENDS
?grpCreateTextBar@@YAPAU_object@@PAU1@0@Z ENDP		; grpCreateTextBar
; Function compile flags: /Ogtp
; File C:\DS Project\DS Files\Source\ClientSource\Client\eterPythonLib\PythonGraphicModule.cpp
;	COMDAT ?initgrp@@YAXXZ
_TEXT	SEGMENT
?initgrp@@YAXXZ PROC					; initgrp, COMDAT

; 943  : 	static PyMethodDef s_methods[] =
; 944  : 	{
; 945  : 		{ "InitScreenEffect",			grpInitScreenEffect,			METH_VARARGS },
; 946  : 		{ "Culling",					grpCulling,						METH_VARARGS },
; 947  : 		{ "ClearDepthBuffer",			grpClearDepthBuffer,			METH_VARARGS },
; 948  : 		{ "Identity",					grpIdentity,					METH_VARARGS },
; 949  : 		{ "GenerateColor",				grpGenerateColor,				METH_VARARGS },
; 950  : 		{ "PopState",					grpPopState,					METH_VARARGS },
; 951  : 		{ "PushState",					grpPushState,					METH_VARARGS },
; 952  : 		{ "PushMatrix",					grpPushMatrix,					METH_VARARGS },
; 953  : 		{ "PopMatrix",					grpPopMatrix,					METH_VARARGS },
; 954  : 		{ "Translate",					grpTranslate,					METH_VARARGS },
; 955  : 		{ "Rotate",						grpRotate,						METH_VARARGS },
; 956  : 		{ "SetColorRenderState",		grpSetColorRenderState,			METH_VARARGS },
; 957  : 		{ "SetAroundCamera",			grpSetAroundCamera,				METH_VARARGS },
; 958  : 		{ "SetPositionCamera",			grpSetPositionCamera,			METH_VARARGS },
; 959  : 		{ "SetEyeCamera",				grpSetEyeCamera,				METH_VARARGS },
; 960  : 		{ "SetPerspective",				grpSetPerspective,				METH_VARARGS },
; 961  : 		{ "SetOrtho2d",					grpSetOrtho2D,					METH_VARARGS },
; 962  : 		{ "SetOrtho3d",					grpSetOrtho3D,					METH_VARARGS },
; 963  : 		{ "SetColor",					grpSetColor,					METH_VARARGS },
; 964  : 		{ "SetAlpha",					grpSetAlpha,					METH_VARARGS },
; 965  : 		{ "SetDiffuseColor",			grpSetDiffuseColor,				METH_VARARGS },
; 966  : 		{ "SetClearColor",				grpSetClearColor,				METH_VARARGS },
; 967  : 		{ "GetCursorPosition3d",		grpGetCursorPosition3d,			METH_VARARGS },
; 968  : 		{ "SetCursorPosition",			grpSetCursorPosition,			METH_VARARGS },
; 969  : 		{ "RenderLine",					grpRenderLine,					METH_VARARGS },
; 970  : 		{ "RenderBox",					grpRenderBox,					METH_VARARGS },
; 971  : 		{ "RenderRoundBox",				grpRenderRoundBox,				METH_VARARGS },
; 972  : 		{ "RenderBox3d",				grpRenderBox3d,					METH_VARARGS },
; 973  : 		{ "RenderBar",					grpRenderBar,					METH_VARARGS },
; 974  : 		{ "RenderBar3d",				grpRenderBar3d,					METH_VARARGS },
; 975  : 		{ "RenderGradationBar",			grpRenderGradationBar,			METH_VARARGS },
; 976  : 		{ "RenderCube",					grpRenderCube,					METH_VARARGS },
; 977  : 		{ "RenderDownButton",			grpRenderDownButton,			METH_VARARGS },
; 978  : 		{ "RenderUpButton",				grpRenderUpButton,				METH_VARARGS },
; 979  : 		{ "GetAvailableMemory",			grpGetAvailableMemory,			METH_VARARGS },
; 980  : 		{ "SaveScreenShot",				grpSaveScreenShot,				METH_VARARGS },
; 981  : 		{ "SaveScreenShotToPath",		grpSaveScreenShotToPath,		METH_VARARGS },
; 982  : 		{ "SetGamma",					grpSetGamma,					METH_VARARGS },
; 983  : 		{ "SetInterfaceRenderState",	grpSetInterfaceRenderState,		METH_VARARGS },
; 984  : 		{ "SetGameRenderState",			grpSetGameRenderState,			METH_VARARGS },
; 985  : 		{ "SetViewport",				grpSetViewport,					METH_VARARGS },
; 986  : 		{ "RestoreViewport",			grpRestoreViewport,				METH_VARARGS },
; 987  : 		{ "SetOmniLight",				grpSetOmniLight,				METH_VARARGS },
; 988  : 		{ "GetCameraPosition",			grpGetCameraPosition,			METH_VARARGS },
; 989  : 		{ "GetTargetPosition",			grpGetTargetPosition,			METH_VARARGS },
; 990  : 
; 991  : 		{ "CreateTextBar",				grpCreateTextBar,				METH_VARARGS },
; 992  : 		{ "CreateBigTextBar",			grpCreateBigTextBar,			METH_VARARGS },
; 993  : 		{ "DestroyTextBar",				grpDestroyTextBar,				METH_VARARGS },
; 994  : 		{ "RenderTextBar",				grpRenderTextBar,				METH_VARARGS },
; 995  : 		{ "TextBarTextOut",				grpTextBarTextOut,				METH_VARARGS },
; 996  : 		{ "TextBarSetTextColor",		grpTextBarSetTextColor,			METH_VARARGS },
; 997  : 		{ "TextBarGetTextExtent",		grpTextBarGetTextExtent,		METH_VARARGS },
; 998  : 		{ "ClearTextBar",				grpClearTextBar,				METH_VARARGS },
; 999  : 		{ "SetTextBarClipRect",			grpSetTextBarClipRect,			METH_VARARGS },
; 1000 : 
; 1001 : 		{ NULL,							NULL,							NULL		},
; 1002 : 	};
; 1003 : 
; 1004 : 	Py_InitModule("grp", s_methods);

  00000	68 f5 03 00 00	 push	 1013			; 000003f5H
  00005	6a 00		 push	 0
  00007	6a 00		 push	 0
  00009	68 00 00 00 00	 push	 OFFSET ?s_methods@?1??initgrp@@YAXXZ@4PAUPyMethodDef@@A
  0000e	68 00 00 00 00	 push	 OFFSET ??_C@_03CKJB@grp@
  00013	ff 15 00 00 00
	00		 call	 DWORD PTR __imp__Py_InitModule4
  00019	83 c4 14	 add	 esp, 20			; 00000014H

; 1005 : }

  0001c	c3		 ret	 0
?initgrp@@YAXXZ ENDP					; initgrp
_TEXT	ENDS
; Function compile flags: /Ogtp
; File C:\Program Files (x86)\Windows Kits\10\Include\10.0.18362.0\ucrt\stdio.h
;	COMDAT __snprintf
_TEXT	SEGMENT
__Buffer$ = 8						; size = 4
__BufferCount$ = 12					; size = 4
__Format$ = 16						; size = 4
__snprintf PROC						; COMDAT

; 1969 :     {

  00000	55		 push	 ebp
  00001	8b ec		 mov	 ebp, esp

; 1390 :         int const _Result = __stdio_common_vsprintf(

  00003	8d 45 14	 lea	 eax, DWORD PTR __Format$[ebp+4]
  00006	50		 push	 eax
  00007	6a 00		 push	 0
  00009	ff 75 10	 push	 DWORD PTR __Format$[ebp]
  0000c	ff 75 0c	 push	 DWORD PTR __BufferCount$[ebp]
  0000f	ff 75 08	 push	 DWORD PTR __Buffer$[ebp]
  00012	e8 00 00 00 00	 call	 ___local_stdio_printf_options
  00017	8b 08		 mov	 ecx, DWORD PTR [eax]
  00019	ff 70 04	 push	 DWORD PTR [eax+4]
  0001c	83 c9 01	 or	 ecx, 1
  0001f	51		 push	 ecx
  00020	e8 00 00 00 00	 call	 ___stdio_common_vsprintf

; 1391 :             _CRT_INTERNAL_LOCAL_PRINTF_OPTIONS | _CRT_INTERNAL_PRINTF_LEGACY_VSPRINTF_NULL_TERMINATION,
; 1392 :             _Buffer, _BufferCount, _Format, _Locale, _ArgList);
; 1393 : 
; 1394 :         return _Result < 0 ? -1 : _Result;

  00025	83 c9 ff	 or	 ecx, -1
  00028	83 c4 1c	 add	 esp, 28			; 0000001cH
  0002b	85 c0		 test	 eax, eax
  0002d	0f 48 c1	 cmovs	 eax, ecx

; 1970 :         int _Result;
; 1971 :         va_list _ArgList;
; 1972 :         __crt_va_start(_ArgList, _Format);
; 1973 :     #pragma warning(suppress:28719)    // 28719
; 1974 :         _Result = _vsnprintf(_Buffer, _BufferCount, _Format, _ArgList);
; 1975 :         __crt_va_end(_ArgList);
; 1976 :         return _Result;
; 1977 :     }

  00030	5d		 pop	 ebp
  00031	c3		 ret	 0
__snprintf ENDP
_TEXT	ENDS
; Function compile flags: /Ogtp
; File C:\Program Files (x86)\Windows Kits\10\Include\10.0.18362.0\ucrt\stdio.h
;	COMDAT _sprintf
_TEXT	SEGMENT
__Buffer$ = 8						; size = 4
__Format$ = 12						; size = 4
_sprintf PROC						; COMDAT

; 1781 :     {

  00000	55		 push	 ebp
  00001	8b ec		 mov	 ebp, esp

; 1390 :         int const _Result = __stdio_common_vsprintf(

  00003	8d 45 10	 lea	 eax, DWORD PTR __Format$[ebp+4]
  00006	50		 push	 eax
  00007	6a 00		 push	 0
  00009	ff 75 0c	 push	 DWORD PTR __Format$[ebp]
  0000c	6a ff		 push	 -1
  0000e	ff 75 08	 push	 DWORD PTR __Buffer$[ebp]
  00011	e8 00 00 00 00	 call	 ___local_stdio_printf_options
  00016	8b 08		 mov	 ecx, DWORD PTR [eax]
  00018	ff 70 04	 push	 DWORD PTR [eax+4]
  0001b	83 c9 01	 or	 ecx, 1
  0001e	51		 push	 ecx
  0001f	e8 00 00 00 00	 call	 ___stdio_common_vsprintf

; 1391 :             _CRT_INTERNAL_LOCAL_PRINTF_OPTIONS | _CRT_INTERNAL_PRINTF_LEGACY_VSPRINTF_NULL_TERMINATION,
; 1392 :             _Buffer, _BufferCount, _Format, _Locale, _ArgList);
; 1393 : 
; 1394 :         return _Result < 0 ? -1 : _Result;

  00024	83 c9 ff	 or	 ecx, -1
  00027	83 c4 1c	 add	 esp, 28			; 0000001cH
  0002a	85 c0		 test	 eax, eax
  0002c	0f 48 c1	 cmovs	 eax, ecx

; 1782 :         int _Result;
; 1783 :         va_list _ArgList;
; 1784 :         __crt_va_start(_ArgList, _Format);
; 1785 : 
; 1786 :         #pragma warning(push)
; 1787 :         #pragma warning(disable: 4996) // Deprecation
; 1788 :         _Result = _vsprintf_l(_Buffer, _Format, NULL, _ArgList);
; 1789 :         #pragma warning(pop)
; 1790 : 
; 1791 :         __crt_va_end(_ArgList);
; 1792 :         return _Result;
; 1793 :     }

  0002f	5d		 pop	 ebp
  00030	c3		 ret	 0
_sprintf ENDP
_TEXT	ENDS
; Function compile flags: /Ogtp
; File C:\Program Files (x86)\Windows Kits\10\Include\10.0.18362.0\ucrt\corecrt_stdio_config.h
;	COMDAT ___local_stdio_printf_options
_TEXT	SEGMENT
___local_stdio_printf_options PROC			; COMDAT

; 87   :         static unsigned __int64 _OptionsStorage;
; 88   :         return &_OptionsStorage;

  00000	b8 00 00 00 00	 mov	 eax, OFFSET ?_OptionsStorage@?1??__local_stdio_printf_options@@9@4_KA ; `__local_stdio_printf_options'::`2'::_OptionsStorage

; 89   :     }

  00005	c3		 ret	 0
___local_stdio_printf_options ENDP
_TEXT	ENDS
END
