; Listing generated by Microsoft (R) Optimizing Compiler Version 19.27.29112.0 

	TITLE	C:\DS Project\DS Files\Source\ClientSource\Client\eterPythonLib\PythonWindowManagerModule.cpp
	.686P
	.XMM
	include listing.inc
	.model	flat

INCLUDELIB LIBCMT
INCLUDELIB OLDNAMES

PUBLIC	?initwndMgr@@YAXXZ				; initwndMgr
PUBLIC	?PyTuple_GetWindow@@YA_NPAU_object@@HPAPAVCWindow@UI@@@Z ; PyTuple_GetWindow
PUBLIC	?wndMgrGetAspect@@YAPAU_object@@PAU1@0@Z	; wndMgrGetAspect
PUBLIC	?wndMgrOnceIgnoreMouseLeftButtonUpEvent@@YAPAU_object@@PAU1@0@Z ; wndMgrOnceIgnoreMouseLeftButtonUpEvent
PUBLIC	?wndMgrSetMouseHandler@@YAPAU_object@@PAU1@0@Z	; wndMgrSetMouseHandler
PUBLIC	?wndMgrRegister@@YAPAU_object@@PAU1@0@Z		; wndMgrRegister
PUBLIC	?wndMgrRegisterSlotWindow@@YAPAU_object@@PAU1@0@Z ; wndMgrRegisterSlotWindow
PUBLIC	?wndMgrRegisterGridSlotWindow@@YAPAU_object@@PAU1@0@Z ; wndMgrRegisterGridSlotWindow
PUBLIC	?wndMgrRegisterTextLine@@YAPAU_object@@PAU1@0@Z	; wndMgrRegisterTextLine
PUBLIC	?wndMgrRegisterMarkBox@@YAPAU_object@@PAU1@0@Z	; wndMgrRegisterMarkBox
PUBLIC	?wndMgrRegisterImageBox@@YAPAU_object@@PAU1@0@Z	; wndMgrRegisterImageBox
PUBLIC	?wndMgrRegisterExpandedImageBox@@YAPAU_object@@PAU1@0@Z ; wndMgrRegisterExpandedImageBox
PUBLIC	?wndMgrRegisterAniImageBox@@YAPAU_object@@PAU1@0@Z ; wndMgrRegisterAniImageBox
PUBLIC	?wndMgrRegisterButton@@YAPAU_object@@PAU1@0@Z	; wndMgrRegisterButton
PUBLIC	?wndMgrRegisterRadioButton@@YAPAU_object@@PAU1@0@Z ; wndMgrRegisterRadioButton
PUBLIC	?wndMgrRegisterToggleButton@@YAPAU_object@@PAU1@0@Z ; wndMgrRegisterToggleButton
PUBLIC	?wndMgrRegisterDragButton@@YAPAU_object@@PAU1@0@Z ; wndMgrRegisterDragButton
PUBLIC	?wndMgrRegisterBox@@YAPAU_object@@PAU1@0@Z	; wndMgrRegisterBox
PUBLIC	?wndMgrRegisterBar@@YAPAU_object@@PAU1@0@Z	; wndMgrRegisterBar
PUBLIC	?wndMgrRegisterLine@@YAPAU_object@@PAU1@0@Z	; wndMgrRegisterLine
PUBLIC	?wndMgrRegisterBar3D@@YAPAU_object@@PAU1@0@Z	; wndMgrRegisterBar3D
PUBLIC	?wndMgrRegisterNumberLine@@YAPAU_object@@PAU1@0@Z ; wndMgrRegisterNumberLine
PUBLIC	?wndMgrDestroy@@YAPAU_object@@PAU1@0@Z		; wndMgrDestroy
PUBLIC	?wndMgrIsFocus@@YAPAU_object@@PAU1@0@Z		; wndMgrIsFocus
PUBLIC	?wndMgrSetFocus@@YAPAU_object@@PAU1@0@Z		; wndMgrSetFocus
PUBLIC	?wndMgrKillFocus@@YAPAU_object@@PAU1@0@Z	; wndMgrKillFocus
PUBLIC	?wndMgrLock@@YAPAU_object@@PAU1@0@Z		; wndMgrLock
PUBLIC	?wndMgrUnlock@@YAPAU_object@@PAU1@0@Z		; wndMgrUnlock
PUBLIC	?wndMgrSetName@@YAPAU_object@@PAU1@0@Z		; wndMgrSetName
PUBLIC	?wndMgrSetTop@@YAPAU_object@@PAU1@0@Z		; wndMgrSetTop
PUBLIC	?wndMgrShow@@YAPAU_object@@PAU1@0@Z		; wndMgrShow
PUBLIC	?wndMgrHide@@YAPAU_object@@PAU1@0@Z		; wndMgrHide
PUBLIC	?wndMgrIsShow@@YAPAU_object@@PAU1@0@Z		; wndMgrIsShow
PUBLIC	?wndMgrIsRTL@@YAPAU_object@@PAU1@0@Z		; wndMgrIsRTL
PUBLIC	?wndMgrSetScrollable@@YAPAU_object@@PAU1@0@Z	; wndMgrSetScrollable
PUBLIC	?wndMgrSetScreenSize@@YAPAU_object@@PAU1@0@Z	; wndMgrSetScreenSize
PUBLIC	?wndMgrSetParent@@YAPAU_object@@PAU1@0@Z	; wndMgrSetParent
PUBLIC	?wndMgrSetPickAlways@@YAPAU_object@@PAU1@0@Z	; wndMgrSetPickAlways
PUBLIC	?wndMgrSetWndSize@@YAPAU_object@@PAU1@0@Z	; wndMgrSetWndSize
PUBLIC	?wndMgrSetWndPosition@@YAPAU_object@@PAU1@0@Z	; wndMgrSetWndPosition
PUBLIC	?wndMgrGetName@@YAPAU_object@@PAU1@0@Z		; wndMgrGetName
PUBLIC	?wndMgrGetWndWidth@@YAPAU_object@@PAU1@0@Z	; wndMgrGetWndWidth
PUBLIC	?wndMgrGetWndHeight@@YAPAU_object@@PAU1@0@Z	; wndMgrGetWndHeight
PUBLIC	?wndMgrGetWndLocalPosition@@YAPAU_object@@PAU1@0@Z ; wndMgrGetWndLocalPosition
PUBLIC	?wndMgrGetWndGlobalPosition@@YAPAU_object@@PAU1@0@Z ; wndMgrGetWndGlobalPosition
PUBLIC	?wndMgrGetWindowRect@@YAPAU_object@@PAU1@0@Z	; wndMgrGetWindowRect
PUBLIC	?wndMgrSetWindowHorizontalAlign@@YAPAU_object@@PAU1@0@Z ; wndMgrSetWindowHorizontalAlign
PUBLIC	?wndMgrSetWindowVerticalAlign@@YAPAU_object@@PAU1@0@Z ; wndMgrSetWindowVerticalAlign
PUBLIC	?wndMgrIsIn@@YAPAU_object@@PAU1@0@Z		; wndMgrIsIn
PUBLIC	?wndMgrGetMouseLocalPosition@@YAPAU_object@@PAU1@0@Z ; wndMgrGetMouseLocalPosition
PUBLIC	?wndMgrGetHyperlink@@YAPAU_object@@PAU1@0@Z	; wndMgrGetHyperlink
PUBLIC	?wndMgrGetScreenWidth@@YAPAU_object@@PAU1@0@Z	; wndMgrGetScreenWidth
PUBLIC	?wndMgrGetScreenHeight@@YAPAU_object@@PAU1@0@Z	; wndMgrGetScreenHeight
PUBLIC	?wndMgrGetMousePosition@@YAPAU_object@@PAU1@0@Z	; wndMgrGetMousePosition
PUBLIC	?wndMgrIsDragging@@YAPAU_object@@PAU1@0@Z	; wndMgrIsDragging
PUBLIC	?wndMgrIsPickedWindow@@YAPAU_object@@PAU1@0@Z	; wndMgrIsPickedWindow
PUBLIC	?wndMgrGetChildCount@@YAPAU_object@@PAU1@0@Z	; wndMgrGetChildCount
PUBLIC	?wndMgrAddFlag@@YAPAU_object@@PAU1@0@Z		; wndMgrAddFlag
PUBLIC	?wndMgrSetLimitBias@@YAPAU_object@@PAU1@0@Z	; wndMgrSetLimitBias
PUBLIC	?wndMgrUpdateRect@@YAPAU_object@@PAU1@0@Z	; wndMgrUpdateRect
PUBLIC	?wndMgrAppendSlot@@YAPAU_object@@PAU1@0@Z	; wndMgrAppendSlot
PUBLIC	?wndMgrArrangeSlot@@YAPAU_object@@PAU1@0@Z	; wndMgrArrangeSlot
PUBLIC	?wndMgrSetSlotBaseImage@@YAPAU_object@@PAU1@0@Z	; wndMgrSetSlotBaseImage
PUBLIC	?wndMgrSetCoverButton@@YAPAU_object@@PAU1@0@Z	; wndMgrSetCoverButton
PUBLIC	?wndMgrEnableCoverButton@@YAPAU_object@@PAU1@0@Z ; wndMgrEnableCoverButton
PUBLIC	?wndMgrDisableCoverButton@@YAPAU_object@@PAU1@0@Z ; wndMgrDisableCoverButton
PUBLIC	?wndMgrIsDisableCoverButton@@YAPAU_object@@PAU1@0@Z ; wndMgrIsDisableCoverButton
PUBLIC	?wndMgrSetAlwaysRenderCoverButton@@YAPAU_object@@PAU1@0@Z ; wndMgrSetAlwaysRenderCoverButton
PUBLIC	?wndMgrAppendSlotButton@@YAPAU_object@@PAU1@0@Z	; wndMgrAppendSlotButton
PUBLIC	?wndMgrAppendRequirementSignImage@@YAPAU_object@@PAU1@0@Z ; wndMgrAppendRequirementSignImage
PUBLIC	?wndMgrShowSlotButton@@YAPAU_object@@PAU1@0@Z	; wndMgrShowSlotButton
PUBLIC	?wndMgrHideAllSlotButton@@YAPAU_object@@PAU1@0@Z ; wndMgrHideAllSlotButton
PUBLIC	?wndMgrShowRequirementSign@@YAPAU_object@@PAU1@0@Z ; wndMgrShowRequirementSign
PUBLIC	?wndMgrHideRequirementSign@@YAPAU_object@@PAU1@0@Z ; wndMgrHideRequirementSign
PUBLIC	?wndMgrRefreshSlot@@YAPAU_object@@PAU1@0@Z	; wndMgrRefreshSlot
PUBLIC	?wndMgrSetUseMode@@YAPAU_object@@PAU1@0@Z	; wndMgrSetUseMode
PUBLIC	?wndMgrSetUsableItem@@YAPAU_object@@PAU1@0@Z	; wndMgrSetUsableItem
PUBLIC	?wndMgrClearSlot@@YAPAU_object@@PAU1@0@Z	; wndMgrClearSlot
PUBLIC	?wndMgrClearAllSlot@@YAPAU_object@@PAU1@0@Z	; wndMgrClearAllSlot
PUBLIC	?wndMgrHasSlot@@YAPAU_object@@PAU1@0@Z		; wndMgrHasSlot
PUBLIC	?wndMgrSetSlot@@YAPAU_object@@PAU1@0@Z		; wndMgrSetSlot
PUBLIC	?wndMgrSetSlotCount@@YAPAU_object@@PAU1@0@Z	; wndMgrSetSlotCount
PUBLIC	?wndMgrSetSlotCountNew@@YAPAU_object@@PAU1@0@Z	; wndMgrSetSlotCountNew
PUBLIC	?wndMgrSetSlotCoolTime@@YAPAU_object@@PAU1@0@Z	; wndMgrSetSlotCoolTime
PUBLIC	?wndMgrSetToggleSlot@@YAPAU_object@@PAU1@0@Z	; wndMgrSetToggleSlot
PUBLIC	?wndMgrActivateSlot@@YAPAU_object@@PAU1@0@Z	; wndMgrActivateSlot
PUBLIC	?wndMgrDeactivateSlot@@YAPAU_object@@PAU1@0@Z	; wndMgrDeactivateSlot
PUBLIC	?wndMgrEnableSlot@@YAPAU_object@@PAU1@0@Z	; wndMgrEnableSlot
PUBLIC	?wndMgrDisableSlot@@YAPAU_object@@PAU1@0@Z	; wndMgrDisableSlot
PUBLIC	?wndMgrShowSlotBaseImage@@YAPAU_object@@PAU1@0@Z ; wndMgrShowSlotBaseImage
PUBLIC	?wndMgrHideSlotBaseImage@@YAPAU_object@@PAU1@0@Z ; wndMgrHideSlotBaseImage
PUBLIC	?wndMgrSetSlotType@@YAPAU_object@@PAU1@0@Z	; wndMgrSetSlotType
PUBLIC	?wndMgrSetSlotStyle@@YAPAU_object@@PAU1@0@Z	; wndMgrSetSlotStyle
PUBLIC	?wndMgrSelectSlot@@YAPAU_object@@PAU1@0@Z	; wndMgrSelectSlot
PUBLIC	?wndMgrClearSelected@@YAPAU_object@@PAU1@0@Z	; wndMgrClearSelected
PUBLIC	?wndMgrGetSelectedSlotCount@@YAPAU_object@@PAU1@0@Z ; wndMgrGetSelectedSlotCount
PUBLIC	?wndMgrGetSelectedSlotNumber@@YAPAU_object@@PAU1@0@Z ; wndMgrGetSelectedSlotNumber
PUBLIC	?wndMgrIsSelectedSlot@@YAPAU_object@@PAU1@0@Z	; wndMgrIsSelectedSlot
PUBLIC	?wndMgrGetSlotCount@@YAPAU_object@@PAU1@0@Z	; wndMgrGetSlotCount
PUBLIC	?wndMgrLockSlot@@YAPAU_object@@PAU1@0@Z		; wndMgrLockSlot
PUBLIC	?wndMgrUnlockSlot@@YAPAU_object@@PAU1@0@Z	; wndMgrUnlockSlot
PUBLIC	?wndBarSetColor@@YAPAU_object@@PAU1@0@Z		; wndBarSetColor
PUBLIC	?wndMgrAttachIcon@@YAPAU_object@@PAU1@0@Z	; wndMgrAttachIcon
PUBLIC	?wndMgrDeattachIcon@@YAPAU_object@@PAU1@0@Z	; wndMgrDeattachIcon
PUBLIC	?wndMgrSetAttachingFlag@@YAPAU_object@@PAU1@0@Z	; wndMgrSetAttachingFlag
PUBLIC	?wndTextSetMax@@YAPAU_object@@PAU1@0@Z		; wndTextSetMax
PUBLIC	?wndTextSetHorizontalAlign@@YAPAU_object@@PAU1@0@Z ; wndTextSetHorizontalAlign
PUBLIC	?wndTextSetVerticalAlign@@YAPAU_object@@PAU1@0@Z ; wndTextSetVerticalAlign
PUBLIC	?wndTextSetSecret@@YAPAU_object@@PAU1@0@Z	; wndTextSetSecret
PUBLIC	?wndTextSetOutline@@YAPAU_object@@PAU1@0@Z	; wndTextSetOutline
PUBLIC	?wndTextSetFeather@@YAPAU_object@@PAU1@0@Z	; wndTextSetFeather
PUBLIC	?wndTextSetMultiLine@@YAPAU_object@@PAU1@0@Z	; wndTextSetMultiLine
PUBLIC	?wndTextSetFontName@@YAPAU_object@@PAU1@0@Z	; wndTextSetFontName
PUBLIC	?wndTextSetFontColor@@YAPAU_object@@PAU1@0@Z	; wndTextSetFontColor
PUBLIC	?wndTextSetLimitWidth@@YAPAU_object@@PAU1@0@Z	; wndTextSetLimitWidth
PUBLIC	?wndTextSetText@@YAPAU_object@@PAU1@0@Z		; wndTextSetText
PUBLIC	?wndTextGetText@@YAPAU_object@@PAU1@0@Z		; wndTextGetText
PUBLIC	?wndTextGetTextSize@@YAPAU_object@@PAU1@0@Z	; wndTextGetTextSize
PUBLIC	?wndTextShowCursor@@YAPAU_object@@PAU1@0@Z	; wndTextShowCursor
PUBLIC	?wndTextHideCursor@@YAPAU_object@@PAU1@0@Z	; wndTextHideCursor
PUBLIC	?wndTextGetCursorPosition@@YAPAU_object@@PAU1@0@Z ; wndTextGetCursorPosition
PUBLIC	?wndNumberSetNumber@@YAPAU_object@@PAU1@0@Z	; wndNumberSetNumber
PUBLIC	?wndNumberSetNumberHorizontalAlignCenter@@YAPAU_object@@PAU1@0@Z ; wndNumberSetNumberHorizontalAlignCenter
PUBLIC	?wndNumberSetNumberHorizontalAlignRight@@YAPAU_object@@PAU1@0@Z ; wndNumberSetNumberHorizontalAlignRight
PUBLIC	?wndNumberSetPath@@YAPAU_object@@PAU1@0@Z	; wndNumberSetPath
PUBLIC	?wndMarkBox_SetImageFilename@@YAPAU_object@@PAU1@0@Z ; wndMarkBox_SetImageFilename
PUBLIC	?wndMarkBox_SetImage@@YAPAU_object@@PAU1@0@Z	; wndMarkBox_SetImage
PUBLIC	?wndMarkBox_Load@@YAPAU_object@@PAU1@0@Z	; wndMarkBox_Load
PUBLIC	?wndMarkBox_SetIndex@@YAPAU_object@@PAU1@0@Z	; wndMarkBox_SetIndex
PUBLIC	?wndMarkBox_SetScale@@YAPAU_object@@PAU1@0@Z	; wndMarkBox_SetScale
PUBLIC	?wndMarkBox_SetDiffuseColor@@YAPAU_object@@PAU1@0@Z ; wndMarkBox_SetDiffuseColor
PUBLIC	?wndImageLoadImage@@YAPAU_object@@PAU1@0@Z	; wndImageLoadImage
PUBLIC	?wndImageSetDiffuseColor@@YAPAU_object@@PAU1@0@Z ; wndImageSetDiffuseColor
PUBLIC	?wndImageGetWidth@@YAPAU_object@@PAU1@0@Z	; wndImageGetWidth
PUBLIC	?wndImageGetHeight@@YAPAU_object@@PAU1@0@Z	; wndImageGetHeight
PUBLIC	?wndImageSetScale@@YAPAU_object@@PAU1@0@Z	; wndImageSetScale
PUBLIC	?wndImageSetOrigin@@YAPAU_object@@PAU1@0@Z	; wndImageSetOrigin
PUBLIC	?wndImageSetRotation@@YAPAU_object@@PAU1@0@Z	; wndImageSetRotation
PUBLIC	?wndImageSetRenderingRect@@YAPAU_object@@PAU1@0@Z ; wndImageSetRenderingRect
PUBLIC	?wndImageSetRenderingMode@@YAPAU_object@@PAU1@0@Z ; wndImageSetRenderingMode
PUBLIC	?wndImageSetDelay@@YAPAU_object@@PAU1@0@Z	; wndImageSetDelay
PUBLIC	?wndImageAppendImage@@YAPAU_object@@PAU1@0@Z	; wndImageAppendImage
PUBLIC	?wndButtonSetUpVisual@@YAPAU_object@@PAU1@0@Z	; wndButtonSetUpVisual
PUBLIC	?wndButtonSetOverVisual@@YAPAU_object@@PAU1@0@Z	; wndButtonSetOverVisual
PUBLIC	?wndButtonSetDownVisual@@YAPAU_object@@PAU1@0@Z	; wndButtonSetDownVisual
PUBLIC	?wndButtonSetDisableVisual@@YAPAU_object@@PAU1@0@Z ; wndButtonSetDisableVisual
PUBLIC	?wndButtonGetUpVisualFileName@@YAPAU_object@@PAU1@0@Z ; wndButtonGetUpVisualFileName
PUBLIC	?wndButtonGetOverVisualFileName@@YAPAU_object@@PAU1@0@Z ; wndButtonGetOverVisualFileName
PUBLIC	?wndButtonGetDownVisualFileName@@YAPAU_object@@PAU1@0@Z ; wndButtonGetDownVisualFileName
PUBLIC	?wndButtonFlash@@YAPAU_object@@PAU1@0@Z		; wndButtonFlash
PUBLIC	?wndButtonEnable@@YAPAU_object@@PAU1@0@Z	; wndButtonEnable
PUBLIC	?wndButtonDisable@@YAPAU_object@@PAU1@0@Z	; wndButtonDisable
PUBLIC	?wndButtonDown@@YAPAU_object@@PAU1@0@Z		; wndButtonDown
PUBLIC	?wndButtonSetUp@@YAPAU_object@@PAU1@0@Z		; wndButtonSetUp
PUBLIC	?wndButtonSetRestrictMovementArea@@YAPAU_object@@PAU1@0@Z ; wndButtonSetRestrictMovementArea
PUBLIC	?wndButtonIsDown@@YAPAU_object@@PAU1@0@Z	; wndButtonIsDown
PUBLIC	?wndMgrSetOutlineFlag@@YAPAU_object@@PAU1@0@Z	; wndMgrSetOutlineFlag
PUBLIC	?wndMgrShowOverInWindowName@@YAPAU_object@@PAU1@0@Z ; wndMgrShowOverInWindowName
PUBLIC	?wndMgrIsActivatedSlot@@YAPAU_object@@PAU1@0@Z	; wndMgrIsActivatedSlot
PUBLIC	?wndMgrGetSlotCoolTime@@YAPAU_object@@PAU1@0@Z	; wndMgrGetSlotCoolTime
PUBLIC	?wndMgrActivateEffect@@YAPAU_object@@PAU1@0@Z	; wndMgrActivateEffect
PUBLIC	?wndMgrDeactivateEffect@@YAPAU_object@@PAU1@0@Z	; wndMgrDeactivateEffect
PUBLIC	?ms_singleton@?$CSingleton@VCWindowManager@UI@@@@0PAVCWindowManager@UI@@A ; CSingleton<UI::CWindowManager>::ms_singleton
PUBLIC	??_C@_01INIBCBCB@f@				; `string'
PUBLIC	??_C@_01KBJDNOO@i@				; `string'
PUBLIC	??_C@_01LKDEMHDF@s@				; `string'
PUBLIC	??_C@_02PDIHAGKM@ii@				; `string'
PUBLIC	??_C@_04BIOIIFBG@iiii@				; `string'
PUBLIC	??_C@_02OIKAIHIF@s?$CD@				; `string'
PUBLIC	??_C@_07BNIMILPP@movable@			; `string'
PUBLIC	??_C@_05GADAOHMC@limit@				; `string'
PUBLIC	??_C@_08KCAGBJHE@dragable@			; `string'
PUBLIC	??_C@_06LHJMGKLI@attach@			; `string'
PUBLIC	??_C@_0L@KAJDFNK@restrict_x@			; `string'
PUBLIC	??_C@_0L@BDBCAEJL@restrict_y@			; `string'
PUBLIC	??_C@_05KNFBNCOH@float@				; `string'
PUBLIC	??_C@_08BCAHNCDJ@not_pick@			; `string'
PUBLIC	??_C@_0M@HHFJIJHL@ignore_size@			; `string'
PUBLIC	??_C@_03IFDNKMND@rtl@				; `string'
PUBLIC	??_C@_03OBLKLDKA@ltr@				; `string'
PUBLIC	??_C@_0BH@KIGIHPAM@Unknown?5window?5flag?5?$CFs@ ; `string'
PUBLIC	??_C@_0CH@FFGFLEBP@wndMgr?4ArrangeSlot?5?3?5not?5a?5grid@ ; `string'
PUBLIC	??_C@_0CH@HCFLPGH@wndMgr?4ArrangeSlot?5?3?5not?5a?5slot@ ; `string'
PUBLIC	??_C@_04INACLLOK@?$CIii?$CJ@			; `string'
PUBLIC	??_C@_0CE@HBOEBFCG@Failed?5to?5load?5image?5?$CIfilename?3@ ; `string'
PUBLIC	??_C@_02HPEDFNFO@ff@				; `string'
PUBLIC	??_C@_0BA@PPCHHCMN@SetMouseHandler@		; `string'
PUBLIC	??_C@_0O@EPGNIIPM@SetScreenSize@		; `string'
PUBLIC	??_C@_0P@OBMNGDMB@GetScreenWidth@		; `string'
PUBLIC	??_C@_0BA@PLLJJDCL@GetScreenHeight@		; `string'
PUBLIC	??_C@_0L@FHGOOMIM@AttachIcon@			; `string'
PUBLIC	??_C@_0N@HIMEHEBA@DeattachIcon@			; `string'
PUBLIC	??_C@_0BB@OJBFCDNH@SetAttachingFlag@		; `string'
PUBLIC	??_C@_09MFNPPPAG@GetAspect@			; `string'
PUBLIC	??_C@_0N@PCIKAOKG@GetHyperlink@			; `string'
PUBLIC	??_C@_0CB@JDNFNFMG@OnceIgnoreMouseLeftButtonUpEven@ ; `string'
PUBLIC	??_C@_08LFIJLPOM@Register@			; `string'
PUBLIC	??_C@_0BD@HNEHNBHO@RegisterSlotWindow@		; `string'
PUBLIC	??_C@_0BH@HHDOCCCO@RegisterGridSlotWindow@	; `string'
PUBLIC	??_C@_0BB@JKLFNGCE@RegisterTextLine@		; `string'
PUBLIC	??_C@_0BA@BLOHJECG@RegisterMarkBox@		; `string'
PUBLIC	??_C@_0BB@CGJHKCPO@RegisterImageBox@		; `string'
PUBLIC	??_C@_0BJ@HCLPCLBM@RegisterExpandedImageBox@	; `string'
PUBLIC	??_C@_0BE@EHOJIJPF@RegisterAniImageBox@		; `string'
PUBLIC	??_C@_0P@HIFEMCKE@RegisterButton@		; `string'
PUBLIC	??_C@_0BE@LOKOGAFI@RegisterRadioButton@		; `string'
PUBLIC	??_C@_0BF@LKPDMOKE@RegisterToggleButton@	; `string'
PUBLIC	??_C@_0BD@FJKAFMBK@RegisterDragButton@		; `string'
PUBLIC	??_C@_0M@MCLBEPNH@RegisterBox@			; `string'
PUBLIC	??_C@_0M@DCMAIKFH@RegisterBar@			; `string'
PUBLIC	??_C@_0N@ICAPFHKF@RegisterLine@			; `string'
PUBLIC	??_C@_0O@EKKPECKF@RegisterBar3D@		; `string'
PUBLIC	??_C@_0BD@DBAMBKME@RegisterNumberLine@		; `string'
PUBLIC	??_C@_07BDCAJABG@Destroy@			; `string'
PUBLIC	??_C@_07FGJMHOHK@AddFlag@			; `string'
PUBLIC	??_C@_05IOGFNOKL@IsRTL@				; `string'
PUBLIC	??_C@_0O@BCLGMDMJ@SetScrollable@		; `string'
PUBLIC	??_C@_07DEJFEJPJ@SetName@			; `string'
PUBLIC	??_C@_07MMGEHGCI@GetName@			; `string'
PUBLIC	??_C@_06MBOGGFD@SetTop@				; `string'
PUBLIC	??_C@_04JLAJABDJ@Show@				; `string'
PUBLIC	??_C@_04EACEFPPN@Hide@				; `string'
PUBLIC	??_C@_06JMGCGGJP@IsShow@			; `string'
PUBLIC	??_C@_09BGDFCKEN@SetParent@			; `string'
PUBLIC	??_C@_0O@PGINCMBF@SetPickAlways@		; `string'
PUBLIC	??_C@_07MMFHOCGI@IsFocus@			; `string'
PUBLIC	??_C@_08GPNNBNIL@SetFocus@			; `string'
PUBLIC	??_C@_09PMGFBOMK@KillFocus@			; `string'
PUBLIC	??_C@_04LADJNOK@Lock@				; `string'
PUBLIC	??_C@_06NCJPDCLH@Unlock@			; `string'
PUBLIC	??_C@_0O@OOGBNGFB@SetWindowSize@		; `string'
PUBLIC	??_C@_0BC@CONADAIE@SetWindowPosition@		; `string'
PUBLIC	??_C@_0P@EJALLAMK@GetWindowWidth@		; `string'
PUBLIC	??_C@_0BA@GMMDIMHA@GetWindowHeight@		; `string'
PUBLIC	??_C@_0BH@KEOBHEHD@GetWindowLocalPosition@	; `string'
PUBLIC	??_C@_0BI@NOJPNPDO@GetWindowGlobalPosition@	; `string'
PUBLIC	??_C@_0O@KGOHEIMB@GetWindowRect@		; `string'
PUBLIC	??_C@_0BJ@FGPBHCAH@SetWindowHorizontalAlign@	; `string'
PUBLIC	??_C@_0BH@KDPMNJIB@SetWindowVerticalAlign@	; `string'
PUBLIC	??_C@_0O@HMBCELHA@GetChildCount@		; `string'
PUBLIC	??_C@_0P@GEIEEBJH@IsPickedWindow@		; `string'
PUBLIC	??_C@_04JBIBMNMO@IsIn@				; `string'
PUBLIC	??_C@_0BG@NHBHOLBI@GetMouseLocalPosition@	; `string'
PUBLIC	??_C@_0BB@MMLACOLH@GetMousePosition@		; `string'
PUBLIC	??_C@_0L@HEPBODCJ@IsDragging@			; `string'
PUBLIC	??_C@_0N@CCOOMDHD@SetLimitBias@			; `string'
PUBLIC	??_C@_0L@HJOBPCKA@UpdateRect@			; `string'
PUBLIC	??_C@_0L@FDCINHBF@AppendSlot@			; `string'
PUBLIC	??_C@_0M@OFNEHKDL@ArrangeSlot@			; `string'
PUBLIC	??_C@_09CGBENBJB@ClearSlot@			; `string'
PUBLIC	??_C@_0N@MMOLDNHK@ClearAllSlot@			; `string'
PUBLIC	??_C@_07MGEJAMLP@HasSlot@			; `string'
PUBLIC	??_C@_07ONCDFGJ@SetSlot@			; `string'
PUBLIC	??_C@_0N@IEAMEDFH@SetSlotCount@			; `string'
PUBLIC	??_C@_0BA@OOLIKBKI@SetSlotCountNew@		; `string'
PUBLIC	??_C@_0BA@OKBNFKML@SetSlotCoolTime@		; `string'
PUBLIC	??_C@_0O@FJKNHKBL@SetToggleSlot@		; `string'
PUBLIC	??_C@_0N@HFCIPMIE@ActivateSlot@			; `string'
PUBLIC	??_C@_0P@FGAIANEO@DeactivateSlot@		; `string'
PUBLIC	??_C@_0L@DHCLIIGL@EnableSlot@			; `string'
PUBLIC	??_C@_0M@EKMKGECP@DisableSlot@			; `string'
PUBLIC	??_C@_0BC@DHCKDEOK@ShowSlotBaseImage@		; `string'
PUBLIC	??_C@_0BC@NFMHNFLM@HideSlotBaseImage@		; `string'
PUBLIC	??_C@_0M@KHOHGEMH@SetSlotType@			; `string'
PUBLIC	??_C@_0N@IKGBKPJJ@SetSlotStyle@			; `string'
PUBLIC	??_C@_0BB@IOMAJEMI@SetSlotBaseImage@		; `string'
PUBLIC	??_C@_0P@JKHNGGPA@SetCoverButton@		; `string'
PUBLIC	??_C@_0BC@GDLBPCHF@EnableCoverButton@		; `string'
PUBLIC	??_C@_0BD@DOJCOOMI@DisableCoverButton@		; `string'
PUBLIC	??_C@_0BF@ILDMDDMH@IsDisableCoverButton@	; `string'
PUBLIC	??_C@_0BL@PAFAGEGB@SetAlwaysRenderCoverButton@	; `string'
PUBLIC	??_C@_0BB@LLDDGEIL@AppendSlotButton@		; `string'
PUBLIC	??_C@_0BL@CCGBCIBD@AppendRequirementSignImage@	; `string'
PUBLIC	??_C@_0P@CINLEJEK@ShowSlotButton@		; `string'
PUBLIC	??_C@_0BC@IHMDJONI@HideAllSlotButton@		; `string'
PUBLIC	??_C@_0BE@IGOEKEDL@ShowRequirementSign@		; `string'
PUBLIC	??_C@_0BE@LNAIGOOK@HideRequirementSign@		; `string'
PUBLIC	??_C@_0M@NAPCHMAM@RefreshSlot@			; `string'
PUBLIC	??_C@_0L@ODKIIGJF@SetUseMode@			; `string'
PUBLIC	??_C@_0O@LHCBGPMO@SetUsableItem@		; `string'
PUBLIC	??_C@_0L@EMMADCIN@SelectSlot@			; `string'
PUBLIC	??_C@_0O@OGHLMGNI@ClearSelected@		; `string'
PUBLIC	??_C@_0BF@EECMELAK@GetSelectedSlotCount@	; `string'
PUBLIC	??_C@_0BG@DJKADEKA@GetSelectedSlotNumber@	; `string'
PUBLIC	??_C@_0P@GKJOEMLC@IsSelectedSlot@		; `string'
PUBLIC	??_C@_0N@PALCIPBL@GetSlotCount@			; `string'
PUBLIC	??_C@_08PGGNMNPL@LockSlot@			; `string'
PUBLIC	??_C@_0L@DPNFKPLP@UnlockSlot@			; `string'
PUBLIC	??_C@_08GPNJILIJ@SetColor@			; `string'
PUBLIC	??_C@_06ODEINJEE@SetMax@			; `string'
PUBLIC	??_C@_0BD@FCLDCEMA@SetHorizontalAlign@		; `string'
PUBLIC	??_C@_0BB@NKHPOFIC@SetVerticalAlign@		; `string'
PUBLIC	??_C@_09CAFHEMDD@SetSecret@			; `string'
PUBLIC	??_C@_0L@HBNEJDMM@SetOutline@			; `string'
PUBLIC	??_C@_0L@LLKEFHFA@SetFeather@			; `string'
PUBLIC	??_C@_0N@FKMHLJHG@SetMultiLine@			; `string'
PUBLIC	??_C@_07NIJDBDAG@SetText@			; `string'
PUBLIC	??_C@_0M@MCELKPNO@SetFontName@			; `string'
PUBLIC	??_C@_0N@MKCFOAAE@SetFontColor@			; `string'
PUBLIC	??_C@_0O@FIAFKHF@SetLimitWidth@			; `string'
PUBLIC	??_C@_07CAGCCMNH@GetText@			; `string'
PUBLIC	??_C@_0M@JOAAGILP@GetTextSize@			; `string'
PUBLIC	??_C@_0L@BIENLPGM@ShowCursor@			; `string'
PUBLIC	??_C@_0L@MGJDDPFG@HideCursor@			; `string'
PUBLIC	??_C@_0BC@DJJGDMOB@GetCursorPosition@		; `string'
PUBLIC	??_C@_09JMPLPNNO@SetNumber@			; `string'
PUBLIC	??_C@_0BP@JHALFFJF@SetNumberHorizontalAlignCenter@ ; `string'
PUBLIC	??_C@_0BO@FBBAAHKK@SetNumberHorizontalAlignRight@ ; `string'
PUBLIC	??_C@_07ENBMIGKI@SetPath@			; `string'
PUBLIC	??_C@_0BB@FMJJKPIM@MarkBox_SetImage@		; `string'
PUBLIC	??_C@_0BJ@PJODLBON@MarkBox_SetImageFilename@	; `string'
PUBLIC	??_C@_0N@FLKGJMCL@MarkBox_Load@			; `string'
PUBLIC	??_C@_0BB@NAAPJNBM@MarkBox_SetIndex@		; `string'
PUBLIC	??_C@_0BB@ENLBNPPB@MarkBox_SetScale@		; `string'
PUBLIC	??_C@_0BI@JCKPADLG@MarkBox_SetDiffuseColor@	; `string'
PUBLIC	??_C@_09OHOMMMHI@LoadImage@			; `string'
PUBLIC	??_C@_0BA@CAEBLOMF@SetDiffuseColor@		; `string'
PUBLIC	??_C@_08OMBILDHM@GetWidth@			; `string'
PUBLIC	??_C@_09EOGEIJMK@GetHeight@			; `string'
PUBLIC	??_C@_08FMFAIGAB@SetScale@			; `string'
PUBLIC	??_C@_09KLKDEBJ@SetOrigin@			; `string'
PUBLIC	??_C@_0M@GNIHGJGG@SetRotation@			; `string'
PUBLIC	??_C@_0BB@LDNMLPHM@SetRenderingRect@		; `string'
PUBLIC	??_C@_0BB@GIEHGKNO@SetRenderingMode@		; `string'
PUBLIC	??_C@_08NBAGFHFB@SetDelay@			; `string'
PUBLIC	??_C@_0M@BEJGDBIJ@AppendImage@			; `string'
PUBLIC	??_C@_0M@IIELPGEP@SetUpVisual@			; `string'
PUBLIC	??_C@_0O@KOIDMFK@SetOverVisual@			; `string'
PUBLIC	??_C@_0O@FLFAFPKP@SetDownVisual@		; `string'
PUBLIC	??_C@_0BB@JCGDBIB@SetDisableVisual@		; `string'
PUBLIC	??_C@_0BE@PHOOFGJI@GetUpVisualFileName@		; `string'
PUBLIC	??_C@_0BG@KEALLAJN@GetOverVisualFileName@	; `string'
PUBLIC	??_C@_0BG@FKDEILKI@GetDownVisualFileName@	; `string'
PUBLIC	??_C@_05LDPHIKKB@Flash@				; `string'
PUBLIC	??_C@_06CKGENIKG@Enable@			; `string'
PUBLIC	??_C@_07MIKIFGAL@Disable@			; `string'
PUBLIC	??_C@_04FNCLCJMC@Down@				; `string'
PUBLIC	??_C@_05DEOAHOFO@SetUp@				; `string'
PUBLIC	??_C@_06FKEAEOGE@IsDown@			; `string'
PUBLIC	??_C@_0BI@KNEJFEOH@SetRestrictMovementArea@	; `string'
PUBLIC	??_C@_0P@MEHCKPID@SetOutlineFlag@		; `string'
PUBLIC	??_C@_0BF@LFOINEDC@ShowOverInWindowName@	; `string'
PUBLIC	??_C@_0BA@EABPFCGJ@IsActivatedSlot@		; `string'
PUBLIC	??_C@_0BA@NIALCINC@GetSlotCoolTime@		; `string'
PUBLIC	??_C@_0P@KKAGIHMC@ActivateEffect@		; `string'
PUBLIC	??_C@_0BB@FBKJFJKM@DeactivateEffect@		; `string'
PUBLIC	??_C@_06CMPPDHLC@wndMgr@			; `string'
PUBLIC	??_C@_0BA@CEBPCJJF@SLOT_STYLE_NONE@		; `string'
PUBLIC	??_C@_0BD@HIHLPNEG@SLOT_STYLE_PICK_UP@		; `string'
PUBLIC	??_C@_0BC@DPNNOEON@SLOT_STYLE_SELECT@		; `string'
PUBLIC	??_C@_0BL@KJOOHAME@TEXT_HORIZONTAL_ALIGN_LEFT@	; `string'
PUBLIC	??_C@_0BM@BDNLMDBC@TEXT_HORIZONTAL_ALIGN_RIGHT@	; `string'
PUBLIC	??_C@_0BN@MHHHIBEN@TEXT_HORIZONTAL_ALIGN_CENTER@ ; `string'
PUBLIC	??_C@_0BI@PIKJCBDF@TEXT_VERTICAL_ALIGN_TOP@	; `string'
PUBLIC	??_C@_0BL@IKMFEFFI@TEXT_VERTICAL_ALIGN_BOTTOM@	; `string'
PUBLIC	??_C@_0BL@GHLEGJOB@TEXT_VERTICAL_ALIGN_CENTER@	; `string'
PUBLIC	??_C@_0BG@CEANPPL@HORIZONTAL_ALIGN_LEFT@	; `string'
PUBLIC	??_C@_0BI@NJMALOKG@HORIZONTAL_ALIGN_CENTER@	; `string'
PUBLIC	??_C@_0BH@KFBGEAIA@HORIZONTAL_ALIGN_RIGHT@	; `string'
PUBLIC	??_C@_0BD@PBJDAEOI@VERTICAL_ALIGN_TOP@		; `string'
PUBLIC	??_C@_0BG@MMBKMGNO@VERTICAL_ALIGN_CENTER@	; `string'
PUBLIC	??_C@_0BG@CBGLOKGH@VERTICAL_ALIGN_BOTTOM@	; `string'
PUBLIC	??_C@_0BI@BNOJCJOH@RENDERING_MODE_MODULATE@	; `string'
PUBLIC	__real@437f0000
PUBLIC	__xmm@3f8000003f8000003f8000003f800000
EXTRN	___report_rangecheckfailure:PROC
EXTRN	__stricmp:PROC
EXTRN	?TraceError@@YAXPBDZZ:PROC			; TraceError
EXTRN	__imp__PyTuple_Size:PROC
EXTRN	__imp__Py_BuildValue:PROC
EXTRN	__imp__PyModule_AddIntConstant:PROC
EXTRN	__imp__Py_InitModule4:PROC
EXTRN	?PyTuple_GetString@@YA_NPAU_object@@HPAPAD@Z:PROC ; PyTuple_GetString
EXTRN	?PyTuple_GetInteger@@YA_NPAU_object@@HPAH@Z:PROC ; PyTuple_GetInteger
EXTRN	?PyTuple_GetFloat@@YA_NPAU_object@@HPAM@Z:PROC	; PyTuple_GetFloat
EXTRN	?PyTuple_GetObject@@YA_NPAU_object@@HPAPAU1@@Z:PROC ; PyTuple_GetObject
EXTRN	?PyTuple_GetBoolean@@YA_NPAU_object@@HPA_N@Z:PROC ; PyTuple_GetBoolean
EXTRN	?Py_BuildException@@YAPAU_object@@PBDZZ:PROC	; Py_BuildException
EXTRN	?Py_BuildNone@@YAPAU_object@@XZ:PROC		; Py_BuildNone
EXTRN	?Hyperlink_GetText@CGraphicTextInstance@@SAHPADH@Z:PROC ; CGraphicTextInstance::Hyperlink_GetText
EXTRN	?GetAspect@CWindowManager@UI@@QAEMXZ:PROC	; UI::CWindowManager::GetAspect
EXTRN	?SetScreenSize@CWindowManager@UI@@QAEXJJ@Z:PROC	; UI::CWindowManager::SetScreenSize
EXTRN	?SetMouseHandler@CWindowManager@UI@@QAEXPAU_object@@@Z:PROC ; UI::CWindowManager::SetMouseHandler
EXTRN	?GetMousePosition@CWindowManager@UI@@QAEXAAJ0@Z:PROC ; UI::CWindowManager::GetMousePosition
EXTRN	?IsDragging@CWindowManager@UI@@QAEHXZ:PROC	; UI::CWindowManager::IsDragging
EXTRN	?SetParent@CWindowManager@UI@@QAEXPAVCWindow@2@0@Z:PROC ; UI::CWindowManager::SetParent
EXTRN	?SetPickAlways@CWindowManager@UI@@QAEXPAVCWindow@2@@Z:PROC ; UI::CWindowManager::SetPickAlways
EXTRN	?RegisterWindow@CWindowManager@UI@@QAEPAVCWindow@2@PAU_object@@PBD@Z:PROC ; UI::CWindowManager::RegisterWindow
EXTRN	?RegisterSlotWindow@CWindowManager@UI@@QAEPAVCWindow@2@PAU_object@@PBD@Z:PROC ; UI::CWindowManager::RegisterSlotWindow
EXTRN	?RegisterGridSlotWindow@CWindowManager@UI@@QAEPAVCWindow@2@PAU_object@@PBD@Z:PROC ; UI::CWindowManager::RegisterGridSlotWindow
EXTRN	?RegisterTextLine@CWindowManager@UI@@QAEPAVCWindow@2@PAU_object@@PBD@Z:PROC ; UI::CWindowManager::RegisterTextLine
EXTRN	?RegisterMarkBox@CWindowManager@UI@@QAEPAVCWindow@2@PAU_object@@PBD@Z:PROC ; UI::CWindowManager::RegisterMarkBox
EXTRN	?RegisterImageBox@CWindowManager@UI@@QAEPAVCWindow@2@PAU_object@@PBD@Z:PROC ; UI::CWindowManager::RegisterImageBox
EXTRN	?RegisterExpandedImageBox@CWindowManager@UI@@QAEPAVCWindow@2@PAU_object@@PBD@Z:PROC ; UI::CWindowManager::RegisterExpandedImageBox
EXTRN	?RegisterAniImageBox@CWindowManager@UI@@QAEPAVCWindow@2@PAU_object@@PBD@Z:PROC ; UI::CWindowManager::RegisterAniImageBox
EXTRN	?RegisterButton@CWindowManager@UI@@QAEPAVCWindow@2@PAU_object@@PBD@Z:PROC ; UI::CWindowManager::RegisterButton
EXTRN	?RegisterRadioButton@CWindowManager@UI@@QAEPAVCWindow@2@PAU_object@@PBD@Z:PROC ; UI::CWindowManager::RegisterRadioButton
EXTRN	?RegisterToggleButton@CWindowManager@UI@@QAEPAVCWindow@2@PAU_object@@PBD@Z:PROC ; UI::CWindowManager::RegisterToggleButton
EXTRN	?RegisterDragButton@CWindowManager@UI@@QAEPAVCWindow@2@PAU_object@@PBD@Z:PROC ; UI::CWindowManager::RegisterDragButton
EXTRN	?RegisterBox@CWindowManager@UI@@QAEPAVCWindow@2@PAU_object@@PBD@Z:PROC ; UI::CWindowManager::RegisterBox
EXTRN	?RegisterBar@CWindowManager@UI@@QAEPAVCWindow@2@PAU_object@@PBD@Z:PROC ; UI::CWindowManager::RegisterBar
EXTRN	?RegisterLine@CWindowManager@UI@@QAEPAVCWindow@2@PAU_object@@PBD@Z:PROC ; UI::CWindowManager::RegisterLine
EXTRN	?RegisterBar3D@CWindowManager@UI@@QAEPAVCWindow@2@PAU_object@@PBD@Z:PROC ; UI::CWindowManager::RegisterBar3D
EXTRN	?RegisterNumberLine@CWindowManager@UI@@QAEPAVCWindow@2@PAU_object@@PBD@Z:PROC ; UI::CWindowManager::RegisterNumberLine
EXTRN	?DestroyWindow@CWindowManager@UI@@QAEXPAVCWindow@2@@Z:PROC ; UI::CWindowManager::DestroyWindow
EXTRN	?AttachIcon@CWindowManager@UI@@QAEXKKKEE@Z:PROC	; UI::CWindowManager::AttachIcon
EXTRN	?DeattachIcon@CWindowManager@UI@@QAEXXZ:PROC	; UI::CWindowManager::DeattachIcon
EXTRN	?SetAttachingFlag@CWindowManager@UI@@QAEXH@Z:PROC ; UI::CWindowManager::SetAttachingFlag
EXTRN	?OnceIgnoreMouseLeftButtonUpEvent@CWindowManager@UI@@QAEXXZ:PROC ; UI::CWindowManager::OnceIgnoreMouseLeftButtonUpEvent
EXTRN	?LockWindow@CWindowManager@UI@@QAEXPAVCWindow@2@@Z:PROC ; UI::CWindowManager::LockWindow
EXTRN	?UnlockWindow@CWindowManager@UI@@QAEXXZ:PROC	; UI::CWindowManager::UnlockWindow
EXTRN	?ActivateWindow@CWindowManager@UI@@QAEXPAVCWindow@2@@Z:PROC ; UI::CWindowManager::ActivateWindow
EXTRN	?DeactivateWindow@CWindowManager@UI@@QAEXXZ:PROC ; UI::CWindowManager::DeactivateWindow
EXTRN	?GetActivateWindow@CWindowManager@UI@@QAEPAVCWindow@2@XZ:PROC ; UI::CWindowManager::GetActivateWindow
EXTRN	?SetTop@CWindowManager@UI@@QAEXPAVCWindow@2@@Z:PROC ; UI::CWindowManager::SetTop
EXTRN	?IsType@CWindow@UI@@QAEHK@Z:PROC		; UI::CWindow::IsType
EXTRN	?SetName@CWindow@UI@@QAEXPBD@Z:PROC		; UI::CWindow::SetName
EXTRN	?SetSize@CWindow@UI@@QAEXJJ@Z:PROC		; UI::CWindow::SetSize
EXTRN	?SetHorizontalAlign@CWindow@UI@@QAEXK@Z:PROC	; UI::CWindow::SetHorizontalAlign
EXTRN	?SetVerticalAlign@CWindow@UI@@QAEXK@Z:PROC	; UI::CWindow::SetVerticalAlign
EXTRN	?SetPosition@CWindow@UI@@QAEXJJ@Z:PROC		; UI::CWindow::SetPosition
EXTRN	?GetPosition@CWindow@UI@@QAEXPAJ0@Z:PROC	; UI::CWindow::GetPosition
EXTRN	?GetMouseLocalPosition@CWindow@UI@@QAEXAAJ0@Z:PROC ; UI::CWindow::GetMouseLocalPosition
EXTRN	?UpdateRect@CWindow@UI@@QAEJXZ:PROC		; UI::CWindow::UpdateRect
EXTRN	?Show@CWindow@UI@@QAEXXZ:PROC			; UI::CWindow::Show
EXTRN	?Hide@CWindow@UI@@QAEXXZ:PROC			; UI::CWindow::Hide
EXTRN	?Type@CBar3D@UI@@SAKXZ:PROC			; UI::CBar3D::Type
EXTRN	?SetColor@CBar3D@UI@@QAEXKKK@Z:PROC		; UI::CBar3D::SetColor
EXTRN	?SetMax@CTextLine@UI@@QAEXH@Z:PROC		; UI::CTextLine::SetMax
EXTRN	?SetHorizontalAlign@CTextLine@UI@@QAEXH@Z:PROC	; UI::CTextLine::SetHorizontalAlign
EXTRN	?SetVerticalAlign@CTextLine@UI@@QAEXH@Z:PROC	; UI::CTextLine::SetVerticalAlign
EXTRN	?SetSecret@CTextLine@UI@@QAEXH@Z:PROC		; UI::CTextLine::SetSecret
EXTRN	?SetOutline@CTextLine@UI@@QAEXH@Z:PROC		; UI::CTextLine::SetOutline
EXTRN	?SetFeather@CTextLine@UI@@QAEXH@Z:PROC		; UI::CTextLine::SetFeather
EXTRN	?SetMultiLine@CTextLine@UI@@QAEXH@Z:PROC	; UI::CTextLine::SetMultiLine
EXTRN	?SetFontName@CTextLine@UI@@QAEXPBD@Z:PROC	; UI::CTextLine::SetFontName
EXTRN	?SetFontColor@CTextLine@UI@@QAEXK@Z:PROC	; UI::CTextLine::SetFontColor
EXTRN	?SetLimitWidth@CTextLine@UI@@QAEXM@Z:PROC	; UI::CTextLine::SetLimitWidth
EXTRN	?ShowCursor@CTextLine@UI@@QAEXXZ:PROC		; UI::CTextLine::ShowCursor
EXTRN	?HideCursor@CTextLine@UI@@QAEXXZ:PROC		; UI::CTextLine::HideCursor
EXTRN	?GetCursorPosition@CTextLine@UI@@QAEHXZ:PROC	; UI::CTextLine::GetCursorPosition
EXTRN	?SetText@CTextLine@UI@@QAEXPBD@Z:PROC		; UI::CTextLine::SetText
EXTRN	?GetText@CTextLine@UI@@QAEPBDXZ:PROC		; UI::CTextLine::GetText
EXTRN	?GetTextSize@CTextLine@UI@@QAEXPAH0@Z:PROC	; UI::CTextLine::GetTextSize
EXTRN	?SetPath@CNumberLine@UI@@QAEXPBD@Z:PROC		; UI::CNumberLine::SetPath
EXTRN	?SetHorizontalAlign@CNumberLine@UI@@QAEXH@Z:PROC ; UI::CNumberLine::SetHorizontalAlign
EXTRN	?SetNumber@CNumberLine@UI@@QAEXPBD@Z:PROC	; UI::CNumberLine::SetNumber
EXTRN	?LoadImageA@CImageBox@UI@@QAEHPBD@Z:PROC	; UI::CImageBox::LoadImageA
EXTRN	?SetDiffuseColor@CImageBox@UI@@QAEXMMMM@Z:PROC	; UI::CImageBox::SetDiffuseColor
EXTRN	?GetWidth@CImageBox@UI@@QAEHXZ:PROC		; UI::CImageBox::GetWidth
EXTRN	?GetHeight@CImageBox@UI@@QAEHXZ:PROC		; UI::CImageBox::GetHeight
EXTRN	?LoadImageA@CMarkBox@UI@@QAEXPBD@Z:PROC		; UI::CMarkBox::LoadImageA
EXTRN	?SetDiffuseColor@CMarkBox@UI@@QAEXMMMM@Z:PROC	; UI::CMarkBox::SetDiffuseColor
EXTRN	?SetIndex@CMarkBox@UI@@QAEXI@Z:PROC		; UI::CMarkBox::SetIndex
EXTRN	?SetScale@CMarkBox@UI@@QAEXM@Z:PROC		; UI::CMarkBox::SetScale
EXTRN	?Type@CExpandedImageBox@UI@@SAKXZ:PROC		; UI::CExpandedImageBox::Type
EXTRN	?SetScale@CExpandedImageBox@UI@@QAEXMM@Z:PROC	; UI::CExpandedImageBox::SetScale
EXTRN	?SetOrigin@CExpandedImageBox@UI@@QAEXMM@Z:PROC	; UI::CExpandedImageBox::SetOrigin
EXTRN	?SetRotation@CExpandedImageBox@UI@@QAEXM@Z:PROC	; UI::CExpandedImageBox::SetRotation
EXTRN	?SetRenderingRect@CExpandedImageBox@UI@@QAEXMMMM@Z:PROC ; UI::CExpandedImageBox::SetRenderingRect
EXTRN	?SetRenderingMode@CExpandedImageBox@UI@@QAEXH@Z:PROC ; UI::CExpandedImageBox::SetRenderingMode
EXTRN	?Type@CAniImageBox@UI@@SAKXZ:PROC		; UI::CAniImageBox::Type
EXTRN	?SetDelay@CAniImageBox@UI@@QAEXH@Z:PROC		; UI::CAniImageBox::SetDelay
EXTRN	?AppendImage@CAniImageBox@UI@@QAEXPBDMMMM@Z:PROC ; UI::CAniImageBox::AppendImage
EXTRN	?SetRenderingRect@CAniImageBox@UI@@QAEXMMMM@Z:PROC ; UI::CAniImageBox::SetRenderingRect
EXTRN	?SetUpVisual@CButton@UI@@QAEHPBD@Z:PROC		; UI::CButton::SetUpVisual
EXTRN	?SetOverVisual@CButton@UI@@QAEHPBD@Z:PROC	; UI::CButton::SetOverVisual
EXTRN	?SetDownVisual@CButton@UI@@QAEHPBD@Z:PROC	; UI::CButton::SetDownVisual
EXTRN	?SetDisableVisual@CButton@UI@@QAEHPBD@Z:PROC	; UI::CButton::SetDisableVisual
EXTRN	?GetUpVisualFileName@CButton@UI@@QAEPBDXZ:PROC	; UI::CButton::GetUpVisualFileName
EXTRN	?GetOverVisualFileName@CButton@UI@@QAEPBDXZ:PROC ; UI::CButton::GetOverVisualFileName
EXTRN	?GetDownVisualFileName@CButton@UI@@QAEPBDXZ:PROC ; UI::CButton::GetDownVisualFileName
EXTRN	?Flash@CButton@UI@@QAEXXZ:PROC			; UI::CButton::Flash
EXTRN	?Enable@CButton@UI@@QAEXXZ:PROC			; UI::CButton::Enable
EXTRN	?Disable@CButton@UI@@QAEXXZ:PROC		; UI::CButton::Disable
EXTRN	?SetUp@CButton@UI@@QAEXXZ:PROC			; UI::CButton::SetUp
EXTRN	?Down@CButton@UI@@QAEXXZ:PROC			; UI::CButton::Down
EXTRN	?IsPressed@CButton@UI@@QAEHXZ:PROC		; UI::CButton::IsPressed
EXTRN	?SetRestrictMovementArea@CDragButton@UI@@QAEXHHHH@Z:PROC ; UI::CDragButton::SetRestrictMovementArea
EXTRN	?Type@CSlotWindow@UI@@SAKXZ:PROC		; UI::CSlotWindow::Type
EXTRN	?SetSlotType@CSlotWindow@UI@@QAEXK@Z:PROC	; UI::CSlotWindow::SetSlotType
EXTRN	?SetSlotStyle@CSlotWindow@UI@@QAEXK@Z:PROC	; UI::CSlotWindow::SetSlotStyle
EXTRN	?AppendSlot@CSlotWindow@UI@@QAEXKHHHH@Z:PROC	; UI::CSlotWindow::AppendSlot
EXTRN	?SetCoverButton@CSlotWindow@UI@@QAEXKPBD000HH@Z:PROC ; UI::CSlotWindow::SetCoverButton
EXTRN	?SetSlotBaseImage@CSlotWindow@UI@@QAEXPBDMMMM@Z:PROC ; UI::CSlotWindow::SetSlotBaseImage
EXTRN	?AppendSlotButton@CSlotWindow@UI@@QAEXPBD00@Z:PROC ; UI::CSlotWindow::AppendSlotButton
EXTRN	?AppendRequirementSignImage@CSlotWindow@UI@@QAEXPBD@Z:PROC ; UI::CSlotWindow::AppendRequirementSignImage
EXTRN	?EnableCoverButton@CSlotWindow@UI@@QAEXK@Z:PROC	; UI::CSlotWindow::EnableCoverButton
EXTRN	?DisableCoverButton@CSlotWindow@UI@@QAEXK@Z:PROC ; UI::CSlotWindow::DisableCoverButton
EXTRN	?SetAlwaysRenderCoverButton@CSlotWindow@UI@@QAEXK_N@Z:PROC ; UI::CSlotWindow::SetAlwaysRenderCoverButton
EXTRN	?ShowSlotBaseImage@CSlotWindow@UI@@QAEXK@Z:PROC	; UI::CSlotWindow::ShowSlotBaseImage
EXTRN	?HideSlotBaseImage@CSlotWindow@UI@@QAEXK@Z:PROC	; UI::CSlotWindow::HideSlotBaseImage
EXTRN	?IsDisableCoverButton@CSlotWindow@UI@@QAEHK@Z:PROC ; UI::CSlotWindow::IsDisableCoverButton
EXTRN	?HasSlot@CSlotWindow@UI@@QAEHK@Z:PROC		; UI::CSlotWindow::HasSlot
EXTRN	?ClearAllSlot@CSlotWindow@UI@@QAEXXZ:PROC	; UI::CSlotWindow::ClearAllSlot
EXTRN	?ClearSlot@CSlotWindow@UI@@QAEXK@Z:PROC		; UI::CSlotWindow::ClearSlot
EXTRN	?SetSlot@CSlotWindow@UI@@QAEXKKEEPAVCGraphicImage@@AAUD3DXCOLOR@@@Z:PROC ; UI::CSlotWindow::SetSlot
EXTRN	?SetSlotCount@CSlotWindow@UI@@QAEXKK@Z:PROC	; UI::CSlotWindow::SetSlotCount
EXTRN	?SetSlotCountNew@CSlotWindow@UI@@QAEXKKK@Z:PROC	; UI::CSlotWindow::SetSlotCountNew
EXTRN	?SetSlotCoolTime@CSlotWindow@UI@@QAEXKMM@Z:PROC	; UI::CSlotWindow::SetSlotCoolTime
EXTRN	?ActivateSlot@CSlotWindow@UI@@QAEXK@Z:PROC	; UI::CSlotWindow::ActivateSlot
EXTRN	?DeactivateSlot@CSlotWindow@UI@@QAEXK@Z:PROC	; UI::CSlotWindow::DeactivateSlot
EXTRN	?RefreshSlot@CSlotWindow@UI@@QAEXXZ:PROC	; UI::CSlotWindow::RefreshSlot
EXTRN	?GetSlotCoolTime@CSlotWindow@UI@@QAEMKPAM@Z:PROC ; UI::CSlotWindow::GetSlotCoolTime
EXTRN	?IsActivatedSlot@CSlotWindow@UI@@QAE_NK@Z:PROC	; UI::CSlotWindow::IsActivatedSlot
EXTRN	?GetSlotCount@CSlotWindow@UI@@QAEKXZ:PROC	; UI::CSlotWindow::GetSlotCount
EXTRN	?LockSlot@CSlotWindow@UI@@QAEXK@Z:PROC		; UI::CSlotWindow::LockSlot
EXTRN	?UnlockSlot@CSlotWindow@UI@@QAEXK@Z:PROC	; UI::CSlotWindow::UnlockSlot
EXTRN	?EnableSlot@CSlotWindow@UI@@QAEXK@Z:PROC	; UI::CSlotWindow::EnableSlot
EXTRN	?DisableSlot@CSlotWindow@UI@@QAEXK@Z:PROC	; UI::CSlotWindow::DisableSlot
EXTRN	?ClearSelected@CSlotWindow@UI@@QAEXXZ:PROC	; UI::CSlotWindow::ClearSelected
EXTRN	?SelectSlot@CSlotWindow@UI@@QAEXK@Z:PROC	; UI::CSlotWindow::SelectSlot
EXTRN	?isSelectedSlot@CSlotWindow@UI@@QAEHK@Z:PROC	; UI::CSlotWindow::isSelectedSlot
EXTRN	?GetSelectedSlotCount@CSlotWindow@UI@@QAEKXZ:PROC ; UI::CSlotWindow::GetSelectedSlotCount
EXTRN	?GetSelectedSlotNumber@CSlotWindow@UI@@QAEKK@Z:PROC ; UI::CSlotWindow::GetSelectedSlotNumber
EXTRN	?ShowSlotButton@CSlotWindow@UI@@QAEXK@Z:PROC	; UI::CSlotWindow::ShowSlotButton
EXTRN	?HideAllSlotButton@CSlotWindow@UI@@QAEXXZ:PROC	; UI::CSlotWindow::HideAllSlotButton
EXTRN	?ShowRequirementSign@CSlotWindow@UI@@QAEXK@Z:PROC ; UI::CSlotWindow::ShowRequirementSign
EXTRN	?HideRequirementSign@CSlotWindow@UI@@QAEXK@Z:PROC ; UI::CSlotWindow::HideRequirementSign
EXTRN	?SetUseMode@CSlotWindow@UI@@QAEXH@Z:PROC	; UI::CSlotWindow::SetUseMode
EXTRN	?SetUsableItem@CSlotWindow@UI@@QAEXH@Z:PROC	; UI::CSlotWindow::SetUsableItem
EXTRN	?ActivateEffect@CSlotWindow@UI@@QAEXKMMMM@Z:PROC ; UI::CSlotWindow::ActivateEffect
EXTRN	?DeactivateEffect@CSlotWindow@UI@@QAEXK@Z:PROC	; UI::CSlotWindow::DeactivateEffect
EXTRN	?Type@CGridSlotWindow@UI@@SAKXZ:PROC		; UI::CGridSlotWindow::Type
EXTRN	?ArrangeGridSlot@CGridSlotWindow@UI@@QAEXKKKHHHH@Z:PROC ; UI::CGridSlotWindow::ArrangeGridSlot
EXTRN	@__security_check_cookie@4:PROC
EXTRN	?g_bOutlineBoxEnable@@3HA:DWORD			; g_bOutlineBoxEnable
EXTRN	?g_bShowOverInWindowName@@3HA:DWORD		; g_bShowOverInWindowName
EXTRN	___security_cookie:DWORD
EXTRN	__fltused:DWORD
;	COMDAT ?ms_singleton@?$CSingleton@VCWindowManager@UI@@@@0PAVCWindowManager@UI@@A
_BSS	SEGMENT
?ms_singleton@?$CSingleton@VCWindowManager@UI@@@@0PAVCWindowManager@UI@@A DD 01H DUP (?) ; CSingleton<UI::CWindowManager>::ms_singleton
_BSS	ENDS
;	COMDAT __xmm@3f8000003f8000003f8000003f800000
CONST	SEGMENT
__xmm@3f8000003f8000003f8000003f800000 DB 00H, 00H, 080H, '?', 00H, 00H, 080H
	DB	'?', 00H, 00H, 080H, '?', 00H, 00H, 080H, '?'
CONST	ENDS
;	COMDAT __real@437f0000
CONST	SEGMENT
__real@437f0000 DD 0437f0000r			; 255
CONST	ENDS
;	COMDAT ??_C@_0BI@BNOJCJOH@RENDERING_MODE_MODULATE@
CONST	SEGMENT
??_C@_0BI@BNOJCJOH@RENDERING_MODE_MODULATE@ DB 'RENDERING_MODE_MODULATE', 00H ; `string'
CONST	ENDS
;	COMDAT ??_C@_0BG@CBGLOKGH@VERTICAL_ALIGN_BOTTOM@
CONST	SEGMENT
??_C@_0BG@CBGLOKGH@VERTICAL_ALIGN_BOTTOM@ DB 'VERTICAL_ALIGN_BOTTOM', 00H ; `string'
CONST	ENDS
;	COMDAT ??_C@_0BG@MMBKMGNO@VERTICAL_ALIGN_CENTER@
CONST	SEGMENT
??_C@_0BG@MMBKMGNO@VERTICAL_ALIGN_CENTER@ DB 'VERTICAL_ALIGN_CENTER', 00H ; `string'
CONST	ENDS
;	COMDAT ??_C@_0BD@PBJDAEOI@VERTICAL_ALIGN_TOP@
CONST	SEGMENT
??_C@_0BD@PBJDAEOI@VERTICAL_ALIGN_TOP@ DB 'VERTICAL_ALIGN_TOP', 00H ; `string'
CONST	ENDS
;	COMDAT ??_C@_0BH@KFBGEAIA@HORIZONTAL_ALIGN_RIGHT@
CONST	SEGMENT
??_C@_0BH@KFBGEAIA@HORIZONTAL_ALIGN_RIGHT@ DB 'HORIZONTAL_ALIGN_RIGHT', 00H ; `string'
CONST	ENDS
;	COMDAT ??_C@_0BI@NJMALOKG@HORIZONTAL_ALIGN_CENTER@
CONST	SEGMENT
??_C@_0BI@NJMALOKG@HORIZONTAL_ALIGN_CENTER@ DB 'HORIZONTAL_ALIGN_CENTER', 00H ; `string'
CONST	ENDS
;	COMDAT ??_C@_0BG@CEANPPL@HORIZONTAL_ALIGN_LEFT@
CONST	SEGMENT
??_C@_0BG@CEANPPL@HORIZONTAL_ALIGN_LEFT@ DB 'HORIZONTAL_ALIGN_LEFT', 00H ; `string'
CONST	ENDS
;	COMDAT ??_C@_0BL@GHLEGJOB@TEXT_VERTICAL_ALIGN_CENTER@
CONST	SEGMENT
??_C@_0BL@GHLEGJOB@TEXT_VERTICAL_ALIGN_CENTER@ DB 'TEXT_VERTICAL_ALIGN_CE'
	DB	'NTER', 00H					; `string'
CONST	ENDS
;	COMDAT ??_C@_0BL@IKMFEFFI@TEXT_VERTICAL_ALIGN_BOTTOM@
CONST	SEGMENT
??_C@_0BL@IKMFEFFI@TEXT_VERTICAL_ALIGN_BOTTOM@ DB 'TEXT_VERTICAL_ALIGN_BO'
	DB	'TTOM', 00H					; `string'
CONST	ENDS
;	COMDAT ??_C@_0BI@PIKJCBDF@TEXT_VERTICAL_ALIGN_TOP@
CONST	SEGMENT
??_C@_0BI@PIKJCBDF@TEXT_VERTICAL_ALIGN_TOP@ DB 'TEXT_VERTICAL_ALIGN_TOP', 00H ; `string'
CONST	ENDS
;	COMDAT ??_C@_0BN@MHHHIBEN@TEXT_HORIZONTAL_ALIGN_CENTER@
CONST	SEGMENT
??_C@_0BN@MHHHIBEN@TEXT_HORIZONTAL_ALIGN_CENTER@ DB 'TEXT_HORIZONTAL_ALIG'
	DB	'N_CENTER', 00H				; `string'
CONST	ENDS
;	COMDAT ??_C@_0BM@BDNLMDBC@TEXT_HORIZONTAL_ALIGN_RIGHT@
CONST	SEGMENT
??_C@_0BM@BDNLMDBC@TEXT_HORIZONTAL_ALIGN_RIGHT@ DB 'TEXT_HORIZONTAL_ALIGN'
	DB	'_RIGHT', 00H				; `string'
CONST	ENDS
;	COMDAT ??_C@_0BL@KJOOHAME@TEXT_HORIZONTAL_ALIGN_LEFT@
CONST	SEGMENT
??_C@_0BL@KJOOHAME@TEXT_HORIZONTAL_ALIGN_LEFT@ DB 'TEXT_HORIZONTAL_ALIGN_'
	DB	'LEFT', 00H					; `string'
CONST	ENDS
;	COMDAT ??_C@_0BC@DPNNOEON@SLOT_STYLE_SELECT@
CONST	SEGMENT
??_C@_0BC@DPNNOEON@SLOT_STYLE_SELECT@ DB 'SLOT_STYLE_SELECT', 00H ; `string'
CONST	ENDS
;	COMDAT ??_C@_0BD@HIHLPNEG@SLOT_STYLE_PICK_UP@
CONST	SEGMENT
??_C@_0BD@HIHLPNEG@SLOT_STYLE_PICK_UP@ DB 'SLOT_STYLE_PICK_UP', 00H ; `string'
CONST	ENDS
;	COMDAT ??_C@_0BA@CEBPCJJF@SLOT_STYLE_NONE@
CONST	SEGMENT
??_C@_0BA@CEBPCJJF@SLOT_STYLE_NONE@ DB 'SLOT_STYLE_NONE', 00H ; `string'
CONST	ENDS
;	COMDAT ??_C@_06CMPPDHLC@wndMgr@
CONST	SEGMENT
??_C@_06CMPPDHLC@wndMgr@ DB 'wndMgr', 00H		; `string'
CONST	ENDS
;	COMDAT ??_C@_0BB@FBKJFJKM@DeactivateEffect@
CONST	SEGMENT
??_C@_0BB@FBKJFJKM@DeactivateEffect@ DB 'DeactivateEffect', 00H ; `string'
CONST	ENDS
;	COMDAT ??_C@_0P@KKAGIHMC@ActivateEffect@
CONST	SEGMENT
??_C@_0P@KKAGIHMC@ActivateEffect@ DB 'ActivateEffect', 00H ; `string'
CONST	ENDS
;	COMDAT ??_C@_0BA@NIALCINC@GetSlotCoolTime@
CONST	SEGMENT
??_C@_0BA@NIALCINC@GetSlotCoolTime@ DB 'GetSlotCoolTime', 00H ; `string'
CONST	ENDS
;	COMDAT ??_C@_0BA@EABPFCGJ@IsActivatedSlot@
CONST	SEGMENT
??_C@_0BA@EABPFCGJ@IsActivatedSlot@ DB 'IsActivatedSlot', 00H ; `string'
CONST	ENDS
;	COMDAT ??_C@_0BF@LFOINEDC@ShowOverInWindowName@
CONST	SEGMENT
??_C@_0BF@LFOINEDC@ShowOverInWindowName@ DB 'ShowOverInWindowName', 00H ; `string'
CONST	ENDS
;	COMDAT ??_C@_0P@MEHCKPID@SetOutlineFlag@
CONST	SEGMENT
??_C@_0P@MEHCKPID@SetOutlineFlag@ DB 'SetOutlineFlag', 00H ; `string'
CONST	ENDS
;	COMDAT ??_C@_0BI@KNEJFEOH@SetRestrictMovementArea@
CONST	SEGMENT
??_C@_0BI@KNEJFEOH@SetRestrictMovementArea@ DB 'SetRestrictMovementArea', 00H ; `string'
CONST	ENDS
;	COMDAT ??_C@_06FKEAEOGE@IsDown@
CONST	SEGMENT
??_C@_06FKEAEOGE@IsDown@ DB 'IsDown', 00H		; `string'
CONST	ENDS
;	COMDAT ??_C@_05DEOAHOFO@SetUp@
CONST	SEGMENT
??_C@_05DEOAHOFO@SetUp@ DB 'SetUp', 00H			; `string'
CONST	ENDS
;	COMDAT ??_C@_04FNCLCJMC@Down@
CONST	SEGMENT
??_C@_04FNCLCJMC@Down@ DB 'Down', 00H			; `string'
CONST	ENDS
;	COMDAT ??_C@_07MIKIFGAL@Disable@
CONST	SEGMENT
??_C@_07MIKIFGAL@Disable@ DB 'Disable', 00H		; `string'
CONST	ENDS
;	COMDAT ??_C@_06CKGENIKG@Enable@
CONST	SEGMENT
??_C@_06CKGENIKG@Enable@ DB 'Enable', 00H		; `string'
CONST	ENDS
;	COMDAT ??_C@_05LDPHIKKB@Flash@
CONST	SEGMENT
??_C@_05LDPHIKKB@Flash@ DB 'Flash', 00H			; `string'
CONST	ENDS
;	COMDAT ??_C@_0BG@FKDEILKI@GetDownVisualFileName@
CONST	SEGMENT
??_C@_0BG@FKDEILKI@GetDownVisualFileName@ DB 'GetDownVisualFileName', 00H ; `string'
CONST	ENDS
;	COMDAT ??_C@_0BG@KEALLAJN@GetOverVisualFileName@
CONST	SEGMENT
??_C@_0BG@KEALLAJN@GetOverVisualFileName@ DB 'GetOverVisualFileName', 00H ; `string'
CONST	ENDS
;	COMDAT ??_C@_0BE@PHOOFGJI@GetUpVisualFileName@
CONST	SEGMENT
??_C@_0BE@PHOOFGJI@GetUpVisualFileName@ DB 'GetUpVisualFileName', 00H ; `string'
CONST	ENDS
;	COMDAT ??_C@_0BB@JCGDBIB@SetDisableVisual@
CONST	SEGMENT
??_C@_0BB@JCGDBIB@SetDisableVisual@ DB 'SetDisableVisual', 00H ; `string'
CONST	ENDS
;	COMDAT ??_C@_0O@FLFAFPKP@SetDownVisual@
CONST	SEGMENT
??_C@_0O@FLFAFPKP@SetDownVisual@ DB 'SetDownVisual', 00H ; `string'
CONST	ENDS
;	COMDAT ??_C@_0O@KOIDMFK@SetOverVisual@
CONST	SEGMENT
??_C@_0O@KOIDMFK@SetOverVisual@ DB 'SetOverVisual', 00H	; `string'
CONST	ENDS
;	COMDAT ??_C@_0M@IIELPGEP@SetUpVisual@
CONST	SEGMENT
??_C@_0M@IIELPGEP@SetUpVisual@ DB 'SetUpVisual', 00H	; `string'
CONST	ENDS
;	COMDAT ??_C@_0M@BEJGDBIJ@AppendImage@
CONST	SEGMENT
??_C@_0M@BEJGDBIJ@AppendImage@ DB 'AppendImage', 00H	; `string'
CONST	ENDS
;	COMDAT ??_C@_08NBAGFHFB@SetDelay@
CONST	SEGMENT
??_C@_08NBAGFHFB@SetDelay@ DB 'SetDelay', 00H		; `string'
CONST	ENDS
;	COMDAT ??_C@_0BB@GIEHGKNO@SetRenderingMode@
CONST	SEGMENT
??_C@_0BB@GIEHGKNO@SetRenderingMode@ DB 'SetRenderingMode', 00H ; `string'
CONST	ENDS
;	COMDAT ??_C@_0BB@LDNMLPHM@SetRenderingRect@
CONST	SEGMENT
??_C@_0BB@LDNMLPHM@SetRenderingRect@ DB 'SetRenderingRect', 00H ; `string'
CONST	ENDS
;	COMDAT ??_C@_0M@GNIHGJGG@SetRotation@
CONST	SEGMENT
??_C@_0M@GNIHGJGG@SetRotation@ DB 'SetRotation', 00H	; `string'
CONST	ENDS
;	COMDAT ??_C@_09KLKDEBJ@SetOrigin@
CONST	SEGMENT
??_C@_09KLKDEBJ@SetOrigin@ DB 'SetOrigin', 00H		; `string'
CONST	ENDS
;	COMDAT ??_C@_08FMFAIGAB@SetScale@
CONST	SEGMENT
??_C@_08FMFAIGAB@SetScale@ DB 'SetScale', 00H		; `string'
CONST	ENDS
;	COMDAT ??_C@_09EOGEIJMK@GetHeight@
CONST	SEGMENT
??_C@_09EOGEIJMK@GetHeight@ DB 'GetHeight', 00H		; `string'
CONST	ENDS
;	COMDAT ??_C@_08OMBILDHM@GetWidth@
CONST	SEGMENT
??_C@_08OMBILDHM@GetWidth@ DB 'GetWidth', 00H		; `string'
CONST	ENDS
;	COMDAT ??_C@_0BA@CAEBLOMF@SetDiffuseColor@
CONST	SEGMENT
??_C@_0BA@CAEBLOMF@SetDiffuseColor@ DB 'SetDiffuseColor', 00H ; `string'
CONST	ENDS
;	COMDAT ??_C@_09OHOMMMHI@LoadImage@
CONST	SEGMENT
??_C@_09OHOMMMHI@LoadImage@ DB 'LoadImage', 00H		; `string'
CONST	ENDS
;	COMDAT ??_C@_0BI@JCKPADLG@MarkBox_SetDiffuseColor@
CONST	SEGMENT
??_C@_0BI@JCKPADLG@MarkBox_SetDiffuseColor@ DB 'MarkBox_SetDiffuseColor', 00H ; `string'
CONST	ENDS
;	COMDAT ??_C@_0BB@ENLBNPPB@MarkBox_SetScale@
CONST	SEGMENT
??_C@_0BB@ENLBNPPB@MarkBox_SetScale@ DB 'MarkBox_SetScale', 00H ; `string'
CONST	ENDS
;	COMDAT ??_C@_0BB@NAAPJNBM@MarkBox_SetIndex@
CONST	SEGMENT
??_C@_0BB@NAAPJNBM@MarkBox_SetIndex@ DB 'MarkBox_SetIndex', 00H ; `string'
CONST	ENDS
;	COMDAT ??_C@_0N@FLKGJMCL@MarkBox_Load@
CONST	SEGMENT
??_C@_0N@FLKGJMCL@MarkBox_Load@ DB 'MarkBox_Load', 00H	; `string'
CONST	ENDS
;	COMDAT ??_C@_0BJ@PJODLBON@MarkBox_SetImageFilename@
CONST	SEGMENT
??_C@_0BJ@PJODLBON@MarkBox_SetImageFilename@ DB 'MarkBox_SetImageFilename'
	DB	00H						; `string'
CONST	ENDS
;	COMDAT ??_C@_0BB@FMJJKPIM@MarkBox_SetImage@
CONST	SEGMENT
??_C@_0BB@FMJJKPIM@MarkBox_SetImage@ DB 'MarkBox_SetImage', 00H ; `string'
CONST	ENDS
;	COMDAT ??_C@_07ENBMIGKI@SetPath@
CONST	SEGMENT
??_C@_07ENBMIGKI@SetPath@ DB 'SetPath', 00H		; `string'
CONST	ENDS
;	COMDAT ??_C@_0BO@FBBAAHKK@SetNumberHorizontalAlignRight@
CONST	SEGMENT
??_C@_0BO@FBBAAHKK@SetNumberHorizontalAlignRight@ DB 'SetNumberHorizontal'
	DB	'AlignRight', 00H				; `string'
CONST	ENDS
;	COMDAT ??_C@_0BP@JHALFFJF@SetNumberHorizontalAlignCenter@
CONST	SEGMENT
??_C@_0BP@JHALFFJF@SetNumberHorizontalAlignCenter@ DB 'SetNumberHorizonta'
	DB	'lAlignCenter', 00H				; `string'
CONST	ENDS
;	COMDAT ??_C@_09JMPLPNNO@SetNumber@
CONST	SEGMENT
??_C@_09JMPLPNNO@SetNumber@ DB 'SetNumber', 00H		; `string'
CONST	ENDS
;	COMDAT ??_C@_0BC@DJJGDMOB@GetCursorPosition@
CONST	SEGMENT
??_C@_0BC@DJJGDMOB@GetCursorPosition@ DB 'GetCursorPosition', 00H ; `string'
CONST	ENDS
;	COMDAT ??_C@_0L@MGJDDPFG@HideCursor@
CONST	SEGMENT
??_C@_0L@MGJDDPFG@HideCursor@ DB 'HideCursor', 00H	; `string'
CONST	ENDS
;	COMDAT ??_C@_0L@BIENLPGM@ShowCursor@
CONST	SEGMENT
??_C@_0L@BIENLPGM@ShowCursor@ DB 'ShowCursor', 00H	; `string'
CONST	ENDS
;	COMDAT ??_C@_0M@JOAAGILP@GetTextSize@
CONST	SEGMENT
??_C@_0M@JOAAGILP@GetTextSize@ DB 'GetTextSize', 00H	; `string'
CONST	ENDS
;	COMDAT ??_C@_07CAGCCMNH@GetText@
CONST	SEGMENT
??_C@_07CAGCCMNH@GetText@ DB 'GetText', 00H		; `string'
CONST	ENDS
;	COMDAT ??_C@_0O@FIAFKHF@SetLimitWidth@
CONST	SEGMENT
??_C@_0O@FIAFKHF@SetLimitWidth@ DB 'SetLimitWidth', 00H	; `string'
CONST	ENDS
;	COMDAT ??_C@_0N@MKCFOAAE@SetFontColor@
CONST	SEGMENT
??_C@_0N@MKCFOAAE@SetFontColor@ DB 'SetFontColor', 00H	; `string'
CONST	ENDS
;	COMDAT ??_C@_0M@MCELKPNO@SetFontName@
CONST	SEGMENT
??_C@_0M@MCELKPNO@SetFontName@ DB 'SetFontName', 00H	; `string'
CONST	ENDS
;	COMDAT ??_C@_07NIJDBDAG@SetText@
CONST	SEGMENT
??_C@_07NIJDBDAG@SetText@ DB 'SetText', 00H		; `string'
CONST	ENDS
;	COMDAT ??_C@_0N@FKMHLJHG@SetMultiLine@
CONST	SEGMENT
??_C@_0N@FKMHLJHG@SetMultiLine@ DB 'SetMultiLine', 00H	; `string'
CONST	ENDS
;	COMDAT ??_C@_0L@LLKEFHFA@SetFeather@
CONST	SEGMENT
??_C@_0L@LLKEFHFA@SetFeather@ DB 'SetFeather', 00H	; `string'
CONST	ENDS
;	COMDAT ??_C@_0L@HBNEJDMM@SetOutline@
CONST	SEGMENT
??_C@_0L@HBNEJDMM@SetOutline@ DB 'SetOutline', 00H	; `string'
CONST	ENDS
;	COMDAT ??_C@_09CAFHEMDD@SetSecret@
CONST	SEGMENT
??_C@_09CAFHEMDD@SetSecret@ DB 'SetSecret', 00H		; `string'
CONST	ENDS
;	COMDAT ??_C@_0BB@NKHPOFIC@SetVerticalAlign@
CONST	SEGMENT
??_C@_0BB@NKHPOFIC@SetVerticalAlign@ DB 'SetVerticalAlign', 00H ; `string'
CONST	ENDS
;	COMDAT ??_C@_0BD@FCLDCEMA@SetHorizontalAlign@
CONST	SEGMENT
??_C@_0BD@FCLDCEMA@SetHorizontalAlign@ DB 'SetHorizontalAlign', 00H ; `string'
CONST	ENDS
;	COMDAT ??_C@_06ODEINJEE@SetMax@
CONST	SEGMENT
??_C@_06ODEINJEE@SetMax@ DB 'SetMax', 00H		; `string'
CONST	ENDS
;	COMDAT ??_C@_08GPNJILIJ@SetColor@
CONST	SEGMENT
??_C@_08GPNJILIJ@SetColor@ DB 'SetColor', 00H		; `string'
CONST	ENDS
;	COMDAT ??_C@_0L@DPNFKPLP@UnlockSlot@
CONST	SEGMENT
??_C@_0L@DPNFKPLP@UnlockSlot@ DB 'UnlockSlot', 00H	; `string'
CONST	ENDS
;	COMDAT ??_C@_08PGGNMNPL@LockSlot@
CONST	SEGMENT
??_C@_08PGGNMNPL@LockSlot@ DB 'LockSlot', 00H		; `string'
CONST	ENDS
;	COMDAT ??_C@_0N@PALCIPBL@GetSlotCount@
CONST	SEGMENT
??_C@_0N@PALCIPBL@GetSlotCount@ DB 'GetSlotCount', 00H	; `string'
CONST	ENDS
;	COMDAT ??_C@_0P@GKJOEMLC@IsSelectedSlot@
CONST	SEGMENT
??_C@_0P@GKJOEMLC@IsSelectedSlot@ DB 'IsSelectedSlot', 00H ; `string'
CONST	ENDS
;	COMDAT ??_C@_0BG@DJKADEKA@GetSelectedSlotNumber@
CONST	SEGMENT
??_C@_0BG@DJKADEKA@GetSelectedSlotNumber@ DB 'GetSelectedSlotNumber', 00H ; `string'
CONST	ENDS
;	COMDAT ??_C@_0BF@EECMELAK@GetSelectedSlotCount@
CONST	SEGMENT
??_C@_0BF@EECMELAK@GetSelectedSlotCount@ DB 'GetSelectedSlotCount', 00H ; `string'
CONST	ENDS
;	COMDAT ??_C@_0O@OGHLMGNI@ClearSelected@
CONST	SEGMENT
??_C@_0O@OGHLMGNI@ClearSelected@ DB 'ClearSelected', 00H ; `string'
CONST	ENDS
;	COMDAT ??_C@_0L@EMMADCIN@SelectSlot@
CONST	SEGMENT
??_C@_0L@EMMADCIN@SelectSlot@ DB 'SelectSlot', 00H	; `string'
CONST	ENDS
;	COMDAT ??_C@_0O@LHCBGPMO@SetUsableItem@
CONST	SEGMENT
??_C@_0O@LHCBGPMO@SetUsableItem@ DB 'SetUsableItem', 00H ; `string'
CONST	ENDS
;	COMDAT ??_C@_0L@ODKIIGJF@SetUseMode@
CONST	SEGMENT
??_C@_0L@ODKIIGJF@SetUseMode@ DB 'SetUseMode', 00H	; `string'
CONST	ENDS
;	COMDAT ??_C@_0M@NAPCHMAM@RefreshSlot@
CONST	SEGMENT
??_C@_0M@NAPCHMAM@RefreshSlot@ DB 'RefreshSlot', 00H	; `string'
CONST	ENDS
;	COMDAT ??_C@_0BE@LNAIGOOK@HideRequirementSign@
CONST	SEGMENT
??_C@_0BE@LNAIGOOK@HideRequirementSign@ DB 'HideRequirementSign', 00H ; `string'
CONST	ENDS
;	COMDAT ??_C@_0BE@IGOEKEDL@ShowRequirementSign@
CONST	SEGMENT
??_C@_0BE@IGOEKEDL@ShowRequirementSign@ DB 'ShowRequirementSign', 00H ; `string'
CONST	ENDS
;	COMDAT ??_C@_0BC@IHMDJONI@HideAllSlotButton@
CONST	SEGMENT
??_C@_0BC@IHMDJONI@HideAllSlotButton@ DB 'HideAllSlotButton', 00H ; `string'
CONST	ENDS
;	COMDAT ??_C@_0P@CINLEJEK@ShowSlotButton@
CONST	SEGMENT
??_C@_0P@CINLEJEK@ShowSlotButton@ DB 'ShowSlotButton', 00H ; `string'
CONST	ENDS
;	COMDAT ??_C@_0BL@CCGBCIBD@AppendRequirementSignImage@
CONST	SEGMENT
??_C@_0BL@CCGBCIBD@AppendRequirementSignImage@ DB 'AppendRequirementSignI'
	DB	'mage', 00H					; `string'
CONST	ENDS
;	COMDAT ??_C@_0BB@LLDDGEIL@AppendSlotButton@
CONST	SEGMENT
??_C@_0BB@LLDDGEIL@AppendSlotButton@ DB 'AppendSlotButton', 00H ; `string'
CONST	ENDS
;	COMDAT ??_C@_0BL@PAFAGEGB@SetAlwaysRenderCoverButton@
CONST	SEGMENT
??_C@_0BL@PAFAGEGB@SetAlwaysRenderCoverButton@ DB 'SetAlwaysRenderCoverBu'
	DB	'tton', 00H					; `string'
CONST	ENDS
;	COMDAT ??_C@_0BF@ILDMDDMH@IsDisableCoverButton@
CONST	SEGMENT
??_C@_0BF@ILDMDDMH@IsDisableCoverButton@ DB 'IsDisableCoverButton', 00H ; `string'
CONST	ENDS
;	COMDAT ??_C@_0BD@DOJCOOMI@DisableCoverButton@
CONST	SEGMENT
??_C@_0BD@DOJCOOMI@DisableCoverButton@ DB 'DisableCoverButton', 00H ; `string'
CONST	ENDS
;	COMDAT ??_C@_0BC@GDLBPCHF@EnableCoverButton@
CONST	SEGMENT
??_C@_0BC@GDLBPCHF@EnableCoverButton@ DB 'EnableCoverButton', 00H ; `string'
CONST	ENDS
;	COMDAT ??_C@_0P@JKHNGGPA@SetCoverButton@
CONST	SEGMENT
??_C@_0P@JKHNGGPA@SetCoverButton@ DB 'SetCoverButton', 00H ; `string'
CONST	ENDS
;	COMDAT ??_C@_0BB@IOMAJEMI@SetSlotBaseImage@
CONST	SEGMENT
??_C@_0BB@IOMAJEMI@SetSlotBaseImage@ DB 'SetSlotBaseImage', 00H ; `string'
CONST	ENDS
;	COMDAT ??_C@_0N@IKGBKPJJ@SetSlotStyle@
CONST	SEGMENT
??_C@_0N@IKGBKPJJ@SetSlotStyle@ DB 'SetSlotStyle', 00H	; `string'
CONST	ENDS
;	COMDAT ??_C@_0M@KHOHGEMH@SetSlotType@
CONST	SEGMENT
??_C@_0M@KHOHGEMH@SetSlotType@ DB 'SetSlotType', 00H	; `string'
CONST	ENDS
;	COMDAT ??_C@_0BC@NFMHNFLM@HideSlotBaseImage@
CONST	SEGMENT
??_C@_0BC@NFMHNFLM@HideSlotBaseImage@ DB 'HideSlotBaseImage', 00H ; `string'
CONST	ENDS
;	COMDAT ??_C@_0BC@DHCKDEOK@ShowSlotBaseImage@
CONST	SEGMENT
??_C@_0BC@DHCKDEOK@ShowSlotBaseImage@ DB 'ShowSlotBaseImage', 00H ; `string'
CONST	ENDS
;	COMDAT ??_C@_0M@EKMKGECP@DisableSlot@
CONST	SEGMENT
??_C@_0M@EKMKGECP@DisableSlot@ DB 'DisableSlot', 00H	; `string'
CONST	ENDS
;	COMDAT ??_C@_0L@DHCLIIGL@EnableSlot@
CONST	SEGMENT
??_C@_0L@DHCLIIGL@EnableSlot@ DB 'EnableSlot', 00H	; `string'
CONST	ENDS
;	COMDAT ??_C@_0P@FGAIANEO@DeactivateSlot@
CONST	SEGMENT
??_C@_0P@FGAIANEO@DeactivateSlot@ DB 'DeactivateSlot', 00H ; `string'
CONST	ENDS
;	COMDAT ??_C@_0N@HFCIPMIE@ActivateSlot@
CONST	SEGMENT
??_C@_0N@HFCIPMIE@ActivateSlot@ DB 'ActivateSlot', 00H	; `string'
CONST	ENDS
;	COMDAT ??_C@_0O@FJKNHKBL@SetToggleSlot@
CONST	SEGMENT
??_C@_0O@FJKNHKBL@SetToggleSlot@ DB 'SetToggleSlot', 00H ; `string'
CONST	ENDS
;	COMDAT ??_C@_0BA@OKBNFKML@SetSlotCoolTime@
CONST	SEGMENT
??_C@_0BA@OKBNFKML@SetSlotCoolTime@ DB 'SetSlotCoolTime', 00H ; `string'
CONST	ENDS
;	COMDAT ??_C@_0BA@OOLIKBKI@SetSlotCountNew@
CONST	SEGMENT
??_C@_0BA@OOLIKBKI@SetSlotCountNew@ DB 'SetSlotCountNew', 00H ; `string'
CONST	ENDS
;	COMDAT ??_C@_0N@IEAMEDFH@SetSlotCount@
CONST	SEGMENT
??_C@_0N@IEAMEDFH@SetSlotCount@ DB 'SetSlotCount', 00H	; `string'
CONST	ENDS
;	COMDAT ??_C@_07ONCDFGJ@SetSlot@
CONST	SEGMENT
??_C@_07ONCDFGJ@SetSlot@ DB 'SetSlot', 00H		; `string'
CONST	ENDS
;	COMDAT ??_C@_07MGEJAMLP@HasSlot@
CONST	SEGMENT
??_C@_07MGEJAMLP@HasSlot@ DB 'HasSlot', 00H		; `string'
CONST	ENDS
;	COMDAT ??_C@_0N@MMOLDNHK@ClearAllSlot@
CONST	SEGMENT
??_C@_0N@MMOLDNHK@ClearAllSlot@ DB 'ClearAllSlot', 00H	; `string'
CONST	ENDS
;	COMDAT ??_C@_09CGBENBJB@ClearSlot@
CONST	SEGMENT
??_C@_09CGBENBJB@ClearSlot@ DB 'ClearSlot', 00H		; `string'
CONST	ENDS
;	COMDAT ??_C@_0M@OFNEHKDL@ArrangeSlot@
CONST	SEGMENT
??_C@_0M@OFNEHKDL@ArrangeSlot@ DB 'ArrangeSlot', 00H	; `string'
CONST	ENDS
;	COMDAT ??_C@_0L@FDCINHBF@AppendSlot@
CONST	SEGMENT
??_C@_0L@FDCINHBF@AppendSlot@ DB 'AppendSlot', 00H	; `string'
CONST	ENDS
;	COMDAT ??_C@_0L@HJOBPCKA@UpdateRect@
CONST	SEGMENT
??_C@_0L@HJOBPCKA@UpdateRect@ DB 'UpdateRect', 00H	; `string'
CONST	ENDS
;	COMDAT ??_C@_0N@CCOOMDHD@SetLimitBias@
CONST	SEGMENT
??_C@_0N@CCOOMDHD@SetLimitBias@ DB 'SetLimitBias', 00H	; `string'
CONST	ENDS
;	COMDAT ??_C@_0L@HEPBODCJ@IsDragging@
CONST	SEGMENT
??_C@_0L@HEPBODCJ@IsDragging@ DB 'IsDragging', 00H	; `string'
CONST	ENDS
;	COMDAT ??_C@_0BB@MMLACOLH@GetMousePosition@
CONST	SEGMENT
??_C@_0BB@MMLACOLH@GetMousePosition@ DB 'GetMousePosition', 00H ; `string'
CONST	ENDS
;	COMDAT ??_C@_0BG@NHBHOLBI@GetMouseLocalPosition@
CONST	SEGMENT
??_C@_0BG@NHBHOLBI@GetMouseLocalPosition@ DB 'GetMouseLocalPosition', 00H ; `string'
CONST	ENDS
;	COMDAT ??_C@_04JBIBMNMO@IsIn@
CONST	SEGMENT
??_C@_04JBIBMNMO@IsIn@ DB 'IsIn', 00H			; `string'
CONST	ENDS
;	COMDAT ??_C@_0P@GEIEEBJH@IsPickedWindow@
CONST	SEGMENT
??_C@_0P@GEIEEBJH@IsPickedWindow@ DB 'IsPickedWindow', 00H ; `string'
CONST	ENDS
;	COMDAT ??_C@_0O@HMBCELHA@GetChildCount@
CONST	SEGMENT
??_C@_0O@HMBCELHA@GetChildCount@ DB 'GetChildCount', 00H ; `string'
CONST	ENDS
;	COMDAT ??_C@_0BH@KDPMNJIB@SetWindowVerticalAlign@
CONST	SEGMENT
??_C@_0BH@KDPMNJIB@SetWindowVerticalAlign@ DB 'SetWindowVerticalAlign', 00H ; `string'
CONST	ENDS
;	COMDAT ??_C@_0BJ@FGPBHCAH@SetWindowHorizontalAlign@
CONST	SEGMENT
??_C@_0BJ@FGPBHCAH@SetWindowHorizontalAlign@ DB 'SetWindowHorizontalAlign'
	DB	00H						; `string'
CONST	ENDS
;	COMDAT ??_C@_0O@KGOHEIMB@GetWindowRect@
CONST	SEGMENT
??_C@_0O@KGOHEIMB@GetWindowRect@ DB 'GetWindowRect', 00H ; `string'
CONST	ENDS
;	COMDAT ??_C@_0BI@NOJPNPDO@GetWindowGlobalPosition@
CONST	SEGMENT
??_C@_0BI@NOJPNPDO@GetWindowGlobalPosition@ DB 'GetWindowGlobalPosition', 00H ; `string'
CONST	ENDS
;	COMDAT ??_C@_0BH@KEOBHEHD@GetWindowLocalPosition@
CONST	SEGMENT
??_C@_0BH@KEOBHEHD@GetWindowLocalPosition@ DB 'GetWindowLocalPosition', 00H ; `string'
CONST	ENDS
;	COMDAT ??_C@_0BA@GMMDIMHA@GetWindowHeight@
CONST	SEGMENT
??_C@_0BA@GMMDIMHA@GetWindowHeight@ DB 'GetWindowHeight', 00H ; `string'
CONST	ENDS
;	COMDAT ??_C@_0P@EJALLAMK@GetWindowWidth@
CONST	SEGMENT
??_C@_0P@EJALLAMK@GetWindowWidth@ DB 'GetWindowWidth', 00H ; `string'
CONST	ENDS
;	COMDAT ??_C@_0BC@CONADAIE@SetWindowPosition@
CONST	SEGMENT
??_C@_0BC@CONADAIE@SetWindowPosition@ DB 'SetWindowPosition', 00H ; `string'
CONST	ENDS
;	COMDAT ??_C@_0O@OOGBNGFB@SetWindowSize@
CONST	SEGMENT
??_C@_0O@OOGBNGFB@SetWindowSize@ DB 'SetWindowSize', 00H ; `string'
CONST	ENDS
;	COMDAT ??_C@_06NCJPDCLH@Unlock@
CONST	SEGMENT
??_C@_06NCJPDCLH@Unlock@ DB 'Unlock', 00H		; `string'
CONST	ENDS
;	COMDAT ??_C@_04LADJNOK@Lock@
CONST	SEGMENT
??_C@_04LADJNOK@Lock@ DB 'Lock', 00H			; `string'
CONST	ENDS
;	COMDAT ??_C@_09PMGFBOMK@KillFocus@
CONST	SEGMENT
??_C@_09PMGFBOMK@KillFocus@ DB 'KillFocus', 00H		; `string'
CONST	ENDS
;	COMDAT ??_C@_08GPNNBNIL@SetFocus@
CONST	SEGMENT
??_C@_08GPNNBNIL@SetFocus@ DB 'SetFocus', 00H		; `string'
CONST	ENDS
;	COMDAT ??_C@_07MMFHOCGI@IsFocus@
CONST	SEGMENT
??_C@_07MMFHOCGI@IsFocus@ DB 'IsFocus', 00H		; `string'
CONST	ENDS
;	COMDAT ??_C@_0O@PGINCMBF@SetPickAlways@
CONST	SEGMENT
??_C@_0O@PGINCMBF@SetPickAlways@ DB 'SetPickAlways', 00H ; `string'
CONST	ENDS
;	COMDAT ??_C@_09BGDFCKEN@SetParent@
CONST	SEGMENT
??_C@_09BGDFCKEN@SetParent@ DB 'SetParent', 00H		; `string'
CONST	ENDS
;	COMDAT ??_C@_06JMGCGGJP@IsShow@
CONST	SEGMENT
??_C@_06JMGCGGJP@IsShow@ DB 'IsShow', 00H		; `string'
CONST	ENDS
;	COMDAT ??_C@_04EACEFPPN@Hide@
CONST	SEGMENT
??_C@_04EACEFPPN@Hide@ DB 'Hide', 00H			; `string'
CONST	ENDS
;	COMDAT ??_C@_04JLAJABDJ@Show@
CONST	SEGMENT
??_C@_04JLAJABDJ@Show@ DB 'Show', 00H			; `string'
CONST	ENDS
;	COMDAT ??_C@_06MBOGGFD@SetTop@
CONST	SEGMENT
??_C@_06MBOGGFD@SetTop@ DB 'SetTop', 00H		; `string'
CONST	ENDS
;	COMDAT ??_C@_07MMGEHGCI@GetName@
CONST	SEGMENT
??_C@_07MMGEHGCI@GetName@ DB 'GetName', 00H		; `string'
CONST	ENDS
;	COMDAT ??_C@_07DEJFEJPJ@SetName@
CONST	SEGMENT
??_C@_07DEJFEJPJ@SetName@ DB 'SetName', 00H		; `string'
CONST	ENDS
;	COMDAT ??_C@_0O@BCLGMDMJ@SetScrollable@
CONST	SEGMENT
??_C@_0O@BCLGMDMJ@SetScrollable@ DB 'SetScrollable', 00H ; `string'
CONST	ENDS
;	COMDAT ??_C@_05IOGFNOKL@IsRTL@
CONST	SEGMENT
??_C@_05IOGFNOKL@IsRTL@ DB 'IsRTL', 00H			; `string'
CONST	ENDS
;	COMDAT ??_C@_07FGJMHOHK@AddFlag@
CONST	SEGMENT
??_C@_07FGJMHOHK@AddFlag@ DB 'AddFlag', 00H		; `string'
CONST	ENDS
;	COMDAT ??_C@_07BDCAJABG@Destroy@
CONST	SEGMENT
??_C@_07BDCAJABG@Destroy@ DB 'Destroy', 00H		; `string'
CONST	ENDS
;	COMDAT ??_C@_0BD@DBAMBKME@RegisterNumberLine@
CONST	SEGMENT
??_C@_0BD@DBAMBKME@RegisterNumberLine@ DB 'RegisterNumberLine', 00H ; `string'
CONST	ENDS
;	COMDAT ??_C@_0O@EKKPECKF@RegisterBar3D@
CONST	SEGMENT
??_C@_0O@EKKPECKF@RegisterBar3D@ DB 'RegisterBar3D', 00H ; `string'
CONST	ENDS
;	COMDAT ??_C@_0N@ICAPFHKF@RegisterLine@
CONST	SEGMENT
??_C@_0N@ICAPFHKF@RegisterLine@ DB 'RegisterLine', 00H	; `string'
CONST	ENDS
;	COMDAT ??_C@_0M@DCMAIKFH@RegisterBar@
CONST	SEGMENT
??_C@_0M@DCMAIKFH@RegisterBar@ DB 'RegisterBar', 00H	; `string'
CONST	ENDS
;	COMDAT ??_C@_0M@MCLBEPNH@RegisterBox@
CONST	SEGMENT
??_C@_0M@MCLBEPNH@RegisterBox@ DB 'RegisterBox', 00H	; `string'
CONST	ENDS
;	COMDAT ??_C@_0BD@FJKAFMBK@RegisterDragButton@
CONST	SEGMENT
??_C@_0BD@FJKAFMBK@RegisterDragButton@ DB 'RegisterDragButton', 00H ; `string'
CONST	ENDS
;	COMDAT ??_C@_0BF@LKPDMOKE@RegisterToggleButton@
CONST	SEGMENT
??_C@_0BF@LKPDMOKE@RegisterToggleButton@ DB 'RegisterToggleButton', 00H ; `string'
CONST	ENDS
;	COMDAT ??_C@_0BE@LOKOGAFI@RegisterRadioButton@
CONST	SEGMENT
??_C@_0BE@LOKOGAFI@RegisterRadioButton@ DB 'RegisterRadioButton', 00H ; `string'
CONST	ENDS
;	COMDAT ??_C@_0P@HIFEMCKE@RegisterButton@
CONST	SEGMENT
??_C@_0P@HIFEMCKE@RegisterButton@ DB 'RegisterButton', 00H ; `string'
CONST	ENDS
;	COMDAT ??_C@_0BE@EHOJIJPF@RegisterAniImageBox@
CONST	SEGMENT
??_C@_0BE@EHOJIJPF@RegisterAniImageBox@ DB 'RegisterAniImageBox', 00H ; `string'
CONST	ENDS
;	COMDAT ??_C@_0BJ@HCLPCLBM@RegisterExpandedImageBox@
CONST	SEGMENT
??_C@_0BJ@HCLPCLBM@RegisterExpandedImageBox@ DB 'RegisterExpandedImageBox'
	DB	00H						; `string'
CONST	ENDS
;	COMDAT ??_C@_0BB@CGJHKCPO@RegisterImageBox@
CONST	SEGMENT
??_C@_0BB@CGJHKCPO@RegisterImageBox@ DB 'RegisterImageBox', 00H ; `string'
CONST	ENDS
;	COMDAT ??_C@_0BA@BLOHJECG@RegisterMarkBox@
CONST	SEGMENT
??_C@_0BA@BLOHJECG@RegisterMarkBox@ DB 'RegisterMarkBox', 00H ; `string'
CONST	ENDS
;	COMDAT ??_C@_0BB@JKLFNGCE@RegisterTextLine@
CONST	SEGMENT
??_C@_0BB@JKLFNGCE@RegisterTextLine@ DB 'RegisterTextLine', 00H ; `string'
CONST	ENDS
;	COMDAT ??_C@_0BH@HHDOCCCO@RegisterGridSlotWindow@
CONST	SEGMENT
??_C@_0BH@HHDOCCCO@RegisterGridSlotWindow@ DB 'RegisterGridSlotWindow', 00H ; `string'
CONST	ENDS
;	COMDAT ??_C@_0BD@HNEHNBHO@RegisterSlotWindow@
CONST	SEGMENT
??_C@_0BD@HNEHNBHO@RegisterSlotWindow@ DB 'RegisterSlotWindow', 00H ; `string'
CONST	ENDS
;	COMDAT ??_C@_08LFIJLPOM@Register@
CONST	SEGMENT
??_C@_08LFIJLPOM@Register@ DB 'Register', 00H		; `string'
CONST	ENDS
;	COMDAT ??_C@_0CB@JDNFNFMG@OnceIgnoreMouseLeftButtonUpEven@
CONST	SEGMENT
??_C@_0CB@JDNFNFMG@OnceIgnoreMouseLeftButtonUpEven@ DB 'OnceIgnoreMouseLe'
	DB	'ftButtonUpEvent', 00H			; `string'
CONST	ENDS
;	COMDAT ??_C@_0N@PCIKAOKG@GetHyperlink@
CONST	SEGMENT
??_C@_0N@PCIKAOKG@GetHyperlink@ DB 'GetHyperlink', 00H	; `string'
CONST	ENDS
;	COMDAT ??_C@_09MFNPPPAG@GetAspect@
CONST	SEGMENT
??_C@_09MFNPPPAG@GetAspect@ DB 'GetAspect', 00H		; `string'
CONST	ENDS
;	COMDAT ??_C@_0BB@OJBFCDNH@SetAttachingFlag@
CONST	SEGMENT
??_C@_0BB@OJBFCDNH@SetAttachingFlag@ DB 'SetAttachingFlag', 00H ; `string'
CONST	ENDS
;	COMDAT ??_C@_0N@HIMEHEBA@DeattachIcon@
CONST	SEGMENT
??_C@_0N@HIMEHEBA@DeattachIcon@ DB 'DeattachIcon', 00H	; `string'
CONST	ENDS
;	COMDAT ??_C@_0L@FHGOOMIM@AttachIcon@
CONST	SEGMENT
??_C@_0L@FHGOOMIM@AttachIcon@ DB 'AttachIcon', 00H	; `string'
CONST	ENDS
;	COMDAT ??_C@_0BA@PLLJJDCL@GetScreenHeight@
CONST	SEGMENT
??_C@_0BA@PLLJJDCL@GetScreenHeight@ DB 'GetScreenHeight', 00H ; `string'
CONST	ENDS
;	COMDAT ??_C@_0P@OBMNGDMB@GetScreenWidth@
CONST	SEGMENT
??_C@_0P@OBMNGDMB@GetScreenWidth@ DB 'GetScreenWidth', 00H ; `string'
CONST	ENDS
;	COMDAT ??_C@_0O@EPGNIIPM@SetScreenSize@
CONST	SEGMENT
??_C@_0O@EPGNIIPM@SetScreenSize@ DB 'SetScreenSize', 00H ; `string'
CONST	ENDS
;	COMDAT ??_C@_0BA@PPCHHCMN@SetMouseHandler@
CONST	SEGMENT
??_C@_0BA@PPCHHCMN@SetMouseHandler@ DB 'SetMouseHandler', 00H ; `string'
CONST	ENDS
;	COMDAT ?s_methods@?1??initwndMgr@@YAXXZ@4PAUPyMethodDef@@A
_DATA	SEGMENT
?s_methods@?1??initwndMgr@@YAXXZ@4PAUPyMethodDef@@A DD FLAT:??_C@_0BA@PPCHHCMN@SetMouseHandler@ ; `initwndMgr'::`2'::s_methods
	DD	FLAT:?wndMgrSetMouseHandler@@YAPAU_object@@PAU1@0@Z
	DD	01H
	ORG $+4
	DD	FLAT:??_C@_0O@EPGNIIPM@SetScreenSize@
	DD	FLAT:?wndMgrSetScreenSize@@YAPAU_object@@PAU1@0@Z
	DD	01H
	ORG $+4
	DD	FLAT:??_C@_0P@OBMNGDMB@GetScreenWidth@
	DD	FLAT:?wndMgrGetScreenWidth@@YAPAU_object@@PAU1@0@Z
	DD	01H
	ORG $+4
	DD	FLAT:??_C@_0BA@PLLJJDCL@GetScreenHeight@
	DD	FLAT:?wndMgrGetScreenHeight@@YAPAU_object@@PAU1@0@Z
	DD	01H
	ORG $+4
	DD	FLAT:??_C@_0L@FHGOOMIM@AttachIcon@
	DD	FLAT:?wndMgrAttachIcon@@YAPAU_object@@PAU1@0@Z
	DD	01H
	ORG $+4
	DD	FLAT:??_C@_0N@HIMEHEBA@DeattachIcon@
	DD	FLAT:?wndMgrDeattachIcon@@YAPAU_object@@PAU1@0@Z
	DD	01H
	ORG $+4
	DD	FLAT:??_C@_0BB@OJBFCDNH@SetAttachingFlag@
	DD	FLAT:?wndMgrSetAttachingFlag@@YAPAU_object@@PAU1@0@Z
	DD	01H
	ORG $+4
	DD	FLAT:??_C@_09MFNPPPAG@GetAspect@
	DD	FLAT:?wndMgrGetAspect@@YAPAU_object@@PAU1@0@Z
	DD	01H
	ORG $+4
	DD	FLAT:??_C@_0N@PCIKAOKG@GetHyperlink@
	DD	FLAT:?wndMgrGetHyperlink@@YAPAU_object@@PAU1@0@Z
	DD	01H
	ORG $+4
	DD	FLAT:??_C@_0CB@JDNFNFMG@OnceIgnoreMouseLeftButtonUpEven@
	DD	FLAT:?wndMgrOnceIgnoreMouseLeftButtonUpEvent@@YAPAU_object@@PAU1@0@Z
	DD	01H
	ORG $+4
	DD	FLAT:??_C@_08LFIJLPOM@Register@
	DD	FLAT:?wndMgrRegister@@YAPAU_object@@PAU1@0@Z
	DD	01H
	ORG $+4
	DD	FLAT:??_C@_0BD@HNEHNBHO@RegisterSlotWindow@
	DD	FLAT:?wndMgrRegisterSlotWindow@@YAPAU_object@@PAU1@0@Z
	DD	01H
	ORG $+4
	DD	FLAT:??_C@_0BH@HHDOCCCO@RegisterGridSlotWindow@
	DD	FLAT:?wndMgrRegisterGridSlotWindow@@YAPAU_object@@PAU1@0@Z
	DD	01H
	ORG $+4
	DD	FLAT:??_C@_0BB@JKLFNGCE@RegisterTextLine@
	DD	FLAT:?wndMgrRegisterTextLine@@YAPAU_object@@PAU1@0@Z
	DD	01H
	ORG $+4
	DD	FLAT:??_C@_0BA@BLOHJECG@RegisterMarkBox@
	DD	FLAT:?wndMgrRegisterMarkBox@@YAPAU_object@@PAU1@0@Z
	DD	01H
	ORG $+4
	DD	FLAT:??_C@_0BB@CGJHKCPO@RegisterImageBox@
	DD	FLAT:?wndMgrRegisterImageBox@@YAPAU_object@@PAU1@0@Z
	DD	01H
	ORG $+4
	DD	FLAT:??_C@_0BJ@HCLPCLBM@RegisterExpandedImageBox@
	DD	FLAT:?wndMgrRegisterExpandedImageBox@@YAPAU_object@@PAU1@0@Z
	DD	01H
	ORG $+4
	DD	FLAT:??_C@_0BE@EHOJIJPF@RegisterAniImageBox@
	DD	FLAT:?wndMgrRegisterAniImageBox@@YAPAU_object@@PAU1@0@Z
	DD	01H
	ORG $+4
	DD	FLAT:??_C@_0P@HIFEMCKE@RegisterButton@
	DD	FLAT:?wndMgrRegisterButton@@YAPAU_object@@PAU1@0@Z
	DD	01H
	ORG $+4
	DD	FLAT:??_C@_0BE@LOKOGAFI@RegisterRadioButton@
	DD	FLAT:?wndMgrRegisterRadioButton@@YAPAU_object@@PAU1@0@Z
	DD	01H
	ORG $+4
	DD	FLAT:??_C@_0BF@LKPDMOKE@RegisterToggleButton@
	DD	FLAT:?wndMgrRegisterToggleButton@@YAPAU_object@@PAU1@0@Z
	DD	01H
	ORG $+4
	DD	FLAT:??_C@_0BD@FJKAFMBK@RegisterDragButton@
	DD	FLAT:?wndMgrRegisterDragButton@@YAPAU_object@@PAU1@0@Z
	DD	01H
	ORG $+4
	DD	FLAT:??_C@_0M@MCLBEPNH@RegisterBox@
	DD	FLAT:?wndMgrRegisterBox@@YAPAU_object@@PAU1@0@Z
	DD	01H
	ORG $+4
	DD	FLAT:??_C@_0M@DCMAIKFH@RegisterBar@
	DD	FLAT:?wndMgrRegisterBar@@YAPAU_object@@PAU1@0@Z
	DD	01H
	ORG $+4
	DD	FLAT:??_C@_0N@ICAPFHKF@RegisterLine@
	DD	FLAT:?wndMgrRegisterLine@@YAPAU_object@@PAU1@0@Z
	DD	01H
	ORG $+4
	DD	FLAT:??_C@_0O@EKKPECKF@RegisterBar3D@
	DD	FLAT:?wndMgrRegisterBar3D@@YAPAU_object@@PAU1@0@Z
	DD	01H
	ORG $+4
	DD	FLAT:??_C@_0BD@DBAMBKME@RegisterNumberLine@
	DD	FLAT:?wndMgrRegisterNumberLine@@YAPAU_object@@PAU1@0@Z
	DD	01H
	ORG $+4
	DD	FLAT:??_C@_07BDCAJABG@Destroy@
	DD	FLAT:?wndMgrDestroy@@YAPAU_object@@PAU1@0@Z
	DD	01H
	ORG $+4
	DD	FLAT:??_C@_07FGJMHOHK@AddFlag@
	DD	FLAT:?wndMgrAddFlag@@YAPAU_object@@PAU1@0@Z
	DD	01H
	ORG $+4
	DD	FLAT:??_C@_05IOGFNOKL@IsRTL@
	DD	FLAT:?wndMgrIsRTL@@YAPAU_object@@PAU1@0@Z
	DD	01H
	ORG $+4
	DD	FLAT:??_C@_0O@BCLGMDMJ@SetScrollable@
	DD	FLAT:?wndMgrSetScrollable@@YAPAU_object@@PAU1@0@Z
	DD	01H
	ORG $+4
	DD	FLAT:??_C@_07DEJFEJPJ@SetName@
	DD	FLAT:?wndMgrSetName@@YAPAU_object@@PAU1@0@Z
	DD	01H
	ORG $+4
	DD	FLAT:??_C@_07MMGEHGCI@GetName@
	DD	FLAT:?wndMgrGetName@@YAPAU_object@@PAU1@0@Z
	DD	01H
	ORG $+4
	DD	FLAT:??_C@_06MBOGGFD@SetTop@
	DD	FLAT:?wndMgrSetTop@@YAPAU_object@@PAU1@0@Z
	DD	01H
	ORG $+4
	DD	FLAT:??_C@_04JLAJABDJ@Show@
	DD	FLAT:?wndMgrShow@@YAPAU_object@@PAU1@0@Z
	DD	01H
	ORG $+4
	DD	FLAT:??_C@_04EACEFPPN@Hide@
	DD	FLAT:?wndMgrHide@@YAPAU_object@@PAU1@0@Z
	DD	01H
	ORG $+4
	DD	FLAT:??_C@_06JMGCGGJP@IsShow@
	DD	FLAT:?wndMgrIsShow@@YAPAU_object@@PAU1@0@Z
	DD	01H
	ORG $+4
	DD	FLAT:??_C@_09BGDFCKEN@SetParent@
	DD	FLAT:?wndMgrSetParent@@YAPAU_object@@PAU1@0@Z
	DD	01H
	ORG $+4
	DD	FLAT:??_C@_0O@PGINCMBF@SetPickAlways@
	DD	FLAT:?wndMgrSetPickAlways@@YAPAU_object@@PAU1@0@Z
	DD	01H
	ORG $+4
	DD	FLAT:??_C@_07MMFHOCGI@IsFocus@
	DD	FLAT:?wndMgrIsFocus@@YAPAU_object@@PAU1@0@Z
	DD	01H
	ORG $+4
	DD	FLAT:??_C@_08GPNNBNIL@SetFocus@
	DD	FLAT:?wndMgrSetFocus@@YAPAU_object@@PAU1@0@Z
	DD	01H
	ORG $+4
	DD	FLAT:??_C@_09PMGFBOMK@KillFocus@
	DD	FLAT:?wndMgrKillFocus@@YAPAU_object@@PAU1@0@Z
	DD	01H
	ORG $+4
	DD	FLAT:??_C@_04LADJNOK@Lock@
	DD	FLAT:?wndMgrLock@@YAPAU_object@@PAU1@0@Z
	DD	01H
	ORG $+4
	DD	FLAT:??_C@_06NCJPDCLH@Unlock@
	DD	FLAT:?wndMgrUnlock@@YAPAU_object@@PAU1@0@Z
	DD	01H
	ORG $+4
	DD	FLAT:??_C@_0O@OOGBNGFB@SetWindowSize@
	DD	FLAT:?wndMgrSetWndSize@@YAPAU_object@@PAU1@0@Z
	DD	01H
	ORG $+4
	DD	FLAT:??_C@_0BC@CONADAIE@SetWindowPosition@
	DD	FLAT:?wndMgrSetWndPosition@@YAPAU_object@@PAU1@0@Z
	DD	01H
	ORG $+4
	DD	FLAT:??_C@_0P@EJALLAMK@GetWindowWidth@
	DD	FLAT:?wndMgrGetWndWidth@@YAPAU_object@@PAU1@0@Z
	DD	01H
	ORG $+4
	DD	FLAT:??_C@_0BA@GMMDIMHA@GetWindowHeight@
	DD	FLAT:?wndMgrGetWndHeight@@YAPAU_object@@PAU1@0@Z
	DD	01H
	ORG $+4
	DD	FLAT:??_C@_0BH@KEOBHEHD@GetWindowLocalPosition@
	DD	FLAT:?wndMgrGetWndLocalPosition@@YAPAU_object@@PAU1@0@Z
	DD	01H
	ORG $+4
	DD	FLAT:??_C@_0BI@NOJPNPDO@GetWindowGlobalPosition@
	DD	FLAT:?wndMgrGetWndGlobalPosition@@YAPAU_object@@PAU1@0@Z
	DD	01H
	ORG $+4
	DD	FLAT:??_C@_0O@KGOHEIMB@GetWindowRect@
	DD	FLAT:?wndMgrGetWindowRect@@YAPAU_object@@PAU1@0@Z
	DD	01H
	ORG $+4
	DD	FLAT:??_C@_0BJ@FGPBHCAH@SetWindowHorizontalAlign@
	DD	FLAT:?wndMgrSetWindowHorizontalAlign@@YAPAU_object@@PAU1@0@Z
	DD	01H
	ORG $+4
	DD	FLAT:??_C@_0BH@KDPMNJIB@SetWindowVerticalAlign@
	DD	FLAT:?wndMgrSetWindowVerticalAlign@@YAPAU_object@@PAU1@0@Z
	DD	01H
	ORG $+4
	DD	FLAT:??_C@_0O@HMBCELHA@GetChildCount@
	DD	FLAT:?wndMgrGetChildCount@@YAPAU_object@@PAU1@0@Z
	DD	01H
	ORG $+4
	DD	FLAT:??_C@_0P@GEIEEBJH@IsPickedWindow@
	DD	FLAT:?wndMgrIsPickedWindow@@YAPAU_object@@PAU1@0@Z
	DD	01H
	ORG $+4
	DD	FLAT:??_C@_04JBIBMNMO@IsIn@
	DD	FLAT:?wndMgrIsIn@@YAPAU_object@@PAU1@0@Z
	DD	01H
	ORG $+4
	DD	FLAT:??_C@_0BG@NHBHOLBI@GetMouseLocalPosition@
	DD	FLAT:?wndMgrGetMouseLocalPosition@@YAPAU_object@@PAU1@0@Z
	DD	01H
	ORG $+4
	DD	FLAT:??_C@_0BB@MMLACOLH@GetMousePosition@
	DD	FLAT:?wndMgrGetMousePosition@@YAPAU_object@@PAU1@0@Z
	DD	01H
	ORG $+4
	DD	FLAT:??_C@_0L@HEPBODCJ@IsDragging@
	DD	FLAT:?wndMgrIsDragging@@YAPAU_object@@PAU1@0@Z
	DD	01H
	ORG $+4
	DD	FLAT:??_C@_0N@CCOOMDHD@SetLimitBias@
	DD	FLAT:?wndMgrSetLimitBias@@YAPAU_object@@PAU1@0@Z
	DD	01H
	ORG $+4
	DD	FLAT:??_C@_0L@HJOBPCKA@UpdateRect@
	DD	FLAT:?wndMgrUpdateRect@@YAPAU_object@@PAU1@0@Z
	DD	01H
	ORG $+4
	DD	FLAT:??_C@_0L@FDCINHBF@AppendSlot@
	DD	FLAT:?wndMgrAppendSlot@@YAPAU_object@@PAU1@0@Z
	DD	01H
	ORG $+4
	DD	FLAT:??_C@_0M@OFNEHKDL@ArrangeSlot@
	DD	FLAT:?wndMgrArrangeSlot@@YAPAU_object@@PAU1@0@Z
	DD	01H
	ORG $+4
	DD	FLAT:??_C@_09CGBENBJB@ClearSlot@
	DD	FLAT:?wndMgrClearSlot@@YAPAU_object@@PAU1@0@Z
	DD	01H
	ORG $+4
	DD	FLAT:??_C@_0N@MMOLDNHK@ClearAllSlot@
	DD	FLAT:?wndMgrClearAllSlot@@YAPAU_object@@PAU1@0@Z
	DD	01H
	ORG $+4
	DD	FLAT:??_C@_07MGEJAMLP@HasSlot@
	DD	FLAT:?wndMgrHasSlot@@YAPAU_object@@PAU1@0@Z
	DD	01H
	ORG $+4
	DD	FLAT:??_C@_07ONCDFGJ@SetSlot@
	DD	FLAT:?wndMgrSetSlot@@YAPAU_object@@PAU1@0@Z
	DD	01H
	ORG $+4
	DD	FLAT:??_C@_0N@IEAMEDFH@SetSlotCount@
	DD	FLAT:?wndMgrSetSlotCount@@YAPAU_object@@PAU1@0@Z
	DD	01H
	ORG $+4
	DD	FLAT:??_C@_0BA@OOLIKBKI@SetSlotCountNew@
	DD	FLAT:?wndMgrSetSlotCountNew@@YAPAU_object@@PAU1@0@Z
	DD	01H
	ORG $+4
	DD	FLAT:??_C@_0BA@OKBNFKML@SetSlotCoolTime@
	DD	FLAT:?wndMgrSetSlotCoolTime@@YAPAU_object@@PAU1@0@Z
	DD	01H
	ORG $+4
	DD	FLAT:??_C@_0O@FJKNHKBL@SetToggleSlot@
	DD	FLAT:?wndMgrSetToggleSlot@@YAPAU_object@@PAU1@0@Z
	DD	01H
	ORG $+4
	DD	FLAT:??_C@_0N@HFCIPMIE@ActivateSlot@
	DD	FLAT:?wndMgrActivateSlot@@YAPAU_object@@PAU1@0@Z
	DD	01H
	ORG $+4
	DD	FLAT:??_C@_0P@FGAIANEO@DeactivateSlot@
	DD	FLAT:?wndMgrDeactivateSlot@@YAPAU_object@@PAU1@0@Z
	DD	01H
	ORG $+4
	DD	FLAT:??_C@_0L@DHCLIIGL@EnableSlot@
	DD	FLAT:?wndMgrEnableSlot@@YAPAU_object@@PAU1@0@Z
	DD	01H
	ORG $+4
	DD	FLAT:??_C@_0M@EKMKGECP@DisableSlot@
	DD	FLAT:?wndMgrDisableSlot@@YAPAU_object@@PAU1@0@Z
	DD	01H
	ORG $+4
	DD	FLAT:??_C@_0BC@DHCKDEOK@ShowSlotBaseImage@
	DD	FLAT:?wndMgrShowSlotBaseImage@@YAPAU_object@@PAU1@0@Z
	DD	01H
	ORG $+4
	DD	FLAT:??_C@_0BC@NFMHNFLM@HideSlotBaseImage@
	DD	FLAT:?wndMgrHideSlotBaseImage@@YAPAU_object@@PAU1@0@Z
	DD	01H
	ORG $+4
	DD	FLAT:??_C@_0M@KHOHGEMH@SetSlotType@
	DD	FLAT:?wndMgrSetSlotType@@YAPAU_object@@PAU1@0@Z
	DD	01H
	ORG $+4
	DD	FLAT:??_C@_0N@IKGBKPJJ@SetSlotStyle@
	DD	FLAT:?wndMgrSetSlotStyle@@YAPAU_object@@PAU1@0@Z
	DD	01H
	ORG $+4
	DD	FLAT:??_C@_0BB@IOMAJEMI@SetSlotBaseImage@
	DD	FLAT:?wndMgrSetSlotBaseImage@@YAPAU_object@@PAU1@0@Z
	DD	01H
	ORG $+4
	DD	FLAT:??_C@_0P@JKHNGGPA@SetCoverButton@
	DD	FLAT:?wndMgrSetCoverButton@@YAPAU_object@@PAU1@0@Z
	DD	01H
	ORG $+4
	DD	FLAT:??_C@_0BC@GDLBPCHF@EnableCoverButton@
	DD	FLAT:?wndMgrEnableCoverButton@@YAPAU_object@@PAU1@0@Z
	DD	01H
	ORG $+4
	DD	FLAT:??_C@_0BD@DOJCOOMI@DisableCoverButton@
	DD	FLAT:?wndMgrDisableCoverButton@@YAPAU_object@@PAU1@0@Z
	DD	01H
	ORG $+4
	DD	FLAT:??_C@_0BF@ILDMDDMH@IsDisableCoverButton@
	DD	FLAT:?wndMgrIsDisableCoverButton@@YAPAU_object@@PAU1@0@Z
	DD	01H
	ORG $+4
	DD	FLAT:??_C@_0BL@PAFAGEGB@SetAlwaysRenderCoverButton@
	DD	FLAT:?wndMgrSetAlwaysRenderCoverButton@@YAPAU_object@@PAU1@0@Z
	DD	01H
	ORG $+4
	DD	FLAT:??_C@_0BB@LLDDGEIL@AppendSlotButton@
	DD	FLAT:?wndMgrAppendSlotButton@@YAPAU_object@@PAU1@0@Z
	DD	01H
	ORG $+4
	DD	FLAT:??_C@_0BL@CCGBCIBD@AppendRequirementSignImage@
	DD	FLAT:?wndMgrAppendRequirementSignImage@@YAPAU_object@@PAU1@0@Z
	DD	01H
	ORG $+4
	DD	FLAT:??_C@_0P@CINLEJEK@ShowSlotButton@
	DD	FLAT:?wndMgrShowSlotButton@@YAPAU_object@@PAU1@0@Z
	DD	01H
	ORG $+4
	DD	FLAT:??_C@_0BC@IHMDJONI@HideAllSlotButton@
	DD	FLAT:?wndMgrHideAllSlotButton@@YAPAU_object@@PAU1@0@Z
	DD	01H
	ORG $+4
	DD	FLAT:??_C@_0BE@IGOEKEDL@ShowRequirementSign@
	DD	FLAT:?wndMgrShowRequirementSign@@YAPAU_object@@PAU1@0@Z
	DD	01H
	ORG $+4
	DD	FLAT:??_C@_0BE@LNAIGOOK@HideRequirementSign@
	DD	FLAT:?wndMgrHideRequirementSign@@YAPAU_object@@PAU1@0@Z
	DD	01H
	ORG $+4
	DD	FLAT:??_C@_0M@NAPCHMAM@RefreshSlot@
	DD	FLAT:?wndMgrRefreshSlot@@YAPAU_object@@PAU1@0@Z
	DD	01H
	ORG $+4
	DD	FLAT:??_C@_0L@ODKIIGJF@SetUseMode@
	DD	FLAT:?wndMgrSetUseMode@@YAPAU_object@@PAU1@0@Z
	DD	01H
	ORG $+4
	DD	FLAT:??_C@_0O@LHCBGPMO@SetUsableItem@
	DD	FLAT:?wndMgrSetUsableItem@@YAPAU_object@@PAU1@0@Z
	DD	01H
	ORG $+4
	DD	FLAT:??_C@_0L@EMMADCIN@SelectSlot@
	DD	FLAT:?wndMgrSelectSlot@@YAPAU_object@@PAU1@0@Z
	DD	01H
	ORG $+4
	DD	FLAT:??_C@_0O@OGHLMGNI@ClearSelected@
	DD	FLAT:?wndMgrClearSelected@@YAPAU_object@@PAU1@0@Z
	DD	01H
	ORG $+4
	DD	FLAT:??_C@_0BF@EECMELAK@GetSelectedSlotCount@
	DD	FLAT:?wndMgrGetSelectedSlotCount@@YAPAU_object@@PAU1@0@Z
	DD	01H
	ORG $+4
	DD	FLAT:??_C@_0BG@DJKADEKA@GetSelectedSlotNumber@
	DD	FLAT:?wndMgrGetSelectedSlotNumber@@YAPAU_object@@PAU1@0@Z
	DD	01H
	ORG $+4
	DD	FLAT:??_C@_0P@GKJOEMLC@IsSelectedSlot@
	DD	FLAT:?wndMgrIsSelectedSlot@@YAPAU_object@@PAU1@0@Z
	DD	01H
	ORG $+4
	DD	FLAT:??_C@_0N@PALCIPBL@GetSlotCount@
	DD	FLAT:?wndMgrGetSlotCount@@YAPAU_object@@PAU1@0@Z
	DD	01H
	ORG $+4
	DD	FLAT:??_C@_08PGGNMNPL@LockSlot@
	DD	FLAT:?wndMgrLockSlot@@YAPAU_object@@PAU1@0@Z
	DD	01H
	ORG $+4
	DD	FLAT:??_C@_0L@DPNFKPLP@UnlockSlot@
	DD	FLAT:?wndMgrUnlockSlot@@YAPAU_object@@PAU1@0@Z
	DD	01H
	ORG $+4
	DD	FLAT:??_C@_08GPNJILIJ@SetColor@
	DD	FLAT:?wndBarSetColor@@YAPAU_object@@PAU1@0@Z
	DD	01H
	ORG $+4
	DD	FLAT:??_C@_06ODEINJEE@SetMax@
	DD	FLAT:?wndTextSetMax@@YAPAU_object@@PAU1@0@Z
	DD	01H
	ORG $+4
	DD	FLAT:??_C@_0BD@FCLDCEMA@SetHorizontalAlign@
	DD	FLAT:?wndTextSetHorizontalAlign@@YAPAU_object@@PAU1@0@Z
	DD	01H
	ORG $+4
	DD	FLAT:??_C@_0BB@NKHPOFIC@SetVerticalAlign@
	DD	FLAT:?wndTextSetVerticalAlign@@YAPAU_object@@PAU1@0@Z
	DD	01H
	ORG $+4
	DD	FLAT:??_C@_09CAFHEMDD@SetSecret@
	DD	FLAT:?wndTextSetSecret@@YAPAU_object@@PAU1@0@Z
	DD	01H
	ORG $+4
	DD	FLAT:??_C@_0L@HBNEJDMM@SetOutline@
	DD	FLAT:?wndTextSetOutline@@YAPAU_object@@PAU1@0@Z
	DD	01H
	ORG $+4
	DD	FLAT:??_C@_0L@LLKEFHFA@SetFeather@
	DD	FLAT:?wndTextSetFeather@@YAPAU_object@@PAU1@0@Z
	DD	01H
	ORG $+4
	DD	FLAT:??_C@_0N@FKMHLJHG@SetMultiLine@
	DD	FLAT:?wndTextSetMultiLine@@YAPAU_object@@PAU1@0@Z
	DD	01H
	ORG $+4
	DD	FLAT:??_C@_07NIJDBDAG@SetText@
	DD	FLAT:?wndTextSetText@@YAPAU_object@@PAU1@0@Z
	DD	01H
	ORG $+4
	DD	FLAT:??_C@_0M@MCELKPNO@SetFontName@
	DD	FLAT:?wndTextSetFontName@@YAPAU_object@@PAU1@0@Z
	DD	01H
	ORG $+4
	DD	FLAT:??_C@_0N@MKCFOAAE@SetFontColor@
	DD	FLAT:?wndTextSetFontColor@@YAPAU_object@@PAU1@0@Z
	DD	01H
	ORG $+4
	DD	FLAT:??_C@_0O@FIAFKHF@SetLimitWidth@
	DD	FLAT:?wndTextSetLimitWidth@@YAPAU_object@@PAU1@0@Z
	DD	01H
	ORG $+4
	DD	FLAT:??_C@_07CAGCCMNH@GetText@
	DD	FLAT:?wndTextGetText@@YAPAU_object@@PAU1@0@Z
	DD	01H
	ORG $+4
	DD	FLAT:??_C@_0M@JOAAGILP@GetTextSize@
	DD	FLAT:?wndTextGetTextSize@@YAPAU_object@@PAU1@0@Z
	DD	01H
	ORG $+4
	DD	FLAT:??_C@_0L@BIENLPGM@ShowCursor@
	DD	FLAT:?wndTextShowCursor@@YAPAU_object@@PAU1@0@Z
	DD	01H
	ORG $+4
	DD	FLAT:??_C@_0L@MGJDDPFG@HideCursor@
	DD	FLAT:?wndTextHideCursor@@YAPAU_object@@PAU1@0@Z
	DD	01H
	ORG $+4
	DD	FLAT:??_C@_0BC@DJJGDMOB@GetCursorPosition@
	DD	FLAT:?wndTextGetCursorPosition@@YAPAU_object@@PAU1@0@Z
	DD	01H
	ORG $+4
	DD	FLAT:??_C@_09JMPLPNNO@SetNumber@
	DD	FLAT:?wndNumberSetNumber@@YAPAU_object@@PAU1@0@Z
	DD	01H
	ORG $+4
	DD	FLAT:??_C@_0BP@JHALFFJF@SetNumberHorizontalAlignCenter@
	DD	FLAT:?wndNumberSetNumberHorizontalAlignCenter@@YAPAU_object@@PAU1@0@Z
	DD	01H
	ORG $+4
	DD	FLAT:??_C@_0BO@FBBAAHKK@SetNumberHorizontalAlignRight@
	DD	FLAT:?wndNumberSetNumberHorizontalAlignRight@@YAPAU_object@@PAU1@0@Z
	DD	01H
	ORG $+4
	DD	FLAT:??_C@_07ENBMIGKI@SetPath@
	DD	FLAT:?wndNumberSetPath@@YAPAU_object@@PAU1@0@Z
	DD	01H
	ORG $+4
	DD	FLAT:??_C@_0BB@FMJJKPIM@MarkBox_SetImage@
	DD	FLAT:?wndMarkBox_SetImage@@YAPAU_object@@PAU1@0@Z
	DD	01H
	ORG $+4
	DD	FLAT:??_C@_0BJ@PJODLBON@MarkBox_SetImageFilename@
	DD	FLAT:?wndMarkBox_SetImageFilename@@YAPAU_object@@PAU1@0@Z
	DD	01H
	ORG $+4
	DD	FLAT:??_C@_0N@FLKGJMCL@MarkBox_Load@
	DD	FLAT:?wndMarkBox_Load@@YAPAU_object@@PAU1@0@Z
	DD	01H
	ORG $+4
	DD	FLAT:??_C@_0BB@NAAPJNBM@MarkBox_SetIndex@
	DD	FLAT:?wndMarkBox_SetIndex@@YAPAU_object@@PAU1@0@Z
	DD	01H
	ORG $+4
	DD	FLAT:??_C@_0BB@ENLBNPPB@MarkBox_SetScale@
	DD	FLAT:?wndMarkBox_SetScale@@YAPAU_object@@PAU1@0@Z
	DD	01H
	ORG $+4
	DD	FLAT:??_C@_0BI@JCKPADLG@MarkBox_SetDiffuseColor@
	DD	FLAT:?wndMarkBox_SetDiffuseColor@@YAPAU_object@@PAU1@0@Z
	DD	01H
	ORG $+4
	DD	FLAT:??_C@_09OHOMMMHI@LoadImage@
	DD	FLAT:?wndImageLoadImage@@YAPAU_object@@PAU1@0@Z
	DD	01H
	ORG $+4
	DD	FLAT:??_C@_0BA@CAEBLOMF@SetDiffuseColor@
	DD	FLAT:?wndImageSetDiffuseColor@@YAPAU_object@@PAU1@0@Z
	DD	01H
	ORG $+4
	DD	FLAT:??_C@_08OMBILDHM@GetWidth@
	DD	FLAT:?wndImageGetWidth@@YAPAU_object@@PAU1@0@Z
	DD	01H
	ORG $+4
	DD	FLAT:??_C@_09EOGEIJMK@GetHeight@
	DD	FLAT:?wndImageGetHeight@@YAPAU_object@@PAU1@0@Z
	DD	01H
	ORG $+4
	DD	FLAT:??_C@_08FMFAIGAB@SetScale@
	DD	FLAT:?wndImageSetScale@@YAPAU_object@@PAU1@0@Z
	DD	01H
	ORG $+4
	DD	FLAT:??_C@_09KLKDEBJ@SetOrigin@
	DD	FLAT:?wndImageSetOrigin@@YAPAU_object@@PAU1@0@Z
	DD	01H
	ORG $+4
	DD	FLAT:??_C@_0M@GNIHGJGG@SetRotation@
	DD	FLAT:?wndImageSetRotation@@YAPAU_object@@PAU1@0@Z
	DD	01H
	ORG $+4
	DD	FLAT:??_C@_0BB@LDNMLPHM@SetRenderingRect@
	DD	FLAT:?wndImageSetRenderingRect@@YAPAU_object@@PAU1@0@Z
	DD	01H
	ORG $+4
	DD	FLAT:??_C@_0BB@GIEHGKNO@SetRenderingMode@
	DD	FLAT:?wndImageSetRenderingMode@@YAPAU_object@@PAU1@0@Z
	DD	01H
	ORG $+4
	DD	FLAT:??_C@_08NBAGFHFB@SetDelay@
	DD	FLAT:?wndImageSetDelay@@YAPAU_object@@PAU1@0@Z
	DD	01H
	ORG $+4
	DD	FLAT:??_C@_0M@BEJGDBIJ@AppendImage@
	DD	FLAT:?wndImageAppendImage@@YAPAU_object@@PAU1@0@Z
	DD	01H
	ORG $+4
	DD	FLAT:??_C@_0M@IIELPGEP@SetUpVisual@
	DD	FLAT:?wndButtonSetUpVisual@@YAPAU_object@@PAU1@0@Z
	DD	01H
	ORG $+4
	DD	FLAT:??_C@_0O@KOIDMFK@SetOverVisual@
	DD	FLAT:?wndButtonSetOverVisual@@YAPAU_object@@PAU1@0@Z
	DD	01H
	ORG $+4
	DD	FLAT:??_C@_0O@FLFAFPKP@SetDownVisual@
	DD	FLAT:?wndButtonSetDownVisual@@YAPAU_object@@PAU1@0@Z
	DD	01H
	ORG $+4
	DD	FLAT:??_C@_0BB@JCGDBIB@SetDisableVisual@
	DD	FLAT:?wndButtonSetDisableVisual@@YAPAU_object@@PAU1@0@Z
	DD	01H
	ORG $+4
	DD	FLAT:??_C@_0BE@PHOOFGJI@GetUpVisualFileName@
	DD	FLAT:?wndButtonGetUpVisualFileName@@YAPAU_object@@PAU1@0@Z
	DD	01H
	ORG $+4
	DD	FLAT:??_C@_0BG@KEALLAJN@GetOverVisualFileName@
	DD	FLAT:?wndButtonGetOverVisualFileName@@YAPAU_object@@PAU1@0@Z
	DD	01H
	ORG $+4
	DD	FLAT:??_C@_0BG@FKDEILKI@GetDownVisualFileName@
	DD	FLAT:?wndButtonGetDownVisualFileName@@YAPAU_object@@PAU1@0@Z
	DD	01H
	ORG $+4
	DD	FLAT:??_C@_05LDPHIKKB@Flash@
	DD	FLAT:?wndButtonFlash@@YAPAU_object@@PAU1@0@Z
	DD	01H
	ORG $+4
	DD	FLAT:??_C@_06CKGENIKG@Enable@
	DD	FLAT:?wndButtonEnable@@YAPAU_object@@PAU1@0@Z
	DD	01H
	ORG $+4
	DD	FLAT:??_C@_07MIKIFGAL@Disable@
	DD	FLAT:?wndButtonDisable@@YAPAU_object@@PAU1@0@Z
	DD	01H
	ORG $+4
	DD	FLAT:??_C@_04FNCLCJMC@Down@
	DD	FLAT:?wndButtonDown@@YAPAU_object@@PAU1@0@Z
	DD	01H
	ORG $+4
	DD	FLAT:??_C@_05DEOAHOFO@SetUp@
	DD	FLAT:?wndButtonSetUp@@YAPAU_object@@PAU1@0@Z
	DD	01H
	ORG $+4
	DD	FLAT:??_C@_06FKEAEOGE@IsDown@
	DD	FLAT:?wndButtonIsDown@@YAPAU_object@@PAU1@0@Z
	DD	01H
	ORG $+4
	DD	FLAT:??_C@_0BI@KNEJFEOH@SetRestrictMovementArea@
	DD	FLAT:?wndButtonSetRestrictMovementArea@@YAPAU_object@@PAU1@0@Z
	DD	01H
	ORG $+4
	DD	FLAT:??_C@_0P@MEHCKPID@SetOutlineFlag@
	DD	FLAT:?wndMgrSetOutlineFlag@@YAPAU_object@@PAU1@0@Z
	DD	01H
	ORG $+4
	DD	FLAT:??_C@_0BF@LFOINEDC@ShowOverInWindowName@
	DD	FLAT:?wndMgrShowOverInWindowName@@YAPAU_object@@PAU1@0@Z
	DD	01H
	ORG $+4
	DD	FLAT:??_C@_0BA@EABPFCGJ@IsActivatedSlot@
	DD	FLAT:?wndMgrIsActivatedSlot@@YAPAU_object@@PAU1@0@Z
	DD	01H
	ORG $+4
	DD	FLAT:??_C@_0BA@NIALCINC@GetSlotCoolTime@
	DD	FLAT:?wndMgrGetSlotCoolTime@@YAPAU_object@@PAU1@0@Z
	DD	01H
	ORG $+4
	DD	FLAT:??_C@_0P@KKAGIHMC@ActivateEffect@
	DD	FLAT:?wndMgrActivateEffect@@YAPAU_object@@PAU1@0@Z
	DD	01H
	ORG $+4
	DD	FLAT:??_C@_0BB@FBKJFJKM@DeactivateEffect@
	DD	FLAT:?wndMgrDeactivateEffect@@YAPAU_object@@PAU1@0@Z
	DD	01H
	ORG $+4
	DD	00H
	DD	00H
	DD	00H
	ORG $+4
_DATA	ENDS
;	COMDAT ??_C@_02HPEDFNFO@ff@
CONST	SEGMENT
??_C@_02HPEDFNFO@ff@ DB 'ff', 00H			; `string'
CONST	ENDS
;	COMDAT ??_C@_0CE@HBOEBFCG@Failed?5to?5load?5image?5?$CIfilename?3@
CONST	SEGMENT
??_C@_0CE@HBOEBFCG@Failed?5to?5load?5image?5?$CIfilename?3@ DB 'Failed to'
	DB	' load image (filename: %s)', 00H		; `string'
CONST	ENDS
;	COMDAT ??_C@_04INACLLOK@?$CIii?$CJ@
CONST	SEGMENT
??_C@_04INACLLOK@?$CIii?$CJ@ DB '(ii)', 00H		; `string'
CONST	ENDS
;	COMDAT ??_C@_0CH@HCFLPGH@wndMgr?4ArrangeSlot?5?3?5not?5a?5slot@
CONST	SEGMENT
??_C@_0CH@HCFLPGH@wndMgr?4ArrangeSlot?5?3?5not?5a?5slot@ DB 'wndMgr.Arran'
	DB	'geSlot : not a slot window', 00H		; `string'
CONST	ENDS
;	COMDAT ??_C@_0CH@FFGFLEBP@wndMgr?4ArrangeSlot?5?3?5not?5a?5grid@
CONST	SEGMENT
??_C@_0CH@FFGFLEBP@wndMgr?4ArrangeSlot?5?3?5not?5a?5grid@ DB 'wndMgr.Arra'
	DB	'ngeSlot : not a grid window', 00H		; `string'
CONST	ENDS
;	COMDAT ??_C@_0BH@KIGIHPAM@Unknown?5window?5flag?5?$CFs@
CONST	SEGMENT
??_C@_0BH@KIGIHPAM@Unknown?5window?5flag?5?$CFs@ DB 'Unknown window flag '
	DB	'%s', 00H					; `string'
CONST	ENDS
;	COMDAT ??_C@_03OBLKLDKA@ltr@
CONST	SEGMENT
??_C@_03OBLKLDKA@ltr@ DB 'ltr', 00H			; `string'
CONST	ENDS
;	COMDAT ??_C@_03IFDNKMND@rtl@
CONST	SEGMENT
??_C@_03IFDNKMND@rtl@ DB 'rtl', 00H			; `string'
CONST	ENDS
;	COMDAT ??_C@_0M@HHFJIJHL@ignore_size@
CONST	SEGMENT
??_C@_0M@HHFJIJHL@ignore_size@ DB 'ignore_size', 00H	; `string'
CONST	ENDS
;	COMDAT ??_C@_08BCAHNCDJ@not_pick@
CONST	SEGMENT
??_C@_08BCAHNCDJ@not_pick@ DB 'not_pick', 00H		; `string'
CONST	ENDS
;	COMDAT ??_C@_05KNFBNCOH@float@
CONST	SEGMENT
??_C@_05KNFBNCOH@float@ DB 'float', 00H			; `string'
CONST	ENDS
;	COMDAT ??_C@_0L@BDBCAEJL@restrict_y@
CONST	SEGMENT
??_C@_0L@BDBCAEJL@restrict_y@ DB 'restrict_y', 00H	; `string'
CONST	ENDS
;	COMDAT ??_C@_0L@KAJDFNK@restrict_x@
CONST	SEGMENT
??_C@_0L@KAJDFNK@restrict_x@ DB 'restrict_x', 00H	; `string'
CONST	ENDS
;	COMDAT ??_C@_06LHJMGKLI@attach@
CONST	SEGMENT
??_C@_06LHJMGKLI@attach@ DB 'attach', 00H		; `string'
CONST	ENDS
;	COMDAT ??_C@_08KCAGBJHE@dragable@
CONST	SEGMENT
??_C@_08KCAGBJHE@dragable@ DB 'dragable', 00H		; `string'
CONST	ENDS
;	COMDAT ??_C@_05GADAOHMC@limit@
CONST	SEGMENT
??_C@_05GADAOHMC@limit@ DB 'limit', 00H			; `string'
CONST	ENDS
;	COMDAT ??_C@_07BNIMILPP@movable@
CONST	SEGMENT
??_C@_07BNIMILPP@movable@ DB 'movable', 00H		; `string'
CONST	ENDS
;	COMDAT ??_C@_02OIKAIHIF@s?$CD@
CONST	SEGMENT
??_C@_02OIKAIHIF@s?$CD@ DB 's#', 00H			; `string'
CONST	ENDS
;	COMDAT ??_C@_04BIOIIFBG@iiii@
CONST	SEGMENT
??_C@_04BIOIIFBG@iiii@ DB 'iiii', 00H			; `string'
CONST	ENDS
;	COMDAT ??_C@_02PDIHAGKM@ii@
CONST	SEGMENT
??_C@_02PDIHAGKM@ii@ DB 'ii', 00H			; `string'
CONST	ENDS
;	COMDAT ??_C@_01LKDEMHDF@s@
CONST	SEGMENT
??_C@_01LKDEMHDF@s@ DB 's', 00H				; `string'
CONST	ENDS
;	COMDAT ??_C@_01KBJDNOO@i@
CONST	SEGMENT
??_C@_01KBJDNOO@i@ DB 'i', 00H				; `string'
CONST	ENDS
;	COMDAT ??_C@_01INIBCBCB@f@
CONST	SEGMENT
??_C@_01INIBCBCB@f@ DB 'f', 00H				; `string'
CONST	ENDS
; Function compile flags: /Ogtp
; File C:\DS Project\DS Files\Source\ClientSource\Client\eterPythonLib\PythonWindowManagerModule.cpp
;	COMDAT ?wndMgrDeactivateEffect@@YAPAU_object@@PAU1@0@Z
_TEXT	SEGMENT
_iSlotIndex$ = -8					; size = 4
_pWin$ = -4						; size = 4
_poSelf$ = 8						; size = 4
_poArgs$ = 12						; size = 4
?wndMgrDeactivateEffect@@YAPAU_object@@PAU1@0@Z PROC	; wndMgrDeactivateEffect, COMDAT

; 2385 : {

  00000	55		 push	 ebp
  00001	8b ec		 mov	 ebp, esp
  00003	83 ec 08	 sub	 esp, 8

; 2386 : 	UI::CWindow * pWin;
; 2387 : 	if (!PyTuple_GetWindow(poArgs, 0, &pWin))

  00006	8d 45 fc	 lea	 eax, DWORD PTR _pWin$[ebp]
  00009	56		 push	 esi
  0000a	8b 75 0c	 mov	 esi, DWORD PTR _poArgs$[ebp]
  0000d	50		 push	 eax
  0000e	6a 00		 push	 0
  00010	56		 push	 esi
  00011	e8 00 00 00 00	 call	 ?PyTuple_GetWindow@@YA_NPAU_object@@HPAPAVCWindow@UI@@@Z ; PyTuple_GetWindow
  00016	83 c4 0c	 add	 esp, 12			; 0000000cH
  00019	84 c0		 test	 al, al
  0001b	75 0f		 jne	 SHORT $LN2@wndMgrDeac
$LN6@wndMgrDeac:

; 2400 : }

  0001d	6a 00		 push	 0
  0001f	e8 00 00 00 00	 call	 ?Py_BuildException@@YAPAU_object@@PBDZZ ; Py_BuildException
  00024	83 c4 04	 add	 esp, 4
  00027	5e		 pop	 esi
  00028	8b e5		 mov	 esp, ebp
  0002a	5d		 pop	 ebp
  0002b	c3		 ret	 0
$LN2@wndMgrDeac:

; 2388 : 		return Py_BuildException();
; 2389 : 
; 2390 : 	int iSlotIndex;
; 2391 : 	if (!PyTuple_GetInteger(poArgs, 1, &iSlotIndex))

  0002c	8d 45 f8	 lea	 eax, DWORD PTR _iSlotIndex$[ebp]
  0002f	50		 push	 eax
  00030	6a 01		 push	 1
  00032	56		 push	 esi
  00033	e8 00 00 00 00	 call	 ?PyTuple_GetInteger@@YA_NPAU_object@@HPAH@Z ; PyTuple_GetInteger
  00038	83 c4 0c	 add	 esp, 12			; 0000000cH
  0003b	84 c0		 test	 al, al
  0003d	74 de		 je	 SHORT $LN6@wndMgrDeac

; 2392 : 		return Py_BuildException();
; 2393 : 
; 2394 : 	if (!pWin->IsType(UI::CSlotWindow::Type()))

  0003f	e8 00 00 00 00	 call	 ?Type@CSlotWindow@UI@@SAKXZ ; UI::CSlotWindow::Type
  00044	8b 75 fc	 mov	 esi, DWORD PTR _pWin$[ebp]
  00047	8b ce		 mov	 ecx, esi
  00049	50		 push	 eax
  0004a	e8 00 00 00 00	 call	 ?IsType@CWindow@UI@@QAEHK@Z ; UI::CWindow::IsType
  0004f	85 c0		 test	 eax, eax
  00051	74 ca		 je	 SHORT $LN6@wndMgrDeac

; 2395 : 		return Py_BuildException();
; 2396 : 
; 2397 : 	UI::CSlotWindow * pSlotWin = (UI::CSlotWindow *)pWin;
; 2398 : 	pSlotWin->DeactivateEffect(iSlotIndex);

  00053	ff 75 f8	 push	 DWORD PTR _iSlotIndex$[ebp]
  00056	8b ce		 mov	 ecx, esi
  00058	e8 00 00 00 00	 call	 ?DeactivateEffect@CSlotWindow@UI@@QAEXK@Z ; UI::CSlotWindow::DeactivateEffect

; 2399 : 	return Py_BuildNone();

  0005d	e8 00 00 00 00	 call	 ?Py_BuildNone@@YAPAU_object@@XZ ; Py_BuildNone
  00062	5e		 pop	 esi

; 2400 : }

  00063	8b e5		 mov	 esp, ebp
  00065	5d		 pop	 ebp
  00066	c3		 ret	 0
?wndMgrDeactivateEffect@@YAPAU_object@@PAU1@0@Z ENDP	; wndMgrDeactivateEffect
_TEXT	ENDS
; Function compile flags: /Ogtp
; File C:\DS Project\DS Files\Source\ClientSource\Client\eterPythonLib\PythonWindowManagerModule.cpp
;	COMDAT ?wndMgrActivateEffect@@YAPAU_object@@PAU1@0@Z
_TEXT	SEGMENT
_iSlotIndex$ = -24					; size = 4
_r$ = -20						; size = 4
_g$ = -16						; size = 4
_b$ = -12						; size = 4
_a$ = -8						; size = 4
_pWin$ = -4						; size = 4
_poSelf$ = 8						; size = 4
_poArgs$ = 12						; size = 4
?wndMgrActivateEffect@@YAPAU_object@@PAU1@0@Z PROC	; wndMgrActivateEffect, COMDAT

; 2354 : {

  00000	55		 push	 ebp
  00001	8b ec		 mov	 ebp, esp
  00003	83 ec 18	 sub	 esp, 24			; 00000018H

; 2355 : 	UI::CWindow * pWin;
; 2356 : 	if (!PyTuple_GetWindow(poArgs, 0, &pWin))

  00006	8d 45 fc	 lea	 eax, DWORD PTR _pWin$[ebp]
  00009	56		 push	 esi
  0000a	8b 75 0c	 mov	 esi, DWORD PTR _poArgs$[ebp]
  0000d	50		 push	 eax
  0000e	6a 00		 push	 0
  00010	56		 push	 esi
  00011	e8 00 00 00 00	 call	 ?PyTuple_GetWindow@@YA_NPAU_object@@HPAPAVCWindow@UI@@@Z ; PyTuple_GetWindow
  00016	83 c4 0c	 add	 esp, 12			; 0000000cH
  00019	84 c0		 test	 al, al
  0001b	75 0f		 jne	 SHORT $LN2@wndMgrActi
$LN10@wndMgrActi:

; 2382 : }

  0001d	6a 00		 push	 0
  0001f	e8 00 00 00 00	 call	 ?Py_BuildException@@YAPAU_object@@PBDZZ ; Py_BuildException
  00024	83 c4 04	 add	 esp, 4
  00027	5e		 pop	 esi
  00028	8b e5		 mov	 esp, ebp
  0002a	5d		 pop	 ebp
  0002b	c3		 ret	 0
$LN2@wndMgrActi:

; 2357 : 		return Py_BuildException();
; 2358 : 
; 2359 : 	int iSlotIndex;
; 2360 : 	if (!PyTuple_GetInteger(poArgs, 1, &iSlotIndex))

  0002c	8d 45 e8	 lea	 eax, DWORD PTR _iSlotIndex$[ebp]
  0002f	50		 push	 eax
  00030	6a 01		 push	 1
  00032	56		 push	 esi
  00033	e8 00 00 00 00	 call	 ?PyTuple_GetInteger@@YA_NPAU_object@@HPAH@Z ; PyTuple_GetInteger
  00038	83 c4 0c	 add	 esp, 12			; 0000000cH
  0003b	84 c0		 test	 al, al
  0003d	74 de		 je	 SHORT $LN10@wndMgrActi

; 2361 : 		return Py_BuildException();
; 2362 : 
; 2363 : 	if (!pWin->IsType(UI::CSlotWindow::Type()))

  0003f	e8 00 00 00 00	 call	 ?Type@CSlotWindow@UI@@SAKXZ ; UI::CSlotWindow::Type
  00044	8b 4d fc	 mov	 ecx, DWORD PTR _pWin$[ebp]
  00047	50		 push	 eax
  00048	e8 00 00 00 00	 call	 ?IsType@CWindow@UI@@QAEHK@Z ; UI::CWindow::IsType
  0004d	85 c0		 test	 eax, eax
  0004f	74 cc		 je	 SHORT $LN10@wndMgrActi

; 2364 : 		return Py_BuildException();
; 2365 : 
; 2366 : 	float r, g, b, a;
; 2367 : 	if (!PyTuple_GetFloat(poArgs, 2, &r))

  00051	8d 45 ec	 lea	 eax, DWORD PTR _r$[ebp]
  00054	50		 push	 eax
  00055	6a 02		 push	 2
  00057	56		 push	 esi
  00058	e8 00 00 00 00	 call	 ?PyTuple_GetFloat@@YA_NPAU_object@@HPAM@Z ; PyTuple_GetFloat
  0005d	83 c4 0c	 add	 esp, 12			; 0000000cH
  00060	84 c0		 test	 al, al
  00062	74 b9		 je	 SHORT $LN10@wndMgrActi

; 2368 : 		return Py_BuildException();
; 2369 : 
; 2370 : 	if (!PyTuple_GetFloat(poArgs, 3, &g))

  00064	8d 45 f0	 lea	 eax, DWORD PTR _g$[ebp]
  00067	50		 push	 eax
  00068	6a 03		 push	 3
  0006a	56		 push	 esi
  0006b	e8 00 00 00 00	 call	 ?PyTuple_GetFloat@@YA_NPAU_object@@HPAM@Z ; PyTuple_GetFloat
  00070	83 c4 0c	 add	 esp, 12			; 0000000cH
  00073	84 c0		 test	 al, al
  00075	74 a6		 je	 SHORT $LN10@wndMgrActi

; 2371 : 		return Py_BuildException();
; 2372 : 
; 2373 : 	if (!PyTuple_GetFloat(poArgs, 4, &b))

  00077	8d 45 f4	 lea	 eax, DWORD PTR _b$[ebp]
  0007a	50		 push	 eax
  0007b	6a 04		 push	 4
  0007d	56		 push	 esi
  0007e	e8 00 00 00 00	 call	 ?PyTuple_GetFloat@@YA_NPAU_object@@HPAM@Z ; PyTuple_GetFloat
  00083	83 c4 0c	 add	 esp, 12			; 0000000cH
  00086	84 c0		 test	 al, al
  00088	74 93		 je	 SHORT $LN10@wndMgrActi

; 2374 : 		return Py_BuildException();
; 2375 : 
; 2376 : 	if (!PyTuple_GetFloat(poArgs, 5, &a))

  0008a	8d 45 f8	 lea	 eax, DWORD PTR _a$[ebp]
  0008d	50		 push	 eax
  0008e	6a 05		 push	 5
  00090	56		 push	 esi
  00091	e8 00 00 00 00	 call	 ?PyTuple_GetFloat@@YA_NPAU_object@@HPAM@Z ; PyTuple_GetFloat
  00096	83 c4 0c	 add	 esp, 12			; 0000000cH
  00099	84 c0		 test	 al, al
  0009b	74 80		 je	 SHORT $LN10@wndMgrActi

; 2377 : 		return Py_BuildException();
; 2378 : 
; 2379 : 	UI::CSlotWindow * pSlotWin = (UI::CSlotWindow *)pWin;
; 2380 : 	pSlotWin->ActivateEffect(iSlotIndex, r, g, b, a);

  0009d	f3 0f 10 45 f8	 movss	 xmm0, DWORD PTR _a$[ebp]
  000a2	83 ec 10	 sub	 esp, 16			; 00000010H
  000a5	8b 4d fc	 mov	 ecx, DWORD PTR _pWin$[ebp]
  000a8	f3 0f 11 44 24
	0c		 movss	 DWORD PTR [esp+12], xmm0
  000ae	f3 0f 10 45 f4	 movss	 xmm0, DWORD PTR _b$[ebp]
  000b3	f3 0f 11 44 24
	08		 movss	 DWORD PTR [esp+8], xmm0
  000b9	f3 0f 10 45 f0	 movss	 xmm0, DWORD PTR _g$[ebp]
  000be	f3 0f 11 44 24
	04		 movss	 DWORD PTR [esp+4], xmm0
  000c4	f3 0f 10 45 ec	 movss	 xmm0, DWORD PTR _r$[ebp]
  000c9	f3 0f 11 04 24	 movss	 DWORD PTR [esp], xmm0
  000ce	ff 75 e8	 push	 DWORD PTR _iSlotIndex$[ebp]
  000d1	e8 00 00 00 00	 call	 ?ActivateEffect@CSlotWindow@UI@@QAEXKMMMM@Z ; UI::CSlotWindow::ActivateEffect

; 2381 : 	return Py_BuildNone();

  000d6	e8 00 00 00 00	 call	 ?Py_BuildNone@@YAPAU_object@@XZ ; Py_BuildNone
  000db	5e		 pop	 esi

; 2382 : }

  000dc	8b e5		 mov	 esp, ebp
  000de	5d		 pop	 ebp
  000df	c3		 ret	 0
?wndMgrActivateEffect@@YAPAU_object@@PAU1@0@Z ENDP	; wndMgrActivateEffect
_TEXT	ENDS
; Function compile flags: /Ogtp
; File C:\DS Project\DS Files\Source\ClientSource\Client\eterPythonLib\PythonWindowManagerModule.cpp
;	COMDAT ?wndMgrGetSlotCoolTime@@YAPAU_object@@PAU1@0@Z
_TEXT	SEGMENT
_iSlotIndex$ = -12					; size = 4
_fCoolTime$ = -8					; size = 4
_pWin$ = -8						; size = 4
_fElapsedTime$ = -4					; size = 4
_poSelf$ = 8						; size = 4
_poArgs$ = 12						; size = 4
?wndMgrGetSlotCoolTime@@YAPAU_object@@PAU1@0@Z PROC	; wndMgrGetSlotCoolTime, COMDAT

; 2330 : {

  00000	55		 push	 ebp
  00001	8b ec		 mov	 ebp, esp
  00003	83 ec 0c	 sub	 esp, 12			; 0000000cH

; 2331 : 	UI::CWindow * pWin;
; 2332 : 	if (!PyTuple_GetWindow(poArgs, 0, &pWin))

  00006	8d 45 f8	 lea	 eax, DWORD PTR _pWin$[ebp]
  00009	56		 push	 esi
  0000a	8b 75 0c	 mov	 esi, DWORD PTR _poArgs$[ebp]
  0000d	50		 push	 eax
  0000e	6a 00		 push	 0
  00010	56		 push	 esi
  00011	e8 00 00 00 00	 call	 ?PyTuple_GetWindow@@YA_NPAU_object@@HPAPAVCWindow@UI@@@Z ; PyTuple_GetWindow
  00016	83 c4 0c	 add	 esp, 12			; 0000000cH
  00019	84 c0		 test	 al, al
  0001b	75 0f		 jne	 SHORT $LN2@wndMgrGetS
$LN6@wndMgrGetS:

; 2347 : }

  0001d	6a 00		 push	 0
  0001f	e8 00 00 00 00	 call	 ?Py_BuildException@@YAPAU_object@@PBDZZ ; Py_BuildException
  00024	83 c4 04	 add	 esp, 4
  00027	5e		 pop	 esi
  00028	8b e5		 mov	 esp, ebp
  0002a	5d		 pop	 ebp
  0002b	c3		 ret	 0
$LN2@wndMgrGetS:

; 2333 : 		return Py_BuildException();
; 2334 : 
; 2335 : 	int iSlotIndex;
; 2336 : 	if (!PyTuple_GetInteger(poArgs, 1, &iSlotIndex))

  0002c	8d 45 f4	 lea	 eax, DWORD PTR _iSlotIndex$[ebp]
  0002f	50		 push	 eax
  00030	6a 01		 push	 1
  00032	56		 push	 esi
  00033	e8 00 00 00 00	 call	 ?PyTuple_GetInteger@@YA_NPAU_object@@HPAH@Z ; PyTuple_GetInteger
  00038	83 c4 0c	 add	 esp, 12			; 0000000cH
  0003b	84 c0		 test	 al, al
  0003d	74 de		 je	 SHORT $LN6@wndMgrGetS

; 2337 : 		return Py_BuildException();
; 2338 : 
; 2339 : 	if (!pWin->IsType(UI::CSlotWindow::Type()))

  0003f	e8 00 00 00 00	 call	 ?Type@CSlotWindow@UI@@SAKXZ ; UI::CSlotWindow::Type
  00044	8b 75 f8	 mov	 esi, DWORD PTR _pWin$[ebp]
  00047	8b ce		 mov	 ecx, esi
  00049	50		 push	 eax
  0004a	e8 00 00 00 00	 call	 ?IsType@CWindow@UI@@QAEHK@Z ; UI::CWindow::IsType
  0004f	85 c0		 test	 eax, eax
  00051	74 ca		 je	 SHORT $LN6@wndMgrGetS

; 2340 : 		return Py_BuildException();
; 2341 : 
; 2342 : 	UI::CSlotWindow * pSlotWin = (UI::CSlotWindow *)pWin;
; 2343 : 
; 2344 : 	float fElapsedTime = 0.0f;
; 2345 : 	float fCoolTime = pSlotWin->GetSlotCoolTime(iSlotIndex, &fElapsedTime);

  00053	8d 45 fc	 lea	 eax, DWORD PTR _fElapsedTime$[ebp]
  00056	c7 45 fc 00 00
	00 00		 mov	 DWORD PTR _fElapsedTime$[ebp], 0
  0005d	50		 push	 eax
  0005e	ff 75 f4	 push	 DWORD PTR _iSlotIndex$[ebp]
  00061	8b ce		 mov	 ecx, esi
  00063	e8 00 00 00 00	 call	 ?GetSlotCoolTime@CSlotWindow@UI@@QAEMKPAM@Z ; UI::CSlotWindow::GetSlotCoolTime
  00068	f3 0f 10 45 fc	 movss	 xmm0, DWORD PTR _fElapsedTime$[ebp]

; 2346 : 	return Py_BuildValue("ff", fCoolTime, fElapsedTime);

  0006d	83 ec 10	 sub	 esp, 16			; 00000010H
  00070	0f 5a c0	 cvtps2pd xmm0, xmm0
  00073	d9 5d f8	 fstp	 DWORD PTR _fCoolTime$[ebp]
  00076	f2 0f 11 44 24
	08		 movsd	 QWORD PTR [esp+8], xmm0
  0007c	f3 0f 10 45 f8	 movss	 xmm0, DWORD PTR _fCoolTime$[ebp]
  00081	0f 5a c0	 cvtps2pd xmm0, xmm0
  00084	f2 0f 11 04 24	 movsd	 QWORD PTR [esp], xmm0
  00089	68 00 00 00 00	 push	 OFFSET ??_C@_02HPEDFNFO@ff@
  0008e	ff 15 00 00 00
	00		 call	 DWORD PTR __imp__Py_BuildValue
  00094	83 c4 14	 add	 esp, 20			; 00000014H
  00097	5e		 pop	 esi

; 2347 : }

  00098	8b e5		 mov	 esp, ebp
  0009a	5d		 pop	 ebp
  0009b	c3		 ret	 0
?wndMgrGetSlotCoolTime@@YAPAU_object@@PAU1@0@Z ENDP	; wndMgrGetSlotCoolTime
_TEXT	ENDS
; Function compile flags: /Ogtp
; File C:\DS Project\DS Files\Source\ClientSource\Client\eterPythonLib\PythonWindowManagerModule.cpp
;	COMDAT ?wndMgrIsActivatedSlot@@YAPAU_object@@PAU1@0@Z
_TEXT	SEGMENT
_iSlotIndex$ = -8					; size = 4
_pWin$ = -4						; size = 4
_poSelf$ = 8						; size = 4
_poArgs$ = 12						; size = 4
?wndMgrIsActivatedSlot@@YAPAU_object@@PAU1@0@Z PROC	; wndMgrIsActivatedSlot, COMDAT

; 2313 : {

  00000	55		 push	 ebp
  00001	8b ec		 mov	 ebp, esp
  00003	83 ec 08	 sub	 esp, 8

; 2314 : 	UI::CWindow * pWin;
; 2315 : 	if (!PyTuple_GetWindow(poArgs, 0, &pWin))

  00006	8d 45 fc	 lea	 eax, DWORD PTR _pWin$[ebp]
  00009	56		 push	 esi
  0000a	8b 75 0c	 mov	 esi, DWORD PTR _poArgs$[ebp]
  0000d	50		 push	 eax
  0000e	6a 00		 push	 0
  00010	56		 push	 esi
  00011	e8 00 00 00 00	 call	 ?PyTuple_GetWindow@@YA_NPAU_object@@HPAPAVCWindow@UI@@@Z ; PyTuple_GetWindow
  00016	83 c4 0c	 add	 esp, 12			; 0000000cH
  00019	84 c0		 test	 al, al
  0001b	75 0f		 jne	 SHORT $LN2@wndMgrIsAc
$LN6@wndMgrIsAc:

; 2327 : }

  0001d	6a 00		 push	 0
  0001f	e8 00 00 00 00	 call	 ?Py_BuildException@@YAPAU_object@@PBDZZ ; Py_BuildException
  00024	83 c4 04	 add	 esp, 4
  00027	5e		 pop	 esi
  00028	8b e5		 mov	 esp, ebp
  0002a	5d		 pop	 ebp
  0002b	c3		 ret	 0
$LN2@wndMgrIsAc:

; 2316 : 		return Py_BuildException();
; 2317 : 
; 2318 : 	int iSlotIndex;
; 2319 : 	if (!PyTuple_GetInteger(poArgs, 1, &iSlotIndex))

  0002c	8d 45 f8	 lea	 eax, DWORD PTR _iSlotIndex$[ebp]
  0002f	50		 push	 eax
  00030	6a 01		 push	 1
  00032	56		 push	 esi
  00033	e8 00 00 00 00	 call	 ?PyTuple_GetInteger@@YA_NPAU_object@@HPAH@Z ; PyTuple_GetInteger
  00038	83 c4 0c	 add	 esp, 12			; 0000000cH
  0003b	84 c0		 test	 al, al
  0003d	74 de		 je	 SHORT $LN6@wndMgrIsAc

; 2320 : 		return Py_BuildException();
; 2321 : 
; 2322 : 	if (!pWin->IsType(UI::CSlotWindow::Type()))

  0003f	e8 00 00 00 00	 call	 ?Type@CSlotWindow@UI@@SAKXZ ; UI::CSlotWindow::Type
  00044	8b 75 fc	 mov	 esi, DWORD PTR _pWin$[ebp]
  00047	8b ce		 mov	 ecx, esi
  00049	50		 push	 eax
  0004a	e8 00 00 00 00	 call	 ?IsType@CWindow@UI@@QAEHK@Z ; UI::CWindow::IsType
  0004f	85 c0		 test	 eax, eax
  00051	74 ca		 je	 SHORT $LN6@wndMgrIsAc

; 2323 : 		return Py_BuildException();
; 2324 : 
; 2325 : 	UI::CSlotWindow * pSlotWin = (UI::CSlotWindow *)pWin;
; 2326 : 	return Py_BuildValue("i", pSlotWin->IsActivatedSlot(iSlotIndex));

  00053	ff 75 f8	 push	 DWORD PTR _iSlotIndex$[ebp]
  00056	8b ce		 mov	 ecx, esi
  00058	e8 00 00 00 00	 call	 ?IsActivatedSlot@CSlotWindow@UI@@QAE_NK@Z ; UI::CSlotWindow::IsActivatedSlot
  0005d	0f b6 c0	 movzx	 eax, al
  00060	50		 push	 eax
  00061	68 00 00 00 00	 push	 OFFSET ??_C@_01KBJDNOO@i@
  00066	ff 15 00 00 00
	00		 call	 DWORD PTR __imp__Py_BuildValue
  0006c	83 c4 08	 add	 esp, 8
  0006f	5e		 pop	 esi

; 2327 : }

  00070	8b e5		 mov	 esp, ebp
  00072	5d		 pop	 ebp
  00073	c3		 ret	 0
?wndMgrIsActivatedSlot@@YAPAU_object@@PAU1@0@Z ENDP	; wndMgrIsActivatedSlot
_TEXT	ENDS
; Function compile flags: /Ogtp
; File C:\DS Project\DS Files\Source\ClientSource\Client\eterPythonLib\PythonWindowManagerModule.cpp
;	COMDAT ?wndMgrShowOverInWindowName@@YAPAU_object@@PAU1@0@Z
_TEXT	SEGMENT
_iFlag$ = -4						; size = 4
_poSelf$ = 8						; size = 4
_poArgs$ = 12						; size = 4
?wndMgrShowOverInWindowName@@YAPAU_object@@PAU1@0@Z PROC ; wndMgrShowOverInWindowName, COMDAT

; 2301 : {

  00000	55		 push	 ebp
  00001	8b ec		 mov	 ebp, esp
  00003	51		 push	 ecx

; 2302 : 	int iFlag;
; 2303 : 	if (!PyTuple_GetInteger(poArgs, 0, &iFlag))

  00004	8d 45 fc	 lea	 eax, DWORD PTR _iFlag$[ebp]
  00007	50		 push	 eax
  00008	6a 00		 push	 0
  0000a	ff 75 0c	 push	 DWORD PTR _poArgs$[ebp]
  0000d	e8 00 00 00 00	 call	 ?PyTuple_GetInteger@@YA_NPAU_object@@HPAH@Z ; PyTuple_GetInteger
  00012	83 c4 0c	 add	 esp, 12			; 0000000cH
  00015	84 c0		 test	 al, al
  00017	75 0e		 jne	 SHORT $LN2@wndMgrShow

; 2304 : 		return Py_BuildException();

  00019	6a 00		 push	 0
  0001b	e8 00 00 00 00	 call	 ?Py_BuildException@@YAPAU_object@@PBDZZ ; Py_BuildException
  00020	83 c4 04	 add	 esp, 4

; 2309 : }

  00023	8b e5		 mov	 esp, ebp
  00025	5d		 pop	 ebp
  00026	c3		 ret	 0
$LN2@wndMgrShow:

; 2305 : 
; 2306 : 	g_bShowOverInWindowName = iFlag;

  00027	8b 45 fc	 mov	 eax, DWORD PTR _iFlag$[ebp]
  0002a	a3 00 00 00 00	 mov	 DWORD PTR ?g_bShowOverInWindowName@@3HA, eax ; g_bShowOverInWindowName

; 2307 : 
; 2308 : 	return Py_BuildNone();

  0002f	e8 00 00 00 00	 call	 ?Py_BuildNone@@YAPAU_object@@XZ ; Py_BuildNone

; 2309 : }

  00034	8b e5		 mov	 esp, ebp
  00036	5d		 pop	 ebp
  00037	c3		 ret	 0
?wndMgrShowOverInWindowName@@YAPAU_object@@PAU1@0@Z ENDP ; wndMgrShowOverInWindowName
_TEXT	ENDS
; Function compile flags: /Ogtp
; File C:\DS Project\DS Files\Source\ClientSource\Client\eterPythonLib\PythonWindowManagerModule.cpp
;	COMDAT ?wndMgrSetOutlineFlag@@YAPAU_object@@PAU1@0@Z
_TEXT	SEGMENT
_iFlag$ = -4						; size = 4
_poSelf$ = 8						; size = 4
_poArgs$ = 12						; size = 4
?wndMgrSetOutlineFlag@@YAPAU_object@@PAU1@0@Z PROC	; wndMgrSetOutlineFlag, COMDAT

; 2290 : {

  00000	55		 push	 ebp
  00001	8b ec		 mov	 ebp, esp
  00003	51		 push	 ecx

; 2291 : 	int iFlag;
; 2292 : 	if (!PyTuple_GetInteger(poArgs, 0, &iFlag))

  00004	8d 45 fc	 lea	 eax, DWORD PTR _iFlag$[ebp]
  00007	50		 push	 eax
  00008	6a 00		 push	 0
  0000a	ff 75 0c	 push	 DWORD PTR _poArgs$[ebp]
  0000d	e8 00 00 00 00	 call	 ?PyTuple_GetInteger@@YA_NPAU_object@@HPAH@Z ; PyTuple_GetInteger
  00012	83 c4 0c	 add	 esp, 12			; 0000000cH
  00015	84 c0		 test	 al, al
  00017	75 0e		 jne	 SHORT $LN2@wndMgrSetO

; 2293 : 		return Py_BuildException();

  00019	6a 00		 push	 0
  0001b	e8 00 00 00 00	 call	 ?Py_BuildException@@YAPAU_object@@PBDZZ ; Py_BuildException
  00020	83 c4 04	 add	 esp, 4

; 2298 : }

  00023	8b e5		 mov	 esp, ebp
  00025	5d		 pop	 ebp
  00026	c3		 ret	 0
$LN2@wndMgrSetO:

; 2294 : 
; 2295 : 	g_bOutlineBoxEnable = iFlag;

  00027	8b 45 fc	 mov	 eax, DWORD PTR _iFlag$[ebp]
  0002a	a3 00 00 00 00	 mov	 DWORD PTR ?g_bOutlineBoxEnable@@3HA, eax ; g_bOutlineBoxEnable

; 2296 : 
; 2297 : 	return Py_BuildNone();

  0002f	e8 00 00 00 00	 call	 ?Py_BuildNone@@YAPAU_object@@XZ ; Py_BuildNone

; 2298 : }

  00034	8b e5		 mov	 esp, ebp
  00036	5d		 pop	 ebp
  00037	c3		 ret	 0
?wndMgrSetOutlineFlag@@YAPAU_object@@PAU1@0@Z ENDP	; wndMgrSetOutlineFlag
_TEXT	ENDS
; Function compile flags: /Ogtp
; File C:\DS Project\DS Files\Source\ClientSource\Client\eterPythonLib\PythonWindowManagerModule.cpp
;	COMDAT ?wndButtonIsDown@@YAPAU_object@@PAU1@0@Z
_TEXT	SEGMENT
_pWindow$ = -4						; size = 4
_poSelf$ = 8						; size = 4
_poArgs$ = 12						; size = 4
?wndButtonIsDown@@YAPAU_object@@PAU1@0@Z PROC		; wndButtonIsDown, COMDAT

; 2278 : {

  00000	55		 push	 ebp
  00001	8b ec		 mov	 ebp, esp
  00003	51		 push	 ecx

; 2279 : 	UI::CWindow * pWindow;
; 2280 : 	if (!PyTuple_GetWindow(poArgs, 0, &pWindow))

  00004	8d 45 fc	 lea	 eax, DWORD PTR _pWindow$[ebp]
  00007	50		 push	 eax
  00008	6a 00		 push	 0
  0000a	ff 75 0c	 push	 DWORD PTR _poArgs$[ebp]
  0000d	e8 00 00 00 00	 call	 ?PyTuple_GetWindow@@YA_NPAU_object@@HPAPAVCWindow@UI@@@Z ; PyTuple_GetWindow
  00012	83 c4 0c	 add	 esp, 12			; 0000000cH
  00015	84 c0		 test	 al, al
  00017	75 0e		 jne	 SHORT $LN2@wndButtonI

; 2281 : 		return Py_BuildException();

  00019	6a 00		 push	 0
  0001b	e8 00 00 00 00	 call	 ?Py_BuildException@@YAPAU_object@@PBDZZ ; Py_BuildException
  00020	83 c4 04	 add	 esp, 4

; 2284 : }

  00023	8b e5		 mov	 esp, ebp
  00025	5d		 pop	 ebp
  00026	c3		 ret	 0
$LN2@wndButtonI:

; 2282 : 
; 2283 : 	return Py_BuildValue("i", ((UI::CButton*)pWindow)->IsPressed());

  00027	8b 4d fc	 mov	 ecx, DWORD PTR _pWindow$[ebp]
  0002a	e8 00 00 00 00	 call	 ?IsPressed@CButton@UI@@QAEHXZ ; UI::CButton::IsPressed
  0002f	50		 push	 eax
  00030	68 00 00 00 00	 push	 OFFSET ??_C@_01KBJDNOO@i@
  00035	ff 15 00 00 00
	00		 call	 DWORD PTR __imp__Py_BuildValue
  0003b	83 c4 08	 add	 esp, 8

; 2284 : }

  0003e	8b e5		 mov	 esp, ebp
  00040	5d		 pop	 ebp
  00041	c3		 ret	 0
?wndButtonIsDown@@YAPAU_object@@PAU1@0@Z ENDP		; wndButtonIsDown
_TEXT	ENDS
; Function compile flags: /Ogtp
; File C:\DS Project\DS Files\Source\ClientSource\Client\eterPythonLib\PythonWindowManagerModule.cpp
;	COMDAT ?wndButtonSetRestrictMovementArea@@YAPAU_object@@PAU1@0@Z
_TEXT	SEGMENT
_pWindow$ = -20						; size = 4
_ix$ = -16						; size = 4
_iy$ = -12						; size = 4
_iwidth$ = -8						; size = 4
_iheight$ = -4						; size = 4
_poSelf$ = 8						; size = 4
_poArgs$ = 12						; size = 4
?wndButtonSetRestrictMovementArea@@YAPAU_object@@PAU1@0@Z PROC ; wndButtonSetRestrictMovementArea, COMDAT

; 2255 : {

  00000	55		 push	 ebp
  00001	8b ec		 mov	 ebp, esp
  00003	83 ec 14	 sub	 esp, 20			; 00000014H

; 2256 : 	UI::CWindow * pWindow;
; 2257 : 	if (!PyTuple_GetWindow(poArgs, 0, &pWindow))

  00006	8d 45 ec	 lea	 eax, DWORD PTR _pWindow$[ebp]
  00009	56		 push	 esi
  0000a	8b 75 0c	 mov	 esi, DWORD PTR _poArgs$[ebp]
  0000d	50		 push	 eax
  0000e	6a 00		 push	 0
  00010	56		 push	 esi
  00011	e8 00 00 00 00	 call	 ?PyTuple_GetWindow@@YA_NPAU_object@@HPAPAVCWindow@UI@@@Z ; PyTuple_GetWindow
  00016	83 c4 0c	 add	 esp, 12			; 0000000cH
  00019	84 c0		 test	 al, al
  0001b	75 0f		 jne	 SHORT $LN2@wndButtonS
$LN8@wndButtonS:

; 2275 : }

  0001d	6a 00		 push	 0
  0001f	e8 00 00 00 00	 call	 ?Py_BuildException@@YAPAU_object@@PBDZZ ; Py_BuildException
  00024	83 c4 04	 add	 esp, 4
  00027	5e		 pop	 esi
  00028	8b e5		 mov	 esp, ebp
  0002a	5d		 pop	 ebp
  0002b	c3		 ret	 0
$LN2@wndButtonS:

; 2258 : 		return Py_BuildException();
; 2259 : 	int ix;
; 2260 : 	if (!PyTuple_GetInteger(poArgs, 1, &ix))

  0002c	8d 45 f0	 lea	 eax, DWORD PTR _ix$[ebp]
  0002f	50		 push	 eax
  00030	6a 01		 push	 1
  00032	56		 push	 esi
  00033	e8 00 00 00 00	 call	 ?PyTuple_GetInteger@@YA_NPAU_object@@HPAH@Z ; PyTuple_GetInteger
  00038	83 c4 0c	 add	 esp, 12			; 0000000cH
  0003b	84 c0		 test	 al, al
  0003d	74 de		 je	 SHORT $LN8@wndButtonS

; 2261 : 		return Py_BuildException();
; 2262 : 	int iy;
; 2263 : 	if (!PyTuple_GetInteger(poArgs, 2, &iy))

  0003f	8d 45 f4	 lea	 eax, DWORD PTR _iy$[ebp]
  00042	50		 push	 eax
  00043	6a 02		 push	 2
  00045	56		 push	 esi
  00046	e8 00 00 00 00	 call	 ?PyTuple_GetInteger@@YA_NPAU_object@@HPAH@Z ; PyTuple_GetInteger
  0004b	83 c4 0c	 add	 esp, 12			; 0000000cH
  0004e	84 c0		 test	 al, al
  00050	74 cb		 je	 SHORT $LN8@wndButtonS

; 2264 : 		return Py_BuildException();
; 2265 : 	int iwidth;
; 2266 : 	if (!PyTuple_GetInteger(poArgs, 3, &iwidth))

  00052	8d 45 f8	 lea	 eax, DWORD PTR _iwidth$[ebp]
  00055	50		 push	 eax
  00056	6a 03		 push	 3
  00058	56		 push	 esi
  00059	e8 00 00 00 00	 call	 ?PyTuple_GetInteger@@YA_NPAU_object@@HPAH@Z ; PyTuple_GetInteger
  0005e	83 c4 0c	 add	 esp, 12			; 0000000cH
  00061	84 c0		 test	 al, al
  00063	74 b8		 je	 SHORT $LN8@wndButtonS

; 2267 : 		return Py_BuildException();
; 2268 : 	int iheight;
; 2269 : 	if (!PyTuple_GetInteger(poArgs, 4, &iheight))

  00065	8d 45 fc	 lea	 eax, DWORD PTR _iheight$[ebp]
  00068	50		 push	 eax
  00069	6a 04		 push	 4
  0006b	56		 push	 esi
  0006c	e8 00 00 00 00	 call	 ?PyTuple_GetInteger@@YA_NPAU_object@@HPAH@Z ; PyTuple_GetInteger
  00071	83 c4 0c	 add	 esp, 12			; 0000000cH
  00074	84 c0		 test	 al, al
  00076	74 a5		 je	 SHORT $LN8@wndButtonS

; 2270 : 		return Py_BuildException();
; 2271 : 
; 2272 : 	((UI::CDragButton*)pWindow)->SetRestrictMovementArea(ix, iy, iwidth, iheight);

  00078	ff 75 fc	 push	 DWORD PTR _iheight$[ebp]
  0007b	8b 4d ec	 mov	 ecx, DWORD PTR _pWindow$[ebp]
  0007e	ff 75 f8	 push	 DWORD PTR _iwidth$[ebp]
  00081	ff 75 f4	 push	 DWORD PTR _iy$[ebp]
  00084	ff 75 f0	 push	 DWORD PTR _ix$[ebp]
  00087	e8 00 00 00 00	 call	 ?SetRestrictMovementArea@CDragButton@UI@@QAEXHHHH@Z ; UI::CDragButton::SetRestrictMovementArea

; 2273 : 
; 2274 : 	return Py_BuildNone();

  0008c	e8 00 00 00 00	 call	 ?Py_BuildNone@@YAPAU_object@@XZ ; Py_BuildNone
  00091	5e		 pop	 esi

; 2275 : }

  00092	8b e5		 mov	 esp, ebp
  00094	5d		 pop	 ebp
  00095	c3		 ret	 0
?wndButtonSetRestrictMovementArea@@YAPAU_object@@PAU1@0@Z ENDP ; wndButtonSetRestrictMovementArea
_TEXT	ENDS
; Function compile flags: /Ogtp
; File C:\DS Project\DS Files\Source\ClientSource\Client\eterPythonLib\PythonWindowManagerModule.cpp
;	COMDAT ?wndButtonSetUp@@YAPAU_object@@PAU1@0@Z
_TEXT	SEGMENT
_pWindow$ = -4						; size = 4
_poSelf$ = 8						; size = 4
_poArgs$ = 12						; size = 4
?wndButtonSetUp@@YAPAU_object@@PAU1@0@Z PROC		; wndButtonSetUp, COMDAT

; 2245 : {

  00000	55		 push	 ebp
  00001	8b ec		 mov	 ebp, esp
  00003	51		 push	 ecx

; 2246 : 	UI::CWindow * pWindow;
; 2247 : 	if (!PyTuple_GetWindow(poArgs, 0, &pWindow))

  00004	8d 45 fc	 lea	 eax, DWORD PTR _pWindow$[ebp]
  00007	50		 push	 eax
  00008	6a 00		 push	 0
  0000a	ff 75 0c	 push	 DWORD PTR _poArgs$[ebp]
  0000d	e8 00 00 00 00	 call	 ?PyTuple_GetWindow@@YA_NPAU_object@@HPAPAVCWindow@UI@@@Z ; PyTuple_GetWindow
  00012	83 c4 0c	 add	 esp, 12			; 0000000cH
  00015	84 c0		 test	 al, al
  00017	75 0e		 jne	 SHORT $LN2@wndButtonS

; 2248 : 		return Py_BuildException();

  00019	6a 00		 push	 0
  0001b	e8 00 00 00 00	 call	 ?Py_BuildException@@YAPAU_object@@PBDZZ ; Py_BuildException
  00020	83 c4 04	 add	 esp, 4

; 2253 : }

  00023	8b e5		 mov	 esp, ebp
  00025	5d		 pop	 ebp
  00026	c3		 ret	 0
$LN2@wndButtonS:

; 2249 : 
; 2250 : 	((UI::CButton*)pWindow)->SetUp();

  00027	8b 4d fc	 mov	 ecx, DWORD PTR _pWindow$[ebp]
  0002a	e8 00 00 00 00	 call	 ?SetUp@CButton@UI@@QAEXXZ ; UI::CButton::SetUp

; 2251 : 
; 2252 : 	return Py_BuildNone();

  0002f	e8 00 00 00 00	 call	 ?Py_BuildNone@@YAPAU_object@@XZ ; Py_BuildNone

; 2253 : }

  00034	8b e5		 mov	 esp, ebp
  00036	5d		 pop	 ebp
  00037	c3		 ret	 0
?wndButtonSetUp@@YAPAU_object@@PAU1@0@Z ENDP		; wndButtonSetUp
_TEXT	ENDS
; Function compile flags: /Ogtp
; File C:\DS Project\DS Files\Source\ClientSource\Client\eterPythonLib\PythonWindowManagerModule.cpp
;	COMDAT ?wndButtonDown@@YAPAU_object@@PAU1@0@Z
_TEXT	SEGMENT
_pWindow$ = -4						; size = 4
_poSelf$ = 8						; size = 4
_poArgs$ = 12						; size = 4
?wndButtonDown@@YAPAU_object@@PAU1@0@Z PROC		; wndButtonDown, COMDAT

; 2235 : {

  00000	55		 push	 ebp
  00001	8b ec		 mov	 ebp, esp
  00003	51		 push	 ecx

; 2236 : 	UI::CWindow * pWindow;
; 2237 : 	if (!PyTuple_GetWindow(poArgs, 0, &pWindow))

  00004	8d 45 fc	 lea	 eax, DWORD PTR _pWindow$[ebp]
  00007	50		 push	 eax
  00008	6a 00		 push	 0
  0000a	ff 75 0c	 push	 DWORD PTR _poArgs$[ebp]
  0000d	e8 00 00 00 00	 call	 ?PyTuple_GetWindow@@YA_NPAU_object@@HPAPAVCWindow@UI@@@Z ; PyTuple_GetWindow
  00012	83 c4 0c	 add	 esp, 12			; 0000000cH
  00015	84 c0		 test	 al, al
  00017	75 0e		 jne	 SHORT $LN2@wndButtonD

; 2238 : 		return Py_BuildException();

  00019	6a 00		 push	 0
  0001b	e8 00 00 00 00	 call	 ?Py_BuildException@@YAPAU_object@@PBDZZ ; Py_BuildException
  00020	83 c4 04	 add	 esp, 4

; 2243 : }

  00023	8b e5		 mov	 esp, ebp
  00025	5d		 pop	 ebp
  00026	c3		 ret	 0
$LN2@wndButtonD:

; 2239 : 
; 2240 : 	((UI::CButton*)pWindow)->Down();

  00027	8b 4d fc	 mov	 ecx, DWORD PTR _pWindow$[ebp]
  0002a	e8 00 00 00 00	 call	 ?Down@CButton@UI@@QAEXXZ ; UI::CButton::Down

; 2241 : 
; 2242 : 	return Py_BuildNone();

  0002f	e8 00 00 00 00	 call	 ?Py_BuildNone@@YAPAU_object@@XZ ; Py_BuildNone

; 2243 : }

  00034	8b e5		 mov	 esp, ebp
  00036	5d		 pop	 ebp
  00037	c3		 ret	 0
?wndButtonDown@@YAPAU_object@@PAU1@0@Z ENDP		; wndButtonDown
_TEXT	ENDS
; Function compile flags: /Ogtp
; File C:\DS Project\DS Files\Source\ClientSource\Client\eterPythonLib\PythonWindowManagerModule.cpp
;	COMDAT ?wndButtonDisable@@YAPAU_object@@PAU1@0@Z
_TEXT	SEGMENT
_pWindow$ = -4						; size = 4
_poSelf$ = 8						; size = 4
_poArgs$ = 12						; size = 4
?wndButtonDisable@@YAPAU_object@@PAU1@0@Z PROC		; wndButtonDisable, COMDAT

; 2225 : {

  00000	55		 push	 ebp
  00001	8b ec		 mov	 ebp, esp
  00003	51		 push	 ecx

; 2226 : 	UI::CWindow * pWindow;
; 2227 : 	if (!PyTuple_GetWindow(poArgs, 0, &pWindow))

  00004	8d 45 fc	 lea	 eax, DWORD PTR _pWindow$[ebp]
  00007	50		 push	 eax
  00008	6a 00		 push	 0
  0000a	ff 75 0c	 push	 DWORD PTR _poArgs$[ebp]
  0000d	e8 00 00 00 00	 call	 ?PyTuple_GetWindow@@YA_NPAU_object@@HPAPAVCWindow@UI@@@Z ; PyTuple_GetWindow
  00012	83 c4 0c	 add	 esp, 12			; 0000000cH
  00015	84 c0		 test	 al, al
  00017	75 0e		 jne	 SHORT $LN2@wndButtonD

; 2228 : 		return Py_BuildException();

  00019	6a 00		 push	 0
  0001b	e8 00 00 00 00	 call	 ?Py_BuildException@@YAPAU_object@@PBDZZ ; Py_BuildException
  00020	83 c4 04	 add	 esp, 4

; 2233 : }

  00023	8b e5		 mov	 esp, ebp
  00025	5d		 pop	 ebp
  00026	c3		 ret	 0
$LN2@wndButtonD:

; 2229 : 
; 2230 : 	((UI::CButton*)pWindow)->Disable();

  00027	8b 4d fc	 mov	 ecx, DWORD PTR _pWindow$[ebp]
  0002a	e8 00 00 00 00	 call	 ?Disable@CButton@UI@@QAEXXZ ; UI::CButton::Disable

; 2231 : 
; 2232 : 	return Py_BuildNone();

  0002f	e8 00 00 00 00	 call	 ?Py_BuildNone@@YAPAU_object@@XZ ; Py_BuildNone

; 2233 : }

  00034	8b e5		 mov	 esp, ebp
  00036	5d		 pop	 ebp
  00037	c3		 ret	 0
?wndButtonDisable@@YAPAU_object@@PAU1@0@Z ENDP		; wndButtonDisable
_TEXT	ENDS
; Function compile flags: /Ogtp
; File C:\DS Project\DS Files\Source\ClientSource\Client\eterPythonLib\PythonWindowManagerModule.cpp
;	COMDAT ?wndButtonEnable@@YAPAU_object@@PAU1@0@Z
_TEXT	SEGMENT
_pWindow$ = -4						; size = 4
_poSelf$ = 8						; size = 4
_poArgs$ = 12						; size = 4
?wndButtonEnable@@YAPAU_object@@PAU1@0@Z PROC		; wndButtonEnable, COMDAT

; 2215 : {

  00000	55		 push	 ebp
  00001	8b ec		 mov	 ebp, esp
  00003	51		 push	 ecx

; 2216 : 	UI::CWindow * pWindow;
; 2217 : 	if (!PyTuple_GetWindow(poArgs, 0, &pWindow))

  00004	8d 45 fc	 lea	 eax, DWORD PTR _pWindow$[ebp]
  00007	50		 push	 eax
  00008	6a 00		 push	 0
  0000a	ff 75 0c	 push	 DWORD PTR _poArgs$[ebp]
  0000d	e8 00 00 00 00	 call	 ?PyTuple_GetWindow@@YA_NPAU_object@@HPAPAVCWindow@UI@@@Z ; PyTuple_GetWindow
  00012	83 c4 0c	 add	 esp, 12			; 0000000cH
  00015	84 c0		 test	 al, al
  00017	75 0e		 jne	 SHORT $LN2@wndButtonE

; 2218 : 		return Py_BuildException();

  00019	6a 00		 push	 0
  0001b	e8 00 00 00 00	 call	 ?Py_BuildException@@YAPAU_object@@PBDZZ ; Py_BuildException
  00020	83 c4 04	 add	 esp, 4

; 2223 : }

  00023	8b e5		 mov	 esp, ebp
  00025	5d		 pop	 ebp
  00026	c3		 ret	 0
$LN2@wndButtonE:

; 2219 : 
; 2220 : 	((UI::CButton*)pWindow)->Enable();

  00027	8b 4d fc	 mov	 ecx, DWORD PTR _pWindow$[ebp]
  0002a	e8 00 00 00 00	 call	 ?Enable@CButton@UI@@QAEXXZ ; UI::CButton::Enable

; 2221 : 
; 2222 : 	return Py_BuildNone();

  0002f	e8 00 00 00 00	 call	 ?Py_BuildNone@@YAPAU_object@@XZ ; Py_BuildNone

; 2223 : }

  00034	8b e5		 mov	 esp, ebp
  00036	5d		 pop	 ebp
  00037	c3		 ret	 0
?wndButtonEnable@@YAPAU_object@@PAU1@0@Z ENDP		; wndButtonEnable
_TEXT	ENDS
; Function compile flags: /Ogtp
; File C:\DS Project\DS Files\Source\ClientSource\Client\eterPythonLib\PythonWindowManagerModule.cpp
;	COMDAT ?wndButtonFlash@@YAPAU_object@@PAU1@0@Z
_TEXT	SEGMENT
_pWindow$ = -4						; size = 4
_poSelf$ = 8						; size = 4
_poArgs$ = 12						; size = 4
?wndButtonFlash@@YAPAU_object@@PAU1@0@Z PROC		; wndButtonFlash, COMDAT

; 2205 : {

  00000	55		 push	 ebp
  00001	8b ec		 mov	 ebp, esp
  00003	51		 push	 ecx

; 2206 : 	UI::CWindow * pWindow;
; 2207 : 	if (!PyTuple_GetWindow(poArgs, 0, &pWindow))

  00004	8d 45 fc	 lea	 eax, DWORD PTR _pWindow$[ebp]
  00007	50		 push	 eax
  00008	6a 00		 push	 0
  0000a	ff 75 0c	 push	 DWORD PTR _poArgs$[ebp]
  0000d	e8 00 00 00 00	 call	 ?PyTuple_GetWindow@@YA_NPAU_object@@HPAPAVCWindow@UI@@@Z ; PyTuple_GetWindow
  00012	83 c4 0c	 add	 esp, 12			; 0000000cH
  00015	84 c0		 test	 al, al
  00017	75 0e		 jne	 SHORT $LN2@wndButtonF

; 2208 : 		return Py_BuildException();

  00019	6a 00		 push	 0
  0001b	e8 00 00 00 00	 call	 ?Py_BuildException@@YAPAU_object@@PBDZZ ; Py_BuildException
  00020	83 c4 04	 add	 esp, 4

; 2213 : }

  00023	8b e5		 mov	 esp, ebp
  00025	5d		 pop	 ebp
  00026	c3		 ret	 0
$LN2@wndButtonF:

; 2209 : 
; 2210 : 	((UI::CButton*)pWindow)->Flash();

  00027	8b 4d fc	 mov	 ecx, DWORD PTR _pWindow$[ebp]
  0002a	e8 00 00 00 00	 call	 ?Flash@CButton@UI@@QAEXXZ ; UI::CButton::Flash

; 2211 : 
; 2212 : 	return Py_BuildNone();

  0002f	e8 00 00 00 00	 call	 ?Py_BuildNone@@YAPAU_object@@XZ ; Py_BuildNone

; 2213 : }

  00034	8b e5		 mov	 esp, ebp
  00036	5d		 pop	 ebp
  00037	c3		 ret	 0
?wndButtonFlash@@YAPAU_object@@PAU1@0@Z ENDP		; wndButtonFlash
_TEXT	ENDS
; Function compile flags: /Ogtp
; File C:\DS Project\DS Files\Source\ClientSource\Client\eterPythonLib\PythonWindowManagerModule.cpp
;	COMDAT ?wndButtonGetDownVisualFileName@@YAPAU_object@@PAU1@0@Z
_TEXT	SEGMENT
_pWindow$ = -4						; size = 4
_poSelf$ = 8						; size = 4
_poArgs$ = 12						; size = 4
?wndButtonGetDownVisualFileName@@YAPAU_object@@PAU1@0@Z PROC ; wndButtonGetDownVisualFileName, COMDAT

; 2197 : {

  00000	55		 push	 ebp
  00001	8b ec		 mov	 ebp, esp
  00003	51		 push	 ecx

; 2198 : 	UI::CWindow * pWindow;
; 2199 : 	if (!PyTuple_GetWindow(poArgs, 0, &pWindow))

  00004	8d 45 fc	 lea	 eax, DWORD PTR _pWindow$[ebp]
  00007	50		 push	 eax
  00008	6a 00		 push	 0
  0000a	ff 75 0c	 push	 DWORD PTR _poArgs$[ebp]
  0000d	e8 00 00 00 00	 call	 ?PyTuple_GetWindow@@YA_NPAU_object@@HPAPAVCWindow@UI@@@Z ; PyTuple_GetWindow
  00012	83 c4 0c	 add	 esp, 12			; 0000000cH
  00015	84 c0		 test	 al, al
  00017	75 0e		 jne	 SHORT $LN2@wndButtonG

; 2200 : 		return Py_BuildException();

  00019	6a 00		 push	 0
  0001b	e8 00 00 00 00	 call	 ?Py_BuildException@@YAPAU_object@@PBDZZ ; Py_BuildException
  00020	83 c4 04	 add	 esp, 4

; 2203 : }

  00023	8b e5		 mov	 esp, ebp
  00025	5d		 pop	 ebp
  00026	c3		 ret	 0
$LN2@wndButtonG:

; 2201 : 
; 2202 : 	return Py_BuildValue("s", ((UI::CButton*)pWindow)->GetDownVisualFileName());

  00027	8b 4d fc	 mov	 ecx, DWORD PTR _pWindow$[ebp]
  0002a	e8 00 00 00 00	 call	 ?GetDownVisualFileName@CButton@UI@@QAEPBDXZ ; UI::CButton::GetDownVisualFileName
  0002f	50		 push	 eax
  00030	68 00 00 00 00	 push	 OFFSET ??_C@_01LKDEMHDF@s@
  00035	ff 15 00 00 00
	00		 call	 DWORD PTR __imp__Py_BuildValue
  0003b	83 c4 08	 add	 esp, 8

; 2203 : }

  0003e	8b e5		 mov	 esp, ebp
  00040	5d		 pop	 ebp
  00041	c3		 ret	 0
?wndButtonGetDownVisualFileName@@YAPAU_object@@PAU1@0@Z ENDP ; wndButtonGetDownVisualFileName
_TEXT	ENDS
; Function compile flags: /Ogtp
; File C:\DS Project\DS Files\Source\ClientSource\Client\eterPythonLib\PythonWindowManagerModule.cpp
;	COMDAT ?wndButtonGetOverVisualFileName@@YAPAU_object@@PAU1@0@Z
_TEXT	SEGMENT
_pWindow$ = -4						; size = 4
_poSelf$ = 8						; size = 4
_poArgs$ = 12						; size = 4
?wndButtonGetOverVisualFileName@@YAPAU_object@@PAU1@0@Z PROC ; wndButtonGetOverVisualFileName, COMDAT

; 2189 : {

  00000	55		 push	 ebp
  00001	8b ec		 mov	 ebp, esp
  00003	51		 push	 ecx

; 2190 : 	UI::CWindow * pWindow;
; 2191 : 	if (!PyTuple_GetWindow(poArgs, 0, &pWindow))

  00004	8d 45 fc	 lea	 eax, DWORD PTR _pWindow$[ebp]
  00007	50		 push	 eax
  00008	6a 00		 push	 0
  0000a	ff 75 0c	 push	 DWORD PTR _poArgs$[ebp]
  0000d	e8 00 00 00 00	 call	 ?PyTuple_GetWindow@@YA_NPAU_object@@HPAPAVCWindow@UI@@@Z ; PyTuple_GetWindow
  00012	83 c4 0c	 add	 esp, 12			; 0000000cH
  00015	84 c0		 test	 al, al
  00017	75 0e		 jne	 SHORT $LN2@wndButtonG

; 2192 : 		return Py_BuildException();

  00019	6a 00		 push	 0
  0001b	e8 00 00 00 00	 call	 ?Py_BuildException@@YAPAU_object@@PBDZZ ; Py_BuildException
  00020	83 c4 04	 add	 esp, 4

; 2195 : }

  00023	8b e5		 mov	 esp, ebp
  00025	5d		 pop	 ebp
  00026	c3		 ret	 0
$LN2@wndButtonG:

; 2193 : 
; 2194 : 	return Py_BuildValue("s", ((UI::CButton*)pWindow)->GetOverVisualFileName());

  00027	8b 4d fc	 mov	 ecx, DWORD PTR _pWindow$[ebp]
  0002a	e8 00 00 00 00	 call	 ?GetOverVisualFileName@CButton@UI@@QAEPBDXZ ; UI::CButton::GetOverVisualFileName
  0002f	50		 push	 eax
  00030	68 00 00 00 00	 push	 OFFSET ??_C@_01LKDEMHDF@s@
  00035	ff 15 00 00 00
	00		 call	 DWORD PTR __imp__Py_BuildValue
  0003b	83 c4 08	 add	 esp, 8

; 2195 : }

  0003e	8b e5		 mov	 esp, ebp
  00040	5d		 pop	 ebp
  00041	c3		 ret	 0
?wndButtonGetOverVisualFileName@@YAPAU_object@@PAU1@0@Z ENDP ; wndButtonGetOverVisualFileName
_TEXT	ENDS
; Function compile flags: /Ogtp
; File C:\DS Project\DS Files\Source\ClientSource\Client\eterPythonLib\PythonWindowManagerModule.cpp
;	COMDAT ?wndButtonGetUpVisualFileName@@YAPAU_object@@PAU1@0@Z
_TEXT	SEGMENT
_pWindow$ = -4						; size = 4
_poSelf$ = 8						; size = 4
_poArgs$ = 12						; size = 4
?wndButtonGetUpVisualFileName@@YAPAU_object@@PAU1@0@Z PROC ; wndButtonGetUpVisualFileName, COMDAT

; 2181 : {

  00000	55		 push	 ebp
  00001	8b ec		 mov	 ebp, esp
  00003	51		 push	 ecx

; 2182 : 	UI::CWindow * pWindow;
; 2183 : 	if (!PyTuple_GetWindow(poArgs, 0, &pWindow))

  00004	8d 45 fc	 lea	 eax, DWORD PTR _pWindow$[ebp]
  00007	50		 push	 eax
  00008	6a 00		 push	 0
  0000a	ff 75 0c	 push	 DWORD PTR _poArgs$[ebp]
  0000d	e8 00 00 00 00	 call	 ?PyTuple_GetWindow@@YA_NPAU_object@@HPAPAVCWindow@UI@@@Z ; PyTuple_GetWindow
  00012	83 c4 0c	 add	 esp, 12			; 0000000cH
  00015	84 c0		 test	 al, al
  00017	75 0e		 jne	 SHORT $LN2@wndButtonG

; 2184 : 		return Py_BuildException();

  00019	6a 00		 push	 0
  0001b	e8 00 00 00 00	 call	 ?Py_BuildException@@YAPAU_object@@PBDZZ ; Py_BuildException
  00020	83 c4 04	 add	 esp, 4

; 2187 : }

  00023	8b e5		 mov	 esp, ebp
  00025	5d		 pop	 ebp
  00026	c3		 ret	 0
$LN2@wndButtonG:

; 2185 : 
; 2186 : 	return Py_BuildValue("s", ((UI::CButton*)pWindow)->GetUpVisualFileName());

  00027	8b 4d fc	 mov	 ecx, DWORD PTR _pWindow$[ebp]
  0002a	e8 00 00 00 00	 call	 ?GetUpVisualFileName@CButton@UI@@QAEPBDXZ ; UI::CButton::GetUpVisualFileName
  0002f	50		 push	 eax
  00030	68 00 00 00 00	 push	 OFFSET ??_C@_01LKDEMHDF@s@
  00035	ff 15 00 00 00
	00		 call	 DWORD PTR __imp__Py_BuildValue
  0003b	83 c4 08	 add	 esp, 8

; 2187 : }

  0003e	8b e5		 mov	 esp, ebp
  00040	5d		 pop	 ebp
  00041	c3		 ret	 0
?wndButtonGetUpVisualFileName@@YAPAU_object@@PAU1@0@Z ENDP ; wndButtonGetUpVisualFileName
_TEXT	ENDS
; Function compile flags: /Ogtp
; File C:\DS Project\DS Files\Source\ClientSource\Client\eterPythonLib\PythonWindowManagerModule.cpp
;	COMDAT ?wndButtonSetDisableVisual@@YAPAU_object@@PAU1@0@Z
_TEXT	SEGMENT
_pWindow$ = -8						; size = 4
_szFileName$ = -4					; size = 4
_poSelf$ = 8						; size = 4
_poArgs$ = 12						; size = 4
?wndButtonSetDisableVisual@@YAPAU_object@@PAU1@0@Z PROC	; wndButtonSetDisableVisual, COMDAT

; 2168 : {

  00000	55		 push	 ebp
  00001	8b ec		 mov	 ebp, esp
  00003	83 ec 08	 sub	 esp, 8

; 2169 : 	UI::CWindow * pWindow;
; 2170 : 	if (!PyTuple_GetWindow(poArgs, 0, &pWindow))

  00006	8d 45 f8	 lea	 eax, DWORD PTR _pWindow$[ebp]
  00009	50		 push	 eax
  0000a	6a 00		 push	 0
  0000c	ff 75 0c	 push	 DWORD PTR _poArgs$[ebp]
  0000f	e8 00 00 00 00	 call	 ?PyTuple_GetWindow@@YA_NPAU_object@@HPAPAVCWindow@UI@@@Z ; PyTuple_GetWindow
  00014	83 c4 0c	 add	 esp, 12			; 0000000cH
  00017	84 c0		 test	 al, al
  00019	75 0e		 jne	 SHORT $LN2@wndButtonS
$LN5@wndButtonS:

; 2179 : }

  0001b	6a 00		 push	 0
  0001d	e8 00 00 00 00	 call	 ?Py_BuildException@@YAPAU_object@@PBDZZ ; Py_BuildException
  00022	83 c4 04	 add	 esp, 4
  00025	8b e5		 mov	 esp, ebp
  00027	5d		 pop	 ebp
  00028	c3		 ret	 0
$LN2@wndButtonS:

; 2171 : 		return Py_BuildException();
; 2172 : 	char * szFileName;
; 2173 : 	if (!PyTuple_GetString(poArgs, 1, &szFileName))

  00029	8d 45 fc	 lea	 eax, DWORD PTR _szFileName$[ebp]
  0002c	50		 push	 eax
  0002d	6a 01		 push	 1
  0002f	ff 75 0c	 push	 DWORD PTR _poArgs$[ebp]
  00032	e8 00 00 00 00	 call	 ?PyTuple_GetString@@YA_NPAU_object@@HPAPAD@Z ; PyTuple_GetString
  00037	83 c4 0c	 add	 esp, 12			; 0000000cH
  0003a	84 c0		 test	 al, al
  0003c	74 dd		 je	 SHORT $LN5@wndButtonS

; 2174 : 		return Py_BuildException();
; 2175 : 
; 2176 : 	((UI::CButton*)pWindow)->SetDisableVisual(szFileName);

  0003e	ff 75 fc	 push	 DWORD PTR _szFileName$[ebp]
  00041	8b 4d f8	 mov	 ecx, DWORD PTR _pWindow$[ebp]
  00044	e8 00 00 00 00	 call	 ?SetDisableVisual@CButton@UI@@QAEHPBD@Z ; UI::CButton::SetDisableVisual

; 2177 : 
; 2178 : 	return Py_BuildNone();

  00049	e8 00 00 00 00	 call	 ?Py_BuildNone@@YAPAU_object@@XZ ; Py_BuildNone

; 2179 : }

  0004e	8b e5		 mov	 esp, ebp
  00050	5d		 pop	 ebp
  00051	c3		 ret	 0
?wndButtonSetDisableVisual@@YAPAU_object@@PAU1@0@Z ENDP	; wndButtonSetDisableVisual
_TEXT	ENDS
; Function compile flags: /Ogtp
; File C:\DS Project\DS Files\Source\ClientSource\Client\eterPythonLib\PythonWindowManagerModule.cpp
;	COMDAT ?wndButtonSetDownVisual@@YAPAU_object@@PAU1@0@Z
_TEXT	SEGMENT
_pWindow$ = -8						; size = 4
_szFileName$ = -4					; size = 4
_poSelf$ = 8						; size = 4
_poArgs$ = 12						; size = 4
?wndButtonSetDownVisual@@YAPAU_object@@PAU1@0@Z PROC	; wndButtonSetDownVisual, COMDAT

; 2155 : {

  00000	55		 push	 ebp
  00001	8b ec		 mov	 ebp, esp
  00003	83 ec 08	 sub	 esp, 8

; 2156 : 	UI::CWindow * pWindow;
; 2157 : 	if (!PyTuple_GetWindow(poArgs, 0, &pWindow))

  00006	8d 45 f8	 lea	 eax, DWORD PTR _pWindow$[ebp]
  00009	50		 push	 eax
  0000a	6a 00		 push	 0
  0000c	ff 75 0c	 push	 DWORD PTR _poArgs$[ebp]
  0000f	e8 00 00 00 00	 call	 ?PyTuple_GetWindow@@YA_NPAU_object@@HPAPAVCWindow@UI@@@Z ; PyTuple_GetWindow
  00014	83 c4 0c	 add	 esp, 12			; 0000000cH
  00017	84 c0		 test	 al, al
  00019	75 0e		 jne	 SHORT $LN2@wndButtonS
$LN5@wndButtonS:

; 2166 : }

  0001b	6a 00		 push	 0
  0001d	e8 00 00 00 00	 call	 ?Py_BuildException@@YAPAU_object@@PBDZZ ; Py_BuildException
  00022	83 c4 04	 add	 esp, 4
  00025	8b e5		 mov	 esp, ebp
  00027	5d		 pop	 ebp
  00028	c3		 ret	 0
$LN2@wndButtonS:

; 2158 : 		return Py_BuildException();
; 2159 : 	char * szFileName;
; 2160 : 	if (!PyTuple_GetString(poArgs, 1, &szFileName))

  00029	8d 45 fc	 lea	 eax, DWORD PTR _szFileName$[ebp]
  0002c	50		 push	 eax
  0002d	6a 01		 push	 1
  0002f	ff 75 0c	 push	 DWORD PTR _poArgs$[ebp]
  00032	e8 00 00 00 00	 call	 ?PyTuple_GetString@@YA_NPAU_object@@HPAPAD@Z ; PyTuple_GetString
  00037	83 c4 0c	 add	 esp, 12			; 0000000cH
  0003a	84 c0		 test	 al, al
  0003c	74 dd		 je	 SHORT $LN5@wndButtonS

; 2161 : 		return Py_BuildException();
; 2162 : 
; 2163 : 	((UI::CButton*)pWindow)->SetDownVisual(szFileName);

  0003e	ff 75 fc	 push	 DWORD PTR _szFileName$[ebp]
  00041	8b 4d f8	 mov	 ecx, DWORD PTR _pWindow$[ebp]
  00044	e8 00 00 00 00	 call	 ?SetDownVisual@CButton@UI@@QAEHPBD@Z ; UI::CButton::SetDownVisual

; 2164 : 
; 2165 : 	return Py_BuildNone();

  00049	e8 00 00 00 00	 call	 ?Py_BuildNone@@YAPAU_object@@XZ ; Py_BuildNone

; 2166 : }

  0004e	8b e5		 mov	 esp, ebp
  00050	5d		 pop	 ebp
  00051	c3		 ret	 0
?wndButtonSetDownVisual@@YAPAU_object@@PAU1@0@Z ENDP	; wndButtonSetDownVisual
_TEXT	ENDS
; Function compile flags: /Ogtp
; File C:\DS Project\DS Files\Source\ClientSource\Client\eterPythonLib\PythonWindowManagerModule.cpp
;	COMDAT ?wndButtonSetOverVisual@@YAPAU_object@@PAU1@0@Z
_TEXT	SEGMENT
_pWindow$ = -8						; size = 4
_szFileName$ = -4					; size = 4
_poSelf$ = 8						; size = 4
_poArgs$ = 12						; size = 4
?wndButtonSetOverVisual@@YAPAU_object@@PAU1@0@Z PROC	; wndButtonSetOverVisual, COMDAT

; 2142 : {

  00000	55		 push	 ebp
  00001	8b ec		 mov	 ebp, esp
  00003	83 ec 08	 sub	 esp, 8

; 2143 : 	UI::CWindow * pWindow;
; 2144 : 	if (!PyTuple_GetWindow(poArgs, 0, &pWindow))

  00006	8d 45 f8	 lea	 eax, DWORD PTR _pWindow$[ebp]
  00009	50		 push	 eax
  0000a	6a 00		 push	 0
  0000c	ff 75 0c	 push	 DWORD PTR _poArgs$[ebp]
  0000f	e8 00 00 00 00	 call	 ?PyTuple_GetWindow@@YA_NPAU_object@@HPAPAVCWindow@UI@@@Z ; PyTuple_GetWindow
  00014	83 c4 0c	 add	 esp, 12			; 0000000cH
  00017	84 c0		 test	 al, al
  00019	75 0e		 jne	 SHORT $LN2@wndButtonS
$LN5@wndButtonS:

; 2153 : }

  0001b	6a 00		 push	 0
  0001d	e8 00 00 00 00	 call	 ?Py_BuildException@@YAPAU_object@@PBDZZ ; Py_BuildException
  00022	83 c4 04	 add	 esp, 4
  00025	8b e5		 mov	 esp, ebp
  00027	5d		 pop	 ebp
  00028	c3		 ret	 0
$LN2@wndButtonS:

; 2145 : 		return Py_BuildException();
; 2146 : 	char * szFileName;
; 2147 : 	if (!PyTuple_GetString(poArgs, 1, &szFileName))

  00029	8d 45 fc	 lea	 eax, DWORD PTR _szFileName$[ebp]
  0002c	50		 push	 eax
  0002d	6a 01		 push	 1
  0002f	ff 75 0c	 push	 DWORD PTR _poArgs$[ebp]
  00032	e8 00 00 00 00	 call	 ?PyTuple_GetString@@YA_NPAU_object@@HPAPAD@Z ; PyTuple_GetString
  00037	83 c4 0c	 add	 esp, 12			; 0000000cH
  0003a	84 c0		 test	 al, al
  0003c	74 dd		 je	 SHORT $LN5@wndButtonS

; 2148 : 		return Py_BuildException();
; 2149 : 
; 2150 : 	((UI::CButton*)pWindow)->SetOverVisual(szFileName);

  0003e	ff 75 fc	 push	 DWORD PTR _szFileName$[ebp]
  00041	8b 4d f8	 mov	 ecx, DWORD PTR _pWindow$[ebp]
  00044	e8 00 00 00 00	 call	 ?SetOverVisual@CButton@UI@@QAEHPBD@Z ; UI::CButton::SetOverVisual

; 2151 : 
; 2152 : 	return Py_BuildNone();

  00049	e8 00 00 00 00	 call	 ?Py_BuildNone@@YAPAU_object@@XZ ; Py_BuildNone

; 2153 : }

  0004e	8b e5		 mov	 esp, ebp
  00050	5d		 pop	 ebp
  00051	c3		 ret	 0
?wndButtonSetOverVisual@@YAPAU_object@@PAU1@0@Z ENDP	; wndButtonSetOverVisual
_TEXT	ENDS
; Function compile flags: /Ogtp
; File C:\DS Project\DS Files\Source\ClientSource\Client\eterPythonLib\PythonWindowManagerModule.cpp
;	COMDAT ?wndButtonSetUpVisual@@YAPAU_object@@PAU1@0@Z
_TEXT	SEGMENT
_pWindow$ = -8						; size = 4
_szFileName$ = -4					; size = 4
_poSelf$ = 8						; size = 4
_poArgs$ = 12						; size = 4
?wndButtonSetUpVisual@@YAPAU_object@@PAU1@0@Z PROC	; wndButtonSetUpVisual, COMDAT

; 2129 : {

  00000	55		 push	 ebp
  00001	8b ec		 mov	 ebp, esp
  00003	83 ec 08	 sub	 esp, 8

; 2130 : 	UI::CWindow * pWindow;
; 2131 : 	if (!PyTuple_GetWindow(poArgs, 0, &pWindow))

  00006	8d 45 f8	 lea	 eax, DWORD PTR _pWindow$[ebp]
  00009	50		 push	 eax
  0000a	6a 00		 push	 0
  0000c	ff 75 0c	 push	 DWORD PTR _poArgs$[ebp]
  0000f	e8 00 00 00 00	 call	 ?PyTuple_GetWindow@@YA_NPAU_object@@HPAPAVCWindow@UI@@@Z ; PyTuple_GetWindow
  00014	83 c4 0c	 add	 esp, 12			; 0000000cH
  00017	84 c0		 test	 al, al
  00019	75 0e		 jne	 SHORT $LN2@wndButtonS
$LN5@wndButtonS:

; 2140 : }

  0001b	6a 00		 push	 0
  0001d	e8 00 00 00 00	 call	 ?Py_BuildException@@YAPAU_object@@PBDZZ ; Py_BuildException
  00022	83 c4 04	 add	 esp, 4
  00025	8b e5		 mov	 esp, ebp
  00027	5d		 pop	 ebp
  00028	c3		 ret	 0
$LN2@wndButtonS:

; 2132 : 		return Py_BuildException();
; 2133 : 	char * szFileName;
; 2134 : 	if (!PyTuple_GetString(poArgs, 1, &szFileName))

  00029	8d 45 fc	 lea	 eax, DWORD PTR _szFileName$[ebp]
  0002c	50		 push	 eax
  0002d	6a 01		 push	 1
  0002f	ff 75 0c	 push	 DWORD PTR _poArgs$[ebp]
  00032	e8 00 00 00 00	 call	 ?PyTuple_GetString@@YA_NPAU_object@@HPAPAD@Z ; PyTuple_GetString
  00037	83 c4 0c	 add	 esp, 12			; 0000000cH
  0003a	84 c0		 test	 al, al
  0003c	74 dd		 je	 SHORT $LN5@wndButtonS

; 2135 : 		return Py_BuildException();
; 2136 : 
; 2137 : 	((UI::CButton*)pWindow)->SetUpVisual(szFileName);

  0003e	ff 75 fc	 push	 DWORD PTR _szFileName$[ebp]
  00041	8b 4d f8	 mov	 ecx, DWORD PTR _pWindow$[ebp]
  00044	e8 00 00 00 00	 call	 ?SetUpVisual@CButton@UI@@QAEHPBD@Z ; UI::CButton::SetUpVisual

; 2138 : 
; 2139 : 	return Py_BuildNone();

  00049	e8 00 00 00 00	 call	 ?Py_BuildNone@@YAPAU_object@@XZ ; Py_BuildNone

; 2140 : }

  0004e	8b e5		 mov	 esp, ebp
  00050	5d		 pop	 ebp
  00051	c3		 ret	 0
?wndButtonSetUpVisual@@YAPAU_object@@PAU1@0@Z ENDP	; wndButtonSetUpVisual
_TEXT	ENDS
; Function compile flags: /Ogtp
; File C:\DS Project\DS Files\Source\ClientSource\Client\eterPythonLib\PythonWindowManagerModule.cpp
;	COMDAT ?wndImageAppendImage@@YAPAU_object@@PAU1@0@Z
_TEXT	SEGMENT
_pWindow$ = -8						; size = 4
_szFileName$ = -4					; size = 4
_poSelf$ = 8						; size = 4
_poArgs$ = 12						; size = 4
?wndImageAppendImage@@YAPAU_object@@PAU1@0@Z PROC	; wndImageAppendImage, COMDAT

; 2115 : {

  00000	55		 push	 ebp
  00001	8b ec		 mov	 ebp, esp
  00003	83 ec 08	 sub	 esp, 8

; 2116 : 	UI::CWindow * pWindow;
; 2117 : 	if (!PyTuple_GetWindow(poArgs, 0, &pWindow))

  00006	8d 45 f8	 lea	 eax, DWORD PTR _pWindow$[ebp]
  00009	50		 push	 eax
  0000a	6a 00		 push	 0
  0000c	ff 75 0c	 push	 DWORD PTR _poArgs$[ebp]
  0000f	e8 00 00 00 00	 call	 ?PyTuple_GetWindow@@YA_NPAU_object@@HPAPAVCWindow@UI@@@Z ; PyTuple_GetWindow
  00014	83 c4 0c	 add	 esp, 12			; 0000000cH
  00017	84 c0		 test	 al, al
  00019	75 0e		 jne	 SHORT $LN2@wndImageAp
$LN5@wndImageAp:

; 2126 : }

  0001b	6a 00		 push	 0
  0001d	e8 00 00 00 00	 call	 ?Py_BuildException@@YAPAU_object@@PBDZZ ; Py_BuildException
  00022	83 c4 04	 add	 esp, 4
  00025	8b e5		 mov	 esp, ebp
  00027	5d		 pop	 ebp
  00028	c3		 ret	 0
$LN2@wndImageAp:

; 2118 : 		return Py_BuildException();
; 2119 : 	char * szFileName;
; 2120 : 	if (!PyTuple_GetString(poArgs, 1, &szFileName))

  00029	8d 45 fc	 lea	 eax, DWORD PTR _szFileName$[ebp]
  0002c	50		 push	 eax
  0002d	6a 01		 push	 1
  0002f	ff 75 0c	 push	 DWORD PTR _poArgs$[ebp]
  00032	e8 00 00 00 00	 call	 ?PyTuple_GetString@@YA_NPAU_object@@HPAPAD@Z ; PyTuple_GetString
  00037	83 c4 0c	 add	 esp, 12			; 0000000cH
  0003a	84 c0		 test	 al, al
  0003c	74 dd		 je	 SHORT $LN5@wndImageAp

; 2121 : 		return Py_BuildException();
; 2122 : 
; 2123 : 	((UI::CAniImageBox*)pWindow)->AppendImage(szFileName);

  0003e	8b 4d f8	 mov	 ecx, DWORD PTR _pWindow$[ebp]
  00041	83 ec 10	 sub	 esp, 16			; 00000010H
  00044	c7 44 24 0c 00
	00 80 3f	 mov	 DWORD PTR [esp+12], 1065353216 ; 3f800000H
  0004c	c7 44 24 08 00
	00 80 3f	 mov	 DWORD PTR [esp+8], 1065353216 ; 3f800000H
  00054	c7 44 24 04 00
	00 80 3f	 mov	 DWORD PTR [esp+4], 1065353216 ; 3f800000H
  0005c	c7 04 24 00 00
	80 3f		 mov	 DWORD PTR [esp], 1065353216 ; 3f800000H
  00063	ff 75 fc	 push	 DWORD PTR _szFileName$[ebp]
  00066	e8 00 00 00 00	 call	 ?AppendImage@CAniImageBox@UI@@QAEXPBDMMMM@Z ; UI::CAniImageBox::AppendImage

; 2124 : 
; 2125 : 	return Py_BuildNone();

  0006b	e8 00 00 00 00	 call	 ?Py_BuildNone@@YAPAU_object@@XZ ; Py_BuildNone

; 2126 : }

  00070	8b e5		 mov	 esp, ebp
  00072	5d		 pop	 ebp
  00073	c3		 ret	 0
?wndImageAppendImage@@YAPAU_object@@PAU1@0@Z ENDP	; wndImageAppendImage
_TEXT	ENDS
; Function compile flags: /Ogtp
; File C:\DS Project\DS Files\Source\ClientSource\Client\eterPythonLib\PythonWindowManagerModule.cpp
;	COMDAT ?wndImageSetDelay@@YAPAU_object@@PAU1@0@Z
_TEXT	SEGMENT
_pWindow$ = -8						; size = 4
_fDelay$ = -4						; size = 4
_poSelf$ = 8						; size = 4
_poArgs$ = 12						; size = 4
?wndImageSetDelay@@YAPAU_object@@PAU1@0@Z PROC		; wndImageSetDelay, COMDAT

; 2102 : {

  00000	55		 push	 ebp
  00001	8b ec		 mov	 ebp, esp
  00003	83 ec 08	 sub	 esp, 8

; 2103 : 	UI::CWindow * pWindow;
; 2104 : 	if (!PyTuple_GetWindow(poArgs, 0, &pWindow))

  00006	8d 45 f8	 lea	 eax, DWORD PTR _pWindow$[ebp]
  00009	50		 push	 eax
  0000a	6a 00		 push	 0
  0000c	ff 75 0c	 push	 DWORD PTR _poArgs$[ebp]
  0000f	e8 00 00 00 00	 call	 ?PyTuple_GetWindow@@YA_NPAU_object@@HPAPAVCWindow@UI@@@Z ; PyTuple_GetWindow
  00014	83 c4 0c	 add	 esp, 12			; 0000000cH
  00017	84 c0		 test	 al, al
  00019	75 0e		 jne	 SHORT $LN2@wndImageSe
$LN5@wndImageSe:

; 2113 : }

  0001b	6a 00		 push	 0
  0001d	e8 00 00 00 00	 call	 ?Py_BuildException@@YAPAU_object@@PBDZZ ; Py_BuildException
  00022	83 c4 04	 add	 esp, 4
  00025	8b e5		 mov	 esp, ebp
  00027	5d		 pop	 ebp
  00028	c3		 ret	 0
$LN2@wndImageSe:

; 2105 : 		return Py_BuildException();
; 2106 : 	float fDelay;
; 2107 : 	if (!PyTuple_GetFloat(poArgs, 1, &fDelay))

  00029	8d 45 fc	 lea	 eax, DWORD PTR _fDelay$[ebp]
  0002c	50		 push	 eax
  0002d	6a 01		 push	 1
  0002f	ff 75 0c	 push	 DWORD PTR _poArgs$[ebp]
  00032	e8 00 00 00 00	 call	 ?PyTuple_GetFloat@@YA_NPAU_object@@HPAM@Z ; PyTuple_GetFloat
  00037	83 c4 0c	 add	 esp, 12			; 0000000cH
  0003a	84 c0		 test	 al, al
  0003c	74 dd		 je	 SHORT $LN5@wndImageSe

; 2108 : 		return Py_BuildException();
; 2109 : 
; 2110 : 	((UI::CAniImageBox*)pWindow)->SetDelay(fDelay);

  0003e	f3 0f 2c 45 fc	 cvttss2si eax, DWORD PTR _fDelay$[ebp]
  00043	8b 4d f8	 mov	 ecx, DWORD PTR _pWindow$[ebp]
  00046	50		 push	 eax
  00047	e8 00 00 00 00	 call	 ?SetDelay@CAniImageBox@UI@@QAEXH@Z ; UI::CAniImageBox::SetDelay

; 2111 : 
; 2112 : 	return Py_BuildNone();

  0004c	e8 00 00 00 00	 call	 ?Py_BuildNone@@YAPAU_object@@XZ ; Py_BuildNone

; 2113 : }

  00051	8b e5		 mov	 esp, ebp
  00053	5d		 pop	 ebp
  00054	c3		 ret	 0
?wndImageSetDelay@@YAPAU_object@@PAU1@0@Z ENDP		; wndImageSetDelay
_TEXT	ENDS
; Function compile flags: /Ogtp
; File C:\DS Project\DS Files\Source\ClientSource\Client\eterPythonLib\PythonWindowManagerModule.cpp
;	COMDAT ?wndImageSetRenderingMode@@YAPAU_object@@PAU1@0@Z
_TEXT	SEGMENT
_iMode$ = -8						; size = 4
_pWindow$ = -4						; size = 4
_poSelf$ = 8						; size = 4
_poArgs$ = 12						; size = 4
?wndImageSetRenderingMode@@YAPAU_object@@PAU1@0@Z PROC	; wndImageSetRenderingMode, COMDAT

; 2088 : {

  00000	55		 push	 ebp
  00001	8b ec		 mov	 ebp, esp
  00003	83 ec 08	 sub	 esp, 8

; 2089 : 	UI::CWindow * pWindow;
; 2090 : 	if (!PyTuple_GetWindow(poArgs, 0, &pWindow))

  00006	8d 45 fc	 lea	 eax, DWORD PTR _pWindow$[ebp]
  00009	56		 push	 esi
  0000a	8b 75 0c	 mov	 esi, DWORD PTR _poArgs$[ebp]
  0000d	50		 push	 eax
  0000e	6a 00		 push	 0
  00010	56		 push	 esi
  00011	e8 00 00 00 00	 call	 ?PyTuple_GetWindow@@YA_NPAU_object@@HPAPAVCWindow@UI@@@Z ; PyTuple_GetWindow
  00016	83 c4 0c	 add	 esp, 12			; 0000000cH
  00019	84 c0		 test	 al, al
  0001b	75 0f		 jne	 SHORT $LN2@wndImageSe
$LN6@wndImageSe:

; 2100 : }

  0001d	6a 00		 push	 0
  0001f	e8 00 00 00 00	 call	 ?Py_BuildException@@YAPAU_object@@PBDZZ ; Py_BuildException
  00024	83 c4 04	 add	 esp, 4
  00027	5e		 pop	 esi
  00028	8b e5		 mov	 esp, ebp
  0002a	5d		 pop	 ebp
  0002b	c3		 ret	 0
$LN2@wndImageSe:

; 2091 : 		return Py_BuildException();
; 2092 : 	int iMode;
; 2093 : 	if (!PyTuple_GetInteger(poArgs, 1, &iMode))

  0002c	8d 45 f8	 lea	 eax, DWORD PTR _iMode$[ebp]
  0002f	50		 push	 eax
  00030	6a 01		 push	 1
  00032	56		 push	 esi
  00033	e8 00 00 00 00	 call	 ?PyTuple_GetInteger@@YA_NPAU_object@@HPAH@Z ; PyTuple_GetInteger
  00038	83 c4 0c	 add	 esp, 12			; 0000000cH
  0003b	84 c0		 test	 al, al
  0003d	74 de		 je	 SHORT $LN6@wndImageSe

; 2094 : 		return Py_BuildException();
; 2095 : 
; 2096 : 	if (pWindow->IsType(UI::CExpandedImageBox::Type()))

  0003f	e8 00 00 00 00	 call	 ?Type@CExpandedImageBox@UI@@SAKXZ ; UI::CExpandedImageBox::Type
  00044	8b 75 fc	 mov	 esi, DWORD PTR _pWindow$[ebp]
  00047	8b ce		 mov	 ecx, esi
  00049	50		 push	 eax
  0004a	e8 00 00 00 00	 call	 ?IsType@CWindow@UI@@QAEHK@Z ; UI::CWindow::IsType
  0004f	85 c0		 test	 eax, eax
  00051	74 0a		 je	 SHORT $LN4@wndImageSe

; 2097 : 		((UI::CExpandedImageBox*)pWindow)->SetRenderingMode(iMode);

  00053	ff 75 f8	 push	 DWORD PTR _iMode$[ebp]
  00056	8b ce		 mov	 ecx, esi
  00058	e8 00 00 00 00	 call	 ?SetRenderingMode@CExpandedImageBox@UI@@QAEXH@Z ; UI::CExpandedImageBox::SetRenderingMode
$LN4@wndImageSe:

; 2098 : 
; 2099 : 	return Py_BuildNone();

  0005d	e8 00 00 00 00	 call	 ?Py_BuildNone@@YAPAU_object@@XZ ; Py_BuildNone
  00062	5e		 pop	 esi

; 2100 : }

  00063	8b e5		 mov	 esp, ebp
  00065	5d		 pop	 ebp
  00066	c3		 ret	 0
?wndImageSetRenderingMode@@YAPAU_object@@PAU1@0@Z ENDP	; wndImageSetRenderingMode
_TEXT	ENDS
; Function compile flags: /Ogtp
; File C:\DS Project\DS Files\Source\ClientSource\Client\eterPythonLib\PythonWindowManagerModule.cpp
;	COMDAT ?wndImageSetRenderingRect@@YAPAU_object@@PAU1@0@Z
_TEXT	SEGMENT
_pWindow$ = -20						; size = 4
_fLeft$ = -16						; size = 4
_fTop$ = -12						; size = 4
_fRight$ = -8						; size = 4
_fBottom$ = -4						; size = 4
_poSelf$ = 8						; size = 4
_poArgs$ = 12						; size = 4
?wndImageSetRenderingRect@@YAPAU_object@@PAU1@0@Z PROC	; wndImageSetRenderingRect, COMDAT

; 2063 : {

  00000	55		 push	 ebp
  00001	8b ec		 mov	 ebp, esp
  00003	83 ec 14	 sub	 esp, 20			; 00000014H

; 2064 : 	UI::CWindow * pWindow;
; 2065 : 	if (!PyTuple_GetWindow(poArgs, 0, &pWindow))

  00006	8d 45 ec	 lea	 eax, DWORD PTR _pWindow$[ebp]
  00009	56		 push	 esi
  0000a	8b 75 0c	 mov	 esi, DWORD PTR _poArgs$[ebp]
  0000d	50		 push	 eax
  0000e	6a 00		 push	 0
  00010	56		 push	 esi
  00011	e8 00 00 00 00	 call	 ?PyTuple_GetWindow@@YA_NPAU_object@@HPAPAVCWindow@UI@@@Z ; PyTuple_GetWindow
  00016	83 c4 0c	 add	 esp, 12			; 0000000cH
  00019	84 c0		 test	 al, al
  0001b	75 0f		 jne	 SHORT $LN2@wndImageSe
$LN11@wndImageSe:

; 2086 : }

  0001d	6a 00		 push	 0
  0001f	e8 00 00 00 00	 call	 ?Py_BuildException@@YAPAU_object@@PBDZZ ; Py_BuildException
  00024	83 c4 04	 add	 esp, 4
  00027	5e		 pop	 esi
  00028	8b e5		 mov	 esp, ebp
  0002a	5d		 pop	 ebp
  0002b	c3		 ret	 0
$LN2@wndImageSe:

; 2066 : 		return Py_BuildException();
; 2067 : 	float fLeft;
; 2068 : 	if (!PyTuple_GetFloat(poArgs, 1, &fLeft))

  0002c	8d 45 f0	 lea	 eax, DWORD PTR _fLeft$[ebp]
  0002f	50		 push	 eax
  00030	6a 01		 push	 1
  00032	56		 push	 esi
  00033	e8 00 00 00 00	 call	 ?PyTuple_GetFloat@@YA_NPAU_object@@HPAM@Z ; PyTuple_GetFloat
  00038	83 c4 0c	 add	 esp, 12			; 0000000cH
  0003b	84 c0		 test	 al, al
  0003d	74 de		 je	 SHORT $LN11@wndImageSe

; 2069 : 		return Py_BuildException();
; 2070 : 	float fTop;
; 2071 : 	if (!PyTuple_GetFloat(poArgs, 2, &fTop))

  0003f	8d 45 f4	 lea	 eax, DWORD PTR _fTop$[ebp]
  00042	50		 push	 eax
  00043	6a 02		 push	 2
  00045	56		 push	 esi
  00046	e8 00 00 00 00	 call	 ?PyTuple_GetFloat@@YA_NPAU_object@@HPAM@Z ; PyTuple_GetFloat
  0004b	83 c4 0c	 add	 esp, 12			; 0000000cH
  0004e	84 c0		 test	 al, al
  00050	74 cb		 je	 SHORT $LN11@wndImageSe

; 2072 : 		return Py_BuildException();
; 2073 : 	float fRight;
; 2074 : 	if (!PyTuple_GetFloat(poArgs, 3, &fRight))

  00052	8d 45 f8	 lea	 eax, DWORD PTR _fRight$[ebp]
  00055	50		 push	 eax
  00056	6a 03		 push	 3
  00058	56		 push	 esi
  00059	e8 00 00 00 00	 call	 ?PyTuple_GetFloat@@YA_NPAU_object@@HPAM@Z ; PyTuple_GetFloat
  0005e	83 c4 0c	 add	 esp, 12			; 0000000cH
  00061	84 c0		 test	 al, al
  00063	74 b8		 je	 SHORT $LN11@wndImageSe

; 2075 : 		return Py_BuildException();
; 2076 : 	float fBottom;
; 2077 : 	if (!PyTuple_GetFloat(poArgs, 4, &fBottom))

  00065	8d 45 fc	 lea	 eax, DWORD PTR _fBottom$[ebp]
  00068	50		 push	 eax
  00069	6a 04		 push	 4
  0006b	56		 push	 esi
  0006c	e8 00 00 00 00	 call	 ?PyTuple_GetFloat@@YA_NPAU_object@@HPAM@Z ; PyTuple_GetFloat
  00071	83 c4 0c	 add	 esp, 12			; 0000000cH
  00074	84 c0		 test	 al, al
  00076	74 a5		 je	 SHORT $LN11@wndImageSe

; 2078 : 		return Py_BuildException();
; 2079 : 
; 2080 : 	if (pWindow->IsType(UI::CExpandedImageBox::Type()))

  00078	e8 00 00 00 00	 call	 ?Type@CExpandedImageBox@UI@@SAKXZ ; UI::CExpandedImageBox::Type
  0007d	8b 75 ec	 mov	 esi, DWORD PTR _pWindow$[ebp]
  00080	8b ce		 mov	 ecx, esi
  00082	50		 push	 eax
  00083	e8 00 00 00 00	 call	 ?IsType@CWindow@UI@@QAEHK@Z ; UI::CWindow::IsType
  00088	85 c0		 test	 eax, eax
  0008a	74 3f		 je	 SHORT $LN7@wndImageSe

; 2081 : 		((UI::CExpandedImageBox*)pWindow)->SetRenderingRect(fLeft, fTop, fRight, fBottom);

  0008c	f3 0f 10 45 fc	 movss	 xmm0, DWORD PTR _fBottom$[ebp]
  00091	83 ec 10	 sub	 esp, 16			; 00000010H
  00094	8b ce		 mov	 ecx, esi
  00096	f3 0f 11 44 24
	0c		 movss	 DWORD PTR [esp+12], xmm0
  0009c	f3 0f 10 45 f8	 movss	 xmm0, DWORD PTR _fRight$[ebp]
  000a1	f3 0f 11 44 24
	08		 movss	 DWORD PTR [esp+8], xmm0
  000a7	f3 0f 10 45 f4	 movss	 xmm0, DWORD PTR _fTop$[ebp]
  000ac	f3 0f 11 44 24
	04		 movss	 DWORD PTR [esp+4], xmm0
  000b2	f3 0f 10 45 f0	 movss	 xmm0, DWORD PTR _fLeft$[ebp]
  000b7	f3 0f 11 04 24	 movss	 DWORD PTR [esp], xmm0
  000bc	e8 00 00 00 00	 call	 ?SetRenderingRect@CExpandedImageBox@UI@@QAEXMMMM@Z ; UI::CExpandedImageBox::SetRenderingRect

; 2084 : 
; 2085 : 	return Py_BuildNone();

  000c1	e8 00 00 00 00	 call	 ?Py_BuildNone@@YAPAU_object@@XZ ; Py_BuildNone
  000c6	5e		 pop	 esi

; 2086 : }

  000c7	8b e5		 mov	 esp, ebp
  000c9	5d		 pop	 ebp
  000ca	c3		 ret	 0
$LN7@wndImageSe:

; 2082 : 	else if (pWindow->IsType(UI::CAniImageBox::Type()))

  000cb	e8 00 00 00 00	 call	 ?Type@CAniImageBox@UI@@SAKXZ ; UI::CAniImageBox::Type
  000d0	50		 push	 eax
  000d1	8b ce		 mov	 ecx, esi
  000d3	e8 00 00 00 00	 call	 ?IsType@CWindow@UI@@QAEHK@Z ; UI::CWindow::IsType
  000d8	85 c0		 test	 eax, eax
  000da	74 35		 je	 SHORT $LN9@wndImageSe

; 2083 : 		((UI::CAniImageBox*)pWindow)->SetRenderingRect(fLeft, fTop, fRight, fBottom);

  000dc	f3 0f 10 45 fc	 movss	 xmm0, DWORD PTR _fBottom$[ebp]
  000e1	83 ec 10	 sub	 esp, 16			; 00000010H
  000e4	8b ce		 mov	 ecx, esi
  000e6	f3 0f 11 44 24
	0c		 movss	 DWORD PTR [esp+12], xmm0
  000ec	f3 0f 10 45 f8	 movss	 xmm0, DWORD PTR _fRight$[ebp]
  000f1	f3 0f 11 44 24
	08		 movss	 DWORD PTR [esp+8], xmm0
  000f7	f3 0f 10 45 f4	 movss	 xmm0, DWORD PTR _fTop$[ebp]
  000fc	f3 0f 11 44 24
	04		 movss	 DWORD PTR [esp+4], xmm0
  00102	f3 0f 10 45 f0	 movss	 xmm0, DWORD PTR _fLeft$[ebp]
  00107	f3 0f 11 04 24	 movss	 DWORD PTR [esp], xmm0
  0010c	e8 00 00 00 00	 call	 ?SetRenderingRect@CAniImageBox@UI@@QAEXMMMM@Z ; UI::CAniImageBox::SetRenderingRect
$LN9@wndImageSe:

; 2084 : 
; 2085 : 	return Py_BuildNone();

  00111	e8 00 00 00 00	 call	 ?Py_BuildNone@@YAPAU_object@@XZ ; Py_BuildNone
  00116	5e		 pop	 esi

; 2086 : }

  00117	8b e5		 mov	 esp, ebp
  00119	5d		 pop	 ebp
  0011a	c3		 ret	 0
?wndImageSetRenderingRect@@YAPAU_object@@PAU1@0@Z ENDP	; wndImageSetRenderingRect
_TEXT	ENDS
; Function compile flags: /Ogtp
; File C:\DS Project\DS Files\Source\ClientSource\Client\eterPythonLib\PythonWindowManagerModule.cpp
;	COMDAT ?wndImageSetRotation@@YAPAU_object@@PAU1@0@Z
_TEXT	SEGMENT
_pWindow$ = -8						; size = 4
_fRotation$ = -4					; size = 4
_poSelf$ = 8						; size = 4
_poArgs$ = 12						; size = 4
?wndImageSetRotation@@YAPAU_object@@PAU1@0@Z PROC	; wndImageSetRotation, COMDAT

; 2050 : {

  00000	55		 push	 ebp
  00001	8b ec		 mov	 ebp, esp
  00003	83 ec 08	 sub	 esp, 8

; 2051 : 	UI::CWindow * pWindow;
; 2052 : 	if (!PyTuple_GetWindow(poArgs, 0, &pWindow))

  00006	8d 45 f8	 lea	 eax, DWORD PTR _pWindow$[ebp]
  00009	50		 push	 eax
  0000a	6a 00		 push	 0
  0000c	ff 75 0c	 push	 DWORD PTR _poArgs$[ebp]
  0000f	e8 00 00 00 00	 call	 ?PyTuple_GetWindow@@YA_NPAU_object@@HPAPAVCWindow@UI@@@Z ; PyTuple_GetWindow
  00014	83 c4 0c	 add	 esp, 12			; 0000000cH
  00017	84 c0		 test	 al, al
  00019	75 0e		 jne	 SHORT $LN2@wndImageSe
$LN5@wndImageSe:

; 2061 : }

  0001b	6a 00		 push	 0
  0001d	e8 00 00 00 00	 call	 ?Py_BuildException@@YAPAU_object@@PBDZZ ; Py_BuildException
  00022	83 c4 04	 add	 esp, 4
  00025	8b e5		 mov	 esp, ebp
  00027	5d		 pop	 ebp
  00028	c3		 ret	 0
$LN2@wndImageSe:

; 2053 : 		return Py_BuildException();
; 2054 : 	float fRotation;
; 2055 : 	if (!PyTuple_GetFloat(poArgs, 1, &fRotation))

  00029	8d 45 fc	 lea	 eax, DWORD PTR _fRotation$[ebp]
  0002c	50		 push	 eax
  0002d	6a 01		 push	 1
  0002f	ff 75 0c	 push	 DWORD PTR _poArgs$[ebp]
  00032	e8 00 00 00 00	 call	 ?PyTuple_GetFloat@@YA_NPAU_object@@HPAM@Z ; PyTuple_GetFloat
  00037	83 c4 0c	 add	 esp, 12			; 0000000cH
  0003a	84 c0		 test	 al, al
  0003c	74 dd		 je	 SHORT $LN5@wndImageSe

; 2056 : 		return Py_BuildException();
; 2057 : 
; 2058 : 	((UI::CExpandedImageBox*)pWindow)->SetRotation(fRotation);

  0003e	f3 0f 10 45 fc	 movss	 xmm0, DWORD PTR _fRotation$[ebp]
  00043	51		 push	 ecx
  00044	8b 4d f8	 mov	 ecx, DWORD PTR _pWindow$[ebp]
  00047	f3 0f 11 04 24	 movss	 DWORD PTR [esp], xmm0
  0004c	e8 00 00 00 00	 call	 ?SetRotation@CExpandedImageBox@UI@@QAEXM@Z ; UI::CExpandedImageBox::SetRotation

; 2059 : 
; 2060 : 	return Py_BuildNone();

  00051	e8 00 00 00 00	 call	 ?Py_BuildNone@@YAPAU_object@@XZ ; Py_BuildNone

; 2061 : }

  00056	8b e5		 mov	 esp, ebp
  00058	5d		 pop	 ebp
  00059	c3		 ret	 0
?wndImageSetRotation@@YAPAU_object@@PAU1@0@Z ENDP	; wndImageSetRotation
_TEXT	ENDS
; Function compile flags: /Ogtp
; File C:\DS Project\DS Files\Source\ClientSource\Client\eterPythonLib\PythonWindowManagerModule.cpp
;	COMDAT ?wndImageSetOrigin@@YAPAU_object@@PAU1@0@Z
_TEXT	SEGMENT
_pWindow$ = -12						; size = 4
_fx$ = -8						; size = 4
_fy$ = -4						; size = 4
_poSelf$ = 8						; size = 4
_poArgs$ = 12						; size = 4
?wndImageSetOrigin@@YAPAU_object@@PAU1@0@Z PROC		; wndImageSetOrigin, COMDAT

; 2034 : {

  00000	55		 push	 ebp
  00001	8b ec		 mov	 ebp, esp
  00003	83 ec 0c	 sub	 esp, 12			; 0000000cH

; 2035 : 	UI::CWindow * pWindow;
; 2036 : 	if (!PyTuple_GetWindow(poArgs, 0, &pWindow))

  00006	8d 45 f4	 lea	 eax, DWORD PTR _pWindow$[ebp]
  00009	56		 push	 esi
  0000a	8b 75 0c	 mov	 esi, DWORD PTR _poArgs$[ebp]
  0000d	50		 push	 eax
  0000e	6a 00		 push	 0
  00010	56		 push	 esi
  00011	e8 00 00 00 00	 call	 ?PyTuple_GetWindow@@YA_NPAU_object@@HPAPAVCWindow@UI@@@Z ; PyTuple_GetWindow
  00016	83 c4 0c	 add	 esp, 12			; 0000000cH
  00019	84 c0		 test	 al, al
  0001b	75 0f		 jne	 SHORT $LN2@wndImageSe
$LN6@wndImageSe:

; 2048 : }

  0001d	6a 00		 push	 0
  0001f	e8 00 00 00 00	 call	 ?Py_BuildException@@YAPAU_object@@PBDZZ ; Py_BuildException
  00024	83 c4 04	 add	 esp, 4
  00027	5e		 pop	 esi
  00028	8b e5		 mov	 esp, ebp
  0002a	5d		 pop	 ebp
  0002b	c3		 ret	 0
$LN2@wndImageSe:

; 2037 : 		return Py_BuildException();
; 2038 : 	float fx;
; 2039 : 	if (!PyTuple_GetFloat(poArgs, 1, &fx))

  0002c	8d 45 f8	 lea	 eax, DWORD PTR _fx$[ebp]
  0002f	50		 push	 eax
  00030	6a 01		 push	 1
  00032	56		 push	 esi
  00033	e8 00 00 00 00	 call	 ?PyTuple_GetFloat@@YA_NPAU_object@@HPAM@Z ; PyTuple_GetFloat
  00038	83 c4 0c	 add	 esp, 12			; 0000000cH
  0003b	84 c0		 test	 al, al
  0003d	74 de		 je	 SHORT $LN6@wndImageSe

; 2040 : 		return Py_BuildException();
; 2041 : 	float fy;
; 2042 : 	if (!PyTuple_GetFloat(poArgs, 2, &fy))

  0003f	8d 45 fc	 lea	 eax, DWORD PTR _fy$[ebp]
  00042	50		 push	 eax
  00043	6a 02		 push	 2
  00045	56		 push	 esi
  00046	e8 00 00 00 00	 call	 ?PyTuple_GetFloat@@YA_NPAU_object@@HPAM@Z ; PyTuple_GetFloat
  0004b	83 c4 0c	 add	 esp, 12			; 0000000cH
  0004e	84 c0		 test	 al, al
  00050	74 cb		 je	 SHORT $LN6@wndImageSe

; 2043 : 		return Py_BuildException();
; 2044 : 
; 2045 : 	((UI::CExpandedImageBox*)pWindow)->SetOrigin(fx, fy);

  00052	f3 0f 10 45 fc	 movss	 xmm0, DWORD PTR _fy$[ebp]
  00057	83 ec 08	 sub	 esp, 8
  0005a	8b 4d f4	 mov	 ecx, DWORD PTR _pWindow$[ebp]
  0005d	f3 0f 11 44 24
	04		 movss	 DWORD PTR [esp+4], xmm0
  00063	f3 0f 10 45 f8	 movss	 xmm0, DWORD PTR _fx$[ebp]
  00068	f3 0f 11 04 24	 movss	 DWORD PTR [esp], xmm0
  0006d	e8 00 00 00 00	 call	 ?SetOrigin@CExpandedImageBox@UI@@QAEXMM@Z ; UI::CExpandedImageBox::SetOrigin

; 2046 : 
; 2047 : 	return Py_BuildNone();

  00072	e8 00 00 00 00	 call	 ?Py_BuildNone@@YAPAU_object@@XZ ; Py_BuildNone
  00077	5e		 pop	 esi

; 2048 : }

  00078	8b e5		 mov	 esp, ebp
  0007a	5d		 pop	 ebp
  0007b	c3		 ret	 0
?wndImageSetOrigin@@YAPAU_object@@PAU1@0@Z ENDP		; wndImageSetOrigin
_TEXT	ENDS
; Function compile flags: /Ogtp
; File C:\DS Project\DS Files\Source\ClientSource\Client\eterPythonLib\PythonWindowManagerModule.cpp
;	COMDAT ?wndImageSetScale@@YAPAU_object@@PAU1@0@Z
_TEXT	SEGMENT
_pWindow$ = -12						; size = 4
_fx$ = -8						; size = 4
_fy$ = -4						; size = 4
_poSelf$ = 8						; size = 4
_poArgs$ = 12						; size = 4
?wndImageSetScale@@YAPAU_object@@PAU1@0@Z PROC		; wndImageSetScale, COMDAT

; 2018 : {

  00000	55		 push	 ebp
  00001	8b ec		 mov	 ebp, esp
  00003	83 ec 0c	 sub	 esp, 12			; 0000000cH

; 2019 : 	UI::CWindow * pWindow;
; 2020 : 	if (!PyTuple_GetWindow(poArgs, 0, &pWindow))

  00006	8d 45 f4	 lea	 eax, DWORD PTR _pWindow$[ebp]
  00009	56		 push	 esi
  0000a	8b 75 0c	 mov	 esi, DWORD PTR _poArgs$[ebp]
  0000d	50		 push	 eax
  0000e	6a 00		 push	 0
  00010	56		 push	 esi
  00011	e8 00 00 00 00	 call	 ?PyTuple_GetWindow@@YA_NPAU_object@@HPAPAVCWindow@UI@@@Z ; PyTuple_GetWindow
  00016	83 c4 0c	 add	 esp, 12			; 0000000cH
  00019	84 c0		 test	 al, al
  0001b	75 0f		 jne	 SHORT $LN2@wndImageSe
$LN6@wndImageSe:

; 2032 : }

  0001d	6a 00		 push	 0
  0001f	e8 00 00 00 00	 call	 ?Py_BuildException@@YAPAU_object@@PBDZZ ; Py_BuildException
  00024	83 c4 04	 add	 esp, 4
  00027	5e		 pop	 esi
  00028	8b e5		 mov	 esp, ebp
  0002a	5d		 pop	 ebp
  0002b	c3		 ret	 0
$LN2@wndImageSe:

; 2021 : 		return Py_BuildException();
; 2022 : 	float fx;
; 2023 : 	if (!PyTuple_GetFloat(poArgs, 1, &fx))

  0002c	8d 45 f8	 lea	 eax, DWORD PTR _fx$[ebp]
  0002f	50		 push	 eax
  00030	6a 01		 push	 1
  00032	56		 push	 esi
  00033	e8 00 00 00 00	 call	 ?PyTuple_GetFloat@@YA_NPAU_object@@HPAM@Z ; PyTuple_GetFloat
  00038	83 c4 0c	 add	 esp, 12			; 0000000cH
  0003b	84 c0		 test	 al, al
  0003d	74 de		 je	 SHORT $LN6@wndImageSe

; 2024 : 		return Py_BuildException();
; 2025 : 	float fy;
; 2026 : 	if (!PyTuple_GetFloat(poArgs, 2, &fy))

  0003f	8d 45 fc	 lea	 eax, DWORD PTR _fy$[ebp]
  00042	50		 push	 eax
  00043	6a 02		 push	 2
  00045	56		 push	 esi
  00046	e8 00 00 00 00	 call	 ?PyTuple_GetFloat@@YA_NPAU_object@@HPAM@Z ; PyTuple_GetFloat
  0004b	83 c4 0c	 add	 esp, 12			; 0000000cH
  0004e	84 c0		 test	 al, al
  00050	74 cb		 je	 SHORT $LN6@wndImageSe

; 2027 : 		return Py_BuildException();
; 2028 : 
; 2029 : 	((UI::CExpandedImageBox*)pWindow)->SetScale(fx, fy);

  00052	f3 0f 10 45 fc	 movss	 xmm0, DWORD PTR _fy$[ebp]
  00057	83 ec 08	 sub	 esp, 8
  0005a	8b 4d f4	 mov	 ecx, DWORD PTR _pWindow$[ebp]
  0005d	f3 0f 11 44 24
	04		 movss	 DWORD PTR [esp+4], xmm0
  00063	f3 0f 10 45 f8	 movss	 xmm0, DWORD PTR _fx$[ebp]
  00068	f3 0f 11 04 24	 movss	 DWORD PTR [esp], xmm0
  0006d	e8 00 00 00 00	 call	 ?SetScale@CExpandedImageBox@UI@@QAEXMM@Z ; UI::CExpandedImageBox::SetScale

; 2030 : 
; 2031 : 	return Py_BuildNone();

  00072	e8 00 00 00 00	 call	 ?Py_BuildNone@@YAPAU_object@@XZ ; Py_BuildNone
  00077	5e		 pop	 esi

; 2032 : }

  00078	8b e5		 mov	 esp, ebp
  0007a	5d		 pop	 ebp
  0007b	c3		 ret	 0
?wndImageSetScale@@YAPAU_object@@PAU1@0@Z ENDP		; wndImageSetScale
_TEXT	ENDS
; Function compile flags: /Ogtp
; File C:\DS Project\DS Files\Source\ClientSource\Client\eterPythonLib\PythonWindowManagerModule.cpp
;	COMDAT ?wndImageGetHeight@@YAPAU_object@@PAU1@0@Z
_TEXT	SEGMENT
_pWindow$ = -4						; size = 4
_poSelf$ = 8						; size = 4
_poArgs$ = 12						; size = 4
?wndImageGetHeight@@YAPAU_object@@PAU1@0@Z PROC		; wndImageGetHeight, COMDAT

; 2009 : {

  00000	55		 push	 ebp
  00001	8b ec		 mov	 ebp, esp
  00003	51		 push	 ecx

; 2010 : 	UI::CWindow * pWindow;
; 2011 : 	if (!PyTuple_GetWindow(poArgs, 0, &pWindow))

  00004	8d 45 fc	 lea	 eax, DWORD PTR _pWindow$[ebp]
  00007	50		 push	 eax
  00008	6a 00		 push	 0
  0000a	ff 75 0c	 push	 DWORD PTR _poArgs$[ebp]
  0000d	e8 00 00 00 00	 call	 ?PyTuple_GetWindow@@YA_NPAU_object@@HPAPAVCWindow@UI@@@Z ; PyTuple_GetWindow
  00012	83 c4 0c	 add	 esp, 12			; 0000000cH
  00015	84 c0		 test	 al, al
  00017	75 0e		 jne	 SHORT $LN2@wndImageGe

; 2012 : 		return Py_BuildException();

  00019	6a 00		 push	 0
  0001b	e8 00 00 00 00	 call	 ?Py_BuildException@@YAPAU_object@@PBDZZ ; Py_BuildException
  00020	83 c4 04	 add	 esp, 4

; 2015 : }

  00023	8b e5		 mov	 esp, ebp
  00025	5d		 pop	 ebp
  00026	c3		 ret	 0
$LN2@wndImageGe:

; 2013 : 
; 2014 : 	return Py_BuildValue("i", ((UI::CImageBox*)pWindow)->GetHeight());

  00027	8b 4d fc	 mov	 ecx, DWORD PTR _pWindow$[ebp]
  0002a	e8 00 00 00 00	 call	 ?GetHeight@CImageBox@UI@@QAEHXZ ; UI::CImageBox::GetHeight
  0002f	50		 push	 eax
  00030	68 00 00 00 00	 push	 OFFSET ??_C@_01KBJDNOO@i@
  00035	ff 15 00 00 00
	00		 call	 DWORD PTR __imp__Py_BuildValue
  0003b	83 c4 08	 add	 esp, 8

; 2015 : }

  0003e	8b e5		 mov	 esp, ebp
  00040	5d		 pop	 ebp
  00041	c3		 ret	 0
?wndImageGetHeight@@YAPAU_object@@PAU1@0@Z ENDP		; wndImageGetHeight
_TEXT	ENDS
; Function compile flags: /Ogtp
; File C:\DS Project\DS Files\Source\ClientSource\Client\eterPythonLib\PythonWindowManagerModule.cpp
;	COMDAT ?wndImageGetWidth@@YAPAU_object@@PAU1@0@Z
_TEXT	SEGMENT
_pWindow$ = -4						; size = 4
_poSelf$ = 8						; size = 4
_poArgs$ = 12						; size = 4
?wndImageGetWidth@@YAPAU_object@@PAU1@0@Z PROC		; wndImageGetWidth, COMDAT

; 2000 : {

  00000	55		 push	 ebp
  00001	8b ec		 mov	 ebp, esp
  00003	51		 push	 ecx

; 2001 : 	UI::CWindow * pWindow;
; 2002 : 	if (!PyTuple_GetWindow(poArgs, 0, &pWindow))

  00004	8d 45 fc	 lea	 eax, DWORD PTR _pWindow$[ebp]
  00007	50		 push	 eax
  00008	6a 00		 push	 0
  0000a	ff 75 0c	 push	 DWORD PTR _poArgs$[ebp]
  0000d	e8 00 00 00 00	 call	 ?PyTuple_GetWindow@@YA_NPAU_object@@HPAPAVCWindow@UI@@@Z ; PyTuple_GetWindow
  00012	83 c4 0c	 add	 esp, 12			; 0000000cH
  00015	84 c0		 test	 al, al
  00017	75 0e		 jne	 SHORT $LN2@wndImageGe

; 2003 : 		return Py_BuildException();

  00019	6a 00		 push	 0
  0001b	e8 00 00 00 00	 call	 ?Py_BuildException@@YAPAU_object@@PBDZZ ; Py_BuildException
  00020	83 c4 04	 add	 esp, 4

; 2006 : }

  00023	8b e5		 mov	 esp, ebp
  00025	5d		 pop	 ebp
  00026	c3		 ret	 0
$LN2@wndImageGe:

; 2004 : 
; 2005 : 	return Py_BuildValue("i", ((UI::CImageBox*)pWindow)->GetWidth());

  00027	8b 4d fc	 mov	 ecx, DWORD PTR _pWindow$[ebp]
  0002a	e8 00 00 00 00	 call	 ?GetWidth@CImageBox@UI@@QAEHXZ ; UI::CImageBox::GetWidth
  0002f	50		 push	 eax
  00030	68 00 00 00 00	 push	 OFFSET ??_C@_01KBJDNOO@i@
  00035	ff 15 00 00 00
	00		 call	 DWORD PTR __imp__Py_BuildValue
  0003b	83 c4 08	 add	 esp, 8

; 2006 : }

  0003e	8b e5		 mov	 esp, ebp
  00040	5d		 pop	 ebp
  00041	c3		 ret	 0
?wndImageGetWidth@@YAPAU_object@@PAU1@0@Z ENDP		; wndImageGetWidth
_TEXT	ENDS
; Function compile flags: /Ogtp
; File C:\DS Project\DS Files\Source\ClientSource\Client\eterPythonLib\PythonWindowManagerModule.cpp
;	COMDAT ?wndImageSetDiffuseColor@@YAPAU_object@@PAU1@0@Z
_TEXT	SEGMENT
_pWindow$ = -20						; size = 4
_fr$ = -16						; size = 4
_fg$ = -12						; size = 4
_fb$ = -8						; size = 4
_fa$ = -4						; size = 4
_poSelf$ = 8						; size = 4
_poArgs$ = 12						; size = 4
?wndImageSetDiffuseColor@@YAPAU_object@@PAU1@0@Z PROC	; wndImageSetDiffuseColor, COMDAT

; 1977 : {

  00000	55		 push	 ebp
  00001	8b ec		 mov	 ebp, esp
  00003	83 ec 14	 sub	 esp, 20			; 00000014H

; 1978 : 	UI::CWindow * pWindow;
; 1979 : 	if (!PyTuple_GetWindow(poArgs, 0, &pWindow))

  00006	8d 45 ec	 lea	 eax, DWORD PTR _pWindow$[ebp]
  00009	56		 push	 esi
  0000a	8b 75 0c	 mov	 esi, DWORD PTR _poArgs$[ebp]
  0000d	50		 push	 eax
  0000e	6a 00		 push	 0
  00010	56		 push	 esi
  00011	e8 00 00 00 00	 call	 ?PyTuple_GetWindow@@YA_NPAU_object@@HPAPAVCWindow@UI@@@Z ; PyTuple_GetWindow
  00016	83 c4 0c	 add	 esp, 12			; 0000000cH
  00019	84 c0		 test	 al, al
  0001b	75 0f		 jne	 SHORT $LN2@wndImageSe
$LN8@wndImageSe:

; 1997 : }

  0001d	6a 00		 push	 0
  0001f	e8 00 00 00 00	 call	 ?Py_BuildException@@YAPAU_object@@PBDZZ ; Py_BuildException
  00024	83 c4 04	 add	 esp, 4
  00027	5e		 pop	 esi
  00028	8b e5		 mov	 esp, ebp
  0002a	5d		 pop	 ebp
  0002b	c3		 ret	 0
$LN2@wndImageSe:

; 1980 : 		return Py_BuildException();
; 1981 : 	float fr;
; 1982 : 	if (!PyTuple_GetFloat(poArgs, 1, &fr))

  0002c	8d 45 f0	 lea	 eax, DWORD PTR _fr$[ebp]
  0002f	50		 push	 eax
  00030	6a 01		 push	 1
  00032	56		 push	 esi
  00033	e8 00 00 00 00	 call	 ?PyTuple_GetFloat@@YA_NPAU_object@@HPAM@Z ; PyTuple_GetFloat
  00038	83 c4 0c	 add	 esp, 12			; 0000000cH
  0003b	84 c0		 test	 al, al
  0003d	74 de		 je	 SHORT $LN8@wndImageSe

; 1983 : 		return Py_BuildException();
; 1984 : 	float fg;
; 1985 : 	if (!PyTuple_GetFloat(poArgs, 2, &fg))

  0003f	8d 45 f4	 lea	 eax, DWORD PTR _fg$[ebp]
  00042	50		 push	 eax
  00043	6a 02		 push	 2
  00045	56		 push	 esi
  00046	e8 00 00 00 00	 call	 ?PyTuple_GetFloat@@YA_NPAU_object@@HPAM@Z ; PyTuple_GetFloat
  0004b	83 c4 0c	 add	 esp, 12			; 0000000cH
  0004e	84 c0		 test	 al, al
  00050	74 cb		 je	 SHORT $LN8@wndImageSe

; 1986 : 		return Py_BuildException();
; 1987 : 	float fb;
; 1988 : 	if (!PyTuple_GetFloat(poArgs, 3, &fb))

  00052	8d 45 f8	 lea	 eax, DWORD PTR _fb$[ebp]
  00055	50		 push	 eax
  00056	6a 03		 push	 3
  00058	56		 push	 esi
  00059	e8 00 00 00 00	 call	 ?PyTuple_GetFloat@@YA_NPAU_object@@HPAM@Z ; PyTuple_GetFloat
  0005e	83 c4 0c	 add	 esp, 12			; 0000000cH
  00061	84 c0		 test	 al, al
  00063	74 b8		 je	 SHORT $LN8@wndImageSe

; 1989 : 		return Py_BuildException();
; 1990 : 	float fa;
; 1991 : 	if (!PyTuple_GetFloat(poArgs, 4, &fa))

  00065	8d 45 fc	 lea	 eax, DWORD PTR _fa$[ebp]
  00068	50		 push	 eax
  00069	6a 04		 push	 4
  0006b	56		 push	 esi
  0006c	e8 00 00 00 00	 call	 ?PyTuple_GetFloat@@YA_NPAU_object@@HPAM@Z ; PyTuple_GetFloat
  00071	83 c4 0c	 add	 esp, 12			; 0000000cH
  00074	84 c0		 test	 al, al
  00076	74 a5		 je	 SHORT $LN8@wndImageSe

; 1992 : 		return Py_BuildException();
; 1993 : 
; 1994 : 	((UI::CImageBox*)pWindow)->SetDiffuseColor(fr, fg, fb, fa);

  00078	f3 0f 10 45 fc	 movss	 xmm0, DWORD PTR _fa$[ebp]
  0007d	83 ec 10	 sub	 esp, 16			; 00000010H
  00080	8b 4d ec	 mov	 ecx, DWORD PTR _pWindow$[ebp]
  00083	f3 0f 11 44 24
	0c		 movss	 DWORD PTR [esp+12], xmm0
  00089	f3 0f 10 45 f8	 movss	 xmm0, DWORD PTR _fb$[ebp]
  0008e	f3 0f 11 44 24
	08		 movss	 DWORD PTR [esp+8], xmm0
  00094	f3 0f 10 45 f4	 movss	 xmm0, DWORD PTR _fg$[ebp]
  00099	f3 0f 11 44 24
	04		 movss	 DWORD PTR [esp+4], xmm0
  0009f	f3 0f 10 45 f0	 movss	 xmm0, DWORD PTR _fr$[ebp]
  000a4	f3 0f 11 04 24	 movss	 DWORD PTR [esp], xmm0
  000a9	e8 00 00 00 00	 call	 ?SetDiffuseColor@CImageBox@UI@@QAEXMMMM@Z ; UI::CImageBox::SetDiffuseColor

; 1995 : 
; 1996 : 	return Py_BuildNone();

  000ae	e8 00 00 00 00	 call	 ?Py_BuildNone@@YAPAU_object@@XZ ; Py_BuildNone
  000b3	5e		 pop	 esi

; 1997 : }

  000b4	8b e5		 mov	 esp, ebp
  000b6	5d		 pop	 ebp
  000b7	c3		 ret	 0
?wndImageSetDiffuseColor@@YAPAU_object@@PAU1@0@Z ENDP	; wndImageSetDiffuseColor
_TEXT	ENDS
; Function compile flags: /Ogtp
; File C:\DS Project\DS Files\Source\ClientSource\Client\eterPythonLib\PythonWindowManagerModule.cpp
;	COMDAT ?wndImageLoadImage@@YAPAU_object@@PAU1@0@Z
_TEXT	SEGMENT
_pWindow$ = -8						; size = 4
_szFileName$ = -4					; size = 4
_poSelf$ = 8						; size = 4
_poArgs$ = 12						; size = 4
?wndImageLoadImage@@YAPAU_object@@PAU1@0@Z PROC		; wndImageLoadImage, COMDAT

; 1962 : {

  00000	55		 push	 ebp
  00001	8b ec		 mov	 ebp, esp
  00003	83 ec 08	 sub	 esp, 8

; 1963 : 	UI::CWindow * pWindow;
; 1964 : 	if (!PyTuple_GetWindow(poArgs, 0, &pWindow))

  00006	8d 45 f8	 lea	 eax, DWORD PTR _pWindow$[ebp]
  00009	50		 push	 eax
  0000a	6a 00		 push	 0
  0000c	ff 75 0c	 push	 DWORD PTR _poArgs$[ebp]
  0000f	e8 00 00 00 00	 call	 ?PyTuple_GetWindow@@YA_NPAU_object@@HPAPAVCWindow@UI@@@Z ; PyTuple_GetWindow
  00014	83 c4 0c	 add	 esp, 12			; 0000000cH
  00017	84 c0		 test	 al, al
  00019	75 0e		 jne	 SHORT $LN2@wndImageLo
$LN6@wndImageLo:

; 1974 : }

  0001b	6a 00		 push	 0
  0001d	e8 00 00 00 00	 call	 ?Py_BuildException@@YAPAU_object@@PBDZZ ; Py_BuildException
  00022	83 c4 04	 add	 esp, 4
  00025	8b e5		 mov	 esp, ebp
  00027	5d		 pop	 ebp
  00028	c3		 ret	 0
$LN2@wndImageLo:

; 1965 : 		return Py_BuildException();
; 1966 : 	char * szFileName;
; 1967 : 	if (!PyTuple_GetString(poArgs, 1, &szFileName))

  00029	8d 45 fc	 lea	 eax, DWORD PTR _szFileName$[ebp]
  0002c	50		 push	 eax
  0002d	6a 01		 push	 1
  0002f	ff 75 0c	 push	 DWORD PTR _poArgs$[ebp]
  00032	e8 00 00 00 00	 call	 ?PyTuple_GetString@@YA_NPAU_object@@HPAPAD@Z ; PyTuple_GetString
  00037	83 c4 0c	 add	 esp, 12			; 0000000cH
  0003a	84 c0		 test	 al, al
  0003c	74 dd		 je	 SHORT $LN6@wndImageLo

; 1968 : 		return Py_BuildException();
; 1969 : 
; 1970 : 	if (!((UI::CImageBox*)pWindow)->LoadImage(szFileName))

  0003e	ff 75 fc	 push	 DWORD PTR _szFileName$[ebp]
  00041	8b 4d f8	 mov	 ecx, DWORD PTR _pWindow$[ebp]
  00044	e8 00 00 00 00	 call	 ?LoadImageA@CImageBox@UI@@QAEHPBD@Z ; UI::CImageBox::LoadImageA
  00049	85 c0		 test	 eax, eax
  0004b	75 14		 jne	 SHORT $LN4@wndImageLo

; 1971 : 		return Py_BuildException("Failed to load image (filename: %s)", szFileName);

  0004d	ff 75 fc	 push	 DWORD PTR _szFileName$[ebp]
  00050	68 00 00 00 00	 push	 OFFSET ??_C@_0CE@HBOEBFCG@Failed?5to?5load?5image?5?$CIfilename?3@
  00055	e8 00 00 00 00	 call	 ?Py_BuildException@@YAPAU_object@@PBDZZ ; Py_BuildException
  0005a	83 c4 08	 add	 esp, 8

; 1974 : }

  0005d	8b e5		 mov	 esp, ebp
  0005f	5d		 pop	 ebp
  00060	c3		 ret	 0
$LN4@wndImageLo:

; 1972 : 
; 1973 : 	return Py_BuildNone();

  00061	e8 00 00 00 00	 call	 ?Py_BuildNone@@YAPAU_object@@XZ ; Py_BuildNone

; 1974 : }

  00066	8b e5		 mov	 esp, ebp
  00068	5d		 pop	 ebp
  00069	c3		 ret	 0
?wndImageLoadImage@@YAPAU_object@@PAU1@0@Z ENDP		; wndImageLoadImage
_TEXT	ENDS
; Function compile flags: /Ogtp
; File C:\DS Project\DS Files\Source\ClientSource\Client\eterPythonLib\PythonWindowManagerModule.cpp
;	COMDAT ?wndMarkBox_SetDiffuseColor@@YAPAU_object@@PAU1@0@Z
_TEXT	SEGMENT
_pWindow$ = -20						; size = 4
_fr$ = -16						; size = 4
_fg$ = -12						; size = 4
_fb$ = -8						; size = 4
_fa$ = -4						; size = 4
_poSelf$ = 8						; size = 4
_poArgs$ = 12						; size = 4
?wndMarkBox_SetDiffuseColor@@YAPAU_object@@PAU1@0@Z PROC ; wndMarkBox_SetDiffuseColor, COMDAT

; 1938 : {

  00000	55		 push	 ebp
  00001	8b ec		 mov	 ebp, esp
  00003	83 ec 14	 sub	 esp, 20			; 00000014H

; 1939 : 	UI::CWindow * pWindow;
; 1940 : 	if (!PyTuple_GetWindow(poArgs, 0, &pWindow))

  00006	8d 45 ec	 lea	 eax, DWORD PTR _pWindow$[ebp]
  00009	56		 push	 esi
  0000a	8b 75 0c	 mov	 esi, DWORD PTR _poArgs$[ebp]
  0000d	50		 push	 eax
  0000e	6a 00		 push	 0
  00010	56		 push	 esi
  00011	e8 00 00 00 00	 call	 ?PyTuple_GetWindow@@YA_NPAU_object@@HPAPAVCWindow@UI@@@Z ; PyTuple_GetWindow
  00016	83 c4 0c	 add	 esp, 12			; 0000000cH
  00019	84 c0		 test	 al, al
  0001b	75 0f		 jne	 SHORT $LN2@wndMarkBox
$LN8@wndMarkBox:

; 1958 : }

  0001d	6a 00		 push	 0
  0001f	e8 00 00 00 00	 call	 ?Py_BuildException@@YAPAU_object@@PBDZZ ; Py_BuildException
  00024	83 c4 04	 add	 esp, 4
  00027	5e		 pop	 esi
  00028	8b e5		 mov	 esp, ebp
  0002a	5d		 pop	 ebp
  0002b	c3		 ret	 0
$LN2@wndMarkBox:

; 1941 : 		return Py_BuildException();
; 1942 : 	float fr;
; 1943 : 	if (!PyTuple_GetFloat(poArgs, 1, &fr))

  0002c	8d 45 f0	 lea	 eax, DWORD PTR _fr$[ebp]
  0002f	50		 push	 eax
  00030	6a 01		 push	 1
  00032	56		 push	 esi
  00033	e8 00 00 00 00	 call	 ?PyTuple_GetFloat@@YA_NPAU_object@@HPAM@Z ; PyTuple_GetFloat
  00038	83 c4 0c	 add	 esp, 12			; 0000000cH
  0003b	84 c0		 test	 al, al
  0003d	74 de		 je	 SHORT $LN8@wndMarkBox

; 1944 : 		return Py_BuildException();
; 1945 : 	float fg;
; 1946 : 	if (!PyTuple_GetFloat(poArgs, 2, &fg))

  0003f	8d 45 f4	 lea	 eax, DWORD PTR _fg$[ebp]
  00042	50		 push	 eax
  00043	6a 02		 push	 2
  00045	56		 push	 esi
  00046	e8 00 00 00 00	 call	 ?PyTuple_GetFloat@@YA_NPAU_object@@HPAM@Z ; PyTuple_GetFloat
  0004b	83 c4 0c	 add	 esp, 12			; 0000000cH
  0004e	84 c0		 test	 al, al
  00050	74 cb		 je	 SHORT $LN8@wndMarkBox

; 1947 : 		return Py_BuildException();
; 1948 : 	float fb;
; 1949 : 	if (!PyTuple_GetFloat(poArgs, 3, &fb))

  00052	8d 45 f8	 lea	 eax, DWORD PTR _fb$[ebp]
  00055	50		 push	 eax
  00056	6a 03		 push	 3
  00058	56		 push	 esi
  00059	e8 00 00 00 00	 call	 ?PyTuple_GetFloat@@YA_NPAU_object@@HPAM@Z ; PyTuple_GetFloat
  0005e	83 c4 0c	 add	 esp, 12			; 0000000cH
  00061	84 c0		 test	 al, al
  00063	74 b8		 je	 SHORT $LN8@wndMarkBox

; 1950 : 		return Py_BuildException();
; 1951 : 	float fa;
; 1952 : 	if (!PyTuple_GetFloat(poArgs, 4, &fa))

  00065	8d 45 fc	 lea	 eax, DWORD PTR _fa$[ebp]
  00068	50		 push	 eax
  00069	6a 04		 push	 4
  0006b	56		 push	 esi
  0006c	e8 00 00 00 00	 call	 ?PyTuple_GetFloat@@YA_NPAU_object@@HPAM@Z ; PyTuple_GetFloat
  00071	83 c4 0c	 add	 esp, 12			; 0000000cH
  00074	84 c0		 test	 al, al
  00076	74 a5		 je	 SHORT $LN8@wndMarkBox

; 1953 : 		return Py_BuildException();
; 1954 : 
; 1955 : 	((UI::CMarkBox*)pWindow)->SetDiffuseColor(fr, fg, fb, fa);

  00078	f3 0f 10 45 fc	 movss	 xmm0, DWORD PTR _fa$[ebp]
  0007d	83 ec 10	 sub	 esp, 16			; 00000010H
  00080	8b 4d ec	 mov	 ecx, DWORD PTR _pWindow$[ebp]
  00083	f3 0f 11 44 24
	0c		 movss	 DWORD PTR [esp+12], xmm0
  00089	f3 0f 10 45 f8	 movss	 xmm0, DWORD PTR _fb$[ebp]
  0008e	f3 0f 11 44 24
	08		 movss	 DWORD PTR [esp+8], xmm0
  00094	f3 0f 10 45 f4	 movss	 xmm0, DWORD PTR _fg$[ebp]
  00099	f3 0f 11 44 24
	04		 movss	 DWORD PTR [esp+4], xmm0
  0009f	f3 0f 10 45 f0	 movss	 xmm0, DWORD PTR _fr$[ebp]
  000a4	f3 0f 11 04 24	 movss	 DWORD PTR [esp], xmm0
  000a9	e8 00 00 00 00	 call	 ?SetDiffuseColor@CMarkBox@UI@@QAEXMMMM@Z ; UI::CMarkBox::SetDiffuseColor

; 1956 : 
; 1957 : 	return Py_BuildNone();

  000ae	e8 00 00 00 00	 call	 ?Py_BuildNone@@YAPAU_object@@XZ ; Py_BuildNone
  000b3	5e		 pop	 esi

; 1958 : }

  000b4	8b e5		 mov	 esp, ebp
  000b6	5d		 pop	 ebp
  000b7	c3		 ret	 0
?wndMarkBox_SetDiffuseColor@@YAPAU_object@@PAU1@0@Z ENDP ; wndMarkBox_SetDiffuseColor
_TEXT	ENDS
; Function compile flags: /Ogtp
; File C:\DS Project\DS Files\Source\ClientSource\Client\eterPythonLib\PythonWindowManagerModule.cpp
;	COMDAT ?wndMarkBox_SetScale@@YAPAU_object@@PAU1@0@Z
_TEXT	SEGMENT
_pWindow$ = -8						; size = 4
_fScale$ = -4						; size = 4
_poSelf$ = 8						; size = 4
_poArgs$ = 12						; size = 4
?wndMarkBox_SetScale@@YAPAU_object@@PAU1@0@Z PROC	; wndMarkBox_SetScale, COMDAT

; 1923 : {

  00000	55		 push	 ebp
  00001	8b ec		 mov	 ebp, esp
  00003	83 ec 08	 sub	 esp, 8

; 1924 : 	UI::CWindow * pWindow;
; 1925 : 	if (!PyTuple_GetWindow(poArgs, 0, &pWindow))

  00006	8d 45 f8	 lea	 eax, DWORD PTR _pWindow$[ebp]
  00009	50		 push	 eax
  0000a	6a 00		 push	 0
  0000c	ff 75 0c	 push	 DWORD PTR _poArgs$[ebp]
  0000f	e8 00 00 00 00	 call	 ?PyTuple_GetWindow@@YA_NPAU_object@@HPAPAVCWindow@UI@@@Z ; PyTuple_GetWindow
  00014	83 c4 0c	 add	 esp, 12			; 0000000cH
  00017	84 c0		 test	 al, al
  00019	75 0e		 jne	 SHORT $LN2@wndMarkBox
$LN5@wndMarkBox:

; 1934 : }

  0001b	6a 00		 push	 0
  0001d	e8 00 00 00 00	 call	 ?Py_BuildException@@YAPAU_object@@PBDZZ ; Py_BuildException
  00022	83 c4 04	 add	 esp, 4
  00025	8b e5		 mov	 esp, ebp
  00027	5d		 pop	 ebp
  00028	c3		 ret	 0
$LN2@wndMarkBox:

; 1926 : 		return Py_BuildException();
; 1927 : 
; 1928 : 	float fScale;
; 1929 : 	if (!PyTuple_GetFloat(poArgs, 1, &fScale))

  00029	8d 45 fc	 lea	 eax, DWORD PTR _fScale$[ebp]
  0002c	50		 push	 eax
  0002d	6a 01		 push	 1
  0002f	ff 75 0c	 push	 DWORD PTR _poArgs$[ebp]
  00032	e8 00 00 00 00	 call	 ?PyTuple_GetFloat@@YA_NPAU_object@@HPAM@Z ; PyTuple_GetFloat
  00037	83 c4 0c	 add	 esp, 12			; 0000000cH
  0003a	84 c0		 test	 al, al
  0003c	74 dd		 je	 SHORT $LN5@wndMarkBox

; 1930 : 		return Py_BuildException();
; 1931 : 
; 1932 : 	((UI::CMarkBox*)pWindow)->SetScale(fScale);

  0003e	f3 0f 10 45 fc	 movss	 xmm0, DWORD PTR _fScale$[ebp]
  00043	51		 push	 ecx
  00044	8b 4d f8	 mov	 ecx, DWORD PTR _pWindow$[ebp]
  00047	f3 0f 11 04 24	 movss	 DWORD PTR [esp], xmm0
  0004c	e8 00 00 00 00	 call	 ?SetScale@CMarkBox@UI@@QAEXM@Z ; UI::CMarkBox::SetScale

; 1933 : 	return Py_BuildNone();

  00051	e8 00 00 00 00	 call	 ?Py_BuildNone@@YAPAU_object@@XZ ; Py_BuildNone

; 1934 : }

  00056	8b e5		 mov	 esp, ebp
  00058	5d		 pop	 ebp
  00059	c3		 ret	 0
?wndMarkBox_SetScale@@YAPAU_object@@PAU1@0@Z ENDP	; wndMarkBox_SetScale
_TEXT	ENDS
; Function compile flags: /Ogtp
; File C:\DS Project\DS Files\Source\ClientSource\Client\eterPythonLib\PythonWindowManagerModule.cpp
;	COMDAT ?wndMarkBox_SetIndex@@YAPAU_object@@PAU1@0@Z
_TEXT	SEGMENT
_pWindow$ = -8						; size = 4
_nIndex$ = -4						; size = 4
_poSelf$ = 8						; size = 4
_poArgs$ = 12						; size = 4
?wndMarkBox_SetIndex@@YAPAU_object@@PAU1@0@Z PROC	; wndMarkBox_SetIndex, COMDAT

; 1909 : {

  00000	55		 push	 ebp
  00001	8b ec		 mov	 ebp, esp
  00003	83 ec 08	 sub	 esp, 8

; 1910 : 	UI::CWindow * pWindow;
; 1911 : 	if (!PyTuple_GetWindow(poArgs, 0, &pWindow))

  00006	8d 45 f8	 lea	 eax, DWORD PTR _pWindow$[ebp]
  00009	50		 push	 eax
  0000a	6a 00		 push	 0
  0000c	ff 75 0c	 push	 DWORD PTR _poArgs$[ebp]
  0000f	e8 00 00 00 00	 call	 ?PyTuple_GetWindow@@YA_NPAU_object@@HPAPAVCWindow@UI@@@Z ; PyTuple_GetWindow
  00014	83 c4 0c	 add	 esp, 12			; 0000000cH
  00017	84 c0		 test	 al, al
  00019	75 0e		 jne	 SHORT $LN2@wndMarkBox
$LN5@wndMarkBox:

; 1920 : }

  0001b	6a 00		 push	 0
  0001d	e8 00 00 00 00	 call	 ?Py_BuildException@@YAPAU_object@@PBDZZ ; Py_BuildException
  00022	83 c4 04	 add	 esp, 4
  00025	8b e5		 mov	 esp, ebp
  00027	5d		 pop	 ebp
  00028	c3		 ret	 0
$LN2@wndMarkBox:

; 1912 : 		return Py_BuildException();
; 1913 : 
; 1914 : 	int nIndex;
; 1915 : 	if (!PyTuple_GetInteger(poArgs, 1, &nIndex))

  00029	8d 45 fc	 lea	 eax, DWORD PTR _nIndex$[ebp]
  0002c	50		 push	 eax
  0002d	6a 01		 push	 1
  0002f	ff 75 0c	 push	 DWORD PTR _poArgs$[ebp]
  00032	e8 00 00 00 00	 call	 ?PyTuple_GetInteger@@YA_NPAU_object@@HPAH@Z ; PyTuple_GetInteger
  00037	83 c4 0c	 add	 esp, 12			; 0000000cH
  0003a	84 c0		 test	 al, al
  0003c	74 dd		 je	 SHORT $LN5@wndMarkBox

; 1916 : 		return Py_BuildException();
; 1917 : 
; 1918 : 	((UI::CMarkBox*)pWindow)->SetIndex(nIndex);

  0003e	ff 75 fc	 push	 DWORD PTR _nIndex$[ebp]
  00041	8b 4d f8	 mov	 ecx, DWORD PTR _pWindow$[ebp]
  00044	e8 00 00 00 00	 call	 ?SetIndex@CMarkBox@UI@@QAEXI@Z ; UI::CMarkBox::SetIndex

; 1919 : 	return Py_BuildNone();

  00049	e8 00 00 00 00	 call	 ?Py_BuildNone@@YAPAU_object@@XZ ; Py_BuildNone

; 1920 : }

  0004e	8b e5		 mov	 esp, ebp
  00050	5d		 pop	 ebp
  00051	c3		 ret	 0
?wndMarkBox_SetIndex@@YAPAU_object@@PAU1@0@Z ENDP	; wndMarkBox_SetIndex
_TEXT	ENDS
; Function compile flags: /Ogtp
; File C:\DS Project\DS Files\Source\ClientSource\Client\eterPythonLib\PythonWindowManagerModule.cpp
;	COMDAT ?wndMarkBox_Load@@YAPAU_object@@PAU1@0@Z
_TEXT	SEGMENT
_poSelf$ = 8						; size = 4
_poArgs$ = 12						; size = 4
?wndMarkBox_Load@@YAPAU_object@@PAU1@0@Z PROC		; wndMarkBox_Load, COMDAT

; 1905 : 	return Py_BuildNone();

  00000	e9 00 00 00 00	 jmp	 ?Py_BuildNone@@YAPAU_object@@XZ ; Py_BuildNone
?wndMarkBox_Load@@YAPAU_object@@PAU1@0@Z ENDP		; wndMarkBox_Load
_TEXT	ENDS
; Function compile flags: /Ogtp
; File C:\DS Project\DS Files\Source\ClientSource\Client\eterPythonLib\PythonWindowManagerModule.cpp
;	COMDAT ?wndMarkBox_SetImage@@YAPAU_object@@PAU1@0@Z
_TEXT	SEGMENT
_poSelf$ = 8						; size = 4
_poArgs$ = 12						; size = 4
?wndMarkBox_SetImage@@YAPAU_object@@PAU1@0@Z PROC	; wndMarkBox_SetImage, COMDAT

; 1900 : 	return Py_BuildNone();

  00000	e9 00 00 00 00	 jmp	 ?Py_BuildNone@@YAPAU_object@@XZ ; Py_BuildNone
?wndMarkBox_SetImage@@YAPAU_object@@PAU1@0@Z ENDP	; wndMarkBox_SetImage
_TEXT	ENDS
; Function compile flags: /Ogtp
; File C:\DS Project\DS Files\Source\ClientSource\Client\eterPythonLib\PythonWindowManagerModule.cpp
;	COMDAT ?wndMarkBox_SetImageFilename@@YAPAU_object@@PAU1@0@Z
_TEXT	SEGMENT
_pWindow$ = -8						; size = 4
_szFileName$ = -4					; size = 4
_poSelf$ = 8						; size = 4
_poArgs$ = 12						; size = 4
?wndMarkBox_SetImageFilename@@YAPAU_object@@PAU1@0@Z PROC ; wndMarkBox_SetImageFilename, COMDAT

; 1886 : {

  00000	55		 push	 ebp
  00001	8b ec		 mov	 ebp, esp
  00003	83 ec 08	 sub	 esp, 8

; 1887 : 	UI::CWindow * pWindow;
; 1888 : 	if (!PyTuple_GetWindow(poArgs, 0, &pWindow))

  00006	8d 45 f8	 lea	 eax, DWORD PTR _pWindow$[ebp]
  00009	50		 push	 eax
  0000a	6a 00		 push	 0
  0000c	ff 75 0c	 push	 DWORD PTR _poArgs$[ebp]
  0000f	e8 00 00 00 00	 call	 ?PyTuple_GetWindow@@YA_NPAU_object@@HPAPAVCWindow@UI@@@Z ; PyTuple_GetWindow
  00014	83 c4 0c	 add	 esp, 12			; 0000000cH
  00017	84 c0		 test	 al, al
  00019	75 0e		 jne	 SHORT $LN2@wndMarkBox
$LN5@wndMarkBox:

; 1896 : }

  0001b	6a 00		 push	 0
  0001d	e8 00 00 00 00	 call	 ?Py_BuildException@@YAPAU_object@@PBDZZ ; Py_BuildException
  00022	83 c4 04	 add	 esp, 4
  00025	8b e5		 mov	 esp, ebp
  00027	5d		 pop	 ebp
  00028	c3		 ret	 0
$LN2@wndMarkBox:

; 1889 : 		return Py_BuildException();
; 1890 : 	char * szFileName;
; 1891 : 	if (!PyTuple_GetString(poArgs, 1, &szFileName))

  00029	8d 45 fc	 lea	 eax, DWORD PTR _szFileName$[ebp]
  0002c	50		 push	 eax
  0002d	6a 01		 push	 1
  0002f	ff 75 0c	 push	 DWORD PTR _poArgs$[ebp]
  00032	e8 00 00 00 00	 call	 ?PyTuple_GetString@@YA_NPAU_object@@HPAPAD@Z ; PyTuple_GetString
  00037	83 c4 0c	 add	 esp, 12			; 0000000cH
  0003a	84 c0		 test	 al, al
  0003c	74 dd		 je	 SHORT $LN5@wndMarkBox

; 1892 : 		return Py_BuildException();
; 1893 : 
; 1894 : 	((UI::CMarkBox*)pWindow)->LoadImage(szFileName);

  0003e	ff 75 fc	 push	 DWORD PTR _szFileName$[ebp]
  00041	8b 4d f8	 mov	 ecx, DWORD PTR _pWindow$[ebp]
  00044	e8 00 00 00 00	 call	 ?LoadImageA@CMarkBox@UI@@QAEXPBD@Z ; UI::CMarkBox::LoadImageA

; 1895 : 	return Py_BuildNone();

  00049	e8 00 00 00 00	 call	 ?Py_BuildNone@@YAPAU_object@@XZ ; Py_BuildNone

; 1896 : }

  0004e	8b e5		 mov	 esp, ebp
  00050	5d		 pop	 ebp
  00051	c3		 ret	 0
?wndMarkBox_SetImageFilename@@YAPAU_object@@PAU1@0@Z ENDP ; wndMarkBox_SetImageFilename
_TEXT	ENDS
; Function compile flags: /Ogtp
; File C:\DS Project\DS Files\Source\ClientSource\Client\eterPythonLib\PythonWindowManagerModule.cpp
;	COMDAT ?wndNumberSetPath@@YAPAU_object@@PAU1@0@Z
_TEXT	SEGMENT
_pWindow$ = -8						; size = 4
_szPath$ = -4						; size = 4
_poSelf$ = 8						; size = 4
_poArgs$ = 12						; size = 4
?wndNumberSetPath@@YAPAU_object@@PAU1@0@Z PROC		; wndNumberSetPath, COMDAT

; 1872 : {

  00000	55		 push	 ebp
  00001	8b ec		 mov	 ebp, esp
  00003	83 ec 08	 sub	 esp, 8

; 1873 : 	UI::CWindow * pWindow;
; 1874 : 	if (!PyTuple_GetWindow(poArgs, 0, &pWindow))

  00006	8d 45 f8	 lea	 eax, DWORD PTR _pWindow$[ebp]
  00009	50		 push	 eax
  0000a	6a 00		 push	 0
  0000c	ff 75 0c	 push	 DWORD PTR _poArgs$[ebp]
  0000f	e8 00 00 00 00	 call	 ?PyTuple_GetWindow@@YA_NPAU_object@@HPAPAVCWindow@UI@@@Z ; PyTuple_GetWindow
  00014	83 c4 0c	 add	 esp, 12			; 0000000cH
  00017	84 c0		 test	 al, al
  00019	75 0e		 jne	 SHORT $LN2@wndNumberS
$LN5@wndNumberS:

; 1883 : }

  0001b	6a 00		 push	 0
  0001d	e8 00 00 00 00	 call	 ?Py_BuildException@@YAPAU_object@@PBDZZ ; Py_BuildException
  00022	83 c4 04	 add	 esp, 4
  00025	8b e5		 mov	 esp, ebp
  00027	5d		 pop	 ebp
  00028	c3		 ret	 0
$LN2@wndNumberS:

; 1875 : 		return Py_BuildException();
; 1876 : 	char * szPath;
; 1877 : 	if (!PyTuple_GetString(poArgs, 1, &szPath))

  00029	8d 45 fc	 lea	 eax, DWORD PTR _szPath$[ebp]
  0002c	50		 push	 eax
  0002d	6a 01		 push	 1
  0002f	ff 75 0c	 push	 DWORD PTR _poArgs$[ebp]
  00032	e8 00 00 00 00	 call	 ?PyTuple_GetString@@YA_NPAU_object@@HPAPAD@Z ; PyTuple_GetString
  00037	83 c4 0c	 add	 esp, 12			; 0000000cH
  0003a	84 c0		 test	 al, al
  0003c	74 dd		 je	 SHORT $LN5@wndNumberS

; 1878 : 		return Py_BuildException();
; 1879 : 
; 1880 : 	((UI::CNumberLine*)pWindow)->SetPath(szPath);

  0003e	ff 75 fc	 push	 DWORD PTR _szPath$[ebp]
  00041	8b 4d f8	 mov	 ecx, DWORD PTR _pWindow$[ebp]
  00044	e8 00 00 00 00	 call	 ?SetPath@CNumberLine@UI@@QAEXPBD@Z ; UI::CNumberLine::SetPath

; 1881 : 
; 1882 : 	return Py_BuildNone();

  00049	e8 00 00 00 00	 call	 ?Py_BuildNone@@YAPAU_object@@XZ ; Py_BuildNone

; 1883 : }

  0004e	8b e5		 mov	 esp, ebp
  00050	5d		 pop	 ebp
  00051	c3		 ret	 0
?wndNumberSetPath@@YAPAU_object@@PAU1@0@Z ENDP		; wndNumberSetPath
_TEXT	ENDS
; Function compile flags: /Ogtp
; File C:\DS Project\DS Files\Source\ClientSource\Client\eterPythonLib\PythonWindowManagerModule.cpp
;	COMDAT ?wndNumberSetNumberHorizontalAlignRight@@YAPAU_object@@PAU1@0@Z
_TEXT	SEGMENT
_pWindow$ = -4						; size = 4
_poSelf$ = 8						; size = 4
_poArgs$ = 12						; size = 4
?wndNumberSetNumberHorizontalAlignRight@@YAPAU_object@@PAU1@0@Z PROC ; wndNumberSetNumberHorizontalAlignRight, COMDAT

; 1861 : {

  00000	55		 push	 ebp
  00001	8b ec		 mov	 ebp, esp
  00003	51		 push	 ecx

; 1862 : 	UI::CWindow * pWindow;
; 1863 : 	if (!PyTuple_GetWindow(poArgs, 0, &pWindow))

  00004	8d 45 fc	 lea	 eax, DWORD PTR _pWindow$[ebp]
  00007	50		 push	 eax
  00008	6a 00		 push	 0
  0000a	ff 75 0c	 push	 DWORD PTR _poArgs$[ebp]
  0000d	e8 00 00 00 00	 call	 ?PyTuple_GetWindow@@YA_NPAU_object@@HPAPAVCWindow@UI@@@Z ; PyTuple_GetWindow
  00012	83 c4 0c	 add	 esp, 12			; 0000000cH
  00015	84 c0		 test	 al, al
  00017	75 0e		 jne	 SHORT $LN2@wndNumberS

; 1864 : 		return Py_BuildException();

  00019	6a 00		 push	 0
  0001b	e8 00 00 00 00	 call	 ?Py_BuildException@@YAPAU_object@@PBDZZ ; Py_BuildException
  00020	83 c4 04	 add	 esp, 4

; 1869 : }

  00023	8b e5		 mov	 esp, ebp
  00025	5d		 pop	 ebp
  00026	c3		 ret	 0
$LN2@wndNumberS:

; 1865 : 
; 1866 : 	((UI::CNumberLine*)pWindow)->SetHorizontalAlign(UI::CWindow::HORIZONTAL_ALIGN_RIGHT);

  00027	8b 4d fc	 mov	 ecx, DWORD PTR _pWindow$[ebp]
  0002a	6a 02		 push	 2
  0002c	e8 00 00 00 00	 call	 ?SetHorizontalAlign@CNumberLine@UI@@QAEXH@Z ; UI::CNumberLine::SetHorizontalAlign

; 1867 : 
; 1868 : 	return Py_BuildNone();

  00031	e8 00 00 00 00	 call	 ?Py_BuildNone@@YAPAU_object@@XZ ; Py_BuildNone

; 1869 : }

  00036	8b e5		 mov	 esp, ebp
  00038	5d		 pop	 ebp
  00039	c3		 ret	 0
?wndNumberSetNumberHorizontalAlignRight@@YAPAU_object@@PAU1@0@Z ENDP ; wndNumberSetNumberHorizontalAlignRight
_TEXT	ENDS
; Function compile flags: /Ogtp
; File C:\DS Project\DS Files\Source\ClientSource\Client\eterPythonLib\PythonWindowManagerModule.cpp
;	COMDAT ?wndNumberSetNumberHorizontalAlignCenter@@YAPAU_object@@PAU1@0@Z
_TEXT	SEGMENT
_pWindow$ = -4						; size = 4
_poSelf$ = 8						; size = 4
_poArgs$ = 12						; size = 4
?wndNumberSetNumberHorizontalAlignCenter@@YAPAU_object@@PAU1@0@Z PROC ; wndNumberSetNumberHorizontalAlignCenter, COMDAT

; 1850 : {

  00000	55		 push	 ebp
  00001	8b ec		 mov	 ebp, esp
  00003	51		 push	 ecx

; 1851 : 	UI::CWindow * pWindow;
; 1852 : 	if (!PyTuple_GetWindow(poArgs, 0, &pWindow))

  00004	8d 45 fc	 lea	 eax, DWORD PTR _pWindow$[ebp]
  00007	50		 push	 eax
  00008	6a 00		 push	 0
  0000a	ff 75 0c	 push	 DWORD PTR _poArgs$[ebp]
  0000d	e8 00 00 00 00	 call	 ?PyTuple_GetWindow@@YA_NPAU_object@@HPAPAVCWindow@UI@@@Z ; PyTuple_GetWindow
  00012	83 c4 0c	 add	 esp, 12			; 0000000cH
  00015	84 c0		 test	 al, al
  00017	75 0e		 jne	 SHORT $LN2@wndNumberS

; 1853 : 		return Py_BuildException();

  00019	6a 00		 push	 0
  0001b	e8 00 00 00 00	 call	 ?Py_BuildException@@YAPAU_object@@PBDZZ ; Py_BuildException
  00020	83 c4 04	 add	 esp, 4

; 1858 : }

  00023	8b e5		 mov	 esp, ebp
  00025	5d		 pop	 ebp
  00026	c3		 ret	 0
$LN2@wndNumberS:

; 1854 : 
; 1855 : 	((UI::CNumberLine*)pWindow)->SetHorizontalAlign(UI::CWindow::HORIZONTAL_ALIGN_CENTER);

  00027	8b 4d fc	 mov	 ecx, DWORD PTR _pWindow$[ebp]
  0002a	6a 01		 push	 1
  0002c	e8 00 00 00 00	 call	 ?SetHorizontalAlign@CNumberLine@UI@@QAEXH@Z ; UI::CNumberLine::SetHorizontalAlign

; 1856 : 
; 1857 : 	return Py_BuildNone();

  00031	e8 00 00 00 00	 call	 ?Py_BuildNone@@YAPAU_object@@XZ ; Py_BuildNone

; 1858 : }

  00036	8b e5		 mov	 esp, ebp
  00038	5d		 pop	 ebp
  00039	c3		 ret	 0
?wndNumberSetNumberHorizontalAlignCenter@@YAPAU_object@@PAU1@0@Z ENDP ; wndNumberSetNumberHorizontalAlignCenter
_TEXT	ENDS
; Function compile flags: /Ogtp
; File C:\DS Project\DS Files\Source\ClientSource\Client\eterPythonLib\PythonWindowManagerModule.cpp
;	COMDAT ?wndNumberSetNumber@@YAPAU_object@@PAU1@0@Z
_TEXT	SEGMENT
_pWindow$ = -8						; size = 4
_szNumber$ = -4						; size = 4
_poSelf$ = 8						; size = 4
_poArgs$ = 12						; size = 4
?wndNumberSetNumber@@YAPAU_object@@PAU1@0@Z PROC	; wndNumberSetNumber, COMDAT

; 1836 : {

  00000	55		 push	 ebp
  00001	8b ec		 mov	 ebp, esp
  00003	83 ec 08	 sub	 esp, 8

; 1837 : 	UI::CWindow * pWindow;
; 1838 : 	if (!PyTuple_GetWindow(poArgs, 0, &pWindow))

  00006	8d 45 f8	 lea	 eax, DWORD PTR _pWindow$[ebp]
  00009	50		 push	 eax
  0000a	6a 00		 push	 0
  0000c	ff 75 0c	 push	 DWORD PTR _poArgs$[ebp]
  0000f	e8 00 00 00 00	 call	 ?PyTuple_GetWindow@@YA_NPAU_object@@HPAPAVCWindow@UI@@@Z ; PyTuple_GetWindow
  00014	83 c4 0c	 add	 esp, 12			; 0000000cH
  00017	84 c0		 test	 al, al
  00019	75 0e		 jne	 SHORT $LN2@wndNumberS
$LN5@wndNumberS:

; 1847 : }

  0001b	6a 00		 push	 0
  0001d	e8 00 00 00 00	 call	 ?Py_BuildException@@YAPAU_object@@PBDZZ ; Py_BuildException
  00022	83 c4 04	 add	 esp, 4
  00025	8b e5		 mov	 esp, ebp
  00027	5d		 pop	 ebp
  00028	c3		 ret	 0
$LN2@wndNumberS:

; 1839 : 		return Py_BuildException();
; 1840 : 	char * szNumber;
; 1841 : 	if (!PyTuple_GetString(poArgs, 1, &szNumber))

  00029	8d 45 fc	 lea	 eax, DWORD PTR _szNumber$[ebp]
  0002c	50		 push	 eax
  0002d	6a 01		 push	 1
  0002f	ff 75 0c	 push	 DWORD PTR _poArgs$[ebp]
  00032	e8 00 00 00 00	 call	 ?PyTuple_GetString@@YA_NPAU_object@@HPAPAD@Z ; PyTuple_GetString
  00037	83 c4 0c	 add	 esp, 12			; 0000000cH
  0003a	84 c0		 test	 al, al
  0003c	74 dd		 je	 SHORT $LN5@wndNumberS

; 1842 : 		return Py_BuildException();
; 1843 : 
; 1844 : 	((UI::CNumberLine*)pWindow)->SetNumber(szNumber);

  0003e	ff 75 fc	 push	 DWORD PTR _szNumber$[ebp]
  00041	8b 4d f8	 mov	 ecx, DWORD PTR _pWindow$[ebp]
  00044	e8 00 00 00 00	 call	 ?SetNumber@CNumberLine@UI@@QAEXPBD@Z ; UI::CNumberLine::SetNumber

; 1845 : 
; 1846 : 	return Py_BuildNone();

  00049	e8 00 00 00 00	 call	 ?Py_BuildNone@@YAPAU_object@@XZ ; Py_BuildNone

; 1847 : }

  0004e	8b e5		 mov	 esp, ebp
  00050	5d		 pop	 ebp
  00051	c3		 ret	 0
?wndNumberSetNumber@@YAPAU_object@@PAU1@0@Z ENDP	; wndNumberSetNumber
_TEXT	ENDS
; Function compile flags: /Ogtp
; File C:\DS Project\DS Files\Source\ClientSource\Client\eterPythonLib\PythonWindowManagerModule.cpp
;	COMDAT ?wndTextGetCursorPosition@@YAPAU_object@@PAU1@0@Z
_TEXT	SEGMENT
_pWindow$ = -4						; size = 4
_poSelf$ = 8						; size = 4
_poArgs$ = 12						; size = 4
?wndTextGetCursorPosition@@YAPAU_object@@PAU1@0@Z PROC	; wndTextGetCursorPosition, COMDAT

; 1827 : {

  00000	55		 push	 ebp
  00001	8b ec		 mov	 ebp, esp
  00003	51		 push	 ecx

; 1828 : 	UI::CWindow * pWindow;
; 1829 : 	if (!PyTuple_GetWindow(poArgs, 0, &pWindow))

  00004	8d 45 fc	 lea	 eax, DWORD PTR _pWindow$[ebp]
  00007	50		 push	 eax
  00008	6a 00		 push	 0
  0000a	ff 75 0c	 push	 DWORD PTR _poArgs$[ebp]
  0000d	e8 00 00 00 00	 call	 ?PyTuple_GetWindow@@YA_NPAU_object@@HPAPAVCWindow@UI@@@Z ; PyTuple_GetWindow
  00012	83 c4 0c	 add	 esp, 12			; 0000000cH
  00015	84 c0		 test	 al, al
  00017	75 0e		 jne	 SHORT $LN2@wndTextGet

; 1830 : 		return Py_BuildException();

  00019	6a 00		 push	 0
  0001b	e8 00 00 00 00	 call	 ?Py_BuildException@@YAPAU_object@@PBDZZ ; Py_BuildException
  00020	83 c4 04	 add	 esp, 4

; 1833 : }

  00023	8b e5		 mov	 esp, ebp
  00025	5d		 pop	 ebp
  00026	c3		 ret	 0
$LN2@wndTextGet:

; 1831 : 
; 1832 : 	return Py_BuildValue("i", ((UI::CTextLine*)pWindow)->GetCursorPosition());

  00027	8b 4d fc	 mov	 ecx, DWORD PTR _pWindow$[ebp]
  0002a	e8 00 00 00 00	 call	 ?GetCursorPosition@CTextLine@UI@@QAEHXZ ; UI::CTextLine::GetCursorPosition
  0002f	50		 push	 eax
  00030	68 00 00 00 00	 push	 OFFSET ??_C@_01KBJDNOO@i@
  00035	ff 15 00 00 00
	00		 call	 DWORD PTR __imp__Py_BuildValue
  0003b	83 c4 08	 add	 esp, 8

; 1833 : }

  0003e	8b e5		 mov	 esp, ebp
  00040	5d		 pop	 ebp
  00041	c3		 ret	 0
?wndTextGetCursorPosition@@YAPAU_object@@PAU1@0@Z ENDP	; wndTextGetCursorPosition
_TEXT	ENDS
; Function compile flags: /Ogtp
; File C:\DS Project\DS Files\Source\ClientSource\Client\eterPythonLib\PythonWindowManagerModule.cpp
;	COMDAT ?wndTextHideCursor@@YAPAU_object@@PAU1@0@Z
_TEXT	SEGMENT
_pWindow$ = -4						; size = 4
_poSelf$ = 8						; size = 4
_poArgs$ = 12						; size = 4
?wndTextHideCursor@@YAPAU_object@@PAU1@0@Z PROC		; wndTextHideCursor, COMDAT

; 1818 : {

  00000	55		 push	 ebp
  00001	8b ec		 mov	 ebp, esp
  00003	51		 push	 ecx

; 1819 : 	UI::CWindow * pWindow;
; 1820 : 	if (!PyTuple_GetWindow(poArgs, 0, &pWindow))

  00004	8d 45 fc	 lea	 eax, DWORD PTR _pWindow$[ebp]
  00007	50		 push	 eax
  00008	6a 00		 push	 0
  0000a	ff 75 0c	 push	 DWORD PTR _poArgs$[ebp]
  0000d	e8 00 00 00 00	 call	 ?PyTuple_GetWindow@@YA_NPAU_object@@HPAPAVCWindow@UI@@@Z ; PyTuple_GetWindow
  00012	83 c4 0c	 add	 esp, 12			; 0000000cH
  00015	84 c0		 test	 al, al
  00017	75 0e		 jne	 SHORT $LN2@wndTextHid

; 1821 : 		return Py_BuildException();

  00019	6a 00		 push	 0
  0001b	e8 00 00 00 00	 call	 ?Py_BuildException@@YAPAU_object@@PBDZZ ; Py_BuildException
  00020	83 c4 04	 add	 esp, 4

; 1825 : }

  00023	8b e5		 mov	 esp, ebp
  00025	5d		 pop	 ebp
  00026	c3		 ret	 0
$LN2@wndTextHid:

; 1822 : 
; 1823 : 	((UI::CTextLine*)pWindow)->HideCursor();

  00027	8b 4d fc	 mov	 ecx, DWORD PTR _pWindow$[ebp]
  0002a	e8 00 00 00 00	 call	 ?HideCursor@CTextLine@UI@@QAEXXZ ; UI::CTextLine::HideCursor

; 1824 : 	return Py_BuildNone();

  0002f	e8 00 00 00 00	 call	 ?Py_BuildNone@@YAPAU_object@@XZ ; Py_BuildNone

; 1825 : }

  00034	8b e5		 mov	 esp, ebp
  00036	5d		 pop	 ebp
  00037	c3		 ret	 0
?wndTextHideCursor@@YAPAU_object@@PAU1@0@Z ENDP		; wndTextHideCursor
_TEXT	ENDS
; Function compile flags: /Ogtp
; File C:\DS Project\DS Files\Source\ClientSource\Client\eterPythonLib\PythonWindowManagerModule.cpp
;	COMDAT ?wndTextShowCursor@@YAPAU_object@@PAU1@0@Z
_TEXT	SEGMENT
_pWindow$ = -4						; size = 4
_poSelf$ = 8						; size = 4
_poArgs$ = 12						; size = 4
?wndTextShowCursor@@YAPAU_object@@PAU1@0@Z PROC		; wndTextShowCursor, COMDAT

; 1809 : {

  00000	55		 push	 ebp
  00001	8b ec		 mov	 ebp, esp
  00003	51		 push	 ecx

; 1810 : 	UI::CWindow * pWindow;
; 1811 : 	if (!PyTuple_GetWindow(poArgs, 0, &pWindow))

  00004	8d 45 fc	 lea	 eax, DWORD PTR _pWindow$[ebp]
  00007	50		 push	 eax
  00008	6a 00		 push	 0
  0000a	ff 75 0c	 push	 DWORD PTR _poArgs$[ebp]
  0000d	e8 00 00 00 00	 call	 ?PyTuple_GetWindow@@YA_NPAU_object@@HPAPAVCWindow@UI@@@Z ; PyTuple_GetWindow
  00012	83 c4 0c	 add	 esp, 12			; 0000000cH
  00015	84 c0		 test	 al, al
  00017	75 0e		 jne	 SHORT $LN2@wndTextSho

; 1812 : 		return Py_BuildException();

  00019	6a 00		 push	 0
  0001b	e8 00 00 00 00	 call	 ?Py_BuildException@@YAPAU_object@@PBDZZ ; Py_BuildException
  00020	83 c4 04	 add	 esp, 4

; 1816 : }

  00023	8b e5		 mov	 esp, ebp
  00025	5d		 pop	 ebp
  00026	c3		 ret	 0
$LN2@wndTextSho:

; 1813 : 
; 1814 : 	((UI::CTextLine*)pWindow)->ShowCursor();

  00027	8b 4d fc	 mov	 ecx, DWORD PTR _pWindow$[ebp]
  0002a	e8 00 00 00 00	 call	 ?ShowCursor@CTextLine@UI@@QAEXXZ ; UI::CTextLine::ShowCursor

; 1815 : 	return Py_BuildNone();

  0002f	e8 00 00 00 00	 call	 ?Py_BuildNone@@YAPAU_object@@XZ ; Py_BuildNone

; 1816 : }

  00034	8b e5		 mov	 esp, ebp
  00036	5d		 pop	 ebp
  00037	c3		 ret	 0
?wndTextShowCursor@@YAPAU_object@@PAU1@0@Z ENDP		; wndTextShowCursor
_TEXT	ENDS
; Function compile flags: /Ogtp
; File C:\DS Project\DS Files\Source\ClientSource\Client\eterPythonLib\PythonWindowManagerModule.cpp
;	COMDAT ?wndTextGetTextSize@@YAPAU_object@@PAU1@0@Z
_TEXT	SEGMENT
_nWidth$ = -12						; size = 4
_nHeight$ = -8						; size = 4
_pWindow$ = -4						; size = 4
_poSelf$ = 8						; size = 4
_poArgs$ = 12						; size = 4
?wndTextGetTextSize@@YAPAU_object@@PAU1@0@Z PROC	; wndTextGetTextSize, COMDAT

; 1793 : {

  00000	55		 push	 ebp
  00001	8b ec		 mov	 ebp, esp
  00003	83 ec 0c	 sub	 esp, 12			; 0000000cH

; 1794 : 	UI::CWindow * pWindow;
; 1795 : 	if (!PyTuple_GetWindow(poArgs, 0, &pWindow))

  00006	8d 45 fc	 lea	 eax, DWORD PTR _pWindow$[ebp]
  00009	50		 push	 eax
  0000a	6a 00		 push	 0
  0000c	ff 75 0c	 push	 DWORD PTR _poArgs$[ebp]
  0000f	e8 00 00 00 00	 call	 ?PyTuple_GetWindow@@YA_NPAU_object@@HPAPAVCWindow@UI@@@Z ; PyTuple_GetWindow
  00014	83 c4 0c	 add	 esp, 12			; 0000000cH
  00017	84 c0		 test	 al, al
  00019	75 0e		 jne	 SHORT $LN2@wndTextGet

; 1796 : 		return Py_BuildException();

  0001b	6a 00		 push	 0
  0001d	e8 00 00 00 00	 call	 ?Py_BuildException@@YAPAU_object@@PBDZZ ; Py_BuildException
  00022	83 c4 04	 add	 esp, 4

; 1805 : }

  00025	8b e5		 mov	 esp, ebp
  00027	5d		 pop	 ebp
  00028	c3		 ret	 0
$LN2@wndTextGet:

; 1797 : 
; 1798 : 	int nWidth;
; 1799 : 	int nHeight;
; 1800 : 
; 1801 : 	UI::CTextLine* pkTextLine=(UI::CTextLine*)pWindow;
; 1802 : 	pkTextLine->GetTextSize(&nWidth, &nHeight);

  00029	8b 4d fc	 mov	 ecx, DWORD PTR _pWindow$[ebp]
  0002c	8d 45 f8	 lea	 eax, DWORD PTR _nHeight$[ebp]
  0002f	50		 push	 eax
  00030	8d 45 f4	 lea	 eax, DWORD PTR _nWidth$[ebp]
  00033	50		 push	 eax
  00034	e8 00 00 00 00	 call	 ?GetTextSize@CTextLine@UI@@QAEXPAH0@Z ; UI::CTextLine::GetTextSize

; 1803 : 
; 1804 : 	return Py_BuildValue("(ii)", nWidth, nHeight);

  00039	ff 75 f8	 push	 DWORD PTR _nHeight$[ebp]
  0003c	ff 75 f4	 push	 DWORD PTR _nWidth$[ebp]
  0003f	68 00 00 00 00	 push	 OFFSET ??_C@_04INACLLOK@?$CIii?$CJ@
  00044	ff 15 00 00 00
	00		 call	 DWORD PTR __imp__Py_BuildValue
  0004a	83 c4 0c	 add	 esp, 12			; 0000000cH

; 1805 : }

  0004d	8b e5		 mov	 esp, ebp
  0004f	5d		 pop	 ebp
  00050	c3		 ret	 0
?wndTextGetTextSize@@YAPAU_object@@PAU1@0@Z ENDP	; wndTextGetTextSize
_TEXT	ENDS
; Function compile flags: /Ogtp
; File C:\DS Project\DS Files\Source\ClientSource\Client\eterPythonLib\PythonWindowManagerModule.cpp
;	COMDAT ?wndTextGetText@@YAPAU_object@@PAU1@0@Z
_TEXT	SEGMENT
_pWindow$ = -4						; size = 4
_poSelf$ = 8						; size = 4
_poArgs$ = 12						; size = 4
?wndTextGetText@@YAPAU_object@@PAU1@0@Z PROC		; wndTextGetText, COMDAT

; 1784 : {

  00000	55		 push	 ebp
  00001	8b ec		 mov	 ebp, esp
  00003	51		 push	 ecx

; 1785 : 	UI::CWindow * pWindow;
; 1786 : 	if (!PyTuple_GetWindow(poArgs, 0, &pWindow))

  00004	8d 45 fc	 lea	 eax, DWORD PTR _pWindow$[ebp]
  00007	50		 push	 eax
  00008	6a 00		 push	 0
  0000a	ff 75 0c	 push	 DWORD PTR _poArgs$[ebp]
  0000d	e8 00 00 00 00	 call	 ?PyTuple_GetWindow@@YA_NPAU_object@@HPAPAVCWindow@UI@@@Z ; PyTuple_GetWindow
  00012	83 c4 0c	 add	 esp, 12			; 0000000cH
  00015	84 c0		 test	 al, al
  00017	75 0e		 jne	 SHORT $LN2@wndTextGet

; 1787 : 		return Py_BuildException();

  00019	6a 00		 push	 0
  0001b	e8 00 00 00 00	 call	 ?Py_BuildException@@YAPAU_object@@PBDZZ ; Py_BuildException
  00020	83 c4 04	 add	 esp, 4

; 1790 : }

  00023	8b e5		 mov	 esp, ebp
  00025	5d		 pop	 ebp
  00026	c3		 ret	 0
$LN2@wndTextGet:

; 1788 : 
; 1789 : 	return Py_BuildValue("s", ((UI::CTextLine*)pWindow)->GetText());

  00027	8b 4d fc	 mov	 ecx, DWORD PTR _pWindow$[ebp]
  0002a	e8 00 00 00 00	 call	 ?GetText@CTextLine@UI@@QAEPBDXZ ; UI::CTextLine::GetText
  0002f	50		 push	 eax
  00030	68 00 00 00 00	 push	 OFFSET ??_C@_01LKDEMHDF@s@
  00035	ff 15 00 00 00
	00		 call	 DWORD PTR __imp__Py_BuildValue
  0003b	83 c4 08	 add	 esp, 8

; 1790 : }

  0003e	8b e5		 mov	 esp, ebp
  00040	5d		 pop	 ebp
  00041	c3		 ret	 0
?wndTextGetText@@YAPAU_object@@PAU1@0@Z ENDP		; wndTextGetText
_TEXT	ENDS
; Function compile flags: /Ogtp
; File C:\DS Project\DS Files\Source\ClientSource\Client\eterPythonLib\PythonWindowManagerModule.cpp
;	COMDAT ?wndTextSetText@@YAPAU_object@@PAU1@0@Z
_TEXT	SEGMENT
_pWindow$ = -8						; size = 4
_szText$ = -4						; size = 4
_poSelf$ = 8						; size = 4
_poArgs$ = 12						; size = 4
?wndTextSetText@@YAPAU_object@@PAU1@0@Z PROC		; wndTextSetText, COMDAT

; 1772 : {

  00000	55		 push	 ebp
  00001	8b ec		 mov	 ebp, esp
  00003	83 ec 08	 sub	 esp, 8

; 1773 : 	UI::CWindow * pWindow;
; 1774 : 	if (!PyTuple_GetWindow(poArgs, 0, &pWindow))

  00006	8d 45 f8	 lea	 eax, DWORD PTR _pWindow$[ebp]
  00009	50		 push	 eax
  0000a	6a 00		 push	 0
  0000c	ff 75 0c	 push	 DWORD PTR _poArgs$[ebp]
  0000f	e8 00 00 00 00	 call	 ?PyTuple_GetWindow@@YA_NPAU_object@@HPAPAVCWindow@UI@@@Z ; PyTuple_GetWindow
  00014	83 c4 0c	 add	 esp, 12			; 0000000cH
  00017	84 c0		 test	 al, al
  00019	75 0e		 jne	 SHORT $LN2@wndTextSet
$LN5@wndTextSet:

; 1782 : }

  0001b	6a 00		 push	 0
  0001d	e8 00 00 00 00	 call	 ?Py_BuildException@@YAPAU_object@@PBDZZ ; Py_BuildException
  00022	83 c4 04	 add	 esp, 4
  00025	8b e5		 mov	 esp, ebp
  00027	5d		 pop	 ebp
  00028	c3		 ret	 0
$LN2@wndTextSet:

; 1775 : 		return Py_BuildException();
; 1776 : 	char * szText;
; 1777 : 	if (!PyTuple_GetString(poArgs, 1, &szText))

  00029	8d 45 fc	 lea	 eax, DWORD PTR _szText$[ebp]
  0002c	50		 push	 eax
  0002d	6a 01		 push	 1
  0002f	ff 75 0c	 push	 DWORD PTR _poArgs$[ebp]
  00032	e8 00 00 00 00	 call	 ?PyTuple_GetString@@YA_NPAU_object@@HPAPAD@Z ; PyTuple_GetString
  00037	83 c4 0c	 add	 esp, 12			; 0000000cH
  0003a	84 c0		 test	 al, al
  0003c	74 dd		 je	 SHORT $LN5@wndTextSet

; 1778 : 		return Py_BuildException();
; 1779 : 
; 1780 : 	((UI::CTextLine*)pWindow)->SetText(szText);

  0003e	ff 75 fc	 push	 DWORD PTR _szText$[ebp]
  00041	8b 4d f8	 mov	 ecx, DWORD PTR _pWindow$[ebp]
  00044	e8 00 00 00 00	 call	 ?SetText@CTextLine@UI@@QAEXPBD@Z ; UI::CTextLine::SetText

; 1781 : 	return Py_BuildNone();

  00049	e8 00 00 00 00	 call	 ?Py_BuildNone@@YAPAU_object@@XZ ; Py_BuildNone

; 1782 : }

  0004e	8b e5		 mov	 esp, ebp
  00050	5d		 pop	 ebp
  00051	c3		 ret	 0
?wndTextSetText@@YAPAU_object@@PAU1@0@Z ENDP		; wndTextSetText
_TEXT	ENDS
; Function compile flags: /Ogtp
; File C:\DS Project\DS Files\Source\ClientSource\Client\eterPythonLib\PythonWindowManagerModule.cpp
;	COMDAT ?wndTextSetLimitWidth@@YAPAU_object@@PAU1@0@Z
_TEXT	SEGMENT
_pWindow$ = -8						; size = 4
_fWidth$ = -4						; size = 4
_poSelf$ = 8						; size = 4
_poArgs$ = 12						; size = 4
?wndTextSetLimitWidth@@YAPAU_object@@PAU1@0@Z PROC	; wndTextSetLimitWidth, COMDAT

; 1760 : {

  00000	55		 push	 ebp
  00001	8b ec		 mov	 ebp, esp
  00003	83 ec 08	 sub	 esp, 8

; 1761 : 	UI::CWindow * pWindow;
; 1762 : 	if (!PyTuple_GetWindow(poArgs, 0, &pWindow))

  00006	8d 45 f8	 lea	 eax, DWORD PTR _pWindow$[ebp]
  00009	50		 push	 eax
  0000a	6a 00		 push	 0
  0000c	ff 75 0c	 push	 DWORD PTR _poArgs$[ebp]
  0000f	e8 00 00 00 00	 call	 ?PyTuple_GetWindow@@YA_NPAU_object@@HPAPAVCWindow@UI@@@Z ; PyTuple_GetWindow
  00014	83 c4 0c	 add	 esp, 12			; 0000000cH
  00017	84 c0		 test	 al, al
  00019	75 0e		 jne	 SHORT $LN2@wndTextSet
$LN5@wndTextSet:

; 1770 : }

  0001b	6a 00		 push	 0
  0001d	e8 00 00 00 00	 call	 ?Py_BuildException@@YAPAU_object@@PBDZZ ; Py_BuildException
  00022	83 c4 04	 add	 esp, 4
  00025	8b e5		 mov	 esp, ebp
  00027	5d		 pop	 ebp
  00028	c3		 ret	 0
$LN2@wndTextSet:

; 1763 : 		return Py_BuildException();
; 1764 : 	float fWidth;
; 1765 : 	if (!PyTuple_GetFloat(poArgs, 1, &fWidth))

  00029	8d 45 fc	 lea	 eax, DWORD PTR _fWidth$[ebp]
  0002c	50		 push	 eax
  0002d	6a 01		 push	 1
  0002f	ff 75 0c	 push	 DWORD PTR _poArgs$[ebp]
  00032	e8 00 00 00 00	 call	 ?PyTuple_GetFloat@@YA_NPAU_object@@HPAM@Z ; PyTuple_GetFloat
  00037	83 c4 0c	 add	 esp, 12			; 0000000cH
  0003a	84 c0		 test	 al, al
  0003c	74 dd		 je	 SHORT $LN5@wndTextSet

; 1766 : 		return Py_BuildException();
; 1767 : 
; 1768 : 	((UI::CTextLine*)pWindow)->SetLimitWidth(fWidth);

  0003e	f3 0f 10 45 fc	 movss	 xmm0, DWORD PTR _fWidth$[ebp]
  00043	51		 push	 ecx
  00044	8b 4d f8	 mov	 ecx, DWORD PTR _pWindow$[ebp]
  00047	f3 0f 11 04 24	 movss	 DWORD PTR [esp], xmm0
  0004c	e8 00 00 00 00	 call	 ?SetLimitWidth@CTextLine@UI@@QAEXM@Z ; UI::CTextLine::SetLimitWidth

; 1769 : 	return Py_BuildNone();

  00051	e8 00 00 00 00	 call	 ?Py_BuildNone@@YAPAU_object@@XZ ; Py_BuildNone

; 1770 : }

  00056	8b e5		 mov	 esp, ebp
  00058	5d		 pop	 ebp
  00059	c3		 ret	 0
?wndTextSetLimitWidth@@YAPAU_object@@PAU1@0@Z ENDP	; wndTextSetLimitWidth
_TEXT	ENDS
; Function compile flags: /Ogtp
; File C:\DS Project\DS Files\Source\ClientSource\Client\eterPythonLib\PythonWindowManagerModule.cpp
;	COMDAT ?wndTextSetFontColor@@YAPAU_object@@PAU1@0@Z
_TEXT	SEGMENT
_fr$1 = -20						; size = 4
_fg$2 = -16						; size = 4
_fb$3 = -12						; size = 4
_pWindow$ = -8						; size = 4
_argb$4 = -4						; size = 4
_iColor$5 = -4						; size = 4
_poSelf$ = 8						; size = 4
_poArgs$ = 12						; size = 4
?wndTextSetFontColor@@YAPAU_object@@PAU1@0@Z PROC	; wndTextSetFontColor, COMDAT

; 1718 : {

  00000	55		 push	 ebp
  00001	8b ec		 mov	 ebp, esp
  00003	83 ec 14	 sub	 esp, 20			; 00000014H

; 1719 : 	UI::CWindow * pWindow;
; 1720 : 	if (!PyTuple_GetWindow(poArgs, 0, &pWindow))

  00006	8d 45 f8	 lea	 eax, DWORD PTR _pWindow$[ebp]
  00009	56		 push	 esi
  0000a	8b 75 0c	 mov	 esi, DWORD PTR _poArgs$[ebp]
  0000d	50		 push	 eax
  0000e	6a 00		 push	 0
  00010	56		 push	 esi
  00011	e8 00 00 00 00	 call	 ?PyTuple_GetWindow@@YA_NPAU_object@@HPAPAVCWindow@UI@@@Z ; PyTuple_GetWindow
  00016	83 c4 0c	 add	 esp, 12			; 0000000cH
  00019	84 c0		 test	 al, al
  0001b	74 26		 je	 SHORT $LN6@wndTextSet

; 1721 : 		return Py_BuildException();
; 1722 : 
; 1723 : 	if (2 == PyTuple_Size(poArgs))

  0001d	56		 push	 esi
  0001e	ff 15 00 00 00
	00		 call	 DWORD PTR __imp__PyTuple_Size
  00024	83 c4 04	 add	 esp, 4
  00027	83 f8 02	 cmp	 eax, 2
  0002a	75 26		 jne	 SHORT $LN3@wndTextSet

; 1724 : 	{
; 1725 : 		int iColor;
; 1726 : 		if (!PyTuple_GetInteger(poArgs, 1, &iColor))

  0002c	8d 45 fc	 lea	 eax, DWORD PTR _iColor$5[ebp]
  0002f	50		 push	 eax
  00030	6a 01		 push	 1
  00032	56		 push	 esi
  00033	e8 00 00 00 00	 call	 ?PyTuple_GetInteger@@YA_NPAU_object@@HPAH@Z ; PyTuple_GetInteger
  00038	83 c4 0c	 add	 esp, 12			; 0000000cH
  0003b	84 c0		 test	 al, al
  0003d	0f 85 93 00 00
	00		 jne	 $LN12@wndTextSet
$LN6@wndTextSet:

; 1758 : }

  00043	6a 00		 push	 0
  00045	e8 00 00 00 00	 call	 ?Py_BuildException@@YAPAU_object@@PBDZZ ; Py_BuildException
  0004a	83 c4 04	 add	 esp, 4
  0004d	5e		 pop	 esi
  0004e	8b e5		 mov	 esp, ebp
  00050	5d		 pop	 ebp
  00051	c3		 ret	 0
$LN3@wndTextSet:

; 1727 : 			return Py_BuildException();
; 1728 : 		((UI::CTextLine*)pWindow)->SetFontColor(iColor);
; 1729 : 	}
; 1730 : 	else if (4 == PyTuple_Size(poArgs))

  00052	56		 push	 esi
  00053	ff 15 00 00 00
	00		 call	 DWORD PTR __imp__PyTuple_Size
  00059	83 c4 04	 add	 esp, 4
  0005c	83 f8 04	 cmp	 eax, 4
  0005f	75 e2		 jne	 SHORT $LN6@wndTextSet

; 1731 : 	{
; 1732 : 		float fr;
; 1733 : 		if (!PyTuple_GetFloat(poArgs, 1, &fr))

  00061	8d 45 ec	 lea	 eax, DWORD PTR _fr$1[ebp]
  00064	50		 push	 eax
  00065	6a 01		 push	 1
  00067	56		 push	 esi
  00068	e8 00 00 00 00	 call	 ?PyTuple_GetFloat@@YA_NPAU_object@@HPAM@Z ; PyTuple_GetFloat
  0006d	83 c4 0c	 add	 esp, 12			; 0000000cH
  00070	84 c0		 test	 al, al
  00072	74 cf		 je	 SHORT $LN6@wndTextSet

; 1734 : 			return Py_BuildException();
; 1735 : 		float fg;
; 1736 : 		if (!PyTuple_GetFloat(poArgs, 2, &fg))

  00074	8d 45 f0	 lea	 eax, DWORD PTR _fg$2[ebp]
  00077	50		 push	 eax
  00078	6a 02		 push	 2
  0007a	56		 push	 esi
  0007b	e8 00 00 00 00	 call	 ?PyTuple_GetFloat@@YA_NPAU_object@@HPAM@Z ; PyTuple_GetFloat
  00080	83 c4 0c	 add	 esp, 12			; 0000000cH
  00083	84 c0		 test	 al, al
  00085	74 bc		 je	 SHORT $LN6@wndTextSet

; 1737 : 			return Py_BuildException();
; 1738 : 		float fb;
; 1739 : 		if (!PyTuple_GetFloat(poArgs, 3, &fb))

  00087	8d 45 f4	 lea	 eax, DWORD PTR _fb$3[ebp]
  0008a	50		 push	 eax
  0008b	6a 03		 push	 3
  0008d	56		 push	 esi
  0008e	e8 00 00 00 00	 call	 ?PyTuple_GetFloat@@YA_NPAU_object@@HPAM@Z ; PyTuple_GetFloat
  00093	83 c4 0c	 add	 esp, 12			; 0000000cH
  00096	84 c0		 test	 al, al
  00098	74 a9		 je	 SHORT $LN6@wndTextSet

; 1740 : 			return Py_BuildException();
; 1741 : 		float fa = 1.0f;
; 1742 : 
; 1743 : 		BYTE argb[4] =
; 1744 : 		{
; 1745 : 			(BYTE) (255.0f * fb),

  0009a	f3 0f 10 0d 00
	00 00 00	 movss	 xmm1, DWORD PTR __real@437f0000
  000a2	f3 0f 10 45 f4	 movss	 xmm0, DWORD PTR _fb$3[ebp]
  000a7	f3 0f 59 c1	 mulss	 xmm0, xmm1

; 1746 : 			(BYTE) (255.0f * fg),
; 1747 : 			(BYTE) (255.0f * fr),
; 1748 : 			(BYTE) (255.0f * fa)

  000ab	c6 45 ff ff	 mov	 BYTE PTR _argb$4[ebp+3], 255 ; 000000ffH
  000af	f3 0f 2c c0	 cvttss2si eax, xmm0
  000b3	f3 0f 10 45 f0	 movss	 xmm0, DWORD PTR _fg$2[ebp]
  000b8	f3 0f 59 c1	 mulss	 xmm0, xmm1
  000bc	88 45 fc	 mov	 BYTE PTR _argb$4[ebp], al
  000bf	f3 0f 2c c0	 cvttss2si eax, xmm0
  000c3	f3 0f 10 45 ec	 movss	 xmm0, DWORD PTR _fr$1[ebp]
  000c8	f3 0f 59 c1	 mulss	 xmm0, xmm1
  000cc	88 45 fd	 mov	 BYTE PTR _argb$4[ebp+1], al
  000cf	f3 0f 2c c0	 cvttss2si eax, xmm0
  000d3	88 45 fe	 mov	 BYTE PTR _argb$4[ebp+2], al
$LN12@wndTextSet:

; 1749 : 		};
; 1750 : 		((UI::CTextLine*)pWindow)->SetFontColor(*((DWORD *) argb));
; 1751 : 	}
; 1752 : 	else
; 1753 : 	{
; 1754 : 		return Py_BuildException();
; 1755 : 	}
; 1756 : 
; 1757 : 	return Py_BuildNone();

  000d6	ff 75 fc	 push	 DWORD PTR _argb$4[ebp]
  000d9	8b 4d f8	 mov	 ecx, DWORD PTR _pWindow$[ebp]
  000dc	e8 00 00 00 00	 call	 ?SetFontColor@CTextLine@UI@@QAEXK@Z ; UI::CTextLine::SetFontColor
  000e1	e8 00 00 00 00	 call	 ?Py_BuildNone@@YAPAU_object@@XZ ; Py_BuildNone
  000e6	5e		 pop	 esi

; 1758 : }

  000e7	8b e5		 mov	 esp, ebp
  000e9	5d		 pop	 ebp
  000ea	c3		 ret	 0
?wndTextSetFontColor@@YAPAU_object@@PAU1@0@Z ENDP	; wndTextSetFontColor
_TEXT	ENDS
; Function compile flags: /Ogtp
; File C:\DS Project\DS Files\Source\ClientSource\Client\eterPythonLib\PythonWindowManagerModule.cpp
;	COMDAT ?wndTextSetFontName@@YAPAU_object@@PAU1@0@Z
_TEXT	SEGMENT
_pWindow$ = -8						; size = 4
_szFontName$ = -4					; size = 4
_poSelf$ = 8						; size = 4
_poArgs$ = 12						; size = 4
?wndTextSetFontName@@YAPAU_object@@PAU1@0@Z PROC	; wndTextSetFontName, COMDAT

; 1706 : {

  00000	55		 push	 ebp
  00001	8b ec		 mov	 ebp, esp
  00003	83 ec 08	 sub	 esp, 8

; 1707 : 	UI::CWindow * pWindow;
; 1708 : 	if (!PyTuple_GetWindow(poArgs, 0, &pWindow))

  00006	8d 45 f8	 lea	 eax, DWORD PTR _pWindow$[ebp]
  00009	50		 push	 eax
  0000a	6a 00		 push	 0
  0000c	ff 75 0c	 push	 DWORD PTR _poArgs$[ebp]
  0000f	e8 00 00 00 00	 call	 ?PyTuple_GetWindow@@YA_NPAU_object@@HPAPAVCWindow@UI@@@Z ; PyTuple_GetWindow
  00014	83 c4 0c	 add	 esp, 12			; 0000000cH
  00017	84 c0		 test	 al, al
  00019	75 0e		 jne	 SHORT $LN2@wndTextSet
$LN5@wndTextSet:

; 1716 : }

  0001b	6a 00		 push	 0
  0001d	e8 00 00 00 00	 call	 ?Py_BuildException@@YAPAU_object@@PBDZZ ; Py_BuildException
  00022	83 c4 04	 add	 esp, 4
  00025	8b e5		 mov	 esp, ebp
  00027	5d		 pop	 ebp
  00028	c3		 ret	 0
$LN2@wndTextSet:

; 1709 : 		return Py_BuildException();
; 1710 : 	char * szFontName;
; 1711 : 	if (!PyTuple_GetString(poArgs, 1, &szFontName))

  00029	8d 45 fc	 lea	 eax, DWORD PTR _szFontName$[ebp]
  0002c	50		 push	 eax
  0002d	6a 01		 push	 1
  0002f	ff 75 0c	 push	 DWORD PTR _poArgs$[ebp]
  00032	e8 00 00 00 00	 call	 ?PyTuple_GetString@@YA_NPAU_object@@HPAPAD@Z ; PyTuple_GetString
  00037	83 c4 0c	 add	 esp, 12			; 0000000cH
  0003a	84 c0		 test	 al, al
  0003c	74 dd		 je	 SHORT $LN5@wndTextSet

; 1712 : 		return Py_BuildException();
; 1713 : 
; 1714 : 	((UI::CTextLine*)pWindow)->SetFontName(szFontName);

  0003e	ff 75 fc	 push	 DWORD PTR _szFontName$[ebp]
  00041	8b 4d f8	 mov	 ecx, DWORD PTR _pWindow$[ebp]
  00044	e8 00 00 00 00	 call	 ?SetFontName@CTextLine@UI@@QAEXPBD@Z ; UI::CTextLine::SetFontName

; 1715 : 	return Py_BuildNone();

  00049	e8 00 00 00 00	 call	 ?Py_BuildNone@@YAPAU_object@@XZ ; Py_BuildNone

; 1716 : }

  0004e	8b e5		 mov	 esp, ebp
  00050	5d		 pop	 ebp
  00051	c3		 ret	 0
?wndTextSetFontName@@YAPAU_object@@PAU1@0@Z ENDP	; wndTextSetFontName
_TEXT	ENDS
; Function compile flags: /Ogtp
; File C:\DS Project\DS Files\Source\ClientSource\Client\eterPythonLib\PythonWindowManagerModule.cpp
;	COMDAT ?wndTextSetMultiLine@@YAPAU_object@@PAU1@0@Z
_TEXT	SEGMENT
_pWindow$ = -8						; size = 4
_iFlag$ = -4						; size = 4
_poSelf$ = 8						; size = 4
_poArgs$ = 12						; size = 4
?wndTextSetMultiLine@@YAPAU_object@@PAU1@0@Z PROC	; wndTextSetMultiLine, COMDAT

; 1694 : {

  00000	55		 push	 ebp
  00001	8b ec		 mov	 ebp, esp
  00003	83 ec 08	 sub	 esp, 8

; 1695 : 	UI::CWindow * pWindow;
; 1696 : 	if (!PyTuple_GetWindow(poArgs, 0, &pWindow))

  00006	8d 45 f8	 lea	 eax, DWORD PTR _pWindow$[ebp]
  00009	50		 push	 eax
  0000a	6a 00		 push	 0
  0000c	ff 75 0c	 push	 DWORD PTR _poArgs$[ebp]
  0000f	e8 00 00 00 00	 call	 ?PyTuple_GetWindow@@YA_NPAU_object@@HPAPAVCWindow@UI@@@Z ; PyTuple_GetWindow
  00014	83 c4 0c	 add	 esp, 12			; 0000000cH
  00017	84 c0		 test	 al, al
  00019	75 0e		 jne	 SHORT $LN2@wndTextSet
$LN5@wndTextSet:

; 1704 : }

  0001b	6a 00		 push	 0
  0001d	e8 00 00 00 00	 call	 ?Py_BuildException@@YAPAU_object@@PBDZZ ; Py_BuildException
  00022	83 c4 04	 add	 esp, 4
  00025	8b e5		 mov	 esp, ebp
  00027	5d		 pop	 ebp
  00028	c3		 ret	 0
$LN2@wndTextSet:

; 1697 : 		return Py_BuildException();
; 1698 : 	int iFlag;
; 1699 : 	if (!PyTuple_GetInteger(poArgs, 1, &iFlag))

  00029	8d 45 fc	 lea	 eax, DWORD PTR _iFlag$[ebp]
  0002c	50		 push	 eax
  0002d	6a 01		 push	 1
  0002f	ff 75 0c	 push	 DWORD PTR _poArgs$[ebp]
  00032	e8 00 00 00 00	 call	 ?PyTuple_GetInteger@@YA_NPAU_object@@HPAH@Z ; PyTuple_GetInteger
  00037	83 c4 0c	 add	 esp, 12			; 0000000cH
  0003a	84 c0		 test	 al, al
  0003c	74 dd		 je	 SHORT $LN5@wndTextSet

; 1700 : 		return Py_BuildException();
; 1701 : 
; 1702 : 	((UI::CTextLine*)pWindow)->SetMultiLine(iFlag);

  0003e	ff 75 fc	 push	 DWORD PTR _iFlag$[ebp]
  00041	8b 4d f8	 mov	 ecx, DWORD PTR _pWindow$[ebp]
  00044	e8 00 00 00 00	 call	 ?SetMultiLine@CTextLine@UI@@QAEXH@Z ; UI::CTextLine::SetMultiLine

; 1703 : 	return Py_BuildNone();

  00049	e8 00 00 00 00	 call	 ?Py_BuildNone@@YAPAU_object@@XZ ; Py_BuildNone

; 1704 : }

  0004e	8b e5		 mov	 esp, ebp
  00050	5d		 pop	 ebp
  00051	c3		 ret	 0
?wndTextSetMultiLine@@YAPAU_object@@PAU1@0@Z ENDP	; wndTextSetMultiLine
_TEXT	ENDS
; Function compile flags: /Ogtp
; File C:\DS Project\DS Files\Source\ClientSource\Client\eterPythonLib\PythonWindowManagerModule.cpp
;	COMDAT ?wndTextSetFeather@@YAPAU_object@@PAU1@0@Z
_TEXT	SEGMENT
_pWindow$ = -8						; size = 4
_iFlag$ = -4						; size = 4
_poSelf$ = 8						; size = 4
_poArgs$ = 12						; size = 4
?wndTextSetFeather@@YAPAU_object@@PAU1@0@Z PROC		; wndTextSetFeather, COMDAT

; 1682 : {

  00000	55		 push	 ebp
  00001	8b ec		 mov	 ebp, esp
  00003	83 ec 08	 sub	 esp, 8

; 1683 : 	UI::CWindow * pWindow;
; 1684 : 	if (!PyTuple_GetWindow(poArgs, 0, &pWindow))

  00006	8d 45 f8	 lea	 eax, DWORD PTR _pWindow$[ebp]
  00009	50		 push	 eax
  0000a	6a 00		 push	 0
  0000c	ff 75 0c	 push	 DWORD PTR _poArgs$[ebp]
  0000f	e8 00 00 00 00	 call	 ?PyTuple_GetWindow@@YA_NPAU_object@@HPAPAVCWindow@UI@@@Z ; PyTuple_GetWindow
  00014	83 c4 0c	 add	 esp, 12			; 0000000cH
  00017	84 c0		 test	 al, al
  00019	75 0e		 jne	 SHORT $LN2@wndTextSet
$LN5@wndTextSet:

; 1692 : }

  0001b	6a 00		 push	 0
  0001d	e8 00 00 00 00	 call	 ?Py_BuildException@@YAPAU_object@@PBDZZ ; Py_BuildException
  00022	83 c4 04	 add	 esp, 4
  00025	8b e5		 mov	 esp, ebp
  00027	5d		 pop	 ebp
  00028	c3		 ret	 0
$LN2@wndTextSet:

; 1685 : 		return Py_BuildException();
; 1686 : 	int iFlag;
; 1687 : 	if (!PyTuple_GetInteger(poArgs, 1, &iFlag))

  00029	8d 45 fc	 lea	 eax, DWORD PTR _iFlag$[ebp]
  0002c	50		 push	 eax
  0002d	6a 01		 push	 1
  0002f	ff 75 0c	 push	 DWORD PTR _poArgs$[ebp]
  00032	e8 00 00 00 00	 call	 ?PyTuple_GetInteger@@YA_NPAU_object@@HPAH@Z ; PyTuple_GetInteger
  00037	83 c4 0c	 add	 esp, 12			; 0000000cH
  0003a	84 c0		 test	 al, al
  0003c	74 dd		 je	 SHORT $LN5@wndTextSet

; 1688 : 		return Py_BuildException();
; 1689 : 
; 1690 : 	((UI::CTextLine*)pWindow)->SetFeather(iFlag);

  0003e	ff 75 fc	 push	 DWORD PTR _iFlag$[ebp]
  00041	8b 4d f8	 mov	 ecx, DWORD PTR _pWindow$[ebp]
  00044	e8 00 00 00 00	 call	 ?SetFeather@CTextLine@UI@@QAEXH@Z ; UI::CTextLine::SetFeather

; 1691 : 	return Py_BuildNone();

  00049	e8 00 00 00 00	 call	 ?Py_BuildNone@@YAPAU_object@@XZ ; Py_BuildNone

; 1692 : }

  0004e	8b e5		 mov	 esp, ebp
  00050	5d		 pop	 ebp
  00051	c3		 ret	 0
?wndTextSetFeather@@YAPAU_object@@PAU1@0@Z ENDP		; wndTextSetFeather
_TEXT	ENDS
; Function compile flags: /Ogtp
; File C:\DS Project\DS Files\Source\ClientSource\Client\eterPythonLib\PythonWindowManagerModule.cpp
;	COMDAT ?wndTextSetOutline@@YAPAU_object@@PAU1@0@Z
_TEXT	SEGMENT
_pWindow$ = -8						; size = 4
_iFlag$ = -4						; size = 4
_poSelf$ = 8						; size = 4
_poArgs$ = 12						; size = 4
?wndTextSetOutline@@YAPAU_object@@PAU1@0@Z PROC		; wndTextSetOutline, COMDAT

; 1670 : {

  00000	55		 push	 ebp
  00001	8b ec		 mov	 ebp, esp
  00003	83 ec 08	 sub	 esp, 8

; 1671 : 	UI::CWindow * pWindow;
; 1672 : 	if (!PyTuple_GetWindow(poArgs, 0, &pWindow))

  00006	8d 45 f8	 lea	 eax, DWORD PTR _pWindow$[ebp]
  00009	50		 push	 eax
  0000a	6a 00		 push	 0
  0000c	ff 75 0c	 push	 DWORD PTR _poArgs$[ebp]
  0000f	e8 00 00 00 00	 call	 ?PyTuple_GetWindow@@YA_NPAU_object@@HPAPAVCWindow@UI@@@Z ; PyTuple_GetWindow
  00014	83 c4 0c	 add	 esp, 12			; 0000000cH
  00017	84 c0		 test	 al, al
  00019	75 0e		 jne	 SHORT $LN2@wndTextSet
$LN5@wndTextSet:

; 1680 : }

  0001b	6a 00		 push	 0
  0001d	e8 00 00 00 00	 call	 ?Py_BuildException@@YAPAU_object@@PBDZZ ; Py_BuildException
  00022	83 c4 04	 add	 esp, 4
  00025	8b e5		 mov	 esp, ebp
  00027	5d		 pop	 ebp
  00028	c3		 ret	 0
$LN2@wndTextSet:

; 1673 : 		return Py_BuildException();
; 1674 : 	int iFlag;
; 1675 : 	if (!PyTuple_GetInteger(poArgs, 1, &iFlag))

  00029	8d 45 fc	 lea	 eax, DWORD PTR _iFlag$[ebp]
  0002c	50		 push	 eax
  0002d	6a 01		 push	 1
  0002f	ff 75 0c	 push	 DWORD PTR _poArgs$[ebp]
  00032	e8 00 00 00 00	 call	 ?PyTuple_GetInteger@@YA_NPAU_object@@HPAH@Z ; PyTuple_GetInteger
  00037	83 c4 0c	 add	 esp, 12			; 0000000cH
  0003a	84 c0		 test	 al, al
  0003c	74 dd		 je	 SHORT $LN5@wndTextSet

; 1676 : 		return Py_BuildException();
; 1677 : 
; 1678 : 	((UI::CTextLine*)pWindow)->SetOutline(iFlag);

  0003e	ff 75 fc	 push	 DWORD PTR _iFlag$[ebp]
  00041	8b 4d f8	 mov	 ecx, DWORD PTR _pWindow$[ebp]
  00044	e8 00 00 00 00	 call	 ?SetOutline@CTextLine@UI@@QAEXH@Z ; UI::CTextLine::SetOutline

; 1679 : 	return Py_BuildNone();

  00049	e8 00 00 00 00	 call	 ?Py_BuildNone@@YAPAU_object@@XZ ; Py_BuildNone

; 1680 : }

  0004e	8b e5		 mov	 esp, ebp
  00050	5d		 pop	 ebp
  00051	c3		 ret	 0
?wndTextSetOutline@@YAPAU_object@@PAU1@0@Z ENDP		; wndTextSetOutline
_TEXT	ENDS
; Function compile flags: /Ogtp
; File C:\DS Project\DS Files\Source\ClientSource\Client\eterPythonLib\PythonWindowManagerModule.cpp
;	COMDAT ?wndTextSetSecret@@YAPAU_object@@PAU1@0@Z
_TEXT	SEGMENT
_pWindow$ = -8						; size = 4
_iFlag$ = -4						; size = 4
_poSelf$ = 8						; size = 4
_poArgs$ = 12						; size = 4
?wndTextSetSecret@@YAPAU_object@@PAU1@0@Z PROC		; wndTextSetSecret, COMDAT

; 1658 : {

  00000	55		 push	 ebp
  00001	8b ec		 mov	 ebp, esp
  00003	83 ec 08	 sub	 esp, 8

; 1659 : 	UI::CWindow * pWindow;
; 1660 : 	if (!PyTuple_GetWindow(poArgs, 0, &pWindow))

  00006	8d 45 f8	 lea	 eax, DWORD PTR _pWindow$[ebp]
  00009	50		 push	 eax
  0000a	6a 00		 push	 0
  0000c	ff 75 0c	 push	 DWORD PTR _poArgs$[ebp]
  0000f	e8 00 00 00 00	 call	 ?PyTuple_GetWindow@@YA_NPAU_object@@HPAPAVCWindow@UI@@@Z ; PyTuple_GetWindow
  00014	83 c4 0c	 add	 esp, 12			; 0000000cH
  00017	84 c0		 test	 al, al
  00019	75 0e		 jne	 SHORT $LN2@wndTextSet
$LN5@wndTextSet:

; 1668 : }

  0001b	6a 00		 push	 0
  0001d	e8 00 00 00 00	 call	 ?Py_BuildException@@YAPAU_object@@PBDZZ ; Py_BuildException
  00022	83 c4 04	 add	 esp, 4
  00025	8b e5		 mov	 esp, ebp
  00027	5d		 pop	 ebp
  00028	c3		 ret	 0
$LN2@wndTextSet:

; 1661 : 		return Py_BuildException();
; 1662 : 	int iFlag;
; 1663 : 	if (!PyTuple_GetInteger(poArgs, 1, &iFlag))

  00029	8d 45 fc	 lea	 eax, DWORD PTR _iFlag$[ebp]
  0002c	50		 push	 eax
  0002d	6a 01		 push	 1
  0002f	ff 75 0c	 push	 DWORD PTR _poArgs$[ebp]
  00032	e8 00 00 00 00	 call	 ?PyTuple_GetInteger@@YA_NPAU_object@@HPAH@Z ; PyTuple_GetInteger
  00037	83 c4 0c	 add	 esp, 12			; 0000000cH
  0003a	84 c0		 test	 al, al
  0003c	74 dd		 je	 SHORT $LN5@wndTextSet

; 1664 : 		return Py_BuildException();
; 1665 : 
; 1666 : 	((UI::CTextLine*)pWindow)->SetSecret(iFlag);

  0003e	ff 75 fc	 push	 DWORD PTR _iFlag$[ebp]
  00041	8b 4d f8	 mov	 ecx, DWORD PTR _pWindow$[ebp]
  00044	e8 00 00 00 00	 call	 ?SetSecret@CTextLine@UI@@QAEXH@Z ; UI::CTextLine::SetSecret

; 1667 : 	return Py_BuildNone();

  00049	e8 00 00 00 00	 call	 ?Py_BuildNone@@YAPAU_object@@XZ ; Py_BuildNone

; 1668 : }

  0004e	8b e5		 mov	 esp, ebp
  00050	5d		 pop	 ebp
  00051	c3		 ret	 0
?wndTextSetSecret@@YAPAU_object@@PAU1@0@Z ENDP		; wndTextSetSecret
_TEXT	ENDS
; Function compile flags: /Ogtp
; File C:\DS Project\DS Files\Source\ClientSource\Client\eterPythonLib\PythonWindowManagerModule.cpp
;	COMDAT ?wndTextSetVerticalAlign@@YAPAU_object@@PAU1@0@Z
_TEXT	SEGMENT
_pWindow$ = -8						; size = 4
_iType$ = -4						; size = 4
_poSelf$ = 8						; size = 4
_poArgs$ = 12						; size = 4
?wndTextSetVerticalAlign@@YAPAU_object@@PAU1@0@Z PROC	; wndTextSetVerticalAlign, COMDAT

; 1646 : {

  00000	55		 push	 ebp
  00001	8b ec		 mov	 ebp, esp
  00003	83 ec 08	 sub	 esp, 8

; 1647 : 	UI::CWindow * pWindow;
; 1648 : 	if (!PyTuple_GetWindow(poArgs, 0, &pWindow))

  00006	8d 45 f8	 lea	 eax, DWORD PTR _pWindow$[ebp]
  00009	50		 push	 eax
  0000a	6a 00		 push	 0
  0000c	ff 75 0c	 push	 DWORD PTR _poArgs$[ebp]
  0000f	e8 00 00 00 00	 call	 ?PyTuple_GetWindow@@YA_NPAU_object@@HPAPAVCWindow@UI@@@Z ; PyTuple_GetWindow
  00014	83 c4 0c	 add	 esp, 12			; 0000000cH
  00017	84 c0		 test	 al, al
  00019	75 0e		 jne	 SHORT $LN2@wndTextSet
$LN5@wndTextSet:

; 1656 : }

  0001b	6a 00		 push	 0
  0001d	e8 00 00 00 00	 call	 ?Py_BuildException@@YAPAU_object@@PBDZZ ; Py_BuildException
  00022	83 c4 04	 add	 esp, 4
  00025	8b e5		 mov	 esp, ebp
  00027	5d		 pop	 ebp
  00028	c3		 ret	 0
$LN2@wndTextSet:

; 1649 : 		return Py_BuildException();
; 1650 : 	int iType;
; 1651 : 	if (!PyTuple_GetInteger(poArgs, 1, &iType))

  00029	8d 45 fc	 lea	 eax, DWORD PTR _iType$[ebp]
  0002c	50		 push	 eax
  0002d	6a 01		 push	 1
  0002f	ff 75 0c	 push	 DWORD PTR _poArgs$[ebp]
  00032	e8 00 00 00 00	 call	 ?PyTuple_GetInteger@@YA_NPAU_object@@HPAH@Z ; PyTuple_GetInteger
  00037	83 c4 0c	 add	 esp, 12			; 0000000cH
  0003a	84 c0		 test	 al, al
  0003c	74 dd		 je	 SHORT $LN5@wndTextSet

; 1652 : 		return Py_BuildException();
; 1653 : 
; 1654 : 	((UI::CTextLine*)pWindow)->SetVerticalAlign(iType);

  0003e	ff 75 fc	 push	 DWORD PTR _iType$[ebp]
  00041	8b 4d f8	 mov	 ecx, DWORD PTR _pWindow$[ebp]
  00044	e8 00 00 00 00	 call	 ?SetVerticalAlign@CTextLine@UI@@QAEXH@Z ; UI::CTextLine::SetVerticalAlign

; 1655 : 	return Py_BuildNone();

  00049	e8 00 00 00 00	 call	 ?Py_BuildNone@@YAPAU_object@@XZ ; Py_BuildNone

; 1656 : }

  0004e	8b e5		 mov	 esp, ebp
  00050	5d		 pop	 ebp
  00051	c3		 ret	 0
?wndTextSetVerticalAlign@@YAPAU_object@@PAU1@0@Z ENDP	; wndTextSetVerticalAlign
_TEXT	ENDS
; Function compile flags: /Ogtp
; File C:\DS Project\DS Files\Source\ClientSource\Client\eterPythonLib\PythonWindowManagerModule.cpp
;	COMDAT ?wndTextSetHorizontalAlign@@YAPAU_object@@PAU1@0@Z
_TEXT	SEGMENT
_pWindow$ = -8						; size = 4
_iType$ = -4						; size = 4
_poSelf$ = 8						; size = 4
_poArgs$ = 12						; size = 4
?wndTextSetHorizontalAlign@@YAPAU_object@@PAU1@0@Z PROC	; wndTextSetHorizontalAlign, COMDAT

; 1634 : {

  00000	55		 push	 ebp
  00001	8b ec		 mov	 ebp, esp
  00003	83 ec 08	 sub	 esp, 8

; 1635 : 	UI::CWindow * pWindow;
; 1636 : 	if (!PyTuple_GetWindow(poArgs, 0, &pWindow))

  00006	8d 45 f8	 lea	 eax, DWORD PTR _pWindow$[ebp]
  00009	50		 push	 eax
  0000a	6a 00		 push	 0
  0000c	ff 75 0c	 push	 DWORD PTR _poArgs$[ebp]
  0000f	e8 00 00 00 00	 call	 ?PyTuple_GetWindow@@YA_NPAU_object@@HPAPAVCWindow@UI@@@Z ; PyTuple_GetWindow
  00014	83 c4 0c	 add	 esp, 12			; 0000000cH
  00017	84 c0		 test	 al, al
  00019	75 0e		 jne	 SHORT $LN2@wndTextSet
$LN5@wndTextSet:

; 1644 : }

  0001b	6a 00		 push	 0
  0001d	e8 00 00 00 00	 call	 ?Py_BuildException@@YAPAU_object@@PBDZZ ; Py_BuildException
  00022	83 c4 04	 add	 esp, 4
  00025	8b e5		 mov	 esp, ebp
  00027	5d		 pop	 ebp
  00028	c3		 ret	 0
$LN2@wndTextSet:

; 1637 : 		return Py_BuildException();
; 1638 : 	int iType;
; 1639 : 	if (!PyTuple_GetInteger(poArgs, 1, &iType))

  00029	8d 45 fc	 lea	 eax, DWORD PTR _iType$[ebp]
  0002c	50		 push	 eax
  0002d	6a 01		 push	 1
  0002f	ff 75 0c	 push	 DWORD PTR _poArgs$[ebp]
  00032	e8 00 00 00 00	 call	 ?PyTuple_GetInteger@@YA_NPAU_object@@HPAH@Z ; PyTuple_GetInteger
  00037	83 c4 0c	 add	 esp, 12			; 0000000cH
  0003a	84 c0		 test	 al, al
  0003c	74 dd		 je	 SHORT $LN5@wndTextSet

; 1640 : 		return Py_BuildException();
; 1641 : 
; 1642 : 	((UI::CTextLine*)pWindow)->SetHorizontalAlign(iType);

  0003e	ff 75 fc	 push	 DWORD PTR _iType$[ebp]
  00041	8b 4d f8	 mov	 ecx, DWORD PTR _pWindow$[ebp]
  00044	e8 00 00 00 00	 call	 ?SetHorizontalAlign@CTextLine@UI@@QAEXH@Z ; UI::CTextLine::SetHorizontalAlign

; 1643 : 	return Py_BuildNone();

  00049	e8 00 00 00 00	 call	 ?Py_BuildNone@@YAPAU_object@@XZ ; Py_BuildNone

; 1644 : }

  0004e	8b e5		 mov	 esp, ebp
  00050	5d		 pop	 ebp
  00051	c3		 ret	 0
?wndTextSetHorizontalAlign@@YAPAU_object@@PAU1@0@Z ENDP	; wndTextSetHorizontalAlign
_TEXT	ENDS
; Function compile flags: /Ogtp
; File C:\DS Project\DS Files\Source\ClientSource\Client\eterPythonLib\PythonWindowManagerModule.cpp
;	COMDAT ?wndTextSetMax@@YAPAU_object@@PAU1@0@Z
_TEXT	SEGMENT
_pWindow$ = -8						; size = 4
_iMax$ = -4						; size = 4
_poSelf$ = 8						; size = 4
_poArgs$ = 12						; size = 4
?wndTextSetMax@@YAPAU_object@@PAU1@0@Z PROC		; wndTextSetMax, COMDAT

; 1622 : {

  00000	55		 push	 ebp
  00001	8b ec		 mov	 ebp, esp
  00003	83 ec 08	 sub	 esp, 8

; 1623 : 	UI::CWindow * pWindow;
; 1624 : 	if (!PyTuple_GetWindow(poArgs, 0, &pWindow))

  00006	8d 45 f8	 lea	 eax, DWORD PTR _pWindow$[ebp]
  00009	50		 push	 eax
  0000a	6a 00		 push	 0
  0000c	ff 75 0c	 push	 DWORD PTR _poArgs$[ebp]
  0000f	e8 00 00 00 00	 call	 ?PyTuple_GetWindow@@YA_NPAU_object@@HPAPAVCWindow@UI@@@Z ; PyTuple_GetWindow
  00014	83 c4 0c	 add	 esp, 12			; 0000000cH
  00017	84 c0		 test	 al, al
  00019	75 0e		 jne	 SHORT $LN2@wndTextSet
$LN5@wndTextSet:

; 1632 : }

  0001b	6a 00		 push	 0
  0001d	e8 00 00 00 00	 call	 ?Py_BuildException@@YAPAU_object@@PBDZZ ; Py_BuildException
  00022	83 c4 04	 add	 esp, 4
  00025	8b e5		 mov	 esp, ebp
  00027	5d		 pop	 ebp
  00028	c3		 ret	 0
$LN2@wndTextSet:

; 1625 : 		return Py_BuildException();
; 1626 : 	int iMax;
; 1627 : 	if (!PyTuple_GetInteger(poArgs, 1, &iMax))

  00029	8d 45 fc	 lea	 eax, DWORD PTR _iMax$[ebp]
  0002c	50		 push	 eax
  0002d	6a 01		 push	 1
  0002f	ff 75 0c	 push	 DWORD PTR _poArgs$[ebp]
  00032	e8 00 00 00 00	 call	 ?PyTuple_GetInteger@@YA_NPAU_object@@HPAH@Z ; PyTuple_GetInteger
  00037	83 c4 0c	 add	 esp, 12			; 0000000cH
  0003a	84 c0		 test	 al, al
  0003c	74 dd		 je	 SHORT $LN5@wndTextSet

; 1628 : 		return Py_BuildException();
; 1629 : 
; 1630 : 	((UI::CTextLine*)pWindow)->SetMax(iMax);

  0003e	ff 75 fc	 push	 DWORD PTR _iMax$[ebp]
  00041	8b 4d f8	 mov	 ecx, DWORD PTR _pWindow$[ebp]
  00044	e8 00 00 00 00	 call	 ?SetMax@CTextLine@UI@@QAEXH@Z ; UI::CTextLine::SetMax

; 1631 : 	return Py_BuildNone();

  00049	e8 00 00 00 00	 call	 ?Py_BuildNone@@YAPAU_object@@XZ ; Py_BuildNone

; 1632 : }

  0004e	8b e5		 mov	 esp, ebp
  00050	5d		 pop	 ebp
  00051	c3		 ret	 0
?wndTextSetMax@@YAPAU_object@@PAU1@0@Z ENDP		; wndTextSetMax
_TEXT	ENDS
; Function compile flags: /Ogtp
; File C:\DS Project\DS Files\Source\ClientSource\Client\eterPythonLib\PythonWindowManagerModule.cpp
;	COMDAT ?wndMgrSetAttachingFlag@@YAPAU_object@@PAU1@0@Z
_TEXT	SEGMENT
_bFlag$ = -4						; size = 4
_poSelf$ = 8						; size = 4
_poArgs$ = 12						; size = 4
?wndMgrSetAttachingFlag@@YAPAU_object@@PAU1@0@Z PROC	; wndMgrSetAttachingFlag, COMDAT

; 1611 : {

  00000	55		 push	 ebp
  00001	8b ec		 mov	 ebp, esp
  00003	51		 push	 ecx

; 1612 : 	BOOL bFlag;
; 1613 : 	if (!PyTuple_GetInteger(poArgs, 0, &bFlag))

  00004	8d 45 fc	 lea	 eax, DWORD PTR _bFlag$[ebp]
  00007	50		 push	 eax
  00008	6a 00		 push	 0
  0000a	ff 75 0c	 push	 DWORD PTR _poArgs$[ebp]
  0000d	e8 00 00 00 00	 call	 ?PyTuple_GetInteger@@YA_NPAU_object@@HPAH@Z ; PyTuple_GetInteger
  00012	83 c4 0c	 add	 esp, 12			; 0000000cH
  00015	84 c0		 test	 al, al
  00017	75 0e		 jne	 SHORT $LN2@wndMgrSetA

; 1614 : 		return Py_BuildException();

  00019	6a 00		 push	 0
  0001b	e8 00 00 00 00	 call	 ?Py_BuildException@@YAPAU_object@@PBDZZ ; Py_BuildException
  00020	83 c4 04	 add	 esp, 4

; 1618 : }

  00023	8b e5		 mov	 esp, ebp
  00025	5d		 pop	 ebp
  00026	c3		 ret	 0
$LN2@wndMgrSetA:

; 1615 : 
; 1616 : 	UI::CWindowManager::Instance().SetAttachingFlag(bFlag);

  00027	ff 75 fc	 push	 DWORD PTR _bFlag$[ebp]
  0002a	8b 0d 00 00 00
	00		 mov	 ecx, DWORD PTR ?ms_singleton@?$CSingleton@VCWindowManager@UI@@@@0PAVCWindowManager@UI@@A ; CSingleton<UI::CWindowManager>::ms_singleton
  00030	e8 00 00 00 00	 call	 ?SetAttachingFlag@CWindowManager@UI@@QAEXH@Z ; UI::CWindowManager::SetAttachingFlag

; 1617 : 	return Py_BuildNone();

  00035	e8 00 00 00 00	 call	 ?Py_BuildNone@@YAPAU_object@@XZ ; Py_BuildNone

; 1618 : }

  0003a	8b e5		 mov	 esp, ebp
  0003c	5d		 pop	 ebp
  0003d	c3		 ret	 0
?wndMgrSetAttachingFlag@@YAPAU_object@@PAU1@0@Z ENDP	; wndMgrSetAttachingFlag
_TEXT	ENDS
; Function compile flags: /Ogtp
; File C:\DS Project\DS Files\Source\ClientSource\Client\eterPythonLib\PythonWindowManagerModule.cpp
;	COMDAT ?wndMgrDeattachIcon@@YAPAU_object@@PAU1@0@Z
_TEXT	SEGMENT
_poSelf$ = 8						; size = 4
_poArgs$ = 12						; size = 4
?wndMgrDeattachIcon@@YAPAU_object@@PAU1@0@Z PROC	; wndMgrDeattachIcon, COMDAT

; 1606 : 	UI::CWindowManager::Instance().DeattachIcon();

  00000	8b 0d 00 00 00
	00		 mov	 ecx, DWORD PTR ?ms_singleton@?$CSingleton@VCWindowManager@UI@@@@0PAVCWindowManager@UI@@A ; CSingleton<UI::CWindowManager>::ms_singleton
  00006	e8 00 00 00 00	 call	 ?DeattachIcon@CWindowManager@UI@@QAEXXZ ; UI::CWindowManager::DeattachIcon

; 1607 : 	return Py_BuildNone();

  0000b	e9 00 00 00 00	 jmp	 ?Py_BuildNone@@YAPAU_object@@XZ ; Py_BuildNone
?wndMgrDeattachIcon@@YAPAU_object@@PAU1@0@Z ENDP	; wndMgrDeattachIcon
_TEXT	ENDS
; Function compile flags: /Ogtp
; File C:\DS Project\DS Files\Source\ClientSource\Client\eterPythonLib\PythonWindowManagerModule.cpp
;	COMDAT ?wndMgrAttachIcon@@YAPAU_object@@PAU1@0@Z
_TEXT	SEGMENT
_iType$ = -20						; size = 4
_iIndex$ = -16						; size = 4
_iSlotNumber$ = -12					; size = 4
_iWidth$ = -8						; size = 4
_iHeight$ = -4						; size = 4
_poSelf$ = 8						; size = 4
_poArgs$ = 12						; size = 4
?wndMgrAttachIcon@@YAPAU_object@@PAU1@0@Z PROC		; wndMgrAttachIcon, COMDAT

; 1583 : {

  00000	55		 push	 ebp
  00001	8b ec		 mov	 ebp, esp
  00003	83 ec 14	 sub	 esp, 20			; 00000014H

; 1584 : 	int iType;
; 1585 : 	if (!PyTuple_GetInteger(poArgs, 0, &iType))

  00006	8d 45 ec	 lea	 eax, DWORD PTR _iType$[ebp]
  00009	56		 push	 esi
  0000a	8b 75 0c	 mov	 esi, DWORD PTR _poArgs$[ebp]
  0000d	50		 push	 eax
  0000e	6a 00		 push	 0
  00010	56		 push	 esi
  00011	e8 00 00 00 00	 call	 ?PyTuple_GetInteger@@YA_NPAU_object@@HPAH@Z ; PyTuple_GetInteger
  00016	83 c4 0c	 add	 esp, 12			; 0000000cH
  00019	84 c0		 test	 al, al
  0001b	75 0f		 jne	 SHORT $LN2@wndMgrAtta
$LN8@wndMgrAtta:

; 1602 : }

  0001d	6a 00		 push	 0
  0001f	e8 00 00 00 00	 call	 ?Py_BuildException@@YAPAU_object@@PBDZZ ; Py_BuildException
  00024	83 c4 04	 add	 esp, 4
  00027	5e		 pop	 esi
  00028	8b e5		 mov	 esp, ebp
  0002a	5d		 pop	 ebp
  0002b	c3		 ret	 0
$LN2@wndMgrAtta:

; 1586 : 		return Py_BuildException();
; 1587 : 	int iIndex;
; 1588 : 	if (!PyTuple_GetInteger(poArgs, 1, &iIndex))

  0002c	8d 45 f0	 lea	 eax, DWORD PTR _iIndex$[ebp]
  0002f	50		 push	 eax
  00030	6a 01		 push	 1
  00032	56		 push	 esi
  00033	e8 00 00 00 00	 call	 ?PyTuple_GetInteger@@YA_NPAU_object@@HPAH@Z ; PyTuple_GetInteger
  00038	83 c4 0c	 add	 esp, 12			; 0000000cH
  0003b	84 c0		 test	 al, al
  0003d	74 de		 je	 SHORT $LN8@wndMgrAtta

; 1589 : 		return Py_BuildException();
; 1590 : 	int iSlotNumber;
; 1591 : 	if (!PyTuple_GetInteger(poArgs, 2, &iSlotNumber))

  0003f	8d 45 f4	 lea	 eax, DWORD PTR _iSlotNumber$[ebp]
  00042	50		 push	 eax
  00043	6a 02		 push	 2
  00045	56		 push	 esi
  00046	e8 00 00 00 00	 call	 ?PyTuple_GetInteger@@YA_NPAU_object@@HPAH@Z ; PyTuple_GetInteger
  0004b	83 c4 0c	 add	 esp, 12			; 0000000cH
  0004e	84 c0		 test	 al, al
  00050	74 cb		 je	 SHORT $LN8@wndMgrAtta

; 1592 : 		return Py_BuildException();
; 1593 : 	int iWidth;
; 1594 : 	if (!PyTuple_GetInteger(poArgs, 3, &iWidth))

  00052	8d 45 f8	 lea	 eax, DWORD PTR _iWidth$[ebp]
  00055	50		 push	 eax
  00056	6a 03		 push	 3
  00058	56		 push	 esi
  00059	e8 00 00 00 00	 call	 ?PyTuple_GetInteger@@YA_NPAU_object@@HPAH@Z ; PyTuple_GetInteger
  0005e	83 c4 0c	 add	 esp, 12			; 0000000cH
  00061	84 c0		 test	 al, al
  00063	74 b8		 je	 SHORT $LN8@wndMgrAtta

; 1595 : 		return Py_BuildException();
; 1596 : 	int iHeight;
; 1597 : 	if (!PyTuple_GetInteger(poArgs, 4, &iHeight))

  00065	8d 45 fc	 lea	 eax, DWORD PTR _iHeight$[ebp]
  00068	50		 push	 eax
  00069	6a 04		 push	 4
  0006b	56		 push	 esi
  0006c	e8 00 00 00 00	 call	 ?PyTuple_GetInteger@@YA_NPAU_object@@HPAH@Z ; PyTuple_GetInteger
  00071	83 c4 0c	 add	 esp, 12			; 0000000cH
  00074	84 c0		 test	 al, al
  00076	74 a5		 je	 SHORT $LN8@wndMgrAtta

; 1598 : 		return Py_BuildException();
; 1599 : 
; 1600 : 	UI::CWindowManager::Instance().AttachIcon(iType, iIndex, iSlotNumber, iWidth, iHeight);

  00078	ff 75 fc	 push	 DWORD PTR _iHeight$[ebp]
  0007b	8b 0d 00 00 00
	00		 mov	 ecx, DWORD PTR ?ms_singleton@?$CSingleton@VCWindowManager@UI@@@@0PAVCWindowManager@UI@@A ; CSingleton<UI::CWindowManager>::ms_singleton
  00081	ff 75 f8	 push	 DWORD PTR _iWidth$[ebp]
  00084	ff 75 f4	 push	 DWORD PTR _iSlotNumber$[ebp]
  00087	ff 75 f0	 push	 DWORD PTR _iIndex$[ebp]
  0008a	ff 75 ec	 push	 DWORD PTR _iType$[ebp]
  0008d	e8 00 00 00 00	 call	 ?AttachIcon@CWindowManager@UI@@QAEXKKKEE@Z ; UI::CWindowManager::AttachIcon

; 1601 : 	return Py_BuildNone();

  00092	e8 00 00 00 00	 call	 ?Py_BuildNone@@YAPAU_object@@XZ ; Py_BuildNone
  00097	5e		 pop	 esi

; 1602 : }

  00098	8b e5		 mov	 esp, ebp
  0009a	5d		 pop	 ebp
  0009b	c3		 ret	 0
?wndMgrAttachIcon@@YAPAU_object@@PAU1@0@Z ENDP		; wndMgrAttachIcon
_TEXT	ENDS
; Function compile flags: /Ogtp
; File C:\DS Project\DS Files\Source\ClientSource\Client\eterPythonLib\PythonWindowManagerModule.cpp
;	COMDAT ?wndBarSetColor@@YAPAU_object@@PAU1@0@Z
_TEXT	SEGMENT
_iRightColor$1 = -12					; size = 4
_iCenterColor$2 = -8					; size = 4
_pWindow$ = -8						; size = 4
_iColor$ = -4						; size = 4
_poSelf$ = 8						; size = 4
_poArgs$ = 12						; size = 4
?wndBarSetColor@@YAPAU_object@@PAU1@0@Z PROC		; wndBarSetColor, COMDAT

; 1554 : {

  00000	55		 push	 ebp
  00001	8b ec		 mov	 ebp, esp
  00003	83 ec 0c	 sub	 esp, 12			; 0000000cH

; 1555 : 	UI::CWindow * pWindow;
; 1556 : 	if (!PyTuple_GetWindow(poArgs, 0, &pWindow))

  00006	8d 45 f8	 lea	 eax, DWORD PTR _pWindow$[ebp]
  00009	56		 push	 esi
  0000a	8b 75 0c	 mov	 esi, DWORD PTR _poArgs$[ebp]
  0000d	50		 push	 eax
  0000e	6a 00		 push	 0
  00010	56		 push	 esi
  00011	e8 00 00 00 00	 call	 ?PyTuple_GetWindow@@YA_NPAU_object@@HPAPAVCWindow@UI@@@Z ; PyTuple_GetWindow
  00016	83 c4 0c	 add	 esp, 12			; 0000000cH
  00019	84 c0		 test	 al, al
  0001b	75 0f		 jne	 SHORT $LN2@wndBarSetC
$LN12@wndBarSetC:

; 1580 : }

  0001d	6a 00		 push	 0
  0001f	e8 00 00 00 00	 call	 ?Py_BuildException@@YAPAU_object@@PBDZZ ; Py_BuildException
  00024	83 c4 04	 add	 esp, 4
  00027	5e		 pop	 esi
  00028	8b e5		 mov	 esp, ebp
  0002a	5d		 pop	 ebp
  0002b	c3		 ret	 0
$LN2@wndBarSetC:

; 1557 : 		return Py_BuildException();
; 1558 : 	int iColor;
; 1559 : 	if (!PyTuple_GetInteger(poArgs, 1, &iColor))

  0002c	8d 45 fc	 lea	 eax, DWORD PTR _iColor$[ebp]
  0002f	50		 push	 eax
  00030	6a 01		 push	 1
  00032	56		 push	 esi
  00033	e8 00 00 00 00	 call	 ?PyTuple_GetInteger@@YA_NPAU_object@@HPAH@Z ; PyTuple_GetInteger
  00038	83 c4 0c	 add	 esp, 12			; 0000000cH
  0003b	84 c0		 test	 al, al
  0003d	74 de		 je	 SHORT $LN12@wndBarSetC

; 1560 : 		return Py_BuildException();
; 1561 : 
; 1562 : 	if (pWindow->IsType(UI::CBar3D::Type()))

  0003f	53		 push	 ebx
  00040	57		 push	 edi
  00041	e8 00 00 00 00	 call	 ?Type@CBar3D@UI@@SAKXZ	; UI::CBar3D::Type
  00046	8b 7d f8	 mov	 edi, DWORD PTR _pWindow$[ebp]
  00049	8b cf		 mov	 ecx, edi
  0004b	50		 push	 eax
  0004c	e8 00 00 00 00	 call	 ?IsType@CWindow@UI@@QAEHK@Z ; UI::CWindow::IsType
  00051	85 c0		 test	 eax, eax
  00053	74 54		 je	 SHORT $LN4@wndBarSetC

; 1563 : 	{
; 1564 : 		int iLeftColor = iColor;

  00055	8b 5d fc	 mov	 ebx, DWORD PTR _iColor$[ebp]

; 1565 : 
; 1566 : 		int iRightColor;
; 1567 : 		if (!PyTuple_GetInteger(poArgs, 2, &iRightColor))

  00058	8d 45 f4	 lea	 eax, DWORD PTR _iRightColor$1[ebp]
  0005b	50		 push	 eax
  0005c	6a 02		 push	 2
  0005e	56		 push	 esi
  0005f	e8 00 00 00 00	 call	 ?PyTuple_GetInteger@@YA_NPAU_object@@HPAH@Z ; PyTuple_GetInteger
  00064	83 c4 0c	 add	 esp, 12			; 0000000cH
  00067	84 c0		 test	 al, al
  00069	74 13		 je	 SHORT $LN11@wndBarSetC

; 1568 : 			return Py_BuildException();
; 1569 : 		int iCenterColor;
; 1570 : 		if (!PyTuple_GetInteger(poArgs, 3, &iCenterColor))

  0006b	8d 45 f8	 lea	 eax, DWORD PTR _iCenterColor$2[ebp]
  0006e	50		 push	 eax
  0006f	6a 03		 push	 3
  00071	56		 push	 esi
  00072	e8 00 00 00 00	 call	 ?PyTuple_GetInteger@@YA_NPAU_object@@HPAH@Z ; PyTuple_GetInteger
  00077	83 c4 0c	 add	 esp, 12			; 0000000cH
  0007a	84 c0		 test	 al, al
  0007c	75 11		 jne	 SHORT $LN7@wndBarSetC
$LN11@wndBarSetC:

; 1571 : 			return Py_BuildException();

  0007e	6a 00		 push	 0
  00080	e8 00 00 00 00	 call	 ?Py_BuildException@@YAPAU_object@@PBDZZ ; Py_BuildException
  00085	83 c4 04	 add	 esp, 4
  00088	5f		 pop	 edi
  00089	5b		 pop	 ebx
  0008a	5e		 pop	 esi

; 1580 : }

  0008b	8b e5		 mov	 esp, ebp
  0008d	5d		 pop	 ebp
  0008e	c3		 ret	 0
$LN7@wndBarSetC:

; 1572 : 
; 1573 : 		((UI::CBar3D *)pWindow)->SetColor(iLeftColor, iRightColor, iCenterColor);

  0008f	ff 75 f8	 push	 DWORD PTR _iCenterColor$2[ebp]
  00092	8b cf		 mov	 ecx, edi
  00094	ff 75 f4	 push	 DWORD PTR _iRightColor$1[ebp]
  00097	53		 push	 ebx
  00098	e8 00 00 00 00	 call	 ?SetColor@CBar3D@UI@@QAEXKKK@Z ; UI::CBar3D::SetColor

; 1578 : 	}
; 1579 : 	return Py_BuildNone();

  0009d	e8 00 00 00 00	 call	 ?Py_BuildNone@@YAPAU_object@@XZ ; Py_BuildNone
  000a2	5f		 pop	 edi
  000a3	5b		 pop	 ebx
  000a4	5e		 pop	 esi

; 1580 : }

  000a5	8b e5		 mov	 esp, ebp
  000a7	5d		 pop	 ebp
  000a8	c3		 ret	 0
$LN4@wndBarSetC:

; 1574 : 	}
; 1575 : 	else
; 1576 : 	{
; 1577 : 		((UI::CWindow *)pWindow)->SetColor(iColor);

  000a9	8b 07		 mov	 eax, DWORD PTR [edi]
  000ab	8b cf		 mov	 ecx, edi
  000ad	ff 75 fc	 push	 DWORD PTR _iColor$[ebp]
  000b0	ff 90 90 00 00
	00		 call	 DWORD PTR [eax+144]

; 1578 : 	}
; 1579 : 	return Py_BuildNone();

  000b6	e8 00 00 00 00	 call	 ?Py_BuildNone@@YAPAU_object@@XZ ; Py_BuildNone
  000bb	5f		 pop	 edi
  000bc	5b		 pop	 ebx
  000bd	5e		 pop	 esi

; 1580 : }

  000be	8b e5		 mov	 esp, ebp
  000c0	5d		 pop	 ebp
  000c1	c3		 ret	 0
?wndBarSetColor@@YAPAU_object@@PAU1@0@Z ENDP		; wndBarSetColor
_TEXT	ENDS
; Function compile flags: /Ogtp
; File C:\DS Project\DS Files\Source\ClientSource\Client\eterPythonLib\PythonWindowManagerModule.cpp
;	COMDAT ?wndMgrUnlockSlot@@YAPAU_object@@PAU1@0@Z
_TEXT	SEGMENT
_iSlotIndex$ = -8					; size = 4
_pWin$ = -4						; size = 4
_poSelf$ = 8						; size = 4
_poArgs$ = 12						; size = 4
?wndMgrUnlockSlot@@YAPAU_object@@PAU1@0@Z PROC		; wndMgrUnlockSlot, COMDAT

; 1537 : {

  00000	55		 push	 ebp
  00001	8b ec		 mov	 ebp, esp
  00003	83 ec 08	 sub	 esp, 8

; 1538 : 	UI::CWindow * pWin;
; 1539 : 	if (!PyTuple_GetWindow(poArgs, 0, &pWin))

  00006	8d 45 fc	 lea	 eax, DWORD PTR _pWin$[ebp]
  00009	56		 push	 esi
  0000a	8b 75 0c	 mov	 esi, DWORD PTR _poArgs$[ebp]
  0000d	50		 push	 eax
  0000e	6a 00		 push	 0
  00010	56		 push	 esi
  00011	e8 00 00 00 00	 call	 ?PyTuple_GetWindow@@YA_NPAU_object@@HPAPAVCWindow@UI@@@Z ; PyTuple_GetWindow
  00016	83 c4 0c	 add	 esp, 12			; 0000000cH
  00019	84 c0		 test	 al, al
  0001b	75 0f		 jne	 SHORT $LN2@wndMgrUnlo
$LN6@wndMgrUnlo:

; 1551 : }

  0001d	6a 00		 push	 0
  0001f	e8 00 00 00 00	 call	 ?Py_BuildException@@YAPAU_object@@PBDZZ ; Py_BuildException
  00024	83 c4 04	 add	 esp, 4
  00027	5e		 pop	 esi
  00028	8b e5		 mov	 esp, ebp
  0002a	5d		 pop	 ebp
  0002b	c3		 ret	 0
$LN2@wndMgrUnlo:

; 1540 : 		return Py_BuildException();
; 1541 : 	int iSlotIndex;
; 1542 : 	if (!PyTuple_GetInteger(poArgs, 1, &iSlotIndex))

  0002c	8d 45 f8	 lea	 eax, DWORD PTR _iSlotIndex$[ebp]
  0002f	50		 push	 eax
  00030	6a 01		 push	 1
  00032	56		 push	 esi
  00033	e8 00 00 00 00	 call	 ?PyTuple_GetInteger@@YA_NPAU_object@@HPAH@Z ; PyTuple_GetInteger
  00038	83 c4 0c	 add	 esp, 12			; 0000000cH
  0003b	84 c0		 test	 al, al
  0003d	74 de		 je	 SHORT $LN6@wndMgrUnlo

; 1543 : 		return Py_BuildException();
; 1544 : 
; 1545 : 	if (!pWin->IsType(UI::CSlotWindow::Type()))

  0003f	e8 00 00 00 00	 call	 ?Type@CSlotWindow@UI@@SAKXZ ; UI::CSlotWindow::Type
  00044	8b 75 fc	 mov	 esi, DWORD PTR _pWin$[ebp]
  00047	8b ce		 mov	 ecx, esi
  00049	50		 push	 eax
  0004a	e8 00 00 00 00	 call	 ?IsType@CWindow@UI@@QAEHK@Z ; UI::CWindow::IsType
  0004f	85 c0		 test	 eax, eax
  00051	74 ca		 je	 SHORT $LN6@wndMgrUnlo

; 1546 : 		return Py_BuildException();
; 1547 : 
; 1548 : 	UI::CSlotWindow * pSlotWin = (UI::CSlotWindow *)pWin;
; 1549 : 	pSlotWin->UnlockSlot(iSlotIndex);

  00053	ff 75 f8	 push	 DWORD PTR _iSlotIndex$[ebp]
  00056	8b ce		 mov	 ecx, esi
  00058	e8 00 00 00 00	 call	 ?UnlockSlot@CSlotWindow@UI@@QAEXK@Z ; UI::CSlotWindow::UnlockSlot

; 1550 : 	return Py_BuildNone();

  0005d	e8 00 00 00 00	 call	 ?Py_BuildNone@@YAPAU_object@@XZ ; Py_BuildNone
  00062	5e		 pop	 esi

; 1551 : }

  00063	8b e5		 mov	 esp, ebp
  00065	5d		 pop	 ebp
  00066	c3		 ret	 0
?wndMgrUnlockSlot@@YAPAU_object@@PAU1@0@Z ENDP		; wndMgrUnlockSlot
_TEXT	ENDS
; Function compile flags: /Ogtp
; File C:\DS Project\DS Files\Source\ClientSource\Client\eterPythonLib\PythonWindowManagerModule.cpp
;	COMDAT ?wndMgrLockSlot@@YAPAU_object@@PAU1@0@Z
_TEXT	SEGMENT
_iSlotIndex$ = -8					; size = 4
_pWin$ = -4						; size = 4
_poSelf$ = 8						; size = 4
_poArgs$ = 12						; size = 4
?wndMgrLockSlot@@YAPAU_object@@PAU1@0@Z PROC		; wndMgrLockSlot, COMDAT

; 1520 : {

  00000	55		 push	 ebp
  00001	8b ec		 mov	 ebp, esp
  00003	83 ec 08	 sub	 esp, 8

; 1521 : 	UI::CWindow * pWin;
; 1522 : 	if (!PyTuple_GetWindow(poArgs, 0, &pWin))

  00006	8d 45 fc	 lea	 eax, DWORD PTR _pWin$[ebp]
  00009	56		 push	 esi
  0000a	8b 75 0c	 mov	 esi, DWORD PTR _poArgs$[ebp]
  0000d	50		 push	 eax
  0000e	6a 00		 push	 0
  00010	56		 push	 esi
  00011	e8 00 00 00 00	 call	 ?PyTuple_GetWindow@@YA_NPAU_object@@HPAPAVCWindow@UI@@@Z ; PyTuple_GetWindow
  00016	83 c4 0c	 add	 esp, 12			; 0000000cH
  00019	84 c0		 test	 al, al
  0001b	75 0f		 jne	 SHORT $LN2@wndMgrLock
$LN6@wndMgrLock:

; 1534 : }

  0001d	6a 00		 push	 0
  0001f	e8 00 00 00 00	 call	 ?Py_BuildException@@YAPAU_object@@PBDZZ ; Py_BuildException
  00024	83 c4 04	 add	 esp, 4
  00027	5e		 pop	 esi
  00028	8b e5		 mov	 esp, ebp
  0002a	5d		 pop	 ebp
  0002b	c3		 ret	 0
$LN2@wndMgrLock:

; 1523 : 		return Py_BuildException();
; 1524 : 	int iSlotIndex;
; 1525 : 	if (!PyTuple_GetInteger(poArgs, 1, &iSlotIndex))

  0002c	8d 45 f8	 lea	 eax, DWORD PTR _iSlotIndex$[ebp]
  0002f	50		 push	 eax
  00030	6a 01		 push	 1
  00032	56		 push	 esi
  00033	e8 00 00 00 00	 call	 ?PyTuple_GetInteger@@YA_NPAU_object@@HPAH@Z ; PyTuple_GetInteger
  00038	83 c4 0c	 add	 esp, 12			; 0000000cH
  0003b	84 c0		 test	 al, al
  0003d	74 de		 je	 SHORT $LN6@wndMgrLock

; 1526 : 		return Py_BuildException();
; 1527 : 
; 1528 : 	if (!pWin->IsType(UI::CSlotWindow::Type()))

  0003f	e8 00 00 00 00	 call	 ?Type@CSlotWindow@UI@@SAKXZ ; UI::CSlotWindow::Type
  00044	8b 75 fc	 mov	 esi, DWORD PTR _pWin$[ebp]
  00047	8b ce		 mov	 ecx, esi
  00049	50		 push	 eax
  0004a	e8 00 00 00 00	 call	 ?IsType@CWindow@UI@@QAEHK@Z ; UI::CWindow::IsType
  0004f	85 c0		 test	 eax, eax
  00051	74 ca		 je	 SHORT $LN6@wndMgrLock

; 1529 : 		return Py_BuildException();
; 1530 : 
; 1531 : 	UI::CSlotWindow * pSlotWin = (UI::CSlotWindow *)pWin;
; 1532 : 	pSlotWin->LockSlot(iSlotIndex);

  00053	ff 75 f8	 push	 DWORD PTR _iSlotIndex$[ebp]
  00056	8b ce		 mov	 ecx, esi
  00058	e8 00 00 00 00	 call	 ?LockSlot@CSlotWindow@UI@@QAEXK@Z ; UI::CSlotWindow::LockSlot

; 1533 : 	return Py_BuildNone();

  0005d	e8 00 00 00 00	 call	 ?Py_BuildNone@@YAPAU_object@@XZ ; Py_BuildNone
  00062	5e		 pop	 esi

; 1534 : }

  00063	8b e5		 mov	 esp, ebp
  00065	5d		 pop	 ebp
  00066	c3		 ret	 0
?wndMgrLockSlot@@YAPAU_object@@PAU1@0@Z ENDP		; wndMgrLockSlot
_TEXT	ENDS
; Function compile flags: /Ogtp
; File C:\DS Project\DS Files\Source\ClientSource\Client\eterPythonLib\PythonWindowManagerModule.cpp
;	COMDAT ?wndMgrGetSlotCount@@YAPAU_object@@PAU1@0@Z
_TEXT	SEGMENT
_pWin$ = -4						; size = 4
_poSelf$ = 8						; size = 4
_poArgs$ = 12						; size = 4
?wndMgrGetSlotCount@@YAPAU_object@@PAU1@0@Z PROC	; wndMgrGetSlotCount, COMDAT

; 1507 : {

  00000	55		 push	 ebp
  00001	8b ec		 mov	 ebp, esp
  00003	51		 push	 ecx

; 1508 : 	UI::CWindow * pWin;
; 1509 : 	if (!PyTuple_GetWindow(poArgs, 0, &pWin))

  00004	8d 45 fc	 lea	 eax, DWORD PTR _pWin$[ebp]
  00007	50		 push	 eax
  00008	6a 00		 push	 0
  0000a	ff 75 0c	 push	 DWORD PTR _poArgs$[ebp]
  0000d	e8 00 00 00 00	 call	 ?PyTuple_GetWindow@@YA_NPAU_object@@HPAPAVCWindow@UI@@@Z ; PyTuple_GetWindow
  00012	83 c4 0c	 add	 esp, 12			; 0000000cH
  00015	84 c0		 test	 al, al
  00017	75 0e		 jne	 SHORT $LN2@wndMgrGetS
$LN5@wndMgrGetS:

; 1517 : }

  00019	6a 00		 push	 0
  0001b	e8 00 00 00 00	 call	 ?Py_BuildException@@YAPAU_object@@PBDZZ ; Py_BuildException
  00020	83 c4 04	 add	 esp, 4
  00023	8b e5		 mov	 esp, ebp
  00025	5d		 pop	 ebp
  00026	c3		 ret	 0
$LN2@wndMgrGetS:

; 1510 : 		return Py_BuildException();
; 1511 : 
; 1512 : 	if (!pWin->IsType(UI::CSlotWindow::Type()))

  00027	e8 00 00 00 00	 call	 ?Type@CSlotWindow@UI@@SAKXZ ; UI::CSlotWindow::Type
  0002c	8b 4d fc	 mov	 ecx, DWORD PTR _pWin$[ebp]
  0002f	50		 push	 eax
  00030	e8 00 00 00 00	 call	 ?IsType@CWindow@UI@@QAEHK@Z ; UI::CWindow::IsType
  00035	85 c0		 test	 eax, eax
  00037	74 e0		 je	 SHORT $LN5@wndMgrGetS

; 1513 : 		return Py_BuildException();
; 1514 : 
; 1515 : 	UI::CSlotWindow * pSlotWin = (UI::CSlotWindow *)pWin;
; 1516 : 	return Py_BuildValue("i", pSlotWin->GetSlotCount());

  00039	8b 4d fc	 mov	 ecx, DWORD PTR _pWin$[ebp]
  0003c	e8 00 00 00 00	 call	 ?GetSlotCount@CSlotWindow@UI@@QAEKXZ ; UI::CSlotWindow::GetSlotCount
  00041	50		 push	 eax
  00042	68 00 00 00 00	 push	 OFFSET ??_C@_01KBJDNOO@i@
  00047	ff 15 00 00 00
	00		 call	 DWORD PTR __imp__Py_BuildValue
  0004d	83 c4 08	 add	 esp, 8

; 1517 : }

  00050	8b e5		 mov	 esp, ebp
  00052	5d		 pop	 ebp
  00053	c3		 ret	 0
?wndMgrGetSlotCount@@YAPAU_object@@PAU1@0@Z ENDP	; wndMgrGetSlotCount
_TEXT	ENDS
; Function compile flags: /Ogtp
; File C:\DS Project\DS Files\Source\ClientSource\Client\eterPythonLib\PythonWindowManagerModule.cpp
;	COMDAT ?wndMgrIsSelectedSlot@@YAPAU_object@@PAU1@0@Z
_TEXT	SEGMENT
_iSlotNumber$ = -8					; size = 4
_pWin$ = -4						; size = 4
_poSelf$ = 8						; size = 4
_poArgs$ = 12						; size = 4
?wndMgrIsSelectedSlot@@YAPAU_object@@PAU1@0@Z PROC	; wndMgrIsSelectedSlot, COMDAT

; 1491 : {

  00000	55		 push	 ebp
  00001	8b ec		 mov	 ebp, esp
  00003	83 ec 08	 sub	 esp, 8

; 1492 : 	UI::CWindow * pWin;
; 1493 : 	if (!PyTuple_GetWindow(poArgs, 0, &pWin))

  00006	8d 45 fc	 lea	 eax, DWORD PTR _pWin$[ebp]
  00009	56		 push	 esi
  0000a	8b 75 0c	 mov	 esi, DWORD PTR _poArgs$[ebp]
  0000d	50		 push	 eax
  0000e	6a 00		 push	 0
  00010	56		 push	 esi
  00011	e8 00 00 00 00	 call	 ?PyTuple_GetWindow@@YA_NPAU_object@@HPAPAVCWindow@UI@@@Z ; PyTuple_GetWindow
  00016	83 c4 0c	 add	 esp, 12			; 0000000cH
  00019	84 c0		 test	 al, al
  0001b	75 0f		 jne	 SHORT $LN2@wndMgrIsSe
$LN6@wndMgrIsSe:

; 1504 : }

  0001d	6a 00		 push	 0
  0001f	e8 00 00 00 00	 call	 ?Py_BuildException@@YAPAU_object@@PBDZZ ; Py_BuildException
  00024	83 c4 04	 add	 esp, 4
  00027	5e		 pop	 esi
  00028	8b e5		 mov	 esp, ebp
  0002a	5d		 pop	 ebp
  0002b	c3		 ret	 0
$LN2@wndMgrIsSe:

; 1494 : 		return Py_BuildException();
; 1495 : 	int iSlotNumber;
; 1496 : 	if (!PyTuple_GetInteger(poArgs, 1, &iSlotNumber))

  0002c	8d 45 f8	 lea	 eax, DWORD PTR _iSlotNumber$[ebp]
  0002f	50		 push	 eax
  00030	6a 01		 push	 1
  00032	56		 push	 esi
  00033	e8 00 00 00 00	 call	 ?PyTuple_GetInteger@@YA_NPAU_object@@HPAH@Z ; PyTuple_GetInteger
  00038	83 c4 0c	 add	 esp, 12			; 0000000cH
  0003b	84 c0		 test	 al, al
  0003d	74 de		 je	 SHORT $LN6@wndMgrIsSe

; 1497 : 		return Py_BuildException();
; 1498 : 
; 1499 : 	if (!pWin->IsType(UI::CSlotWindow::Type()))

  0003f	e8 00 00 00 00	 call	 ?Type@CSlotWindow@UI@@SAKXZ ; UI::CSlotWindow::Type
  00044	8b 75 fc	 mov	 esi, DWORD PTR _pWin$[ebp]
  00047	8b ce		 mov	 ecx, esi
  00049	50		 push	 eax
  0004a	e8 00 00 00 00	 call	 ?IsType@CWindow@UI@@QAEHK@Z ; UI::CWindow::IsType
  0004f	85 c0		 test	 eax, eax
  00051	74 ca		 je	 SHORT $LN6@wndMgrIsSe

; 1500 : 		return Py_BuildException();
; 1501 : 
; 1502 : 	UI::CSlotWindow * pSlotWin = (UI::CSlotWindow *)pWin;
; 1503 : 	return Py_BuildValue("i", pSlotWin->isSelectedSlot(iSlotNumber));

  00053	ff 75 f8	 push	 DWORD PTR _iSlotNumber$[ebp]
  00056	8b ce		 mov	 ecx, esi
  00058	e8 00 00 00 00	 call	 ?isSelectedSlot@CSlotWindow@UI@@QAEHK@Z ; UI::CSlotWindow::isSelectedSlot
  0005d	50		 push	 eax
  0005e	68 00 00 00 00	 push	 OFFSET ??_C@_01KBJDNOO@i@
  00063	ff 15 00 00 00
	00		 call	 DWORD PTR __imp__Py_BuildValue
  00069	83 c4 08	 add	 esp, 8
  0006c	5e		 pop	 esi

; 1504 : }

  0006d	8b e5		 mov	 esp, ebp
  0006f	5d		 pop	 ebp
  00070	c3		 ret	 0
?wndMgrIsSelectedSlot@@YAPAU_object@@PAU1@0@Z ENDP	; wndMgrIsSelectedSlot
_TEXT	ENDS
; Function compile flags: /Ogtp
; File C:\DS Project\DS Files\Source\ClientSource\Client\eterPythonLib\PythonWindowManagerModule.cpp
;	COMDAT ?wndMgrGetSelectedSlotNumber@@YAPAU_object@@PAU1@0@Z
_TEXT	SEGMENT
_iSlotNumber$ = -8					; size = 4
_pWin$ = -4						; size = 4
_poSelf$ = 8						; size = 4
_poArgs$ = 12						; size = 4
?wndMgrGetSelectedSlotNumber@@YAPAU_object@@PAU1@0@Z PROC ; wndMgrGetSelectedSlotNumber, COMDAT

; 1475 : {

  00000	55		 push	 ebp
  00001	8b ec		 mov	 ebp, esp
  00003	83 ec 08	 sub	 esp, 8

; 1476 : 	UI::CWindow * pWin;
; 1477 : 	if (!PyTuple_GetWindow(poArgs, 0, &pWin))

  00006	8d 45 fc	 lea	 eax, DWORD PTR _pWin$[ebp]
  00009	56		 push	 esi
  0000a	8b 75 0c	 mov	 esi, DWORD PTR _poArgs$[ebp]
  0000d	50		 push	 eax
  0000e	6a 00		 push	 0
  00010	56		 push	 esi
  00011	e8 00 00 00 00	 call	 ?PyTuple_GetWindow@@YA_NPAU_object@@HPAPAVCWindow@UI@@@Z ; PyTuple_GetWindow
  00016	83 c4 0c	 add	 esp, 12			; 0000000cH
  00019	84 c0		 test	 al, al
  0001b	75 0f		 jne	 SHORT $LN2@wndMgrGetS
$LN6@wndMgrGetS:

; 1488 : }

  0001d	6a 00		 push	 0
  0001f	e8 00 00 00 00	 call	 ?Py_BuildException@@YAPAU_object@@PBDZZ ; Py_BuildException
  00024	83 c4 04	 add	 esp, 4
  00027	5e		 pop	 esi
  00028	8b e5		 mov	 esp, ebp
  0002a	5d		 pop	 ebp
  0002b	c3		 ret	 0
$LN2@wndMgrGetS:

; 1478 : 		return Py_BuildException();
; 1479 : 	int iSlotNumber;
; 1480 : 	if (!PyTuple_GetInteger(poArgs, 1, &iSlotNumber))

  0002c	8d 45 f8	 lea	 eax, DWORD PTR _iSlotNumber$[ebp]
  0002f	50		 push	 eax
  00030	6a 01		 push	 1
  00032	56		 push	 esi
  00033	e8 00 00 00 00	 call	 ?PyTuple_GetInteger@@YA_NPAU_object@@HPAH@Z ; PyTuple_GetInteger
  00038	83 c4 0c	 add	 esp, 12			; 0000000cH
  0003b	84 c0		 test	 al, al
  0003d	74 de		 je	 SHORT $LN6@wndMgrGetS

; 1481 : 		return Py_BuildException();
; 1482 : 
; 1483 : 	if (!pWin->IsType(UI::CSlotWindow::Type()))

  0003f	e8 00 00 00 00	 call	 ?Type@CSlotWindow@UI@@SAKXZ ; UI::CSlotWindow::Type
  00044	8b 75 fc	 mov	 esi, DWORD PTR _pWin$[ebp]
  00047	8b ce		 mov	 ecx, esi
  00049	50		 push	 eax
  0004a	e8 00 00 00 00	 call	 ?IsType@CWindow@UI@@QAEHK@Z ; UI::CWindow::IsType
  0004f	85 c0		 test	 eax, eax
  00051	74 ca		 je	 SHORT $LN6@wndMgrGetS

; 1484 : 		return Py_BuildException();
; 1485 : 
; 1486 : 	UI::CSlotWindow * pSlotWin = (UI::CSlotWindow *)pWin;
; 1487 : 	return Py_BuildValue("i", pSlotWin->GetSelectedSlotNumber(iSlotNumber));

  00053	ff 75 f8	 push	 DWORD PTR _iSlotNumber$[ebp]
  00056	8b ce		 mov	 ecx, esi
  00058	e8 00 00 00 00	 call	 ?GetSelectedSlotNumber@CSlotWindow@UI@@QAEKK@Z ; UI::CSlotWindow::GetSelectedSlotNumber
  0005d	50		 push	 eax
  0005e	68 00 00 00 00	 push	 OFFSET ??_C@_01KBJDNOO@i@
  00063	ff 15 00 00 00
	00		 call	 DWORD PTR __imp__Py_BuildValue
  00069	83 c4 08	 add	 esp, 8
  0006c	5e		 pop	 esi

; 1488 : }

  0006d	8b e5		 mov	 esp, ebp
  0006f	5d		 pop	 ebp
  00070	c3		 ret	 0
?wndMgrGetSelectedSlotNumber@@YAPAU_object@@PAU1@0@Z ENDP ; wndMgrGetSelectedSlotNumber
_TEXT	ENDS
; Function compile flags: /Ogtp
; File C:\DS Project\DS Files\Source\ClientSource\Client\eterPythonLib\PythonWindowManagerModule.cpp
;	COMDAT ?wndMgrGetSelectedSlotCount@@YAPAU_object@@PAU1@0@Z
_TEXT	SEGMENT
_pWin$ = -4						; size = 4
_poSelf$ = 8						; size = 4
_poArgs$ = 12						; size = 4
?wndMgrGetSelectedSlotCount@@YAPAU_object@@PAU1@0@Z PROC ; wndMgrGetSelectedSlotCount, COMDAT

; 1462 : {

  00000	55		 push	 ebp
  00001	8b ec		 mov	 ebp, esp
  00003	51		 push	 ecx

; 1463 : 	UI::CWindow * pWin;
; 1464 : 	if (!PyTuple_GetWindow(poArgs, 0, &pWin))

  00004	8d 45 fc	 lea	 eax, DWORD PTR _pWin$[ebp]
  00007	50		 push	 eax
  00008	6a 00		 push	 0
  0000a	ff 75 0c	 push	 DWORD PTR _poArgs$[ebp]
  0000d	e8 00 00 00 00	 call	 ?PyTuple_GetWindow@@YA_NPAU_object@@HPAPAVCWindow@UI@@@Z ; PyTuple_GetWindow
  00012	83 c4 0c	 add	 esp, 12			; 0000000cH
  00015	84 c0		 test	 al, al
  00017	75 0e		 jne	 SHORT $LN2@wndMgrGetS
$LN5@wndMgrGetS:

; 1472 : }

  00019	6a 00		 push	 0
  0001b	e8 00 00 00 00	 call	 ?Py_BuildException@@YAPAU_object@@PBDZZ ; Py_BuildException
  00020	83 c4 04	 add	 esp, 4
  00023	8b e5		 mov	 esp, ebp
  00025	5d		 pop	 ebp
  00026	c3		 ret	 0
$LN2@wndMgrGetS:

; 1465 : 		return Py_BuildException();
; 1466 : 
; 1467 : 	if (!pWin->IsType(UI::CSlotWindow::Type()))

  00027	e8 00 00 00 00	 call	 ?Type@CSlotWindow@UI@@SAKXZ ; UI::CSlotWindow::Type
  0002c	8b 4d fc	 mov	 ecx, DWORD PTR _pWin$[ebp]
  0002f	50		 push	 eax
  00030	e8 00 00 00 00	 call	 ?IsType@CWindow@UI@@QAEHK@Z ; UI::CWindow::IsType
  00035	85 c0		 test	 eax, eax
  00037	74 e0		 je	 SHORT $LN5@wndMgrGetS

; 1468 : 		return Py_BuildException();
; 1469 : 
; 1470 : 	UI::CSlotWindow * pSlotWin = (UI::CSlotWindow *)pWin;
; 1471 : 	return Py_BuildValue("i", pSlotWin->GetSelectedSlotCount());

  00039	8b 4d fc	 mov	 ecx, DWORD PTR _pWin$[ebp]
  0003c	e8 00 00 00 00	 call	 ?GetSelectedSlotCount@CSlotWindow@UI@@QAEKXZ ; UI::CSlotWindow::GetSelectedSlotCount
  00041	50		 push	 eax
  00042	68 00 00 00 00	 push	 OFFSET ??_C@_01KBJDNOO@i@
  00047	ff 15 00 00 00
	00		 call	 DWORD PTR __imp__Py_BuildValue
  0004d	83 c4 08	 add	 esp, 8

; 1472 : }

  00050	8b e5		 mov	 esp, ebp
  00052	5d		 pop	 ebp
  00053	c3		 ret	 0
?wndMgrGetSelectedSlotCount@@YAPAU_object@@PAU1@0@Z ENDP ; wndMgrGetSelectedSlotCount
_TEXT	ENDS
; Function compile flags: /Ogtp
; File C:\DS Project\DS Files\Source\ClientSource\Client\eterPythonLib\PythonWindowManagerModule.cpp
;	COMDAT ?wndMgrClearSelected@@YAPAU_object@@PAU1@0@Z
_TEXT	SEGMENT
_pWin$ = -4						; size = 4
_poSelf$ = 8						; size = 4
_poArgs$ = 12						; size = 4
?wndMgrClearSelected@@YAPAU_object@@PAU1@0@Z PROC	; wndMgrClearSelected, COMDAT

; 1447 : {

  00000	55		 push	 ebp
  00001	8b ec		 mov	 ebp, esp
  00003	51		 push	 ecx

; 1448 : 	UI::CWindow * pWin;
; 1449 : 	if (!PyTuple_GetWindow(poArgs, 0, &pWin))

  00004	8d 45 fc	 lea	 eax, DWORD PTR _pWin$[ebp]
  00007	50		 push	 eax
  00008	6a 00		 push	 0
  0000a	ff 75 0c	 push	 DWORD PTR _poArgs$[ebp]
  0000d	e8 00 00 00 00	 call	 ?PyTuple_GetWindow@@YA_NPAU_object@@HPAPAVCWindow@UI@@@Z ; PyTuple_GetWindow
  00012	83 c4 0c	 add	 esp, 12			; 0000000cH
  00015	84 c0		 test	 al, al
  00017	75 0e		 jne	 SHORT $LN2@wndMgrClea
$LN5@wndMgrClea:

; 1459 : }

  00019	6a 00		 push	 0
  0001b	e8 00 00 00 00	 call	 ?Py_BuildException@@YAPAU_object@@PBDZZ ; Py_BuildException
  00020	83 c4 04	 add	 esp, 4
  00023	8b e5		 mov	 esp, ebp
  00025	5d		 pop	 ebp
  00026	c3		 ret	 0
$LN2@wndMgrClea:

; 1450 : 		return Py_BuildException();
; 1451 : 
; 1452 : 	if (!pWin->IsType(UI::CSlotWindow::Type()))

  00027	e8 00 00 00 00	 call	 ?Type@CSlotWindow@UI@@SAKXZ ; UI::CSlotWindow::Type
  0002c	8b 4d fc	 mov	 ecx, DWORD PTR _pWin$[ebp]
  0002f	50		 push	 eax
  00030	e8 00 00 00 00	 call	 ?IsType@CWindow@UI@@QAEHK@Z ; UI::CWindow::IsType
  00035	85 c0		 test	 eax, eax
  00037	74 e0		 je	 SHORT $LN5@wndMgrClea

; 1453 : 		return Py_BuildException();
; 1454 : 
; 1455 : 	UI::CSlotWindow * pSlotWin = (UI::CSlotWindow *)pWin;
; 1456 : 	pSlotWin->ClearSelected();

  00039	8b 4d fc	 mov	 ecx, DWORD PTR _pWin$[ebp]
  0003c	e8 00 00 00 00	 call	 ?ClearSelected@CSlotWindow@UI@@QAEXXZ ; UI::CSlotWindow::ClearSelected

; 1457 : 
; 1458 : 	return Py_BuildNone();

  00041	e8 00 00 00 00	 call	 ?Py_BuildNone@@YAPAU_object@@XZ ; Py_BuildNone

; 1459 : }

  00046	8b e5		 mov	 esp, ebp
  00048	5d		 pop	 ebp
  00049	c3		 ret	 0
?wndMgrClearSelected@@YAPAU_object@@PAU1@0@Z ENDP	; wndMgrClearSelected
_TEXT	ENDS
; Function compile flags: /Ogtp
; File C:\DS Project\DS Files\Source\ClientSource\Client\eterPythonLib\PythonWindowManagerModule.cpp
;	COMDAT ?wndMgrSelectSlot@@YAPAU_object@@PAU1@0@Z
_TEXT	SEGMENT
_iIndex$ = -8						; size = 4
_pWin$ = -4						; size = 4
_poSelf$ = 8						; size = 4
_poArgs$ = 12						; size = 4
?wndMgrSelectSlot@@YAPAU_object@@PAU1@0@Z PROC		; wndMgrSelectSlot, COMDAT

; 1428 : {

  00000	55		 push	 ebp
  00001	8b ec		 mov	 ebp, esp
  00003	83 ec 08	 sub	 esp, 8

; 1429 : 	UI::CWindow * pWin;
; 1430 : 	if (!PyTuple_GetWindow(poArgs, 0, &pWin))

  00006	8d 45 fc	 lea	 eax, DWORD PTR _pWin$[ebp]
  00009	56		 push	 esi
  0000a	8b 75 0c	 mov	 esi, DWORD PTR _poArgs$[ebp]
  0000d	50		 push	 eax
  0000e	6a 00		 push	 0
  00010	56		 push	 esi
  00011	e8 00 00 00 00	 call	 ?PyTuple_GetWindow@@YA_NPAU_object@@HPAPAVCWindow@UI@@@Z ; PyTuple_GetWindow
  00016	83 c4 0c	 add	 esp, 12			; 0000000cH
  00019	84 c0		 test	 al, al
  0001b	75 0f		 jne	 SHORT $LN2@wndMgrSele
$LN6@wndMgrSele:

; 1444 : }

  0001d	6a 00		 push	 0
  0001f	e8 00 00 00 00	 call	 ?Py_BuildException@@YAPAU_object@@PBDZZ ; Py_BuildException
  00024	83 c4 04	 add	 esp, 4
  00027	5e		 pop	 esi
  00028	8b e5		 mov	 esp, ebp
  0002a	5d		 pop	 ebp
  0002b	c3		 ret	 0
$LN2@wndMgrSele:

; 1431 : 		return Py_BuildException();
; 1432 : 
; 1433 : 	int iIndex;
; 1434 : 	if (!PyTuple_GetInteger(poArgs, 1, &iIndex))

  0002c	8d 45 f8	 lea	 eax, DWORD PTR _iIndex$[ebp]
  0002f	50		 push	 eax
  00030	6a 01		 push	 1
  00032	56		 push	 esi
  00033	e8 00 00 00 00	 call	 ?PyTuple_GetInteger@@YA_NPAU_object@@HPAH@Z ; PyTuple_GetInteger
  00038	83 c4 0c	 add	 esp, 12			; 0000000cH
  0003b	84 c0		 test	 al, al
  0003d	74 de		 je	 SHORT $LN6@wndMgrSele

; 1435 : 		return Py_BuildException();
; 1436 : 
; 1437 : 	if (!pWin->IsType(UI::CSlotWindow::Type()))

  0003f	e8 00 00 00 00	 call	 ?Type@CSlotWindow@UI@@SAKXZ ; UI::CSlotWindow::Type
  00044	8b 75 fc	 mov	 esi, DWORD PTR _pWin$[ebp]
  00047	8b ce		 mov	 ecx, esi
  00049	50		 push	 eax
  0004a	e8 00 00 00 00	 call	 ?IsType@CWindow@UI@@QAEHK@Z ; UI::CWindow::IsType
  0004f	85 c0		 test	 eax, eax
  00051	74 ca		 je	 SHORT $LN6@wndMgrSele

; 1438 : 		return Py_BuildException();
; 1439 : 
; 1440 : 	UI::CSlotWindow * pSlotWin = (UI::CSlotWindow *)pWin;
; 1441 : 	pSlotWin->SelectSlot(iIndex);

  00053	ff 75 f8	 push	 DWORD PTR _iIndex$[ebp]
  00056	8b ce		 mov	 ecx, esi
  00058	e8 00 00 00 00	 call	 ?SelectSlot@CSlotWindow@UI@@QAEXK@Z ; UI::CSlotWindow::SelectSlot

; 1442 : 
; 1443 : 	return Py_BuildNone();

  0005d	e8 00 00 00 00	 call	 ?Py_BuildNone@@YAPAU_object@@XZ ; Py_BuildNone
  00062	5e		 pop	 esi

; 1444 : }

  00063	8b e5		 mov	 esp, ebp
  00065	5d		 pop	 ebp
  00066	c3		 ret	 0
?wndMgrSelectSlot@@YAPAU_object@@PAU1@0@Z ENDP		; wndMgrSelectSlot
_TEXT	ENDS
; Function compile flags: /Ogtp
; File C:\DS Project\DS Files\Source\ClientSource\Client\eterPythonLib\PythonWindowManagerModule.cpp
;	COMDAT ?wndMgrSetSlotStyle@@YAPAU_object@@PAU1@0@Z
_TEXT	SEGMENT
_iStyle$ = -8						; size = 4
_pWin$ = -4						; size = 4
_poSelf$ = 8						; size = 4
_poArgs$ = 12						; size = 4
?wndMgrSetSlotStyle@@YAPAU_object@@PAU1@0@Z PROC	; wndMgrSetSlotStyle, COMDAT

; 1409 : {

  00000	55		 push	 ebp
  00001	8b ec		 mov	 ebp, esp
  00003	83 ec 08	 sub	 esp, 8

; 1410 : 	UI::CWindow * pWin;
; 1411 : 	if (!PyTuple_GetWindow(poArgs, 0, &pWin))

  00006	8d 45 fc	 lea	 eax, DWORD PTR _pWin$[ebp]
  00009	56		 push	 esi
  0000a	8b 75 0c	 mov	 esi, DWORD PTR _poArgs$[ebp]
  0000d	50		 push	 eax
  0000e	6a 00		 push	 0
  00010	56		 push	 esi
  00011	e8 00 00 00 00	 call	 ?PyTuple_GetWindow@@YA_NPAU_object@@HPAPAVCWindow@UI@@@Z ; PyTuple_GetWindow
  00016	83 c4 0c	 add	 esp, 12			; 0000000cH
  00019	84 c0		 test	 al, al
  0001b	75 0f		 jne	 SHORT $LN2@wndMgrSetS
$LN6@wndMgrSetS:

; 1425 : }

  0001d	6a 00		 push	 0
  0001f	e8 00 00 00 00	 call	 ?Py_BuildException@@YAPAU_object@@PBDZZ ; Py_BuildException
  00024	83 c4 04	 add	 esp, 4
  00027	5e		 pop	 esi
  00028	8b e5		 mov	 esp, ebp
  0002a	5d		 pop	 ebp
  0002b	c3		 ret	 0
$LN2@wndMgrSetS:

; 1412 : 		return Py_BuildException();
; 1413 : 
; 1414 : 	int iStyle;
; 1415 : 	if (!PyTuple_GetInteger(poArgs, 1, &iStyle))

  0002c	8d 45 f8	 lea	 eax, DWORD PTR _iStyle$[ebp]
  0002f	50		 push	 eax
  00030	6a 01		 push	 1
  00032	56		 push	 esi
  00033	e8 00 00 00 00	 call	 ?PyTuple_GetInteger@@YA_NPAU_object@@HPAH@Z ; PyTuple_GetInteger
  00038	83 c4 0c	 add	 esp, 12			; 0000000cH
  0003b	84 c0		 test	 al, al
  0003d	74 de		 je	 SHORT $LN6@wndMgrSetS

; 1416 : 		return Py_BuildException();
; 1417 : 
; 1418 : 	if (!pWin->IsType(UI::CSlotWindow::Type()))

  0003f	e8 00 00 00 00	 call	 ?Type@CSlotWindow@UI@@SAKXZ ; UI::CSlotWindow::Type
  00044	8b 75 fc	 mov	 esi, DWORD PTR _pWin$[ebp]
  00047	8b ce		 mov	 ecx, esi
  00049	50		 push	 eax
  0004a	e8 00 00 00 00	 call	 ?IsType@CWindow@UI@@QAEHK@Z ; UI::CWindow::IsType
  0004f	85 c0		 test	 eax, eax
  00051	74 ca		 je	 SHORT $LN6@wndMgrSetS

; 1419 : 		return Py_BuildException();
; 1420 : 
; 1421 : 	UI::CSlotWindow * pSlotWin = (UI::CSlotWindow *)pWin;
; 1422 : 	pSlotWin->SetSlotStyle(iStyle);

  00053	ff 75 f8	 push	 DWORD PTR _iStyle$[ebp]
  00056	8b ce		 mov	 ecx, esi
  00058	e8 00 00 00 00	 call	 ?SetSlotStyle@CSlotWindow@UI@@QAEXK@Z ; UI::CSlotWindow::SetSlotStyle

; 1423 : 
; 1424 : 	return Py_BuildNone();

  0005d	e8 00 00 00 00	 call	 ?Py_BuildNone@@YAPAU_object@@XZ ; Py_BuildNone
  00062	5e		 pop	 esi

; 1425 : }

  00063	8b e5		 mov	 esp, ebp
  00065	5d		 pop	 ebp
  00066	c3		 ret	 0
?wndMgrSetSlotStyle@@YAPAU_object@@PAU1@0@Z ENDP	; wndMgrSetSlotStyle
_TEXT	ENDS
; Function compile flags: /Ogtp
; File C:\DS Project\DS Files\Source\ClientSource\Client\eterPythonLib\PythonWindowManagerModule.cpp
;	COMDAT ?wndMgrSetSlotType@@YAPAU_object@@PAU1@0@Z
_TEXT	SEGMENT
_iType$ = -8						; size = 4
_pWin$ = -4						; size = 4
_poSelf$ = 8						; size = 4
_poArgs$ = 12						; size = 4
?wndMgrSetSlotType@@YAPAU_object@@PAU1@0@Z PROC		; wndMgrSetSlotType, COMDAT

; 1390 : {

  00000	55		 push	 ebp
  00001	8b ec		 mov	 ebp, esp
  00003	83 ec 08	 sub	 esp, 8

; 1391 : 	UI::CWindow * pWin;
; 1392 : 	if (!PyTuple_GetWindow(poArgs, 0, &pWin))

  00006	8d 45 fc	 lea	 eax, DWORD PTR _pWin$[ebp]
  00009	56		 push	 esi
  0000a	8b 75 0c	 mov	 esi, DWORD PTR _poArgs$[ebp]
  0000d	50		 push	 eax
  0000e	6a 00		 push	 0
  00010	56		 push	 esi
  00011	e8 00 00 00 00	 call	 ?PyTuple_GetWindow@@YA_NPAU_object@@HPAPAVCWindow@UI@@@Z ; PyTuple_GetWindow
  00016	83 c4 0c	 add	 esp, 12			; 0000000cH
  00019	84 c0		 test	 al, al
  0001b	75 0f		 jne	 SHORT $LN2@wndMgrSetS
$LN6@wndMgrSetS:

; 1406 : }

  0001d	6a 00		 push	 0
  0001f	e8 00 00 00 00	 call	 ?Py_BuildException@@YAPAU_object@@PBDZZ ; Py_BuildException
  00024	83 c4 04	 add	 esp, 4
  00027	5e		 pop	 esi
  00028	8b e5		 mov	 esp, ebp
  0002a	5d		 pop	 ebp
  0002b	c3		 ret	 0
$LN2@wndMgrSetS:

; 1393 : 		return Py_BuildException();
; 1394 : 
; 1395 : 	int iType;
; 1396 : 	if (!PyTuple_GetInteger(poArgs, 1, &iType))

  0002c	8d 45 f8	 lea	 eax, DWORD PTR _iType$[ebp]
  0002f	50		 push	 eax
  00030	6a 01		 push	 1
  00032	56		 push	 esi
  00033	e8 00 00 00 00	 call	 ?PyTuple_GetInteger@@YA_NPAU_object@@HPAH@Z ; PyTuple_GetInteger
  00038	83 c4 0c	 add	 esp, 12			; 0000000cH
  0003b	84 c0		 test	 al, al
  0003d	74 de		 je	 SHORT $LN6@wndMgrSetS

; 1397 : 		return Py_BuildException();
; 1398 : 
; 1399 : 	if (!pWin->IsType(UI::CSlotWindow::Type()))

  0003f	e8 00 00 00 00	 call	 ?Type@CSlotWindow@UI@@SAKXZ ; UI::CSlotWindow::Type
  00044	8b 75 fc	 mov	 esi, DWORD PTR _pWin$[ebp]
  00047	8b ce		 mov	 ecx, esi
  00049	50		 push	 eax
  0004a	e8 00 00 00 00	 call	 ?IsType@CWindow@UI@@QAEHK@Z ; UI::CWindow::IsType
  0004f	85 c0		 test	 eax, eax
  00051	74 ca		 je	 SHORT $LN6@wndMgrSetS

; 1400 : 		return Py_BuildException();
; 1401 : 
; 1402 : 	UI::CSlotWindow * pSlotWin = (UI::CSlotWindow *)pWin;
; 1403 : 	pSlotWin->SetSlotType(iType);

  00053	ff 75 f8	 push	 DWORD PTR _iType$[ebp]
  00056	8b ce		 mov	 ecx, esi
  00058	e8 00 00 00 00	 call	 ?SetSlotType@CSlotWindow@UI@@QAEXK@Z ; UI::CSlotWindow::SetSlotType

; 1404 : 
; 1405 : 	return Py_BuildNone();

  0005d	e8 00 00 00 00	 call	 ?Py_BuildNone@@YAPAU_object@@XZ ; Py_BuildNone
  00062	5e		 pop	 esi

; 1406 : }

  00063	8b e5		 mov	 esp, ebp
  00065	5d		 pop	 ebp
  00066	c3		 ret	 0
?wndMgrSetSlotType@@YAPAU_object@@PAU1@0@Z ENDP		; wndMgrSetSlotType
_TEXT	ENDS
; Function compile flags: /Ogtp
; File C:\DS Project\DS Files\Source\ClientSource\Client\eterPythonLib\PythonWindowManagerModule.cpp
;	COMDAT ?wndMgrHideSlotBaseImage@@YAPAU_object@@PAU1@0@Z
_TEXT	SEGMENT
_iSlotIndex$ = -8					; size = 4
_pWin$ = -4						; size = 4
_poSelf$ = 8						; size = 4
_poArgs$ = 12						; size = 4
?wndMgrHideSlotBaseImage@@YAPAU_object@@PAU1@0@Z PROC	; wndMgrHideSlotBaseImage, COMDAT

; 1372 : {

  00000	55		 push	 ebp
  00001	8b ec		 mov	 ebp, esp
  00003	83 ec 08	 sub	 esp, 8

; 1373 : 	UI::CWindow * pWin;
; 1374 : 	if (!PyTuple_GetWindow(poArgs, 0, &pWin))

  00006	8d 45 fc	 lea	 eax, DWORD PTR _pWin$[ebp]
  00009	56		 push	 esi
  0000a	8b 75 0c	 mov	 esi, DWORD PTR _poArgs$[ebp]
  0000d	50		 push	 eax
  0000e	6a 00		 push	 0
  00010	56		 push	 esi
  00011	e8 00 00 00 00	 call	 ?PyTuple_GetWindow@@YA_NPAU_object@@HPAPAVCWindow@UI@@@Z ; PyTuple_GetWindow
  00016	83 c4 0c	 add	 esp, 12			; 0000000cH
  00019	84 c0		 test	 al, al
  0001b	75 0f		 jne	 SHORT $LN2@wndMgrHide
$LN6@wndMgrHide:

; 1387 : }

  0001d	6a 00		 push	 0
  0001f	e8 00 00 00 00	 call	 ?Py_BuildException@@YAPAU_object@@PBDZZ ; Py_BuildException
  00024	83 c4 04	 add	 esp, 4
  00027	5e		 pop	 esi
  00028	8b e5		 mov	 esp, ebp
  0002a	5d		 pop	 ebp
  0002b	c3		 ret	 0
$LN2@wndMgrHide:

; 1375 : 		return Py_BuildException();
; 1376 : 
; 1377 : 	int iSlotIndex;
; 1378 : 	if (!PyTuple_GetInteger(poArgs, 1, &iSlotIndex))

  0002c	8d 45 f8	 lea	 eax, DWORD PTR _iSlotIndex$[ebp]
  0002f	50		 push	 eax
  00030	6a 01		 push	 1
  00032	56		 push	 esi
  00033	e8 00 00 00 00	 call	 ?PyTuple_GetInteger@@YA_NPAU_object@@HPAH@Z ; PyTuple_GetInteger
  00038	83 c4 0c	 add	 esp, 12			; 0000000cH
  0003b	84 c0		 test	 al, al
  0003d	74 de		 je	 SHORT $LN6@wndMgrHide

; 1379 : 		return Py_BuildException();
; 1380 : 
; 1381 : 	if (!pWin->IsType(UI::CSlotWindow::Type()))

  0003f	e8 00 00 00 00	 call	 ?Type@CSlotWindow@UI@@SAKXZ ; UI::CSlotWindow::Type
  00044	8b 75 fc	 mov	 esi, DWORD PTR _pWin$[ebp]
  00047	8b ce		 mov	 ecx, esi
  00049	50		 push	 eax
  0004a	e8 00 00 00 00	 call	 ?IsType@CWindow@UI@@QAEHK@Z ; UI::CWindow::IsType
  0004f	85 c0		 test	 eax, eax
  00051	74 ca		 je	 SHORT $LN6@wndMgrHide

; 1382 : 		return Py_BuildException();
; 1383 : 
; 1384 : 	UI::CSlotWindow * pSlotWin = (UI::CSlotWindow *)pWin;
; 1385 : 	pSlotWin->HideSlotBaseImage(iSlotIndex);

  00053	ff 75 f8	 push	 DWORD PTR _iSlotIndex$[ebp]
  00056	8b ce		 mov	 ecx, esi
  00058	e8 00 00 00 00	 call	 ?HideSlotBaseImage@CSlotWindow@UI@@QAEXK@Z ; UI::CSlotWindow::HideSlotBaseImage

; 1386 : 	return Py_BuildNone();

  0005d	e8 00 00 00 00	 call	 ?Py_BuildNone@@YAPAU_object@@XZ ; Py_BuildNone
  00062	5e		 pop	 esi

; 1387 : }

  00063	8b e5		 mov	 esp, ebp
  00065	5d		 pop	 ebp
  00066	c3		 ret	 0
?wndMgrHideSlotBaseImage@@YAPAU_object@@PAU1@0@Z ENDP	; wndMgrHideSlotBaseImage
_TEXT	ENDS
; Function compile flags: /Ogtp
; File C:\DS Project\DS Files\Source\ClientSource\Client\eterPythonLib\PythonWindowManagerModule.cpp
;	COMDAT ?wndMgrShowSlotBaseImage@@YAPAU_object@@PAU1@0@Z
_TEXT	SEGMENT
_iSlotIndex$ = -8					; size = 4
_pWin$ = -4						; size = 4
_poSelf$ = 8						; size = 4
_poArgs$ = 12						; size = 4
?wndMgrShowSlotBaseImage@@YAPAU_object@@PAU1@0@Z PROC	; wndMgrShowSlotBaseImage, COMDAT

; 1354 : {

  00000	55		 push	 ebp
  00001	8b ec		 mov	 ebp, esp
  00003	83 ec 08	 sub	 esp, 8

; 1355 : 	UI::CWindow * pWin;
; 1356 : 	if (!PyTuple_GetWindow(poArgs, 0, &pWin))

  00006	8d 45 fc	 lea	 eax, DWORD PTR _pWin$[ebp]
  00009	56		 push	 esi
  0000a	8b 75 0c	 mov	 esi, DWORD PTR _poArgs$[ebp]
  0000d	50		 push	 eax
  0000e	6a 00		 push	 0
  00010	56		 push	 esi
  00011	e8 00 00 00 00	 call	 ?PyTuple_GetWindow@@YA_NPAU_object@@HPAPAVCWindow@UI@@@Z ; PyTuple_GetWindow
  00016	83 c4 0c	 add	 esp, 12			; 0000000cH
  00019	84 c0		 test	 al, al
  0001b	75 0f		 jne	 SHORT $LN2@wndMgrShow
$LN6@wndMgrShow:

; 1369 : }

  0001d	6a 00		 push	 0
  0001f	e8 00 00 00 00	 call	 ?Py_BuildException@@YAPAU_object@@PBDZZ ; Py_BuildException
  00024	83 c4 04	 add	 esp, 4
  00027	5e		 pop	 esi
  00028	8b e5		 mov	 esp, ebp
  0002a	5d		 pop	 ebp
  0002b	c3		 ret	 0
$LN2@wndMgrShow:

; 1357 : 		return Py_BuildException();
; 1358 : 
; 1359 : 	int iSlotIndex;
; 1360 : 	if (!PyTuple_GetInteger(poArgs, 1, &iSlotIndex))

  0002c	8d 45 f8	 lea	 eax, DWORD PTR _iSlotIndex$[ebp]
  0002f	50		 push	 eax
  00030	6a 01		 push	 1
  00032	56		 push	 esi
  00033	e8 00 00 00 00	 call	 ?PyTuple_GetInteger@@YA_NPAU_object@@HPAH@Z ; PyTuple_GetInteger
  00038	83 c4 0c	 add	 esp, 12			; 0000000cH
  0003b	84 c0		 test	 al, al
  0003d	74 de		 je	 SHORT $LN6@wndMgrShow

; 1361 : 		return Py_BuildException();
; 1362 : 
; 1363 : 	if (!pWin->IsType(UI::CSlotWindow::Type()))

  0003f	e8 00 00 00 00	 call	 ?Type@CSlotWindow@UI@@SAKXZ ; UI::CSlotWindow::Type
  00044	8b 75 fc	 mov	 esi, DWORD PTR _pWin$[ebp]
  00047	8b ce		 mov	 ecx, esi
  00049	50		 push	 eax
  0004a	e8 00 00 00 00	 call	 ?IsType@CWindow@UI@@QAEHK@Z ; UI::CWindow::IsType
  0004f	85 c0		 test	 eax, eax
  00051	74 ca		 je	 SHORT $LN6@wndMgrShow

; 1364 : 		return Py_BuildException();
; 1365 : 
; 1366 : 	UI::CSlotWindow * pSlotWin = (UI::CSlotWindow *)pWin;
; 1367 : 	pSlotWin->ShowSlotBaseImage(iSlotIndex);

  00053	ff 75 f8	 push	 DWORD PTR _iSlotIndex$[ebp]
  00056	8b ce		 mov	 ecx, esi
  00058	e8 00 00 00 00	 call	 ?ShowSlotBaseImage@CSlotWindow@UI@@QAEXK@Z ; UI::CSlotWindow::ShowSlotBaseImage

; 1368 : 	return Py_BuildNone();

  0005d	e8 00 00 00 00	 call	 ?Py_BuildNone@@YAPAU_object@@XZ ; Py_BuildNone
  00062	5e		 pop	 esi

; 1369 : }

  00063	8b e5		 mov	 esp, ebp
  00065	5d		 pop	 ebp
  00066	c3		 ret	 0
?wndMgrShowSlotBaseImage@@YAPAU_object@@PAU1@0@Z ENDP	; wndMgrShowSlotBaseImage
_TEXT	ENDS
; Function compile flags: /Ogtp
; File C:\DS Project\DS Files\Source\ClientSource\Client\eterPythonLib\PythonWindowManagerModule.cpp
;	COMDAT ?wndMgrDisableSlot@@YAPAU_object@@PAU1@0@Z
_TEXT	SEGMENT
_iSlotIndex$ = -8					; size = 4
_pWin$ = -4						; size = 4
_poSelf$ = 8						; size = 4
_poArgs$ = 12						; size = 4
?wndMgrDisableSlot@@YAPAU_object@@PAU1@0@Z PROC		; wndMgrDisableSlot, COMDAT

; 1336 : {

  00000	55		 push	 ebp
  00001	8b ec		 mov	 ebp, esp
  00003	83 ec 08	 sub	 esp, 8

; 1337 : 	UI::CWindow * pWin;
; 1338 : 	if (!PyTuple_GetWindow(poArgs, 0, &pWin))

  00006	8d 45 fc	 lea	 eax, DWORD PTR _pWin$[ebp]
  00009	56		 push	 esi
  0000a	8b 75 0c	 mov	 esi, DWORD PTR _poArgs$[ebp]
  0000d	50		 push	 eax
  0000e	6a 00		 push	 0
  00010	56		 push	 esi
  00011	e8 00 00 00 00	 call	 ?PyTuple_GetWindow@@YA_NPAU_object@@HPAPAVCWindow@UI@@@Z ; PyTuple_GetWindow
  00016	83 c4 0c	 add	 esp, 12			; 0000000cH
  00019	84 c0		 test	 al, al
  0001b	75 0f		 jne	 SHORT $LN2@wndMgrDisa
$LN6@wndMgrDisa:

; 1351 : }

  0001d	6a 00		 push	 0
  0001f	e8 00 00 00 00	 call	 ?Py_BuildException@@YAPAU_object@@PBDZZ ; Py_BuildException
  00024	83 c4 04	 add	 esp, 4
  00027	5e		 pop	 esi
  00028	8b e5		 mov	 esp, ebp
  0002a	5d		 pop	 ebp
  0002b	c3		 ret	 0
$LN2@wndMgrDisa:

; 1339 : 		return Py_BuildException();
; 1340 : 
; 1341 : 	int iSlotIndex;
; 1342 : 	if (!PyTuple_GetInteger(poArgs, 1, &iSlotIndex))

  0002c	8d 45 f8	 lea	 eax, DWORD PTR _iSlotIndex$[ebp]
  0002f	50		 push	 eax
  00030	6a 01		 push	 1
  00032	56		 push	 esi
  00033	e8 00 00 00 00	 call	 ?PyTuple_GetInteger@@YA_NPAU_object@@HPAH@Z ; PyTuple_GetInteger
  00038	83 c4 0c	 add	 esp, 12			; 0000000cH
  0003b	84 c0		 test	 al, al
  0003d	74 de		 je	 SHORT $LN6@wndMgrDisa

; 1343 : 		return Py_BuildException();
; 1344 : 
; 1345 : 	if (!pWin->IsType(UI::CSlotWindow::Type()))

  0003f	e8 00 00 00 00	 call	 ?Type@CSlotWindow@UI@@SAKXZ ; UI::CSlotWindow::Type
  00044	8b 75 fc	 mov	 esi, DWORD PTR _pWin$[ebp]
  00047	8b ce		 mov	 ecx, esi
  00049	50		 push	 eax
  0004a	e8 00 00 00 00	 call	 ?IsType@CWindow@UI@@QAEHK@Z ; UI::CWindow::IsType
  0004f	85 c0		 test	 eax, eax
  00051	74 ca		 je	 SHORT $LN6@wndMgrDisa

; 1346 : 		return Py_BuildException();
; 1347 : 
; 1348 : 	UI::CSlotWindow * pSlotWin = (UI::CSlotWindow *)pWin;
; 1349 : 	pSlotWin->DisableSlot(iSlotIndex);

  00053	ff 75 f8	 push	 DWORD PTR _iSlotIndex$[ebp]
  00056	8b ce		 mov	 ecx, esi
  00058	e8 00 00 00 00	 call	 ?DisableSlot@CSlotWindow@UI@@QAEXK@Z ; UI::CSlotWindow::DisableSlot

; 1350 : 	return Py_BuildNone();

  0005d	e8 00 00 00 00	 call	 ?Py_BuildNone@@YAPAU_object@@XZ ; Py_BuildNone
  00062	5e		 pop	 esi

; 1351 : }

  00063	8b e5		 mov	 esp, ebp
  00065	5d		 pop	 ebp
  00066	c3		 ret	 0
?wndMgrDisableSlot@@YAPAU_object@@PAU1@0@Z ENDP		; wndMgrDisableSlot
_TEXT	ENDS
; Function compile flags: /Ogtp
; File C:\DS Project\DS Files\Source\ClientSource\Client\eterPythonLib\PythonWindowManagerModule.cpp
;	COMDAT ?wndMgrEnableSlot@@YAPAU_object@@PAU1@0@Z
_TEXT	SEGMENT
_iSlotIndex$ = -8					; size = 4
_pWin$ = -4						; size = 4
_poSelf$ = 8						; size = 4
_poArgs$ = 12						; size = 4
?wndMgrEnableSlot@@YAPAU_object@@PAU1@0@Z PROC		; wndMgrEnableSlot, COMDAT

; 1318 : {

  00000	55		 push	 ebp
  00001	8b ec		 mov	 ebp, esp
  00003	83 ec 08	 sub	 esp, 8

; 1319 : 	UI::CWindow * pWin;
; 1320 : 	if (!PyTuple_GetWindow(poArgs, 0, &pWin))

  00006	8d 45 fc	 lea	 eax, DWORD PTR _pWin$[ebp]
  00009	56		 push	 esi
  0000a	8b 75 0c	 mov	 esi, DWORD PTR _poArgs$[ebp]
  0000d	50		 push	 eax
  0000e	6a 00		 push	 0
  00010	56		 push	 esi
  00011	e8 00 00 00 00	 call	 ?PyTuple_GetWindow@@YA_NPAU_object@@HPAPAVCWindow@UI@@@Z ; PyTuple_GetWindow
  00016	83 c4 0c	 add	 esp, 12			; 0000000cH
  00019	84 c0		 test	 al, al
  0001b	75 0f		 jne	 SHORT $LN2@wndMgrEnab
$LN6@wndMgrEnab:

; 1333 : }

  0001d	6a 00		 push	 0
  0001f	e8 00 00 00 00	 call	 ?Py_BuildException@@YAPAU_object@@PBDZZ ; Py_BuildException
  00024	83 c4 04	 add	 esp, 4
  00027	5e		 pop	 esi
  00028	8b e5		 mov	 esp, ebp
  0002a	5d		 pop	 ebp
  0002b	c3		 ret	 0
$LN2@wndMgrEnab:

; 1321 : 		return Py_BuildException();
; 1322 : 
; 1323 : 	int iSlotIndex;
; 1324 : 	if (!PyTuple_GetInteger(poArgs, 1, &iSlotIndex))

  0002c	8d 45 f8	 lea	 eax, DWORD PTR _iSlotIndex$[ebp]
  0002f	50		 push	 eax
  00030	6a 01		 push	 1
  00032	56		 push	 esi
  00033	e8 00 00 00 00	 call	 ?PyTuple_GetInteger@@YA_NPAU_object@@HPAH@Z ; PyTuple_GetInteger
  00038	83 c4 0c	 add	 esp, 12			; 0000000cH
  0003b	84 c0		 test	 al, al
  0003d	74 de		 je	 SHORT $LN6@wndMgrEnab

; 1325 : 		return Py_BuildException();
; 1326 : 
; 1327 : 	if (!pWin->IsType(UI::CSlotWindow::Type()))

  0003f	e8 00 00 00 00	 call	 ?Type@CSlotWindow@UI@@SAKXZ ; UI::CSlotWindow::Type
  00044	8b 75 fc	 mov	 esi, DWORD PTR _pWin$[ebp]
  00047	8b ce		 mov	 ecx, esi
  00049	50		 push	 eax
  0004a	e8 00 00 00 00	 call	 ?IsType@CWindow@UI@@QAEHK@Z ; UI::CWindow::IsType
  0004f	85 c0		 test	 eax, eax
  00051	74 ca		 je	 SHORT $LN6@wndMgrEnab

; 1328 : 		return Py_BuildException();
; 1329 : 
; 1330 : 	UI::CSlotWindow * pSlotWin = (UI::CSlotWindow *)pWin;
; 1331 : 	pSlotWin->EnableSlot(iSlotIndex);

  00053	ff 75 f8	 push	 DWORD PTR _iSlotIndex$[ebp]
  00056	8b ce		 mov	 ecx, esi
  00058	e8 00 00 00 00	 call	 ?EnableSlot@CSlotWindow@UI@@QAEXK@Z ; UI::CSlotWindow::EnableSlot

; 1332 : 	return Py_BuildNone();

  0005d	e8 00 00 00 00	 call	 ?Py_BuildNone@@YAPAU_object@@XZ ; Py_BuildNone
  00062	5e		 pop	 esi

; 1333 : }

  00063	8b e5		 mov	 esp, ebp
  00065	5d		 pop	 ebp
  00066	c3		 ret	 0
?wndMgrEnableSlot@@YAPAU_object@@PAU1@0@Z ENDP		; wndMgrEnableSlot
_TEXT	ENDS
; Function compile flags: /Ogtp
; File C:\DS Project\DS Files\Source\ClientSource\Client\eterPythonLib\PythonWindowManagerModule.cpp
;	COMDAT ?wndMgrDeactivateSlot@@YAPAU_object@@PAU1@0@Z
_TEXT	SEGMENT
_iSlotIndex$ = -8					; size = 4
_pWin$ = -4						; size = 4
_poSelf$ = 8						; size = 4
_poArgs$ = 12						; size = 4
?wndMgrDeactivateSlot@@YAPAU_object@@PAU1@0@Z PROC	; wndMgrDeactivateSlot, COMDAT

; 1300 : {

  00000	55		 push	 ebp
  00001	8b ec		 mov	 ebp, esp
  00003	83 ec 08	 sub	 esp, 8

; 1301 : 	UI::CWindow * pWin;
; 1302 : 	if (!PyTuple_GetWindow(poArgs, 0, &pWin))

  00006	8d 45 fc	 lea	 eax, DWORD PTR _pWin$[ebp]
  00009	56		 push	 esi
  0000a	8b 75 0c	 mov	 esi, DWORD PTR _poArgs$[ebp]
  0000d	50		 push	 eax
  0000e	6a 00		 push	 0
  00010	56		 push	 esi
  00011	e8 00 00 00 00	 call	 ?PyTuple_GetWindow@@YA_NPAU_object@@HPAPAVCWindow@UI@@@Z ; PyTuple_GetWindow
  00016	83 c4 0c	 add	 esp, 12			; 0000000cH
  00019	84 c0		 test	 al, al
  0001b	75 0f		 jne	 SHORT $LN2@wndMgrDeac
$LN6@wndMgrDeac:

; 1315 : }

  0001d	6a 00		 push	 0
  0001f	e8 00 00 00 00	 call	 ?Py_BuildException@@YAPAU_object@@PBDZZ ; Py_BuildException
  00024	83 c4 04	 add	 esp, 4
  00027	5e		 pop	 esi
  00028	8b e5		 mov	 esp, ebp
  0002a	5d		 pop	 ebp
  0002b	c3		 ret	 0
$LN2@wndMgrDeac:

; 1303 : 		return Py_BuildException();
; 1304 : 
; 1305 : 	int iSlotIndex;
; 1306 : 	if (!PyTuple_GetInteger(poArgs, 1, &iSlotIndex))

  0002c	8d 45 f8	 lea	 eax, DWORD PTR _iSlotIndex$[ebp]
  0002f	50		 push	 eax
  00030	6a 01		 push	 1
  00032	56		 push	 esi
  00033	e8 00 00 00 00	 call	 ?PyTuple_GetInteger@@YA_NPAU_object@@HPAH@Z ; PyTuple_GetInteger
  00038	83 c4 0c	 add	 esp, 12			; 0000000cH
  0003b	84 c0		 test	 al, al
  0003d	74 de		 je	 SHORT $LN6@wndMgrDeac

; 1307 : 		return Py_BuildException();
; 1308 : 
; 1309 : 	if (!pWin->IsType(UI::CSlotWindow::Type()))

  0003f	e8 00 00 00 00	 call	 ?Type@CSlotWindow@UI@@SAKXZ ; UI::CSlotWindow::Type
  00044	8b 75 fc	 mov	 esi, DWORD PTR _pWin$[ebp]
  00047	8b ce		 mov	 ecx, esi
  00049	50		 push	 eax
  0004a	e8 00 00 00 00	 call	 ?IsType@CWindow@UI@@QAEHK@Z ; UI::CWindow::IsType
  0004f	85 c0		 test	 eax, eax
  00051	74 ca		 je	 SHORT $LN6@wndMgrDeac

; 1310 : 		return Py_BuildException();
; 1311 : 
; 1312 : 	UI::CSlotWindow * pSlotWin = (UI::CSlotWindow *)pWin;
; 1313 : 	pSlotWin->DeactivateSlot(iSlotIndex);

  00053	ff 75 f8	 push	 DWORD PTR _iSlotIndex$[ebp]
  00056	8b ce		 mov	 ecx, esi
  00058	e8 00 00 00 00	 call	 ?DeactivateSlot@CSlotWindow@UI@@QAEXK@Z ; UI::CSlotWindow::DeactivateSlot

; 1314 : 	return Py_BuildNone();

  0005d	e8 00 00 00 00	 call	 ?Py_BuildNone@@YAPAU_object@@XZ ; Py_BuildNone
  00062	5e		 pop	 esi

; 1315 : }

  00063	8b e5		 mov	 esp, ebp
  00065	5d		 pop	 ebp
  00066	c3		 ret	 0
?wndMgrDeactivateSlot@@YAPAU_object@@PAU1@0@Z ENDP	; wndMgrDeactivateSlot
_TEXT	ENDS
; Function compile flags: /Ogtp
; File C:\DS Project\DS Files\Source\ClientSource\Client\eterPythonLib\PythonWindowManagerModule.cpp
;	COMDAT ?wndMgrActivateSlot@@YAPAU_object@@PAU1@0@Z
_TEXT	SEGMENT
_iSlotIndex$ = -8					; size = 4
_pWin$ = -4						; size = 4
_poSelf$ = 8						; size = 4
_poArgs$ = 12						; size = 4
?wndMgrActivateSlot@@YAPAU_object@@PAU1@0@Z PROC	; wndMgrActivateSlot, COMDAT

; 1282 : {

  00000	55		 push	 ebp
  00001	8b ec		 mov	 ebp, esp
  00003	83 ec 08	 sub	 esp, 8

; 1283 : 	UI::CWindow * pWin;
; 1284 : 	if (!PyTuple_GetWindow(poArgs, 0, &pWin))

  00006	8d 45 fc	 lea	 eax, DWORD PTR _pWin$[ebp]
  00009	56		 push	 esi
  0000a	8b 75 0c	 mov	 esi, DWORD PTR _poArgs$[ebp]
  0000d	50		 push	 eax
  0000e	6a 00		 push	 0
  00010	56		 push	 esi
  00011	e8 00 00 00 00	 call	 ?PyTuple_GetWindow@@YA_NPAU_object@@HPAPAVCWindow@UI@@@Z ; PyTuple_GetWindow
  00016	83 c4 0c	 add	 esp, 12			; 0000000cH
  00019	84 c0		 test	 al, al
  0001b	75 0f		 jne	 SHORT $LN2@wndMgrActi
$LN6@wndMgrActi:

; 1297 : }

  0001d	6a 00		 push	 0
  0001f	e8 00 00 00 00	 call	 ?Py_BuildException@@YAPAU_object@@PBDZZ ; Py_BuildException
  00024	83 c4 04	 add	 esp, 4
  00027	5e		 pop	 esi
  00028	8b e5		 mov	 esp, ebp
  0002a	5d		 pop	 ebp
  0002b	c3		 ret	 0
$LN2@wndMgrActi:

; 1285 : 		return Py_BuildException();
; 1286 : 
; 1287 : 	int iSlotIndex;
; 1288 : 	if (!PyTuple_GetInteger(poArgs, 1, &iSlotIndex))

  0002c	8d 45 f8	 lea	 eax, DWORD PTR _iSlotIndex$[ebp]
  0002f	50		 push	 eax
  00030	6a 01		 push	 1
  00032	56		 push	 esi
  00033	e8 00 00 00 00	 call	 ?PyTuple_GetInteger@@YA_NPAU_object@@HPAH@Z ; PyTuple_GetInteger
  00038	83 c4 0c	 add	 esp, 12			; 0000000cH
  0003b	84 c0		 test	 al, al
  0003d	74 de		 je	 SHORT $LN6@wndMgrActi

; 1289 : 		return Py_BuildException();
; 1290 : 
; 1291 : 	if (!pWin->IsType(UI::CSlotWindow::Type()))

  0003f	e8 00 00 00 00	 call	 ?Type@CSlotWindow@UI@@SAKXZ ; UI::CSlotWindow::Type
  00044	8b 75 fc	 mov	 esi, DWORD PTR _pWin$[ebp]
  00047	8b ce		 mov	 ecx, esi
  00049	50		 push	 eax
  0004a	e8 00 00 00 00	 call	 ?IsType@CWindow@UI@@QAEHK@Z ; UI::CWindow::IsType
  0004f	85 c0		 test	 eax, eax
  00051	74 ca		 je	 SHORT $LN6@wndMgrActi

; 1292 : 		return Py_BuildException();
; 1293 : 
; 1294 : 	UI::CSlotWindow * pSlotWin = (UI::CSlotWindow *)pWin;
; 1295 : 	pSlotWin->ActivateSlot(iSlotIndex);

  00053	ff 75 f8	 push	 DWORD PTR _iSlotIndex$[ebp]
  00056	8b ce		 mov	 ecx, esi
  00058	e8 00 00 00 00	 call	 ?ActivateSlot@CSlotWindow@UI@@QAEXK@Z ; UI::CSlotWindow::ActivateSlot

; 1296 : 	return Py_BuildNone();

  0005d	e8 00 00 00 00	 call	 ?Py_BuildNone@@YAPAU_object@@XZ ; Py_BuildNone
  00062	5e		 pop	 esi

; 1297 : }

  00063	8b e5		 mov	 esp, ebp
  00065	5d		 pop	 ebp
  00066	c3		 ret	 0
?wndMgrActivateSlot@@YAPAU_object@@PAU1@0@Z ENDP	; wndMgrActivateSlot
_TEXT	ENDS
; Function compile flags: /Ogtp
; File C:\DS Project\DS Files\Source\ClientSource\Client\eterPythonLib\PythonWindowManagerModule.cpp
;	COMDAT ?wndMgrSetToggleSlot@@YAPAU_object@@PAU1@0@Z
_TEXT	SEGMENT
_poSelf$ = 8						; size = 4
_poArgs$ = 12						; size = 4
?wndMgrSetToggleSlot@@YAPAU_object@@PAU1@0@Z PROC	; wndMgrSetToggleSlot, COMDAT

; 1277 : 	assert(!"wndMgrSetToggleSlot - Don't use such function");
; 1278 : 	return Py_BuildNone();

  00000	e9 00 00 00 00	 jmp	 ?Py_BuildNone@@YAPAU_object@@XZ ; Py_BuildNone
?wndMgrSetToggleSlot@@YAPAU_object@@PAU1@0@Z ENDP	; wndMgrSetToggleSlot
_TEXT	ENDS
; Function compile flags: /Ogtp
; File C:\DS Project\DS Files\Source\ClientSource\Client\eterPythonLib\PythonWindowManagerModule.cpp
;	COMDAT ?wndMgrSetSlotCoolTime@@YAPAU_object@@PAU1@0@Z
_TEXT	SEGMENT
_iSlotIndex$ = -16					; size = 4
_fCoolTime$ = -12					; size = 4
_pWin$ = -8						; size = 4
_fElapsedTime$ = -4					; size = 4
_poSelf$ = 8						; size = 4
_poArgs$ = 12						; size = 4
?wndMgrSetSlotCoolTime@@YAPAU_object@@PAU1@0@Z PROC	; wndMgrSetSlotCoolTime, COMDAT

; 1250 : {

  00000	55		 push	 ebp
  00001	8b ec		 mov	 ebp, esp
  00003	83 ec 10	 sub	 esp, 16			; 00000010H

; 1251 : 	UI::CWindow * pWin;
; 1252 : 	if (!PyTuple_GetWindow(poArgs, 0, &pWin))

  00006	8d 45 f8	 lea	 eax, DWORD PTR _pWin$[ebp]
  00009	56		 push	 esi
  0000a	8b 75 0c	 mov	 esi, DWORD PTR _poArgs$[ebp]
  0000d	50		 push	 eax
  0000e	6a 00		 push	 0
  00010	56		 push	 esi
  00011	e8 00 00 00 00	 call	 ?PyTuple_GetWindow@@YA_NPAU_object@@HPAPAVCWindow@UI@@@Z ; PyTuple_GetWindow
  00016	83 c4 0c	 add	 esp, 12			; 0000000cH
  00019	84 c0		 test	 al, al
  0001b	75 0f		 jne	 SHORT $LN2@wndMgrSetS
$LN7@wndMgrSetS:

; 1273 : }

  0001d	6a 00		 push	 0
  0001f	e8 00 00 00 00	 call	 ?Py_BuildException@@YAPAU_object@@PBDZZ ; Py_BuildException
  00024	83 c4 04	 add	 esp, 4
  00027	5e		 pop	 esi
  00028	8b e5		 mov	 esp, ebp
  0002a	5d		 pop	 ebp
  0002b	c3		 ret	 0
$LN2@wndMgrSetS:

; 1253 : 		return Py_BuildException();
; 1254 : 
; 1255 : 	int iSlotIndex;
; 1256 : 	if (!PyTuple_GetInteger(poArgs, 1, &iSlotIndex))

  0002c	8d 45 f0	 lea	 eax, DWORD PTR _iSlotIndex$[ebp]
  0002f	50		 push	 eax
  00030	6a 01		 push	 1
  00032	56		 push	 esi
  00033	e8 00 00 00 00	 call	 ?PyTuple_GetInteger@@YA_NPAU_object@@HPAH@Z ; PyTuple_GetInteger
  00038	83 c4 0c	 add	 esp, 12			; 0000000cH
  0003b	84 c0		 test	 al, al
  0003d	74 de		 je	 SHORT $LN7@wndMgrSetS

; 1257 : 		return Py_BuildException();
; 1258 : 
; 1259 : 	float fCoolTime;
; 1260 : 	if (!PyTuple_GetFloat(poArgs, 2, &fCoolTime))

  0003f	8d 45 f4	 lea	 eax, DWORD PTR _fCoolTime$[ebp]
  00042	50		 push	 eax
  00043	6a 02		 push	 2
  00045	56		 push	 esi
  00046	e8 00 00 00 00	 call	 ?PyTuple_GetFloat@@YA_NPAU_object@@HPAM@Z ; PyTuple_GetFloat
  0004b	83 c4 0c	 add	 esp, 12			; 0000000cH
  0004e	84 c0		 test	 al, al
  00050	74 cb		 je	 SHORT $LN7@wndMgrSetS

; 1261 : 		return Py_BuildException();
; 1262 : 
; 1263 : 	float fElapsedTime = 0.0f;
; 1264 : 	PyTuple_GetFloat(poArgs, 3, &fElapsedTime);

  00052	8d 45 fc	 lea	 eax, DWORD PTR _fElapsedTime$[ebp]
  00055	c7 45 fc 00 00
	00 00		 mov	 DWORD PTR _fElapsedTime$[ebp], 0
  0005c	50		 push	 eax
  0005d	6a 03		 push	 3
  0005f	56		 push	 esi
  00060	e8 00 00 00 00	 call	 ?PyTuple_GetFloat@@YA_NPAU_object@@HPAM@Z ; PyTuple_GetFloat
  00065	83 c4 0c	 add	 esp, 12			; 0000000cH

; 1265 : 
; 1266 : 	if (!pWin->IsType(UI::CSlotWindow::Type()))

  00068	e8 00 00 00 00	 call	 ?Type@CSlotWindow@UI@@SAKXZ ; UI::CSlotWindow::Type
  0006d	8b 75 f8	 mov	 esi, DWORD PTR _pWin$[ebp]
  00070	8b ce		 mov	 ecx, esi
  00072	50		 push	 eax
  00073	e8 00 00 00 00	 call	 ?IsType@CWindow@UI@@QAEHK@Z ; UI::CWindow::IsType
  00078	85 c0		 test	 eax, eax
  0007a	74 a1		 je	 SHORT $LN7@wndMgrSetS

; 1267 : 		return Py_BuildException();
; 1268 : 
; 1269 : 	UI::CSlotWindow * pSlotWin = (UI::CSlotWindow *)pWin;
; 1270 : 	pSlotWin->SetSlotCoolTime(iSlotIndex, fCoolTime, fElapsedTime);

  0007c	f3 0f 10 45 fc	 movss	 xmm0, DWORD PTR _fElapsedTime$[ebp]
  00081	83 ec 08	 sub	 esp, 8
  00084	8b ce		 mov	 ecx, esi
  00086	f3 0f 11 44 24
	04		 movss	 DWORD PTR [esp+4], xmm0
  0008c	f3 0f 10 45 f4	 movss	 xmm0, DWORD PTR _fCoolTime$[ebp]
  00091	f3 0f 11 04 24	 movss	 DWORD PTR [esp], xmm0
  00096	ff 75 f0	 push	 DWORD PTR _iSlotIndex$[ebp]
  00099	e8 00 00 00 00	 call	 ?SetSlotCoolTime@CSlotWindow@UI@@QAEXKMM@Z ; UI::CSlotWindow::SetSlotCoolTime

; 1271 : 
; 1272 : 	return Py_BuildNone();

  0009e	e8 00 00 00 00	 call	 ?Py_BuildNone@@YAPAU_object@@XZ ; Py_BuildNone
  000a3	5e		 pop	 esi

; 1273 : }

  000a4	8b e5		 mov	 esp, ebp
  000a6	5d		 pop	 ebp
  000a7	c3		 ret	 0
?wndMgrSetSlotCoolTime@@YAPAU_object@@PAU1@0@Z ENDP	; wndMgrSetSlotCoolTime
_TEXT	ENDS
; Function compile flags: /Ogtp
; File C:\DS Project\DS Files\Source\ClientSource\Client\eterPythonLib\PythonWindowManagerModule.cpp
;	COMDAT ?wndMgrSetSlotCountNew@@YAPAU_object@@PAU1@0@Z
_TEXT	SEGMENT
_iSlotIndex$ = -16					; size = 4
_iGrade$ = -12						; size = 4
_iCount$ = -8						; size = 4
_pWin$ = -4						; size = 4
_poSelf$ = 8						; size = 4
_poArgs$ = 12						; size = 4
?wndMgrSetSlotCountNew@@YAPAU_object@@PAU1@0@Z PROC	; wndMgrSetSlotCountNew, COMDAT

; 1223 : {

  00000	55		 push	 ebp
  00001	8b ec		 mov	 ebp, esp
  00003	83 ec 10	 sub	 esp, 16			; 00000010H

; 1224 : 	UI::CWindow * pWin;
; 1225 : 	if (!PyTuple_GetWindow(poArgs, 0, &pWin))

  00006	8d 45 fc	 lea	 eax, DWORD PTR _pWin$[ebp]
  00009	56		 push	 esi
  0000a	8b 75 0c	 mov	 esi, DWORD PTR _poArgs$[ebp]
  0000d	50		 push	 eax
  0000e	6a 00		 push	 0
  00010	56		 push	 esi
  00011	e8 00 00 00 00	 call	 ?PyTuple_GetWindow@@YA_NPAU_object@@HPAPAVCWindow@UI@@@Z ; PyTuple_GetWindow
  00016	83 c4 0c	 add	 esp, 12			; 0000000cH
  00019	84 c0		 test	 al, al
  0001b	75 0f		 jne	 SHORT $LN2@wndMgrSetS
$LN8@wndMgrSetS:

; 1247 : }

  0001d	6a 00		 push	 0
  0001f	e8 00 00 00 00	 call	 ?Py_BuildException@@YAPAU_object@@PBDZZ ; Py_BuildException
  00024	83 c4 04	 add	 esp, 4
  00027	5e		 pop	 esi
  00028	8b e5		 mov	 esp, ebp
  0002a	5d		 pop	 ebp
  0002b	c3		 ret	 0
$LN2@wndMgrSetS:

; 1226 : 		return Py_BuildException();
; 1227 : 
; 1228 : 	int iSlotIndex;
; 1229 : 	if (!PyTuple_GetInteger(poArgs, 1, &iSlotIndex))

  0002c	8d 45 f0	 lea	 eax, DWORD PTR _iSlotIndex$[ebp]
  0002f	50		 push	 eax
  00030	6a 01		 push	 1
  00032	56		 push	 esi
  00033	e8 00 00 00 00	 call	 ?PyTuple_GetInteger@@YA_NPAU_object@@HPAH@Z ; PyTuple_GetInteger
  00038	83 c4 0c	 add	 esp, 12			; 0000000cH
  0003b	84 c0		 test	 al, al
  0003d	74 de		 je	 SHORT $LN8@wndMgrSetS

; 1230 : 		return Py_BuildException();
; 1231 : 
; 1232 : 	int iGrade;
; 1233 : 	if (!PyTuple_GetInteger(poArgs, 2, &iGrade))

  0003f	8d 45 f4	 lea	 eax, DWORD PTR _iGrade$[ebp]
  00042	50		 push	 eax
  00043	6a 02		 push	 2
  00045	56		 push	 esi
  00046	e8 00 00 00 00	 call	 ?PyTuple_GetInteger@@YA_NPAU_object@@HPAH@Z ; PyTuple_GetInteger
  0004b	83 c4 0c	 add	 esp, 12			; 0000000cH
  0004e	84 c0		 test	 al, al
  00050	74 cb		 je	 SHORT $LN8@wndMgrSetS

; 1234 : 		return Py_BuildException();
; 1235 : 
; 1236 : 	int iCount;
; 1237 : 	if (!PyTuple_GetInteger(poArgs, 3, &iCount))

  00052	8d 45 f8	 lea	 eax, DWORD PTR _iCount$[ebp]
  00055	50		 push	 eax
  00056	6a 03		 push	 3
  00058	56		 push	 esi
  00059	e8 00 00 00 00	 call	 ?PyTuple_GetInteger@@YA_NPAU_object@@HPAH@Z ; PyTuple_GetInteger
  0005e	83 c4 0c	 add	 esp, 12			; 0000000cH
  00061	84 c0		 test	 al, al
  00063	74 b8		 je	 SHORT $LN8@wndMgrSetS

; 1238 : 		return Py_BuildException();
; 1239 : 
; 1240 : 	if (!pWin->IsType(UI::CSlotWindow::Type()))

  00065	e8 00 00 00 00	 call	 ?Type@CSlotWindow@UI@@SAKXZ ; UI::CSlotWindow::Type
  0006a	8b 75 fc	 mov	 esi, DWORD PTR _pWin$[ebp]
  0006d	8b ce		 mov	 ecx, esi
  0006f	50		 push	 eax
  00070	e8 00 00 00 00	 call	 ?IsType@CWindow@UI@@QAEHK@Z ; UI::CWindow::IsType
  00075	85 c0		 test	 eax, eax
  00077	74 a4		 je	 SHORT $LN8@wndMgrSetS

; 1241 : 		return Py_BuildException();
; 1242 : 
; 1243 : 	UI::CSlotWindow * pSlotWin = (UI::CSlotWindow *)pWin;
; 1244 : 	pSlotWin->SetSlotCountNew(iSlotIndex, iGrade, iCount);

  00079	ff 75 f8	 push	 DWORD PTR _iCount$[ebp]
  0007c	8b ce		 mov	 ecx, esi
  0007e	ff 75 f4	 push	 DWORD PTR _iGrade$[ebp]
  00081	ff 75 f0	 push	 DWORD PTR _iSlotIndex$[ebp]
  00084	e8 00 00 00 00	 call	 ?SetSlotCountNew@CSlotWindow@UI@@QAEXKKK@Z ; UI::CSlotWindow::SetSlotCountNew

; 1245 : 
; 1246 : 	return Py_BuildNone();

  00089	e8 00 00 00 00	 call	 ?Py_BuildNone@@YAPAU_object@@XZ ; Py_BuildNone
  0008e	5e		 pop	 esi

; 1247 : }

  0008f	8b e5		 mov	 esp, ebp
  00091	5d		 pop	 ebp
  00092	c3		 ret	 0
?wndMgrSetSlotCountNew@@YAPAU_object@@PAU1@0@Z ENDP	; wndMgrSetSlotCountNew
_TEXT	ENDS
; Function compile flags: /Ogtp
; File C:\DS Project\DS Files\Source\ClientSource\Client\eterPythonLib\PythonWindowManagerModule.cpp
;	COMDAT ?wndMgrSetSlotCount@@YAPAU_object@@PAU1@0@Z
_TEXT	SEGMENT
_iSlotIndex$ = -12					; size = 4
_iCount$ = -8						; size = 4
_pWin$ = -4						; size = 4
_poSelf$ = 8						; size = 4
_poArgs$ = 12						; size = 4
?wndMgrSetSlotCount@@YAPAU_object@@PAU1@0@Z PROC	; wndMgrSetSlotCount, COMDAT

; 1200 : {

  00000	55		 push	 ebp
  00001	8b ec		 mov	 ebp, esp
  00003	83 ec 0c	 sub	 esp, 12			; 0000000cH

; 1201 : 	UI::CWindow * pWin;
; 1202 : 	if (!PyTuple_GetWindow(poArgs, 0, &pWin))

  00006	8d 45 fc	 lea	 eax, DWORD PTR _pWin$[ebp]
  00009	56		 push	 esi
  0000a	8b 75 0c	 mov	 esi, DWORD PTR _poArgs$[ebp]
  0000d	50		 push	 eax
  0000e	6a 00		 push	 0
  00010	56		 push	 esi
  00011	e8 00 00 00 00	 call	 ?PyTuple_GetWindow@@YA_NPAU_object@@HPAPAVCWindow@UI@@@Z ; PyTuple_GetWindow
  00016	83 c4 0c	 add	 esp, 12			; 0000000cH
  00019	84 c0		 test	 al, al
  0001b	75 0f		 jne	 SHORT $LN2@wndMgrSetS
$LN7@wndMgrSetS:

; 1220 : }

  0001d	6a 00		 push	 0
  0001f	e8 00 00 00 00	 call	 ?Py_BuildException@@YAPAU_object@@PBDZZ ; Py_BuildException
  00024	83 c4 04	 add	 esp, 4
  00027	5e		 pop	 esi
  00028	8b e5		 mov	 esp, ebp
  0002a	5d		 pop	 ebp
  0002b	c3		 ret	 0
$LN2@wndMgrSetS:

; 1203 : 		return Py_BuildException();
; 1204 : 
; 1205 : 	int iSlotIndex;
; 1206 : 	if (!PyTuple_GetInteger(poArgs, 1, &iSlotIndex))

  0002c	8d 45 f4	 lea	 eax, DWORD PTR _iSlotIndex$[ebp]
  0002f	50		 push	 eax
  00030	6a 01		 push	 1
  00032	56		 push	 esi
  00033	e8 00 00 00 00	 call	 ?PyTuple_GetInteger@@YA_NPAU_object@@HPAH@Z ; PyTuple_GetInteger
  00038	83 c4 0c	 add	 esp, 12			; 0000000cH
  0003b	84 c0		 test	 al, al
  0003d	74 de		 je	 SHORT $LN7@wndMgrSetS

; 1207 : 		return Py_BuildException();
; 1208 : 
; 1209 : 	int iCount;
; 1210 : 	if (!PyTuple_GetInteger(poArgs, 2, &iCount))

  0003f	8d 45 f8	 lea	 eax, DWORD PTR _iCount$[ebp]
  00042	50		 push	 eax
  00043	6a 02		 push	 2
  00045	56		 push	 esi
  00046	e8 00 00 00 00	 call	 ?PyTuple_GetInteger@@YA_NPAU_object@@HPAH@Z ; PyTuple_GetInteger
  0004b	83 c4 0c	 add	 esp, 12			; 0000000cH
  0004e	84 c0		 test	 al, al
  00050	74 cb		 je	 SHORT $LN7@wndMgrSetS

; 1211 : 		return Py_BuildException();
; 1212 : 
; 1213 : 	if (!pWin->IsType(UI::CSlotWindow::Type()))

  00052	e8 00 00 00 00	 call	 ?Type@CSlotWindow@UI@@SAKXZ ; UI::CSlotWindow::Type
  00057	8b 75 fc	 mov	 esi, DWORD PTR _pWin$[ebp]
  0005a	8b ce		 mov	 ecx, esi
  0005c	50		 push	 eax
  0005d	e8 00 00 00 00	 call	 ?IsType@CWindow@UI@@QAEHK@Z ; UI::CWindow::IsType
  00062	85 c0		 test	 eax, eax
  00064	74 b7		 je	 SHORT $LN7@wndMgrSetS

; 1214 : 		return Py_BuildException();
; 1215 : 
; 1216 : 	UI::CSlotWindow * pSlotWin = (UI::CSlotWindow *)pWin;
; 1217 : 	pSlotWin->SetSlotCount(iSlotIndex, iCount);

  00066	ff 75 f8	 push	 DWORD PTR _iCount$[ebp]
  00069	8b ce		 mov	 ecx, esi
  0006b	ff 75 f4	 push	 DWORD PTR _iSlotIndex$[ebp]
  0006e	e8 00 00 00 00	 call	 ?SetSlotCount@CSlotWindow@UI@@QAEXKK@Z ; UI::CSlotWindow::SetSlotCount

; 1218 : 
; 1219 : 	return Py_BuildNone();

  00073	e8 00 00 00 00	 call	 ?Py_BuildNone@@YAPAU_object@@XZ ; Py_BuildNone
  00078	5e		 pop	 esi

; 1220 : }

  00079	8b e5		 mov	 esp, ebp
  0007b	5d		 pop	 ebp
  0007c	c3		 ret	 0
?wndMgrSetSlotCount@@YAPAU_object@@PAU1@0@Z ENDP	; wndMgrSetSlotCount
_TEXT	ENDS
; Function compile flags: /Ogtp
; File C:\DS Project\DS Files\Source\ClientSource\Client\eterPythonLib\PythonWindowManagerModule.cpp
;	COMDAT ?wndMgrSetSlot@@YAPAU_object@@PAU1@0@Z
_TEXT	SEGMENT
_diffuseColor$ = -44					; size = 16
_iSlotIndex$ = -28					; size = 4
_iItemIndex$ = -24					; size = 4
_iWidth$ = -20						; size = 4
_iHeight$ = -16						; size = 4
_iImageHandle$ = -12					; size = 4
_pWin$ = -8						; size = 4
_pTuple$ = -4						; size = 4
_poSelf$ = 8						; size = 4
_poArgs$ = 12						; size = 4
?wndMgrSetSlot@@YAPAU_object@@PAU1@0@Z PROC		; wndMgrSetSlot, COMDAT

; 1143 : {

  00000	55		 push	 ebp
  00001	8b ec		 mov	 ebp, esp
  00003	83 ec 2c	 sub	 esp, 44			; 0000002cH

; 1144 : 	UI::CWindow * pWin;
; 1145 : 	if (!PyTuple_GetWindow(poArgs, 0, &pWin))

  00006	8d 45 f8	 lea	 eax, DWORD PTR _pWin$[ebp]
  00009	56		 push	 esi
  0000a	8b 75 0c	 mov	 esi, DWORD PTR _poArgs$[ebp]
  0000d	50		 push	 eax
  0000e	6a 00		 push	 0
  00010	56		 push	 esi
  00011	e8 00 00 00 00	 call	 ?PyTuple_GetWindow@@YA_NPAU_object@@HPAPAVCWindow@UI@@@Z ; PyTuple_GetWindow
  00016	83 c4 0c	 add	 esp, 12			; 0000000cH
  00019	84 c0		 test	 al, al
  0001b	75 0f		 jne	 SHORT $LN2@wndMgrSetS
$LN30@wndMgrSetS:

; 1197 : }

  0001d	6a 00		 push	 0
  0001f	e8 00 00 00 00	 call	 ?Py_BuildException@@YAPAU_object@@PBDZZ ; Py_BuildException
  00024	83 c4 04	 add	 esp, 4
  00027	5e		 pop	 esi
  00028	8b e5		 mov	 esp, ebp
  0002a	5d		 pop	 ebp
  0002b	c3		 ret	 0
$LN2@wndMgrSetS:

; 1146 : 		return Py_BuildException();
; 1147 : 
; 1148 : 	int iSlotIndex;
; 1149 : 	if (!PyTuple_GetInteger(poArgs, 1, &iSlotIndex))

  0002c	8d 45 e4	 lea	 eax, DWORD PTR _iSlotIndex$[ebp]
  0002f	50		 push	 eax
  00030	6a 01		 push	 1
  00032	56		 push	 esi
  00033	e8 00 00 00 00	 call	 ?PyTuple_GetInteger@@YA_NPAU_object@@HPAH@Z ; PyTuple_GetInteger
  00038	83 c4 0c	 add	 esp, 12			; 0000000cH
  0003b	84 c0		 test	 al, al
  0003d	74 de		 je	 SHORT $LN30@wndMgrSetS

; 1150 : 		return Py_BuildException();
; 1151 : 
; 1152 : 	int iItemIndex;
; 1153 : 	if (!PyTuple_GetInteger(poArgs, 2, &iItemIndex))

  0003f	8d 45 e8	 lea	 eax, DWORD PTR _iItemIndex$[ebp]
  00042	50		 push	 eax
  00043	6a 02		 push	 2
  00045	56		 push	 esi
  00046	e8 00 00 00 00	 call	 ?PyTuple_GetInteger@@YA_NPAU_object@@HPAH@Z ; PyTuple_GetInteger
  0004b	83 c4 0c	 add	 esp, 12			; 0000000cH
  0004e	84 c0		 test	 al, al
  00050	74 cb		 je	 SHORT $LN30@wndMgrSetS

; 1154 : 		return Py_BuildException();
; 1155 : 
; 1156 : 	int iWidth;
; 1157 : 	if (!PyTuple_GetInteger(poArgs, 3, &iWidth))

  00052	8d 45 ec	 lea	 eax, DWORD PTR _iWidth$[ebp]
  00055	50		 push	 eax
  00056	6a 03		 push	 3
  00058	56		 push	 esi
  00059	e8 00 00 00 00	 call	 ?PyTuple_GetInteger@@YA_NPAU_object@@HPAH@Z ; PyTuple_GetInteger
  0005e	83 c4 0c	 add	 esp, 12			; 0000000cH
  00061	84 c0		 test	 al, al
  00063	74 b8		 je	 SHORT $LN30@wndMgrSetS

; 1158 : 		return Py_BuildException();
; 1159 : 
; 1160 : 	int iHeight;
; 1161 : 	if (!PyTuple_GetInteger(poArgs, 4, &iHeight))

  00065	8d 45 f0	 lea	 eax, DWORD PTR _iHeight$[ebp]
  00068	50		 push	 eax
  00069	6a 04		 push	 4
  0006b	56		 push	 esi
  0006c	e8 00 00 00 00	 call	 ?PyTuple_GetInteger@@YA_NPAU_object@@HPAH@Z ; PyTuple_GetInteger
  00071	83 c4 0c	 add	 esp, 12			; 0000000cH
  00074	84 c0		 test	 al, al
  00076	74 a5		 je	 SHORT $LN30@wndMgrSetS

; 1162 : 		return Py_BuildException();
; 1163 : 
; 1164 : 	int iImageHandle;
; 1165 : 	if (!PyTuple_GetInteger(poArgs, 5, &iImageHandle))

  00078	8d 45 f4	 lea	 eax, DWORD PTR _iImageHandle$[ebp]
  0007b	50		 push	 eax
  0007c	6a 05		 push	 5
  0007e	56		 push	 esi
  0007f	e8 00 00 00 00	 call	 ?PyTuple_GetInteger@@YA_NPAU_object@@HPAH@Z ; PyTuple_GetInteger
  00084	83 c4 0c	 add	 esp, 12			; 0000000cH
  00087	84 c0		 test	 al, al
  00089	74 92		 je	 SHORT $LN30@wndMgrSetS

; 1166 : 		return Py_BuildException();
; 1167 : 
; 1168 : 	D3DXCOLOR diffuseColor;
; 1169 : 	PyObject* pTuple;
; 1170 : 	if (!PyTuple_GetObject(poArgs, 6, &pTuple))

  0008b	8d 45 fc	 lea	 eax, DWORD PTR _pTuple$[ebp]
  0008e	50		 push	 eax
  0008f	6a 06		 push	 6
  00091	56		 push	 esi
  00092	e8 00 00 00 00	 call	 ?PyTuple_GetObject@@YA_NPAU_object@@HPAPAU1@@Z ; PyTuple_GetObject
  00097	83 c4 0c	 add	 esp, 12			; 0000000cH
  0009a	84 c0		 test	 al, al
  0009c	75 0d		 jne	 SHORT $LN8@wndMgrSetS

; 1171 : 	{
; 1172 : 		diffuseColor = D3DXCOLOR(1.0, 1.0, 1.0, 1.0);

  0009e	0f 28 05 00 00
	00 00		 movaps	 xmm0, XMMWORD PTR __xmm@3f8000003f8000003f8000003f800000
  000a5	0f 11 45 d4	 movups	 XMMWORD PTR _diffuseColor$[ebp], xmm0

; 1173 : 		//return Py_BuildException();
; 1174 : 	}

  000a9	eb 79		 jmp	 SHORT $LN14@wndMgrSetS
$LN8@wndMgrSetS:

; 1175 : 	else
; 1176 : 	// get diffuse color from pTuple
; 1177 : 	{
; 1178 : 		if (PyTuple_Size(pTuple) != 4)

  000ab	ff 75 fc	 push	 DWORD PTR _pTuple$[ebp]
  000ae	ff 15 00 00 00
	00		 call	 DWORD PTR __imp__PyTuple_Size
  000b4	83 c4 04	 add	 esp, 4
  000b7	83 f8 04	 cmp	 eax, 4
  000ba	0f 85 5d ff ff
	ff		 jne	 $LN30@wndMgrSetS

; 1179 : 			return Py_BuildException();
; 1180 : 		if (!PyTuple_GetFloat(pTuple, 0, &diffuseColor.r))

  000c0	8d 45 d4	 lea	 eax, DWORD PTR _diffuseColor$[ebp]
  000c3	50		 push	 eax
  000c4	6a 00		 push	 0
  000c6	ff 75 fc	 push	 DWORD PTR _pTuple$[ebp]
  000c9	e8 00 00 00 00	 call	 ?PyTuple_GetFloat@@YA_NPAU_object@@HPAM@Z ; PyTuple_GetFloat
  000ce	83 c4 0c	 add	 esp, 12			; 0000000cH
  000d1	84 c0		 test	 al, al
  000d3	0f 84 44 ff ff
	ff		 je	 $LN30@wndMgrSetS

; 1181 : 			return Py_BuildException();
; 1182 : 		if (!PyTuple_GetFloat(pTuple, 1, &diffuseColor.g))

  000d9	8d 45 d8	 lea	 eax, DWORD PTR _diffuseColor$[ebp+4]
  000dc	50		 push	 eax
  000dd	6a 01		 push	 1
  000df	ff 75 fc	 push	 DWORD PTR _pTuple$[ebp]
  000e2	e8 00 00 00 00	 call	 ?PyTuple_GetFloat@@YA_NPAU_object@@HPAM@Z ; PyTuple_GetFloat
  000e7	83 c4 0c	 add	 esp, 12			; 0000000cH
  000ea	84 c0		 test	 al, al
  000ec	0f 84 2b ff ff
	ff		 je	 $LN30@wndMgrSetS

; 1183 : 			return Py_BuildException();
; 1184 : 		if (!PyTuple_GetFloat(pTuple, 2, &diffuseColor.b))

  000f2	8d 45 dc	 lea	 eax, DWORD PTR _diffuseColor$[ebp+8]
  000f5	50		 push	 eax
  000f6	6a 02		 push	 2
  000f8	ff 75 fc	 push	 DWORD PTR _pTuple$[ebp]
  000fb	e8 00 00 00 00	 call	 ?PyTuple_GetFloat@@YA_NPAU_object@@HPAM@Z ; PyTuple_GetFloat
  00100	83 c4 0c	 add	 esp, 12			; 0000000cH
  00103	84 c0		 test	 al, al
  00105	0f 84 12 ff ff
	ff		 je	 $LN30@wndMgrSetS

; 1185 : 			return Py_BuildException();
; 1186 : 		if (!PyTuple_GetFloat(pTuple, 3, &diffuseColor.a))

  0010b	8d 45 e0	 lea	 eax, DWORD PTR _diffuseColor$[ebp+12]
  0010e	50		 push	 eax
  0010f	6a 03		 push	 3
  00111	ff 75 fc	 push	 DWORD PTR _pTuple$[ebp]
  00114	e8 00 00 00 00	 call	 ?PyTuple_GetFloat@@YA_NPAU_object@@HPAM@Z ; PyTuple_GetFloat
  00119	83 c4 0c	 add	 esp, 12			; 0000000cH
  0011c	84 c0		 test	 al, al
  0011e	0f 84 f9 fe ff
	ff		 je	 $LN30@wndMgrSetS
$LN14@wndMgrSetS:

; 1187 : 			return Py_BuildException();
; 1188 : 	}
; 1189 : 
; 1190 : 	if (!pWin->IsType(UI::CSlotWindow::Type()))

  00124	e8 00 00 00 00	 call	 ?Type@CSlotWindow@UI@@SAKXZ ; UI::CSlotWindow::Type
  00129	8b 75 f8	 mov	 esi, DWORD PTR _pWin$[ebp]
  0012c	8b ce		 mov	 ecx, esi
  0012e	50		 push	 eax
  0012f	e8 00 00 00 00	 call	 ?IsType@CWindow@UI@@QAEHK@Z ; UI::CWindow::IsType
  00134	85 c0		 test	 eax, eax
  00136	0f 84 e1 fe ff
	ff		 je	 $LN30@wndMgrSetS

; 1191 : 		return Py_BuildException();
; 1192 : 
; 1193 : 	UI::CSlotWindow * pSlotWin = (UI::CSlotWindow *)pWin;
; 1194 : 	pSlotWin->SetSlot(iSlotIndex, iItemIndex, iWidth, iHeight, (CGraphicImage *)iImageHandle, diffuseColor);

  0013c	8d 45 d4	 lea	 eax, DWORD PTR _diffuseColor$[ebp]
  0013f	8b ce		 mov	 ecx, esi
  00141	50		 push	 eax
  00142	ff 75 f4	 push	 DWORD PTR _iImageHandle$[ebp]
  00145	ff 75 f0	 push	 DWORD PTR _iHeight$[ebp]
  00148	ff 75 ec	 push	 DWORD PTR _iWidth$[ebp]
  0014b	ff 75 e8	 push	 DWORD PTR _iItemIndex$[ebp]
  0014e	ff 75 e4	 push	 DWORD PTR _iSlotIndex$[ebp]
  00151	e8 00 00 00 00	 call	 ?SetSlot@CSlotWindow@UI@@QAEXKKEEPAVCGraphicImage@@AAUD3DXCOLOR@@@Z ; UI::CSlotWindow::SetSlot

; 1195 : 
; 1196 : 	return Py_BuildNone();

  00156	e8 00 00 00 00	 call	 ?Py_BuildNone@@YAPAU_object@@XZ ; Py_BuildNone
  0015b	5e		 pop	 esi

; 1197 : }

  0015c	8b e5		 mov	 esp, ebp
  0015e	5d		 pop	 ebp
  0015f	c3		 ret	 0
?wndMgrSetSlot@@YAPAU_object@@PAU1@0@Z ENDP		; wndMgrSetSlot
_TEXT	ENDS
; Function compile flags: /Ogtp
; File C:\DS Project\DS Files\Source\ClientSource\Client\eterPythonLib\PythonWindowManagerModule.cpp
;	COMDAT ?wndMgrHasSlot@@YAPAU_object@@PAU1@0@Z
_TEXT	SEGMENT
_iSlotIndex$ = -8					; size = 4
_pWin$ = -4						; size = 4
_poSelf$ = 8						; size = 4
_poArgs$ = 12						; size = 4
?wndMgrHasSlot@@YAPAU_object@@PAU1@0@Z PROC		; wndMgrHasSlot, COMDAT

; 1125 : {

  00000	55		 push	 ebp
  00001	8b ec		 mov	 ebp, esp
  00003	83 ec 08	 sub	 esp, 8

; 1126 : 	UI::CWindow * pWin;
; 1127 : 	if (!PyTuple_GetWindow(poArgs, 0, &pWin))

  00006	8d 45 fc	 lea	 eax, DWORD PTR _pWin$[ebp]
  00009	56		 push	 esi
  0000a	8b 75 0c	 mov	 esi, DWORD PTR _poArgs$[ebp]
  0000d	50		 push	 eax
  0000e	6a 00		 push	 0
  00010	56		 push	 esi
  00011	e8 00 00 00 00	 call	 ?PyTuple_GetWindow@@YA_NPAU_object@@HPAPAVCWindow@UI@@@Z ; PyTuple_GetWindow
  00016	83 c4 0c	 add	 esp, 12			; 0000000cH
  00019	84 c0		 test	 al, al
  0001b	75 0f		 jne	 SHORT $LN2@wndMgrHasS
$LN6@wndMgrHasS:

; 1140 : }

  0001d	6a 00		 push	 0
  0001f	e8 00 00 00 00	 call	 ?Py_BuildException@@YAPAU_object@@PBDZZ ; Py_BuildException
  00024	83 c4 04	 add	 esp, 4
  00027	5e		 pop	 esi
  00028	8b e5		 mov	 esp, ebp
  0002a	5d		 pop	 ebp
  0002b	c3		 ret	 0
$LN2@wndMgrHasS:

; 1128 : 		return Py_BuildException();
; 1129 : 
; 1130 : 	int iSlotIndex;
; 1131 : 	if (!PyTuple_GetInteger(poArgs, 1, &iSlotIndex))

  0002c	8d 45 f8	 lea	 eax, DWORD PTR _iSlotIndex$[ebp]
  0002f	50		 push	 eax
  00030	6a 01		 push	 1
  00032	56		 push	 esi
  00033	e8 00 00 00 00	 call	 ?PyTuple_GetInteger@@YA_NPAU_object@@HPAH@Z ; PyTuple_GetInteger
  00038	83 c4 0c	 add	 esp, 12			; 0000000cH
  0003b	84 c0		 test	 al, al
  0003d	74 de		 je	 SHORT $LN6@wndMgrHasS

; 1132 : 		return Py_BuildException();
; 1133 : 
; 1134 : 	if (!pWin->IsType(UI::CSlotWindow::Type()))

  0003f	e8 00 00 00 00	 call	 ?Type@CSlotWindow@UI@@SAKXZ ; UI::CSlotWindow::Type
  00044	8b 75 fc	 mov	 esi, DWORD PTR _pWin$[ebp]
  00047	8b ce		 mov	 ecx, esi
  00049	50		 push	 eax
  0004a	e8 00 00 00 00	 call	 ?IsType@CWindow@UI@@QAEHK@Z ; UI::CWindow::IsType
  0004f	85 c0		 test	 eax, eax
  00051	74 ca		 je	 SHORT $LN6@wndMgrHasS

; 1135 : 		return Py_BuildException();
; 1136 : 
; 1137 : 	UI::CSlotWindow * pSlotWin = (UI::CSlotWindow *)pWin;
; 1138 : 
; 1139 : 	return Py_BuildValue("i", pSlotWin->HasSlot(iSlotIndex));

  00053	ff 75 f8	 push	 DWORD PTR _iSlotIndex$[ebp]
  00056	8b ce		 mov	 ecx, esi
  00058	e8 00 00 00 00	 call	 ?HasSlot@CSlotWindow@UI@@QAEHK@Z ; UI::CSlotWindow::HasSlot
  0005d	50		 push	 eax
  0005e	68 00 00 00 00	 push	 OFFSET ??_C@_01KBJDNOO@i@
  00063	ff 15 00 00 00
	00		 call	 DWORD PTR __imp__Py_BuildValue
  00069	83 c4 08	 add	 esp, 8
  0006c	5e		 pop	 esi

; 1140 : }

  0006d	8b e5		 mov	 esp, ebp
  0006f	5d		 pop	 ebp
  00070	c3		 ret	 0
?wndMgrHasSlot@@YAPAU_object@@PAU1@0@Z ENDP		; wndMgrHasSlot
_TEXT	ENDS
; Function compile flags: /Ogtp
; File C:\DS Project\DS Files\Source\ClientSource\Client\eterPythonLib\PythonWindowManagerModule.cpp
;	COMDAT ?wndMgrClearAllSlot@@YAPAU_object@@PAU1@0@Z
_TEXT	SEGMENT
_pWin$ = -4						; size = 4
_poSelf$ = 8						; size = 4
_poArgs$ = 12						; size = 4
?wndMgrClearAllSlot@@YAPAU_object@@PAU1@0@Z PROC	; wndMgrClearAllSlot, COMDAT

; 1110 : {

  00000	55		 push	 ebp
  00001	8b ec		 mov	 ebp, esp
  00003	51		 push	 ecx

; 1111 : 	UI::CWindow * pWin;
; 1112 : 	if (!PyTuple_GetWindow(poArgs, 0, &pWin))

  00004	8d 45 fc	 lea	 eax, DWORD PTR _pWin$[ebp]
  00007	50		 push	 eax
  00008	6a 00		 push	 0
  0000a	ff 75 0c	 push	 DWORD PTR _poArgs$[ebp]
  0000d	e8 00 00 00 00	 call	 ?PyTuple_GetWindow@@YA_NPAU_object@@HPAPAVCWindow@UI@@@Z ; PyTuple_GetWindow
  00012	83 c4 0c	 add	 esp, 12			; 0000000cH
  00015	84 c0		 test	 al, al
  00017	75 0e		 jne	 SHORT $LN2@wndMgrClea
$LN5@wndMgrClea:

; 1122 : }

  00019	6a 00		 push	 0
  0001b	e8 00 00 00 00	 call	 ?Py_BuildException@@YAPAU_object@@PBDZZ ; Py_BuildException
  00020	83 c4 04	 add	 esp, 4
  00023	8b e5		 mov	 esp, ebp
  00025	5d		 pop	 ebp
  00026	c3		 ret	 0
$LN2@wndMgrClea:

; 1113 : 		return Py_BuildException();
; 1114 : 
; 1115 : 	if (!pWin->IsType(UI::CSlotWindow::Type()))

  00027	e8 00 00 00 00	 call	 ?Type@CSlotWindow@UI@@SAKXZ ; UI::CSlotWindow::Type
  0002c	8b 4d fc	 mov	 ecx, DWORD PTR _pWin$[ebp]
  0002f	50		 push	 eax
  00030	e8 00 00 00 00	 call	 ?IsType@CWindow@UI@@QAEHK@Z ; UI::CWindow::IsType
  00035	85 c0		 test	 eax, eax
  00037	74 e0		 je	 SHORT $LN5@wndMgrClea

; 1116 : 		return Py_BuildException();
; 1117 : 
; 1118 : 	UI::CSlotWindow * pSlotWin = (UI::CSlotWindow *)pWin;
; 1119 : 	pSlotWin->ClearAllSlot();

  00039	8b 4d fc	 mov	 ecx, DWORD PTR _pWin$[ebp]
  0003c	e8 00 00 00 00	 call	 ?ClearAllSlot@CSlotWindow@UI@@QAEXXZ ; UI::CSlotWindow::ClearAllSlot

; 1120 : 
; 1121 : 	return Py_BuildNone();

  00041	e8 00 00 00 00	 call	 ?Py_BuildNone@@YAPAU_object@@XZ ; Py_BuildNone

; 1122 : }

  00046	8b e5		 mov	 esp, ebp
  00048	5d		 pop	 ebp
  00049	c3		 ret	 0
?wndMgrClearAllSlot@@YAPAU_object@@PAU1@0@Z ENDP	; wndMgrClearAllSlot
_TEXT	ENDS
; Function compile flags: /Ogtp
; File C:\DS Project\DS Files\Source\ClientSource\Client\eterPythonLib\PythonWindowManagerModule.cpp
;	COMDAT ?wndMgrClearSlot@@YAPAU_object@@PAU1@0@Z
_TEXT	SEGMENT
_iSlotIndex$ = -8					; size = 4
_pWin$ = -4						; size = 4
_poSelf$ = 8						; size = 4
_poArgs$ = 12						; size = 4
?wndMgrClearSlot@@YAPAU_object@@PAU1@0@Z PROC		; wndMgrClearSlot, COMDAT

; 1091 : {

  00000	55		 push	 ebp
  00001	8b ec		 mov	 ebp, esp
  00003	83 ec 08	 sub	 esp, 8

; 1092 : 	UI::CWindow * pWin;
; 1093 : 	if (!PyTuple_GetWindow(poArgs, 0, &pWin))

  00006	8d 45 fc	 lea	 eax, DWORD PTR _pWin$[ebp]
  00009	56		 push	 esi
  0000a	8b 75 0c	 mov	 esi, DWORD PTR _poArgs$[ebp]
  0000d	50		 push	 eax
  0000e	6a 00		 push	 0
  00010	56		 push	 esi
  00011	e8 00 00 00 00	 call	 ?PyTuple_GetWindow@@YA_NPAU_object@@HPAPAVCWindow@UI@@@Z ; PyTuple_GetWindow
  00016	83 c4 0c	 add	 esp, 12			; 0000000cH
  00019	84 c0		 test	 al, al
  0001b	75 0f		 jne	 SHORT $LN2@wndMgrClea
$LN6@wndMgrClea:

; 1107 : }

  0001d	6a 00		 push	 0
  0001f	e8 00 00 00 00	 call	 ?Py_BuildException@@YAPAU_object@@PBDZZ ; Py_BuildException
  00024	83 c4 04	 add	 esp, 4
  00027	5e		 pop	 esi
  00028	8b e5		 mov	 esp, ebp
  0002a	5d		 pop	 ebp
  0002b	c3		 ret	 0
$LN2@wndMgrClea:

; 1094 : 		return Py_BuildException();
; 1095 : 
; 1096 : 	int iSlotIndex;
; 1097 : 	if (!PyTuple_GetInteger(poArgs, 1, &iSlotIndex))

  0002c	8d 45 f8	 lea	 eax, DWORD PTR _iSlotIndex$[ebp]
  0002f	50		 push	 eax
  00030	6a 01		 push	 1
  00032	56		 push	 esi
  00033	e8 00 00 00 00	 call	 ?PyTuple_GetInteger@@YA_NPAU_object@@HPAH@Z ; PyTuple_GetInteger
  00038	83 c4 0c	 add	 esp, 12			; 0000000cH
  0003b	84 c0		 test	 al, al
  0003d	74 de		 je	 SHORT $LN6@wndMgrClea

; 1098 : 		return Py_BuildException();
; 1099 : 
; 1100 : 	if (!pWin->IsType(UI::CSlotWindow::Type()))

  0003f	e8 00 00 00 00	 call	 ?Type@CSlotWindow@UI@@SAKXZ ; UI::CSlotWindow::Type
  00044	8b 75 fc	 mov	 esi, DWORD PTR _pWin$[ebp]
  00047	8b ce		 mov	 ecx, esi
  00049	50		 push	 eax
  0004a	e8 00 00 00 00	 call	 ?IsType@CWindow@UI@@QAEHK@Z ; UI::CWindow::IsType
  0004f	85 c0		 test	 eax, eax
  00051	74 ca		 je	 SHORT $LN6@wndMgrClea

; 1101 : 		return Py_BuildException();
; 1102 : 
; 1103 : 	UI::CSlotWindow * pSlotWin = (UI::CSlotWindow *)pWin;
; 1104 : 	pSlotWin->ClearSlot(iSlotIndex);

  00053	ff 75 f8	 push	 DWORD PTR _iSlotIndex$[ebp]
  00056	8b ce		 mov	 ecx, esi
  00058	e8 00 00 00 00	 call	 ?ClearSlot@CSlotWindow@UI@@QAEXK@Z ; UI::CSlotWindow::ClearSlot

; 1105 : 
; 1106 : 	return Py_BuildNone();

  0005d	e8 00 00 00 00	 call	 ?Py_BuildNone@@YAPAU_object@@XZ ; Py_BuildNone
  00062	5e		 pop	 esi

; 1107 : }

  00063	8b e5		 mov	 esp, ebp
  00065	5d		 pop	 ebp
  00066	c3		 ret	 0
?wndMgrClearSlot@@YAPAU_object@@PAU1@0@Z ENDP		; wndMgrClearSlot
_TEXT	ENDS
; Function compile flags: /Ogtp
; File C:\DS Project\DS Files\Source\ClientSource\Client\eterPythonLib\PythonWindowManagerModule.cpp
;	COMDAT ?wndMgrSetUsableItem@@YAPAU_object@@PAU1@0@Z
_TEXT	SEGMENT
_iFlag$ = -8						; size = 4
_pWin$ = -4						; size = 4
_poSelf$ = 8						; size = 4
_poArgs$ = 12						; size = 4
?wndMgrSetUsableItem@@YAPAU_object@@PAU1@0@Z PROC	; wndMgrSetUsableItem, COMDAT

; 1073 : {

  00000	55		 push	 ebp
  00001	8b ec		 mov	 ebp, esp
  00003	83 ec 08	 sub	 esp, 8

; 1074 : 	UI::CWindow * pWin;
; 1075 : 	if (!PyTuple_GetWindow(poArgs, 0, &pWin))

  00006	8d 45 fc	 lea	 eax, DWORD PTR _pWin$[ebp]
  00009	56		 push	 esi
  0000a	8b 75 0c	 mov	 esi, DWORD PTR _poArgs$[ebp]
  0000d	50		 push	 eax
  0000e	6a 00		 push	 0
  00010	56		 push	 esi
  00011	e8 00 00 00 00	 call	 ?PyTuple_GetWindow@@YA_NPAU_object@@HPAPAVCWindow@UI@@@Z ; PyTuple_GetWindow
  00016	83 c4 0c	 add	 esp, 12			; 0000000cH
  00019	84 c0		 test	 al, al
  0001b	75 0f		 jne	 SHORT $LN2@wndMgrSetU
$LN6@wndMgrSetU:

; 1088 : }

  0001d	6a 00		 push	 0
  0001f	e8 00 00 00 00	 call	 ?Py_BuildException@@YAPAU_object@@PBDZZ ; Py_BuildException
  00024	83 c4 04	 add	 esp, 4
  00027	5e		 pop	 esi
  00028	8b e5		 mov	 esp, ebp
  0002a	5d		 pop	 ebp
  0002b	c3		 ret	 0
$LN2@wndMgrSetU:

; 1076 : 		return Py_BuildException();
; 1077 : 	int iFlag;
; 1078 : 	if (!PyTuple_GetInteger(poArgs, 1, &iFlag))

  0002c	8d 45 f8	 lea	 eax, DWORD PTR _iFlag$[ebp]
  0002f	50		 push	 eax
  00030	6a 01		 push	 1
  00032	56		 push	 esi
  00033	e8 00 00 00 00	 call	 ?PyTuple_GetInteger@@YA_NPAU_object@@HPAH@Z ; PyTuple_GetInteger
  00038	83 c4 0c	 add	 esp, 12			; 0000000cH
  0003b	84 c0		 test	 al, al
  0003d	74 de		 je	 SHORT $LN6@wndMgrSetU

; 1079 : 		return Py_BuildException();
; 1080 : 
; 1081 : 	if (!pWin->IsType(UI::CSlotWindow::Type()))

  0003f	e8 00 00 00 00	 call	 ?Type@CSlotWindow@UI@@SAKXZ ; UI::CSlotWindow::Type
  00044	8b 75 fc	 mov	 esi, DWORD PTR _pWin$[ebp]
  00047	8b ce		 mov	 ecx, esi
  00049	50		 push	 eax
  0004a	e8 00 00 00 00	 call	 ?IsType@CWindow@UI@@QAEHK@Z ; UI::CWindow::IsType
  0004f	85 c0		 test	 eax, eax
  00051	74 ca		 je	 SHORT $LN6@wndMgrSetU

; 1082 : 		return Py_BuildException();
; 1083 : 
; 1084 : 	UI::CSlotWindow * pSlotWin = (UI::CSlotWindow *)pWin;
; 1085 : 	pSlotWin->SetUsableItem(iFlag);

  00053	ff 75 f8	 push	 DWORD PTR _iFlag$[ebp]
  00056	8b ce		 mov	 ecx, esi
  00058	e8 00 00 00 00	 call	 ?SetUsableItem@CSlotWindow@UI@@QAEXH@Z ; UI::CSlotWindow::SetUsableItem

; 1086 : 
; 1087 : 	return Py_BuildNone();

  0005d	e8 00 00 00 00	 call	 ?Py_BuildNone@@YAPAU_object@@XZ ; Py_BuildNone
  00062	5e		 pop	 esi

; 1088 : }

  00063	8b e5		 mov	 esp, ebp
  00065	5d		 pop	 ebp
  00066	c3		 ret	 0
?wndMgrSetUsableItem@@YAPAU_object@@PAU1@0@Z ENDP	; wndMgrSetUsableItem
_TEXT	ENDS
; Function compile flags: /Ogtp
; File C:\DS Project\DS Files\Source\ClientSource\Client\eterPythonLib\PythonWindowManagerModule.cpp
;	COMDAT ?wndMgrSetUseMode@@YAPAU_object@@PAU1@0@Z
_TEXT	SEGMENT
_iFlag$ = -8						; size = 4
_pWin$ = -4						; size = 4
_poSelf$ = 8						; size = 4
_poArgs$ = 12						; size = 4
?wndMgrSetUseMode@@YAPAU_object@@PAU1@0@Z PROC		; wndMgrSetUseMode, COMDAT

; 1055 : {

  00000	55		 push	 ebp
  00001	8b ec		 mov	 ebp, esp
  00003	83 ec 08	 sub	 esp, 8

; 1056 : 	UI::CWindow * pWin;
; 1057 : 	if (!PyTuple_GetWindow(poArgs, 0, &pWin))

  00006	8d 45 fc	 lea	 eax, DWORD PTR _pWin$[ebp]
  00009	56		 push	 esi
  0000a	8b 75 0c	 mov	 esi, DWORD PTR _poArgs$[ebp]
  0000d	50		 push	 eax
  0000e	6a 00		 push	 0
  00010	56		 push	 esi
  00011	e8 00 00 00 00	 call	 ?PyTuple_GetWindow@@YA_NPAU_object@@HPAPAVCWindow@UI@@@Z ; PyTuple_GetWindow
  00016	83 c4 0c	 add	 esp, 12			; 0000000cH
  00019	84 c0		 test	 al, al
  0001b	75 0f		 jne	 SHORT $LN2@wndMgrSetU
$LN6@wndMgrSetU:

; 1070 : }

  0001d	6a 00		 push	 0
  0001f	e8 00 00 00 00	 call	 ?Py_BuildException@@YAPAU_object@@PBDZZ ; Py_BuildException
  00024	83 c4 04	 add	 esp, 4
  00027	5e		 pop	 esi
  00028	8b e5		 mov	 esp, ebp
  0002a	5d		 pop	 ebp
  0002b	c3		 ret	 0
$LN2@wndMgrSetU:

; 1058 : 		return Py_BuildException();
; 1059 : 	int iFlag;
; 1060 : 	if (!PyTuple_GetInteger(poArgs, 1, &iFlag))

  0002c	8d 45 f8	 lea	 eax, DWORD PTR _iFlag$[ebp]
  0002f	50		 push	 eax
  00030	6a 01		 push	 1
  00032	56		 push	 esi
  00033	e8 00 00 00 00	 call	 ?PyTuple_GetInteger@@YA_NPAU_object@@HPAH@Z ; PyTuple_GetInteger
  00038	83 c4 0c	 add	 esp, 12			; 0000000cH
  0003b	84 c0		 test	 al, al
  0003d	74 de		 je	 SHORT $LN6@wndMgrSetU

; 1061 : 		return Py_BuildException();
; 1062 : 
; 1063 : 	if (!pWin->IsType(UI::CSlotWindow::Type()))

  0003f	e8 00 00 00 00	 call	 ?Type@CSlotWindow@UI@@SAKXZ ; UI::CSlotWindow::Type
  00044	8b 75 fc	 mov	 esi, DWORD PTR _pWin$[ebp]
  00047	8b ce		 mov	 ecx, esi
  00049	50		 push	 eax
  0004a	e8 00 00 00 00	 call	 ?IsType@CWindow@UI@@QAEHK@Z ; UI::CWindow::IsType
  0004f	85 c0		 test	 eax, eax
  00051	74 ca		 je	 SHORT $LN6@wndMgrSetU

; 1064 : 		return Py_BuildException();
; 1065 : 
; 1066 : 	UI::CSlotWindow * pSlotWin = (UI::CSlotWindow *)pWin;
; 1067 : 	pSlotWin->SetUseMode(iFlag);

  00053	ff 75 f8	 push	 DWORD PTR _iFlag$[ebp]
  00056	8b ce		 mov	 ecx, esi
  00058	e8 00 00 00 00	 call	 ?SetUseMode@CSlotWindow@UI@@QAEXH@Z ; UI::CSlotWindow::SetUseMode

; 1068 : 
; 1069 : 	return Py_BuildNone();

  0005d	e8 00 00 00 00	 call	 ?Py_BuildNone@@YAPAU_object@@XZ ; Py_BuildNone
  00062	5e		 pop	 esi

; 1070 : }

  00063	8b e5		 mov	 esp, ebp
  00065	5d		 pop	 ebp
  00066	c3		 ret	 0
?wndMgrSetUseMode@@YAPAU_object@@PAU1@0@Z ENDP		; wndMgrSetUseMode
_TEXT	ENDS
; Function compile flags: /Ogtp
; File C:\DS Project\DS Files\Source\ClientSource\Client\eterPythonLib\PythonWindowManagerModule.cpp
;	COMDAT ?wndMgrRefreshSlot@@YAPAU_object@@PAU1@0@Z
_TEXT	SEGMENT
_pWin$ = -4						; size = 4
_poSelf$ = 8						; size = 4
_poArgs$ = 12						; size = 4
?wndMgrRefreshSlot@@YAPAU_object@@PAU1@0@Z PROC		; wndMgrRefreshSlot, COMDAT

; 1040 : {

  00000	55		 push	 ebp
  00001	8b ec		 mov	 ebp, esp
  00003	51		 push	 ecx

; 1041 : 	UI::CWindow * pWin;
; 1042 : 	if (!PyTuple_GetWindow(poArgs, 0, &pWin))

  00004	8d 45 fc	 lea	 eax, DWORD PTR _pWin$[ebp]
  00007	50		 push	 eax
  00008	6a 00		 push	 0
  0000a	ff 75 0c	 push	 DWORD PTR _poArgs$[ebp]
  0000d	e8 00 00 00 00	 call	 ?PyTuple_GetWindow@@YA_NPAU_object@@HPAPAVCWindow@UI@@@Z ; PyTuple_GetWindow
  00012	83 c4 0c	 add	 esp, 12			; 0000000cH
  00015	84 c0		 test	 al, al
  00017	75 0e		 jne	 SHORT $LN2@wndMgrRefr
$LN5@wndMgrRefr:

; 1052 : }

  00019	6a 00		 push	 0
  0001b	e8 00 00 00 00	 call	 ?Py_BuildException@@YAPAU_object@@PBDZZ ; Py_BuildException
  00020	83 c4 04	 add	 esp, 4
  00023	8b e5		 mov	 esp, ebp
  00025	5d		 pop	 ebp
  00026	c3		 ret	 0
$LN2@wndMgrRefr:

; 1043 : 		return Py_BuildException();
; 1044 : 
; 1045 : 	if (!pWin->IsType(UI::CSlotWindow::Type()))

  00027	e8 00 00 00 00	 call	 ?Type@CSlotWindow@UI@@SAKXZ ; UI::CSlotWindow::Type
  0002c	8b 4d fc	 mov	 ecx, DWORD PTR _pWin$[ebp]
  0002f	50		 push	 eax
  00030	e8 00 00 00 00	 call	 ?IsType@CWindow@UI@@QAEHK@Z ; UI::CWindow::IsType
  00035	85 c0		 test	 eax, eax
  00037	74 e0		 je	 SHORT $LN5@wndMgrRefr

; 1046 : 		return Py_BuildException();
; 1047 : 
; 1048 : 	UI::CSlotWindow * pSlotWin = (UI::CSlotWindow *)pWin;
; 1049 : 	pSlotWin->RefreshSlot();

  00039	8b 4d fc	 mov	 ecx, DWORD PTR _pWin$[ebp]
  0003c	e8 00 00 00 00	 call	 ?RefreshSlot@CSlotWindow@UI@@QAEXXZ ; UI::CSlotWindow::RefreshSlot

; 1050 : 
; 1051 : 	return Py_BuildNone();

  00041	e8 00 00 00 00	 call	 ?Py_BuildNone@@YAPAU_object@@XZ ; Py_BuildNone

; 1052 : }

  00046	8b e5		 mov	 esp, ebp
  00048	5d		 pop	 ebp
  00049	c3		 ret	 0
?wndMgrRefreshSlot@@YAPAU_object@@PAU1@0@Z ENDP		; wndMgrRefreshSlot
_TEXT	ENDS
; Function compile flags: /Ogtp
; File C:\DS Project\DS Files\Source\ClientSource\Client\eterPythonLib\PythonWindowManagerModule.cpp
;	COMDAT ?wndMgrHideRequirementSign@@YAPAU_object@@PAU1@0@Z
_TEXT	SEGMENT
_pWindow$ = -8						; size = 4
_iSlotNumber$ = -4					; size = 4
_poSelf$ = 8						; size = 4
_poArgs$ = 12						; size = 4
?wndMgrHideRequirementSign@@YAPAU_object@@PAU1@0@Z PROC	; wndMgrHideRequirementSign, COMDAT

; 1024 : {

  00000	55		 push	 ebp
  00001	8b ec		 mov	 ebp, esp
  00003	83 ec 08	 sub	 esp, 8

; 1025 : 	UI::CWindow * pWindow;
; 1026 : 	if (!PyTuple_GetWindow(poArgs, 0, &pWindow))

  00006	8d 45 f8	 lea	 eax, DWORD PTR _pWindow$[ebp]
  00009	50		 push	 eax
  0000a	6a 00		 push	 0
  0000c	ff 75 0c	 push	 DWORD PTR _poArgs$[ebp]
  0000f	e8 00 00 00 00	 call	 ?PyTuple_GetWindow@@YA_NPAU_object@@HPAPAVCWindow@UI@@@Z ; PyTuple_GetWindow
  00014	83 c4 0c	 add	 esp, 12			; 0000000cH
  00017	84 c0		 test	 al, al
  00019	75 0e		 jne	 SHORT $LN2@wndMgrHide
$LN5@wndMgrHide:

; 1037 : }

  0001b	6a 00		 push	 0
  0001d	e8 00 00 00 00	 call	 ?Py_BuildException@@YAPAU_object@@PBDZZ ; Py_BuildException
  00022	83 c4 04	 add	 esp, 4
  00025	8b e5		 mov	 esp, ebp
  00027	5d		 pop	 ebp
  00028	c3		 ret	 0
$LN2@wndMgrHide:

; 1027 : 		return Py_BuildException();
; 1028 : 
; 1029 : 	int iSlotNumber;
; 1030 : 	if (!PyTuple_GetInteger(poArgs, 1, &iSlotNumber))

  00029	8d 45 fc	 lea	 eax, DWORD PTR _iSlotNumber$[ebp]
  0002c	50		 push	 eax
  0002d	6a 01		 push	 1
  0002f	ff 75 0c	 push	 DWORD PTR _poArgs$[ebp]
  00032	e8 00 00 00 00	 call	 ?PyTuple_GetInteger@@YA_NPAU_object@@HPAH@Z ; PyTuple_GetInteger
  00037	83 c4 0c	 add	 esp, 12			; 0000000cH
  0003a	84 c0		 test	 al, al
  0003c	74 dd		 je	 SHORT $LN5@wndMgrHide

; 1031 : 		return Py_BuildException();
; 1032 : 
; 1033 : 	UI::CSlotWindow * pSlotWin = (UI::CSlotWindow *)pWindow;
; 1034 : 	pSlotWin->HideRequirementSign(iSlotNumber);

  0003e	ff 75 fc	 push	 DWORD PTR _iSlotNumber$[ebp]
  00041	8b 4d f8	 mov	 ecx, DWORD PTR _pWindow$[ebp]
  00044	e8 00 00 00 00	 call	 ?HideRequirementSign@CSlotWindow@UI@@QAEXK@Z ; UI::CSlotWindow::HideRequirementSign

; 1035 : 
; 1036 : 	return Py_BuildNone();

  00049	e8 00 00 00 00	 call	 ?Py_BuildNone@@YAPAU_object@@XZ ; Py_BuildNone

; 1037 : }

  0004e	8b e5		 mov	 esp, ebp
  00050	5d		 pop	 ebp
  00051	c3		 ret	 0
?wndMgrHideRequirementSign@@YAPAU_object@@PAU1@0@Z ENDP	; wndMgrHideRequirementSign
_TEXT	ENDS
; Function compile flags: /Ogtp
; File C:\DS Project\DS Files\Source\ClientSource\Client\eterPythonLib\PythonWindowManagerModule.cpp
;	COMDAT ?wndMgrShowRequirementSign@@YAPAU_object@@PAU1@0@Z
_TEXT	SEGMENT
_pWindow$ = -8						; size = 4
_iSlotNumber$ = -4					; size = 4
_poSelf$ = 8						; size = 4
_poArgs$ = 12						; size = 4
?wndMgrShowRequirementSign@@YAPAU_object@@PAU1@0@Z PROC	; wndMgrShowRequirementSign, COMDAT

; 1008 : {

  00000	55		 push	 ebp
  00001	8b ec		 mov	 ebp, esp
  00003	83 ec 08	 sub	 esp, 8

; 1009 : 	UI::CWindow * pWindow;
; 1010 : 	if (!PyTuple_GetWindow(poArgs, 0, &pWindow))

  00006	8d 45 f8	 lea	 eax, DWORD PTR _pWindow$[ebp]
  00009	50		 push	 eax
  0000a	6a 00		 push	 0
  0000c	ff 75 0c	 push	 DWORD PTR _poArgs$[ebp]
  0000f	e8 00 00 00 00	 call	 ?PyTuple_GetWindow@@YA_NPAU_object@@HPAPAVCWindow@UI@@@Z ; PyTuple_GetWindow
  00014	83 c4 0c	 add	 esp, 12			; 0000000cH
  00017	84 c0		 test	 al, al
  00019	75 0e		 jne	 SHORT $LN2@wndMgrShow
$LN5@wndMgrShow:

; 1021 : }

  0001b	6a 00		 push	 0
  0001d	e8 00 00 00 00	 call	 ?Py_BuildException@@YAPAU_object@@PBDZZ ; Py_BuildException
  00022	83 c4 04	 add	 esp, 4
  00025	8b e5		 mov	 esp, ebp
  00027	5d		 pop	 ebp
  00028	c3		 ret	 0
$LN2@wndMgrShow:

; 1011 : 		return Py_BuildException();
; 1012 : 
; 1013 : 	int iSlotNumber;
; 1014 : 	if (!PyTuple_GetInteger(poArgs, 1, &iSlotNumber))

  00029	8d 45 fc	 lea	 eax, DWORD PTR _iSlotNumber$[ebp]
  0002c	50		 push	 eax
  0002d	6a 01		 push	 1
  0002f	ff 75 0c	 push	 DWORD PTR _poArgs$[ebp]
  00032	e8 00 00 00 00	 call	 ?PyTuple_GetInteger@@YA_NPAU_object@@HPAH@Z ; PyTuple_GetInteger
  00037	83 c4 0c	 add	 esp, 12			; 0000000cH
  0003a	84 c0		 test	 al, al
  0003c	74 dd		 je	 SHORT $LN5@wndMgrShow

; 1015 : 		return Py_BuildException();
; 1016 : 
; 1017 : 	UI::CSlotWindow * pSlotWin = (UI::CSlotWindow *)pWindow;
; 1018 : 	pSlotWin->ShowRequirementSign(iSlotNumber);

  0003e	ff 75 fc	 push	 DWORD PTR _iSlotNumber$[ebp]
  00041	8b 4d f8	 mov	 ecx, DWORD PTR _pWindow$[ebp]
  00044	e8 00 00 00 00	 call	 ?ShowRequirementSign@CSlotWindow@UI@@QAEXK@Z ; UI::CSlotWindow::ShowRequirementSign

; 1019 : 
; 1020 : 	return Py_BuildNone();

  00049	e8 00 00 00 00	 call	 ?Py_BuildNone@@YAPAU_object@@XZ ; Py_BuildNone

; 1021 : }

  0004e	8b e5		 mov	 esp, ebp
  00050	5d		 pop	 ebp
  00051	c3		 ret	 0
?wndMgrShowRequirementSign@@YAPAU_object@@PAU1@0@Z ENDP	; wndMgrShowRequirementSign
_TEXT	ENDS
; Function compile flags: /Ogtp
; File C:\DS Project\DS Files\Source\ClientSource\Client\eterPythonLib\PythonWindowManagerModule.cpp
;	COMDAT ?wndMgrHideAllSlotButton@@YAPAU_object@@PAU1@0@Z
_TEXT	SEGMENT
_pWindow$ = -4						; size = 4
_poSelf$ = 8						; size = 4
_poArgs$ = 12						; size = 4
?wndMgrHideAllSlotButton@@YAPAU_object@@PAU1@0@Z PROC	; wndMgrHideAllSlotButton, COMDAT

; 996  : {

  00000	55		 push	 ebp
  00001	8b ec		 mov	 ebp, esp
  00003	51		 push	 ecx

; 997  : 	UI::CWindow * pWindow;
; 998  : 	if (!PyTuple_GetWindow(poArgs, 0, &pWindow))

  00004	8d 45 fc	 lea	 eax, DWORD PTR _pWindow$[ebp]
  00007	50		 push	 eax
  00008	6a 00		 push	 0
  0000a	ff 75 0c	 push	 DWORD PTR _poArgs$[ebp]
  0000d	e8 00 00 00 00	 call	 ?PyTuple_GetWindow@@YA_NPAU_object@@HPAPAVCWindow@UI@@@Z ; PyTuple_GetWindow
  00012	83 c4 0c	 add	 esp, 12			; 0000000cH
  00015	84 c0		 test	 al, al
  00017	75 0e		 jne	 SHORT $LN2@wndMgrHide

; 999  : 		return Py_BuildException();

  00019	6a 00		 push	 0
  0001b	e8 00 00 00 00	 call	 ?Py_BuildException@@YAPAU_object@@PBDZZ ; Py_BuildException
  00020	83 c4 04	 add	 esp, 4

; 1005 : }

  00023	8b e5		 mov	 esp, ebp
  00025	5d		 pop	 ebp
  00026	c3		 ret	 0
$LN2@wndMgrHide:

; 1000 : 
; 1001 : 	UI::CSlotWindow * pSlotWin = (UI::CSlotWindow *)pWindow;
; 1002 : 	pSlotWin->HideAllSlotButton();

  00027	8b 4d fc	 mov	 ecx, DWORD PTR _pWindow$[ebp]
  0002a	e8 00 00 00 00	 call	 ?HideAllSlotButton@CSlotWindow@UI@@QAEXXZ ; UI::CSlotWindow::HideAllSlotButton

; 1003 : 
; 1004 : 	return Py_BuildNone();

  0002f	e8 00 00 00 00	 call	 ?Py_BuildNone@@YAPAU_object@@XZ ; Py_BuildNone

; 1005 : }

  00034	8b e5		 mov	 esp, ebp
  00036	5d		 pop	 ebp
  00037	c3		 ret	 0
?wndMgrHideAllSlotButton@@YAPAU_object@@PAU1@0@Z ENDP	; wndMgrHideAllSlotButton
_TEXT	ENDS
; Function compile flags: /Ogtp
; File C:\DS Project\DS Files\Source\ClientSource\Client\eterPythonLib\PythonWindowManagerModule.cpp
;	COMDAT ?wndMgrShowSlotButton@@YAPAU_object@@PAU1@0@Z
_TEXT	SEGMENT
_pWindow$ = -8						; size = 4
_iSlotNumber$ = -4					; size = 4
_poSelf$ = 8						; size = 4
_poArgs$ = 12						; size = 4
?wndMgrShowSlotButton@@YAPAU_object@@PAU1@0@Z PROC	; wndMgrShowSlotButton, COMDAT

; 980  : {

  00000	55		 push	 ebp
  00001	8b ec		 mov	 ebp, esp
  00003	83 ec 08	 sub	 esp, 8

; 981  : 	UI::CWindow * pWindow;
; 982  : 	if (!PyTuple_GetWindow(poArgs, 0, &pWindow))

  00006	8d 45 f8	 lea	 eax, DWORD PTR _pWindow$[ebp]
  00009	50		 push	 eax
  0000a	6a 00		 push	 0
  0000c	ff 75 0c	 push	 DWORD PTR _poArgs$[ebp]
  0000f	e8 00 00 00 00	 call	 ?PyTuple_GetWindow@@YA_NPAU_object@@HPAPAVCWindow@UI@@@Z ; PyTuple_GetWindow
  00014	83 c4 0c	 add	 esp, 12			; 0000000cH
  00017	84 c0		 test	 al, al
  00019	75 0e		 jne	 SHORT $LN2@wndMgrShow
$LN5@wndMgrShow:

; 993  : }

  0001b	6a 00		 push	 0
  0001d	e8 00 00 00 00	 call	 ?Py_BuildException@@YAPAU_object@@PBDZZ ; Py_BuildException
  00022	83 c4 04	 add	 esp, 4
  00025	8b e5		 mov	 esp, ebp
  00027	5d		 pop	 ebp
  00028	c3		 ret	 0
$LN2@wndMgrShow:

; 983  : 		return Py_BuildException();
; 984  : 
; 985  : 	int iSlotNumber;
; 986  : 	if (!PyTuple_GetInteger(poArgs, 1, &iSlotNumber))

  00029	8d 45 fc	 lea	 eax, DWORD PTR _iSlotNumber$[ebp]
  0002c	50		 push	 eax
  0002d	6a 01		 push	 1
  0002f	ff 75 0c	 push	 DWORD PTR _poArgs$[ebp]
  00032	e8 00 00 00 00	 call	 ?PyTuple_GetInteger@@YA_NPAU_object@@HPAH@Z ; PyTuple_GetInteger
  00037	83 c4 0c	 add	 esp, 12			; 0000000cH
  0003a	84 c0		 test	 al, al
  0003c	74 dd		 je	 SHORT $LN5@wndMgrShow

; 987  : 		return Py_BuildException();
; 988  : 
; 989  : 	UI::CSlotWindow * pSlotWin = (UI::CSlotWindow *)pWindow;
; 990  : 	pSlotWin->ShowSlotButton(iSlotNumber);

  0003e	ff 75 fc	 push	 DWORD PTR _iSlotNumber$[ebp]
  00041	8b 4d f8	 mov	 ecx, DWORD PTR _pWindow$[ebp]
  00044	e8 00 00 00 00	 call	 ?ShowSlotButton@CSlotWindow@UI@@QAEXK@Z ; UI::CSlotWindow::ShowSlotButton

; 991  : 
; 992  : 	return Py_BuildNone();

  00049	e8 00 00 00 00	 call	 ?Py_BuildNone@@YAPAU_object@@XZ ; Py_BuildNone

; 993  : }

  0004e	8b e5		 mov	 esp, ebp
  00050	5d		 pop	 ebp
  00051	c3		 ret	 0
?wndMgrShowSlotButton@@YAPAU_object@@PAU1@0@Z ENDP	; wndMgrShowSlotButton
_TEXT	ENDS
; Function compile flags: /Ogtp
; File C:\DS Project\DS Files\Source\ClientSource\Client\eterPythonLib\PythonWindowManagerModule.cpp
;	COMDAT ?wndMgrAppendRequirementSignImage@@YAPAU_object@@PAU1@0@Z
_TEXT	SEGMENT
_pWindow$ = -8						; size = 4
_szImageName$ = -4					; size = 4
_poSelf$ = 8						; size = 4
_poArgs$ = 12						; size = 4
?wndMgrAppendRequirementSignImage@@YAPAU_object@@PAU1@0@Z PROC ; wndMgrAppendRequirementSignImage, COMDAT

; 964  : {

  00000	55		 push	 ebp
  00001	8b ec		 mov	 ebp, esp
  00003	83 ec 08	 sub	 esp, 8

; 965  : 	UI::CWindow * pWindow;
; 966  : 	if (!PyTuple_GetWindow(poArgs, 0, &pWindow))

  00006	8d 45 f8	 lea	 eax, DWORD PTR _pWindow$[ebp]
  00009	50		 push	 eax
  0000a	6a 00		 push	 0
  0000c	ff 75 0c	 push	 DWORD PTR _poArgs$[ebp]
  0000f	e8 00 00 00 00	 call	 ?PyTuple_GetWindow@@YA_NPAU_object@@HPAPAVCWindow@UI@@@Z ; PyTuple_GetWindow
  00014	83 c4 0c	 add	 esp, 12			; 0000000cH
  00017	84 c0		 test	 al, al
  00019	75 0e		 jne	 SHORT $LN2@wndMgrAppe
$LN5@wndMgrAppe:

; 977  : }

  0001b	6a 00		 push	 0
  0001d	e8 00 00 00 00	 call	 ?Py_BuildException@@YAPAU_object@@PBDZZ ; Py_BuildException
  00022	83 c4 04	 add	 esp, 4
  00025	8b e5		 mov	 esp, ebp
  00027	5d		 pop	 ebp
  00028	c3		 ret	 0
$LN2@wndMgrAppe:

; 967  : 		return Py_BuildException();
; 968  : 
; 969  : 	char * szImageName;
; 970  : 	if (!PyTuple_GetString(poArgs, 1, &szImageName))

  00029	8d 45 fc	 lea	 eax, DWORD PTR _szImageName$[ebp]
  0002c	50		 push	 eax
  0002d	6a 01		 push	 1
  0002f	ff 75 0c	 push	 DWORD PTR _poArgs$[ebp]
  00032	e8 00 00 00 00	 call	 ?PyTuple_GetString@@YA_NPAU_object@@HPAPAD@Z ; PyTuple_GetString
  00037	83 c4 0c	 add	 esp, 12			; 0000000cH
  0003a	84 c0		 test	 al, al
  0003c	74 dd		 je	 SHORT $LN5@wndMgrAppe

; 971  : 		return Py_BuildException();
; 972  : 
; 973  : 	UI::CSlotWindow * pSlotWin = (UI::CSlotWindow *)pWindow;
; 974  : 	pSlotWin->AppendRequirementSignImage(szImageName);

  0003e	ff 75 fc	 push	 DWORD PTR _szImageName$[ebp]
  00041	8b 4d f8	 mov	 ecx, DWORD PTR _pWindow$[ebp]
  00044	e8 00 00 00 00	 call	 ?AppendRequirementSignImage@CSlotWindow@UI@@QAEXPBD@Z ; UI::CSlotWindow::AppendRequirementSignImage

; 975  : 
; 976  : 	return Py_BuildNone();

  00049	e8 00 00 00 00	 call	 ?Py_BuildNone@@YAPAU_object@@XZ ; Py_BuildNone

; 977  : }

  0004e	8b e5		 mov	 esp, ebp
  00050	5d		 pop	 ebp
  00051	c3		 ret	 0
?wndMgrAppendRequirementSignImage@@YAPAU_object@@PAU1@0@Z ENDP ; wndMgrAppendRequirementSignImage
_TEXT	ENDS
; Function compile flags: /Ogtp
; File C:\DS Project\DS Files\Source\ClientSource\Client\eterPythonLib\PythonWindowManagerModule.cpp
;	COMDAT ?wndMgrAppendSlotButton@@YAPAU_object@@PAU1@0@Z
_TEXT	SEGMENT
_pWindow$ = -16						; size = 4
_szUpImageName$ = -12					; size = 4
_szOverImageName$ = -8					; size = 4
_szDownImageName$ = -4					; size = 4
_poSelf$ = 8						; size = 4
_poArgs$ = 12						; size = 4
?wndMgrAppendSlotButton@@YAPAU_object@@PAU1@0@Z PROC	; wndMgrAppendSlotButton, COMDAT

; 942  : {

  00000	55		 push	 ebp
  00001	8b ec		 mov	 ebp, esp
  00003	83 ec 10	 sub	 esp, 16			; 00000010H

; 943  : 	UI::CWindow * pWindow;
; 944  : 	if (!PyTuple_GetWindow(poArgs, 0, &pWindow))

  00006	8d 45 f0	 lea	 eax, DWORD PTR _pWindow$[ebp]
  00009	56		 push	 esi
  0000a	8b 75 0c	 mov	 esi, DWORD PTR _poArgs$[ebp]
  0000d	50		 push	 eax
  0000e	6a 00		 push	 0
  00010	56		 push	 esi
  00011	e8 00 00 00 00	 call	 ?PyTuple_GetWindow@@YA_NPAU_object@@HPAPAVCWindow@UI@@@Z ; PyTuple_GetWindow
  00016	83 c4 0c	 add	 esp, 12			; 0000000cH
  00019	84 c0		 test	 al, al
  0001b	75 0f		 jne	 SHORT $LN2@wndMgrAppe
$LN7@wndMgrAppe:

; 961  : }

  0001d	6a 00		 push	 0
  0001f	e8 00 00 00 00	 call	 ?Py_BuildException@@YAPAU_object@@PBDZZ ; Py_BuildException
  00024	83 c4 04	 add	 esp, 4
  00027	5e		 pop	 esi
  00028	8b e5		 mov	 esp, ebp
  0002a	5d		 pop	 ebp
  0002b	c3		 ret	 0
$LN2@wndMgrAppe:

; 945  : 		return Py_BuildException();
; 946  : 
; 947  : 	char * szUpImageName;
; 948  : 	if (!PyTuple_GetString(poArgs, 1, &szUpImageName))

  0002c	8d 45 f4	 lea	 eax, DWORD PTR _szUpImageName$[ebp]
  0002f	50		 push	 eax
  00030	6a 01		 push	 1
  00032	56		 push	 esi
  00033	e8 00 00 00 00	 call	 ?PyTuple_GetString@@YA_NPAU_object@@HPAPAD@Z ; PyTuple_GetString
  00038	83 c4 0c	 add	 esp, 12			; 0000000cH
  0003b	84 c0		 test	 al, al
  0003d	74 de		 je	 SHORT $LN7@wndMgrAppe

; 949  : 		return Py_BuildException();
; 950  : 	char * szOverImageName;
; 951  : 	if (!PyTuple_GetString(poArgs, 2, &szOverImageName))

  0003f	8d 45 f8	 lea	 eax, DWORD PTR _szOverImageName$[ebp]
  00042	50		 push	 eax
  00043	6a 02		 push	 2
  00045	56		 push	 esi
  00046	e8 00 00 00 00	 call	 ?PyTuple_GetString@@YA_NPAU_object@@HPAPAD@Z ; PyTuple_GetString
  0004b	83 c4 0c	 add	 esp, 12			; 0000000cH
  0004e	84 c0		 test	 al, al
  00050	74 cb		 je	 SHORT $LN7@wndMgrAppe

; 952  : 		return Py_BuildException();
; 953  : 	char * szDownImageName;
; 954  : 	if (!PyTuple_GetString(poArgs, 3, &szDownImageName))

  00052	8d 45 fc	 lea	 eax, DWORD PTR _szDownImageName$[ebp]
  00055	50		 push	 eax
  00056	6a 03		 push	 3
  00058	56		 push	 esi
  00059	e8 00 00 00 00	 call	 ?PyTuple_GetString@@YA_NPAU_object@@HPAPAD@Z ; PyTuple_GetString
  0005e	83 c4 0c	 add	 esp, 12			; 0000000cH
  00061	84 c0		 test	 al, al
  00063	74 b8		 je	 SHORT $LN7@wndMgrAppe

; 955  : 		return Py_BuildException();
; 956  : 
; 957  : 	UI::CSlotWindow * pSlotWin = (UI::CSlotWindow *)pWindow;
; 958  : 	pSlotWin->AppendSlotButton(szUpImageName, szOverImageName, szDownImageName);

  00065	ff 75 fc	 push	 DWORD PTR _szDownImageName$[ebp]
  00068	8b 4d f0	 mov	 ecx, DWORD PTR _pWindow$[ebp]
  0006b	ff 75 f8	 push	 DWORD PTR _szOverImageName$[ebp]
  0006e	ff 75 f4	 push	 DWORD PTR _szUpImageName$[ebp]
  00071	e8 00 00 00 00	 call	 ?AppendSlotButton@CSlotWindow@UI@@QAEXPBD00@Z ; UI::CSlotWindow::AppendSlotButton

; 959  : 
; 960  : 	return Py_BuildNone();

  00076	e8 00 00 00 00	 call	 ?Py_BuildNone@@YAPAU_object@@XZ ; Py_BuildNone
  0007b	5e		 pop	 esi

; 961  : }

  0007c	8b e5		 mov	 esp, ebp
  0007e	5d		 pop	 ebp
  0007f	c3		 ret	 0
?wndMgrAppendSlotButton@@YAPAU_object@@PAU1@0@Z ENDP	; wndMgrAppendSlotButton
_TEXT	ENDS
; Function compile flags: /Ogtp
; File C:\DS Project\DS Files\Source\ClientSource\Client\eterPythonLib\PythonWindowManagerModule.cpp
;	COMDAT ?wndMgrSetAlwaysRenderCoverButton@@YAPAU_object@@PAU1@0@Z
_TEXT	SEGMENT
_pWindow$ = -12						; size = 4
_iSlotIndex$ = -8					; size = 4
_bAlwaysRender$ = -4					; size = 1
_poSelf$ = 8						; size = 4
_poArgs$ = 12						; size = 4
?wndMgrSetAlwaysRenderCoverButton@@YAPAU_object@@PAU1@0@Z PROC ; wndMgrSetAlwaysRenderCoverButton, COMDAT

; 921  : {

  00000	55		 push	 ebp
  00001	8b ec		 mov	 ebp, esp
  00003	83 ec 0c	 sub	 esp, 12			; 0000000cH

; 922  : 	UI::CWindow * pWindow;
; 923  : 	if (!PyTuple_GetWindow(poArgs, 0, &pWindow))

  00006	8d 45 f4	 lea	 eax, DWORD PTR _pWindow$[ebp]
  00009	56		 push	 esi
  0000a	8b 75 0c	 mov	 esi, DWORD PTR _poArgs$[ebp]
  0000d	50		 push	 eax
  0000e	6a 00		 push	 0
  00010	56		 push	 esi
  00011	e8 00 00 00 00	 call	 ?PyTuple_GetWindow@@YA_NPAU_object@@HPAPAVCWindow@UI@@@Z ; PyTuple_GetWindow
  00016	83 c4 0c	 add	 esp, 12			; 0000000cH
  00019	84 c0		 test	 al, al
  0001b	75 0f		 jne	 SHORT $LN2@wndMgrSetA
$LN6@wndMgrSetA:

; 939  : }

  0001d	6a 00		 push	 0
  0001f	e8 00 00 00 00	 call	 ?Py_BuildException@@YAPAU_object@@PBDZZ ; Py_BuildException
  00024	83 c4 04	 add	 esp, 4
  00027	5e		 pop	 esi
  00028	8b e5		 mov	 esp, ebp
  0002a	5d		 pop	 ebp
  0002b	c3		 ret	 0
$LN2@wndMgrSetA:

; 924  : 		return Py_BuildException();
; 925  : 
; 926  : 	int iSlotIndex;
; 927  : 	bool bAlwaysRender = false;
; 928  : 
; 929  : 	if (!PyTuple_GetInteger(poArgs, 1, &iSlotIndex))

  0002c	8d 45 f8	 lea	 eax, DWORD PTR _iSlotIndex$[ebp]
  0002f	c6 45 fc 00	 mov	 BYTE PTR _bAlwaysRender$[ebp], 0
  00033	50		 push	 eax
  00034	6a 01		 push	 1
  00036	56		 push	 esi
  00037	e8 00 00 00 00	 call	 ?PyTuple_GetInteger@@YA_NPAU_object@@HPAH@Z ; PyTuple_GetInteger
  0003c	83 c4 0c	 add	 esp, 12			; 0000000cH
  0003f	84 c0		 test	 al, al
  00041	74 da		 je	 SHORT $LN6@wndMgrSetA

; 930  : 		return Py_BuildException();
; 931  : 
; 932  : 	if (!PyTuple_GetBoolean(poArgs, 2, &bAlwaysRender))

  00043	8d 45 fc	 lea	 eax, DWORD PTR _bAlwaysRender$[ebp]
  00046	50		 push	 eax
  00047	6a 02		 push	 2
  00049	56		 push	 esi
  0004a	e8 00 00 00 00	 call	 ?PyTuple_GetBoolean@@YA_NPAU_object@@HPA_N@Z ; PyTuple_GetBoolean
  0004f	83 c4 0c	 add	 esp, 12			; 0000000cH
  00052	84 c0		 test	 al, al
  00054	74 c7		 je	 SHORT $LN6@wndMgrSetA

; 933  : 		return Py_BuildException();
; 934  : 
; 935  : 	UI::CSlotWindow * pSlotWin = (UI::CSlotWindow *)pWindow;
; 936  : 	pSlotWin->SetAlwaysRenderCoverButton(iSlotIndex, bAlwaysRender);

  00056	ff 75 fc	 push	 DWORD PTR _bAlwaysRender$[ebp]
  00059	8b 4d f4	 mov	 ecx, DWORD PTR _pWindow$[ebp]
  0005c	ff 75 f8	 push	 DWORD PTR _iSlotIndex$[ebp]
  0005f	e8 00 00 00 00	 call	 ?SetAlwaysRenderCoverButton@CSlotWindow@UI@@QAEXK_N@Z ; UI::CSlotWindow::SetAlwaysRenderCoverButton

; 937  : 
; 938  : 	return Py_BuildNone();

  00064	e8 00 00 00 00	 call	 ?Py_BuildNone@@YAPAU_object@@XZ ; Py_BuildNone
  00069	5e		 pop	 esi

; 939  : }

  0006a	8b e5		 mov	 esp, ebp
  0006c	5d		 pop	 ebp
  0006d	c3		 ret	 0
?wndMgrSetAlwaysRenderCoverButton@@YAPAU_object@@PAU1@0@Z ENDP ; wndMgrSetAlwaysRenderCoverButton
_TEXT	ENDS
; Function compile flags: /Ogtp
; File C:\DS Project\DS Files\Source\ClientSource\Client\eterPythonLib\PythonWindowManagerModule.cpp
;	COMDAT ?wndMgrIsDisableCoverButton@@YAPAU_object@@PAU1@0@Z
_TEXT	SEGMENT
_pWindow$ = -8						; size = 4
_iSlotIndex$ = -4					; size = 4
_poSelf$ = 8						; size = 4
_poArgs$ = 12						; size = 4
?wndMgrIsDisableCoverButton@@YAPAU_object@@PAU1@0@Z PROC ; wndMgrIsDisableCoverButton, COMDAT

; 907  : {

  00000	55		 push	 ebp
  00001	8b ec		 mov	 ebp, esp
  00003	83 ec 08	 sub	 esp, 8

; 908  : 	UI::CWindow * pWindow;
; 909  : 	if (!PyTuple_GetWindow(poArgs, 0, &pWindow))

  00006	8d 45 f8	 lea	 eax, DWORD PTR _pWindow$[ebp]
  00009	50		 push	 eax
  0000a	6a 00		 push	 0
  0000c	ff 75 0c	 push	 DWORD PTR _poArgs$[ebp]
  0000f	e8 00 00 00 00	 call	 ?PyTuple_GetWindow@@YA_NPAU_object@@HPAPAVCWindow@UI@@@Z ; PyTuple_GetWindow
  00014	83 c4 0c	 add	 esp, 12			; 0000000cH
  00017	84 c0		 test	 al, al
  00019	75 0e		 jne	 SHORT $LN2@wndMgrIsDi
$LN5@wndMgrIsDi:

; 918  : }

  0001b	6a 00		 push	 0
  0001d	e8 00 00 00 00	 call	 ?Py_BuildException@@YAPAU_object@@PBDZZ ; Py_BuildException
  00022	83 c4 04	 add	 esp, 4
  00025	8b e5		 mov	 esp, ebp
  00027	5d		 pop	 ebp
  00028	c3		 ret	 0
$LN2@wndMgrIsDi:

; 910  : 		return Py_BuildException();
; 911  : 
; 912  : 	int iSlotIndex;
; 913  : 	if (!PyTuple_GetInteger(poArgs, 1, &iSlotIndex))

  00029	8d 45 fc	 lea	 eax, DWORD PTR _iSlotIndex$[ebp]
  0002c	50		 push	 eax
  0002d	6a 01		 push	 1
  0002f	ff 75 0c	 push	 DWORD PTR _poArgs$[ebp]
  00032	e8 00 00 00 00	 call	 ?PyTuple_GetInteger@@YA_NPAU_object@@HPAH@Z ; PyTuple_GetInteger
  00037	83 c4 0c	 add	 esp, 12			; 0000000cH
  0003a	84 c0		 test	 al, al
  0003c	74 dd		 je	 SHORT $LN5@wndMgrIsDi

; 914  : 		return Py_BuildException();
; 915  : 
; 916  : 	UI::CSlotWindow * pSlotWin = (UI::CSlotWindow *)pWindow;
; 917  : 	return Py_BuildValue("i", pSlotWin->IsDisableCoverButton(iSlotIndex));

  0003e	ff 75 fc	 push	 DWORD PTR _iSlotIndex$[ebp]
  00041	8b 4d f8	 mov	 ecx, DWORD PTR _pWindow$[ebp]
  00044	e8 00 00 00 00	 call	 ?IsDisableCoverButton@CSlotWindow@UI@@QAEHK@Z ; UI::CSlotWindow::IsDisableCoverButton
  00049	50		 push	 eax
  0004a	68 00 00 00 00	 push	 OFFSET ??_C@_01KBJDNOO@i@
  0004f	ff 15 00 00 00
	00		 call	 DWORD PTR __imp__Py_BuildValue
  00055	83 c4 08	 add	 esp, 8

; 918  : }

  00058	8b e5		 mov	 esp, ebp
  0005a	5d		 pop	 ebp
  0005b	c3		 ret	 0
?wndMgrIsDisableCoverButton@@YAPAU_object@@PAU1@0@Z ENDP ; wndMgrIsDisableCoverButton
_TEXT	ENDS
; Function compile flags: /Ogtp
; File C:\DS Project\DS Files\Source\ClientSource\Client\eterPythonLib\PythonWindowManagerModule.cpp
;	COMDAT ?wndMgrDisableCoverButton@@YAPAU_object@@PAU1@0@Z
_TEXT	SEGMENT
_pWindow$ = -8						; size = 4
_iSlotIndex$ = -4					; size = 4
_poSelf$ = 8						; size = 4
_poArgs$ = 12						; size = 4
?wndMgrDisableCoverButton@@YAPAU_object@@PAU1@0@Z PROC	; wndMgrDisableCoverButton, COMDAT

; 891  : {

  00000	55		 push	 ebp
  00001	8b ec		 mov	 ebp, esp
  00003	83 ec 08	 sub	 esp, 8

; 892  : 	UI::CWindow * pWindow;
; 893  : 	if (!PyTuple_GetWindow(poArgs, 0, &pWindow))

  00006	8d 45 f8	 lea	 eax, DWORD PTR _pWindow$[ebp]
  00009	50		 push	 eax
  0000a	6a 00		 push	 0
  0000c	ff 75 0c	 push	 DWORD PTR _poArgs$[ebp]
  0000f	e8 00 00 00 00	 call	 ?PyTuple_GetWindow@@YA_NPAU_object@@HPAPAVCWindow@UI@@@Z ; PyTuple_GetWindow
  00014	83 c4 0c	 add	 esp, 12			; 0000000cH
  00017	84 c0		 test	 al, al
  00019	75 0e		 jne	 SHORT $LN2@wndMgrDisa
$LN5@wndMgrDisa:

; 904  : }

  0001b	6a 00		 push	 0
  0001d	e8 00 00 00 00	 call	 ?Py_BuildException@@YAPAU_object@@PBDZZ ; Py_BuildException
  00022	83 c4 04	 add	 esp, 4
  00025	8b e5		 mov	 esp, ebp
  00027	5d		 pop	 ebp
  00028	c3		 ret	 0
$LN2@wndMgrDisa:

; 894  : 		return Py_BuildException();
; 895  : 
; 896  : 	int iSlotIndex;
; 897  : 	if (!PyTuple_GetInteger(poArgs, 1, &iSlotIndex))

  00029	8d 45 fc	 lea	 eax, DWORD PTR _iSlotIndex$[ebp]
  0002c	50		 push	 eax
  0002d	6a 01		 push	 1
  0002f	ff 75 0c	 push	 DWORD PTR _poArgs$[ebp]
  00032	e8 00 00 00 00	 call	 ?PyTuple_GetInteger@@YA_NPAU_object@@HPAH@Z ; PyTuple_GetInteger
  00037	83 c4 0c	 add	 esp, 12			; 0000000cH
  0003a	84 c0		 test	 al, al
  0003c	74 dd		 je	 SHORT $LN5@wndMgrDisa

; 898  : 		return Py_BuildException();
; 899  : 
; 900  : 	UI::CSlotWindow * pSlotWin = (UI::CSlotWindow *)pWindow;
; 901  : 	pSlotWin->DisableCoverButton(iSlotIndex);

  0003e	ff 75 fc	 push	 DWORD PTR _iSlotIndex$[ebp]
  00041	8b 4d f8	 mov	 ecx, DWORD PTR _pWindow$[ebp]
  00044	e8 00 00 00 00	 call	 ?DisableCoverButton@CSlotWindow@UI@@QAEXK@Z ; UI::CSlotWindow::DisableCoverButton

; 902  : 
; 903  : 	return Py_BuildNone();

  00049	e8 00 00 00 00	 call	 ?Py_BuildNone@@YAPAU_object@@XZ ; Py_BuildNone

; 904  : }

  0004e	8b e5		 mov	 esp, ebp
  00050	5d		 pop	 ebp
  00051	c3		 ret	 0
?wndMgrDisableCoverButton@@YAPAU_object@@PAU1@0@Z ENDP	; wndMgrDisableCoverButton
_TEXT	ENDS
; Function compile flags: /Ogtp
; File C:\DS Project\DS Files\Source\ClientSource\Client\eterPythonLib\PythonWindowManagerModule.cpp
;	COMDAT ?wndMgrEnableCoverButton@@YAPAU_object@@PAU1@0@Z
_TEXT	SEGMENT
_pWindow$ = -8						; size = 4
_iSlotIndex$ = -4					; size = 4
_poSelf$ = 8						; size = 4
_poArgs$ = 12						; size = 4
?wndMgrEnableCoverButton@@YAPAU_object@@PAU1@0@Z PROC	; wndMgrEnableCoverButton, COMDAT

; 875  : {

  00000	55		 push	 ebp
  00001	8b ec		 mov	 ebp, esp
  00003	83 ec 08	 sub	 esp, 8

; 876  : 	UI::CWindow * pWindow;
; 877  : 	if (!PyTuple_GetWindow(poArgs, 0, &pWindow))

  00006	8d 45 f8	 lea	 eax, DWORD PTR _pWindow$[ebp]
  00009	50		 push	 eax
  0000a	6a 00		 push	 0
  0000c	ff 75 0c	 push	 DWORD PTR _poArgs$[ebp]
  0000f	e8 00 00 00 00	 call	 ?PyTuple_GetWindow@@YA_NPAU_object@@HPAPAVCWindow@UI@@@Z ; PyTuple_GetWindow
  00014	83 c4 0c	 add	 esp, 12			; 0000000cH
  00017	84 c0		 test	 al, al
  00019	75 0e		 jne	 SHORT $LN2@wndMgrEnab
$LN5@wndMgrEnab:

; 888  : }

  0001b	6a 00		 push	 0
  0001d	e8 00 00 00 00	 call	 ?Py_BuildException@@YAPAU_object@@PBDZZ ; Py_BuildException
  00022	83 c4 04	 add	 esp, 4
  00025	8b e5		 mov	 esp, ebp
  00027	5d		 pop	 ebp
  00028	c3		 ret	 0
$LN2@wndMgrEnab:

; 878  : 		return Py_BuildException();
; 879  : 
; 880  : 	int iSlotIndex;
; 881  : 	if (!PyTuple_GetInteger(poArgs, 1, &iSlotIndex))

  00029	8d 45 fc	 lea	 eax, DWORD PTR _iSlotIndex$[ebp]
  0002c	50		 push	 eax
  0002d	6a 01		 push	 1
  0002f	ff 75 0c	 push	 DWORD PTR _poArgs$[ebp]
  00032	e8 00 00 00 00	 call	 ?PyTuple_GetInteger@@YA_NPAU_object@@HPAH@Z ; PyTuple_GetInteger
  00037	83 c4 0c	 add	 esp, 12			; 0000000cH
  0003a	84 c0		 test	 al, al
  0003c	74 dd		 je	 SHORT $LN5@wndMgrEnab

; 882  : 		return Py_BuildException();
; 883  : 
; 884  : 	UI::CSlotWindow * pSlotWin = (UI::CSlotWindow *)pWindow;
; 885  : 	pSlotWin->EnableCoverButton(iSlotIndex);

  0003e	ff 75 fc	 push	 DWORD PTR _iSlotIndex$[ebp]
  00041	8b 4d f8	 mov	 ecx, DWORD PTR _pWindow$[ebp]
  00044	e8 00 00 00 00	 call	 ?EnableCoverButton@CSlotWindow@UI@@QAEXK@Z ; UI::CSlotWindow::EnableCoverButton

; 886  : 
; 887  : 	return Py_BuildNone();

  00049	e8 00 00 00 00	 call	 ?Py_BuildNone@@YAPAU_object@@XZ ; Py_BuildNone

; 888  : }

  0004e	8b e5		 mov	 esp, ebp
  00050	5d		 pop	 ebp
  00051	c3		 ret	 0
?wndMgrEnableCoverButton@@YAPAU_object@@PAU1@0@Z ENDP	; wndMgrEnableCoverButton
_TEXT	ENDS
; Function compile flags: /Ogtp
; File C:\DS Project\DS Files\Source\ClientSource\Client\eterPythonLib\PythonWindowManagerModule.cpp
;	COMDAT ?wndMgrSetCoverButton@@YAPAU_object@@PAU1@0@Z
_TEXT	SEGMENT
_pWindow$ = -32						; size = 4
_iSlotIndex$ = -28					; size = 4
_szUpImageName$ = -24					; size = 4
_szOverImageName$ = -20					; size = 4
_szDownImageName$ = -16					; size = 4
_szDisableImageName$ = -12				; size = 4
_iLeftButtonEnable$ = -8				; size = 4
_iRightButtonEnable$ = -4				; size = 4
_poSelf$ = 8						; size = 4
_poArgs$ = 12						; size = 4
?wndMgrSetCoverButton@@YAPAU_object@@PAU1@0@Z PROC	; wndMgrSetCoverButton, COMDAT

; 839  : {

  00000	55		 push	 ebp
  00001	8b ec		 mov	 ebp, esp
  00003	83 ec 20	 sub	 esp, 32			; 00000020H

; 840  : 	UI::CWindow * pWindow;
; 841  : 	if (!PyTuple_GetWindow(poArgs, 0, &pWindow))

  00006	8d 45 e0	 lea	 eax, DWORD PTR _pWindow$[ebp]
  00009	56		 push	 esi
  0000a	8b 75 0c	 mov	 esi, DWORD PTR _poArgs$[ebp]
  0000d	50		 push	 eax
  0000e	6a 00		 push	 0
  00010	56		 push	 esi
  00011	e8 00 00 00 00	 call	 ?PyTuple_GetWindow@@YA_NPAU_object@@HPAPAVCWindow@UI@@@Z ; PyTuple_GetWindow
  00016	83 c4 0c	 add	 esp, 12			; 0000000cH
  00019	84 c0		 test	 al, al
  0001b	75 0f		 jne	 SHORT $LN2@wndMgrSetC
$LN11@wndMgrSetC:

; 872  : }

  0001d	6a 00		 push	 0
  0001f	e8 00 00 00 00	 call	 ?Py_BuildException@@YAPAU_object@@PBDZZ ; Py_BuildException
  00024	83 c4 04	 add	 esp, 4
  00027	5e		 pop	 esi
  00028	8b e5		 mov	 esp, ebp
  0002a	5d		 pop	 ebp
  0002b	c3		 ret	 0
$LN2@wndMgrSetC:

; 842  : 		return Py_BuildException();
; 843  : 
; 844  : 	int iSlotIndex;
; 845  : 	if (!PyTuple_GetInteger(poArgs, 1, &iSlotIndex))

  0002c	8d 45 e4	 lea	 eax, DWORD PTR _iSlotIndex$[ebp]
  0002f	50		 push	 eax
  00030	6a 01		 push	 1
  00032	56		 push	 esi
  00033	e8 00 00 00 00	 call	 ?PyTuple_GetInteger@@YA_NPAU_object@@HPAH@Z ; PyTuple_GetInteger
  00038	83 c4 0c	 add	 esp, 12			; 0000000cH
  0003b	84 c0		 test	 al, al
  0003d	74 de		 je	 SHORT $LN11@wndMgrSetC

; 846  : 		return Py_BuildException();
; 847  : 
; 848  : 	char * szUpImageName;
; 849  : 	if (!PyTuple_GetString(poArgs, 2, &szUpImageName))

  0003f	8d 45 e8	 lea	 eax, DWORD PTR _szUpImageName$[ebp]
  00042	50		 push	 eax
  00043	6a 02		 push	 2
  00045	56		 push	 esi
  00046	e8 00 00 00 00	 call	 ?PyTuple_GetString@@YA_NPAU_object@@HPAPAD@Z ; PyTuple_GetString
  0004b	83 c4 0c	 add	 esp, 12			; 0000000cH
  0004e	84 c0		 test	 al, al
  00050	74 cb		 je	 SHORT $LN11@wndMgrSetC

; 850  : 		return Py_BuildException();
; 851  : 	char * szOverImageName;
; 852  : 	if (!PyTuple_GetString(poArgs, 3, &szOverImageName))

  00052	8d 45 ec	 lea	 eax, DWORD PTR _szOverImageName$[ebp]
  00055	50		 push	 eax
  00056	6a 03		 push	 3
  00058	56		 push	 esi
  00059	e8 00 00 00 00	 call	 ?PyTuple_GetString@@YA_NPAU_object@@HPAPAD@Z ; PyTuple_GetString
  0005e	83 c4 0c	 add	 esp, 12			; 0000000cH
  00061	84 c0		 test	 al, al
  00063	74 b8		 je	 SHORT $LN11@wndMgrSetC

; 853  : 		return Py_BuildException();
; 854  : 	char * szDownImageName;
; 855  : 	if (!PyTuple_GetString(poArgs, 4, &szDownImageName))

  00065	8d 45 f0	 lea	 eax, DWORD PTR _szDownImageName$[ebp]
  00068	50		 push	 eax
  00069	6a 04		 push	 4
  0006b	56		 push	 esi
  0006c	e8 00 00 00 00	 call	 ?PyTuple_GetString@@YA_NPAU_object@@HPAPAD@Z ; PyTuple_GetString
  00071	83 c4 0c	 add	 esp, 12			; 0000000cH
  00074	84 c0		 test	 al, al
  00076	74 a5		 je	 SHORT $LN11@wndMgrSetC

; 856  : 		return Py_BuildException();
; 857  : 	char * szDisableImageName;
; 858  : 	if (!PyTuple_GetString(poArgs, 5, &szDisableImageName))

  00078	8d 45 f4	 lea	 eax, DWORD PTR _szDisableImageName$[ebp]
  0007b	50		 push	 eax
  0007c	6a 05		 push	 5
  0007e	56		 push	 esi
  0007f	e8 00 00 00 00	 call	 ?PyTuple_GetString@@YA_NPAU_object@@HPAPAD@Z ; PyTuple_GetString
  00084	83 c4 0c	 add	 esp, 12			; 0000000cH
  00087	84 c0		 test	 al, al
  00089	74 92		 je	 SHORT $LN11@wndMgrSetC

; 859  : 		return Py_BuildException();
; 860  : 
; 861  : 	int iLeftButtonEnable;
; 862  : 	if (!PyTuple_GetInteger(poArgs, 6, &iLeftButtonEnable))

  0008b	8d 45 f8	 lea	 eax, DWORD PTR _iLeftButtonEnable$[ebp]
  0008e	50		 push	 eax
  0008f	6a 06		 push	 6
  00091	56		 push	 esi
  00092	e8 00 00 00 00	 call	 ?PyTuple_GetInteger@@YA_NPAU_object@@HPAH@Z ; PyTuple_GetInteger
  00097	83 c4 0c	 add	 esp, 12			; 0000000cH
  0009a	84 c0		 test	 al, al
  0009c	0f 84 7b ff ff
	ff		 je	 $LN11@wndMgrSetC

; 863  : 		return Py_BuildException();
; 864  : 	int iRightButtonEnable;
; 865  : 	if (!PyTuple_GetInteger(poArgs, 7, &iRightButtonEnable))

  000a2	8d 45 fc	 lea	 eax, DWORD PTR _iRightButtonEnable$[ebp]
  000a5	50		 push	 eax
  000a6	6a 07		 push	 7
  000a8	56		 push	 esi
  000a9	e8 00 00 00 00	 call	 ?PyTuple_GetInteger@@YA_NPAU_object@@HPAH@Z ; PyTuple_GetInteger
  000ae	83 c4 0c	 add	 esp, 12			; 0000000cH
  000b1	84 c0		 test	 al, al
  000b3	0f 84 64 ff ff
	ff		 je	 $LN11@wndMgrSetC

; 866  : 		return Py_BuildException();
; 867  : 
; 868  : 	UI::CSlotWindow * pSlotWin = (UI::CSlotWindow *)pWindow;
; 869  : 	pSlotWin->SetCoverButton(iSlotIndex, szUpImageName, szOverImageName, szDownImageName, szDisableImageName, iLeftButtonEnable, iRightButtonEnable);

  000b9	ff 75 fc	 push	 DWORD PTR _iRightButtonEnable$[ebp]
  000bc	8b 4d e0	 mov	 ecx, DWORD PTR _pWindow$[ebp]
  000bf	ff 75 f8	 push	 DWORD PTR _iLeftButtonEnable$[ebp]
  000c2	ff 75 f4	 push	 DWORD PTR _szDisableImageName$[ebp]
  000c5	ff 75 f0	 push	 DWORD PTR _szDownImageName$[ebp]
  000c8	ff 75 ec	 push	 DWORD PTR _szOverImageName$[ebp]
  000cb	ff 75 e8	 push	 DWORD PTR _szUpImageName$[ebp]
  000ce	ff 75 e4	 push	 DWORD PTR _iSlotIndex$[ebp]
  000d1	e8 00 00 00 00	 call	 ?SetCoverButton@CSlotWindow@UI@@QAEXKPBD000HH@Z ; UI::CSlotWindow::SetCoverButton

; 870  : 
; 871  : 	return Py_BuildNone();

  000d6	e8 00 00 00 00	 call	 ?Py_BuildNone@@YAPAU_object@@XZ ; Py_BuildNone
  000db	5e		 pop	 esi

; 872  : }

  000dc	8b e5		 mov	 esp, ebp
  000de	5d		 pop	 ebp
  000df	c3		 ret	 0
?wndMgrSetCoverButton@@YAPAU_object@@PAU1@0@Z ENDP	; wndMgrSetCoverButton
_TEXT	ENDS
; Function compile flags: /Ogtp
; File C:\DS Project\DS Files\Source\ClientSource\Client\eterPythonLib\PythonWindowManagerModule.cpp
;	COMDAT ?wndMgrSetSlotBaseImage@@YAPAU_object@@PAU1@0@Z
_TEXT	SEGMENT
_szFileName$ = -24					; size = 4
_fr$ = -20						; size = 4
_fg$ = -16						; size = 4
_fb$ = -12						; size = 4
_fa$ = -8						; size = 4
_pWin$ = -4						; size = 4
_poSelf$ = 8						; size = 4
_poArgs$ = 12						; size = 4
?wndMgrSetSlotBaseImage@@YAPAU_object@@PAU1@0@Z PROC	; wndMgrSetSlotBaseImage, COMDAT

; 804  : {

  00000	55		 push	 ebp
  00001	8b ec		 mov	 ebp, esp
  00003	83 ec 18	 sub	 esp, 24			; 00000018H

; 805  : 	UI::CWindow * pWin;
; 806  : 	if (!PyTuple_GetWindow(poArgs, 0, &pWin))

  00006	8d 45 fc	 lea	 eax, DWORD PTR _pWin$[ebp]
  00009	56		 push	 esi
  0000a	8b 75 0c	 mov	 esi, DWORD PTR _poArgs$[ebp]
  0000d	50		 push	 eax
  0000e	6a 00		 push	 0
  00010	56		 push	 esi
  00011	e8 00 00 00 00	 call	 ?PyTuple_GetWindow@@YA_NPAU_object@@HPAPAVCWindow@UI@@@Z ; PyTuple_GetWindow
  00016	83 c4 0c	 add	 esp, 12			; 0000000cH
  00019	84 c0		 test	 al, al
  0001b	75 0f		 jne	 SHORT $LN2@wndMgrSetS
$LN10@wndMgrSetS:

; 836  : }

  0001d	6a 00		 push	 0
  0001f	e8 00 00 00 00	 call	 ?Py_BuildException@@YAPAU_object@@PBDZZ ; Py_BuildException
  00024	83 c4 04	 add	 esp, 4
  00027	5e		 pop	 esi
  00028	8b e5		 mov	 esp, ebp
  0002a	5d		 pop	 ebp
  0002b	c3		 ret	 0
$LN2@wndMgrSetS:

; 807  : 		return Py_BuildException();
; 808  : 
; 809  : 	char * szFileName;
; 810  : 	if (!PyTuple_GetString(poArgs, 1, &szFileName))

  0002c	8d 45 e8	 lea	 eax, DWORD PTR _szFileName$[ebp]
  0002f	50		 push	 eax
  00030	6a 01		 push	 1
  00032	56		 push	 esi
  00033	e8 00 00 00 00	 call	 ?PyTuple_GetString@@YA_NPAU_object@@HPAPAD@Z ; PyTuple_GetString
  00038	83 c4 0c	 add	 esp, 12			; 0000000cH
  0003b	84 c0		 test	 al, al
  0003d	74 de		 je	 SHORT $LN10@wndMgrSetS

; 811  : 		return Py_BuildException();
; 812  : 
; 813  : 	float fr;
; 814  : 	if (!PyTuple_GetFloat(poArgs, 2, &fr))

  0003f	8d 45 ec	 lea	 eax, DWORD PTR _fr$[ebp]
  00042	50		 push	 eax
  00043	6a 02		 push	 2
  00045	56		 push	 esi
  00046	e8 00 00 00 00	 call	 ?PyTuple_GetFloat@@YA_NPAU_object@@HPAM@Z ; PyTuple_GetFloat
  0004b	83 c4 0c	 add	 esp, 12			; 0000000cH
  0004e	84 c0		 test	 al, al
  00050	74 cb		 je	 SHORT $LN10@wndMgrSetS

; 815  : 		return Py_BuildException();
; 816  : 	float fg;
; 817  : 	if (!PyTuple_GetFloat(poArgs, 3, &fg))

  00052	8d 45 f0	 lea	 eax, DWORD PTR _fg$[ebp]
  00055	50		 push	 eax
  00056	6a 03		 push	 3
  00058	56		 push	 esi
  00059	e8 00 00 00 00	 call	 ?PyTuple_GetFloat@@YA_NPAU_object@@HPAM@Z ; PyTuple_GetFloat
  0005e	83 c4 0c	 add	 esp, 12			; 0000000cH
  00061	84 c0		 test	 al, al
  00063	74 b8		 je	 SHORT $LN10@wndMgrSetS

; 818  : 		return Py_BuildException();
; 819  : 	float fb;
; 820  : 	if (!PyTuple_GetFloat(poArgs, 4, &fb))

  00065	8d 45 f4	 lea	 eax, DWORD PTR _fb$[ebp]
  00068	50		 push	 eax
  00069	6a 04		 push	 4
  0006b	56		 push	 esi
  0006c	e8 00 00 00 00	 call	 ?PyTuple_GetFloat@@YA_NPAU_object@@HPAM@Z ; PyTuple_GetFloat
  00071	83 c4 0c	 add	 esp, 12			; 0000000cH
  00074	84 c0		 test	 al, al
  00076	74 a5		 je	 SHORT $LN10@wndMgrSetS

; 821  : 		return Py_BuildException();
; 822  : 	float fa;
; 823  : 	if (!PyTuple_GetFloat(poArgs, 5, &fa))

  00078	8d 45 f8	 lea	 eax, DWORD PTR _fa$[ebp]
  0007b	50		 push	 eax
  0007c	6a 05		 push	 5
  0007e	56		 push	 esi
  0007f	e8 00 00 00 00	 call	 ?PyTuple_GetFloat@@YA_NPAU_object@@HPAM@Z ; PyTuple_GetFloat
  00084	83 c4 0c	 add	 esp, 12			; 0000000cH
  00087	84 c0		 test	 al, al
  00089	74 92		 je	 SHORT $LN10@wndMgrSetS

; 824  : 		return Py_BuildException();
; 825  : 
; 826  : 	if (!pWin->IsType(UI::CSlotWindow::Type()))

  0008b	e8 00 00 00 00	 call	 ?Type@CSlotWindow@UI@@SAKXZ ; UI::CSlotWindow::Type
  00090	8b 75 fc	 mov	 esi, DWORD PTR _pWin$[ebp]
  00093	8b ce		 mov	 ecx, esi
  00095	50		 push	 eax
  00096	e8 00 00 00 00	 call	 ?IsType@CWindow@UI@@QAEHK@Z ; UI::CWindow::IsType
  0009b	85 c0		 test	 eax, eax
  0009d	75 19		 jne	 SHORT $LN8@wndMgrSetS

; 827  : 	{
; 828  : 		TraceError("wndMgr.ArrangeSlot : not a slot window");

  0009f	68 00 00 00 00	 push	 OFFSET ??_C@_0CH@HCFLPGH@wndMgr?4ArrangeSlot?5?3?5not?5a?5slot@
  000a4	e8 00 00 00 00	 call	 ?TraceError@@YAXPBDZZ	; TraceError

; 829  : 		return Py_BuildException();

  000a9	6a 00		 push	 0
  000ab	e8 00 00 00 00	 call	 ?Py_BuildException@@YAPAU_object@@PBDZZ ; Py_BuildException
  000b0	83 c4 08	 add	 esp, 8
  000b3	5e		 pop	 esi

; 836  : }

  000b4	8b e5		 mov	 esp, ebp
  000b6	5d		 pop	 ebp
  000b7	c3		 ret	 0
$LN8@wndMgrSetS:

; 830  : 	}
; 831  : 
; 832  : 	UI::CSlotWindow * pSlotWin = (UI::CSlotWindow *)pWin;
; 833  : 	pSlotWin->SetSlotBaseImage(szFileName, fr, fg, fb, fa);

  000b8	f3 0f 10 45 f8	 movss	 xmm0, DWORD PTR _fa$[ebp]
  000bd	83 ec 10	 sub	 esp, 16			; 00000010H
  000c0	8b ce		 mov	 ecx, esi
  000c2	f3 0f 11 44 24
	0c		 movss	 DWORD PTR [esp+12], xmm0
  000c8	f3 0f 10 45 f4	 movss	 xmm0, DWORD PTR _fb$[ebp]
  000cd	f3 0f 11 44 24
	08		 movss	 DWORD PTR [esp+8], xmm0
  000d3	f3 0f 10 45 f0	 movss	 xmm0, DWORD PTR _fg$[ebp]
  000d8	f3 0f 11 44 24
	04		 movss	 DWORD PTR [esp+4], xmm0
  000de	f3 0f 10 45 ec	 movss	 xmm0, DWORD PTR _fr$[ebp]
  000e3	f3 0f 11 04 24	 movss	 DWORD PTR [esp], xmm0
  000e8	ff 75 e8	 push	 DWORD PTR _szFileName$[ebp]
  000eb	e8 00 00 00 00	 call	 ?SetSlotBaseImage@CSlotWindow@UI@@QAEXPBDMMMM@Z ; UI::CSlotWindow::SetSlotBaseImage

; 834  : 
; 835  : 	return Py_BuildNone();

  000f0	e8 00 00 00 00	 call	 ?Py_BuildNone@@YAPAU_object@@XZ ; Py_BuildNone
  000f5	5e		 pop	 esi

; 836  : }

  000f6	8b e5		 mov	 esp, ebp
  000f8	5d		 pop	 ebp
  000f9	c3		 ret	 0
?wndMgrSetSlotBaseImage@@YAPAU_object@@PAU1@0@Z ENDP	; wndMgrSetSlotBaseImage
_TEXT	ENDS
; Function compile flags: /Ogtp
; File C:\DS Project\DS Files\Source\ClientSource\Client\eterPythonLib\PythonWindowManagerModule.cpp
;	COMDAT ?wndMgrArrangeSlot@@YAPAU_object@@PAU1@0@Z
_TEXT	SEGMENT
_iStartIndex$ = -32					; size = 4
_ixCellCount$ = -28					; size = 4
_iyCellCount$ = -24					; size = 4
_ixCellSize$ = -20					; size = 4
_iyCellSize$ = -16					; size = 4
_ixBlank$ = -12						; size = 4
_iyBlank$ = -8						; size = 4
_pWin$ = -4						; size = 4
_poSelf$ = 8						; size = 4
_poArgs$ = 12						; size = 4
?wndMgrArrangeSlot@@YAPAU_object@@PAU1@0@Z PROC		; wndMgrArrangeSlot, COMDAT

; 758  : {

  00000	55		 push	 ebp
  00001	8b ec		 mov	 ebp, esp
  00003	83 ec 20	 sub	 esp, 32			; 00000020H

; 759  : 	UI::CWindow * pWin;
; 760  : 	if (!PyTuple_GetWindow(poArgs, 0, &pWin))

  00006	8d 45 fc	 lea	 eax, DWORD PTR _pWin$[ebp]
  00009	56		 push	 esi
  0000a	8b 75 0c	 mov	 esi, DWORD PTR _poArgs$[ebp]
  0000d	50		 push	 eax
  0000e	6a 00		 push	 0
  00010	56		 push	 esi
  00011	e8 00 00 00 00	 call	 ?PyTuple_GetWindow@@YA_NPAU_object@@HPAPAVCWindow@UI@@@Z ; PyTuple_GetWindow
  00016	83 c4 0c	 add	 esp, 12			; 0000000cH
  00019	84 c0		 test	 al, al
  0001b	75 0f		 jne	 SHORT $LN2@wndMgrArra
$LN12@wndMgrArra:

; 801  : }

  0001d	6a 00		 push	 0
  0001f	e8 00 00 00 00	 call	 ?Py_BuildException@@YAPAU_object@@PBDZZ ; Py_BuildException
  00024	83 c4 04	 add	 esp, 4
  00027	5e		 pop	 esi
  00028	8b e5		 mov	 esp, ebp
  0002a	5d		 pop	 ebp
  0002b	c3		 ret	 0
$LN2@wndMgrArra:

; 761  : 		return Py_BuildException();
; 762  : 
; 763  : 	int iStartIndex;
; 764  : 	if (!PyTuple_GetInteger(poArgs, 1, &iStartIndex))

  0002c	8d 45 e0	 lea	 eax, DWORD PTR _iStartIndex$[ebp]
  0002f	50		 push	 eax
  00030	6a 01		 push	 1
  00032	56		 push	 esi
  00033	e8 00 00 00 00	 call	 ?PyTuple_GetInteger@@YA_NPAU_object@@HPAH@Z ; PyTuple_GetInteger
  00038	83 c4 0c	 add	 esp, 12			; 0000000cH
  0003b	84 c0		 test	 al, al
  0003d	74 de		 je	 SHORT $LN12@wndMgrArra

; 765  : 		return Py_BuildException();
; 766  : 
; 767  : 	int ixCellCount;
; 768  : 	if (!PyTuple_GetInteger(poArgs, 2, &ixCellCount))

  0003f	8d 45 e4	 lea	 eax, DWORD PTR _ixCellCount$[ebp]
  00042	50		 push	 eax
  00043	6a 02		 push	 2
  00045	56		 push	 esi
  00046	e8 00 00 00 00	 call	 ?PyTuple_GetInteger@@YA_NPAU_object@@HPAH@Z ; PyTuple_GetInteger
  0004b	83 c4 0c	 add	 esp, 12			; 0000000cH
  0004e	84 c0		 test	 al, al
  00050	74 cb		 je	 SHORT $LN12@wndMgrArra

; 769  : 		return Py_BuildException();
; 770  : 
; 771  : 	int iyCellCount;
; 772  : 	if (!PyTuple_GetInteger(poArgs, 3, &iyCellCount))

  00052	8d 45 e8	 lea	 eax, DWORD PTR _iyCellCount$[ebp]
  00055	50		 push	 eax
  00056	6a 03		 push	 3
  00058	56		 push	 esi
  00059	e8 00 00 00 00	 call	 ?PyTuple_GetInteger@@YA_NPAU_object@@HPAH@Z ; PyTuple_GetInteger
  0005e	83 c4 0c	 add	 esp, 12			; 0000000cH
  00061	84 c0		 test	 al, al
  00063	74 b8		 je	 SHORT $LN12@wndMgrArra

; 773  : 		return Py_BuildException();
; 774  : 
; 775  : 	int ixCellSize;
; 776  : 	if (!PyTuple_GetInteger(poArgs, 4, &ixCellSize))

  00065	8d 45 ec	 lea	 eax, DWORD PTR _ixCellSize$[ebp]
  00068	50		 push	 eax
  00069	6a 04		 push	 4
  0006b	56		 push	 esi
  0006c	e8 00 00 00 00	 call	 ?PyTuple_GetInteger@@YA_NPAU_object@@HPAH@Z ; PyTuple_GetInteger
  00071	83 c4 0c	 add	 esp, 12			; 0000000cH
  00074	84 c0		 test	 al, al
  00076	74 a5		 je	 SHORT $LN12@wndMgrArra

; 777  : 		return Py_BuildException();
; 778  : 
; 779  : 	int iyCellSize;
; 780  : 	if (!PyTuple_GetInteger(poArgs, 5, &iyCellSize))

  00078	8d 45 f0	 lea	 eax, DWORD PTR _iyCellSize$[ebp]
  0007b	50		 push	 eax
  0007c	6a 05		 push	 5
  0007e	56		 push	 esi
  0007f	e8 00 00 00 00	 call	 ?PyTuple_GetInteger@@YA_NPAU_object@@HPAH@Z ; PyTuple_GetInteger
  00084	83 c4 0c	 add	 esp, 12			; 0000000cH
  00087	84 c0		 test	 al, al
  00089	74 92		 je	 SHORT $LN12@wndMgrArra

; 781  : 		return Py_BuildException();
; 782  : 
; 783  : 	int ixBlank;
; 784  : 	if (!PyTuple_GetInteger(poArgs, 6, &ixBlank))

  0008b	8d 45 f4	 lea	 eax, DWORD PTR _ixBlank$[ebp]
  0008e	50		 push	 eax
  0008f	6a 06		 push	 6
  00091	56		 push	 esi
  00092	e8 00 00 00 00	 call	 ?PyTuple_GetInteger@@YA_NPAU_object@@HPAH@Z ; PyTuple_GetInteger
  00097	83 c4 0c	 add	 esp, 12			; 0000000cH
  0009a	84 c0		 test	 al, al
  0009c	0f 84 7b ff ff
	ff		 je	 $LN12@wndMgrArra

; 785  : 		return Py_BuildException();
; 786  : 
; 787  : 	int iyBlank;
; 788  : 	if (!PyTuple_GetInteger(poArgs, 7, &iyBlank))

  000a2	8d 45 f8	 lea	 eax, DWORD PTR _iyBlank$[ebp]
  000a5	50		 push	 eax
  000a6	6a 07		 push	 7
  000a8	56		 push	 esi
  000a9	e8 00 00 00 00	 call	 ?PyTuple_GetInteger@@YA_NPAU_object@@HPAH@Z ; PyTuple_GetInteger
  000ae	83 c4 0c	 add	 esp, 12			; 0000000cH
  000b1	84 c0		 test	 al, al
  000b3	0f 84 64 ff ff
	ff		 je	 $LN12@wndMgrArra

; 789  : 		return Py_BuildException();
; 790  : 
; 791  : 	if (!pWin->IsType(UI::CGridSlotWindow::Type()))

  000b9	e8 00 00 00 00	 call	 ?Type@CGridSlotWindow@UI@@SAKXZ ; UI::CGridSlotWindow::Type
  000be	8b 75 fc	 mov	 esi, DWORD PTR _pWin$[ebp]
  000c1	8b ce		 mov	 ecx, esi
  000c3	50		 push	 eax
  000c4	e8 00 00 00 00	 call	 ?IsType@CWindow@UI@@QAEHK@Z ; UI::CWindow::IsType
  000c9	85 c0		 test	 eax, eax
  000cb	75 19		 jne	 SHORT $LN10@wndMgrArra

; 792  : 	{
; 793  : 		TraceError("wndMgr.ArrangeSlot : not a grid window");

  000cd	68 00 00 00 00	 push	 OFFSET ??_C@_0CH@FFGFLEBP@wndMgr?4ArrangeSlot?5?3?5not?5a?5grid@
  000d2	e8 00 00 00 00	 call	 ?TraceError@@YAXPBDZZ	; TraceError

; 794  : 		return Py_BuildException();

  000d7	6a 00		 push	 0
  000d9	e8 00 00 00 00	 call	 ?Py_BuildException@@YAPAU_object@@PBDZZ ; Py_BuildException
  000de	83 c4 08	 add	 esp, 8
  000e1	5e		 pop	 esi

; 801  : }

  000e2	8b e5		 mov	 esp, ebp
  000e4	5d		 pop	 ebp
  000e5	c3		 ret	 0
$LN10@wndMgrArra:

; 795  : 	}
; 796  : 
; 797  : 	UI::CGridSlotWindow * pGridSlotWin = (UI::CGridSlotWindow *)pWin;
; 798  : 	pGridSlotWin->ArrangeGridSlot(iStartIndex, ixCellCount, iyCellCount, ixCellSize, iyCellSize, ixBlank, iyBlank);

  000e6	ff 75 f8	 push	 DWORD PTR _iyBlank$[ebp]
  000e9	8b ce		 mov	 ecx, esi
  000eb	ff 75 f4	 push	 DWORD PTR _ixBlank$[ebp]
  000ee	ff 75 f0	 push	 DWORD PTR _iyCellSize$[ebp]
  000f1	ff 75 ec	 push	 DWORD PTR _ixCellSize$[ebp]
  000f4	ff 75 e8	 push	 DWORD PTR _iyCellCount$[ebp]
  000f7	ff 75 e4	 push	 DWORD PTR _ixCellCount$[ebp]
  000fa	ff 75 e0	 push	 DWORD PTR _iStartIndex$[ebp]
  000fd	e8 00 00 00 00	 call	 ?ArrangeGridSlot@CGridSlotWindow@UI@@QAEXKKKHHHH@Z ; UI::CGridSlotWindow::ArrangeGridSlot

; 799  : 
; 800  : 	return Py_BuildNone();

  00102	e8 00 00 00 00	 call	 ?Py_BuildNone@@YAPAU_object@@XZ ; Py_BuildNone
  00107	5e		 pop	 esi

; 801  : }

  00108	8b e5		 mov	 esp, ebp
  0010a	5d		 pop	 ebp
  0010b	c3		 ret	 0
?wndMgrArrangeSlot@@YAPAU_object@@PAU1@0@Z ENDP		; wndMgrArrangeSlot
_TEXT	ENDS
; Function compile flags: /Ogtp
; File C:\DS Project\DS Files\Source\ClientSource\Client\eterPythonLib\PythonWindowManagerModule.cpp
;	COMDAT ?wndMgrAppendSlot@@YAPAU_object@@PAU1@0@Z
_TEXT	SEGMENT
_iIndex$ = -24						; size = 4
_ixPosition$ = -20					; size = 4
_iyPosition$ = -16					; size = 4
_ixCellSize$ = -12					; size = 4
_iyCellSize$ = -8					; size = 4
_pWin$ = -4						; size = 4
_poSelf$ = 8						; size = 4
_poArgs$ = 12						; size = 4
?wndMgrAppendSlot@@YAPAU_object@@PAU1@0@Z PROC		; wndMgrAppendSlot, COMDAT

; 723  : {

  00000	55		 push	 ebp
  00001	8b ec		 mov	 ebp, esp
  00003	83 ec 18	 sub	 esp, 24			; 00000018H

; 724  : 	UI::CWindow * pWin;
; 725  : 	if (!PyTuple_GetWindow(poArgs, 0, &pWin))

  00006	8d 45 fc	 lea	 eax, DWORD PTR _pWin$[ebp]
  00009	56		 push	 esi
  0000a	8b 75 0c	 mov	 esi, DWORD PTR _poArgs$[ebp]
  0000d	50		 push	 eax
  0000e	6a 00		 push	 0
  00010	56		 push	 esi
  00011	e8 00 00 00 00	 call	 ?PyTuple_GetWindow@@YA_NPAU_object@@HPAPAVCWindow@UI@@@Z ; PyTuple_GetWindow
  00016	83 c4 0c	 add	 esp, 12			; 0000000cH
  00019	84 c0		 test	 al, al
  0001b	75 0f		 jne	 SHORT $LN2@wndMgrAppe
$LN10@wndMgrAppe:

; 755  : }

  0001d	6a 00		 push	 0
  0001f	e8 00 00 00 00	 call	 ?Py_BuildException@@YAPAU_object@@PBDZZ ; Py_BuildException
  00024	83 c4 04	 add	 esp, 4
  00027	5e		 pop	 esi
  00028	8b e5		 mov	 esp, ebp
  0002a	5d		 pop	 ebp
  0002b	c3		 ret	 0
$LN2@wndMgrAppe:

; 726  : 		return Py_BuildException();
; 727  : 
; 728  : 	int iIndex;
; 729  : 	if (!PyTuple_GetInteger(poArgs, 1, &iIndex))

  0002c	8d 45 e8	 lea	 eax, DWORD PTR _iIndex$[ebp]
  0002f	50		 push	 eax
  00030	6a 01		 push	 1
  00032	56		 push	 esi
  00033	e8 00 00 00 00	 call	 ?PyTuple_GetInteger@@YA_NPAU_object@@HPAH@Z ; PyTuple_GetInteger
  00038	83 c4 0c	 add	 esp, 12			; 0000000cH
  0003b	84 c0		 test	 al, al
  0003d	74 de		 je	 SHORT $LN10@wndMgrAppe

; 730  : 		return Py_BuildException();
; 731  : 
; 732  : 	int ixPosition;
; 733  : 	if (!PyTuple_GetInteger(poArgs, 2, &ixPosition))

  0003f	8d 45 ec	 lea	 eax, DWORD PTR _ixPosition$[ebp]
  00042	50		 push	 eax
  00043	6a 02		 push	 2
  00045	56		 push	 esi
  00046	e8 00 00 00 00	 call	 ?PyTuple_GetInteger@@YA_NPAU_object@@HPAH@Z ; PyTuple_GetInteger
  0004b	83 c4 0c	 add	 esp, 12			; 0000000cH
  0004e	84 c0		 test	 al, al
  00050	74 cb		 je	 SHORT $LN10@wndMgrAppe

; 734  : 		return Py_BuildException();
; 735  : 
; 736  : 	int iyPosition;
; 737  : 	if (!PyTuple_GetInteger(poArgs, 3, &iyPosition))

  00052	8d 45 f0	 lea	 eax, DWORD PTR _iyPosition$[ebp]
  00055	50		 push	 eax
  00056	6a 03		 push	 3
  00058	56		 push	 esi
  00059	e8 00 00 00 00	 call	 ?PyTuple_GetInteger@@YA_NPAU_object@@HPAH@Z ; PyTuple_GetInteger
  0005e	83 c4 0c	 add	 esp, 12			; 0000000cH
  00061	84 c0		 test	 al, al
  00063	74 b8		 je	 SHORT $LN10@wndMgrAppe

; 738  : 		return Py_BuildException();
; 739  : 
; 740  : 	int ixCellSize;
; 741  : 	if (!PyTuple_GetInteger(poArgs, 4, &ixCellSize))

  00065	8d 45 f4	 lea	 eax, DWORD PTR _ixCellSize$[ebp]
  00068	50		 push	 eax
  00069	6a 04		 push	 4
  0006b	56		 push	 esi
  0006c	e8 00 00 00 00	 call	 ?PyTuple_GetInteger@@YA_NPAU_object@@HPAH@Z ; PyTuple_GetInteger
  00071	83 c4 0c	 add	 esp, 12			; 0000000cH
  00074	84 c0		 test	 al, al
  00076	74 a5		 je	 SHORT $LN10@wndMgrAppe

; 742  : 		return Py_BuildException();
; 743  : 
; 744  : 	int iyCellSize;
; 745  : 	if (!PyTuple_GetInteger(poArgs, 5, &iyCellSize))

  00078	8d 45 f8	 lea	 eax, DWORD PTR _iyCellSize$[ebp]
  0007b	50		 push	 eax
  0007c	6a 05		 push	 5
  0007e	56		 push	 esi
  0007f	e8 00 00 00 00	 call	 ?PyTuple_GetInteger@@YA_NPAU_object@@HPAH@Z ; PyTuple_GetInteger
  00084	83 c4 0c	 add	 esp, 12			; 0000000cH
  00087	84 c0		 test	 al, al
  00089	74 92		 je	 SHORT $LN10@wndMgrAppe

; 746  : 		return Py_BuildException();
; 747  : 
; 748  : 	if (!pWin->IsType(UI::CSlotWindow::Type()))

  0008b	e8 00 00 00 00	 call	 ?Type@CSlotWindow@UI@@SAKXZ ; UI::CSlotWindow::Type
  00090	8b 75 fc	 mov	 esi, DWORD PTR _pWin$[ebp]
  00093	8b ce		 mov	 ecx, esi
  00095	50		 push	 eax
  00096	e8 00 00 00 00	 call	 ?IsType@CWindow@UI@@QAEHK@Z ; UI::CWindow::IsType
  0009b	85 c0		 test	 eax, eax
  0009d	0f 84 7a ff ff
	ff		 je	 $LN10@wndMgrAppe

; 749  : 		return Py_BuildException();
; 750  : 
; 751  : 	UI::CSlotWindow * pSlotWin = (UI::CSlotWindow *)pWin;
; 752  : 	pSlotWin->AppendSlot(iIndex, ixPosition, iyPosition, ixCellSize, iyCellSize);

  000a3	ff 75 f8	 push	 DWORD PTR _iyCellSize$[ebp]
  000a6	8b ce		 mov	 ecx, esi
  000a8	ff 75 f4	 push	 DWORD PTR _ixCellSize$[ebp]
  000ab	ff 75 f0	 push	 DWORD PTR _iyPosition$[ebp]
  000ae	ff 75 ec	 push	 DWORD PTR _ixPosition$[ebp]
  000b1	ff 75 e8	 push	 DWORD PTR _iIndex$[ebp]
  000b4	e8 00 00 00 00	 call	 ?AppendSlot@CSlotWindow@UI@@QAEXKHHHH@Z ; UI::CSlotWindow::AppendSlot

; 753  : 
; 754  : 	return Py_BuildNone();

  000b9	e8 00 00 00 00	 call	 ?Py_BuildNone@@YAPAU_object@@XZ ; Py_BuildNone
  000be	5e		 pop	 esi

; 755  : }

  000bf	8b e5		 mov	 esp, ebp
  000c1	5d		 pop	 ebp
  000c2	c3		 ret	 0
?wndMgrAppendSlot@@YAPAU_object@@PAU1@0@Z ENDP		; wndMgrAppendSlot
_TEXT	ENDS
; Function compile flags: /Ogtp
; File C:\DS Project\DS Files\Source\ClientSource\Client\eterPythonLib\PythonWindowManagerModule.cpp
;	COMDAT ?wndMgrUpdateRect@@YAPAU_object@@PAU1@0@Z
_TEXT	SEGMENT
_pWin$ = -4						; size = 4
_poSelf$ = 8						; size = 4
_poArgs$ = 12						; size = 4
?wndMgrUpdateRect@@YAPAU_object@@PAU1@0@Z PROC		; wndMgrUpdateRect, COMDAT

; 713  : {

  00000	55		 push	 ebp
  00001	8b ec		 mov	 ebp, esp
  00003	51		 push	 ecx

; 714  : 	UI::CWindow * pWin;
; 715  : 	if (!PyTuple_GetWindow(poArgs, 0, &pWin))

  00004	8d 45 fc	 lea	 eax, DWORD PTR _pWin$[ebp]
  00007	50		 push	 eax
  00008	6a 00		 push	 0
  0000a	ff 75 0c	 push	 DWORD PTR _poArgs$[ebp]
  0000d	e8 00 00 00 00	 call	 ?PyTuple_GetWindow@@YA_NPAU_object@@HPAPAVCWindow@UI@@@Z ; PyTuple_GetWindow
  00012	83 c4 0c	 add	 esp, 12			; 0000000cH
  00015	84 c0		 test	 al, al
  00017	75 0e		 jne	 SHORT $LN2@wndMgrUpda

; 716  : 		return Py_BuildException();

  00019	6a 00		 push	 0
  0001b	e8 00 00 00 00	 call	 ?Py_BuildException@@YAPAU_object@@PBDZZ ; Py_BuildException
  00020	83 c4 04	 add	 esp, 4

; 720  : }

  00023	8b e5		 mov	 esp, ebp
  00025	5d		 pop	 ebp
  00026	c3		 ret	 0
$LN2@wndMgrUpda:

; 717  : 
; 718  : 	pWin->UpdateRect();

  00027	8b 4d fc	 mov	 ecx, DWORD PTR _pWin$[ebp]
  0002a	e8 00 00 00 00	 call	 ?UpdateRect@CWindow@UI@@QAEJXZ ; UI::CWindow::UpdateRect

; 719  : 	return Py_BuildNone();

  0002f	e8 00 00 00 00	 call	 ?Py_BuildNone@@YAPAU_object@@XZ ; Py_BuildNone

; 720  : }

  00034	8b e5		 mov	 esp, ebp
  00036	5d		 pop	 ebp
  00037	c3		 ret	 0
?wndMgrUpdateRect@@YAPAU_object@@PAU1@0@Z ENDP		; wndMgrUpdateRect
_TEXT	ENDS
; Function compile flags: /Ogtp
; File C:\DS Project\DS Files\Source\ClientSource\Client\eterPythonLib\PythonWindowManagerModule.cpp
; File C:\DS Project\DS Files\Source\ClientSource\Client\eterPythonLib\PythonWindow.h
; File C:\DS Project\DS Files\Source\ClientSource\Client\eterPythonLib\PythonWindowManagerModule.cpp
; File C:\DS Project\DS Files\Source\ClientSource\Client\eterPythonLib\PythonWindow.h
; File C:\DS Project\DS Files\Source\ClientSource\Client\eterPythonLib\PythonWindowManagerModule.cpp
; File C:\DS Project\DS Files\Source\ClientSource\Client\eterPythonLib\PythonWindow.h
; File C:\DS Project\DS Files\Source\ClientSource\Client\eterPythonLib\PythonWindowManagerModule.cpp
;	COMDAT ?wndMgrSetLimitBias@@YAPAU_object@@PAU1@0@Z
_TEXT	SEGMENT
_l$ = -20						; size = 4
_pWin$ = -16						; size = 4
_r$ = -12						; size = 4
_t$ = -8						; size = 4
_b$ = -4						; size = 4
_poSelf$ = 8						; size = 4
_poArgs$ = 12						; size = 4
?wndMgrSetLimitBias@@YAPAU_object@@PAU1@0@Z PROC	; wndMgrSetLimitBias, COMDAT

; 690  : {

  00000	55		 push	 ebp
  00001	8b ec		 mov	 ebp, esp
  00003	83 ec 14	 sub	 esp, 20			; 00000014H

; 691  : 	UI::CWindow * pWin;
; 692  : 	if (!PyTuple_GetWindow(poArgs, 0, &pWin))

  00006	8d 45 f0	 lea	 eax, DWORD PTR _pWin$[ebp]
  00009	56		 push	 esi
  0000a	8b 75 0c	 mov	 esi, DWORD PTR _poArgs$[ebp]
  0000d	50		 push	 eax
  0000e	6a 00		 push	 0
  00010	56		 push	 esi
  00011	e8 00 00 00 00	 call	 ?PyTuple_GetWindow@@YA_NPAU_object@@HPAPAVCWindow@UI@@@Z ; PyTuple_GetWindow
  00016	83 c4 0c	 add	 esp, 12			; 0000000cH
  00019	84 c0		 test	 al, al
  0001b	75 0f		 jne	 SHORT $LN2@wndMgrSetL
$LN10@wndMgrSetL:

; 710  : }

  0001d	6a 00		 push	 0
  0001f	e8 00 00 00 00	 call	 ?Py_BuildException@@YAPAU_object@@PBDZZ ; Py_BuildException
  00024	83 c4 04	 add	 esp, 4
  00027	5e		 pop	 esi
  00028	8b e5		 mov	 esp, ebp
  0002a	5d		 pop	 ebp
  0002b	c3		 ret	 0
$LN2@wndMgrSetL:

; 693  : 		return Py_BuildException();
; 694  : 
; 695  : 	int l;
; 696  : 	if (!PyTuple_GetInteger(poArgs, 1, &l))

  0002c	8d 45 ec	 lea	 eax, DWORD PTR _l$[ebp]
  0002f	50		 push	 eax
  00030	6a 01		 push	 1
  00032	56		 push	 esi
  00033	e8 00 00 00 00	 call	 ?PyTuple_GetInteger@@YA_NPAU_object@@HPAH@Z ; PyTuple_GetInteger
  00038	83 c4 0c	 add	 esp, 12			; 0000000cH
  0003b	84 c0		 test	 al, al
  0003d	74 de		 je	 SHORT $LN10@wndMgrSetL

; 697  : 		return Py_BuildException();
; 698  : 	int r;
; 699  : 	if (!PyTuple_GetInteger(poArgs, 2, &r))

  0003f	8d 45 f4	 lea	 eax, DWORD PTR _r$[ebp]
  00042	50		 push	 eax
  00043	6a 02		 push	 2
  00045	56		 push	 esi
  00046	e8 00 00 00 00	 call	 ?PyTuple_GetInteger@@YA_NPAU_object@@HPAH@Z ; PyTuple_GetInteger
  0004b	83 c4 0c	 add	 esp, 12			; 0000000cH
  0004e	84 c0		 test	 al, al
  00050	74 cb		 je	 SHORT $LN10@wndMgrSetL

; 700  : 		return Py_BuildException();
; 701  : 	int t;
; 702  : 	if (!PyTuple_GetInteger(poArgs, 3, &t))

  00052	8d 45 f8	 lea	 eax, DWORD PTR _t$[ebp]
  00055	50		 push	 eax
  00056	6a 03		 push	 3
  00058	56		 push	 esi
  00059	e8 00 00 00 00	 call	 ?PyTuple_GetInteger@@YA_NPAU_object@@HPAH@Z ; PyTuple_GetInteger
  0005e	83 c4 0c	 add	 esp, 12			; 0000000cH
  00061	84 c0		 test	 al, al
  00063	74 b8		 je	 SHORT $LN10@wndMgrSetL

; 703  : 		return Py_BuildException();
; 704  : 	int b;
; 705  : 	if (!PyTuple_GetInteger(poArgs, 4, &b))

  00065	8d 45 fc	 lea	 eax, DWORD PTR _b$[ebp]
  00068	50		 push	 eax
  00069	6a 04		 push	 4
  0006b	56		 push	 esi
  0006c	e8 00 00 00 00	 call	 ?PyTuple_GetInteger@@YA_NPAU_object@@HPAH@Z ; PyTuple_GetInteger
  00071	83 c4 0c	 add	 esp, 12			; 0000000cH
  00074	84 c0		 test	 al, al
  00076	74 a5		 je	 SHORT $LN10@wndMgrSetL
; File C:\DS Project\DS Files\Source\ClientSource\Client\eterPythonLib\PythonWindow.h

; 74   : 			void			SetLimitBias(long l, long r, long t, long b) { m_limitBiasRect.left = l, m_limitBiasRect.right = r, m_limitBiasRect.top = t, m_limitBiasRect.bottom = b; }

  00078	8b 55 f0	 mov	 edx, DWORD PTR _pWin$[ebp]
; File C:\DS Project\DS Files\Source\ClientSource\Client\eterPythonLib\PythonWindowManagerModule.cpp

; 708  : 	pWin->SetLimitBias(l, r, t, b);

  0007b	8b 75 f8	 mov	 esi, DWORD PTR _t$[ebp]
  0007e	8b 4d f4	 mov	 ecx, DWORD PTR _r$[ebp]
; File C:\DS Project\DS Files\Source\ClientSource\Client\eterPythonLib\PythonWindow.h

; 74   : 			void			SetLimitBias(long l, long r, long t, long b) { m_limitBiasRect.left = l, m_limitBiasRect.right = r, m_limitBiasRect.top = t, m_limitBiasRect.bottom = b; }

  00081	8b 45 ec	 mov	 eax, DWORD PTR _l$[ebp]
  00084	57		 push	 edi
; File C:\DS Project\DS Files\Source\ClientSource\Client\eterPythonLib\PythonWindowManagerModule.cpp

; 708  : 	pWin->SetLimitBias(l, r, t, b);

  00085	8b 7d fc	 mov	 edi, DWORD PTR _b$[ebp]
; File C:\DS Project\DS Files\Source\ClientSource\Client\eterPythonLib\PythonWindow.h

; 74   : 			void			SetLimitBias(long l, long r, long t, long b) { m_limitBiasRect.left = l, m_limitBiasRect.right = r, m_limitBiasRect.top = t, m_limitBiasRect.bottom = b; }

  00088	89 42 44	 mov	 DWORD PTR [edx+68], eax
  0008b	89 4a 4c	 mov	 DWORD PTR [edx+76], ecx
  0008e	89 72 48	 mov	 DWORD PTR [edx+72], esi
  00091	89 7a 50	 mov	 DWORD PTR [edx+80], edi
; File C:\DS Project\DS Files\Source\ClientSource\Client\eterPythonLib\PythonWindowManagerModule.cpp

; 709  : 	return Py_BuildNone();

  00094	e8 00 00 00 00	 call	 ?Py_BuildNone@@YAPAU_object@@XZ ; Py_BuildNone
  00099	5f		 pop	 edi
  0009a	5e		 pop	 esi

; 710  : }

  0009b	8b e5		 mov	 esp, ebp
  0009d	5d		 pop	 ebp
  0009e	c3		 ret	 0
?wndMgrSetLimitBias@@YAPAU_object@@PAU1@0@Z ENDP	; wndMgrSetLimitBias
_TEXT	ENDS
; Function compile flags: /Ogtp
; File C:\DS Project\DS Files\Source\ClientSource\Client\eterPythonLib\PythonWindowManagerModule.cpp
; File C:\DS Project\DS Files\Source\ClientSource\Client\eterPythonLib\PythonWindow.h
; File C:\DS Project\DS Files\Source\ClientSource\Client\eterPythonLib\PythonWindowManagerModule.cpp
; File C:\DS Project\DS Files\Source\ClientSource\Client\eterPythonLib\PythonWindow.h
; File C:\DS Project\DS Files\Source\ClientSource\Client\eterPythonLib\PythonWindowManagerModule.cpp
; File C:\DS Project\DS Files\Source\ClientSource\Client\eterPythonLib\PythonWindow.h
; File C:\DS Project\DS Files\Source\ClientSource\Client\eterPythonLib\PythonWindowManagerModule.cpp
; File C:\DS Project\DS Files\Source\ClientSource\Client\eterPythonLib\PythonWindow.h
; File C:\DS Project\DS Files\Source\ClientSource\Client\eterPythonLib\PythonWindowManagerModule.cpp
; File C:\DS Project\DS Files\Source\ClientSource\Client\eterPythonLib\PythonWindow.h
; File C:\DS Project\DS Files\Source\ClientSource\Client\eterPythonLib\PythonWindowManagerModule.cpp
; File C:\DS Project\DS Files\Source\ClientSource\Client\eterPythonLib\PythonWindow.h
; File C:\DS Project\DS Files\Source\ClientSource\Client\eterPythonLib\PythonWindowManagerModule.cpp
; File C:\DS Project\DS Files\Source\ClientSource\Client\eterPythonLib\PythonWindow.h
; File C:\DS Project\DS Files\Source\ClientSource\Client\eterPythonLib\PythonWindowManagerModule.cpp
; File C:\DS Project\DS Files\Source\ClientSource\Client\eterPythonLib\PythonWindow.h
; File C:\DS Project\DS Files\Source\ClientSource\Client\eterPythonLib\PythonWindowManagerModule.cpp
; File C:\DS Project\DS Files\Source\ClientSource\Client\eterPythonLib\PythonWindow.h
; File C:\DS Project\DS Files\Source\ClientSource\Client\eterPythonLib\PythonWindowManagerModule.cpp
; File C:\DS Project\DS Files\Source\ClientSource\Client\eterPythonLib\PythonWindow.h
; File C:\DS Project\DS Files\Source\ClientSource\Client\eterPythonLib\PythonWindowManagerModule.cpp
; File C:\DS Project\DS Files\Source\ClientSource\Client\eterPythonLib\PythonWindow.h
; File C:\DS Project\DS Files\Source\ClientSource\Client\eterPythonLib\PythonWindowManagerModule.cpp
;	COMDAT ?wndMgrAddFlag@@YAPAU_object@@PAU1@0@Z
_TEXT	SEGMENT
_pWin$ = -8						; size = 4
_pszFlag$ = -4						; size = 4
_poSelf$ = 8						; size = 4
_poArgs$ = 12						; size = 4
?wndMgrAddFlag@@YAPAU_object@@PAU1@0@Z PROC		; wndMgrAddFlag, COMDAT

; 649  : {

  00000	55		 push	 ebp
  00001	8b ec		 mov	 ebp, esp
  00003	83 ec 08	 sub	 esp, 8

; 650  : 	UI::CWindow * pWin;
; 651  : 	if (!PyTuple_GetWindow(poArgs, 0, &pWin))

  00006	8d 45 f8	 lea	 eax, DWORD PTR _pWin$[ebp]
  00009	50		 push	 eax
  0000a	6a 00		 push	 0
  0000c	ff 75 0c	 push	 DWORD PTR _poArgs$[ebp]
  0000f	e8 00 00 00 00	 call	 ?PyTuple_GetWindow@@YA_NPAU_object@@HPAPAVCWindow@UI@@@Z ; PyTuple_GetWindow
  00014	83 c4 0c	 add	 esp, 12			; 0000000cH
  00017	84 c0		 test	 al, al
  00019	75 0e		 jne	 SHORT $LN2@wndMgrAddF
$LN50@wndMgrAddF:

; 687  : }

  0001b	6a 00		 push	 0
  0001d	e8 00 00 00 00	 call	 ?Py_BuildException@@YAPAU_object@@PBDZZ ; Py_BuildException
  00022	83 c4 04	 add	 esp, 4
  00025	8b e5		 mov	 esp, ebp
  00027	5d		 pop	 ebp
  00028	c3		 ret	 0
$LN2@wndMgrAddF:

; 652  : 		return Py_BuildException();
; 653  : 
; 654  : 	char * pszFlag;
; 655  : 	if (!PyTuple_GetString(poArgs, 1, &pszFlag))

  00029	8d 45 fc	 lea	 eax, DWORD PTR _pszFlag$[ebp]
  0002c	50		 push	 eax
  0002d	6a 01		 push	 1
  0002f	ff 75 0c	 push	 DWORD PTR _poArgs$[ebp]
  00032	e8 00 00 00 00	 call	 ?PyTuple_GetString@@YA_NPAU_object@@HPAPAD@Z ; PyTuple_GetString
  00037	83 c4 0c	 add	 esp, 12			; 0000000cH
  0003a	84 c0		 test	 al, al
  0003c	74 dd		 je	 SHORT $LN50@wndMgrAddF

; 656  : 		return Py_BuildException();
; 657  : 
; 658  : 	if (pszFlag && *pszFlag)

  0003e	8b 45 fc	 mov	 eax, DWORD PTR _pszFlag$[ebp]
  00041	85 c0		 test	 eax, eax
  00043	0f 84 b2 01 00
	00		 je	 $LN26@wndMgrAddF
  00049	80 38 00	 cmp	 BYTE PTR [eax], 0
  0004c	0f 84 a9 01 00
	00		 je	 $LN26@wndMgrAddF

; 659  : 	{
; 660  : 		if (!stricmp(pszFlag, "movable"))

  00052	68 00 00 00 00	 push	 OFFSET ??_C@_07BNIMILPP@movable@
  00057	50		 push	 eax
  00058	e8 00 00 00 00	 call	 __stricmp
  0005d	83 c4 08	 add	 esp, 8
  00060	85 c0		 test	 eax, eax
  00062	75 10		 jne	 SHORT $LN5@wndMgrAddF
; File C:\DS Project\DS Files\Source\ClientSource\Client\eterPythonLib\PythonWindow.h

; 98   : 			void			AddFlag(DWORD flag)		{ SET_BIT(m_dwFlag, flag);		}

  00064	8b 45 f8	 mov	 eax, DWORD PTR _pWin$[ebp]
  00067	83 48 58 01	 or	 DWORD PTR [eax+88], 1
; File C:\DS Project\DS Files\Source\ClientSource\Client\eterPythonLib\PythonWindowManagerModule.cpp

; 686  : 	return Py_BuildNone();

  0006b	e8 00 00 00 00	 call	 ?Py_BuildNone@@YAPAU_object@@XZ ; Py_BuildNone

; 687  : }

  00070	8b e5		 mov	 esp, ebp
  00072	5d		 pop	 ebp
  00073	c3		 ret	 0
$LN5@wndMgrAddF:

; 661  : 			pWin->AddFlag(UI::CWindow::FLAG_MOVABLE);
; 662  : 		else if (!stricmp(pszFlag, "limit"))

  00074	68 00 00 00 00	 push	 OFFSET ??_C@_05GADAOHMC@limit@
  00079	ff 75 fc	 push	 DWORD PTR _pszFlag$[ebp]
  0007c	e8 00 00 00 00	 call	 __stricmp
  00081	83 c4 08	 add	 esp, 8
  00084	85 c0		 test	 eax, eax
  00086	75 10		 jne	 SHORT $LN7@wndMgrAddF
; File C:\DS Project\DS Files\Source\ClientSource\Client\eterPythonLib\PythonWindow.h

; 98   : 			void			AddFlag(DWORD flag)		{ SET_BIT(m_dwFlag, flag);		}

  00088	8b 45 f8	 mov	 eax, DWORD PTR _pWin$[ebp]
  0008b	83 48 58 02	 or	 DWORD PTR [eax+88], 2
; File C:\DS Project\DS Files\Source\ClientSource\Client\eterPythonLib\PythonWindowManagerModule.cpp

; 686  : 	return Py_BuildNone();

  0008f	e8 00 00 00 00	 call	 ?Py_BuildNone@@YAPAU_object@@XZ ; Py_BuildNone

; 687  : }

  00094	8b e5		 mov	 esp, ebp
  00096	5d		 pop	 ebp
  00097	c3		 ret	 0
$LN7@wndMgrAddF:

; 663  : 			pWin->AddFlag(UI::CWindow::FLAG_LIMIT);
; 664  : 		else if (!stricmp(pszFlag, "dragable"))

  00098	68 00 00 00 00	 push	 OFFSET ??_C@_08KCAGBJHE@dragable@
  0009d	ff 75 fc	 push	 DWORD PTR _pszFlag$[ebp]
  000a0	e8 00 00 00 00	 call	 __stricmp
  000a5	83 c4 08	 add	 esp, 8
  000a8	85 c0		 test	 eax, eax
  000aa	75 10		 jne	 SHORT $LN9@wndMgrAddF
; File C:\DS Project\DS Files\Source\ClientSource\Client\eterPythonLib\PythonWindow.h

; 98   : 			void			AddFlag(DWORD flag)		{ SET_BIT(m_dwFlag, flag);		}

  000ac	8b 45 f8	 mov	 eax, DWORD PTR _pWin$[ebp]
  000af	83 48 58 08	 or	 DWORD PTR [eax+88], 8
; File C:\DS Project\DS Files\Source\ClientSource\Client\eterPythonLib\PythonWindowManagerModule.cpp

; 686  : 	return Py_BuildNone();

  000b3	e8 00 00 00 00	 call	 ?Py_BuildNone@@YAPAU_object@@XZ ; Py_BuildNone

; 687  : }

  000b8	8b e5		 mov	 esp, ebp
  000ba	5d		 pop	 ebp
  000bb	c3		 ret	 0
$LN9@wndMgrAddF:

; 665  : 			pWin->AddFlag(UI::CWindow::FLAG_DRAGABLE);
; 666  : 		else if (!stricmp(pszFlag, "attach"))

  000bc	68 00 00 00 00	 push	 OFFSET ??_C@_06LHJMGKLI@attach@
  000c1	ff 75 fc	 push	 DWORD PTR _pszFlag$[ebp]
  000c4	e8 00 00 00 00	 call	 __stricmp
  000c9	83 c4 08	 add	 esp, 8
  000cc	85 c0		 test	 eax, eax
  000ce	75 10		 jne	 SHORT $LN11@wndMgrAddF
; File C:\DS Project\DS Files\Source\ClientSource\Client\eterPythonLib\PythonWindow.h

; 98   : 			void			AddFlag(DWORD flag)		{ SET_BIT(m_dwFlag, flag);		}

  000d0	8b 45 f8	 mov	 eax, DWORD PTR _pWin$[ebp]
  000d3	83 48 58 10	 or	 DWORD PTR [eax+88], 16	; 00000010H
; File C:\DS Project\DS Files\Source\ClientSource\Client\eterPythonLib\PythonWindowManagerModule.cpp

; 686  : 	return Py_BuildNone();

  000d7	e8 00 00 00 00	 call	 ?Py_BuildNone@@YAPAU_object@@XZ ; Py_BuildNone

; 687  : }

  000dc	8b e5		 mov	 esp, ebp
  000de	5d		 pop	 ebp
  000df	c3		 ret	 0
$LN11@wndMgrAddF:

; 667  : 			pWin->AddFlag(UI::CWindow::FLAG_ATTACH);
; 668  : 		else if (!stricmp(pszFlag, "restrict_x"))

  000e0	68 00 00 00 00	 push	 OFFSET ??_C@_0L@KAJDFNK@restrict_x@
  000e5	ff 75 fc	 push	 DWORD PTR _pszFlag$[ebp]
  000e8	e8 00 00 00 00	 call	 __stricmp
  000ed	83 c4 08	 add	 esp, 8
  000f0	85 c0		 test	 eax, eax
  000f2	75 10		 jne	 SHORT $LN13@wndMgrAddF
; File C:\DS Project\DS Files\Source\ClientSource\Client\eterPythonLib\PythonWindow.h

; 98   : 			void			AddFlag(DWORD flag)		{ SET_BIT(m_dwFlag, flag);		}

  000f4	8b 45 f8	 mov	 eax, DWORD PTR _pWin$[ebp]
  000f7	83 48 58 20	 or	 DWORD PTR [eax+88], 32	; 00000020H
; File C:\DS Project\DS Files\Source\ClientSource\Client\eterPythonLib\PythonWindowManagerModule.cpp

; 686  : 	return Py_BuildNone();

  000fb	e8 00 00 00 00	 call	 ?Py_BuildNone@@YAPAU_object@@XZ ; Py_BuildNone

; 687  : }

  00100	8b e5		 mov	 esp, ebp
  00102	5d		 pop	 ebp
  00103	c3		 ret	 0
$LN13@wndMgrAddF:

; 669  : 			pWin->AddFlag(UI::CWindow::FLAG_RESTRICT_X);
; 670  : 		else if (!stricmp(pszFlag, "restrict_y"))

  00104	68 00 00 00 00	 push	 OFFSET ??_C@_0L@BDBCAEJL@restrict_y@
  00109	ff 75 fc	 push	 DWORD PTR _pszFlag$[ebp]
  0010c	e8 00 00 00 00	 call	 __stricmp
  00111	83 c4 08	 add	 esp, 8
  00114	85 c0		 test	 eax, eax
  00116	75 10		 jne	 SHORT $LN15@wndMgrAddF
; File C:\DS Project\DS Files\Source\ClientSource\Client\eterPythonLib\PythonWindow.h

; 98   : 			void			AddFlag(DWORD flag)		{ SET_BIT(m_dwFlag, flag);		}

  00118	8b 45 f8	 mov	 eax, DWORD PTR _pWin$[ebp]
  0011b	83 48 58 40	 or	 DWORD PTR [eax+88], 64	; 00000040H
; File C:\DS Project\DS Files\Source\ClientSource\Client\eterPythonLib\PythonWindowManagerModule.cpp

; 686  : 	return Py_BuildNone();

  0011f	e8 00 00 00 00	 call	 ?Py_BuildNone@@YAPAU_object@@XZ ; Py_BuildNone

; 687  : }

  00124	8b e5		 mov	 esp, ebp
  00126	5d		 pop	 ebp
  00127	c3		 ret	 0
$LN15@wndMgrAddF:

; 671  : 			pWin->AddFlag(UI::CWindow::FLAG_RESTRICT_Y);
; 672  : 		else if (!stricmp(pszFlag, "float"))

  00128	68 00 00 00 00	 push	 OFFSET ??_C@_05KNFBNCOH@float@
  0012d	ff 75 fc	 push	 DWORD PTR _pszFlag$[ebp]
  00130	e8 00 00 00 00	 call	 __stricmp
  00135	83 c4 08	 add	 esp, 8
  00138	85 c0		 test	 eax, eax
  0013a	75 13		 jne	 SHORT $LN17@wndMgrAddF
; File C:\DS Project\DS Files\Source\ClientSource\Client\eterPythonLib\PythonWindow.h

; 98   : 			void			AddFlag(DWORD flag)		{ SET_BIT(m_dwFlag, flag);		}

  0013c	8b 45 f8	 mov	 eax, DWORD PTR _pWin$[ebp]
  0013f	81 48 58 00 01
	00 00		 or	 DWORD PTR [eax+88], 256	; 00000100H
; File C:\DS Project\DS Files\Source\ClientSource\Client\eterPythonLib\PythonWindowManagerModule.cpp

; 686  : 	return Py_BuildNone();

  00146	e8 00 00 00 00	 call	 ?Py_BuildNone@@YAPAU_object@@XZ ; Py_BuildNone

; 687  : }

  0014b	8b e5		 mov	 esp, ebp
  0014d	5d		 pop	 ebp
  0014e	c3		 ret	 0
$LN17@wndMgrAddF:

; 673  : 			pWin->AddFlag(UI::CWindow::FLAG_FLOAT);
; 674  : 		else if (!stricmp(pszFlag, "not_pick"))

  0014f	68 00 00 00 00	 push	 OFFSET ??_C@_08BCAHNCDJ@not_pick@
  00154	ff 75 fc	 push	 DWORD PTR _pszFlag$[ebp]
  00157	e8 00 00 00 00	 call	 __stricmp
  0015c	83 c4 08	 add	 esp, 8
  0015f	85 c0		 test	 eax, eax
  00161	75 13		 jne	 SHORT $LN19@wndMgrAddF
; File C:\DS Project\DS Files\Source\ClientSource\Client\eterPythonLib\PythonWindow.h

; 98   : 			void			AddFlag(DWORD flag)		{ SET_BIT(m_dwFlag, flag);		}

  00163	8b 45 f8	 mov	 eax, DWORD PTR _pWin$[ebp]
  00166	81 48 58 00 02
	00 00		 or	 DWORD PTR [eax+88], 512	; 00000200H
; File C:\DS Project\DS Files\Source\ClientSource\Client\eterPythonLib\PythonWindowManagerModule.cpp

; 686  : 	return Py_BuildNone();

  0016d	e8 00 00 00 00	 call	 ?Py_BuildNone@@YAPAU_object@@XZ ; Py_BuildNone

; 687  : }

  00172	8b e5		 mov	 esp, ebp
  00174	5d		 pop	 ebp
  00175	c3		 ret	 0
$LN19@wndMgrAddF:

; 675  : 			pWin->AddFlag(UI::CWindow::FLAG_NOT_PICK);
; 676  : 		else if (!stricmp(pszFlag, "ignore_size"))

  00176	68 00 00 00 00	 push	 OFFSET ??_C@_0M@HHFJIJHL@ignore_size@
  0017b	ff 75 fc	 push	 DWORD PTR _pszFlag$[ebp]
  0017e	e8 00 00 00 00	 call	 __stricmp
  00183	83 c4 08	 add	 esp, 8
  00186	85 c0		 test	 eax, eax
  00188	75 13		 jne	 SHORT $LN21@wndMgrAddF
; File C:\DS Project\DS Files\Source\ClientSource\Client\eterPythonLib\PythonWindow.h

; 98   : 			void			AddFlag(DWORD flag)		{ SET_BIT(m_dwFlag, flag);		}

  0018a	8b 45 f8	 mov	 eax, DWORD PTR _pWin$[ebp]
  0018d	81 48 58 00 04
	00 00		 or	 DWORD PTR [eax+88], 1024 ; 00000400H
; File C:\DS Project\DS Files\Source\ClientSource\Client\eterPythonLib\PythonWindowManagerModule.cpp

; 686  : 	return Py_BuildNone();

  00194	e8 00 00 00 00	 call	 ?Py_BuildNone@@YAPAU_object@@XZ ; Py_BuildNone

; 687  : }

  00199	8b e5		 mov	 esp, ebp
  0019b	5d		 pop	 ebp
  0019c	c3		 ret	 0
$LN21@wndMgrAddF:

; 677  : 			pWin->AddFlag(UI::CWindow::FLAG_IGNORE_SIZE);
; 678  : 		else if (!stricmp(pszFlag, "rtl"))

  0019d	68 00 00 00 00	 push	 OFFSET ??_C@_03IFDNKMND@rtl@
  001a2	ff 75 fc	 push	 DWORD PTR _pszFlag$[ebp]
  001a5	e8 00 00 00 00	 call	 __stricmp
  001aa	83 c4 08	 add	 esp, 8
  001ad	85 c0		 test	 eax, eax
  001af	75 13		 jne	 SHORT $LN23@wndMgrAddF
; File C:\DS Project\DS Files\Source\ClientSource\Client\eterPythonLib\PythonWindow.h

; 98   : 			void			AddFlag(DWORD flag)		{ SET_BIT(m_dwFlag, flag);		}

  001b1	8b 45 f8	 mov	 eax, DWORD PTR _pWin$[ebp]
  001b4	81 48 58 00 08
	00 00		 or	 DWORD PTR [eax+88], 2048 ; 00000800H
; File C:\DS Project\DS Files\Source\ClientSource\Client\eterPythonLib\PythonWindowManagerModule.cpp

; 686  : 	return Py_BuildNone();

  001bb	e8 00 00 00 00	 call	 ?Py_BuildNone@@YAPAU_object@@XZ ; Py_BuildNone

; 687  : }

  001c0	8b e5		 mov	 esp, ebp
  001c2	5d		 pop	 ebp
  001c3	c3		 ret	 0
$LN23@wndMgrAddF:

; 679  : 			pWin->AddFlag(UI::CWindow::FLAG_RTL);
; 680  : 		else if (!stricmp(pszFlag, "ltr"))

  001c4	68 00 00 00 00	 push	 OFFSET ??_C@_03OBLKLDKA@ltr@
  001c9	ff 75 fc	 push	 DWORD PTR _pszFlag$[ebp]
  001cc	e8 00 00 00 00	 call	 __stricmp
  001d1	83 c4 08	 add	 esp, 8
  001d4	85 c0		 test	 eax, eax
  001d6	75 13		 jne	 SHORT $LN25@wndMgrAddF
; File C:\DS Project\DS Files\Source\ClientSource\Client\eterPythonLib\PythonWindow.h

; 99   : 			void			RemoveFlag(DWORD flag)	{ REMOVE_BIT(m_dwFlag, flag);	}

  001d8	8b 45 f8	 mov	 eax, DWORD PTR _pWin$[ebp]
  001db	81 60 58 ff f7
	ff ff		 and	 DWORD PTR [eax+88], -2049 ; fffff7ffH
; File C:\DS Project\DS Files\Source\ClientSource\Client\eterPythonLib\PythonWindowManagerModule.cpp

; 686  : 	return Py_BuildNone();

  001e2	e8 00 00 00 00	 call	 ?Py_BuildNone@@YAPAU_object@@XZ ; Py_BuildNone

; 687  : }

  001e7	8b e5		 mov	 esp, ebp
  001e9	5d		 pop	 ebp
  001ea	c3		 ret	 0
$LN25@wndMgrAddF:

; 681  : 			pWin->RemoveFlag(UI::CWindow::FLAG_RTL);
; 682  : 		else
; 683  : 			TraceError("Unknown window flag %s", pszFlag);

  001eb	ff 75 fc	 push	 DWORD PTR _pszFlag$[ebp]
  001ee	68 00 00 00 00	 push	 OFFSET ??_C@_0BH@KIGIHPAM@Unknown?5window?5flag?5?$CFs@
  001f3	e8 00 00 00 00	 call	 ?TraceError@@YAXPBDZZ	; TraceError
  001f8	83 c4 08	 add	 esp, 8
$LN26@wndMgrAddF:

; 686  : 	return Py_BuildNone();

  001fb	e8 00 00 00 00	 call	 ?Py_BuildNone@@YAPAU_object@@XZ ; Py_BuildNone

; 687  : }

  00200	8b e5		 mov	 esp, ebp
  00202	5d		 pop	 ebp
  00203	c3		 ret	 0
?wndMgrAddFlag@@YAPAU_object@@PAU1@0@Z ENDP		; wndMgrAddFlag
_TEXT	ENDS
; Function compile flags: /Ogtp
; File C:\DS Project\DS Files\Source\ClientSource\Client\eterPythonLib\PythonWindowManagerModule.cpp
;	COMDAT ?wndMgrGetChildCount@@YAPAU_object@@PAU1@0@Z
_TEXT	SEGMENT
_pWin$ = -4						; size = 4
_poSelf$ = 8						; size = 4
_poArgs$ = 12						; size = 4
?wndMgrGetChildCount@@YAPAU_object@@PAU1@0@Z PROC	; wndMgrGetChildCount, COMDAT

; 640  : {

  00000	55		 push	 ebp
  00001	8b ec		 mov	 ebp, esp
  00003	51		 push	 ecx

; 641  : 	UI::CWindow * pWin;
; 642  : 	if (!PyTuple_GetWindow(poArgs, 0, &pWin))

  00004	8d 45 fc	 lea	 eax, DWORD PTR _pWin$[ebp]
  00007	50		 push	 eax
  00008	6a 00		 push	 0
  0000a	ff 75 0c	 push	 DWORD PTR _poArgs$[ebp]
  0000d	e8 00 00 00 00	 call	 ?PyTuple_GetWindow@@YA_NPAU_object@@HPAPAVCWindow@UI@@@Z ; PyTuple_GetWindow
  00012	83 c4 0c	 add	 esp, 12			; 0000000cH
  00015	84 c0		 test	 al, al
  00017	75 0e		 jne	 SHORT $LN2@wndMgrGetC

; 643  : 		return Py_BuildException();

  00019	6a 00		 push	 0
  0001b	e8 00 00 00 00	 call	 ?Py_BuildException@@YAPAU_object@@PBDZZ ; Py_BuildException
  00020	83 c4 04	 add	 esp, 4

; 646  : }

  00023	8b e5		 mov	 esp, ebp
  00025	5d		 pop	 ebp
  00026	c3		 ret	 0
$LN2@wndMgrGetC:

; 644  : 
; 645  : 	return Py_BuildValue("i", pWin->GetChildCount());

  00027	8b 45 fc	 mov	 eax, DWORD PTR _pWin$[ebp]
  0002a	ff 70 68	 push	 DWORD PTR [eax+104]
  0002d	68 00 00 00 00	 push	 OFFSET ??_C@_01KBJDNOO@i@
  00032	ff 15 00 00 00
	00		 call	 DWORD PTR __imp__Py_BuildValue
  00038	83 c4 08	 add	 esp, 8

; 646  : }

  0003b	8b e5		 mov	 esp, ebp
  0003d	5d		 pop	 ebp
  0003e	c3		 ret	 0
?wndMgrGetChildCount@@YAPAU_object@@PAU1@0@Z ENDP	; wndMgrGetChildCount
_TEXT	ENDS
; Function compile flags: /Ogtp
; File C:\DS Project\DS Files\Source\ClientSource\Client\eterPythonLib\PythonWindowManagerModule.cpp
;	COMDAT ?wndMgrIsPickedWindow@@YAPAU_object@@PAU1@0@Z
_TEXT	SEGMENT
_pWin$ = -4						; size = 4
_poSelf$ = 8						; size = 4
_poArgs$ = 12						; size = 4
?wndMgrIsPickedWindow@@YAPAU_object@@PAU1@0@Z PROC	; wndMgrIsPickedWindow, COMDAT

; 630  : {

  00000	55		 push	 ebp
  00001	8b ec		 mov	 ebp, esp
  00003	51		 push	 ecx

; 631  : 	UI::CWindow * pWin;
; 632  : 	if (!PyTuple_GetWindow(poArgs, 0, &pWin))

  00004	8d 45 fc	 lea	 eax, DWORD PTR _pWin$[ebp]
  00007	50		 push	 eax
  00008	6a 00		 push	 0
  0000a	ff 75 0c	 push	 DWORD PTR _poArgs$[ebp]
  0000d	e8 00 00 00 00	 call	 ?PyTuple_GetWindow@@YA_NPAU_object@@HPAPAVCWindow@UI@@@Z ; PyTuple_GetWindow
  00012	83 c4 0c	 add	 esp, 12			; 0000000cH
  00015	84 c0		 test	 al, al
  00017	75 0e		 jne	 SHORT $LN2@wndMgrIsPi

; 633  : 		return Py_BuildException();

  00019	6a 00		 push	 0
  0001b	e8 00 00 00 00	 call	 ?Py_BuildException@@YAPAU_object@@PBDZZ ; Py_BuildException
  00020	83 c4 04	 add	 esp, 4

; 637  : }

  00023	8b e5		 mov	 esp, ebp
  00025	5d		 pop	 ebp
  00026	c3		 ret	 0
$LN2@wndMgrIsPi:

; 634  : 
; 635  : 	UI::CWindow * pPickedWin = UI::CWindowManager::Instance().GetPointWindow();

  00027	a1 00 00 00 00	 mov	 eax, DWORD PTR ?ms_singleton@?$CSingleton@VCWindowManager@UI@@@@0PAVCWindowManager@UI@@A ; CSingleton<UI::CWindowManager>::ms_singleton

; 636  : 	return Py_BuildValue("i", pWin == pPickedWin ? 1 : 0);

  0002c	33 c9		 xor	 ecx, ecx
  0002e	8b 40 64	 mov	 eax, DWORD PTR [eax+100]
  00031	39 45 fc	 cmp	 DWORD PTR _pWin$[ebp], eax
  00034	0f 94 c1	 sete	 cl
  00037	51		 push	 ecx
  00038	68 00 00 00 00	 push	 OFFSET ??_C@_01KBJDNOO@i@
  0003d	ff 15 00 00 00
	00		 call	 DWORD PTR __imp__Py_BuildValue
  00043	83 c4 08	 add	 esp, 8

; 637  : }

  00046	8b e5		 mov	 esp, ebp
  00048	5d		 pop	 ebp
  00049	c3		 ret	 0
?wndMgrIsPickedWindow@@YAPAU_object@@PAU1@0@Z ENDP	; wndMgrIsPickedWindow
_TEXT	ENDS
; Function compile flags: /Ogtp
; File C:\DS Project\DS Files\Source\ClientSource\Client\eterPythonLib\PythonWindowManagerModule.cpp
;	COMDAT ?wndMgrIsDragging@@YAPAU_object@@PAU1@0@Z
_TEXT	SEGMENT
_poSelf$ = 8						; size = 4
_poArgs$ = 12						; size = 4
?wndMgrIsDragging@@YAPAU_object@@PAU1@0@Z PROC		; wndMgrIsDragging, COMDAT

; 626  : 	return Py_BuildValue("i", UI::CWindowManager::Instance().IsDragging());

  00000	8b 0d 00 00 00
	00		 mov	 ecx, DWORD PTR ?ms_singleton@?$CSingleton@VCWindowManager@UI@@@@0PAVCWindowManager@UI@@A ; CSingleton<UI::CWindowManager>::ms_singleton
  00006	e8 00 00 00 00	 call	 ?IsDragging@CWindowManager@UI@@QAEHXZ ; UI::CWindowManager::IsDragging
  0000b	50		 push	 eax
  0000c	68 00 00 00 00	 push	 OFFSET ??_C@_01KBJDNOO@i@
  00011	ff 15 00 00 00
	00		 call	 DWORD PTR __imp__Py_BuildValue
  00017	83 c4 08	 add	 esp, 8

; 627  : }

  0001a	c3		 ret	 0
?wndMgrIsDragging@@YAPAU_object@@PAU1@0@Z ENDP		; wndMgrIsDragging
_TEXT	ENDS
; Function compile flags: /Ogtp
; File C:\DS Project\DS Files\Source\ClientSource\Client\eterPythonLib\PythonWindowManagerModule.cpp
;	COMDAT ?wndMgrGetMousePosition@@YAPAU_object@@PAU1@0@Z
_TEXT	SEGMENT
_lx$ = -8						; size = 4
_ly$ = -4						; size = 4
_poSelf$ = 8						; size = 4
_poArgs$ = 12						; size = 4
?wndMgrGetMousePosition@@YAPAU_object@@PAU1@0@Z PROC	; wndMgrGetMousePosition, COMDAT

; 618  : {

  00000	55		 push	 ebp
  00001	8b ec		 mov	 ebp, esp
  00003	83 ec 08	 sub	 esp, 8

; 619  : 	long lx, ly;
; 620  : 	UI::CWindowManager::Instance().GetMousePosition(lx, ly);

  00006	8b 0d 00 00 00
	00		 mov	 ecx, DWORD PTR ?ms_singleton@?$CSingleton@VCWindowManager@UI@@@@0PAVCWindowManager@UI@@A ; CSingleton<UI::CWindowManager>::ms_singleton
  0000c	8d 45 fc	 lea	 eax, DWORD PTR _ly$[ebp]
  0000f	50		 push	 eax
  00010	8d 45 f8	 lea	 eax, DWORD PTR _lx$[ebp]
  00013	50		 push	 eax
  00014	e8 00 00 00 00	 call	 ?GetMousePosition@CWindowManager@UI@@QAEXAAJ0@Z ; UI::CWindowManager::GetMousePosition

; 621  : 	return Py_BuildValue("ii", lx, ly);

  00019	ff 75 fc	 push	 DWORD PTR _ly$[ebp]
  0001c	ff 75 f8	 push	 DWORD PTR _lx$[ebp]
  0001f	68 00 00 00 00	 push	 OFFSET ??_C@_02PDIHAGKM@ii@
  00024	ff 15 00 00 00
	00		 call	 DWORD PTR __imp__Py_BuildValue
  0002a	83 c4 0c	 add	 esp, 12			; 0000000cH

; 622  : }

  0002d	8b e5		 mov	 esp, ebp
  0002f	5d		 pop	 ebp
  00030	c3		 ret	 0
?wndMgrGetMousePosition@@YAPAU_object@@PAU1@0@Z ENDP	; wndMgrGetMousePosition
_TEXT	ENDS
; Function compile flags: /Ogtp
; File C:\DS Project\DS Files\Source\ClientSource\Client\eterPythonLib\PythonWindowManagerModule.cpp
;	COMDAT ?wndMgrGetScreenHeight@@YAPAU_object@@PAU1@0@Z
_TEXT	SEGMENT
_poSelf$ = 8						; size = 4
_poArgs$ = 12						; size = 4
?wndMgrGetScreenHeight@@YAPAU_object@@PAU1@0@Z PROC	; wndMgrGetScreenHeight, COMDAT

; 614  : 	return Py_BuildValue("i", UI::CWindowManager::Instance().GetScreenHeight());

  00000	a1 00 00 00 00	 mov	 eax, DWORD PTR ?ms_singleton@?$CSingleton@VCWindowManager@UI@@@@0PAVCWindowManager@UI@@A ; CSingleton<UI::CWindowManager>::ms_singleton
  00005	ff 70 08	 push	 DWORD PTR [eax+8]
  00008	68 00 00 00 00	 push	 OFFSET ??_C@_01KBJDNOO@i@
  0000d	ff 15 00 00 00
	00		 call	 DWORD PTR __imp__Py_BuildValue
  00013	83 c4 08	 add	 esp, 8

; 615  : }

  00016	c3		 ret	 0
?wndMgrGetScreenHeight@@YAPAU_object@@PAU1@0@Z ENDP	; wndMgrGetScreenHeight
_TEXT	ENDS
; Function compile flags: /Ogtp
; File C:\DS Project\DS Files\Source\ClientSource\Client\eterPythonLib\PythonWindowManagerModule.cpp
;	COMDAT ?wndMgrGetScreenWidth@@YAPAU_object@@PAU1@0@Z
_TEXT	SEGMENT
_poSelf$ = 8						; size = 4
_poArgs$ = 12						; size = 4
?wndMgrGetScreenWidth@@YAPAU_object@@PAU1@0@Z PROC	; wndMgrGetScreenWidth, COMDAT

; 609  : 	return Py_BuildValue("i", UI::CWindowManager::Instance().GetScreenWidth());

  00000	a1 00 00 00 00	 mov	 eax, DWORD PTR ?ms_singleton@?$CSingleton@VCWindowManager@UI@@@@0PAVCWindowManager@UI@@A ; CSingleton<UI::CWindowManager>::ms_singleton
  00005	ff 70 04	 push	 DWORD PTR [eax+4]
  00008	68 00 00 00 00	 push	 OFFSET ??_C@_01KBJDNOO@i@
  0000d	ff 15 00 00 00
	00		 call	 DWORD PTR __imp__Py_BuildValue
  00013	83 c4 08	 add	 esp, 8

; 610  : }

  00016	c3		 ret	 0
?wndMgrGetScreenWidth@@YAPAU_object@@PAU1@0@Z ENDP	; wndMgrGetScreenWidth
_TEXT	ENDS
; Function compile flags: /Ogtp
; File C:\DS Project\DS Files\Source\ClientSource\Client\eterPythonLib\PythonWindowManagerModule.cpp
;	COMDAT ?wndMgrGetHyperlink@@YAPAU_object@@PAU1@0@Z
_TEXT	SEGMENT
_retBuf$ = -1028					; size = 1024
__$ArrayPad$ = -4					; size = 4
_poSelf$ = 8						; size = 4
_poArgs$ = 12						; size = 4
?wndMgrGetHyperlink@@YAPAU_object@@PAU1@0@Z PROC	; wndMgrGetHyperlink, COMDAT

; 599  : {

  00000	55		 push	 ebp
  00001	8b ec		 mov	 ebp, esp
  00003	81 ec 04 04 00
	00		 sub	 esp, 1028		; 00000404H
  00009	a1 00 00 00 00	 mov	 eax, DWORD PTR ___security_cookie
  0000e	33 c5		 xor	 eax, ebp
  00010	89 45 fc	 mov	 DWORD PTR __$ArrayPad$[ebp], eax

; 600  : 	char retBuf[1024];
; 601  : 	int retLen = CGraphicTextInstance::Hyperlink_GetText(retBuf, sizeof(retBuf)-1);

  00013	8d 85 fc fb ff
	ff		 lea	 eax, DWORD PTR _retBuf$[ebp]
  00019	68 ff 03 00 00	 push	 1023			; 000003ffH
  0001e	50		 push	 eax
  0001f	e8 00 00 00 00	 call	 ?Hyperlink_GetText@CGraphicTextInstance@@SAHPADH@Z ; CGraphicTextInstance::Hyperlink_GetText
  00024	83 c4 08	 add	 esp, 8

; 602  : 	retBuf[retLen] = '\0';

  00027	3d 00 04 00 00	 cmp	 eax, 1024		; 00000400H
  0002c	73 2c		 jae	 SHORT $LN3@wndMgrGetH

; 603  : 
; 604  : 	return Py_BuildValue("s#", retBuf, retLen);

  0002e	50		 push	 eax
  0002f	c6 84 05 fc fb
	ff ff 00	 mov	 BYTE PTR _retBuf$[ebp+eax], 0
  00037	8d 85 fc fb ff
	ff		 lea	 eax, DWORD PTR _retBuf$[ebp]
  0003d	50		 push	 eax
  0003e	68 00 00 00 00	 push	 OFFSET ??_C@_02OIKAIHIF@s?$CD@
  00043	ff 15 00 00 00
	00		 call	 DWORD PTR __imp__Py_BuildValue

; 605  : }

  00049	8b 4d fc	 mov	 ecx, DWORD PTR __$ArrayPad$[ebp]
  0004c	83 c4 0c	 add	 esp, 12			; 0000000cH
  0004f	33 cd		 xor	 ecx, ebp
  00051	e8 00 00 00 00	 call	 @__security_check_cookie@4
  00056	8b e5		 mov	 esp, ebp
  00058	5d		 pop	 ebp
  00059	c3		 ret	 0
$LN3@wndMgrGetH:

; 602  : 	retBuf[retLen] = '\0';

  0005a	e8 00 00 00 00	 call	 ___report_rangecheckfailure
$LN5@wndMgrGetH:
  0005f	cc		 int	 3
?wndMgrGetHyperlink@@YAPAU_object@@PAU1@0@Z ENDP	; wndMgrGetHyperlink
_TEXT	ENDS
; Function compile flags: /Ogtp
; File C:\DS Project\DS Files\Source\ClientSource\Client\eterPythonLib\PythonWindowManagerModule.cpp
;	COMDAT ?wndMgrGetMouseLocalPosition@@YAPAU_object@@PAU1@0@Z
_TEXT	SEGMENT
_lx$ = -12						; size = 4
_ly$ = -8						; size = 4
_pWin$ = -4						; size = 4
_poSelf$ = 8						; size = 4
_poArgs$ = 12						; size = 4
?wndMgrGetMouseLocalPosition@@YAPAU_object@@PAU1@0@Z PROC ; wndMgrGetMouseLocalPosition, COMDAT

; 588  : {

  00000	55		 push	 ebp
  00001	8b ec		 mov	 ebp, esp
  00003	83 ec 0c	 sub	 esp, 12			; 0000000cH

; 589  : 	UI::CWindow * pWin;
; 590  : 	if (!PyTuple_GetWindow(poArgs, 0, &pWin))

  00006	8d 45 fc	 lea	 eax, DWORD PTR _pWin$[ebp]
  00009	50		 push	 eax
  0000a	6a 00		 push	 0
  0000c	ff 75 0c	 push	 DWORD PTR _poArgs$[ebp]
  0000f	e8 00 00 00 00	 call	 ?PyTuple_GetWindow@@YA_NPAU_object@@HPAPAVCWindow@UI@@@Z ; PyTuple_GetWindow
  00014	83 c4 0c	 add	 esp, 12			; 0000000cH
  00017	84 c0		 test	 al, al
  00019	75 0e		 jne	 SHORT $LN2@wndMgrGetM

; 591  : 		return Py_BuildException();

  0001b	6a 00		 push	 0
  0001d	e8 00 00 00 00	 call	 ?Py_BuildException@@YAPAU_object@@PBDZZ ; Py_BuildException
  00022	83 c4 04	 add	 esp, 4

; 596  : }

  00025	8b e5		 mov	 esp, ebp
  00027	5d		 pop	 ebp
  00028	c3		 ret	 0
$LN2@wndMgrGetM:

; 592  : 
; 593  : 	long lx, ly;
; 594  : 	pWin->GetMouseLocalPosition(lx, ly);

  00029	8b 4d fc	 mov	 ecx, DWORD PTR _pWin$[ebp]
  0002c	8d 45 f8	 lea	 eax, DWORD PTR _ly$[ebp]
  0002f	50		 push	 eax
  00030	8d 45 f4	 lea	 eax, DWORD PTR _lx$[ebp]
  00033	50		 push	 eax
  00034	e8 00 00 00 00	 call	 ?GetMouseLocalPosition@CWindow@UI@@QAEXAAJ0@Z ; UI::CWindow::GetMouseLocalPosition

; 595  : 	return Py_BuildValue("ii", lx, ly);

  00039	ff 75 f8	 push	 DWORD PTR _ly$[ebp]
  0003c	ff 75 f4	 push	 DWORD PTR _lx$[ebp]
  0003f	68 00 00 00 00	 push	 OFFSET ??_C@_02PDIHAGKM@ii@
  00044	ff 15 00 00 00
	00		 call	 DWORD PTR __imp__Py_BuildValue
  0004a	83 c4 0c	 add	 esp, 12			; 0000000cH

; 596  : }

  0004d	8b e5		 mov	 esp, ebp
  0004f	5d		 pop	 ebp
  00050	c3		 ret	 0
?wndMgrGetMouseLocalPosition@@YAPAU_object@@PAU1@0@Z ENDP ; wndMgrGetMouseLocalPosition
_TEXT	ENDS
; Function compile flags: /Ogtp
; File C:\DS Project\DS Files\Source\ClientSource\Client\eterPythonLib\PythonWindowManagerModule.cpp
;	COMDAT ?wndMgrIsIn@@YAPAU_object@@PAU1@0@Z
_TEXT	SEGMENT
_pWin$ = -4						; size = 4
_poSelf$ = 8						; size = 4
_poArgs$ = 12						; size = 4
?wndMgrIsIn@@YAPAU_object@@PAU1@0@Z PROC		; wndMgrIsIn, COMDAT

; 579  : {

  00000	55		 push	 ebp
  00001	8b ec		 mov	 ebp, esp
  00003	51		 push	 ecx

; 580  : 	UI::CWindow * pWin;
; 581  : 	if (!PyTuple_GetWindow(poArgs, 0, &pWin))

  00004	8d 45 fc	 lea	 eax, DWORD PTR _pWin$[ebp]
  00007	50		 push	 eax
  00008	6a 00		 push	 0
  0000a	ff 75 0c	 push	 DWORD PTR _poArgs$[ebp]
  0000d	e8 00 00 00 00	 call	 ?PyTuple_GetWindow@@YA_NPAU_object@@HPAPAVCWindow@UI@@@Z ; PyTuple_GetWindow
  00012	83 c4 0c	 add	 esp, 12			; 0000000cH
  00015	84 c0		 test	 al, al
  00017	75 0e		 jne	 SHORT $LN2@wndMgrIsIn

; 582  : 		return Py_BuildException();

  00019	6a 00		 push	 0
  0001b	e8 00 00 00 00	 call	 ?Py_BuildException@@YAPAU_object@@PBDZZ ; Py_BuildException
  00020	83 c4 04	 add	 esp, 4

; 585  : }

  00023	8b e5		 mov	 esp, ebp
  00025	5d		 pop	 ebp
  00026	c3		 ret	 0
$LN2@wndMgrIsIn:

; 583  : 
; 584  : 	return Py_BuildValue("i", pWin == UI::CWindowManager::Instance().GetPointWindow());

  00027	a1 00 00 00 00	 mov	 eax, DWORD PTR ?ms_singleton@?$CSingleton@VCWindowManager@UI@@@@0PAVCWindowManager@UI@@A ; CSingleton<UI::CWindowManager>::ms_singleton
  0002c	33 d2		 xor	 edx, edx
  0002e	8b 4d fc	 mov	 ecx, DWORD PTR _pWin$[ebp]
  00031	3b 48 64	 cmp	 ecx, DWORD PTR [eax+100]
  00034	0f 94 c2	 sete	 dl
  00037	52		 push	 edx
  00038	68 00 00 00 00	 push	 OFFSET ??_C@_01KBJDNOO@i@
  0003d	ff 15 00 00 00
	00		 call	 DWORD PTR __imp__Py_BuildValue
  00043	83 c4 08	 add	 esp, 8

; 585  : }

  00046	8b e5		 mov	 esp, ebp
  00048	5d		 pop	 ebp
  00049	c3		 ret	 0
?wndMgrIsIn@@YAPAU_object@@PAU1@0@Z ENDP		; wndMgrIsIn
_TEXT	ENDS
; Function compile flags: /Ogtp
; File C:\DS Project\DS Files\Source\ClientSource\Client\eterPythonLib\PythonWindowManagerModule.cpp
;	COMDAT ?wndMgrSetWindowVerticalAlign@@YAPAU_object@@PAU1@0@Z
_TEXT	SEGMENT
_pWin$ = -8						; size = 4
_iAlign$ = -4						; size = 4
_poSelf$ = 8						; size = 4
_poArgs$ = 12						; size = 4
?wndMgrSetWindowVerticalAlign@@YAPAU_object@@PAU1@0@Z PROC ; wndMgrSetWindowVerticalAlign, COMDAT

; 565  : {

  00000	55		 push	 ebp
  00001	8b ec		 mov	 ebp, esp
  00003	83 ec 08	 sub	 esp, 8

; 566  : 	UI::CWindow * pWin;
; 567  : 	if (!PyTuple_GetWindow(poArgs, 0, &pWin))

  00006	8d 45 f8	 lea	 eax, DWORD PTR _pWin$[ebp]
  00009	50		 push	 eax
  0000a	6a 00		 push	 0
  0000c	ff 75 0c	 push	 DWORD PTR _poArgs$[ebp]
  0000f	e8 00 00 00 00	 call	 ?PyTuple_GetWindow@@YA_NPAU_object@@HPAPAVCWindow@UI@@@Z ; PyTuple_GetWindow
  00014	83 c4 0c	 add	 esp, 12			; 0000000cH
  00017	84 c0		 test	 al, al
  00019	75 0e		 jne	 SHORT $LN2@wndMgrSetW
$LN5@wndMgrSetW:

; 576  : }

  0001b	6a 00		 push	 0
  0001d	e8 00 00 00 00	 call	 ?Py_BuildException@@YAPAU_object@@PBDZZ ; Py_BuildException
  00022	83 c4 04	 add	 esp, 4
  00025	8b e5		 mov	 esp, ebp
  00027	5d		 pop	 ebp
  00028	c3		 ret	 0
$LN2@wndMgrSetW:

; 568  : 		return Py_BuildException();
; 569  : 	int iAlign;
; 570  : 	if (!PyTuple_GetInteger(poArgs, 1, &iAlign))

  00029	8d 45 fc	 lea	 eax, DWORD PTR _iAlign$[ebp]
  0002c	50		 push	 eax
  0002d	6a 01		 push	 1
  0002f	ff 75 0c	 push	 DWORD PTR _poArgs$[ebp]
  00032	e8 00 00 00 00	 call	 ?PyTuple_GetInteger@@YA_NPAU_object@@HPAH@Z ; PyTuple_GetInteger
  00037	83 c4 0c	 add	 esp, 12			; 0000000cH
  0003a	84 c0		 test	 al, al
  0003c	74 dd		 je	 SHORT $LN5@wndMgrSetW

; 571  : 		return Py_BuildException();
; 572  : 
; 573  : 	pWin->SetVerticalAlign(iAlign);

  0003e	ff 75 fc	 push	 DWORD PTR _iAlign$[ebp]
  00041	8b 4d f8	 mov	 ecx, DWORD PTR _pWin$[ebp]
  00044	e8 00 00 00 00	 call	 ?SetVerticalAlign@CWindow@UI@@QAEXK@Z ; UI::CWindow::SetVerticalAlign

; 574  : 
; 575  : 	return Py_BuildNone();

  00049	e8 00 00 00 00	 call	 ?Py_BuildNone@@YAPAU_object@@XZ ; Py_BuildNone

; 576  : }

  0004e	8b e5		 mov	 esp, ebp
  00050	5d		 pop	 ebp
  00051	c3		 ret	 0
?wndMgrSetWindowVerticalAlign@@YAPAU_object@@PAU1@0@Z ENDP ; wndMgrSetWindowVerticalAlign
_TEXT	ENDS
; Function compile flags: /Ogtp
; File C:\DS Project\DS Files\Source\ClientSource\Client\eterPythonLib\PythonWindowManagerModule.cpp
;	COMDAT ?wndMgrSetWindowHorizontalAlign@@YAPAU_object@@PAU1@0@Z
_TEXT	SEGMENT
_pWin$ = -8						; size = 4
_iAlign$ = -4						; size = 4
_poSelf$ = 8						; size = 4
_poArgs$ = 12						; size = 4
?wndMgrSetWindowHorizontalAlign@@YAPAU_object@@PAU1@0@Z PROC ; wndMgrSetWindowHorizontalAlign, COMDAT

; 551  : {

  00000	55		 push	 ebp
  00001	8b ec		 mov	 ebp, esp
  00003	83 ec 08	 sub	 esp, 8

; 552  : 	UI::CWindow * pWin;
; 553  : 	if (!PyTuple_GetWindow(poArgs, 0, &pWin))

  00006	8d 45 f8	 lea	 eax, DWORD PTR _pWin$[ebp]
  00009	50		 push	 eax
  0000a	6a 00		 push	 0
  0000c	ff 75 0c	 push	 DWORD PTR _poArgs$[ebp]
  0000f	e8 00 00 00 00	 call	 ?PyTuple_GetWindow@@YA_NPAU_object@@HPAPAVCWindow@UI@@@Z ; PyTuple_GetWindow
  00014	83 c4 0c	 add	 esp, 12			; 0000000cH
  00017	84 c0		 test	 al, al
  00019	75 0e		 jne	 SHORT $LN2@wndMgrSetW
$LN5@wndMgrSetW:

; 562  : }

  0001b	6a 00		 push	 0
  0001d	e8 00 00 00 00	 call	 ?Py_BuildException@@YAPAU_object@@PBDZZ ; Py_BuildException
  00022	83 c4 04	 add	 esp, 4
  00025	8b e5		 mov	 esp, ebp
  00027	5d		 pop	 ebp
  00028	c3		 ret	 0
$LN2@wndMgrSetW:

; 554  : 		return Py_BuildException();
; 555  : 	int iAlign;
; 556  : 	if (!PyTuple_GetInteger(poArgs, 1, &iAlign))

  00029	8d 45 fc	 lea	 eax, DWORD PTR _iAlign$[ebp]
  0002c	50		 push	 eax
  0002d	6a 01		 push	 1
  0002f	ff 75 0c	 push	 DWORD PTR _poArgs$[ebp]
  00032	e8 00 00 00 00	 call	 ?PyTuple_GetInteger@@YA_NPAU_object@@HPAH@Z ; PyTuple_GetInteger
  00037	83 c4 0c	 add	 esp, 12			; 0000000cH
  0003a	84 c0		 test	 al, al
  0003c	74 dd		 je	 SHORT $LN5@wndMgrSetW

; 557  : 		return Py_BuildException();
; 558  : 
; 559  : 	pWin->SetHorizontalAlign(iAlign);

  0003e	ff 75 fc	 push	 DWORD PTR _iAlign$[ebp]
  00041	8b 4d f8	 mov	 ecx, DWORD PTR _pWin$[ebp]
  00044	e8 00 00 00 00	 call	 ?SetHorizontalAlign@CWindow@UI@@QAEXK@Z ; UI::CWindow::SetHorizontalAlign

; 560  : 
; 561  : 	return Py_BuildNone();

  00049	e8 00 00 00 00	 call	 ?Py_BuildNone@@YAPAU_object@@XZ ; Py_BuildNone

; 562  : }

  0004e	8b e5		 mov	 esp, ebp
  00050	5d		 pop	 ebp
  00051	c3		 ret	 0
?wndMgrSetWindowHorizontalAlign@@YAPAU_object@@PAU1@0@Z ENDP ; wndMgrSetWindowHorizontalAlign
_TEXT	ENDS
; Function compile flags: /Ogtp
; File C:\DS Project\DS Files\Source\ClientSource\Client\eterPythonLib\PythonWindowManagerModule.cpp
;	COMDAT ?wndMgrGetWindowRect@@YAPAU_object@@PAU1@0@Z
_TEXT	SEGMENT
_pWin$ = -4						; size = 4
_poSelf$ = 8						; size = 4
_poArgs$ = 12						; size = 4
?wndMgrGetWindowRect@@YAPAU_object@@PAU1@0@Z PROC	; wndMgrGetWindowRect, COMDAT

; 541  : {

  00000	55		 push	 ebp
  00001	8b ec		 mov	 ebp, esp
  00003	51		 push	 ecx

; 542  : 	UI::CWindow * pWin;
; 543  : 	if (!PyTuple_GetWindow(poArgs, 0, &pWin))

  00004	8d 45 fc	 lea	 eax, DWORD PTR _pWin$[ebp]
  00007	50		 push	 eax
  00008	6a 00		 push	 0
  0000a	ff 75 0c	 push	 DWORD PTR _poArgs$[ebp]
  0000d	e8 00 00 00 00	 call	 ?PyTuple_GetWindow@@YA_NPAU_object@@HPAPAVCWindow@UI@@@Z ; PyTuple_GetWindow
  00012	83 c4 0c	 add	 esp, 12			; 0000000cH
  00015	84 c0		 test	 al, al
  00017	75 0e		 jne	 SHORT $LN2@wndMgrGetW

; 544  : 		return Py_BuildException();

  00019	6a 00		 push	 0
  0001b	e8 00 00 00 00	 call	 ?Py_BuildException@@YAPAU_object@@PBDZZ ; Py_BuildException
  00020	83 c4 04	 add	 esp, 4

; 548  : }

  00023	8b e5		 mov	 esp, ebp
  00025	5d		 pop	 ebp
  00026	c3		 ret	 0
$LN2@wndMgrGetW:

; 545  : 
; 546  : 	RECT & rRect = pWin->GetRect();

  00027	8b 4d fc	 mov	 ecx, DWORD PTR _pWin$[ebp]

; 547  : 	return Py_BuildValue("iiii", rRect.left, rRect.top, rRect.right - rRect.left, rRect.bottom - rRect.top);

  0002a	8b 51 38	 mov	 edx, DWORD PTR [ecx+56]
  0002d	8b 41 40	 mov	 eax, DWORD PTR [ecx+64]
  00030	2b c2		 sub	 eax, edx
  00032	50		 push	 eax
  00033	8b 41 3c	 mov	 eax, DWORD PTR [ecx+60]
  00036	2b 41 34	 sub	 eax, DWORD PTR [ecx+52]
  00039	50		 push	 eax
  0003a	52		 push	 edx
  0003b	ff 71 34	 push	 DWORD PTR [ecx+52]
  0003e	68 00 00 00 00	 push	 OFFSET ??_C@_04BIOIIFBG@iiii@
  00043	ff 15 00 00 00
	00		 call	 DWORD PTR __imp__Py_BuildValue
  00049	83 c4 14	 add	 esp, 20			; 00000014H

; 548  : }

  0004c	8b e5		 mov	 esp, ebp
  0004e	5d		 pop	 ebp
  0004f	c3		 ret	 0
?wndMgrGetWindowRect@@YAPAU_object@@PAU1@0@Z ENDP	; wndMgrGetWindowRect
_TEXT	ENDS
; Function compile flags: /Ogtp
; File C:\DS Project\DS Files\Source\ClientSource\Client\eterPythonLib\PythonWindowManagerModule.cpp
;	COMDAT ?wndMgrGetWndGlobalPosition@@YAPAU_object@@PAU1@0@Z
_TEXT	SEGMENT
_pWindow$ = -4						; size = 4
_poSelf$ = 8						; size = 4
_poArgs$ = 12						; size = 4
?wndMgrGetWndGlobalPosition@@YAPAU_object@@PAU1@0@Z PROC ; wndMgrGetWndGlobalPosition, COMDAT

; 531  : {

  00000	55		 push	 ebp
  00001	8b ec		 mov	 ebp, esp
  00003	51		 push	 ecx

; 532  : 	UI::CWindow * pWindow;
; 533  : 	if (!PyTuple_GetWindow(poArgs, 0, &pWindow))

  00004	8d 45 fc	 lea	 eax, DWORD PTR _pWindow$[ebp]
  00007	50		 push	 eax
  00008	6a 00		 push	 0
  0000a	ff 75 0c	 push	 DWORD PTR _poArgs$[ebp]
  0000d	e8 00 00 00 00	 call	 ?PyTuple_GetWindow@@YA_NPAU_object@@HPAPAVCWindow@UI@@@Z ; PyTuple_GetWindow
  00012	83 c4 0c	 add	 esp, 12			; 0000000cH
  00015	84 c0		 test	 al, al
  00017	75 0e		 jne	 SHORT $LN2@wndMgrGetW

; 534  : 		return Py_BuildException();

  00019	6a 00		 push	 0
  0001b	e8 00 00 00 00	 call	 ?Py_BuildException@@YAPAU_object@@PBDZZ ; Py_BuildException
  00020	83 c4 04	 add	 esp, 4

; 538  : }

  00023	8b e5		 mov	 esp, ebp
  00025	5d		 pop	 ebp
  00026	c3		 ret	 0
$LN2@wndMgrGetW:

; 535  : 
; 536  : 	RECT & rRect = pWindow->GetRect();

  00027	8b 45 fc	 mov	 eax, DWORD PTR _pWindow$[ebp]

; 537  : 	return Py_BuildValue("ii", rRect.left, rRect.top);

  0002a	ff 70 38	 push	 DWORD PTR [eax+56]
  0002d	ff 70 34	 push	 DWORD PTR [eax+52]
  00030	68 00 00 00 00	 push	 OFFSET ??_C@_02PDIHAGKM@ii@
  00035	ff 15 00 00 00
	00		 call	 DWORD PTR __imp__Py_BuildValue
  0003b	83 c4 0c	 add	 esp, 12			; 0000000cH

; 538  : }

  0003e	8b e5		 mov	 esp, ebp
  00040	5d		 pop	 ebp
  00041	c3		 ret	 0
?wndMgrGetWndGlobalPosition@@YAPAU_object@@PAU1@0@Z ENDP ; wndMgrGetWndGlobalPosition
_TEXT	ENDS
; Function compile flags: /Ogtp
; File C:\DS Project\DS Files\Source\ClientSource\Client\eterPythonLib\PythonWindowManagerModule.cpp
;	COMDAT ?wndMgrGetWndLocalPosition@@YAPAU_object@@PAU1@0@Z
_TEXT	SEGMENT
_lx$ = -12						; size = 4
_ly$ = -8						; size = 4
_pWin$ = -4						; size = 4
_poSelf$ = 8						; size = 4
_poArgs$ = 12						; size = 4
?wndMgrGetWndLocalPosition@@YAPAU_object@@PAU1@0@Z PROC	; wndMgrGetWndLocalPosition, COMDAT

; 519  : {

  00000	55		 push	 ebp
  00001	8b ec		 mov	 ebp, esp
  00003	83 ec 0c	 sub	 esp, 12			; 0000000cH

; 520  : 	UI::CWindow * pWin;
; 521  : 	if (!PyTuple_GetWindow(poArgs, 0, &pWin))

  00006	8d 45 fc	 lea	 eax, DWORD PTR _pWin$[ebp]
  00009	50		 push	 eax
  0000a	6a 00		 push	 0
  0000c	ff 75 0c	 push	 DWORD PTR _poArgs$[ebp]
  0000f	e8 00 00 00 00	 call	 ?PyTuple_GetWindow@@YA_NPAU_object@@HPAPAVCWindow@UI@@@Z ; PyTuple_GetWindow
  00014	83 c4 0c	 add	 esp, 12			; 0000000cH
  00017	84 c0		 test	 al, al
  00019	75 0e		 jne	 SHORT $LN2@wndMgrGetW

; 522  : 		return Py_BuildException();

  0001b	6a 00		 push	 0
  0001d	e8 00 00 00 00	 call	 ?Py_BuildException@@YAPAU_object@@PBDZZ ; Py_BuildException
  00022	83 c4 04	 add	 esp, 4

; 528  : }

  00025	8b e5		 mov	 esp, ebp
  00027	5d		 pop	 ebp
  00028	c3		 ret	 0
$LN2@wndMgrGetW:

; 523  : 
; 524  : 	long lx, ly;
; 525  : 	pWin->GetPosition(&lx, &ly);

  00029	8b 4d fc	 mov	 ecx, DWORD PTR _pWin$[ebp]
  0002c	8d 45 f8	 lea	 eax, DWORD PTR _ly$[ebp]
  0002f	50		 push	 eax
  00030	8d 45 f4	 lea	 eax, DWORD PTR _lx$[ebp]
  00033	50		 push	 eax
  00034	e8 00 00 00 00	 call	 ?GetPosition@CWindow@UI@@QAEXPAJ0@Z ; UI::CWindow::GetPosition

; 526  : 
; 527  : 	return Py_BuildValue("ii", lx, ly);

  00039	ff 75 f8	 push	 DWORD PTR _ly$[ebp]
  0003c	ff 75 f4	 push	 DWORD PTR _lx$[ebp]
  0003f	68 00 00 00 00	 push	 OFFSET ??_C@_02PDIHAGKM@ii@
  00044	ff 15 00 00 00
	00		 call	 DWORD PTR __imp__Py_BuildValue
  0004a	83 c4 0c	 add	 esp, 12			; 0000000cH

; 528  : }

  0004d	8b e5		 mov	 esp, ebp
  0004f	5d		 pop	 ebp
  00050	c3		 ret	 0
?wndMgrGetWndLocalPosition@@YAPAU_object@@PAU1@0@Z ENDP	; wndMgrGetWndLocalPosition
_TEXT	ENDS
; Function compile flags: /Ogtp
; File C:\DS Project\DS Files\Source\ClientSource\Client\eterPythonLib\PythonWindowManagerModule.cpp
;	COMDAT ?wndMgrGetWndHeight@@YAPAU_object@@PAU1@0@Z
_TEXT	SEGMENT
_pWin$ = -4						; size = 4
_poSelf$ = 8						; size = 4
_poArgs$ = 12						; size = 4
?wndMgrGetWndHeight@@YAPAU_object@@PAU1@0@Z PROC	; wndMgrGetWndHeight, COMDAT

; 510  : {

  00000	55		 push	 ebp
  00001	8b ec		 mov	 ebp, esp
  00003	51		 push	 ecx

; 511  : 	UI::CWindow * pWin;
; 512  : 	if (!PyTuple_GetWindow(poArgs, 0, &pWin))

  00004	8d 45 fc	 lea	 eax, DWORD PTR _pWin$[ebp]
  00007	50		 push	 eax
  00008	6a 00		 push	 0
  0000a	ff 75 0c	 push	 DWORD PTR _poArgs$[ebp]
  0000d	e8 00 00 00 00	 call	 ?PyTuple_GetWindow@@YA_NPAU_object@@HPAPAVCWindow@UI@@@Z ; PyTuple_GetWindow
  00012	83 c4 0c	 add	 esp, 12			; 0000000cH
  00015	84 c0		 test	 al, al
  00017	75 0e		 jne	 SHORT $LN2@wndMgrGetW

; 513  : 		return Py_BuildException();

  00019	6a 00		 push	 0
  0001b	e8 00 00 00 00	 call	 ?Py_BuildException@@YAPAU_object@@PBDZZ ; Py_BuildException
  00020	83 c4 04	 add	 esp, 4

; 516  : }

  00023	8b e5		 mov	 esp, ebp
  00025	5d		 pop	 ebp
  00026	c3		 ret	 0
$LN2@wndMgrGetW:

; 514  : 
; 515  : 	return Py_BuildValue("i", pWin->GetHeight());

  00027	8b 45 fc	 mov	 eax, DWORD PTR _pWin$[ebp]
  0002a	ff 70 30	 push	 DWORD PTR [eax+48]
  0002d	68 00 00 00 00	 push	 OFFSET ??_C@_01KBJDNOO@i@
  00032	ff 15 00 00 00
	00		 call	 DWORD PTR __imp__Py_BuildValue
  00038	83 c4 08	 add	 esp, 8

; 516  : }

  0003b	8b e5		 mov	 esp, ebp
  0003d	5d		 pop	 ebp
  0003e	c3		 ret	 0
?wndMgrGetWndHeight@@YAPAU_object@@PAU1@0@Z ENDP	; wndMgrGetWndHeight
_TEXT	ENDS
; Function compile flags: /Ogtp
; File C:\DS Project\DS Files\Source\ClientSource\Client\eterPythonLib\PythonWindowManagerModule.cpp
;	COMDAT ?wndMgrGetWndWidth@@YAPAU_object@@PAU1@0@Z
_TEXT	SEGMENT
_pWin$ = -4						; size = 4
_poSelf$ = 8						; size = 4
_poArgs$ = 12						; size = 4
?wndMgrGetWndWidth@@YAPAU_object@@PAU1@0@Z PROC		; wndMgrGetWndWidth, COMDAT

; 501  : {

  00000	55		 push	 ebp
  00001	8b ec		 mov	 ebp, esp
  00003	51		 push	 ecx

; 502  : 	UI::CWindow * pWin;
; 503  : 	if (!PyTuple_GetWindow(poArgs, 0, &pWin))

  00004	8d 45 fc	 lea	 eax, DWORD PTR _pWin$[ebp]
  00007	50		 push	 eax
  00008	6a 00		 push	 0
  0000a	ff 75 0c	 push	 DWORD PTR _poArgs$[ebp]
  0000d	e8 00 00 00 00	 call	 ?PyTuple_GetWindow@@YA_NPAU_object@@HPAPAVCWindow@UI@@@Z ; PyTuple_GetWindow
  00012	83 c4 0c	 add	 esp, 12			; 0000000cH
  00015	84 c0		 test	 al, al
  00017	75 0e		 jne	 SHORT $LN2@wndMgrGetW

; 504  : 		return Py_BuildException();

  00019	6a 00		 push	 0
  0001b	e8 00 00 00 00	 call	 ?Py_BuildException@@YAPAU_object@@PBDZZ ; Py_BuildException
  00020	83 c4 04	 add	 esp, 4

; 507  : }

  00023	8b e5		 mov	 esp, ebp
  00025	5d		 pop	 ebp
  00026	c3		 ret	 0
$LN2@wndMgrGetW:

; 505  : 
; 506  : 	return Py_BuildValue("i", pWin->GetWidth());

  00027	8b 45 fc	 mov	 eax, DWORD PTR _pWin$[ebp]
  0002a	ff 70 2c	 push	 DWORD PTR [eax+44]
  0002d	68 00 00 00 00	 push	 OFFSET ??_C@_01KBJDNOO@i@
  00032	ff 15 00 00 00
	00		 call	 DWORD PTR __imp__Py_BuildValue
  00038	83 c4 08	 add	 esp, 8

; 507  : }

  0003b	8b e5		 mov	 esp, ebp
  0003d	5d		 pop	 ebp
  0003e	c3		 ret	 0
?wndMgrGetWndWidth@@YAPAU_object@@PAU1@0@Z ENDP		; wndMgrGetWndWidth
_TEXT	ENDS
; Function compile flags: /Ogtp
; File C:\DS Project\DS Files\Source\ClientSource\Client\eterPythonLib\PythonWindowManagerModule.cpp
; File C:\Program Files (x86)\Microsoft Visual Studio\2019\Community\VC\Tools\MSVC\14.27.29110\include\xstring
; File C:\DS Project\DS Files\Source\ClientSource\Client\eterPythonLib\PythonWindowManagerModule.cpp
;	COMDAT ?wndMgrGetName@@YAPAU_object@@PAU1@0@Z
_TEXT	SEGMENT
_pWin$ = -4						; size = 4
_poSelf$ = 8						; size = 4
_poArgs$ = 12						; size = 4
?wndMgrGetName@@YAPAU_object@@PAU1@0@Z PROC		; wndMgrGetName, COMDAT

; 492  : {

  00000	55		 push	 ebp
  00001	8b ec		 mov	 ebp, esp
  00003	51		 push	 ecx

; 493  : 	UI::CWindow * pWin;
; 494  : 	if (!PyTuple_GetWindow(poArgs, 0, &pWin))

  00004	8d 45 fc	 lea	 eax, DWORD PTR _pWin$[ebp]
  00007	50		 push	 eax
  00008	6a 00		 push	 0
  0000a	ff 75 0c	 push	 DWORD PTR _poArgs$[ebp]
  0000d	e8 00 00 00 00	 call	 ?PyTuple_GetWindow@@YA_NPAU_object@@HPAPAVCWindow@UI@@@Z ; PyTuple_GetWindow
  00012	83 c4 0c	 add	 esp, 12			; 0000000cH
  00015	84 c0		 test	 al, al
  00017	75 0e		 jne	 SHORT $LN2@wndMgrGetN

; 495  : 		return Py_BuildException();

  00019	6a 00		 push	 0
  0001b	e8 00 00 00 00	 call	 ?Py_BuildException@@YAPAU_object@@PBDZZ ; Py_BuildException
  00020	83 c4 04	 add	 esp, 4

; 498  : }

  00023	8b e5		 mov	 esp, ebp
  00025	5d		 pop	 ebp
  00026	c3		 ret	 0
$LN2@wndMgrGetN:
; File C:\Program Files (x86)\Microsoft Visual Studio\2019\Community\VC\Tools\MSVC\14.27.29110\include\xstring

; 3668 :         return _Mypair._Myval2._Myptr();

  00027	8b 45 fc	 mov	 eax, DWORD PTR _pWin$[ebp]
  0002a	83 c0 04	 add	 eax, 4

; 2153 :         return _BUF_SIZE <= _Myres;

  0002d	83 78 14 10	 cmp	 DWORD PTR [eax+20], 16	; 00000010H

; 2145 :         if (_Large_string_engaged()) {

  00031	72 02		 jb	 SHORT $LN9@wndMgrGetN

; 2146 :             _Result = _Unfancy(_Bx._Ptr);

  00033	8b 00		 mov	 eax, DWORD PTR [eax]
$LN9@wndMgrGetN:
; File C:\DS Project\DS Files\Source\ClientSource\Client\eterPythonLib\PythonWindowManagerModule.cpp

; 497  : 	return Py_BuildValue("s", pWin->GetName());

  00035	50		 push	 eax
  00036	68 00 00 00 00	 push	 OFFSET ??_C@_01LKDEMHDF@s@
  0003b	ff 15 00 00 00
	00		 call	 DWORD PTR __imp__Py_BuildValue
  00041	83 c4 08	 add	 esp, 8

; 498  : }

  00044	8b e5		 mov	 esp, ebp
  00046	5d		 pop	 ebp
  00047	c3		 ret	 0
?wndMgrGetName@@YAPAU_object@@PAU1@0@Z ENDP		; wndMgrGetName
_TEXT	ENDS
; Function compile flags: /Ogtp
; File C:\DS Project\DS Files\Source\ClientSource\Client\eterPythonLib\PythonWindowManagerModule.cpp
;	COMDAT ?wndMgrSetWndPosition@@YAPAU_object@@PAU1@0@Z
_TEXT	SEGMENT
_pWin$ = -12						; size = 4
_x$ = -8						; size = 4
_y$ = -4						; size = 4
_poSelf$ = 8						; size = 4
_poArgs$ = 12						; size = 4
?wndMgrSetWndPosition@@YAPAU_object@@PAU1@0@Z PROC	; wndMgrSetWndPosition, COMDAT

; 476  : {

  00000	55		 push	 ebp
  00001	8b ec		 mov	 ebp, esp
  00003	83 ec 0c	 sub	 esp, 12			; 0000000cH

; 477  : 	UI::CWindow * pWin;
; 478  : 	if (!PyTuple_GetWindow(poArgs, 0, &pWin))

  00006	8d 45 f4	 lea	 eax, DWORD PTR _pWin$[ebp]
  00009	56		 push	 esi
  0000a	8b 75 0c	 mov	 esi, DWORD PTR _poArgs$[ebp]
  0000d	50		 push	 eax
  0000e	6a 00		 push	 0
  00010	56		 push	 esi
  00011	e8 00 00 00 00	 call	 ?PyTuple_GetWindow@@YA_NPAU_object@@HPAPAVCWindow@UI@@@Z ; PyTuple_GetWindow
  00016	83 c4 0c	 add	 esp, 12			; 0000000cH
  00019	84 c0		 test	 al, al
  0001b	75 0f		 jne	 SHORT $LN2@wndMgrSetW
$LN6@wndMgrSetW:

; 489  : }

  0001d	6a 00		 push	 0
  0001f	e8 00 00 00 00	 call	 ?Py_BuildException@@YAPAU_object@@PBDZZ ; Py_BuildException
  00024	83 c4 04	 add	 esp, 4
  00027	5e		 pop	 esi
  00028	8b e5		 mov	 esp, ebp
  0002a	5d		 pop	 ebp
  0002b	c3		 ret	 0
$LN2@wndMgrSetW:

; 479  : 		return Py_BuildException();
; 480  : 	int x;
; 481  : 	if (!PyTuple_GetInteger(poArgs, 1, &x))

  0002c	8d 45 f8	 lea	 eax, DWORD PTR _x$[ebp]
  0002f	50		 push	 eax
  00030	6a 01		 push	 1
  00032	56		 push	 esi
  00033	e8 00 00 00 00	 call	 ?PyTuple_GetInteger@@YA_NPAU_object@@HPAH@Z ; PyTuple_GetInteger
  00038	83 c4 0c	 add	 esp, 12			; 0000000cH
  0003b	84 c0		 test	 al, al
  0003d	74 de		 je	 SHORT $LN6@wndMgrSetW

; 482  : 		return Py_BuildException();
; 483  : 	int y;
; 484  : 	if (!PyTuple_GetInteger(poArgs, 2, &y))

  0003f	8d 45 fc	 lea	 eax, DWORD PTR _y$[ebp]
  00042	50		 push	 eax
  00043	6a 02		 push	 2
  00045	56		 push	 esi
  00046	e8 00 00 00 00	 call	 ?PyTuple_GetInteger@@YA_NPAU_object@@HPAH@Z ; PyTuple_GetInteger
  0004b	83 c4 0c	 add	 esp, 12			; 0000000cH
  0004e	84 c0		 test	 al, al
  00050	74 cb		 je	 SHORT $LN6@wndMgrSetW

; 485  : 		return Py_BuildException();
; 486  : 
; 487  : 	pWin->SetPosition(x, y);

  00052	ff 75 fc	 push	 DWORD PTR _y$[ebp]
  00055	8b 4d f4	 mov	 ecx, DWORD PTR _pWin$[ebp]
  00058	ff 75 f8	 push	 DWORD PTR _x$[ebp]
  0005b	e8 00 00 00 00	 call	 ?SetPosition@CWindow@UI@@QAEXJJ@Z ; UI::CWindow::SetPosition

; 488  : 	return Py_BuildNone();

  00060	e8 00 00 00 00	 call	 ?Py_BuildNone@@YAPAU_object@@XZ ; Py_BuildNone
  00065	5e		 pop	 esi

; 489  : }

  00066	8b e5		 mov	 esp, ebp
  00068	5d		 pop	 ebp
  00069	c3		 ret	 0
?wndMgrSetWndPosition@@YAPAU_object@@PAU1@0@Z ENDP	; wndMgrSetWndPosition
_TEXT	ENDS
; Function compile flags: /Ogtp
; File C:\DS Project\DS Files\Source\ClientSource\Client\eterPythonLib\PythonWindowManagerModule.cpp
;	COMDAT ?wndMgrSetWndSize@@YAPAU_object@@PAU1@0@Z
_TEXT	SEGMENT
_pWin$ = -12						; size = 4
_width$ = -8						; size = 4
_height$ = -4						; size = 4
_poSelf$ = 8						; size = 4
_poArgs$ = 12						; size = 4
?wndMgrSetWndSize@@YAPAU_object@@PAU1@0@Z PROC		; wndMgrSetWndSize, COMDAT

; 460  : {

  00000	55		 push	 ebp
  00001	8b ec		 mov	 ebp, esp
  00003	83 ec 0c	 sub	 esp, 12			; 0000000cH

; 461  : 	UI::CWindow * pWin;
; 462  : 	if (!PyTuple_GetWindow(poArgs, 0, &pWin))

  00006	8d 45 f4	 lea	 eax, DWORD PTR _pWin$[ebp]
  00009	56		 push	 esi
  0000a	8b 75 0c	 mov	 esi, DWORD PTR _poArgs$[ebp]
  0000d	50		 push	 eax
  0000e	6a 00		 push	 0
  00010	56		 push	 esi
  00011	e8 00 00 00 00	 call	 ?PyTuple_GetWindow@@YA_NPAU_object@@HPAPAVCWindow@UI@@@Z ; PyTuple_GetWindow
  00016	83 c4 0c	 add	 esp, 12			; 0000000cH
  00019	84 c0		 test	 al, al
  0001b	75 0f		 jne	 SHORT $LN2@wndMgrSetW
$LN6@wndMgrSetW:

; 473  : }

  0001d	6a 00		 push	 0
  0001f	e8 00 00 00 00	 call	 ?Py_BuildException@@YAPAU_object@@PBDZZ ; Py_BuildException
  00024	83 c4 04	 add	 esp, 4
  00027	5e		 pop	 esi
  00028	8b e5		 mov	 esp, ebp
  0002a	5d		 pop	 ebp
  0002b	c3		 ret	 0
$LN2@wndMgrSetW:

; 463  : 		return Py_BuildException();
; 464  : 	int width;
; 465  : 	if (!PyTuple_GetInteger(poArgs, 1, &width))

  0002c	8d 45 f8	 lea	 eax, DWORD PTR _width$[ebp]
  0002f	50		 push	 eax
  00030	6a 01		 push	 1
  00032	56		 push	 esi
  00033	e8 00 00 00 00	 call	 ?PyTuple_GetInteger@@YA_NPAU_object@@HPAH@Z ; PyTuple_GetInteger
  00038	83 c4 0c	 add	 esp, 12			; 0000000cH
  0003b	84 c0		 test	 al, al
  0003d	74 de		 je	 SHORT $LN6@wndMgrSetW

; 466  : 		return Py_BuildException();
; 467  : 	int height;
; 468  : 	if (!PyTuple_GetInteger(poArgs, 2, &height))

  0003f	8d 45 fc	 lea	 eax, DWORD PTR _height$[ebp]
  00042	50		 push	 eax
  00043	6a 02		 push	 2
  00045	56		 push	 esi
  00046	e8 00 00 00 00	 call	 ?PyTuple_GetInteger@@YA_NPAU_object@@HPAH@Z ; PyTuple_GetInteger
  0004b	83 c4 0c	 add	 esp, 12			; 0000000cH
  0004e	84 c0		 test	 al, al
  00050	74 cb		 je	 SHORT $LN6@wndMgrSetW

; 469  : 		return Py_BuildException();
; 470  : 
; 471  : 	pWin->SetSize(width, height);

  00052	ff 75 fc	 push	 DWORD PTR _height$[ebp]
  00055	8b 4d f4	 mov	 ecx, DWORD PTR _pWin$[ebp]
  00058	ff 75 f8	 push	 DWORD PTR _width$[ebp]
  0005b	e8 00 00 00 00	 call	 ?SetSize@CWindow@UI@@QAEXJJ@Z ; UI::CWindow::SetSize

; 472  : 	return Py_BuildNone();

  00060	e8 00 00 00 00	 call	 ?Py_BuildNone@@YAPAU_object@@XZ ; Py_BuildNone
  00065	5e		 pop	 esi

; 473  : }

  00066	8b e5		 mov	 esp, ebp
  00068	5d		 pop	 ebp
  00069	c3		 ret	 0
?wndMgrSetWndSize@@YAPAU_object@@PAU1@0@Z ENDP		; wndMgrSetWndSize
_TEXT	ENDS
; Function compile flags: /Ogtp
; File C:\DS Project\DS Files\Source\ClientSource\Client\eterPythonLib\PythonWindowManagerModule.cpp
;	COMDAT ?wndMgrSetPickAlways@@YAPAU_object@@PAU1@0@Z
_TEXT	SEGMENT
_pWin$ = -4						; size = 4
_poSelf$ = 8						; size = 4
_poArgs$ = 12						; size = 4
?wndMgrSetPickAlways@@YAPAU_object@@PAU1@0@Z PROC	; wndMgrSetPickAlways, COMDAT

; 450  : {

  00000	55		 push	 ebp
  00001	8b ec		 mov	 ebp, esp
  00003	51		 push	 ecx

; 451  : 	UI::CWindow * pWin;
; 452  : 	if (!PyTuple_GetWindow(poArgs, 0, &pWin))

  00004	8d 45 fc	 lea	 eax, DWORD PTR _pWin$[ebp]
  00007	50		 push	 eax
  00008	6a 00		 push	 0
  0000a	ff 75 0c	 push	 DWORD PTR _poArgs$[ebp]
  0000d	e8 00 00 00 00	 call	 ?PyTuple_GetWindow@@YA_NPAU_object@@HPAPAVCWindow@UI@@@Z ; PyTuple_GetWindow
  00012	83 c4 0c	 add	 esp, 12			; 0000000cH
  00015	84 c0		 test	 al, al
  00017	75 0e		 jne	 SHORT $LN2@wndMgrSetP

; 453  : 		return Py_BuildException();

  00019	6a 00		 push	 0
  0001b	e8 00 00 00 00	 call	 ?Py_BuildException@@YAPAU_object@@PBDZZ ; Py_BuildException
  00020	83 c4 04	 add	 esp, 4

; 457  : }

  00023	8b e5		 mov	 esp, ebp
  00025	5d		 pop	 ebp
  00026	c3		 ret	 0
$LN2@wndMgrSetP:

; 454  : 
; 455  : 	UI::CWindowManager::Instance().SetPickAlways(pWin);

  00027	ff 75 fc	 push	 DWORD PTR _pWin$[ebp]
  0002a	8b 0d 00 00 00
	00		 mov	 ecx, DWORD PTR ?ms_singleton@?$CSingleton@VCWindowManager@UI@@@@0PAVCWindowManager@UI@@A ; CSingleton<UI::CWindowManager>::ms_singleton
  00030	e8 00 00 00 00	 call	 ?SetPickAlways@CWindowManager@UI@@QAEXPAVCWindow@2@@Z ; UI::CWindowManager::SetPickAlways

; 456  : 	return Py_BuildNone();

  00035	e8 00 00 00 00	 call	 ?Py_BuildNone@@YAPAU_object@@XZ ; Py_BuildNone

; 457  : }

  0003a	8b e5		 mov	 esp, ebp
  0003c	5d		 pop	 ebp
  0003d	c3		 ret	 0
?wndMgrSetPickAlways@@YAPAU_object@@PAU1@0@Z ENDP	; wndMgrSetPickAlways
_TEXT	ENDS
; Function compile flags: /Ogtp
; File C:\DS Project\DS Files\Source\ClientSource\Client\eterPythonLib\PythonWindowManagerModule.cpp
;	COMDAT ?wndMgrSetParent@@YAPAU_object@@PAU1@0@Z
_TEXT	SEGMENT
_pWin$ = -8						; size = 4
_pParentWin$ = -4					; size = 4
_poSelf$ = 8						; size = 4
_poArgs$ = 12						; size = 4
?wndMgrSetParent@@YAPAU_object@@PAU1@0@Z PROC		; wndMgrSetParent, COMDAT

; 437  : {

  00000	55		 push	 ebp
  00001	8b ec		 mov	 ebp, esp
  00003	83 ec 08	 sub	 esp, 8

; 438  : 	UI::CWindow * pWin;
; 439  : 	if (!PyTuple_GetWindow(poArgs, 0, &pWin))

  00006	8d 45 f8	 lea	 eax, DWORD PTR _pWin$[ebp]
  00009	50		 push	 eax
  0000a	6a 00		 push	 0
  0000c	ff 75 0c	 push	 DWORD PTR _poArgs$[ebp]
  0000f	e8 00 00 00 00	 call	 ?PyTuple_GetWindow@@YA_NPAU_object@@HPAPAVCWindow@UI@@@Z ; PyTuple_GetWindow
  00014	83 c4 0c	 add	 esp, 12			; 0000000cH
  00017	84 c0		 test	 al, al
  00019	75 0e		 jne	 SHORT $LN2@wndMgrSetP
$LN5@wndMgrSetP:

; 447  : }

  0001b	6a 00		 push	 0
  0001d	e8 00 00 00 00	 call	 ?Py_BuildException@@YAPAU_object@@PBDZZ ; Py_BuildException
  00022	83 c4 04	 add	 esp, 4
  00025	8b e5		 mov	 esp, ebp
  00027	5d		 pop	 ebp
  00028	c3		 ret	 0
$LN2@wndMgrSetP:

; 440  : 		return Py_BuildException();
; 441  : 	UI::CWindow * pParentWin;
; 442  : 	if (!PyTuple_GetWindow(poArgs, 1, &pParentWin))

  00029	8d 45 fc	 lea	 eax, DWORD PTR _pParentWin$[ebp]
  0002c	50		 push	 eax
  0002d	6a 01		 push	 1
  0002f	ff 75 0c	 push	 DWORD PTR _poArgs$[ebp]
  00032	e8 00 00 00 00	 call	 ?PyTuple_GetWindow@@YA_NPAU_object@@HPAPAVCWindow@UI@@@Z ; PyTuple_GetWindow
  00037	83 c4 0c	 add	 esp, 12			; 0000000cH
  0003a	84 c0		 test	 al, al
  0003c	74 dd		 je	 SHORT $LN5@wndMgrSetP

; 443  : 		return Py_BuildException();
; 444  : 
; 445  : 	UI::CWindowManager::Instance().SetParent(pWin, pParentWin);

  0003e	ff 75 fc	 push	 DWORD PTR _pParentWin$[ebp]
  00041	8b 0d 00 00 00
	00		 mov	 ecx, DWORD PTR ?ms_singleton@?$CSingleton@VCWindowManager@UI@@@@0PAVCWindowManager@UI@@A ; CSingleton<UI::CWindowManager>::ms_singleton
  00047	ff 75 f8	 push	 DWORD PTR _pWin$[ebp]
  0004a	e8 00 00 00 00	 call	 ?SetParent@CWindowManager@UI@@QAEXPAVCWindow@2@0@Z ; UI::CWindowManager::SetParent

; 446  : 	return Py_BuildNone();

  0004f	e8 00 00 00 00	 call	 ?Py_BuildNone@@YAPAU_object@@XZ ; Py_BuildNone

; 447  : }

  00054	8b e5		 mov	 esp, ebp
  00056	5d		 pop	 ebp
  00057	c3		 ret	 0
?wndMgrSetParent@@YAPAU_object@@PAU1@0@Z ENDP		; wndMgrSetParent
_TEXT	ENDS
; Function compile flags: /Ogtp
; File C:\DS Project\DS Files\Source\ClientSource\Client\eterPythonLib\PythonWindowManagerModule.cpp
;	COMDAT ?wndMgrSetScreenSize@@YAPAU_object@@PAU1@0@Z
_TEXT	SEGMENT
_width$ = -8						; size = 4
_height$ = -4						; size = 4
_poSelf$ = 8						; size = 4
_poArgs$ = 12						; size = 4
?wndMgrSetScreenSize@@YAPAU_object@@PAU1@0@Z PROC	; wndMgrSetScreenSize, COMDAT

; 424  : {

  00000	55		 push	 ebp
  00001	8b ec		 mov	 ebp, esp
  00003	83 ec 08	 sub	 esp, 8

; 425  : 	int width;
; 426  : 	if (!PyTuple_GetInteger(poArgs, 0, &width))

  00006	8d 45 f8	 lea	 eax, DWORD PTR _width$[ebp]
  00009	50		 push	 eax
  0000a	6a 00		 push	 0
  0000c	ff 75 0c	 push	 DWORD PTR _poArgs$[ebp]
  0000f	e8 00 00 00 00	 call	 ?PyTuple_GetInteger@@YA_NPAU_object@@HPAH@Z ; PyTuple_GetInteger
  00014	83 c4 0c	 add	 esp, 12			; 0000000cH
  00017	84 c0		 test	 al, al
  00019	75 0e		 jne	 SHORT $LN2@wndMgrSetS
$LN5@wndMgrSetS:

; 434  : }

  0001b	6a 00		 push	 0
  0001d	e8 00 00 00 00	 call	 ?Py_BuildException@@YAPAU_object@@PBDZZ ; Py_BuildException
  00022	83 c4 04	 add	 esp, 4
  00025	8b e5		 mov	 esp, ebp
  00027	5d		 pop	 ebp
  00028	c3		 ret	 0
$LN2@wndMgrSetS:

; 427  : 		return Py_BuildException();
; 428  : 	int height;
; 429  : 	if (!PyTuple_GetInteger(poArgs, 1, &height))

  00029	8d 45 fc	 lea	 eax, DWORD PTR _height$[ebp]
  0002c	50		 push	 eax
  0002d	6a 01		 push	 1
  0002f	ff 75 0c	 push	 DWORD PTR _poArgs$[ebp]
  00032	e8 00 00 00 00	 call	 ?PyTuple_GetInteger@@YA_NPAU_object@@HPAH@Z ; PyTuple_GetInteger
  00037	83 c4 0c	 add	 esp, 12			; 0000000cH
  0003a	84 c0		 test	 al, al
  0003c	74 dd		 je	 SHORT $LN5@wndMgrSetS

; 430  : 		return Py_BuildException();
; 431  : 
; 432  : 	UI::CWindowManager::Instance().SetScreenSize(width, height);

  0003e	ff 75 fc	 push	 DWORD PTR _height$[ebp]
  00041	8b 0d 00 00 00
	00		 mov	 ecx, DWORD PTR ?ms_singleton@?$CSingleton@VCWindowManager@UI@@@@0PAVCWindowManager@UI@@A ; CSingleton<UI::CWindowManager>::ms_singleton
  00047	ff 75 f8	 push	 DWORD PTR _width$[ebp]
  0004a	e8 00 00 00 00	 call	 ?SetScreenSize@CWindowManager@UI@@QAEXJJ@Z ; UI::CWindowManager::SetScreenSize

; 433  : 	return Py_BuildNone();

  0004f	e8 00 00 00 00	 call	 ?Py_BuildNone@@YAPAU_object@@XZ ; Py_BuildNone

; 434  : }

  00054	8b e5		 mov	 esp, ebp
  00056	5d		 pop	 ebp
  00057	c3		 ret	 0
?wndMgrSetScreenSize@@YAPAU_object@@PAU1@0@Z ENDP	; wndMgrSetScreenSize
_TEXT	ENDS
; Function compile flags: /Ogtp
; File C:\DS Project\DS Files\Source\ClientSource\Client\eterPythonLib\PythonWindowManagerModule.cpp
;	COMDAT ?wndMgrSetScrollable@@YAPAU_object@@PAU1@0@Z
_TEXT	SEGMENT
_pWin$ = -4						; size = 4
_poSelf$ = 8						; size = 4
_poArgs$ = 12						; size = 4
?wndMgrSetScrollable@@YAPAU_object@@PAU1@0@Z PROC	; wndMgrSetScrollable, COMDAT

; 411  : {

  00000	55		 push	 ebp
  00001	8b ec		 mov	 ebp, esp
  00003	51		 push	 ecx

; 412  : 	UI::CWindow * pWin;
; 413  : 	if (!PyTuple_GetWindow(poArgs, 0, &pWin))

  00004	8d 45 fc	 lea	 eax, DWORD PTR _pWin$[ebp]
  00007	50		 push	 eax
  00008	6a 00		 push	 0
  0000a	ff 75 0c	 push	 DWORD PTR _poArgs$[ebp]
  0000d	e8 00 00 00 00	 call	 ?PyTuple_GetWindow@@YA_NPAU_object@@HPAPAVCWindow@UI@@@Z ; PyTuple_GetWindow
  00012	83 c4 0c	 add	 esp, 12			; 0000000cH
  00015	84 c0		 test	 al, al
  00017	75 0e		 jne	 SHORT $LN2@wndMgrSetS

; 414  : 		return Py_BuildException();

  00019	6a 00		 push	 0
  0001b	e8 00 00 00 00	 call	 ?Py_BuildException@@YAPAU_object@@PBDZZ ; Py_BuildException
  00020	83 c4 04	 add	 esp, 4

; 420  : }

  00023	8b e5		 mov	 esp, ebp
  00025	5d		 pop	 ebp
  00026	c3		 ret	 0
$LN2@wndMgrSetS:

; 415  : 
; 416  : 	if(pWin)

  00027	8b 4d fc	 mov	 ecx, DWORD PTR _pWin$[ebp]
  0002a	85 c9		 test	 ecx, ecx
  0002c	74 05		 je	 SHORT $LN3@wndMgrSetS

; 417  : 		pWin->SetScrollable();

  0002e	8b 01		 mov	 eax, DWORD PTR [ecx]
  00030	ff 50 7c	 call	 DWORD PTR [eax+124]
$LN3@wndMgrSetS:

; 418  : 
; 419  : 	return Py_BuildNone();

  00033	e8 00 00 00 00	 call	 ?Py_BuildNone@@YAPAU_object@@XZ ; Py_BuildNone

; 420  : }

  00038	8b e5		 mov	 esp, ebp
  0003a	5d		 pop	 ebp
  0003b	c3		 ret	 0
?wndMgrSetScrollable@@YAPAU_object@@PAU1@0@Z ENDP	; wndMgrSetScrollable
_TEXT	ENDS
; Function compile flags: /Ogtp
; File C:\DS Project\DS Files\Source\ClientSource\Client\eterPythonLib\PythonWindowManagerModule.cpp
;	COMDAT ?wndMgrIsRTL@@YAPAU_object@@PAU1@0@Z
_TEXT	SEGMENT
_pWin$ = -4						; size = 4
_poSelf$ = 8						; size = 4
_poArgs$ = 12						; size = 4
?wndMgrIsRTL@@YAPAU_object@@PAU1@0@Z PROC		; wndMgrIsRTL, COMDAT

; 401  : {

  00000	55		 push	 ebp
  00001	8b ec		 mov	 ebp, esp
  00003	51		 push	 ecx

; 402  : 	UI::CWindow * pWin;
; 403  : 	if (!PyTuple_GetWindow(poArgs, 0, &pWin))

  00004	8d 45 fc	 lea	 eax, DWORD PTR _pWin$[ebp]
  00007	50		 push	 eax
  00008	6a 00		 push	 0
  0000a	ff 75 0c	 push	 DWORD PTR _poArgs$[ebp]
  0000d	e8 00 00 00 00	 call	 ?PyTuple_GetWindow@@YA_NPAU_object@@HPAPAVCWindow@UI@@@Z ; PyTuple_GetWindow
  00012	83 c4 0c	 add	 esp, 12			; 0000000cH
  00015	84 c0		 test	 al, al
  00017	75 0e		 jne	 SHORT $LN2@wndMgrIsRT

; 404  : 		return Py_BuildException();

  00019	6a 00		 push	 0
  0001b	e8 00 00 00 00	 call	 ?Py_BuildException@@YAPAU_object@@PBDZZ ; Py_BuildException
  00020	83 c4 04	 add	 esp, 4

; 407  : }

  00023	8b e5		 mov	 esp, ebp
  00025	5d		 pop	 ebp
  00026	c3		 ret	 0
$LN2@wndMgrIsRT:

; 405  : 
; 406  : 	return Py_BuildValue("i", pWin->IsFlag(UI::CWindow::FLAG_RTL));

  00027	8b 45 fc	 mov	 eax, DWORD PTR _pWin$[ebp]
  0002a	8b 40 58	 mov	 eax, DWORD PTR [eax+88]
  0002d	c1 e8 0b	 shr	 eax, 11			; 0000000bH
  00030	83 e0 01	 and	 eax, 1
  00033	50		 push	 eax
  00034	68 00 00 00 00	 push	 OFFSET ??_C@_01KBJDNOO@i@
  00039	ff 15 00 00 00
	00		 call	 DWORD PTR __imp__Py_BuildValue
  0003f	83 c4 08	 add	 esp, 8

; 407  : }

  00042	8b e5		 mov	 esp, ebp
  00044	5d		 pop	 ebp
  00045	c3		 ret	 0
?wndMgrIsRTL@@YAPAU_object@@PAU1@0@Z ENDP		; wndMgrIsRTL
_TEXT	ENDS
; Function compile flags: /Ogtp
; File C:\DS Project\DS Files\Source\ClientSource\Client\eterPythonLib\PythonWindowManagerModule.cpp
;	COMDAT ?wndMgrIsShow@@YAPAU_object@@PAU1@0@Z
_TEXT	SEGMENT
_pWin$ = -4						; size = 4
_poSelf$ = 8						; size = 4
_poArgs$ = 12						; size = 4
?wndMgrIsShow@@YAPAU_object@@PAU1@0@Z PROC		; wndMgrIsShow, COMDAT

; 392  : {

  00000	55		 push	 ebp
  00001	8b ec		 mov	 ebp, esp
  00003	51		 push	 ecx

; 393  : 	UI::CWindow * pWin;
; 394  : 	if (!PyTuple_GetWindow(poArgs, 0, &pWin))

  00004	8d 45 fc	 lea	 eax, DWORD PTR _pWin$[ebp]
  00007	50		 push	 eax
  00008	6a 00		 push	 0
  0000a	ff 75 0c	 push	 DWORD PTR _poArgs$[ebp]
  0000d	e8 00 00 00 00	 call	 ?PyTuple_GetWindow@@YA_NPAU_object@@HPAPAVCWindow@UI@@@Z ; PyTuple_GetWindow
  00012	83 c4 0c	 add	 esp, 12			; 0000000cH
  00015	84 c0		 test	 al, al
  00017	75 0e		 jne	 SHORT $LN2@wndMgrIsSh

; 395  : 		return Py_BuildException();

  00019	6a 00		 push	 0
  0001b	e8 00 00 00 00	 call	 ?Py_BuildException@@YAPAU_object@@PBDZZ ; Py_BuildException
  00020	83 c4 04	 add	 esp, 4

; 398  : }

  00023	8b e5		 mov	 esp, ebp
  00025	5d		 pop	 ebp
  00026	c3		 ret	 0
$LN2@wndMgrIsSh:

; 396  : 
; 397  : 	return Py_BuildValue("i", pWin->IsShow());

  00027	8b 45 fc	 mov	 eax, DWORD PTR _pWin$[ebp]
  0002a	0f b6 40 55	 movzx	 eax, BYTE PTR [eax+85]
  0002e	50		 push	 eax
  0002f	68 00 00 00 00	 push	 OFFSET ??_C@_01KBJDNOO@i@
  00034	ff 15 00 00 00
	00		 call	 DWORD PTR __imp__Py_BuildValue
  0003a	83 c4 08	 add	 esp, 8

; 398  : }

  0003d	8b e5		 mov	 esp, ebp
  0003f	5d		 pop	 ebp
  00040	c3		 ret	 0
?wndMgrIsShow@@YAPAU_object@@PAU1@0@Z ENDP		; wndMgrIsShow
_TEXT	ENDS
; Function compile flags: /Ogtp
; File C:\DS Project\DS Files\Source\ClientSource\Client\eterPythonLib\PythonWindowManagerModule.cpp
;	COMDAT ?wndMgrHide@@YAPAU_object@@PAU1@0@Z
_TEXT	SEGMENT
_pWin$ = -4						; size = 4
_poSelf$ = 8						; size = 4
_poArgs$ = 12						; size = 4
?wndMgrHide@@YAPAU_object@@PAU1@0@Z PROC		; wndMgrHide, COMDAT

; 382  : {

  00000	55		 push	 ebp
  00001	8b ec		 mov	 ebp, esp
  00003	51		 push	 ecx

; 383  : 	UI::CWindow * pWin;
; 384  : 	if (!PyTuple_GetWindow(poArgs, 0, &pWin))

  00004	8d 45 fc	 lea	 eax, DWORD PTR _pWin$[ebp]
  00007	50		 push	 eax
  00008	6a 00		 push	 0
  0000a	ff 75 0c	 push	 DWORD PTR _poArgs$[ebp]
  0000d	e8 00 00 00 00	 call	 ?PyTuple_GetWindow@@YA_NPAU_object@@HPAPAVCWindow@UI@@@Z ; PyTuple_GetWindow
  00012	83 c4 0c	 add	 esp, 12			; 0000000cH
  00015	84 c0		 test	 al, al
  00017	75 0e		 jne	 SHORT $LN2@wndMgrHide

; 385  : 		return Py_BuildException();

  00019	6a 00		 push	 0
  0001b	e8 00 00 00 00	 call	 ?Py_BuildException@@YAPAU_object@@PBDZZ ; Py_BuildException
  00020	83 c4 04	 add	 esp, 4

; 389  : }

  00023	8b e5		 mov	 esp, ebp
  00025	5d		 pop	 ebp
  00026	c3		 ret	 0
$LN2@wndMgrHide:

; 386  : 
; 387  : 	pWin->Hide();

  00027	8b 4d fc	 mov	 ecx, DWORD PTR _pWin$[ebp]
  0002a	e8 00 00 00 00	 call	 ?Hide@CWindow@UI@@QAEXXZ ; UI::CWindow::Hide

; 388  : 	return Py_BuildNone();

  0002f	e8 00 00 00 00	 call	 ?Py_BuildNone@@YAPAU_object@@XZ ; Py_BuildNone

; 389  : }

  00034	8b e5		 mov	 esp, ebp
  00036	5d		 pop	 ebp
  00037	c3		 ret	 0
?wndMgrHide@@YAPAU_object@@PAU1@0@Z ENDP		; wndMgrHide
_TEXT	ENDS
; Function compile flags: /Ogtp
; File C:\DS Project\DS Files\Source\ClientSource\Client\eterPythonLib\PythonWindowManagerModule.cpp
;	COMDAT ?wndMgrShow@@YAPAU_object@@PAU1@0@Z
_TEXT	SEGMENT
_pWin$ = -4						; size = 4
_poSelf$ = 8						; size = 4
_poArgs$ = 12						; size = 4
?wndMgrShow@@YAPAU_object@@PAU1@0@Z PROC		; wndMgrShow, COMDAT

; 372  : {

  00000	55		 push	 ebp
  00001	8b ec		 mov	 ebp, esp
  00003	51		 push	 ecx

; 373  : 	UI::CWindow * pWin;
; 374  : 	if (!PyTuple_GetWindow(poArgs, 0, &pWin))

  00004	8d 45 fc	 lea	 eax, DWORD PTR _pWin$[ebp]
  00007	50		 push	 eax
  00008	6a 00		 push	 0
  0000a	ff 75 0c	 push	 DWORD PTR _poArgs$[ebp]
  0000d	e8 00 00 00 00	 call	 ?PyTuple_GetWindow@@YA_NPAU_object@@HPAPAVCWindow@UI@@@Z ; PyTuple_GetWindow
  00012	83 c4 0c	 add	 esp, 12			; 0000000cH
  00015	84 c0		 test	 al, al
  00017	75 0e		 jne	 SHORT $LN2@wndMgrShow

; 375  : 		return Py_BuildException();

  00019	6a 00		 push	 0
  0001b	e8 00 00 00 00	 call	 ?Py_BuildException@@YAPAU_object@@PBDZZ ; Py_BuildException
  00020	83 c4 04	 add	 esp, 4

; 379  : }

  00023	8b e5		 mov	 esp, ebp
  00025	5d		 pop	 ebp
  00026	c3		 ret	 0
$LN2@wndMgrShow:

; 376  : 
; 377  : 	pWin->Show();

  00027	8b 4d fc	 mov	 ecx, DWORD PTR _pWin$[ebp]
  0002a	e8 00 00 00 00	 call	 ?Show@CWindow@UI@@QAEXXZ ; UI::CWindow::Show

; 378  : 	return Py_BuildNone();

  0002f	e8 00 00 00 00	 call	 ?Py_BuildNone@@YAPAU_object@@XZ ; Py_BuildNone

; 379  : }

  00034	8b e5		 mov	 esp, ebp
  00036	5d		 pop	 ebp
  00037	c3		 ret	 0
?wndMgrShow@@YAPAU_object@@PAU1@0@Z ENDP		; wndMgrShow
_TEXT	ENDS
; Function compile flags: /Ogtp
; File C:\DS Project\DS Files\Source\ClientSource\Client\eterPythonLib\PythonWindowManagerModule.cpp
;	COMDAT ?wndMgrSetTop@@YAPAU_object@@PAU1@0@Z
_TEXT	SEGMENT
_pWin$ = -4						; size = 4
_poSelf$ = 8						; size = 4
_poArgs$ = 12						; size = 4
?wndMgrSetTop@@YAPAU_object@@PAU1@0@Z PROC		; wndMgrSetTop, COMDAT

; 362  : {

  00000	55		 push	 ebp
  00001	8b ec		 mov	 ebp, esp
  00003	51		 push	 ecx

; 363  : 	UI::CWindow * pWin;
; 364  : 	if (!PyTuple_GetWindow(poArgs, 0, &pWin))

  00004	8d 45 fc	 lea	 eax, DWORD PTR _pWin$[ebp]
  00007	50		 push	 eax
  00008	6a 00		 push	 0
  0000a	ff 75 0c	 push	 DWORD PTR _poArgs$[ebp]
  0000d	e8 00 00 00 00	 call	 ?PyTuple_GetWindow@@YA_NPAU_object@@HPAPAVCWindow@UI@@@Z ; PyTuple_GetWindow
  00012	83 c4 0c	 add	 esp, 12			; 0000000cH
  00015	84 c0		 test	 al, al
  00017	75 0e		 jne	 SHORT $LN2@wndMgrSetT

; 365  : 		return Py_BuildException();

  00019	6a 00		 push	 0
  0001b	e8 00 00 00 00	 call	 ?Py_BuildException@@YAPAU_object@@PBDZZ ; Py_BuildException
  00020	83 c4 04	 add	 esp, 4

; 369  : }

  00023	8b e5		 mov	 esp, ebp
  00025	5d		 pop	 ebp
  00026	c3		 ret	 0
$LN2@wndMgrSetT:

; 366  : 
; 367  : 	UI::CWindowManager::Instance().SetTop(pWin);

  00027	ff 75 fc	 push	 DWORD PTR _pWin$[ebp]
  0002a	8b 0d 00 00 00
	00		 mov	 ecx, DWORD PTR ?ms_singleton@?$CSingleton@VCWindowManager@UI@@@@0PAVCWindowManager@UI@@A ; CSingleton<UI::CWindowManager>::ms_singleton
  00030	e8 00 00 00 00	 call	 ?SetTop@CWindowManager@UI@@QAEXPAVCWindow@2@@Z ; UI::CWindowManager::SetTop

; 368  : 	return Py_BuildNone();

  00035	e8 00 00 00 00	 call	 ?Py_BuildNone@@YAPAU_object@@XZ ; Py_BuildNone

; 369  : }

  0003a	8b e5		 mov	 esp, ebp
  0003c	5d		 pop	 ebp
  0003d	c3		 ret	 0
?wndMgrSetTop@@YAPAU_object@@PAU1@0@Z ENDP		; wndMgrSetTop
_TEXT	ENDS
; Function compile flags: /Ogtp
; File C:\DS Project\DS Files\Source\ClientSource\Client\eterPythonLib\PythonWindowManagerModule.cpp
;	COMDAT ?wndMgrSetName@@YAPAU_object@@PAU1@0@Z
_TEXT	SEGMENT
_pWin$ = -8						; size = 4
_szName$ = -4						; size = 4
_poSelf$ = 8						; size = 4
_poArgs$ = 12						; size = 4
?wndMgrSetName@@YAPAU_object@@PAU1@0@Z PROC		; wndMgrSetName, COMDAT

; 349  : {

  00000	55		 push	 ebp
  00001	8b ec		 mov	 ebp, esp
  00003	83 ec 08	 sub	 esp, 8

; 350  : 	UI::CWindow * pWin;
; 351  : 	if (!PyTuple_GetWindow(poArgs, 0, &pWin))

  00006	8d 45 f8	 lea	 eax, DWORD PTR _pWin$[ebp]
  00009	50		 push	 eax
  0000a	6a 00		 push	 0
  0000c	ff 75 0c	 push	 DWORD PTR _poArgs$[ebp]
  0000f	e8 00 00 00 00	 call	 ?PyTuple_GetWindow@@YA_NPAU_object@@HPAPAVCWindow@UI@@@Z ; PyTuple_GetWindow
  00014	83 c4 0c	 add	 esp, 12			; 0000000cH
  00017	84 c0		 test	 al, al
  00019	75 0e		 jne	 SHORT $LN2@wndMgrSetN
$LN5@wndMgrSetN:

; 359  : }

  0001b	6a 00		 push	 0
  0001d	e8 00 00 00 00	 call	 ?Py_BuildException@@YAPAU_object@@PBDZZ ; Py_BuildException
  00022	83 c4 04	 add	 esp, 4
  00025	8b e5		 mov	 esp, ebp
  00027	5d		 pop	 ebp
  00028	c3		 ret	 0
$LN2@wndMgrSetN:

; 352  : 		return Py_BuildException();
; 353  : 	char * szName;
; 354  : 	if (!PyTuple_GetString(poArgs, 1, &szName))

  00029	8d 45 fc	 lea	 eax, DWORD PTR _szName$[ebp]
  0002c	50		 push	 eax
  0002d	6a 01		 push	 1
  0002f	ff 75 0c	 push	 DWORD PTR _poArgs$[ebp]
  00032	e8 00 00 00 00	 call	 ?PyTuple_GetString@@YA_NPAU_object@@HPAPAD@Z ; PyTuple_GetString
  00037	83 c4 0c	 add	 esp, 12			; 0000000cH
  0003a	84 c0		 test	 al, al
  0003c	74 dd		 je	 SHORT $LN5@wndMgrSetN

; 355  : 		return Py_BuildException();
; 356  : 
; 357  : 	pWin->SetName(szName);

  0003e	ff 75 fc	 push	 DWORD PTR _szName$[ebp]
  00041	8b 4d f8	 mov	 ecx, DWORD PTR _pWin$[ebp]
  00044	e8 00 00 00 00	 call	 ?SetName@CWindow@UI@@QAEXPBD@Z ; UI::CWindow::SetName

; 358  : 	return Py_BuildNone();

  00049	e8 00 00 00 00	 call	 ?Py_BuildNone@@YAPAU_object@@XZ ; Py_BuildNone

; 359  : }

  0004e	8b e5		 mov	 esp, ebp
  00050	5d		 pop	 ebp
  00051	c3		 ret	 0
?wndMgrSetName@@YAPAU_object@@PAU1@0@Z ENDP		; wndMgrSetName
_TEXT	ENDS
; Function compile flags: /Ogtp
; File C:\DS Project\DS Files\Source\ClientSource\Client\eterPythonLib\PythonWindowManagerModule.cpp
;	COMDAT ?wndMgrUnlock@@YAPAU_object@@PAU1@0@Z
_TEXT	SEGMENT
_poSelf$ = 8						; size = 4
_poArgs$ = 12						; size = 4
?wndMgrUnlock@@YAPAU_object@@PAU1@0@Z PROC		; wndMgrUnlock, COMDAT

; 344  : 	UI::CWindowManager::Instance().UnlockWindow();

  00000	8b 0d 00 00 00
	00		 mov	 ecx, DWORD PTR ?ms_singleton@?$CSingleton@VCWindowManager@UI@@@@0PAVCWindowManager@UI@@A ; CSingleton<UI::CWindowManager>::ms_singleton
  00006	e8 00 00 00 00	 call	 ?UnlockWindow@CWindowManager@UI@@QAEXXZ ; UI::CWindowManager::UnlockWindow

; 345  : 	return Py_BuildNone();

  0000b	e9 00 00 00 00	 jmp	 ?Py_BuildNone@@YAPAU_object@@XZ ; Py_BuildNone
?wndMgrUnlock@@YAPAU_object@@PAU1@0@Z ENDP		; wndMgrUnlock
_TEXT	ENDS
; Function compile flags: /Ogtp
; File C:\DS Project\DS Files\Source\ClientSource\Client\eterPythonLib\PythonWindowManagerModule.cpp
;	COMDAT ?wndMgrLock@@YAPAU_object@@PAU1@0@Z
_TEXT	SEGMENT
_pWin$ = -4						; size = 4
_poSelf$ = 8						; size = 4
_poArgs$ = 12						; size = 4
?wndMgrLock@@YAPAU_object@@PAU1@0@Z PROC		; wndMgrLock, COMDAT

; 333  : {

  00000	55		 push	 ebp
  00001	8b ec		 mov	 ebp, esp
  00003	51		 push	 ecx

; 334  : 	UI::CWindow * pWin;
; 335  : 	if (!PyTuple_GetWindow(poArgs, 0, &pWin))

  00004	8d 45 fc	 lea	 eax, DWORD PTR _pWin$[ebp]
  00007	50		 push	 eax
  00008	6a 00		 push	 0
  0000a	ff 75 0c	 push	 DWORD PTR _poArgs$[ebp]
  0000d	e8 00 00 00 00	 call	 ?PyTuple_GetWindow@@YA_NPAU_object@@HPAPAVCWindow@UI@@@Z ; PyTuple_GetWindow
  00012	83 c4 0c	 add	 esp, 12			; 0000000cH
  00015	84 c0		 test	 al, al
  00017	75 0e		 jne	 SHORT $LN2@wndMgrLock

; 336  : 		return Py_BuildException();

  00019	6a 00		 push	 0
  0001b	e8 00 00 00 00	 call	 ?Py_BuildException@@YAPAU_object@@PBDZZ ; Py_BuildException
  00020	83 c4 04	 add	 esp, 4

; 340  : }

  00023	8b e5		 mov	 esp, ebp
  00025	5d		 pop	 ebp
  00026	c3		 ret	 0
$LN2@wndMgrLock:

; 337  : 
; 338  : 	UI::CWindowManager::Instance().LockWindow(pWin);

  00027	ff 75 fc	 push	 DWORD PTR _pWin$[ebp]
  0002a	8b 0d 00 00 00
	00		 mov	 ecx, DWORD PTR ?ms_singleton@?$CSingleton@VCWindowManager@UI@@@@0PAVCWindowManager@UI@@A ; CSingleton<UI::CWindowManager>::ms_singleton
  00030	e8 00 00 00 00	 call	 ?LockWindow@CWindowManager@UI@@QAEXPAVCWindow@2@@Z ; UI::CWindowManager::LockWindow

; 339  : 	return Py_BuildNone();

  00035	e8 00 00 00 00	 call	 ?Py_BuildNone@@YAPAU_object@@XZ ; Py_BuildNone

; 340  : }

  0003a	8b e5		 mov	 esp, ebp
  0003c	5d		 pop	 ebp
  0003d	c3		 ret	 0
?wndMgrLock@@YAPAU_object@@PAU1@0@Z ENDP		; wndMgrLock
_TEXT	ENDS
; Function compile flags: /Ogtp
; File C:\DS Project\DS Files\Source\ClientSource\Client\eterPythonLib\PythonWindowManagerModule.cpp
;	COMDAT ?wndMgrKillFocus@@YAPAU_object@@PAU1@0@Z
_TEXT	SEGMENT
_pWin$ = -4						; size = 4
_poSelf$ = 8						; size = 4
_poArgs$ = 12						; size = 4
?wndMgrKillFocus@@YAPAU_object@@PAU1@0@Z PROC		; wndMgrKillFocus, COMDAT

; 315  : {

  00000	55		 push	 ebp
  00001	8b ec		 mov	 ebp, esp
  00003	51		 push	 ecx

; 316  : 	UI::CWindow * pWin;
; 317  : 	if (PyTuple_GetWindow(poArgs, 0, &pWin))

  00004	8d 45 fc	 lea	 eax, DWORD PTR _pWin$[ebp]
  00007	50		 push	 eax
  00008	6a 00		 push	 0
  0000a	ff 75 0c	 push	 DWORD PTR _poArgs$[ebp]
  0000d	e8 00 00 00 00	 call	 ?PyTuple_GetWindow@@YA_NPAU_object@@HPAPAVCWindow@UI@@@Z ; PyTuple_GetWindow
  00012	8b 0d 00 00 00
	00		 mov	 ecx, DWORD PTR ?ms_singleton@?$CSingleton@VCWindowManager@UI@@@@0PAVCWindowManager@UI@@A ; CSingleton<UI::CWindowManager>::ms_singleton
  00018	83 c4 0c	 add	 esp, 12			; 0000000cH
  0001b	84 c0		 test	 al, al
  0001d	74 10		 je	 SHORT $LN2@wndMgrKill

; 318  : 	{
; 319  : 		if (pWin == UI::CWindowManager::Instance().GetActivateWindow())

  0001f	e8 00 00 00 00	 call	 ?GetActivateWindow@CWindowManager@UI@@QAEPAVCWindow@2@XZ ; UI::CWindowManager::GetActivateWindow
  00024	39 45 fc	 cmp	 DWORD PTR _pWin$[ebp], eax
  00027	75 0b		 jne	 SHORT $LN3@wndMgrKill

; 320  : 		{
; 321  : 			UI::CWindowManager::Instance().DeactivateWindow();

  00029	8b 0d 00 00 00
	00		 mov	 ecx, DWORD PTR ?ms_singleton@?$CSingleton@VCWindowManager@UI@@@@0PAVCWindowManager@UI@@A ; CSingleton<UI::CWindowManager>::ms_singleton
$LN2@wndMgrKill:

; 322  : 		}
; 323  : 	}
; 324  : 	else
; 325  : 	{
; 326  : 		UI::CWindowManager::Instance().DeactivateWindow();
; 327  : 	}
; 328  : 
; 329  : 	return Py_BuildNone();

  0002f	e8 00 00 00 00	 call	 ?DeactivateWindow@CWindowManager@UI@@QAEXXZ ; UI::CWindowManager::DeactivateWindow
$LN3@wndMgrKill:
  00034	e8 00 00 00 00	 call	 ?Py_BuildNone@@YAPAU_object@@XZ ; Py_BuildNone

; 330  : }

  00039	8b e5		 mov	 esp, ebp
  0003b	5d		 pop	 ebp
  0003c	c3		 ret	 0
?wndMgrKillFocus@@YAPAU_object@@PAU1@0@Z ENDP		; wndMgrKillFocus
_TEXT	ENDS
; Function compile flags: /Ogtp
; File C:\DS Project\DS Files\Source\ClientSource\Client\eterPythonLib\PythonWindowManagerModule.cpp
;	COMDAT ?wndMgrSetFocus@@YAPAU_object@@PAU1@0@Z
_TEXT	SEGMENT
_pWin$ = -4						; size = 4
_poSelf$ = 8						; size = 4
_poArgs$ = 12						; size = 4
?wndMgrSetFocus@@YAPAU_object@@PAU1@0@Z PROC		; wndMgrSetFocus, COMDAT

; 305  : {

  00000	55		 push	 ebp
  00001	8b ec		 mov	 ebp, esp
  00003	51		 push	 ecx

; 306  : 	UI::CWindow * pWin;
; 307  : 	if (!PyTuple_GetWindow(poArgs, 0, &pWin))

  00004	8d 45 fc	 lea	 eax, DWORD PTR _pWin$[ebp]
  00007	50		 push	 eax
  00008	6a 00		 push	 0
  0000a	ff 75 0c	 push	 DWORD PTR _poArgs$[ebp]
  0000d	e8 00 00 00 00	 call	 ?PyTuple_GetWindow@@YA_NPAU_object@@HPAPAVCWindow@UI@@@Z ; PyTuple_GetWindow
  00012	83 c4 0c	 add	 esp, 12			; 0000000cH
  00015	84 c0		 test	 al, al
  00017	75 0e		 jne	 SHORT $LN2@wndMgrSetF

; 308  : 		return Py_BuildException();

  00019	6a 00		 push	 0
  0001b	e8 00 00 00 00	 call	 ?Py_BuildException@@YAPAU_object@@PBDZZ ; Py_BuildException
  00020	83 c4 04	 add	 esp, 4

; 312  : }

  00023	8b e5		 mov	 esp, ebp
  00025	5d		 pop	 ebp
  00026	c3		 ret	 0
$LN2@wndMgrSetF:

; 309  : 
; 310  : 	UI::CWindowManager::Instance().ActivateWindow(pWin);

  00027	ff 75 fc	 push	 DWORD PTR _pWin$[ebp]
  0002a	8b 0d 00 00 00
	00		 mov	 ecx, DWORD PTR ?ms_singleton@?$CSingleton@VCWindowManager@UI@@@@0PAVCWindowManager@UI@@A ; CSingleton<UI::CWindowManager>::ms_singleton
  00030	e8 00 00 00 00	 call	 ?ActivateWindow@CWindowManager@UI@@QAEXPAVCWindow@2@@Z ; UI::CWindowManager::ActivateWindow

; 311  : 	return Py_BuildNone();

  00035	e8 00 00 00 00	 call	 ?Py_BuildNone@@YAPAU_object@@XZ ; Py_BuildNone

; 312  : }

  0003a	8b e5		 mov	 esp, ebp
  0003c	5d		 pop	 ebp
  0003d	c3		 ret	 0
?wndMgrSetFocus@@YAPAU_object@@PAU1@0@Z ENDP		; wndMgrSetFocus
_TEXT	ENDS
; Function compile flags: /Ogtp
; File C:\DS Project\DS Files\Source\ClientSource\Client\eterPythonLib\PythonWindowManagerModule.cpp
;	COMDAT ?wndMgrIsFocus@@YAPAU_object@@PAU1@0@Z
_TEXT	SEGMENT
_pWindow$ = -4						; size = 4
_poSelf$ = 8						; size = 4
_poArgs$ = 12						; size = 4
?wndMgrIsFocus@@YAPAU_object@@PAU1@0@Z PROC		; wndMgrIsFocus, COMDAT

; 296  : {

  00000	55		 push	 ebp
  00001	8b ec		 mov	 ebp, esp
  00003	51		 push	 ecx

; 297  : 	UI::CWindow * pWindow;
; 298  : 	if (!PyTuple_GetWindow(poArgs, 0, &pWindow))

  00004	8d 45 fc	 lea	 eax, DWORD PTR _pWindow$[ebp]
  00007	50		 push	 eax
  00008	6a 00		 push	 0
  0000a	ff 75 0c	 push	 DWORD PTR _poArgs$[ebp]
  0000d	e8 00 00 00 00	 call	 ?PyTuple_GetWindow@@YA_NPAU_object@@HPAPAVCWindow@UI@@@Z ; PyTuple_GetWindow
  00012	83 c4 0c	 add	 esp, 12			; 0000000cH
  00015	84 c0		 test	 al, al
  00017	75 0e		 jne	 SHORT $LN2@wndMgrIsFo

; 299  : 		return Py_BuildException();

  00019	6a 00		 push	 0
  0001b	e8 00 00 00 00	 call	 ?Py_BuildException@@YAPAU_object@@PBDZZ ; Py_BuildException
  00020	83 c4 04	 add	 esp, 4

; 302  : }

  00023	8b e5		 mov	 esp, ebp
  00025	5d		 pop	 ebp
  00026	c3		 ret	 0
$LN2@wndMgrIsFo:

; 300  : 
; 301  : 	return Py_BuildValue("i", pWindow == UI::CWindowManager::Instance().GetActivateWindow());

  00027	8b 0d 00 00 00
	00		 mov	 ecx, DWORD PTR ?ms_singleton@?$CSingleton@VCWindowManager@UI@@@@0PAVCWindowManager@UI@@A ; CSingleton<UI::CWindowManager>::ms_singleton
  0002d	e8 00 00 00 00	 call	 ?GetActivateWindow@CWindowManager@UI@@QAEPAVCWindow@2@XZ ; UI::CWindowManager::GetActivateWindow
  00032	33 c9		 xor	 ecx, ecx
  00034	39 45 fc	 cmp	 DWORD PTR _pWindow$[ebp], eax
  00037	0f 94 c1	 sete	 cl
  0003a	51		 push	 ecx
  0003b	68 00 00 00 00	 push	 OFFSET ??_C@_01KBJDNOO@i@
  00040	ff 15 00 00 00
	00		 call	 DWORD PTR __imp__Py_BuildValue
  00046	83 c4 08	 add	 esp, 8

; 302  : }

  00049	8b e5		 mov	 esp, ebp
  0004b	5d		 pop	 ebp
  0004c	c3		 ret	 0
?wndMgrIsFocus@@YAPAU_object@@PAU1@0@Z ENDP		; wndMgrIsFocus
_TEXT	ENDS
; Function compile flags: /Ogtp
; File C:\DS Project\DS Files\Source\ClientSource\Client\eterPythonLib\PythonWindowManagerModule.cpp
;	COMDAT ?wndMgrDestroy@@YAPAU_object@@PAU1@0@Z
_TEXT	SEGMENT
_pWin$ = -4						; size = 4
_poSelf$ = 8						; size = 4
_poArgs$ = 12						; size = 4
?wndMgrDestroy@@YAPAU_object@@PAU1@0@Z PROC		; wndMgrDestroy, COMDAT

; 286  : {

  00000	55		 push	 ebp
  00001	8b ec		 mov	 ebp, esp
  00003	51		 push	 ecx

; 287  : 	UI::CWindow * pWin;
; 288  : 	if (!PyTuple_GetWindow(poArgs, 0, &pWin))

  00004	8d 45 fc	 lea	 eax, DWORD PTR _pWin$[ebp]
  00007	50		 push	 eax
  00008	6a 00		 push	 0
  0000a	ff 75 0c	 push	 DWORD PTR _poArgs$[ebp]
  0000d	e8 00 00 00 00	 call	 ?PyTuple_GetWindow@@YA_NPAU_object@@HPAPAVCWindow@UI@@@Z ; PyTuple_GetWindow
  00012	83 c4 0c	 add	 esp, 12			; 0000000cH
  00015	84 c0		 test	 al, al
  00017	75 0e		 jne	 SHORT $LN2@wndMgrDest

; 289  : 		return Py_BuildException();

  00019	6a 00		 push	 0
  0001b	e8 00 00 00 00	 call	 ?Py_BuildException@@YAPAU_object@@PBDZZ ; Py_BuildException
  00020	83 c4 04	 add	 esp, 4

; 293  : }

  00023	8b e5		 mov	 esp, ebp
  00025	5d		 pop	 ebp
  00026	c3		 ret	 0
$LN2@wndMgrDest:

; 290  : 
; 291  : 	UI::CWindowManager::Instance().DestroyWindow(pWin);

  00027	ff 75 fc	 push	 DWORD PTR _pWin$[ebp]
  0002a	8b 0d 00 00 00
	00		 mov	 ecx, DWORD PTR ?ms_singleton@?$CSingleton@VCWindowManager@UI@@@@0PAVCWindowManager@UI@@A ; CSingleton<UI::CWindowManager>::ms_singleton
  00030	e8 00 00 00 00	 call	 ?DestroyWindow@CWindowManager@UI@@QAEXPAVCWindow@2@@Z ; UI::CWindowManager::DestroyWindow

; 292  : 	return Py_BuildNone();

  00035	e8 00 00 00 00	 call	 ?Py_BuildNone@@YAPAU_object@@XZ ; Py_BuildNone

; 293  : }

  0003a	8b e5		 mov	 esp, ebp
  0003c	5d		 pop	 ebp
  0003d	c3		 ret	 0
?wndMgrDestroy@@YAPAU_object@@PAU1@0@Z ENDP		; wndMgrDestroy
_TEXT	ENDS
; Function compile flags: /Ogtp
; File C:\DS Project\DS Files\Source\ClientSource\Client\eterPythonLib\PythonWindowManagerModule.cpp
;	COMDAT ?wndMgrRegisterNumberLine@@YAPAU_object@@PAU1@0@Z
_TEXT	SEGMENT
_po$ = -8						; size = 4
_szLayer$ = -4						; size = 4
_poSelf$ = 8						; size = 4
_poArgs$ = 12						; size = 4
?wndMgrRegisterNumberLine@@YAPAU_object@@PAU1@0@Z PROC	; wndMgrRegisterNumberLine, COMDAT

; 271  : {

  00000	55		 push	 ebp
  00001	8b ec		 mov	 ebp, esp
  00003	83 ec 08	 sub	 esp, 8

; 272  : 	PyObject * po;
; 273  : 	if (!PyTuple_GetObject(poArgs, 0, &po))

  00006	8d 45 f8	 lea	 eax, DWORD PTR _po$[ebp]
  00009	50		 push	 eax
  0000a	6a 00		 push	 0
  0000c	ff 75 0c	 push	 DWORD PTR _poArgs$[ebp]
  0000f	e8 00 00 00 00	 call	 ?PyTuple_GetObject@@YA_NPAU_object@@HPAPAU1@@Z ; PyTuple_GetObject
  00014	83 c4 0c	 add	 esp, 12			; 0000000cH
  00017	84 c0		 test	 al, al
  00019	75 0e		 jne	 SHORT $LN2@wndMgrRegi
$LN5@wndMgrRegi:

; 281  : }

  0001b	6a 00		 push	 0
  0001d	e8 00 00 00 00	 call	 ?Py_BuildException@@YAPAU_object@@PBDZZ ; Py_BuildException
  00022	83 c4 04	 add	 esp, 4
  00025	8b e5		 mov	 esp, ebp
  00027	5d		 pop	 ebp
  00028	c3		 ret	 0
$LN2@wndMgrRegi:

; 274  : 		return Py_BuildException();
; 275  : 	char * szLayer;
; 276  : 	if (!PyTuple_GetString(poArgs, 1, &szLayer))

  00029	8d 45 fc	 lea	 eax, DWORD PTR _szLayer$[ebp]
  0002c	50		 push	 eax
  0002d	6a 01		 push	 1
  0002f	ff 75 0c	 push	 DWORD PTR _poArgs$[ebp]
  00032	e8 00 00 00 00	 call	 ?PyTuple_GetString@@YA_NPAU_object@@HPAPAD@Z ; PyTuple_GetString
  00037	83 c4 0c	 add	 esp, 12			; 0000000cH
  0003a	84 c0		 test	 al, al
  0003c	74 dd		 je	 SHORT $LN5@wndMgrRegi

; 277  : 		return Py_BuildException();
; 278  : 
; 279  : 	UI::CWindow * pWindow = UI::CWindowManager::Instance().RegisterNumberLine(po, szLayer);

  0003e	ff 75 fc	 push	 DWORD PTR _szLayer$[ebp]
  00041	8b 0d 00 00 00
	00		 mov	 ecx, DWORD PTR ?ms_singleton@?$CSingleton@VCWindowManager@UI@@@@0PAVCWindowManager@UI@@A ; CSingleton<UI::CWindowManager>::ms_singleton
  00047	ff 75 f8	 push	 DWORD PTR _po$[ebp]
  0004a	e8 00 00 00 00	 call	 ?RegisterNumberLine@CWindowManager@UI@@QAEPAVCWindow@2@PAU_object@@PBD@Z ; UI::CWindowManager::RegisterNumberLine

; 280  : 	return Py_BuildValue("i", pWindow);

  0004f	50		 push	 eax
  00050	68 00 00 00 00	 push	 OFFSET ??_C@_01KBJDNOO@i@
  00055	ff 15 00 00 00
	00		 call	 DWORD PTR __imp__Py_BuildValue
  0005b	83 c4 08	 add	 esp, 8

; 281  : }

  0005e	8b e5		 mov	 esp, ebp
  00060	5d		 pop	 ebp
  00061	c3		 ret	 0
?wndMgrRegisterNumberLine@@YAPAU_object@@PAU1@0@Z ENDP	; wndMgrRegisterNumberLine
_TEXT	ENDS
; Function compile flags: /Ogtp
; File C:\DS Project\DS Files\Source\ClientSource\Client\eterPythonLib\PythonWindowManagerModule.cpp
;	COMDAT ?wndMgrRegisterBar3D@@YAPAU_object@@PAU1@0@Z
_TEXT	SEGMENT
_po$ = -8						; size = 4
_szLayer$ = -4						; size = 4
_poSelf$ = 8						; size = 4
_poArgs$ = 12						; size = 4
?wndMgrRegisterBar3D@@YAPAU_object@@PAU1@0@Z PROC	; wndMgrRegisterBar3D, COMDAT

; 257  : {

  00000	55		 push	 ebp
  00001	8b ec		 mov	 ebp, esp
  00003	83 ec 08	 sub	 esp, 8

; 258  : 	PyObject * po;
; 259  : 	if (!PyTuple_GetObject(poArgs, 0, &po))

  00006	8d 45 f8	 lea	 eax, DWORD PTR _po$[ebp]
  00009	50		 push	 eax
  0000a	6a 00		 push	 0
  0000c	ff 75 0c	 push	 DWORD PTR _poArgs$[ebp]
  0000f	e8 00 00 00 00	 call	 ?PyTuple_GetObject@@YA_NPAU_object@@HPAPAU1@@Z ; PyTuple_GetObject
  00014	83 c4 0c	 add	 esp, 12			; 0000000cH
  00017	84 c0		 test	 al, al
  00019	75 0e		 jne	 SHORT $LN2@wndMgrRegi
$LN5@wndMgrRegi:

; 267  : }

  0001b	6a 00		 push	 0
  0001d	e8 00 00 00 00	 call	 ?Py_BuildException@@YAPAU_object@@PBDZZ ; Py_BuildException
  00022	83 c4 04	 add	 esp, 4
  00025	8b e5		 mov	 esp, ebp
  00027	5d		 pop	 ebp
  00028	c3		 ret	 0
$LN2@wndMgrRegi:

; 260  : 		return Py_BuildException();
; 261  : 	char * szLayer;
; 262  : 	if (!PyTuple_GetString(poArgs, 1, &szLayer))

  00029	8d 45 fc	 lea	 eax, DWORD PTR _szLayer$[ebp]
  0002c	50		 push	 eax
  0002d	6a 01		 push	 1
  0002f	ff 75 0c	 push	 DWORD PTR _poArgs$[ebp]
  00032	e8 00 00 00 00	 call	 ?PyTuple_GetString@@YA_NPAU_object@@HPAPAD@Z ; PyTuple_GetString
  00037	83 c4 0c	 add	 esp, 12			; 0000000cH
  0003a	84 c0		 test	 al, al
  0003c	74 dd		 je	 SHORT $LN5@wndMgrRegi

; 263  : 		return Py_BuildException();
; 264  : 
; 265  : 	UI::CWindow * pWindow = UI::CWindowManager::Instance().RegisterBar3D(po, szLayer);

  0003e	ff 75 fc	 push	 DWORD PTR _szLayer$[ebp]
  00041	8b 0d 00 00 00
	00		 mov	 ecx, DWORD PTR ?ms_singleton@?$CSingleton@VCWindowManager@UI@@@@0PAVCWindowManager@UI@@A ; CSingleton<UI::CWindowManager>::ms_singleton
  00047	ff 75 f8	 push	 DWORD PTR _po$[ebp]
  0004a	e8 00 00 00 00	 call	 ?RegisterBar3D@CWindowManager@UI@@QAEPAVCWindow@2@PAU_object@@PBD@Z ; UI::CWindowManager::RegisterBar3D

; 266  : 	return Py_BuildValue("i", pWindow);

  0004f	50		 push	 eax
  00050	68 00 00 00 00	 push	 OFFSET ??_C@_01KBJDNOO@i@
  00055	ff 15 00 00 00
	00		 call	 DWORD PTR __imp__Py_BuildValue
  0005b	83 c4 08	 add	 esp, 8

; 267  : }

  0005e	8b e5		 mov	 esp, ebp
  00060	5d		 pop	 ebp
  00061	c3		 ret	 0
?wndMgrRegisterBar3D@@YAPAU_object@@PAU1@0@Z ENDP	; wndMgrRegisterBar3D
_TEXT	ENDS
; Function compile flags: /Ogtp
; File C:\DS Project\DS Files\Source\ClientSource\Client\eterPythonLib\PythonWindowManagerModule.cpp
;	COMDAT ?wndMgrRegisterLine@@YAPAU_object@@PAU1@0@Z
_TEXT	SEGMENT
_po$ = -8						; size = 4
_szLayer$ = -4						; size = 4
_poSelf$ = 8						; size = 4
_poArgs$ = 12						; size = 4
?wndMgrRegisterLine@@YAPAU_object@@PAU1@0@Z PROC	; wndMgrRegisterLine, COMDAT

; 243  : {

  00000	55		 push	 ebp
  00001	8b ec		 mov	 ebp, esp
  00003	83 ec 08	 sub	 esp, 8

; 244  : 	PyObject * po;
; 245  : 	if (!PyTuple_GetObject(poArgs, 0, &po))

  00006	8d 45 f8	 lea	 eax, DWORD PTR _po$[ebp]
  00009	50		 push	 eax
  0000a	6a 00		 push	 0
  0000c	ff 75 0c	 push	 DWORD PTR _poArgs$[ebp]
  0000f	e8 00 00 00 00	 call	 ?PyTuple_GetObject@@YA_NPAU_object@@HPAPAU1@@Z ; PyTuple_GetObject
  00014	83 c4 0c	 add	 esp, 12			; 0000000cH
  00017	84 c0		 test	 al, al
  00019	75 0e		 jne	 SHORT $LN2@wndMgrRegi
$LN5@wndMgrRegi:

; 253  : }

  0001b	6a 00		 push	 0
  0001d	e8 00 00 00 00	 call	 ?Py_BuildException@@YAPAU_object@@PBDZZ ; Py_BuildException
  00022	83 c4 04	 add	 esp, 4
  00025	8b e5		 mov	 esp, ebp
  00027	5d		 pop	 ebp
  00028	c3		 ret	 0
$LN2@wndMgrRegi:

; 246  : 		return Py_BuildException();
; 247  : 	char * szLayer;
; 248  : 	if (!PyTuple_GetString(poArgs, 1, &szLayer))

  00029	8d 45 fc	 lea	 eax, DWORD PTR _szLayer$[ebp]
  0002c	50		 push	 eax
  0002d	6a 01		 push	 1
  0002f	ff 75 0c	 push	 DWORD PTR _poArgs$[ebp]
  00032	e8 00 00 00 00	 call	 ?PyTuple_GetString@@YA_NPAU_object@@HPAPAD@Z ; PyTuple_GetString
  00037	83 c4 0c	 add	 esp, 12			; 0000000cH
  0003a	84 c0		 test	 al, al
  0003c	74 dd		 je	 SHORT $LN5@wndMgrRegi

; 249  : 		return Py_BuildException();
; 250  : 
; 251  : 	UI::CWindow * pWindow = UI::CWindowManager::Instance().RegisterLine(po, szLayer);

  0003e	ff 75 fc	 push	 DWORD PTR _szLayer$[ebp]
  00041	8b 0d 00 00 00
	00		 mov	 ecx, DWORD PTR ?ms_singleton@?$CSingleton@VCWindowManager@UI@@@@0PAVCWindowManager@UI@@A ; CSingleton<UI::CWindowManager>::ms_singleton
  00047	ff 75 f8	 push	 DWORD PTR _po$[ebp]
  0004a	e8 00 00 00 00	 call	 ?RegisterLine@CWindowManager@UI@@QAEPAVCWindow@2@PAU_object@@PBD@Z ; UI::CWindowManager::RegisterLine

; 252  : 	return Py_BuildValue("i", pWindow);

  0004f	50		 push	 eax
  00050	68 00 00 00 00	 push	 OFFSET ??_C@_01KBJDNOO@i@
  00055	ff 15 00 00 00
	00		 call	 DWORD PTR __imp__Py_BuildValue
  0005b	83 c4 08	 add	 esp, 8

; 253  : }

  0005e	8b e5		 mov	 esp, ebp
  00060	5d		 pop	 ebp
  00061	c3		 ret	 0
?wndMgrRegisterLine@@YAPAU_object@@PAU1@0@Z ENDP	; wndMgrRegisterLine
_TEXT	ENDS
; Function compile flags: /Ogtp
; File C:\DS Project\DS Files\Source\ClientSource\Client\eterPythonLib\PythonWindowManagerModule.cpp
;	COMDAT ?wndMgrRegisterBar@@YAPAU_object@@PAU1@0@Z
_TEXT	SEGMENT
_po$ = -8						; size = 4
_szLayer$ = -4						; size = 4
_poSelf$ = 8						; size = 4
_poArgs$ = 12						; size = 4
?wndMgrRegisterBar@@YAPAU_object@@PAU1@0@Z PROC		; wndMgrRegisterBar, COMDAT

; 229  : {

  00000	55		 push	 ebp
  00001	8b ec		 mov	 ebp, esp
  00003	83 ec 08	 sub	 esp, 8

; 230  : 	PyObject * po;
; 231  : 	if (!PyTuple_GetObject(poArgs, 0, &po))

  00006	8d 45 f8	 lea	 eax, DWORD PTR _po$[ebp]
  00009	50		 push	 eax
  0000a	6a 00		 push	 0
  0000c	ff 75 0c	 push	 DWORD PTR _poArgs$[ebp]
  0000f	e8 00 00 00 00	 call	 ?PyTuple_GetObject@@YA_NPAU_object@@HPAPAU1@@Z ; PyTuple_GetObject
  00014	83 c4 0c	 add	 esp, 12			; 0000000cH
  00017	84 c0		 test	 al, al
  00019	75 0e		 jne	 SHORT $LN2@wndMgrRegi
$LN5@wndMgrRegi:

; 239  : }

  0001b	6a 00		 push	 0
  0001d	e8 00 00 00 00	 call	 ?Py_BuildException@@YAPAU_object@@PBDZZ ; Py_BuildException
  00022	83 c4 04	 add	 esp, 4
  00025	8b e5		 mov	 esp, ebp
  00027	5d		 pop	 ebp
  00028	c3		 ret	 0
$LN2@wndMgrRegi:

; 232  : 		return Py_BuildException();
; 233  : 	char * szLayer;
; 234  : 	if (!PyTuple_GetString(poArgs, 1, &szLayer))

  00029	8d 45 fc	 lea	 eax, DWORD PTR _szLayer$[ebp]
  0002c	50		 push	 eax
  0002d	6a 01		 push	 1
  0002f	ff 75 0c	 push	 DWORD PTR _poArgs$[ebp]
  00032	e8 00 00 00 00	 call	 ?PyTuple_GetString@@YA_NPAU_object@@HPAPAD@Z ; PyTuple_GetString
  00037	83 c4 0c	 add	 esp, 12			; 0000000cH
  0003a	84 c0		 test	 al, al
  0003c	74 dd		 je	 SHORT $LN5@wndMgrRegi

; 235  : 		return Py_BuildException();
; 236  : 
; 237  : 	UI::CWindow * pWindow = UI::CWindowManager::Instance().RegisterBar(po, szLayer);

  0003e	ff 75 fc	 push	 DWORD PTR _szLayer$[ebp]
  00041	8b 0d 00 00 00
	00		 mov	 ecx, DWORD PTR ?ms_singleton@?$CSingleton@VCWindowManager@UI@@@@0PAVCWindowManager@UI@@A ; CSingleton<UI::CWindowManager>::ms_singleton
  00047	ff 75 f8	 push	 DWORD PTR _po$[ebp]
  0004a	e8 00 00 00 00	 call	 ?RegisterBar@CWindowManager@UI@@QAEPAVCWindow@2@PAU_object@@PBD@Z ; UI::CWindowManager::RegisterBar

; 238  : 	return Py_BuildValue("i", pWindow);

  0004f	50		 push	 eax
  00050	68 00 00 00 00	 push	 OFFSET ??_C@_01KBJDNOO@i@
  00055	ff 15 00 00 00
	00		 call	 DWORD PTR __imp__Py_BuildValue
  0005b	83 c4 08	 add	 esp, 8

; 239  : }

  0005e	8b e5		 mov	 esp, ebp
  00060	5d		 pop	 ebp
  00061	c3		 ret	 0
?wndMgrRegisterBar@@YAPAU_object@@PAU1@0@Z ENDP		; wndMgrRegisterBar
_TEXT	ENDS
; Function compile flags: /Ogtp
; File C:\DS Project\DS Files\Source\ClientSource\Client\eterPythonLib\PythonWindowManagerModule.cpp
;	COMDAT ?wndMgrRegisterBox@@YAPAU_object@@PAU1@0@Z
_TEXT	SEGMENT
_po$ = -8						; size = 4
_szLayer$ = -4						; size = 4
_poSelf$ = 8						; size = 4
_poArgs$ = 12						; size = 4
?wndMgrRegisterBox@@YAPAU_object@@PAU1@0@Z PROC		; wndMgrRegisterBox, COMDAT

; 215  : {

  00000	55		 push	 ebp
  00001	8b ec		 mov	 ebp, esp
  00003	83 ec 08	 sub	 esp, 8

; 216  : 	PyObject * po;
; 217  : 	if (!PyTuple_GetObject(poArgs, 0, &po))

  00006	8d 45 f8	 lea	 eax, DWORD PTR _po$[ebp]
  00009	50		 push	 eax
  0000a	6a 00		 push	 0
  0000c	ff 75 0c	 push	 DWORD PTR _poArgs$[ebp]
  0000f	e8 00 00 00 00	 call	 ?PyTuple_GetObject@@YA_NPAU_object@@HPAPAU1@@Z ; PyTuple_GetObject
  00014	83 c4 0c	 add	 esp, 12			; 0000000cH
  00017	84 c0		 test	 al, al
  00019	75 0e		 jne	 SHORT $LN2@wndMgrRegi
$LN5@wndMgrRegi:

; 225  : }

  0001b	6a 00		 push	 0
  0001d	e8 00 00 00 00	 call	 ?Py_BuildException@@YAPAU_object@@PBDZZ ; Py_BuildException
  00022	83 c4 04	 add	 esp, 4
  00025	8b e5		 mov	 esp, ebp
  00027	5d		 pop	 ebp
  00028	c3		 ret	 0
$LN2@wndMgrRegi:

; 218  : 		return Py_BuildException();
; 219  : 	char * szLayer;
; 220  : 	if (!PyTuple_GetString(poArgs, 1, &szLayer))

  00029	8d 45 fc	 lea	 eax, DWORD PTR _szLayer$[ebp]
  0002c	50		 push	 eax
  0002d	6a 01		 push	 1
  0002f	ff 75 0c	 push	 DWORD PTR _poArgs$[ebp]
  00032	e8 00 00 00 00	 call	 ?PyTuple_GetString@@YA_NPAU_object@@HPAPAD@Z ; PyTuple_GetString
  00037	83 c4 0c	 add	 esp, 12			; 0000000cH
  0003a	84 c0		 test	 al, al
  0003c	74 dd		 je	 SHORT $LN5@wndMgrRegi

; 221  : 		return Py_BuildException();
; 222  : 
; 223  : 	UI::CWindow * pWindow = UI::CWindowManager::Instance().RegisterBox(po, szLayer);

  0003e	ff 75 fc	 push	 DWORD PTR _szLayer$[ebp]
  00041	8b 0d 00 00 00
	00		 mov	 ecx, DWORD PTR ?ms_singleton@?$CSingleton@VCWindowManager@UI@@@@0PAVCWindowManager@UI@@A ; CSingleton<UI::CWindowManager>::ms_singleton
  00047	ff 75 f8	 push	 DWORD PTR _po$[ebp]
  0004a	e8 00 00 00 00	 call	 ?RegisterBox@CWindowManager@UI@@QAEPAVCWindow@2@PAU_object@@PBD@Z ; UI::CWindowManager::RegisterBox

; 224  : 	return Py_BuildValue("i", pWindow);

  0004f	50		 push	 eax
  00050	68 00 00 00 00	 push	 OFFSET ??_C@_01KBJDNOO@i@
  00055	ff 15 00 00 00
	00		 call	 DWORD PTR __imp__Py_BuildValue
  0005b	83 c4 08	 add	 esp, 8

; 225  : }

  0005e	8b e5		 mov	 esp, ebp
  00060	5d		 pop	 ebp
  00061	c3		 ret	 0
?wndMgrRegisterBox@@YAPAU_object@@PAU1@0@Z ENDP		; wndMgrRegisterBox
_TEXT	ENDS
; Function compile flags: /Ogtp
; File C:\DS Project\DS Files\Source\ClientSource\Client\eterPythonLib\PythonWindowManagerModule.cpp
;	COMDAT ?wndMgrRegisterDragButton@@YAPAU_object@@PAU1@0@Z
_TEXT	SEGMENT
_po$ = -8						; size = 4
_szLayer$ = -4						; size = 4
_poSelf$ = 8						; size = 4
_poArgs$ = 12						; size = 4
?wndMgrRegisterDragButton@@YAPAU_object@@PAU1@0@Z PROC	; wndMgrRegisterDragButton, COMDAT

; 201  : {

  00000	55		 push	 ebp
  00001	8b ec		 mov	 ebp, esp
  00003	83 ec 08	 sub	 esp, 8

; 202  : 	PyObject * po;
; 203  : 	if (!PyTuple_GetObject(poArgs, 0, &po))

  00006	8d 45 f8	 lea	 eax, DWORD PTR _po$[ebp]
  00009	50		 push	 eax
  0000a	6a 00		 push	 0
  0000c	ff 75 0c	 push	 DWORD PTR _poArgs$[ebp]
  0000f	e8 00 00 00 00	 call	 ?PyTuple_GetObject@@YA_NPAU_object@@HPAPAU1@@Z ; PyTuple_GetObject
  00014	83 c4 0c	 add	 esp, 12			; 0000000cH
  00017	84 c0		 test	 al, al
  00019	75 0e		 jne	 SHORT $LN2@wndMgrRegi
$LN5@wndMgrRegi:

; 211  : }

  0001b	6a 00		 push	 0
  0001d	e8 00 00 00 00	 call	 ?Py_BuildException@@YAPAU_object@@PBDZZ ; Py_BuildException
  00022	83 c4 04	 add	 esp, 4
  00025	8b e5		 mov	 esp, ebp
  00027	5d		 pop	 ebp
  00028	c3		 ret	 0
$LN2@wndMgrRegi:

; 204  : 		return Py_BuildException();
; 205  : 	char * szLayer;
; 206  : 	if (!PyTuple_GetString(poArgs, 1, &szLayer))

  00029	8d 45 fc	 lea	 eax, DWORD PTR _szLayer$[ebp]
  0002c	50		 push	 eax
  0002d	6a 01		 push	 1
  0002f	ff 75 0c	 push	 DWORD PTR _poArgs$[ebp]
  00032	e8 00 00 00 00	 call	 ?PyTuple_GetString@@YA_NPAU_object@@HPAPAD@Z ; PyTuple_GetString
  00037	83 c4 0c	 add	 esp, 12			; 0000000cH
  0003a	84 c0		 test	 al, al
  0003c	74 dd		 je	 SHORT $LN5@wndMgrRegi

; 207  : 		return Py_BuildException();
; 208  : 
; 209  : 	UI::CWindow * pWindow = UI::CWindowManager::Instance().RegisterDragButton(po, szLayer);

  0003e	ff 75 fc	 push	 DWORD PTR _szLayer$[ebp]
  00041	8b 0d 00 00 00
	00		 mov	 ecx, DWORD PTR ?ms_singleton@?$CSingleton@VCWindowManager@UI@@@@0PAVCWindowManager@UI@@A ; CSingleton<UI::CWindowManager>::ms_singleton
  00047	ff 75 f8	 push	 DWORD PTR _po$[ebp]
  0004a	e8 00 00 00 00	 call	 ?RegisterDragButton@CWindowManager@UI@@QAEPAVCWindow@2@PAU_object@@PBD@Z ; UI::CWindowManager::RegisterDragButton

; 210  : 	return Py_BuildValue("i", pWindow);

  0004f	50		 push	 eax
  00050	68 00 00 00 00	 push	 OFFSET ??_C@_01KBJDNOO@i@
  00055	ff 15 00 00 00
	00		 call	 DWORD PTR __imp__Py_BuildValue
  0005b	83 c4 08	 add	 esp, 8

; 211  : }

  0005e	8b e5		 mov	 esp, ebp
  00060	5d		 pop	 ebp
  00061	c3		 ret	 0
?wndMgrRegisterDragButton@@YAPAU_object@@PAU1@0@Z ENDP	; wndMgrRegisterDragButton
_TEXT	ENDS
; Function compile flags: /Ogtp
; File C:\DS Project\DS Files\Source\ClientSource\Client\eterPythonLib\PythonWindowManagerModule.cpp
;	COMDAT ?wndMgrRegisterToggleButton@@YAPAU_object@@PAU1@0@Z
_TEXT	SEGMENT
_po$ = -8						; size = 4
_szLayer$ = -4						; size = 4
_poSelf$ = 8						; size = 4
_poArgs$ = 12						; size = 4
?wndMgrRegisterToggleButton@@YAPAU_object@@PAU1@0@Z PROC ; wndMgrRegisterToggleButton, COMDAT

; 187  : {

  00000	55		 push	 ebp
  00001	8b ec		 mov	 ebp, esp
  00003	83 ec 08	 sub	 esp, 8

; 188  : 	PyObject * po;
; 189  : 	if (!PyTuple_GetObject(poArgs, 0, &po))

  00006	8d 45 f8	 lea	 eax, DWORD PTR _po$[ebp]
  00009	50		 push	 eax
  0000a	6a 00		 push	 0
  0000c	ff 75 0c	 push	 DWORD PTR _poArgs$[ebp]
  0000f	e8 00 00 00 00	 call	 ?PyTuple_GetObject@@YA_NPAU_object@@HPAPAU1@@Z ; PyTuple_GetObject
  00014	83 c4 0c	 add	 esp, 12			; 0000000cH
  00017	84 c0		 test	 al, al
  00019	75 0e		 jne	 SHORT $LN2@wndMgrRegi
$LN5@wndMgrRegi:

; 197  : }

  0001b	6a 00		 push	 0
  0001d	e8 00 00 00 00	 call	 ?Py_BuildException@@YAPAU_object@@PBDZZ ; Py_BuildException
  00022	83 c4 04	 add	 esp, 4
  00025	8b e5		 mov	 esp, ebp
  00027	5d		 pop	 ebp
  00028	c3		 ret	 0
$LN2@wndMgrRegi:

; 190  : 		return Py_BuildException();
; 191  : 	char * szLayer;
; 192  : 	if (!PyTuple_GetString(poArgs, 1, &szLayer))

  00029	8d 45 fc	 lea	 eax, DWORD PTR _szLayer$[ebp]
  0002c	50		 push	 eax
  0002d	6a 01		 push	 1
  0002f	ff 75 0c	 push	 DWORD PTR _poArgs$[ebp]
  00032	e8 00 00 00 00	 call	 ?PyTuple_GetString@@YA_NPAU_object@@HPAPAD@Z ; PyTuple_GetString
  00037	83 c4 0c	 add	 esp, 12			; 0000000cH
  0003a	84 c0		 test	 al, al
  0003c	74 dd		 je	 SHORT $LN5@wndMgrRegi

; 193  : 		return Py_BuildException();
; 194  : 
; 195  : 	UI::CWindow * pWindow = UI::CWindowManager::Instance().RegisterToggleButton(po, szLayer);

  0003e	ff 75 fc	 push	 DWORD PTR _szLayer$[ebp]
  00041	8b 0d 00 00 00
	00		 mov	 ecx, DWORD PTR ?ms_singleton@?$CSingleton@VCWindowManager@UI@@@@0PAVCWindowManager@UI@@A ; CSingleton<UI::CWindowManager>::ms_singleton
  00047	ff 75 f8	 push	 DWORD PTR _po$[ebp]
  0004a	e8 00 00 00 00	 call	 ?RegisterToggleButton@CWindowManager@UI@@QAEPAVCWindow@2@PAU_object@@PBD@Z ; UI::CWindowManager::RegisterToggleButton

; 196  : 	return Py_BuildValue("i", pWindow);

  0004f	50		 push	 eax
  00050	68 00 00 00 00	 push	 OFFSET ??_C@_01KBJDNOO@i@
  00055	ff 15 00 00 00
	00		 call	 DWORD PTR __imp__Py_BuildValue
  0005b	83 c4 08	 add	 esp, 8

; 197  : }

  0005e	8b e5		 mov	 esp, ebp
  00060	5d		 pop	 ebp
  00061	c3		 ret	 0
?wndMgrRegisterToggleButton@@YAPAU_object@@PAU1@0@Z ENDP ; wndMgrRegisterToggleButton
_TEXT	ENDS
; Function compile flags: /Ogtp
; File C:\DS Project\DS Files\Source\ClientSource\Client\eterPythonLib\PythonWindowManagerModule.cpp
;	COMDAT ?wndMgrRegisterRadioButton@@YAPAU_object@@PAU1@0@Z
_TEXT	SEGMENT
_po$ = -8						; size = 4
_szLayer$ = -4						; size = 4
_poSelf$ = 8						; size = 4
_poArgs$ = 12						; size = 4
?wndMgrRegisterRadioButton@@YAPAU_object@@PAU1@0@Z PROC	; wndMgrRegisterRadioButton, COMDAT

; 173  : {

  00000	55		 push	 ebp
  00001	8b ec		 mov	 ebp, esp
  00003	83 ec 08	 sub	 esp, 8

; 174  : 	PyObject * po;
; 175  : 	if (!PyTuple_GetObject(poArgs, 0, &po))

  00006	8d 45 f8	 lea	 eax, DWORD PTR _po$[ebp]
  00009	50		 push	 eax
  0000a	6a 00		 push	 0
  0000c	ff 75 0c	 push	 DWORD PTR _poArgs$[ebp]
  0000f	e8 00 00 00 00	 call	 ?PyTuple_GetObject@@YA_NPAU_object@@HPAPAU1@@Z ; PyTuple_GetObject
  00014	83 c4 0c	 add	 esp, 12			; 0000000cH
  00017	84 c0		 test	 al, al
  00019	75 0e		 jne	 SHORT $LN2@wndMgrRegi
$LN5@wndMgrRegi:

; 183  : }

  0001b	6a 00		 push	 0
  0001d	e8 00 00 00 00	 call	 ?Py_BuildException@@YAPAU_object@@PBDZZ ; Py_BuildException
  00022	83 c4 04	 add	 esp, 4
  00025	8b e5		 mov	 esp, ebp
  00027	5d		 pop	 ebp
  00028	c3		 ret	 0
$LN2@wndMgrRegi:

; 176  : 		return Py_BuildException();
; 177  : 	char * szLayer;
; 178  : 	if (!PyTuple_GetString(poArgs, 1, &szLayer))

  00029	8d 45 fc	 lea	 eax, DWORD PTR _szLayer$[ebp]
  0002c	50		 push	 eax
  0002d	6a 01		 push	 1
  0002f	ff 75 0c	 push	 DWORD PTR _poArgs$[ebp]
  00032	e8 00 00 00 00	 call	 ?PyTuple_GetString@@YA_NPAU_object@@HPAPAD@Z ; PyTuple_GetString
  00037	83 c4 0c	 add	 esp, 12			; 0000000cH
  0003a	84 c0		 test	 al, al
  0003c	74 dd		 je	 SHORT $LN5@wndMgrRegi

; 179  : 		return Py_BuildException();
; 180  : 
; 181  : 	UI::CWindow * pWindow = UI::CWindowManager::Instance().RegisterRadioButton(po, szLayer);

  0003e	ff 75 fc	 push	 DWORD PTR _szLayer$[ebp]
  00041	8b 0d 00 00 00
	00		 mov	 ecx, DWORD PTR ?ms_singleton@?$CSingleton@VCWindowManager@UI@@@@0PAVCWindowManager@UI@@A ; CSingleton<UI::CWindowManager>::ms_singleton
  00047	ff 75 f8	 push	 DWORD PTR _po$[ebp]
  0004a	e8 00 00 00 00	 call	 ?RegisterRadioButton@CWindowManager@UI@@QAEPAVCWindow@2@PAU_object@@PBD@Z ; UI::CWindowManager::RegisterRadioButton

; 182  : 	return Py_BuildValue("i", pWindow);

  0004f	50		 push	 eax
  00050	68 00 00 00 00	 push	 OFFSET ??_C@_01KBJDNOO@i@
  00055	ff 15 00 00 00
	00		 call	 DWORD PTR __imp__Py_BuildValue
  0005b	83 c4 08	 add	 esp, 8

; 183  : }

  0005e	8b e5		 mov	 esp, ebp
  00060	5d		 pop	 ebp
  00061	c3		 ret	 0
?wndMgrRegisterRadioButton@@YAPAU_object@@PAU1@0@Z ENDP	; wndMgrRegisterRadioButton
_TEXT	ENDS
; Function compile flags: /Ogtp
; File C:\DS Project\DS Files\Source\ClientSource\Client\eterPythonLib\PythonWindowManagerModule.cpp
;	COMDAT ?wndMgrRegisterButton@@YAPAU_object@@PAU1@0@Z
_TEXT	SEGMENT
_po$ = -8						; size = 4
_szLayer$ = -4						; size = 4
_poSelf$ = 8						; size = 4
_poArgs$ = 12						; size = 4
?wndMgrRegisterButton@@YAPAU_object@@PAU1@0@Z PROC	; wndMgrRegisterButton, COMDAT

; 159  : {

  00000	55		 push	 ebp
  00001	8b ec		 mov	 ebp, esp
  00003	83 ec 08	 sub	 esp, 8

; 160  : 	PyObject * po;
; 161  : 	if (!PyTuple_GetObject(poArgs, 0, &po))

  00006	8d 45 f8	 lea	 eax, DWORD PTR _po$[ebp]
  00009	50		 push	 eax
  0000a	6a 00		 push	 0
  0000c	ff 75 0c	 push	 DWORD PTR _poArgs$[ebp]
  0000f	e8 00 00 00 00	 call	 ?PyTuple_GetObject@@YA_NPAU_object@@HPAPAU1@@Z ; PyTuple_GetObject
  00014	83 c4 0c	 add	 esp, 12			; 0000000cH
  00017	84 c0		 test	 al, al
  00019	75 0e		 jne	 SHORT $LN2@wndMgrRegi
$LN5@wndMgrRegi:

; 169  : }

  0001b	6a 00		 push	 0
  0001d	e8 00 00 00 00	 call	 ?Py_BuildException@@YAPAU_object@@PBDZZ ; Py_BuildException
  00022	83 c4 04	 add	 esp, 4
  00025	8b e5		 mov	 esp, ebp
  00027	5d		 pop	 ebp
  00028	c3		 ret	 0
$LN2@wndMgrRegi:

; 162  : 		return Py_BuildException();
; 163  : 	char * szLayer;
; 164  : 	if (!PyTuple_GetString(poArgs, 1, &szLayer))

  00029	8d 45 fc	 lea	 eax, DWORD PTR _szLayer$[ebp]
  0002c	50		 push	 eax
  0002d	6a 01		 push	 1
  0002f	ff 75 0c	 push	 DWORD PTR _poArgs$[ebp]
  00032	e8 00 00 00 00	 call	 ?PyTuple_GetString@@YA_NPAU_object@@HPAPAD@Z ; PyTuple_GetString
  00037	83 c4 0c	 add	 esp, 12			; 0000000cH
  0003a	84 c0		 test	 al, al
  0003c	74 dd		 je	 SHORT $LN5@wndMgrRegi

; 165  : 		return Py_BuildException();
; 166  : 
; 167  : 	UI::CWindow * pWindow = UI::CWindowManager::Instance().RegisterButton(po, szLayer);

  0003e	ff 75 fc	 push	 DWORD PTR _szLayer$[ebp]
  00041	8b 0d 00 00 00
	00		 mov	 ecx, DWORD PTR ?ms_singleton@?$CSingleton@VCWindowManager@UI@@@@0PAVCWindowManager@UI@@A ; CSingleton<UI::CWindowManager>::ms_singleton
  00047	ff 75 f8	 push	 DWORD PTR _po$[ebp]
  0004a	e8 00 00 00 00	 call	 ?RegisterButton@CWindowManager@UI@@QAEPAVCWindow@2@PAU_object@@PBD@Z ; UI::CWindowManager::RegisterButton

; 168  : 	return Py_BuildValue("i", pWindow);

  0004f	50		 push	 eax
  00050	68 00 00 00 00	 push	 OFFSET ??_C@_01KBJDNOO@i@
  00055	ff 15 00 00 00
	00		 call	 DWORD PTR __imp__Py_BuildValue
  0005b	83 c4 08	 add	 esp, 8

; 169  : }

  0005e	8b e5		 mov	 esp, ebp
  00060	5d		 pop	 ebp
  00061	c3		 ret	 0
?wndMgrRegisterButton@@YAPAU_object@@PAU1@0@Z ENDP	; wndMgrRegisterButton
_TEXT	ENDS
; Function compile flags: /Ogtp
; File C:\DS Project\DS Files\Source\ClientSource\Client\eterPythonLib\PythonWindowManagerModule.cpp
;	COMDAT ?wndMgrRegisterAniImageBox@@YAPAU_object@@PAU1@0@Z
_TEXT	SEGMENT
_po$ = -8						; size = 4
_szLayer$ = -4						; size = 4
_poSelf$ = 8						; size = 4
_poArgs$ = 12						; size = 4
?wndMgrRegisterAniImageBox@@YAPAU_object@@PAU1@0@Z PROC	; wndMgrRegisterAniImageBox, COMDAT

; 145  : {

  00000	55		 push	 ebp
  00001	8b ec		 mov	 ebp, esp
  00003	83 ec 08	 sub	 esp, 8

; 146  : 	PyObject * po;
; 147  : 	if (!PyTuple_GetObject(poArgs, 0, &po))

  00006	8d 45 f8	 lea	 eax, DWORD PTR _po$[ebp]
  00009	50		 push	 eax
  0000a	6a 00		 push	 0
  0000c	ff 75 0c	 push	 DWORD PTR _poArgs$[ebp]
  0000f	e8 00 00 00 00	 call	 ?PyTuple_GetObject@@YA_NPAU_object@@HPAPAU1@@Z ; PyTuple_GetObject
  00014	83 c4 0c	 add	 esp, 12			; 0000000cH
  00017	84 c0		 test	 al, al
  00019	75 0e		 jne	 SHORT $LN2@wndMgrRegi
$LN5@wndMgrRegi:

; 155  : }

  0001b	6a 00		 push	 0
  0001d	e8 00 00 00 00	 call	 ?Py_BuildException@@YAPAU_object@@PBDZZ ; Py_BuildException
  00022	83 c4 04	 add	 esp, 4
  00025	8b e5		 mov	 esp, ebp
  00027	5d		 pop	 ebp
  00028	c3		 ret	 0
$LN2@wndMgrRegi:

; 148  : 		return Py_BuildException();
; 149  : 	char * szLayer;
; 150  : 	if (!PyTuple_GetString(poArgs, 1, &szLayer))

  00029	8d 45 fc	 lea	 eax, DWORD PTR _szLayer$[ebp]
  0002c	50		 push	 eax
  0002d	6a 01		 push	 1
  0002f	ff 75 0c	 push	 DWORD PTR _poArgs$[ebp]
  00032	e8 00 00 00 00	 call	 ?PyTuple_GetString@@YA_NPAU_object@@HPAPAD@Z ; PyTuple_GetString
  00037	83 c4 0c	 add	 esp, 12			; 0000000cH
  0003a	84 c0		 test	 al, al
  0003c	74 dd		 je	 SHORT $LN5@wndMgrRegi

; 151  : 		return Py_BuildException();
; 152  : 
; 153  : 	UI::CWindow * pWindow = UI::CWindowManager::Instance().RegisterAniImageBox(po, szLayer);

  0003e	ff 75 fc	 push	 DWORD PTR _szLayer$[ebp]
  00041	8b 0d 00 00 00
	00		 mov	 ecx, DWORD PTR ?ms_singleton@?$CSingleton@VCWindowManager@UI@@@@0PAVCWindowManager@UI@@A ; CSingleton<UI::CWindowManager>::ms_singleton
  00047	ff 75 f8	 push	 DWORD PTR _po$[ebp]
  0004a	e8 00 00 00 00	 call	 ?RegisterAniImageBox@CWindowManager@UI@@QAEPAVCWindow@2@PAU_object@@PBD@Z ; UI::CWindowManager::RegisterAniImageBox

; 154  : 	return Py_BuildValue("i", pWindow);

  0004f	50		 push	 eax
  00050	68 00 00 00 00	 push	 OFFSET ??_C@_01KBJDNOO@i@
  00055	ff 15 00 00 00
	00		 call	 DWORD PTR __imp__Py_BuildValue
  0005b	83 c4 08	 add	 esp, 8

; 155  : }

  0005e	8b e5		 mov	 esp, ebp
  00060	5d		 pop	 ebp
  00061	c3		 ret	 0
?wndMgrRegisterAniImageBox@@YAPAU_object@@PAU1@0@Z ENDP	; wndMgrRegisterAniImageBox
_TEXT	ENDS
; Function compile flags: /Ogtp
; File C:\DS Project\DS Files\Source\ClientSource\Client\eterPythonLib\PythonWindowManagerModule.cpp
;	COMDAT ?wndMgrRegisterExpandedImageBox@@YAPAU_object@@PAU1@0@Z
_TEXT	SEGMENT
_po$ = -8						; size = 4
_szLayer$ = -4						; size = 4
_poSelf$ = 8						; size = 4
_poArgs$ = 12						; size = 4
?wndMgrRegisterExpandedImageBox@@YAPAU_object@@PAU1@0@Z PROC ; wndMgrRegisterExpandedImageBox, COMDAT

; 131  : {

  00000	55		 push	 ebp
  00001	8b ec		 mov	 ebp, esp
  00003	83 ec 08	 sub	 esp, 8

; 132  : 	PyObject * po;
; 133  : 	if (!PyTuple_GetObject(poArgs, 0, &po))

  00006	8d 45 f8	 lea	 eax, DWORD PTR _po$[ebp]
  00009	50		 push	 eax
  0000a	6a 00		 push	 0
  0000c	ff 75 0c	 push	 DWORD PTR _poArgs$[ebp]
  0000f	e8 00 00 00 00	 call	 ?PyTuple_GetObject@@YA_NPAU_object@@HPAPAU1@@Z ; PyTuple_GetObject
  00014	83 c4 0c	 add	 esp, 12			; 0000000cH
  00017	84 c0		 test	 al, al
  00019	75 0e		 jne	 SHORT $LN2@wndMgrRegi
$LN5@wndMgrRegi:

; 141  : }

  0001b	6a 00		 push	 0
  0001d	e8 00 00 00 00	 call	 ?Py_BuildException@@YAPAU_object@@PBDZZ ; Py_BuildException
  00022	83 c4 04	 add	 esp, 4
  00025	8b e5		 mov	 esp, ebp
  00027	5d		 pop	 ebp
  00028	c3		 ret	 0
$LN2@wndMgrRegi:

; 134  : 		return Py_BuildException();
; 135  : 	char * szLayer;
; 136  : 	if (!PyTuple_GetString(poArgs, 1, &szLayer))

  00029	8d 45 fc	 lea	 eax, DWORD PTR _szLayer$[ebp]
  0002c	50		 push	 eax
  0002d	6a 01		 push	 1
  0002f	ff 75 0c	 push	 DWORD PTR _poArgs$[ebp]
  00032	e8 00 00 00 00	 call	 ?PyTuple_GetString@@YA_NPAU_object@@HPAPAD@Z ; PyTuple_GetString
  00037	83 c4 0c	 add	 esp, 12			; 0000000cH
  0003a	84 c0		 test	 al, al
  0003c	74 dd		 je	 SHORT $LN5@wndMgrRegi

; 137  : 		return Py_BuildException();
; 138  : 
; 139  : 	UI::CWindow * pWindow = UI::CWindowManager::Instance().RegisterExpandedImageBox(po, szLayer);

  0003e	ff 75 fc	 push	 DWORD PTR _szLayer$[ebp]
  00041	8b 0d 00 00 00
	00		 mov	 ecx, DWORD PTR ?ms_singleton@?$CSingleton@VCWindowManager@UI@@@@0PAVCWindowManager@UI@@A ; CSingleton<UI::CWindowManager>::ms_singleton
  00047	ff 75 f8	 push	 DWORD PTR _po$[ebp]
  0004a	e8 00 00 00 00	 call	 ?RegisterExpandedImageBox@CWindowManager@UI@@QAEPAVCWindow@2@PAU_object@@PBD@Z ; UI::CWindowManager::RegisterExpandedImageBox

; 140  : 	return Py_BuildValue("i", pWindow);

  0004f	50		 push	 eax
  00050	68 00 00 00 00	 push	 OFFSET ??_C@_01KBJDNOO@i@
  00055	ff 15 00 00 00
	00		 call	 DWORD PTR __imp__Py_BuildValue
  0005b	83 c4 08	 add	 esp, 8

; 141  : }

  0005e	8b e5		 mov	 esp, ebp
  00060	5d		 pop	 ebp
  00061	c3		 ret	 0
?wndMgrRegisterExpandedImageBox@@YAPAU_object@@PAU1@0@Z ENDP ; wndMgrRegisterExpandedImageBox
_TEXT	ENDS
; Function compile flags: /Ogtp
; File C:\DS Project\DS Files\Source\ClientSource\Client\eterPythonLib\PythonWindowManagerModule.cpp
;	COMDAT ?wndMgrRegisterImageBox@@YAPAU_object@@PAU1@0@Z
_TEXT	SEGMENT
_po$ = -8						; size = 4
_szLayer$ = -4						; size = 4
_poSelf$ = 8						; size = 4
_poArgs$ = 12						; size = 4
?wndMgrRegisterImageBox@@YAPAU_object@@PAU1@0@Z PROC	; wndMgrRegisterImageBox, COMDAT

; 117  : {

  00000	55		 push	 ebp
  00001	8b ec		 mov	 ebp, esp
  00003	83 ec 08	 sub	 esp, 8

; 118  : 	PyObject * po;
; 119  : 	if (!PyTuple_GetObject(poArgs, 0, &po))

  00006	8d 45 f8	 lea	 eax, DWORD PTR _po$[ebp]
  00009	50		 push	 eax
  0000a	6a 00		 push	 0
  0000c	ff 75 0c	 push	 DWORD PTR _poArgs$[ebp]
  0000f	e8 00 00 00 00	 call	 ?PyTuple_GetObject@@YA_NPAU_object@@HPAPAU1@@Z ; PyTuple_GetObject
  00014	83 c4 0c	 add	 esp, 12			; 0000000cH
  00017	84 c0		 test	 al, al
  00019	75 0e		 jne	 SHORT $LN2@wndMgrRegi
$LN5@wndMgrRegi:

; 127  : }

  0001b	6a 00		 push	 0
  0001d	e8 00 00 00 00	 call	 ?Py_BuildException@@YAPAU_object@@PBDZZ ; Py_BuildException
  00022	83 c4 04	 add	 esp, 4
  00025	8b e5		 mov	 esp, ebp
  00027	5d		 pop	 ebp
  00028	c3		 ret	 0
$LN2@wndMgrRegi:

; 120  : 		return Py_BuildException();
; 121  : 	char * szLayer;
; 122  : 	if (!PyTuple_GetString(poArgs, 1, &szLayer))

  00029	8d 45 fc	 lea	 eax, DWORD PTR _szLayer$[ebp]
  0002c	50		 push	 eax
  0002d	6a 01		 push	 1
  0002f	ff 75 0c	 push	 DWORD PTR _poArgs$[ebp]
  00032	e8 00 00 00 00	 call	 ?PyTuple_GetString@@YA_NPAU_object@@HPAPAD@Z ; PyTuple_GetString
  00037	83 c4 0c	 add	 esp, 12			; 0000000cH
  0003a	84 c0		 test	 al, al
  0003c	74 dd		 je	 SHORT $LN5@wndMgrRegi

; 123  : 		return Py_BuildException();
; 124  : 
; 125  : 	UI::CWindow * pWindow = UI::CWindowManager::Instance().RegisterImageBox(po, szLayer);

  0003e	ff 75 fc	 push	 DWORD PTR _szLayer$[ebp]
  00041	8b 0d 00 00 00
	00		 mov	 ecx, DWORD PTR ?ms_singleton@?$CSingleton@VCWindowManager@UI@@@@0PAVCWindowManager@UI@@A ; CSingleton<UI::CWindowManager>::ms_singleton
  00047	ff 75 f8	 push	 DWORD PTR _po$[ebp]
  0004a	e8 00 00 00 00	 call	 ?RegisterImageBox@CWindowManager@UI@@QAEPAVCWindow@2@PAU_object@@PBD@Z ; UI::CWindowManager::RegisterImageBox

; 126  : 	return Py_BuildValue("i", pWindow);

  0004f	50		 push	 eax
  00050	68 00 00 00 00	 push	 OFFSET ??_C@_01KBJDNOO@i@
  00055	ff 15 00 00 00
	00		 call	 DWORD PTR __imp__Py_BuildValue
  0005b	83 c4 08	 add	 esp, 8

; 127  : }

  0005e	8b e5		 mov	 esp, ebp
  00060	5d		 pop	 ebp
  00061	c3		 ret	 0
?wndMgrRegisterImageBox@@YAPAU_object@@PAU1@0@Z ENDP	; wndMgrRegisterImageBox
_TEXT	ENDS
; Function compile flags: /Ogtp
; File C:\DS Project\DS Files\Source\ClientSource\Client\eterPythonLib\PythonWindowManagerModule.cpp
;	COMDAT ?wndMgrRegisterMarkBox@@YAPAU_object@@PAU1@0@Z
_TEXT	SEGMENT
_po$ = -8						; size = 4
_szLayer$ = -4						; size = 4
_poSelf$ = 8						; size = 4
_poArgs$ = 12						; size = 4
?wndMgrRegisterMarkBox@@YAPAU_object@@PAU1@0@Z PROC	; wndMgrRegisterMarkBox, COMDAT

; 103  : {

  00000	55		 push	 ebp
  00001	8b ec		 mov	 ebp, esp
  00003	83 ec 08	 sub	 esp, 8

; 104  : 	PyObject * po;
; 105  : 	if (!PyTuple_GetObject(poArgs, 0, &po))

  00006	8d 45 f8	 lea	 eax, DWORD PTR _po$[ebp]
  00009	50		 push	 eax
  0000a	6a 00		 push	 0
  0000c	ff 75 0c	 push	 DWORD PTR _poArgs$[ebp]
  0000f	e8 00 00 00 00	 call	 ?PyTuple_GetObject@@YA_NPAU_object@@HPAPAU1@@Z ; PyTuple_GetObject
  00014	83 c4 0c	 add	 esp, 12			; 0000000cH
  00017	84 c0		 test	 al, al
  00019	75 0e		 jne	 SHORT $LN2@wndMgrRegi
$LN5@wndMgrRegi:

; 113  : }

  0001b	6a 00		 push	 0
  0001d	e8 00 00 00 00	 call	 ?Py_BuildException@@YAPAU_object@@PBDZZ ; Py_BuildException
  00022	83 c4 04	 add	 esp, 4
  00025	8b e5		 mov	 esp, ebp
  00027	5d		 pop	 ebp
  00028	c3		 ret	 0
$LN2@wndMgrRegi:

; 106  : 		return Py_BuildException();
; 107  : 	char * szLayer;
; 108  : 	if (!PyTuple_GetString(poArgs, 1, &szLayer))

  00029	8d 45 fc	 lea	 eax, DWORD PTR _szLayer$[ebp]
  0002c	50		 push	 eax
  0002d	6a 01		 push	 1
  0002f	ff 75 0c	 push	 DWORD PTR _poArgs$[ebp]
  00032	e8 00 00 00 00	 call	 ?PyTuple_GetString@@YA_NPAU_object@@HPAPAD@Z ; PyTuple_GetString
  00037	83 c4 0c	 add	 esp, 12			; 0000000cH
  0003a	84 c0		 test	 al, al
  0003c	74 dd		 je	 SHORT $LN5@wndMgrRegi

; 109  : 		return Py_BuildException();
; 110  : 
; 111  : 	UI::CWindow * pWindow = UI::CWindowManager::Instance().RegisterMarkBox(po, szLayer);

  0003e	ff 75 fc	 push	 DWORD PTR _szLayer$[ebp]
  00041	8b 0d 00 00 00
	00		 mov	 ecx, DWORD PTR ?ms_singleton@?$CSingleton@VCWindowManager@UI@@@@0PAVCWindowManager@UI@@A ; CSingleton<UI::CWindowManager>::ms_singleton
  00047	ff 75 f8	 push	 DWORD PTR _po$[ebp]
  0004a	e8 00 00 00 00	 call	 ?RegisterMarkBox@CWindowManager@UI@@QAEPAVCWindow@2@PAU_object@@PBD@Z ; UI::CWindowManager::RegisterMarkBox

; 112  : 	return Py_BuildValue("i", pWindow);

  0004f	50		 push	 eax
  00050	68 00 00 00 00	 push	 OFFSET ??_C@_01KBJDNOO@i@
  00055	ff 15 00 00 00
	00		 call	 DWORD PTR __imp__Py_BuildValue
  0005b	83 c4 08	 add	 esp, 8

; 113  : }

  0005e	8b e5		 mov	 esp, ebp
  00060	5d		 pop	 ebp
  00061	c3		 ret	 0
?wndMgrRegisterMarkBox@@YAPAU_object@@PAU1@0@Z ENDP	; wndMgrRegisterMarkBox
_TEXT	ENDS
; Function compile flags: /Ogtp
; File C:\DS Project\DS Files\Source\ClientSource\Client\eterPythonLib\PythonWindowManagerModule.cpp
;	COMDAT ?wndMgrRegisterTextLine@@YAPAU_object@@PAU1@0@Z
_TEXT	SEGMENT
_po$ = -8						; size = 4
_szLayer$ = -4						; size = 4
_poSelf$ = 8						; size = 4
_poArgs$ = 12						; size = 4
?wndMgrRegisterTextLine@@YAPAU_object@@PAU1@0@Z PROC	; wndMgrRegisterTextLine, COMDAT

; 89   : {

  00000	55		 push	 ebp
  00001	8b ec		 mov	 ebp, esp
  00003	83 ec 08	 sub	 esp, 8

; 90   : 	PyObject * po;
; 91   : 	if (!PyTuple_GetObject(poArgs, 0, &po))

  00006	8d 45 f8	 lea	 eax, DWORD PTR _po$[ebp]
  00009	50		 push	 eax
  0000a	6a 00		 push	 0
  0000c	ff 75 0c	 push	 DWORD PTR _poArgs$[ebp]
  0000f	e8 00 00 00 00	 call	 ?PyTuple_GetObject@@YA_NPAU_object@@HPAPAU1@@Z ; PyTuple_GetObject
  00014	83 c4 0c	 add	 esp, 12			; 0000000cH
  00017	84 c0		 test	 al, al
  00019	75 0e		 jne	 SHORT $LN2@wndMgrRegi
$LN5@wndMgrRegi:

; 99   : }

  0001b	6a 00		 push	 0
  0001d	e8 00 00 00 00	 call	 ?Py_BuildException@@YAPAU_object@@PBDZZ ; Py_BuildException
  00022	83 c4 04	 add	 esp, 4
  00025	8b e5		 mov	 esp, ebp
  00027	5d		 pop	 ebp
  00028	c3		 ret	 0
$LN2@wndMgrRegi:

; 92   : 		return Py_BuildException();
; 93   : 	char * szLayer;
; 94   : 	if (!PyTuple_GetString(poArgs, 1, &szLayer))

  00029	8d 45 fc	 lea	 eax, DWORD PTR _szLayer$[ebp]
  0002c	50		 push	 eax
  0002d	6a 01		 push	 1
  0002f	ff 75 0c	 push	 DWORD PTR _poArgs$[ebp]
  00032	e8 00 00 00 00	 call	 ?PyTuple_GetString@@YA_NPAU_object@@HPAPAD@Z ; PyTuple_GetString
  00037	83 c4 0c	 add	 esp, 12			; 0000000cH
  0003a	84 c0		 test	 al, al
  0003c	74 dd		 je	 SHORT $LN5@wndMgrRegi

; 95   : 		return Py_BuildException();
; 96   : 
; 97   : 	UI::CWindow * pWindow = UI::CWindowManager::Instance().RegisterTextLine(po, szLayer);

  0003e	ff 75 fc	 push	 DWORD PTR _szLayer$[ebp]
  00041	8b 0d 00 00 00
	00		 mov	 ecx, DWORD PTR ?ms_singleton@?$CSingleton@VCWindowManager@UI@@@@0PAVCWindowManager@UI@@A ; CSingleton<UI::CWindowManager>::ms_singleton
  00047	ff 75 f8	 push	 DWORD PTR _po$[ebp]
  0004a	e8 00 00 00 00	 call	 ?RegisterTextLine@CWindowManager@UI@@QAEPAVCWindow@2@PAU_object@@PBD@Z ; UI::CWindowManager::RegisterTextLine

; 98   : 	return Py_BuildValue("i", pWindow);

  0004f	50		 push	 eax
  00050	68 00 00 00 00	 push	 OFFSET ??_C@_01KBJDNOO@i@
  00055	ff 15 00 00 00
	00		 call	 DWORD PTR __imp__Py_BuildValue
  0005b	83 c4 08	 add	 esp, 8

; 99   : }

  0005e	8b e5		 mov	 esp, ebp
  00060	5d		 pop	 ebp
  00061	c3		 ret	 0
?wndMgrRegisterTextLine@@YAPAU_object@@PAU1@0@Z ENDP	; wndMgrRegisterTextLine
_TEXT	ENDS
; Function compile flags: /Ogtp
; File C:\DS Project\DS Files\Source\ClientSource\Client\eterPythonLib\PythonWindowManagerModule.cpp
;	COMDAT ?wndMgrRegisterGridSlotWindow@@YAPAU_object@@PAU1@0@Z
_TEXT	SEGMENT
_po$ = -8						; size = 4
_szLayer$ = -4						; size = 4
_poSelf$ = 8						; size = 4
_poArgs$ = 12						; size = 4
?wndMgrRegisterGridSlotWindow@@YAPAU_object@@PAU1@0@Z PROC ; wndMgrRegisterGridSlotWindow, COMDAT

; 75   : {

  00000	55		 push	 ebp
  00001	8b ec		 mov	 ebp, esp
  00003	83 ec 08	 sub	 esp, 8

; 76   : 	PyObject * po;
; 77   : 	if (!PyTuple_GetObject(poArgs, 0, &po))

  00006	8d 45 f8	 lea	 eax, DWORD PTR _po$[ebp]
  00009	50		 push	 eax
  0000a	6a 00		 push	 0
  0000c	ff 75 0c	 push	 DWORD PTR _poArgs$[ebp]
  0000f	e8 00 00 00 00	 call	 ?PyTuple_GetObject@@YA_NPAU_object@@HPAPAU1@@Z ; PyTuple_GetObject
  00014	83 c4 0c	 add	 esp, 12			; 0000000cH
  00017	84 c0		 test	 al, al
  00019	75 0e		 jne	 SHORT $LN2@wndMgrRegi
$LN5@wndMgrRegi:

; 85   : }

  0001b	6a 00		 push	 0
  0001d	e8 00 00 00 00	 call	 ?Py_BuildException@@YAPAU_object@@PBDZZ ; Py_BuildException
  00022	83 c4 04	 add	 esp, 4
  00025	8b e5		 mov	 esp, ebp
  00027	5d		 pop	 ebp
  00028	c3		 ret	 0
$LN2@wndMgrRegi:

; 78   : 		return Py_BuildException();
; 79   : 	char * szLayer;
; 80   : 	if (!PyTuple_GetString(poArgs, 1, &szLayer))

  00029	8d 45 fc	 lea	 eax, DWORD PTR _szLayer$[ebp]
  0002c	50		 push	 eax
  0002d	6a 01		 push	 1
  0002f	ff 75 0c	 push	 DWORD PTR _poArgs$[ebp]
  00032	e8 00 00 00 00	 call	 ?PyTuple_GetString@@YA_NPAU_object@@HPAPAD@Z ; PyTuple_GetString
  00037	83 c4 0c	 add	 esp, 12			; 0000000cH
  0003a	84 c0		 test	 al, al
  0003c	74 dd		 je	 SHORT $LN5@wndMgrRegi

; 81   : 		return Py_BuildException();
; 82   : 
; 83   : 	UI::CWindow * pWindow = UI::CWindowManager::Instance().RegisterGridSlotWindow(po, szLayer);

  0003e	ff 75 fc	 push	 DWORD PTR _szLayer$[ebp]
  00041	8b 0d 00 00 00
	00		 mov	 ecx, DWORD PTR ?ms_singleton@?$CSingleton@VCWindowManager@UI@@@@0PAVCWindowManager@UI@@A ; CSingleton<UI::CWindowManager>::ms_singleton
  00047	ff 75 f8	 push	 DWORD PTR _po$[ebp]
  0004a	e8 00 00 00 00	 call	 ?RegisterGridSlotWindow@CWindowManager@UI@@QAEPAVCWindow@2@PAU_object@@PBD@Z ; UI::CWindowManager::RegisterGridSlotWindow

; 84   : 	return Py_BuildValue("i", pWindow);

  0004f	50		 push	 eax
  00050	68 00 00 00 00	 push	 OFFSET ??_C@_01KBJDNOO@i@
  00055	ff 15 00 00 00
	00		 call	 DWORD PTR __imp__Py_BuildValue
  0005b	83 c4 08	 add	 esp, 8

; 85   : }

  0005e	8b e5		 mov	 esp, ebp
  00060	5d		 pop	 ebp
  00061	c3		 ret	 0
?wndMgrRegisterGridSlotWindow@@YAPAU_object@@PAU1@0@Z ENDP ; wndMgrRegisterGridSlotWindow
_TEXT	ENDS
; Function compile flags: /Ogtp
; File C:\DS Project\DS Files\Source\ClientSource\Client\eterPythonLib\PythonWindowManagerModule.cpp
;	COMDAT ?wndMgrRegisterSlotWindow@@YAPAU_object@@PAU1@0@Z
_TEXT	SEGMENT
_po$ = -8						; size = 4
_szLayer$ = -4						; size = 4
_poSelf$ = 8						; size = 4
_poArgs$ = 12						; size = 4
?wndMgrRegisterSlotWindow@@YAPAU_object@@PAU1@0@Z PROC	; wndMgrRegisterSlotWindow, COMDAT

; 61   : {

  00000	55		 push	 ebp
  00001	8b ec		 mov	 ebp, esp
  00003	83 ec 08	 sub	 esp, 8

; 62   : 	PyObject * po;
; 63   : 	if (!PyTuple_GetObject(poArgs, 0, &po))

  00006	8d 45 f8	 lea	 eax, DWORD PTR _po$[ebp]
  00009	50		 push	 eax
  0000a	6a 00		 push	 0
  0000c	ff 75 0c	 push	 DWORD PTR _poArgs$[ebp]
  0000f	e8 00 00 00 00	 call	 ?PyTuple_GetObject@@YA_NPAU_object@@HPAPAU1@@Z ; PyTuple_GetObject
  00014	83 c4 0c	 add	 esp, 12			; 0000000cH
  00017	84 c0		 test	 al, al
  00019	75 0e		 jne	 SHORT $LN2@wndMgrRegi
$LN5@wndMgrRegi:

; 71   : }

  0001b	6a 00		 push	 0
  0001d	e8 00 00 00 00	 call	 ?Py_BuildException@@YAPAU_object@@PBDZZ ; Py_BuildException
  00022	83 c4 04	 add	 esp, 4
  00025	8b e5		 mov	 esp, ebp
  00027	5d		 pop	 ebp
  00028	c3		 ret	 0
$LN2@wndMgrRegi:

; 64   : 		return Py_BuildException();
; 65   : 	char * szLayer;
; 66   : 	if (!PyTuple_GetString(poArgs, 1, &szLayer))

  00029	8d 45 fc	 lea	 eax, DWORD PTR _szLayer$[ebp]
  0002c	50		 push	 eax
  0002d	6a 01		 push	 1
  0002f	ff 75 0c	 push	 DWORD PTR _poArgs$[ebp]
  00032	e8 00 00 00 00	 call	 ?PyTuple_GetString@@YA_NPAU_object@@HPAPAD@Z ; PyTuple_GetString
  00037	83 c4 0c	 add	 esp, 12			; 0000000cH
  0003a	84 c0		 test	 al, al
  0003c	74 dd		 je	 SHORT $LN5@wndMgrRegi

; 67   : 		return Py_BuildException();
; 68   : 
; 69   : 	UI::CWindow * pWindow = UI::CWindowManager::Instance().RegisterSlotWindow(po, szLayer);

  0003e	ff 75 fc	 push	 DWORD PTR _szLayer$[ebp]
  00041	8b 0d 00 00 00
	00		 mov	 ecx, DWORD PTR ?ms_singleton@?$CSingleton@VCWindowManager@UI@@@@0PAVCWindowManager@UI@@A ; CSingleton<UI::CWindowManager>::ms_singleton
  00047	ff 75 f8	 push	 DWORD PTR _po$[ebp]
  0004a	e8 00 00 00 00	 call	 ?RegisterSlotWindow@CWindowManager@UI@@QAEPAVCWindow@2@PAU_object@@PBD@Z ; UI::CWindowManager::RegisterSlotWindow

; 70   : 	return Py_BuildValue("i", pWindow);

  0004f	50		 push	 eax
  00050	68 00 00 00 00	 push	 OFFSET ??_C@_01KBJDNOO@i@
  00055	ff 15 00 00 00
	00		 call	 DWORD PTR __imp__Py_BuildValue
  0005b	83 c4 08	 add	 esp, 8

; 71   : }

  0005e	8b e5		 mov	 esp, ebp
  00060	5d		 pop	 ebp
  00061	c3		 ret	 0
?wndMgrRegisterSlotWindow@@YAPAU_object@@PAU1@0@Z ENDP	; wndMgrRegisterSlotWindow
_TEXT	ENDS
; Function compile flags: /Ogtp
; File C:\DS Project\DS Files\Source\ClientSource\Client\eterPythonLib\PythonWindowManagerModule.cpp
;	COMDAT ?wndMgrRegister@@YAPAU_object@@PAU1@0@Z
_TEXT	SEGMENT
_po$ = -8						; size = 4
_szLayer$ = -4						; size = 4
_poSelf$ = 8						; size = 4
_poArgs$ = 12						; size = 4
?wndMgrRegister@@YAPAU_object@@PAU1@0@Z PROC		; wndMgrRegister, COMDAT

; 43   : {

  00000	55		 push	 ebp
  00001	8b ec		 mov	 ebp, esp
  00003	83 ec 08	 sub	 esp, 8

; 44   : 	PyObject * po;
; 45   : 	if (!PyTuple_GetObject(poArgs, 0, &po))

  00006	8d 45 f8	 lea	 eax, DWORD PTR _po$[ebp]
  00009	50		 push	 eax
  0000a	6a 00		 push	 0
  0000c	ff 75 0c	 push	 DWORD PTR _poArgs$[ebp]
  0000f	e8 00 00 00 00	 call	 ?PyTuple_GetObject@@YA_NPAU_object@@HPAPAU1@@Z ; PyTuple_GetObject
  00014	83 c4 0c	 add	 esp, 12			; 0000000cH
  00017	84 c0		 test	 al, al
  00019	75 0e		 jne	 SHORT $LN2@wndMgrRegi
$LN6@wndMgrRegi:

; 57   : }

  0001b	6a 00		 push	 0
  0001d	e8 00 00 00 00	 call	 ?Py_BuildException@@YAPAU_object@@PBDZZ ; Py_BuildException
  00022	83 c4 04	 add	 esp, 4
  00025	8b e5		 mov	 esp, ebp
  00027	5d		 pop	 ebp
  00028	c3		 ret	 0
$LN2@wndMgrRegi:

; 46   : 		return Py_BuildException();
; 47   : 	char * szLayer;
; 48   : 	if (!PyTuple_GetString(poArgs, 1, &szLayer))

  00029	8d 45 fc	 lea	 eax, DWORD PTR _szLayer$[ebp]
  0002c	50		 push	 eax
  0002d	6a 01		 push	 1
  0002f	ff 75 0c	 push	 DWORD PTR _poArgs$[ebp]
  00032	e8 00 00 00 00	 call	 ?PyTuple_GetString@@YA_NPAU_object@@HPAPAD@Z ; PyTuple_GetString
  00037	83 c4 0c	 add	 esp, 12			; 0000000cH
  0003a	84 c0		 test	 al, al
  0003c	74 dd		 je	 SHORT $LN6@wndMgrRegi

; 49   : 		return Py_BuildException();
; 50   : 
; 51   : 	UI::CWindowManager& kWndMgr=UI::CWindowManager::Instance();
; 52   : 	UI::CWindow * pWindow = kWndMgr.RegisterWindow(po, szLayer);

  0003e	ff 75 fc	 push	 DWORD PTR _szLayer$[ebp]
  00041	8b 0d 00 00 00
	00		 mov	 ecx, DWORD PTR ?ms_singleton@?$CSingleton@VCWindowManager@UI@@@@0PAVCWindowManager@UI@@A ; CSingleton<UI::CWindowManager>::ms_singleton
  00047	ff 75 f8	 push	 DWORD PTR _po$[ebp]
  0004a	e8 00 00 00 00	 call	 ?RegisterWindow@CWindowManager@UI@@QAEPAVCWindow@2@PAU_object@@PBD@Z ; UI::CWindowManager::RegisterWindow

; 53   : 	if (!pWindow)

  0004f	85 c0		 test	 eax, eax
  00051	74 c8		 je	 SHORT $LN6@wndMgrRegi

; 54   : 		return Py_BuildException();
; 55   : 
; 56   : 	return Py_BuildValue("i", pWindow);

  00053	50		 push	 eax
  00054	68 00 00 00 00	 push	 OFFSET ??_C@_01KBJDNOO@i@
  00059	ff 15 00 00 00
	00		 call	 DWORD PTR __imp__Py_BuildValue
  0005f	83 c4 08	 add	 esp, 8

; 57   : }

  00062	8b e5		 mov	 esp, ebp
  00064	5d		 pop	 ebp
  00065	c3		 ret	 0
?wndMgrRegister@@YAPAU_object@@PAU1@0@Z ENDP		; wndMgrRegister
_TEXT	ENDS
; Function compile flags: /Ogtp
; File C:\DS Project\DS Files\Source\ClientSource\Client\eterPythonLib\PythonWindowManagerModule.cpp
;	COMDAT ?wndMgrSetMouseHandler@@YAPAU_object@@PAU1@0@Z
_TEXT	SEGMENT
_poHandler$ = -4					; size = 4
_poSelf$ = 8						; size = 4
_poArgs$ = 12						; size = 4
?wndMgrSetMouseHandler@@YAPAU_object@@PAU1@0@Z PROC	; wndMgrSetMouseHandler, COMDAT

; 30   : {

  00000	55		 push	 ebp
  00001	8b ec		 mov	 ebp, esp
  00003	51		 push	 ecx

; 31   : 	PyObject * poHandler;
; 32   : 	if (!PyTuple_GetObject(poArgs, 0, &poHandler))

  00004	8d 45 fc	 lea	 eax, DWORD PTR _poHandler$[ebp]
  00007	50		 push	 eax
  00008	6a 00		 push	 0
  0000a	ff 75 0c	 push	 DWORD PTR _poArgs$[ebp]
  0000d	e8 00 00 00 00	 call	 ?PyTuple_GetObject@@YA_NPAU_object@@HPAPAU1@@Z ; PyTuple_GetObject
  00012	83 c4 0c	 add	 esp, 12			; 0000000cH
  00015	84 c0		 test	 al, al
  00017	75 0e		 jne	 SHORT $LN2@wndMgrSetM

; 33   : 		return Py_BuildException();

  00019	6a 00		 push	 0
  0001b	e8 00 00 00 00	 call	 ?Py_BuildException@@YAPAU_object@@PBDZZ ; Py_BuildException
  00020	83 c4 04	 add	 esp, 4

; 37   : }

  00023	8b e5		 mov	 esp, ebp
  00025	5d		 pop	 ebp
  00026	c3		 ret	 0
$LN2@wndMgrSetM:

; 34   : 
; 35   : 	UI::CWindowManager::Instance().SetMouseHandler(poHandler);

  00027	ff 75 fc	 push	 DWORD PTR _poHandler$[ebp]
  0002a	8b 0d 00 00 00
	00		 mov	 ecx, DWORD PTR ?ms_singleton@?$CSingleton@VCWindowManager@UI@@@@0PAVCWindowManager@UI@@A ; CSingleton<UI::CWindowManager>::ms_singleton
  00030	e8 00 00 00 00	 call	 ?SetMouseHandler@CWindowManager@UI@@QAEXPAU_object@@@Z ; UI::CWindowManager::SetMouseHandler

; 36   : 	return Py_BuildNone();

  00035	e8 00 00 00 00	 call	 ?Py_BuildNone@@YAPAU_object@@XZ ; Py_BuildNone

; 37   : }

  0003a	8b e5		 mov	 esp, ebp
  0003c	5d		 pop	 ebp
  0003d	c3		 ret	 0
?wndMgrSetMouseHandler@@YAPAU_object@@PAU1@0@Z ENDP	; wndMgrSetMouseHandler
_TEXT	ENDS
; Function compile flags: /Ogtp
; File C:\DS Project\DS Files\Source\ClientSource\Client\eterPythonLib\PythonWindowManagerModule.cpp
;	COMDAT ?wndMgrOnceIgnoreMouseLeftButtonUpEvent@@YAPAU_object@@PAU1@0@Z
_TEXT	SEGMENT
_poSelf$ = 8						; size = 4
_poArgs$ = 12						; size = 4
?wndMgrOnceIgnoreMouseLeftButtonUpEvent@@YAPAU_object@@PAU1@0@Z PROC ; wndMgrOnceIgnoreMouseLeftButtonUpEvent, COMDAT

; 25   : 	UI::CWindowManager::Instance().OnceIgnoreMouseLeftButtonUpEvent();

  00000	8b 0d 00 00 00
	00		 mov	 ecx, DWORD PTR ?ms_singleton@?$CSingleton@VCWindowManager@UI@@@@0PAVCWindowManager@UI@@A ; CSingleton<UI::CWindowManager>::ms_singleton
  00006	e8 00 00 00 00	 call	 ?OnceIgnoreMouseLeftButtonUpEvent@CWindowManager@UI@@QAEXXZ ; UI::CWindowManager::OnceIgnoreMouseLeftButtonUpEvent

; 26   : 	return Py_BuildNone();

  0000b	e9 00 00 00 00	 jmp	 ?Py_BuildNone@@YAPAU_object@@XZ ; Py_BuildNone
?wndMgrOnceIgnoreMouseLeftButtonUpEvent@@YAPAU_object@@PAU1@0@Z ENDP ; wndMgrOnceIgnoreMouseLeftButtonUpEvent
_TEXT	ENDS
; Function compile flags: /Ogtp
; File C:\DS Project\DS Files\Source\ClientSource\Client\eterPythonLib\PythonWindowManagerModule.cpp
;	COMDAT ?wndMgrGetAspect@@YAPAU_object@@PAU1@0@Z
_TEXT	SEGMENT
_poSelf$ = 8						; size = 4
_poArgs$ = 12						; size = 4
?wndMgrGetAspect@@YAPAU_object@@PAU1@0@Z PROC		; wndMgrGetAspect, COMDAT

; 20   : 	return Py_BuildValue("f", UI::CWindowManager::Instance().GetAspect());

  00000	8b 0d 00 00 00
	00		 mov	 ecx, DWORD PTR ?ms_singleton@?$CSingleton@VCWindowManager@UI@@@@0PAVCWindowManager@UI@@A ; CSingleton<UI::CWindowManager>::ms_singleton
  00006	e8 00 00 00 00	 call	 ?GetAspect@CWindowManager@UI@@QAEMXZ ; UI::CWindowManager::GetAspect
  0000b	83 ec 08	 sub	 esp, 8
  0000e	dd 1c 24	 fstp	 QWORD PTR [esp]
  00011	68 00 00 00 00	 push	 OFFSET ??_C@_01INIBCBCB@f@
  00016	ff 15 00 00 00
	00		 call	 DWORD PTR __imp__Py_BuildValue
  0001c	83 c4 0c	 add	 esp, 12			; 0000000cH

; 21   : }

  0001f	c3		 ret	 0
?wndMgrGetAspect@@YAPAU_object@@PAU1@0@Z ENDP		; wndMgrGetAspect
_TEXT	ENDS
; Function compile flags: /Ogtp
; File C:\DS Project\DS Files\Source\ClientSource\Client\eterPythonLib\PythonWindowManagerModule.cpp
;	COMDAT ?PyTuple_GetWindow@@YA_NPAU_object@@HPAPAVCWindow@UI@@@Z
_TEXT	SEGMENT
_iHandle$ = -4						; size = 4
_poArgs$ = 8						; size = 4
_pos$ = 12						; size = 4
_ppRetWindow$ = 16					; size = 4
?PyTuple_GetWindow@@YA_NPAU_object@@HPAPAVCWindow@UI@@@Z PROC ; PyTuple_GetWindow, COMDAT

; 7    : {

  00000	55		 push	 ebp
  00001	8b ec		 mov	 ebp, esp
  00003	51		 push	 ecx

; 8    : 	int iHandle;
; 9    : 	if (!PyTuple_GetInteger(poArgs, pos, &iHandle))

  00004	8d 45 fc	 lea	 eax, DWORD PTR _iHandle$[ebp]
  00007	50		 push	 eax
  00008	ff 75 0c	 push	 DWORD PTR _pos$[ebp]
  0000b	ff 75 08	 push	 DWORD PTR _poArgs$[ebp]
  0000e	e8 00 00 00 00	 call	 ?PyTuple_GetInteger@@YA_NPAU_object@@HPAH@Z ; PyTuple_GetInteger
  00013	83 c4 0c	 add	 esp, 12			; 0000000cH
  00016	84 c0		 test	 al, al
  00018	74 12		 je	 SHORT $LN5@PyTuple_Ge

; 10   : 		return false;
; 11   : 	if (!iHandle)

  0001a	8b 4d fc	 mov	 ecx, DWORD PTR _iHandle$[ebp]
  0001d	85 c9		 test	 ecx, ecx
  0001f	74 0b		 je	 SHORT $LN5@PyTuple_Ge

; 13   : 
; 14   : 	*ppRetWindow = (UI::CWindow*)iHandle;

  00021	8b 45 10	 mov	 eax, DWORD PTR _ppRetWindow$[ebp]
  00024	89 08		 mov	 DWORD PTR [eax], ecx

; 15   : 	return true;

  00026	b0 01		 mov	 al, 1

; 16   : }

  00028	8b e5		 mov	 esp, ebp
  0002a	5d		 pop	 ebp
  0002b	c3		 ret	 0
$LN5@PyTuple_Ge:

; 12   : 		return false;

  0002c	32 c0		 xor	 al, al

; 16   : }

  0002e	8b e5		 mov	 esp, ebp
  00030	5d		 pop	 ebp
  00031	c3		 ret	 0
?PyTuple_GetWindow@@YA_NPAU_object@@HPAPAVCWindow@UI@@@Z ENDP ; PyTuple_GetWindow
_TEXT	ENDS
; Function compile flags: /Ogtp
; File C:\DS Project\DS Files\Source\ClientSource\Client\eterPythonLib\PythonWindowManagerModule.cpp
;	COMDAT ?initwndMgr@@YAXXZ
_TEXT	SEGMENT
?initwndMgr@@YAXXZ PROC					; initwndMgr, COMDAT

; 2406 : {

  00000	56		 push	 esi
  00001	57		 push	 edi

; 2407 : 	static PyMethodDef s_methods[] =
; 2408 : 	{
; 2409 : 		// WindowManager
; 2410 : 		{ "SetMouseHandler",			wndMgrSetMouseHandler,				METH_VARARGS },
; 2411 : 		{ "SetScreenSize",				wndMgrSetScreenSize,				METH_VARARGS },
; 2412 : 		{ "GetScreenWidth",				wndMgrGetScreenWidth,				METH_VARARGS },
; 2413 : 		{ "GetScreenHeight",			wndMgrGetScreenHeight,				METH_VARARGS },
; 2414 : 		{ "AttachIcon",					wndMgrAttachIcon,					METH_VARARGS },
; 2415 : 		{ "DeattachIcon",				wndMgrDeattachIcon,					METH_VARARGS },
; 2416 : 		{ "SetAttachingFlag",			wndMgrSetAttachingFlag,				METH_VARARGS },
; 2417 : 		{ "GetAspect",					wndMgrGetAspect,					METH_VARARGS },
; 2418 : 		{ "GetHyperlink",				wndMgrGetHyperlink,					METH_VARARGS },
; 2419 : 		{ "OnceIgnoreMouseLeftButtonUpEvent",	wndMgrOnceIgnoreMouseLeftButtonUpEvent,		METH_VARARGS },
; 2420 : 
; 2421 : 		// Window
; 2422 : 		{ "Register",					wndMgrRegister,						METH_VARARGS },
; 2423 : 		{ "RegisterSlotWindow",			wndMgrRegisterSlotWindow,			METH_VARARGS },
; 2424 : 		{ "RegisterGridSlotWindow",		wndMgrRegisterGridSlotWindow,		METH_VARARGS },
; 2425 : 		{ "RegisterTextLine",			wndMgrRegisterTextLine,				METH_VARARGS },
; 2426 : 		{ "RegisterMarkBox",			wndMgrRegisterMarkBox,				METH_VARARGS },
; 2427 : 		{ "RegisterImageBox",			wndMgrRegisterImageBox,				METH_VARARGS },
; 2428 : 		{ "RegisterExpandedImageBox",	wndMgrRegisterExpandedImageBox,		METH_VARARGS },
; 2429 : 		{ "RegisterAniImageBox",		wndMgrRegisterAniImageBox,			METH_VARARGS },
; 2430 : 		{ "RegisterButton",				wndMgrRegisterButton,				METH_VARARGS },
; 2431 : 		{ "RegisterRadioButton",		wndMgrRegisterRadioButton,			METH_VARARGS },
; 2432 : 		{ "RegisterToggleButton",		wndMgrRegisterToggleButton,			METH_VARARGS },
; 2433 : 		{ "RegisterDragButton",			wndMgrRegisterDragButton,			METH_VARARGS },
; 2434 : 		{ "RegisterBox",				wndMgrRegisterBox,					METH_VARARGS },
; 2435 : 		{ "RegisterBar",				wndMgrRegisterBar,					METH_VARARGS },
; 2436 : 		{ "RegisterLine",				wndMgrRegisterLine,					METH_VARARGS },
; 2437 : 		{ "RegisterBar3D",				wndMgrRegisterBar3D,				METH_VARARGS },
; 2438 : 		{ "RegisterNumberLine",			wndMgrRegisterNumberLine,			METH_VARARGS },
; 2439 : 		{ "Destroy",					wndMgrDestroy,						METH_VARARGS },
; 2440 : 		{ "AddFlag",					wndMgrAddFlag,						METH_VARARGS },
; 2441 : 		{ "IsRTL",						wndMgrIsRTL,						METH_VARARGS },
; 2442 : 
; 2443 : #ifdef ENABLE_MOUSEWHEEL_EVENT
; 2444 : 		{ "SetScrollable",				wndMgrSetScrollable,				METH_VARARGS },
; 2445 : #endif
; 2446 : 
; 2447 : 		// Base Window
; 2448 : 		{ "SetName",					wndMgrSetName,						METH_VARARGS },
; 2449 : 		{ "GetName",					wndMgrGetName,						METH_VARARGS },
; 2450 : 
; 2451 : 		{ "SetTop",						wndMgrSetTop,						METH_VARARGS },
; 2452 : 		{ "Show",						wndMgrShow,							METH_VARARGS },
; 2453 : 		{ "Hide",						wndMgrHide,							METH_VARARGS },
; 2454 : 		{ "IsShow",						wndMgrIsShow,						METH_VARARGS },
; 2455 : 		{ "SetParent",					wndMgrSetParent,					METH_VARARGS },
; 2456 : 		{ "SetPickAlways",				wndMgrSetPickAlways,				METH_VARARGS },
; 2457 : 
; 2458 : 		{ "IsFocus",					wndMgrIsFocus,						METH_VARARGS },
; 2459 : 		{ "SetFocus",					wndMgrSetFocus,						METH_VARARGS },
; 2460 : 		{ "KillFocus",					wndMgrKillFocus,					METH_VARARGS },
; 2461 : 		{ "Lock",						wndMgrLock,							METH_VARARGS },
; 2462 : 		{ "Unlock",						wndMgrUnlock,						METH_VARARGS },
; 2463 : 
; 2464 : 		{ "SetWindowSize",				wndMgrSetWndSize,					METH_VARARGS },
; 2465 : 		{ "SetWindowPosition",			wndMgrSetWndPosition,				METH_VARARGS },
; 2466 : 		{ "GetWindowWidth",				wndMgrGetWndWidth,					METH_VARARGS },
; 2467 : 		{ "GetWindowHeight",			wndMgrGetWndHeight,					METH_VARARGS },
; 2468 : 		{ "GetWindowLocalPosition",		wndMgrGetWndLocalPosition,			METH_VARARGS },
; 2469 : 		{ "GetWindowGlobalPosition",	wndMgrGetWndGlobalPosition,			METH_VARARGS },
; 2470 : 		{ "GetWindowRect",				wndMgrGetWindowRect,				METH_VARARGS },
; 2471 : 		{ "SetWindowHorizontalAlign",	wndMgrSetWindowHorizontalAlign,		METH_VARARGS },
; 2472 : 		{ "SetWindowVerticalAlign",		wndMgrSetWindowVerticalAlign,		METH_VARARGS },
; 2473 : 
; 2474 : 		{ "GetChildCount",				wndMgrGetChildCount,				METH_VARARGS },
; 2475 : 
; 2476 : 		{ "IsPickedWindow",				wndMgrIsPickedWindow,				METH_VARARGS },
; 2477 : 		{ "IsIn",						wndMgrIsIn,							METH_VARARGS },
; 2478 : 		{ "GetMouseLocalPosition",		wndMgrGetMouseLocalPosition,		METH_VARARGS },
; 2479 : 		{ "GetMousePosition",			wndMgrGetMousePosition,				METH_VARARGS },
; 2480 : 		{ "IsDragging",					wndMgrIsDragging,					METH_VARARGS },
; 2481 : 
; 2482 : 		{ "SetLimitBias",				wndMgrSetLimitBias,					METH_VARARGS },
; 2483 : 
; 2484 : 		{ "UpdateRect",					wndMgrUpdateRect,					METH_VARARGS },
; 2485 : 
; 2486 : 		// Slot Window
; 2487 : 		{ "AppendSlot",					wndMgrAppendSlot,					METH_VARARGS },
; 2488 : 		{ "ArrangeSlot",				wndMgrArrangeSlot,					METH_VARARGS },
; 2489 : 		{ "ClearSlot",					wndMgrClearSlot,					METH_VARARGS },
; 2490 : 		{ "ClearAllSlot",				wndMgrClearAllSlot,					METH_VARARGS },
; 2491 : 		{ "HasSlot",					wndMgrHasSlot,						METH_VARARGS },
; 2492 : 		{ "SetSlot",					wndMgrSetSlot,						METH_VARARGS },
; 2493 : 		{ "SetSlotCount",				wndMgrSetSlotCount,					METH_VARARGS },
; 2494 : 		{ "SetSlotCountNew",			wndMgrSetSlotCountNew,				METH_VARARGS },
; 2495 : 		{ "SetSlotCoolTime",			wndMgrSetSlotCoolTime,				METH_VARARGS },
; 2496 : 		{ "SetToggleSlot",				wndMgrSetToggleSlot,				METH_VARARGS },
; 2497 : 		{ "ActivateSlot",				wndMgrActivateSlot,					METH_VARARGS },
; 2498 : 		{ "DeactivateSlot",				wndMgrDeactivateSlot,				METH_VARARGS },
; 2499 : 		{ "EnableSlot",					wndMgrEnableSlot,					METH_VARARGS },
; 2500 : 		{ "DisableSlot",				wndMgrDisableSlot,					METH_VARARGS },
; 2501 : 		{ "ShowSlotBaseImage",			wndMgrShowSlotBaseImage,			METH_VARARGS },
; 2502 : 		{ "HideSlotBaseImage",			wndMgrHideSlotBaseImage,			METH_VARARGS },
; 2503 : 		{ "SetSlotType",				wndMgrSetSlotType,					METH_VARARGS },
; 2504 : 		{ "SetSlotStyle",				wndMgrSetSlotStyle,					METH_VARARGS },
; 2505 : 		{ "SetSlotBaseImage",			wndMgrSetSlotBaseImage,				METH_VARARGS },
; 2506 : 
; 2507 : 		{ "SetCoverButton",				wndMgrSetCoverButton,				METH_VARARGS },
; 2508 : 		{ "EnableCoverButton",			wndMgrEnableCoverButton,			METH_VARARGS },
; 2509 : 		{ "DisableCoverButton",			wndMgrDisableCoverButton,			METH_VARARGS },
; 2510 : 		{ "IsDisableCoverButton",		wndMgrIsDisableCoverButton,			METH_VARARGS },
; 2511 : 		{ "SetAlwaysRenderCoverButton",	wndMgrSetAlwaysRenderCoverButton,	METH_VARARGS },
; 2512 : 
; 2513 : 		{ "AppendSlotButton",			wndMgrAppendSlotButton,				METH_VARARGS },
; 2514 : 		{ "AppendRequirementSignImage",	wndMgrAppendRequirementSignImage,	METH_VARARGS },
; 2515 : 		{ "ShowSlotButton",				wndMgrShowSlotButton,				METH_VARARGS },
; 2516 : 		{ "HideAllSlotButton",			wndMgrHideAllSlotButton,			METH_VARARGS },
; 2517 : 		{ "ShowRequirementSign",		wndMgrShowRequirementSign,			METH_VARARGS },
; 2518 : 		{ "HideRequirementSign",		wndMgrHideRequirementSign,			METH_VARARGS },
; 2519 : 		{ "RefreshSlot",				wndMgrRefreshSlot,					METH_VARARGS },
; 2520 : 		{ "SetUseMode",					wndMgrSetUseMode,					METH_VARARGS },
; 2521 : 		{ "SetUsableItem",				wndMgrSetUsableItem,				METH_VARARGS },
; 2522 : 
; 2523 : 		{ "SelectSlot",					wndMgrSelectSlot,					METH_VARARGS },
; 2524 : 		{ "ClearSelected",				wndMgrClearSelected,				METH_VARARGS },
; 2525 : 		{ "GetSelectedSlotCount",		wndMgrGetSelectedSlotCount,			METH_VARARGS },
; 2526 : 		{ "GetSelectedSlotNumber",		wndMgrGetSelectedSlotNumber,		METH_VARARGS },
; 2527 : 		{ "IsSelectedSlot",				wndMgrIsSelectedSlot,				METH_VARARGS },
; 2528 : 		{ "GetSlotCount",				wndMgrGetSlotCount,					METH_VARARGS },
; 2529 : 		{ "LockSlot",					wndMgrLockSlot,						METH_VARARGS },
; 2530 : 		{ "UnlockSlot",					wndMgrUnlockSlot,					METH_VARARGS },
; 2531 : 
; 2532 : 		// Bar
; 2533 : 		{ "SetColor",					wndBarSetColor,						METH_VARARGS },
; 2534 : 
; 2535 : 		// TextLine
; 2536 : 		{ "SetMax",						wndTextSetMax,						METH_VARARGS },
; 2537 : 		{ "SetHorizontalAlign",			wndTextSetHorizontalAlign,			METH_VARARGS },
; 2538 : 		{ "SetVerticalAlign",			wndTextSetVerticalAlign,			METH_VARARGS },
; 2539 : 		{ "SetSecret",					wndTextSetSecret,					METH_VARARGS },
; 2540 : 		{ "SetOutline",					wndTextSetOutline,					METH_VARARGS },
; 2541 : 		{ "SetFeather",					wndTextSetFeather,					METH_VARARGS },
; 2542 : 		{ "SetMultiLine",				wndTextSetMultiLine,				METH_VARARGS },
; 2543 : 		{ "SetText",					wndTextSetText,						METH_VARARGS },
; 2544 : 		{ "SetFontName",				wndTextSetFontName,					METH_VARARGS },
; 2545 : 		{ "SetFontColor",				wndTextSetFontColor,				METH_VARARGS },
; 2546 : 		{ "SetLimitWidth",				wndTextSetLimitWidth,				METH_VARARGS },
; 2547 : 		{ "GetText",					wndTextGetText,						METH_VARARGS },
; 2548 : 		{ "GetTextSize",				wndTextGetTextSize,					METH_VARARGS },
; 2549 : 		{ "ShowCursor",					wndTextShowCursor,					METH_VARARGS },
; 2550 : 		{ "HideCursor",					wndTextHideCursor,					METH_VARARGS },
; 2551 : 		{ "GetCursorPosition",			wndTextGetCursorPosition,			METH_VARARGS },
; 2552 : 		// NumberLine
; 2553 : 		{ "SetNumber",						wndNumberSetNumber,							METH_VARARGS },
; 2554 : 		{ "SetNumberHorizontalAlignCenter",	wndNumberSetNumberHorizontalAlignCenter,	METH_VARARGS },
; 2555 : 		{ "SetNumberHorizontalAlignRight",	wndNumberSetNumberHorizontalAlignRight,		METH_VARARGS },
; 2556 : 		{ "SetPath",						wndNumberSetPath,							METH_VARARGS },
; 2557 : 
; 2558 : 		// ImageBox
; 2559 : 		{ "MarkBox_SetImage",			wndMarkBox_SetImage,				METH_VARARGS },
; 2560 : 		{ "MarkBox_SetImageFilename",	wndMarkBox_SetImageFilename,		METH_VARARGS },
; 2561 : 		{ "MarkBox_Load",				wndMarkBox_Load,					METH_VARARGS },
; 2562 : 		{ "MarkBox_SetIndex",			wndMarkBox_SetIndex,				METH_VARARGS },
; 2563 : 		{ "MarkBox_SetScale",			wndMarkBox_SetScale,				METH_VARARGS },
; 2564 : 		{ "MarkBox_SetDiffuseColor",	wndMarkBox_SetDiffuseColor,			METH_VARARGS },
; 2565 : 
; 2566 : 		// ImageBox
; 2567 : 		{ "LoadImage",					wndImageLoadImage,					METH_VARARGS },
; 2568 : 		{ "SetDiffuseColor",			wndImageSetDiffuseColor,			METH_VARARGS },
; 2569 : 		{ "GetWidth",					wndImageGetWidth,					METH_VARARGS },
; 2570 : 		{ "GetHeight",					wndImageGetHeight,					METH_VARARGS },
; 2571 : 		// ExpandedImageBox
; 2572 : 		{ "SetScale",					wndImageSetScale,					METH_VARARGS },
; 2573 : 		{ "SetOrigin",					wndImageSetOrigin,					METH_VARARGS },
; 2574 : 		{ "SetRotation",				wndImageSetRotation,				METH_VARARGS },
; 2575 : 		{ "SetRenderingRect",			wndImageSetRenderingRect,			METH_VARARGS },
; 2576 : 		{ "SetRenderingMode",			wndImageSetRenderingMode,			METH_VARARGS },
; 2577 : 		// AniImageBox
; 2578 : 		{ "SetDelay",					wndImageSetDelay,					METH_VARARGS },
; 2579 : 		{ "AppendImage",				wndImageAppendImage,				METH_VARARGS },
; 2580 : 
; 2581 : 		// Button
; 2582 : 		{ "SetUpVisual",				wndButtonSetUpVisual,				METH_VARARGS },
; 2583 : 		{ "SetOverVisual",				wndButtonSetOverVisual,				METH_VARARGS },
; 2584 : 		{ "SetDownVisual",				wndButtonSetDownVisual,				METH_VARARGS },
; 2585 : 		{ "SetDisableVisual",			wndButtonSetDisableVisual,			METH_VARARGS },
; 2586 : 		{ "GetUpVisualFileName",		wndButtonGetUpVisualFileName,		METH_VARARGS },
; 2587 : 		{ "GetOverVisualFileName",		wndButtonGetOverVisualFileName,		METH_VARARGS },
; 2588 : 		{ "GetDownVisualFileName",		wndButtonGetDownVisualFileName,		METH_VARARGS },
; 2589 : 		{ "Flash",						wndButtonFlash,						METH_VARARGS },
; 2590 : 		{ "Enable",						wndButtonEnable,					METH_VARARGS },
; 2591 : 		{ "Disable",					wndButtonDisable,					METH_VARARGS },
; 2592 : 		{ "Down",						wndButtonDown,						METH_VARARGS },
; 2593 : 		{ "SetUp",						wndButtonSetUp,						METH_VARARGS },
; 2594 : 		{ "IsDown",						wndButtonIsDown,					METH_VARARGS },
; 2595 : 
; 2596 : 		// DragButton
; 2597 : 		{ "SetRestrictMovementArea",	wndButtonSetRestrictMovementArea,	METH_VARARGS },
; 2598 : 
; 2599 : 		// For Debug
; 2600 : 		{ "SetOutlineFlag",				wndMgrSetOutlineFlag,				METH_VARARGS },
; 2601 : 		{ "ShowOverInWindowName",		wndMgrShowOverInWindowName,			METH_VARARGS },
; 2602 : 
; 2603 : #ifdef ENABLE_SLOT_WINDOW_EX
; 2604 : 		{ "IsActivatedSlot",			wndMgrIsActivatedSlot, METH_VARARGS },
; 2605 : 		{ "GetSlotCoolTime",			wndMgrGetSlotCoolTime, METH_VARARGS },
; 2606 : #endif
; 2607 : 
; 2608 : #ifdef ENABLE_ACCE_SYSTEM
; 2609 : 		{"ActivateEffect",				wndMgrActivateEffect,				METH_VARARGS },
; 2610 : 		{"DeactivateEffect",			wndMgrDeactivateEffect,				METH_VARARGS },
; 2611 : #endif
; 2612 : 
; 2613 : 		{ NULL,							NULL,								NULL },
; 2614 : 	};
; 2615 : 
; 2616 : 	PyObject * poModule = Py_InitModule("wndMgr", s_methods);

  00002	68 f5 03 00 00	 push	 1013			; 000003f5H
  00007	6a 00		 push	 0
  00009	6a 00		 push	 0
  0000b	68 00 00 00 00	 push	 OFFSET ?s_methods@?1??initwndMgr@@YAXXZ@4PAUPyMethodDef@@A
  00010	68 00 00 00 00	 push	 OFFSET ??_C@_06CMPPDHLC@wndMgr@
  00015	ff 15 00 00 00
	00		 call	 DWORD PTR __imp__Py_InitModule4

; 2617 : 
; 2618 : //	PyObject * poMgrModule = Py_InitModule("wndMgr", s_methods);
; 2619 : //	PyObject * poTextModule = Py_InitModule("wndText", s_methods);
; 2620 : //	PyObject * poSlotModule = Py_InitModule("wndSlot", s_methods);
; 2621 : 
; 2622 : 	PyModule_AddIntConstant(poModule, "SLOT_STYLE_NONE",				UI::SLOT_STYLE_NONE);

  0001b	8b 35 00 00 00
	00		 mov	 esi, DWORD PTR __imp__PyModule_AddIntConstant
  00021	8b f8		 mov	 edi, eax
  00023	6a 00		 push	 0
  00025	68 00 00 00 00	 push	 OFFSET ??_C@_0BA@CEBPCJJF@SLOT_STYLE_NONE@
  0002a	57		 push	 edi
  0002b	ff d6		 call	 esi

; 2623 : 	PyModule_AddIntConstant(poModule, "SLOT_STYLE_PICK_UP",				UI::SLOT_STYLE_PICK_UP);

  0002d	6a 01		 push	 1
  0002f	68 00 00 00 00	 push	 OFFSET ??_C@_0BD@HIHLPNEG@SLOT_STYLE_PICK_UP@
  00034	57		 push	 edi
  00035	ff d6		 call	 esi

; 2624 : 	PyModule_AddIntConstant(poModule, "SLOT_STYLE_SELECT",				UI::SLOT_STYLE_SELECT);

  00037	6a 02		 push	 2
  00039	68 00 00 00 00	 push	 OFFSET ??_C@_0BC@DPNNOEON@SLOT_STYLE_SELECT@
  0003e	57		 push	 edi
  0003f	ff d6		 call	 esi

; 2625 : 
; 2626 : 	PyModule_AddIntConstant(poModule, "TEXT_HORIZONTAL_ALIGN_LEFT",		CGraphicTextInstance::HORIZONTAL_ALIGN_LEFT);

  00041	6a 01		 push	 1
  00043	68 00 00 00 00	 push	 OFFSET ??_C@_0BL@KJOOHAME@TEXT_HORIZONTAL_ALIGN_LEFT@
  00048	57		 push	 edi
  00049	ff d6		 call	 esi
  0004b	83 c4 44	 add	 esp, 68			; 00000044H

; 2627 : 	PyModule_AddIntConstant(poModule, "TEXT_HORIZONTAL_ALIGN_RIGHT",	CGraphicTextInstance::HORIZONTAL_ALIGN_RIGHT);

  0004e	6a 03		 push	 3
  00050	68 00 00 00 00	 push	 OFFSET ??_C@_0BM@BDNLMDBC@TEXT_HORIZONTAL_ALIGN_RIGHT@
  00055	57		 push	 edi
  00056	ff d6		 call	 esi

; 2628 : 	PyModule_AddIntConstant(poModule, "TEXT_HORIZONTAL_ALIGN_CENTER",	CGraphicTextInstance::HORIZONTAL_ALIGN_CENTER);

  00058	6a 02		 push	 2
  0005a	68 00 00 00 00	 push	 OFFSET ??_C@_0BN@MHHHIBEN@TEXT_HORIZONTAL_ALIGN_CENTER@
  0005f	57		 push	 edi
  00060	ff d6		 call	 esi

; 2629 : 	PyModule_AddIntConstant(poModule, "TEXT_VERTICAL_ALIGN_TOP",		CGraphicTextInstance::VERTICAL_ALIGN_TOP);

  00062	6a 10		 push	 16			; 00000010H
  00064	68 00 00 00 00	 push	 OFFSET ??_C@_0BI@PIKJCBDF@TEXT_VERTICAL_ALIGN_TOP@
  00069	57		 push	 edi
  0006a	ff d6		 call	 esi

; 2630 : 	PyModule_AddIntConstant(poModule, "TEXT_VERTICAL_ALIGN_BOTTOM",		CGraphicTextInstance::VERTICAL_ALIGN_BOTTOM);

  0006c	6a 30		 push	 48			; 00000030H
  0006e	68 00 00 00 00	 push	 OFFSET ??_C@_0BL@IKMFEFFI@TEXT_VERTICAL_ALIGN_BOTTOM@
  00073	57		 push	 edi
  00074	ff d6		 call	 esi

; 2631 : 	PyModule_AddIntConstant(poModule, "TEXT_VERTICAL_ALIGN_CENTER",		CGraphicTextInstance::VERTICAL_ALIGN_CENTER);

  00076	6a 20		 push	 32			; 00000020H
  00078	68 00 00 00 00	 push	 OFFSET ??_C@_0BL@GHLEGJOB@TEXT_VERTICAL_ALIGN_CENTER@
  0007d	57		 push	 edi
  0007e	ff d6		 call	 esi

; 2632 : 
; 2633 : 	PyModule_AddIntConstant(poModule, "HORIZONTAL_ALIGN_LEFT",			UI::CWindow::HORIZONTAL_ALIGN_LEFT);

  00080	6a 00		 push	 0
  00082	68 00 00 00 00	 push	 OFFSET ??_C@_0BG@CEANPPL@HORIZONTAL_ALIGN_LEFT@
  00087	57		 push	 edi
  00088	ff d6		 call	 esi
  0008a	83 c4 48	 add	 esp, 72			; 00000048H

; 2634 : 	PyModule_AddIntConstant(poModule, "HORIZONTAL_ALIGN_CENTER",		UI::CWindow::HORIZONTAL_ALIGN_CENTER);

  0008d	6a 01		 push	 1
  0008f	68 00 00 00 00	 push	 OFFSET ??_C@_0BI@NJMALOKG@HORIZONTAL_ALIGN_CENTER@
  00094	57		 push	 edi
  00095	ff d6		 call	 esi

; 2635 : 	PyModule_AddIntConstant(poModule, "HORIZONTAL_ALIGN_RIGHT",			UI::CWindow::HORIZONTAL_ALIGN_RIGHT);

  00097	6a 02		 push	 2
  00099	68 00 00 00 00	 push	 OFFSET ??_C@_0BH@KFBGEAIA@HORIZONTAL_ALIGN_RIGHT@
  0009e	57		 push	 edi
  0009f	ff d6		 call	 esi

; 2636 : 	PyModule_AddIntConstant(poModule, "VERTICAL_ALIGN_TOP",				UI::CWindow::VERTICAL_ALIGN_TOP);

  000a1	6a 00		 push	 0
  000a3	68 00 00 00 00	 push	 OFFSET ??_C@_0BD@PBJDAEOI@VERTICAL_ALIGN_TOP@
  000a8	57		 push	 edi
  000a9	ff d6		 call	 esi

; 2637 : 	PyModule_AddIntConstant(poModule, "VERTICAL_ALIGN_CENTER",			UI::CWindow::VERTICAL_ALIGN_CENTER);

  000ab	6a 01		 push	 1
  000ad	68 00 00 00 00	 push	 OFFSET ??_C@_0BG@MMBKMGNO@VERTICAL_ALIGN_CENTER@
  000b2	57		 push	 edi
  000b3	ff d6		 call	 esi

; 2638 : 	PyModule_AddIntConstant(poModule, "VERTICAL_ALIGN_BOTTOM",			UI::CWindow::VERTICAL_ALIGN_BOTTOM);

  000b5	6a 02		 push	 2
  000b7	68 00 00 00 00	 push	 OFFSET ??_C@_0BG@CBGLOKGH@VERTICAL_ALIGN_BOTTOM@
  000bc	57		 push	 edi
  000bd	ff d6		 call	 esi

; 2639 : 
; 2640 : 	PyModule_AddIntConstant(poModule, "RENDERING_MODE_MODULATE",		CGraphicExpandedImageInstance::RENDERING_MODE_MODULATE);

  000bf	6a 03		 push	 3
  000c1	68 00 00 00 00	 push	 OFFSET ??_C@_0BI@BNOJCJOH@RENDERING_MODE_MODULATE@
  000c6	57		 push	 edi
  000c7	ff d6		 call	 esi
  000c9	83 c4 48	 add	 esp, 72			; 00000048H
  000cc	5f		 pop	 edi
  000cd	5e		 pop	 esi

; 2641 : }

  000ce	c3		 ret	 0
?initwndMgr@@YAXXZ ENDP					; initwndMgr
_TEXT	ENDS
END
