; Listing generated by Microsoft (R) Optimizing Compiler Version 19.27.29112.0 

	TITLE	C:\DS Project\DS Files\Source\ClientSource\Client\eterPythonLib\PythonGraphicThingModule.cpp
	.686P
	.XMM
	include listing.inc
	.model	flat

INCLUDELIB LIBCMT
INCLUDELIB OLDNAMES

PUBLIC	?initgrpThing@@YAXXZ				; initgrpThing
PUBLIC	?PyTuple_GetThingInstance@@YA_NPAU_object@@HPAPAVCGraphicThingInstance@@@Z ; PyTuple_GetThingInstance
PUBLIC	?grpThingGenerate@@YAPAU_object@@PAU1@0@Z	; grpThingGenerate
PUBLIC	?grpThingDelete@@YAPAU_object@@PAU1@0@Z		; grpThingDelete
PUBLIC	?grpThingSetFileName@@YAPAU_object@@PAU1@0@Z	; grpThingSetFileName
PUBLIC	?grpThingRender@@YAPAU_object@@PAU1@0@Z		; grpThingRender
PUBLIC	?grpThingUpdate@@YAPAU_object@@PAU1@0@Z		; grpThingUpdate
PUBLIC	?grpSetThingPosition@@YAPAU_object@@PAU1@0@Z	; grpSetThingPosition
PUBLIC	?grpSetThingRotation@@YAPAU_object@@PAU1@0@Z	; grpSetThingRotation
PUBLIC	?grpSetThingScale@@YAPAU_object@@PAU1@0@Z	; grpSetThingScale
PUBLIC	?ms_singleton@?$CSingleton@VCResourceManager@@@@0PAVCResourceManager@@A ; CSingleton<CResourceManager>::ms_singleton
PUBLIC	??_C@_01KBJDNOO@i@				; `string'
PUBLIC	??_C@_06LMAGPFNF@Update@			; `string'
PUBLIC	??_C@_06EPLDPNDB@Render@			; `string'
PUBLIC	??_C@_0M@GKIFPNAD@SetPosition@			; `string'
PUBLIC	??_C@_08PDEEPOLG@Generate@			; `string'
PUBLIC	??_C@_06JBKGCNBB@Delete@			; `string'
PUBLIC	??_C@_0M@FLDBGGEO@SetFileName@			; `string'
PUBLIC	??_C@_0M@GNIHGJGG@SetRotation@			; `string'
PUBLIC	??_C@_08FMFAIGAB@SetScale@			; `string'
PUBLIC	??_C@_08DDGPJEFE@grpThing@			; `string'
EXTRN	__imp__Py_BuildValue:PROC
EXTRN	__imp__Py_InitModule4:PROC
EXTRN	?PyTuple_GetString@@YA_NPAU_object@@HPAPAD@Z:PROC ; PyTuple_GetString
EXTRN	?PyTuple_GetInteger@@YA_NPAU_object@@HPAH@Z:PROC ; PyTuple_GetInteger
EXTRN	?PyTuple_GetFloat@@YA_NPAU_object@@HPAM@Z:PROC	; PyTuple_GetFloat
EXTRN	?Py_BuildException@@YAPAU_object@@PBDZZ:PROC	; Py_BuildException
EXTRN	?Py_BuildNone@@YAPAU_object@@XZ:PROC		; Py_BuildNone
EXTRN	?IsType@CResource@@QAE_NK@Z:PROC		; CResource::IsType
EXTRN	?GetResourcePointer@CResourceManager@@QAEPAVCResource@@PBD@Z:PROC ; CResourceManager::GetResourcePointer
EXTRN	?SetPosition@CGraphicObjectInstance@@QAEXMMM@Z:PROC ; CGraphicObjectInstance::SetPosition
EXTRN	?SetScale@CGraphicObjectInstance@@QAEXMMM_N@Z:PROC ; CGraphicObjectInstance::SetScale
EXTRN	?SetRotation@CGraphicObjectInstance@@QAEXM@Z:PROC ; CGraphicObjectInstance::SetRotation
EXTRN	?Clear@CGraphicObjectInstance@@QAEXXZ:PROC	; CGraphicObjectInstance::Clear
EXTRN	?Update@CGraphicObjectInstance@@QAEXXZ:PROC	; CGraphicObjectInstance::Update
EXTRN	?Render@CGraphicObjectInstance@@QAE_NXZ:PROC	; CGraphicObjectInstance::Render
EXTRN	?Deform@CGraphicObjectInstance@@QAEXXZ:PROC	; CGraphicObjectInstance::Deform
EXTRN	?Type@CGraphicThing@@SAKXZ:PROC			; CGraphicThing::Type
EXTRN	?ReserveModelInstance@CGraphicThingInstance@@QAEXH@Z:PROC ; CGraphicThingInstance::ReserveModelInstance
EXTRN	?ReserveModelThing@CGraphicThingInstance@@QAEXH@Z:PROC ; CGraphicThingInstance::ReserveModelThing
EXTRN	?RegisterModelThing@CGraphicThingInstance@@QAEXHPAVCGraphicThing@@@Z:PROC ; CGraphicThingInstance::RegisterModelThing
EXTRN	?SetModelInstance@CGraphicThingInstance@@QAE_NHHHH@Z:PROC ; CGraphicThingInstance::SetModelInstance
EXTRN	?New@CGraphicThingInstance@@SAPAV1@XZ:PROC	; CGraphicThingInstance::New
EXTRN	?Delete@CGraphicThingInstance@@SAXPAV1@@Z:PROC	; CGraphicThingInstance::Delete
EXTRN	__fltused:DWORD
;	COMDAT ?ms_singleton@?$CSingleton@VCResourceManager@@@@0PAVCResourceManager@@A
_BSS	SEGMENT
?ms_singleton@?$CSingleton@VCResourceManager@@@@0PAVCResourceManager@@A DD 01H DUP (?) ; CSingleton<CResourceManager>::ms_singleton
_BSS	ENDS
;	COMDAT ??_C@_08DDGPJEFE@grpThing@
CONST	SEGMENT
??_C@_08DDGPJEFE@grpThing@ DB 'grpThing', 00H		; `string'
CONST	ENDS
;	COMDAT ??_C@_08FMFAIGAB@SetScale@
CONST	SEGMENT
??_C@_08FMFAIGAB@SetScale@ DB 'SetScale', 00H		; `string'
CONST	ENDS
;	COMDAT ??_C@_0M@GNIHGJGG@SetRotation@
CONST	SEGMENT
??_C@_0M@GNIHGJGG@SetRotation@ DB 'SetRotation', 00H	; `string'
CONST	ENDS
;	COMDAT ??_C@_0M@FLDBGGEO@SetFileName@
CONST	SEGMENT
??_C@_0M@FLDBGGEO@SetFileName@ DB 'SetFileName', 00H	; `string'
CONST	ENDS
;	COMDAT ??_C@_06JBKGCNBB@Delete@
CONST	SEGMENT
??_C@_06JBKGCNBB@Delete@ DB 'Delete', 00H		; `string'
CONST	ENDS
;	COMDAT ??_C@_08PDEEPOLG@Generate@
CONST	SEGMENT
??_C@_08PDEEPOLG@Generate@ DB 'Generate', 00H		; `string'
CONST	ENDS
;	COMDAT ??_C@_0M@GKIFPNAD@SetPosition@
CONST	SEGMENT
??_C@_0M@GKIFPNAD@SetPosition@ DB 'SetPosition', 00H	; `string'
CONST	ENDS
;	COMDAT ??_C@_06EPLDPNDB@Render@
CONST	SEGMENT
??_C@_06EPLDPNDB@Render@ DB 'Render', 00H		; `string'
CONST	ENDS
;	COMDAT ??_C@_06LMAGPFNF@Update@
CONST	SEGMENT
??_C@_06LMAGPFNF@Update@ DB 'Update', 00H		; `string'
CONST	ENDS
;	COMDAT ?s_methods@?1??initgrpThing@@YAXXZ@4PAUPyMethodDef@@A
_DATA	SEGMENT
?s_methods@?1??initgrpThing@@YAXXZ@4PAUPyMethodDef@@A DD FLAT:??_C@_06LMAGPFNF@Update@ ; `initgrpThing'::`2'::s_methods
	DD	FLAT:?grpThingUpdate@@YAPAU_object@@PAU1@0@Z
	DD	01H
	ORG $+4
	DD	FLAT:??_C@_06EPLDPNDB@Render@
	DD	FLAT:?grpThingRender@@YAPAU_object@@PAU1@0@Z
	DD	01H
	ORG $+4
	DD	FLAT:??_C@_0M@GKIFPNAD@SetPosition@
	DD	FLAT:?grpSetThingPosition@@YAPAU_object@@PAU1@0@Z
	DD	01H
	ORG $+4
	DD	FLAT:??_C@_08PDEEPOLG@Generate@
	DD	FLAT:?grpThingGenerate@@YAPAU_object@@PAU1@0@Z
	DD	01H
	ORG $+4
	DD	FLAT:??_C@_06JBKGCNBB@Delete@
	DD	FLAT:?grpThingDelete@@YAPAU_object@@PAU1@0@Z
	DD	01H
	ORG $+4
	DD	FLAT:??_C@_0M@FLDBGGEO@SetFileName@
	DD	FLAT:?grpThingSetFileName@@YAPAU_object@@PAU1@0@Z
	DD	01H
	ORG $+4
	DD	FLAT:??_C@_0M@GNIHGJGG@SetRotation@
	DD	FLAT:?grpSetThingRotation@@YAPAU_object@@PAU1@0@Z
	DD	01H
	ORG $+4
	DD	FLAT:??_C@_08FMFAIGAB@SetScale@
	DD	FLAT:?grpSetThingScale@@YAPAU_object@@PAU1@0@Z
	DD	01H
	ORG $+4
	DD	00H
	DD	00H
	DD	00H
	ORG $+4
_DATA	ENDS
;	COMDAT ??_C@_01KBJDNOO@i@
CONST	SEGMENT
??_C@_01KBJDNOO@i@ DB 'i', 00H				; `string'
CONST	ENDS
; Function compile flags: /Ogtp
; File C:\DS Project\DS Files\Source\ClientSource\Client\eterPythonLib\PythonGraphicThingModule.cpp
;	COMDAT ?grpSetThingScale@@YAPAU_object@@PAU1@0@Z
_TEXT	SEGMENT
_pThingInstance$ = -16					; size = 4
_x$ = -12						; size = 4
_y$ = -8						; size = 4
_z$ = -4						; size = 4
_poSelf$ = 8						; size = 4
_poArgs$ = 12						; size = 4
?grpSetThingScale@@YAPAU_object@@PAU1@0@Z PROC		; grpSetThingScale, COMDAT

; 129  : {

  00000	55		 push	 ebp
  00001	8b ec		 mov	 ebp, esp
  00003	83 ec 10	 sub	 esp, 16			; 00000010H

; 130  : 	CGraphicThingInstance* pThingInstance;
; 131  : 	if (!PyTuple_GetThingInstance(poArgs, 0, &pThingInstance))

  00006	8d 45 f0	 lea	 eax, DWORD PTR _pThingInstance$[ebp]
  00009	56		 push	 esi
  0000a	8b 75 0c	 mov	 esi, DWORD PTR _poArgs$[ebp]
  0000d	50		 push	 eax
  0000e	6a 00		 push	 0
  00010	56		 push	 esi
  00011	e8 00 00 00 00	 call	 ?PyTuple_GetThingInstance@@YA_NPAU_object@@HPAPAVCGraphicThingInstance@@@Z ; PyTuple_GetThingInstance
  00016	83 c4 0c	 add	 esp, 12			; 0000000cH
  00019	84 c0		 test	 al, al
  0001b	75 0f		 jne	 SHORT $LN2@grpSetThin
$LN7@grpSetThin:

; 146  : }

  0001d	6a 00		 push	 0
$LN8@grpSetThin:
  0001f	e8 00 00 00 00	 call	 ?Py_BuildException@@YAPAU_object@@PBDZZ ; Py_BuildException
  00024	83 c4 04	 add	 esp, 4
  00027	5e		 pop	 esi
  00028	8b e5		 mov	 esp, ebp
  0002a	5d		 pop	 ebp
  0002b	c3		 ret	 0
$LN2@grpSetThin:

; 132  : 		return Py_BuildException();
; 133  : 
; 134  : 	float x;
; 135  : 	if (!PyTuple_GetFloat(poArgs, 1, &x))

  0002c	8d 45 f4	 lea	 eax, DWORD PTR _x$[ebp]
  0002f	50		 push	 eax
  00030	6a 01		 push	 1
  00032	56		 push	 esi
  00033	e8 00 00 00 00	 call	 ?PyTuple_GetFloat@@YA_NPAU_object@@HPAM@Z ; PyTuple_GetFloat
  00038	83 c4 0c	 add	 esp, 12			; 0000000cH
  0003b	84 c0		 test	 al, al
  0003d	74 de		 je	 SHORT $LN7@grpSetThin

; 136  : 		return Py_BuildException();
; 137  : 	float y;
; 138  : 	if (!PyTuple_GetFloat(poArgs, 2, &y))

  0003f	8d 45 f8	 lea	 eax, DWORD PTR _y$[ebp]
  00042	50		 push	 eax
  00043	6a 02		 push	 2
  00045	56		 push	 esi
  00046	e8 00 00 00 00	 call	 ?PyTuple_GetFloat@@YA_NPAU_object@@HPAM@Z ; PyTuple_GetFloat
  0004b	83 c4 0c	 add	 esp, 12			; 0000000cH
  0004e	84 c0		 test	 al, al
  00050	74 cb		 je	 SHORT $LN7@grpSetThin

; 139  : 		return Py_BuildException();
; 140  : 	float z;
; 141  : 	if (!PyTuple_GetFloat(poArgs, 3, &z))

  00052	8d 45 fc	 lea	 eax, DWORD PTR _z$[ebp]
  00055	50		 push	 eax
  00056	6a 03		 push	 3
  00058	56		 push	 esi
  00059	e8 00 00 00 00	 call	 ?PyTuple_GetFloat@@YA_NPAU_object@@HPAM@Z ; PyTuple_GetFloat
  0005e	83 c4 0c	 add	 esp, 12			; 0000000cH
  00061	6a 00		 push	 0
  00063	84 c0		 test	 al, al
  00065	74 b8		 je	 SHORT $LN8@grpSetThin

; 142  : 		return Py_BuildException();
; 143  : 
; 144  : 	pThingInstance->SetScale(x, y, z);

  00067	f3 0f 10 45 fc	 movss	 xmm0, DWORD PTR _z$[ebp]
  0006c	83 ec 0c	 sub	 esp, 12			; 0000000cH
  0006f	8b 4d f0	 mov	 ecx, DWORD PTR _pThingInstance$[ebp]
  00072	f3 0f 11 44 24
	08		 movss	 DWORD PTR [esp+8], xmm0
  00078	f3 0f 10 45 f8	 movss	 xmm0, DWORD PTR _y$[ebp]
  0007d	f3 0f 11 44 24
	04		 movss	 DWORD PTR [esp+4], xmm0
  00083	f3 0f 10 45 f4	 movss	 xmm0, DWORD PTR _x$[ebp]
  00088	f3 0f 11 04 24	 movss	 DWORD PTR [esp], xmm0
  0008d	e8 00 00 00 00	 call	 ?SetScale@CGraphicObjectInstance@@QAEXMMM_N@Z ; CGraphicObjectInstance::SetScale

; 145  : 	return Py_BuildNone();

  00092	e8 00 00 00 00	 call	 ?Py_BuildNone@@YAPAU_object@@XZ ; Py_BuildNone
  00097	5e		 pop	 esi

; 146  : }

  00098	8b e5		 mov	 esp, ebp
  0009a	5d		 pop	 ebp
  0009b	c3		 ret	 0
?grpSetThingScale@@YAPAU_object@@PAU1@0@Z ENDP		; grpSetThingScale
_TEXT	ENDS
; Function compile flags: /Ogtp
; File C:\DS Project\DS Files\Source\ClientSource\Client\eterPythonLib\PythonGraphicThingModule.cpp
;	COMDAT ?grpSetThingRotation@@YAPAU_object@@PAU1@0@Z
_TEXT	SEGMENT
_pThingInstance$ = -8					; size = 4
_fDegree$ = -4						; size = 4
_poSelf$ = 8						; size = 4
_poArgs$ = 12						; size = 4
?grpSetThingRotation@@YAPAU_object@@PAU1@0@Z PROC	; grpSetThingRotation, COMDAT

; 115  : {

  00000	55		 push	 ebp
  00001	8b ec		 mov	 ebp, esp
  00003	83 ec 08	 sub	 esp, 8

; 116  : 	CGraphicThingInstance* pThingInstance;
; 117  : 	if (!PyTuple_GetThingInstance(poArgs, 0, &pThingInstance))

  00006	8d 45 f8	 lea	 eax, DWORD PTR _pThingInstance$[ebp]
  00009	50		 push	 eax
  0000a	6a 00		 push	 0
  0000c	ff 75 0c	 push	 DWORD PTR _poArgs$[ebp]
  0000f	e8 00 00 00 00	 call	 ?PyTuple_GetThingInstance@@YA_NPAU_object@@HPAPAVCGraphicThingInstance@@@Z ; PyTuple_GetThingInstance
  00014	83 c4 0c	 add	 esp, 12			; 0000000cH
  00017	84 c0		 test	 al, al
  00019	75 0e		 jne	 SHORT $LN2@grpSetThin
$LN5@grpSetThin:

; 126  : }

  0001b	6a 00		 push	 0
  0001d	e8 00 00 00 00	 call	 ?Py_BuildException@@YAPAU_object@@PBDZZ ; Py_BuildException
  00022	83 c4 04	 add	 esp, 4
  00025	8b e5		 mov	 esp, ebp
  00027	5d		 pop	 ebp
  00028	c3		 ret	 0
$LN2@grpSetThin:

; 118  : 		return Py_BuildException();
; 119  : 
; 120  : 	float fDegree;
; 121  : 	if (!PyTuple_GetFloat(poArgs, 1, &fDegree))

  00029	8d 45 fc	 lea	 eax, DWORD PTR _fDegree$[ebp]
  0002c	50		 push	 eax
  0002d	6a 01		 push	 1
  0002f	ff 75 0c	 push	 DWORD PTR _poArgs$[ebp]
  00032	e8 00 00 00 00	 call	 ?PyTuple_GetFloat@@YA_NPAU_object@@HPAM@Z ; PyTuple_GetFloat
  00037	83 c4 0c	 add	 esp, 12			; 0000000cH
  0003a	84 c0		 test	 al, al
  0003c	74 dd		 je	 SHORT $LN5@grpSetThin

; 122  : 		return Py_BuildException();
; 123  : 
; 124  : 	pThingInstance->SetRotation(fDegree);

  0003e	f3 0f 10 45 fc	 movss	 xmm0, DWORD PTR _fDegree$[ebp]
  00043	51		 push	 ecx
  00044	8b 4d f8	 mov	 ecx, DWORD PTR _pThingInstance$[ebp]
  00047	f3 0f 11 04 24	 movss	 DWORD PTR [esp], xmm0
  0004c	e8 00 00 00 00	 call	 ?SetRotation@CGraphicObjectInstance@@QAEXM@Z ; CGraphicObjectInstance::SetRotation

; 125  : 	return Py_BuildNone();

  00051	e8 00 00 00 00	 call	 ?Py_BuildNone@@YAPAU_object@@XZ ; Py_BuildNone

; 126  : }

  00056	8b e5		 mov	 esp, ebp
  00058	5d		 pop	 ebp
  00059	c3		 ret	 0
?grpSetThingRotation@@YAPAU_object@@PAU1@0@Z ENDP	; grpSetThingRotation
_TEXT	ENDS
; Function compile flags: /Ogtp
; File C:\DS Project\DS Files\Source\ClientSource\Client\eterPythonLib\PythonGraphicThingModule.cpp
;	COMDAT ?grpSetThingPosition@@YAPAU_object@@PAU1@0@Z
_TEXT	SEGMENT
_pThingInstance$ = -16					; size = 4
_x$ = -12						; size = 4
_y$ = -8						; size = 4
_z$ = -4						; size = 4
_poSelf$ = 8						; size = 4
_poArgs$ = 12						; size = 4
?grpSetThingPosition@@YAPAU_object@@PAU1@0@Z PROC	; grpSetThingPosition, COMDAT

; 93   : {

  00000	55		 push	 ebp
  00001	8b ec		 mov	 ebp, esp
  00003	83 ec 10	 sub	 esp, 16			; 00000010H

; 94   : 	CGraphicThingInstance* pThingInstance;
; 95   : 	if (!PyTuple_GetThingInstance(poArgs, 0, &pThingInstance))

  00006	8d 45 f0	 lea	 eax, DWORD PTR _pThingInstance$[ebp]
  00009	56		 push	 esi
  0000a	8b 75 0c	 mov	 esi, DWORD PTR _poArgs$[ebp]
  0000d	50		 push	 eax
  0000e	6a 00		 push	 0
  00010	56		 push	 esi
  00011	e8 00 00 00 00	 call	 ?PyTuple_GetThingInstance@@YA_NPAU_object@@HPAPAVCGraphicThingInstance@@@Z ; PyTuple_GetThingInstance
  00016	83 c4 0c	 add	 esp, 12			; 0000000cH
  00019	84 c0		 test	 al, al
  0001b	75 0f		 jne	 SHORT $LN2@grpSetThin
$LN7@grpSetThin:

; 112  : }

  0001d	6a 00		 push	 0
  0001f	e8 00 00 00 00	 call	 ?Py_BuildException@@YAPAU_object@@PBDZZ ; Py_BuildException
  00024	83 c4 04	 add	 esp, 4
  00027	5e		 pop	 esi
  00028	8b e5		 mov	 esp, ebp
  0002a	5d		 pop	 ebp
  0002b	c3		 ret	 0
$LN2@grpSetThin:

; 96   : 		return Py_BuildException();
; 97   : 
; 98   : 	float x;
; 99   : 	if (!PyTuple_GetFloat(poArgs, 1, &x))

  0002c	8d 45 f4	 lea	 eax, DWORD PTR _x$[ebp]
  0002f	50		 push	 eax
  00030	6a 01		 push	 1
  00032	56		 push	 esi
  00033	e8 00 00 00 00	 call	 ?PyTuple_GetFloat@@YA_NPAU_object@@HPAM@Z ; PyTuple_GetFloat
  00038	83 c4 0c	 add	 esp, 12			; 0000000cH
  0003b	84 c0		 test	 al, al
  0003d	74 de		 je	 SHORT $LN7@grpSetThin

; 100  : 		return Py_BuildException();
; 101  : 
; 102  : 	float y;
; 103  : 	if (!PyTuple_GetFloat(poArgs, 2, &y))

  0003f	8d 45 f8	 lea	 eax, DWORD PTR _y$[ebp]
  00042	50		 push	 eax
  00043	6a 02		 push	 2
  00045	56		 push	 esi
  00046	e8 00 00 00 00	 call	 ?PyTuple_GetFloat@@YA_NPAU_object@@HPAM@Z ; PyTuple_GetFloat
  0004b	83 c4 0c	 add	 esp, 12			; 0000000cH
  0004e	84 c0		 test	 al, al
  00050	74 cb		 je	 SHORT $LN7@grpSetThin

; 104  : 		return Py_BuildException();
; 105  : 
; 106  : 	float z;
; 107  : 	if (!PyTuple_GetFloat(poArgs, 3, &z))

  00052	8d 45 fc	 lea	 eax, DWORD PTR _z$[ebp]
  00055	50		 push	 eax
  00056	6a 03		 push	 3
  00058	56		 push	 esi
  00059	e8 00 00 00 00	 call	 ?PyTuple_GetFloat@@YA_NPAU_object@@HPAM@Z ; PyTuple_GetFloat
  0005e	83 c4 0c	 add	 esp, 12			; 0000000cH
  00061	84 c0		 test	 al, al
  00063	74 b8		 je	 SHORT $LN7@grpSetThin

; 108  : 		return Py_BuildException();
; 109  : 
; 110  : 	pThingInstance->SetPosition(x, y, z);

  00065	f3 0f 10 45 fc	 movss	 xmm0, DWORD PTR _z$[ebp]
  0006a	83 ec 0c	 sub	 esp, 12			; 0000000cH
  0006d	8b 4d f0	 mov	 ecx, DWORD PTR _pThingInstance$[ebp]
  00070	f3 0f 11 44 24
	08		 movss	 DWORD PTR [esp+8], xmm0
  00076	f3 0f 10 45 f8	 movss	 xmm0, DWORD PTR _y$[ebp]
  0007b	f3 0f 11 44 24
	04		 movss	 DWORD PTR [esp+4], xmm0
  00081	f3 0f 10 45 f4	 movss	 xmm0, DWORD PTR _x$[ebp]
  00086	f3 0f 11 04 24	 movss	 DWORD PTR [esp], xmm0
  0008b	e8 00 00 00 00	 call	 ?SetPosition@CGraphicObjectInstance@@QAEXMMM@Z ; CGraphicObjectInstance::SetPosition

; 111  : 	return Py_BuildNone();

  00090	e8 00 00 00 00	 call	 ?Py_BuildNone@@YAPAU_object@@XZ ; Py_BuildNone
  00095	5e		 pop	 esi

; 112  : }

  00096	8b e5		 mov	 esp, ebp
  00098	5d		 pop	 ebp
  00099	c3		 ret	 0
?grpSetThingPosition@@YAPAU_object@@PAU1@0@Z ENDP	; grpSetThingPosition
_TEXT	ENDS
; Function compile flags: /Ogtp
; File C:\DS Project\DS Files\Source\ClientSource\Client\eterPythonLib\PythonGraphicThingModule.cpp
;	COMDAT ?grpThingUpdate@@YAPAU_object@@PAU1@0@Z
_TEXT	SEGMENT
_pThingInstance$ = -4					; size = 4
_poSelf$ = 8						; size = 4
_poArgs$ = 12						; size = 4
?grpThingUpdate@@YAPAU_object@@PAU1@0@Z PROC		; grpThingUpdate, COMDAT

; 82   : {

  00000	55		 push	 ebp
  00001	8b ec		 mov	 ebp, esp
  00003	51		 push	 ecx

; 83   : 	CGraphicThingInstance* pThingInstance;
; 84   : 	if (!PyTuple_GetThingInstance(poArgs, 0, &pThingInstance))

  00004	8d 45 fc	 lea	 eax, DWORD PTR _pThingInstance$[ebp]
  00007	50		 push	 eax
  00008	6a 00		 push	 0
  0000a	ff 75 0c	 push	 DWORD PTR _poArgs$[ebp]
  0000d	e8 00 00 00 00	 call	 ?PyTuple_GetThingInstance@@YA_NPAU_object@@HPAPAVCGraphicThingInstance@@@Z ; PyTuple_GetThingInstance
  00012	83 c4 0c	 add	 esp, 12			; 0000000cH
  00015	84 c0		 test	 al, al
  00017	75 0e		 jne	 SHORT $LN2@grpThingUp

; 85   : 		return Py_BuildException();

  00019	6a 00		 push	 0
  0001b	e8 00 00 00 00	 call	 ?Py_BuildException@@YAPAU_object@@PBDZZ ; Py_BuildException
  00020	83 c4 04	 add	 esp, 4

; 90   : }

  00023	8b e5		 mov	 esp, ebp
  00025	5d		 pop	 ebp
  00026	c3		 ret	 0
$LN2@grpThingUp:

; 86   : 
; 87   : 	pThingInstance->Update();

  00027	8b 4d fc	 mov	 ecx, DWORD PTR _pThingInstance$[ebp]
  0002a	e8 00 00 00 00	 call	 ?Update@CGraphicObjectInstance@@QAEXXZ ; CGraphicObjectInstance::Update

; 88   : 	pThingInstance->Deform();

  0002f	8b 4d fc	 mov	 ecx, DWORD PTR _pThingInstance$[ebp]
  00032	e8 00 00 00 00	 call	 ?Deform@CGraphicObjectInstance@@QAEXXZ ; CGraphicObjectInstance::Deform

; 89   : 	return Py_BuildNone();

  00037	e8 00 00 00 00	 call	 ?Py_BuildNone@@YAPAU_object@@XZ ; Py_BuildNone

; 90   : }

  0003c	8b e5		 mov	 esp, ebp
  0003e	5d		 pop	 ebp
  0003f	c3		 ret	 0
?grpThingUpdate@@YAPAU_object@@PAU1@0@Z ENDP		; grpThingUpdate
_TEXT	ENDS
; Function compile flags: /Ogtp
; File C:\DS Project\DS Files\Source\ClientSource\Client\eterPythonLib\PythonGraphicThingModule.cpp
;	COMDAT ?grpThingRender@@YAPAU_object@@PAU1@0@Z
_TEXT	SEGMENT
_pThingInstance$ = -4					; size = 4
_poSelf$ = 8						; size = 4
_poArgs$ = 12						; size = 4
?grpThingRender@@YAPAU_object@@PAU1@0@Z PROC		; grpThingRender, COMDAT

; 72   : {

  00000	55		 push	 ebp
  00001	8b ec		 mov	 ebp, esp
  00003	51		 push	 ecx

; 73   : 	CGraphicThingInstance* pThingInstance;
; 74   : 	if (!PyTuple_GetThingInstance(poArgs, 0, &pThingInstance))

  00004	8d 45 fc	 lea	 eax, DWORD PTR _pThingInstance$[ebp]
  00007	50		 push	 eax
  00008	6a 00		 push	 0
  0000a	ff 75 0c	 push	 DWORD PTR _poArgs$[ebp]
  0000d	e8 00 00 00 00	 call	 ?PyTuple_GetThingInstance@@YA_NPAU_object@@HPAPAVCGraphicThingInstance@@@Z ; PyTuple_GetThingInstance
  00012	83 c4 0c	 add	 esp, 12			; 0000000cH
  00015	84 c0		 test	 al, al
  00017	75 0e		 jne	 SHORT $LN2@grpThingRe

; 75   : 		return Py_BuildException();

  00019	6a 00		 push	 0
  0001b	e8 00 00 00 00	 call	 ?Py_BuildException@@YAPAU_object@@PBDZZ ; Py_BuildException
  00020	83 c4 04	 add	 esp, 4

; 79   : }

  00023	8b e5		 mov	 esp, ebp
  00025	5d		 pop	 ebp
  00026	c3		 ret	 0
$LN2@grpThingRe:

; 76   : 
; 77   : 	pThingInstance->Render();

  00027	8b 4d fc	 mov	 ecx, DWORD PTR _pThingInstance$[ebp]
  0002a	e8 00 00 00 00	 call	 ?Render@CGraphicObjectInstance@@QAE_NXZ ; CGraphicObjectInstance::Render

; 78   : 	return Py_BuildNone();

  0002f	e8 00 00 00 00	 call	 ?Py_BuildNone@@YAPAU_object@@XZ ; Py_BuildNone

; 79   : }

  00034	8b e5		 mov	 esp, ebp
  00036	5d		 pop	 ebp
  00037	c3		 ret	 0
?grpThingRender@@YAPAU_object@@PAU1@0@Z ENDP		; grpThingRender
_TEXT	ENDS
; Function compile flags: /Ogtp
; File C:\DS Project\DS Files\Source\ClientSource\Client\eterPythonLib\PythonGraphicThingModule.cpp
;	COMDAT ?grpThingSetFileName@@YAPAU_object@@PAU1@0@Z
_TEXT	SEGMENT
_pThingInstance$ = -8					; size = 4
_szFileName$ = -4					; size = 4
_poSelf$ = 8						; size = 4
_poArgs$ = 12						; size = 4
?grpThingSetFileName@@YAPAU_object@@PAU1@0@Z PROC	; grpThingSetFileName, COMDAT

; 49   : {

  00000	55		 push	 ebp
  00001	8b ec		 mov	 ebp, esp
  00003	83 ec 08	 sub	 esp, 8

; 50   : 	CGraphicThingInstance * pThingInstance;
; 51   : 	if (!PyTuple_GetThingInstance(poArgs, 0, &pThingInstance))

  00006	8d 45 f8	 lea	 eax, DWORD PTR _pThingInstance$[ebp]
  00009	56		 push	 esi
  0000a	8b 75 0c	 mov	 esi, DWORD PTR _poArgs$[ebp]
  0000d	50		 push	 eax
  0000e	6a 00		 push	 0
  00010	56		 push	 esi
  00011	e8 00 00 00 00	 call	 ?PyTuple_GetThingInstance@@YA_NPAU_object@@HPAPAVCGraphicThingInstance@@@Z ; PyTuple_GetThingInstance
  00016	83 c4 0c	 add	 esp, 12			; 0000000cH
  00019	84 c0		 test	 al, al
  0001b	75 0f		 jne	 SHORT $LN2@grpThingSe
$LN7@grpThingSe:

; 69   : }

  0001d	6a 00		 push	 0
  0001f	e8 00 00 00 00	 call	 ?Py_BuildException@@YAPAU_object@@PBDZZ ; Py_BuildException
  00024	83 c4 04	 add	 esp, 4
  00027	5e		 pop	 esi
  00028	8b e5		 mov	 esp, ebp
  0002a	5d		 pop	 ebp
  0002b	c3		 ret	 0
$LN2@grpThingSe:

; 52   : 		return Py_BuildException();
; 53   : 
; 54   : 	char* szFileName;
; 55   : 	if (!PyTuple_GetString(poArgs, 1, &szFileName))

  0002c	8d 45 fc	 lea	 eax, DWORD PTR _szFileName$[ebp]
  0002f	50		 push	 eax
  00030	6a 01		 push	 1
  00032	56		 push	 esi
  00033	e8 00 00 00 00	 call	 ?PyTuple_GetString@@YA_NPAU_object@@HPAPAD@Z ; PyTuple_GetString
  00038	83 c4 0c	 add	 esp, 12			; 0000000cH
  0003b	84 c0		 test	 al, al
  0003d	74 de		 je	 SHORT $LN7@grpThingSe

; 56   : 		return Py_BuildException();
; 57   : 
; 58   : 	CResource* pResource = CResourceManager::Instance().GetResourcePointer(szFileName);

  0003f	8b 0d 00 00 00
	00		 mov	 ecx, DWORD PTR ?ms_singleton@?$CSingleton@VCResourceManager@@@@0PAVCResourceManager@@A ; CSingleton<CResourceManager>::ms_singleton
  00045	57		 push	 edi
  00046	ff 75 fc	 push	 DWORD PTR _szFileName$[ebp]
  00049	e8 00 00 00 00	 call	 ?GetResourcePointer@CResourceManager@@QAEPAVCResource@@PBD@Z ; CResourceManager::GetResourcePointer
  0004e	8b f8		 mov	 edi, eax

; 59   : 
; 60   : 	if (!pResource->IsType(CGraphicThing::Type()))

  00050	e8 00 00 00 00	 call	 ?Type@CGraphicThing@@SAKXZ ; CGraphicThing::Type
  00055	50		 push	 eax
  00056	8b cf		 mov	 ecx, edi
  00058	e8 00 00 00 00	 call	 ?IsType@CResource@@QAE_NK@Z ; CResource::IsType
  0005d	84 c0		 test	 al, al
  0005f	75 10		 jne	 SHORT $LN4@grpThingSe

; 61   : 		return Py_BuildException();

  00061	6a 00		 push	 0
  00063	e8 00 00 00 00	 call	 ?Py_BuildException@@YAPAU_object@@PBDZZ ; Py_BuildException
  00068	83 c4 04	 add	 esp, 4
  0006b	5f		 pop	 edi
  0006c	5e		 pop	 esi

; 69   : }

  0006d	8b e5		 mov	 esp, ebp
  0006f	5d		 pop	 ebp
  00070	c3		 ret	 0
$LN4@grpThingSe:

; 62   : 
; 63   : 	pThingInstance->Clear();

  00071	8b 75 f8	 mov	 esi, DWORD PTR _pThingInstance$[ebp]
  00074	8b ce		 mov	 ecx, esi
  00076	e8 00 00 00 00	 call	 ?Clear@CGraphicObjectInstance@@QAEXXZ ; CGraphicObjectInstance::Clear

; 64   : 	pThingInstance->ReserveModelThing(1);

  0007b	6a 01		 push	 1
  0007d	8b ce		 mov	 ecx, esi
  0007f	e8 00 00 00 00	 call	 ?ReserveModelThing@CGraphicThingInstance@@QAEXH@Z ; CGraphicThingInstance::ReserveModelThing

; 65   : 	pThingInstance->ReserveModelInstance(1);

  00084	6a 01		 push	 1
  00086	8b ce		 mov	 ecx, esi
  00088	e8 00 00 00 00	 call	 ?ReserveModelInstance@CGraphicThingInstance@@QAEXH@Z ; CGraphicThingInstance::ReserveModelInstance

; 66   : 	pThingInstance->RegisterModelThing(0, static_cast<CGraphicThing*>(pResource));

  0008d	57		 push	 edi
  0008e	6a 00		 push	 0
  00090	8b ce		 mov	 ecx, esi
  00092	e8 00 00 00 00	 call	 ?RegisterModelThing@CGraphicThingInstance@@QAEXHPAVCGraphicThing@@@Z ; CGraphicThingInstance::RegisterModelThing

; 67   : 	pThingInstance->SetModelInstance(0, 0, 0);

  00097	6a ff		 push	 -1
  00099	6a 00		 push	 0
  0009b	6a 00		 push	 0
  0009d	6a 00		 push	 0
  0009f	8b ce		 mov	 ecx, esi
  000a1	e8 00 00 00 00	 call	 ?SetModelInstance@CGraphicThingInstance@@QAE_NHHHH@Z ; CGraphicThingInstance::SetModelInstance

; 68   : 	return Py_BuildNone();

  000a6	e8 00 00 00 00	 call	 ?Py_BuildNone@@YAPAU_object@@XZ ; Py_BuildNone
  000ab	5f		 pop	 edi
  000ac	5e		 pop	 esi

; 69   : }

  000ad	8b e5		 mov	 esp, ebp
  000af	5d		 pop	 ebp
  000b0	c3		 ret	 0
?grpThingSetFileName@@YAPAU_object@@PAU1@0@Z ENDP	; grpThingSetFileName
_TEXT	ENDS
; Function compile flags: /Ogtp
; File C:\DS Project\DS Files\Source\ClientSource\Client\eterPythonLib\PythonGraphicThingModule.cpp
;	COMDAT ?grpThingDelete@@YAPAU_object@@PAU1@0@Z
_TEXT	SEGMENT
_pThingInstance$ = -4					; size = 4
_poSelf$ = 8						; size = 4
_poArgs$ = 12						; size = 4
?grpThingDelete@@YAPAU_object@@PAU1@0@Z PROC		; grpThingDelete, COMDAT

; 39   : {

  00000	55		 push	 ebp
  00001	8b ec		 mov	 ebp, esp
  00003	51		 push	 ecx

; 40   : 	CGraphicThingInstance * pThingInstance;
; 41   : 	if (!PyTuple_GetThingInstance(poArgs, 0, &pThingInstance))

  00004	8d 45 fc	 lea	 eax, DWORD PTR _pThingInstance$[ebp]
  00007	50		 push	 eax
  00008	6a 00		 push	 0
  0000a	ff 75 0c	 push	 DWORD PTR _poArgs$[ebp]
  0000d	e8 00 00 00 00	 call	 ?PyTuple_GetThingInstance@@YA_NPAU_object@@HPAPAVCGraphicThingInstance@@@Z ; PyTuple_GetThingInstance
  00012	83 c4 0c	 add	 esp, 12			; 0000000cH
  00015	84 c0		 test	 al, al
  00017	75 0e		 jne	 SHORT $LN2@grpThingDe

; 42   : 		return Py_BuildException();

  00019	6a 00		 push	 0
  0001b	e8 00 00 00 00	 call	 ?Py_BuildException@@YAPAU_object@@PBDZZ ; Py_BuildException
  00020	83 c4 04	 add	 esp, 4

; 46   : }

  00023	8b e5		 mov	 esp, ebp
  00025	5d		 pop	 ebp
  00026	c3		 ret	 0
$LN2@grpThingDe:

; 43   : 
; 44   : 	CGraphicThingInstance::Delete(pThingInstance);

  00027	ff 75 fc	 push	 DWORD PTR _pThingInstance$[ebp]
  0002a	e8 00 00 00 00	 call	 ?Delete@CGraphicThingInstance@@SAXPAV1@@Z ; CGraphicThingInstance::Delete
  0002f	83 c4 04	 add	 esp, 4

; 45   : 	return Py_BuildNone();

  00032	e8 00 00 00 00	 call	 ?Py_BuildNone@@YAPAU_object@@XZ ; Py_BuildNone

; 46   : }

  00037	8b e5		 mov	 esp, ebp
  00039	5d		 pop	 ebp
  0003a	c3		 ret	 0
?grpThingDelete@@YAPAU_object@@PAU1@0@Z ENDP		; grpThingDelete
_TEXT	ENDS
; Function compile flags: /Ogtp
; File C:\DS Project\DS Files\Source\ClientSource\Client\eterPythonLib\PythonGraphicThingModule.cpp
;	COMDAT ?grpThingGenerate@@YAPAU_object@@PAU1@0@Z
_TEXT	SEGMENT
tv74 = -8						; size = 4
_szFileName$ = -4					; size = 4
_poSelf$ = 8						; size = 4
_poArgs$ = 12						; size = 4
?grpThingGenerate@@YAPAU_object@@PAU1@0@Z PROC		; grpThingGenerate, COMDAT

; 17   : {

  00000	55		 push	 ebp
  00001	8b ec		 mov	 ebp, esp
  00003	83 ec 08	 sub	 esp, 8

; 18   : 	char * szFileName;
; 19   : 	if (!PyTuple_GetString(poArgs, 0, &szFileName))

  00006	8d 45 fc	 lea	 eax, DWORD PTR _szFileName$[ebp]
  00009	50		 push	 eax
  0000a	6a 00		 push	 0
  0000c	ff 75 0c	 push	 DWORD PTR _poArgs$[ebp]
  0000f	e8 00 00 00 00	 call	 ?PyTuple_GetString@@YA_NPAU_object@@HPAPAD@Z ; PyTuple_GetString
  00014	83 c4 0c	 add	 esp, 12			; 0000000cH
  00017	84 c0		 test	 al, al
  00019	75 0e		 jne	 SHORT $LN2@grpThingGe

; 20   : 		return Py_BuildException();

  0001b	6a 00		 push	 0
  0001d	e8 00 00 00 00	 call	 ?Py_BuildException@@YAPAU_object@@PBDZZ ; Py_BuildException
  00022	83 c4 04	 add	 esp, 4

; 36   : }

  00025	8b e5		 mov	 esp, ebp
  00027	5d		 pop	 ebp
  00028	c3		 ret	 0
$LN2@grpThingGe:

; 21   : 
; 22   : 	if (strlen(szFileName) <= 0)

  00029	8b 55 fc	 mov	 edx, DWORD PTR _szFileName$[ebp]
  0002c	8b ca		 mov	 ecx, edx
  0002e	56		 push	 esi
  0002f	8d 71 01	 lea	 esi, DWORD PTR [ecx+1]
$LL6@grpThingGe:
  00032	8a 01		 mov	 al, BYTE PTR [ecx]
  00034	41		 inc	 ecx
  00035	84 c0		 test	 al, al
  00037	75 f9		 jne	 SHORT $LL6@grpThingGe
  00039	2b ce		 sub	 ecx, esi
  0003b	75 14		 jne	 SHORT $LN3@grpThingGe

; 23   : 		return Py_BuildValue("i", 0);

  0003d	51		 push	 ecx
  0003e	68 00 00 00 00	 push	 OFFSET ??_C@_01KBJDNOO@i@
  00043	ff 15 00 00 00
	00		 call	 DWORD PTR __imp__Py_BuildValue
  00049	83 c4 08	 add	 esp, 8
  0004c	5e		 pop	 esi

; 36   : }

  0004d	8b e5		 mov	 esp, ebp
  0004f	5d		 pop	 ebp
  00050	c3		 ret	 0
$LN3@grpThingGe:

; 24   : 
; 25   : 	CResource* pResource = CResourceManager::Instance().GetResourcePointer(szFileName);

  00051	8b 0d 00 00 00
	00		 mov	 ecx, DWORD PTR ?ms_singleton@?$CSingleton@VCResourceManager@@@@0PAVCResourceManager@@A ; CSingleton<CResourceManager>::ms_singleton
  00057	57		 push	 edi
  00058	52		 push	 edx
  00059	e8 00 00 00 00	 call	 ?GetResourcePointer@CResourceManager@@QAEPAVCResource@@PBD@Z ; CResourceManager::GetResourcePointer
  0005e	8b f8		 mov	 edi, eax

; 26   : 
; 27   : 	if (!pResource->IsType(CGraphicThing::Type()))

  00060	e8 00 00 00 00	 call	 ?Type@CGraphicThing@@SAKXZ ; CGraphicThing::Type
  00065	50		 push	 eax
  00066	8b cf		 mov	 ecx, edi
  00068	e8 00 00 00 00	 call	 ?IsType@CResource@@QAE_NK@Z ; CResource::IsType
  0006d	84 c0		 test	 al, al
  0006f	75 10		 jne	 SHORT $LN4@grpThingGe

; 28   : 		return Py_BuildException();

  00071	6a 00		 push	 0
  00073	e8 00 00 00 00	 call	 ?Py_BuildException@@YAPAU_object@@PBDZZ ; Py_BuildException
  00078	83 c4 04	 add	 esp, 4
  0007b	5f		 pop	 edi
  0007c	5e		 pop	 esi

; 36   : }

  0007d	8b e5		 mov	 esp, ebp
  0007f	5d		 pop	 ebp
  00080	c3		 ret	 0
$LN4@grpThingGe:

; 29   : 
; 30   : 	CGraphicThingInstance * pThingInstance = CGraphicThingInstance::New();

  00081	e8 00 00 00 00	 call	 ?New@CGraphicThingInstance@@SAPAV1@XZ ; CGraphicThingInstance::New
  00086	8b f0		 mov	 esi, eax

; 31   : 	pThingInstance->ReserveModelThing(1);

  00088	6a 01		 push	 1
  0008a	8b ce		 mov	 ecx, esi
  0008c	e8 00 00 00 00	 call	 ?ReserveModelThing@CGraphicThingInstance@@QAEXH@Z ; CGraphicThingInstance::ReserveModelThing

; 32   : 	pThingInstance->ReserveModelInstance(1);

  00091	6a 01		 push	 1
  00093	8b ce		 mov	 ecx, esi
  00095	e8 00 00 00 00	 call	 ?ReserveModelInstance@CGraphicThingInstance@@QAEXH@Z ; CGraphicThingInstance::ReserveModelInstance

; 33   : 	pThingInstance->RegisterModelThing(0, static_cast<CGraphicThing*>(pResource));

  0009a	57		 push	 edi
  0009b	6a 00		 push	 0
  0009d	8b ce		 mov	 ecx, esi
  0009f	e8 00 00 00 00	 call	 ?RegisterModelThing@CGraphicThingInstance@@QAEXHPAVCGraphicThing@@@Z ; CGraphicThingInstance::RegisterModelThing

; 34   : 	pThingInstance->SetModelInstance(0, 0, 0);

  000a4	6a ff		 push	 -1
  000a6	6a 00		 push	 0
  000a8	6a 00		 push	 0
  000aa	6a 00		 push	 0
  000ac	8b ce		 mov	 ecx, esi
  000ae	e8 00 00 00 00	 call	 ?SetModelInstance@CGraphicThingInstance@@QAE_NHHHH@Z ; CGraphicThingInstance::SetModelInstance

; 35   : 	return Py_BuildValue("i", pThingInstance);

  000b3	56		 push	 esi
  000b4	68 00 00 00 00	 push	 OFFSET ??_C@_01KBJDNOO@i@
  000b9	ff 15 00 00 00
	00		 call	 DWORD PTR __imp__Py_BuildValue
  000bf	83 c4 08	 add	 esp, 8
  000c2	5f		 pop	 edi
  000c3	5e		 pop	 esi

; 36   : }

  000c4	8b e5		 mov	 esp, ebp
  000c6	5d		 pop	 ebp
  000c7	c3		 ret	 0
?grpThingGenerate@@YAPAU_object@@PAU1@0@Z ENDP		; grpThingGenerate
_TEXT	ENDS
; Function compile flags: /Ogtp
; File C:\DS Project\DS Files\Source\ClientSource\Client\eterPythonLib\PythonGraphicThingModule.cpp
;	COMDAT ?PyTuple_GetThingInstance@@YA_NPAU_object@@HPAPAVCGraphicThingInstance@@@Z
_TEXT	SEGMENT
_handle$ = -4						; size = 4
_poArgs$ = 8						; size = 4
_pos$ = 12						; size = 4
_ppRetThingInstance$ = 16				; size = 4
?PyTuple_GetThingInstance@@YA_NPAU_object@@HPAPAVCGraphicThingInstance@@@Z PROC ; PyTuple_GetThingInstance, COMDAT

; 4    : {

  00000	55		 push	 ebp
  00001	8b ec		 mov	 ebp, esp
  00003	51		 push	 ecx

; 5    : 	int handle;
; 6    : 	if (!PyTuple_GetInteger(poArgs, pos, &handle))

  00004	8d 45 fc	 lea	 eax, DWORD PTR _handle$[ebp]
  00007	50		 push	 eax
  00008	ff 75 0c	 push	 DWORD PTR _pos$[ebp]
  0000b	ff 75 08	 push	 DWORD PTR _poArgs$[ebp]
  0000e	e8 00 00 00 00	 call	 ?PyTuple_GetInteger@@YA_NPAU_object@@HPAH@Z ; PyTuple_GetInteger
  00013	83 c4 0c	 add	 esp, 12			; 0000000cH
  00016	84 c0		 test	 al, al
  00018	74 12		 je	 SHORT $LN5@PyTuple_Ge

; 7    : 		return false;
; 8    : 
; 9    : 	if (!handle)

  0001a	8b 4d fc	 mov	 ecx, DWORD PTR _handle$[ebp]
  0001d	85 c9		 test	 ecx, ecx
  0001f	74 0b		 je	 SHORT $LN5@PyTuple_Ge

; 11   : 
; 12   : 	*ppRetThingInstance = (CGraphicThingInstance*)handle;

  00021	8b 45 10	 mov	 eax, DWORD PTR _ppRetThingInstance$[ebp]
  00024	89 08		 mov	 DWORD PTR [eax], ecx

; 13   : 	return true;

  00026	b0 01		 mov	 al, 1

; 14   : }

  00028	8b e5		 mov	 esp, ebp
  0002a	5d		 pop	 ebp
  0002b	c3		 ret	 0
$LN5@PyTuple_Ge:

; 10   : 		return false;

  0002c	32 c0		 xor	 al, al

; 14   : }

  0002e	8b e5		 mov	 esp, ebp
  00030	5d		 pop	 ebp
  00031	c3		 ret	 0
?PyTuple_GetThingInstance@@YA_NPAU_object@@HPAPAVCGraphicThingInstance@@@Z ENDP ; PyTuple_GetThingInstance
_TEXT	ENDS
; Function compile flags: /Ogtp
; File C:\DS Project\DS Files\Source\ClientSource\Client\eterPythonLib\PythonGraphicThingModule.cpp
;	COMDAT ?initgrpThing@@YAXXZ
_TEXT	SEGMENT
?initgrpThing@@YAXXZ PROC				; initgrpThing, COMDAT

; 150  : 	static PyMethodDef s_methods[] =
; 151  : 	{
; 152  : 		{ "Update",					grpThingUpdate,					METH_VARARGS },
; 153  : 		{ "Render",					grpThingRender,					METH_VARARGS },
; 154  : 		{ "SetPosition",			grpSetThingPosition,			METH_VARARGS },
; 155  : 		{ "Generate",				grpThingGenerate,				METH_VARARGS },
; 156  : 		{ "Delete",					grpThingDelete,					METH_VARARGS },
; 157  : 		{ "SetFileName",			grpThingSetFileName,			METH_VARARGS },
; 158  : 		{ "SetRotation",			grpSetThingRotation,			METH_VARARGS },
; 159  : 		{ "SetScale",				grpSetThingScale,				METH_VARARGS },
; 160  : 		{ NULL,						NULL,							NULL		 },
; 161  : 	};
; 162  : 
; 163  : 	Py_InitModule("grpThing", s_methods);

  00000	68 f5 03 00 00	 push	 1013			; 000003f5H
  00005	6a 00		 push	 0
  00007	6a 00		 push	 0
  00009	68 00 00 00 00	 push	 OFFSET ?s_methods@?1??initgrpThing@@YAXXZ@4PAUPyMethodDef@@A
  0000e	68 00 00 00 00	 push	 OFFSET ??_C@_08DDGPJEFE@grpThing@
  00013	ff 15 00 00 00
	00		 call	 DWORD PTR __imp__Py_InitModule4
  00019	83 c4 14	 add	 esp, 20			; 00000014H

; 164  : }

  0001c	c3		 ret	 0
?initgrpThing@@YAXXZ ENDP				; initgrpThing
_TEXT	ENDS
END
