; Listing generated by Microsoft (R) Optimizing Compiler Version 19.27.29112.0 

	TITLE	C:\DS Project\DS Files\Source\ClientSource\Client\eterPythonLib\PythonSlotWindow.cpp
	.686P
	.XMM
	include listing.inc
	.model	flat

INCLUDELIB LIBCMT
INCLUDELIB OLDNAMES

PUBLIC	___local_stdio_printf_options
PUBLIC	__snprintf
PUBLIC	??0exception@std@@QAE@ABV01@@Z			; std::exception::exception
PUBLIC	??1exception@std@@UAE@XZ			; std::exception::~exception
PUBLIC	?what@exception@std@@UBEPBDXZ			; std::exception::what
PUBLIC	??_Gexception@std@@UAEPAXI@Z			; std::exception::`scalar deleting destructor'
PUBLIC	??0bad_alloc@std@@QAE@ABV01@@Z			; std::bad_alloc::bad_alloc
PUBLIC	??_Gbad_alloc@std@@UAEPAXI@Z			; std::bad_alloc::`scalar deleting destructor'
PUBLIC	??0bad_array_new_length@std@@QAE@XZ		; std::bad_array_new_length::bad_array_new_length
PUBLIC	??1bad_array_new_length@std@@UAE@XZ		; std::bad_array_new_length::~bad_array_new_length
PUBLIC	??0bad_array_new_length@std@@QAE@ABV01@@Z	; std::bad_array_new_length::bad_array_new_length
PUBLIC	??_Gbad_array_new_length@std@@UAEPAXI@Z		; std::bad_array_new_length::`scalar deleting destructor'
PUBLIC	?_Throw_bad_array_new_length@std@@YAXXZ		; std::_Throw_bad_array_new_length
PUBLIC	??$_Deallocate@$07$0A@@std@@YAXPAXI@Z		; std::_Deallocate<8,0>
PUBLIC	??$_Allocate@$07U_Default_allocate_traits@std@@$0A@@std@@YAPAXI@Z ; std::_Allocate<8,std::_Default_allocate_traits,0>
PUBLIC	??$_Allocate_manually_vector_aligned@U_Default_allocate_traits@std@@@std@@YAPAXI@Z ; std::_Allocate_manually_vector_aligned<std::_Default_allocate_traits>
PUBLIC	?OnChangePosition@CWindow@UI@@UAEXXZ		; UI::CWindow::OnChangePosition
PUBLIC	?SetColor@CWindow@UI@@UAEXK@Z			; UI::CWindow::SetColor
PUBLIC	?IsWindow@CWindow@UI@@UAEHXZ			; UI::CWindow::IsWindow
PUBLIC	?Type@CSlotWindow@UI@@SAKXZ			; UI::CSlotWindow::Type
PUBLIC	??1?$list@USSlot@CSlotWindow@UI@@V?$allocator@USSlot@CSlotWindow@UI@@@std@@@std@@QAE@XZ ; std::list<UI::CSlotWindow::SSlot,std::allocator<UI::CSlotWindow::SSlot> >::~list<UI::CSlotWindow::SSlot,std::allocator<UI::CSlotWindow::SSlot> >
PUBLIC	??0CSlotWindow@UI@@QAE@PAU_object@@@Z		; UI::CSlotWindow::CSlotWindow
PUBLIC	??1CSlotWindow@UI@@UAE@XZ			; UI::CSlotWindow::~CSlotWindow
PUBLIC	?Destroy@CSlotWindow@UI@@QAEXXZ			; UI::CSlotWindow::Destroy
PUBLIC	?SetSlotType@CSlotWindow@UI@@QAEXK@Z		; UI::CSlotWindow::SetSlotType
PUBLIC	?SetSlotStyle@CSlotWindow@UI@@QAEXK@Z		; UI::CSlotWindow::SetSlotStyle
PUBLIC	?AppendSlot@CSlotWindow@UI@@QAEXKHHHH@Z		; UI::CSlotWindow::AppendSlot
PUBLIC	?SetCoverButton@CSlotWindow@UI@@QAEXKPBD000HH@Z	; UI::CSlotWindow::SetCoverButton
PUBLIC	?SetSlotBaseImage@CSlotWindow@UI@@QAEXPBDMMMM@Z	; UI::CSlotWindow::SetSlotBaseImage
PUBLIC	?AppendSlotButton@CSlotWindow@UI@@QAEXPBD00@Z	; UI::CSlotWindow::AppendSlotButton
PUBLIC	?AppendRequirementSignImage@CSlotWindow@UI@@QAEXPBD@Z ; UI::CSlotWindow::AppendRequirementSignImage
PUBLIC	?EnableCoverButton@CSlotWindow@UI@@QAEXK@Z	; UI::CSlotWindow::EnableCoverButton
PUBLIC	?DisableCoverButton@CSlotWindow@UI@@QAEXK@Z	; UI::CSlotWindow::DisableCoverButton
PUBLIC	?SetAlwaysRenderCoverButton@CSlotWindow@UI@@QAEXK_N@Z ; UI::CSlotWindow::SetAlwaysRenderCoverButton
PUBLIC	?ShowSlotBaseImage@CSlotWindow@UI@@QAEXK@Z	; UI::CSlotWindow::ShowSlotBaseImage
PUBLIC	?HideSlotBaseImage@CSlotWindow@UI@@QAEXK@Z	; UI::CSlotWindow::HideSlotBaseImage
PUBLIC	?IsDisableCoverButton@CSlotWindow@UI@@QAEHK@Z	; UI::CSlotWindow::IsDisableCoverButton
PUBLIC	?HasSlot@CSlotWindow@UI@@QAEHK@Z		; UI::CSlotWindow::HasSlot
PUBLIC	?ClearAllSlot@CSlotWindow@UI@@QAEXXZ		; UI::CSlotWindow::ClearAllSlot
PUBLIC	?ClearSlot@CSlotWindow@UI@@QAEXK@Z		; UI::CSlotWindow::ClearSlot
PUBLIC	?SetSlot@CSlotWindow@UI@@QAEXKKEEPAVCGraphicImage@@AAUD3DXCOLOR@@@Z ; UI::CSlotWindow::SetSlot
PUBLIC	?SetSlotCount@CSlotWindow@UI@@QAEXKK@Z		; UI::CSlotWindow::SetSlotCount
PUBLIC	?SetSlotCountNew@CSlotWindow@UI@@QAEXKKK@Z	; UI::CSlotWindow::SetSlotCountNew
PUBLIC	?SetSlotCoolTime@CSlotWindow@UI@@QAEXKMM@Z	; UI::CSlotWindow::SetSlotCoolTime
PUBLIC	?ActivateSlot@CSlotWindow@UI@@QAEXK@Z		; UI::CSlotWindow::ActivateSlot
PUBLIC	?DeactivateSlot@CSlotWindow@UI@@QAEXK@Z		; UI::CSlotWindow::DeactivateSlot
PUBLIC	?RefreshSlot@CSlotWindow@UI@@QAEXXZ		; UI::CSlotWindow::RefreshSlot
PUBLIC	?GetSlotCoolTime@CSlotWindow@UI@@QAEMKPAM@Z	; UI::CSlotWindow::GetSlotCoolTime
PUBLIC	?IsActivatedSlot@CSlotWindow@UI@@QAE_NK@Z	; UI::CSlotWindow::IsActivatedSlot
PUBLIC	?GetSlotCount@CSlotWindow@UI@@QAEKXZ		; UI::CSlotWindow::GetSlotCount
PUBLIC	?LockSlot@CSlotWindow@UI@@QAEXK@Z		; UI::CSlotWindow::LockSlot
PUBLIC	?UnlockSlot@CSlotWindow@UI@@QAEXK@Z		; UI::CSlotWindow::UnlockSlot
PUBLIC	?SetCantUseSlot@CSlotWindow@UI@@QAEXK@Z		; UI::CSlotWindow::SetCantUseSlot
PUBLIC	?SetUseSlot@CSlotWindow@UI@@QAEXK@Z		; UI::CSlotWindow::SetUseSlot
PUBLIC	?EnableSlot@CSlotWindow@UI@@QAEXK@Z		; UI::CSlotWindow::EnableSlot
PUBLIC	?DisableSlot@CSlotWindow@UI@@QAEXK@Z		; UI::CSlotWindow::DisableSlot
PUBLIC	?ClearSelected@CSlotWindow@UI@@QAEXXZ		; UI::CSlotWindow::ClearSelected
PUBLIC	?SelectSlot@CSlotWindow@UI@@QAEXK@Z		; UI::CSlotWindow::SelectSlot
PUBLIC	?isSelectedSlot@CSlotWindow@UI@@QAEHK@Z		; UI::CSlotWindow::isSelectedSlot
PUBLIC	?GetSelectedSlotCount@CSlotWindow@UI@@QAEKXZ	; UI::CSlotWindow::GetSelectedSlotCount
PUBLIC	?GetSelectedSlotNumber@CSlotWindow@UI@@QAEKK@Z	; UI::CSlotWindow::GetSelectedSlotNumber
PUBLIC	?ShowSlotButton@CSlotWindow@UI@@QAEXK@Z		; UI::CSlotWindow::ShowSlotButton
PUBLIC	?HideAllSlotButton@CSlotWindow@UI@@QAEXXZ	; UI::CSlotWindow::HideAllSlotButton
PUBLIC	?OnPressedSlotButton@CSlotWindow@UI@@QAEXKKH@Z	; UI::CSlotWindow::OnPressedSlotButton
PUBLIC	?ShowRequirementSign@CSlotWindow@UI@@QAEXK@Z	; UI::CSlotWindow::ShowRequirementSign
PUBLIC	?HideRequirementSign@CSlotWindow@UI@@QAEXK@Z	; UI::CSlotWindow::HideRequirementSign
PUBLIC	?OnOverInItem@CSlotWindow@UI@@QAEHK@Z		; UI::CSlotWindow::OnOverInItem
PUBLIC	?OnOverOutItem@CSlotWindow@UI@@QAEXXZ		; UI::CSlotWindow::OnOverOutItem
PUBLIC	?SetUseMode@CSlotWindow@UI@@QAEXH@Z		; UI::CSlotWindow::SetUseMode
PUBLIC	?SetUsableItem@CSlotWindow@UI@@QAEXH@Z		; UI::CSlotWindow::SetUsableItem
PUBLIC	?ReserveDestroyCoolTimeFinishEffect@CSlotWindow@UI@@QAEXK@Z ; UI::CSlotWindow::ReserveDestroyCoolTimeFinishEffect
PUBLIC	?ActivateEffect@CSlotWindow@UI@@QAEXKMMMM@Z	; UI::CSlotWindow::ActivateEffect
PUBLIC	?DeactivateEffect@CSlotWindow@UI@@QAEXK@Z	; UI::CSlotWindow::DeactivateEffect
PUBLIC	?__Initialize@CSlotWindow@UI@@IAEXXZ		; UI::CSlotWindow::__Initialize
PUBLIC	?__CreateToggleSlotImage@CSlotWindow@UI@@IAEXXZ	; UI::CSlotWindow::__CreateToggleSlotImage
PUBLIC	?__CreateSlotEnableEffect@CSlotWindow@UI@@IAEXXZ ; UI::CSlotWindow::__CreateSlotEnableEffect
PUBLIC	?__CreateFinishCoolTimeEffect@CSlotWindow@UI@@IAEXPAUSSlot@12@@Z ; UI::CSlotWindow::__CreateFinishCoolTimeEffect
PUBLIC	?__CreateBaseImage@CSlotWindow@UI@@IAEXPBDMMMM@Z ; UI::CSlotWindow::__CreateBaseImage
PUBLIC	?__DestroyToggleSlotImage@CSlotWindow@UI@@IAEXXZ ; UI::CSlotWindow::__DestroyToggleSlotImage
PUBLIC	?__DestroySlotEnableEffect@CSlotWindow@UI@@IAEXXZ ; UI::CSlotWindow::__DestroySlotEnableEffect
PUBLIC	?__DestroyFinishCoolTimeEffect@CSlotWindow@UI@@IAEXPAUSSlot@12@@Z ; UI::CSlotWindow::__DestroyFinishCoolTimeEffect
PUBLIC	?__DestroyBaseImage@CSlotWindow@UI@@IAEXXZ	; UI::CSlotWindow::__DestroyBaseImage
PUBLIC	?OnUpdate@CSlotWindow@UI@@MAEXXZ		; UI::CSlotWindow::OnUpdate
PUBLIC	?OnRender@CSlotWindow@UI@@MAEXXZ		; UI::CSlotWindow::OnRender
PUBLIC	?OnMouseLeftButtonDown@CSlotWindow@UI@@MAEHXZ	; UI::CSlotWindow::OnMouseLeftButtonDown
PUBLIC	?OnMouseLeftButtonUp@CSlotWindow@UI@@MAEHXZ	; UI::CSlotWindow::OnMouseLeftButtonUp
PUBLIC	?OnMouseRightButtonDown@CSlotWindow@UI@@MAEHXZ	; UI::CSlotWindow::OnMouseRightButtonDown
PUBLIC	?OnMouseLeftButtonDoubleClick@CSlotWindow@UI@@MAEHXZ ; UI::CSlotWindow::OnMouseLeftButtonDoubleClick
PUBLIC	?OnMouseOverOut@CSlotWindow@UI@@MAEXXZ		; UI::CSlotWindow::OnMouseOverOut
PUBLIC	?OnMouseOver@CSlotWindow@UI@@MAEXXZ		; UI::CSlotWindow::OnMouseOver
PUBLIC	?RenderSlotBaseImage@CSlotWindow@UI@@IAEXXZ	; UI::CSlotWindow::RenderSlotBaseImage
PUBLIC	?RenderLockedSlot@CSlotWindow@UI@@IAEXXZ	; UI::CSlotWindow::RenderLockedSlot
PUBLIC	?OnRenderPickingSlot@CSlotWindow@UI@@MAEXXZ	; UI::CSlotWindow::OnRenderPickingSlot
PUBLIC	?OnRenderSelectedSlot@CSlotWindow@UI@@MAEXXZ	; UI::CSlotWindow::OnRenderSelectedSlot
PUBLIC	?OnSelectEmptySlot@CSlotWindow@UI@@IAEXH@Z	; UI::CSlotWindow::OnSelectEmptySlot
PUBLIC	?OnSelectItemSlot@CSlotWindow@UI@@IAEXH@Z	; UI::CSlotWindow::OnSelectItemSlot
PUBLIC	?OnUnselectEmptySlot@CSlotWindow@UI@@IAEXH@Z	; UI::CSlotWindow::OnUnselectEmptySlot
PUBLIC	?OnUnselectItemSlot@CSlotWindow@UI@@IAEXH@Z	; UI::CSlotWindow::OnUnselectItemSlot
PUBLIC	?OnUseSlot@CSlotWindow@UI@@IAEXXZ		; UI::CSlotWindow::OnUseSlot
PUBLIC	?GetSlotPointer@CSlotWindow@UI@@IAEHKPAPAUSSlot@12@@Z ; UI::CSlotWindow::GetSlotPointer
PUBLIC	?GetSelectedSlotPointer@CSlotWindow@UI@@IAEHPAPAUSSlot@12@@Z ; UI::CSlotWindow::GetSelectedSlotPointer
PUBLIC	?GetPickedSlotPointer@CSlotWindow@UI@@MAEHPAPAUSSlot@12@@Z ; UI::CSlotWindow::GetPickedSlotPointer
PUBLIC	?ClearSlot@CSlotWindow@UI@@IAEXPAUSSlot@12@@Z	; UI::CSlotWindow::ClearSlot
PUBLIC	?OnRefreshSlot@CSlotWindow@UI@@MAEXXZ		; UI::CSlotWindow::OnRefreshSlot
PUBLIC	?OnIsType@CSlotWindow@UI@@MAEHK@Z		; UI::CSlotWindow::OnIsType
PUBLIC	??1?$list@KV?$allocator@K@std@@@std@@QAE@XZ	; std::list<unsigned long,std::allocator<unsigned long> >::~list<unsigned long,std::allocator<unsigned long> >
PUBLIC	?_Xlen@?$deque@KV?$allocator@K@std@@@std@@ABEXXZ ; std::deque<unsigned long,std::allocator<unsigned long> >::_Xlen
PUBLIC	?_Tidy@?$deque@KV?$allocator@K@std@@@std@@AAEXXZ ; std::deque<unsigned long,std::allocator<unsigned long> >::_Tidy
PUBLIC	??_GCSlotWindow@UI@@UAEPAXI@Z			; UI::CSlotWindow::`scalar deleting destructor'
PUBLIC	??1CSlotButton@CSlotWindow@UI@@UAE@XZ		; UI::CSlotWindow::CSlotButton::~CSlotButton
PUBLIC	?OnMouseLeftButtonDown@CSlotButton@CSlotWindow@UI@@UAEHXZ ; UI::CSlotWindow::CSlotButton::OnMouseLeftButtonDown
PUBLIC	?OnMouseLeftButtonUp@CSlotButton@CSlotWindow@UI@@UAEHXZ ; UI::CSlotWindow::CSlotButton::OnMouseLeftButtonUp
PUBLIC	?OnMouseOverIn@CSlotButton@CSlotWindow@UI@@UAEXXZ ; UI::CSlotWindow::CSlotButton::OnMouseOverIn
PUBLIC	?OnMouseOverOut@CSlotButton@CSlotWindow@UI@@UAEXXZ ; UI::CSlotWindow::CSlotButton::OnMouseOverOut
PUBLIC	??_GCSlotButton@CSlotWindow@UI@@UAEPAXI@Z	; UI::CSlotWindow::CSlotButton::`scalar deleting destructor'
PUBLIC	??1CCoverButton@CSlotWindow@UI@@UAE@XZ		; UI::CSlotWindow::CCoverButton::~CCoverButton
PUBLIC	?OnRender@CCoverButton@CSlotWindow@UI@@UAEXXZ	; UI::CSlotWindow::CCoverButton::OnRender
PUBLIC	?OnMouseLeftButtonDown@CCoverButton@CSlotWindow@UI@@UAEHXZ ; UI::CSlotWindow::CCoverButton::OnMouseLeftButtonDown
PUBLIC	?OnMouseLeftButtonUp@CCoverButton@CSlotWindow@UI@@UAEHXZ ; UI::CSlotWindow::CCoverButton::OnMouseLeftButtonUp
PUBLIC	?OnMouseRightButtonDown@CCoverButton@CSlotWindow@UI@@UAEHXZ ; UI::CSlotWindow::CCoverButton::OnMouseRightButtonDown
PUBLIC	?OnMouseRightButtonUp@CCoverButton@CSlotWindow@UI@@UAEHXZ ; UI::CSlotWindow::CCoverButton::OnMouseRightButtonUp
PUBLIC	??_GCCoverButton@CSlotWindow@UI@@UAEPAXI@Z	; UI::CSlotWindow::CCoverButton::`scalar deleting destructor'
PUBLIC	??1CCoolTimeFinishEffect@CSlotWindow@UI@@UAE@XZ	; UI::CSlotWindow::CCoolTimeFinishEffect::~CCoolTimeFinishEffect
PUBLIC	?OnEndFrame@CCoolTimeFinishEffect@CSlotWindow@UI@@UAEXXZ ; UI::CSlotWindow::CCoolTimeFinishEffect::OnEndFrame
PUBLIC	??_GCCoolTimeFinishEffect@CSlotWindow@UI@@UAEPAXI@Z ; UI::CSlotWindow::CCoolTimeFinishEffect::`scalar deleting destructor'
PUBLIC	??_9CWindow@UI@@$B3AE				; UI::CWindow::`vcall'{4}'
PUBLIC	??$_Emplace_back_internal@ABK@?$deque@KV?$allocator@K@std@@@std@@AAEXABK@Z ; std::deque<unsigned long,std::allocator<unsigned long> >::_Emplace_back_internal<unsigned long const &>
PUBLIC	??$_Delete_plain_internal@V?$allocator@U_Container_proxy@std@@@std@@@std@@YAXAAV?$allocator@U_Container_proxy@std@@@0@QAU_Container_proxy@0@@Z ; std::_Delete_plain_internal<std::allocator<std::_Container_proxy> >
PUBLIC	??$_Destroy_in_place@PAK@std@@YAXAAPAK@Z	; std::_Destroy_in_place<unsigned long *>
PUBLIC	??$_Construct_in_place@PAU?$_List_node@KPAX@std@@AAPAU12@@std@@YAXAAPAU?$_List_node@KPAX@0@0@Z ; std::_Construct_in_place<std::_List_node<unsigned long,void *> *,std::_List_node<unsigned long,void *> * &>
PUBLIC	??$_Construct_in_place@PAU?$_List_node@USSlot@CSlotWindow@UI@@PAX@std@@AAPAU12@@std@@YAXAAPAU?$_List_node@USSlot@CSlotWindow@UI@@PAX@0@0@Z ; std::_Construct_in_place<std::_List_node<UI::CSlotWindow::SSlot,void *> *,std::_List_node<UI::CSlotWindow::SSlot,void *> * &>
PUBLIC	??$_Deallocate_plain@V?$allocator@U_Container_proxy@std@@@std@@@std@@YAXAAV?$allocator@U_Container_proxy@std@@@0@QAU_Container_proxy@0@@Z ; std::_Deallocate_plain<std::allocator<std::_Container_proxy> >
PUBLIC	??$_Construct_in_place@U_Container_proxy@std@@PAU_Container_base12@2@@std@@YAXAAU_Container_proxy@0@$$QAPAU_Container_base12@0@@Z ; std::_Construct_in_place<std::_Container_proxy,std::_Container_base12 *>
PUBLIC	??1?$_Alloc_construct_ptr@V?$allocator@U?$_List_node@KPAX@std@@@std@@@std@@QAE@XZ ; std::_Alloc_construct_ptr<std::allocator<std::_List_node<unsigned long,void *> > >::~_Alloc_construct_ptr<std::allocator<std::_List_node<unsigned long,void *> > >
PUBLIC	??1?$_Alloc_construct_ptr@V?$allocator@U?$_List_node@USSlot@CSlotWindow@UI@@PAX@std@@@std@@@std@@QAE@XZ ; std::_Alloc_construct_ptr<std::allocator<std::_List_node<UI::CSlotWindow::SSlot,void *> > >::~_Alloc_construct_ptr<std::allocator<std::_List_node<UI::CSlotWindow::SSlot,void *> > >
PUBLIC	??$_Destroy_in_place@PAU?$_List_node@KPAX@std@@@std@@YAXAAPAU?$_List_node@KPAX@0@@Z ; std::_Destroy_in_place<std::_List_node<unsigned long,void *> *>
PUBLIC	??$_Destroy_in_place@PAU?$_List_node@USSlot@CSlotWindow@UI@@PAX@std@@@std@@YAXAAPAU?$_List_node@USSlot@CSlotWindow@UI@@PAX@0@@Z ; std::_Destroy_in_place<std::_List_node<UI::CSlotWindow::SSlot,void *> *>
PUBLIC	??$_Construct_in_place@PAU?$_List_node@USSlot@CSlotWindow@UI@@PAX@std@@ABQAU12@@std@@YAXAAPAU?$_List_node@USSlot@CSlotWindow@UI@@PAX@0@ABQAU10@@Z ; std::_Construct_in_place<std::_List_node<UI::CSlotWindow::SSlot,void *> *,std::_List_node<UI::CSlotWindow::SSlot,void *> * const &>
PUBLIC	??$_Construct_in_place@PAU?$_List_node@KPAX@std@@ABQAU12@@std@@YAXAAPAU?$_List_node@KPAX@0@ABQAU10@@Z ; std::_Construct_in_place<std::_List_node<unsigned long,void *> *,std::_List_node<unsigned long,void *> * const &>
PUBLIC	??$uninitialized_copy@PAPAKPAPAK@std@@YAPAPAKQAPAK0PAPAK@Z ; std::uninitialized_copy<unsigned long * *,unsigned long * *>
PUBLIC	??$_Uninitialized_value_construct_n_unchecked1@PAPAKI@std@@YAPAPAKPAPAKI@Z ; std::_Uninitialized_value_construct_n_unchecked1<unsigned long * *,unsigned int>
PUBLIC	??$_Destroy_range@PAPAK@std@@YAXPAPAKQAPAK@Z	; std::_Destroy_range<unsigned long * *>
PUBLIC	??$_Copy_memmove@PAPAKPAPAK@std@@YAPAPAKPAPAK00@Z ; std::_Copy_memmove<unsigned long * *,unsigned long * *>
PUBLIC	??$_Zero_range@PAPAK@std@@YAPAPAKQAPAK0@Z	; std::_Zero_range<unsigned long * *>
PUBLIC	?_OptionsStorage@?1??__local_stdio_printf_options@@9@4_KA ; `__local_stdio_printf_options'::`2'::_OptionsStorage
PUBLIC	??_7exception@std@@6B@				; std::exception::`vftable'
PUBLIC	??_C@_0BC@EOODALEL@Unknown?5exception@		; `string'
PUBLIC	??_7bad_alloc@std@@6B@				; std::bad_alloc::`vftable'
PUBLIC	??_7bad_array_new_length@std@@6B@		; std::bad_array_new_length::`vftable'
PUBLIC	??_C@_0BF@KINCDENJ@bad?5array?5new?5length@	; `string'
PUBLIC	__TI3?AVbad_array_new_length@std@@
PUBLIC	__CTA3?AVbad_array_new_length@std@@
PUBLIC	??_R0?AVbad_array_new_length@std@@@8		; std::bad_array_new_length `RTTI Type Descriptor'
PUBLIC	__CT??_R0?AVbad_array_new_length@std@@@8??0bad_array_new_length@std@@QAE@ABV01@@Z12
PUBLIC	??_R0?AVbad_alloc@std@@@8			; std::bad_alloc `RTTI Type Descriptor'
PUBLIC	__CT??_R0?AVbad_alloc@std@@@8??0bad_alloc@std@@QAE@ABV01@@Z12
PUBLIC	??_R0?AVexception@std@@@8			; std::exception `RTTI Type Descriptor'
PUBLIC	__CT??_R0?AVexception@std@@@8??0exception@std@@QAE@ABV01@@Z12
PUBLIC	?ms_singleton@?$CSingleton@VCTimer@@@@0PAVCTimer@@A ; CSingleton<CTimer>::ms_singleton
PUBLIC	?ms_singleton@?$CSingleton@VCResourceManager@@@@0PAVCResourceManager@@A ; CSingleton<CResourceManager>::ms_singleton
PUBLIC	?ms_singleton@?$CSingleton@VCPythonGraphic@@@@0PAVCPythonGraphic@@A ; CSingleton<CPythonGraphic>::ms_singleton
PUBLIC	?ms_singleton@?$CSingleton@VCWindowManager@UI@@@@0PAVCWindowManager@UI@@A ; CSingleton<UI::CWindowManager>::ms_singleton
PUBLIC	??_R4exception@std@@6B@				; std::exception::`RTTI Complete Object Locator'
PUBLIC	??_R3exception@std@@8				; std::exception::`RTTI Class Hierarchy Descriptor'
PUBLIC	??_R2exception@std@@8				; std::exception::`RTTI Base Class Array'
PUBLIC	??_R1A@?0A@EA@exception@std@@8			; std::exception::`RTTI Base Class Descriptor at (0,-1,0,64)'
PUBLIC	??_R4bad_alloc@std@@6B@				; std::bad_alloc::`RTTI Complete Object Locator'
PUBLIC	??_R3bad_alloc@std@@8				; std::bad_alloc::`RTTI Class Hierarchy Descriptor'
PUBLIC	??_R2bad_alloc@std@@8				; std::bad_alloc::`RTTI Base Class Array'
PUBLIC	??_R1A@?0A@EA@bad_alloc@std@@8			; std::bad_alloc::`RTTI Base Class Descriptor at (0,-1,0,64)'
PUBLIC	??_R4bad_array_new_length@std@@6B@		; std::bad_array_new_length::`RTTI Complete Object Locator'
PUBLIC	??_R3bad_array_new_length@std@@8		; std::bad_array_new_length::`RTTI Class Hierarchy Descriptor'
PUBLIC	??_R2bad_array_new_length@std@@8		; std::bad_array_new_length::`RTTI Base Class Array'
PUBLIC	??_R1A@?0A@EA@bad_array_new_length@std@@8	; std::bad_array_new_length::`RTTI Base Class Descriptor at (0,-1,0,64)'
PUBLIC	??_7CSlotWindow@UI@@6B@				; UI::CSlotWindow::`vftable'
PUBLIC	??_7CSlotButton@CSlotWindow@UI@@6B@		; UI::CSlotWindow::CSlotButton::`vftable'
PUBLIC	??_7CCoverButton@CSlotWindow@UI@@6B@		; UI::CSlotWindow::CCoverButton::`vftable'
PUBLIC	??_7CCoolTimeFinishEffect@CSlotWindow@UI@@6B@	; UI::CSlotWindow::CCoolTimeFinishEffect::`vftable'
PUBLIC	??_C@_02DPKJAMEF@?$CFd@				; `string'
PUBLIC	??_C@_03CIOACFJF@m?$CFd@			; `string'
PUBLIC	??_C@_03EHFNMFPB@g?$CFd@			; `string'
PUBLIC	??_C@_01JBBJJEPG@p@				; `string'
PUBLIC	??_C@_03LIHNMIHG@?$CIi?$CJ@			; `string'
PUBLIC	??_C@_0BC@JJECHKOF@OnSelectEmptySlot@		; `string'
PUBLIC	??_C@_0BB@PFHJJJ@OnSelectItemSlot@		; `string'
PUBLIC	??_C@_0BE@GMADJAFC@OnUnselectEmptySlot@		; `string'
PUBLIC	??_C@_0BD@EONLJJMO@OnUnselectItemSlot@		; `string'
PUBLIC	??_C@_09HJIBPFCA@OnUseSlot@			; `string'
PUBLIC	??_C@_0N@CBOPEHFH@OnOverInItem@			; `string'
PUBLIC	??_C@_02HCKGKOFO@?$CI?$CJ@			; `string'
PUBLIC	??_C@_0O@IBCIPGEP@OnOverOutItem@		; `string'
PUBLIC	??_C@_0BE@MBGDMPNF@OnPressedSlotButton@		; `string'
PUBLIC	??_C@_0M@DKKKJBKL@CSlotWindow@			; `string'
PUBLIC	??_C@_0DI@PPHKLJOI@d?3?1ymir?5work?1ui?1public?1slotacti@ ; `string'
PUBLIC	??_C@_0CH@JJGPDFBJ@d?3?1ymir?5work?1ui?1public?1slot_tog@ ; `string'
PUBLIC	??_C@_0CP@LLEDDNBJ@d?3?1ymir?5work?1ui?1public?1slotacti@ ; `string'
PUBLIC	??_C@_0CP@HABPOOLM@d?3?1ymir?5work?1ui?1public?1slotacti@ ; `string'
PUBLIC	??_C@_0CP@PGILJMBC@d?3?1ymir?5work?1ui?1public?1slotacti@ ; `string'
PUBLIC	??_C@_0CP@DNNHEPLH@d?3?1ymir?5work?1ui?1public?1slotacti@ ; `string'
PUBLIC	??_C@_0CP@CANCHPAP@d?3?1ymir?5work?1ui?1public?1slotacti@ ; `string'
PUBLIC	??_C@_0CP@OLIOKMKK@d?3?1ymir?5work?1ui?1public?1slotacti@ ; `string'
PUBLIC	??_C@_0CP@GNBKNOAE@d?3?1ymir?5work?1ui?1public?1slotacti@ ; `string'
PUBLIC	??_C@_0CP@KGEGANKB@d?3?1ymir?5work?1ui?1public?1slotacti@ ; `string'
PUBLIC	??_C@_0CP@FHBALPHE@d?3?1ymir?5work?1ui?1public?1slotacti@ ; `string'
PUBLIC	??_C@_0CP@JMEMGMNB@d?3?1ymir?5work?1ui?1public?1slotacti@ ; `string'
PUBLIC	??_C@_0CP@BNDEDGKN@d?3?1ymir?5work?1ui?1public?1slotacti@ ; `string'
PUBLIC	??_C@_0CP@NGGIOFAI@d?3?1ymir?5work?1ui?1public?1slotacti@ ; `string'
PUBLIC	??_C@_0CP@FAPMJHKG@d?3?1ymir?5work?1ui?1public?1slotacti@ ; `string'
PUBLIC	??_C@_0DF@FHBGNIHM@d?3?1ymir?5work?1ui?1public?1slotacti@ ; `string'
PUBLIC	??_C@_0DF@JMEKALNJ@d?3?1ymir?5work?1ui?1public?1slotacti@ ; `string'
PUBLIC	??_C@_0DF@BKNOHJHH@d?3?1ymir?5work?1ui?1public?1slotacti@ ; `string'
PUBLIC	??_C@_0DF@NBICKKNC@d?3?1ymir?5work?1ui?1public?1slotacti@ ; `string'
PUBLIC	??_C@_0DF@MMIHJKGK@d?3?1ymir?5work?1ui?1public?1slotacti@ ; `string'
PUBLIC	??_C@_0DF@HNLEJMP@d?3?1ymir?5work?1ui?1public?1slotacti@ ; `string'
PUBLIC	??_C@_0DF@IBEPDLGB@d?3?1ymir?5work?1ui?1public?1slotacti@ ; `string'
PUBLIC	??_C@_0DF@EKBDOIME@d?3?1ymir?5work?1ui?1public?1slotacti@ ; `string'
PUBLIC	??_C@_0DF@LLEFFKBB@d?3?1ymir?5work?1ui?1public?1slotacti@ ; `string'
PUBLIC	??_C@_0DF@HABJIJLE@d?3?1ymir?5work?1ui?1public?1slotacti@ ; `string'
PUBLIC	??_C@_0DF@PBGBNDMI@d?3?1ymir?5work?1ui?1public?1slotacti@ ; `string'
PUBLIC	??_C@_0DF@DKDNAAGN@d?3?1ymir?5work?1ui?1public?1slotacti@ ; `string'
PUBLIC	??_C@_0DF@LMKJHCMD@d?3?1ymir?5work?1ui?1public?1slotacti@ ; `string'
PUBLIC	??_C@_0DF@EAGNMMDP@d?3?1ymir?5work?1ui?1public?1slotacti@ ; `string'
PUBLIC	??_C@_0DF@ILDBBPJK@d?3?1ymir?5work?1ui?1public?1slotacti@ ; `string'
PUBLIC	??_C@_0DF@NKFGNDE@d?3?1ymir?5work?1ui?1public?1slotacti@ ; `string'
PUBLIC	??_C@_0DF@MGPJLOJB@d?3?1ymir?5work?1ui?1public?1slotacti@ ; `string'
PUBLIC	??_C@_0DF@NLPMIOCJ@d?3?1ymir?5work?1ui?1public?1slotacti@ ; `string'
PUBLIC	??_C@_0DF@BAKAFNIM@d?3?1ymir?5work?1ui?1public?1slotacti@ ; `string'
PUBLIC	??_C@_0DF@JGDECPCC@d?3?1ymir?5work?1ui?1public?1slotacti@ ; `string'
PUBLIC	??_C@_0DF@FNGIPMIH@d?3?1ymir?5work?1ui?1public?1slotacti@ ; `string'
PUBLIC	??_C@_0DF@KMDOEOFC@d?3?1ymir?5work?1ui?1public?1slotacti@ ; `string'
PUBLIC	??_C@_0DF@GHGCJNPH@d?3?1ymir?5work?1ui?1public?1slotacti@ ; `string'
PUBLIC	??_C@_0DF@OGBKMHIL@d?3?1ymir?5work?1ui?1public?1slotacti@ ; `string'
PUBLIC	??_C@_0DF@CNEGBECO@d?3?1ymir?5work?1ui?1public?1slotacti@ ; `string'
PUBLIC	??_C@_0DF@KLNCGGIA@d?3?1ymir?5work?1ui?1public?1slotacti@ ; `string'
PUBLIC	??_C@_0DH@EECLJILE@d?3?1ymir?5work?1ui?1public?1slotfini@ ; `string'
PUBLIC	??_C@_0DH@IPHHELBB@d?3?1ymir?5work?1ui?1public?1slotfini@ ; `string'
PUBLIC	??_C@_0DH@JODDJLP@d?3?1ymir?5work?1ui?1public?1slotfini@ ; `string'
PUBLIC	??_C@_0DH@MCLPOKBK@d?3?1ymir?5work?1ui?1public?1slotfini@ ; `string'
PUBLIC	??_C@_0DH@NPLKNKKC@d?3?1ymir?5work?1ui?1public?1slotfini@ ; `string'
PUBLIC	??_C@_0DH@BEOGAJAH@d?3?1ymir?5work?1ui?1public?1slotfini@ ; `string'
PUBLIC	??_C@_0DH@JCHCHLKJ@d?3?1ymir?5work?1ui?1public?1slotfini@ ; `string'
PUBLIC	??_C@_0DH@FJCOKIAM@d?3?1ymir?5work?1ui?1public?1slotfini@ ; `string'
PUBLIC	??_C@_0DH@KIHIBKNJ@d?3?1ymir?5work?1ui?1public?1slotfini@ ; `string'
PUBLIC	??_C@_0DH@GDCEMJHM@d?3?1ymir?5work?1ui?1public?1slotfini@ ; `string'
PUBLIC	??_C@_0DH@OCFMJDAA@d?3?1ymir?5work?1ui?1public?1slotfini@ ; `string'
PUBLIC	??_C@_0O@NKNMEGII@list?5too?5long@		; `string'
PUBLIC	??_C@_0BC@KBDMBKEH@deque?$DMT?$DO?5too?5long@	; `string'
PUBLIC	??_R1A@?0A@EA@CWindow@UI@@8			; UI::CWindow::`RTTI Base Class Descriptor at (0,-1,0,64)'
PUBLIC	??_R0?AVCWindow@UI@@@8				; UI::CWindow `RTTI Type Descriptor'
PUBLIC	??_R3CWindow@UI@@8				; UI::CWindow::`RTTI Class Hierarchy Descriptor'
PUBLIC	??_R2CWindow@UI@@8				; UI::CWindow::`RTTI Base Class Array'
PUBLIC	??_R4CSlotWindow@UI@@6B@			; UI::CSlotWindow::`RTTI Complete Object Locator'
PUBLIC	??_R0?AVCSlotWindow@UI@@@8			; UI::CSlotWindow `RTTI Type Descriptor'
PUBLIC	??_R3CSlotWindow@UI@@8				; UI::CSlotWindow::`RTTI Class Hierarchy Descriptor'
PUBLIC	??_R2CSlotWindow@UI@@8				; UI::CSlotWindow::`RTTI Base Class Array'
PUBLIC	??_R1A@?0A@EA@CSlotWindow@UI@@8			; UI::CSlotWindow::`RTTI Base Class Descriptor at (0,-1,0,64)'
PUBLIC	??_R4CSlotButton@CSlotWindow@UI@@6B@		; UI::CSlotWindow::CSlotButton::`RTTI Complete Object Locator'
PUBLIC	??_R0?AVCSlotButton@CSlotWindow@UI@@@8		; UI::CSlotWindow::CSlotButton `RTTI Type Descriptor'
PUBLIC	??_R3CSlotButton@CSlotWindow@UI@@8		; UI::CSlotWindow::CSlotButton::`RTTI Class Hierarchy Descriptor'
PUBLIC	??_R2CSlotButton@CSlotWindow@UI@@8		; UI::CSlotWindow::CSlotButton::`RTTI Base Class Array'
PUBLIC	??_R1A@?0A@EA@CSlotButton@CSlotWindow@UI@@8	; UI::CSlotWindow::CSlotButton::`RTTI Base Class Descriptor at (0,-1,0,64)'
PUBLIC	??_R1A@?0A@EA@CButton@UI@@8			; UI::CButton::`RTTI Base Class Descriptor at (0,-1,0,64)'
PUBLIC	??_R0?AVCButton@UI@@@8				; UI::CButton `RTTI Type Descriptor'
PUBLIC	??_R3CButton@UI@@8				; UI::CButton::`RTTI Class Hierarchy Descriptor'
PUBLIC	??_R2CButton@UI@@8				; UI::CButton::`RTTI Base Class Array'
PUBLIC	??_R4CCoverButton@CSlotWindow@UI@@6B@		; UI::CSlotWindow::CCoverButton::`RTTI Complete Object Locator'
PUBLIC	??_R0?AVCCoverButton@CSlotWindow@UI@@@8		; UI::CSlotWindow::CCoverButton `RTTI Type Descriptor'
PUBLIC	??_R3CCoverButton@CSlotWindow@UI@@8		; UI::CSlotWindow::CCoverButton::`RTTI Class Hierarchy Descriptor'
PUBLIC	??_R2CCoverButton@CSlotWindow@UI@@8		; UI::CSlotWindow::CCoverButton::`RTTI Base Class Array'
PUBLIC	??_R1A@?0A@EA@CCoverButton@CSlotWindow@UI@@8	; UI::CSlotWindow::CCoverButton::`RTTI Base Class Descriptor at (0,-1,0,64)'
PUBLIC	??_R4CCoolTimeFinishEffect@CSlotWindow@UI@@6B@	; UI::CSlotWindow::CCoolTimeFinishEffect::`RTTI Complete Object Locator'
PUBLIC	??_R0?AVCCoolTimeFinishEffect@CSlotWindow@UI@@@8 ; UI::CSlotWindow::CCoolTimeFinishEffect `RTTI Type Descriptor'
PUBLIC	??_R3CCoolTimeFinishEffect@CSlotWindow@UI@@8	; UI::CSlotWindow::CCoolTimeFinishEffect::`RTTI Class Hierarchy Descriptor'
PUBLIC	??_R2CCoolTimeFinishEffect@CSlotWindow@UI@@8	; UI::CSlotWindow::CCoolTimeFinishEffect::`RTTI Base Class Array'
PUBLIC	??_R1A@?0A@EA@CCoolTimeFinishEffect@CSlotWindow@UI@@8 ; UI::CSlotWindow::CCoolTimeFinishEffect::`RTTI Base Class Descriptor at (0,-1,0,64)'
PUBLIC	??_R1A@?0A@EA@CAniImageBox@UI@@8		; UI::CAniImageBox::`RTTI Base Class Descriptor at (0,-1,0,64)'
PUBLIC	??_R0?AVCAniImageBox@UI@@@8			; UI::CAniImageBox `RTTI Type Descriptor'
PUBLIC	??_R3CAniImageBox@UI@@8				; UI::CAniImageBox::`RTTI Class Hierarchy Descriptor'
PUBLIC	??_R2CAniImageBox@UI@@8				; UI::CAniImageBox::`RTTI Base Class Array'
PUBLIC	__real@00000000
PUBLIC	__real@3f800000
PUBLIC	__real@41800000
EXTRN	??2@YAPAXI@Z:PROC				; operator new
EXTRN	??3@YAXPAXI@Z:PROC				; operator delete
EXTRN	__Init_thread_header:PROC
EXTRN	__Init_thread_abort:PROC
EXTRN	__Init_thread_footer:PROC
EXTRN	__invalid_parameter_noinfo_noreturn:PROC
EXTRN	___stdio_common_vsprintf:PROC
EXTRN	___std_exception_copy:PROC
EXTRN	___std_exception_destroy:PROC
EXTRN	??_Eexception@std@@UAEPAXI@Z:PROC		; std::exception::`vector deleting destructor'
EXTRN	??_Ebad_alloc@std@@UAEPAXI@Z:PROC		; std::bad_alloc::`vector deleting destructor'
EXTRN	??_Ebad_array_new_length@std@@UAEPAXI@Z:PROC	; std::bad_array_new_length::`vector deleting destructor'
EXTRN	?_Xlength_error@std@@YAXPBD@Z:PROC		; std::_Xlength_error
EXTRN	__imp__Py_BuildValue:PROC
EXTRN	?PyCallClassMemberFunc@@YA_NPAU_object@@PBD0@Z:PROC ; PyCallClassMemberFunc
EXTRN	?GetCurrentSecond@CTimer@@QAEMXZ:PROC		; CTimer::GetCurrentSecond
EXTRN	?GetCRC32@@YAKPBDI@Z:PROC			; GetCRC32
EXTRN	?GetResourcePointer@CResourceManager@@QAEPAVCResource@@PBD@Z:PROC ; CResourceManager::GetResourcePointer
EXTRN	?Render@CGraphicImageInstance@@QAEXXZ:PROC	; CGraphicImageInstance::Render
EXTRN	?SetDiffuseColor@CGraphicImageInstance@@QAEXMMMM@Z:PROC ; CGraphicImageInstance::SetDiffuseColor
EXTRN	?SetPosition@CGraphicImageInstance@@QAEXMM@Z:PROC ; CGraphicImageInstance::SetPosition
EXTRN	?SetImagePointer@CGraphicImageInstance@@QAEXPAVCGraphicImage@@@Z:PROC ; CGraphicImageInstance::SetImagePointer
EXTRN	?New@CGraphicImageInstance@@SAPAV1@XZ:PROC	; CGraphicImageInstance::New
EXTRN	?Delete@CGraphicImageInstance@@SAXPAV1@@Z:PROC	; CGraphicImageInstance::Delete
EXTRN	?RenderBar2d@CScreen@@QAEXMMMMM@Z:PROC		; CScreen::RenderBar2d
EXTRN	?SetDiffuseColor@CScreen@@QAEXMMMM@Z:PROC	; CScreen::SetDiffuseColor
EXTRN	?RenderCoolTimeBox@CPythonGraphic@@QAEXMMMM@Z:PROC ; CPythonGraphic::RenderCoolTimeBox
EXTRN	?GetMousePosition@CWindowManager@UI@@QAEXAAJ0@Z:PROC ; UI::CWindowManager::GetMousePosition
EXTRN	?IsDragging@CWindowManager@UI@@QAEHXZ:PROC	; UI::CWindowManager::IsDragging
EXTRN	?SetParent@CWindowManager@UI@@QAEXPAVCWindow@2@0@Z:PROC ; UI::CWindowManager::SetParent
EXTRN	?DestroyWindow@CWindowManager@UI@@QAEXPAVCWindow@2@@Z:PROC ; UI::CWindowManager::DestroyWindow
EXTRN	?IsAttaching@CWindowManager@UI@@QAEHXZ:PROC	; UI::CWindowManager::IsAttaching
EXTRN	?DeattachIcon@CWindowManager@UI@@QAEXXZ:PROC	; UI::CWindowManager::DeattachIcon
EXTRN	?IsType@CWindow@UI@@QAEHK@Z:PROC		; UI::CWindow::IsType
EXTRN	??0CWindow@UI@@QAE@PAU_object@@@Z:PROC		; UI::CWindow::CWindow
EXTRN	??1CWindow@UI@@UAE@XZ:PROC			; UI::CWindow::~CWindow
EXTRN	?Update@CWindow@UI@@QAEXXZ:PROC			; UI::CWindow::Update
EXTRN	?Render@CWindow@UI@@QAEXXZ:PROC			; UI::CWindow::Render
EXTRN	?SetPosition@CWindow@UI@@QAEXJJ@Z:PROC		; UI::CWindow::SetPosition
EXTRN	?GetMouseLocalPosition@CWindow@UI@@QAEXAAJ0@Z:PROC ; UI::CWindow::GetMouseLocalPosition
EXTRN	?Show@CWindow@UI@@QAEXXZ:PROC			; UI::CWindow::Show
EXTRN	?Hide@CWindow@UI@@QAEXXZ:PROC			; UI::CWindow::Hide
EXTRN	?IsRendering@CWindow@UI@@QAE_NXZ:PROC		; UI::CWindow::IsRendering
EXTRN	?SetTop@CWindow@UI@@QAEXPAV12@@Z:PROC		; UI::CWindow::SetTop
EXTRN	?IsIn@CWindow@UI@@QAE_NXZ:PROC			; UI::CWindow::IsIn
EXTRN	?OnSetFocus@CWindow@UI@@UAEXXZ:PROC		; UI::CWindow::OnSetFocus
EXTRN	?OnKillFocus@CWindow@UI@@UAEXXZ:PROC		; UI::CWindow::OnKillFocus
EXTRN	?OnMouseDrag@CWindow@UI@@UAEXJJ@Z:PROC		; UI::CWindow::OnMouseDrag
EXTRN	?OnMouseOverIn@CWindow@UI@@UAEXXZ:PROC		; UI::CWindow::OnMouseOverIn
EXTRN	?OnMouseOverOut@CWindow@UI@@UAEXXZ:PROC		; UI::CWindow::OnMouseOverOut
EXTRN	?OnMouseOver@CWindow@UI@@UAEXXZ:PROC		; UI::CWindow::OnMouseOver
EXTRN	?OnDrop@CWindow@UI@@UAEXXZ:PROC			; UI::CWindow::OnDrop
EXTRN	?OnTop@CWindow@UI@@UAEXXZ:PROC			; UI::CWindow::OnTop
EXTRN	?OnIMEUpdate@CWindow@UI@@UAEXXZ:PROC		; UI::CWindow::OnIMEUpdate
EXTRN	?OnMoveWindow@CWindow@UI@@UAEXJJ@Z:PROC		; UI::CWindow::OnMoveWindow
EXTRN	?OnIMETabEvent@CWindow@UI@@UAEHXZ:PROC		; UI::CWindow::OnIMETabEvent
EXTRN	?OnIMEReturnEvent@CWindow@UI@@UAEHXZ:PROC	; UI::CWindow::OnIMEReturnEvent
EXTRN	?OnIMEKeyDownEvent@CWindow@UI@@UAEHH@Z:PROC	; UI::CWindow::OnIMEKeyDownEvent
EXTRN	?OnIMEChangeCodePage@CWindow@UI@@UAEHXZ:PROC	; UI::CWindow::OnIMEChangeCodePage
EXTRN	?OnIMEOpenCandidateListEvent@CWindow@UI@@UAEHXZ:PROC ; UI::CWindow::OnIMEOpenCandidateListEvent
EXTRN	?OnIMECloseCandidateListEvent@CWindow@UI@@UAEHXZ:PROC ; UI::CWindow::OnIMECloseCandidateListEvent
EXTRN	?OnIMEOpenReadingWndEvent@CWindow@UI@@UAEHXZ:PROC ; UI::CWindow::OnIMEOpenReadingWndEvent
EXTRN	?OnIMECloseReadingWndEvent@CWindow@UI@@UAEHXZ:PROC ; UI::CWindow::OnIMECloseReadingWndEvent
EXTRN	?OnMouseLeftButtonDown@CWindow@UI@@UAEHXZ:PROC	; UI::CWindow::OnMouseLeftButtonDown
EXTRN	?OnMouseLeftButtonUp@CWindow@UI@@UAEHXZ:PROC	; UI::CWindow::OnMouseLeftButtonUp
EXTRN	?OnMouseLeftButtonDoubleClick@CWindow@UI@@UAEHXZ:PROC ; UI::CWindow::OnMouseLeftButtonDoubleClick
EXTRN	?OnMouseRightButtonDown@CWindow@UI@@UAEHXZ:PROC	; UI::CWindow::OnMouseRightButtonDown
EXTRN	?OnMouseRightButtonUp@CWindow@UI@@UAEHXZ:PROC	; UI::CWindow::OnMouseRightButtonUp
EXTRN	?OnMouseRightButtonDoubleClick@CWindow@UI@@UAEHXZ:PROC ; UI::CWindow::OnMouseRightButtonDoubleClick
EXTRN	?OnMouseMiddleButtonDown@CWindow@UI@@UAEHXZ:PROC ; UI::CWindow::OnMouseMiddleButtonDown
EXTRN	?OnMouseMiddleButtonUp@CWindow@UI@@UAEHXZ:PROC	; UI::CWindow::OnMouseMiddleButtonUp
EXTRN	?OnMouseWheelScroll@CWindow@UI@@UAEHF@Z:PROC	; UI::CWindow::OnMouseWheelScroll
EXTRN	?SetScrollable@CWindow@UI@@UAEXXZ:PROC		; UI::CWindow::SetScrollable
EXTRN	?OnKeyDown@CWindow@UI@@UAEHH@Z:PROC		; UI::CWindow::OnKeyDown
EXTRN	?OnKeyUp@CWindow@UI@@UAEHH@Z:PROC		; UI::CWindow::OnKeyUp
EXTRN	?OnPressEscapeKey@CWindow@UI@@UAEHXZ:PROC	; UI::CWindow::OnPressEscapeKey
EXTRN	?OnPressExitKey@CWindow@UI@@UAEHXZ:PROC		; UI::CWindow::OnPressExitKey
EXTRN	?OnIsType@CWindow@UI@@UAEHK@Z:PROC		; UI::CWindow::OnIsType
EXTRN	??0CNumberLine@UI@@QAE@PAVCWindow@1@@Z:PROC	; UI::CNumberLine::CNumberLine
EXTRN	?SetHorizontalAlign@CNumberLine@UI@@QAEXH@Z:PROC ; UI::CNumberLine::SetHorizontalAlign
EXTRN	?SetNumber@CNumberLine@UI@@QAEXPBD@Z:PROC	; UI::CNumberLine::SetNumber
EXTRN	??0CImageBox@UI@@QAE@PAU_object@@@Z:PROC	; UI::CImageBox::CImageBox
EXTRN	?LoadImageA@CImageBox@UI@@QAEHPBD@Z:PROC	; UI::CImageBox::LoadImageA
EXTRN	??0CAniImageBox@UI@@QAE@PAU_object@@@Z:PROC	; UI::CAniImageBox::CAniImageBox
EXTRN	??1CAniImageBox@UI@@UAE@XZ:PROC			; UI::CAniImageBox::~CAniImageBox
EXTRN	?SetDelay@CAniImageBox@UI@@QAEXH@Z:PROC		; UI::CAniImageBox::SetDelay
EXTRN	?AppendImage@CAniImageBox@UI@@QAEXPBDMMMM@Z:PROC ; UI::CAniImageBox::AppendImage
EXTRN	?SetRenderingMode@CAniImageBox@UI@@QAEXH@Z:PROC	; UI::CAniImageBox::SetRenderingMode
EXTRN	?ResetFrame@CAniImageBox@UI@@QAEXXZ:PROC	; UI::CAniImageBox::ResetFrame
EXTRN	?OnUpdate@CAniImageBox@UI@@MAEXXZ:PROC		; UI::CAniImageBox::OnUpdate
EXTRN	?OnRender@CAniImageBox@UI@@MAEXXZ:PROC		; UI::CAniImageBox::OnRender
EXTRN	?OnChangePosition@CAniImageBox@UI@@MAEXXZ:PROC	; UI::CAniImageBox::OnChangePosition
EXTRN	?OnIsType@CAniImageBox@UI@@MAEHK@Z:PROC		; UI::CAniImageBox::OnIsType
EXTRN	??0CButton@UI@@QAE@PAU_object@@@Z:PROC		; UI::CButton::CButton
EXTRN	??1CButton@UI@@UAE@XZ:PROC			; UI::CButton::~CButton
EXTRN	?SetUpVisual@CButton@UI@@QAEHPBD@Z:PROC		; UI::CButton::SetUpVisual
EXTRN	?SetOverVisual@CButton@UI@@QAEHPBD@Z:PROC	; UI::CButton::SetOverVisual
EXTRN	?SetDownVisual@CButton@UI@@QAEHPBD@Z:PROC	; UI::CButton::SetDownVisual
EXTRN	?SetDisableVisual@CButton@UI@@QAEHPBD@Z:PROC	; UI::CButton::SetDisableVisual
EXTRN	?Enable@CButton@UI@@QAEXXZ:PROC			; UI::CButton::Enable
EXTRN	?Disable@CButton@UI@@QAEXXZ:PROC		; UI::CButton::Disable
EXTRN	?SetUp@CButton@UI@@QAEXXZ:PROC			; UI::CButton::SetUp
EXTRN	?Down@CButton@UI@@QAEXXZ:PROC			; UI::CButton::Down
EXTRN	?IsDisable@CButton@UI@@QAEHXZ:PROC		; UI::CButton::IsDisable
EXTRN	?IsPressed@CButton@UI@@QAEHXZ:PROC		; UI::CButton::IsPressed
EXTRN	?OnUpdate@CButton@UI@@MAEXXZ:PROC		; UI::CButton::OnUpdate
EXTRN	?OnRender@CButton@UI@@MAEXXZ:PROC		; UI::CButton::OnRender
EXTRN	?OnChangePosition@CButton@UI@@MAEXXZ:PROC	; UI::CButton::OnChangePosition
EXTRN	?OnMouseLeftButtonDown@CButton@UI@@MAEHXZ:PROC	; UI::CButton::OnMouseLeftButtonDown
EXTRN	?OnMouseLeftButtonDoubleClick@CButton@UI@@MAEHXZ:PROC ; UI::CButton::OnMouseLeftButtonDoubleClick
EXTRN	?OnMouseLeftButtonUp@CButton@UI@@MAEHXZ:PROC	; UI::CButton::OnMouseLeftButtonUp
EXTRN	?IsEnable@CButton@UI@@IAEHXZ:PROC		; UI::CButton::IsEnable
EXTRN	?SetCurrentVisual@CButton@UI@@IAEXPAVCGraphicImageInstance@@@Z:PROC ; UI::CButton::SetCurrentVisual
EXTRN	??_ECSlotWindow@UI@@UAEPAXI@Z:PROC		; UI::CSlotWindow::`vector deleting destructor'
EXTRN	??_ECSlotButton@CSlotWindow@UI@@UAEPAXI@Z:PROC	; UI::CSlotWindow::CSlotButton::`vector deleting destructor'
EXTRN	??_ECCoverButton@CSlotWindow@UI@@UAEPAXI@Z:PROC	; UI::CSlotWindow::CCoverButton::`vector deleting destructor'
EXTRN	??_ECCoolTimeFinishEffect@CSlotWindow@UI@@UAEPAXI@Z:PROC ; UI::CSlotWindow::CCoolTimeFinishEffect::`vector deleting destructor'
EXTRN	@__security_check_cookie@4:PROC
EXTRN	__CxxThrowException@8:PROC
EXTRN	___CxxFrameHandler3:PROC
EXTRN	_memmove:PROC
EXTRN	_memset:PROC
EXTRN	__Init_thread_epoch:DWORD
EXTRN	??_7type_info@@6B@:QWORD			; type_info::`vftable'
EXTRN	___security_cookie:DWORD
EXTRN	__fltused:DWORD
EXTRN	__tls_array:DWORD
EXTRN	__tls_index:DWORD
;	COMDAT ?_OptionsStorage@?1??__local_stdio_printf_options@@9@4_KA
_BSS	SEGMENT
?_OptionsStorage@?1??__local_stdio_printf_options@@9@4_KA DQ 01H DUP (?) ; `__local_stdio_printf_options'::`2'::_OptionsStorage
_BSS	ENDS
;	COMDAT ?ms_singleton@?$CSingleton@VCTimer@@@@0PAVCTimer@@A
_BSS	SEGMENT
?ms_singleton@?$CSingleton@VCTimer@@@@0PAVCTimer@@A DD 01H DUP (?) ; CSingleton<CTimer>::ms_singleton
_BSS	ENDS
;	COMDAT ?ms_singleton@?$CSingleton@VCResourceManager@@@@0PAVCResourceManager@@A
_BSS	SEGMENT
?ms_singleton@?$CSingleton@VCResourceManager@@@@0PAVCResourceManager@@A DD 01H DUP (?) ; CSingleton<CResourceManager>::ms_singleton
_BSS	ENDS
;	COMDAT ?ms_singleton@?$CSingleton@VCPythonGraphic@@@@0PAVCPythonGraphic@@A
_BSS	SEGMENT
?ms_singleton@?$CSingleton@VCPythonGraphic@@@@0PAVCPythonGraphic@@A DD 01H DUP (?) ; CSingleton<CPythonGraphic>::ms_singleton
_BSS	ENDS
;	COMDAT ?ms_singleton@?$CSingleton@VCWindowManager@UI@@@@0PAVCWindowManager@UI@@A
_BSS	SEGMENT
?ms_singleton@?$CSingleton@VCWindowManager@UI@@@@0PAVCWindowManager@UI@@A DD 01H DUP (?) ; CSingleton<UI::CWindowManager>::ms_singleton
_BSS	ENDS
;	COMDAT ?s_Type@?1??Type@CSlotWindow@UI@@SAKXZ@4HA
_BSS	SEGMENT
?s_Type@?1??Type@CSlotWindow@UI@@SAKXZ@4HA DD 01H DUP (?) ; `UI::CSlotWindow::Type'::`2'::s_Type
_BSS	ENDS
;	COMDAT ?$TSS0@?1??Type@CSlotWindow@UI@@SAKXZ@4HA
_BSS	SEGMENT
?$TSS0@?1??Type@CSlotWindow@UI@@SAKXZ@4HA DD 01H DUP (?) ; `UI::CSlotWindow::Type'::`2'::$TSS0
_BSS	ENDS
;	COMDAT __real@41800000
CONST	SEGMENT
__real@41800000 DD 041800000r			; 16
CONST	ENDS
;	COMDAT __real@3f800000
CONST	SEGMENT
__real@3f800000 DD 03f800000r			; 1
CONST	ENDS
;	COMDAT __real@00000000
CONST	SEGMENT
__real@00000000 DD 000000000r			; 0
CONST	ENDS
;	COMDAT ??_R2CAniImageBox@UI@@8
rdata$r	SEGMENT
??_R2CAniImageBox@UI@@8 DD FLAT:??_R1A@?0A@EA@CAniImageBox@UI@@8 ; UI::CAniImageBox::`RTTI Base Class Array'
	DD	FLAT:??_R1A@?0A@EA@CWindow@UI@@8
rdata$r	ENDS
;	COMDAT ??_R3CAniImageBox@UI@@8
rdata$r	SEGMENT
??_R3CAniImageBox@UI@@8 DD 00H				; UI::CAniImageBox::`RTTI Class Hierarchy Descriptor'
	DD	00H
	DD	02H
	DD	FLAT:??_R2CAniImageBox@UI@@8
rdata$r	ENDS
;	COMDAT ??_R0?AVCAniImageBox@UI@@@8
data$r	SEGMENT
??_R0?AVCAniImageBox@UI@@@8 DD FLAT:??_7type_info@@6B@	; UI::CAniImageBox `RTTI Type Descriptor'
	DD	00H
	DB	'.?AVCAniImageBox@UI@@', 00H
data$r	ENDS
;	COMDAT ??_R1A@?0A@EA@CAniImageBox@UI@@8
rdata$r	SEGMENT
??_R1A@?0A@EA@CAniImageBox@UI@@8 DD FLAT:??_R0?AVCAniImageBox@UI@@@8 ; UI::CAniImageBox::`RTTI Base Class Descriptor at (0,-1,0,64)'
	DD	01H
	DD	00H
	DD	0ffffffffH
	DD	00H
	DD	040H
	DD	FLAT:??_R3CAniImageBox@UI@@8
rdata$r	ENDS
;	COMDAT ??_R1A@?0A@EA@CCoolTimeFinishEffect@CSlotWindow@UI@@8
rdata$r	SEGMENT
??_R1A@?0A@EA@CCoolTimeFinishEffect@CSlotWindow@UI@@8 DD FLAT:??_R0?AVCCoolTimeFinishEffect@CSlotWindow@UI@@@8 ; UI::CSlotWindow::CCoolTimeFinishEffect::`RTTI Base Class Descriptor at (0,-1,0,64)'
	DD	02H
	DD	00H
	DD	0ffffffffH
	DD	00H
	DD	040H
	DD	FLAT:??_R3CCoolTimeFinishEffect@CSlotWindow@UI@@8
rdata$r	ENDS
;	COMDAT ??_R2CCoolTimeFinishEffect@CSlotWindow@UI@@8
rdata$r	SEGMENT
??_R2CCoolTimeFinishEffect@CSlotWindow@UI@@8 DD FLAT:??_R1A@?0A@EA@CCoolTimeFinishEffect@CSlotWindow@UI@@8 ; UI::CSlotWindow::CCoolTimeFinishEffect::`RTTI Base Class Array'
	DD	FLAT:??_R1A@?0A@EA@CAniImageBox@UI@@8
	DD	FLAT:??_R1A@?0A@EA@CWindow@UI@@8
rdata$r	ENDS
;	COMDAT ??_R3CCoolTimeFinishEffect@CSlotWindow@UI@@8
rdata$r	SEGMENT
??_R3CCoolTimeFinishEffect@CSlotWindow@UI@@8 DD 00H	; UI::CSlotWindow::CCoolTimeFinishEffect::`RTTI Class Hierarchy Descriptor'
	DD	00H
	DD	03H
	DD	FLAT:??_R2CCoolTimeFinishEffect@CSlotWindow@UI@@8
rdata$r	ENDS
;	COMDAT ??_R0?AVCCoolTimeFinishEffect@CSlotWindow@UI@@@8
data$r	SEGMENT
??_R0?AVCCoolTimeFinishEffect@CSlotWindow@UI@@@8 DD FLAT:??_7type_info@@6B@ ; UI::CSlotWindow::CCoolTimeFinishEffect `RTTI Type Descriptor'
	DD	00H
	DB	'.?AVCCoolTimeFinishEffect@CSlotWindow@UI@@', 00H
data$r	ENDS
;	COMDAT ??_R4CCoolTimeFinishEffect@CSlotWindow@UI@@6B@
rdata$r	SEGMENT
??_R4CCoolTimeFinishEffect@CSlotWindow@UI@@6B@ DD 00H	; UI::CSlotWindow::CCoolTimeFinishEffect::`RTTI Complete Object Locator'
	DD	00H
	DD	00H
	DD	FLAT:??_R0?AVCCoolTimeFinishEffect@CSlotWindow@UI@@@8
	DD	FLAT:??_R3CCoolTimeFinishEffect@CSlotWindow@UI@@8
rdata$r	ENDS
;	COMDAT ??_R1A@?0A@EA@CCoverButton@CSlotWindow@UI@@8
rdata$r	SEGMENT
??_R1A@?0A@EA@CCoverButton@CSlotWindow@UI@@8 DD FLAT:??_R0?AVCCoverButton@CSlotWindow@UI@@@8 ; UI::CSlotWindow::CCoverButton::`RTTI Base Class Descriptor at (0,-1,0,64)'
	DD	03H
	DD	00H
	DD	0ffffffffH
	DD	00H
	DD	040H
	DD	FLAT:??_R3CCoverButton@CSlotWindow@UI@@8
rdata$r	ENDS
;	COMDAT ??_R2CCoverButton@CSlotWindow@UI@@8
rdata$r	SEGMENT
??_R2CCoverButton@CSlotWindow@UI@@8 DD FLAT:??_R1A@?0A@EA@CCoverButton@CSlotWindow@UI@@8 ; UI::CSlotWindow::CCoverButton::`RTTI Base Class Array'
	DD	FLAT:??_R1A@?0A@EA@CSlotButton@CSlotWindow@UI@@8
	DD	FLAT:??_R1A@?0A@EA@CButton@UI@@8
	DD	FLAT:??_R1A@?0A@EA@CWindow@UI@@8
rdata$r	ENDS
;	COMDAT ??_R3CCoverButton@CSlotWindow@UI@@8
rdata$r	SEGMENT
??_R3CCoverButton@CSlotWindow@UI@@8 DD 00H		; UI::CSlotWindow::CCoverButton::`RTTI Class Hierarchy Descriptor'
	DD	00H
	DD	04H
	DD	FLAT:??_R2CCoverButton@CSlotWindow@UI@@8
rdata$r	ENDS
;	COMDAT ??_R0?AVCCoverButton@CSlotWindow@UI@@@8
data$r	SEGMENT
??_R0?AVCCoverButton@CSlotWindow@UI@@@8 DD FLAT:??_7type_info@@6B@ ; UI::CSlotWindow::CCoverButton `RTTI Type Descriptor'
	DD	00H
	DB	'.?AVCCoverButton@CSlotWindow@UI@@', 00H
data$r	ENDS
;	COMDAT ??_R4CCoverButton@CSlotWindow@UI@@6B@
rdata$r	SEGMENT
??_R4CCoverButton@CSlotWindow@UI@@6B@ DD 00H		; UI::CSlotWindow::CCoverButton::`RTTI Complete Object Locator'
	DD	00H
	DD	00H
	DD	FLAT:??_R0?AVCCoverButton@CSlotWindow@UI@@@8
	DD	FLAT:??_R3CCoverButton@CSlotWindow@UI@@8
rdata$r	ENDS
;	COMDAT ??_R2CButton@UI@@8
rdata$r	SEGMENT
??_R2CButton@UI@@8 DD FLAT:??_R1A@?0A@EA@CButton@UI@@8	; UI::CButton::`RTTI Base Class Array'
	DD	FLAT:??_R1A@?0A@EA@CWindow@UI@@8
rdata$r	ENDS
;	COMDAT ??_R3CButton@UI@@8
rdata$r	SEGMENT
??_R3CButton@UI@@8 DD 00H				; UI::CButton::`RTTI Class Hierarchy Descriptor'
	DD	00H
	DD	02H
	DD	FLAT:??_R2CButton@UI@@8
rdata$r	ENDS
;	COMDAT ??_R0?AVCButton@UI@@@8
data$r	SEGMENT
??_R0?AVCButton@UI@@@8 DD FLAT:??_7type_info@@6B@	; UI::CButton `RTTI Type Descriptor'
	DD	00H
	DB	'.?AVCButton@UI@@', 00H
data$r	ENDS
;	COMDAT ??_R1A@?0A@EA@CButton@UI@@8
rdata$r	SEGMENT
??_R1A@?0A@EA@CButton@UI@@8 DD FLAT:??_R0?AVCButton@UI@@@8 ; UI::CButton::`RTTI Base Class Descriptor at (0,-1,0,64)'
	DD	01H
	DD	00H
	DD	0ffffffffH
	DD	00H
	DD	040H
	DD	FLAT:??_R3CButton@UI@@8
rdata$r	ENDS
;	COMDAT ??_R1A@?0A@EA@CSlotButton@CSlotWindow@UI@@8
rdata$r	SEGMENT
??_R1A@?0A@EA@CSlotButton@CSlotWindow@UI@@8 DD FLAT:??_R0?AVCSlotButton@CSlotWindow@UI@@@8 ; UI::CSlotWindow::CSlotButton::`RTTI Base Class Descriptor at (0,-1,0,64)'
	DD	02H
	DD	00H
	DD	0ffffffffH
	DD	00H
	DD	040H
	DD	FLAT:??_R3CSlotButton@CSlotWindow@UI@@8
rdata$r	ENDS
;	COMDAT ??_R2CSlotButton@CSlotWindow@UI@@8
rdata$r	SEGMENT
??_R2CSlotButton@CSlotWindow@UI@@8 DD FLAT:??_R1A@?0A@EA@CSlotButton@CSlotWindow@UI@@8 ; UI::CSlotWindow::CSlotButton::`RTTI Base Class Array'
	DD	FLAT:??_R1A@?0A@EA@CButton@UI@@8
	DD	FLAT:??_R1A@?0A@EA@CWindow@UI@@8
rdata$r	ENDS
;	COMDAT ??_R3CSlotButton@CSlotWindow@UI@@8
rdata$r	SEGMENT
??_R3CSlotButton@CSlotWindow@UI@@8 DD 00H		; UI::CSlotWindow::CSlotButton::`RTTI Class Hierarchy Descriptor'
	DD	00H
	DD	03H
	DD	FLAT:??_R2CSlotButton@CSlotWindow@UI@@8
rdata$r	ENDS
;	COMDAT ??_R0?AVCSlotButton@CSlotWindow@UI@@@8
data$r	SEGMENT
??_R0?AVCSlotButton@CSlotWindow@UI@@@8 DD FLAT:??_7type_info@@6B@ ; UI::CSlotWindow::CSlotButton `RTTI Type Descriptor'
	DD	00H
	DB	'.?AVCSlotButton@CSlotWindow@UI@@', 00H
data$r	ENDS
;	COMDAT ??_R4CSlotButton@CSlotWindow@UI@@6B@
rdata$r	SEGMENT
??_R4CSlotButton@CSlotWindow@UI@@6B@ DD 00H		; UI::CSlotWindow::CSlotButton::`RTTI Complete Object Locator'
	DD	00H
	DD	00H
	DD	FLAT:??_R0?AVCSlotButton@CSlotWindow@UI@@@8
	DD	FLAT:??_R3CSlotButton@CSlotWindow@UI@@8
rdata$r	ENDS
;	COMDAT ??_R1A@?0A@EA@CSlotWindow@UI@@8
rdata$r	SEGMENT
??_R1A@?0A@EA@CSlotWindow@UI@@8 DD FLAT:??_R0?AVCSlotWindow@UI@@@8 ; UI::CSlotWindow::`RTTI Base Class Descriptor at (0,-1,0,64)'
	DD	01H
	DD	00H
	DD	0ffffffffH
	DD	00H
	DD	040H
	DD	FLAT:??_R3CSlotWindow@UI@@8
rdata$r	ENDS
;	COMDAT ??_R2CSlotWindow@UI@@8
rdata$r	SEGMENT
??_R2CSlotWindow@UI@@8 DD FLAT:??_R1A@?0A@EA@CSlotWindow@UI@@8 ; UI::CSlotWindow::`RTTI Base Class Array'
	DD	FLAT:??_R1A@?0A@EA@CWindow@UI@@8
rdata$r	ENDS
;	COMDAT ??_R3CSlotWindow@UI@@8
rdata$r	SEGMENT
??_R3CSlotWindow@UI@@8 DD 00H				; UI::CSlotWindow::`RTTI Class Hierarchy Descriptor'
	DD	00H
	DD	02H
	DD	FLAT:??_R2CSlotWindow@UI@@8
rdata$r	ENDS
;	COMDAT ??_R0?AVCSlotWindow@UI@@@8
data$r	SEGMENT
??_R0?AVCSlotWindow@UI@@@8 DD FLAT:??_7type_info@@6B@	; UI::CSlotWindow `RTTI Type Descriptor'
	DD	00H
	DB	'.?AVCSlotWindow@UI@@', 00H
data$r	ENDS
;	COMDAT ??_R4CSlotWindow@UI@@6B@
rdata$r	SEGMENT
??_R4CSlotWindow@UI@@6B@ DD 00H				; UI::CSlotWindow::`RTTI Complete Object Locator'
	DD	00H
	DD	00H
	DD	FLAT:??_R0?AVCSlotWindow@UI@@@8
	DD	FLAT:??_R3CSlotWindow@UI@@8
rdata$r	ENDS
;	COMDAT ??_R2CWindow@UI@@8
rdata$r	SEGMENT
??_R2CWindow@UI@@8 DD FLAT:??_R1A@?0A@EA@CWindow@UI@@8	; UI::CWindow::`RTTI Base Class Array'
rdata$r	ENDS
;	COMDAT ??_R3CWindow@UI@@8
rdata$r	SEGMENT
??_R3CWindow@UI@@8 DD 00H				; UI::CWindow::`RTTI Class Hierarchy Descriptor'
	DD	00H
	DD	01H
	DD	FLAT:??_R2CWindow@UI@@8
rdata$r	ENDS
;	COMDAT ??_R0?AVCWindow@UI@@@8
data$r	SEGMENT
??_R0?AVCWindow@UI@@@8 DD FLAT:??_7type_info@@6B@	; UI::CWindow `RTTI Type Descriptor'
	DD	00H
	DB	'.?AVCWindow@UI@@', 00H
data$r	ENDS
;	COMDAT ??_R1A@?0A@EA@CWindow@UI@@8
rdata$r	SEGMENT
??_R1A@?0A@EA@CWindow@UI@@8 DD FLAT:??_R0?AVCWindow@UI@@@8 ; UI::CWindow::`RTTI Base Class Descriptor at (0,-1,0,64)'
	DD	00H
	DD	00H
	DD	0ffffffffH
	DD	00H
	DD	040H
	DD	FLAT:??_R3CWindow@UI@@8
rdata$r	ENDS
;	COMDAT ??_C@_0BC@KBDMBKEH@deque?$DMT?$DO?5too?5long@
CONST	SEGMENT
??_C@_0BC@KBDMBKEH@deque?$DMT?$DO?5too?5long@ DB 'deque<T> too long', 00H ; `string'
CONST	ENDS
;	COMDAT ??_C@_0O@NKNMEGII@list?5too?5long@
CONST	SEGMENT
??_C@_0O@NKNMEGII@list?5too?5long@ DB 'list too long', 00H ; `string'
CONST	ENDS
;	COMDAT ??_C@_0DH@OCFMJDAA@d?3?1ymir?5work?1ui?1public?1slotfini@
CONST	SEGMENT
??_C@_0DH@OCFMJDAA@d?3?1ymir?5work?1ui?1public?1slotfini@ DB 'd:/ymir wor'
	DB	'k/ui/public/slotfinishcooltimeeffect/10.sub', 00H ; `string'
CONST	ENDS
;	COMDAT ??_C@_0DH@GDCEMJHM@d?3?1ymir?5work?1ui?1public?1slotfini@
CONST	SEGMENT
??_C@_0DH@GDCEMJHM@d?3?1ymir?5work?1ui?1public?1slotfini@ DB 'd:/ymir wor'
	DB	'k/ui/public/slotfinishcooltimeeffect/09.sub', 00H ; `string'
CONST	ENDS
;	COMDAT ??_C@_0DH@KIHIBKNJ@d?3?1ymir?5work?1ui?1public?1slotfini@
CONST	SEGMENT
??_C@_0DH@KIHIBKNJ@d?3?1ymir?5work?1ui?1public?1slotfini@ DB 'd:/ymir wor'
	DB	'k/ui/public/slotfinishcooltimeeffect/08.sub', 00H ; `string'
CONST	ENDS
;	COMDAT ??_C@_0DH@FJCOKIAM@d?3?1ymir?5work?1ui?1public?1slotfini@
CONST	SEGMENT
??_C@_0DH@FJCOKIAM@d?3?1ymir?5work?1ui?1public?1slotfini@ DB 'd:/ymir wor'
	DB	'k/ui/public/slotfinishcooltimeeffect/07.sub', 00H ; `string'
CONST	ENDS
;	COMDAT ??_C@_0DH@JCHCHLKJ@d?3?1ymir?5work?1ui?1public?1slotfini@
CONST	SEGMENT
??_C@_0DH@JCHCHLKJ@d?3?1ymir?5work?1ui?1public?1slotfini@ DB 'd:/ymir wor'
	DB	'k/ui/public/slotfinishcooltimeeffect/06.sub', 00H ; `string'
CONST	ENDS
;	COMDAT ??_C@_0DH@BEOGAJAH@d?3?1ymir?5work?1ui?1public?1slotfini@
CONST	SEGMENT
??_C@_0DH@BEOGAJAH@d?3?1ymir?5work?1ui?1public?1slotfini@ DB 'd:/ymir wor'
	DB	'k/ui/public/slotfinishcooltimeeffect/05.sub', 00H ; `string'
CONST	ENDS
;	COMDAT ??_C@_0DH@NPLKNKKC@d?3?1ymir?5work?1ui?1public?1slotfini@
CONST	SEGMENT
??_C@_0DH@NPLKNKKC@d?3?1ymir?5work?1ui?1public?1slotfini@ DB 'd:/ymir wor'
	DB	'k/ui/public/slotfinishcooltimeeffect/04.sub', 00H ; `string'
CONST	ENDS
;	COMDAT ??_C@_0DH@MCLPOKBK@d?3?1ymir?5work?1ui?1public?1slotfini@
CONST	SEGMENT
??_C@_0DH@MCLPOKBK@d?3?1ymir?5work?1ui?1public?1slotfini@ DB 'd:/ymir wor'
	DB	'k/ui/public/slotfinishcooltimeeffect/03.sub', 00H ; `string'
CONST	ENDS
;	COMDAT ??_C@_0DH@JODDJLP@d?3?1ymir?5work?1ui?1public?1slotfini@
CONST	SEGMENT
??_C@_0DH@JODDJLP@d?3?1ymir?5work?1ui?1public?1slotfini@ DB 'd:/ymir work'
	DB	'/ui/public/slotfinishcooltimeeffect/02.sub', 00H ; `string'
CONST	ENDS
;	COMDAT ??_C@_0DH@IPHHELBB@d?3?1ymir?5work?1ui?1public?1slotfini@
CONST	SEGMENT
??_C@_0DH@IPHHELBB@d?3?1ymir?5work?1ui?1public?1slotfini@ DB 'd:/ymir wor'
	DB	'k/ui/public/slotfinishcooltimeeffect/01.sub', 00H ; `string'
CONST	ENDS
;	COMDAT ??_C@_0DH@EECLJILE@d?3?1ymir?5work?1ui?1public?1slotfini@
CONST	SEGMENT
??_C@_0DH@EECLJILE@d?3?1ymir?5work?1ui?1public?1slotfini@ DB 'd:/ymir wor'
	DB	'k/ui/public/slotfinishcooltimeeffect/00.sub', 00H ; `string'
CONST	ENDS
;	COMDAT ??_C@_0DF@KLNCGGIA@d?3?1ymir?5work?1ui?1public?1slotacti@
CONST	SEGMENT
??_C@_0DF@KLNCGGIA@d?3?1ymir?5work?1ui?1public?1slotacti@ DB 'd:/ymir wor'
	DB	'k/ui/public/slotactiveeffect/slot3/12.sub', 00H ; `string'
CONST	ENDS
;	COMDAT ??_C@_0DF@CNEGBECO@d?3?1ymir?5work?1ui?1public?1slotacti@
CONST	SEGMENT
??_C@_0DF@CNEGBECO@d?3?1ymir?5work?1ui?1public?1slotacti@ DB 'd:/ymir wor'
	DB	'k/ui/public/slotactiveeffect/slot3/11.sub', 00H ; `string'
CONST	ENDS
;	COMDAT ??_C@_0DF@OGBKMHIL@d?3?1ymir?5work?1ui?1public?1slotacti@
CONST	SEGMENT
??_C@_0DF@OGBKMHIL@d?3?1ymir?5work?1ui?1public?1slotacti@ DB 'd:/ymir wor'
	DB	'k/ui/public/slotactiveeffect/slot3/10.sub', 00H ; `string'
CONST	ENDS
;	COMDAT ??_C@_0DF@GHGCJNPH@d?3?1ymir?5work?1ui?1public?1slotacti@
CONST	SEGMENT
??_C@_0DF@GHGCJNPH@d?3?1ymir?5work?1ui?1public?1slotacti@ DB 'd:/ymir wor'
	DB	'k/ui/public/slotactiveeffect/slot3/09.sub', 00H ; `string'
CONST	ENDS
;	COMDAT ??_C@_0DF@KMDOEOFC@d?3?1ymir?5work?1ui?1public?1slotacti@
CONST	SEGMENT
??_C@_0DF@KMDOEOFC@d?3?1ymir?5work?1ui?1public?1slotacti@ DB 'd:/ymir wor'
	DB	'k/ui/public/slotactiveeffect/slot3/08.sub', 00H ; `string'
CONST	ENDS
;	COMDAT ??_C@_0DF@FNGIPMIH@d?3?1ymir?5work?1ui?1public?1slotacti@
CONST	SEGMENT
??_C@_0DF@FNGIPMIH@d?3?1ymir?5work?1ui?1public?1slotacti@ DB 'd:/ymir wor'
	DB	'k/ui/public/slotactiveeffect/slot3/07.sub', 00H ; `string'
CONST	ENDS
;	COMDAT ??_C@_0DF@JGDECPCC@d?3?1ymir?5work?1ui?1public?1slotacti@
CONST	SEGMENT
??_C@_0DF@JGDECPCC@d?3?1ymir?5work?1ui?1public?1slotacti@ DB 'd:/ymir wor'
	DB	'k/ui/public/slotactiveeffect/slot3/06.sub', 00H ; `string'
CONST	ENDS
;	COMDAT ??_C@_0DF@BAKAFNIM@d?3?1ymir?5work?1ui?1public?1slotacti@
CONST	SEGMENT
??_C@_0DF@BAKAFNIM@d?3?1ymir?5work?1ui?1public?1slotacti@ DB 'd:/ymir wor'
	DB	'k/ui/public/slotactiveeffect/slot3/05.sub', 00H ; `string'
CONST	ENDS
;	COMDAT ??_C@_0DF@NLPMIOCJ@d?3?1ymir?5work?1ui?1public?1slotacti@
CONST	SEGMENT
??_C@_0DF@NLPMIOCJ@d?3?1ymir?5work?1ui?1public?1slotacti@ DB 'd:/ymir wor'
	DB	'k/ui/public/slotactiveeffect/slot3/04.sub', 00H ; `string'
CONST	ENDS
;	COMDAT ??_C@_0DF@MGPJLOJB@d?3?1ymir?5work?1ui?1public?1slotacti@
CONST	SEGMENT
??_C@_0DF@MGPJLOJB@d?3?1ymir?5work?1ui?1public?1slotacti@ DB 'd:/ymir wor'
	DB	'k/ui/public/slotactiveeffect/slot3/03.sub', 00H ; `string'
CONST	ENDS
;	COMDAT ??_C@_0DF@NKFGNDE@d?3?1ymir?5work?1ui?1public?1slotacti@
CONST	SEGMENT
??_C@_0DF@NKFGNDE@d?3?1ymir?5work?1ui?1public?1slotacti@ DB 'd:/ymir work'
	DB	'/ui/public/slotactiveeffect/slot3/02.sub', 00H ; `string'
CONST	ENDS
;	COMDAT ??_C@_0DF@ILDBBPJK@d?3?1ymir?5work?1ui?1public?1slotacti@
CONST	SEGMENT
??_C@_0DF@ILDBBPJK@d?3?1ymir?5work?1ui?1public?1slotacti@ DB 'd:/ymir wor'
	DB	'k/ui/public/slotactiveeffect/slot3/01.sub', 00H ; `string'
CONST	ENDS
;	COMDAT ??_C@_0DF@EAGNMMDP@d?3?1ymir?5work?1ui?1public?1slotacti@
CONST	SEGMENT
??_C@_0DF@EAGNMMDP@d?3?1ymir?5work?1ui?1public?1slotacti@ DB 'd:/ymir wor'
	DB	'k/ui/public/slotactiveeffect/slot3/00.sub', 00H ; `string'
CONST	ENDS
;	COMDAT ??_C@_0DF@LMKJHCMD@d?3?1ymir?5work?1ui?1public?1slotacti@
CONST	SEGMENT
??_C@_0DF@LMKJHCMD@d?3?1ymir?5work?1ui?1public?1slotacti@ DB 'd:/ymir wor'
	DB	'k/ui/public/slotactiveeffect/slot2/12.sub', 00H ; `string'
CONST	ENDS
;	COMDAT ??_C@_0DF@DKDNAAGN@d?3?1ymir?5work?1ui?1public?1slotacti@
CONST	SEGMENT
??_C@_0DF@DKDNAAGN@d?3?1ymir?5work?1ui?1public?1slotacti@ DB 'd:/ymir wor'
	DB	'k/ui/public/slotactiveeffect/slot2/11.sub', 00H ; `string'
CONST	ENDS
;	COMDAT ??_C@_0DF@PBGBNDMI@d?3?1ymir?5work?1ui?1public?1slotacti@
CONST	SEGMENT
??_C@_0DF@PBGBNDMI@d?3?1ymir?5work?1ui?1public?1slotacti@ DB 'd:/ymir wor'
	DB	'k/ui/public/slotactiveeffect/slot2/10.sub', 00H ; `string'
CONST	ENDS
;	COMDAT ??_C@_0DF@HABJIJLE@d?3?1ymir?5work?1ui?1public?1slotacti@
CONST	SEGMENT
??_C@_0DF@HABJIJLE@d?3?1ymir?5work?1ui?1public?1slotacti@ DB 'd:/ymir wor'
	DB	'k/ui/public/slotactiveeffect/slot2/09.sub', 00H ; `string'
CONST	ENDS
;	COMDAT ??_C@_0DF@LLEFFKBB@d?3?1ymir?5work?1ui?1public?1slotacti@
CONST	SEGMENT
??_C@_0DF@LLEFFKBB@d?3?1ymir?5work?1ui?1public?1slotacti@ DB 'd:/ymir wor'
	DB	'k/ui/public/slotactiveeffect/slot2/08.sub', 00H ; `string'
CONST	ENDS
;	COMDAT ??_C@_0DF@EKBDOIME@d?3?1ymir?5work?1ui?1public?1slotacti@
CONST	SEGMENT
??_C@_0DF@EKBDOIME@d?3?1ymir?5work?1ui?1public?1slotacti@ DB 'd:/ymir wor'
	DB	'k/ui/public/slotactiveeffect/slot2/07.sub', 00H ; `string'
CONST	ENDS
;	COMDAT ??_C@_0DF@IBEPDLGB@d?3?1ymir?5work?1ui?1public?1slotacti@
CONST	SEGMENT
??_C@_0DF@IBEPDLGB@d?3?1ymir?5work?1ui?1public?1slotacti@ DB 'd:/ymir wor'
	DB	'k/ui/public/slotactiveeffect/slot2/06.sub', 00H ; `string'
CONST	ENDS
;	COMDAT ??_C@_0DF@HNLEJMP@d?3?1ymir?5work?1ui?1public?1slotacti@
CONST	SEGMENT
??_C@_0DF@HNLEJMP@d?3?1ymir?5work?1ui?1public?1slotacti@ DB 'd:/ymir work'
	DB	'/ui/public/slotactiveeffect/slot2/05.sub', 00H ; `string'
CONST	ENDS
;	COMDAT ??_C@_0DF@MMIHJKGK@d?3?1ymir?5work?1ui?1public?1slotacti@
CONST	SEGMENT
??_C@_0DF@MMIHJKGK@d?3?1ymir?5work?1ui?1public?1slotacti@ DB 'd:/ymir wor'
	DB	'k/ui/public/slotactiveeffect/slot2/04.sub', 00H ; `string'
CONST	ENDS
;	COMDAT ??_C@_0DF@NBICKKNC@d?3?1ymir?5work?1ui?1public?1slotacti@
CONST	SEGMENT
??_C@_0DF@NBICKKNC@d?3?1ymir?5work?1ui?1public?1slotacti@ DB 'd:/ymir wor'
	DB	'k/ui/public/slotactiveeffect/slot2/03.sub', 00H ; `string'
CONST	ENDS
;	COMDAT ??_C@_0DF@BKNOHJHH@d?3?1ymir?5work?1ui?1public?1slotacti@
CONST	SEGMENT
??_C@_0DF@BKNOHJHH@d?3?1ymir?5work?1ui?1public?1slotacti@ DB 'd:/ymir wor'
	DB	'k/ui/public/slotactiveeffect/slot2/02.sub', 00H ; `string'
CONST	ENDS
;	COMDAT ??_C@_0DF@JMEKALNJ@d?3?1ymir?5work?1ui?1public?1slotacti@
CONST	SEGMENT
??_C@_0DF@JMEKALNJ@d?3?1ymir?5work?1ui?1public?1slotacti@ DB 'd:/ymir wor'
	DB	'k/ui/public/slotactiveeffect/slot2/01.sub', 00H ; `string'
CONST	ENDS
;	COMDAT ??_C@_0DF@FHBGNIHM@d?3?1ymir?5work?1ui?1public?1slotacti@
CONST	SEGMENT
??_C@_0DF@FHBGNIHM@d?3?1ymir?5work?1ui?1public?1slotacti@ DB 'd:/ymir wor'
	DB	'k/ui/public/slotactiveeffect/slot2/00.sub', 00H ; `string'
CONST	ENDS
;	COMDAT ??_C@_0CP@FAPMJHKG@d?3?1ymir?5work?1ui?1public?1slotacti@
CONST	SEGMENT
??_C@_0CP@FAPMJHKG@d?3?1ymir?5work?1ui?1public?1slotacti@ DB 'd:/ymir wor'
	DB	'k/ui/public/slotactiveeffect/12.sub', 00H	; `string'
CONST	ENDS
;	COMDAT ??_C@_0CP@NGGIOFAI@d?3?1ymir?5work?1ui?1public?1slotacti@
CONST	SEGMENT
??_C@_0CP@NGGIOFAI@d?3?1ymir?5work?1ui?1public?1slotacti@ DB 'd:/ymir wor'
	DB	'k/ui/public/slotactiveeffect/11.sub', 00H	; `string'
CONST	ENDS
;	COMDAT ??_C@_0CP@BNDEDGKN@d?3?1ymir?5work?1ui?1public?1slotacti@
CONST	SEGMENT
??_C@_0CP@BNDEDGKN@d?3?1ymir?5work?1ui?1public?1slotacti@ DB 'd:/ymir wor'
	DB	'k/ui/public/slotactiveeffect/10.sub', 00H	; `string'
CONST	ENDS
;	COMDAT ??_C@_0CP@JMEMGMNB@d?3?1ymir?5work?1ui?1public?1slotacti@
CONST	SEGMENT
??_C@_0CP@JMEMGMNB@d?3?1ymir?5work?1ui?1public?1slotacti@ DB 'd:/ymir wor'
	DB	'k/ui/public/slotactiveeffect/09.sub', 00H	; `string'
CONST	ENDS
;	COMDAT ??_C@_0CP@FHBALPHE@d?3?1ymir?5work?1ui?1public?1slotacti@
CONST	SEGMENT
??_C@_0CP@FHBALPHE@d?3?1ymir?5work?1ui?1public?1slotacti@ DB 'd:/ymir wor'
	DB	'k/ui/public/slotactiveeffect/08.sub', 00H	; `string'
CONST	ENDS
;	COMDAT ??_C@_0CP@KGEGANKB@d?3?1ymir?5work?1ui?1public?1slotacti@
CONST	SEGMENT
??_C@_0CP@KGEGANKB@d?3?1ymir?5work?1ui?1public?1slotacti@ DB 'd:/ymir wor'
	DB	'k/ui/public/slotactiveeffect/07.sub', 00H	; `string'
CONST	ENDS
;	COMDAT ??_C@_0CP@GNBKNOAE@d?3?1ymir?5work?1ui?1public?1slotacti@
CONST	SEGMENT
??_C@_0CP@GNBKNOAE@d?3?1ymir?5work?1ui?1public?1slotacti@ DB 'd:/ymir wor'
	DB	'k/ui/public/slotactiveeffect/06.sub', 00H	; `string'
CONST	ENDS
;	COMDAT ??_C@_0CP@OLIOKMKK@d?3?1ymir?5work?1ui?1public?1slotacti@
CONST	SEGMENT
??_C@_0CP@OLIOKMKK@d?3?1ymir?5work?1ui?1public?1slotacti@ DB 'd:/ymir wor'
	DB	'k/ui/public/slotactiveeffect/05.sub', 00H	; `string'
CONST	ENDS
;	COMDAT ??_C@_0CP@CANCHPAP@d?3?1ymir?5work?1ui?1public?1slotacti@
CONST	SEGMENT
??_C@_0CP@CANCHPAP@d?3?1ymir?5work?1ui?1public?1slotacti@ DB 'd:/ymir wor'
	DB	'k/ui/public/slotactiveeffect/04.sub', 00H	; `string'
CONST	ENDS
;	COMDAT ??_C@_0CP@DNNHEPLH@d?3?1ymir?5work?1ui?1public?1slotacti@
CONST	SEGMENT
??_C@_0CP@DNNHEPLH@d?3?1ymir?5work?1ui?1public?1slotacti@ DB 'd:/ymir wor'
	DB	'k/ui/public/slotactiveeffect/03.sub', 00H	; `string'
CONST	ENDS
;	COMDAT ??_C@_0CP@PGILJMBC@d?3?1ymir?5work?1ui?1public?1slotacti@
CONST	SEGMENT
??_C@_0CP@PGILJMBC@d?3?1ymir?5work?1ui?1public?1slotacti@ DB 'd:/ymir wor'
	DB	'k/ui/public/slotactiveeffect/02.sub', 00H	; `string'
CONST	ENDS
;	COMDAT ??_C@_0CP@HABPOOLM@d?3?1ymir?5work?1ui?1public?1slotacti@
CONST	SEGMENT
??_C@_0CP@HABPOOLM@d?3?1ymir?5work?1ui?1public?1slotacti@ DB 'd:/ymir wor'
	DB	'k/ui/public/slotactiveeffect/01.sub', 00H	; `string'
CONST	ENDS
;	COMDAT ??_C@_0CP@LLEDDNBJ@d?3?1ymir?5work?1ui?1public?1slotacti@
CONST	SEGMENT
??_C@_0CP@LLEDDNBJ@d?3?1ymir?5work?1ui?1public?1slotacti@ DB 'd:/ymir wor'
	DB	'k/ui/public/slotactiveeffect/00.sub', 00H	; `string'
CONST	ENDS
;	COMDAT ??_C@_0CH@JJGPDFBJ@d?3?1ymir?5work?1ui?1public?1slot_tog@
CONST	SEGMENT
??_C@_0CH@JJGPDFBJ@d?3?1ymir?5work?1ui?1public?1slot_tog@ DB 'd:/ymir wor'
	DB	'k/ui/public/slot_toggle.sub', 00H		; `string'
CONST	ENDS
;	COMDAT ??_C@_0DI@PPHKLJOI@d?3?1ymir?5work?1ui?1public?1slotacti@
CONST	SEGMENT
??_C@_0DI@PPHKLJOI@d?3?1ymir?5work?1ui?1public?1slotacti@ DB 'd:/ymir wor'
	DB	'k/ui/public/slotactiveeffect/slot%d/%02d.sub', 00H ; `string'
CONST	ENDS
;	COMDAT ??_C@_0M@DKKKJBKL@CSlotWindow@
CONST	SEGMENT
??_C@_0M@DKKKJBKL@CSlotWindow@ DB 'CSlotWindow', 00H	; `string'
CONST	ENDS
;	COMDAT ??_C@_0BE@MBGDMPNF@OnPressedSlotButton@
CONST	SEGMENT
??_C@_0BE@MBGDMPNF@OnPressedSlotButton@ DB 'OnPressedSlotButton', 00H ; `string'
CONST	ENDS
;	COMDAT ??_C@_0O@IBCIPGEP@OnOverOutItem@
CONST	SEGMENT
??_C@_0O@IBCIPGEP@OnOverOutItem@ DB 'OnOverOutItem', 00H ; `string'
CONST	ENDS
;	COMDAT ??_C@_02HCKGKOFO@?$CI?$CJ@
CONST	SEGMENT
??_C@_02HCKGKOFO@?$CI?$CJ@ DB '()', 00H			; `string'
CONST	ENDS
;	COMDAT ??_C@_0N@CBOPEHFH@OnOverInItem@
CONST	SEGMENT
??_C@_0N@CBOPEHFH@OnOverInItem@ DB 'OnOverInItem', 00H	; `string'
CONST	ENDS
;	COMDAT ??_C@_09HJIBPFCA@OnUseSlot@
CONST	SEGMENT
??_C@_09HJIBPFCA@OnUseSlot@ DB 'OnUseSlot', 00H		; `string'
CONST	ENDS
;	COMDAT ??_C@_0BD@EONLJJMO@OnUnselectItemSlot@
CONST	SEGMENT
??_C@_0BD@EONLJJMO@OnUnselectItemSlot@ DB 'OnUnselectItemSlot', 00H ; `string'
CONST	ENDS
;	COMDAT ??_C@_0BE@GMADJAFC@OnUnselectEmptySlot@
CONST	SEGMENT
??_C@_0BE@GMADJAFC@OnUnselectEmptySlot@ DB 'OnUnselectEmptySlot', 00H ; `string'
CONST	ENDS
;	COMDAT ??_C@_0BB@PFHJJJ@OnSelectItemSlot@
CONST	SEGMENT
??_C@_0BB@PFHJJJ@OnSelectItemSlot@ DB 'OnSelectItemSlot', 00H ; `string'
CONST	ENDS
;	COMDAT ??_C@_0BC@JJECHKOF@OnSelectEmptySlot@
CONST	SEGMENT
??_C@_0BC@JJECHKOF@OnSelectEmptySlot@ DB 'OnSelectEmptySlot', 00H ; `string'
CONST	ENDS
;	COMDAT ??_C@_03LIHNMIHG@?$CIi?$CJ@
CONST	SEGMENT
??_C@_03LIHNMIHG@?$CIi?$CJ@ DB '(i)', 00H		; `string'
CONST	ENDS
;	COMDAT ??_C@_01JBBJJEPG@p@
CONST	SEGMENT
??_C@_01JBBJJEPG@p@ DB 'p', 00H				; `string'
CONST	ENDS
;	COMDAT ??_C@_03EHFNMFPB@g?$CFd@
CONST	SEGMENT
??_C@_03EHFNMFPB@g?$CFd@ DB 'g%d', 00H			; `string'
CONST	ENDS
;	COMDAT ??_C@_03CIOACFJF@m?$CFd@
CONST	SEGMENT
??_C@_03CIOACFJF@m?$CFd@ DB 'm%d', 00H			; `string'
CONST	ENDS
;	COMDAT ??_C@_02DPKJAMEF@?$CFd@
CONST	SEGMENT
??_C@_02DPKJAMEF@?$CFd@ DB '%d', 00H			; `string'
CONST	ENDS
;	COMDAT ??_7CCoolTimeFinishEffect@CSlotWindow@UI@@6B@
CONST	SEGMENT
??_7CCoolTimeFinishEffect@CSlotWindow@UI@@6B@ DD FLAT:??_R4CCoolTimeFinishEffect@CSlotWindow@UI@@6B@ ; UI::CSlotWindow::CCoolTimeFinishEffect::`vftable'
	DD	FLAT:??_ECCoolTimeFinishEffect@CSlotWindow@UI@@UAEPAXI@Z
	DD	FLAT:?OnRender@CAniImageBox@UI@@MAEXXZ
	DD	FLAT:?OnUpdate@CAniImageBox@UI@@MAEXXZ
	DD	FLAT:?OnChangePosition@CAniImageBox@UI@@MAEXXZ
	DD	FLAT:?OnSetFocus@CWindow@UI@@UAEXXZ
	DD	FLAT:?OnKillFocus@CWindow@UI@@UAEXXZ
	DD	FLAT:?OnMouseDrag@CWindow@UI@@UAEXJJ@Z
	DD	FLAT:?OnMouseOverIn@CWindow@UI@@UAEXXZ
	DD	FLAT:?OnMouseOverOut@CWindow@UI@@UAEXXZ
	DD	FLAT:?OnMouseOver@CWindow@UI@@UAEXXZ
	DD	FLAT:?OnDrop@CWindow@UI@@UAEXXZ
	DD	FLAT:?OnTop@CWindow@UI@@UAEXXZ
	DD	FLAT:?OnIMEUpdate@CWindow@UI@@UAEXXZ
	DD	FLAT:?OnMoveWindow@CWindow@UI@@UAEXJJ@Z
	DD	FLAT:?OnIMETabEvent@CWindow@UI@@UAEHXZ
	DD	FLAT:?OnIMEReturnEvent@CWindow@UI@@UAEHXZ
	DD	FLAT:?OnIMEKeyDownEvent@CWindow@UI@@UAEHH@Z
	DD	FLAT:?OnIMEChangeCodePage@CWindow@UI@@UAEHXZ
	DD	FLAT:?OnIMEOpenCandidateListEvent@CWindow@UI@@UAEHXZ
	DD	FLAT:?OnIMECloseCandidateListEvent@CWindow@UI@@UAEHXZ
	DD	FLAT:?OnIMEOpenReadingWndEvent@CWindow@UI@@UAEHXZ
	DD	FLAT:?OnIMECloseReadingWndEvent@CWindow@UI@@UAEHXZ
	DD	FLAT:?OnMouseLeftButtonDown@CWindow@UI@@UAEHXZ
	DD	FLAT:?OnMouseLeftButtonUp@CWindow@UI@@UAEHXZ
	DD	FLAT:?OnMouseLeftButtonDoubleClick@CWindow@UI@@UAEHXZ
	DD	FLAT:?OnMouseRightButtonDown@CWindow@UI@@UAEHXZ
	DD	FLAT:?OnMouseRightButtonUp@CWindow@UI@@UAEHXZ
	DD	FLAT:?OnMouseRightButtonDoubleClick@CWindow@UI@@UAEHXZ
	DD	FLAT:?OnMouseMiddleButtonDown@CWindow@UI@@UAEHXZ
	DD	FLAT:?OnMouseMiddleButtonUp@CWindow@UI@@UAEHXZ
	DD	FLAT:?OnMouseWheelScroll@CWindow@UI@@UAEHF@Z
	DD	FLAT:?SetScrollable@CWindow@UI@@UAEXXZ
	DD	FLAT:?OnKeyDown@CWindow@UI@@UAEHH@Z
	DD	FLAT:?OnKeyUp@CWindow@UI@@UAEHH@Z
	DD	FLAT:?OnPressEscapeKey@CWindow@UI@@UAEHXZ
	DD	FLAT:?OnPressExitKey@CWindow@UI@@UAEHXZ
	DD	FLAT:?SetColor@CWindow@UI@@UAEXK@Z
	DD	FLAT:?OnIsType@CAniImageBox@UI@@MAEHK@Z
	DD	FLAT:?IsWindow@CWindow@UI@@UAEHXZ
	DD	FLAT:?OnEndFrame@CCoolTimeFinishEffect@CSlotWindow@UI@@UAEXXZ
CONST	ENDS
;	COMDAT ??_7CCoverButton@CSlotWindow@UI@@6B@
CONST	SEGMENT
??_7CCoverButton@CSlotWindow@UI@@6B@ DD FLAT:??_R4CCoverButton@CSlotWindow@UI@@6B@ ; UI::CSlotWindow::CCoverButton::`vftable'
	DD	FLAT:??_ECCoverButton@CSlotWindow@UI@@UAEPAXI@Z
	DD	FLAT:?OnRender@CCoverButton@CSlotWindow@UI@@UAEXXZ
	DD	FLAT:?OnUpdate@CButton@UI@@MAEXXZ
	DD	FLAT:?OnChangePosition@CButton@UI@@MAEXXZ
	DD	FLAT:?OnSetFocus@CWindow@UI@@UAEXXZ
	DD	FLAT:?OnKillFocus@CWindow@UI@@UAEXXZ
	DD	FLAT:?OnMouseDrag@CWindow@UI@@UAEXJJ@Z
	DD	FLAT:?OnMouseOverIn@CSlotButton@CSlotWindow@UI@@UAEXXZ
	DD	FLAT:?OnMouseOverOut@CSlotButton@CSlotWindow@UI@@UAEXXZ
	DD	FLAT:?OnMouseOver@CWindow@UI@@UAEXXZ
	DD	FLAT:?OnDrop@CWindow@UI@@UAEXXZ
	DD	FLAT:?OnTop@CWindow@UI@@UAEXXZ
	DD	FLAT:?OnIMEUpdate@CWindow@UI@@UAEXXZ
	DD	FLAT:?OnMoveWindow@CWindow@UI@@UAEXJJ@Z
	DD	FLAT:?OnIMETabEvent@CWindow@UI@@UAEHXZ
	DD	FLAT:?OnIMEReturnEvent@CWindow@UI@@UAEHXZ
	DD	FLAT:?OnIMEKeyDownEvent@CWindow@UI@@UAEHH@Z
	DD	FLAT:?OnIMEChangeCodePage@CWindow@UI@@UAEHXZ
	DD	FLAT:?OnIMEOpenCandidateListEvent@CWindow@UI@@UAEHXZ
	DD	FLAT:?OnIMECloseCandidateListEvent@CWindow@UI@@UAEHXZ
	DD	FLAT:?OnIMEOpenReadingWndEvent@CWindow@UI@@UAEHXZ
	DD	FLAT:?OnIMECloseReadingWndEvent@CWindow@UI@@UAEHXZ
	DD	FLAT:?OnMouseLeftButtonDown@CCoverButton@CSlotWindow@UI@@UAEHXZ
	DD	FLAT:?OnMouseLeftButtonUp@CCoverButton@CSlotWindow@UI@@UAEHXZ
	DD	FLAT:?OnMouseLeftButtonDoubleClick@CButton@UI@@MAEHXZ
	DD	FLAT:?OnMouseRightButtonDown@CCoverButton@CSlotWindow@UI@@UAEHXZ
	DD	FLAT:?OnMouseRightButtonUp@CCoverButton@CSlotWindow@UI@@UAEHXZ
	DD	FLAT:?OnMouseRightButtonDoubleClick@CWindow@UI@@UAEHXZ
	DD	FLAT:?OnMouseMiddleButtonDown@CWindow@UI@@UAEHXZ
	DD	FLAT:?OnMouseMiddleButtonUp@CWindow@UI@@UAEHXZ
	DD	FLAT:?OnMouseWheelScroll@CWindow@UI@@UAEHF@Z
	DD	FLAT:?SetScrollable@CWindow@UI@@UAEXXZ
	DD	FLAT:?OnKeyDown@CWindow@UI@@UAEHH@Z
	DD	FLAT:?OnKeyUp@CWindow@UI@@UAEHH@Z
	DD	FLAT:?OnPressEscapeKey@CWindow@UI@@UAEHXZ
	DD	FLAT:?OnPressExitKey@CWindow@UI@@UAEHXZ
	DD	FLAT:?SetColor@CWindow@UI@@UAEXK@Z
	DD	FLAT:?OnIsType@CWindow@UI@@UAEHK@Z
	DD	FLAT:?IsWindow@CWindow@UI@@UAEHXZ
CONST	ENDS
;	COMDAT ??_7CSlotButton@CSlotWindow@UI@@6B@
CONST	SEGMENT
??_7CSlotButton@CSlotWindow@UI@@6B@ DD FLAT:??_R4CSlotButton@CSlotWindow@UI@@6B@ ; UI::CSlotWindow::CSlotButton::`vftable'
	DD	FLAT:??_ECSlotButton@CSlotWindow@UI@@UAEPAXI@Z
	DD	FLAT:?OnRender@CButton@UI@@MAEXXZ
	DD	FLAT:?OnUpdate@CButton@UI@@MAEXXZ
	DD	FLAT:?OnChangePosition@CButton@UI@@MAEXXZ
	DD	FLAT:?OnSetFocus@CWindow@UI@@UAEXXZ
	DD	FLAT:?OnKillFocus@CWindow@UI@@UAEXXZ
	DD	FLAT:?OnMouseDrag@CWindow@UI@@UAEXJJ@Z
	DD	FLAT:?OnMouseOverIn@CSlotButton@CSlotWindow@UI@@UAEXXZ
	DD	FLAT:?OnMouseOverOut@CSlotButton@CSlotWindow@UI@@UAEXXZ
	DD	FLAT:?OnMouseOver@CWindow@UI@@UAEXXZ
	DD	FLAT:?OnDrop@CWindow@UI@@UAEXXZ
	DD	FLAT:?OnTop@CWindow@UI@@UAEXXZ
	DD	FLAT:?OnIMEUpdate@CWindow@UI@@UAEXXZ
	DD	FLAT:?OnMoveWindow@CWindow@UI@@UAEXJJ@Z
	DD	FLAT:?OnIMETabEvent@CWindow@UI@@UAEHXZ
	DD	FLAT:?OnIMEReturnEvent@CWindow@UI@@UAEHXZ
	DD	FLAT:?OnIMEKeyDownEvent@CWindow@UI@@UAEHH@Z
	DD	FLAT:?OnIMEChangeCodePage@CWindow@UI@@UAEHXZ
	DD	FLAT:?OnIMEOpenCandidateListEvent@CWindow@UI@@UAEHXZ
	DD	FLAT:?OnIMECloseCandidateListEvent@CWindow@UI@@UAEHXZ
	DD	FLAT:?OnIMEOpenReadingWndEvent@CWindow@UI@@UAEHXZ
	DD	FLAT:?OnIMECloseReadingWndEvent@CWindow@UI@@UAEHXZ
	DD	FLAT:?OnMouseLeftButtonDown@CSlotButton@CSlotWindow@UI@@UAEHXZ
	DD	FLAT:?OnMouseLeftButtonUp@CSlotButton@CSlotWindow@UI@@UAEHXZ
	DD	FLAT:?OnMouseLeftButtonDoubleClick@CButton@UI@@MAEHXZ
	DD	FLAT:?OnMouseRightButtonDown@CWindow@UI@@UAEHXZ
	DD	FLAT:?OnMouseRightButtonUp@CWindow@UI@@UAEHXZ
	DD	FLAT:?OnMouseRightButtonDoubleClick@CWindow@UI@@UAEHXZ
	DD	FLAT:?OnMouseMiddleButtonDown@CWindow@UI@@UAEHXZ
	DD	FLAT:?OnMouseMiddleButtonUp@CWindow@UI@@UAEHXZ
	DD	FLAT:?OnMouseWheelScroll@CWindow@UI@@UAEHF@Z
	DD	FLAT:?SetScrollable@CWindow@UI@@UAEXXZ
	DD	FLAT:?OnKeyDown@CWindow@UI@@UAEHH@Z
	DD	FLAT:?OnKeyUp@CWindow@UI@@UAEHH@Z
	DD	FLAT:?OnPressEscapeKey@CWindow@UI@@UAEHXZ
	DD	FLAT:?OnPressExitKey@CWindow@UI@@UAEHXZ
	DD	FLAT:?SetColor@CWindow@UI@@UAEXK@Z
	DD	FLAT:?OnIsType@CWindow@UI@@UAEHK@Z
	DD	FLAT:?IsWindow@CWindow@UI@@UAEHXZ
CONST	ENDS
;	COMDAT ??_7CSlotWindow@UI@@6B@
CONST	SEGMENT
??_7CSlotWindow@UI@@6B@ DD FLAT:??_R4CSlotWindow@UI@@6B@ ; UI::CSlotWindow::`vftable'
	DD	FLAT:??_ECSlotWindow@UI@@UAEPAXI@Z
	DD	FLAT:?OnRender@CSlotWindow@UI@@MAEXXZ
	DD	FLAT:?OnUpdate@CSlotWindow@UI@@MAEXXZ
	DD	FLAT:?OnChangePosition@CWindow@UI@@UAEXXZ
	DD	FLAT:?OnSetFocus@CWindow@UI@@UAEXXZ
	DD	FLAT:?OnKillFocus@CWindow@UI@@UAEXXZ
	DD	FLAT:?OnMouseDrag@CWindow@UI@@UAEXJJ@Z
	DD	FLAT:?OnMouseOverIn@CWindow@UI@@UAEXXZ
	DD	FLAT:?OnMouseOverOut@CSlotWindow@UI@@MAEXXZ
	DD	FLAT:?OnMouseOver@CSlotWindow@UI@@MAEXXZ
	DD	FLAT:?OnDrop@CWindow@UI@@UAEXXZ
	DD	FLAT:?OnTop@CWindow@UI@@UAEXXZ
	DD	FLAT:?OnIMEUpdate@CWindow@UI@@UAEXXZ
	DD	FLAT:?OnMoveWindow@CWindow@UI@@UAEXJJ@Z
	DD	FLAT:?OnIMETabEvent@CWindow@UI@@UAEHXZ
	DD	FLAT:?OnIMEReturnEvent@CWindow@UI@@UAEHXZ
	DD	FLAT:?OnIMEKeyDownEvent@CWindow@UI@@UAEHH@Z
	DD	FLAT:?OnIMEChangeCodePage@CWindow@UI@@UAEHXZ
	DD	FLAT:?OnIMEOpenCandidateListEvent@CWindow@UI@@UAEHXZ
	DD	FLAT:?OnIMECloseCandidateListEvent@CWindow@UI@@UAEHXZ
	DD	FLAT:?OnIMEOpenReadingWndEvent@CWindow@UI@@UAEHXZ
	DD	FLAT:?OnIMECloseReadingWndEvent@CWindow@UI@@UAEHXZ
	DD	FLAT:?OnMouseLeftButtonDown@CSlotWindow@UI@@MAEHXZ
	DD	FLAT:?OnMouseLeftButtonUp@CSlotWindow@UI@@MAEHXZ
	DD	FLAT:?OnMouseLeftButtonDoubleClick@CSlotWindow@UI@@MAEHXZ
	DD	FLAT:?OnMouseRightButtonDown@CSlotWindow@UI@@MAEHXZ
	DD	FLAT:?OnMouseRightButtonUp@CWindow@UI@@UAEHXZ
	DD	FLAT:?OnMouseRightButtonDoubleClick@CWindow@UI@@UAEHXZ
	DD	FLAT:?OnMouseMiddleButtonDown@CWindow@UI@@UAEHXZ
	DD	FLAT:?OnMouseMiddleButtonUp@CWindow@UI@@UAEHXZ
	DD	FLAT:?OnMouseWheelScroll@CWindow@UI@@UAEHF@Z
	DD	FLAT:?SetScrollable@CWindow@UI@@UAEXXZ
	DD	FLAT:?OnKeyDown@CWindow@UI@@UAEHH@Z
	DD	FLAT:?OnKeyUp@CWindow@UI@@UAEHH@Z
	DD	FLAT:?OnPressEscapeKey@CWindow@UI@@UAEHXZ
	DD	FLAT:?OnPressExitKey@CWindow@UI@@UAEHXZ
	DD	FLAT:?SetColor@CWindow@UI@@UAEXK@Z
	DD	FLAT:?OnIsType@CSlotWindow@UI@@MAEHK@Z
	DD	FLAT:?IsWindow@CWindow@UI@@UAEHXZ
	DD	FLAT:?OnRenderPickingSlot@CSlotWindow@UI@@MAEXXZ
	DD	FLAT:?OnRenderSelectedSlot@CSlotWindow@UI@@MAEXXZ
	DD	FLAT:?GetPickedSlotPointer@CSlotWindow@UI@@MAEHPAPAUSSlot@12@@Z
	DD	FLAT:?OnRefreshSlot@CSlotWindow@UI@@MAEXXZ
CONST	ENDS
;	COMDAT ??_R1A@?0A@EA@bad_array_new_length@std@@8
rdata$r	SEGMENT
??_R1A@?0A@EA@bad_array_new_length@std@@8 DD FLAT:??_R0?AVbad_array_new_length@std@@@8 ; std::bad_array_new_length::`RTTI Base Class Descriptor at (0,-1,0,64)'
	DD	02H
	DD	00H
	DD	0ffffffffH
	DD	00H
	DD	040H
	DD	FLAT:??_R3bad_array_new_length@std@@8
rdata$r	ENDS
;	COMDAT ??_R2bad_array_new_length@std@@8
rdata$r	SEGMENT
??_R2bad_array_new_length@std@@8 DD FLAT:??_R1A@?0A@EA@bad_array_new_length@std@@8 ; std::bad_array_new_length::`RTTI Base Class Array'
	DD	FLAT:??_R1A@?0A@EA@bad_alloc@std@@8
	DD	FLAT:??_R1A@?0A@EA@exception@std@@8
rdata$r	ENDS
;	COMDAT ??_R3bad_array_new_length@std@@8
rdata$r	SEGMENT
??_R3bad_array_new_length@std@@8 DD 00H			; std::bad_array_new_length::`RTTI Class Hierarchy Descriptor'
	DD	00H
	DD	03H
	DD	FLAT:??_R2bad_array_new_length@std@@8
rdata$r	ENDS
;	COMDAT ??_R4bad_array_new_length@std@@6B@
rdata$r	SEGMENT
??_R4bad_array_new_length@std@@6B@ DD 00H		; std::bad_array_new_length::`RTTI Complete Object Locator'
	DD	00H
	DD	00H
	DD	FLAT:??_R0?AVbad_array_new_length@std@@@8
	DD	FLAT:??_R3bad_array_new_length@std@@8
rdata$r	ENDS
;	COMDAT ??_R1A@?0A@EA@bad_alloc@std@@8
rdata$r	SEGMENT
??_R1A@?0A@EA@bad_alloc@std@@8 DD FLAT:??_R0?AVbad_alloc@std@@@8 ; std::bad_alloc::`RTTI Base Class Descriptor at (0,-1,0,64)'
	DD	01H
	DD	00H
	DD	0ffffffffH
	DD	00H
	DD	040H
	DD	FLAT:??_R3bad_alloc@std@@8
rdata$r	ENDS
;	COMDAT ??_R2bad_alloc@std@@8
rdata$r	SEGMENT
??_R2bad_alloc@std@@8 DD FLAT:??_R1A@?0A@EA@bad_alloc@std@@8 ; std::bad_alloc::`RTTI Base Class Array'
	DD	FLAT:??_R1A@?0A@EA@exception@std@@8
rdata$r	ENDS
;	COMDAT ??_R3bad_alloc@std@@8
rdata$r	SEGMENT
??_R3bad_alloc@std@@8 DD 00H				; std::bad_alloc::`RTTI Class Hierarchy Descriptor'
	DD	00H
	DD	02H
	DD	FLAT:??_R2bad_alloc@std@@8
rdata$r	ENDS
;	COMDAT ??_R4bad_alloc@std@@6B@
rdata$r	SEGMENT
??_R4bad_alloc@std@@6B@ DD 00H				; std::bad_alloc::`RTTI Complete Object Locator'
	DD	00H
	DD	00H
	DD	FLAT:??_R0?AVbad_alloc@std@@@8
	DD	FLAT:??_R3bad_alloc@std@@8
rdata$r	ENDS
;	COMDAT ??_R1A@?0A@EA@exception@std@@8
rdata$r	SEGMENT
??_R1A@?0A@EA@exception@std@@8 DD FLAT:??_R0?AVexception@std@@@8 ; std::exception::`RTTI Base Class Descriptor at (0,-1,0,64)'
	DD	00H
	DD	00H
	DD	0ffffffffH
	DD	00H
	DD	040H
	DD	FLAT:??_R3exception@std@@8
rdata$r	ENDS
;	COMDAT ??_R2exception@std@@8
rdata$r	SEGMENT
??_R2exception@std@@8 DD FLAT:??_R1A@?0A@EA@exception@std@@8 ; std::exception::`RTTI Base Class Array'
rdata$r	ENDS
;	COMDAT ??_R3exception@std@@8
rdata$r	SEGMENT
??_R3exception@std@@8 DD 00H				; std::exception::`RTTI Class Hierarchy Descriptor'
	DD	00H
	DD	01H
	DD	FLAT:??_R2exception@std@@8
rdata$r	ENDS
;	COMDAT ??_R4exception@std@@6B@
rdata$r	SEGMENT
??_R4exception@std@@6B@ DD 00H				; std::exception::`RTTI Complete Object Locator'
	DD	00H
	DD	00H
	DD	FLAT:??_R0?AVexception@std@@@8
	DD	FLAT:??_R3exception@std@@8
rdata$r	ENDS
;	COMDAT __CT??_R0?AVexception@std@@@8??0exception@std@@QAE@ABV01@@Z12
xdata$x	SEGMENT
__CT??_R0?AVexception@std@@@8??0exception@std@@QAE@ABV01@@Z12 DD 00H
	DD	FLAT:??_R0?AVexception@std@@@8
	DD	00H
	DD	0ffffffffH
	ORG $+4
	DD	0cH
	DD	FLAT:??0exception@std@@QAE@ABV01@@Z
xdata$x	ENDS
;	COMDAT ??_R0?AVexception@std@@@8
data$r	SEGMENT
??_R0?AVexception@std@@@8 DD FLAT:??_7type_info@@6B@	; std::exception `RTTI Type Descriptor'
	DD	00H
	DB	'.?AVexception@std@@', 00H
data$r	ENDS
;	COMDAT __CT??_R0?AVbad_alloc@std@@@8??0bad_alloc@std@@QAE@ABV01@@Z12
xdata$x	SEGMENT
__CT??_R0?AVbad_alloc@std@@@8??0bad_alloc@std@@QAE@ABV01@@Z12 DD 010H
	DD	FLAT:??_R0?AVbad_alloc@std@@@8
	DD	00H
	DD	0ffffffffH
	ORG $+4
	DD	0cH
	DD	FLAT:??0bad_alloc@std@@QAE@ABV01@@Z
xdata$x	ENDS
;	COMDAT ??_R0?AVbad_alloc@std@@@8
data$r	SEGMENT
??_R0?AVbad_alloc@std@@@8 DD FLAT:??_7type_info@@6B@	; std::bad_alloc `RTTI Type Descriptor'
	DD	00H
	DB	'.?AVbad_alloc@std@@', 00H
data$r	ENDS
;	COMDAT __CT??_R0?AVbad_array_new_length@std@@@8??0bad_array_new_length@std@@QAE@ABV01@@Z12
xdata$x	SEGMENT
__CT??_R0?AVbad_array_new_length@std@@@8??0bad_array_new_length@std@@QAE@ABV01@@Z12 DD 00H
	DD	FLAT:??_R0?AVbad_array_new_length@std@@@8
	DD	00H
	DD	0ffffffffH
	ORG $+4
	DD	0cH
	DD	FLAT:??0bad_array_new_length@std@@QAE@ABV01@@Z
xdata$x	ENDS
;	COMDAT ??_R0?AVbad_array_new_length@std@@@8
data$r	SEGMENT
??_R0?AVbad_array_new_length@std@@@8 DD FLAT:??_7type_info@@6B@ ; std::bad_array_new_length `RTTI Type Descriptor'
	DD	00H
	DB	'.?AVbad_array_new_length@std@@', 00H
data$r	ENDS
;	COMDAT __CTA3?AVbad_array_new_length@std@@
xdata$x	SEGMENT
__CTA3?AVbad_array_new_length@std@@ DD 03H
	DD	FLAT:__CT??_R0?AVbad_array_new_length@std@@@8??0bad_array_new_length@std@@QAE@ABV01@@Z12
	DD	FLAT:__CT??_R0?AVbad_alloc@std@@@8??0bad_alloc@std@@QAE@ABV01@@Z12
	DD	FLAT:__CT??_R0?AVexception@std@@@8??0exception@std@@QAE@ABV01@@Z12
xdata$x	ENDS
;	COMDAT __TI3?AVbad_array_new_length@std@@
xdata$x	SEGMENT
__TI3?AVbad_array_new_length@std@@ DD 00H
	DD	FLAT:??1bad_array_new_length@std@@UAE@XZ
	DD	00H
	DD	FLAT:__CTA3?AVbad_array_new_length@std@@
xdata$x	ENDS
;	COMDAT ??_C@_0BF@KINCDENJ@bad?5array?5new?5length@
CONST	SEGMENT
??_C@_0BF@KINCDENJ@bad?5array?5new?5length@ DB 'bad array new length', 00H ; `string'
CONST	ENDS
;	COMDAT ??_7bad_array_new_length@std@@6B@
CONST	SEGMENT
??_7bad_array_new_length@std@@6B@ DD FLAT:??_R4bad_array_new_length@std@@6B@ ; std::bad_array_new_length::`vftable'
	DD	FLAT:??_Ebad_array_new_length@std@@UAEPAXI@Z
	DD	FLAT:?what@exception@std@@UBEPBDXZ
CONST	ENDS
;	COMDAT ??_7bad_alloc@std@@6B@
CONST	SEGMENT
??_7bad_alloc@std@@6B@ DD FLAT:??_R4bad_alloc@std@@6B@	; std::bad_alloc::`vftable'
	DD	FLAT:??_Ebad_alloc@std@@UAEPAXI@Z
	DD	FLAT:?what@exception@std@@UBEPBDXZ
CONST	ENDS
;	COMDAT ??_C@_0BC@EOODALEL@Unknown?5exception@
CONST	SEGMENT
??_C@_0BC@EOODALEL@Unknown?5exception@ DB 'Unknown exception', 00H ; `string'
CONST	ENDS
;	COMDAT ??_7exception@std@@6B@
CONST	SEGMENT
??_7exception@std@@6B@ DD FLAT:??_R4exception@std@@6B@	; std::exception::`vftable'
	DD	FLAT:??_Eexception@std@@UAEPAXI@Z
	DD	FLAT:?what@exception@std@@UBEPBDXZ
CONST	ENDS
;	COMDAT xdata$x
xdata$x	SEGMENT
__unwindtable$??$?0ABUSSlot@CSlotWindow@UI@@@?$_List_node_emplace_op2@V?$allocator@U?$_List_node@USSlot@CSlotWindow@UI@@PAX@std@@@std@@@std@@QAE@AAV?$allocator@U?$_List_node@USSlot@CSlotWindow@UI@@PAX@std@@@1@ABUSSlot@CSlotWindow@UI@@@Z DD 0ffffffffH
	DD	FLAT:__unwindfunclet$??$?0ABUSSlot@CSlotWindow@UI@@@?$_List_node_emplace_op2@V?$allocator@U?$_List_node@USSlot@CSlotWindow@UI@@PAX@std@@@std@@@std@@QAE@AAV?$allocator@U?$_List_node@USSlot@CSlotWindow@UI@@PAX@std@@@1@ABUSSlot@CSlotWindow@UI@@@Z$0
__ehfuncinfo$??$?0ABUSSlot@CSlotWindow@UI@@@?$_List_node_emplace_op2@V?$allocator@U?$_List_node@USSlot@CSlotWindow@UI@@PAX@std@@@std@@@std@@QAE@AAV?$allocator@U?$_List_node@USSlot@CSlotWindow@UI@@PAX@std@@@1@ABUSSlot@CSlotWindow@UI@@@Z DD 019930522H
	DD	01H
	DD	FLAT:__unwindtable$??$?0ABUSSlot@CSlotWindow@UI@@@?$_List_node_emplace_op2@V?$allocator@U?$_List_node@USSlot@CSlotWindow@UI@@PAX@std@@@std@@@std@@QAE@AAV?$allocator@U?$_List_node@USSlot@CSlotWindow@UI@@PAX@std@@@1@ABUSSlot@CSlotWindow@UI@@@Z
	DD	2 DUP(00H)
	DD	2 DUP(00H)
	DD	00H
	DD	01H
xdata$x	ENDS
;	COMDAT xdata$x
xdata$x	SEGMENT
__unwindtable$??$?0ABK@?$_List_node_emplace_op2@V?$allocator@U?$_List_node@KPAX@std@@@std@@@std@@QAE@AAV?$allocator@U?$_List_node@KPAX@std@@@1@ABK@Z DD 0ffffffffH
	DD	FLAT:__unwindfunclet$??$?0ABK@?$_List_node_emplace_op2@V?$allocator@U?$_List_node@KPAX@std@@@std@@@std@@QAE@AAV?$allocator@U?$_List_node@KPAX@std@@@1@ABK@Z$0
__ehfuncinfo$??$?0ABK@?$_List_node_emplace_op2@V?$allocator@U?$_List_node@KPAX@std@@@std@@@std@@QAE@AAV?$allocator@U?$_List_node@KPAX@std@@@1@ABK@Z DD 019930522H
	DD	01H
	DD	FLAT:__unwindtable$??$?0ABK@?$_List_node_emplace_op2@V?$allocator@U?$_List_node@KPAX@std@@@std@@@std@@QAE@AAV?$allocator@U?$_List_node@KPAX@std@@@1@ABK@Z
	DD	2 DUP(00H)
	DD	2 DUP(00H)
	DD	00H
	DD	01H
xdata$x	ENDS
;	COMDAT xdata$x
xdata$x	SEGMENT
__unwindtable$??$_Emplace@ABUSSlot@CSlotWindow@UI@@@?$list@USSlot@CSlotWindow@UI@@V?$allocator@USSlot@CSlotWindow@UI@@@std@@@std@@QAEPAU?$_List_node@USSlot@CSlotWindow@UI@@PAX@1@QAU21@ABUSSlot@CSlotWindow@UI@@@Z DD 0ffffffffH
	DD	FLAT:__unwindfunclet$??$_Emplace@ABUSSlot@CSlotWindow@UI@@@?$list@USSlot@CSlotWindow@UI@@V?$allocator@USSlot@CSlotWindow@UI@@@std@@@std@@QAEPAU?$_List_node@USSlot@CSlotWindow@UI@@PAX@1@QAU21@ABUSSlot@CSlotWindow@UI@@@Z$1
__ehfuncinfo$??$_Emplace@ABUSSlot@CSlotWindow@UI@@@?$list@USSlot@CSlotWindow@UI@@V?$allocator@USSlot@CSlotWindow@UI@@@std@@@std@@QAEPAU?$_List_node@USSlot@CSlotWindow@UI@@PAX@1@QAU21@ABUSSlot@CSlotWindow@UI@@@Z DD 019930522H
	DD	01H
	DD	FLAT:__unwindtable$??$_Emplace@ABUSSlot@CSlotWindow@UI@@@?$list@USSlot@CSlotWindow@UI@@V?$allocator@USSlot@CSlotWindow@UI@@@std@@@std@@QAEPAU?$_List_node@USSlot@CSlotWindow@UI@@PAX@1@QAU21@ABUSSlot@CSlotWindow@UI@@@Z
	DD	2 DUP(00H)
	DD	2 DUP(00H)
	DD	00H
	DD	01H
xdata$x	ENDS
;	COMDAT xdata$x
xdata$x	SEGMENT
__unwindtable$??$_Emplace@ABK@?$list@KV?$allocator@K@std@@@std@@QAEPAU?$_List_node@KPAX@1@QAU21@ABK@Z DD 0ffffffffH
	DD	FLAT:__unwindfunclet$??$_Emplace@ABK@?$list@KV?$allocator@K@std@@@std@@QAEPAU?$_List_node@KPAX@1@QAU21@ABK@Z$1
__ehfuncinfo$??$_Emplace@ABK@?$list@KV?$allocator@K@std@@@std@@QAEPAU?$_List_node@KPAX@1@QAU21@ABK@Z DD 019930522H
	DD	01H
	DD	FLAT:__unwindtable$??$_Emplace@ABK@?$list@KV?$allocator@K@std@@@std@@QAEPAU?$_List_node@KPAX@1@QAU21@ABK@Z
	DD	2 DUP(00H)
	DD	2 DUP(00H)
	DD	00H
	DD	01H
xdata$x	ENDS
;	COMDAT xdata$x
xdata$x	SEGMENT
__unwindtable$?push_back@?$list@KV?$allocator@K@std@@@std@@QAEXABK@Z DD 0ffffffffH
	DD	FLAT:__unwindfunclet$?push_back@?$list@KV?$allocator@K@std@@@std@@QAEXABK@Z$1
__ehfuncinfo$?push_back@?$list@KV?$allocator@K@std@@@std@@QAEXABK@Z DD 019930522H
	DD	01H
	DD	FLAT:__unwindtable$?push_back@?$list@KV?$allocator@K@std@@@std@@QAEXABK@Z
	DD	2 DUP(00H)
	DD	2 DUP(00H)
	DD	00H
	DD	01H
xdata$x	ENDS
;	COMDAT xdata$x
xdata$x	SEGMENT
__unwindtable$?__CreateFinishCoolTimeEffect@CSlotWindow@UI@@IAEXPAUSSlot@12@@Z DD 0ffffffffH
	DD	FLAT:__unwindfunclet$?__CreateFinishCoolTimeEffect@CSlotWindow@UI@@IAEXPAUSSlot@12@@Z$0
__ehfuncinfo$?__CreateFinishCoolTimeEffect@CSlotWindow@UI@@IAEXPAUSSlot@12@@Z DD 019930522H
	DD	01H
	DD	FLAT:__unwindtable$?__CreateFinishCoolTimeEffect@CSlotWindow@UI@@IAEXPAUSSlot@12@@Z
	DD	2 DUP(00H)
	DD	2 DUP(00H)
	DD	00H
	DD	01H
xdata$x	ENDS
;	COMDAT xdata$x
xdata$x	SEGMENT
__unwindtable$?__CreateSlotEnableEffect@CSlotWindow@UI@@IAEXXZ DD 0ffffffffH
	DD	FLAT:__unwindfunclet$?__CreateSlotEnableEffect@CSlotWindow@UI@@IAEXXZ$0
	DD	0ffffffffH
	DD	FLAT:__unwindfunclet$?__CreateSlotEnableEffect@CSlotWindow@UI@@IAEXXZ$1
	DD	0ffffffffH
	DD	FLAT:__unwindfunclet$?__CreateSlotEnableEffect@CSlotWindow@UI@@IAEXXZ$2
__ehfuncinfo$?__CreateSlotEnableEffect@CSlotWindow@UI@@IAEXXZ DD 019930522H
	DD	03H
	DD	FLAT:__unwindtable$?__CreateSlotEnableEffect@CSlotWindow@UI@@IAEXXZ
	DD	2 DUP(00H)
	DD	2 DUP(00H)
	DD	00H
	DD	01H
xdata$x	ENDS
;	COMDAT xdata$x
xdata$x	SEGMENT
__unwindtable$?__CreateToggleSlotImage@CSlotWindow@UI@@IAEXXZ DD 0ffffffffH
	DD	FLAT:__unwindfunclet$?__CreateToggleSlotImage@CSlotWindow@UI@@IAEXXZ$0
__ehfuncinfo$?__CreateToggleSlotImage@CSlotWindow@UI@@IAEXXZ DD 019930522H
	DD	01H
	DD	FLAT:__unwindtable$?__CreateToggleSlotImage@CSlotWindow@UI@@IAEXXZ
	DD	2 DUP(00H)
	DD	2 DUP(00H)
	DD	00H
	DD	01H
xdata$x	ENDS
;	COMDAT xdata$x
xdata$x	SEGMENT
__unwindtable$?ActivateEffect@CSlotWindow@UI@@QAEXKMMMM@Z DD 0ffffffffH
	DD	FLAT:__unwindfunclet$?ActivateEffect@CSlotWindow@UI@@QAEXKMMMM@Z$0
__ehfuncinfo$?ActivateEffect@CSlotWindow@UI@@QAEXKMMMM@Z DD 019930522H
	DD	01H
	DD	FLAT:__unwindtable$?ActivateEffect@CSlotWindow@UI@@QAEXKMMMM@Z
	DD	2 DUP(00H)
	DD	2 DUP(00H)
	DD	00H
	DD	01H
xdata$x	ENDS
;	COMDAT xdata$x
xdata$x	SEGMENT
__unwindtable$?SelectSlot@CSlotWindow@UI@@QAEXK@Z DD 0ffffffffH
	DD	FLAT:__unwindfunclet$?SelectSlot@CSlotWindow@UI@@QAEXK@Z$1
__ehfuncinfo$?SelectSlot@CSlotWindow@UI@@QAEXK@Z DD 019930522H
	DD	01H
	DD	FLAT:__unwindtable$?SelectSlot@CSlotWindow@UI@@QAEXK@Z
	DD	2 DUP(00H)
	DD	2 DUP(00H)
	DD	00H
	DD	01H
xdata$x	ENDS
;	COMDAT xdata$x
xdata$x	SEGMENT
__unwindtable$?SetSlotCountNew@CSlotWindow@UI@@QAEXKKK@Z DD 0ffffffffH
	DD	FLAT:__unwindfunclet$?SetSlotCountNew@CSlotWindow@UI@@QAEXKKK@Z$0
__ehfuncinfo$?SetSlotCountNew@CSlotWindow@UI@@QAEXKKK@Z DD 019930522H
	DD	01H
	DD	FLAT:__unwindtable$?SetSlotCountNew@CSlotWindow@UI@@QAEXKKK@Z
	DD	2 DUP(00H)
	DD	2 DUP(00H)
	DD	00H
	DD	01H
xdata$x	ENDS
;	COMDAT xdata$x
xdata$x	SEGMENT
__unwindtable$?SetSlotCount@CSlotWindow@UI@@QAEXKK@Z DD 0ffffffffH
	DD	FLAT:__unwindfunclet$?SetSlotCount@CSlotWindow@UI@@QAEXKK@Z$0
__ehfuncinfo$?SetSlotCount@CSlotWindow@UI@@QAEXKK@Z DD 019930522H
	DD	01H
	DD	FLAT:__unwindtable$?SetSlotCount@CSlotWindow@UI@@QAEXKK@Z
	DD	2 DUP(00H)
	DD	2 DUP(00H)
	DD	00H
	DD	01H
xdata$x	ENDS
;	COMDAT xdata$x
xdata$x	SEGMENT
__unwindtable$?AppendRequirementSignImage@CSlotWindow@UI@@QAEXPBD@Z DD 0ffffffffH
	DD	FLAT:__unwindfunclet$?AppendRequirementSignImage@CSlotWindow@UI@@QAEXPBD@Z$0
__ehfuncinfo$?AppendRequirementSignImage@CSlotWindow@UI@@QAEXPBD@Z DD 019930522H
	DD	01H
	DD	FLAT:__unwindtable$?AppendRequirementSignImage@CSlotWindow@UI@@QAEXPBD@Z
	DD	2 DUP(00H)
	DD	2 DUP(00H)
	DD	00H
	DD	01H
xdata$x	ENDS
;	COMDAT xdata$x
xdata$x	SEGMENT
__unwindtable$?AppendSlotButton@CSlotWindow@UI@@QAEXPBD00@Z DD 0ffffffffH
	DD	FLAT:__unwindfunclet$?AppendSlotButton@CSlotWindow@UI@@QAEXPBD00@Z$0
__ehfuncinfo$?AppendSlotButton@CSlotWindow@UI@@QAEXPBD00@Z DD 019930522H
	DD	01H
	DD	FLAT:__unwindtable$?AppendSlotButton@CSlotWindow@UI@@QAEXPBD00@Z
	DD	2 DUP(00H)
	DD	2 DUP(00H)
	DD	00H
	DD	01H
xdata$x	ENDS
;	COMDAT xdata$x
xdata$x	SEGMENT
__unwindtable$?SetCoverButton@CSlotWindow@UI@@QAEXKPBD000HH@Z DD 0ffffffffH
	DD	FLAT:__unwindfunclet$?SetCoverButton@CSlotWindow@UI@@QAEXKPBD000HH@Z$0
__ehfuncinfo$?SetCoverButton@CSlotWindow@UI@@QAEXKPBD000HH@Z DD 019930522H
	DD	01H
	DD	FLAT:__unwindtable$?SetCoverButton@CSlotWindow@UI@@QAEXKPBD000HH@Z
	DD	2 DUP(00H)
	DD	2 DUP(00H)
	DD	00H
	DD	01H
xdata$x	ENDS
;	COMDAT xdata$x
xdata$x	SEGMENT
__unwindtable$?AppendSlot@CSlotWindow@UI@@QAEXKHHHH@Z DD 0ffffffffH
	DD	FLAT:__unwindfunclet$?AppendSlot@CSlotWindow@UI@@QAEXKHHHH@Z$1
__ehfuncinfo$?AppendSlot@CSlotWindow@UI@@QAEXKHHHH@Z DD 019930522H
	DD	01H
	DD	FLAT:__unwindtable$?AppendSlot@CSlotWindow@UI@@QAEXKHHHH@Z
	DD	2 DUP(00H)
	DD	2 DUP(00H)
	DD	00H
	DD	01H
xdata$x	ENDS
;	COMDAT xdata$x
xdata$x	SEGMENT
__ehfuncinfo$??1CSlotWindow@UI@@UAE@XZ DD 019930522H
	DD	00H
	DD	00H
	DD	2 DUP(00H)
	DD	2 DUP(00H)
	DD	00H
	DD	05H
xdata$x	ENDS
;	COMDAT xdata$x
xdata$x	SEGMENT
__unwindtable$??0CSlotWindow@UI@@QAE@PAU_object@@@Z DD 0ffffffffH
	DD	FLAT:__unwindfunclet$??0CSlotWindow@UI@@QAE@PAU_object@@@Z$0
	DD	00H
	DD	FLAT:__unwindfunclet$??0CSlotWindow@UI@@QAE@PAU_object@@@Z$1
	DD	01H
	DD	FLAT:__unwindfunclet$??0CSlotWindow@UI@@QAE@PAU_object@@@Z$2
__ehfuncinfo$??0CSlotWindow@UI@@QAE@PAU_object@@@Z DD 019930522H
	DD	03H
	DD	FLAT:__unwindtable$??0CSlotWindow@UI@@QAE@PAU_object@@@Z
	DD	2 DUP(00H)
	DD	2 DUP(00H)
	DD	00H
	DD	01H
xdata$x	ENDS
;	COMDAT xdata$x
xdata$x	SEGMENT
__unwindtable$?push_back@?$list@USSlot@CSlotWindow@UI@@V?$allocator@USSlot@CSlotWindow@UI@@@std@@@std@@QAEXABUSSlot@CSlotWindow@UI@@@Z DD 0ffffffffH
	DD	FLAT:__unwindfunclet$?push_back@?$list@USSlot@CSlotWindow@UI@@V?$allocator@USSlot@CSlotWindow@UI@@@std@@@std@@QAEXABUSSlot@CSlotWindow@UI@@@Z$1
__ehfuncinfo$?push_back@?$list@USSlot@CSlotWindow@UI@@V?$allocator@USSlot@CSlotWindow@UI@@@std@@@std@@QAEXABUSSlot@CSlotWindow@UI@@@Z DD 019930522H
	DD	01H
	DD	FLAT:__unwindtable$?push_back@?$list@USSlot@CSlotWindow@UI@@V?$allocator@USSlot@CSlotWindow@UI@@@std@@@std@@QAEXABUSSlot@CSlotWindow@UI@@@Z
	DD	2 DUP(00H)
	DD	2 DUP(00H)
	DD	00H
	DD	01H
xdata$x	ENDS
;	COMDAT xdata$x
xdata$x	SEGMENT
__unwindtable$?Type@CSlotWindow@UI@@SAKXZ DD 0ffffffffH
	DD	FLAT:__unwindfunclet$?Type@CSlotWindow@UI@@SAKXZ$0
__ehfuncinfo$?Type@CSlotWindow@UI@@SAKXZ DD 019930522H
	DD	01H
	DD	FLAT:__unwindtable$?Type@CSlotWindow@UI@@SAKXZ
	DD	2 DUP(00H)
	DD	2 DUP(00H)
	DD	00H
	DD	01H
xdata$x	ENDS
; Function compile flags: /Ogtp
; File C:\Program Files (x86)\Microsoft Visual Studio\2019\Community\VC\Tools\MSVC\14.27.29110\include\xmemory
;	COMDAT ??$_Zero_range@PAPAK@std@@YAPAPAKQAPAK0@Z
_TEXT	SEGMENT
__First$ = 8						; size = 4
__Last$ = 12						; size = 4
??$_Zero_range@PAPAK@std@@YAPAPAKQAPAK0@Z PROC		; std::_Zero_range<unsigned long * *>, COMDAT

; 1814 : _Ptr _Zero_range(const _Ptr _First, const _Ptr _Last) { // fill [_First, _Last) with zeroes

  00000	55		 push	 ebp
  00001	8b ec		 mov	 ebp, esp

; 1815 :     char* const _First_ch = reinterpret_cast<char*>(_First);
; 1816 :     char* const _Last_ch  = reinterpret_cast<char*>(_Last);
; 1817 :     _CSTD memset(_First_ch, 0, static_cast<size_t>(_Last_ch - _First_ch));

  00003	8b 55 08	 mov	 edx, DWORD PTR __First$[ebp]
  00006	8b 4d 0c	 mov	 ecx, DWORD PTR __Last$[ebp]
  00009	2b ca		 sub	 ecx, edx
  0000b	51		 push	 ecx
  0000c	6a 00		 push	 0
  0000e	52		 push	 edx
  0000f	e8 00 00 00 00	 call	 _memset

; 1818 :     return _Last;

  00014	8b 45 0c	 mov	 eax, DWORD PTR __Last$[ebp]
  00017	83 c4 0c	 add	 esp, 12			; 0000000cH

; 1819 : }

  0001a	5d		 pop	 ebp
  0001b	c3		 ret	 0
??$_Zero_range@PAPAK@std@@YAPAPAKQAPAK0@Z ENDP		; std::_Zero_range<unsigned long * *>
_TEXT	ENDS
; Function compile flags: /Ogtp
; File C:\Program Files (x86)\Microsoft Visual Studio\2019\Community\VC\Tools\MSVC\14.27.29110\include\xutility
;	COMDAT ??$_Copy_memmove@PAPAKPAPAK@std@@YAPAPAKPAPAK00@Z
_TEXT	SEGMENT
__First$ = 8						; size = 4
__Last$ = 12						; size = 4
__Dest$ = 16						; size = 4
??$_Copy_memmove@PAPAKPAPAK@std@@YAPAPAKPAPAK00@Z PROC	; std::_Copy_memmove<unsigned long * *,unsigned long * *>, COMDAT

; 4113 : _OutIt _Copy_memmove(_InIt _First, _InIt _Last, _OutIt _Dest) {

  00000	55		 push	 ebp
  00001	8b ec		 mov	 ebp, esp

; 4114 :     const char* const _First_ch = const_cast<const char*>(reinterpret_cast<const volatile char*>(_First));
; 4115 :     const char* const _Last_ch  = const_cast<const char*>(reinterpret_cast<const volatile char*>(_Last));
; 4116 :     char* const _Dest_ch        = const_cast<char*>(reinterpret_cast<volatile char*>(_Dest));
; 4117 :     const auto _Count           = static_cast<size_t>(_Last_ch - _First_ch);

  00003	8b 45 08	 mov	 eax, DWORD PTR __First$[ebp]
  00006	56		 push	 esi

; 4118 :     _CSTD memmove(_Dest_ch, _First_ch, _Count);

  00007	8b 75 10	 mov	 esi, DWORD PTR __Dest$[ebp]
  0000a	57		 push	 edi
  0000b	8b 7d 0c	 mov	 edi, DWORD PTR __Last$[ebp]
  0000e	2b f8		 sub	 edi, eax
  00010	57		 push	 edi
  00011	50		 push	 eax
  00012	56		 push	 esi
  00013	e8 00 00 00 00	 call	 _memmove
  00018	83 c4 0c	 add	 esp, 12			; 0000000cH

; 4119 :     return reinterpret_cast<_OutIt>(_Dest_ch + _Count);

  0001b	8d 04 37	 lea	 eax, DWORD PTR [edi+esi]
  0001e	5f		 pop	 edi
  0001f	5e		 pop	 esi

; 4120 : }

  00020	5d		 pop	 ebp
  00021	c3		 ret	 0
??$_Copy_memmove@PAPAKPAPAK@std@@YAPAPAKPAPAK00@Z ENDP	; std::_Copy_memmove<unsigned long * *,unsigned long * *>
_TEXT	ENDS
; Function compile flags: /Ogtp
; File C:\Program Files (x86)\Microsoft Visual Studio\2019\Community\VC\Tools\MSVC\14.27.29110\include\xmemory
;	COMDAT ??$_Destroy_range@PAPAK@std@@YAXPAPAKQAPAK@Z
_TEXT	SEGMENT
__First$ = 8						; size = 4
__Last$ = 12						; size = 4
??$_Destroy_range@PAPAK@std@@YAXPAPAKQAPAK@Z PROC	; std::_Destroy_range<unsigned long * *>, COMDAT

; 969  :     // note that this is an optimization for debug mode codegen; in release mode the BE removes all of this
; 970  :     if _CONSTEXPR_IF (!is_trivially_destructible_v<_Iter_value_t<_NoThrowFwdIt>>) {
; 971  :         for (; _First != _Last; ++_First) {
; 972  :             _Destroy_in_place(*_First);
; 973  :         }
; 974  :     }
; 975  : }

  00000	c2 00 00	 ret	 0
??$_Destroy_range@PAPAK@std@@YAXPAPAKQAPAK@Z ENDP	; std::_Destroy_range<unsigned long * *>
_TEXT	ENDS
; Function compile flags: /Ogtp
; File C:\Program Files (x86)\Microsoft Visual Studio\2019\Community\VC\Tools\MSVC\14.27.29110\include\xmemory
;	COMDAT ??$_Uninitialized_value_construct_n_unchecked1@PAPAKI@std@@YAPAPAKPAPAKI@Z
_TEXT	SEGMENT
__UFirst$ = 8						; size = 4
__Count$ = 12						; size = 4
??$_Uninitialized_value_construct_n_unchecked1@PAPAKI@std@@YAPAPAKPAPAKI@Z PROC ; std::_Uninitialized_value_construct_n_unchecked1<unsigned long * *,unsigned int>, COMDAT

; 1874 : _NoThrowFwdIt _Uninitialized_value_construct_n_unchecked1(_NoThrowFwdIt _UFirst, _Diff _Count) {

  00000	55		 push	 ebp
  00001	8b ec		 mov	 ebp, esp

; 1875 :     // value-initialize all elements in [_UFirst, _UFirst + _Count_raw)
; 1876 :     _STL_INTERNAL_CHECK(_Count >= 0);
; 1877 :     if constexpr (_Use_memset_value_construct_v<_NoThrowFwdIt>) {
; 1878 :         return _Zero_range(_UFirst, _UFirst + _Count);

  00003	8b 4d 08	 mov	 ecx, DWORD PTR __UFirst$[ebp]
  00006	8b 45 0c	 mov	 eax, DWORD PTR __Count$[ebp]
  00009	8d 04 81	 lea	 eax, DWORD PTR [ecx+eax*4]
  0000c	89 45 0c	 mov	 DWORD PTR __Count$[ebp], eax
  0000f	89 4d 08	 mov	 DWORD PTR __UFirst$[ebp], ecx

; 1879 :     } else {
; 1880 :         _Uninitialized_backout<_NoThrowFwdIt> _Backout{_UFirst};
; 1881 :         for (; 0 < _Count; --_Count) {
; 1882 :             _Backout._Emplace_back();
; 1883 :         }
; 1884 : 
; 1885 :         return _Backout._Release();
; 1886 :     }
; 1887 : }

  00012	5d		 pop	 ebp

; 1875 :     // value-initialize all elements in [_UFirst, _UFirst + _Count_raw)
; 1876 :     _STL_INTERNAL_CHECK(_Count >= 0);
; 1877 :     if constexpr (_Use_memset_value_construct_v<_NoThrowFwdIt>) {
; 1878 :         return _Zero_range(_UFirst, _UFirst + _Count);

  00013	e9 00 00 00 00	 jmp	 ??$_Zero_range@PAPAK@std@@YAPAPAKQAPAK0@Z ; std::_Zero_range<unsigned long * *>
??$_Uninitialized_value_construct_n_unchecked1@PAPAKI@std@@YAPAPAKPAPAKI@Z ENDP ; std::_Uninitialized_value_construct_n_unchecked1<unsigned long * *,unsigned int>
_TEXT	ENDS
; Function compile flags: /Ogtp
; File C:\Program Files (x86)\Microsoft Visual Studio\2019\Community\VC\Tools\MSVC\14.27.29110\include\xmemory
;	COMDAT ??$uninitialized_copy@PAPAKPAPAK@std@@YAPAPAKQAPAK0PAPAK@Z
_TEXT	SEGMENT
__First$ = 8						; size = 4
__Last$ = 12						; size = 4
__Dest$ = 16						; size = 4
??$uninitialized_copy@PAPAKPAPAK@std@@YAPAPAKQAPAK0PAPAK@Z PROC ; std::uninitialized_copy<unsigned long * *,unsigned long * *>, COMDAT

; 1591 : _NoThrowFwdIt uninitialized_copy(const _InIt _First, const _InIt _Last, _NoThrowFwdIt _Dest) {

  00000	55		 push	 ebp
  00001	8b ec		 mov	 ebp, esp

; 1599 :     } else {
; 1600 :         _Uninitialized_backout<decltype(_UDest)> _Backout{_UDest};
; 1601 :         for (; _UFirst != _ULast; ++_UFirst) {
; 1602 :             _Backout._Emplace_back(*_UFirst);
; 1603 :         }
; 1604 : 
; 1605 :         _UDest = _Backout._Release();
; 1606 :     }
; 1607 : 
; 1608 :     _Seek_wrapped(_Dest, _UDest);
; 1609 :     return _Dest;
; 1610 : }

  00003	5d		 pop	 ebp

; 1592 :     // copy [_First, _Last) to raw [_Dest, ...)
; 1593 :     _Adl_verify_range(_First, _Last);
; 1594 :     auto _UFirst      = _Get_unwrapped(_First);
; 1595 :     const auto _ULast = _Get_unwrapped(_Last);
; 1596 :     auto _UDest       = _Get_unwrapped_n(_Dest, _Idl_distance<_InIt>(_UFirst, _ULast));
; 1597 :     if constexpr (_Ptr_copy_cat<decltype(_UFirst), decltype(_UDest)>::_Really_trivial) {
; 1598 :         _UDest = _Copy_memmove(_UFirst, _ULast, _UDest);

  00004	e9 00 00 00 00	 jmp	 ??$_Copy_memmove@PAPAKPAPAK@std@@YAPAPAKPAPAK00@Z ; std::_Copy_memmove<unsigned long * *,unsigned long * *>
??$uninitialized_copy@PAPAKPAPAK@std@@YAPAPAKQAPAK0PAPAK@Z ENDP ; std::uninitialized_copy<unsigned long * *,unsigned long * *>
_TEXT	ENDS
; Function compile flags: /Ogtp
; File C:\Program Files (x86)\Microsoft Visual Studio\2019\Community\VC\Tools\MSVC\14.27.29110\include\xmemory
;	COMDAT ??$_Construct_in_place@PAU?$_List_node@KPAX@std@@ABQAU12@@std@@YAXAAPAU?$_List_node@KPAX@0@ABQAU10@@Z
_TEXT	SEGMENT
__Obj$ = 8						; size = 4
_<_Args_0>$ = 12					; size = 4
??$_Construct_in_place@PAU?$_List_node@KPAX@std@@ABQAU12@@std@@YAXAAPAU?$_List_node@KPAX@0@ABQAU10@@Z PROC ; std::_Construct_in_place<std::_List_node<unsigned long,void *> *,std::_List_node<unsigned long,void *> * const &>, COMDAT

; 228  : void _Construct_in_place(_Ty& _Obj, _Types&&... _Args) noexcept(is_nothrow_constructible_v<_Ty, _Types...>) {

  00000	55		 push	 ebp
  00001	8b ec		 mov	 ebp, esp

; 229  :     ::new (const_cast<void*>(static_cast<const volatile void*>(_STD addressof(_Obj))))

  00003	8b 45 0c	 mov	 eax, DWORD PTR _<_Args_0>$[ebp]
  00006	8b 08		 mov	 ecx, DWORD PTR [eax]
  00008	8b 45 08	 mov	 eax, DWORD PTR __Obj$[ebp]
  0000b	89 08		 mov	 DWORD PTR [eax], ecx

; 230  :         _Ty(_STD forward<_Types>(_Args)...);
; 231  : }

  0000d	5d		 pop	 ebp
  0000e	c3		 ret	 0
??$_Construct_in_place@PAU?$_List_node@KPAX@std@@ABQAU12@@std@@YAXAAPAU?$_List_node@KPAX@0@ABQAU10@@Z ENDP ; std::_Construct_in_place<std::_List_node<unsigned long,void *> *,std::_List_node<unsigned long,void *> * const &>
_TEXT	ENDS
; Function compile flags: /Ogtp
; File C:\Program Files (x86)\Microsoft Visual Studio\2019\Community\VC\Tools\MSVC\14.27.29110\include\xmemory
;	COMDAT ??$_Construct_in_place@PAU?$_List_node@USSlot@CSlotWindow@UI@@PAX@std@@ABQAU12@@std@@YAXAAPAU?$_List_node@USSlot@CSlotWindow@UI@@PAX@0@ABQAU10@@Z
_TEXT	SEGMENT
__Obj$ = 8						; size = 4
_<_Args_0>$ = 12					; size = 4
??$_Construct_in_place@PAU?$_List_node@USSlot@CSlotWindow@UI@@PAX@std@@ABQAU12@@std@@YAXAAPAU?$_List_node@USSlot@CSlotWindow@UI@@PAX@0@ABQAU10@@Z PROC ; std::_Construct_in_place<std::_List_node<UI::CSlotWindow::SSlot,void *> *,std::_List_node<UI::CSlotWindow::SSlot,void *> * const &>, COMDAT

; 228  : void _Construct_in_place(_Ty& _Obj, _Types&&... _Args) noexcept(is_nothrow_constructible_v<_Ty, _Types...>) {

  00000	55		 push	 ebp
  00001	8b ec		 mov	 ebp, esp

; 229  :     ::new (const_cast<void*>(static_cast<const volatile void*>(_STD addressof(_Obj))))

  00003	8b 45 0c	 mov	 eax, DWORD PTR _<_Args_0>$[ebp]
  00006	8b 08		 mov	 ecx, DWORD PTR [eax]
  00008	8b 45 08	 mov	 eax, DWORD PTR __Obj$[ebp]
  0000b	89 08		 mov	 DWORD PTR [eax], ecx

; 230  :         _Ty(_STD forward<_Types>(_Args)...);
; 231  : }

  0000d	5d		 pop	 ebp
  0000e	c3		 ret	 0
??$_Construct_in_place@PAU?$_List_node@USSlot@CSlotWindow@UI@@PAX@std@@ABQAU12@@std@@YAXAAPAU?$_List_node@USSlot@CSlotWindow@UI@@PAX@0@ABQAU10@@Z ENDP ; std::_Construct_in_place<std::_List_node<UI::CSlotWindow::SSlot,void *> *,std::_List_node<UI::CSlotWindow::SSlot,void *> * const &>
_TEXT	ENDS
; Function compile flags: /Ogtp
; File C:\Program Files (x86)\Microsoft Visual Studio\2019\Community\VC\Tools\MSVC\14.27.29110\include\xmemory
;	COMDAT ??$_Destroy_in_place@PAU?$_List_node@USSlot@CSlotWindow@UI@@PAX@std@@@std@@YAXAAPAU?$_List_node@USSlot@CSlotWindow@UI@@PAX@0@@Z
_TEXT	SEGMENT
__Obj$ = 8						; size = 4
??$_Destroy_in_place@PAU?$_List_node@USSlot@CSlotWindow@UI@@PAX@std@@@std@@YAXAAPAU?$_List_node@USSlot@CSlotWindow@UI@@PAX@0@@Z PROC ; std::_Destroy_in_place<std::_List_node<UI::CSlotWindow::SSlot,void *> *>, COMDAT

; 268  :     _Obj.~_Ty();
; 269  : }

  00000	c2 00 00	 ret	 0
??$_Destroy_in_place@PAU?$_List_node@USSlot@CSlotWindow@UI@@PAX@std@@@std@@YAXAAPAU?$_List_node@USSlot@CSlotWindow@UI@@PAX@0@@Z ENDP ; std::_Destroy_in_place<std::_List_node<UI::CSlotWindow::SSlot,void *> *>
_TEXT	ENDS
; Function compile flags: /Ogtp
; File C:\Program Files (x86)\Microsoft Visual Studio\2019\Community\VC\Tools\MSVC\14.27.29110\include\xmemory
;	COMDAT ??$_Destroy_in_place@PAU?$_List_node@KPAX@std@@@std@@YAXAAPAU?$_List_node@KPAX@0@@Z
_TEXT	SEGMENT
__Obj$ = 8						; size = 4
??$_Destroy_in_place@PAU?$_List_node@KPAX@std@@@std@@YAXAAPAU?$_List_node@KPAX@0@@Z PROC ; std::_Destroy_in_place<std::_List_node<unsigned long,void *> *>, COMDAT

; 268  :     _Obj.~_Ty();
; 269  : }

  00000	c2 00 00	 ret	 0
??$_Destroy_in_place@PAU?$_List_node@KPAX@std@@@std@@YAXAAPAU?$_List_node@KPAX@0@@Z ENDP ; std::_Destroy_in_place<std::_List_node<unsigned long,void *> *>
_TEXT	ENDS
; Function compile flags: /Ogtp
; File C:\Program Files (x86)\Microsoft Visual Studio\2019\Community\VC\Tools\MSVC\14.27.29110\include\xmemory
;	COMDAT ??1?$_Alloc_construct_ptr@V?$allocator@U?$_List_node@USSlot@CSlotWindow@UI@@PAX@std@@@std@@@std@@QAE@XZ
_TEXT	SEGMENT
??1?$_Alloc_construct_ptr@V?$allocator@U?$_List_node@USSlot@CSlotWindow@UI@@PAX@std@@@std@@@std@@QAE@XZ PROC ; std::_Alloc_construct_ptr<std::allocator<std::_List_node<UI::CSlotWindow::SSlot,void *> > >::~_Alloc_construct_ptr<std::allocator<std::_List_node<UI::CSlotWindow::SSlot,void *> > >, COMDAT
; _this$ = ecx

; 1052 :         if (_Ptr) {

  00000	8b 41 04	 mov	 eax, DWORD PTR [ecx+4]
  00003	85 c0		 test	 eax, eax
  00005	74 0b		 je	 SHORT $LN2@Alloc_cons

; 803  :         _Deallocate<_New_alignof<_Ty>>(_Ptr, sizeof(_Ty) * _Count);

  00007	6a 64		 push	 100			; 00000064H
  00009	50		 push	 eax
  0000a	e8 00 00 00 00	 call	 ??$_Deallocate@$07$0A@@std@@YAXPAXI@Z ; std::_Deallocate<8,0>
  0000f	83 c4 08	 add	 esp, 8
$LN2@Alloc_cons:

; 1053 :             _Al.deallocate(_Ptr, 1);
; 1054 :         }
; 1055 :     }

  00012	c3		 ret	 0
??1?$_Alloc_construct_ptr@V?$allocator@U?$_List_node@USSlot@CSlotWindow@UI@@PAX@std@@@std@@@std@@QAE@XZ ENDP ; std::_Alloc_construct_ptr<std::allocator<std::_List_node<UI::CSlotWindow::SSlot,void *> > >::~_Alloc_construct_ptr<std::allocator<std::_List_node<UI::CSlotWindow::SSlot,void *> > >
_TEXT	ENDS
; Function compile flags: /Ogtp
; File C:\Program Files (x86)\Microsoft Visual Studio\2019\Community\VC\Tools\MSVC\14.27.29110\include\xmemory
;	COMDAT ??1?$_Alloc_construct_ptr@V?$allocator@U?$_List_node@KPAX@std@@@std@@@std@@QAE@XZ
_TEXT	SEGMENT
??1?$_Alloc_construct_ptr@V?$allocator@U?$_List_node@KPAX@std@@@std@@@std@@QAE@XZ PROC ; std::_Alloc_construct_ptr<std::allocator<std::_List_node<unsigned long,void *> > >::~_Alloc_construct_ptr<std::allocator<std::_List_node<unsigned long,void *> > >, COMDAT
; _this$ = ecx

; 1052 :         if (_Ptr) {

  00000	8b 41 04	 mov	 eax, DWORD PTR [ecx+4]
  00003	85 c0		 test	 eax, eax
  00005	74 0b		 je	 SHORT $LN2@Alloc_cons

; 803  :         _Deallocate<_New_alignof<_Ty>>(_Ptr, sizeof(_Ty) * _Count);

  00007	6a 0c		 push	 12			; 0000000cH
  00009	50		 push	 eax
  0000a	e8 00 00 00 00	 call	 ??$_Deallocate@$07$0A@@std@@YAXPAXI@Z ; std::_Deallocate<8,0>
  0000f	83 c4 08	 add	 esp, 8
$LN2@Alloc_cons:

; 1053 :             _Al.deallocate(_Ptr, 1);
; 1054 :         }
; 1055 :     }

  00012	c3		 ret	 0
??1?$_Alloc_construct_ptr@V?$allocator@U?$_List_node@KPAX@std@@@std@@@std@@QAE@XZ ENDP ; std::_Alloc_construct_ptr<std::allocator<std::_List_node<unsigned long,void *> > >::~_Alloc_construct_ptr<std::allocator<std::_List_node<unsigned long,void *> > >
_TEXT	ENDS
; Function compile flags: /Ogtp
; File C:\Program Files (x86)\Microsoft Visual Studio\2019\Community\VC\Tools\MSVC\14.27.29110\include\xmemory
;	COMDAT ??$_Construct_in_place@U_Container_proxy@std@@PAU_Container_base12@2@@std@@YAXAAU_Container_proxy@0@$$QAPAU_Container_base12@0@@Z
_TEXT	SEGMENT
__Obj$ = 8						; size = 4
_<_Args_0>$ = 12					; size = 4
??$_Construct_in_place@U_Container_proxy@std@@PAU_Container_base12@2@@std@@YAXAAU_Container_proxy@0@$$QAPAU_Container_base12@0@@Z PROC ; std::_Construct_in_place<std::_Container_proxy,std::_Container_base12 *>, COMDAT

; 228  : void _Construct_in_place(_Ty& _Obj, _Types&&... _Args) noexcept(is_nothrow_constructible_v<_Ty, _Types...>) {

  00000	55		 push	 ebp
  00001	8b ec		 mov	 ebp, esp

; 1084 :     _Container_proxy(_Container_base12* _Mycont_) noexcept : _Mycont(_Mycont_), _Myfirstiter(nullptr) {}

  00003	8b 45 0c	 mov	 eax, DWORD PTR _<_Args_0>$[ebp]
  00006	8b 4d 08	 mov	 ecx, DWORD PTR __Obj$[ebp]
  00009	8b 00		 mov	 eax, DWORD PTR [eax]
  0000b	89 01		 mov	 DWORD PTR [ecx], eax
  0000d	c7 41 04 00 00
	00 00		 mov	 DWORD PTR [ecx+4], 0

; 229  :     ::new (const_cast<void*>(static_cast<const volatile void*>(_STD addressof(_Obj))))
; 230  :         _Ty(_STD forward<_Types>(_Args)...);
; 231  : }

  00014	5d		 pop	 ebp
  00015	c3		 ret	 0
??$_Construct_in_place@U_Container_proxy@std@@PAU_Container_base12@2@@std@@YAXAAU_Container_proxy@0@$$QAPAU_Container_base12@0@@Z ENDP ; std::_Construct_in_place<std::_Container_proxy,std::_Container_base12 *>
_TEXT	ENDS
; Function compile flags: /Ogtp
; File C:\Program Files (x86)\Microsoft Visual Studio\2019\Community\VC\Tools\MSVC\14.27.29110\include\xmemory
;	COMDAT ??$_Deallocate_plain@V?$allocator@U_Container_proxy@std@@@std@@@std@@YAXAAV?$allocator@U_Container_proxy@std@@@0@QAU_Container_proxy@0@@Z
_TEXT	SEGMENT
__Al$ = 8						; size = 4
__Ptr$ = 12						; size = 4
??$_Deallocate_plain@V?$allocator@U_Container_proxy@std@@@std@@@std@@YAXAAV?$allocator@U_Container_proxy@std@@@0@QAU_Container_proxy@0@@Z PROC ; std::_Deallocate_plain<std::allocator<std::_Container_proxy> >, COMDAT

; 998  : void _Deallocate_plain(_Alloc& _Al, typename _Alloc::value_type* const _Ptr) noexcept {

  00000	55		 push	 ebp
  00001	8b ec		 mov	 ebp, esp

; 689  :         _Deallocate<_New_alignof<value_type>>(_Ptr, sizeof(value_type) * _Count);

  00003	6a 08		 push	 8
  00005	ff 75 0c	 push	 DWORD PTR __Ptr$[ebp]
  00008	e8 00 00 00 00	 call	 ??$_Deallocate@$07$0A@@std@@YAXPAXI@Z ; std::_Deallocate<8,0>
  0000d	83 c4 08	 add	 esp, 8

; 999  :     // deallocate a plain pointer using an allocator
; 1000 :     using _Alloc_traits = allocator_traits<_Alloc>;
; 1001 :     if constexpr (is_same_v<_Alloc_ptr_t<_Alloc>, typename _Alloc::value_type*>) {
; 1002 :         _Alloc_traits::deallocate(_Al, _Ptr, 1);
; 1003 :     } else {
; 1004 :         using _Ptr_traits = pointer_traits<_Alloc_ptr_t<_Alloc>>;
; 1005 :         _Alloc_traits::deallocate(_Al, _Ptr_traits::pointer_to(*_Ptr), 1);
; 1006 :     }
; 1007 : }

  00010	5d		 pop	 ebp
  00011	c3		 ret	 0
??$_Deallocate_plain@V?$allocator@U_Container_proxy@std@@@std@@@std@@YAXAAV?$allocator@U_Container_proxy@std@@@0@QAU_Container_proxy@0@@Z ENDP ; std::_Deallocate_plain<std::allocator<std::_Container_proxy> >
_TEXT	ENDS
; Function compile flags: /Ogtp
; File C:\Program Files (x86)\Microsoft Visual Studio\2019\Community\VC\Tools\MSVC\14.27.29110\include\xmemory
;	COMDAT ??$_Construct_in_place@PAU?$_List_node@USSlot@CSlotWindow@UI@@PAX@std@@AAPAU12@@std@@YAXAAPAU?$_List_node@USSlot@CSlotWindow@UI@@PAX@0@0@Z
_TEXT	SEGMENT
__Obj$ = 8						; size = 4
_<_Args_0>$ = 12					; size = 4
??$_Construct_in_place@PAU?$_List_node@USSlot@CSlotWindow@UI@@PAX@std@@AAPAU12@@std@@YAXAAPAU?$_List_node@USSlot@CSlotWindow@UI@@PAX@0@0@Z PROC ; std::_Construct_in_place<std::_List_node<UI::CSlotWindow::SSlot,void *> *,std::_List_node<UI::CSlotWindow::SSlot,void *> * &>, COMDAT

; 228  : void _Construct_in_place(_Ty& _Obj, _Types&&... _Args) noexcept(is_nothrow_constructible_v<_Ty, _Types...>) {

  00000	55		 push	 ebp
  00001	8b ec		 mov	 ebp, esp

; 229  :     ::new (const_cast<void*>(static_cast<const volatile void*>(_STD addressof(_Obj))))

  00003	8b 45 0c	 mov	 eax, DWORD PTR _<_Args_0>$[ebp]
  00006	8b 08		 mov	 ecx, DWORD PTR [eax]
  00008	8b 45 08	 mov	 eax, DWORD PTR __Obj$[ebp]
  0000b	89 08		 mov	 DWORD PTR [eax], ecx

; 230  :         _Ty(_STD forward<_Types>(_Args)...);
; 231  : }

  0000d	5d		 pop	 ebp
  0000e	c3		 ret	 0
??$_Construct_in_place@PAU?$_List_node@USSlot@CSlotWindow@UI@@PAX@std@@AAPAU12@@std@@YAXAAPAU?$_List_node@USSlot@CSlotWindow@UI@@PAX@0@0@Z ENDP ; std::_Construct_in_place<std::_List_node<UI::CSlotWindow::SSlot,void *> *,std::_List_node<UI::CSlotWindow::SSlot,void *> * &>
_TEXT	ENDS
; Function compile flags: /Ogtp
; File C:\Program Files (x86)\Microsoft Visual Studio\2019\Community\VC\Tools\MSVC\14.27.29110\include\xmemory
;	COMDAT ??$_Construct_in_place@PAU?$_List_node@KPAX@std@@AAPAU12@@std@@YAXAAPAU?$_List_node@KPAX@0@0@Z
_TEXT	SEGMENT
__Obj$ = 8						; size = 4
_<_Args_0>$ = 12					; size = 4
??$_Construct_in_place@PAU?$_List_node@KPAX@std@@AAPAU12@@std@@YAXAAPAU?$_List_node@KPAX@0@0@Z PROC ; std::_Construct_in_place<std::_List_node<unsigned long,void *> *,std::_List_node<unsigned long,void *> * &>, COMDAT

; 228  : void _Construct_in_place(_Ty& _Obj, _Types&&... _Args) noexcept(is_nothrow_constructible_v<_Ty, _Types...>) {

  00000	55		 push	 ebp
  00001	8b ec		 mov	 ebp, esp

; 229  :     ::new (const_cast<void*>(static_cast<const volatile void*>(_STD addressof(_Obj))))

  00003	8b 45 0c	 mov	 eax, DWORD PTR _<_Args_0>$[ebp]
  00006	8b 08		 mov	 ecx, DWORD PTR [eax]
  00008	8b 45 08	 mov	 eax, DWORD PTR __Obj$[ebp]
  0000b	89 08		 mov	 DWORD PTR [eax], ecx

; 230  :         _Ty(_STD forward<_Types>(_Args)...);
; 231  : }

  0000d	5d		 pop	 ebp
  0000e	c3		 ret	 0
??$_Construct_in_place@PAU?$_List_node@KPAX@std@@AAPAU12@@std@@YAXAAPAU?$_List_node@KPAX@0@0@Z ENDP ; std::_Construct_in_place<std::_List_node<unsigned long,void *> *,std::_List_node<unsigned long,void *> * &>
_TEXT	ENDS
; Function compile flags: /Ogtp
; File C:\Program Files (x86)\Microsoft Visual Studio\2019\Community\VC\Tools\MSVC\14.27.29110\include\xmemory
;	COMDAT ??$_Destroy_in_place@PAK@std@@YAXAAPAK@Z
_TEXT	SEGMENT
__Obj$ = 8						; size = 4
??$_Destroy_in_place@PAK@std@@YAXAAPAK@Z PROC		; std::_Destroy_in_place<unsigned long *>, COMDAT

; 268  :     _Obj.~_Ty();
; 269  : }

  00000	c2 00 00	 ret	 0
??$_Destroy_in_place@PAK@std@@YAXAAPAK@Z ENDP		; std::_Destroy_in_place<unsigned long *>
_TEXT	ENDS
; Function compile flags: /Ogtp
; File C:\Program Files (x86)\Microsoft Visual Studio\2019\Community\VC\Tools\MSVC\14.27.29110\include\xmemory
;	COMDAT ??$_Delete_plain_internal@V?$allocator@U_Container_proxy@std@@@std@@@std@@YAXAAV?$allocator@U_Container_proxy@std@@@0@QAU_Container_proxy@0@@Z
_TEXT	SEGMENT
__Al$ = 8						; size = 4
__Ptr$ = 12						; size = 4
??$_Delete_plain_internal@V?$allocator@U_Container_proxy@std@@@std@@@std@@YAXAAV?$allocator@U_Container_proxy@std@@@0@QAU_Container_proxy@0@@Z PROC ; std::_Delete_plain_internal<std::allocator<std::_Container_proxy> >, COMDAT

; 1027 :     // destroy *_Ptr in place, then deallocate _Ptr using _Al; used for internal container types the user didn't name
; 1028 :     using _Ty = typename _Alloc::value_type;
; 1029 :     _Ptr->~_Ty();
; 1030 :     _Deallocate_plain(_Al, _Ptr);

  00000	e9 00 00 00 00	 jmp	 ??$_Deallocate_plain@V?$allocator@U_Container_proxy@std@@@std@@@std@@YAXAAV?$allocator@U_Container_proxy@std@@@0@QAU_Container_proxy@0@@Z ; std::_Deallocate_plain<std::allocator<std::_Container_proxy> >
??$_Delete_plain_internal@V?$allocator@U_Container_proxy@std@@@std@@@std@@YAXAAV?$allocator@U_Container_proxy@std@@@0@QAU_Container_proxy@0@@Z ENDP ; std::_Delete_plain_internal<std::allocator<std::_Container_proxy> >
_TEXT	ENDS
; Function compile flags: /Ogtp
; File C:\Program Files (x86)\Microsoft Visual Studio\2019\Community\VC\Tools\MSVC\14.27.29110\include\deque
; File C:\Program Files (x86)\Microsoft Visual Studio\2019\Community\VC\Tools\MSVC\14.27.29110\include\xmemory
; File C:\Program Files (x86)\Microsoft Visual Studio\2019\Community\VC\Tools\MSVC\14.27.29110\include\deque
; File C:\Program Files (x86)\Microsoft Visual Studio\2019\Community\VC\Tools\MSVC\14.27.29110\include\xmemory
; File C:\Program Files (x86)\Microsoft Visual Studio\2019\Community\VC\Tools\MSVC\14.27.29110\include\deque
; File C:\Program Files (x86)\Microsoft Visual Studio\2019\Community\VC\Tools\MSVC\14.27.29110\include\xmemory
; File C:\Program Files (x86)\Microsoft Visual Studio\2019\Community\VC\Tools\MSVC\14.27.29110\include\deque
; File C:\Program Files (x86)\Microsoft Visual Studio\2019\Community\VC\Tools\MSVC\14.27.29110\include\xmemory
; File C:\Program Files (x86)\Microsoft Visual Studio\2019\Community\VC\Tools\MSVC\14.27.29110\include\deque
; File C:\Program Files (x86)\Microsoft Visual Studio\2019\Community\VC\Tools\MSVC\14.27.29110\include\xmemory
; File C:\Program Files (x86)\Microsoft Visual Studio\2019\Community\VC\Tools\MSVC\14.27.29110\include\deque
; File C:\Program Files (x86)\Microsoft Visual Studio\2019\Community\VC\Tools\MSVC\14.27.29110\include\xmemory
; File C:\Program Files (x86)\Microsoft Visual Studio\2019\Community\VC\Tools\MSVC\14.27.29110\include\deque
;	COMDAT ??$_Emplace_back_internal@ABK@?$deque@KV?$allocator@K@std@@@std@@AAEXABK@Z
_TEXT	SEGMENT
tv641 = -8						; size = 4
__Newmap$1$ = -4					; size = 4
_<_Vals_0>$ = 8						; size = 4
??$_Emplace_back_internal@ABK@?$deque@KV?$allocator@K@std@@@std@@AAEXABK@Z PROC ; std::deque<unsigned long,std::allocator<unsigned long> >::_Emplace_back_internal<unsigned long const &>, COMDAT
; _this$ = ecx

; 1113 :     void _Emplace_back_internal(_Tys&&... _Vals) {

  00000	55		 push	 ebp
  00001	8b ec		 mov	 ebp, esp
  00003	83 ec 08	 sub	 esp, 8
  00006	53		 push	 ebx
  00007	56		 push	 esi
  00008	57		 push	 edi
  00009	8b f9		 mov	 edi, ecx

; 1114 :         _PUSH_BACK_BEGIN;

  0000b	8b 4f 10	 mov	 ecx, DWORD PTR [edi+16]
  0000e	8b f1		 mov	 esi, ecx
  00010	8b 5f 0c	 mov	 ebx, DWORD PTR [edi+12]
  00013	8b d3		 mov	 edx, ebx
  00015	8d 04 0b	 lea	 eax, DWORD PTR [ebx+ecx]
  00018	a8 03		 test	 al, 3
  0001a	0f 85 fb 00 00
	00		 jne	 $LN13@Emplace_ba
  00020	8b 57 08	 mov	 edx, DWORD PTR [edi+8]
  00023	8d 41 04	 lea	 eax, DWORD PTR [ecx+4]
  00026	c1 e8 02	 shr	 eax, 2
  00029	3b d0		 cmp	 edx, eax
  0002b	0f 87 e8 00 00
	00		 ja	 $LN42@Emplace_ba

; 1429 :         size_type _Newsize = 0 < _Mapsize() ? _Mapsize() : 1;

  00031	85 d2		 test	 edx, edx
  00033	b8 01 00 00 00	 mov	 eax, 1
  00038	0f 45 c2	 cmovne	 eax, edx
  0003b	0f 1f 44 00 00	 npad	 5
$LL6@Emplace_ba:

; 1430 :         while (_Newsize - _Mapsize() < _Count || _Newsize < _DEQUEMAPSIZ) {

  00040	8b f0		 mov	 esi, eax
  00042	2b f2		 sub	 esi, edx
  00044	83 fe 01	 cmp	 esi, 1
  00047	72 05		 jb	 SHORT $LN8@Emplace_ba
  00049	83 f8 08	 cmp	 eax, 8
  0004c	73 13		 jae	 SHORT $LN7@Emplace_ba
$LN8@Emplace_ba:

; 1431 :             // scale _Newsize to 2^N >= _Mapsize() + _Count
; 1432 :             if (max_size() / _DEQUESIZ - _Newsize < _Newsize) {

  0004e	b9 ff ff ff 0f	 mov	 ecx, 268435455		; 0fffffffH
  00053	2b c8		 sub	 ecx, eax
  00055	3b c8		 cmp	 ecx, eax
  00057	0f 82 19 01 00
	00		 jb	 $LN37@Emplace_ba

; 1434 :             }
; 1435 : 
; 1436 :             _Newsize *= 2;

  0005d	03 c0		 add	 eax, eax

; 1437 :         }

  0005f	eb df		 jmp	 SHORT $LL6@Emplace_ba
$LN7@Emplace_ba:

; 1438 :         _Count = _Newsize - _Mapsize();
; 1439 : 
; 1440 :         size_type _Myboff = _Myoff() / _DEQUESIZ;

  00061	c1 eb 02	 shr	 ebx, 2
; File C:\Program Files (x86)\Microsoft Visual Studio\2019\Community\VC\Tools\MSVC\14.27.29110\include\xmemory

; 60   :         if (_Count > _Max_possible) {

  00064	3d ff ff ff 3f	 cmp	 eax, 1073741823		; 3fffffffH
  00069	0f 87 02 01 00
	00		 ja	 $LN45@Emplace_ba

; 62   :         }
; 63   :     }
; 64   : 
; 65   :     return _Count * _Ty_size;

  0006f	c1 e0 02	 shl	 eax, 2

; 807  :         return static_cast<_Ty*>(_Allocate<_New_alignof<_Ty>>(_Get_size_of_n<sizeof(_Ty)>(_Count)));

  00072	50		 push	 eax
  00073	e8 00 00 00 00	 call	 ??$_Allocate@$07U_Default_allocate_traits@std@@$0A@@std@@YAPAXI@Z ; std::_Allocate<8,std::_Default_allocate_traits,0>
; File C:\Program Files (x86)\Microsoft Visual Studio\2019\Community\VC\Tools\MSVC\14.27.29110\include\deque

; 1444 :         _Myptr = _STD uninitialized_copy(_Map() + _Myboff, _Map() + _Mapsize(), _Myptr); // copy initial to end

  00078	8b 57 04	 mov	 edx, DWORD PTR [edi+4]
  0007b	8d 0c 9d 00 00
	00 00		 lea	 ecx, DWORD PTR [ebx*4]
  00082	89 4d f8	 mov	 DWORD PTR tv641[ebp], ecx
  00085	03 c8		 add	 ecx, eax
  00087	51		 push	 ecx
  00088	8b 4f 08	 mov	 ecx, DWORD PTR [edi+8]
; File C:\Program Files (x86)\Microsoft Visual Studio\2019\Community\VC\Tools\MSVC\14.27.29110\include\xmemory

; 807  :         return static_cast<_Ty*>(_Allocate<_New_alignof<_Ty>>(_Get_size_of_n<sizeof(_Ty)>(_Count)));

  0008b	89 45 fc	 mov	 DWORD PTR __Newmap$1$[ebp], eax
; File C:\Program Files (x86)\Microsoft Visual Studio\2019\Community\VC\Tools\MSVC\14.27.29110\include\deque

; 1444 :         _Myptr = _STD uninitialized_copy(_Map() + _Myboff, _Map() + _Mapsize(), _Myptr); // copy initial to end

  0008e	8d 04 9a	 lea	 eax, DWORD PTR [edx+ebx*4]
  00091	8d 0c 8a	 lea	 ecx, DWORD PTR [edx+ecx*4]
  00094	51		 push	 ecx
  00095	50		 push	 eax
  00096	e8 00 00 00 00	 call	 ??$uninitialized_copy@PAPAKPAPAK@std@@YAPAPAKQAPAK0PAPAK@Z ; std::uninitialized_copy<unsigned long * *,unsigned long * *>
  0009b	8b 4f 04	 mov	 ecx, DWORD PTR [edi+4]
  0009e	83 c4 10	 add	 esp, 16			; 00000010H

; 1445 :         if (_Myboff <= _Count) { // increment greater than offset of initial block

  000a1	50		 push	 eax
  000a2	3b de		 cmp	 ebx, esi
  000a4	77 1d		 ja	 SHORT $LN10@Emplace_ba

; 1446 :             _Myptr = _STD uninitialized_copy(_Map(), _Map() + _Myboff, _Myptr); // copy rest of old

  000a6	8d 04 99	 lea	 eax, DWORD PTR [ecx+ebx*4]
  000a9	50		 push	 eax
  000aa	51		 push	 ecx
  000ab	e8 00 00 00 00	 call	 ??$uninitialized_copy@PAPAKPAPAK@std@@YAPAPAKQAPAK0PAPAK@Z ; std::uninitialized_copy<unsigned long * *,unsigned long * *>

; 1447 :             _Uninitialized_value_construct_n_unchecked1(_Myptr, _Count - _Myboff); // clear suffix of new

  000b0	8b ce		 mov	 ecx, esi
  000b2	2b cb		 sub	 ecx, ebx
  000b4	51		 push	 ecx
  000b5	50		 push	 eax
  000b6	e8 00 00 00 00	 call	 ??$_Uninitialized_value_construct_n_unchecked1@PAPAKI@std@@YAPAPAKPAPAKI@Z ; std::_Uninitialized_value_construct_n_unchecked1<unsigned long * *,unsigned int>

; 1448 :             _Uninitialized_value_construct_n_unchecked1(_Newmap, _Myboff); // clear prefix of new

  000bb	8b 45 fc	 mov	 eax, DWORD PTR __Newmap$1$[ebp]
  000be	83 c4 14	 add	 esp, 20			; 00000014H

; 1449 :         } else { // increment not greater than offset of initial block

  000c1	eb 24		 jmp	 SHORT $LN11@Emplace_ba
$LN10@Emplace_ba:

; 1450 :             _STD uninitialized_copy(_Map(), _Map() + _Count, _Myptr); // copy more old

  000c3	8d 04 b1	 lea	 eax, DWORD PTR [ecx+esi*4]
  000c6	50		 push	 eax
  000c7	51		 push	 ecx
  000c8	e8 00 00 00 00	 call	 ??$uninitialized_copy@PAPAKPAPAK@std@@YAPAPAKQAPAK0PAPAK@Z ; std::uninitialized_copy<unsigned long * *,unsigned long * *>

; 1451 :             _Myptr = _STD uninitialized_copy(_Map() + _Count, _Map() + _Myboff, _Newmap); // copy rest of old

  000cd	8b 4f 04	 mov	 ecx, DWORD PTR [edi+4]
  000d0	ff 75 fc	 push	 DWORD PTR __Newmap$1$[ebp]
  000d3	8b 45 f8	 mov	 eax, DWORD PTR tv641[ebp]
  000d6	03 c1		 add	 eax, ecx
  000d8	50		 push	 eax
  000d9	8d 04 b1	 lea	 eax, DWORD PTR [ecx+esi*4]
  000dc	50		 push	 eax
  000dd	e8 00 00 00 00	 call	 ??$uninitialized_copy@PAPAKPAPAK@std@@YAPAPAKQAPAK0PAPAK@Z ; std::uninitialized_copy<unsigned long * *,unsigned long * *>
  000e2	83 c4 18	 add	 esp, 24			; 00000018H

; 1452 :             _Uninitialized_value_construct_n_unchecked1(_Myptr, _Count); // clear rest to initial block

  000e5	8b de		 mov	 ebx, esi
$LN11@Emplace_ba:

; 1453 :         }
; 1454 : 
; 1455 :         _Destroy_range(_Map() + _Myboff, _Map() + _Mapsize());
; 1456 :         if (_Map() != _Mapptr()) {

  000e7	53		 push	 ebx
  000e8	50		 push	 eax
  000e9	e8 00 00 00 00	 call	 ??$_Uninitialized_value_construct_n_unchecked1@PAPAKI@std@@YAPAPAKPAPAKI@Z ; std::_Uninitialized_value_construct_n_unchecked1<unsigned long * *,unsigned int>
  000ee	8b 4f 04	 mov	 ecx, DWORD PTR [edi+4]
  000f1	83 c4 08	 add	 esp, 8
  000f4	85 c9		 test	 ecx, ecx
  000f6	74 10		 je	 SHORT $LN12@Emplace_ba
; File C:\Program Files (x86)\Microsoft Visual Studio\2019\Community\VC\Tools\MSVC\14.27.29110\include\xmemory

; 803  :         _Deallocate<_New_alignof<_Ty>>(_Ptr, sizeof(_Ty) * _Count);

  000f8	8b 47 08	 mov	 eax, DWORD PTR [edi+8]
  000fb	c1 e0 02	 shl	 eax, 2
  000fe	50		 push	 eax
  000ff	51		 push	 ecx
  00100	e8 00 00 00 00	 call	 ??$_Deallocate@$07$0A@@std@@YAXPAXI@Z ; std::_Deallocate<8,0>
  00105	83 c4 08	 add	 esp, 8
$LN12@Emplace_ba:
; File C:\Program Files (x86)\Microsoft Visual Studio\2019\Community\VC\Tools\MSVC\14.27.29110\include\deque

; 1460 :         _Map() = _Newmap; // point at new

  00108	8b 45 fc	 mov	 eax, DWORD PTR __Newmap$1$[ebp]
  0010b	89 47 04	 mov	 DWORD PTR [edi+4], eax

; 1461 :         _Mapsize() += _Count;

  0010e	01 77 08	 add	 DWORD PTR [edi+8], esi
  00111	8b 77 10	 mov	 esi, DWORD PTR [edi+16]
  00114	8b 57 0c	 mov	 edx, DWORD PTR [edi+12]
  00117	eb 02		 jmp	 SHORT $LN13@Emplace_ba
$LN42@Emplace_ba:

; 1114 :         _PUSH_BACK_BEGIN;

  00119	8b d3		 mov	 edx, ebx
$LN13@Emplace_ba:
  0011b	8b 4f 08	 mov	 ecx, DWORD PTR [edi+8]
  0011e	8d 04 8d ff ff
	ff ff		 lea	 eax, DWORD PTR [ecx*4-1]

; 547  :         return (_Off / _DEQUESIZ) & (_Mapsize - 1);

  00125	49		 dec	 ecx

; 1114 :         _PUSH_BACK_BEGIN;

  00126	23 c2		 and	 eax, edx
  00128	89 47 0c	 mov	 DWORD PTR [edi+12], eax
  0012b	03 f0		 add	 esi, eax

; 547  :         return (_Off / _DEQUESIZ) & (_Mapsize - 1);

  0012d	8b c6		 mov	 eax, esi
  0012f	c1 e8 02	 shr	 eax, 2
  00132	23 c8		 and	 ecx, eax

; 1114 :         _PUSH_BACK_BEGIN;

  00134	8d 1c 8d 00 00
	00 00		 lea	 ebx, DWORD PTR [ecx*4]
  0013b	8b 4f 04	 mov	 ecx, DWORD PTR [edi+4]
  0013e	83 3c 0b 00	 cmp	 DWORD PTR [ebx+ecx], 0
  00142	75 13		 jne	 SHORT $LN3@Emplace_ba
; File C:\Program Files (x86)\Microsoft Visual Studio\2019\Community\VC\Tools\MSVC\14.27.29110\include\xmemory

; 807  :         return static_cast<_Ty*>(_Allocate<_New_alignof<_Ty>>(_Get_size_of_n<sizeof(_Ty)>(_Count)));

  00144	6a 10		 push	 16			; 00000010H
  00146	e8 00 00 00 00	 call	 ??$_Allocate@$07U_Default_allocate_traits@std@@$0A@@std@@YAPAXI@Z ; std::_Allocate<8,std::_Default_allocate_traits,0>
; File C:\Program Files (x86)\Microsoft Visual Studio\2019\Community\VC\Tools\MSVC\14.27.29110\include\deque

; 1114 :         _PUSH_BACK_BEGIN;

  0014b	8b 4f 04	 mov	 ecx, DWORD PTR [edi+4]
; File C:\Program Files (x86)\Microsoft Visual Studio\2019\Community\VC\Tools\MSVC\14.27.29110\include\xmemory

; 807  :         return static_cast<_Ty*>(_Allocate<_New_alignof<_Ty>>(_Get_size_of_n<sizeof(_Ty)>(_Count)));

  0014e	83 c4 04	 add	 esp, 4
; File C:\Program Files (x86)\Microsoft Visual Studio\2019\Community\VC\Tools\MSVC\14.27.29110\include\deque

; 1114 :         _PUSH_BACK_BEGIN;

  00151	89 04 0b	 mov	 DWORD PTR [ebx+ecx], eax
  00154	8b 4f 04	 mov	 ecx, DWORD PTR [edi+4]
$LN3@Emplace_ba:

; 1115 :         _Alty_traits::construct(_Getal(), _Unfancy(_Map()[_Block] + _Newoff % _DEQUESIZ), _STD forward<_Tys>(_Vals)...);

  00157	8b 0c 0b	 mov	 ecx, DWORD PTR [ebx+ecx]
  0015a	83 e6 03	 and	 esi, 3
  0015d	8b 45 08	 mov	 eax, DWORD PTR _<_Vals_0>$[ebp]
  00160	8b 00		 mov	 eax, DWORD PTR [eax]
  00162	89 04 b1	 mov	 DWORD PTR [ecx+esi*4], eax

; 1116 :         _PUSH_BACK_END;

  00165	ff 47 10	 inc	 DWORD PTR [edi+16]
  00168	5f		 pop	 edi
  00169	5e		 pop	 esi
  0016a	5b		 pop	 ebx

; 1117 :     }

  0016b	8b e5		 mov	 esp, ebp
  0016d	5d		 pop	 ebp
  0016e	c2 04 00	 ret	 4
$LN45@Emplace_ba:
; File C:\Program Files (x86)\Microsoft Visual Studio\2019\Community\VC\Tools\MSVC\14.27.29110\include\xmemory

; 61   :             _Throw_bad_array_new_length(); // multiply overflow

  00171	e8 00 00 00 00	 call	 ?_Throw_bad_array_new_length@std@@YAXXZ ; std::_Throw_bad_array_new_length
$LN37@Emplace_ba:
; File C:\Program Files (x86)\Microsoft Visual Studio\2019\Community\VC\Tools\MSVC\14.27.29110\include\deque

; 1433 :                 _Xlen(); // result too long

  00176	8b cf		 mov	 ecx, edi
  00178	e8 00 00 00 00	 call	 ?_Xlen@?$deque@KV?$allocator@K@std@@@std@@ABEXXZ ; std::deque<unsigned long,std::allocator<unsigned long> >::_Xlen
$LN43@Emplace_ba:
  0017d	cc		 int	 3
??$_Emplace_back_internal@ABK@?$deque@KV?$allocator@K@std@@@std@@AAEXABK@Z ENDP ; std::deque<unsigned long,std::allocator<unsigned long> >::_Emplace_back_internal<unsigned long const &>
_TEXT	ENDS
; Function compile flags: /Odsp
;	COMDAT ??_9CWindow@UI@@$B3AE
_TEXT	SEGMENT
??_9CWindow@UI@@$B3AE PROC				; UI::CWindow::`vcall'{4}', COMDAT
  00000	8b 01		 mov	 eax, DWORD PTR [ecx]
  00002	ff 60 04	 jmp	 DWORD PTR [eax+4]
??_9CWindow@UI@@$B3AE ENDP				; UI::CWindow::`vcall'{4}'
_TEXT	ENDS
; Function compile flags: /Ogtp
; File C:\DS Project\DS Files\Source\ClientSource\Client\eterPythonLib\PythonSlotWindow.cpp
;	COMDAT ??_GCCoolTimeFinishEffect@CSlotWindow@UI@@UAEPAXI@Z
_TEXT	SEGMENT
___flags$ = 8						; size = 4
??_GCCoolTimeFinishEffect@CSlotWindow@UI@@UAEPAXI@Z PROC ; UI::CSlotWindow::CCoolTimeFinishEffect::`scalar deleting destructor', COMDAT
; _this$ = ecx
  00000	55		 push	 ebp
  00001	8b ec		 mov	 ebp, esp

; 184  : 		{

  00003	56		 push	 esi
  00004	8b f1		 mov	 esi, ecx
  00006	c7 06 00 00 00
	00		 mov	 DWORD PTR [esi], OFFSET ??_7CCoolTimeFinishEffect@CSlotWindow@UI@@6B@

; 185  : 		}

  0000c	e8 00 00 00 00	 call	 ??1CAniImageBox@UI@@UAE@XZ ; UI::CAniImageBox::~CAniImageBox
  00011	f6 45 08 01	 test	 BYTE PTR ___flags$[ebp], 1
  00015	74 0e		 je	 SHORT $LN7@scalar
  00017	68 90 00 00 00	 push	 144			; 00000090H
  0001c	56		 push	 esi
  0001d	e8 00 00 00 00	 call	 ??3@YAXPAXI@Z		; operator delete
  00022	83 c4 08	 add	 esp, 8
$LN7@scalar:
  00025	8b c6		 mov	 eax, esi
  00027	5e		 pop	 esi
  00028	5d		 pop	 ebp
  00029	c2 04 00	 ret	 4
??_GCCoolTimeFinishEffect@CSlotWindow@UI@@UAEPAXI@Z ENDP ; UI::CSlotWindow::CCoolTimeFinishEffect::`scalar deleting destructor'
_TEXT	ENDS
; Function compile flags: /Ogtp
; File C:\DS Project\DS Files\Source\ClientSource\Client\eterPythonLib\PythonSlotWindow.cpp
;	COMDAT ?OnEndFrame@CCoolTimeFinishEffect@CSlotWindow@UI@@UAEXXZ
_TEXT	SEGMENT
?OnEndFrame@CCoolTimeFinishEffect@CSlotWindow@UI@@UAEXXZ PROC ; UI::CSlotWindow::CCoolTimeFinishEffect::OnEndFrame, COMDAT
; _this$ = ecx

; 189  : 			((CSlotWindow *)m_pParent)->ReserveDestroyCoolTimeFinishEffect(m_dwSlotIndex);

  00000	ff b1 8c 00 00
	00		 push	 DWORD PTR [ecx+140]
  00006	8b 49 60	 mov	 ecx, DWORD PTR [ecx+96]
  00009	e8 00 00 00 00	 call	 ?ReserveDestroyCoolTimeFinishEffect@CSlotWindow@UI@@QAEXK@Z ; UI::CSlotWindow::ReserveDestroyCoolTimeFinishEffect

; 190  : 		}

  0000e	c3		 ret	 0
?OnEndFrame@CCoolTimeFinishEffect@CSlotWindow@UI@@UAEXXZ ENDP ; UI::CSlotWindow::CCoolTimeFinishEffect::OnEndFrame
_TEXT	ENDS
; Function compile flags: /Ogtp
; File C:\DS Project\DS Files\Source\ClientSource\Client\eterPythonLib\PythonSlotWindow.cpp
;	COMDAT ??1CCoolTimeFinishEffect@CSlotWindow@UI@@UAE@XZ
_TEXT	SEGMENT
??1CCoolTimeFinishEffect@CSlotWindow@UI@@UAE@XZ PROC	; UI::CSlotWindow::CCoolTimeFinishEffect::~CCoolTimeFinishEffect, COMDAT
; _this$ = ecx

; 184  : 		{

  00000	c7 01 00 00 00
	00		 mov	 DWORD PTR [ecx], OFFSET ??_7CCoolTimeFinishEffect@CSlotWindow@UI@@6B@

; 185  : 		}

  00006	e9 00 00 00 00	 jmp	 ??1CAniImageBox@UI@@UAE@XZ ; UI::CAniImageBox::~CAniImageBox
??1CCoolTimeFinishEffect@CSlotWindow@UI@@UAE@XZ ENDP	; UI::CSlotWindow::CCoolTimeFinishEffect::~CCoolTimeFinishEffect
_TEXT	ENDS
; Function compile flags: /Ogtp
; File C:\DS Project\DS Files\Source\ClientSource\Client\eterPythonLib\PythonSlotWindow.cpp
;	COMDAT ??_GCCoverButton@CSlotWindow@UI@@UAEPAXI@Z
_TEXT	SEGMENT
___flags$ = 8						; size = 4
??_GCCoverButton@CSlotWindow@UI@@UAEPAXI@Z PROC		; UI::CSlotWindow::CCoverButton::`scalar deleting destructor', COMDAT
; _this$ = ecx
  00000	55		 push	 ebp
  00001	8b ec		 mov	 ebp, esp

; 28   : 		{

  00003	56		 push	 esi
  00004	8b f1		 mov	 esi, ecx
  00006	c7 06 00 00 00
	00		 mov	 DWORD PTR [esi], OFFSET ??_7CSlotButton@CSlotWindow@UI@@6B@

; 29   : 		}

  0000c	e8 00 00 00 00	 call	 ??1CButton@UI@@UAE@XZ	; UI::CButton::~CButton
  00011	f6 45 08 01	 test	 BYTE PTR ___flags$[ebp], 1
  00015	74 0e		 je	 SHORT $LN10@scalar
  00017	68 20 01 00 00	 push	 288			; 00000120H
  0001c	56		 push	 esi
  0001d	e8 00 00 00 00	 call	 ??3@YAXPAXI@Z		; operator delete
  00022	83 c4 08	 add	 esp, 8
$LN10@scalar:
  00025	8b c6		 mov	 eax, esi
  00027	5e		 pop	 esi
  00028	5d		 pop	 ebp
  00029	c2 04 00	 ret	 4
??_GCCoverButton@CSlotWindow@UI@@UAEPAXI@Z ENDP		; UI::CSlotWindow::CCoverButton::`scalar deleting destructor'
_TEXT	ENDS
; Function compile flags: /Ogtp
; File C:\DS Project\DS Files\Source\ClientSource\Client\eterPythonLib\PythonSlotWindow.cpp
;	COMDAT ?OnMouseRightButtonUp@CCoverButton@CSlotWindow@UI@@UAEHXZ
_TEXT	SEGMENT
?OnMouseRightButtonUp@CCoverButton@CSlotWindow@UI@@UAEHXZ PROC ; UI::CSlotWindow::CCoverButton::OnMouseRightButtonUp, COMDAT
; _this$ = ecx

; 157  : 		{

  00000	56		 push	 esi
  00001	8b f1		 mov	 esi, ecx

; 158  : 			if (!IsEnable())

  00003	e8 00 00 00 00	 call	 ?IsEnable@CButton@UI@@IAEHXZ ; UI::CButton::IsEnable
  00008	85 c0		 test	 eax, eax
  0000a	74 1b		 je	 SHORT $LN6@OnMouseRig

; 159  : 				return TRUE;
; 160  : 			m_pParent->OnMouseRightButtonDown();

  0000c	8b 8e 14 01 00
	00		 mov	 ecx, DWORD PTR [esi+276]
  00012	8b 01		 mov	 eax, DWORD PTR [ecx]
  00014	ff 50 64	 call	 DWORD PTR [eax+100]

; 161  : 			if (m_bRightButtonEnable)

  00017	83 be 1c 01 00
	00 00		 cmp	 DWORD PTR [esi+284], 0
  0001e	74 07		 je	 SHORT $LN6@OnMouseRig

; 162  : 				CButton::OnMouseLeftButtonUp();

  00020	8b ce		 mov	 ecx, esi
  00022	e8 00 00 00 00	 call	 ?OnMouseLeftButtonUp@CButton@UI@@MAEHXZ ; UI::CButton::OnMouseLeftButtonUp
$LN6@OnMouseRig:

; 163  : 			return TRUE;
; 164  : 		}

  00027	b8 01 00 00 00	 mov	 eax, 1
  0002c	5e		 pop	 esi
  0002d	c3		 ret	 0
?OnMouseRightButtonUp@CCoverButton@CSlotWindow@UI@@UAEHXZ ENDP ; UI::CSlotWindow::CCoverButton::OnMouseRightButtonUp
_TEXT	ENDS
; Function compile flags: /Ogtp
; File C:\DS Project\DS Files\Source\ClientSource\Client\eterPythonLib\PythonSlotWindow.cpp
;	COMDAT ?OnMouseRightButtonDown@CCoverButton@CSlotWindow@UI@@UAEHXZ
_TEXT	SEGMENT
?OnMouseRightButtonDown@CCoverButton@CSlotWindow@UI@@UAEHXZ PROC ; UI::CSlotWindow::CCoverButton::OnMouseRightButtonDown, COMDAT
; _this$ = ecx

; 149  : 		{

  00000	56		 push	 esi
  00001	8b f1		 mov	 esi, ecx

; 150  : 			if (!IsEnable())

  00003	e8 00 00 00 00	 call	 ?IsEnable@CButton@UI@@IAEHXZ ; UI::CButton::IsEnable
  00008	85 c0		 test	 eax, eax
  0000a	74 10		 je	 SHORT $LN6@OnMouseRig

; 151  : 				return TRUE;
; 152  : 			if (m_bRightButtonEnable)

  0000c	83 be 1c 01 00
	00 00		 cmp	 DWORD PTR [esi+284], 0
  00013	74 07		 je	 SHORT $LN6@OnMouseRig

; 153  : 				CButton::OnMouseLeftButtonDown();

  00015	8b ce		 mov	 ecx, esi
  00017	e8 00 00 00 00	 call	 ?OnMouseLeftButtonDown@CButton@UI@@MAEHXZ ; UI::CButton::OnMouseLeftButtonDown
$LN6@OnMouseRig:

; 154  : 			return TRUE;
; 155  : 		}

  0001c	b8 01 00 00 00	 mov	 eax, 1
  00021	5e		 pop	 esi
  00022	c3		 ret	 0
?OnMouseRightButtonDown@CCoverButton@CSlotWindow@UI@@UAEHXZ ENDP ; UI::CSlotWindow::CCoverButton::OnMouseRightButtonDown
_TEXT	ENDS
; Function compile flags: /Ogtp
; File C:\DS Project\DS Files\Source\ClientSource\Client\eterPythonLib\PythonSlotWindow.cpp
;	COMDAT ?OnMouseLeftButtonUp@CCoverButton@CSlotWindow@UI@@UAEHXZ
_TEXT	SEGMENT
?OnMouseLeftButtonUp@CCoverButton@CSlotWindow@UI@@UAEHXZ PROC ; UI::CSlotWindow::CCoverButton::OnMouseLeftButtonUp, COMDAT
; _this$ = ecx

; 133  : 		{

  00000	56		 push	 esi
  00001	8b f1		 mov	 esi, ecx

; 134  : 			if (!IsEnable())

  00003	e8 00 00 00 00	 call	 ?IsEnable@CButton@UI@@IAEHXZ ; UI::CButton::IsEnable
  00008	85 c0		 test	 eax, eax
  0000a	74 2d		 je	 SHORT $LN6@OnMouseLef

; 135  : 				return TRUE;
; 136  : 			if (m_bLeftButtonEnable)

  0000c	83 be 18 01 00
	00 00		 cmp	 DWORD PTR [esi+280], 0
  00013	74 19		 je	 SHORT $LN3@OnMouseLef

; 137  : 			{
; 138  : 				CButton::OnMouseLeftButtonUp();

  00015	8b ce		 mov	 ecx, esi
  00017	e8 00 00 00 00	 call	 ?OnMouseLeftButtonUp@CButton@UI@@MAEHXZ ; UI::CButton::OnMouseLeftButtonUp

; 139  : 				m_pParent->OnMouseLeftButtonDown();

  0001c	8b 8e 14 01 00
	00		 mov	 ecx, DWORD PTR [esi+276]
  00022	8b 01		 mov	 eax, DWORD PTR [ecx]
  00024	ff 50 58	 call	 DWORD PTR [eax+88]

; 144  : 			}
; 145  : 			return TRUE;
; 146  : 		}

  00027	b8 01 00 00 00	 mov	 eax, 1
  0002c	5e		 pop	 esi
  0002d	c3		 ret	 0
$LN3@OnMouseLef:

; 140  : 			}
; 141  : 			else
; 142  : 			{
; 143  : 				m_pParent->OnMouseLeftButtonUp();

  0002e	8b 8e 14 01 00
	00		 mov	 ecx, DWORD PTR [esi+276]
  00034	8b 01		 mov	 eax, DWORD PTR [ecx]
  00036	ff 50 5c	 call	 DWORD PTR [eax+92]
$LN6@OnMouseLef:

; 144  : 			}
; 145  : 			return TRUE;
; 146  : 		}

  00039	b8 01 00 00 00	 mov	 eax, 1
  0003e	5e		 pop	 esi
  0003f	c3		 ret	 0
?OnMouseLeftButtonUp@CCoverButton@CSlotWindow@UI@@UAEHXZ ENDP ; UI::CSlotWindow::CCoverButton::OnMouseLeftButtonUp
_TEXT	ENDS
; Function compile flags: /Ogtp
; File C:\DS Project\DS Files\Source\ClientSource\Client\eterPythonLib\PythonSlotWindow.cpp
;	COMDAT ?OnMouseLeftButtonDown@CCoverButton@CSlotWindow@UI@@UAEHXZ
_TEXT	SEGMENT
?OnMouseLeftButtonDown@CCoverButton@CSlotWindow@UI@@UAEHXZ PROC ; UI::CSlotWindow::CCoverButton::OnMouseLeftButtonDown, COMDAT
; _this$ = ecx

; 119  : 		{

  00000	56		 push	 esi
  00001	8b f1		 mov	 esi, ecx

; 120  : 			if (!IsEnable())

  00003	e8 00 00 00 00	 call	 ?IsEnable@CButton@UI@@IAEHXZ ; UI::CButton::IsEnable
  00008	85 c0		 test	 eax, eax
  0000a	74 22		 je	 SHORT $LN6@OnMouseLef

; 121  : 				return TRUE;
; 122  : 			if (m_bLeftButtonEnable)

  0000c	83 be 18 01 00
	00 00		 cmp	 DWORD PTR [esi+280], 0
  00013	74 0e		 je	 SHORT $LN3@OnMouseLef

; 123  : 			{
; 124  : 				CButton::OnMouseLeftButtonDown();

  00015	8b ce		 mov	 ecx, esi
  00017	e8 00 00 00 00	 call	 ?OnMouseLeftButtonDown@CButton@UI@@MAEHXZ ; UI::CButton::OnMouseLeftButtonDown

; 129  : 			}
; 130  : 			return TRUE;
; 131  : 		}

  0001c	b8 01 00 00 00	 mov	 eax, 1
  00021	5e		 pop	 esi
  00022	c3		 ret	 0
$LN3@OnMouseLef:

; 125  : 			}
; 126  : 			else
; 127  : 			{
; 128  : 				m_pParent->OnMouseLeftButtonDown();

  00023	8b 8e 14 01 00
	00		 mov	 ecx, DWORD PTR [esi+276]
  00029	8b 01		 mov	 eax, DWORD PTR [ecx]
  0002b	ff 50 58	 call	 DWORD PTR [eax+88]
$LN6@OnMouseLef:

; 129  : 			}
; 130  : 			return TRUE;
; 131  : 		}

  0002e	b8 01 00 00 00	 mov	 eax, 1
  00033	5e		 pop	 esi
  00034	c3		 ret	 0
?OnMouseLeftButtonDown@CCoverButton@CSlotWindow@UI@@UAEHXZ ENDP ; UI::CSlotWindow::CCoverButton::OnMouseLeftButtonDown
_TEXT	ENDS
; Function compile flags: /Ogtp
; File C:\DS Project\DS Files\Source\ClientSource\Client\eterPythonLib\PythonSlotWindow.cpp
;	COMDAT ?OnRender@CCoverButton@CSlotWindow@UI@@UAEXXZ
_TEXT	SEGMENT
?OnRender@CCoverButton@CSlotWindow@UI@@UAEXXZ PROC	; UI::CSlotWindow::CCoverButton::OnRender, COMDAT
; _this$ = ecx

; 111  : 		}

  00000	c2 00 00	 ret	 0
?OnRender@CCoverButton@CSlotWindow@UI@@UAEXXZ ENDP	; UI::CSlotWindow::CCoverButton::OnRender
_TEXT	ENDS
; Function compile flags: /Ogtp
; File C:\DS Project\DS Files\Source\ClientSource\Client\eterPythonLib\PythonSlotWindow.cpp
;	COMDAT ??1CCoverButton@CSlotWindow@UI@@UAE@XZ
_TEXT	SEGMENT
??1CCoverButton@CSlotWindow@UI@@UAE@XZ PROC		; UI::CSlotWindow::CCoverButton::~CCoverButton, COMDAT
; _this$ = ecx

; 28   : 		{

  00000	c7 01 00 00 00
	00		 mov	 DWORD PTR [ecx], OFFSET ??_7CSlotButton@CSlotWindow@UI@@6B@

; 29   : 		}

  00006	e9 00 00 00 00	 jmp	 ??1CButton@UI@@UAE@XZ	; UI::CButton::~CButton
??1CCoverButton@CSlotWindow@UI@@UAE@XZ ENDP		; UI::CSlotWindow::CCoverButton::~CCoverButton
_TEXT	ENDS
; Function compile flags: /Ogtp
; File C:\DS Project\DS Files\Source\ClientSource\Client\eterPythonLib\PythonSlotWindow.cpp
;	COMDAT ??_GCSlotButton@CSlotWindow@UI@@UAEPAXI@Z
_TEXT	SEGMENT
___flags$ = 8						; size = 4
??_GCSlotButton@CSlotWindow@UI@@UAEPAXI@Z PROC		; UI::CSlotWindow::CSlotButton::`scalar deleting destructor', COMDAT
; _this$ = ecx
  00000	55		 push	 ebp
  00001	8b ec		 mov	 ebp, esp

; 28   : 		{

  00003	56		 push	 esi
  00004	8b f1		 mov	 esi, ecx
  00006	c7 06 00 00 00
	00		 mov	 DWORD PTR [esi], OFFSET ??_7CSlotButton@CSlotWindow@UI@@6B@

; 29   : 		}

  0000c	e8 00 00 00 00	 call	 ??1CButton@UI@@UAE@XZ	; UI::CButton::~CButton
  00011	f6 45 08 01	 test	 BYTE PTR ___flags$[ebp], 1
  00015	74 0e		 je	 SHORT $LN7@scalar
  00017	68 18 01 00 00	 push	 280			; 00000118H
  0001c	56		 push	 esi
  0001d	e8 00 00 00 00	 call	 ??3@YAXPAXI@Z		; operator delete
  00022	83 c4 08	 add	 esp, 8
$LN7@scalar:
  00025	8b c6		 mov	 eax, esi
  00027	5e		 pop	 esi
  00028	5d		 pop	 ebp
  00029	c2 04 00	 ret	 4
??_GCSlotButton@CSlotWindow@UI@@UAEPAXI@Z ENDP		; UI::CSlotWindow::CSlotButton::`scalar deleting destructor'
_TEXT	ENDS
; Function compile flags: /Ogtp
; File C:\DS Project\DS Files\Source\ClientSource\Client\eterPythonLib\PythonSlotWindow.cpp
;	COMDAT ?OnMouseOverOut@CSlotButton@CSlotWindow@UI@@UAEXXZ
_TEXT	SEGMENT
?OnMouseOverOut@CSlotButton@CSlotWindow@UI@@UAEXXZ PROC	; UI::CSlotWindow::CSlotButton::OnMouseOverOut, COMDAT
; _this$ = ecx

; 69   : 		{

  00000	56		 push	 esi
  00001	8b f1		 mov	 esi, ecx

; 70   : 			if (IsEnable())

  00003	e8 00 00 00 00	 call	 ?IsEnable@CButton@UI@@IAEHXZ ; UI::CButton::IsEnable
  00008	85 c0		 test	 eax, eax
  0000a	74 15		 je	 SHORT $LN2@OnMouseOve

; 71   : 			{
; 72   : 				SetUp();

  0000c	8b ce		 mov	 ecx, esi
  0000e	e8 00 00 00 00	 call	 ?SetUp@CButton@UI@@QAEXXZ ; UI::CButton::SetUp

; 73   : 				SetCurrentVisual(&m_upVisual);

  00013	8d 86 8c 00 00
	00		 lea	 eax, DWORD PTR [esi+140]
  00019	8b ce		 mov	 ecx, esi
  0001b	50		 push	 eax
  0001c	e8 00 00 00 00	 call	 ?SetCurrentVisual@CButton@UI@@IAEXPAVCGraphicImageInstance@@@Z ; UI::CButton::SetCurrentVisual
$LN2@OnMouseOve:

; 74   : 			}
; 75   : 			m_pParent->OnOverOutItem();

  00021	8b 8e 14 01 00
	00		 mov	 ecx, DWORD PTR [esi+276]
  00027	5e		 pop	 esi
  00028	e9 00 00 00 00	 jmp	 ?OnOverOutItem@CSlotWindow@UI@@QAEXXZ ; UI::CSlotWindow::OnOverOutItem
?OnMouseOverOut@CSlotButton@CSlotWindow@UI@@UAEXXZ ENDP	; UI::CSlotWindow::CSlotButton::OnMouseOverOut
_TEXT	ENDS
; Function compile flags: /Ogtp
; File C:\DS Project\DS Files\Source\ClientSource\Client\eterPythonLib\PythonSlotWindow.cpp
;	COMDAT ?OnMouseOverIn@CSlotButton@CSlotWindow@UI@@UAEXXZ
_TEXT	SEGMENT
?OnMouseOverIn@CSlotButton@CSlotWindow@UI@@UAEXXZ PROC	; UI::CSlotWindow::CSlotButton::OnMouseOverIn, COMDAT
; _this$ = ecx

; 61   : 		{

  00000	56		 push	 esi
  00001	8b f1		 mov	 esi, ecx

; 62   : 			if (IsEnable())

  00003	e8 00 00 00 00	 call	 ?IsEnable@CButton@UI@@IAEHXZ ; UI::CButton::IsEnable
  00008	85 c0		 test	 eax, eax
  0000a	74 0e		 je	 SHORT $LN2@OnMouseOve

; 63   : 			{
; 64   : 				SetCurrentVisual(&m_overVisual);

  0000c	8d 86 ac 00 00
	00		 lea	 eax, DWORD PTR [esi+172]
  00012	8b ce		 mov	 ecx, esi
  00014	50		 push	 eax
  00015	e8 00 00 00 00	 call	 ?SetCurrentVisual@CButton@UI@@IAEXPAVCGraphicImageInstance@@@Z ; UI::CButton::SetCurrentVisual
$LN2@OnMouseOve:

; 65   : 			}
; 66   : 			m_pParent->OnOverInItem(m_dwSlotNumber);

  0001a	ff b6 10 01 00
	00		 push	 DWORD PTR [esi+272]
  00020	8b 8e 14 01 00
	00		 mov	 ecx, DWORD PTR [esi+276]
  00026	e8 00 00 00 00	 call	 ?OnOverInItem@CSlotWindow@UI@@QAEHK@Z ; UI::CSlotWindow::OnOverInItem
  0002b	5e		 pop	 esi

; 67   : 		}

  0002c	c3		 ret	 0
?OnMouseOverIn@CSlotButton@CSlotWindow@UI@@UAEXXZ ENDP	; UI::CSlotWindow::CSlotButton::OnMouseOverIn
_TEXT	ENDS
; Function compile flags: /Ogtp
; File C:\DS Project\DS Files\Source\ClientSource\Client\eterPythonLib\PythonSlotWindow.cpp
;	COMDAT ?OnMouseLeftButtonUp@CSlotButton@CSlotWindow@UI@@UAEHXZ
_TEXT	SEGMENT
?OnMouseLeftButtonUp@CSlotButton@CSlotWindow@UI@@UAEHXZ PROC ; UI::CSlotWindow::CSlotButton::OnMouseLeftButtonUp, COMDAT
; _this$ = ecx

; 44   : 		{

  00000	56		 push	 esi
  00001	8b f1		 mov	 esi, ecx

; 45   : 			if (!IsEnable())

  00003	e8 00 00 00 00	 call	 ?IsEnable@CButton@UI@@IAEHXZ ; UI::CButton::IsEnable
  00008	85 c0		 test	 eax, eax
  0000a	74 45		 je	 SHORT $LN7@OnMouseLef

; 46   : 				return TRUE;
; 47   : 			if (!IsPressed())

  0000c	8b ce		 mov	 ecx, esi
  0000e	e8 00 00 00 00	 call	 ?IsPressed@CButton@UI@@QAEHXZ ; UI::CButton::IsPressed
  00013	85 c0		 test	 eax, eax
  00015	74 3a		 je	 SHORT $LN7@OnMouseLef

; 48   : 				return TRUE;
; 49   : 
; 50   : 			if (IsIn())

  00017	8b ce		 mov	 ecx, esi
  00019	e8 00 00 00 00	 call	 ?IsIn@CWindow@UI@@QAE_NXZ ; UI::CWindow::IsIn
  0001e	84 c0		 test	 al, al
  00020	ba ac 00 00 00	 mov	 edx, 172		; 000000acH
  00025	b9 8c 00 00 00	 mov	 ecx, 140		; 0000008cH
  0002a	0f 45 ca	 cmovne	 ecx, edx

; 51   : 				SetCurrentVisual(&m_overVisual);
; 52   : 			else
; 53   : 				SetCurrentVisual(&m_upVisual);
; 54   : 
; 55   : 			m_pParent->OnPressedSlotButton(m_dwSlotButtonType, m_dwSlotNumber);

  0002d	8d 04 31	 lea	 eax, DWORD PTR [ecx+esi]
  00030	8b ce		 mov	 ecx, esi
  00032	50		 push	 eax
  00033	e8 00 00 00 00	 call	 ?SetCurrentVisual@CButton@UI@@IAEXPAVCGraphicImageInstance@@@Z ; UI::CButton::SetCurrentVisual
  00038	8b 8e 14 01 00
	00		 mov	 ecx, DWORD PTR [esi+276]
  0003e	6a 01		 push	 1
  00040	ff b6 10 01 00
	00		 push	 DWORD PTR [esi+272]
  00046	ff b6 0c 01 00
	00		 push	 DWORD PTR [esi+268]
  0004c	e8 00 00 00 00	 call	 ?OnPressedSlotButton@CSlotWindow@UI@@QAEXKKH@Z ; UI::CSlotWindow::OnPressedSlotButton
$LN7@OnMouseLef:

; 56   : 
; 57   : 			return TRUE;
; 58   : 		}

  00051	b8 01 00 00 00	 mov	 eax, 1
  00056	5e		 pop	 esi
  00057	c3		 ret	 0
?OnMouseLeftButtonUp@CSlotButton@CSlotWindow@UI@@UAEHXZ ENDP ; UI::CSlotWindow::CSlotButton::OnMouseLeftButtonUp
_TEXT	ENDS
; Function compile flags: /Ogtp
; File C:\DS Project\DS Files\Source\ClientSource\Client\eterPythonLib\PythonSlotWindow.cpp
;	COMDAT ?OnMouseLeftButtonDown@CSlotButton@CSlotWindow@UI@@UAEHXZ
_TEXT	SEGMENT
?OnMouseLeftButtonDown@CSlotButton@CSlotWindow@UI@@UAEHXZ PROC ; UI::CSlotWindow::CSlotButton::OnMouseLeftButtonDown, COMDAT
; _this$ = ecx

; 32   : 		{

  00000	56		 push	 esi
  00001	8b f1		 mov	 esi, ecx

; 33   : 			if (!IsEnable())

  00003	e8 00 00 00 00	 call	 ?IsEnable@CButton@UI@@IAEHXZ ; UI::CButton::IsEnable
  00008	85 c0		 test	 eax, eax
  0000a	74 20		 je	 SHORT $LN5@OnMouseLef

; 34   : 				return TRUE;
; 35   : 			if (UI::CWindowManager::Instance().IsAttaching())

  0000c	8b 0d 00 00 00
	00		 mov	 ecx, DWORD PTR ?ms_singleton@?$CSingleton@VCWindowManager@UI@@@@0PAVCWindowManager@UI@@A ; CSingleton<UI::CWindowManager>::ms_singleton
  00012	e8 00 00 00 00	 call	 ?IsAttaching@CWindowManager@UI@@QAEHXZ ; UI::CWindowManager::IsAttaching
  00017	85 c0		 test	 eax, eax
  00019	75 11		 jne	 SHORT $LN5@OnMouseLef

; 36   : 				return TRUE;
; 37   : 
; 38   : 			m_isPressed = TRUE;
; 39   : 			Down();

  0001b	8b ce		 mov	 ecx, esi
  0001d	c7 86 80 00 00
	00 01 00 00 00	 mov	 DWORD PTR [esi+128], 1
  00027	e8 00 00 00 00	 call	 ?Down@CButton@UI@@QAEXXZ ; UI::CButton::Down
$LN5@OnMouseLef:

; 40   : 
; 41   : 			return TRUE;
; 42   : 		}

  0002c	b8 01 00 00 00	 mov	 eax, 1
  00031	5e		 pop	 esi
  00032	c3		 ret	 0
?OnMouseLeftButtonDown@CSlotButton@CSlotWindow@UI@@UAEHXZ ENDP ; UI::CSlotWindow::CSlotButton::OnMouseLeftButtonDown
_TEXT	ENDS
; Function compile flags: /Ogtp
; File C:\DS Project\DS Files\Source\ClientSource\Client\eterPythonLib\PythonSlotWindow.cpp
;	COMDAT ??1CSlotButton@CSlotWindow@UI@@UAE@XZ
_TEXT	SEGMENT
??1CSlotButton@CSlotWindow@UI@@UAE@XZ PROC		; UI::CSlotWindow::CSlotButton::~CSlotButton, COMDAT
; _this$ = ecx

; 28   : 		{

  00000	c7 01 00 00 00
	00		 mov	 DWORD PTR [ecx], OFFSET ??_7CSlotButton@CSlotWindow@UI@@6B@

; 29   : 		}

  00006	e9 00 00 00 00	 jmp	 ??1CButton@UI@@UAE@XZ	; UI::CButton::~CButton
??1CSlotButton@CSlotWindow@UI@@UAE@XZ ENDP		; UI::CSlotWindow::CSlotButton::~CSlotButton
_TEXT	ENDS
; Function compile flags: /Ogtp
;	COMDAT ??_GCSlotWindow@UI@@UAEPAXI@Z
_TEXT	SEGMENT
___flags$ = 8						; size = 4
??_GCSlotWindow@UI@@UAEPAXI@Z PROC			; UI::CSlotWindow::`scalar deleting destructor', COMDAT
; _this$ = ecx
  00000	55		 push	 ebp
  00001	8b ec		 mov	 ebp, esp
  00003	56		 push	 esi
  00004	8b f1		 mov	 esi, ecx
  00006	e8 00 00 00 00	 call	 ??1CSlotWindow@UI@@UAE@XZ ; UI::CSlotWindow::~CSlotWindow
  0000b	f6 45 08 01	 test	 BYTE PTR ___flags$[ebp], 1
  0000f	74 0e		 je	 SHORT $LN4@scalar
  00011	68 c8 00 00 00	 push	 200			; 000000c8H
  00016	56		 push	 esi
  00017	e8 00 00 00 00	 call	 ??3@YAXPAXI@Z		; operator delete
  0001c	83 c4 08	 add	 esp, 8
$LN4@scalar:
  0001f	8b c6		 mov	 eax, esi
  00021	5e		 pop	 esi
  00022	5d		 pop	 ebp
  00023	c2 04 00	 ret	 4
??_GCSlotWindow@UI@@UAEPAXI@Z ENDP			; UI::CSlotWindow::`scalar deleting destructor'
_TEXT	ENDS
; Function compile flags: /Ogtp
; File C:\Program Files (x86)\Microsoft Visual Studio\2019\Community\VC\Tools\MSVC\14.27.29110\include\deque
; File C:\Program Files (x86)\Microsoft Visual Studio\2019\Community\VC\Tools\MSVC\14.27.29110\include\xmemory
; File C:\Program Files (x86)\Microsoft Visual Studio\2019\Community\VC\Tools\MSVC\14.27.29110\include\deque
; File C:\Program Files (x86)\Microsoft Visual Studio\2019\Community\VC\Tools\MSVC\14.27.29110\include\xmemory
; File C:\Program Files (x86)\Microsoft Visual Studio\2019\Community\VC\Tools\MSVC\14.27.29110\include\deque
;	COMDAT ?_Tidy@?$deque@KV?$allocator@K@std@@@std@@AAEXXZ
_TEXT	SEGMENT
?_Tidy@?$deque@KV?$allocator@K@std@@@std@@AAEXXZ PROC	; std::deque<unsigned long,std::allocator<unsigned long> >::_Tidy, COMDAT
; _this$ = ecx

; 1464 :     void _Tidy() noexcept { // free all storage

  00000	56		 push	 esi
  00001	8b f1		 mov	 esi, ecx

; 1009 :         return _Mysize() == 0;

  00003	8b 4e 10	 mov	 ecx, DWORD PTR [esi+16]
  00006	85 c9		 test	 ecx, ecx

; 1465 :         _Orphan_all();
; 1466 : 
; 1467 :         _Alpty _Almap(_Getal());
; 1468 :         while (!empty()) {

  00008	74 15		 je	 SHORT $LN30@Tidy
  0000a	66 0f 1f 44 00
	00		 npad	 6
$LL2@Tidy:

; 1143 :         if (--_Mysize() == 0) {

  00010	8d 41 ff	 lea	 eax, DWORD PTR [ecx-1]
  00013	89 46 10	 mov	 DWORD PTR [esi+16], eax
  00016	8b c8		 mov	 ecx, eax
  00018	85 c0		 test	 eax, eax
  0001a	75 f4		 jne	 SHORT $LL2@Tidy

; 1144 :             _Myoff() = 0;

  0001c	89 46 0c	 mov	 DWORD PTR [esi+12], eax
$LN30@Tidy:
  0001f	57		 push	 edi

; 1472 :         for (size_type _Block = _Mapsize(); 0 < _Block;) { // free storage for a block and destroy pointer

  00020	8b 7e 08	 mov	 edi, DWORD PTR [esi+8]
  00023	85 ff		 test	 edi, edi
  00025	74 1a		 je	 SHORT $LN5@Tidy
$LL25@Tidy:

; 1473 :             if (_Map()[--_Block]) { // free block and destroy its pointer

  00027	8b 46 04	 mov	 eax, DWORD PTR [esi+4]
  0002a	4f		 dec	 edi
  0002b	8b 04 b8	 mov	 eax, DWORD PTR [eax+edi*4]
  0002e	85 c0		 test	 eax, eax
  00030	74 0b		 je	 SHORT $LN7@Tidy
; File C:\Program Files (x86)\Microsoft Visual Studio\2019\Community\VC\Tools\MSVC\14.27.29110\include\xmemory

; 803  :         _Deallocate<_New_alignof<_Ty>>(_Ptr, sizeof(_Ty) * _Count);

  00032	6a 10		 push	 16			; 00000010H
  00034	50		 push	 eax
  00035	e8 00 00 00 00	 call	 ??$_Deallocate@$07$0A@@std@@YAXPAXI@Z ; std::_Deallocate<8,0>
  0003a	83 c4 08	 add	 esp, 8
$LN7@Tidy:
; File C:\Program Files (x86)\Microsoft Visual Studio\2019\Community\VC\Tools\MSVC\14.27.29110\include\deque

; 1472 :         for (size_type _Block = _Mapsize(); 0 < _Block;) { // free storage for a block and destroy pointer

  0003d	85 ff		 test	 edi, edi
  0003f	75 e6		 jne	 SHORT $LL25@Tidy
$LN5@Tidy:

; 1474 :                 _Getal().deallocate(_Map()[_Block], _DEQUESIZ);
; 1475 :                 _Destroy_in_place(_Map()[_Block]);
; 1476 :             }
; 1477 :         }
; 1478 : 
; 1479 :         if (_Map() != _Mapptr()) {

  00041	8b 4e 04	 mov	 ecx, DWORD PTR [esi+4]
  00044	5f		 pop	 edi
  00045	85 c9		 test	 ecx, ecx
  00047	74 10		 je	 SHORT $LN32@Tidy
; File C:\Program Files (x86)\Microsoft Visual Studio\2019\Community\VC\Tools\MSVC\14.27.29110\include\xmemory

; 803  :         _Deallocate<_New_alignof<_Ty>>(_Ptr, sizeof(_Ty) * _Count);

  00049	8b 46 08	 mov	 eax, DWORD PTR [esi+8]
  0004c	c1 e0 02	 shl	 eax, 2
  0004f	50		 push	 eax
  00050	51		 push	 ecx
  00051	e8 00 00 00 00	 call	 ??$_Deallocate@$07$0A@@std@@YAXPAXI@Z ; std::_Deallocate<8,0>
  00056	83 c4 08	 add	 esp, 8
$LN32@Tidy:
; File C:\Program Files (x86)\Microsoft Visual Studio\2019\Community\VC\Tools\MSVC\14.27.29110\include\deque

; 1485 :     }

  00059	c7 46 04 00 00
	00 00		 mov	 DWORD PTR [esi+4], 0
  00060	c7 46 08 00 00
	00 00		 mov	 DWORD PTR [esi+8], 0
  00067	5e		 pop	 esi
  00068	c3		 ret	 0
?_Tidy@?$deque@KV?$allocator@K@std@@@std@@AAEXXZ ENDP	; std::deque<unsigned long,std::allocator<unsigned long> >::_Tidy
_TEXT	ENDS
; Function compile flags: /Ogtp
; File C:\Program Files (x86)\Microsoft Visual Studio\2019\Community\VC\Tools\MSVC\14.27.29110\include\deque
;	COMDAT ?_Xlen@?$deque@KV?$allocator@K@std@@@std@@ABEXXZ
_TEXT	SEGMENT
?_Xlen@?$deque@KV?$allocator@K@std@@@std@@ABEXXZ PROC	; std::deque<unsigned long,std::allocator<unsigned long> >::_Xlen, COMDAT
; _this$ = ecx

; 1418 :         _Xlength_error("deque<T> too long");

  00000	68 00 00 00 00	 push	 OFFSET ??_C@_0BC@KBDMBKEH@deque?$DMT?$DO?5too?5long@
  00005	e8 00 00 00 00	 call	 ?_Xlength_error@std@@YAXPBD@Z ; std::_Xlength_error
$LN3@Xlen:
  0000a	cc		 int	 3
?_Xlen@?$deque@KV?$allocator@K@std@@@std@@ABEXXZ ENDP	; std::deque<unsigned long,std::allocator<unsigned long> >::_Xlen
_TEXT	ENDS
; Function compile flags: /Ogtp
; File C:\Program Files (x86)\Microsoft Visual Studio\2019\Community\VC\Tools\MSVC\14.27.29110\include\list
; File C:\Program Files (x86)\Microsoft Visual Studio\2019\Community\VC\Tools\MSVC\14.27.29110\include\xmemory
; File C:\Program Files (x86)\Microsoft Visual Studio\2019\Community\VC\Tools\MSVC\14.27.29110\include\list
; File C:\Program Files (x86)\Microsoft Visual Studio\2019\Community\VC\Tools\MSVC\14.27.29110\include\xmemory
; File C:\Program Files (x86)\Microsoft Visual Studio\2019\Community\VC\Tools\MSVC\14.27.29110\include\list
;	COMDAT ??1?$list@KV?$allocator@K@std@@@std@@QAE@XZ
_TEXT	SEGMENT
??1?$list@KV?$allocator@K@std@@@std@@QAE@XZ PROC	; std::list<unsigned long,std::allocator<unsigned long> >::~list<unsigned long,std::allocator<unsigned long> >, COMDAT
; _this$ = ecx

; 1045 :     ~list() noexcept {

  00000	57		 push	 edi
  00001	8b f9		 mov	 edi, ecx

; 1440 :         _Node::_Free_non_head(_Al, _My_data._Myhead);

  00003	8b 17		 mov	 edx, DWORD PTR [edi]

; 324  :         _Head->_Prev->_Next = nullptr;

  00005	8b 42 04	 mov	 eax, DWORD PTR [edx+4]
  00008	c7 00 00 00 00
	00		 mov	 DWORD PTR [eax], 0

; 325  : 
; 326  :         auto _Pnode = _Head->_Next;

  0000e	8b 02		 mov	 eax, DWORD PTR [edx]

; 327  :         for (_Nodeptr _Pnext; _Pnode; _Pnode = _Pnext) {

  00010	85 c0		 test	 eax, eax
  00012	74 15		 je	 SHORT $LN7@list
  00014	56		 push	 esi
$LL8@list:

; 328  :             _Pnext = _Pnode->_Next;

  00015	8b 30		 mov	 esi, DWORD PTR [eax]
; File C:\Program Files (x86)\Microsoft Visual Studio\2019\Community\VC\Tools\MSVC\14.27.29110\include\xmemory

; 689  :         _Deallocate<_New_alignof<value_type>>(_Ptr, sizeof(value_type) * _Count);

  00017	6a 0c		 push	 12			; 0000000cH
  00019	50		 push	 eax
  0001a	e8 00 00 00 00	 call	 ??$_Deallocate@$07$0A@@std@@YAXPAXI@Z ; std::_Deallocate<8,0>
  0001f	83 c4 08	 add	 esp, 8
; File C:\Program Files (x86)\Microsoft Visual Studio\2019\Community\VC\Tools\MSVC\14.27.29110\include\list

; 327  :         for (_Nodeptr _Pnext; _Pnode; _Pnode = _Pnext) {

  00022	8b c6		 mov	 eax, esi
  00024	85 f6		 test	 esi, esi
  00026	75 ed		 jne	 SHORT $LL8@list
  00028	5e		 pop	 esi
$LN7@list:
; File C:\Program Files (x86)\Microsoft Visual Studio\2019\Community\VC\Tools\MSVC\14.27.29110\include\xmemory

; 689  :         _Deallocate<_New_alignof<value_type>>(_Ptr, sizeof(value_type) * _Count);

  00029	6a 0c		 push	 12			; 0000000cH
  0002b	ff 37		 push	 DWORD PTR [edi]
  0002d	e8 00 00 00 00	 call	 ??$_Deallocate@$07$0A@@std@@YAXPAXI@Z ; std::_Deallocate<8,0>
  00032	83 c4 08	 add	 esp, 8
  00035	5f		 pop	 edi
; File C:\Program Files (x86)\Microsoft Visual Studio\2019\Community\VC\Tools\MSVC\14.27.29110\include\list

; 1051 :     }

  00036	c3		 ret	 0
??1?$list@KV?$allocator@K@std@@@std@@QAE@XZ ENDP	; std::list<unsigned long,std::allocator<unsigned long> >::~list<unsigned long,std::allocator<unsigned long> >
_TEXT	ENDS
; Function compile flags: /Ogtp
; File C:\DS Project\DS Files\Source\ClientSource\Client\eterPythonLib\PythonSlotWindow.cpp
;	COMDAT ?OnIsType@CSlotWindow@UI@@MAEHK@Z
_TEXT	SEGMENT
_dwType$ = 8						; size = 4
?OnIsType@CSlotWindow@UI@@MAEHK@Z PROC			; UI::CSlotWindow::OnIsType, COMDAT
; _this$ = ecx

; 1394 : {

  00000	55		 push	 ebp
  00001	8b ec		 mov	 ebp, esp
  00003	56		 push	 esi
  00004	8b f1		 mov	 esi, ecx

; 1395 : 	if (CSlotWindow::Type() == dwType)

  00006	e8 00 00 00 00	 call	 ?Type@CSlotWindow@UI@@SAKXZ ; UI::CSlotWindow::Type
  0000b	8b 55 08	 mov	 edx, DWORD PTR _dwType$[ebp]
  0000e	3b c2		 cmp	 eax, edx
  00010	75 0a		 jne	 SHORT $LN2@OnIsType

; 1396 : 		return TRUE;

  00012	b8 01 00 00 00	 mov	 eax, 1
  00017	5e		 pop	 esi

; 1399 : }

  00018	5d		 pop	 ebp
  00019	c2 04 00	 ret	 4
$LN2@OnIsType:

; 1397 : 
; 1398 : 	return CWindow::OnIsType(dwType);

  0001c	52		 push	 edx
  0001d	8b ce		 mov	 ecx, esi
  0001f	e8 00 00 00 00	 call	 ?OnIsType@CWindow@UI@@UAEHK@Z ; UI::CWindow::OnIsType
  00024	5e		 pop	 esi

; 1399 : }

  00025	5d		 pop	 ebp
  00026	c2 04 00	 ret	 4
?OnIsType@CSlotWindow@UI@@MAEHK@Z ENDP			; UI::CSlotWindow::OnIsType
_TEXT	ENDS
; Function compile flags: /Ogtp
; File C:\DS Project\DS Files\Source\ClientSource\Client\eterPythonLib\PythonSlotWindow.cpp
;	COMDAT ?OnRefreshSlot@CSlotWindow@UI@@MAEXXZ
_TEXT	SEGMENT
?OnRefreshSlot@CSlotWindow@UI@@MAEXXZ PROC		; UI::CSlotWindow::OnRefreshSlot, COMDAT
; _this$ = ecx

; 630  : }

  00000	c2 00 00	 ret	 0
?OnRefreshSlot@CSlotWindow@UI@@MAEXXZ ENDP		; UI::CSlotWindow::OnRefreshSlot
_TEXT	ENDS
; Function compile flags: /Ogtp
; File C:\DS Project\DS Files\Source\ClientSource\Client\eterPythonLib\PythonSlotWindow.cpp
;	COMDAT ?ClearSlot@CSlotWindow@UI@@IAEXPAUSSlot@12@@Z
_TEXT	SEGMENT
_pSlot$ = 8						; size = 4
?ClearSlot@CSlotWindow@UI@@IAEXPAUSSlot@12@@Z PROC	; UI::CSlotWindow::ClearSlot, COMDAT
; _this$ = ecx

; 565  : {

  00000	55		 push	 ebp
  00001	8b ec		 mov	 ebp, esp
  00003	56		 push	 esi
  00004	57		 push	 edi
  00005	8b 7d 08	 mov	 edi, DWORD PTR _pSlot$[ebp]

; 566  : 	pSlot->bActive = FALSE;
; 567  : 	pSlot->byxPlacedItemSize = 1;
; 568  : 	pSlot->byyPlacedItemSize = 1;
; 569  : 
; 570  : 	pSlot->isItem = FALSE;
; 571  : 	pSlot->dwState = 0;
; 572  : 	pSlot->fCoolTime = 0.0f;
; 573  : 	pSlot->fStartCoolTime = 0.0f;
; 574  : 	pSlot->dwCenterSlotNumber = 0xffffffff;
; 575  : 
; 576  : 	pSlot->dwItemIndex = 0;
; 577  : 	pSlot->bRenderBaseSlotImage = true;
; 578  : 
; 579  : 	if (pSlot->pInstance)

  00008	8b 47 34	 mov	 eax, DWORD PTR [edi+52]
  0000b	c7 47 1c 00 00
	00 00		 mov	 DWORD PTR [edi+28], 0
  00012	66 c7 47 30 01
	01		 mov	 WORD PTR [edi+48], 257	; 00000101H
  00018	c7 47 10 00 00
	00 00		 mov	 DWORD PTR [edi+16], 0
  0001f	c7 07 00 00 00
	00		 mov	 DWORD PTR [edi], 0
  00025	c7 47 14 00 00
	00 00		 mov	 DWORD PTR [edi+20], 0
  0002c	c7 47 18 00 00
	00 00		 mov	 DWORD PTR [edi+24], 0
  00033	c7 47 08 ff ff
	ff ff		 mov	 DWORD PTR [edi+8], -1
  0003a	c7 47 0c 00 00
	00 00		 mov	 DWORD PTR [edi+12], 0
  00041	c6 47 3c 01	 mov	 BYTE PTR [edi+60], 1
  00045	85 c0		 test	 eax, eax
  00047	74 10		 je	 SHORT $LN5@ClearSlot

; 580  : 	{
; 581  : 		CGraphicImageInstance::Delete(pSlot->pInstance);

  00049	50		 push	 eax
  0004a	e8 00 00 00 00	 call	 ?Delete@CGraphicImageInstance@@SAXPAV1@@Z ; CGraphicImageInstance::Delete
  0004f	83 c4 04	 add	 esp, 4

; 582  : 		pSlot->pInstance = NULL;

  00052	c7 47 34 00 00
	00 00		 mov	 DWORD PTR [edi+52], 0
$LN5@ClearSlot:

; 583  : 	}
; 584  : 	if (pSlot->pCoverButton)

  00059	8b 4f 40	 mov	 ecx, DWORD PTR [edi+64]
  0005c	85 c9		 test	 ecx, ecx
  0005e	74 05		 je	 SHORT $LN6@ClearSlot

; 585  : 	{
; 586  : 		pSlot->pCoverButton->Hide();

  00060	e8 00 00 00 00	 call	 ?Hide@CWindow@UI@@QAEXXZ ; UI::CWindow::Hide
$LN6@ClearSlot:

; 587  : 	}
; 588  : 	if (pSlot->pSlotButton)

  00065	8b 4f 44	 mov	 ecx, DWORD PTR [edi+68]
  00068	85 c9		 test	 ecx, ecx
  0006a	74 05		 je	 SHORT $LN7@ClearSlot

; 589  : 	{
; 590  : 		pSlot->pSlotButton->Hide();

  0006c	e8 00 00 00 00	 call	 ?Hide@CWindow@UI@@QAEXXZ ; UI::CWindow::Hide
$LN7@ClearSlot:

; 591  : 	}
; 592  : 	if (pSlot->pSignImage)

  00071	8b 4f 48	 mov	 ecx, DWORD PTR [edi+72]
  00074	85 c9		 test	 ecx, ecx
  00076	74 05		 je	 SHORT $LN8@ClearSlot

; 593  : 	{
; 594  :  		pSlot->pSignImage->Hide();

  00078	e8 00 00 00 00	 call	 ?Hide@CWindow@UI@@QAEXXZ ; UI::CWindow::Hide
$LN8@ClearSlot:

; 595  : 	}
; 596  : 	if (pSlot->pFinishCoolTimeEffect)

  0007d	8b 4f 4c	 mov	 ecx, DWORD PTR [edi+76]
  00080	85 c9		 test	 ecx, ecx
  00082	74 05		 je	 SHORT $LN9@ClearSlot

; 597  : 	{
; 598  : 		pSlot->pFinishCoolTimeEffect->Hide();

  00084	e8 00 00 00 00	 call	 ?Hide@CWindow@UI@@QAEXXZ ; UI::CWindow::Hide
$LN9@ClearSlot:

; 599  : 	}
; 600  : 
; 601  : #ifdef ENABLE_ACCE_SYSTEM
; 602  : 	for (auto& pEff : pSlot->pActiveSlotEffect)

  00089	8d 77 50	 lea	 esi, DWORD PTR [edi+80]
  0008c	83 c7 5c	 add	 edi, 92			; 0000005cH
  0008f	3b f7		 cmp	 esi, edi
  00091	74 12		 je	 SHORT $LN3@ClearSlot
$LL4@ClearSlot:

; 603  : 		if(pEff)

  00093	8b 0e		 mov	 ecx, DWORD PTR [esi]
  00095	85 c9		 test	 ecx, ecx
  00097	74 05		 je	 SHORT $LN2@ClearSlot

; 604  : 			pEff->Hide();

  00099	e8 00 00 00 00	 call	 ?Hide@CWindow@UI@@QAEXXZ ; UI::CWindow::Hide
$LN2@ClearSlot:

; 599  : 	}
; 600  : 
; 601  : #ifdef ENABLE_ACCE_SYSTEM
; 602  : 	for (auto& pEff : pSlot->pActiveSlotEffect)

  0009e	83 c6 04	 add	 esi, 4
  000a1	3b f7		 cmp	 esi, edi
  000a3	75 ee		 jne	 SHORT $LL4@ClearSlot
$LN3@ClearSlot:
  000a5	5f		 pop	 edi

; 605  : #endif
; 606  : }

  000a6	5e		 pop	 esi
  000a7	5d		 pop	 ebp
  000a8	c2 04 00	 ret	 4
?ClearSlot@CSlotWindow@UI@@IAEXPAUSSlot@12@@Z ENDP	; UI::CSlotWindow::ClearSlot
_TEXT	ENDS
; Function compile flags: /Ogtp
; File C:\DS Project\DS Files\Source\ClientSource\Client\eterPythonLib\PythonSlotWindow.cpp
; File C:\Program Files (x86)\Microsoft Visual Studio\2019\Community\VC\Tools\MSVC\14.27.29110\include\list
; File C:\DS Project\DS Files\Source\ClientSource\Client\eterPythonLib\PythonSlotWindow.cpp
; File C:\Program Files (x86)\Microsoft Visual Studio\2019\Community\VC\Tools\MSVC\14.27.29110\include\list
; File C:\DS Project\DS Files\Source\ClientSource\Client\eterPythonLib\PythonSlotWindow.cpp
; File C:\Program Files (x86)\Microsoft Visual Studio\2019\Community\VC\Tools\MSVC\14.27.29110\include\list
; File C:\DS Project\DS Files\Source\ClientSource\Client\eterPythonLib\PythonSlotWindow.cpp
; File C:\Program Files (x86)\Microsoft Visual Studio\2019\Community\VC\Tools\MSVC\14.27.29110\include\list
; File C:\DS Project\DS Files\Source\ClientSource\Client\eterPythonLib\PythonSlotWindow.cpp
;	COMDAT ?GetPickedSlotPointer@CSlotWindow@UI@@MAEHPAPAUSSlot@12@@Z
_TEXT	SEGMENT
_ly$ = -16						; size = 4
_lx$ = -12						; size = 4
_iyLocal$1$ = -8					; size = 4
_ixLocal$1$ = -4					; size = 4
_ppSlot$ = 8						; size = 4
?GetPickedSlotPointer@CSlotWindow@UI@@MAEHPAPAUSSlot@12@@Z PROC ; UI::CSlotWindow::GetPickedSlotPointer, COMDAT
; _this$ = ecx

; 1290 : {

  00000	55		 push	 ebp
  00001	8b ec		 mov	 ebp, esp
  00003	83 ec 10	 sub	 esp, 16			; 00000010H
  00006	53		 push	 ebx
  00007	56		 push	 esi
  00008	57		 push	 edi

; 1291 : 	long lx, ly;
; 1292 : 	CWindowManager::Instance().GetMousePosition(lx, ly);

  00009	8d 45 f0	 lea	 eax, DWORD PTR _ly$[ebp]
  0000c	8b f1		 mov	 esi, ecx
  0000e	8b 0d 00 00 00
	00		 mov	 ecx, DWORD PTR ?ms_singleton@?$CSingleton@VCWindowManager@UI@@@@0PAVCWindowManager@UI@@A ; CSingleton<UI::CWindowManager>::ms_singleton
  00014	50		 push	 eax
  00015	8d 45 f4	 lea	 eax, DWORD PTR _lx$[ebp]
  00018	50		 push	 eax
  00019	e8 00 00 00 00	 call	 ?GetMousePosition@CWindowManager@UI@@QAEXAAJ0@Z ; UI::CWindowManager::GetMousePosition

; 1294 : 	int ixLocal = lx - m_rect.left;

  0001e	8b 45 f4	 mov	 eax, DWORD PTR _lx$[ebp]
  00021	2b 46 34	 sub	 eax, DWORD PTR [esi+52]
; File C:\Program Files (x86)\Microsoft Visual Studio\2019\Community\VC\Tools\MSVC\14.27.29110\include\list

; 1092 :         return iterator(_Mypair._Myval2._Myhead->_Next, _STD addressof(_Mypair._Myval2));

  00024	8b 8e 8c 00 00
	00		 mov	 ecx, DWORD PTR [esi+140]
; File C:\DS Project\DS Files\Source\ClientSource\Client\eterPythonLib\PythonSlotWindow.cpp

; 1294 : 	int ixLocal = lx - m_rect.left;

  0002a	89 45 fc	 mov	 DWORD PTR _ixLocal$1$[ebp], eax

; 1295 : 	int iyLocal = ly - m_rect.top;

  0002d	8b 45 f0	 mov	 eax, DWORD PTR _ly$[ebp]
  00030	2b 46 38	 sub	 eax, DWORD PTR [esi+56]
  00033	89 45 f8	 mov	 DWORD PTR _iyLocal$1$[ebp], eax
; File C:\Program Files (x86)\Microsoft Visual Studio\2019\Community\VC\Tools\MSVC\14.27.29110\include\list

; 39   :     _List_unchecked_const_iterator(_Nodeptr _Pnode, const _Mylist* _Plist) noexcept : _Ptr(_Pnode) {

  00036	8b 01		 mov	 eax, DWORD PTR [ecx]
  00038	3b c1		 cmp	 eax, ecx
; File C:\DS Project\DS Files\Source\ClientSource\Client\eterPythonLib\PythonSlotWindow.cpp

; 1297 : 	for (TSlotListIterator itor = m_SlotList.begin(); itor != m_SlotList.end(); ++itor)

  0003a	74 56		 je	 SHORT $LN48@GetPickedS
  0003c	0f 1f 40 00	 npad	 4
$LL4@GetPickedS:

; 1303 : 
; 1304 : 		if (rSlot.isItem)

  00040	83 78 18 00	 cmp	 DWORD PTR [eax+24], 0
; File C:\Program Files (x86)\Microsoft Visual Studio\2019\Community\VC\Tools\MSVC\14.27.29110\include\list

; 152  :         return this->_Ptr->_Myval;

  00044	8d 50 08	 lea	 edx, DWORD PTR [eax+8]
; File C:\DS Project\DS Files\Source\ClientSource\Client\eterPythonLib\PythonSlotWindow.cpp

; 1301 : 		int ixCellSize = rSlot.ixCellSize;

  00047	8b 7a 28	 mov	 edi, DWORD PTR [edx+40]

; 1302 : 		int iyCellSize = rSlot.iyCellSize;

  0004a	8b 5a 2c	 mov	 ebx, DWORD PTR [edx+44]

; 1303 : 
; 1304 : 		if (rSlot.isItem)

  0004d	74 19		 je	 SHORT $LN14@GetPickedS

; 1305 : 		{
; 1306 : 			ixCellSize = max(rSlot.ixCellSize, int(rSlot.byxPlacedItemSize * ITEM_WIDTH));

  0004f	0f b6 72 30	 movzx	 esi, BYTE PTR [edx+48]
  00053	c1 e6 05	 shl	 esi, 5

; 1307 : 			iyCellSize = max(rSlot.iyCellSize, int(rSlot.byyPlacedItemSize * ITEM_HEIGHT));

  00056	3b fe		 cmp	 edi, esi
  00058	0f 4e fe	 cmovle	 edi, esi
  0005b	0f b6 72 31	 movzx	 esi, BYTE PTR [edx+49]
  0005f	c1 e6 05	 shl	 esi, 5
  00062	3b de		 cmp	 ebx, esi
  00064	7f 02		 jg	 SHORT $LN14@GetPickedS
  00066	8b de		 mov	 ebx, esi
$LN14@GetPickedS:

; 1308 : 		}
; 1309 : 
; 1310 : 		if (ixLocal >= rSlot.ixPosition)

  00068	8b 72 20	 mov	 esi, DWORD PTR [edx+32]
  0006b	39 75 fc	 cmp	 DWORD PTR _ixLocal$1$[ebp], esi
  0006e	7c 1c		 jl	 SHORT $LN2@GetPickedS

; 1311 : 		if (iyLocal >= rSlot.iyPosition)

  00070	8b 75 f8	 mov	 esi, DWORD PTR _iyLocal$1$[ebp]
  00073	3b 72 24	 cmp	 esi, DWORD PTR [edx+36]
  00076	8b 72 20	 mov	 esi, DWORD PTR [edx+32]
  00079	7c 11		 jl	 SHORT $LN2@GetPickedS

; 1312 : 		if (ixLocal <= rSlot.ixPosition + ixCellSize)

  0007b	03 f7		 add	 esi, edi
  0007d	39 75 fc	 cmp	 DWORD PTR _ixLocal$1$[ebp], esi
  00080	7f 0a		 jg	 SHORT $LN2@GetPickedS

; 1313 : 		if (iyLocal <= rSlot.iyPosition + iyCellSize)

  00082	8b 72 24	 mov	 esi, DWORD PTR [edx+36]
  00085	03 f3		 add	 esi, ebx
  00087	39 75 f8	 cmp	 DWORD PTR _iyLocal$1$[ebp], esi
  0008a	7e 11		 jle	 SHORT $LN44@GetPickedS
$LN2@GetPickedS:
; File C:\Program Files (x86)\Microsoft Visual Studio\2019\Community\VC\Tools\MSVC\14.27.29110\include\list

; 166  :         this->_Ptr = this->_Ptr->_Next;

  0008c	8b 00		 mov	 eax, DWORD PTR [eax]

; 199  :         return this->_Ptr == _Right._Ptr;

  0008e	3b c1		 cmp	 eax, ecx
; File C:\DS Project\DS Files\Source\ClientSource\Client\eterPythonLib\PythonSlotWindow.cpp

; 1297 : 	for (TSlotListIterator itor = m_SlotList.begin(); itor != m_SlotList.end(); ++itor)

  00090	75 ae		 jne	 SHORT $LL4@GetPickedS
$LN48@GetPickedS:
  00092	5f		 pop	 edi

; 1316 : 			return TRUE;
; 1317 : 		}
; 1318 : 	}
; 1319 : 
; 1320 : 	return FALSE;
; 1321 : }

  00093	5e		 pop	 esi
  00094	33 c0		 xor	 eax, eax
  00096	5b		 pop	 ebx
  00097	8b e5		 mov	 esp, ebp
  00099	5d		 pop	 ebp
  0009a	c2 04 00	 ret	 4
$LN44@GetPickedS:

; 1314 : 		{
; 1315 : 			*ppSlot = &rSlot;

  0009d	8b 45 08	 mov	 eax, DWORD PTR _ppSlot$[ebp]
  000a0	5f		 pop	 edi

; 1316 : 			return TRUE;
; 1317 : 		}
; 1318 : 	}
; 1319 : 
; 1320 : 	return FALSE;
; 1321 : }

  000a1	5e		 pop	 esi
  000a2	5b		 pop	 ebx
  000a3	89 10		 mov	 DWORD PTR [eax], edx
  000a5	b8 01 00 00 00	 mov	 eax, 1
  000aa	8b e5		 mov	 esp, ebp
  000ac	5d		 pop	 ebp
  000ad	c2 04 00	 ret	 4
?GetPickedSlotPointer@CSlotWindow@UI@@MAEHPAPAUSSlot@12@@Z ENDP ; UI::CSlotWindow::GetPickedSlotPointer
_TEXT	ENDS
; Function compile flags: /Ogtp
; File C:\DS Project\DS Files\Source\ClientSource\Client\eterPythonLib\PythonSlotWindow.cpp
; File C:\Program Files (x86)\Microsoft Visual Studio\2019\Community\VC\Tools\MSVC\14.27.29110\include\list
; File C:\DS Project\DS Files\Source\ClientSource\Client\eterPythonLib\PythonSlotWindow.cpp
; File C:\Program Files (x86)\Microsoft Visual Studio\2019\Community\VC\Tools\MSVC\14.27.29110\include\list
; File C:\DS Project\DS Files\Source\ClientSource\Client\eterPythonLib\PythonSlotWindow.cpp
; File C:\Program Files (x86)\Microsoft Visual Studio\2019\Community\VC\Tools\MSVC\14.27.29110\include\list
; File C:\DS Project\DS Files\Source\ClientSource\Client\eterPythonLib\PythonSlotWindow.cpp
;	COMDAT ?GetSelectedSlotPointer@CSlotWindow@UI@@IAEHPAPAUSSlot@12@@Z
_TEXT	SEGMENT
_ly$ = -8						; size = 4
_lx$ = -4						; size = 4
_ppSlot$ = 8						; size = 4
?GetSelectedSlotPointer@CSlotWindow@UI@@IAEHPAPAUSSlot@12@@Z PROC ; UI::CSlotWindow::GetSelectedSlotPointer, COMDAT
; _this$ = ecx

; 1268 : {

  00000	55		 push	 ebp
  00001	8b ec		 mov	 ebp, esp
  00003	83 ec 08	 sub	 esp, 8

; 1269 : 	long lx, ly;
; 1270 : 	GetMouseLocalPosition(lx, ly);

  00006	8d 45 f8	 lea	 eax, DWORD PTR _ly$[ebp]
  00009	53		 push	 ebx
  0000a	56		 push	 esi
  0000b	57		 push	 edi
  0000c	50		 push	 eax
  0000d	8d 45 fc	 lea	 eax, DWORD PTR _lx$[ebp]
  00010	8b f1		 mov	 esi, ecx
  00012	50		 push	 eax
  00013	e8 00 00 00 00	 call	 ?GetMouseLocalPosition@CWindow@UI@@QAEXAAJ0@Z ; UI::CWindow::GetMouseLocalPosition
; File C:\Program Files (x86)\Microsoft Visual Studio\2019\Community\VC\Tools\MSVC\14.27.29110\include\list

; 1092 :         return iterator(_Mypair._Myval2._Myhead->_Next, _STD addressof(_Mypair._Myval2));

  00018	8b 8e 8c 00 00
	00		 mov	 ecx, DWORD PTR [esi+140]

; 39   :     _List_unchecked_const_iterator(_Nodeptr _Pnode, const _Mylist* _Plist) noexcept : _Ptr(_Pnode) {

  0001e	8b 01		 mov	 eax, DWORD PTR [ecx]
  00020	3b c1		 cmp	 eax, ecx
; File C:\DS Project\DS Files\Source\ClientSource\Client\eterPythonLib\PythonSlotWindow.cpp

; 1272 : 	for (TSlotListIterator itor = m_SlotList.begin(); itor != m_SlotList.end(); ++itor)

  00022	74 2d		 je	 SHORT $LN43@GetSelecte
$LL4@GetSelecte:

; 1276 : 		if (lx >= rSlot.ixPosition)

  00024	8b 58 28	 mov	 ebx, DWORD PTR [eax+40]
; File C:\Program Files (x86)\Microsoft Visual Studio\2019\Community\VC\Tools\MSVC\14.27.29110\include\list

; 152  :         return this->_Ptr->_Myval;

  00027	8d 70 08	 lea	 esi, DWORD PTR [eax+8]
; File C:\DS Project\DS Files\Source\ClientSource\Client\eterPythonLib\PythonSlotWindow.cpp

; 1276 : 		if (lx >= rSlot.ixPosition)

  0002a	39 5d fc	 cmp	 DWORD PTR _lx$[ebp], ebx
  0002d	7c 1c		 jl	 SHORT $LN2@GetSelecte

; 1277 : 		if (ly >= rSlot.iyPosition)

  0002f	8b 7e 24	 mov	 edi, DWORD PTR [esi+36]
  00032	39 7d f8	 cmp	 DWORD PTR _ly$[ebp], edi
  00035	7c 14		 jl	 SHORT $LN2@GetSelecte

; 1278 : 		if (lx <= rSlot.ixPosition + rSlot.ixCellSize)

  00037	8b 56 28	 mov	 edx, DWORD PTR [esi+40]
  0003a	03 d3		 add	 edx, ebx
  0003c	39 55 fc	 cmp	 DWORD PTR _lx$[ebp], edx
  0003f	7f 0a		 jg	 SHORT $LN2@GetSelecte

; 1279 : 		if (ly <= rSlot.iyPosition + rSlot.iyCellSize)

  00041	8b 56 2c	 mov	 edx, DWORD PTR [esi+44]
  00044	03 d7		 add	 edx, edi
  00046	39 55 f8	 cmp	 DWORD PTR _ly$[ebp], edx
  00049	7e 11		 jle	 SHORT $LN39@GetSelecte
$LN2@GetSelecte:
; File C:\Program Files (x86)\Microsoft Visual Studio\2019\Community\VC\Tools\MSVC\14.27.29110\include\list

; 166  :         this->_Ptr = this->_Ptr->_Next;

  0004b	8b 00		 mov	 eax, DWORD PTR [eax]

; 199  :         return this->_Ptr == _Right._Ptr;

  0004d	3b c1		 cmp	 eax, ecx
; File C:\DS Project\DS Files\Source\ClientSource\Client\eterPythonLib\PythonSlotWindow.cpp

; 1272 : 	for (TSlotListIterator itor = m_SlotList.begin(); itor != m_SlotList.end(); ++itor)

  0004f	75 d3		 jne	 SHORT $LL4@GetSelecte
$LN43@GetSelecte:
  00051	5f		 pop	 edi

; 1283 : 		}
; 1284 : 	}
; 1285 : 
; 1286 : 	return FALSE;
; 1287 : }

  00052	5e		 pop	 esi
  00053	33 c0		 xor	 eax, eax
  00055	5b		 pop	 ebx
  00056	8b e5		 mov	 esp, ebp
  00058	5d		 pop	 ebp
  00059	c2 04 00	 ret	 4
$LN39@GetSelecte:

; 1280 : 		{
; 1281 : 			*ppSlot = &rSlot;

  0005c	8b 45 08	 mov	 eax, DWORD PTR _ppSlot$[ebp]
  0005f	5f		 pop	 edi
  00060	89 30		 mov	 DWORD PTR [eax], esi

; 1282 : 			return TRUE;

  00062	b8 01 00 00 00	 mov	 eax, 1

; 1283 : 		}
; 1284 : 	}
; 1285 : 
; 1286 : 	return FALSE;
; 1287 : }

  00067	5e		 pop	 esi
  00068	5b		 pop	 ebx
  00069	8b e5		 mov	 esp, ebp
  0006b	5d		 pop	 ebp
  0006c	c2 04 00	 ret	 4
?GetSelectedSlotPointer@CSlotWindow@UI@@IAEHPAPAUSSlot@12@@Z ENDP ; UI::CSlotWindow::GetSelectedSlotPointer
_TEXT	ENDS
; Function compile flags: /Ogtp
; File C:\DS Project\DS Files\Source\ClientSource\Client\eterPythonLib\PythonSlotWindow.cpp
; File C:\Program Files (x86)\Microsoft Visual Studio\2019\Community\VC\Tools\MSVC\14.27.29110\include\list
; File C:\DS Project\DS Files\Source\ClientSource\Client\eterPythonLib\PythonSlotWindow.cpp
; File C:\Program Files (x86)\Microsoft Visual Studio\2019\Community\VC\Tools\MSVC\14.27.29110\include\list
; File C:\DS Project\DS Files\Source\ClientSource\Client\eterPythonLib\PythonSlotWindow.cpp
; File C:\Program Files (x86)\Microsoft Visual Studio\2019\Community\VC\Tools\MSVC\14.27.29110\include\list
; File C:\DS Project\DS Files\Source\ClientSource\Client\eterPythonLib\PythonSlotWindow.cpp
; File C:\Program Files (x86)\Microsoft Visual Studio\2019\Community\VC\Tools\MSVC\14.27.29110\include\list
; File C:\DS Project\DS Files\Source\ClientSource\Client\eterPythonLib\PythonSlotWindow.cpp
;	COMDAT ?GetSlotPointer@CSlotWindow@UI@@IAEHKPAPAUSSlot@12@@Z
_TEXT	SEGMENT
_dwIndex$ = 8						; size = 4
_ppSlot$ = 12						; size = 4
?GetSlotPointer@CSlotWindow@UI@@IAEHKPAPAUSSlot@12@@Z PROC ; UI::CSlotWindow::GetSlotPointer, COMDAT
; _this$ = ecx

; 1252 : {

  00000	55		 push	 ebp
  00001	8b ec		 mov	 ebp, esp
; File C:\Program Files (x86)\Microsoft Visual Studio\2019\Community\VC\Tools\MSVC\14.27.29110\include\list

; 1092 :         return iterator(_Mypair._Myval2._Myhead->_Next, _STD addressof(_Mypair._Myval2));

  00003	8b 89 8c 00 00
	00		 mov	 ecx, DWORD PTR [ecx+140]
; File C:\DS Project\DS Files\Source\ClientSource\Client\eterPythonLib\PythonSlotWindow.cpp

; 1252 : {

  00009	56		 push	 esi
; File C:\Program Files (x86)\Microsoft Visual Studio\2019\Community\VC\Tools\MSVC\14.27.29110\include\list

; 39   :     _List_unchecked_const_iterator(_Nodeptr _Pnode, const _Mylist* _Plist) noexcept : _Ptr(_Pnode) {

  0000a	8b 01		 mov	 eax, DWORD PTR [ecx]
  0000c	3b c1		 cmp	 eax, ecx
; File C:\DS Project\DS Files\Source\ClientSource\Client\eterPythonLib\PythonSlotWindow.cpp

; 1253 : 	for (TSlotListIterator itor = m_SlotList.begin(); itor != m_SlotList.end(); ++itor)

  0000e	74 11		 je	 SHORT $LN3@GetSlotPoi
  00010	8b 75 08	 mov	 esi, DWORD PTR _dwIndex$[ebp]
$LL4@GetSlotPoi:

; 1257 : 		if (dwIndex == rSlot.dwSlotNumber)

  00013	3b 70 0c	 cmp	 esi, DWORD PTR [eax+12]
; File C:\Program Files (x86)\Microsoft Visual Studio\2019\Community\VC\Tools\MSVC\14.27.29110\include\list

; 152  :         return this->_Ptr->_Myval;

  00016	8d 50 08	 lea	 edx, DWORD PTR [eax+8]
; File C:\DS Project\DS Files\Source\ClientSource\Client\eterPythonLib\PythonSlotWindow.cpp

; 1257 : 		if (dwIndex == rSlot.dwSlotNumber)

  00019	74 0d		 je	 SHORT $LN36@GetSlotPoi
; File C:\Program Files (x86)\Microsoft Visual Studio\2019\Community\VC\Tools\MSVC\14.27.29110\include\list

; 166  :         this->_Ptr = this->_Ptr->_Next;

  0001b	8b 00		 mov	 eax, DWORD PTR [eax]

; 199  :         return this->_Ptr == _Right._Ptr;

  0001d	3b c1		 cmp	 eax, ecx
; File C:\DS Project\DS Files\Source\ClientSource\Client\eterPythonLib\PythonSlotWindow.cpp

; 1253 : 	for (TSlotListIterator itor = m_SlotList.begin(); itor != m_SlotList.end(); ++itor)

  0001f	75 f2		 jne	 SHORT $LL4@GetSlotPoi
$LN3@GetSlotPoi:

; 1261 : 		}
; 1262 : 	}
; 1263 : 
; 1264 : 	return FALSE;

  00021	33 c0		 xor	 eax, eax
  00023	5e		 pop	 esi

; 1265 : }

  00024	5d		 pop	 ebp
  00025	c2 08 00	 ret	 8
$LN36@GetSlotPoi:

; 1258 : 		{
; 1259 : 			*ppSlot = &rSlot;

  00028	8b 45 0c	 mov	 eax, DWORD PTR _ppSlot$[ebp]
  0002b	5e		 pop	 esi
  0002c	89 10		 mov	 DWORD PTR [eax], edx

; 1260 : 			return TRUE;

  0002e	b8 01 00 00 00	 mov	 eax, 1

; 1265 : }

  00033	5d		 pop	 ebp
  00034	c2 08 00	 ret	 8
?GetSlotPointer@CSlotWindow@UI@@IAEHKPAPAUSSlot@12@@Z ENDP ; UI::CSlotWindow::GetSlotPointer
_TEXT	ENDS
; Function compile flags: /Ogtp
; File C:\DS Project\DS Files\Source\ClientSource\Client\eterPythonLib\PythonSlotWindow.cpp
;	COMDAT ?OnUseSlot@CSlotWindow@UI@@IAEXXZ
_TEXT	SEGMENT
_pSlot$ = -4						; size = 4
?OnUseSlot@CSlotWindow@UI@@IAEXXZ PROC			; UI::CSlotWindow::OnUseSlot, COMDAT
; _this$ = ecx

; 932  : {

  00000	55		 push	 ebp
  00001	8b ec		 mov	 ebp, esp
  00003	51		 push	 ecx
  00004	56		 push	 esi
  00005	8b f1		 mov	 esi, ecx

; 933  : 	TSlot * pSlot;
; 934  : 	if (GetPickedSlotPointer(&pSlot))

  00007	8d 4d fc	 lea	 ecx, DWORD PTR _pSlot$[ebp]
  0000a	51		 push	 ecx
  0000b	8b ce		 mov	 ecx, esi
  0000d	8b 06		 mov	 eax, DWORD PTR [esi]
  0000f	ff 90 a4 00 00
	00		 call	 DWORD PTR [eax+164]
  00015	85 c0		 test	 eax, eax
  00017	74 28		 je	 SHORT $LN3@OnUseSlot

; 935  : 	if (pSlot->isItem)

  00019	8b 45 fc	 mov	 eax, DWORD PTR _pSlot$[ebp]
  0001c	83 78 10 00	 cmp	 DWORD PTR [eax+16], 0
  00020	74 1f		 je	 SHORT $LN3@OnUseSlot

; 936  : 	{
; 937  : 		PyCallClassMemberFunc(m_poHandler, "OnUseSlot", Py_BuildValue("(i)", pSlot->dwSlotNumber));

  00022	ff 70 04	 push	 DWORD PTR [eax+4]
  00025	68 00 00 00 00	 push	 OFFSET ??_C@_03LIHNMIHG@?$CIi?$CJ@
  0002a	ff 15 00 00 00
	00		 call	 DWORD PTR __imp__Py_BuildValue
  00030	50		 push	 eax
  00031	68 00 00 00 00	 push	 OFFSET ??_C@_09HJIBPFCA@OnUseSlot@
  00036	ff 76 5c	 push	 DWORD PTR [esi+92]
  00039	e8 00 00 00 00	 call	 ?PyCallClassMemberFunc@@YA_NPAU_object@@PBD0@Z ; PyCallClassMemberFunc
  0003e	83 c4 14	 add	 esp, 20			; 00000014H
$LN3@OnUseSlot:
  00041	5e		 pop	 esi

; 938  : 	}
; 939  : }

  00042	8b e5		 mov	 esp, ebp
  00044	5d		 pop	 ebp
  00045	c3		 ret	 0
?OnUseSlot@CSlotWindow@UI@@IAEXXZ ENDP			; UI::CSlotWindow::OnUseSlot
_TEXT	ENDS
; Function compile flags: /Ogtp
; File C:\DS Project\DS Files\Source\ClientSource\Client\eterPythonLib\PythonSlotWindow.cpp
;	COMDAT ?OnUnselectItemSlot@CSlotWindow@UI@@IAEXH@Z
_TEXT	SEGMENT
_iSlotNumber$ = 8					; size = 4
?OnUnselectItemSlot@CSlotWindow@UI@@IAEXH@Z PROC	; UI::CSlotWindow::OnUnselectItemSlot, COMDAT
; _this$ = ecx

; 928  : {

  00000	55		 push	 ebp
  00001	8b ec		 mov	 ebp, esp
  00003	56		 push	 esi

; 929  : 	PyCallClassMemberFunc(m_poHandler, "OnUnselectItemSlot", Py_BuildValue("(i)", iSlotNumber));

  00004	ff 75 08	 push	 DWORD PTR _iSlotNumber$[ebp]
  00007	8b f1		 mov	 esi, ecx
  00009	68 00 00 00 00	 push	 OFFSET ??_C@_03LIHNMIHG@?$CIi?$CJ@
  0000e	ff 15 00 00 00
	00		 call	 DWORD PTR __imp__Py_BuildValue
  00014	50		 push	 eax
  00015	68 00 00 00 00	 push	 OFFSET ??_C@_0BD@EONLJJMO@OnUnselectItemSlot@
  0001a	ff 76 5c	 push	 DWORD PTR [esi+92]
  0001d	e8 00 00 00 00	 call	 ?PyCallClassMemberFunc@@YA_NPAU_object@@PBD0@Z ; PyCallClassMemberFunc
  00022	83 c4 14	 add	 esp, 20			; 00000014H
  00025	5e		 pop	 esi

; 930  : }

  00026	5d		 pop	 ebp
  00027	c2 04 00	 ret	 4
?OnUnselectItemSlot@CSlotWindow@UI@@IAEXH@Z ENDP	; UI::CSlotWindow::OnUnselectItemSlot
_TEXT	ENDS
; Function compile flags: /Ogtp
; File C:\DS Project\DS Files\Source\ClientSource\Client\eterPythonLib\PythonSlotWindow.cpp
;	COMDAT ?OnUnselectEmptySlot@CSlotWindow@UI@@IAEXH@Z
_TEXT	SEGMENT
_iSlotNumber$ = 8					; size = 4
?OnUnselectEmptySlot@CSlotWindow@UI@@IAEXH@Z PROC	; UI::CSlotWindow::OnUnselectEmptySlot, COMDAT
; _this$ = ecx

; 924  : {

  00000	55		 push	 ebp
  00001	8b ec		 mov	 ebp, esp
  00003	56		 push	 esi

; 925  : 	PyCallClassMemberFunc(m_poHandler, "OnUnselectEmptySlot", Py_BuildValue("(i)", iSlotNumber));

  00004	ff 75 08	 push	 DWORD PTR _iSlotNumber$[ebp]
  00007	8b f1		 mov	 esi, ecx
  00009	68 00 00 00 00	 push	 OFFSET ??_C@_03LIHNMIHG@?$CIi?$CJ@
  0000e	ff 15 00 00 00
	00		 call	 DWORD PTR __imp__Py_BuildValue
  00014	50		 push	 eax
  00015	68 00 00 00 00	 push	 OFFSET ??_C@_0BE@GMADJAFC@OnUnselectEmptySlot@
  0001a	ff 76 5c	 push	 DWORD PTR [esi+92]
  0001d	e8 00 00 00 00	 call	 ?PyCallClassMemberFunc@@YA_NPAU_object@@PBD0@Z ; PyCallClassMemberFunc
  00022	83 c4 14	 add	 esp, 20			; 00000014H
  00025	5e		 pop	 esi

; 926  : }

  00026	5d		 pop	 ebp
  00027	c2 04 00	 ret	 4
?OnUnselectEmptySlot@CSlotWindow@UI@@IAEXH@Z ENDP	; UI::CSlotWindow::OnUnselectEmptySlot
_TEXT	ENDS
; Function compile flags: /Ogtp
; File C:\DS Project\DS Files\Source\ClientSource\Client\eterPythonLib\PythonSlotWindow.cpp
;	COMDAT ?OnSelectItemSlot@CSlotWindow@UI@@IAEXH@Z
_TEXT	SEGMENT
_iSlotNumber$ = 8					; size = 4
?OnSelectItemSlot@CSlotWindow@UI@@IAEXH@Z PROC		; UI::CSlotWindow::OnSelectItemSlot, COMDAT
; _this$ = ecx

; 916  : {

  00000	55		 push	 ebp
  00001	8b ec		 mov	 ebp, esp
  00003	56		 push	 esi

; 917  : //	OnOverOutItem();
; 918  : 	PyCallClassMemberFunc(m_poHandler, "OnSelectItemSlot", Py_BuildValue("(i)", iSlotNumber));

  00004	ff 75 08	 push	 DWORD PTR _iSlotNumber$[ebp]
  00007	8b f1		 mov	 esi, ecx
  00009	68 00 00 00 00	 push	 OFFSET ??_C@_03LIHNMIHG@?$CIi?$CJ@
  0000e	ff 15 00 00 00
	00		 call	 DWORD PTR __imp__Py_BuildValue
  00014	50		 push	 eax
  00015	68 00 00 00 00	 push	 OFFSET ??_C@_0BB@PFHJJJ@OnSelectItemSlot@
  0001a	ff 76 5c	 push	 DWORD PTR [esi+92]
  0001d	e8 00 00 00 00	 call	 ?PyCallClassMemberFunc@@YA_NPAU_object@@PBD0@Z ; PyCallClassMemberFunc

; 919  : 
; 920  : 	if (UI::CWindowManager::Instance().IsAttaching())

  00022	8b 0d 00 00 00
	00		 mov	 ecx, DWORD PTR ?ms_singleton@?$CSingleton@VCWindowManager@UI@@@@0PAVCWindowManager@UI@@A ; CSingleton<UI::CWindowManager>::ms_singleton
  00028	83 c4 14	 add	 esp, 20			; 00000014H
  0002b	e8 00 00 00 00	 call	 ?IsAttaching@CWindowManager@UI@@QAEHXZ ; UI::CWindowManager::IsAttaching
  00030	85 c0		 test	 eax, eax
  00032	74 07		 je	 SHORT $LN2@OnSelectIt

; 921  : 		OnOverOutItem();

  00034	8b ce		 mov	 ecx, esi
  00036	e8 00 00 00 00	 call	 ?OnOverOutItem@CSlotWindow@UI@@QAEXXZ ; UI::CSlotWindow::OnOverOutItem
$LN2@OnSelectIt:
  0003b	5e		 pop	 esi

; 922  : }

  0003c	5d		 pop	 ebp
  0003d	c2 04 00	 ret	 4
?OnSelectItemSlot@CSlotWindow@UI@@IAEXH@Z ENDP		; UI::CSlotWindow::OnSelectItemSlot
_TEXT	ENDS
; Function compile flags: /Ogtp
; File C:\DS Project\DS Files\Source\ClientSource\Client\eterPythonLib\PythonSlotWindow.cpp
;	COMDAT ?OnSelectEmptySlot@CSlotWindow@UI@@IAEXH@Z
_TEXT	SEGMENT
_iSlotNumber$ = 8					; size = 4
?OnSelectEmptySlot@CSlotWindow@UI@@IAEXH@Z PROC		; UI::CSlotWindow::OnSelectEmptySlot, COMDAT
; _this$ = ecx

; 912  : {

  00000	55		 push	 ebp
  00001	8b ec		 mov	 ebp, esp
  00003	56		 push	 esi

; 913  : 	PyCallClassMemberFunc(m_poHandler, "OnSelectEmptySlot", Py_BuildValue("(i)", iSlotNumber));

  00004	ff 75 08	 push	 DWORD PTR _iSlotNumber$[ebp]
  00007	8b f1		 mov	 esi, ecx
  00009	68 00 00 00 00	 push	 OFFSET ??_C@_03LIHNMIHG@?$CIi?$CJ@
  0000e	ff 15 00 00 00
	00		 call	 DWORD PTR __imp__Py_BuildValue
  00014	50		 push	 eax
  00015	68 00 00 00 00	 push	 OFFSET ??_C@_0BC@JJECHKOF@OnSelectEmptySlot@
  0001a	ff 76 5c	 push	 DWORD PTR [esi+92]
  0001d	e8 00 00 00 00	 call	 ?PyCallClassMemberFunc@@YA_NPAU_object@@PBD0@Z ; PyCallClassMemberFunc
  00022	83 c4 14	 add	 esp, 20			; 00000014H
  00025	5e		 pop	 esi

; 914  : }

  00026	5d		 pop	 ebp
  00027	c2 04 00	 ret	 4
?OnSelectEmptySlot@CSlotWindow@UI@@IAEXH@Z ENDP		; UI::CSlotWindow::OnSelectEmptySlot
_TEXT	ENDS
; Function compile flags: /Ogtp
; File C:\DS Project\DS Files\Source\ClientSource\Client\eterPythonLib\PythonSlotWindow.cpp
; File C:\Program Files (x86)\Microsoft Visual Studio\2019\Community\VC\Tools\MSVC\14.27.29110\include\list
; File C:\DS Project\DS Files\Source\ClientSource\Client\eterPythonLib\PythonSlotWindow.cpp
; File C:\Program Files (x86)\Microsoft Visual Studio\2019\Community\VC\Tools\MSVC\14.27.29110\include\list
; File C:\DS Project\DS Files\Source\ClientSource\Client\eterPythonLib\PythonSlotWindow.cpp
;	COMDAT ?OnRenderSelectedSlot@CSlotWindow@UI@@MAEXXZ
_TEXT	SEGMENT
_this$1$ = -12						; size = 4
tv371 = -8						; size = 4
_pSlot$1 = -4						; size = 4
?OnRenderSelectedSlot@CSlotWindow@UI@@MAEXXZ PROC	; UI::CSlotWindow::OnRenderSelectedSlot, COMDAT
; _this$ = ecx

; 1213 : {

  00000	55		 push	 ebp
  00001	8b ec		 mov	 ebp, esp
  00003	83 ec 0c	 sub	 esp, 12			; 0000000cH
  00006	53		 push	 ebx
  00007	8b d9		 mov	 ebx, ecx
  00009	56		 push	 esi
  0000a	89 5d f4	 mov	 DWORD PTR _this$1$[ebp], ebx
; File C:\Program Files (x86)\Microsoft Visual Studio\2019\Community\VC\Tools\MSVC\14.27.29110\include\list

; 1092 :         return iterator(_Mypair._Myval2._Myhead->_Next, _STD addressof(_Mypair._Myval2));

  0000d	8b 83 84 00 00
	00		 mov	 eax, DWORD PTR [ebx+132]

; 39   :     _List_unchecked_const_iterator(_Nodeptr _Pnode, const _Mylist* _Plist) noexcept : _Ptr(_Pnode) {

  00013	8b 30		 mov	 esi, DWORD PTR [eax]
  00015	3b f0		 cmp	 esi, eax
; File C:\DS Project\DS Files\Source\ClientSource\Client\eterPythonLib\PythonSlotWindow.cpp

; 1215 : 	for (; itor != m_dwSelectedSlotIndexList.end(); ++itor)

  00017	0f 84 c4 00 00
	00		 je	 $LN3@OnRenderSe
  0001d	57		 push	 edi
  0001e	66 90		 npad	 2
$LL4@OnRenderSe:

; 1216 : 	{
; 1217 : 		TSlot * pSlot;
; 1218 : 		if (!GetSlotPointer(*itor, &pSlot))

  00020	8d 45 fc	 lea	 eax, DWORD PTR _pSlot$1[ebp]
  00023	8b cb		 mov	 ecx, ebx
  00025	50		 push	 eax
  00026	ff 76 08	 push	 DWORD PTR [esi+8]
  00029	e8 00 00 00 00	 call	 ?GetSlotPointer@CSlotWindow@UI@@IAEHKPAPAUSSlot@12@@Z ; UI::CSlotWindow::GetSlotPointer
  0002e	85 c0		 test	 eax, eax
  00030	0f 84 9c 00 00
	00		 je	 $LN2@OnRenderSe

; 1219 : 			continue;
; 1220 : 
; 1221 : 		CPythonGraphic::Instance().SetDiffuseColor(1.0f, 1.0f, 1.0f, 0.5f);

  00036	8b 0d 00 00 00
	00		 mov	 ecx, DWORD PTR ?ms_singleton@?$CSingleton@VCPythonGraphic@@@@0PAVCPythonGraphic@@A ; CSingleton<CPythonGraphic>::ms_singleton
  0003c	83 ec 10	 sub	 esp, 16			; 00000010H
  0003f	c7 44 24 0c 00
	00 00 3f	 mov	 DWORD PTR [esp+12], 1056964608 ; 3f000000H
  00047	c7 44 24 08 00
	00 80 3f	 mov	 DWORD PTR [esp+8], 1065353216 ; 3f800000H
  0004f	c7 44 24 04 00
	00 80 3f	 mov	 DWORD PTR [esp+4], 1065353216 ; 3f800000H
  00057	c7 04 24 00 00
	80 3f		 mov	 DWORD PTR [esp], 1065353216 ; 3f800000H
  0005e	e8 00 00 00 00	 call	 ?SetDiffuseColor@CScreen@@QAEXMMMM@Z ; CScreen::SetDiffuseColor

; 1222 : 		CPythonGraphic::Instance().RenderBar2d(m_rect.left + pSlot->ixPosition,

  00063	8b 4d fc	 mov	 ecx, DWORD PTR _pSlot$1[ebp]
  00066	83 ec 14	 sub	 esp, 20			; 00000014H
  00069	8b 53 38	 mov	 edx, DWORD PTR [ebx+56]
  0006c	8b 5b 34	 mov	 ebx, DWORD PTR [ebx+52]
  0006f	8b 41 2c	 mov	 eax, DWORD PTR [ecx+44]
  00072	8b 79 24	 mov	 edi, DWORD PTR [ecx+36]
  00075	03 c2		 add	 eax, edx
  00077	03 c7		 add	 eax, edi
  00079	c7 44 24 10 00
	00 00 00	 mov	 DWORD PTR [esp+16], 0
  00081	66 0f 6e c0	 movd	 xmm0, eax
  00085	8b 41 28	 mov	 eax, DWORD PTR [ecx+40]
  00088	8b 49 20	 mov	 ecx, DWORD PTR [ecx+32]
  0008b	03 c3		 add	 eax, ebx
  0008d	0f 5b c0	 cvtdq2ps xmm0, xmm0
  00090	03 c1		 add	 eax, ecx
  00092	f3 0f 11 44 24
	0c		 movss	 DWORD PTR [esp+12], xmm0
  00098	66 0f 6e c0	 movd	 xmm0, eax
  0009c	8d 04 3a	 lea	 eax, DWORD PTR [edx+edi]
  0009f	0f 5b c0	 cvtdq2ps xmm0, xmm0
  000a2	f3 0f 11 44 24
	08		 movss	 DWORD PTR [esp+8], xmm0
  000a8	66 0f 6e c0	 movd	 xmm0, eax
  000ac	8d 04 0b	 lea	 eax, DWORD PTR [ebx+ecx]
  000af	8b 0d 00 00 00
	00		 mov	 ecx, DWORD PTR ?ms_singleton@?$CSingleton@VCPythonGraphic@@@@0PAVCPythonGraphic@@A ; CSingleton<CPythonGraphic>::ms_singleton
  000b5	0f 5b c0	 cvtdq2ps xmm0, xmm0
  000b8	f3 0f 11 44 24
	04		 movss	 DWORD PTR [esp+4], xmm0
  000be	66 0f 6e c0	 movd	 xmm0, eax
  000c2	0f 5b c0	 cvtdq2ps xmm0, xmm0
  000c5	f3 0f 11 04 24	 movss	 DWORD PTR [esp], xmm0
  000ca	e8 00 00 00 00	 call	 ?RenderBar2d@CScreen@@QAEXMMMMM@Z ; CScreen::RenderBar2d
  000cf	8b 5d f4	 mov	 ebx, DWORD PTR _this$1$[ebp]
$LN2@OnRenderSe:
; File C:\Program Files (x86)\Microsoft Visual Studio\2019\Community\VC\Tools\MSVC\14.27.29110\include\list

; 166  :         this->_Ptr = this->_Ptr->_Next;

  000d2	8b 36		 mov	 esi, DWORD PTR [esi]

; 199  :         return this->_Ptr == _Right._Ptr;

  000d4	3b b3 84 00 00
	00		 cmp	 esi, DWORD PTR [ebx+132]
; File C:\DS Project\DS Files\Source\ClientSource\Client\eterPythonLib\PythonSlotWindow.cpp

; 1215 : 	for (; itor != m_dwSelectedSlotIndexList.end(); ++itor)

  000da	0f 85 40 ff ff
	ff		 jne	 $LL4@OnRenderSe
  000e0	5f		 pop	 edi
$LN3@OnRenderSe:
  000e1	5e		 pop	 esi

; 1223 : 												m_rect.top + pSlot->iyPosition,
; 1224 : 												m_rect.left + pSlot->ixPosition + pSlot->ixCellSize,
; 1225 : 												m_rect.top + pSlot->iyPosition + pSlot->iyCellSize);
; 1226 : 	}
; 1227 : }

  000e2	5b		 pop	 ebx
  000e3	8b e5		 mov	 esp, ebp
  000e5	5d		 pop	 ebp
  000e6	c3		 ret	 0
?OnRenderSelectedSlot@CSlotWindow@UI@@MAEXXZ ENDP	; UI::CSlotWindow::OnRenderSelectedSlot
_TEXT	ENDS
; Function compile flags: /Ogtp
; File C:\DS Project\DS Files\Source\ClientSource\Client\eterPythonLib\PythonSlotWindow.cpp
;	COMDAT ?OnRenderPickingSlot@CSlotWindow@UI@@MAEXXZ
_TEXT	SEGMENT
_pSlot$ = -4						; size = 4
?OnRenderPickingSlot@CSlotWindow@UI@@MAEXXZ PROC	; UI::CSlotWindow::OnRenderPickingSlot, COMDAT
; _this$ = ecx

; 1197 : {

  00000	55		 push	 ebp
  00001	8b ec		 mov	 ebp, esp
  00003	51		 push	 ecx
  00004	53		 push	 ebx
  00005	8b d9		 mov	 ebx, ecx

; 1198 : 	if (!UI::CWindowManager::Instance().IsAttaching())

  00007	8b 0d 00 00 00
	00		 mov	 ecx, DWORD PTR ?ms_singleton@?$CSingleton@VCWindowManager@UI@@@@0PAVCWindowManager@UI@@A ; CSingleton<UI::CWindowManager>::ms_singleton
  0000d	e8 00 00 00 00	 call	 ?IsAttaching@CWindowManager@UI@@QAEHXZ ; UI::CWindowManager::IsAttaching
  00012	85 c0		 test	 eax, eax
  00014	0f 84 b0 00 00
	00		 je	 $LN1@OnRenderPi

; 1199 : 		return;
; 1200 : 
; 1201 : 	TSlot * pSlot;
; 1202 : 	if (!GetSelectedSlotPointer(&pSlot))

  0001a	8d 45 fc	 lea	 eax, DWORD PTR _pSlot$[ebp]
  0001d	8b cb		 mov	 ecx, ebx
  0001f	50		 push	 eax
  00020	e8 00 00 00 00	 call	 ?GetSelectedSlotPointer@CSlotWindow@UI@@IAEHPAPAUSSlot@12@@Z ; UI::CSlotWindow::GetSelectedSlotPointer
  00025	85 c0		 test	 eax, eax
  00027	0f 84 9d 00 00
	00		 je	 $LN1@OnRenderPi

; 1203 : 		return;
; 1204 : 
; 1205 : 	CPythonGraphic::Instance().SetDiffuseColor(1.0f, 1.0f, 1.0f, 0.5f);

  0002d	8b 0d 00 00 00
	00		 mov	 ecx, DWORD PTR ?ms_singleton@?$CSingleton@VCPythonGraphic@@@@0PAVCPythonGraphic@@A ; CSingleton<CPythonGraphic>::ms_singleton
  00033	56		 push	 esi
  00034	57		 push	 edi
  00035	83 ec 10	 sub	 esp, 16			; 00000010H
  00038	c7 44 24 0c 00
	00 00 3f	 mov	 DWORD PTR [esp+12], 1056964608 ; 3f000000H
  00040	c7 44 24 08 00
	00 80 3f	 mov	 DWORD PTR [esp+8], 1065353216 ; 3f800000H
  00048	c7 44 24 04 00
	00 80 3f	 mov	 DWORD PTR [esp+4], 1065353216 ; 3f800000H
  00050	c7 04 24 00 00
	80 3f		 mov	 DWORD PTR [esp], 1065353216 ; 3f800000H
  00057	e8 00 00 00 00	 call	 ?SetDiffuseColor@CScreen@@QAEXMMMM@Z ; CScreen::SetDiffuseColor

; 1206 : 	CPythonGraphic::Instance().RenderBar2d(m_rect.left + pSlot->ixPosition,

  0005c	8b 4d fc	 mov	 ecx, DWORD PTR _pSlot$[ebp]
  0005f	83 ec 14	 sub	 esp, 20			; 00000014H
  00062	8b 73 38	 mov	 esi, DWORD PTR [ebx+56]
  00065	8b 5b 34	 mov	 ebx, DWORD PTR [ebx+52]
  00068	8b 51 24	 mov	 edx, DWORD PTR [ecx+36]
  0006b	8b 41 2c	 mov	 eax, DWORD PTR [ecx+44]
  0006e	8b 79 20	 mov	 edi, DWORD PTR [ecx+32]
  00071	03 c2		 add	 eax, edx
  00073	03 c6		 add	 eax, esi
  00075	c7 44 24 10 00
	00 00 00	 mov	 DWORD PTR [esp+16], 0
  0007d	66 0f 6e c0	 movd	 xmm0, eax
  00081	8b 41 28	 mov	 eax, DWORD PTR [ecx+40]
  00084	0f 5b c0	 cvtdq2ps xmm0, xmm0
  00087	03 c7		 add	 eax, edi
  00089	8b 0d 00 00 00
	00		 mov	 ecx, DWORD PTR ?ms_singleton@?$CSingleton@VCPythonGraphic@@@@0PAVCPythonGraphic@@A ; CSingleton<CPythonGraphic>::ms_singleton
  0008f	03 c3		 add	 eax, ebx
  00091	f3 0f 11 44 24
	0c		 movss	 DWORD PTR [esp+12], xmm0
  00097	66 0f 6e c0	 movd	 xmm0, eax
  0009b	8d 04 32	 lea	 eax, DWORD PTR [edx+esi]
  0009e	0f 5b c0	 cvtdq2ps xmm0, xmm0
  000a1	f3 0f 11 44 24
	08		 movss	 DWORD PTR [esp+8], xmm0
  000a7	66 0f 6e c0	 movd	 xmm0, eax
  000ab	8d 04 1f	 lea	 eax, DWORD PTR [edi+ebx]
  000ae	0f 5b c0	 cvtdq2ps xmm0, xmm0
  000b1	f3 0f 11 44 24
	04		 movss	 DWORD PTR [esp+4], xmm0
  000b7	66 0f 6e c0	 movd	 xmm0, eax
  000bb	0f 5b c0	 cvtdq2ps xmm0, xmm0
  000be	f3 0f 11 04 24	 movss	 DWORD PTR [esp], xmm0
  000c3	e8 00 00 00 00	 call	 ?RenderBar2d@CScreen@@QAEXMMMMM@Z ; CScreen::RenderBar2d
  000c8	5f		 pop	 edi
  000c9	5e		 pop	 esi
$LN1@OnRenderPi:
  000ca	5b		 pop	 ebx

; 1207 : 											m_rect.top + pSlot->iyPosition,
; 1208 : 											m_rect.left + pSlot->ixPosition + pSlot->ixCellSize,
; 1209 : 											m_rect.top + pSlot->iyPosition + pSlot->iyCellSize);
; 1210 : }

  000cb	8b e5		 mov	 esp, ebp
  000cd	5d		 pop	 ebp
  000ce	c3		 ret	 0
?OnRenderPickingSlot@CSlotWindow@UI@@MAEXXZ ENDP	; UI::CSlotWindow::OnRenderPickingSlot
_TEXT	ENDS
; Function compile flags: /Ogtp
; File C:\DS Project\DS Files\Source\ClientSource\Client\eterPythonLib\PythonSlotWindow.cpp
; File C:\Program Files (x86)\Microsoft Visual Studio\2019\Community\VC\Tools\MSVC\14.27.29110\include\list
; File C:\DS Project\DS Files\Source\ClientSource\Client\eterPythonLib\PythonSlotWindow.cpp
; File C:\Program Files (x86)\Microsoft Visual Studio\2019\Community\VC\Tools\MSVC\14.27.29110\include\list
; File C:\DS Project\DS Files\Source\ClientSource\Client\eterPythonLib\PythonSlotWindow.cpp
;	COMDAT ?RenderLockedSlot@CSlotWindow@UI@@IAEXXZ
_TEXT	SEGMENT
_this$1$ = -4						; size = 4
?RenderLockedSlot@CSlotWindow@UI@@IAEXXZ PROC		; UI::CSlotWindow::RenderLockedSlot, COMDAT
; _this$ = ecx

; 1230 : {

  00000	55		 push	 ebp
  00001	8b ec		 mov	 ebp, esp
  00003	51		 push	 ecx
  00004	56		 push	 esi
  00005	57		 push	 edi

; 1231 : 	CPythonGraphic::Instance().SetDiffuseColor(0.0f, 0.0f, 0.0f, 0.5f);

  00006	83 ec 10	 sub	 esp, 16			; 00000010H
  00009	8b f9		 mov	 edi, ecx
  0000b	8b 0d 00 00 00
	00		 mov	 ecx, DWORD PTR ?ms_singleton@?$CSingleton@VCPythonGraphic@@@@0PAVCPythonGraphic@@A ; CSingleton<CPythonGraphic>::ms_singleton
  00011	89 7d fc	 mov	 DWORD PTR _this$1$[ebp], edi
  00014	c7 44 24 0c 00
	00 00 3f	 mov	 DWORD PTR [esp+12], 1056964608 ; 3f000000H
  0001c	c7 44 24 08 00
	00 00 00	 mov	 DWORD PTR [esp+8], 0
  00024	c7 44 24 04 00
	00 00 00	 mov	 DWORD PTR [esp+4], 0
  0002c	c7 04 24 00 00
	00 00		 mov	 DWORD PTR [esp], 0
  00033	e8 00 00 00 00	 call	 ?SetDiffuseColor@CScreen@@QAEXMMMM@Z ; CScreen::SetDiffuseColor
; File C:\Program Files (x86)\Microsoft Visual Studio\2019\Community\VC\Tools\MSVC\14.27.29110\include\list

; 1092 :         return iterator(_Mypair._Myval2._Myhead->_Next, _STD addressof(_Mypair._Myval2));

  00038	8b 87 8c 00 00
	00		 mov	 eax, DWORD PTR [edi+140]

; 39   :     _List_unchecked_const_iterator(_Nodeptr _Pnode, const _Mylist* _Plist) noexcept : _Ptr(_Pnode) {

  0003e	8b 30		 mov	 esi, DWORD PTR [eax]
  00040	3b f0		 cmp	 esi, eax
; File C:\DS Project\DS Files\Source\ClientSource\Client\eterPythonLib\PythonSlotWindow.cpp

; 1232 : 	for (TSlotListIterator itor = m_SlotList.begin(); itor != m_SlotList.end(); ++itor)

  00042	0f 84 8f 00 00
	00		 je	 $LN3@RenderLock
  00048	53		 push	 ebx
  00049	0f 1f 80 00 00
	00 00		 npad	 7
$LL4@RenderLock:

; 1233 : 	{
; 1234 : 		TSlot & rSlot = *itor;
; 1235 : 
; 1236 : 		if (!rSlot.isItem)

  00050	83 7e 18 00	 cmp	 DWORD PTR [esi+24], 0
  00054	74 72		 je	 SHORT $LN2@RenderLock

; 1237 : 			continue;
; 1238 : 
; 1239 : 		if (rSlot.dwState & SLOT_STATE_LOCK)

  00056	f6 46 08 01	 test	 BYTE PTR [esi+8], 1
  0005a	74 6c		 je	 SHORT $LN2@RenderLock

; 1240 : 		{
; 1241 : 			CPythonGraphic::Instance().RenderBar2d(m_rect.left + rSlot.ixPosition,

  0005c	8b 4f 38	 mov	 ecx, DWORD PTR [edi+56]
  0005f	83 ec 14	 sub	 esp, 20			; 00000014H
  00062	8b 46 34	 mov	 eax, DWORD PTR [esi+52]
  00065	8b 56 2c	 mov	 edx, DWORD PTR [esi+44]
  00068	03 c1		 add	 eax, ecx
  0006a	8b 7f 34	 mov	 edi, DWORD PTR [edi+52]
  0006d	03 c2		 add	 eax, edx
  0006f	8b 5e 28	 mov	 ebx, DWORD PTR [esi+40]
  00072	c7 44 24 10 00
	00 00 00	 mov	 DWORD PTR [esp+16], 0
  0007a	66 0f 6e c0	 movd	 xmm0, eax
  0007e	8b 46 30	 mov	 eax, DWORD PTR [esi+48]
  00081	0f 5b c0	 cvtdq2ps xmm0, xmm0
  00084	03 c7		 add	 eax, edi
  00086	03 c3		 add	 eax, ebx
  00088	f3 0f 11 44 24
	0c		 movss	 DWORD PTR [esp+12], xmm0
  0008e	66 0f 6e c0	 movd	 xmm0, eax
  00092	8d 04 11	 lea	 eax, DWORD PTR [ecx+edx]
  00095	8b 0d 00 00 00
	00		 mov	 ecx, DWORD PTR ?ms_singleton@?$CSingleton@VCPythonGraphic@@@@0PAVCPythonGraphic@@A ; CSingleton<CPythonGraphic>::ms_singleton
  0009b	0f 5b c0	 cvtdq2ps xmm0, xmm0
  0009e	f3 0f 11 44 24
	08		 movss	 DWORD PTR [esp+8], xmm0
  000a4	66 0f 6e c0	 movd	 xmm0, eax
  000a8	8d 04 1f	 lea	 eax, DWORD PTR [edi+ebx]
  000ab	0f 5b c0	 cvtdq2ps xmm0, xmm0
  000ae	f3 0f 11 44 24
	04		 movss	 DWORD PTR [esp+4], xmm0
  000b4	66 0f 6e c0	 movd	 xmm0, eax
  000b8	0f 5b c0	 cvtdq2ps xmm0, xmm0
  000bb	f3 0f 11 04 24	 movss	 DWORD PTR [esp], xmm0
  000c0	e8 00 00 00 00	 call	 ?RenderBar2d@CScreen@@QAEXMMMMM@Z ; CScreen::RenderBar2d
  000c5	8b 7d fc	 mov	 edi, DWORD PTR _this$1$[ebp]
$LN2@RenderLock:
; File C:\Program Files (x86)\Microsoft Visual Studio\2019\Community\VC\Tools\MSVC\14.27.29110\include\list

; 166  :         this->_Ptr = this->_Ptr->_Next;

  000c8	8b 36		 mov	 esi, DWORD PTR [esi]

; 199  :         return this->_Ptr == _Right._Ptr;

  000ca	3b b7 8c 00 00
	00		 cmp	 esi, DWORD PTR [edi+140]
; File C:\DS Project\DS Files\Source\ClientSource\Client\eterPythonLib\PythonSlotWindow.cpp

; 1232 : 	for (TSlotListIterator itor = m_SlotList.begin(); itor != m_SlotList.end(); ++itor)

  000d0	0f 85 7a ff ff
	ff		 jne	 $LL4@RenderLock
  000d6	5b		 pop	 ebx
$LN3@RenderLock:
  000d7	5f		 pop	 edi

; 1242 : 												   m_rect.top  + rSlot.iyPosition,
; 1243 : 												   m_rect.left + rSlot.ixPosition + rSlot.ixCellSize,
; 1244 : 												   m_rect.top  + rSlot.iyPosition + rSlot.iyCellSize);
; 1245 : 		}
; 1246 : 	}
; 1247 : }

  000d8	5e		 pop	 esi
  000d9	8b e5		 mov	 esp, ebp
  000db	5d		 pop	 ebp
  000dc	c3		 ret	 0
?RenderLockedSlot@CSlotWindow@UI@@IAEXXZ ENDP		; UI::CSlotWindow::RenderLockedSlot
_TEXT	ENDS
; Function compile flags: /Ogtp
; File C:\DS Project\DS Files\Source\ClientSource\Client\eterPythonLib\PythonSlotWindow.cpp
; File C:\Program Files (x86)\Microsoft Visual Studio\2019\Community\VC\Tools\MSVC\14.27.29110\include\list
; File C:\DS Project\DS Files\Source\ClientSource\Client\eterPythonLib\PythonSlotWindow.cpp
; File C:\Program Files (x86)\Microsoft Visual Studio\2019\Community\VC\Tools\MSVC\14.27.29110\include\list
; File C:\DS Project\DS Files\Source\ClientSource\Client\eterPythonLib\PythonSlotWindow.cpp
;	COMDAT ?RenderSlotBaseImage@CSlotWindow@UI@@IAEXXZ
_TEXT	SEGMENT
?RenderSlotBaseImage@CSlotWindow@UI@@IAEXXZ PROC	; UI::CSlotWindow::RenderSlotBaseImage, COMDAT
; _this$ = ecx

; 1180 : {

  00000	57		 push	 edi
  00001	8b f9		 mov	 edi, ecx

; 1181 : 	if (!m_pBaseImageInstance)

  00003	83 bf a0 00 00
	00 00		 cmp	 DWORD PTR [edi+160], 0
  0000a	74 63		 je	 SHORT $LN3@RenderSlot
; File C:\Program Files (x86)\Microsoft Visual Studio\2019\Community\VC\Tools\MSVC\14.27.29110\include\list

; 1092 :         return iterator(_Mypair._Myval2._Myhead->_Next, _STD addressof(_Mypair._Myval2));

  0000c	8b 87 8c 00 00
	00		 mov	 eax, DWORD PTR [edi+140]
  00012	56		 push	 esi

; 39   :     _List_unchecked_const_iterator(_Nodeptr _Pnode, const _Mylist* _Plist) noexcept : _Ptr(_Pnode) {

  00013	8b 30		 mov	 esi, DWORD PTR [eax]
  00015	3b f0		 cmp	 esi, eax
; File C:\DS Project\DS Files\Source\ClientSource\Client\eterPythonLib\PythonSlotWindow.cpp

; 1184 : 	for (TSlotListIterator itor = m_SlotList.begin(); itor != m_SlotList.end(); ++itor)

  00017	74 55		 je	 SHORT $LN40@RenderSlot
  00019	0f 1f 80 00 00
	00 00		 npad	 7
$LL4@RenderSlot:

; 1185 : 	{
; 1186 : 		TSlot & rSlot = *itor;
; 1187 : 
; 1188 : 		if (!rSlot.bRenderBaseSlotImage)

  00020	80 7e 44 00	 cmp	 BYTE PTR [esi+68], 0
  00024	74 3e		 je	 SHORT $LN2@RenderSlot

; 1189 : 			continue;
; 1190 : 
; 1191 : 		m_pBaseImageInstance->SetPosition(m_rect.left + rSlot.ixPosition, m_rect.top + rSlot.iyPosition);

  00026	8b 46 2c	 mov	 eax, DWORD PTR [esi+44]
  00029	83 ec 08	 sub	 esp, 8
  0002c	03 47 38	 add	 eax, DWORD PTR [edi+56]
  0002f	8b 8f a0 00 00
	00		 mov	 ecx, DWORD PTR [edi+160]
  00035	66 0f 6e c0	 movd	 xmm0, eax
  00039	8b 46 28	 mov	 eax, DWORD PTR [esi+40]
  0003c	03 47 34	 add	 eax, DWORD PTR [edi+52]
  0003f	0f 5b c0	 cvtdq2ps xmm0, xmm0
  00042	f3 0f 11 44 24
	04		 movss	 DWORD PTR [esp+4], xmm0
  00048	66 0f 6e c0	 movd	 xmm0, eax
  0004c	0f 5b c0	 cvtdq2ps xmm0, xmm0
  0004f	f3 0f 11 04 24	 movss	 DWORD PTR [esp], xmm0
  00054	e8 00 00 00 00	 call	 ?SetPosition@CGraphicImageInstance@@QAEXMM@Z ; CGraphicImageInstance::SetPosition

; 1192 : 		m_pBaseImageInstance->Render();

  00059	8b 8f a0 00 00
	00		 mov	 ecx, DWORD PTR [edi+160]
  0005f	e8 00 00 00 00	 call	 ?Render@CGraphicImageInstance@@QAEXXZ ; CGraphicImageInstance::Render
$LN2@RenderSlot:
; File C:\Program Files (x86)\Microsoft Visual Studio\2019\Community\VC\Tools\MSVC\14.27.29110\include\list

; 166  :         this->_Ptr = this->_Ptr->_Next;

  00064	8b 36		 mov	 esi, DWORD PTR [esi]

; 199  :         return this->_Ptr == _Right._Ptr;

  00066	3b b7 8c 00 00
	00		 cmp	 esi, DWORD PTR [edi+140]
; File C:\DS Project\DS Files\Source\ClientSource\Client\eterPythonLib\PythonSlotWindow.cpp

; 1184 : 	for (TSlotListIterator itor = m_SlotList.begin(); itor != m_SlotList.end(); ++itor)

  0006c	75 b2		 jne	 SHORT $LL4@RenderSlot
$LN40@RenderSlot:
  0006e	5e		 pop	 esi
$LN3@RenderSlot:
  0006f	5f		 pop	 edi

; 1193 : 	}
; 1194 : }

  00070	c3		 ret	 0
?RenderSlotBaseImage@CSlotWindow@UI@@IAEXXZ ENDP	; UI::CSlotWindow::RenderSlotBaseImage
_TEXT	ENDS
; Function compile flags: /Ogtp
; File C:\DS Project\DS Files\Source\ClientSource\Client\eterPythonLib\PythonSlotWindow.cpp
;	COMDAT ?OnMouseOver@CSlotWindow@UI@@MAEXXZ
_TEXT	SEGMENT
_pSlot$1 = -4						; size = 4
?OnMouseOver@CSlotWindow@UI@@MAEXXZ PROC		; UI::CSlotWindow::OnMouseOver, COMDAT
; _this$ = ecx

; 892  : {

  00000	55		 push	 ebp
  00001	8b ec		 mov	 ebp, esp
  00003	51		 push	 ecx

; 893  : //	if (UI::CWindowManager::Instance().IsCapture())
; 894  : //	if (!UI::CWindowManager::Instance().IsAttaching())
; 895  : //		return;
; 896  : 
; 897  : 	CWindow * pPointWindow = UI::CWindowManager::Instance().GetPointWindow();
; 898  : 	if (this == pPointWindow)

  00004	a1 00 00 00 00	 mov	 eax, DWORD PTR ?ms_singleton@?$CSingleton@VCWindowManager@UI@@@@0PAVCWindowManager@UI@@A ; CSingleton<UI::CWindowManager>::ms_singleton
  00009	56		 push	 esi
  0000a	8b f1		 mov	 esi, ecx
  0000c	3b 70 64	 cmp	 esi, DWORD PTR [eax+100]
  0000f	75 23		 jne	 SHORT $LN4@OnMouseOve

; 899  : 	{
; 900  : 		TSlot * pSlot;
; 901  : 		if (GetPickedSlotPointer(&pSlot))

  00011	8b 06		 mov	 eax, DWORD PTR [esi]
  00013	8d 4d fc	 lea	 ecx, DWORD PTR _pSlot$1[ebp]
  00016	51		 push	 ecx
  00017	8b ce		 mov	 ecx, esi
  00019	ff 90 a4 00 00
	00		 call	 DWORD PTR [eax+164]
  0001f	85 c0		 test	 eax, eax
  00021	74 11		 je	 SHORT $LN4@OnMouseOve

; 902  : 		{
; 903  : 			if (OnOverInItem(pSlot->dwSlotNumber))

  00023	8b 45 fc	 mov	 eax, DWORD PTR _pSlot$1[ebp]
  00026	8b ce		 mov	 ecx, esi
  00028	ff 70 04	 push	 DWORD PTR [eax+4]
  0002b	e8 00 00 00 00	 call	 ?OnOverInItem@CSlotWindow@UI@@QAEHK@Z ; UI::CSlotWindow::OnOverInItem
  00030	85 c0		 test	 eax, eax
  00032	75 07		 jne	 SHORT $LN1@OnMouseOve
$LN4@OnMouseOve:

; 904  : 				return;
; 905  : 		}
; 906  : 	}
; 907  : 
; 908  : 	OnOverOutItem();

  00034	8b ce		 mov	 ecx, esi
  00036	e8 00 00 00 00	 call	 ?OnOverOutItem@CSlotWindow@UI@@QAEXXZ ; UI::CSlotWindow::OnOverOutItem
$LN1@OnMouseOve:
  0003b	5e		 pop	 esi

; 909  : }

  0003c	8b e5		 mov	 esp, ebp
  0003e	5d		 pop	 ebp
  0003f	c3		 ret	 0
?OnMouseOver@CSlotWindow@UI@@MAEXXZ ENDP		; UI::CSlotWindow::OnMouseOver
_TEXT	ENDS
; Function compile flags: /Ogtp
; File C:\DS Project\DS Files\Source\ClientSource\Client\eterPythonLib\PythonSlotWindow.cpp
;	COMDAT ?OnMouseOverOut@CSlotWindow@UI@@MAEXXZ
_TEXT	SEGMENT
?OnMouseOverOut@CSlotWindow@UI@@MAEXXZ PROC		; UI::CSlotWindow::OnMouseOverOut, COMDAT
; _this$ = ecx

; 888  : 	OnOverOutItem();

  00000	e9 00 00 00 00	 jmp	 ?OnOverOutItem@CSlotWindow@UI@@QAEXXZ ; UI::CSlotWindow::OnOverOutItem
?OnMouseOverOut@CSlotWindow@UI@@MAEXXZ ENDP		; UI::CSlotWindow::OnMouseOverOut
_TEXT	ENDS
; Function compile flags: /Ogtp
; File C:\DS Project\DS Files\Source\ClientSource\Client\eterPythonLib\PythonSlotWindow.cpp
;	COMDAT ?OnMouseLeftButtonDoubleClick@CSlotWindow@UI@@MAEHXZ
_TEXT	SEGMENT
?OnMouseLeftButtonDoubleClick@CSlotWindow@UI@@MAEHXZ PROC ; UI::CSlotWindow::OnMouseLeftButtonDoubleClick, COMDAT
; _this$ = ecx

; 881  : 	OnUseSlot();

  00000	e8 00 00 00 00	 call	 ?OnUseSlot@CSlotWindow@UI@@IAEXXZ ; UI::CSlotWindow::OnUseSlot

; 882  : 
; 883  : 	return TRUE;

  00005	b8 01 00 00 00	 mov	 eax, 1

; 884  : }

  0000a	c3		 ret	 0
?OnMouseLeftButtonDoubleClick@CSlotWindow@UI@@MAEHXZ ENDP ; UI::CSlotWindow::OnMouseLeftButtonDoubleClick
_TEXT	ENDS
; Function compile flags: /Ogtp
; File C:\DS Project\DS Files\Source\ClientSource\Client\eterPythonLib\PythonSlotWindow.cpp
;	COMDAT ?OnMouseRightButtonDown@CSlotWindow@UI@@MAEHXZ
_TEXT	SEGMENT
_pSlot$ = -4						; size = 4
?OnMouseRightButtonDown@CSlotWindow@UI@@MAEHXZ PROC	; UI::CSlotWindow::OnMouseRightButtonDown, COMDAT
; _this$ = ecx

; 862  : {

  00000	55		 push	 ebp
  00001	8b ec		 mov	 ebp, esp
  00003	51		 push	 ecx
  00004	56		 push	 esi
  00005	8b f1		 mov	 esi, ecx

; 863  : 	TSlot * pSlot;
; 864  : 	if (!GetPickedSlotPointer(&pSlot))

  00007	8d 4d fc	 lea	 ecx, DWORD PTR _pSlot$[ebp]
  0000a	51		 push	 ecx
  0000b	8b ce		 mov	 ecx, esi
  0000d	8b 06		 mov	 eax, DWORD PTR [esi]
  0000f	ff 90 a4 00 00
	00		 call	 DWORD PTR [eax+164]
  00015	85 c0		 test	 eax, eax
  00017	74 22		 je	 SHORT $LN6@OnMouseRig

; 865  : 		return TRUE;
; 866  : 
; 867  : 	if (pSlot->isItem)

  00019	8b 45 fc	 mov	 eax, DWORD PTR _pSlot$[ebp]
  0001c	8b ce		 mov	 ecx, esi
  0001e	83 78 10 00	 cmp	 DWORD PTR [eax+16], 0
  00022	ff 70 04	 push	 DWORD PTR [eax+4]
  00025	74 0f		 je	 SHORT $LN3@OnMouseRig

; 868  : 	{
; 869  : 		OnUnselectItemSlot(pSlot->dwSlotNumber);

  00027	e8 00 00 00 00	 call	 ?OnUnselectItemSlot@CSlotWindow@UI@@IAEXH@Z ; UI::CSlotWindow::OnUnselectItemSlot

; 874  : 	}
; 875  : 
; 876  : 	return TRUE;
; 877  : }

  0002c	b8 01 00 00 00	 mov	 eax, 1
  00031	5e		 pop	 esi
  00032	8b e5		 mov	 esp, ebp
  00034	5d		 pop	 ebp
  00035	c3		 ret	 0
$LN3@OnMouseRig:

; 870  : 	}
; 871  : 	else
; 872  : 	{
; 873  : 		OnUnselectEmptySlot(pSlot->dwSlotNumber);

  00036	e8 00 00 00 00	 call	 ?OnUnselectEmptySlot@CSlotWindow@UI@@IAEXH@Z ; UI::CSlotWindow::OnUnselectEmptySlot
$LN6@OnMouseRig:

; 874  : 	}
; 875  : 
; 876  : 	return TRUE;
; 877  : }

  0003b	b8 01 00 00 00	 mov	 eax, 1
  00040	5e		 pop	 esi
  00041	8b e5		 mov	 esp, ebp
  00043	5d		 pop	 ebp
  00044	c3		 ret	 0
?OnMouseRightButtonDown@CSlotWindow@UI@@MAEHXZ ENDP	; UI::CSlotWindow::OnMouseRightButtonDown
_TEXT	ENDS
; Function compile flags: /Ogtp
; File C:\DS Project\DS Files\Source\ClientSource\Client\eterPythonLib\PythonSlotWindow.cpp
;	COMDAT ?OnMouseLeftButtonUp@CSlotWindow@UI@@MAEHXZ
_TEXT	SEGMENT
_pSlot$1 = -4						; size = 4
?OnMouseLeftButtonUp@CSlotWindow@UI@@MAEHXZ PROC	; UI::CSlotWindow::OnMouseLeftButtonUp, COMDAT
; _this$ = ecx

; 828  : {

  00000	55		 push	 ebp
  00001	8b ec		 mov	 ebp, esp
  00003	51		 push	 ecx
  00004	56		 push	 esi
  00005	8b f1		 mov	 esi, ecx

; 829  : 	if (UI::CWindowManager::Instance().IsAttaching())

  00007	8b 0d 00 00 00
	00		 mov	 ecx, DWORD PTR ?ms_singleton@?$CSingleton@VCWindowManager@UI@@@@0PAVCWindowManager@UI@@A ; CSingleton<UI::CWindowManager>::ms_singleton
  0000d	e8 00 00 00 00	 call	 ?IsAttaching@CWindowManager@UI@@QAEHXZ ; UI::CWindowManager::IsAttaching
  00012	85 c0		 test	 eax, eax
  00014	0f 84 8a 00 00
	00		 je	 $LN4@OnMouseLef

; 830  : 	if (UI::CWindowManager::Instance().IsDragging())

  0001a	8b 0d 00 00 00
	00		 mov	 ecx, DWORD PTR ?ms_singleton@?$CSingleton@VCWindowManager@UI@@@@0PAVCWindowManager@UI@@A ; CSingleton<UI::CWindowManager>::ms_singleton
  00020	e8 00 00 00 00	 call	 ?IsDragging@CWindowManager@UI@@QAEHXZ ; UI::CWindowManager::IsDragging
  00025	85 c0		 test	 eax, eax
  00027	74 7b		 je	 SHORT $LN4@OnMouseLef

; 831  : 	if (IsIn())

  00029	8b ce		 mov	 ecx, esi
  0002b	e8 00 00 00 00	 call	 ?IsIn@CWindow@UI@@QAE_NXZ ; UI::CWindow::IsIn
  00030	84 c0		 test	 al, al
  00032	74 70		 je	 SHORT $LN4@OnMouseLef

; 832  : 	{
; 833  : 		UI::CWindow * pWin = UI::CWindowManager::Instance().GetPointWindow();

  00034	a1 00 00 00 00	 mov	 eax, DWORD PTR ?ms_singleton@?$CSingleton@VCWindowManager@UI@@@@0PAVCWindowManager@UI@@A ; CSingleton<UI::CWindowManager>::ms_singleton
  00039	8b 70 64	 mov	 esi, DWORD PTR [eax+100]

; 834  : 
; 835  : 		if (pWin)

  0003c	85 f6		 test	 esi, esi
  0003e	74 64		 je	 SHORT $LN4@OnMouseLef

; 836  : 		if (pWin->IsType(UI::CSlotWindow::Type()))

  00040	e8 00 00 00 00	 call	 ?Type@CSlotWindow@UI@@SAKXZ ; UI::CSlotWindow::Type
  00045	50		 push	 eax
  00046	8b ce		 mov	 ecx, esi
  00048	e8 00 00 00 00	 call	 ?IsType@CWindow@UI@@QAEHK@Z ; UI::CWindow::IsType
  0004d	85 c0		 test	 eax, eax
  0004f	74 53		 je	 SHORT $LN4@OnMouseLef

; 837  : 		{
; 838  : 			UI::CSlotWindow * pSlotWin = (UI::CSlotWindow *)pWin;
; 839  : 
; 840  : 			TSlot * pSlot;
; 841  : 			if (!pSlotWin->GetPickedSlotPointer(&pSlot))

  00051	8b 06		 mov	 eax, DWORD PTR [esi]
  00053	8d 4d fc	 lea	 ecx, DWORD PTR _pSlot$1[ebp]
  00056	51		 push	 ecx
  00057	8b ce		 mov	 ecx, esi
  00059	ff 90 a4 00 00
	00		 call	 DWORD PTR [eax+164]
  0005f	85 c0		 test	 eax, eax
  00061	75 15		 jne	 SHORT $LN7@OnMouseLef

; 842  : 			{
; 843  : 				UI::CWindowManager::Instance().DeattachIcon();

  00063	8b 0d 00 00 00
	00		 mov	 ecx, DWORD PTR ?ms_singleton@?$CSingleton@VCWindowManager@UI@@@@0PAVCWindowManager@UI@@A ; CSingleton<UI::CWindowManager>::ms_singleton
  00069	e8 00 00 00 00	 call	 ?DeattachIcon@CWindowManager@UI@@QAEXXZ ; UI::CWindowManager::DeattachIcon

; 844  : 				return TRUE;

  0006e	b8 01 00 00 00	 mov	 eax, 1
  00073	5e		 pop	 esi

; 859  : }

  00074	8b e5		 mov	 esp, ebp
  00076	5d		 pop	 ebp
  00077	c3		 ret	 0
$LN7@OnMouseLef:

; 845  : 			}
; 846  : 
; 847  : 			if (pSlot->isItem)

  00078	8b 45 fc	 mov	 eax, DWORD PTR _pSlot$1[ebp]
  0007b	8b ce		 mov	 ecx, esi
  0007d	83 78 10 00	 cmp	 DWORD PTR [eax+16], 0
  00081	ff 70 04	 push	 DWORD PTR [eax+4]
  00084	74 0f		 je	 SHORT $LN8@OnMouseLef

; 848  : 				pSlotWin->OnSelectItemSlot(pSlot->dwSlotNumber);

  00086	e8 00 00 00 00	 call	 ?OnSelectItemSlot@CSlotWindow@UI@@IAEXH@Z ; UI::CSlotWindow::OnSelectItemSlot

; 851  : 
; 852  : 			return TRUE;

  0008b	b8 01 00 00 00	 mov	 eax, 1
  00090	5e		 pop	 esi

; 859  : }

  00091	8b e5		 mov	 esp, ebp
  00093	5d		 pop	 ebp
  00094	c3		 ret	 0
$LN8@OnMouseLef:

; 849  : 			else
; 850  : 				pSlotWin->OnSelectEmptySlot(pSlot->dwSlotNumber);

  00095	e8 00 00 00 00	 call	 ?OnSelectEmptySlot@CSlotWindow@UI@@IAEXH@Z ; UI::CSlotWindow::OnSelectEmptySlot

; 851  : 
; 852  : 			return TRUE;

  0009a	b8 01 00 00 00	 mov	 eax, 1
  0009f	5e		 pop	 esi

; 859  : }

  000a0	8b e5		 mov	 esp, ebp
  000a2	5d		 pop	 ebp
  000a3	c3		 ret	 0
$LN4@OnMouseLef:

; 853  : 		}
; 854  : 
; 855  : 		return FALSE;
; 856  : 	}
; 857  : 
; 858  : 	return FALSE;

  000a4	33 c0		 xor	 eax, eax
  000a6	5e		 pop	 esi

; 859  : }

  000a7	8b e5		 mov	 esp, ebp
  000a9	5d		 pop	 ebp
  000aa	c3		 ret	 0
?OnMouseLeftButtonUp@CSlotWindow@UI@@MAEHXZ ENDP	; UI::CSlotWindow::OnMouseLeftButtonUp
_TEXT	ENDS
; Function compile flags: /Ogtp
; File C:\DS Project\DS Files\Source\ClientSource\Client\eterPythonLib\PythonSlotWindow.cpp
;	COMDAT ?OnMouseLeftButtonDown@CSlotWindow@UI@@MAEHXZ
_TEXT	SEGMENT
_pSlot$ = -4						; size = 4
?OnMouseLeftButtonDown@CSlotWindow@UI@@MAEHXZ PROC	; UI::CSlotWindow::OnMouseLeftButtonDown, COMDAT
; _this$ = ecx

; 807  : {

  00000	55		 push	 ebp
  00001	8b ec		 mov	 ebp, esp
  00003	51		 push	 ecx
  00004	56		 push	 esi
  00005	8b f1		 mov	 esi, ecx

; 808  : 	TSlot * pSlot;
; 809  : 	if (!GetPickedSlotPointer(&pSlot))

  00007	8d 4d fc	 lea	 ecx, DWORD PTR _pSlot$[ebp]
  0000a	51		 push	 ecx
  0000b	8b ce		 mov	 ecx, esi
  0000d	8b 06		 mov	 eax, DWORD PTR [esi]
  0000f	ff 90 a4 00 00
	00		 call	 DWORD PTR [eax+164]
  00015	85 c0		 test	 eax, eax
  00017	75 15		 jne	 SHORT $LN2@OnMouseLef

; 810  : 	{
; 811  : 		UI::CWindowManager::Instance().DeattachIcon();

  00019	8b 0d 00 00 00
	00		 mov	 ecx, DWORD PTR ?ms_singleton@?$CSingleton@VCWindowManager@UI@@@@0PAVCWindowManager@UI@@A ; CSingleton<UI::CWindowManager>::ms_singleton
  0001f	e8 00 00 00 00	 call	 ?DeattachIcon@CWindowManager@UI@@QAEXXZ ; UI::CWindowManager::DeattachIcon

; 822  : 	}
; 823  : 
; 824  : 	return TRUE;
; 825  : }

  00024	b8 01 00 00 00	 mov	 eax, 1
  00029	5e		 pop	 esi
  0002a	8b e5		 mov	 esp, ebp
  0002c	5d		 pop	 ebp
  0002d	c3		 ret	 0
$LN2@OnMouseLef:

; 812  : 		return TRUE;
; 813  : 	}
; 814  : 
; 815  : 	if (pSlot->isItem && !(pSlot->dwState & SLOT_STATE_LOCK))

  0002e	8b 45 fc	 mov	 eax, DWORD PTR _pSlot$[ebp]
  00031	83 78 10 00	 cmp	 DWORD PTR [eax+16], 0
  00035	74 19		 je	 SHORT $LN3@OnMouseLef
  00037	f6 00 01	 test	 BYTE PTR [eax], 1
  0003a	75 14		 jne	 SHORT $LN3@OnMouseLef

; 816  : 	{
; 817  : 		OnSelectItemSlot(pSlot->dwSlotNumber);

  0003c	ff 70 04	 push	 DWORD PTR [eax+4]
  0003f	8b ce		 mov	 ecx, esi
  00041	e8 00 00 00 00	 call	 ?OnSelectItemSlot@CSlotWindow@UI@@IAEXH@Z ; UI::CSlotWindow::OnSelectItemSlot

; 822  : 	}
; 823  : 
; 824  : 	return TRUE;
; 825  : }

  00046	b8 01 00 00 00	 mov	 eax, 1
  0004b	5e		 pop	 esi
  0004c	8b e5		 mov	 esp, ebp
  0004e	5d		 pop	 ebp
  0004f	c3		 ret	 0
$LN3@OnMouseLef:

; 818  : 	}
; 819  : 	else
; 820  : 	{
; 821  : 		OnSelectEmptySlot(pSlot->dwSlotNumber);

  00050	ff 70 04	 push	 DWORD PTR [eax+4]
  00053	8b ce		 mov	 ecx, esi
  00055	e8 00 00 00 00	 call	 ?OnSelectEmptySlot@CSlotWindow@UI@@IAEXH@Z ; UI::CSlotWindow::OnSelectEmptySlot

; 822  : 	}
; 823  : 
; 824  : 	return TRUE;
; 825  : }

  0005a	b8 01 00 00 00	 mov	 eax, 1
  0005f	5e		 pop	 esi
  00060	8b e5		 mov	 esp, ebp
  00062	5d		 pop	 ebp
  00063	c3		 ret	 0
?OnMouseLeftButtonDown@CSlotWindow@UI@@MAEHXZ ENDP	; UI::CSlotWindow::OnMouseLeftButtonDown
_TEXT	ENDS
; Function compile flags: /Ogtp
; File C:\DS Project\DS Files\Source\ClientSource\Client\eterPythonLib\PythonSlotWindow.cpp
; File C:\Program Files (x86)\Microsoft Visual Studio\2019\Community\VC\Tools\MSVC\14.27.29110\include\list
; File C:\Program Files (x86)\Microsoft Visual Studio\2019\Community\VC\Tools\MSVC\14.27.29110\include\algorithm
; File C:\DS Project\DS Files\Source\ClientSource\Client\eterBase\Stl.h
; File C:\Program Files (x86)\Microsoft Visual Studio\2019\Community\VC\Tools\MSVC\14.27.29110\include\list
; File C:\Program Files (x86)\Microsoft Visual Studio\2019\Community\VC\Tools\MSVC\14.27.29110\include\algorithm
; File C:\Program Files (x86)\Microsoft Visual Studio\2019\Community\VC\Tools\MSVC\14.27.29110\include\list
; File C:\DS Project\DS Files\Source\ClientSource\Client\eterPythonLib\PythonSlotWindow.cpp
; File C:\Program Files (x86)\Microsoft Visual Studio\2019\Community\VC\Tools\MSVC\14.27.29110\include\list
; File C:\DS Project\DS Files\Source\ClientSource\Client\eterPythonLib\PythonSlotWindow.cpp
; File C:\Program Files (x86)\Microsoft Visual Studio\2019\Community\VC\Tools\MSVC\14.27.29110\include\list
; File C:\DS Project\DS Files\Source\ClientSource\Client\eterPythonLib\PythonSlotWindow.cpp
;	COMDAT ?OnRender@CSlotWindow@UI@@MAEXXZ
_TEXT	SEGMENT
_iItemYSize$1$ = -28					; size = 4
tv1187 = -24						; size = 4
_iY$1$ = -24						; size = 4
_iX$1$ = -20						; size = 4
_itor$1$ = -16						; size = 4
_this$1$ = -12						; size = 4
_i$1$ = -8						; size = 4
tv1188 = -4						; size = 4
_fcurTime$1 = -4					; size = 4
?OnRender@CSlotWindow@UI@@MAEXXZ PROC			; UI::CSlotWindow::OnRender, COMDAT
; _this$ = ecx

; 1019 : {

  00000	55		 push	 ebp
  00001	8b ec		 mov	 ebp, esp
  00003	83 ec 1c	 sub	 esp, 28			; 0000001cH
  00006	53		 push	 ebx
  00007	56		 push	 esi
  00008	57		 push	 edi
  00009	8b f9		 mov	 edi, ecx
  0000b	89 7d f4	 mov	 DWORD PTR _this$1$[ebp], edi

; 1020 : 	RenderSlotBaseImage();

  0000e	e8 00 00 00 00	 call	 ?RenderSlotBaseImage@CSlotWindow@UI@@IAEXXZ ; UI::CSlotWindow::RenderSlotBaseImage

; 1021 : 
; 1022 : 	switch (m_dwSlotStyle)

  00013	8b 87 80 00 00
	00		 mov	 eax, DWORD PTR [edi+128]
  00019	83 e8 01	 sub	 eax, 1
  0001c	74 11		 je	 SHORT $LN10@OnRender
  0001e	83 e8 01	 sub	 eax, 1
  00021	75 16		 jne	 SHORT $LN2@OnRender

; 1026 : 			break;
; 1027 : 		case SLOT_STYLE_SELECT:
; 1028 : 			OnRenderSelectedSlot();

  00023	8b 07		 mov	 eax, DWORD PTR [edi]
  00025	8b cf		 mov	 ecx, edi
  00027	ff 90 a0 00 00
	00		 call	 DWORD PTR [eax+160]
  0002d	eb 0a		 jmp	 SHORT $LN2@OnRender
$LN10@OnRender:

; 1023 : 	{
; 1024 : 		case SLOT_STYLE_PICK_UP:
; 1025 : 			OnRenderPickingSlot();

  0002f	8b 07		 mov	 eax, DWORD PTR [edi]
  00031	8b cf		 mov	 ecx, edi
  00033	ff 90 9c 00 00
	00		 call	 DWORD PTR [eax+156]
$LN2@OnRender:
; File C:\Program Files (x86)\Microsoft Visual Studio\2019\Community\VC\Tools\MSVC\14.27.29110\include\list

; 39   :     _List_unchecked_const_iterator(_Nodeptr _Pnode, const _Mylist* _Plist) noexcept : _Ptr(_Pnode) {

  00039	8b 5f 64	 mov	 ebx, DWORD PTR [edi+100]
  0003c	8b 33		 mov	 esi, DWORD PTR [ebx]

; 74   :         return _Ptr == _Right._Ptr;

  0003e	3b f3		 cmp	 esi, ebx
; File C:\Program Files (x86)\Microsoft Visual Studio\2019\Community\VC\Tools\MSVC\14.27.29110\include\algorithm

; 235  :     for (; _UFirst != _ULast; ++_UFirst) {

  00040	74 0e		 je	 SHORT $LN54@OnRender
$LL55@OnRender:
; File C:\DS Project\DS Files\Source\ClientSource\Client\eterBase\Stl.h

; 41   : 		{((_P->*_Ptr)()); }

  00042	8b 4e 08	 mov	 ecx, DWORD PTR [esi+8]
  00045	e8 00 00 00 00	 call	 ??_9CWindow@UI@@$B3AE	; UI::CWindow::`vcall'{4}'
; File C:\Program Files (x86)\Microsoft Visual Studio\2019\Community\VC\Tools\MSVC\14.27.29110\include\list

; 52   :         _Ptr = _Ptr->_Next;

  0004a	8b 36		 mov	 esi, DWORD PTR [esi]

; 74   :         return _Ptr == _Right._Ptr;

  0004c	3b f3		 cmp	 esi, ebx
; File C:\Program Files (x86)\Microsoft Visual Studio\2019\Community\VC\Tools\MSVC\14.27.29110\include\algorithm

; 235  :     for (; _UFirst != _ULast; ++_UFirst) {

  0004e	75 f2		 jne	 SHORT $LL55@OnRender
$LN54@OnRender:
; File C:\Program Files (x86)\Microsoft Visual Studio\2019\Community\VC\Tools\MSVC\14.27.29110\include\list

; 1092 :         return iterator(_Mypair._Myval2._Myhead->_Next, _STD addressof(_Mypair._Myval2));

  00050	8b 87 8c 00 00
	00		 mov	 eax, DWORD PTR [edi+140]

; 39   :     _List_unchecked_const_iterator(_Nodeptr _Pnode, const _Mylist* _Plist) noexcept : _Ptr(_Pnode) {

  00056	8b 30		 mov	 esi, DWORD PTR [eax]
  00058	89 75 f0	 mov	 DWORD PTR _itor$1$[ebp], esi
  0005b	3b f0		 cmp	 esi, eax
; File C:\DS Project\DS Files\Source\ClientSource\Client\eterPythonLib\PythonSlotWindow.cpp

; 1053 : 	for (itor = m_SlotList.begin(); itor != m_SlotList.end(); ++itor)

  0005d	0f 84 a0 03 00
	00		 je	 $LN5@OnRender
$LL6@OnRender:

; 1057 : 		if (rSlot.pSlotButton)

  00063	8b 4e 4c	 mov	 ecx, DWORD PTR [esi+76]
; File C:\Program Files (x86)\Microsoft Visual Studio\2019\Community\VC\Tools\MSVC\14.27.29110\include\list

; 152  :         return this->_Ptr->_Myval;

  00066	8d 5e 08	 lea	 ebx, DWORD PTR [esi+8]
; File C:\DS Project\DS Files\Source\ClientSource\Client\eterPythonLib\PythonSlotWindow.cpp

; 1057 : 		if (rSlot.pSlotButton)

  00069	85 c9		 test	 ecx, ecx
  0006b	74 11		 je	 SHORT $LN12@OnRender

; 1058 : 		{
; 1059 : 			rSlot.pSlotButton->SetPosition(rSlot.ixPosition + 1, rSlot.iyPosition + 19);

  0006d	8b 43 24	 mov	 eax, DWORD PTR [ebx+36]
  00070	83 c0 13	 add	 eax, 19			; 00000013H
  00073	50		 push	 eax
  00074	8b 43 20	 mov	 eax, DWORD PTR [ebx+32]
  00077	40		 inc	 eax
  00078	50		 push	 eax
  00079	e8 00 00 00 00	 call	 ?SetPosition@CWindow@UI@@QAEXJJ@Z ; UI::CWindow::SetPosition
$LN12@OnRender:

; 1060 : 		}
; 1061 : 		if (rSlot.pSignImage)

  0007e	8b 4b 48	 mov	 ecx, DWORD PTR [ebx+72]
  00081	85 c9		 test	 ecx, ecx
  00083	74 13		 je	 SHORT $LN13@OnRender

; 1062 : 		{
; 1063 : 			rSlot.pSignImage->SetPosition(rSlot.ixPosition - 7, rSlot.iyPosition + 10);

  00085	8b 43 24	 mov	 eax, DWORD PTR [ebx+36]
  00088	83 c0 0a	 add	 eax, 10			; 0000000aH
  0008b	50		 push	 eax
  0008c	8b 43 20	 mov	 eax, DWORD PTR [ebx+32]
  0008f	83 e8 07	 sub	 eax, 7
  00092	50		 push	 eax
  00093	e8 00 00 00 00	 call	 ?SetPosition@CWindow@UI@@QAEXJJ@Z ; UI::CWindow::SetPosition
$LN13@OnRender:

; 1064 : 		}
; 1065 : 
; 1066 : 		if (rSlot.pInstance)

  00098	8b 4b 34	 mov	 ecx, DWORD PTR [ebx+52]
  0009b	85 c9		 test	 ecx, ecx
  0009d	74 35		 je	 SHORT $LN14@OnRender

; 1067 : 		{
; 1068 : 			rSlot.pInstance->SetPosition(m_rect.left + rSlot.ixPosition, m_rect.top + rSlot.iyPosition);

  0009f	8b 43 24	 mov	 eax, DWORD PTR [ebx+36]
  000a2	83 ec 08	 sub	 esp, 8
  000a5	03 47 38	 add	 eax, DWORD PTR [edi+56]
  000a8	66 0f 6e c0	 movd	 xmm0, eax
  000ac	8b 43 20	 mov	 eax, DWORD PTR [ebx+32]
  000af	03 47 34	 add	 eax, DWORD PTR [edi+52]
  000b2	0f 5b c0	 cvtdq2ps xmm0, xmm0
  000b5	f3 0f 11 44 24
	04		 movss	 DWORD PTR [esp+4], xmm0
  000bb	66 0f 6e c0	 movd	 xmm0, eax
  000bf	0f 5b c0	 cvtdq2ps xmm0, xmm0
  000c2	f3 0f 11 04 24	 movss	 DWORD PTR [esp], xmm0
  000c7	e8 00 00 00 00	 call	 ?SetPosition@CGraphicImageInstance@@QAEXMM@Z ; CGraphicImageInstance::SetPosition

; 1069 : 			rSlot.pInstance->Render();

  000cc	8b 4b 34	 mov	 ecx, DWORD PTR [ebx+52]
  000cf	e8 00 00 00 00	 call	 ?Render@CGraphicImageInstance@@QAEXXZ ; CGraphicImageInstance::Render
$LN14@OnRender:

; 1070 : 		}
; 1071 : 
; 1072 : 		if (!rSlot.isItem)

  000d4	83 7b 10 00	 cmp	 DWORD PTR [ebx+16], 0
  000d8	8b 03		 mov	 eax, DWORD PTR [ebx]
  000da	75 2b		 jne	 SHORT $LN15@OnRender

; 1073 : 		{
; 1074 : 			if (IS_SET(rSlot.dwState, SLOT_STATE_ALWAYS_RENDER_COVER))

  000dc	a8 08		 test	 al, 8
  000de	0f 84 0e 03 00
	00		 je	 $LN4@OnRender

; 1075 : 			{
; 1076 : 				rSlot.pCoverButton->Show();

  000e4	8b 4b 40	 mov	 ecx, DWORD PTR [ebx+64]
  000e7	e8 00 00 00 00	 call	 ?Show@CWindow@UI@@QAEXXZ ; UI::CWindow::Show

; 1077 : 				rSlot.pCoverButton->SetPosition(rSlot.ixPosition, rSlot.iyPosition);

  000ec	ff 73 24	 push	 DWORD PTR [ebx+36]
  000ef	8b 4b 40	 mov	 ecx, DWORD PTR [ebx+64]
  000f2	ff 73 20	 push	 DWORD PTR [ebx+32]
  000f5	e8 00 00 00 00	 call	 ?SetPosition@CWindow@UI@@QAEXJJ@Z ; UI::CWindow::SetPosition

; 115  : 			CButton::OnRender();

  000fa	8b 4b 40	 mov	 ecx, DWORD PTR [ebx+64]
  000fd	e8 00 00 00 00	 call	 ?OnRender@CButton@UI@@MAEXXZ ; UI::CButton::OnRender

; 1078 : 				rSlot.pCoverButton->RenderButton();
; 1079 : 			}
; 1080 : 
; 1081 : 			continue;

  00102	e9 eb 02 00 00	 jmp	 $LN4@OnRender
$LN15@OnRender:

; 1082 : 		}
; 1083 : 
; 1084 : 		if (IS_SET(rSlot.dwState, SLOT_STATE_DISABLE))

  00107	a8 04		 test	 al, 4
  00109	0f 84 9c 00 00
	00		 je	 $LN17@OnRender

; 1085 : 		{
; 1086 : 			CPythonGraphic::Instance().SetDiffuseColor(1.0f, 0.0f, 0.0f, 0.3f);

  0010f	8b 0d 00 00 00
	00		 mov	 ecx, DWORD PTR ?ms_singleton@?$CSingleton@VCPythonGraphic@@@@0PAVCPythonGraphic@@A ; CSingleton<CPythonGraphic>::ms_singleton
  00115	83 ec 10	 sub	 esp, 16			; 00000010H
  00118	c7 44 24 0c 9a
	99 99 3e	 mov	 DWORD PTR [esp+12], 1050253722 ; 3e99999aH
  00120	c7 44 24 08 00
	00 00 00	 mov	 DWORD PTR [esp+8], 0
  00128	c7 44 24 04 00
	00 00 00	 mov	 DWORD PTR [esp+4], 0
  00130	c7 04 24 00 00
	80 3f		 mov	 DWORD PTR [esp], 1065353216 ; 3f800000H
  00137	e8 00 00 00 00	 call	 ?SetDiffuseColor@CScreen@@QAEXMMMM@Z ; CScreen::SetDiffuseColor

; 1087 : 			CPythonGraphic::Instance().RenderBar2d(m_rect.left + rSlot.ixPosition,

  0013c	8b 4f 38	 mov	 ecx, DWORD PTR [edi+56]
  0013f	83 ec 14	 sub	 esp, 20			; 00000014H
  00142	8b 46 34	 mov	 eax, DWORD PTR [esi+52]
  00145	8b 53 24	 mov	 edx, DWORD PTR [ebx+36]
  00148	03 c1		 add	 eax, ecx
  0014a	8b 7f 34	 mov	 edi, DWORD PTR [edi+52]
  0014d	03 c2		 add	 eax, edx
  0014f	8b 5b 20	 mov	 ebx, DWORD PTR [ebx+32]
  00152	c7 44 24 10 00
	00 00 00	 mov	 DWORD PTR [esp+16], 0
  0015a	66 0f 6e c0	 movd	 xmm0, eax
  0015e	8b 46 30	 mov	 eax, DWORD PTR [esi+48]
  00161	0f 5b c0	 cvtdq2ps xmm0, xmm0
  00164	03 c7		 add	 eax, edi
  00166	03 c3		 add	 eax, ebx
  00168	f3 0f 11 44 24
	0c		 movss	 DWORD PTR [esp+12], xmm0
  0016e	66 0f 6e c0	 movd	 xmm0, eax
  00172	8d 04 11	 lea	 eax, DWORD PTR [ecx+edx]
  00175	8b 0d 00 00 00
	00		 mov	 ecx, DWORD PTR ?ms_singleton@?$CSingleton@VCPythonGraphic@@@@0PAVCPythonGraphic@@A ; CSingleton<CPythonGraphic>::ms_singleton
  0017b	0f 5b c0	 cvtdq2ps xmm0, xmm0
  0017e	f3 0f 11 44 24
	08		 movss	 DWORD PTR [esp+8], xmm0
  00184	66 0f 6e c0	 movd	 xmm0, eax
  00188	8d 04 1f	 lea	 eax, DWORD PTR [edi+ebx]
  0018b	0f 5b c0	 cvtdq2ps xmm0, xmm0
  0018e	f3 0f 11 44 24
	04		 movss	 DWORD PTR [esp+4], xmm0
  00194	66 0f 6e c0	 movd	 xmm0, eax
  00198	0f 5b c0	 cvtdq2ps xmm0, xmm0
  0019b	f3 0f 11 04 24	 movss	 DWORD PTR [esp], xmm0
  001a0	e8 00 00 00 00	 call	 ?RenderBar2d@CScreen@@QAEXMMMMM@Z ; CScreen::RenderBar2d
  001a5	8b 7d f4	 mov	 edi, DWORD PTR _this$1$[ebp]
  001a8	8d 5e 08	 lea	 ebx, DWORD PTR [esi+8]
$LN17@OnRender:

; 1088 : 				m_rect.top + rSlot.iyPosition,
; 1089 : 				m_rect.left + rSlot.ixPosition + rSlot.ixCellSize,
; 1090 : 				m_rect.top + rSlot.iyPosition + rSlot.iyCellSize);
; 1091 : 		}
; 1092 : 
; 1093 : 		if (rSlot.fCoolTime != 0.0f)

  001ab	f3 0f 10 43 14	 movss	 xmm0, DWORD PTR [ebx+20]
  001b0	0f 57 c9	 xorps	 xmm1, xmm1
  001b3	0f 2e c1	 ucomiss xmm0, xmm1
  001b6	9f		 lahf
  001b7	f6 c4 44	 test	 ah, 68			; 00000044H
  001ba	0f 8b a9 00 00
	00		 jnp	 $LN19@OnRender

; 1094 : 		{
; 1095 : 			float fcurTime = CTimer::Instance().GetCurrentSecond();

  001c0	8b 0d 00 00 00
	00		 mov	 ecx, DWORD PTR ?ms_singleton@?$CSingleton@VCTimer@@@@0PAVCTimer@@A ; CSingleton<CTimer>::ms_singleton
  001c6	e8 00 00 00 00	 call	 ?GetCurrentSecond@CTimer@@QAEMXZ ; CTimer::GetCurrentSecond
  001cb	d9 5d fc	 fstp	 DWORD PTR _fcurTime$1[ebp]

; 1096 : 			float fPercentage = (fcurTime - rSlot.fStartCoolTime) / rSlot.fCoolTime;

  001ce	f3 0f 10 45 fc	 movss	 xmm0, DWORD PTR _fcurTime$1[ebp]

; 1097 : 			CPythonGraphic::Instance().RenderCoolTimeBox(m_rect.left + rSlot.ixPosition + 16.0f, m_rect.top + rSlot.iyPosition + 16.0f, 16.0f, fPercentage);

  001d3	83 ec 10	 sub	 esp, 16			; 00000010H
  001d6	f3 0f 5c 43 18	 subss	 xmm0, DWORD PTR [ebx+24]
  001db	8b 43 24	 mov	 eax, DWORD PTR [ebx+36]
  001de	03 47 38	 add	 eax, DWORD PTR [edi+56]
  001e1	8b 0d 00 00 00
	00		 mov	 ecx, DWORD PTR ?ms_singleton@?$CSingleton@VCPythonGraphic@@@@0PAVCPythonGraphic@@A ; CSingleton<CPythonGraphic>::ms_singleton
  001e7	f3 0f 5e 43 14	 divss	 xmm0, DWORD PTR [ebx+20]
  001ec	f3 0f 11 44 24
	0c		 movss	 DWORD PTR [esp+12], xmm0
  001f2	66 0f 6e c0	 movd	 xmm0, eax
  001f6	8b 43 20	 mov	 eax, DWORD PTR [ebx+32]
  001f9	03 47 34	 add	 eax, DWORD PTR [edi+52]
  001fc	0f 5b c0	 cvtdq2ps xmm0, xmm0
  001ff	c7 44 24 08 00
	00 80 41	 mov	 DWORD PTR [esp+8], 1098907648 ; 41800000H
  00207	f3 0f 58 05 00
	00 00 00	 addss	 xmm0, DWORD PTR __real@41800000
  0020f	f3 0f 11 44 24
	04		 movss	 DWORD PTR [esp+4], xmm0
  00215	66 0f 6e c0	 movd	 xmm0, eax
  00219	0f 5b c0	 cvtdq2ps xmm0, xmm0
  0021c	f3 0f 58 05 00
	00 00 00	 addss	 xmm0, DWORD PTR __real@41800000
  00224	f3 0f 11 04 24	 movss	 DWORD PTR [esp], xmm0
  00229	e8 00 00 00 00	 call	 ?RenderCoolTimeBox@CPythonGraphic@@QAEXMMMM@Z ; CPythonGraphic::RenderCoolTimeBox

; 1098 : 
; 1099 : 			if (fcurTime - rSlot.fStartCoolTime >= rSlot.fCoolTime)

  0022e	f3 0f 10 45 fc	 movss	 xmm0, DWORD PTR _fcurTime$1[ebp]
  00233	f3 0f 5c 43 18	 subss	 xmm0, DWORD PTR [ebx+24]
  00238	f3 0f 10 4b 14	 movss	 xmm1, DWORD PTR [ebx+20]
  0023d	0f 2f c1	 comiss	 xmm0, xmm1
  00240	72 27		 jb	 SHORT $LN19@OnRender

; 1100 : 			{
; 1101 : 				if ((fcurTime - rSlot.fStartCoolTime) - rSlot.fCoolTime < 1.0f)

  00242	f3 0f 5c c1	 subss	 xmm0, xmm1
  00246	f3 0f 10 0d 00
	00 00 00	 movss	 xmm1, DWORD PTR __real@3f800000
  0024e	0f 2f c8	 comiss	 xmm1, xmm0
  00251	76 08		 jbe	 SHORT $LN20@OnRender

; 1102 : 					__CreateFinishCoolTimeEffect(&rSlot);

  00253	53		 push	 ebx
  00254	8b cf		 mov	 ecx, edi
  00256	e8 00 00 00 00	 call	 ?__CreateFinishCoolTimeEffect@CSlotWindow@UI@@IAEXPAUSSlot@12@@Z ; UI::CSlotWindow::__CreateFinishCoolTimeEffect
$LN20@OnRender:

; 1103 : 
; 1104 : 				rSlot.fCoolTime = 0.0f;

  0025b	c7 43 14 00 00
	00 00		 mov	 DWORD PTR [ebx+20], 0

; 1105 : 				rSlot.fStartCoolTime = 0.0f;

  00262	c7 43 18 00 00
	00 00		 mov	 DWORD PTR [ebx+24], 0
$LN19@OnRender:

; 1106 : 			}
; 1107 : 		}
; 1108 : 
; 1109 : 		if (rSlot.pCoverButton)

  00269	8b 4b 40	 mov	 ecx, DWORD PTR [ebx+64]
  0026c	85 c9		 test	 ecx, ecx
  0026e	74 13		 je	 SHORT $LN21@OnRender

; 1110 : 		{
; 1111 : 			rSlot.pCoverButton->SetPosition(rSlot.ixPosition, rSlot.iyPosition);

  00270	ff 73 24	 push	 DWORD PTR [ebx+36]
  00273	ff 73 20	 push	 DWORD PTR [ebx+32]
  00276	e8 00 00 00 00	 call	 ?SetPosition@CWindow@UI@@QAEXJJ@Z ; UI::CWindow::SetPosition

; 115  : 			CButton::OnRender();

  0027b	8b 4b 40	 mov	 ecx, DWORD PTR [ebx+64]
  0027e	e8 00 00 00 00	 call	 ?OnRender@CButton@UI@@MAEXXZ ; UI::CButton::OnRender
$LN21@OnRender:

; 1112 : 			rSlot.pCoverButton->RenderButton();
; 1113 : 		}
; 1114 : 
; 1115 : 		if (rSlot.pNumberLine)

  00283	8b 4b 38	 mov	 ecx, DWORD PTR [ebx+56]
  00286	85 c9		 test	 ecx, ecx
  00288	74 35		 je	 SHORT $LN22@OnRender

; 1116 : 		{
; 1117 : 			int ix = rSlot.byxPlacedItemSize*ITEM_WIDTH + rSlot.ixPosition - 4;
; 1118 : 			int iy = rSlot.iyPosition + rSlot.byyPlacedItemSize*ITEM_HEIGHT - 12 + 2;

  0028a	0f b6 53 31	 movzx	 edx, BYTE PTR [ebx+49]
  0028e	8b 43 24	 mov	 eax, DWORD PTR [ebx+36]
  00291	c1 e2 05	 shl	 edx, 5
  00294	83 c2 f6	 add	 edx, -10		; fffffff6H
  00297	03 c2		 add	 eax, edx
  00299	0f b6 53 30	 movzx	 edx, BYTE PTR [ebx+48]

; 1119 : 			rSlot.pNumberLine->SetPosition(ix, iy);

  0029d	50		 push	 eax
  0029e	8b 43 20	 mov	 eax, DWORD PTR [ebx+32]
  002a1	c1 e2 05	 shl	 edx, 5
  002a4	83 c2 fc	 add	 edx, -4			; fffffffcH
  002a7	03 c2		 add	 eax, edx
  002a9	50		 push	 eax
  002aa	e8 00 00 00 00	 call	 ?SetPosition@CWindow@UI@@QAEXJJ@Z ; UI::CWindow::SetPosition

; 1120 : 			rSlot.pNumberLine->Update();

  002af	8b 4b 38	 mov	 ecx, DWORD PTR [ebx+56]
  002b2	e8 00 00 00 00	 call	 ?Update@CWindow@UI@@QAEXXZ ; UI::CWindow::Update

; 1121 : 			rSlot.pNumberLine->Render();

  002b7	8b 4b 38	 mov	 ecx, DWORD PTR [ebx+56]
  002ba	e8 00 00 00 00	 call	 ?Render@CWindow@UI@@QAEXXZ ; UI::CWindow::Render
$LN22@OnRender:

; 1122 : 		}
; 1123 : 
; 1124 : 		if (rSlot.pFinishCoolTimeEffect)

  002bf	8b 4b 4c	 mov	 ecx, DWORD PTR [ebx+76]
  002c2	85 c9		 test	 ecx, ecx
  002c4	74 1b		 je	 SHORT $LN23@OnRender

; 1125 : 		{
; 1126 : 			rSlot.pFinishCoolTimeEffect->SetPosition(rSlot.ixPosition, rSlot.iyPosition);

  002c6	ff 73 24	 push	 DWORD PTR [ebx+36]
  002c9	ff 73 20	 push	 DWORD PTR [ebx+32]
  002cc	e8 00 00 00 00	 call	 ?SetPosition@CWindow@UI@@QAEXJJ@Z ; UI::CWindow::SetPosition

; 1127 : 			rSlot.pFinishCoolTimeEffect->Update();

  002d1	8b 4b 4c	 mov	 ecx, DWORD PTR [ebx+76]
  002d4	e8 00 00 00 00	 call	 ?Update@CWindow@UI@@QAEXXZ ; UI::CWindow::Update

; 1128 : 			rSlot.pFinishCoolTimeEffect->Render();

  002d9	8b 4b 4c	 mov	 ecx, DWORD PTR [ebx+76]
  002dc	e8 00 00 00 00	 call	 ?Render@CWindow@UI@@QAEXXZ ; UI::CWindow::Render
$LN23@OnRender:

; 1129 : 		}
; 1130 : 
; 1131 : #ifdef ENABLE_ACCE_SYSTEM
; 1132 : 		{
; 1133 : 			int iX = m_rect.left + rSlot.ixPosition, iY = m_rect.top + rSlot.iyPosition, iItemYSize = rSlot.byyPlacedItemSize;

  002e1	8b 47 34	 mov	 eax, DWORD PTR [edi+52]
  002e4	8d 4b 50	 lea	 ecx, DWORD PTR [ebx+80]
  002e7	03 43 20	 add	 eax, DWORD PTR [ebx+32]
  002ea	89 45 ec	 mov	 DWORD PTR _iX$1$[ebp], eax
  002ed	8b 47 38	 mov	 eax, DWORD PTR [edi+56]
  002f0	03 43 24	 add	 eax, DWORD PTR [ebx+36]
  002f3	33 d2		 xor	 edx, edx
  002f5	8b 7d ec	 mov	 edi, DWORD PTR _iX$1$[ebp]
  002f8	89 45 e8	 mov	 DWORD PTR _iY$1$[ebp], eax
  002fb	0f b6 43 31	 movzx	 eax, BYTE PTR [ebx+49]
  002ff	8b 75 e8	 mov	 esi, DWORD PTR _iY$1$[ebp]
  00302	89 45 e4	 mov	 DWORD PTR _iItemYSize$1$[ebp], eax
  00305	89 55 f8	 mov	 DWORD PTR _i$1$[ebp], edx
  00308	89 4d fc	 mov	 DWORD PTR tv1188[ebp], ecx
  0030b	0f 1f 44 00 00	 npad	 5
$LL9@OnRender:

; 1135 : 			{
; 1136 : 				auto& pEff = rSlot.pActiveSlotEffect[i];
; 1137 : 				if ((pEff) && (iItemYSize == i + 1))

  00310	8b 01		 mov	 eax, DWORD PTR [ecx]
  00312	89 45 e8	 mov	 DWORD PTR tv1187[ebp], eax
  00315	85 c0		 test	 eax, eax
  00317	74 36		 je	 SHORT $LN7@OnRender
  00319	8d 42 01	 lea	 eax, DWORD PTR [edx+1]
  0031c	39 45 e4	 cmp	 DWORD PTR _iItemYSize$1$[ebp], eax
  0031f	75 2e		 jne	 SHORT $LN7@OnRender

; 1138 : 				{
; 1139 : 					pEff->Show();

  00321	8b 4d e8	 mov	 ecx, DWORD PTR tv1187[ebp]
  00324	e8 00 00 00 00	 call	 ?Show@CWindow@UI@@QAEXXZ ; UI::CWindow::Show

; 1140 : 					pEff->SetPosition(iX, iY);

  00329	8b 4d fc	 mov	 ecx, DWORD PTR tv1188[ebp]
  0032c	56		 push	 esi
  0032d	57		 push	 edi
  0032e	8b 09		 mov	 ecx, DWORD PTR [ecx]
  00330	e8 00 00 00 00	 call	 ?SetPosition@CWindow@UI@@QAEXJJ@Z ; UI::CWindow::SetPosition

; 1141 : 					pEff->Update();

  00335	8b 45 fc	 mov	 eax, DWORD PTR tv1188[ebp]
  00338	8b 08		 mov	 ecx, DWORD PTR [eax]
  0033a	e8 00 00 00 00	 call	 ?Update@CWindow@UI@@QAEXXZ ; UI::CWindow::Update

; 1142 : 					pEff->Render();

  0033f	8b 45 fc	 mov	 eax, DWORD PTR tv1188[ebp]
  00342	8b 08		 mov	 ecx, DWORD PTR [eax]
  00344	e8 00 00 00 00	 call	 ?Render@CWindow@UI@@QAEXXZ ; UI::CWindow::Render
  00349	8b 4d fc	 mov	 ecx, DWORD PTR tv1188[ebp]
  0034c	8b 55 f8	 mov	 edx, DWORD PTR _i$1$[ebp]
$LN7@OnRender:

; 1134 : 			for (int i = 0; i < 3; ++i)

  0034f	42		 inc	 edx
  00350	83 c1 04	 add	 ecx, 4
  00353	89 55 f8	 mov	 DWORD PTR _i$1$[ebp], edx
  00356	89 4d fc	 mov	 DWORD PTR tv1188[ebp], ecx
  00359	83 fa 03	 cmp	 edx, 3
  0035c	7c b2		 jl	 SHORT $LL9@OnRender

; 1143 : 				}
; 1144 : 			}
; 1145 : 		}
; 1146 : #endif
; 1147 : 
; 1148 : 		if (rSlot.bActive)

  0035e	83 7b 1c 00	 cmp	 DWORD PTR [ebx+28], 0
  00362	8b 75 f0	 mov	 esi, DWORD PTR _itor$1$[ebp]
  00365	8b 7d f4	 mov	 edi, DWORD PTR _this$1$[ebp]
  00368	0f 84 84 00 00
	00		 je	 $LN4@OnRender

; 1149 : 		{
; 1150 : 			if (m_pSlotActiveEffect && rSlot.byyPlacedItemSize==1)

  0036e	8b 8f a8 00 00
	00		 mov	 ecx, DWORD PTR [edi+168]
  00374	85 c9		 test	 ecx, ecx
  00376	74 21		 je	 SHORT $LN139@OnRender
  00378	80 7b 31 01	 cmp	 BYTE PTR [ebx+49], 1
  0037c	75 1b		 jne	 SHORT $LN139@OnRender

; 1151 : 			{
; 1152 : 				int ix = m_rect.left + rSlot.ixPosition;
; 1153 : 				int iy = m_rect.top + rSlot.iyPosition;

  0037e	8b 47 38	 mov	 eax, DWORD PTR [edi+56]
  00381	03 43 24	 add	 eax, DWORD PTR [ebx+36]

; 1154 : 				m_pSlotActiveEffect->SetPosition(ix, iy);

  00384	50		 push	 eax
  00385	8b 47 34	 mov	 eax, DWORD PTR [edi+52]
  00388	03 43 20	 add	 eax, DWORD PTR [ebx+32]
  0038b	50		 push	 eax
  0038c	e8 00 00 00 00	 call	 ?SetPosition@CWindow@UI@@QAEXJJ@Z ; UI::CWindow::SetPosition

; 1155 : 				m_pSlotActiveEffect->Render();

  00391	8b 8f a8 00 00
	00		 mov	 ecx, DWORD PTR [edi+168]

; 1156 : 			}

  00397	eb 54		 jmp	 SHORT $LN141@OnRender
$LN139@OnRender:

; 1157 : #ifdef ENABLE_HIGHLIGHT_NEW_ITEM
; 1158 : 			else if (m_pSlotActiveEffectSlot2 && rSlot.byyPlacedItemSize==2)

  00399	8b 8f ac 00 00
	00		 mov	 ecx, DWORD PTR [edi+172]
  0039f	85 c9		 test	 ecx, ecx
  003a1	74 21		 je	 SHORT $LN140@OnRender
  003a3	80 7b 31 02	 cmp	 BYTE PTR [ebx+49], 2
  003a7	75 1b		 jne	 SHORT $LN140@OnRender

; 1159 : 			{
; 1160 : 				int ix = m_rect.left + rSlot.ixPosition;
; 1161 : 				int iy = m_rect.top + rSlot.iyPosition;

  003a9	8b 47 38	 mov	 eax, DWORD PTR [edi+56]
  003ac	03 43 24	 add	 eax, DWORD PTR [ebx+36]

; 1162 : 				m_pSlotActiveEffectSlot2->SetPosition(ix, iy);

  003af	50		 push	 eax
  003b0	8b 47 34	 mov	 eax, DWORD PTR [edi+52]
  003b3	03 43 20	 add	 eax, DWORD PTR [ebx+32]
  003b6	50		 push	 eax
  003b7	e8 00 00 00 00	 call	 ?SetPosition@CWindow@UI@@QAEXJJ@Z ; UI::CWindow::SetPosition

; 1163 : 				m_pSlotActiveEffectSlot2->Render();

  003bc	8b 8f ac 00 00
	00		 mov	 ecx, DWORD PTR [edi+172]

; 1164 : 			}

  003c2	eb 29		 jmp	 SHORT $LN141@OnRender
$LN140@OnRender:

; 1165 : 			else if (m_pSlotActiveEffectSlot3 && rSlot.byyPlacedItemSize==3)

  003c4	8b 8f b0 00 00
	00		 mov	 ecx, DWORD PTR [edi+176]
  003ca	85 c9		 test	 ecx, ecx
  003cc	74 24		 je	 SHORT $LN4@OnRender
  003ce	80 7b 31 03	 cmp	 BYTE PTR [ebx+49], 3
  003d2	75 1e		 jne	 SHORT $LN4@OnRender

; 1166 : 			{
; 1167 : 				int ix = m_rect.left + rSlot.ixPosition;
; 1168 : 				int iy = m_rect.top + rSlot.iyPosition;

  003d4	8b 47 38	 mov	 eax, DWORD PTR [edi+56]
  003d7	03 43 24	 add	 eax, DWORD PTR [ebx+36]

; 1169 : 				m_pSlotActiveEffectSlot3->SetPosition(ix, iy);

  003da	50		 push	 eax
  003db	8b 47 34	 mov	 eax, DWORD PTR [edi+52]
  003de	03 43 20	 add	 eax, DWORD PTR [ebx+32]
  003e1	50		 push	 eax
  003e2	e8 00 00 00 00	 call	 ?SetPosition@CWindow@UI@@QAEXJJ@Z ; UI::CWindow::SetPosition

; 1170 : 				m_pSlotActiveEffectSlot3->Render();

  003e7	8b 8f b0 00 00
	00		 mov	 ecx, DWORD PTR [edi+176]
$LN141@OnRender:
; File C:\Program Files (x86)\Microsoft Visual Studio\2019\Community\VC\Tools\MSVC\14.27.29110\include\list

; 166  :         this->_Ptr = this->_Ptr->_Next;

  003ed	e8 00 00 00 00	 call	 ?Render@CWindow@UI@@QAEXXZ ; UI::CWindow::Render
$LN4@OnRender:
  003f2	8b 36		 mov	 esi, DWORD PTR [esi]
  003f4	89 75 f0	 mov	 DWORD PTR _itor$1$[ebp], esi

; 199  :         return this->_Ptr == _Right._Ptr;

  003f7	3b b7 8c 00 00
	00		 cmp	 esi, DWORD PTR [edi+140]
; File C:\DS Project\DS Files\Source\ClientSource\Client\eterPythonLib\PythonSlotWindow.cpp

; 1053 : 	for (itor = m_SlotList.begin(); itor != m_SlotList.end(); ++itor)

  003fd	0f 85 60 fc ff
	ff		 jne	 $LL6@OnRender
$LN5@OnRender:

; 1171 : 			}
; 1172 : #endif
; 1173 : 		}
; 1174 : 	}
; 1175 : 
; 1176 : 	RenderLockedSlot();

  00403	8b cf		 mov	 ecx, edi
  00405	e8 00 00 00 00	 call	 ?RenderLockedSlot@CSlotWindow@UI@@IAEXXZ ; UI::CSlotWindow::RenderLockedSlot
  0040a	5f		 pop	 edi
  0040b	5e		 pop	 esi
  0040c	5b		 pop	 ebx

; 1177 : }

  0040d	8b e5		 mov	 esp, ebp
  0040f	5d		 pop	 ebp
  00410	c3		 ret	 0
?OnRender@CSlotWindow@UI@@MAEXXZ ENDP			; UI::CSlotWindow::OnRender
_TEXT	ENDS
; Function compile flags: /Ogtp
; File C:\DS Project\DS Files\Source\ClientSource\Client\eterPythonLib\PythonSlotWindow.cpp
; File C:\Program Files (x86)\Microsoft Visual Studio\2019\Community\VC\Tools\MSVC\14.27.29110\include\xmemory
; File C:\Program Files (x86)\Microsoft Visual Studio\2019\Community\VC\Tools\MSVC\14.27.29110\include\deque
; File C:\Program Files (x86)\Microsoft Visual Studio\2019\Community\VC\Tools\MSVC\14.27.29110\include\xmemory
; File C:\Program Files (x86)\Microsoft Visual Studio\2019\Community\VC\Tools\MSVC\14.27.29110\include\deque
; File C:\DS Project\DS Files\Source\ClientSource\Client\eterPythonLib\PythonSlotWindow.cpp
; File C:\Program Files (x86)\Microsoft Visual Studio\2019\Community\VC\Tools\MSVC\14.27.29110\include\xmemory
; File C:\DS Project\DS Files\Source\ClientSource\Client\eterPythonLib\PythonSlotWindow.cpp
; File C:\Program Files (x86)\Microsoft Visual Studio\2019\Community\VC\Tools\MSVC\14.27.29110\include\deque
; File C:\DS Project\DS Files\Source\ClientSource\Client\eterPythonLib\PythonSlotWindow.cpp
; File C:\Program Files (x86)\Microsoft Visual Studio\2019\Community\VC\Tools\MSVC\14.27.29110\include\deque
; File C:\DS Project\DS Files\Source\ClientSource\Client\eterPythonLib\PythonSlotWindow.cpp
; File C:\Program Files (x86)\Microsoft Visual Studio\2019\Community\VC\Tools\MSVC\14.27.29110\include\deque
; File C:\DS Project\DS Files\Source\ClientSource\Client\eterPythonLib\PythonSlotWindow.cpp
; File C:\Program Files (x86)\Microsoft Visual Studio\2019\Community\VC\Tools\MSVC\14.27.29110\include\deque
; File C:\DS Project\DS Files\Source\ClientSource\Client\eterPythonLib\PythonSlotWindow.cpp
;	COMDAT ?OnUpdate@CSlotWindow@UI@@MAEXXZ
_TEXT	SEGMENT
_itor$1$sroa$251$1$ = -12				; size = 4
_pSlot$2 = -8						; size = 4
_itor$1$sroa$252$1$ = -4				; size = 4
?OnUpdate@CSlotWindow@UI@@MAEXXZ PROC			; UI::CSlotWindow::OnUpdate, COMDAT
; _this$ = ecx

; 984  : {

  00000	55		 push	 ebp
  00001	8b ec		 mov	 ebp, esp
  00003	83 ec 0c	 sub	 esp, 12			; 0000000cH
  00006	53		 push	 ebx
  00007	8b d9		 mov	 ebx, ecx
  00009	56		 push	 esi
; File C:\Program Files (x86)\Microsoft Visual Studio\2019\Community\VC\Tools\MSVC\14.27.29110\include\xmemory

; 1166 :             _Myproxy = _Parent_proxy;

  0000a	57		 push	 edi
  0000b	8b 8b b4 00 00
	00		 mov	 ecx, DWORD PTR [ebx+180]
; File C:\Program Files (x86)\Microsoft Visual Studio\2019\Community\VC\Tools\MSVC\14.27.29110\include\deque

; 255  :     _Deque_const_iterator(_Size_type _Off, const _Container_base12* _Pdeque) noexcept : _Myoff(_Off) {

  00011	8b 93 c0 00 00
	00		 mov	 edx, DWORD PTR [ebx+192]
; File C:\Program Files (x86)\Microsoft Visual Studio\2019\Community\VC\Tools\MSVC\14.27.29110\include\xmemory

; 1166 :             _Myproxy = _Parent_proxy;

  00017	89 4d f4	 mov	 DWORD PTR _itor$1$sroa$251$1$[ebp], ecx
$LN89@OnUpdate:
; File C:\Program Files (x86)\Microsoft Visual Studio\2019\Community\VC\Tools\MSVC\14.27.29110\include\deque

; 905  :         return iterator(_Myoff() + _Mysize(), _STD addressof(_Get_data()));

  0001a	8b 83 c4 00 00
	00		 mov	 eax, DWORD PTR [ebx+196]
  00020	03 83 c0 00 00
	00		 add	 eax, DWORD PTR [ebx+192]
  00026	89 55 fc	 mov	 DWORD PTR _itor$1$sroa$252$1$[ebp], edx

; 350  :         return this->_Myoff == _Right._Myoff;

  00029	3b d0		 cmp	 edx, eax
; File C:\DS Project\DS Files\Source\ClientSource\Client\eterPythonLib\PythonSlotWindow.cpp

; 985  : 	for (std::deque<DWORD>::iterator itor = m_ReserveDestroyEffectDeque.begin(); itor != m_ReserveDestroyEffectDeque.end(); ++itor)

  0002b	74 68		 je	 SHORT $LN3@OnUpdate
; File C:\Program Files (x86)\Microsoft Visual Studio\2019\Community\VC\Tools\MSVC\14.27.29110\include\xmemory

; 1180 :         return _Myproxy ? _Myproxy->_Mycont : nullptr;

  0002d	85 c9		 test	 ecx, ecx
  0002f	74 04		 je	 SHORT $LN64@OnUpdate
  00031	8b 09		 mov	 ecx, DWORD PTR [ecx]
  00033	eb 02		 jmp	 SHORT $LN65@OnUpdate
$LN64@OnUpdate:
  00035	33 c9		 xor	 ecx, ecx
$LN65@OnUpdate:
; File C:\DS Project\DS Files\Source\ClientSource\Client\eterPythonLib\PythonSlotWindow.cpp

; 990  : 		if (!GetSlotPointer(dwSlotIndex, &pSlot))

  00037	8d 45 f8	 lea	 eax, DWORD PTR _pSlot$2[ebp]
; File C:\Program Files (x86)\Microsoft Visual Studio\2019\Community\VC\Tools\MSVC\14.27.29110\include\deque

; 547  :         return (_Off / _DEQUESIZ) & (_Mapsize - 1);

  0003a	c1 ea 02	 shr	 edx, 2
; File C:\DS Project\DS Files\Source\ClientSource\Client\eterPythonLib\PythonSlotWindow.cpp

; 990  : 		if (!GetSlotPointer(dwSlotIndex, &pSlot))

  0003d	50		 push	 eax
; File C:\Program Files (x86)\Microsoft Visual Studio\2019\Community\VC\Tools\MSVC\14.27.29110\include\deque

; 547  :         return (_Off / _DEQUESIZ) & (_Mapsize - 1);

  0003e	8b 41 08	 mov	 eax, DWORD PTR [ecx+8]
  00041	48		 dec	 eax
  00042	23 d0		 and	 edx, eax
; File C:\DS Project\DS Files\Source\ClientSource\Client\eterPythonLib\PythonSlotWindow.cpp

; 990  : 		if (!GetSlotPointer(dwSlotIndex, &pSlot))

  00044	8b 41 04	 mov	 eax, DWORD PTR [ecx+4]
; File C:\Program Files (x86)\Microsoft Visual Studio\2019\Community\VC\Tools\MSVC\14.27.29110\include\deque

; 268  :         _Size_type _Off   = _Myoff % _DEQUESIZ;

  00047	8b 4d fc	 mov	 ecx, DWORD PTR _itor$1$sroa$252$1$[ebp]
  0004a	83 e1 03	 and	 ecx, 3
; File C:\DS Project\DS Files\Source\ClientSource\Client\eterPythonLib\PythonSlotWindow.cpp

; 990  : 		if (!GetSlotPointer(dwSlotIndex, &pSlot))

  0004d	8b 04 90	 mov	 eax, DWORD PTR [eax+edx*4]
  00050	ff 34 88	 push	 DWORD PTR [eax+ecx*4]
  00053	8b cb		 mov	 ecx, ebx
  00055	e8 00 00 00 00	 call	 ?GetSlotPointer@CSlotWindow@UI@@IAEHKPAPAUSSlot@12@@Z ; UI::CSlotWindow::GetSlotPointer
  0005a	85 c0		 test	 eax, eax
  0005c	74 2e		 je	 SHORT $LN2@OnUpdate

; 991  : 			continue;
; 992  : 
; 993  : 		__DestroyFinishCoolTimeEffect(pSlot);

  0005e	8b 75 f8	 mov	 esi, DWORD PTR _pSlot$2[ebp]
  00061	8b cb		 mov	 ecx, ebx
  00063	56		 push	 esi
  00064	e8 00 00 00 00	 call	 ?__DestroyFinishCoolTimeEffect@CSlotWindow@UI@@IAEXPAUSSlot@12@@Z ; UI::CSlotWindow::__DestroyFinishCoolTimeEffect

; 994  : 
; 995  : #ifdef ENABLE_ACCE_SYSTEM
; 996  : 		for (auto& pEff : pSlot->pActiveSlotEffect)

  00069	83 c6 50	 add	 esi, 80			; 00000050H
  0006c	8d 7e 0c	 lea	 edi, DWORD PTR [esi+12]
  0006f	3b f7		 cmp	 esi, edi
  00071	74 19		 je	 SHORT $LN2@OnUpdate
$LL7@OnUpdate:

; 997  : 		{
; 998  : 			if (pEff)

  00073	8b 0e		 mov	 ecx, DWORD PTR [esi]
  00075	85 c9		 test	 ecx, ecx
  00077	74 0c		 je	 SHORT $LN5@OnUpdate

; 999  : 			{
; 1000 : 				delete pEff;

  00079	8b 01		 mov	 eax, DWORD PTR [ecx]
  0007b	6a 01		 push	 1
  0007d	ff 10		 call	 DWORD PTR [eax]

; 1001 : 				pEff = NULL;

  0007f	c7 06 00 00 00
	00		 mov	 DWORD PTR [esi], 0
$LN5@OnUpdate:

; 994  : 
; 995  : #ifdef ENABLE_ACCE_SYSTEM
; 996  : 		for (auto& pEff : pSlot->pActiveSlotEffect)

  00085	83 c6 04	 add	 esi, 4
  00088	3b f7		 cmp	 esi, edi
  0008a	75 e7		 jne	 SHORT $LL7@OnUpdate
$LN2@OnUpdate:
; File C:\Program Files (x86)\Microsoft Visual Studio\2019\Community\VC\Tools\MSVC\14.27.29110\include\deque

; 283  :         ++_Myoff;

  0008c	8b 55 fc	 mov	 edx, DWORD PTR _itor$1$sroa$252$1$[ebp]
  0008f	8b 4d f4	 mov	 ecx, DWORD PTR _itor$1$sroa$251$1$[ebp]
  00092	42		 inc	 edx
  00093	eb 85		 jmp	 SHORT $LN89@OnUpdate
$LN3@OnUpdate:

; 1325 :         _Tidy();

  00095	8d 8b b4 00 00
	00		 lea	 ecx, DWORD PTR [ebx+180]
  0009b	e8 00 00 00 00	 call	 ?_Tidy@?$deque@KV?$allocator@K@std@@@std@@AAEXXZ ; std::deque<unsigned long,std::allocator<unsigned long> >::_Tidy
; File C:\DS Project\DS Files\Source\ClientSource\Client\eterPythonLib\PythonSlotWindow.cpp

; 1008 : 	if (m_pSlotActiveEffect)

  000a0	8b 8b a8 00 00
	00		 mov	 ecx, DWORD PTR [ebx+168]
  000a6	5f		 pop	 edi
  000a7	85 c9		 test	 ecx, ecx
  000a9	74 05		 je	 SHORT $LN10@OnUpdate

; 1009 : 		m_pSlotActiveEffect->Update();

  000ab	e8 00 00 00 00	 call	 ?Update@CWindow@UI@@QAEXXZ ; UI::CWindow::Update
$LN10@OnUpdate:

; 1010 : #ifdef ENABLE_HIGHLIGHT_NEW_ITEM
; 1011 : 	if (m_pSlotActiveEffectSlot2)

  000b0	8b 8b ac 00 00
	00		 mov	 ecx, DWORD PTR [ebx+172]
  000b6	85 c9		 test	 ecx, ecx
  000b8	74 05		 je	 SHORT $LN11@OnUpdate

; 1012 : 		m_pSlotActiveEffectSlot2->Update();

  000ba	e8 00 00 00 00	 call	 ?Update@CWindow@UI@@QAEXXZ ; UI::CWindow::Update
$LN11@OnUpdate:

; 1013 : 	if (m_pSlotActiveEffectSlot3)

  000bf	8b 8b b0 00 00
	00		 mov	 ecx, DWORD PTR [ebx+176]
  000c5	5e		 pop	 esi
  000c6	5b		 pop	 ebx
  000c7	85 c9		 test	 ecx, ecx
  000c9	74 05		 je	 SHORT $LN12@OnUpdate

; 1014 : 		m_pSlotActiveEffectSlot3->Update();

  000cb	e8 00 00 00 00	 call	 ?Update@CWindow@UI@@QAEXXZ ; UI::CWindow::Update
$LN12@OnUpdate:

; 1015 : #endif
; 1016 : }

  000d0	8b e5		 mov	 esp, ebp
  000d2	5d		 pop	 ebp
  000d3	c3		 ret	 0
?OnUpdate@CSlotWindow@UI@@MAEXXZ ENDP			; UI::CSlotWindow::OnUpdate
_TEXT	ENDS
; Function compile flags: /Ogtp
; File C:\DS Project\DS Files\Source\ClientSource\Client\eterPythonLib\PythonSlotWindow.cpp
;	COMDAT ?__DestroyBaseImage@CSlotWindow@UI@@IAEXXZ
_TEXT	SEGMENT
?__DestroyBaseImage@CSlotWindow@UI@@IAEXXZ PROC		; UI::CSlotWindow::__DestroyBaseImage, COMDAT
; _this$ = ecx

; 1542 : {

  00000	56		 push	 esi
  00001	8b f1		 mov	 esi, ecx

; 1543 : 	if (m_pBaseImageInstance)

  00003	8b 86 a0 00 00
	00		 mov	 eax, DWORD PTR [esi+160]
  00009	85 c0		 test	 eax, eax
  0000b	74 13		 je	 SHORT $LN2@DestroyBas

; 1544 : 	{
; 1545 : 		CGraphicImageInstance::Delete(m_pBaseImageInstance);

  0000d	50		 push	 eax
  0000e	e8 00 00 00 00	 call	 ?Delete@CGraphicImageInstance@@SAXPAV1@@Z ; CGraphicImageInstance::Delete
  00013	83 c4 04	 add	 esp, 4

; 1546 : 		m_pBaseImageInstance = NULL;

  00016	c7 86 a0 00 00
	00 00 00 00 00	 mov	 DWORD PTR [esi+160], 0
$LN2@DestroyBas:

; 1547 : 	}
; 1548 : }

  00020	5e		 pop	 esi
  00021	c3		 ret	 0
?__DestroyBaseImage@CSlotWindow@UI@@IAEXXZ ENDP		; UI::CSlotWindow::__DestroyBaseImage
_TEXT	ENDS
; Function compile flags: /Ogtp
; File C:\DS Project\DS Files\Source\ClientSource\Client\eterPythonLib\PythonSlotWindow.cpp
;	COMDAT ?__DestroyFinishCoolTimeEffect@CSlotWindow@UI@@IAEXPAUSSlot@12@@Z
_TEXT	SEGMENT
_pSlot$ = 8						; size = 4
?__DestroyFinishCoolTimeEffect@CSlotWindow@UI@@IAEXPAUSSlot@12@@Z PROC ; UI::CSlotWindow::__DestroyFinishCoolTimeEffect, COMDAT
; _this$ = ecx

; 1533 : {

  00000	55		 push	 ebp
  00001	8b ec		 mov	 ebp, esp
  00003	56		 push	 esi

; 1534 : 	if (pSlot->pFinishCoolTimeEffect)

  00004	8b 75 08	 mov	 esi, DWORD PTR _pSlot$[ebp]
  00007	8b 4e 4c	 mov	 ecx, DWORD PTR [esi+76]
  0000a	85 c9		 test	 ecx, ecx
  0000c	74 0d		 je	 SHORT $LN2@DestroyFin

; 1535 : 	{
; 1536 : 		delete pSlot->pFinishCoolTimeEffect;

  0000e	8b 01		 mov	 eax, DWORD PTR [ecx]
  00010	6a 01		 push	 1
  00012	ff 10		 call	 DWORD PTR [eax]

; 1537 : 		pSlot->pFinishCoolTimeEffect = NULL;

  00014	c7 46 4c 00 00
	00 00		 mov	 DWORD PTR [esi+76], 0
$LN2@DestroyFin:
  0001b	5e		 pop	 esi

; 1538 : 	}
; 1539 : }

  0001c	5d		 pop	 ebp
  0001d	c2 04 00	 ret	 4
?__DestroyFinishCoolTimeEffect@CSlotWindow@UI@@IAEXPAUSSlot@12@@Z ENDP ; UI::CSlotWindow::__DestroyFinishCoolTimeEffect
_TEXT	ENDS
; Function compile flags: /Ogtp
; File C:\DS Project\DS Files\Source\ClientSource\Client\eterPythonLib\PythonSlotWindow.cpp
;	COMDAT ?__DestroySlotEnableEffect@CSlotWindow@UI@@IAEXXZ
_TEXT	SEGMENT
?__DestroySlotEnableEffect@CSlotWindow@UI@@IAEXXZ PROC	; UI::CSlotWindow::__DestroySlotEnableEffect, COMDAT
; _this$ = ecx

; 1512 : {

  00000	56		 push	 esi
  00001	8b f1		 mov	 esi, ecx

; 1513 : 	if (m_pSlotActiveEffect)

  00003	8b 8e a8 00 00
	00		 mov	 ecx, DWORD PTR [esi+168]
  00009	85 c9		 test	 ecx, ecx
  0000b	74 10		 je	 SHORT $LN2@DestroySlo

; 1514 : 	{
; 1515 : 		delete m_pSlotActiveEffect;

  0000d	8b 01		 mov	 eax, DWORD PTR [ecx]
  0000f	6a 01		 push	 1
  00011	ff 10		 call	 DWORD PTR [eax]

; 1516 : 		m_pSlotActiveEffect = NULL;

  00013	c7 86 a8 00 00
	00 00 00 00 00	 mov	 DWORD PTR [esi+168], 0
$LN2@DestroySlo:

; 1517 : 	}
; 1518 : #ifdef ENABLE_HIGHLIGHT_NEW_ITEM
; 1519 : 	if (m_pSlotActiveEffectSlot2)

  0001d	8b 8e ac 00 00
	00		 mov	 ecx, DWORD PTR [esi+172]
  00023	85 c9		 test	 ecx, ecx
  00025	74 10		 je	 SHORT $LN3@DestroySlo

; 1520 : 	{
; 1521 : 		delete m_pSlotActiveEffectSlot2;

  00027	8b 01		 mov	 eax, DWORD PTR [ecx]
  00029	6a 01		 push	 1
  0002b	ff 10		 call	 DWORD PTR [eax]

; 1522 : 		m_pSlotActiveEffectSlot2 = NULL;

  0002d	c7 86 ac 00 00
	00 00 00 00 00	 mov	 DWORD PTR [esi+172], 0
$LN3@DestroySlo:

; 1523 : 	}
; 1524 : 	if (m_pSlotActiveEffectSlot3)

  00037	8b 8e b0 00 00
	00		 mov	 ecx, DWORD PTR [esi+176]
  0003d	85 c9		 test	 ecx, ecx
  0003f	74 10		 je	 SHORT $LN4@DestroySlo

; 1525 : 	{
; 1526 : 		delete m_pSlotActiveEffectSlot3;

  00041	8b 01		 mov	 eax, DWORD PTR [ecx]
  00043	6a 01		 push	 1
  00045	ff 10		 call	 DWORD PTR [eax]

; 1527 : 		m_pSlotActiveEffectSlot3 = NULL;

  00047	c7 86 b0 00 00
	00 00 00 00 00	 mov	 DWORD PTR [esi+176], 0
$LN4@DestroySlo:

; 1528 : 	}
; 1529 : #endif
; 1530 : }

  00051	5e		 pop	 esi
  00052	c3		 ret	 0
?__DestroySlotEnableEffect@CSlotWindow@UI@@IAEXXZ ENDP	; UI::CSlotWindow::__DestroySlotEnableEffect
_TEXT	ENDS
; Function compile flags: /Ogtp
; File C:\DS Project\DS Files\Source\ClientSource\Client\eterPythonLib\PythonSlotWindow.cpp
;	COMDAT ?__DestroyToggleSlotImage@CSlotWindow@UI@@IAEXXZ
_TEXT	SEGMENT
?__DestroyToggleSlotImage@CSlotWindow@UI@@IAEXXZ PROC	; UI::CSlotWindow::__DestroyToggleSlotImage, COMDAT
; _this$ = ecx

; 1503 : {

  00000	56		 push	 esi
  00001	8b f1		 mov	 esi, ecx

; 1504 : 	if (m_pToggleSlotImage)

  00003	8b 8e a4 00 00
	00		 mov	 ecx, DWORD PTR [esi+164]
  00009	85 c9		 test	 ecx, ecx
  0000b	74 10		 je	 SHORT $LN2@DestroyTog

; 1505 : 	{
; 1506 : 		delete m_pToggleSlotImage;

  0000d	8b 01		 mov	 eax, DWORD PTR [ecx]
  0000f	6a 01		 push	 1
  00011	ff 10		 call	 DWORD PTR [eax]

; 1507 : 		m_pToggleSlotImage = NULL;

  00013	c7 86 a4 00 00
	00 00 00 00 00	 mov	 DWORD PTR [esi+164], 0
$LN2@DestroyTog:

; 1508 : 	}
; 1509 : }

  0001d	5e		 pop	 esi
  0001e	c3		 ret	 0
?__DestroyToggleSlotImage@CSlotWindow@UI@@IAEXXZ ENDP	; UI::CSlotWindow::__DestroyToggleSlotImage
_TEXT	ENDS
; Function compile flags: /Ogtp
; File C:\DS Project\DS Files\Source\ClientSource\Client\eterPythonLib\PythonSlotWindow.cpp
;	COMDAT ?__CreateBaseImage@CSlotWindow@UI@@IAEXPBDMMMM@Z
_TEXT	SEGMENT
_c_szFileName$ = 8					; size = 4
_fr$ = 12						; size = 4
_fg$ = 16						; size = 4
_fb$ = 20						; size = 4
_fa$ = 24						; size = 4
?__CreateBaseImage@CSlotWindow@UI@@IAEXPBDMMMM@Z PROC	; UI::CSlotWindow::__CreateBaseImage, COMDAT
; _this$ = ecx

; 1493 : {

  00000	55		 push	 ebp
  00001	8b ec		 mov	 ebp, esp
  00003	56		 push	 esi
  00004	57		 push	 edi
  00005	8b f9		 mov	 edi, ecx

; 1494 : 	__DestroyBaseImage();

  00007	e8 00 00 00 00	 call	 ?__DestroyBaseImage@CSlotWindow@UI@@IAEXXZ ; UI::CSlotWindow::__DestroyBaseImage

; 1495 : 
; 1496 : 	CGraphicImage * pImage = (CGraphicImage *)CResourceManager::Instance().GetResourcePointer(c_szFileName);

  0000c	ff 75 08	 push	 DWORD PTR _c_szFileName$[ebp]
  0000f	8b 0d 00 00 00
	00		 mov	 ecx, DWORD PTR ?ms_singleton@?$CSingleton@VCResourceManager@@@@0PAVCResourceManager@@A ; CSingleton<CResourceManager>::ms_singleton
  00015	e8 00 00 00 00	 call	 ?GetResourcePointer@CResourceManager@@QAEPAVCResource@@PBD@Z ; CResourceManager::GetResourcePointer
  0001a	8b f0		 mov	 esi, eax

; 1497 : 	m_pBaseImageInstance = CGraphicImageInstance::New();

  0001c	e8 00 00 00 00	 call	 ?New@CGraphicImageInstance@@SAPAV1@XZ ; CGraphicImageInstance::New

; 1498 : 	m_pBaseImageInstance->SetImagePointer(pImage);

  00021	56		 push	 esi
  00022	8b c8		 mov	 ecx, eax
  00024	89 87 a0 00 00
	00		 mov	 DWORD PTR [edi+160], eax
  0002a	e8 00 00 00 00	 call	 ?SetImagePointer@CGraphicImageInstance@@QAEXPAVCGraphicImage@@@Z ; CGraphicImageInstance::SetImagePointer

; 1499 : 	m_pBaseImageInstance->SetDiffuseColor(fr, fg, fb, fa);

  0002f	f3 0f 10 45 18	 movss	 xmm0, DWORD PTR _fa$[ebp]
  00034	83 ec 10	 sub	 esp, 16			; 00000010H
  00037	8b 8f a0 00 00
	00		 mov	 ecx, DWORD PTR [edi+160]
  0003d	f3 0f 11 44 24
	0c		 movss	 DWORD PTR [esp+12], xmm0
  00043	f3 0f 10 45 14	 movss	 xmm0, DWORD PTR _fb$[ebp]
  00048	f3 0f 11 44 24
	08		 movss	 DWORD PTR [esp+8], xmm0
  0004e	f3 0f 10 45 10	 movss	 xmm0, DWORD PTR _fg$[ebp]
  00053	f3 0f 11 44 24
	04		 movss	 DWORD PTR [esp+4], xmm0
  00059	f3 0f 10 45 0c	 movss	 xmm0, DWORD PTR _fr$[ebp]
  0005e	f3 0f 11 04 24	 movss	 DWORD PTR [esp], xmm0
  00063	e8 00 00 00 00	 call	 ?SetDiffuseColor@CGraphicImageInstance@@QAEXMMMM@Z ; CGraphicImageInstance::SetDiffuseColor
  00068	5f		 pop	 edi
  00069	5e		 pop	 esi

; 1500 : }

  0006a	5d		 pop	 ebp
  0006b	c2 14 00	 ret	 20			; 00000014H
?__CreateBaseImage@CSlotWindow@UI@@IAEXPBDMMMM@Z ENDP	; UI::CSlotWindow::__CreateBaseImage
_TEXT	ENDS
; Function compile flags: /Ogtp
; File C:\DS Project\DS Files\Source\ClientSource\Client\eterPythonLib\PythonSlotWindow.cpp
;	COMDAT ?__CreateFinishCoolTimeEffect@CSlotWindow@UI@@IAEXPAUSSlot@12@@Z
_TEXT	SEGMENT
_this$1$ = -16						; size = 4
__$EHRec$ = -12						; size = 12
$T2 = 8							; size = 4
_pSlot$ = 8						; size = 4
?__CreateFinishCoolTimeEffect@CSlotWindow@UI@@IAEXPAUSSlot@12@@Z PROC ; UI::CSlotWindow::__CreateFinishCoolTimeEffect, COMDAT
; _this$ = ecx

; 1469 : {

  00000	55		 push	 ebp
  00001	8b ec		 mov	 ebp, esp
  00003	6a ff		 push	 -1
  00005	68 00 00 00 00	 push	 __ehhandler$?__CreateFinishCoolTimeEffect@CSlotWindow@UI@@IAEXPAUSSlot@12@@Z
  0000a	64 a1 00 00 00
	00		 mov	 eax, DWORD PTR fs:0
  00010	50		 push	 eax
  00011	51		 push	 ecx
  00012	53		 push	 ebx
  00013	56		 push	 esi
  00014	57		 push	 edi
  00015	a1 00 00 00 00	 mov	 eax, DWORD PTR ___security_cookie
  0001a	33 c5		 xor	 eax, ebp
  0001c	50		 push	 eax
  0001d	8d 45 f4	 lea	 eax, DWORD PTR __$EHRec$[ebp]
  00020	64 a3 00 00 00
	00		 mov	 DWORD PTR fs:0, eax
  00026	8b c1		 mov	 eax, ecx
  00028	89 45 f0	 mov	 DWORD PTR _this$1$[ebp], eax

; 1470 : 	__DestroyFinishCoolTimeEffect(pSlot);

  0002b	8b 5d 08	 mov	 ebx, DWORD PTR _pSlot$[ebp]
  0002e	53		 push	 ebx
  0002f	e8 00 00 00 00	 call	 ?__DestroyFinishCoolTimeEffect@CSlotWindow@UI@@IAEXPAUSSlot@12@@Z ; UI::CSlotWindow::__DestroyFinishCoolTimeEffect

; 1471 : 
