; Listing generated by Microsoft (R) Optimizing Compiler Version 19.27.29112.0 

	TITLE	C:\DS Project\DS Files\Source\ClientSource\Client\eterPythonLib\PythonWindow.cpp
	.686P
	.XMM
	include listing.inc
	.model	flat

INCLUDELIB LIBCMT
INCLUDELIB OLDNAMES

PUBLIC	?g_bOutlineBoxEnable@@3HA			; g_bOutlineBoxEnable
_BSS	SEGMENT
?g_bOutlineBoxEnable@@3HA DD 01H DUP (?)		; g_bOutlineBoxEnable
_BSS	ENDS
PUBLIC	??0exception@std@@QAE@ABV01@@Z			; std::exception::exception
PUBLIC	??1exception@std@@UAE@XZ			; std::exception::~exception
PUBLIC	?what@exception@std@@UBEPBDXZ			; std::exception::what
PUBLIC	??_Gexception@std@@UAEPAXI@Z			; std::exception::`scalar deleting destructor'
PUBLIC	??0bad_alloc@std@@QAE@ABV01@@Z			; std::bad_alloc::bad_alloc
PUBLIC	??_Gbad_alloc@std@@UAEPAXI@Z			; std::bad_alloc::`scalar deleting destructor'
PUBLIC	??0bad_array_new_length@std@@QAE@XZ		; std::bad_array_new_length::bad_array_new_length
PUBLIC	??1bad_array_new_length@std@@UAE@XZ		; std::bad_array_new_length::~bad_array_new_length
PUBLIC	??0bad_array_new_length@std@@QAE@ABV01@@Z	; std::bad_array_new_length::bad_array_new_length
PUBLIC	??_Gbad_array_new_length@std@@UAEPAXI@Z		; std::bad_array_new_length::`scalar deleting destructor'
PUBLIC	?_Throw_bad_array_new_length@std@@YAXXZ		; std::_Throw_bad_array_new_length
PUBLIC	?_Xlen_string@std@@YAXXZ			; std::_Xlen_string
PUBLIC	??1?$basic_string@DU?$char_traits@D@std@@V?$allocator@D@2@@std@@QAE@XZ ; std::basic_string<char,std::char_traits<char>,std::allocator<char> >::~basic_string<char,std::char_traits<char>,std::allocator<char> >
PUBLIC	??Y?$basic_string@DU?$char_traits@D@std@@V?$allocator@D@2@@std@@QAEAAV01@QBD@Z ; std::basic_string<char,std::char_traits<char>,std::allocator<char> >::operator+=
PUBLIC	?assign@?$basic_string@DU?$char_traits@D@std@@V?$allocator@D@2@@std@@QAEAAV12@QBDI@Z ; std::basic_string<char,std::char_traits<char>,std::allocator<char> >::assign
PUBLIC	?DeleteExpandedImageInstance@CGraphicExpandedImageInstance@@SAXPAV1@@Z ; CGraphicExpandedImageInstance::DeleteExpandedImageInstance
PUBLIC	?_Xlength@?$vector@PAVCGraphicExpandedImageInstance@@V?$allocator@PAVCGraphicExpandedImageInstance@@@std@@@std@@CAXXZ ; std::vector<CGraphicExpandedImageInstance *,std::allocator<CGraphicExpandedImageInstance *> >::_Xlength
PUBLIC	??1?$list@PAVCWindow@UI@@V?$allocator@PAVCWindow@UI@@@std@@@std@@QAE@XZ ; std::list<UI::CWindow *,std::allocator<UI::CWindow *> >::~list<UI::CWindow *,std::allocator<UI::CWindow *> >
PUBLIC	?push_back@?$list@PAVCWindow@UI@@V?$allocator@PAVCWindow@UI@@@std@@@std@@QAEXABQAVCWindow@UI@@@Z ; std::list<UI::CWindow *,std::allocator<UI::CWindow *> >::push_back
PUBLIC	?remove@?$list@PAVCWindow@UI@@V?$allocator@PAVCWindow@UI@@@std@@@std@@QAE@ABQAVCWindow@UI@@@Z ; std::list<UI::CWindow *,std::allocator<UI::CWindow *> >::remove
PUBLIC	??$_Emplace_reallocate@ABQAVCGraphicExpandedImageInstance@@@?$vector@PAVCGraphicExpandedImageInstance@@V?$allocator@PAVCGraphicExpandedImageInstance@@@std@@@std@@QAEPAPAVCGraphicExpandedImageInstance@@QAPAV2@ABQAV2@@Z ; std::vector<CGraphicExpandedImageInstance *,std::allocator<CGraphicExpandedImageInstance *> >::_Emplace_reallocate<CGraphicExpandedImageInstance * const &>
PUBLIC	??$_Destroy_in_place@PAD@std@@YAXAAPAD@Z	; std::_Destroy_in_place<char *>
PUBLIC	??$_Pocca@V?$allocator@D@std@@@std@@YAXAAV?$allocator@D@0@ABV10@@Z ; std::_Pocca<std::allocator<char> >
PUBLIC	??$_Construct_in_place@PADABQAD@std@@YAXAAPADABQAD@Z ; std::_Construct_in_place<char *,char * const &>
PUBLIC	??$_Pocma@V?$allocator@D@std@@@std@@YAXAAV?$allocator@D@0@0@Z ; std::_Pocma<std::allocator<char> >
PUBLIC	??$_Deallocate@$07$0A@@std@@YAXPAXI@Z		; std::_Deallocate<8,0>
PUBLIC	??$_Allocate@$07U_Default_allocate_traits@std@@$0A@@std@@YAPAXI@Z ; std::_Allocate<8,std::_Default_allocate_traits,0>
PUBLIC	??$_Destroy_range@V?$allocator@PAVCGraphicExpandedImageInstance@@@std@@@std@@YAXPAPAVCGraphicExpandedImageInstance@@QAPAV1@AAV?$allocator@PAVCGraphicExpandedImageInstance@@@0@@Z ; std::_Destroy_range<std::allocator<CGraphicExpandedImageInstance *> >
PUBLIC	??$_Allocate_manually_vector_aligned@U_Default_allocate_traits@std@@@std@@YAPAXI@Z ; std::_Allocate_manually_vector_aligned<std::_Default_allocate_traits>
PUBLIC	??$_Uninitialized_move@PAPAVCGraphicExpandedImageInstance@@V?$allocator@PAVCGraphicExpandedImageInstance@@@std@@@std@@YAPAPAVCGraphicExpandedImageInstance@@QAPAV1@0PAPAV1@AAV?$allocator@PAVCGraphicExpandedImageInstance@@@0@@Z ; std::_Uninitialized_move<CGraphicExpandedImageInstance * *,std::allocator<CGraphicExpandedImageInstance *> >
PUBLIC	??$_Copy_memmove@PAPAVCGraphicExpandedImageInstance@@PAPAV1@@std@@YAPAPAVCGraphicExpandedImageInstance@@PAPAV1@00@Z ; std::_Copy_memmove<CGraphicExpandedImageInstance * *,CGraphicExpandedImageInstance * *>
PUBLIC	?Type@CWindow@UI@@SAKXZ				; UI::CWindow::Type
PUBLIC	?IsType@CWindow@UI@@QAEHK@Z			; UI::CWindow::IsType
PUBLIC	??0CWindow@UI@@QAE@PAU_object@@@Z		; UI::CWindow::CWindow
PUBLIC	??1CWindow@UI@@UAE@XZ				; UI::CWindow::~CWindow
PUBLIC	?AddChild@CWindow@UI@@QAEXPAV12@@Z		; UI::CWindow::AddChild
PUBLIC	?Clear@CWindow@UI@@QAEXXZ			; UI::CWindow::Clear
PUBLIC	?DestroyHandle@CWindow@UI@@QAEXXZ		; UI::CWindow::DestroyHandle
PUBLIC	?Update@CWindow@UI@@QAEXXZ			; UI::CWindow::Update
PUBLIC	?Render@CWindow@UI@@QAEXXZ			; UI::CWindow::Render
PUBLIC	?SetName@CWindow@UI@@QAEXPBD@Z			; UI::CWindow::SetName
PUBLIC	?SetSize@CWindow@UI@@QAEXJJ@Z			; UI::CWindow::SetSize
PUBLIC	?SetHorizontalAlign@CWindow@UI@@QAEXK@Z		; UI::CWindow::SetHorizontalAlign
PUBLIC	?SetVerticalAlign@CWindow@UI@@QAEXK@Z		; UI::CWindow::SetVerticalAlign
PUBLIC	?SetPosition@CWindow@UI@@QAEXJJ@Z		; UI::CWindow::SetPosition
PUBLIC	?GetPosition@CWindow@UI@@QAEXPAJ0@Z		; UI::CWindow::GetPosition
PUBLIC	?GetLocalPosition@CWindow@UI@@QAEXAAJ0@Z	; UI::CWindow::GetLocalPosition
PUBLIC	?GetMouseLocalPosition@CWindow@UI@@QAEXAAJ0@Z	; UI::CWindow::GetMouseLocalPosition
PUBLIC	?UpdateRect@CWindow@UI@@QAEJXZ			; UI::CWindow::UpdateRect
PUBLIC	?Show@CWindow@UI@@QAEXXZ			; UI::CWindow::Show
PUBLIC	?Hide@CWindow@UI@@QAEXXZ			; UI::CWindow::Hide
PUBLIC	?IsRendering@CWindow@UI@@QAE_NXZ		; UI::CWindow::IsRendering
PUBLIC	?GetRoot@CWindow@UI@@QAEPAV12@XZ		; UI::CWindow::GetRoot
PUBLIC	?GetParent@CWindow@UI@@QAEPAV12@XZ		; UI::CWindow::GetParent
PUBLIC	?IsChild@CWindow@UI@@QAE_NPAV12@@Z		; UI::CWindow::IsChild
PUBLIC	?DeleteChild@CWindow@UI@@QAEXPAV12@@Z		; UI::CWindow::DeleteChild
PUBLIC	?SetTop@CWindow@UI@@QAEXPAV12@@Z		; UI::CWindow::SetTop
PUBLIC	?IsIn@CWindow@UI@@QAE_NJJ@Z			; UI::CWindow::IsIn
PUBLIC	?IsIn@CWindow@UI@@QAE_NXZ			; UI::CWindow::IsIn
PUBLIC	?PickWindow@CWindow@UI@@QAEPAV12@JJ@Z		; UI::CWindow::PickWindow
PUBLIC	?PickTopWindow@CWindow@UI@@QAEPAV12@JJ@Z	; UI::CWindow::PickTopWindow
PUBLIC	?__RemoveReserveChildren@CWindow@UI@@QAEXXZ	; UI::CWindow::__RemoveReserveChildren
PUBLIC	?OnRender@CWindow@UI@@UAEXXZ			; UI::CWindow::OnRender
PUBLIC	?OnUpdate@CWindow@UI@@UAEXXZ			; UI::CWindow::OnUpdate
PUBLIC	?OnChangePosition@CWindow@UI@@UAEXXZ		; UI::CWindow::OnChangePosition
PUBLIC	?OnSetFocus@CWindow@UI@@UAEXXZ			; UI::CWindow::OnSetFocus
PUBLIC	?OnKillFocus@CWindow@UI@@UAEXXZ			; UI::CWindow::OnKillFocus
PUBLIC	?OnMouseDrag@CWindow@UI@@UAEXJJ@Z		; UI::CWindow::OnMouseDrag
PUBLIC	?OnMouseOverIn@CWindow@UI@@UAEXXZ		; UI::CWindow::OnMouseOverIn
PUBLIC	?OnMouseOverOut@CWindow@UI@@UAEXXZ		; UI::CWindow::OnMouseOverOut
PUBLIC	?OnMouseOver@CWindow@UI@@UAEXXZ			; UI::CWindow::OnMouseOver
PUBLIC	?OnDrop@CWindow@UI@@UAEXXZ			; UI::CWindow::OnDrop
PUBLIC	?OnTop@CWindow@UI@@UAEXXZ			; UI::CWindow::OnTop
PUBLIC	?OnIMEUpdate@CWindow@UI@@UAEXXZ			; UI::CWindow::OnIMEUpdate
PUBLIC	?OnMoveWindow@CWindow@UI@@UAEXJJ@Z		; UI::CWindow::OnMoveWindow
PUBLIC	?RunIMETabEvent@CWindow@UI@@QAEHXZ		; UI::CWindow::RunIMETabEvent
PUBLIC	?RunIMEReturnEvent@CWindow@UI@@QAEHXZ		; UI::CWindow::RunIMEReturnEvent
PUBLIC	?RunIMEKeyDownEvent@CWindow@UI@@QAEHH@Z		; UI::CWindow::RunIMEKeyDownEvent
PUBLIC	?RunKeyDownEvent@CWindow@UI@@QAEPAV12@H@Z	; UI::CWindow::RunKeyDownEvent
PUBLIC	?RunKeyUpEvent@CWindow@UI@@QAEHH@Z		; UI::CWindow::RunKeyUpEvent
PUBLIC	?RunPressEscapeKeyEvent@CWindow@UI@@QAEHXZ	; UI::CWindow::RunPressEscapeKeyEvent
PUBLIC	?RunPressExitKeyEvent@CWindow@UI@@QAEHXZ	; UI::CWindow::RunPressExitKeyEvent
PUBLIC	?OnIMETabEvent@CWindow@UI@@UAEHXZ		; UI::CWindow::OnIMETabEvent
PUBLIC	?OnIMEReturnEvent@CWindow@UI@@UAEHXZ		; UI::CWindow::OnIMEReturnEvent
PUBLIC	?OnIMEKeyDownEvent@CWindow@UI@@UAEHH@Z		; UI::CWindow::OnIMEKeyDownEvent
PUBLIC	?OnIMEChangeCodePage@CWindow@UI@@UAEHXZ		; UI::CWindow::OnIMEChangeCodePage
PUBLIC	?OnIMEOpenCandidateListEvent@CWindow@UI@@UAEHXZ	; UI::CWindow::OnIMEOpenCandidateListEvent
PUBLIC	?OnIMECloseCandidateListEvent@CWindow@UI@@UAEHXZ ; UI::CWindow::OnIMECloseCandidateListEvent
PUBLIC	?OnIMEOpenReadingWndEvent@CWindow@UI@@UAEHXZ	; UI::CWindow::OnIMEOpenReadingWndEvent
PUBLIC	?OnIMECloseReadingWndEvent@CWindow@UI@@UAEHXZ	; UI::CWindow::OnIMECloseReadingWndEvent
PUBLIC	?OnMouseLeftButtonDown@CWindow@UI@@UAEHXZ	; UI::CWindow::OnMouseLeftButtonDown
PUBLIC	?OnMouseLeftButtonUp@CWindow@UI@@UAEHXZ		; UI::CWindow::OnMouseLeftButtonUp
PUBLIC	?OnMouseLeftButtonDoubleClick@CWindow@UI@@UAEHXZ ; UI::CWindow::OnMouseLeftButtonDoubleClick
PUBLIC	?OnMouseRightButtonDown@CWindow@UI@@UAEHXZ	; UI::CWindow::OnMouseRightButtonDown
PUBLIC	?OnMouseRightButtonUp@CWindow@UI@@UAEHXZ	; UI::CWindow::OnMouseRightButtonUp
PUBLIC	?OnMouseRightButtonDoubleClick@CWindow@UI@@UAEHXZ ; UI::CWindow::OnMouseRightButtonDoubleClick
PUBLIC	?OnMouseMiddleButtonDown@CWindow@UI@@UAEHXZ	; UI::CWindow::OnMouseMiddleButtonDown
PUBLIC	?OnMouseMiddleButtonUp@CWindow@UI@@UAEHXZ	; UI::CWindow::OnMouseMiddleButtonUp
PUBLIC	?OnMouseWheelScroll@CWindow@UI@@UAEHF@Z		; UI::CWindow::OnMouseWheelScroll
PUBLIC	?SetScrollable@CWindow@UI@@UAEXXZ		; UI::CWindow::SetScrollable
PUBLIC	?OnKeyDown@CWindow@UI@@UAEHH@Z			; UI::CWindow::OnKeyDown
PUBLIC	?OnKeyUp@CWindow@UI@@UAEHH@Z			; UI::CWindow::OnKeyUp
PUBLIC	?OnPressEscapeKey@CWindow@UI@@UAEHXZ		; UI::CWindow::OnPressEscapeKey
PUBLIC	?OnPressExitKey@CWindow@UI@@UAEHXZ		; UI::CWindow::OnPressExitKey
PUBLIC	?SetColor@CWindow@UI@@UAEXK@Z			; UI::CWindow::SetColor
PUBLIC	?OnIsType@CWindow@UI@@UAEHK@Z			; UI::CWindow::OnIsType
PUBLIC	?IsWindow@CWindow@UI@@UAEHXZ			; UI::CWindow::IsWindow
PUBLIC	??_GCWindow@UI@@UAEPAXI@Z			; UI::CWindow::`scalar deleting destructor'
PUBLIC	??0CBox@UI@@QAE@PAU_object@@@Z			; UI::CBox::CBox
PUBLIC	??1CBox@UI@@UAE@XZ				; UI::CBox::~CBox
PUBLIC	?SetColor@CBox@UI@@UAEXK@Z			; UI::CBox::SetColor
PUBLIC	?OnRender@CBox@UI@@MAEXXZ			; UI::CBox::OnRender
PUBLIC	??_GCBox@UI@@UAEPAXI@Z				; UI::CBox::`scalar deleting destructor'
PUBLIC	??0CBar@UI@@QAE@PAU_object@@@Z			; UI::CBar::CBar
PUBLIC	??1CBar@UI@@UAE@XZ				; UI::CBar::~CBar
PUBLIC	?SetColor@CBar@UI@@UAEXK@Z			; UI::CBar::SetColor
PUBLIC	?OnRender@CBar@UI@@MAEXXZ			; UI::CBar::OnRender
PUBLIC	??_GCBar@UI@@UAEPAXI@Z				; UI::CBar::`scalar deleting destructor'
PUBLIC	??0CLine@UI@@QAE@PAU_object@@@Z			; UI::CLine::CLine
PUBLIC	??1CLine@UI@@UAE@XZ				; UI::CLine::~CLine
PUBLIC	?SetColor@CLine@UI@@UAEXK@Z			; UI::CLine::SetColor
PUBLIC	?OnRender@CLine@UI@@MAEXXZ			; UI::CLine::OnRender
PUBLIC	??_GCLine@UI@@UAEPAXI@Z				; UI::CLine::`scalar deleting destructor'
PUBLIC	?Type@CBar3D@UI@@SAKXZ				; UI::CBar3D::Type
PUBLIC	??0CBar3D@UI@@QAE@PAU_object@@@Z		; UI::CBar3D::CBar3D
PUBLIC	??1CBar3D@UI@@UAE@XZ				; UI::CBar3D::~CBar3D
PUBLIC	?SetColor@CBar3D@UI@@QAEXKKK@Z			; UI::CBar3D::SetColor
PUBLIC	?OnRender@CBar3D@UI@@MAEXXZ			; UI::CBar3D::OnRender
PUBLIC	??_GCBar3D@UI@@UAEPAXI@Z			; UI::CBar3D::`scalar deleting destructor'
PUBLIC	??0CTextLine@UI@@QAE@PAU_object@@@Z		; UI::CTextLine::CTextLine
PUBLIC	??1CTextLine@UI@@UAE@XZ				; UI::CTextLine::~CTextLine
PUBLIC	?SetMax@CTextLine@UI@@QAEXH@Z			; UI::CTextLine::SetMax
PUBLIC	?SetHorizontalAlign@CTextLine@UI@@QAEXH@Z	; UI::CTextLine::SetHorizontalAlign
PUBLIC	?SetVerticalAlign@CTextLine@UI@@QAEXH@Z		; UI::CTextLine::SetVerticalAlign
PUBLIC	?SetSecret@CTextLine@UI@@QAEXH@Z		; UI::CTextLine::SetSecret
PUBLIC	?SetOutline@CTextLine@UI@@QAEXH@Z		; UI::CTextLine::SetOutline
PUBLIC	?SetFeather@CTextLine@UI@@QAEXH@Z		; UI::CTextLine::SetFeather
PUBLIC	?SetMultiLine@CTextLine@UI@@QAEXH@Z		; UI::CTextLine::SetMultiLine
PUBLIC	?SetFontName@CTextLine@UI@@QAEXPBD@Z		; UI::CTextLine::SetFontName
PUBLIC	?SetFontColor@CTextLine@UI@@QAEXK@Z		; UI::CTextLine::SetFontColor
PUBLIC	?SetLimitWidth@CTextLine@UI@@QAEXM@Z		; UI::CTextLine::SetLimitWidth
PUBLIC	?ShowCursor@CTextLine@UI@@QAEXXZ		; UI::CTextLine::ShowCursor
PUBLIC	?HideCursor@CTextLine@UI@@QAEXXZ		; UI::CTextLine::HideCursor
PUBLIC	?GetCursorPosition@CTextLine@UI@@QAEHXZ		; UI::CTextLine::GetCursorPosition
PUBLIC	?SetText@CTextLine@UI@@QAEXPBD@Z		; UI::CTextLine::SetText
PUBLIC	?GetText@CTextLine@UI@@QAEPBDXZ			; UI::CTextLine::GetText
PUBLIC	?GetTextSize@CTextLine@UI@@QAEXPAH0@Z		; UI::CTextLine::GetTextSize
PUBLIC	?OnUpdate@CTextLine@UI@@MAEXXZ			; UI::CTextLine::OnUpdate
PUBLIC	?OnRender@CTextLine@UI@@MAEXXZ			; UI::CTextLine::OnRender
PUBLIC	?OnChangePosition@CTextLine@UI@@MAEXXZ		; UI::CTextLine::OnChangePosition
PUBLIC	?OnSetText@CTextLine@UI@@MAEXPBD@Z		; UI::CTextLine::OnSetText
PUBLIC	??_GCTextLine@UI@@UAEPAXI@Z			; UI::CTextLine::`scalar deleting destructor'
PUBLIC	??0CNumberLine@UI@@QAE@PAU_object@@@Z		; UI::CNumberLine::CNumberLine
PUBLIC	??0CNumberLine@UI@@QAE@PAVCWindow@1@@Z		; UI::CNumberLine::CNumberLine
PUBLIC	??1CNumberLine@UI@@UAE@XZ			; UI::CNumberLine::~CNumberLine
PUBLIC	?SetPath@CNumberLine@UI@@QAEXPBD@Z		; UI::CNumberLine::SetPath
PUBLIC	?SetHorizontalAlign@CNumberLine@UI@@QAEXH@Z	; UI::CNumberLine::SetHorizontalAlign
PUBLIC	?SetNumber@CNumberLine@UI@@QAEXPBD@Z		; UI::CNumberLine::SetNumber
PUBLIC	?ClearNumber@CNumberLine@UI@@IAEXXZ		; UI::CNumberLine::ClearNumber
PUBLIC	?OnRender@CNumberLine@UI@@MAEXXZ		; UI::CNumberLine::OnRender
PUBLIC	?OnChangePosition@CNumberLine@UI@@MAEXXZ	; UI::CNumberLine::OnChangePosition
PUBLIC	??1?$vector@PAVCGraphicImageInstance@@V?$allocator@PAVCGraphicImageInstance@@@std@@@std@@QAE@XZ ; std::vector<CGraphicImageInstance *,std::allocator<CGraphicImageInstance *> >::~vector<CGraphicImageInstance *,std::allocator<CGraphicImageInstance *> >
PUBLIC	?_Xlength@?$vector@PAVCGraphicImageInstance@@V?$allocator@PAVCGraphicImageInstance@@@std@@@std@@CAXXZ ; std::vector<CGraphicImageInstance *,std::allocator<CGraphicImageInstance *> >::_Xlength
PUBLIC	??_GCNumberLine@UI@@UAEPAXI@Z			; UI::CNumberLine::`scalar deleting destructor'
PUBLIC	??0CImageBox@UI@@QAE@PAU_object@@@Z		; UI::CImageBox::CImageBox
PUBLIC	??1CImageBox@UI@@UAE@XZ				; UI::CImageBox::~CImageBox
PUBLIC	?LoadImageA@CImageBox@UI@@QAEHPBD@Z		; UI::CImageBox::LoadImageA
PUBLIC	?SetDiffuseColor@CImageBox@UI@@QAEXMMMM@Z	; UI::CImageBox::SetDiffuseColor
PUBLIC	?GetWidth@CImageBox@UI@@QAEHXZ			; UI::CImageBox::GetWidth
PUBLIC	?GetHeight@CImageBox@UI@@QAEHXZ			; UI::CImageBox::GetHeight
PUBLIC	?OnCreateInstance@CImageBox@UI@@MAEXXZ		; UI::CImageBox::OnCreateInstance
PUBLIC	?OnDestroyInstance@CImageBox@UI@@MAEXXZ		; UI::CImageBox::OnDestroyInstance
PUBLIC	?OnUpdate@CImageBox@UI@@MAEXXZ			; UI::CImageBox::OnUpdate
PUBLIC	?OnRender@CImageBox@UI@@MAEXXZ			; UI::CImageBox::OnRender
PUBLIC	?OnChangePosition@CImageBox@UI@@MAEXXZ		; UI::CImageBox::OnChangePosition
PUBLIC	??_GCImageBox@UI@@UAEPAXI@Z			; UI::CImageBox::`scalar deleting destructor'
PUBLIC	??0CMarkBox@UI@@QAE@PAU_object@@@Z		; UI::CMarkBox::CMarkBox
PUBLIC	??1CMarkBox@UI@@UAE@XZ				; UI::CMarkBox::~CMarkBox
PUBLIC	?LoadImageA@CMarkBox@UI@@QAEXPBD@Z		; UI::CMarkBox::LoadImageA
PUBLIC	?SetDiffuseColor@CMarkBox@UI@@QAEXMMMM@Z	; UI::CMarkBox::SetDiffuseColor
PUBLIC	?SetIndex@CMarkBox@UI@@QAEXI@Z			; UI::CMarkBox::SetIndex
PUBLIC	?SetScale@CMarkBox@UI@@QAEXM@Z			; UI::CMarkBox::SetScale
PUBLIC	?OnCreateInstance@CMarkBox@UI@@MAEXXZ		; UI::CMarkBox::OnCreateInstance
PUBLIC	?OnDestroyInstance@CMarkBox@UI@@MAEXXZ		; UI::CMarkBox::OnDestroyInstance
PUBLIC	?OnUpdate@CMarkBox@UI@@MAEXXZ			; UI::CMarkBox::OnUpdate
PUBLIC	?OnRender@CMarkBox@UI@@MAEXXZ			; UI::CMarkBox::OnRender
PUBLIC	?OnChangePosition@CMarkBox@UI@@MAEXXZ		; UI::CMarkBox::OnChangePosition
PUBLIC	??_GCMarkBox@UI@@UAEPAXI@Z			; UI::CMarkBox::`scalar deleting destructor'
PUBLIC	?Type@CExpandedImageBox@UI@@SAKXZ		; UI::CExpandedImageBox::Type
PUBLIC	??0CExpandedImageBox@UI@@QAE@PAU_object@@@Z	; UI::CExpandedImageBox::CExpandedImageBox
PUBLIC	??1CExpandedImageBox@UI@@UAE@XZ			; UI::CExpandedImageBox::~CExpandedImageBox
PUBLIC	?SetScale@CExpandedImageBox@UI@@QAEXMM@Z	; UI::CExpandedImageBox::SetScale
PUBLIC	?SetOrigin@CExpandedImageBox@UI@@QAEXMM@Z	; UI::CExpandedImageBox::SetOrigin
PUBLIC	?SetRotation@CExpandedImageBox@UI@@QAEXM@Z	; UI::CExpandedImageBox::SetRotation
PUBLIC	?SetRenderingRect@CExpandedImageBox@UI@@QAEXMMMM@Z ; UI::CExpandedImageBox::SetRenderingRect
PUBLIC	?SetRenderingMode@CExpandedImageBox@UI@@QAEXH@Z	; UI::CExpandedImageBox::SetRenderingMode
PUBLIC	?OnCreateInstance@CExpandedImageBox@UI@@MAEXXZ	; UI::CExpandedImageBox::OnCreateInstance
PUBLIC	?OnDestroyInstance@CExpandedImageBox@UI@@MAEXXZ	; UI::CExpandedImageBox::OnDestroyInstance
PUBLIC	?OnUpdate@CExpandedImageBox@UI@@MAEXXZ		; UI::CExpandedImageBox::OnUpdate
PUBLIC	?OnRender@CExpandedImageBox@UI@@MAEXXZ		; UI::CExpandedImageBox::OnRender
PUBLIC	?OnIsType@CExpandedImageBox@UI@@MAEHK@Z		; UI::CExpandedImageBox::OnIsType
PUBLIC	??_GCExpandedImageBox@UI@@UAEPAXI@Z		; UI::CExpandedImageBox::`scalar deleting destructor'
PUBLIC	?Type@CAniImageBox@UI@@SAKXZ			; UI::CAniImageBox::Type
PUBLIC	??0CAniImageBox@UI@@QAE@PAU_object@@@Z		; UI::CAniImageBox::CAniImageBox
PUBLIC	??1CAniImageBox@UI@@UAE@XZ			; UI::CAniImageBox::~CAniImageBox
PUBLIC	?SetDelay@CAniImageBox@UI@@QAEXH@Z		; UI::CAniImageBox::SetDelay
PUBLIC	?AppendImage@CAniImageBox@UI@@QAEXPBDMMMM@Z	; UI::CAniImageBox::AppendImage
PUBLIC	?SetRenderingRect@CAniImageBox@UI@@QAEXMMMM@Z	; UI::CAniImageBox::SetRenderingRect
PUBLIC	?SetRenderingMode@CAniImageBox@UI@@QAEXH@Z	; UI::CAniImageBox::SetRenderingMode
PUBLIC	?ResetFrame@CAniImageBox@UI@@QAEXXZ		; UI::CAniImageBox::ResetFrame
PUBLIC	?OnUpdate@CAniImageBox@UI@@MAEXXZ		; UI::CAniImageBox::OnUpdate
PUBLIC	?OnRender@CAniImageBox@UI@@MAEXXZ		; UI::CAniImageBox::OnRender
PUBLIC	?OnChangePosition@CAniImageBox@UI@@MAEXXZ	; UI::CAniImageBox::OnChangePosition
PUBLIC	?OnEndFrame@CAniImageBox@UI@@MAEXXZ		; UI::CAniImageBox::OnEndFrame
PUBLIC	?OnIsType@CAniImageBox@UI@@MAEHK@Z		; UI::CAniImageBox::OnIsType
PUBLIC	??_GCAniImageBox@UI@@UAEPAXI@Z			; UI::CAniImageBox::`scalar deleting destructor'
PUBLIC	??0CButton@UI@@QAE@PAU_object@@@Z		; UI::CButton::CButton
PUBLIC	??1CButton@UI@@UAE@XZ				; UI::CButton::~CButton
PUBLIC	?SetUpVisual@CButton@UI@@QAEHPBD@Z		; UI::CButton::SetUpVisual
PUBLIC	?SetOverVisual@CButton@UI@@QAEHPBD@Z		; UI::CButton::SetOverVisual
PUBLIC	?SetDownVisual@CButton@UI@@QAEHPBD@Z		; UI::CButton::SetDownVisual
PUBLIC	?SetDisableVisual@CButton@UI@@QAEHPBD@Z		; UI::CButton::SetDisableVisual
PUBLIC	?GetUpVisualFileName@CButton@UI@@QAEPBDXZ	; UI::CButton::GetUpVisualFileName
PUBLIC	?GetOverVisualFileName@CButton@UI@@QAEPBDXZ	; UI::CButton::GetOverVisualFileName
PUBLIC	?GetDownVisualFileName@CButton@UI@@QAEPBDXZ	; UI::CButton::GetDownVisualFileName
PUBLIC	?Flash@CButton@UI@@QAEXXZ			; UI::CButton::Flash
PUBLIC	?Enable@CButton@UI@@QAEXXZ			; UI::CButton::Enable
PUBLIC	?Disable@CButton@UI@@QAEXXZ			; UI::CButton::Disable
PUBLIC	?SetUp@CButton@UI@@QAEXXZ			; UI::CButton::SetUp
PUBLIC	?Up@CButton@UI@@QAEXXZ				; UI::CButton::Up
PUBLIC	?Over@CButton@UI@@QAEXXZ			; UI::CButton::Over
PUBLIC	?Down@CButton@UI@@QAEXXZ			; UI::CButton::Down
PUBLIC	?IsDisable@CButton@UI@@QAEHXZ			; UI::CButton::IsDisable
PUBLIC	?IsPressed@CButton@UI@@QAEHXZ			; UI::CButton::IsPressed
PUBLIC	?OnUpdate@CButton@UI@@MAEXXZ			; UI::CButton::OnUpdate
PUBLIC	?OnRender@CButton@UI@@MAEXXZ			; UI::CButton::OnRender
PUBLIC	?OnChangePosition@CButton@UI@@MAEXXZ		; UI::CButton::OnChangePosition
PUBLIC	?OnMouseLeftButtonDown@CButton@UI@@MAEHXZ	; UI::CButton::OnMouseLeftButtonDown
PUBLIC	?OnMouseLeftButtonDoubleClick@CButton@UI@@MAEHXZ ; UI::CButton::OnMouseLeftButtonDoubleClick
PUBLIC	?OnMouseLeftButtonUp@CButton@UI@@MAEHXZ		; UI::CButton::OnMouseLeftButtonUp
PUBLIC	?OnMouseOverIn@CButton@UI@@MAEXXZ		; UI::CButton::OnMouseOverIn
PUBLIC	?OnMouseOverOut@CButton@UI@@MAEXXZ		; UI::CButton::OnMouseOverOut
PUBLIC	?IsEnable@CButton@UI@@IAEHXZ			; UI::CButton::IsEnable
PUBLIC	?SetCurrentVisual@CButton@UI@@IAEXPAVCGraphicImageInstance@@@Z ; UI::CButton::SetCurrentVisual
PUBLIC	??_GCButton@UI@@UAEPAXI@Z			; UI::CButton::`scalar deleting destructor'
PUBLIC	??0CRadioButton@UI@@QAE@PAU_object@@@Z		; UI::CRadioButton::CRadioButton
PUBLIC	??1CRadioButton@UI@@UAE@XZ			; UI::CRadioButton::~CRadioButton
PUBLIC	?OnMouseLeftButtonDown@CRadioButton@UI@@MAEHXZ	; UI::CRadioButton::OnMouseLeftButtonDown
PUBLIC	?OnMouseLeftButtonUp@CRadioButton@UI@@MAEHXZ	; UI::CRadioButton::OnMouseLeftButtonUp
PUBLIC	?OnMouseOverIn@CRadioButton@UI@@MAEXXZ		; UI::CRadioButton::OnMouseOverIn
PUBLIC	?OnMouseOverOut@CRadioButton@UI@@MAEXXZ		; UI::CRadioButton::OnMouseOverOut
PUBLIC	??_GCRadioButton@UI@@UAEPAXI@Z			; UI::CRadioButton::`scalar deleting destructor'
PUBLIC	??0CToggleButton@UI@@QAE@PAU_object@@@Z		; UI::CToggleButton::CToggleButton
PUBLIC	??1CToggleButton@UI@@UAE@XZ			; UI::CToggleButton::~CToggleButton
PUBLIC	?OnMouseLeftButtonDown@CToggleButton@UI@@MAEHXZ	; UI::CToggleButton::OnMouseLeftButtonDown
PUBLIC	?OnMouseLeftButtonUp@CToggleButton@UI@@MAEHXZ	; UI::CToggleButton::OnMouseLeftButtonUp
PUBLIC	?OnMouseOverIn@CToggleButton@UI@@MAEXXZ		; UI::CToggleButton::OnMouseOverIn
PUBLIC	?OnMouseOverOut@CToggleButton@UI@@MAEXXZ	; UI::CToggleButton::OnMouseOverOut
PUBLIC	??_GCToggleButton@UI@@UAEPAXI@Z			; UI::CToggleButton::`scalar deleting destructor'
PUBLIC	??0CDragButton@UI@@QAE@PAU_object@@@Z		; UI::CDragButton::CDragButton
PUBLIC	??1CDragButton@UI@@UAE@XZ			; UI::CDragButton::~CDragButton
PUBLIC	?SetRestrictMovementArea@CDragButton@UI@@QAEXHHHH@Z ; UI::CDragButton::SetRestrictMovementArea
PUBLIC	?OnChangePosition@CDragButton@UI@@MAEXXZ	; UI::CDragButton::OnChangePosition
PUBLIC	?OnMouseOverIn@CDragButton@UI@@MAEXXZ		; UI::CDragButton::OnMouseOverIn
PUBLIC	?OnMouseOverOut@CDragButton@UI@@MAEXXZ		; UI::CDragButton::OnMouseOverOut
PUBLIC	??_GCDragButton@UI@@UAEPAXI@Z			; UI::CDragButton::`scalar deleting destructor'
PUBLIC	??$mem_fun@JVCWindow@UI@@@std@@YA?AV?$mem_fun_t@JVCWindow@UI@@@0@P8CWindow@UI@@AEJXZ@Z ; std::mem_fun<long,UI::CWindow>
PUBLIC	??$?HDU?$char_traits@D@std@@V?$allocator@D@1@@std@@YA?AV?$basic_string@DU?$char_traits@D@std@@V?$allocator@D@2@@0@ABV10@QBD@Z ; std::operator+<char,std::char_traits<char>,std::allocator<char> >
PUBLIC	??$_Emplace_reallocate@ABQAVCGraphicImageInstance@@@?$vector@PAVCGraphicImageInstance@@V?$allocator@PAVCGraphicImageInstance@@@std@@@std@@QAEPAPAVCGraphicImageInstance@@QAPAV2@ABQAV2@@Z ; std::vector<CGraphicImageInstance *,std::allocator<CGraphicImageInstance *> >::_Emplace_reallocate<CGraphicImageInstance * const &>
PUBLIC	??$_Destroy_range@V?$allocator@PAVCGraphicImageInstance@@@std@@@std@@YAXPAPAVCGraphicImageInstance@@QAPAV1@AAV?$allocator@PAVCGraphicImageInstance@@@0@@Z ; std::_Destroy_range<std::allocator<CGraphicImageInstance *> >
PUBLIC	??$_Construct_in_place@PAU?$_List_node@PAVCWindow@UI@@PAX@std@@AAPAU12@@std@@YAXAAPAU?$_List_node@PAVCWindow@UI@@PAX@0@0@Z ; std::_Construct_in_place<std::_List_node<UI::CWindow *,void *> *,std::_List_node<UI::CWindow *,void *> * &>
PUBLIC	??1?$_Alloc_construct_ptr@V?$allocator@U?$_List_node@PAVCWindow@UI@@PAX@std@@@std@@@std@@QAE@XZ ; std::_Alloc_construct_ptr<std::allocator<std::_List_node<UI::CWindow *,void *> > >::~_Alloc_construct_ptr<std::allocator<std::_List_node<UI::CWindow *,void *> > >
PUBLIC	??$_Destroy_in_place@PAU?$_List_node@PAVCWindow@UI@@PAX@std@@@std@@YAXAAPAU?$_List_node@PAVCWindow@UI@@PAX@0@@Z ; std::_Destroy_in_place<std::_List_node<UI::CWindow *,void *> *>
PUBLIC	??$_Construct_in_place@PAU?$_List_node@PAVCWindow@UI@@PAX@std@@ABQAU12@@std@@YAXAAPAU?$_List_node@PAVCWindow@UI@@PAX@0@ABQAU10@@Z ; std::_Construct_in_place<std::_List_node<UI::CWindow *,void *> *,std::_List_node<UI::CWindow *,void *> * const &>
PUBLIC	??$_Uninitialized_move@PAPAVCGraphicImageInstance@@V?$allocator@PAVCGraphicImageInstance@@@std@@@std@@YAPAPAVCGraphicImageInstance@@QAPAV1@0PAPAV1@AAV?$allocator@PAVCGraphicImageInstance@@@0@@Z ; std::_Uninitialized_move<CGraphicImageInstance * *,std::allocator<CGraphicImageInstance *> >
PUBLIC	??$_Copy_memmove@PAPAVCGraphicImageInstance@@PAPAV1@@std@@YAPAPAVCGraphicImageInstance@@PAPAV1@00@Z ; std::_Copy_memmove<CGraphicImageInstance * *,CGraphicImageInstance * *>
PUBLIC	??_7exception@std@@6B@				; std::exception::`vftable'
PUBLIC	??_C@_0BC@EOODALEL@Unknown?5exception@		; `string'
PUBLIC	??_7bad_alloc@std@@6B@				; std::bad_alloc::`vftable'
PUBLIC	??_7bad_array_new_length@std@@6B@		; std::bad_array_new_length::`vftable'
PUBLIC	??_C@_0BF@KINCDENJ@bad?5array?5new?5length@	; `string'
PUBLIC	__TI3?AVbad_array_new_length@std@@
PUBLIC	__CTA3?AVbad_array_new_length@std@@
PUBLIC	??_R0?AVbad_array_new_length@std@@@8		; std::bad_array_new_length `RTTI Type Descriptor'
PUBLIC	__CT??_R0?AVbad_array_new_length@std@@@8??0bad_array_new_length@std@@QAE@ABV01@@Z12
PUBLIC	??_R0?AVbad_alloc@std@@@8			; std::bad_alloc `RTTI Type Descriptor'
PUBLIC	__CT??_R0?AVbad_alloc@std@@@8??0bad_alloc@std@@QAE@ABV01@@Z12
PUBLIC	??_R0?AVexception@std@@@8			; std::exception `RTTI Type Descriptor'
PUBLIC	__CT??_R0?AVexception@std@@@8??0exception@std@@QAE@ABV01@@Z12
PUBLIC	??_C@_0BA@JFNIOLAK@string?5too?5long@		; `string'
PUBLIC	??_C@_00CNPNBAHC@@				; `string'
PUBLIC	?ms_singleton@?$CSingleton@VCResourceManager@@@@0PAVCResourceManager@@A ; CSingleton<CResourceManager>::ms_singleton
PUBLIC	?ms_singleton@?$CSingleton@VCPythonGraphic@@@@0PAVCPythonGraphic@@A ; CSingleton<CPythonGraphic>::ms_singleton
PUBLIC	?ms_singleton@?$CSingleton@VCWindowManager@UI@@@@0PAVCWindowManager@UI@@A ; CSingleton<UI::CWindowManager>::ms_singleton
PUBLIC	??_C@_0BA@FOIKENOD@vector?5too?5long@		; `string'
PUBLIC	??_R4exception@std@@6B@				; std::exception::`RTTI Complete Object Locator'
PUBLIC	??_R3exception@std@@8				; std::exception::`RTTI Class Hierarchy Descriptor'
PUBLIC	??_R2exception@std@@8				; std::exception::`RTTI Base Class Array'
PUBLIC	??_R1A@?0A@EA@exception@std@@8			; std::exception::`RTTI Base Class Descriptor at (0,-1,0,64)'
PUBLIC	??_R4bad_alloc@std@@6B@				; std::bad_alloc::`RTTI Complete Object Locator'
PUBLIC	??_R3bad_alloc@std@@8				; std::bad_alloc::`RTTI Class Hierarchy Descriptor'
PUBLIC	??_R2bad_alloc@std@@8				; std::bad_alloc::`RTTI Base Class Array'
PUBLIC	??_R1A@?0A@EA@bad_alloc@std@@8			; std::bad_alloc::`RTTI Base Class Descriptor at (0,-1,0,64)'
PUBLIC	??_R4bad_array_new_length@std@@6B@		; std::bad_array_new_length::`RTTI Complete Object Locator'
PUBLIC	??_R3bad_array_new_length@std@@8		; std::bad_array_new_length::`RTTI Class Hierarchy Descriptor'
PUBLIC	??_R2bad_array_new_length@std@@8		; std::bad_array_new_length::`RTTI Base Class Array'
PUBLIC	??_R1A@?0A@EA@bad_array_new_length@std@@8	; std::bad_array_new_length::`RTTI Base Class Descriptor at (0,-1,0,64)'
PUBLIC	??_7CWindow@UI@@6B@				; UI::CWindow::`vftable'
PUBLIC	??_7CBox@UI@@6B@				; UI::CBox::`vftable'
PUBLIC	??_7CBar@UI@@6B@				; UI::CBar::`vftable'
PUBLIC	??_7CLine@UI@@6B@				; UI::CLine::`vftable'
PUBLIC	??_7CBar3D@UI@@6B@				; UI::CBar3D::`vftable'
PUBLIC	??_7CTextLine@UI@@6B@				; UI::CTextLine::`vftable'
PUBLIC	??_7CNumberLine@UI@@6B@				; UI::CNumberLine::`vftable'
PUBLIC	??_7CImageBox@UI@@6B@				; UI::CImageBox::`vftable'
PUBLIC	??_7CMarkBox@UI@@6B@				; UI::CMarkBox::`vftable'
PUBLIC	??_7CExpandedImageBox@UI@@6B@			; UI::CExpandedImageBox::`vftable'
PUBLIC	??_7CAniImageBox@UI@@6B@			; UI::CAniImageBox::`vftable'
PUBLIC	??_7CButton@UI@@6B@				; UI::CButton::`vftable'
PUBLIC	??_7CRadioButton@UI@@6B@			; UI::CRadioButton::`vftable'
PUBLIC	??_7CToggleButton@UI@@6B@			; UI::CToggleButton::`vftable'
PUBLIC	??_7CDragButton@UI@@6B@				; UI::CDragButton::`vftable'
PUBLIC	??_C@_07EFPFKGGH@CWindow@			; `string'
PUBLIC	??_C@_08DCJEAFK@OnUpdate@			; `string'
PUBLIC	??_C@_08PAJMEILO@OnRender@			; `string'
PUBLIC	??_C@_0DA@NEIGMJK@?5CWindow?3?3SetTop?5?9?5Failed?5to?5fi@ ; `string'
PUBLIC	??_C@_04INACLLOK@?$CIii?$CJ@			; `string'
PUBLIC	??_C@_0M@ECAEGPAI@OnMouseDrag@			; `string'
PUBLIC	??_C@_0N@PFKNBOJP@OnMoveWindow@			; `string'
PUBLIC	??_C@_0L@GIMNGBCD@OnSetFocus@			; `string'
PUBLIC	??_C@_0M@CEGPCFGM@OnKillFocus@			; `string'
PUBLIC	??_C@_0O@JKDAFDCC@OnMouseOverIn@		; `string'
PUBLIC	??_C@_0P@KLLBNOAI@OnMouseOverOut@		; `string'
PUBLIC	??_C@_06OCNPCIEO@OnDrop@			; `string'
PUBLIC	??_C@_05LOOKECNH@OnTop@				; `string'
PUBLIC	??_C@_0M@DGOFHNMI@OnIMEUpdate@			; `string'
PUBLIC	??_C@_0BG@DNDHJHBD@OnMouseLeftButtonDown@	; `string'
PUBLIC	??_C@_0BE@MJALGMGL@OnMouseLeftButtonUp@		; `string'
PUBLIC	??_C@_0BN@KEKGIMMP@OnMouseLeftButtonDoubleClick@ ; `string'
PUBLIC	??_C@_0BH@ELECPAKA@OnMouseRightButtonDown@	; `string'
PUBLIC	??_C@_0BF@FDIGHPIH@OnMouseRightButtonUp@	; `string'
PUBLIC	??_C@_0BO@NPKMHGOP@OnMouseRightButtonDoubleClick@ ; `string'
PUBLIC	??_C@_0BI@LKFMHNKP@OnMouseMiddleButtonDown@	; `string'
PUBLIC	??_C@_0BG@IGAJCEHG@OnMouseMiddleButtonUp@	; `string'
PUBLIC	??_C@_02NAHCJHOC@UP@				; `string'
PUBLIC	??_C@_04FANAOELO@DOWN@				; `string'
PUBLIC	??_C@_03KJMMOONA@?$CIs?$CJ@			; `string'
PUBLIC	??_C@_0BD@GNNJJHBO@OnMouseWheelScroll@		; `string'
PUBLIC	??_C@_08HFELFLOI@OnIMETab@			; `string'
PUBLIC	??_C@_0M@PILLCCFN@OnIMEReturn@			; `string'
PUBLIC	??_C@_03LIHNMIHG@?$CIi?$CJ@			; `string'
PUBLIC	??_C@_0N@BMPDGPBH@OnIMEKeyDown@			; `string'
PUBLIC	??_C@_0BE@EHKLBB@OnIMEChangeCodePage@		; `string'
PUBLIC	??_C@_0BH@HEDPBKEK@OnIMEOpenCandidateList@	; `string'
PUBLIC	??_C@_0BI@LOIKIPJ@OnIMECloseCandidateList@	; `string'
PUBLIC	??_C@_0BE@KDCLEDDC@OnIMEOpenReadingWnd@		; `string'
PUBLIC	??_C@_0BF@DEOILJPB@OnIMECloseReadingWnd@	; `string'
PUBLIC	??_C@_09CMHFBEC@OnKeyDown@			; `string'
PUBLIC	??_C@_07NGNLLPEG@OnKeyUp@			; `string'
PUBLIC	??_C@_0BB@HCFLIMGH@OnPressEscapeKey@		; `string'
PUBLIC	??_C@_0P@KEJGBDKK@OnPressExitKey@		; `string'
PUBLIC	??_C@_06ICLMADCA@CBar3D@			; `string'
PUBLIC	??_C@_04FAHLGLIA@?4fnt@				; `string'
PUBLIC	??_C@_0BO@GPCBPBEE@d?3?1ymir?5work?1ui?1game?1taskbar?1@ ; `string'
PUBLIC	??_C@_09GPLBLMNE@colon?4sub@			; `string'
PUBLIC	??_C@_0BB@POBNNLPJ@questionmark?4sub@		; `string'
PUBLIC	??_C@_09JMLAABIP@slash?4sub@			; `string'
PUBLIC	??_C@_0M@MHAKIBOD@percent?4sub@			; `string'
PUBLIC	??_C@_08FPHNCABK@plus?4sub@			; `string'
PUBLIC	??_C@_05PINNHPFB@m?4sub@			; `string'
PUBLIC	??_C@_05FJEGFMDH@g?4sub@			; `string'
PUBLIC	??_C@_05EHJFGOBE@p?4sub@			; `string'
PUBLIC	??_C@_04DLFHDFGL@?4sub@				; `string'
PUBLIC	??_C@_0BC@DJHPPMGJ@CExpandedImageBox@		; `string'
PUBLIC	??_C@_0N@LBBHECOO@CAniImageBox@			; `string'
PUBLIC	??_C@_0L@LBHHAGOH@OnEndFrame@			; `string'
PUBLIC	??_C@_09MFFHPOPB@CallEvent@			; `string'
PUBLIC	??_C@_09FJAHACEO@DownEvent@			; `string'
PUBLIC	??_C@_0M@LEFCMAKP@ShowToolTip@			; `string'
PUBLIC	??_C@_0M@HCIAMHJN@HideToolTip@			; `string'
PUBLIC	??_C@_0L@HGABHAMN@OnToggleUp@			; `string'
PUBLIC	??_C@_0N@NBGLGPDJ@OnToggleDown@			; `string'
PUBLIC	??_C@_06GJPOLLJG@OnMove@			; `string'
PUBLIC	??_C@_0O@NKNMEGII@list?5too?5long@		; `string'
PUBLIC	??_R4CWindow@UI@@6B@				; UI::CWindow::`RTTI Complete Object Locator'
PUBLIC	??_R0?AVCWindow@UI@@@8				; UI::CWindow `RTTI Type Descriptor'
PUBLIC	??_R3CWindow@UI@@8				; UI::CWindow::`RTTI Class Hierarchy Descriptor'
PUBLIC	??_R2CWindow@UI@@8				; UI::CWindow::`RTTI Base Class Array'
PUBLIC	??_R1A@?0A@EA@CWindow@UI@@8			; UI::CWindow::`RTTI Base Class Descriptor at (0,-1,0,64)'
PUBLIC	??_R4CBox@UI@@6B@				; UI::CBox::`RTTI Complete Object Locator'
PUBLIC	??_R0?AVCBox@UI@@@8				; UI::CBox `RTTI Type Descriptor'
PUBLIC	??_R3CBox@UI@@8					; UI::CBox::`RTTI Class Hierarchy Descriptor'
PUBLIC	??_R2CBox@UI@@8					; UI::CBox::`RTTI Base Class Array'
PUBLIC	??_R1A@?0A@EA@CBox@UI@@8			; UI::CBox::`RTTI Base Class Descriptor at (0,-1,0,64)'
PUBLIC	??_R4CBar@UI@@6B@				; UI::CBar::`RTTI Complete Object Locator'
PUBLIC	??_R0?AVCBar@UI@@@8				; UI::CBar `RTTI Type Descriptor'
PUBLIC	??_R3CBar@UI@@8					; UI::CBar::`RTTI Class Hierarchy Descriptor'
PUBLIC	??_R2CBar@UI@@8					; UI::CBar::`RTTI Base Class Array'
PUBLIC	??_R1A@?0A@EA@CBar@UI@@8			; UI::CBar::`RTTI Base Class Descriptor at (0,-1,0,64)'
PUBLIC	??_R4CLine@UI@@6B@				; UI::CLine::`RTTI Complete Object Locator'
PUBLIC	??_R0?AVCLine@UI@@@8				; UI::CLine `RTTI Type Descriptor'
PUBLIC	??_R3CLine@UI@@8				; UI::CLine::`RTTI Class Hierarchy Descriptor'
PUBLIC	??_R2CLine@UI@@8				; UI::CLine::`RTTI Base Class Array'
PUBLIC	??_R1A@?0A@EA@CLine@UI@@8			; UI::CLine::`RTTI Base Class Descriptor at (0,-1,0,64)'
PUBLIC	??_R4CBar3D@UI@@6B@				; UI::CBar3D::`RTTI Complete Object Locator'
PUBLIC	??_R0?AVCBar3D@UI@@@8				; UI::CBar3D `RTTI Type Descriptor'
PUBLIC	??_R3CBar3D@UI@@8				; UI::CBar3D::`RTTI Class Hierarchy Descriptor'
PUBLIC	??_R2CBar3D@UI@@8				; UI::CBar3D::`RTTI Base Class Array'
PUBLIC	??_R1A@?0A@EA@CBar3D@UI@@8			; UI::CBar3D::`RTTI Base Class Descriptor at (0,-1,0,64)'
PUBLIC	??_R4CTextLine@UI@@6B@				; UI::CTextLine::`RTTI Complete Object Locator'
PUBLIC	??_R0?AVCTextLine@UI@@@8			; UI::CTextLine `RTTI Type Descriptor'
PUBLIC	??_R3CTextLine@UI@@8				; UI::CTextLine::`RTTI Class Hierarchy Descriptor'
PUBLIC	??_R2CTextLine@UI@@8				; UI::CTextLine::`RTTI Base Class Array'
PUBLIC	??_R1A@?0A@EA@CTextLine@UI@@8			; UI::CTextLine::`RTTI Base Class Descriptor at (0,-1,0,64)'
PUBLIC	??_R4CNumberLine@UI@@6B@			; UI::CNumberLine::`RTTI Complete Object Locator'
PUBLIC	??_R0?AVCNumberLine@UI@@@8			; UI::CNumberLine `RTTI Type Descriptor'
PUBLIC	??_R3CNumberLine@UI@@8				; UI::CNumberLine::`RTTI Class Hierarchy Descriptor'
PUBLIC	??_R2CNumberLine@UI@@8				; UI::CNumberLine::`RTTI Base Class Array'
PUBLIC	??_R1A@?0A@EA@CNumberLine@UI@@8			; UI::CNumberLine::`RTTI Base Class Descriptor at (0,-1,0,64)'
PUBLIC	??_R4CImageBox@UI@@6B@				; UI::CImageBox::`RTTI Complete Object Locator'
PUBLIC	??_R0?AVCImageBox@UI@@@8			; UI::CImageBox `RTTI Type Descriptor'
PUBLIC	??_R3CImageBox@UI@@8				; UI::CImageBox::`RTTI Class Hierarchy Descriptor'
PUBLIC	??_R2CImageBox@UI@@8				; UI::CImageBox::`RTTI Base Class Array'
PUBLIC	??_R1A@?0A@EA@CImageBox@UI@@8			; UI::CImageBox::`RTTI Base Class Descriptor at (0,-1,0,64)'
PUBLIC	??_R4CMarkBox@UI@@6B@				; UI::CMarkBox::`RTTI Complete Object Locator'
PUBLIC	??_R0?AVCMarkBox@UI@@@8				; UI::CMarkBox `RTTI Type Descriptor'
PUBLIC	??_R3CMarkBox@UI@@8				; UI::CMarkBox::`RTTI Class Hierarchy Descriptor'
PUBLIC	??_R2CMarkBox@UI@@8				; UI::CMarkBox::`RTTI Base Class Array'
PUBLIC	??_R1A@?0A@EA@CMarkBox@UI@@8			; UI::CMarkBox::`RTTI Base Class Descriptor at (0,-1,0,64)'
PUBLIC	??_R4CExpandedImageBox@UI@@6B@			; UI::CExpandedImageBox::`RTTI Complete Object Locator'
PUBLIC	??_R0?AVCExpandedImageBox@UI@@@8		; UI::CExpandedImageBox `RTTI Type Descriptor'
PUBLIC	??_R3CExpandedImageBox@UI@@8			; UI::CExpandedImageBox::`RTTI Class Hierarchy Descriptor'
PUBLIC	??_R2CExpandedImageBox@UI@@8			; UI::CExpandedImageBox::`RTTI Base Class Array'
PUBLIC	??_R1A@?0A@EA@CExpandedImageBox@UI@@8		; UI::CExpandedImageBox::`RTTI Base Class Descriptor at (0,-1,0,64)'
PUBLIC	??_R4CAniImageBox@UI@@6B@			; UI::CAniImageBox::`RTTI Complete Object Locator'
PUBLIC	??_R0?AVCAniImageBox@UI@@@8			; UI::CAniImageBox `RTTI Type Descriptor'
PUBLIC	??_R3CAniImageBox@UI@@8				; UI::CAniImageBox::`RTTI Class Hierarchy Descriptor'
PUBLIC	??_R2CAniImageBox@UI@@8				; UI::CAniImageBox::`RTTI Base Class Array'
PUBLIC	??_R1A@?0A@EA@CAniImageBox@UI@@8		; UI::CAniImageBox::`RTTI Base Class Descriptor at (0,-1,0,64)'
PUBLIC	??_R4CButton@UI@@6B@				; UI::CButton::`RTTI Complete Object Locator'
PUBLIC	??_R0?AVCButton@UI@@@8				; UI::CButton `RTTI Type Descriptor'
PUBLIC	??_R3CButton@UI@@8				; UI::CButton::`RTTI Class Hierarchy Descriptor'
PUBLIC	??_R2CButton@UI@@8				; UI::CButton::`RTTI Base Class Array'
PUBLIC	??_R1A@?0A@EA@CButton@UI@@8			; UI::CButton::`RTTI Base Class Descriptor at (0,-1,0,64)'
PUBLIC	??_R4CRadioButton@UI@@6B@			; UI::CRadioButton::`RTTI Complete Object Locator'
PUBLIC	??_R0?AVCRadioButton@UI@@@8			; UI::CRadioButton `RTTI Type Descriptor'
PUBLIC	??_R3CRadioButton@UI@@8				; UI::CRadioButton::`RTTI Class Hierarchy Descriptor'
PUBLIC	??_R2CRadioButton@UI@@8				; UI::CRadioButton::`RTTI Base Class Array'
PUBLIC	??_R1A@?0A@EA@CRadioButton@UI@@8		; UI::CRadioButton::`RTTI Base Class Descriptor at (0,-1,0,64)'
PUBLIC	??_R4CToggleButton@UI@@6B@			; UI::CToggleButton::`RTTI Complete Object Locator'
PUBLIC	??_R0?AVCToggleButton@UI@@@8			; UI::CToggleButton `RTTI Type Descriptor'
PUBLIC	??_R3CToggleButton@UI@@8			; UI::CToggleButton::`RTTI Class Hierarchy Descriptor'
PUBLIC	??_R2CToggleButton@UI@@8			; UI::CToggleButton::`RTTI Base Class Array'
PUBLIC	??_R1A@?0A@EA@CToggleButton@UI@@8		; UI::CToggleButton::`RTTI Base Class Descriptor at (0,-1,0,64)'
PUBLIC	??_R4CDragButton@UI@@6B@			; UI::CDragButton::`RTTI Complete Object Locator'
PUBLIC	??_R0?AVCDragButton@UI@@@8			; UI::CDragButton `RTTI Type Descriptor'
PUBLIC	??_R3CDragButton@UI@@8				; UI::CDragButton::`RTTI Class Hierarchy Descriptor'
PUBLIC	??_R2CDragButton@UI@@8				; UI::CDragButton::`RTTI Base Class Array'
PUBLIC	??_R1A@?0A@EA@CDragButton@UI@@8			; UI::CDragButton::`RTTI Base Class Descriptor at (0,-1,0,64)'
EXTRN	??2@YAPAXI@Z:PROC				; operator new
EXTRN	??3@YAXPAXI@Z:PROC				; operator delete
EXTRN	__Init_thread_header:PROC
EXTRN	__Init_thread_abort:PROC
EXTRN	__Init_thread_footer:PROC
EXTRN	__invalid_parameter_noinfo_noreturn:PROC
EXTRN	_rand:PROC
EXTRN	__imp__timeGetTime@0:PROC
EXTRN	___std_exception_copy:PROC
EXTRN	___std_exception_destroy:PROC
EXTRN	??_Eexception@std@@UAEPAXI@Z:PROC		; std::exception::`vector deleting destructor'
EXTRN	??_Ebad_alloc@std@@UAEPAXI@Z:PROC		; std::bad_alloc::`vector deleting destructor'
EXTRN	??_Ebad_array_new_length@std@@UAEPAXI@Z:PROC	; std::bad_array_new_length::`vector deleting destructor'
EXTRN	?_Xlength_error@std@@YAXPBD@Z:PROC		; std::_Xlength_error
EXTRN	?TraceError@@YAXPBDZZ:PROC			; TraceError
EXTRN	__imp__PyString_InternFromString:PROC
EXTRN	__imp__Py_BuildValue:PROC
EXTRN	?PyCallClassMemberFunc@@YA_NPAU_object@@PBD0@Z:PROC ; PyCallClassMemberFunc
EXTRN	?PyCallClassMemberFunc@@YA_NPAU_object@@PBD0PAJ@Z:PROC ; PyCallClassMemberFunc
EXTRN	?PyCallClassMemberFunc_ByPyString@@YA_NPAU_object@@00@Z:PROC ; PyCallClassMemberFunc_ByPyString
EXTRN	?GetCRC32@@YAKPBDI@Z:PROC			; GetCRC32
EXTRN	?GetDefaultCodePage@@YAKXZ:PROC			; GetDefaultCodePage
EXTRN	?IsType@CResource@@QAE_NK@Z:PROC		; CResource::IsType
EXTRN	?GetResourcePointer@CResourceManager@@QAEPAVCResource@@PBD@Z:PROC ; CResourceManager::GetResourcePointer
EXTRN	?GetTypeResourcePointer@CResourceManager@@QAEPAVCResource@@PBDH@Z:PROC ; CResourceManager::GetTypeResourcePointer
EXTRN	?IsFileExist@CResourceManager@@QAE_NPBD@Z:PROC	; CResourceManager::IsFileExist
EXTRN	?Type@CGraphicImage@@SAKXZ:PROC			; CGraphicImage::Type
EXTRN	??0CGraphicImageInstance@@QAE@XZ:PROC		; CGraphicImageInstance::CGraphicImageInstance
EXTRN	??1CGraphicImageInstance@@UAE@XZ:PROC		; CGraphicImageInstance::~CGraphicImageInstance
EXTRN	?Render@CGraphicImageInstance@@QAEXXZ:PROC	; CGraphicImageInstance::Render
EXTRN	?SetDiffuseColor@CGraphicImageInstance@@QAEXMMMM@Z:PROC ; CGraphicImageInstance::SetDiffuseColor
EXTRN	?SetPosition@CGraphicImageInstance@@QAEXMM@Z:PROC ; CGraphicImageInstance::SetPosition
EXTRN	?SetImagePointer@CGraphicImageInstance@@QAEXPAVCGraphicImage@@@Z:PROC ; CGraphicImageInstance::SetImagePointer
EXTRN	?IsEmpty@CGraphicImageInstance@@QBE_NXZ:PROC	; CGraphicImageInstance::IsEmpty
EXTRN	?GetWidth@CGraphicImageInstance@@QAEHXZ:PROC	; CGraphicImageInstance::GetWidth
EXTRN	?GetHeight@CGraphicImageInstance@@QAEHXZ:PROC	; CGraphicImageInstance::GetHeight
EXTRN	?GetGraphicImagePointer@CGraphicImageInstance@@QAEPAVCGraphicImage@@XZ:PROC ; CGraphicImageInstance::GetGraphicImagePointer
EXTRN	?New@CGraphicImageInstance@@SAPAV1@XZ:PROC	; CGraphicImageInstance::New
EXTRN	?Delete@CGraphicImageInstance@@SAXPAV1@@Z:PROC	; CGraphicImageInstance::Delete
EXTRN	??0CGraphicTextInstance@@QAE@XZ:PROC		; CGraphicTextInstance::CGraphicTextInstance
EXTRN	??1CGraphicTextInstance@@UAE@XZ:PROC		; CGraphicTextInstance::~CGraphicTextInstance
EXTRN	?Destroy@CGraphicTextInstance@@QAEXXZ:PROC	; CGraphicTextInstance::Destroy
EXTRN	?Update@CGraphicTextInstance@@QAEXXZ:PROC	; CGraphicTextInstance::Update
EXTRN	?Render@CGraphicTextInstance@@QAEXPAUtagRECT@@@Z:PROC ; CGraphicTextInstance::Render
EXTRN	?ShowCursor@CGraphicTextInstance@@QAEXXZ:PROC	; CGraphicTextInstance::ShowCursor
EXTRN	?HideCursor@CGraphicTextInstance@@QAEXXZ:PROC	; CGraphicTextInstance::HideCursor
EXTRN	?SetColor@CGraphicTextInstance@@QAEXK@Z:PROC	; CGraphicTextInstance::SetColor
EXTRN	?SetColor@CGraphicTextInstance@@QAEXMMMM@Z:PROC	; CGraphicTextInstance::SetColor
EXTRN	?SetHorizonalAlign@CGraphicTextInstance@@QAEXH@Z:PROC ; CGraphicTextInstance::SetHorizonalAlign
EXTRN	?SetVerticalAlign@CGraphicTextInstance@@QAEXH@Z:PROC ; CGraphicTextInstance::SetVerticalAlign
EXTRN	?SetMax@CGraphicTextInstance@@QAEXH@Z:PROC	; CGraphicTextInstance::SetMax
EXTRN	?SetTextPointer@CGraphicTextInstance@@QAEXPAVCGraphicText@@@Z:PROC ; CGraphicTextInstance::SetTextPointer
EXTRN	?SetValue@CGraphicTextInstance@@QAEXPBDI@Z:PROC	; CGraphicTextInstance::SetValue
EXTRN	?SetPosition@CGraphicTextInstance@@QAEXMMM@Z:PROC ; CGraphicTextInstance::SetPosition
EXTRN	?SetSecret@CGraphicTextInstance@@QAEX_N@Z:PROC	; CGraphicTextInstance::SetSecret
EXTRN	?SetOutline@CGraphicTextInstance@@QAEX_N@Z:PROC	; CGraphicTextInstance::SetOutline
EXTRN	?SetFeather@CGraphicTextInstance@@QAEX_N@Z:PROC	; CGraphicTextInstance::SetFeather
EXTRN	?SetMultiLine@CGraphicTextInstance@@QAEX_N@Z:PROC ; CGraphicTextInstance::SetMultiLine
EXTRN	?SetLimitWidth@CGraphicTextInstance@@QAEXM@Z:PROC ; CGraphicTextInstance::SetLimitWidth
EXTRN	?GetTextSize@CGraphicTextInstance@@QAEXPAH0@Z:PROC ; CGraphicTextInstance::GetTextSize
EXTRN	?GetValueStringReference@CGraphicTextInstance@@QAEABV?$basic_string@DU?$char_traits@D@std@@V?$allocator@D@2@@std@@XZ:PROC ; CGraphicTextInstance::GetValueStringReference
EXTRN	?PixelPositionToCharacterPosition@CGraphicTextInstance@@QAEHH@Z:PROC ; CGraphicTextInstance::PixelPositionToCharacterPosition
EXTRN	?SetImageFileName@CGraphicMarkInstance@@QAEXPBD@Z:PROC ; CGraphicMarkInstance::SetImageFileName
EXTRN	?Render@CGraphicMarkInstance@@QAEXXZ:PROC	; CGraphicMarkInstance::Render
EXTRN	?SetDiffuseColor@CGraphicMarkInstance@@QAEXMMMM@Z:PROC ; CGraphicMarkInstance::SetDiffuseColor
EXTRN	?SetPosition@CGraphicMarkInstance@@QAEXMM@Z:PROC ; CGraphicMarkInstance::SetPosition
EXTRN	?SetIndex@CGraphicMarkInstance@@QAEXI@Z:PROC	; CGraphicMarkInstance::SetIndex
EXTRN	?SetScale@CGraphicMarkInstance@@QAEXM@Z:PROC	; CGraphicMarkInstance::SetScale
EXTRN	?Load@CGraphicMarkInstance@@QAEXXZ:PROC		; CGraphicMarkInstance::Load
EXTRN	?GetWidth@CGraphicMarkInstance@@QAEHXZ:PROC	; CGraphicMarkInstance::GetWidth
EXTRN	?GetHeight@CGraphicMarkInstance@@QAEHXZ:PROC	; CGraphicMarkInstance::GetHeight
EXTRN	?New@CGraphicMarkInstance@@SAPAV1@XZ:PROC	; CGraphicMarkInstance::New
EXTRN	?Delete@CGraphicMarkInstance@@SAXPAV1@@Z:PROC	; CGraphicMarkInstance::Delete
EXTRN	?Destroy@CGraphicExpandedImageInstance@@QAEXXZ:PROC ; CGraphicExpandedImageInstance::Destroy
EXTRN	?SetOrigin@CGraphicExpandedImageInstance@@QAEXMM@Z:PROC ; CGraphicExpandedImageInstance::SetOrigin
EXTRN	?SetRotation@CGraphicExpandedImageInstance@@QAEXM@Z:PROC ; CGraphicExpandedImageInstance::SetRotation
EXTRN	?SetScale@CGraphicExpandedImageInstance@@QAEXMM@Z:PROC ; CGraphicExpandedImageInstance::SetScale
EXTRN	?SetRenderingRect@CGraphicExpandedImageInstance@@QAEXMMMM@Z:PROC ; CGraphicExpandedImageInstance::SetRenderingRect
EXTRN	?SetRenderingMode@CGraphicExpandedImageInstance@@QAEXH@Z:PROC ; CGraphicExpandedImageInstance::SetRenderingMode
EXTRN	?New@CGraphicExpandedImageInstance@@SAPAV1@XZ:PROC ; CGraphicExpandedImageInstance::New
EXTRN	?Delete@CGraphicExpandedImageInstance@@SAXPAV1@@Z:PROC ; CGraphicExpandedImageInstance::Delete
EXTRN	?RenderLine2d@CScreen@@QAEXMMMMM@Z:PROC		; CScreen::RenderLine2d
EXTRN	?RenderBox2d@CScreen@@QAEXMMMMM@Z:PROC		; CScreen::RenderBox2d
EXTRN	?RenderBar2d@CScreen@@QAEXMMMMM@Z:PROC		; CScreen::RenderBar2d
EXTRN	?SetDiffuseColor@CScreen@@QAEXK@Z:PROC		; CScreen::SetDiffuseColor
EXTRN	?SetDiffuseColor@CScreen@@QAEXMMMM@Z:PROC	; CScreen::SetDiffuseColor
EXTRN	?GetMousePosition@CWindowManager@UI@@QAEXAAJ0@Z:PROC ; UI::CWindowManager::GetMousePosition
EXTRN	?BuildEmptyTuple@UI@@YAPAU_object@@XZ:PROC	; UI::BuildEmptyTuple
EXTRN	??_ECWindow@UI@@UAEPAXI@Z:PROC			; UI::CWindow::`vector deleting destructor'
EXTRN	??_ECBox@UI@@UAEPAXI@Z:PROC			; UI::CBox::`vector deleting destructor'
EXTRN	??_ECBar@UI@@UAEPAXI@Z:PROC			; UI::CBar::`vector deleting destructor'
EXTRN	??_ECLine@UI@@UAEPAXI@Z:PROC			; UI::CLine::`vector deleting destructor'
EXTRN	??_ECBar3D@UI@@UAEPAXI@Z:PROC			; UI::CBar3D::`vector deleting destructor'
EXTRN	??_ECTextLine@UI@@UAEPAXI@Z:PROC		; UI::CTextLine::`vector deleting destructor'
EXTRN	??_ECNumberLine@UI@@UAEPAXI@Z:PROC		; UI::CNumberLine::`vector deleting destructor'
EXTRN	??_ECImageBox@UI@@UAEPAXI@Z:PROC		; UI::CImageBox::`vector deleting destructor'
EXTRN	??_ECMarkBox@UI@@UAEPAXI@Z:PROC			; UI::CMarkBox::`vector deleting destructor'
EXTRN	??_ECExpandedImageBox@UI@@UAEPAXI@Z:PROC	; UI::CExpandedImageBox::`vector deleting destructor'
EXTRN	??_ECAniImageBox@UI@@UAEPAXI@Z:PROC		; UI::CAniImageBox::`vector deleting destructor'
EXTRN	??_ECButton@UI@@UAEPAXI@Z:PROC			; UI::CButton::`vector deleting destructor'
EXTRN	??_ECRadioButton@UI@@UAEPAXI@Z:PROC		; UI::CRadioButton::`vector deleting destructor'
EXTRN	??_ECToggleButton@UI@@UAEPAXI@Z:PROC		; UI::CToggleButton::`vector deleting destructor'
EXTRN	??_ECDragButton@UI@@UAEPAXI@Z:PROC		; UI::CDragButton::`vector deleting destructor'
EXTRN	@__security_check_cookie@4:PROC
EXTRN	__CxxThrowException@8:PROC
EXTRN	___CxxFrameHandler3:PROC
EXTRN	__ftoui3:PROC
EXTRN	_memcpy:PROC
EXTRN	_memmove:PROC
EXTRN	__Init_thread_epoch:DWORD
EXTRN	??_7type_info@@6B@:QWORD			; type_info::`vftable'
EXTRN	?ms_kPool@CGraphicExpandedImageInstance@@2V?$CDynamicPool@VCGraphicExpandedImageInstance@@@@A:BYTE ; CGraphicExpandedImageInstance::ms_kPool
EXTRN	___security_cookie:DWORD
EXTRN	__fltused:DWORD
EXTRN	__tls_array:DWORD
EXTRN	__tls_index:DWORD
;	COMDAT ?ms_singleton@?$CSingleton@VCResourceManager@@@@0PAVCResourceManager@@A
_BSS	SEGMENT
?ms_singleton@?$CSingleton@VCResourceManager@@@@0PAVCResourceManager@@A DD 01H DUP (?) ; CSingleton<CResourceManager>::ms_singleton
_BSS	ENDS
;	COMDAT ?ms_singleton@?$CSingleton@VCPythonGraphic@@@@0PAVCPythonGraphic@@A
_BSS	SEGMENT
?ms_singleton@?$CSingleton@VCPythonGraphic@@@@0PAVCPythonGraphic@@A DD 01H DUP (?) ; CSingleton<CPythonGraphic>::ms_singleton
_BSS	ENDS
;	COMDAT ?ms_singleton@?$CSingleton@VCWindowManager@UI@@@@0PAVCWindowManager@UI@@A
_BSS	SEGMENT
?ms_singleton@?$CSingleton@VCWindowManager@UI@@@@0PAVCWindowManager@UI@@A DD 01H DUP (?) ; CSingleton<UI::CWindowManager>::ms_singleton
_BSS	ENDS
;	COMDAT ?s_dwType@?1??Type@CWindow@UI@@SAKXZ@4KA
_BSS	SEGMENT
?s_dwType@?1??Type@CWindow@UI@@SAKXZ@4KA DD 01H DUP (?)	; `UI::CWindow::Type'::`2'::s_dwType
_BSS	ENDS
;	COMDAT ?$TSS0@?1??Type@CWindow@UI@@SAKXZ@4HA
_BSS	SEGMENT
?$TSS0@?1??Type@CWindow@UI@@SAKXZ@4HA DD 01H DUP (?)	; `UI::CWindow::Type'::`2'::$TSS0
_BSS	ENDS
;	COMDAT ?poFuncName_OnUpdate@?1??OnUpdate@CWindow@UI@@UAEXXZ@4PAU_object@@A
_BSS	SEGMENT
?poFuncName_OnUpdate@?1??OnUpdate@CWindow@UI@@UAEXXZ@4PAU_object@@A DD 01H DUP (?) ; `UI::CWindow::OnUpdate'::`2'::poFuncName_OnUpdate
_BSS	ENDS
;	COMDAT ?$TSS0@?1??OnUpdate@CWindow@UI@@UAEXXZ@4HA
_BSS	SEGMENT
?$TSS0@?1??OnUpdate@CWindow@UI@@UAEXXZ@4HA DD 01H DUP (?) ; `UI::CWindow::OnUpdate'::`2'::$TSS0
_BSS	ENDS
;	COMDAT ?s_dwType@?1??Type@CBar3D@UI@@SAKXZ@4KA
_BSS	SEGMENT
?s_dwType@?1??Type@CBar3D@UI@@SAKXZ@4KA DD 01H DUP (?)	; `UI::CBar3D::Type'::`2'::s_dwType
_BSS	ENDS
;	COMDAT ?$TSS0@?1??Type@CBar3D@UI@@SAKXZ@4HA
_BSS	SEGMENT
?$TSS0@?1??Type@CBar3D@UI@@SAKXZ@4HA DD 01H DUP (?)	; `UI::CBar3D::Type'::`2'::$TSS0
_BSS	ENDS
;	COMDAT ?s_dwType@?1??Type@CExpandedImageBox@UI@@SAKXZ@4KA
_BSS	SEGMENT
?s_dwType@?1??Type@CExpandedImageBox@UI@@SAKXZ@4KA DD 01H DUP (?) ; `UI::CExpandedImageBox::Type'::`2'::s_dwType
_BSS	ENDS
;	COMDAT ?$TSS0@?1??Type@CExpandedImageBox@UI@@SAKXZ@4HA
_BSS	SEGMENT
?$TSS0@?1??Type@CExpandedImageBox@UI@@SAKXZ@4HA DD 01H DUP (?) ; `UI::CExpandedImageBox::Type'::`2'::$TSS0
_BSS	ENDS
;	COMDAT ?s_dwType@?1??Type@CAniImageBox@UI@@SAKXZ@4KA
_BSS	SEGMENT
?s_dwType@?1??Type@CAniImageBox@UI@@SAKXZ@4KA DD 01H DUP (?) ; `UI::CAniImageBox::Type'::`2'::s_dwType
_BSS	ENDS
;	COMDAT ?$TSS0@?1??Type@CAniImageBox@UI@@SAKXZ@4HA
_BSS	SEGMENT
?$TSS0@?1??Type@CAniImageBox@UI@@SAKXZ@4HA DD 01H DUP (?) ; `UI::CAniImageBox::Type'::`2'::$TSS0
_BSS	ENDS
;	COMDAT ??_R1A@?0A@EA@CDragButton@UI@@8
rdata$r	SEGMENT
??_R1A@?0A@EA@CDragButton@UI@@8 DD FLAT:??_R0?AVCDragButton@UI@@@8 ; UI::CDragButton::`RTTI Base Class Descriptor at (0,-1,0,64)'
	DD	02H
	DD	00H
	DD	0ffffffffH
	DD	00H
	DD	040H
	DD	FLAT:??_R3CDragButton@UI@@8
rdata$r	ENDS
;	COMDAT ??_R2CDragButton@UI@@8
rdata$r	SEGMENT
??_R2CDragButton@UI@@8 DD FLAT:??_R1A@?0A@EA@CDragButton@UI@@8 ; UI::CDragButton::`RTTI Base Class Array'
	DD	FLAT:??_R1A@?0A@EA@CButton@UI@@8
	DD	FLAT:??_R1A@?0A@EA@CWindow@UI@@8
rdata$r	ENDS
;	COMDAT ??_R3CDragButton@UI@@8
rdata$r	SEGMENT
??_R3CDragButton@UI@@8 DD 00H				; UI::CDragButton::`RTTI Class Hierarchy Descriptor'
	DD	00H
	DD	03H
	DD	FLAT:??_R2CDragButton@UI@@8
rdata$r	ENDS
;	COMDAT ??_R0?AVCDragButton@UI@@@8
data$r	SEGMENT
??_R0?AVCDragButton@UI@@@8 DD FLAT:??_7type_info@@6B@	; UI::CDragButton `RTTI Type Descriptor'
	DD	00H
	DB	'.?AVCDragButton@UI@@', 00H
data$r	ENDS
;	COMDAT ??_R4CDragButton@UI@@6B@
rdata$r	SEGMENT
??_R4CDragButton@UI@@6B@ DD 00H				; UI::CDragButton::`RTTI Complete Object Locator'
	DD	00H
	DD	00H
	DD	FLAT:??_R0?AVCDragButton@UI@@@8
	DD	FLAT:??_R3CDragButton@UI@@8
rdata$r	ENDS
;	COMDAT ??_R1A@?0A@EA@CToggleButton@UI@@8
rdata$r	SEGMENT
??_R1A@?0A@EA@CToggleButton@UI@@8 DD FLAT:??_R0?AVCToggleButton@UI@@@8 ; UI::CToggleButton::`RTTI Base Class Descriptor at (0,-1,0,64)'
	DD	02H
	DD	00H
	DD	0ffffffffH
	DD	00H
	DD	040H
	DD	FLAT:??_R3CToggleButton@UI@@8
rdata$r	ENDS
;	COMDAT ??_R2CToggleButton@UI@@8
rdata$r	SEGMENT
??_R2CToggleButton@UI@@8 DD FLAT:??_R1A@?0A@EA@CToggleButton@UI@@8 ; UI::CToggleButton::`RTTI Base Class Array'
	DD	FLAT:??_R1A@?0A@EA@CButton@UI@@8
	DD	FLAT:??_R1A@?0A@EA@CWindow@UI@@8
rdata$r	ENDS
;	COMDAT ??_R3CToggleButton@UI@@8
rdata$r	SEGMENT
??_R3CToggleButton@UI@@8 DD 00H				; UI::CToggleButton::`RTTI Class Hierarchy Descriptor'
	DD	00H
	DD	03H
	DD	FLAT:??_R2CToggleButton@UI@@8
rdata$r	ENDS
;	COMDAT ??_R0?AVCToggleButton@UI@@@8
data$r	SEGMENT
??_R0?AVCToggleButton@UI@@@8 DD FLAT:??_7type_info@@6B@	; UI::CToggleButton `RTTI Type Descriptor'
	DD	00H
	DB	'.?AVCToggleButton@UI@@', 00H
data$r	ENDS
;	COMDAT ??_R4CToggleButton@UI@@6B@
rdata$r	SEGMENT
??_R4CToggleButton@UI@@6B@ DD 00H			; UI::CToggleButton::`RTTI Complete Object Locator'
	DD	00H
	DD	00H
	DD	FLAT:??_R0?AVCToggleButton@UI@@@8
	DD	FLAT:??_R3CToggleButton@UI@@8
rdata$r	ENDS
;	COMDAT ??_R1A@?0A@EA@CRadioButton@UI@@8
rdata$r	SEGMENT
??_R1A@?0A@EA@CRadioButton@UI@@8 DD FLAT:??_R0?AVCRadioButton@UI@@@8 ; UI::CRadioButton::`RTTI Base Class Descriptor at (0,-1,0,64)'
	DD	02H
	DD	00H
	DD	0ffffffffH
	DD	00H
	DD	040H
	DD	FLAT:??_R3CRadioButton@UI@@8
rdata$r	ENDS
;	COMDAT ??_R2CRadioButton@UI@@8
rdata$r	SEGMENT
??_R2CRadioButton@UI@@8 DD FLAT:??_R1A@?0A@EA@CRadioButton@UI@@8 ; UI::CRadioButton::`RTTI Base Class Array'
	DD	FLAT:??_R1A@?0A@EA@CButton@UI@@8
	DD	FLAT:??_R1A@?0A@EA@CWindow@UI@@8
rdata$r	ENDS
;	COMDAT ??_R3CRadioButton@UI@@8
rdata$r	SEGMENT
??_R3CRadioButton@UI@@8 DD 00H				; UI::CRadioButton::`RTTI Class Hierarchy Descriptor'
	DD	00H
	DD	03H
	DD	FLAT:??_R2CRadioButton@UI@@8
rdata$r	ENDS
;	COMDAT ??_R0?AVCRadioButton@UI@@@8
data$r	SEGMENT
??_R0?AVCRadioButton@UI@@@8 DD FLAT:??_7type_info@@6B@	; UI::CRadioButton `RTTI Type Descriptor'
	DD	00H
	DB	'.?AVCRadioButton@UI@@', 00H
data$r	ENDS
;	COMDAT ??_R4CRadioButton@UI@@6B@
rdata$r	SEGMENT
??_R4CRadioButton@UI@@6B@ DD 00H			; UI::CRadioButton::`RTTI Complete Object Locator'
	DD	00H
	DD	00H
	DD	FLAT:??_R0?AVCRadioButton@UI@@@8
	DD	FLAT:??_R3CRadioButton@UI@@8
rdata$r	ENDS
;	COMDAT ??_R1A@?0A@EA@CButton@UI@@8
rdata$r	SEGMENT
??_R1A@?0A@EA@CButton@UI@@8 DD FLAT:??_R0?AVCButton@UI@@@8 ; UI::CButton::`RTTI Base Class Descriptor at (0,-1,0,64)'
	DD	01H
	DD	00H
	DD	0ffffffffH
	DD	00H
	DD	040H
	DD	FLAT:??_R3CButton@UI@@8
rdata$r	ENDS
;	COMDAT ??_R2CButton@UI@@8
rdata$r	SEGMENT
??_R2CButton@UI@@8 DD FLAT:??_R1A@?0A@EA@CButton@UI@@8	; UI::CButton::`RTTI Base Class Array'
	DD	FLAT:??_R1A@?0A@EA@CWindow@UI@@8
rdata$r	ENDS
;	COMDAT ??_R3CButton@UI@@8
rdata$r	SEGMENT
??_R3CButton@UI@@8 DD 00H				; UI::CButton::`RTTI Class Hierarchy Descriptor'
	DD	00H
	DD	02H
	DD	FLAT:??_R2CButton@UI@@8
rdata$r	ENDS
;	COMDAT ??_R0?AVCButton@UI@@@8
data$r	SEGMENT
??_R0?AVCButton@UI@@@8 DD FLAT:??_7type_info@@6B@	; UI::CButton `RTTI Type Descriptor'
	DD	00H
	DB	'.?AVCButton@UI@@', 00H
data$r	ENDS
;	COMDAT ??_R4CButton@UI@@6B@
rdata$r	SEGMENT
??_R4CButton@UI@@6B@ DD 00H				; UI::CButton::`RTTI Complete Object Locator'
	DD	00H
	DD	00H
	DD	FLAT:??_R0?AVCButton@UI@@@8
	DD	FLAT:??_R3CButton@UI@@8
rdata$r	ENDS
;	COMDAT ??_R1A@?0A@EA@CAniImageBox@UI@@8
rdata$r	SEGMENT
??_R1A@?0A@EA@CAniImageBox@UI@@8 DD FLAT:??_R0?AVCAniImageBox@UI@@@8 ; UI::CAniImageBox::`RTTI Base Class Descriptor at (0,-1,0,64)'
	DD	01H
	DD	00H
	DD	0ffffffffH
	DD	00H
	DD	040H
	DD	FLAT:??_R3CAniImageBox@UI@@8
rdata$r	ENDS
;	COMDAT ??_R2CAniImageBox@UI@@8
rdata$r	SEGMENT
??_R2CAniImageBox@UI@@8 DD FLAT:??_R1A@?0A@EA@CAniImageBox@UI@@8 ; UI::CAniImageBox::`RTTI Base Class Array'
	DD	FLAT:??_R1A@?0A@EA@CWindow@UI@@8
rdata$r	ENDS
;	COMDAT ??_R3CAniImageBox@UI@@8
rdata$r	SEGMENT
??_R3CAniImageBox@UI@@8 DD 00H				; UI::CAniImageBox::`RTTI Class Hierarchy Descriptor'
	DD	00H
	DD	02H
	DD	FLAT:??_R2CAniImageBox@UI@@8
rdata$r	ENDS
;	COMDAT ??_R0?AVCAniImageBox@UI@@@8
data$r	SEGMENT
??_R0?AVCAniImageBox@UI@@@8 DD FLAT:??_7type_info@@6B@	; UI::CAniImageBox `RTTI Type Descriptor'
	DD	00H
	DB	'.?AVCAniImageBox@UI@@', 00H
data$r	ENDS
;	COMDAT ??_R4CAniImageBox@UI@@6B@
rdata$r	SEGMENT
??_R4CAniImageBox@UI@@6B@ DD 00H			; UI::CAniImageBox::`RTTI Complete Object Locator'
	DD	00H
	DD	00H
	DD	FLAT:??_R0?AVCAniImageBox@UI@@@8
	DD	FLAT:??_R3CAniImageBox@UI@@8
rdata$r	ENDS
;	COMDAT ??_R1A@?0A@EA@CExpandedImageBox@UI@@8
rdata$r	SEGMENT
??_R1A@?0A@EA@CExpandedImageBox@UI@@8 DD FLAT:??_R0?AVCExpandedImageBox@UI@@@8 ; UI::CExpandedImageBox::`RTTI Base Class Descriptor at (0,-1,0,64)'
	DD	02H
	DD	00H
	DD	0ffffffffH
	DD	00H
	DD	040H
	DD	FLAT:??_R3CExpandedImageBox@UI@@8
rdata$r	ENDS
;	COMDAT ??_R2CExpandedImageBox@UI@@8
rdata$r	SEGMENT
??_R2CExpandedImageBox@UI@@8 DD FLAT:??_R1A@?0A@EA@CExpandedImageBox@UI@@8 ; UI::CExpandedImageBox::`RTTI Base Class Array'
	DD	FLAT:??_R1A@?0A@EA@CImageBox@UI@@8
	DD	FLAT:??_R1A@?0A@EA@CWindow@UI@@8
rdata$r	ENDS
;	COMDAT ??_R3CExpandedImageBox@UI@@8
rdata$r	SEGMENT
??_R3CExpandedImageBox@UI@@8 DD 00H			; UI::CExpandedImageBox::`RTTI Class Hierarchy Descriptor'
	DD	00H
	DD	03H
	DD	FLAT:??_R2CExpandedImageBox@UI@@8
rdata$r	ENDS
;	COMDAT ??_R0?AVCExpandedImageBox@UI@@@8
data$r	SEGMENT
??_R0?AVCExpandedImageBox@UI@@@8 DD FLAT:??_7type_info@@6B@ ; UI::CExpandedImageBox `RTTI Type Descriptor'
	DD	00H
	DB	'.?AVCExpandedImageBox@UI@@', 00H
data$r	ENDS
;	COMDAT ??_R4CExpandedImageBox@UI@@6B@
rdata$r	SEGMENT
??_R4CExpandedImageBox@UI@@6B@ DD 00H			; UI::CExpandedImageBox::`RTTI Complete Object Locator'
	DD	00H
	DD	00H
	DD	FLAT:??_R0?AVCExpandedImageBox@UI@@@8
	DD	FLAT:??_R3CExpandedImageBox@UI@@8
rdata$r	ENDS
;	COMDAT ??_R1A@?0A@EA@CMarkBox@UI@@8
rdata$r	SEGMENT
??_R1A@?0A@EA@CMarkBox@UI@@8 DD FLAT:??_R0?AVCMarkBox@UI@@@8 ; UI::CMarkBox::`RTTI Base Class Descriptor at (0,-1,0,64)'
	DD	01H
	DD	00H
	DD	0ffffffffH
	DD	00H
	DD	040H
	DD	FLAT:??_R3CMarkBox@UI@@8
rdata$r	ENDS
;	COMDAT ??_R2CMarkBox@UI@@8
rdata$r	SEGMENT
??_R2CMarkBox@UI@@8 DD FLAT:??_R1A@?0A@EA@CMarkBox@UI@@8 ; UI::CMarkBox::`RTTI Base Class Array'
	DD	FLAT:??_R1A@?0A@EA@CWindow@UI@@8
rdata$r	ENDS
;	COMDAT ??_R3CMarkBox@UI@@8
rdata$r	SEGMENT
??_R3CMarkBox@UI@@8 DD 00H				; UI::CMarkBox::`RTTI Class Hierarchy Descriptor'
	DD	00H
	DD	02H
	DD	FLAT:??_R2CMarkBox@UI@@8
rdata$r	ENDS
;	COMDAT ??_R0?AVCMarkBox@UI@@@8
data$r	SEGMENT
??_R0?AVCMarkBox@UI@@@8 DD FLAT:??_7type_info@@6B@	; UI::CMarkBox `RTTI Type Descriptor'
	DD	00H
	DB	'.?AVCMarkBox@UI@@', 00H
data$r	ENDS
;	COMDAT ??_R4CMarkBox@UI@@6B@
rdata$r	SEGMENT
??_R4CMarkBox@UI@@6B@ DD 00H				; UI::CMarkBox::`RTTI Complete Object Locator'
	DD	00H
	DD	00H
	DD	FLAT:??_R0?AVCMarkBox@UI@@@8
	DD	FLAT:??_R3CMarkBox@UI@@8
rdata$r	ENDS
;	COMDAT ??_R1A@?0A@EA@CImageBox@UI@@8
rdata$r	SEGMENT
??_R1A@?0A@EA@CImageBox@UI@@8 DD FLAT:??_R0?AVCImageBox@UI@@@8 ; UI::CImageBox::`RTTI Base Class Descriptor at (0,-1,0,64)'
	DD	01H
	DD	00H
	DD	0ffffffffH
	DD	00H
	DD	040H
	DD	FLAT:??_R3CImageBox@UI@@8
rdata$r	ENDS
;	COMDAT ??_R2CImageBox@UI@@8
rdata$r	SEGMENT
??_R2CImageBox@UI@@8 DD FLAT:??_R1A@?0A@EA@CImageBox@UI@@8 ; UI::CImageBox::`RTTI Base Class Array'
	DD	FLAT:??_R1A@?0A@EA@CWindow@UI@@8
rdata$r	ENDS
;	COMDAT ??_R3CImageBox@UI@@8
rdata$r	SEGMENT
??_R3CImageBox@UI@@8 DD 00H				; UI::CImageBox::`RTTI Class Hierarchy Descriptor'
	DD	00H
	DD	02H
	DD	FLAT:??_R2CImageBox@UI@@8
rdata$r	ENDS
;	COMDAT ??_R0?AVCImageBox@UI@@@8
data$r	SEGMENT
??_R0?AVCImageBox@UI@@@8 DD FLAT:??_7type_info@@6B@	; UI::CImageBox `RTTI Type Descriptor'
	DD	00H
	DB	'.?AVCImageBox@UI@@', 00H
data$r	ENDS
;	COMDAT ??_R4CImageBox@UI@@6B@
rdata$r	SEGMENT
??_R4CImageBox@UI@@6B@ DD 00H				; UI::CImageBox::`RTTI Complete Object Locator'
	DD	00H
	DD	00H
	DD	FLAT:??_R0?AVCImageBox@UI@@@8
	DD	FLAT:??_R3CImageBox@UI@@8
rdata$r	ENDS
;	COMDAT ??_R1A@?0A@EA@CNumberLine@UI@@8
rdata$r	SEGMENT
??_R1A@?0A@EA@CNumberLine@UI@@8 DD FLAT:??_R0?AVCNumberLine@UI@@@8 ; UI::CNumberLine::`RTTI Base Class Descriptor at (0,-1,0,64)'
	DD	01H
	DD	00H
	DD	0ffffffffH
	DD	00H
	DD	040H
	DD	FLAT:??_R3CNumberLine@UI@@8
rdata$r	ENDS
;	COMDAT ??_R2CNumberLine@UI@@8
rdata$r	SEGMENT
??_R2CNumberLine@UI@@8 DD FLAT:??_R1A@?0A@EA@CNumberLine@UI@@8 ; UI::CNumberLine::`RTTI Base Class Array'
	DD	FLAT:??_R1A@?0A@EA@CWindow@UI@@8
rdata$r	ENDS
;	COMDAT ??_R3CNumberLine@UI@@8
rdata$r	SEGMENT
??_R3CNumberLine@UI@@8 DD 00H				; UI::CNumberLine::`RTTI Class Hierarchy Descriptor'
	DD	00H
	DD	02H
	DD	FLAT:??_R2CNumberLine@UI@@8
rdata$r	ENDS
;	COMDAT ??_R0?AVCNumberLine@UI@@@8
data$r	SEGMENT
??_R0?AVCNumberLine@UI@@@8 DD FLAT:??_7type_info@@6B@	; UI::CNumberLine `RTTI Type Descriptor'
	DD	00H
	DB	'.?AVCNumberLine@UI@@', 00H
data$r	ENDS
;	COMDAT ??_R4CNumberLine@UI@@6B@
rdata$r	SEGMENT
??_R4CNumberLine@UI@@6B@ DD 00H				; UI::CNumberLine::`RTTI Complete Object Locator'
	DD	00H
	DD	00H
	DD	FLAT:??_R0?AVCNumberLine@UI@@@8
	DD	FLAT:??_R3CNumberLine@UI@@8
rdata$r	ENDS
;	COMDAT ??_R1A@?0A@EA@CTextLine@UI@@8
rdata$r	SEGMENT
??_R1A@?0A@EA@CTextLine@UI@@8 DD FLAT:??_R0?AVCTextLine@UI@@@8 ; UI::CTextLine::`RTTI Base Class Descriptor at (0,-1,0,64)'
	DD	01H
	DD	00H
	DD	0ffffffffH
	DD	00H
	DD	040H
	DD	FLAT:??_R3CTextLine@UI@@8
rdata$r	ENDS
;	COMDAT ??_R2CTextLine@UI@@8
rdata$r	SEGMENT
??_R2CTextLine@UI@@8 DD FLAT:??_R1A@?0A@EA@CTextLine@UI@@8 ; UI::CTextLine::`RTTI Base Class Array'
	DD	FLAT:??_R1A@?0A@EA@CWindow@UI@@8
rdata$r	ENDS
;	COMDAT ??_R3CTextLine@UI@@8
rdata$r	SEGMENT
??_R3CTextLine@UI@@8 DD 00H				; UI::CTextLine::`RTTI Class Hierarchy Descriptor'
	DD	00H
	DD	02H
	DD	FLAT:??_R2CTextLine@UI@@8
rdata$r	ENDS
;	COMDAT ??_R0?AVCTextLine@UI@@@8
data$r	SEGMENT
??_R0?AVCTextLine@UI@@@8 DD FLAT:??_7type_info@@6B@	; UI::CTextLine `RTTI Type Descriptor'
	DD	00H
	DB	'.?AVCTextLine@UI@@', 00H
data$r	ENDS
;	COMDAT ??_R4CTextLine@UI@@6B@
rdata$r	SEGMENT
??_R4CTextLine@UI@@6B@ DD 00H				; UI::CTextLine::`RTTI Complete Object Locator'
	DD	00H
	DD	00H
	DD	FLAT:??_R0?AVCTextLine@UI@@@8
	DD	FLAT:??_R3CTextLine@UI@@8
rdata$r	ENDS
;	COMDAT ??_R1A@?0A@EA@CBar3D@UI@@8
rdata$r	SEGMENT
??_R1A@?0A@EA@CBar3D@UI@@8 DD FLAT:??_R0?AVCBar3D@UI@@@8 ; UI::CBar3D::`RTTI Base Class Descriptor at (0,-1,0,64)'
	DD	01H
	DD	00H
	DD	0ffffffffH
	DD	00H
	DD	040H
	DD	FLAT:??_R3CBar3D@UI@@8
rdata$r	ENDS
;	COMDAT ??_R2CBar3D@UI@@8
rdata$r	SEGMENT
??_R2CBar3D@UI@@8 DD FLAT:??_R1A@?0A@EA@CBar3D@UI@@8	; UI::CBar3D::`RTTI Base Class Array'
	DD	FLAT:??_R1A@?0A@EA@CWindow@UI@@8
rdata$r	ENDS
;	COMDAT ??_R3CBar3D@UI@@8
rdata$r	SEGMENT
??_R3CBar3D@UI@@8 DD 00H				; UI::CBar3D::`RTTI Class Hierarchy Descriptor'
	DD	00H
	DD	02H
	DD	FLAT:??_R2CBar3D@UI@@8
rdata$r	ENDS
;	COMDAT ??_R0?AVCBar3D@UI@@@8
data$r	SEGMENT
??_R0?AVCBar3D@UI@@@8 DD FLAT:??_7type_info@@6B@	; UI::CBar3D `RTTI Type Descriptor'
	DD	00H
	DB	'.?AVCBar3D@UI@@', 00H
data$r	ENDS
;	COMDAT ??_R4CBar3D@UI@@6B@
rdata$r	SEGMENT
??_R4CBar3D@UI@@6B@ DD 00H				; UI::CBar3D::`RTTI Complete Object Locator'
	DD	00H
	DD	00H
	DD	FLAT:??_R0?AVCBar3D@UI@@@8
	DD	FLAT:??_R3CBar3D@UI@@8
rdata$r	ENDS
;	COMDAT ??_R1A@?0A@EA@CLine@UI@@8
rdata$r	SEGMENT
??_R1A@?0A@EA@CLine@UI@@8 DD FLAT:??_R0?AVCLine@UI@@@8	; UI::CLine::`RTTI Base Class Descriptor at (0,-1,0,64)'
	DD	01H
	DD	00H
	DD	0ffffffffH
	DD	00H
	DD	040H
	DD	FLAT:??_R3CLine@UI@@8
rdata$r	ENDS
;	COMDAT ??_R2CLine@UI@@8
rdata$r	SEGMENT
??_R2CLine@UI@@8 DD FLAT:??_R1A@?0A@EA@CLine@UI@@8	; UI::CLine::`RTTI Base Class Array'
	DD	FLAT:??_R1A@?0A@EA@CWindow@UI@@8
rdata$r	ENDS
;	COMDAT ??_R3CLine@UI@@8
rdata$r	SEGMENT
??_R3CLine@UI@@8 DD 00H					; UI::CLine::`RTTI Class Hierarchy Descriptor'
	DD	00H
	DD	02H
	DD	FLAT:??_R2CLine@UI@@8
rdata$r	ENDS
;	COMDAT ??_R0?AVCLine@UI@@@8
data$r	SEGMENT
??_R0?AVCLine@UI@@@8 DD FLAT:??_7type_info@@6B@		; UI::CLine `RTTI Type Descriptor'
	DD	00H
	DB	'.?AVCLine@UI@@', 00H
data$r	ENDS
;	COMDAT ??_R4CLine@UI@@6B@
rdata$r	SEGMENT
??_R4CLine@UI@@6B@ DD 00H				; UI::CLine::`RTTI Complete Object Locator'
	DD	00H
	DD	00H
	DD	FLAT:??_R0?AVCLine@UI@@@8
	DD	FLAT:??_R3CLine@UI@@8
rdata$r	ENDS
;	COMDAT ??_R1A@?0A@EA@CBar@UI@@8
rdata$r	SEGMENT
??_R1A@?0A@EA@CBar@UI@@8 DD FLAT:??_R0?AVCBar@UI@@@8	; UI::CBar::`RTTI Base Class Descriptor at (0,-1,0,64)'
	DD	01H
	DD	00H
	DD	0ffffffffH
	DD	00H
	DD	040H
	DD	FLAT:??_R3CBar@UI@@8
rdata$r	ENDS
;	COMDAT ??_R2CBar@UI@@8
rdata$r	SEGMENT
??_R2CBar@UI@@8 DD FLAT:??_R1A@?0A@EA@CBar@UI@@8	; UI::CBar::`RTTI Base Class Array'
	DD	FLAT:??_R1A@?0A@EA@CWindow@UI@@8
rdata$r	ENDS
;	COMDAT ??_R3CBar@UI@@8
rdata$r	SEGMENT
??_R3CBar@UI@@8 DD 00H					; UI::CBar::`RTTI Class Hierarchy Descriptor'
	DD	00H
	DD	02H
	DD	FLAT:??_R2CBar@UI@@8
rdata$r	ENDS
;	COMDAT ??_R0?AVCBar@UI@@@8
data$r	SEGMENT
??_R0?AVCBar@UI@@@8 DD FLAT:??_7type_info@@6B@		; UI::CBar `RTTI Type Descriptor'
	DD	00H
	DB	'.?AVCBar@UI@@', 00H
data$r	ENDS
;	COMDAT ??_R4CBar@UI@@6B@
rdata$r	SEGMENT
??_R4CBar@UI@@6B@ DD 00H				; UI::CBar::`RTTI Complete Object Locator'
	DD	00H
	DD	00H
	DD	FLAT:??_R0?AVCBar@UI@@@8
	DD	FLAT:??_R3CBar@UI@@8
rdata$r	ENDS
;	COMDAT ??_R1A@?0A@EA@CBox@UI@@8
rdata$r	SEGMENT
??_R1A@?0A@EA@CBox@UI@@8 DD FLAT:??_R0?AVCBox@UI@@@8	; UI::CBox::`RTTI Base Class Descriptor at (0,-1,0,64)'
	DD	01H
	DD	00H
	DD	0ffffffffH
	DD	00H
	DD	040H
	DD	FLAT:??_R3CBox@UI@@8
rdata$r	ENDS
;	COMDAT ??_R2CBox@UI@@8
rdata$r	SEGMENT
??_R2CBox@UI@@8 DD FLAT:??_R1A@?0A@EA@CBox@UI@@8	; UI::CBox::`RTTI Base Class Array'
	DD	FLAT:??_R1A@?0A@EA@CWindow@UI@@8
rdata$r	ENDS
;	COMDAT ??_R3CBox@UI@@8
rdata$r	SEGMENT
??_R3CBox@UI@@8 DD 00H					; UI::CBox::`RTTI Class Hierarchy Descriptor'
	DD	00H
	DD	02H
	DD	FLAT:??_R2CBox@UI@@8
rdata$r	ENDS
;	COMDAT ??_R0?AVCBox@UI@@@8
data$r	SEGMENT
??_R0?AVCBox@UI@@@8 DD FLAT:??_7type_info@@6B@		; UI::CBox `RTTI Type Descriptor'
	DD	00H
	DB	'.?AVCBox@UI@@', 00H
data$r	ENDS
;	COMDAT ??_R4CBox@UI@@6B@
rdata$r	SEGMENT
??_R4CBox@UI@@6B@ DD 00H				; UI::CBox::`RTTI Complete Object Locator'
	DD	00H
	DD	00H
	DD	FLAT:??_R0?AVCBox@UI@@@8
	DD	FLAT:??_R3CBox@UI@@8
rdata$r	ENDS
;	COMDAT ??_R1A@?0A@EA@CWindow@UI@@8
rdata$r	SEGMENT
??_R1A@?0A@EA@CWindow@UI@@8 DD FLAT:??_R0?AVCWindow@UI@@@8 ; UI::CWindow::`RTTI Base Class Descriptor at (0,-1,0,64)'
	DD	00H
	DD	00H
	DD	0ffffffffH
	DD	00H
	DD	040H
	DD	FLAT:??_R3CWindow@UI@@8
rdata$r	ENDS
;	COMDAT ??_R2CWindow@UI@@8
rdata$r	SEGMENT
??_R2CWindow@UI@@8 DD FLAT:??_R1A@?0A@EA@CWindow@UI@@8	; UI::CWindow::`RTTI Base Class Array'
rdata$r	ENDS
;	COMDAT ??_R3CWindow@UI@@8
rdata$r	SEGMENT
??_R3CWindow@UI@@8 DD 00H				; UI::CWindow::`RTTI Class Hierarchy Descriptor'
	DD	00H
	DD	01H
	DD	FLAT:??_R2CWindow@UI@@8
rdata$r	ENDS
;	COMDAT ??_R0?AVCWindow@UI@@@8
data$r	SEGMENT
??_R0?AVCWindow@UI@@@8 DD FLAT:??_7type_info@@6B@	; UI::CWindow `RTTI Type Descriptor'
	DD	00H
	DB	'.?AVCWindow@UI@@', 00H
data$r	ENDS
;	COMDAT ??_R4CWindow@UI@@6B@
rdata$r	SEGMENT
??_R4CWindow@UI@@6B@ DD 00H				; UI::CWindow::`RTTI Complete Object Locator'
	DD	00H
	DD	00H
	DD	FLAT:??_R0?AVCWindow@UI@@@8
	DD	FLAT:??_R3CWindow@UI@@8
rdata$r	ENDS
;	COMDAT ??_C@_0O@NKNMEGII@list?5too?5long@
CONST	SEGMENT
??_C@_0O@NKNMEGII@list?5too?5long@ DB 'list too long', 00H ; `string'
CONST	ENDS
;	COMDAT ??_C@_06GJPOLLJG@OnMove@
CONST	SEGMENT
??_C@_06GJPOLLJG@OnMove@ DB 'OnMove', 00H		; `string'
CONST	ENDS
;	COMDAT ??_C@_0N@NBGLGPDJ@OnToggleDown@
CONST	SEGMENT
??_C@_0N@NBGLGPDJ@OnToggleDown@ DB 'OnToggleDown', 00H	; `string'
CONST	ENDS
;	COMDAT ??_C@_0L@HGABHAMN@OnToggleUp@
CONST	SEGMENT
??_C@_0L@HGABHAMN@OnToggleUp@ DB 'OnToggleUp', 00H	; `string'
CONST	ENDS
;	COMDAT ??_C@_0M@HCIAMHJN@HideToolTip@
CONST	SEGMENT
??_C@_0M@HCIAMHJN@HideToolTip@ DB 'HideToolTip', 00H	; `string'
CONST	ENDS
;	COMDAT ??_C@_0M@LEFCMAKP@ShowToolTip@
CONST	SEGMENT
??_C@_0M@LEFCMAKP@ShowToolTip@ DB 'ShowToolTip', 00H	; `string'
CONST	ENDS
;	COMDAT ??_C@_09FJAHACEO@DownEvent@
CONST	SEGMENT
??_C@_09FJAHACEO@DownEvent@ DB 'DownEvent', 00H		; `string'
CONST	ENDS
;	COMDAT ??_C@_09MFFHPOPB@CallEvent@
CONST	SEGMENT
??_C@_09MFFHPOPB@CallEvent@ DB 'CallEvent', 00H		; `string'
CONST	ENDS
;	COMDAT ??_C@_0L@LBHHAGOH@OnEndFrame@
CONST	SEGMENT
??_C@_0L@LBHHAGOH@OnEndFrame@ DB 'OnEndFrame', 00H	; `string'
CONST	ENDS
;	COMDAT ??_C@_0N@LBBHECOO@CAniImageBox@
CONST	SEGMENT
??_C@_0N@LBBHECOO@CAniImageBox@ DB 'CAniImageBox', 00H	; `string'
CONST	ENDS
;	COMDAT ??_C@_0BC@DJHPPMGJ@CExpandedImageBox@
CONST	SEGMENT
??_C@_0BC@DJHPPMGJ@CExpandedImageBox@ DB 'CExpandedImageBox', 00H ; `string'
CONST	ENDS
;	COMDAT ??_C@_04DLFHDFGL@?4sub@
CONST	SEGMENT
??_C@_04DLFHDFGL@?4sub@ DB '.sub', 00H			; `string'
CONST	ENDS
;	COMDAT ??_C@_05EHJFGOBE@p?4sub@
CONST	SEGMENT
??_C@_05EHJFGOBE@p?4sub@ DB 'p.sub', 00H		; `string'
CONST	ENDS
;	COMDAT ??_C@_05FJEGFMDH@g?4sub@
CONST	SEGMENT
??_C@_05FJEGFMDH@g?4sub@ DB 'g.sub', 00H		; `string'
CONST	ENDS
;	COMDAT ??_C@_05PINNHPFB@m?4sub@
CONST	SEGMENT
??_C@_05PINNHPFB@m?4sub@ DB 'm.sub', 00H		; `string'
CONST	ENDS
;	COMDAT ??_C@_08FPHNCABK@plus?4sub@
CONST	SEGMENT
??_C@_08FPHNCABK@plus?4sub@ DB 'plus.sub', 00H		; `string'
CONST	ENDS
;	COMDAT ??_C@_0M@MHAKIBOD@percent?4sub@
CONST	SEGMENT
??_C@_0M@MHAKIBOD@percent?4sub@ DB 'percent.sub', 00H	; `string'
CONST	ENDS
;	COMDAT ??_C@_09JMLAABIP@slash?4sub@
CONST	SEGMENT
??_C@_09JMLAABIP@slash?4sub@ DB 'slash.sub', 00H	; `string'
CONST	ENDS
;	COMDAT ??_C@_0BB@POBNNLPJ@questionmark?4sub@
CONST	SEGMENT
??_C@_0BB@POBNNLPJ@questionmark?4sub@ DB 'questionmark.sub', 00H ; `string'
CONST	ENDS
;	COMDAT ??_C@_09GPLBLMNE@colon?4sub@
CONST	SEGMENT
??_C@_09GPLBLMNE@colon?4sub@ DB 'colon.sub', 00H	; `string'
CONST	ENDS
;	COMDAT ??_C@_0BO@GPCBPBEE@d?3?1ymir?5work?1ui?1game?1taskbar?1@
CONST	SEGMENT
??_C@_0BO@GPCBPBEE@d?3?1ymir?5work?1ui?1game?1taskbar?1@ DB 'd:/ymir work'
	DB	'/ui/game/taskbar/', 00H			; `string'
CONST	ENDS
;	COMDAT ??_C@_04FAHLGLIA@?4fnt@
CONST	SEGMENT
??_C@_04FAHLGLIA@?4fnt@ DB '.fnt', 00H			; `string'
CONST	ENDS
;	COMDAT ??_C@_06ICLMADCA@CBar3D@
CONST	SEGMENT
??_C@_06ICLMADCA@CBar3D@ DB 'CBar3D', 00H		; `string'
CONST	ENDS
;	COMDAT ??_C@_0P@KEJGBDKK@OnPressExitKey@
CONST	SEGMENT
??_C@_0P@KEJGBDKK@OnPressExitKey@ DB 'OnPressExitKey', 00H ; `string'
CONST	ENDS
;	COMDAT ??_C@_0BB@HCFLIMGH@OnPressEscapeKey@
CONST	SEGMENT
??_C@_0BB@HCFLIMGH@OnPressEscapeKey@ DB 'OnPressEscapeKey', 00H ; `string'
CONST	ENDS
;	COMDAT ??_C@_07NGNLLPEG@OnKeyUp@
CONST	SEGMENT
??_C@_07NGNLLPEG@OnKeyUp@ DB 'OnKeyUp', 00H		; `string'
CONST	ENDS
;	COMDAT ??_C@_09CMHFBEC@OnKeyDown@
CONST	SEGMENT
??_C@_09CMHFBEC@OnKeyDown@ DB 'OnKeyDown', 00H		; `string'
CONST	ENDS
;	COMDAT ??_C@_0BF@DEOILJPB@OnIMECloseReadingWnd@
CONST	SEGMENT
??_C@_0BF@DEOILJPB@OnIMECloseReadingWnd@ DB 'OnIMECloseReadingWnd', 00H ; `string'
CONST	ENDS
;	COMDAT ??_C@_0BE@KDCLEDDC@OnIMEOpenReadingWnd@
CONST	SEGMENT
??_C@_0BE@KDCLEDDC@OnIMEOpenReadingWnd@ DB 'OnIMEOpenReadingWnd', 00H ; `string'
CONST	ENDS
;	COMDAT ??_C@_0BI@LOIKIPJ@OnIMECloseCandidateList@
CONST	SEGMENT
??_C@_0BI@LOIKIPJ@OnIMECloseCandidateList@ DB 'OnIMECloseCandidateList', 00H ; `string'
CONST	ENDS
;	COMDAT ??_C@_0BH@HEDPBKEK@OnIMEOpenCandidateList@
CONST	SEGMENT
??_C@_0BH@HEDPBKEK@OnIMEOpenCandidateList@ DB 'OnIMEOpenCandidateList', 00H ; `string'
CONST	ENDS
;	COMDAT ??_C@_0BE@EHKLBB@OnIMEChangeCodePage@
CONST	SEGMENT
??_C@_0BE@EHKLBB@OnIMEChangeCodePage@ DB 'OnIMEChangeCodePage', 00H ; `string'
CONST	ENDS
;	COMDAT ??_C@_0N@BMPDGPBH@OnIMEKeyDown@
CONST	SEGMENT
??_C@_0N@BMPDGPBH@OnIMEKeyDown@ DB 'OnIMEKeyDown', 00H	; `string'
CONST	ENDS
;	COMDAT ??_C@_03LIHNMIHG@?$CIi?$CJ@
CONST	SEGMENT
??_C@_03LIHNMIHG@?$CIi?$CJ@ DB '(i)', 00H		; `string'
CONST	ENDS
;	COMDAT ??_C@_0M@PILLCCFN@OnIMEReturn@
CONST	SEGMENT
??_C@_0M@PILLCCFN@OnIMEReturn@ DB 'OnIMEReturn', 00H	; `string'
CONST	ENDS
;	COMDAT ??_C@_08HFELFLOI@OnIMETab@
CONST	SEGMENT
??_C@_08HFELFLOI@OnIMETab@ DB 'OnIMETab', 00H		; `string'
CONST	ENDS
;	COMDAT ??_C@_0BD@GNNJJHBO@OnMouseWheelScroll@
CONST	SEGMENT
??_C@_0BD@GNNJJHBO@OnMouseWheelScroll@ DB 'OnMouseWheelScroll', 00H ; `string'
CONST	ENDS
;	COMDAT ??_C@_03KJMMOONA@?$CIs?$CJ@
CONST	SEGMENT
??_C@_03KJMMOONA@?$CIs?$CJ@ DB '(s)', 00H		; `string'
CONST	ENDS
;	COMDAT ??_C@_04FANAOELO@DOWN@
CONST	SEGMENT
??_C@_04FANAOELO@DOWN@ DB 'DOWN', 00H			; `string'
CONST	ENDS
;	COMDAT ??_C@_02NAHCJHOC@UP@
CONST	SEGMENT
??_C@_02NAHCJHOC@UP@ DB 'UP', 00H			; `string'
CONST	ENDS
;	COMDAT ??_C@_0BG@IGAJCEHG@OnMouseMiddleButtonUp@
CONST	SEGMENT
??_C@_0BG@IGAJCEHG@OnMouseMiddleButtonUp@ DB 'OnMouseMiddleButtonUp', 00H ; `string'
CONST	ENDS
;	COMDAT ??_C@_0BI@LKFMHNKP@OnMouseMiddleButtonDown@
CONST	SEGMENT
??_C@_0BI@LKFMHNKP@OnMouseMiddleButtonDown@ DB 'OnMouseMiddleButtonDown', 00H ; `string'
CONST	ENDS
;	COMDAT ??_C@_0BO@NPKMHGOP@OnMouseRightButtonDoubleClick@
CONST	SEGMENT
??_C@_0BO@NPKMHGOP@OnMouseRightButtonDoubleClick@ DB 'OnMouseRightButtonD'
	DB	'oubleClick', 00H				; `string'
CONST	ENDS
;	COMDAT ??_C@_0BF@FDIGHPIH@OnMouseRightButtonUp@
CONST	SEGMENT
??_C@_0BF@FDIGHPIH@OnMouseRightButtonUp@ DB 'OnMouseRightButtonUp', 00H ; `string'
CONST	ENDS
;	COMDAT ??_C@_0BH@ELECPAKA@OnMouseRightButtonDown@
CONST	SEGMENT
??_C@_0BH@ELECPAKA@OnMouseRightButtonDown@ DB 'OnMouseRightButtonDown', 00H ; `string'
CONST	ENDS
;	COMDAT ??_C@_0BN@KEKGIMMP@OnMouseLeftButtonDoubleClick@
CONST	SEGMENT
??_C@_0BN@KEKGIMMP@OnMouseLeftButtonDoubleClick@ DB 'OnMouseLeftButtonDou'
	DB	'bleClick', 00H				; `string'
CONST	ENDS
;	COMDAT ??_C@_0BE@MJALGMGL@OnMouseLeftButtonUp@
CONST	SEGMENT
??_C@_0BE@MJALGMGL@OnMouseLeftButtonUp@ DB 'OnMouseLeftButtonUp', 00H ; `string'
CONST	ENDS
;	COMDAT ??_C@_0BG@DNDHJHBD@OnMouseLeftButtonDown@
CONST	SEGMENT
??_C@_0BG@DNDHJHBD@OnMouseLeftButtonDown@ DB 'OnMouseLeftButtonDown', 00H ; `string'
CONST	ENDS
;	COMDAT ??_C@_0M@DGOFHNMI@OnIMEUpdate@
CONST	SEGMENT
??_C@_0M@DGOFHNMI@OnIMEUpdate@ DB 'OnIMEUpdate', 00H	; `string'
CONST	ENDS
;	COMDAT ??_C@_05LOOKECNH@OnTop@
CONST	SEGMENT
??_C@_05LOOKECNH@OnTop@ DB 'OnTop', 00H			; `string'
CONST	ENDS
;	COMDAT ??_C@_06OCNPCIEO@OnDrop@
CONST	SEGMENT
??_C@_06OCNPCIEO@OnDrop@ DB 'OnDrop', 00H		; `string'
CONST	ENDS
;	COMDAT ??_C@_0P@KLLBNOAI@OnMouseOverOut@
CONST	SEGMENT
??_C@_0P@KLLBNOAI@OnMouseOverOut@ DB 'OnMouseOverOut', 00H ; `string'
CONST	ENDS
;	COMDAT ??_C@_0O@JKDAFDCC@OnMouseOverIn@
CONST	SEGMENT
??_C@_0O@JKDAFDCC@OnMouseOverIn@ DB 'OnMouseOverIn', 00H ; `string'
CONST	ENDS
;	COMDAT ??_C@_0M@CEGPCFGM@OnKillFocus@
CONST	SEGMENT
??_C@_0M@CEGPCFGM@OnKillFocus@ DB 'OnKillFocus', 00H	; `string'
CONST	ENDS
;	COMDAT ??_C@_0L@GIMNGBCD@OnSetFocus@
CONST	SEGMENT
??_C@_0L@GIMNGBCD@OnSetFocus@ DB 'OnSetFocus', 00H	; `string'
CONST	ENDS
;	COMDAT ??_C@_0N@PFKNBOJP@OnMoveWindow@
CONST	SEGMENT
??_C@_0N@PFKNBOJP@OnMoveWindow@ DB 'OnMoveWindow', 00H	; `string'
CONST	ENDS
;	COMDAT ??_C@_0M@ECAEGPAI@OnMouseDrag@
CONST	SEGMENT
??_C@_0M@ECAEGPAI@OnMouseDrag@ DB 'OnMouseDrag', 00H	; `string'
CONST	ENDS
;	COMDAT ??_C@_04INACLLOK@?$CIii?$CJ@
CONST	SEGMENT
??_C@_04INACLLOK@?$CIii?$CJ@ DB '(ii)', 00H		; `string'
CONST	ENDS
;	COMDAT ??_C@_0DA@NEIGMJK@?5CWindow?3?3SetTop?5?9?5Failed?5to?5fi@
CONST	SEGMENT
??_C@_0DA@NEIGMJK@?5CWindow?3?3SetTop?5?9?5Failed?5to?5fi@ DB ' CWindow::'
	DB	'SetTop - Failed to find child window', 0aH, 00H ; `string'
CONST	ENDS
;	COMDAT ??_C@_08PAJMEILO@OnRender@
CONST	SEGMENT
??_C@_08PAJMEILO@OnRender@ DB 'OnRender', 00H		; `string'
CONST	ENDS
;	COMDAT ??_C@_08DCJEAFK@OnUpdate@
CONST	SEGMENT
??_C@_08DCJEAFK@OnUpdate@ DB 'OnUpdate', 00H		; `string'
CONST	ENDS
;	COMDAT ??_C@_07EFPFKGGH@CWindow@
CONST	SEGMENT
??_C@_07EFPFKGGH@CWindow@ DB 'CWindow', 00H		; `string'
CONST	ENDS
;	COMDAT ??_7CDragButton@UI@@6B@
CONST	SEGMENT
??_7CDragButton@UI@@6B@ DD FLAT:??_R4CDragButton@UI@@6B@ ; UI::CDragButton::`vftable'
	DD	FLAT:??_ECDragButton@UI@@UAEPAXI@Z
	DD	FLAT:?OnRender@CButton@UI@@MAEXXZ
	DD	FLAT:?OnUpdate@CButton@UI@@MAEXXZ
	DD	FLAT:?OnChangePosition@CDragButton@UI@@MAEXXZ
	DD	FLAT:?OnSetFocus@CWindow@UI@@UAEXXZ
	DD	FLAT:?OnKillFocus@CWindow@UI@@UAEXXZ
	DD	FLAT:?OnMouseDrag@CWindow@UI@@UAEXJJ@Z
	DD	FLAT:?OnMouseOverIn@CDragButton@UI@@MAEXXZ
	DD	FLAT:?OnMouseOverOut@CDragButton@UI@@MAEXXZ
	DD	FLAT:?OnMouseOver@CWindow@UI@@UAEXXZ
	DD	FLAT:?OnDrop@CWindow@UI@@UAEXXZ
	DD	FLAT:?OnTop@CWindow@UI@@UAEXXZ
	DD	FLAT:?OnIMEUpdate@CWindow@UI@@UAEXXZ
	DD	FLAT:?OnMoveWindow@CWindow@UI@@UAEXJJ@Z
	DD	FLAT:?OnIMETabEvent@CWindow@UI@@UAEHXZ
	DD	FLAT:?OnIMEReturnEvent@CWindow@UI@@UAEHXZ
	DD	FLAT:?OnIMEKeyDownEvent@CWindow@UI@@UAEHH@Z
	DD	FLAT:?OnIMEChangeCodePage@CWindow@UI@@UAEHXZ
	DD	FLAT:?OnIMEOpenCandidateListEvent@CWindow@UI@@UAEHXZ
	DD	FLAT:?OnIMECloseCandidateListEvent@CWindow@UI@@UAEHXZ
	DD	FLAT:?OnIMEOpenReadingWndEvent@CWindow@UI@@UAEHXZ
	DD	FLAT:?OnIMECloseReadingWndEvent@CWindow@UI@@UAEHXZ
	DD	FLAT:?OnMouseLeftButtonDown@CButton@UI@@MAEHXZ
	DD	FLAT:?OnMouseLeftButtonUp@CButton@UI@@MAEHXZ
	DD	FLAT:?OnMouseLeftButtonDoubleClick@CButton@UI@@MAEHXZ
	DD	FLAT:?OnMouseRightButtonDown@CWindow@UI@@UAEHXZ
	DD	FLAT:?OnMouseRightButtonUp@CWindow@UI@@UAEHXZ
	DD	FLAT:?OnMouseRightButtonDoubleClick@CWindow@UI@@UAEHXZ
	DD	FLAT:?OnMouseMiddleButtonDown@CWindow@UI@@UAEHXZ
	DD	FLAT:?OnMouseMiddleButtonUp@CWindow@UI@@UAEHXZ
	DD	FLAT:?OnMouseWheelScroll@CWindow@UI@@UAEHF@Z
	DD	FLAT:?SetScrollable@CWindow@UI@@UAEXXZ
	DD	FLAT:?OnKeyDown@CWindow@UI@@UAEHH@Z
	DD	FLAT:?OnKeyUp@CWindow@UI@@UAEHH@Z
	DD	FLAT:?OnPressEscapeKey@CWindow@UI@@UAEHXZ
	DD	FLAT:?OnPressExitKey@CWindow@UI@@UAEHXZ
	DD	FLAT:?SetColor@CWindow@UI@@UAEXK@Z
	DD	FLAT:?OnIsType@CWindow@UI@@UAEHK@Z
	DD	FLAT:?IsWindow@CWindow@UI@@UAEHXZ
CONST	ENDS
;	COMDAT ??_7CToggleButton@UI@@6B@
CONST	SEGMENT
??_7CToggleButton@UI@@6B@ DD FLAT:??_R4CToggleButton@UI@@6B@ ; UI::CToggleButton::`vftable'
	DD	FLAT:??_ECToggleButton@UI@@UAEPAXI@Z
	DD	FLAT:?OnRender@CButton@UI@@MAEXXZ
	DD	FLAT:?OnUpdate@CButton@UI@@MAEXXZ
	DD	FLAT:?OnChangePosition@CButton@UI@@MAEXXZ
	DD	FLAT:?OnSetFocus@CWindow@UI@@UAEXXZ
	DD	FLAT:?OnKillFocus@CWindow@UI@@UAEXXZ
	DD	FLAT:?OnMouseDrag@CWindow@UI@@UAEXJJ@Z
	DD	FLAT:?OnMouseOverIn@CToggleButton@UI@@MAEXXZ
	DD	FLAT:?OnMouseOverOut@CToggleButton@UI@@MAEXXZ
	DD	FLAT:?OnMouseOver@CWindow@UI@@UAEXXZ
	DD	FLAT:?OnDrop@CWindow@UI@@UAEXXZ
	DD	FLAT:?OnTop@CWindow@UI@@UAEXXZ
	DD	FLAT:?OnIMEUpdate@CWindow@UI@@UAEXXZ
	DD	FLAT:?OnMoveWindow@CWindow@UI@@UAEXJJ@Z
	DD	FLAT:?OnIMETabEvent@CWindow@UI@@UAEHXZ
	DD	FLAT:?OnIMEReturnEvent@CWindow@UI@@UAEHXZ
	DD	FLAT:?OnIMEKeyDownEvent@CWindow@UI@@UAEHH@Z
	DD	FLAT:?OnIMEChangeCodePage@CWindow@UI@@UAEHXZ
	DD	FLAT:?OnIMEOpenCandidateListEvent@CWindow@UI@@UAEHXZ
	DD	FLAT:?OnIMECloseCandidateListEvent@CWindow@UI@@UAEHXZ
	DD	FLAT:?OnIMEOpenReadingWndEvent@CWindow@UI@@UAEHXZ
	DD	FLAT:?OnIMECloseReadingWndEvent@CWindow@UI@@UAEHXZ
	DD	FLAT:?OnMouseLeftButtonDown@CToggleButton@UI@@MAEHXZ
	DD	FLAT:?OnMouseLeftButtonUp@CToggleButton@UI@@MAEHXZ
	DD	FLAT:?OnMouseLeftButtonDoubleClick@CButton@UI@@MAEHXZ
	DD	FLAT:?OnMouseRightButtonDown@CWindow@UI@@UAEHXZ
	DD	FLAT:?OnMouseRightButtonUp@CWindow@UI@@UAEHXZ
	DD	FLAT:?OnMouseRightButtonDoubleClick@CWindow@UI@@UAEHXZ
	DD	FLAT:?OnMouseMiddleButtonDown@CWindow@UI@@UAEHXZ
	DD	FLAT:?OnMouseMiddleButtonUp@CWindow@UI@@UAEHXZ
	DD	FLAT:?OnMouseWheelScroll@CWindow@UI@@UAEHF@Z
	DD	FLAT:?SetScrollable@CWindow@UI@@UAEXXZ
	DD	FLAT:?OnKeyDown@CWindow@UI@@UAEHH@Z
	DD	FLAT:?OnKeyUp@CWindow@UI@@UAEHH@Z
	DD	FLAT:?OnPressEscapeKey@CWindow@UI@@UAEHXZ
	DD	FLAT:?OnPressExitKey@CWindow@UI@@UAEHXZ
	DD	FLAT:?SetColor@CWindow@UI@@UAEXK@Z
	DD	FLAT:?OnIsType@CWindow@UI@@UAEHK@Z
	DD	FLAT:?IsWindow@CWindow@UI@@UAEHXZ
CONST	ENDS
;	COMDAT ??_7CRadioButton@UI@@6B@
CONST	SEGMENT
??_7CRadioButton@UI@@6B@ DD FLAT:??_R4CRadioButton@UI@@6B@ ; UI::CRadioButton::`vftable'
	DD	FLAT:??_ECRadioButton@UI@@UAEPAXI@Z
	DD	FLAT:?OnRender@CButton@UI@@MAEXXZ
	DD	FLAT:?OnUpdate@CButton@UI@@MAEXXZ
	DD	FLAT:?OnChangePosition@CButton@UI@@MAEXXZ
	DD	FLAT:?OnSetFocus@CWindow@UI@@UAEXXZ
	DD	FLAT:?OnKillFocus@CWindow@UI@@UAEXXZ
	DD	FLAT:?OnMouseDrag@CWindow@UI@@UAEXJJ@Z
	DD	FLAT:?OnMouseOverIn@CRadioButton@UI@@MAEXXZ
	DD	FLAT:?OnMouseOverOut@CRadioButton@UI@@MAEXXZ
	DD	FLAT:?OnMouseOver@CWindow@UI@@UAEXXZ
	DD	FLAT:?OnDrop@CWindow@UI@@UAEXXZ
	DD	FLAT:?OnTop@CWindow@UI@@UAEXXZ
	DD	FLAT:?OnIMEUpdate@CWindow@UI@@UAEXXZ
	DD	FLAT:?OnMoveWindow@CWindow@UI@@UAEXJJ@Z
	DD	FLAT:?OnIMETabEvent@CWindow@UI@@UAEHXZ
	DD	FLAT:?OnIMEReturnEvent@CWindow@UI@@UAEHXZ
	DD	FLAT:?OnIMEKeyDownEvent@CWindow@UI@@UAEHH@Z
	DD	FLAT:?OnIMEChangeCodePage@CWindow@UI@@UAEHXZ
	DD	FLAT:?OnIMEOpenCandidateListEvent@CWindow@UI@@UAEHXZ
	DD	FLAT:?OnIMECloseCandidateListEvent@CWindow@UI@@UAEHXZ
	DD	FLAT:?OnIMEOpenReadingWndEvent@CWindow@UI@@UAEHXZ
	DD	FLAT:?OnIMECloseReadingWndEvent@CWindow@UI@@UAEHXZ
	DD	FLAT:?OnMouseLeftButtonDown@CRadioButton@UI@@MAEHXZ
	DD	FLAT:?OnMouseLeftButtonUp@CRadioButton@UI@@MAEHXZ
	DD	FLAT:?OnMouseLeftButtonDoubleClick@CButton@UI@@MAEHXZ
	DD	FLAT:?OnMouseRightButtonDown@CWindow@UI@@UAEHXZ
	DD	FLAT:?OnMouseRightButtonUp@CWindow@UI@@UAEHXZ
	DD	FLAT:?OnMouseRightButtonDoubleClick@CWindow@UI@@UAEHXZ
	DD	FLAT:?OnMouseMiddleButtonDown@CWindow@UI@@UAEHXZ
	DD	FLAT:?OnMouseMiddleButtonUp@CWindow@UI@@UAEHXZ
	DD	FLAT:?OnMouseWheelScroll@CWindow@UI@@UAEHF@Z
	DD	FLAT:?SetScrollable@CWindow@UI@@UAEXXZ
	DD	FLAT:?OnKeyDown@CWindow@UI@@UAEHH@Z
	DD	FLAT:?OnKeyUp@CWindow@UI@@UAEHH@Z
	DD	FLAT:?OnPressEscapeKey@CWindow@UI@@UAEHXZ
	DD	FLAT:?OnPressExitKey@CWindow@UI@@UAEHXZ
	DD	FLAT:?SetColor@CWindow@UI@@UAEXK@Z
	DD	FLAT:?OnIsType@CWindow@UI@@UAEHK@Z
	DD	FLAT:?IsWindow@CWindow@UI@@UAEHXZ
CONST	ENDS
;	COMDAT ??_7CButton@UI@@6B@
CONST	SEGMENT
??_7CButton@UI@@6B@ DD FLAT:??_R4CButton@UI@@6B@	; UI::CButton::`vftable'
	DD	FLAT:??_ECButton@UI@@UAEPAXI@Z
	DD	FLAT:?OnRender@CButton@UI@@MAEXXZ
	DD	FLAT:?OnUpdate@CButton@UI@@MAEXXZ
	DD	FLAT:?OnChangePosition@CButton@UI@@MAEXXZ
	DD	FLAT:?OnSetFocus@CWindow@UI@@UAEXXZ
	DD	FLAT:?OnKillFocus@CWindow@UI@@UAEXXZ
	DD	FLAT:?OnMouseDrag@CWindow@UI@@UAEXJJ@Z
	DD	FLAT:?OnMouseOverIn@CButton@UI@@MAEXXZ
	DD	FLAT:?OnMouseOverOut@CButton@UI@@MAEXXZ
	DD	FLAT:?OnMouseOver@CWindow@UI@@UAEXXZ
	DD	FLAT:?OnDrop@CWindow@UI@@UAEXXZ
	DD	FLAT:?OnTop@CWindow@UI@@UAEXXZ
	DD	FLAT:?OnIMEUpdate@CWindow@UI@@UAEXXZ
	DD	FLAT:?OnMoveWindow@CWindow@UI@@UAEXJJ@Z
	DD	FLAT:?OnIMETabEvent@CWindow@UI@@UAEHXZ
	DD	FLAT:?OnIMEReturnEvent@CWindow@UI@@UAEHXZ
	DD	FLAT:?OnIMEKeyDownEvent@CWindow@UI@@UAEHH@Z
	DD	FLAT:?OnIMEChangeCodePage@CWindow@UI@@UAEHXZ
	DD	FLAT:?OnIMEOpenCandidateListEvent@CWindow@UI@@UAEHXZ
	DD	FLAT:?OnIMECloseCandidateListEvent@CWindow@UI@@UAEHXZ
	DD	FLAT:?OnIMEOpenReadingWndEvent@CWindow@UI@@UAEHXZ
	DD	FLAT:?OnIMECloseReadingWndEvent@CWindow@UI@@UAEHXZ
	DD	FLAT:?OnMouseLeftButtonDown@CButton@UI@@MAEHXZ
	DD	FLAT:?OnMouseLeftButtonUp@CButton@UI@@MAEHXZ
	DD	FLAT:?OnMouseLeftButtonDoubleClick@CButton@UI@@MAEHXZ
	DD	FLAT:?OnMouseRightButtonDown@CWindow@UI@@UAEHXZ
	DD	FLAT:?OnMouseRightButtonUp@CWindow@UI@@UAEHXZ
	DD	FLAT:?OnMouseRightButtonDoubleClick@CWindow@UI@@UAEHXZ
	DD	FLAT:?OnMouseMiddleButtonDown@CWindow@UI@@UAEHXZ
	DD	FLAT:?OnMouseMiddleButtonUp@CWindow@UI@@UAEHXZ
	DD	FLAT:?OnMouseWheelScroll@CWindow@UI@@UAEHF@Z
	DD	FLAT:?SetScrollable@CWindow@UI@@UAEXXZ
	DD	FLAT:?OnKeyDown@CWindow@UI@@UAEHH@Z
	DD	FLAT:?OnKeyUp@CWindow@UI@@UAEHH@Z
	DD	FLAT:?OnPressEscapeKey@CWindow@UI@@UAEHXZ
	DD	FLAT:?OnPressExitKey@CWindow@UI@@UAEHXZ
	DD	FLAT:?SetColor@CWindow@UI@@UAEXK@Z
	DD	FLAT:?OnIsType@CWindow@UI@@UAEHK@Z
	DD	FLAT:?IsWindow@CWindow@UI@@UAEHXZ
CONST	ENDS
;	COMDAT ??_7CAniImageBox@UI@@6B@
CONST	SEGMENT
??_7CAniImageBox@UI@@6B@ DD FLAT:??_R4CAniImageBox@UI@@6B@ ; UI::CAniImageBox::`vftable'
	DD	FLAT:??_ECAniImageBox@UI@@UAEPAXI@Z
	DD	FLAT:?OnRender@CAniImageBox@UI@@MAEXXZ
	DD	FLAT:?OnUpdate@CAniImageBox@UI@@MAEXXZ
	DD	FLAT:?OnChangePosition@CAniImageBox@UI@@MAEXXZ
	DD	FLAT:?OnSetFocus@CWindow@UI@@UAEXXZ
	DD	FLAT:?OnKillFocus@CWindow@UI@@UAEXXZ
	DD	FLAT:?OnMouseDrag@CWindow@UI@@UAEXJJ@Z
	DD	FLAT:?OnMouseOverIn@CWindow@UI@@UAEXXZ
	DD	FLAT:?OnMouseOverOut@CWindow@UI@@UAEXXZ
	DD	FLAT:?OnMouseOver@CWindow@UI@@UAEXXZ
	DD	FLAT:?OnDrop@CWindow@UI@@UAEXXZ
	DD	FLAT:?OnTop@CWindow@UI@@UAEXXZ
	DD	FLAT:?OnIMEUpdate@CWindow@UI@@UAEXXZ
	DD	FLAT:?OnMoveWindow@CWindow@UI@@UAEXJJ@Z
	DD	FLAT:?OnIMETabEvent@CWindow@UI@@UAEHXZ
	DD	FLAT:?OnIMEReturnEvent@CWindow@UI@@UAEHXZ
	DD	FLAT:?OnIMEKeyDownEvent@CWindow@UI@@UAEHH@Z
	DD	FLAT:?OnIMEChangeCodePage@CWindow@UI@@UAEHXZ
	DD	FLAT:?OnIMEOpenCandidateListEvent@CWindow@UI@@UAEHXZ
	DD	FLAT:?OnIMECloseCandidateListEvent@CWindow@UI@@UAEHXZ
	DD	FLAT:?OnIMEOpenReadingWndEvent@CWindow@UI@@UAEHXZ
	DD	FLAT:?OnIMECloseReadingWndEvent@CWindow@UI@@UAEHXZ
	DD	FLAT:?OnMouseLeftButtonDown@CWindow@UI@@UAEHXZ
	DD	FLAT:?OnMouseLeftButtonUp@CWindow@UI@@UAEHXZ
	DD	FLAT:?OnMouseLeftButtonDoubleClick@CWindow@UI@@UAEHXZ
	DD	FLAT:?OnMouseRightButtonDown@CWindow@UI@@UAEHXZ
	DD	FLAT:?OnMouseRightButtonUp@CWindow@UI@@UAEHXZ
	DD	FLAT:?OnMouseRightButtonDoubleClick@CWindow@UI@@UAEHXZ
	DD	FLAT:?OnMouseMiddleButtonDown@CWindow@UI@@UAEHXZ
	DD	FLAT:?OnMouseMiddleButtonUp@CWindow@UI@@UAEHXZ
	DD	FLAT:?OnMouseWheelScroll@CWindow@UI@@UAEHF@Z
	DD	FLAT:?SetScrollable@CWindow@UI@@UAEXXZ
	DD	FLAT:?OnKeyDown@CWindow@UI@@UAEHH@Z
	DD	FLAT:?OnKeyUp@CWindow@UI@@UAEHH@Z
	DD	FLAT:?OnPressEscapeKey@CWindow@UI@@UAEHXZ
	DD	FLAT:?OnPressExitKey@CWindow@UI@@UAEHXZ
	DD	FLAT:?SetColor@CWindow@UI@@UAEXK@Z
	DD	FLAT:?OnIsType@CAniImageBox@UI@@MAEHK@Z
	DD	FLAT:?IsWindow@CWindow@UI@@UAEHXZ
	DD	FLAT:?OnEndFrame@CAniImageBox@UI@@MAEXXZ
CONST	ENDS
;	COMDAT ??_7CExpandedImageBox@UI@@6B@
CONST	SEGMENT
??_7CExpandedImageBox@UI@@6B@ DD FLAT:??_R4CExpandedImageBox@UI@@6B@ ; UI::CExpandedImageBox::`vftable'
	DD	FLAT:??_ECExpandedImageBox@UI@@UAEPAXI@Z
	DD	FLAT:?OnRender@CExpandedImageBox@UI@@MAEXXZ
	DD	FLAT:?OnUpdate@CExpandedImageBox@UI@@MAEXXZ
	DD	FLAT:?OnChangePosition@CImageBox@UI@@MAEXXZ
	DD	FLAT:?OnSetFocus@CWindow@UI@@UAEXXZ
	DD	FLAT:?OnKillFocus@CWindow@UI@@UAEXXZ
	DD	FLAT:?OnMouseDrag@CWindow@UI@@UAEXJJ@Z
	DD	FLAT:?OnMouseOverIn@CWindow@UI@@UAEXXZ
	DD	FLAT:?OnMouseOverOut@CWindow@UI@@UAEXXZ
	DD	FLAT:?OnMouseOver@CWindow@UI@@UAEXXZ
	DD	FLAT:?OnDrop@CWindow@UI@@UAEXXZ
	DD	FLAT:?OnTop@CWindow@UI@@UAEXXZ
	DD	FLAT:?OnIMEUpdate@CWindow@UI@@UAEXXZ
	DD	FLAT:?OnMoveWindow@CWindow@UI@@UAEXJJ@Z
	DD	FLAT:?OnIMETabEvent@CWindow@UI@@UAEHXZ
	DD	FLAT:?OnIMEReturnEvent@CWindow@UI@@UAEHXZ
	DD	FLAT:?OnIMEKeyDownEvent@CWindow@UI@@UAEHH@Z
	DD	FLAT:?OnIMEChangeCodePage@CWindow@UI@@UAEHXZ
	DD	FLAT:?OnIMEOpenCandidateListEvent@CWindow@UI@@UAEHXZ
	DD	FLAT:?OnIMECloseCandidateListEvent@CWindow@UI@@UAEHXZ
	DD	FLAT:?OnIMEOpenReadingWndEvent@CWindow@UI@@UAEHXZ
	DD	FLAT:?OnIMECloseReadingWndEvent@CWindow@UI@@UAEHXZ
	DD	FLAT:?OnMouseLeftButtonDown@CWindow@UI@@UAEHXZ
	DD	FLAT:?OnMouseLeftButtonUp@CWindow@UI@@UAEHXZ
	DD	FLAT:?OnMouseLeftButtonDoubleClick@CWindow@UI@@UAEHXZ
	DD	FLAT:?OnMouseRightButtonDown@CWindow@UI@@UAEHXZ
	DD	FLAT:?OnMouseRightButtonUp@CWindow@UI@@UAEHXZ
	DD	FLAT:?OnMouseRightButtonDoubleClick@CWindow@UI@@UAEHXZ
	DD	FLAT:?OnMouseMiddleButtonDown@CWindow@UI@@UAEHXZ
	DD	FLAT:?OnMouseMiddleButtonUp@CWindow@UI@@UAEHXZ
	DD	FLAT:?OnMouseWheelScroll@CWindow@UI@@UAEHF@Z
	DD	FLAT:?SetScrollable@CWindow@UI@@UAEXXZ
	DD	FLAT:?OnKeyDown@CWindow@UI@@UAEHH@Z
	DD	FLAT:?OnKeyUp@CWindow@UI@@UAEHH@Z
	DD	FLAT:?OnPressEscapeKey@CWindow@UI@@UAEHXZ
	DD	FLAT:?OnPressExitKey@CWindow@UI@@UAEHXZ
	DD	FLAT:?SetColor@CWindow@UI@@UAEXK@Z
	DD	FLAT:?OnIsType@CExpandedImageBox@UI@@MAEHK@Z
	DD	FLAT:?IsWindow@CWindow@UI@@UAEHXZ
	DD	FLAT:?OnCreateInstance@CExpandedImageBox@UI@@MAEXXZ
	DD	FLAT:?OnDestroyInstance@CExpandedImageBox@UI@@MAEXXZ
CONST	ENDS
;	COMDAT ??_7CMarkBox@UI@@6B@
CONST	SEGMENT
??_7CMarkBox@UI@@6B@ DD FLAT:??_R4CMarkBox@UI@@6B@	; UI::CMarkBox::`vftable'
	DD	FLAT:??_ECMarkBox@UI@@UAEPAXI@Z
	DD	FLAT:?OnRender@CMarkBox@UI@@MAEXXZ
	DD	FLAT:?OnUpdate@CMarkBox@UI@@MAEXXZ
	DD	FLAT:?OnChangePosition@CMarkBox@UI@@MAEXXZ
	DD	FLAT:?OnSetFocus@CWindow@UI@@UAEXXZ
	DD	FLAT:?OnKillFocus@CWindow@UI@@UAEXXZ
	DD	FLAT:?OnMouseDrag@CWindow@UI@@UAEXJJ@Z
	DD	FLAT:?OnMouseOverIn@CWindow@UI@@UAEXXZ
	DD	FLAT:?OnMouseOverOut@CWindow@UI@@UAEXXZ
	DD	FLAT:?OnMouseOver@CWindow@UI@@UAEXXZ
	DD	FLAT:?OnDrop@CWindow@UI@@UAEXXZ
	DD	FLAT:?OnTop@CWindow@UI@@UAEXXZ
	DD	FLAT:?OnIMEUpdate@CWindow@UI@@UAEXXZ
	DD	FLAT:?OnMoveWindow@CWindow@UI@@UAEXJJ@Z
	DD	FLAT:?OnIMETabEvent@CWindow@UI@@UAEHXZ
	DD	FLAT:?OnIMEReturnEvent@CWindow@UI@@UAEHXZ
	DD	FLAT:?OnIMEKeyDownEvent@CWindow@UI@@UAEHH@Z
	DD	FLAT:?OnIMEChangeCodePage@CWindow@UI@@UAEHXZ
	DD	FLAT:?OnIMEOpenCandidateListEvent@CWindow@UI@@UAEHXZ
	DD	FLAT:?OnIMECloseCandidateListEvent@CWindow@UI@@UAEHXZ
	DD	FLAT:?OnIMEOpenReadingWndEvent@CWindow@UI@@UAEHXZ
	DD	FLAT:?OnIMECloseReadingWndEvent@CWindow@UI@@UAEHXZ
	DD	FLAT:?OnMouseLeftButtonDown@CWindow@UI@@UAEHXZ
	DD	FLAT:?OnMouseLeftButtonUp@CWindow@UI@@UAEHXZ
	DD	FLAT:?OnMouseLeftButtonDoubleClick@CWindow@UI@@UAEHXZ
	DD	FLAT:?OnMouseRightButtonDown@CWindow@UI@@UAEHXZ
	DD	FLAT:?OnMouseRightButtonUp@CWindow@UI@@UAEHXZ
	DD	FLAT:?OnMouseRightButtonDoubleClick@CWindow@UI@@UAEHXZ
	DD	FLAT:?OnMouseMiddleButtonDown@CWindow@UI@@UAEHXZ
	DD	FLAT:?OnMouseMiddleButtonUp@CWindow@UI@@UAEHXZ
	DD	FLAT:?OnMouseWheelScroll@CWindow@UI@@UAEHF@Z
	DD	FLAT:?SetScrollable@CWindow@UI@@UAEXXZ
	DD	FLAT:?OnKeyDown@CWindow@UI@@UAEHH@Z
	DD	FLAT:?OnKeyUp@CWindow@UI@@UAEHH@Z
	DD	FLAT:?OnPressEscapeKey@CWindow@UI@@UAEHXZ
	DD	FLAT:?OnPressExitKey@CWindow@UI@@UAEHXZ
	DD	FLAT:?SetColor@CWindow@UI@@UAEXK@Z
	DD	FLAT:?OnIsType@CWindow@UI@@UAEHK@Z
	DD	FLAT:?IsWindow@CWindow@UI@@UAEHXZ
	DD	FLAT:?OnCreateInstance@CMarkBox@UI@@MAEXXZ
	DD	FLAT:?OnDestroyInstance@CMarkBox@UI@@MAEXXZ
CONST	ENDS
;	COMDAT ??_7CImageBox@UI@@6B@
CONST	SEGMENT
??_7CImageBox@UI@@6B@ DD FLAT:??_R4CImageBox@UI@@6B@	; UI::CImageBox::`vftable'
	DD	FLAT:??_ECImageBox@UI@@UAEPAXI@Z
	DD	FLAT:?OnRender@CImageBox@UI@@MAEXXZ
	DD	FLAT:?OnUpdate@CImageBox@UI@@MAEXXZ
	DD	FLAT:?OnChangePosition@CImageBox@UI@@MAEXXZ
	DD	FLAT:?OnSetFocus@CWindow@UI@@UAEXXZ
	DD	FLAT:?OnKillFocus@CWindow@UI@@UAEXXZ
	DD	FLAT:?OnMouseDrag@CWindow@UI@@UAEXJJ@Z
	DD	FLAT:?OnMouseOverIn@CWindow@UI@@UAEXXZ
	DD	FLAT:?OnMouseOverOut@CWindow@UI@@UAEXXZ
	DD	FLAT:?OnMouseOver@CWindow@UI@@UAEXXZ
	DD	FLAT:?OnDrop@CWindow@UI@@UAEXXZ
	DD	FLAT:?OnTop@CWindow@UI@@UAEXXZ
	DD	FLAT:?OnIMEUpdate@CWindow@UI@@UAEXXZ
	DD	FLAT:?OnMoveWindow@CWindow@UI@@UAEXJJ@Z
	DD	FLAT:?OnIMETabEvent@CWindow@UI@@UAEHXZ
	DD	FLAT:?OnIMEReturnEvent@CWindow@UI@@UAEHXZ
	DD	FLAT:?OnIMEKeyDownEvent@CWindow@UI@@UAEHH@Z
	DD	FLAT:?OnIMEChangeCodePage@CWindow@UI@@UAEHXZ
	DD	FLAT:?OnIMEOpenCandidateListEvent@CWindow@UI@@UAEHXZ
	DD	FLAT:?OnIMECloseCandidateListEvent@CWindow@UI@@UAEHXZ
	DD	FLAT:?OnIMEOpenReadingWndEvent@CWindow@UI@@UAEHXZ
	DD	FLAT:?OnIMECloseReadingWndEvent@CWindow@UI@@UAEHXZ
	DD	FLAT:?OnMouseLeftButtonDown@CWindow@UI@@UAEHXZ
	DD	FLAT:?OnMouseLeftButtonUp@CWindow@UI@@UAEHXZ
	DD	FLAT:?OnMouseLeftButtonDoubleClick@CWindow@UI@@UAEHXZ
	DD	FLAT:?OnMouseRightButtonDown@CWindow@UI@@UAEHXZ
	DD	FLAT:?OnMouseRightButtonUp@CWindow@UI@@UAEHXZ
	DD	FLAT:?OnMouseRightButtonDoubleClick@CWindow@UI@@UAEHXZ
	DD	FLAT:?OnMouseMiddleButtonDown@CWindow@UI@@UAEHXZ
	DD	FLAT:?OnMouseMiddleButtonUp@CWindow@UI@@UAEHXZ
	DD	FLAT:?OnMouseWheelScroll@CWindow@UI@@UAEHF@Z
	DD	FLAT:?SetScrollable@CWindow@UI@@UAEXXZ
	DD	FLAT:?OnKeyDown@CWindow@UI@@UAEHH@Z
	DD	FLAT:?OnKeyUp@CWindow@UI@@UAEHH@Z
	DD	FLAT:?OnPressEscapeKey@CWindow@UI@@UAEHXZ
	DD	FLAT:?OnPressExitKey@CWindow@UI@@UAEHXZ
	DD	FLAT:?SetColor@CWindow@UI@@UAEXK@Z
	DD	FLAT:?OnIsType@CWindow@UI@@UAEHK@Z
	DD	FLAT:?IsWindow@CWindow@UI@@UAEHXZ
	DD	FLAT:?OnCreateInstance@CImageBox@UI@@MAEXXZ
	DD	FLAT:?OnDestroyInstance@CImageBox@UI@@MAEXXZ
CONST	ENDS
;	COMDAT ??_7CNumberLine@UI@@6B@
CONST	SEGMENT
??_7CNumberLine@UI@@6B@ DD FLAT:??_R4CNumberLine@UI@@6B@ ; UI::CNumberLine::`vftable'
	DD	FLAT:??_ECNumberLine@UI@@UAEPAXI@Z
	DD	FLAT:?OnRender@CNumberLine@UI@@MAEXXZ
	DD	FLAT:?OnUpdate@CWindow@UI@@UAEXXZ
	DD	FLAT:?OnChangePosition@CNumberLine@UI@@MAEXXZ
	DD	FLAT:?OnSetFocus@CWindow@UI@@UAEXXZ
	DD	FLAT:?OnKillFocus@CWindow@UI@@UAEXXZ
	DD	FLAT:?OnMouseDrag@CWindow@UI@@UAEXJJ@Z
	DD	FLAT:?OnMouseOverIn@CWindow@UI@@UAEXXZ
	DD	FLAT:?OnMouseOverOut@CWindow@UI@@UAEXXZ
	DD	FLAT:?OnMouseOver@CWindow@UI@@UAEXXZ
	DD	FLAT:?OnDrop@CWindow@UI@@UAEXXZ
	DD	FLAT:?OnTop@CWindow@UI@@UAEXXZ
	DD	FLAT:?OnIMEUpdate@CWindow@UI@@UAEXXZ
	DD	FLAT:?OnMoveWindow@CWindow@UI@@UAEXJJ@Z
	DD	FLAT:?OnIMETabEvent@CWindow@UI@@UAEHXZ
	DD	FLAT:?OnIMEReturnEvent@CWindow@UI@@UAEHXZ
	DD	FLAT:?OnIMEKeyDownEvent@CWindow@UI@@UAEHH@Z
	DD	FLAT:?OnIMEChangeCodePage@CWindow@UI@@UAEHXZ
	DD	FLAT:?OnIMEOpenCandidateListEvent@CWindow@UI@@UAEHXZ
	DD	FLAT:?OnIMECloseCandidateListEvent@CWindow@UI@@UAEHXZ
	DD	FLAT:?OnIMEOpenReadingWndEvent@CWindow@UI@@UAEHXZ
	DD	FLAT:?OnIMECloseReadingWndEvent@CWindow@UI@@UAEHXZ
	DD	FLAT:?OnMouseLeftButtonDown@CWindow@UI@@UAEHXZ
	DD	FLAT:?OnMouseLeftButtonUp@CWindow@UI@@UAEHXZ
	DD	FLAT:?OnMouseLeftButtonDoubleClick@CWindow@UI@@UAEHXZ
	DD	FLAT:?OnMouseRightButtonDown@CWindow@UI@@UAEHXZ
	DD	FLAT:?OnMouseRightButtonUp@CWindow@UI@@UAEHXZ
	DD	FLAT:?OnMouseRightButtonDoubleClick@CWindow@UI@@UAEHXZ
	DD	FLAT:?OnMouseMiddleButtonDown@CWindow@UI@@UAEHXZ
	DD	FLAT:?OnMouseMiddleButtonUp@CWindow@UI@@UAEHXZ
	DD	FLAT:?OnMouseWheelScroll@CWindow@UI@@UAEHF@Z
	DD	FLAT:?SetScrollable@CWindow@UI@@UAEXXZ
	DD	FLAT:?OnKeyDown@CWindow@UI@@UAEHH@Z
	DD	FLAT:?OnKeyUp@CWindow@UI@@UAEHH@Z
	DD	FLAT:?OnPressEscapeKey@CWindow@UI@@UAEHXZ
	DD	FLAT:?OnPressExitKey@CWindow@UI@@UAEHXZ
	DD	FLAT:?SetColor@CWindow@UI@@UAEXK@Z
	DD	FLAT:?OnIsType@CWindow@UI@@UAEHK@Z
	DD	FLAT:?IsWindow@CWindow@UI@@UAEHXZ
CONST	ENDS
;	COMDAT ??_7CTextLine@UI@@6B@
CONST	SEGMENT
??_7CTextLine@UI@@6B@ DD FLAT:??_R4CTextLine@UI@@6B@	; UI::CTextLine::`vftable'
	DD	FLAT:??_ECTextLine@UI@@UAEPAXI@Z
	DD	FLAT:?OnRender@CTextLine@UI@@MAEXXZ
	DD	FLAT:?OnUpdate@CTextLine@UI@@MAEXXZ
	DD	FLAT:?OnChangePosition@CTextLine@UI@@MAEXXZ
	DD	FLAT:?OnSetFocus@CWindow@UI@@UAEXXZ
	DD	FLAT:?OnKillFocus@CWindow@UI@@UAEXXZ
	DD	FLAT:?OnMouseDrag@CWindow@UI@@UAEXJJ@Z
	DD	FLAT:?OnMouseOverIn@CWindow@UI@@UAEXXZ
	DD	FLAT:?OnMouseOverOut@CWindow@UI@@UAEXXZ
	DD	FLAT:?OnMouseOver@CWindow@UI@@UAEXXZ
	DD	FLAT:?OnDrop@CWindow@UI@@UAEXXZ
	DD	FLAT:?OnTop@CWindow@UI@@UAEXXZ
	DD	FLAT:?OnIMEUpdate@CWindow@UI@@UAEXXZ
	DD	FLAT:?OnMoveWindow@CWindow@UI@@UAEXJJ@Z
	DD	FLAT:?OnIMETabEvent@CWindow@UI@@UAEHXZ
	DD	FLAT:?OnIMEReturnEvent@CWindow@UI@@UAEHXZ
	DD	FLAT:?OnIMEKeyDownEvent@CWindow@UI@@UAEHH@Z
	DD	FLAT:?OnIMEChangeCodePage@CWindow@UI@@UAEHXZ
	DD	FLAT:?OnIMEOpenCandidateListEvent@CWindow@UI@@UAEHXZ
	DD	FLAT:?OnIMECloseCandidateListEvent@CWindow@UI@@UAEHXZ
	DD	FLAT:?OnIMEOpenReadingWndEvent@CWindow@UI@@UAEHXZ
	DD	FLAT:?OnIMECloseReadingWndEvent@CWindow@UI@@UAEHXZ
	DD	FLAT:?OnMouseLeftButtonDown@CWindow@UI@@UAEHXZ
	DD	FLAT:?OnMouseLeftButtonUp@CWindow@UI@@UAEHXZ
	DD	FLAT:?OnMouseLeftButtonDoubleClick@CWindow@UI@@UAEHXZ
	DD	FLAT:?OnMouseRightButtonDown@CWindow@UI@@UAEHXZ
	DD	FLAT:?OnMouseRightButtonUp@CWindow@UI@@UAEHXZ
	DD	FLAT:?OnMouseRightButtonDoubleClick@CWindow@UI@@UAEHXZ
	DD	FLAT:?OnMouseMiddleButtonDown@CWindow@UI@@UAEHXZ
	DD	FLAT:?OnMouseMiddleButtonUp@CWindow@UI@@UAEHXZ
	DD	FLAT:?OnMouseWheelScroll@CWindow@UI@@UAEHF@Z
	DD	FLAT:?SetScrollable@CWindow@UI@@UAEXXZ
	DD	FLAT:?OnKeyDown@CWindow@UI@@UAEHH@Z
	DD	FLAT:?OnKeyUp@CWindow@UI@@UAEHH@Z
	DD	FLAT:?OnPressEscapeKey@CWindow@UI@@UAEHXZ
	DD	FLAT:?OnPressExitKey@CWindow@UI@@UAEHXZ
	DD	FLAT:?SetColor@CWindow@UI@@UAEXK@Z
	DD	FLAT:?OnIsType@CWindow@UI@@UAEHK@Z
	DD	FLAT:?IsWindow@CWindow@UI@@UAEHXZ
	DD	FLAT:?OnSetText@CTextLine@UI@@MAEXPBD@Z
CONST	ENDS
;	COMDAT ??_7CBar3D@UI@@6B@
CONST	SEGMENT
??_7CBar3D@UI@@6B@ DD FLAT:??_R4CBar3D@UI@@6B@		; UI::CBar3D::`vftable'
	DD	FLAT:??_ECBar3D@UI@@UAEPAXI@Z
	DD	FLAT:?OnRender@CBar3D@UI@@MAEXXZ
	DD	FLAT:?OnUpdate@CWindow@UI@@UAEXXZ
	DD	FLAT:?OnChangePosition@CWindow@UI@@UAEXXZ
	DD	FLAT:?OnSetFocus@CWindow@UI@@UAEXXZ
	DD	FLAT:?OnKillFocus@CWindow@UI@@UAEXXZ
	DD	FLAT:?OnMouseDrag@CWindow@UI@@UAEXJJ@Z
	DD	FLAT:?OnMouseOverIn@CWindow@UI@@UAEXXZ
	DD	FLAT:?OnMouseOverOut@CWindow@UI@@UAEXXZ
	DD	FLAT:?OnMouseOver@CWindow@UI@@UAEXXZ
	DD	FLAT:?OnDrop@CWindow@UI@@UAEXXZ
	DD	FLAT:?OnTop@CWindow@UI@@UAEXXZ
	DD	FLAT:?OnIMEUpdate@CWindow@UI@@UAEXXZ
	DD	FLAT:?OnMoveWindow@CWindow@UI@@UAEXJJ@Z
	DD	FLAT:?OnIMETabEvent@CWindow@UI@@UAEHXZ
	DD	FLAT:?OnIMEReturnEvent@CWindow@UI@@UAEHXZ
	DD	FLAT:?OnIMEKeyDownEvent@CWindow@UI@@UAEHH@Z
	DD	FLAT:?OnIMEChangeCodePage@CWindow@UI@@UAEHXZ
	DD	FLAT:?OnIMEOpenCandidateListEvent@CWindow@UI@@UAEHXZ
	DD	FLAT:?OnIMECloseCandidateListEvent@CWindow@UI@@UAEHXZ
	DD	FLAT:?OnIMEOpenReadingWndEvent@CWindow@UI@@UAEHXZ
	DD	FLAT:?OnIMECloseReadingWndEvent@CWindow@UI@@UAEHXZ
	DD	FLAT:?OnMouseLeftButtonDown@CWindow@UI@@UAEHXZ
	DD	FLAT:?OnMouseLeftButtonUp@CWindow@UI@@UAEHXZ
	DD	FLAT:?OnMouseLeftButtonDoubleClick@CWindow@UI@@UAEHXZ
	DD	FLAT:?OnMouseRightButtonDown@CWindow@UI@@UAEHXZ
	DD	FLAT:?OnMouseRightButtonUp@CWindow@UI@@UAEHXZ
	DD	FLAT:?OnMouseRightButtonDoubleClick@CWindow@UI@@UAEHXZ
	DD	FLAT:?OnMouseMiddleButtonDown@CWindow@UI@@UAEHXZ
	DD	FLAT:?OnMouseMiddleButtonUp@CWindow@UI@@UAEHXZ
	DD	FLAT:?OnMouseWheelScroll@CWindow@UI@@UAEHF@Z
	DD	FLAT:?SetScrollable@CWindow@UI@@UAEXXZ
	DD	FLAT:?OnKeyDown@CWindow@UI@@UAEHH@Z
	DD	FLAT:?OnKeyUp@CWindow@UI@@UAEHH@Z
	DD	FLAT:?OnPressEscapeKey@CWindow@UI@@UAEHXZ
	DD	FLAT:?OnPressExitKey@CWindow@UI@@UAEHXZ
	DD	FLAT:?SetColor@CWindow@UI@@UAEXK@Z
	DD	FLAT:?OnIsType@CWindow@UI@@UAEHK@Z
	DD	FLAT:?IsWindow@CWindow@UI@@UAEHXZ
CONST	ENDS
;	COMDAT ??_7CLine@UI@@6B@
CONST	SEGMENT
??_7CLine@UI@@6B@ DD FLAT:??_R4CLine@UI@@6B@		; UI::CLine::`vftable'
	DD	FLAT:??_ECLine@UI@@UAEPAXI@Z
	DD	FLAT:?OnRender@CLine@UI@@MAEXXZ
	DD	FLAT:?OnUpdate@CWindow@UI@@UAEXXZ
	DD	FLAT:?OnChangePosition@CWindow@UI@@UAEXXZ
	DD	FLAT:?OnSetFocus@CWindow@UI@@UAEXXZ
	DD	FLAT:?OnKillFocus@CWindow@UI@@UAEXXZ
	DD	FLAT:?OnMouseDrag@CWindow@UI@@UAEXJJ@Z
	DD	FLAT:?OnMouseOverIn@CWindow@UI@@UAEXXZ
	DD	FLAT:?OnMouseOverOut@CWindow@UI@@UAEXXZ
	DD	FLAT:?OnMouseOver@CWindow@UI@@UAEXXZ
	DD	FLAT:?OnDrop@CWindow@UI@@UAEXXZ
	DD	FLAT:?OnTop@CWindow@UI@@UAEXXZ
	DD	FLAT:?OnIMEUpdate@CWindow@UI@@UAEXXZ
	DD	FLAT:?OnMoveWindow@CWindow@UI@@UAEXJJ@Z
	DD	FLAT:?OnIMETabEvent@CWindow@UI@@UAEHXZ
	DD	FLAT:?OnIMEReturnEvent@CWindow@UI@@UAEHXZ
	DD	FLAT:?OnIMEKeyDownEvent@CWindow@UI@@UAEHH@Z
	DD	FLAT:?OnIMEChangeCodePage@CWindow@UI@@UAEHXZ
	DD	FLAT:?OnIMEOpenCandidateListEvent@CWindow@UI@@UAEHXZ
	DD	FLAT:?OnIMECloseCandidateListEvent@CWindow@UI@@UAEHXZ
	DD	FLAT:?OnIMEOpenReadingWndEvent@CWindow@UI@@UAEHXZ
	DD	FLAT:?OnIMECloseReadingWndEvent@CWindow@UI@@UAEHXZ
	DD	FLAT:?OnMouseLeftButtonDown@CWindow@UI@@UAEHXZ
	DD	FLAT:?OnMouseLeftButtonUp@CWindow@UI@@UAEHXZ
	DD	FLAT:?OnMouseLeftButtonDoubleClick@CWindow@UI@@UAEHXZ
	DD	FLAT:?OnMouseRightButtonDown@CWindow@UI@@UAEHXZ
	DD	FLAT:?OnMouseRightButtonUp@CWindow@UI@@UAEHXZ
	DD	FLAT:?OnMouseRightButtonDoubleClick@CWindow@UI@@UAEHXZ
	DD	FLAT:?OnMouseMiddleButtonDown@CWindow@UI@@UAEHXZ
	DD	FLAT:?OnMouseMiddleButtonUp@CWindow@UI@@UAEHXZ
	DD	FLAT:?OnMouseWheelScroll@CWindow@UI@@UAEHF@Z
	DD	FLAT:?SetScrollable@CWindow@UI@@UAEXXZ
	DD	FLAT:?OnKeyDown@CWindow@UI@@UAEHH@Z
	DD	FLAT:?OnKeyUp@CWindow@UI@@UAEHH@Z
	DD	FLAT:?OnPressEscapeKey@CWindow@UI@@UAEHXZ
	DD	FLAT:?OnPressExitKey@CWindow@UI@@UAEHXZ
	DD	FLAT:?SetColor@CLine@UI@@UAEXK@Z
	DD	FLAT:?OnIsType@CWindow@UI@@UAEHK@Z
	DD	FLAT:?IsWindow@CWindow@UI@@UAEHXZ
CONST	ENDS
;	COMDAT ??_7CBar@UI@@6B@
CONST	SEGMENT
??_7CBar@UI@@6B@ DD FLAT:??_R4CBar@UI@@6B@		; UI::CBar::`vftable'
	DD	FLAT:??_ECBar@UI@@UAEPAXI@Z
	DD	FLAT:?OnRender@CBar@UI@@MAEXXZ
	DD	FLAT:?OnUpdate@CWindow@UI@@UAEXXZ
	DD	FLAT:?OnChangePosition@CWindow@UI@@UAEXXZ
	DD	FLAT:?OnSetFocus@CWindow@UI@@UAEXXZ
	DD	FLAT:?OnKillFocus@CWindow@UI@@UAEXXZ
	DD	FLAT:?OnMouseDrag@CWindow@UI@@UAEXJJ@Z
	DD	FLAT:?OnMouseOverIn@CWindow@UI@@UAEXXZ
	DD	FLAT:?OnMouseOverOut@CWindow@UI@@UAEXXZ
	DD	FLAT:?OnMouseOver@CWindow@UI@@UAEXXZ
	DD	FLAT:?OnDrop@CWindow@UI@@UAEXXZ
	DD	FLAT:?OnTop@CWindow@UI@@UAEXXZ
	DD	FLAT:?OnIMEUpdate@CWindow@UI@@UAEXXZ
	DD	FLAT:?OnMoveWindow@CWindow@UI@@UAEXJJ@Z
	DD	FLAT:?OnIMETabEvent@CWindow@UI@@UAEHXZ
	DD	FLAT:?OnIMEReturnEvent@CWindow@UI@@UAEHXZ
	DD	FLAT:?OnIMEKeyDownEvent@CWindow@UI@@UAEHH@Z
	DD	FLAT:?OnIMEChangeCodePage@CWindow@UI@@UAEHXZ
	DD	FLAT:?OnIMEOpenCandidateListEvent@CWindow@UI@@UAEHXZ
	DD	FLAT:?OnIMECloseCandidateListEvent@CWindow@UI@@UAEHXZ
	DD	FLAT:?OnIMEOpenReadingWndEvent@CWindow@UI@@UAEHXZ
	DD	FLAT:?OnIMECloseReadingWndEvent@CWindow@UI@@UAEHXZ
	DD	FLAT:?OnMouseLeftButtonDown@CWindow@UI@@UAEHXZ
	DD	FLAT:?OnMouseLeftButtonUp@CWindow@UI@@UAEHXZ
	DD	FLAT:?OnMouseLeftButtonDoubleClick@CWindow@UI@@UAEHXZ
	DD	FLAT:?OnMouseRightButtonDown@CWindow@UI@@UAEHXZ
	DD	FLAT:?OnMouseRightButtonUp@CWindow@UI@@UAEHXZ
	DD	FLAT:?OnMouseRightButtonDoubleClick@CWindow@UI@@UAEHXZ
	DD	FLAT:?OnMouseMiddleButtonDown@CWindow@UI@@UAEHXZ
	DD	FLAT:?OnMouseMiddleButtonUp@CWindow@UI@@UAEHXZ
	DD	FLAT:?OnMouseWheelScroll@CWindow@UI@@UAEHF@Z
	DD	FLAT:?SetScrollable@CWindow@UI@@UAEXXZ
	DD	FLAT:?OnKeyDown@CWindow@UI@@UAEHH@Z
	DD	FLAT:?OnKeyUp@CWindow@UI@@UAEHH@Z
	DD	FLAT:?OnPressEscapeKey@CWindow@UI@@UAEHXZ
	DD	FLAT:?OnPressExitKey@CWindow@UI@@UAEHXZ
	DD	FLAT:?SetColor@CBar@UI@@UAEXK@Z
	DD	FLAT:?OnIsType@CWindow@UI@@UAEHK@Z
	DD	FLAT:?IsWindow@CWindow@UI@@UAEHXZ
CONST	ENDS
;	COMDAT ??_7CBox@UI@@6B@
CONST	SEGMENT
??_7CBox@UI@@6B@ DD FLAT:??_R4CBox@UI@@6B@		; UI::CBox::`vftable'
	DD	FLAT:??_ECBox@UI@@UAEPAXI@Z
	DD	FLAT:?OnRender@CBox@UI@@MAEXXZ
	DD	FLAT:?OnUpdate@CWindow@UI@@UAEXXZ
	DD	FLAT:?OnChangePosition@CWindow@UI@@UAEXXZ
	DD	FLAT:?OnSetFocus@CWindow@UI@@UAEXXZ
	DD	FLAT:?OnKillFocus@CWindow@UI@@UAEXXZ
	DD	FLAT:?OnMouseDrag@CWindow@UI@@UAEXJJ@Z
	DD	FLAT:?OnMouseOverIn@CWindow@UI@@UAEXXZ
	DD	FLAT:?OnMouseOverOut@CWindow@UI@@UAEXXZ
	DD	FLAT:?OnMouseOver@CWindow@UI@@UAEXXZ
	DD	FLAT:?OnDrop@CWindow@UI@@UAEXXZ
	DD	FLAT:?OnTop@CWindow@UI@@UAEXXZ
	DD	FLAT:?OnIMEUpdate@CWindow@UI@@UAEXXZ
	DD	FLAT:?OnMoveWindow@CWindow@UI@@UAEXJJ@Z
	DD	FLAT:?OnIMETabEvent@CWindow@UI@@UAEHXZ
	DD	FLAT:?OnIMEReturnEvent@CWindow@UI@@UAEHXZ
	DD	FLAT:?OnIMEKeyDownEvent@CWindow@UI@@UAEHH@Z
	DD	FLAT:?OnIMEChangeCodePage@CWindow@UI@@UAEHXZ
	DD	FLAT:?OnIMEOpenCandidateListEvent@CWindow@UI@@UAEHXZ
	DD	FLAT:?OnIMECloseCandidateListEvent@CWindow@UI@@UAEHXZ
	DD	FLAT:?OnIMEOpenReadingWndEvent@CWindow@UI@@UAEHXZ
	DD	FLAT:?OnIMECloseReadingWndEvent@CWindow@UI@@UAEHXZ
	DD	FLAT:?OnMouseLeftButtonDown@CWindow@UI@@UAEHXZ
	DD	FLAT:?OnMouseLeftButtonUp@CWindow@UI@@UAEHXZ
	DD	FLAT:?OnMouseLeftButtonDoubleClick@CWindow@UI@@UAEHXZ
	DD	FLAT:?OnMouseRightButtonDown@CWindow@UI@@UAEHXZ
	DD	FLAT:?OnMouseRightButtonUp@CWindow@UI@@UAEHXZ
	DD	FLAT:?OnMouseRightButtonDoubleClick@CWindow@UI@@UAEHXZ
	DD	FLAT:?OnMouseMiddleButtonDown@CWindow@UI@@UAEHXZ
	DD	FLAT:?OnMouseMiddleButtonUp@CWindow@UI@@UAEHXZ
	DD	FLAT:?OnMouseWheelScroll@CWindow@UI@@UAEHF@Z
	DD	FLAT:?SetScrollable@CWindow@UI@@UAEXXZ
	DD	FLAT:?OnKeyDown@CWindow@UI@@UAEHH@Z
	DD	FLAT:?OnKeyUp@CWindow@UI@@UAEHH@Z
	DD	FLAT:?OnPressEscapeKey@CWindow@UI@@UAEHXZ
	DD	FLAT:?OnPressExitKey@CWindow@UI@@UAEHXZ
	DD	FLAT:?SetColor@CBox@UI@@UAEXK@Z
	DD	FLAT:?OnIsType@CWindow@UI@@UAEHK@Z
	DD	FLAT:?IsWindow@CWindow@UI@@UAEHXZ
CONST	ENDS
;	COMDAT ??_7CWindow@UI@@6B@
CONST	SEGMENT
??_7CWindow@UI@@6B@ DD FLAT:??_R4CWindow@UI@@6B@	; UI::CWindow::`vftable'
	DD	FLAT:??_ECWindow@UI@@UAEPAXI@Z
	DD	FLAT:?OnRender@CWindow@UI@@UAEXXZ
	DD	FLAT:?OnUpdate@CWindow@UI@@UAEXXZ
	DD	FLAT:?OnChangePosition@CWindow@UI@@UAEXXZ
	DD	FLAT:?OnSetFocus@CWindow@UI@@UAEXXZ
	DD	FLAT:?OnKillFocus@CWindow@UI@@UAEXXZ
	DD	FLAT:?OnMouseDrag@CWindow@UI@@UAEXJJ@Z
	DD	FLAT:?OnMouseOverIn@CWindow@UI@@UAEXXZ
	DD	FLAT:?OnMouseOverOut@CWindow@UI@@UAEXXZ
	DD	FLAT:?OnMouseOver@CWindow@UI@@UAEXXZ
	DD	FLAT:?OnDrop@CWindow@UI@@UAEXXZ
	DD	FLAT:?OnTop@CWindow@UI@@UAEXXZ
	DD	FLAT:?OnIMEUpdate@CWindow@UI@@UAEXXZ
	DD	FLAT:?OnMoveWindow@CWindow@UI@@UAEXJJ@Z
	DD	FLAT:?OnIMETabEvent@CWindow@UI@@UAEHXZ
	DD	FLAT:?OnIMEReturnEvent@CWindow@UI@@UAEHXZ
	DD	FLAT:?OnIMEKeyDownEvent@CWindow@UI@@UAEHH@Z
	DD	FLAT:?OnIMEChangeCodePage@CWindow@UI@@UAEHXZ
	DD	FLAT:?OnIMEOpenCandidateListEvent@CWindow@UI@@UAEHXZ
	DD	FLAT:?OnIMECloseCandidateListEvent@CWindow@UI@@UAEHXZ
	DD	FLAT:?OnIMEOpenReadingWndEvent@CWindow@UI@@UAEHXZ
	DD	FLAT:?OnIMECloseReadingWndEvent@CWindow@UI@@UAEHXZ
	DD	FLAT:?OnMouseLeftButtonDown@CWindow@UI@@UAEHXZ
	DD	FLAT:?OnMouseLeftButtonUp@CWindow@UI@@UAEHXZ
	DD	FLAT:?OnMouseLeftButtonDoubleClick@CWindow@UI@@UAEHXZ
	DD	FLAT:?OnMouseRightButtonDown@CWindow@UI@@UAEHXZ
	DD	FLAT:?OnMouseRightButtonUp@CWindow@UI@@UAEHXZ
	DD	FLAT:?OnMouseRightButtonDoubleClick@CWindow@UI@@UAEHXZ
	DD	FLAT:?OnMouseMiddleButtonDown@CWindow@UI@@UAEHXZ
	DD	FLAT:?OnMouseMiddleButtonUp@CWindow@UI@@UAEHXZ
	DD	FLAT:?OnMouseWheelScroll@CWindow@UI@@UAEHF@Z
	DD	FLAT:?SetScrollable@CWindow@UI@@UAEXXZ
	DD	FLAT:?OnKeyDown@CWindow@UI@@UAEHH@Z
	DD	FLAT:?OnKeyUp@CWindow@UI@@UAEHH@Z
	DD	FLAT:?OnPressEscapeKey@CWindow@UI@@UAEHXZ
	DD	FLAT:?OnPressExitKey@CWindow@UI@@UAEHXZ
	DD	FLAT:?SetColor@CWindow@UI@@UAEXK@Z
	DD	FLAT:?OnIsType@CWindow@UI@@UAEHK@Z
	DD	FLAT:?IsWindow@CWindow@UI@@UAEHXZ
CONST	ENDS
;	COMDAT ??_R1A@?0A@EA@bad_array_new_length@std@@8
rdata$r	SEGMENT
??_R1A@?0A@EA@bad_array_new_length@std@@8 DD FLAT:??_R0?AVbad_array_new_length@std@@@8 ; std::bad_array_new_length::`RTTI Base Class Descriptor at (0,-1,0,64)'
	DD	02H
	DD	00H
	DD	0ffffffffH
	DD	00H
	DD	040H
	DD	FLAT:??_R3bad_array_new_length@std@@8
rdata$r	ENDS
;	COMDAT ??_R2bad_array_new_length@std@@8
rdata$r	SEGMENT
??_R2bad_array_new_length@std@@8 DD FLAT:??_R1A@?0A@EA@bad_array_new_length@std@@8 ; std::bad_array_new_length::`RTTI Base Class Array'
	DD	FLAT:??_R1A@?0A@EA@bad_alloc@std@@8
	DD	FLAT:??_R1A@?0A@EA@exception@std@@8
rdata$r	ENDS
;	COMDAT ??_R3bad_array_new_length@std@@8
rdata$r	SEGMENT
??_R3bad_array_new_length@std@@8 DD 00H			; std::bad_array_new_length::`RTTI Class Hierarchy Descriptor'
	DD	00H
	DD	03H
	DD	FLAT:??_R2bad_array_new_length@std@@8
rdata$r	ENDS
;	COMDAT ??_R4bad_array_new_length@std@@6B@
rdata$r	SEGMENT
??_R4bad_array_new_length@std@@6B@ DD 00H		; std::bad_array_new_length::`RTTI Complete Object Locator'
	DD	00H
	DD	00H
	DD	FLAT:??_R0?AVbad_array_new_length@std@@@8
	DD	FLAT:??_R3bad_array_new_length@std@@8
rdata$r	ENDS
;	COMDAT ??_R1A@?0A@EA@bad_alloc@std@@8
rdata$r	SEGMENT
??_R1A@?0A@EA@bad_alloc@std@@8 DD FLAT:??_R0?AVbad_alloc@std@@@8 ; std::bad_alloc::`RTTI Base Class Descriptor at (0,-1,0,64)'
	DD	01H
	DD	00H
	DD	0ffffffffH
	DD	00H
	DD	040H
	DD	FLAT:??_R3bad_alloc@std@@8
rdata$r	ENDS
;	COMDAT ??_R2bad_alloc@std@@8
rdata$r	SEGMENT
??_R2bad_alloc@std@@8 DD FLAT:??_R1A@?0A@EA@bad_alloc@std@@8 ; std::bad_alloc::`RTTI Base Class Array'
	DD	FLAT:??_R1A@?0A@EA@exception@std@@8
rdata$r	ENDS
;	COMDAT ??_R3bad_alloc@std@@8
rdata$r	SEGMENT
??_R3bad_alloc@std@@8 DD 00H				; std::bad_alloc::`RTTI Class Hierarchy Descriptor'
	DD	00H
	DD	02H
	DD	FLAT:??_R2bad_alloc@std@@8
rdata$r	ENDS
;	COMDAT ??_R4bad_alloc@std@@6B@
rdata$r	SEGMENT
??_R4bad_alloc@std@@6B@ DD 00H				; std::bad_alloc::`RTTI Complete Object Locator'
	DD	00H
	DD	00H
	DD	FLAT:??_R0?AVbad_alloc@std@@@8
	DD	FLAT:??_R3bad_alloc@std@@8
rdata$r	ENDS
;	COMDAT ??_R1A@?0A@EA@exception@std@@8
rdata$r	SEGMENT
??_R1A@?0A@EA@exception@std@@8 DD FLAT:??_R0?AVexception@std@@@8 ; std::exception::`RTTI Base Class Descriptor at (0,-1,0,64)'
	DD	00H
	DD	00H
	DD	0ffffffffH
	DD	00H
	DD	040H
	DD	FLAT:??_R3exception@std@@8
rdata$r	ENDS
;	COMDAT ??_R2exception@std@@8
rdata$r	SEGMENT
??_R2exception@std@@8 DD FLAT:??_R1A@?0A@EA@exception@std@@8 ; std::exception::`RTTI Base Class Array'
rdata$r	ENDS
;	COMDAT ??_R3exception@std@@8
rdata$r	SEGMENT
??_R3exception@std@@8 DD 00H				; std::exception::`RTTI Class Hierarchy Descriptor'
	DD	00H
	DD	01H
	DD	FLAT:??_R2exception@std@@8
rdata$r	ENDS
;	COMDAT ??_R4exception@std@@6B@
rdata$r	SEGMENT
??_R4exception@std@@6B@ DD 00H				; std::exception::`RTTI Complete Object Locator'
	DD	00H
	DD	00H
	DD	FLAT:??_R0?AVexception@std@@@8
	DD	FLAT:??_R3exception@std@@8
rdata$r	ENDS
;	COMDAT ??_C@_0BA@FOIKENOD@vector?5too?5long@
CONST	SEGMENT
??_C@_0BA@FOIKENOD@vector?5too?5long@ DB 'vector too long', 00H ; `string'
CONST	ENDS
;	COMDAT ??_C@_00CNPNBAHC@@
CONST	SEGMENT
??_C@_00CNPNBAHC@@ DB 00H				; `string'
CONST	ENDS
;	COMDAT ??_C@_0BA@JFNIOLAK@string?5too?5long@
CONST	SEGMENT
??_C@_0BA@JFNIOLAK@string?5too?5long@ DB 'string too long', 00H ; `string'
CONST	ENDS
;	COMDAT __CT??_R0?AVexception@std@@@8??0exception@std@@QAE@ABV01@@Z12
xdata$x	SEGMENT
__CT??_R0?AVexception@std@@@8??0exception@std@@QAE@ABV01@@Z12 DD 00H
	DD	FLAT:??_R0?AVexception@std@@@8
	DD	00H
	DD	0ffffffffH
	ORG $+4
	DD	0cH
	DD	FLAT:??0exception@std@@QAE@ABV01@@Z
xdata$x	ENDS
;	COMDAT ??_R0?AVexception@std@@@8
data$r	SEGMENT
??_R0?AVexception@std@@@8 DD FLAT:??_7type_info@@6B@	; std::exception `RTTI Type Descriptor'
	DD	00H
	DB	'.?AVexception@std@@', 00H
data$r	ENDS
;	COMDAT __CT??_R0?AVbad_alloc@std@@@8??0bad_alloc@std@@QAE@ABV01@@Z12
xdata$x	SEGMENT
__CT??_R0?AVbad_alloc@std@@@8??0bad_alloc@std@@QAE@ABV01@@Z12 DD 010H
	DD	FLAT:??_R0?AVbad_alloc@std@@@8
	DD	00H
	DD	0ffffffffH
	ORG $+4
	DD	0cH
	DD	FLAT:??0bad_alloc@std@@QAE@ABV01@@Z
xdata$x	ENDS
;	COMDAT ??_R0?AVbad_alloc@std@@@8
data$r	SEGMENT
??_R0?AVbad_alloc@std@@@8 DD FLAT:??_7type_info@@6B@	; std::bad_alloc `RTTI Type Descriptor'
	DD	00H
	DB	'.?AVbad_alloc@std@@', 00H
data$r	ENDS
;	COMDAT __CT??_R0?AVbad_array_new_length@std@@@8??0bad_array_new_length@std@@QAE@ABV01@@Z12
xdata$x	SEGMENT
__CT??_R0?AVbad_array_new_length@std@@@8??0bad_array_new_length@std@@QAE@ABV01@@Z12 DD 00H
	DD	FLAT:??_R0?AVbad_array_new_length@std@@@8
	DD	00H
	DD	0ffffffffH
	ORG $+4
	DD	0cH
	DD	FLAT:??0bad_array_new_length@std@@QAE@ABV01@@Z
xdata$x	ENDS
;	COMDAT ??_R0?AVbad_array_new_length@std@@@8
data$r	SEGMENT
??_R0?AVbad_array_new_length@std@@@8 DD FLAT:??_7type_info@@6B@ ; std::bad_array_new_length `RTTI Type Descriptor'
	DD	00H
	DB	'.?AVbad_array_new_length@std@@', 00H
data$r	ENDS
;	COMDAT __CTA3?AVbad_array_new_length@std@@
xdata$x	SEGMENT
__CTA3?AVbad_array_new_length@std@@ DD 03H
	DD	FLAT:__CT??_R0?AVbad_array_new_length@std@@@8??0bad_array_new_length@std@@QAE@ABV01@@Z12
	DD	FLAT:__CT??_R0?AVbad_alloc@std@@@8??0bad_alloc@std@@QAE@ABV01@@Z12
	DD	FLAT:__CT??_R0?AVexception@std@@@8??0exception@std@@QAE@ABV01@@Z12
xdata$x	ENDS
;	COMDAT __TI3?AVbad_array_new_length@std@@
xdata$x	SEGMENT
__TI3?AVbad_array_new_length@std@@ DD 00H
	DD	FLAT:??1bad_array_new_length@std@@UAE@XZ
	DD	00H
	DD	FLAT:__CTA3?AVbad_array_new_length@std@@
xdata$x	ENDS
;	COMDAT ??_C@_0BF@KINCDENJ@bad?5array?5new?5length@
CONST	SEGMENT
??_C@_0BF@KINCDENJ@bad?5array?5new?5length@ DB 'bad array new length', 00H ; `string'
CONST	ENDS
;	COMDAT ??_7bad_array_new_length@std@@6B@
CONST	SEGMENT
??_7bad_array_new_length@std@@6B@ DD FLAT:??_R4bad_array_new_length@std@@6B@ ; std::bad_array_new_length::`vftable'
	DD	FLAT:??_Ebad_array_new_length@std@@UAEPAXI@Z
	DD	FLAT:?what@exception@std@@UBEPBDXZ
CONST	ENDS
;	COMDAT ??_7bad_alloc@std@@6B@
CONST	SEGMENT
??_7bad_alloc@std@@6B@ DD FLAT:??_R4bad_alloc@std@@6B@	; std::bad_alloc::`vftable'
	DD	FLAT:??_Ebad_alloc@std@@UAEPAXI@Z
	DD	FLAT:?what@exception@std@@UBEPBDXZ
CONST	ENDS
;	COMDAT ??_C@_0BC@EOODALEL@Unknown?5exception@
CONST	SEGMENT
??_C@_0BC@EOODALEL@Unknown?5exception@ DB 'Unknown exception', 00H ; `string'
CONST	ENDS
;	COMDAT ??_7exception@std@@6B@
CONST	SEGMENT
??_7exception@std@@6B@ DD FLAT:??_R4exception@std@@6B@	; std::exception::`vftable'
	DD	FLAT:??_Eexception@std@@UAEPAXI@Z
	DD	FLAT:?what@exception@std@@UBEPBDXZ
CONST	ENDS
;	COMDAT xdata$x
xdata$x	SEGMENT
__unwindtable$??$?0ABQAVCWindow@UI@@@?$_List_node_emplace_op2@V?$allocator@U?$_List_node@PAVCWindow@UI@@PAX@std@@@std@@@std@@QAE@AAV?$allocator@U?$_List_node@PAVCWindow@UI@@PAX@std@@@1@ABQAVCWindow@UI@@@Z DD 0ffffffffH
	DD	FLAT:__unwindfunclet$??$?0ABQAVCWindow@UI@@@?$_List_node_emplace_op2@V?$allocator@U?$_List_node@PAVCWindow@UI@@PAX@std@@@std@@@std@@QAE@AAV?$allocator@U?$_List_node@PAVCWindow@UI@@PAX@std@@@1@ABQAVCWindow@UI@@@Z$0
__ehfuncinfo$??$?0ABQAVCWindow@UI@@@?$_List_node_emplace_op2@V?$allocator@U?$_List_node@PAVCWindow@UI@@PAX@std@@@std@@@std@@QAE@AAV?$allocator@U?$_List_node@PAVCWindow@UI@@PAX@std@@@1@ABQAVCWindow@UI@@@Z DD 019930522H
	DD	01H
	DD	FLAT:__unwindtable$??$?0ABQAVCWindow@UI@@@?$_List_node_emplace_op2@V?$allocator@U?$_List_node@PAVCWindow@UI@@PAX@std@@@std@@@std@@QAE@AAV?$allocator@U?$_List_node@PAVCWindow@UI@@PAX@std@@@1@ABQAVCWindow@UI@@@Z
	DD	2 DUP(00H)
	DD	2 DUP(00H)
	DD	00H
	DD	01H
xdata$x	ENDS
;	COMDAT xdata$x
xdata$x	SEGMENT
__unwindtable$??$_Emplace@ABQAVCWindow@UI@@@?$list@PAVCWindow@UI@@V?$allocator@PAVCWindow@UI@@@std@@@std@@QAEPAU?$_List_node@PAVCWindow@UI@@PAX@1@QAU21@ABQAVCWindow@UI@@@Z DD 0ffffffffH
	DD	FLAT:__unwindfunclet$??$_Emplace@ABQAVCWindow@UI@@@?$list@PAVCWindow@UI@@V?$allocator@PAVCWindow@UI@@@std@@@std@@QAEPAU?$_List_node@PAVCWindow@UI@@PAX@1@QAU21@ABQAVCWindow@UI@@@Z$1
__ehfuncinfo$??$_Emplace@ABQAVCWindow@UI@@@?$list@PAVCWindow@UI@@V?$allocator@PAVCWindow@UI@@@std@@@std@@QAEPAU?$_List_node@PAVCWindow@UI@@PAX@1@QAU21@ABQAVCWindow@UI@@@Z DD 019930522H
	DD	01H
	DD	FLAT:__unwindtable$??$_Emplace@ABQAVCWindow@UI@@@?$list@PAVCWindow@UI@@V?$allocator@PAVCWindow@UI@@@std@@@std@@QAEPAU?$_List_node@PAVCWindow@UI@@PAX@1@QAU21@ABQAVCWindow@UI@@@Z
	DD	2 DUP(00H)
	DD	2 DUP(00H)
	DD	00H
	DD	01H
xdata$x	ENDS
;	COMDAT xdata$x
xdata$x	SEGMENT
__unwindtable$??0CButton@UI@@QAE@PAU_object@@@Z DD 0ffffffffH
	DD	FLAT:__unwindfunclet$??0CButton@UI@@QAE@PAU_object@@@Z$0
	DD	00H
	DD	FLAT:__unwindfunclet$??0CButton@UI@@QAE@PAU_object@@@Z$1
	DD	01H
	DD	FLAT:__unwindfunclet$??0CButton@UI@@QAE@PAU_object@@@Z$2
	DD	02H
	DD	FLAT:__unwindfunclet$??0CButton@UI@@QAE@PAU_object@@@Z$3
__ehfuncinfo$??0CButton@UI@@QAE@PAU_object@@@Z DD 019930522H
	DD	04H
	DD	FLAT:__unwindtable$??0CButton@UI@@QAE@PAU_object@@@Z
	DD	2 DUP(00H)
	DD	2 DUP(00H)
	DD	00H
	DD	01H
xdata$x	ENDS
;	COMDAT xdata$x
xdata$x	SEGMENT
__ehfuncinfo$??1CAniImageBox@UI@@UAE@XZ DD 019930522H
	DD	00H
	DD	00H
	DD	2 DUP(00H)
	DD	2 DUP(00H)
	DD	00H
	DD	05H
xdata$x	ENDS
;	COMDAT xdata$x
xdata$x	SEGMENT
__unwindtable$?Type@CAniImageBox@UI@@SAKXZ DD 0ffffffffH
	DD	FLAT:__unwindfunclet$?Type@CAniImageBox@UI@@SAKXZ$0
__ehfuncinfo$?Type@CAniImageBox@UI@@SAKXZ DD 019930522H
	DD	01H
	DD	FLAT:__unwindtable$?Type@CAniImageBox@UI@@SAKXZ
	DD	2 DUP(00H)
	DD	2 DUP(00H)
	DD	00H
	DD	01H
xdata$x	ENDS
;	COMDAT xdata$x
xdata$x	SEGMENT
__ehfuncinfo$??1CExpandedImageBox@UI@@UAE@XZ DD 019930522H
	DD	00H
	DD	00H
	DD	2 DUP(00H)
	DD	2 DUP(00H)
	DD	00H
	DD	05H
xdata$x	ENDS
;	COMDAT xdata$x
xdata$x	SEGMENT
__unwindtable$?Type@CExpandedImageBox@UI@@SAKXZ DD 0ffffffffH
	DD	FLAT:__unwindfunclet$?Type@CExpandedImageBox@UI@@SAKXZ$0
__ehfuncinfo$?Type@CExpandedImageBox@UI@@SAKXZ DD 019930522H
	DD	01H
	DD	FLAT:__unwindtable$?Type@CExpandedImageBox@UI@@SAKXZ
	DD	2 DUP(00H)
	DD	2 DUP(00H)
	DD	00H
	DD	01H
xdata$x	ENDS
;	COMDAT xdata$x
xdata$x	SEGMENT
__ehfuncinfo$??1CMarkBox@UI@@UAE@XZ DD 019930522H
	DD	00H
	DD	00H
	DD	2 DUP(00H)
	DD	2 DUP(00H)
	DD	00H
	DD	05H
xdata$x	ENDS
;	COMDAT xdata$x
xdata$x	SEGMENT
__ehfuncinfo$??1CImageBox@UI@@UAE@XZ DD 019930522H
	DD	00H
	DD	00H
	DD	2 DUP(00H)
	DD	2 DUP(00H)
	DD	00H
	DD	05H
xdata$x	ENDS
;	COMDAT xdata$x
xdata$x	SEGMENT
__unwindtable$?SetNumber@CNumberLine@UI@@QAEXPBD@Z DD 0ffffffffH
	DD	FLAT:__unwindfunclet$?SetNumber@CNumberLine@UI@@QAEXPBD@Z$0
__ehfuncinfo$?SetNumber@CNumberLine@UI@@QAEXPBD@Z DD 019930522H
	DD	01H
	DD	FLAT:__unwindtable$?SetNumber@CNumberLine@UI@@QAEXPBD@Z
	DD	2 DUP(00H)
	DD	2 DUP(00H)
	DD	00H
	DD	01H
xdata$x	ENDS
;	COMDAT xdata$x
xdata$x	SEGMENT
__ehfuncinfo$??1CNumberLine@UI@@UAE@XZ DD 019930522H
	DD	00H
	DD	00H
	DD	2 DUP(00H)
	DD	2 DUP(00H)
	DD	00H
	DD	05H
xdata$x	ENDS
;	COMDAT xdata$x
xdata$x	SEGMENT
__unwindtable$??0CNumberLine@UI@@QAE@PAVCWindow@1@@Z DD 0ffffffffH
	DD	FLAT:__unwindfunclet$??0CNumberLine@UI@@QAE@PAVCWindow@1@@Z$0
	DD	00H
	DD	FLAT:__unwindfunclet$??0CNumberLine@UI@@QAE@PAVCWindow@1@@Z$1
	DD	01H
	DD	FLAT:__unwindfunclet$??0CNumberLine@UI@@QAE@PAVCWindow@1@@Z$2
	DD	02H
	DD	FLAT:__unwindfunclet$??0CNumberLine@UI@@QAE@PAVCWindow@1@@Z$3
__ehfuncinfo$??0CNumberLine@UI@@QAE@PAVCWindow@1@@Z DD 019930522H
	DD	04H
	DD	FLAT:__unwindtable$??0CNumberLine@UI@@QAE@PAVCWindow@1@@Z
	DD	2 DUP(00H)
	DD	2 DUP(00H)
	DD	00H
	DD	01H
xdata$x	ENDS
;	COMDAT xdata$x
xdata$x	SEGMENT
__unwindtable$??0CNumberLine@UI@@QAE@PAU_object@@@Z DD 0ffffffffH
	DD	FLAT:__unwindfunclet$??0CNumberLine@UI@@QAE@PAU_object@@@Z$0
	DD	00H
	DD	FLAT:__unwindfunclet$??0CNumberLine@UI@@QAE@PAU_object@@@Z$1
	DD	01H
	DD	FLAT:__unwindfunclet$??0CNumberLine@UI@@QAE@PAU_object@@@Z$2
	DD	02H
	DD	FLAT:__unwindfunclet$??0CNumberLine@UI@@QAE@PAU_object@@@Z$3
__ehfuncinfo$??0CNumberLine@UI@@QAE@PAU_object@@@Z DD 019930522H
	DD	04H
	DD	FLAT:__unwindtable$??0CNumberLine@UI@@QAE@PAU_object@@@Z
	DD	2 DUP(00H)
	DD	2 DUP(00H)
	DD	00H
	DD	01H
xdata$x	ENDS
;	COMDAT xdata$x
xdata$x	SEGMENT
__unwindtable$?SetFontName@CTextLine@UI@@QAEXPBD@Z DD 0ffffffffH
	DD	FLAT:__unwindfunclet$?SetFontName@CTextLine@UI@@QAEXPBD@Z$0
__ehfuncinfo$?SetFontName@CTextLine@UI@@QAEXPBD@Z DD 019930522H
	DD	01H
	DD	FLAT:__unwindtable$?SetFontName@CTextLine@UI@@QAEXPBD@Z
	DD	2 DUP(00H)
	DD	2 DUP(00H)
	DD	00H
	DD	01H
xdata$x	ENDS
;	COMDAT xdata$x
xdata$x	SEGMENT
__ehfuncinfo$??1CTextLine@UI@@UAE@XZ DD 019930522H
	DD	00H
	DD	00H
	DD	2 DUP(00H)
	DD	2 DUP(00H)
	DD	00H
	DD	05H
xdata$x	ENDS
;	COMDAT xdata$x
xdata$x	SEGMENT
__unwindtable$??0CTextLine@UI@@QAE@PAU_object@@@Z DD 0ffffffffH
	DD	FLAT:__unwindfunclet$??0CTextLine@UI@@QAE@PAU_object@@@Z$0
	DD	00H
	DD	FLAT:__unwindfunclet$??0CTextLine@UI@@QAE@PAU_object@@@Z$1
__ehfuncinfo$??0CTextLine@UI@@QAE@PAU_object@@@Z DD 019930522H
	DD	02H
	DD	FLAT:__unwindtable$??0CTextLine@UI@@QAE@PAU_object@@@Z
	DD	2 DUP(00H)
	DD	2 DUP(00H)
	DD	00H
	DD	01H
xdata$x	ENDS
;	COMDAT xdata$x
xdata$x	SEGMENT
__unwindtable$?Type@CBar3D@UI@@SAKXZ DD 0ffffffffH
	DD	FLAT:__unwindfunclet$?Type@CBar3D@UI@@SAKXZ$0
__ehfuncinfo$?Type@CBar3D@UI@@SAKXZ DD 019930522H
	DD	01H
	DD	FLAT:__unwindtable$?Type@CBar3D@UI@@SAKXZ
	DD	2 DUP(00H)
	DD	2 DUP(00H)
	DD	00H
	DD	01H
xdata$x	ENDS
;	COMDAT xdata$x
xdata$x	SEGMENT
__unwindtable$??0CWindow@UI@@QAE@PAU_object@@@Z DD 0ffffffffH
	DD	FLAT:__unwindfunclet$??0CWindow@UI@@QAE@PAU_object@@@Z$0
	DD	00H
	DD	FLAT:__unwindfunclet$??0CWindow@UI@@QAE@PAU_object@@@Z$1
__ehfuncinfo$??0CWindow@UI@@QAE@PAU_object@@@Z DD 019930522H
	DD	02H
	DD	FLAT:__unwindtable$??0CWindow@UI@@QAE@PAU_object@@@Z
	DD	2 DUP(00H)
	DD	2 DUP(00H)
	DD	00H
	DD	01H
xdata$x	ENDS
;	COMDAT xdata$x
xdata$x	SEGMENT
__unwindtable$?Type@CWindow@UI@@SAKXZ DD 0ffffffffH
	DD	FLAT:__unwindfunclet$?Type@CWindow@UI@@SAKXZ$0
__ehfuncinfo$?Type@CWindow@UI@@SAKXZ DD 019930522H
	DD	01H
	DD	FLAT:__unwindtable$?Type@CWindow@UI@@SAKXZ
	DD	2 DUP(00H)
	DD	2 DUP(00H)
	DD	00H
	DD	01H
xdata$x	ENDS
;	COMDAT xdata$x
xdata$x	SEGMENT
__unwindtable$?push_back@?$list@PAVCWindow@UI@@V?$allocator@PAVCWindow@UI@@@std@@@std@@QAEXABQAVCWindow@UI@@@Z DD 0ffffffffH
	DD	FLAT:__unwindfunclet$?push_back@?$list@PAVCWindow@UI@@V?$allocator@PAVCWindow@UI@@@std@@@std@@QAEXABQAVCWindow@UI@@@Z$1
__ehfuncinfo$?push_back@?$list@PAVCWindow@UI@@V?$allocator@PAVCWindow@UI@@@std@@@std@@QAEXABQAVCWindow@UI@@@Z DD 019930522H
	DD	01H
	DD	FLAT:__unwindtable$?push_back@?$list@PAVCWindow@UI@@V?$allocator@PAVCWindow@UI@@@std@@@std@@QAEXABQAVCWindow@UI@@@Z
	DD	2 DUP(00H)
	DD	2 DUP(00H)
	DD	00H
	DD	01H
xdata$x	ENDS
; Function compile flags: /Ogtp
; File C:\Program Files (x86)\Microsoft Visual Studio\2019\Community\VC\Tools\MSVC\14.27.29110\include\xutility
;	COMDAT ??$_Copy_memmove@PAPAVCGraphicImageInstance@@PAPAV1@@std@@YAPAPAVCGraphicImageInstance@@PAPAV1@00@Z
_TEXT	SEGMENT
__First$ = 8						; size = 4
__Last$ = 12						; size = 4
__Dest$ = 16						; size = 4
??$_Copy_memmove@PAPAVCGraphicImageInstance@@PAPAV1@@std@@YAPAPAVCGraphicImageInstance@@PAPAV1@00@Z PROC ; std::_Copy_memmove<CGraphicImageInstance * *,CGraphicImageInstance * *>, COMDAT

; 4113 : _OutIt _Copy_memmove(_InIt _First, _InIt _Last, _OutIt _Dest) {

  00000	55		 push	 ebp
  00001	8b ec		 mov	 ebp, esp

; 4114 :     const char* const _First_ch = const_cast<const char*>(reinterpret_cast<const volatile char*>(_First));
; 4115 :     const char* const _Last_ch  = const_cast<const char*>(reinterpret_cast<const volatile char*>(_Last));
; 4116 :     char* const _Dest_ch        = const_cast<char*>(reinterpret_cast<volatile char*>(_Dest));
; 4117 :     const auto _Count           = static_cast<size_t>(_Last_ch - _First_ch);

  00003	8b 45 08	 mov	 eax, DWORD PTR __First$[ebp]
  00006	56		 push	 esi

; 4118 :     _CSTD memmove(_Dest_ch, _First_ch, _Count);

  00007	8b 75 10	 mov	 esi, DWORD PTR __Dest$[ebp]
  0000a	57		 push	 edi
  0000b	8b 7d 0c	 mov	 edi, DWORD PTR __Last$[ebp]
  0000e	2b f8		 sub	 edi, eax
  00010	57		 push	 edi
  00011	50		 push	 eax
  00012	56		 push	 esi
  00013	e8 00 00 00 00	 call	 _memmove
  00018	83 c4 0c	 add	 esp, 12			; 0000000cH

; 4119 :     return reinterpret_cast<_OutIt>(_Dest_ch + _Count);

  0001b	8d 04 37	 lea	 eax, DWORD PTR [edi+esi]
  0001e	5f		 pop	 edi
  0001f	5e		 pop	 esi

; 4120 : }

  00020	5d		 pop	 ebp
  00021	c3		 ret	 0
??$_Copy_memmove@PAPAVCGraphicImageInstance@@PAPAV1@@std@@YAPAPAVCGraphicImageInstance@@PAPAV1@00@Z ENDP ; std::_Copy_memmove<CGraphicImageInstance * *,CGraphicImageInstance * *>
_TEXT	ENDS
; Function compile flags: /Ogtp
; File C:\Program Files (x86)\Microsoft Visual Studio\2019\Community\VC\Tools\MSVC\14.27.29110\include\xmemory
;	COMDAT ??$_Uninitialized_move@PAPAVCGraphicImageInstance@@V?$allocator@PAVCGraphicImageInstance@@@std@@@std@@YAPAPAVCGraphicImageInstance@@QAPAV1@0PAPAV1@AAV?$allocator@PAVCGraphicImageInstance@@@0@@Z
_TEXT	SEGMENT
__First$ = 8						; size = 4
__Last$ = 12						; size = 4
__Dest$ = 16						; size = 4
__Al$ = 20						; size = 4
??$_Uninitialized_move@PAPAVCGraphicImageInstance@@V?$allocator@PAVCGraphicImageInstance@@@std@@@std@@YAPAPAVCGraphicImageInstance@@QAPAV1@0PAPAV1@AAV?$allocator@PAVCGraphicImageInstance@@@0@@Z PROC ; std::_Uninitialized_move<CGraphicImageInstance * *,std::allocator<CGraphicImageInstance *> >, COMDAT

; 1647 :     const _InIt _First, const _InIt _Last, _Alloc_ptr_t<_Alloc> _Dest, _Alloc& _Al) {

  00000	55		 push	 ebp
  00001	8b ec		 mov	 ebp, esp
  00003	53		 push	 ebx

; 1648 :     // move [_First, _Last) to raw _Dest, using _Al
; 1649 :     // note: only called internally from elsewhere in the STL
; 1650 :     using _Ptrval     = typename _Alloc::value_type*;
; 1651 :     auto _UFirst      = _Get_unwrapped(_First);
; 1652 :     const auto _ULast = _Get_unwrapped(_Last);
; 1653 :     if constexpr (conjunction_v<bool_constant<_Ptr_move_cat<decltype(_UFirst), _Ptrval>::_Really_trivial>,
; 1654 :                       _Uses_default_construct<_Alloc, _Ptrval, decltype(_STD move(*_UFirst))>>) {
; 1655 :         _Copy_memmove(_UFirst, _ULast, _Unfancy(_Dest));

  00004	8b 5d 10	 mov	 ebx, DWORD PTR __Dest$[ebp]
  00007	57		 push	 edi
  00008	8b 7d 0c	 mov	 edi, DWORD PTR __Last$[ebp]
  0000b	53		 push	 ebx
  0000c	57		 push	 edi
  0000d	ff 75 08	 push	 DWORD PTR __First$[ebp]
  00010	e8 00 00 00 00	 call	 ??$_Copy_memmove@PAPAVCGraphicImageInstance@@PAPAV1@@std@@YAPAPAVCGraphicImageInstance@@PAPAV1@00@Z ; std::_Copy_memmove<CGraphicImageInstance * *,CGraphicImageInstance * *>

; 1656 :         return _Dest + (_ULast - _UFirst);

  00015	2b 7d 08	 sub	 edi, DWORD PTR __First$[ebp]
  00018	83 c4 0c	 add	 esp, 12			; 0000000cH
  0001b	c1 ff 02	 sar	 edi, 2
  0001e	8d 04 bb	 lea	 eax, DWORD PTR [ebx+edi*4]
  00021	5f		 pop	 edi
  00022	5b		 pop	 ebx

; 1657 :     } else {
; 1658 :         _Uninitialized_backout_al<_Alloc> _Backout{_Dest, _Al};
; 1659 :         for (; _UFirst != _ULast; ++_UFirst) {
; 1660 :             _Backout._Emplace_back(_STD move(*_UFirst));
; 1661 :         }
; 1662 : 
; 1663 :         return _Backout._Release();
; 1664 :     }
; 1665 : }

  00023	5d		 pop	 ebp
  00024	c3		 ret	 0
??$_Uninitialized_move@PAPAVCGraphicImageInstance@@V?$allocator@PAVCGraphicImageInstance@@@std@@@std@@YAPAPAVCGraphicImageInstance@@QAPAV1@0PAPAV1@AAV?$allocator@PAVCGraphicImageInstance@@@0@@Z ENDP ; std::_Uninitialized_move<CGraphicImageInstance * *,std::allocator<CGraphicImageInstance *> >
_TEXT	ENDS
; Function compile flags: /Ogtp
; File C:\Program Files (x86)\Microsoft Visual Studio\2019\Community\VC\Tools\MSVC\14.27.29110\include\xmemory
;	COMDAT ??$_Construct_in_place@PAU?$_List_node@PAVCWindow@UI@@PAX@std@@ABQAU12@@std@@YAXAAPAU?$_List_node@PAVCWindow@UI@@PAX@0@ABQAU10@@Z
_TEXT	SEGMENT
__Obj$ = 8						; size = 4
_<_Args_0>$ = 12					; size = 4
??$_Construct_in_place@PAU?$_List_node@PAVCWindow@UI@@PAX@std@@ABQAU12@@std@@YAXAAPAU?$_List_node@PAVCWindow@UI@@PAX@0@ABQAU10@@Z PROC ; std::_Construct_in_place<std::_List_node<UI::CWindow *,void *> *,std::_List_node<UI::CWindow *,void *> * const &>, COMDAT

; 228  : void _Construct_in_place(_Ty& _Obj, _Types&&... _Args) noexcept(is_nothrow_constructible_v<_Ty, _Types...>) {

  00000	55		 push	 ebp
  00001	8b ec		 mov	 ebp, esp

; 229  :     ::new (const_cast<void*>(static_cast<const volatile void*>(_STD addressof(_Obj))))

  00003	8b 45 0c	 mov	 eax, DWORD PTR _<_Args_0>$[ebp]
  00006	8b 08		 mov	 ecx, DWORD PTR [eax]
  00008	8b 45 08	 mov	 eax, DWORD PTR __Obj$[ebp]
  0000b	89 08		 mov	 DWORD PTR [eax], ecx

; 230  :         _Ty(_STD forward<_Types>(_Args)...);
; 231  : }

  0000d	5d		 pop	 ebp
  0000e	c3		 ret	 0
??$_Construct_in_place@PAU?$_List_node@PAVCWindow@UI@@PAX@std@@ABQAU12@@std@@YAXAAPAU?$_List_node@PAVCWindow@UI@@PAX@0@ABQAU10@@Z ENDP ; std::_Construct_in_place<std::_List_node<UI::CWindow *,void *> *,std::_List_node<UI::CWindow *,void *> * const &>
_TEXT	ENDS
; Function compile flags: /Ogtp
; File C:\Program Files (x86)\Microsoft Visual Studio\2019\Community\VC\Tools\MSVC\14.27.29110\include\xmemory
;	COMDAT ??$_Destroy_in_place@PAU?$_List_node@PAVCWindow@UI@@PAX@std@@@std@@YAXAAPAU?$_List_node@PAVCWindow@UI@@PAX@0@@Z
_TEXT	SEGMENT
__Obj$ = 8						; size = 4
??$_Destroy_in_place@PAU?$_List_node@PAVCWindow@UI@@PAX@std@@@std@@YAXAAPAU?$_List_node@PAVCWindow@UI@@PAX@0@@Z PROC ; std::_Destroy_in_place<std::_List_node<UI::CWindow *,void *> *>, COMDAT

; 268  :     _Obj.~_Ty();
; 269  : }

  00000	c2 00 00	 ret	 0
??$_Destroy_in_place@PAU?$_List_node@PAVCWindow@UI@@PAX@std@@@std@@YAXAAPAU?$_List_node@PAVCWindow@UI@@PAX@0@@Z ENDP ; std::_Destroy_in_place<std::_List_node<UI::CWindow *,void *> *>
_TEXT	ENDS
; Function compile flags: /Ogtp
; File C:\Program Files (x86)\Microsoft Visual Studio\2019\Community\VC\Tools\MSVC\14.27.29110\include\xmemory
;	COMDAT ??1?$_Alloc_construct_ptr@V?$allocator@U?$_List_node@PAVCWindow@UI@@PAX@std@@@std@@@std@@QAE@XZ
_TEXT	SEGMENT
??1?$_Alloc_construct_ptr@V?$allocator@U?$_List_node@PAVCWindow@UI@@PAX@std@@@std@@@std@@QAE@XZ PROC ; std::_Alloc_construct_ptr<std::allocator<std::_List_node<UI::CWindow *,void *> > >::~_Alloc_construct_ptr<std::allocator<std::_List_node<UI::CWindow *,void *> > >, COMDAT
; _this$ = ecx

; 1052 :         if (_Ptr) {

  00000	8b 41 04	 mov	 eax, DWORD PTR [ecx+4]
  00003	85 c0		 test	 eax, eax
  00005	74 0b		 je	 SHORT $LN2@Alloc_cons

; 803  :         _Deallocate<_New_alignof<_Ty>>(_Ptr, sizeof(_Ty) * _Count);

  00007	6a 0c		 push	 12			; 0000000cH
  00009	50		 push	 eax
  0000a	e8 00 00 00 00	 call	 ??$_Deallocate@$07$0A@@std@@YAXPAXI@Z ; std::_Deallocate<8,0>
  0000f	83 c4 08	 add	 esp, 8
$LN2@Alloc_cons:

; 1053 :             _Al.deallocate(_Ptr, 1);
; 1054 :         }
; 1055 :     }

  00012	c3		 ret	 0
??1?$_Alloc_construct_ptr@V?$allocator@U?$_List_node@PAVCWindow@UI@@PAX@std@@@std@@@std@@QAE@XZ ENDP ; std::_Alloc_construct_ptr<std::allocator<std::_List_node<UI::CWindow *,void *> > >::~_Alloc_construct_ptr<std::allocator<std::_List_node<UI::CWindow *,void *> > >
_TEXT	ENDS
; Function compile flags: /Ogtp
; File C:\Program Files (x86)\Microsoft Visual Studio\2019\Community\VC\Tools\MSVC\14.27.29110\include\xmemory
;	COMDAT ??$_Construct_in_place@PAU?$_List_node@PAVCWindow@UI@@PAX@std@@AAPAU12@@std@@YAXAAPAU?$_List_node@PAVCWindow@UI@@PAX@0@0@Z
_TEXT	SEGMENT
__Obj$ = 8						; size = 4
_<_Args_0>$ = 12					; size = 4
??$_Construct_in_place@PAU?$_List_node@PAVCWindow@UI@@PAX@std@@AAPAU12@@std@@YAXAAPAU?$_List_node@PAVCWindow@UI@@PAX@0@0@Z PROC ; std::_Construct_in_place<std::_List_node<UI::CWindow *,void *> *,std::_List_node<UI::CWindow *,void *> * &>, COMDAT

; 228  : void _Construct_in_place(_Ty& _Obj, _Types&&... _Args) noexcept(is_nothrow_constructible_v<_Ty, _Types...>) {

  00000	55		 push	 ebp
  00001	8b ec		 mov	 ebp, esp

; 229  :     ::new (const_cast<void*>(static_cast<const volatile void*>(_STD addressof(_Obj))))

  00003	8b 45 0c	 mov	 eax, DWORD PTR _<_Args_0>$[ebp]
  00006	8b 08		 mov	 ecx, DWORD PTR [eax]
  00008	8b 45 08	 mov	 eax, DWORD PTR __Obj$[ebp]
  0000b	89 08		 mov	 DWORD PTR [eax], ecx

; 230  :         _Ty(_STD forward<_Types>(_Args)...);
; 231  : }

  0000d	5d		 pop	 ebp
  0000e	c3		 ret	 0
??$_Construct_in_place@PAU?$_List_node@PAVCWindow@UI@@PAX@std@@AAPAU12@@std@@YAXAAPAU?$_List_node@PAVCWindow@UI@@PAX@0@0@Z ENDP ; std::_Construct_in_place<std::_List_node<UI::CWindow *,void *> *,std::_List_node<UI::CWindow *,void *> * &>
_TEXT	ENDS
; Function compile flags: /Ogtp
; File C:\Program Files (x86)\Microsoft Visual Studio\2019\Community\VC\Tools\MSVC\14.27.29110\include\xmemory
;	COMDAT ??$_Destroy_range@V?$allocator@PAVCGraphicImageInstance@@@std@@@std@@YAXPAPAVCGraphicImageInstance@@QAPAV1@AAV?$allocator@PAVCGraphicImageInstance@@@0@@Z
_TEXT	SEGMENT
__First$ = 8						; size = 4
__Last$ = 12						; size = 4
__Al$ = 16						; size = 4
??$_Destroy_range@V?$allocator@PAVCGraphicImageInstance@@@std@@@std@@YAXPAPAVCGraphicImageInstance@@QAPAV1@AAV?$allocator@PAVCGraphicImageInstance@@@0@@Z PROC ; std::_Destroy_range<std::allocator<CGraphicImageInstance *> >, COMDAT

; 956  :     // note that this is an optimization for debug mode codegen; in release mode the BE removes all of this
; 957  :     using _Ty = typename _Alloc::value_type;
; 958  :     if _CONSTEXPR_IF (!conjunction_v<is_trivially_destructible<_Ty>, _Uses_default_destroy<_Alloc, _Ty*>>) {
; 959  :         for (; _First != _Last; ++_First) {
; 960  :             allocator_traits<_Alloc>::destroy(_Al, _Unfancy(_First));
; 961  :         }
; 962  :     }
; 963  : }

  00000	c2 00 00	 ret	 0
??$_Destroy_range@V?$allocator@PAVCGraphicImageInstance@@@std@@@std@@YAXPAPAVCGraphicImageInstance@@QAPAV1@AAV?$allocator@PAVCGraphicImageInstance@@@0@@Z ENDP ; std::_Destroy_range<std::allocator<CGraphicImageInstance *> >
_TEXT	ENDS
; Function compile flags: /Ogtp
; File C:\Program Files (x86)\Microsoft Visual Studio\2019\Community\VC\Tools\MSVC\14.27.29110\include\vector
; File C:\Program Files (x86)\Microsoft Visual Studio\2019\Community\VC\Tools\MSVC\14.27.29110\include\xmemory
; File C:\Program Files (x86)\Microsoft Visual Studio\2019\Community\VC\Tools\MSVC\14.27.29110\include\vector
; File C:\Program Files (x86)\Microsoft Visual Studio\2019\Community\VC\Tools\MSVC\14.27.29110\include\xmemory
; File C:\Program Files (x86)\Microsoft Visual Studio\2019\Community\VC\Tools\MSVC\14.27.29110\include\vector
; File C:\Program Files (x86)\Microsoft Visual Studio\2019\Community\VC\Tools\MSVC\14.27.29110\include\xmemory
; File C:\Program Files (x86)\Microsoft Visual Studio\2019\Community\VC\Tools\MSVC\14.27.29110\include\vector
; File C:\Program Files (x86)\Microsoft Visual Studio\2019\Community\VC\Tools\MSVC\14.27.29110\include\xmemory
; File C:\Program Files (x86)\Microsoft Visual Studio\2019\Community\VC\Tools\MSVC\14.27.29110\include\vector
; File C:\Program Files (x86)\Microsoft Visual Studio\2019\Community\VC\Tools\MSVC\14.27.29110\include\xmemory
; File C:\Program Files (x86)\Microsoft Visual Studio\2019\Community\VC\Tools\MSVC\14.27.29110\include\vector
;	COMDAT ??$_Emplace_reallocate@ABQAVCGraphicImageInstance@@@?$vector@PAVCGraphicImageInstance@@V?$allocator@PAVCGraphicImageInstance@@@std@@@std@@QAEPAPAVCGraphicImageInstance@@QAPAV2@ABQAV2@@Z
_TEXT	SEGMENT
tv436 = -12						; size = 4
__Newsize$1$ = -8					; size = 4
tv435 = -4						; size = 4
__Whereptr$ = 8						; size = 4
_<_Val_0>$ = 12						; size = 4
??$_Emplace_reallocate@ABQAVCGraphicImageInstance@@@?$vector@PAVCGraphicImageInstance@@V?$allocator@PAVCGraphicImageInstance@@@std@@@std@@QAEPAPAVCGraphicImageInstance@@QAPAV2@ABQAV2@@Z PROC ; std::vector<CGraphicImageInstance *,std::allocator<CGraphicImageInstance *> >::_Emplace_reallocate<CGraphicImageInstance * const &>, COMDAT
; _this$ = ecx

; 725  :     pointer _Emplace_reallocate(const pointer _Whereptr, _Valty&&... _Val) {

  00000	55		 push	 ebp
  00001	8b ec		 mov	 ebp, esp
  00003	83 ec 0c	 sub	 esp, 12			; 0000000cH
  00006	53		 push	 ebx

; 726  :         // reallocate and insert by perfectly forwarding _Val at _Whereptr
; 727  :         _Alty& _Al        = _Getal();
; 728  :         auto& _My_data    = _Mypair._Myval2;
; 729  :         pointer& _Myfirst = _My_data._Myfirst;
; 730  :         pointer& _Mylast  = _My_data._Mylast;
; 731  : 
; 732  :         _STL_INTERNAL_CHECK(_Mylast == _My_data._Myend); // check that we have no unused capacity
; 733  : 
; 734  :         const auto _Whereoff = static_cast<size_type>(_Whereptr - _Myfirst);

  00007	8b 5d 08	 mov	 ebx, DWORD PTR __Whereptr$[ebp]
  0000a	56		 push	 esi
  0000b	8b f1		 mov	 esi, ecx
  0000d	57		 push	 edi
  0000e	8b 16		 mov	 edx, DWORD PTR [esi]
  00010	2b da		 sub	 ebx, edx

; 735  :         const auto _Oldsize  = static_cast<size_type>(_Mylast - _Myfirst);

  00012	8b 46 04	 mov	 eax, DWORD PTR [esi+4]
  00015	2b c2		 sub	 eax, edx
  00017	c1 fb 02	 sar	 ebx, 2
  0001a	c1 f8 02	 sar	 eax, 2

; 736  : 
; 737  :         if (_Oldsize == max_size()) {

  0001d	3d ff ff ff 3f	 cmp	 eax, 1073741823		; 3fffffffH
  00022	0f 84 be 00 00
	00		 je	 $LN39@Emplace_re

; 1494 :         return static_cast<size_type>(_My_data._Myend - _My_data._Myfirst);

  00028	8b 4e 08	 mov	 ecx, DWORD PTR [esi+8]

; 739  :         }
; 740  : 
; 741  :         const size_type _Newsize     = _Oldsize + 1;

  0002b	8d 78 01	 lea	 edi, DWORD PTR [eax+1]

; 1494 :         return static_cast<size_type>(_My_data._Myend - _My_data._Myfirst);

  0002e	2b ca		 sub	 ecx, edx

; 739  :         }
; 740  : 
; 741  :         const size_type _Newsize     = _Oldsize + 1;

  00030	89 7d f8	 mov	 DWORD PTR __Newsize$1$[ebp], edi

; 1494 :         return static_cast<size_type>(_My_data._Myend - _My_data._Myfirst);

  00033	c1 f9 02	 sar	 ecx, 2

; 1619 :         if (_Oldcapacity > max_size() - _Oldcapacity / 2) {

  00036	b8 ff ff ff 3f	 mov	 eax, 1073741823		; 3fffffffH
  0003b	8b d1		 mov	 edx, ecx
  0003d	d1 ea		 shr	 edx, 1
  0003f	2b c2		 sub	 eax, edx
  00041	3b c8		 cmp	 ecx, eax
  00043	76 04		 jbe	 SHORT $LN12@Emplace_re

; 1620 :             return _Newsize; // geometric growth would overflow

  00045	8b c7		 mov	 eax, edi
  00047	eb 08		 jmp	 SHORT $LN13@Emplace_re
$LN12@Emplace_re:

; 1621 :         }
; 1622 : 
; 1623 :         const size_type _Geometric = _Oldcapacity + _Oldcapacity / 2;

  00049	8d 04 0a	 lea	 eax, DWORD PTR [edx+ecx]

; 1624 : 
; 1625 :         if (_Geometric < _Newsize) {

  0004c	3b c7		 cmp	 eax, edi
  0004e	0f 42 c7	 cmovb	 eax, edi
$LN13@Emplace_re:
; File C:\Program Files (x86)\Microsoft Visual Studio\2019\Community\VC\Tools\MSVC\14.27.29110\include\xmemory

; 60   :         if (_Count > _Max_possible) {

  00051	3d ff ff ff 3f	 cmp	 eax, 1073741823		; 3fffffffH
  00056	0f 87 8f 00 00
	00		 ja	 $LN40@Emplace_re

; 62   :         }
; 63   :     }
; 64   : 
; 65   :     return _Count * _Ty_size;

  0005c	c1 e0 02	 shl	 eax, 2

; 807  :         return static_cast<_Ty*>(_Allocate<_New_alignof<_Ty>>(_Get_size_of_n<sizeof(_Ty)>(_Count)));

  0005f	50		 push	 eax

; 65   :     return _Count * _Ty_size;

  00060	89 45 f4	 mov	 DWORD PTR tv436[ebp], eax

; 807  :         return static_cast<_Ty*>(_Allocate<_New_alignof<_Ty>>(_Get_size_of_n<sizeof(_Ty)>(_Count)));

  00063	e8 00 00 00 00	 call	 ??$_Allocate@$07U_Default_allocate_traits@std@@$0A@@std@@YAPAXI@Z ; std::_Allocate<8,std::_Default_allocate_traits,0>
; File C:\Program Files (x86)\Microsoft Visual Studio\2019\Community\VC\Tools\MSVC\14.27.29110\include\vector

; 749  :         _Alty_traits::construct(_Al, _Unfancy(_Newvec + _Whereoff), _STD forward<_Valty>(_Val)...);

  00068	8b 4d 0c	 mov	 ecx, DWORD PTR _<_Val_0>$[ebp]
; File C:\Program Files (x86)\Microsoft Visual Studio\2019\Community\VC\Tools\MSVC\14.27.29110\include\xmemory

; 807  :         return static_cast<_Ty*>(_Allocate<_New_alignof<_Ty>>(_Get_size_of_n<sizeof(_Ty)>(_Count)));

  0006b	8b f8		 mov	 edi, eax
; File C:\Program Files (x86)\Microsoft Visual Studio\2019\Community\VC\Tools\MSVC\14.27.29110\include\vector

; 749  :         _Alty_traits::construct(_Al, _Unfancy(_Newvec + _Whereoff), _STD forward<_Valty>(_Val)...);

  0006d	8d 04 9f	 lea	 eax, DWORD PTR [edi+ebx*4]
; File C:\Program Files (x86)\Microsoft Visual Studio\2019\Community\VC\Tools\MSVC\14.27.29110\include\xmemory

; 807  :         return static_cast<_Ty*>(_Allocate<_New_alignof<_Ty>>(_Get_size_of_n<sizeof(_Ty)>(_Count)));

  00070	83 c4 04	 add	 esp, 4
; File C:\Program Files (x86)\Microsoft Visual Studio\2019\Community\VC\Tools\MSVC\14.27.29110\include\vector

; 752  :         if (_Whereptr == _Mylast) { // at back, provide strong guarantee

  00073	8b 5d 08	 mov	 ebx, DWORD PTR __Whereptr$[ebp]
  00076	89 45 fc	 mov	 DWORD PTR tv435[ebp], eax
  00079	8b 09		 mov	 ecx, DWORD PTR [ecx]
  0007b	89 08		 mov	 DWORD PTR [eax], ecx
  0007d	8b 56 04	 mov	 edx, DWORD PTR [esi+4]
  00080	8b 0e		 mov	 ecx, DWORD PTR [esi]
  00082	3b da		 cmp	 ebx, edx
  00084	75 07		 jne	 SHORT $LN4@Emplace_re

; 753  :             _Umove_if_noexcept(_Myfirst, _Mylast, _Newvec);
; 754  :         } else { // provide basic guarantee

  00086	8b 5d fc	 mov	 ebx, DWORD PTR tv435[ebp]

; 1597 :         _Uninitialized_move(_First, _Last, _Dest, _Getal());

  00089	8b c7		 mov	 eax, edi

; 753  :             _Umove_if_noexcept(_Myfirst, _Mylast, _Newvec);
; 754  :         } else { // provide basic guarantee

  0008b	eb 17		 jmp	 SHORT $LN5@Emplace_re
$LN4@Emplace_re:

; 1592 :         return _Uninitialized_move(_First, _Last, _Dest, _Getal());

  0008d	56		 push	 esi
  0008e	57		 push	 edi
  0008f	53		 push	 ebx
  00090	51		 push	 ecx
  00091	e8 00 00 00 00	 call	 ??$_Uninitialized_move@PAPAVCGraphicImageInstance@@V?$allocator@PAVCGraphicImageInstance@@@std@@@std@@YAPAPAVCGraphicImageInstance@@QAPAV1@0PAPAV1@AAV?$allocator@PAVCGraphicImageInstance@@@0@@Z ; std::_Uninitialized_move<CGraphicImageInstance * *,std::allocator<CGraphicImageInstance *> >
  00096	8b 56 04	 mov	 edx, DWORD PTR [esi+4]
  00099	8b cb		 mov	 ecx, ebx

; 755  :             _Umove(_Myfirst, _Whereptr, _Newvec);
; 756  :             _Constructed_first = _Newvec;
; 757  :             _Umove(_Whereptr, _Mylast, _Newvec + _Whereoff + 1);

  0009b	8b 5d fc	 mov	 ebx, DWORD PTR tv435[ebp]

; 1592 :         return _Uninitialized_move(_First, _Last, _Dest, _Getal());

  0009e	83 c4 10	 add	 esp, 16			; 00000010H

; 755  :             _Umove(_Myfirst, _Whereptr, _Newvec);
; 756  :             _Constructed_first = _Newvec;
; 757  :             _Umove(_Whereptr, _Mylast, _Newvec + _Whereoff + 1);

  000a1	8d 43 04	 lea	 eax, DWORD PTR [ebx+4]
$LN5@Emplace_re:
  000a4	56		 push	 esi
  000a5	50		 push	 eax
  000a6	52		 push	 edx
  000a7	51		 push	 ecx
  000a8	e8 00 00 00 00	 call	 ??$_Uninitialized_move@PAPAVCGraphicImageInstance@@V?$allocator@PAVCGraphicImageInstance@@@std@@@std@@YAPAPAVCGraphicImageInstance@@QAPAV1@0PAPAV1@AAV?$allocator@PAVCGraphicImageInstance@@@0@@Z ; std::_Uninitialized_move<CGraphicImageInstance * *,std::allocator<CGraphicImageInstance *> >

; 1675 :         if (_Myfirst) { // destroy and deallocate old array

  000ad	8b 0e		 mov	 ecx, DWORD PTR [esi]

; 755  :             _Umove(_Myfirst, _Whereptr, _Newvec);
; 756  :             _Constructed_first = _Newvec;
; 757  :             _Umove(_Whereptr, _Mylast, _Newvec + _Whereoff + 1);

  000af	83 c4 10	 add	 esp, 16			; 00000010H

; 1675 :         if (_Myfirst) { // destroy and deallocate old array

  000b2	85 c9		 test	 ecx, ecx
  000b4	74 12		 je	 SHORT $LN33@Emplace_re

; 1676 :             _Destroy(_Myfirst, _Mylast);
; 1677 :             _Getal().deallocate(_Myfirst, static_cast<size_type>(_Myend - _Myfirst));

  000b6	8b 46 08	 mov	 eax, DWORD PTR [esi+8]
  000b9	2b c1		 sub	 eax, ecx
; File C:\Program Files (x86)\Microsoft Visual Studio\2019\Community\VC\Tools\MSVC\14.27.29110\include\xmemory

; 803  :         _Deallocate<_New_alignof<_Ty>>(_Ptr, sizeof(_Ty) * _Count);

  000bb	83 e0 fc	 and	 eax, -4			; fffffffcH
  000be	50		 push	 eax
  000bf	51		 push	 ecx
  000c0	e8 00 00 00 00	 call	 ??$_Deallocate@$07$0A@@std@@YAXPAXI@Z ; std::_Deallocate<8,0>
  000c5	83 c4 08	 add	 esp, 8
$LN33@Emplace_re:
; File C:\Program Files (x86)\Microsoft Visual Studio\2019\Community\VC\Tools\MSVC\14.27.29110\include\vector

; 1681 :         _Mylast  = _Newvec + _Newsize;

  000c8	8b 4d f8	 mov	 ecx, DWORD PTR __Newsize$1$[ebp]

; 758  :         }
; 759  :         _CATCH_ALL
; 760  :         _Destroy(_Constructed_first, _Constructed_last);
; 761  :         _Al.deallocate(_Newvec, _Newcapacity);
; 762  :         _RERAISE;
; 763  :         _CATCH_END
; 764  : 
; 765  :         _Change_array(_Newvec, _Newsize, _Newcapacity);
; 766  :         return _Newvec + _Whereoff;

  000cb	8b c3		 mov	 eax, ebx

; 1680 :         _Myfirst = _Newvec;

  000cd	89 3e		 mov	 DWORD PTR [esi], edi

; 1681 :         _Mylast  = _Newvec + _Newsize;

  000cf	8d 0c 8f	 lea	 ecx, DWORD PTR [edi+ecx*4]
  000d2	89 4e 04	 mov	 DWORD PTR [esi+4], ecx

; 1682 :         _Myend   = _Newvec + _Newcapacity;

  000d5	8b 4d f4	 mov	 ecx, DWORD PTR tv436[ebp]
  000d8	03 cf		 add	 ecx, edi

; 758  :         }
; 759  :         _CATCH_ALL
; 760  :         _Destroy(_Constructed_first, _Constructed_last);
; 761  :         _Al.deallocate(_Newvec, _Newcapacity);
; 762  :         _RERAISE;
; 763  :         _CATCH_END
; 764  : 
; 765  :         _Change_array(_Newvec, _Newsize, _Newcapacity);
; 766  :         return _Newvec + _Whereoff;

  000da	5f		 pop	 edi

; 1682 :         _Myend   = _Newvec + _Newcapacity;

  000db	89 4e 08	 mov	 DWORD PTR [esi+8], ecx

; 758  :         }
; 759  :         _CATCH_ALL
; 760  :         _Destroy(_Constructed_first, _Constructed_last);
; 761  :         _Al.deallocate(_Newvec, _Newcapacity);
; 762  :         _RERAISE;
; 763  :         _CATCH_END
; 764  : 
; 765  :         _Change_array(_Newvec, _Newsize, _Newcapacity);
; 766  :         return _Newvec + _Whereoff;

  000de	5e		 pop	 esi
  000df	5b		 pop	 ebx

; 767  :     }

  000e0	8b e5		 mov	 esp, ebp
  000e2	5d		 pop	 ebp
  000e3	c2 08 00	 ret	 8
$LN39@Emplace_re:

; 738  :             _Xlength();

  000e6	e8 00 00 00 00	 call	 ?_Xlength@?$vector@PAVCGraphicImageInstance@@V?$allocator@PAVCGraphicImageInstance@@@std@@@std@@CAXXZ ; std::vector<CGraphicImageInstance *,std::allocator<CGraphicImageInstance *> >::_Xlength
$LN40@Emplace_re:
; File C:\Program Files (x86)\Microsoft Visual Studio\2019\Community\VC\Tools\MSVC\14.27.29110\include\xmemory

; 61   :             _Throw_bad_array_new_length(); // multiply overflow

  000eb	e8 00 00 00 00	 call	 ?_Throw_bad_array_new_length@std@@YAXXZ ; std::_Throw_bad_array_new_length
$LN37@Emplace_re:
  000f0	cc		 int	 3
??$_Emplace_reallocate@ABQAVCGraphicImageInstance@@@?$vector@PAVCGraphicImageInstance@@V?$allocator@PAVCGraphicImageInstance@@@std@@@std@@QAEPAPAVCGraphicImageInstance@@QAPAV2@ABQAV2@@Z ENDP ; std::vector<CGraphicImageInstance *,std::allocator<CGraphicImageInstance *> >::_Emplace_reallocate<CGraphicImageInstance * const &>
_TEXT	ENDS
; Function compile flags: /Ogtp
; File C:\Program Files (x86)\Microsoft Visual Studio\2019\Community\VC\Tools\MSVC\14.27.29110\include\xstring
; File C:\Program Files (x86)\Microsoft Visual Studio\2019\Community\VC\Tools\MSVC\14.27.29110\include\utility
; File C:\Program Files (x86)\Microsoft Visual Studio\2019\Community\VC\Tools\MSVC\14.27.29110\include\xstring
; File C:\Program Files (x86)\Microsoft Visual Studio\2019\Community\VC\Tools\MSVC\14.27.29110\include\xmemory
; File C:\Program Files (x86)\Microsoft Visual Studio\2019\Community\VC\Tools\MSVC\14.27.29110\include\xstring
;	COMDAT ??$?HDU?$char_traits@D@std@@V?$allocator@D@1@@std@@YA?AV?$basic_string@DU?$char_traits@D@std@@V?$allocator@D@2@@0@ABV10@QBD@Z
_TEXT	SEGMENT
__Left_size$1$ = -12					; size = 4
__Fancyptr$1 = -8					; size = 4
__New_size$1$ = -4					; size = 4
___$ReturnUdt$ = 8					; size = 4
__Ptr$1$ = 12						; size = 4
__Left$ = 12						; size = 4
__Right$ = 16						; size = 4
??$?HDU?$char_traits@D@std@@V?$allocator@D@1@@std@@YA?AV?$basic_string@DU?$char_traits@D@std@@V?$allocator@D@2@@0@ABV10@QBD@Z PROC ; std::operator+<char,std::char_traits<char>,std::allocator<char> >, COMDAT

; 4396 :     const basic_string<_Elem, _Traits, _Alloc>& _Left, _In_z_ const _Elem* const _Right) {

  00000	55		 push	 ebp
  00001	8b ec		 mov	 ebp, esp
  00003	83 ec 0c	 sub	 esp, 12			; 0000000cH
  00006	53		 push	 ebx

; 4397 :     using _Size_type       = typename basic_string<_Elem, _Traits, _Alloc>::size_type;
; 4398 :     const auto _Left_size  = _Left.size();

  00007	8b 5d 0c	 mov	 ebx, DWORD PTR __Left$[ebp]
  0000a	56		 push	 esi

; 321  :         return _CSTD strlen(reinterpret_cast<const char*>(_First));

  0000b	8b 75 10	 mov	 esi, DWORD PTR __Right$[ebp]

; 4396 :     const basic_string<_Elem, _Traits, _Alloc>& _Left, _In_z_ const _Elem* const _Right) {

  0000e	57		 push	 edi

; 4397 :     using _Size_type       = typename basic_string<_Elem, _Traits, _Alloc>::size_type;
; 4398 :     const auto _Left_size  = _Left.size();

  0000f	8b 4b 10	 mov	 ecx, DWORD PTR [ebx+16]
  00012	89 4d f4	 mov	 DWORD PTR __Left_size$1$[ebp], ecx

; 321  :         return _CSTD strlen(reinterpret_cast<const char*>(_First));

  00015	8d 56 01	 lea	 edx, DWORD PTR [esi+1]
$LL34@operator:
  00018	8a 06		 mov	 al, BYTE PTR [esi]
  0001a	46		 inc	 esi
  0001b	84 c0		 test	 al, al
  0001d	75 f9		 jne	 SHORT $LL34@operator

; 4399 :     const auto _Right_size = _Convert_size<_Size_type>(_Traits::length(_Right));
; 4400 :     if (_Left.max_size() - _Left_size < _Right_size) {

  0001f	b8 ff ff ff 7f	 mov	 eax, 2147483647		; 7fffffffH

; 321  :         return _CSTD strlen(reinterpret_cast<const char*>(_First));

  00024	2b f2		 sub	 esi, edx

; 4399 :     const auto _Right_size = _Convert_size<_Size_type>(_Traits::length(_Right));
; 4400 :     if (_Left.max_size() - _Left_size < _Right_size) {

  00026	2b c1		 sub	 eax, ecx
  00028	3b c6		 cmp	 eax, esi
  0002a	0f 82 a1 00 00
	00		 jb	 $LN37@operator

; 2153 :         return _BUF_SIZE <= _Myres;

  00030	83 7b 14 10	 cmp	 DWORD PTR [ebx+20], 16	; 00000010H

; 2145 :         if (_Large_string_engaged()) {

  00034	72 02		 jb	 SHORT $LN11@operator

; 2146 :             _Result = _Unfancy(_Bx._Ptr);

  00036	8b 1b		 mov	 ebx, DWORD PTR [ebx]
$LN11@operator:

; 2124 :     _String_val() : _Bx(), _Mysize(0), _Myres(0) {}

  00038	8b 45 08	 mov	 eax, DWORD PTR ___$ReturnUdt$[ebp]

; 2447 :         const auto _New_size    = static_cast<size_type>(_Left_size + _Right_size);

  0003b	03 ce		 add	 ecx, esi

; 2448 :         size_type _New_capacity = _BUF_SIZE - 1;

  0003d	bf 0f 00 00 00	 mov	 edi, 15			; 0000000fH
  00042	89 4d fc	 mov	 DWORD PTR __New_size$1$[ebp], ecx

; 2449 :         auto& _My_data          = _Mypair._Myval2;
; 2450 :         _Elem* _Ptr             = _My_data._Bx._Buf;

  00045	89 45 0c	 mov	 DWORD PTR __Ptr$1$[ebp], eax

; 2124 :     _String_val() : _Bx(), _Mysize(0), _Myres(0) {}

  00048	c7 40 10 00 00
	00 00		 mov	 DWORD PTR [eax+16], 0
  0004f	c7 40 14 00 00
	00 00		 mov	 DWORD PTR [eax+20], 0

; 2453 :         if (_New_capacity < _New_size) {

  00056	3b cf		 cmp	 ecx, edi
  00058	76 42		 jbe	 SHORT $LN16@operator

; 4201 :         const size_type _Masked = _Requested | _ALLOC_MASK;

  0005a	8b f9		 mov	 edi, ecx
  0005c	83 cf 0f	 or	 edi, 15			; 0000000fH
  0005f	81 ff ff ff ff
	7f		 cmp	 edi, 2147483647		; 7fffffffH

; 4202 :         if (_Masked > _Max) { // the mask overflows, settle for max_size()

  00065	76 07		 jbe	 SHORT $LN23@operator

; 4203 :             return _Max;

  00067	bf ff ff ff 7f	 mov	 edi, 2147483647		; 7fffffffH
  0006c	eb 0a		 jmp	 SHORT $LN22@operator
$LN23@operator:
; File C:\Program Files (x86)\Microsoft Visual Studio\2019\Community\VC\Tools\MSVC\14.27.29110\include\utility

; 44   :     return _Left < _Right ? _Right : _Left;

  0006e	b8 16 00 00 00	 mov	 eax, 22			; 00000016H
  00073	3b f8		 cmp	 edi, eax
  00075	0f 42 f8	 cmovb	 edi, eax
$LN22@operator:
; File C:\Program Files (x86)\Microsoft Visual Studio\2019\Community\VC\Tools\MSVC\14.27.29110\include\xstring

; 2455 :             const pointer _Fancyptr = _Getal().allocate(_New_capacity + 1); // throws

  00078	8d 47 01	 lea	 eax, DWORD PTR [edi+1]
; File C:\Program Files (x86)\Microsoft Visual Studio\2019\Community\VC\Tools\MSVC\14.27.29110\include\xmemory

; 807  :         return static_cast<_Ty*>(_Allocate<_New_alignof<_Ty>>(_Get_size_of_n<sizeof(_Ty)>(_Count)));

  0007b	50		 push	 eax
  0007c	e8 00 00 00 00	 call	 ??$_Allocate@$07U_Default_allocate_traits@std@@$0A@@std@@YAPAXI@Z ; std::_Allocate<8,std::_Default_allocate_traits,0>
; File C:\Program Files (x86)\Microsoft Visual Studio\2019\Community\VC\Tools\MSVC\14.27.29110\include\xstring

; 2455 :             const pointer _Fancyptr = _Getal().allocate(_New_capacity + 1); // throws

  00081	89 45 0c	 mov	 DWORD PTR __Ptr$1$[ebp], eax
  00084	89 45 f8	 mov	 DWORD PTR __Fancyptr$1[ebp], eax

; 2456 :             _Ptr                    = _Unfancy(_Fancyptr);
; 2457 :             _Construct_in_place(_My_data._Bx._Ptr, _Fancyptr);

  00087	8d 45 f8	 lea	 eax, DWORD PTR __Fancyptr$1[ebp]
  0008a	50		 push	 eax
  0008b	ff 75 08	 push	 DWORD PTR ___$ReturnUdt$[ebp]
  0008e	e8 00 00 00 00	 call	 ??$_Construct_in_place@PADABQAD@std@@YAXAAPADABQAD@Z ; std::_Construct_in_place<char *,char * const &>
  00093	8b 45 08	 mov	 eax, DWORD PTR ___$ReturnUdt$[ebp]
  00096	83 c4 0c	 add	 esp, 12			; 0000000cH
  00099	8b 4d fc	 mov	 ecx, DWORD PTR __New_size$1$[ebp]
$LN16@operator:

; 2461 :         _My_data._Myres  = _New_capacity;

  0009c	89 78 14	 mov	 DWORD PTR [eax+20], edi

; 328  :         return static_cast<_Elem*>(_CSTD memcpy(_First1, _First2, _Count));

  0009f	8b 7d f4	 mov	 edi, DWORD PTR __Left_size$1$[ebp]
  000a2	57		 push	 edi
  000a3	53		 push	 ebx
  000a4	8b 5d 0c	 mov	 ebx, DWORD PTR __Ptr$1$[ebp]
  000a7	53		 push	 ebx

; 2460 :         _My_data._Mysize = _New_size;

  000a8	89 48 10	 mov	 DWORD PTR [eax+16], ecx

; 328  :         return static_cast<_Elem*>(_CSTD memcpy(_First1, _First2, _Count));

  000ab	e8 00 00 00 00	 call	 _memcpy
  000b0	56		 push	 esi
  000b1	ff 75 10	 push	 DWORD PTR __Right$[ebp]

; 2463 :         _Traits::copy(_Ptr + static_cast<ptrdiff_t>(_Left_size), _Right_ptr, _Right_size);

  000b4	8d 0c 3b	 lea	 ecx, DWORD PTR [ebx+edi]

; 328  :         return static_cast<_Elem*>(_CSTD memcpy(_First1, _First2, _Count));

  000b7	51		 push	 ecx
  000b8	e8 00 00 00 00	 call	 _memcpy

; 2464 :         _Traits::assign(_Ptr[_New_size], _Elem());

  000bd	8b 45 fc	 mov	 eax, DWORD PTR __New_size$1$[ebp]

; 328  :         return static_cast<_Elem*>(_CSTD memcpy(_First1, _First2, _Count));

  000c0	83 c4 18	 add	 esp, 24			; 00000018H

; 4402 :     }
; 4403 : 
; 4404 :     return {_String_constructor_concat_tag{}, _Left, _Left.c_str(), _Left_size, _Right, _Right_size};

  000c3	5f		 pop	 edi

; 2464 :         _Traits::assign(_Ptr[_New_size], _Elem());

  000c4	c6 04 03 00	 mov	 BYTE PTR [ebx+eax], 0

; 4402 :     }
; 4403 : 
; 4404 :     return {_String_constructor_concat_tag{}, _Left, _Left.c_str(), _Left_size, _Right, _Right_size};

  000c8	8b 45 08	 mov	 eax, DWORD PTR ___$ReturnUdt$[ebp]
  000cb	5e		 pop	 esi
  000cc	5b		 pop	 ebx

; 4405 : }

  000cd	8b e5		 mov	 esp, ebp
  000cf	5d		 pop	 ebp
  000d0	c3		 ret	 0
$LN37@operator:

; 4401 :         _Xlen_string();

  000d1	e8 00 00 00 00	 call	 ?_Xlen_string@std@@YAXXZ ; std::_Xlen_string
$LN35@operator:
  000d6	cc		 int	 3
??$?HDU?$char_traits@D@std@@V?$allocator@D@1@@std@@YA?AV?$basic_string@DU?$char_traits@D@std@@V?$allocator@D@2@@0@ABV10@QBD@Z ENDP ; std::operator+<char,std::char_traits<char>,std::allocator<char> >
_TEXT	ENDS
; Function compile flags: /Ogtp
; File C:\Program Files (x86)\Microsoft Visual Studio\2019\Community\VC\Tools\MSVC\14.27.29110\include\functional
;	COMDAT ??$mem_fun@JVCWindow@UI@@@std@@YA?AV?$mem_fun_t@JVCWindow@UI@@@0@P8CWindow@UI@@AEJXZ@Z
_TEXT	SEGMENT
___$ReturnUdt$ = 8					; size = 4
__Pm$ = 12						; size = 4
??$mem_fun@JVCWindow@UI@@@std@@YA?AV?$mem_fun_t@JVCWindow@UI@@@0@P8CWindow@UI@@AEJXZ@Z PROC ; std::mem_fun<long,UI::CWindow>, COMDAT

; 540  : _NODISCARD mem_fun_t<_Result, _Ty> mem_fun(_Result (_Ty::*_Pm)()) {

  00000	55		 push	 ebp
  00001	8b ec		 mov	 ebp, esp

; 485  :     explicit mem_fun_t(_Result (_Ty::*_Pm)()) : _Pmemfun(_Pm) {}

  00003	8b 45 08	 mov	 eax, DWORD PTR ___$ReturnUdt$[ebp]
  00006	8b 4d 0c	 mov	 ecx, DWORD PTR __Pm$[ebp]
  00009	89 08		 mov	 DWORD PTR [eax], ecx

; 541  :     return mem_fun_t<_Result, _Ty>(_Pm);
; 542  : }

  0000b	5d		 pop	 ebp
  0000c	c3		 ret	 0
??$mem_fun@JVCWindow@UI@@@std@@YA?AV?$mem_fun_t@JVCWindow@UI@@@0@P8CWindow@UI@@AEJXZ@Z ENDP ; std::mem_fun<long,UI::CWindow>
_TEXT	ENDS
; Function compile flags: /Ogtp
;	COMDAT ??_GCDragButton@UI@@UAEPAXI@Z
_TEXT	SEGMENT
___flags$ = 8						; size = 4
??_GCDragButton@UI@@UAEPAXI@Z PROC			; UI::CDragButton::`scalar deleting destructor', COMDAT
; _this$ = ecx
  00000	55		 push	 ebp
  00001	8b ec		 mov	 ebp, esp
  00003	56		 push	 esi
  00004	8b f1		 mov	 esi, ecx
  00006	e8 00 00 00 00	 call	 ??1CDragButton@UI@@UAE@XZ ; UI::CDragButton::~CDragButton
  0000b	f6 45 08 01	 test	 BYTE PTR ___flags$[ebp], 1
  0000f	74 0e		 je	 SHORT $LN4@scalar
  00011	68 1c 01 00 00	 push	 284			; 0000011cH
  00016	56		 push	 esi
  00017	e8 00 00 00 00	 call	 ??3@YAXPAXI@Z		; operator delete
  0001c	83 c4 08	 add	 esp, 8
$LN4@scalar:
  0001f	8b c6		 mov	 eax, esi
  00021	5e		 pop	 esi
  00022	5d		 pop	 ebp
  00023	c2 04 00	 ret	 4
??_GCDragButton@UI@@UAEPAXI@Z ENDP			; UI::CDragButton::`scalar deleting destructor'
_TEXT	ENDS
; Function compile flags: /Ogtp
; File C:\DS Project\DS Files\Source\ClientSource\Client\eterPythonLib\PythonWindow.cpp
;	COMDAT ?OnMouseOverOut@CDragButton@UI@@MAEXXZ
_TEXT	SEGMENT
?OnMouseOverOut@CDragButton@UI@@MAEXXZ PROC		; UI::CDragButton::OnMouseOverOut, COMDAT
; _this$ = ecx

; 2038 : 	{

  00000	56		 push	 esi
  00001	8b f1		 mov	 esi, ecx

; 2039 : 		if (!IsEnable())

  00003	e8 00 00 00 00	 call	 ?IsEnable@CButton@UI@@IAEHXZ ; UI::CButton::IsEnable
  00008	85 c0		 test	 eax, eax
  0000a	74 1d		 je	 SHORT $LN1@OnMouseOve

; 2040 : 			return;
; 2041 : 
; 2042 : 		CButton::OnMouseOverIn();

  0000c	8b ce		 mov	 ecx, esi
  0000e	e8 00 00 00 00	 call	 ?OnMouseOverIn@CButton@UI@@MAEXXZ ; UI::CButton::OnMouseOverIn

; 2043 : 		PyCallClassMemberFunc(m_poHandler, "OnMouseOverOut", BuildEmptyTuple());

  00013	e8 00 00 00 00	 call	 ?BuildEmptyTuple@UI@@YAPAU_object@@XZ ; UI::BuildEmptyTuple
  00018	50		 push	 eax
  00019	68 00 00 00 00	 push	 OFFSET ??_C@_0P@KLLBNOAI@OnMouseOverOut@
  0001e	ff 76 5c	 push	 DWORD PTR [esi+92]
  00021	e8 00 00 00 00	 call	 ?PyCallClassMemberFunc@@YA_NPAU_object@@PBD0@Z ; PyCallClassMemberFunc
  00026	83 c4 0c	 add	 esp, 12			; 0000000cH
$LN1@OnMouseOve:

; 2044 : 	}

  00029	5e		 pop	 esi
  0002a	c3		 ret	 0
?OnMouseOverOut@CDragButton@UI@@MAEXXZ ENDP		; UI::CDragButton::OnMouseOverOut
_TEXT	ENDS
; Function compile flags: /Ogtp
; File C:\DS Project\DS Files\Source\ClientSource\Client\eterPythonLib\PythonWindow.cpp
;	COMDAT ?OnMouseOverIn@CDragButton@UI@@MAEXXZ
_TEXT	SEGMENT
?OnMouseOverIn@CDragButton@UI@@MAEXXZ PROC		; UI::CDragButton::OnMouseOverIn, COMDAT
; _this$ = ecx

; 2028 : 	{

  00000	56		 push	 esi
  00001	8b f1		 mov	 esi, ecx

; 2029 : 		if (!IsEnable())

  00003	e8 00 00 00 00	 call	 ?IsEnable@CButton@UI@@IAEHXZ ; UI::CButton::IsEnable
  00008	85 c0		 test	 eax, eax
  0000a	74 1d		 je	 SHORT $LN1@OnMouseOve

; 2030 : 
; 2031 : 			return;
; 2032 : 
; 2033 : 		CButton::OnMouseOverIn();

  0000c	8b ce		 mov	 ecx, esi
  0000e	e8 00 00 00 00	 call	 ?OnMouseOverIn@CButton@UI@@MAEXXZ ; UI::CButton::OnMouseOverIn

; 2034 : 		PyCallClassMemberFunc(m_poHandler, "OnMouseOverIn", BuildEmptyTuple());

  00013	e8 00 00 00 00	 call	 ?BuildEmptyTuple@UI@@YAPAU_object@@XZ ; UI::BuildEmptyTuple
  00018	50		 push	 eax
  00019	68 00 00 00 00	 push	 OFFSET ??_C@_0O@JKDAFDCC@OnMouseOverIn@
  0001e	ff 76 5c	 push	 DWORD PTR [esi+92]
  00021	e8 00 00 00 00	 call	 ?PyCallClassMemberFunc@@YA_NPAU_object@@PBD0@Z ; PyCallClassMemberFunc
  00026	83 c4 0c	 add	 esp, 12			; 0000000cH
$LN1@OnMouseOve:

; 2035 : 	}

  00029	5e		 pop	 esi
  0002a	c3		 ret	 0
?OnMouseOverIn@CDragButton@UI@@MAEXXZ ENDP		; UI::CDragButton::OnMouseOverIn
_TEXT	ENDS
; Function compile flags: /Ogtp
; File C:\DS Project\DS Files\Source\ClientSource\Client\eterPythonLib\PythonWindow.cpp
; File C:\Program Files (x86)\Microsoft Visual Studio\2019\Community\VC\Tools\MSVC\14.27.29110\include\list
; File C:\DS Project\DS Files\Source\ClientSource\Client\eterPythonLib\PythonWindow.cpp
; File C:\Program Files (x86)\Microsoft Visual Studio\2019\Community\VC\Tools\MSVC\14.27.29110\include\list
; File C:\DS Project\DS Files\Source\ClientSource\Client\eterPythonLib\PythonWindow.cpp
; File C:\Program Files (x86)\Microsoft Visual Studio\2019\Community\VC\Tools\MSVC\14.27.29110\include\list
; File C:\Program Files (x86)\Microsoft Visual Studio\2019\Community\VC\Tools\MSVC\14.27.29110\include\algorithm
; File C:\Program Files (x86)\Microsoft Visual Studio\2019\Community\VC\Tools\MSVC\14.27.29110\include\functional
; File C:\Program Files (x86)\Microsoft Visual Studio\2019\Community\VC\Tools\MSVC\14.27.29110\include\list
; File C:\Program Files (x86)\Microsoft Visual Studio\2019\Community\VC\Tools\MSVC\14.27.29110\include\algorithm
; File C:\DS Project\DS Files\Source\ClientSource\Client\eterPythonLib\PythonWindow.cpp
;	COMDAT ?OnChangePosition@CDragButton@UI@@MAEXXZ
_TEXT	SEGMENT
$T1 = -12						; size = 4
_this$1$ = -8						; size = 4
tv902 = -4						; size = 4
?OnChangePosition@CDragButton@UI@@MAEXXZ PROC		; UI::CDragButton::OnChangePosition, COMDAT
; _this$ = ecx

; 1999 : 	{

  00000	55		 push	 ebp
  00001	8b ec		 mov	 ebp, esp
  00003	83 ec 0c	 sub	 esp, 12			; 0000000cH
  00006	53		 push	 ebx
  00007	8b d9		 mov	 ebx, ecx
  00009	56		 push	 esi
  0000a	89 5d f8	 mov	 DWORD PTR _this$1$[ebp], ebx

; 2000 : 		m_x = max(m_x, m_restrictArea.left);

  0000d	8b 83 0c 01 00
	00		 mov	 eax, DWORD PTR [ebx+268]
  00013	8b 53 24	 mov	 edx, DWORD PTR [ebx+36]
  00016	3b d0		 cmp	 edx, eax

; 2001 : 		m_y = max(m_y, m_restrictArea.top);

  00018	8b 4b 28	 mov	 ecx, DWORD PTR [ebx+40]

; 2002 : 		m_x = min(m_x, max(0, m_restrictArea.right - m_lWidth));

  0001b	8b b3 14 01 00
	00		 mov	 esi, DWORD PTR [ebx+276]
  00021	0f 4e d0	 cmovle	 edx, eax
  00024	8b 83 10 01 00
	00		 mov	 eax, DWORD PTR [ebx+272]
  0002a	3b c8		 cmp	 ecx, eax
  0002c	0f 4e c8	 cmovle	 ecx, eax
  0002f	2b 73 2c	 sub	 esi, DWORD PTR [ebx+44]
  00032	b8 00 00 00 00	 mov	 eax, 0
  00037	0f 49 c6	 cmovns	 eax, esi
  0003a	3b d0		 cmp	 edx, eax
  0003c	7c 09		 jl	 SHORT $LN12@OnChangePo
  0003e	33 c0		 xor	 eax, eax
  00040	8b d6		 mov	 edx, esi
  00042	85 f6		 test	 esi, esi
  00044	0f 48 d0	 cmovs	 edx, eax
$LN12@OnChangePo:

; 2003 : 		m_y = min(m_y, max(0, m_restrictArea.bottom - m_lHeight));

  00047	8b b3 18 01 00
	00		 mov	 esi, DWORD PTR [ebx+280]
  0004d	b8 00 00 00 00	 mov	 eax, 0
  00052	57		 push	 edi
  00053	8b 7b 30	 mov	 edi, DWORD PTR [ebx+48]
  00056	2b f7		 sub	 esi, edi
  00058	89 53 24	 mov	 DWORD PTR [ebx+36], edx
  0005b	0f 49 c6	 cmovns	 eax, esi
  0005e	3b c8		 cmp	 ecx, eax
  00060	7c 09		 jl	 SHORT $LN18@OnChangePo
  00062	33 c0		 xor	 eax, eax
  00064	8b ce		 mov	 ecx, esi
  00066	85 f6		 test	 esi, esi
  00068	0f 48 c8	 cmovs	 ecx, eax
$LN18@OnChangePo:

; 2004 : 
; 2005 : 		m_rect.left = m_x;
; 2006 : 		m_rect.top = m_y;
; 2007 : 
; 2008 : 		if (m_pParent)

  0006b	8b 73 60	 mov	 esi, DWORD PTR [ebx+96]
  0006e	89 4b 28	 mov	 DWORD PTR [ebx+40], ecx
  00071	89 53 34	 mov	 DWORD PTR [ebx+52], edx
  00074	89 4b 38	 mov	 DWORD PTR [ebx+56], ecx
  00077	85 f6		 test	 esi, esi
  00079	74 0c		 je	 SHORT $LN2@OnChangePo

; 2009 : 		{
; 2010 : 			const RECT & c_rRect = m_pParent->GetRect();
; 2011 : 			m_rect.left += c_rRect.left;

  0007b	03 56 34	 add	 edx, DWORD PTR [esi+52]
  0007e	89 53 34	 mov	 DWORD PTR [ebx+52], edx

; 2012 : 			m_rect.top += c_rRect.top;

  00081	03 4e 38	 add	 ecx, DWORD PTR [esi+56]
  00084	89 4b 38	 mov	 DWORD PTR [ebx+56], ecx
$LN2@OnChangePo:

; 2013 : 		}
; 2014 : 
; 2015 : 		m_rect.right = m_rect.left + m_lWidth;

  00087	8b 43 2c	 mov	 eax, DWORD PTR [ebx+44]
  0008a	03 c2		 add	 eax, edx
  0008c	89 43 3c	 mov	 DWORD PTR [ebx+60], eax

; 2016 : 		m_rect.bottom = m_rect.top + m_lHeight;

  0008f	8d 04 0f	 lea	 eax, DWORD PTR [edi+ecx]
  00092	89 43 40	 mov	 DWORD PTR [ebx+64], eax
; File C:\Program Files (x86)\Microsoft Visual Studio\2019\Community\VC\Tools\MSVC\14.27.29110\include\list

; 39   :     _List_unchecked_const_iterator(_Nodeptr _Pnode, const _Mylist* _Plist) noexcept : _Ptr(_Pnode) {

  00095	8b 43 64	 mov	 eax, DWORD PTR [ebx+100]
  00098	89 45 fc	 mov	 DWORD PTR tv902[ebp], eax
; File C:\DS Project\DS Files\Source\ClientSource\Client\eterPythonLib\PythonWindow.cpp

; 2018 : 		std::for_each(m_pChildList.begin(), m_pChildList.end(), std::mem_fun(&CWindow::UpdateRect));

  0009b	68 00 00 00 00	 push	 OFFSET ?UpdateRect@CWindow@UI@@QAEJXZ ; UI::CWindow::UpdateRect
; File C:\Program Files (x86)\Microsoft Visual Studio\2019\Community\VC\Tools\MSVC\14.27.29110\include\list

; 39   :     _List_unchecked_const_iterator(_Nodeptr _Pnode, const _Mylist* _Plist) noexcept : _Ptr(_Pnode) {

  000a0	8b 30		 mov	 esi, DWORD PTR [eax]
; File C:\DS Project\DS Files\Source\ClientSource\Client\eterPythonLib\PythonWindow.cpp

; 2018 : 		std::for_each(m_pChildList.begin(), m_pChildList.end(), std::mem_fun(&CWindow::UpdateRect));

  000a2	8d 45 f4	 lea	 eax, DWORD PTR $T1[ebp]
  000a5	50		 push	 eax
  000a6	e8 00 00 00 00	 call	 ??$mem_fun@JVCWindow@UI@@@std@@YA?AV?$mem_fun_t@JVCWindow@UI@@@0@P8CWindow@UI@@AEJXZ@Z ; std::mem_fun<long,UI::CWindow>
  000ab	83 c4 08	 add	 esp, 8
  000ae	8b 38		 mov	 edi, DWORD PTR [eax]
; File C:\Program Files (x86)\Microsoft Visual Studio\2019\Community\VC\Tools\MSVC\14.27.29110\include\list

; 74   :         return _Ptr == _Right._Ptr;

  000b0	3b 75 fc	 cmp	 esi, DWORD PTR tv902[ebp]
; File C:\Program Files (x86)\Microsoft Visual Studio\2019\Community\VC\Tools\MSVC\14.27.29110\include\algorithm

; 235  :     for (; _UFirst != _ULast; ++_UFirst) {

  000b3	74 11		 je	 SHORT $LN40@OnChangePo
  000b5	8b 5d fc	 mov	 ebx, DWORD PTR tv902[ebp]
$LL41@OnChangePo:
; File C:\Program Files (x86)\Microsoft Visual Studio\2019\Community\VC\Tools\MSVC\14.27.29110\include\functional

; 488  :         return (_Pleft->*_Pmemfun)();

  000b8	8b 4e 08	 mov	 ecx, DWORD PTR [esi+8]
  000bb	ff d7		 call	 edi
; File C:\Program Files (x86)\Microsoft Visual Studio\2019\Community\VC\Tools\MSVC\14.27.29110\include\list

; 52   :         _Ptr = _Ptr->_Next;

  000bd	8b 36		 mov	 esi, DWORD PTR [esi]

; 74   :         return _Ptr == _Right._Ptr;

  000bf	3b f3		 cmp	 esi, ebx
; File C:\Program Files (x86)\Microsoft Visual Studio\2019\Community\VC\Tools\MSVC\14.27.29110\include\algorithm

; 235  :     for (; _UFirst != _ULast; ++_UFirst) {

  000c1	75 f5		 jne	 SHORT $LL41@OnChangePo
  000c3	8b 5d f8	 mov	 ebx, DWORD PTR _this$1$[ebp]
$LN40@OnChangePo:
; File C:\DS Project\DS Files\Source\ClientSource\Client\eterPythonLib\PythonWindow.cpp

; 2020 : 		if (m_pcurVisual)

  000c6	8b 8b 88 00 00
	00		 mov	 ecx, DWORD PTR [ebx+136]
  000cc	5f		 pop	 edi
  000cd	85 c9		 test	 ecx, ecx
  000cf	74 23		 je	 SHORT $LN3@OnChangePo

; 2021 : 			m_pcurVisual->SetPosition(m_rect.left, m_rect.top);

  000d1	66 0f 6e 43 38	 movd	 xmm0, DWORD PTR [ebx+56]
  000d6	83 ec 08	 sub	 esp, 8
  000d9	0f 5b c0	 cvtdq2ps xmm0, xmm0
  000dc	f3 0f 11 44 24
	04		 movss	 DWORD PTR [esp+4], xmm0
  000e2	66 0f 6e 43 34	 movd	 xmm0, DWORD PTR [ebx+52]
  000e7	0f 5b c0	 cvtdq2ps xmm0, xmm0
  000ea	f3 0f 11 04 24	 movss	 DWORD PTR [esp], xmm0
  000ef	e8 00 00 00 00	 call	 ?SetPosition@CGraphicImageInstance@@QAEXMM@Z ; CGraphicImageInstance::SetPosition
$LN3@OnChangePo:

; 2022 : 
; 2023 : 		if (IsPressed())

  000f4	8b cb		 mov	 ecx, ebx
  000f6	e8 00 00 00 00	 call	 ?IsPressed@CButton@UI@@QAEHXZ ; UI::CButton::IsPressed
  000fb	85 c0		 test	 eax, eax
  000fd	74 16		 je	 SHORT $LN4@OnChangePo

; 2024 : 			PyCallClassMemberFunc(m_poHandler, "OnMove", BuildEmptyTuple());

  000ff	e8 00 00 00 00	 call	 ?BuildEmptyTuple@UI@@YAPAU_object@@XZ ; UI::BuildEmptyTuple
  00104	50		 push	 eax
  00105	68 00 00 00 00	 push	 OFFSET ??_C@_06GJPOLLJG@OnMove@
  0010a	ff 73 5c	 push	 DWORD PTR [ebx+92]
  0010d	e8 00 00 00 00	 call	 ?PyCallClassMemberFunc@@YA_NPAU_object@@PBD0@Z ; PyCallClassMemberFunc
  00112	83 c4 0c	 add	 esp, 12			; 0000000cH
$LN4@OnChangePo:

; 2025 : 	}

  00115	5e		 pop	 esi
  00116	5b		 pop	 ebx
  00117	8b e5		 mov	 esp, ebp
  00119	5d		 pop	 ebp
  0011a	c3		 ret	 0
?OnChangePosition@CDragButton@UI@@MAEXXZ ENDP		; UI::CDragButton::OnChangePosition
_TEXT	ENDS
; Function compile flags: /Ogtp
; File C:\DS Project\DS Files\Source\ClientSource\Client\eterPythonLib\PythonWindow.cpp
;	COMDAT ?SetRestrictMovementArea@CDragButton@UI@@QAEXHHHH@Z
_TEXT	SEGMENT
_ix$ = 8						; size = 4
_iy$ = 12						; size = 4
_iwidth$ = 16						; size = 4
_iheight$ = 20						; size = 4
?SetRestrictMovementArea@CDragButton@UI@@QAEXHHHH@Z PROC ; UI::CDragButton::SetRestrictMovementArea, COMDAT
; _this$ = ecx

; 1991 : 	{

  00000	55		 push	 ebp
  00001	8b ec		 mov	 ebp, esp

; 1992 : 		m_restrictArea.left = ix;

  00003	8b 55 08	 mov	 edx, DWORD PTR _ix$[ebp]

; 1993 : 		m_restrictArea.top = iy;
; 1994 : 		m_restrictArea.right = ix + iwidth;

  00006	8b 45 10	 mov	 eax, DWORD PTR _iwidth$[ebp]
  00009	03 c2		 add	 eax, edx
  0000b	89 91 0c 01 00
	00		 mov	 DWORD PTR [ecx+268], edx
  00011	89 81 14 01 00
	00		 mov	 DWORD PTR [ecx+276], eax

; 1995 : 		m_restrictArea.bottom = iy + iheight;

  00017	8b 45 14	 mov	 eax, DWORD PTR _iheight$[ebp]
  0001a	56		 push	 esi
  0001b	8b 75 0c	 mov	 esi, DWORD PTR _iy$[ebp]
  0001e	03 c6		 add	 eax, esi
  00020	89 b1 10 01 00
	00		 mov	 DWORD PTR [ecx+272], esi
  00026	89 81 18 01 00
	00		 mov	 DWORD PTR [ecx+280], eax
  0002c	5e		 pop	 esi

; 1996 : 	}

  0002d	5d		 pop	 ebp
  0002e	c2 10 00	 ret	 16			; 00000010H
?SetRestrictMovementArea@CDragButton@UI@@QAEXHHHH@Z ENDP ; UI::CDragButton::SetRestrictMovementArea
_TEXT	ENDS
; Function compile flags: /Ogtp
; File C:\DS Project\DS Files\Source\ClientSource\Client\eterPythonLib\PythonWindow.cpp
;	COMDAT ??1CDragButton@UI@@UAE@XZ
_TEXT	SEGMENT
??1CDragButton@UI@@UAE@XZ PROC				; UI::CDragButton::~CDragButton, COMDAT
; _this$ = ecx

; 1987 : 	{

  00000	c7 01 00 00 00
	00		 mov	 DWORD PTR [ecx], OFFSET ??_7CDragButton@UI@@6B@

; 1988 : 	}

  00006	e9 00 00 00 00	 jmp	 ??1CButton@UI@@UAE@XZ	; UI::CButton::~CButton
??1CDragButton@UI@@UAE@XZ ENDP				; UI::CDragButton::~CDragButton
_TEXT	ENDS
; Function compile flags: /Ogtp
; File C:\DS Project\DS Files\Source\ClientSource\Client\eterPythonLib\PythonWindow.cpp
; File C:\DS Project\DS Files\Source\ClientSource\Client\eterPythonLib\PythonWindow.h
; File C:\DS Project\DS Files\Source\ClientSource\Client\eterPythonLib\PythonWindow.cpp
;	COMDAT ??0CDragButton@UI@@QAE@PAU_object@@@Z
_TEXT	SEGMENT
_this$ = -4						; size = 4
_ppyObject$ = 8						; size = 4
??0CDragButton@UI@@QAE@PAU_object@@@Z PROC		; UI::CDragButton::CDragButton, COMDAT
; _this$ = ecx

; 1979 : 	{

  00000	55		 push	 ebp
  00001	8b ec		 mov	 ebp, esp
  00003	51		 push	 ecx
  00004	56		 push	 esi
  00005	ff 75 08	 push	 DWORD PTR _ppyObject$[ebp]
  00008	8b f1		 mov	 esi, ecx
  0000a	89 75 fc	 mov	 DWORD PTR _this$[ebp], esi
  0000d	e8 00 00 00 00	 call	 ??0CButton@UI@@QAE@PAU_object@@@Z ; UI::CButton::CButton
; File C:\DS Project\DS Files\Source\ClientSource\Client\eterPythonLib\PythonWindow.h

; 99   : 			void			RemoveFlag(DWORD flag)	{ REMOVE_BIT(m_dwFlag, flag);	}

  00012	81 66 58 7f ff
	ff ff		 and	 DWORD PTR [esi+88], -129 ; ffffff7fH
; File C:\DS Project\DS Files\Source\ClientSource\Client\eterPythonLib\PythonWindow.cpp

; 1979 : 	{

  00019	c7 06 00 00 00
	00		 mov	 DWORD PTR [esi], OFFSET ??_7CDragButton@UI@@6B@

; 1980 : 		CWindow::RemoveFlag(CWindow::FLAG_NOT_CAPTURE);
; 1981 : 		m_restrictArea.left = 0;

  0001f	c7 86 0c 01 00
	00 00 00 00 00	 mov	 DWORD PTR [esi+268], 0

; 1982 : 		m_restrictArea.top = 0;

  00029	c7 86 10 01 00
	00 00 00 00 00	 mov	 DWORD PTR [esi+272], 0

; 1983 : 		m_restrictArea.right = CWindowManager::Instance().GetScreenWidth();

  00033	a1 00 00 00 00	 mov	 eax, DWORD PTR ?ms_singleton@?$CSingleton@VCWindowManager@UI@@@@0PAVCWindowManager@UI@@A ; CSingleton<UI::CWindowManager>::ms_singleton
  00038	8b 40 04	 mov	 eax, DWORD PTR [eax+4]
  0003b	89 86 14 01 00
	00		 mov	 DWORD PTR [esi+276], eax

; 1984 : 		m_restrictArea.bottom = CWindowManager::Instance().GetScreenHeight();

  00041	a1 00 00 00 00	 mov	 eax, DWORD PTR ?ms_singleton@?$CSingleton@VCWindowManager@UI@@@@0PAVCWindowManager@UI@@A ; CSingleton<UI::CWindowManager>::ms_singleton
  00046	8b 40 08	 mov	 eax, DWORD PTR [eax+8]
  00049	89 86 18 01 00
	00		 mov	 DWORD PTR [esi+280], eax

; 1985 : 	}

  0004f	8b c6		 mov	 eax, esi
  00051	5e		 pop	 esi
  00052	8b e5		 mov	 esp, ebp
  00054	5d		 pop	 ebp
  00055	c2 04 00	 ret	 4
??0CDragButton@UI@@QAE@PAU_object@@@Z ENDP		; UI::CDragButton::CDragButton
_TEXT	ENDS
; Function compile flags: /Ogtp
;	COMDAT ??_GCToggleButton@UI@@UAEPAXI@Z
_TEXT	SEGMENT
___flags$ = 8						; size = 4
??_GCToggleButton@UI@@UAEPAXI@Z PROC			; UI::CToggleButton::`scalar deleting destructor', COMDAT
; _this$ = ecx
  00000	55		 push	 ebp
  00001	8b ec		 mov	 ebp, esp
  00003	56		 push	 esi
  00004	8b f1		 mov	 esi, ecx
  00006	e8 00 00 00 00	 call	 ??1CToggleButton@UI@@UAE@XZ ; UI::CToggleButton::~CToggleButton
  0000b	f6 45 08 01	 test	 BYTE PTR ___flags$[ebp], 1
  0000f	74 0e		 je	 SHORT $LN4@scalar
  00011	68 0c 01 00 00	 push	 268			; 0000010cH
  00016	56		 push	 esi
  00017	e8 00 00 00 00	 call	 ??3@YAXPAXI@Z		; operator delete
  0001c	83 c4 08	 add	 esp, 8
$LN4@scalar:
  0001f	8b c6		 mov	 eax, esi
  00021	5e		 pop	 esi
  00022	5d		 pop	 ebp
  00023	c2 04 00	 ret	 4
??_GCToggleButton@UI@@UAEPAXI@Z ENDP			; UI::CToggleButton::`scalar deleting destructor'
_TEXT	ENDS
; Function compile flags: /Ogtp
; File C:\DS Project\DS Files\Source\ClientSource\Client\eterPythonLib\PythonWindow.cpp
;	COMDAT ?OnMouseOverOut@CToggleButton@UI@@MAEXXZ
_TEXT	SEGMENT
?OnMouseOverOut@CToggleButton@UI@@MAEXXZ PROC		; UI::CToggleButton::OnMouseOverOut, COMDAT
; _this$ = ecx

; 1962 : 	{

  00000	56		 push	 esi
  00001	8b f1		 mov	 esi, ecx

; 1963 : 		if (!IsEnable())

  00003	e8 00 00 00 00	 call	 ?IsEnable@CButton@UI@@IAEHXZ ; UI::CButton::IsEnable
  00008	85 c0		 test	 eax, eax
  0000a	74 2d		 je	 SHORT $LN1@OnMouseOve

; 1964 : 			return;
; 1965 : 
; 1966 : 		if (!m_isPressed)

  0000c	83 be 80 00 00
	00 00		 cmp	 DWORD PTR [esi+128], 0
  00013	75 0e		 jne	 SHORT $LN3@OnMouseOve

; 1967 : 		{
; 1968 : 			SetCurrentVisual(&m_upVisual);

  00015	8d 86 8c 00 00
	00		 lea	 eax, DWORD PTR [esi+140]
  0001b	8b ce		 mov	 ecx, esi
  0001d	50		 push	 eax
  0001e	e8 00 00 00 00	 call	 ?SetCurrentVisual@CButton@UI@@IAEXPAVCGraphicImageInstance@@@Z ; UI::CButton::SetCurrentVisual
$LN3@OnMouseOve:

; 1969 : 		}
; 1970 : 
; 1971 : 		PyCallClassMemberFunc(m_poHandler, "HideToolTip", BuildEmptyTuple());

  00023	e8 00 00 00 00	 call	 ?BuildEmptyTuple@UI@@YAPAU_object@@XZ ; UI::BuildEmptyTuple
  00028	50		 push	 eax
  00029	68 00 00 00 00	 push	 OFFSET ??_C@_0M@HCIAMHJN@HideToolTip@
  0002e	ff 76 5c	 push	 DWORD PTR [esi+92]
  00031	e8 00 00 00 00	 call	 ?PyCallClassMemberFunc@@YA_NPAU_object@@PBD0@Z ; PyCallClassMemberFunc
  00036	83 c4 0c	 add	 esp, 12			; 0000000cH
$LN1@OnMouseOve:

; 1972 : 	}

  00039	5e		 pop	 esi
  0003a	c3		 ret	 0
?OnMouseOverOut@CToggleButton@UI@@MAEXXZ ENDP		; UI::CToggleButton::OnMouseOverOut
_TEXT	ENDS
; Function compile flags: /Ogtp
; File C:\DS Project\DS Files\Source\ClientSource\Client\eterPythonLib\PythonWindow.cpp
;	COMDAT ?OnMouseOverIn@CToggleButton@UI@@MAEXXZ
_TEXT	SEGMENT
?OnMouseOverIn@CToggleButton@UI@@MAEXXZ PROC		; UI::CToggleButton::OnMouseOverIn, COMDAT
; _this$ = ecx

; 1950 : 	{

  00000	56		 push	 esi
  00001	8b f1		 mov	 esi, ecx

; 1951 : 		if (!IsEnable())

  00003	e8 00 00 00 00	 call	 ?IsEnable@CButton@UI@@IAEHXZ ; UI::CButton::IsEnable
  00008	85 c0		 test	 eax, eax
  0000a	74 2d		 je	 SHORT $LN1@OnMouseOve

; 1952 : 			return;
; 1953 : 
; 1954 : 		if (!m_isPressed)

  0000c	83 be 80 00 00
	00 00		 cmp	 DWORD PTR [esi+128], 0
  00013	75 0e		 jne	 SHORT $LN3@OnMouseOve

; 1955 : 		{
; 1956 : 			SetCurrentVisual(&m_overVisual);

  00015	8d 86 ac 00 00
	00		 lea	 eax, DWORD PTR [esi+172]
  0001b	8b ce		 mov	 ecx, esi
  0001d	50		 push	 eax
  0001e	e8 00 00 00 00	 call	 ?SetCurrentVisual@CButton@UI@@IAEXPAVCGraphicImageInstance@@@Z ; UI::CButton::SetCurrentVisual
$LN3@OnMouseOve:

; 1957 : 		}
; 1958 : 
; 1959 : 		PyCallClassMemberFunc(m_poHandler, "ShowToolTip", BuildEmptyTuple());

  00023	e8 00 00 00 00	 call	 ?BuildEmptyTuple@UI@@YAPAU_object@@XZ ; UI::BuildEmptyTuple
  00028	50		 push	 eax
  00029	68 00 00 00 00	 push	 OFFSET ??_C@_0M@LEFCMAKP@ShowToolTip@
  0002e	ff 76 5c	 push	 DWORD PTR [esi+92]
  00031	e8 00 00 00 00	 call	 ?PyCallClassMemberFunc@@YA_NPAU_object@@PBD0@Z ; PyCallClassMemberFunc
  00036	83 c4 0c	 add	 esp, 12			; 0000000cH
$LN1@OnMouseOve:

; 1960 : 	}

  00039	5e		 pop	 esi
  0003a	c3		 ret	 0
?OnMouseOverIn@CToggleButton@UI@@MAEXXZ ENDP		; UI::CToggleButton::OnMouseOverIn
_TEXT	ENDS
; Function compile flags: /Ogtp
; File C:\DS Project\DS Files\Source\ClientSource\Client\eterPythonLib\PythonWindow.cpp
;	COMDAT ?OnMouseLeftButtonUp@CToggleButton@UI@@MAEHXZ
_TEXT	SEGMENT
?OnMouseLeftButtonUp@CToggleButton@UI@@MAEHXZ PROC	; UI::CToggleButton::OnMouseLeftButtonUp, COMDAT
; _this$ = ecx

; 1946 : 		return TRUE;

  00000	b8 01 00 00 00	 mov	 eax, 1

; 1947 : 	}

  00005	c3		 ret	 0
?OnMouseLeftButtonUp@CToggleButton@UI@@MAEHXZ ENDP	; UI::CToggleButton::OnMouseLeftButtonUp
_TEXT	ENDS
; Function compile flags: /Ogtp
; File C:\DS Project\DS Files\Source\ClientSource\Client\eterPythonLib\PythonWindow.cpp
;	COMDAT ?OnMouseLeftButtonDown@CToggleButton@UI@@MAEHXZ
_TEXT	SEGMENT
?OnMouseLeftButtonDown@CToggleButton@UI@@MAEHXZ PROC	; UI::CToggleButton::OnMouseLeftButtonDown, COMDAT
; _this$ = ecx

; 1923 : 	{

  00000	56		 push	 esi
  00001	8b f1		 mov	 esi, ecx

; 1924 : 		if (!IsEnable())

  00003	e8 00 00 00 00	 call	 ?IsEnable@CButton@UI@@IAEHXZ ; UI::CButton::IsEnable
  00008	85 c0		 test	 eax, eax
  0000a	74 57		 je	 SHORT $LN8@OnMouseLef

; 1925 : 			return TRUE;
; 1926 : 
; 1927 : 		if (m_isPressed)

  0000c	83 be 80 00 00
	00 00		 cmp	 DWORD PTR [esi+128], 0
  00013	8b ce		 mov	 ecx, esi
  00015	57		 push	 edi
  00016	74 2d		 je	 SHORT $LN3@OnMouseLef

; 1928 : 		{
; 1929 : 			SetUp();

  00018	e8 00 00 00 00	 call	 ?SetUp@CButton@UI@@QAEXXZ ; UI::CButton::SetUp

; 1930 : 			if (IsIn())

  0001d	8b ce		 mov	 ecx, esi
  0001f	e8 00 00 00 00	 call	 ?IsIn@CWindow@UI@@QAE_NXZ ; UI::CWindow::IsIn
  00024	84 c0		 test	 al, al
  00026	ba ac 00 00 00	 mov	 edx, 172		; 000000acH
  0002b	b9 8c 00 00 00	 mov	 ecx, 140		; 0000008cH
  00030	0f 45 ca	 cmovne	 ecx, edx

; 1931 : 				SetCurrentVisual(&m_overVisual);
; 1932 : 			else
; 1933 : 				SetCurrentVisual(&m_upVisual);
; 1934 : 			PyCallClassMemberFunc(m_poHandler, "OnToggleUp", BuildEmptyTuple());

  00033	8d 04 31	 lea	 eax, DWORD PTR [ecx+esi]
  00036	8b ce		 mov	 ecx, esi
  00038	50		 push	 eax
  00039	e8 00 00 00 00	 call	 ?SetCurrentVisual@CButton@UI@@IAEXPAVCGraphicImageInstance@@@Z ; UI::CButton::SetCurrentVisual
  0003e	bf 00 00 00 00	 mov	 edi, OFFSET ??_C@_0L@HGABHAMN@OnToggleUp@

; 1935 : 		}

  00043	eb 0a		 jmp	 SHORT $LN4@OnMouseLef
$LN3@OnMouseLef:

; 1936 : 		else
; 1937 : 		{
; 1938 : 			Down();

  00045	e8 00 00 00 00	 call	 ?Down@CButton@UI@@QAEXXZ ; UI::CButton::Down

; 1939 : 			PyCallClassMemberFunc(m_poHandler, "OnToggleDown", BuildEmptyTuple());

  0004a	bf 00 00 00 00	 mov	 edi, OFFSET ??_C@_0N@NBGLGPDJ@OnToggleDown@
$LN4@OnMouseLef:

; 1940 : 		}
; 1941 : 
; 1942 : 		return TRUE;

  0004f	e8 00 00 00 00	 call	 ?BuildEmptyTuple@UI@@YAPAU_object@@XZ ; UI::BuildEmptyTuple
  00054	50		 push	 eax
  00055	8b 46 5c	 mov	 eax, DWORD PTR [esi+92]
  00058	57		 push	 edi
  00059	50		 push	 eax
  0005a	e8 00 00 00 00	 call	 ?PyCallClassMemberFunc@@YA_NPAU_object@@PBD0@Z ; PyCallClassMemberFunc
  0005f	83 c4 0c	 add	 esp, 12			; 0000000cH
  00062	5f		 pop	 edi
$LN8@OnMouseLef:

; 1943 : 	}

  00063	b8 01 00 00 00	 mov	 eax, 1
  00068	5e		 pop	 esi
  00069	c3		 ret	 0
?OnMouseLeftButtonDown@CToggleButton@UI@@MAEHXZ ENDP	; UI::CToggleButton::OnMouseLeftButtonDown
_TEXT	ENDS
; Function compile flags: /Ogtp
; File C:\DS Project\DS Files\Source\ClientSource\Client\eterPythonLib\PythonWindow.cpp
;	COMDAT ??1CToggleButton@UI@@UAE@XZ
_TEXT	SEGMENT
??1CToggleButton@UI@@UAE@XZ PROC			; UI::CToggleButton::~CToggleButton, COMDAT
; _this$ = ecx

; 1919 : 	{

  00000	c7 01 00 00 00
	00		 mov	 DWORD PTR [ecx], OFFSET ??_7CToggleButton@UI@@6B@

; 1920 : 	}

  00006	e9 00 00 00 00	 jmp	 ??1CButton@UI@@UAE@XZ	; UI::CButton::~CButton
??1CToggleButton@UI@@UAE@XZ ENDP			; UI::CToggleButton::~CToggleButton
_TEXT	ENDS
; Function compile flags: /Ogtp
; File C:\DS Project\DS Files\Source\ClientSource\Client\eterPythonLib\PythonWindow.cpp
;	COMDAT ??0CToggleButton@UI@@QAE@PAU_object@@@Z
_TEXT	SEGMENT
_this$ = -4						; size = 4
_ppyObject$ = 8						; size = 4
??0CToggleButton@UI@@QAE@PAU_object@@@Z PROC		; UI::CToggleButton::CToggleButton, COMDAT
; _this$ = ecx

; 1916 : 	{

  00000	55		 push	 ebp
  00001	8b ec		 mov	 ebp, esp
  00003	51		 push	 ecx
  00004	56		 push	 esi
  00005	ff 75 08	 push	 DWORD PTR _ppyObject$[ebp]
  00008	8b f1		 mov	 esi, ecx
  0000a	89 75 fc	 mov	 DWORD PTR _this$[ebp], esi
  0000d	e8 00 00 00 00	 call	 ??0CButton@UI@@QAE@PAU_object@@@Z ; UI::CButton::CButton
  00012	c7 06 00 00 00
	00		 mov	 DWORD PTR [esi], OFFSET ??_7CToggleButton@UI@@6B@

; 1917 : 	}

  00018	8b c6		 mov	 eax, esi
  0001a	5e		 pop	 esi
  0001b	8b e5		 mov	 esp, ebp
  0001d	5d		 pop	 ebp
  0001e	c2 04 00	 ret	 4
??0CToggleButton@UI@@QAE@PAU_object@@@Z ENDP		; UI::CToggleButton::CToggleButton
_TEXT	ENDS
; Function compile flags: /Ogtp
;	COMDAT ??_GCRadioButton@UI@@UAEPAXI@Z
_TEXT	SEGMENT
___flags$ = 8						; size = 4
??_GCRadioButton@UI@@UAEPAXI@Z PROC			; UI::CRadioButton::`scalar deleting destructor', COMDAT
; _this$ = ecx
  00000	55		 push	 ebp
  00001	8b ec		 mov	 ebp, esp
  00003	56		 push	 esi
  00004	8b f1		 mov	 esi, ecx
  00006	e8 00 00 00 00	 call	 ??1CRadioButton@UI@@UAE@XZ ; UI::CRadioButton::~CRadioButton
  0000b	f6 45 08 01	 test	 BYTE PTR ___flags$[ebp], 1
  0000f	74 0e		 je	 SHORT $LN4@scalar
  00011	68 0c 01 00 00	 push	 268			; 0000010cH
  00016	56		 push	 esi
  00017	e8 00 00 00 00	 call	 ??3@YAXPAXI@Z		; operator delete
  0001c	83 c4 08	 add	 esp, 8
$LN4@scalar:
  0001f	8b c6		 mov	 eax, esi
  00021	5e		 pop	 esi
  00022	5d		 pop	 ebp
  00023	c2 04 00	 ret	 4
??_GCRadioButton@UI@@UAEPAXI@Z ENDP			; UI::CRadioButton::`scalar deleting destructor'
_TEXT	ENDS
; Function compile flags: /Ogtp
; File C:\DS Project\DS Files\Source\ClientSource\Client\eterPythonLib\PythonWindow.cpp
;	COMDAT ?OnMouseOverOut@CRadioButton@UI@@MAEXXZ
_TEXT	SEGMENT
?OnMouseOverOut@CRadioButton@UI@@MAEXXZ PROC		; UI::CRadioButton::OnMouseOverOut, COMDAT
; _this$ = ecx

; 1899 : 	{

  00000	56		 push	 esi
  00001	8b f1		 mov	 esi, ecx

; 1900 : 		if (!IsEnable())

  00003	e8 00 00 00 00	 call	 ?IsEnable@CButton@UI@@IAEHXZ ; UI::CButton::IsEnable
  00008	85 c0		 test	 eax, eax
  0000a	74 2d		 je	 SHORT $LN1@OnMouseOve

; 1901 : 			return;
; 1902 : 
; 1903 : 		if (!m_isPressed)

  0000c	83 be 80 00 00
	00 00		 cmp	 DWORD PTR [esi+128], 0
  00013	75 0e		 jne	 SHORT $LN3@OnMouseOve

; 1904 : 		{
; 1905 : 			SetCurrentVisual(&m_upVisual);

  00015	8d 86 8c 00 00
	00		 lea	 eax, DWORD PTR [esi+140]
  0001b	8b ce		 mov	 ecx, esi
  0001d	50		 push	 eax
  0001e	e8 00 00 00 00	 call	 ?SetCurrentVisual@CButton@UI@@IAEXPAVCGraphicImageInstance@@@Z ; UI::CButton::SetCurrentVisual
$LN3@OnMouseOve:

; 1906 : 		}
; 1907 : 
; 1908 : 		PyCallClassMemberFunc(m_poHandler, "HideToolTip", BuildEmptyTuple());

  00023	e8 00 00 00 00	 call	 ?BuildEmptyTuple@UI@@YAPAU_object@@XZ ; UI::BuildEmptyTuple
  00028	50		 push	 eax
  00029	68 00 00 00 00	 push	 OFFSET ??_C@_0M@HCIAMHJN@HideToolTip@
  0002e	ff 76 5c	 push	 DWORD PTR [esi+92]
  00031	e8 00 00 00 00	 call	 ?PyCallClassMemberFunc@@YA_NPAU_object@@PBD0@Z ; PyCallClassMemberFunc
  00036	83 c4 0c	 add	 esp, 12			; 0000000cH
$LN1@OnMouseOve:

; 1909 : 	}

  00039	5e		 pop	 esi
  0003a	c3		 ret	 0
?OnMouseOverOut@CRadioButton@UI@@MAEXXZ ENDP		; UI::CRadioButton::OnMouseOverOut
_TEXT	ENDS
; Function compile flags: /Ogtp
; File C:\DS Project\DS Files\Source\ClientSource\Client\eterPythonLib\PythonWindow.cpp
;	COMDAT ?OnMouseOverIn@CRadioButton@UI@@MAEXXZ
_TEXT	SEGMENT
?OnMouseOverIn@CRadioButton@UI@@MAEXXZ PROC		; UI::CRadioButton::OnMouseOverIn, COMDAT
; _this$ = ecx

; 1887 : 	{

  00000	56		 push	 esi
  00001	8b f1		 mov	 esi, ecx

; 1888 : 		if (!IsEnable())

  00003	e8 00 00 00 00	 call	 ?IsEnable@CButton@UI@@IAEHXZ ; UI::CButton::IsEnable
  00008	85 c0		 test	 eax, eax
  0000a	74 2d		 je	 SHORT $LN1@OnMouseOve

; 1889 : 			return;
; 1890 : 
; 1891 : 		if (!m_isPressed)

  0000c	83 be 80 00 00
	00 00		 cmp	 DWORD PTR [esi+128], 0
  00013	75 0e		 jne	 SHORT $LN3@OnMouseOve

; 1892 : 		{
; 1893 : 			SetCurrentVisual(&m_overVisual);

  00015	8d 86 ac 00 00
	00		 lea	 eax, DWORD PTR [esi+172]
  0001b	8b ce		 mov	 ecx, esi
  0001d	50		 push	 eax
  0001e	e8 00 00 00 00	 call	 ?SetCurrentVisual@CButton@UI@@IAEXPAVCGraphicImageInstance@@@Z ; UI::CButton::SetCurrentVisual
$LN3@OnMouseOve:

; 1894 : 		}
; 1895 : 
; 1896 : 		PyCallClassMemberFunc(m_poHandler, "ShowToolTip", BuildEmptyTuple());

  00023	e8 00 00 00 00	 call	 ?BuildEmptyTuple@UI@@YAPAU_object@@XZ ; UI::BuildEmptyTuple
  00028	50		 push	 eax
  00029	68 00 00 00 00	 push	 OFFSET ??_C@_0M@LEFCMAKP@ShowToolTip@
  0002e	ff 76 5c	 push	 DWORD PTR [esi+92]
  00031	e8 00 00 00 00	 call	 ?PyCallClassMemberFunc@@YA_NPAU_object@@PBD0@Z ; PyCallClassMemberFunc
  00036	83 c4 0c	 add	 esp, 12			; 0000000cH
$LN1@OnMouseOve:

; 1897 : 	}

  00039	5e		 pop	 esi
  0003a	c3		 ret	 0
?OnMouseOverIn@CRadioButton@UI@@MAEXXZ ENDP		; UI::CRadioButton::OnMouseOverIn
_TEXT	ENDS
; Function compile flags: /Ogtp
; File C:\DS Project\DS Files\Source\ClientSource\Client\eterPythonLib\PythonWindow.cpp
;	COMDAT ?OnMouseLeftButtonUp@CRadioButton@UI@@MAEHXZ
_TEXT	SEGMENT
?OnMouseLeftButtonUp@CRadioButton@UI@@MAEHXZ PROC	; UI::CRadioButton::OnMouseLeftButtonUp, COMDAT
; _this$ = ecx

; 1884 : 		return TRUE;

  00000	b8 01 00 00 00	 mov	 eax, 1

; 1885 : 	}

  00005	c3		 ret	 0
?OnMouseLeftButtonUp@CRadioButton@UI@@MAEHXZ ENDP	; UI::CRadioButton::OnMouseLeftButtonUp
_TEXT	ENDS
; Function compile flags: /Ogtp
; File C:\DS Project\DS Files\Source\ClientSource\Client\eterPythonLib\PythonWindow.cpp
;	COMDAT ?OnMouseLeftButtonDown@CRadioButton@UI@@MAEHXZ
_TEXT	SEGMENT
?OnMouseLeftButtonDown@CRadioButton@UI@@MAEHXZ PROC	; UI::CRadioButton::OnMouseLeftButtonDown, COMDAT
; _this$ = ecx

; 1870 : 	{

  00000	56		 push	 esi
  00001	8b f1		 mov	 esi, ecx

; 1871 : 		if (!IsEnable())

  00003	e8 00 00 00 00	 call	 ?IsEnable@CButton@UI@@IAEHXZ ; UI::CButton::IsEnable
  00008	85 c0		 test	 eax, eax
  0000a	74 26		 je	 SHORT $LN6@OnMouseLef

; 1872 : 			return TRUE;
; 1873 : 
; 1874 : 		if (!m_isPressed)

  0000c	83 be 80 00 00
	00 00		 cmp	 DWORD PTR [esi+128], 0
  00013	75 1d		 jne	 SHORT $LN6@OnMouseLef

; 1875 : 		{
; 1876 : 			Down();

  00015	8b ce		 mov	 ecx, esi
  00017	e8 00 00 00 00	 call	 ?Down@CButton@UI@@QAEXXZ ; UI::CButton::Down

; 1877 : 			PyCallClassMemberFunc(m_poHandler, "CallEvent", BuildEmptyTuple());

  0001c	e8 00 00 00 00	 call	 ?BuildEmptyTuple@UI@@YAPAU_object@@XZ ; UI::BuildEmptyTuple
  00021	50		 push	 eax
  00022	68 00 00 00 00	 push	 OFFSET ??_C@_09MFFHPOPB@CallEvent@
  00027	ff 76 5c	 push	 DWORD PTR [esi+92]
  0002a	e8 00 00 00 00	 call	 ?PyCallClassMemberFunc@@YA_NPAU_object@@PBD0@Z ; PyCallClassMemberFunc
  0002f	83 c4 0c	 add	 esp, 12			; 0000000cH
$LN6@OnMouseLef:

; 1878 : 		}
; 1879 : 
; 1880 : 		return TRUE;
; 1881 : 	}

  00032	b8 01 00 00 00	 mov	 eax, 1
  00037	5e		 pop	 esi
  00038	c3		 ret	 0
?OnMouseLeftButtonDown@CRadioButton@UI@@MAEHXZ ENDP	; UI::CRadioButton::OnMouseLeftButtonDown
_TEXT	ENDS
; Function compile flags: /Ogtp
; File C:\DS Project\DS Files\Source\ClientSource\Client\eterPythonLib\PythonWindow.cpp
;	COMDAT ??1CRadioButton@UI@@UAE@XZ
_TEXT	SEGMENT
??1CRadioButton@UI@@UAE@XZ PROC				; UI::CRadioButton::~CRadioButton, COMDAT
; _this$ = ecx

; 1866 : 	{

  00000	c7 01 00 00 00
	00		 mov	 DWORD PTR [ecx], OFFSET ??_7CRadioButton@UI@@6B@

; 1867 : 	}

  00006	e9 00 00 00 00	 jmp	 ??1CButton@UI@@UAE@XZ	; UI::CButton::~CButton
??1CRadioButton@UI@@UAE@XZ ENDP				; UI::CRadioButton::~CRadioButton
_TEXT	ENDS
; Function compile flags: /Ogtp
; File C:\DS Project\DS Files\Source\ClientSource\Client\eterPythonLib\PythonWindow.cpp
;	COMDAT ??0CRadioButton@UI@@QAE@PAU_object@@@Z
_TEXT	SEGMENT
_this$ = -4						; size = 4
_ppyObject$ = 8						; size = 4
??0CRadioButton@UI@@QAE@PAU_object@@@Z PROC		; UI::CRadioButton::CRadioButton, COMDAT
; _this$ = ecx

; 1863 : 	{

  00000	55		 push	 ebp
  00001	8b ec		 mov	 ebp, esp
  00003	51		 push	 ecx
  00004	56		 push	 esi
  00005	ff 75 08	 push	 DWORD PTR _ppyObject$[ebp]
  00008	8b f1		 mov	 esi, ecx
  0000a	89 75 fc	 mov	 DWORD PTR _this$[ebp], esi
  0000d	e8 00 00 00 00	 call	 ??0CButton@UI@@QAE@PAU_object@@@Z ; UI::CButton::CButton
  00012	c7 06 00 00 00
	00		 mov	 DWORD PTR [esi], OFFSET ??_7CRadioButton@UI@@6B@

; 1864 : 	}

  00018	8b c6		 mov	 eax, esi
  0001a	5e		 pop	 esi
  0001b	8b e5		 mov	 esp, ebp
  0001d	5d		 pop	 ebp
  0001e	c2 04 00	 ret	 4
??0CRadioButton@UI@@QAE@PAU_object@@@Z ENDP		; UI::CRadioButton::CRadioButton
_TEXT	ENDS
; Function compile flags: /Ogtp
;	COMDAT ??_GCButton@UI@@UAEPAXI@Z
_TEXT	SEGMENT
___flags$ = 8						; size = 4
??_GCButton@UI@@UAEPAXI@Z PROC				; UI::CButton::`scalar deleting destructor', COMDAT
; _this$ = ecx
  00000	55		 push	 ebp
  00001	8b ec		 mov	 ebp, esp
  00003	56		 push	 esi
  00004	8b f1		 mov	 esi, ecx
  00006	e8 00 00 00 00	 call	 ??1CButton@UI@@UAE@XZ	; UI::CButton::~CButton
  0000b	f6 45 08 01	 test	 BYTE PTR ___flags$[ebp], 1
  0000f	74 0e		 je	 SHORT $LN4@scalar
  00011	68 0c 01 00 00	 push	 268			; 0000010cH
  00016	56		 push	 esi
  00017	e8 00 00 00 00	 call	 ??3@YAXPAXI@Z		; operator delete
  0001c	83 c4 08	 add	 esp, 8
$LN4@scalar:
  0001f	8b c6		 mov	 eax, esi
  00021	5e		 pop	 esi
  00022	5d		 pop	 ebp
  00023	c2 04 00	 ret	 4
??_GCButton@UI@@UAEPAXI@Z ENDP				; UI::CButton::`scalar deleting destructor'
_TEXT	ENDS
; Function compile flags: /Ogtp
; File C:\DS Project\DS Files\Source\ClientSource\Client\eterPythonLib\PythonWindow.cpp
;	COMDAT ?SetCurrentVisual@CButton@UI@@IAEXPAVCGraphicImageInstance@@@Z
_TEXT	SEGMENT
_pVisual$ = 8						; size = 4
?SetCurrentVisual@CButton@UI@@IAEXPAVCGraphicImageInstance@@@Z PROC ; UI::CButton::SetCurrentVisual, COMDAT
; _this$ = ecx

; 1843 : 	{

  00000	55		 push	 ebp
  00001	8b ec		 mov	 ebp, esp
  00003	66 0f 6e 41 38	 movd	 xmm0, DWORD PTR [ecx+56]

; 1844 : 		m_pcurVisual = pVisual;
; 1845 : 		m_pcurVisual->SetPosition(m_rect.left, m_rect.top);

  00008	83 ec 08	 sub	 esp, 8
  0000b	8b 45 08	 mov	 eax, DWORD PTR _pVisual$[ebp]
  0000e	0f 5b c0	 cvtdq2ps xmm0, xmm0
  00011	89 81 88 00 00
	00		 mov	 DWORD PTR [ecx+136], eax
  00017	f3 0f 11 44 24
	04		 movss	 DWORD PTR [esp+4], xmm0
  0001d	66 0f 6e 41 34	 movd	 xmm0, DWORD PTR [ecx+52]
  00022	8b c8		 mov	 ecx, eax
  00024	0f 5b c0	 cvtdq2ps xmm0, xmm0
  00027	f3 0f 11 04 24	 movss	 DWORD PTR [esp], xmm0
  0002c	e8 00 00 00 00	 call	 ?SetPosition@CGraphicImageInstance@@QAEXMM@Z ; CGraphicImageInstance::SetPosition

; 1846 : 	}

  00031	5d		 pop	 ebp
  00032	c2 04 00	 ret	 4
?SetCurrentVisual@CButton@UI@@IAEXPAVCGraphicImageInstance@@@Z ENDP ; UI::CButton::SetCurrentVisual
_TEXT	ENDS
; Function compile flags: /Ogtp
; File C:\DS Project\DS Files\Source\ClientSource\Client\eterPythonLib\PythonWindow.cpp
;	COMDAT ?IsEnable@CButton@UI@@IAEHXZ
_TEXT	SEGMENT
?IsEnable@CButton@UI@@IAEHXZ PROC			; UI::CButton::IsEnable, COMDAT
; _this$ = ecx

; 1850 : 		return m_bEnable;

  00000	8b 41 7c	 mov	 eax, DWORD PTR [ecx+124]

; 1851 : 	}

  00003	c3		 ret	 0
?IsEnable@CButton@UI@@IAEHXZ ENDP			; UI::CButton::IsEnable
_TEXT	ENDS
; Function compile flags: /Ogtp
; File C:\DS Project\DS Files\Source\ClientSource\Client\eterPythonLib\PythonWindow.cpp
;	COMDAT ?OnMouseOverOut@CButton@UI@@MAEXXZ
_TEXT	SEGMENT
?OnMouseOverOut@CButton@UI@@MAEXXZ PROC			; UI::CButton::OnMouseOverOut, COMDAT
; _this$ = ecx

; 1834 : 	{

  00000	56		 push	 esi
  00001	8b f1		 mov	 esi, ecx

; 1835 : 		if (!IsEnable())

  00003	e8 00 00 00 00	 call	 ?IsEnable@CButton@UI@@IAEHXZ ; UI::CButton::IsEnable
  00008	85 c0		 test	 eax, eax
  0000a	74 1d		 je	 SHORT $LN1@OnMouseOve

; 1836 : 			return;
; 1837 : 
; 1838 : 		SetUp();

  0000c	8b ce		 mov	 ecx, esi
  0000e	e8 00 00 00 00	 call	 ?SetUp@CButton@UI@@QAEXXZ ; UI::CButton::SetUp

; 1839 : 		PyCallClassMemberFunc(m_poHandler, "HideToolTip", BuildEmptyTuple());

  00013	e8 00 00 00 00	 call	 ?BuildEmptyTuple@UI@@YAPAU_object@@XZ ; UI::BuildEmptyTuple
  00018	50		 push	 eax
  00019	68 00 00 00 00	 push	 OFFSET ??_C@_0M@HCIAMHJN@HideToolTip@
  0001e	ff 76 5c	 push	 DWORD PTR [esi+92]
  00021	e8 00 00 00 00	 call	 ?PyCallClassMemberFunc@@YA_NPAU_object@@PBD0@Z ; PyCallClassMemberFunc
  00026	83 c4 0c	 add	 esp, 12			; 0000000cH
$LN1@OnMouseOve:

; 1840 : 	}

  00029	5e		 pop	 esi
  0002a	c3		 ret	 0
?OnMouseOverOut@CButton@UI@@MAEXXZ ENDP			; UI::CButton::OnMouseOverOut
_TEXT	ENDS
; Function compile flags: /Ogtp
; File C:\DS Project\DS Files\Source\ClientSource\Client\eterPythonLib\PythonWindow.cpp
;	COMDAT ?OnMouseOverIn@CButton@UI@@MAEXXZ
_TEXT	SEGMENT
?OnMouseOverIn@CButton@UI@@MAEXXZ PROC			; UI::CButton::OnMouseOverIn, COMDAT
; _this$ = ecx

; 1826 : 	{

  00000	56		 push	 esi
  00001	8b f1		 mov	 esi, ecx

; 1827 : 		if (!IsEnable())

  00003	e8 00 00 00 00	 call	 ?IsEnable@CButton@UI@@IAEHXZ ; UI::CButton::IsEnable
  00008	85 c0		 test	 eax, eax
  0000a	74 1d		 je	 SHORT $LN1@OnMouseOve

; 1828 : 			return;
; 1829 : 
; 1830 : 		Over();

  0000c	8b ce		 mov	 ecx, esi
  0000e	e8 00 00 00 00	 call	 ?Over@CButton@UI@@QAEXXZ ; UI::CButton::Over

; 1831 : 		PyCallClassMemberFunc(m_poHandler, "ShowToolTip", BuildEmptyTuple());

  00013	e8 00 00 00 00	 call	 ?BuildEmptyTuple@UI@@YAPAU_object@@XZ ; UI::BuildEmptyTuple
  00018	50		 push	 eax
  00019	68 00 00 00 00	 push	 OFFSET ??_C@_0M@LEFCMAKP@ShowToolTip@
  0001e	ff 76 5c	 push	 DWORD PTR [esi+92]
  00021	e8 00 00 00 00	 call	 ?PyCallClassMemberFunc@@YA_NPAU_object@@PBD0@Z ; PyCallClassMemberFunc
  00026	83 c4 0c	 add	 esp, 12			; 0000000cH
$LN1@OnMouseOve:

; 1832 : 	}

  00029	5e		 pop	 esi
  0002a	c3		 ret	 0
?OnMouseOverIn@CButton@UI@@MAEXXZ ENDP			; UI::CButton::OnMouseOverIn
_TEXT	ENDS
; Function compile flags: /Ogtp
; File C:\DS Project\DS Files\Source\ClientSource\Client\eterPythonLib\PythonWindow.cpp
;	COMDAT ?OnMouseLeftButtonUp@CButton@UI@@MAEHXZ
_TEXT	SEGMENT
?OnMouseLeftButtonUp@CButton@UI@@MAEHXZ PROC		; UI::CButton::OnMouseLeftButtonUp, COMDAT
; _this$ = ecx

; 1814 : 	{

  00000	56		 push	 esi
  00001	8b f1		 mov	 esi, ecx

; 1815 : 		if (!IsEnable())

  00003	e8 00 00 00 00	 call	 ?IsEnable@CButton@UI@@IAEHXZ ; UI::CButton::IsEnable
  00008	85 c0		 test	 eax, eax
  0000a	74 1c		 je	 SHORT $LN5@OnMouseLef

; 1816 : 			return TRUE;
; 1817 : 		if (!IsPressed())

  0000c	8b ce		 mov	 ecx, esi
  0000e	e8 00 00 00 00	 call	 ?IsPressed@CButton@UI@@QAEHXZ ; UI::CButton::IsPressed
  00013	85 c0		 test	 eax, eax
  00015	74 11		 je	 SHORT $LN5@OnMouseLef

; 1818 : 			return TRUE;
; 1819 : 
; 1820 : 		m_isPressed = FALSE;
; 1821 : 		Up();

  00017	8b ce		 mov	 ecx, esi
  00019	c7 86 80 00 00
	00 00 00 00 00	 mov	 DWORD PTR [esi+128], 0
  00023	e8 00 00 00 00	 call	 ?Up@CButton@UI@@QAEXXZ	; UI::CButton::Up
$LN5@OnMouseLef:

; 1822 : 
; 1823 : 		return TRUE;
; 1824 : 	}

  00028	b8 01 00 00 00	 mov	 eax, 1
  0002d	5e		 pop	 esi
  0002e	c3		 ret	 0
?OnMouseLeftButtonUp@CButton@UI@@MAEHXZ ENDP		; UI::CButton::OnMouseLeftButtonUp
_TEXT	ENDS
; Function compile flags: /Ogtp
; File C:\DS Project\DS Files\Source\ClientSource\Client\eterPythonLib\PythonWindow.cpp
;	COMDAT ?OnMouseLeftButtonDoubleClick@CButton@UI@@MAEHXZ
_TEXT	SEGMENT
?OnMouseLeftButtonDoubleClick@CButton@UI@@MAEHXZ PROC	; UI::CButton::OnMouseLeftButtonDoubleClick, COMDAT
; _this$ = ecx

; 1805 : 	{

  00000	56		 push	 esi
  00001	8b f1		 mov	 esi, ecx

; 1806 : 		if (!IsEnable())

  00003	e8 00 00 00 00	 call	 ?IsEnable@CButton@UI@@IAEHXZ ; UI::CButton::IsEnable
  00008	85 c0		 test	 eax, eax
  0000a	74 07		 je	 SHORT $LN4@OnMouseLef

; 1807 : 			return TRUE;
; 1808 : 
; 1809 : 		OnMouseLeftButtonDown();

  0000c	8b 06		 mov	 eax, DWORD PTR [esi]
  0000e	8b ce		 mov	 ecx, esi
  00010	ff 50 58	 call	 DWORD PTR [eax+88]
$LN4@OnMouseLef:

; 1810 : 
; 1811 : 		return TRUE;
; 1812 : 	}

  00013	b8 01 00 00 00	 mov	 eax, 1
  00018	5e		 pop	 esi
  00019	c3		 ret	 0
?OnMouseLeftButtonDoubleClick@CButton@UI@@MAEHXZ ENDP	; UI::CButton::OnMouseLeftButtonDoubleClick
_TEXT	ENDS
; Function compile flags: /Ogtp
; File C:\DS Project\DS Files\Source\ClientSource\Client\eterPythonLib\PythonWindow.cpp
;	COMDAT ?OnMouseLeftButtonDown@CButton@UI@@MAEHXZ
_TEXT	SEGMENT
?OnMouseLeftButtonDown@CButton@UI@@MAEHXZ PROC		; UI::CButton::OnMouseLeftButtonDown, COMDAT
; _this$ = ecx

; 1795 : 	{

  00000	56		 push	 esi
  00001	8b f1		 mov	 esi, ecx

; 1796 : 		if (!IsEnable())

  00003	e8 00 00 00 00	 call	 ?IsEnable@CButton@UI@@IAEHXZ ; UI::CButton::IsEnable
  00008	85 c0		 test	 eax, eax
  0000a	74 11		 je	 SHORT $LN4@OnMouseLef

; 1797 : 			return TRUE;
; 1798 : 
; 1799 : 		m_isPressed = TRUE;
; 1800 : 		Down();

  0000c	8b ce		 mov	 ecx, esi
  0000e	c7 86 80 00 00
	00 01 00 00 00	 mov	 DWORD PTR [esi+128], 1
  00018	e8 00 00 00 00	 call	 ?Down@CButton@UI@@QAEXXZ ; UI::CButton::Down
$LN4@OnMouseLef:

; 1801 : 
; 1802 : 		return TRUE;
; 1803 : 	}

  0001d	b8 01 00 00 00	 mov	 eax, 1
  00022	5e		 pop	 esi
  00023	c3		 ret	 0
?OnMouseLeftButtonDown@CButton@UI@@MAEHXZ ENDP		; UI::CButton::OnMouseLeftButtonDown
_TEXT	ENDS
; Function compile flags: /Ogtp
; File C:\DS Project\DS Files\Source\ClientSource\Client\eterPythonLib\PythonWindow.cpp
;	COMDAT ?OnChangePosition@CButton@UI@@MAEXXZ
_TEXT	SEGMENT
?OnChangePosition@CButton@UI@@MAEXXZ PROC		; UI::CButton::OnChangePosition, COMDAT
; _this$ = ecx

; 1790 : 		if (m_pcurVisual)

  00000	8b 81 88 00 00
	00		 mov	 eax, DWORD PTR [ecx+136]
  00006	85 c0		 test	 eax, eax
  00008	74 25		 je	 SHORT $LN2@OnChangePo

; 1791 : 			m_pcurVisual->SetPosition(m_rect.left, m_rect.top);

  0000a	66 0f 6e 41 38	 movd	 xmm0, DWORD PTR [ecx+56]
  0000f	83 ec 08	 sub	 esp, 8
  00012	0f 5b c0	 cvtdq2ps xmm0, xmm0
  00015	f3 0f 11 44 24
	04		 movss	 DWORD PTR [esp+4], xmm0
  0001b	66 0f 6e 41 34	 movd	 xmm0, DWORD PTR [ecx+52]
  00020	8b c8		 mov	 ecx, eax
  00022	0f 5b c0	 cvtdq2ps xmm0, xmm0
  00025	f3 0f 11 04 24	 movss	 DWORD PTR [esp], xmm0
  0002a	e8 00 00 00 00	 call	 ?SetPosition@CGraphicImageInstance@@QAEXMM@Z ; CGraphicImageInstance::SetPosition
$LN2@OnChangePo:

; 1792 : 	}

  0002f	c3		 ret	 0
?OnChangePosition@CButton@UI@@MAEXXZ ENDP		; UI::CButton::OnChangePosition
_TEXT	ENDS
; Function compile flags: /Ogtp
; File C:\DS Project\DS Files\Source\ClientSource\Client\eterPythonLib\PythonWindow.cpp
;	COMDAT ?OnRender@CButton@UI@@MAEXXZ
_TEXT	SEGMENT
?OnRender@CButton@UI@@MAEXXZ PROC			; UI::CButton::OnRender, COMDAT
; _this$ = ecx

; 1770 : 	{

  00000	56		 push	 esi
  00001	8b f1		 mov	 esi, ecx

; 1771 : 		if (!IsShow())

  00003	80 7e 55 00	 cmp	 BYTE PTR [esi+85], 0
  00007	74 53		 je	 SHORT $LN1@OnRender

; 1772 : 			return;
; 1773 : 
; 1774 : 		if (m_pcurVisual)

  00009	83 be 88 00 00
	00 00		 cmp	 DWORD PTR [esi+136], 0
  00010	74 34		 je	 SHORT $LN3@OnRender

; 1775 : 		{
; 1776 : 			if (m_isFlash)

  00012	83 be 84 00 00
	00 00		 cmp	 DWORD PTR [esi+132], 0
  00019	74 20		 je	 SHORT $LN6@OnRender

; 1777 : 			if (!IsIn())

  0001b	e8 00 00 00 00	 call	 ?IsIn@CWindow@UI@@QAE_NXZ ; UI::CWindow::IsIn
  00020	84 c0		 test	 al, al
  00022	75 17		 jne	 SHORT $LN6@OnRender

; 1778 : 			if (int(timeGetTime() / 500)%2)

  00024	ff 15 00 00 00
	00		 call	 DWORD PTR __imp__timeGetTime@0
  0002a	8b c8		 mov	 ecx, eax
  0002c	b8 d3 4d 62 10	 mov	 eax, 274877907		; 10624dd3H
  00031	f7 e1		 mul	 ecx
  00033	c1 ea 05	 shr	 edx, 5
  00036	f6 c2 01	 test	 dl, 1
  00039	75 21		 jne	 SHORT $LN1@OnRender
$LN6@OnRender:

; 1779 : 			{
; 1780 : 				return;
; 1781 : 			}
; 1782 : 
; 1783 : 			m_pcurVisual->Render();

  0003b	8b 8e 88 00 00
	00		 mov	 ecx, DWORD PTR [esi+136]
  00041	e8 00 00 00 00	 call	 ?Render@CGraphicImageInstance@@QAEXXZ ; CGraphicImageInstance::Render
$LN3@OnRender:

; 1784 : 		}
; 1785 : 
; 1786 : 		PyCallClassMemberFunc(m_poHandler, "OnRender", BuildEmptyTuple());

  00046	e8 00 00 00 00	 call	 ?BuildEmptyTuple@UI@@YAPAU_object@@XZ ; UI::BuildEmptyTuple
  0004b	50		 push	 eax
  0004c	68 00 00 00 00	 push	 OFFSET ??_C@_08PAJMEILO@OnRender@
  00051	ff 76 5c	 push	 DWORD PTR [esi+92]
  00054	e8 00 00 00 00	 call	 ?PyCallClassMemberFunc@@YA_NPAU_object@@PBD0@Z ; PyCallClassMemberFunc
  00059	83 c4 0c	 add	 esp, 12			; 0000000cH
$LN1@OnRender:

; 1787 : 	}

  0005c	5e		 pop	 esi
  0005d	c3		 ret	 0
?OnRender@CButton@UI@@MAEXXZ ENDP			; UI::CButton::OnRender
_TEXT	ENDS
; Function compile flags: /Ogtp
; File C:\DS Project\DS Files\Source\ClientSource\Client\eterPythonLib\PythonWindow.cpp
;	COMDAT ?OnUpdate@CButton@UI@@MAEXXZ
_TEXT	SEGMENT
?OnUpdate@CButton@UI@@MAEXXZ PROC			; UI::CButton::OnUpdate, COMDAT
; _this$ = ecx

; 1768 : 	}

  00000	c2 00 00	 ret	 0
?OnUpdate@CButton@UI@@MAEXXZ ENDP			; UI::CButton::OnUpdate
_TEXT	ENDS
; Function compile flags: /Ogtp
; File C:\DS Project\DS Files\Source\ClientSource\Client\eterPythonLib\PythonWindow.cpp
;	COMDAT ?IsPressed@CButton@UI@@QAEHXZ
_TEXT	SEGMENT
?IsPressed@CButton@UI@@QAEHXZ PROC			; UI::CButton::IsPressed, COMDAT
; _this$ = ecx

; 1855 : 		return m_isPressed;

  00000	8b 81 80 00 00
	00		 mov	 eax, DWORD PTR [ecx+128]

; 1856 : 	}

  00006	c3		 ret	 0
?IsPressed@CButton@UI@@QAEHXZ ENDP			; UI::CButton::IsPressed
_TEXT	ENDS
; Function compile flags: /Ogtp
; File C:\DS Project\DS Files\Source\ClientSource\Client\eterPythonLib\PythonWindow.cpp
;	COMDAT ?IsDisable@CButton@UI@@QAEHXZ
_TEXT	SEGMENT
?IsDisable@CButton@UI@@QAEHXZ PROC			; UI::CButton::IsDisable, COMDAT
; _this$ = ecx

; 1738 : 		return m_bEnable;

  00000	8b 41 7c	 mov	 eax, DWORD PTR [ecx+124]

; 1739 : 	}

  00003	c3		 ret	 0
?IsDisable@CButton@UI@@QAEHXZ ENDP			; UI::CButton::IsDisable
_TEXT	ENDS
; Function compile flags: /Ogtp
; File C:\DS Project\DS Files\Source\ClientSource\Client\eterPythonLib\PythonWindow.cpp
;	COMDAT ?Down@CButton@UI@@QAEXXZ
_TEXT	SEGMENT
?Down@CButton@UI@@QAEXXZ PROC				; UI::CButton::Down, COMDAT
; _this$ = ecx

; 1760 : 	{

  00000	56		 push	 esi
  00001	8b f1		 mov	 esi, ecx

; 1761 : 		m_isPressed = TRUE;
; 1762 : 		SetCurrentVisual(&m_downVisual);

  00003	8d 86 cc 00 00
	00		 lea	 eax, DWORD PTR [esi+204]
  00009	c7 86 80 00 00
	00 01 00 00 00	 mov	 DWORD PTR [esi+128], 1
  00013	50		 push	 eax
  00014	e8 00 00 00 00	 call	 ?SetCurrentVisual@CButton@UI@@IAEXPAVCGraphicImageInstance@@@Z ; UI::CButton::SetCurrentVisual

; 1763 : 		PyCallClassMemberFunc(m_poHandler, "DownEvent", BuildEmptyTuple());

  00019	e8 00 00 00 00	 call	 ?BuildEmptyTuple@UI@@YAPAU_object@@XZ ; UI::BuildEmptyTuple
  0001e	50		 push	 eax
  0001f	68 00 00 00 00	 push	 OFFSET ??_C@_09FJAHACEO@DownEvent@
  00024	ff 76 5c	 push	 DWORD PTR [esi+92]
  00027	e8 00 00 00 00	 call	 ?PyCallClassMemberFunc@@YA_NPAU_object@@PBD0@Z ; PyCallClassMemberFunc
  0002c	83 c4 0c	 add	 esp, 12			; 0000000cH
  0002f	5e		 pop	 esi

; 1764 : 	}

  00030	c3		 ret	 0
?Down@CButton@UI@@QAEXXZ ENDP				; UI::CButton::Down
_TEXT	ENDS
; Function compile flags: /Ogtp
; File C:\DS Project\DS Files\Source\ClientSource\Client\eterPythonLib\PythonWindow.cpp
;	COMDAT ?Over@CButton@UI@@QAEXXZ
_TEXT	SEGMENT
?Over@CButton@UI@@QAEXXZ PROC				; UI::CButton::Over, COMDAT
; _this$ = ecx

; 1757 : 		SetCurrentVisual(&m_overVisual);

  00000	8d 81 ac 00 00
	00		 lea	 eax, DWORD PTR [ecx+172]
  00006	50		 push	 eax
  00007	e8 00 00 00 00	 call	 ?SetCurrentVisual@CButton@UI@@IAEXPAVCGraphicImageInstance@@@Z ; UI::CButton::SetCurrentVisual

; 1758 : 	}

  0000c	c3		 ret	 0
?Over@CButton@UI@@QAEXXZ ENDP				; UI::CButton::Over
_TEXT	ENDS
; Function compile flags: /Ogtp
; File C:\DS Project\DS Files\Source\ClientSource\Client\eterPythonLib\PythonWindow.cpp
;	COMDAT ?Up@CButton@UI@@QAEXXZ
_TEXT	SEGMENT
?Up@CButton@UI@@QAEXXZ PROC				; UI::CButton::Up, COMDAT
; _this$ = ecx

; 1747 : 	{

  00000	56		 push	 esi
  00001	8b f1		 mov	 esi, ecx

; 1748 : 		if (IsIn())

  00003	e8 00 00 00 00	 call	 ?IsIn@CWindow@UI@@QAE_NXZ ; UI::CWindow::IsIn
  00008	84 c0		 test	 al, al
  0000a	b9 ac 00 00 00	 mov	 ecx, 172		; 000000acH
  0000f	ba 8c 00 00 00	 mov	 edx, 140		; 0000008cH
  00014	0f 45 d1	 cmovne	 edx, ecx

; 1749 : 			SetCurrentVisual(&m_overVisual);
; 1750 : 		else
; 1751 : 			SetCurrentVisual(&m_upVisual);
; 1752 : 
; 1753 : 		PyCallClassMemberFunc(m_poHandler, "CallEvent", BuildEmptyTuple());

  00017	8b ce		 mov	 ecx, esi
  00019	8d 04 32	 lea	 eax, DWORD PTR [edx+esi]
  0001c	50		 push	 eax
  0001d	e8 00 00 00 00	 call	 ?SetCurrentVisual@CButton@UI@@IAEXPAVCGraphicImageInstance@@@Z ; UI::CButton::SetCurrentVisual
  00022	e8 00 00 00 00	 call	 ?BuildEmptyTuple@UI@@YAPAU_object@@XZ ; UI::BuildEmptyTuple
  00027	50		 push	 eax
  00028	68 00 00 00 00	 push	 OFFSET ??_C@_09MFFHPOPB@CallEvent@
  0002d	ff 76 5c	 push	 DWORD PTR [esi+92]
  00030	e8 00 00 00 00	 call	 ?PyCallClassMemberFunc@@YA_NPAU_object@@PBD0@Z ; PyCallClassMemberFunc
  00035	83 c4 0c	 add	 esp, 12			; 0000000cH
  00038	5e		 pop	 esi

; 1754 : 	}

  00039	c3		 ret	 0
?Up@CButton@UI@@QAEXXZ ENDP				; UI::CButton::Up
_TEXT	ENDS
; Function compile flags: /Ogtp
; File C:\DS Project\DS Files\Source\ClientSource\Client\eterPythonLib\PythonWindow.cpp
;	COMDAT ?SetUp@CButton@UI@@QAEXXZ
_TEXT	SEGMENT
?SetUp@CButton@UI@@QAEXXZ PROC				; UI::CButton::SetUp, COMDAT
; _this$ = ecx

; 1742 : 	{

  00000	56		 push	 esi
  00001	8b f1		 mov	 esi, ecx

; 1743 : 		SetCurrentVisual(&m_upVisual);

  00003	8d 86 8c 00 00
	00		 lea	 eax, DWORD PTR [esi+140]
  00009	50		 push	 eax
  0000a	e8 00 00 00 00	 call	 ?SetCurrentVisual@CButton@UI@@IAEXPAVCGraphicImageInstance@@@Z ; UI::CButton::SetCurrentVisual

; 1744 : 		m_isPressed = FALSE;

  0000f	c7 86 80 00 00
	00 00 00 00 00	 mov	 DWORD PTR [esi+128], 0
  00019	5e		 pop	 esi

; 1745 : 	}

  0001a	c3		 ret	 0
?SetUp@CButton@UI@@QAEXXZ ENDP				; UI::CButton::SetUp
_TEXT	ENDS
; Function compile flags: /Ogtp
; File C:\DS Project\DS Files\Source\ClientSource\Client\eterPythonLib\PythonWindow.cpp
;	COMDAT ?Disable@CButton@UI@@QAEXXZ
_TEXT	SEGMENT
?Disable@CButton@UI@@QAEXXZ PROC			; UI::CButton::Disable, COMDAT
; _this$ = ecx

; 1730 : 	{

  00000	56		 push	 esi
  00001	8b f1		 mov	 esi, ecx
  00003	57		 push	 edi

; 1731 : 		m_bEnable = FALSE;
; 1732 : 		if (!m_disableVisual.IsEmpty())

  00004	8d be ec 00 00
	00		 lea	 edi, DWORD PTR [esi+236]
  0000a	c7 46 7c 00 00
	00 00		 mov	 DWORD PTR [esi+124], 0
  00011	8b cf		 mov	 ecx, edi
  00013	e8 00 00 00 00	 call	 ?IsEmpty@CGraphicImageInstance@@QBE_NXZ ; CGraphicImageInstance::IsEmpty
  00018	84 c0		 test	 al, al
  0001a	75 08		 jne	 SHORT $LN2@Disable

; 1733 : 			SetCurrentVisual(&m_disableVisual);

  0001c	57		 push	 edi
  0001d	8b ce		 mov	 ecx, esi
  0001f	e8 00 00 00 00	 call	 ?SetCurrentVisual@CButton@UI@@IAEXPAVCGraphicImageInstance@@@Z ; UI::CButton::SetCurrentVisual
$LN2@Disable:

; 1734 : 	}

  00024	5f		 pop	 edi
  00025	5e		 pop	 esi
  00026	c3		 ret	 0
?Disable@CButton@UI@@QAEXXZ ENDP			; UI::CButton::Disable
_TEXT	ENDS
; Function compile flags: /Ogtp
; File C:\DS Project\DS Files\Source\ClientSource\Client\eterPythonLib\PythonWindow.cpp
;	COMDAT ?Enable@CButton@UI@@QAEXXZ
_TEXT	SEGMENT
?Enable@CButton@UI@@QAEXXZ PROC				; UI::CButton::Enable, COMDAT
; _this$ = ecx

; 1724 : 	{

  00000	56		 push	 esi
  00001	8b f1		 mov	 esi, ecx

; 1725 : 		SetUp();

  00003	e8 00 00 00 00	 call	 ?SetUp@CButton@UI@@QAEXXZ ; UI::CButton::SetUp

; 1726 : 		m_bEnable = TRUE;

  00008	c7 46 7c 01 00
	00 00		 mov	 DWORD PTR [esi+124], 1
  0000f	5e		 pop	 esi

; 1727 : 	}

  00010	c3		 ret	 0
?Enable@CButton@UI@@QAEXXZ ENDP				; UI::CButton::Enable
_TEXT	ENDS
; Function compile flags: /Ogtp
; File C:\DS Project\DS Files\Source\ClientSource\Client\eterPythonLib\PythonWindow.cpp
;	COMDAT ?Flash@CButton@UI@@QAEXXZ
_TEXT	SEGMENT
?Flash@CButton@UI@@QAEXXZ PROC				; UI::CButton::Flash, COMDAT
; _this$ = ecx

; 1720 : 		m_isFlash = TRUE;

  00000	c7 81 84 00 00
	00 01 00 00 00	 mov	 DWORD PTR [ecx+132], 1

; 1721 : 	}

  0000a	c3		 ret	 0
?Flash@CButton@UI@@QAEXXZ ENDP				; UI::CButton::Flash
_TEXT	ENDS
; Function compile flags: /Ogtp
; File C:\DS Project\DS Files\Source\ClientSource\Client\eterPythonLib\PythonWindow.cpp
; File C:\Program Files (x86)\Microsoft Visual Studio\2019\Community\VC\Tools\MSVC\14.27.29110\include\xstring
; File C:\DS Project\DS Files\Source\ClientSource\Client\eterPythonLib\PythonWindow.cpp
;	COMDAT ?GetDownVisualFileName@CButton@UI@@QAEPBDXZ
_TEXT	SEGMENT
?GetDownVisualFileName@CButton@UI@@QAEPBDXZ PROC	; UI::CButton::GetDownVisualFileName, COMDAT
; _this$ = ecx

; 1715 : 		return m_downVisual.GetGraphicImagePointer()->GetFileName();

  00000	81 c1 cc 00 00
	00		 add	 ecx, 204		; 000000ccH
  00006	e8 00 00 00 00	 call	 ?GetGraphicImagePointer@CGraphicImageInstance@@QAEPAVCGraphicImage@@XZ ; CGraphicImageInstance::GetGraphicImagePointer
; File C:\Program Files (x86)\Microsoft Visual Studio\2019\Community\VC\Tools\MSVC\14.27.29110\include\xstring

; 3668 :         return _Mypair._Myval2._Myptr();

  0000b	83 c0 0c	 add	 eax, 12			; 0000000cH

; 2153 :         return _BUF_SIZE <= _Myres;

  0000e	83 78 14 10	 cmp	 DWORD PTR [eax+20], 16	; 00000010H

; 2145 :         if (_Large_string_engaged()) {

  00012	72 02		 jb	 SHORT $LN8@GetDownVis
; File C:\DS Project\DS Files\Source\ClientSource\Client\eterPythonLib\PythonWindow.cpp

; 1715 : 		return m_downVisual.GetGraphicImagePointer()->GetFileName();

  00014	8b 00		 mov	 eax, DWORD PTR [eax]
$LN8@GetDownVis:

; 1716 : 	}

  00016	c3		 ret	 0
?GetDownVisualFileName@CButton@UI@@QAEPBDXZ ENDP	; UI::CButton::GetDownVisualFileName
_TEXT	ENDS
; Function compile flags: /Ogtp
; File C:\DS Project\DS Files\Source\ClientSource\Client\eterPythonLib\PythonWindow.cpp
; File C:\Program Files (x86)\Microsoft Visual Studio\2019\Community\VC\Tools\MSVC\14.27.29110\include\xstring
; File C:\DS Project\DS Files\Source\ClientSource\Client\eterPythonLib\PythonWindow.cpp
;	COMDAT ?GetOverVisualFileName@CButton@UI@@QAEPBDXZ
_TEXT	SEGMENT
?GetOverVisualFileName@CButton@UI@@QAEPBDXZ PROC	; UI::CButton::GetOverVisualFileName, COMDAT
; _this$ = ecx

; 1711 : 		return m_overVisual.GetGraphicImagePointer()->GetFileName();

  00000	81 c1 ac 00 00
	00		 add	 ecx, 172		; 000000acH
  00006	e8 00 00 00 00	 call	 ?GetGraphicImagePointer@CGraphicImageInstance@@QAEPAVCGraphicImage@@XZ ; CGraphicImageInstance::GetGraphicImagePointer
; File C:\Program Files (x86)\Microsoft Visual Studio\2019\Community\VC\Tools\MSVC\14.27.29110\include\xstring

; 3668 :         return _Mypair._Myval2._Myptr();

  0000b	83 c0 0c	 add	 eax, 12			; 0000000cH

; 2153 :         return _BUF_SIZE <= _Myres;

  0000e	83 78 14 10	 cmp	 DWORD PTR [eax+20], 16	; 00000010H

; 2145 :         if (_Large_string_engaged()) {

  00012	72 02		 jb	 SHORT $LN8@GetOverVis
; File C:\DS Project\DS Files\Source\ClientSource\Client\eterPythonLib\PythonWindow.cpp

; 1711 : 		return m_overVisual.GetGraphicImagePointer()->GetFileName();

  00014	8b 00		 mov	 eax, DWORD PTR [eax]
$LN8@GetOverVis:

; 1712 : 	}

  00016	c3		 ret	 0
?GetOverVisualFileName@CButton@UI@@QAEPBDXZ ENDP	; UI::CButton::GetOverVisualFileName
_TEXT	ENDS
; Function compile flags: /Ogtp
; File C:\DS Project\DS Files\Source\ClientSource\Client\eterPythonLib\PythonWindow.cpp
; File C:\Program Files (x86)\Microsoft Visual Studio\2019\Community\VC\Tools\MSVC\14.27.29110\include\xstring
; File C:\DS Project\DS Files\Source\ClientSource\Client\eterPythonLib\PythonWindow.cpp
;	COMDAT ?GetUpVisualFileName@CButton@UI@@QAEPBDXZ
_TEXT	SEGMENT
?GetUpVisualFileName@CButton@UI@@QAEPBDXZ PROC		; UI::CButton::GetUpVisualFileName, COMDAT
; _this$ = ecx

; 1707 : 		return m_upVisual.GetGraphicImagePointer()->GetFileName();

  00000	81 c1 8c 00 00
	00		 add	 ecx, 140		; 0000008cH
  00006	e8 00 00 00 00	 call	 ?GetGraphicImagePointer@CGraphicImageInstance@@QAEPAVCGraphicImage@@XZ ; CGraphicImageInstance::GetGraphicImagePointer
; File C:\Program Files (x86)\Microsoft Visual Studio\2019\Community\VC\Tools\MSVC\14.27.29110\include\xstring

; 3668 :         return _Mypair._Myval2._Myptr();

  0000b	83 c0 0c	 add	 eax, 12			; 0000000cH

; 2153 :         return _BUF_SIZE <= _Myres;

  0000e	83 78 14 10	 cmp	 DWORD PTR [eax+20], 16	; 00000010H

; 2145 :         if (_Large_string_engaged()) {

  00012	72 02		 jb	 SHORT $LN8@GetUpVisua
; File C:\DS Project\DS Files\Source\ClientSource\Client\eterPythonLib\PythonWindow.cpp

; 1707 : 		return m_upVisual.GetGraphicImagePointer()->GetFileName();

  00014	8b 00		 mov	 eax, DWORD PTR [eax]
$LN8@GetUpVisua:

; 1708 : 	}

  00016	c3		 ret	 0
?GetUpVisualFileName@CButton@UI@@QAEPBDXZ ENDP		; UI::CButton::GetUpVisualFileName
_TEXT	ENDS
; Function compile flags: /Ogtp
; File C:\DS Project\DS Files\Source\ClientSource\Client\eterPythonLib\PythonWindow.cpp
;	COMDAT ?SetDisableVisual@CButton@UI@@QAEHPBD@Z
_TEXT	SEGMENT
_c_szFileName$ = 8					; size = 4
?SetDisableVisual@CButton@UI@@QAEHPBD@Z PROC		; UI::CButton::SetDisableVisual, COMDAT
; _this$ = ecx

; 1691 : 	{

  00000	55		 push	 ebp
  00001	8b ec		 mov	 ebp, esp
  00003	53		 push	 ebx
  00004	56		 push	 esi
  00005	57		 push	 edi

; 1692 : 		CResource * pResource = CResourceManager::Instance().GetResourcePointer(c_szFileName);

  00006	ff 75 08	 push	 DWORD PTR _c_szFileName$[ebp]
  00009	8b f9		 mov	 edi, ecx
  0000b	8b 0d 00 00 00
	00		 mov	 ecx, DWORD PTR ?ms_singleton@?$CSingleton@VCResourceManager@@@@0PAVCResourceManager@@A ; CSingleton<CResourceManager>::ms_singleton
  00011	e8 00 00 00 00	 call	 ?GetResourcePointer@CResourceManager@@QAEPAVCResource@@PBD@Z ; CResourceManager::GetResourcePointer
  00016	8b d8		 mov	 ebx, eax

; 1693 : 		if (!pResource->IsType(CGraphicImage::Type()))

  00018	e8 00 00 00 00	 call	 ?Type@CGraphicImage@@SAKXZ ; CGraphicImage::Type
  0001d	50		 push	 eax
  0001e	8b cb		 mov	 ecx, ebx
  00020	e8 00 00 00 00	 call	 ?IsType@CResource@@QAE_NK@Z ; CResource::IsType
  00025	84 c0		 test	 al, al
  00027	74 46		 je	 SHORT $LN5@SetDisable

; 1694 : 			return FALSE;
; 1695 : 
; 1696 : 		m_disableVisual.SetImagePointer(static_cast<CGraphicImage*>(pResource));

  00029	53		 push	 ebx
  0002a	8d 8f ec 00 00
	00		 lea	 ecx, DWORD PTR [edi+236]
  00030	e8 00 00 00 00	 call	 ?SetImagePointer@CGraphicImageInstance@@QAEXPAVCGraphicImage@@@Z ; CGraphicImageInstance::SetImagePointer

; 1697 : 		if (m_downVisual.IsEmpty())

  00035	8d 8f cc 00 00
	00		 lea	 ecx, DWORD PTR [edi+204]
  0003b	e8 00 00 00 00	 call	 ?IsEmpty@CGraphicImageInstance@@QBE_NXZ ; CGraphicImageInstance::IsEmpty
  00040	84 c0		 test	 al, al
  00042	75 2b		 jne	 SHORT $LN5@SetDisable

; 1698 : 			return FALSE;
; 1699 : 
; 1700 : 		SetSize(m_disableVisual.GetWidth(), m_disableVisual.GetHeight());

  00044	8d 8f ec 00 00
	00		 lea	 ecx, DWORD PTR [edi+236]
  0004a	e8 00 00 00 00	 call	 ?GetHeight@CGraphicImageInstance@@QAEHXZ ; CGraphicImageInstance::GetHeight
  0004f	50		 push	 eax
  00050	8d 8f ec 00 00
	00		 lea	 ecx, DWORD PTR [edi+236]
  00056	e8 00 00 00 00	 call	 ?GetWidth@CGraphicImageInstance@@QAEHXZ ; CGraphicImageInstance::GetWidth
  0005b	50		 push	 eax
  0005c	8b cf		 mov	 ecx, edi
  0005e	e8 00 00 00 00	 call	 ?SetSize@CWindow@UI@@QAEXJJ@Z ; UI::CWindow::SetSize
  00063	5f		 pop	 edi

; 1701 : 
; 1702 : 		return TRUE;
; 1703 : 	}

  00064	5e		 pop	 esi
  00065	b8 01 00 00 00	 mov	 eax, 1
  0006a	5b		 pop	 ebx
  0006b	5d		 pop	 ebp
  0006c	c2 04 00	 ret	 4
$LN5@SetDisable:
  0006f	5f		 pop	 edi
  00070	5e		 pop	 esi
  00071	33 c0		 xor	 eax, eax
  00073	5b		 pop	 ebx
  00074	5d		 pop	 ebp
  00075	c2 04 00	 ret	 4
?SetDisableVisual@CButton@UI@@QAEHPBD@Z ENDP		; UI::CButton::SetDisableVisual
_TEXT	ENDS
; Function compile flags: /Ogtp
; File C:\DS Project\DS Files\Source\ClientSource\Client\eterPythonLib\PythonWindow.cpp
;	COMDAT ?SetDownVisual@CButton@UI@@QAEHPBD@Z
_TEXT	SEGMENT
_c_szFileName$ = 8					; size = 4
?SetDownVisual@CButton@UI@@QAEHPBD@Z PROC		; UI::CButton::SetDownVisual, COMDAT
; _this$ = ecx

; 1677 : 	{

  00000	55		 push	 ebp
  00001	8b ec		 mov	 ebp, esp
  00003	53		 push	 ebx
  00004	56		 push	 esi
  00005	57		 push	 edi

; 1678 : 		CResource * pResource = CResourceManager::Instance().GetResourcePointer(c_szFileName);

  00006	ff 75 08	 push	 DWORD PTR _c_szFileName$[ebp]
  00009	8b f9		 mov	 edi, ecx
  0000b	8b 0d 00 00 00
	00		 mov	 ecx, DWORD PTR ?ms_singleton@?$CSingleton@VCResourceManager@@@@0PAVCResourceManager@@A ; CSingleton<CResourceManager>::ms_singleton
  00011	e8 00 00 00 00	 call	 ?GetResourcePointer@CResourceManager@@QAEPAVCResource@@PBD@Z ; CResourceManager::GetResourcePointer
  00016	8b d8		 mov	 ebx, eax

; 1679 : 		if (!pResource->IsType(CGraphicImage::Type()))

  00018	e8 00 00 00 00	 call	 ?Type@CGraphicImage@@SAKXZ ; CGraphicImage::Type
  0001d	50		 push	 eax
  0001e	8b cb		 mov	 ecx, ebx
  00020	e8 00 00 00 00	 call	 ?IsType@CResource@@QAE_NK@Z ; CResource::IsType
  00025	84 c0		 test	 al, al
  00027	74 46		 je	 SHORT $LN5@SetDownVis

; 1680 : 			return FALSE;
; 1681 : 
; 1682 : 		m_downVisual.SetImagePointer(static_cast<CGraphicImage*>(pResource));

  00029	53		 push	 ebx
  0002a	8d 8f cc 00 00
	00		 lea	 ecx, DWORD PTR [edi+204]
  00030	e8 00 00 00 00	 call	 ?SetImagePointer@CGraphicImageInstance@@QAEXPAVCGraphicImage@@@Z ; CGraphicImageInstance::SetImagePointer

; 1683 : 		if (m_downVisual.IsEmpty())

  00035	8d 8f cc 00 00
	00		 lea	 ecx, DWORD PTR [edi+204]
  0003b	e8 00 00 00 00	 call	 ?IsEmpty@CGraphicImageInstance@@QBE_NXZ ; CGraphicImageInstance::IsEmpty
  00040	84 c0		 test	 al, al
  00042	75 2b		 jne	 SHORT $LN5@SetDownVis

; 1684 : 			return FALSE;
; 1685 : 
; 1686 : 		SetSize(m_downVisual.GetWidth(), m_downVisual.GetHeight());

  00044	8d 8f cc 00 00
	00		 lea	 ecx, DWORD PTR [edi+204]
  0004a	e8 00 00 00 00	 call	 ?GetHeight@CGraphicImageInstance@@QAEHXZ ; CGraphicImageInstance::GetHeight
  0004f	50		 push	 eax
  00050	8d 8f cc 00 00
	00		 lea	 ecx, DWORD PTR [edi+204]
  00056	e8 00 00 00 00	 call	 ?GetWidth@CGraphicImageInstance@@QAEHXZ ; CGraphicImageInstance::GetWidth
  0005b	50		 push	 eax
  0005c	8b cf		 mov	 ecx, edi
  0005e	e8 00 00 00 00	 call	 ?SetSize@CWindow@UI@@QAEXJJ@Z ; UI::CWindow::SetSize
  00063	5f		 pop	 edi

; 1687 : 
; 1688 : 		return TRUE;
; 1689 : 	}

  00064	5e		 pop	 esi
  00065	b8 01 00 00 00	 mov	 eax, 1
  0006a	5b		 pop	 ebx
  0006b	5d		 pop	 ebp
  0006c	c2 04 00	 ret	 4
$LN5@SetDownVis:
  0006f	5f		 pop	 edi
  00070	5e		 pop	 esi
  00071	33 c0		 xor	 eax, eax
  00073	5b		 pop	 ebx
  00074	5d		 pop	 ebp
  00075	c2 04 00	 ret	 4
?SetDownVisual@CButton@UI@@QAEHPBD@Z ENDP		; UI::CButton::SetDownVisual
_TEXT	ENDS
; Function compile flags: /Ogtp
; File C:\DS Project\DS Files\Source\ClientSource\Client\eterPythonLib\PythonWindow.cpp
;	COMDAT ?SetOverVisual@CButton@UI@@QAEHPBD@Z
_TEXT	SEGMENT
_c_szFileName$ = 8					; size = 4
?SetOverVisual@CButton@UI@@QAEHPBD@Z PROC		; UI::CButton::SetOverVisual, COMDAT
; _this$ = ecx

; 1663 : 	{

  00000	55		 push	 ebp
  00001	8b ec		 mov	 ebp, esp
  00003	53		 push	 ebx
  00004	56		 push	 esi
  00005	57		 push	 edi

; 1664 : 		CResource * pResource = CResourceManager::Instance().GetResourcePointer(c_szFileName);

  00006	ff 75 08	 push	 DWORD PTR _c_szFileName$[ebp]
  00009	8b f9		 mov	 edi, ecx
  0000b	8b 0d 00 00 00
	00		 mov	 ecx, DWORD PTR ?ms_singleton@?$CSingleton@VCResourceManager@@@@0PAVCResourceManager@@A ; CSingleton<CResourceManager>::ms_singleton
  00011	e8 00 00 00 00	 call	 ?GetResourcePointer@CResourceManager@@QAEPAVCResource@@PBD@Z ; CResourceManager::GetResourcePointer
  00016	8b d8		 mov	 ebx, eax

; 1665 : 		if (!pResource->IsType(CGraphicImage::Type()))

  00018	e8 00 00 00 00	 call	 ?Type@CGraphicImage@@SAKXZ ; CGraphicImage::Type
  0001d	50		 push	 eax
  0001e	8b cb		 mov	 ecx, ebx
  00020	e8 00 00 00 00	 call	 ?IsType@CResource@@QAE_NK@Z ; CResource::IsType
  00025	84 c0		 test	 al, al
  00027	74 46		 je	 SHORT $LN5@SetOverVis

; 1666 : 			return FALSE;
; 1667 : 
; 1668 : 		m_overVisual.SetImagePointer(static_cast<CGraphicImage*>(pResource));

  00029	53		 push	 ebx
  0002a	8d 8f ac 00 00
	00		 lea	 ecx, DWORD PTR [edi+172]
  00030	e8 00 00 00 00	 call	 ?SetImagePointer@CGraphicImageInstance@@QAEXPAVCGraphicImage@@@Z ; CGraphicImageInstance::SetImagePointer

; 1669 : 		if (m_overVisual.IsEmpty())

  00035	8d 8f ac 00 00
	00		 lea	 ecx, DWORD PTR [edi+172]
  0003b	e8 00 00 00 00	 call	 ?IsEmpty@CGraphicImageInstance@@QBE_NXZ ; CGraphicImageInstance::IsEmpty
  00040	84 c0		 test	 al, al
  00042	75 2b		 jne	 SHORT $LN5@SetOverVis

; 1670 : 			return FALSE;
; 1671 : 
; 1672 : 		SetSize(m_overVisual.GetWidth(), m_overVisual.GetHeight());

  00044	8d 8f ac 00 00
	00		 lea	 ecx, DWORD PTR [edi+172]
  0004a	e8 00 00 00 00	 call	 ?GetHeight@CGraphicImageInstance@@QAEHXZ ; CGraphicImageInstance::GetHeight
  0004f	50		 push	 eax
  00050	8d 8f ac 00 00
	00		 lea	 ecx, DWORD PTR [edi+172]
  00056	e8 00 00 00 00	 call	 ?GetWidth@CGraphicImageInstance@@QAEHXZ ; CGraphicImageInstance::GetWidth
  0005b	50		 push	 eax
  0005c	8b cf		 mov	 ecx, edi
  0005e	e8 00 00 00 00	 call	 ?SetSize@CWindow@UI@@QAEXJJ@Z ; UI::CWindow::SetSize
  00063	5f		 pop	 edi

; 1673 : 
; 1674 : 		return TRUE;
; 1675 : 	}

  00064	5e		 pop	 esi
  00065	b8 01 00 00 00	 mov	 eax, 1
  0006a	5b		 pop	 ebx
  0006b	5d		 pop	 ebp
  0006c	c2 04 00	 ret	 4
$LN5@SetOverVis:
  0006f	5f		 pop	 edi
  00070	5e		 pop	 esi
  00071	33 c0		 xor	 eax, eax
  00073	5b		 pop	 ebx
  00074	5d		 pop	 ebp
  00075	c2 04 00	 ret	 4
?SetOverVisual@CButton@UI@@QAEHPBD@Z ENDP		; UI::CButton::SetOverVisual
_TEXT	ENDS
; Function compile flags: /Ogtp
; File C:\DS Project\DS Files\Source\ClientSource\Client\eterPythonLib\PythonWindow.cpp
;	COMDAT ?SetUpVisual@CButton@UI@@QAEHPBD@Z
_TEXT	SEGMENT
_c_szFileName$ = 8					; size = 4
?SetUpVisual@CButton@UI@@QAEHPBD@Z PROC			; UI::CButton::SetUpVisual, COMDAT
; _this$ = ecx

; 1646 : 	{

  00000	55		 push	 ebp
  00001	8b ec		 mov	 ebp, esp
  00003	53		 push	 ebx
  00004	56		 push	 esi
  00005	57		 push	 edi

; 1647 : 		CResource * pResource = CResourceManager::Instance().GetResourcePointer(c_szFileName);

  00006	ff 75 08	 push	 DWORD PTR _c_szFileName$[ebp]
  00009	8b f9		 mov	 edi, ecx
  0000b	8b 0d 00 00 00
	00		 mov	 ecx, DWORD PTR ?ms_singleton@?$CSingleton@VCResourceManager@@@@0PAVCResourceManager@@A ; CSingleton<CResourceManager>::ms_singleton
  00011	e8 00 00 00 00	 call	 ?GetResourcePointer@CResourceManager@@QAEPAVCResource@@PBD@Z ; CResourceManager::GetResourcePointer
  00016	8b d8		 mov	 ebx, eax

; 1648 : 		if (!pResource->IsType(CGraphicImage::Type()))

  00018	e8 00 00 00 00	 call	 ?Type@CGraphicImage@@SAKXZ ; CGraphicImage::Type
  0001d	50		 push	 eax
  0001e	8b cb		 mov	 ecx, ebx
  00020	e8 00 00 00 00	 call	 ?IsType@CResource@@QAE_NK@Z ; CResource::IsType
  00025	84 c0		 test	 al, al
  00027	74 44		 je	 SHORT $LN5@SetUpVisua

; 1649 : 			return FALSE;
; 1650 : 
; 1651 : 		m_upVisual.SetImagePointer(static_cast<CGraphicImage*>(pResource));

  00029	8d b7 8c 00 00
	00		 lea	 esi, DWORD PTR [edi+140]
  0002f	53		 push	 ebx
  00030	8b ce		 mov	 ecx, esi
  00032	e8 00 00 00 00	 call	 ?SetImagePointer@CGraphicImageInstance@@QAEXPAVCGraphicImage@@@Z ; CGraphicImageInstance::SetImagePointer

; 1652 : 		if (m_upVisual.IsEmpty())

  00037	8b ce		 mov	 ecx, esi
  00039	e8 00 00 00 00	 call	 ?IsEmpty@CGraphicImageInstance@@QBE_NXZ ; CGraphicImageInstance::IsEmpty
  0003e	84 c0		 test	 al, al
  00040	75 2b		 jne	 SHORT $LN5@SetUpVisua

; 1653 : 			return FALSE;
; 1654 : 
; 1655 : 		SetSize(m_upVisual.GetWidth(), m_upVisual.GetHeight());

  00042	8b ce		 mov	 ecx, esi
  00044	e8 00 00 00 00	 call	 ?GetHeight@CGraphicImageInstance@@QAEHXZ ; CGraphicImageInstance::GetHeight
  00049	50		 push	 eax
  0004a	8b ce		 mov	 ecx, esi
  0004c	e8 00 00 00 00	 call	 ?GetWidth@CGraphicImageInstance@@QAEHXZ ; CGraphicImageInstance::GetWidth
  00051	50		 push	 eax
  00052	8b cf		 mov	 ecx, edi
  00054	e8 00 00 00 00	 call	 ?SetSize@CWindow@UI@@QAEXJJ@Z ; UI::CWindow::SetSize

; 1656 : 		//
; 1657 : 		SetCurrentVisual(&m_upVisual);

  00059	56		 push	 esi
  0005a	8b cf		 mov	 ecx, edi
  0005c	e8 00 00 00 00	 call	 ?SetCurrentVisual@CButton@UI@@IAEXPAVCGraphicImageInstance@@@Z ; UI::CButton::SetCurrentVisual
  00061	5f		 pop	 edi

; 1658 : 		//
; 1659 : 
; 1660 : 		return TRUE;
; 1661 : 	}

  00062	5e		 pop	 esi
  00063	b8 01 00 00 00	 mov	 eax, 1
  00068	5b		 pop	 ebx
  00069	5d		 pop	 ebp
  0006a	c2 04 00	 ret	 4
$LN5@SetUpVisua:
  0006d	5f		 pop	 edi
  0006e	5e		 pop	 esi
  0006f	33 c0		 xor	 eax, eax
  00071	5b		 pop	 ebx
  00072	5d		 pop	 ebp
  00073	c2 04 00	 ret	 4
?SetUpVisual@CButton@UI@@QAEHPBD@Z ENDP			; UI::CButton::SetUpVisual
_TEXT	ENDS
; Function compile flags: /Ogtp
; File C:\DS Project\DS Files\Source\ClientSource\Client\eterPythonLib\PythonWindow.cpp
;	COMDAT ??1CButton@UI@@UAE@XZ
_TEXT	SEGMENT
??1CButton@UI@@UAE@XZ PROC				; UI::CButton::~CButton, COMDAT
; _this$ = ecx

; 1642 : 	{

  00000	56		 push	 esi
  00001	8b f1		 mov	 esi, ecx

; 1643 : 	}

  00003	8d 8e ec 00 00
	00		 lea	 ecx, DWORD PTR [esi+236]
  00009	c7 06 00 00 00
	00		 mov	 DWORD PTR [esi], OFFSET ??_7CButton@UI@@6B@
  0000f	e8 00 00 00 00	 call	 ??1CGraphicImageInstance@@UAE@XZ ; CGraphicImageInstance::~CGraphicImageInstance
  00014	8d 8e cc 00 00
	00		 lea	 ecx, DWORD PTR [esi+204]
  0001a	e8 00 00 00 00	 call	 ??1CGraphicImageInstance@@UAE@XZ ; CGraphicImageInstance::~CGraphicImageInstance
  0001f	8d 8e ac 00 00
	00		 lea	 ecx, DWORD PTR [esi+172]
  00025	e8 00 00 00 00	 call	 ??1CGraphicImageInstance@@UAE@XZ ; CGraphicImageInstance::~CGraphicImageInstance
  0002a	8d 8e 8c 00 00
	00		 lea	 ecx, DWORD PTR [esi+140]
  00030	e8 00 00 00 00	 call	 ??1CGraphicImageInstance@@UAE@XZ ; CGraphicImageInstance::~CGraphicImageInstance
  00035	8b ce		 mov	 ecx, esi
  00037	5e		 pop	 esi
  00038	e9 00 00 00 00	 jmp	 ??1CWindow@UI@@UAE@XZ	; UI::CWindow::~CWindow
??1CButton@UI@@UAE@XZ ENDP				; UI::CButton::~CButton
_TEXT	ENDS
; Function compile flags: /Ogtp
; File C:\DS Project\DS Files\Source\ClientSource\Client\eterPythonLib\PythonWindow.cpp
; File C:\DS Project\DS Files\Source\ClientSource\Client\eterPythonLib\PythonWindow.h
; File C:\DS Project\DS Files\Source\ClientSource\Client\eterPythonLib\PythonWindow.cpp
;	COMDAT ??0CButton@UI@@QAE@PAU_object@@@Z
_TEXT	SEGMENT
_this$ = -16						; size = 4
__$EHRec$ = -12						; size = 12
_ppyObject$ = 8						; size = 4
??0CButton@UI@@QAE@PAU_object@@@Z PROC			; UI::CButton::CButton, COMDAT
; _this$ = ecx

; 1638 : 	{

  00000	55		 push	 ebp
  00001	8b ec		 mov	 ebp, esp
  00003	6a ff		 push	 -1
  00005	68 00 00 00 00	 push	 __ehhandler$??0CButton@UI@@QAE@PAU_object@@@Z
  0000a	64 a1 00 00 00
	00		 mov	 eax, DWORD PTR fs:0
  00010	50		 push	 eax
  00011	51		 push	 ecx
  00012	56		 push	 esi
  00013	a1 00 00 00 00	 mov	 eax, DWORD PTR ___security_cookie
  00018	33 c5		 xor	 eax, ebp
  0001a	50		 push	 eax
  0001b	8d 45 f4	 lea	 eax, DWORD PTR __$EHRec$[ebp]
  0001e	64 a3 00 00 00
	00		 mov	 DWORD PTR fs:0, eax
  00024	8b f1		 mov	 esi, ecx
  00026	89 75 f0	 mov	 DWORD PTR _this$[ebp], esi

; 1633 : 		:	CWindow(ppyObject),

  00029	ff 75 08	 push	 DWORD PTR _ppyObject$[ebp]
  0002c	e8 00 00 00 00	 call	 ??0CWindow@UI@@QAE@PAU_object@@@Z ; UI::CWindow::CWindow

; 1638 : 	{

  00031	8d 8e 8c 00 00
	00		 lea	 ecx, DWORD PTR [esi+140]
  00037	c7 45 fc 00 00
	00 00		 mov	 DWORD PTR __$EHRec$[ebp+8], 0
  0003e	c7 06 00 00 00
	00		 mov	 DWORD PTR [esi], OFFSET ??_7CButton@UI@@6B@
  00044	c7 46 7c 01 00
	00 00		 mov	 DWORD PTR [esi+124], 1
  0004b	c7 86 80 00 00
	00 00 00 00 00	 mov	 DWORD PTR [esi+128], 0
  00055	c7 86 84 00 00
	00 00 00 00 00	 mov	 DWORD PTR [esi+132], 0
  0005f	c7 86 88 00 00
	00 00 00 00 00	 mov	 DWORD PTR [esi+136], 0
  00069	e8 00 00 00 00	 call	 ??0CGraphicImageInstance@@QAE@XZ ; CGraphicImageInstance::CGraphicImageInstance
  0006e	8d 8e ac 00 00
	00		 lea	 ecx, DWORD PTR [esi+172]
  00074	c6 45 fc 01	 mov	 BYTE PTR __$EHRec$[ebp+8], 1
  00078	e8 00 00 00 00	 call	 ??0CGraphicImageInstance@@QAE@XZ ; CGraphicImageInstance::CGraphicImageInstance
  0007d	8d 8e cc 00 00
	00		 lea	 ecx, DWORD PTR [esi+204]
  00083	c6 45 fc 02	 mov	 BYTE PTR __$EHRec$[ebp+8], 2
  00087	e8 00 00 00 00	 call	 ??0CGraphicImageInstance@@QAE@XZ ; CGraphicImageInstance::CGraphicImageInstance
  0008c	8d 8e ec 00 00
	00		 lea	 ecx, DWORD PTR [esi+236]
  00092	c6 45 fc 03	 mov	 BYTE PTR __$EHRec$[ebp+8], 3
  00096	e8 00 00 00 00	 call	 ??0CGraphicImageInstance@@QAE@XZ ; CGraphicImageInstance::CGraphicImageInstance
; File C:\DS Project\DS Files\Source\ClientSource\Client\eterPythonLib\PythonWindow.h

; 98   : 			void			AddFlag(DWORD flag)		{ SET_BIT(m_dwFlag, flag);		}

  0009b	81 4e 58 80 00
	00 00		 or	 DWORD PTR [esi+88], 128	; 00000080H
; File C:\DS Project\DS Files\Source\ClientSource\Client\eterPythonLib\PythonWindow.cpp

; 1640 : 	}

  000a2	8b c6		 mov	 eax, esi
  000a4	8b 4d f4	 mov	 ecx, DWORD PTR __$EHRec$[ebp]
  000a7	64 89 0d 00 00
	00 00		 mov	 DWORD PTR fs:0, ecx
  000ae	59		 pop	 ecx
  000af	5e		 pop	 esi
  000b0	8b e5		 mov	 esp, ebp
  000b2	5d		 pop	 ebp
  000b3	c2 04 00	 ret	 4
_TEXT	ENDS
;	COMDAT text$x
text$x	SEGMENT
__unwindfunclet$??0CButton@UI@@QAE@PAU_object@@@Z$0:
  00000	8b 4d f0	 mov	 ecx, DWORD PTR _this$[ebp]
  00003	e9 00 00 00 00	 jmp	 ??1CWindow@UI@@UAE@XZ	; UI::CWindow::~CWindow
__unwindfunclet$??0CButton@UI@@QAE@PAU_object@@@Z$1:
  00008	8b 4d f0	 mov	 ecx, DWORD PTR _this$[ebp]
  0000b	81 c1 8c 00 00
	00		 add	 ecx, 140		; 0000008cH
  00011	e9 00 00 00 00	 jmp	 ??1CGraphicImageInstance@@UAE@XZ ; CGraphicImageInstance::~CGraphicImageInstance
__unwindfunclet$??0CButton@UI@@QAE@PAU_object@@@Z$2:
  00016	8b 4d f0	 mov	 ecx, DWORD PTR _this$[ebp]
  00019	81 c1 ac 00 00
	00		 add	 ecx, 172		; 000000acH
  0001f	e9 00 00 00 00	 jmp	 ??1CGraphicImageInstance@@UAE@XZ ; CGraphicImageInstance::~CGraphicImageInstance
__unwindfunclet$??0CButton@UI@@QAE@PAU_object@@@Z$3:
  00024	8b 4d f0	 mov	 ecx, DWORD PTR _this$[ebp]
  00027	81 c1 cc 00 00
	00		 add	 ecx, 204		; 000000ccH
  0002d	e9 00 00 00 00	 jmp	 ??1CGraphicImageInstance@@UAE@XZ ; CGraphicImageInstance::~CGraphicImageInstance
  00032	cc		 int	 3
  00033	cc		 int	 3
  00034	cc		 int	 3
  00035	cc		 int	 3
  00036	cc		 int	 3
__ehhandler$??0CButton@UI@@QAE@PAU_object@@@Z:
  00037	90		 npad	 1
  00038	90		 npad	 1
  00039	8b 54 24 08	 mov	 edx, DWORD PTR [esp+8]
  0003d	8d 42 0c	 lea	 eax, DWORD PTR [edx+12]
  00040	8b 4a f4	 mov	 ecx, DWORD PTR [edx-12]
  00043	33 c8		 xor	 ecx, eax
  00045	e8 00 00 00 00	 call	 @__security_check_cookie@4
  0004a	b8 00 00 00 00	 mov	 eax, OFFSET __ehfuncinfo$??0CButton@UI@@QAE@PAU_object@@@Z
  0004f	e9 00 00 00 00	 jmp	 ___CxxFrameHandler3
text$x	ENDS
??0CButton@UI@@QAE@PAU_object@@@Z ENDP			; UI::CButton::CButton
; Function compile flags: /Ogtp
;	COMDAT ??_GCAniImageBox@UI@@UAEPAXI@Z
_TEXT	SEGMENT
___flags$ = 8						; size = 4
??_GCAniImageBox@UI@@UAEPAXI@Z PROC			; UI::CAniImageBox::`scalar deleting destructor', COMDAT
; _this$ = ecx
  00000	55		 push	 ebp
  00001	8b ec		 mov	 ebp, esp
  00003	56		 push	 esi
  00004	8b f1		 mov	 esi, ecx
  00006	e8 00 00 00 00	 call	 ??1CAniImageBox@UI@@UAE@XZ ; UI::CAniImageBox::~CAniImageBox
  0000b	f6 45 08 01	 test	 BYTE PTR ___flags$[ebp], 1
  0000f	74 0e		 je	 SHORT $LN4@scalar
  00011	68 8c 00 00 00	 push	 140			; 0000008cH
  00016	56		 push	 esi
  00017	e8 00 00 00 00	 call	 ??3@YAXPAXI@Z		; operator delete
  0001c	83 c4 08	 add	 esp, 8
$LN4@scalar:
  0001f	8b c6		 mov	 eax, esi
  00021	5e		 pop	 esi
  00022	5d		 pop	 ebp
  00023	c2 04 00	 ret	 4
??_GCAniImageBox@UI@@UAEPAXI@Z ENDP			; UI::CAniImageBox::`scalar deleting destructor'
_TEXT	ENDS
; Function compile flags: /Ogtp
; File C:\DS Project\DS Files\Source\ClientSource\Client\eterPythonLib\PythonWindow.cpp
;	COMDAT ?OnIsType@CAniImageBox@UI@@MAEHK@Z
_TEXT	SEGMENT
_dwType$ = 8						; size = 4
?OnIsType@CAniImageBox@UI@@MAEHK@Z PROC			; UI::CAniImageBox::OnIsType, COMDAT
; _this$ = ecx

; 1492 : 	{

  00000	55		 push	 ebp
  00001	8b ec		 mov	 ebp, esp

; 1493 : 		if (CAniImageBox::Type() == dwType)

  00003	e8 00 00 00 00	 call	 ?Type@CAniImageBox@UI@@SAKXZ ; UI::CAniImageBox::Type
  00008	33 c9		 xor	 ecx, ecx
  0000a	3b 45 08	 cmp	 eax, DWORD PTR _dwType$[ebp]
  0000d	0f 94 c1	 sete	 cl
  00010	8b c1		 mov	 eax, ecx

; 1494 : 			return TRUE;
; 1495 : 
; 1496 : 		return FALSE;
; 1497 : 	}

  00012	5d		 pop	 ebp
  00013	c2 04 00	 ret	 4
?OnIsType@CAniImageBox@UI@@MAEHK@Z ENDP			; UI::CAniImageBox::OnIsType
_TEXT	ENDS
; Function compile flags: /Ogtp
; File C:\DS Project\DS Files\Source\ClientSource\Client\eterPythonLib\PythonWindow.cpp
;	COMDAT ?OnEndFrame@CAniImageBox@UI@@MAEXXZ
_TEXT	SEGMENT
?OnEndFrame@CAniImageBox@UI@@MAEXXZ PROC		; UI::CAniImageBox::OnEndFrame, COMDAT
; _this$ = ecx

; 1624 : 	{

  00000	56		 push	 esi
  00001	8b f1		 mov	 esi, ecx

; 1625 : 		PyCallClassMemberFunc(m_poHandler, "OnEndFrame", BuildEmptyTuple());

  00003	e8 00 00 00 00	 call	 ?BuildEmptyTuple@UI@@YAPAU_object@@XZ ; UI::BuildEmptyTuple
  00008	50		 push	 eax
  00009	68 00 00 00 00	 push	 OFFSET ??_C@_0L@LBHHAGOH@OnEndFrame@
  0000e	ff 76 5c	 push	 DWORD PTR [esi+92]
  00011	e8 00 00 00 00	 call	 ?PyCallClassMemberFunc@@YA_NPAU_object@@PBD0@Z ; PyCallClassMemberFunc
  00016	83 c4 0c	 add	 esp, 12			; 0000000cH
  00019	5e		 pop	 esi

; 1626 : 	}

  0001a	c3		 ret	 0
?OnEndFrame@CAniImageBox@UI@@MAEXXZ ENDP		; UI::CAniImageBox::OnEndFrame
_TEXT	ENDS
; Function compile flags: /Ogtp
; File C:\DS Project\DS Files\Source\ClientSource\Client\eterPythonLib\PythonWindow.cpp
; File C:\Program Files (x86)\Microsoft Visual Studio\2019\Community\VC\Tools\MSVC\14.27.29110\include\algorithm
; File C:\DS Project\DS Files\Source\ClientSource\Client\eterPythonLib\PythonWindow.cpp
; File C:\Program Files (x86)\Microsoft Visual Studio\2019\Community\VC\Tools\MSVC\14.27.29110\include\vector
; File C:\DS Project\DS Files\Source\ClientSource\Client\eterPythonLib\PythonWindow.cpp
; File C:\Program Files (x86)\Microsoft Visual Studio\2019\Community\VC\Tools\MSVC\14.27.29110\include\algorithm
; File C:\DS Project\DS Files\Source\ClientSource\Client\eterPythonLib\PythonWindow.cpp
; File C:\Program Files (x86)\Microsoft Visual Studio\2019\Community\VC\Tools\MSVC\14.27.29110\include\algorithm
; File C:\DS Project\DS Files\Source\ClientSource\Client\eterPythonLib\PythonWindow.cpp
;	COMDAT ?OnChangePosition@CAniImageBox@UI@@MAEXXZ
_TEXT	SEGMENT
_changePosition$$sroa$149$1$ = -8			; size = 4
_changePosition$$sroa$150$1$ = -4			; size = 4
?OnChangePosition@CAniImageBox@UI@@MAEXXZ PROC		; UI::CAniImageBox::OnChangePosition, COMDAT
; _this$ = ecx

; 1616 : 	{

  00000	55		 push	 ebp
  00001	8b ec		 mov	 ebp, esp
  00003	83 ec 08	 sub	 esp, 8
  00006	66 0f 6e 41 34	 movd	 xmm0, DWORD PTR [ecx+52]
  0000b	66 0f 6e 49 38	 movd	 xmm1, DWORD PTR [ecx+56]

; 1617 : 		FChangePosition changePosition;
; 1618 : 		changePosition.fx = m_rect.left;

  00010	0f 5b c0	 cvtdq2ps xmm0, xmm0
  00013	56		 push	 esi
; File C:\Program Files (x86)\Microsoft Visual Studio\2019\Community\VC\Tools\MSVC\14.27.29110\include\algorithm

; 235  :     for (; _UFirst != _ULast; ++_UFirst) {

  00014	8b b1 80 00 00
	00		 mov	 esi, DWORD PTR [ecx+128]
; File C:\DS Project\DS Files\Source\ClientSource\Client\eterPythonLib\PythonWindow.cpp

; 1616 : 	{

  0001a	57		 push	 edi
; File C:\Program Files (x86)\Microsoft Visual Studio\2019\Community\VC\Tools\MSVC\14.27.29110\include\vector

; 42   :     _Vector_const_iterator(_Tptr _Parg, const _Container_base* _Pvector) noexcept : _Ptr(_Parg) {

  0001b	8b b9 84 00 00
	00		 mov	 edi, DWORD PTR [ecx+132]
; File C:\DS Project\DS Files\Source\ClientSource\Client\eterPythonLib\PythonWindow.cpp

; 1619 : 		changePosition.fy = m_rect.top;

  00021	0f 5b c9	 cvtdq2ps xmm1, xmm1
  00024	f3 0f 11 45 fc	 movss	 DWORD PTR _changePosition$$sroa$150$1$[ebp], xmm0
  00029	f3 0f 11 4d f8	 movss	 DWORD PTR _changePosition$$sroa$149$1$[ebp], xmm1
; File C:\Program Files (x86)\Microsoft Visual Studio\2019\Community\VC\Tools\MSVC\14.27.29110\include\algorithm

; 235  :     for (; _UFirst != _ULast; ++_UFirst) {

  0002e	3b f7		 cmp	 esi, edi
  00030	74 26		 je	 SHORT $LN17@OnChangePo
$LL18@OnChangePo:
; File C:\DS Project\DS Files\Source\ClientSource\Client\eterPythonLib\PythonWindow.cpp

; 1611 : 			pInstance->SetPosition(fx, fy);

  00032	8b 0e		 mov	 ecx, DWORD PTR [esi]
  00034	83 ec 08	 sub	 esp, 8
  00037	f3 0f 11 4c 24
	04		 movss	 DWORD PTR [esp+4], xmm1
  0003d	f3 0f 11 04 24	 movss	 DWORD PTR [esp], xmm0
  00042	e8 00 00 00 00	 call	 ?SetPosition@CGraphicImageInstance@@QAEXMM@Z ; CGraphicImageInstance::SetPosition
; File C:\Program Files (x86)\Microsoft Visual Studio\2019\Community\VC\Tools\MSVC\14.27.29110\include\algorithm

; 235  :     for (; _UFirst != _ULast; ++_UFirst) {

  00047	f3 0f 10 45 fc	 movss	 xmm0, DWORD PTR _changePosition$$sroa$150$1$[ebp]
  0004c	83 c6 04	 add	 esi, 4
  0004f	f3 0f 10 4d f8	 movss	 xmm1, DWORD PTR _changePosition$$sroa$149$1$[ebp]
  00054	3b f7		 cmp	 esi, edi
  00056	75 da		 jne	 SHORT $LL18@OnChangePo
$LN17@OnChangePo:
  00058	5f		 pop	 edi
; File C:\DS Project\DS Files\Source\ClientSource\Client\eterPythonLib\PythonWindow.cpp

; 1621 : 	}

  00059	5e		 pop	 esi
  0005a	8b e5		 mov	 esp, ebp
  0005c	5d		 pop	 ebp
  0005d	c3		 ret	 0
?OnChangePosition@CAniImageBox@UI@@MAEXXZ ENDP		; UI::CAniImageBox::OnChangePosition
_TEXT	ENDS
; Function compile flags: /Ogtp
; File C:\DS Project\DS Files\Source\ClientSource\Client\eterPythonLib\PythonWindow.cpp
; File C:\Program Files (x86)\Microsoft Visual Studio\2019\Community\VC\Tools\MSVC\14.27.29110\include\vector
; File C:\DS Project\DS Files\Source\ClientSource\Client\eterPythonLib\PythonWindow.cpp
; File C:\Program Files (x86)\Microsoft Visual Studio\2019\Community\VC\Tools\MSVC\14.27.29110\include\vector
; File C:\DS Project\DS Files\Source\ClientSource\Client\eterPythonLib\PythonWindow.cpp
;	COMDAT ?OnRender@CAniImageBox@UI@@MAEXXZ
_TEXT	SEGMENT
?OnRender@CAniImageBox@UI@@MAEXXZ PROC			; UI::CAniImageBox::OnRender, COMDAT
; _this$ = ecx
; File C:\Program Files (x86)\Microsoft Visual Studio\2019\Community\VC\Tools\MSVC\14.27.29110\include\vector

; 1484 :         return static_cast<size_type>(_My_data._Mylast - _My_data._Myfirst);

  00000	8b 81 84 00 00
	00		 mov	 eax, DWORD PTR [ecx+132]
  00006	8b 91 80 00 00
	00		 mov	 edx, DWORD PTR [ecx+128]
  0000c	2b c2		 sub	 eax, edx
; File C:\DS Project\DS Files\Source\ClientSource\Client\eterPythonLib\PythonWindow.cpp

; 1598 : 	{

  0000e	56		 push	 esi

; 1599 : 		if (m_bycurIndex < m_ImageVector.size())

  0000f	0f b6 71 7e	 movzx	 esi, BYTE PTR [ecx+126]
; File C:\Program Files (x86)\Microsoft Visual Studio\2019\Community\VC\Tools\MSVC\14.27.29110\include\vector

; 1484 :         return static_cast<size_type>(_My_data._Mylast - _My_data._Myfirst);

  00013	c1 f8 02	 sar	 eax, 2
; File C:\DS Project\DS Files\Source\ClientSource\Client\eterPythonLib\PythonWindow.cpp

; 1599 : 		if (m_bycurIndex < m_ImageVector.size())

  00016	3b f0		 cmp	 esi, eax
  00018	73 09		 jae	 SHORT $LN2@OnRender

; 1600 : 		{
; 1601 : 			CGraphicExpandedImageInstance * pImage = m_ImageVector[m_bycurIndex];
; 1602 : 			pImage->Render();

  0001a	8b 0c b2	 mov	 ecx, DWORD PTR [edx+esi*4]
  0001d	5e		 pop	 esi
  0001e	e9 00 00 00 00	 jmp	 ?Render@CGraphicImageInstance@@QAEXXZ ; CGraphicImageInstance::Render
$LN2@OnRender:
  00023	5e		 pop	 esi

; 1603 : 		}
; 1604 : 	}

  00024	c3		 ret	 0
?OnRender@CAniImageBox@UI@@MAEXXZ ENDP			; UI::CAniImageBox::OnRender
_TEXT	ENDS
; Function compile flags: /Ogtp
; File C:\DS Project\DS Files\Source\ClientSource\Client\eterPythonLib\PythonWindow.cpp
; File C:\Program Files (x86)\Microsoft Visual Studio\2019\Community\VC\Tools\MSVC\14.27.29110\include\vector
; File C:\DS Project\DS Files\Source\ClientSource\Client\eterPythonLib\PythonWindow.cpp
;	COMDAT ?OnUpdate@CAniImageBox@UI@@MAEXXZ
_TEXT	SEGMENT
?OnUpdate@CAniImageBox@UI@@MAEXXZ PROC			; UI::CAniImageBox::OnUpdate, COMDAT
; _this$ = ecx

; 1582 : 	{

  00000	8b d1		 mov	 edx, ecx

; 1583 : 		++m_bycurDelay;

  00002	fe 42 7c	 inc	 BYTE PTR [edx+124]
  00005	8a 42 7c	 mov	 al, BYTE PTR [edx+124]

; 1584 : 		if (m_bycurDelay < m_byDelay)

  00008	3a 42 7d	 cmp	 al, BYTE PTR [edx+125]
  0000b	72 2c		 jb	 SHORT $LN3@OnUpdate

; 1585 : 			return;
; 1586 : 
; 1587 : 		m_bycurDelay = 0;
; 1588 : 
; 1589 : 		++m_bycurIndex;

  0000d	fe 42 7e	 inc	 BYTE PTR [edx+126]

; 1590 : 		if (m_bycurIndex >= m_ImageVector.size())

  00010	0f b6 42 7e	 movzx	 eax, BYTE PTR [edx+126]
  00014	c6 42 7c 00	 mov	 BYTE PTR [edx+124], 0
; File C:\Program Files (x86)\Microsoft Visual Studio\2019\Community\VC\Tools\MSVC\14.27.29110\include\vector

; 1484 :         return static_cast<size_type>(_My_data._Mylast - _My_data._Myfirst);

  00018	8b 8a 84 00 00
	00		 mov	 ecx, DWORD PTR [edx+132]
  0001e	2b 8a 80 00 00
	00		 sub	 ecx, DWORD PTR [edx+128]
  00024	c1 f9 02	 sar	 ecx, 2
; File C:\DS Project\DS Files\Source\ClientSource\Client\eterPythonLib\PythonWindow.cpp

; 1590 : 		if (m_bycurIndex >= m_ImageVector.size())

  00027	3b c1		 cmp	 eax, ecx
  00029	72 0e		 jb	 SHORT $LN3@OnUpdate

; 1591 : 		{
; 1592 : 			m_bycurIndex = 0;
; 1593 : 
; 1594 : 			OnEndFrame();

  0002b	8b 02		 mov	 eax, DWORD PTR [edx]
  0002d	8b ca		 mov	 ecx, edx
  0002f	c6 42 7e 00	 mov	 BYTE PTR [edx+126], 0
  00033	ff a0 9c 00 00
	00		 jmp	 DWORD PTR [eax+156]
$LN3@OnUpdate:

; 1595 : 		}
; 1596 : 	}

  00039	c3		 ret	 0
?OnUpdate@CAniImageBox@UI@@MAEXXZ ENDP			; UI::CAniImageBox::OnUpdate
_TEXT	ENDS
; Function compile flags: /Ogtp
; File C:\DS Project\DS Files\Source\ClientSource\Client\eterPythonLib\PythonWindow.cpp
;	COMDAT ?ResetFrame@CAniImageBox@UI@@QAEXXZ
_TEXT	SEGMENT
?ResetFrame@CAniImageBox@UI@@QAEXXZ PROC		; UI::CAniImageBox::ResetFrame, COMDAT
; _this$ = ecx

; 1578 : 		m_bycurIndex = 0;

  00000	c6 41 7e 00	 mov	 BYTE PTR [ecx+126], 0

; 1579 : 	}

  00004	c3		 ret	 0
?ResetFrame@CAniImageBox@UI@@QAEXXZ ENDP		; UI::CAniImageBox::ResetFrame
_TEXT	ENDS
; Function compile flags: /Ogtp
; File C:\DS Project\DS Files\Source\ClientSource\Client\eterPythonLib\PythonWindow.cpp
; File C:\Program Files (x86)\Microsoft Visual Studio\2019\Community\VC\Tools\MSVC\14.27.29110\include\algorithm
; File C:\DS Project\DS Files\Source\ClientSource\Client\eterPythonLib\PythonWindow.cpp
; File C:\Program Files (x86)\Microsoft Visual Studio\2019\Community\VC\Tools\MSVC\14.27.29110\include\vector
; File C:\Program Files (x86)\Microsoft Visual Studio\2019\Community\VC\Tools\MSVC\14.27.29110\include\algorithm
; File C:\DS Project\DS Files\Source\ClientSource\Client\eterPythonLib\PythonWindow.cpp
; File C:\Program Files (x86)\Microsoft Visual Studio\2019\Community\VC\Tools\MSVC\14.27.29110\include\algorithm
; File C:\DS Project\DS Files\Source\ClientSource\Client\eterPythonLib\PythonWindow.cpp
;	COMDAT ?SetRenderingMode@CAniImageBox@UI@@QAEXH@Z
_TEXT	SEGMENT
_iMode$ = 8						; size = 4
?SetRenderingMode@CAniImageBox@UI@@QAEXH@Z PROC		; UI::CAniImageBox::SetRenderingMode, COMDAT
; _this$ = ecx

; 1570 : 	{

  00000	55		 push	 ebp
  00001	8b ec		 mov	 ebp, esp
  00003	56		 push	 esi
; File C:\Program Files (x86)\Microsoft Visual Studio\2019\Community\VC\Tools\MSVC\14.27.29110\include\algorithm

; 235  :     for (; _UFirst != _ULast; ++_UFirst) {

  00004	8b b1 80 00 00
	00		 mov	 esi, DWORD PTR [ecx+128]
; File C:\DS Project\DS Files\Source\ClientSource\Client\eterPythonLib\PythonWindow.cpp

; 1570 : 	{

  0000a	57		 push	 edi
; File C:\Program Files (x86)\Microsoft Visual Studio\2019\Community\VC\Tools\MSVC\14.27.29110\include\vector

; 42   :     _Vector_const_iterator(_Tptr _Parg, const _Container_base* _Pvector) noexcept : _Ptr(_Parg) {

  0000b	8b b9 84 00 00
	00		 mov	 edi, DWORD PTR [ecx+132]
; File C:\Program Files (x86)\Microsoft Visual Studio\2019\Community\VC\Tools\MSVC\14.27.29110\include\algorithm

; 235  :     for (; _UFirst != _ULast; ++_UFirst) {

  00011	3b f7		 cmp	 esi, edi
  00013	74 1b		 je	 SHORT $LN17@SetRenderi
  00015	53		 push	 ebx
  00016	8b 5d 08	 mov	 ebx, DWORD PTR _iMode$[ebp]
  00019	0f 1f 80 00 00
	00 00		 npad	 7
$LL18@SetRenderi:
; File C:\DS Project\DS Files\Source\ClientSource\Client\eterPythonLib\PythonWindow.cpp

; 1566 : 			pInstance->SetRenderingMode(iMode);

  00020	8b 0e		 mov	 ecx, DWORD PTR [esi]
  00022	53		 push	 ebx
  00023	e8 00 00 00 00	 call	 ?SetRenderingMode@CGraphicExpandedImageInstance@@QAEXH@Z ; CGraphicExpandedImageInstance::SetRenderingMode
; File C:\Program Files (x86)\Microsoft Visual Studio\2019\Community\VC\Tools\MSVC\14.27.29110\include\algorithm

; 235  :     for (; _UFirst != _ULast; ++_UFirst) {

  00028	83 c6 04	 add	 esi, 4
  0002b	3b f7		 cmp	 esi, edi
  0002d	75 f1		 jne	 SHORT $LL18@SetRenderi
  0002f	5b		 pop	 ebx
$LN17@SetRenderi:
  00030	5f		 pop	 edi
; File C:\DS Project\DS Files\Source\ClientSource\Client\eterPythonLib\PythonWindow.cpp

; 1574 : 	}

  00031	5e		 pop	 esi
  00032	5d		 pop	 ebp
  00033	c2 04 00	 ret	 4
?SetRenderingMode@CAniImageBox@UI@@QAEXH@Z ENDP		; UI::CAniImageBox::SetRenderingMode
_TEXT	ENDS
; Function compile flags: /Ogtp
; File C:\DS Project\DS Files\Source\ClientSource\Client\eterPythonLib\PythonWindow.cpp
; File C:\Program Files (x86)\Microsoft Visual Studio\2019\Community\VC\Tools\MSVC\14.27.29110\include\algorithm
; File C:\DS Project\DS Files\Source\ClientSource\Client\eterPythonLib\PythonWindow.cpp
; File C:\Program Files (x86)\Microsoft Visual Studio\2019\Community\VC\Tools\MSVC\14.27.29110\include\vector
; File C:\Program Files (x86)\Microsoft Visual Studio\2019\Community\VC\Tools\MSVC\14.27.29110\include\algorithm
; File C:\DS Project\DS Files\Source\ClientSource\Client\eterPythonLib\PythonWindow.cpp
; File C:\Program Files (x86)\Microsoft Visual Studio\2019\Community\VC\Tools\MSVC\14.27.29110\include\algorithm
; File C:\DS Project\DS Files\Source\ClientSource\Client\eterPythonLib\PythonWindow.cpp
;	COMDAT ?SetRenderingRect@CAniImageBox@UI@@QAEXMMMM@Z
_TEXT	SEGMENT
__$ArrayPad$ = -4					; size = 4
_fLeft$ = 8						; size = 4
_fTop$ = 12						; size = 4
_fRight$ = 16						; size = 4
_fBottom$ = 20						; size = 4
?SetRenderingRect@CAniImageBox@UI@@QAEXMMMM@Z PROC	; UI::CAniImageBox::SetRenderingRect, COMDAT
; _this$ = ecx

; 1552 : 	{

  00000	55		 push	 ebp
  00001	8b ec		 mov	 ebp, esp
  00003	51		 push	 ecx
  00004	a1 00 00 00 00	 mov	 eax, DWORD PTR ___security_cookie
  00009	33 c5		 xor	 eax, ebp
  0000b	89 45 fc	 mov	 DWORD PTR __$ArrayPad$[ebp], eax
  0000e	56		 push	 esi
; File C:\Program Files (x86)\Microsoft Visual Studio\2019\Community\VC\Tools\MSVC\14.27.29110\include\algorithm

; 235  :     for (; _UFirst != _ULast; ++_UFirst) {

  0000f	8b b1 80 00 00
	00		 mov	 esi, DWORD PTR [ecx+128]
; File C:\DS Project\DS Files\Source\ClientSource\Client\eterPythonLib\PythonWindow.cpp

; 1552 : 	{

  00015	57		 push	 edi
; File C:\Program Files (x86)\Microsoft Visual Studio\2019\Community\VC\Tools\MSVC\14.27.29110\include\vector

; 42   :     _Vector_const_iterator(_Tptr _Parg, const _Container_base* _Pvector) noexcept : _Ptr(_Parg) {

  00016	8b b9 84 00 00
	00		 mov	 edi, DWORD PTR [ecx+132]
; File C:\Program Files (x86)\Microsoft Visual Studio\2019\Community\VC\Tools\MSVC\14.27.29110\include\algorithm

; 235  :     for (; _UFirst != _ULast; ++_UFirst) {

  0001c	3b f7		 cmp	 esi, edi
  0001e	74 3c		 je	 SHORT $LN17@SetRenderi
$LL18@SetRenderi:
; File C:\DS Project\DS Files\Source\ClientSource\Client\eterPythonLib\PythonWindow.cpp

; 1548 : 			pInstance->SetRenderingRect(fLeft, fTop, fRight, fBottom);

  00020	f3 0f 10 45 14	 movss	 xmm0, DWORD PTR _fBottom$[ebp]
  00025	83 ec 10	 sub	 esp, 16			; 00000010H
  00028	8b 0e		 mov	 ecx, DWORD PTR [esi]
  0002a	f3 0f 11 44 24
	0c		 movss	 DWORD PTR [esp+12], xmm0
  00030	f3 0f 10 45 10	 movss	 xmm0, DWORD PTR _fRight$[ebp]
  00035	f3 0f 11 44 24
	08		 movss	 DWORD PTR [esp+8], xmm0
  0003b	f3 0f 10 45 0c	 movss	 xmm0, DWORD PTR _fTop$[ebp]
  00040	f3 0f 11 44 24
	04		 movss	 DWORD PTR [esp+4], xmm0
  00046	f3 0f 10 45 08	 movss	 xmm0, DWORD PTR _fLeft$[ebp]
  0004b	f3 0f 11 04 24	 movss	 DWORD PTR [esp], xmm0
  00050	e8 00 00 00 00	 call	 ?SetRenderingRect@CGraphicExpandedImageInstance@@QAEXMMMM@Z ; CGraphicExpandedImageInstance::SetRenderingRect
; File C:\Program Files (x86)\Microsoft Visual Studio\2019\Community\VC\Tools\MSVC\14.27.29110\include\algorithm

; 235  :     for (; _UFirst != _ULast; ++_UFirst) {

  00055	83 c6 04	 add	 esi, 4
  00058	3b f7		 cmp	 esi, edi
  0005a	75 c4		 jne	 SHORT $LL18@SetRenderi
$LN17@SetRenderi:
; File C:\DS Project\DS Files\Source\ClientSource\Client\eterPythonLib\PythonWindow.cpp

; 1559 : 	}

  0005c	8b 4d fc	 mov	 ecx, DWORD PTR __$ArrayPad$[ebp]
  0005f	5f		 pop	 edi
  00060	33 cd		 xor	 ecx, ebp
  00062	5e		 pop	 esi
  00063	e8 00 00 00 00	 call	 @__security_check_cookie@4
  00068	8b e5		 mov	 esp, ebp
  0006a	5d		 pop	 ebp
  0006b	c2 10 00	 ret	 16			; 00000010H
?SetRenderingRect@CAniImageBox@UI@@QAEXMMMM@Z ENDP	; UI::CAniImageBox::SetRenderingRect
_TEXT	ENDS
; Function compile flags: /Ogtp
; File C:\DS Project\DS Files\Source\ClientSource\Client\eterPythonLib\PythonWindow.cpp
; File C:\Program Files (x86)\Microsoft Visual Studio\2019\Community\VC\Tools\MSVC\14.27.29110\include\vector
; File C:\DS Project\DS Files\Source\ClientSource\Client\eterPythonLib\PythonWindow.cpp
; File C:\Program Files (x86)\Microsoft Visual Studio\2019\Community\VC\Tools\MSVC\14.27.29110\include\vector
; File C:\DS Project\DS Files\Source\ClientSource\Client\eterPythonLib\PythonWindow.cpp
;	COMDAT ?AppendImage@CAniImageBox@UI@@QAEXPBDMMMM@Z
_TEXT	SEGMENT
_pImageInstance$ = 8					; size = 4
_c_szFileName$ = 8					; size = 4
_r$ = 12						; size = 4
_g$ = 16						; size = 4
_b$ = 20						; size = 4
_a$ = 24						; size = 4
?AppendImage@CAniImageBox@UI@@QAEXPBDMMMM@Z PROC	; UI::CAniImageBox::AppendImage, COMDAT
; _this$ = ecx

; 1522 : 	{

  00000	55		 push	 ebp
  00001	8b ec		 mov	 ebp, esp
  00003	53		 push	 ebx
  00004	56		 push	 esi

; 1523 : 		CResource * pResource = CResourceManager::Instance().GetResourcePointer(c_szFileName);

  00005	ff 75 08	 push	 DWORD PTR _c_szFileName$[ebp]
  00008	8b d9		 mov	 ebx, ecx
  0000a	8b 0d 00 00 00
	00		 mov	 ecx, DWORD PTR ?ms_singleton@?$CSingleton@VCResourceManager@@@@0PAVCResourceManager@@A ; CSingleton<CResourceManager>::ms_singleton
  00010	e8 00 00 00 00	 call	 ?GetResourcePointer@CResourceManager@@QAEPAVCResource@@PBD@Z ; CResourceManager::GetResourcePointer
  00015	8b f0		 mov	 esi, eax

; 1524 : 		if (!pResource->IsType(CGraphicImage::Type()))

  00017	e8 00 00 00 00	 call	 ?Type@CGraphicImage@@SAKXZ ; CGraphicImage::Type
  0001c	50		 push	 eax
  0001d	8b ce		 mov	 ecx, esi
  0001f	e8 00 00 00 00	 call	 ?IsType@CResource@@QAE_NK@Z ; CResource::IsType
  00024	84 c0		 test	 al, al
  00026	0f 84 9d 00 00
	00		 je	 $LN1@AppendImag

; 1525 : 			return;
; 1526 : 
; 1527 : 		CGraphicExpandedImageInstance * pImageInstance = CGraphicExpandedImageInstance::New();

  0002c	57		 push	 edi
  0002d	e8 00 00 00 00	 call	 ?New@CGraphicExpandedImageInstance@@SAPAV1@XZ ; CGraphicExpandedImageInstance::New
  00032	8b f8		 mov	 edi, eax

; 1528 : 		pImageInstance->SetImagePointer(static_cast<CGraphicImage*>(pResource));

  00034	56		 push	 esi
  00035	8b cf		 mov	 ecx, edi
  00037	89 7d 08	 mov	 DWORD PTR _pImageInstance$[ebp], edi
  0003a	e8 00 00 00 00	 call	 ?SetImagePointer@CGraphicImageInstance@@QAEXPAVCGraphicImage@@@Z ; CGraphicImageInstance::SetImagePointer

; 1529 : #ifdef ENABLE_ACCE_SYSTEM
; 1530 : 		pImageInstance->SetDiffuseColor(r, g, b, a);

  0003f	f3 0f 10 45 18	 movss	 xmm0, DWORD PTR _a$[ebp]
  00044	83 ec 10	 sub	 esp, 16			; 00000010H
  00047	8b cf		 mov	 ecx, edi
  00049	f3 0f 11 44 24
	0c		 movss	 DWORD PTR [esp+12], xmm0
  0004f	f3 0f 10 45 14	 movss	 xmm0, DWORD PTR _b$[ebp]
  00054	f3 0f 11 44 24
	08		 movss	 DWORD PTR [esp+8], xmm0
  0005a	f3 0f 10 45 10	 movss	 xmm0, DWORD PTR _g$[ebp]
  0005f	f3 0f 11 44 24
	04		 movss	 DWORD PTR [esp+4], xmm0
  00065	f3 0f 10 45 0c	 movss	 xmm0, DWORD PTR _r$[ebp]
  0006a	f3 0f 11 04 24	 movss	 DWORD PTR [esp], xmm0
  0006f	e8 00 00 00 00	 call	 ?SetDiffuseColor@CGraphicImageInstance@@QAEXMMMM@Z ; CGraphicImageInstance::SetDiffuseColor

; 1531 : #endif
; 1532 : 
; 1533 : 		if (pImageInstance->IsEmpty())

  00074	8b cf		 mov	 ecx, edi
  00076	e8 00 00 00 00	 call	 ?IsEmpty@CGraphicImageInstance@@QBE_NXZ ; CGraphicImageInstance::IsEmpty
  0007b	84 c0		 test	 al, al
  0007d	74 10		 je	 SHORT $LN3@AppendImag

; 1534 : 		{
; 1535 : 			CGraphicExpandedImageInstance::Delete(pImageInstance);

  0007f	57		 push	 edi
  00080	e8 00 00 00 00	 call	 ?Delete@CGraphicExpandedImageInstance@@SAXPAV1@@Z ; CGraphicExpandedImageInstance::Delete
  00085	83 c4 04	 add	 esp, 4
  00088	5f		 pop	 edi
  00089	5e		 pop	 esi

; 1541 : 	}

  0008a	5b		 pop	 ebx
  0008b	5d		 pop	 ebp
  0008c	c2 14 00	 ret	 20			; 00000014H
$LN3@AppendImag:
; File C:\Program Files (x86)\Microsoft Visual Studio\2019\Community\VC\Tools\MSVC\14.27.29110\include\vector

; 704  :         if (_Mylast != _My_data._Myend) {

  0008f	8b 83 84 00 00
	00		 mov	 eax, DWORD PTR [ebx+132]
; File C:\DS Project\DS Files\Source\ClientSource\Client\eterPythonLib\PythonWindow.cpp

; 1539 : 		m_ImageVector.push_back(pImageInstance);

  00095	8d b3 80 00 00
	00		 lea	 esi, DWORD PTR [ebx+128]
; File C:\Program Files (x86)\Microsoft Visual Studio\2019\Community\VC\Tools\MSVC\14.27.29110\include\vector

; 704  :         if (_Mylast != _My_data._Myend) {

  0009b	3b 46 08	 cmp	 eax, DWORD PTR [esi+8]
  0009e	74 08		 je	 SHORT $LN8@AppendImag

; 687  :         _Alty_traits::construct(_Getal(), _Unfancy(_Mylast), _STD forward<_Valty>(_Val)...);

  000a0	89 38		 mov	 DWORD PTR [eax], edi

; 688  :         _Orphan_range(_Mylast, _Mylast);
; 689  :         _Ty& _Result = *_Mylast;
; 690  :         ++_Mylast;

  000a2	83 46 04 04	 add	 DWORD PTR [esi+4], 4

; 705  :             return _Emplace_back_with_unused_capacity(_STD forward<_Valty>(_Val)...);

  000a6	eb 0c		 jmp	 SHORT $LN15@AppendImag
$LN8@AppendImag:

; 706  :         }
; 707  : 
; 708  :         _Ty& _Result = *_Emplace_reallocate(_Mylast, _STD forward<_Valty>(_Val)...);

  000a8	8d 4d 08	 lea	 ecx, DWORD PTR _pImageInstance$[ebp]
  000ab	51		 push	 ecx
  000ac	50		 push	 eax
  000ad	8b ce		 mov	 ecx, esi
