; Listing generated by Microsoft (R) Optimizing Compiler Version 19.27.29112.0 

	TITLE	C:\DS Project\DS Files\Source\ClientSource\Client\eterPythonLib\PythonWindowManagerModule.cpp
	.686P
	.XMM
	include listing.inc
	.model	flat

INCLUDELIB LIBCMT
INCLUDELIB OLDNAMES

PUBLIC	?initwndMgr@@YAXXZ				; initwndMgr
PUBLIC	?PyTuple_GetWindow@@YA_NPAU_object@@HPAPAVCWindow@UI@@@Z ; PyTuple_GetWindow
PUBLIC	?wndMgrGetAspect@@YAPAU_object@@PAU1@0@Z	; wndMgrGetAspect
PUBLIC	?wndMgrOnceIgnoreMouseLeftButtonUpEvent@@YAPAU_object@@PAU1@0@Z ; wndMgrOnceIgnoreMouseLeftButtonUpEvent
PUBLIC	?wndMgrSetMouseHandler@@YAPAU_object@@PAU1@0@Z	; wndMgrSetMouseHandler
PUBLIC	?wndMgrRegister@@YAPAU_object@@PAU1@0@Z		; wndMgrRegister
PUBLIC	?wndMgrRegisterSlotWindow@@YAPAU_object@@PAU1@0@Z ; wndMgrRegisterSlotWindow
PUBLIC	?wndMgrRegisterGridSlotWindow@@YAPAU_object@@PAU1@0@Z ; wndMgrRegisterGridSlotWindow
PUBLIC	?wndMgrRegisterTextLine@@YAPAU_object@@PAU1@0@Z	; wndMgrRegisterTextLine
PUBLIC	?wndMgrRegisterMarkBox@@YAPAU_object@@PAU1@0@Z	; wndMgrRegisterMarkBox
PUBLIC	?wndMgrRegisterImageBox@@YAPAU_object@@PAU1@0@Z	; wndMgrRegisterImageBox
PUBLIC	?wndMgrRegisterExpandedImageBox@@YAPAU_object@@PAU1@0@Z ; wndMgrRegisterExpandedImageBox
PUBLIC	?wndMgrRegisterAniImageBox@@YAPAU_object@@PAU1@0@Z ; wndMgrRegisterAniImageBox
PUBLIC	?wndMgrRegisterButton@@YAPAU_object@@PAU1@0@Z	; wndMgrRegisterButton
PUBLIC	?wndMgrRegisterRadioButton@@YAPAU_object@@PAU1@0@Z ; wndMgrRegisterRadioButton
PUBLIC	?wndMgrRegisterToggleButton@@YAPAU_object@@PAU1@0@Z ; wndMgrRegisterToggleButton
PUBLIC	?wndMgrRegisterDragButton@@YAPAU_object@@PAU1@0@Z ; wndMgrRegisterDragButton
PUBLIC	?wndMgrRegisterBox@@YAPAU_object@@PAU1@0@Z	; wndMgrRegisterBox
PUBLIC	?wndMgrRegisterBar@@YAPAU_object@@PAU1@0@Z	; wndMgrRegisterBar
PUBLIC	?wndMgrRegisterLine@@YAPAU_object@@PAU1@0@Z	; wndMgrRegisterLine
PUBLIC	?wndMgrRegisterBar3D@@YAPAU_object@@PAU1@0@Z	; wndMgrRegisterBar3D
PUBLIC	?wndMgrRegisterNumberLine@@YAPAU_object@@PAU1@0@Z ; wndMgrRegisterNumberLine
PUBLIC	?wndMgrDestroy@@YAPAU_object@@PAU1@0@Z		; wndMgrDestroy
PUBLIC	?wndMgrIsFocus@@YAPAU_object@@PAU1@0@Z		; wndMgrIsFocus
PUBLIC	?wndMgrSetFocus@@YAPAU_object@@PAU1@0@Z		; wndMgrSetFocus
PUBLIC	?wndMgrKillFocus@@YAPAU_object@@PAU1@0@Z	; wndMgrKillFocus
PUBLIC	?wndMgrLock@@YAPAU_object@@PAU1@0@Z		; wndMgrLock
PUBLIC	?wndMgrUnlock@@YAPAU_object@@PAU1@0@Z		; wndMgrUnlock
PUBLIC	?wndMgrSetName@@YAPAU_object@@PAU1@0@Z		; wndMgrSetName
PUBLIC	?wndMgrSetTop@@YAPAU_object@@PAU1@0@Z		; wndMgrSetTop
PUBLIC	?wndMgrShow@@YAPAU_object@@PAU1@0@Z		; wndMgrShow
PUBLIC	?wndMgrHide@@YAPAU_object@@PAU1@0@Z		; wndMgrHide
PUBLIC	?wndMgrIsShow@@YAPAU_object@@PAU1@0@Z		; wndMgrIsShow
PUBLIC	?wndMgrIsRTL@@YAPAU_object@@PAU1@0@Z		; wndMgrIsRTL
PUBLIC	?wndMgrSetScrollable@@YAPAU_object@@PAU1@0@Z	; wndMgrSetScrollable
PUBLIC	?wndMgrSetScreenSize@@YAPAU_object@@PAU1@0@Z	; wndMgrSetScreenSize
PUBLIC	?wndMgrSetParent@@YAPAU_object@@PAU1@0@Z	; wndMgrSetParent
PUBLIC	?wndMgrSetPickAlways@@YAPAU_object@@PAU1@0@Z	; wndMgrSetPickAlways
PUBLIC	?wndMgrSetWndSize@@YAPAU_object@@PAU1@0@Z	; wndMgrSetWndSize
PUBLIC	?wndMgrSetWndPosition@@YAPAU_object@@PAU1@0@Z	; wndMgrSetWndPosition
PUBLIC	?wndMgrGetName@@YAPAU_object@@PAU1@0@Z		; wndMgrGetName
PUBLIC	?wndMgrGetWndWidth@@YAPAU_object@@PAU1@0@Z	; wndMgrGetWndWidth
PUBLIC	?wndMgrGetWndHeight@@YAPAU_object@@PAU1@0@Z	; wndMgrGetWndHeight
PUBLIC	?wndMgrGetWndLocalPosition@@YAPAU_object@@PAU1@0@Z ; wndMgrGetWndLocalPosition
PUBLIC	?wndMgrGetWndGlobalPosition@@YAPAU_object@@PAU1@0@Z ; wndMgrGetWndGlobalPosition
PUBLIC	?wndMgrGetWindowRect@@YAPAU_object@@PAU1@0@Z	; wndMgrGetWindowRect
PUBLIC	?wndMgrSetWindowHorizontalAlign@@YAPAU_object@@PAU1@0@Z ; wndMgrSetWindowHorizontalAlign
PUBLIC	?wndMgrSetWindowVerticalAlign@@YAPAU_object@@PAU1@0@Z ; wndMgrSetWindowVerticalAlign
PUBLIC	?wndMgrIsIn@@YAPAU_object@@PAU1@0@Z		; wndMgrIsIn
PUBLIC	?wndMgrGetMouseLocalPosition@@YAPAU_object@@PAU1@0@Z ; wndMgrGetMouseLocalPosition
PUBLIC	?wndMgrGetHyperlink@@YAPAU_object@@PAU1@0@Z	; wndMgrGetHyperlink
PUBLIC	?wndMgrGetScreenWidth@@YAPAU_object@@PAU1@0@Z	; wndMgrGetScreenWidth
PUBLIC	?wndMgrGetScreenHeight@@YAPAU_object@@PAU1@0@Z	; wndMgrGetScreenHeight
PUBLIC	?wndMgrGetMousePosition@@YAPAU_object@@PAU1@0@Z	; wndMgrGetMousePosition
PUBLIC	?wndMgrIsDragging@@YAPAU_object@@PAU1@0@Z	; wndMgrIsDragging
PUBLIC	?wndMgrIsPickedWindow@@YAPAU_object@@PAU1@0@Z	; wndMgrIsPickedWindow
PUBLIC	?wndMgrGetChildCount@@YAPAU_object@@PAU1@0@Z	; wndMgrGetChildCount
PUBLIC	?wndMgrAddFlag@@YAPAU_object@@PAU1@0@Z		; wndMgrAddFlag
PUBLIC	?wndMgrSetLimitBias@@YAPAU_object@@PAU1@0@Z	; wndMgrSetLimitBias
PUBLIC	?wndMgrUpdateRect@@YAPAU_object@@PAU1@0@Z	; wndMgrUpdateRect
PUBLIC	?wndMgrAppendSlot@@YAPAU_object@@PAU1@0@Z	; wndMgrAppendSlot
PUBLIC	?wndMgrArrangeSlot@@YAPAU_object@@PAU1@0@Z	; wndMgrArrangeSlot
PUBLIC	?wndMgrSetSlotBaseImage@@YAPAU_object@@PAU1@0@Z	; wndMgrSetSlotBaseImage
PUBLIC	?wndMgrSetCoverButton@@YAPAU_object@@PAU1@0@Z	; wndMgrSetCoverButton
PUBLIC	?wndMgrEnableCoverButton@@YAPAU_object@@PAU1@0@Z ; wndMgrEnableCoverButton
PUBLIC	?wndMgrDisableCoverButton@@YAPAU_object@@PAU1@0@Z ; wndMgrDisableCoverButton
PUBLIC	?wndMgrIsDisableCoverButton@@YAPAU_object@@PAU1@0@Z ; wndMgrIsDisableCoverButton
PUBLIC	?wndMgrSetAlwaysRenderCoverButton@@YAPAU_object@@PAU1@0@Z ; wndMgrSetAlwaysRenderCoverButton
PUBLIC	?wndMgrAppendSlotButton@@YAPAU_object@@PAU1@0@Z	; wndMgrAppendSlotButton
PUBLIC	?wndMgrAppendRequirementSignImage@@YAPAU_object@@PAU1@0@Z ; wndMgrAppendRequirementSignImage
PUBLIC	?wndMgrShowSlotButton@@YAPAU_object@@PAU1@0@Z	; wndMgrShowSlotButton
PUBLIC	?wndMgrHideAllSlotButton@@YAPAU_object@@PAU1@0@Z ; wndMgrHideAllSlotButton
PUBLIC	?wndMgrShowRequirementSign@@YAPAU_object@@PAU1@0@Z ; wndMgrShowRequirementSign
PUBLIC	?wndMgrHideRequirementSign@@YAPAU_object@@PAU1@0@Z ; wndMgrHideRequirementSign
PUBLIC	?wndMgrRefreshSlot@@YAPAU_object@@PAU1@0@Z	; wndMgrRefreshSlot
PUBLIC	?wndMgrSetUseMode@@YAPAU_object@@PAU1@0@Z	; wndMgrSetUseMode
PUBLIC	?wndMgrSetUsableItem@@YAPAU_object@@PAU1@0@Z	; wndMgrSetUsableItem
PUBLIC	?wndMgrClearSlot@@YAPAU_object@@PAU1@0@Z	; wndMgrClearSlot
PUBLIC	?wndMgrClearAllSlot@@YAPAU_object@@PAU1@0@Z	; wndMgrClearAllSlot
PUBLIC	?wndMgrHasSlot@@YAPAU_object@@PAU1@0@Z		; wndMgrHasSlot
PUBLIC	?wndMgrSetSlot@@YAPAU_object@@PAU1@0@Z		; wndMgrSetSlot
PUBLIC	?wndMgrSetSlotCount@@YAPAU_object@@PAU1@0@Z	; wndMgrSetSlotCount
PUBLIC	?wndMgrSetSlotCountNew@@YAPAU_object@@PAU1@0@Z	; wndMgrSetSlotCountNew
PUBLIC	?wndMgrSetSlotCoolTime@@YAPAU_object@@PAU1@0@Z	; wndMgrSetSlotCoolTime
PUBLIC	?wndMgrSetToggleSlot@@YAPAU_object@@PAU1@0@Z	; wndMgrSetToggleSlot
PUBLIC	?wndMgrActivateSlot@@YAPAU_object@@PAU1@0@Z	; wndMgrActivateSlot
PUBLIC	?wndMgrDeactivateSlot@@YAPAU_object@@PAU1@0@Z	; wndMgrDeactivateSlot
PUBLIC	?wndMgrEnableSlot@@YAPAU_object@@PAU1@0@Z	; wndMgrEnableSlot
PUBLIC	?wndMgrDisableSlot@@YAPAU_object@@PAU1@0@Z	; wndMgrDisableSlot
PUBLIC	?wndMgrShowSlotBaseImage@@YAPAU_object@@PAU1@0@Z ; wndMgrShowSlotBaseImage
PUBLIC	?wndMgrHideSlotBaseImage@@YAPAU_object@@PAU1@0@Z ; wndMgrHideSlotBaseImage
PUBLIC	?wndMgrSetSlotType@@YAPAU_object@@PAU1@0@Z	; wndMgrSetSlotType
PUBLIC	?wndMgrSetSlotStyle@@YAPAU_object@@PAU1@0@Z	; wndMgrSetSlotStyle
PUBLIC	?wndMgrSelectSlot@@YAPAU_object@@PAU1@0@Z	; wndMgrSelectSlot
PUBLIC	?wndMgrClearSelected@@YAPAU_object@@PAU1@0@Z	; wndMgrClearSelected
PUBLIC	?wndMgrGetSelectedSlotCount@@YAPAU_object@@PAU1@0@Z ; wndMgrGetSelectedSlotCount
PUBLIC	?wndMgrGetSelectedSlotNumber@@YAPAU_object@@PAU1@0@Z ; wndMgrGetSelectedSlotNumber
PUBLIC	?wndMgrIsSelectedSlot@@YAPAU_object@@PAU1@0@Z	; wndMgrIsSelectedSlot
PUBLIC	?wndMgrGetSlotCount@@YAPAU_object@@PAU1@0@Z	; wndMgrGetSlotCount
PUBLIC	?wndMgrLockSlot@@YAPAU_object@@PAU1@0@Z		; wndMgrLockSlot
PUBLIC	?wndMgrUnlockSlot@@YAPAU_object@@PAU1@0@Z	; wndMgrUnlockSlot
PUBLIC	?wndBarSetColor@@YAPAU_object@@PAU1@0@Z		; wndBarSetColor
PUBLIC	?wndMgrAttachIcon@@YAPAU_object@@PAU1@0@Z	; wndMgrAttachIcon
PUBLIC	?wndMgrDeattachIcon@@YAPAU_object@@PAU1@0@Z	; wndMgrDeattachIcon
PUBLIC	?wndMgrSetAttachingFlag@@YAPAU_object@@PAU1@0@Z	; wndMgrSetAttachingFlag
PUBLIC	?wndTextSetMax@@YAPAU_object@@PAU1@0@Z		; wndTextSetMax
PUBLIC	?wndTextSetHorizontalAlign@@YAPAU_object@@PAU1@0@Z ; wndTextSetHorizontalAlign
PUBLIC	?wndTextSetVerticalAlign@@YAPAU_object@@PAU1@0@Z ; wndTextSetVerticalAlign
PUBLIC	?wndTextSetSecret@@YAPAU_object@@PAU1@0@Z	; wndTextSetSecret
PUBLIC	?wndTextSetOutline@@YAPAU_object@@PAU1@0@Z	; wndTextSetOutline
PUBLIC	?wndTextSetFeather@@YAPAU_object@@PAU1@0@Z	; wndTextSetFeather
PUBLIC	?wndTextSetMultiLine@@YAPAU_object@@PAU1@0@Z	; wndTextSetMultiLine
PUBLIC	?wndTextSetFontName@@YAPAU_object@@PAU1@0@Z	; wndTextSetFontName
PUBLIC	?wndTextSetFontColor@@YAPAU_object@@PAU1@0@Z	; wndTextSetFontColor
PUBLIC	?wndTextSetLimitWidth@@YAPAU_object@@PAU1@0@Z	; wndTextSetLimitWidth
PUBLIC	?wndTextSetText@@YAPAU_object@@PAU1@0@Z		; wndTextSetText
PUBLIC	?wndTextGetText@@YAPAU_object@@PAU1@0@Z		; wndTextGetText
PUBLIC	?wndTextGetTextSize@@YAPAU_object@@PAU1@0@Z	; wndTextGetTextSize
PUBLIC	?wndTextShowCursor@@YAPAU_object@@PAU1@0@Z	; wndTextShowCursor
PUBLIC	?wndTextHideCursor@@YAPAU_object@@PAU1@0@Z	; wndTextHideCursor
PUBLIC	?wndTextGetCursorPosition@@YAPAU_object@@PAU1@0@Z ; wndTextGetCursorPosition
PUBLIC	?wndNumberSetNumber@@YAPAU_object@@PAU1@0@Z	; wndNumberSetNumber
PUBLIC	?wndNumberSetNumberHorizontalAlignCenter@@YAPAU_object@@PAU1@0@Z ; wndNumberSetNumberHorizontalAlignCenter
PUBLIC	?wndNumberSetNumberHorizontalAlignRight@@YAPAU_object@@PAU1@0@Z ; wndNumberSetNumberHorizontalAlignRight
PUBLIC	?wndNumberSetPath@@YAPAU_object@@PAU1@0@Z	; wndNumberSetPath
PUBLIC	?wndMarkBox_SetImageFilename@@YAPAU_object@@PAU1@0@Z ; wndMarkBox_SetImageFilename
PUBLIC	?wndMarkBox_SetImage@@YAPAU_object@@PAU1@0@Z	; wndMarkBox_SetImage
PUBLIC	?wndMarkBox_Load@@YAPAU_object@@PAU1@0@Z	; wndMarkBox_Load
PUBLIC	?wndMarkBox_SetIndex@@YAPAU_object@@PAU1@0@Z	; wndMarkBox_SetIndex
PUBLIC	?wndMarkBox_SetScale@@YAPAU_object@@PAU1@0@Z	; wndMarkBox_SetScale
PUBLIC	?wndMarkBox_SetDiffuseColor@@YAPAU_object@@PAU1@0@Z ; wndMarkBox_SetDiffuseColor
PUBLIC	?wndImageLoadImage@@YAPAU_object@@PAU1@0@Z	; wndImageLoadImage
PUBLIC	?wndImageSetDiffuseColor@@YAPAU_object@@PAU1@0@Z ; wndImageSetDiffuseColor
PUBLIC	?wndImageGetWidth@@YAPAU_object@@PAU1@0@Z	; wndImageGetWidth
PUBLIC	?wndImageGetHeight@@YAPAU_object@@PAU1@0@Z	; wndImageGetHeight
PUBLIC	?wndImageSetScale@@YAPAU_object@@PAU1@0@Z	; wndImageSetScale
PUBLIC	?wndImageSetOrigin@@YAPAU_object@@PAU1@0@Z	; wndImageSetOrigin
PUBLIC	?wndImageSetRotation@@YAPAU_object@@PAU1@0@Z	; wndImageSetRotation
PUBLIC	?wndImageSetRenderingRect@@YAPAU_object@@PAU1@0@Z ; wndImageSetRenderingRect
PUBLIC	?wndImageSetRenderingMode@@YAPAU_object@@PAU1@0@Z ; wndImageSetRenderingMode
PUBLIC	?wndImageSetDelay@@YAPAU_object@@PAU1@0@Z	; wndImageSetDelay
PUBLIC	?wndImageAppendImage@@YAPAU_object@@PAU1@0@Z	; wndImageAppendImage
PUBLIC	?wndButtonSetUpVisual@@YAPAU_object@@PAU1@0@Z	; wndButtonSetUpVisual
PUBLIC	?wndButtonSetOverVisual@@YAPAU_object@@PAU1@0@Z	; wndButtonSetOverVisual
PUBLIC	?wndButtonSetDownVisual@@YAPAU_object@@PAU1@0@Z	; wndButtonSetDownVisual
PUBLIC	?wndButtonSetDisableVisual@@YAPAU_object@@PAU1@0@Z ; wndButtonSetDisableVisual
PUBLIC	?wndButtonGetUpVisualFileName@@YAPAU_object@@PAU1@0@Z ; wndButtonGetUpVisualFileName
PUBLIC	?wndButtonGetOverVisualFileName@@YAPAU_object@@PAU1@0@Z ; wndButtonGetOverVisualFileName
PUBLIC	?wndButtonGetDownVisualFileName@@YAPAU_object@@PAU1@0@Z ; wndButtonGetDownVisualFileName
PUBLIC	?wndButtonFlash@@YAPAU_object@@PAU1@0@Z		; wndButtonFlash
PUBLIC	?wndButtonEnable@@YAPAU_object@@PAU1@0@Z	; wndButtonEnable
PUBLIC	?wndButtonDisable@@YAPAU_object@@PAU1@0@Z	; wndButtonDisable
PUBLIC	?wndButtonDown@@YAPAU_object@@PAU1@0@Z		; wndButtonDown
PUBLIC	?wndButtonSetUp@@YAPAU_object@@PAU1@0@Z		; wndButtonSetUp
PUBLIC	?wndButtonSetRestrictMovementArea@@YAPAU_object@@PAU1@0@Z ; wndButtonSetRestrictMovementArea
PUBLIC	?wndButtonIsDown@@YAPAU_object@@PAU1@0@Z	; wndButtonIsDown
PUBLIC	?wndMgrSetOutlineFlag@@YAPAU_object@@PAU1@0@Z	; wndMgrSetOutlineFlag
PUBLIC	?wndMgrShowOverInWindowName@@YAPAU_object@@PAU1@0@Z ; wndMgrShowOverInWindowName
PUBLIC	?wndMgrIsActivatedSlot@@YAPAU_object@@PAU1@0@Z	; wndMgrIsActivatedSlot
PUBLIC	?wndMgrGetSlotCoolTime@@YAPAU_object@@PAU1@0@Z	; wndMgrGetSlotCoolTime
PUBLIC	?wndMgrActivateEffect@@YAPAU_object@@PAU1@0@Z	; wndMgrActivateEffect
PUBLIC	?wndMgrDeactivateEffect@@YAPAU_object@@PAU1@0@Z	; wndMgrDeactivateEffect
PUBLIC	?ms_singleton@?$CSingleton@VCWindowManager@UI@@@@0PAVCWindowManager@UI@@A ; CSingleton<UI::CWindowManager>::ms_singleton
PUBLIC	??_C@_01INIBCBCB@f@				; `string'
PUBLIC	??_C@_01KBJDNOO@i@				; `string'
PUBLIC	??_C@_01LKDEMHDF@s@				; `string'
PUBLIC	??_C@_02PDIHAGKM@ii@				; `string'
PUBLIC	??_C@_04BIOIIFBG@iiii@				; `string'
PUBLIC	??_C@_02OIKAIHIF@s?$CD@				; `string'
PUBLIC	??_C@_07BNIMILPP@movable@			; `string'
PUBLIC	??_C@_05GADAOHMC@limit@				; `string'
PUBLIC	??_C@_08KCAGBJHE@dragable@			; `string'
PUBLIC	??_C@_06LHJMGKLI@attach@			; `string'
PUBLIC	??_C@_0L@KAJDFNK@restrict_x@			; `string'
PUBLIC	??_C@_0L@BDBCAEJL@restrict_y@			; `string'
PUBLIC	??_C@_05KNFBNCOH@float@				; `string'
PUBLIC	??_C@_08BCAHNCDJ@not_pick@			; `string'
PUBLIC	??_C@_0M@HHFJIJHL@ignore_size@			; `string'
PUBLIC	??_C@_03IFDNKMND@rtl@				; `string'
PUBLIC	??_C@_03OBLKLDKA@ltr@				; `string'
PUBLIC	??_C@_0BH@KIGIHPAM@Unknown?5window?5flag?5?$CFs@ ; `string'
PUBLIC	??_C@_0CH@FFGFLEBP@wndMgr?4ArrangeSlot?5?3?5not?5a?5grid@ ; `string'
PUBLIC	??_C@_0CH@HCFLPGH@wndMgr?4ArrangeSlot?5?3?5not?5a?5slot@ ; `string'
PUBLIC	??_C@_04INACLLOK@?$CIii?$CJ@			; `string'
PUBLIC	??_C@_0CE@HBOEBFCG@Failed?5to?5load?5image?5?$CIfilename?3@ ; `string'
PUBLIC	??_C@_02HPEDFNFO@ff@				; `string'
PUBLIC	??_C@_0BA@PPCHHCMN@SetMouseHandler@		; `string'
PUBLIC	??_C@_0O@EPGNIIPM@SetScreenSize@		; `string'
PUBLIC	??_C@_0P@OBMNGDMB@GetScreenWidth@		; `string'
PUBLIC	??_C@_0BA@PLLJJDCL@GetScreenHeight@		; `string'
PUBLIC	??_C@_0L@FHGOOMIM@AttachIcon@			; `string'
PUBLIC	??_C@_0N@HIMEHEBA@DeattachIcon@			; `string'
PUBLIC	??_C@_0BB@OJBFCDNH@SetAttachingFlag@		; `string'
PUBLIC	??_C@_09MFNPPPAG@GetAspect@			; `string'
PUBLIC	??_C@_0N@PCIKAOKG@GetHyperlink@			; `string'
PUBLIC	??_C@_0CB@JDNFNFMG@OnceIgnoreMouseLeftButtonUpEven@ ; `string'
PUBLIC	??_C@_08LFIJLPOM@Register@			; `string'
PUBLIC	??_C@_0BD@HNEHNBHO@RegisterSlotWindow@		; `string'
PUBLIC	??_C@_0BH@HHDOCCCO@RegisterGridSlotWindow@	; `string'
PUBLIC	??_C@_0BB@JKLFNGCE@RegisterTextLine@		; `string'
PUBLIC	??_C@_0BA@BLOHJECG@RegisterMarkBox@		; `string'
PUBLIC	??_C@_0BB@CGJHKCPO@RegisterImageBox@		; `string'
PUBLIC	??_C@_0BJ@HCLPCLBM@RegisterExpandedImageBox@	; `string'
PUBLIC	??_C@_0BE@EHOJIJPF@RegisterAniImageBox@		; `string'
PUBLIC	??_C@_0P@HIFEMCKE@RegisterButton@		; `string'
PUBLIC	??_C@_0BE@LOKOGAFI@RegisterRadioButton@		; `string'
PUBLIC	??_C@_0BF@LKPDMOKE@RegisterToggleButton@	; `string'
PUBLIC	??_C@_0BD@FJKAFMBK@RegisterDragButton@		; `string'
PUBLIC	??_C@_0M@MCLBEPNH@RegisterBox@			; `string'
PUBLIC	??_C@_0M@DCMAIKFH@RegisterBar@			; `string'
PUBLIC	??_C@_0N@ICAPFHKF@RegisterLine@			; `string'
PUBLIC	??_C@_0O@EKKPECKF@RegisterBar3D@		; `string'
PUBLIC	??_C@_0BD@DBAMBKME@RegisterNumberLine@		; `string'
PUBLIC	??_C@_07BDCAJABG@Destroy@			; `string'
PUBLIC	??_C@_07FGJMHOHK@AddFlag@			; `string'
PUBLIC	??_C@_05IOGFNOKL@IsRTL@				; `string'
PUBLIC	??_C@_0O@BCLGMDMJ@SetScrollable@		; `string'
PUBLIC	??_C@_07DEJFEJPJ@SetName@			; `string'
PUBLIC	??_C@_07MMGEHGCI@GetName@			; `string'
PUBLIC	??_C@_06MBOGGFD@SetTop@				; `string'
PUBLIC	??_C@_04JLAJABDJ@Show@				; `string'
PUBLIC	??_C@_04EACEFPPN@Hide@				; `string'
PUBLIC	??_C@_06JMGCGGJP@IsShow@			; `string'
PUBLIC	??_C@_09BGDFCKEN@SetParent@			; `string'
PUBLIC	??_C@_0O@PGINCMBF@SetPickAlways@		; `string'
PUBLIC	??_C@_07MMFHOCGI@IsFocus@			; `string'
PUBLIC	??_C@_08GPNNBNIL@SetFocus@			; `string'
PUBLIC	??_C@_09PMGFBOMK@KillFocus@			; `string'
PUBLIC	??_C@_04LADJNOK@Lock@				; `string'
PUBLIC	??_C@_06NCJPDCLH@Unlock@			; `string'
PUBLIC	??_C@_0O@OOGBNGFB@SetWindowSize@		; `string'
PUBLIC	??_C@_0BC@CONADAIE@SetWindowPosition@		; `string'
PUBLIC	??_C@_0P@EJALLAMK@GetWindowWidth@		; `string'
PUBLIC	??_C@_0BA@GMMDIMHA@GetWindowHeight@		; `string'
PUBLIC	??_C@_0BH@KEOBHEHD@GetWindowLocalPosition@	; `string'
PUBLIC	??_C@_0BI@NOJPNPDO@GetWindowGlobalPosition@	; `string'
PUBLIC	??_C@_0O@KGOHEIMB@GetWindowRect@		; `string'
PUBLIC	??_C@_0BJ@FGPBHCAH@SetWindowHorizontalAlign@	; `string'
PUBLIC	??_C@_0BH@KDPMNJIB@SetWindowVerticalAlign@	; `string'
PUBLIC	??_C@_0O@HMBCELHA@GetChildCount@		; `string'
PUBLIC	??_C@_0P@GEIEEBJH@IsPickedWindow@		; `string'
PUBLIC	??_C@_04JBIBMNMO@IsIn@				; `string'
PUBLIC	??_C@_0BG@NHBHOLBI@GetMouseLocalPosition@	; `string'
PUBLIC	??_C@_0BB@MMLACOLH@GetMousePosition@		; `string'
PUBLIC	??_C@_0L@HEPBODCJ@IsDragging@			; `string'
PUBLIC	??_C@_0N@CCOOMDHD@SetLimitBias@			; `string'
PUBLIC	??_C@_0L@HJOBPCKA@UpdateRect@			; `string'
PUBLIC	??_C@_0L@FDCINHBF@AppendSlot@			; `string'
PUBLIC	??_C@_0M@OFNEHKDL@ArrangeSlot@			; `string'
PUBLIC	??_C@_09CGBENBJB@ClearSlot@			; `string'
PUBLIC	??_C@_0N@MMOLDNHK@ClearAllSlot@			; `string'
PUBLIC	??_C@_07MGEJAMLP@HasSlot@			; `string'
PUBLIC	??_C@_07ONCDFGJ@SetSlot@			; `string'
PUBLIC	??_C@_0N@IEAMEDFH@SetSlotCount@			; `string'
PUBLIC	??_C@_0BA@OOLIKBKI@SetSlotCountNew@		; `string'
PUBLIC	??_C@_0BA@OKBNFKML@SetSlotCoolTime@		; `string'
PUBLIC	??_C@_0O@FJKNHKBL@SetToggleSlot@		; `string'
PUBLIC	??_C@_0N@HFCIPMIE@ActivateSlot@			; `string'
PUBLIC	??_C@_0P@FGAIANEO@DeactivateSlot@		; `string'
PUBLIC	??_C@_0L@DHCLIIGL@EnableSlot@			; `string'
PUBLIC	??_C@_0M@EKMKGECP@DisableSlot@			; `string'
PUBLIC	??_C@_0BC@DHCKDEOK@ShowSlotBaseImage@		; `string'
PUBLIC	??_C@_0BC@NFMHNFLM@HideSlotBaseImage@		; `string'
PUBLIC	??_C@_0M@KHOHGEMH@SetSlotType@			; `string'
PUBLIC	??_C@_0N@IKGBKPJJ@SetSlotStyle@			; `string'
PUBLIC	??_C@_0BB@IOMAJEMI@SetSlotBaseImage@		; `string'
PUBLIC	??_C@_0P@JKHNGGPA@SetCoverButton@		; `string'
PUBLIC	??_C@_0BC@GDLBPCHF@EnableCoverButton@		; `string'
PUBLIC	??_C@_0BD@DOJCOOMI@DisableCoverButton@		; `string'
PUBLIC	??_C@_0BF@ILDMDDMH@IsDisableCoverButton@	; `string'
PUBLIC	??_C@_0BL@PAFAGEGB@SetAlwaysRenderCoverButton@	; `string'
PUBLIC	??_C@_0BB@LLDDGEIL@AppendSlotButton@		; `string'
PUBLIC	??_C@_0BL@CCGBCIBD@AppendRequirementSignImage@	; `string'
PUBLIC	??_C@_0P@CINLEJEK@ShowSlotButton@		; `string'
PUBLIC	??_C@_0BC@IHMDJONI@HideAllSlotButton@		; `string'
PUBLIC	??_C@_0BE@IGOEKEDL@ShowRequirementSign@		; `string'
PUBLIC	??_C@_0BE@LNAIGOOK@HideRequirementSign@		; `string'
PUBLIC	??_C@_0M@NAPCHMAM@RefreshSlot@			; `string'
PUBLIC	??_C@_0L@ODKIIGJF@SetUseMode@			; `string'
PUBLIC	??_C@_0O@LHCBGPMO@SetUsableItem@		; `string'
PUBLIC	??_C@_0L@EMMADCIN@SelectSlot@			; `string'
PUBLIC	??_C@_0O@OGHLMGNI@ClearSelected@		; `string'
PUBLIC	??_C@_0BF@EECMELAK@GetSelectedSlotCount@	; `string'
PUBLIC	??_C@_0BG@DJKADEKA@GetSelectedSlotNumber@	; `string'
PUBLIC	??_C@_0P@GKJOEMLC@IsSelectedSlot@		; `string'
PUBLIC	??_C@_0N@PALCIPBL@GetSlotCount@			; `string'
PUBLIC	??_C@_08PGGNMNPL@LockSlot@			; `string'
PUBLIC	??_C@_0L@DPNFKPLP@UnlockSlot@			; `string'
PUBLIC	??_C@_08GPNJILIJ@SetColor@			; `string'
PUBLIC	??_C@_06ODEINJEE@SetMax@			; `string'
PUBLIC	??_C@_0BD@FCLDCEMA@SetHorizontalAlign@		; `string'
PUBLIC	??_C@_0BB@NKHPOFIC@SetVerticalAlign@		; `string'
PUBLIC	??_C@_09CAFHEMDD@SetSecret@			; `string'
PUBLIC	??_C@_0L@HBNEJDMM@SetOutline@			; `string'
PUBLIC	??_C@_0L@LLKEFHFA@SetFeather@			; `string'
PUBLIC	??_C@_0N@FKMHLJHG@SetMultiLine@			; `string'
PUBLIC	??_C@_07NIJDBDAG@SetText@			; `string'
PUBLIC	??_C@_0M@MCELKPNO@SetFontName@			; `string'
PUBLIC	??_C@_0N@MKCFOAAE@SetFontColor@			; `string'
PUBLIC	??_C@_0O@FIAFKHF@SetLimitWidth@			; `string'
PUBLIC	??_C@_07CAGCCMNH@GetText@			; `string'
PUBLIC	??_C@_0M@JOAAGILP@GetTextSize@			; `string'
PUBLIC	??_C@_0L@BIENLPGM@ShowCursor@			; `string'
PUBLIC	??_C@_0L@MGJDDPFG@HideCursor@			; `string'
PUBLIC	??_C@_0BC@DJJGDMOB@GetCursorPosition@		; `string'
PUBLIC	??_C@_09JMPLPNNO@SetNumber@			; `string'
PUBLIC	??_C@_0BP@JHALFFJF@SetNumberHorizontalAlignCenter@ ; `string'
PUBLIC	??_C@_0BO@FBBAAHKK@SetNumberHorizontalAlignRight@ ; `string'
PUBLIC	??_C@_07ENBMIGKI@SetPath@			; `string'
PUBLIC	??_C@_0BB@FMJJKPIM@MarkBox_SetImage@		; `string'
PUBLIC	??_C@_0BJ@PJODLBON@MarkBox_SetImageFilename@	; `string'
PUBLIC	??_C@_0N@FLKGJMCL@MarkBox_Load@			; `string'
PUBLIC	??_C@_0BB@NAAPJNBM@MarkBox_SetIndex@		; `string'
PUBLIC	??_C@_0BB@ENLBNPPB@MarkBox_SetScale@		; `string'
PUBLIC	??_C@_0BI@JCKPADLG@MarkBox_SetDiffuseColor@	; `string'
PUBLIC	??_C@_09OHOMMMHI@LoadImage@			; `string'
PUBLIC	??_C@_0BA@CAEBLOMF@SetDiffuseColor@		; `string'
PUBLIC	??_C@_08OMBILDHM@GetWidth@			; `string'
PUBLIC	??_C@_09EOGEIJMK@GetHeight@			; `string'
PUBLIC	??_C@_08FMFAIGAB@SetScale@			; `string'
PUBLIC	??_C@_09KLKDEBJ@SetOrigin@			; `string'
PUBLIC	??_C@_0M@GNIHGJGG@SetRotation@			; `string'
PUBLIC	??_C@_0BB@LDNMLPHM@SetRenderingRect@		; `string'
PUBLIC	??_C@_0BB@GIEHGKNO@SetRenderingMode@		; `string'
PUBLIC	??_C@_08NBAGFHFB@SetDelay@			; `string'
PUBLIC	??_C@_0M@BEJGDBIJ@AppendImage@			; `string'
PUBLIC	??_C@_0M@IIELPGEP@SetUpVisual@			; `string'
PUBLIC	??_C@_0O@KOIDMFK@SetOverVisual@			; `string'
PUBLIC	??_C@_0O@FLFAFPKP@SetDownVisual@		; `string'
PUBLIC	??_C@_0BB@JCGDBIB@SetDisableVisual@		; `string'
PUBLIC	??_C@_0BE@PHOOFGJI@GetUpVisualFileName@		; `string'
PUBLIC	??_C@_0BG@KEALLAJN@GetOverVisualFileName@	; `string'
PUBLIC	??_C@_0BG@FKDEILKI@GetDownVisualFileName@	; `string'
PUBLIC	??_C@_05LDPHIKKB@Flash@				; `string'
PUBLIC	??_C@_06CKGENIKG@Enable@			; `string'
PUBLIC	??_C@_07MIKIFGAL@Disable@			; `string'
PUBLIC	??_C@_04FNCLCJMC@Down@				; `string'
PUBLIC	??_C@_05DEOAHOFO@SetUp@				; `string'
PUBLIC	??_C@_06FKEAEOGE@IsDown@			; `string'
PUBLIC	??_C@_0BI@KNEJFEOH@SetRestrictMovementArea@	; `string'
PUBLIC	??_C@_0P@MEHCKPID@SetOutlineFlag@		; `string'
PUBLIC	??_C@_0BF@LFOINEDC@ShowOverInWindowName@	; `string'
PUBLIC	??_C@_0BA@EABPFCGJ@IsActivatedSlot@		; `string'
PUBLIC	??_C@_0BA@NIALCINC@GetSlotCoolTime@		; `string'
PUBLIC	??_C@_0P@KKAGIHMC@ActivateEffect@		; `string'
PUBLIC	??_C@_0BB@FBKJFJKM@DeactivateEffect@		; `string'
PUBLIC	??_C@_06CMPPDHLC@wndMgr@			; `string'
PUBLIC	??_C@_0BA@CEBPCJJF@SLOT_STYLE_NONE@		; `string'
PUBLIC	??_C@_0BD@HIHLPNEG@SLOT_STYLE_PICK_UP@		; `string'
PUBLIC	??_C@_0BC@DPNNOEON@SLOT_STYLE_SELECT@		; `string'
PUBLIC	??_C@_0BL@KJOOHAME@TEXT_HORIZONTAL_ALIGN_LEFT@	; `string'
PUBLIC	??_C@_0BM@BDNLMDBC@TEXT_HORIZONTAL_ALIGN_RIGHT@	; `string'
PUBLIC	??_C@_0BN@MHHHIBEN@TEXT_HORIZONTAL_ALIGN_CENTER@ ; `string'
PUBLIC	??_C@_0BI@PIKJCBDF@TEXT_VERTICAL_ALIGN_TOP@	; `string'
PUBLIC	??_C@_0BL@IKMFEFFI@TEXT_VERTICAL_ALIGN_BOTTOM@	; `string'
PUBLIC	??_C@_0BL@GHLEGJOB@TEXT_VERTICAL_ALIGN_CENTER@	; `string'
PUBLIC	??_C@_0BG@CEANPPL@HORIZONTAL_ALIGN_LEFT@	; `string'
PUBLIC	??_C@_0BI@NJMALOKG@HORIZONTAL_ALIGN_CENTER@	; `string'
PUBLIC	??_C@_0BH@KFBGEAIA@HORIZONTAL_ALIGN_RIGHT@	; `string'
PUBLIC	??_C@_0BD@PBJDAEOI@VERTICAL_ALIGN_TOP@		; `string'
PUBLIC	??_C@_0BG@MMBKMGNO@VERTICAL_ALIGN_CENTER@	; `string'
PUBLIC	??_C@_0BG@CBGLOKGH@VERTICAL_ALIGN_BOTTOM@	; `string'
PUBLIC	??_C@_0BI@BNOJCJOH@RENDERING_MODE_MODULATE@	; `string'
PUBLIC	__real@437f0000
PUBLIC	__xmm@3f8000003f8000003f8000003f800000
EXTRN	___report_rangecheckfailure:PROC
EXTRN	__stricmp:PROC
EXTRN	?TraceError@@YAXPBDZZ:PROC			; TraceError
EXTRN	__imp__PyTuple_Size:PROC
EXTRN	__imp__Py_BuildValue:PROC
EXTRN	__imp__PyModule_AddIntConstant:PROC
EXTRN	__imp__Py_InitModule4:PROC
EXTRN	?PyTuple_GetString@@YA_NPAU_object@@HPAPAD@Z:PROC ; PyTuple_GetString
EXTRN	?PyTuple_GetInteger@@YA_NPAU_object@@HPAH@Z:PROC ; PyTuple_GetInteger
EXTRN	?PyTuple_GetFloat@@YA_NPAU_object@@HPAM@Z:PROC	; PyTuple_GetFloat
EXTRN	?PyTuple_GetObject@@YA_NPAU_object@@HPAPAU1@@Z:PROC ; PyTuple_GetObject
EXTRN	?PyTuple_GetBoolean@@YA_NPAU_object@@HPA_N@Z:PROC ; PyTuple_GetBoolean
EXTRN	?Py_BuildException@@YAPAU_object@@PBDZZ:PROC	; Py_BuildException
EXTRN	?Py_BuildNone@@YAPAU_object@@XZ:PROC		; Py_BuildNone
EXTRN	?Hyperlink_GetText@CGraphicTextInstance@@SAHPADH@Z:PROC ; CGraphicTextInstance::Hyperlink_GetText
EXTRN	?GetAspect@CWindowManager@UI@@QAEMXZ:PROC	; UI::CWindowManager::GetAspect
EXTRN	?SetScreenSize@CWindowManager@UI@@QAEXJJ@Z:PROC	; UI::CWindowManager::SetScreenSize
EXTRN	?SetMouseHandler@CWindowManager@UI@@QAEXPAU_object@@@Z:PROC ; UI::CWindowManager::SetMouseHandler
EXTRN	?GetMousePosition@CWindowManager@UI@@QAEXAAJ0@Z:PROC ; UI::CWindowManager::GetMousePosition
EXTRN	?IsDragging@CWindowManager@UI@@QAEHXZ:PROC	; UI::CWindowManager::IsDragging
EXTRN	?SetParent@CWindowManager@UI@@QAEXPAVCWindow@2@0@Z:PROC ; UI::CWindowManager::SetParent
EXTRN	?SetPickAlways@CWindowManager@UI@@QAEXPAVCWindow@2@@Z:PROC ; UI::CWindowManager::SetPickAlways
EXTRN	?RegisterWindow@CWindowManager@UI@@QAEPAVCWindow@2@PAU_object@@PBD@Z:PROC ; UI::CWindowManager::RegisterWindow
EXTRN	?RegisterSlotWindow@CWindowManager@UI@@QAEPAVCWindow@2@PAU_object@@PBD@Z:PROC ; UI::CWindowManager::RegisterSlotWindow
EXTRN	?RegisterGridSlotWindow@CWindowManager@UI@@QAEPAVCWindow@2@PAU_object@@PBD@Z:PROC ; UI::CWindowManager::RegisterGridSlotWindow
EXTRN	?RegisterTextLine@CWindowManager@UI@@QAEPAVCWindow@2@PAU_object@@PBD@Z:PROC ; UI::CWindowManager::RegisterTextLine
EXTRN	?RegisterMarkBox@CWindowManager@UI@@QAEPAVCWindow@2@PAU_object@@PBD@Z:PROC ; UI::CWindowManager::RegisterMarkBox
EXTRN	?RegisterImageBox@CWindowManager@UI@@QAEPAVCWindow@2@PAU_object@@PBD@Z:PROC ; UI::CWindowManager::RegisterImageBox
EXTRN	?RegisterExpandedImageBox@CWindowManager@UI@@QAEPAVCWindow@2@PAU_object@@PBD@Z:PROC ; UI::CWindowManager::RegisterExpandedImageBox
EXTRN	?RegisterAniImageBox@CWindowManager@UI@@QAEPAVCWindow@2@PAU_object@@PBD@Z:PROC ; UI::CWindowManager::RegisterAniImageBox
EXTRN	?RegisterButton@CWindowManager@UI@@QAEPAVCWindow@2@PAU_object@@PBD@Z:PROC ; UI::CWindowManager::RegisterButton
EXTRN	?RegisterRadioButton@CWindowManager@UI@@QAEPAVCWindow@2@PAU_object@@PBD@Z:PROC ; UI::CWindowManager::RegisterRadioButton
EXTRN	?RegisterToggleButton@CWindowManager@UI@@QAEPAVCWindow@2@PAU_object@@PBD@Z:PROC ; UI::CWindowManager::RegisterToggleButton
EXTRN	?RegisterDragButton@CWindowManager@UI@@QAEPAVCWindow@2@PAU_object@@PBD@Z:PROC ; UI::CWindowManager::RegisterDragButton
EXTRN	?RegisterBox@CWindowManager@UI@@QAEPAVCWindow@2@PAU_object@@PBD@Z:PROC ; UI::CWindowManager::RegisterBox
EXTRN	?RegisterBar@CWindowManager@UI@@QAEPAVCWindow@2@PAU_object@@PBD@Z:PROC ; UI::CWindowManager::RegisterBar
EXTRN	?RegisterLine@CWindowManager@UI@@QAEPAVCWindow@2@PAU_object@@PBD@Z:PROC ; UI::CWindowManager::RegisterLine
EXTRN	?RegisterBar3D@CWindowManager@UI@@QAEPAVCWindow@2@PAU_object@@PBD@Z:PROC ; UI::CWindowManager::RegisterBar3D
EXTRN	?RegisterNumberLine@CWindowManager@UI@@QAEPAVCWindow@2@PAU_object@@PBD@Z:PROC ; UI::CWindowManager::RegisterNumberLine
EXTRN	?DestroyWindow@CWindowManager@UI@@QAEXPAVCWindow@2@@Z:PROC ; UI::CWindowManager::DestroyWindow
EXTRN	?AttachIcon@CWindowManager@UI@@QAEXKKKEE@Z:PROC	; UI::CWindowManager::AttachIcon
EXTRN	?DeattachIcon@CWindowManager@UI@@QAEXXZ:PROC	; UI::CWindowManager::DeattachIcon
EXTRN	?SetAttachingFlag@CWindowManager@UI@@QAEXH@Z:PROC ; UI::CWindowManager::SetAttachingFlag
EXTRN	?OnceIgnoreMouseLeftButtonUpEvent@CWindowManager@UI@@QAEXXZ:PROC ; UI::CWindowManager::OnceIgnoreMouseLeftButtonUpEvent
EXTRN	?LockWindow@CWindowManager@UI@@QAEXPAVCWindow@2@@Z:PROC ; UI::CWindowManager::LockWindow
EXTRN	?UnlockWindow@CWindowManager@UI@@QAEXXZ:PROC	; UI::CWindowManager::UnlockWindow
EXTRN	?ActivateWindow@CWindowManager@UI@@QAEXPAVCWindow@2@@Z:PROC ; UI::CWindowManager::ActivateWindow
EXTRN	?DeactivateWindow@CWindowManager@UI@@QAEXXZ:PROC ; UI::CWindowManager::DeactivateWindow
EXTRN	?GetActivateWindow@CWindowManager@UI@@QAEPAVCWindow@2@XZ:PROC ; UI::CWindowManager::GetActivateWindow
EXTRN	?SetTop@CWindowManager@UI@@QAEXPAVCWindow@2@@Z:PROC ; UI::CWindowManager::SetTop
EXTRN	?IsType@CWindow@UI@@QAEHK@Z:PROC		; UI::CWindow::IsType
EXTRN	?SetName@CWindow@UI@@QAEXPBD@Z:PROC		; UI::CWindow::SetName
EXTRN	?SetSize@CWindow@UI@@QAEXJJ@Z:PROC		; UI::CWindow::SetSize
EXTRN	?SetHorizontalAlign@CWindow@UI@@QAEXK@Z:PROC	; UI::CWindow::SetHorizontalAlign
EXTRN	?SetVerticalAlign@CWindow@UI@@QAEXK@Z:PROC	; UI::CWindow::SetVerticalAlign
EXTRN	?SetPosition@CWindow@UI@@QAEXJJ@Z:PROC		; UI::CWindow::SetPosition
EXTRN	?GetPosition@CWindow@UI@@QAEXPAJ0@Z:PROC	; UI::CWindow::GetPosition
EXTRN	?GetMouseLocalPosition@CWindow@UI@@QAEXAAJ0@Z:PROC ; UI::CWindow::GetMouseLocalPosition
EXTRN	?UpdateRect@CWindow@UI@@QAEJXZ:PROC		; UI::CWindow::UpdateRect
EXTRN	?Show@CWindow@UI@@QAEXXZ:PROC			; UI::CWindow::Show
EXTRN	?Hide@CWindow@UI@@QAEXXZ:PROC			; UI::CWindow::Hide
EXTRN	?Type@CBar3D@UI@@SAKXZ:PROC			; UI::CBar3D::Type
EXTRN	?SetColor@CBar3D@UI@@QAEXKKK@Z:PROC		; UI::CBar3D::SetColor
EXTRN	?SetMax@CTextLine@UI@@QAEXH@Z:PROC		; UI::CTextLine::SetMax
EXTRN	?SetHorizontalAlign@CTextLine@UI@@QAEXH@Z:PROC	; UI::CTextLine::SetHorizontalAlign
EXTRN	?SetVerticalAlign@CTextLine@UI@@QAEXH@Z:PROC	; UI::CTextLine::SetVerticalAlign
EXTRN	?SetSecret@CTextLine@UI@@QAEXH@Z:PROC		; UI::CTextLine::SetSecret
EXTRN	?SetOutline@CTextLine@UI@@QAEXH@Z:PROC		; UI::CTextLine::SetOutline
EXTRN	?SetFeather@CTextLine@UI@@QAEXH@Z:PROC		; UI::CTextLine::SetFeather
EXTRN	?SetMultiLine@CTextLine@UI@@QAEXH@Z:PROC	; UI::CTextLine::SetMultiLine
EXTRN	?SetFontName@CTextLine@UI@@QAEXPBD@Z:PROC	; UI::CTextLine::SetFontName
EXTRN	?SetFontColor@CTextLine@UI@@QAEXK@Z:PROC	; UI::CTextLine::SetFontColor
EXTRN	?SetLimitWidth@CTextLine@UI@@QAEXM@Z:PROC	; UI::CTextLine::SetLimitWidth
EXTRN	?ShowCursor@CTextLine@UI@@QAEXXZ:PROC		; UI::CTextLine::ShowCursor
EXTRN	?HideCursor@CTextLine@UI@@QAEXXZ:PROC		; UI::CTextLine::HideCursor
EXTRN	?GetCursorPosition@CTextLine@UI@@QAEHXZ:PROC	; UI::CTextLine::GetCursorPosition
EXTRN	?SetText@CTextLine@UI@@QAEXPBD@Z:PROC		; UI::CTextLine::SetText
EXTRN	?GetText@CTextLine@UI@@QAEPBDXZ:PROC		; UI::CTextLine::GetText
EXTRN	?GetTextSize@CTextLine@UI@@QAEXPAH0@Z:PROC	; UI::CTextLine::GetTextSize
EXTRN	?SetPath@CNumberLine@UI@@QAEXPBD@Z:PROC		; UI::CNumberLine::SetPath
EXTRN	?SetHorizontalAlign@CNumberLine@UI@@QAEXH@Z:PROC ; UI::CNumberLine::SetHorizontalAlign
EXTRN	?SetNumber@CNumberLine@UI@@QAEXPBD@Z:PROC	; UI::CNumberLine::SetNumber
EXTRN	?LoadImageA@CImageBox@UI@@QAEHPBD@Z:PROC	; UI::CImageBox::LoadImageA
EXTRN	?SetDiffuseColor@CImageBox@UI@@QAEXMMMM@Z:PROC	; UI::CImageBox::SetDiffuseColor
EXTRN	?GetWidth@CImageBox@UI@@QAEHXZ:PROC		; UI::CImageBox::GetWidth
EXTRN	?GetHeight@CImageBox@UI@@QAEHXZ:PROC		; UI::CImageBox::GetHeight
EXTRN	?LoadImageA@CMarkBox@UI@@QAEXPBD@Z:PROC		; UI::CMarkBox::LoadImageA
EXTRN	?SetDiffuseColor@CMarkBox@UI@@QAEXMMMM@Z:PROC	; UI::CMarkBox::SetDiffuseColor
EXTRN	?SetIndex@CMarkBox@UI@@QAEXI@Z:PROC		; UI::CMarkBox::SetIndex
EXTRN	?SetScale@CMarkBox@UI@@QAEXM@Z:PROC		; UI::CMarkBox::SetScale
EXTRN	?Type@CExpandedImageBox@UI@@SAKXZ:PROC		; UI::CExpandedImageBox::Type
EXTRN	?SetScale@CExpandedImageBox@UI@@QAEXMM@Z:PROC	; UI::CExpandedImageBox::SetScale
EXTRN	?SetOrigin@CExpandedImageBox@UI@@QAEXMM@Z:PROC	; UI::CExpandedImageBox::SetOrigin
EXTRN	?SetRotation@CExpandedImageBox@UI@@QAEXM@Z:PROC	; UI::CExpandedImageBox::SetRotation
EXTRN	?SetRenderingRect@CExpandedImageBox@UI@@QAEXMMMM@Z:PROC ; UI::CExpandedImageBox::SetRenderingRect
EXTRN	?SetRenderingMode@CExpandedImageBox@UI@@QAEXH@Z:PROC ; UI::CExpandedImageBox::SetRenderingMode
EXTRN	?Type@CAniImageBox@UI@@SAKXZ:PROC		; UI::CAniImageBox::Type
EXTRN	?SetDelay@CAniImageBox@UI@@QAEXH@Z:PROC		; UI::CAniImageBox::SetDelay
EXTRN	?AppendImage@CAniImageBox@UI@@QAEXPBDMMMM@Z:PROC ; UI::CAniImageBox::AppendImage
EXTRN	?SetRenderingRect@CAniImageBox@UI@@QAEXMMMM@Z:PROC ; UI::CAniImageBox::SetRenderingRect
EXTRN	?SetUpVisual@CButton@UI@@QAEHPBD@Z:PROC		; UI::CButton::SetUpVisual
EXTRN	?SetOverVisual@CButton@UI@@QAEHPBD@Z:PROC	; UI::CButton::SetOverVisual
EXTRN	?SetDownVisual@CButton@UI@@QAEHPBD@Z:PROC	; UI::CButton::SetDownVisual
EXTRN	?SetDisableVisual@CButton@UI@@QAEHPBD@Z:PROC	; UI::CButton::SetDisableVisual
EXTRN	?GetUpVisualFileName@CButton@UI@@QAEPBDXZ:PROC	; UI::CButton::GetUpVisualFileName
EXTRN	?GetOverVisualFileName@CButton@UI@@QAEPBDXZ:PROC ; UI::CButton::GetOverVisualFileName
EXTRN	?GetDownVisualFileName@CButton@UI@@QAEPBDXZ:PROC ; UI::CButton::GetDownVisualFileName
EXTRN	?Flash@CButton@UI@@QAEXXZ:PROC			; UI::CButton::Flash
EXTRN	?Enable@CButton@UI@@QAEXXZ:PROC			; UI::CButton::Enable
EXTRN	?Disable@CButton@UI@@QAEXXZ:PROC		; UI::CButton::Disable
EXTRN	?SetUp@CButton@UI@@QAEXXZ:PROC			; UI::CButton::SetUp
EXTRN	?Down@CButton@UI@@QAEXXZ:PROC			; UI::CButton::Down
EXTRN	?IsPressed@CButton@UI@@QAEHXZ:PROC		; UI::CButton::IsPressed
EXTRN	?SetRestrictMovementArea@CDragButton@UI@@QAEXHHHH@Z:PROC ; UI::CDragButton::SetRestrictMovementArea
EXTRN	?Type@CSlotWindow@UI@@SAKXZ:PROC		; UI::CSlotWindow::Type
EXTRN	?SetSlotType@CSlotWindow@UI@@QAEXK@Z:PROC	; UI::CSlotWindow::SetSlotType
EXTRN	?SetSlotStyle@CSlotWindow@UI@@QAEXK@Z:PROC	; UI::CSlotWindow::SetSlotStyle
EXTRN	?AppendSlot@CSlotWindow@UI@@QAEXKHHHH@Z:PROC	; UI::CSlotWindow::AppendSlot
EXTRN	?SetCoverButton@CSlotWindow@UI@@QAEXKPBD000HH@Z:PROC ; UI::CSlotWindow::SetCoverButton
EXTRN	?SetSlotBaseImage@CSlotWindow@UI@@QAEXPBDMMMM@Z:PROC ; UI::CSlotWindow::SetSlotBaseImage
EXTRN	?AppendSlotButton@CSlotWindow@UI@@QAEXPBD00@Z:PROC ; UI::CSlotWindow::AppendSlotButton
EXTRN	?AppendRequirementSignImage@CSlotWindow@UI@@QAEXPBD@Z:PROC ; UI::CSlotWindow::AppendRequirementSignImage
EXTRN	?EnableCoverButton@CSlotWindow@UI@@QAEXK@Z:PROC	; UI::CSlotWindow::EnableCoverButton
EXTRN	?DisableCoverButton@CSlotWindow@UI@@QAEXK@Z:PROC ; UI::CSlotWindow::DisableCoverButton
EXTRN	?SetAlwaysRenderCoverButton@CSlotWindow@UI@@QAEXK_N@Z:PROC ; UI::CSlotWindow::SetAlwaysRenderCoverButton
EXTRN	?ShowSlotBaseImage@CSlotWindow@UI@@QAEXK@Z:PROC	; UI::CSlotWindow::ShowSlotBaseImage
EXTRN	?HideSlotBaseImage@CSlotWindow@UI@@QAEXK@Z:PROC	; UI::CSlotWindow::HideSlotBaseImage
EXTRN	?IsDisableCoverButton@CSlotWindow@UI@@QAEHK@Z:PROC ; UI::CSlotWindow::IsDisableCoverButton
EXTRN	?HasSlot@CSlotWindow@UI@@QAEHK@Z:PROC		; UI::CSlotWindow::HasSlot
EXTRN	?ClearAllSlot@CSlotWindow@UI@@QAEXXZ:PROC	; UI::CSlotWindow::ClearAllSlot
EXTRN	?ClearSlot@CSlotWindow@UI@@QAEXK@Z:PROC		; UI::CSlotWindow::ClearSlot
EXTRN	?SetSlot@CSlotWindow@UI@@QAEXKKEEPAVCGraphicImage@@AAUD3DXCOLOR@@@Z:PROC ; UI::CSlotWindow::SetSlot
EXTRN	?SetSlotCount@CSlotWindow@UI@@QAEXKK@Z:PROC	; UI::CSlotWindow::SetSlotCount
EXTRN	?SetSlotCountNew@CSlotWindow@UI@@QAEXKKK@Z:PROC	; UI::CSlotWindow::SetSlotCountNew
EXTRN	?SetSlotCoolTime@CSlotWindow@UI@@QAEXKMM@Z:PROC	; UI::CSlotWindow::SetSlotCoolTime
EXTRN	?ActivateSlot@CSlotWindow@UI@@QAEXK@Z:PROC	; UI::CSlotWindow::ActivateSlot
EXTRN	?DeactivateSlot@CSlotWindow@UI@@QAEXK@Z:PROC	; UI::CSlotWindow::DeactivateSlot
EXTRN	?RefreshSlot@CSlotWindow@UI@@QAEXXZ:PROC	; UI::CSlotWindow::RefreshSlot
EXTRN	?GetSlotCoolTime@CSlotWindow@UI@@QAEMKPAM@Z:PROC ; UI::CSlotWindow::GetSlotCoolTime
EXTRN	?IsActivatedSlot@CSlotWindow@UI@@QAE_NK@Z:PROC	; UI::CSlotWindow::IsActivatedSlot
EXTRN	?GetSlotCount@CSlotWindow@UI@@QAEKXZ:PROC	; UI::CSlotWindow::GetSlotCount
EXTRN	?LockSlot@CSlotWindow@UI@@QAEXK@Z:PROC		; UI::CSlotWindow::LockSlot
EXTRN	?UnlockSlot@CSlotWindow@UI@@QAEXK@Z:PROC	; UI::CSlotWindow::UnlockSlot
EXTRN	?EnableSlot@CSlotWindow@UI@@QAEXK@Z:PROC	; UI::CSlotWindow::EnableSlot
EXTRN	?DisableSlot@CSlotWindow@UI@@QAEXK@Z:PROC	; UI::CSlotWindow::DisableSlot
EXTRN	?ClearSelected@CSlotWindow@UI@@QAEXXZ:PROC	; UI::CSlotWindow::ClearSelected
EXTRN	?SelectSlot@CSlotWindow@UI@@QAEXK@Z:PROC	; UI::CSlotWindow::SelectSlot
EXTRN	?isSelectedSlot@CSlotWindow@UI@@QAEHK@Z:PROC	; UI::CSlotWindow::isSelectedSlot
EXTRN	?GetSelectedSlotCount@CSlotWindow@UI@@QAEKXZ:PROC ; UI::CSlotWindow::GetSelectedSlotCount
EXTRN	?GetSelectedSlotNumber@CSlotWindow@UI@@QAEKK@Z:PROC ; UI::CSlotWindow::GetSelectedSlotNumber
EXTRN	?ShowSlotButton@CSlotWindow@UI@@QAEXK@Z:PROC	; UI::CSlotWindow::ShowSlotButton
EXTRN	?HideAllSlotButton@CSlotWindow@UI@@QAEXXZ:PROC	; UI::CSlotWindow::HideAllSlotButton
EXTRN	?ShowRequirementSign@CSlotWindow@UI@@QAEXK@Z:PROC ; UI::CSlotWindow::ShowRequirementSign
EXTRN	?HideRequirementSign@CSlotWindow@UI@@QAEXK@Z:PROC ; UI::CSlotWindow::HideRequirementSign
EXTRN	?SetUseMode@CSlotWindow@UI@@QAEXH@Z:PROC	; UI::CSlotWindow::SetUseMode
EXTRN	?SetUsableItem@CSlotWindow@UI@@QAEXH@Z:PROC	; UI::CSlotWindow::SetUsableItem
EXTRN	?ActivateEffect@CSlotWindow@UI@@QAEXKMMMM@Z:PROC ; UI::CSlotWindow::ActivateEffect
EXTRN	?DeactivateEffect@CSlotWindow@UI@@QAEXK@Z:PROC	; UI::CSlotWindow::DeactivateEffect
EXTRN	?Type@CGridSlotWindow@UI@@SAKXZ:PROC		; UI::CGridSlotWindow::Type
EXTRN	?ArrangeGridSlot@CGridSlotWindow@UI@@QAEXKKKHHHH@Z:PROC ; UI::CGridSlotWindow::ArrangeGridSlot
EXTRN	@__security_check_cookie@4:PROC
EXTRN	?g_bOutlineBoxEnable@@3HA:DWORD			; g_bOutlineBoxEnable
EXTRN	?g_bShowOverInWindowName@@3HA:DWORD		; g_bShowOverInWindowName
EXTRN	___security_cookie:DWORD
EXTRN	__fltused:DWORD
;	COMDAT ?ms_singleton@?$CSingleton@VCWindowManager@UI@@@@0PAVCWindowManager@UI@@A
_BSS	SEGMENT
?ms_singleton@?$CSingleton@VCWindowManager@UI@@@@0PAVCWindowManager@UI@@A DD 01H DUP (?) ; CSingleton<UI::CWindowManager>::ms_singleton
_BSS	ENDS
;	COMDAT __xmm@3f8000003f8000003f8000003f800000
CONST	SEGMENT
__xmm@3f8000003f8000003f8000003f800000 DB 00H, 00H, 080H, '?', 00H, 00H, 080H
	DB	'?', 00H, 00H, 080H, '?', 00H, 00H, 080H, '?'
CONST	ENDS
;	COMDAT __real@437f0000
CONST	SEGMENT
__real@437f0000 DD 0437f0000r			; 255
CONST	ENDS
;	COMDAT ??_C@_0BI@BNOJCJOH@RENDERING_MODE_MODULATE@
CONST	SEGMENT
??_C@_0BI@BNOJCJOH@RENDERING_MODE_MODULATE@ DB 'RENDERING_MODE_MODULATE', 00H ; `string'
CONST	ENDS
;	COMDAT ??_C@_0BG@CBGLOKGH@VERTICAL_ALIGN_BOTTOM@
CONST	SEGMENT
??_C@_0BG@CBGLOKGH@VERTICAL_ALIGN_BOTTOM@ DB 'VERTICAL_ALIGN_BOTTOM', 00H ; `string'
CONST	ENDS
;	COMDAT ??_C@_0BG@MMBKMGNO@VERTICAL_ALIGN_CENTER@
CONST	SEGMENT
??_C@_0BG@MMBKMGNO@VERTICAL_ALIGN_CENTER@ DB 'VERTICAL_ALIGN_CENTER', 00H ; `string'
CONST	ENDS
;	COMDAT ??_C@_0BD@PBJDAEOI@VERTICAL_ALIGN_TOP@
CONST	SEGMENT
??_C@_0BD@PBJDAEOI@VERTICAL_ALIGN_TOP@ DB 'VERTICAL_ALIGN_TOP', 00H ; `string'
CONST	ENDS
;	COMDAT ??_C@_0BH@KFBGEAIA@HORIZONTAL_ALIGN_RIGHT@
CONST	SEGMENT
??_C@_0BH@KFBGEAIA@HORIZONTAL_ALIGN_RIGHT@ DB 'HORIZONTAL_ALIGN_RIGHT', 00H ; `string'
CONST	ENDS
;	COMDAT ??_C@_0BI@NJMALOKG@HORIZONTAL_ALIGN_CENTER@
CONST	SEGMENT
??_C@_0BI@NJMALOKG@HORIZONTAL_ALIGN_CENTER@ DB 'HORIZONTAL_ALIGN_CENTER', 00H ; `string'
CONST	ENDS
;	COMDAT ??_C@_0BG@CEANPPL@HORIZONTAL_ALIGN_LEFT@
CONST	SEGMENT
??_C@_0BG@CEANPPL@HORIZONTAL_ALIGN_LEFT@ DB 'HORIZONTAL_ALIGN_LEFT', 00H ; `string'
CONST	ENDS
;	COMDAT ??_C@_0BL@GHLEGJOB@TEXT_VERTICAL_ALIGN_CENTER@
CONST	SEGMENT
??_C@_0BL@GHLEGJOB@TEXT_VERTICAL_ALIGN_CENTER@ DB 'TEXT_VERTICAL_ALIGN_CE'
	DB	'NTER', 00H					; `string'
CONST	ENDS
;	COMDAT ??_C@_0BL@IKMFEFFI@TEXT_VERTICAL_ALIGN_BOTTOM@
CONST	SEGMENT
??_C@_0BL@IKMFEFFI@TEXT_VERTICAL_ALIGN_BOTTOM@ DB 'TEXT_VERTICAL_ALIGN_BO'
	DB	'TTOM', 00H					; `string'
CONST	ENDS
;	COMDAT ??_C@_0BI@PIKJCBDF@TEXT_VERTICAL_ALIGN_TOP@
CONST	SEGMENT
??_C@_0BI@PIKJCBDF@TEXT_VERTICAL_ALIGN_TOP@ DB 'TEXT_VERTICAL_ALIGN_TOP', 00H ; `string'
CONST	ENDS
;	COMDAT ??_C@_0BN@MHHHIBEN@TEXT_HORIZONTAL_ALIGN_CENTER@
CONST	SEGMENT
??_C@_0BN@MHHHIBEN@TEXT_HORIZONTAL_ALIGN_CENTER@ DB 'TEXT_HORIZONTAL_ALIG'
	DB	'N_CENTER', 00H				; `string'
CONST	ENDS
;	COMDAT ??_C@_0BM@BDNLMDBC@TEXT_HORIZONTAL_ALIGN_RIGHT@
CONST	SEGMENT
??_C@_0BM@BDNLMDBC@TEXT_HORIZONTAL_ALIGN_RIGHT@ DB 'TEXT_HORIZONTAL_ALIGN'
	DB	'_RIGHT', 00H				; `string'
CONST	ENDS
;	COMDAT ??_C@_0BL@KJOOHAME@TEXT_HORIZONTAL_ALIGN_LEFT@
CONST	SEGMENT
??_C@_0BL@KJOOHAME@TEXT_HORIZONTAL_ALIGN_LEFT@ DB 'TEXT_HORIZONTAL_ALIGN_'
	DB	'LEFT', 00H					; `string'
CONST	ENDS
;	COMDAT ??_C@_0BC@DPNNOEON@SLOT_STYLE_SELECT@
CONST	SEGMENT
??_C@_0BC@DPNNOEON@SLOT_STYLE_SELECT@ DB 'SLOT_STYLE_SELECT', 00H ; `string'
CONST	ENDS
;	COMDAT ??_C@_0BD@HIHLPNEG@SLOT_STYLE_PICK_UP@
CONST	SEGMENT
??_C@_0BD@HIHLPNEG@SLOT_STYLE_PICK_UP@ DB 'SLOT_STYLE_PICK_UP', 00H ; `string'
CONST	ENDS
;	COMDAT ??_C@_0BA@CEBPCJJF@SLOT_STYLE_NONE@
CONST	SEGMENT
??_C@_0BA@CEBPCJJF@SLOT_STYLE_NONE@ DB 'SLOT_STYLE_NONE', 00H ; `string'
CONST	ENDS
;	COMDAT ??_C@_06CMPPDHLC@wndMgr@
CONST	SEGMENT
??_C@_06CMPPDHLC@wndMgr@ DB 'wndMgr', 00H		; `string'
CONST	ENDS
;	COMDAT ??_C@_0BB@FBKJFJKM@DeactivateEffect@
CONST	SEGMENT
??_C@_0BB@FBKJFJKM@DeactivateEffect@ DB 'DeactivateEffect', 00H ; `string'
CONST	ENDS
;	COMDAT ??_C@_0P@KKAGIHMC@ActivateEffect@
CONST	SEGMENT
??_C@_0P@KKAGIHMC@ActivateEffect@ DB 'ActivateEffect', 00H ; `string'
CONST	ENDS
;	COMDAT ??_C@_0BA@NIALCINC@GetSlotCoolTime@
CONST	SEGMENT
??_C@_0BA@NIALCINC@GetSlotCoolTime@ DB 'GetSlotCoolTime', 00H ; `string'
CONST	ENDS
;	COMDAT ??_C@_0BA@EABPFCGJ@IsActivatedSlot@
CONST	SEGMENT
??_C@_0BA@EABPFCGJ@IsActivatedSlot@ DB 'IsActivatedSlot', 00H ; `string'
CONST	ENDS
;	COMDAT ??_C@_0BF@LFOINEDC@ShowOverInWindowName@
CONST	SEGMENT
??_C@_0BF@LFOINEDC@ShowOverInWindowName@ DB 'ShowOverInWindowName', 00H ; `string'
CONST	ENDS
;	COMDAT ??_C@_0P@MEHCKPID@SetOutlineFlag@
CONST	SEGMENT
??_C@_0P@MEHCKPID@SetOutlineFlag@ DB 'SetOutlineFlag', 00H ; `string'
CONST	ENDS
;	COMDAT ??_C@_0BI@KNEJFEOH@SetRestrictMovementArea@
CONST	SEGMENT
??_C@_0BI@KNEJFEOH@SetRestrictMovementArea@ DB 'SetRestrictMovementArea', 00H ; `string'
CONST	ENDS
;	COMDAT ??_C@_06FKEAEOGE@IsDown@
CONST	SEGMENT
??_C@_06FKEAEOGE@IsDown@ DB 'IsDown', 00H		; `string'
CONST	ENDS
;	COMDAT ??_C@_05DEOAHOFO@SetUp@
CONST	SEGMENT
??_C@_05DEOAHOFO@SetUp@ DB 'SetUp', 00H			; `string'
CONST	ENDS
;	COMDAT ??_C@_04FNCLCJMC@Down@
CONST	SEGMENT
??_C@_04FNCLCJMC@Down@ DB 'Down', 00H			; `string'
CONST	ENDS
;	COMDAT ??_C@_07MIKIFGAL@Disable@
CONST	SEGMENT
??_C@_07MIKIFGAL@Disable@ DB 'Disable', 00H		; `string'
CONST	ENDS
;	COMDAT ??_C@_06CKGENIKG@Enable@
CONST	SEGMENT
??_C@_06CKGENIKG@Enable@ DB 'Enable', 00H		; `string'
CONST	ENDS
;	COMDAT ??_C@_05LDPHIKKB@Flash@
CONST	SEGMENT
??_C@_05LDPHIKKB@Flash@ DB 'Flash', 00H			; `string'
CONST	ENDS
;	COMDAT ??_C@_0BG@FKDEILKI@GetDownVisualFileName@
CONST	SEGMENT
??_C@_0BG@FKDEILKI@GetDownVisualFileName@ DB 'GetDownVisualFileName', 00H ; `string'
CONST	ENDS
;	COMDAT ??_C@_0BG@KEALLAJN@GetOverVisualFileName@
CONST	SEGMENT
??_C@_0BG@KEALLAJN@GetOverVisualFileName@ DB 'GetOverVisualFileName', 00H ; `string'
CONST	ENDS
;	COMDAT ??_C@_0BE@PHOOFGJI@GetUpVisualFileName@
CONST	SEGMENT
??_C@_0BE@PHOOFGJI@GetUpVisualFileName@ DB 'GetUpVisualFileName', 00H ; `string'
CONST	ENDS
;	COMDAT ??_C@_0BB@JCGDBIB@SetDisableVisual@
CONST	SEGMENT
??_C@_0BB@JCGDBIB@SetDisableVisual@ DB 'SetDisableVisual', 00H ; `string'
CONST	ENDS
;	COMDAT ??_C@_0O@FLFAFPKP@SetDownVisual@
CONST	SEGMENT
??_C@_0O@FLFAFPKP@SetDownVisual@ DB 'SetDownVisual', 00H ; `string'
CONST	ENDS
;	COMDAT ??_C@_0O@KOIDMFK@SetOverVisual@
CONST	SEGMENT
??_C@_0O@KOIDMFK@SetOverVisual@ DB 'SetOverVisual', 00H	; `string'
CONST	ENDS
;	COMDAT ??_C@_0M@IIELPGEP@SetUpVisual@
CONST	SEGMENT
??_C@_0M@IIELPGEP@SetUpVisual@ DB 'SetUpVisual', 00H	; `string'
CONST	ENDS
;	COMDAT ??_C@_0M@BEJGDBIJ@AppendImage@
CONST	SEGMENT
??_C@_0M@BEJGDBIJ@AppendImage@ DB 'AppendImage', 00H	; `string'
CONST	ENDS
;	COMDAT ??_C@_08NBAGFHFB@SetDelay@
CONST	SEGMENT
??_C@_08NBAGFHFB@SetDelay@ DB 'SetDelay', 00H		; `string'
CONST	ENDS
;	COMDAT ??_C@_0BB@GIEHGKNO@SetRenderingMode@
CONST	SEGMENT
??_C@_0BB@GIEHGKNO@SetRenderingMode@ DB 'SetRenderingMode', 00H ; `string'
CONST	ENDS
;	COMDAT ??_C@_0BB@LDNMLPHM@SetRenderingRect@
CONST	SEGMENT
??_C@_0BB@LDNMLPHM@SetRenderingRect@ DB 'SetRenderingRect', 00H ; `string'
CONST	ENDS
;	COMDAT ??_C@_0M@GNIHGJGG@SetRotation@
CONST	SEGMENT
??_C@_0M@GNIHGJGG@SetRotation@ DB 'SetRotation', 00H	; `string'
CONST	ENDS
;	COMDAT ??_C@_09KLKDEBJ@SetOrigin@
CONST	SEGMENT
??_C@_09KLKDEBJ@SetOrigin@ DB 'SetOrigin', 00H		; `string'
CONST	ENDS
;	COMDAT ??_C@_08FMFAIGAB@SetScale@
CONST	SEGMENT
??_C@_08FMFAIGAB@SetScale@ DB 'SetScale', 00H		; `string'
CONST	ENDS
;	COMDAT ??_C@_09EOGEIJMK@GetHeight@
CONST	SEGMENT
??_C@_09EOGEIJMK@GetHeight@ DB 'GetHeight', 00H		; `string'
CONST	ENDS
;	COMDAT ??_C@_08OMBILDHM@GetWidth@
CONST	SEGMENT
??_C@_08OMBILDHM@GetWidth@ DB 'GetWidth', 00H		; `string'
CONST	ENDS
;	COMDAT ??_C@_0BA@CAEBLOMF@SetDiffuseColor@
CONST	SEGMENT
??_C@_0BA@CAEBLOMF@SetDiffuseColor@ DB 'SetDiffuseColor', 00H ; `string'
CONST	ENDS
;	COMDAT ??_C@_09OHOMMMHI@LoadImage@
CONST	SEGMENT
??_C@_09OHOMMMHI@LoadImage@ DB 'LoadImage', 00H		; `string'
CONST	ENDS
;	COMDAT ??_C@_0BI@JCKPADLG@MarkBox_SetDiffuseColor@
CONST	SEGMENT
??_C@_0BI@JCKPADLG@MarkBox_SetDiffuseColor@ DB 'MarkBox_SetDiffuseColor', 00H ; `string'
CONST	ENDS
;	COMDAT ??_C@_0BB@ENLBNPPB@MarkBox_SetScale@
CONST	SEGMENT
??_C@_0BB@ENLBNPPB@MarkBox_SetScale@ DB 'MarkBox_SetScale', 00H ; `string'
CONST	ENDS
;	COMDAT ??_C@_0BB@NAAPJNBM@MarkBox_SetIndex@
CONST	SEGMENT
??_C@_0BB@NAAPJNBM@MarkBox_SetIndex@ DB 'MarkBox_SetIndex', 00H ; `string'
CONST	ENDS
;	COMDAT ??_C@_0N@FLKGJMCL@MarkBox_Load@
CONST	SEGMENT
??_C@_0N@FLKGJMCL@MarkBox_Load@ DB 'MarkBox_Load', 00H	; `string'
CONST	ENDS
;	COMDAT ??_C@_0BJ@PJODLBON@MarkBox_SetImageFilename@
CONST	SEGMENT
??_C@_0BJ@PJODLBON@MarkBox_SetImageFilename@ DB 'MarkBox_SetImageFilename'
	DB	00H						; `string'
CONST	ENDS
;	COMDAT ??_C@_0BB@FMJJKPIM@MarkBox_SetImage@
CONST	SEGMENT
??_C@_0BB@FMJJKPIM@MarkBox_SetImage@ DB 'MarkBox_SetImage', 00H ; `string'
CONST	ENDS
;	COMDAT ??_C@_07ENBMIGKI@SetPath@
CONST	SEGMENT
??_C@_07ENBMIGKI@SetPath@ DB 'SetPath', 00H		; `string'
CONST	ENDS
;	COMDAT ??_C@_0BO@FBBAAHKK@SetNumberHorizontalAlignRight@
CONST	SEGMENT
??_C@_0BO@FBBAAHKK@SetNumberHorizontalAlignRight@ DB 'SetNumberHorizontal'
	DB	'AlignRight', 00H				; `string'
CONST	ENDS
;	COMDAT ??_C@_0BP@JHALFFJF@SetNumberHorizontalAlignCenter@
CONST	SEGMENT
??_C@_0BP@JHALFFJF@SetNumberHorizontalAlignCenter@ DB 'SetNumberHorizonta'
	DB	'lAlignCenter', 00H				; `string'
CONST	ENDS
;	COMDAT ??_C@_09JMPLPNNO@SetNumber@
CONST	SEGMENT
??_C@_09JMPLPNNO@SetNumber@ DB 'SetNumber', 00H		; `string'
CONST	ENDS
;	COMDAT ??_C@_0BC@DJJGDMOB@GetCursorPosition@
CONST	SEGMENT
??_C@_0BC@DJJGDMOB@GetCursorPosition@ DB 'GetCursorPosition', 00H ; `string'
CONST	ENDS
;	COMDAT ??_C@_0L@MGJDDPFG@HideCursor@
CONST	SEGMENT
??_C@_0L@MGJDDPFG@HideCursor@ DB 'HideCursor', 00H	; `string'
CONST	ENDS
;	COMDAT ??_C@_0L@BIENLPGM@ShowCursor@
CONST	SEGMENT
??_C@_0L@BIENLPGM@ShowCursor@ DB 'ShowCursor', 00H	; `string'
CONST	ENDS
;	COMDAT ??_C@_0M@JOAAGILP@GetTextSize@
CONST	SEGMENT
??_C@_0M@JOAAGILP@GetTextSize@ DB 'GetTextSize', 00H	; `string'
CONST	ENDS
;	COMDAT ??_C@_07CAGCCMNH@GetText@
CONST	SEGMENT
??_C@_07CAGCCMNH@GetText@ DB 'GetText', 00H		; `string'
CONST	ENDS
;	COMDAT ??_C@_0O@FIAFKHF@SetLimitWidth@
CONST	SEGMENT
??_C@_0O@FIAFKHF@SetLimitWidth@ DB 'SetLimitWidth', 00H	; `string'
CONST	ENDS
;	COMDAT ??_C@_0N@MKCFOAAE@SetFontColor@
CONST	SEGMENT
??_C@_0N@MKCFOAAE@SetFontColor@ DB 'SetFontColor', 00H	; `string'
CONST	ENDS
;	COMDAT ??_C@_0M@MCELKPNO@SetFontName@
CONST	SEGMENT
??_C@_0M@MCELKPNO@SetFontName@ DB 'SetFontName', 00H	; `string'
CONST	ENDS
;	COMDAT ??_C@_07NIJDBDAG@SetText@
CONST	SEGMENT
??_C@_07NIJDBDAG@SetText@ DB 'SetText', 00H		; `string'
CONST	ENDS
;	COMDAT ??_C@_0N@FKMHLJHG@SetMultiLine@
CONST	SEGMENT
??_C@_0N@FKMHLJHG@SetMultiLine@ DB 'SetMultiLine', 00H	; `string'
CONST	ENDS
;	COMDAT ??_C@_0L@LLKEFHFA@SetFeather@
CONST	SEGMENT
??_C@_0L@LLKEFHFA@SetFeather@ DB 'SetFeather', 00H	; `string'
CONST	ENDS
;	COMDAT ??_C@_0L@HBNEJDMM@SetOutline@
CONST	SEGMENT
??_C@_0L@HBNEJDMM@SetOutline@ DB 'SetOutline', 00H	; `string'
CONST	ENDS
;	COMDAT ??_C@_09CAFHEMDD@SetSecret@
CONST	SEGMENT
??_C@_09CAFHEMDD@SetSecret@ DB 'SetSecret', 00H		; `string'
CONST	ENDS
;	COMDAT ??_C@_0BB@NKHPOFIC@SetVerticalAlign@
CONST	SEGMENT
??_C@_0BB@NKHPOFIC@SetVerticalAlign@ DB 'SetVerticalAlign', 00H ; `string'
CONST	ENDS
;	COMDAT ??_C@_0BD@FCLDCEMA@SetHorizontalAlign@
CONST	SEGMENT
??_C@_0BD@FCLDCEMA@SetHorizontalAlign@ DB 'SetHorizontalAlign', 00H ; `string'
CONST	ENDS
;	COMDAT ??_C@_06ODEINJEE@SetMax@
CONST	SEGMENT
??_C@_06ODEINJEE@SetMax@ DB 'SetMax', 00H		; `string'
CONST	ENDS
;	COMDAT ??_C@_08GPNJILIJ@SetColor@
CONST	SEGMENT
??_C@_08GPNJILIJ@SetColor@ DB 'SetColor', 00H		; `string'
CONST	ENDS
;	COMDAT ??_C@_0L@DPNFKPLP@UnlockSlot@
CONST	SEGMENT
??_C@_0L@DPNFKPLP@UnlockSlot@ DB 'UnlockSlot', 00H	; `string'
CONST	ENDS
;	COMDAT ??_C@_08PGGNMNPL@LockSlot@
CONST	SEGMENT
??_C@_08PGGNMNPL@LockSlot@ DB 'LockSlot', 00H		; `string'
CONST	ENDS
;	COMDAT ??_C@_0N@PALCIPBL@GetSlotCount@
CONST	SEGMENT
??_C@_0N@PALCIPBL@GetSlotCount@ DB 'GetSlotCount', 00H	; `string'
CONST	ENDS
;	COMDAT ??_C@_0P@GKJOEMLC@IsSelectedSlot@
CONST	SEGMENT
??_C@_0P@GKJOEMLC@IsSelectedSlot@ DB 'IsSelectedSlot', 00H ; `string'
CONST	ENDS
;	COMDAT ??_C@_0BG@DJKADEKA@GetSelectedSlotNumber@
CONST	SEGMENT
??_C@_0BG@DJKADEKA@GetSelectedSlotNumber@ DB 'GetSelectedSlotNumber', 00H ; `string'
CONST	ENDS
;	COMDAT ??_C@_0BF@EECMELAK@GetSelectedSlotCount@
CONST	SEGMENT
??_C@_0BF@EECMELAK@GetSelectedSlotCount@ DB 'GetSelectedSlotCount', 00H ; `string'
CONST	ENDS
;	COMDAT ??_C@_0O@OGHLMGNI@ClearSelected@
CONST	SEGMENT
??_C@_0O@OGHLMGNI@ClearSelected@ DB 'ClearSelected', 00H ; `string'
CONST	ENDS
;	COMDAT ??_C@_0L@EMMADCIN@SelectSlot@
CONST	SEGMENT
??_C@_0L@EMMADCIN@SelectSlot@ DB 'SelectSlot', 00H	; `string'
CONST	ENDS
;	COMDAT ??_C@_0O@LHCBGPMO@SetUsableItem@
CONST	SEGMENT
??_C@_0O@LHCBGPMO@SetUsableItem@ DB 'SetUsableItem', 00H ; `string'
CONST	ENDS
;	COMDAT ??_C@_0L@ODKIIGJF@SetUseMode@
CONST	SEGMENT
??_C@_0L@ODKIIGJF@SetUseMode@ DB 'SetUseMode', 00H	; `string'
CONST	ENDS
;	COMDAT ??_C@_0M@NAPCHMAM@RefreshSlot@
CONST	SEGMENT
??_C@_0M@NAPCHMAM@RefreshSlot@ DB 'RefreshSlot', 00H	; `string'
CONST	ENDS
;	COMDAT ??_C@_0BE@LNAIGOOK@HideRequirementSign@
CONST	SEGMENT
??_C@_0BE@LNAIGOOK@HideRequirementSign@ DB 'HideRequirementSign', 00H ; `string'
CONST	ENDS
;	COMDAT ??_C@_0BE@IGOEKEDL@ShowRequirementSign@
CONST	SEGMENT
??_C@_0BE@IGOEKEDL@ShowRequirementSign@ DB 'ShowRequirementSign', 00H ; `string'
CONST	ENDS
;	COMDAT ??_C@_0BC@IHMDJONI@HideAllSlotButton@
CONST	SEGMENT
??_C@_0BC@IHMDJONI@HideAllSlotButton@ DB 'HideAllSlotButton', 00H ; `string'
CONST	ENDS
;	COMDAT ??_C@_0P@CINLEJEK@ShowSlotButton@
CONST	SEGMENT
??_C@_0P@CINLEJEK@ShowSlotButton@ DB 'ShowSlotButton', 00H ; `string'
CONST	ENDS
;	COMDAT ??_C@_0BL@CCGBCIBD@AppendRequirementSignImage@
CONST	SEGMENT
??_C@_0BL@CCGBCIBD@AppendRequirementSignImage@ DB 'AppendRequirementSignI'
	DB	'mage', 00H					; `string'
CONST	ENDS
;	COMDAT ??_C@_0BB@LLDDGEIL@AppendSlotButton@
CONST	SEGMENT
??_C@_0BB@LLDDGEIL@AppendSlotButton@ DB 'AppendSlotButton', 00H ; `string'
CONST	ENDS
;	COMDAT ??_C@_0BL@PAFAGEGB@SetAlwaysRenderCoverButton@
CONST	SEGMENT
??_C@_0BL@PAFAGEGB@SetAlwaysRenderCoverButton@ DB 'SetAlwaysRenderCoverBu'
	DB	'tton', 00H					; `string'
CONST	ENDS
;	COMDAT ??_C@_0BF@ILDMDDMH@IsDisableCoverButton@
CONST	SEGMENT
??_C@_0BF@ILDMDDMH@IsDisableCoverButton@ DB 'IsDisableCoverButton', 00H ; `string'
CONST	ENDS
;	COMDAT ??_C@_0BD@DOJCOOMI@DisableCoverButton@
CONST	SEGMENT
??_C@_0BD@DOJCOOMI@DisableCoverButton@ DB 'DisableCoverButton', 00H ; `string'
CONST	ENDS
;	COMDAT ??_C@_0BC@GDLBPCHF@EnableCoverButton@
CONST	SEGMENT
??_C@_0BC@GDLBPCHF@EnableCoverButton@ DB 'EnableCoverButton', 00H ; `string'
CONST	ENDS
;	COMDAT ??_C@_0P@JKHNGGPA@SetCoverButton@
CONST	SEGMENT
??_C@_0P@JKHNGGPA@SetCoverButton@ DB 'SetCoverButton', 00H ; `string'
CONST	ENDS
;	COMDAT ??_C@_0BB@IOMAJEMI@SetSlotBaseImage@
CONST	SEGMENT
??_C@_0BB@IOMAJEMI@SetSlotBaseImage@ DB 'SetSlotBaseImage', 00H ; `string'
CONST	ENDS
;	COMDAT ??_C@_0N@IKGBKPJJ@SetSlotStyle@
CONST	SEGMENT
??_C@_0N@IKGBKPJJ@SetSlotStyle@ DB 'SetSlotStyle', 00H	; `string'
CONST	ENDS
;	COMDAT ??_C@_0M@KHOHGEMH@SetSlotType@
CONST	SEGMENT
??_C@_0M@KHOHGEMH@SetSlotType@ DB 'SetSlotType', 00H	; `string'
CONST	ENDS
;	COMDAT ??_C@_0BC@NFMHNFLM@HideSlotBaseImage@
CONST	SEGMENT
??_C@_0BC@NFMHNFLM@HideSlotBaseImage@ DB 'HideSlotBaseImage', 00H ; `string'
CONST	ENDS
;	COMDAT ??_C@_0BC@DHCKDEOK@ShowSlotBaseImage@
CONST	SEGMENT
??_C@_0BC@DHCKDEOK@ShowSlotBaseImage@ DB 'ShowSlotBaseImage', 00H ; `string'
CONST	ENDS
;	COMDAT ??_C@_0M@EKMKGECP@DisableSlot@
CONST	SEGMENT
??_C@_0M@EKMKGECP@DisableSlot@ DB 'DisableSlot', 00H	; `string'
CONST	ENDS
;	COMDAT ??_C@_0L@DHCLIIGL@EnableSlot@
CONST	SEGMENT
??_C@_0L@DHCLIIGL@EnableSlot@ DB 'EnableSlot', 00H	; `string'
CONST	ENDS
;	COMDAT ??_C@_0P@FGAIANEO@DeactivateSlot@
CONST	SEGMENT
??_C@_0P@FGAIANEO@DeactivateSlot@ DB 'DeactivateSlot', 00H ; `string'
CONST	ENDS
;	COMDAT ??_C@_0N@HFCIPMIE@ActivateSlot@
CONST	SEGMENT
??_C@_0N@HFCIPMIE@ActivateSlot@ DB 'ActivateSlot', 00H	; `string'
CONST	ENDS
;	COMDAT ??_C@_0O@FJKNHKBL@SetToggleSlot@
CONST	SEGMENT
??_C@_0O@FJKNHKBL@SetToggleSlot@ DB 'SetToggleSlot', 00H ; `string'
CONST	ENDS
;	COMDAT ??_C@_0BA@OKBNFKML@SetSlotCoolTime@
CONST	SEGMENT
??_C@_0BA@OKBNFKML@SetSlotCoolTime@ DB 'SetSlotCoolTime', 00H ; `string'
CONST	ENDS
;	COMDAT ??_C@_0BA@OOLIKBKI@SetSlotCountNew@
CONST	SEGMENT
??_C@_0BA@OOLIKBKI@SetSlotCountNew@ DB 'SetSlotCountNew', 00H ; `string'
CONST	ENDS
;	COMDAT ??_C@_0N@IEAMEDFH@SetSlotCount@
CONST	SEGMENT
??_C@_0N@IEAMEDFH@SetSlotCount@ DB 'SetSlotCount', 00H	; `string'
CONST	ENDS
;	COMDAT ??_C@_07ONCDFGJ@SetSlot@
CONST	SEGMENT
??_C@_07ONCDFGJ@SetSlot@ DB 'SetSlot', 00H		; `string'
CONST	ENDS
;	COMDAT ??_C@_07MGEJAMLP@HasSlot@
CONST	SEGMENT
??_C@_07MGEJAMLP@HasSlot@ DB 'HasSlot', 00H		; `string'
CONST	ENDS
;	COMDAT ??_C@_0N@MMOLDNHK@ClearAllSlot@
CONST	SEGMENT
??_C@_0N@MMOLDNHK@ClearAllSlot@ DB 'ClearAllSlot', 00H	; `string'
CONST	ENDS
;	COMDAT ??_C@_09CGBENBJB@ClearSlot@
CONST	SEGMENT
??_C@_09CGBENBJB@ClearSlot@ DB 'ClearSlot', 00H		; `string'
CONST	ENDS
;	COMDAT ??_C@_0M@OFNEHKDL@ArrangeSlot@
CONST	SEGMENT
??_C@_0M@OFNEHKDL@ArrangeSlot@ DB 'ArrangeSlot', 00H	; `string'
CONST	ENDS
;	COMDAT ??_C@_0L@FDCINHBF@AppendSlot@
CONST	SEGMENT
??_C@_0L@FDCINHBF@AppendSlot@ DB 'AppendSlot', 00H	; `string'
CONST	ENDS
;	COMDAT ??_C@_0L@HJOBPCKA@UpdateRect@
CONST	SEGMENT
??_C@_0L@HJOBPCKA@UpdateRect@ DB 'UpdateRect', 00H	; `string'
CONST	ENDS
;	COMDAT ??_C@_0N@CCOOMDHD@SetLimitBias@
CONST	SEGMENT
??_C@_0N@CCOOMDHD@SetLimitBias@ DB 'SetLimitBias', 00H	; `string'
CONST	ENDS
;	COMDAT ??_C@_0L@HEPBODCJ@IsDragging@
CONST	SEGMENT
??_C@_0L@HEPBODCJ@IsDragging@ DB 'IsDragging', 00H	; `string'
CONST	ENDS
;	COMDAT ??_C@_0BB@MMLACOLH@GetMousePosition@
CONST	SEGMENT
??_C@_0BB@MMLACOLH@GetMousePosition@ DB 'GetMousePosition', 00H ; `string'
CONST	ENDS
;	COMDAT ??_C@_0BG@NHBHOLBI@GetMouseLocalPosition@
CONST	SEGMENT
??_C@_0BG@NHBHOLBI@GetMouseLocalPosition@ DB 'GetMouseLocalPosition', 00H ; `string'
CONST	ENDS
;	COMDAT ??_C@_04JBIBMNMO@IsIn@
CONST	SEGMENT
??_C@_04JBIBMNMO@IsIn@ DB 'IsIn', 00H			; `string'
CONST	ENDS
;	COMDAT ??_C@_0P@GEIEEBJH@IsPickedWindow@
CONST	SEGMENT
??_C@_0P@GEIEEBJH@IsPickedWindow@ DB 'IsPickedWindow', 00H ; `string'
CONST	ENDS
;	COMDAT ??_C@_0O@HMBCELHA@GetChildCount@
CONST	SEGMENT
??_C@_0O@HMBCELHA@GetChildCount@ DB 'GetChildCount', 00H ; `string'
CONST	ENDS
;	COMDAT ??_C@_0BH@KDPMNJIB@SetWindowVerticalAlign@
CONST	SEGMENT
??_C@_0BH@KDPMNJIB@SetWindowVerticalAlign@ DB 'SetWindowVerticalAlign', 00H ; `string'
CONST	ENDS
;	COMDAT ??_C@_0BJ@FGPBHCAH@SetWindowHorizontalAlign@
CONST	SEGMENT
??_C@_0BJ@FGPBHCAH@SetWindowHorizontalAlign@ DB 'SetWindowHorizontalAlign'
	DB	00H						; `string'
CONST	ENDS
;	COMDAT ??_C@_0O@KGOHEIMB@GetWindowRect@
CONST	SEGMENT
??_C@_0O@KGOHEIMB@GetWindowRect@ DB 'GetWindowRect', 00H ; `string'
CONST	ENDS
;	COMDAT ??_C@_0BI@NOJPNPDO@GetWindowGlobalPosition@
CONST	SEGMENT
??_C@_0BI@NOJPNPDO@GetWindowGlobalPosition@ DB 'GetWindowGlobalPosition', 00H ; `string'
CONST	ENDS
;	COMDAT ??_C@_0BH@KEOBHEHD@GetWindowLocalPosition@
CONST	SEGMENT
??_C@_0BH@KEOBHEHD@GetWindowLocalPosition@ DB 'GetWindowLocalPosition', 00H ; `string'
CONST	ENDS
;	COMDAT ??_C@_0BA@GMMDIMHA@GetWindowHeight@
CONST	SEGMENT
??_C@_0BA@GMMDIMHA@GetWindowHeight@ DB 'GetWindowHeight', 00H ; `string'
CONST	ENDS
;	COMDAT ??_C@_0P@EJALLAMK@GetWindowWidth@
CONST	SEGMENT
??_C@_0P@EJALLAMK@GetWindowWidth@ DB 'GetWindowWidth', 00H ; `string'
CONST	ENDS
;	COMDAT ??_C@_0BC@CONADAIE@SetWindowPosition@
CONST	SEGMENT
??_C@_0BC@CONADAIE@SetWindowPosition@ DB 'SetWindowPosition', 00H ; `string'
CONST	ENDS
;	COMDAT ??_C@_0O@OOGBNGFB@SetWindowSize@
CONST	SEGMENT
??_C@_0O@OOGBNGFB@SetWindowSize@ DB 'SetWindowSize', 00H ; `string'
CONST	ENDS
;	COMDAT ??_C@_06NCJPDCLH@Unlock@
CONST	SEGMENT
??_C@_06NCJPDCLH@Unlock@ DB 'Unlock', 00H		; `string'
CONST	ENDS
;	COMDAT ??_C@_04LADJNOK@Lock@
CONST	SEGMENT
??_C@_04LADJNOK@Lock@ DB 'Lock', 00H			; `string'
CONST	ENDS
;	COMDAT ??_C@_09PMGFBOMK@KillFocus@
CONST	SEGMENT
??_C@_09PMGFBOMK@KillFocus@ DB 'KillFocus', 00H		; `string'
CONST	ENDS
;	COMDAT ??_C@_08GPNNBNIL@SetFocus@
CONST	SEGMENT
??_C@_08GPNNBNIL@SetFocus@ DB 'SetFocus', 00H		; `string'
CONST	ENDS
;	COMDAT ??_C@_07MMFHOCGI@IsFocus@
CONST	SEGMENT
??_C@_07MMFHOCGI@IsFocus@ DB 'IsFocus', 00H		; `string'
CONST	ENDS
;	COMDAT ??_C@_0O@PGINCMBF@SetPickAlways@
CONST	SEGMENT
??_C@_0O@PGINCMBF@SetPickAlways@ DB 'SetPickAlways', 00H ; `string'
CONST	ENDS
;	COMDAT ??_C@_09BGDFCKEN@SetParent@
CONST	SEGMENT
??_C@_09BGDFCKEN@SetParent@ DB 'SetParent', 00H		; `string'
CONST	ENDS
;	COMDAT ??_C@_06JMGCGGJP@IsShow@
CONST	SEGMENT
??_C@_06JMGCGGJP@IsShow@ DB 'IsShow', 00H		; `string'
CONST	ENDS
;	COMDAT ??_C@_04EACEFPPN@Hide@
CONST	SEGMENT
??_C@_04EACEFPPN@Hide@ DB 'Hide', 00H			; `string'
CONST	ENDS
;	COMDAT ??_C@_04JLAJABDJ@Show@
CONST	SEGMENT
??_C@_04JLAJABDJ@Show@ DB 'Show', 00H			; `string'
CONST	ENDS
;	COMDAT ??_C@_06MBOGGFD@SetTop@
CONST	SEGMENT
??_C@_06MBOGGFD@SetTop@ DB 'SetTop', 00H		; `string'
CONST	ENDS
;	COMDAT ??_C@_07MMGEHGCI@GetName@
CONST	SEGMENT
??_C@_07MMGEHGCI@GetName@ DB 'GetName', 00H		; `string'
CONST	ENDS
;	COMDAT ??_C@_07DEJFEJPJ@SetName@
CONST	SEGMENT
??_C@_07DEJFEJPJ@SetName@ DB 'SetName', 00H		; `string'
CONST	ENDS
;	COMDAT ??_C@_0O@BCLGMDMJ@SetScrollable@
CONST	SEGMENT
??_C@_0O@BCLGMDMJ@SetScrollable@ DB 'SetScrollable', 00H ; `string'
CONST	ENDS
;	COMDAT ??_C@_05IOGFNOKL@IsRTL@
CONST	SEGMENT
??_C@_05IOGFNOKL@IsRTL@ DB 'IsRTL', 00H			; `string'
CONST	ENDS
;	COMDAT ??_C@_07FGJMHOHK@AddFlag@
CONST	SEGMENT
??_C@_07FGJMHOHK@AddFlag@ DB 'AddFlag', 00H		; `string'
CONST	ENDS
;	COMDAT ??_C@_07BDCAJABG@Destroy@
CONST	SEGMENT
??_C@_07BDCAJABG@Destroy@ DB 'Destroy', 00H		; `string'
CONST	ENDS
;	COMDAT ??_C@_0BD@DBAMBKME@RegisterNumberLine@
CONST	SEGMENT
??_C@_0BD@DBAMBKME@RegisterNumberLine@ DB 'RegisterNumberLine', 00H ; `string'
CONST	ENDS
;	COMDAT ??_C@_0O@EKKPECKF@RegisterBar3D@
CONST	SEGMENT
??_C@_0O@EKKPECKF@RegisterBar3D@ DB 'RegisterBar3D', 00H ; `string'
CONST	ENDS
;	COMDAT ??_C@_0N@ICAPFHKF@RegisterLine@
CONST	SEGMENT
??_C@_0N@ICAPFHKF@RegisterLine@ DB 'RegisterLine', 00H	; `string'
CONST	ENDS
;	COMDAT ??_C@_0M@DCMAIKFH@RegisterBar@
CONST	SEGMENT
??_C@_0M@DCMAIKFH@RegisterBar@ DB 'RegisterBar', 00H	; `string'
CONST	ENDS
;	COMDAT ??_C@_0M@MCLBEPNH@RegisterBox@
CONST	SEGMENT
??_C@_0M@MCLBEPNH@RegisterBox@ DB 'RegisterBox', 00H	; `string'
CONST	ENDS
;	COMDAT ??_C@_0BD@FJKAFMBK@RegisterDragButton@
CONST	SEGMENT
??_C@_0BD@FJKAFMBK@RegisterDragButton@ DB 'RegisterDragButton', 00H ; `string'
CONST	ENDS
;	COMDAT ??_C@_0BF@LKPDMOKE@RegisterToggleButton@
CONST	SEGMENT
??_C@_0BF@LKPDMOKE@RegisterToggleButton@ DB 'RegisterToggleButton', 00H ; `string'
CONST	ENDS
;	COMDAT ??_C@_0BE@LOKOGAFI@RegisterRadioButton@
CONST	SEGMENT
??_C@_0BE@LOKOGAFI@RegisterRadioButton@ DB 'RegisterRadioButton', 00H ; `string'
CONST	ENDS
;	COMDAT ??_C@_0P@HIFEMCKE@RegisterButton@
CONST	SEGMENT
??_C@_0P@HIFEMCKE@RegisterButton@ DB 'RegisterButton', 00H ; `string'
CONST	ENDS
;	COMDAT ??_C@_0BE@EHOJIJPF@RegisterAniImageBox@
CONST	SEGMENT
??_C@_0BE@EHOJIJPF@RegisterAniImageBox@ DB 'RegisterAniImageBox', 00H ; `string'
CONST	ENDS
;	COMDAT ??_C@_0BJ@HCLPCLBM@RegisterExpandedImageBox@
CONST	SEGMENT
??_C@_0BJ@HCLPCLBM@RegisterExpandedImageBox@ DB 'RegisterExpandedImageBox'
	DB	00H						; `string'
CONST	ENDS
;	COMDAT ??_C@_0BB@CGJHKCPO@RegisterImageBox@
CONST	SEGMENT
??_C@_0BB@CGJHKCPO@RegisterImageBox@ DB 'RegisterImageBox', 00H ; `string'
CONST	ENDS
;	COMDAT ??_C@_0BA@BLOHJECG@RegisterMarkBox@
CONST	SEGMENT
??_C@_0BA@BLOHJECG@RegisterMarkBox@ DB 'RegisterMarkBox', 00H ; `string'
CONST	ENDS
;	COMDAT ??_C@_0BB@JKLFNGCE@RegisterTextLine@
CONST	SEGMENT
??_C@_0BB@JKLFNGCE@RegisterTextLine@ DB 'RegisterTextLine', 00H ; `string'
CONST	ENDS
;	COMDAT ??_C@_0BH@HHDOCCCO@RegisterGridSlotWindow@
CONST	SEGMENT
??_C@_0BH@HHDOCCCO@RegisterGridSlotWindow@ DB 'RegisterGridSlotWindow', 00H ; `string'
CONST	ENDS
;	COMDAT ??_C@_0BD@HNEHNBHO@RegisterSlotWindow@
CONST	SEGMENT
??_C@_0BD@HNEHNBHO@RegisterSlotWindow@ DB 'RegisterSlotWindow', 00H ; `string'
CONST	ENDS
;	COMDAT ??_C@_08LFIJLPOM@Register@
CONST	SEGMENT
??_C@_08LFIJLPOM@Register@ DB 'Register', 00H		; `string'
CONST	ENDS
;	COMDAT ??_C@_0CB@JDNFNFMG@OnceIgnoreMouseLeftButtonUpEven@
CONST	SEGMENT
??_C@_0CB@JDNFNFMG@OnceIgnoreMouseLeftButtonUpEven@ DB 'OnceIgnoreMouseLe'
	DB	'ftButtonUpEvent', 00H			; `string'
CONST	ENDS
;	COMDAT ??_C@_0N@PCIKAOKG@GetHyperlink@
CONST	SEGMENT
??_C@_0N@PCIKAOKG@GetHyperlink@ DB 'GetHyperlink', 00H	; `string'
CONST	ENDS
;	COMDAT ??_C@_09MFNPPPAG@GetAspect@
CONST	SEGMENT
??_C@_09MFNPPPAG@GetAspect@ DB 'GetAspect', 00H		; `string'
CONST	ENDS
;	COMDAT ??_C@_0BB@OJBFCDNH@SetAttachingFlag@
CONST	SEGMENT
??_C@_0BB@OJBFCDNH@SetAttachingFlag@ DB 'SetAttachingFlag', 00H ; `string'
CONST	ENDS
;	COMDAT ??_C@_0N@HIMEHEBA@DeattachIcon@
CONST	SEGMENT
??_C@_0N@HIMEHEBA@DeattachIcon@ DB 'DeattachIcon', 00H	; `string'
CONST	ENDS
;	COMDAT ??_C@_0L@FHGOOMIM@AttachIcon@
CONST	SEGMENT
??_C@_0L@FHGOOMIM@AttachIcon@ DB 'AttachIcon', 00H	; `string'
CONST	ENDS
;	COMDAT ??_C@_0BA@PLLJJDCL@GetScreenHeight@
CONST	SEGMENT
??_C@_0BA@PLLJJDCL@GetScreenHeight@ DB 'GetScreenHeight', 00H ; `string'
CONST	ENDS
;	COMDAT ??_C@_0P@OBMNGDMB@GetScreenWidth@
CONST	SEGMENT
??_C@_0P@OBMNGDMB@GetScreenWidth@ DB 'GetScreenWidth', 00H ; `string'
CONST	ENDS
;	COMDAT ??_C@_0O@EPGNIIPM@SetScreenSize@
CONST	SEGMENT
??_C@_0O@EPGNIIPM@SetScreenSize@ DB 'SetScreenSize', 00H ; `string'
CONST	ENDS
;	COMDAT ??_C@_0BA@PPCHHCMN@SetMouseHandler@
CONST	SEGMENT
??_C@_0BA@PPCHHCMN@SetMouseHandler@ DB 'SetMouseHandler', 00H ; `string'
CONST	ENDS
;	COMDAT ?s_methods@?1??initwndMgr@@YAXXZ@4PAUPyMethodDef@@A
_DATA	SEGMENT
?s_methods@?1??initwndMgr@@YAXXZ@4PAUPyMethodDef@@A DD FLAT:??_C@_0BA@PPCHHCMN@SetMouseHandler@ ; `initwndMgr'::`2'::s_methods
	DD	FLAT:?wndMgrSetMouseHandler@@YAPAU_object@@PAU1@0@Z
	DD	01H
	ORG $+4
	DD	FLAT:??_C@_0O@EPGNIIPM@SetScreenSize@
	DD	FLAT:?wndMgrSetScreenSize@@YAPAU_object@@PAU1@0@Z
	DD	01H
	ORG $+4
	DD	FLAT:??_C@_0P@OBMNGDMB@GetScreenWidth@
	DD	FLAT:?wndMgrGetScreenWidth@@YAPAU_object@@PAU1@0@Z
	DD	01H
	ORG $+4
	DD	FLAT:??_C@_0BA@PLLJJDCL@GetScreenHeight@
	DD	FLAT:?wndMgrGetScreenHeight@@YAPAU_object@@PAU1@0@Z
	DD	01H
	ORG $+4
	DD	FLAT:??_C@_0L@FHGOOMIM@AttachIcon@
	DD	FLAT:?wndMgrAttachIcon@@YAPAU_object@@PAU1@0@Z
	DD	01H
	ORG $+4
	DD	FLAT:??_C@_0N@HIMEHEBA@DeattachIcon@
	DD	FLAT:?wndMgrDeattachIcon@@YAPAU_object@@PAU1@0@Z
	DD	01H
	ORG $+4
	DD	FLAT:??_C@_0BB@OJBFCDNH@SetAttachingFlag@
	DD	FLAT:?wndMgrSetAttachingFlag@@YAPAU_object@@PAU1@0@Z
	DD	01H
	ORG $+4
	DD	FLAT:??_C@_09MFNPPPAG@GetAspect@
	DD	FLAT:?wndMgrGetAspect@@YAPAU_object@@PAU1@0@Z
	DD	01H
	ORG $+4
	DD	FLAT:??_C@_0N@PCIKAOKG@GetHyperlink@
	DD	FLAT:?wndMgrGetHyperlink@@YAPAU_object@@PAU1@0@Z
	DD	01H
	ORG $+4
	DD	FLAT:??_C@_0CB@JDNFNFMG@OnceIgnoreMouseLeftButtonUpEven@
	DD	FLAT:?wndMgrOnceIgnoreMouseLeftButtonUpEvent@@YAPAU_object@@PAU1@0@Z
	DD	01H
	ORG $+4
	DD	FLAT:??_C@_08LFIJLPOM@Register@
	DD	FLAT:?wndMgrRegister@@YAPAU_object@@PAU1@0@Z
	DD	01H
	ORG $+4
	DD	FLAT:??_C@_0BD@HNEHNBHO@RegisterSlotWindow@
	DD	FLAT:?wndMgrRegisterSlotWindow@@YAPAU_object@@PAU1@0@Z
	DD	01H
	ORG $+4
	DD	FLAT:??_C@_0BH@HHDOCCCO@RegisterGridSlotWindow@
	DD	FLAT:?wndMgrRegisterGridSlotWindow@@YAPAU_object@@PAU1@0@Z
	DD	01H
	ORG $+4
	DD	FLAT:??_C@_0BB@JKLFNGCE@RegisterTextLine@
	DD	FLAT:?wndMgrRegisterTextLine@@YAPAU_object@@PAU1@0@Z
	DD	01H
	ORG $+4
	DD	FLAT:??_C@_0BA@BLOHJECG@RegisterMarkBox@
	DD	FLAT:?wndMgrRegisterMarkBox@@YAPAU_object@@PAU1@0@Z
	DD	01H
	ORG $+4
	DD	FLAT:??_C@_0BB@CGJHKCPO@RegisterImageBox@
	DD	FLAT:?wndMgrRegisterImageBox@@YAPAU_object@@PAU1@0@Z
	DD	01H
	ORG $+4
	DD	FLAT:??_C@_0BJ@HCLPCLBM@RegisterExpandedImageBox@
	DD	FLAT:?wndMgrRegisterExpandedImageBox@@YAPAU_object@@PAU1@0@Z
	DD	01H
	ORG $+4
	DD	FLAT:??_C@_0BE@EHOJIJPF@RegisterAniImageBox@
	DD	FLAT:?wndMgrRegisterAniImageBox@@YAPAU_object@@PAU1@0@Z
	DD	01H
	ORG $+4
	DD	FLAT:??_C@_0P@HIFEMCKE@RegisterButton@
	DD	FLAT:?wndMgrRegisterButton@@YAPAU_object@@PAU1@0@Z
	DD	01H
	ORG $+4
	DD	FLAT:??_C@_0BE@LOKOGAFI@RegisterRadioButton@
	DD	FLAT:?wndMgrRegisterRadioButton@@YAPAU_object@@PAU1@0@Z
	DD	01H
	ORG $+4
	DD	FLAT:??_C@_0BF@LKPDMOKE@RegisterToggleButton@
	DD	FLAT:?wndMgrRegisterToggleButton@@YAPAU_object@@PAU1@0@Z
	DD	01H
	ORG $+4
	DD	FLAT:??_C@_0BD@FJKAFMBK@RegisterDragButton@
	DD	FLAT:?wndMgrRegisterDragButton@@YAPAU_object@@PAU1@0@Z
	DD	01H
	ORG $+4
	DD	FLAT:??_C@_0M@MCLBEPNH@RegisterBox@
	DD	FLAT:?wndMgrRegisterBox@@YAPAU_object@@PAU1@0@Z
	DD	01H
	ORG $+4
	DD	FLAT:??_C@_0M@DCMAIKFH@RegisterBar@
	DD	FLAT:?wndMgrRegisterBar@@YAPAU_object@@PAU1@0@Z
	DD	01H
	ORG $+4
	DD	FLAT:??_C@_0N@ICAPFHKF@RegisterLine@
	DD	FLAT:?wndMgrRegisterLine@@YAPAU_object@@PAU1@0@Z
	DD	01H
	ORG $+4
	DD	FLAT:??_C@_0O@EKKPECKF@RegisterBar3D@
	DD	FLAT:?wndMgrRegisterBar3D@@YAPAU_object@@PAU1@0@Z
	DD	01H
	ORG $+4
	DD	FLAT:??_C@_0BD@DBAMBKME@RegisterNumberLine@
	DD	FLAT:?wndMgrRegisterNumberLine@@YAPAU_object@@PAU1@0@Z
	DD	01H
	ORG $+4
	DD	FLAT:??_C@_07BDCAJABG@Destroy@
	DD	FLAT:?wndMgrDestroy@@YAPAU_object@@PAU1@0@Z
	DD	01H
	ORG $+4
	DD	FLAT:??_C@_07FGJMHOHK@AddFlag@
	DD	FLAT:?wndMgrAddFlag@@YAPAU_object@@PAU1@0@Z
	DD	01H
	ORG $+4
	DD	FLAT:??_C@_05IOGFNOKL@IsRTL@
	DD	FLAT:?wndMgrIsRTL@@YAPAU_object@@PAU1@0@Z
	DD	01H
	ORG $+4
	DD	FLAT:??_C@_0O@BCLGMDMJ@SetScrollable@
	DD	FLAT:?wndMgrSetScrollable@@YAPAU_object@@PAU1@0@Z
	DD	01H
	ORG $+4
	DD	FLAT:??_C@_07DEJFEJPJ@SetName@
	DD	FLAT:?wndMgrSetName@@YAPAU_object@@PAU1@0@Z
	DD	01H
	ORG $+4
	DD	FLAT:??_C@_07MMGEHGCI@GetName@
	DD	FLAT:?wndMgrGetName@@YAPAU_object@@PAU1@0@Z
	DD	01H
	ORG $+4
	DD	FLAT:??_C@_06MBOGGFD@SetTop@
	DD	FLAT:?wndMgrSetTop@@YAPAU_object@@PAU1@0@Z
	DD	01H
	ORG $+4
	DD	FLAT:??_C@_04JLAJABDJ@Show@
	DD	FLAT:?wndMgrShow@@YAPAU_object@@PAU1@0@Z
	DD	01H
	ORG $+4
	DD	FLAT:??_C@_04EACEFPPN@Hide@
	DD	FLAT:?wndMgrHide@@YAPAU_object@@PAU1@0@Z
	DD	01H
	ORG $+4
	DD	FLAT:??_C@_06JMGCGGJP@IsShow@
	DD	FLAT:?wndMgrIsShow@@YAPAU_object@@PAU1@0@Z
	DD	01H
	ORG $+4
	DD	FLAT:??_C@_09BGDFCKEN@SetParent@
	DD	FLAT:?wndMgrSetParent@@YAPAU_object@@PAU1@0@Z
	DD	01H
	ORG $+4
	DD	FLAT:??_C@_0O@PGINCMBF@SetPickAlways@
	DD	FLAT:?wndMgrSetPickAlways@@YAPAU_object@@PAU1@0@Z
	DD	01H
	ORG $+4
	DD	FLAT:??_C@_07MMFHOCGI@IsFocus@
	DD	FLAT:?wndMgrIsFocus@@YAPAU_object@@PAU1@0@Z
	DD	01H
	ORG $+4
	DD	FLAT:??_C@_08GPNNBNIL@SetFocus@
	DD	FLAT:?wndMgrSetFocus@@YAPAU_object@@PAU1@0@Z
	DD	01H
	ORG $+4
	DD	FLAT:??_C@_09PMGFBOMK@KillFocus@
	DD	FLAT:?wndMgrKillFocus@@YAPAU_object@@PAU1@0@Z
	DD	01H
	ORG $+4
	DD	FLAT:??_C@_04LADJNOK@Lock@
	DD	FLAT:?wndMgrLock@@YAPAU_object@@PAU1@0@Z
	DD	01H
	ORG $+4
	DD	FLAT:??_C@_06NCJPDCLH@Unlock@
	DD	FLAT:?wndMgrUnlock@@YAPAU_object@@PAU1@0@Z
	DD	01H
	ORG $+4
	DD	FLAT:??_C@_0O@OOGBNGFB@SetWindowSize@
	DD	FLAT:?wndMgrSetWndSize@@YAPAU_object@@PAU1@0@Z
	DD	01H
	ORG $+4
	DD	FLAT:??_C@_0BC@CONADAIE@SetWindowPosition@
	DD	FLAT:?wndMgrSetWndPosition@@YAPAU_object@@PAU1@0@Z
	DD	01H
	ORG $+4
	DD	FLAT:??_C@_0P@EJALLAMK@GetWindowWidth@
	DD	FLAT:?wndMgrGetWndWidth@@YAPAU_object@@PAU1@0@Z
	DD	01H
	ORG $+4
	DD	FLAT:??_C@_0BA@GMMDIMHA@GetWindowHeight@
	DD	FLAT:?wndMgrGetWndHeight@@YAPAU_object@@PAU1@0@Z
	DD	01H
	ORG $+4
	DD	FLAT:??_C@_0BH@KEOBHEHD@GetWindowLocalPosition@
	DD	FLAT:?wndMgrGetWndLocalPosition@@YAPAU_object@@PAU1@0@Z
	DD	01H
	ORG $+4
	DD	FLAT:??_C@_0BI@NOJPNPDO@GetWindowGlobalPosition@
	DD	FLAT:?wndMgrGetWndGlobalPosition@@YAPAU_object@@PAU1@0@Z
	DD	01H
	ORG $+4
	DD	FLAT:??_C@_0O@KGOHEIMB@GetWindowRect@
	DD	FLAT:?wndMgrGetWindowRect@@YAPAU_object@@PAU1@0@Z
	DD	01H
	ORG $+4
	DD	FLAT:??_C@_0BJ@FGPBHCAH@SetWindowHorizontalAlign@
	DD	FLAT:?wndMgrSetWindowHorizontalAlign@@YAPAU_object@@PAU1@0@Z
	DD	01H
	ORG $+4
	DD	FLAT:??_C@_0BH@KDPMNJIB@SetWindowVerticalAlign@
	DD	FLAT:?wndMgrSetWindowVerticalAlign@@YAPAU_object@@PAU1@0@Z
	DD	01H
	ORG $+4
	DD	FLAT:??_C@_0O@HMBCELHA@GetChildCount@
	DD	FLAT:?wndMgrGetChildCount@@YAPAU_object@@PAU1@0@Z
	DD	01H
	ORG $+4
	DD	FLAT:??_C@_0P@GEIEEBJH@IsPickedWindow@
	DD	FLAT:?wndMgrIsPickedWindow@@YAPAU_object@@PAU1@0@Z
	DD	01H
	ORG $+4
	DD	FLAT:??_C@_04JBIBMNMO@IsIn@
	DD	FLAT:?wndMgrIsIn@@YAPAU_object@@PAU1@0@Z
	DD	01H
	ORG $+4
	DD	FLAT:??_C@_0BG@NHBHOLBI@GetMouseLocalPosition@
	DD	FLAT:?wndMgrGetMouseLocalPosition@@YAPAU_object@@PAU1@0@Z
	DD	01H
	ORG $+4
	DD	FLAT:??_C@_0BB@MMLACOLH@GetMousePosition@
	DD	FLAT:?wndMgrGetMousePosition@@YAPAU_object@@PAU1@0@Z
	DD	01H
	ORG $+4
	DD	FLAT:??_C@_0L@HEPBODCJ@IsDragging@
	DD	FLAT:?wndMgrIsDragging@@YAPAU_object@@PAU1@0@Z
	DD	01H
	ORG $+4
	DD	FLAT:??_C@_0N@CCOOMDHD@SetLimitBias@
	DD	FLAT:?wndMgrSetLimitBias@@YAPAU_object@@PAU1@0@Z
	DD	01H
	ORG $+4
	DD	FLAT:??_C@_0L@HJOBPCKA@UpdateRect@
	DD	FLAT:?wndMgrUpdateRect@@YAPAU_object@@PAU1@0@Z
	DD	01H
	ORG $+4
	DD	FLAT:??_C@_0L@FDCINHBF@AppendSlot@
	DD	FLAT:?wndMgrAppendSlot@@YAPAU_object@@PAU1@0@Z
	DD	01H
	ORG $+4
	DD	FLAT:??_C@_0M@OFNEHKDL@ArrangeSlot@
	DD	FLAT:?wndMgrArrangeSlot@@YAPAU_object@@PAU1@0@Z
	DD	01H
	ORG $+4
	DD	FLAT:??_C@_09CGBENBJB@ClearSlot@
	DD	FLAT:?wndMgrClearSlot@@YAPAU_object@@PAU1@0@Z
	DD	01H
	ORG $+4
	DD	FLAT:??_C@_0N@MMOLDNHK@ClearAllSlot@
	DD	FLAT:?wndMgrClearAllSlot@@YAPAU_object@@PAU1@0@Z
	DD	01H
	ORG $+4
	DD	FLAT:??_C@_07MGEJAMLP@HasSlot@
	DD	FLAT:?wndMgrHasSlot@@YAPAU_object@@PAU1@0@Z
	DD	01H
	ORG $+4
	DD	FLAT:??_C@_07ONCDFGJ@SetSlot@
	DD	FLAT:?wndMgrSetSlot@@YAPAU_object@@PAU1@0@Z
	DD	01H
	ORG $+4
	DD	FLAT:??_C@_0N@IEAMEDFH@SetSlotCount@
	DD	FLAT:?wndMgrSetSlotCount@@YAPAU_object@@PAU1@0@Z
	DD	01H
	ORG $+4
	DD	FLAT:??_C@_0BA@OOLIKBKI@SetSlotCountNew@
	DD	FLAT:?wndMgrSetSlotCountNew@@YAPAU_object@@PAU1@0@Z
	DD	01H
	ORG $+4
	DD	FLAT:??_C@_0BA@OKBNFKML@SetSlotCoolTime@
	DD	FLAT:?wndMgrSetSlotCoolTime@@YAPAU_object@@PAU1@0@Z
	DD	01H
	ORG $+4
	DD	FLAT:??_C@_0O@FJKNHKBL@SetToggleSlot@
	DD	FLAT:?wndMgrSetToggleSlot@@YAPAU_object@@PAU1@0@Z
	DD	01H
	ORG $+4
	DD	FLAT:??_C@_0N@HFCIPMIE@ActivateSlot@
	DD	FLAT:?wndMgrActivateSlot@@YAPAU_object@@PAU1@0@Z
	DD	01H
	ORG $+4
	DD	FLAT:??_C@_0P@FGAIANEO@DeactivateSlot@
	DD	FLAT:?wndMgrDeactivateSlot@@YAPAU_object@@PAU1@0@Z
	DD	01H
	ORG $+4
	DD	FLAT:??_C@_0L@DHCLIIGL@EnableSlot@
	DD	FLAT:?wndMgrEnableSlot@@YAPAU_object@@PAU1@0@Z
	DD	01H
	ORG $+4
	DD	FLAT:??_C@_0M@EKMKGECP@DisableSlot@
	DD	FLAT:?wndMgrDisableSlot@@YAPAU_object@@PAU1@0@Z
	DD	01H
	ORG $+4
	DD	FLAT:??_C@_0BC@DHCKDEOK@ShowSlotBaseImage@
	DD	FLAT:?wndMgrShowSlotBaseImage@@YAPAU_object@@PAU1@0@Z
	DD	01H
	ORG $+4
	DD	FLAT:??_C@_0BC@NFMHNFLM@HideSlotBaseImage@
	DD	FLAT:?wndMgrHideSlotBaseImage@@YAPAU_object@@PAU1@0@Z
	DD	01H
	ORG $+4
	DD	FLAT:??_C@_0M@KHOHGEMH@SetSlotType@
	DD	FLAT:?wndMgrSetSlotType@@YAPAU_object@@PAU1@0@Z
	DD	01H
	ORG $+4
	DD	FLAT:??_C@_0N@IKGBKPJJ@SetSlotStyle@
	DD	FLAT:?wndMgrSetSlotStyle@@YAPAU_object@@PAU1@0@Z
	DD	01H
	ORG $+4
	DD	FLAT:??_C@_0BB@IOMAJEMI@SetSlotBaseImage@
	DD	FLAT:?wndMgrSetSlotBaseImage@@YAPAU_object@@PAU1@0@Z
	DD	01H
	ORG $+4
	DD	FLAT:??_C@_0P@JKHNGGPA@SetCoverButton@
	DD	FLAT:?wndMgrSetCoverButton@@YAPAU_object@@PAU1@0@Z
	DD	01H
	ORG $+4
	DD	FLAT:??_C@_0BC@GDLBPCHF@EnableCoverButton@
	DD	FLAT:?wndMgrEnableCoverButton@@YAPAU_object@@PAU1@0@Z
	DD	01H
	ORG $+4
	DD	FLAT:??_C@_0BD@DOJCOOMI@DisableCoverButton@
	DD	FLAT:?wndMgrDisableCoverButton@@YAPAU_object@@PAU1@0@Z
	DD	01H
	ORG $+4
	DD	FLAT:??_C@_0BF@ILDMDDMH@IsDisableCoverButton@
	DD	FLAT:?wndMgrIsDisableCoverButton@@YAPAU_object@@PAU1@0@Z
	DD	01H
	ORG $+4
	DD	FLAT:??_C@_0BL@PAFAGEGB@SetAlwaysRenderCoverButton@
	DD	FLAT:?wndMgrSetAlwaysRenderCoverButton@@YAPAU_object@@PAU1@0@Z
	DD	01H
	ORG $+4
	DD	FLAT:??_C@_0BB@LLDDGEIL@AppendSlotButton@
	DD	FLAT:?wndMgrAppendSlotButton@@YAPAU_object@@PAU1@0@Z
	DD	01H
	ORG $+4
	DD	FLAT:??_C@_0BL@CCGBCIBD@AppendRequirementSignImage@
	DD	FLAT:?wndMgrAppendRequirementSignImage@@YAPAU_object@@PAU1@0@Z
	DD	01H
	ORG $+4
	DD	FLAT:??_C@_0P@CINLEJEK@ShowSlotButton@
	DD	FLAT:?wndMgrShowSlotButton@@YAPAU_object@@PAU1@0@Z
	DD	01H
	ORG $+4
	DD	FLAT:??_C@_0BC@IHMDJONI@HideAllSlotButton@
	DD	FLAT:?wndMgrHideAllSlotButton@@YAPAU_object@@PAU1@0@Z
	DD	01H
	ORG $+4
	DD	FLAT:??_C@_0BE@IGOEKEDL@ShowRequirementSign@
	DD	FLAT:?wndMgrShowRequirementSign@@YAPAU_object@@PAU1@0@Z
	DD	01H
	ORG $+4
	DD	FLAT:??_C@_0BE@LNAIGOOK@HideRequirementSign@
	DD	FLAT:?wndMgrHideRequirementSign@@YAPAU_object@@PAU1@0@Z
	DD	01H
	ORG $+4
	DD	FLAT:??_C@_0M@NAPCHMAM@RefreshSlot@
	DD	FLAT:?wndMgrRefreshSlot@@YAPAU_object@@PAU1@0@Z
	DD	01H
	ORG $+4
	DD	FLAT:??_C@_0L@ODKIIGJF@SetUseMode@
	DD	FLAT:?wndMgrSetUseMode@@YAPAU_object@@PAU1@0@Z
	DD	01H
	ORG $+4
	DD	FLAT:??_C@_0O@LHCBGPMO@SetUsableItem@
	DD	FLAT:?wndMgrSetUsableItem@@YAPAU_object@@PAU1@0@Z
	DD	01H
	ORG $+4
	DD	FLAT:??_C@_0L@EMMADCIN@SelectSlot@
	DD	FLAT:?wndMgrSelectSlot@@YAPAU_object@@PAU1@0@Z
	DD	01H
	ORG $+4
	DD	FLAT:??_C@_0O@OGHLMGNI@ClearSelected@
	DD	FLAT:?wndMgrClearSelected@@YAPAU_object@@PAU1@0@Z
	DD	01H
	ORG $+4
	DD	FLAT:??_C@_0BF@EECMELAK@GetSelectedSlotCount@
	DD	FLAT:?wndMgrGetSelectedSlotCount@@YAPAU_object@@PAU1@0@Z
	DD	01H
	ORG $+4
	DD	FLAT:??_C@_0BG@DJKADEKA@GetSelectedSlotNumber@
	DD	FLAT:?wndMgrGetSelectedSlotNumber@@YAPAU_object@@PAU1@0@Z
	DD	01H
	ORG $+4
	DD	FLAT:??_C@_0P@GKJOEMLC@IsSelectedSlot@
	DD	FLAT:?wndMgrIsSelectedSlot@@YAPAU_object@@PAU1@0@Z
	DD	01H
	ORG $+4
	DD	FLAT:??_C@_0N@PALCIPBL@GetSlotCount@
	DD	FLAT:?wndMgrGetSlotCount@@YAPAU_object@@PAU1@0@Z
	DD	01H
	ORG $+4
	DD	FLAT:??_C@_08PGGNMNPL@LockSlot@
	DD	FLAT:?wndMgrLockSlot@@YAPAU_object@@PAU1@0@Z
	DD	01H
	ORG $+4
	DD	FLAT:??_C@_0L@DPNFKPLP@UnlockSlot@
	DD	FLAT:?wndMgrUnlockSlot@@YAPAU_object@@PAU1@0@Z
	DD	01H
	ORG $+4
	DD	FLAT:??_C@_08GPNJILIJ@SetColor@
	DD	FLAT:?wndBarSetColor@@YAPAU_object@@PAU1@0@Z
	DD	01H
	ORG $+4
	DD	FLAT:??_C@_06ODEINJEE@SetMax@
	DD	FLAT:?wndTextSetMax@@YAPAU_object@@PAU1@0@Z
	DD	01H
	ORG $+4
	DD	FLAT:??_C@_0BD@FCLDCEMA@SetHorizontalAlign@
	DD	FLAT:?wndTextSetHorizontalAlign@@YAPAU_object@@PAU1@0@Z
	DD	01H
	ORG $+4
	DD	FLAT:??_C@_0BB@NKHPOFIC@SetVerticalAlign@
	DD	FLAT:?wndTextSetVerticalAlign@@YAPAU_object@@PAU1@0@Z
	DD	01H
	ORG $+4
	DD	FLAT:??_C@_09CAFHEMDD@SetSecret@
	DD	FLAT:?wndTextSetSecret@@YAPAU_object@@PAU1@0@Z
	DD	01H
	ORG $+4
	DD	FLAT:??_C@_0L@HBNEJDMM@SetOutline@
	DD	FLAT:?wndTextSetOutline@@YAPAU_object@@PAU1@0@Z
	DD	01H
	ORG $+4
	DD	FLAT:??_C@_0L@LLKEFHFA@SetFeather@
	DD	FLAT:?wndTextSetFeather@@YAPAU_object@@PAU1@0@Z
	DD	01H
	ORG $+4
	DD	FLAT:??_C@_0N@FKMHLJHG@SetMultiLine@
	DD	FLAT:?wndTextSetMultiLine@@YAPAU_object@@PAU1@0@Z
	DD	01H
	ORG $+4
	DD	FLAT:??_C@_07NIJDBDAG@SetText@
	DD	FLAT:?wndTextSetText@@YAPAU_object@@PAU1@0@Z
	DD	01H
	ORG $+4
	DD	FLAT:??_C@_0M@MCELKPNO@SetFontName@
	DD	FLAT:?wndTextSetFontName@@YAPAU_object@@PAU1@0@Z
	DD	01H
	ORG $+4
	DD	FLAT:??_C@_0N@MKCFOAAE@SetFontColor@
	DD	FLAT:?wndTextSetFontColor@@YAPAU_object@@PAU1@0@Z
	DD	01H
	ORG $+4
	DD	FLAT:??_C@_0O@FIAFKHF@SetLimitWidth@
	DD	FLAT:?wndTextSetLimitWidth@@YAPAU_object@@PAU1@0@Z
	DD	01H
	ORG $+4
	DD	FLAT:??_C@_07CAGCCMNH@GetText@
	DD	FLAT:?wndTextGetText@@YAPAU_object@@PAU1@0@Z
	DD	01H
	ORG $+4
	DD	FLAT:??_C@_0M@JOAAGILP@GetTextSize@
	DD	FLAT:?wndTextGetTextSize@@YAPAU_object@@PAU1@0@Z
	DD	01H
	ORG $+4
	DD	FLAT:??_C@_0L@BIENLPGM@ShowCursor@
	DD	FLAT:?wndTextShowCursor@@YAPAU_object@@PAU1@0@Z
	DD	01H
	ORG $+4
	DD	FLAT:??_C@_0L@MGJDDPFG@HideCursor@
	DD	FLAT:?wndTextHideCursor@@YAPAU_object@@PAU1@0@Z
	DD	01H
	ORG $+4
	DD	FLAT:??_C@_0BC@DJJGDMOB@GetCursorPosition@
	DD	FLAT:?wndTextGetCursorPosition@@YAPAU_object@@PAU1@0@Z
	DD	01H
	ORG $+4
	DD	FLAT:??_C@_09JMPLPNNO@SetNumber@
	DD	FLAT:?wndNumberSetNumber@@YAPAU_object@@PAU1@0@Z
	DD	01H
	ORG $+4
	DD	FLAT:??_C@_0BP@JHALFFJF@SetNumberHorizontalAlignCenter@
	DD	FLAT:?wndNumberSetNumberHorizontalAlignCenter@@YAPAU_object@@PAU1@0@Z
	DD	01H
	ORG $+4
	DD	FLAT:??_C@_0BO@FBBAAHKK@SetNumberHorizontalAlignRight@
	DD	FLAT:?wndNumberSetNumberHorizontalAlignRight@@YAPAU_object@@PAU1@0@Z
	DD	01H
	ORG $+4
	DD	FLAT:??_C@_07ENBMIGKI@SetPath@
	DD	FLAT:?wndNumberSetPath@@YAPAU_object@@PAU1@0@Z
	DD	01H
	ORG $+4
	DD	FLAT:??_C@_0BB@FMJJKPIM@MarkBox_SetImage@
	DD	FLAT:?wndMarkBox_SetImage@@YAPAU_object@@PAU1@0@Z
	DD	01H
	ORG $+4
	DD	FLAT:??_C@_0BJ@PJODLBON@MarkBox_SetImageFilename@
	DD	FLAT:?wndMarkBox_SetImageFilename@@YAPAU_object@@PAU1@0@Z
	DD	01H
	ORG $+4
	DD	FLAT:??_C@_0N@FLKGJMCL@MarkBox_Load@
	DD	FLAT:?wndMarkBox_Load@@YAPAU_object@@PAU1@0@Z
	DD	01H
	ORG $+4
	DD	FLAT:??_C@_0BB@NAAPJNBM@MarkBox_SetIndex@
	DD	FLAT:?wndMarkBox_SetIndex@@YAPAU_object@@PAU1@0@Z
	DD	01H
	ORG $+4
	DD	FLAT:??_C@_0BB@ENLBNPPB@MarkBox_SetScale@
	DD	FLAT:?wndMarkBox_SetScale@@YAPAU_object@@PAU1@0@Z
	DD	01H
	ORG $+4
	DD	FLAT:??_C@_0BI@JCKPADLG@MarkBox_SetDiffuseColor@
	DD	FLAT:?wndMarkBox_SetDiffuseColor@@YAPAU_object@@PAU1@0@Z
	DD	01H
	ORG $+4
	DD	FLAT:??_C@_09OHOMMMHI@LoadImage@
	DD	FLAT:?wndImageLoadImage@@YAPAU_object@@PAU1@0@Z
	DD	01H
	ORG $+4
	DD	FLAT:??_C@_0BA@CAEBLOMF@SetDiffuseColor@
	DD	FLAT:?wndImageSetDiffuseColor@@YAPAU_object@@PAU1@0@Z
	DD	01H
	ORG $+4
	DD	FLAT:??_C@_08OMBILDHM@GetWidth@
	DD	FLAT:?wndImageGetWidth@@YAPAU_object@@PAU1@0@Z
	DD	01H
	ORG $+4
	DD	FLAT:??_C@_09EOGEIJMK@GetHeight@
	DD	FLAT:?wndImageGetHeight@@YAPAU_object@@PAU1@0@Z
	DD	01H
	ORG $+4
	DD	FLAT:??_C@_08FMFAIGAB@SetScale@
	DD	FLAT:?wndImageSetScale@@YAPAU_object@@PAU1@0@Z
	DD	01H
	ORG $+4
	DD	FLAT:??_C@_09KLKDEBJ@SetOrigin@
	DD	FLAT:?wndImageSetOrigin@@YAPAU_object@@PAU1@0@Z
	DD	01H
	ORG $+4
	DD	FLAT:??_C@_0M@GNIHGJGG@SetRotation@
	DD	FLAT:?wndImageSetRotation@@YAPAU_object@@PAU1@0@Z
	DD	01H
	ORG $+4
	DD	FLAT:??_C@_0BB@LDNMLPHM@SetRenderingRect@
	DD	FLAT:?wndImageSetRenderingRect@@YAPAU_object@@PAU1@0@Z
	DD	01H
	ORG $+4
	DD	FLAT:??_C@_0BB@GIEHGKNO@SetRenderingMode@
	DD	FLAT:?wndImageSetRenderingMode@@YAPAU_object@@PAU1@0@Z
	DD	01H
	ORG $+4
	DD	FLAT:??_C@_08NBAGFHFB@SetDelay@
	DD	FLAT:?wndImageSetDelay@@YAPAU_object@@PAU1@0@Z
	DD	01H
	ORG $+4
	DD	FLAT:??_C@_0M@BEJGDBIJ@AppendImage@
	DD	FLAT:?wndImageAppendImage@@YAPAU_object@@PAU1@0@Z
	DD	01H
	ORG $+4
	DD	FLAT:??_C@_0M@IIELPGEP@SetUpVisual@
	DD	FLAT:?wndButtonSetUpVisual@@YAPAU_object@@PAU1@0@Z
	DD	01H
	ORG $+4
	DD	FLAT:??_C@_0O@KOIDMFK@SetOverVisual@
	DD	FLAT:?wndButtonSetOverVisual@@YAPAU_object@@PAU1@0@Z
	DD	01H
	ORG $+4
	DD	FLAT:??_C@_0O@FLFAFPKP@SetDownVisual@
	DD	FLAT:?wndButtonSetDownVisual@@YAPAU_object@@PAU1@0@Z
	DD	01H
	ORG $+4
	DD	FLAT:??_C@_0BB@JCGDBIB@SetDisableVisual@
	DD	FLAT:?wndButtonSetDisableVisual@@YAPAU_object@@PAU1@0@Z
	DD	01H
	ORG $+4
	DD	FLAT:??_C@_0BE@PHOOFGJI@GetUpVisualFileName@
	DD	FLAT:?wndButtonGetUpVisualFileName@@YAPAU_object@@PAU1@0@Z
	DD	01H
	ORG $+4
	DD	FLAT:??_C@_0BG@KEALLAJN@GetOverVisualFileName@
	DD	FLAT:?wndButtonGetOverVisualFileName@@YAPAU_object@@PAU1@0@Z
	DD	01H
	ORG $+4
	DD	FLAT:??_C@_0BG@FKDEILKI@GetDownVisualFileName@
	DD	FLAT:?wndButtonGetDownVisualFileName@@YAPAU_object@@PAU1@0@Z
	DD	01H
	ORG $+4
	DD	FLAT:??_C@_05LDPHIKKB@Flash@
	DD	FLAT:?wndButtonFlash@@YAPAU_object@@PAU1@0@Z
	DD	01H
	ORG $+4
	DD	FLAT:??_C@_06CKGENIKG@Enable@
	DD	FLAT:?wndButtonEnable@@YAPAU_object@@PAU1@0@Z
	DD	01H
	ORG $+4
	DD	FLAT:??_C@_07MIKIFGAL@Disable@
	DD	FLAT:?wndButtonDisable@@YAPAU_object@@PAU1@0@Z
	DD	01H
	ORG $+4
	DD	FLAT:??_C@_04FNCLCJMC@Down@
	DD	FLAT:?wndButtonDown@@YAPAU_object@@PAU1@0@Z
	DD	01H
	ORG $+4
	DD	FLAT:??_C@_05DEOAHOFO@SetUp@
	DD	FLAT:?wndButtonSetUp@@YAPAU_object@@PAU1@0@Z
	DD	01H
	ORG $+4
	DD	FLAT:??_C@_06FKEAEOGE@IsDown@
	DD	FLAT:?wndButtonIsDown@@YAPAU_object@@PAU1@0@Z
	DD	01H
	ORG $+4
	DD	FLAT:??_C@_0BI@KNEJFEOH@SetRestrictMovementArea@
	DD	FLAT:?wndButtonSetRestrictMovementArea@@YAPAU_object@@PAU1@0@Z
	DD	01H
	ORG $+4
	DD	FLAT:??_C@_0P@MEHCKPID@SetOutlineFlag@
	DD	FLAT:?wndMgrSetOutlineFlag@@YAPAU_object@@PAU1@0@Z
	DD	01H
	ORG $+4
	DD	FLAT:??_C@_0BF@LFOINEDC@ShowOverInWindowName@
	DD	FLAT:?wndMgrShowOverInWindowName@@YAPAU_object@@PAU1@0@Z
	DD	01H
	ORG $+4
	DD	FLAT:??_C@_0BA@EABPFCGJ@IsActivatedSlot@
	DD	FLAT:?wndMgrIsActivatedSlot@@YAPAU_object@@PAU1@0@Z
	DD	01H
	ORG $+4
	DD	FLAT:??_C@_0BA@NIALCINC@GetSlotCoolTime@
	DD	FLAT:?wndMgrGetSlotCoolTime@@YAPAU_object@@PAU1@0@Z
	DD	01H
	ORG $+4
	DD	FLAT:??_C@_0P@KKAGIHMC@ActivateEffect@
	DD	FLAT:?wndMgrActivateEffect@@YAPAU_object@@PAU1@0@Z
	DD	01H
	ORG $+4
	DD	FLAT:??_C@_0BB@FBKJFJKM@DeactivateEffect@
	DD	FLAT:?wndMgrDeactivateEffect@@YAPAU_object@@PAU1@0@Z
	DD	01H
	ORG $+4
	DD	00H
	DD	00H
	DD	00H
	ORG $+4
_DATA	ENDS
;	COMDAT ??_C@_02HPEDFNFO@ff@
CONST	SEGMENT
??_C@_02HPEDFNFO@ff@ DB 'ff', 00H			; `string'
CONST	ENDS
;	COMDAT ??_C@_0CE@HBOEBFCG@Failed?5to?5load?5image?5?$CIfilename?3@
CONST	SEGMENT
??_C@_0CE@HBOEBFCG@Failed?5to?5load?5image?5?$CIfilename?3@ DB 'Failed to'
	DB	' load image (filename: %s)', 00H		; `string'
CONST	ENDS
;	COMDAT ??_C@_04INACLLOK@?$CIii?$CJ@
CONST	SEGMENT
??_C@_04INACLLOK@?$CIii?$CJ@ DB '(ii)', 00H		; `string'
CONST	ENDS
;	COMDAT ??_C@_0CH@HCFLPGH@wndMgr?4ArrangeSlot?5?3?5not?5a?5slot@
CONST	SEGMENT
??_C@_0CH@HCFLPGH@wndMgr?4ArrangeSlot?5?3?5not?5a?5slot@ DB 'wndMgr.Arran'
	DB	'geSlot : not a slot window', 00H		; `string'
CONST	ENDS
;	COMDAT ??_C@_0CH@FFGFLEBP@wndMgr?4ArrangeSlot?5?3?5not?5a?5grid@
CONST	SEGMENT
??_C@_0CH@FFGFLEBP@wndMgr?4ArrangeSlot?5?3?5not?5a?5grid@ DB 'wndMgr.Arra'
	DB	'ngeSlot : not a grid window', 00H		; `string'
CONST	ENDS
;	COMDAT ??_C@_0BH@KIGIHPAM@Unknown?5window?5flag?5?$CFs@
CONST	SEGMENT
??_C@_0BH@KIGIHPAM@Unknown?5window?5flag?5?$CFs@ DB 'Unknown window flag '
	DB	'%s', 00H					; `string'
CONST	ENDS
;	COMDAT ??_C@_03OBLKLDKA@ltr@
CONST	SEGMENT
??_C@_03OBLKLDKA@ltr@ DB 'ltr', 00H			; `string'
CONST	ENDS
;	COMDAT ??_C@_03IFDNKMND@rtl@
CONST	SEGMENT
??_C@_03IFDNKMND@rtl@ DB 'rtl', 00H			; `string'
CONST	ENDS
;	COMDAT ??_C@_0M@HHFJIJHL@ignore_size@
CONST	SEGMENT
??_C@_0M@HHFJIJHL@ignore_size@ DB 'ignore_size', 00H	; `string'
CONST	ENDS
;	COMDAT ??_C@_08BCAHNCDJ@not_pick@
CONST	SEGMENT
??_C@_08BCAHNCDJ@not_pick@ DB 'not_pick', 00H		; `string'
CONST	ENDS
;	COMDAT ??_C@_05KNFBNCOH@float@
CONST	SEGMENT
??_C@_05KNFBNCOH@float@ DB 'float', 00H			; `string'
CONST	ENDS
;	COMDAT ??_C@_0L@BDBCAEJL@restrict_y@
CONST	SEGMENT
??_C@_0L@BDBCAEJL@restrict_y@ DB 'restrict_y', 00H	; `string'
CONST	ENDS
;	COMDAT ??_C@_0L@KAJDFNK@restrict_x@
CONST	SEGMENT
??_C@_0L@KAJDFNK@restrict_x@ DB 'restrict_x', 00H	; `string'
CONST	ENDS
;	COMDAT ??_C@_06LHJMGKLI@attach@
CONST	SEGMENT
??_C@_06LHJMGKLI@attach@ DB 'attach', 00H		; `string'
CONST	ENDS
;	COMDAT ??_C@_08KCAGBJHE@dragable@
CONST	SEGMENT
??_C@_08KCAGBJHE@dragable@ DB 'dragable', 00H		; `string'
CONST	ENDS
;	COMDAT ??_C@_05GADAOHMC@limit@
CONST	SEGMENT
??_C@_05GADAOHMC@limit@ DB 'limit', 00H			; `string'
CONST	ENDS
;	COMDAT ??_C@_07BNIMILPP@movable@
CONST	SEGMENT
??_C@_07BNIMILPP@movable@ DB 'movable', 00H		; `string'
CONST	ENDS
;	COMDAT ??_C@_02OIKAIHIF@s?$CD@
CONST	SEGMENT
??_C@_02OIKAIHIF@s?$CD@ DB 's#', 00H			; `string'
CONST	ENDS
;	COMDAT ??_C@_04BIOIIFBG@iiii@
CONST	SEGMENT
??_C@_04BIOIIFBG@iiii@ DB 'iiii', 00H			; `string'
CONST	ENDS
;	COMDAT ??_C@_02PDIHAGKM@ii@
CONST	SEGMENT
??_C@_02PDIHAGKM@ii@ DB 'ii', 00H			; `string'
CONST	ENDS
;	COMDAT ??_C@_01LKDEMHDF@s@
CONST	SEGMENT
??_C@_01LKDEMHDF@s@ DB 's', 00H				; `string'
CONST	ENDS
;	COMDAT ??_C@_01KBJDNOO@i@
CONST	SEGMENT
??_C@_01KBJDNOO@i@ DB 'i', 00H				; `string'
CONST	ENDS
;	COMDAT ??_C@_01INIBCBCB@f@
CONST	SEGMENT
??_C@_01INIBCBCB@f@ DB 'f', 00H				; `string'
CONST	ENDS
; Function compile flags: /Ogtp
; File C:\DS Project\DS Files\Source\ClientSource\Client\eterPythonLib\PythonWindowManagerModule.cpp
;	COMDAT ?wndMgrDeactivateEffect@@YAPAU_object@@PAU1@0@Z
_TEXT	SEGMENT
_iSlotIndex$ = -8					; size = 4
_pWin$ = -4						; size = 4
_poSelf$ = 8						; size = 4
_poArgs$ = 12						; size = 4
?wndMgrDeactivateEffect@@YAPAU_object@@PAU1@0@Z PROC	; wndMgrDeactivateEffect, COMDAT

; 2385 : {

  00000	55		 push	 ebp
  00001	8b ec		 mov	 ebp, esp
  00003	83 ec 08	 sub	 esp, 8

; 2386 : 	UI::CWindow * pWin;
; 2387 : 	if (!PyTuple_GetWindow(poArgs, 0, &pWin))

  00006	8d 45 fc	 lea	 eax, DWORD PTR _pWin$[ebp]
  00009	56		 push	 esi
  0000a	8b 75 0c	 mov	 esi, DWORD PTR _poArgs$[ebp]
  0000d	50		 push	 eax
  0000e	6a 00		 push	 0
  00010	56		 push	 esi
  00011	e8 00 00 00 00	 call	 ?PyTuple_GetWindow@@YA_NPAU_object@@HPAPAVCWindow@UI@@@Z ; PyTuple_GetWindow
  00016	83 c4 0c	 add	 esp, 12			; 0000000cH
  00019	84 c0		 test	 al, al
  0001b	75 0f		 jne	 SHORT $LN2@wndMgrDeac
$LN6@wndMgrDeac:

; 2400 : }

  0001d	6a 00		 push	 0
  0001f	e8 00 00 00 00	 call	 ?Py_BuildException@@YAPAU_object@@PBDZZ ; Py_BuildException
  00024	83 c4 04	 add	 esp, 4
  00027	5e		 pop	 esi
  00028	8b e5		 mov	 esp, ebp
  0002a	5d		 pop	 ebp
  0002b	c3		 ret	 0
$LN2@wndMgrDeac:

; 2388 : 		return Py_BuildException();
; 2389 : 
; 2390 : 	int iSlotIndex;
; 2391 : 	if (!PyTuple_GetInteger(poArgs, 1, &iSlotIndex))

  0002c	8d 45 f8	 lea	 eax, DWORD PTR _iSlotIndex$[ebp]
  0002f	50		 push	 eax
  00030	6a 01		 push	 1
  00032	56		 push	 esi
  00033	e8 00 00 00 00	 call	 ?PyTuple_GetInteger@@YA_NPAU_object@@HPAH@Z ; PyTuple_GetInteger
  00038	83 c4 0c	 add	 esp, 12			; 0000000cH
  0003b	84 c0		 test	 al, al
  0003d	74 de		 je	 SHORT $LN6@wndMgrDeac

; 2392 : 		return Py_BuildException();
; 2393 : 
; 2394 : 	if (!pWin->IsType(UI::CSlotWindow::Type()))

  0003f	e8 00 00 00 00	 call	 ?Type@CSlotWindow@UI@@SAKXZ ; UI::CSlotWindow::Type
  00044	8b 75 fc	 mov	 esi, DWORD PTR _pWin$[ebp]
  00047	8b ce		 mov	 ecx, esi
  00049	50		 push	 eax
  0004a	e8 00 00 00 00	 call	 ?IsType@CWindow@UI@@QAEHK@Z ; UI::CWindow::IsType
  0004f	85 c0		 test	 eax, eax
  00051	74 ca		 je	 SHORT $LN6@wndMgrDeac

; 2395 : 		return Py_BuildException();
; 2396 : 
; 2397 : 	UI::CSlotWindow * pSlotWin = (UI::CSlotWindow *)pWin;
; 2398 : 	pSlotWin->DeactivateEffect(iSlotIndex);

  00053	ff 75 f8	 push	 DWORD PTR _iSlotIndex$[ebp]
  00056	8b ce		 mov	 ecx, esi
  00058	e8 00 00 00 00	 call	 ?DeactivateEffect@CSlotWindow@UI@@QAEXK@Z ; UI::CSlotWindow::DeactivateEffect

; 2399 : 	return Py_BuildNone();

  0005d	e8 00 00 00 00	 call	 ?Py_BuildNone@@YAPAU_object@@XZ ; Py_BuildNone
  00062	5e		 pop	 esi

; 2400 : }

  00063	8b e5		 mov	 esp, ebp
  00065	5d		 pop	 ebp
  00066	c3		 ret	 0
?wndMgrDeactivateEffect@@YAPAU_object@@PAU1@0@Z ENDP	; wndMgrDeactivateEffect
_TEXT	ENDS
; Function compile flags: /Ogtp
; File C:\DS Project\DS Files\Source\ClientSource\Client\eterPythonLib\PythonWindowManagerModule.cpp
;	COMDAT ?wndMgrActivateEffect@@YAPAU_object@@PAU1@0@Z
_TEXT	SEGMENT
_iSlotIndex$ = -24					; size = 4
_r$ = -20						; size = 4
_g$ = -16						; size = 4
_b$ = -12						; size = 4
_a$ = -8						; size = 4
_pWin$ = -4						; size = 4
_poSelf$ = 8						; size = 4
_poArgs$ = 12						; size = 4
?wndMgrActivateEffect@@YAPAU_object@@PAU1@0@Z PROC	; wndMgrActivateEffect, COMDAT

; 2354 : {

  00000	55		 push	 ebp
  00001	8b ec		 mov	 ebp, esp
  00003	83 ec 18	 sub	 esp, 24			; 00000018H

; 2355 : 	UI::CWindow * pWin;
; 2356 : 	if (!PyTuple_GetWindow(poArgs, 0, &pWin))

  00006	8d 45 fc	 lea	 eax, DWORD PTR _pWin$[ebp]
  00009	56		 push	 esi
  0000a	8b 75 0c	 mov	 esi, DWORD PTR _poArgs$[ebp]
  0000d	50		 push	 eax
  0000e	6a 00		 push	 0
  00010	56		 push	 esi
  00011	e8 00 00 00 00	 call	 ?PyTuple_GetWindow@@YA_NPAU_object@@HPAPAVCWindow@UI@@@Z ; PyTuple_GetWindow
  00016	83 c4 0c	 add	 esp, 12			; 0000000cH
  00019	84 c0		 test	 al, al
  0001b	75 0f		 jne	 SHORT $LN2@wndMgrActi
$LN10@wndMgrActi:

; 2382 : }

  0001d	6a 00		 push	 0
  0001f	e8 00 00 00 00	 call	 ?Py_BuildException@@YAPAU_object@@PBDZZ ; Py_BuildException
  00024	83 c4 04	 add	 esp, 4
  00027	5e		 pop	 esi
  00028	8b e5		 mov	 esp, ebp
  0002a	5d		 pop	 ebp
  0002b	c3		 ret	 0
$LN2@wndMgrActi:

; 2357 : 		return Py_BuildException();
; 2358 : 
; 2359 : 	int iSlotIndex;
; 2360 : 	if (!PyTuple_GetInteger(poArgs, 1, &iSlotIndex))

  0002c	8d 45 e8	 lea	 eax, DWORD PTR _iSlotIndex$[ebp]
  0002f	50		 push	 eax
  00030	6a 01		 push	 1
  00032	56		 push	 esi
  00033	e8 00 00 00 00	 call	 ?PyTuple_GetInteger@@YA_NPAU_object@@HPAH@Z ; PyTuple_GetInteger
  00038	83 c4 0c	 add	 esp, 12			; 0000000cH
  0003b	84 c0		 test	 al, al
  0003d	74 de		 je	 SHORT $LN10@wndMgrActi

; 2361 : 		return Py_BuildException();
; 2362 : 
; 2363 : 	if (!pWin->IsType(UI::CSlotWindow::Type()))

  0003f	e8 00 00 00 00	 call	 ?Type@CSlotWindow@UI@@SAKXZ ; UI::CSlotWindow::Type
  00044	8b 4d fc	 mov	 ecx, DWORD PTR _pWin$[ebp]
  00047	50		 push	 eax
  00048	e8 00 00 00 00	 call	 ?IsType@CWindow@UI@@QAEHK@Z ; UI::CWindow::IsType
  0004d	85 c0		 test	 eax, eax
  0004f	74 cc		 je	 SHORT $LN10@wndMgrActi

; 2364 : 		return Py_BuildException();
; 2365 : 
; 2366 : 	float r, g, b, a;
; 2367 : 	if (!PyTuple_GetFloat(poArgs, 2, &r))

  00051	8d 45 ec	 lea	 eax, DWORD PTR _r$[ebp]
  00054	50		 push	 eax
  00055	6a 02		 push	 2
  00057	56		 push	 esi
  00058	e8 00 00 00 00	 call	 ?PyTuple_GetFloat@@YA_NPAU_object@@HPAM@Z ; PyTuple_GetFloat
  0005d	83 c4 0c	 add	 esp, 12			; 0000000cH
  00060	84 c0		 test	 al, al
  00062	74 b9		 je	 SHORT $LN10@wndMgrActi

; 2368 : 		return Py_BuildException();
; 2369 : 
; 2370 : 	if (!PyTuple_GetFloat(poArgs, 3, &g))

  00064	8d 45 f0	 lea	 eax, DWORD PTR _g$[ebp]
  00067	50		 push	 eax
  00068	6a 03		 push	 3
  0006a	56		 push	 esi
  0006b	e8 00 00 00 00	 call	 ?PyTuple_GetFloat@@YA_NPAU_object@@HPAM@Z ; PyTuple_GetFloat
  00070	83 c4 0c	 add	 esp, 12			; 0000000cH
  00073	84 c0		 test	 al, al
  00075	74 a6		 je	 SHORT $LN10@wndMgrActi

; 2371 : 		return Py_BuildException();
; 2372 : 
; 2373 : 	if (!PyTuple_GetFloat(poArgs, 4, &b))

  00077	8d 45 f4	 lea	 eax, DWORD PTR _b$[ebp]
  0007a	50		 push	 eax
  0007b	6a 04		 push	 4
  0007d	56		 push	 esi
  0007e	e8 00 00 00 00	 call	 ?PyTuple_GetFloat@@YA_NPAU_object@@HPAM@Z ; PyTuple_GetFloat
  00083	83 c4 0c	 add	 esp, 12			; 0000000cH
  00086	84 c0		 test	 al, al
  00088	74 93		 je	 SHORT $LN10@wndMgrActi

; 2374 : 		return Py_BuildException();
; 2375 : 
; 2376 : 	if (!PyTuple_GetFloat(poArgs, 5, &a))

  0008a	8d 45 f8	 lea	 eax, DWORD PTR _a$[ebp]
  0008d	50		 push	 eax
  0008e	6a 05		 push	 5
  00090	56		 push	 esi
  00091	e8 00 00 00 00	 call	 ?PyTuple_GetFloat@@YA_NPAU_object@@HPAM@Z ; PyTuple_GetFloat
  00096	83 c4 0c	 add	 esp, 12			; 0000000cH
  00099	84 c0		 test	 al, al
  0009b	74 80		 je	 SHORT $LN10@wndMgrActi

; 2377 : 		return Py_BuildException();
; 2378 : 
; 2379 : 	UI::CSlotWindow * pSlotWin = (UI::CSlotWindow *)pWin;
; 2380 : 	pSlotWin->ActivateEffect(iSlotIndex, r, g, b, a);

  0009d	f3 0f 10 45 f8	 movss	 xmm0, DWORD PTR _a$[ebp]
  000a2	83 ec 10	 sub	 esp, 16			; 00000010H
  000a5	8b 4d fc	 mov	 ecx, DWORD PTR _pWin$[ebp]
  000a8	f3 0f 11 44 24
	0c		 movss	 DWORD PTR [esp+12], xmm0
  000ae	f3 0f 10 45 f4	 movss	 xmm0, DWORD PTR _b$[ebp]
  000b3	f3 0f 11 44 24
	08		 movss	 DWORD PTR [esp+8], xmm0
  000b9	f3 0f 10 45 f0	 movss	 xmm0, DWORD PTR _g$[ebp]
  000be	f3 0f 11 44 24
	04		 movss	 DWORD PTR [esp+4], xmm0
  000c4	f3 0f 10 45 ec	 movss	 xmm0, DWORD PTR _r$[ebp]
  000c9	f3 0f 11 04 24	 movss	 DWORD PTR [esp], xmm0
  000ce	ff 75 e8	 push	 DWORD PTR _iSlotIndex$[ebp]
  000d1	e8 00 00 00 00	 call	 ?ActivateEffect@CSlotWindow@UI@@QAEXKMMMM@Z ; UI::CSlotWindow::ActivateEffect

; 2381 : 	return Py_BuildNone();

  000d6	e8 00 00 00 00	 call	 ?Py_BuildNone@@YAPAU_object@@XZ ; Py_BuildNone
  000db	5e		 pop	 esi

; 2382 : }

  000dc	8b e5		 mov	 esp, ebp
  000de	5d		 pop	 ebp
  000df	c3		 ret	 0
?wndMgrActivateEffect@@YAPAU_object@@PAU1@0@Z ENDP	; wndMgrActivateEffect
_TEXT	ENDS
; Function compile flags: /Ogtp
; File C:\DS Project\DS Files\Source\ClientSource\Client\eterPythonLib\PythonWindowManagerModule.cpp
;	COMDAT ?wndMgrGetSlotCoolTime@@YAPAU_object@@PAU1@0@Z
_TEXT	SEGMENT
_iSlotIndex$ = -12					; size = 4
_fCoolTime$ = -8					; size = 4
_pWin$ = -8						; size = 4
_fElapsedTime$ = -4					; size = 4
_poSelf$ = 8						; size = 4
_poArgs$ = 12						; size = 4
?wndMgrGetSlotCoolTime@@YAPAU_object@@PAU1@0@Z PROC	; wndMgrGetSlotCoolTime, COMDAT

; 2330 : {

  00000	55		 push	 ebp
  00001	8b ec		 mov	 ebp, esp
  00003	83 ec 0c	 sub	 esp, 12			; 0000000cH

; 2331 : 	UI::CWindow * pWin;
; 2332 : 	if (!PyTuple_GetWindow(poArgs, 0, &pWin))

  00006	8d 45 f8	 lea	 eax, DWORD PTR _pWin$[ebp]
  00009	56		 push	 esi
  0000a	8b 75 0c	 mov	 esi, DWORD PTR _poArgs$[ebp]
  0000d	50		 push	 eax
  0000e	6a 00		 push	 0
  00010	56		 push	 esi
  00011	e8 00 00 00 00	 call	 ?PyTuple_GetWindow@@YA_NPAU_object@@HPAPAVCWindow@UI@@@Z ; PyTuple_GetWindow
  00016	83 c4 0c	 add	 esp, 12			; 0000000cH
  00019	84 c0		 test	 al, al
  0001b	75 0f		 jne	 SHORT $LN2@wndMgrGetS
$LN6@wndMgrGetS:

; 2347 : }

  0001d	6a 00		 push	 0
  0001f	e8 00 00 00 00	 call	 ?Py_BuildException@@YAPAU_object@@PBDZZ ; Py_BuildException
  00024	83 c4 04	 add	 esp, 4
  00027	5e		 pop	 esi
  00028	8b e5		 mov	 esp, ebp
  0002a	5d		 pop	 ebp
  0002b	c3		 ret	 0
$LN2@wndMgrGetS:

; 2333 : 		return Py_BuildException();
; 2334 : 
; 2335 : 	int iSlotIndex;
; 2336 : 	if (!PyTuple_GetInteger(poArgs, 1, &iSlotIndex))

  0002c	8d 45 f4	 lea	 eax, DWORD PTR _iSlotIndex$[ebp]
  0002f	50		 push	 eax
  00030	6a 01		 push	 1
  00032	56		 push	 esi
  00033	e8 00 00 00 00	 call	 ?PyTuple_GetInteger@@YA_NPAU_object@@HPAH@Z ; PyTuple_GetInteger
  00038	83 c4 0c	 add	 esp, 12			; 0000000cH
  0003b	84 c0		 test	 al, al
  0003d	74 de		 je	 SHORT $LN6@wndMgrGetS

; 2337 : 		return Py_BuildException();
; 2338 : 
; 2339 : 	if (!pWin->IsType(UI::CSlotWindow::Type()))

  0003f	e8 00 00 00 00	 call	 ?Type@CSlotWindow@UI@@SAKXZ ; UI::CSlotWindow::Type
  00044	8b 75 f8	 mov	 esi, DWORD PTR _pWin$[ebp]
  00047	8b ce		 mov	 ecx, esi
  00049	50		 push	 eax
  0004a	e8 00 00 00 00	 call	 ?IsType@CWindow@UI@@QAEHK@Z ; UI::CWindow::IsType
  0004f	85 c0		 test	 eax, eax
  00051	74 ca		 je	 SHORT $LN6@wndMgrGetS

; 2340 : 		return Py_BuildException();
; 2341 : 
; 2342 : 	UI::CSlotWindow * pSlotWin = (UI::CSlotWindow *)pWin;
; 2343 : 
; 2344 : 	float fElapsedTime = 0.0f;
; 2345 : 	float fCoolTime = pSlotWin->GetSlotCoolTime(iSlotIndex, &fElapsedTime);

  00053	8d 45 fc	 lea	 eax, DWORD PTR _fElapsedTime$[ebp]
  00056	c7 45 fc 00 00
	00 00		 mov	 DWORD PTR _fElapsedTime$[ebp], 0
  0005d	50		 push	 eax
  0005e	ff 75 f4	 push	 DWORD PTR _iSlotIndex$[ebp]
  00061	8b ce		 mov	 ecx, esi
  00063	e8 00 00 00 00	 call	 ?GetSlotCoolTime@CSlotWindow@UI@@QAEMKPAM@Z ; UI::CSlotWindow::GetSlotCoolTime
  00068	f3 0f 10 45 fc	 movss	 xmm0, DWORD PTR _fElapsedTime$[ebp]

; 2346 : 	return Py_BuildValue("ff", fCoolTime, fElapsedTime);

  0006d	83 ec 10	 sub	 esp, 16			; 00000010H
  00070	0f 5a c0	 cvtps2pd xmm0, xmm0
  00073	d9 5d f8	 fstp	 DWORD PTR _fCoolTime$[ebp]
  00076	f2 0f 11 44 24
	08		 movsd	 QWORD PTR [esp+8], xmm0
  0007c	f3 0f 10 45 f8	 movss	 xmm0, DWORD PTR _fCoolTime$[ebp]
  00081	0f 5a c0	 cvtps2pd xmm0, xmm0
  00084	f2 0f 11 04 24	 movsd	 QWORD PTR [esp], xmm0
  00089	68 00 00 00 00	 push	 OFFSET ??_C@_02HPEDFNFO@ff@
  0008e	ff 15 00 00 00
	00		 call	 DWORD PTR __imp__Py_BuildValue
  00094	83 c4 14	 add	 esp, 20			; 00000014H
  00097	5e		 pop	 esi

; 2347 : }

  00098	8b e5		 mov	 esp, ebp
  0009a	5d		 pop	 ebp
  0009b	c3		 ret	 0
?wndMgrGetSlotCoolTime@@YAPAU_object@@PAU1@0@Z ENDP	; wndMgrGetSlotCoolTime
_TEXT	ENDS
; Function compile flags: /Ogtp
; File C:\DS Project\DS Files\Source\ClientSource\Client\eterPythonLib\PythonWindowManagerModule.cpp
;	COMDAT ?wndMgrIsActivatedSlot@@YAPAU_object@@PAU1@0@Z
_TEXT	SEGMENT
_iSlotIndex$ = -8					; size = 4
_pWin$ = -4						; size = 4
_poSelf$ = 8						; size = 4
_poArgs$ = 12						; size = 4
?wndMgrIsActivatedSlot@@YAPAU_object@@PAU1@0@Z PROC	; wndMgrIsActivatedSlot, COMDAT

; 2313 : {

  00000	55		 push	 ebp
  00001	8b ec		 mov	 ebp, esp
  00003	83 ec 08	 sub	 esp, 8

; 2314 : 	UI::CWindow * pWin;
; 2315 : 	if (!PyTuple_GetWindow(poArgs, 0, &pWin))

  00006	8d 45 fc	 lea	 eax, DWORD PTR _pWin$[ebp]
  00009	56		 push	 esi
  0000a	8b 75 0c	 mov	 esi, DWORD PTR _poArgs$[ebp]
  0000d	50		 push	 eax
  0000e	6a 00		 push	 0
  00010	56		 push	 esi
  00011	e8 00 00 00 00	 call	 ?PyTuple_GetWindow@@YA_NPAU_object@@HPAPAVCWindow@UI@@@Z ; PyTuple_GetWindow
  00016	83 c4 0c	 add	 esp, 12			; 0000000cH
  00019	84 c0		 test	 al, al
  0001b	75 0f		 jne	 SHORT $LN2@wndMgrIsAc
$LN6@wndMgrIsAc:

; 2327 : }

  0001d	6a 00		 push	 0
  0001f	e8 00 00 00 00	 call	 ?Py_BuildException@@YAPAU_object@@PBDZZ ; Py_BuildException
  00024	83 c4 04	 add	 esp, 4
  00027	5e		 pop	 esi
  00028	8b e5		 mov	 esp, ebp
  0002a	5d		 pop	 ebp
  0002b	c3		 ret	 0
$LN2@wndMgrIsAc:

; 2316 : 		return Py_BuildException();
; 2317 : 
; 2318 : 	int iSlotIndex;
; 2319 : 	if (!PyTuple_GetInteger(poArgs, 1, &iSlotIndex))

  0002c	8d 45 f8	 lea	 eax, DWORD PTR _iSlotIndex$[ebp]
  0002f	50		 push	 eax
  00030	6a 01		 push	 1
  00032	56		 push	 esi
  00033	e8 00 00 00 00	 call	 ?PyTuple_GetInteger@@YA_NPAU_object@@HPAH@Z ; PyTuple_GetInteger
  00038	83 c4 0c	 add	 esp, 12			; 0000000cH
  0003b	84 c0		 test	 al, al
  0003d	74 de		 je	 SHORT $LN6@wndMgrIsAc

; 2320 : 		return Py_BuildException();
; 2321 : 
; 2322 : 	if (!pWin->IsType(UI::CSlotWindow::Type()))

  0003f	e8 00 00 00 00	 call	 ?Type@CSlotWindow@UI@@SAKXZ ; UI::CSlotWindow::Type
  00044	8b 75 fc	 mov	 esi, DWORD PTR _pWin$[ebp]
  00047	8b ce		 mov	 ecx, esi
  00049	50		 push	 eax
  0004a	e8 00 00 00 00	 call	 ?IsType@CWindow@UI@@QAEHK@Z ; UI::CWindow::IsType
  0004f	85 c0		 test	 eax, eax
  00051	74 ca		 je	 SHORT $LN6@wndMgrIsAc

; 2323 : 		return Py_BuildException();
; 2324 : 
; 2325 : 	UI::CSlotWindow * pSlotWin = (UI::CSlotWindow *)pWin;
; 2326 : 	return Py_BuildValue("i", pSlotWin->IsActivatedSlot(iSlotIndex));

  00053	ff 75 f8	 push	 DWORD PTR _iSlotIndex$[ebp]
  00056	8b ce		 mov	 ecx, esi
  00058	e8 00 00 00 00	 call	 ?IsActivatedSlot@CSlotWindow@UI@@QAE_NK@Z ; UI::CSlotWindow::IsActivatedSlot
  0005d	0f b6 c0	 movzx	 eax, al
  00060	50		 push	 eax
  00061	68 00 00 00 00	 push	 OFFSET ??_C@_01KBJDNOO@i@
  00066	ff 15 00 00 00
	00		 call	 DWORD PTR __imp__Py_BuildValue
  0006c	83 c4 08	 add	 esp, 8
  0006f	5e		 pop	 esi

; 2327 : }

  00070	8b e5		 mov	 esp, ebp
  00072	5d		 pop	 ebp
  00073	c3		 ret	 0
?wndMgrIsActivatedSlot@@YAPAU_object@@PAU1@0@Z ENDP	; wndMgrIsActivatedSlot
_TEXT	ENDS
; Function compile flags: /Ogtp
; File C:\DS Project\DS Files\Source\ClientSource\Client\eterPythonLib\PythonWindowManagerModule.cpp
;	COMDAT ?wndMgrShowOverInWindowName@@YAPAU_object@@PAU1@0@Z
_TEXT	SEGMENT
_iFlag$ = -4						; size = 4
_poSelf$ = 8						; size = 4
_poArgs$ = 12						; size = 4
?wndMgrShowOverInWindowName@@YAPAU_object@@PAU1@0@Z PROC ; wndMgrShowOverInWindowName, COMDAT

; 2301 : {

  00000	55		 push	 ebp
  00001	8b ec		 mov	 ebp, esp
  00003	51		 push	 ecx

; 2302 : 	int iFlag;
; 2303 : 	if (!PyTuple_GetInteger(poArgs, 0, &iFlag))

  00004	8d 45 fc	 lea	 eax, DWORD PTR _iFlag$[ebp]
  00007	50		 push	 eax
  00008	6a 00		 push	 0
  0000a	ff 75 0c	 push	 DWORD PTR _poArgs$[ebp]
  0000d	e8 00 00 00 00	 call	 ?PyTuple_GetInteger@@YA_NPAU_object@@HPAH@Z ; PyTuple_GetInteger
  00012	83 c4 0c	 add	 esp, 12			; 0000000cH
  00015	84 c0		 test	 al, al
  00017	75 0e		 jne	 SHORT $LN2@wndMgrShow

; 2304 : 		return Py_BuildException();

  00019	6a 00		 push	 0
  0001b	e8 00 00 00 00	 call	 ?Py_BuildException@@YAPAU_object@@PBDZZ ; Py_BuildException
  00020	83 c4 04	 add	 esp, 4

; 2309 : }

  00023	8b e5		 mov	 esp, ebp
  00025	5d		 pop	 ebp
  00026	c3		 ret	 0
$LN2@wndMgrShow:

; 2305 : 
; 2306 : 	g_bShowOverInWindowName = iFlag;

  00027	8b 45 fc	 mov	 eax, DWORD PTR _iFlag$[ebp]
  0002a	a3 00 00 00 00	 mov	 DWORD PTR ?g_bShowOverInWindowName@@3HA, eax ; g_bShowOverInWindowName

; 2307 : 
; 2308 : 	return Py_BuildNone();

  0002f	e8 00 00 00 00	 call	 ?Py_BuildNone@@YAPAU_object@@XZ ; Py_BuildNone

; 2309 : }

  00034	8b e5		 mov	 esp, ebp
  00036	5d		 pop	 ebp
  00037	c3		 ret	 0
?wndMgrShowOverInWindowName@@YAPAU_object@@PAU1@0@Z ENDP ; wndMgrShowOverInWindowName
_TEXT	ENDS
; Function compile flags: /Ogtp
; File C:\DS Project\DS Files\Source\ClientSource\Client\eterPythonLib\PythonWindowManagerModule.cpp
;	COMDAT ?wndMgrSetOutlineFlag@@YAPAU_object@@PAU1@0@Z
_TEXT	SEGMENT
_iFlag$ = -4						; size = 4
_poSelf$ = 8						; size = 4
_poArgs$ = 12						; size = 4
?wndMgrSetOutlineFlag@@YAPAU_object@@PAU1@0@Z PROC	; wndMgrSetOutlineFlag, COMDAT

; 2290 : {

  00000	55		 push	 ebp
  00001	8b ec		 mov	 ebp, esp
  00003	51		 push	 ecx

; 2291 : 	int iFlag;
; 2292 : 	if (!PyTuple_GetInteger(poArgs, 0, &iFlag))

  00004	8d 45 fc	 lea	 eax, DWORD PTR _iFlag$[ebp]
  00007	50		 push	 eax
  00008	6a 00		 push	 0
  0000a	ff 75 0c	 push	 DWORD PTR _poArgs$[ebp]
  0000d	e8 00 00 00 00	 call	 ?PyTuple_GetInteger@@YA_NPAU_object@@HPAH@Z ; PyTuple_GetInteger
  00012	83 c4 0c	 add	 esp, 12			; 0000000cH
  00015	84 c0		 test	 al, al
  00017	75 0e		 jne	 SHORT $LN2@wndMgrSetO

; 2293 : 		return Py_BuildException();

  00019	6a 00		 push	 0
  0001b	e8 00 00 00 00	 call	 ?Py_BuildException@@YAPAU_object@@PBDZZ ; Py_BuildException
  00020	83 c4 04	 add	 esp, 4

; 2298 : }

  00023	8b e5		 mov	 esp, ebp
  00025	5d		 pop	 ebp
  00026	c3		 ret	 0
$LN2@wndMgrSetO:

; 2294 : 
; 2295 : 	g_bOutlineBoxEnable = iFlag;

  00027	8b 45 fc	 mov	 eax, DWORD PTR _iFlag$[ebp]
  0002a	a3 00 00 00 00	 mov	 DWORD PTR ?g_bOutlineBoxEnable@@3HA, eax ; g_bOutlineBoxEnable

; 2296 : 
; 2297 : 	return Py_BuildNone();

  0002f	e8 00 00 00 00	 call	 ?Py_BuildNone@@YAPAU_object@@XZ ; Py_BuildNone

; 2298 : }

  00034	8b e5		 mov	 esp, ebp
  00036	5d		 pop	 ebp
  00037	c3		 ret	 0
?wndMgrSetOutlineFlag@@YAPAU_object@@PAU1@0@Z ENDP	; wndMgrSetOutlineFlag
_TEXT	ENDS
; Function compile flags: /Ogtp
; File C:\DS Project\DS Files\Source\ClientSource\Client\eterPythonLib\PythonWindowManagerModule.cpp
;	COMDAT ?wndButtonIsDown@@YAPAU_object@@PAU1@0@Z
_TEXT	SEGMENT
_pWindow$ = -4						; size = 4
_poSelf$ = 8						; size = 4
_poArgs$ = 12						; size = 4
?wndButtonIsDown@@YAPAU_object@@PAU1@0@Z PROC		; wndButtonIsDown, COMDAT

; 2278 : {

  00000	55		 push	 ebp
  00001	8b ec		 mov	 ebp, esp
  00003	51		 push	 ecx

; 2279 : 	UI::CWindow * pWindow;
; 2280 : 	if (!PyTuple_GetWindow(poArgs, 0, &pWindow))

  00004	8d 45 fc	 lea	 eax, DWORD PTR _pWindow$[ebp]
  00007	50		 push	 eax
  00008	6a 00		 push	 0
  0000a	ff 75 0c	 push	 DWORD PTR _poArgs$[ebp]
  0000d	e8 00 00 00 00	 call	 ?PyTuple_GetWindow@@YA_NPAU_object@@HPAPAVCWindow@UI@@@Z ; PyTuple_GetWindow
  00012	83 c4 0c	 add	 esp, 12			; 0000000cH
  00015	84 c0		 test	 al, al
  00017	75 0e		 jne	 SHORT $LN2@wndButtonI

; 2281 : 		return Py_BuildException();

  00019	6a 00		 push	 0
  0001b	e8 00 00 00 00	 call	 ?Py_BuildException@@YAPAU_object@@PBDZZ ; Py_BuildException
  00020	83 c4 04	 add	 esp, 4

; 2284 : }

  00023	8b e5		 mov	 esp, ebp
  00025	5d		 pop	 ebp
  00026	c3		 ret	 0
$LN2@wndButtonI:

; 2282 : 
; 2283 : 	return Py_BuildValue("i", ((UI::CButton*)pWindow)->IsPressed());

  00027	8b 4d fc	 mov	 ecx, DWORD PTR _pWindow$[ebp]
  0002a	e8 00 00 00 00	 call	 ?IsPressed@CButton@UI@@QAEHXZ ; UI::CButton::IsPressed
  0002f	50		 push	 eax
  00030	68 00 00 00 00	 push	 OFFSET ??_C@_01KBJDNOO@i@
  00035	ff 15 00 00 00
	00		 call	 DWORD PTR __imp__Py_BuildValue
  0003b	83 c4 08	 add	 esp, 8

; 2284 : }

  0003e	8b e5		 mov	 esp, ebp
  00040	5d		 pop	 ebp
  00041	c3		 ret	 0
?wndButtonIsDown@@YAPAU_object@@PAU1@0@Z ENDP		; wndButtonIsDown
_TEXT	ENDS
; Function compile flags: /Ogtp
; File C:\DS Project\DS Files\Source\ClientSource\Client\eterPythonLib\PythonWindowManagerModule.cpp
;	COMDAT ?wndButtonSetRestrictMovementArea@@YAPAU_object@@PAU1@0@Z
_TEXT	SEGMENT
_pWindow$ = -20						; size = 4
_ix$ = -16						; size = 4
_iy$ = -12						; size = 4
_iwidth$ = -8						; size = 4
_iheight$ = -4						; size = 4
_poSelf$ = 8						; size = 4
_poArgs$ = 12						; size = 4
?wndButtonSetRestrictMovementArea@@YAPAU_object@@PAU1@0@Z PROC ; wndButtonSetRestrictMovementArea, COMDAT

; 2255 : {

  00000	55		 push	 ebp
  00001	8b ec		 mov	 ebp, esp
  00003	83 ec 14	 sub	 esp, 20			; 00000014H

; 2256 : 	UI::CWindow * pWindow;
; 2257 : 	if (!PyTuple_GetWindow(poArgs, 0, &pWindow))

  00006	8d 45 ec	 lea	 eax, DWORD PTR _pWindow$[ebp]
  00009	56		 push	 esi
  0000a	8b 75 0c	 mov	 esi, DWORD PTR _poArgs$[ebp]
  0000d	50		 push	 eax
  0000e	6a 00		 push	 0
  00010	56		 push	 esi
  00011	e8 00 00 00 00	 call	 ?PyTuple_GetWindow@@YA_NPAU_object@@HPAPAVCWindow@UI@@@Z ; PyTuple_GetWindow
  00016	83 c4 0c	 add	 esp, 12			; 0000000cH
  00019	84 c0		 test	 al, al
  0001b	75 0f		 jne	 SHORT $LN2@wndButtonS
$LN8@wndButtonS:

; 2275 : }

  0001d	6a 00		 push	 0
  0001f	e8 00 00 00 00	 call	 ?Py_BuildException@@YAPAU_object@@PBDZZ ; Py_BuildException
  00024	83 c4 04	 add	 esp, 4
  00027	5e		 pop	 esi
  00028	8b e5		 mov	 esp, ebp
  0002a	5d		 pop	 ebp
  0002b	c3		 ret	 0
$LN2@wndButtonS:

; 2258 : 		return Py_BuildException();
; 2259 : 	int ix;
; 2260 : 	if (!PyTuple_GetInteger(poArgs, 1, &ix))

  0002c	8d 45 f0	 lea	 eax, DWORD PTR _ix$[ebp]
  0002f	50		 push	 eax
  00030	6a 01		 push	 1
  00032	56		 push	 esi
  00033	e8 00 00 00 00	 call	 ?PyTuple_GetInteger@@YA_NPAU_object@@HPAH@Z ; PyTuple_GetInteger
  00038	83 c4 0c	 add	 esp, 12			; 0000000cH
  0003b	84 c0		 test	 al, al
  0003d	74 de		 je	 SHORT $LN8@wndButtonS

; 2261 : 		return Py_BuildException();
; 2262 : 	int iy;
; 2263 : 	if (!PyTuple_GetInteger(poArgs, 2, &iy))

  0003f	8d 45 f4	 lea	 eax, DWORD PTR _iy$[ebp]
  00042	50		 push	 eax
  00043	6a 02		 push	 2
  00045	56		 push	 esi
  00046	e8 00 00 00 00	 call	 ?PyTuple_GetInteger@@YA_NPAU_object@@HPAH@Z ; PyTuple_GetInteger
  0004b	83 c4 0c	 add	 esp, 12			; 0000000cH
  0004e	84 c0		 test	 al, al
  00050	74 cb		 je	 SHORT $LN8@wndButtonS

; 2264 : 		return Py_BuildException();
; 2265 : 	int iwidth;
; 2266 : 	if (!PyTuple_GetInteger(poArgs, 3, &iwidth))

  00052	8d 45 f8	 lea	 eax, DWORD PTR _iwidth$[ebp]
  00055	50		 push	 eax
  00056	6a 03		 push	 3
  00058	56		 push	 esi
  00059	e8 00 00 00 00	 call	 ?PyTuple_GetInteger@@YA_NPAU_object@@HPAH@Z ; PyTuple_GetInteger
  0005e	83 c4 0c	 add	 esp, 12			; 0000000cH
  00061	84 c0		 test	 al, al
  00063	74 b8		 je	 SHORT $LN8@wndButtonS

; 2267 : 		return Py_BuildException();
; 2268 : 	int iheight;
; 2269 : 	if (!PyTuple_GetInteger(poArgs, 4, &iheight))

  00065	8d 45 fc	 lea	 eax, DWORD PTR _iheight$[ebp]
  00068	50		 push	 eax
  00069	6a 04		 push	 4
  0006b	56		 push	 esi
  0006c	e8 00 00 00 00	 call	 ?PyTuple_GetInteger@@YA_NPAU_object@@HPAH@Z ; PyTuple_GetInteger
  00071	83 c4 0c	 add	 esp, 12			; 0000000cH
  00074	84 c0		 test	 al, al
  00076	74 a5		 je	 SHORT $LN8@wndButtonS

; 2270 : 		return Py_BuildException();
; 2271 : 
; 2272 : 	((UI::CDragButton*)pWindow)->SetRestrictMovementArea(ix, iy, iwidth, iheight);

  00078	ff 75 fc	 push	 DWORD PTR _iheight$[ebp]
  0007b	8b 4d ec	 mov	 ecx, DWORD PTR _pWindow$[ebp]
  0007e	ff 75 f8	 push	 DWORD PTR _iwidth$[ebp]
  00081	ff 75 f4	 push	 DWORD PTR _iy$[ebp]
  00084	ff 75 f0	 push	 DWORD PTR _ix$[ebp]
  00087	e8 00 00 00 00	 call	 ?SetRestrictMovementArea@CDragButton@UI@@QAEXHHHH@Z ; UI::CDragButton::SetRestrictMovementArea

; 2273 : 
; 2274 : 	return Py_BuildNone();

  0008c	e8 00 00 00 00	 call	 ?Py_BuildNone@@YAPAU_object@@XZ ; Py_BuildNone
  00091	5e		 pop	 esi

; 2275 : }

  00092	8b e5		 mov	 esp, ebp
  00094	5d		 pop	 ebp
  00095	c3		 ret	 0
?wndButtonSetRestrictMovementArea@@YAPAU_object@@PAU1@0@Z ENDP ; wndButtonSetRestrictMovementArea
_TEXT	ENDS
; Function compile flags: /Ogtp
; File C:\DS Project\DS Files\Source\ClientSource\Client\eterPythonLib\PythonWindowManagerModule.cpp
;	COMDAT ?wndButtonSetUp@@YAPAU_object@@PAU1@0@Z
_TEXT	SEGMENT
_pWindow$ = -4						; size = 4
_poSelf$ = 8						; size = 4
_poArgs$ = 12						; size = 4
?wndButtonSetUp@@YAPAU_object@@PAU1@0@Z PROC		; wndButtonSetUp, COMDAT

; 2245 : {

  00000	55		 push	 ebp
  00001	8b ec		 mov	 ebp, esp
  00003	51		 push	 ecx

; 2246 : 	UI::CWindow * pWindow;
; 2247 : 	if (!PyTuple_GetWindow(poArgs, 0, &pWindow))

  00004	8d 45 fc	 lea	 eax, DWORD PTR _pWindow$[ebp]
  00007	50		 push	 eax
  00008	6a 00		 push	 0
  0000a	ff 75 0c	 push	 DWORD PTR _poArgs$[ebp]
  0000d	e8 00 00 00 00	 call	 ?PyTuple_GetWindow@@YA_NPAU_object@@HPAPAVCWindow@UI@@@Z ; PyTuple_GetWindow
  00012	83 c4 0c	 add	 esp, 12			; 0000000cH
  00015	84 c0		 test	 al, al
  00017	75 0e		 jne	 SHORT $LN2@wndButtonS

; 2248 : 		return Py_BuildException();

  00019	6a 00		 push	 0
  0001b	e8 00 00 00 00	 call	 ?Py_BuildException@@YAPAU_object@@PBDZZ ; Py_BuildException
  00020	83 c4 04	 add	 esp, 4

; 2253 : }

  00023	8b e5		 mov	 esp, ebp
  00025	5d		 pop	 ebp
  00026	c3		 ret	 0
$LN2@wndButtonS:

; 2249 : 
; 2250 : 	((UI::CButton*)pWindow)->SetUp();

  00027	8b 4d fc	 mov	 ecx, DWORD PTR _pWindow$[ebp]
  0002a	e8 00 00 00 00	 call	 ?SetUp@CButton@UI@@QAEXXZ ; UI::CButton::SetUp

; 2251 : 
; 2252 : 	return Py_BuildNone();

  0002f	e8 00 00 00 00	 call	 ?Py_BuildNone@@YAPAU_object@@XZ ; Py_BuildNone

; 2253 : }

  00034	8b e5		 mov	 esp, ebp
  00036	5d		 pop	 ebp
  00037	c3		 ret	 0
?wndButtonSetUp@@YAPAU_object@@PAU1@0@Z ENDP		; wndButtonSetUp
_TEXT	ENDS
; Function compile flags: /Ogtp
; File C:\DS Project\DS Files\Source\ClientSource\Client\eterPythonLib\PythonWindowManagerModule.cpp
;	COMDAT ?wndButtonDown@@YAPAU_object@@PAU1@0@Z
_TEXT	SEGMENT
_pWindow$ = -4						; size = 4
_poSelf$ = 8						; size = 4
_poArgs$ = 12						; size = 4
?wndButtonDown@@YAPAU_object@@PAU1@0@Z PROC		; wndButtonDown, COMDAT

; 2235 : {

  00000	55		 push	 ebp
  00001	8b ec		 mov	 ebp, esp
  00003	51		 push	 ecx

; 2236 : 	UI::CWindow * pWindow;
; 2237 : 	if (!PyTuple_GetWindow(poArgs, 0, &pWindow))

  00004	8d 45 fc	 lea	 eax, DWORD PTR _pWindow$[ebp]
  00007	50		 push	 eax
  00008	6a 00		 push	 0
  0000a	ff 75 0c	 push	 DWORD PTR _poArgs$[ebp]
  0000d	e8 00 00 00 00	 call	 ?PyTuple_GetWindow@@YA_NPAU_object@@HPAPAVCWindow@UI@@@Z ; PyTuple_GetWindow
  00012	83 c4 0c	 add	 esp, 12			; 0000000cH
  00015	84 c0		 test	 al, al
  00017	75 0e		 jne	 SHORT $LN2@wndButtonD

; 2238 : 		return Py_BuildException();

  00019	6a 00		 push	 0
  0001b	e8 00 00 00 00	 call	 ?Py_BuildException@@YAPAU_object@@PBDZZ ; Py_BuildException
  00020	83 c4 04	 add	 esp, 4

; 2243 : }

  00023	8b e5		 mov	 esp, ebp
  00025	5d		 pop	 ebp
  00026	c3		 ret	 0
$LN2@wndButtonD:

; 2239 : 
; 2240 : 	((UI::CButton*)pWindow)->Down();

  00027	8b 4d fc	 mov	 ecx, DWORD PTR _pWindow$[ebp]
  0002a	e8 00 00 00 00	 call	 ?Down@CButton@UI@@QAEXXZ ; UI::CButton::Down

; 2241 : 
; 2242 : 	return Py_BuildNone();

  0002f	e8 00 00 00 00	 call	 ?Py_BuildNone@@YAPAU_object@@XZ ; Py_BuildNone

; 2243 : }

  00034	8b e5		 mov	 esp, ebp
  00036	5d		 pop	 ebp
  00037	c3		 ret	 0
?wndButtonDown@@YAPAU_object@@PAU1@0@Z ENDP		; wndButtonDown
_TEXT	ENDS
; Function compile flags: /Ogtp
; File C:\DS Project\DS Files\Source\ClientSource\Client\eterPythonLib\PythonWindowManagerModule.cpp
;	COMDAT ?wndButtonDisable@@YAPAU_object@@PAU1@0@Z
_TEXT	SEGMENT
_pWindow$ = -4						; size = 4
_poSelf$ = 8						; size = 4
_poArgs$ = 12						; size = 4
?wndButtonDisable@@YAPAU_object@@PAU1@0@Z PROC		; wndButtonDisable, COMDAT

; 2225 : {

  00000	55		 push	 ebp
  00001	8b ec		 mov	 ebp, esp
  00003	51		 push	 ecx

; 2226 : 	UI::CWindow * pWindow;
; 2227 : 	if (!PyTuple_GetWindow(poArgs, 0, &pWindow))

  00004	8d 45 fc	 lea	 eax, DWORD PTR _pWindow$[ebp]
  00007	50		 push	 eax
  00008	6a 00		 push	 0
  0000a	ff 75 0c	 push	 DWORD PTR _poArgs$[ebp]
  0000d	e8 00 00 00 00	 call	 ?PyTuple_GetWindow@@YA_NPAU_object@@HPAPAVCWindow@UI@@@Z ; PyTuple_GetWindow
  00012	83 c4 0c	 add	 esp, 12			; 0000000cH
  00015	84 c0		 test	 al, al
  00017	75 0e		 jne	 SHORT $LN2@wndButtonD

; 2228 : 		return Py_BuildException();

  00019	6a 00		 push	 0
  0001b	e8 00 00 00 00	 call	 ?Py_BuildException@@YAPAU_object@@PBDZZ ; Py_BuildException
  00020	83 c4 04	 add	 esp, 4

; 2233 : }

  00023	8b e5		 mov	 esp, ebp
  00025	5d		 pop	 ebp
  00026	c3		 ret	 0
$LN2@wndButtonD:

; 2229 : 
; 2230 : 	((UI::CButton*)pWindow)->Disable();

  00027	8b 4d fc	 mov	 ecx, DWORD PTR _pWindow$[ebp]
  0002a	e8 00 00 00 00	 call	 ?Disable@CButton@UI@@QAEXXZ ; UI::CButton::Disable

; 2231 : 
; 2232 : 	return Py_BuildNone();

  0002f	e8 00 00 00 00	 call	 ?Py_BuildNone@@YAPAU_object@@XZ ; Py_BuildNone

; 2233 : }

  00034	8b e5		 mov	 esp, ebp
  00036	5d		 pop	 ebp
  00037	c3		 ret	 0
?wndButtonDisable@@YAPAU_object@@PAU1@0@Z ENDP		; wndButtonDisable
_TEXT	ENDS
; Function compile flags: /Ogtp
; File C:\DS Project\DS Files\Source\ClientSource\Client\eterPythonLib\PythonWindowManagerModule.cpp
;	COMDAT ?wndButtonEnable@@YAPAU_object@@PAU1@0@Z
_TEXT	SEGMENT
_pWindow$ = -4						; size = 4
_poSelf$ = 8						; size = 4
_poArgs$ = 12						; size = 4
?wndButtonEnable@@YAPAU_object@@PAU1@0@Z PROC		; wndButtonEnable, COMDAT

; 2215 : {

  00000	55		 push	 ebp
  00001	8b ec		 mov	 ebp, esp
  00003	51		 push	 ecx

; 2216 : 	UI::CWindow * pWindow;
; 2217 : 	if (!PyTuple_GetWindow(poArgs, 0, &pWindow))

  00004	8d 45 fc	 lea	 eax, DWORD PTR _pWindow$[ebp]
  00007	50		 push	 eax
  00008	6a 00		 push	 0
  0000a	ff 75 0c	 push	 DWORD PTR _poArgs$[ebp]
  0000d	e8 00 00 00 00	 call	 ?PyTuple_GetWindow@@YA_NPAU_object@@HPAPAVCWindow@UI@@@Z ; PyTuple_GetWindow
  00012	83 c4 0c	 add	 esp, 12			; 0000000cH
  00015	84 c0		 test	 al, al
  00017	75 0e		 jne	 SHORT $LN2@wndButtonE

; 2218 : 		return Py_BuildException();

  00019	6a 00		 push	 0
  0001b	e8 00 00 00 00	 call	 ?Py_BuildException@@YAPAU_object@@PBDZZ ; Py_BuildException
  00020	83 c4 04	 add	 esp, 4

; 2223 : }

  00023	8b e5		 mov	 esp, ebp
  00025	5d		 pop	 ebp
  00026	c3		 ret	 0
$LN2@wndButtonE:

; 2219 : 
; 2220 : 	((UI::CButton*)pWindow)->Enable();

  00027	8b 4d fc	 mov	 ecx, DWORD PTR _pWindow$[ebp]
  0002a	e8 00 00 00 00	 call	 ?Enable@CButton@UI@@QAEXXZ ; UI::CButton::Enable

; 2221 : 
; 2222 : 	return Py_BuildNone();

  0002f	e8 00 00 00 00	 call	 ?Py_BuildNone@@YAPAU_object@@XZ ; Py_BuildNone

; 2223 : }

  00034	8b e5		 mov	 esp, ebp
  00036	5d		 pop	 ebp
  00037	c3		 ret	 0
?wndButtonEnable@@YAPAU_object@@PAU1@0@Z ENDP		; wndButtonEnable
_TEXT	ENDS
; Function compile flags: /Ogtp
; File C:\DS Project\DS Files\Source\ClientSource\Client\eterPythonLib\PythonWindowManagerModule.cpp
;	COMDAT ?wndButtonFlash@@YAPAU_object@@PAU1@0@Z
_TEXT	SEGMENT
_pWindow$ = -4						; size = 4
_poSelf$ = 8						; size = 4
_poArgs$ = 12						; size = 4
?wndButtonFlash@@YAPAU_object@@PAU1@0@Z PROC		; wndButtonFlash, COMDAT

; 2205 : {

  00000	55		 push	 ebp
  00001	8b ec		 mov	 ebp, esp
  00003	51		 push	 ecx

; 2206 : 	UI::CWindow * pWindow;
; 2207 : 	if (!PyTuple_GetWindow(poArgs, 0, &pWindow))

  00004	8d 45 fc	 lea	 eax, DWORD PTR _pWindow$[ebp]
  00007	50		 push	 eax
  00008	6a 00		 push	 0
  0000a	ff 75 0c	 push	 DWORD PTR _poArgs$[ebp]
  0000d	e8 00 00 00 00	 call	 ?PyTuple_GetWindow@@YA_NPAU_object@@HPAPAVCWindow@UI@@@Z ; PyTuple_GetWindow
  00012	83 c4 0c	 add	 esp, 12			; 0000000cH
  00015	84 c0		 test	 al, al
  00017	75 0e		 jne	 SHORT $LN2@wndButtonF

; 2208 : 		return Py_BuildException();

  00019	6a 00		 push	 0
  0001b	e8 00 00 00 00	 call	 ?Py_BuildException@@YAPAU_object@@PBDZZ ; Py_BuildException
  00020	83 c4 04	 add	 esp, 4

; 2213 : }

  00023	8b e5		 mov	 esp, ebp
  00025	5d		 pop	 ebp
  00026	c3		 ret	 0
$LN2@wndButtonF:

; 2209 : 
; 2210 : 	((UI::CButton*)pWindow)->Flash();

  00027	8b 4d fc	 mov	 ecx, DWORD PTR _pWindow$[ebp]
  0002a	e8 00 00 00 00	 call	 ?Flash@CButton@UI@@QAEXXZ ; UI::CButton::Flash

; 2211 : 
; 2212 : 	return Py_BuildNone();

  0002f	e8 00 00 00 00	 call	 ?Py_BuildNone@@YAPAU_object@@XZ ; Py_BuildNone

; 2213 : }

  00034	8b e5		 mov	 esp, ebp
  00036	5d		 pop	 ebp
  00037	c3		 ret	 0
?wndButtonFlash@@YAPAU_object@@PAU1@0@Z ENDP		; wndButtonFlash
_TEXT	ENDS
; Function compile flags: /Ogtp
; File C:\DS Project\DS Files\Source\ClientSource\Client\eterPythonLib\PythonWindowManagerModule.cpp
;	COMDAT ?wndButtonGetDownVisualFileName@@YAPAU_object@@PAU1@0@Z
_TEXT	SEGMENT
_pWindow$ = -4						; size = 4
_poSelf$ = 8						; size = 4
_poArgs$ = 12						; size = 4
?wndButtonGetDownVisualFileName@@YAPAU_object@@PAU1@0@Z PROC ; wndButtonGetDownVisualFileName, COMDAT

; 2197 : {

  00000	55		 push	 ebp
  00001	8b ec		 mov	 ebp, esp
  00003	51		 push	 ecx

; 2198 : 	UI::CWindow * pWindow;
; 2199 : 	if (!PyTuple_GetWindow(poArgs, 0, &pWindow))

  00004	8d 45 fc	 lea	 eax, DWORD PTR _pWindow$[ebp]
  00007	50		 push	 eax
  00008	6a 00		 push	 0
  0000a	ff 75 0c	 push	 DWORD PTR _poArgs$[ebp]
  0000d	e8 00 00 00 00	 call	 ?PyTuple_GetWindow@@YA_NPAU_object@@HPAPAVCWindow@UI@@@Z ; PyTuple_GetWindow
  00012	83 c4 0c	 add	 esp, 12			; 0000000cH
  00015	84 c0		 test	 al, al
  00017	75 0e		 jne	 SHORT $LN2@wndButtonG

; 2200 : 		return Py_BuildException();

  00019	6a 00		 push	 0
  0001b	e8 00 00 00 00	 call	 ?Py_BuildException@@YAPAU_object@@PBDZZ ; Py_BuildException
  00020	83 c4 04	 add	 esp, 4

; 2203 : }

  00023	8b e5		 mov	 esp, ebp
  00025	5d		 pop	 ebp
  00026	c3		 ret	 0
$LN2@wndButtonG:

; 2201 : 
; 2202 : 	return Py_BuildValue("s", ((UI::CButton*)pWindow)->GetDownVisualFileName());

  00027	8b 4d fc	 mov	 ecx, DWORD PTR _pWindow$[ebp]
  0002a	e8 00 00 00 00	 call	 ?GetDownVisualFileName@CButton@UI@@QAEPBDXZ ; UI::CButton::GetDownVisualFileName
  0002f	50		 push	 eax
  00030	68 00 00 00 00	 push	 OFFSET ??_C@_01LKDEMHDF@s@
  00035	ff 15 00 00 00
	00		 call	 DWORD PTR __imp__Py_BuildValue
  0003b	83 c4 08	 add	 esp, 8

; 2203 : }

  0003e	8b e5		 mov	 esp, ebp
  00040	5d		 pop	 ebp
  00041	c3		 ret	 0
?wndButtonGetDownVisualFileName@@YAPAU_object@@PAU1@0@Z ENDP ; wndButtonGetDownVisualFileName
_TEXT	ENDS
; Function compile flags: /Ogtp
; File C:\DS Project\DS Files\Source\ClientSource\Client\eterPythonLib\PythonWindowManagerModule.cpp
;	COMDAT ?wndButtonGetOverVisualFileName@@YAPAU_object@@PAU1@0@Z
_TEXT	SEGMENT
_pWindow$ = -4						; size = 4
_poSelf$ = 8						; size = 4
_poArgs$ = 12						; size = 4
?wndButtonGetOverVisualFileName@@YAPAU_object@@PAU1@0@Z PROC ; wndButtonGetOverVisualFileName, COMDAT

; 2189 : {

  00000	55		 push	 ebp
  00001	8b ec		 mov	 ebp, esp
  00003	51		 push	 ecx

; 2190 : 	UI::CWindow * pWindow;
; 2191 : 	if (!PyTuple_GetWindow(poArgs, 0, &pWindow))

  00004	8d 45 fc	 lea	 eax, DWORD PTR _pWindow$[ebp]
  00007	50		 push	 eax
  00008	6a 00		 push	 0
  0000a	ff 75 0c	 push	 DWORD PTR _poArgs$[ebp]
  0000d	e8 00 00 00 00	 call	 ?PyTuple_GetWindow@@YA_NPAU_object@@HPAPAVCWindow@UI@@@Z ; PyTuple_GetWindow
  00012	83 c4 0c	 add	 esp, 12			; 0000000cH
  00015	84 c0		 test	 al, al
  00017	75 0e		 jne	 SHORT $LN2@wndButtonG

; 2192 : 		return Py_BuildException();

  00019	6a 00		 push	 0
  0001b	e8 00 00 00 00	 call	 ?Py_BuildException@@YAPAU_object@@PBDZZ ; Py_BuildException
  00020	83 c4 04	 add	 esp, 4

; 2195 : }

  00023	8b e5		 mov	 esp, ebp
  00025	5d		 pop	 ebp
  00026	c3		 ret	 0
$LN2@wndButtonG:

; 2193 : 
; 2194 : 	return Py_BuildValue("s", ((UI::CButton*)pWindow)->GetOverVisualFileName());

  00027	8b 4d fc	 mov	 ecx, DWORD PTR _pWindow$[ebp]
  0002a	e8 00 00 00 00	 call	 ?GetOverVisualFileName@CButton@UI@@QAEPBDXZ ; UI::CButton::GetOverVisualFileName
  0002f	50		 push	 eax
  00030	68 00 00 00 00	 push	 OFFSET ??_C@_01LKDEMHDF@s@
  00035	ff 15 00 00 00
	00		 call	 DWORD PTR __imp__Py_BuildValue
  0003b	83 c4 08	 add	 esp, 8

; 2195 : }

  0003e	8b e5		 mov	 esp, ebp
  00040	5d		 pop	 ebp
  00041	c3		 ret	 0
?wndButtonGetOverVisualFileName@@YAPAU_object@@PAU1@0@Z ENDP ; wndButtonGetOverVisualFileName
_TEXT	ENDS
; Function compile flags: /Ogtp
; File C:\DS Project\DS Files\Source\ClientSource\Client\eterPythonLib\PythonWindowManagerModule.cpp
;	COMDAT ?wndButtonGetUpVisualFileName@@YAPAU_object@@PAU1@0@Z
_TEXT	SEGMENT
_pWindow$ = -4						; size = 4
_poSelf$ = 8						; size = 4
_poArgs$ = 12						; size = 4
?wndButtonGetUpVisualFileName@@YAPAU_object@@PAU1@0@Z PROC ; wndButtonGetUpVisualFileName, COMDAT

; 2181 : {

  00000	55		 push	 ebp
  00001	8b ec		 mov	 ebp, esp
  00003	51		 push	 ecx

; 2182 : 	UI::CWindow * pWindow;
; 2183 : 	if (!PyTuple_GetWindow(poArgs, 0, &pWindow))

  00004	8d 45 fc	 lea	 eax, DWORD PTR _pWindow$[ebp]
  00007	50		 push	 eax
  00008	6a 00		 push	 0
  0000a	ff 75 0c	 push	 DWORD PTR _poArgs$[ebp]
  0000d	e8 00 00 00 00	 call	 ?PyTuple_GetWindow@@YA_NPAU_object@@HPAPAVCWindow@UI@@@Z ; PyTuple_GetWindow
  00012	83 c4 0c	 add	 esp, 12			; 0000000cH
  00015	84 c0		 test	 al, al
  00017	75 0e		 jne	 SHORT $LN2@wndButtonG

; 2184 : 		return Py_BuildException();

  00019	6a 00		 push	 0
  0001b	e8 00 00 00 00	 call	 ?Py_BuildException@@YAPAU_object@@PBDZZ ; Py_BuildException
  00020	83 c4 04	 add	 esp, 4

; 2187 : }

  00023	8b e5		 mov	 esp, ebp
  00025	5d		 pop	 ebp
  00026	c3		 ret	 0
$LN2@wndButtonG:

; 2185 : 
; 2186 : 	return Py_BuildValue("s", ((UI::CButton*)pWindow)->GetUpVisualFileName());

  00027	8b 4d fc	 mov	 ecx, DWORD PTR _pWindow$[ebp]
  0002a	e8 00 00 00 00	 call	 ?GetUpVisualFileName@CButton@UI@@QAEPBDXZ ; UI::CButton::GetUpVisualFileName
  0002f	50		 push	 eax
  00030	68 00 00 00 00	 push	 OFFSET ??_C@_01LKDEMHDF@s@
  00035	ff 15 00 00 00
	00		 call	 DWORD PTR __imp__Py_BuildValue
  0003b	83 c4 08	 add	 esp, 8

; 2187 : }

  0003e	8b e5		 mov	 esp, ebp
  00040	5d		 pop	 ebp
  00041	c3		 ret	 0
?wndButtonGetUpVisualFileName@@YAPAU_object@@PAU1@0@Z ENDP ; wndButtonGetUpVisualFileName
_TEXT	ENDS
; Function compile flags: /Ogtp
; File C:\DS Project\DS Files\Source\ClientSource\Client\eterPythonLib\PythonWindowManagerModule.cpp
;	COMDAT ?wndButtonSetDisableVisual@@YAPAU_object@@PAU1@0@Z
_TEXT	SEGMENT
_pWindow$ = -8						; size = 4
_szFileName$ = -4					; size = 4
_poSelf$ = 8						; size = 4
_poArgs$ = 12						; size = 4
?wndButtonSetDisableVisual@@YAPAU_object@@PAU1@0@Z PROC	; wndButtonSetDisableVisual, COMDAT

; 2168 : {

  00000	55		 push	 ebp
  00001	8b ec		 mov	 ebp, esp
  00003	83 ec 08	 sub	 esp, 8

; 2169 : 	UI::CWindow * pWindow;
; 2170 : 	if (!PyTuple_GetWindow(poArgs, 0, &pWindow))

  00006	8d 45 f8	 lea	 eax, DWORD PTR _pWindow$[ebp]
  00009	50		 push	 eax
  0000a	6a 00		 push	 0
  0000c	ff 75 0c	 push	 DWORD PTR _poArgs$[ebp]
  0000f	e8 00 00 00 00	 call	 ?PyTuple_GetWindow@@YA_NPAU_object@@HPAPAVCWindow@UI@@@Z ; PyTuple_GetWindow
  00014	83 c4 0c	 add	 esp, 12			; 0000000cH
  00017	84 c0		 test	 al, al
  00019	75 0e		 jne	 SHORT $LN2@wndButtonS
$LN5@wndButtonS:

; 2179 : }

  0001b	6a 00		 push	 0
  0001d	e8 00 00 00 00	 call	 ?Py_BuildException@@YAPAU_object@@PBDZZ ; Py_BuildException
  00022	83 c4 04	 add	 esp, 4
  00025	8b e5		 mov	 esp, ebp
  00027	5d		 pop	 ebp
  00028	c3		 ret	 0
$LN2@wndButtonS:

; 2171 : 		return Py_BuildException();
; 2172 : 	char * szFileName;
; 2173 : 	if (!PyTuple_GetString(poArgs, 1, &szFileName))

  00029	8d 45 fc	 lea	 eax, DWORD PTR _szFileName$[ebp]
  0002c	50		 push	 eax
  0002d	6a 01		 push	 1
  0002f	ff 75 0c	 push	 DWORD PTR _poArgs$[ebp]
  00032	e8 00 00 00 00	 call	 ?PyTuple_GetString@@YA_NPAU_object@@HPAPAD@Z ; PyTuple_GetString
  00037	83 c4 0c	 add	 esp, 12			; 0000000cH
  0003a	84 c0		 test	 al, al
  0003c	74 dd		 je	 SHORT $LN5@wndButtonS

; 2174 : 		return Py_BuildException();
; 2175 : 
; 2176 : 	((UI::CButton*)pWindow)->SetDisableVisual(szFileName);

  0003e	ff 75 fc	 push	 DWORD PTR _szFileName$[ebp]
  00041	8b 4d f8	 mov	 ecx, DWORD PTR _pWindow$[ebp]
  00044	e8 00 00 00 00	 call	 ?SetDisableVisual@CButton@UI@@QAEHPBD@Z ; UI::CButton::SetDisableVisual

; 2177 : 
; 2178 : 	return Py_BuildNone();

  00049	e8 00 00 00 00	 call	 ?Py_BuildNone@@YAPAU_object@@XZ ; Py_BuildNone

; 2179 : }

  0004e	8b e5		 mov	 esp, ebp
  00050	5d		 pop	 ebp
  00051	c3		 ret	 0
?wndButtonSetDisableVisual@@YAPAU_object@@PAU1@0@Z ENDP	; wndButtonSetDisableVisual
_TEXT	ENDS
; Function compile flags: /Ogtp
; File C:\DS Project\DS Files\Source\ClientSource\Client\eterPythonLib\PythonWindowManagerModule.cpp
;	COMDAT ?wndButtonSetDownVisual@@YAPAU_object@@PAU1@0@Z
_TEXT	SEGMENT
_pWindow$ = -8						; size = 4
_szFileName$ = -4					; size = 4
_poSelf$ = 8						; size = 4
_poArgs$ = 12						; size = 4
?wndButtonSetDownVisual@@YAPAU_object@@PAU1@0@Z PROC	; wndButtonSetDownVisual, COMDAT

; 2155 : {

  00000	55		 push	 ebp
  00001	8b ec		 mov	 ebp, esp
  00003	83 ec 08	 sub	 esp, 8

; 2156 : 	UI::CWindow * pWindow;
; 2157 : 	if (!PyTuple_GetWindow(poArgs, 0, &pWindow))

  00006	8d 45 f8	 lea	 eax, DWORD PTR _pWindow$[ebp]
  00009	50		 push	 eax
  0000a	6a 00		 push	 0
  0000c	ff 75 0c	 push	 DWORD PTR _poArgs$[ebp]
  0000f	e8 00 00 00 00	 call	 ?PyTuple_GetWindow@@YA_NPAU_object@@HPAPAVCWindow@UI@@@Z ; PyTuple_GetWindow
  00014	83 c4 0c	 add	 esp, 12			; 0000000cH
  00017	84 c0		 test	 al, al
  00019	75 0e		 jne	 SHORT $LN2@wndButtonS
$LN5@wndButtonS:

; 2166 : }

  0001b	6a 00		 push	 0
  0001d	e8 00 00 00 00	 call	 ?Py_BuildException@@YAPAU_object@@PBDZZ ; Py_BuildException
  00022	83 c4 04	 add	 esp, 4
  00025	8b e5		 mov	 esp, ebp
  00027	5d		 pop	 ebp
  00028	c3		 ret	 0
$LN2@wndButtonS:

; 2158 : 		return Py_BuildException();
; 2159 : 	char * szFileName;
; 2160 : 	if (!PyTuple_GetString(poArgs, 1, &szFileName))

  00029	8d 45 fc	 lea	 eax, DWORD PTR _szFileName$[ebp]
  0002c	50		 push	 eax
  0002d	6a 01		 push	 1
  0002f	ff 75 0c	 push	 DWORD PTR _poArgs$[ebp]
  00032	e8 00 00 00 00	 call	 ?PyTuple_GetString@@YA_NPAU_object@@HPAPAD@Z ; PyTuple_GetString
  00037	83 c4 0c	 add	 esp, 12			; 0000000cH
  0003a	84 c0		 test	 al, al
  0003c	74 dd		 je	 SHORT $LN5@wndButtonS

; 2161 : 		return Py_BuildException();
; 2162 : 
; 2163 : 	((UI::CButton*)pWindow)->SetDownVisual(szFileName);

  0003e	ff 75 fc	 push	 DWORD PTR _szFileName$[ebp]
  00041	8b 4d f8	 mov	 ecx, DWORD PTR _pWindow$[ebp]
  00044	e8 00 00 00 00	 call	 ?SetDownVisual@CButton@UI@@QAEHPBD@Z ; UI::CButton::SetDownVisual

; 2164 : 
; 2165 : 	return Py_BuildNone();

  00049	e8 00 00 00 00	 call	 ?Py_BuildNone@@YAPAU_object@@XZ ; Py_BuildNone

; 2166 : }

  0004e	8b e5		 mov	 esp, ebp
  00050	5d		 pop	 ebp
  00051	c3		 ret	 0
?wndButtonSetDownVisual@@YAPAU_object@@PAU1@0@Z ENDP	; wndButtonSetDownVisual
_TEXT	ENDS
; Function compile flags: /Ogtp
; File C:\DS Project\DS Files\Source\ClientSource\Client\eterPythonLib\PythonWindowManagerModule.cpp
;	COMDAT ?wndButtonSetOverVisual@@YAPAU_object@@PAU1@0@Z
_TEXT	SEGMENT
_pWindow$ = -8						; size = 4
_szFileName$ = -4					; size = 4
_poSelf$ = 8						; size = 4
_poArgs$ = 12						; size = 4
?wndButtonSetOverVisual@@YAPAU_object@@PAU1@0@Z PROC	; wndButtonSetOverVisual, COMDAT

; 2142 : {

  00000	55		 push	 ebp
  00001	8b ec		 mov	 ebp, esp
  00003	83 ec 08	 sub	 esp, 8

; 2143 : 	UI::CWindow * pWindow;
; 2144 : 	if (!PyTuple_GetWindow(poArgs, 0, &pWindow))

  00006	8d 45 f8	 lea	 eax, DWORD PTR _pWindow$[ebp]
  00009	50		 push	 eax
  0000a	6a 00		 push	 0
  0000c	ff 75 0c	 push	 DWORD PTR _poArgs$[ebp]
  0000f	e8 00 00 00 00	 call	 ?PyTuple_GetWindow@@YA_NPAU_object@@HPAPAVCWindow@UI@@@Z ; PyTuple_GetWindow
  00014	83 c4 0c	 add	 esp, 12			; 0000000cH
  00017	84 c0		 test	 al, al
  00019	75 0e		 jne	 SHORT $LN2@wndButtonS
$LN5@wndButtonS:

; 2153 : }

  0001b	6a 00		 push	 0
  0001d	e8 00 00 00 00	 call	 ?Py_BuildException@@YAPAU_object@@PBDZZ ; Py_BuildException
  00022	83 c4 04	 add	 esp, 4
  00025	8b e5		 mov	 esp, ebp
  00027	5d		 pop	 ebp
  00028	c3		 ret	 0
$LN2@wndButtonS:

; 2145 : 		return Py_BuildException();
; 2146 : 	char * szFileName;
; 2147 : 	if (!PyTuple_GetString(poArgs, 1, &szFileName))

  00029	8d 45 fc	 lea	 eax, DWORD PTR _szFileName$[ebp]
  0002c	50		 push	 eax
  0002d	6a 01		 push	 1
  0002f	ff 75 0c	 push	 DWORD PTR _poArgs$[ebp]
  00032	e8 00 00 00 00	 call	 ?PyTuple_GetString@@YA_NPAU_object@@HPAPAD@Z ; PyTuple_GetString
  00037	83 c4 0c	 add	 esp, 12			; 0000000cH
  0003a	84 c0		 test	 al, al
  0003c	74 dd		 je	 SHORT $LN5@wndButtonS

; 2148 : 		return Py_BuildException();
; 2149 : 
; 2150 : 	((UI::CButton*)pWindow)->SetOverVisual(szFileName);

  0003e	ff 75 fc	 push	 DWORD PTR _szFileName$[ebp]
  00041	8b 4d f8	 mov	 ecx, DWORD PTR _pWindow$[ebp]
  00044	e8 00 00 00 00	 call	 ?SetOverVisual@CButton@UI@@QAEHPBD@Z ; UI::CButton::SetOverVisual

; 2151 : 
; 2152 : 	return Py_BuildNone();

  00049	e8 00 00 00 00	 call	 ?Py_BuildNone@@YAPAU_object@@XZ ; Py_BuildNone

; 2153 : }

  0004e	8b e5		 mov	 esp, ebp
  00050	5d		 pop	 ebp
  00051	c3		 ret	 0
?wndButtonSetOverVisual@@YAPAU_object@@PAU1@0@Z ENDP	; wndButtonSetOverVisual
_TEXT	ENDS
; Function compile flags: /Ogtp
; File C:\DS Project\DS Files\Source\ClientSource\Client\eterPythonLib\PythonWindowManagerModule.cpp
;	COMDAT ?wndButtonSetUpVisual@@YAPAU_object@@PAU1@0@Z
_TEXT	SEGMENT
_pWindow$ = -8						; size = 4
_szFileName$ = -4					; size = 4
_poSelf$ = 8						; size = 4
_poArgs$ = 12						; size = 4
?wndButtonSetUpVisual@@YAPAU_object@@PAU1@0@Z PROC	; wndButtonSetUpVisual, COMDAT

; 2129 : {

  00000	55		 push	 ebp
  00001	8b ec		 mov	 ebp, esp
  00003	83 ec 08	 sub	 esp, 8

; 2130 : 	UI::CWindow * pWindow;
; 2131 : 	if (!PyTuple_GetWindow(poArgs, 0, &pWindow))

  00006	8d 45 f8	 lea	 eax, DWORD PTR _pWindow$[ebp]
  00009	50		 push	 eax
  0000a	6a 00		 push	 0
  0000c	ff 75 0c	 push	 DWORD PTR _poArgs$[ebp]
  0000f	e8 00 00 00 00	 call	 ?PyTuple_GetWindow@@YA_NPAU_object@@HPAPAVCWindow@UI@@@Z ; PyTuple_GetWindow
  00014	83 c4 0c	 add	 esp, 12			; 0000000cH
  00017	84 c0		 test	 al, al
  00019	75 0e		 jne	 SHORT $LN2@wndButtonS
$LN5@wndButtonS:

; 2140 : }

  0001b	6a 00		 push	 0
  0001d	e8 00 00 00 00	 call	 ?Py_BuildException@@YAPAU_object@@PBDZZ ; Py_BuildException
  00022	83 c4 04	 add	 esp, 4
  00025	8b e5		 mov	 esp, ebp
  00027	5d		 pop	 ebp
  00028	c3		 ret	 0
$LN2@wndButtonS:

; 2132 : 		return Py_BuildException();
; 2133 : 	char * szFileName;
; 2134 : 	if (!PyTuple_GetString(poArgs, 1, &szFileName))

  00029	8d 45 fc	 lea	 eax, DWORD PTR _szFileName$[ebp]
  0002c	50		 push	 eax
  0002d	6a 01		 push	 1
  0002f	ff 75 0c	 push	 DWORD PTR _poArgs$[ebp]
  00032	e8 00 00 00 00	 call	 ?PyTuple_GetString@@YA_NPAU_object@@HPAPAD@Z ; PyTuple_GetString
  00037	83 c4 0c	 add	 esp, 12			; 0000000cH
  0003a	84 c0		 test	 al, al
  0003c	74 dd		 je	 SHORT $LN5@wndButtonS

; 2135 : 		return Py_BuildException();
; 2136 : 
; 2137 : 	((UI::CButton*)pWindow)->SetUpVisual(szFileName);

  0003e	ff 75 fc	 push	 DWORD PTR _szFileName$[ebp]
  00041	8b 4d f8	 mov	 ecx, DWORD PTR _pWindow$[ebp]
  00044	e8 00 00 00 00	 call	 ?SetUpVisual@CButton@UI@@QAEHPBD@Z ; UI::CButton::SetUpVisual

; 2138 : 
; 2139 : 	return Py_BuildNone();

  00049	e8 00 00 00 00	 call	 ?Py_BuildNone@@YAPAU_object@@XZ ; Py_BuildNone

; 2140 : }

  0004e	8b e5		 mov	 esp, ebp
  00050	5d		 pop	 ebp
  00051	c3		 ret	 0
?wndButtonSetUpVisual@@YAPAU_object@@PAU1@0@Z ENDP	; wndButtonSetUpVisual
_TEXT	ENDS
; Function compile flags: /Ogtp
; File C:\DS Project\DS Files\Source\ClientSource\Client\eterPythonLib\PythonWindowManagerModule.cpp
;	COMDAT ?wndImageAppendImage@@YAPAU_object@@PAU1@0@Z
_TEXT	SEGMENT
_pWindow$ = -8						; size = 4
_szFileName$ = -4					; size = 4
_poSelf$ = 8						; size = 4
_poArgs$ = 12						; size = 4
?wndImageAppendImage@@YAPAU_object@@PAU1@0@Z PROC	; wndImageAppendImage, COMDAT

; 2115 : {

  00000	55		 push	 ebp
  00001	8b ec		 mov	 ebp, esp
  00003	83 ec 08	 sub	 esp, 8

; 2116 : 	UI::CWindow * pWindow;
; 2117 : 	if (!PyTuple_GetWindow(poArgs, 0, &pWindow))

  00006	8d 45 f8	 lea	 eax, DWORD PTR _pWindow$[ebp]
  00009	50		 push	 eax
  0000a	6a 00		 push	 0
  0000c	ff 75 0c	 push	 DWORD PTR _poArgs$[ebp]
  0000f	e8 00 00 00 00	 call	 ?PyTuple_GetWindow@@YA_NPAU_object@@HPAPAVCWindow@UI@@@Z ; PyTuple_GetWindow
  00014	83 c4 0c	 add	 esp, 12			; 0000000cH
  00017	84 c0		 test	 al, al
  00019	75 0e		 jne	 SHORT $LN2@wndImageAp
$LN5@wndImageAp:

; 2126 : }

  0001b	6a 00		 push	 0
  0001d	e8 00 00 00 00	 call	 ?Py_BuildException@@YAPAU_object@@PBDZZ ; Py_BuildException
  00022	83 c4 04	 add	 esp, 4
  00025	8b e5		 mov	 esp, ebp
  00027	5d		 pop	 ebp
  00028	c3		 ret	 0
$LN2@wndImageAp:

; 2118 : 		return Py_BuildException();
; 2119 : 	char * szFileName;
; 2120 : 	if (!PyTuple_GetString(poArgs, 1, &szFileName))

  00029	8d 45 fc	 lea	 eax, DWORD PTR _szFileName$[ebp]
  0002c	50		 push	 eax
  0002d	6a 01		 push	 1
  0002f	ff 75 0c	 push	 DWORD PTR _poArgs$[ebp]
  00032	e8 00 00 00 00	 call	 ?PyTuple_GetString@@YA_NPAU_object@@HPAPAD@Z ; PyTuple_GetString
  00037	83 c4 0c	 add	 esp, 12			; 0000000cH
  0003a	84 c0		 test	 al, al
  0003c	74 dd		 je	 SHORT $LN5@wndImageAp

; 2121 : 		return Py_BuildException();
; 2122 : 
; 2123 : 	((UI::CAniImageBox*)pWindow)->AppendImage(szFileName);

  0003e	8b 4d f8	 mov	 ecx, DWORD PTR _pWindow$[ebp]
  00041	83 ec 10	 sub	 esp, 16			; 00000010H
  00044	c7 44 24 0c 00
	00 80 3f	 mov	 DWORD PTR [esp+12], 1065353216 ; 3f800000H
  0004c	c7 44 24 08 00
	00 80 3f	 mov	 DWORD PTR [esp+8], 1065353216 ; 3f800000H
  00054	c7 44 24 04 00
	00 80 3f	 mov	 DWORD PTR [esp+4], 1065353216 ; 3f800000H
  0005c	c7 04 24 00 00
	80 3f		 mov	 DWORD PTR [esp], 1065353216 ; 3f800000H
  00063	ff 75 fc	 push	 DWORD PTR _szFileName$[ebp]
  00066	e8 00 00 00 00	 call	 ?AppendImage@CAniImageBox@UI@@QAEXPBDMMMM@Z ; UI::CAniImageBox::AppendImage

; 2124 : 
; 2125 : 	return Py_BuildNone();

  0006b	e8 00 00 00 00	 call	 ?Py_BuildNone@@YAPAU_object@@XZ ; Py_BuildNone

; 2126 : }

  00070	8b e5		 mov	 esp, ebp
  00072	5d		 pop	 ebp
  00073	c3		 ret	 0
?wndImageAppendImage@@YAPAU_object@@PAU1@0@Z ENDP	; wndImageAppendImage
_TEXT	ENDS
; Function compile flags: /Ogtp
; File C:\DS Project\DS Files\Source\ClientSource\Client\eterPythonLib\PythonWindowManagerModule.cpp
;	COMDAT ?wndImageSetDelay@@YAPAU_object@@PAU1@0@Z
_TEXT	SEGMENT
_pWindow$ = -8						; size = 4
_fDelay$ = -4						; size = 4
_poSelf$ = 8						; size = 4
_poArgs$ = 12						; size = 4
?wndImageSetDelay@@YAPAU_object@@PAU1@0@Z PROC		; wndImageSetDelay, COMDAT

; 2102 : {

  00000	55		 push	 ebp
  00001	8b ec		 mov	 ebp, esp
  00003	83 ec 08	 sub	 esp, 8

; 2103 : 	UI::CWindow * pWindow;
; 2104 : 	if (!PyTuple_GetWindow(poArgs, 0, &pWindow))

  00006	8d 45 f8	 lea	 eax, DWORD PTR _pWindow$[ebp]
  00009	50		 push	 eax
  0000a	6a 00		 push	 0
  0000c	ff 75 0c	 push	 DWORD PTR _poArgs$[ebp]
  0000f	e8 00 00 00 00	 call	 ?PyTuple_GetWindow@@YA_NPAU_object@@HPAPAVCWindow@UI@@@Z ; PyTuple_GetWindow
  00014	83 c4 0c	 add	 esp, 12			; 0000000cH
  00017	84 c0		 test	 al, al
  00019	75 0e		 jne	 SHORT $LN2@wndImageSe
$LN5@wndImageSe:

; 2113 : }

  0001b	6a 00		 push	 0
  0001d	e8 00 00 00 00	 call	 ?Py_BuildException@@YAPAU_object@@PBDZZ ; Py_BuildException
  00022	83 c4 04	 add	 esp, 4
  00025	8b e5		 mov	 esp, ebp
  00027	5d		 pop	 ebp
  00028	c3		 ret	 0
$LN2@wndImageSe:

; 2105 : 		return Py_BuildException();
; 2106 : 	float fDelay;
; 2107 : 	if (!PyTuple_GetFloat(poArgs, 1, &fDelay))

  00029	8d 45 fc	 lea	 eax, DWORD PTR _fDelay$[ebp]
  0002c	50		 push	 eax
  0002d	6a 01		 push	 1
  0002f	ff 75 0c	 push	 DWORD PTR _poArgs$[ebp]
  00032	e8 00 00 00 00	 call	 ?PyTuple_GetFloat@@YA_NPAU_object@@HPAM@Z ; PyTuple_GetFloat
  00037	83 c4 0c	 add	 esp, 12			; 0000000cH
  0003a	84 c0		 test	 al, al
  0003c	74 dd		 je	 SHORT $LN5@wndImageSe

; 2108 : 		return Py_BuildException();
; 2109 : 
; 2110 : 	((UI::CAniImageBox*)pWindow)->SetDelay(fDelay);

  0003e	f3 0f 2c 45 fc	 cvttss2si eax, DWORD PTR _fDelay$[ebp]
  00043	8b 4d f8	 mov	 ecx, DWORD PTR _pWindow$[ebp]
  00046	50		 push	 eax
  00047	e8 00 00 00 00	 call	 ?SetDelay@CAniImageBox@UI@@QAEXH@Z ; UI::CAniImageBox::SetDelay

; 2111 : 
; 2112 : 	return Py_BuildNone();

  0004c	e8 00 00 00 00	 call	 ?Py_BuildNone@@YAPAU_object@@XZ ; Py_BuildNone

; 2113 : }

  00051	8b e5		 mov	 esp, ebp
  00053	5d		 pop	 ebp
  00054	c3		 ret	 0
?wndImageSetDelay@@YAPAU_object@@PAU1@0@Z ENDP		; wndImageSetDelay
_TEXT	ENDS
; Function compile flags: /Ogtp
; File C:\DS Project\DS Files\Source\ClientSource\Client\eterPythonLib\PythonWindowManagerModule.cpp
;	COMDAT ?wndImageSetRenderingMode@@YAPAU_object@@PAU1@0@Z
_TEXT	SEGMENT
_iMode$ = -8						; size = 4
_pWindow$ = -4						; size = 4
_poSelf$ = 8						; size = 4
_poArgs$ = 12						; size = 4
?wndImageSetRenderingMode@@YAPAU_object@@PAU1@0@Z PROC	; wndImageSetRenderingMode, COMDAT

; 2088 : {

  00000	55		 push	 ebp
  00001	8b ec		 mov	 ebp, esp
  00003	83 ec 08	 sub	 esp, 8

; 2089 : 	UI::CWindow * pWindow;
; 2090 : 	if (!PyTuple_GetWindow(poArgs, 0, &pWindow))

  00006	8d 45 fc	 lea	 eax, DWORD PTR _pWindow$[ebp]
  00009	56		 push	 esi
  0000a	8b 75 0c	 mov	 esi, DWORD PTR _poArgs$[ebp]
  0000d	50		 push	 eax
  0000e	6a 00		 push	 0
  00010	56		 push	 esi
  00011	e8 00 00 00 00	 call	 ?PyTuple_GetWindow@@YA_NPAU_object@@HPAPAVCWindow@UI@@@Z ; PyTuple_GetWindow
  00016	83 c4 0c	 add	 esp, 12			; 0000000cH
  00019	84 c0		 test	 al, al
  0001b	75 0f		 jne	 SHORT $LN2@wndImageSe
$LN6@wndImageSe:

; 2100 : }

  0001d	6a 00		 push	 0
  0001f	e8 00 00 00 00	 call	 ?Py_BuildException@@YAPAU_object@@PBDZZ ; Py_BuildException
  00024	83 c4 04	 add	 esp, 4
  00027	5e		 pop	 esi
  00028	8b e5		 mov	 esp, ebp
  0002a	5d		 pop	 ebp
  0002b	c3		 ret	 0
$LN2@wndImageSe:

; 2091 : 		return Py_BuildException();
; 2092 : 	int iMode;
; 2093 : 	if (!PyTuple_GetInteger(poArgs, 1, &iMode))

  0002c	8d 45 f8	 lea	 eax, DWORD PTR _iMode$[ebp]
  0002f	50		 push	 eax
  00030	6a 01		 push	 1
  00032	56		 push	 esi
  00033	e8 00 00 00 00	 call	 ?PyTuple_GetInteger@@YA_NPAU_object@@HPAH@Z ; PyTuple_GetInteger
  00038	83 c4 0c	 add	 esp, 12			; 0000000cH
  0003b	84 c0		 test	 al, al
  0003d	74 de		 je	 SHORT $LN6@wndImageSe

; 2094 : 		return Py_BuildException();
; 2095 : 
; 2096 : 	if (pWindow->IsType(UI::CExpandedImageBox::Type()))

  0003f	e8 00 00 00 00	 call	 ?Type@CExpandedImageBox@UI@@SAKXZ ; UI::CExpandedImageBox::Type
  00044	8b 75 fc	 mov	 esi, DWORD PTR _pWindow$[ebp]
  00047	8b ce		 mov	 ecx, esi
  00049	50		 push	 eax
  0004a	e8 00 00 00 00	 call	 ?IsType@CWindow@UI@@QAEHK@Z ; UI::CWindow::IsType
  0004f	85 c0		 test	 eax, eax
  00051	74 0a		 je	 SHORT $LN4@wndImageSe

; 2097 : 		((UI::CExpandedImageBox*)pWindow)->SetRenderingMode(iMode);

  00053	ff 75 f8	 push	 DWORD PTR _iMode$[ebp]
  00056	8b ce		 mov	 ecx, esi
  00058	e8 00 00 00 00	 call	 ?SetRenderingMode@CExpandedImageBox@UI@@QAEXH@Z ; UI::CExpandedImageBox::SetRenderingMode
$LN4@wndImageSe:

; 2098 : 
; 2099 : 	return Py_BuildNone();

  0005d	e8 00 00 00 00	 call	 ?Py_BuildNone@@YAPAU_object@@XZ ; Py_BuildNone
  00062	5e		 pop	 esi

; 2100 : }

  00063	8b e5		 mov	 esp, ebp
  00065	5d		 pop	 ebp
  00066	c3		 ret	 0
?wndImageSetRenderingMode@@YAPAU_object@@PAU1@0@Z ENDP	; wndImageSetRenderingMode
_TEXT	ENDS
; Function compile flags: /Ogtp
; File C:\DS Project\DS Files\Source\ClientSource\Client\eterPythonLib\PythonWindowManagerModule.cpp
;	COMDAT ?wndImageSetRenderingRect@@YAPAU_object@@PAU1@0@Z
_TEXT	SEGMENT
_pWindow$ = -20						; size = 4
_fLeft$ = -16						; size = 4
_fTop$ = -12						; size = 4
_fRight$ = -8						; size = 4
_fBottom$ = -4						; size = 4
_poSelf$ = 8						; size = 4
_poArgs$ = 12						; size = 4
?wndImageSetRenderingRect@@YAPAU_object@@PAU1@0@Z PROC	; wndImageSetRenderingRect, COMDAT

; 2063 : {

  00000	55		 push	 ebp
  00001	8b ec		 mov	 ebp, esp
  00003	83 ec 14	 sub	 esp, 20			; 00000014H

; 2064 : 	UI::CWindow * pWindow;
; 2065 : 	if (!PyTuple_GetWindow(poArgs, 0, &pWindow))

  00006	8d 45 ec	 lea	 eax, DWORD PTR _pWindow$[ebp]
  00009	56		 push	 esi
  0000a	8b 75 0c	 mov	 esi, DWORD PTR _poArgs$[ebp]
  0000d	50		 push	 eax
  0000e	6a 00		 push	 0
  00010	56		 push	 esi
  00011	e8 00 00 00 00	 call	 ?PyTuple_GetWindow@@YA_NPAU_object@@HPAPAVCWindow@UI@@@Z ; PyTuple_GetWindow
  00016	83 c4 0c	 add	 esp, 12			; 0000000cH
  00019	84 c0		 test	 al, al
  0001b	75 0f		 jne	 SHORT $LN2@wndImageSe
$LN11@wndImageSe:

; 2086 : }

  0001d	6a 00		 push	 0
  0001f	e8 00 00 00 00	 call	 ?Py_BuildException@@YAPAU_object@@PBDZZ ; Py_BuildException
  00024	83 c4 04	 add	 esp, 4
  00027	5e		 pop	 esi
  00028	8b e5		 mov	 esp, ebp
  0002a	5d		 pop	 ebp
  0002b	c3		 ret	 0
$LN2@wndImageSe:

; 2066 : 		return Py_BuildException();
; 2067 : 	float fLeft;
; 2068 : 	if (!PyTuple_GetFloat(poArgs, 1, &fLeft))

  0002c	8d 45 f0	 lea	 eax, DWORD PTR _fLeft$[ebp]
  0002f	50		 push	 eax
  00030	6a 01		 push	 1
  00032	56		 push	 esi
  00033	e8 00 00 00 00	 call	 ?PyTuple_GetFloat@@YA_NPAU_object@@HPAM@Z ; PyTuple_GetFloat
  00038	83 c4 0c	 add	 esp, 12			; 0000000cH
  0003b	84 c0		 test	 al, al
  0003d	74 de		 je	 SHORT $LN11@wndImageSe

; 2069 : 		return Py_BuildException();
; 2070 : 	float fTop;
; 2071 : 	if (!PyTuple_GetFloat(poArgs, 2, &fTop))

  0003f	8d 45 f4	 lea	 eax, DWORD PTR _fTop$[ebp]
  00042	50		 push	 eax
  00043	6a 02		 push	 2
  00045	56		 push	 esi
  00046	e8 00 00 00 00	 call	 ?PyTuple_GetFloat@@YA_NPAU_object@@HPAM@Z ; PyTuple_GetFloat
  0004b	83 c4 0c	 add	 esp, 12			; 0000000cH
  0004e	84 c0		 test	 al, al
  00050	74 cb		 je	 SHORT $LN11@wndImageSe

; 2072 : 		return Py_BuildException();
; 2073 : 	float fRight;
; 2074 : 	if (!PyTuple_GetFloat(poArgs, 3, &fRight))

  00052	8d 45 f8	 lea	 eax, DWORD PTR _fRight$[ebp]
  00055	50		 push	 eax
  00056	6a 03		 push	 3
  00058	56		 push	 esi
  00059	e8 00 00 00 00	 call	 ?PyTuple_GetFloat@@YA_NPAU_object@@HPAM@Z ; PyTuple_GetFloat
  0005e	83 c4 0c	 add	 esp, 12			; 0000000cH
  00061	84 c0		 test	 al, al
  00063	74 b8		 je	 SHORT $LN11@wndImageSe

; 2075 : 		return Py_BuildException();
; 2076 : 	float fBottom;
; 2077 : 	if (!PyTuple_GetFloat(poArgs, 4, &fBottom))

  00065	8d 45 fc	 lea	 eax, DWORD PTR _fBottom$[ebp]
  00068	50		 push	 eax
  00069	6a 04		 push	 4
  0006b	56		 push	 esi
  0006c	e8 00 00 00 00	 call	 ?PyTuple_GetFloat@@YA_NPAU_object@@HPAM@Z ; PyTuple_GetFloat
  00071	83 c4 0c	 add	 esp, 12			; 0000000cH
  00074	84 c0		 test	 al, al
  00076	74 a5		 je	 SHORT $LN11@wndImageSe

; 2078 : 		return Py_BuildException();
; 2079 : 
; 2080 : 	if (pWindow->IsType(UI::CExpandedImageBox::Type()))

  00078	e8 00 00 00 00	 call	 ?Type@CExpandedImageBox@UI@@SAKXZ ; UI::CExpandedImageBox::Type
  0007d	8b 75 ec	 mov	 esi, DWORD PTR _pWindow$[ebp]
  00080	8b ce		 mov	 ecx, esi
  00082	50		 push	 eax
  00083	e8 00 00 00 00	 call	 ?IsType@CWindow@UI@@QAEHK@Z ; UI::CWindow::IsType
  00088	85 c0		 test	 eax, eax
  0008a	74 3f		 je	 SHORT $LN7@wndImageSe

; 2081 : 		((UI::CExpandedImageBox*)pWindow)->SetRenderingRect(fLeft, fTop, fRight, fBottom);

  0008c	f3 0f 10 45 fc	 movss	 xmm0, DWORD PTR _fBottom$[ebp]
  00091	83 ec 10	 sub	 esp, 16			; 00000010H
  00094	8b ce		 mov	 ecx, esi
  00096	f3 0f 11 44 24
	0c		 movss	 DWORD PTR [esp+12], xmm0
  0009c	f3 0f 10 45 f8	 movss	 xmm0, DWORD PTR _fRight$[ebp]
  000a1	f3 0f 11 44 24
	08		 movss	 DWORD PTR [esp+8], xmm0
  000a7	f3 0f 10 45 f4	 movss	 xmm0, DWORD PTR _fTop$[ebp]
  000ac	f3 0f 11 44 24
	04		 movss	 DWORD PTR [esp+4], xmm0
  000b2	f3 0f 10 45 f0	 movss	 xmm0, DWORD PTR _fLeft$[ebp]
  000b7	f3 0f 11 04 24	 movss	 DWORD PTR [esp], xmm0
  000bc	e8 00 00 00 00	 call	 ?SetRenderingRect@CExpandedImageBox@UI@@QAEXMMMM@Z ; UI::CExpandedImageBox::SetRenderingRect

; 2084 : 
; 2085 : 	return Py_BuildNone();

  000c1	e8 00 00 00 00	 call	 ?Py_BuildNone@@YAPAU_object@@XZ ; Py_BuildNone
  000c6	5e		 pop	 esi

; 2086 : }

  000c7	8b e5		 mov	 esp, ebp
  000c9	5d		 pop	 ebp
  000ca	c3		 ret	 0
$LN7@wndImageSe:

; 2082 : 	else if (pWindow->IsType(UI::CAniImageBox::Type()))

  000cb	e8 00 00 00 00	 call	 ?Type@CAniImageBox@UI@@SAKXZ ; UI::CAniImageBox::Type
  000d0	50		 push	 eax
  000d1	8b ce		 mov	 ecx, esi
  000d3	e8 00 00 00 00	 call	 ?IsType@CWindow@UI@@QAEHK@Z ; UI::CWindow::IsType
  000d8	85 c0		 test	 eax, eax
  000da	74 35		 je	 SHORT $LN9@wndImageSe

; 2083 : 		((UI::CAniImageBox*)pWindow)->SetRenderingRect(fLeft, fTop, fRight, fBottom);

  000dc	f3 0f 10 45 fc	 movss	 xmm0, DWORD PTR _fBottom$[ebp]
  000e1	83 ec 10	 sub	 esp, 16			; 00000010H
  000e4	8b ce		 mov	 ecx, esi
  000e6	f3 0f 11 44 24
	0c		 movss	 DWORD PTR [esp+12], xmm0
  000ec	f3 0f 10 45 f8	 movss	 xmm0, DWORD PTR _fRight$[ebp]
  000f1	f3 0f 11 44 24
	08		 movss	 DWORD PTR [esp+8], xmm0
  000f7	f3 0f 10 45 f4	 movss	 xmm0, DWORD PTR _fTop$[ebp]
  000fc	f3 0f 11 44 24
	04		 movss	 DWORD PTR [esp+4], xmm0
  00102	f3 0f 10 45 f0	 movss	 xmm0, DWORD PTR _fLeft$[ebp]
  00107	f3 0f 11 04 24	 movss	 DWORD PTR [esp], xmm0
  0010c	e8 00 00 00 00	 call	 ?SetRenderingRect@CAniImageBox@UI@@QAEXMMMM@Z ; UI::CAniImageBox::SetRenderingRect
$LN9@wndImageSe:

; 2084 : 
; 2085 : 	return Py_BuildNone();

  00111	e8 00 00 00 00	 call	 ?Py_BuildNone@@YAPAU_object@@XZ ; Py_BuildNone
  00116	5e		 pop	 esi

; 2086 : }

  00117	8b e5		 mov	 esp, ebp
  00119	5d		 pop	 ebp
  0011a	c3		 ret	 0
?wndImageSetRenderingRect@@YAPAU_object@@PAU1@0@Z ENDP	; wndImageSetRenderingRect
_TEXT	ENDS
; Function compile flags: /Ogtp
; File C:\DS Project\DS Files\Source\ClientSource\Client\eterPythonLib\PythonWindowManagerModule.cpp
;	COMDAT ?wndImageSetRotation@@YAPAU_object@@PAU1@0@Z
_TEXT	SEGMENT
_pWindow$ = -8						; size = 4
_fRotation$ = -4					; size = 4
_poSelf$ = 8						; size = 4
_poArgs$ = 12						; size = 4
?wndImageSetRotation@@YAPAU_object@@PAU1@0@Z PROC	; wndImageSetRotation, COMDAT

; 2050 : {

  00000	55		 push	 ebp
  00001	8b ec		 mov	 ebp, esp
  00003	83 ec 08	 sub	 esp, 8

; 2051 : 	UI::CWindow * pWindow;
; 2052 : 	if (!PyTuple_GetWindow(poArgs, 0, &pWindow))

  00006	8d 45 f8	 lea	 eax, DWORD PTR _pWindow$[ebp]
  00009	50		 push	 eax
  0000a	6a 00		 push	 0
  0000c	ff 75 0c	 push	 DWORD PTR _poArgs$[ebp]
  0000f	e8 00 00 00 00	 call	 ?PyTuple_GetWindow@@YA_NPAU_object@@HPAPAVCWindow@UI@@@Z ; PyTuple_GetWindow
  00014	83 c4 0c	 add	 esp, 12			; 0000000cH
  00017	84 c0		 test	 al, al
  00019	75 0e		 jne	 SHORT $LN2@wndImageSe
$LN5@wndImageSe:

; 2061 : }

  0001b	6a 00		 push	 0
  0001d	e8 00 00 00 00	 call	 ?Py_BuildException@@YAPAU_object@@PBDZZ ; Py_BuildException
  00022	83 c4 04	 add	 esp, 4
  00025	8b e5		 mov	 esp, ebp
  00027	5d		 pop	 ebp
  00028	c3		 ret	 0
$LN2@wndImageSe:

; 2053 : 		return Py_BuildException();
; 2054 : 	float fRotation;
; 2055 : 	if (!PyTuple_GetFloat(poArgs, 1, &fRotation))

  00029	8d 45 fc	 lea	 eax, DWORD PTR _fRotation$[ebp]
  0002c	50		 push	 eax
  0002d	6a 01		 push	 1
  0002f	ff 75 0c	 push	 DWORD PTR _poArgs$[ebp]
  00032	e8 00 00 00 00	 call	 ?PyTuple_GetFloat@@YA_NPAU_object@@HPAM@Z ; PyTuple_GetFloat
  00037	83 c4 0c	 add	 esp, 12			; 0000000cH
  0003a	84 c0		 test	 al, al
  0003c	74 dd		 je	 SHORT $LN5@wndImageSe

; 2056 : 		return Py_BuildException();
; 2057 : 
; 2058 : 	((UI::CExpandedImageBox*)pWindow)->SetRotation(fRotation);

  0003e	f3 0f 10 45 fc	 movss	 xmm0, DWORD PTR _fRotation$[ebp]
  00043	51		 push	 ecx
  00044	8b 4d f8	 mov	 ecx, DWORD PTR _pWindow$[ebp]
  00047	f3 0f 11 04 24	 movss	 DWORD PTR [esp], xmm0
  0004c	e8 00 00 00 00	 call	 ?SetRotation@CExpandedImageBox@UI@@QAEXM@Z ; UI::CExpandedImageBox::SetRotation

; 2059 : 
; 2060 : 	return Py_BuildNone();

  00051	e8 00 00 00 00	 call	 ?Py_BuildNone@@YAPAU_object@@XZ ; Py_BuildNone

; 2061 : }

  00056	8b e5		 mov	 esp, ebp
  00058	5d		 pop	 ebp
  00059	c3		 ret	 0
?wndImageSetRotation@@YAPAU_object@@PAU1@0@Z ENDP	; wndImageSetRotation
_TEXT	ENDS
; Function compile flags: /Ogtp
; File C:\DS Project\DS Files\Source\ClientSource\Client\eterPythonLib\PythonWindowManagerModule.cpp
;	COMDAT ?wndImageSetOrigin@@YAPAU_object@@PAU1@0@Z
_TEXT	SEGMENT
_pWindow$ = -12						; size = 4
_fx$ = -8						; size = 4
_fy$ = -4						; size = 4
_poSelf$ = 8						; size = 4
_poArgs$ = 12						; size = 4
?wndImageSetOrigin@@YAPAU_object@@PAU1@0@Z PROC		; wndImageSetOrigin, COMDAT

; 2034 : {

  00000	55		 push	 ebp
  00001	8b ec		 mov	 ebp, esp
  00003	83 ec 0c	 sub	 esp, 12			; 0000000cH

; 2035 : 	UI::CWindow * pWindow;
; 2036 : 	if (!PyTuple_GetWindow(poArgs, 0, &pWindow))

  00006	8d 45 f4	 lea	 eax, DWORD PTR _pWindow$[ebp]
  00009	56		 push	 esi
  0000a	8b 75 0c	 mov	 esi, DWORD PTR _poArgs$[ebp]
  0000d	50		 push	 eax
  0000e	6a 00		 push	 0
  00010	56		 push	 esi
  00011	e8 00 00 00 00	 call	 ?PyTuple_GetWindow@@YA_NPAU_object@@HPAPAVCWindow@UI@@@Z ; PyTuple_GetWindow
  00016	83 c4 0c	 add	 esp, 12			; 0000000cH
  00019	84 c0		 test	 al, al
  0001b	75 0f		 jne	 SHORT $LN2@wndImageSe
$LN6@wndImageSe:

; 2048 : }

  0001d	6a 00		 push	 0
  0001f	e8 00 00 00 00	 call	 ?Py_BuildException@@YAPAU_object@@PBDZZ ; Py_BuildException
  00024	83 c4 04	 add	 esp, 4
  00027	5e		 pop	 esi
  00028	8b e5		 mov	 esp, ebp
  0002a	5d		 pop	 ebp
  0002b	c3		 ret	 0
$LN2@wndImageSe:

; 2037 : 		return Py_BuildException();
; 2038 : 	float fx;
; 2039 : 	if (!PyTuple_GetFloat(poArgs, 1, &fx))

  0002c	8d 45 f8	 lea	 eax, DWORD PTR _fx$[ebp]
  0002f	50		 push	 eax
  00030	6a 01		 push	 1
  00032	56		 push	 esi
  00033	e8 00 00 00 00	 call	 ?PyTuple_GetFloat@@YA_NPAU_object@@HPAM@Z ; PyTuple_GetFloat
  00038	83 c4 0c	 add	 esp, 12			; 0000000cH
  0003b	84 c0		 test	 al, al
  0003d	74 de		 je	 SHORT $LN6@wndImageSe

; 2040 : 		return Py_BuildException();
; 2041 : 	float fy;
; 2042 : 	if (!PyTuple_GetFloat(poArgs, 2, &fy))

  0003f	8d 45 fc	 lea	 eax, DWORD PTR _fy$[ebp]
  00042	50		 push	 eax
  00043	6a 02		 push	 2
  00045	56		 push	 esi
  00046	e8 00 00 00 00	 call	 ?PyTuple_GetFloat@@YA_NPAU_object@@HPAM@Z ; PyTuple_GetFloat
  0004b	83 c4 0c	 add	 esp, 12			; 0000000cH
  0004e	84 c0		 test	 al, al
  00050	74 cb		 je	 SHORT $LN6@wndImageSe

; 2043 : 		return Py_BuildException();
; 2044 : 
; 2045 : 	((UI::CExpandedImageBox*)pWindow)->SetOrigin(fx, fy);

  00052	f3 0f 10 45 fc	 movss	 xmm0, DWORD PTR _fy$[ebp]
  00057	83 ec 08	 sub	 esp, 8
  0005a	8b 4d f4	 mov	 ecx, DWORD PTR _pWindow$[ebp]
  0005d	f3 0f 11 44 24
	04		 movss	 DWORD PTR [esp+4], xmm0
  00063	f3 0f 10 45 f8	 movss	 xmm0, DWORD PTR _fx$[ebp]
  00068	f3 0f 11 04 24	 movss	 DWORD PTR [esp], xmm0
  0006d	e8 00 00 00 00	 call	 ?SetOrigin@CExpandedImageBox@UI@@QAEXMM@Z ; UI::CExpandedImageBox::SetOrigin

; 2046 : 
; 2047 : 	return Py_BuildNone();

  00072	e8 00 00 00 00	 call	 ?Py_BuildNone@@YAPAU_object@@XZ ; Py_BuildNone
  00077	5e		 pop	 esi

; 2048 : }

  00078	8b e5		 mov	 esp, ebp
  0007a	5d		 pop	 ebp
  0007b	c3		 ret	 0
?wndImageSetOrigin@@YAPAU_object@@PAU1@0@Z ENDP		; wndImageSetOrigin
_TEXT	ENDS
; Function compile flags: /Ogtp
; File C:\DS Project\DS Files\Source\ClientSource\Client\eterPythonLib\PythonWindowManagerModule.cpp
;	COMDAT ?wndImageSetScale@@YAPAU_object@@PAU1@0@Z
_TEXT	SEGMENT
_pWindow$ = -12						; size = 4
_fx$ = -8						; size = 4
_fy$ = -4						; size = 4
_poSelf$ = 8						; size = 4
_poArgs$ = 12						; size = 4
?wndImageSetScale@@YAPAU_object@@PAU1@0@Z PROC		; wndImageSetScale, COMDAT

; 2018 : {

  00000	55		 push	 ebp
  00001	8b ec		 mov	 ebp, esp
  00003	83 ec 0c	 sub	 esp, 12			; 0000000cH

; 2019 : 	UI::CWindow * pWindow;
; 2020 : 	if (!PyTuple_GetWindow(poArgs, 0, &pWindow))

  00006	8d 45 f4	 lea	 eax, DWORD PTR _pWindow$[ebp]
  00009	56		 push	 esi
  0000a	8b 75 0c	 mov	 esi, DWORD PTR _poArgs$[ebp]
  0000d	50		 push	 eax
  0000e	6a 00		 push	 0
  00010	56		 push	 esi
  00011	e8 00 00 00 00	 call	 ?PyTuple_GetWindow@@YA_NPAU_object@@HPAPAVCWindow@UI@@@Z ; PyTuple_GetWindow
  00016	83 c4 0c	 add	 esp, 12			; 0000000cH
  00019	84 c0		 test	 al, al
  0001b	75 0f		 jne	 SHORT $LN2@wndImageSe
$LN6@wndImageSe:

; 2032 : }

  0001d	6a 00		 push	 0
  0001f	e8 00 00 00 00	 call	 ?Py_BuildException@@YAPAU_object@@PBDZZ ; Py_BuildException
  00024	83 c4 04	 add	 esp, 4
  00027	5e		 pop	 esi
  00028	8b e5		 mov	 esp, ebp
  0002a	5d		 pop	 ebp
  0002b	c3		 ret	 0
$LN2@wndImageSe:

; 2021 : 		return Py_BuildException();
; 2022 : 	float fx;
; 2023 : 	if (!PyTuple_GetFloat(poArgs, 1, &fx))

  0002c	8d 45 f8	 lea	 eax, DWORD PTR _fx$[ebp]
  0002f	50		 push	 eax
  00030	6a 01		 push	 1
  00032	56		 push	 esi
  00033	e8 00 00 00 00	 call	 ?PyTuple_GetFloat@@YA_NPAU_object@@HPAM@Z ; PyTuple_GetFloat
  00038	83 c4 0c	 add	 esp, 12			; 0000000cH
  0003b	84 c0		 test	 al, al
  0003d	74 de		 je	 SHORT $LN6@wndImageSe

; 2024 : 		return Py_BuildException();
; 2025 : 	float fy;
; 2026 : 	if (!PyTuple_GetFloat(poArgs, 2, &fy))

  0003f	8d 45 fc	 lea	 eax, DWORD PTR _fy$[ebp]
  00042	50		 push	 eax
  00043	6a 02		 push	 2
  00045	56		 push	 esi
  00046	e8 00 00 00 00	 call	 ?PyTuple_GetFloat@@YA_NPAU_object@@HPAM@Z ; PyTuple_GetFloat
  0004b	83 c4 0c	 add	 esp, 12			; 0000000cH
  0004e	84 c0		 test	 al, al
  00050	74 cb		 je	 SHORT $LN6@wndImageSe

; 2027 : 		return Py_BuildException();
; 2028 : 
; 2029 : 	((UI::CExpandedImageBox*)pWindow)->SetScale(fx, fy);

  00052	f3 0f 10 45 fc	 movss	 xmm0, DWORD PTR _fy$[ebp]
  00057	83 ec 08	 sub	 esp, 8
  0005a	8b 4d f4	 mov	 ecx, DWORD PTR _pWindow$[ebp]
  0005d	f3 0f 11 44 24
	04		 movss	 DWORD PTR [esp+4], xmm0
  00063	f3 0f 10 45 f8	 movss	 xmm0, DWORD PTR _fx$[ebp]
  00068	f3 0f 11 04 24	 movss	 DWORD PTR [esp], xmm0
  0006d	e8 00 00 00 00	 call	 ?SetScale@CExpandedImageBox@UI@@QAEXMM@Z ; UI::CExpandedImageBox::SetScale

; 2030 : 
; 2031 : 	return Py_BuildNone();

  00072	e8 00 00 00 00	 call	 ?Py_BuildNone@@YAPAU_object@@XZ ; Py_BuildNone
  00077	5e		 pop	 esi

; 2032 : }

  00078	8b e5		 mov	 esp, ebp
  0007a	5d		 pop	 ebp
  0007b	c3		 ret	 0
?wndImageSetScale@@YAPAU_object@@PAU1@0@Z ENDP		; wndImageSetScale
_TEXT	ENDS
; Function compile flags: /Ogtp
; File C:\DS Project\DS Files\Source\ClientSource\Client\eterPythonLib\PythonWindowManagerModule.cpp
;	COMDAT ?wndImageGetHeight@@YAPAU_object@@PAU1@0@Z
_TEXT	SEGMENT
_pWindow$ = -4						; size = 4
_poSelf$ = 8						; size = 4
_poArgs$ = 12						; size = 4
?wndImageGetHeight@@YAPAU_object@@PAU1@0@Z PROC		; wndImageGetHeight, COMDAT

; 2009 : {

  00000	55		 push	 ebp
  00001	8b ec		 mov	 ebp, esp
  00003	51		 push	 ecx

; 2010 : 	UI::CWindow * pWindow;
; 2011 : 	if (!PyTuple_GetWindow(poArgs, 0, &pWindow))

  00004	8d 45 fc	 lea	 eax, DWORD PTR _pWindow$[ebp]
  00007	50		 push	 eax
  00008	6a 00		 push	 0
  0000a	ff 75 0c	 push	 DWORD PTR _poArgs$[ebp]
  0000d	e8 00 00 00 00	 call	 ?PyTuple_GetWindow@@YA_NPAU_object@@HPAPAVCWindow@UI@@@Z ; PyTuple_GetWindow
  00012	83 c4 0c	 add	 esp, 12			; 0000000cH
  00015	84 c0		 test	 al, al
  00017	75 0e		 jne	 SHORT $LN2@wndImageGe

; 2012 : 		return Py_BuildException();

  00019	6a 00		 push	 0
  0001b	e8 00 00 00 00	 call	 ?Py_BuildException@@YAPAU_object@@PBDZZ ; Py_BuildException
  00020	83 c4 04	 add	 esp, 4

; 2015 : }

  00023	8b e5		 mov	 esp, ebp
  00025	5d		 pop	 ebp
  00026	c3		 ret	 0
$LN2@wndImageGe:

; 2013 : 
; 2014 : 	return Py_BuildValue("i", ((UI::CImageBox*)pWindow)->GetHeight());

  00027	8b 4d fc	 mov	 ecx, DWORD PTR _pWindow$[ebp]
  0002a	e8 00 00 00 00	 call	 ?GetHeight@CImageBox@UI@@QAEHXZ ; UI::CImageBox::GetHeight
  0002f	50		 push	 eax
  00030	68 00 00 00 00	 push	 OFFSET ??_C@_01KBJDNOO@i@
  00035	ff 15 00 00 00
	00		 call	 DWORD PTR __imp__Py_BuildValue
  0003b	83 c4 08	 add	 esp, 8

; 2015 : }

  0003e	8b e5		 mov	 esp, ebp
  00040	5d		 pop	 ebp
  00041	c3		 ret	 0
?wndImageGetHeight@@YAPAU_object@@PAU1@0@Z ENDP		; wndImageGetHeight
_TEXT	ENDS
; Function compile flags: /Ogtp
; File C:\DS Project\DS Files\Source\ClientSource\Client\eterPythonLib\PythonWindowManagerModule.cpp
;	COMDAT ?wndImageGetWidth@@YAPAU_object@@PAU1@0@Z
_TEXT	SEGMENT
_pWindow$ = -4						; size = 4
_poSelf$ = 8						; size = 4
_poArgs$ = 12						; size = 4
?wndImageGetWidth@@YAPAU_object@@PAU1@0@Z PROC		; wndImageGetWidth, COMDAT

; 2000 : {

  00000	55		 push	 ebp
  00001	8b ec		 mov	 ebp, esp
  00003	51		 push	 ecx

; 2001 : 	UI::CWindow * pWindow;
; 2002 : 	if (!PyTuple_GetWindow(poArgs, 0, &pWindow))

  00004	8d 45 fc	 lea	 eax, DWORD PTR _pWindow$[ebp]
  00007	50		 push	 eax
  00008	6a 00		 push	 0
  0000a	ff 75 0c	 push	 DWORD PTR _poArgs$[ebp]
  0000d	e8 00 00 00 00	 call	 ?PyTuple_GetWindow@@YA_NPAU_object@@HPAPAVCWindow@UI@@@Z ; PyTuple_GetWindow
  00012	83 c4 0c	 add	 esp, 12			; 0000000cH
  00015	84 c0		 test	 al, al
  00017	75 0e		 jne	 SHORT $LN2@wndImageGe

; 2003 : 		return Py_BuildException();

  00019	6a 00		 push	 0
  0001b	e8 00 00 00 00	 call	 ?Py_BuildException@@YAPAU_object@@PBDZZ ; Py_BuildException
  00020	83 c4 04	 add	 esp, 4

; 2006 : }

  00023	8b e5		 mov	 esp, ebp
  00025	5d		 pop	 ebp
  00026	c3		 ret	 0
$LN2@wndImageGe:

; 2004 : 
; 2005 : 	return Py_BuildValue("i", ((UI::CImageBox*)pWindow)->GetWidth());

  00027	8b 4d fc	 mov	 ecx, DWORD PTR _pWindow$[ebp]
  0002a	e8 00 00 00 00	 call	 ?GetWidth@CImageBox@UI@@QAEHXZ ; UI::CImageBox::GetWidth
  0002f	50		 push	 eax
  00030	68 00 00 00 00	 push	 OFFSET ??_C@_01KBJDNOO@i@
  00035	ff 15 00 00 00
	00		 call	 DWORD PTR __imp__Py_BuildValue
  0003b	83 c4 08	 add	 esp, 8

; 2006 : }

  0003e	8b e5		 mov	 esp, ebp
  00040	5d		 pop	 ebp
  00041	c3		 ret	 0
?wndImageGetWidth@@YAPAU_object@@PAU1@0@Z ENDP		; wndImageGetWidth
_TEXT	ENDS
; Function compile flags: /Ogtp
; File C:\DS Project\DS Files\Source\ClientSource\Client\eterPythonLib\PythonWindowManagerModule.cpp
;	COMDAT ?wndImageSetDiffuseColor@@YAPAU_object@@PAU1@0@Z
_TEXT	SEGMENT
_pWindow$ = -20						; size = 4
_fr$ = -16						; size = 4
_fg$ = -12						; size = 4
_fb$ = -8						; size = 4
_fa$ = -4						; size = 4
_poSelf$ = 8						; size = 4
_poArgs$ = 12						; size = 4
?wndImageSetDiffuseColor@@YAPAU_object@@PAU1@0@Z PROC	; wndImageSetDiffuseColor, COMDAT

; 1977 : {

  00000	55		 push	 ebp
  00001	8b ec		 mov	 ebp, esp
  00003	83 ec 14	 sub	 esp, 20			; 00000014H

; 1978 : 	UI::CWindow * pWindow;
; 1979 : 	if (!PyTuple_GetWindow(poArgs, 0, &pWindow))

  00006	8d 45 ec	 lea	 eax, DWORD PTR _pWindow$[ebp]
  00009	56		 push	 esi
  0000a	8b 75 0c	 mov	 esi, DWORD PTR _poArgs$[ebp]
  0000d	50		 push	 eax
  0000e	6a 00		 push	 0
  00010	56		 push	 esi
  00011	e8 00 00 00 00	 call	 ?PyTuple_GetWindow@@YA_NPAU_object@@HPAPAVCWindow@UI@@@Z ; PyTuple_GetWindow
  00016	83 c4 0c	 add	 esp, 12			; 0000000cH
  00019	84 c0		 test	 al, al
  0001b	75 0f		 jne	 SHORT $LN2@wndImageSe
$LN8@wndImageSe:

; 1997 : }

  0001d	6a 00		 push	 0
  0001f	e8 00 00 00 00	 call	 ?Py_BuildException@@YAPAU_object@@PBDZZ ; Py_BuildException
  00024	83 c4 04	 add	 esp, 4
  00027	5e		 pop	 esi
  00028	8b e5		 mov	 esp, ebp
  0002a	5d		 pop	 ebp
  0002b	c3		 ret	 0
$LN2@wndImageSe:

; 1980 : 		return Py_BuildException();
; 1981 : 	float fr;
; 1982 : 	if (!PyTuple_GetFloat(poArgs, 1, &fr))

  0002c	8d 45 f0	 lea	 eax, DWORD PTR _fr$[ebp]
  0002f	50		 push	 eax
  00030	6a 01		 push	 1
  00032	56		 push	 esi
  00033	e8 00 00 00 00	 call	 ?PyTuple_GetFloat@@YA_NPAU_object@@HPAM@Z ; PyTuple_GetFloat
  00038	83 c4 0c	 add	 esp, 12			; 0000000cH
  0003b	84 c0		 test	 al, al
  0003d	74 de		 je	 SHORT $LN8@wndImageSe

; 1983 : 		return Py_BuildException();
; 1984 : 	float fg;
; 1985 : 	if (!PyTuple_GetFloat(poArgs, 2, &fg))

  0003f	8d 45 f4	 lea	 eax, DWORD PTR _fg$[ebp]
  00042	50		 push	 eax
  00043	6a 02		 push	 2
  00045	56		 push	 esi
  00046	e8 00 00 00 00	 call	 ?PyTuple_GetFloat@@YA_NPAU_object@@HPAM@Z ; PyTuple_GetFloat
  0004b	83 c4 0c	 add	 esp, 12			; 0000000cH
  0004e	84 c0		 test	 al, al
  00050	74 cb		 je	 SHORT $LN8@wndImageSe

; 1986 : 		return Py_BuildException();
; 1987 : 	float fb;
; 1988 : 	if (!PyTuple_GetFloat(poArgs, 3, &fb))

  00052	8d 45 f8	 lea	 eax, DWORD PTR _fb$[ebp]
  00055	50		 push	 eax
  00056	6a 03		 push	 3
  00058	56		 push	 esi
  00059	e8 00 00 00 00	 call	 ?PyTuple_GetFloat@@YA_NPAU_object@@HPAM@Z ; PyTuple_GetFloat
  0005e	83 c4 0c	 add	 esp, 12			; 0000000cH
  00061	84 c0		 test	 al, al
  00063	74 b8		 je	 SHORT $LN8@wndImageSe

; 1989 : 		return Py_BuildException();
; 1990 : 	float fa;
; 1991 : 	if (!PyTuple_GetFloat(poArgs, 4, &fa))

  00065	8d 45 fc	 lea	 eax, DWORD PTR _fa$[ebp]
  00068	50		 push	 eax
  00069	6a 04		 push	 4
  0006b	56		 push	 esi
  0006c	e8 00 00 00 00	 call	 ?PyTuple_GetFloat@@YA_NPAU_object@@HPAM@Z ; PyTuple_GetFloat
  00071	83 c4 0c	 add	 esp, 12			; 0000000cH
  00074	84 c0		 test	 al, al
  00076	74 a5		 je	 SHORT $LN8@wndImageSe

; 1992 : 		return Py_BuildException();
; 1993 : 
; 1994 : 	((UI::CImageBox*)pWindow)->SetDiffuseColor(fr, fg, fb, fa);

  00078	f3 0f 10 45 fc	 movss	 xmm0, DWORD PTR _fa$[ebp]
  0007d	83 ec 10	 sub	 esp, 16			; 00000010H
  00080	8b 4d ec	 mov	 ecx, DWORD PTR _pWindow$[ebp]
  00083	f3 0f 11 44 24
	0c		 movss	 DWORD PTR [esp+12], xmm0
  00089	f3 0f 10 45 f8	 movss	 xmm0, DWORD PTR _fb$[ebp]
  0008e	f3 0f 11 44 24
	08		 movss	 DWORD PTR [esp+8], xmm0
  00094	f3 0f 10 45 f4	 movss	 xmm0, DWORD PTR _fg$[ebp]
  00099	f3 0f 11 44 24
	04		 movss	 DWORD PTR [esp+4], xmm0
  0009f	f3 0f 10 45 f0	 movss	 xmm0, DWORD PTR _fr$[ebp]
  000a4	f3 0f 11 04 24	 movss	 DWORD PTR [esp], xmm0
  000a9	e8 00 00 00 00	 call	 ?SetDiffuseColor@CImageBox@UI@@QAEXMMMM@Z ; UI::CImageBox::SetDiffuseColor

; 1995 : 
; 1996 : 	return Py_BuildNone();

  000ae	e8 00 00 00 00	 call	 ?Py_BuildNone@@YAPAU_object@@XZ ; Py_BuildNone
  000b3	5e		 pop	 esi

; 1997 : }

  000b4	8b e5		 mov	 esp, ebp
  000b6	5d		 pop	 ebp
  000b7	c3		 ret	 0
?wndImageSetDiffuseColor@@YAPAU_object@@PAU1@0@Z ENDP	; wndImageSetDiffuseColor
_TEXT	ENDS
; Function compile flags: /Ogtp
; File C:\DS Project\DS Files\Source\ClientSource\Client\eterPythonLib\PythonWindowManagerModule.cpp
;	COMDAT ?wndImageLoadImage@@YAPAU_object@@PAU1@0@Z
_TEXT	SEGMENT
_pWindow$ = -8						; size = 4
_szFileName$ = -4					; size = 4
_poSelf$ = 8						; size = 4
_poArgs$ = 12						; size = 4
?wndImageLoadImage@@YAPAU_object@@PAU1@0@Z PROC		; wndImageLoadImage, COMDAT

; 1962 : {

  00000	55		 push	 ebp
  00001	8b ec		 mov	 ebp, esp
  00003	83 ec 08	 sub	 esp, 8

; 1963 : 	UI::CWindow * pWindow;
; 1964 : 	if (!PyTuple_GetWindow(poArgs, 0, &pWindow))

  00006	8d 45 f8	 lea	 eax, DWORD PTR _pWindow$[ebp]
  00009	50		 push	 eax
  0000a	6a 00		 push	 0
  0000c	ff 75 0c	 push	 DWORD PTR _poArgs$[ebp]
  0000f	e8 00 00 00 00	 call	 ?PyTuple_GetWindow@@YA_NPAU_object@@HPAPAVCWindow@UI@@@Z ; PyTuple_GetWindow
  00014	83 c4 0c	 add	 esp, 12			; 0000000cH
  00017	84 c0		 test	 al, al
  00019	75 0e		 jne	 SHORT $LN2@wndImageLo
$LN6@wndImageLo:

; 1974 : }

  0001b	6a 00		 push	 0
  0001d	e8 00 00 00 00	 call	 ?Py_BuildException@@YAPAU_object@@PBDZZ ; Py_BuildException
  00022	83 c4 04	 add	 esp, 4
  00025	8b e5		 mov	 esp, ebp
  00027	5d		 pop	 ebp
  00028	c3		 ret	 0
$LN2@wndImageLo:

; 1965 : 		return Py_BuildException();
; 1966 : 	char * szFileName;
; 1967 : 	if (!PyTuple_GetString(poArgs, 1, &szFileName))

  00029	8d 45 fc	 lea	 eax, DWORD PTR _szFileName$[ebp]
  0002c	50		 push	 eax
  0002d	6a 01		 push	 1
  0002f	ff 75 0c	 push	 DWORD PTR _poArgs$[ebp]
  00032	e8 00 00 00 00	 call	 ?PyTuple_GetString@@YA_NPAU_object@@HPAPAD@Z ; PyTuple_GetString
  00037	83 c4 0c	 add	 esp, 12			; 0000000cH
  0003a	84 c0		 test	 al, al
  0003c	74 dd		 je	 SHORT $LN6@wndImageLo

; 1968 : 		return Py_BuildException();
; 1969 : 
; 1970 : 	if (!((UI::CImageBox*)pWindow)->LoadImage(szFileName))

  0003e	ff 75 fc	 push	 DWORD PTR _szFileName$[ebp]
  00041	8b 4d f8	 mov	 ecx, DWORD PTR _pWindow$[ebp]
  00044	e8 00 00 00 00	 call	 ?LoadImageA@CImageBox@UI@@QAEHPBD@Z ; UI::CImageBox::LoadImageA
  00049	85 c0		 test	 eax, eax
  0004b	75 14		 jne	 SHORT $LN4@wndImageLo

; 1971 : 		return Py_BuildException("Failed to load image (filename: %s)", szFileName);

  0004d	ff 75 fc	 push	 DWORD PTR _szFileName$[ebp]
  00050	68 00 00 00 00	 push	 OFFSET ??_C@_0CE@HBOEBFCG@Failed?5to?5load?5image?5?$CIfilename?3@
  00055	e8 00 00 00 00	 call	 ?Py_BuildException@@YAPAU_object@@PBDZZ ; Py_BuildException
  0005a	83 c4 08	 add	 esp, 8

; 1974 : }

  0005d	8b e5		 mov	 esp, ebp
  0005f	5d		 pop	 ebp
  00060	c3		 ret	 0
$LN4@wndImageLo:

; 1972 : 
; 1973 : 	return Py_BuildNone();

  00061	e8 00 00 00 00	 call	 ?Py_BuildNone@@YAPAU_object@@XZ ; Py_BuildNone

; 1974 : }

  00066	8b e5		 mov	 esp, ebp
  00068	5d		 pop	 ebp
  00069	c3		 ret	 0
?wndImageLoadImage@@YAPAU_object@@PAU1@0@Z ENDP		; wndImageLoadImage
_TEXT	ENDS
; Function compile flags: /Ogtp
; File C:\DS Project\DS Files\Source\ClientSource\Client\eterPythonLib\PythonWindowManagerModule.cpp
;	COMDAT ?wndMarkBox_SetDiffuseColor@@YAPAU_object@@PAU1@0@Z
_TEXT	SEGMENT
_pWindow$ = -20						; size = 4
_fr$ = -16						; size = 4
_fg$ = -12						; size = 4
_fb$ = -8						; size = 4
_fa$ = -4						; size = 4
_poSelf$ = 8						; size = 4
_poArgs$ = 12						; size = 4
?wndMarkBox_SetDiffuseColor@@YAPAU_object@@PAU1@0@Z PROC ; wndMarkBox_SetDiffuseColor, COMDAT

; 1938 : {

  00000	55		 push	 ebp
  00001	8b ec		 mov	 ebp, esp
  00003	83 ec 14	 sub	 esp, 20			; 00000014H

; 1939 : 	UI::CWindow * pWindow;
; 1940 : 	if (!PyTuple_GetWindow(poArgs, 0, &pWindow))

  00006	8d 45 ec	 lea	 eax, DWORD PTR _pWindow$[ebp]
  00009	56		 push	 esi
  0000a	8b 75 0c	 mov	 esi, DWORD PTR _poArgs$[ebp]
  0000d	50		 push	 eax
  0000e	6a 00		 push	 0
  00010	56		 push	 esi
  00011	e8 00 00 00 00	 call	 ?PyTuple_GetWindow@@YA_NPAU_object@@HPAPAVCWindow@UI@@@Z ; PyTuple_GetWindow
  00016	83 c4 0c	 add	 esp, 12			; 0000000cH
  00019	84 c0		 test	 al, al
  0001b	75 0f		 jne	 SHORT $LN2@wndMarkBox
$LN8@wndMarkBox:

; 1958 : }

  0001d	6a 00		 push	 0
  0001f	e8 00 00 00 00	 call	 ?Py_BuildException@@YAPAU_object@@PBDZZ ; Py_BuildException
  00024	83 c4 04	 add	 esp, 4
  00027	5e		 pop	 esi
  00028	8b e5		 mov	 esp, ebp
  0002a	5d		 pop	 ebp
  0002b	c3		 ret	 0
$LN2@wndMarkBox:

; 1941 : 		return Py_BuildException();
; 1942 : 	float fr;
; 1943 : 	if (!PyTuple_GetFloat(poArgs, 1, &fr))

  0002c	8d 45 f0	 lea	 eax, DWORD PTR _fr$[ebp]
  0002f	50		 push	 eax
  00030	6a 01		 push	 1
  00032	56		 push	 esi
  00033	e8 00 00 00 00	 call	 ?PyTuple_GetFloat@@YA_NPAU_object@@HPAM@Z ; PyTuple_GetFloat
  00038	83 c4 0c	 add	 esp, 12			; 0000000cH
  0003b	84 c0		 test	 al, al
  0003d	74 de		 je	 SHORT $LN8@wndMarkBox

; 1944 : 		return Py_BuildException();
; 1945 : 	float fg;
; 1946 : 	if (!PyTuple_GetFloat(poArgs, 2, &fg))

  0003f	8d 45 f4	 lea	 eax, DWORD PTR _fg$[ebp]
  00042	50		 push	 eax
  00043	6a 02		 push	 2
  00045	56		 push	 esi
  00046	e8 00 00 00 00	 call	 ?PyTuple_GetFloat@@YA_NPAU_object@@HPAM@Z ; PyTuple_GetFloat
  0004b	83 c4 0c	 add	 esp, 12			; 0000000cH
  0004e	84 c0		 test	 al, al
  00050	74 cb		 je	 SHORT $LN8@wndMarkBox

; 1947 : 		return Py_BuildException();
; 1948 : 	float fb;
; 1949 : 	if (!PyTuple_GetFloat(poArgs, 3, &fb))

  00052	8d 45 f8	 lea	 eax, DWORD PTR _fb$[ebp]
  00055	50		 push	 eax
  00056	6a 03		 push	 3
  00058	56		 push	 esi
  00059	e8 00 00 00 00	 call	 ?PyTuple_GetFloat@@YA_NPAU_object@@HPAM@Z ; PyTuple_GetFloat
  0005e	83 c4 0c	 add	 esp, 12			; 0000000cH
  00061	84 c0		 test	 al, al
  00063	74 b8		 je	 SHORT $LN8@wndMarkBox

; 1950 : 		return Py_BuildException();
; 1951 : 	float fa;
; 1952 : 	if (!PyTuple_GetFloat(poArgs, 4, &fa))

  00065	8d 45 fc	 lea	 eax, DWORD PTR _fa$[ebp]
  00068	50		 push	 eax
  00069	6a 04		 push	 4
  0006b	56		 push	 esi
  0006c	e8 00 00 00 00	 call	 ?PyTuple_GetFloat@@YA_NPAU_object@@HPAM@Z ; PyTuple_GetFloat
  00071	83 c4 0c	 add	 esp, 12			; 0000000cH
  00074	84 c0		 test	 al, al
  00076	74 a5		 je	 SHORT $LN8@wndMarkBox

; 1953 : 		return Py_BuildException();
; 1954 : 
; 1955 : 	((UI::CMarkBox*)pWindow)->SetDiffuseColor(fr, fg, fb, fa);

  00078	f3 0f 10 45 fc	 movss	 xmm0, DWORD PTR _fa$[ebp]
  0007d	83 ec 10	 sub	 esp, 16			; 00000010H
  00080	8b 4d ec	 mov	 ecx, DWORD PTR _pWindow$[ebp]
  00083	f3 0f 11 44 24
	0c		 movss	 DWORD PTR [esp+12], xmm0
  00089	f3 0f 10 45 f8	 movss	 xmm0, DWORD PTR _fb$[ebp]
  0008e	f3 0f 11 44 24
	08		 movss	 DWORD PTR [esp+8], xmm0
  00094	f3 0f 10 45 f4	 movss	 xmm0, DWORD PTR _fg$[ebp]
  00099	f3 0f 11 44 24
	04		 movss	 DWORD PTR [esp+4], xmm0
  0009f	f3 0f 10 45 f0	 movss	 xmm0, DWORD PTR _fr$[ebp]
  000a4	f3 0f 11 04 24	 movss	 DWORD PTR [esp], xmm0
  000a9	e8 00 00 00 00	 call	 ?SetDiffuseColor@CMarkBox@UI@@QAEXMMMM@Z ; UI::CMarkBox::SetDiffuseColor

; 1956 : 
; 1957 : 	return Py_BuildNone();

  000ae	e8 00 00 00 00	 call	 ?Py_BuildNone@@YAPAU_object@@XZ ; Py_BuildNone
  000b3	5e		 pop	 esi

; 1958 : }

  000b4	8b e5		 mov	 esp, ebp
  000b6	5d		 pop	 ebp
  000b7	c3		 ret	 0
?wndMarkBox_SetDiffuseColor@@YAPAU_object@@PAU1@0@Z ENDP ; wndMarkBox_SetDiffuseColor
_TEXT	ENDS
; Function compile flags: /Ogtp
; File C:\DS Project\DS Files\Source\ClientSource\Client\eterPythonLib\PythonWindowManagerModule.cpp
;	COMDAT ?wndMarkBox_SetScale@@YAPAU_object@@PAU1@0@Z
_TEXT	SEGMENT
_pWindow$ = -8						; size = 4
_fScale$ = -4						; size = 4
_poSelf$ = 8						; size = 4
_poArgs$ = 12						; size = 4
?wndMarkBox_SetScale@@YAPAU_object@@PAU1@0@Z PROC	; wndMarkBox_SetScale, COMDAT

; 1923 : {

  00000	55		 push	 ebp
  00001	8b ec		 mov	 ebp, esp
  00003	83 ec 08	 sub	 esp, 8

; 1924 : 	UI::CWindow * pWindow;
; 1925 : 	if (!PyTuple_GetWindow(poArgs, 0, &pWindow))

  00006	8d 45 f8	 lea	 eax, DWORD PTR _pWindow$[ebp]
  00009	50		 push	 eax
  0000a	6a 00		 push	 0
  0000c	ff 75 0c	 push	 DWORD PTR _poArgs$[ebp]
  0000f	e8 00 00 00 00	 call	 ?PyTuple_GetWindow@@YA_NPAU_object@@HPAPAVCWindow@UI@@@Z ; PyTuple_GetWindow
  00014	83 c4 0c	 add	 esp, 12			; 0000000cH
  00017	84 c0		 test	 al, al
  00019	75 0e		 jne	 SHORT $LN2@wndMarkBox
$LN5@wndMarkBox:

; 1934 : }

  0001b	6a 00		 push	 0
  0001d	e8 00 00 00 00	 call	 ?Py_BuildException@@YAPAU_object@@PBDZZ ; Py_BuildException
  00022	83 c4 04	 add	 esp, 4
  00025	8b e5		 mov	 esp, ebp
  00027	5d		 pop	 ebp
  00028	c3		 ret	 0
$LN2@wndMarkBox:

; 1926 : 		return Py_BuildException();
; 1927 : 
; 1928 : 	float fScale;
; 1929 : 	if (!PyTuple_GetFloat(poArgs, 1, &fScale))

  00029	8d 45 fc	 lea	 eax, DWORD PTR _fScale$[ebp]
  0002c	50		 push	 eax
  0002d	6a 01		 push	 1
  0002f	ff 75 0c	 push	 DWORD PTR _poArgs$[ebp]
  00032	e8 00 00 00 00	 call	 ?PyTuple_GetFloat@@YA_NPAU_object@@HPAM@Z ; PyTuple_GetFloat
  00037	83 c4 0c	 add	 esp, 12			; 0000000cH
  0003a	84 c0		 test	 al, al
  0003c	74 dd		 je	 SHORT $LN5@wndMarkBox

; 1930 : 		return Py_BuildException();
; 1931 : 
; 1932 : 	((UI::CMarkBox*)pWindow)->SetScale(fScale);

  0003e	f3 0f 10 45 fc	 movss	 xmm0, DWORD PTR _fScale$[ebp]
  00043	51		 push	 ecx
  00044	8b 4d f8	 mov	 ecx, DWORD PTR _pWindow$[ebp]
  00047	f3 0f 11 04 24	 movss	 DWORD PTR [esp], xmm0
  0004c	e8 00 00 00 00	 call	 ?SetScale@CMarkBox@UI@@QAEXM@Z ; UI::CMarkBox::SetScale

; 1933 : 	return Py_BuildNone();

  00051	e8 00 00 00 00	 call	 ?Py_BuildNone@@YAPAU_object@@XZ ; Py_BuildNone

; 1934 : }

  00056	8b e5		 mov	 esp, ebp
  00058	5d		 pop	 ebp
  00059	c3		 ret	 0
?wndMarkBox_SetScale@@YAPAU_object@@PAU1@0@Z ENDP	; wndMarkBox_SetScale
_TEXT	ENDS
; Function compile flags: /Ogtp
; File C:\DS Project\DS Files\Source\ClientSource\Client\eterPythonLib\PythonWindowManagerModule.cpp
;	COMDAT ?wndMarkBox_SetIndex@@YAPAU_object@@PAU1@0@Z
_TEXT	SEGMENT
_pWindow$ = -8						; size = 4
_nIndex$ = -4						; size = 4
_poSelf$ = 8						; size = 4
_poArgs$ = 12						; size = 4
?wndMarkBox_SetIndex@@YAPAU_object@@PAU1@0@Z PROC	; wndMarkBox_SetIndex, COMDAT

; 1909 : {

  00000	55		 push	 ebp
  00001	8b ec		 mov	 ebp, esp
  00003	83 ec 08	 sub	 esp, 8

; 1910 : 	UI::CWindow * pWindow;
; 1911 : 	if (!PyTuple_GetWindow(poArgs, 0, &pWindow))

  00006	8d 45 f8	 lea	 eax, DWORD PTR _pWindow$[ebp]
  00009	50		 push	 eax
  0000a	6a 00		 push	 0
  0000c	ff 75 0c	 push	 DWORD PTR _poArgs$[ebp]
  0000f	e8 00 00 00 00	 call	 ?PyTuple_GetWindow@@YA_NPAU_object@@HPAPAVCWindow@UI@@@Z ; PyTuple_GetWindow
  00014	83 c4 0c	 add	 esp, 12			; 0000000cH
  00017	84 c0		 test	 al, al
  00019	75 0e		 jne	 SHORT $LN2@wndMarkBox
$LN5@wndMarkBox:

; 1920 : }

  0001b	6a 00		 push	 0
  0001d	e8 00 00 00 00	 call	 ?Py_BuildException@@YAPAU_object@@PBDZZ ; Py_BuildException
  00022	83 c4 04	 add	 esp, 4
  00025	8b e5		 mov	 esp, ebp
  00027	5d		 pop	 ebp
  00028	c3		 ret	 0
$LN2@wndMarkBox:

; 1912 : 		return Py_BuildException();
; 1913 : 
; 1914 : 	int nIndex;
; 1915 : 	if (!PyTuple_GetInteger(poArgs, 1, &nIndex))

  00029	8d 45 fc	 lea	 eax, DWORD PTR _nIndex$[ebp]
  0002c	50		 push	 eax
  0002d	6a 01		 push	 1
  0002f	ff 75 0c	 push	 DWORD PTR _poArgs$[ebp]
  00032	e8 00 00 00 00	 call	 ?PyTuple_GetInteger@@YA_NPAU_object@@HPAH@Z ; PyTuple_GetInteger
  00037	83 c4 0c	 add	 esp, 12			; 0000000cH
  0003a	84 c0		 test	 al, al
  0003c	74 dd		 je	 SHORT $LN5@wndMarkBox

; 1916 : 		return Py_BuildException();
; 1917 : 
; 1918 : 	((UI::CMarkBox*)pWindow)->SetIndex(nIndex);

  0003e	ff 75 fc	 push	 DWORD PTR _nIndex$[ebp]
  00041	8b 4d f8	 mov	 ecx, DWORD PTR _pWindow$[ebp]
  00044	e8 00 00 00 00	 call	 ?SetIndex@CMarkBox@UI@@QAEXI@Z ; UI::CMarkBox::SetIndex

; 1919 : 	return Py_BuildNone();

  00049	e8 00 00 00 00	 call	 ?Py_BuildNone@@YAPAU_object@@XZ ; Py_BuildNone

; 1920 : }

  0004e	8b e5		 mov	 esp, ebp
  00050	5d		 pop	 ebp
  00051	c3		 ret	 0
?wndMarkBox_SetIndex@@YAPAU_object@@PAU1@0@Z ENDP	; wndMarkBox_SetIndex
_TEXT	ENDS
; Function compile flags: /Ogtp
; File C:\DS Project\DS Files\Source\ClientSource\Client\eterPythonLib\PythonWindowManagerModule.cpp
;	COMDAT ?wndMarkBox_Load@@YAPAU_object@@PAU1@0@Z
_TEXT	SEGMENT
_poSelf$ = 8						; size = 4
_poArgs$ = 12						; size = 4
?wndMarkBox_Load@@YAPAU_object@@PAU1@0@Z PROC		; wndMarkBox_Load, COMDAT

; 1905 : 	return Py_BuildNone();

  00000	e9 00 00 00 00	 jmp	 ?Py_BuildNone@@YAPAU_object@@XZ ; Py_BuildNone
?wndMarkBox_Load@@YAPAU_object@@PAU1@0@Z ENDP		; wndMarkBox_Load
_TEXT	ENDS
; Function compile flags: /Ogtp
; File C:\DS Project\DS Files\Source\ClientSource\Client\eterPythonLib\PythonWindowManagerModule.cpp
;	COMDAT ?wndMarkBox_SetImage@@YAPAU_object@@PAU1@0@Z
_TEXT	SEGMENT
_poSelf$ = 8						; size = 4
_poArgs$ = 12						; size = 4
?wndMarkBox_SetImage@@YAPAU_object@@PAU1@0@Z PROC	; wndMarkBox_SetImage, COMDAT

; 1900 : 	return Py_BuildNone();

  00000	e9 00 00 00 00	 jmp	 ?Py_BuildNone@@YAPAU_object@@XZ ; Py_BuildNone
?wndMarkBox_SetImage@@YAPAU_object@@PAU1@0@Z ENDP	; wndMarkBox_SetImage
_TEXT	ENDS
; Function compile flags: /Ogtp
; File C:\DS Project\DS Files\Source\ClientSource\Client\eterPythonLib\PythonWindowManagerModule.cpp
;	COMDAT ?wndMarkBox_SetImageFilename@@YAPAU_object@@PAU1@0@Z
_TEXT	SEGMENT
_pWindow$ = -8						; size = 4
_szFileName$ = -4					; size = 4
_poSelf$ = 8						; size = 4
_poArgs$ = 12						; size = 4
?wndMarkBox_SetImageFilename@@YAPAU_object@@PAU1@0@Z PROC ; wndMarkBox_SetImageFilename, COMDAT

; 1886 : {

  00000	55		 push	 ebp
  00001	8b ec		 mov	 ebp, esp
  00003	83 ec 08	 sub	 esp, 8

; 1887 : 	UI::CWindow * pWindow;
; 1888 : 	if (!PyTuple_GetWindow(poArgs, 0, &pWindow))

  00006	8d 45 f8	 lea	 eax, DWORD PTR _pWindow$[ebp]
  00009	50		 push	 eax
  0000a	6a 00		 push	 0
  0000c	ff 75 0c	 push	 DWORD PTR _poArgs$[ebp]
  0000f	e8 00 00 00 00	 call	 ?PyTuple_GetWindow@@YA_NPAU_object@@HPAPAVCWindow@UI@@@Z ; PyTuple_GetWindow
  00014	83 c4 0c	 add	 esp, 12			; 0000000cH
  00017	84 c0		 test	 al, al
  00019	75 0e		 jne	 SHORT $LN2@wndMarkBox
$LN5@wndMarkBox:

; 1896 : }

  0001b	6a 00		 push	 0
  0001d	e8 00 00 00 00	 call	 ?Py_BuildException@@YAPAU_object@@PBDZZ ; Py_BuildException
  00022	83 c4 04	 add	 esp, 4
  00025	8b e5		 mov	 esp, ebp
  00027	5d		 pop	 ebp
  00028	c3		 ret	 0
$LN2@wndMarkBox:

; 1889 : 		return Py_BuildException();
; 1890 : 	char * szFileName;
; 1891 : 	if (!PyTuple_GetString(poArgs, 1, &szFileName))

  00029	8d 45 fc	 lea	 eax, DWORD PTR _szFileName$[ebp]
  0002c	50		 push	 eax
  0002d	6a 01		 push	 1
  0002f	ff 75 0c	 push	 DWORD PTR _poArgs$[ebp]
  00032	e8 00 00 00 00	 call	 ?PyTuple_GetString@@YA_NPAU_object@@HPAPAD@Z ; PyTuple_GetString
  00037	83 c4 0c	 add	 esp, 12			; 0000000cH
  0003a	84 c0		 test	 al, al
  0003c	74 dd		 je	 SHORT $LN5@wndMarkBox

; 1892 : 		return Py_BuildException();
; 1893 : 
; 1894 : 	((UI::CMarkBox*)pWindow)->LoadImage(szFileName);

  0003e	ff 75 fc	 push	 DWORD PTR _szFileName$[ebp]
  00041	8b 4d f8	 mov	 ecx, DWORD PTR _pWindow$[ebp]
  00044	e8 00 00 00 00	 call	 ?LoadImageA@CMarkBox@UI@@QAEXPBD@Z ; UI::CMarkBox::LoadImageA

; 1895 : 	return Py_BuildNone();

  00049	e8 00 00 00 00	 call	 ?Py_BuildNone@@YAPAU_object@@XZ ; Py_BuildNone

; 1896 : }

  0004e	8b e5		 mov	 esp, ebp
  00050	5d		 pop	 ebp
  00051	c3		 ret	 0
?wndMarkBox_SetImageFilename@@YAPAU_object@@PAU1@0@Z ENDP ; wndMarkBox_SetImageFilename
_TEXT	ENDS
; Function compile flags: /Ogtp
; File C:\DS Project\DS Files\Source\ClientSource\Client\eterPythonLib\PythonWindowManagerModule.cpp
;	COMDAT ?wndNumberSetPath@@YAPAU_object@@PAU1@0@Z
_TEXT	SEGMENT
_pWindow$ = -8						; size = 4
_szPath$ = -4						; size = 4
_poSelf$ = 8						; size = 4
_poArgs$ = 12						; size = 4
?wndNumberSetPath@@YAPAU_object@@PAU1@0@Z PROC		; wndNumberSetPath, COMDAT

; 1872 : {

  00000	55		 push	 ebp
  00001	8b ec		 mov	 ebp, esp
  00003	83 ec 08	 sub	 esp, 8

; 1873 : 	UI::CWindow * pWindow;
; 1874 : 	if (!PyTuple_GetWindow(poArgs, 0, &pWindow))

  00006	8d 45 f8	 lea	 eax, DWORD PTR _pWindow$[ebp]
  00009	50		 push	 eax
  0000a	6a 00		 push	 0
  0000c	ff 75 0c	 push	 DWORD PTR _poArgs$[ebp]
  0000f	e8 00 00 00 00	 call	 ?PyTuple_GetWindow@@YA_NPAU_object@@HPAPAVCWindow@UI@@@Z ; PyTuple_GetWindow
  00014	83 c4 0c	 add	 esp, 12			; 0000000cH
  00017	84 c0		 test	 al, al
  00019	75 0e		 jne	 SHORT $LN2@wndNumberS
$LN5@wndNumberS:

; 1883 : }

  0001b	6a 00		 push	 0
  0001d	e8 00 00 00 00	 call	 ?Py_BuildException@@YAPAU_object@@PBDZZ ; Py_BuildException
  00022	83 c4 04	 add	 esp, 4
  00025	8b e5		 mov	 esp, ebp
  00027	5d		 pop	 ebp
  00028	c3		 ret	 0
$LN2@wndNumberS:

; 1875 : 		return Py_BuildException();
; 1876 : 	char * szPath;
; 1877 : 	if (!PyTuple_GetString(poArgs, 1, &szPath))

  00029	8d 45 fc	 lea	 eax, DWORD PTR _szPath$[ebp]
  0002c	50		 push	 eax
  0002d	6a 01		 push	 1
  0002f	ff 75 0c	 push	 DWORD PTR _poArgs$[ebp]
  00032	e8 00 00 00 00	 call	 ?PyTuple_GetString@@YA_NPAU_object@@HPAPAD@Z ; PyTuple_GetString
  00037	83 c4 0c	 add	 esp, 12			; 0000000cH
  0003a	84 c0		 test	 al, al
  0003c	74 dd		 je	 SHORT $LN5@wndNumberS

; 1878 : 		return Py_BuildException();
; 1879 : 
; 1880 : 	((UI::CNumberLine*)pWindow)->SetPath(szPath);

  0003e	ff 75 fc	 push	 DWORD PTR _szPath$[ebp]
  00041	8b 4d f8	 mov	 ecx, DWORD PTR _pWindow$[ebp]
  00044	e8 00 00 00 00	 call	 ?SetPath@CNumberLine@UI@@QAEXPBD@Z ; UI::CNumberLine::SetPath

; 1881 : 
; 1882 : 	return Py_BuildNone();

  00049	e8 00 00 00 00	 call	 ?Py_BuildNone@@YAPAU_object@@XZ ; Py_BuildNone

; 1883 : }

  0004e	8b e5		 mov	 esp, ebp
  00050	5d		 pop	 ebp
  00051	c3		 ret	 0
?wndNumberSetPath@@YAPAU_object@@PAU1@0@Z ENDP		; wndNumberSetPath
_TEXT	ENDS
; Function compile flags: /Ogtp
; File C:\DS Project\DS Files\Source\ClientSource\Client\eterPythonLib\PythonWindowManagerModule.cpp
;	COMDAT ?wndNumberSetNumberHorizontalAlignRight@@YAPAU_object@@PAU1@0@Z
_TEXT	SEGMENT
_pWindow$ = -4						; size = 4
_poSelf$ = 8						; size = 4
_poArgs$ = 12						; size = 4
?wndNumberSetNumberHorizontalAlignRight@@YAPAU_object@@PAU1@0@Z PROC ; wndNumberSetNumberHorizontalAlignRight, COMDAT

; 1861 : {

  00000	55		 push	 ebp
  00001	8b ec		 mov	 ebp, esp
  00003	51		 push	 ecx

; 1862 : 	UI::CWindow * pWindow;
; 1863 : 	if (!PyTuple_GetWindow(poArgs, 0, &pWindow))

  00004	8d 45 fc	 lea	 eax, DWORD PTR _pWindow$[ebp]
  00007	50		 push	 eax
  00008	6a 00		 push	 0
  0000a	ff 75 0c	 push	 DWORD PTR _poArgs$[ebp]
  0000d	e8 00 00 00 00	 call	 ?PyTuple_GetWindow@@YA_NPAU_object@@HPAPAVCWindow@UI@@@Z ; PyTuple_GetWindow
  00012	83 c4 0c	 add	 esp, 12			; 0000000cH
  00015	84 c0		 test	 al, al
  00017	75 0e		 jne	 SHORT $LN2@wndNumberS

; 1864 : 		return Py_BuildException();

  00019	6a 00		 push	 0
  0001b	e8 00 00 00 00	 call	 ?Py_BuildException@@YAPAU_object@@PBDZZ ; Py_BuildException
  00020	83 c4 04	 add	 esp, 4

; 1869 : }

  00023	8b e5		 mov	 esp, ebp
  00025	5d		 pop	 ebp
  00026	c3		 ret	 0
$LN2@wndNumberS:

; 1865 : 
; 1866 : 	((UI::CNumberLine*)pWindow)->SetHorizontalAlign(UI::CWindow::HORIZONTAL_ALIGN_RIGHT);

  00027	8b 4d fc	 mov	 ecx, DWORD PTR _pWindow$[ebp]
  0002a	6a 02		 push	 2
  0002c	e8 00 00 00 00	 call	 ?SetHorizontalAlign@CNumberLine@UI@@QAEXH@Z ; UI::CNumberLine::SetHorizontalAlign

; 1867 : 
; 1868 : 	return Py_BuildNone();

  00031	e8 00 00 00 00	 call	 ?Py_BuildNone@@YAPAU_object@@XZ ; Py_BuildNone

; 1869 : }

  00036	8b e5		 mov	 esp, ebp
  00038	5d		 pop	 ebp
  00039	c3		 ret	 0
?wndNumberSetNumberHorizontalAlignRight@@YAPAU_object@@PAU1@0@Z ENDP ; wndNumberSetNumberHorizontalAlignRight
_TEXT	ENDS
; Function compile flags: /Ogtp
; File C:\DS Project\DS Files\Source\ClientSource\Client\eterPythonLib\PythonWindowManagerModule.cpp
;	COMDAT ?wndNumberSetNumberHorizontalAlignCenter@@YAPAU_object@@PAU1@0@Z
_TEXT	SEGMENT
_pWindow$ = -4						; size = 4
_poSelf$ = 8						; size = 4
_poArgs$ = 12						; size = 4
?wndNumberSetNumberHorizontalAlignCenter@@YAPAU_object@@PAU1@0@Z PROC ; wndNumberSetNumberHorizontalAlignCenter, COMDAT

; 1850 : {

  00000	55		 push	 ebp
  00001	8b ec		 mov	 ebp, esp
  00003	51		 push	 ecx

; 1851 : 	UI::CWindow * pWindow;
; 1852 : 	if (!PyTuple_GetWindow(poArgs, 0, &pWindow))

  00004	8d 45 fc	 lea	 eax, DWORD PTR _pWindow$[ebp]
  00007	50		 push	 eax
  00008	6a 00		 push	 0
  0000a	ff 75 0c	 push	 DWORD PTR _poArgs$[ebp]
  0000d	e8 00 00 00 00	 call	 ?PyTuple_GetWindow@@YA_NPAU_object@@HPAPAVCWindow@UI@@@Z ; PyTuple_GetWindow
  00012	83 c4 0c	 add	 esp, 12			; 0000000cH
  00015	84 c0		 test	 al, al
  00017	75 0e		 jne	 SHORT $LN2@wndNumberS

; 1853 : 		return Py_BuildException();

  00019	6a 00		 push	 0
  0001b	e8 00 00 00 00	 call	 ?Py_BuildException@@YAPAU_object@@PBDZZ ; Py_BuildException
  00020	83 c4 04	 add	 esp, 4

; 1858 : }

  00023	8b e5		 mov	 esp, ebp
  00025	5d		 pop	 ebp
  00026	c3		 ret	 0
$LN2@wndNumberS:

; 1854 : 
; 1855 : 	((UI::CNumberLine*)pWindow)->SetHorizontalAlign(UI::CWindow::HORIZONTAL_ALIGN_CENTER);

  00027	8b 4d fc	 mov	 ecx, DWORD PTR _pWindow$[ebp]
  0002a	6a 01		 push	 1
  0002c	e8 00 00 00 00	 call	 ?SetHorizontalAlign@CNumberLine@UI@@QAEXH@Z ; UI::CNumberLine::SetHorizontalAlign

; 1856 : 
; 1857 : 	return Py_BuildNone();

  00031	e8 00 00 00 00	 call	 ?Py_BuildNone@@YAPAU_object@@XZ ; Py_BuildNone

; 1858 : }

  00036	8b e5		 mov	 esp, ebp
  00038	5d		 pop	 ebp
  00039	c3		 ret	 0
?wndNumberSetNumberHorizontalAlignCenter@@YAPAU_object@@PAU1@0@Z ENDP ; wndNumberSetNumberHorizontalAlignCenter
_TEXT	ENDS
; Function compile flags: /Ogtp
; File C:\DS Project\DS Files\Source\ClientSource\Client\eterPythonLib\PythonWindowManagerModule.cpp
;	COMDAT ?wndNumberSetNumber@@YAPAU_object@@PAU1@0@Z
_TEXT	SEGMENT
_pWindow$ = -8						; size = 4
_szNumber$ = -4						; size = 4
_poSelf$ = 8						; size = 4
_poArgs$ = 12						; size = 4
?wndNumberSetNumber@@YAPAU_object@@PAU1@0@Z PROC	; wndNumberSetNumber, COMDAT

; 1836 : {

  00000	55		 push	 ebp
  00001	8b ec		 mov	 ebp, esp
  00003	83 ec 08	 sub	 esp, 8

; 1837 : 	UI::CWindow * pWindow;
; 1838 : 	if (!PyTuple_GetWindow(poArgs, 0, &pWindow))

  00006	8d 45 f8	 lea	 eax, DWORD PTR _pWindow$[ebp]
  00009	50		 push	 eax
  0000a	6a 00		 push	 0
  0000c	ff 75 0c	 push	 DWORD PTR _poArgs$[ebp]
  0000f	e8 00 00 00 00	 call	 ?PyTuple_GetWindow@@YA_NPAU_object@@HPAPAVCWindow@UI@@@Z ; PyTuple_GetWindow
  00014	83 c4 0c	 add	 esp, 12			; 0000000cH
  00017	84 c0		 test	 al, al
  00019	75 0e		 jne	 SHORT $LN2@wndNumberS
$LN5@wndNumberS:

; 1847 : }

  0001b	6a 00		 push	 0
  0001d	e8 00 00 00 00	 call	 ?Py_BuildException@@YAPAU_object@@PBDZZ ; Py_BuildException
  00022	83 c4 04	 add	 esp, 4
  00025	8b e5		 mov	 esp, ebp
  00027	5d		 pop	 ebp
  00028	c3		 ret	 0
$LN2@wndNumberS:

; 1839 : 		return Py_BuildException();
; 1840 : 	char * szNumber;
; 1841 : 	if (!PyTuple_GetString(poArgs, 1, &szNumber))

  00029	8d 45 fc	 lea	 eax, DWORD PTR _szNumber$[ebp]
  0002c	50		 push	 eax
  0002d	6a 01		 push	 1
  0002f	ff 75 0c	 push	 DWORD PTR _poArgs$[ebp]
  00032	e8 00 00 00 00	 call	 ?PyTuple_GetString@@YA_NPAU_object@@HPAPAD@Z ; PyTuple_GetString
  00037	83 c4 0c	 add	 esp, 12			; 0000000cH
  0003a	84 c0		 test	 al, al
  0003c	74 dd		 je	 SHORT $LN5@wndNumberS

; 1842 : 		return Py_BuildException();
; 1843 : 
; 1844 : 	((UI::CNumberLine*)pWindow)->SetNumber(szNumber);

  0003e	ff 75 fc	 push	 DWORD PTR _szNumber$[ebp]
  00041	8b 4d f8	 mov	 ecx, DWORD PTR _pWindow$[ebp]
  00044	e8 00 00 00 00	 call	 ?SetNumber@CNumberLine@UI@@QAEXPBD@Z ; UI::CNumberLine::SetNumber

; 1845 : 
; 1846 : 	return Py_BuildNone();

  00049	e8 00 00 00 00	 call	 ?Py_BuildNone@@YAPAU_object@@XZ ; Py_BuildNone

; 1847 : }

  0004e	8b e5		 mov	 esp, ebp
  00050	5d		 pop	 ebp
  00051	c3		 ret	 0
?wndNumberSetNumber@@YAPAU_object@@PAU1@0@Z ENDP	; wndNumberSetNumber
_TEXT	ENDS
; Function compile flags: /Ogtp
; File C:\DS Project\DS Files\Source\ClientSource\Client\eterPythonLib\PythonWindowManagerModule.cpp
;	COMDAT ?wndTextGetCursorPosition@@YAPAU_object@@PAU1@0@Z
_TEXT	SEGMENT
_pWindow$ = -4						; size = 4
_poSelf$ = 8						; size = 4
_poArgs$ = 12						; size = 4
?wndTextGetCursorPosition@@YAPAU_object@@PAU1@0@Z PROC	; wndTextGetCursorPosition, COMDAT

; 1827 : {

  00000	55		 push	 ebp
  00001	8b ec		 mov	 ebp, esp
  00003	51		 push	 ecx

; 1828 : 	UI::CWindow * pWindow;
; 1829 : 	if (!PyTuple_GetWindow(poArgs, 0, &pWindow))

  00004	8d 45 fc	 lea	 eax, DWORD PTR _pWindow$[ebp]
  00007	50		 push	 eax
  00008	6a 00		 push	 0
  0000a	ff 75 0c	 push	 DWORD PTR _poArgs$[ebp]
  0000d	e8 00 00 00 00	 call	 ?PyTuple_GetWindow@@YA_NPAU_object@@HPAPAVCWindow@UI@@@Z ; PyTuple_GetWindow
  00012	83 c4 0c	 add	 esp, 12			; 0000000cH
  00015	84 c0		 test	 al, al
  00017	75 0e		 jne	 SHORT $LN2@wndTextGet

; 1830 : 		return Py_BuildException();

  00019	6a 00		 push	 0
  0001b	e8 00 00 00 00	 call	 ?Py_BuildException@@YAPAU_object@@PBDZZ ; Py_BuildException
  00020	83 c4 04	 add	 esp, 4

; 1833 : }

  00023	8b e5		 mov	 esp, ebp
  00025	5d		 pop	 ebp
  00026	c3		 ret	 0
$LN2@wndTextGet:

; 1831 : 
; 1832 : 	return Py_BuildValue("i", ((UI::CTextLine*)pWindow)->GetCursorPosition());

  00027	8b 4d fc	 mov	 ecx, DWORD PTR _pWindow$[ebp]
  0002a	e8 00 00 00 00	 call	 ?GetCursorPosition@CTextLine@UI@@QAEHXZ ; UI::CTextLine::GetCursorPosition
  0002f	50		 push	 eax
  00030	68 00 00 00 00	 push	 OFFSET ??_C@_01KBJDNOO@i@
  00035	ff 15 00 00 00
	00		 call	 DWORD PTR __imp__Py_BuildValue
  0003b	83 c4 08	 add	 esp, 8

; 1833 : }

  0003e	8b e5		 mov	 esp, ebp
  00040	5d		 pop	 ebp
  00041	c3		 ret	 0
?wndTextGetCursorPosition@@YAPAU_object@@PAU1@0@Z ENDP	; wndTextGetCursorPosition
_TEXT	ENDS
; Function compile flags: /Ogtp
; File C:\DS Project\DS Files\Source\ClientSource\Client\eterPythonLib\PythonWindowManagerModule.cpp
;	COMDAT ?wndTextHideCursor@@YAPAU_object@@PAU1@0@Z
_TEXT	SEGMENT
_pWindow$ = -4						; size = 4
_poSelf$ = 8						; size = 4
_poArgs$ = 12						; size = 4
?wndTextHideCursor@@YAPAU_object@@PAU1@0@Z PROC		; wndTextHideCursor, COMDAT

; 1818 : {

  00000	55		 push	 ebp
  00001	8b ec		 mov	 ebp, esp
  00003	51		 push	 ecx

; 1819 : 	UI::CWindow * pWindow;
; 1820 : 	if (!PyTuple_GetWindow(poArgs, 0, &pWindow))

  00004	8d 45 fc	 lea	 eax, DWORD PTR _pWindow$[ebp]
  00007	50		 push	 eax
  00008	6a 00		 push	 0
  0000a	ff 75 0c	 push	 DWORD PTR _poArgs$[ebp]
  0000d	e8 00 00 00 00	 call	 ?PyTuple_GetWindow@@YA_NPAU_object@@HPAPAVCWindow@UI@@@Z ; PyTuple_GetWindow
  00012	83 c4 0c	 add	 esp, 12			; 0000000cH
  00015	84 c0		 test	 al, al
  00017	75 0e		 jne	 SHORT $LN2@wndTextHid

; 1821 : 		return Py_BuildException();

  00019	6a 00		 push	 0
  0001b	e8 00 00 00 00	 call	 ?Py_BuildException@@YAPAU_object@@PBDZZ ; Py_BuildException
  00020	83 c4 04	 add	 esp, 4

; 1825 : }

  00023	8b e5		 mov	 esp, ebp
  00025	5d		 pop	 ebp
  00026	c3		 ret	 0
$LN2@wndTextHid:

; 1822 : 
; 1823 : 	((UI::CTextLine*)pWindow)->HideCursor();

  00027	8b 4d fc	 mov	 ecx, DWORD PTR _pWindow$[ebp]
  0002a	e8 00 00 00 00	 call	 ?HideCursor@CTextLine@UI@@QAEXXZ ; UI::CTextLine::HideCursor

; 1824 : 	return Py_BuildNone();

  0002f	e8 00 00 00 00	 call	 ?Py_BuildNone@@YAPAU_object@@XZ ; Py_BuildNone

; 1825 : }

  00034	8b e5		 mov	 esp, ebp
  00036	5d		 pop	 ebp
  00037	c3		 ret	 0
?wndTextHideCursor@@YAPAU_object@@PAU1@0@Z ENDP		; wndTextHideCursor
_TEXT	ENDS
; Function compile flags: /Ogtp
; File C:\DS Project\DS Files\Source\ClientSource\Client\eterPythonLib\PythonWindowManagerModule.cpp
;	COMDAT ?wndTextShowCursor@@YAPAU_object@@PAU1@0@Z
_TEXT	SEGMENT
_pWindow$ = -4						; size = 4
_poSelf$ = 8						; size = 4
_poArgs$ = 12						; size = 4
?wndTextShowCursor@@YAPAU_object@@PAU1@0@Z PROC		; wndTextShowCursor, COMDAT

; 1809 : {

  00000	55		 push	 ebp
  00001	8b ec		 mov	 ebp, esp
  00003	51		 push	 ecx

; 1810 : 	UI::CWindow * pWindow;
; 1811 : 	if (!PyTuple_GetWindow(poArgs, 0, &pWindow))

  00004	8d 45 fc	 lea	 eax, DWORD PTR _pWindow$[ebp]
  00007	50		 push	 eax
  00008	6a 00		 push	 0
  0000a	ff 75 0c	 push	 DWORD PTR _poArgs$[ebp]
  0000d	e8 00 00 00 00	 call	 ?PyTuple_GetWindow@@YA_NPAU_object@@HPAPAVCWindow@UI@@@Z ; PyTuple_GetWindow
  00012	83 c4 0c	 add	 esp, 12			; 0000000cH
  00015	84 c0		 test	 al, al
  00017	75 0e		 jne	 SHORT $LN2@wndTextSho

; 1812 : 		return Py_BuildException();

  00019	6a 00		 push	 0
  0001b	e8 00 00 00 00	 call	 ?Py_BuildException@@YAPAU_object@@PBDZZ ; Py_BuildException
  00020	83 c4 04	 add	 esp, 4

; 1816 : }

  00023	8b e5		 mov	 esp, ebp
  00025	5d		 pop	 ebp
  00026	c3		 ret	 0
$LN2@wndTextSho:

; 1813 : 
; 1814 : 	((UI::CTextLine*)pWindow)->ShowCursor();

  00027	8b 4d fc	 mov	 ecx, DWORD PTR _pWindow$[ebp]
  0002a	e8 00 00 00 00	 call	 ?ShowCursor@CTextLine@UI@@QAEXXZ ; UI::CTextLine::ShowCursor

; 1815 : 	return Py_BuildNone();

  0002f	e8 00 00 00 00	 call	 ?Py_BuildNone@@YAPAU_object@@XZ ; Py_BuildNone

; 1816 : }

  00034	8b e5		 mov	 esp, ebp
  00036	5d		 pop	 ebp
  00037	c3		 ret	 0
?wndTextShowCursor@@YAPAU_object@@PAU1@0@Z ENDP		; wndTextShowCursor
_TEXT	ENDS
; Function compile flags: /Ogtp
; File C:\DS Project\DS Files\Source\ClientSource\Client\eterPythonLib\PythonWindowManagerModule.cpp
;	COMDAT ?wndTextGetTextSize@@YAPAU_object@@PAU1@0@Z
_TEXT	SEGMENT
_nWidth$ = -12						; size = 4
_nHeight$ = -8						; size = 4
_pWindow$ = -4						; size = 4
_poSelf$ = 8						; size = 4
_poArgs$ = 12						; size = 4
?wndTextGetTextSize@@YAPAU_object@@PAU1@0@Z PROC	; wndTextGetTextSize, COMDAT

; 1793 : {

  00000	55		 push	 ebp
  00001	8b ec		 mov	 ebp, esp
  00003	83 ec 0c	 sub	 esp, 12			; 0000000cH

; 1794 : 	UI::CWindow * pWindow;
; 1795 : 	if (!PyTuple_GetWindow(poArgs, 0, &pWindow))

  00006	8d 45 fc	 lea	 eax, DWORD PTR _pWindow$[ebp]
  00009	50		 push	 eax
  0000a	6a 00		 push	 0
  0000c	ff 75 0c	 push	 DWORD PTR _poArgs$[ebp]
  0000f	e8 00 00 00 00	 call	 ?PyTuple_GetWindow@@YA_NPAU_object@@HPAPAVCWindow@UI@@@Z ; PyTuple_GetWindow
  00014	83 c4 0c	 add	 esp, 12			; 0000000cH
  00017	84 c0		 test	 al, al
  00019	75 0e		 jne	 SHORT $LN2@wndTextGet

; 1796 : 		return Py_BuildException();

  0001b	6a 00		 push	 0
  0001d	e8 00 00 00 00	 call	 ?Py_BuildException@@YAPAU_object@@PBDZZ ; Py_BuildException
  00022	83 c4 04	 add	 esp, 4

; 1805 : }

  00025	8b e5		 mov	 esp, ebp
  00027	5d		 pop	 ebp
  00028	c3		 ret	 0
$LN2@wndTextGet:

; 1797 : 
; 1798 : 	int nWidth;
; 1799 : 	int nHeight;
; 1800 : 
; 1801 : 	UI::CTextLine* pkTextLine=(UI::CTextLine*)pWindow;
; 1802 : 	pkTextLine->GetTextSize(&nWidth, &nHeight);

  00029	8b 4d fc	 mov	 ecx, DWORD PTR _pWindow$[ebp]
  0002c	8d 45 f8	 lea	 eax, DWORD PTR _nHeight$[ebp]
  0002f	50		 push	 eax
  00030	8d 45 f4	 lea	 eax, DWORD PTR _nWidth$[ebp]
  00033	50		 push	 eax
  00034	e8 00 00 00 00	 call	 ?GetTextSize@CTextLine@UI@@QAEXPAH0@Z ; UI::CTextLine::GetTextSize

; 1803 : 
; 1804 : 	return Py_BuildValue("(ii)", nWidth, nHeight);

  00039	ff 75 f8	 push	 DWORD PTR _nHeight$[ebp]
  0003c	ff 75 f4	 push	 DWORD PTR _nWidth$[ebp]
  0003f	68 00 00 00 00	 push	 OFFSET ??_C@_04INACLLOK@?$CIii?$CJ@
  00044	ff 15 00 00 00
	00		 call	 DWORD PTR __imp__Py_BuildValue
  0004a	83 c4 0c	 add	 esp, 12			; 0000000cH

; 1805 : }

  0004d	8b e5		 mov	 esp, ebp
  0004f	5d		 pop	 ebp
  00050	c3		 ret	 0
?wndTextGetTextSize@@YAPAU_object@@PAU1@0@Z ENDP	; wndTextGetTextSize
_TEXT	ENDS
; Function compile flags: /Ogtp
; File C:\DS Project\DS Files\Source\ClientSource\Client\eterPythonLib\PythonWindowManagerModule.cpp
;	COMDAT ?wndTextGetText@@YAPAU_object@@PAU1@0@Z
_TEXT	SEGMENT
_pWindow$ = -4						; size = 4
_poSelf$ = 8						; size = 4
_poArgs$ = 12						; size = 4
?wndTextGetText@@YAPAU_object@@PAU1@0@Z PROC		; wndTextGetText, COMDAT

; 1784 : {

  00000	55		 push	 ebp
  00001	8b ec		 mov	 ebp, esp
  00003	51		 push	 ecx

; 1785 : 	UI::CWindow * pWindow;
; 1786 : 	if (!PyTuple_GetWindow(poArgs, 0, &pWindow))

  00004	8d 45 fc	 lea	 eax, DWORD PTR _pWindow$[ebp]
  00007	50		 push	 eax
  00008	6a 00		 push	 0
  0000a	ff 75 0c	 push	 DWORD PTR _poArgs$[ebp]
  0000d	e8 00 00 00 00	 call	 ?PyTuple_GetWindow@@YA_NPAU_object@@HPAPAVCWindow@UI@@@Z ; PyTuple_GetWindow
  00012	83 c4 0c	 add	 esp, 12			; 0000000cH
  00015	84 c0		 test	 al, al
  00017	75 0e		 jne	 SHORT $LN2@wndTextGet

; 1787 : 		return Py_BuildException();

  00019	6a 00		 push	 0
  0001b	e8 00 00 00 00	 call	 ?Py_BuildException@@YAPAU_object@@PBDZZ ; Py_BuildException
  00020	83 c4 04	 add	 esp, 4

; 1790 : }

  00023	8b e5		 mov	 esp, ebp
  00025	5d		 pop	 ebp
  00026	c3		 ret	 0
$LN2@wndTextGet:

; 1788 : 
; 1789 : 	return Py_BuildValue("s", ((UI::CTextLine*)pWindow)->GetText());

  00027	8b 4d fc	 mov	 ecx, DWORD PTR _pWindow$[ebp]
  0002a	e8 00 00 00 00	 call	 ?GetText@CTextLine@UI@@QAEPBDXZ ; UI::CTextLine::GetText
  0002f	50		 push	 eax
  00030	68 00 00 00 00	 push	 OFFSET ??_C@_01LKDEMHDF@s@
  00035	ff 15 00 00 00
	00		 call	 DWORD PTR __imp__Py_BuildValue
  0003b	83 c4 08	 add	 esp, 8

; 1790 : }

  0003e	8b e5		 mov	 esp, ebp
  00040	5d		 pop	 ebp
  00041	c3		 ret	 0
?wndTextGetText@@YAPAU_object@@PAU1@0@Z ENDP		; wndTextGetText
_TEXT	ENDS
; Function compile flags: /Ogtp
; File C:\DS Project\DS Files\Source\ClientSource\Client\eterPythonLib\PythonWindowManagerModule.cpp
;	COMDAT ?wndTextSetText@@YAPAU_object@@PAU1@0@Z
_TEXT	SEGMENT
_pWindow$ = -8						; size = 4
_szText$ = -4						; size = 4
_poSelf$ = 8						; size = 4
_poArgs$ = 12						; size = 4
?wndTextSetText@@YAPAU_object@@PAU1@0@Z PROC		; wndTextSetText, COMDAT

; 1772 : {

  00000	55		 push	 ebp
  00001	8b ec		 mov	 ebp, esp
  00003	83 ec 08	 sub	 esp, 8

; 1773 : 	UI::CWindow * pWindow;
; 1774 : 	if (!PyTuple_GetWindow(poArgs, 0, &pWindow))

  00006	8d 45 f8	 lea	 eax, DWORD PTR _pWindow$[ebp]
  00009	50		 push	 eax
  0000a	6a 00		 push	 0
  0000c	ff 75 0c	 push	 DWORD PTR _poArgs$[ebp]
  0000f	e8 00 00 00 00	 call	 ?PyTuple_GetWindow@@YA_NPAU_object@@HPAPAVCWindow@UI@@@Z ; PyTuple_GetWindow
  00014	83 c4 0c	 add	 esp, 12			; 0000000cH
  00017	84 c0		 test	 al, al
  00019	75 0e		 jne	 SHORT $LN2@wndTextSet
$LN5@wndTextSet:

; 1782 : }

  0001b	6a 00		 push	 0
  0001d	e8 00 00 00 00	 call	 ?Py_BuildException@@YAPAU_object@@PBDZZ ; Py_BuildException
  00022	83 c4 04	 add	 esp, 4
  00025	8b e5		 mov	 esp, ebp
  00027	5d		 pop	 ebp
  00028	c3		 ret	 0
$LN2@wndTextSet:

; 1775 : 		return Py_BuildException();
; 1776 : 	char * szText;
; 1777 : 	if (!PyTuple_GetString(poArgs, 1, &szText))

  00029	8d 45 fc	 lea	 eax, DWORD PTR _szText$[ebp]
  0002c	50		 push	 eax
  0002d	6a 01		 push	 1
  0002f	ff 75 0c	 push	 DWORD PTR _poArgs$[ebp]
  00032	e8 00 00 00 00	 call	 ?PyTuple_GetString@@YA_NPAU_object@@HPAPAD@Z ; PyTuple_GetString
  00037	83 c4 0c	 add	 esp, 12			; 0000000cH
  0003a	84 c0		 test	 al, al
  0003c	74 dd		 je	 SHORT $LN5@wndTextSet

; 1778 : 		return Py_BuildException();
; 1779 : 
; 1780 : 	((UI::CTextLine*)pWindow)->SetText(szText);

  0003e	ff 75 fc	 push	 DWORD PTR _szText$[ebp]
  00041	8b 4d f8	 mov	 ecx, DWORD PTR _pWindow$[ebp]
  00044	e8 00 00 00 00	 call	 ?SetText@CTextLine@UI@@QAEXPBD@Z ; UI::CTextLine::SetText

; 1781 : 	return Py_BuildNone();

  00049	e8 00 00 00 00	 call	 ?Py_BuildNone@@YAPAU_object@@XZ ; Py_BuildNone

; 1782 : }

  0004e	8b e5		 mov	 esp, ebp
  00050	5d		 pop	 ebp
  00051	c3		 ret	 0
?wndTextSetText@@YAPAU_object@@PAU1@0@Z ENDP		; wndTextSetText
_TEXT	ENDS
; Function compile flags: /Ogtp
; File C:\DS Project\DS Files\Source\ClientSource\Client\eterPythonLib\PythonWindowManagerModule.cpp
;	COMDAT ?wndTextSetLimitWidth@@YAPAU_object@@PAU1@0@Z
_TEXT	SEGMENT
_pWindow$ = -8						; size = 4
_fWidth$ = -4						; size = 4
_poSelf$ = 8						; size = 4
_poArgs$ = 12						; size = 4
?wndTextSetLimitWidth@@YAPAU_object@@PAU1@0@Z PROC	; wndTextSetLimitWidth, COMDAT

; 1760 : {

  00000	55		 push	 ebp
  00001	8b ec		 mov	 ebp, esp
  00003	83 ec 08	 sub	 esp, 8

; 1761 : 	UI::CWindow * pWindow;
; 1762 : 	if (!PyTuple_GetWindow(poArgs, 0, &pWindow))

  00006	8d 45 f8	 lea	 eax, DWORD PTR _pWindow$[ebp]
  00009	50		 push	 eax
  0000a	6a 00		 push	 0
  0000c	ff 75 0c	 push	 DWORD PTR _poArgs$[ebp]
  0000f	e8 00 00 00 00	 call	 ?PyTuple_GetWindow@@YA_NPAU_object@@HPAPAVCWindow@UI@@@Z ; PyTuple_GetWindow
  00014	83 c4 0c	 add	 esp, 12			; 0000000cH
  00017	84 c0		 test	 al, al
  00019	75 0e		 jne	 SHORT $LN2@wndTextSet
$LN5@wndTextSet:

; 1770 : }

  0001b	6a 00		 push	 0
  0001d	e8 00 00 00 00	 call	 ?Py_BuildException@@YAPAU_object@@PBDZZ ; Py_BuildException
  00022	83 c4 04	 add	 esp, 4
  00025	8b e5		 mov	 esp, ebp
  00027	5d		 pop	 ebp
  00028	c3		 ret	 0
$LN2@wndTextSet:

; 1763 : 		return Py_BuildException();
; 1764 : 	float fWidth;
; 1765 : 	if (!PyTuple_GetFloat(poArgs, 1, &fWidth))

  00029	8d 45 fc	 lea	 eax, DWORD PTR _fWidth$[ebp]
  0002c	50		 push	 eax
  0002d	6a 01		 push	 1
  0002f	ff 75 0c	 push	 DWORD PTR _poArgs$[ebp]
  00032	e8 00 00 00 00	 call	 ?PyTuple_GetFloat@@YA_NPAU_object@@HPAM@Z ; PyTuple_GetFloat
  00037	83 c4 0c	 add	 esp, 12			; 0000000cH
  0003a	84 c0		 test	 al, al
  0003c	74 dd		 je	 SHORT $LN5@wndTextSet

; 1766 : 		return Py_BuildException();
; 1767 : 
; 1768 : 	((UI::CTextLine*)pWindow)->SetLimitWidth(fWidth);

  0003e	f3 0f 10 45 fc	 movss	 xmm0, DWORD PTR _fWidth$[ebp]
  00043	51		 push	 ecx
  00044	8b 4d f8	 mov	 ecx, DWORD PTR _pWindow$[ebp]
  00047	f3 0f 11 04 24	 movss	 DWORD PTR [esp], xmm0
  0004c	e8 00 00 00 00	 call	 ?SetLimitWidth@CTextLine@UI@@QAEXM@Z ; UI::CTextLine::SetLimitWidth

; 1769 : 	return Py_BuildNone();

  00051	e8 00 00 00 00	 call	 ?Py_BuildNone@@YAPAU_object@@XZ ; Py_BuildNone

; 1770 : }

  00056	8b e5		 mov	 esp, ebp
  00058	5d		 pop	 ebp
  00059	c3		 ret	 0
?wndTextSetLimitWidth@@YAPAU_object@@PAU1@0@Z ENDP	; wndTextSetLimitWidth
_TEXT	ENDS
; Function compile flags: /Ogtp
; File C:\DS Project\DS Files\Source\ClientSource\Client\eterPythonLib\PythonWindowManagerModule.cpp
;	COMDAT ?wndTextSetFontColor@@YAPAU_object@@PAU1@0@Z
_TEXT	SEGMENT
_fr$1 = -20						; size = 4
_fg$2 = -16						; size = 4
_fb$3 = -12						; size = 4
_pWindow$ = -8						; size = 4
_argb$4 = -4						; size = 4
_iColor$5 = -4						; size = 4
_poSelf$ = 8						; size = 4
_poArgs$ = 12						; size = 4
?wndTextSetFontColor@@YAPAU_object@@PAU1@0@Z PROC	; wndTextSetFontColor, COMDAT

; 1718 : {

  00000	55		 push	 ebp
  00001	8b ec		 mov	 ebp, esp
  00003	83 ec 14	 sub	 esp, 20			; 00000014H

; 1719 : 	UI::CWindow * pWindow;
; 1720 : 	if (!PyTuple_GetWindow(poArgs, 0, &pWindow))

  00006	8d 45 f8	 lea	 eax, DWORD PTR _pWindow$[ebp]
  00009	56		 push	 esi
  0000a	8b 75 0c	 mov	 esi, DWORD PTR _poArgs$[ebp]
  0000d	50		 push	 eax
  0000e	6a 00		 push	 0
  00010	56		 push	 esi
  00011	e8 00 00 00 00	 call	 ?PyTuple_GetWindow@@YA_NPAU_object@@HPAPAVCWindow@UI@@@Z ; PyTuple_GetWindow
  00016	83 c4 0c	 add	 esp, 12			; 0000000cH
  00019	84 c0		 test	 al, al
  0001b	74 26		 je	 SHORT $LN6@wndTextSet

; 1721 : 		return Py_BuildException();
; 1722 : 
; 1723 : 	if (2 == PyTuple_Size(poArgs))

  0001d	56		 push	 esi
  0001e	ff 15 00 00 00
	00		 call	 DWORD PTR __imp__PyTuple_Size
  00024	83 c4 04	 add	 esp, 4
  00027	83 f8 02	 cmp	 eax, 2
  0002a	75 26		 jne	 SHORT $LN3@wndTextSet

; 1724 : 	{
; 1725 : 		int iColor;
; 1726 : 		if (!PyTuple_GetInteger(poArgs, 1, &iColor))

  0002c	8d 45 fc	 lea	 eax, DWORD PTR _iColor$5[ebp]
  0002f	50		 push	 eax
  00030	6a 01		 push	 1
  00032	56		 push	 esi
  00033	e8 00 00 00 00	 call	 ?PyTuple_GetInteger@@YA_NPAU_object@@HPAH@Z ; PyTuple_GetInteger
  00038	83 c4 0c	 add	 esp, 12			; 0000000cH
  0003b	84 c0		 test	 al, al
  0003d	0f 85 93 00 00
	00		 jne	 $LN12@wndTextSet
$LN6@wndTextSet:

; 1758 : }

  00043	6a 00		 push	 0
  00045	e8 00 00 00 00	 call	 ?Py_BuildException@@YAPAU_object@@PBDZZ ; Py_BuildException
  0004a	83 c4 04	 add	 esp, 4
  0004d	5e		 pop	 esi
  0004e	8b e5		 mov	 esp, ebp
  00050	5d		 pop	 ebp
  00051	c3		 ret	 0
$LN3@wndTextSet:

; 1727 : 			return Py_BuildException();
; 1728 : 		((UI::CTextLine*)pWindow)->SetFontColor(iColor);
; 1729 : 	}
; 1730 : 	else if (4 == PyTuple_Size(poArgs))

  00052	56		 push	 esi
  00053	ff 15 00 00 00
	00		 call	 DWORD PTR __imp__PyTuple_Size
  00059	83 c4 04	 add	 esp, 4
  0005c	83 f8 04	 cmp	 eax, 4
  0005f	75 e2		 jne	 SHORT $LN6@wndTextSet

; 1731 : 	{
; 1732 : 		float fr;
; 1733 : 		if (!PyTuple_GetFloat(poArgs, 1, &fr))

  00061	8d 45 ec	 lea	 eax, DWORD PTR _fr$1[ebp]
  00064	50		 push	 eax
  00065	6a 01		 push	 1
  00067	56		 push	 esi
  00068	e8 00 00 00 00	 call	 ?PyTuple_GetFloat@@YA_NPAU_object@@HPAM@Z ; PyTuple_GetFloat
  0006d	83 c4 0c	 add	 esp, 12			; 0000000cH
  00070	84 c0		 test	 al, al
  00072	74 cf		 je	 SHORT $LN6@wndTextSet

; 1734 : 			return Py_BuildException();
; 1735 : 		float fg;
; 1736 : 		if (!PyTuple_GetFloat(poArgs, 2, &fg))

  00074	8d 45 f0	 lea	 eax, DWORD PTR _fg$2[ebp]
  00077	50		 push	 eax
  00078	6a 02		 push	 2
  0007a	56		 push	 esi
  0007b	e8 00 00 00 00	 call	 ?PyTuple_GetFloat@@YA_NPAU_object@@HPAM@Z ; PyTuple_GetFloat
  00080	83 c4 0c	 add	 esp, 12			; 0000000cH
  00083	84 c0		 test	 al, al
  00085	74 bc		 je	 SHORT $LN6@wndTextSet

; 1737 : 			return Py_BuildException();
; 1738 : 		float fb;
; 1739 : 		if (!PyTuple_GetFloat(poArgs, 3, &fb))

  00087	8d 45 f4	 lea	 eax, DWORD PTR _fb$3[ebp]
  0008a	50		 push	 eax
  0008b	6a 03		 push	 3
  0008d	56		 push	 esi
  0008e	e8 00 00 00 00	 call	 ?PyTuple_GetFloat@@YA_NPAU_object@@HPAM@Z ; PyTuple_GetFloat
  00093	83 c4 0c	 add	 esp, 12			; 0000000cH
  00096	84 c0		 test	 al, al
  00098	74 a9		 je	 SHORT $LN6@wndTextSet

; 1740 : 			return Py_BuildException();
; 1741 : 		float fa = 1.0f;
; 1742 : 
; 1743 : 		BYTE argb[4] =
; 1744 : 		{
; 1745 : 			(BYTE) (255.0f * fb),

  0009a	f3 0f 10 0d 00
	00 00 00	 movss	 xmm1, DWORD PTR __real@437f0000
  000a2	f3 0f 10 45 f4	 movss	 xmm0, DWORD PTR _fb$3[ebp]
  000a7	f3 0f 59 c1	 mulss	 xmm0, xmm1

; 1746 : 			(BYTE) (255.0f * fg),
; 1747 : 			(BYTE) (255.0f * fr),
; 1748 : 			(BYTE) (255.0f * fa)

  000ab	c6 45 ff ff	 mov	 BYTE PTR _argb$4[ebp+3], 255 ; 000000ffH
  000af	f3 0f 2c c0	 cvttss2si eax, xmm0
  000b3	f3 0f 10 45 f0	 movss	 xmm0, DWORD PTR _fg$2[ebp]
  000b8	f3 0f 59 c1	 mulss	 xmm0, xmm1
  000bc	88 45 fc	 mov	 BYTE PTR _argb$4[ebp], al
  000bf	f3 0f 2c c0	 cvttss2si eax, xmm0
  000c3	f3 0f 10 45 ec	 movss	 xmm0, DWORD PTR _fr$1[ebp]
  000c8	f3 0f 59 c1	 mulss	 xmm0, xmm1
  000cc	88 45 fd	 mov	 BYTE PTR _argb$4[ebp+1], al
  000cf	f3 0f 2c c0	 cvttss2si eax, xmm0
  000d3	88 45 fe	 mov	 BYTE PTR _argb$4[ebp+2], al
$LN12@wndTextSet:

; 1749 : 		};
; 1750 : 		((UI::CTextLine*)pWindow)->SetFontColor(*((DWORD *) argb));
; 1751 : 	}
; 1752 : 	else
; 1753 : 	{
; 1754 : 		return Py_BuildException();
; 1755 : 	}
; 1756 : 
; 1757 : 	return Py_BuildNone();

  000d6	ff 75 fc	 push	 DWORD PTR _argb$4[ebp]
  000d9	8b 4d f8	 mov	 ecx, DWORD PTR _pWindow$[ebp]
  000dc	e8 00 00 00 00	 call	 ?SetFontColor@CTextLine@UI@@QAEXK@Z ; UI::CTextLine::SetFontColor
  000e1	e8 00 00 00 00	 call	 ?Py_BuildNone@@YAPAU_object@@XZ ; Py_BuildNone
  000e6	5e		 pop	 esi

; 1758 : }

  000e7	8b e5		 mov	 esp, ebp
  000e9	5d		 pop	 ebp
  000ea	c3		 ret	 0
?wndTextSetFontColor@@YAPAU_object@@PAU1@0@Z ENDP	; wndTextSetFontColor
_TEXT	ENDS
; Function compile flags: /Ogtp
; File C:\DS Project\DS Files\Source\ClientSource\Client\eterPythonLib\PythonWindowManagerModule.cpp
;	COMDAT ?wndTextSetFontName@@YAPAU_object@@PAU1@0@Z
_TEXT	SEGMENT
_pWindow$ = -8						; size = 4
_szFontName$ = -4					; size = 4
_poSelf$ = 8						; size = 4
_poArgs$ = 12						; size = 4
?wndTextSetFontName@@YAPAU_object@@PAU1@0@Z PROC	; wndTextSetFontName, COMDAT

; 1706 : {

  00000	55		 push	 ebp
  00001	8b ec		 mov	 ebp, esp
  00003	83 ec 08	 sub	 esp, 8

; 1707 : 	UI::CWindow * pWindow;
; 1708 : 	if (!PyTuple_GetWindow(poArgs, 0, &pWindow))

  00006	8d 45 f8	 lea	 eax, DWORD PTR _pWindow$[ebp]
  00009	50		 push	 eax
  0000a	6a 00		 push	 0
  0000c	ff 75 0c	 push	 DWORD PTR _poArgs$[ebp]
  0000f	e8 00 00 00 00	 call	 ?PyTuple_GetWindow@@YA_NPAU_object@@HPAPAVCWindow@UI@@@Z ; PyTuple_GetWindow
  00014	83 c4 0c	 add	 esp, 12			; 0000000cH
  00017	84 c0		 test	 al, al
  00019	75 0e		 jne	 SHORT $LN2@wndTextSet
$LN5@wndTextSet:

; 1716 : }

  0001b	6a 00		 push	 0
  0001d	e8 00 00 00 00	 call	 ?Py_BuildException@@YAPAU_object@@PBDZZ ; Py_BuildException
  00022	83 c4 04	 add	 esp, 4
  00025	8b e5		 mov	 esp, ebp
  00027	5d		 pop	 ebp
  00028	c3		 ret	 0
$LN2@wndTextSet:

; 1709 : 		return Py_BuildException();
; 1710 : 	char * szFontName;
; 1711 : 	if (!PyTuple_GetString(poArgs, 1, &szFontName))

  00029	8d 45 fc	 lea	 eax, DWORD PTR _szFontName$[ebp]
  0002c	50		 push	 eax
  0002d	6a 01		 push	 1
  0002f	ff 75 0c	 push	 DWORD PTR _poArgs$[ebp]
  00032	e8 00 00 00 00	 call	 ?PyTuple_GetString@@YA_NPAU_object@@HPAPAD@Z ; PyTuple_GetString
  00037	83 c4 0c	 add	 esp, 12			; 0000000cH
  0003a	84 c0		 test	 al, al
  0003c	74 dd		 je	 SHORT $LN5@wndTextSet

; 1712 : 		return Py_BuildException();
; 1713 : 
; 1714 : 	((UI::CTextLine*)pWindow)->SetFontName(szFontName);

  0003e	ff 75 fc	 push	 DWORD PTR _szFontName$[ebp]
  00041	8b 4d f8	 mov	 ecx, DWORD PTR _pWindow$[ebp]
  00044	e8 00 00 00 00	 call	 ?SetFontName@CTextLine@UI@@QAEXPBD@Z ; UI::CTextLine::SetFontName

; 1715 : 	return Py_BuildNone();

  00049	e8 00 00 00 00	 call	 ?Py_BuildNone@@YAPAU_object@@XZ ; Py_BuildNone

; 1716 : }

  0004e	8b e5		 mov	 esp, ebp
  00050	5d		 pop	 ebp
  00051	c3		 ret	 0
?wndTextSetFontName@@YAPAU_object@@PAU1@0@Z ENDP	; wndTextSetFontName
_TEXT	ENDS
; Function compile flags: /Ogtp
; File C:\DS Project\DS Files\Source\ClientSource\Client\eterPythonLib\PythonWindowManagerModule.cpp
;	COMDAT ?wndTextSetMultiLine@@YAPAU_object@@PAU1@0@Z
_TEXT	SEGMENT
_pWindow$ = -8						; size = 4
_iFlag$ = -4						; size = 4
_poSelf$ = 8						; size = 4
_poArgs$ = 12						; size = 4
?wndTextSetMultiLine@@YAPAU_object@@PAU1@0@Z PROC	; wndTextSetMultiLine, COMDAT

; 1694 : {

  00000	55		 push	 ebp
  00001	8b ec		 mov	 ebp, esp
  00003	83 ec 08	 sub	 esp, 8

; 1695 : 	UI::CWindow * pWindow;
; 1696 : 	if (!PyTuple_GetWindow(poArgs, 0, &pWindow))

  00006	8d 45 f8	 lea	 eax, DWORD PTR _pWindow$[ebp]
  00009	50		 push	 eax
  0000a	6a 00		 push	 0
  0000c	ff 75 0c	 push	 DWORD PTR _poArgs$[ebp]
  0000f	e8 00 00 00 00	 call	 ?PyTuple_GetWindow@@YA_NPAU_object@@HPAPAVCWindow@UI@@@Z ; PyTuple_GetWindow
  00014	83 c4 0c	 add	 esp, 12			; 0000000cH
  00017	84 c0		 test	 al, al
  00019	75 0e		 jne	 SHORT $LN2@wndTextSet
$LN5@wndTextSet:

; 1704 : }

  0001b	6a 00		 push	 0
  0001d	e8 00 00 00 00	 call	 ?Py_BuildException@@YAPAU_object@@PBDZZ ; Py_BuildException
  00022	83 c4 04	 add	 esp, 4
  00025	8b e5		 mov	 esp, ebp
  00027	5d		 pop	 ebp
  00028	c3		 ret	 0
$LN2@wndTextSet:

; 1697 : 		return Py_BuildException();
; 1698 : 	int iFlag;
; 1699 : 	if (!PyTuple_GetInteger(poArgs, 1, &iFlag))

  00029	8d 45 fc	 lea	 eax, DWORD PTR _iFlag$[ebp]
  0002c	50		 push	 eax
  0002d	6a 01		 push	 1
  0002f	ff 75 0c	 push	 DWORD PTR _poArgs$[ebp]
  00032	e8 00 00 00 00	 call	 ?PyTuple_GetInteger@@YA_NPAU_object@@HPAH@Z ; PyTuple_GetInteger
  00037	83 c4 0c	 add	 esp, 12			; 0000000cH
  0003a	84 c0		 test	 al, al
  0003c	74 dd		 je	 SHORT $LN5@wndTextSet

; 1700 : 		return Py_BuildException();
; 1701 : 
; 1702 : 	((UI::CTextLine*)pWindow)->SetMultiLine(iFlag);

  0003e	ff 75 fc	 push	 DWORD PTR _iFlag$[ebp]
  00041	8b 4d f8	 mov	 ecx, DWORD PTR _pWindow$[ebp]
  00044	e8 00 00 00 00	 call	 ?SetMultiLine@CTextLine@UI@@QAEXH@Z ; UI::CTextLine::SetMultiLine

; 1703 : 	return Py_BuildNone();

  00049	e8 00 00 00 00	 call	 ?Py_BuildNone@@YAPAU_object@@XZ ; Py_BuildNone

; 1704 : }

  0004e	8b e5		 mov	 esp, ebp
  00050	5d		 pop	 ebp
  00051	c3		 ret	 0
?wndTextSetMultiLine@@YAPAU_object@@PAU1@0@Z ENDP	; wndTextSetMultiLine
_TEXT	ENDS
; Function compile flags: /Ogtp
; File C:\DS Project\DS Files\Source\ClientSource\Client\eterPythonLib\PythonWindowManagerModule.cpp
;	COMDAT ?wndTextSetFeather@@YAPAU_object@@PAU1@0@Z
_TEXT	SEGMENT
_pWindow$ = -8						; size = 4
_iFlag$ = -4						; size = 4
_poSelf$ = 8						; size = 4
_poArgs$ = 12						; size = 4
?wndTextSetFeather@@YAPAU_object@@PAU1@0@Z PROC		; wndTextSetFeather, COMDAT

; 1682 : {

  00000	55		 push	 ebp
  00001	8b ec		 mov	 ebp, esp
  00003	83 ec 08	 sub	 esp, 8

; 1683 : 	UI::CWindow * pWindow;
; 1684 : 	if (!PyTuple_GetWindow(poArgs, 0, &pWindow))

  00006	8d 45 f8	 lea	 eax, DWORD PTR _pWindow$[ebp]
  00009	50		 push	 eax
  0000a	6a 00		 push	 0
  0000c	ff 75 0c	 push	 DWORD PTR _poArgs$[ebp]
  0000f	e8 00 00 00 00	 call	 ?PyTuple_GetWindow@@YA_NPAU_object@@HPAPAVCWindow@UI@@@Z ; PyTuple_GetWindow
  00014	83 c4 0c	 add	 esp, 12			; 0000000cH
  00017	84 c0		 test	 al, al
  00019	75 0e		 jne	 SHORT $LN2@wndTextSet
$LN5@wndTextSet:

; 1692 : }

  0001b	6a 00		 push	 0
  0001d	e8 00 00 00 00	 call	 ?Py_BuildException@@YAPAU_object@@PBDZZ ; Py_BuildException
  00022	83 c4 04	 add	 esp, 4
  00025	8b e5		 mov	 esp, ebp
  00027	5d		 pop	 ebp
  00028	c3		 ret	 0
$LN2@wndTextSet:

; 1685 : 		return Py_BuildException();
; 1686 : 	int iFlag;
; 1687 : 	if (!PyTuple_GetInteger(poArgs, 1, &iFlag))

  00029	8d 45 fc	 lea	 eax, DWORD PTR _iFlag$[ebp]
  0002c	50		 push	 eax
  0002d	6a 01		 push	 1
  0002f	ff 75 0c	 push	 DWORD PTR _poArgs$[ebp]
  00032	e8 00 00 00 00	 call	 ?PyTuple_GetInteger@@YA_NPAU_object@@HPAH@Z ; PyTuple_GetInteger
  00037	83 c4 0c	 add	 esp, 12			; 0000000cH
  0003a	84 c0		 test	 al, al
  0003c	74 dd		 je	 SHORT $LN5@wndTextSet

; 1688 : 		return Py_BuildException();
; 1689 : 
; 1690 : 	((UI::CTextLine*)pWindow)->SetFeather(iFlag);

  0003e	ff 75 fc	 push	 DWORD PTR _iFlag$[ebp]
  00041	8b 4d f8	 mov	 ecx, DWORD PTR _pWindow$[ebp]
  00044	e8 00 00 00 00	 call	 ?SetFeather@CTextLine@UI@@QAEXH@Z ; UI::CTextLine::SetFeather

; 1691 : 	return Py_BuildNone();

  00049	e8 00 00 00 00	 call	 ?Py_BuildNone@@YAPAU_object@@XZ ; Py_BuildNone

; 1692 : }

  0004e	8b e5		 mov	 esp, ebp
  00050	5d		 pop	 ebp
  00051	c3		 ret	 0
?wndTextSetFeather@@YAPAU_object@@PAU1@0@Z ENDP		; wndTextSetFeather
_TEXT	ENDS
; Function compile flags: /Ogtp
; File C:\DS Project\DS Files\Source\ClientSource\Client\eterPythonLib\PythonWindowManagerModule.cpp
;	COMDAT ?wndTextSetOutline@@YAPAU_object@@PAU1@0@Z
_TEXT	SEGMENT
_pWindow$ = -8						; size = 4
_iFlag$ = -4						; size = 4
_poSelf$ = 8						; size = 4
_poArgs$ = 12						; size = 4
?wndTextSetOutline@@YAPAU_object@@PAU1@0@Z PROC		; wndTextSetOutline, COMDAT

; 1670 : {

  00000	55		 push	 ebp
  00001	8b ec		 mov	 ebp, esp
  00003	83 ec 08	 sub	 esp, 8

; 1671 : 	UI::CWindow * pWindow;
; 1672 : 	if (!PyTuple_GetWindow(poArgs, 0, &pWindow))

  00006	8d 45 f8	 lea	 eax, DWORD PTR _pWindow$[ebp]
  00009	50		 push	 eax
  0000a	6a 00		 push	 0
  0000c	ff 75 0c	 push	 DWORD PTR _poArgs$[ebp]
  0000f	e8 00 00 00 00	 call	 ?PyTuple_GetWindow@@YA_NPAU_object@@HPAPAVCWindow@UI@@@Z ; PyTuple_GetWindow
  00014	83 c4 0c	 add	 esp, 12			; 0000000cH
  00017	84 c0		 test	 al, al
  00019	75 0e		 jne	 SHORT $LN2@wndTextSet
$LN5@wndTextSet:

; 1680 : }

  0001b	6a 00		 push	 0
  0001d	e8 00 00 00 00	 call	 ?Py_BuildException@@YAPAU_object@@PBDZZ ; Py_BuildException
  00022	83 c4 04	 add	 esp, 4
  00025	8b e5		 mov	 esp, ebp
  00027	5d		 pop	 ebp
  00028	c3		 ret	 0
$LN2@wndTextSet:

; 1673 : 		return Py_BuildException();
; 1674 : 	int iFlag;
; 1675 : 	if (!PyTuple_GetInteger(poArgs, 1, &iFlag))

  00029	8d 45 fc	 lea	 eax, DWORD PTR _iFlag$[ebp]
  0002c	50		 push	 eax
  0002d	6a 01		 push	 1
  0002f	ff 75 0c	 push	 DWORD PTR _poArgs$[ebp]
  00032	e8 00 00 00 00	 call	 ?PyTuple_GetInteger@@YA_NPAU_object@@HPAH@Z ; PyTuple_GetInteger
  00037	83 c4 0c	 add	 esp, 12			; 0000000cH
  0003a	84 c0		 test	 al, al
  0003c	74 dd		 je	 SHORT $LN5@wndTextSet

; 1676 : 		return Py_BuildException();
; 1677 : 
; 1678 : 	((UI::CTextLine*)pWindow)->SetOutline(iFlag);

  0003e	ff 75 fc	 push	 DWORD PTR _iFlag$[ebp]
  00041	8b 4d f8	 mov	 ecx, DWORD PTR _pWindow$[ebp]
  00044	e8 00 00 00 00	 call	 ?SetOutline@CTextLine@UI@@QAEXH@Z ; UI::CTextLine::SetOutline

; 1679 : 	return Py_BuildNone();

  00049	e8 00 00 00 00	 call	 ?Py_BuildNone@@YAPAU_object@@XZ ; Py_BuildNone

; 1680 : }

  0004e	8b e5		 mov	 esp, ebp
  00050	5d		 pop	 ebp
  00051	c3		 ret	 0
?wndTextSetOutline@@YAPAU_object@@PAU1@0@Z ENDP		; wndTextSetOutline
_TEXT	ENDS
; Function compile flags: /Ogtp
; File C:\DS Project\DS Files\Source\ClientSource\Client\eterPythonLib\PythonWindowManagerModule.cpp
;	COMDAT ?wndTextSetSecret@@YAPAU_object@@PAU1@0@Z
_TEXT	SEGMENT
_pWindow$ = -8						; size = 4
_iFlag$ = -4						; size = 4
_poSelf$ = 8						; size = 4
_poArgs$ = 12						; size = 4
?wndTextSetSecret@@YAPAU_object@@PAU1@0@Z PROC		; wndTextSetSecret, COMDAT

; 1658 : {

  00000	55		 push	 ebp
  00001	8b ec		 mov	 ebp, esp
  00003	83 ec 08	 sub	 esp, 8

; 1659 : 	UI::CWindow * pWindow;
; 1660 : 	if (!PyTuple_GetWindow(poArgs, 0, &pWindow))

  00006	8d 45 f8	 lea	 eax, DWORD PTR _pWindow$[ebp]
  00009	50		 push	 eax
  0000a	6a 00		 push	 0
  0000c	ff 75 0c	 push	 DWORD PTR _poArgs$[ebp]
  0000f	e8 00 00 00 00	 call	 ?PyTuple_GetWindow@@YA_NPAU_object@@HPAPAVCWindow@UI@@@Z ; PyTuple_GetWindow
  00014	83 c4 0c	 add	 esp, 12			; 0000000cH
  00017	84 c0		 test	 al, al
  00019	75 0e		 jne	 SHORT $LN2@wndTextSet
$LN5@wndTextSet:

; 1668 : }

  0001b	6a 00		 push	 0
  0001d	e8 00 00 00 00	 call	 ?Py_BuildException@@YAPAU_object@@PBDZZ ; Py_BuildException
  00022	83 c4 04	 add	 esp, 4
  00025	8b e5		 mov	 esp, ebp
  00027	5d		 pop	 ebp
  00028	c3		 ret	 0
$LN2@wndTextSet:

; 1661 : 		return Py_BuildException();
; 1662 : 	int iFlag;
; 1663 : 	if (!PyTuple_GetInteger(poArgs, 1, &iFlag))

  00029	8d 45 fc	 lea	 eax, DWORD PTR _iFlag$[ebp]
  0002c	50		 push	 eax
  0002d	6a 01		 push	 1
  0002f	ff 75 0c	 push	 DWORD PTR _poArgs$[ebp]
  00032	e8 00 00 00 00	 call	 ?PyTuple_GetInteger@@YA_NPAU_object@@HPAH@Z ; PyTuple_GetInteger
  00037	83 c4 0c	 add	 esp, 12			; 0000000cH
  0003a	84 c0		 test	 al, al
  0003c	74 dd		 je	 SHORT $LN5@wndTextSet

; 1664 : 		return Py_BuildException();
; 1665 : 
; 1666 : 	((UI::CTextLine*)pWindow)->SetSecret(iFlag);

  0003e	ff 75 fc	 push	 DWORD PTR _iFlag$[ebp]
  00041	8b 4d f8	 mov	 ecx, DWORD PTR _pWindow$[ebp]
  00044	e8 00 00 00 00	 call	 ?SetSecret@CTextLine@UI@@QAEXH@Z ; UI::CTextLine::SetSecret

; 1667 : 	return Py_BuildNone();

  00049	e8 00 00 00 00	 call	 ?Py_BuildNone@@YAPAU_object@@XZ ; Py_BuildNone

; 1668 : }

  0004e	8b e5		 mov	 esp, ebp
  00050	5d		 pop	 ebp
  00051	c3		 ret	 0
?wndTextSetSecret@@YAPAU_object@@PAU1@0@Z ENDP		; wndTextSetSecret
_TEXT	ENDS
; Function compile flags: /Ogtp
; File C:\DS Project\DS Files\Source\ClientSource\Client\eterPythonLib\PythonWindowManagerModule.cpp
;	COMDAT ?wndTextSetVerticalAlign@@YAPAU_object@@PAU1@0@Z
_TEXT	SEGMENT
_pWindow$ = -8						; size = 4
_iType$ = -4						; size = 4
_poSelf$ = 8						; size = 4
_poArgs$ = 12						; size = 4
?wndTextSetVerticalAlign@@YAPAU_object@@PAU1@0@Z PROC	; wndTextSetVerticalAlign, COMDAT

; 1646 : {

  00000	55		 push	 ebp
  00001	8b ec		 mov	 ebp, esp
  00003	83 ec 08	 sub	 esp, 8

; 1647 : 	UI::CWindow * pWindow;
; 1648 : 	if (!PyTuple_GetWindow(poArgs, 0, &pWindow))

  00006	8d 45 f8	 lea	 eax, DWORD PTR _pWindow$[ebp]
  00009	50		 push	 eax
  0000a	6a 00		 push	 0
  0000c	ff 75 0c	 push	 DWORD PTR _poArgs$[ebp]
  0000f	e8 00 00 00 00	 call	 ?PyTuple_GetWindow@@YA_NPAU_object@@HPAPAVCWindow@UI@@@Z ; PyTuple_GetWindow
  00014	83 c4 0c	 add	 esp, 12			; 0000000cH
  00017	84 c0		 test	 al, al
  00019	75 0e		 jne	 SHORT $LN2@wndTextSet
$LN5@wndTextSet:

; 1656 : }

  0001b	6a 00		 push	 0
  0001d	e8 00 00 00 00	 call	 ?Py_BuildException@@YAPAU_object@@PBDZZ ; Py_BuildException
  00022	83 c4 04	 add	 esp, 4
  00025	8b e5		 mov	 esp, ebp
  00027	5d		 pop	 ebp
  00028	c3		 ret	 0
$LN2@wndTextSet:

; 1649 : 		return Py_BuildException();
; 1650 : 	int iType;
; 1651 : 	if (!PyTuple_GetInteger(poArgs, 1, &iType))

  00029	8d 45 fc	 lea	 eax, DWORD PTR _iType$[ebp]
  0002c	50		 push	 eax
  0002d	6a 01		 push	 1
  0002f	ff 75 0c	 push	 DWORD PTR _poArgs$[ebp]
  00032	e8 00 00 00 00	 call	 ?PyTuple_GetInteger@@YA_NPAU_object@@HPAH@Z ; PyTuple_GetInteger
  00037	83 c4 0c	 add	 esp, 12			; 0000000cH
  0003a	84 c0		 test	 al, al
  0003c	74 dd		 je	 SHORT $LN5@wndTextSet

; 1652 : 		return Py_BuildException();
; 1653 : 
; 1654 : 	((UI::CTextLine*)pWindow)->SetVerticalAlign(iType);

  0003e	ff 75 fc	 push	 DWORD PTR _iType$[ebp]
  00041	8b 4d f8	 mov	 ecx, DWORD PTR _pWindow$[ebp]
  00044	e8 00 00 00 00	 call	 ?SetVerticalAlign@CTextLine@UI@@QAEXH@Z ; UI::CTextLine::SetVerticalAlign

; 1655 : 	return Py_BuildNone();

  00049	e8 00 00 00 00	 call	 ?Py_BuildNone@@YAPAU_object@@XZ ; Py_BuildNone

; 1656 : }

  0004e	8b e5		 mov	 esp, ebp
  00050	5d		 pop	 ebp
  00051	c3		 ret	 0
?wndTextSetVerticalAlign@@YAPAU_object@@PAU1@0@Z ENDP	; wndTextSetVerticalAlign
_TEXT	ENDS
; Function compile flags: /Ogtp
; File C:\DS Project\DS Files\Source\ClientSource\Client\eterPythonLib\PythonWindowManagerModule.cpp
;	COMDAT ?wndTextSetHorizontalAlign@@YAPAU_object@@PAU1@0@Z
_TEXT	SEGMENT
_pWindow$ = -8						; size = 4
_iType$ = -4						; size = 4
_poSelf$ = 8						; size = 4
_poArgs$ = 12						; size = 4
?wndTextSetHorizontalAlign@@YAPAU_object@@PAU1@0@Z PROC	; wndTextSetHorizontalAlign, COMDAT

; 1634 : {

  00000	55		 push	 ebp
  00001	8b ec		 mov	 ebp, esp
  00003	83 ec 08	 sub	 esp, 8

; 1635 : 	UI::CWindow * pWindow;
; 1636 : 	if (!PyTuple_GetWindow(poArgs, 0, &pWindow))

  00006	8d 45 f8	 lea	 eax, DWORD PTR _pWindow$[ebp]
  00009	50		 push	 eax
  0000a	6a 00		 push	 0
  0000c	ff 75 0c	 push	 DWORD PTR _poArgs$[ebp]
  0000f	e8 00 00 00 00	 call	 ?PyTuple_GetWindow@@YA_NPAU_object@@HPAPAVCWindow@UI@@@Z ; PyTuple_GetWindow
  00014	83 c4 0c	 add	 esp, 12			; 0000000cH
  00017	84 c0		 test	 al, al
  00019	75 0e		 jne	 SHORT $LN2@wndTextSet
$LN5@wndTextSet:

; 1644 : }

  0001b	6a 00		 push	 0
  0001d	e8 00 00 00 00	 call	 ?Py_BuildException@@YAPAU_object@@PBDZZ ; Py_BuildException
  00022	83 c4 04	 add	 esp, 4
  00025	8b e5		 mov	 esp, ebp
  00027	5d		 pop	 ebp
  00028	c3		 ret	 0
$LN2@wndTextSet:

; 1637 : 		return Py_BuildException();
; 1638 : 	int iType;
; 1639 : 	if (!PyTuple_GetInteger(poArgs, 1, &iType))

  00029	8d 45 fc	 lea	 eax, DWORD PTR _iType$[ebp]
  0002c	50		 push	 eax
  0002d	6a 01		 push	 1
  0002f	ff 75 0c	 push	 DWORD PTR _poArgs$[ebp]
  00032	e8 00 00 00 00	 call	 ?PyTuple_GetInteger@@YA_NPAU_object@@HPAH@Z ; PyTuple_GetInteger
  00037	83 c4 0c	 add	 esp, 12			; 0000000cH
  0003a	84 c0		 test	 al, al
  0003c	74 dd		 je	 SHORT $LN5@wndTextSet

; 1640 : 		return Py_BuildException();
; 1641 : 
; 1642 : 	((UI::CTextLine*)pWindow)->SetHorizontalAlign(iType);

  0003e	ff 75 fc	 push	 DWORD PTR _iType$[ebp]
  00041	8b 4d f8	 mov	 ecx, DWORD PTR _pWindow$[ebp]
  00044	e8 00 00 00 00	 call	 ?SetHorizontalAlign@CTextLine@UI@@QAEXH@Z ; UI::CTextLine::SetHorizontalAlign

; 1643 : 	return Py_BuildNone();

  00049	e8 00 00 00 00	 call	 ?Py_BuildNone@@YAPAU_object@@XZ ; Py_BuildNone

; 1644 : }

  0004e	8b e5		 mov	 esp, ebp
  00050	5d		 pop	 ebp
  00051	c3		 ret	 0
?wndTextSetHorizontalAlign@@YAPAU_object@@PAU1@0@Z ENDP	; wndTextSetHorizontalAlign
_TEXT	ENDS
; Function compile flags: /Ogtp
; File C:\DS Project\DS Files\Source\ClientSource\Client\eterPythonLib\PythonWindowManagerModule.cpp
;	COMDAT ?wndTextSetMax@@YAPAU_object@@PAU1@0@Z
_TEXT	SEGMENT
_pWindow$ = -8						; size = 4
_iMax$ = -4						; size = 4
_poSelf$ = 8						; size = 4
_poArgs$ = 12						; size = 4
?wndTextSetMax@@YAPAU_object@@PAU1@0@Z PROC		; wndTextSetMax, COMDAT

; 1622 : {

  00000	55		 push	 ebp
  00001	8b ec		 mov	 ebp, esp
  00003	83 ec 08	 sub	 esp, 8

; 1623 : 	UI::CWindow * pWindow;
; 1624 : 	if (!PyTuple_GetWindow(poArgs, 0, &pWindow))

  00006	8d 45 f8	 lea	 eax, DWORD PTR _pWindow$[ebp]
  00009	50		 push	 eax
  0000a	6a 00		 push	 0
  0000c	ff 75 0c	 push	 DWORD PTR _poArgs$[ebp]
  0000f	e8 00 00 00 00	 call	 ?PyTuple_GetWindow@@YA_NPAU_object@@HPAPAVCWindow@UI@@@Z ; PyTuple_GetWindow
  00014	83 c4 0c	 add	 esp, 12			; 0000000cH
  00017	84 c0		 test	 al, al
  00019	75 0e		 jne	 SHORT $LN2@wndTextSet
$LN5@wndTextSet:

; 1632 : }

  0001b	6a 00		 push	 0
  0001d	e8 00 00 00 00	 call	 ?Py_BuildException@@YAPAU_object@@PBDZZ ; Py_BuildException
  00022	83 c4 04	 add	 esp, 4
  00025	8b e5		 mov	 esp, ebp
  00027	5d		 pop	 ebp
  00028	c3		 ret	 0
$LN2@wndTextSet:

; 1625 : 		return Py_BuildException();
; 1626 : 	int iMax;
; 1627 : 	if (!PyTuple_GetInteger(poArgs, 1, &iMax))

  00029	8d 45 fc	 lea	 eax, DWORD PTR _iMax$[ebp]
  0002c	50		 push	 eax
  0002d	6a 01		 push	 1
  0002f	ff 75 0c	 push	 DWORD PTR _poArgs$[ebp]
  00032	e8 00 00 00 00	 call	 ?PyTuple_GetInteger@@YA_NPAU_object@@HPAH@Z ; PyTuple_GetInteger
  00037	83 c4 0c	 add	 esp, 12			; 0000000cH
  0003a	84 c0		 test	 al, al
  0003c	74 dd		 je	 SHORT $LN5@wndTextSet

; 1628 : 		return Py_BuildException();
; 1629 : 
; 1630 : 	((UI::CTextLine*)pWindow)->SetMax(iMax);

  0003e	ff 75 fc	 push	 DWORD PTR _iMax$[ebp]
  00041	8b 4d f8	 mov	 ecx, DWORD PTR _pWindow$[ebp]
  00044	e8 00 00 00 00	 call	 ?SetMax@CTextLine@UI@@QAEXH@Z ; UI::CTextLine::SetMax

; 1631 : 	return Py_BuildNone();

  00049	e8 00 00 00 00	 call	 ?Py_BuildNone@@YAPAU_object@@XZ ; Py_BuildNone

; 1632 : }

  0004e	8b e5		 mov	 esp, ebp
  00050	5d		 pop	 ebp
  00051	c3		 ret	 0
?wndTextSetMax@@YAPAU_object@@PAU1@0@Z ENDP		; wndTextSetMax
_TEXT	ENDS
; Function compile flags: /Ogtp
; File C:\DS Project\DS Files\Source\ClientSource\Client\eterPythonLib\PythonWindowManagerModule.cpp
;	COMDAT ?wndMgrSetAttachingFlag@@YAPAU_object@@PAU1@0@Z
_TEXT	SEGMENT
_bFlag$ = -4						; size = 4
_poSelf$ = 8						; size = 4
_poArgs$ = 12						; size = 4
?wndMgrSetAttachingFlag@@YAPAU_object@@PAU1@0@Z PROC	; wndMgrSetAttachingFlag, COMDAT

; 1611 : {

  00000	55		 push	 ebp
  00001	8b ec		 mov	 ebp, esp
  00003	51		 push	 ecx

; 1612 : 	BOOL bFlag;
; 1613 : 	if (!PyTuple_GetInteger(poArgs, 0, &bFlag))

  00004	8d 45 fc	 lea	 eax, DWORD PTR _bFlag$[ebp]
  00007	50		 push	 eax
  00008	6a 00		 push	 0
  0000a	ff 75 0c	 push	 DWORD PTR _poArgs$[ebp]
  0000d	e8 00 00 00 00	 call	 ?PyTuple_GetInteger@@YA_NPAU_object@@HPAH@Z ; PyTuple_GetInteger
  00012	83 c4 0c	 add	 esp, 12			; 0000000cH
  00015	84 c0		 test	 al, al
  00017	75 0e		 jne	 SHORT $LN2@wndMgrSetA

; 1614 : 		return Py_BuildException();

  00019	6a 00		 push	 0
  0001b	e8 00 00 00 00	 call	 ?Py_BuildException@@YAPAU_object@@PBDZZ ; Py_BuildException
  00020	83 c4 04	 add	 esp, 4

; 1618 : }

  00023	8b e5		 mov	 esp, ebp
  00025	5d		 pop	 ebp
  00026	c3		 ret	 0
$LN2@wndMgrSetA:

; 1615 : 
; 1616 : 	UI::CWindowManager::Instance().SetAttachingFlag(bFlag);

  00027	ff 75 fc	 push	 DWORD PTR _bFlag$[ebp]
  0002a	8b 0d 00 00 00
	00		 mov	 ecx, DWORD PTR ?ms_singleton@?$CSingleton@VCWindowManager@UI@@@@0PAVCWindowManager@UI@@A ; CSingleton<UI::CWindowManager>::ms_singleton
  00030	e8 00 00 00 00	 call	 ?SetAttachingFlag@CWindowManager@UI@@QAEXH@Z ; UI::CWindowManager::SetAttachingFlag

; 1617 : 	return Py_BuildNone();

  00035	e8 00 00 00 00	 call	 ?Py_BuildNone@@YAPAU_object@@XZ ; Py_BuildNone

; 1618 : }

  0003a	8b e5		 mov	 esp, ebp
  0003c	5d		 pop	 ebp
  0003d	c3		 ret	 0
?wndMgrSetAttachingFlag@@YAPAU_object@@PAU1@0@Z ENDP	; wndMgrSetAttachingFlag
_TEXT	ENDS
; Function compile flags: /Ogtp
; File C:\DS Project\DS Files\Source\ClientSource\Client\eterPythonLib\PythonWindowManagerModule.cpp
;	COMDAT ?wndMgrDeattachIcon@@YAPAU_object@@PAU1@0@Z
_TEXT	SEGMENT
_poSelf$ = 8						; size = 4
_poArgs$ = 12						; size = 4
?wndMgrDeattachIcon@@YAPAU_object@@PAU1@0@Z PROC	; wndMgrDeattachIcon, COMDAT

; 1606 : 	UI::CWindowManager::Instance().DeattachIcon();

  00000	8b 0d 00 00 00
	00		 mov	 ecx, DWORD PTR ?ms_singleton@?$CSingleton@VCWindowManager@UI@@@@0PAVCWindowManager@UI@@A ; CSingleton<UI::CWindowManager>::ms_singleton
  00006	e8 00 00 00 00	 call	 ?DeattachIcon@CWindowManager@UI@@QAEXXZ ; UI::CWindowManager::DeattachIcon

; 1607 : 	return Py_BuildNone();

  0000b	e9 00 00 00 00	 jmp	 ?Py_BuildNone@@YAPAU_object@@XZ ; Py_BuildNone
?wndMgrDeattachIcon@@YAPAU_object@@PAU1@0@Z ENDP	; wndMgrDeattachIcon
_TEXT	ENDS
; Function compile flags: /Ogtp
; File C:\DS Project\DS Files\Source\ClientSource\Client\eterPythonLib\PythonWindowManagerModule.cpp
;	COMDAT ?wndMgrAttachIcon@@YAPAU_object@@PAU1@0@Z
_TEXT	SEGMENT
_iType$ = -20						; size = 4
_iIndex$ = -16						; size = 4
_iSlotNumber$ = -12					; size = 4
_iWidth$ = -8						; size = 4
_iHeight$ = -4						; size = 4
_poSelf$ = 8						; size = 4
_poArgs$ = 12						; size = 4
?wndMgrAttachIcon@@YAPAU_object@@PAU1@0@Z PROC		; wndMgrAttachIcon, COMDAT

; 1583 : {

  00000	55		 push	 ebp
  00001	8b ec		 mov	 ebp, esp
  00003	83 ec 14	 sub	 esp, 20			; 00000014H

; 1584 : 	int iType;
; 1585 : 	if (!PyTuple_GetInteger(poArgs, 0, &iType))

  00006	8d 45 ec	 lea	 eax, DWORD PTR _iType$[ebp]
  00009	56		 push	 esi
  0000a	8b 75 0c	 mov	 esi, DWORD PTR _poArgs$[ebp]
  0000d	50		 push	 eax
  0000e	6a 00		 push	 0
  00010	56		 push	 esi
  00011	e8 00 00 00 00	 call	 ?PyTuple_GetInteger@@YA_NPAU_object@@HPAH@Z ; PyTuple_GetInteger
  00016	83 c4 0c	 add	 esp, 12			; 0000000cH
  00019	84 c0		 test	 al, al
  0001b	75 0f		 jne	 SHORT $LN2@wndMgrAtta
$LN8@wndMgrAtta:

; 1602 : }

  0001d	6a 00		 push	 0
  0001f	e8 00 00 00 00	 call	 ?Py_BuildException@@YAPAU_object@@PBDZZ ; Py_BuildException
  00024	83 c4 04	 add	 esp, 4
  00027	5e		 pop	 esi
  00028	8b e5		 mov	 esp, ebp
  0002a	5d		 pop	 ebp
  0002b	c3		 ret	 0
$LN2@wndMgrAtta:

; 1586 : 		return Py_BuildException();
; 1587 : 	int iIndex;
; 1588 : 	if (!PyTuple_GetInteger(poArgs, 1, &iIndex))

  0002c	8d 45 f0	 lea	 eax, DWORD PTR _iIndex$[ebp]
  0002f	50		 push	 eax
  00030	6a 01		 push	 1
  00032	56		 push	 esi
  00033	e8 00 00 00 00	 call	 ?PyTuple_GetInteger@@YA_NPAU_object@@HPAH@Z ; PyTuple_GetInteger
  00038	83 c4 0c	 add	 esp, 12			; 0000000cH
  0003b	84 c0		 test	 al, al
  0003d	74 de		 je	 SHORT $LN8@wndMgrAtta

; 1589 : 		return Py_BuildException();
; 1590 : 	int iSlotNumber;
; 1591 : 	if (!PyTuple_GetInteger(poArgs, 2, &iSlotNumber))

  0003f	8d 45 f4	 lea	 eax, DWORD PTR _iSlotNumber$[ebp]
  00042	50		 push	 eax
  00043	6a 02		 push	 2
  00045	56		 push	 esi
  00046	e8 00 00 00 00	 call	 ?PyTuple_GetInteger@@YA_NPAU_object@@HPAH@Z ; PyTuple_GetInteger
  0004b	83 c4 0c	 add	 esp, 12			; 0000000cH
  0004e	84 c0		 test	 al, al
  00050	74 cb		 je	 SHORT $LN8@wndMgrAtta

; 1592 : 		return Py_BuildException();
; 1593 : 	int iWidth;
; 1594 : 	if (!PyTuple_GetInteger(poArgs, 3, &iWidth))

  00052	8d 45 f8	 lea	 eax, DWORD PTR _iWidth$[ebp]
  00055	50		 push	 eax
  00056	6a 03		 push	 3
  00058	56		 push	 esi
  00059	e8 00 00 00 00	 call	 ?PyTuple_GetInteger@@YA_NPAU_object@@HPAH@Z ; PyTuple_GetInteger
  0005e	83 c4 0c	 add	 esp, 12			; 0000000cH
  00061	84 c0		 test	 al, al
  00063	74 b8		 je	 SHORT $LN8@wndMgrAtta

; 1595 : 		return Py_BuildException();
; 1596 : 	int iHeight;
; 1597 : 	if (!PyTuple_GetInteger(poArgs, 4, &iHeight))

  00065	8d 45 fc	 lea	 eax, DWORD PTR _iHeight$[ebp]
  00068	50		 push	 eax
  00069	6a 04		 push	 4
  0006b	56		 push	 esi
  0006c	e8 00 00 00 00	 call	 ?PyTuple_GetInteger@@YA_NPAU_object@@HPAH@Z ; PyTuple_GetInteger
  00071	83 c4 0c	 add	 esp, 12			; 0000000cH
  00074	84 c0		 test	 al, al
  00076	74 a5		 je	 SHORT $LN8@wndMgrAtta

; 1598 : 		return Py_BuildException();
; 1599 : 
; 1600 : 	UI::CWindowManager::Instance().AttachIcon(iType, iIndex, iSlotNumber, iWidth, iHeight);

  00078	ff 75 fc	 push	 DWORD PTR _iHeight$[ebp]
  0007b	8b 0d 00 00 00
	00		 mov	 ecx, DWORD PTR ?ms_singleton@?$CSingleton@VCWindowManager@UI@@@@0PAVCWindowManager@UI@@A ; CSingleton<UI::CWindowManager>::ms_singleton
  00081	ff 75 f8	 push	 DWORD PTR _iWidth$[ebp]
  00084	ff 75 f4	 push	 DWORD PTR _iSlotNumber$[ebp]
  00087	ff 75 f0	 push	 DWORD PTR _iIndex$[ebp]
  0008a	ff 75 ec	 push	 DWORD PTR _iType$[ebp]
  0008d	e8 00 00 00 00	 call	 ?AttachIcon@CWindowManager@UI@@QAEXKKKEE@Z ; UI::CWindowManager::AttachIcon

; 1601 : 	return Py_BuildNone();

  00092	e8 00 00 00 00	 call	 ?Py_BuildNone@@YAPAU_object@@XZ ; Py_BuildNone
  00097	5e		 pop	 esi

; 1602 : }

  00098	8b e5		 mov	 esp, ebp
  0009a	5d		 pop	 ebp
  0009b	c3		 ret	 0
?wndMgrAttachIcon@@YAPAU_object@@PAU1@0@Z ENDP		; wndMgrAttachIcon
_TEXT	ENDS
; Function compile flags: /Ogtp
; File C:\DS Project\DS Files\Source\ClientSource\Client\eterPythonLib\PythonWindowManagerModule.cpp
;	COMDAT ?wndBarSetColor@@YAPAU_object@@PAU1@0@Z
_TEXT	SEGMENT
_iRightColor$1 = -12					; size = 4
_iCenterColor$2 = -8					; size = 4
_pWindow$ = -8						; size = 4
_iColor$ = -4						; size = 4
_poSelf$ = 8						; size = 4
_poArgs$ = 12						; size = 4
?wndBarSetColor@@YAPAU_object@@PAU1@0@Z PROC		; wndBarSetColor, COMDAT

; 1554 : {

  00000	55		 push	 ebp
  00001	8b ec		 mov	 ebp, esp
  00003	83 ec 0c	 sub	 esp, 12			; 0000000cH

; 1555 : 	UI::CWindow * pWindow;
; 1556 : 	if (!PyTuple_GetWindow(poArgs, 0, &pWindow))

  00006	8d 45 f8	 lea	 eax, DWORD PTR _pWindow$[ebp]
  00009	56		 push	 esi
  0000a	8b 75 0c	 mov	 esi, DWORD PTR _poArgs$[ebp]
  0000d	50		 push	 eax
  0000e	6a 00		 push	 0
  00010	56		 push	 esi
  00011	e8 00 00 00 00	 call	 ?PyTuple_GetWindow@@YA_NPAU_object@@HPAPAVCWindow@UI@@@Z ; PyTuple_GetWindow
  00016	83 c4 0c	 add	 esp, 12			; 0000000cH
  00019	84 c0		 test	 al, al
  0001b	75 0f		 jne	 SHORT $LN2@wndBarSetC
$LN12@wndBarSetC:

; 1580 : }

  0001d	6a 00		 push	 0
  0001f	e8 00 00 00 00	 call	 ?Py_BuildException@@YAPAU_object@@PBDZZ ; Py_BuildException
  00024	83 c4 04	 add	 esp, 4
  00027	5e		 pop	 esi
  00028	8b e5		 mov	 esp, ebp
  0002a	5d		 pop	 ebp
  0002b	c3		 ret	 0
$LN2@wndBarSetC:

; 1557 : 		return Py_BuildException();
; 1558 : 	int iColor;
; 1559 : 	if (!PyTuple_GetInteger(poArgs, 1, &iColor))

  0002c	8d 45 fc	 lea	 eax, DWORD PTR _iColor$[ebp]
  0002f	50		 push	 eax
  00030	6a 01		 push	 1
  00032	56		 push	 esi
  00033	e8 00 00 00 00	 call	 ?PyTuple_GetInteger@@YA_NPAU_object@@HPAH@Z ; PyTuple_GetInteger
  00038	83 c4 0c	 add	 esp, 12			; 0000000cH
  0003b	84 c0		 test	 al, al
  0003d	74 de		 je	 SHORT $LN12@wndBarSetC

; 1560 : 		return Py_BuildException();
; 1561 : 
; 1562 : 	if (pWindow->IsType(UI::CBar3D::Type()))

  0003f	53		 push	 ebx
  00040	57		 push	 edi
  00041	e8 00 00 00 00	 call	 ?Type@CBar3D@UI@@SAKXZ	; UI::CBar3D::Type
  00046	8b 7d f8	 mov	 edi, DWORD PTR _pWindow$[ebp]
  00049	8b cf		 mov	 ecx, edi
  0004b	50		 push	 eax
  0004c	e8 00 00 00 00	 call	 ?IsType@CWindow@UI@@QAEHK@Z ; UI::CWindow::IsType
  00051	85 c0		 test	 eax, eax
  00053	74 54		 je	 SHORT $LN4@wndBarSetC

; 1563 : 	{
; 1564 : 		int iLeftColor = iColor;

  00055	8b 5d fc	 mov	 ebx, DWORD PTR _iColor$[ebp]

; 1565 : 
; 1566 : 		int iRightColor;
; 1567 : 		if (!PyTuple_GetInteger(poArgs, 2, &iRightColor))

  00058	8d 45 f4	 lea	 eax, DWORD PTR _iRightColor$1[ebp]
  0005b	50		 push	 eax
  0005c	6a 02		 push	 2
  0005e	56		 push	 esi
  0005f	e8 00 00 00 00	 call	 ?PyTuple_GetInteger@@YA_NPAU_object@@HPAH@Z ; PyTuple_GetInteger
  00064	83 c4 0c	 add	 esp, 12			; 0000000cH
  00067	84 c0		 test	 al, al
  00069	74 13		 je	 SHORT $LN11@wndBarSetC

; 1568 : 			return Py_BuildException();
; 1569 : 		int iCenterColor;
; 1570 : 		if (!PyTuple_GetInteger(poArgs, 3, &iCenterColor))

  0006b	8d 45 f8	 lea	 eax, DWORD PTR _iCenterColor$2[ebp]
  0006e	50		 push	 eax
  0006f	6a 03		 push	 3
  00071	56		 push	 esi
  00072	e8 00 00 00 00	 call	 ?PyTuple_GetInteger@@YA_NPAU_object@@HPAH@Z ; PyTuple_GetInteger
  00077	83 c4 0c	 add	 esp, 12			; 0000000cH
  0007a	84 c0		 test	 al, al
  0007c	75 11		 jne	 SHORT $LN7@wndBarSetC
$LN11@wndBarSetC:

; 1571 : 			return Py_BuildException();

  0007e	6a 00		 push	 0
  00080	e8 00 00 00 00	 call	 ?Py_BuildException@@YAPAU_object@@PBDZZ ; Py_BuildException
  00085	83 c4 04	 add	 esp, 4
  00088	5f		 pop	 edi
  00089	5b		 pop	 ebx
  0008a	5e		 pop	 esi

; 1580 : }

  0008b	8b e5		 mov	 esp, ebp
  0008d	5d		 pop	 ebp
  0008e	c3		 ret	 0
$LN7@wndBarSetC:

; 1572 : 
; 1573 : 		((UI::CBar3D *)pWindow)->SetColor(iLeftColor, iRightColor, iCenterColor);

  0008f	ff 75 f8	 push	 DWORD PTR _iCenterColor$2[ebp]
  00092	8b cf		 mov	 ecx, edi
  00094	ff 75 f4	 push	 DWORD PTR _iRightColor$1[ebp]
  00097	53		 push	 ebx
  00098	e8 00 00 00 00	 call	 ?SetColor@CBar3D@UI@@QAEXKKK@Z ; UI::CBar3D::SetColor

; 1578 : 	}
; 1579 : 	return Py_BuildNone();

  0009d	e8 00 00 00 00	 call	 ?Py_BuildNone@@YAPAU_object@@XZ ; Py_BuildNone
  000a2	5f		 pop	 edi
  000a3	5b		 pop	 ebx
  000a4	5e		 pop	 esi

; 1580 : }

  000a5	8b e5		 mov	 esp, ebp
  000a7	5d		 pop	 ebp
  000a8	c3		 ret	 0
$LN4@wndBarSetC:

; 1574 : 	}
; 1575 : 	else
; 1576 : 	{
; 1577 : 		((UI::CWindow *)pWindow)->SetColor(iColor);

  000a9	8b 07		 mov	 eax, DWORD PTR [edi]
  000ab	8b cf		 mov	 ecx, edi
  000ad	ff 75 fc	 push	 DWORD PTR _iColor$[ebp]
  000b0	ff 90 90 00 00
	00		 call	 DWORD PTR [eax+144]

; 1578 : 	}
; 1579 : 	return Py_BuildNone();

  000b6	e8 00 00 00 00	 call	 ?Py_BuildNone@@YAPAU_object@@XZ ; Py_BuildNone
  000bb	5f		 pop	 edi
  000bc	5b		 pop	 ebx
  000bd	5e		 pop	 esi

; 1580 : }

  000be	8b e5		 mov	 esp, ebp
  000c0	5d		 pop	 ebp
  000c1	c3		 ret	 0
?wndBarSetColor@@YAPAU_object@@PAU1@0@Z ENDP		; wndBarSetColor
_TEXT	ENDS
; Function compile flags: /Ogtp
; File C:\DS Project\DS Files\Source\ClientSource\Client\eterPythonLib\PythonWindowManagerModule.cpp
;	COMDAT ?wndMgrUnlockSlot@@YAPAU_object@@PAU1@0@Z
_TEXT	SEGMENT
_iSlotIndex$ = -8					; size = 4
_pWin$ = -4						; size = 4
_poSelf$ = 8						; size = 4
_poArgs$ = 12						; size = 4
?wndMgrUnlockSlot@@YAPAU_object@@PAU1@0@Z PROC		; wndMgrUnlockSlot, COMDAT

; 1537 : {

  00000	55		 push	 ebp
  00001	8b ec		 mov	 ebp, esp
  00003	83 ec 08	 sub	 esp, 8

; 1538 : 	UI::CWindow * pWin;
; 1539 : 	if (!PyTuple_GetWindow(poArgs, 0, &pWin))

  00006	8d 45 fc	 lea	 eax, DWORD PTR _pWin$[ebp]
  00009	56		 push	 esi
  0000a	8b 75 0c	 mov	 esi, DWORD PTR _poArgs$[ebp]
  0000d	50		 push	 eax
  0000e	6a 00		 push	 0
  00010	56		 push	 esi
  00011	e8 00 00 00 00	 call	 ?PyTuple_GetWindow@@YA_NPAU_object@@HPAPAVCWindow@UI@@@Z ; PyTuple_GetWindow
  00016	83 c4 0c	 add	 esp, 12			; 0000000cH
  00019	84 c0		 test	 al, al
  0001b	75 0f		 jne	 SHORT $LN2@wndMgrUnlo
$LN6@wndMgrUnlo:

; 1551 : }

  0001d	6a 00		 push	 0
  0001f	e8 00 00 00 00	 call	 ?Py_BuildException@@YAPAU_object@@PBDZZ ; Py_BuildException
  00024	83 c4 04	 add	 esp, 4
  00027	5e		 pop	 esi
  00028	8b e5		 mov	 esp, ebp
  0002a	5d		 pop	 ebp
  0002b	c3		 ret	 0
$LN2@wndMgrUnlo:

; 1540 : 		return Py_BuildException();
; 1541 : 	int iSlotIndex;
; 1542 : 	if (!PyTuple_GetInteger(poArgs, 1, &iSlotIndex))

  0002c	8d 45 f8	 lea	 eax, DWORD PTR _iSlotIndex$[ebp]
  0002f	50		 push	 eax
  00030	6a 01		 push	 1
  00032	56		 push	 esi
  00033	e8 00 00 00 00	 call	 ?PyTuple_GetInteger@@YA_NPAU_object@@HPAH@Z ; PyTuple_GetInteger
  00038	83 c4 0c	 add	 esp, 12			; 0000000cH
  0003b	84 c0		 test	 al, al
  0003d	74 de		 je	 SHORT $LN6@wndMgrUnlo

; 1543 : 		return Py_BuildException();
; 1544 : 
; 1545 : 	if (!pWin->IsType(UI::CSlotWindow::Type()))

  0003f	e8 00 00 00 00	 call	 ?Type@CSlotWindow@UI@@SAKXZ ; UI::CSlotWindow::Type
  00044	8b 75 fc	 mov	 esi, DWORD PTR _pWin$[ebp]
  00047	8b ce		 mov	 ecx, esi
  00049	50		 push	 eax
  0004a	e8 00 00 00 00	 call	 ?IsType@CWindow@UI@@QAEHK@Z ; UI::CWindow::IsType
  0004f	85 c0		 test	 eax, eax
  00051	74 ca		 je	 SHORT $LN6@wndMgrUnlo

; 1546 : 		return Py_BuildException();
; 1547 : 
; 1548 : 	UI::CSlotWindow * pSlotWin = (UI::CSlotWindow *)pWin;
; 1549 : 	pSlotWin->UnlockSlot(iSlotIndex);

  00053	ff 75 f8	 push	 DWORD PTR _iSlotIndex$[ebp]
  00056	8b ce		 mov	 ecx, esi
  00058	e8 00 00 00 00	 call	 ?UnlockSlot@CSlotWindow@UI@@QAEXK@Z ; UI::CSlotWindow::UnlockSlot

; 1550 : 	return Py_BuildNone();

  0005d	e8 00 00 00 00	 call	 ?Py_BuildNone@@YAPAU_object@@XZ ; Py_BuildNone
  00062	5e		 pop	 esi

; 1551 : }

  00063	8b e5		 mov	 esp, ebp
  00065	5d		 pop	 ebp
  00066	c3		 ret	 0
?wndMgrUnlockSlot@@YAPAU_object@@PAU1@0@Z ENDP		; wndMgrUnlockSlot
_TEXT	ENDS
; Function compile flags: /Ogtp
; File C:\DS Project\DS Files\Source\ClientSource\Client\eterPythonLib\PythonWindowManagerModule.cpp
;	COMDAT ?wndMgrLockSlot@@YAPAU_object@@PAU1@0@Z
_TEXT	SEGMENT
_iSlotIndex$ = -8					; size = 4
_pWin$ = -4						; size = 4
_poSelf$ = 8						; size = 4
_poArgs$ = 12						; size = 4
?wndMgrLockSlot@@YAPAU_object@@PAU1@0@Z PROC		; wndMgrLockSlot, COMDAT

; 1520 : {

  00000	55		 push	 ebp
  00001	8b ec		 mov	 ebp, esp
  00003	83 ec 08	 sub	 esp, 8

; 1521 : 	UI::CWindow * pWin;
; 1522 : 	if (!PyTuple_GetWindow(poArgs, 0, &pWin))

  00006	8d 45 fc	 lea	 eax, DWORD PTR _pWin$[ebp]
  00009	56		 push	 esi
  0000a	8b 75 0c	 mov	 esi, DWORD PTR _poArgs$[ebp]
  0000d	50		 push	 eax
  0000e	6a 00		 push	 0
  00010	56		 push	 esi
  00011	e8 00 00 00 00	 call	 ?PyTuple_GetWindow@@YA_NPAU_object@@HPAPAVCWindow@UI@@@Z ; PyTuple_GetWindow
  00016	83 c4 0c	 add	 esp, 12			; 0000000cH
  00019	84 c0		 test	 al, al
  0001b	75 0f		 jne	 SHORT $LN2@wndMgrLock
$LN6@wndMgrLock:

; 1534 : }

  0001d	6a 00		 push	 0
  0001f	e8 00 00 00 00	 call	 ?Py_BuildException@@YAPAU_object@@PBDZZ ; Py_BuildException
  00024	83 c4 04	 add	 esp, 4
  00027	5e		 pop	 esi
  00028	8b e5		 mov	 esp, ebp
  0002a	5d		 pop	 ebp
  0002b	c3		 ret	 0
$LN2@wndMgrLock:

; 1523 : 		return Py_BuildException();
; 1524 : 	int iSlotIndex;
; 1525 : 	if (!PyTuple_GetInteger(poArgs, 1, &iSlotIndex))

  0002c	8d 45 f8	 lea	 eax, DWORD PTR _iSlotIndex$[ebp]
  0002f	50		 push	 eax
  00030	6a 01		 push	 1
  00032	56		 push	 esi
  00033	e8 00 00 00 00	 call	 ?PyTuple_GetInteger@@YA_NPAU_object@@HPAH@Z ; PyTuple_GetInteger
  00038	83 c4 0c	 add	 esp, 12			; 0000000cH
  0003b	84 c0		 test	 al, al
  0003d	74 de		 je	 SHORT $LN6@wndMgrLock

; 1526 : 		return Py_BuildException();
; 1527 : 
; 1528 : 	if (!pWin->IsType(UI::CSlotWindow::Type()))

  0003f	e8 00 00 00 00	 call	 ?Type@CSlotWindow@UI@@SAKXZ ; UI::CSlotWindow::Type
  00044	8b 75 fc	 mov	 esi, DWORD PTR _pWin$[ebp]
  00047	8b ce		 mov	 ecx, esi
  00049	50		 push	 eax
  0004a	e8 00 00 00 00	 call	 ?IsType@CWindow@UI@@QAEHK@Z ; UI::CWindow::IsType
  0004f	85 c0		 test	 eax, eax
  00051	74 ca		 je	 SHORT $LN6@wndMgrLock

; 1529 : 		return Py_BuildException();
; 1530 : 
; 1531 : 	UI::CSlotWindow * pSlotWin = (UI::CSlotWindow *)pWin;
; 1532 : 	pSlotWin->LockSlot(iSlotIndex);

  00053	ff 75 f8	 push	 DWORD PTR _iSlotIndex$[ebp]
  00056	8b ce		 mov	 ecx, esi
  00058	e8 00 00 00 00	 call	 ?LockSlot@CSlotWindow@UI@@QAEXK@Z ; UI::CSlotWindow::LockSlot

; 1533 : 	return Py_BuildNone();

  0005d	e8 00 00 00 00	 call	 ?Py_BuildNone@@YAPAU_object@@XZ ; Py_BuildNone
  00062	5e		 pop	 esi

; 1534 : }

  00063	8b e5		 mov	 esp, ebp
  00065	5d		 pop	 ebp
  00066	c3		 ret	 0
?wndMgrLockSlot@@YAPAU_object@@PAU1@0@Z ENDP		; wndMgrLockSlot
_TEXT	ENDS
; Function compile flags: /Ogtp
; File C:\DS Project\DS Files\Source\ClientSource\Client\eterPythonLib\PythonWindowManagerModule.cpp
;	COMDAT ?wndMgrGetSlotCount@@YAPAU_object@@PAU1@0@Z
_TEXT	SEGMENT
_pWin$ = -4						; size = 4
_poSelf$ = 8						; size = 4
_poArgs$ = 12						; size = 4
?wndMgrGetSlotCount@@YAPAU_object@@PAU1@0@Z PROC	; wndMgrGetSlotCount, COMDAT

; 1507 : {

  00000	55		 push	 ebp
  00001	8b ec		 mov	 ebp, esp
  00003	51		 push	 ecx

; 1508 : 	UI::CWindow * pWin;
; 1509 : 	if (!PyTuple_GetWindow(poArgs, 0, &pWin))

  00004	8d 45 fc	 lea	 eax, DWORD PTR _pWin$[ebp]
  00007	50		 push	 eax
  00008	6a 00		 push	 0
  0000a	ff 75 0c	 push	 DWORD PTR _poArgs$[ebp]
  0000d	e8 00 00 00 00	 call	 ?PyTuple_GetWindow@@YA_NPAU_object@@HPAPAVCWindow@UI@@@Z ; PyTuple_GetWindow
  00012	83 c4 0c	 add	 esp, 12			; 0000000cH
  00015	84 c0		 test	 al, al
  00017	75 0e		 jne	 SHORT $LN2@wndMgrGetS
$LN5@wndMgrGetS:

; 1517 : }

  00019	6a 00		 push	 0
  0001b	e8 00 00 00 00	 call	 ?Py_BuildException@@YAPAU_object@@PBDZZ ; Py_BuildException
  00020	83 c4 04	 add	 esp, 4
  00023	8b e5		 mov	 esp, ebp
  00025	5d		 pop	 ebp
  00026	c3		 ret	 0
$LN2@wndMgrGetS:

; 1510 : 		return Py_BuildException();
; 1511 : 
; 1512 : 	if (!pWin->IsType(UI::CSlotWindow::Type()))

  00027	e8 00 00 00 00	 call	 ?Type@CSlotWindow@UI@@SAKXZ ; UI::CSlotWindow::Type
  0002c	8b 4d fc	 mov	 ecx, DWORD PTR _pWin$[ebp]
  0002f	50		 push	 eax
  00030	e8 00 00 00 00	 call	 ?IsType@CWindow@UI@@QAEHK@Z ; UI::CWindow::IsType
  00035	85 c0		 test	 eax, eax
  00037	74 e0		 je	 SHORT $LN5@wndMgrGetS

; 1513 : 		return Py_BuildException();
; 1514 : 
; 1515 : 	UI::CSlotWindow * pSlotWin = (UI::CSlotWindow *)pWin;
; 1516 : 	return Py_BuildValue("i", pSlotWin->GetSlotCount());

  00039	8b 4d fc	 mov	 ecx, DWORD PTR _pWin$[ebp]
  0003c	e8 00 00 00 00	 call	 ?GetSlotCount@CSlotWindow@UI@@QAEKXZ ; UI::CSlotWindow::GetSlotCount
  00041	50		 push	 eax
  00042	68 00 00 00 00	 push	 OFFSET ??_C@_01KBJDNOO@i@
  00047	ff 15 00 00 00
	00		 call	 DWORD PTR __imp__Py_BuildValue
  0004d	83 c4 08	 add	 esp, 8

; 1517 : }

  00050	8b e5		 mov	 esp, ebp
  00052	5d		 pop	 ebp
  00053	c3		 ret	 0
?wndMgrGetSlotCount@@YAPAU_object@@PAU1@0@Z ENDP	; wndMgrGetSlotCount
_TEXT	ENDS
; Function compile flags: /Ogtp
; File C:\DS Project\DS Files\Source\ClientSource\Client\eterPythonLib\PythonWindowManagerModule.cpp
;	COMDAT ?wndMgrIsSelectedSlot@@YAPAU_object@@PAU1@0@Z
_TEXT	SEGMENT
_iSlotNumber$ = -8					; size = 4
_pWin$ = -4						; size = 4
_poSelf$ = 8						; size = 4
_poArgs$ = 12						; size = 4
?wndMgrIsSelectedSlot@@YAPAU_object@@PAU1@0@Z PROC	; wndMgrIsSelectedSlot, COMDAT

; 1491 : {

  00000	55		 push	 ebp
  00001	8b ec		 mov	 ebp, esp
  00003	83 ec 08	 sub	 esp, 8

; 1492 : 	UI::CWindow * pWin;
; 1493 : 	if (!PyTuple_GetWindow(poArgs, 0, &pWin))

  00006	8d 45 fc	 lea	 eax, DWORD PTR _pWin$[ebp]
  00009	56		 push	 esi
  0000a	8b 75 0c	 mov	 esi, DWORD PTR _poArgs$[ebp]
  0000d	50		 push	 eax
  0000e	6a 00		 push	 0
  00010	56		 push	 esi
  00011	e8 00 00 00 00	 call	 ?PyTuple_GetWindow@@YA_NPAU_object@@HPAPAVCWindow@UI@@@Z ; PyTuple_GetWindow
  00016	83 c4 0c	 add	 esp, 12			; 0000000cH
  00019	84 c0		 test	 al, al
  0001b	75 0f		 jne	 SHORT $LN2@wndMgrIsSe
$LN6@wndMgrIsSe:

; 1504 : }

  0001d	6a 00		 push	 0
  0001f	e8 00 00 00 00	 call	 ?Py_BuildException@@YAPAU_object@@PBDZZ ; Py_BuildException
  00024	83 c4 04	 add	 esp, 4
  00027	5e		 pop	 esi
  00028	8b e5		 mov	 esp, ebp
  0002a	5d		 pop	 ebp
  0002b	c3		 ret	 0
$LN2@wndMgrIsSe:

; 1494 : 		return Py_BuildException();
; 1495 : 	int iSlotNumber;
; 1496 : 	if (!PyTuple_GetInteger(poArgs, 1, &iSlotNumber))

  0002c	8d 45 f8	 lea	 eax, DWORD PTR _iSlotNumber$[ebp]
  0002f	50		 push	 eax
  00030	6a 01		 push	 1
  00032	56		 push	 esi
  00033	e8 00 00 00 00	 call	 ?PyTuple_GetInteger@@YA_NPAU_object@@HPAH@Z ; PyTuple_GetInteger
  00038	83 c4 0c	 add	 esp, 12			; 0000000cH
  0003b	84 c0		 test	 al, al
  0003d	74 de		 je	 SHORT $LN6@wndMgrIsSe

; 1497 : 		return Py_BuildException();
; 1498 : 
; 1499 : 	if (!pWin->IsType(UI::CSlotWindow::Type()))

  0003f	e8 00 00 00 00	 call	 ?Type@CSlotWindow@UI@@SAKXZ ; UI::CSlotWindow::Type
  00044	8b 75 fc	 mov	 esi, DWORD PTR _pWin$[ebp]
  00047	8b ce		 mov	 ecx, esi
  00049	50		 push	 eax
  0004a	e8 00 00 00 00	 call	 ?IsType@CWindow@UI@@QAEHK@Z ; UI::CWindow::IsType
  0004f	85 c0		 test	 eax, eax
  00051	74 ca		 je	 SHORT $LN6@wndMgrIsSe

; 1500 : 		return Py_BuildException();
; 1501 : 
; 1502 : 	UI::CSlotWindow * pSlotWin = (UI::CSlotWindow *)pWin;
; 1503 : 	return Py_BuildValue("i", pSlotWin->isSelectedSlot(iSlotNumber));

  00053	ff 75 f8	 push	 DWORD PTR _iSlotNumber$[ebp]
  00056	8b ce		 mov	 ecx, esi
  00058	e8 00 00 00 00	 call	 ?isSelectedSlot@CSlotWindow@UI@@QAEHK@Z ; UI::CSlotWindow::isSelectedSlot
  0005d	50		 push	 eax
  0005e	68 00 00 00 00	 push	 OFFSET ??_C@_01KBJDNOO@i@
  00063	ff 15 00 00 00
	00		 call	 DWORD PTR __imp__Py_BuildValue
  00069	83 c4 08	 add	 esp, 8
  0006c	5e		 pop	 esi

; 1504 : }

  0006d	8b e5		 mov	 esp, ebp
  0006f	5d		 pop	 ebp
  00070	c3		 ret	 0
?wndMgrIsSelectedSlot@@YAPAU_object@@PAU1@0@Z ENDP	; wndMgrIsSelectedSlot
_TEXT	ENDS
; Function compile flags: /Ogtp
; File C:\DS Project\DS Files\Source\ClientSource\Client\eterPythonLib\PythonWindowManagerModule.cpp
;	COMDAT ?wndMgrGetSelectedSlotNumber@@YAPAU_object@@PAU1@0@Z
_TEXT	SEGMENT
_iSlotNumber$ = -8					; size = 4
_pWin$ = -4						; size = 4
_poSelf$ = 8						; size = 4
_poArgs$ = 12						; size = 4
?wndMgrGetSelectedSlotNumber@@YAPAU_object@@PAU1@0@Z PROC ; wndMgrGetSelectedSlotNumber, COMDAT

; 1475 : {

  00000	55		 push	 ebp
  00001	8b ec		 mov	 ebp, esp
  00003	83 ec 08	 sub	 esp, 8

; 1476 : 	UI::CWindow * pWin;
; 1477 : 	if (!PyTuple_GetWindow(poArgs, 0, &pWin))

  00006	8d 45 fc	 lea	 eax, DWORD PTR _pWin$[ebp]
  00009	56		 push	 esi
  0000a	8b 75 0c	 mov	 esi, DWORD PTR _poArgs$[ebp]
  0000d	50		 push	 eax
  0000e	6a 00		 push	 0
  00010	56		 push	 esi
  00011	e8 00 00 00 00	 call	 ?PyTuple_GetWindow@@YA_NPAU_object@@HPAPAVCWindow@UI@@@Z ; PyTuple_GetWindow
  00016	83 c4 0c	 add	 esp, 12			; 0000000cH
  00019	84 c0		 test	 al, al
  0001b	75 0f		 jne	 SHORT $LN2@wndMgrGetS
$LN6@wndMgrGetS:

; 1488 : }

  0001d	6a 00		 push	 0
  0001f	e8 00 00 00 00	 call	 ?Py_BuildException@@YAPAU_object@@PBDZZ ; Py_BuildException
  00024	83 c4 04	 add	 esp, 4
  00027	5e		 pop	 esi
  00028	8b e5		 mov	 esp, ebp
  0002a	5d		 pop	 ebp
  0002b	c3		 ret	 0
$LN2@wndMgrGetS:

; 1478 : 		return Py_BuildException();
; 1479 : 	int iSlotNumber;
; 1480 : 	if (!PyTuple_GetInteger(poArgs, 1, &iSlotNumber))

  0002c	8d 45 f8	 lea	 eax, DWORD PTR _iSlotNumber$[ebp]
  0002f	50		 push	 eax
  00030	6a 01		 push	 1
  00032	56		 push	 esi
  00033	e8 00 00 00 00	 call	 ?PyTuple_GetInteger@@YA_NPAU_object@@HPAH@Z ; PyTuple_GetInteger
  00038	83 c4 0c	 add	 esp, 12			; 0000000cH
  0003b	84 c0		 test	 al, al
  0003d	74 de		 je	 SHORT $LN6@wndMgrGetS

; 1481 : 		return Py_BuildException();
; 1482 : 
; 1483 : 	if (!pWin->IsType(UI::CSlotWindow::Type()))

  0003f	e8 00 00 00 00	 call	 ?Type@CSlotWindow@UI@@SAKXZ ; UI::CSlotWindow::Type
  00044	8b 75 fc	 mov	 esi, DWORD PTR _pWin$[ebp]
  00047	8b ce		 mov	 ecx, esi
  00049	50		 push	 eax
  0004a	e8 00 00 00 00	 call	 ?IsType@CWindow@UI@@QAEHK@Z ; UI::CWindow::IsType
  0004f	85 c0		 test	 eax, eax
  00051	74 ca		 je	 SHORT $LN6@wndMgrGetS

; 1484 : 		return Py_BuildException();
; 1485 : 
; 1486 : 	UI::CSlotWindow * pSlotWin = (UI::CSlotWindow *)pWin;
; 1487 : 	return Py_BuildValue("i", pSlotWin->GetSelectedSlotNumber(iSlotNumber));

  00053	ff 75 f8	 push	 DWORD PTR _iSlotNumber$[ebp]
  00056	8b ce		 mov	 ecx, esi
  00058	e8 00 00 00 00	 call	 ?GetSelectedSlotNumber@CSlotWindow@UI@@QAEKK@Z ; UI::CSlotWindow::GetSelectedSlotNumber
  0005d	50		 push	 eax
  0005e	68 00 00 00 00	 push	 OFFSET ??_C@_01KBJDNOO@i@
  00063	ff 15 00 00 00
	00		 call	 DWORD PTR __imp__Py_BuildValue
  00069	83 c4 08	 add	 esp, 8
  0006c	5e		 pop	 esi

; 1488 : }

  0006d	8b e5		 mov	 esp, ebp
  0006f	5d		 pop	 ebp
  00070	c3		 ret	 0
?wndMgrGetSelectedSlotNumber@@YAPAU_object@@PAU1@0@Z ENDP ; wndMgrGetSelectedSlotNumber
_TEXT	ENDS
; Function compile flags: /Ogtp
; File C:\DS Project\DS Files\Source\ClientSource\Client\eterPythonLib\PythonWindowManagerModule.cpp
;	COMDAT ?wndMgrGetSelectedSlotCount@@YAPAU_object@@PAU1@0@Z
_TEXT	SEGMENT
_pWin$ = -4						; size = 4
_poSelf$ = 8						; size = 4
_poArgs$ = 12						; size = 4
?wndMgrGetSelectedSlotCount@@YAPAU_object@@PAU1@0@Z PROC ; wndMgrGetSelectedSlotCount, COMDAT

; 1462 : {

  00000	55		 push	 ebp
  00001	8b ec		 mov	 ebp, esp
  00003	51		 push	 ecx

; 1463 : 	UI::CWindow * pWin;
; 1464 : 	if (!PyTuple_GetWindow(poArgs, 0, &pWin))

  00004	8d 45 fc	 lea	 eax, DWORD PTR _pWin$[ebp]
  00007	50		 push	 eax
  00008	6a 00		 push	 0
  0000a	ff 75 0c	 push	 DWORD PTR _poArgs$[ebp]
  0000d	e8 00 00 00 00	 call	 ?PyTuple_GetWindow@@YA_NPAU_object@@HPAPAVCWindow@UI@@@Z ; PyTuple_GetWindow
  00012	83 c4 0c	 add	 esp, 12			; 0000000cH
  00015	84 c0		 test	 al, al
  00017	75 0e		 jne	 SHORT $LN2@wndMgrGetS
$LN5@wndMgrGetS:

; 1472 : }

  00019	6a 00		 push	 0
  0001b	e8 00 00 00 00	 call	 ?Py_BuildException@@YAPAU_object@@PBDZZ ; Py_BuildException
  00020	83 c4 04	 add	 esp, 4
  00023	8b e5		 mov	 esp, ebp
  00025	5d		 pop	 ebp
  00026	c3		 ret	 0
$LN2@wndMgrGetS:

; 1465 : 		return Py_BuildException();
; 1466 : 
; 1467 : 	if (!pWin->IsType(UI::CSlotWindow::Type()))

  00027	e8 00 00 00 00	 call	 ?Type@CSlotWindow@UI@@SAKXZ ; UI::CSlotWindow::Type
  0002c	8b 4d fc	 mov	 ecx, DWORD PTR _pWin$[ebp]
  0002f	50		 push	 eax
  00030	e8 00 00 00 00	 call	 ?IsType@CWindow@UI@@QAEHK@Z ; UI::CWindow::IsType
  00035	85 c0		 test	 eax, eax
  00037	74 e0		 je	 SHORT $LN5@wndMgrGetS

; 1468 : 		return Py_BuildException();
; 1469 : 
; 1470 : 	UI::CSlotWindow * pSlotWin = (UI::CSlotWindow *)pWin;
; 1471 : 	return Py_BuildValue("i", pSlotWin->GetSelectedSlotCount());

  00039	8b 4d fc	 mov	 ecx, DWORD PTR _pWin$[ebp]
  0003c	e8 00 00 00 00	 call	 ?GetSelectedSlotCount@CSlotWindow@UI@@QAEKXZ ; UI::CSlotWindow::GetSelectedSlotCount
  00041	50		 push	 eax
