; Listing generated by Microsoft (R) Optimizing Compiler Version 19.27.29112.0 

	TITLE	C:\DS Project\DS Files\Source\ClientSource\Client\eterPythonLib\PythonGraphicImageModule.cpp
	.686P
	.XMM
	include listing.inc
	.model	flat

INCLUDELIB LIBCMT
INCLUDELIB OLDNAMES

PUBLIC	?initgrpImage@@YAXXZ				; initgrpImage
PUBLIC	?PyTuple_GetImageInstance@@YA_NPAU_object@@HPAPAVCGraphicImageInstance@@@Z ; PyTuple_GetImageInstance
PUBLIC	?PyTuple_GetExpandedImageInstance@@YA_NPAU_object@@HPAPAVCGraphicExpandedImageInstance@@@Z ; PyTuple_GetExpandedImageInstance
PUBLIC	?grpImageGenerate@@YAPAU_object@@PAU1@0@Z	; grpImageGenerate
PUBLIC	?grpImageGenerateExpanded@@YAPAU_object@@PAU1@0@Z ; grpImageGenerateExpanded
PUBLIC	?grpImageGenerateFromHandle@@YAPAU_object@@PAU1@0@Z ; grpImageGenerateFromHandle
PUBLIC	?grpImageDelete@@YAPAU_object@@PAU1@0@Z		; grpImageDelete
PUBLIC	?grpImageDeleteExpanded@@YAPAU_object@@PAU1@0@Z	; grpImageDeleteExpanded
PUBLIC	?grpImageSetFileName@@YAPAU_object@@PAU1@0@Z	; grpImageSetFileName
PUBLIC	?grpImageRender@@YAPAU_object@@PAU1@0@Z		; grpImageRender
PUBLIC	?grpSetImagePosition@@YAPAU_object@@PAU1@0@Z	; grpSetImagePosition
PUBLIC	?grpSetImageOrigin@@YAPAU_object@@PAU1@0@Z	; grpSetImageOrigin
PUBLIC	?grpSetImageRotation@@YAPAU_object@@PAU1@0@Z	; grpSetImageRotation
PUBLIC	?grpSetImageScale@@YAPAU_object@@PAU1@0@Z	; grpSetImageScale
PUBLIC	?grpSetRenderingRect@@YAPAU_object@@PAU1@0@Z	; grpSetRenderingRect
PUBLIC	?grpSetImageDiffuseColor@@YAPAU_object@@PAU1@0@Z ; grpSetImageDiffuseColor
PUBLIC	?grpGetWidth@@YAPAU_object@@PAU1@0@Z		; grpGetWidth
PUBLIC	?grpGetHeight@@YAPAU_object@@PAU1@0@Z		; grpGetHeight
PUBLIC	?ms_singleton@?$CSingleton@VCResourceManager@@@@0PAVCResourceManager@@A ; CSingleton<CResourceManager>::ms_singleton
PUBLIC	??_C@_01KBJDNOO@i@				; `string'
PUBLIC	??_C@_0CI@BMEPHKIH@Resource?5is?5not?5an?5image?5?$CIfilen@ ; `string'
PUBLIC	??_C@_0CB@IGMMKMMH@Cannot?5load?5image?5?$CIfilename?3?5?$CFs@ ; `string'
PUBLIC	??_C@_0P@KMPAMHCE@Image?5is?5empty@		; `string'
PUBLIC	??_C@_06EPLDPNDB@Render@			; `string'
PUBLIC	??_C@_0M@GKIFPNAD@SetPosition@			; `string'
PUBLIC	??_C@_08PDEEPOLG@Generate@			; `string'
PUBLIC	??_C@_0BB@KGDODCPK@GenerateExpanded@		; `string'
PUBLIC	??_C@_0BD@FOKFJBAM@GenerateFromHandle@		; `string'
PUBLIC	??_C@_06JBKGCNBB@Delete@			; `string'
PUBLIC	??_C@_0P@CEODFLBD@DeleteExpanded@		; `string'
PUBLIC	??_C@_0M@FLDBGGEO@SetFileName@			; `string'
PUBLIC	??_C@_09KLKDEBJ@SetOrigin@			; `string'
PUBLIC	??_C@_0M@GNIHGJGG@SetRotation@			; `string'
PUBLIC	??_C@_08FMFAIGAB@SetScale@			; `string'
PUBLIC	??_C@_0BB@LDNMLPHM@SetRenderingRect@		; `string'
PUBLIC	??_C@_0BA@CAEBLOMF@SetDiffuseColor@		; `string'
PUBLIC	??_C@_08OMBILDHM@GetWidth@			; `string'
PUBLIC	??_C@_09EOGEIJMK@GetHeight@			; `string'
PUBLIC	??_C@_08LMJEHLID@grpImage@			; `string'
EXTRN	__imp__Py_BuildValue:PROC
EXTRN	__imp__Py_InitModule4:PROC
EXTRN	?PyTuple_GetString@@YA_NPAU_object@@HPAPAD@Z:PROC ; PyTuple_GetString
EXTRN	?PyTuple_GetInteger@@YA_NPAU_object@@HPAH@Z:PROC ; PyTuple_GetInteger
EXTRN	?PyTuple_GetFloat@@YA_NPAU_object@@HPAM@Z:PROC	; PyTuple_GetFloat
EXTRN	?Py_BuildException@@YAPAU_object@@PBDZZ:PROC	; Py_BuildException
EXTRN	?Py_BadArgument@@YAPAU_object@@XZ:PROC		; Py_BadArgument
EXTRN	?Py_BuildNone@@YAPAU_object@@XZ:PROC		; Py_BuildNone
EXTRN	?IsType@CResource@@QAE_NK@Z:PROC		; CResource::IsType
EXTRN	?GetResourcePointer@CResourceManager@@QAEPAVCResource@@PBD@Z:PROC ; CResourceManager::GetResourcePointer
EXTRN	?Type@CGraphicImage@@SAKXZ:PROC			; CGraphicImage::Type
EXTRN	?IsType@CGraphicImageInstance@@QAEHK@Z:PROC	; CGraphicImageInstance::IsType
EXTRN	?Render@CGraphicImageInstance@@QAEXXZ:PROC	; CGraphicImageInstance::Render
EXTRN	?SetDiffuseColor@CGraphicImageInstance@@QAEXMMMM@Z:PROC ; CGraphicImageInstance::SetDiffuseColor
EXTRN	?SetPosition@CGraphicImageInstance@@QAEXMM@Z:PROC ; CGraphicImageInstance::SetPosition
EXTRN	?SetImagePointer@CGraphicImageInstance@@QAEXPAVCGraphicImage@@@Z:PROC ; CGraphicImageInstance::SetImagePointer
EXTRN	?IsEmpty@CGraphicImageInstance@@QBE_NXZ:PROC	; CGraphicImageInstance::IsEmpty
EXTRN	?GetWidth@CGraphicImageInstance@@QAEHXZ:PROC	; CGraphicImageInstance::GetWidth
EXTRN	?GetHeight@CGraphicImageInstance@@QAEHXZ:PROC	; CGraphicImageInstance::GetHeight
EXTRN	?New@CGraphicImageInstance@@SAPAV1@XZ:PROC	; CGraphicImageInstance::New
EXTRN	?Delete@CGraphicImageInstance@@SAXPAV1@@Z:PROC	; CGraphicImageInstance::Delete
EXTRN	?Type@CGraphicExpandedImageInstance@@SAKXZ:PROC	; CGraphicExpandedImageInstance::Type
EXTRN	?SetOrigin@CGraphicExpandedImageInstance@@QAEXMM@Z:PROC ; CGraphicExpandedImageInstance::SetOrigin
EXTRN	?SetRotation@CGraphicExpandedImageInstance@@QAEXM@Z:PROC ; CGraphicExpandedImageInstance::SetRotation
EXTRN	?SetScale@CGraphicExpandedImageInstance@@QAEXMM@Z:PROC ; CGraphicExpandedImageInstance::SetScale
EXTRN	?SetRenderingRect@CGraphicExpandedImageInstance@@QAEXMMMM@Z:PROC ; CGraphicExpandedImageInstance::SetRenderingRect
EXTRN	?New@CGraphicExpandedImageInstance@@SAPAV1@XZ:PROC ; CGraphicExpandedImageInstance::New
EXTRN	?Delete@CGraphicExpandedImageInstance@@SAXPAV1@@Z:PROC ; CGraphicExpandedImageInstance::Delete
EXTRN	__fltused:DWORD
;	COMDAT ?ms_singleton@?$CSingleton@VCResourceManager@@@@0PAVCResourceManager@@A
_BSS	SEGMENT
?ms_singleton@?$CSingleton@VCResourceManager@@@@0PAVCResourceManager@@A DD 01H DUP (?) ; CSingleton<CResourceManager>::ms_singleton
_BSS	ENDS
;	COMDAT ??_C@_08LMJEHLID@grpImage@
CONST	SEGMENT
??_C@_08LMJEHLID@grpImage@ DB 'grpImage', 00H		; `string'
CONST	ENDS
;	COMDAT ??_C@_09EOGEIJMK@GetHeight@
CONST	SEGMENT
??_C@_09EOGEIJMK@GetHeight@ DB 'GetHeight', 00H		; `string'
CONST	ENDS
;	COMDAT ??_C@_08OMBILDHM@GetWidth@
CONST	SEGMENT
??_C@_08OMBILDHM@GetWidth@ DB 'GetWidth', 00H		; `string'
CONST	ENDS
;	COMDAT ??_C@_0BA@CAEBLOMF@SetDiffuseColor@
CONST	SEGMENT
??_C@_0BA@CAEBLOMF@SetDiffuseColor@ DB 'SetDiffuseColor', 00H ; `string'
CONST	ENDS
;	COMDAT ??_C@_0BB@LDNMLPHM@SetRenderingRect@
CONST	SEGMENT
??_C@_0BB@LDNMLPHM@SetRenderingRect@ DB 'SetRenderingRect', 00H ; `string'
CONST	ENDS
;	COMDAT ??_C@_08FMFAIGAB@SetScale@
CONST	SEGMENT
??_C@_08FMFAIGAB@SetScale@ DB 'SetScale', 00H		; `string'
CONST	ENDS
;	COMDAT ??_C@_0M@GNIHGJGG@SetRotation@
CONST	SEGMENT
??_C@_0M@GNIHGJGG@SetRotation@ DB 'SetRotation', 00H	; `string'
CONST	ENDS
;	COMDAT ??_C@_09KLKDEBJ@SetOrigin@
CONST	SEGMENT
??_C@_09KLKDEBJ@SetOrigin@ DB 'SetOrigin', 00H		; `string'
CONST	ENDS
;	COMDAT ??_C@_0M@FLDBGGEO@SetFileName@
CONST	SEGMENT
??_C@_0M@FLDBGGEO@SetFileName@ DB 'SetFileName', 00H	; `string'
CONST	ENDS
;	COMDAT ??_C@_0P@CEODFLBD@DeleteExpanded@
CONST	SEGMENT
??_C@_0P@CEODFLBD@DeleteExpanded@ DB 'DeleteExpanded', 00H ; `string'
CONST	ENDS
;	COMDAT ??_C@_06JBKGCNBB@Delete@
CONST	SEGMENT
??_C@_06JBKGCNBB@Delete@ DB 'Delete', 00H		; `string'
CONST	ENDS
;	COMDAT ??_C@_0BD@FOKFJBAM@GenerateFromHandle@
CONST	SEGMENT
??_C@_0BD@FOKFJBAM@GenerateFromHandle@ DB 'GenerateFromHandle', 00H ; `string'
CONST	ENDS
;	COMDAT ??_C@_0BB@KGDODCPK@GenerateExpanded@
CONST	SEGMENT
??_C@_0BB@KGDODCPK@GenerateExpanded@ DB 'GenerateExpanded', 00H ; `string'
CONST	ENDS
;	COMDAT ??_C@_08PDEEPOLG@Generate@
CONST	SEGMENT
??_C@_08PDEEPOLG@Generate@ DB 'Generate', 00H		; `string'
CONST	ENDS
;	COMDAT ??_C@_0M@GKIFPNAD@SetPosition@
CONST	SEGMENT
??_C@_0M@GKIFPNAD@SetPosition@ DB 'SetPosition', 00H	; `string'
CONST	ENDS
;	COMDAT ??_C@_06EPLDPNDB@Render@
CONST	SEGMENT
??_C@_06EPLDPNDB@Render@ DB 'Render', 00H		; `string'
CONST	ENDS
;	COMDAT ?s_methods@?1??initgrpImage@@YAXXZ@4PAUPyMethodDef@@A
_DATA	SEGMENT
?s_methods@?1??initgrpImage@@YAXXZ@4PAUPyMethodDef@@A DD FLAT:??_C@_06EPLDPNDB@Render@ ; `initgrpImage'::`2'::s_methods
	DD	FLAT:?grpImageRender@@YAPAU_object@@PAU1@0@Z
	DD	01H
	ORG $+4
	DD	FLAT:??_C@_0M@GKIFPNAD@SetPosition@
	DD	FLAT:?grpSetImagePosition@@YAPAU_object@@PAU1@0@Z
	DD	01H
	ORG $+4
	DD	FLAT:??_C@_08PDEEPOLG@Generate@
	DD	FLAT:?grpImageGenerate@@YAPAU_object@@PAU1@0@Z
	DD	01H
	ORG $+4
	DD	FLAT:??_C@_0BB@KGDODCPK@GenerateExpanded@
	DD	FLAT:?grpImageGenerateExpanded@@YAPAU_object@@PAU1@0@Z
	DD	01H
	ORG $+4
	DD	FLAT:??_C@_0BD@FOKFJBAM@GenerateFromHandle@
	DD	FLAT:?grpImageGenerateFromHandle@@YAPAU_object@@PAU1@0@Z
	DD	01H
	ORG $+4
	DD	FLAT:??_C@_06JBKGCNBB@Delete@
	DD	FLAT:?grpImageDelete@@YAPAU_object@@PAU1@0@Z
	DD	01H
	ORG $+4
	DD	FLAT:??_C@_0P@CEODFLBD@DeleteExpanded@
	DD	FLAT:?grpImageDeleteExpanded@@YAPAU_object@@PAU1@0@Z
	DD	01H
	ORG $+4
	DD	FLAT:??_C@_0M@FLDBGGEO@SetFileName@
	DD	FLAT:?grpImageSetFileName@@YAPAU_object@@PAU1@0@Z
	DD	01H
	ORG $+4
	DD	FLAT:??_C@_09KLKDEBJ@SetOrigin@
	DD	FLAT:?grpSetImageOrigin@@YAPAU_object@@PAU1@0@Z
	DD	01H
	ORG $+4
	DD	FLAT:??_C@_0M@GNIHGJGG@SetRotation@
	DD	FLAT:?grpSetImageRotation@@YAPAU_object@@PAU1@0@Z
	DD	01H
	ORG $+4
	DD	FLAT:??_C@_08FMFAIGAB@SetScale@
	DD	FLAT:?grpSetImageScale@@YAPAU_object@@PAU1@0@Z
	DD	01H
	ORG $+4
	DD	FLAT:??_C@_0BB@LDNMLPHM@SetRenderingRect@
	DD	FLAT:?grpSetRenderingRect@@YAPAU_object@@PAU1@0@Z
	DD	01H
	ORG $+4
	DD	FLAT:??_C@_0BA@CAEBLOMF@SetDiffuseColor@
	DD	FLAT:?grpSetImageDiffuseColor@@YAPAU_object@@PAU1@0@Z
	DD	01H
	ORG $+4
	DD	FLAT:??_C@_08OMBILDHM@GetWidth@
	DD	FLAT:?grpGetWidth@@YAPAU_object@@PAU1@0@Z
	DD	01H
	ORG $+4
	DD	FLAT:??_C@_09EOGEIJMK@GetHeight@
	DD	FLAT:?grpGetHeight@@YAPAU_object@@PAU1@0@Z
	DD	01H
	ORG $+4
	DD	00H
	DD	00H
	DD	00H
	ORG $+4
_DATA	ENDS
;	COMDAT ??_C@_0P@KMPAMHCE@Image?5is?5empty@
CONST	SEGMENT
??_C@_0P@KMPAMHCE@Image?5is?5empty@ DB 'Image is empty', 00H ; `string'
CONST	ENDS
;	COMDAT ??_C@_0CB@IGMMKMMH@Cannot?5load?5image?5?$CIfilename?3?5?$CFs@
CONST	SEGMENT
??_C@_0CB@IGMMKMMH@Cannot?5load?5image?5?$CIfilename?3?5?$CFs@ DB 'Cannot'
	DB	' load image (filename: %s)', 00H		; `string'
CONST	ENDS
;	COMDAT ??_C@_0CI@BMEPHKIH@Resource?5is?5not?5an?5image?5?$CIfilen@
CONST	SEGMENT
??_C@_0CI@BMEPHKIH@Resource?5is?5not?5an?5image?5?$CIfilen@ DB 'Resource '
	DB	'is not an image (filename: %s)', 00H	; `string'
CONST	ENDS
;	COMDAT ??_C@_01KBJDNOO@i@
CONST	SEGMENT
??_C@_01KBJDNOO@i@ DB 'i', 00H				; `string'
CONST	ENDS
; Function compile flags: /Ogtp
; File C:\DS Project\DS Files\Source\ClientSource\Client\eterPythonLib\PythonGraphicImageModule.cpp
;	COMDAT ?grpGetHeight@@YAPAU_object@@PAU1@0@Z
_TEXT	SEGMENT
_pImageInstance$ = -4					; size = 4
_poSelf$ = 8						; size = 4
_poArgs$ = 12						; size = 4
?grpGetHeight@@YAPAU_object@@PAU1@0@Z PROC		; grpGetHeight, COMDAT

; 275  : {

  00000	55		 push	 ebp
  00001	8b ec		 mov	 ebp, esp
  00003	51		 push	 ecx

; 276  : 	CGraphicImageInstance * pImageInstance;
; 277  : 
; 278  : 	if (!PyTuple_GetImageInstance(poArgs, 0, &pImageInstance))

  00004	8d 45 fc	 lea	 eax, DWORD PTR _pImageInstance$[ebp]
  00007	50		 push	 eax
  00008	6a 00		 push	 0
  0000a	ff 75 0c	 push	 DWORD PTR _poArgs$[ebp]
  0000d	e8 00 00 00 00	 call	 ?PyTuple_GetImageInstance@@YA_NPAU_object@@HPAPAVCGraphicImageInstance@@@Z ; PyTuple_GetImageInstance
  00012	83 c4 0c	 add	 esp, 12			; 0000000cH
  00015	84 c0		 test	 al, al
  00017	75 09		 jne	 SHORT $LN2@grpGetHeig

; 279  : 		return Py_BadArgument();

  00019	e8 00 00 00 00	 call	 ?Py_BadArgument@@YAPAU_object@@XZ ; Py_BadArgument

; 285  : }

  0001e	8b e5		 mov	 esp, ebp
  00020	5d		 pop	 ebp
  00021	c3		 ret	 0
$LN2@grpGetHeig:

; 280  : 
; 281  : 	if (pImageInstance->IsEmpty())

  00022	8b 4d fc	 mov	 ecx, DWORD PTR _pImageInstance$[ebp]
  00025	e8 00 00 00 00	 call	 ?IsEmpty@CGraphicImageInstance@@QBE_NXZ ; CGraphicImageInstance::IsEmpty
  0002a	84 c0		 test	 al, al
  0002c	74 11		 je	 SHORT $LN3@grpGetHeig

; 282  : 		return Py_BuildException("Image is empty");

  0002e	68 00 00 00 00	 push	 OFFSET ??_C@_0P@KMPAMHCE@Image?5is?5empty@
  00033	e8 00 00 00 00	 call	 ?Py_BuildException@@YAPAU_object@@PBDZZ ; Py_BuildException
  00038	83 c4 04	 add	 esp, 4

; 285  : }

  0003b	8b e5		 mov	 esp, ebp
  0003d	5d		 pop	 ebp
  0003e	c3		 ret	 0
$LN3@grpGetHeig:

; 283  : 
; 284  : 	return Py_BuildValue("i", pImageInstance->GetHeight());

  0003f	8b 4d fc	 mov	 ecx, DWORD PTR _pImageInstance$[ebp]
  00042	e8 00 00 00 00	 call	 ?GetHeight@CGraphicImageInstance@@QAEHXZ ; CGraphicImageInstance::GetHeight
  00047	50		 push	 eax
  00048	68 00 00 00 00	 push	 OFFSET ??_C@_01KBJDNOO@i@
  0004d	ff 15 00 00 00
	00		 call	 DWORD PTR __imp__Py_BuildValue
  00053	83 c4 08	 add	 esp, 8

; 285  : }

  00056	8b e5		 mov	 esp, ebp
  00058	5d		 pop	 ebp
  00059	c3		 ret	 0
?grpGetHeight@@YAPAU_object@@PAU1@0@Z ENDP		; grpGetHeight
_TEXT	ENDS
; Function compile flags: /Ogtp
; File C:\DS Project\DS Files\Source\ClientSource\Client\eterPythonLib\PythonGraphicImageModule.cpp
;	COMDAT ?grpGetWidth@@YAPAU_object@@PAU1@0@Z
_TEXT	SEGMENT
_pImageInstance$ = -4					; size = 4
_poSelf$ = 8						; size = 4
_poArgs$ = 12						; size = 4
?grpGetWidth@@YAPAU_object@@PAU1@0@Z PROC		; grpGetWidth, COMDAT

; 262  : {

  00000	55		 push	 ebp
  00001	8b ec		 mov	 ebp, esp
  00003	51		 push	 ecx

; 263  : 	CGraphicImageInstance * pImageInstance;
; 264  : 
; 265  : 	if (!PyTuple_GetImageInstance(poArgs, 0, &pImageInstance))

  00004	8d 45 fc	 lea	 eax, DWORD PTR _pImageInstance$[ebp]
  00007	50		 push	 eax
  00008	6a 00		 push	 0
  0000a	ff 75 0c	 push	 DWORD PTR _poArgs$[ebp]
  0000d	e8 00 00 00 00	 call	 ?PyTuple_GetImageInstance@@YA_NPAU_object@@HPAPAVCGraphicImageInstance@@@Z ; PyTuple_GetImageInstance
  00012	83 c4 0c	 add	 esp, 12			; 0000000cH
  00015	84 c0		 test	 al, al
  00017	75 09		 jne	 SHORT $LN2@grpGetWidt

; 266  : 		return Py_BadArgument();

  00019	e8 00 00 00 00	 call	 ?Py_BadArgument@@YAPAU_object@@XZ ; Py_BadArgument

; 272  : }

  0001e	8b e5		 mov	 esp, ebp
  00020	5d		 pop	 ebp
  00021	c3		 ret	 0
$LN2@grpGetWidt:

; 267  : 
; 268  : 	if (pImageInstance->IsEmpty())

  00022	8b 4d fc	 mov	 ecx, DWORD PTR _pImageInstance$[ebp]
  00025	e8 00 00 00 00	 call	 ?IsEmpty@CGraphicImageInstance@@QBE_NXZ ; CGraphicImageInstance::IsEmpty
  0002a	84 c0		 test	 al, al
  0002c	74 11		 je	 SHORT $LN3@grpGetWidt

; 269  : 		return Py_BuildException("Image is empty");

  0002e	68 00 00 00 00	 push	 OFFSET ??_C@_0P@KMPAMHCE@Image?5is?5empty@
  00033	e8 00 00 00 00	 call	 ?Py_BuildException@@YAPAU_object@@PBDZZ ; Py_BuildException
  00038	83 c4 04	 add	 esp, 4

; 272  : }

  0003b	8b e5		 mov	 esp, ebp
  0003d	5d		 pop	 ebp
  0003e	c3		 ret	 0
$LN3@grpGetWidt:

; 270  : 
; 271  : 	return Py_BuildValue("i", pImageInstance->GetWidth());

  0003f	8b 4d fc	 mov	 ecx, DWORD PTR _pImageInstance$[ebp]
  00042	e8 00 00 00 00	 call	 ?GetWidth@CGraphicImageInstance@@QAEHXZ ; CGraphicImageInstance::GetWidth
  00047	50		 push	 eax
  00048	68 00 00 00 00	 push	 OFFSET ??_C@_01KBJDNOO@i@
  0004d	ff 15 00 00 00
	00		 call	 DWORD PTR __imp__Py_BuildValue
  00053	83 c4 08	 add	 esp, 8

; 272  : }

  00056	8b e5		 mov	 esp, ebp
  00058	5d		 pop	 ebp
  00059	c3		 ret	 0
?grpGetWidth@@YAPAU_object@@PAU1@0@Z ENDP		; grpGetWidth
_TEXT	ENDS
; Function compile flags: /Ogtp
; File C:\DS Project\DS Files\Source\ClientSource\Client\eterPythonLib\PythonGraphicImageModule.cpp
;	COMDAT ?grpSetImageDiffuseColor@@YAPAU_object@@PAU1@0@Z
_TEXT	SEGMENT
_pImageInstance$ = -20					; size = 4
_r$ = -16						; size = 4
_g$ = -12						; size = 4
_b$ = -8						; size = 4
_a$ = -4						; size = 4
_poSelf$ = 8						; size = 4
_poArgs$ = 12						; size = 4
?grpSetImageDiffuseColor@@YAPAU_object@@PAU1@0@Z PROC	; grpSetImageDiffuseColor, COMDAT

; 239  : {

  00000	55		 push	 ebp
  00001	8b ec		 mov	 ebp, esp
  00003	83 ec 14	 sub	 esp, 20			; 00000014H

; 240  : 	CGraphicImageInstance* pImageInstance;
; 241  : 	if (!PyTuple_GetImageInstance(poArgs, 0, &pImageInstance))

  00006	8d 45 ec	 lea	 eax, DWORD PTR _pImageInstance$[ebp]
  00009	56		 push	 esi
  0000a	8b 75 0c	 mov	 esi, DWORD PTR _poArgs$[ebp]
  0000d	50		 push	 eax
  0000e	6a 00		 push	 0
  00010	56		 push	 esi
  00011	e8 00 00 00 00	 call	 ?PyTuple_GetImageInstance@@YA_NPAU_object@@HPAPAVCGraphicImageInstance@@@Z ; PyTuple_GetImageInstance
  00016	83 c4 0c	 add	 esp, 12			; 0000000cH
  00019	84 c0		 test	 al, al
  0001b	75 0a		 jne	 SHORT $LN2@grpSetImag
$LN8@grpSetImag:

; 259  : }

  0001d	e8 00 00 00 00	 call	 ?Py_BadArgument@@YAPAU_object@@XZ ; Py_BadArgument
  00022	5e		 pop	 esi
  00023	8b e5		 mov	 esp, ebp
  00025	5d		 pop	 ebp
  00026	c3		 ret	 0
$LN2@grpSetImag:

; 242  : 		return Py_BadArgument();
; 243  : 
; 244  : 	float r;
; 245  : 	if (!PyTuple_GetFloat(poArgs, 1, &r))

  00027	8d 45 f0	 lea	 eax, DWORD PTR _r$[ebp]
  0002a	50		 push	 eax
  0002b	6a 01		 push	 1
  0002d	56		 push	 esi
  0002e	e8 00 00 00 00	 call	 ?PyTuple_GetFloat@@YA_NPAU_object@@HPAM@Z ; PyTuple_GetFloat
  00033	83 c4 0c	 add	 esp, 12			; 0000000cH
  00036	84 c0		 test	 al, al
  00038	74 e3		 je	 SHORT $LN8@grpSetImag

; 246  : 		return Py_BadArgument();
; 247  : 	float g;
; 248  : 	if (!PyTuple_GetFloat(poArgs, 2, &g))

  0003a	8d 45 f4	 lea	 eax, DWORD PTR _g$[ebp]
  0003d	50		 push	 eax
  0003e	6a 02		 push	 2
  00040	56		 push	 esi
  00041	e8 00 00 00 00	 call	 ?PyTuple_GetFloat@@YA_NPAU_object@@HPAM@Z ; PyTuple_GetFloat
  00046	83 c4 0c	 add	 esp, 12			; 0000000cH
  00049	84 c0		 test	 al, al
  0004b	74 d0		 je	 SHORT $LN8@grpSetImag

; 249  : 		return Py_BadArgument();
; 250  : 	float b;
; 251  : 	if (!PyTuple_GetFloat(poArgs, 3, &b))

  0004d	8d 45 f8	 lea	 eax, DWORD PTR _b$[ebp]
  00050	50		 push	 eax
  00051	6a 03		 push	 3
  00053	56		 push	 esi
  00054	e8 00 00 00 00	 call	 ?PyTuple_GetFloat@@YA_NPAU_object@@HPAM@Z ; PyTuple_GetFloat
  00059	83 c4 0c	 add	 esp, 12			; 0000000cH
  0005c	84 c0		 test	 al, al
  0005e	74 bd		 je	 SHORT $LN8@grpSetImag

; 252  : 		return Py_BadArgument();
; 253  : 	float a;
; 254  : 	if (!PyTuple_GetFloat(poArgs, 4, &a))

  00060	8d 45 fc	 lea	 eax, DWORD PTR _a$[ebp]
  00063	50		 push	 eax
  00064	6a 04		 push	 4
  00066	56		 push	 esi
  00067	e8 00 00 00 00	 call	 ?PyTuple_GetFloat@@YA_NPAU_object@@HPAM@Z ; PyTuple_GetFloat
  0006c	83 c4 0c	 add	 esp, 12			; 0000000cH
  0006f	84 c0		 test	 al, al
  00071	74 aa		 je	 SHORT $LN8@grpSetImag

; 255  : 		return Py_BadArgument();
; 256  : 
; 257  : 	pImageInstance->SetDiffuseColor(r, g, b, a);

  00073	f3 0f 10 45 fc	 movss	 xmm0, DWORD PTR _a$[ebp]
  00078	83 ec 10	 sub	 esp, 16			; 00000010H
  0007b	8b 4d ec	 mov	 ecx, DWORD PTR _pImageInstance$[ebp]
  0007e	f3 0f 11 44 24
	0c		 movss	 DWORD PTR [esp+12], xmm0
  00084	f3 0f 10 45 f8	 movss	 xmm0, DWORD PTR _b$[ebp]
  00089	f3 0f 11 44 24
	08		 movss	 DWORD PTR [esp+8], xmm0
  0008f	f3 0f 10 45 f4	 movss	 xmm0, DWORD PTR _g$[ebp]
  00094	f3 0f 11 44 24
	04		 movss	 DWORD PTR [esp+4], xmm0
  0009a	f3 0f 10 45 f0	 movss	 xmm0, DWORD PTR _r$[ebp]
  0009f	f3 0f 11 04 24	 movss	 DWORD PTR [esp], xmm0
  000a4	e8 00 00 00 00	 call	 ?SetDiffuseColor@CGraphicImageInstance@@QAEXMMMM@Z ; CGraphicImageInstance::SetDiffuseColor

; 258  : 	return Py_BuildNone();

  000a9	e8 00 00 00 00	 call	 ?Py_BuildNone@@YAPAU_object@@XZ ; Py_BuildNone
  000ae	5e		 pop	 esi

; 259  : }

  000af	8b e5		 mov	 esp, ebp
  000b1	5d		 pop	 ebp
  000b2	c3		 ret	 0
?grpSetImageDiffuseColor@@YAPAU_object@@PAU1@0@Z ENDP	; grpSetImageDiffuseColor
_TEXT	ENDS
; Function compile flags: /Ogtp
; File C:\DS Project\DS Files\Source\ClientSource\Client\eterPythonLib\PythonGraphicImageModule.cpp
;	COMDAT ?grpSetRenderingRect@@YAPAU_object@@PAU1@0@Z
_TEXT	SEGMENT
_pImageInstance$ = -20					; size = 4
_fLeft$ = -16						; size = 4
_fTop$ = -12						; size = 4
_fRight$ = -8						; size = 4
_fBottom$ = -4						; size = 4
_poSelf$ = 8						; size = 4
_poArgs$ = 12						; size = 4
?grpSetRenderingRect@@YAPAU_object@@PAU1@0@Z PROC	; grpSetRenderingRect, COMDAT

; 216  : {

  00000	55		 push	 ebp
  00001	8b ec		 mov	 ebp, esp
  00003	83 ec 14	 sub	 esp, 20			; 00000014H

; 217  : 	CGraphicExpandedImageInstance * pImageInstance;
; 218  : 	if (!PyTuple_GetExpandedImageInstance(poArgs, 0, &pImageInstance))

  00006	8d 45 ec	 lea	 eax, DWORD PTR _pImageInstance$[ebp]
  00009	56		 push	 esi
  0000a	8b 75 0c	 mov	 esi, DWORD PTR _poArgs$[ebp]
  0000d	50		 push	 eax
  0000e	6a 00		 push	 0
  00010	56		 push	 esi
  00011	e8 00 00 00 00	 call	 ?PyTuple_GetExpandedImageInstance@@YA_NPAU_object@@HPAPAVCGraphicExpandedImageInstance@@@Z ; PyTuple_GetExpandedImageInstance
  00016	83 c4 0c	 add	 esp, 12			; 0000000cH
  00019	84 c0		 test	 al, al
  0001b	75 0a		 jne	 SHORT $LN2@grpSetRend
$LN8@grpSetRend:

; 236  : }

  0001d	e8 00 00 00 00	 call	 ?Py_BadArgument@@YAPAU_object@@XZ ; Py_BadArgument
  00022	5e		 pop	 esi
  00023	8b e5		 mov	 esp, ebp
  00025	5d		 pop	 ebp
  00026	c3		 ret	 0
$LN2@grpSetRend:

; 219  : 		return Py_BadArgument();
; 220  : 
; 221  : 	float fLeft;
; 222  : 	if (!PyTuple_GetFloat(poArgs, 1, &fLeft))

  00027	8d 45 f0	 lea	 eax, DWORD PTR _fLeft$[ebp]
  0002a	50		 push	 eax
  0002b	6a 01		 push	 1
  0002d	56		 push	 esi
  0002e	e8 00 00 00 00	 call	 ?PyTuple_GetFloat@@YA_NPAU_object@@HPAM@Z ; PyTuple_GetFloat
  00033	83 c4 0c	 add	 esp, 12			; 0000000cH
  00036	84 c0		 test	 al, al
  00038	74 e3		 je	 SHORT $LN8@grpSetRend

; 223  : 		return Py_BadArgument();
; 224  : 	float fTop;
; 225  : 	if (!PyTuple_GetFloat(poArgs, 2, &fTop))

  0003a	8d 45 f4	 lea	 eax, DWORD PTR _fTop$[ebp]
  0003d	50		 push	 eax
  0003e	6a 02		 push	 2
  00040	56		 push	 esi
  00041	e8 00 00 00 00	 call	 ?PyTuple_GetFloat@@YA_NPAU_object@@HPAM@Z ; PyTuple_GetFloat
  00046	83 c4 0c	 add	 esp, 12			; 0000000cH
  00049	84 c0		 test	 al, al
  0004b	74 d0		 je	 SHORT $LN8@grpSetRend

; 226  : 		return Py_BadArgument();
; 227  : 	float fRight;
; 228  : 	if (!PyTuple_GetFloat(poArgs, 3, &fRight))

  0004d	8d 45 f8	 lea	 eax, DWORD PTR _fRight$[ebp]
  00050	50		 push	 eax
  00051	6a 03		 push	 3
  00053	56		 push	 esi
  00054	e8 00 00 00 00	 call	 ?PyTuple_GetFloat@@YA_NPAU_object@@HPAM@Z ; PyTuple_GetFloat
  00059	83 c4 0c	 add	 esp, 12			; 0000000cH
  0005c	84 c0		 test	 al, al
  0005e	74 bd		 je	 SHORT $LN8@grpSetRend

; 229  : 		return Py_BadArgument();
; 230  : 	float fBottom;
; 231  : 	if (!PyTuple_GetFloat(poArgs, 4, &fBottom))

  00060	8d 45 fc	 lea	 eax, DWORD PTR _fBottom$[ebp]
  00063	50		 push	 eax
  00064	6a 04		 push	 4
  00066	56		 push	 esi
  00067	e8 00 00 00 00	 call	 ?PyTuple_GetFloat@@YA_NPAU_object@@HPAM@Z ; PyTuple_GetFloat
  0006c	83 c4 0c	 add	 esp, 12			; 0000000cH
  0006f	84 c0		 test	 al, al
  00071	74 aa		 je	 SHORT $LN8@grpSetRend

; 232  : 		return Py_BadArgument();
; 233  : 
; 234  : 	pImageInstance->SetRenderingRect(fLeft, fTop, fRight, fBottom);

  00073	f3 0f 10 45 fc	 movss	 xmm0, DWORD PTR _fBottom$[ebp]
  00078	83 ec 10	 sub	 esp, 16			; 00000010H
  0007b	8b 4d ec	 mov	 ecx, DWORD PTR _pImageInstance$[ebp]
  0007e	f3 0f 11 44 24
	0c		 movss	 DWORD PTR [esp+12], xmm0
  00084	f3 0f 10 45 f8	 movss	 xmm0, DWORD PTR _fRight$[ebp]
  00089	f3 0f 11 44 24
	08		 movss	 DWORD PTR [esp+8], xmm0
  0008f	f3 0f 10 45 f4	 movss	 xmm0, DWORD PTR _fTop$[ebp]
  00094	f3 0f 11 44 24
	04		 movss	 DWORD PTR [esp+4], xmm0
  0009a	f3 0f 10 45 f0	 movss	 xmm0, DWORD PTR _fLeft$[ebp]
  0009f	f3 0f 11 04 24	 movss	 DWORD PTR [esp], xmm0
  000a4	e8 00 00 00 00	 call	 ?SetRenderingRect@CGraphicExpandedImageInstance@@QAEXMMMM@Z ; CGraphicExpandedImageInstance::SetRenderingRect

; 235  : 	return Py_BuildNone();

  000a9	e8 00 00 00 00	 call	 ?Py_BuildNone@@YAPAU_object@@XZ ; Py_BuildNone
  000ae	5e		 pop	 esi

; 236  : }

  000af	8b e5		 mov	 esp, ebp
  000b1	5d		 pop	 ebp
  000b2	c3		 ret	 0
?grpSetRenderingRect@@YAPAU_object@@PAU1@0@Z ENDP	; grpSetRenderingRect
_TEXT	ENDS
; Function compile flags: /Ogtp
; File C:\DS Project\DS Files\Source\ClientSource\Client\eterPythonLib\PythonGraphicImageModule.cpp
;	COMDAT ?grpSetImageScale@@YAPAU_object@@PAU1@0@Z
_TEXT	SEGMENT
_pImageInstance$ = -12					; size = 4
_x$ = -8						; size = 4
_y$ = -4						; size = 4
_poSelf$ = 8						; size = 4
_poArgs$ = 12						; size = 4
?grpSetImageScale@@YAPAU_object@@PAU1@0@Z PROC		; grpSetImageScale, COMDAT

; 199  : {

  00000	55		 push	 ebp
  00001	8b ec		 mov	 ebp, esp
  00003	83 ec 0c	 sub	 esp, 12			; 0000000cH

; 200  : 	CGraphicExpandedImageInstance * pImageInstance;
; 201  : 	if (!PyTuple_GetExpandedImageInstance(poArgs, 0, &pImageInstance))

  00006	8d 45 f4	 lea	 eax, DWORD PTR _pImageInstance$[ebp]
  00009	56		 push	 esi
  0000a	8b 75 0c	 mov	 esi, DWORD PTR _poArgs$[ebp]
  0000d	50		 push	 eax
  0000e	6a 00		 push	 0
  00010	56		 push	 esi
  00011	e8 00 00 00 00	 call	 ?PyTuple_GetExpandedImageInstance@@YA_NPAU_object@@HPAPAVCGraphicExpandedImageInstance@@@Z ; PyTuple_GetExpandedImageInstance
  00016	83 c4 0c	 add	 esp, 12			; 0000000cH
  00019	84 c0		 test	 al, al
  0001b	75 0a		 jne	 SHORT $LN2@grpSetImag
$LN6@grpSetImag:

; 213  : }

  0001d	e8 00 00 00 00	 call	 ?Py_BadArgument@@YAPAU_object@@XZ ; Py_BadArgument
  00022	5e		 pop	 esi
  00023	8b e5		 mov	 esp, ebp
  00025	5d		 pop	 ebp
  00026	c3		 ret	 0
$LN2@grpSetImag:

; 202  : 		return Py_BadArgument();
; 203  : 
; 204  : 	float x;
; 205  : 	if (!PyTuple_GetFloat(poArgs, 1, &x))

  00027	8d 45 f8	 lea	 eax, DWORD PTR _x$[ebp]
  0002a	50		 push	 eax
  0002b	6a 01		 push	 1
  0002d	56		 push	 esi
  0002e	e8 00 00 00 00	 call	 ?PyTuple_GetFloat@@YA_NPAU_object@@HPAM@Z ; PyTuple_GetFloat
  00033	83 c4 0c	 add	 esp, 12			; 0000000cH
  00036	84 c0		 test	 al, al
  00038	74 e3		 je	 SHORT $LN6@grpSetImag

; 206  : 		return Py_BadArgument();
; 207  : 	float y;
; 208  : 	if (!PyTuple_GetFloat(poArgs, 2, &y))

  0003a	8d 45 fc	 lea	 eax, DWORD PTR _y$[ebp]
  0003d	50		 push	 eax
  0003e	6a 02		 push	 2
  00040	56		 push	 esi
  00041	e8 00 00 00 00	 call	 ?PyTuple_GetFloat@@YA_NPAU_object@@HPAM@Z ; PyTuple_GetFloat
  00046	83 c4 0c	 add	 esp, 12			; 0000000cH
  00049	84 c0		 test	 al, al
  0004b	74 d0		 je	 SHORT $LN6@grpSetImag

; 209  : 		return Py_BadArgument();
; 210  : 
; 211  : 	pImageInstance->SetScale(x, y);

  0004d	f3 0f 10 45 fc	 movss	 xmm0, DWORD PTR _y$[ebp]
  00052	83 ec 08	 sub	 esp, 8
  00055	8b 4d f4	 mov	 ecx, DWORD PTR _pImageInstance$[ebp]
  00058	f3 0f 11 44 24
	04		 movss	 DWORD PTR [esp+4], xmm0
  0005e	f3 0f 10 45 f8	 movss	 xmm0, DWORD PTR _x$[ebp]
  00063	f3 0f 11 04 24	 movss	 DWORD PTR [esp], xmm0
  00068	e8 00 00 00 00	 call	 ?SetScale@CGraphicExpandedImageInstance@@QAEXMM@Z ; CGraphicExpandedImageInstance::SetScale

; 212  : 	return Py_BuildNone();

  0006d	e8 00 00 00 00	 call	 ?Py_BuildNone@@YAPAU_object@@XZ ; Py_BuildNone
  00072	5e		 pop	 esi

; 213  : }

  00073	8b e5		 mov	 esp, ebp
  00075	5d		 pop	 ebp
  00076	c3		 ret	 0
?grpSetImageScale@@YAPAU_object@@PAU1@0@Z ENDP		; grpSetImageScale
_TEXT	ENDS
; Function compile flags: /Ogtp
; File C:\DS Project\DS Files\Source\ClientSource\Client\eterPythonLib\PythonGraphicImageModule.cpp
;	COMDAT ?grpSetImageRotation@@YAPAU_object@@PAU1@0@Z
_TEXT	SEGMENT
_pImageInstance$ = -8					; size = 4
_Degree$ = -4						; size = 4
_poSelf$ = 8						; size = 4
_poArgs$ = 12						; size = 4
?grpSetImageRotation@@YAPAU_object@@PAU1@0@Z PROC	; grpSetImageRotation, COMDAT

; 185  : {

  00000	55		 push	 ebp
  00001	8b ec		 mov	 ebp, esp
  00003	83 ec 08	 sub	 esp, 8

; 186  : 	CGraphicExpandedImageInstance * pImageInstance;
; 187  : 	if (!PyTuple_GetExpandedImageInstance(poArgs, 0, &pImageInstance))

  00006	8d 45 f8	 lea	 eax, DWORD PTR _pImageInstance$[ebp]
  00009	50		 push	 eax
  0000a	6a 00		 push	 0
  0000c	ff 75 0c	 push	 DWORD PTR _poArgs$[ebp]
  0000f	e8 00 00 00 00	 call	 ?PyTuple_GetExpandedImageInstance@@YA_NPAU_object@@HPAPAVCGraphicExpandedImageInstance@@@Z ; PyTuple_GetExpandedImageInstance
  00014	83 c4 0c	 add	 esp, 12			; 0000000cH
  00017	84 c0		 test	 al, al
  00019	75 09		 jne	 SHORT $LN2@grpSetImag
$LN5@grpSetImag:

; 196  : }

  0001b	e8 00 00 00 00	 call	 ?Py_BadArgument@@YAPAU_object@@XZ ; Py_BadArgument
  00020	8b e5		 mov	 esp, ebp
  00022	5d		 pop	 ebp
  00023	c3		 ret	 0
$LN2@grpSetImag:

; 188  : 		return Py_BadArgument();
; 189  : 
; 190  : 	float Degree;
; 191  : 	if (!PyTuple_GetFloat(poArgs, 1, &Degree))

  00024	8d 45 fc	 lea	 eax, DWORD PTR _Degree$[ebp]
  00027	50		 push	 eax
  00028	6a 01		 push	 1
  0002a	ff 75 0c	 push	 DWORD PTR _poArgs$[ebp]
  0002d	e8 00 00 00 00	 call	 ?PyTuple_GetFloat@@YA_NPAU_object@@HPAM@Z ; PyTuple_GetFloat
  00032	83 c4 0c	 add	 esp, 12			; 0000000cH
  00035	84 c0		 test	 al, al
  00037	74 e2		 je	 SHORT $LN5@grpSetImag

; 192  : 		return Py_BadArgument();
; 193  : 
; 194  : 	pImageInstance->SetRotation(Degree);

  00039	f3 0f 10 45 fc	 movss	 xmm0, DWORD PTR _Degree$[ebp]
  0003e	51		 push	 ecx
  0003f	8b 4d f8	 mov	 ecx, DWORD PTR _pImageInstance$[ebp]
  00042	f3 0f 11 04 24	 movss	 DWORD PTR [esp], xmm0
  00047	e8 00 00 00 00	 call	 ?SetRotation@CGraphicExpandedImageInstance@@QAEXM@Z ; CGraphicExpandedImageInstance::SetRotation

; 195  : 	return Py_BuildNone();

  0004c	e8 00 00 00 00	 call	 ?Py_BuildNone@@YAPAU_object@@XZ ; Py_BuildNone

; 196  : }

  00051	8b e5		 mov	 esp, ebp
  00053	5d		 pop	 ebp
  00054	c3		 ret	 0
?grpSetImageRotation@@YAPAU_object@@PAU1@0@Z ENDP	; grpSetImageRotation
_TEXT	ENDS
; Function compile flags: /Ogtp
; File C:\DS Project\DS Files\Source\ClientSource\Client\eterPythonLib\PythonGraphicImageModule.cpp
;	COMDAT ?grpSetImageOrigin@@YAPAU_object@@PAU1@0@Z
_TEXT	SEGMENT
_pImageInstance$ = -12					; size = 4
_x$ = -8						; size = 4
_y$ = -4						; size = 4
_poSelf$ = 8						; size = 4
_poArgs$ = 12						; size = 4
?grpSetImageOrigin@@YAPAU_object@@PAU1@0@Z PROC		; grpSetImageOrigin, COMDAT

; 168  : {

  00000	55		 push	 ebp
  00001	8b ec		 mov	 ebp, esp
  00003	83 ec 0c	 sub	 esp, 12			; 0000000cH

; 169  : 	CGraphicExpandedImageInstance * pImageInstance;
; 170  : 	if (!PyTuple_GetExpandedImageInstance(poArgs, 0, &pImageInstance))

  00006	8d 45 f4	 lea	 eax, DWORD PTR _pImageInstance$[ebp]
  00009	56		 push	 esi
  0000a	8b 75 0c	 mov	 esi, DWORD PTR _poArgs$[ebp]
  0000d	50		 push	 eax
  0000e	6a 00		 push	 0
  00010	56		 push	 esi
  00011	e8 00 00 00 00	 call	 ?PyTuple_GetExpandedImageInstance@@YA_NPAU_object@@HPAPAVCGraphicExpandedImageInstance@@@Z ; PyTuple_GetExpandedImageInstance
  00016	83 c4 0c	 add	 esp, 12			; 0000000cH
  00019	84 c0		 test	 al, al
  0001b	75 0a		 jne	 SHORT $LN2@grpSetImag
$LN6@grpSetImag:

; 182  : }

  0001d	e8 00 00 00 00	 call	 ?Py_BadArgument@@YAPAU_object@@XZ ; Py_BadArgument
  00022	5e		 pop	 esi
  00023	8b e5		 mov	 esp, ebp
  00025	5d		 pop	 ebp
  00026	c3		 ret	 0
$LN2@grpSetImag:

; 171  : 		return Py_BadArgument();
; 172  : 
; 173  : 	float x;
; 174  : 	if (!PyTuple_GetFloat(poArgs, 1, &x))

  00027	8d 45 f8	 lea	 eax, DWORD PTR _x$[ebp]
  0002a	50		 push	 eax
  0002b	6a 01		 push	 1
  0002d	56		 push	 esi
  0002e	e8 00 00 00 00	 call	 ?PyTuple_GetFloat@@YA_NPAU_object@@HPAM@Z ; PyTuple_GetFloat
  00033	83 c4 0c	 add	 esp, 12			; 0000000cH
  00036	84 c0		 test	 al, al
  00038	74 e3		 je	 SHORT $LN6@grpSetImag

; 175  : 		return Py_BadArgument();
; 176  : 	float y;
; 177  : 	if (!PyTuple_GetFloat(poArgs, 2, &y))

  0003a	8d 45 fc	 lea	 eax, DWORD PTR _y$[ebp]
  0003d	50		 push	 eax
  0003e	6a 02		 push	 2
  00040	56		 push	 esi
  00041	e8 00 00 00 00	 call	 ?PyTuple_GetFloat@@YA_NPAU_object@@HPAM@Z ; PyTuple_GetFloat
  00046	83 c4 0c	 add	 esp, 12			; 0000000cH
  00049	84 c0		 test	 al, al
  0004b	74 d0		 je	 SHORT $LN6@grpSetImag

; 178  : 		return Py_BadArgument();
; 179  : 
; 180  : 	pImageInstance->SetOrigin(x, y);

  0004d	f3 0f 10 45 fc	 movss	 xmm0, DWORD PTR _y$[ebp]
  00052	83 ec 08	 sub	 esp, 8
  00055	8b 4d f4	 mov	 ecx, DWORD PTR _pImageInstance$[ebp]
  00058	f3 0f 11 44 24
	04		 movss	 DWORD PTR [esp+4], xmm0
  0005e	f3 0f 10 45 f8	 movss	 xmm0, DWORD PTR _x$[ebp]
  00063	f3 0f 11 04 24	 movss	 DWORD PTR [esp], xmm0
  00068	e8 00 00 00 00	 call	 ?SetOrigin@CGraphicExpandedImageInstance@@QAEXMM@Z ; CGraphicExpandedImageInstance::SetOrigin

; 181  : 	return Py_BuildNone();

  0006d	e8 00 00 00 00	 call	 ?Py_BuildNone@@YAPAU_object@@XZ ; Py_BuildNone
  00072	5e		 pop	 esi

; 182  : }

  00073	8b e5		 mov	 esp, ebp
  00075	5d		 pop	 ebp
  00076	c3		 ret	 0
?grpSetImageOrigin@@YAPAU_object@@PAU1@0@Z ENDP		; grpSetImageOrigin
_TEXT	ENDS
; Function compile flags: /Ogtp
; File C:\DS Project\DS Files\Source\ClientSource\Client\eterPythonLib\PythonGraphicImageModule.cpp
;	COMDAT ?grpSetImagePosition@@YAPAU_object@@PAU1@0@Z
_TEXT	SEGMENT
_pImageInstance$ = -12					; size = 4
_x$ = -8						; size = 4
_y$ = -4						; size = 4
_poSelf$ = 8						; size = 4
_poArgs$ = 12						; size = 4
?grpSetImagePosition@@YAPAU_object@@PAU1@0@Z PROC	; grpSetImagePosition, COMDAT

; 150  : {

  00000	55		 push	 ebp
  00001	8b ec		 mov	 ebp, esp
  00003	83 ec 0c	 sub	 esp, 12			; 0000000cH

; 151  : 	CGraphicImageInstance* pImageInstance;
; 152  : 	if (!PyTuple_GetImageInstance(poArgs, 0, &pImageInstance))

  00006	8d 45 f4	 lea	 eax, DWORD PTR _pImageInstance$[ebp]
  00009	56		 push	 esi
  0000a	8b 75 0c	 mov	 esi, DWORD PTR _poArgs$[ebp]
  0000d	50		 push	 eax
  0000e	6a 00		 push	 0
  00010	56		 push	 esi
  00011	e8 00 00 00 00	 call	 ?PyTuple_GetImageInstance@@YA_NPAU_object@@HPAPAVCGraphicImageInstance@@@Z ; PyTuple_GetImageInstance
  00016	83 c4 0c	 add	 esp, 12			; 0000000cH
  00019	84 c0		 test	 al, al
  0001b	75 0a		 jne	 SHORT $LN2@grpSetImag
$LN6@grpSetImag:

; 165  : }

  0001d	e8 00 00 00 00	 call	 ?Py_BadArgument@@YAPAU_object@@XZ ; Py_BadArgument
  00022	5e		 pop	 esi
  00023	8b e5		 mov	 esp, ebp
  00025	5d		 pop	 ebp
  00026	c3		 ret	 0
$LN2@grpSetImag:

; 153  : 		return Py_BadArgument();
; 154  : 
; 155  : 	float x;
; 156  : 	if (!PyTuple_GetFloat(poArgs, 1, &x))

  00027	8d 45 f8	 lea	 eax, DWORD PTR _x$[ebp]
  0002a	50		 push	 eax
  0002b	6a 01		 push	 1
  0002d	56		 push	 esi
  0002e	e8 00 00 00 00	 call	 ?PyTuple_GetFloat@@YA_NPAU_object@@HPAM@Z ; PyTuple_GetFloat
  00033	83 c4 0c	 add	 esp, 12			; 0000000cH
  00036	84 c0		 test	 al, al
  00038	74 e3		 je	 SHORT $LN6@grpSetImag

; 157  : 		return Py_BadArgument();
; 158  : 
; 159  : 	float y;
; 160  : 	if (!PyTuple_GetFloat(poArgs, 2, &y))

  0003a	8d 45 fc	 lea	 eax, DWORD PTR _y$[ebp]
  0003d	50		 push	 eax
  0003e	6a 02		 push	 2
  00040	56		 push	 esi
  00041	e8 00 00 00 00	 call	 ?PyTuple_GetFloat@@YA_NPAU_object@@HPAM@Z ; PyTuple_GetFloat
  00046	83 c4 0c	 add	 esp, 12			; 0000000cH
  00049	84 c0		 test	 al, al
  0004b	74 d0		 je	 SHORT $LN6@grpSetImag

; 161  : 		return Py_BadArgument();
; 162  : 
; 163  : 	pImageInstance->SetPosition(x, y);

  0004d	f3 0f 10 45 fc	 movss	 xmm0, DWORD PTR _y$[ebp]
  00052	83 ec 08	 sub	 esp, 8
  00055	8b 4d f4	 mov	 ecx, DWORD PTR _pImageInstance$[ebp]
  00058	f3 0f 11 44 24
	04		 movss	 DWORD PTR [esp+4], xmm0
  0005e	f3 0f 10 45 f8	 movss	 xmm0, DWORD PTR _x$[ebp]
  00063	f3 0f 11 04 24	 movss	 DWORD PTR [esp], xmm0
  00068	e8 00 00 00 00	 call	 ?SetPosition@CGraphicImageInstance@@QAEXMM@Z ; CGraphicImageInstance::SetPosition

; 164  : 	return Py_BuildNone();

  0006d	e8 00 00 00 00	 call	 ?Py_BuildNone@@YAPAU_object@@XZ ; Py_BuildNone
  00072	5e		 pop	 esi

; 165  : }

  00073	8b e5		 mov	 esp, ebp
  00075	5d		 pop	 ebp
  00076	c3		 ret	 0
?grpSetImagePosition@@YAPAU_object@@PAU1@0@Z ENDP	; grpSetImagePosition
_TEXT	ENDS
; Function compile flags: /Ogtp
; File C:\DS Project\DS Files\Source\ClientSource\Client\eterPythonLib\PythonGraphicImageModule.cpp
;	COMDAT ?grpImageRender@@YAPAU_object@@PAU1@0@Z
_TEXT	SEGMENT
_pImageInstance$ = -4					; size = 4
_poSelf$ = 8						; size = 4
_poArgs$ = 12						; size = 4
?grpImageRender@@YAPAU_object@@PAU1@0@Z PROC		; grpImageRender, COMDAT

; 140  : {

  00000	55		 push	 ebp
  00001	8b ec		 mov	 ebp, esp
  00003	51		 push	 ecx

; 141  : 	CGraphicImageInstance* pImageInstance;
; 142  : 	if (!PyTuple_GetImageInstance(poArgs, 0, &pImageInstance))

  00004	8d 45 fc	 lea	 eax, DWORD PTR _pImageInstance$[ebp]
  00007	50		 push	 eax
  00008	6a 00		 push	 0
  0000a	ff 75 0c	 push	 DWORD PTR _poArgs$[ebp]
  0000d	e8 00 00 00 00	 call	 ?PyTuple_GetImageInstance@@YA_NPAU_object@@HPAPAVCGraphicImageInstance@@@Z ; PyTuple_GetImageInstance
  00012	83 c4 0c	 add	 esp, 12			; 0000000cH
  00015	84 c0		 test	 al, al
  00017	75 09		 jne	 SHORT $LN2@grpImageRe

; 143  : 		return Py_BadArgument();

  00019	e8 00 00 00 00	 call	 ?Py_BadArgument@@YAPAU_object@@XZ ; Py_BadArgument

; 147  : }

  0001e	8b e5		 mov	 esp, ebp
  00020	5d		 pop	 ebp
  00021	c3		 ret	 0
$LN2@grpImageRe:

; 144  : 
; 145  : 	pImageInstance->Render();

  00022	8b 4d fc	 mov	 ecx, DWORD PTR _pImageInstance$[ebp]
  00025	e8 00 00 00 00	 call	 ?Render@CGraphicImageInstance@@QAEXXZ ; CGraphicImageInstance::Render

; 146  : 	return Py_BuildNone();

  0002a	e8 00 00 00 00	 call	 ?Py_BuildNone@@YAPAU_object@@XZ ; Py_BuildNone

; 147  : }

  0002f	8b e5		 mov	 esp, ebp
  00031	5d		 pop	 ebp
  00032	c3		 ret	 0
?grpImageRender@@YAPAU_object@@PAU1@0@Z ENDP		; grpImageRender
_TEXT	ENDS
; Function compile flags: /Ogtp
; File C:\DS Project\DS Files\Source\ClientSource\Client\eterPythonLib\PythonGraphicImageModule.cpp
;	COMDAT ?grpImageSetFileName@@YAPAU_object@@PAU1@0@Z
_TEXT	SEGMENT
_pImageInstance$ = -8					; size = 4
_szFileName$ = -4					; size = 4
_poSelf$ = 8						; size = 4
_poArgs$ = 12						; size = 4
?grpImageSetFileName@@YAPAU_object@@PAU1@0@Z PROC	; grpImageSetFileName, COMDAT

; 121  : {

  00000	55		 push	 ebp
  00001	8b ec		 mov	 ebp, esp
  00003	83 ec 08	 sub	 esp, 8

; 122  : 	CGraphicImageInstance * pImageInstance;
; 123  : 	if (!PyTuple_GetImageInstance(poArgs, 0, &pImageInstance))

  00006	8d 45 f8	 lea	 eax, DWORD PTR _pImageInstance$[ebp]
  00009	56		 push	 esi
  0000a	8b 75 0c	 mov	 esi, DWORD PTR _poArgs$[ebp]
  0000d	50		 push	 eax
  0000e	6a 00		 push	 0
  00010	56		 push	 esi
  00011	e8 00 00 00 00	 call	 ?PyTuple_GetImageInstance@@YA_NPAU_object@@HPAPAVCGraphicImageInstance@@@Z ; PyTuple_GetImageInstance
  00016	83 c4 0c	 add	 esp, 12			; 0000000cH
  00019	84 c0		 test	 al, al
  0001b	75 0a		 jne	 SHORT $LN2@grpImageSe
$LN6@grpImageSe:

; 137  : }

  0001d	e8 00 00 00 00	 call	 ?Py_BadArgument@@YAPAU_object@@XZ ; Py_BadArgument
  00022	5e		 pop	 esi
  00023	8b e5		 mov	 esp, ebp
  00025	5d		 pop	 ebp
  00026	c3		 ret	 0
$LN2@grpImageSe:

; 124  : 		return Py_BadArgument();
; 125  : 
; 126  : 	char * szFileName;
; 127  : 	if (!PyTuple_GetString(poArgs, 1, &szFileName))

  00027	8d 45 fc	 lea	 eax, DWORD PTR _szFileName$[ebp]
  0002a	50		 push	 eax
  0002b	6a 01		 push	 1
  0002d	56		 push	 esi
  0002e	e8 00 00 00 00	 call	 ?PyTuple_GetString@@YA_NPAU_object@@HPAPAD@Z ; PyTuple_GetString
  00033	83 c4 0c	 add	 esp, 12			; 0000000cH
  00036	84 c0		 test	 al, al
  00038	74 e3		 je	 SHORT $LN6@grpImageSe

; 128  : 		return Py_BadArgument();
; 129  : 
; 130  : 	CResource * pResource = CResourceManager::Instance().GetResourcePointer(szFileName);

  0003a	ff 75 fc	 push	 DWORD PTR _szFileName$[ebp]
  0003d	8b 0d 00 00 00
	00		 mov	 ecx, DWORD PTR ?ms_singleton@?$CSingleton@VCResourceManager@@@@0PAVCResourceManager@@A ; CSingleton<CResourceManager>::ms_singleton
  00043	e8 00 00 00 00	 call	 ?GetResourcePointer@CResourceManager@@QAEPAVCResource@@PBD@Z ; CResourceManager::GetResourcePointer
  00048	8b f0		 mov	 esi, eax

; 131  : 
; 132  : 	if (!pResource->IsType(CGraphicImage::Type()))

  0004a	e8 00 00 00 00	 call	 ?Type@CGraphicImage@@SAKXZ ; CGraphicImage::Type
  0004f	50		 push	 eax
  00050	8b ce		 mov	 ecx, esi
  00052	e8 00 00 00 00	 call	 ?IsType@CResource@@QAE_NK@Z ; CResource::IsType
  00057	84 c0		 test	 al, al
  00059	75 15		 jne	 SHORT $LN4@grpImageSe

; 133  : 		return Py_BuildException("Resource is not an image (filename: %s)", szFileName);

  0005b	ff 75 fc	 push	 DWORD PTR _szFileName$[ebp]
  0005e	68 00 00 00 00	 push	 OFFSET ??_C@_0CI@BMEPHKIH@Resource?5is?5not?5an?5image?5?$CIfilen@
  00063	e8 00 00 00 00	 call	 ?Py_BuildException@@YAPAU_object@@PBDZZ ; Py_BuildException
  00068	83 c4 08	 add	 esp, 8
  0006b	5e		 pop	 esi

; 137  : }

  0006c	8b e5		 mov	 esp, ebp
  0006e	5d		 pop	 ebp
  0006f	c3		 ret	 0
$LN4@grpImageSe:

; 134  : 
; 135  : 	pImageInstance->SetImagePointer(static_cast<CGraphicImage*>(pResource));

  00070	8b 4d f8	 mov	 ecx, DWORD PTR _pImageInstance$[ebp]
  00073	56		 push	 esi
  00074	e8 00 00 00 00	 call	 ?SetImagePointer@CGraphicImageInstance@@QAEXPAVCGraphicImage@@@Z ; CGraphicImageInstance::SetImagePointer

; 136  : 	return Py_BuildNone();

  00079	e8 00 00 00 00	 call	 ?Py_BuildNone@@YAPAU_object@@XZ ; Py_BuildNone
  0007e	5e		 pop	 esi

; 137  : }

  0007f	8b e5		 mov	 esp, ebp
  00081	5d		 pop	 ebp
  00082	c3		 ret	 0
?grpImageSetFileName@@YAPAU_object@@PAU1@0@Z ENDP	; grpImageSetFileName
_TEXT	ENDS
; Function compile flags: /Ogtp
; File C:\DS Project\DS Files\Source\ClientSource\Client\eterPythonLib\PythonGraphicImageModule.cpp
;	COMDAT ?grpImageDeleteExpanded@@YAPAU_object@@PAU1@0@Z
_TEXT	SEGMENT
_pExpandedImageInstance$ = -4				; size = 4
_poSelf$ = 8						; size = 4
_poArgs$ = 12						; size = 4
?grpImageDeleteExpanded@@YAPAU_object@@PAU1@0@Z PROC	; grpImageDeleteExpanded, COMDAT

; 111  : {

  00000	55		 push	 ebp
  00001	8b ec		 mov	 ebp, esp
  00003	51		 push	 ecx

; 112  : 	CGraphicExpandedImageInstance * pExpandedImageInstance;
; 113  : 	if (!PyTuple_GetExpandedImageInstance(poArgs, 0, &pExpandedImageInstance))

  00004	8d 45 fc	 lea	 eax, DWORD PTR _pExpandedImageInstance$[ebp]
  00007	50		 push	 eax
  00008	6a 00		 push	 0
  0000a	ff 75 0c	 push	 DWORD PTR _poArgs$[ebp]
  0000d	e8 00 00 00 00	 call	 ?PyTuple_GetExpandedImageInstance@@YA_NPAU_object@@HPAPAVCGraphicExpandedImageInstance@@@Z ; PyTuple_GetExpandedImageInstance
  00012	83 c4 0c	 add	 esp, 12			; 0000000cH
  00015	84 c0		 test	 al, al
  00017	75 09		 jne	 SHORT $LN2@grpImageDe

; 114  : 		return Py_BadArgument();

  00019	e8 00 00 00 00	 call	 ?Py_BadArgument@@YAPAU_object@@XZ ; Py_BadArgument

; 118  : }

  0001e	8b e5		 mov	 esp, ebp
  00020	5d		 pop	 ebp
  00021	c3		 ret	 0
$LN2@grpImageDe:

; 115  : 
; 116  : 	CGraphicExpandedImageInstance::Delete(pExpandedImageInstance);

  00022	ff 75 fc	 push	 DWORD PTR _pExpandedImageInstance$[ebp]
  00025	e8 00 00 00 00	 call	 ?Delete@CGraphicExpandedImageInstance@@SAXPAV1@@Z ; CGraphicExpandedImageInstance::Delete
  0002a	83 c4 04	 add	 esp, 4

; 117  : 	return Py_BuildNone();

  0002d	e8 00 00 00 00	 call	 ?Py_BuildNone@@YAPAU_object@@XZ ; Py_BuildNone

; 118  : }

  00032	8b e5		 mov	 esp, ebp
  00034	5d		 pop	 ebp
  00035	c3		 ret	 0
?grpImageDeleteExpanded@@YAPAU_object@@PAU1@0@Z ENDP	; grpImageDeleteExpanded
_TEXT	ENDS
; Function compile flags: /Ogtp
; File C:\DS Project\DS Files\Source\ClientSource\Client\eterPythonLib\PythonGraphicImageModule.cpp
;	COMDAT ?grpImageDelete@@YAPAU_object@@PAU1@0@Z
_TEXT	SEGMENT
_pImageInstance$ = -4					; size = 4
_poSelf$ = 8						; size = 4
_poArgs$ = 12						; size = 4
?grpImageDelete@@YAPAU_object@@PAU1@0@Z PROC		; grpImageDelete, COMDAT

; 96   : {

  00000	55		 push	 ebp
  00001	8b ec		 mov	 ebp, esp
  00003	51		 push	 ecx

; 97   : 	CGraphicImageInstance * pImageInstance;
; 98   : 
; 99   : 	if (!PyTuple_GetImageInstance(poArgs, 0, &pImageInstance))

  00004	8d 45 fc	 lea	 eax, DWORD PTR _pImageInstance$[ebp]
  00007	50		 push	 eax
  00008	6a 00		 push	 0
  0000a	ff 75 0c	 push	 DWORD PTR _poArgs$[ebp]
  0000d	e8 00 00 00 00	 call	 ?PyTuple_GetImageInstance@@YA_NPAU_object@@HPAPAVCGraphicImageInstance@@@Z ; PyTuple_GetImageInstance
  00012	83 c4 0c	 add	 esp, 12			; 0000000cH
  00015	84 c0		 test	 al, al
  00017	75 09		 jne	 SHORT $LN2@grpImageDe

; 100  : 		return Py_BadArgument();

  00019	e8 00 00 00 00	 call	 ?Py_BadArgument@@YAPAU_object@@XZ ; Py_BadArgument

; 106  : 
; 107  : 	return Py_BuildNone();
; 108  : }

  0001e	8b e5		 mov	 esp, ebp
  00020	5d		 pop	 ebp
  00021	c3		 ret	 0
$LN2@grpImageDe:

; 101  : 
; 102  : 	if (!pImageInstance)

  00022	8b 45 fc	 mov	 eax, DWORD PTR _pImageInstance$[ebp]
  00025	85 c0		 test	 eax, eax
  00027	74 09		 je	 SHORT $LN5@grpImageDe

; 103  : 		return Py_BuildNone();
; 104  : 
; 105  : 	CGraphicImageInstance::Delete(pImageInstance);

  00029	50		 push	 eax
  0002a	e8 00 00 00 00	 call	 ?Delete@CGraphicImageInstance@@SAXPAV1@@Z ; CGraphicImageInstance::Delete
  0002f	83 c4 04	 add	 esp, 4
$LN5@grpImageDe:

; 106  : 
; 107  : 	return Py_BuildNone();
; 108  : }

  00032	e8 00 00 00 00	 call	 ?Py_BuildNone@@YAPAU_object@@XZ ; Py_BuildNone
  00037	8b e5		 mov	 esp, ebp
  00039	5d		 pop	 ebp
  0003a	c3		 ret	 0
?grpImageDelete@@YAPAU_object@@PAU1@0@Z ENDP		; grpImageDelete
_TEXT	ENDS
; Function compile flags: /Ogtp
; File C:\DS Project\DS Files\Source\ClientSource\Client\eterPythonLib\PythonGraphicImageModule.cpp
;	COMDAT ?grpImageGenerateFromHandle@@YAPAU_object@@PAU1@0@Z
_TEXT	SEGMENT
_iHandle$ = -4						; size = 4
_poSelf$ = 8						; size = 4
_poArgs$ = 12						; size = 4
?grpImageGenerateFromHandle@@YAPAU_object@@PAU1@0@Z PROC ; grpImageGenerateFromHandle, COMDAT

; 84   : {

  00000	55		 push	 ebp
  00001	8b ec		 mov	 ebp, esp
  00003	51		 push	 ecx

; 85   : 	int iHandle;
; 86   : 	if (!PyTuple_GetInteger(poArgs, 0, &iHandle))

  00004	8d 45 fc	 lea	 eax, DWORD PTR _iHandle$[ebp]
  00007	50		 push	 eax
  00008	6a 00		 push	 0
  0000a	ff 75 0c	 push	 DWORD PTR _poArgs$[ebp]
  0000d	e8 00 00 00 00	 call	 ?PyTuple_GetInteger@@YA_NPAU_object@@HPAH@Z ; PyTuple_GetInteger
  00012	83 c4 0c	 add	 esp, 12			; 0000000cH
  00015	84 c0		 test	 al, al
  00017	75 09		 jne	 SHORT $LN2@grpImageGe

; 87   : 		return Py_BadArgument();

  00019	e8 00 00 00 00	 call	 ?Py_BadArgument@@YAPAU_object@@XZ ; Py_BadArgument

; 93   : }

  0001e	8b e5		 mov	 esp, ebp
  00020	5d		 pop	 ebp
  00021	c3		 ret	 0
$LN2@grpImageGe:
  00022	56		 push	 esi

; 88   : 
; 89   : 	CGraphicImageInstance * pImageInstance = CGraphicImageInstance::New();

  00023	e8 00 00 00 00	 call	 ?New@CGraphicImageInstance@@SAPAV1@XZ ; CGraphicImageInstance::New

; 90   : 	pImageInstance->SetImagePointer((CGraphicImage *)iHandle);

  00028	ff 75 fc	 push	 DWORD PTR _iHandle$[ebp]
  0002b	8b f0		 mov	 esi, eax
  0002d	8b ce		 mov	 ecx, esi
  0002f	e8 00 00 00 00	 call	 ?SetImagePointer@CGraphicImageInstance@@QAEXPAVCGraphicImage@@@Z ; CGraphicImageInstance::SetImagePointer

; 91   : 
; 92   : 	return Py_BuildValue("i", pImageInstance);

  00034	56		 push	 esi
  00035	68 00 00 00 00	 push	 OFFSET ??_C@_01KBJDNOO@i@
  0003a	ff 15 00 00 00
	00		 call	 DWORD PTR __imp__Py_BuildValue
  00040	83 c4 08	 add	 esp, 8
  00043	5e		 pop	 esi

; 93   : }

  00044	8b e5		 mov	 esp, ebp
  00046	5d		 pop	 ebp
  00047	c3		 ret	 0
?grpImageGenerateFromHandle@@YAPAU_object@@PAU1@0@Z ENDP ; grpImageGenerateFromHandle
_TEXT	ENDS
; Function compile flags: /Ogtp
; File C:\DS Project\DS Files\Source\ClientSource\Client\eterPythonLib\PythonGraphicImageModule.cpp
;	COMDAT ?grpImageGenerateExpanded@@YAPAU_object@@PAU1@0@Z
_TEXT	SEGMENT
tv73 = -8						; size = 4
_szFileName$ = -4					; size = 4
_poSelf$ = 8						; size = 4
_poArgs$ = 12						; size = 4
?grpImageGenerateExpanded@@YAPAU_object@@PAU1@0@Z PROC	; grpImageGenerateExpanded, COMDAT

; 60   : {

  00000	55		 push	 ebp
  00001	8b ec		 mov	 ebp, esp
  00003	83 ec 08	 sub	 esp, 8

; 61   : 	char * szFileName;
; 62   : 
; 63   : 	if (!PyTuple_GetString(poArgs, 0, &szFileName))

  00006	8d 45 fc	 lea	 eax, DWORD PTR _szFileName$[ebp]
  00009	50		 push	 eax
  0000a	6a 00		 push	 0
  0000c	ff 75 0c	 push	 DWORD PTR _poArgs$[ebp]
  0000f	e8 00 00 00 00	 call	 ?PyTuple_GetString@@YA_NPAU_object@@HPAPAD@Z ; PyTuple_GetString
  00014	83 c4 0c	 add	 esp, 12			; 0000000cH
  00017	84 c0		 test	 al, al
  00019	75 09		 jne	 SHORT $LN2@grpImageGe

; 64   : 		return Py_BadArgument();

  0001b	e8 00 00 00 00	 call	 ?Py_BadArgument@@YAPAU_object@@XZ ; Py_BadArgument

; 81   : }

  00020	8b e5		 mov	 esp, ebp
  00022	5d		 pop	 ebp
  00023	c3		 ret	 0
$LN2@grpImageGe:

; 65   : 
; 66   : 	if (strlen(szFileName) <= 0)

  00024	8b 55 fc	 mov	 edx, DWORD PTR _szFileName$[ebp]
  00027	8b ca		 mov	 ecx, edx
  00029	56		 push	 esi
  0002a	8d 71 01	 lea	 esi, DWORD PTR [ecx+1]
  0002d	0f 1f 00	 npad	 3
$LL7@grpImageGe:
  00030	8a 01		 mov	 al, BYTE PTR [ecx]
  00032	41		 inc	 ecx
  00033	84 c0		 test	 al, al
  00035	75 f9		 jne	 SHORT $LL7@grpImageGe
  00037	2b ce		 sub	 ecx, esi
  00039	75 14		 jne	 SHORT $LN3@grpImageGe

; 67   : 		return Py_BuildValue("i", 0);

  0003b	51		 push	 ecx
  0003c	68 00 00 00 00	 push	 OFFSET ??_C@_01KBJDNOO@i@
  00041	ff 15 00 00 00
	00		 call	 DWORD PTR __imp__Py_BuildValue
  00047	83 c4 08	 add	 esp, 8
  0004a	5e		 pop	 esi

; 81   : }

  0004b	8b e5		 mov	 esp, ebp
  0004d	5d		 pop	 ebp
  0004e	c3		 ret	 0
$LN3@grpImageGe:

; 68   : 
; 69   : 	CResource* pResource = CResourceManager::Instance().GetResourcePointer(szFileName);

  0004f	8b 0d 00 00 00
	00		 mov	 ecx, DWORD PTR ?ms_singleton@?$CSingleton@VCResourceManager@@@@0PAVCResourceManager@@A ; CSingleton<CResourceManager>::ms_singleton
  00055	57		 push	 edi
  00056	52		 push	 edx
  00057	e8 00 00 00 00	 call	 ?GetResourcePointer@CResourceManager@@QAEPAVCResource@@PBD@Z ; CResourceManager::GetResourcePointer
  0005c	8b f8		 mov	 edi, eax

; 70   : 
; 71   : 	if (!pResource->IsType(CGraphicImage::Type()))

  0005e	e8 00 00 00 00	 call	 ?Type@CGraphicImage@@SAKXZ ; CGraphicImage::Type
  00063	50		 push	 eax
  00064	8b cf		 mov	 ecx, edi
  00066	e8 00 00 00 00	 call	 ?IsType@CResource@@QAE_NK@Z ; CResource::IsType
  0006b	84 c0		 test	 al, al
  0006d	75 16		 jne	 SHORT $LN4@grpImageGe

; 72   : 		return Py_BuildException("Resource is not an image (filename: %s)", szFileName);

  0006f	ff 75 fc	 push	 DWORD PTR _szFileName$[ebp]
  00072	68 00 00 00 00	 push	 OFFSET ??_C@_0CI@BMEPHKIH@Resource?5is?5not?5an?5image?5?$CIfilen@
  00077	e8 00 00 00 00	 call	 ?Py_BuildException@@YAPAU_object@@PBDZZ ; Py_BuildException

; 79   : 
; 80   : 	return Py_BuildValue("i", pImageInstance);

  0007c	83 c4 08	 add	 esp, 8
  0007f	5f		 pop	 edi
  00080	5e		 pop	 esi

; 81   : }

  00081	8b e5		 mov	 esp, ebp
  00083	5d		 pop	 ebp
  00084	c3		 ret	 0
$LN4@grpImageGe:

; 73   : 
; 74   : 	CGraphicExpandedImageInstance * pImageInstance = CGraphicExpandedImageInstance::New();

  00085	e8 00 00 00 00	 call	 ?New@CGraphicExpandedImageInstance@@SAPAV1@XZ ; CGraphicExpandedImageInstance::New
  0008a	8b f0		 mov	 esi, eax

; 75   : 	pImageInstance->SetImagePointer(static_cast<CGraphicImage*>(pResource));

  0008c	57		 push	 edi
  0008d	8b ce		 mov	 ecx, esi
  0008f	e8 00 00 00 00	 call	 ?SetImagePointer@CGraphicImageInstance@@QAEXPAVCGraphicImage@@@Z ; CGraphicImageInstance::SetImagePointer

; 76   : 
; 77   : 	if (pImageInstance->IsEmpty())

  00094	8b ce		 mov	 ecx, esi
  00096	e8 00 00 00 00	 call	 ?IsEmpty@CGraphicImageInstance@@QBE_NXZ ; CGraphicImageInstance::IsEmpty
  0009b	84 c0		 test	 al, al
  0009d	74 16		 je	 SHORT $LN5@grpImageGe

; 78   : 		return Py_BuildException("Cannot load image (filename: %s)", szFileName);

  0009f	ff 75 fc	 push	 DWORD PTR _szFileName$[ebp]
  000a2	68 00 00 00 00	 push	 OFFSET ??_C@_0CB@IGMMKMMH@Cannot?5load?5image?5?$CIfilename?3?5?$CFs@
  000a7	e8 00 00 00 00	 call	 ?Py_BuildException@@YAPAU_object@@PBDZZ ; Py_BuildException

; 79   : 
; 80   : 	return Py_BuildValue("i", pImageInstance);

  000ac	83 c4 08	 add	 esp, 8
  000af	5f		 pop	 edi
  000b0	5e		 pop	 esi

; 81   : }

  000b1	8b e5		 mov	 esp, ebp
  000b3	5d		 pop	 ebp
  000b4	c3		 ret	 0
$LN5@grpImageGe:

; 79   : 
; 80   : 	return Py_BuildValue("i", pImageInstance);

  000b5	56		 push	 esi
  000b6	68 00 00 00 00	 push	 OFFSET ??_C@_01KBJDNOO@i@
  000bb	ff 15 00 00 00
	00		 call	 DWORD PTR __imp__Py_BuildValue
  000c1	83 c4 08	 add	 esp, 8
  000c4	5f		 pop	 edi
  000c5	5e		 pop	 esi

; 81   : }

  000c6	8b e5		 mov	 esp, ebp
  000c8	5d		 pop	 ebp
  000c9	c3		 ret	 0
?grpImageGenerateExpanded@@YAPAU_object@@PAU1@0@Z ENDP	; grpImageGenerateExpanded
_TEXT	ENDS
; Function compile flags: /Ogtp
; File C:\DS Project\DS Files\Source\ClientSource\Client\eterPythonLib\PythonGraphicImageModule.cpp
;	COMDAT ?grpImageGenerate@@YAPAU_object@@PAU1@0@Z
_TEXT	SEGMENT
_szFileName$ = -4					; size = 4
_poSelf$ = 8						; size = 4
_poArgs$ = 12						; size = 4
?grpImageGenerate@@YAPAU_object@@PAU1@0@Z PROC		; grpImageGenerate, COMDAT

; 36   : {

  00000	55		 push	 ebp
  00001	8b ec		 mov	 ebp, esp
  00003	51		 push	 ecx

; 37   : 	char * szFileName;
; 38   : 
; 39   : 	if (!PyTuple_GetString(poArgs, 0, &szFileName))

  00004	8d 45 fc	 lea	 eax, DWORD PTR _szFileName$[ebp]
  00007	50		 push	 eax
  00008	6a 00		 push	 0
  0000a	ff 75 0c	 push	 DWORD PTR _poArgs$[ebp]
  0000d	e8 00 00 00 00	 call	 ?PyTuple_GetString@@YA_NPAU_object@@HPAPAD@Z ; PyTuple_GetString
  00012	83 c4 0c	 add	 esp, 12			; 0000000cH
  00015	84 c0		 test	 al, al
  00017	75 09		 jne	 SHORT $LN2@grpImageGe

; 40   : 		return Py_BadArgument();

  00019	e8 00 00 00 00	 call	 ?Py_BadArgument@@YAPAU_object@@XZ ; Py_BadArgument

; 57   : }

  0001e	8b e5		 mov	 esp, ebp
  00020	5d		 pop	 ebp
  00021	c3		 ret	 0
$LN2@grpImageGe:

; 41   : 
; 42   : 	if (!*szFileName)

  00022	8b 45 fc	 mov	 eax, DWORD PTR _szFileName$[ebp]
  00025	80 38 00	 cmp	 BYTE PTR [eax], 0
  00028	75 14		 jne	 SHORT $LN3@grpImageGe

; 43   : 		return Py_BuildValue("i", 0);

  0002a	6a 00		 push	 0
  0002c	68 00 00 00 00	 push	 OFFSET ??_C@_01KBJDNOO@i@
  00031	ff 15 00 00 00
	00		 call	 DWORD PTR __imp__Py_BuildValue
  00037	83 c4 08	 add	 esp, 8

; 57   : }

  0003a	8b e5		 mov	 esp, ebp
  0003c	5d		 pop	 ebp
  0003d	c3		 ret	 0
$LN3@grpImageGe:

; 44   : 
; 45   : 	CResource * pResource = CResourceManager::Instance().GetResourcePointer(szFileName);

  0003e	8b 0d 00 00 00
	00		 mov	 ecx, DWORD PTR ?ms_singleton@?$CSingleton@VCResourceManager@@@@0PAVCResourceManager@@A ; CSingleton<CResourceManager>::ms_singleton
  00044	57		 push	 edi
  00045	50		 push	 eax
  00046	e8 00 00 00 00	 call	 ?GetResourcePointer@CResourceManager@@QAEPAVCResource@@PBD@Z ; CResourceManager::GetResourcePointer
  0004b	8b f8		 mov	 edi, eax

; 46   : 
; 47   : 	if (!pResource->IsType(CGraphicImage::Type()))

  0004d	e8 00 00 00 00	 call	 ?Type@CGraphicImage@@SAKXZ ; CGraphicImage::Type
  00052	50		 push	 eax
  00053	8b cf		 mov	 ecx, edi
  00055	e8 00 00 00 00	 call	 ?IsType@CResource@@QAE_NK@Z ; CResource::IsType
  0005a	84 c0		 test	 al, al
  0005c	75 15		 jne	 SHORT $LN4@grpImageGe

; 48   : 		return Py_BuildException("Resource is not an image (filename: %s)", szFileName);

  0005e	ff 75 fc	 push	 DWORD PTR _szFileName$[ebp]
  00061	68 00 00 00 00	 push	 OFFSET ??_C@_0CI@BMEPHKIH@Resource?5is?5not?5an?5image?5?$CIfilen@
  00066	e8 00 00 00 00	 call	 ?Py_BuildException@@YAPAU_object@@PBDZZ ; Py_BuildException
  0006b	83 c4 08	 add	 esp, 8
  0006e	5f		 pop	 edi

; 57   : }

  0006f	8b e5		 mov	 esp, ebp
  00071	5d		 pop	 ebp
  00072	c3		 ret	 0
$LN4@grpImageGe:
  00073	56		 push	 esi

; 49   : 
; 50   : 	CGraphicImageInstance * pImageInstance = CGraphicImageInstance::New();

  00074	e8 00 00 00 00	 call	 ?New@CGraphicImageInstance@@SAPAV1@XZ ; CGraphicImageInstance::New
  00079	8b f0		 mov	 esi, eax

; 51   : 	pImageInstance->SetImagePointer(static_cast<CGraphicImage*>(pResource));

  0007b	57		 push	 edi
  0007c	8b ce		 mov	 ecx, esi
  0007e	e8 00 00 00 00	 call	 ?SetImagePointer@CGraphicImageInstance@@QAEXPAVCGraphicImage@@@Z ; CGraphicImageInstance::SetImagePointer

; 52   : 
; 53   : 	if (pImageInstance->IsEmpty())

  00083	8b ce		 mov	 ecx, esi
  00085	e8 00 00 00 00	 call	 ?IsEmpty@CGraphicImageInstance@@QBE_NXZ ; CGraphicImageInstance::IsEmpty
  0008a	84 c0		 test	 al, al
  0008c	74 16		 je	 SHORT $LN5@grpImageGe

; 54   : 		return Py_BuildException("Cannot load image (filename: %s)", szFileName);

  0008e	ff 75 fc	 push	 DWORD PTR _szFileName$[ebp]
  00091	68 00 00 00 00	 push	 OFFSET ??_C@_0CB@IGMMKMMH@Cannot?5load?5image?5?$CIfilename?3?5?$CFs@
  00096	e8 00 00 00 00	 call	 ?Py_BuildException@@YAPAU_object@@PBDZZ ; Py_BuildException

; 55   : 
; 56   : 	return Py_BuildValue("i", pImageInstance);

  0009b	83 c4 08	 add	 esp, 8
  0009e	5e		 pop	 esi
  0009f	5f		 pop	 edi

; 57   : }

  000a0	8b e5		 mov	 esp, ebp
  000a2	5d		 pop	 ebp
  000a3	c3		 ret	 0
$LN5@grpImageGe:

; 55   : 
; 56   : 	return Py_BuildValue("i", pImageInstance);

  000a4	56		 push	 esi
  000a5	68 00 00 00 00	 push	 OFFSET ??_C@_01KBJDNOO@i@
  000aa	ff 15 00 00 00
	00		 call	 DWORD PTR __imp__Py_BuildValue
  000b0	83 c4 08	 add	 esp, 8
  000b3	5e		 pop	 esi
  000b4	5f		 pop	 edi

; 57   : }

  000b5	8b e5		 mov	 esp, ebp
  000b7	5d		 pop	 ebp
  000b8	c3		 ret	 0
?grpImageGenerate@@YAPAU_object@@PAU1@0@Z ENDP		; grpImageGenerate
_TEXT	ENDS
; Function compile flags: /Ogtp
; File C:\DS Project\DS Files\Source\ClientSource\Client\eterPythonLib\PythonGraphicImageModule.cpp
;	COMDAT ?PyTuple_GetExpandedImageInstance@@YA_NPAU_object@@HPAPAVCGraphicExpandedImageInstance@@@Z
_TEXT	SEGMENT
_handle$ = -4						; size = 4
_poArgs$ = 8						; size = 4
_pos$ = 12						; size = 4
_ppRetImageInstance$ = 16				; size = 4
?PyTuple_GetExpandedImageInstance@@YA_NPAU_object@@HPAPAVCGraphicExpandedImageInstance@@@Z PROC ; PyTuple_GetExpandedImageInstance, COMDAT

; 18   : {

  00000	55		 push	 ebp
  00001	8b ec		 mov	 ebp, esp
  00003	51		 push	 ecx

; 19   : 	int handle;
; 20   : 
; 21   : 	if (!PyTuple_GetInteger(poArgs, pos, &handle))

  00004	8d 45 fc	 lea	 eax, DWORD PTR _handle$[ebp]
  00007	50		 push	 eax
  00008	ff 75 0c	 push	 DWORD PTR _pos$[ebp]
  0000b	ff 75 08	 push	 DWORD PTR _poArgs$[ebp]
  0000e	e8 00 00 00 00	 call	 ?PyTuple_GetInteger@@YA_NPAU_object@@HPAH@Z ; PyTuple_GetInteger
  00013	83 c4 0c	 add	 esp, 12			; 0000000cH
  00016	84 c0		 test	 al, al
  00018	74 26		 je	 SHORT $LN6@PyTuple_Ge

; 22   : 		return false;
; 23   : 
; 24   : 	if (!handle)

  0001a	83 7d fc 00	 cmp	 DWORD PTR _handle$[ebp], 0
  0001e	74 20		 je	 SHORT $LN6@PyTuple_Ge

; 25   : 		return false;
; 26   : 
; 27   : 	if (!((CGraphicImageInstance*)handle)->IsType(CGraphicExpandedImageInstance::Type()))

  00020	e8 00 00 00 00	 call	 ?Type@CGraphicExpandedImageInstance@@SAKXZ ; CGraphicExpandedImageInstance::Type
  00025	8b 4d fc	 mov	 ecx, DWORD PTR _handle$[ebp]
  00028	50		 push	 eax
  00029	e8 00 00 00 00	 call	 ?IsType@CGraphicImageInstance@@QAEHK@Z ; CGraphicImageInstance::IsType
  0002e	85 c0		 test	 eax, eax
  00030	74 0e		 je	 SHORT $LN6@PyTuple_Ge

; 29   : 
; 30   : 	*ppRetImageInstance = (CGraphicExpandedImageInstance*)handle;

  00032	8b 4d 10	 mov	 ecx, DWORD PTR _ppRetImageInstance$[ebp]
  00035	8b 45 fc	 mov	 eax, DWORD PTR _handle$[ebp]
  00038	89 01		 mov	 DWORD PTR [ecx], eax

; 31   : 
; 32   : 	return true;

  0003a	b0 01		 mov	 al, 1

; 33   : }

  0003c	8b e5		 mov	 esp, ebp
  0003e	5d		 pop	 ebp
  0003f	c3		 ret	 0
$LN6@PyTuple_Ge:

; 28   : 		return false;

  00040	32 c0		 xor	 al, al

; 33   : }

  00042	8b e5		 mov	 esp, ebp
  00044	5d		 pop	 ebp
  00045	c3		 ret	 0
?PyTuple_GetExpandedImageInstance@@YA_NPAU_object@@HPAPAVCGraphicExpandedImageInstance@@@Z ENDP ; PyTuple_GetExpandedImageInstance
_TEXT	ENDS
; Function compile flags: /Ogtp
; File C:\DS Project\DS Files\Source\ClientSource\Client\eterPythonLib\PythonGraphicImageModule.cpp
;	COMDAT ?PyTuple_GetImageInstance@@YA_NPAU_object@@HPAPAVCGraphicImageInstance@@@Z
_TEXT	SEGMENT
_handle$ = -4						; size = 4
_poArgs$ = 8						; size = 4
_pos$ = 12						; size = 4
_ppRetImageInstance$ = 16				; size = 4
?PyTuple_GetImageInstance@@YA_NPAU_object@@HPAPAVCGraphicImageInstance@@@Z PROC ; PyTuple_GetImageInstance, COMDAT

; 4    : {

  00000	55		 push	 ebp
  00001	8b ec		 mov	 ebp, esp
  00003	51		 push	 ecx

; 5    : 	int handle;
; 6    : 
; 7    : 	if (!PyTuple_GetInteger(poArgs, pos, &handle))

  00004	8d 45 fc	 lea	 eax, DWORD PTR _handle$[ebp]
  00007	50		 push	 eax
  00008	ff 75 0c	 push	 DWORD PTR _pos$[ebp]
  0000b	ff 75 08	 push	 DWORD PTR _poArgs$[ebp]
  0000e	e8 00 00 00 00	 call	 ?PyTuple_GetInteger@@YA_NPAU_object@@HPAH@Z ; PyTuple_GetInteger
  00013	83 c4 0c	 add	 esp, 12			; 0000000cH
  00016	84 c0		 test	 al, al
  00018	74 12		 je	 SHORT $LN5@PyTuple_Ge

; 8    : 		return false;
; 9    : 
; 10   : 	if (!handle)

  0001a	8b 4d fc	 mov	 ecx, DWORD PTR _handle$[ebp]
  0001d	85 c9		 test	 ecx, ecx
  0001f	74 0b		 je	 SHORT $LN5@PyTuple_Ge

; 12   : 
; 13   : 	*ppRetImageInstance = (CGraphicImageInstance*)handle;

  00021	8b 45 10	 mov	 eax, DWORD PTR _ppRetImageInstance$[ebp]
  00024	89 08		 mov	 DWORD PTR [eax], ecx

; 14   : 	return true;

  00026	b0 01		 mov	 al, 1

; 15   : }

  00028	8b e5		 mov	 esp, ebp
  0002a	5d		 pop	 ebp
  0002b	c3		 ret	 0
$LN5@PyTuple_Ge:

; 11   : 		return false;

  0002c	32 c0		 xor	 al, al

; 15   : }

  0002e	8b e5		 mov	 esp, ebp
  00030	5d		 pop	 ebp
  00031	c3		 ret	 0
?PyTuple_GetImageInstance@@YA_NPAU_object@@HPAPAVCGraphicImageInstance@@@Z ENDP ; PyTuple_GetImageInstance
_TEXT	ENDS
; Function compile flags: /Ogtp
; File C:\DS Project\DS Files\Source\ClientSource\Client\eterPythonLib\PythonGraphicImageModule.cpp
;	COMDAT ?initgrpImage@@YAXXZ
_TEXT	SEGMENT
?initgrpImage@@YAXXZ PROC				; initgrpImage, COMDAT

; 289  : 	static PyMethodDef s_methods[] =
; 290  : 	{
; 291  : 		{ "Render",					grpImageRender,					METH_VARARGS },
; 292  : 		{ "SetPosition",			grpSetImagePosition,			METH_VARARGS },
; 293  : 		{ "Generate",				grpImageGenerate,				METH_VARARGS },
; 294  : 		{ "GenerateExpanded",		grpImageGenerateExpanded,		METH_VARARGS },
; 295  : 		{ "GenerateFromHandle",		grpImageGenerateFromHandle,		METH_VARARGS },
; 296  : 		{ "Delete",					grpImageDelete,					METH_VARARGS },
; 297  : 		{ "DeleteExpanded",			grpImageDeleteExpanded,			METH_VARARGS },
; 298  : 		{ "SetFileName",			grpImageSetFileName,			METH_VARARGS },
; 299  : 		{ "SetOrigin",				grpSetImageOrigin,				METH_VARARGS },
; 300  : 		{ "SetRotation",			grpSetImageRotation,			METH_VARARGS },
; 301  : 		{ "SetScale",				grpSetImageScale,				METH_VARARGS },
; 302  : 		{ "SetRenderingRect",		grpSetRenderingRect,			METH_VARARGS },
; 303  : 		{ "SetDiffuseColor",		grpSetImageDiffuseColor,		METH_VARARGS },
; 304  : 		{ "GetWidth",				grpGetWidth,					METH_VARARGS },
; 305  : 		{ "GetHeight",				grpGetHeight,					METH_VARARGS },
; 306  : 		{ NULL,						NULL,							NULL		 },
; 307  : 	};
; 308  : 
; 309  : 	Py_InitModule("grpImage", s_methods);

  00000	68 f5 03 00 00	 push	 1013			; 000003f5H
  00005	6a 00		 push	 0
  00007	6a 00		 push	 0
  00009	68 00 00 00 00	 push	 OFFSET ?s_methods@?1??initgrpImage@@YAXXZ@4PAUPyMethodDef@@A
  0000e	68 00 00 00 00	 push	 OFFSET ??_C@_08LMJEHLID@grpImage@
  00013	ff 15 00 00 00
	00		 call	 DWORD PTR __imp__Py_InitModule4
  00019	83 c4 14	 add	 esp, 20			; 00000014H

; 310  : }

  0001c	c3		 ret	 0
?initgrpImage@@YAXXZ ENDP				; initgrpImage
_TEXT	ENDS
END
