; Listing generated by Microsoft (R) Optimizing Compiler Version 19.27.29112.0 

	TITLE	C:\DS Project\DS Files\Source\ClientSource\Client\EffectLib\EffectMesh.cpp
	.686P
	.XMM
	include listing.inc
	.model	flat

INCLUDELIB LIBCMT
INCLUDELIB OLDNAMES

PUBLIC	??_7?$CDynamicPool@USEffectMeshData@CEffectMesh@@@@6B@ ; CDynamicPool<CEffectMesh::SEffectMeshData>::`vftable'
PUBLIC	??_G?$CDynamicPool@USEffectMeshData@CEffectMesh@@@@UAEPAXI@Z ; CDynamicPool<CEffectMesh::SEffectMeshData>::`scalar deleting destructor'
PUBLIC	??_R4?$CDynamicPool@USEffectMeshData@CEffectMesh@@@@6B@ ; CDynamicPool<CEffectMesh::SEffectMeshData>::`RTTI Complete Object Locator'
PUBLIC	??_R0?AV?$CDynamicPool@USEffectMeshData@CEffectMesh@@@@@8 ; CDynamicPool<CEffectMesh::SEffectMeshData> `RTTI Type Descriptor'
PUBLIC	??_R3?$CDynamicPool@USEffectMeshData@CEffectMesh@@@@8 ; CDynamicPool<CEffectMesh::SEffectMeshData>::`RTTI Class Hierarchy Descriptor'
PUBLIC	??_R2?$CDynamicPool@USEffectMeshData@CEffectMesh@@@@8 ; CDynamicPool<CEffectMesh::SEffectMeshData>::`RTTI Base Class Array'
PUBLIC	??_R1A@?0A@EA@?$CDynamicPool@USEffectMeshData@CEffectMesh@@@@8 ; CDynamicPool<CEffectMesh::SEffectMeshData>::`RTTI Base Class Descriptor at (0,-1,0,64)'
PUBLIC	??_R4?$CDynamicPool@VCEffectMeshScript@@@@6B@	; CDynamicPool<CEffectMeshScript>::`RTTI Complete Object Locator'
PUBLIC	??_R0?AV?$CDynamicPool@VCEffectMeshScript@@@@@8	; CDynamicPool<CEffectMeshScript> `RTTI Type Descriptor'
PUBLIC	??_R3?$CDynamicPool@VCEffectMeshScript@@@@8	; CDynamicPool<CEffectMeshScript>::`RTTI Class Hierarchy Descriptor'
PUBLIC	??_R2?$CDynamicPool@VCEffectMeshScript@@@@8	; CDynamicPool<CEffectMeshScript>::`RTTI Base Class Array'
PUBLIC	??_R1A@?0A@EA@?$CDynamicPool@VCEffectMeshScript@@@@8 ; CDynamicPool<CEffectMeshScript>::`RTTI Base Class Descriptor at (0,-1,0,64)'
PUBLIC	??_7?$CDynamicPool@VCEffectMeshScript@@@@6B@	; CDynamicPool<CEffectMeshScript>::`vftable'
PUBLIC	??_G?$CDynamicPool@VCEffectMeshScript@@@@UAEPAXI@Z ; CDynamicPool<CEffectMeshScript>::`scalar deleting destructor'
EXTRN	??_7type_info@@6B@:QWORD			; type_info::`vftable'
EXTRN	??_E?$CDynamicPool@USEffectMeshData@CEffectMesh@@@@UAEPAXI@Z:PROC ; CDynamicPool<CEffectMesh::SEffectMeshData>::`vector deleting destructor'
EXTRN	??_E?$CDynamicPool@VCEffectMeshScript@@@@UAEPAXI@Z:PROC ; CDynamicPool<CEffectMeshScript>::`vector deleting destructor'
;	COMDAT ??_7?$CDynamicPool@VCEffectMeshScript@@@@6B@
CONST	SEGMENT
??_7?$CDynamicPool@VCEffectMeshScript@@@@6B@ DD FLAT:??_R4?$CDynamicPool@VCEffectMeshScript@@@@6B@ ; CDynamicPool<CEffectMeshScript>::`vftable'
	DD	FLAT:??_E?$CDynamicPool@VCEffectMeshScript@@@@UAEPAXI@Z
CONST	ENDS
;	COMDAT ??_R1A@?0A@EA@?$CDynamicPool@VCEffectMeshScript@@@@8
rdata$r	SEGMENT
??_R1A@?0A@EA@?$CDynamicPool@VCEffectMeshScript@@@@8 DD FLAT:??_R0?AV?$CDynamicPool@VCEffectMeshScript@@@@@8 ; CDynamicPool<CEffectMeshScript>::`RTTI Base Class Descriptor at (0,-1,0,64)'
	DD	00H
	DD	00H
	DD	0ffffffffH
	DD	00H
	DD	040H
	DD	FLAT:??_R3?$CDynamicPool@VCEffectMeshScript@@@@8
rdata$r	ENDS
;	COMDAT ??_R2?$CDynamicPool@VCEffectMeshScript@@@@8
rdata$r	SEGMENT
??_R2?$CDynamicPool@VCEffectMeshScript@@@@8 DD FLAT:??_R1A@?0A@EA@?$CDynamicPool@VCEffectMeshScript@@@@8 ; CDynamicPool<CEffectMeshScript>::`RTTI Base Class Array'
rdata$r	ENDS
;	COMDAT ??_R3?$CDynamicPool@VCEffectMeshScript@@@@8
rdata$r	SEGMENT
??_R3?$CDynamicPool@VCEffectMeshScript@@@@8 DD 00H	; CDynamicPool<CEffectMeshScript>::`RTTI Class Hierarchy Descriptor'
	DD	00H
	DD	01H
	DD	FLAT:??_R2?$CDynamicPool@VCEffectMeshScript@@@@8
rdata$r	ENDS
;	COMDAT ??_R0?AV?$CDynamicPool@VCEffectMeshScript@@@@@8
data$r	SEGMENT
??_R0?AV?$CDynamicPool@VCEffectMeshScript@@@@@8 DD FLAT:??_7type_info@@6B@ ; CDynamicPool<CEffectMeshScript> `RTTI Type Descriptor'
	DD	00H
	DB	'.?AV?$CDynamicPool@VCEffectMeshScript@@@@', 00H
data$r	ENDS
;	COMDAT ??_R4?$CDynamicPool@VCEffectMeshScript@@@@6B@
rdata$r	SEGMENT
??_R4?$CDynamicPool@VCEffectMeshScript@@@@6B@ DD 00H	; CDynamicPool<CEffectMeshScript>::`RTTI Complete Object Locator'
	DD	00H
	DD	00H
	DD	FLAT:??_R0?AV?$CDynamicPool@VCEffectMeshScript@@@@@8
	DD	FLAT:??_R3?$CDynamicPool@VCEffectMeshScript@@@@8
rdata$r	ENDS
;	COMDAT ??_R1A@?0A@EA@?$CDynamicPool@USEffectMeshData@CEffectMesh@@@@8
rdata$r	SEGMENT
??_R1A@?0A@EA@?$CDynamicPool@USEffectMeshData@CEffectMesh@@@@8 DD FLAT:??_R0?AV?$CDynamicPool@USEffectMeshData@CEffectMesh@@@@@8 ; CDynamicPool<CEffectMesh::SEffectMeshData>::`RTTI Base Class Descriptor at (0,-1,0,64)'
	DD	00H
	DD	00H
	DD	0ffffffffH
	DD	00H
	DD	040H
	DD	FLAT:??_R3?$CDynamicPool@USEffectMeshData@CEffectMesh@@@@8
rdata$r	ENDS
;	COMDAT ??_R2?$CDynamicPool@USEffectMeshData@CEffectMesh@@@@8
rdata$r	SEGMENT
??_R2?$CDynamicPool@USEffectMeshData@CEffectMesh@@@@8 DD FLAT:??_R1A@?0A@EA@?$CDynamicPool@USEffectMeshData@CEffectMesh@@@@8 ; CDynamicPool<CEffectMesh::SEffectMeshData>::`RTTI Base Class Array'
rdata$r	ENDS
;	COMDAT ??_R3?$CDynamicPool@USEffectMeshData@CEffectMesh@@@@8
rdata$r	SEGMENT
??_R3?$CDynamicPool@USEffectMeshData@CEffectMesh@@@@8 DD 00H ; CDynamicPool<CEffectMesh::SEffectMeshData>::`RTTI Class Hierarchy Descriptor'
	DD	00H
	DD	01H
	DD	FLAT:??_R2?$CDynamicPool@USEffectMeshData@CEffectMesh@@@@8
rdata$r	ENDS
;	COMDAT ??_R0?AV?$CDynamicPool@USEffectMeshData@CEffectMesh@@@@@8
data$r	SEGMENT
??_R0?AV?$CDynamicPool@USEffectMeshData@CEffectMesh@@@@@8 DD FLAT:??_7type_info@@6B@ ; CDynamicPool<CEffectMesh::SEffectMeshData> `RTTI Type Descriptor'
	DD	00H
	DB	'.?AV?$CDynamicPool@USEffectMeshData@CEffectMesh@@@@', 00H
data$r	ENDS
;	COMDAT ??_R4?$CDynamicPool@USEffectMeshData@CEffectMesh@@@@6B@
rdata$r	SEGMENT
??_R4?$CDynamicPool@USEffectMeshData@CEffectMesh@@@@6B@ DD 00H ; CDynamicPool<CEffectMesh::SEffectMeshData>::`RTTI Complete Object Locator'
	DD	00H
	DD	00H
	DD	FLAT:??_R0?AV?$CDynamicPool@USEffectMeshData@CEffectMesh@@@@@8
	DD	FLAT:??_R3?$CDynamicPool@USEffectMeshData@CEffectMesh@@@@8
rdata$r	ENDS
;	COMDAT ??_7?$CDynamicPool@USEffectMeshData@CEffectMesh@@@@6B@
CONST	SEGMENT
??_7?$CDynamicPool@USEffectMeshData@CEffectMesh@@@@6B@ DD FLAT:??_R4?$CDynamicPool@USEffectMeshData@CEffectMesh@@@@6B@ ; CDynamicPool<CEffectMesh::SEffectMeshData>::`vftable'
	DD	FLAT:??_E?$CDynamicPool@USEffectMeshData@CEffectMesh@@@@UAEPAXI@Z
CONST	ENDS
PUBLIC	??_H@YGXPAXIIP6EPAX0@Z@Z			; `vector constructor iterator'
PUBLIC	??0exception@std@@QAE@ABV01@@Z			; std::exception::exception
PUBLIC	??1exception@std@@UAE@XZ			; std::exception::~exception
PUBLIC	?what@exception@std@@UBEPBDXZ			; std::exception::what
PUBLIC	??_Gexception@std@@UAEPAXI@Z			; std::exception::`scalar deleting destructor'
PUBLIC	??0bad_alloc@std@@QAE@ABV01@@Z			; std::bad_alloc::bad_alloc
PUBLIC	??_Gbad_alloc@std@@UAEPAXI@Z			; std::bad_alloc::`scalar deleting destructor'
PUBLIC	??0bad_array_new_length@std@@QAE@XZ		; std::bad_array_new_length::bad_array_new_length
PUBLIC	??1bad_array_new_length@std@@UAE@XZ		; std::bad_array_new_length::~bad_array_new_length
PUBLIC	??0bad_array_new_length@std@@QAE@ABV01@@Z	; std::bad_array_new_length::bad_array_new_length
PUBLIC	??_Gbad_array_new_length@std@@UAEPAXI@Z		; std::bad_array_new_length::`scalar deleting destructor'
PUBLIC	?_Throw_bad_array_new_length@std@@YAXXZ		; std::_Throw_bad_array_new_length
PUBLIC	?_Xlen_string@std@@YAXXZ			; std::_Xlen_string
PUBLIC	??1?$basic_string@DU?$char_traits@D@std@@V?$allocator@D@2@@std@@QAE@XZ ; std::basic_string<char,std::char_traits<char>,std::allocator<char> >::~basic_string<char,std::char_traits<char>,std::allocator<char> >
PUBLIC	?assign@?$basic_string@DU?$char_traits@D@std@@V?$allocator@D@2@@std@@QAEAAV12@QBDI@Z ; std::basic_string<char,std::char_traits<char>,std::allocator<char> >::assign
PUBLIC	??1?$vector@V?$basic_string@DU?$char_traits@D@std@@V?$allocator@D@2@@std@@V?$allocator@V?$basic_string@DU?$char_traits@D@std@@V?$allocator@D@2@@std@@@2@@std@@QAE@XZ ; std::vector<std::basic_string<char,std::char_traits<char>,std::allocator<char> >,std::allocator<std::basic_string<char,std::char_traits<char>,std::allocator<char> > > >::~vector<std::basic_string<char,std::char_traits<char>,std::allocator<char> >,std::allocator<std::basic_string<char,std::char_traits<char>,std::allocator<char> > > >
PUBLIC	??1CGotoChild@CTextFileLoader@@QAE@XZ		; CTextFileLoader::CGotoChild::~CGotoChild
PUBLIC	??$_Destroy_in_place@PAD@std@@YAXAAPAD@Z	; std::_Destroy_in_place<char *>
PUBLIC	??$_Pocca@V?$allocator@D@std@@@std@@YAXAAV?$allocator@D@0@ABV10@@Z ; std::_Pocca<std::allocator<char> >
PUBLIC	??$_Construct_in_place@PADABQAD@std@@YAXAAPADABQAD@Z ; std::_Construct_in_place<char *,char * const &>
PUBLIC	??$_Pocma@V?$allocator@D@std@@@std@@YAXAAV?$allocator@D@0@0@Z ; std::_Pocma<std::allocator<char> >
PUBLIC	??$_Deallocate@$07$0A@@std@@YAXPAXI@Z		; std::_Deallocate<8,0>
PUBLIC	??$_Allocate@$07U_Default_allocate_traits@std@@$0A@@std@@YAPAXI@Z ; std::_Allocate<8,std::_Default_allocate_traits,0>
PUBLIC	??$_Allocate_manually_vector_aligned@U_Default_allocate_traits@std@@@std@@YAPAXI@Z ; std::_Allocate_manually_vector_aligned<std::_Default_allocate_traits>
PUBLIC	?_Xlength@?$vector@USPTVertex@@V?$allocator@USPTVertex@@@std@@@std@@CAXXZ ; std::vector<SPTVertex,std::allocator<SPTVertex> >::_Xlength
PUBLIC	?_Xlength@?$vector@USEffectFrameData@CEffectMesh@@V?$allocator@USEffectFrameData@CEffectMesh@@@std@@@std@@CAXXZ ; std::vector<CEffectMesh::SEffectFrameData,std::allocator<CEffectMesh::SEffectFrameData> >::_Xlength
PUBLIC	?_Xlength@?$vector@PAVCGraphicImage@@V?$allocator@PAVCGraphicImage@@@std@@@std@@CAXXZ ; std::vector<CGraphicImage *,std::allocator<CGraphicImage *> >::_Xlength
PUBLIC	?New@SEffectMeshData@CEffectMesh@@SAPAU12@XZ	; CEffectMesh::SEffectMeshData::New
PUBLIC	?Delete@SEffectMeshData@CEffectMesh@@SAXPAU12@@Z ; CEffectMesh::SEffectMeshData::Delete
PUBLIC	?DestroySystem@SEffectMeshData@CEffectMesh@@SAXXZ ; CEffectMesh::SEffectMeshData::DestroySystem
PUBLIC	?Type@CEffectMesh@@SAKXZ			; CEffectMesh::Type
PUBLIC	??0CEffectMesh@@QAE@PBD@Z			; CEffectMesh::CEffectMesh
PUBLIC	??1CEffectMesh@@UAE@XZ				; CEffectMesh::~CEffectMesh
PUBLIC	?GetFrameCount@CEffectMesh@@QAEKXZ		; CEffectMesh::GetFrameCount
PUBLIC	?GetMeshCount@CEffectMesh@@QAEKXZ		; CEffectMesh::GetMeshCount
PUBLIC	?GetMeshDataPointer@CEffectMesh@@QAEPAUSEffectMeshData@1@K@Z ; CEffectMesh::GetMeshDataPointer
PUBLIC	?GetTextureVectorPointer@CEffectMesh@@QAEPAV?$vector@PAVCGraphicImage@@V?$allocator@PAVCGraphicImage@@@std@@@std@@K@Z ; CEffectMesh::GetTextureVectorPointer
PUBLIC	?GetTextureVectorReference@CEffectMesh@@QAEAAV?$vector@PAVCGraphicImage@@V?$allocator@PAVCGraphicImage@@@std@@@std@@K@Z ; CEffectMesh::GetTextureVectorReference
PUBLIC	?GetMeshElementPointer@CEffectMesh@@QAEHKPAPAUSEffectMeshData@1@@Z ; CEffectMesh::GetMeshElementPointer
PUBLIC	?OnLoad@CEffectMesh@@MAE_NHPBX@Z		; CEffectMesh::OnLoad
PUBLIC	?OnClear@CEffectMesh@@MAEXXZ			; CEffectMesh::OnClear
PUBLIC	?OnIsEmpty@CEffectMesh@@MBE_NXZ			; CEffectMesh::OnIsEmpty
PUBLIC	?OnIsType@CEffectMesh@@MAE_NK@Z			; CEffectMesh::OnIsType
PUBLIC	?__LoadData_Ver001@CEffectMesh@@IAEHHPBE@Z	; CEffectMesh::__LoadData_Ver001
PUBLIC	?__LoadData_Ver002@CEffectMesh@@IAEHHPBE@Z	; CEffectMesh::__LoadData_Ver002
PUBLIC	?_Xlength@?$vector@PAUSEffectMeshData@CEffectMesh@@V?$allocator@PAUSEffectMeshData@CEffectMesh@@@std@@@std@@CAXXZ ; std::vector<CEffectMesh::SEffectMeshData *,std::allocator<CEffectMesh::SEffectMeshData *> >::_Xlength
PUBLIC	??_GCEffectMesh@@UAEPAXI@Z			; CEffectMesh::`scalar deleting destructor'
PUBLIC	??0CEffectMeshScript@@QAE@XZ			; CEffectMeshScript::CEffectMeshScript
PUBLIC	??1CEffectMeshScript@@UAE@XZ			; CEffectMeshScript::~CEffectMeshScript
PUBLIC	?GetMeshFileName@CEffectMeshScript@@QAEPBDXZ	; CEffectMeshScript::GetMeshFileName
PUBLIC	?ReserveMeshData@CEffectMeshScript@@QAEXK@Z	; CEffectMeshScript::ReserveMeshData
PUBLIC	?CheckMeshIndex@CEffectMeshScript@@QAE_NK@Z	; CEffectMeshScript::CheckMeshIndex
PUBLIC	?GetMeshDataPointer@CEffectMeshScript@@QAE_NKPAPAUSMeshData@1@@Z ; CEffectMeshScript::GetMeshDataPointer
PUBLIC	?GetMeshDataCount@CEffectMeshScript@@QAEHXZ	; CEffectMeshScript::GetMeshDataCount
PUBLIC	?GetBillboardType@CEffectMeshScript@@QAEHK@Z	; CEffectMeshScript::GetBillboardType
PUBLIC	?isBlendingEnable@CEffectMeshScript@@QAEHK@Z	; CEffectMeshScript::isBlendingEnable
PUBLIC	?GetBlendingSrcType@CEffectMeshScript@@QAEEK@Z	; CEffectMeshScript::GetBlendingSrcType
PUBLIC	?GetBlendingDestType@CEffectMeshScript@@QAEEK@Z	; CEffectMeshScript::GetBlendingDestType
PUBLIC	?isTextureAlphaEnable@CEffectMeshScript@@QAEHK@Z ; CEffectMeshScript::isTextureAlphaEnable
PUBLIC	?GetColorOperationType@CEffectMeshScript@@QAEHKPAE@Z ; CEffectMeshScript::GetColorOperationType
PUBLIC	?GetColorFactor@CEffectMeshScript@@QAEHKPAUD3DXCOLOR@@@Z ; CEffectMeshScript::GetColorFactor
PUBLIC	?GetTimeTableAlphaPointer@CEffectMeshScript@@QAEHKPAPAV?$vector@V?$CTimeEvent@M@@V?$allocator@V?$CTimeEvent@M@@@std@@@std@@@Z ; CEffectMeshScript::GetTimeTableAlphaPointer
PUBLIC	?isMeshAnimationLoop@CEffectMeshScript@@QAEHXZ	; CEffectMeshScript::isMeshAnimationLoop
PUBLIC	?GetMeshAnimationLoopCount@CEffectMeshScript@@QAEHXZ ; CEffectMeshScript::GetMeshAnimationLoopCount
PUBLIC	?GetMeshAnimationFrameDelay@CEffectMeshScript@@QAEMXZ ; CEffectMeshScript::GetMeshAnimationFrameDelay
PUBLIC	?isTextureAnimationLoop@CEffectMeshScript@@QAEHK@Z ; CEffectMeshScript::isTextureAnimationLoop
PUBLIC	?GetTextureAnimationFrameDelay@CEffectMeshScript@@QAEMK@Z ; CEffectMeshScript::GetTextureAnimationFrameDelay
PUBLIC	?GetTextureAnimationStartFrame@CEffectMeshScript@@QAEKK@Z ; CEffectMeshScript::GetTextureAnimationStartFrame
PUBLIC	?OnClear@CEffectMeshScript@@MAEXXZ		; CEffectMeshScript::OnClear
PUBLIC	?OnIsData@CEffectMeshScript@@MAE_NXZ		; CEffectMeshScript::OnIsData
PUBLIC	?OnLoadScript@CEffectMeshScript@@MAEHAAVCTextFileLoader@@@Z ; CEffectMeshScript::OnLoadScript
PUBLIC	??1?$vector@USMeshData@CEffectMeshScript@@V?$allocator@USMeshData@CEffectMeshScript@@@std@@@std@@QAE@XZ ; std::vector<CEffectMeshScript::SMeshData,std::allocator<CEffectMeshScript::SMeshData> >::~vector<CEffectMeshScript::SMeshData,std::allocator<CEffectMeshScript::SMeshData> >
PUBLIC	?resize@?$vector@USMeshData@CEffectMeshScript@@V?$allocator@USMeshData@CEffectMeshScript@@@std@@@std@@QAEXI@Z ; std::vector<CEffectMeshScript::SMeshData,std::allocator<CEffectMeshScript::SMeshData> >::resize
PUBLIC	?_Xlength@?$vector@USMeshData@CEffectMeshScript@@V?$allocator@USMeshData@CEffectMeshScript@@@std@@@std@@CAXXZ ; std::vector<CEffectMeshScript::SMeshData,std::allocator<CEffectMeshScript::SMeshData> >::_Xlength
PUBLIC	?DestroySystem@CEffectMeshScript@@SAXXZ		; CEffectMeshScript::DestroySystem
PUBLIC	?New@CEffectMeshScript@@SAPAV1@XZ		; CEffectMeshScript::New
PUBLIC	?Delete@CEffectMeshScript@@SAXPAV1@@Z		; CEffectMeshScript::Delete
PUBLIC	??_GCEffectMeshScript@@UAEPAXI@Z		; CEffectMeshScript::`scalar deleting destructor'
PUBLIC	??1?$CDynamicPool@USEffectMeshData@CEffectMesh@@@@UAE@XZ ; CDynamicPool<CEffectMesh::SEffectMeshData>::~CDynamicPool<CEffectMesh::SEffectMeshData>
PUBLIC	?Delete@?$CDynamicPool@USEffectMeshData@CEffectMesh@@@@KAXPAUSEffectMeshData@CEffectMesh@@@Z ; CDynamicPool<CEffectMesh::SEffectMeshData>::Delete
PUBLIC	??1?$vector@UD3DXVECTOR3@@V?$allocator@UD3DXVECTOR3@@@std@@@std@@QAE@XZ ; std::vector<D3DXVECTOR3,std::allocator<D3DXVECTOR3> >::~vector<D3DXVECTOR3,std::allocator<D3DXVECTOR3> >
PUBLIC	?_Xlength@?$vector@UD3DXVECTOR3@@V?$allocator@UD3DXVECTOR3@@@std@@@std@@CAXXZ ; std::vector<D3DXVECTOR3,std::allocator<D3DXVECTOR3> >::_Xlength
PUBLIC	??1?$vector@HV?$allocator@H@std@@@std@@QAE@XZ	; std::vector<int,std::allocator<int> >::~vector<int,std::allocator<int> >
PUBLIC	?_Xlength@?$vector@HV?$allocator@H@std@@@std@@CAXXZ ; std::vector<int,std::allocator<int> >::_Xlength
PUBLIC	??1?$vector@UD3DXVECTOR2@@V?$allocator@UD3DXVECTOR2@@@std@@@std@@QAE@XZ ; std::vector<D3DXVECTOR2,std::allocator<D3DXVECTOR2> >::~vector<D3DXVECTOR2,std::allocator<D3DXVECTOR2> >
PUBLIC	?_Xlength@?$vector@UD3DXVECTOR2@@V?$allocator@UD3DXVECTOR2@@@std@@@std@@CAXXZ ; std::vector<D3DXVECTOR2,std::allocator<D3DXVECTOR2> >::_Xlength
PUBLIC	??1?$CDynamicPool@VCEffectMeshScript@@@@UAE@XZ	; CDynamicPool<CEffectMeshScript>::~CDynamicPool<CEffectMeshScript>
PUBLIC	?Delete@?$CDynamicPool@VCEffectMeshScript@@@@KAXPAVCEffectMeshScript@@@Z ; CDynamicPool<CEffectMeshScript>::Delete
PUBLIC	?_Xlength@?$vector@PAVCEffectMeshScript@@V?$allocator@PAVCEffectMeshScript@@@std@@@std@@CAXXZ ; std::vector<CEffectMeshScript *,std::allocator<CEffectMeshScript *> >::_Xlength
PUBLIC	??$?HDU?$char_traits@D@std@@V?$allocator@D@1@@std@@YA?AV?$basic_string@DU?$char_traits@D@std@@V?$allocator@D@2@@0@QBDABV10@@Z ; std::operator+<char,std::char_traits<char>,std::allocator<char> >
PUBLIC	??$_Emplace_reallocate@ABQAVCGraphicImage@@@?$vector@PAVCGraphicImage@@V?$allocator@PAVCGraphicImage@@@std@@@std@@QAEPAPAVCGraphicImage@@QAPAV2@ABQAV2@@Z ; std::vector<CGraphicImage *,std::allocator<CGraphicImage *> >::_Emplace_reallocate<CGraphicImage * const &>
PUBLIC	??$_Emplace_reallocate@ABQAVCEffectMeshScript@@@?$vector@PAVCEffectMeshScript@@V?$allocator@PAVCEffectMeshScript@@@std@@@std@@QAEPAPAVCEffectMeshScript@@QAPAV2@ABQAV2@@Z ; std::vector<CEffectMeshScript *,std::allocator<CEffectMeshScript *> >::_Emplace_reallocate<CEffectMeshScript * const &>
PUBLIC	??$_Destroy_range@V?$allocator@UD3DXVECTOR2@@@std@@@std@@YAXPAUD3DXVECTOR2@@QAU1@AAV?$allocator@UD3DXVECTOR2@@@0@@Z ; std::_Destroy_range<std::allocator<D3DXVECTOR2> >
PUBLIC	??$_Destroy_range@V?$allocator@H@std@@@std@@YAXPAHQAHAAV?$allocator@H@0@@Z ; std::_Destroy_range<std::allocator<int> >
PUBLIC	??$_Destroy_range@V?$allocator@UD3DXVECTOR3@@@std@@@std@@YAXPAUD3DXVECTOR3@@QAU1@AAV?$allocator@UD3DXVECTOR3@@@0@@Z ; std::_Destroy_range<std::allocator<D3DXVECTOR3> >
PUBLIC	??$_Destroy_range@V?$allocator@USMeshData@CEffectMeshScript@@@std@@@std@@YAXPAUSMeshData@CEffectMeshScript@@QAU12@AAV?$allocator@USMeshData@CEffectMeshScript@@@0@@Z ; std::_Destroy_range<std::allocator<CEffectMeshScript::SMeshData> >
PUBLIC	??$_Destroy_range@V?$allocator@V?$CTimeEvent@M@@@std@@@std@@YAXPAV?$CTimeEvent@M@@QAV1@AAV?$allocator@V?$CTimeEvent@M@@@0@@Z ; std::_Destroy_range<std::allocator<CTimeEvent<float> > >
PUBLIC	??$_Destroy_range@V?$allocator@PAUSEffectMeshData@CEffectMesh@@@std@@@std@@YAXPAPAUSEffectMeshData@CEffectMesh@@QAPAU12@AAV?$allocator@PAUSEffectMeshData@CEffectMesh@@@0@@Z ; std::_Destroy_range<std::allocator<CEffectMesh::SEffectMeshData *> >
PUBLIC	??$_Emplace_reallocate@ABQAUSEffectMeshData@CEffectMesh@@@?$vector@PAUSEffectMeshData@CEffectMesh@@V?$allocator@PAUSEffectMeshData@CEffectMesh@@@std@@@std@@QAEPAPAUSEffectMeshData@CEffectMesh@@QAPAU23@ABQAU23@@Z ; std::vector<CEffectMesh::SEffectMeshData *,std::allocator<CEffectMesh::SEffectMeshData *> >::_Emplace_reallocate<CEffectMesh::SEffectMeshData * const &>
PUBLIC	??$_Destroy_range@V?$allocator@PAVCGraphicImage@@@std@@@std@@YAXPAPAVCGraphicImage@@QAPAV1@AAV?$allocator@PAVCGraphicImage@@@0@@Z ; std::_Destroy_range<std::allocator<CGraphicImage *> >
PUBLIC	??$_Destroy_range@V?$allocator@USEffectFrameData@CEffectMesh@@@std@@@std@@YAXPAUSEffectFrameData@CEffectMesh@@QAU12@AAV?$allocator@USEffectFrameData@CEffectMesh@@@0@@Z ; std::_Destroy_range<std::allocator<CEffectMesh::SEffectFrameData> >
PUBLIC	??$_Destroy_range@V?$allocator@USPTVertex@@@std@@@std@@YAXPAUSPTVertex@@QAU1@AAV?$allocator@USPTVertex@@@0@@Z ; std::_Destroy_range<std::allocator<SPTVertex> >
PUBLIC	??$_Destroy_range@V?$allocator@PAVCEffectMeshScript@@@std@@@std@@YAXPAPAVCEffectMeshScript@@QAPAV1@AAV?$allocator@PAVCEffectMeshScript@@@0@@Z ; std::_Destroy_range<std::allocator<CEffectMeshScript *> >
PUBLIC	??$_Destroy_range@V?$allocator@V?$basic_string@DU?$char_traits@D@std@@V?$allocator@D@2@@std@@@std@@@std@@YAXPAV?$basic_string@DU?$char_traits@D@std@@V?$allocator@D@2@@0@QAV10@AAV?$allocator@V?$basic_string@DU?$char_traits@D@std@@V?$allocator@D@2@@std@@@0@@Z ; std::_Destroy_range<std::allocator<std::basic_string<char,std::char_traits<char>,std::allocator<char> > > >
PUBLIC	??$_Resize_reallocate@U_Value_init_tag@std@@@?$vector@UD3DXVECTOR2@@V?$allocator@UD3DXVECTOR2@@@std@@@std@@AAEXIABU_Value_init_tag@1@@Z ; std::vector<D3DXVECTOR2,std::allocator<D3DXVECTOR2> >::_Resize_reallocate<std::_Value_init_tag>
PUBLIC	??$_Resize_reallocate@U_Value_init_tag@std@@@?$vector@HV?$allocator@H@std@@@std@@AAEXIABU_Value_init_tag@1@@Z ; std::vector<int,std::allocator<int> >::_Resize_reallocate<std::_Value_init_tag>
PUBLIC	??$_Resize_reallocate@U_Value_init_tag@std@@@?$vector@UD3DXVECTOR3@@V?$allocator@UD3DXVECTOR3@@@std@@@std@@AAEXIABU_Value_init_tag@1@@Z ; std::vector<D3DXVECTOR3,std::allocator<D3DXVECTOR3> >::_Resize_reallocate<std::_Value_init_tag>
PUBLIC	??$_Resize_reallocate@U_Value_init_tag@std@@@?$vector@USMeshData@CEffectMeshScript@@V?$allocator@USMeshData@CEffectMeshScript@@@std@@@std@@AAEXIABU_Value_init_tag@1@@Z ; std::vector<CEffectMeshScript::SMeshData,std::allocator<CEffectMeshScript::SMeshData> >::_Resize_reallocate<std::_Value_init_tag>
PUBLIC	??$_Resize_reallocate@U_Value_init_tag@std@@@?$vector@PAUSEffectMeshData@CEffectMesh@@V?$allocator@PAUSEffectMeshData@CEffectMesh@@@std@@@std@@AAEXIABU_Value_init_tag@1@@Z ; std::vector<CEffectMesh::SEffectMeshData *,std::allocator<CEffectMesh::SEffectMeshData *> >::_Resize_reallocate<std::_Value_init_tag>
PUBLIC	??$_Resize_reallocate@U_Value_init_tag@std@@@?$vector@USEffectFrameData@CEffectMesh@@V?$allocator@USEffectFrameData@CEffectMesh@@@std@@@std@@AAEXIABU_Value_init_tag@1@@Z ; std::vector<CEffectMesh::SEffectFrameData,std::allocator<CEffectMesh::SEffectFrameData> >::_Resize_reallocate<std::_Value_init_tag>
PUBLIC	??$_Resize_reallocate@U_Value_init_tag@std@@@?$vector@USPTVertex@@V?$allocator@USPTVertex@@@std@@@std@@AAEXIABU_Value_init_tag@1@@Z ; std::vector<SPTVertex,std::allocator<SPTVertex> >::_Resize_reallocate<std::_Value_init_tag>
PUBLIC	??$_Uninitialized_move@PAPAVCEffectMeshScript@@V?$allocator@PAVCEffectMeshScript@@@std@@@std@@YAPAPAVCEffectMeshScript@@QAPAV1@0PAPAV1@AAV?$allocator@PAVCEffectMeshScript@@@0@@Z ; std::_Uninitialized_move<CEffectMeshScript * *,std::allocator<CEffectMeshScript *> >
PUBLIC	??$_Uninitialized_value_construct_n@V?$allocator@UD3DXVECTOR2@@@std@@@std@@YAPAUD3DXVECTOR2@@PAU1@IAAV?$allocator@UD3DXVECTOR2@@@0@@Z ; std::_Uninitialized_value_construct_n<std::allocator<D3DXVECTOR2> >
PUBLIC	??$_Uninitialized_value_construct_n@V?$allocator@H@std@@@std@@YAPAHPAHIAAV?$allocator@H@0@@Z ; std::_Uninitialized_value_construct_n<std::allocator<int> >
PUBLIC	??$_Uninitialized_value_construct_n@V?$allocator@UD3DXVECTOR3@@@std@@@std@@YAPAUD3DXVECTOR3@@PAU1@IAAV?$allocator@UD3DXVECTOR3@@@0@@Z ; std::_Uninitialized_value_construct_n<std::allocator<D3DXVECTOR3> >
PUBLIC	??$_Uninitialized_value_construct_n@V?$allocator@USMeshData@CEffectMeshScript@@@std@@@std@@YAPAUSMeshData@CEffectMeshScript@@PAU12@IAAV?$allocator@USMeshData@CEffectMeshScript@@@0@@Z ; std::_Uninitialized_value_construct_n<std::allocator<CEffectMeshScript::SMeshData> >
PUBLIC	??$_Uninitialized_move@PAPAUSEffectMeshData@CEffectMesh@@V?$allocator@PAUSEffectMeshData@CEffectMesh@@@std@@@std@@YAPAPAUSEffectMeshData@CEffectMesh@@QAPAU12@0PAPAU12@AAV?$allocator@PAUSEffectMeshData@CEffectMesh@@@0@@Z ; std::_Uninitialized_move<CEffectMesh::SEffectMeshData * *,std::allocator<CEffectMesh::SEffectMeshData *> >
PUBLIC	??$_Uninitialized_value_construct_n@V?$allocator@PAUSEffectMeshData@CEffectMesh@@@std@@@std@@YAPAPAUSEffectMeshData@CEffectMesh@@PAPAU12@IAAV?$allocator@PAUSEffectMeshData@CEffectMesh@@@0@@Z ; std::_Uninitialized_value_construct_n<std::allocator<CEffectMesh::SEffectMeshData *> >
PUBLIC	??$_Uninitialized_move@PAPAVCGraphicImage@@V?$allocator@PAVCGraphicImage@@@std@@@std@@YAPAPAVCGraphicImage@@QAPAV1@0PAPAV1@AAV?$allocator@PAVCGraphicImage@@@0@@Z ; std::_Uninitialized_move<CGraphicImage * *,std::allocator<CGraphicImage *> >
PUBLIC	??$_Uninitialized_value_construct_n@V?$allocator@USEffectFrameData@CEffectMesh@@@std@@@std@@YAPAUSEffectFrameData@CEffectMesh@@PAU12@IAAV?$allocator@USEffectFrameData@CEffectMesh@@@0@@Z ; std::_Uninitialized_value_construct_n<std::allocator<CEffectMesh::SEffectFrameData> >
PUBLIC	??$_Uninitialized_value_construct_n@V?$allocator@USPTVertex@@@std@@@std@@YAPAUSPTVertex@@PAU1@IAAV?$allocator@USPTVertex@@@0@@Z ; std::_Uninitialized_value_construct_n<std::allocator<SPTVertex> >
PUBLIC	??$_Copy_memmove@PAPAVCEffectMeshScript@@PAPAV1@@std@@YAPAPAVCEffectMeshScript@@PAPAV1@00@Z ; std::_Copy_memmove<CEffectMeshScript * *,CEffectMeshScript * *>
PUBLIC	??$_Zero_range@PAH@std@@YAPAHQAH0@Z		; std::_Zero_range<int *>
PUBLIC	??$_Copy_memmove@PAPAUSEffectMeshData@CEffectMesh@@PAPAU12@@std@@YAPAPAUSEffectMeshData@CEffectMesh@@PAPAU12@00@Z ; std::_Copy_memmove<CEffectMesh::SEffectMeshData * *,CEffectMesh::SEffectMeshData * *>
PUBLIC	??$_Zero_range@PAPAUSEffectMeshData@CEffectMesh@@@std@@YAPAPAUSEffectMeshData@CEffectMesh@@QAPAU12@0@Z ; std::_Zero_range<CEffectMesh::SEffectMeshData * *>
PUBLIC	??$_Copy_memmove@PAPAVCGraphicImage@@PAPAV1@@std@@YAPAPAVCGraphicImage@@PAPAV1@00@Z ; std::_Copy_memmove<CGraphicImage * *,CGraphicImage * *>
PUBLIC	??$_Uninitialized_move@PAUD3DXVECTOR2@@V?$allocator@UD3DXVECTOR2@@@std@@@std@@YAPAUD3DXVECTOR2@@QAU1@0PAU1@AAV?$allocator@UD3DXVECTOR2@@@0@@Z ; std::_Uninitialized_move<D3DXVECTOR2 *,std::allocator<D3DXVECTOR2> >
PUBLIC	??$_Uninitialized_move@PAHV?$allocator@H@std@@@std@@YAPAHQAH0PAHAAV?$allocator@H@0@@Z ; std::_Uninitialized_move<int *,std::allocator<int> >
PUBLIC	??$_Uninitialized_move@PAUD3DXVECTOR3@@V?$allocator@UD3DXVECTOR3@@@std@@@std@@YAPAUD3DXVECTOR3@@QAU1@0PAU1@AAV?$allocator@UD3DXVECTOR3@@@0@@Z ; std::_Uninitialized_move<D3DXVECTOR3 *,std::allocator<D3DXVECTOR3> >
PUBLIC	??$_Uninitialized_move@PAUSMeshData@CEffectMeshScript@@V?$allocator@USMeshData@CEffectMeshScript@@@std@@@std@@YAPAUSMeshData@CEffectMeshScript@@QAU12@0PAU12@AAV?$allocator@USMeshData@CEffectMeshScript@@@0@@Z ; std::_Uninitialized_move<CEffectMeshScript::SMeshData *,std::allocator<CEffectMeshScript::SMeshData> >
PUBLIC	??$_Uninitialized_move@PAUSEffectFrameData@CEffectMesh@@V?$allocator@USEffectFrameData@CEffectMesh@@@std@@@std@@YAPAUSEffectFrameData@CEffectMesh@@QAU12@0PAU12@AAV?$allocator@USEffectFrameData@CEffectMesh@@@0@@Z ; std::_Uninitialized_move<CEffectMesh::SEffectFrameData *,std::allocator<CEffectMesh::SEffectFrameData> >
PUBLIC	??$_Uninitialized_move@PAUSPTVertex@@V?$allocator@USPTVertex@@@std@@@std@@YAPAUSPTVertex@@QAU1@0PAU1@AAV?$allocator@USPTVertex@@@0@@Z ; std::_Uninitialized_move<SPTVertex *,std::allocator<SPTVertex> >
PUBLIC	??$_Copy_memmove@PAHPAH@std@@YAPAHPAH00@Z	; std::_Copy_memmove<int *,int *>
PUBLIC	??_7exception@std@@6B@				; std::exception::`vftable'
PUBLIC	??_C@_0BC@EOODALEL@Unknown?5exception@		; `string'
PUBLIC	??_7bad_alloc@std@@6B@				; std::bad_alloc::`vftable'
PUBLIC	??_7bad_array_new_length@std@@6B@		; std::bad_array_new_length::`vftable'
PUBLIC	??_C@_0BF@KINCDENJ@bad?5array?5new?5length@	; `string'
PUBLIC	__TI3?AVbad_array_new_length@std@@
PUBLIC	__CTA3?AVbad_array_new_length@std@@
PUBLIC	??_R0?AVbad_array_new_length@std@@@8		; std::bad_array_new_length `RTTI Type Descriptor'
PUBLIC	__CT??_R0?AVbad_array_new_length@std@@@8??0bad_array_new_length@std@@QAE@ABV01@@Z12
PUBLIC	??_R0?AVbad_alloc@std@@@8			; std::bad_alloc `RTTI Type Descriptor'
PUBLIC	__CT??_R0?AVbad_alloc@std@@@8??0bad_alloc@std@@QAE@ABV01@@Z12
PUBLIC	??_R0?AVexception@std@@@8			; std::exception `RTTI Type Descriptor'
PUBLIC	__CT??_R0?AVexception@std@@@8??0exception@std@@QAE@ABV01@@Z12
PUBLIC	??_C@_0BA@JFNIOLAK@string?5too?5long@		; `string'
PUBLIC	??_C@_00CNPNBAHC@@				; `string'
PUBLIC	??_R4exception@std@@6B@				; std::exception::`RTTI Complete Object Locator'
PUBLIC	??_R3exception@std@@8				; std::exception::`RTTI Class Hierarchy Descriptor'
PUBLIC	??_R2exception@std@@8				; std::exception::`RTTI Base Class Array'
PUBLIC	??_R1A@?0A@EA@exception@std@@8			; std::exception::`RTTI Base Class Descriptor at (0,-1,0,64)'
PUBLIC	??_R4bad_alloc@std@@6B@				; std::bad_alloc::`RTTI Complete Object Locator'
PUBLIC	??_R3bad_alloc@std@@8				; std::bad_alloc::`RTTI Class Hierarchy Descriptor'
PUBLIC	??_R2bad_alloc@std@@8				; std::bad_alloc::`RTTI Base Class Array'
PUBLIC	??_R1A@?0A@EA@bad_alloc@std@@8			; std::bad_alloc::`RTTI Base Class Descriptor at (0,-1,0,64)'
PUBLIC	??_R4bad_array_new_length@std@@6B@		; std::bad_array_new_length::`RTTI Complete Object Locator'
PUBLIC	??_R3bad_array_new_length@std@@8		; std::bad_array_new_length::`RTTI Class Hierarchy Descriptor'
PUBLIC	??_R2bad_array_new_length@std@@8		; std::bad_array_new_length::`RTTI Base Class Array'
PUBLIC	??_R1A@?0A@EA@bad_array_new_length@std@@8	; std::bad_array_new_length::`RTTI Base Class Descriptor at (0,-1,0,64)'
PUBLIC	?ms_singleton@?$CSingleton@VCResourceManager@@@@0PAVCResourceManager@@A ; CSingleton<CResourceManager>::ms_singleton
PUBLIC	?ms_singleton@?$CSingleton@VCEterPackManager@@@@0PAVCEterPackManager@@A ; CSingleton<CEterPackManager>::ms_singleton
PUBLIC	?ms_kPool@SEffectMeshData@CEffectMesh@@2V?$CDynamicPool@USEffectMeshData@CEffectMesh@@@@A ; CEffectMesh::SEffectMeshData::ms_kPool
PUBLIC	??_7CEffectMesh@@6B@				; CEffectMesh::`vftable'
PUBLIC	?ms_kPool@CEffectMeshScript@@2V?$CDynamicPool@VCEffectMeshScript@@@@A ; CEffectMeshScript::ms_kPool
PUBLIC	??_7CEffectMeshScript@@6B@			; CEffectMeshScript::`vftable'
PUBLIC	??_C@_0M@HCKGHODL@CEffectMesh@			; `string'
PUBLIC	??_C@_0L@HDPGDEFC@EffectData@			; `string'
PUBLIC	??_C@_0L@HDHCIEF@MDEData002@			; `string'
PUBLIC	??_C@_03BNIHALFD@ifl@				; `string'
PUBLIC	??_C@_0N@KFLKANCO@meshfilename@			; `string'
PUBLIC	??_C@_0BI@HOBONKKC@meshanimationloopenable@	; `string'
PUBLIC	??_C@_0BH@CNDNOBIC@meshanimationloopcount@	; `string'
PUBLIC	??_C@_0BI@DLPGELIN@meshanimationframedelay@	; `string'
PUBLIC	??_C@_0BB@IMKDGDDP@meshelementcount@		; `string'
PUBLIC	??_C@_0O@EJACNAIE@billboardtype@		; `string'
PUBLIC	??_C@_0P@LCDJDIBK@blendingenable@		; `string'
PUBLIC	??_C@_0BA@CALCJEKJ@blendingsrctype@		; `string'
PUBLIC	??_C@_0BB@PBNEFHNO@blendingdesttype@		; `string'
PUBLIC	??_C@_0BL@INILLDMC@textureanimationloopenable@	; `string'
PUBLIC	??_C@_0BL@MIGDCCON@textureanimationframedelay@	; `string'
PUBLIC	??_C@_0BL@PMOBBIKD@textureanimationstartframe@	; `string'
PUBLIC	??_C@_0BD@DAMHAFBJ@coloroperationtype@		; `string'
PUBLIC	??_C@_0M@PBDNNBOP@colorfactor@			; `string'
PUBLIC	??_C@_0P@KALIPJCI@timeeventalpha@		; `string'
PUBLIC	??_C@_0BA@FOIKENOD@vector?5too?5long@		; `string'
PUBLIC	??_R4CEffectMesh@@6B@				; CEffectMesh::`RTTI Complete Object Locator'
PUBLIC	??_R0?AVCEffectMesh@@@8				; CEffectMesh `RTTI Type Descriptor'
PUBLIC	??_R3CEffectMesh@@8				; CEffectMesh::`RTTI Class Hierarchy Descriptor'
PUBLIC	??_R2CEffectMesh@@8				; CEffectMesh::`RTTI Base Class Array'
PUBLIC	??_R1A@?0A@EA@CEffectMesh@@8			; CEffectMesh::`RTTI Base Class Descriptor at (0,-1,0,64)'
PUBLIC	??_R1A@?0A@EA@CResource@@8			; CResource::`RTTI Base Class Descriptor at (0,-1,0,64)'
PUBLIC	??_R0?AVCResource@@@8				; CResource `RTTI Type Descriptor'
PUBLIC	??_R3CResource@@8				; CResource::`RTTI Class Hierarchy Descriptor'
PUBLIC	??_R2CResource@@8				; CResource::`RTTI Base Class Array'
PUBLIC	??_R1A@?0A@EA@CReferenceObject@@8		; CReferenceObject::`RTTI Base Class Descriptor at (0,-1,0,64)'
PUBLIC	??_R0?AVCReferenceObject@@@8			; CReferenceObject `RTTI Type Descriptor'
PUBLIC	??_R3CReferenceObject@@8			; CReferenceObject::`RTTI Class Hierarchy Descriptor'
PUBLIC	??_R2CReferenceObject@@8			; CReferenceObject::`RTTI Base Class Array'
PUBLIC	??_R4CEffectMeshScript@@6B@			; CEffectMeshScript::`RTTI Complete Object Locator'
PUBLIC	??_R0?AVCEffectMeshScript@@@8			; CEffectMeshScript `RTTI Type Descriptor'
PUBLIC	??_R3CEffectMeshScript@@8			; CEffectMeshScript::`RTTI Class Hierarchy Descriptor'
PUBLIC	??_R2CEffectMeshScript@@8			; CEffectMeshScript::`RTTI Base Class Array'
PUBLIC	??_R1A@?0A@EA@CEffectMeshScript@@8		; CEffectMeshScript::`RTTI Base Class Descriptor at (0,-1,0,64)'
PUBLIC	??_R1A@?0A@EA@CEffectElementBase@@8		; CEffectElementBase::`RTTI Base Class Descriptor at (0,-1,0,64)'
PUBLIC	??_R0?AVCEffectElementBase@@@8			; CEffectElementBase `RTTI Type Descriptor'
PUBLIC	??_R3CEffectElementBase@@8			; CEffectElementBase::`RTTI Class Hierarchy Descriptor'
PUBLIC	??_R2CEffectElementBase@@8			; CEffectElementBase::`RTTI Base Class Array'
PUBLIC	__real@00000000
PUBLIC	__real@bf800000
PUBLIC	__xmm@3f8000003f8000003f8000003f800000
EXTRN	??2@YAPAXI@Z:PROC				; operator new
EXTRN	??3@YAXPAXI@Z:PROC				; operator delete
EXTRN	_atexit:PROC
EXTRN	__Init_thread_header:PROC
EXTRN	__Init_thread_abort:PROC
EXTRN	__Init_thread_footer:PROC
EXTRN	___std_terminate:PROC
EXTRN	__invalid_parameter_noinfo_noreturn:PROC
EXTRN	___std_exception_copy:PROC
EXTRN	___std_exception_destroy:PROC
EXTRN	??_Eexception@std@@UAEPAXI@Z:PROC		; std::exception::`vector deleting destructor'
EXTRN	??_Ebad_alloc@std@@UAEPAXI@Z:PROC		; std::bad_alloc::`vector deleting destructor'
EXTRN	??_Ebad_array_new_length@std@@UAEPAXI@Z:PROC	; std::bad_array_new_length::`vector deleting destructor'
EXTRN	?_Xlength_error@std@@YAXPBD@Z:PROC		; std::_Xlength_error
EXTRN	?GetFileExtension@@YAXPBDHPAV?$basic_string@DU?$char_traits@D@std@@V?$allocator@D@2@@std@@@Z:PROC ; GetFileExtension
EXTRN	?stl_lowers@@YAXAAV?$basic_string@DU?$char_traits@D@std@@V?$allocator@D@2@@std@@@Z:PROC ; stl_lowers
EXTRN	?GetOnlyPathName@@YAXPBDAAV?$basic_string@DU?$char_traits@D@std@@V?$allocator@D@2@@std@@@Z:PROC ; GetOnlyPathName
EXTRN	?GetOnlyPathName@@YAPBDPBD@Z:PROC		; GetOnlyPathName
EXTRN	?IsGlobalFileName@@YA_NPBD@Z:PROC		; IsGlobalFileName
EXTRN	??0CMemoryTextFileLoader@@QAE@XZ:PROC		; CMemoryTextFileLoader::CMemoryTextFileLoader
EXTRN	??1CMemoryTextFileLoader@@UAE@XZ:PROC		; CMemoryTextFileLoader::~CMemoryTextFileLoader
EXTRN	?Bind@CMemoryTextFileLoader@@QAEXHPBX@Z:PROC	; CMemoryTextFileLoader::Bind
EXTRN	?GetLineCount@CMemoryTextFileLoader@@QAEKXZ:PROC ; CMemoryTextFileLoader::GetLineCount
EXTRN	?GetLineString@CMemoryTextFileLoader@@QAEABV?$basic_string@DU?$char_traits@D@std@@V?$allocator@D@2@@std@@K@Z:PROC ; CMemoryTextFileLoader::GetLineString
EXTRN	??0CMappedFile@@QAE@XZ:PROC			; CMappedFile::CMappedFile
EXTRN	??1CMappedFile@@UAE@XZ:PROC			; CMappedFile::~CMappedFile
EXTRN	?Size@CMappedFile@@QAEKXZ:PROC			; CMappedFile::Size
EXTRN	?GetFileName@CTextFileLoader@@QAEPBDXZ:PROC	; CTextFileLoader::GetFileName
EXTRN	?SetChildNode@CTextFileLoader@@QAEHK@Z:PROC	; CTextFileLoader::SetChildNode
EXTRN	?SetParentNode@CTextFileLoader@@QAEHXZ:PROC	; CTextFileLoader::SetParentNode
EXTRN	?GetTokenBoolean@CTextFileLoader@@QAEHABV?$basic_string@DU?$char_traits@D@std@@V?$allocator@D@2@@std@@PAH@Z:PROC ; CTextFileLoader::GetTokenBoolean
EXTRN	?GetTokenByte@CTextFileLoader@@QAEHABV?$basic_string@DU?$char_traits@D@std@@V?$allocator@D@2@@std@@PAE@Z:PROC ; CTextFileLoader::GetTokenByte
EXTRN	?GetTokenInteger@CTextFileLoader@@QAEHABV?$basic_string@DU?$char_traits@D@std@@V?$allocator@D@2@@std@@PAH@Z:PROC ; CTextFileLoader::GetTokenInteger
EXTRN	?GetTokenDoubleWord@CTextFileLoader@@QAEHABV?$basic_string@DU?$char_traits@D@std@@V?$allocator@D@2@@std@@PAK@Z:PROC ; CTextFileLoader::GetTokenDoubleWord
EXTRN	?GetTokenFloat@CTextFileLoader@@QAEHABV?$basic_string@DU?$char_traits@D@std@@V?$allocator@D@2@@std@@PAM@Z:PROC ; CTextFileLoader::GetTokenFloat
EXTRN	?GetTokenColor@CTextFileLoader@@QAEHABV?$basic_string@DU?$char_traits@D@std@@V?$allocator@D@2@@std@@PAUD3DXCOLOR@@@Z:PROC ; CTextFileLoader::GetTokenColor
EXTRN	?GetTokenString@CTextFileLoader@@QAEHABV?$basic_string@DU?$char_traits@D@std@@V?$allocator@D@2@@std@@PAV23@@Z:PROC ; CTextFileLoader::GetTokenString
EXTRN	?StringToType@CResource@@SAKPBD@Z:PROC		; CResource::StringToType
EXTRN	?CreateDeviceObjects@CResource@@UAE_NXZ:PROC	; CResource::CreateDeviceObjects
EXTRN	?DestroyDeviceObjects@CResource@@UAEXXZ:PROC	; CResource::DestroyDeviceObjects
EXTRN	??0CResource@@QAE@PBD@Z:PROC			; CResource::CResource
EXTRN	??1CResource@@UAE@XZ:PROC			; CResource::~CResource
EXTRN	?OnIsType@CResource@@MAE_NK@Z:PROC		; CResource::OnIsType
EXTRN	?OnConstruct@CResource@@MAEXXZ:PROC		; CResource::OnConstruct
EXTRN	?OnSelfDestruct@CResource@@MAEXXZ:PROC		; CResource::OnSelfDestruct
EXTRN	?GetResourcePointer@CResourceManager@@QAEPAVCResource@@PBD@Z:PROC ; CResourceManager::GetResourcePointer
EXTRN	?Get@CEterPackManager@@QAE_NAAVCMappedFile@@PBDPAPBX@Z:PROC ; CEterPackManager::Get
EXTRN	?GetTokenTimeEventFloat@@YAHAAVCTextFileLoader@@PBDPAV?$vector@V?$CTimeEvent@M@@V?$allocator@V?$CTimeEvent@M@@@std@@@std@@@Z:PROC ; GetTokenTimeEventFloat
EXTRN	??0CEffectElementBase@@QAE@XZ:PROC		; CEffectElementBase::CEffectElementBase
EXTRN	??1CEffectElementBase@@UAE@XZ:PROC		; CEffectElementBase::~CEffectElementBase
EXTRN	?Clear@CEffectElementBase@@QAEXXZ:PROC		; CEffectElementBase::Clear
EXTRN	??_ECEffectMesh@@UAEPAXI@Z:PROC			; CEffectMesh::`vector deleting destructor'
EXTRN	??_ECEffectMeshScript@@UAEPAXI@Z:PROC		; CEffectMeshScript::`vector deleting destructor'
EXTRN	@__security_check_cookie@4:PROC
EXTRN	__CxxThrowException@8:PROC
EXTRN	___CxxFrameHandler3:PROC
EXTRN	_memcpy:PROC
EXTRN	_memmove:PROC
EXTRN	_memset:PROC
EXTRN	__Init_thread_epoch:DWORD
EXTRN	___security_cookie:DWORD
EXTRN	__fltused:DWORD
EXTRN	__tls_array:DWORD
EXTRN	__tls_index:DWORD
;	COMDAT ?ms_singleton@?$CSingleton@VCResourceManager@@@@0PAVCResourceManager@@A
_BSS	SEGMENT
?ms_singleton@?$CSingleton@VCResourceManager@@@@0PAVCResourceManager@@A DD 01H DUP (?) ; CSingleton<CResourceManager>::ms_singleton
_BSS	ENDS
;	COMDAT ?ms_singleton@?$CSingleton@VCEterPackManager@@@@0PAVCEterPackManager@@A
_BSS	SEGMENT
?ms_singleton@?$CSingleton@VCEterPackManager@@@@0PAVCEterPackManager@@A DD 01H DUP (?) ; CSingleton<CEterPackManager>::ms_singleton
_BSS	ENDS
;	COMDAT ?s_type@?1??Type@CEffectMesh@@SAKXZ@4KA
_BSS	SEGMENT
?s_type@?1??Type@CEffectMesh@@SAKXZ@4KA DD 01H DUP (?)	; `CEffectMesh::Type'::`2'::s_type
_BSS	ENDS
;	COMDAT ?$TSS0@?1??Type@CEffectMesh@@SAKXZ@4HA
_BSS	SEGMENT
?$TSS0@?1??Type@CEffectMesh@@SAKXZ@4HA DD 01H DUP (?)	; `CEffectMesh::Type'::`2'::$TSS0
_BSS	ENDS
CRT$XCU	SEGMENT
??ms_kPool$initializer$@SEffectMeshData@CEffectMesh@@2P6AXXZA@@3P6AXXZA DD FLAT:??__E?ms_kPool@SEffectMeshData@CEffectMesh@@2V?$CDynamicPool@USEffectMeshData@CEffectMesh@@@@A@@YAXXZ ; ??ms_kPool$initializer$@SEffectMeshData@CEffectMesh@@2P6AXXZA@@3P6AXXZA
CRT$XCU	ENDS
;	COMDAT __xmm@3f8000003f8000003f8000003f800000
CONST	SEGMENT
__xmm@3f8000003f8000003f8000003f800000 DB 00H, 00H, 080H, '?', 00H, 00H, 080H
	DB	'?', 00H, 00H, 080H, '?', 00H, 00H, 080H, '?'
CONST	ENDS
;	COMDAT __real@bf800000
CONST	SEGMENT
__real@bf800000 DD 0bf800000r			; -1
CONST	ENDS
;	COMDAT __real@00000000
CONST	SEGMENT
__real@00000000 DD 000000000r			; 0
CONST	ENDS
;	COMDAT ??_R2CEffectElementBase@@8
rdata$r	SEGMENT
??_R2CEffectElementBase@@8 DD FLAT:??_R1A@?0A@EA@CEffectElementBase@@8 ; CEffectElementBase::`RTTI Base Class Array'
rdata$r	ENDS
;	COMDAT ??_R3CEffectElementBase@@8
rdata$r	SEGMENT
??_R3CEffectElementBase@@8 DD 00H			; CEffectElementBase::`RTTI Class Hierarchy Descriptor'
	DD	00H
	DD	01H
	DD	FLAT:??_R2CEffectElementBase@@8
rdata$r	ENDS
;	COMDAT ??_R0?AVCEffectElementBase@@@8
data$r	SEGMENT
??_R0?AVCEffectElementBase@@@8 DD FLAT:??_7type_info@@6B@ ; CEffectElementBase `RTTI Type Descriptor'
	DD	00H
	DB	'.?AVCEffectElementBase@@', 00H
data$r	ENDS
;	COMDAT ??_R1A@?0A@EA@CEffectElementBase@@8
rdata$r	SEGMENT
??_R1A@?0A@EA@CEffectElementBase@@8 DD FLAT:??_R0?AVCEffectElementBase@@@8 ; CEffectElementBase::`RTTI Base Class Descriptor at (0,-1,0,64)'
	DD	00H
	DD	00H
	DD	0ffffffffH
	DD	00H
	DD	040H
	DD	FLAT:??_R3CEffectElementBase@@8
rdata$r	ENDS
;	COMDAT ??_R1A@?0A@EA@CEffectMeshScript@@8
rdata$r	SEGMENT
??_R1A@?0A@EA@CEffectMeshScript@@8 DD FLAT:??_R0?AVCEffectMeshScript@@@8 ; CEffectMeshScript::`RTTI Base Class Descriptor at (0,-1,0,64)'
	DD	01H
	DD	00H
	DD	0ffffffffH
	DD	00H
	DD	040H
	DD	FLAT:??_R3CEffectMeshScript@@8
rdata$r	ENDS
;	COMDAT ??_R2CEffectMeshScript@@8
rdata$r	SEGMENT
??_R2CEffectMeshScript@@8 DD FLAT:??_R1A@?0A@EA@CEffectMeshScript@@8 ; CEffectMeshScript::`RTTI Base Class Array'
	DD	FLAT:??_R1A@?0A@EA@CEffectElementBase@@8
rdata$r	ENDS
;	COMDAT ??_R3CEffectMeshScript@@8
rdata$r	SEGMENT
??_R3CEffectMeshScript@@8 DD 00H			; CEffectMeshScript::`RTTI Class Hierarchy Descriptor'
	DD	00H
	DD	02H
	DD	FLAT:??_R2CEffectMeshScript@@8
rdata$r	ENDS
;	COMDAT ??_R0?AVCEffectMeshScript@@@8
data$r	SEGMENT
??_R0?AVCEffectMeshScript@@@8 DD FLAT:??_7type_info@@6B@ ; CEffectMeshScript `RTTI Type Descriptor'
	DD	00H
	DB	'.?AVCEffectMeshScript@@', 00H
data$r	ENDS
;	COMDAT ??_R4CEffectMeshScript@@6B@
rdata$r	SEGMENT
??_R4CEffectMeshScript@@6B@ DD 00H			; CEffectMeshScript::`RTTI Complete Object Locator'
	DD	00H
	DD	00H
	DD	FLAT:??_R0?AVCEffectMeshScript@@@8
	DD	FLAT:??_R3CEffectMeshScript@@8
rdata$r	ENDS
;	COMDAT ??_R2CReferenceObject@@8
rdata$r	SEGMENT
??_R2CReferenceObject@@8 DD FLAT:??_R1A@?0A@EA@CReferenceObject@@8 ; CReferenceObject::`RTTI Base Class Array'
rdata$r	ENDS
;	COMDAT ??_R3CReferenceObject@@8
rdata$r	SEGMENT
??_R3CReferenceObject@@8 DD 00H				; CReferenceObject::`RTTI Class Hierarchy Descriptor'
	DD	00H
	DD	01H
	DD	FLAT:??_R2CReferenceObject@@8
rdata$r	ENDS
;	COMDAT ??_R0?AVCReferenceObject@@@8
data$r	SEGMENT
??_R0?AVCReferenceObject@@@8 DD FLAT:??_7type_info@@6B@	; CReferenceObject `RTTI Type Descriptor'
	DD	00H
	DB	'.?AVCReferenceObject@@', 00H
data$r	ENDS
;	COMDAT ??_R1A@?0A@EA@CReferenceObject@@8
rdata$r	SEGMENT
??_R1A@?0A@EA@CReferenceObject@@8 DD FLAT:??_R0?AVCReferenceObject@@@8 ; CReferenceObject::`RTTI Base Class Descriptor at (0,-1,0,64)'
	DD	00H
	DD	00H
	DD	0ffffffffH
	DD	00H
	DD	040H
	DD	FLAT:??_R3CReferenceObject@@8
rdata$r	ENDS
;	COMDAT ??_R2CResource@@8
rdata$r	SEGMENT
??_R2CResource@@8 DD FLAT:??_R1A@?0A@EA@CResource@@8	; CResource::`RTTI Base Class Array'
	DD	FLAT:??_R1A@?0A@EA@CReferenceObject@@8
rdata$r	ENDS
;	COMDAT ??_R3CResource@@8
rdata$r	SEGMENT
??_R3CResource@@8 DD 00H				; CResource::`RTTI Class Hierarchy Descriptor'
	DD	00H
	DD	02H
	DD	FLAT:??_R2CResource@@8
rdata$r	ENDS
;	COMDAT ??_R0?AVCResource@@@8
data$r	SEGMENT
??_R0?AVCResource@@@8 DD FLAT:??_7type_info@@6B@	; CResource `RTTI Type Descriptor'
	DD	00H
	DB	'.?AVCResource@@', 00H
data$r	ENDS
;	COMDAT ??_R1A@?0A@EA@CResource@@8
rdata$r	SEGMENT
??_R1A@?0A@EA@CResource@@8 DD FLAT:??_R0?AVCResource@@@8 ; CResource::`RTTI Base Class Descriptor at (0,-1,0,64)'
	DD	01H
	DD	00H
	DD	0ffffffffH
	DD	00H
	DD	040H
	DD	FLAT:??_R3CResource@@8
rdata$r	ENDS
;	COMDAT ??_R1A@?0A@EA@CEffectMesh@@8
rdata$r	SEGMENT
??_R1A@?0A@EA@CEffectMesh@@8 DD FLAT:??_R0?AVCEffectMesh@@@8 ; CEffectMesh::`RTTI Base Class Descriptor at (0,-1,0,64)'
	DD	02H
	DD	00H
	DD	0ffffffffH
	DD	00H
	DD	040H
	DD	FLAT:??_R3CEffectMesh@@8
rdata$r	ENDS
;	COMDAT ??_R2CEffectMesh@@8
rdata$r	SEGMENT
??_R2CEffectMesh@@8 DD FLAT:??_R1A@?0A@EA@CEffectMesh@@8 ; CEffectMesh::`RTTI Base Class Array'
	DD	FLAT:??_R1A@?0A@EA@CResource@@8
	DD	FLAT:??_R1A@?0A@EA@CReferenceObject@@8
rdata$r	ENDS
;	COMDAT ??_R3CEffectMesh@@8
rdata$r	SEGMENT
??_R3CEffectMesh@@8 DD 00H				; CEffectMesh::`RTTI Class Hierarchy Descriptor'
	DD	00H
	DD	03H
	DD	FLAT:??_R2CEffectMesh@@8
rdata$r	ENDS
;	COMDAT ??_R0?AVCEffectMesh@@@8
data$r	SEGMENT
??_R0?AVCEffectMesh@@@8 DD FLAT:??_7type_info@@6B@	; CEffectMesh `RTTI Type Descriptor'
	DD	00H
	DB	'.?AVCEffectMesh@@', 00H
data$r	ENDS
;	COMDAT ??_R4CEffectMesh@@6B@
rdata$r	SEGMENT
??_R4CEffectMesh@@6B@ DD 00H				; CEffectMesh::`RTTI Complete Object Locator'
	DD	00H
	DD	00H
	DD	FLAT:??_R0?AVCEffectMesh@@@8
	DD	FLAT:??_R3CEffectMesh@@8
rdata$r	ENDS
;	COMDAT ??_C@_0BA@FOIKENOD@vector?5too?5long@
CONST	SEGMENT
??_C@_0BA@FOIKENOD@vector?5too?5long@ DB 'vector too long', 00H ; `string'
CONST	ENDS
;	COMDAT ??_C@_0P@KALIPJCI@timeeventalpha@
CONST	SEGMENT
??_C@_0P@KALIPJCI@timeeventalpha@ DB 'timeeventalpha', 00H ; `string'
CONST	ENDS
;	COMDAT ??_C@_0M@PBDNNBOP@colorfactor@
CONST	SEGMENT
??_C@_0M@PBDNNBOP@colorfactor@ DB 'colorfactor', 00H	; `string'
CONST	ENDS
;	COMDAT ??_C@_0BD@DAMHAFBJ@coloroperationtype@
CONST	SEGMENT
??_C@_0BD@DAMHAFBJ@coloroperationtype@ DB 'coloroperationtype', 00H ; `string'
CONST	ENDS
;	COMDAT ??_C@_0BL@PMOBBIKD@textureanimationstartframe@
CONST	SEGMENT
??_C@_0BL@PMOBBIKD@textureanimationstartframe@ DB 'textureanimationstartf'
	DB	'rame', 00H					; `string'
CONST	ENDS
;	COMDAT ??_C@_0BL@MIGDCCON@textureanimationframedelay@
CONST	SEGMENT
??_C@_0BL@MIGDCCON@textureanimationframedelay@ DB 'textureanimationframed'
	DB	'elay', 00H					; `string'
CONST	ENDS
;	COMDAT ??_C@_0BL@INILLDMC@textureanimationloopenable@
CONST	SEGMENT
??_C@_0BL@INILLDMC@textureanimationloopenable@ DB 'textureanimationloopen'
	DB	'able', 00H					; `string'
CONST	ENDS
;	COMDAT ??_C@_0BB@PBNEFHNO@blendingdesttype@
CONST	SEGMENT
??_C@_0BB@PBNEFHNO@blendingdesttype@ DB 'blendingdesttype', 00H ; `string'
CONST	ENDS
;	COMDAT ??_C@_0BA@CALCJEKJ@blendingsrctype@
CONST	SEGMENT
??_C@_0BA@CALCJEKJ@blendingsrctype@ DB 'blendingsrctype', 00H ; `string'
CONST	ENDS
;	COMDAT ??_C@_0P@LCDJDIBK@blendingenable@
CONST	SEGMENT
??_C@_0P@LCDJDIBK@blendingenable@ DB 'blendingenable', 00H ; `string'
CONST	ENDS
;	COMDAT ??_C@_0O@EJACNAIE@billboardtype@
CONST	SEGMENT
??_C@_0O@EJACNAIE@billboardtype@ DB 'billboardtype', 00H ; `string'
CONST	ENDS
;	COMDAT ??_C@_0BB@IMKDGDDP@meshelementcount@
CONST	SEGMENT
??_C@_0BB@IMKDGDDP@meshelementcount@ DB 'meshelementcount', 00H ; `string'
CONST	ENDS
;	COMDAT ??_C@_0BI@DLPGELIN@meshanimationframedelay@
CONST	SEGMENT
??_C@_0BI@DLPGELIN@meshanimationframedelay@ DB 'meshanimationframedelay', 00H ; `string'
CONST	ENDS
;	COMDAT ??_C@_0BH@CNDNOBIC@meshanimationloopcount@
CONST	SEGMENT
??_C@_0BH@CNDNOBIC@meshanimationloopcount@ DB 'meshanimationloopcount', 00H ; `string'
CONST	ENDS
;	COMDAT ??_C@_0BI@HOBONKKC@meshanimationloopenable@
CONST	SEGMENT
??_C@_0BI@HOBONKKC@meshanimationloopenable@ DB 'meshanimationloopenable', 00H ; `string'
CONST	ENDS
;	COMDAT ??_C@_0N@KFLKANCO@meshfilename@
CONST	SEGMENT
??_C@_0N@KFLKANCO@meshfilename@ DB 'meshfilename', 00H	; `string'
CONST	ENDS
;	COMDAT ??_C@_03BNIHALFD@ifl@
CONST	SEGMENT
??_C@_03BNIHALFD@ifl@ DB 'ifl', 00H			; `string'
CONST	ENDS
;	COMDAT ??_C@_0L@HDHCIEF@MDEData002@
CONST	SEGMENT
??_C@_0L@HDHCIEF@MDEData002@ DB 'MDEData002', 00H	; `string'
CONST	ENDS
;	COMDAT ??_C@_0L@HDPGDEFC@EffectData@
CONST	SEGMENT
??_C@_0L@HDPGDEFC@EffectData@ DB 'EffectData', 00H	; `string'
CONST	ENDS
;	COMDAT ??_C@_0M@HCKGHODL@CEffectMesh@
CONST	SEGMENT
??_C@_0M@HCKGHODL@CEffectMesh@ DB 'CEffectMesh', 00H	; `string'
CONST	ENDS
;	COMDAT ??_7CEffectMeshScript@@6B@
CONST	SEGMENT
??_7CEffectMeshScript@@6B@ DD FLAT:??_R4CEffectMeshScript@@6B@ ; CEffectMeshScript::`vftable'
	DD	FLAT:??_ECEffectMeshScript@@UAEPAXI@Z
	DD	FLAT:?OnClear@CEffectMeshScript@@MAEXXZ
	DD	FLAT:?OnIsData@CEffectMeshScript@@MAE_NXZ
	DD	FLAT:?OnLoadScript@CEffectMeshScript@@MAEHAAVCTextFileLoader@@@Z
CONST	ENDS
;	COMDAT ??_7CEffectMesh@@6B@
CONST	SEGMENT
??_7CEffectMesh@@6B@ DD FLAT:??_R4CEffectMesh@@6B@	; CEffectMesh::`vftable'
	DD	FLAT:??_ECEffectMesh@@UAEPAXI@Z
	DD	FLAT:?OnConstruct@CResource@@MAEXXZ
	DD	FLAT:?OnSelfDestruct@CResource@@MAEXXZ
	DD	FLAT:?CreateDeviceObjects@CResource@@UAE_NXZ
	DD	FLAT:?DestroyDeviceObjects@CResource@@UAEXXZ
	DD	FLAT:?OnLoad@CEffectMesh@@MAE_NHPBX@Z
	DD	FLAT:?OnClear@CEffectMesh@@MAEXXZ
	DD	FLAT:?OnIsEmpty@CEffectMesh@@MBE_NXZ
	DD	FLAT:?OnIsType@CEffectMesh@@MAE_NK@Z
CONST	ENDS
_DATA	SEGMENT
?ms_kPool@SEffectMeshData@CEffectMesh@@2V?$CDynamicPool@USEffectMeshData@CEffectMesh@@@@A DD FLAT:??_7?$CDynamicPool@USEffectMeshData@CEffectMesh@@@@6B@ ; CEffectMesh::SEffectMeshData::ms_kPool
	DD	00H
	DD	00H
	DD	00H
	DD	00H
	DD	00H
	DD	00H
	DD	00H
	DD	00H
?ms_kPool@CEffectMeshScript@@2V?$CDynamicPool@VCEffectMeshScript@@@@A DD FLAT:??_7?$CDynamicPool@VCEffectMeshScript@@@@6B@ ; CEffectMeshScript::ms_kPool
	DD	00H
	DD	00H
	DD	00H
	DD	00H
	DD	00H
	DD	00H
	DD	00H
	DD	00H
_DATA	ENDS
;	COMDAT ??_R1A@?0A@EA@bad_array_new_length@std@@8
rdata$r	SEGMENT
??_R1A@?0A@EA@bad_array_new_length@std@@8 DD FLAT:??_R0?AVbad_array_new_length@std@@@8 ; std::bad_array_new_length::`RTTI Base Class Descriptor at (0,-1,0,64)'
	DD	02H
	DD	00H
	DD	0ffffffffH
	DD	00H
	DD	040H
	DD	FLAT:??_R3bad_array_new_length@std@@8
rdata$r	ENDS
;	COMDAT ??_R2bad_array_new_length@std@@8
rdata$r	SEGMENT
??_R2bad_array_new_length@std@@8 DD FLAT:??_R1A@?0A@EA@bad_array_new_length@std@@8 ; std::bad_array_new_length::`RTTI Base Class Array'
	DD	FLAT:??_R1A@?0A@EA@bad_alloc@std@@8
	DD	FLAT:??_R1A@?0A@EA@exception@std@@8
rdata$r	ENDS
;	COMDAT ??_R3bad_array_new_length@std@@8
rdata$r	SEGMENT
??_R3bad_array_new_length@std@@8 DD 00H			; std::bad_array_new_length::`RTTI Class Hierarchy Descriptor'
	DD	00H
	DD	03H
	DD	FLAT:??_R2bad_array_new_length@std@@8
rdata$r	ENDS
;	COMDAT ??_R4bad_array_new_length@std@@6B@
rdata$r	SEGMENT
??_R4bad_array_new_length@std@@6B@ DD 00H		; std::bad_array_new_length::`RTTI Complete Object Locator'
	DD	00H
	DD	00H
	DD	FLAT:??_R0?AVbad_array_new_length@std@@@8
	DD	FLAT:??_R3bad_array_new_length@std@@8
rdata$r	ENDS
;	COMDAT ??_R1A@?0A@EA@bad_alloc@std@@8
rdata$r	SEGMENT
??_R1A@?0A@EA@bad_alloc@std@@8 DD FLAT:??_R0?AVbad_alloc@std@@@8 ; std::bad_alloc::`RTTI Base Class Descriptor at (0,-1,0,64)'
	DD	01H
	DD	00H
	DD	0ffffffffH
	DD	00H
	DD	040H
	DD	FLAT:??_R3bad_alloc@std@@8
rdata$r	ENDS
;	COMDAT ??_R2bad_alloc@std@@8
rdata$r	SEGMENT
??_R2bad_alloc@std@@8 DD FLAT:??_R1A@?0A@EA@bad_alloc@std@@8 ; std::bad_alloc::`RTTI Base Class Array'
	DD	FLAT:??_R1A@?0A@EA@exception@std@@8
rdata$r	ENDS
;	COMDAT ??_R3bad_alloc@std@@8
rdata$r	SEGMENT
??_R3bad_alloc@std@@8 DD 00H				; std::bad_alloc::`RTTI Class Hierarchy Descriptor'
	DD	00H
	DD	02H
	DD	FLAT:??_R2bad_alloc@std@@8
rdata$r	ENDS
;	COMDAT ??_R4bad_alloc@std@@6B@
rdata$r	SEGMENT
??_R4bad_alloc@std@@6B@ DD 00H				; std::bad_alloc::`RTTI Complete Object Locator'
	DD	00H
	DD	00H
	DD	FLAT:??_R0?AVbad_alloc@std@@@8
	DD	FLAT:??_R3bad_alloc@std@@8
rdata$r	ENDS
;	COMDAT ??_R1A@?0A@EA@exception@std@@8
rdata$r	SEGMENT
??_R1A@?0A@EA@exception@std@@8 DD FLAT:??_R0?AVexception@std@@@8 ; std::exception::`RTTI Base Class Descriptor at (0,-1,0,64)'
	DD	00H
	DD	00H
	DD	0ffffffffH
	DD	00H
	DD	040H
	DD	FLAT:??_R3exception@std@@8
rdata$r	ENDS
;	COMDAT ??_R2exception@std@@8
rdata$r	SEGMENT
??_R2exception@std@@8 DD FLAT:??_R1A@?0A@EA@exception@std@@8 ; std::exception::`RTTI Base Class Array'
rdata$r	ENDS
;	COMDAT ??_R3exception@std@@8
rdata$r	SEGMENT
??_R3exception@std@@8 DD 00H				; std::exception::`RTTI Class Hierarchy Descriptor'
	DD	00H
	DD	01H
	DD	FLAT:??_R2exception@std@@8
rdata$r	ENDS
;	COMDAT ??_R4exception@std@@6B@
rdata$r	SEGMENT
??_R4exception@std@@6B@ DD 00H				; std::exception::`RTTI Complete Object Locator'
	DD	00H
	DD	00H
	DD	FLAT:??_R0?AVexception@std@@@8
	DD	FLAT:??_R3exception@std@@8
rdata$r	ENDS
;	COMDAT ??_C@_00CNPNBAHC@@
CONST	SEGMENT
??_C@_00CNPNBAHC@@ DB 00H				; `string'
CONST	ENDS
;	COMDAT ??_C@_0BA@JFNIOLAK@string?5too?5long@
CONST	SEGMENT
??_C@_0BA@JFNIOLAK@string?5too?5long@ DB 'string too long', 00H ; `string'
CONST	ENDS
;	COMDAT __CT??_R0?AVexception@std@@@8??0exception@std@@QAE@ABV01@@Z12
xdata$x	SEGMENT
__CT??_R0?AVexception@std@@@8??0exception@std@@QAE@ABV01@@Z12 DD 00H
	DD	FLAT:??_R0?AVexception@std@@@8
	DD	00H
	DD	0ffffffffH
	ORG $+4
	DD	0cH
	DD	FLAT:??0exception@std@@QAE@ABV01@@Z
xdata$x	ENDS
;	COMDAT ??_R0?AVexception@std@@@8
data$r	SEGMENT
??_R0?AVexception@std@@@8 DD FLAT:??_7type_info@@6B@	; std::exception `RTTI Type Descriptor'
	DD	00H
	DB	'.?AVexception@std@@', 00H
data$r	ENDS
;	COMDAT __CT??_R0?AVbad_alloc@std@@@8??0bad_alloc@std@@QAE@ABV01@@Z12
xdata$x	SEGMENT
__CT??_R0?AVbad_alloc@std@@@8??0bad_alloc@std@@QAE@ABV01@@Z12 DD 010H
	DD	FLAT:??_R0?AVbad_alloc@std@@@8
	DD	00H
	DD	0ffffffffH
	ORG $+4
	DD	0cH
	DD	FLAT:??0bad_alloc@std@@QAE@ABV01@@Z
xdata$x	ENDS
;	COMDAT ??_R0?AVbad_alloc@std@@@8
data$r	SEGMENT
??_R0?AVbad_alloc@std@@@8 DD FLAT:??_7type_info@@6B@	; std::bad_alloc `RTTI Type Descriptor'
	DD	00H
	DB	'.?AVbad_alloc@std@@', 00H
data$r	ENDS
;	COMDAT __CT??_R0?AVbad_array_new_length@std@@@8??0bad_array_new_length@std@@QAE@ABV01@@Z12
xdata$x	SEGMENT
__CT??_R0?AVbad_array_new_length@std@@@8??0bad_array_new_length@std@@QAE@ABV01@@Z12 DD 00H
	DD	FLAT:??_R0?AVbad_array_new_length@std@@@8
	DD	00H
	DD	0ffffffffH
	ORG $+4
	DD	0cH
	DD	FLAT:??0bad_array_new_length@std@@QAE@ABV01@@Z
xdata$x	ENDS
;	COMDAT ??_R0?AVbad_array_new_length@std@@@8
data$r	SEGMENT
??_R0?AVbad_array_new_length@std@@@8 DD FLAT:??_7type_info@@6B@ ; std::bad_array_new_length `RTTI Type Descriptor'
	DD	00H
	DB	'.?AVbad_array_new_length@std@@', 00H
data$r	ENDS
;	COMDAT __CTA3?AVbad_array_new_length@std@@
xdata$x	SEGMENT
__CTA3?AVbad_array_new_length@std@@ DD 03H
	DD	FLAT:__CT??_R0?AVbad_array_new_length@std@@@8??0bad_array_new_length@std@@QAE@ABV01@@Z12
	DD	FLAT:__CT??_R0?AVbad_alloc@std@@@8??0bad_alloc@std@@QAE@ABV01@@Z12
	DD	FLAT:__CT??_R0?AVexception@std@@@8??0exception@std@@QAE@ABV01@@Z12
xdata$x	ENDS
;	COMDAT __TI3?AVbad_array_new_length@std@@
xdata$x	SEGMENT
__TI3?AVbad_array_new_length@std@@ DD 00H
	DD	FLAT:??1bad_array_new_length@std@@UAE@XZ
	DD	00H
	DD	FLAT:__CTA3?AVbad_array_new_length@std@@
xdata$x	ENDS
;	COMDAT ??_C@_0BF@KINCDENJ@bad?5array?5new?5length@
CONST	SEGMENT
??_C@_0BF@KINCDENJ@bad?5array?5new?5length@ DB 'bad array new length', 00H ; `string'
CONST	ENDS
;	COMDAT ??_7bad_array_new_length@std@@6B@
CONST	SEGMENT
??_7bad_array_new_length@std@@6B@ DD FLAT:??_R4bad_array_new_length@std@@6B@ ; std::bad_array_new_length::`vftable'
	DD	FLAT:??_Ebad_array_new_length@std@@UAEPAXI@Z
	DD	FLAT:?what@exception@std@@UBEPBDXZ
CONST	ENDS
;	COMDAT ??_7bad_alloc@std@@6B@
CONST	SEGMENT
??_7bad_alloc@std@@6B@ DD FLAT:??_R4bad_alloc@std@@6B@	; std::bad_alloc::`vftable'
	DD	FLAT:??_Ebad_alloc@std@@UAEPAXI@Z
	DD	FLAT:?what@exception@std@@UBEPBDXZ
CONST	ENDS
;	COMDAT ??_C@_0BC@EOODALEL@Unknown?5exception@
CONST	SEGMENT
??_C@_0BC@EOODALEL@Unknown?5exception@ DB 'Unknown exception', 00H ; `string'
CONST	ENDS
;	COMDAT ??_7exception@std@@6B@
CONST	SEGMENT
??_7exception@std@@6B@ DD FLAT:??_R4exception@std@@6B@	; std::exception::`vftable'
	DD	FLAT:??_Eexception@std@@UAEPAXI@Z
	DD	FLAT:?what@exception@std@@UBEPBDXZ
CONST	ENDS
;	COMDAT xdata$x
xdata$x	SEGMENT
__unwindtable$?Alloc@?$CDynamicPool@VCEffectMeshScript@@@@QAEPAVCEffectMeshScript@@XZ DD 0ffffffffH
	DD	FLAT:__unwindfunclet$?Alloc@?$CDynamicPool@VCEffectMeshScript@@@@QAEPAVCEffectMeshScript@@XZ$0
__ehfuncinfo$?Alloc@?$CDynamicPool@VCEffectMeshScript@@@@QAEPAVCEffectMeshScript@@XZ DD 019930522H
	DD	01H
	DD	FLAT:__unwindtable$?Alloc@?$CDynamicPool@VCEffectMeshScript@@@@QAEPAVCEffectMeshScript@@XZ
	DD	2 DUP(00H)
	DD	2 DUP(00H)
	DD	00H
	DD	01H
xdata$x	ENDS
;	COMDAT xdata$x
xdata$x	SEGMENT
__unwindtable$?New@CEffectMeshScript@@SAPAV1@XZ DD 0ffffffffH
	DD	FLAT:__unwindfunclet$?New@CEffectMeshScript@@SAPAV1@XZ$0
__ehfuncinfo$?New@CEffectMeshScript@@SAPAV1@XZ DD 019930522H
	DD	01H
	DD	FLAT:__unwindtable$?New@CEffectMeshScript@@SAPAV1@XZ
	DD	2 DUP(00H)
	DD	2 DUP(00H)
	DD	00H
	DD	01H
xdata$x	ENDS
;	COMDAT xdata$x
xdata$x	SEGMENT
__ehfuncinfo$?OnLoadScript@CEffectMeshScript@@MAEHAAVCTextFileLoader@@@Z DD 019930522H
	DD	016H
	DD	FLAT:__unwindtable$?OnLoadScript@CEffectMeshScript@@MAEHAAVCTextFileLoader@@@Z
	DD	2 DUP(00H)
	DD	2 DUP(00H)
	DD	00H
	DD	01H
__unwindtable$?OnLoadScript@CEffectMeshScript@@MAEHAAVCTextFileLoader@@@Z DD 0ffffffffH
	DD	FLAT:__unwindfunclet$?OnLoadScript@CEffectMeshScript@@MAEHAAVCTextFileLoader@@@Z$0
	DD	0ffffffffH
	DD	FLAT:__unwindfunclet$?OnLoadScript@CEffectMeshScript@@MAEHAAVCTextFileLoader@@@Z$2
	DD	0ffffffffH
	DD	FLAT:__unwindfunclet$?OnLoadScript@CEffectMeshScript@@MAEHAAVCTextFileLoader@@@Z$3
	DD	0ffffffffH
	DD	FLAT:__unwindfunclet$?OnLoadScript@CEffectMeshScript@@MAEHAAVCTextFileLoader@@@Z$4
	DD	0ffffffffH
	DD	FLAT:__unwindfunclet$?OnLoadScript@CEffectMeshScript@@MAEHAAVCTextFileLoader@@@Z$5
	DD	0ffffffffH
	DD	FLAT:__unwindfunclet$?OnLoadScript@CEffectMeshScript@@MAEHAAVCTextFileLoader@@@Z$6
	DD	05H
	DD	FLAT:__unwindfunclet$?OnLoadScript@CEffectMeshScript@@MAEHAAVCTextFileLoader@@@Z$7
	DD	0ffffffffH
	DD	00H
	DD	05H
	DD	FLAT:__unwindfunclet$?OnLoadScript@CEffectMeshScript@@MAEHAAVCTextFileLoader@@@Z$8
	DD	0ffffffffH
	DD	00H
	DD	05H
	DD	FLAT:__unwindfunclet$?OnLoadScript@CEffectMeshScript@@MAEHAAVCTextFileLoader@@@Z$9
	DD	0ffffffffH
	DD	00H
	DD	05H
	DD	FLAT:__unwindfunclet$?OnLoadScript@CEffectMeshScript@@MAEHAAVCTextFileLoader@@@Z$10
	DD	0ffffffffH
	DD	00H
	DD	05H
	DD	FLAT:__unwindfunclet$?OnLoadScript@CEffectMeshScript@@MAEHAAVCTextFileLoader@@@Z$11
	DD	0ffffffffH
	DD	00H
	DD	05H
	DD	FLAT:__unwindfunclet$?OnLoadScript@CEffectMeshScript@@MAEHAAVCTextFileLoader@@@Z$12
	DD	0ffffffffH
	DD	FLAT:___std_terminate
	DD	05H
	DD	FLAT:__unwindfunclet$?OnLoadScript@CEffectMeshScript@@MAEHAAVCTextFileLoader@@@Z$13
	DD	05H
	DD	FLAT:__unwindfunclet$?OnLoadScript@CEffectMeshScript@@MAEHAAVCTextFileLoader@@@Z$14
	DD	05H
	DD	FLAT:__unwindfunclet$?OnLoadScript@CEffectMeshScript@@MAEHAAVCTextFileLoader@@@Z$15
	DD	0ffffffffH
	DD	FLAT:___std_terminate
xdata$x	ENDS
;	COMDAT xdata$x
xdata$x	SEGMENT
__ehfuncinfo$?__LoadData_Ver002@CEffectMesh@@IAEHHPBE@Z DD 019930522H
	DD	0aH
	DD	FLAT:__unwindtable$?__LoadData_Ver002@CEffectMesh@@IAEHHPBE@Z
	DD	2 DUP(00H)
	DD	2 DUP(00H)
	DD	00H
	DD	01H
__unwindtable$?__LoadData_Ver002@CEffectMesh@@IAEHHPBE@Z DD 0ffffffffH
	DD	FLAT:__unwindfunclet$?__LoadData_Ver002@CEffectMesh@@IAEHHPBE@Z$0
	DD	00H
	DD	FLAT:__unwindfunclet$?__LoadData_Ver002@CEffectMesh@@IAEHHPBE@Z$1
	DD	01H
	DD	FLAT:__unwindfunclet$?__LoadData_Ver002@CEffectMesh@@IAEHHPBE@Z$2
	DD	02H
	DD	FLAT:__unwindfunclet$?__LoadData_Ver002@CEffectMesh@@IAEHHPBE@Z$3
	DD	03H
	DD	FLAT:__unwindfunclet$?__LoadData_Ver002@CEffectMesh@@IAEHHPBE@Z$4
	DD	04H
	DD	FLAT:__unwindfunclet$?__LoadData_Ver002@CEffectMesh@@IAEHHPBE@Z$5
	DD	05H
	DD	FLAT:__unwindfunclet$?__LoadData_Ver002@CEffectMesh@@IAEHHPBE@Z$6
	DD	06H
	DD	FLAT:__unwindfunclet$?__LoadData_Ver002@CEffectMesh@@IAEHHPBE@Z$7
	DD	07H
	DD	FLAT:__unwindfunclet$?__LoadData_Ver002@CEffectMesh@@IAEHHPBE@Z$8
	DD	08H
	DD	FLAT:__unwindfunclet$?__LoadData_Ver002@CEffectMesh@@IAEHHPBE@Z$9
xdata$x	ENDS
;	COMDAT xdata$x
xdata$x	SEGMENT
__ehfuncinfo$?__LoadData_Ver001@CEffectMesh@@IAEHHPBE@Z DD 019930522H
	DD	0aH
	DD	FLAT:__unwindtable$?__LoadData_Ver001@CEffectMesh@@IAEHHPBE@Z
	DD	2 DUP(00H)
	DD	2 DUP(00H)
	DD	00H
	DD	01H
__unwindtable$?__LoadData_Ver001@CEffectMesh@@IAEHHPBE@Z DD 0ffffffffH
	DD	FLAT:__unwindfunclet$?__LoadData_Ver001@CEffectMesh@@IAEHHPBE@Z$0
	DD	00H
	DD	FLAT:__unwindfunclet$?__LoadData_Ver001@CEffectMesh@@IAEHHPBE@Z$1
	DD	01H
	DD	FLAT:__unwindfunclet$?__LoadData_Ver001@CEffectMesh@@IAEHHPBE@Z$2
	DD	02H
	DD	FLAT:__unwindfunclet$?__LoadData_Ver001@CEffectMesh@@IAEHHPBE@Z$3
	DD	03H
	DD	FLAT:__unwindfunclet$?__LoadData_Ver001@CEffectMesh@@IAEHHPBE@Z$4
	DD	04H
	DD	FLAT:__unwindfunclet$?__LoadData_Ver001@CEffectMesh@@IAEHHPBE@Z$5
	DD	05H
	DD	FLAT:__unwindfunclet$?__LoadData_Ver001@CEffectMesh@@IAEHHPBE@Z$6
	DD	06H
	DD	FLAT:__unwindfunclet$?__LoadData_Ver001@CEffectMesh@@IAEHHPBE@Z$7
	DD	07H
	DD	FLAT:__unwindfunclet$?__LoadData_Ver001@CEffectMesh@@IAEHHPBE@Z$8
	DD	08H
	DD	FLAT:__unwindfunclet$?__LoadData_Ver001@CEffectMesh@@IAEHHPBE@Z$9
xdata$x	ENDS
;	COMDAT xdata$x
xdata$x	SEGMENT
__unwindtable$?Type@CEffectMesh@@SAKXZ DD 0ffffffffH
	DD	FLAT:__unwindfunclet$?Type@CEffectMesh@@SAKXZ$0
__ehfuncinfo$?Type@CEffectMesh@@SAKXZ DD 019930522H
	DD	01H
	DD	FLAT:__unwindtable$?Type@CEffectMesh@@SAKXZ
	DD	2 DUP(00H)
	DD	2 DUP(00H)
	DD	00H
	DD	01H
xdata$x	ENDS
;	COMDAT xdata$x
xdata$x	SEGMENT
__ehfuncinfo$??1CGotoChild@CTextFileLoader@@QAE@XZ DD 019930522H
	DD	00H
	DD	00H
	DD	2 DUP(00H)
	DD	2 DUP(00H)
	DD	00H
	DD	05H
xdata$x	ENDS
CRT$XCU	SEGMENT
??ms_kPool$initializer$@CEffectMeshScript@@2P6AXXZA@@3P6AXXZA DD FLAT:??__E?ms_kPool@CEffectMeshScript@@2V?$CDynamicPool@VCEffectMeshScript@@@@A@@YAXXZ ; ??ms_kPool$initializer$@CEffectMeshScript@@2P6AXXZA@@3P6AXXZA
CRT$XCU	ENDS
; Function compile flags: /Ogtp
; File C:\Program Files (x86)\Microsoft Visual Studio\2019\Community\VC\Tools\MSVC\14.27.29110\include\xutility
;	COMDAT ??$_Copy_memmove@PAHPAH@std@@YAPAHPAH00@Z
_TEXT	SEGMENT
__First$ = 8						; size = 4
__Last$ = 12						; size = 4
__Dest$ = 16						; size = 4
??$_Copy_memmove@PAHPAH@std@@YAPAHPAH00@Z PROC		; std::_Copy_memmove<int *,int *>, COMDAT

; 4113 : _OutIt _Copy_memmove(_InIt _First, _InIt _Last, _OutIt _Dest) {

  00000	55		 push	 ebp
  00001	8b ec		 mov	 ebp, esp

; 4114 :     const char* const _First_ch = const_cast<const char*>(reinterpret_cast<const volatile char*>(_First));
; 4115 :     const char* const _Last_ch  = const_cast<const char*>(reinterpret_cast<const volatile char*>(_Last));
; 4116 :     char* const _Dest_ch        = const_cast<char*>(reinterpret_cast<volatile char*>(_Dest));
; 4117 :     const auto _Count           = static_cast<size_t>(_Last_ch - _First_ch);

  00003	8b 45 08	 mov	 eax, DWORD PTR __First$[ebp]
  00006	56		 push	 esi

; 4118 :     _CSTD memmove(_Dest_ch, _First_ch, _Count);

  00007	8b 75 10	 mov	 esi, DWORD PTR __Dest$[ebp]
  0000a	57		 push	 edi
  0000b	8b 7d 0c	 mov	 edi, DWORD PTR __Last$[ebp]
  0000e	2b f8		 sub	 edi, eax
  00010	57		 push	 edi
  00011	50		 push	 eax
  00012	56		 push	 esi
  00013	e8 00 00 00 00	 call	 _memmove
  00018	83 c4 0c	 add	 esp, 12			; 0000000cH

; 4119 :     return reinterpret_cast<_OutIt>(_Dest_ch + _Count);

  0001b	8d 04 37	 lea	 eax, DWORD PTR [edi+esi]
  0001e	5f		 pop	 edi
  0001f	5e		 pop	 esi

; 4120 : }

  00020	5d		 pop	 ebp
  00021	c3		 ret	 0
??$_Copy_memmove@PAHPAH@std@@YAPAHPAH00@Z ENDP		; std::_Copy_memmove<int *,int *>
_TEXT	ENDS
; Function compile flags: /Ogtp
; File C:\Program Files (x86)\Microsoft Visual Studio\2019\Community\VC\Tools\MSVC\14.27.29110\include\xmemory
;	COMDAT ??$_Uninitialized_move@PAUSPTVertex@@V?$allocator@USPTVertex@@@std@@@std@@YAPAUSPTVertex@@QAU1@0PAU1@AAV?$allocator@USPTVertex@@@0@@Z
_TEXT	SEGMENT
__First$ = 8						; size = 4
__Last$ = 12						; size = 4
__Dest$ = 16						; size = 4
__Al$ = 20						; size = 4
??$_Uninitialized_move@PAUSPTVertex@@V?$allocator@USPTVertex@@@std@@@std@@YAPAUSPTVertex@@QAU1@0PAU1@AAV?$allocator@USPTVertex@@@0@@Z PROC ; std::_Uninitialized_move<SPTVertex *,std::allocator<SPTVertex> >, COMDAT

; 1647 :     const _InIt _First, const _InIt _Last, _Alloc_ptr_t<_Alloc> _Dest, _Alloc& _Al) {

  00000	55		 push	 ebp
  00001	8b ec		 mov	 ebp, esp

; 1648 :     // move [_First, _Last) to raw _Dest, using _Al
; 1649 :     // note: only called internally from elsewhere in the STL
; 1650 :     using _Ptrval     = typename _Alloc::value_type*;
; 1651 :     auto _UFirst      = _Get_unwrapped(_First);
; 1652 :     const auto _ULast = _Get_unwrapped(_Last);
; 1653 :     if constexpr (conjunction_v<bool_constant<_Ptr_move_cat<decltype(_UFirst), _Ptrval>::_Really_trivial>,
; 1654 :                       _Uses_default_construct<_Alloc, _Ptrval, decltype(_STD move(*_UFirst))>>) {
; 1655 :         _Copy_memmove(_UFirst, _ULast, _Unfancy(_Dest));
; 1656 :         return _Dest + (_ULast - _UFirst);
; 1657 :     } else {
; 1658 :         _Uninitialized_backout_al<_Alloc> _Backout{_Dest, _Al};
; 1659 :         for (; _UFirst != _ULast; ++_UFirst) {

  00003	8b 4d 08	 mov	 ecx, DWORD PTR __First$[ebp]

; 1497 :     _Uninitialized_backout_al(pointer _Dest, _Alloc& _Al_) : _First(_Dest), _Last(_Dest), _Al(_Al_) {}

  00006	8b 45 10	 mov	 eax, DWORD PTR __Dest$[ebp]

; 1647 :     const _InIt _First, const _InIt _Last, _Alloc_ptr_t<_Alloc> _Dest, _Alloc& _Al) {

  00009	56		 push	 esi

; 1648 :     // move [_First, _Last) to raw _Dest, using _Al
; 1649 :     // note: only called internally from elsewhere in the STL
; 1650 :     using _Ptrval     = typename _Alloc::value_type*;
; 1651 :     auto _UFirst      = _Get_unwrapped(_First);
; 1652 :     const auto _ULast = _Get_unwrapped(_Last);
; 1653 :     if constexpr (conjunction_v<bool_constant<_Ptr_move_cat<decltype(_UFirst), _Ptrval>::_Really_trivial>,
; 1654 :                       _Uses_default_construct<_Alloc, _Ptrval, decltype(_STD move(*_UFirst))>>) {
; 1655 :         _Copy_memmove(_UFirst, _ULast, _Unfancy(_Dest));
; 1656 :         return _Dest + (_ULast - _UFirst);
; 1657 :     } else {
; 1658 :         _Uninitialized_backout_al<_Alloc> _Backout{_Dest, _Al};
; 1659 :         for (; _UFirst != _ULast; ++_UFirst) {

  0000a	8b 75 0c	 mov	 esi, DWORD PTR __Last$[ebp]
  0000d	3b ce		 cmp	 ecx, esi
  0000f	74 16		 je	 SHORT $LN3@Uninitiali
$LL4@Uninitiali:

; 694  :         ::new (const_cast<void*>(static_cast<const volatile void*>(_Ptr))) _Objty(_STD forward<_Types>(_Args)...);

  00011	0f 10 01	 movups	 xmm0, XMMWORD PTR [ecx]
  00014	0f 11 00	 movups	 XMMWORD PTR [eax], xmm0
  00017	8b 51 10	 mov	 edx, DWORD PTR [ecx+16]

; 1509 :         ++_Last;

  0001a	83 c1 14	 add	 ecx, 20			; 00000014H

; 694  :         ::new (const_cast<void*>(static_cast<const volatile void*>(_Ptr))) _Objty(_STD forward<_Types>(_Args)...);

  0001d	89 50 10	 mov	 DWORD PTR [eax+16], edx

; 1509 :         ++_Last;

  00020	83 c0 14	 add	 eax, 20			; 00000014H

; 1648 :     // move [_First, _Last) to raw _Dest, using _Al
; 1649 :     // note: only called internally from elsewhere in the STL
; 1650 :     using _Ptrval     = typename _Alloc::value_type*;
; 1651 :     auto _UFirst      = _Get_unwrapped(_First);
; 1652 :     const auto _ULast = _Get_unwrapped(_Last);
; 1653 :     if constexpr (conjunction_v<bool_constant<_Ptr_move_cat<decltype(_UFirst), _Ptrval>::_Really_trivial>,
; 1654 :                       _Uses_default_construct<_Alloc, _Ptrval, decltype(_STD move(*_UFirst))>>) {
; 1655 :         _Copy_memmove(_UFirst, _ULast, _Unfancy(_Dest));
; 1656 :         return _Dest + (_ULast - _UFirst);
; 1657 :     } else {
; 1658 :         _Uninitialized_backout_al<_Alloc> _Backout{_Dest, _Al};
; 1659 :         for (; _UFirst != _ULast; ++_UFirst) {

  00023	3b ce		 cmp	 ecx, esi
  00025	75 ea		 jne	 SHORT $LL4@Uninitiali
$LN3@Uninitiali:
  00027	5e		 pop	 esi

; 1660 :             _Backout._Emplace_back(_STD move(*_UFirst));
; 1661 :         }
; 1662 : 
; 1663 :         return _Backout._Release();
; 1664 :     }
; 1665 : }

  00028	5d		 pop	 ebp
  00029	c3		 ret	 0
??$_Uninitialized_move@PAUSPTVertex@@V?$allocator@USPTVertex@@@std@@@std@@YAPAUSPTVertex@@QAU1@0PAU1@AAV?$allocator@USPTVertex@@@0@@Z ENDP ; std::_Uninitialized_move<SPTVertex *,std::allocator<SPTVertex> >
_TEXT	ENDS
; Function compile flags: /Ogtp
; File C:\Program Files (x86)\Microsoft Visual Studio\2019\Community\VC\Tools\MSVC\14.27.29110\include\xmemory
; File C:\Program Files (x86)\Microsoft Visual Studio\2019\Community\VC\Tools\MSVC\14.27.29110\include\vector
; File C:\Program Files (x86)\Microsoft Visual Studio\2019\Community\VC\Tools\MSVC\14.27.29110\include\xmemory
; File C:\Program Files (x86)\Microsoft Visual Studio\2019\Community\VC\Tools\MSVC\14.27.29110\include\vector
; File C:\Program Files (x86)\Microsoft Visual Studio\2019\Community\VC\Tools\MSVC\14.27.29110\include\xmemory
;	COMDAT ??$_Uninitialized_move@PAUSEffectFrameData@CEffectMesh@@V?$allocator@USEffectFrameData@CEffectMesh@@@std@@@std@@YAPAUSEffectFrameData@CEffectMesh@@QAU12@0PAU12@AAV?$allocator@USEffectFrameData@CEffectMesh@@@0@@Z
_TEXT	SEGMENT
__First$ = 8						; size = 4
__Last$ = 12						; size = 4
__Dest$ = 16						; size = 4
__Al$ = 20						; size = 4
??$_Uninitialized_move@PAUSEffectFrameData@CEffectMesh@@V?$allocator@USEffectFrameData@CEffectMesh@@@std@@@std@@YAPAUSEffectFrameData@CEffectMesh@@QAU12@0PAU12@AAV?$allocator@USEffectFrameData@CEffectMesh@@@0@@Z PROC ; std::_Uninitialized_move<CEffectMesh::SEffectFrameData *,std::allocator<CEffectMesh::SEffectFrameData> >, COMDAT

; 1647 :     const _InIt _First, const _InIt _Last, _Alloc_ptr_t<_Alloc> _Dest, _Alloc& _Al) {

  00000	55		 push	 ebp
  00001	8b ec		 mov	 ebp, esp

; 1659 :         for (; _UFirst != _ULast; ++_UFirst) {

  00003	8b 45 08	 mov	 eax, DWORD PTR __First$[ebp]
  00006	53		 push	 ebx
  00007	8b 5d 0c	 mov	 ebx, DWORD PTR __Last$[ebp]
  0000a	56		 push	 esi

; 1497 :     _Uninitialized_backout_al(pointer _Dest, _Alloc& _Al_) : _First(_Dest), _Last(_Dest), _Al(_Al_) {}

  0000b	8b 75 10	 mov	 esi, DWORD PTR __Dest$[ebp]

; 1659 :         for (; _UFirst != _ULast; ++_UFirst) {

  0000e	3b c3		 cmp	 eax, ebx
  00010	74 7a		 je	 SHORT $LN3@Uninitiali

; 1497 :     _Uninitialized_backout_al(pointer _Dest, _Alloc& _Al_) : _First(_Dest), _Last(_Dest), _Al(_Al_) {}

  00012	57		 push	 edi
  00013	8b fe		 mov	 edi, esi
  00015	8d 56 18	 lea	 edx, DWORD PTR [esi+24]
  00018	8d 48 1c	 lea	 ecx, DWORD PTR [eax+28]
  0001b	2b f8		 sub	 edi, eax
  0001d	0f 1f 00	 npad	 3
$LL4@Uninitiali:
  00020	8a 41 e4	 mov	 al, BYTE PTR [ecx-28]

; 1509 :         ++_Last;

  00023	8d 49 20	 lea	 ecx, DWORD PTR [ecx+32]
  00026	88 06		 mov	 BYTE PTR [esi], al
  00028	8d 52 20	 lea	 edx, DWORD PTR [edx+32]
  0002b	8b 41 c8	 mov	 eax, DWORD PTR [ecx-56]
  0002e	83 c6 20	 add	 esi, 32			; 00000020H
  00031	89 42 cc	 mov	 DWORD PTR [edx-52], eax
  00034	8b 41 cc	 mov	 eax, DWORD PTR [ecx-52]
  00037	89 42 d0	 mov	 DWORD PTR [edx-48], eax
  0003a	8b 41 d0	 mov	 eax, DWORD PTR [ecx-48]
  0003d	89 42 d4	 mov	 DWORD PTR [edx-44], eax
  00040	8b 41 d4	 mov	 eax, DWORD PTR [ecx-44]
  00043	89 42 d8	 mov	 DWORD PTR [edx-40], eax
; File C:\Program Files (x86)\Microsoft Visual Studio\2019\Community\VC\Tools\MSVC\14.27.29110\include\vector

; 375  :     _Vector_val() noexcept : _Myfirst(), _Mylast(), _Myend() {}

  00046	c7 42 dc 00 00
	00 00		 mov	 DWORD PTR [edx-36], 0
  0004d	c7 42 e0 00 00
	00 00		 mov	 DWORD PTR [edx-32], 0
  00054	c7 44 0f e0 00
	00 00 00	 mov	 DWORD PTR [edi+ecx-32], 0

; 386  :         _Myfirst = _Right._Myfirst;

  0005c	8b 41 d8	 mov	 eax, DWORD PTR [ecx-40]
  0005f	89 42 dc	 mov	 DWORD PTR [edx-36], eax

; 387  :         _Mylast  = _Right._Mylast;

  00062	8b 41 dc	 mov	 eax, DWORD PTR [ecx-36]
  00065	89 42 e0	 mov	 DWORD PTR [edx-32], eax

; 388  :         _Myend   = _Right._Myend;

  00068	8b 41 e0	 mov	 eax, DWORD PTR [ecx-32]
  0006b	89 44 0f e0	 mov	 DWORD PTR [edi+ecx-32], eax
; File C:\Program Files (x86)\Microsoft Visual Studio\2019\Community\VC\Tools\MSVC\14.27.29110\include\xmemory

; 1659 :         for (; _UFirst != _ULast; ++_UFirst) {

  0006f	8d 41 e4	 lea	 eax, DWORD PTR [ecx-28]
; File C:\Program Files (x86)\Microsoft Visual Studio\2019\Community\VC\Tools\MSVC\14.27.29110\include\vector

; 390  :         _Right._Myfirst = pointer();

  00072	c7 41 d8 00 00
	00 00		 mov	 DWORD PTR [ecx-40], 0

; 391  :         _Right._Mylast  = pointer();

  00079	c7 41 dc 00 00
	00 00		 mov	 DWORD PTR [ecx-36], 0

; 392  :         _Right._Myend   = pointer();

  00080	c7 41 e0 00 00
	00 00		 mov	 DWORD PTR [ecx-32], 0
; File C:\Program Files (x86)\Microsoft Visual Studio\2019\Community\VC\Tools\MSVC\14.27.29110\include\xmemory

; 1659 :         for (; _UFirst != _ULast; ++_UFirst) {

  00087	3b c3		 cmp	 eax, ebx
  00089	75 95		 jne	 SHORT $LL4@Uninitiali
  0008b	5f		 pop	 edi
$LN3@Uninitiali:

; 1503 :         _Destroy_range(_First, _Last, _Al);

  0008c	ff 75 14	 push	 DWORD PTR __Al$[ebp]
  0008f	56		 push	 esi
  00090	56		 push	 esi
  00091	e8 00 00 00 00	 call	 ??$_Destroy_range@V?$allocator@USEffectFrameData@CEffectMesh@@@std@@@std@@YAXPAUSEffectFrameData@CEffectMesh@@QAU12@AAV?$allocator@USEffectFrameData@CEffectMesh@@@0@@Z ; std::_Destroy_range<std::allocator<CEffectMesh::SEffectFrameData> >
  00096	83 c4 0c	 add	 esp, 12			; 0000000cH

; 1660 :             _Backout._Emplace_back(_STD move(*_UFirst));
; 1661 :         }
; 1662 : 
; 1663 :         return _Backout._Release();

  00099	8b c6		 mov	 eax, esi
  0009b	5e		 pop	 esi
  0009c	5b		 pop	 ebx

; 1664 :     }
; 1665 : }

  0009d	5d		 pop	 ebp
  0009e	c3		 ret	 0
??$_Uninitialized_move@PAUSEffectFrameData@CEffectMesh@@V?$allocator@USEffectFrameData@CEffectMesh@@@std@@@std@@YAPAUSEffectFrameData@CEffectMesh@@QAU12@0PAU12@AAV?$allocator@USEffectFrameData@CEffectMesh@@@0@@Z ENDP ; std::_Uninitialized_move<CEffectMesh::SEffectFrameData *,std::allocator<CEffectMesh::SEffectFrameData> >
_TEXT	ENDS
; Function compile flags: /Ogtp
; File C:\Program Files (x86)\Microsoft Visual Studio\2019\Community\VC\Tools\MSVC\14.27.29110\include\xmemory
; File C:\Program Files (x86)\Microsoft Visual Studio\2019\Community\VC\Tools\MSVC\14.27.29110\include\vector
; File C:\Program Files (x86)\Microsoft Visual Studio\2019\Community\VC\Tools\MSVC\14.27.29110\include\xmemory
; File C:\Program Files (x86)\Microsoft Visual Studio\2019\Community\VC\Tools\MSVC\14.27.29110\include\vector
; File C:\Program Files (x86)\Microsoft Visual Studio\2019\Community\VC\Tools\MSVC\14.27.29110\include\xmemory
;	COMDAT ??$_Uninitialized_move@PAUSMeshData@CEffectMeshScript@@V?$allocator@USMeshData@CEffectMeshScript@@@std@@@std@@YAPAUSMeshData@CEffectMeshScript@@QAU12@0PAU12@AAV?$allocator@USMeshData@CEffectMeshScript@@@0@@Z
_TEXT	SEGMENT
__First$ = 8						; size = 4
__Last$ = 12						; size = 4
__Dest$ = 16						; size = 4
__Al$ = 20						; size = 4
??$_Uninitialized_move@PAUSMeshData@CEffectMeshScript@@V?$allocator@USMeshData@CEffectMeshScript@@@std@@@std@@YAPAUSMeshData@CEffectMeshScript@@QAU12@0PAU12@AAV?$allocator@USMeshData@CEffectMeshScript@@@0@@Z PROC ; std::_Uninitialized_move<CEffectMeshScript::SMeshData *,std::allocator<CEffectMeshScript::SMeshData> >, COMDAT

; 1647 :     const _InIt _First, const _InIt _Last, _Alloc_ptr_t<_Alloc> _Dest, _Alloc& _Al) {

  00000	55		 push	 ebp
  00001	8b ec		 mov	 ebp, esp

; 1659 :         for (; _UFirst != _ULast; ++_UFirst) {

  00003	8b 45 08	 mov	 eax, DWORD PTR __First$[ebp]
  00006	53		 push	 ebx
  00007	8b 5d 0c	 mov	 ebx, DWORD PTR __Last$[ebp]
  0000a	56		 push	 esi

; 1497 :     _Uninitialized_backout_al(pointer _Dest, _Alloc& _Al_) : _First(_Dest), _Last(_Dest), _Al(_Al_) {}

  0000b	8b 75 10	 mov	 esi, DWORD PTR __Dest$[ebp]

; 1659 :         for (; _UFirst != _ULast; ++_UFirst) {

  0000e	3b c3		 cmp	 eax, ebx
  00010	0f 84 9f 00 00
	00		 je	 $LN3@Uninitiali

; 1497 :     _Uninitialized_backout_al(pointer _Dest, _Alloc& _Al_) : _First(_Dest), _Last(_Dest), _Al(_Al_) {}

  00016	57		 push	 edi
  00017	8b fe		 mov	 edi, esi
  00019	8d 56 34	 lea	 edx, DWORD PTR [esi+52]
  0001c	8d 48 38	 lea	 ecx, DWORD PTR [eax+56]
  0001f	2b f8		 sub	 edi, eax
$LL4@Uninitiali:
  00021	0f b6 41 c8	 movzx	 eax, BYTE PTR [ecx-56]

; 1509 :         ++_Last;

  00025	8d 49 3c	 lea	 ecx, DWORD PTR [ecx+60]
  00028	88 06		 mov	 BYTE PTR [esi], al
  0002a	8d 52 3c	 lea	 edx, DWORD PTR [edx+60]
  0002d	8b 41 90	 mov	 eax, DWORD PTR [ecx-112]
  00030	83 c6 3c	 add	 esi, 60			; 0000003cH
  00033	89 42 94	 mov	 DWORD PTR [edx-108], eax
  00036	0f b6 41 94	 movzx	 eax, BYTE PTR [ecx-108]
  0003a	88 42 98	 mov	 BYTE PTR [edx-104], al
  0003d	0f b6 41 95	 movzx	 eax, BYTE PTR [ecx-107]
  00041	88 42 99	 mov	 BYTE PTR [edx-103], al
  00044	8b 41 98	 mov	 eax, DWORD PTR [ecx-104]
  00047	89 42 9c	 mov	 DWORD PTR [edx-100], eax
  0004a	0f b6 41 9c	 movzx	 eax, BYTE PTR [ecx-100]
  0004e	88 42 a0	 mov	 BYTE PTR [edx-96], al
  00051	0f 10 41 a0	 movups	 xmm0, XMMWORD PTR [ecx-96]
  00055	0f 11 42 a4	 movups	 XMMWORD PTR [edx-92], xmm0
  00059	8b 41 b0	 mov	 eax, DWORD PTR [ecx-80]
  0005c	89 42 b4	 mov	 DWORD PTR [edx-76], eax
  0005f	8b 41 b4	 mov	 eax, DWORD PTR [ecx-76]
  00062	89 42 b8	 mov	 DWORD PTR [edx-72], eax
  00065	8b 41 b8	 mov	 eax, DWORD PTR [ecx-72]
  00068	89 42 bc	 mov	 DWORD PTR [edx-68], eax
; File C:\Program Files (x86)\Microsoft Visual Studio\2019\Community\VC\Tools\MSVC\14.27.29110\include\vector

; 375  :     _Vector_val() noexcept : _Myfirst(), _Mylast(), _Myend() {}

  0006b	c7 42 c0 00 00
	00 00		 mov	 DWORD PTR [edx-64], 0
  00072	c7 42 c4 00 00
	00 00		 mov	 DWORD PTR [edx-60], 0
  00079	c7 44 0f c4 00
	00 00 00	 mov	 DWORD PTR [edi+ecx-60], 0

; 386  :         _Myfirst = _Right._Myfirst;

  00081	8b 41 bc	 mov	 eax, DWORD PTR [ecx-68]
  00084	89 42 c0	 mov	 DWORD PTR [edx-64], eax

; 387  :         _Mylast  = _Right._Mylast;

  00087	8b 41 c0	 mov	 eax, DWORD PTR [ecx-64]
  0008a	89 42 c4	 mov	 DWORD PTR [edx-60], eax

; 388  :         _Myend   = _Right._Myend;

  0008d	8b 41 c4	 mov	 eax, DWORD PTR [ecx-60]
  00090	89 44 0f c4	 mov	 DWORD PTR [edi+ecx-60], eax
; File C:\Program Files (x86)\Microsoft Visual Studio\2019\Community\VC\Tools\MSVC\14.27.29110\include\xmemory

; 1659 :         for (; _UFirst != _ULast; ++_UFirst) {

  00094	8d 41 c8	 lea	 eax, DWORD PTR [ecx-56]
; File C:\Program Files (x86)\Microsoft Visual Studio\2019\Community\VC\Tools\MSVC\14.27.29110\include\vector

; 390  :         _Right._Myfirst = pointer();

  00097	c7 41 bc 00 00
	00 00		 mov	 DWORD PTR [ecx-68], 0

; 391  :         _Right._Mylast  = pointer();

  0009e	c7 41 c0 00 00
	00 00		 mov	 DWORD PTR [ecx-64], 0

; 392  :         _Right._Myend   = pointer();

  000a5	c7 41 c4 00 00
	00 00		 mov	 DWORD PTR [ecx-60], 0
; File C:\Program Files (x86)\Microsoft Visual Studio\2019\Community\VC\Tools\MSVC\14.27.29110\include\xmemory

; 1659 :         for (; _UFirst != _ULast; ++_UFirst) {

  000ac	3b c3		 cmp	 eax, ebx
  000ae	0f 85 6d ff ff
	ff		 jne	 $LL4@Uninitiali
  000b4	5f		 pop	 edi
$LN3@Uninitiali:

; 1503 :         _Destroy_range(_First, _Last, _Al);

  000b5	ff 75 14	 push	 DWORD PTR __Al$[ebp]
  000b8	56		 push	 esi
  000b9	56		 push	 esi
  000ba	e8 00 00 00 00	 call	 ??$_Destroy_range@V?$allocator@USMeshData@CEffectMeshScript@@@std@@@std@@YAXPAUSMeshData@CEffectMeshScript@@QAU12@AAV?$allocator@USMeshData@CEffectMeshScript@@@0@@Z ; std::_Destroy_range<std::allocator<CEffectMeshScript::SMeshData> >
  000bf	83 c4 0c	 add	 esp, 12			; 0000000cH

; 1660 :             _Backout._Emplace_back(_STD move(*_UFirst));
; 1661 :         }
; 1662 : 
; 1663 :         return _Backout._Release();

  000c2	8b c6		 mov	 eax, esi
  000c4	5e		 pop	 esi
  000c5	5b		 pop	 ebx

; 1664 :     }
; 1665 : }

  000c6	5d		 pop	 ebp
  000c7	c3		 ret	 0
??$_Uninitialized_move@PAUSMeshData@CEffectMeshScript@@V?$allocator@USMeshData@CEffectMeshScript@@@std@@@std@@YAPAUSMeshData@CEffectMeshScript@@QAU12@0PAU12@AAV?$allocator@USMeshData@CEffectMeshScript@@@0@@Z ENDP ; std::_Uninitialized_move<CEffectMeshScript::SMeshData *,std::allocator<CEffectMeshScript::SMeshData> >
_TEXT	ENDS
; Function compile flags: /Ogtp
; File C:\Program Files (x86)\Microsoft Visual Studio\2019\Community\VC\Tools\MSVC\14.27.29110\include\xmemory
;	COMDAT ??$_Uninitialized_move@PAUD3DXVECTOR3@@V?$allocator@UD3DXVECTOR3@@@std@@@std@@YAPAUD3DXVECTOR3@@QAU1@0PAU1@AAV?$allocator@UD3DXVECTOR3@@@0@@Z
_TEXT	SEGMENT
__First$ = 8						; size = 4
__Last$ = 12						; size = 4
__Dest$ = 16						; size = 4
__Al$ = 20						; size = 4
??$_Uninitialized_move@PAUD3DXVECTOR3@@V?$allocator@UD3DXVECTOR3@@@std@@@std@@YAPAUD3DXVECTOR3@@QAU1@0PAU1@AAV?$allocator@UD3DXVECTOR3@@@0@@Z PROC ; std::_Uninitialized_move<D3DXVECTOR3 *,std::allocator<D3DXVECTOR3> >, COMDAT

; 1647 :     const _InIt _First, const _InIt _Last, _Alloc_ptr_t<_Alloc> _Dest, _Alloc& _Al) {

  00000	55		 push	 ebp
  00001	8b ec		 mov	 ebp, esp

; 1648 :     // move [_First, _Last) to raw _Dest, using _Al
; 1649 :     // note: only called internally from elsewhere in the STL
; 1650 :     using _Ptrval     = typename _Alloc::value_type*;
; 1651 :     auto _UFirst      = _Get_unwrapped(_First);
; 1652 :     const auto _ULast = _Get_unwrapped(_Last);
; 1653 :     if constexpr (conjunction_v<bool_constant<_Ptr_move_cat<decltype(_UFirst), _Ptrval>::_Really_trivial>,
; 1654 :                       _Uses_default_construct<_Alloc, _Ptrval, decltype(_STD move(*_UFirst))>>) {
; 1655 :         _Copy_memmove(_UFirst, _ULast, _Unfancy(_Dest));
; 1656 :         return _Dest + (_ULast - _UFirst);
; 1657 :     } else {
; 1658 :         _Uninitialized_backout_al<_Alloc> _Backout{_Dest, _Al};
; 1659 :         for (; _UFirst != _ULast; ++_UFirst) {

  00003	8b 4d 08	 mov	 ecx, DWORD PTR __First$[ebp]

; 1497 :     _Uninitialized_backout_al(pointer _Dest, _Alloc& _Al_) : _First(_Dest), _Last(_Dest), _Al(_Al_) {}

  00006	8b 45 10	 mov	 eax, DWORD PTR __Dest$[ebp]

; 1647 :     const _InIt _First, const _InIt _Last, _Alloc_ptr_t<_Alloc> _Dest, _Alloc& _Al) {

  00009	56		 push	 esi

; 1648 :     // move [_First, _Last) to raw _Dest, using _Al
; 1649 :     // note: only called internally from elsewhere in the STL
; 1650 :     using _Ptrval     = typename _Alloc::value_type*;
; 1651 :     auto _UFirst      = _Get_unwrapped(_First);
; 1652 :     const auto _ULast = _Get_unwrapped(_Last);
; 1653 :     if constexpr (conjunction_v<bool_constant<_Ptr_move_cat<decltype(_UFirst), _Ptrval>::_Really_trivial>,
; 1654 :                       _Uses_default_construct<_Alloc, _Ptrval, decltype(_STD move(*_UFirst))>>) {
; 1655 :         _Copy_memmove(_UFirst, _ULast, _Unfancy(_Dest));
; 1656 :         return _Dest + (_ULast - _UFirst);
; 1657 :     } else {
; 1658 :         _Uninitialized_backout_al<_Alloc> _Backout{_Dest, _Al};
; 1659 :         for (; _UFirst != _ULast; ++_UFirst) {

  0000a	8b 75 0c	 mov	 esi, DWORD PTR __Last$[ebp]
  0000d	3b ce		 cmp	 ecx, esi
  0000f	74 18		 je	 SHORT $LN3@Uninitiali
$LL4@Uninitiali:

; 694  :         ::new (const_cast<void*>(static_cast<const volatile void*>(_Ptr))) _Objty(_STD forward<_Types>(_Args)...);

  00011	f3 0f 7e 01	 movq	 xmm0, QWORD PTR [ecx]
  00015	66 0f d6 00	 movq	 QWORD PTR [eax], xmm0
  00019	8b 51 08	 mov	 edx, DWORD PTR [ecx+8]

; 1509 :         ++_Last;

  0001c	83 c1 0c	 add	 ecx, 12			; 0000000cH

; 694  :         ::new (const_cast<void*>(static_cast<const volatile void*>(_Ptr))) _Objty(_STD forward<_Types>(_Args)...);

  0001f	89 50 08	 mov	 DWORD PTR [eax+8], edx

; 1509 :         ++_Last;

  00022	83 c0 0c	 add	 eax, 12			; 0000000cH

; 1648 :     // move [_First, _Last) to raw _Dest, using _Al
; 1649 :     // note: only called internally from elsewhere in the STL
; 1650 :     using _Ptrval     = typename _Alloc::value_type*;
; 1651 :     auto _UFirst      = _Get_unwrapped(_First);
; 1652 :     const auto _ULast = _Get_unwrapped(_Last);
; 1653 :     if constexpr (conjunction_v<bool_constant<_Ptr_move_cat<decltype(_UFirst), _Ptrval>::_Really_trivial>,
; 1654 :                       _Uses_default_construct<_Alloc, _Ptrval, decltype(_STD move(*_UFirst))>>) {
; 1655 :         _Copy_memmove(_UFirst, _ULast, _Unfancy(_Dest));
; 1656 :         return _Dest + (_ULast - _UFirst);
; 1657 :     } else {
; 1658 :         _Uninitialized_backout_al<_Alloc> _Backout{_Dest, _Al};
; 1659 :         for (; _UFirst != _ULast; ++_UFirst) {

  00025	3b ce		 cmp	 ecx, esi
  00027	75 e8		 jne	 SHORT $LL4@Uninitiali
$LN3@Uninitiali:
  00029	5e		 pop	 esi

; 1660 :             _Backout._Emplace_back(_STD move(*_UFirst));
; 1661 :         }
; 1662 : 
; 1663 :         return _Backout._Release();
; 1664 :     }
; 1665 : }

  0002a	5d		 pop	 ebp
  0002b	c3		 ret	 0
??$_Uninitialized_move@PAUD3DXVECTOR3@@V?$allocator@UD3DXVECTOR3@@@std@@@std@@YAPAUD3DXVECTOR3@@QAU1@0PAU1@AAV?$allocator@UD3DXVECTOR3@@@0@@Z ENDP ; std::_Uninitialized_move<D3DXVECTOR3 *,std::allocator<D3DXVECTOR3> >
_TEXT	ENDS
; Function compile flags: /Ogtp
; File C:\Program Files (x86)\Microsoft Visual Studio\2019\Community\VC\Tools\MSVC\14.27.29110\include\xmemory
;	COMDAT ??$_Uninitialized_move@PAHV?$allocator@H@std@@@std@@YAPAHQAH0PAHAAV?$allocator@H@0@@Z
_TEXT	SEGMENT
__First$ = 8						; size = 4
__Last$ = 12						; size = 4
__Dest$ = 16						; size = 4
__Al$ = 20						; size = 4
??$_Uninitialized_move@PAHV?$allocator@H@std@@@std@@YAPAHQAH0PAHAAV?$allocator@H@0@@Z PROC ; std::_Uninitialized_move<int *,std::allocator<int> >, COMDAT

; 1647 :     const _InIt _First, const _InIt _Last, _Alloc_ptr_t<_Alloc> _Dest, _Alloc& _Al) {

  00000	55		 push	 ebp
  00001	8b ec		 mov	 ebp, esp
  00003	53		 push	 ebx

; 1648 :     // move [_First, _Last) to raw _Dest, using _Al
; 1649 :     // note: only called internally from elsewhere in the STL
; 1650 :     using _Ptrval     = typename _Alloc::value_type*;
; 1651 :     auto _UFirst      = _Get_unwrapped(_First);
; 1652 :     const auto _ULast = _Get_unwrapped(_Last);
; 1653 :     if constexpr (conjunction_v<bool_constant<_Ptr_move_cat<decltype(_UFirst), _Ptrval>::_Really_trivial>,
; 1654 :                       _Uses_default_construct<_Alloc, _Ptrval, decltype(_STD move(*_UFirst))>>) {
; 1655 :         _Copy_memmove(_UFirst, _ULast, _Unfancy(_Dest));

  00004	8b 5d 10	 mov	 ebx, DWORD PTR __Dest$[ebp]
  00007	57		 push	 edi
  00008	8b 7d 0c	 mov	 edi, DWORD PTR __Last$[ebp]
  0000b	53		 push	 ebx
  0000c	57		 push	 edi
  0000d	ff 75 08	 push	 DWORD PTR __First$[ebp]
  00010	e8 00 00 00 00	 call	 ??$_Copy_memmove@PAHPAH@std@@YAPAHPAH00@Z ; std::_Copy_memmove<int *,int *>

; 1656 :         return _Dest + (_ULast - _UFirst);

  00015	2b 7d 08	 sub	 edi, DWORD PTR __First$[ebp]
  00018	83 c4 0c	 add	 esp, 12			; 0000000cH
  0001b	c1 ff 02	 sar	 edi, 2
  0001e	8d 04 bb	 lea	 eax, DWORD PTR [ebx+edi*4]
  00021	5f		 pop	 edi
  00022	5b		 pop	 ebx

; 1657 :     } else {
; 1658 :         _Uninitialized_backout_al<_Alloc> _Backout{_Dest, _Al};
; 1659 :         for (; _UFirst != _ULast; ++_UFirst) {
; 1660 :             _Backout._Emplace_back(_STD move(*_UFirst));
; 1661 :         }
; 1662 : 
; 1663 :         return _Backout._Release();
; 1664 :     }
; 1665 : }

  00023	5d		 pop	 ebp
  00024	c3		 ret	 0
??$_Uninitialized_move@PAHV?$allocator@H@std@@@std@@YAPAHQAH0PAHAAV?$allocator@H@0@@Z ENDP ; std::_Uninitialized_move<int *,std::allocator<int> >
_TEXT	ENDS
; Function compile flags: /Ogtp
; File C:\Program Files (x86)\Microsoft Visual Studio\2019\Community\VC\Tools\MSVC\14.27.29110\include\xmemory
;	COMDAT ??$_Uninitialized_move@PAUD3DXVECTOR2@@V?$allocator@UD3DXVECTOR2@@@std@@@std@@YAPAUD3DXVECTOR2@@QAU1@0PAU1@AAV?$allocator@UD3DXVECTOR2@@@0@@Z
_TEXT	SEGMENT
__First$ = 8						; size = 4
__Last$ = 12						; size = 4
__Dest$ = 16						; size = 4
__Al$ = 20						; size = 4
??$_Uninitialized_move@PAUD3DXVECTOR2@@V?$allocator@UD3DXVECTOR2@@@std@@@std@@YAPAUD3DXVECTOR2@@QAU1@0PAU1@AAV?$allocator@UD3DXVECTOR2@@@0@@Z PROC ; std::_Uninitialized_move<D3DXVECTOR2 *,std::allocator<D3DXVECTOR2> >, COMDAT

; 1647 :     const _InIt _First, const _InIt _Last, _Alloc_ptr_t<_Alloc> _Dest, _Alloc& _Al) {

  00000	55		 push	 ebp
  00001	8b ec		 mov	 ebp, esp

; 1648 :     // move [_First, _Last) to raw _Dest, using _Al
; 1649 :     // note: only called internally from elsewhere in the STL
; 1650 :     using _Ptrval     = typename _Alloc::value_type*;
; 1651 :     auto _UFirst      = _Get_unwrapped(_First);
; 1652 :     const auto _ULast = _Get_unwrapped(_Last);
; 1653 :     if constexpr (conjunction_v<bool_constant<_Ptr_move_cat<decltype(_UFirst), _Ptrval>::_Really_trivial>,
; 1654 :                       _Uses_default_construct<_Alloc, _Ptrval, decltype(_STD move(*_UFirst))>>) {
; 1655 :         _Copy_memmove(_UFirst, _ULast, _Unfancy(_Dest));
; 1656 :         return _Dest + (_ULast - _UFirst);
; 1657 :     } else {
; 1658 :         _Uninitialized_backout_al<_Alloc> _Backout{_Dest, _Al};
; 1659 :         for (; _UFirst != _ULast; ++_UFirst) {

  00003	8b 4d 08	 mov	 ecx, DWORD PTR __First$[ebp]

; 1497 :     _Uninitialized_backout_al(pointer _Dest, _Alloc& _Al_) : _First(_Dest), _Last(_Dest), _Al(_Al_) {}

  00006	8b 45 10	 mov	 eax, DWORD PTR __Dest$[ebp]

; 1647 :     const _InIt _First, const _InIt _Last, _Alloc_ptr_t<_Alloc> _Dest, _Alloc& _Al) {

  00009	56		 push	 esi

; 1648 :     // move [_First, _Last) to raw _Dest, using _Al
; 1649 :     // note: only called internally from elsewhere in the STL
; 1650 :     using _Ptrval     = typename _Alloc::value_type*;
; 1651 :     auto _UFirst      = _Get_unwrapped(_First);
; 1652 :     const auto _ULast = _Get_unwrapped(_Last);
; 1653 :     if constexpr (conjunction_v<bool_constant<_Ptr_move_cat<decltype(_UFirst), _Ptrval>::_Really_trivial>,
; 1654 :                       _Uses_default_construct<_Alloc, _Ptrval, decltype(_STD move(*_UFirst))>>) {
; 1655 :         _Copy_memmove(_UFirst, _ULast, _Unfancy(_Dest));
; 1656 :         return _Dest + (_ULast - _UFirst);
; 1657 :     } else {
; 1658 :         _Uninitialized_backout_al<_Alloc> _Backout{_Dest, _Al};
; 1659 :         for (; _UFirst != _ULast; ++_UFirst) {

  0000a	8b 75 0c	 mov	 esi, DWORD PTR __Last$[ebp]
  0000d	3b ce		 cmp	 ecx, esi
  0000f	74 14		 je	 SHORT $LN3@Uninitiali
$LL4@Uninitiali:

; 694  :         ::new (const_cast<void*>(static_cast<const volatile void*>(_Ptr))) _Objty(_STD forward<_Types>(_Args)...);

  00011	8b 11		 mov	 edx, DWORD PTR [ecx]
  00013	89 10		 mov	 DWORD PTR [eax], edx
  00015	8b 51 04	 mov	 edx, DWORD PTR [ecx+4]

; 1509 :         ++_Last;

  00018	83 c1 08	 add	 ecx, 8

; 694  :         ::new (const_cast<void*>(static_cast<const volatile void*>(_Ptr))) _Objty(_STD forward<_Types>(_Args)...);

  0001b	89 50 04	 mov	 DWORD PTR [eax+4], edx

; 1509 :         ++_Last;

  0001e	83 c0 08	 add	 eax, 8

; 1648 :     // move [_First, _Last) to raw _Dest, using _Al
; 1649 :     // note: only called internally from elsewhere in the STL
; 1650 :     using _Ptrval     = typename _Alloc::value_type*;
; 1651 :     auto _UFirst      = _Get_unwrapped(_First);
; 1652 :     const auto _ULast = _Get_unwrapped(_Last);
; 1653 :     if constexpr (conjunction_v<bool_constant<_Ptr_move_cat<decltype(_UFirst), _Ptrval>::_Really_trivial>,
; 1654 :                       _Uses_default_construct<_Alloc, _Ptrval, decltype(_STD move(*_UFirst))>>) {
; 1655 :         _Copy_memmove(_UFirst, _ULast, _Unfancy(_Dest));
; 1656 :         return _Dest + (_ULast - _UFirst);
; 1657 :     } else {
; 1658 :         _Uninitialized_backout_al<_Alloc> _Backout{_Dest, _Al};
; 1659 :         for (; _UFirst != _ULast; ++_UFirst) {

  00021	3b ce		 cmp	 ecx, esi
  00023	75 ec		 jne	 SHORT $LL4@Uninitiali
$LN3@Uninitiali:
  00025	5e		 pop	 esi

; 1660 :             _Backout._Emplace_back(_STD move(*_UFirst));
; 1661 :         }
; 1662 : 
; 1663 :         return _Backout._Release();
; 1664 :     }
; 1665 : }

  00026	5d		 pop	 ebp
  00027	c3		 ret	 0
??$_Uninitialized_move@PAUD3DXVECTOR2@@V?$allocator@UD3DXVECTOR2@@@std@@@std@@YAPAUD3DXVECTOR2@@QAU1@0PAU1@AAV?$allocator@UD3DXVECTOR2@@@0@@Z ENDP ; std::_Uninitialized_move<D3DXVECTOR2 *,std::allocator<D3DXVECTOR2> >
_TEXT	ENDS
; Function compile flags: /Ogtp
; File C:\Program Files (x86)\Microsoft Visual Studio\2019\Community\VC\Tools\MSVC\14.27.29110\include\xutility
;	COMDAT ??$_Copy_memmove@PAPAVCGraphicImage@@PAPAV1@@std@@YAPAPAVCGraphicImage@@PAPAV1@00@Z
_TEXT	SEGMENT
__First$ = 8						; size = 4
__Last$ = 12						; size = 4
__Dest$ = 16						; size = 4
??$_Copy_memmove@PAPAVCGraphicImage@@PAPAV1@@std@@YAPAPAVCGraphicImage@@PAPAV1@00@Z PROC ; std::_Copy_memmove<CGraphicImage * *,CGraphicImage * *>, COMDAT

; 4113 : _OutIt _Copy_memmove(_InIt _First, _InIt _Last, _OutIt _Dest) {

  00000	55		 push	 ebp
  00001	8b ec		 mov	 ebp, esp

; 4114 :     const char* const _First_ch = const_cast<const char*>(reinterpret_cast<const volatile char*>(_First));
; 4115 :     const char* const _Last_ch  = const_cast<const char*>(reinterpret_cast<const volatile char*>(_Last));
; 4116 :     char* const _Dest_ch        = const_cast<char*>(reinterpret_cast<volatile char*>(_Dest));
; 4117 :     const auto _Count           = static_cast<size_t>(_Last_ch - _First_ch);

  00003	8b 45 08	 mov	 eax, DWORD PTR __First$[ebp]
  00006	56		 push	 esi

; 4118 :     _CSTD memmove(_Dest_ch, _First_ch, _Count);

  00007	8b 75 10	 mov	 esi, DWORD PTR __Dest$[ebp]
  0000a	57		 push	 edi
  0000b	8b 7d 0c	 mov	 edi, DWORD PTR __Last$[ebp]
  0000e	2b f8		 sub	 edi, eax
  00010	57		 push	 edi
  00011	50		 push	 eax
  00012	56		 push	 esi
  00013	e8 00 00 00 00	 call	 _memmove
  00018	83 c4 0c	 add	 esp, 12			; 0000000cH

; 4119 :     return reinterpret_cast<_OutIt>(_Dest_ch + _Count);

  0001b	8d 04 37	 lea	 eax, DWORD PTR [edi+esi]
  0001e	5f		 pop	 edi
  0001f	5e		 pop	 esi

; 4120 : }

  00020	5d		 pop	 ebp
  00021	c3		 ret	 0
??$_Copy_memmove@PAPAVCGraphicImage@@PAPAV1@@std@@YAPAPAVCGraphicImage@@PAPAV1@00@Z ENDP ; std::_Copy_memmove<CGraphicImage * *,CGraphicImage * *>
_TEXT	ENDS
; Function compile flags: /Ogtp
; File C:\Program Files (x86)\Microsoft Visual Studio\2019\Community\VC\Tools\MSVC\14.27.29110\include\xmemory
;	COMDAT ??$_Zero_range@PAPAUSEffectMeshData@CEffectMesh@@@std@@YAPAPAUSEffectMeshData@CEffectMesh@@QAPAU12@0@Z
_TEXT	SEGMENT
__First$ = 8						; size = 4
__Last$ = 12						; size = 4
??$_Zero_range@PAPAUSEffectMeshData@CEffectMesh@@@std@@YAPAPAUSEffectMeshData@CEffectMesh@@QAPAU12@0@Z PROC ; std::_Zero_range<CEffectMesh::SEffectMeshData * *>, COMDAT

; 1814 : _Ptr _Zero_range(const _Ptr _First, const _Ptr _Last) { // fill [_First, _Last) with zeroes

  00000	55		 push	 ebp
  00001	8b ec		 mov	 ebp, esp

; 1815 :     char* const _First_ch = reinterpret_cast<char*>(_First);
; 1816 :     char* const _Last_ch  = reinterpret_cast<char*>(_Last);
; 1817 :     _CSTD memset(_First_ch, 0, static_cast<size_t>(_Last_ch - _First_ch));

  00003	8b 55 08	 mov	 edx, DWORD PTR __First$[ebp]
  00006	8b 4d 0c	 mov	 ecx, DWORD PTR __Last$[ebp]
  00009	2b ca		 sub	 ecx, edx
  0000b	51		 push	 ecx
  0000c	6a 00		 push	 0
  0000e	52		 push	 edx
  0000f	e8 00 00 00 00	 call	 _memset

; 1818 :     return _Last;

  00014	8b 45 0c	 mov	 eax, DWORD PTR __Last$[ebp]
  00017	83 c4 0c	 add	 esp, 12			; 0000000cH

; 1819 : }

  0001a	5d		 pop	 ebp
  0001b	c3		 ret	 0
??$_Zero_range@PAPAUSEffectMeshData@CEffectMesh@@@std@@YAPAPAUSEffectMeshData@CEffectMesh@@QAPAU12@0@Z ENDP ; std::_Zero_range<CEffectMesh::SEffectMeshData * *>
_TEXT	ENDS
; Function compile flags: /Ogtp
; File C:\Program Files (x86)\Microsoft Visual Studio\2019\Community\VC\Tools\MSVC\14.27.29110\include\xutility
;	COMDAT ??$_Copy_memmove@PAPAUSEffectMeshData@CEffectMesh@@PAPAU12@@std@@YAPAPAUSEffectMeshData@CEffectMesh@@PAPAU12@00@Z
_TEXT	SEGMENT
__First$ = 8						; size = 4
__Last$ = 12						; size = 4
__Dest$ = 16						; size = 4
??$_Copy_memmove@PAPAUSEffectMeshData@CEffectMesh@@PAPAU12@@std@@YAPAPAUSEffectMeshData@CEffectMesh@@PAPAU12@00@Z PROC ; std::_Copy_memmove<CEffectMesh::SEffectMeshData * *,CEffectMesh::SEffectMeshData * *>, COMDAT

; 4113 : _OutIt _Copy_memmove(_InIt _First, _InIt _Last, _OutIt _Dest) {

  00000	55		 push	 ebp
  00001	8b ec		 mov	 ebp, esp

; 4114 :     const char* const _First_ch = const_cast<const char*>(reinterpret_cast<const volatile char*>(_First));
; 4115 :     const char* const _Last_ch  = const_cast<const char*>(reinterpret_cast<const volatile char*>(_Last));
; 4116 :     char* const _Dest_ch        = const_cast<char*>(reinterpret_cast<volatile char*>(_Dest));
; 4117 :     const auto _Count           = static_cast<size_t>(_Last_ch - _First_ch);

  00003	8b 45 08	 mov	 eax, DWORD PTR __First$[ebp]
  00006	56		 push	 esi

; 4118 :     _CSTD memmove(_Dest_ch, _First_ch, _Count);

  00007	8b 75 10	 mov	 esi, DWORD PTR __Dest$[ebp]
  0000a	57		 push	 edi
  0000b	8b 7d 0c	 mov	 edi, DWORD PTR __Last$[ebp]
  0000e	2b f8		 sub	 edi, eax
  00010	57		 push	 edi
  00011	50		 push	 eax
  00012	56		 push	 esi
  00013	e8 00 00 00 00	 call	 _memmove
  00018	83 c4 0c	 add	 esp, 12			; 0000000cH

; 4119 :     return reinterpret_cast<_OutIt>(_Dest_ch + _Count);

  0001b	8d 04 37	 lea	 eax, DWORD PTR [edi+esi]
  0001e	5f		 pop	 edi
  0001f	5e		 pop	 esi

; 4120 : }

  00020	5d		 pop	 ebp
  00021	c3		 ret	 0
??$_Copy_memmove@PAPAUSEffectMeshData@CEffectMesh@@PAPAU12@@std@@YAPAPAUSEffectMeshData@CEffectMesh@@PAPAU12@00@Z ENDP ; std::_Copy_memmove<CEffectMesh::SEffectMeshData * *,CEffectMesh::SEffectMeshData * *>
_TEXT	ENDS
; Function compile flags: /Ogtp
; File C:\Program Files (x86)\Microsoft Visual Studio\2019\Community\VC\Tools\MSVC\14.27.29110\include\xmemory
;	COMDAT ??$_Zero_range@PAH@std@@YAPAHQAH0@Z
_TEXT	SEGMENT
__First$ = 8						; size = 4
__Last$ = 12						; size = 4
??$_Zero_range@PAH@std@@YAPAHQAH0@Z PROC		; std::_Zero_range<int *>, COMDAT

; 1814 : _Ptr _Zero_range(const _Ptr _First, const _Ptr _Last) { // fill [_First, _Last) with zeroes

  00000	55		 push	 ebp
  00001	8b ec		 mov	 ebp, esp

; 1815 :     char* const _First_ch = reinterpret_cast<char*>(_First);
; 1816 :     char* const _Last_ch  = reinterpret_cast<char*>(_Last);
; 1817 :     _CSTD memset(_First_ch, 0, static_cast<size_t>(_Last_ch - _First_ch));

  00003	8b 55 08	 mov	 edx, DWORD PTR __First$[ebp]
  00006	8b 4d 0c	 mov	 ecx, DWORD PTR __Last$[ebp]
  00009	2b ca		 sub	 ecx, edx
  0000b	51		 push	 ecx
  0000c	6a 00		 push	 0
  0000e	52		 push	 edx
  0000f	e8 00 00 00 00	 call	 _memset

; 1818 :     return _Last;

  00014	8b 45 0c	 mov	 eax, DWORD PTR __Last$[ebp]
  00017	83 c4 0c	 add	 esp, 12			; 0000000cH

; 1819 : }

  0001a	5d		 pop	 ebp
  0001b	c3		 ret	 0
??$_Zero_range@PAH@std@@YAPAHQAH0@Z ENDP		; std::_Zero_range<int *>
_TEXT	ENDS
; Function compile flags: /Ogtp
; File C:\Program Files (x86)\Microsoft Visual Studio\2019\Community\VC\Tools\MSVC\14.27.29110\include\xutility
;	COMDAT ??$_Copy_memmove@PAPAVCEffectMeshScript@@PAPAV1@@std@@YAPAPAVCEffectMeshScript@@PAPAV1@00@Z
_TEXT	SEGMENT
__First$ = 8						; size = 4
__Last$ = 12						; size = 4
__Dest$ = 16						; size = 4
??$_Copy_memmove@PAPAVCEffectMeshScript@@PAPAV1@@std@@YAPAPAVCEffectMeshScript@@PAPAV1@00@Z PROC ; std::_Copy_memmove<CEffectMeshScript * *,CEffectMeshScript * *>, COMDAT

; 4113 : _OutIt _Copy_memmove(_InIt _First, _InIt _Last, _OutIt _Dest) {

  00000	55		 push	 ebp
  00001	8b ec		 mov	 ebp, esp

; 4114 :     const char* const _First_ch = const_cast<const char*>(reinterpret_cast<const volatile char*>(_First));
; 4115 :     const char* const _Last_ch  = const_cast<const char*>(reinterpret_cast<const volatile char*>(_Last));
; 4116 :     char* const _Dest_ch        = const_cast<char*>(reinterpret_cast<volatile char*>(_Dest));
; 4117 :     const auto _Count           = static_cast<size_t>(_Last_ch - _First_ch);

  00003	8b 45 08	 mov	 eax, DWORD PTR __First$[ebp]
  00006	56		 push	 esi

; 4118 :     _CSTD memmove(_Dest_ch, _First_ch, _Count);

  00007	8b 75 10	 mov	 esi, DWORD PTR __Dest$[ebp]
  0000a	57		 push	 edi
  0000b	8b 7d 0c	 mov	 edi, DWORD PTR __Last$[ebp]
  0000e	2b f8		 sub	 edi, eax
  00010	57		 push	 edi
  00011	50		 push	 eax
  00012	56		 push	 esi
  00013	e8 00 00 00 00	 call	 _memmove
  00018	83 c4 0c	 add	 esp, 12			; 0000000cH

; 4119 :     return reinterpret_cast<_OutIt>(_Dest_ch + _Count);

  0001b	8d 04 37	 lea	 eax, DWORD PTR [edi+esi]
  0001e	5f		 pop	 edi
  0001f	5e		 pop	 esi

; 4120 : }

  00020	5d		 pop	 ebp
  00021	c3		 ret	 0
??$_Copy_memmove@PAPAVCEffectMeshScript@@PAPAV1@@std@@YAPAPAVCEffectMeshScript@@PAPAV1@00@Z ENDP ; std::_Copy_memmove<CEffectMeshScript * *,CEffectMeshScript * *>
_TEXT	ENDS
; Function compile flags: /Ogtp
; File C:\Program Files (x86)\Microsoft Visual Studio\2019\Community\VC\Tools\MSVC\14.27.29110\include\xmemory
;	COMDAT ??$_Uninitialized_value_construct_n@V?$allocator@USPTVertex@@@std@@@std@@YAPAUSPTVertex@@PAU1@IAAV?$allocator@USPTVertex@@@0@@Z
_TEXT	SEGMENT
__First$ = 8						; size = 4
__Count$ = 12						; size = 4
__Al$ = 16						; size = 4
??$_Uninitialized_value_construct_n@V?$allocator@USPTVertex@@@std@@@std@@YAPAUSPTVertex@@PAU1@IAAV?$allocator@USPTVertex@@@0@@Z PROC ; std::_Uninitialized_value_construct_n<std::allocator<SPTVertex> >, COMDAT

; 1824 :     _Alloc_ptr_t<_Alloc> _First, _Alloc_size_t<_Alloc> _Count, _Alloc& _Al) {

  00000	55		 push	 ebp
  00001	8b ec		 mov	 ebp, esp

; 1825 :     // value-initialize _Count objects to raw _First, using _Al
; 1826 :     using _Ptrty = typename _Alloc::value_type*;
; 1827 :     if constexpr (_Use_memset_value_construct_v<_Ptrty> && _Uses_default_construct<_Alloc, _Ptrty>::value) {
; 1828 :         auto _PFirst = _Unfancy(_First);
; 1829 :         _Zero_range(_PFirst, _PFirst + _Count);
; 1830 :         return _First + _Count;
; 1831 :     } else {
; 1832 :         _Uninitialized_backout_al<_Alloc> _Backout{_First, _Al};
; 1833 :         for (; 0 < _Count; --_Count) {

  00003	8b 45 0c	 mov	 eax, DWORD PTR __Count$[ebp]
  00006	57		 push	 edi

; 1497 :     _Uninitialized_backout_al(pointer _Dest, _Alloc& _Al_) : _First(_Dest), _Last(_Dest), _Al(_Al_) {}

  00007	8b 7d 08	 mov	 edi, DWORD PTR __First$[ebp]

; 1825 :     // value-initialize _Count objects to raw _First, using _Al
; 1826 :     using _Ptrty = typename _Alloc::value_type*;
; 1827 :     if constexpr (_Use_memset_value_construct_v<_Ptrty> && _Uses_default_construct<_Alloc, _Ptrty>::value) {
; 1828 :         auto _PFirst = _Unfancy(_First);
; 1829 :         _Zero_range(_PFirst, _PFirst + _Count);
; 1830 :         return _First + _Count;
; 1831 :     } else {
; 1832 :         _Uninitialized_backout_al<_Alloc> _Backout{_First, _Al};
; 1833 :         for (; 0 < _Count; --_Count) {

  0000a	85 c0		 test	 eax, eax
  0000c	74 1a		 je	 SHORT $LN18@Uninitiali
  0000e	56		 push	 esi
  0000f	8d 34 80	 lea	 esi, DWORD PTR [eax+eax*4]
  00012	c1 e6 02	 shl	 esi, 2
  00015	56		 push	 esi
  00016	6a 00		 push	 0
  00018	57		 push	 edi
  00019	e8 00 00 00 00	 call	 _memset
  0001e	83 c4 0c	 add	 esp, 12			; 0000000cH
  00021	8d 04 3e	 lea	 eax, DWORD PTR [esi+edi]

; 1834 :             _Backout._Emplace_back();
; 1835 :         }
; 1836 : 
; 1837 :         return _Backout._Release();

  00024	5e		 pop	 esi
  00025	5f		 pop	 edi

; 1838 :     }
; 1839 : }

  00026	5d		 pop	 ebp
  00027	c3		 ret	 0
$LN18@Uninitiali:

; 1834 :             _Backout._Emplace_back();
; 1835 :         }
; 1836 : 
; 1837 :         return _Backout._Release();

  00028	8b c7		 mov	 eax, edi
  0002a	5f		 pop	 edi

; 1838 :     }
; 1839 : }

  0002b	5d		 pop	 ebp
  0002c	c3		 ret	 0
??$_Uninitialized_value_construct_n@V?$allocator@USPTVertex@@@std@@@std@@YAPAUSPTVertex@@PAU1@IAAV?$allocator@USPTVertex@@@0@@Z ENDP ; std::_Uninitialized_value_construct_n<std::allocator<SPTVertex> >
_TEXT	ENDS
; Function compile flags: /Ogtp
; File C:\Program Files (x86)\Microsoft Visual Studio\2019\Community\VC\Tools\MSVC\14.27.29110\include\xmemory
; File C:\Program Files (x86)\Microsoft Visual Studio\2019\Community\VC\Tools\MSVC\14.27.29110\include\vector
; File C:\Program Files (x86)\Microsoft Visual Studio\2019\Community\VC\Tools\MSVC\14.27.29110\include\xmemory
;	COMDAT ??$_Uninitialized_value_construct_n@V?$allocator@USEffectFrameData@CEffectMesh@@@std@@@std@@YAPAUSEffectFrameData@CEffectMesh@@PAU12@IAAV?$allocator@USEffectFrameData@CEffectMesh@@@0@@Z
_TEXT	SEGMENT
__First$ = 8						; size = 4
__Count$ = 12						; size = 4
__Al$ = 16						; size = 4
??$_Uninitialized_value_construct_n@V?$allocator@USEffectFrameData@CEffectMesh@@@std@@@std@@YAPAUSEffectFrameData@CEffectMesh@@PAU12@IAAV?$allocator@USEffectFrameData@CEffectMesh@@@0@@Z PROC ; std::_Uninitialized_value_construct_n<std::allocator<CEffectMesh::SEffectFrameData> >, COMDAT

; 1824 :     _Alloc_ptr_t<_Alloc> _First, _Alloc_size_t<_Alloc> _Count, _Alloc& _Al) {

  00000	55		 push	 ebp
  00001	8b ec		 mov	 ebp, esp

; 1833 :         for (; 0 < _Count; --_Count) {

  00003	8b 4d 0c	 mov	 ecx, DWORD PTR __Count$[ebp]
  00006	56		 push	 esi

; 1497 :     _Uninitialized_backout_al(pointer _Dest, _Alloc& _Al_) : _First(_Dest), _Last(_Dest), _Al(_Al_) {}

  00007	8b 75 08	 mov	 esi, DWORD PTR __First$[ebp]

; 1833 :         for (; 0 < _Count; --_Count) {

  0000a	85 c9		 test	 ecx, ecx
  0000c	74 2d		 je	 SHORT $LN3@Uninitiali
  0000e	8d 46 1c	 lea	 eax, DWORD PTR [esi+28]
$LL4@Uninitiali:
  00011	0f 57 c0	 xorps	 xmm0, xmm0

; 1509 :         ++_Last;

  00014	8d 40 20	 lea	 eax, DWORD PTR [eax+32]

; 694  :         ::new (const_cast<void*>(static_cast<const volatile void*>(_Ptr))) _Objty(_STD forward<_Types>(_Args)...);

  00017	0f 11 06	 movups	 XMMWORD PTR [esi], xmm0
  0001a	0f 11 46 10	 movups	 XMMWORD PTR [esi+16], xmm0

; 1509 :         ++_Last;

  0001e	83 c6 20	 add	 esi, 32			; 00000020H
; File C:\Program Files (x86)\Microsoft Visual Studio\2019\Community\VC\Tools\MSVC\14.27.29110\include\vector

; 375  :     _Vector_val() noexcept : _Myfirst(), _Mylast(), _Myend() {}

  00021	c7 40 d8 00 00
	00 00		 mov	 DWORD PTR [eax-40], 0
  00028	c7 40 dc 00 00
	00 00		 mov	 DWORD PTR [eax-36], 0
  0002f	c7 40 e0 00 00
	00 00		 mov	 DWORD PTR [eax-32], 0
; File C:\Program Files (x86)\Microsoft Visual Studio\2019\Community\VC\Tools\MSVC\14.27.29110\include\xmemory

; 1833 :         for (; 0 < _Count; --_Count) {

  00036	83 e9 01	 sub	 ecx, 1
  00039	75 d6		 jne	 SHORT $LL4@Uninitiali
$LN3@Uninitiali:

; 1503 :         _Destroy_range(_First, _Last, _Al);

  0003b	ff 75 10	 push	 DWORD PTR __Al$[ebp]
  0003e	56		 push	 esi
  0003f	56		 push	 esi
  00040	e8 00 00 00 00	 call	 ??$_Destroy_range@V?$allocator@USEffectFrameData@CEffectMesh@@@std@@@std@@YAXPAUSEffectFrameData@CEffectMesh@@QAU12@AAV?$allocator@USEffectFrameData@CEffectMesh@@@0@@Z ; std::_Destroy_range<std::allocator<CEffectMesh::SEffectFrameData> >
  00045	83 c4 0c	 add	 esp, 12			; 0000000cH

; 1834 :             _Backout._Emplace_back();
; 1835 :         }
; 1836 : 
; 1837 :         return _Backout._Release();

  00048	8b c6		 mov	 eax, esi
  0004a	5e		 pop	 esi

; 1838 :     }
; 1839 : }

  0004b	5d		 pop	 ebp
  0004c	c3		 ret	 0
??$_Uninitialized_value_construct_n@V?$allocator@USEffectFrameData@CEffectMesh@@@std@@@std@@YAPAUSEffectFrameData@CEffectMesh@@PAU12@IAAV?$allocator@USEffectFrameData@CEffectMesh@@@0@@Z ENDP ; std::_Uninitialized_value_construct_n<std::allocator<CEffectMesh::SEffectFrameData> >
_TEXT	ENDS
; Function compile flags: /Ogtp
; File C:\Program Files (x86)\Microsoft Visual Studio\2019\Community\VC\Tools\MSVC\14.27.29110\include\xmemory
;	COMDAT ??$_Uninitialized_move@PAPAVCGraphicImage@@V?$allocator@PAVCGraphicImage@@@std@@@std@@YAPAPAVCGraphicImage@@QAPAV1@0PAPAV1@AAV?$allocator@PAVCGraphicImage@@@0@@Z
_TEXT	SEGMENT
__First$ = 8						; size = 4
__Last$ = 12						; size = 4
__Dest$ = 16						; size = 4
__Al$ = 20						; size = 4
??$_Uninitialized_move@PAPAVCGraphicImage@@V?$allocator@PAVCGraphicImage@@@std@@@std@@YAPAPAVCGraphicImage@@QAPAV1@0PAPAV1@AAV?$allocator@PAVCGraphicImage@@@0@@Z PROC ; std::_Uninitialized_move<CGraphicImage * *,std::allocator<CGraphicImage *> >, COMDAT

; 1647 :     const _InIt _First, const _InIt _Last, _Alloc_ptr_t<_Alloc> _Dest, _Alloc& _Al) {

  00000	55		 push	 ebp
  00001	8b ec		 mov	 ebp, esp
  00003	53		 push	 ebx

; 1648 :     // move [_First, _Last) to raw _Dest, using _Al
; 1649 :     // note: only called internally from elsewhere in the STL
; 1650 :     using _Ptrval     = typename _Alloc::value_type*;
; 1651 :     auto _UFirst      = _Get_unwrapped(_First);
; 1652 :     const auto _ULast = _Get_unwrapped(_Last);
; 1653 :     if constexpr (conjunction_v<bool_constant<_Ptr_move_cat<decltype(_UFirst), _Ptrval>::_Really_trivial>,
; 1654 :                       _Uses_default_construct<_Alloc, _Ptrval, decltype(_STD move(*_UFirst))>>) {
; 1655 :         _Copy_memmove(_UFirst, _ULast, _Unfancy(_Dest));

  00004	8b 5d 10	 mov	 ebx, DWORD PTR __Dest$[ebp]
  00007	57		 push	 edi
  00008	8b 7d 0c	 mov	 edi, DWORD PTR __Last$[ebp]
  0000b	53		 push	 ebx
  0000c	57		 push	 edi
  0000d	ff 75 08	 push	 DWORD PTR __First$[ebp]
  00010	e8 00 00 00 00	 call	 ??$_Copy_memmove@PAPAVCGraphicImage@@PAPAV1@@std@@YAPAPAVCGraphicImage@@PAPAV1@00@Z ; std::_Copy_memmove<CGraphicImage * *,CGraphicImage * *>

; 1656 :         return _Dest + (_ULast - _UFirst);

  00015	2b 7d 08	 sub	 edi, DWORD PTR __First$[ebp]
  00018	83 c4 0c	 add	 esp, 12			; 0000000cH
  0001b	c1 ff 02	 sar	 edi, 2
  0001e	8d 04 bb	 lea	 eax, DWORD PTR [ebx+edi*4]
  00021	5f		 pop	 edi
  00022	5b		 pop	 ebx

; 1657 :     } else {
; 1658 :         _Uninitialized_backout_al<_Alloc> _Backout{_Dest, _Al};
; 1659 :         for (; _UFirst != _ULast; ++_UFirst) {
; 1660 :             _Backout._Emplace_back(_STD move(*_UFirst));
; 1661 :         }
; 1662 : 
; 1663 :         return _Backout._Release();
; 1664 :     }
; 1665 : }

  00023	5d		 pop	 ebp
  00024	c3		 ret	 0
??$_Uninitialized_move@PAPAVCGraphicImage@@V?$allocator@PAVCGraphicImage@@@std@@@std@@YAPAPAVCGraphicImage@@QAPAV1@0PAPAV1@AAV?$allocator@PAVCGraphicImage@@@0@@Z ENDP ; std::_Uninitialized_move<CGraphicImage * *,std::allocator<CGraphicImage *> >
_TEXT	ENDS
; Function compile flags: /Ogtp
; File C:\Program Files (x86)\Microsoft Visual Studio\2019\Community\VC\Tools\MSVC\14.27.29110\include\xmemory
;	COMDAT ??$_Uninitialized_value_construct_n@V?$allocator@PAUSEffectMeshData@CEffectMesh@@@std@@@std@@YAPAPAUSEffectMeshData@CEffectMesh@@PAPAU12@IAAV?$allocator@PAUSEffectMeshData@CEffectMesh@@@0@@Z
_TEXT	SEGMENT
__First$ = 8						; size = 4
__Count$ = 12						; size = 4
__Al$ = 16						; size = 4
??$_Uninitialized_value_construct_n@V?$allocator@PAUSEffectMeshData@CEffectMesh@@@std@@@std@@YAPAPAUSEffectMeshData@CEffectMesh@@PAPAU12@IAAV?$allocator@PAUSEffectMeshData@CEffectMesh@@@0@@Z PROC ; std::_Uninitialized_value_construct_n<std::allocator<CEffectMesh::SEffectMeshData *> >, COMDAT

; 1824 :     _Alloc_ptr_t<_Alloc> _First, _Alloc_size_t<_Alloc> _Count, _Alloc& _Al) {

  00000	55		 push	 ebp
  00001	8b ec		 mov	 ebp, esp

; 1825 :     // value-initialize _Count objects to raw _First, using _Al
; 1826 :     using _Ptrty = typename _Alloc::value_type*;
; 1827 :     if constexpr (_Use_memset_value_construct_v<_Ptrty> && _Uses_default_construct<_Alloc, _Ptrty>::value) {
; 1828 :         auto _PFirst = _Unfancy(_First);
; 1829 :         _Zero_range(_PFirst, _PFirst + _Count);

  00003	8b 4d 08	 mov	 ecx, DWORD PTR __First$[ebp]
  00006	8b 45 0c	 mov	 eax, DWORD PTR __Count$[ebp]
  00009	56		 push	 esi
  0000a	8d 34 81	 lea	 esi, DWORD PTR [ecx+eax*4]
  0000d	56		 push	 esi
  0000e	51		 push	 ecx
  0000f	e8 00 00 00 00	 call	 ??$_Zero_range@PAPAUSEffectMeshData@CEffectMesh@@@std@@YAPAPAUSEffectMeshData@CEffectMesh@@QAPAU12@0@Z ; std::_Zero_range<CEffectMesh::SEffectMeshData * *>
  00014	83 c4 08	 add	 esp, 8

; 1830 :         return _First + _Count;

  00017	8b c6		 mov	 eax, esi
  00019	5e		 pop	 esi

; 1831 :     } else {
; 1832 :         _Uninitialized_backout_al<_Alloc> _Backout{_First, _Al};
; 1833 :         for (; 0 < _Count; --_Count) {
; 1834 :             _Backout._Emplace_back();
; 1835 :         }
; 1836 : 
; 1837 :         return _Backout._Release();
; 1838 :     }
; 1839 : }

  0001a	5d		 pop	 ebp
  0001b	c3		 ret	 0
??$_Uninitialized_value_construct_n@V?$allocator@PAUSEffectMeshData@CEffectMesh@@@std@@@std@@YAPAPAUSEffectMeshData@CEffectMesh@@PAPAU12@IAAV?$allocator@PAUSEffectMeshData@CEffectMesh@@@0@@Z ENDP ; std::_Uninitialized_value_construct_n<std::allocator<CEffectMesh::SEffectMeshData *> >
_TEXT	ENDS
; Function compile flags: /Ogtp
; File C:\Program Files (x86)\Microsoft Visual Studio\2019\Community\VC\Tools\MSVC\14.27.29110\include\xmemory
;	COMDAT ??$_Uninitialized_move@PAPAUSEffectMeshData@CEffectMesh@@V?$allocator@PAUSEffectMeshData@CEffectMesh@@@std@@@std@@YAPAPAUSEffectMeshData@CEffectMesh@@QAPAU12@0PAPAU12@AAV?$allocator@PAUSEffectMeshData@CEffectMesh@@@0@@Z
_TEXT	SEGMENT
__First$ = 8						; size = 4
__Last$ = 12						; size = 4
__Dest$ = 16						; size = 4
__Al$ = 20						; size = 4
??$_Uninitialized_move@PAPAUSEffectMeshData@CEffectMesh@@V?$allocator@PAUSEffectMeshData@CEffectMesh@@@std@@@std@@YAPAPAUSEffectMeshData@CEffectMesh@@QAPAU12@0PAPAU12@AAV?$allocator@PAUSEffectMeshData@CEffectMesh@@@0@@Z PROC ; std::_Uninitialized_move<CEffectMesh::SEffectMeshData * *,std::allocator<CEffectMesh::SEffectMeshData *> >, COMDAT

; 1647 :     const _InIt _First, const _InIt _Last, _Alloc_ptr_t<_Alloc> _Dest, _Alloc& _Al) {

  00000	55		 push	 ebp
  00001	8b ec		 mov	 ebp, esp
  00003	53		 push	 ebx

; 1648 :     // move [_First, _Last) to raw _Dest, using _Al
; 1649 :     // note: only called internally from elsewhere in the STL
; 1650 :     using _Ptrval     = typename _Alloc::value_type*;
; 1651 :     auto _UFirst      = _Get_unwrapped(_First);
; 1652 :     const auto _ULast = _Get_unwrapped(_Last);
; 1653 :     if constexpr (conjunction_v<bool_constant<_Ptr_move_cat<decltype(_UFirst), _Ptrval>::_Really_trivial>,
; 1654 :                       _Uses_default_construct<_Alloc, _Ptrval, decltype(_STD move(*_UFirst))>>) {
; 1655 :         _Copy_memmove(_UFirst, _ULast, _Unfancy(_Dest));

  00004	8b 5d 10	 mov	 ebx, DWORD PTR __Dest$[ebp]
  00007	57		 push	 edi
  00008	8b 7d 0c	 mov	 edi, DWORD PTR __Last$[ebp]
  0000b	53		 push	 ebx
  0000c	57		 push	 edi
  0000d	ff 75 08	 push	 DWORD PTR __First$[ebp]
  00010	e8 00 00 00 00	 call	 ??$_Copy_memmove@PAPAUSEffectMeshData@CEffectMesh@@PAPAU12@@std@@YAPAPAUSEffectMeshData@CEffectMesh@@PAPAU12@00@Z ; std::_Copy_memmove<CEffectMesh::SEffectMeshData * *,CEffectMesh::SEffectMeshData * *>

; 1656 :         return _Dest + (_ULast - _UFirst);

  00015	2b 7d 08	 sub	 edi, DWORD PTR __First$[ebp]
  00018	83 c4 0c	 add	 esp, 12			; 0000000cH
  0001b	c1 ff 02	 sar	 edi, 2
  0001e	8d 04 bb	 lea	 eax, DWORD PTR [ebx+edi*4]
  00021	5f		 pop	 edi
  00022	5b		 pop	 ebx

; 1657 :     } else {
; 1658 :         _Uninitialized_backout_al<_Alloc> _Backout{_Dest, _Al};
; 1659 :         for (; _UFirst != _ULast; ++_UFirst) {
; 1660 :             _Backout._Emplace_back(_STD move(*_UFirst));
; 1661 :         }
; 1662 : 
; 1663 :         return _Backout._Release();
; 1664 :     }
; 1665 : }

  00023	5d		 pop	 ebp
  00024	c3		 ret	 0
??$_Uninitialized_move@PAPAUSEffectMeshData@CEffectMesh@@V?$allocator@PAUSEffectMeshData@CEffectMesh@@@std@@@std@@YAPAPAUSEffectMeshData@CEffectMesh@@QAPAU12@0PAPAU12@AAV?$allocator@PAUSEffectMeshData@CEffectMesh@@@0@@Z ENDP ; std::_Uninitialized_move<CEffectMesh::SEffectMeshData * *,std::allocator<CEffectMesh::SEffectMeshData *> >
_TEXT	ENDS
; Function compile flags: /Ogtp
; File C:\Program Files (x86)\Microsoft Visual Studio\2019\Community\VC\Tools\MSVC\14.27.29110\include\xmemory
; File C:\Program Files (x86)\Microsoft Visual Studio\2019\Community\VC\Tools\MSVC\14.27.29110\include\vector
; File C:\Program Files (x86)\Microsoft Visual Studio\2019\Community\VC\Tools\MSVC\14.27.29110\include\xmemory
; File C:\Program Files (x86)\Microsoft Visual Studio\2019\Community\VC\Tools\MSVC\14.27.29110\include\vector
; File C:\DS Project\DS Files\Source\ClientSource\Client\EffectLib\EffectMesh.h
; File C:\Program Files (x86)\Microsoft Visual Studio\2019\Community\VC\Tools\MSVC\14.27.29110\include\xmemory
;	COMDAT ??$_Uninitialized_value_construct_n@V?$allocator@USMeshData@CEffectMeshScript@@@std@@@std@@YAPAUSMeshData@CEffectMeshScript@@PAU12@IAAV?$allocator@USMeshData@CEffectMeshScript@@@0@@Z
_TEXT	SEGMENT
__First$ = 8						; size = 4
__Count$ = 12						; size = 4
__Al$ = 16						; size = 4
??$_Uninitialized_value_construct_n@V?$allocator@USMeshData@CEffectMeshScript@@@std@@@std@@YAPAUSMeshData@CEffectMeshScript@@PAU12@IAAV?$allocator@USMeshData@CEffectMeshScript@@@0@@Z PROC ; std::_Uninitialized_value_construct_n<std::allocator<CEffectMeshScript::SMeshData> >, COMDAT

; 1824 :     _Alloc_ptr_t<_Alloc> _First, _Alloc_size_t<_Alloc> _Count, _Alloc& _Al) {

  00000	55		 push	 ebp
  00001	8b ec		 mov	 ebp, esp

; 1833 :         for (; 0 < _Count; --_Count) {

  00003	8b 55 0c	 mov	 edx, DWORD PTR __Count$[ebp]
  00006	56		 push	 esi

; 1497 :     _Uninitialized_backout_al(pointer _Dest, _Alloc& _Al_) : _First(_Dest), _Last(_Dest), _Al(_Al_) {}

  00007	8b 75 08	 mov	 esi, DWORD PTR __First$[ebp]

; 1833 :         for (; 0 < _Count; --_Count) {

  0000a	85 d2		 test	 edx, edx
  0000c	74 2f		 je	 SHORT $LN3@Uninitiali
  0000e	8b ca		 mov	 ecx, edx
  00010	8d 46 38	 lea	 eax, DWORD PTR [esi+56]
  00013	c1 e1 04	 shl	 ecx, 4
  00016	2b ca		 sub	 ecx, edx
  00018	8d 34 8e	 lea	 esi, DWORD PTR [esi+ecx*4]
  0001b	0f 1f 44 00 00	 npad	 5
$LL4@Uninitiali:
; File C:\Program Files (x86)\Microsoft Visual Studio\2019\Community\VC\Tools\MSVC\14.27.29110\include\vector

; 375  :     _Vector_val() noexcept : _Myfirst(), _Mylast(), _Myend() {}

  00020	c7 40 f8 00 00
	00 00		 mov	 DWORD PTR [eax-8], 0
; File C:\Program Files (x86)\Microsoft Visual Studio\2019\Community\VC\Tools\MSVC\14.27.29110\include\xmemory

; 1509 :         ++_Last;

  00027	8d 40 3c	 lea	 eax, DWORD PTR [eax+60]
; File C:\Program Files (x86)\Microsoft Visual Studio\2019\Community\VC\Tools\MSVC\14.27.29110\include\vector

; 375  :     _Vector_val() noexcept : _Myfirst(), _Mylast(), _Myend() {}

  0002a	c7 40 c4 00 00
	00 00		 mov	 DWORD PTR [eax-60], 0
; File C:\DS Project\DS Files\Source\ClientSource\Client\EffectLib\EffectMesh.h

; 105  : 				TimeEventAlpha.clear();

  00031	c7 40 c0 00 00
	00 00		 mov	 DWORD PTR [eax-64], 0
; File C:\Program Files (x86)\Microsoft Visual Studio\2019\Community\VC\Tools\MSVC\14.27.29110\include\xmemory

; 1833 :         for (; 0 < _Count; --_Count) {

  00038	83 ea 01	 sub	 edx, 1
  0003b	75 e3		 jne	 SHORT $LL4@Uninitiali
$LN3@Uninitiali:

; 1503 :         _Destroy_range(_First, _Last, _Al);

  0003d	ff 75 10	 push	 DWORD PTR __Al$[ebp]
  00040	56		 push	 esi
  00041	56		 push	 esi
  00042	e8 00 00 00 00	 call	 ??$_Destroy_range@V?$allocator@USMeshData@CEffectMeshScript@@@std@@@std@@YAXPAUSMeshData@CEffectMeshScript@@QAU12@AAV?$allocator@USMeshData@CEffectMeshScript@@@0@@Z ; std::_Destroy_range<std::allocator<CEffectMeshScript::SMeshData> >
  00047	83 c4 0c	 add	 esp, 12			; 0000000cH

; 1834 :             _Backout._Emplace_back();
; 1835 :         }
; 1836 : 
; 1837 :         return _Backout._Release();

  0004a	8b c6		 mov	 eax, esi
  0004c	5e		 pop	 esi

; 1838 :     }
; 1839 : }

  0004d	5d		 pop	 ebp
  0004e	c3		 ret	 0
??$_Uninitialized_value_construct_n@V?$allocator@USMeshData@CEffectMeshScript@@@std@@@std@@YAPAUSMeshData@CEffectMeshScript@@PAU12@IAAV?$allocator@USMeshData@CEffectMeshScript@@@0@@Z ENDP ; std::_Uninitialized_value_construct_n<std::allocator<CEffectMeshScript::SMeshData> >
_TEXT	ENDS
; Function compile flags: /Ogtp
; File C:\Program Files (x86)\Microsoft Visual Studio\2019\Community\VC\Tools\MSVC\14.27.29110\include\xmemory
;	COMDAT ??$_Uninitialized_value_construct_n@V?$allocator@UD3DXVECTOR3@@@std@@@std@@YAPAUD3DXVECTOR3@@PAU1@IAAV?$allocator@UD3DXVECTOR3@@@0@@Z
_TEXT	SEGMENT
__First$ = 8						; size = 4
__Count$ = 12						; size = 4
__Al$ = 16						; size = 4
??$_Uninitialized_value_construct_n@V?$allocator@UD3DXVECTOR3@@@std@@@std@@YAPAUD3DXVECTOR3@@PAU1@IAAV?$allocator@UD3DXVECTOR3@@@0@@Z PROC ; std::_Uninitialized_value_construct_n<std::allocator<D3DXVECTOR3> >, COMDAT

; 1824 :     _Alloc_ptr_t<_Alloc> _First, _Alloc_size_t<_Alloc> _Count, _Alloc& _Al) {

  00000	55		 push	 ebp
  00001	8b ec		 mov	 ebp, esp

; 1825 :     // value-initialize _Count objects to raw _First, using _Al
; 1826 :     using _Ptrty = typename _Alloc::value_type*;
; 1827 :     if constexpr (_Use_memset_value_construct_v<_Ptrty> && _Uses_default_construct<_Alloc, _Ptrty>::value) {
; 1828 :         auto _PFirst = _Unfancy(_First);
; 1829 :         _Zero_range(_PFirst, _PFirst + _Count);
; 1830 :         return _First + _Count;
; 1831 :     } else {
; 1832 :         _Uninitialized_backout_al<_Alloc> _Backout{_First, _Al};
; 1833 :         for (; 0 < _Count; --_Count) {

  00003	8b 45 0c	 mov	 eax, DWORD PTR __Count$[ebp]

; 1497 :     _Uninitialized_backout_al(pointer _Dest, _Alloc& _Al_) : _First(_Dest), _Last(_Dest), _Al(_Al_) {}

  00006	8b 4d 08	 mov	 ecx, DWORD PTR __First$[ebp]

; 1825 :     // value-initialize _Count objects to raw _First, using _Al
; 1826 :     using _Ptrty = typename _Alloc::value_type*;
; 1827 :     if constexpr (_Use_memset_value_construct_v<_Ptrty> && _Uses_default_construct<_Alloc, _Ptrty>::value) {
; 1828 :         auto _PFirst = _Unfancy(_First);
; 1829 :         _Zero_range(_PFirst, _PFirst + _Count);
; 1830 :         return _First + _Count;
; 1831 :     } else {
; 1832 :         _Uninitialized_backout_al<_Alloc> _Backout{_First, _Al};
; 1833 :         for (; 0 < _Count; --_Count) {

  00009	85 c0		 test	 eax, eax
  0000b	74 08		 je	 SHORT $LN16@Uninitiali
  0000d	8d 04 40	 lea	 eax, DWORD PTR [eax+eax*2]
  00010	8d 04 81	 lea	 eax, DWORD PTR [ecx+eax*4]

; 1838 :     }
; 1839 : }

  00013	5d		 pop	 ebp
  00014	c3		 ret	 0
$LN16@Uninitiali:

; 1834 :             _Backout._Emplace_back();
; 1835 :         }
; 1836 : 
; 1837 :         return _Backout._Release();

  00015	8b c1		 mov	 eax, ecx

; 1838 :     }
; 1839 : }

  00017	5d		 pop	 ebp
  00018	c3		 ret	 0
??$_Uninitialized_value_construct_n@V?$allocator@UD3DXVECTOR3@@@std@@@std@@YAPAUD3DXVECTOR3@@PAU1@IAAV?$allocator@UD3DXVECTOR3@@@0@@Z ENDP ; std::_Uninitialized_value_construct_n<std::allocator<D3DXVECTOR3> >
_TEXT	ENDS
; Function compile flags: /Ogtp
; File C:\Program Files (x86)\Microsoft Visual Studio\2019\Community\VC\Tools\MSVC\14.27.29110\include\xmemory
;	COMDAT ??$_Uninitialized_value_construct_n@V?$allocator@H@std@@@std@@YAPAHPAHIAAV?$allocator@H@0@@Z
_TEXT	SEGMENT
__First$ = 8						; size = 4
__Count$ = 12						; size = 4
__Al$ = 16						; size = 4
??$_Uninitialized_value_construct_n@V?$allocator@H@std@@@std@@YAPAHPAHIAAV?$allocator@H@0@@Z PROC ; std::_Uninitialized_value_construct_n<std::allocator<int> >, COMDAT

; 1824 :     _Alloc_ptr_t<_Alloc> _First, _Alloc_size_t<_Alloc> _Count, _Alloc& _Al) {

  00000	55		 push	 ebp
  00001	8b ec		 mov	 ebp, esp

; 1825 :     // value-initialize _Count objects to raw _First, using _Al
; 1826 :     using _Ptrty = typename _Alloc::value_type*;
; 1827 :     if constexpr (_Use_memset_value_construct_v<_Ptrty> && _Uses_default_construct<_Alloc, _Ptrty>::value) {
; 1828 :         auto _PFirst = _Unfancy(_First);
; 1829 :         _Zero_range(_PFirst, _PFirst + _Count);

  00003	8b 4d 08	 mov	 ecx, DWORD PTR __First$[ebp]
  00006	8b 45 0c	 mov	 eax, DWORD PTR __Count$[ebp]
  00009	56		 push	 esi
  0000a	8d 34 81	 lea	 esi, DWORD PTR [ecx+eax*4]
  0000d	56		 push	 esi
  0000e	51		 push	 ecx
  0000f	e8 00 00 00 00	 call	 ??$_Zero_range@PAH@std@@YAPAHQAH0@Z ; std::_Zero_range<int *>
  00014	83 c4 08	 add	 esp, 8

; 1830 :         return _First + _Count;

  00017	8b c6		 mov	 eax, esi
  00019	5e		 pop	 esi

; 1831 :     } else {
; 1832 :         _Uninitialized_backout_al<_Alloc> _Backout{_First, _Al};
; 1833 :         for (; 0 < _Count; --_Count) {
; 1834 :             _Backout._Emplace_back();
; 1835 :         }
; 1836 : 
; 1837 :         return _Backout._Release();
; 1838 :     }
; 1839 : }

  0001a	5d		 pop	 ebp
  0001b	c3		 ret	 0
??$_Uninitialized_value_construct_n@V?$allocator@H@std@@@std@@YAPAHPAHIAAV?$allocator@H@0@@Z ENDP ; std::_Uninitialized_value_construct_n<std::allocator<int> >
_TEXT	ENDS
; Function compile flags: /Ogtp
; File C:\Program Files (x86)\Microsoft Visual Studio\2019\Community\VC\Tools\MSVC\14.27.29110\include\xmemory
;	COMDAT ??$_Uninitialized_value_construct_n@V?$allocator@UD3DXVECTOR2@@@std@@@std@@YAPAUD3DXVECTOR2@@PAU1@IAAV?$allocator@UD3DXVECTOR2@@@0@@Z
_TEXT	SEGMENT
__First$ = 8						; size = 4
__Count$ = 12						; size = 4
__Al$ = 16						; size = 4
??$_Uninitialized_value_construct_n@V?$allocator@UD3DXVECTOR2@@@std@@@std@@YAPAUD3DXVECTOR2@@PAU1@IAAV?$allocator@UD3DXVECTOR2@@@0@@Z PROC ; std::_Uninitialized_value_construct_n<std::allocator<D3DXVECTOR2> >, COMDAT

; 1824 :     _Alloc_ptr_t<_Alloc> _First, _Alloc_size_t<_Alloc> _Count, _Alloc& _Al) {

  00000	55		 push	 ebp
  00001	8b ec		 mov	 ebp, esp

; 1825 :     // value-initialize _Count objects to raw _First, using _Al
; 1826 :     using _Ptrty = typename _Alloc::value_type*;
; 1827 :     if constexpr (_Use_memset_value_construct_v<_Ptrty> && _Uses_default_construct<_Alloc, _Ptrty>::value) {
; 1828 :         auto _PFirst = _Unfancy(_First);
; 1829 :         _Zero_range(_PFirst, _PFirst + _Count);
; 1830 :         return _First + _Count;
; 1831 :     } else {
; 1832 :         _Uninitialized_backout_al<_Alloc> _Backout{_First, _Al};
; 1833 :         for (; 0 < _Count; --_Count) {

  00003	8b 4d 0c	 mov	 ecx, DWORD PTR __Count$[ebp]

; 1497 :     _Uninitialized_backout_al(pointer _Dest, _Alloc& _Al_) : _First(_Dest), _Last(_Dest), _Al(_Al_) {}

  00006	8b 45 08	 mov	 eax, DWORD PTR __First$[ebp]

; 1825 :     // value-initialize _Count objects to raw _First, using _Al
; 1826 :     using _Ptrty = typename _Alloc::value_type*;
; 1827 :     if constexpr (_Use_memset_value_construct_v<_Ptrty> && _Uses_default_construct<_Alloc, _Ptrty>::value) {
; 1828 :         auto _PFirst = _Unfancy(_First);
; 1829 :         _Zero_range(_PFirst, _PFirst + _Count);
; 1830 :         return _First + _Count;
; 1831 :     } else {
; 1832 :         _Uninitialized_backout_al<_Alloc> _Backout{_First, _Al};
; 1833 :         for (; 0 < _Count; --_Count) {

  00009	85 c9		 test	 ecx, ecx
  0000b	74 03		 je	 SHORT $LN4@Uninitiali
  0000d	8d 04 c8	 lea	 eax, DWORD PTR [eax+ecx*8]
$LN4@Uninitiali:

; 1834 :             _Backout._Emplace_back();
; 1835 :         }
; 1836 : 
; 1837 :         return _Backout._Release();
; 1838 :     }
; 1839 : }

  00010	5d		 pop	 ebp
  00011	c3		 ret	 0
??$_Uninitialized_value_construct_n@V?$allocator@UD3DXVECTOR2@@@std@@@std@@YAPAUD3DXVECTOR2@@PAU1@IAAV?$allocator@UD3DXVECTOR2@@@0@@Z ENDP ; std::_Uninitialized_value_construct_n<std::allocator<D3DXVECTOR2> >
_TEXT	ENDS
; Function compile flags: /Ogtp
; File C:\Program Files (x86)\Microsoft Visual Studio\2019\Community\VC\Tools\MSVC\14.27.29110\include\xmemory
;	COMDAT ??$_Uninitialized_move@PAPAVCEffectMeshScript@@V?$allocator@PAVCEffectMeshScript@@@std@@@std@@YAPAPAVCEffectMeshScript@@QAPAV1@0PAPAV1@AAV?$allocator@PAVCEffectMeshScript@@@0@@Z
_TEXT	SEGMENT
__First$ = 8						; size = 4
__Last$ = 12						; size = 4
__Dest$ = 16						; size = 4
__Al$ = 20						; size = 4
??$_Uninitialized_move@PAPAVCEffectMeshScript@@V?$allocator@PAVCEffectMeshScript@@@std@@@std@@YAPAPAVCEffectMeshScript@@QAPAV1@0PAPAV1@AAV?$allocator@PAVCEffectMeshScript@@@0@@Z PROC ; std::_Uninitialized_move<CEffectMeshScript * *,std::allocator<CEffectMeshScript *> >, COMDAT

; 1647 :     const _InIt _First, const _InIt _Last, _Alloc_ptr_t<_Alloc> _Dest, _Alloc& _Al) {

  00000	55		 push	 ebp
  00001	8b ec		 mov	 ebp, esp
  00003	53		 push	 ebx

; 1648 :     // move [_First, _Last) to raw _Dest, using _Al
; 1649 :     // note: only called internally from elsewhere in the STL
; 1650 :     using _Ptrval     = typename _Alloc::value_type*;
; 1651 :     auto _UFirst      = _Get_unwrapped(_First);
; 1652 :     const auto _ULast = _Get_unwrapped(_Last);
; 1653 :     if constexpr (conjunction_v<bool_constant<_Ptr_move_cat<decltype(_UFirst), _Ptrval>::_Really_trivial>,
; 1654 :                       _Uses_default_construct<_Alloc, _Ptrval, decltype(_STD move(*_UFirst))>>) {
; 1655 :         _Copy_memmove(_UFirst, _ULast, _Unfancy(_Dest));

  00004	8b 5d 10	 mov	 ebx, DWORD PTR __Dest$[ebp]
  00007	57		 push	 edi
  00008	8b 7d 0c	 mov	 edi, DWORD PTR __Last$[ebp]
  0000b	53		 push	 ebx
  0000c	57		 push	 edi
  0000d	ff 75 08	 push	 DWORD PTR __First$[ebp]
  00010	e8 00 00 00 00	 call	 ??$_Copy_memmove@PAPAVCEffectMeshScript@@PAPAV1@@std@@YAPAPAVCEffectMeshScript@@PAPAV1@00@Z ; std::_Copy_memmove<CEffectMeshScript * *,CEffectMeshScript * *>

; 1656 :         return _Dest + (_ULast - _UFirst);

  00015	2b 7d 08	 sub	 edi, DWORD PTR __First$[ebp]
  00018	83 c4 0c	 add	 esp, 12			; 0000000cH
  0001b	c1 ff 02	 sar	 edi, 2
  0001e	8d 04 bb	 lea	 eax, DWORD PTR [ebx+edi*4]
  00021	5f		 pop	 edi
  00022	5b		 pop	 ebx

; 1657 :     } else {
; 1658 :         _Uninitialized_backout_al<_Alloc> _Backout{_Dest, _Al};
; 1659 :         for (; _UFirst != _ULast; ++_UFirst) {
; 1660 :             _Backout._Emplace_back(_STD move(*_UFirst));
; 1661 :         }
; 1662 : 
; 1663 :         return _Backout._Release();
; 1664 :     }
; 1665 : }

  00023	5d		 pop	 ebp
  00024	c3		 ret	 0
??$_Uninitialized_move@PAPAVCEffectMeshScript@@V?$allocator@PAVCEffectMeshScript@@@std@@@std@@YAPAPAVCEffectMeshScript@@QAPAV1@0PAPAV1@AAV?$allocator@PAVCEffectMeshScript@@@0@@Z ENDP ; std::_Uninitialized_move<CEffectMeshScript * *,std::allocator<CEffectMeshScript *> >
_TEXT	ENDS
; Function compile flags: /Ogtp
; File C:\Program Files (x86)\Microsoft Visual Studio\2019\Community\VC\Tools\MSVC\14.27.29110\include\vector
; File C:\Program Files (x86)\Microsoft Visual Studio\2019\Community\VC\Tools\MSVC\14.27.29110\include\xmemory
; File C:\Program Files (x86)\Microsoft Visual Studio\2019\Community\VC\Tools\MSVC\14.27.29110\include\vector
; File C:\Program Files (x86)\Microsoft Visual Studio\2019\Community\VC\Tools\MSVC\14.27.29110\include\xmemory
; File C:\Program Files (x86)\Microsoft Visual Studio\2019\Community\VC\Tools\MSVC\14.27.29110\include\vector
; File C:\Program Files (x86)\Microsoft Visual Studio\2019\Community\VC\Tools\MSVC\14.27.29110\include\xmemory
; File C:\Program Files (x86)\Microsoft Visual Studio\2019\Community\VC\Tools\MSVC\14.27.29110\include\vector
; File C:\Program Files (x86)\Microsoft Visual Studio\2019\Community\VC\Tools\MSVC\14.27.29110\include\xmemory
; File C:\Program Files (x86)\Microsoft Visual Studio\2019\Community\VC\Tools\MSVC\14.27.29110\include\vector
;	COMDAT ??$_Resize_reallocate@U_Value_init_tag@std@@@?$vector@USPTVertex@@V?$allocator@USPTVertex@@@std@@@std@@AAEXIABU_Value_init_tag@1@@Z
_TEXT	SEGMENT
tv299 = -4						; size = 4
__Oldsize$1$ = 8					; size = 4
__Newsize$ = 8						; size = 4
__Val$ = 12						; size = 4
??$_Resize_reallocate@U_Value_init_tag@std@@@?$vector@USPTVertex@@V?$allocator@USPTVertex@@@std@@@std@@AAEXIABU_Value_init_tag@1@@Z PROC ; std::vector<SPTVertex,std::allocator<SPTVertex> >::_Resize_reallocate<std::_Value_init_tag>, COMDAT
; _this$ = ecx

; 1182 :     void _Resize_reallocate(const size_type _Newsize, const _Ty2& _Val) {

  00000	55		 push	 ebp
  00001	8b ec		 mov	 ebp, esp
  00003	51		 push	 ecx
  00004	53		 push	 ebx
  00005	56		 push	 esi
  00006	57		 push	 edi

; 1183 :         if (_Newsize > max_size()) {

  00007	8b 7d 08	 mov	 edi, DWORD PTR __Newsize$[ebp]
  0000a	8b d9		 mov	 ebx, ecx
  0000c	81 ff cc cc cc
	0c		 cmp	 edi, 214748364		; 0cccccccH
  00012	0f 87 d2 00 00
	00		 ja	 $LN36@Resize_rea

; 1185 :         }
; 1186 : 
; 1187 :         auto& _My_data    = _Mypair._Myval2;
; 1188 :         pointer& _Myfirst = _My_data._Myfirst;
; 1189 :         pointer& _Mylast  = _My_data._Mylast;
; 1190 : 
; 1191 :         const auto _Oldsize          = static_cast<size_type>(_Mylast - _Myfirst);

  00018	8b 4b 04	 mov	 ecx, DWORD PTR [ebx+4]
  0001b	b8 67 66 66 66	 mov	 eax, 1717986919		; 66666667H
  00020	2b 0b		 sub	 ecx, DWORD PTR [ebx]
  00022	f7 e9		 imul	 ecx

; 1494 :         return static_cast<size_type>(_My_data._Myend - _My_data._Myfirst);

  00024	8b 4b 08	 mov	 ecx, DWORD PTR [ebx+8]
  00027	2b 0b		 sub	 ecx, DWORD PTR [ebx]

; 1185 :         }
; 1186 : 
; 1187 :         auto& _My_data    = _Mypair._Myval2;
; 1188 :         pointer& _Myfirst = _My_data._Myfirst;
; 1189 :         pointer& _Mylast  = _My_data._Mylast;
; 1190 : 
; 1191 :         const auto _Oldsize          = static_cast<size_type>(_Mylast - _Myfirst);

  00029	c1 fa 03	 sar	 edx, 3
  0002c	8b c2		 mov	 eax, edx
  0002e	c1 e8 1f	 shr	 eax, 31			; 0000001fH
  00031	03 c2		 add	 eax, edx
  00033	89 45 08	 mov	 DWORD PTR __Oldsize$1$[ebp], eax

; 1494 :         return static_cast<size_type>(_My_data._Myend - _My_data._Myfirst);

  00036	b8 67 66 66 66	 mov	 eax, 1717986919		; 66666667H
  0003b	f7 e9		 imul	 ecx

; 1619 :         if (_Oldcapacity > max_size() - _Oldcapacity / 2) {

  0003d	b8 cc cc cc 0c	 mov	 eax, 214748364		; 0cccccccH

; 1494 :         return static_cast<size_type>(_My_data._Myend - _My_data._Myfirst);

  00042	c1 fa 03	 sar	 edx, 3
  00045	8b ca		 mov	 ecx, edx
  00047	c1 e9 1f	 shr	 ecx, 31			; 0000001fH
  0004a	03 ca		 add	 ecx, edx

; 1619 :         if (_Oldcapacity > max_size() - _Oldcapacity / 2) {

  0004c	8b d1		 mov	 edx, ecx
  0004e	d1 ea		 shr	 edx, 1
  00050	2b c2		 sub	 eax, edx
  00052	3b c8		 cmp	 ecx, eax
  00054	77 14		 ja	 SHORT $LN34@Resize_rea

; 1620 :             return _Newsize; // geometric growth would overflow
; 1621 :         }
; 1622 : 
; 1623 :         const size_type _Geometric = _Oldcapacity + _Oldcapacity / 2;

  00056	8d 04 0a	 lea	 eax, DWORD PTR [edx+ecx]

; 1624 : 
; 1625 :         if (_Geometric < _Newsize) {

  00059	3b c7		 cmp	 eax, edi
  0005b	72 0d		 jb	 SHORT $LN34@Resize_rea
; File C:\Program Files (x86)\Microsoft Visual Studio\2019\Community\VC\Tools\MSVC\14.27.29110\include\xmemory

; 60   :         if (_Count > _Max_possible) {

  0005d	3d cc cc cc 0c	 cmp	 eax, 214748364		; 0cccccccH
  00062	0f 87 87 00 00
	00		 ja	 $LN37@Resize_rea
  00068	eb 02		 jmp	 SHORT $LN18@Resize_rea
$LN34@Resize_rea:

; 62   :         }
; 63   :     }
; 64   : 
; 65   :     return _Count * _Ty_size;

  0006a	8b c7		 mov	 eax, edi
$LN18@Resize_rea:
  0006c	8d 04 80	 lea	 eax, DWORD PTR [eax+eax*4]
  0006f	c1 e0 02	 shl	 eax, 2

; 807  :         return static_cast<_Ty*>(_Allocate<_New_alignof<_Ty>>(_Get_size_of_n<sizeof(_Ty)>(_Count)));

  00072	50		 push	 eax

; 65   :     return _Count * _Ty_size;

  00073	89 45 fc	 mov	 DWORD PTR tv299[ebp], eax

; 807  :         return static_cast<_Ty*>(_Allocate<_New_alignof<_Ty>>(_Get_size_of_n<sizeof(_Ty)>(_Count)));

  00076	e8 00 00 00 00	 call	 ??$_Allocate@$07U_Default_allocate_traits@std@@$0A@@std@@YAPAXI@Z ; std::_Allocate<8,std::_Default_allocate_traits,0>
; File C:\Program Files (x86)\Microsoft Visual Studio\2019\Community\VC\Tools\MSVC\14.27.29110\include\vector

; 1199 :         _Appended_last = _Ufill(_Appended_first, _Newsize - _Oldsize, _Val);

  0007b	8b 4d 08	 mov	 ecx, DWORD PTR __Oldsize$1$[ebp]
; File C:\Program Files (x86)\Microsoft Visual Studio\2019\Community\VC\Tools\MSVC\14.27.29110\include\xmemory

; 807  :         return static_cast<_Ty*>(_Allocate<_New_alignof<_Ty>>(_Get_size_of_n<sizeof(_Ty)>(_Count)));

  0007e	8b f0		 mov	 esi, eax
; File C:\Program Files (x86)\Microsoft Visual Studio\2019\Community\VC\Tools\MSVC\14.27.29110\include\vector

; 1199 :         _Appended_last = _Ufill(_Appended_first, _Newsize - _Oldsize, _Val);

  00080	8b c7		 mov	 eax, edi
  00082	2b c1		 sub	 eax, ecx

; 1583 :         return _Uninitialized_value_construct_n(_Dest, _Count, _Getal());

  00084	53		 push	 ebx
  00085	50		 push	 eax

; 1192 :         const size_type _Newcapacity = _Calculate_growth(_Newsize);
; 1193 : 
; 1194 :         const pointer _Newvec         = _Getal().allocate(_Newcapacity);
; 1195 :         const pointer _Appended_first = _Newvec + _Oldsize;

  00086	8d 04 89	 lea	 eax, DWORD PTR [ecx+ecx*4]
  00089	8d 04 86	 lea	 eax, DWORD PTR [esi+eax*4]

; 1583 :         return _Uninitialized_value_construct_n(_Dest, _Count, _Getal());

  0008c	50		 push	 eax
  0008d	e8 00 00 00 00	 call	 ??$_Uninitialized_value_construct_n@V?$allocator@USPTVertex@@@std@@@std@@YAPAUSPTVertex@@PAU1@IAAV?$allocator@USPTVertex@@@0@@Z ; std::_Uninitialized_value_construct_n<std::allocator<SPTVertex> >

; 1597 :         _Uninitialized_move(_First, _Last, _Dest, _Getal());

  00092	53		 push	 ebx
  00093	56		 push	 esi
  00094	ff 73 04	 push	 DWORD PTR [ebx+4]
  00097	ff 33		 push	 DWORD PTR [ebx]
  00099	e8 00 00 00 00	 call	 ??$_Uninitialized_move@PAUSPTVertex@@V?$allocator@USPTVertex@@@std@@@std@@YAPAUSPTVertex@@QAU1@0PAU1@AAV?$allocator@USPTVertex@@@0@@Z ; std::_Uninitialized_move<SPTVertex *,std::allocator<SPTVertex> >

; 1675 :         if (_Myfirst) { // destroy and deallocate old array

  0009e	8b 03		 mov	 eax, DWORD PTR [ebx]

; 1597 :         _Uninitialized_move(_First, _Last, _Dest, _Getal());

  000a0	83 c4 20	 add	 esp, 32			; 00000020H

; 1675 :         if (_Myfirst) { // destroy and deallocate old array

  000a3	85 c0		 test	 eax, eax
  000a5	74 27		 je	 SHORT $LN29@Resize_rea

; 1676 :             _Destroy(_Myfirst, _Mylast);
; 1677 :             _Getal().deallocate(_Myfirst, static_cast<size_type>(_Myend - _Myfirst));

  000a7	8b 4b 08	 mov	 ecx, DWORD PTR [ebx+8]
  000aa	2b c8		 sub	 ecx, eax
  000ac	b8 67 66 66 66	 mov	 eax, 1717986919		; 66666667H
  000b1	f7 e9		 imul	 ecx
  000b3	c1 fa 03	 sar	 edx, 3
  000b6	8b c2		 mov	 eax, edx
  000b8	c1 e8 1f	 shr	 eax, 31			; 0000001fH
  000bb	03 c2		 add	 eax, edx
; File C:\Program Files (x86)\Microsoft Visual Studio\2019\Community\VC\Tools\MSVC\14.27.29110\include\xmemory

; 803  :         _Deallocate<_New_alignof<_Ty>>(_Ptr, sizeof(_Ty) * _Count);

  000bd	8d 04 80	 lea	 eax, DWORD PTR [eax+eax*4]
  000c0	c1 e0 02	 shl	 eax, 2
  000c3	50		 push	 eax
  000c4	ff 33		 push	 DWORD PTR [ebx]
  000c6	e8 00 00 00 00	 call	 ??$_Deallocate@$07$0A@@std@@YAXPAXI@Z ; std::_Deallocate<8,0>
  000cb	83 c4 08	 add	 esp, 8
$LN29@Resize_rea:
; File C:\Program Files (x86)\Microsoft Visual Studio\2019\Community\VC\Tools\MSVC\14.27.29110\include\vector

; 1681 :         _Mylast  = _Newvec + _Newsize;

  000ce	8d 04 bf	 lea	 eax, DWORD PTR [edi+edi*4]
  000d1	89 33		 mov	 DWORD PTR [ebx], esi
  000d3	8d 04 86	 lea	 eax, DWORD PTR [esi+eax*4]
  000d6	89 43 04	 mov	 DWORD PTR [ebx+4], eax

; 1682 :         _Myend   = _Newvec + _Newcapacity;

  000d9	8b 45 fc	 mov	 eax, DWORD PTR tv299[ebp]
  000dc	5f		 pop	 edi
  000dd	03 c6		 add	 eax, esi
  000df	5e		 pop	 esi
  000e0	89 43 08	 mov	 DWORD PTR [ebx+8], eax
  000e3	5b		 pop	 ebx

; 1208 :     }

  000e4	8b e5		 mov	 esp, ebp
  000e6	5d		 pop	 ebp
  000e7	c2 08 00	 ret	 8
$LN36@Resize_rea:

; 1184 :             _Xlength();

  000ea	e8 00 00 00 00	 call	 ?_Xlength@?$vector@USPTVertex@@V?$allocator@USPTVertex@@@std@@@std@@CAXXZ ; std::vector<SPTVertex,std::allocator<SPTVertex> >::_Xlength
$LN37@Resize_rea:
; File C:\Program Files (x86)\Microsoft Visual Studio\2019\Community\VC\Tools\MSVC\14.27.29110\include\xmemory

; 61   :             _Throw_bad_array_new_length(); // multiply overflow

  000ef	e8 00 00 00 00	 call	 ?_Throw_bad_array_new_length@std@@YAXXZ ; std::_Throw_bad_array_new_length
$LN33@Resize_rea:
  000f4	cc		 int	 3
??$_Resize_reallocate@U_Value_init_tag@std@@@?$vector@USPTVertex@@V?$allocator@USPTVertex@@@std@@@std@@AAEXIABU_Value_init_tag@1@@Z ENDP ; std::vector<SPTVertex,std::allocator<SPTVertex> >::_Resize_reallocate<std::_Value_init_tag>
_TEXT	ENDS
; Function compile flags: /Ogtp
; File C:\Program Files (x86)\Microsoft Visual Studio\2019\Community\VC\Tools\MSVC\14.27.29110\include\vector
; File C:\Program Files (x86)\Microsoft Visual Studio\2019\Community\VC\Tools\MSVC\14.27.29110\include\xmemory
; File C:\Program Files (x86)\Microsoft Visual Studio\2019\Community\VC\Tools\MSVC\14.27.29110\include\vector
; File C:\Program Files (x86)\Microsoft Visual Studio\2019\Community\VC\Tools\MSVC\14.27.29110\include\xmemory
; File C:\Program Files (x86)\Microsoft Visual Studio\2019\Community\VC\Tools\MSVC\14.27.29110\include\vector
; File C:\Program Files (x86)\Microsoft Visual Studio\2019\Community\VC\Tools\MSVC\14.27.29110\include\xmemory
; File C:\Program Files (x86)\Microsoft Visual Studio\2019\Community\VC\Tools\MSVC\14.27.29110\include\vector
; File C:\Program Files (x86)\Microsoft Visual Studio\2019\Community\VC\Tools\MSVC\14.27.29110\include\xmemory
; File C:\Program Files (x86)\Microsoft Visual Studio\2019\Community\VC\Tools\MSVC\14.27.29110\include\vector
;	COMDAT ??$_Resize_reallocate@U_Value_init_tag@std@@@?$vector@USEffectFrameData@CEffectMesh@@V?$allocator@USEffectFrameData@CEffectMesh@@@std@@@std@@AAEXIABU_Value_init_tag@1@@Z
_TEXT	SEGMENT
__Oldsize$1$ = -4					; size = 4
__Newvec$1$ = 8						; size = 4
__Newsize$ = 8						; size = 4
__Val$ = 12						; size = 4
??$_Resize_reallocate@U_Value_init_tag@std@@@?$vector@USEffectFrameData@CEffectMesh@@V?$allocator@USEffectFrameData@CEffectMesh@@@std@@@std@@AAEXIABU_Value_init_tag@1@@Z PROC ; std::vector<CEffectMesh::SEffectFrameData,std::allocator<CEffectMesh::SEffectFrameData> >::_Resize_reallocate<std::_Value_init_tag>, COMDAT
; _this$ = ecx

; 1182 :     void _Resize_reallocate(const size_type _Newsize, const _Ty2& _Val) {

  00000	55		 push	 ebp
  00001	8b ec		 mov	 ebp, esp
  00003	51		 push	 ecx
  00004	53		 push	 ebx
  00005	56		 push	 esi
  00006	57		 push	 edi

; 1183 :         if (_Newsize > max_size()) {

  00007	8b 7d 08	 mov	 edi, DWORD PTR __Newsize$[ebp]
  0000a	8b f1		 mov	 esi, ecx
  0000c	81 ff ff ff ff
	07		 cmp	 edi, 134217727		; 07ffffffH
  00012	0f 87 a7 00 00
	00		 ja	 $LN38@Resize_rea

; 1185 :         }
; 1186 : 
; 1187 :         auto& _My_data    = _Mypair._Myval2;
; 1188 :         pointer& _Myfirst = _My_data._Myfirst;
; 1189 :         pointer& _Mylast  = _My_data._Mylast;
; 1190 : 
; 1191 :         const auto _Oldsize          = static_cast<size_type>(_Mylast - _Myfirst);

  00018	8b 4e 04	 mov	 ecx, DWORD PTR [esi+4]

; 1619 :         if (_Oldcapacity > max_size() - _Oldcapacity / 2) {

  0001b	b8 ff ff ff 07	 mov	 eax, 134217727		; 07ffffffH

; 1185 :         }
; 1186 : 
; 1187 :         auto& _My_data    = _Mypair._Myval2;
; 1188 :         pointer& _Myfirst = _My_data._Myfirst;
; 1189 :         pointer& _Mylast  = _My_data._Mylast;
; 1190 : 
; 1191 :         const auto _Oldsize          = static_cast<size_type>(_Mylast - _Myfirst);

  00020	2b 0e		 sub	 ecx, DWORD PTR [esi]
  00022	c1 f9 05	 sar	 ecx, 5
  00025	89 4d fc	 mov	 DWORD PTR __Oldsize$1$[ebp], ecx

; 1494 :         return static_cast<size_type>(_My_data._Myend - _My_data._Myfirst);

  00028	8b 4e 08	 mov	 ecx, DWORD PTR [esi+8]
  0002b	2b 0e		 sub	 ecx, DWORD PTR [esi]
  0002d	c1 f9 05	 sar	 ecx, 5

; 1619 :         if (_Oldcapacity > max_size() - _Oldcapacity / 2) {

  00030	8b d1		 mov	 edx, ecx
  00032	d1 ea		 shr	 edx, 1
  00034	2b c2		 sub	 eax, edx
  00036	3b c8		 cmp	 ecx, eax
  00038	77 11		 ja	 SHORT $LN36@Resize_rea

; 1620 :             return _Newsize; // geometric growth would overflow
; 1621 :         }
; 1622 : 
; 1623 :         const size_type _Geometric = _Oldcapacity + _Oldcapacity / 2;

  0003a	8d 1c 0a	 lea	 ebx, DWORD PTR [edx+ecx]

; 1624 : 
; 1625 :         if (_Geometric < _Newsize) {

  0003d	3b df		 cmp	 ebx, edi
  0003f	72 0a		 jb	 SHORT $LN36@Resize_rea
; File C:\Program Files (x86)\Microsoft Visual Studio\2019\Community\VC\Tools\MSVC\14.27.29110\include\xmemory

; 60   :         if (_Count > _Max_possible) {

  00041	81 fb ff ff ff
	07		 cmp	 ebx, 134217727		; 07ffffffH
  00047	77 7b		 ja	 SHORT $LN39@Resize_rea
  00049	eb 02		 jmp	 SHORT $LN18@Resize_rea
$LN36@Resize_rea:

; 62   :         }
; 63   :     }
; 64   : 
; 65   :     return _Count * _Ty_size;

  0004b	8b df		 mov	 ebx, edi
$LN18@Resize_rea:
  0004d	c1 e3 05	 shl	 ebx, 5

; 807  :         return static_cast<_Ty*>(_Allocate<_New_alignof<_Ty>>(_Get_size_of_n<sizeof(_Ty)>(_Count)));

  00050	53		 push	 ebx
  00051	e8 00 00 00 00	 call	 ??$_Allocate@$07U_Default_allocate_traits@std@@$0A@@std@@YAPAXI@Z ; std::_Allocate<8,std::_Default_allocate_traits,0>
  00056	8b d0		 mov	 edx, eax
; File C:\Program Files (x86)\Microsoft Visual Studio\2019\Community\VC\Tools\MSVC\14.27.29110\include\vector

; 1199 :         _Appended_last = _Ufill(_Appended_first, _Newsize - _Oldsize, _Val);

  00058	8b cf		 mov	 ecx, edi
  0005a	8b 45 fc	 mov	 eax, DWORD PTR __Oldsize$1$[ebp]
  0005d	2b c8		 sub	 ecx, eax

; 1583 :         return _Uninitialized_value_construct_n(_Dest, _Count, _Getal());

  0005f	56		 push	 esi

; 1192 :         const size_type _Newcapacity = _Calculate_growth(_Newsize);
; 1193 : 
; 1194 :         const pointer _Newvec         = _Getal().allocate(_Newcapacity);
; 1195 :         const pointer _Appended_first = _Newvec + _Oldsize;

  00060	c1 e0 05	 shl	 eax, 5

; 1583 :         return _Uninitialized_value_construct_n(_Dest, _Count, _Getal());

  00063	51		 push	 ecx

; 1192 :         const size_type _Newcapacity = _Calculate_growth(_Newsize);
; 1193 : 
; 1194 :         const pointer _Newvec         = _Getal().allocate(_Newcapacity);
; 1195 :         const pointer _Appended_first = _Newvec + _Oldsize;

  00064	03 c2		 add	 eax, edx
; File C:\Program Files (x86)\Microsoft Visual Studio\2019\Community\VC\Tools\MSVC\14.27.29110\include\xmemory

; 807  :         return static_cast<_Ty*>(_Allocate<_New_alignof<_Ty>>(_Get_size_of_n<sizeof(_Ty)>(_Count)));

  00066	89 55 08	 mov	 DWORD PTR __Newvec$1$[ebp], edx
; File C:\Program Files (x86)\Microsoft Visual Studio\2019\Community\VC\Tools\MSVC\14.27.29110\include\vector

; 1583 :         return _Uninitialized_value_construct_n(_Dest, _Count, _Getal());

  00069	50		 push	 eax
  0006a	e8 00 00 00 00	 call	 ??$_Uninitialized_value_construct_n@V?$allocator@USEffectFrameData@CEffectMesh@@@std@@@std@@YAPAUSEffectFrameData@CEffectMesh@@PAU12@IAAV?$allocator@USEffectFrameData@CEffectMesh@@@0@@Z ; std::_Uninitialized_value_construct_n<std::allocator<CEffectMesh::SEffectFrameData> >

; 1597 :         _Uninitialized_move(_First, _Last, _Dest, _Getal());

  0006f	56		 push	 esi
  00070	ff 75 08	 push	 DWORD PTR __Newvec$1$[ebp]
  00073	ff 76 04	 push	 DWORD PTR [esi+4]
  00076	ff 36		 push	 DWORD PTR [esi]
  00078	e8 00 00 00 00	 call	 ??$_Uninitialized_move@PAUSEffectFrameData@CEffectMesh@@V?$allocator@USEffectFrameData@CEffectMesh@@@std@@@std@@YAPAUSEffectFrameData@CEffectMesh@@QAU12@0PAU12@AAV?$allocator@USEffectFrameData@CEffectMesh@@@0@@Z ; std::_Uninitialized_move<CEffectMesh::SEffectFrameData *,std::allocator<CEffectMesh::SEffectFrameData> >

; 1675 :         if (_Myfirst) { // destroy and deallocate old array

  0007d	8b 06		 mov	 eax, DWORD PTR [esi]

; 1597 :         _Uninitialized_move(_First, _Last, _Dest, _Getal());

  0007f	83 c4 20	 add	 esp, 32			; 00000020H

; 1675 :         if (_Myfirst) { // destroy and deallocate old array

  00082	85 c0		 test	 eax, eax
  00084	74 1e		 je	 SHORT $LN29@Resize_rea

; 1612 :         _Destroy_range(_First, _Last, _Getal());

  00086	56		 push	 esi
  00087	ff 76 04	 push	 DWORD PTR [esi+4]
  0008a	50		 push	 eax
  0008b	e8 00 00 00 00	 call	 ??$_Destroy_range@V?$allocator@USEffectFrameData@CEffectMesh@@@std@@@std@@YAXPAUSEffectFrameData@CEffectMesh@@QAU12@AAV?$allocator@USEffectFrameData@CEffectMesh@@@0@@Z ; std::_Destroy_range<std::allocator<CEffectMesh::SEffectFrameData> >

; 1677 :             _Getal().deallocate(_Myfirst, static_cast<size_type>(_Myend - _Myfirst));

  00090	8b 0e		 mov	 ecx, DWORD PTR [esi]
  00092	8b 46 08	 mov	 eax, DWORD PTR [esi+8]
  00095	2b c1		 sub	 eax, ecx
; File C:\Program Files (x86)\Microsoft Visual Studio\2019\Community\VC\Tools\MSVC\14.27.29110\include\xmemory

; 803  :         _Deallocate<_New_alignof<_Ty>>(_Ptr, sizeof(_Ty) * _Count);

  00097	83 e0 e0	 and	 eax, -32		; ffffffe0H
  0009a	50		 push	 eax
  0009b	51		 push	 ecx
  0009c	e8 00 00 00 00	 call	 ??$_Deallocate@$07$0A@@std@@YAXPAXI@Z ; std::_Deallocate<8,0>
  000a1	83 c4 14	 add	 esp, 20			; 00000014H
$LN29@Resize_rea:
; File C:\Program Files (x86)\Microsoft Visual Studio\2019\Community\VC\Tools\MSVC\14.27.29110\include\vector

; 1680 :         _Myfirst = _Newvec;

  000a4	8b 45 08	 mov	 eax, DWORD PTR __Newvec$1$[ebp]

; 1681 :         _Mylast  = _Newvec + _Newsize;

  000a7	c1 e7 05	 shl	 edi, 5
  000aa	89 06		 mov	 DWORD PTR [esi], eax
  000ac	03 f8		 add	 edi, eax
  000ae	89 7e 04	 mov	 DWORD PTR [esi+4], edi

; 1682 :         _Myend   = _Newvec + _Newcapacity;

  000b1	03 c3		 add	 eax, ebx
  000b3	5f		 pop	 edi
  000b4	89 46 08	 mov	 DWORD PTR [esi+8], eax
  000b7	5e		 pop	 esi
  000b8	5b		 pop	 ebx

; 1208 :     }

  000b9	8b e5		 mov	 esp, ebp
  000bb	5d		 pop	 ebp
  000bc	c2 08 00	 ret	 8
$LN38@Resize_rea:

; 1184 :             _Xlength();

  000bf	e8 00 00 00 00	 call	 ?_Xlength@?$vector@USEffectFrameData@CEffectMesh@@V?$allocator@USEffectFrameData@CEffectMesh@@@std@@@std@@CAXXZ ; std::vector<CEffectMesh::SEffectFrameData,std::allocator<CEffectMesh::SEffectFrameData> >::_Xlength
$LN39@Resize_rea:
; File C:\Program Files (x86)\Microsoft Visual Studio\2019\Community\VC\Tools\MSVC\14.27.29110\include\xmemory

; 61   :             _Throw_bad_array_new_length(); // multiply overflow

  000c4	e8 00 00 00 00	 call	 ?_Throw_bad_array_new_length@std@@YAXXZ ; std::_Throw_bad_array_new_length
$LN35@Resize_rea:
  000c9	cc		 int	 3
??$_Resize_reallocate@U_Value_init_tag@std@@@?$vector@USEffectFrameData@CEffectMesh@@V?$allocator@USEffectFrameData@CEffectMesh@@@std@@@std@@AAEXIABU_Value_init_tag@1@@Z ENDP ; std::vector<CEffectMesh::SEffectFrameData,std::allocator<CEffectMesh::SEffectFrameData> >::_Resize_reallocate<std::_Value_init_tag>
_TEXT	ENDS
; Function compile flags: /Ogtp
; File C:\Program Files (x86)\Microsoft Visual Studio\2019\Community\VC\Tools\MSVC\14.27.29110\include\vector
; File C:\Program Files (x86)\Microsoft Visual Studio\2019\Community\VC\Tools\MSVC\14.27.29110\include\xmemory
; File C:\Program Files (x86)\Microsoft Visual Studio\2019\Community\VC\Tools\MSVC\14.27.29110\include\vector
; File C:\Program Files (x86)\Microsoft Visual Studio\2019\Community\VC\Tools\MSVC\14.27.29110\include\xmemory
; File C:\Program Files (x86)\Microsoft Visual Studio\2019\Community\VC\Tools\MSVC\14.27.29110\include\vector
; File C:\Program Files (x86)\Microsoft Visual Studio\2019\Community\VC\Tools\MSVC\14.27.29110\include\xmemory
; File C:\Program Files (x86)\Microsoft Visual Studio\2019\Community\VC\Tools\MSVC\14.27.29110\include\vector
; File C:\Program Files (x86)\Microsoft Visual Studio\2019\Community\VC\Tools\MSVC\14.27.29110\include\xmemory
; File C:\Program Files (x86)\Microsoft Visual Studio\2019\Community\VC\Tools\MSVC\14.27.29110\include\vector
;	COMDAT ??$_Resize_reallocate@U_Value_init_tag@std@@@?$vector@PAUSEffectMeshData@CEffectMesh@@V?$allocator@PAUSEffectMeshData@CEffectMesh@@@std@@@std@@AAEXIABU_Value_init_tag@1@@Z
_TEXT	SEGMENT
tv346 = -4						; size = 4
__Newvec$1$ = 8						; size = 4
__Newsize$ = 8						; size = 4
__Val$ = 12						; size = 4
??$_Resize_reallocate@U_Value_init_tag@std@@@?$vector@PAUSEffectMeshData@CEffectMesh@@V?$allocator@PAUSEffectMeshData@CEffectMesh@@@std@@@std@@AAEXIABU_Value_init_tag@1@@Z PROC ; std::vector<CEffectMesh::SEffectMeshData *,std::allocator<CEffectMesh::SEffectMeshData *> >::_Resize_reallocate<std::_Value_init_tag>, COMDAT
; _this$ = ecx

; 1182 :     void _Resize_reallocate(const size_type _Newsize, const _Ty2& _Val) {

  00000	55		 push	 ebp
  00001	8b ec		 mov	 ebp, esp
  00003	51		 push	 ecx
  00004	53		 push	 ebx
  00005	56		 push	 esi
  00006	57		 push	 edi

; 1183 :         if (_Newsize > max_size()) {

  00007	8b 7d 08	 mov	 edi, DWORD PTR __Newsize$[ebp]
  0000a	8b f1		 mov	 esi, ecx
  0000c	81 ff ff ff ff
	3f		 cmp	 edi, 1073741823		; 3fffffffH
  00012	0f 87 92 00 00
	00		 ja	 $LN36@Resize_rea

; 1494 :         return static_cast<size_type>(_My_data._Myend - _My_data._Myfirst);

  00018	8b 4e 08	 mov	 ecx, DWORD PTR [esi+8]

; 1619 :         if (_Oldcapacity > max_size() - _Oldcapacity / 2) {

  0001b	b8 ff ff ff 3f	 mov	 eax, 1073741823		; 3fffffffH

; 1494 :         return static_cast<size_type>(_My_data._Myend - _My_data._Myfirst);

  00020	2b 0e		 sub	 ecx, DWORD PTR [esi]

; 1185 :         }
; 1186 : 
; 1187 :         auto& _My_data    = _Mypair._Myval2;
; 1188 :         pointer& _Myfirst = _My_data._Myfirst;
; 1189 :         pointer& _Mylast  = _My_data._Mylast;
; 1190 : 
; 1191 :         const auto _Oldsize          = static_cast<size_type>(_Mylast - _Myfirst);

  00022	8b 5e 04	 mov	 ebx, DWORD PTR [esi+4]
  00025	2b 1e		 sub	 ebx, DWORD PTR [esi]

; 1494 :         return static_cast<size_type>(_My_data._Myend - _My_data._Myfirst);

  00027	c1 f9 02	 sar	 ecx, 2

; 1619 :         if (_Oldcapacity > max_size() - _Oldcapacity / 2) {

  0002a	8b d1		 mov	 edx, ecx

; 1185 :         }
; 1186 : 
; 1187 :         auto& _My_data    = _Mypair._Myval2;
; 1188 :         pointer& _Myfirst = _My_data._Myfirst;
; 1189 :         pointer& _Mylast  = _My_data._Mylast;
; 1190 : 
; 1191 :         const auto _Oldsize          = static_cast<size_type>(_Mylast - _Myfirst);

  0002c	c1 fb 02	 sar	 ebx, 2

; 1619 :         if (_Oldcapacity > max_size() - _Oldcapacity / 2) {

  0002f	d1 ea		 shr	 edx, 1
  00031	2b c2		 sub	 eax, edx
  00033	3b c8		 cmp	 ecx, eax
  00035	77 10		 ja	 SHORT $LN34@Resize_rea

; 1620 :             return _Newsize; // geometric growth would overflow
; 1621 :         }
; 1622 : 
; 1623 :         const size_type _Geometric = _Oldcapacity + _Oldcapacity / 2;

  00037	8d 04 0a	 lea	 eax, DWORD PTR [edx+ecx]

; 1624 : 
; 1625 :         if (_Geometric < _Newsize) {

  0003a	3b c7		 cmp	 eax, edi
  0003c	72 09		 jb	 SHORT $LN34@Resize_rea
; File C:\Program Files (x86)\Microsoft Visual Studio\2019\Community\VC\Tools\MSVC\14.27.29110\include\xmemory

; 60   :         if (_Count > _Max_possible) {

  0003e	3d ff ff ff 3f	 cmp	 eax, 1073741823		; 3fffffffH
  00043	77 6a		 ja	 SHORT $LN37@Resize_rea
  00045	eb 02		 jmp	 SHORT $LN18@Resize_rea
$LN34@Resize_rea:

; 62   :         }
; 63   :     }
; 64   : 
; 65   :     return _Count * _Ty_size;

  00047	8b c7		 mov	 eax, edi
$LN18@Resize_rea:
  00049	c1 e0 02	 shl	 eax, 2

; 807  :         return static_cast<_Ty*>(_Allocate<_New_alignof<_Ty>>(_Get_size_of_n<sizeof(_Ty)>(_Count)));

  0004c	50		 push	 eax

; 65   :     return _Count * _Ty_size;

  0004d	89 45 fc	 mov	 DWORD PTR tv346[ebp], eax

; 807  :         return static_cast<_Ty*>(_Allocate<_New_alignof<_Ty>>(_Get_size_of_n<sizeof(_Ty)>(_Count)));

  00050	e8 00 00 00 00	 call	 ??$_Allocate@$07U_Default_allocate_traits@std@@$0A@@std@@YAPAXI@Z ; std::_Allocate<8,std::_Default_allocate_traits,0>
; File C:\Program Files (x86)\Microsoft Visual Studio\2019\Community\VC\Tools\MSVC\14.27.29110\include\vector

; 1199 :         _Appended_last = _Ufill(_Appended_first, _Newsize - _Oldsize, _Val);

  00055	8b cf		 mov	 ecx, edi
; File C:\Program Files (x86)\Microsoft Visual Studio\2019\Community\VC\Tools\MSVC\14.27.29110\include\xmemory

; 807  :         return static_cast<_Ty*>(_Allocate<_New_alignof<_Ty>>(_Get_size_of_n<sizeof(_Ty)>(_Count)));

  00057	89 45 08	 mov	 DWORD PTR __Newvec$1$[ebp], eax
; File C:\Program Files (x86)\Microsoft Visual Studio\2019\Community\VC\Tools\MSVC\14.27.29110\include\vector

; 1199 :         _Appended_last = _Ufill(_Appended_first, _Newsize - _Oldsize, _Val);

  0005a	2b cb		 sub	 ecx, ebx

; 1583 :         return _Uninitialized_value_construct_n(_Dest, _Count, _Getal());

  0005c	56		 push	 esi
  0005d	51		 push	 ecx

; 1192 :         const size_type _Newcapacity = _Calculate_growth(_Newsize);
; 1193 : 
; 1194 :         const pointer _Newvec         = _Getal().allocate(_Newcapacity);
; 1195 :         const pointer _Appended_first = _Newvec + _Oldsize;

  0005e	8d 0c 98	 lea	 ecx, DWORD PTR [eax+ebx*4]

; 1583 :         return _Uninitialized_value_construct_n(_Dest, _Count, _Getal());

  00061	51		 push	 ecx
  00062	e8 00 00 00 00	 call	 ??$_Uninitialized_value_construct_n@V?$allocator@PAUSEffectMeshData@CEffectMesh@@@std@@@std@@YAPAPAUSEffectMeshData@CEffectMesh@@PAPAU12@IAAV?$allocator@PAUSEffectMeshData@CEffectMesh@@@0@@Z ; std::_Uninitialized_value_construct_n<std::allocator<CEffectMesh::SEffectMeshData *> >

; 1597 :         _Uninitialized_move(_First, _Last, _Dest, _Getal());

  00067	8b 5d 08	 mov	 ebx, DWORD PTR __Newvec$1$[ebp]
  0006a	56		 push	 esi
  0006b	53		 push	 ebx
  0006c	ff 76 04	 push	 DWORD PTR [esi+4]
  0006f	ff 36		 push	 DWORD PTR [esi]
  00071	e8 00 00 00 00	 call	 ??$_Uninitialized_move@PAPAUSEffectMeshData@CEffectMesh@@V?$allocator@PAUSEffectMeshData@CEffectMesh@@@std@@@std@@YAPAPAUSEffectMeshData@CEffectMesh@@QAPAU12@0PAPAU12@AAV?$allocator@PAUSEffectMeshData@CEffectMesh@@@0@@Z ; std::_Uninitialized_move<CEffectMesh::SEffectMeshData * *,std::allocator<CEffectMesh::SEffectMeshData *> >

; 1675 :         if (_Myfirst) { // destroy and deallocate old array

  00076	8b 0e		 mov	 ecx, DWORD PTR [esi]

; 1597 :         _Uninitialized_move(_First, _Last, _Dest, _Getal());

  00078	83 c4 20	 add	 esp, 32			; 00000020H

; 1675 :         if (_Myfirst) { // destroy and deallocate old array

  0007b	85 c9		 test	 ecx, ecx
  0007d	74 12		 je	 SHORT $LN29@Resize_rea

; 1676 :             _Destroy(_Myfirst, _Mylast);
; 1677 :             _Getal().deallocate(_Myfirst, static_cast<size_type>(_Myend - _Myfirst));

  0007f	8b 46 08	 mov	 eax, DWORD PTR [esi+8]
  00082	2b c1		 sub	 eax, ecx
; File C:\Program Files (x86)\Microsoft Visual Studio\2019\Community\VC\Tools\MSVC\14.27.29110\include\xmemory

; 803  :         _Deallocate<_New_alignof<_Ty>>(_Ptr, sizeof(_Ty) * _Count);

  00084	83 e0 fc	 and	 eax, -4			; fffffffcH
  00087	50		 push	 eax
  00088	51		 push	 ecx
  00089	e8 00 00 00 00	 call	 ??$_Deallocate@$07$0A@@std@@YAXPAXI@Z ; std::_Deallocate<8,0>
  0008e	83 c4 08	 add	 esp, 8
$LN29@Resize_rea:
; File C:\Program Files (x86)\Microsoft Visual Studio\2019\Community\VC\Tools\MSVC\14.27.29110\include\vector

; 1681 :         _Mylast  = _Newvec + _Newsize;

  00091	8d 04 bb	 lea	 eax, DWORD PTR [ebx+edi*4]
  00094	89 1e		 mov	 DWORD PTR [esi], ebx
  00096	89 46 04	 mov	 DWORD PTR [esi+4], eax

; 1682 :         _Myend   = _Newvec + _Newcapacity;

  00099	8b 45 fc	 mov	 eax, DWORD PTR tv346[ebp]
  0009c	03 c3		 add	 eax, ebx
  0009e	5f		 pop	 edi
  0009f	89 46 08	 mov	 DWORD PTR [esi+8], eax
  000a2	5e		 pop	 esi
  000a3	5b		 pop	 ebx

; 1208 :     }

  000a4	8b e5		 mov	 esp, ebp
  000a6	5d		 pop	 ebp
  000a7	c2 08 00	 ret	 8
$LN36@Resize_rea:

; 1184 :             _Xlength();

  000aa	e8 00 00 00 00	 call	 ?_Xlength@?$vector@PAUSEffectMeshData@CEffectMesh@@V?$allocator@PAUSEffectMeshData@CEffectMesh@@@std@@@std@@CAXXZ ; std::vector<CEffectMesh::SEffectMeshData *,std::allocator<CEffectMesh::SEffectMeshData *> >::_Xlength
$LN37@Resize_rea:
; File C:\Program Files (x86)\Microsoft Visual Studio\2019\Community\VC\Tools\MSVC\14.27.29110\include\xmemory

; 61   :             _Throw_bad_array_new_length(); // multiply overflow

  000af	e8 00 00 00 00	 call	 ?_Throw_bad_array_new_length@std@@YAXXZ ; std::_Throw_bad_array_new_length
$LN33@Resize_rea:
  000b4	cc		 int	 3
??$_Resize_reallocate@U_Value_init_tag@std@@@?$vector@PAUSEffectMeshData@CEffectMesh@@V?$allocator@PAUSEffectMeshData@CEffectMesh@@@std@@@std@@AAEXIABU_Value_init_tag@1@@Z ENDP ; std::vector<CEffectMesh::SEffectMeshData *,std::allocator<CEffectMesh::SEffectMeshData *> >::_Resize_reallocate<std::_Value_init_tag>
_TEXT	ENDS
; Function compile flags: /Ogtp
; File C:\Program Files (x86)\Microsoft Visual Studio\2019\Community\VC\Tools\MSVC\14.27.29110\include\vector
; File C:\Program Files (x86)\Microsoft Visual Studio\2019\Community\VC\Tools\MSVC\14.27.29110\include\xmemory
; File C:\Program Files (x86)\Microsoft Visual Studio\2019\Community\VC\Tools\MSVC\14.27.29110\include\vector
; File C:\Program Files (x86)\Microsoft Visual Studio\2019\Community\VC\Tools\MSVC\14.27.29110\include\xmemory
; File C:\Program Files (x86)\Microsoft Visual Studio\2019\Community\VC\Tools\MSVC\14.27.29110\include\vector
; File C:\Program Files (x86)\Microsoft Visual Studio\2019\Community\VC\Tools\MSVC\14.27.29110\include\xmemory
; File C:\Program Files (x86)\Microsoft Visual Studio\2019\Community\VC\Tools\MSVC\14.27.29110\include\vector
; File C:\Program Files (x86)\Microsoft Visual Studio\2019\Community\VC\Tools\MSVC\14.27.29110\include\xmemory
; File C:\Program Files (x86)\Microsoft Visual Studio\2019\Community\VC\Tools\MSVC\14.27.29110\include\vector
; File C:\Program Files (x86)\Microsoft Visual Studio\2019\Community\VC\Tools\MSVC\14.27.29110\include\xmemory
; File C:\Program Files (x86)\Microsoft Visual Studio\2019\Community\VC\Tools\MSVC\14.27.29110\include\vector
;	COMDAT ??$_Resize_reallocate@U_Value_init_tag@std@@@?$vector@USMeshData@CEffectMeshScript@@V?$allocator@USMeshData@CEffectMeshScript@@@std@@@std@@AAEXIABU_Value_init_tag@1@@Z
_TEXT	SEGMENT
tv299 = -8						; size = 4
__Newvec$1$ = -4					; size = 4
__Oldsize$1$ = 8					; size = 4
__Newsize$ = 8						; size = 4
__Val$ = 12						; size = 4
??$_Resize_reallocate@U_Value_init_tag@std@@@?$vector@USMeshData@CEffectMeshScript@@V?$allocator@USMeshData@CEffectMeshScript@@@std@@@std@@AAEXIABU_Value_init_tag@1@@Z PROC ; std::vector<CEffectMeshScript::SMeshData,std::allocator<CEffectMeshScript::SMeshData> >::_Resize_reallocate<std::_Value_init_tag>, COMDAT
; _this$ = ecx

; 1182 :     void _Resize_reallocate(const size_type _Newsize, const _Ty2& _Val) {

  00000	55		 push	 ebp
  00001	8b ec		 mov	 ebp, esp
  00003	83 ec 08	 sub	 esp, 8
  00006	53		 push	 ebx

; 1183 :         if (_Newsize > max_size()) {

  00007	8b 5d 08	 mov	 ebx, DWORD PTR __Newsize$[ebp]
  0000a	56		 push	 esi
  0000b	57		 push	 edi
  0000c	8b f9		 mov	 edi, ecx
  0000e	81 fb 44 44 44
	04		 cmp	 ebx, 71582788		; 04444444H
  00014	0f 87 f9 00 00
	00		 ja	 $LN38@Resize_rea

; 1185 :         }
; 1186 : 
; 1187 :         auto& _My_data    = _Mypair._Myval2;
; 1188 :         pointer& _Myfirst = _My_data._Myfirst;
; 1189 :         pointer& _Mylast  = _My_data._Mylast;
; 1190 : 
; 1191 :         const auto _Oldsize          = static_cast<size_type>(_Mylast - _Myfirst);

  0001a	8b 4f 04	 mov	 ecx, DWORD PTR [edi+4]
  0001d	b8 89 88 88 88	 mov	 eax, -2004318071	; 88888889H
  00022	2b 0f		 sub	 ecx, DWORD PTR [edi]
  00024	f7 e9		 imul	 ecx
  00026	03 d1		 add	 edx, ecx

; 1494 :         return static_cast<size_type>(_My_data._Myend - _My_data._Myfirst);

  00028	8b 4f 08	 mov	 ecx, DWORD PTR [edi+8]
  0002b	2b 0f		 sub	 ecx, DWORD PTR [edi]

; 1185 :         }
; 1186 : 
; 1187 :         auto& _My_data    = _Mypair._Myval2;
; 1188 :         pointer& _Myfirst = _My_data._Myfirst;
; 1189 :         pointer& _Mylast  = _My_data._Mylast;
; 1190 : 
; 1191 :         const auto _Oldsize          = static_cast<size_type>(_Mylast - _Myfirst);

  0002d	c1 fa 05	 sar	 edx, 5
  00030	8b c2		 mov	 eax, edx
  00032	c1 e8 1f	 shr	 eax, 31			; 0000001fH
  00035	03 c2		 add	 eax, edx
  00037	89 45 08	 mov	 DWORD PTR __Oldsize$1$[ebp], eax

; 1494 :         return static_cast<size_type>(_My_data._Myend - _My_data._Myfirst);

  0003a	b8 89 88 88 88	 mov	 eax, -2004318071	; 88888889H
  0003f	f7 e9		 imul	 ecx

; 1619 :         if (_Oldcapacity > max_size() - _Oldcapacity / 2) {

  00041	b8 44 44 44 04	 mov	 eax, 71582788		; 04444444H

; 1494 :         return static_cast<size_type>(_My_data._Myend - _My_data._Myfirst);

  00046	03 d1		 add	 edx, ecx
  00048	c1 fa 05	 sar	 edx, 5
  0004b	8b ca		 mov	 ecx, edx
  0004d	c1 e9 1f	 shr	 ecx, 31			; 0000001fH
  00050	03 ca		 add	 ecx, edx

; 1619 :         if (_Oldcapacity > max_size() - _Oldcapacity / 2) {

  00052	8b d1		 mov	 edx, ecx
  00054	d1 ea		 shr	 edx, 1
  00056	2b c2		 sub	 eax, edx
  00058	3b c8		 cmp	 ecx, eax
  0005a	77 14		 ja	 SHORT $LN36@Resize_rea

; 1620 :             return _Newsize; // geometric growth would overflow
; 1621 :         }
; 1622 : 
; 1623 :         const size_type _Geometric = _Oldcapacity + _Oldcapacity / 2;

  0005c	8d 04 0a	 lea	 eax, DWORD PTR [edx+ecx]

; 1624 : 
; 1625 :         if (_Geometric < _Newsize) {

  0005f	3b c3		 cmp	 eax, ebx
  00061	72 0d		 jb	 SHORT $LN36@Resize_rea
; File C:\Program Files (x86)\Microsoft Visual Studio\2019\Community\VC\Tools\MSVC\14.27.29110\include\xmemory

; 60   :         if (_Count > _Max_possible) {

  00063	3d 44 44 44 04	 cmp	 eax, 71582788		; 04444444H
  00068	0f 87 aa 00 00
	00		 ja	 $LN39@Resize_rea
  0006e	eb 02		 jmp	 SHORT $LN18@Resize_rea
$LN36@Resize_rea:

; 62   :         }
; 63   :     }
; 64   : 
; 65   :     return _Count * _Ty_size;

  00070	8b c3		 mov	 eax, ebx
$LN18@Resize_rea:
  00072	8b c8		 mov	 ecx, eax
  00074	c1 e1 04	 shl	 ecx, 4
  00077	2b c8		 sub	 ecx, eax
  00079	c1 e1 02	 shl	 ecx, 2

; 807  :         return static_cast<_Ty*>(_Allocate<_New_alignof<_Ty>>(_Get_size_of_n<sizeof(_Ty)>(_Count)));

  0007c	51		 push	 ecx

; 65   :     return _Count * _Ty_size;

  0007d	89 4d f8	 mov	 DWORD PTR tv299[ebp], ecx

; 807  :         return static_cast<_Ty*>(_Allocate<_New_alignof<_Ty>>(_Get_size_of_n<sizeof(_Ty)>(_Count)));

  00080	e8 00 00 00 00	 call	 ??$_Allocate@$07U_Default_allocate_traits@std@@$0A@@std@@YAPAXI@Z ; std::_Allocate<8,std::_Default_allocate_traits,0>
; File C:\Program Files (x86)\Microsoft Visual Studio\2019\Community\VC\Tools\MSVC\14.27.29110\include\vector

; 1199 :         _Appended_last = _Ufill(_Appended_first, _Newsize - _Oldsize, _Val);

  00085	8b 4d 08	 mov	 ecx, DWORD PTR __Oldsize$1$[ebp]
; File C:\Program Files (x86)\Microsoft Visual Studio\2019\Community\VC\Tools\MSVC\14.27.29110\include\xmemory

; 807  :         return static_cast<_Ty*>(_Allocate<_New_alignof<_Ty>>(_Get_size_of_n<sizeof(_Ty)>(_Count)));

  00088	8b f0		 mov	 esi, eax
; File C:\Program Files (x86)\Microsoft Visual Studio\2019\Community\VC\Tools\MSVC\14.27.29110\include\vector

; 1199 :         _Appended_last = _Ufill(_Appended_first, _Newsize - _Oldsize, _Val);

  0008a	8b c3		 mov	 eax, ebx
; File C:\Program Files (x86)\Microsoft Visual Studio\2019\Community\VC\Tools\MSVC\14.27.29110\include\xmemory

; 807  :         return static_cast<_Ty*>(_Allocate<_New_alignof<_Ty>>(_Get_size_of_n<sizeof(_Ty)>(_Count)));

  0008c	89 75 fc	 mov	 DWORD PTR __Newvec$1$[ebp], esi
; File C:\Program Files (x86)\Microsoft Visual Studio\2019\Community\VC\Tools\MSVC\14.27.29110\include\vector

; 1199 :         _Appended_last = _Ufill(_Appended_first, _Newsize - _Oldsize, _Val);

  0008f	2b c1		 sub	 eax, ecx

; 1583 :         return _Uninitialized_value_construct_n(_Dest, _Count, _Getal());

  00091	57		 push	 edi
  00092	50		 push	 eax

; 1192 :         const size_type _Newcapacity = _Calculate_growth(_Newsize);
; 1193 : 
; 1194 :         const pointer _Newvec         = _Getal().allocate(_Newcapacity);
; 1195 :         const pointer _Appended_first = _Newvec + _Oldsize;

  00093	8b c1		 mov	 eax, ecx
  00095	c1 e0 04	 shl	 eax, 4
  00098	2b c1		 sub	 eax, ecx
  0009a	8d 04 86	 lea	 eax, DWORD PTR [esi+eax*4]

; 1583 :         return _Uninitialized_value_construct_n(_Dest, _Count, _Getal());

  0009d	50		 push	 eax
  0009e	e8 00 00 00 00	 call	 ??$_Uninitialized_value_construct_n@V?$allocator@USMeshData@CEffectMeshScript@@@std@@@std@@YAPAUSMeshData@CEffectMeshScript@@PAU12@IAAV?$allocator@USMeshData@CEffectMeshScript@@@0@@Z ; std::_Uninitialized_value_construct_n<std::allocator<CEffectMeshScript::SMeshData> >

; 1597 :         _Uninitialized_move(_First, _Last, _Dest, _Getal());

  000a3	57		 push	 edi
  000a4	56		 push	 esi
  000a5	ff 77 04	 push	 DWORD PTR [edi+4]
  000a8	ff 37		 push	 DWORD PTR [edi]
  000aa	e8 00 00 00 00	 call	 ??$_Uninitialized_move@PAUSMeshData@CEffectMeshScript@@V?$allocator@USMeshData@CEffectMeshScript@@@std@@@std@@YAPAUSMeshData@CEffectMeshScript@@QAU12@0PAU12@AAV?$allocator@USMeshData@CEffectMeshScript@@@0@@Z ; std::_Uninitialized_move<CEffectMeshScript::SMeshData *,std::allocator<CEffectMeshScript::SMeshData> >

; 1675 :         if (_Myfirst) { // destroy and deallocate old array

  000af	8b 0f		 mov	 ecx, DWORD PTR [edi]

; 1597 :         _Uninitialized_move(_First, _Last, _Dest, _Getal());

  000b1	83 c4 20	 add	 esp, 32			; 00000020H

; 1675 :         if (_Myfirst) { // destroy and deallocate old array

  000b4	85 c9		 test	 ecx, ecx
  000b6	74 3b		 je	 SHORT $LN29@Resize_rea

; 1612 :         _Destroy_range(_First, _Last, _Getal());

  000b8	57		 push	 edi
  000b9	ff 77 04	 push	 DWORD PTR [edi+4]
  000bc	51		 push	 ecx
  000bd	e8 00 00 00 00	 call	 ??$_Destroy_range@V?$allocator@USMeshData@CEffectMeshScript@@@std@@@std@@YAXPAUSMeshData@CEffectMeshScript@@QAU12@AAV?$allocator@USMeshData@CEffectMeshScript@@@0@@Z ; std::_Destroy_range<std::allocator<CEffectMeshScript::SMeshData> >

; 1677 :             _Getal().deallocate(_Myfirst, static_cast<size_type>(_Myend - _Myfirst));

  000c2	8b 37		 mov	 esi, DWORD PTR [edi]
  000c4	b8 89 88 88 88	 mov	 eax, -2004318071	; 88888889H
  000c9	8b 4f 08	 mov	 ecx, DWORD PTR [edi+8]
  000cc	2b ce		 sub	 ecx, esi
  000ce	f7 e9		 imul	 ecx
  000d0	03 d1		 add	 edx, ecx
  000d2	c1 fa 05	 sar	 edx, 5
  000d5	8b ca		 mov	 ecx, edx
  000d7	c1 e9 1f	 shr	 ecx, 31			; 0000001fH
  000da	03 ca		 add	 ecx, edx
; File C:\Program Files (x86)\Microsoft Visual Studio\2019\Community\VC\Tools\MSVC\14.27.29110\include\xmemory

; 803  :         _Deallocate<_New_alignof<_Ty>>(_Ptr, sizeof(_Ty) * _Count);

  000dc	8b c1		 mov	 eax, ecx
  000de	c1 e0 04	 shl	 eax, 4
  000e1	2b c1		 sub	 eax, ecx
  000e3	c1 e0 02	 shl	 eax, 2
  000e6	50		 push	 eax
  000e7	56		 push	 esi
  000e8	e8 00 00 00 00	 call	 ??$_Deallocate@$07$0A@@std@@YAXPAXI@Z ; std::_Deallocate<8,0>
  000ed	8b 75 fc	 mov	 esi, DWORD PTR __Newvec$1$[ebp]
  000f0	83 c4 14	 add	 esp, 20			; 00000014H
$LN29@Resize_rea:
; File C:\Program Files (x86)\Microsoft Visual Studio\2019\Community\VC\Tools\MSVC\14.27.29110\include\vector

; 1681 :         _Mylast  = _Newvec + _Newsize;

  000f3	8b c3		 mov	 eax, ebx
  000f5	89 37		 mov	 DWORD PTR [edi], esi
  000f7	c1 e0 04	 shl	 eax, 4
  000fa	2b c3		 sub	 eax, ebx
  000fc	8d 04 86	 lea	 eax, DWORD PTR [esi+eax*4]
  000ff	89 47 04	 mov	 DWORD PTR [edi+4], eax

; 1682 :         _Myend   = _Newvec + _Newcapacity;

  00102	8b 45 f8	 mov	 eax, DWORD PTR tv299[ebp]
  00105	03 c6		 add	 eax, esi
  00107	89 47 08	 mov	 DWORD PTR [edi+8], eax
  0010a	5f		 pop	 edi
  0010b	5e		 pop	 esi
  0010c	5b		 pop	 ebx

; 1208 :     }

  0010d	8b e5		 mov	 esp, ebp
  0010f	5d		 pop	 ebp
  00110	c2 08 00	 ret	 8
$LN38@Resize_rea:

; 1184 :             _Xlength();

  00113	e8 00 00 00 00	 call	 ?_Xlength@?$vector@USMeshData@CEffectMeshScript@@V?$allocator@USMeshData@CEffectMeshScript@@@std@@@std@@CAXXZ ; std::vector<CEffectMeshScript::SMeshData,std::allocator<CEffectMeshScript::SMeshData> >::_Xlength
$LN39@Resize_rea:
; File C:\Program Files (x86)\Microsoft Visual Studio\2019\Community\VC\Tools\MSVC\14.27.29110\include\xmemory

; 61   :             _Throw_bad_array_new_length(); // multiply overflow

  00118	e8 00 00 00 00	 call	 ?_Throw_bad_array_new_length@std@@YAXXZ ; std::_Throw_bad_array_new_length
$LN35@Resize_rea:
  0011d	cc		 int	 3
??$_Resize_reallocate@U_Value_init_tag@std@@@?$vector@USMeshData@CEffectMeshScript@@V?$allocator@USMeshData@CEffectMeshScript@@@std@@@std@@AAEXIABU_Value_init_tag@1@@Z ENDP ; std::vector<CEffectMeshScript::SMeshData,std::allocator<CEffectMeshScript::SMeshData> >::_Resize_reallocate<std::_Value_init_tag>
_TEXT	ENDS
; Function compile flags: /Ogtp
; File C:\Program Files (x86)\Microsoft Visual Studio\2019\Community\VC\Tools\MSVC\14.27.29110\include\vector
; File C:\Program Files (x86)\Microsoft Visual Studio\2019\Community\VC\Tools\MSVC\14.27.29110\include\xmemory
; File C:\Program Files (x86)\Microsoft Visual Studio\2019\Community\VC\Tools\MSVC\14.27.29110\include\vector
; File C:\Program Files (x86)\Microsoft Visual Studio\2019\Community\VC\Tools\MSVC\14.27.29110\include\xmemory
; File C:\Program Files (x86)\Microsoft Visual Studio\2019\Community\VC\Tools\MSVC\14.27.29110\include\vector
; File C:\Program Files (x86)\Microsoft Visual Studio\2019\Community\VC\Tools\MSVC\14.27.29110\include\xmemory
; File C:\Program Files (x86)\Microsoft Visual Studio\2019\Community\VC\Tools\MSVC\14.27.29110\include\vector
; File C:\Program Files (x86)\Microsoft Visual Studio\2019\Community\VC\Tools\MSVC\14.27.29110\include\xmemory
; File C:\Program Files (x86)\Microsoft Visual Studio\2019\Community\VC\Tools\MSVC\14.27.29110\include\vector
;	COMDAT ??$_Resize_reallocate@U_Value_init_tag@std@@@?$vector@UD3DXVECTOR3@@V?$allocator@UD3DXVECTOR3@@@std@@@std@@AAEXIABU_Value_init_tag@1@@Z
_TEXT	SEGMENT
tv319 = 8						; size = 4
__Newsize$ = 8						; size = 4
__Val$ = 12						; size = 4
??$_Resize_reallocate@U_Value_init_tag@std@@@?$vector@UD3DXVECTOR3@@V?$allocator@UD3DXVECTOR3@@@std@@@std@@AAEXIABU_Value_init_tag@1@@Z PROC ; std::vector<D3DXVECTOR3,std::allocator<D3DXVECTOR3> >::_Resize_reallocate<std::_Value_init_tag>, COMDAT
; _this$ = ecx

; 1182 :     void _Resize_reallocate(const size_type _Newsize, const _Ty2& _Val) {

  00000	55		 push	 ebp
  00001	8b ec		 mov	 ebp, esp
  00003	53		 push	 ebx
  00004	56		 push	 esi

; 1183 :         if (_Newsize > max_size()) {

  00005	8b 75 08	 mov	 esi, DWORD PTR __Newsize$[ebp]
  00008	57		 push	 edi
  00009	8b f9		 mov	 edi, ecx
  0000b	81 fe 55 55 55
	15		 cmp	 esi, 357913941		; 15555555H
  00011	0f 87 9c 00 00
	00		 ja	 $LN36@Resize_rea

; 1494 :         return static_cast<size_type>(_My_data._Myend - _My_data._Myfirst);

  00017	8b 4f 08	 mov	 ecx, DWORD PTR [edi+8]
  0001a	b8 ab aa aa 2a	 mov	 eax, 715827883		; 2aaaaaabH
  0001f	2b 0f		 sub	 ecx, DWORD PTR [edi]
  00021	f7 e9		 imul	 ecx

; 1619 :         if (_Oldcapacity > max_size() - _Oldcapacity / 2) {

  00023	b8 55 55 55 15	 mov	 eax, 357913941		; 15555555H

; 1494 :         return static_cast<size_type>(_My_data._Myend - _My_data._Myfirst);

  00028	d1 fa		 sar	 edx, 1
  0002a	8b ca		 mov	 ecx, edx
  0002c	c1 e9 1f	 shr	 ecx, 31			; 0000001fH
  0002f	03 ca		 add	 ecx, edx

; 1619 :         if (_Oldcapacity > max_size() - _Oldcapacity / 2) {

  00031	8b d1		 mov	 edx, ecx
  00033	d1 ea		 shr	 edx, 1
  00035	2b c2		 sub	 eax, edx
  00037	3b c8		 cmp	 ecx, eax
  00039	77 10		 ja	 SHORT $LN34@Resize_rea

; 1620 :             return _Newsize; // geometric growth would overflow
; 1621 :         }
; 1622 : 
; 1623 :         const size_type _Geometric = _Oldcapacity + _Oldcapacity / 2;

  0003b	8d 04 0a	 lea	 eax, DWORD PTR [edx+ecx]

; 1624 : 
; 1625 :         if (_Geometric < _Newsize) {

  0003e	3b c6		 cmp	 eax, esi
  00040	72 09		 jb	 SHORT $LN34@Resize_rea
; File C:\Program Files (x86)\Microsoft Visual Studio\2019\Community\VC\Tools\MSVC\14.27.29110\include\xmemory

; 60   :         if (_Count > _Max_possible) {

  00042	3d 55 55 55 15	 cmp	 eax, 357913941		; 15555555H
  00047	77 6f		 ja	 SHORT $LN37@Resize_rea
  00049	eb 02		 jmp	 SHORT $LN18@Resize_rea
$LN34@Resize_rea:

; 62   :         }
; 63   :     }
; 64   : 
; 65   :     return _Count * _Ty_size;

  0004b	8b c6		 mov	 eax, esi
$LN18@Resize_rea:
  0004d	8d 04 40	 lea	 eax, DWORD PTR [eax+eax*2]
  00050	c1 e0 02	 shl	 eax, 2

; 807  :         return static_cast<_Ty*>(_Allocate<_New_alignof<_Ty>>(_Get_size_of_n<sizeof(_Ty)>(_Count)));

  00053	50		 push	 eax

; 65   :     return _Count * _Ty_size;

  00054	89 45 08	 mov	 DWORD PTR tv319[ebp], eax

; 807  :         return static_cast<_Ty*>(_Allocate<_New_alignof<_Ty>>(_Get_size_of_n<sizeof(_Ty)>(_Count)));

  00057	e8 00 00 00 00	 call	 ??$_Allocate@$07U_Default_allocate_traits@std@@$0A@@std@@YAPAXI@Z ; std::_Allocate<8,std::_Default_allocate_traits,0>
; File C:\Program Files (x86)\Microsoft Visual Studio\2019\Community\VC\Tools\MSVC\14.27.29110\include\vector

; 1597 :         _Uninitialized_move(_First, _Last, _Dest, _Getal());

  0005c	57		 push	 edi
; File C:\Program Files (x86)\Microsoft Visual Studio\2019\Community\VC\Tools\MSVC\14.27.29110\include\xmemory

; 807  :         return static_cast<_Ty*>(_Allocate<_New_alignof<_Ty>>(_Get_size_of_n<sizeof(_Ty)>(_Count)));

  0005d	8b d8		 mov	 ebx, eax
; File C:\Program Files (x86)\Microsoft Visual Studio\2019\Community\VC\Tools\MSVC\14.27.29110\include\vector

; 1597 :         _Uninitialized_move(_First, _Last, _Dest, _Getal());

  0005f	53		 push	 ebx
  00060	ff 77 04	 push	 DWORD PTR [edi+4]
  00063	ff 37		 push	 DWORD PTR [edi]
  00065	e8 00 00 00 00	 call	 ??$_Uninitialized_move@PAUD3DXVECTOR3@@V?$allocator@UD3DXVECTOR3@@@std@@@std@@YAPAUD3DXVECTOR3@@QAU1@0PAU1@AAV?$allocator@UD3DXVECTOR3@@@0@@Z ; std::_Uninitialized_move<D3DXVECTOR3 *,std::allocator<D3DXVECTOR3> >

; 1675 :         if (_Myfirst) { // destroy and deallocate old array

  0006a	8b 07		 mov	 eax, DWORD PTR [edi]

; 1597 :         _Uninitialized_move(_First, _Last, _Dest, _Getal());

  0006c	83 c4 14	 add	 esp, 20			; 00000014H

; 1675 :         if (_Myfirst) { // destroy and deallocate old array

  0006f	85 c0		 test	 eax, eax
  00071	74 26		 je	 SHORT $LN29@Resize_rea

; 1676 :             _Destroy(_Myfirst, _Mylast);
; 1677 :             _Getal().deallocate(_Myfirst, static_cast<size_type>(_Myend - _Myfirst));

  00073	8b 4f 08	 mov	 ecx, DWORD PTR [edi+8]
  00076	2b c8		 sub	 ecx, eax
  00078	b8 ab aa aa 2a	 mov	 eax, 715827883		; 2aaaaaabH
  0007d	f7 e9		 imul	 ecx
  0007f	d1 fa		 sar	 edx, 1
  00081	8b c2		 mov	 eax, edx
  00083	c1 e8 1f	 shr	 eax, 31			; 0000001fH
  00086	03 c2		 add	 eax, edx
; File C:\Program Files (x86)\Microsoft Visual Studio\2019\Community\VC\Tools\MSVC\14.27.29110\include\xmemory

; 803  :         _Deallocate<_New_alignof<_Ty>>(_Ptr, sizeof(_Ty) * _Count);

  00088	8d 04 40	 lea	 eax, DWORD PTR [eax+eax*2]
  0008b	c1 e0 02	 shl	 eax, 2
  0008e	50		 push	 eax
  0008f	ff 37		 push	 DWORD PTR [edi]
  00091	e8 00 00 00 00	 call	 ??$_Deallocate@$07$0A@@std@@YAXPAXI@Z ; std::_Deallocate<8,0>
  00096	83 c4 08	 add	 esp, 8
$LN29@Resize_rea:
; File C:\Program Files (x86)\Microsoft Visual Studio\2019\Community\VC\Tools\MSVC\14.27.29110\include\vector

; 1681 :         _Mylast  = _Newvec + _Newsize;

  00099	8d 04 76	 lea	 eax, DWORD PTR [esi+esi*2]
  0009c	89 1f		 mov	 DWORD PTR [edi], ebx
  0009e	8d 04 83	 lea	 eax, DWORD PTR [ebx+eax*4]
  000a1	89 47 04	 mov	 DWORD PTR [edi+4], eax

; 1682 :         _Myend   = _Newvec + _Newcapacity;

  000a4	8b 45 08	 mov	 eax, DWORD PTR tv319[ebp]
  000a7	03 c3		 add	 eax, ebx
  000a9	89 47 08	 mov	 DWORD PTR [edi+8], eax
  000ac	5f		 pop	 edi
  000ad	5e		 pop	 esi
  000ae	5b		 pop	 ebx

; 1208 :     }

  000af	5d		 pop	 ebp
  000b0	c2 08 00	 ret	 8
$LN36@Resize_rea:

; 1184 :             _Xlength();

  000b3	e8 00 00 00 00	 call	 ?_Xlength@?$vector@UD3DXVECTOR3@@V?$allocator@UD3DXVECTOR3@@@std@@@std@@CAXXZ ; std::vector<D3DXVECTOR3,std::allocator<D3DXVECTOR3> >::_Xlength
$LN37@Resize_rea:
; File C:\Program Files (x86)\Microsoft Visual Studio\2019\Community\VC\Tools\MSVC\14.27.29110\include\xmemory

; 61   :             _Throw_bad_array_new_length(); // multiply overflow

  000b8	e8 00 00 00 00	 call	 ?_Throw_bad_array_new_length@std@@YAXXZ ; std::_Throw_bad_array_new_length
$LN33@Resize_rea:
  000bd	cc		 int	 3
??$_Resize_reallocate@U_Value_init_tag@std@@@?$vector@UD3DXVECTOR3@@V?$allocator@UD3DXVECTOR3@@@std@@@std@@AAEXIABU_Value_init_tag@1@@Z ENDP ; std::vector<D3DXVECTOR3,std::allocator<D3DXVECTOR3> >::_Resize_reallocate<std::_Value_init_tag>
_TEXT	ENDS
; Function compile flags: /Ogtp
; File C:\Program Files (x86)\Microsoft Visual Studio\2019\Community\VC\Tools\MSVC\14.27.29110\include\vector
; File C:\Program Files (x86)\Microsoft Visual Studio\2019\Community\VC\Tools\MSVC\14.27.29110\include\xmemory
; File C:\Program Files (x86)\Microsoft Visual Studio\2019\Community\VC\Tools\MSVC\14.27.29110\include\vector
; File C:\Program Files (x86)\Microsoft Visual Studio\2019\Community\VC\Tools\MSVC\14.27.29110\include\xmemory
; File C:\Program Files (x86)\Microsoft Visual Studio\2019\Community\VC\Tools\MSVC\14.27.29110\include\vector
; File C:\Program Files (x86)\Microsoft Visual Studio\2019\Community\VC\Tools\MSVC\14.27.29110\include\xmemory
; File C:\Program Files (x86)\Microsoft Visual Studio\2019\Community\VC\Tools\MSVC\14.27.29110\include\vector
; File C:\Program Files (x86)\Microsoft Visual Studio\2019\Community\VC\Tools\MSVC\14.27.29110\include\xmemory
; File C:\Program Files (x86)\Microsoft Visual Studio\2019\Community\VC\Tools\MSVC\14.27.29110\include\vector
;	COMDAT ??$_Resize_reallocate@U_Value_init_tag@std@@@?$vector@HV?$allocator@H@std@@@std@@AAEXIABU_Value_init_tag@1@@Z
_TEXT	SEGMENT
tv346 = -4						; size = 4
__Newvec$1$ = 8						; size = 4
__Newsize$ = 8						; size = 4
__Val$ = 12						; size = 4
??$_Resize_reallocate@U_Value_init_tag@std@@@?$vector@HV?$allocator@H@std@@@std@@AAEXIABU_Value_init_tag@1@@Z PROC ; std::vector<int,std::allocator<int> >::_Resize_reallocate<std::_Value_init_tag>, COMDAT
; _this$ = ecx

; 1182 :     void _Resize_reallocate(const size_type _Newsize, const _Ty2& _Val) {

  00000	55		 push	 ebp
  00001	8b ec		 mov	 ebp, esp
  00003	51		 push	 ecx
  00004	53		 push	 ebx
  00005	56		 push	 esi
  00006	57		 push	 edi

; 1183 :         if (_Newsize > max_size()) {

  00007	8b 7d 08	 mov	 edi, DWORD PTR __Newsize$[ebp]
  0000a	8b f1		 mov	 esi, ecx
  0000c	81 ff ff ff ff
	3f		 cmp	 edi, 1073741823		; 3fffffffH
  00012	0f 87 92 00 00
	00		 ja	 $LN36@Resize_rea

; 1494 :         return static_cast<size_type>(_My_data._Myend - _My_data._Myfirst);

  00018	8b 4e 08	 mov	 ecx, DWORD PTR [esi+8]

; 1619 :         if (_Oldcapacity > max_size() - _Oldcapacity / 2) {

  0001b	b8 ff ff ff 3f	 mov	 eax, 1073741823		; 3fffffffH

; 1494 :         return static_cast<size_type>(_My_data._Myend - _My_data._Myfirst);

  00020	2b 0e		 sub	 ecx, DWORD PTR [esi]

; 1185 :         }
; 1186 : 
; 1187 :         auto& _My_data    = _Mypair._Myval2;
; 1188 :         pointer& _Myfirst = _My_data._Myfirst;
; 1189 :         pointer& _Mylast  = _My_data._Mylast;
; 1190 : 
; 1191 :         const auto _Oldsize          = static_cast<size_type>(_Mylast - _Myfirst);

  00022	8b 5e 04	 mov	 ebx, DWORD PTR [esi+4]
  00025	2b 1e		 sub	 ebx, DWORD PTR [esi]

; 1494 :         return static_cast<size_type>(_My_data._Myend - _My_data._Myfirst);

  00027	c1 f9 02	 sar	 ecx, 2

; 1619 :         if (_Oldcapacity > max_size() - _Oldcapacity / 2) {

  0002a	8b d1		 mov	 edx, ecx

; 1185 :         }
; 1186 : 
; 1187 :         auto& _My_data    = _Mypair._Myval2;
; 1188 :         pointer& _Myfirst = _My_data._Myfirst;
; 1189 :         pointer& _Mylast  = _My_data._Mylast;
; 1190 : 
; 1191 :         const auto _Oldsize          = static_cast<size_type>(_Mylast - _Myfirst);

  0002c	c1 fb 02	 sar	 ebx, 2

; 1619 :         if (_Oldcapacity > max_size() - _Oldcapacity / 2) {

  0002f	d1 ea		 shr	 edx, 1
  00031	2b c2		 sub	 eax, edx
  00033	3b c8		 cmp	 ecx, eax
  00035	77 10		 ja	 SHORT $LN34@Resize_rea

; 1620 :             return _Newsize; // geometric growth would overflow
; 1621 :         }
; 1622 : 
; 1623 :         const size_type _Geometric = _Oldcapacity + _Oldcapacity / 2;

  00037	8d 04 0a	 lea	 eax, DWORD PTR [edx+ecx]

; 1624 : 
; 1625 :         if (_Geometric < _Newsize) {

  0003a	3b c7		 cmp	 eax, edi
  0003c	72 09		 jb	 SHORT $LN34@Resize_rea
; File C:\Program Files (x86)\Microsoft Visual Studio\2019\Community\VC\Tools\MSVC\14.27.29110\include\xmemory

; 60   :         if (_Count > _Max_possible) {

  0003e	3d ff ff ff 3f	 cmp	 eax, 1073741823		; 3fffffffH
  00043	77 6a		 ja	 SHORT $LN37@Resize_rea
  00045	eb 02		 jmp	 SHORT $LN18@Resize_rea
$LN34@Resize_rea:

; 62   :         }
; 63   :     }
; 64   : 
; 65   :     return _Count * _Ty_size;

  00047	8b c7		 mov	 eax, edi
$LN18@Resize_rea:
  00049	c1 e0 02	 shl	 eax, 2

; 807  :         return static_cast<_Ty*>(_Allocate<_New_alignof<_Ty>>(_Get_size_of_n<sizeof(_Ty)>(_Count)));

  0004c	50		 push	 eax

; 65   :     return _Count * _Ty_size;

  0004d	89 45 fc	 mov	 DWORD PTR tv346[ebp], eax

; 807  :         return static_cast<_Ty*>(_Allocate<_New_alignof<_Ty>>(_Get_size_of_n<sizeof(_Ty)>(_Count)));

  00050	e8 00 00 00 00	 call	 ??$_Allocate@$07U_Default_allocate_traits@std@@$0A@@std@@YAPAXI@Z ; std::_Allocate<8,std::_Default_allocate_traits,0>
; File C:\Program Files (x86)\Microsoft Visual Studio\2019\Community\VC\Tools\MSVC\14.27.29110\include\vector

; 1199 :         _Appended_last = _Ufill(_Appended_first, _Newsize - _Oldsize, _Val);

  00055	8b cf		 mov	 ecx, edi
; File C:\Program Files (x86)\Microsoft Visual Studio\2019\Community\VC\Tools\MSVC\14.27.29110\include\xmemory

; 807  :         return static_cast<_Ty*>(_Allocate<_New_alignof<_Ty>>(_Get_size_of_n<sizeof(_Ty)>(_Count)));

  00057	89 45 08	 mov	 DWORD PTR __Newvec$1$[ebp], eax
; File C:\Program Files (x86)\Microsoft Visual Studio\2019\Community\VC\Tools\MSVC\14.27.29110\include\vector

; 1199 :         _Appended_last = _Ufill(_Appended_first, _Newsize - _Oldsize, _Val);

  0005a	2b cb		 sub	 ecx, ebx

; 1583 :         return _Uninitialized_value_construct_n(_Dest, _Count, _Getal());

  0005c	56		 push	 esi
  0005d	51		 push	 ecx

; 1192 :         const size_type _Newcapacity = _Calculate_growth(_Newsize);
; 1193 : 
; 1194 :         const pointer _Newvec         = _Getal().allocate(_Newcapacity);
; 1195 :         const pointer _Appended_first = _Newvec + _Oldsize;

  0005e	8d 0c 98	 lea	 ecx, DWORD PTR [eax+ebx*4]

; 1583 :         return _Uninitialized_value_construct_n(_Dest, _Count, _Getal());

  00061	51		 push	 ecx
  00062	e8 00 00 00 00	 call	 ??$_Uninitialized_value_construct_n@V?$allocator@H@std@@@std@@YAPAHPAHIAAV?$allocator@H@0@@Z ; std::_Uninitialized_value_construct_n<std::allocator<int> >

; 1597 :         _Uninitialized_move(_First, _Last, _Dest, _Getal());

  00067	8b 5d 08	 mov	 ebx, DWORD PTR __Newvec$1$[ebp]
  0006a	56		 push	 esi
  0006b	53		 push	 ebx
  0006c	ff 76 04	 push	 DWORD PTR [esi+4]
  0006f	ff 36		 push	 DWORD PTR [esi]
  00071	e8 00 00 00 00	 call	 ??$_Uninitialized_move@PAHV?$allocator@H@std@@@std@@YAPAHQAH0PAHAAV?$allocator@H@0@@Z ; std::_Uninitialized_move<int *,std::allocator<int> >

; 1675 :         if (_Myfirst) { // destroy and deallocate old array

  00076	8b 0e		 mov	 ecx, DWORD PTR [esi]

; 1597 :         _Uninitialized_move(_First, _Last, _Dest, _Getal());

  00078	83 c4 20	 add	 esp, 32			; 00000020H

; 1675 :         if (_Myfirst) { // destroy and deallocate old array

  0007b	85 c9		 test	 ecx, ecx
  0007d	74 12		 je	 SHORT $LN29@Resize_rea

; 1676 :             _Destroy(_Myfirst, _Mylast);
; 1677 :             _Getal().deallocate(_Myfirst, static_cast<size_type>(_Myend - _Myfirst));

  0007f	8b 46 08	 mov	 eax, DWORD PTR [esi+8]
  00082	2b c1		 sub	 eax, ecx
; File C:\Program Files (x86)\Microsoft Visual Studio\2019\Community\VC\Tools\MSVC\14.27.29110\include\xmemory

; 803  :         _Deallocate<_New_alignof<_Ty>>(_Ptr, sizeof(_Ty) * _Count);

  00084	83 e0 fc	 and	 eax, -4			; fffffffcH
  00087	50		 push	 eax
  00088	51		 push	 ecx
  00089	e8 00 00 00 00	 call	 ??$_Deallocate@$07$0A@@std@@YAXPAXI@Z ; std::_Deallocate<8,0>
  0008e	83 c4 08	 add	 esp, 8
$LN29@Resize_rea:
; File C:\Program Files (x86)\Microsoft Visual Studio\2019\Community\VC\Tools\MSVC\14.27.29110\include\vector

; 1681 :         _Mylast  = _Newvec + _Newsize;

  00091	8d 04 bb	 lea	 eax, DWORD PTR [ebx+edi*4]
  00094	89 1e		 mov	 DWORD PTR [esi], ebx
  00096	89 46 04	 mov	 DWORD PTR [esi+4], eax

; 1682 :         _Myend   = _Newvec + _Newcapacity;

  00099	8b 45 fc	 mov	 eax, DWORD PTR tv346[ebp]
  0009c	03 c3		 add	 eax, ebx
  0009e	5f		 pop	 edi
  0009f	89 46 08	 mov	 DWORD PTR [esi+8], eax
  000a2	5e		 pop	 esi
  000a3	5b		 pop	 ebx

; 1208 :     }

  000a4	8b e5		 mov	 esp, ebp
  000a6	5d		 pop	 ebp
  000a7	c2 08 00	 ret	 8
$LN36@Resize_rea:

; 1184 :             _Xlength();

  000aa	e8 00 00 00 00	 call	 ?_Xlength@?$vector@HV?$allocator@H@std@@@std@@CAXXZ ; std::vector<int,std::allocator<int> >::_Xlength
$LN37@Resize_rea:
; File C:\Program Files (x86)\Microsoft Visual Studio\2019\Community\VC\Tools\MSVC\14.27.29110\include\xmemory

; 61   :             _Throw_bad_array_new_length(); // multiply overflow

  000af	e8 00 00 00 00	 call	 ?_Throw_bad_array_new_length@std@@YAXXZ ; std::_Throw_bad_array_new_length
$LN33@Resize_rea:
  000b4	cc		 int	 3
??$_Resize_reallocate@U_Value_init_tag@std@@@?$vector@HV?$allocator@H@std@@@std@@AAEXIABU_Value_init_tag@1@@Z ENDP ; std::vector<int,std::allocator<int> >::_Resize_reallocate<std::_Value_init_tag>
_TEXT	ENDS
; Function compile flags: /Ogtp
; File C:\Program Files (x86)\Microsoft Visual Studio\2019\Community\VC\Tools\MSVC\14.27.29110\include\vector
; File C:\Program Files (x86)\Microsoft Visual Studio\2019\Community\VC\Tools\MSVC\14.27.29110\include\xmemory
; File C:\Program Files (x86)\Microsoft Visual Studio\2019\Community\VC\Tools\MSVC\14.27.29110\include\vector
; File C:\Program Files (x86)\Microsoft Visual Studio\2019\Community\VC\Tools\MSVC\14.27.29110\include\xmemory
; File C:\Program Files (x86)\Microsoft Visual Studio\2019\Community\VC\Tools\MSVC\14.27.29110\include\vector
; File C:\Program Files (x86)\Microsoft Visual Studio\2019\Community\VC\Tools\MSVC\14.27.29110\include\xmemory
; File C:\Program Files (x86)\Microsoft Visual Studio\2019\Community\VC\Tools\MSVC\14.27.29110\include\vector
; File C:\Program Files (x86)\Microsoft Visual Studio\2019\Community\VC\Tools\MSVC\14.27.29110\include\xmemory
; File C:\Program Files (x86)\Microsoft Visual Studio\2019\Community\VC\Tools\MSVC\14.27.29110\include\vector
;	COMDAT ??$_Resize_reallocate@U_Value_init_tag@std@@@?$vector@UD3DXVECTOR2@@V?$allocator@UD3DXVECTOR2@@@std@@@std@@AAEXIABU_Value_init_tag@1@@Z
_TEXT	SEGMENT
tv353 = 8						; size = 4
__Newsize$ = 8						; size = 4
__Val$ = 12						; size = 4
??$_Resize_reallocate@U_Value_init_tag@std@@@?$vector@UD3DXVECTOR2@@V?$allocator@UD3DXVECTOR2@@@std@@@std@@AAEXIABU_Value_init_tag@1@@Z PROC ; std::vector<D3DXVECTOR2,std::allocator<D3DXVECTOR2> >::_Resize_reallocate<std::_Value_init_tag>, COMDAT
; _this$ = ecx

; 1182 :     void _Resize_reallocate(const size_type _Newsize, const _Ty2& _Val) {

  00000	55		 push	 ebp
  00001	8b ec		 mov	 ebp, esp
  00003	53		 push	 ebx
  00004	56		 push	 esi
  00005	57		 push	 edi

; 1183 :         if (_Newsize > max_size()) {

  00006	8b 7d 08	 mov	 edi, DWORD PTR __Newsize$[ebp]
  00009	8b f1		 mov	 esi, ecx
  0000b	81 ff ff ff ff
	1f		 cmp	 edi, 536870911		; 1fffffffH
  00011	77 75		 ja	 SHORT $LN36@Resize_rea

; 1494 :         return static_cast<size_type>(_My_data._Myend - _My_data._Myfirst);

  00013	8b 4e 08	 mov	 ecx, DWORD PTR [esi+8]

; 1619 :         if (_Oldcapacity > max_size() - _Oldcapacity / 2) {

  00016	b8 ff ff ff 1f	 mov	 eax, 536870911		; 1fffffffH

; 1494 :         return static_cast<size_type>(_My_data._Myend - _My_data._Myfirst);

  0001b	2b 0e		 sub	 ecx, DWORD PTR [esi]
  0001d	c1 f9 03	 sar	 ecx, 3

; 1619 :         if (_Oldcapacity > max_size() - _Oldcapacity / 2) {

  00020	8b d1		 mov	 edx, ecx
  00022	d1 ea		 shr	 edx, 1
  00024	2b c2		 sub	 eax, edx
  00026	3b c8		 cmp	 ecx, eax
  00028	77 10		 ja	 SHORT $LN34@Resize_rea

; 1620 :             return _Newsize; // geometric growth would overflow
; 1621 :         }
; 1622 : 
; 1623 :         const size_type _Geometric = _Oldcapacity + _Oldcapacity / 2;

  0002a	8d 04 0a	 lea	 eax, DWORD PTR [edx+ecx]

; 1624 : 
; 1625 :         if (_Geometric < _Newsize) {

  0002d	3b c7		 cmp	 eax, edi
  0002f	72 09		 jb	 SHORT $LN34@Resize_rea
; File C:\Program Files (x86)\Microsoft Visual Studio\2019\Community\VC\Tools\MSVC\14.27.29110\include\xmemory

; 60   :         if (_Count > _Max_possible) {

  00031	3d ff ff ff 1f	 cmp	 eax, 536870911		; 1fffffffH
  00036	77 55		 ja	 SHORT $LN37@Resize_rea
  00038	eb 02		 jmp	 SHORT $LN18@Resize_rea
$LN34@Resize_rea:

; 62   :         }
; 63   :     }
; 64   : 
; 65   :     return _Count * _Ty_size;

  0003a	8b c7		 mov	 eax, edi
$LN18@Resize_rea:
  0003c	c1 e0 03	 shl	 eax, 3

; 807  :         return static_cast<_Ty*>(_Allocate<_New_alignof<_Ty>>(_Get_size_of_n<sizeof(_Ty)>(_Count)));

  0003f	50		 push	 eax

; 65   :     return _Count * _Ty_size;

  00040	89 45 08	 mov	 DWORD PTR tv353[ebp], eax

; 807  :         return static_cast<_Ty*>(_Allocate<_New_alignof<_Ty>>(_Get_size_of_n<sizeof(_Ty)>(_Count)));

  00043	e8 00 00 00 00	 call	 ??$_Allocate@$07U_Default_allocate_traits@std@@$0A@@std@@YAPAXI@Z ; std::_Allocate<8,std::_Default_allocate_traits,0>
; File C:\Program Files (x86)\Microsoft Visual Studio\2019\Community\VC\Tools\MSVC\14.27.29110\include\vector

; 1597 :         _Uninitialized_move(_First, _Last, _Dest, _Getal());

  00048	56		 push	 esi
; File C:\Program Files (x86)\Microsoft Visual Studio\2019\Community\VC\Tools\MSVC\14.27.29110\include\xmemory

; 807  :         return static_cast<_Ty*>(_Allocate<_New_alignof<_Ty>>(_Get_size_of_n<sizeof(_Ty)>(_Count)));

  00049	8b d8		 mov	 ebx, eax
; File C:\Program Files (x86)\Microsoft Visual Studio\2019\Community\VC\Tools\MSVC\14.27.29110\include\vector

; 1597 :         _Uninitialized_move(_First, _Last, _Dest, _Getal());

  0004b	53		 push	 ebx
  0004c	ff 76 04	 push	 DWORD PTR [esi+4]
  0004f	ff 36		 push	 DWORD PTR [esi]
  00051	e8 00 00 00 00	 call	 ??$_Uninitialized_move@PAUD3DXVECTOR2@@V?$allocator@UD3DXVECTOR2@@@std@@@std@@YAPAUD3DXVECTOR2@@QAU1@0PAU1@AAV?$allocator@UD3DXVECTOR2@@@0@@Z ; std::_Uninitialized_move<D3DXVECTOR2 *,std::allocator<D3DXVECTOR2> >

; 1675 :         if (_Myfirst) { // destroy and deallocate old array

  00056	8b 0e		 mov	 ecx, DWORD PTR [esi]

; 1597 :         _Uninitialized_move(_First, _Last, _Dest, _Getal());

  00058	83 c4 14	 add	 esp, 20			; 00000014H

; 1675 :         if (_Myfirst) { // destroy and deallocate old array

  0005b	85 c9		 test	 ecx, ecx
  0005d	74 12		 je	 SHORT $LN29@Resize_rea

; 1676 :             _Destroy(_Myfirst, _Mylast);
; 1677 :             _Getal().deallocate(_Myfirst, static_cast<size_type>(_Myend - _Myfirst));

  0005f	8b 46 08	 mov	 eax, DWORD PTR [esi+8]
  00062	2b c1		 sub	 eax, ecx
; File C:\Program Files (x86)\Microsoft Visual Studio\2019\Community\VC\Tools\MSVC\14.27.29110\include\xmemory

; 803  :         _Deallocate<_New_alignof<_Ty>>(_Ptr, sizeof(_Ty) * _Count);

  00064	83 e0 f8	 and	 eax, -8			; fffffff8H
  00067	50		 push	 eax
  00068	51		 push	 ecx
  00069	e8 00 00 00 00	 call	 ??$_Deallocate@$07$0A@@std@@YAXPAXI@Z ; std::_Deallocate<8,0>
  0006e	83 c4 08	 add	 esp, 8
$LN29@Resize_rea:
; File C:\Program Files (x86)\Microsoft Visual Studio\2019\Community\VC\Tools\MSVC\14.27.29110\include\vector

; 1681 :         _Mylast  = _Newvec + _Newsize;

  00071	8d 04 fb	 lea	 eax, DWORD PTR [ebx+edi*8]
  00074	89 1e		 mov	 DWORD PTR [esi], ebx
  00076	89 46 04	 mov	 DWORD PTR [esi+4], eax

; 1682 :         _Myend   = _Newvec + _Newcapacity;

  00079	8b 45 08	 mov	 eax, DWORD PTR tv353[ebp]
  0007c	03 c3		 add	 eax, ebx
  0007e	5f		 pop	 edi
  0007f	89 46 08	 mov	 DWORD PTR [esi+8], eax
  00082	5e		 pop	 esi
  00083	5b		 pop	 ebx

; 1208 :     }

  00084	5d		 pop	 ebp
  00085	c2 08 00	 ret	 8
$LN36@Resize_rea:

; 1184 :             _Xlength();

  00088	e8 00 00 00 00	 call	 ?_Xlength@?$vector@UD3DXVECTOR2@@V?$allocator@UD3DXVECTOR2@@@std@@@std@@CAXXZ ; std::vector<D3DXVECTOR2,std::allocator<D3DXVECTOR2> >::_Xlength
$LN37@Resize_rea:
; File C:\Program Files (x86)\Microsoft Visual Studio\2019\Community\VC\Tools\MSVC\14.27.29110\include\xmemory

; 61   :             _Throw_bad_array_new_length(); // multiply overflow

  0008d	e8 00 00 00 00	 call	 ?_Throw_bad_array_new_length@std@@YAXXZ ; std::_Throw_bad_array_new_length
$LN33@Resize_rea:
  00092	cc		 int	 3
??$_Resize_reallocate@U_Value_init_tag@std@@@?$vector@UD3DXVECTOR2@@V?$allocator@UD3DXVECTOR2@@@std@@@std@@AAEXIABU_Value_init_tag@1@@Z ENDP ; std::vector<D3DXVECTOR2,std::allocator<D3DXVECTOR2> >::_Resize_reallocate<std::_Value_init_tag>
_TEXT	ENDS
; Function compile flags: /Ogtp
; File C:\Program Files (x86)\Microsoft Visual Studio\2019\Community\VC\Tools\MSVC\14.27.29110\include\xmemory
; File C:\Program Files (x86)\Microsoft Visual Studio\2019\Community\VC\Tools\MSVC\14.27.29110\include\xstring
; File C:\Program Files (x86)\Microsoft Visual Studio\2019\Community\VC\Tools\MSVC\14.27.29110\include\xmemory
; File C:\Program Files (x86)\Microsoft Visual Studio\2019\Community\VC\Tools\MSVC\14.27.29110\include\xstring
; File C:\Program Files (x86)\Microsoft Visual Studio\2019\Community\VC\Tools\MSVC\14.27.29110\include\xmemory
;	COMDAT ??$_Destroy_range@V?$allocator@V?$basic_string@DU?$char_traits@D@std@@V?$allocator@D@2@@std@@@std@@@std@@YAXPAV?$basic_string@DU?$char_traits@D@std@@V?$allocator@D@2@@0@QAV10@AAV?$allocator@V?$basic_string@DU?$char_traits@D@std@@V?$allocator@D@2@@std@@@0@@Z
_TEXT	SEGMENT
__First$ = 8						; size = 4
__Last$ = 12						; size = 4
__Al$ = 16						; size = 4
??$_Destroy_range@V?$allocator@V?$basic_string@DU?$char_traits@D@std@@V?$allocator@D@2@@std@@@std@@@std@@YAXPAV?$basic_string@DU?$char_traits@D@std@@V?$allocator@D@2@@0@QAV10@AAV?$allocator@V?$basic_string@DU?$char_traits@D@std@@V?$allocator@D@2@@std@@@0@@Z PROC ; std::_Destroy_range<std::allocator<std::basic_string<char,std::char_traits<char>,std::allocator<char> > > >, COMDAT

; 955  : void _Destroy_range(_Alloc_ptr_t<_Alloc> _First, const _Alloc_ptr_t<_Alloc> _Last, _Alloc& _Al) noexcept {

  00000	55		 push	 ebp
  00001	8b ec		 mov	 ebp, esp
  00003	56		 push	 esi

; 959  :         for (; _First != _Last; ++_First) {

  00004	8b 75 08	 mov	 esi, DWORD PTR __First$[ebp]
  00007	57		 push	 edi
  00008	8b 7d 0c	 mov	 edi, DWORD PTR __Last$[ebp]
  0000b	3b f7		 cmp	 esi, edi
  0000d	74 2d		 je	 SHORT $LN3@Destroy_ra
  0000f	90		 npad	 1
$LL4@Destroy_ra:
; File C:\Program Files (x86)\Microsoft Visual Studio\2019\Community\VC\Tools\MSVC\14.27.29110\include\xstring

; 2153 :         return _BUF_SIZE <= _Myres;

  00010	8b 46 14	 mov	 eax, DWORD PTR [esi+20]
  00013	83 f8 10	 cmp	 eax, 16			; 00000010H

; 4301 :         if (_Mypair._Myval2._Large_string_engaged()) {

  00016	72 0c		 jb	 SHORT $LN15@Destroy_ra

; 4302 :             const pointer _Ptr = _Mypair._Myval2._Bx._Ptr;
; 4303 :             auto& _Al          = _Getal();
; 4304 :             _Destroy_in_place(_Mypair._Myval2._Bx._Ptr);
; 4305 :             _Al.deallocate(_Ptr, _Mypair._Myval2._Myres + 1);

  00018	40		 inc	 eax
; File C:\Program Files (x86)\Microsoft Visual Studio\2019\Community\VC\Tools\MSVC\14.27.29110\include\xmemory

; 803  :         _Deallocate<_New_alignof<_Ty>>(_Ptr, sizeof(_Ty) * _Count);

  00019	50		 push	 eax
  0001a	ff 36		 push	 DWORD PTR [esi]
  0001c	e8 00 00 00 00	 call	 ??$_Deallocate@$07$0A@@std@@YAXPAXI@Z ; std::_Deallocate<8,0>
  00021	83 c4 08	 add	 esp, 8
$LN15@Destroy_ra:
; File C:\Program Files (x86)\Microsoft Visual Studio\2019\Community\VC\Tools\MSVC\14.27.29110\include\xstring

; 4308 :         _Mypair._Myval2._Mysize = 0;

  00024	c7 46 10 00 00
	00 00		 mov	 DWORD PTR [esi+16], 0

; 4309 :         _Mypair._Myval2._Myres  = _BUF_SIZE - 1;

  0002b	c7 46 14 0f 00
	00 00		 mov	 DWORD PTR [esi+20], 15	; 0000000fH

; 4310 :         // the _Traits::assign is last so the codegen doesn't think the char write can alias this
; 4311 :         _Traits::assign(_Mypair._Myval2._Bx._Buf[0], _Elem());

  00032	c6 06 00	 mov	 BYTE PTR [esi], 0
; File C:\Program Files (x86)\Microsoft Visual Studio\2019\Community\VC\Tools\MSVC\14.27.29110\include\xmemory

; 959  :         for (; _First != _Last; ++_First) {

  00035	83 c6 18	 add	 esi, 24			; 00000018H
  00038	3b f7		 cmp	 esi, edi
  0003a	75 d4		 jne	 SHORT $LL4@Destroy_ra
$LN3@Destroy_ra:
  0003c	5f		 pop	 edi

; 960  :             allocator_traits<_Alloc>::destroy(_Al, _Unfancy(_First));
; 961  :         }
; 962  :     }
; 963  : }

  0003d	5e		 pop	 esi
  0003e	5d		 pop	 ebp
  0003f	c3		 ret	 0
??$_Destroy_range@V?$allocator@V?$basic_string@DU?$char_traits@D@std@@V?$allocator@D@2@@std@@@std@@@std@@YAXPAV?$basic_string@DU?$char_traits@D@std@@V?$allocator@D@2@@0@QAV10@AAV?$allocator@V?$basic_string@DU?$char_traits@D@std@@V?$allocator@D@2@@std@@@0@@Z ENDP ; std::_Destroy_range<std::allocator<std::basic_string<char,std::char_traits<char>,std::allocator<char> > > >
_TEXT	ENDS
; Function compile flags: /Ogtp
; File C:\Program Files (x86)\Microsoft Visual Studio\2019\Community\VC\Tools\MSVC\14.27.29110\include\xmemory
;	COMDAT ??$_Destroy_range@V?$allocator@PAVCEffectMeshScript@@@std@@@std@@YAXPAPAVCEffectMeshScript@@QAPAV1@AAV?$allocator@PAVCEffectMeshScript@@@0@@Z
_TEXT	SEGMENT
__First$ = 8						; size = 4
__Last$ = 12						; size = 4
__Al$ = 16						; size = 4
??$_Destroy_range@V?$allocator@PAVCEffectMeshScript@@@std@@@std@@YAXPAPAVCEffectMeshScript@@QAPAV1@AAV?$allocator@PAVCEffectMeshScript@@@0@@Z PROC ; std::_Destroy_range<std::allocator<CEffectMeshScript *> >, COMDAT

; 956  :     // note that this is an optimization for debug mode codegen; in release mode the BE removes all of this
; 957  :     using _Ty = typename _Alloc::value_type;
; 958  :     if _CONSTEXPR_IF (!conjunction_v<is_trivially_destructible<_Ty>, _Uses_default_destroy<_Alloc, _Ty*>>) {
; 959  :         for (; _First != _Last; ++_First) {
; 960  :             allocator_traits<_Alloc>::destroy(_Al, _Unfancy(_First));
; 961  :         }
; 962  :     }
; 963  : }

  00000	c2 00 00	 ret	 0
??$_Destroy_range@V?$allocator@PAVCEffectMeshScript@@@std@@@std@@YAXPAPAVCEffectMeshScript@@QAPAV1@AAV?$allocator@PAVCEffectMeshScript@@@0@@Z ENDP ; std::_Destroy_range<std::allocator<CEffectMeshScript *> >
_TEXT	ENDS
; Function compile flags: /Ogtp
; File C:\Program Files (x86)\Microsoft Visual Studio\2019\Community\VC\Tools\MSVC\14.27.29110\include\xmemory
;	COMDAT ??$_Destroy_range@V?$allocator@USPTVertex@@@std@@@std@@YAXPAUSPTVertex@@QAU1@AAV?$allocator@USPTVertex@@@0@@Z
_TEXT	SEGMENT
__First$ = 8						; size = 4
__Last$ = 12						; size = 4
__Al$ = 16						; size = 4
??$_Destroy_range@V?$allocator@USPTVertex@@@std@@@std@@YAXPAUSPTVertex@@QAU1@AAV?$allocator@USPTVertex@@@0@@Z PROC ; std::_Destroy_range<std::allocator<SPTVertex> >, COMDAT

; 956  :     // note that this is an optimization for debug mode codegen; in release mode the BE removes all of this
; 957  :     using _Ty = typename _Alloc::value_type;
; 958  :     if _CONSTEXPR_IF (!conjunction_v<is_trivially_destructible<_Ty>, _Uses_default_destroy<_Alloc, _Ty*>>) {
; 959  :         for (; _First != _Last; ++_First) {
; 960  :             allocator_traits<_Alloc>::destroy(_Al, _Unfancy(_First));
; 961  :         }
; 962  :     }
; 963  : }

  00000	c2 00 00	 ret	 0
??$_Destroy_range@V?$allocator@USPTVertex@@@std@@@std@@YAXPAUSPTVertex@@QAU1@AAV?$allocator@USPTVertex@@@0@@Z ENDP ; std::_Destroy_range<std::allocator<SPTVertex> >
_TEXT	ENDS
; Function compile flags: /Ogtp
; File C:\Program Files (x86)\Microsoft Visual Studio\2019\Community\VC\Tools\MSVC\14.27.29110\include\xmemory
; File C:\Program Files (x86)\Microsoft Visual Studio\2019\Community\VC\Tools\MSVC\14.27.29110\include\vector
; File C:\Program Files (x86)\Microsoft Visual Studio\2019\Community\VC\Tools\MSVC\14.27.29110\include\xmemory
; File C:\Program Files (x86)\Microsoft Visual Studio\2019\Community\VC\Tools\MSVC\14.27.29110\include\vector
; File C:\Program Files (x86)\Microsoft Visual Studio\2019\Community\VC\Tools\MSVC\14.27.29110\include\xmemory
; File C:\Program Files (x86)\Microsoft Visual Studio\2019\Community\VC\Tools\MSVC\14.27.29110\include\vector
; File C:\Program Files (x86)\Microsoft Visual Studio\2019\Community\VC\Tools\MSVC\14.27.29110\include\xmemory
;	COMDAT ??$_Destroy_range@V?$allocator@USEffectFrameData@CEffectMesh@@@std@@@std@@YAXPAUSEffectFrameData@CEffectMesh@@QAU12@AAV?$allocator@USEffectFrameData@CEffectMesh@@@0@@Z
_TEXT	SEGMENT
__First$ = 8						; size = 4
__Last$ = 12						; size = 4
__Al$ = 16						; size = 4
??$_Destroy_range@V?$allocator@USEffectFrameData@CEffectMesh@@@std@@@std@@YAXPAUSEffectFrameData@CEffectMesh@@QAU12@AAV?$allocator@USEffectFrameData@CEffectMesh@@@0@@Z PROC ; std::_Destroy_range<std::allocator<CEffectMesh::SEffectFrameData> >, COMDAT

; 955  : void _Destroy_range(_Alloc_ptr_t<_Alloc> _First, const _Alloc_ptr_t<_Alloc> _Last, _Alloc& _Al) noexcept {

  00000	55		 push	 ebp
  00001	8b ec		 mov	 ebp, esp
  00003	53		 push	 ebx

; 959  :         for (; _First != _Last; ++_First) {

  00004	8b 5d 0c	 mov	 ebx, DWORD PTR __Last$[ebp]
  00007	56		 push	 esi
  00008	8b 75 08	 mov	 esi, DWORD PTR __First$[ebp]
  0000b	3b f3		 cmp	 esi, ebx
  0000d	74 4f		 je	 SHORT $LN3@Destroy_ra
  0000f	83 c6 1c	 add	 esi, 28			; 0000001cH
  00012	57		 push	 edi
$LL4@Destroy_ra:
; File C:\Program Files (x86)\Microsoft Visual Studio\2019\Community\VC\Tools\MSVC\14.27.29110\include\vector

; 1693 :         if (_Myfirst) { // destroy and deallocate old array

  00013	8b 7e f8	 mov	 edi, DWORD PTR [esi-8]
  00016	85 ff		 test	 edi, edi
  00018	74 39		 je	 SHORT $LN25@Destroy_ra

; 1694 :             _Destroy(_Myfirst, _Mylast);
; 1695 :             _Getal().deallocate(_Myfirst, static_cast<size_type>(_Myend - _Myfirst));

  0001a	8b 0e		 mov	 ecx, DWORD PTR [esi]
  0001c	b8 67 66 66 66	 mov	 eax, 1717986919		; 66666667H
  00021	2b cf		 sub	 ecx, edi
  00023	f7 e9		 imul	 ecx
  00025	c1 fa 03	 sar	 edx, 3
  00028	8b c2		 mov	 eax, edx
  0002a	c1 e8 1f	 shr	 eax, 31			; 0000001fH
  0002d	03 c2		 add	 eax, edx
; File C:\Program Files (x86)\Microsoft Visual Studio\2019\Community\VC\Tools\MSVC\14.27.29110\include\xmemory

; 803  :         _Deallocate<_New_alignof<_Ty>>(_Ptr, sizeof(_Ty) * _Count);

  0002f	8d 04 80	 lea	 eax, DWORD PTR [eax+eax*4]
  00032	c1 e0 02	 shl	 eax, 2
  00035	50		 push	 eax
  00036	57		 push	 edi
  00037	e8 00 00 00 00	 call	 ??$_Deallocate@$07$0A@@std@@YAXPAXI@Z ; std::_Deallocate<8,0>
; File C:\Program Files (x86)\Microsoft Visual Studio\2019\Community\VC\Tools\MSVC\14.27.29110\include\vector

; 1697 :             _Myfirst = pointer();

  0003c	c7 46 f8 00 00
	00 00		 mov	 DWORD PTR [esi-8], 0
; File C:\Program Files (x86)\Microsoft Visual Studio\2019\Community\VC\Tools\MSVC\14.27.29110\include\xmemory

; 803  :         _Deallocate<_New_alignof<_Ty>>(_Ptr, sizeof(_Ty) * _Count);

  00043	83 c4 08	 add	 esp, 8
; File C:\Program Files (x86)\Microsoft Visual Studio\2019\Community\VC\Tools\MSVC\14.27.29110\include\vector

; 1698 :             _Mylast  = pointer();

  00046	c7 46 fc 00 00
	00 00		 mov	 DWORD PTR [esi-4], 0

; 1699 :             _Myend   = pointer();

  0004d	c7 06 00 00 00
	00		 mov	 DWORD PTR [esi], 0
$LN25@Destroy_ra:
; File C:\Program Files (x86)\Microsoft Visual Studio\2019\Community\VC\Tools\MSVC\14.27.29110\include\xmemory

; 959  :         for (; _First != _Last; ++_First) {

  00053	83 c6 20	 add	 esi, 32			; 00000020H
  00056	8d 46 e4	 lea	 eax, DWORD PTR [esi-28]
  00059	3b c3		 cmp	 eax, ebx
  0005b	75 b6		 jne	 SHORT $LL4@Destroy_ra
  0005d	5f		 pop	 edi
$LN3@Destroy_ra:
  0005e	5e		 pop	 esi

; 960  :             allocator_traits<_Alloc>::destroy(_Al, _Unfancy(_First));
; 961  :         }
; 962  :     }
; 963  : }

  0005f	5b		 pop	 ebx
  00060	5d		 pop	 ebp
  00061	c3		 ret	 0
??$_Destroy_range@V?$allocator@USEffectFrameData@CEffectMesh@@@std@@@std@@YAXPAUSEffectFrameData@CEffectMesh@@QAU12@AAV?$allocator@USEffectFrameData@CEffectMesh@@@0@@Z ENDP ; std::_Destroy_range<std::allocator<CEffectMesh::SEffectFrameData> >
_TEXT	ENDS
; Function compile flags: /Ogtp
; File C:\Program Files (x86)\Microsoft Visual Studio\2019\Community\VC\Tools\MSVC\14.27.29110\include\xmemory
;	COMDAT ??$_Destroy_range@V?$allocator@PAVCGraphicImage@@@std@@@std@@YAXPAPAVCGraphicImage@@QAPAV1@AAV?$allocator@PAVCGraphicImage@@@0@@Z
_TEXT	SEGMENT
__First$ = 8						; size = 4
__Last$ = 12						; size = 4
__Al$ = 16						; size = 4
??$_Destroy_range@V?$allocator@PAVCGraphicImage@@@std@@@std@@YAXPAPAVCGraphicImage@@QAPAV1@AAV?$allocator@PAVCGraphicImage@@@0@@Z PROC ; std::_Destroy_range<std::allocator<CGraphicImage *> >, COMDAT

; 956  :     // note that this is an optimization for debug mode codegen; in release mode the BE removes all of this
; 957  :     using _Ty = typename _Alloc::value_type;
; 958  :     if _CONSTEXPR_IF (!conjunction_v<is_trivially_destructible<_Ty>, _Uses_default_destroy<_Alloc, _Ty*>>) {
; 959  :         for (; _First != _Last; ++_First) {
; 960  :             allocator_traits<_Alloc>::destroy(_Al, _Unfancy(_First));
; 961  :         }
; 962  :     }
; 963  : }

  00000	c2 00 00	 ret	 0
??$_Destroy_range@V?$allocator@PAVCGraphicImage@@@std@@@std@@YAXPAPAVCGraphicImage@@QAPAV1@AAV?$allocator@PAVCGraphicImage@@@0@@Z ENDP ; std::_Destroy_range<std::allocator<CGraphicImage *> >
_TEXT	ENDS
; Function compile flags: /Ogtp
; File C:\Program Files (x86)\Microsoft Visual Studio\2019\Community\VC\Tools\MSVC\14.27.29110\include\vector
; File C:\Program Files (x86)\Microsoft Visual Studio\2019\Community\VC\Tools\MSVC\14.27.29110\include\xmemory
; File C:\Program Files (x86)\Microsoft Visual Studio\2019\Community\VC\Tools\MSVC\14.27.29110\include\vector
; File C:\Program Files (x86)\Microsoft Visual Studio\2019\Community\VC\Tools\MSVC\14.27.29110\include\xmemory
; File C:\Program Files (x86)\Microsoft Visual Studio\2019\Community\VC\Tools\MSVC\14.27.29110\include\vector
; File C:\Program Files (x86)\Microsoft Visual Studio\2019\Community\VC\Tools\MSVC\14.27.29110\include\xmemory
; File C:\Program Files (x86)\Microsoft Visual Studio\2019\Community\VC\Tools\MSVC\14.27.29110\include\vector
; File C:\Program Files (x86)\Microsoft Visual Studio\2019\Community\VC\Tools\MSVC\14.27.29110\include\xmemory
; File C:\Program Files (x86)\Microsoft Visual Studio\2019\Community\VC\Tools\MSVC\14.27.29110\include\vector
; File C:\Program Files (x86)\Microsoft Visual Studio\2019\Community\VC\Tools\MSVC\14.27.29110\include\xmemory
; File C:\Program Files (x86)\Microsoft Visual Studio\2019\Community\VC\Tools\MSVC\14.27.29110\include\vector
;	COMDAT ??$_Emplace_reallocate@ABQAUSEffectMeshData@CEffectMesh@@@?$vector@PAUSEffectMeshData@CEffectMesh@@V?$allocator@PAUSEffectMeshData@CEffectMesh@@@std@@@std@@QAEPAPAUSEffectMeshData@CEffectMesh@@QAPAU23@ABQAU23@@Z
_TEXT	SEGMENT
tv436 = -12						; size = 4
__Newsize$1$ = -8					; size = 4
tv435 = -4						; size = 4
__Whereptr$ = 8						; size = 4
_<_Val_0>$ = 12						; size = 4
??$_Emplace_reallocate@ABQAUSEffectMeshData@CEffectMesh@@@?$vector@PAUSEffectMeshData@CEffectMesh@@V?$allocator@PAUSEffectMeshData@CEffectMesh@@@std@@@std@@QAEPAPAUSEffectMeshData@CEffectMesh@@QAPAU23@ABQAU23@@Z PROC ; std::vector<CEffectMesh::SEffectMeshData *,std::allocator<CEffectMesh::SEffectMeshData *> >::_Emplace_reallocate<CEffectMesh::SEffectMeshData * const &>, COMDAT
; _this$ = ecx

; 725  :     pointer _Emplace_reallocate(const pointer _Whereptr, _Valty&&... _Val) {

  00000	55		 push	 ebp
  00001	8b ec		 mov	 ebp, esp
  00003	83 ec 0c	 sub	 esp, 12			; 0000000cH
  00006	53		 push	 ebx

; 726  :         // reallocate and insert by perfectly forwarding _Val at _Whereptr
; 727  :         _Alty& _Al        = _Getal();
; 728  :         auto& _My_data    = _Mypair._Myval2;
; 729  :         pointer& _Myfirst = _My_data._Myfirst;
; 730  :         pointer& _Mylast  = _My_data._Mylast;
; 731  : 
; 732  :         _STL_INTERNAL_CHECK(_Mylast == _My_data._Myend); // check that we have no unused capacity
; 733  : 
; 734  :         const auto _Whereoff = static_cast<size_type>(_Whereptr - _Myfirst);

  00007	8b 5d 08	 mov	 ebx, DWORD PTR __Whereptr$[ebp]
  0000a	56		 push	 esi
  0000b	8b f1		 mov	 esi, ecx
  0000d	57		 push	 edi
  0000e	8b 16		 mov	 edx, DWORD PTR [esi]
  00010	2b da		 sub	 ebx, edx

; 735  :         const auto _Oldsize  = static_cast<size_type>(_Mylast - _Myfirst);

  00012	8b 46 04	 mov	 eax, DWORD PTR [esi+4]
  00015	2b c2		 sub	 eax, edx
  00017	c1 fb 02	 sar	 ebx, 2
  0001a	c1 f8 02	 sar	 eax, 2

; 736  : 
; 737  :         if (_Oldsize == max_size()) {

  0001d	3d ff ff ff 3f	 cmp	 eax, 1073741823		; 3fffffffH
  00022	0f 84 be 00 00
	00		 je	 $LN39@Emplace_re

; 1494 :         return static_cast<size_type>(_My_data._Myend - _My_data._Myfirst);

  00028	8b 4e 08	 mov	 ecx, DWORD PTR [esi+8]

; 739  :         }
; 740  : 
; 741  :         const size_type _Newsize     = _Oldsize + 1;

  0002b	8d 78 01	 lea	 edi, DWORD PTR [eax+1]

; 1494 :         return static_cast<size_type>(_My_data._Myend - _My_data._Myfirst);

  0002e	2b ca		 sub	 ecx, edx

; 739  :         }
; 740  : 
; 741  :         const size_type _Newsize     = _Oldsize + 1;

  00030	89 7d f8	 mov	 DWORD PTR __Newsize$1$[ebp], edi

; 1494 :         return static_cast<size_type>(_My_data._Myend - _My_data._Myfirst);

  00033	c1 f9 02	 sar	 ecx, 2

; 1619 :         if (_Oldcapacity > max_size() - _Oldcapacity / 2) {

  00036	b8 ff ff ff 3f	 mov	 eax, 1073741823		; 3fffffffH
  0003b	8b d1		 mov	 edx, ecx
  0003d	d1 ea		 shr	 edx, 1
  0003f	2b c2		 sub	 eax, edx
  00041	3b c8		 cmp	 ecx, eax
  00043	76 04		 jbe	 SHORT $LN12@Emplace_re

; 1620 :             return _Newsize; // geometric growth would overflow

  00045	8b c7		 mov	 eax, edi
  00047	eb 08		 jmp	 SHORT $LN13@Emplace_re
$LN12@Emplace_re:

; 1621 :         }
; 1622 : 
; 1623 :         const size_type _Geometric = _Oldcapacity + _Oldcapacity / 2;

  00049	8d 04 0a	 lea	 eax, DWORD PTR [edx+ecx]

; 1624 : 
; 1625 :         if (_Geometric < _Newsize) {

  0004c	3b c7		 cmp	 eax, edi
  0004e	0f 42 c7	 cmovb	 eax, edi
$LN13@Emplace_re:
; File C:\Program Files (x86)\Microsoft Visual Studio\2019\Community\VC\Tools\MSVC\14.27.29110\include\xmemory

; 60   :         if (_Count > _Max_possible) {

  00051	3d ff ff ff 3f	 cmp	 eax, 1073741823		; 3fffffffH
  00056	0f 87 8f 00 00
	00		 ja	 $LN40@Emplace_re

; 62   :         }
; 63   :     }
; 64   : 
; 65   :     return _Count * _Ty_size;

  0005c	c1 e0 02	 shl	 eax, 2

; 807  :         return static_cast<_Ty*>(_Allocate<_New_alignof<_Ty>>(_Get_size_of_n<sizeof(_Ty)>(_Count)));

  0005f	50		 push	 eax

; 65   :     return _Count * _Ty_size;

  00060	89 45 f4	 mov	 DWORD PTR tv436[ebp], eax

; 807  :         return static_cast<_Ty*>(_Allocate<_New_alignof<_Ty>>(_Get_size_of_n<sizeof(_Ty)>(_Count)));

  00063	e8 00 00 00 00	 call	 ??$_Allocate@$07U_Default_allocate_traits@std@@$0A@@std@@YAPAXI@Z ; std::_Allocate<8,std::_Default_allocate_traits,0>
; File C:\Program Files (x86)\Microsoft Visual Studio\2019\Community\VC\Tools\MSVC\14.27.29110\include\vector

; 749  :         _Alty_traits::construct(_Al, _Unfancy(_Newvec + _Whereoff), _STD forward<_Valty>(_Val)...);

  00068	8b 4d 0c	 mov	 ecx, DWORD PTR _<_Val_0>$[ebp]
; File C:\Program Files (x86)\Microsoft Visual Studio\2019\Community\VC\Tools\MSVC\14.27.29110\include\xmemory

; 807  :         return static_cast<_Ty*>(_Allocate<_New_alignof<_Ty>>(_Get_size_of_n<sizeof(_Ty)>(_Count)));

  0006b	8b f8		 mov	 edi, eax
; File C:\Program Files (x86)\Microsoft Visual Studio\2019\Community\VC\Tools\MSVC\14.27.29110\include\vector

; 749  :         _Alty_traits::construct(_Al, _Unfancy(_Newvec + _Whereoff), _STD forward<_Valty>(_Val)...);

  0006d	8d 04 9f	 lea	 eax, DWORD PTR [edi+ebx*4]
; File C:\Program Files (x86)\Microsoft Visual Studio\2019\Community\VC\Tools\MSVC\14.27.29110\include\xmemory

; 807  :         return static_cast<_Ty*>(_Allocate<_New_alignof<_Ty>>(_Get_size_of_n<sizeof(_Ty)>(_Count)));

  00070	83 c4 04	 add	 esp, 4
; File C:\Program Files (x86)\Microsoft Visual Studio\2019\Community\VC\Tools\MSVC\14.27.29110\include\vector

; 752  :         if (_Whereptr == _Mylast) { // at back, provide strong guarantee

  00073	8b 5d 08	 mov	 ebx, DWORD PTR __Whereptr$[ebp]
  00076	89 45 fc	 mov	 DWORD PTR tv435[ebp], eax
  00079	8b 09		 mov	 ecx, DWORD PTR [ecx]
  0007b	89 08		 mov	 DWORD PTR [eax], ecx
  0007d	8b 56 04	 mov	 edx, DWORD PTR [esi+4]
  00080	8b 0e		 mov	 ecx, DWORD PTR [esi]
  00082	3b da		 cmp	 ebx, edx
  00084	75 07		 jne	 SHORT $LN4@Emplace_re

; 753  :             _Umove_if_noexcept(_Myfirst, _Mylast, _Newvec);
; 754  :         } else { // provide basic guarantee

  00086	8b 5d fc	 mov	 ebx, DWORD PTR tv435[ebp]

; 1597 :         _Uninitialized_move(_First, _Last, _Dest, _Getal());

  00089	8b c7		 mov	 eax, edi

; 753  :             _Umove_if_noexcept(_Myfirst, _Mylast, _Newvec);
; 754  :         } else { // provide basic guarantee

  0008b	eb 17		 jmp	 SHORT $LN5@Emplace_re
$LN4@Emplace_re:

; 1592 :         return _Uninitialized_move(_First, _Last, _Dest, _Getal());

  0008d	56		 push	 esi
  0008e	57		 push	 edi
  0008f	53		 push	 ebx
  00090	51		 push	 ecx
  00091	e8 00 00 00 00	 call	 ??$_Uninitialized_move@PAPAUSEffectMeshData@CEffectMesh@@V?$allocator@PAUSEffectMeshData@CEffectMesh@@@std@@@std@@YAPAPAUSEffectMeshData@CEffectMesh@@QAPAU12@0PAPAU12@AAV?$allocator@PAUSEffectMeshData@CEffectMesh@@@0@@Z ; std::_Uninitialized_move<CEffectMesh::SEffectMeshData * *,std::allocator<CEffectMesh::SEffectMeshData *> >
  00096	8b 56 04	 mov	 edx, DWORD PTR [esi+4]
  00099	8b cb		 mov	 ecx, ebx

; 755  :             _Umove(_Myfirst, _Whereptr, _Newvec);
; 756  :             _Constructed_first = _Newvec;
; 757  :             _Umove(_Whereptr, _Mylast, _Newvec + _Whereoff + 1);

  0009b	8b 5d fc	 mov	 ebx, DWORD PTR tv435[ebp]

; 1592 :         return _Uninitialized_move(_First, _Last, _Dest, _Getal());

  0009e	83 c4 10	 add	 esp, 16			; 00000010H

; 755  :             _Umove(_Myfirst, _Whereptr, _Newvec);
; 756  :             _Constructed_first = _Newvec;
; 757  :             _Umove(_Whereptr, _Mylast, _Newvec + _Whereoff + 1);

  000a1	8d 43 04	 lea	 eax, DWORD PTR [ebx+4]
$LN5@Emplace_re:
  000a4	56		 push	 esi
  000a5	50		 push	 eax
  000a6	52		 push	 edx
  000a7	51		 push	 ecx
  000a8	e8 00 00 00 00	 call	 ??$_Uninitialized_move@PAPAUSEffectMeshData@CEffectMesh@@V?$allocator@PAUSEffectMeshData@CEffectMesh@@@std@@@std@@YAPAPAUSEffectMeshData@CEffectMesh@@QAPAU12@0PAPAU12@AAV?$allocator@PAUSEffectMeshData@CEffectMesh@@@0@@Z ; std::_Uninitialized_move<CEffectMesh::SEffectMeshData * *,std::allocator<CEffectMesh::SEffectMeshData *> >

; 1675 :         if (_Myfirst) { // destroy and deallocate old array

  000ad	8b 0e		 mov	 ecx, DWORD PTR [esi]

; 755  :             _Umove(_Myfirst, _Whereptr, _Newvec);
; 756  :             _Constructed_first = _Newvec;
; 757  :             _Umove(_Whereptr, _Mylast, _Newvec + _Whereoff + 1);

  000af	83 c4 10	 add	 esp, 16			; 00000010H

; 1675 :         if (_Myfirst) { // destroy and deallocate old array

  000b2	85 c9		 test	 ecx, ecx
  000b4	74 12		 je	 SHORT $LN33@Emplace_re

; 1676 :             _Destroy(_Myfirst, _Mylast);
; 1677 :             _Getal().deallocate(_Myfirst, static_cast<size_type>(_Myend - _Myfirst));

  000b6	8b 46 08	 mov	 eax, DWORD PTR [esi+8]
  000b9	2b c1		 sub	 eax, ecx
; File C:\Program Files (x86)\Microsoft Visual Studio\2019\Community\VC\Tools\MSVC\14.27.29110\include\xmemory

; 803  :         _Deallocate<_New_alignof<_Ty>>(_Ptr, sizeof(_Ty) * _Count);

  000bb	83 e0 fc	 and	 eax, -4			; fffffffcH
  000be	50		 push	 eax
  000bf	51		 push	 ecx
  000c0	e8 00 00 00 00	 call	 ??$_Deallocate@$07$0A@@std@@YAXPAXI@Z ; std::_Deallocate<8,0>
  000c5	83 c4 08	 add	 esp, 8
$LN33@Emplace_re:
; File C:\Program Files (x86)\Microsoft Visual Studio\2019\Community\VC\Tools\MSVC\14.27.29110\include\vector

; 1681 :         _Mylast  = _Newvec + _Newsize;

  000c8	8b 4d f8	 mov	 ecx, DWORD PTR __Newsize$1$[ebp]

; 758  :         }
; 759  :         _CATCH_ALL
; 760  :         _Destroy(_Constructed_first, _Constructed_last);
; 761  :         _Al.deallocate(_Newvec, _Newcapacity);
; 762  :         _RERAISE;
; 763  :         _CATCH_END
; 764  : 
; 765  :         _Change_array(_Newvec, _Newsize, _Newcapacity);
; 766  :         return _Newvec + _Whereoff;

  000cb	8b c3		 mov	 eax, ebx

; 1680 :         _Myfirst = _Newvec;

  000cd	89 3e		 mov	 DWORD PTR [esi], edi

; 1681 :         _Mylast  = _Newvec + _Newsize;

  000cf	8d 0c 8f	 lea	 ecx, DWORD PTR [edi+ecx*4]
  000d2	89 4e 04	 mov	 DWORD PTR [esi+4], ecx

; 1682 :         _Myend   = _Newvec + _Newcapacity;

  000d5	8b 4d f4	 mov	 ecx, DWORD PTR tv436[ebp]
  000d8	03 cf		 add	 ecx, edi

; 758  :         }
; 759  :         _CATCH_ALL
; 760  :         _Destroy(_Constructed_first, _Constructed_last);
; 761  :         _Al.deallocate(_Newvec, _Newcapacity);
; 762  :         _RERAISE;
; 763  :         _CATCH_END
; 764  : 
; 765  :         _Change_array(_Newvec, _Newsize, _Newcapacity);
; 766  :         return _Newvec + _Whereoff;

  000da	5f		 pop	 edi

; 1682 :         _Myend   = _Newvec + _Newcapacity;

  000db	89 4e 08	 mov	 DWORD PTR [esi+8], ecx

; 758  :         }
; 759  :         _CATCH_ALL
; 760  :         _Destroy(_Constructed_first, _Constructed_last);
; 761  :         _Al.deallocate(_Newvec, _Newcapacity);
; 762  :         _RERAISE;
; 763  :         _CATCH_END
; 764  : 
; 765  :         _Change_array(_Newvec, _Newsize, _Newcapacity);
; 766  :         return _Newvec + _Whereoff;

  000de	5e		 pop	 esi
  000df	5b		 pop	 ebx

; 767  :     }

  000e0	8b e5		 mov	 esp, ebp
  000e2	5d		 pop	 ebp
  000e3	c2 08 00	 ret	 8
$LN39@Emplace_re:

; 738  :             _Xlength();

  000e6	e8 00 00 00 00	 call	 ?_Xlength@?$vector@PAUSEffectMeshData@CEffectMesh@@V?$allocator@PAUSEffectMeshData@CEffectMesh@@@std@@@std@@CAXXZ ; std::vector<CEffectMesh::SEffectMeshData *,std::allocator<CEffectMesh::SEffectMeshData *> >::_Xlength
$LN40@Emplace_re:
; File C:\Program Files (x86)\Microsoft Visual Studio\2019\Community\VC\Tools\MSVC\14.27.29110\include\xmemory

; 61   :             _Throw_bad_array_new_length(); // multiply overflow

  000eb	e8 00 00 00 00	 call	 ?_Throw_bad_array_new_length@std@@YAXXZ ; std::_Throw_bad_array_new_length
$LN37@Emplace_re:
  000f0	cc		 int	 3
??$_Emplace_reallocate@ABQAUSEffectMeshData@CEffectMesh@@@?$vector@PAUSEffectMeshData@CEffectMesh@@V?$allocator@PAUSEffectMeshData@CEffectMesh@@@std@@@std@@QAEPAPAUSEffectMeshData@CEffectMesh@@QAPAU23@ABQAU23@@Z ENDP ; std::vector<CEffectMesh::SEffectMeshData *,std::allocator<CEffectMesh::SEffectMeshData *> >::_Emplace_reallocate<CEffectMesh::SEffectMeshData * const &>
_TEXT	ENDS
; Function compile flags: /Ogtp
; File C:\Program Files (x86)\Microsoft Visual Studio\2019\Community\VC\Tools\MSVC\14.27.29110\include\xmemory
;	COMDAT ??$_Destroy_range@V?$allocator@PAUSEffectMeshData@CEffectMesh@@@std@@@std@@YAXPAPAUSEffectMeshData@CEffectMesh@@QAPAU12@AAV?$allocator@PAUSEffectMeshData@CEffectMesh@@@0@@Z
_TEXT	SEGMENT
__First$ = 8						; size = 4
__Last$ = 12						; size = 4
__Al$ = 16						; size = 4
??$_Destroy_range@V?$allocator@PAUSEffectMeshData@CEffectMesh@@@std@@@std@@YAXPAPAUSEffectMeshData@CEffectMesh@@QAPAU12@AAV?$allocator@PAUSEffectMeshData@CEffectMesh@@@0@@Z PROC ; std::_Destroy_range<std::allocator<CEffectMesh::SEffectMeshData *> >, COMDAT

; 956  :     // note that this is an optimization for debug mode codegen; in release mode the BE removes all of this
; 957  :     using _Ty = typename _Alloc::value_type;
; 958  :     if _CONSTEXPR_IF (!conjunction_v<is_trivially_destructible<_Ty>, _Uses_default_destroy<_Alloc, _Ty*>>) {
; 959  :         for (; _First != _Last; ++_First) {
; 960  :             allocator_traits<_Alloc>::destroy(_Al, _Unfancy(_First));
; 961  :         }
; 962  :     }
; 963  : }

  00000	c2 00 00	 ret	 0
??$_Destroy_range@V?$allocator@PAUSEffectMeshData@CEffectMesh@@@std@@@std@@YAXPAPAUSEffectMeshData@CEffectMesh@@QAPAU12@AAV?$allocator@PAUSEffectMeshData@CEffectMesh@@@0@@Z ENDP ; std::_Destroy_range<std::allocator<CEffectMesh::SEffectMeshData *> >
_TEXT	ENDS
; Function compile flags: /Ogtp
; File C:\Program Files (x86)\Microsoft Visual Studio\2019\Community\VC\Tools\MSVC\14.27.29110\include\xmemory
;	COMDAT ??$_Destroy_range@V?$allocator@V?$CTimeEvent@M@@@std@@@std@@YAXPAV?$CTimeEvent@M@@QAV1@AAV?$allocator@V?$CTimeEvent@M@@@0@@Z
_TEXT	SEGMENT
__First$ = 8						; size = 4
__Last$ = 12						; size = 4
__Al$ = 16						; size = 4
??$_Destroy_range@V?$allocator@V?$CTimeEvent@M@@@std@@@std@@YAXPAV?$CTimeEvent@M@@QAV1@AAV?$allocator@V?$CTimeEvent@M@@@0@@Z PROC ; std::_Destroy_range<std::allocator<CTimeEvent<float> > >, COMDAT

; 956  :     // note that this is an optimization for debug mode codegen; in release mode the BE removes all of this
; 957  :     using _Ty = typename _Alloc::value_type;
; 958  :     if _CONSTEXPR_IF (!conjunction_v<is_trivially_destructible<_Ty>, _Uses_default_destroy<_Alloc, _Ty*>>) {
; 959  :         for (; _First != _Last; ++_First) {
; 960  :             allocator_traits<_Alloc>::destroy(_Al, _Unfancy(_First));
; 961  :         }
; 962  :     }
; 963  : }

  00000	c2 00 00	 ret	 0
??$_Destroy_range@V?$allocator@V?$CTimeEvent@M@@@std@@@std@@YAXPAV?$CTimeEvent@M@@QAV1@AAV?$allocator@V?$CTimeEvent@M@@@0@@Z ENDP ; std::_Destroy_range<std::allocator<CTimeEvent<float> > >
_TEXT	ENDS
; Function compile flags: /Ogtp
; File C:\Program Files (x86)\Microsoft Visual Studio\2019\Community\VC\Tools\MSVC\14.27.29110\include\xmemory
; File C:\Program Files (x86)\Microsoft Visual Studio\2019\Community\VC\Tools\MSVC\14.27.29110\include\vector
; File C:\Program Files (x86)\Microsoft Visual Studio\2019\Community\VC\Tools\MSVC\14.27.29110\include\xmemory
; File C:\Program Files (x86)\Microsoft Visual Studio\2019\Community\VC\Tools\MSVC\14.27.29110\include\vector
; File C:\Program Files (x86)\Microsoft Visual Studio\2019\Community\VC\Tools\MSVC\14.27.29110\include\xmemory
; File C:\Program Files (x86)\Microsoft Visual Studio\2019\Community\VC\Tools\MSVC\14.27.29110\include\vector
; File C:\Program Files (x86)\Microsoft Visual Studio\2019\Community\VC\Tools\MSVC\14.27.29110\include\xmemory
;	COMDAT ??$_Destroy_range@V?$allocator@USMeshData@CEffectMeshScript@@@std@@@std@@YAXPAUSMeshData@CEffectMeshScript@@QAU12@AAV?$allocator@USMeshData@CEffectMeshScript@@@0@@Z
_TEXT	SEGMENT
__First$ = 8						; size = 4
__Last$ = 12						; size = 4
__Al$ = 16						; size = 4
??$_Destroy_range@V?$allocator@USMeshData@CEffectMeshScript@@@std@@@std@@YAXPAUSMeshData@CEffectMeshScript@@QAU12@AAV?$allocator@USMeshData@CEffectMeshScript@@@0@@Z PROC ; std::_Destroy_range<std::allocator<CEffectMeshScript::SMeshData> >, COMDAT

; 955  : void _Destroy_range(_Alloc_ptr_t<_Alloc> _First, const _Alloc_ptr_t<_Alloc> _Last, _Alloc& _Al) noexcept {

  00000	55		 push	 ebp
  00001	8b ec		 mov	 ebp, esp
  00003	56		 push	 esi

; 959  :         for (; _First != _Last; ++_First) {

  00004	8b 75 08	 mov	 esi, DWORD PTR __First$[ebp]
  00007	57		 push	 edi
  00008	8b 7d 0c	 mov	 edi, DWORD PTR __Last$[ebp]
  0000b	3b f7		 cmp	 esi, edi
  0000d	74 39		 je	 SHORT $LN3@Destroy_ra
  0000f	83 c6 38	 add	 esi, 56			; 00000038H
$LL4@Destroy_ra:
; File C:\Program Files (x86)\Microsoft Visual Studio\2019\Community\VC\Tools\MSVC\14.27.29110\include\vector

; 1693 :         if (_Myfirst) { // destroy and deallocate old array

  00012	8b 4e f8	 mov	 ecx, DWORD PTR [esi-8]
  00015	85 c9		 test	 ecx, ecx
  00017	74 25		 je	 SHORT $LN25@Destroy_ra

; 1694 :             _Destroy(_Myfirst, _Mylast);
; 1695 :             _Getal().deallocate(_Myfirst, static_cast<size_type>(_Myend - _Myfirst));

  00019	8b 06		 mov	 eax, DWORD PTR [esi]
  0001b	2b c1		 sub	 eax, ecx
; File C:\Program Files (x86)\Microsoft Visual Studio\2019\Community\VC\Tools\MSVC\14.27.29110\include\xmemory

; 803  :         _Deallocate<_New_alignof<_Ty>>(_Ptr, sizeof(_Ty) * _Count);

  0001d	83 e0 f8	 and	 eax, -8			; fffffff8H
  00020	50		 push	 eax
  00021	51		 push	 ecx
  00022	e8 00 00 00 00	 call	 ??$_Deallocate@$07$0A@@std@@YAXPAXI@Z ; std::_Deallocate<8,0>
; File C:\Program Files (x86)\Microsoft Visual Studio\2019\Community\VC\Tools\MSVC\14.27.29110\include\vector

; 1697 :             _Myfirst = pointer();

  00027	c7 46 f8 00 00
	00 00		 mov	 DWORD PTR [esi-8], 0
; File C:\Program Files (x86)\Microsoft Visual Studio\2019\Community\VC\Tools\MSVC\14.27.29110\include\xmemory

; 803  :         _Deallocate<_New_alignof<_Ty>>(_Ptr, sizeof(_Ty) * _Count);

  0002e	83 c4 08	 add	 esp, 8
; File C:\Program Files (x86)\Microsoft Visual Studio\2019\Community\VC\Tools\MSVC\14.27.29110\include\vector

; 1698 :             _Mylast  = pointer();

  00031	c7 46 fc 00 00
	00 00		 mov	 DWORD PTR [esi-4], 0

; 1699 :             _Myend   = pointer();

  00038	c7 06 00 00 00
	00		 mov	 DWORD PTR [esi], 0
$LN25@Destroy_ra:
; File C:\Program Files (x86)\Microsoft Visual Studio\2019\Community\VC\Tools\MSVC\14.27.29110\include\xmemory

; 959  :         for (; _First != _Last; ++_First) {

  0003e	83 c6 3c	 add	 esi, 60			; 0000003cH
  00041	8d 46 c8	 lea	 eax, DWORD PTR [esi-56]
  00044	3b c7		 cmp	 eax, edi
  00046	75 ca		 jne	 SHORT $LL4@Destroy_ra
$LN3@Destroy_ra:
  00048	5f		 pop	 edi

; 960  :             allocator_traits<_Alloc>::destroy(_Al, _Unfancy(_First));
; 961  :         }
; 962  :     }
; 963  : }

  00049	5e		 pop	 esi
  0004a	5d		 pop	 ebp
  0004b	c3		 ret	 0
??$_Destroy_range@V?$allocator@USMeshData@CEffectMeshScript@@@std@@@std@@YAXPAUSMeshData@CEffectMeshScript@@QAU12@AAV?$allocator@USMeshData@CEffectMeshScript@@@0@@Z ENDP ; std::_Destroy_range<std::allocator<CEffectMeshScript::SMeshData> >
_TEXT	ENDS
; Function compile flags: /Ogtp
; File C:\Program Files (x86)\Microsoft Visual Studio\2019\Community\VC\Tools\MSVC\14.27.29110\include\xmemory
;	COMDAT ??$_Destroy_range@V?$allocator@UD3DXVECTOR3@@@std@@@std@@YAXPAUD3DXVECTOR3@@QAU1@AAV?$allocator@UD3DXVECTOR3@@@0@@Z
_TEXT	SEGMENT
__First$ = 8						; size = 4
__Last$ = 12						; size = 4
__Al$ = 16						; size = 4
??$_Destroy_range@V?$allocator@UD3DXVECTOR3@@@std@@@std@@YAXPAUD3DXVECTOR3@@QAU1@AAV?$allocator@UD3DXVECTOR3@@@0@@Z PROC ; std::_Destroy_range<std::allocator<D3DXVECTOR3> >, COMDAT

; 956  :     // note that this is an optimization for debug mode codegen; in release mode the BE removes all of this
; 957  :     using _Ty = typename _Alloc::value_type;
; 958  :     if _CONSTEXPR_IF (!conjunction_v<is_trivially_destructible<_Ty>, _Uses_default_destroy<_Alloc, _Ty*>>) {
; 959  :         for (; _First != _Last; ++_First) {
; 960  :             allocator_traits<_Alloc>::destroy(_Al, _Unfancy(_First));
; 961  :         }
; 962  :     }
; 963  : }

  00000	c2 00 00	 ret	 0
??$_Destroy_range@V?$allocator@UD3DXVECTOR3@@@std@@@std@@YAXPAUD3DXVECTOR3@@QAU1@AAV?$allocator@UD3DXVECTOR3@@@0@@Z ENDP ; std::_Destroy_range<std::allocator<D3DXVECTOR3> >
_TEXT	ENDS
; Function compile flags: /Ogtp
; File C:\Program Files (x86)\Microsoft Visual Studio\2019\Community\VC\Tools\MSVC\14.27.29110\include\xmemory
;	COMDAT ??$_Destroy_range@V?$allocator@H@std@@@std@@YAXPAHQAHAAV?$allocator@H@0@@Z
_TEXT	SEGMENT
__First$ = 8						; size = 4
__Last$ = 12						; size = 4
__Al$ = 16						; size = 4
??$_Destroy_range@V?$allocator@H@std@@@std@@YAXPAHQAHAAV?$allocator@H@0@@Z PROC ; std::_Destroy_range<std::allocator<int> >, COMDAT

; 956  :     // note that this is an optimization for debug mode codegen; in release mode the BE removes all of this
; 957  :     using _Ty = typename _Alloc::value_type;
; 958  :     if _CONSTEXPR_IF (!conjunction_v<is_trivially_destructible<_Ty>, _Uses_default_destroy<_Alloc, _Ty*>>) {
; 959  :         for (; _First != _Last; ++_First) {
; 960  :             allocator_traits<_Alloc>::destroy(_Al, _Unfancy(_First));
; 961  :         }
; 962  :     }
; 963  : }

  00000	c2 00 00	 ret	 0
??$_Destroy_range@V?$allocator@H@std@@@std@@YAXPAHQAHAAV?$allocator@H@0@@Z ENDP ; std::_Destroy_range<std::allocator<int> >
_TEXT	ENDS
; Function compile flags: /Ogtp
; File C:\Program Files (x86)\Microsoft Visual Studio\2019\Community\VC\Tools\MSVC\14.27.29110\include\xmemory
;	COMDAT ??$_Destroy_range@V?$allocator@UD3DXVECTOR2@@@std@@@std@@YAXPAUD3DXVECTOR2@@QAU1@AAV?$allocator@UD3DXVECTOR2@@@0@@Z
_TEXT	SEGMENT
__First$ = 8						; size = 4
__Last$ = 12						; size = 4
__Al$ = 16						; size = 4
??$_Destroy_range@V?$allocator@UD3DXVECTOR2@@@std@@@std@@YAXPAUD3DXVECTOR2@@QAU1@AAV?$allocator@UD3DXVECTOR2@@@0@@Z PROC ; std::_Destroy_range<std::allocator<D3DXVECTOR2> >, COMDAT

; 956  :     // note that this is an optimization for debug mode codegen; in release mode the BE removes all of this
; 957  :     using _Ty = typename _Alloc::value_type;
; 958  :     if _CONSTEXPR_IF (!conjunction_v<is_trivially_destructible<_Ty>, _Uses_default_destroy<_Alloc, _Ty*>>) {
; 959  :         for (; _First != _Last; ++_First) {
; 960  :             allocator_traits<_Alloc>::destroy(_Al, _Unfancy(_First));
; 961  :         }
; 962  :     }
; 963  : }

  00000	c2 00 00	 ret	 0
??$_Destroy_range@V?$allocator@UD3DXVECTOR2@@@std@@@std@@YAXPAUD3DXVECTOR2@@QAU1@AAV?$allocator@UD3DXVECTOR2@@@0@@Z ENDP ; std::_Destroy_range<std::allocator<D3DXVECTOR2> >
_TEXT	ENDS
; Function compile flags: /Ogtp
; File C:\Program Files (x86)\Microsoft Visual Studio\2019\Community\VC\Tools\MSVC\14.27.29110\include\vector
; File C:\Program Files (x86)\Microsoft Visual Studio\2019\Community\VC\Tools\MSVC\14.27.29110\include\xmemory
; File C:\Program Files (x86)\Microsoft Visual Studio\2019\Community\VC\Tools\MSVC\14.27.29110\include\vector
; File C:\Program Files (x86)\Microsoft Visual Studio\2019\Community\VC\Tools\MSVC\14.27.29110\include\xmemory
; File C:\Program Files (x86)\Microsoft Visual Studio\2019\Community\VC\Tools\MSVC\14.27.29110\include\vector
; File C:\Program Files (x86)\Microsoft Visual Studio\2019\Community\VC\Tools\MSVC\14.27.29110\include\xmemory
; File C:\Program Files (x86)\Microsoft Visual Studio\2019\Community\VC\Tools\MSVC\14.27.29110\include\vector
; File C:\Program Files (x86)\Microsoft Visual Studio\2019\Community\VC\Tools\MSVC\14.27.29110\include\xmemory
; File C:\Program Files (x86)\Microsoft Visual Studio\2019\Community\VC\Tools\MSVC\14.27.29110\include\vector
; File C:\Program Files (x86)\Microsoft Visual Studio\2019\Community\VC\Tools\MSVC\14.27.29110\include\xmemory
; File C:\Program Files (x86)\Microsoft Visual Studio\2019\Community\VC\Tools\MSVC\14.27.29110\include\vector
;	COMDAT ??$_Emplace_reallocate@ABQAVCEffectMeshScript@@@?$vector@PAVCEffectMeshScript@@V?$allocator@PAVCEffectMeshScript@@@std@@@std@@QAEPAPAVCEffectMeshScript@@QAPAV2@ABQAV2@@Z
_TEXT	SEGMENT
tv436 = -12						; size = 4
__Newsize$1$ = -8					; size = 4
tv435 = -4						; size = 4
__Whereptr$ = 8						; size = 4
_<_Val_0>$ = 12						; size = 4
??$_Emplace_reallocate@ABQAVCEffectMeshScript@@@?$vector@PAVCEffectMeshScript@@V?$allocator@PAVCEffectMeshScript@@@std@@@std@@QAEPAPAVCEffectMeshScript@@QAPAV2@ABQAV2@@Z PROC ; std::vector<CEffectMeshScript *,std::allocator<CEffectMeshScript *> >::_Emplace_reallocate<CEffectMeshScript * const &>, COMDAT
; _this$ = ecx

; 725  :     pointer _Emplace_reallocate(const pointer _Whereptr, _Valty&&... _Val) {

  00000	55		 push	 ebp
  00001	8b ec		 mov	 ebp, esp
  00003	83 ec 0c	 sub	 esp, 12			; 0000000cH
  00006	53		 push	 ebx

; 726  :         // reallocate and insert by perfectly forwarding _Val at _Whereptr
; 727  :         _Alty& _Al        = _Getal();
; 728  :         auto& _My_data    = _Mypair._Myval2;
; 729  :         pointer& _Myfirst = _My_data._Myfirst;
; 730  :         pointer& _Mylast  = _My_data._Mylast;
; 731  : 
; 732  :         _STL_INTERNAL_CHECK(_Mylast == _My_data._Myend); // check that we have no unused capacity
; 733  : 
; 734  :         const auto _Whereoff = static_cast<size_type>(_Whereptr - _Myfirst);

  00007	8b 5d 08	 mov	 ebx, DWORD PTR __Whereptr$[ebp]
  0000a	56		 push	 esi
  0000b	8b f1		 mov	 esi, ecx
  0000d	57		 push	 edi
  0000e	8b 16		 mov	 edx, DWORD PTR [esi]
  00010	2b da		 sub	 ebx, edx

; 735  :         const auto _Oldsize  = static_cast<size_type>(_Mylast - _Myfirst);

  00012	8b 46 04	 mov	 eax, DWORD PTR [esi+4]
  00015	2b c2		 sub	 eax, edx
  00017	c1 fb 02	 sar	 ebx, 2
  0001a	c1 f8 02	 sar	 eax, 2

; 736  : 
; 737  :         if (_Oldsize == max_size()) {

  0001d	3d ff ff ff 3f	 cmp	 eax, 1073741823		; 3fffffffH
  00022	0f 84 be 00 00
	00		 je	 $LN39@Emplace_re

; 1494 :         return static_cast<size_type>(_My_data._Myend - _My_data._Myfirst);

  00028	8b 4e 08	 mov	 ecx, DWORD PTR [esi+8]

; 739  :         }
; 740  : 
; 741  :         const size_type _Newsize     = _Oldsize + 1;

  0002b	8d 78 01	 lea	 edi, DWORD PTR [eax+1]

; 1494 :         return static_cast<size_type>(_My_data._Myend - _My_data._Myfirst);

  0002e	2b ca		 sub	 ecx, edx

; 739  :         }
; 740  : 
; 741  :         const size_type _Newsize     = _Oldsize + 1;

  00030	89 7d f8	 mov	 DWORD PTR __Newsize$1$[ebp], edi

; 1494 :         return static_cast<size_type>(_My_data._Myend - _My_data._Myfirst);

  00033	c1 f9 02	 sar	 ecx, 2

; 1619 :         if (_Oldcapacity > max_size() - _Oldcapacity / 2) {

  00036	b8 ff ff ff 3f	 mov	 eax, 1073741823		; 3fffffffH
  0003b	8b d1		 mov	 edx, ecx
  0003d	d1 ea		 shr	 edx, 1
  0003f	2b c2		 sub	 eax, edx
  00041	3b c8		 cmp	 ecx, eax
  00043	76 04		 jbe	 SHORT $LN12@Emplace_re

; 1620 :             return _Newsize; // geometric growth would overflow

  00045	8b c7		 mov	 eax, edi
  00047	eb 08		 jmp	 SHORT $LN13@Emplace_re
$LN12@Emplace_re:

; 1621 :         }
; 1622 : 
; 1623 :         const size_type _Geometric = _Oldcapacity + _Oldcapacity / 2;

  00049	8d 04 0a	 lea	 eax, DWORD PTR [edx+ecx]

; 1624 : 
; 1625 :         if (_Geometric < _Newsize) {

  0004c	3b c7		 cmp	 eax, edi
  0004e	0f 42 c7	 cmovb	 eax, edi
$LN13@Emplace_re:
; File C:\Program Files (x86)\Microsoft Visual Studio\2019\Community\VC\Tools\MSVC\14.27.29110\include\xmemory

; 60   :         if (_Count > _Max_possible) {

  00051	3d ff ff ff 3f	 cmp	 eax, 1073741823		; 3fffffffH
  00056	0f 87 8f 00 00
	00		 ja	 $LN40@Emplace_re

; 62   :         }
; 63   :     }
; 64   : 
; 65   :     return _Count * _Ty_size;

  0005c	c1 e0 02	 shl	 eax, 2

; 807  :         return static_cast<_Ty*>(_Allocate<_New_alignof<_Ty>>(_Get_size_of_n<sizeof(_Ty)>(_Count)));

  0005f	50		 push	 eax

; 65   :     return _Count * _Ty_size;

  00060	89 45 f4	 mov	 DWORD PTR tv436[ebp], eax

; 807  :         return static_cast<_Ty*>(_Allocate<_New_alignof<_Ty>>(_Get_size_of_n<sizeof(_Ty)>(_Count)));

  00063	e8 00 00 00 00	 call	 ??$_Allocate@$07U_Default_allocate_traits@std@@$0A@@std@@YAPAXI@Z ; std::_Allocate<8,std::_Default_allocate_traits,0>
; File C:\Program Files (x86)\Microsoft Visual Studio\2019\Community\VC\Tools\MSVC\14.27.29110\include\vector

; 749  :         _Alty_traits::construct(_Al, _Unfancy(_Newvec + _Whereoff), _STD forward<_Valty>(_Val)...);

  00068	8b 4d 0c	 mov	 ecx, DWORD PTR _<_Val_0>$[ebp]
; File C:\Program Files (x86)\Microsoft Visual Studio\2019\Community\VC\Tools\MSVC\14.27.29110\include\xmemory

; 807  :         return static_cast<_Ty*>(_Allocate<_New_alignof<_Ty>>(_Get_size_of_n<sizeof(_Ty)>(_Count)));

  0006b	8b f8		 mov	 edi, eax
; File C:\Program Files (x86)\Microsoft Visual Studio\2019\Community\VC\Tools\MSVC\14.27.29110\include\vector

; 749  :         _Alty_traits::construct(_Al, _Unfancy(_Newvec + _Whereoff), _STD forward<_Valty>(_Val)...);

  0006d	8d 04 9f	 lea	 eax, DWORD PTR [edi+ebx*4]
; File C:\Program Files (x86)\Microsoft Visual Studio\2019\Community\VC\Tools\MSVC\14.27.29110\include\xmemory

; 807  :         return static_cast<_Ty*>(_Allocate<_New_alignof<_Ty>>(_Get_size_of_n<sizeof(_Ty)>(_Count)));

  00070	83 c4 04	 add	 esp, 4
; File C:\Program Files (x86)\Microsoft Visual Studio\2019\Community\VC\Tools\MSVC\14.27.29110\include\vector

; 752  :         if (_Whereptr == _Mylast) { // at back, provide strong guarantee

  00073	8b 5d 08	 mov	 ebx, DWORD PTR __Whereptr$[ebp]
  00076	89 45 fc	 mov	 DWORD PTR tv435[ebp], eax
  00079	8b 09		 mov	 ecx, DWORD PTR [ecx]
  0007b	89 08		 mov	 DWORD PTR [eax], ecx
  0007d	8b 56 04	 mov	 edx, DWORD PTR [esi+4]
  00080	8b 0e		 mov	 ecx, DWORD PTR [esi]
  00082	3b da		 cmp	 ebx, edx
  00084	75 07		 jne	 SHORT $LN4@Emplace_re

; 753  :             _Umove_if_noexcept(_Myfirst, _Mylast, _Newvec);
; 754  :         } else { // provide basic guarantee

  00086	8b 5d fc	 mov	 ebx, DWORD PTR tv435[ebp]

; 1597 :         _Uninitialized_move(_First, _Last, _Dest, _Getal());

  00089	8b c7		 mov	 eax, edi

; 753  :             _Umove_if_noexcept(_Myfirst, _Mylast, _Newvec);
; 754  :         } else { // provide basic guarantee

  0008b	eb 17		 jmp	 SHORT $LN5@Emplace_re
$LN4@Emplace_re:

; 1592 :         return _Uninitialized_move(_First, _Last, _Dest, _Getal());

  0008d	56		 push	 esi
  0008e	57		 push	 edi
  0008f	53		 push	 ebx
  00090	51		 push	 ecx
  00091	e8 00 00 00 00	 call	 ??$_Uninitialized_move@PAPAVCEffectMeshScript@@V?$allocator@PAVCEffectMeshScript@@@std@@@std@@YAPAPAVCEffectMeshScript@@QAPAV1@0PAPAV1@AAV?$allocator@PAVCEffectMeshScript@@@0@@Z ; std::_Uninitialized_move<CEffectMeshScript * *,std::allocator<CEffectMeshScript *> >
  00096	8b 56 04	 mov	 edx, DWORD PTR [esi+4]
  00099	8b cb		 mov	 ecx, ebx

; 755  :             _Umove(_Myfirst, _Whereptr, _Newvec);
; 756  :             _Constructed_first = _Newvec;
; 757  :             _Umove(_Whereptr, _Mylast, _Newvec + _Whereoff + 1);

  0009b	8b 5d fc	 mov	 ebx, DWORD PTR tv435[ebp]

; 1592 :         return _Uninitialized_move(_First, _Last, _Dest, _Getal());

  0009e	83 c4 10	 add	 esp, 16			; 00000010H

; 755  :             _Umove(_Myfirst, _Whereptr, _Newvec);
; 756  :             _Constructed_first = _Newvec;
; 757  :             _Umove(_Whereptr, _Mylast, _Newvec + _Whereoff + 1);

  000a1	8d 43 04	 lea	 eax, DWORD PTR [ebx+4]
$LN5@Emplace_re:
  000a4	56		 push	 esi
  000a5	50		 push	 eax
  000a6	52		 push	 edx
  000a7	51		 push	 ecx
  000a8	e8 00 00 00 00	 call	 ??$_Uninitialized_move@PAPAVCEffectMeshScript@@V?$allocator@PAVCEffectMeshScript@@@std@@@std@@YAPAPAVCEffectMeshScript@@QAPAV1@0PAPAV1@AAV?$allocator@PAVCEffectMeshScript@@@0@@Z ; std::_Uninitialized_move<CEffectMeshScript * *,std::allocator<CEffectMeshScript *> >

; 1675 :         if (_Myfirst) { // destroy and deallocate old array

  000ad	8b 0e		 mov	 ecx, DWORD PTR [esi]

; 755  :             _Umove(_Myfirst, _Whereptr, _Newvec);
; 756  :             _Constructed_first = _Newvec;
; 757  :             _Umove(_Whereptr, _Mylast, _Newvec + _Whereoff + 1);

  000af	83 c4 10	 add	 esp, 16			; 00000010H

; 1675 :         if (_Myfirst) { // destroy and deallocate old array

  000b2	85 c9		 test	 ecx, ecx
  000b4	74 12		 je	 SHORT $LN33@Emplace_re

; 1676 :             _Destroy(_Myfirst, _Mylast);
; 1677 :             _Getal().deallocate(_Myfirst, static_cast<size_type>(_Myend - _Myfirst));

  000b6	8b 46 08	 mov	 eax, DWORD PTR [esi+8]
  000b9	2b c1		 sub	 eax, ecx
; File C:\Program Files (x86)\Microsoft Visual Studio\2019\Community\VC\Tools\MSVC\14.27.29110\include\xmemory

; 803  :         _Deallocate<_New_alignof<_Ty>>(_Ptr, sizeof(_Ty) * _Count);

  000bb	83 e0 fc	 and	 eax, -4			; fffffffcH
  000be	50		 push	 eax
  000bf	51		 push	 ecx
  000c0	e8 00 00 00 00	 call	 ??$_Deallocate@$07$0A@@std@@YAXPAXI@Z ; std::_Deallocate<8,0>
  000c5	83 c4 08	 add	 esp, 8
$LN33@Emplace_re:
; File C:\Program Files (x86)\Microsoft Visual Studio\2019\Community\VC\Tools\MSVC\14.27.29110\include\vector

; 1681 :         _Mylast  = _Newvec + _Newsize;

  000c8	8b 4d f8	 mov	 ecx, DWORD PTR __Newsize$1$[ebp]

; 758  :         }
; 759  :         _CATCH_ALL
; 760  :         _Destroy(_Constructed_first, _Constructed_last);
; 761  :         _Al.deallocate(_Newvec, _Newcapacity);
; 762  :         _RERAISE;
; 763  :         _CATCH_END
; 764  : 
; 765  :         _Change_array(_Newvec, _Newsize, _Newcapacity);
; 766  :         return _Newvec + _Whereoff;

  000cb	8b c3		 mov	 eax, ebx

; 1680 :         _Myfirst = _Newvec;

  000cd	89 3e		 mov	 DWORD PTR [esi], edi

; 1681 :         _Mylast  = _Newvec + _Newsize;

  000cf	8d 0c 8f	 lea	 ecx, DWORD PTR [edi+ecx*4]
  000d2	89 4e 04	 mov	 DWORD PTR [esi+4], ecx

; 1682 :         _Myend   = _Newvec + _Newcapacity;

  000d5	8b 4d f4	 mov	 ecx, DWORD PTR tv436[ebp]
  000d8	03 cf		 add	 ecx, edi

; 758  :         }
; 759  :         _CATCH_ALL
; 760  :         _Destroy(_Constructed_first, _Constructed_last);
; 761  :         _Al.deallocate(_Newvec, _Newcapacity);
; 762  :         _RERAISE;
; 763  :         _CATCH_END
; 764  : 
; 765  :         _Change_array(_Newvec, _Newsize, _Newcapacity);
; 766  :         return _Newvec + _Whereoff;

  000da	5f		 pop	 edi

; 1682 :         _Myend   = _Newvec + _Newcapacity;

  000db	89 4e 08	 mov	 DWORD PTR [esi+8], ecx

; 758  :         }
; 759  :         _CATCH_ALL
; 760  :         _Destroy(_Constructed_first, _Constructed_last);
; 761  :         _Al.deallocate(_Newvec, _Newcapacity);
; 762  :         _RERAISE;
; 763  :         _CATCH_END
; 764  : 
; 765  :         _Change_array(_Newvec, _Newsize, _Newcapacity);
; 766  :         return _Newvec + _Whereoff;

  000de	5e		 pop	 esi
  000df	5b		 pop	 ebx

; 767  :     }

  000e0	8b e5		 mov	 esp, ebp
  000e2	5d		 pop	 ebp
  000e3	c2 08 00	 ret	 8
$LN39@Emplace_re:

; 738  :             _Xlength();

  000e6	e8 00 00 00 00	 call	 ?_Xlength@?$vector@PAVCEffectMeshScript@@V?$allocator@PAVCEffectMeshScript@@@std@@@std@@CAXXZ ; std::vector<CEffectMeshScript *,std::allocator<CEffectMeshScript *> >::_Xlength
$LN40@Emplace_re:
; File C:\Program Files (x86)\Microsoft Visual Studio\2019\Community\VC\Tools\MSVC\14.27.29110\include\xmemory

; 61   :             _Throw_bad_array_new_length(); // multiply overflow

  000eb	e8 00 00 00 00	 call	 ?_Throw_bad_array_new_length@std@@YAXXZ ; std::_Throw_bad_array_new_length
$LN37@Emplace_re:
  000f0	cc		 int	 3
??$_Emplace_reallocate@ABQAVCEffectMeshScript@@@?$vector@PAVCEffectMeshScript@@V?$allocator@PAVCEffectMeshScript@@@std@@@std@@QAEPAPAVCEffectMeshScript@@QAPAV2@ABQAV2@@Z ENDP ; std::vector<CEffectMeshScript *,std::allocator<CEffectMeshScript *> >::_Emplace_reallocate<CEffectMeshScript * const &>
_TEXT	ENDS
; Function compile flags: /Ogtp
; File C:\Program Files (x86)\Microsoft Visual Studio\2019\Community\VC\Tools\MSVC\14.27.29110\include\vector
; File C:\Program Files (x86)\Microsoft Visual Studio\2019\Community\VC\Tools\MSVC\14.27.29110\include\xmemory
; File C:\Program Files (x86)\Microsoft Visual Studio\2019\Community\VC\Tools\MSVC\14.27.29110\include\vector
; File C:\Program Files (x86)\Microsoft Visual Studio\2019\Community\VC\Tools\MSVC\14.27.29110\include\xmemory
; File C:\Program Files (x86)\Microsoft Visual Studio\2019\Community\VC\Tools\MSVC\14.27.29110\include\vector
; File C:\Program Files (x86)\Microsoft Visual Studio\2019\Community\VC\Tools\MSVC\14.27.29110\include\xmemory
; File C:\Program Files (x86)\Microsoft Visual Studio\2019\Community\VC\Tools\MSVC\14.27.29110\include\vector
; File C:\Program Files (x86)\Microsoft Visual Studio\2019\Community\VC\Tools\MSVC\14.27.29110\include\xmemory
; File C:\Program Files (x86)\Microsoft Visual Studio\2019\Community\VC\Tools\MSVC\14.27.29110\include\vector
; File C:\Program Files (x86)\Microsoft Visual Studio\2019\Community\VC\Tools\MSVC\14.27.29110\include\xmemory
; File C:\Program Files (x86)\Microsoft Visual Studio\2019\Community\VC\Tools\MSVC\14.27.29110\include\vector
;	COMDAT ??$_Emplace_reallocate@ABQAVCGraphicImage@@@?$vector@PAVCGraphicImage@@V?$allocator@PAVCGraphicImage@@@std@@@std@@QAEPAPAVCGraphicImage@@QAPAV2@ABQAV2@@Z
_TEXT	SEGMENT
tv436 = -12						; size = 4
__Newsize$1$ = -8					; size = 4
tv435 = -4						; size = 4
__Whereptr$ = 8						; size = 4
_<_Val_0>$ = 12						; size = 4
??$_Emplace_reallocate@ABQAVCGraphicImage@@@?$vector@PAVCGraphicImage@@V?$allocator@PAVCGraphicImage@@@std@@@std@@QAEPAPAVCGraphicImage@@QAPAV2@ABQAV2@@Z PROC ; std::vector<CGraphicImage *,std::allocator<CGraphicImage *> >::_Emplace_reallocate<CGraphicImage * const &>, COMDAT
; _this$ = ecx

; 725  :     pointer _Emplace_reallocate(const pointer _Whereptr, _Valty&&... _Val) {

  00000	55		 push	 ebp
  00001	8b ec		 mov	 ebp, esp
  00003	83 ec 0c	 sub	 esp, 12			; 0000000cH
  00006	53		 push	 ebx

; 726  :         // reallocate and insert by perfectly forwarding _Val at _Whereptr
; 727  :         _Alty& _Al        = _Getal();
; 728  :         auto& _My_data    = _Mypair._Myval2;
; 729  :         pointer& _Myfirst = _My_data._Myfirst;
; 730  :         pointer& _Mylast  = _My_data._Mylast;
; 731  : 
; 732  :         _STL_INTERNAL_CHECK(_Mylast == _My_data._Myend); // check that we have no unused capacity
; 733  : 
; 734  :         const auto _Whereoff = static_cast<size_type>(_Whereptr - _Myfirst);

  00007	8b 5d 08	 mov	 ebx, DWORD PTR __Whereptr$[ebp]
  0000a	56		 push	 esi
  0000b	8b f1		 mov	 esi, ecx
  0000d	57		 push	 edi
  0000e	8b 16		 mov	 edx, DWORD PTR [esi]
  00010	2b da		 sub	 ebx, edx

; 735  :         const auto _Oldsize  = static_cast<size_type>(_Mylast - _Myfirst);

  00012	8b 46 04	 mov	 eax, DWORD PTR [esi+4]
  00015	2b c2		 sub	 eax, edx
  00017	c1 fb 02	 sar	 ebx, 2
  0001a	c1 f8 02	 sar	 eax, 2

; 736  : 
; 737  :         if (_Oldsize == max_size()) {

  0001d	3d ff ff ff 3f	 cmp	 eax, 1073741823		; 3fffffffH
  00022	0f 84 be 00 00
	00		 je	 $LN39@Emplace_re

; 1494 :         return static_cast<size_type>(_My_data._Myend - _My_data._Myfirst);

  00028	8b 4e 08	 mov	 ecx, DWORD PTR [esi+8]

; 739  :         }
; 740  : 
; 741  :         const size_type _Newsize     = _Oldsize + 1;

  0002b	8d 78 01	 lea	 edi, DWORD PTR [eax+1]

; 1494 :         return static_cast<size_type>(_My_data._Myend - _My_data._Myfirst);

  0002e	2b ca		 sub	 ecx, edx

; 739  :         }
; 740  : 
; 741  :         const size_type _Newsize     = _Oldsize + 1;

  00030	89 7d f8	 mov	 DWORD PTR __Newsize$1$[ebp], edi

; 1494 :         return static_cast<size_type>(_My_data._Myend - _My_data._Myfirst);

  00033	c1 f9 02	 sar	 ecx, 2

; 1619 :         if (_Oldcapacity > max_size() - _Oldcapacity / 2) {

  00036	b8 ff ff ff 3f	 mov	 eax, 1073741823		; 3fffffffH
  0003b	8b d1		 mov	 edx, ecx
  0003d	d1 ea		 shr	 edx, 1
  0003f	2b c2		 sub	 eax, edx
  00041	3b c8		 cmp	 ecx, eax
  00043	76 04		 jbe	 SHORT $LN12@Emplace_re

; 1620 :             return _Newsize; // geometric growth would overflow

  00045	8b c7		 mov	 eax, edi
  00047	eb 08		 jmp	 SHORT $LN13@Emplace_re
$LN12@Emplace_re:

; 1621 :         }
; 1622 : 
; 1623 :         const size_type _Geometric = _Oldcapacity + _Oldcapacity / 2;

  00049	8d 04 0a	 lea	 eax, DWORD PTR [edx+ecx]

; 1624 : 
; 1625 :         if (_Geometric < _Newsize) {

  0004c	3b c7		 cmp	 eax, edi
  0004e	0f 42 c7	 cmovb	 eax, edi
$LN13@Emplace_re:
; File C:\Program Files (x86)\Microsoft Visual Studio\2019\Community\VC\Tools\MSVC\14.27.29110\include\xmemory

; 60   :         if (_Count > _Max_possible) {

  00051	3d ff ff ff 3f	 cmp	 eax, 1073741823		; 3fffffffH
  00056	0f 87 8f 00 00
	00		 ja	 $LN40@Emplace_re

; 62   :         }
; 63   :     }
; 64   : 
; 65   :     return _Count * _Ty_size;

  0005c	c1 e0 02	 shl	 eax, 2

; 807  :         return static_cast<_Ty*>(_Allocate<_New_alignof<_Ty>>(_Get_size_of_n<sizeof(_Ty)>(_Count)));

  0005f	50		 push	 eax

; 65   :     return _Count * _Ty_size;

  00060	89 45 f4	 mov	 DWORD PTR tv436[ebp], eax

; 807  :         return static_cast<_Ty*>(_Allocate<_New_alignof<_Ty>>(_Get_size_of_n<sizeof(_Ty)>(_Count)));

  00063	e8 00 00 00 00	 call	 ??$_Allocate@$07U_Default_allocate_traits@std@@$0A@@std@@YAPAXI@Z ; std::_Allocate<8,std::_Default_allocate_traits,0>
; File C:\Program Files (x86)\Microsoft Visual Studio\2019\Community\VC\Tools\MSVC\14.27.29110\include\vector

; 749  :         _Alty_traits::construct(_Al, _Unfancy(_Newvec + _Whereoff), _STD forward<_Valty>(_Val)...);

  00068	8b 4d 0c	 mov	 ecx, DWORD PTR _<_Val_0>$[ebp]
; File C:\Program Files (x86)\Microsoft Visual Studio\2019\Community\VC\Tools\MSVC\14.27.29110\include\xmemory

; 807  :         return static_cast<_Ty*>(_Allocate<_New_alignof<_Ty>>(_Get_size_of_n<sizeof(_Ty)>(_Count)));

  0006b	8b f8		 mov	 edi, eax
