; Listing generated by Microsoft (R) Optimizing Compiler Version 19.27.29112.0 

	TITLE	C:\DS Project\DS Files\Source\ClientSource\Client\EffectLib\SimpleLightData.cpp
	.686P
	.XMM
	include listing.inc
	.model	flat

INCLUDELIB LIBCMT
INCLUDELIB OLDNAMES

PUBLIC	??_7?$CDynamicPool@VCLightData@@@@6B@		; CDynamicPool<CLightData>::`vftable'
PUBLIC	??_G?$CDynamicPool@VCLightData@@@@UAEPAXI@Z	; CDynamicPool<CLightData>::`scalar deleting destructor'
PUBLIC	??_R4?$CDynamicPool@VCLightData@@@@6B@		; CDynamicPool<CLightData>::`RTTI Complete Object Locator'
PUBLIC	??_R0?AV?$CDynamicPool@VCLightData@@@@@8	; CDynamicPool<CLightData> `RTTI Type Descriptor'
PUBLIC	??_R3?$CDynamicPool@VCLightData@@@@8		; CDynamicPool<CLightData>::`RTTI Class Hierarchy Descriptor'
PUBLIC	??_R2?$CDynamicPool@VCLightData@@@@8		; CDynamicPool<CLightData>::`RTTI Base Class Array'
PUBLIC	??_R1A@?0A@EA@?$CDynamicPool@VCLightData@@@@8	; CDynamicPool<CLightData>::`RTTI Base Class Descriptor at (0,-1,0,64)'
EXTRN	??_7type_info@@6B@:QWORD			; type_info::`vftable'
EXTRN	??_E?$CDynamicPool@VCLightData@@@@UAEPAXI@Z:PROC ; CDynamicPool<CLightData>::`vector deleting destructor'
;	COMDAT ??_R1A@?0A@EA@?$CDynamicPool@VCLightData@@@@8
rdata$r	SEGMENT
??_R1A@?0A@EA@?$CDynamicPool@VCLightData@@@@8 DD FLAT:??_R0?AV?$CDynamicPool@VCLightData@@@@@8 ; CDynamicPool<CLightData>::`RTTI Base Class Descriptor at (0,-1,0,64)'
	DD	00H
	DD	00H
	DD	0ffffffffH
	DD	00H
	DD	040H
	DD	FLAT:??_R3?$CDynamicPool@VCLightData@@@@8
rdata$r	ENDS
;	COMDAT ??_R2?$CDynamicPool@VCLightData@@@@8
rdata$r	SEGMENT
??_R2?$CDynamicPool@VCLightData@@@@8 DD FLAT:??_R1A@?0A@EA@?$CDynamicPool@VCLightData@@@@8 ; CDynamicPool<CLightData>::`RTTI Base Class Array'
rdata$r	ENDS
;	COMDAT ??_R3?$CDynamicPool@VCLightData@@@@8
rdata$r	SEGMENT
??_R3?$CDynamicPool@VCLightData@@@@8 DD 00H		; CDynamicPool<CLightData>::`RTTI Class Hierarchy Descriptor'
	DD	00H
	DD	01H
	DD	FLAT:??_R2?$CDynamicPool@VCLightData@@@@8
rdata$r	ENDS
;	COMDAT ??_R0?AV?$CDynamicPool@VCLightData@@@@@8
data$r	SEGMENT
??_R0?AV?$CDynamicPool@VCLightData@@@@@8 DD FLAT:??_7type_info@@6B@ ; CDynamicPool<CLightData> `RTTI Type Descriptor'
	DD	00H
	DB	'.?AV?$CDynamicPool@VCLightData@@@@', 00H
data$r	ENDS
;	COMDAT ??_R4?$CDynamicPool@VCLightData@@@@6B@
rdata$r	SEGMENT
??_R4?$CDynamicPool@VCLightData@@@@6B@ DD 00H		; CDynamicPool<CLightData>::`RTTI Complete Object Locator'
	DD	00H
	DD	00H
	DD	FLAT:??_R0?AV?$CDynamicPool@VCLightData@@@@@8
	DD	FLAT:??_R3?$CDynamicPool@VCLightData@@@@8
rdata$r	ENDS
;	COMDAT ??_7?$CDynamicPool@VCLightData@@@@6B@
CONST	SEGMENT
??_7?$CDynamicPool@VCLightData@@@@6B@ DD FLAT:??_R4?$CDynamicPool@VCLightData@@@@6B@ ; CDynamicPool<CLightData>::`vftable'
	DD	FLAT:??_E?$CDynamicPool@VCLightData@@@@UAEPAXI@Z
CONST	ENDS
PUBLIC	??0exception@std@@QAE@ABV01@@Z			; std::exception::exception
PUBLIC	??1exception@std@@UAE@XZ			; std::exception::~exception
PUBLIC	?what@exception@std@@UBEPBDXZ			; std::exception::what
PUBLIC	??_Gexception@std@@UAEPAXI@Z			; std::exception::`scalar deleting destructor'
PUBLIC	??0bad_alloc@std@@QAE@ABV01@@Z			; std::bad_alloc::bad_alloc
PUBLIC	??_Gbad_alloc@std@@UAEPAXI@Z			; std::bad_alloc::`scalar deleting destructor'
PUBLIC	??0bad_array_new_length@std@@QAE@XZ		; std::bad_array_new_length::bad_array_new_length
PUBLIC	??1bad_array_new_length@std@@UAE@XZ		; std::bad_array_new_length::~bad_array_new_length
PUBLIC	??0bad_array_new_length@std@@QAE@ABV01@@Z	; std::bad_array_new_length::bad_array_new_length
PUBLIC	??_Gbad_array_new_length@std@@UAEPAXI@Z		; std::bad_array_new_length::`scalar deleting destructor'
PUBLIC	?_Throw_bad_array_new_length@std@@YAXXZ		; std::_Throw_bad_array_new_length
PUBLIC	?_Xlen_string@std@@YAXXZ			; std::_Xlen_string
PUBLIC	??0?$basic_string@DU?$char_traits@D@std@@V?$allocator@D@2@@std@@QAE@QBD@Z ; std::basic_string<char,std::char_traits<char>,std::allocator<char> >::basic_string<char,std::char_traits<char>,std::allocator<char> >
PUBLIC	??1?$basic_string@DU?$char_traits@D@std@@V?$allocator@D@2@@std@@QAE@XZ ; std::basic_string<char,std::char_traits<char>,std::allocator<char> >::~basic_string<char,std::char_traits<char>,std::allocator<char> >
PUBLIC	??$_Destroy_in_place@PAD@std@@YAXAAPAD@Z	; std::_Destroy_in_place<char *>
PUBLIC	??$_Construct_in_place@PADABQAD@std@@YAXAAPADABQAD@Z ; std::_Construct_in_place<char *,char * const &>
PUBLIC	??$_Deallocate@$07$0A@@std@@YAXPAXI@Z		; std::_Deallocate<8,0>
PUBLIC	??$_Allocate@$07U_Default_allocate_traits@std@@$0A@@std@@YAPAXI@Z ; std::_Allocate<8,std::_Default_allocate_traits,0>
PUBLIC	??$_Allocate_manually_vector_aligned@U_Default_allocate_traits@std@@@std@@YAPAXI@Z ; std::_Allocate_manually_vector_aligned<std::_Default_allocate_traits>
PUBLIC	??0CLightData@@QAE@XZ				; CLightData::CLightData
PUBLIC	??1CLightData@@UAE@XZ				; CLightData::~CLightData
PUBLIC	?GetRange@CLightData@@QAEXMAAM@Z		; CLightData::GetRange
PUBLIC	?GetDuration@CLightData@@QAEMXZ			; CLightData::GetDuration
PUBLIC	?InitializeLight@CLightData@@QAEXAAU_D3DLIGHT8@@@Z ; CLightData::InitializeLight
PUBLIC	?OnClear@CLightData@@MAEXXZ			; CLightData::OnClear
PUBLIC	?OnIsData@CLightData@@MAE_NXZ			; CLightData::OnIsData
PUBLIC	?OnLoadScript@CLightData@@MAEHAAVCTextFileLoader@@@Z ; CLightData::OnLoadScript
PUBLIC	??1?$vector@V?$CTimeEvent@M@@V?$allocator@V?$CTimeEvent@M@@@std@@@std@@QAE@XZ ; std::vector<CTimeEvent<float>,std::allocator<CTimeEvent<float> > >::~vector<CTimeEvent<float>,std::allocator<CTimeEvent<float> > >
PUBLIC	?DestroySystem@CLightData@@SAXXZ		; CLightData::DestroySystem
PUBLIC	?New@CLightData@@SAPAV1@XZ			; CLightData::New
PUBLIC	?Delete@CLightData@@SAXPAV1@@Z			; CLightData::Delete
PUBLIC	??_GCLightData@@UAEPAXI@Z			; CLightData::`scalar deleting destructor'
PUBLIC	??1?$CDynamicPool@VCLightData@@@@UAE@XZ		; CDynamicPool<CLightData>::~CDynamicPool<CLightData>
PUBLIC	?Delete@?$CDynamicPool@VCLightData@@@@KAXPAVCLightData@@@Z ; CDynamicPool<CLightData>::Delete
PUBLIC	?_Xlength@?$vector@PAVCLightData@@V?$allocator@PAVCLightData@@@std@@@std@@CAXXZ ; std::vector<CLightData *,std::allocator<CLightData *> >::_Xlength
PUBLIC	??$_Emplace_reallocate@ABQAVCLightData@@@?$vector@PAVCLightData@@V?$allocator@PAVCLightData@@@std@@@std@@QAEPAPAVCLightData@@QAPAV2@ABQAV2@@Z ; std::vector<CLightData *,std::allocator<CLightData *> >::_Emplace_reallocate<CLightData * const &>
PUBLIC	??$_Destroy_range@V?$allocator@V?$CTimeEvent@M@@@std@@@std@@YAXPAV?$CTimeEvent@M@@QAV1@AAV?$allocator@V?$CTimeEvent@M@@@0@@Z ; std::_Destroy_range<std::allocator<CTimeEvent<float> > >
PUBLIC	??$_Destroy_range@V?$allocator@PAVCLightData@@@std@@@std@@YAXPAPAVCLightData@@QAPAV1@AAV?$allocator@PAVCLightData@@@0@@Z ; std::_Destroy_range<std::allocator<CLightData *> >
PUBLIC	??$equal_range@V?$_Vector_iterator@V?$_Vector_val@U?$_Simple_types@V?$CTimeEvent@M@@@std@@@std@@@std@@M@std@@YA?AU?$pair@V?$_Vector_iterator@V?$_Vector_val@U?$_Simple_types@V?$CTimeEvent@M@@@std@@@std@@@std@@V12@@0@V?$_Vector_iterator@V?$_Vector_val@U?$_Simple_types@V?$CTimeEvent@M@@@std@@@std@@@0@0ABM@Z ; std::equal_range<std::_Vector_iterator<std::_Vector_val<std::_Simple_types<CTimeEvent<float> > > >,float>
PUBLIC	??$_Const_cast@$$CBV?$CTimeEvent@M@@@std@@YAPAV?$CTimeEvent@M@@PBV1@@Z ; std::_Const_cast<CTimeEvent<float> const >
PUBLIC	??$_Uninitialized_move@PAPAVCLightData@@V?$allocator@PAVCLightData@@@std@@@std@@YAPAPAVCLightData@@QAPAV1@0PAPAV1@AAV?$allocator@PAVCLightData@@@0@@Z ; std::_Uninitialized_move<CLightData * *,std::allocator<CLightData *> >
PUBLIC	??$_Copy_memmove@PAPAVCLightData@@PAPAV1@@std@@YAPAPAVCLightData@@PAPAV1@00@Z ; std::_Copy_memmove<CLightData * *,CLightData * *>
PUBLIC	??$_Refancy@PAV?$CTimeEvent@M@@$0A@@std@@YAPAV?$CTimeEvent@M@@PAV1@@Z ; std::_Refancy<CTimeEvent<float> *,0>
PUBLIC	??_7exception@std@@6B@				; std::exception::`vftable'
PUBLIC	??_C@_0BC@EOODALEL@Unknown?5exception@		; `string'
PUBLIC	??_7bad_alloc@std@@6B@				; std::bad_alloc::`vftable'
PUBLIC	??_7bad_array_new_length@std@@6B@		; std::bad_array_new_length::`vftable'
PUBLIC	??_C@_0BF@KINCDENJ@bad?5array?5new?5length@	; `string'
PUBLIC	__TI3?AVbad_array_new_length@std@@
PUBLIC	__CTA3?AVbad_array_new_length@std@@
PUBLIC	??_R0?AVbad_array_new_length@std@@@8		; std::bad_array_new_length `RTTI Type Descriptor'
PUBLIC	__CT??_R0?AVbad_array_new_length@std@@@8??0bad_array_new_length@std@@QAE@ABV01@@Z12
PUBLIC	??_R0?AVbad_alloc@std@@@8			; std::bad_alloc `RTTI Type Descriptor'
PUBLIC	__CT??_R0?AVbad_alloc@std@@@8??0bad_alloc@std@@QAE@ABV01@@Z12
PUBLIC	??_R0?AVexception@std@@@8			; std::exception `RTTI Type Descriptor'
PUBLIC	__CT??_R0?AVexception@std@@@8??0exception@std@@QAE@ABV01@@Z12
PUBLIC	??_C@_0BA@JFNIOLAK@string?5too?5long@		; `string'
PUBLIC	??_R4exception@std@@6B@				; std::exception::`RTTI Complete Object Locator'
PUBLIC	??_R3exception@std@@8				; std::exception::`RTTI Class Hierarchy Descriptor'
PUBLIC	??_R2exception@std@@8				; std::exception::`RTTI Base Class Array'
PUBLIC	??_R1A@?0A@EA@exception@std@@8			; std::exception::`RTTI Base Class Descriptor at (0,-1,0,64)'
PUBLIC	??_R4bad_alloc@std@@6B@				; std::bad_alloc::`RTTI Complete Object Locator'
PUBLIC	??_R3bad_alloc@std@@8				; std::bad_alloc::`RTTI Class Hierarchy Descriptor'
PUBLIC	??_R2bad_alloc@std@@8				; std::bad_alloc::`RTTI Base Class Array'
PUBLIC	??_R1A@?0A@EA@bad_alloc@std@@8			; std::bad_alloc::`RTTI Base Class Descriptor at (0,-1,0,64)'
PUBLIC	??_R4bad_array_new_length@std@@6B@		; std::bad_array_new_length::`RTTI Complete Object Locator'
PUBLIC	??_R3bad_array_new_length@std@@8		; std::bad_array_new_length::`RTTI Class Hierarchy Descriptor'
PUBLIC	??_R2bad_array_new_length@std@@8		; std::bad_array_new_length::`RTTI Base Class Array'
PUBLIC	??_R1A@?0A@EA@bad_array_new_length@std@@8	; std::bad_array_new_length::`RTTI Base Class Descriptor at (0,-1,0,64)'
PUBLIC	?ms_kPool@CLightData@@2V?$CDynamicPool@VCLightData@@@@A ; CLightData::ms_kPool
PUBLIC	??_7CLightData@@6B@				; CLightData::`vftable'
PUBLIC	??_C@_08LGBPINEC@duration@			; `string'
PUBLIC	??_C@_08NIJNIMBK@loopflag@			; `string'
PUBLIC	??_C@_09HBCOMICA@loopcount@			; `string'
PUBLIC	??_C@_0N@MBJLBHOD@ambientcolor@			; `string'
PUBLIC	??_C@_0N@BELHEGHB@diffusecolor@			; `string'
PUBLIC	??_C@_08BLEPIDIL@maxrange@			; `string'
PUBLIC	??_C@_0N@NKJMABJM@attenuation0@			; `string'
PUBLIC	??_C@_0N@MDIHDANN@attenuation1@			; `string'
PUBLIC	??_C@_0N@OIKKGDBO@attenuation2@			; `string'
PUBLIC	??_C@_0P@CJMOPDJ@timeeventrange@		; `string'
PUBLIC	??_C@_0BA@FOIKENOD@vector?5too?5long@		; `string'
PUBLIC	??_R4CLightData@@6B@				; CLightData::`RTTI Complete Object Locator'
PUBLIC	??_R0?AVCLightData@@@8				; CLightData `RTTI Type Descriptor'
PUBLIC	??_R3CLightData@@8				; CLightData::`RTTI Class Hierarchy Descriptor'
PUBLIC	??_R2CLightData@@8				; CLightData::`RTTI Base Class Array'
PUBLIC	??_R1A@?0A@EA@CLightData@@8			; CLightData::`RTTI Base Class Descriptor at (0,-1,0,64)'
PUBLIC	??_R1A@?0A@EA@CEffectElementBase@@8		; CEffectElementBase::`RTTI Base Class Descriptor at (0,-1,0,64)'
PUBLIC	??_R0?AVCEffectElementBase@@@8			; CEffectElementBase `RTTI Type Descriptor'
PUBLIC	??_R3CEffectElementBase@@8			; CEffectElementBase::`RTTI Class Hierarchy Descriptor'
PUBLIC	??_R2CEffectElementBase@@8			; CEffectElementBase::`RTTI Base Class Array'
EXTRN	??2@YAPAXI@Z:PROC				; operator new
EXTRN	??3@YAXPAXI@Z:PROC				; operator delete
EXTRN	_atexit:PROC
EXTRN	__invalid_parameter_noinfo_noreturn:PROC
EXTRN	___std_exception_copy:PROC
EXTRN	___std_exception_destroy:PROC
EXTRN	??_Eexception@std@@UAEPAXI@Z:PROC		; std::exception::`vector deleting destructor'
EXTRN	??_Ebad_alloc@std@@UAEPAXI@Z:PROC		; std::bad_alloc::`vector deleting destructor'
EXTRN	??_Ebad_array_new_length@std@@UAEPAXI@Z:PROC	; std::bad_array_new_length::`vector deleting destructor'
EXTRN	?_Xlength_error@std@@YAXPBD@Z:PROC		; std::_Xlength_error
EXTRN	?GetTokenBoolean@CTextFileLoader@@QAEHABV?$basic_string@DU?$char_traits@D@std@@V?$allocator@D@2@@std@@PAH@Z:PROC ; CTextFileLoader::GetTokenBoolean
EXTRN	?GetTokenInteger@CTextFileLoader@@QAEHABV?$basic_string@DU?$char_traits@D@std@@V?$allocator@D@2@@std@@PAH@Z:PROC ; CTextFileLoader::GetTokenInteger
EXTRN	?GetTokenFloat@CTextFileLoader@@QAEHABV?$basic_string@DU?$char_traits@D@std@@V?$allocator@D@2@@std@@PAM@Z:PROC ; CTextFileLoader::GetTokenFloat
EXTRN	?GetTokenColor@CTextFileLoader@@QAEHABV?$basic_string@DU?$char_traits@D@std@@V?$allocator@D@2@@std@@PAUD3DXCOLOR@@@Z:PROC ; CTextFileLoader::GetTokenColor
EXTRN	?GetTokenTimeEventFloat@@YAHAAVCTextFileLoader@@PBDPAV?$vector@V?$CTimeEvent@M@@V?$allocator@V?$CTimeEvent@M@@@std@@@std@@@Z:PROC ; GetTokenTimeEventFloat
EXTRN	??0CEffectElementBase@@QAE@XZ:PROC		; CEffectElementBase::CEffectElementBase
EXTRN	??1CEffectElementBase@@UAE@XZ:PROC		; CEffectElementBase::~CEffectElementBase
EXTRN	?Clear@CEffectElementBase@@QAEXXZ:PROC		; CEffectElementBase::Clear
EXTRN	?GetPosition@CEffectElementBase@@QAEXMAAUD3DXVECTOR3@@@Z:PROC ; CEffectElementBase::GetPosition
EXTRN	??_ECLightData@@UAEPAXI@Z:PROC			; CLightData::`vector deleting destructor'
EXTRN	@__security_check_cookie@4:PROC
EXTRN	__CxxThrowException@8:PROC
EXTRN	___CxxFrameHandler3:PROC
EXTRN	_memcpy:PROC
EXTRN	_memmove:PROC
EXTRN	___security_cookie:DWORD
EXTRN	__fltused:DWORD
CRT$XCU	SEGMENT
??ms_kPool$initializer$@CLightData@@2P6AXXZA@@3P6AXXZA DD FLAT:??__E?ms_kPool@CLightData@@2V?$CDynamicPool@VCLightData@@@@A@@YAXXZ ; ??ms_kPool$initializer$@CLightData@@2P6AXXZA@@3P6AXXZA
CRT$XCU	ENDS
;	COMDAT ??_R2CEffectElementBase@@8
rdata$r	SEGMENT
??_R2CEffectElementBase@@8 DD FLAT:??_R1A@?0A@EA@CEffectElementBase@@8 ; CEffectElementBase::`RTTI Base Class Array'
rdata$r	ENDS
;	COMDAT ??_R3CEffectElementBase@@8
rdata$r	SEGMENT
??_R3CEffectElementBase@@8 DD 00H			; CEffectElementBase::`RTTI Class Hierarchy Descriptor'
	DD	00H
	DD	01H
	DD	FLAT:??_R2CEffectElementBase@@8
rdata$r	ENDS
;	COMDAT ??_R0?AVCEffectElementBase@@@8
data$r	SEGMENT
??_R0?AVCEffectElementBase@@@8 DD FLAT:??_7type_info@@6B@ ; CEffectElementBase `RTTI Type Descriptor'
	DD	00H
	DB	'.?AVCEffectElementBase@@', 00H
data$r	ENDS
;	COMDAT ??_R1A@?0A@EA@CEffectElementBase@@8
rdata$r	SEGMENT
??_R1A@?0A@EA@CEffectElementBase@@8 DD FLAT:??_R0?AVCEffectElementBase@@@8 ; CEffectElementBase::`RTTI Base Class Descriptor at (0,-1,0,64)'
	DD	00H
	DD	00H
	DD	0ffffffffH
	DD	00H
	DD	040H
	DD	FLAT:??_R3CEffectElementBase@@8
rdata$r	ENDS
;	COMDAT ??_R1A@?0A@EA@CLightData@@8
rdata$r	SEGMENT
??_R1A@?0A@EA@CLightData@@8 DD FLAT:??_R0?AVCLightData@@@8 ; CLightData::`RTTI Base Class Descriptor at (0,-1,0,64)'
	DD	01H
	DD	00H
	DD	0ffffffffH
	DD	00H
	DD	040H
	DD	FLAT:??_R3CLightData@@8
rdata$r	ENDS
;	COMDAT ??_R2CLightData@@8
rdata$r	SEGMENT
??_R2CLightData@@8 DD FLAT:??_R1A@?0A@EA@CLightData@@8	; CLightData::`RTTI Base Class Array'
	DD	FLAT:??_R1A@?0A@EA@CEffectElementBase@@8
rdata$r	ENDS
;	COMDAT ??_R3CLightData@@8
rdata$r	SEGMENT
??_R3CLightData@@8 DD 00H				; CLightData::`RTTI Class Hierarchy Descriptor'
	DD	00H
	DD	02H
	DD	FLAT:??_R2CLightData@@8
rdata$r	ENDS
;	COMDAT ??_R0?AVCLightData@@@8
data$r	SEGMENT
??_R0?AVCLightData@@@8 DD FLAT:??_7type_info@@6B@	; CLightData `RTTI Type Descriptor'
	DD	00H
	DB	'.?AVCLightData@@', 00H
data$r	ENDS
;	COMDAT ??_R4CLightData@@6B@
rdata$r	SEGMENT
??_R4CLightData@@6B@ DD 00H				; CLightData::`RTTI Complete Object Locator'
	DD	00H
	DD	00H
	DD	FLAT:??_R0?AVCLightData@@@8
	DD	FLAT:??_R3CLightData@@8
rdata$r	ENDS
;	COMDAT ??_C@_0BA@FOIKENOD@vector?5too?5long@
CONST	SEGMENT
??_C@_0BA@FOIKENOD@vector?5too?5long@ DB 'vector too long', 00H ; `string'
CONST	ENDS
;	COMDAT ??_C@_0P@CJMOPDJ@timeeventrange@
CONST	SEGMENT
??_C@_0P@CJMOPDJ@timeeventrange@ DB 'timeeventrange', 00H ; `string'
CONST	ENDS
;	COMDAT ??_C@_0N@OIKKGDBO@attenuation2@
CONST	SEGMENT
??_C@_0N@OIKKGDBO@attenuation2@ DB 'attenuation2', 00H	; `string'
CONST	ENDS
;	COMDAT ??_C@_0N@MDIHDANN@attenuation1@
CONST	SEGMENT
??_C@_0N@MDIHDANN@attenuation1@ DB 'attenuation1', 00H	; `string'
CONST	ENDS
;	COMDAT ??_C@_0N@NKJMABJM@attenuation0@
CONST	SEGMENT
??_C@_0N@NKJMABJM@attenuation0@ DB 'attenuation0', 00H	; `string'
CONST	ENDS
;	COMDAT ??_C@_08BLEPIDIL@maxrange@
CONST	SEGMENT
??_C@_08BLEPIDIL@maxrange@ DB 'maxrange', 00H		; `string'
CONST	ENDS
;	COMDAT ??_C@_0N@BELHEGHB@diffusecolor@
CONST	SEGMENT
??_C@_0N@BELHEGHB@diffusecolor@ DB 'diffusecolor', 00H	; `string'
CONST	ENDS
;	COMDAT ??_C@_0N@MBJLBHOD@ambientcolor@
CONST	SEGMENT
??_C@_0N@MBJLBHOD@ambientcolor@ DB 'ambientcolor', 00H	; `string'
CONST	ENDS
;	COMDAT ??_C@_09HBCOMICA@loopcount@
CONST	SEGMENT
??_C@_09HBCOMICA@loopcount@ DB 'loopcount', 00H		; `string'
CONST	ENDS
;	COMDAT ??_C@_08NIJNIMBK@loopflag@
CONST	SEGMENT
??_C@_08NIJNIMBK@loopflag@ DB 'loopflag', 00H		; `string'
CONST	ENDS
;	COMDAT ??_C@_08LGBPINEC@duration@
CONST	SEGMENT
??_C@_08LGBPINEC@duration@ DB 'duration', 00H		; `string'
CONST	ENDS
;	COMDAT ??_7CLightData@@6B@
CONST	SEGMENT
??_7CLightData@@6B@ DD FLAT:??_R4CLightData@@6B@	; CLightData::`vftable'
	DD	FLAT:??_ECLightData@@UAEPAXI@Z
	DD	FLAT:?OnClear@CLightData@@MAEXXZ
	DD	FLAT:?OnIsData@CLightData@@MAE_NXZ
	DD	FLAT:?OnLoadScript@CLightData@@MAEHAAVCTextFileLoader@@@Z
CONST	ENDS
_DATA	SEGMENT
?ms_kPool@CLightData@@2V?$CDynamicPool@VCLightData@@@@A DD FLAT:??_7?$CDynamicPool@VCLightData@@@@6B@ ; CLightData::ms_kPool
	DD	00H
	DD	00H
	DD	00H
	DD	00H
	DD	00H
	DD	00H
	DD	00H
	DD	00H
_DATA	ENDS
;	COMDAT ??_R1A@?0A@EA@bad_array_new_length@std@@8
rdata$r	SEGMENT
??_R1A@?0A@EA@bad_array_new_length@std@@8 DD FLAT:??_R0?AVbad_array_new_length@std@@@8 ; std::bad_array_new_length::`RTTI Base Class Descriptor at (0,-1,0,64)'
	DD	02H
	DD	00H
	DD	0ffffffffH
	DD	00H
	DD	040H
	DD	FLAT:??_R3bad_array_new_length@std@@8
rdata$r	ENDS
;	COMDAT ??_R2bad_array_new_length@std@@8
rdata$r	SEGMENT
??_R2bad_array_new_length@std@@8 DD FLAT:??_R1A@?0A@EA@bad_array_new_length@std@@8 ; std::bad_array_new_length::`RTTI Base Class Array'
	DD	FLAT:??_R1A@?0A@EA@bad_alloc@std@@8
	DD	FLAT:??_R1A@?0A@EA@exception@std@@8
rdata$r	ENDS
;	COMDAT ??_R3bad_array_new_length@std@@8
rdata$r	SEGMENT
??_R3bad_array_new_length@std@@8 DD 00H			; std::bad_array_new_length::`RTTI Class Hierarchy Descriptor'
	DD	00H
	DD	03H
	DD	FLAT:??_R2bad_array_new_length@std@@8
rdata$r	ENDS
;	COMDAT ??_R4bad_array_new_length@std@@6B@
rdata$r	SEGMENT
??_R4bad_array_new_length@std@@6B@ DD 00H		; std::bad_array_new_length::`RTTI Complete Object Locator'
	DD	00H
	DD	00H
	DD	FLAT:??_R0?AVbad_array_new_length@std@@@8
	DD	FLAT:??_R3bad_array_new_length@std@@8
rdata$r	ENDS
;	COMDAT ??_R1A@?0A@EA@bad_alloc@std@@8
rdata$r	SEGMENT
??_R1A@?0A@EA@bad_alloc@std@@8 DD FLAT:??_R0?AVbad_alloc@std@@@8 ; std::bad_alloc::`RTTI Base Class Descriptor at (0,-1,0,64)'
	DD	01H
	DD	00H
	DD	0ffffffffH
	DD	00H
	DD	040H
	DD	FLAT:??_R3bad_alloc@std@@8
rdata$r	ENDS
;	COMDAT ??_R2bad_alloc@std@@8
rdata$r	SEGMENT
??_R2bad_alloc@std@@8 DD FLAT:??_R1A@?0A@EA@bad_alloc@std@@8 ; std::bad_alloc::`RTTI Base Class Array'
	DD	FLAT:??_R1A@?0A@EA@exception@std@@8
rdata$r	ENDS
;	COMDAT ??_R3bad_alloc@std@@8
rdata$r	SEGMENT
??_R3bad_alloc@std@@8 DD 00H				; std::bad_alloc::`RTTI Class Hierarchy Descriptor'
	DD	00H
	DD	02H
	DD	FLAT:??_R2bad_alloc@std@@8
rdata$r	ENDS
;	COMDAT ??_R4bad_alloc@std@@6B@
rdata$r	SEGMENT
??_R4bad_alloc@std@@6B@ DD 00H				; std::bad_alloc::`RTTI Complete Object Locator'
	DD	00H
	DD	00H
	DD	FLAT:??_R0?AVbad_alloc@std@@@8
	DD	FLAT:??_R3bad_alloc@std@@8
rdata$r	ENDS
;	COMDAT ??_R1A@?0A@EA@exception@std@@8
rdata$r	SEGMENT
??_R1A@?0A@EA@exception@std@@8 DD FLAT:??_R0?AVexception@std@@@8 ; std::exception::`RTTI Base Class Descriptor at (0,-1,0,64)'
	DD	00H
	DD	00H
	DD	0ffffffffH
	DD	00H
	DD	040H
	DD	FLAT:??_R3exception@std@@8
rdata$r	ENDS
;	COMDAT ??_R2exception@std@@8
rdata$r	SEGMENT
??_R2exception@std@@8 DD FLAT:??_R1A@?0A@EA@exception@std@@8 ; std::exception::`RTTI Base Class Array'
rdata$r	ENDS
;	COMDAT ??_R3exception@std@@8
rdata$r	SEGMENT
??_R3exception@std@@8 DD 00H				; std::exception::`RTTI Class Hierarchy Descriptor'
	DD	00H
	DD	01H
	DD	FLAT:??_R2exception@std@@8
rdata$r	ENDS
;	COMDAT ??_R4exception@std@@6B@
rdata$r	SEGMENT
??_R4exception@std@@6B@ DD 00H				; std::exception::`RTTI Complete Object Locator'
	DD	00H
	DD	00H
	DD	FLAT:??_R0?AVexception@std@@@8
	DD	FLAT:??_R3exception@std@@8
rdata$r	ENDS
;	COMDAT ??_C@_0BA@JFNIOLAK@string?5too?5long@
CONST	SEGMENT
??_C@_0BA@JFNIOLAK@string?5too?5long@ DB 'string too long', 00H ; `string'
CONST	ENDS
;	COMDAT __CT??_R0?AVexception@std@@@8??0exception@std@@QAE@ABV01@@Z12
xdata$x	SEGMENT
__CT??_R0?AVexception@std@@@8??0exception@std@@QAE@ABV01@@Z12 DD 00H
	DD	FLAT:??_R0?AVexception@std@@@8
	DD	00H
	DD	0ffffffffH
	ORG $+4
	DD	0cH
	DD	FLAT:??0exception@std@@QAE@ABV01@@Z
xdata$x	ENDS
;	COMDAT ??_R0?AVexception@std@@@8
data$r	SEGMENT
??_R0?AVexception@std@@@8 DD FLAT:??_7type_info@@6B@	; std::exception `RTTI Type Descriptor'
	DD	00H
	DB	'.?AVexception@std@@', 00H
data$r	ENDS
;	COMDAT __CT??_R0?AVbad_alloc@std@@@8??0bad_alloc@std@@QAE@ABV01@@Z12
xdata$x	SEGMENT
__CT??_R0?AVbad_alloc@std@@@8??0bad_alloc@std@@QAE@ABV01@@Z12 DD 010H
	DD	FLAT:??_R0?AVbad_alloc@std@@@8
	DD	00H
	DD	0ffffffffH
	ORG $+4
	DD	0cH
	DD	FLAT:??0bad_alloc@std@@QAE@ABV01@@Z
xdata$x	ENDS
;	COMDAT ??_R0?AVbad_alloc@std@@@8
data$r	SEGMENT
??_R0?AVbad_alloc@std@@@8 DD FLAT:??_7type_info@@6B@	; std::bad_alloc `RTTI Type Descriptor'
	DD	00H
	DB	'.?AVbad_alloc@std@@', 00H
data$r	ENDS
;	COMDAT __CT??_R0?AVbad_array_new_length@std@@@8??0bad_array_new_length@std@@QAE@ABV01@@Z12
xdata$x	SEGMENT
__CT??_R0?AVbad_array_new_length@std@@@8??0bad_array_new_length@std@@QAE@ABV01@@Z12 DD 00H
	DD	FLAT:??_R0?AVbad_array_new_length@std@@@8
	DD	00H
	DD	0ffffffffH
	ORG $+4
	DD	0cH
	DD	FLAT:??0bad_array_new_length@std@@QAE@ABV01@@Z
xdata$x	ENDS
;	COMDAT ??_R0?AVbad_array_new_length@std@@@8
data$r	SEGMENT
??_R0?AVbad_array_new_length@std@@@8 DD FLAT:??_7type_info@@6B@ ; std::bad_array_new_length `RTTI Type Descriptor'
	DD	00H
	DB	'.?AVbad_array_new_length@std@@', 00H
data$r	ENDS
;	COMDAT __CTA3?AVbad_array_new_length@std@@
xdata$x	SEGMENT
__CTA3?AVbad_array_new_length@std@@ DD 03H
	DD	FLAT:__CT??_R0?AVbad_array_new_length@std@@@8??0bad_array_new_length@std@@QAE@ABV01@@Z12
	DD	FLAT:__CT??_R0?AVbad_alloc@std@@@8??0bad_alloc@std@@QAE@ABV01@@Z12
	DD	FLAT:__CT??_R0?AVexception@std@@@8??0exception@std@@QAE@ABV01@@Z12
xdata$x	ENDS
;	COMDAT __TI3?AVbad_array_new_length@std@@
xdata$x	SEGMENT
__TI3?AVbad_array_new_length@std@@ DD 00H
	DD	FLAT:??1bad_array_new_length@std@@UAE@XZ
	DD	00H
	DD	FLAT:__CTA3?AVbad_array_new_length@std@@
xdata$x	ENDS
;	COMDAT ??_C@_0BF@KINCDENJ@bad?5array?5new?5length@
CONST	SEGMENT
??_C@_0BF@KINCDENJ@bad?5array?5new?5length@ DB 'bad array new length', 00H ; `string'
CONST	ENDS
;	COMDAT ??_7bad_array_new_length@std@@6B@
CONST	SEGMENT
??_7bad_array_new_length@std@@6B@ DD FLAT:??_R4bad_array_new_length@std@@6B@ ; std::bad_array_new_length::`vftable'
	DD	FLAT:??_Ebad_array_new_length@std@@UAEPAXI@Z
	DD	FLAT:?what@exception@std@@UBEPBDXZ
CONST	ENDS
;	COMDAT ??_7bad_alloc@std@@6B@
CONST	SEGMENT
??_7bad_alloc@std@@6B@ DD FLAT:??_R4bad_alloc@std@@6B@	; std::bad_alloc::`vftable'
	DD	FLAT:??_Ebad_alloc@std@@UAEPAXI@Z
	DD	FLAT:?what@exception@std@@UBEPBDXZ
CONST	ENDS
;	COMDAT ??_C@_0BC@EOODALEL@Unknown?5exception@
CONST	SEGMENT
??_C@_0BC@EOODALEL@Unknown?5exception@ DB 'Unknown exception', 00H ; `string'
CONST	ENDS
;	COMDAT ??_7exception@std@@6B@
CONST	SEGMENT
??_7exception@std@@6B@ DD FLAT:??_R4exception@std@@6B@	; std::exception::`vftable'
	DD	FLAT:??_Eexception@std@@UAEPAXI@Z
	DD	FLAT:?what@exception@std@@UBEPBDXZ
CONST	ENDS
;	COMDAT xdata$x
xdata$x	SEGMENT
__unwindtable$?Alloc@?$CDynamicPool@VCLightData@@@@QAEPAVCLightData@@XZ DD 0ffffffffH
	DD	FLAT:__unwindfunclet$?Alloc@?$CDynamicPool@VCLightData@@@@QAEPAVCLightData@@XZ$0
__ehfuncinfo$?Alloc@?$CDynamicPool@VCLightData@@@@QAEPAVCLightData@@XZ DD 019930522H
	DD	01H
	DD	FLAT:__unwindtable$?Alloc@?$CDynamicPool@VCLightData@@@@QAEPAVCLightData@@XZ
	DD	2 DUP(00H)
	DD	2 DUP(00H)
	DD	00H
	DD	01H
xdata$x	ENDS
;	COMDAT xdata$x
xdata$x	SEGMENT
__unwindtable$?New@CLightData@@SAPAV1@XZ DD 0ffffffffH
	DD	FLAT:__unwindfunclet$?New@CLightData@@SAPAV1@XZ$0
__ehfuncinfo$?New@CLightData@@SAPAV1@XZ DD 019930522H
	DD	01H
	DD	FLAT:__unwindtable$?New@CLightData@@SAPAV1@XZ
	DD	2 DUP(00H)
	DD	2 DUP(00H)
	DD	00H
	DD	01H
xdata$x	ENDS
;	COMDAT xdata$x
xdata$x	SEGMENT
__ehfuncinfo$?OnLoadScript@CLightData@@MAEHAAVCTextFileLoader@@@Z DD 019930522H
	DD	09H
	DD	FLAT:__unwindtable$?OnLoadScript@CLightData@@MAEHAAVCTextFileLoader@@@Z
	DD	2 DUP(00H)
	DD	2 DUP(00H)
	DD	00H
	DD	01H
__unwindtable$?OnLoadScript@CLightData@@MAEHAAVCTextFileLoader@@@Z DD 0ffffffffH
	DD	FLAT:__unwindfunclet$?OnLoadScript@CLightData@@MAEHAAVCTextFileLoader@@@Z$0
	DD	0ffffffffH
	DD	FLAT:__unwindfunclet$?OnLoadScript@CLightData@@MAEHAAVCTextFileLoader@@@Z$1
	DD	0ffffffffH
	DD	FLAT:__unwindfunclet$?OnLoadScript@CLightData@@MAEHAAVCTextFileLoader@@@Z$2
	DD	0ffffffffH
	DD	FLAT:__unwindfunclet$?OnLoadScript@CLightData@@MAEHAAVCTextFileLoader@@@Z$3
	DD	0ffffffffH
	DD	FLAT:__unwindfunclet$?OnLoadScript@CLightData@@MAEHAAVCTextFileLoader@@@Z$4
	DD	0ffffffffH
	DD	FLAT:__unwindfunclet$?OnLoadScript@CLightData@@MAEHAAVCTextFileLoader@@@Z$5
	DD	0ffffffffH
	DD	FLAT:__unwindfunclet$?OnLoadScript@CLightData@@MAEHAAVCTextFileLoader@@@Z$6
	DD	0ffffffffH
	DD	FLAT:__unwindfunclet$?OnLoadScript@CLightData@@MAEHAAVCTextFileLoader@@@Z$7
	DD	0ffffffffH
	DD	FLAT:__unwindfunclet$?OnLoadScript@CLightData@@MAEHAAVCTextFileLoader@@@Z$8
xdata$x	ENDS
;	COMDAT xdata$x
xdata$x	SEGMENT
__unwindtable$??0CLightData@@QAE@XZ DD 0ffffffffH
	DD	FLAT:__unwindfunclet$??0CLightData@@QAE@XZ$0
	DD	00H
	DD	FLAT:__unwindfunclet$??0CLightData@@QAE@XZ$1
__ehfuncinfo$??0CLightData@@QAE@XZ DD 019930522H
	DD	02H
	DD	FLAT:__unwindtable$??0CLightData@@QAE@XZ
	DD	2 DUP(00H)
	DD	2 DUP(00H)
	DD	00H
	DD	01H
xdata$x	ENDS
; Function compile flags: /Ogtp
; File C:\Program Files (x86)\Microsoft Visual Studio\2019\Community\VC\Tools\MSVC\14.27.29110\include\xmemory
;	COMDAT ??$_Refancy@PAV?$CTimeEvent@M@@$0A@@std@@YAPAV?$CTimeEvent@M@@PAV1@@Z
_TEXT	SEGMENT
__Ptr$ = 8						; size = 4
??$_Refancy@PAV?$CTimeEvent@M@@$0A@@std@@YAPAV?$CTimeEvent@M@@PAV1@@Z PROC ; std::_Refancy<CTimeEvent<float> *,0>, COMDAT

; 261  : _Pointer _Refancy(_Pointer _Ptr) noexcept {

  00000	55		 push	 ebp
  00001	8b ec		 mov	 ebp, esp

; 262  :     return _Ptr;

  00003	8b 45 08	 mov	 eax, DWORD PTR __Ptr$[ebp]

; 263  : }

  00006	5d		 pop	 ebp
  00007	c3		 ret	 0
??$_Refancy@PAV?$CTimeEvent@M@@$0A@@std@@YAPAV?$CTimeEvent@M@@PAV1@@Z ENDP ; std::_Refancy<CTimeEvent<float> *,0>
_TEXT	ENDS
; Function compile flags: /Ogtp
; File C:\Program Files (x86)\Microsoft Visual Studio\2019\Community\VC\Tools\MSVC\14.27.29110\include\xutility
;	COMDAT ??$_Copy_memmove@PAPAVCLightData@@PAPAV1@@std@@YAPAPAVCLightData@@PAPAV1@00@Z
_TEXT	SEGMENT
__First$ = 8						; size = 4
__Last$ = 12						; size = 4
__Dest$ = 16						; size = 4
??$_Copy_memmove@PAPAVCLightData@@PAPAV1@@std@@YAPAPAVCLightData@@PAPAV1@00@Z PROC ; std::_Copy_memmove<CLightData * *,CLightData * *>, COMDAT

; 4113 : _OutIt _Copy_memmove(_InIt _First, _InIt _Last, _OutIt _Dest) {

  00000	55		 push	 ebp
  00001	8b ec		 mov	 ebp, esp

; 4114 :     const char* const _First_ch = const_cast<const char*>(reinterpret_cast<const volatile char*>(_First));
; 4115 :     const char* const _Last_ch  = const_cast<const char*>(reinterpret_cast<const volatile char*>(_Last));
; 4116 :     char* const _Dest_ch        = const_cast<char*>(reinterpret_cast<volatile char*>(_Dest));
; 4117 :     const auto _Count           = static_cast<size_t>(_Last_ch - _First_ch);

  00003	8b 45 08	 mov	 eax, DWORD PTR __First$[ebp]
  00006	56		 push	 esi

; 4118 :     _CSTD memmove(_Dest_ch, _First_ch, _Count);

  00007	8b 75 10	 mov	 esi, DWORD PTR __Dest$[ebp]
  0000a	57		 push	 edi
  0000b	8b 7d 0c	 mov	 edi, DWORD PTR __Last$[ebp]
  0000e	2b f8		 sub	 edi, eax
  00010	57		 push	 edi
  00011	50		 push	 eax
  00012	56		 push	 esi
  00013	e8 00 00 00 00	 call	 _memmove
  00018	83 c4 0c	 add	 esp, 12			; 0000000cH

; 4119 :     return reinterpret_cast<_OutIt>(_Dest_ch + _Count);

  0001b	8d 04 37	 lea	 eax, DWORD PTR [edi+esi]
  0001e	5f		 pop	 edi
  0001f	5e		 pop	 esi

; 4120 : }

  00020	5d		 pop	 ebp
  00021	c3		 ret	 0
??$_Copy_memmove@PAPAVCLightData@@PAPAV1@@std@@YAPAPAVCLightData@@PAPAV1@00@Z ENDP ; std::_Copy_memmove<CLightData * *,CLightData * *>
_TEXT	ENDS
; Function compile flags: /Ogtp
; File C:\Program Files (x86)\Microsoft Visual Studio\2019\Community\VC\Tools\MSVC\14.27.29110\include\xmemory
;	COMDAT ??$_Uninitialized_move@PAPAVCLightData@@V?$allocator@PAVCLightData@@@std@@@std@@YAPAPAVCLightData@@QAPAV1@0PAPAV1@AAV?$allocator@PAVCLightData@@@0@@Z
_TEXT	SEGMENT
__First$ = 8						; size = 4
__Last$ = 12						; size = 4
__Dest$ = 16						; size = 4
__Al$ = 20						; size = 4
??$_Uninitialized_move@PAPAVCLightData@@V?$allocator@PAVCLightData@@@std@@@std@@YAPAPAVCLightData@@QAPAV1@0PAPAV1@AAV?$allocator@PAVCLightData@@@0@@Z PROC ; std::_Uninitialized_move<CLightData * *,std::allocator<CLightData *> >, COMDAT

; 1647 :     const _InIt _First, const _InIt _Last, _Alloc_ptr_t<_Alloc> _Dest, _Alloc& _Al) {

  00000	55		 push	 ebp
  00001	8b ec		 mov	 ebp, esp
  00003	53		 push	 ebx

; 1648 :     // move [_First, _Last) to raw _Dest, using _Al
; 1649 :     // note: only called internally from elsewhere in the STL
; 1650 :     using _Ptrval     = typename _Alloc::value_type*;
; 1651 :     auto _UFirst      = _Get_unwrapped(_First);
; 1652 :     const auto _ULast = _Get_unwrapped(_Last);
; 1653 :     if constexpr (conjunction_v<bool_constant<_Ptr_move_cat<decltype(_UFirst), _Ptrval>::_Really_trivial>,
; 1654 :                       _Uses_default_construct<_Alloc, _Ptrval, decltype(_STD move(*_UFirst))>>) {
; 1655 :         _Copy_memmove(_UFirst, _ULast, _Unfancy(_Dest));

  00004	8b 5d 10	 mov	 ebx, DWORD PTR __Dest$[ebp]
  00007	57		 push	 edi
  00008	8b 7d 0c	 mov	 edi, DWORD PTR __Last$[ebp]
  0000b	53		 push	 ebx
  0000c	57		 push	 edi
  0000d	ff 75 08	 push	 DWORD PTR __First$[ebp]
  00010	e8 00 00 00 00	 call	 ??$_Copy_memmove@PAPAVCLightData@@PAPAV1@@std@@YAPAPAVCLightData@@PAPAV1@00@Z ; std::_Copy_memmove<CLightData * *,CLightData * *>

; 1656 :         return _Dest + (_ULast - _UFirst);

  00015	2b 7d 08	 sub	 edi, DWORD PTR __First$[ebp]
  00018	83 c4 0c	 add	 esp, 12			; 0000000cH
  0001b	c1 ff 02	 sar	 edi, 2
  0001e	8d 04 bb	 lea	 eax, DWORD PTR [ebx+edi*4]
  00021	5f		 pop	 edi
  00022	5b		 pop	 ebx

; 1657 :     } else {
; 1658 :         _Uninitialized_backout_al<_Alloc> _Backout{_Dest, _Al};
; 1659 :         for (; _UFirst != _ULast; ++_UFirst) {
; 1660 :             _Backout._Emplace_back(_STD move(*_UFirst));
; 1661 :         }
; 1662 : 
; 1663 :         return _Backout._Release();
; 1664 :     }
; 1665 : }

  00023	5d		 pop	 ebp
  00024	c3		 ret	 0
??$_Uninitialized_move@PAPAVCLightData@@V?$allocator@PAVCLightData@@@std@@@std@@YAPAPAVCLightData@@QAPAV1@0PAPAV1@AAV?$allocator@PAVCLightData@@@0@@Z ENDP ; std::_Uninitialized_move<CLightData * *,std::allocator<CLightData *> >
_TEXT	ENDS
; Function compile flags: /Ogtp
; File C:\Program Files (x86)\Microsoft Visual Studio\2019\Community\VC\Tools\MSVC\14.27.29110\include\xmemory
;	COMDAT ??$_Const_cast@$$CBV?$CTimeEvent@M@@@std@@YAPAV?$CTimeEvent@M@@PBV1@@Z
_TEXT	SEGMENT
__Ptr$ = 8						; size = 4
??$_Const_cast@$$CBV?$CTimeEvent@M@@@std@@YAPAV?$CTimeEvent@M@@PBV1@@Z PROC ; std::_Const_cast<CTimeEvent<float> const >, COMDAT

; 282  : auto _Const_cast(_Ty* _Ptr) noexcept {

  00000	55		 push	 ebp
  00001	8b ec		 mov	 ebp, esp

; 283  :     return const_cast<remove_const_t<_Ty>*>(_Ptr);

  00003	8b 45 08	 mov	 eax, DWORD PTR __Ptr$[ebp]

; 284  : }

  00006	5d		 pop	 ebp
  00007	c3		 ret	 0
??$_Const_cast@$$CBV?$CTimeEvent@M@@@std@@YAPAV?$CTimeEvent@M@@PBV1@@Z ENDP ; std::_Const_cast<CTimeEvent<float> const >
_TEXT	ENDS
; Function compile flags: /Ogtp
; File C:\Program Files (x86)\Microsoft Visual Studio\2019\Community\VC\Tools\MSVC\14.27.29110\include\algorithm
; File C:\Program Files (x86)\Microsoft Visual Studio\2019\Community\VC\Tools\MSVC\14.27.29110\include\xutility
; File C:\Program Files (x86)\Microsoft Visual Studio\2019\Community\VC\Tools\MSVC\14.27.29110\include\algorithm
; File C:\Program Files (x86)\Microsoft Visual Studio\2019\Community\VC\Tools\MSVC\14.27.29110\include\xutility
; File C:\Program Files (x86)\Microsoft Visual Studio\2019\Community\VC\Tools\MSVC\14.27.29110\include\algorithm
; File C:\DS Project\DS Files\Source\ClientSource\Client\EffectLib\Type.h
; File C:\Program Files (x86)\Microsoft Visual Studio\2019\Community\VC\Tools\MSVC\14.27.29110\include\algorithm
; File C:\DS Project\DS Files\Source\ClientSource\Client\EffectLib\Type.h
; File C:\Program Files (x86)\Microsoft Visual Studio\2019\Community\VC\Tools\MSVC\14.27.29110\include\xutility
; File C:\DS Project\DS Files\Source\ClientSource\Client\EffectLib\Type.h
; File C:\Program Files (x86)\Microsoft Visual Studio\2019\Community\VC\Tools\MSVC\14.27.29110\include\xutility
; File C:\Program Files (x86)\Microsoft Visual Studio\2019\Community\VC\Tools\MSVC\14.27.29110\include\algorithm
; File C:\DS Project\DS Files\Source\ClientSource\Client\EffectLib\Type.h
; File C:\Program Files (x86)\Microsoft Visual Studio\2019\Community\VC\Tools\MSVC\14.27.29110\include\algorithm
; File C:\Program Files (x86)\Microsoft Visual Studio\2019\Community\VC\Tools\MSVC\14.27.29110\include\vector
; File C:\Program Files (x86)\Microsoft Visual Studio\2019\Community\VC\Tools\MSVC\14.27.29110\include\utility
; File C:\Program Files (x86)\Microsoft Visual Studio\2019\Community\VC\Tools\MSVC\14.27.29110\include\algorithm
; File C:\Program Files (x86)\Microsoft Visual Studio\2019\Community\VC\Tools\MSVC\14.27.29110\include\xutility
; File C:\DS Project\DS Files\Source\ClientSource\Client\EffectLib\Type.h
; File C:\Program Files (x86)\Microsoft Visual Studio\2019\Community\VC\Tools\MSVC\14.27.29110\include\xutility
; File C:\Program Files (x86)\Microsoft Visual Studio\2019\Community\VC\Tools\MSVC\14.27.29110\include\algorithm
; File C:\Program Files (x86)\Microsoft Visual Studio\2019\Community\VC\Tools\MSVC\14.27.29110\include\xutility
; File C:\Program Files (x86)\Microsoft Visual Studio\2019\Community\VC\Tools\MSVC\14.27.29110\include\algorithm
; File C:\Program Files (x86)\Microsoft Visual Studio\2019\Community\VC\Tools\MSVC\14.27.29110\include\xutility
; File C:\Program Files (x86)\Microsoft Visual Studio\2019\Community\VC\Tools\MSVC\14.27.29110\include\algorithm
; File C:\DS Project\DS Files\Source\ClientSource\Client\EffectLib\Type.h
; File C:\Program Files (x86)\Microsoft Visual Studio\2019\Community\VC\Tools\MSVC\14.27.29110\include\xutility
; File C:\DS Project\DS Files\Source\ClientSource\Client\EffectLib\Type.h
; File C:\Program Files (x86)\Microsoft Visual Studio\2019\Community\VC\Tools\MSVC\14.27.29110\include\algorithm
; File C:\Program Files (x86)\Microsoft Visual Studio\2019\Community\VC\Tools\MSVC\14.27.29110\include\vector
; File C:\Program Files (x86)\Microsoft Visual Studio\2019\Community\VC\Tools\MSVC\14.27.29110\include\algorithm
;	COMDAT ??$equal_range@V?$_Vector_iterator@V?$_Vector_val@U?$_Simple_types@V?$CTimeEvent@M@@@std@@@std@@@std@@M@std@@YA?AU?$pair@V?$_Vector_iterator@V?$_Vector_val@U?$_Simple_types@V?$CTimeEvent@M@@@std@@@std@@@std@@V12@@0@V?$_Vector_iterator@V?$_Vector_val@U?$_Simple_types@V?$CTimeEvent@M@@@std@@@std@@@0@0ABM@Z
_TEXT	SEGMENT
__UMid$1$ = -8						; size = 4
$T1 = -4						; size = 4
___$ReturnUdt$ = 8					; size = 4
__First$ = 12						; size = 4
__Last$ = 16						; size = 4
__Val$ = 20						; size = 4
??$equal_range@V?$_Vector_iterator@V?$_Vector_val@U?$_Simple_types@V?$CTimeEvent@M@@@std@@@std@@@std@@M@std@@YA?AU?$pair@V?$_Vector_iterator@V?$_Vector_val@U?$_Simple_types@V?$CTimeEvent@M@@@std@@@std@@@std@@V12@@0@V?$_Vector_iterator@V?$_Vector_val@U?$_Simple_types@V?$CTimeEvent@M@@@std@@@std@@@0@0ABM@Z PROC ; std::equal_range<std::_Vector_iterator<std::_Vector_val<std::_Simple_types<CTimeEvent<float> > > >,float>, COMDAT

; 3601 : _NODISCARD _CONSTEXPR20 pair<_FwdIt, _FwdIt> equal_range(_FwdIt _First, _FwdIt _Last, const _Ty& _Val) {

  00000	55		 push	 ebp
  00001	8b ec		 mov	 ebp, esp
; File C:\Program Files (x86)\Microsoft Visual Studio\2019\Community\VC\Tools\MSVC\14.27.29110\include\xutility

; 1724 :         return _Last - _First; // assume the iterator will do debug checking

  00003	8b 55 10	 mov	 edx, DWORD PTR __Last$[ebp]
; File C:\Program Files (x86)\Microsoft Visual Studio\2019\Community\VC\Tools\MSVC\14.27.29110\include\algorithm

; 3601 : _NODISCARD _CONSTEXPR20 pair<_FwdIt, _FwdIt> equal_range(_FwdIt _First, _FwdIt _Last, const _Ty& _Val) {

  00006	83 ec 08	 sub	 esp, 8
  00009	53		 push	 ebx

; 3567 :     auto _UFirst      = _Get_unwrapped(_First);

  0000a	8b 5d 0c	 mov	 ebx, DWORD PTR __First$[ebp]
; File C:\Program Files (x86)\Microsoft Visual Studio\2019\Community\VC\Tools\MSVC\14.27.29110\include\xutility

; 1724 :         return _Last - _First; // assume the iterator will do debug checking

  0000d	2b d3		 sub	 edx, ebx
  0000f	c1 fa 03	 sar	 edx, 3
; File C:\Program Files (x86)\Microsoft Visual Studio\2019\Community\VC\Tools\MSVC\14.27.29110\include\algorithm

; 3601 : _NODISCARD _CONSTEXPR20 pair<_FwdIt, _FwdIt> equal_range(_FwdIt _First, _FwdIt _Last, const _Ty& _Val) {

  00012	56		 push	 esi
  00013	57		 push	 edi

; 3574 :         if (_Count <= 0) {

  00014	85 d2		 test	 edx, edx
  00016	7e 33		 jle	 SHORT $LN82@equal_rang
; File C:\DS Project\DS Files\Source\ClientSource\Client\EffectLib\Type.h

; 192  : 	return lhs.m_fTime < rhs;

  00018	8b 45 14	 mov	 eax, DWORD PTR __Val$[ebp]
  0001b	f3 0f 10 08	 movss	 xmm1, DWORD PTR [eax]
  0001f	90		 npad	 1
$LL4@equal_rang:
; File C:\Program Files (x86)\Microsoft Visual Studio\2019\Community\VC\Tools\MSVC\14.27.29110\include\algorithm

; 3580 :         _Diff _Count2    = _Count / 2;

  00020	8b ca		 mov	 ecx, edx
  00022	d1 e9		 shr	 ecx, 1
; File C:\DS Project\DS Files\Source\ClientSource\Client\EffectLib\Type.h

; 192  : 	return lhs.m_fTime < rhs;

  00024	f3 0f 10 04 cb	 movss	 xmm0, DWORD PTR [ebx+ecx*8]
; File C:\Program Files (x86)\Microsoft Visual Studio\2019\Community\VC\Tools\MSVC\14.27.29110\include\xutility

; 1644 :         _Where += _Off;

  00029	8d 04 cb	 lea	 eax, DWORD PTR [ebx+ecx*8]
; File C:\DS Project\DS Files\Source\ClientSource\Client\EffectLib\Type.h

; 192  : 	return lhs.m_fTime < rhs;

  0002c	0f 2f c8	 comiss	 xmm1, xmm0
; File C:\Program Files (x86)\Microsoft Visual Studio\2019\Community\VC\Tools\MSVC\14.27.29110\include\xutility

; 1644 :         _Where += _Off;

  0002f	89 45 f8	 mov	 DWORD PTR __UMid$1$[ebp], eax
; File C:\Program Files (x86)\Microsoft Visual Studio\2019\Community\VC\Tools\MSVC\14.27.29110\include\algorithm

; 3582 :         if (_DEBUG_LT_PRED(_Pred, *_UMid, _Val)) { // range begins above _UMid, loop

  00032	76 0c		 jbe	 SHORT $LN8@equal_rang

; 3583 :             _UFirst = _Next_iter(_UMid);

  00034	8d 58 08	 lea	 ebx, DWORD PTR [eax+8]

; 3584 :             _Count -= _Count2 + 1;

  00037	83 c8 ff	 or	 eax, -1
  0003a	2b c1		 sub	 eax, ecx
  0003c	03 d0		 add	 edx, eax

; 3585 :         } else if (_Pred(_Val, *_UMid)) {

  0003e	eb 07		 jmp	 SHORT $LN11@equal_rang
$LN8@equal_rang:
; File C:\DS Project\DS Files\Source\ClientSource\Client\EffectLib\Type.h

; 198  : 	return lhs < rhs.m_fTime;

  00040	0f 2f c1	 comiss	 xmm0, xmm1
; File C:\Program Files (x86)\Microsoft Visual Studio\2019\Community\VC\Tools\MSVC\14.27.29110\include\algorithm

; 3585 :         } else if (_Pred(_Val, *_UMid)) {

  00043	76 2a		 jbe	 SHORT $LN10@equal_rang

; 3586 :             _Count = _Count2; // range in first half, loop

  00045	8b d1		 mov	 edx, ecx
$LN11@equal_rang:

; 3568 :     const auto _ULast = _Get_unwrapped(_Last);
; 3569 : 
; 3570 :     using _Diff  = _Iter_diff_t<_FwdIt>;
; 3571 :     _Diff _Count = _STD distance(_UFirst, _ULast);
; 3572 : 
; 3573 :     for (;;) { // divide and conquer, check midpoint
; 3574 :         if (_Count <= 0) {

  00047	85 d2		 test	 edx, edx
  00049	7f d5		 jg	 SHORT $LL4@equal_rang
$LN82@equal_rang:
; File C:\Program Files (x86)\Microsoft Visual Studio\2019\Community\VC\Tools\MSVC\14.27.29110\include\vector

; 195  :         _Ptr = _Refancy<_Tptr>(const_cast<value_type*>(_It));

  0004b	8b c3		 mov	 eax, ebx
  0004d	8b fb		 mov	 edi, ebx
$LN5@equal_rang:
; File C:\Program Files (x86)\Microsoft Visual Studio\2019\Community\VC\Tools\MSVC\14.27.29110\include\utility

; 192  :         : first(_STD forward<_Other1>(_Val1)), second(_STD forward<_Other2>(_Val2)) {}

  0004f	50		 push	 eax
  00050	e8 00 00 00 00	 call	 ??$_Refancy@PAV?$CTimeEvent@M@@$0A@@std@@YAPAV?$CTimeEvent@M@@PAV1@@Z ; std::_Refancy<CTimeEvent<float> *,0>
  00055	8b 75 08	 mov	 esi, DWORD PTR ___$ReturnUdt$[ebp]
  00058	57		 push	 edi
  00059	89 06		 mov	 DWORD PTR [esi], eax
  0005b	e8 00 00 00 00	 call	 ??$_Refancy@PAV?$CTimeEvent@M@@$0A@@std@@YAPAV?$CTimeEvent@M@@PAV1@@Z ; std::_Refancy<CTimeEvent<float> *,0>
  00060	83 c4 08	 add	 esp, 8
  00063	89 46 04	 mov	 DWORD PTR [esi+4], eax
; File C:\Program Files (x86)\Microsoft Visual Studio\2019\Community\VC\Tools\MSVC\14.27.29110\include\algorithm

; 3603 :     return _STD equal_range(_First, _Last, _Val, less<>());

  00066	8b c6		 mov	 eax, esi
  00068	5f		 pop	 edi
  00069	5e		 pop	 esi
  0006a	5b		 pop	 ebx

; 3604 : }

  0006b	8b e5		 mov	 esp, ebp
  0006d	5d		 pop	 ebp
  0006e	c3		 ret	 0
$LN10@equal_rang:
; File C:\Program Files (x86)\Microsoft Visual Studio\2019\Community\VC\Tools\MSVC\14.27.29110\include\xutility

; 5681 :     auto _UFirst                = _Get_unwrapped(_First);

  0006f	8b fb		 mov	 edi, ebx
  00071	89 7d fc	 mov	 DWORD PTR $T1[ebp], edi

; 5682 :     _Iter_diff_t<_FwdIt> _Count = _STD distance(_UFirst, _Get_unwrapped(_Last));
; 5683 : 
; 5684 :     while (0 < _Count) { // divide and conquer, find half that contains answer

  00074	85 c9		 test	 ecx, ecx
  00076	74 25		 je	 SHORT $LN37@equal_rang
$LL36@equal_rang:

; 5685 :         const _Iter_diff_t<_FwdIt> _Count2 = _Count / 2;

  00078	8b f1		 mov	 esi, ecx
  0007a	d1 ee		 shr	 esi, 1
; File C:\DS Project\DS Files\Source\ClientSource\Client\EffectLib\Type.h

; 192  : 	return lhs.m_fTime < rhs;

  0007c	0f 2f 0c f7	 comiss	 xmm1, DWORD PTR [edi+esi*8]
; File C:\Program Files (x86)\Microsoft Visual Studio\2019\Community\VC\Tools\MSVC\14.27.29110\include\xutility

; 1644 :         _Where += _Off;

  00080	8d 04 f7	 lea	 eax, DWORD PTR [edi+esi*8]

; 5687 :         if (_Pred(*_UMid, _Val)) { // try top half

  00083	76 0c		 jbe	 SHORT $LN38@equal_rang

; 5688 :             _UFirst = _Next_iter(_UMid);

  00085	8d 78 08	 lea	 edi, DWORD PTR [eax+8]

; 5689 :             _Count -= _Count2 + 1;

  00088	83 c8 ff	 or	 eax, -1
  0008b	2b c6		 sub	 eax, esi
  0008d	03 c8		 add	 ecx, eax

; 5690 :         } else {

  0008f	eb 02		 jmp	 SHORT $LN39@equal_rang
$LN38@equal_rang:

; 5691 :             _Count = _Count2;

  00091	8b ce		 mov	 ecx, esi
$LN39@equal_rang:

; 5682 :     _Iter_diff_t<_FwdIt> _Count = _STD distance(_UFirst, _Get_unwrapped(_Last));
; 5683 : 
; 5684 :     while (0 < _Count) { // divide and conquer, find half that contains answer

  00093	85 c9		 test	 ecx, ecx
  00095	7f e1		 jg	 SHORT $LL36@equal_rang
  00097	8b 45 f8	 mov	 eax, DWORD PTR __UMid$1$[ebp]
  0009a	89 7d fc	 mov	 DWORD PTR $T1[ebp], edi
$LN37@equal_rang:
; File C:\Program Files (x86)\Microsoft Visual Studio\2019\Community\VC\Tools\MSVC\14.27.29110\include\algorithm

; 3590 :             auto _ULast2 = _STD upper_bound(_Next_iter(_UMid), _UFirst, _Val, _Pass_fn(_Pred));

  0009d	8d 78 08	 lea	 edi, DWORD PTR [eax+8]
; File C:\Program Files (x86)\Microsoft Visual Studio\2019\Community\VC\Tools\MSVC\14.27.29110\include\xutility

; 1644 :         _Where += _Off;

  000a0	8d 0c d5 00 00
	00 00		 lea	 ecx, DWORD PTR [edx*8]
; File C:\Program Files (x86)\Microsoft Visual Studio\2019\Community\VC\Tools\MSVC\14.27.29110\include\algorithm

; 3539 :     _Iter_diff_t<_FwdIt> _Count = _STD distance(_UFirst, _Get_unwrapped(_Last));

  000a7	2b cf		 sub	 ecx, edi
; File C:\Program Files (x86)\Microsoft Visual Studio\2019\Community\VC\Tools\MSVC\14.27.29110\include\xutility

; 1724 :         return _Last - _First; // assume the iterator will do debug checking

  000a9	03 cb		 add	 ecx, ebx
  000ab	c1 f9 03	 sar	 ecx, 3
; File C:\Program Files (x86)\Microsoft Visual Studio\2019\Community\VC\Tools\MSVC\14.27.29110\include\algorithm

; 3541 :     while (0 < _Count) { // divide and conquer, find half that contains answer

  000ae	85 c9		 test	 ecx, ecx
  000b0	7e 23		 jle	 SHORT $LN55@equal_rang
$LL54@equal_rang:

; 3542 :         _Iter_diff_t<_FwdIt> _Count2 = _Count / 2;

  000b2	8b d1		 mov	 edx, ecx
  000b4	d1 ea		 shr	 edx, 1
; File C:\DS Project\DS Files\Source\ClientSource\Client\EffectLib\Type.h

; 198  : 	return lhs < rhs.m_fTime;

  000b6	f3 0f 10 04 d7	 movss	 xmm0, DWORD PTR [edi+edx*8]
; File C:\Program Files (x86)\Microsoft Visual Studio\2019\Community\VC\Tools\MSVC\14.27.29110\include\xutility

; 1644 :         _Where += _Off;

  000bb	8d 04 d7	 lea	 eax, DWORD PTR [edi+edx*8]
; File C:\DS Project\DS Files\Source\ClientSource\Client\EffectLib\Type.h

; 198  : 	return lhs < rhs.m_fTime;

  000be	0f 2f c1	 comiss	 xmm0, xmm1
; File C:\Program Files (x86)\Microsoft Visual Studio\2019\Community\VC\Tools\MSVC\14.27.29110\include\algorithm

; 3544 :         if (_Pred(_Val, *_UMid)) {

  000c1	76 04		 jbe	 SHORT $LN56@equal_rang

; 3545 :             _Count = _Count2;

  000c3	8b ca		 mov	 ecx, edx

; 3546 :         } else { // try top half

  000c5	eb 0a		 jmp	 SHORT $LN57@equal_rang
$LN56@equal_rang:

; 3547 :             _UFirst = _Next_iter(_UMid);

  000c7	8d 78 08	 lea	 edi, DWORD PTR [eax+8]

; 3548 :             _Count -= _Count2 + 1;

  000ca	83 c8 ff	 or	 eax, -1
  000cd	2b c2		 sub	 eax, edx
  000cf	03 c8		 add	 ecx, eax
$LN57@equal_rang:

; 3541 :     while (0 < _Count) { // divide and conquer, find half that contains answer

  000d1	85 c9		 test	 ecx, ecx
  000d3	7f dd		 jg	 SHORT $LL54@equal_rang
$LN55@equal_rang:
; File C:\Program Files (x86)\Microsoft Visual Studio\2019\Community\VC\Tools\MSVC\14.27.29110\include\vector

; 195  :         _Ptr = _Refancy<_Tptr>(const_cast<value_type*>(_It));

  000d5	8b 45 fc	 mov	 eax, DWORD PTR $T1[ebp]
  000d8	e9 72 ff ff ff	 jmp	 $LN5@equal_rang
??$equal_range@V?$_Vector_iterator@V?$_Vector_val@U?$_Simple_types@V?$CTimeEvent@M@@@std@@@std@@@std@@M@std@@YA?AU?$pair@V?$_Vector_iterator@V?$_Vector_val@U?$_Simple_types@V?$CTimeEvent@M@@@std@@@std@@@std@@V12@@0@V?$_Vector_iterator@V?$_Vector_val@U?$_Simple_types@V?$CTimeEvent@M@@@std@@@std@@@0@0ABM@Z ENDP ; std::equal_range<std::_Vector_iterator<std::_Vector_val<std::_Simple_types<CTimeEvent<float> > > >,float>
_TEXT	ENDS
; Function compile flags: /Ogtp
; File C:\Program Files (x86)\Microsoft Visual Studio\2019\Community\VC\Tools\MSVC\14.27.29110\include\xmemory
;	COMDAT ??$_Destroy_range@V?$allocator@PAVCLightData@@@std@@@std@@YAXPAPAVCLightData@@QAPAV1@AAV?$allocator@PAVCLightData@@@0@@Z
_TEXT	SEGMENT
__First$ = 8						; size = 4
__Last$ = 12						; size = 4
__Al$ = 16						; size = 4
??$_Destroy_range@V?$allocator@PAVCLightData@@@std@@@std@@YAXPAPAVCLightData@@QAPAV1@AAV?$allocator@PAVCLightData@@@0@@Z PROC ; std::_Destroy_range<std::allocator<CLightData *> >, COMDAT

; 956  :     // note that this is an optimization for debug mode codegen; in release mode the BE removes all of this
; 957  :     using _Ty = typename _Alloc::value_type;
; 958  :     if _CONSTEXPR_IF (!conjunction_v<is_trivially_destructible<_Ty>, _Uses_default_destroy<_Alloc, _Ty*>>) {
; 959  :         for (; _First != _Last; ++_First) {
; 960  :             allocator_traits<_Alloc>::destroy(_Al, _Unfancy(_First));
; 961  :         }
; 962  :     }
; 963  : }

  00000	c2 00 00	 ret	 0
??$_Destroy_range@V?$allocator@PAVCLightData@@@std@@@std@@YAXPAPAVCLightData@@QAPAV1@AAV?$allocator@PAVCLightData@@@0@@Z ENDP ; std::_Destroy_range<std::allocator<CLightData *> >
_TEXT	ENDS
; Function compile flags: /Ogtp
; File C:\Program Files (x86)\Microsoft Visual Studio\2019\Community\VC\Tools\MSVC\14.27.29110\include\xmemory
;	COMDAT ??$_Destroy_range@V?$allocator@V?$CTimeEvent@M@@@std@@@std@@YAXPAV?$CTimeEvent@M@@QAV1@AAV?$allocator@V?$CTimeEvent@M@@@0@@Z
_TEXT	SEGMENT
__First$ = 8						; size = 4
__Last$ = 12						; size = 4
__Al$ = 16						; size = 4
??$_Destroy_range@V?$allocator@V?$CTimeEvent@M@@@std@@@std@@YAXPAV?$CTimeEvent@M@@QAV1@AAV?$allocator@V?$CTimeEvent@M@@@0@@Z PROC ; std::_Destroy_range<std::allocator<CTimeEvent<float> > >, COMDAT

; 956  :     // note that this is an optimization for debug mode codegen; in release mode the BE removes all of this
; 957  :     using _Ty = typename _Alloc::value_type;
; 958  :     if _CONSTEXPR_IF (!conjunction_v<is_trivially_destructible<_Ty>, _Uses_default_destroy<_Alloc, _Ty*>>) {
; 959  :         for (; _First != _Last; ++_First) {
; 960  :             allocator_traits<_Alloc>::destroy(_Al, _Unfancy(_First));
; 961  :         }
; 962  :     }
; 963  : }

  00000	c2 00 00	 ret	 0
??$_Destroy_range@V?$allocator@V?$CTimeEvent@M@@@std@@@std@@YAXPAV?$CTimeEvent@M@@QAV1@AAV?$allocator@V?$CTimeEvent@M@@@0@@Z ENDP ; std::_Destroy_range<std::allocator<CTimeEvent<float> > >
_TEXT	ENDS
; Function compile flags: /Ogtp
; File C:\Program Files (x86)\Microsoft Visual Studio\2019\Community\VC\Tools\MSVC\14.27.29110\include\vector
; File C:\Program Files (x86)\Microsoft Visual Studio\2019\Community\VC\Tools\MSVC\14.27.29110\include\xmemory
; File C:\Program Files (x86)\Microsoft Visual Studio\2019\Community\VC\Tools\MSVC\14.27.29110\include\vector
; File C:\Program Files (x86)\Microsoft Visual Studio\2019\Community\VC\Tools\MSVC\14.27.29110\include\xmemory
; File C:\Program Files (x86)\Microsoft Visual Studio\2019\Community\VC\Tools\MSVC\14.27.29110\include\vector
; File C:\Program Files (x86)\Microsoft Visual Studio\2019\Community\VC\Tools\MSVC\14.27.29110\include\xmemory
; File C:\Program Files (x86)\Microsoft Visual Studio\2019\Community\VC\Tools\MSVC\14.27.29110\include\vector
; File C:\Program Files (x86)\Microsoft Visual Studio\2019\Community\VC\Tools\MSVC\14.27.29110\include\xmemory
; File C:\Program Files (x86)\Microsoft Visual Studio\2019\Community\VC\Tools\MSVC\14.27.29110\include\vector
; File C:\Program Files (x86)\Microsoft Visual Studio\2019\Community\VC\Tools\MSVC\14.27.29110\include\xmemory
; File C:\Program Files (x86)\Microsoft Visual Studio\2019\Community\VC\Tools\MSVC\14.27.29110\include\vector
;	COMDAT ??$_Emplace_reallocate@ABQAVCLightData@@@?$vector@PAVCLightData@@V?$allocator@PAVCLightData@@@std@@@std@@QAEPAPAVCLightData@@QAPAV2@ABQAV2@@Z
_TEXT	SEGMENT
tv436 = -12						; size = 4
__Newsize$1$ = -8					; size = 4
tv435 = -4						; size = 4
__Whereptr$ = 8						; size = 4
_<_Val_0>$ = 12						; size = 4
??$_Emplace_reallocate@ABQAVCLightData@@@?$vector@PAVCLightData@@V?$allocator@PAVCLightData@@@std@@@std@@QAEPAPAVCLightData@@QAPAV2@ABQAV2@@Z PROC ; std::vector<CLightData *,std::allocator<CLightData *> >::_Emplace_reallocate<CLightData * const &>, COMDAT
; _this$ = ecx

; 725  :     pointer _Emplace_reallocate(const pointer _Whereptr, _Valty&&... _Val) {

  00000	55		 push	 ebp
  00001	8b ec		 mov	 ebp, esp
  00003	83 ec 0c	 sub	 esp, 12			; 0000000cH
  00006	53		 push	 ebx

; 726  :         // reallocate and insert by perfectly forwarding _Val at _Whereptr
; 727  :         _Alty& _Al        = _Getal();
; 728  :         auto& _My_data    = _Mypair._Myval2;
; 729  :         pointer& _Myfirst = _My_data._Myfirst;
; 730  :         pointer& _Mylast  = _My_data._Mylast;
; 731  : 
; 732  :         _STL_INTERNAL_CHECK(_Mylast == _My_data._Myend); // check that we have no unused capacity
; 733  : 
; 734  :         const auto _Whereoff = static_cast<size_type>(_Whereptr - _Myfirst);

  00007	8b 5d 08	 mov	 ebx, DWORD PTR __Whereptr$[ebp]
  0000a	56		 push	 esi
  0000b	8b f1		 mov	 esi, ecx
  0000d	57		 push	 edi
  0000e	8b 16		 mov	 edx, DWORD PTR [esi]
  00010	2b da		 sub	 ebx, edx

; 735  :         const auto _Oldsize  = static_cast<size_type>(_Mylast - _Myfirst);

  00012	8b 46 04	 mov	 eax, DWORD PTR [esi+4]
  00015	2b c2		 sub	 eax, edx
  00017	c1 fb 02	 sar	 ebx, 2
  0001a	c1 f8 02	 sar	 eax, 2

; 736  : 
; 737  :         if (_Oldsize == max_size()) {

  0001d	3d ff ff ff 3f	 cmp	 eax, 1073741823		; 3fffffffH
  00022	0f 84 be 00 00
	00		 je	 $LN39@Emplace_re

; 1494 :         return static_cast<size_type>(_My_data._Myend - _My_data._Myfirst);

  00028	8b 4e 08	 mov	 ecx, DWORD PTR [esi+8]

; 739  :         }
; 740  : 
; 741  :         const size_type _Newsize     = _Oldsize + 1;

  0002b	8d 78 01	 lea	 edi, DWORD PTR [eax+1]

; 1494 :         return static_cast<size_type>(_My_data._Myend - _My_data._Myfirst);

  0002e	2b ca		 sub	 ecx, edx

; 739  :         }
; 740  : 
; 741  :         const size_type _Newsize     = _Oldsize + 1;

  00030	89 7d f8	 mov	 DWORD PTR __Newsize$1$[ebp], edi

; 1494 :         return static_cast<size_type>(_My_data._Myend - _My_data._Myfirst);

  00033	c1 f9 02	 sar	 ecx, 2

; 1619 :         if (_Oldcapacity > max_size() - _Oldcapacity / 2) {

  00036	b8 ff ff ff 3f	 mov	 eax, 1073741823		; 3fffffffH
  0003b	8b d1		 mov	 edx, ecx
  0003d	d1 ea		 shr	 edx, 1
  0003f	2b c2		 sub	 eax, edx
  00041	3b c8		 cmp	 ecx, eax
  00043	76 04		 jbe	 SHORT $LN12@Emplace_re

; 1620 :             return _Newsize; // geometric growth would overflow

  00045	8b c7		 mov	 eax, edi
  00047	eb 08		 jmp	 SHORT $LN13@Emplace_re
$LN12@Emplace_re:

; 1621 :         }
; 1622 : 
; 1623 :         const size_type _Geometric = _Oldcapacity + _Oldcapacity / 2;

  00049	8d 04 0a	 lea	 eax, DWORD PTR [edx+ecx]

; 1624 : 
; 1625 :         if (_Geometric < _Newsize) {

  0004c	3b c7		 cmp	 eax, edi
  0004e	0f 42 c7	 cmovb	 eax, edi
$LN13@Emplace_re:
; File C:\Program Files (x86)\Microsoft Visual Studio\2019\Community\VC\Tools\MSVC\14.27.29110\include\xmemory

; 60   :         if (_Count > _Max_possible) {

  00051	3d ff ff ff 3f	 cmp	 eax, 1073741823		; 3fffffffH
  00056	0f 87 8f 00 00
	00		 ja	 $LN40@Emplace_re

; 62   :         }
; 63   :     }
; 64   : 
; 65   :     return _Count * _Ty_size;

  0005c	c1 e0 02	 shl	 eax, 2

; 807  :         return static_cast<_Ty*>(_Allocate<_New_alignof<_Ty>>(_Get_size_of_n<sizeof(_Ty)>(_Count)));

  0005f	50		 push	 eax

; 65   :     return _Count * _Ty_size;

  00060	89 45 f4	 mov	 DWORD PTR tv436[ebp], eax

; 807  :         return static_cast<_Ty*>(_Allocate<_New_alignof<_Ty>>(_Get_size_of_n<sizeof(_Ty)>(_Count)));

  00063	e8 00 00 00 00	 call	 ??$_Allocate@$07U_Default_allocate_traits@std@@$0A@@std@@YAPAXI@Z ; std::_Allocate<8,std::_Default_allocate_traits,0>
; File C:\Program Files (x86)\Microsoft Visual Studio\2019\Community\VC\Tools\MSVC\14.27.29110\include\vector

; 749  :         _Alty_traits::construct(_Al, _Unfancy(_Newvec + _Whereoff), _STD forward<_Valty>(_Val)...);

  00068	8b 4d 0c	 mov	 ecx, DWORD PTR _<_Val_0>$[ebp]
; File C:\Program Files (x86)\Microsoft Visual Studio\2019\Community\VC\Tools\MSVC\14.27.29110\include\xmemory

; 807  :         return static_cast<_Ty*>(_Allocate<_New_alignof<_Ty>>(_Get_size_of_n<sizeof(_Ty)>(_Count)));

  0006b	8b f8		 mov	 edi, eax
; File C:\Program Files (x86)\Microsoft Visual Studio\2019\Community\VC\Tools\MSVC\14.27.29110\include\vector

; 749  :         _Alty_traits::construct(_Al, _Unfancy(_Newvec + _Whereoff), _STD forward<_Valty>(_Val)...);

  0006d	8d 04 9f	 lea	 eax, DWORD PTR [edi+ebx*4]
; File C:\Program Files (x86)\Microsoft Visual Studio\2019\Community\VC\Tools\MSVC\14.27.29110\include\xmemory

; 807  :         return static_cast<_Ty*>(_Allocate<_New_alignof<_Ty>>(_Get_size_of_n<sizeof(_Ty)>(_Count)));

  00070	83 c4 04	 add	 esp, 4
; File C:\Program Files (x86)\Microsoft Visual Studio\2019\Community\VC\Tools\MSVC\14.27.29110\include\vector

; 752  :         if (_Whereptr == _Mylast) { // at back, provide strong guarantee

  00073	8b 5d 08	 mov	 ebx, DWORD PTR __Whereptr$[ebp]
  00076	89 45 fc	 mov	 DWORD PTR tv435[ebp], eax
  00079	8b 09		 mov	 ecx, DWORD PTR [ecx]
  0007b	89 08		 mov	 DWORD PTR [eax], ecx
  0007d	8b 56 04	 mov	 edx, DWORD PTR [esi+4]
  00080	8b 0e		 mov	 ecx, DWORD PTR [esi]
  00082	3b da		 cmp	 ebx, edx
  00084	75 07		 jne	 SHORT $LN4@Emplace_re

; 753  :             _Umove_if_noexcept(_Myfirst, _Mylast, _Newvec);
; 754  :         } else { // provide basic guarantee

  00086	8b 5d fc	 mov	 ebx, DWORD PTR tv435[ebp]

; 1597 :         _Uninitialized_move(_First, _Last, _Dest, _Getal());

  00089	8b c7		 mov	 eax, edi

; 753  :             _Umove_if_noexcept(_Myfirst, _Mylast, _Newvec);
; 754  :         } else { // provide basic guarantee

  0008b	eb 17		 jmp	 SHORT $LN5@Emplace_re
$LN4@Emplace_re:

; 1592 :         return _Uninitialized_move(_First, _Last, _Dest, _Getal());

  0008d	56		 push	 esi
  0008e	57		 push	 edi
  0008f	53		 push	 ebx
  00090	51		 push	 ecx
  00091	e8 00 00 00 00	 call	 ??$_Uninitialized_move@PAPAVCLightData@@V?$allocator@PAVCLightData@@@std@@@std@@YAPAPAVCLightData@@QAPAV1@0PAPAV1@AAV?$allocator@PAVCLightData@@@0@@Z ; std::_Uninitialized_move<CLightData * *,std::allocator<CLightData *> >
  00096	8b 56 04	 mov	 edx, DWORD PTR [esi+4]
  00099	8b cb		 mov	 ecx, ebx

; 755  :             _Umove(_Myfirst, _Whereptr, _Newvec);
; 756  :             _Constructed_first = _Newvec;
; 757  :             _Umove(_Whereptr, _Mylast, _Newvec + _Whereoff + 1);

  0009b	8b 5d fc	 mov	 ebx, DWORD PTR tv435[ebp]

; 1592 :         return _Uninitialized_move(_First, _Last, _Dest, _Getal());

  0009e	83 c4 10	 add	 esp, 16			; 00000010H

; 755  :             _Umove(_Myfirst, _Whereptr, _Newvec);
; 756  :             _Constructed_first = _Newvec;
; 757  :             _Umove(_Whereptr, _Mylast, _Newvec + _Whereoff + 1);

  000a1	8d 43 04	 lea	 eax, DWORD PTR [ebx+4]
$LN5@Emplace_re:
  000a4	56		 push	 esi
  000a5	50		 push	 eax
  000a6	52		 push	 edx
  000a7	51		 push	 ecx
  000a8	e8 00 00 00 00	 call	 ??$_Uninitialized_move@PAPAVCLightData@@V?$allocator@PAVCLightData@@@std@@@std@@YAPAPAVCLightData@@QAPAV1@0PAPAV1@AAV?$allocator@PAVCLightData@@@0@@Z ; std::_Uninitialized_move<CLightData * *,std::allocator<CLightData *> >

; 1675 :         if (_Myfirst) { // destroy and deallocate old array

  000ad	8b 0e		 mov	 ecx, DWORD PTR [esi]

; 755  :             _Umove(_Myfirst, _Whereptr, _Newvec);
; 756  :             _Constructed_first = _Newvec;
; 757  :             _Umove(_Whereptr, _Mylast, _Newvec + _Whereoff + 1);

  000af	83 c4 10	 add	 esp, 16			; 00000010H

; 1675 :         if (_Myfirst) { // destroy and deallocate old array

  000b2	85 c9		 test	 ecx, ecx
  000b4	74 12		 je	 SHORT $LN33@Emplace_re

; 1676 :             _Destroy(_Myfirst, _Mylast);
; 1677 :             _Getal().deallocate(_Myfirst, static_cast<size_type>(_Myend - _Myfirst));

  000b6	8b 46 08	 mov	 eax, DWORD PTR [esi+8]
  000b9	2b c1		 sub	 eax, ecx
; File C:\Program Files (x86)\Microsoft Visual Studio\2019\Community\VC\Tools\MSVC\14.27.29110\include\xmemory

; 803  :         _Deallocate<_New_alignof<_Ty>>(_Ptr, sizeof(_Ty) * _Count);

  000bb	83 e0 fc	 and	 eax, -4			; fffffffcH
  000be	50		 push	 eax
  000bf	51		 push	 ecx
  000c0	e8 00 00 00 00	 call	 ??$_Deallocate@$07$0A@@std@@YAXPAXI@Z ; std::_Deallocate<8,0>
  000c5	83 c4 08	 add	 esp, 8
$LN33@Emplace_re:
; File C:\Program Files (x86)\Microsoft Visual Studio\2019\Community\VC\Tools\MSVC\14.27.29110\include\vector

; 1681 :         _Mylast  = _Newvec + _Newsize;

  000c8	8b 4d f8	 mov	 ecx, DWORD PTR __Newsize$1$[ebp]

; 758  :         }
; 759  :         _CATCH_ALL
; 760  :         _Destroy(_Constructed_first, _Constructed_last);
; 761  :         _Al.deallocate(_Newvec, _Newcapacity);
; 762  :         _RERAISE;
; 763  :         _CATCH_END
; 764  : 
; 765  :         _Change_array(_Newvec, _Newsize, _Newcapacity);
; 766  :         return _Newvec + _Whereoff;

  000cb	8b c3		 mov	 eax, ebx

; 1680 :         _Myfirst = _Newvec;

  000cd	89 3e		 mov	 DWORD PTR [esi], edi

; 1681 :         _Mylast  = _Newvec + _Newsize;

  000cf	8d 0c 8f	 lea	 ecx, DWORD PTR [edi+ecx*4]
  000d2	89 4e 04	 mov	 DWORD PTR [esi+4], ecx

; 1682 :         _Myend   = _Newvec + _Newcapacity;

  000d5	8b 4d f4	 mov	 ecx, DWORD PTR tv436[ebp]
  000d8	03 cf		 add	 ecx, edi

; 758  :         }
; 759  :         _CATCH_ALL
; 760  :         _Destroy(_Constructed_first, _Constructed_last);
; 761  :         _Al.deallocate(_Newvec, _Newcapacity);
; 762  :         _RERAISE;
; 763  :         _CATCH_END
; 764  : 
; 765  :         _Change_array(_Newvec, _Newsize, _Newcapacity);
; 766  :         return _Newvec + _Whereoff;

  000da	5f		 pop	 edi

; 1682 :         _Myend   = _Newvec + _Newcapacity;

  000db	89 4e 08	 mov	 DWORD PTR [esi+8], ecx

; 758  :         }
; 759  :         _CATCH_ALL
; 760  :         _Destroy(_Constructed_first, _Constructed_last);
; 761  :         _Al.deallocate(_Newvec, _Newcapacity);
; 762  :         _RERAISE;
; 763  :         _CATCH_END
; 764  : 
; 765  :         _Change_array(_Newvec, _Newsize, _Newcapacity);
; 766  :         return _Newvec + _Whereoff;

  000de	5e		 pop	 esi
  000df	5b		 pop	 ebx

; 767  :     }

  000e0	8b e5		 mov	 esp, ebp
  000e2	5d		 pop	 ebp
  000e3	c2 08 00	 ret	 8
$LN39@Emplace_re:

; 738  :             _Xlength();

  000e6	e8 00 00 00 00	 call	 ?_Xlength@?$vector@PAVCLightData@@V?$allocator@PAVCLightData@@@std@@@std@@CAXXZ ; std::vector<CLightData *,std::allocator<CLightData *> >::_Xlength
$LN40@Emplace_re:
; File C:\Program Files (x86)\Microsoft Visual Studio\2019\Community\VC\Tools\MSVC\14.27.29110\include\xmemory

; 61   :             _Throw_bad_array_new_length(); // multiply overflow

  000eb	e8 00 00 00 00	 call	 ?_Throw_bad_array_new_length@std@@YAXXZ ; std::_Throw_bad_array_new_length
$LN37@Emplace_re:
  000f0	cc		 int	 3
??$_Emplace_reallocate@ABQAVCLightData@@@?$vector@PAVCLightData@@V?$allocator@PAVCLightData@@@std@@@std@@QAEPAPAVCLightData@@QAPAV2@ABQAV2@@Z ENDP ; std::vector<CLightData *,std::allocator<CLightData *> >::_Emplace_reallocate<CLightData * const &>
_TEXT	ENDS
; Function compile flags: /Ogtp
;	COMDAT ??__F?ms_kPool@CLightData@@2V?$CDynamicPool@VCLightData@@@@A@@YAXXZ
text$yd	SEGMENT
??__F?ms_kPool@CLightData@@2V?$CDynamicPool@VCLightData@@@@A@@YAXXZ PROC ; `dynamic atexit destructor for 'CLightData::ms_kPool'', COMDAT
  00000	b9 00 00 00 00	 mov	 ecx, OFFSET ?ms_kPool@CLightData@@2V?$CDynamicPool@VCLightData@@@@A ; CLightData::ms_kPool
  00005	e9 00 00 00 00	 jmp	 ??1?$CDynamicPool@VCLightData@@@@UAE@XZ ; CDynamicPool<CLightData>::~CDynamicPool<CLightData>
??__F?ms_kPool@CLightData@@2V?$CDynamicPool@VCLightData@@@@A@@YAXXZ ENDP ; `dynamic atexit destructor for 'CLightData::ms_kPool''
text$yd	ENDS
; Function compile flags: /Ogtp
; File C:\DS Project\DS Files\Source\ClientSource\Client\EffectLib\SimpleLightData.cpp
;	COMDAT ??__E?ms_kPool@CLightData@@2V?$CDynamicPool@VCLightData@@@@A@@YAXXZ
text$di	SEGMENT
??__E?ms_kPool@CLightData@@2V?$CDynamicPool@VCLightData@@@@A@@YAXXZ PROC ; `dynamic initializer for 'CLightData::ms_kPool'', COMDAT

; 4    : CDynamicPool<CLightData> CLightData::ms_kPool;

  00000	68 00 00 00 00	 push	 OFFSET ??__F?ms_kPool@CLightData@@2V?$CDynamicPool@VCLightData@@@@A@@YAXXZ ; `dynamic atexit destructor for 'CLightData::ms_kPool''
  00005	e8 00 00 00 00	 call	 _atexit
  0000a	59		 pop	 ecx
  0000b	c3		 ret	 0
??__E?ms_kPool@CLightData@@2V?$CDynamicPool@VCLightData@@@@A@@YAXXZ ENDP ; `dynamic initializer for 'CLightData::ms_kPool''
text$di	ENDS
; Function compile flags: /Ogtp
;	COMDAT ??_G?$CDynamicPool@VCLightData@@@@UAEPAXI@Z
_TEXT	SEGMENT
___flags$ = 8						; size = 4
??_G?$CDynamicPool@VCLightData@@@@UAEPAXI@Z PROC	; CDynamicPool<CLightData>::`scalar deleting destructor', COMDAT
; _this$ = ecx
  00000	55		 push	 ebp
  00001	8b ec		 mov	 ebp, esp
  00003	56		 push	 esi
  00004	8b f1		 mov	 esi, ecx
  00006	e8 00 00 00 00	 call	 ??1?$CDynamicPool@VCLightData@@@@UAE@XZ ; CDynamicPool<CLightData>::~CDynamicPool<CLightData>
  0000b	f6 45 08 01	 test	 BYTE PTR ___flags$[ebp], 1
  0000f	74 0b		 je	 SHORT $LN4@scalar
  00011	6a 24		 push	 36			; 00000024H
  00013	56		 push	 esi
  00014	e8 00 00 00 00	 call	 ??3@YAXPAXI@Z		; operator delete
  00019	83 c4 08	 add	 esp, 8
$LN4@scalar:
  0001c	8b c6		 mov	 eax, esi
  0001e	5e		 pop	 esi
  0001f	5d		 pop	 ebp
  00020	c2 04 00	 ret	 4
??_G?$CDynamicPool@VCLightData@@@@UAEPAXI@Z ENDP	; CDynamicPool<CLightData>::`scalar deleting destructor'
_TEXT	ENDS
; Function compile flags: /Ogtp
; File C:\Program Files (x86)\Microsoft Visual Studio\2019\Community\VC\Tools\MSVC\14.27.29110\include\vector
;	COMDAT ?_Xlength@?$vector@PAVCLightData@@V?$allocator@PAVCLightData@@@std@@@std@@CAXXZ
_TEXT	SEGMENT
?_Xlength@?$vector@PAVCLightData@@V?$allocator@PAVCLightData@@@std@@@std@@CAXXZ PROC ; std::vector<CLightData *,std::allocator<CLightData *> >::_Xlength, COMDAT

; 1704 :         _Xlength_error("vector too long");

  00000	68 00 00 00 00	 push	 OFFSET ??_C@_0BA@FOIKENOD@vector?5too?5long@
  00005	e8 00 00 00 00	 call	 ?_Xlength_error@std@@YAXPBD@Z ; std::_Xlength_error
$LN3@Xlength:
  0000a	cc		 int	 3
?_Xlength@?$vector@PAVCLightData@@V?$allocator@PAVCLightData@@@std@@@std@@CAXXZ ENDP ; std::vector<CLightData *,std::allocator<CLightData *> >::_Xlength
_TEXT	ENDS
; Function compile flags: /Ogtp
; File C:\DS Project\DS Files\Source\ClientSource\Client\eterLib\Pool.h
;	COMDAT ?Delete@?$CDynamicPool@VCLightData@@@@KAXPAVCLightData@@@Z
_TEXT	SEGMENT
_pkData$ = 8						; size = 4
?Delete@?$CDynamicPool@VCLightData@@@@KAXPAVCLightData@@@Z PROC ; CDynamicPool<CLightData>::Delete, COMDAT

; 109  : 		{

  00000	55		 push	 ebp
  00001	8b ec		 mov	 ebp, esp

; 110  : 			delete pkData;

  00003	8b 4d 08	 mov	 ecx, DWORD PTR _pkData$[ebp]
  00006	85 c9		 test	 ecx, ecx
  00008	74 06		 je	 SHORT $LN3@Delete
  0000a	8b 01		 mov	 eax, DWORD PTR [ecx]
  0000c	6a 01		 push	 1
  0000e	ff 10		 call	 DWORD PTR [eax]
$LN3@Delete:

; 111  : 		}

  00010	5d		 pop	 ebp
  00011	c3		 ret	 0
?Delete@?$CDynamicPool@VCLightData@@@@KAXPAVCLightData@@@Z ENDP ; CDynamicPool<CLightData>::Delete
_TEXT	ENDS
; Function compile flags: /Ogtp
; File C:\DS Project\DS Files\Source\ClientSource\Client\eterLib\Pool.h
; File C:\Program Files (x86)\Microsoft Visual Studio\2019\Community\VC\Tools\MSVC\14.27.29110\include\vector
; File C:\Program Files (x86)\Microsoft Visual Studio\2019\Community\VC\Tools\MSVC\14.27.29110\include\xmemory
; File C:\Program Files (x86)\Microsoft Visual Studio\2019\Community\VC\Tools\MSVC\14.27.29110\include\vector
; File C:\Program Files (x86)\Microsoft Visual Studio\2019\Community\VC\Tools\MSVC\14.27.29110\include\xmemory
; File C:\Program Files (x86)\Microsoft Visual Studio\2019\Community\VC\Tools\MSVC\14.27.29110\include\vector
; File C:\Program Files (x86)\Microsoft Visual Studio\2019\Community\VC\Tools\MSVC\14.27.29110\include\xmemory
; File C:\Program Files (x86)\Microsoft Visual Studio\2019\Community\VC\Tools\MSVC\14.27.29110\include\vector
; File C:\Program Files (x86)\Microsoft Visual Studio\2019\Community\VC\Tools\MSVC\14.27.29110\include\xmemory
; File C:\Program Files (x86)\Microsoft Visual Studio\2019\Community\VC\Tools\MSVC\14.27.29110\include\vector
; File C:\DS Project\DS Files\Source\ClientSource\Client\eterLib\Pool.h
;	COMDAT ??1?$CDynamicPool@VCLightData@@@@UAE@XZ
_TEXT	SEGMENT
??1?$CDynamicPool@VCLightData@@@@UAE@XZ PROC		; CDynamicPool<CLightData>::~CDynamicPool<CLightData>, COMDAT
; _this$ = ecx

; 18   : 		{

  00000	56		 push	 esi
  00001	8b f1		 mov	 esi, ecx
  00003	c7 06 00 00 00
	00		 mov	 DWORD PTR [esi], OFFSET ??_7?$CDynamicPool@VCLightData@@@@6B@
; File C:\Program Files (x86)\Microsoft Visual Studio\2019\Community\VC\Tools\MSVC\14.27.29110\include\vector

; 1693 :         if (_Myfirst) { // destroy and deallocate old array

  00009	8b 4e 10	 mov	 ecx, DWORD PTR [esi+16]
  0000c	85 c9		 test	 ecx, ecx
  0000e	74 27		 je	 SHORT $LN6@CDynamicPo

; 1694 :             _Destroy(_Myfirst, _Mylast);
; 1695 :             _Getal().deallocate(_Myfirst, static_cast<size_type>(_Myend - _Myfirst));

  00010	8b 46 18	 mov	 eax, DWORD PTR [esi+24]
  00013	2b c1		 sub	 eax, ecx
; File C:\Program Files (x86)\Microsoft Visual Studio\2019\Community\VC\Tools\MSVC\14.27.29110\include\xmemory

; 803  :         _Deallocate<_New_alignof<_Ty>>(_Ptr, sizeof(_Ty) * _Count);

  00015	83 e0 fc	 and	 eax, -4			; fffffffcH
  00018	50		 push	 eax
  00019	51		 push	 ecx
  0001a	e8 00 00 00 00	 call	 ??$_Deallocate@$07$0A@@std@@YAXPAXI@Z ; std::_Deallocate<8,0>
; File C:\Program Files (x86)\Microsoft Visual Studio\2019\Community\VC\Tools\MSVC\14.27.29110\include\vector

; 1697 :             _Myfirst = pointer();

  0001f	c7 46 10 00 00
	00 00		 mov	 DWORD PTR [esi+16], 0
; File C:\Program Files (x86)\Microsoft Visual Studio\2019\Community\VC\Tools\MSVC\14.27.29110\include\xmemory

; 803  :         _Deallocate<_New_alignof<_Ty>>(_Ptr, sizeof(_Ty) * _Count);

  00026	83 c4 08	 add	 esp, 8
; File C:\Program Files (x86)\Microsoft Visual Studio\2019\Community\VC\Tools\MSVC\14.27.29110\include\vector

; 1698 :             _Mylast  = pointer();

  00029	c7 46 14 00 00
	00 00		 mov	 DWORD PTR [esi+20], 0

; 1699 :             _Myend   = pointer();

  00030	c7 46 18 00 00
	00 00		 mov	 DWORD PTR [esi+24], 0
$LN6@CDynamicPo:

; 1693 :         if (_Myfirst) { // destroy and deallocate old array

  00037	8b 4e 04	 mov	 ecx, DWORD PTR [esi+4]
  0003a	85 c9		 test	 ecx, ecx
  0003c	74 27		 je	 SHORT $LN13@CDynamicPo

; 1694 :             _Destroy(_Myfirst, _Mylast);
; 1695 :             _Getal().deallocate(_Myfirst, static_cast<size_type>(_Myend - _Myfirst));

  0003e	8b 46 0c	 mov	 eax, DWORD PTR [esi+12]
  00041	2b c1		 sub	 eax, ecx
; File C:\Program Files (x86)\Microsoft Visual Studio\2019\Community\VC\Tools\MSVC\14.27.29110\include\xmemory

; 803  :         _Deallocate<_New_alignof<_Ty>>(_Ptr, sizeof(_Ty) * _Count);

  00043	83 e0 fc	 and	 eax, -4			; fffffffcH
  00046	50		 push	 eax
  00047	51		 push	 ecx
  00048	e8 00 00 00 00	 call	 ??$_Deallocate@$07$0A@@std@@YAXPAXI@Z ; std::_Deallocate<8,0>
; File C:\Program Files (x86)\Microsoft Visual Studio\2019\Community\VC\Tools\MSVC\14.27.29110\include\vector

; 1697 :             _Myfirst = pointer();

  0004d	c7 46 04 00 00
	00 00		 mov	 DWORD PTR [esi+4], 0
; File C:\Program Files (x86)\Microsoft Visual Studio\2019\Community\VC\Tools\MSVC\14.27.29110\include\xmemory

; 803  :         _Deallocate<_New_alignof<_Ty>>(_Ptr, sizeof(_Ty) * _Count);

  00054	83 c4 08	 add	 esp, 8
; File C:\Program Files (x86)\Microsoft Visual Studio\2019\Community\VC\Tools\MSVC\14.27.29110\include\vector

; 1698 :             _Mylast  = pointer();

  00057	c7 46 08 00 00
	00 00		 mov	 DWORD PTR [esi+8], 0

; 1699 :             _Myend   = pointer();

  0005e	c7 46 0c 00 00
	00 00		 mov	 DWORD PTR [esi+12], 0
$LN13@CDynamicPo:
  00065	5e		 pop	 esi
; File C:\DS Project\DS Files\Source\ClientSource\Client\eterLib\Pool.h

; 26   : 		}

  00066	c3		 ret	 0
??1?$CDynamicPool@VCLightData@@@@UAE@XZ ENDP		; CDynamicPool<CLightData>::~CDynamicPool<CLightData>
_TEXT	ENDS
; Function compile flags: /Ogtp
;	COMDAT ??_GCLightData@@UAEPAXI@Z
_TEXT	SEGMENT
___flags$ = 8						; size = 4
??_GCLightData@@UAEPAXI@Z PROC				; CLightData::`scalar deleting destructor', COMDAT
; _this$ = ecx
  00000	55		 push	 ebp
  00001	8b ec		 mov	 ebp, esp
  00003	56		 push	 esi
  00004	8b f1		 mov	 esi, ecx
  00006	e8 00 00 00 00	 call	 ??1CLightData@@UAE@XZ	; CLightData::~CLightData
  0000b	f6 45 08 01	 test	 BYTE PTR ___flags$[ebp], 1
  0000f	74 0b		 je	 SHORT $LN4@scalar
  00011	6a 5c		 push	 92			; 0000005cH
  00013	56		 push	 esi
  00014	e8 00 00 00 00	 call	 ??3@YAXPAXI@Z		; operator delete
  00019	83 c4 08	 add	 esp, 8
$LN4@scalar:
  0001c	8b c6		 mov	 eax, esi
  0001e	5e		 pop	 esi
  0001f	5d		 pop	 ebp
  00020	c2 04 00	 ret	 4
??_GCLightData@@UAEPAXI@Z ENDP				; CLightData::`scalar deleting destructor'
_TEXT	ENDS
; Function compile flags: /Ogtp
; File C:\DS Project\DS Files\Source\ClientSource\Client\EffectLib\SimpleLightData.cpp
; File C:\Program Files (x86)\Microsoft Visual Studio\2019\Community\VC\Tools\MSVC\14.27.29110\include\vector
; File C:\DS Project\DS Files\Source\ClientSource\Client\EffectLib\SimpleLightData.cpp
; File C:\Program Files (x86)\Microsoft Visual Studio\2019\Community\VC\Tools\MSVC\14.27.29110\include\vector
; File C:\DS Project\DS Files\Source\ClientSource\Client\EffectLib\SimpleLightData.cpp
; File C:\Program Files (x86)\Microsoft Visual Studio\2019\Community\VC\Tools\MSVC\14.27.29110\include\vector
; File C:\DS Project\DS Files\Source\ClientSource\Client\EffectLib\SimpleLightData.cpp
;	COMDAT ?Delete@CLightData@@SAXPAV1@@Z
_TEXT	SEGMENT
_pkData$ = 8						; size = 4
_pkData$ = 8						; size = 4
?Delete@CLightData@@SAXPAV1@@Z PROC			; CLightData::Delete, COMDAT

; 17   : {

  00000	55		 push	 ebp
  00001	8b ec		 mov	 ebp, esp
  00003	56		 push	 esi

; 18   : 	pkData->Clear();

  00004	8b 75 08	 mov	 esi, DWORD PTR _pkData$[ebp]
  00007	8b ce		 mov	 ecx, esi
  00009	e8 00 00 00 00	 call	 ?Clear@CEffectElementBase@@QAEXXZ ; CEffectElementBase::Clear
; File C:\Program Files (x86)\Microsoft Visual Studio\2019\Community\VC\Tools\MSVC\14.27.29110\include\vector

; 704  :         if (_Mylast != _My_data._Myend) {

  0000e	a1 14 00 00 00	 mov	 eax, DWORD PTR ?ms_kPool@CLightData@@2V?$CDynamicPool@VCLightData@@@@A+20
; File C:\DS Project\DS Files\Source\ClientSource\Client\EffectLib\SimpleLightData.cpp

; 19   : 	ms_kPool.Free(pkData);

  00013	89 75 08	 mov	 DWORD PTR _pkData$[ebp], esi
; File C:\Program Files (x86)\Microsoft Visual Studio\2019\Community\VC\Tools\MSVC\14.27.29110\include\vector

; 704  :         if (_Mylast != _My_data._Myend) {

  00016	3b 05 18 00 00
	00		 cmp	 eax, DWORD PTR ?ms_kPool@CLightData@@2V?$CDynamicPool@VCLightData@@@@A+24
  0001c	74 0c		 je	 SHORT $LN8@Delete

; 687  :         _Alty_traits::construct(_Getal(), _Unfancy(_Mylast), _STD forward<_Valty>(_Val)...);

  0001e	89 30		 mov	 DWORD PTR [eax], esi

; 688  :         _Orphan_range(_Mylast, _Mylast);
; 689  :         _Ty& _Result = *_Mylast;
; 690  :         ++_Mylast;

  00020	83 05 14 00 00
	00 04		 add	 DWORD PTR ?ms_kPool@CLightData@@2V?$CDynamicPool@VCLightData@@@@A+20, 4
  00027	5e		 pop	 esi
; File C:\DS Project\DS Files\Source\ClientSource\Client\EffectLib\SimpleLightData.cpp

; 20   : }

  00028	5d		 pop	 ebp
  00029	c3		 ret	 0
$LN8@Delete:
; File C:\Program Files (x86)\Microsoft Visual Studio\2019\Community\VC\Tools\MSVC\14.27.29110\include\vector

; 708  :         _Ty& _Result = *_Emplace_reallocate(_Mylast, _STD forward<_Valty>(_Val)...);

  0002a	8d 4d 08	 lea	 ecx, DWORD PTR _pkData$[ebp]
  0002d	51		 push	 ecx
  0002e	50		 push	 eax
  0002f	b9 10 00 00 00	 mov	 ecx, OFFSET ?ms_kPool@CLightData@@2V?$CDynamicPool@VCLightData@@@@A+16
  00034	e8 00 00 00 00	 call	 ??$_Emplace_reallocate@ABQAVCLightData@@@?$vector@PAVCLightData@@V?$allocator@PAVCLightData@@@std@@@std@@QAEPAPAVCLightData@@QAPAV2@ABQAV2@@Z ; std::vector<CLightData *,std::allocator<CLightData *> >::_Emplace_reallocate<CLightData * const &>
  00039	5e		 pop	 esi
; File C:\DS Project\DS Files\Source\ClientSource\Client\EffectLib\SimpleLightData.cpp

; 20   : }

  0003a	5d		 pop	 ebp
  0003b	c3		 ret	 0
?Delete@CLightData@@SAXPAV1@@Z ENDP			; CLightData::Delete
_TEXT	ENDS
; Function compile flags: /Ogtp
; File C:\DS Project\DS Files\Source\ClientSource\Client\EffectLib\SimpleLightData.cpp
; File C:\DS Project\DS Files\Source\ClientSource\Client\eterLib\Pool.h
; File C:\Program Files (x86)\Microsoft Visual Studio\2019\Community\VC\Tools\MSVC\14.27.29110\include\vector
; File C:\DS Project\DS Files\Source\ClientSource\Client\eterLib\Pool.h
; File C:\Program Files (x86)\Microsoft Visual Studio\2019\Community\VC\Tools\MSVC\14.27.29110\include\vector
; File C:\DS Project\DS Files\Source\ClientSource\Client\EffectLib\SimpleLightData.cpp
; File C:\Program Files (x86)\Microsoft Visual Studio\2019\Community\VC\Tools\MSVC\14.27.29110\include\vector
; File C:\DS Project\DS Files\Source\ClientSource\Client\eterLib\Pool.h
; File C:\DS Project\DS Files\Source\ClientSource\Client\EffectLib\SimpleLightData.cpp
; File C:\Program Files (x86)\Microsoft Visual Studio\2019\Community\VC\Tools\MSVC\14.27.29110\include\vector
; File C:\DS Project\DS Files\Source\ClientSource\Client\eterLib\Pool.h
; File C:\DS Project\DS Files\Source\ClientSource\Client\EffectLib\SimpleLightData.cpp
; File C:\DS Project\DS Files\Source\ClientSource\Client\eterLib\Pool.h
; File C:\Program Files (x86)\Microsoft Visual Studio\2019\Community\VC\Tools\MSVC\14.27.29110\include\vector
; File C:\DS Project\DS Files\Source\ClientSource\Client\EffectLib\SimpleLightData.cpp
;	COMDAT ?New@CLightData@@SAPAV1@XZ
_TEXT	SEGMENT
$T2 = -16						; size = 4
_pkNewData$3 = -16					; size = 4
__$EHRec$ = -12						; size = 12
?New@CLightData@@SAPAV1@XZ PROC				; CLightData::New, COMDAT

; 12   : {

  00000	55		 push	 ebp
  00001	8b ec		 mov	 ebp, esp
  00003	6a ff		 push	 -1
  00005	68 00 00 00 00	 push	 __ehhandler$?New@CLightData@@SAPAV1@XZ
  0000a	64 a1 00 00 00
	00		 mov	 eax, DWORD PTR fs:0
  00010	50		 push	 eax
  00011	51		 push	 ecx
  00012	56		 push	 esi
  00013	a1 00 00 00 00	 mov	 eax, DWORD PTR ___security_cookie
  00018	33 c5		 xor	 eax, ebp
  0001a	50		 push	 eax
  0001b	8d 45 f4	 lea	 eax, DWORD PTR __$EHRec$[ebp]
  0001e	64 a3 00 00 00
	00		 mov	 DWORD PTR fs:0, eax
; File C:\DS Project\DS Files\Source\ClientSource\Client\eterLib\Pool.h

; 63   : 			if (m_kVct_pkFree.empty())

  00024	8b 0d 14 00 00
	00		 mov	 ecx, DWORD PTR ?ms_kPool@CLightData@@2V?$CDynamicPool@VCLightData@@@@A+20
  0002a	39 0d 10 00 00
	00		 cmp	 DWORD PTR ?ms_kPool@CLightData@@2V?$CDynamicPool@VCLightData@@@@A+16, ecx
  00030	0f 85 84 00 00
	00		 jne	 $LN4@New

; 65   : 				T* pkNewData=new T;

  00036	6a 5c		 push	 92			; 0000005cH
  00038	e8 00 00 00 00	 call	 ??2@YAPAXI@Z		; operator new
  0003d	83 c4 04	 add	 esp, 4
  00040	89 45 f0	 mov	 DWORD PTR $T2[ebp], eax
  00043	c7 45 fc 00 00
	00 00		 mov	 DWORD PTR __$EHRec$[ebp+8], 0
  0004a	85 c0		 test	 eax, eax
  0004c	74 0b		 je	 SHORT $LN6@New
  0004e	8b c8		 mov	 ecx, eax
  00050	e8 00 00 00 00	 call	 ??0CLightData@@QAE@XZ	; CLightData::CLightData
  00055	8b f0		 mov	 esi, eax
  00057	eb 02		 jmp	 SHORT $LN7@New
$LN6@New:
  00059	33 f6		 xor	 esi, esi
$LN7@New:
; File C:\Program Files (x86)\Microsoft Visual Studio\2019\Community\VC\Tools\MSVC\14.27.29110\include\vector

; 704  :         if (_Mylast != _My_data._Myend) {

  0005b	a1 08 00 00 00	 mov	 eax, DWORD PTR ?ms_kPool@CLightData@@2V?$CDynamicPool@VCLightData@@@@A+8
; File C:\DS Project\DS Files\Source\ClientSource\Client\eterLib\Pool.h

; 65   : 				T* pkNewData=new T;

  00060	c7 45 fc ff ff
	ff ff		 mov	 DWORD PTR __$EHRec$[ebp+8], -1
  00067	89 75 f0	 mov	 DWORD PTR _pkNewData$3[ebp], esi
; File C:\Program Files (x86)\Microsoft Visual Studio\2019\Community\VC\Tools\MSVC\14.27.29110\include\vector

; 704  :         if (_Mylast != _My_data._Myend) {

  0006a	3b 05 0c 00 00
	00		 cmp	 eax, DWORD PTR ?ms_kPool@CLightData@@2V?$CDynamicPool@VCLightData@@@@A+12
  00070	74 21		 je	 SHORT $LN14@New

; 687  :         _Alty_traits::construct(_Getal(), _Unfancy(_Mylast), _STD forward<_Valty>(_Val)...);

  00072	89 30		 mov	 DWORD PTR [eax], esi
; File C:\DS Project\DS Files\Source\ClientSource\Client\EffectLib\SimpleLightData.cpp

; 13   : 	return ms_kPool.Alloc();

  00074	8b c6		 mov	 eax, esi
; File C:\Program Files (x86)\Microsoft Visual Studio\2019\Community\VC\Tools\MSVC\14.27.29110\include\vector

; 690  :         ++_Mylast;

  00076	83 05 08 00 00
	00 04		 add	 DWORD PTR ?ms_kPool@CLightData@@2V?$CDynamicPool@VCLightData@@@@A+8, 4
; File C:\DS Project\DS Files\Source\ClientSource\Client\eterLib\Pool.h

; 67   : 				++m_uUsedCapacity;

  0007d	ff 05 20 00 00
	00		 inc	 DWORD PTR ?ms_kPool@CLightData@@2V?$CDynamicPool@VCLightData@@@@A+32
; File C:\DS Project\DS Files\Source\ClientSource\Client\EffectLib\SimpleLightData.cpp

; 14   : }

  00083	8b 4d f4	 mov	 ecx, DWORD PTR __$EHRec$[ebp]
  00086	64 89 0d 00 00
	00 00		 mov	 DWORD PTR fs:0, ecx
  0008d	59		 pop	 ecx
  0008e	5e		 pop	 esi
  0008f	8b e5		 mov	 esp, ebp
  00091	5d		 pop	 ebp
  00092	c3		 ret	 0
$LN14@New:
; File C:\Program Files (x86)\Microsoft Visual Studio\2019\Community\VC\Tools\MSVC\14.27.29110\include\vector

; 708  :         _Ty& _Result = *_Emplace_reallocate(_Mylast, _STD forward<_Valty>(_Val)...);

  00093	8d 4d f0	 lea	 ecx, DWORD PTR _pkNewData$3[ebp]
  00096	51		 push	 ecx
  00097	50		 push	 eax
  00098	b9 04 00 00 00	 mov	 ecx, OFFSET ?ms_kPool@CLightData@@2V?$CDynamicPool@VCLightData@@@@A+4
  0009d	e8 00 00 00 00	 call	 ??$_Emplace_reallocate@ABQAVCLightData@@@?$vector@PAVCLightData@@V?$allocator@PAVCLightData@@@std@@@std@@QAEPAPAVCLightData@@QAPAV2@ABQAV2@@Z ; std::vector<CLightData *,std::allocator<CLightData *> >::_Emplace_reallocate<CLightData * const &>
; File C:\DS Project\DS Files\Source\ClientSource\Client\eterLib\Pool.h

; 67   : 				++m_uUsedCapacity;

  000a2	ff 05 20 00 00
	00		 inc	 DWORD PTR ?ms_kPool@CLightData@@2V?$CDynamicPool@VCLightData@@@@A+32
; File C:\DS Project\DS Files\Source\ClientSource\Client\EffectLib\SimpleLightData.cpp

; 13   : 	return ms_kPool.Alloc();

  000a8	8b c6		 mov	 eax, esi

; 14   : }

  000aa	8b 4d f4	 mov	 ecx, DWORD PTR __$EHRec$[ebp]
  000ad	64 89 0d 00 00
	00 00		 mov	 DWORD PTR fs:0, ecx
  000b4	59		 pop	 ecx
  000b5	5e		 pop	 esi
  000b6	8b e5		 mov	 esp, ebp
  000b8	5d		 pop	 ebp
  000b9	c3		 ret	 0
$LN4@New:
; File C:\DS Project\DS Files\Source\ClientSource\Client\eterLib\Pool.h

; 71   : 			T* pkFreeData=m_kVct_pkFree.back();

  000ba	8b 41 fc	 mov	 eax, DWORD PTR [ecx-4]
; File C:\Program Files (x86)\Microsoft Visual Studio\2019\Community\VC\Tools\MSVC\14.27.29110\include\vector

; 1559 :         return _My_data._Mylast[-1];

  000bd	83 c1 fc	 add	 ecx, -4			; fffffffcH

; 1338 :         --_Mylast;

  000c0	89 0d 14 00 00
	00		 mov	 DWORD PTR ?ms_kPool@CLightData@@2V?$CDynamicPool@VCLightData@@@@A+20, ecx
; File C:\DS Project\DS Files\Source\ClientSource\Client\EffectLib\SimpleLightData.cpp

; 14   : }

  000c6	8b 4d f4	 mov	 ecx, DWORD PTR __$EHRec$[ebp]
  000c9	64 89 0d 00 00
	00 00		 mov	 DWORD PTR fs:0, ecx
  000d0	59		 pop	 ecx
  000d1	5e		 pop	 esi
  000d2	8b e5		 mov	 esp, ebp
  000d4	5d		 pop	 ebp
  000d5	c3		 ret	 0
_TEXT	ENDS
;	COMDAT text$x
text$x	SEGMENT
__unwindfunclet$?New@CLightData@@SAPAV1@XZ$0:
  00000	6a 5c		 push	 92			; 0000005cH
  00002	8b 45 f0	 mov	 eax, DWORD PTR $T2[ebp]
  00005	50		 push	 eax
  00006	e8 00 00 00 00	 call	 ??3@YAXPAXI@Z		; operator delete
  0000b	83 c4 08	 add	 esp, 8
  0000e	c3		 ret	 0
  0000f	cc		 int	 3
  00010	cc		 int	 3
  00011	cc		 int	 3
  00012	cc		 int	 3
  00013	cc		 int	 3
__ehhandler$?New@CLightData@@SAPAV1@XZ:
  00014	90		 npad	 1
  00015	90		 npad	 1
  00016	8b 54 24 08	 mov	 edx, DWORD PTR [esp+8]
  0001a	8d 42 0c	 lea	 eax, DWORD PTR [edx+12]
  0001d	8b 4a f4	 mov	 ecx, DWORD PTR [edx-12]
  00020	33 c8		 xor	 ecx, eax
  00022	e8 00 00 00 00	 call	 @__security_check_cookie@4
  00027	b8 00 00 00 00	 mov	 eax, OFFSET __ehfuncinfo$?New@CLightData@@SAPAV1@XZ
  0002c	e9 00 00 00 00	 jmp	 ___CxxFrameHandler3
text$x	ENDS
?New@CLightData@@SAPAV1@XZ ENDP				; CLightData::New
; Function compile flags: /Ogtp
; File C:\DS Project\DS Files\Source\ClientSource\Client\EffectLib\SimpleLightData.cpp
; File C:\Program Files (x86)\Microsoft Visual Studio\2019\Community\VC\Tools\MSVC\14.27.29110\include\algorithm
; File C:\DS Project\DS Files\Source\ClientSource\Client\EffectLib\SimpleLightData.cpp
; File C:\Program Files (x86)\Microsoft Visual Studio\2019\Community\VC\Tools\MSVC\14.27.29110\include\algorithm
; File C:\DS Project\DS Files\Source\ClientSource\Client\eterLib\Pool.h
; File C:\Program Files (x86)\Microsoft Visual Studio\2019\Community\VC\Tools\MSVC\14.27.29110\include\algorithm
; File C:\DS Project\DS Files\Source\ClientSource\Client\eterLib\Pool.h
; File C:\DS Project\DS Files\Source\ClientSource\Client\EffectLib\SimpleLightData.cpp
; File C:\DS Project\DS Files\Source\ClientSource\Client\eterLib\Pool.h
; File C:\DS Project\DS Files\Source\ClientSource\Client\EffectLib\SimpleLightData.cpp
;	COMDAT ?DestroySystem@CLightData@@SAXXZ
_TEXT	SEGMENT
?DestroySystem@CLightData@@SAXXZ PROC			; CLightData::DestroySystem, COMDAT

; 7    : {

  00000	56		 push	 esi
; File C:\Program Files (x86)\Microsoft Visual Studio\2019\Community\VC\Tools\MSVC\14.27.29110\include\algorithm

; 235  :     for (; _UFirst != _ULast; ++_UFirst) {

  00001	8b 35 04 00 00
	00		 mov	 esi, DWORD PTR ?ms_kPool@CLightData@@2V?$CDynamicPool@VCLightData@@@@A+4
; File C:\DS Project\DS Files\Source\ClientSource\Client\EffectLib\SimpleLightData.cpp

; 7    : {

  00007	57		 push	 edi
; File C:\Program Files (x86)\Microsoft Visual Studio\2019\Community\VC\Tools\MSVC\14.27.29110\include\algorithm

; 234  :     const auto _ULast = _Get_unwrapped(_Last);

  00008	8b 3d 08 00 00
	00		 mov	 edi, DWORD PTR ?ms_kPool@CLightData@@2V?$CDynamicPool@VCLightData@@@@A+8

; 235  :     for (; _UFirst != _ULast; ++_UFirst) {

  0000e	3b f7		 cmp	 esi, edi
  00010	74 2a		 je	 SHORT $LN30@DestroySys
$LL20@DestroySys:
; File C:\DS Project\DS Files\Source\ClientSource\Client\eterLib\Pool.h

; 110  : 			delete pkData;

  00012	8b 0e		 mov	 ecx, DWORD PTR [esi]
  00014	85 c9		 test	 ecx, ecx
  00016	74 06		 je	 SHORT $LN18@DestroySys
  00018	8b 01		 mov	 eax, DWORD PTR [ecx]
  0001a	6a 01		 push	 1
  0001c	ff 10		 call	 DWORD PTR [eax]
$LN18@DestroySys:
; File C:\Program Files (x86)\Microsoft Visual Studio\2019\Community\VC\Tools\MSVC\14.27.29110\include\algorithm

; 235  :     for (; _UFirst != _ULast; ++_UFirst) {

  0001e	83 c6 04	 add	 esi, 4
  00021	3b f7		 cmp	 esi, edi
  00023	75 ed		 jne	 SHORT $LL20@DestroySys
; File C:\DS Project\DS Files\Source\ClientSource\Client\eterLib\Pool.h

; 51   : 			m_kVct_pkData.clear();

  00025	a1 04 00 00 00	 mov	 eax, DWORD PTR ?ms_kPool@CLightData@@2V?$CDynamicPool@VCLightData@@@@A+4
  0002a	a3 08 00 00 00	 mov	 DWORD PTR ?ms_kPool@CLightData@@2V?$CDynamicPool@VCLightData@@@@A+8, eax
; File C:\DS Project\DS Files\Source\ClientSource\Client\EffectLib\SimpleLightData.cpp

; 9    : }

  0002f	a1 10 00 00 00	 mov	 eax, DWORD PTR ?ms_kPool@CLightData@@2V?$CDynamicPool@VCLightData@@@@A+16
  00034	5f		 pop	 edi
  00035	a3 14 00 00 00	 mov	 DWORD PTR ?ms_kPool@CLightData@@2V?$CDynamicPool@VCLightData@@@@A+20, eax
  0003a	5e		 pop	 esi
  0003b	c3		 ret	 0
$LN30@DestroySys:
  0003c	a1 10 00 00 00	 mov	 eax, DWORD PTR ?ms_kPool@CLightData@@2V?$CDynamicPool@VCLightData@@@@A+16
  00041	5f		 pop	 edi
; File C:\DS Project\DS Files\Source\ClientSource\Client\eterLib\Pool.h

; 51   : 			m_kVct_pkData.clear();

  00042	89 35 08 00 00
	00		 mov	 DWORD PTR ?ms_kPool@CLightData@@2V?$CDynamicPool@VCLightData@@@@A+8, esi
; File C:\DS Project\DS Files\Source\ClientSource\Client\EffectLib\SimpleLightData.cpp

; 9    : }

  00048	a3 14 00 00 00	 mov	 DWORD PTR ?ms_kPool@CLightData@@2V?$CDynamicPool@VCLightData@@@@A+20, eax
  0004d	5e		 pop	 esi
  0004e	c3		 ret	 0
?DestroySystem@CLightData@@SAXXZ ENDP			; CLightData::DestroySystem
_TEXT	ENDS
; Function compile flags: /Ogtp
; File C:\Program Files (x86)\Microsoft Visual Studio\2019\Community\VC\Tools\MSVC\14.27.29110\include\vector
; File C:\Program Files (x86)\Microsoft Visual Studio\2019\Community\VC\Tools\MSVC\14.27.29110\include\xmemory
; File C:\Program Files (x86)\Microsoft Visual Studio\2019\Community\VC\Tools\MSVC\14.27.29110\include\vector
; File C:\Program Files (x86)\Microsoft Visual Studio\2019\Community\VC\Tools\MSVC\14.27.29110\include\xmemory
; File C:\Program Files (x86)\Microsoft Visual Studio\2019\Community\VC\Tools\MSVC\14.27.29110\include\vector
;	COMDAT ??1?$vector@V?$CTimeEvent@M@@V?$allocator@V?$CTimeEvent@M@@@std@@@std@@QAE@XZ
_TEXT	SEGMENT
??1?$vector@V?$CTimeEvent@M@@V?$allocator@V?$CTimeEvent@M@@@std@@@std@@QAE@XZ PROC ; std::vector<CTimeEvent<float>,std::allocator<CTimeEvent<float> > >::~vector<CTimeEvent<float>,std::allocator<CTimeEvent<float> > >, COMDAT
; _this$ = ecx

; 672  :     ~vector() noexcept {

  00000	56		 push	 esi
  00001	8b f1		 mov	 esi, ecx

; 1693 :         if (_Myfirst) { // destroy and deallocate old array

  00003	8b 0e		 mov	 ecx, DWORD PTR [esi]
  00005	85 c9		 test	 ecx, ecx
  00007	74 26		 je	 SHORT $LN4@vector

; 1694 :             _Destroy(_Myfirst, _Mylast);
; 1695 :             _Getal().deallocate(_Myfirst, static_cast<size_type>(_Myend - _Myfirst));

  00009	8b 46 08	 mov	 eax, DWORD PTR [esi+8]
  0000c	2b c1		 sub	 eax, ecx
; File C:\Program Files (x86)\Microsoft Visual Studio\2019\Community\VC\Tools\MSVC\14.27.29110\include\xmemory

; 803  :         _Deallocate<_New_alignof<_Ty>>(_Ptr, sizeof(_Ty) * _Count);

  0000e	83 e0 f8	 and	 eax, -8			; fffffff8H
  00011	50		 push	 eax
  00012	51		 push	 ecx
  00013	e8 00 00 00 00	 call	 ??$_Deallocate@$07$0A@@std@@YAXPAXI@Z ; std::_Deallocate<8,0>
; File C:\Program Files (x86)\Microsoft Visual Studio\2019\Community\VC\Tools\MSVC\14.27.29110\include\vector

; 1697 :             _Myfirst = pointer();

  00018	c7 06 00 00 00
	00		 mov	 DWORD PTR [esi], 0
; File C:\Program Files (x86)\Microsoft Visual Studio\2019\Community\VC\Tools\MSVC\14.27.29110\include\xmemory

; 803  :         _Deallocate<_New_alignof<_Ty>>(_Ptr, sizeof(_Ty) * _Count);

  0001e	83 c4 08	 add	 esp, 8
; File C:\Program Files (x86)\Microsoft Visual Studio\2019\Community\VC\Tools\MSVC\14.27.29110\include\vector

; 1698 :             _Mylast  = pointer();

  00021	c7 46 04 00 00
	00 00		 mov	 DWORD PTR [esi+4], 0

; 1699 :             _Myend   = pointer();

  00028	c7 46 08 00 00
	00 00		 mov	 DWORD PTR [esi+8], 0
$LN4@vector:
  0002f	5e		 pop	 esi

; 673  :         _Tidy();
; 674  : #if _ITERATOR_DEBUG_LEVEL != 0
; 675  :         auto&& _Alproxy = _GET_PROXY_ALLOCATOR(_Alty, _Getal());
; 676  :         _Delete_plain_internal(_Alproxy, _STD exchange(_Mypair._Myval2._Myproxy, nullptr));
; 677  : #endif // _ITERATOR_DEBUG_LEVEL != 0
; 678  :     }

  00030	c3		 ret	 0
??1?$vector@V?$CTimeEvent@M@@V?$allocator@V?$CTimeEvent@M@@@std@@@std@@QAE@XZ ENDP ; std::vector<CTimeEvent<float>,std::allocator<CTimeEvent<float> > >::~vector<CTimeEvent<float>,std::allocator<CTimeEvent<float> > >
_TEXT	ENDS
; Function compile flags: /Ogtp
; File C:\DS Project\DS Files\Source\ClientSource\Client\EffectLib\SimpleLightData.cpp
; File C:\Program Files (x86)\Microsoft Visual Studio\2019\Community\VC\Tools\MSVC\14.27.29110\include\xstring
; File C:\DS Project\DS Files\Source\ClientSource\Client\EffectLib\SimpleLightData.cpp
; File C:\Program Files (x86)\Microsoft Visual Studio\2019\Community\VC\Tools\MSVC\14.27.29110\include\xstring
; File C:\Program Files (x86)\Microsoft Visual Studio\2019\Community\VC\Tools\MSVC\14.27.29110\include\xmemory
; File C:\DS Project\DS Files\Source\ClientSource\Client\EffectLib\SimpleLightData.cpp
; File C:\Program Files (x86)\Microsoft Visual Studio\2019\Community\VC\Tools\MSVC\14.27.29110\include\xstring
; File C:\DS Project\DS Files\Source\ClientSource\Client\EffectLib\SimpleLightData.cpp
; File C:\Program Files (x86)\Microsoft Visual Studio\2019\Community\VC\Tools\MSVC\14.27.29110\include\xstring
; File C:\Program Files (x86)\Microsoft Visual Studio\2019\Community\VC\Tools\MSVC\14.27.29110\include\xmemory
; File C:\DS Project\DS Files\Source\ClientSource\Client\EffectLib\SimpleLightData.cpp
; File C:\Program Files (x86)\Microsoft Visual Studio\2019\Community\VC\Tools\MSVC\14.27.29110\include\xstring
; File C:\DS Project\DS Files\Source\ClientSource\Client\EffectLib\SimpleLightData.cpp
; File C:\Program Files (x86)\Microsoft Visual Studio\2019\Community\VC\Tools\MSVC\14.27.29110\include\xstring
; File C:\Program Files (x86)\Microsoft Visual Studio\2019\Community\VC\Tools\MSVC\14.27.29110\include\xmemory
; File C:\DS Project\DS Files\Source\ClientSource\Client\EffectLib\SimpleLightData.cpp
; File C:\Program Files (x86)\Microsoft Visual Studio\2019\Community\VC\Tools\MSVC\14.27.29110\include\xstring
; File C:\DS Project\DS Files\Source\ClientSource\Client\EffectLib\SimpleLightData.cpp
; File C:\Program Files (x86)\Microsoft Visual Studio\2019\Community\VC\Tools\MSVC\14.27.29110\include\xstring
; File C:\Program Files (x86)\Microsoft Visual Studio\2019\Community\VC\Tools\MSVC\14.27.29110\include\xmemory
; File C:\DS Project\DS Files\Source\ClientSource\Client\EffectLib\SimpleLightData.cpp
; File C:\Program Files (x86)\Microsoft Visual Studio\2019\Community\VC\Tools\MSVC\14.27.29110\include\xstring
; File C:\DS Project\DS Files\Source\ClientSource\Client\EffectLib\SimpleLightData.cpp
; File C:\Program Files (x86)\Microsoft Visual Studio\2019\Community\VC\Tools\MSVC\14.27.29110\include\xstring
; File C:\Program Files (x86)\Microsoft Visual Studio\2019\Community\VC\Tools\MSVC\14.27.29110\include\xmemory
; File C:\DS Project\DS Files\Source\ClientSource\Client\EffectLib\SimpleLightData.cpp
; File C:\Program Files (x86)\Microsoft Visual Studio\2019\Community\VC\Tools\MSVC\14.27.29110\include\xstring
; File C:\DS Project\DS Files\Source\ClientSource\Client\EffectLib\SimpleLightData.cpp
; File C:\Program Files (x86)\Microsoft Visual Studio\2019\Community\VC\Tools\MSVC\14.27.29110\include\xstring
; File C:\Program Files (x86)\Microsoft Visual Studio\2019\Community\VC\Tools\MSVC\14.27.29110\include\xmemory
; File C:\DS Project\DS Files\Source\ClientSource\Client\EffectLib\SimpleLightData.cpp
; File C:\Program Files (x86)\Microsoft Visual Studio\2019\Community\VC\Tools\MSVC\14.27.29110\include\xstring
; File C:\DS Project\DS Files\Source\ClientSource\Client\EffectLib\SimpleLightData.cpp
; File C:\Program Files (x86)\Microsoft Visual Studio\2019\Community\VC\Tools\MSVC\14.27.29110\include\xstring
; File C:\Program Files (x86)\Microsoft Visual Studio\2019\Community\VC\Tools\MSVC\14.27.29110\include\xmemory
; File C:\DS Project\DS Files\Source\ClientSource\Client\EffectLib\SimpleLightData.cpp
;	COMDAT ?OnLoadScript@CLightData@@MAEHAAVCTextFileLoader@@@Z
_TEXT	SEGMENT
tv802 = -65						; size = 1
tv800 = -65						; size = 1
tv798 = -65						; size = 1
tv797 = -65						; size = 1
tv796 = -65						; size = 1
tv795 = -65						; size = 1
tv794 = -65						; size = 1
$T2 = -64						; size = 24
$T3 = -40						; size = 24
$T4 = -40						; size = 24
$T5 = -40						; size = 24
$T6 = -40						; size = 24
$T7 = -40						; size = 24
$T8 = -40						; size = 24
$T9 = -40						; size = 24
$T10 = -40						; size = 24
__$ArrayPad$ = -16					; size = 4
__$EHRec$ = -12						; size = 12
_rTextFileLoader$ = 8					; size = 4
?OnLoadScript@CLightData@@MAEHAAVCTextFileLoader@@@Z PROC ; CLightData::OnLoadScript, COMDAT
; _this$ = ecx

; 99   : {

  00000	55		 push	 ebp
  00001	8b ec		 mov	 ebp, esp
  00003	6a ff		 push	 -1
  00005	68 00 00 00 00	 push	 __ehhandler$?OnLoadScript@CLightData@@MAEHAAVCTextFileLoader@@@Z
  0000a	64 a1 00 00 00
	00		 mov	 eax, DWORD PTR fs:0
  00010	50		 push	 eax
  00011	83 ec 38	 sub	 esp, 56			; 00000038H
  00014	a1 00 00 00 00	 mov	 eax, DWORD PTR ___security_cookie
  00019	33 c5		 xor	 eax, ebp
  0001b	89 45 f0	 mov	 DWORD PTR __$ArrayPad$[ebp], eax
  0001e	53		 push	 ebx
  0001f	56		 push	 esi
  00020	57		 push	 edi
  00021	50		 push	 eax
  00022	8d 45 f4	 lea	 eax, DWORD PTR __$EHRec$[ebp]
  00025	64 a3 00 00 00
	00		 mov	 DWORD PTR fs:0, eax
  0002b	8b f9		 mov	 edi, ecx
  0002d	8b 5d 08	 mov	 ebx, DWORD PTR _rTextFileLoader$[ebp]

; 100  : 	if (!rTextFileLoader.GetTokenFloat("duration",&m_fDuration))

  00030	8d 4d d8	 lea	 ecx, DWORD PTR $T10[ebp]
  00033	68 00 00 00 00	 push	 OFFSET ??_C@_08LGBPINEC@duration@
  00038	e8 00 00 00 00	 call	 ??0?$basic_string@DU?$char_traits@D@std@@V?$allocator@D@2@@std@@QAE@QBD@Z ; std::basic_string<char,std::char_traits<char>,std::allocator<char> >::basic_string<char,std::char_traits<char>,std::allocator<char> >
  0003d	8d 77 18	 lea	 esi, DWORD PTR [edi+24]
  00040	c7 45 fc 00 00
	00 00		 mov	 DWORD PTR __$EHRec$[ebp+8], 0
  00047	56		 push	 esi
  00048	8d 45 d8	 lea	 eax, DWORD PTR $T10[ebp]
  0004b	8b cb		 mov	 ecx, ebx
  0004d	50		 push	 eax
  0004e	e8 00 00 00 00	 call	 ?GetTokenFloat@CTextFileLoader@@QAEHABV?$basic_string@DU?$char_traits@D@std@@V?$allocator@D@2@@std@@PAM@Z ; CTextFileLoader::GetTokenFloat
  00053	85 c0		 test	 eax, eax
  00055	c7 45 fc ff ff
	ff ff		 mov	 DWORD PTR __$EHRec$[ebp+8], -1
; File C:\Program Files (x86)\Microsoft Visual Studio\2019\Community\VC\Tools\MSVC\14.27.29110\include\xstring

; 4301 :         if (_Mypair._Myval2._Large_string_engaged()) {

  0005c	8b 45 ec	 mov	 eax, DWORD PTR $T10[ebp+20]
; File C:\DS Project\DS Files\Source\ClientSource\Client\EffectLib\SimpleLightData.cpp

; 100  : 	if (!rTextFileLoader.GetTokenFloat("duration",&m_fDuration))

  0005f	0f 94 45 bf	 sete	 BYTE PTR tv802[ebp]
; File C:\Program Files (x86)\Microsoft Visual Studio\2019\Community\VC\Tools\MSVC\14.27.29110\include\xstring

; 4301 :         if (_Mypair._Myval2._Large_string_engaged()) {

  00063	83 f8 10	 cmp	 eax, 16			; 00000010H
  00066	72 0d		 jb	 SHORT $LN26@OnLoadScri

; 4302 :             const pointer _Ptr = _Mypair._Myval2._Bx._Ptr;
; 4303 :             auto& _Al          = _Getal();
; 4304 :             _Destroy_in_place(_Mypair._Myval2._Bx._Ptr);
; 4305 :             _Al.deallocate(_Ptr, _Mypair._Myval2._Myres + 1);

  00068	40		 inc	 eax
; File C:\Program Files (x86)\Microsoft Visual Studio\2019\Community\VC\Tools\MSVC\14.27.29110\include\xmemory

; 803  :         _Deallocate<_New_alignof<_Ty>>(_Ptr, sizeof(_Ty) * _Count);

  00069	50		 push	 eax
  0006a	ff 75 d8	 push	 DWORD PTR $T10[ebp]
  0006d	e8 00 00 00 00	 call	 ??$_Deallocate@$07$0A@@std@@YAXPAXI@Z ; std::_Deallocate<8,0>
  00072	83 c4 08	 add	 esp, 8
$LN26@OnLoadScri:
; File C:\DS Project\DS Files\Source\ClientSource\Client\EffectLib\SimpleLightData.cpp

; 100  : 	if (!rTextFileLoader.GetTokenFloat("duration",&m_fDuration))

  00075	80 7d bf 00	 cmp	 BYTE PTR tv802[ebp], 0
  00079	74 06		 je	 SHORT $LN2@OnLoadScri

; 101  : 		m_fDuration = 1.0f;

  0007b	c7 06 00 00 80
	3f		 mov	 DWORD PTR [esi], 1065353216 ; 3f800000H
$LN2@OnLoadScri:

; 103  : 	if (!rTextFileLoader.GetTokenBoolean("loopflag",&m_bLoopFlag))

  00081	68 00 00 00 00	 push	 OFFSET ??_C@_08NIJNIMBK@loopflag@
  00086	8d 4d d8	 lea	 ecx, DWORD PTR $T9[ebp]
  00089	e8 00 00 00 00	 call	 ??0?$basic_string@DU?$char_traits@D@std@@V?$allocator@D@2@@std@@QAE@QBD@Z ; std::basic_string<char,std::char_traits<char>,std::allocator<char> >::basic_string<char,std::char_traits<char>,std::allocator<char> >
  0008e	8d 77 48	 lea	 esi, DWORD PTR [edi+72]
  00091	c7 45 fc 01 00
	00 00		 mov	 DWORD PTR __$EHRec$[ebp+8], 1
  00098	56		 push	 esi
  00099	8d 45 d8	 lea	 eax, DWORD PTR $T9[ebp]
  0009c	8b cb		 mov	 ecx, ebx
  0009e	50		 push	 eax
  0009f	e8 00 00 00 00	 call	 ?GetTokenBoolean@CTextFileLoader@@QAEHABV?$basic_string@DU?$char_traits@D@std@@V?$allocator@D@2@@std@@PAH@Z ; CTextFileLoader::GetTokenBoolean
  000a4	85 c0		 test	 eax, eax
  000a6	c7 45 fc ff ff
	ff ff		 mov	 DWORD PTR __$EHRec$[ebp+8], -1
; File C:\Program Files (x86)\Microsoft Visual Studio\2019\Community\VC\Tools\MSVC\14.27.29110\include\xstring

; 4301 :         if (_Mypair._Myval2._Large_string_engaged()) {

  000ad	8b 45 ec	 mov	 eax, DWORD PTR $T9[ebp+20]
; File C:\DS Project\DS Files\Source\ClientSource\Client\EffectLib\SimpleLightData.cpp

; 103  : 	if (!rTextFileLoader.GetTokenBoolean("loopflag",&m_bLoopFlag))

  000b0	0f 94 45 bf	 sete	 BYTE PTR tv800[ebp]
; File C:\Program Files (x86)\Microsoft Visual Studio\2019\Community\VC\Tools\MSVC\14.27.29110\include\xstring

; 4301 :         if (_Mypair._Myval2._Large_string_engaged()) {

  000b4	83 f8 10	 cmp	 eax, 16			; 00000010H
  000b7	72 0d		 jb	 SHORT $LN36@OnLoadScri

; 4302 :             const pointer _Ptr = _Mypair._Myval2._Bx._Ptr;
; 4303 :             auto& _Al          = _Getal();
; 4304 :             _Destroy_in_place(_Mypair._Myval2._Bx._Ptr);
; 4305 :             _Al.deallocate(_Ptr, _Mypair._Myval2._Myres + 1);

  000b9	40		 inc	 eax
; File C:\Program Files (x86)\Microsoft Visual Studio\2019\Community\VC\Tools\MSVC\14.27.29110\include\xmemory

; 803  :         _Deallocate<_New_alignof<_Ty>>(_Ptr, sizeof(_Ty) * _Count);

  000ba	50		 push	 eax
  000bb	ff 75 d8	 push	 DWORD PTR $T9[ebp]
  000be	e8 00 00 00 00	 call	 ??$_Deallocate@$07$0A@@std@@YAXPAXI@Z ; std::_Deallocate<8,0>
  000c3	83 c4 08	 add	 esp, 8
$LN36@OnLoadScri:
; File C:\DS Project\DS Files\Source\ClientSource\Client\EffectLib\SimpleLightData.cpp

; 103  : 	if (!rTextFileLoader.GetTokenBoolean("loopflag",&m_bLoopFlag))

  000c6	80 7d bf 00	 cmp	 BYTE PTR tv800[ebp], 0
  000ca	74 06		 je	 SHORT $LN3@OnLoadScri

; 104  : 		m_bLoopFlag = false;

  000cc	c7 06 00 00 00
	00		 mov	 DWORD PTR [esi], 0
$LN3@OnLoadScri:

; 106  : 	if (!rTextFileLoader.GetTokenInteger("loopcount",&m_iLoopCount))

  000d2	68 00 00 00 00	 push	 OFFSET ??_C@_09HBCOMICA@loopcount@
  000d7	8d 4d d8	 lea	 ecx, DWORD PTR $T8[ebp]
  000da	e8 00 00 00 00	 call	 ??0?$basic_string@DU?$char_traits@D@std@@V?$allocator@D@2@@std@@QAE@QBD@Z ; std::basic_string<char,std::char_traits<char>,std::allocator<char> >::basic_string<char,std::char_traits<char>,std::allocator<char> >
  000df	8d 77 4c	 lea	 esi, DWORD PTR [edi+76]
  000e2	c7 45 fc 02 00
	00 00		 mov	 DWORD PTR __$EHRec$[ebp+8], 2
  000e9	56		 push	 esi
  000ea	8d 45 d8	 lea	 eax, DWORD PTR $T8[ebp]
  000ed	8b cb		 mov	 ecx, ebx
  000ef	50		 push	 eax
  000f0	e8 00 00 00 00	 call	 ?GetTokenInteger@CTextFileLoader@@QAEHABV?$basic_string@DU?$char_traits@D@std@@V?$allocator@D@2@@std@@PAH@Z ; CTextFileLoader::GetTokenInteger
  000f5	85 c0		 test	 eax, eax
  000f7	c7 45 fc ff ff
	ff ff		 mov	 DWORD PTR __$EHRec$[ebp+8], -1
; File C:\Program Files (x86)\Microsoft Visual Studio\2019\Community\VC\Tools\MSVC\14.27.29110\include\xstring

; 4301 :         if (_Mypair._Myval2._Large_string_engaged()) {

  000fe	8b 45 ec	 mov	 eax, DWORD PTR $T8[ebp+20]
; File C:\DS Project\DS Files\Source\ClientSource\Client\EffectLib\SimpleLightData.cpp

; 106  : 	if (!rTextFileLoader.GetTokenInteger("loopcount",&m_iLoopCount))

  00101	0f 94 45 bf	 sete	 BYTE PTR tv798[ebp]
; File C:\Program Files (x86)\Microsoft Visual Studio\2019\Community\VC\Tools\MSVC\14.27.29110\include\xstring

; 4301 :         if (_Mypair._Myval2._Large_string_engaged()) {

  00105	83 f8 10	 cmp	 eax, 16			; 00000010H
  00108	72 0d		 jb	 SHORT $LN46@OnLoadScri

; 4302 :             const pointer _Ptr = _Mypair._Myval2._Bx._Ptr;
; 4303 :             auto& _Al          = _Getal();
; 4304 :             _Destroy_in_place(_Mypair._Myval2._Bx._Ptr);
; 4305 :             _Al.deallocate(_Ptr, _Mypair._Myval2._Myres + 1);

  0010a	40		 inc	 eax
; File C:\Program Files (x86)\Microsoft Visual Studio\2019\Community\VC\Tools\MSVC\14.27.29110\include\xmemory

; 803  :         _Deallocate<_New_alignof<_Ty>>(_Ptr, sizeof(_Ty) * _Count);

  0010b	50		 push	 eax
  0010c	ff 75 d8	 push	 DWORD PTR $T8[ebp]
  0010f	e8 00 00 00 00	 call	 ??$_Deallocate@$07$0A@@std@@YAXPAXI@Z ; std::_Deallocate<8,0>
  00114	83 c4 08	 add	 esp, 8
$LN46@OnLoadScri:
; File C:\DS Project\DS Files\Source\ClientSource\Client\EffectLib\SimpleLightData.cpp

; 106  : 	if (!rTextFileLoader.GetTokenInteger("loopcount",&m_iLoopCount))

  00117	80 7d bf 00	 cmp	 BYTE PTR tv798[ebp], 0
  0011b	74 06		 je	 SHORT $LN4@OnLoadScri

; 107  : 		m_iLoopCount = 0;

  0011d	c7 06 00 00 00
	00		 mov	 DWORD PTR [esi], 0
$LN4@OnLoadScri:

; 109  : 	if (!rTextFileLoader.GetTokenColor("ambientcolor",&m_cAmbient))

  00123	68 00 00 00 00	 push	 OFFSET ??_C@_0N@MBJLBHOD@ambientcolor@
  00128	8d 4d d8	 lea	 ecx, DWORD PTR $T7[ebp]
  0012b	e8 00 00 00 00	 call	 ??0?$basic_string@DU?$char_traits@D@std@@V?$allocator@D@2@@std@@QAE@QBD@Z ; std::basic_string<char,std::char_traits<char>,std::allocator<char> >::basic_string<char,std::char_traits<char>,std::allocator<char> >
  00130	8d 47 28	 lea	 eax, DWORD PTR [edi+40]
  00133	c7 45 fc 03 00
	00 00		 mov	 DWORD PTR __$EHRec$[ebp+8], 3
  0013a	50		 push	 eax
  0013b	8d 45 d8	 lea	 eax, DWORD PTR $T7[ebp]
  0013e	8b cb		 mov	 ecx, ebx
  00140	50		 push	 eax
  00141	e8 00 00 00 00	 call	 ?GetTokenColor@CTextFileLoader@@QAEHABV?$basic_string@DU?$char_traits@D@std@@V?$allocator@D@2@@std@@PAUD3DXCOLOR@@@Z ; CTextFileLoader::GetTokenColor
  00146	85 c0		 test	 eax, eax
  00148	c7 45 fc ff ff
	ff ff		 mov	 DWORD PTR __$EHRec$[ebp+8], -1
; File C:\Program Files (x86)\Microsoft Visual Studio\2019\Community\VC\Tools\MSVC\14.27.29110\include\xstring

; 4301 :         if (_Mypair._Myval2._Large_string_engaged()) {

  0014f	8b 45 ec	 mov	 eax, DWORD PTR $T7[ebp+20]
; File C:\DS Project\DS Files\Source\ClientSource\Client\EffectLib\SimpleLightData.cpp

; 109  : 	if (!rTextFileLoader.GetTokenColor("ambientcolor",&m_cAmbient))

  00152	0f 94 45 bf	 sete	 BYTE PTR tv797[ebp]
; File C:\Program Files (x86)\Microsoft Visual Studio\2019\Community\VC\Tools\MSVC\14.27.29110\include\xstring

; 4301 :         if (_Mypair._Myval2._Large_string_engaged()) {

  00156	83 f8 10	 cmp	 eax, 16			; 00000010H
  00159	72 0d		 jb	 SHORT $LN56@OnLoadScri

; 4302 :             const pointer _Ptr = _Mypair._Myval2._Bx._Ptr;
; 4303 :             auto& _Al          = _Getal();
; 4304 :             _Destroy_in_place(_Mypair._Myval2._Bx._Ptr);
; 4305 :             _Al.deallocate(_Ptr, _Mypair._Myval2._Myres + 1);

  0015b	40		 inc	 eax
; File C:\Program Files (x86)\Microsoft Visual Studio\2019\Community\VC\Tools\MSVC\14.27.29110\include\xmemory

; 803  :         _Deallocate<_New_alignof<_Ty>>(_Ptr, sizeof(_Ty) * _Count);

  0015c	50		 push	 eax
  0015d	ff 75 d8	 push	 DWORD PTR $T7[ebp]
  00160	e8 00 00 00 00	 call	 ??$_Deallocate@$07$0A@@std@@YAXPAXI@Z ; std::_Deallocate<8,0>
  00165	83 c4 08	 add	 esp, 8
$LN56@OnLoadScri:
; File C:\DS Project\DS Files\Source\ClientSource\Client\EffectLib\SimpleLightData.cpp

; 109  : 	if (!rTextFileLoader.GetTokenColor("ambientcolor",&m_cAmbient))

  00168	80 7d bf 00	 cmp	 BYTE PTR tv797[ebp], 0
  0016c	0f 85 7f 01 00
	00		 jne	 $LN92@OnLoadScri

; 112  : 	if (!rTextFileLoader.GetTokenColor("diffusecolor",&m_cDiffuse))

  00172	68 00 00 00 00	 push	 OFFSET ??_C@_0N@BELHEGHB@diffusecolor@
  00177	8d 4d d8	 lea	 ecx, DWORD PTR $T6[ebp]
  0017a	e8 00 00 00 00	 call	 ??0?$basic_string@DU?$char_traits@D@std@@V?$allocator@D@2@@std@@QAE@QBD@Z ; std::basic_string<char,std::char_traits<char>,std::allocator<char> >::basic_string<char,std::char_traits<char>,std::allocator<char> >
  0017f	8d 47 38	 lea	 eax, DWORD PTR [edi+56]
  00182	c7 45 fc 04 00
	00 00		 mov	 DWORD PTR __$EHRec$[ebp+8], 4
  00189	50		 push	 eax
  0018a	8d 45 d8	 lea	 eax, DWORD PTR $T6[ebp]
  0018d	8b cb		 mov	 ecx, ebx
  0018f	50		 push	 eax
  00190	e8 00 00 00 00	 call	 ?GetTokenColor@CTextFileLoader@@QAEHABV?$basic_string@DU?$char_traits@D@std@@V?$allocator@D@2@@std@@PAUD3DXCOLOR@@@Z ; CTextFileLoader::GetTokenColor
  00195	85 c0		 test	 eax, eax
  00197	c7 45 fc ff ff
	ff ff		 mov	 DWORD PTR __$EHRec$[ebp+8], -1
; File C:\Program Files (x86)\Microsoft Visual Studio\2019\Community\VC\Tools\MSVC\14.27.29110\include\xstring

; 4301 :         if (_Mypair._Myval2._Large_string_engaged()) {

  0019e	8b 45 ec	 mov	 eax, DWORD PTR $T6[ebp+20]
; File C:\DS Project\DS Files\Source\ClientSource\Client\EffectLib\SimpleLightData.cpp

; 112  : 	if (!rTextFileLoader.GetTokenColor("diffusecolor",&m_cDiffuse))

  001a1	0f 94 45 bf	 sete	 BYTE PTR tv796[ebp]
; File C:\Program Files (x86)\Microsoft Visual Studio\2019\Community\VC\Tools\MSVC\14.27.29110\include\xstring

; 4301 :         if (_Mypair._Myval2._Large_string_engaged()) {

  001a5	83 f8 10	 cmp	 eax, 16			; 00000010H
  001a8	72 0d		 jb	 SHORT $LN66@OnLoadScri

; 4302 :             const pointer _Ptr = _Mypair._Myval2._Bx._Ptr;
; 4303 :             auto& _Al          = _Getal();
; 4304 :             _Destroy_in_place(_Mypair._Myval2._Bx._Ptr);
; 4305 :             _Al.deallocate(_Ptr, _Mypair._Myval2._Myres + 1);

  001aa	40		 inc	 eax
; File C:\Program Files (x86)\Microsoft Visual Studio\2019\Community\VC\Tools\MSVC\14.27.29110\include\xmemory

; 803  :         _Deallocate<_New_alignof<_Ty>>(_Ptr, sizeof(_Ty) * _Count);

  001ab	50		 push	 eax
  001ac	ff 75 d8	 push	 DWORD PTR $T6[ebp]
  001af	e8 00 00 00 00	 call	 ??$_Deallocate@$07$0A@@std@@YAXPAXI@Z ; std::_Deallocate<8,0>
  001b4	83 c4 08	 add	 esp, 8
$LN66@OnLoadScri:
; File C:\DS Project\DS Files\Source\ClientSource\Client\EffectLib\SimpleLightData.cpp

; 112  : 	if (!rTextFileLoader.GetTokenColor("diffusecolor",&m_cDiffuse))

  001b7	80 7d bf 00	 cmp	 BYTE PTR tv796[ebp], 0
  001bb	0f 85 30 01 00
	00		 jne	 $LN92@OnLoadScri

; 115  : 	if (!rTextFileLoader.GetTokenFloat("maxrange",&m_fMaxRange))

  001c1	68 00 00 00 00	 push	 OFFSET ??_C@_08BLEPIDIL@maxrange@
  001c6	8d 4d d8	 lea	 ecx, DWORD PTR $T5[ebp]
  001c9	e8 00 00 00 00	 call	 ??0?$basic_string@DU?$char_traits@D@std@@V?$allocator@D@2@@std@@QAE@QBD@Z ; std::basic_string<char,std::char_traits<char>,std::allocator<char> >::basic_string<char,std::char_traits<char>,std::allocator<char> >
  001ce	8d 47 14	 lea	 eax, DWORD PTR [edi+20]
  001d1	c7 45 fc 05 00
	00 00		 mov	 DWORD PTR __$EHRec$[ebp+8], 5
  001d8	50		 push	 eax
  001d9	8d 45 d8	 lea	 eax, DWORD PTR $T5[ebp]
  001dc	8b cb		 mov	 ecx, ebx
  001de	50		 push	 eax
  001df	e8 00 00 00 00	 call	 ?GetTokenFloat@CTextFileLoader@@QAEHABV?$basic_string@DU?$char_traits@D@std@@V?$allocator@D@2@@std@@PAM@Z ; CTextFileLoader::GetTokenFloat
  001e4	85 c0		 test	 eax, eax
  001e6	c7 45 fc ff ff
	ff ff		 mov	 DWORD PTR __$EHRec$[ebp+8], -1
; File C:\Program Files (x86)\Microsoft Visual Studio\2019\Community\VC\Tools\MSVC\14.27.29110\include\xstring

; 4301 :         if (_Mypair._Myval2._Large_string_engaged()) {

  001ed	8b 45 ec	 mov	 eax, DWORD PTR $T5[ebp+20]
; File C:\DS Project\DS Files\Source\ClientSource\Client\EffectLib\SimpleLightData.cpp

; 115  : 	if (!rTextFileLoader.GetTokenFloat("maxrange",&m_fMaxRange))

  001f0	0f 94 45 bf	 sete	 BYTE PTR tv795[ebp]
; File C:\Program Files (x86)\Microsoft Visual Studio\2019\Community\VC\Tools\MSVC\14.27.29110\include\xstring

; 4301 :         if (_Mypair._Myval2._Large_string_engaged()) {

  001f4	83 f8 10	 cmp	 eax, 16			; 00000010H
  001f7	72 0d		 jb	 SHORT $LN76@OnLoadScri

; 4302 :             const pointer _Ptr = _Mypair._Myval2._Bx._Ptr;
; 4303 :             auto& _Al          = _Getal();
; 4304 :             _Destroy_in_place(_Mypair._Myval2._Bx._Ptr);
; 4305 :             _Al.deallocate(_Ptr, _Mypair._Myval2._Myres + 1);

  001f9	40		 inc	 eax
; File C:\Program Files (x86)\Microsoft Visual Studio\2019\Community\VC\Tools\MSVC\14.27.29110\include\xmemory

; 803  :         _Deallocate<_New_alignof<_Ty>>(_Ptr, sizeof(_Ty) * _Count);

  001fa	50		 push	 eax
  001fb	ff 75 d8	 push	 DWORD PTR $T5[ebp]
  001fe	e8 00 00 00 00	 call	 ??$_Deallocate@$07$0A@@std@@YAXPAXI@Z ; std::_Deallocate<8,0>
  00203	83 c4 08	 add	 esp, 8
$LN76@OnLoadScri:
; File C:\DS Project\DS Files\Source\ClientSource\Client\EffectLib\SimpleLightData.cpp

; 115  : 	if (!rTextFileLoader.GetTokenFloat("maxrange",&m_fMaxRange))

  00206	80 7d bf 00	 cmp	 BYTE PTR tv795[ebp], 0
  0020a	0f 85 e1 00 00
	00		 jne	 $LN92@OnLoadScri

; 118  : 	if (!rTextFileLoader.GetTokenFloat("attenuation0",&m_fAttenuation0))

  00210	68 00 00 00 00	 push	 OFFSET ??_C@_0N@NKJMABJM@attenuation0@
  00215	8d 4d d8	 lea	 ecx, DWORD PTR $T4[ebp]
  00218	e8 00 00 00 00	 call	 ??0?$basic_string@DU?$char_traits@D@std@@V?$allocator@D@2@@std@@QAE@QBD@Z ; std::basic_string<char,std::char_traits<char>,std::allocator<char> >::basic_string<char,std::char_traits<char>,std::allocator<char> >
  0021d	8d 47 50	 lea	 eax, DWORD PTR [edi+80]
  00220	c7 45 fc 06 00
	00 00		 mov	 DWORD PTR __$EHRec$[ebp+8], 6
  00227	50		 push	 eax
  00228	8d 45 d8	 lea	 eax, DWORD PTR $T4[ebp]
  0022b	8b cb		 mov	 ecx, ebx
  0022d	50		 push	 eax
  0022e	e8 00 00 00 00	 call	 ?GetTokenFloat@CTextFileLoader@@QAEHABV?$basic_string@DU?$char_traits@D@std@@V?$allocator@D@2@@std@@PAM@Z ; CTextFileLoader::GetTokenFloat
  00233	85 c0		 test	 eax, eax
  00235	c7 45 fc ff ff
	ff ff		 mov	 DWORD PTR __$EHRec$[ebp+8], -1
; File C:\Program Files (x86)\Microsoft Visual Studio\2019\Community\VC\Tools\MSVC\14.27.29110\include\xstring

; 4301 :         if (_Mypair._Myval2._Large_string_engaged()) {

  0023c	8b 45 ec	 mov	 eax, DWORD PTR $T4[ebp+20]
; File C:\DS Project\DS Files\Source\ClientSource\Client\EffectLib\SimpleLightData.cpp

; 118  : 	if (!rTextFileLoader.GetTokenFloat("attenuation0",&m_fAttenuation0))

  0023f	0f 94 45 bf	 sete	 BYTE PTR tv794[ebp]
; File C:\Program Files (x86)\Microsoft Visual Studio\2019\Community\VC\Tools\MSVC\14.27.29110\include\xstring

; 4301 :         if (_Mypair._Myval2._Large_string_engaged()) {

  00243	83 f8 10	 cmp	 eax, 16			; 00000010H
  00246	72 0d		 jb	 SHORT $LN86@OnLoadScri

; 4302 :             const pointer _Ptr = _Mypair._Myval2._Bx._Ptr;
; 4303 :             auto& _Al          = _Getal();
; 4304 :             _Destroy_in_place(_Mypair._Myval2._Bx._Ptr);
; 4305 :             _Al.deallocate(_Ptr, _Mypair._Myval2._Myres + 1);

  00248	40		 inc	 eax
; File C:\Program Files (x86)\Microsoft Visual Studio\2019\Community\VC\Tools\MSVC\14.27.29110\include\xmemory

; 803  :         _Deallocate<_New_alignof<_Ty>>(_Ptr, sizeof(_Ty) * _Count);

  00249	50		 push	 eax
  0024a	ff 75 d8	 push	 DWORD PTR $T4[ebp]
  0024d	e8 00 00 00 00	 call	 ??$_Deallocate@$07$0A@@std@@YAXPAXI@Z ; std::_Deallocate<8,0>
  00252	83 c4 08	 add	 esp, 8
$LN86@OnLoadScri:
; File C:\DS Project\DS Files\Source\ClientSource\Client\EffectLib\SimpleLightData.cpp

; 118  : 	if (!rTextFileLoader.GetTokenFloat("attenuation0",&m_fAttenuation0))

  00255	80 7d bf 00	 cmp	 BYTE PTR tv794[ebp], 0
  00259	0f 85 92 00 00
	00		 jne	 $LN92@OnLoadScri

; 119  : 		return FALSE;
; 120  : 
; 121  : 	if (!rTextFileLoader.GetTokenFloat("attenuation1",&m_fAttenuation1))

  0025f	68 00 00 00 00	 push	 OFFSET ??_C@_0N@MDIHDANN@attenuation1@
  00264	8d 4d d8	 lea	 ecx, DWORD PTR $T3[ebp]
  00267	e8 00 00 00 00	 call	 ??0?$basic_string@DU?$char_traits@D@std@@V?$allocator@D@2@@std@@QAE@QBD@Z ; std::basic_string<char,std::char_traits<char>,std::allocator<char> >::basic_string<char,std::char_traits<char>,std::allocator<char> >
  0026c	8d 47 54	 lea	 eax, DWORD PTR [edi+84]
  0026f	c7 45 fc 07 00
	00 00		 mov	 DWORD PTR __$EHRec$[ebp+8], 7
  00276	50		 push	 eax
  00277	8d 45 d8	 lea	 eax, DWORD PTR $T3[ebp]
  0027a	8b cb		 mov	 ecx, ebx
  0027c	50		 push	 eax
  0027d	e8 00 00 00 00	 call	 ?GetTokenFloat@CTextFileLoader@@QAEHABV?$basic_string@DU?$char_traits@D@std@@V?$allocator@D@2@@std@@PAM@Z ; CTextFileLoader::GetTokenFloat
  00282	8d 4d d8	 lea	 ecx, DWORD PTR $T3[ebp]
  00285	c7 45 fc ff ff
	ff ff		 mov	 DWORD PTR __$EHRec$[ebp+8], -1
  0028c	8b f0		 mov	 esi, eax
  0028e	e8 00 00 00 00	 call	 ??1?$basic_string@DU?$char_traits@D@std@@V?$allocator@D@2@@std@@QAE@XZ ; std::basic_string<char,std::char_traits<char>,std::allocator<char> >::~basic_string<char,std::char_traits<char>,std::allocator<char> >
  00293	85 f6		 test	 esi, esi
  00295	74 5a		 je	 SHORT $LN92@OnLoadScri

; 122  : 		return FALSE;
; 123  : 
; 124  : 	if (!rTextFileLoader.GetTokenFloat("attenuation2",&m_fAttenuation2))

  00297	68 00 00 00 00	 push	 OFFSET ??_C@_0N@OIKKGDBO@attenuation2@
  0029c	8d 4d c0	 lea	 ecx, DWORD PTR $T2[ebp]
  0029f	e8 00 00 00 00	 call	 ??0?$basic_string@DU?$char_traits@D@std@@V?$allocator@D@2@@std@@QAE@QBD@Z ; std::basic_string<char,std::char_traits<char>,std::allocator<char> >::basic_string<char,std::char_traits<char>,std::allocator<char> >
  002a4	8d 47 58	 lea	 eax, DWORD PTR [edi+88]
  002a7	c7 45 fc 08 00
	00 00		 mov	 DWORD PTR __$EHRec$[ebp+8], 8
  002ae	50		 push	 eax
  002af	8d 45 c0	 lea	 eax, DWORD PTR $T2[ebp]
  002b2	8b cb		 mov	 ecx, ebx
  002b4	50		 push	 eax
  002b5	e8 00 00 00 00	 call	 ?GetTokenFloat@CTextFileLoader@@QAEHABV?$basic_string@DU?$char_traits@D@std@@V?$allocator@D@2@@std@@PAM@Z ; CTextFileLoader::GetTokenFloat
  002ba	8d 4d c0	 lea	 ecx, DWORD PTR $T2[ebp]
  002bd	c7 45 fc ff ff
	ff ff		 mov	 DWORD PTR __$EHRec$[ebp+8], -1
  002c4	8b f0		 mov	 esi, eax
  002c6	e8 00 00 00 00	 call	 ??1?$basic_string@DU?$char_traits@D@std@@V?$allocator@D@2@@std@@QAE@XZ ; std::basic_string<char,std::char_traits<char>,std::allocator<char> >::~basic_string<char,std::char_traits<char>,std::allocator<char> >
  002cb	85 f6		 test	 esi, esi
  002cd	74 22		 je	 SHORT $LN92@OnLoadScri

; 126  : 
; 127  : 	if (!GetTokenTimeEventFloat(rTextFileLoader,"timeeventrange",&m_TimeEventTableRange))

  002cf	83 c7 1c	 add	 edi, 28			; 0000001cH
  002d2	57		 push	 edi
  002d3	68 00 00 00 00	 push	 OFFSET ??_C@_0P@CJMOPDJ@timeeventrange@
  002d8	53		 push	 ebx
  002d9	e8 00 00 00 00	 call	 ?GetTokenTimeEventFloat@@YAHAAVCTextFileLoader@@PBDPAV?$vector@V?$CTimeEvent@M@@V?$allocator@V?$CTimeEvent@M@@@std@@@std@@@Z ; GetTokenTimeEventFloat
  002de	83 c4 0c	 add	 esp, 12			; 0000000cH
  002e1	85 c0		 test	 eax, eax
  002e3	75 05		 jne	 SHORT $LN11@OnLoadScri

; 128  : 	{
; 129  : 		m_TimeEventTableRange.clear();

  002e5	8b 07		 mov	 eax, DWORD PTR [edi]
  002e7	89 47 04	 mov	 DWORD PTR [edi+4], eax
$LN11@OnLoadScri:

; 130  : 	}
; 131  : 
; 132  : 	return true;

  002ea	b8 01 00 00 00	 mov	 eax, 1
  002ef	eb 02		 jmp	 SHORT $LN1@OnLoadScri
$LN92@OnLoadScri:

; 125  : 		return FALSE;

  002f1	33 c0		 xor	 eax, eax
$LN1@OnLoadScri:

; 133  : }

  002f3	8b 4d f4	 mov	 ecx, DWORD PTR __$EHRec$[ebp]
  002f6	64 89 0d 00 00
	00 00		 mov	 DWORD PTR fs:0, ecx
  002fd	59		 pop	 ecx
  002fe	5f		 pop	 edi
  002ff	5e		 pop	 esi
  00300	5b		 pop	 ebx
  00301	8b 4d f0	 mov	 ecx, DWORD PTR __$ArrayPad$[ebp]
  00304	33 cd		 xor	 ecx, ebp
  00306	e8 00 00 00 00	 call	 @__security_check_cookie@4
  0030b	8b e5		 mov	 esp, ebp
  0030d	5d		 pop	 ebp
  0030e	c2 04 00	 ret	 4
_TEXT	ENDS
;	COMDAT text$x
text$x	SEGMENT
__unwindfunclet$?OnLoadScript@CLightData@@MAEHAAVCTextFileLoader@@@Z$0:
  00000	8d 4d d8	 lea	 ecx, DWORD PTR $T10[ebp]
  00003	e9 00 00 00 00	 jmp	 ??1?$basic_string@DU?$char_traits@D@std@@V?$allocator@D@2@@std@@QAE@XZ ; std::basic_string<char,std::char_traits<char>,std::allocator<char> >::~basic_string<char,std::char_traits<char>,std::allocator<char> >
__unwindfunclet$?OnLoadScript@CLightData@@MAEHAAVCTextFileLoader@@@Z$1:
  00008	8d 4d d8	 lea	 ecx, DWORD PTR $T9[ebp]
  0000b	e9 00 00 00 00	 jmp	 ??1?$basic_string@DU?$char_traits@D@std@@V?$allocator@D@2@@std@@QAE@XZ ; std::basic_string<char,std::char_traits<char>,std::allocator<char> >::~basic_string<char,std::char_traits<char>,std::allocator<char> >
__unwindfunclet$?OnLoadScript@CLightData@@MAEHAAVCTextFileLoader@@@Z$2:
  00010	8d 4d d8	 lea	 ecx, DWORD PTR $T8[ebp]
  00013	e9 00 00 00 00	 jmp	 ??1?$basic_string@DU?$char_traits@D@std@@V?$allocator@D@2@@std@@QAE@XZ ; std::basic_string<char,std::char_traits<char>,std::allocator<char> >::~basic_string<char,std::char_traits<char>,std::allocator<char> >
__unwindfunclet$?OnLoadScript@CLightData@@MAEHAAVCTextFileLoader@@@Z$3:
  00018	8d 4d d8	 lea	 ecx, DWORD PTR $T7[ebp]
  0001b	e9 00 00 00 00	 jmp	 ??1?$basic_string@DU?$char_traits@D@std@@V?$allocator@D@2@@std@@QAE@XZ ; std::basic_string<char,std::char_traits<char>,std::allocator<char> >::~basic_string<char,std::char_traits<char>,std::allocator<char> >
__unwindfunclet$?OnLoadScript@CLightData@@MAEHAAVCTextFileLoader@@@Z$4:
  00020	8d 4d d8	 lea	 ecx, DWORD PTR $T6[ebp]
  00023	e9 00 00 00 00	 jmp	 ??1?$basic_string@DU?$char_traits@D@std@@V?$allocator@D@2@@std@@QAE@XZ ; std::basic_string<char,std::char_traits<char>,std::allocator<char> >::~basic_string<char,std::char_traits<char>,std::allocator<char> >
__unwindfunclet$?OnLoadScript@CLightData@@MAEHAAVCTextFileLoader@@@Z$5:
  00028	8d 4d d8	 lea	 ecx, DWORD PTR $T5[ebp]
  0002b	e9 00 00 00 00	 jmp	 ??1?$basic_string@DU?$char_traits@D@std@@V?$allocator@D@2@@std@@QAE@XZ ; std::basic_string<char,std::char_traits<char>,std::allocator<char> >::~basic_string<char,std::char_traits<char>,std::allocator<char> >
__unwindfunclet$?OnLoadScript@CLightData@@MAEHAAVCTextFileLoader@@@Z$6:
  00030	8d 4d d8	 lea	 ecx, DWORD PTR $T4[ebp]
  00033	e9 00 00 00 00	 jmp	 ??1?$basic_string@DU?$char_traits@D@std@@V?$allocator@D@2@@std@@QAE@XZ ; std::basic_string<char,std::char_traits<char>,std::allocator<char> >::~basic_string<char,std::char_traits<char>,std::allocator<char> >
__unwindfunclet$?OnLoadScript@CLightData@@MAEHAAVCTextFileLoader@@@Z$7:
  00038	8d 4d d8	 lea	 ecx, DWORD PTR $T3[ebp]
  0003b	e9 00 00 00 00	 jmp	 ??1?$basic_string@DU?$char_traits@D@std@@V?$allocator@D@2@@std@@QAE@XZ ; std::basic_string<char,std::char_traits<char>,std::allocator<char> >::~basic_string<char,std::char_traits<char>,std::allocator<char> >
__unwindfunclet$?OnLoadScript@CLightData@@MAEHAAVCTextFileLoader@@@Z$8:
  00040	8d 4d c0	 lea	 ecx, DWORD PTR $T2[ebp]
  00043	e9 00 00 00 00	 jmp	 ??1?$basic_string@DU?$char_traits@D@std@@V?$allocator@D@2@@std@@QAE@XZ ; std::basic_string<char,std::char_traits<char>,std::allocator<char> >::~basic_string<char,std::char_traits<char>,std::allocator<char> >
  00048	cc		 int	 3
  00049	cc		 int	 3
  0004a	cc		 int	 3
  0004b	cc		 int	 3
  0004c	cc		 int	 3
__ehhandler$?OnLoadScript@CLightData@@MAEHAAVCTextFileLoader@@@Z:
  0004d	90		 npad	 1
  0004e	90		 npad	 1
  0004f	8b 54 24 08	 mov	 edx, DWORD PTR [esp+8]
  00053	8d 42 0c	 lea	 eax, DWORD PTR [edx+12]
  00056	8b 4a b8	 mov	 ecx, DWORD PTR [edx-72]
  00059	33 c8		 xor	 ecx, eax
  0005b	e8 00 00 00 00	 call	 @__security_check_cookie@4
  00060	8b 4a fc	 mov	 ecx, DWORD PTR [edx-4]
  00063	33 c8		 xor	 ecx, eax
  00065	e8 00 00 00 00	 call	 @__security_check_cookie@4
  0006a	b8 00 00 00 00	 mov	 eax, OFFSET __ehfuncinfo$?OnLoadScript@CLightData@@MAEHAAVCTextFileLoader@@@Z
  0006f	e9 00 00 00 00	 jmp	 ___CxxFrameHandler3
text$x	ENDS
?OnLoadScript@CLightData@@MAEHAAVCTextFileLoader@@@Z ENDP ; CLightData::OnLoadScript
; Function compile flags: /Ogtp
; File C:\DS Project\DS Files\Source\ClientSource\Client\EffectLib\SimpleLightData.cpp
;	COMDAT ?OnIsData@CLightData@@MAE_NXZ
_TEXT	SEGMENT
?OnIsData@CLightData@@MAE_NXZ PROC			; CLightData::OnIsData, COMDAT
; _this$ = ecx

; 95   : 	return true;

  00000	b0 01		 mov	 al, 1

; 96   : }

  00002	c3		 ret	 0
?OnIsData@CLightData@@MAE_NXZ ENDP			; CLightData::OnIsData
_TEXT	ENDS
; Function compile flags: /Ogtp
; File C:\DS Project\DS Files\Source\ClientSource\Client\EffectLib\SimpleLightData.cpp
;	COMDAT ?OnClear@CLightData@@MAEXXZ
_TEXT	SEGMENT
?OnClear@CLightData@@MAEXXZ PROC			; CLightData::OnClear, COMDAT
; _this$ = ecx

; 26   : 	m_fMaxRange = 300.0f;
; 27   : 
; 28   : 	m_TimeEventTableRange.clear();

  00000	8b 41 1c	 mov	 eax, DWORD PTR [ecx+28]
  00003	c7 41 14 00 00
	96 43		 mov	 DWORD PTR [ecx+20], 1133903872 ; 43960000H
  0000a	89 41 20	 mov	 DWORD PTR [ecx+32], eax

; 29   : 
; 30   : 	m_cAmbient.r = 0.5f;

  0000d	c7 41 28 00 00
	00 3f		 mov	 DWORD PTR [ecx+40], 1056964608 ; 3f000000H

; 31   : 	m_cAmbient.g = 0.5f;

  00014	c7 41 2c 00 00
	00 3f		 mov	 DWORD PTR [ecx+44], 1056964608 ; 3f000000H

; 32   : 	m_cAmbient.b = 0.5f;

  0001b	c7 41 30 00 00
	00 3f		 mov	 DWORD PTR [ecx+48], 1056964608 ; 3f000000H

; 33   : 	m_cAmbient.a = 1.0f;

  00022	c7 41 34 00 00
	80 3f		 mov	 DWORD PTR [ecx+52], 1065353216 ; 3f800000H

; 34   : 	m_cDiffuse.r = 0.0f;

  00029	c7 41 38 00 00
	00 00		 mov	 DWORD PTR [ecx+56], 0

; 35   : 	m_cDiffuse.g = 0.0f;

  00030	c7 41 3c 00 00
	00 00		 mov	 DWORD PTR [ecx+60], 0

; 36   : 	m_cDiffuse.b = 0.0f;

  00037	c7 41 40 00 00
	00 00		 mov	 DWORD PTR [ecx+64], 0

; 37   : 	m_cDiffuse.a = 1.0f;

  0003e	c7 41 44 00 00
	80 3f		 mov	 DWORD PTR [ecx+68], 1065353216 ; 3f800000H

; 38   : 
; 39   : 	m_fDuration = 1.0f;

  00045	c7 41 18 00 00
	80 3f		 mov	 DWORD PTR [ecx+24], 1065353216 ; 3f800000H

; 40   : 
; 41   : 	m_fAttenuation0 = 0.0f;

  0004c	c7 41 50 00 00
	00 00		 mov	 DWORD PTR [ecx+80], 0

; 42   : 	m_fAttenuation1 = 0.1f;

  00053	c7 41 54 cd cc
	cc 3d		 mov	 DWORD PTR [ecx+84], 1036831949 ; 3dcccccdH

; 43   : 	m_fAttenuation2 = 0.0f;

  0005a	c7 41 58 00 00
	00 00		 mov	 DWORD PTR [ecx+88], 0

; 44   : 
; 45   : 	m_bLoopFlag = false;

  00061	c7 41 48 00 00
	00 00		 mov	 DWORD PTR [ecx+72], 0

; 46   : 	m_iLoopCount = 0;

  00068	c7 41 4c 00 00
	00 00		 mov	 DWORD PTR [ecx+76], 0

; 47   : }

  0006f	c3		 ret	 0
?OnClear@CLightData@@MAEXXZ ENDP			; CLightData::OnClear
_TEXT	ENDS
; Function compile flags: /Ogtp
; File C:\DS Project\DS Files\Source\ClientSource\Client\EffectLib\SimpleLightData.cpp
;	COMDAT ?InitializeLight@CLightData@@QAEXAAU_D3DLIGHT8@@@Z
_TEXT	SEGMENT
_position$ = -16					; size = 12
__$ArrayPad$ = -4					; size = 4
_light$ = 8						; size = 4
?InitializeLight@CLightData@@QAEXAAU_D3DLIGHT8@@@Z PROC	; CLightData::InitializeLight, COMDAT
; _this$ = ecx

; 149  : {

  00000	55		 push	 ebp
  00001	8b ec		 mov	 ebp, esp
  00003	83 ec 10	 sub	 esp, 16			; 00000010H
  00006	a1 00 00 00 00	 mov	 eax, DWORD PTR ___security_cookie
  0000b	33 c5		 xor	 eax, ebp
  0000d	89 45 fc	 mov	 DWORD PTR __$ArrayPad$[ebp], eax
  00010	56		 push	 esi
  00011	8b 75 08	 mov	 esi, DWORD PTR _light$[ebp]
  00014	57		 push	 edi
  00015	8b f9		 mov	 edi, ecx

; 150  : 	light.Type = D3DLIGHT_POINT;

  00017	c7 06 01 00 00
	00		 mov	 DWORD PTR [esi], 1

; 151  : 
; 152  : 	light.Ambient = m_cAmbient;

  0001d	0f 10 47 28	 movups	 xmm0, XMMWORD PTR [edi+40]
  00021	0f 11 46 24	 movups	 XMMWORD PTR [esi+36], xmm0

; 153  : 	light.Diffuse = m_cDiffuse;

  00025	0f 10 47 38	 movups	 xmm0, XMMWORD PTR [edi+56]
  00029	0f 11 46 04	 movups	 XMMWORD PTR [esi+4], xmm0

; 154  : 	light.Attenuation0 = m_fAttenuation0;

  0002d	8b 47 50	 mov	 eax, DWORD PTR [edi+80]
  00030	89 46 54	 mov	 DWORD PTR [esi+84], eax

; 155  : 	light.Attenuation1 = m_fAttenuation1;

  00033	8b 47 54	 mov	 eax, DWORD PTR [edi+84]
  00036	89 46 58	 mov	 DWORD PTR [esi+88], eax

; 156  : 	light.Attenuation2 = m_fAttenuation2;

  00039	8b 47 58	 mov	 eax, DWORD PTR [edi+88]
  0003c	89 46 5c	 mov	 DWORD PTR [esi+92], eax

; 157  : 
; 158  : 
; 159  : 	D3DXVECTOR3 position;
; 160  : 	GetPosition( 0.0f, position);

  0003f	8d 45 f0	 lea	 eax, DWORD PTR _position$[ebp]
  00042	50		 push	 eax
  00043	51		 push	 ecx
  00044	c7 04 24 00 00
	00 00		 mov	 DWORD PTR [esp], 0
  0004b	e8 00 00 00 00	 call	 ?GetPosition@CEffectElementBase@@QAEXMAAUD3DXVECTOR3@@@Z ; CEffectElementBase::GetPosition

; 161  : 	light.Position = position;

  00050	f3 0f 7e 45 f0	 movq	 xmm0, QWORD PTR _position$[ebp]
  00055	8b 45 f8	 mov	 eax, DWORD PTR _position$[ebp+8]
  00058	66 0f d6 46 34	 movq	 QWORD PTR [esi+52], xmm0
  0005d	89 46 3c	 mov	 DWORD PTR [esi+60], eax

; 162  : 
; 163  : 	GetRange(0.0f, light.Range);

  00060	8d 46 4c	 lea	 eax, DWORD PTR [esi+76]
  00063	50		 push	 eax
  00064	51		 push	 ecx
  00065	8b cf		 mov	 ecx, edi
  00067	c7 04 24 00 00
	00 00		 mov	 DWORD PTR [esp], 0
  0006e	e8 00 00 00 00	 call	 ?GetRange@CLightData@@QAEXMAAM@Z ; CLightData::GetRange

; 164  : }

  00073	8b 4d fc	 mov	 ecx, DWORD PTR __$ArrayPad$[ebp]
  00076	5f		 pop	 edi
  00077	33 cd		 xor	 ecx, ebp
  00079	5e		 pop	 esi
  0007a	e8 00 00 00 00	 call	 @__security_check_cookie@4
  0007f	8b e5		 mov	 esp, ebp
  00081	5d		 pop	 ebp
  00082	c2 04 00	 ret	 4
?InitializeLight@CLightData@@QAEXAAU_D3DLIGHT8@@@Z ENDP	; CLightData::InitializeLight
_TEXT	ENDS
; Function compile flags: /Ogtp
; File C:\DS Project\DS Files\Source\ClientSource\Client\EffectLib\SimpleLightData.cpp
;	COMDAT ?GetDuration@CLightData@@QAEMXZ
_TEXT	SEGMENT
?GetDuration@CLightData@@QAEMXZ PROC			; CLightData::GetDuration, COMDAT
; _this$ = ecx

; 146  : 	return m_fDuration;

  00000	d9 41 18	 fld	 DWORD PTR [ecx+24]

; 147  : }

  00003	c3		 ret	 0
?GetDuration@CLightData@@QAEMXZ ENDP			; CLightData::GetDuration
_TEXT	ENDS
; Function compile flags: /Ogtp
; File C:\DS Project\DS Files\Source\ClientSource\Client\EffectLib\SimpleLightData.cpp
; File C:\Program Files (x86)\Microsoft Visual Studio\2019\Community\VC\Tools\MSVC\14.27.29110\include\vector
; File C:\DS Project\DS Files\Source\ClientSource\Client\EffectLib\SimpleLightData.cpp
; File C:\Program Files (x86)\Microsoft Visual Studio\2019\Community\VC\Tools\MSVC\14.27.29110\include\vector
; File C:\DS Project\DS Files\Source\ClientSource\Client\EffectLib\SimpleLightData.cpp
; File C:\Program Files (x86)\Microsoft Visual Studio\2019\Community\VC\Tools\MSVC\14.27.29110\include\vector
; File C:\DS Project\DS Files\Source\ClientSource\Client\EffectLib\Type.h
; File C:\Program Files (x86)\Microsoft Visual Studio\2019\Community\VC\Tools\MSVC\14.27.29110\include\vector
; File C:\DS Project\DS Files\Source\ClientSource\Client\EffectLib\Type.h
; File C:\Program Files (x86)\Microsoft Visual Studio\2019\Community\VC\Tools\MSVC\14.27.29110\include\vector
; File C:\DS Project\DS Files\Source\ClientSource\Client\EffectLib\Type.h
; File C:\Program Files (x86)\Microsoft Visual Studio\2019\Community\VC\Tools\MSVC\14.27.29110\include\vector
; File C:\DS Project\DS Files\Source\ClientSource\Client\EffectLib\Type.h
; File C:\Program Files (x86)\Microsoft Visual Studio\2019\Community\VC\Tools\MSVC\14.27.29110\include\vector
; File C:\DS Project\DS Files\Source\ClientSource\Client\EffectLib\Type.h
; File C:\Program Files (x86)\Microsoft Visual Studio\2019\Community\VC\Tools\MSVC\14.27.29110\include\vector
; File C:\DS Project\DS Files\Source\ClientSource\Client\EffectLib\Type.h
; File C:\DS Project\DS Files\Source\ClientSource\Client\EffectLib\SimpleLightData.cpp
;	COMDAT ?GetRange@CLightData@@QAEXMAAM@Z
_TEXT	SEGMENT
_result$1 = -12						; size = 8
_fElapsedTime$ = -4					; size = 4
_fTime$ = 8						; size = 4
_rRange$ = 12						; size = 4
?GetRange@CLightData@@QAEXMAAM@Z PROC			; CLightData::GetRange, COMDAT
; _this$ = ecx

; 49   : {

  00000	55		 push	 ebp
  00001	8b ec		 mov	 ebp, esp
  00003	83 ec 0c	 sub	 esp, 12			; 0000000cH
  00006	57		 push	 edi
  00007	8b f9		 mov	 edi, ecx
; File C:\Program Files (x86)\Microsoft Visual Studio\2019\Community\VC\Tools\MSVC\14.27.29110\include\vector

; 1479 :         return _My_data._Myfirst == _My_data._Mylast;

  00009	8b 47 1c	 mov	 eax, DWORD PTR [edi+28]
  0000c	8b 57 20	 mov	 edx, DWORD PTR [edi+32]
  0000f	3b c2		 cmp	 eax, edx
; File C:\DS Project\DS Files\Source\ClientSource\Client\EffectLib\SimpleLightData.cpp

; 50   : 	if (m_TimeEventTableRange.empty())

  00011	75 0d		 jne	 SHORT $LN2@GetRange

; 51   : 	{
; 52   : 		rRange = 1.0f * m_fMaxRange;

  00013	f3 0f 10 4f 14	 movss	 xmm1, DWORD PTR [edi+20]
  00018	8b 45 0c	 mov	 eax, DWORD PTR _rRange$[ebp]

; 53   : 		if (rRange<0.0f)
; 54   : 			rRange = 0.0f;
; 55   : 		return;

  0001b	e9 b3 00 00 00	 jmp	 $LN78@GetRange
$LN2@GetRange:

; 58   : 	GetTimeEventBlendValue(fTime, m_TimeEventTableRange, &rRange);

  00020	f3 0f 10 4d 08	 movss	 xmm1, DWORD PTR _fTime$[ebp]
; File C:\Program Files (x86)\Microsoft Visual Studio\2019\Community\VC\Tools\MSVC\14.27.29110\include\vector

; 42   :     _Vector_const_iterator(_Tptr _Parg, const _Container_base* _Pvector) noexcept : _Ptr(_Parg) {

  00025	8d 48 08	 lea	 ecx, DWORD PTR [eax+8]
; File C:\DS Project\DS Files\Source\ClientSource\Client\EffectLib\SimpleLightData.cpp

; 58   : 	GetTimeEventBlendValue(fTime, m_TimeEventTableRange, &rRange);

  00028	f3 0f 11 4d fc	 movss	 DWORD PTR _fElapsedTime$[ebp], xmm1
; File C:\Program Files (x86)\Microsoft Visual Studio\2019\Community\VC\Tools\MSVC\14.27.29110\include\vector

; 120  :         _Ptr += _Off;

  0002d	3b ca		 cmp	 ecx, edx
; File C:\DS Project\DS Files\Source\ClientSource\Client\EffectLib\Type.h

; 232  : 	if(rVector.begin()+1==rVector.end())

  0002f	75 0a		 jne	 SHORT $LN10@GetRange

; 233  : 	{
; 234  : 		*pReturnValue = rVector.front().m_Value;

  00031	f3 0f 10 50 04	 movss	 xmm2, DWORD PTR [eax+4]

; 235  : 		return;

  00036	e9 88 00 00 00	 jmp	 $LN14@GetRange
$LN10@GetRange:

; 236  : 	}
; 237  : 
; 238  : 	if (fElapsedTime < rVector.front().m_fTime)

  0003b	f3 0f 10 00	 movss	 xmm0, DWORD PTR [eax]
  0003f	0f 2f c1	 comiss	 xmm0, xmm1
  00042	76 07		 jbe	 SHORT $LN11@GetRange

; 239  : 	{
; 240  : 		*pReturnValue = rVector.front().m_Value;

  00044	f3 0f 10 50 04	 movss	 xmm2, DWORD PTR [eax+4]

; 241  : 		return;

  00049	eb 78		 jmp	 SHORT $LN14@GetRange
$LN11@GetRange:

; 242  : 	}
; 243  : 
; 244  : 	if (fElapsedTime > rVector.back().m_fTime)

  0004b	0f 2f 4a f8	 comiss	 xmm1, DWORD PTR [edx-8]
  0004f	76 07		 jbe	 SHORT $LN12@GetRange

; 245  : 	{
; 246  : 		*pReturnValue = rVector.back().m_Value;

  00051	f3 0f 10 52 fc	 movss	 xmm2, DWORD PTR [edx-4]

; 247  : 		return;

  00056	eb 6b		 jmp	 SHORT $LN14@GetRange
$LN12@GetRange:
  00058	53		 push	 ebx

; 252  : 	std::pair<iterator, iterator> result = std::equal_range(rVector.begin(), rVector.end(), fElapsedTime);

  00059	8d 4d fc	 lea	 ecx, DWORD PTR _fElapsedTime$[ebp]
  0005c	51		 push	 ecx
  0005d	52		 push	 edx
  0005e	50		 push	 eax
  0005f	8d 45 f4	 lea	 eax, DWORD PTR _result$1[ebp]
  00062	50		 push	 eax
  00063	e8 00 00 00 00	 call	 ??$equal_range@V?$_Vector_iterator@V?$_Vector_val@U?$_Simple_types@V?$CTimeEvent@M@@@std@@@std@@@std@@M@std@@YA?AU?$pair@V?$_Vector_iterator@V?$_Vector_val@U?$_Simple_types@V?$CTimeEvent@M@@@std@@@std@@@std@@V12@@0@V?$_Vector_iterator@V?$_Vector_val@U?$_Simple_types@V?$CTimeEvent@M@@@std@@@std@@@0@0ABM@Z ; std::equal_range<std::_Vector_iterator<std::_Vector_val<std::_Simple_types<CTimeEvent<float> > > >,float>
; File C:\Program Files (x86)\Microsoft Visual Studio\2019\Community\VC\Tools\MSVC\14.27.29110\include\vector

; 149  :         return _Ptr == _Right._Ptr;

  00068	8b 5d f4	 mov	 ebx, DWORD PTR _result$1[ebp]
; File C:\DS Project\DS Files\Source\ClientSource\Client\EffectLib\Type.h

; 252  : 	std::pair<iterator, iterator> result = std::equal_range(rVector.begin(), rVector.end(), fElapsedTime);

  0006b	83 c4 10	 add	 esp, 16			; 00000010H
; File C:\Program Files (x86)\Microsoft Visual Studio\2019\Community\VC\Tools\MSVC\14.27.29110\include\vector

; 149  :         return _Ptr == _Right._Ptr;

  0006e	8b 45 f8	 mov	 eax, DWORD PTR _result$1[ebp+4]
  00071	3b d8		 cmp	 ebx, eax
; File C:\DS Project\DS Files\Source\ClientSource\Client\EffectLib\Type.h

; 254  : 	if (result.first != result.second)

  00073	74 10		 je	 SHORT $LN13@GetRange
; File C:\Program Files (x86)\Microsoft Visual Studio\2019\Community\VC\Tools\MSVC\14.27.29110\include\vector

; 256  :         return _Const_cast(_Mybase::operator->());

  00075	53		 push	 ebx
  00076	e8 00 00 00 00	 call	 ??$_Const_cast@$$CBV?$CTimeEvent@M@@@std@@YAPAV?$CTimeEvent@M@@PBV1@@Z ; std::_Const_cast<CTimeEvent<float> const >
  0007b	83 c4 04	 add	 esp, 4
; File C:\DS Project\DS Files\Source\ClientSource\Client\EffectLib\Type.h

; 255  : 		*pReturnValue = result.first->m_Value;

  0007e	f3 0f 10 50 04	 movss	 xmm2, DWORD PTR [eax+4]
  00083	eb 3d		 jmp	 SHORT $LN76@GetRange
$LN13@GetRange:
  00085	56		 push	 esi
; File C:\Program Files (x86)\Microsoft Visual Studio\2019\Community\VC\Tools\MSVC\14.27.29110\include\vector

; 256  :         return _Const_cast(_Mybase::operator->());

  00086	50		 push	 eax
  00087	e8 00 00 00 00	 call	 ??$_Const_cast@$$CBV?$CTimeEvent@M@@@std@@YAPAV?$CTimeEvent@M@@PBV1@@Z ; std::_Const_cast<CTimeEvent<float> const >

; 92   :         --_Ptr;

  0008c	8d 4b f8	 lea	 ecx, DWORD PTR [ebx-8]

; 256  :         return _Const_cast(_Mybase::operator->());

  0008f	8b f0		 mov	 esi, eax
  00091	51		 push	 ecx
  00092	e8 00 00 00 00	 call	 ??$_Const_cast@$$CBV?$CTimeEvent@M@@@std@@YAPAV?$CTimeEvent@M@@PBV1@@Z ; std::_Const_cast<CTimeEvent<float> const >
; File C:\DS Project\DS Files\Source\ClientSource\Client\EffectLib\Type.h

; 259  : 		float Head = (result.second->m_fTime - fElapsedTime) / (result.second->m_fTime - result.first->m_fTime);

  00097	f3 0f 10 06	 movss	 xmm0, DWORD PTR [esi]
; File C:\Program Files (x86)\Microsoft Visual Studio\2019\Community\VC\Tools\MSVC\14.27.29110\include\vector

; 256  :         return _Const_cast(_Mybase::operator->());

  0009b	83 c4 08	 add	 esp, 8
; File C:\DS Project\DS Files\Source\ClientSource\Client\EffectLib\Type.h

; 259  : 		float Head = (result.second->m_fTime - fElapsedTime) / (result.second->m_fTime - result.first->m_fTime);

  0009e	0f 28 d0	 movaps	 xmm2, xmm0
  000a1	f3 0f 5c 55 08	 subss	 xmm2, DWORD PTR _fTime$[ebp]
  000a6	f3 0f 5c 00	 subss	 xmm0, DWORD PTR [eax]
  000aa	f3 0f 5e d0	 divss	 xmm2, xmm0

; 260  : 		*pReturnValue = T((result.first->m_Value-result.second->m_Value)*Head+(result.second->m_Value));

  000ae	f3 0f 10 40 04	 movss	 xmm0, DWORD PTR [eax+4]
  000b3	f3 0f 5c 46 04	 subss	 xmm0, DWORD PTR [esi+4]
  000b8	f3 0f 59 d0	 mulss	 xmm2, xmm0
  000bc	f3 0f 58 56 04	 addss	 xmm2, DWORD PTR [esi+4]
  000c1	5e		 pop	 esi
$LN76@GetRange:
  000c2	5b		 pop	 ebx
$LN14@GetRange:
; File C:\DS Project\DS Files\Source\ClientSource\Client\EffectLib\SimpleLightData.cpp

; 59   : 	rRange *= m_fMaxRange;

  000c3	8b 45 0c	 mov	 eax, DWORD PTR _rRange$[ebp]
  000c6	f3 0f 11 10	 movss	 DWORD PTR [eax], xmm2
  000ca	f3 0f 10 4f 14	 movss	 xmm1, DWORD PTR [edi+20]
  000cf	f3 0f 59 ca	 mulss	 xmm1, xmm2
$LN78@GetRange:

; 60   : 	if (rRange<0.0f)
; 61   : 		rRange = 0.0f;
; 62   : 	return;
; 63   : 	/*
; 64   : 	float vecLastRange = m_TimeEventTableRange[0].m_Value;
; 65   : 
; 66   : 	for (DWORD dwIndex = 0; dwIndex < m_TimeEventTableRange.size(); ++dwIndex)
; 67   : 	{
; 68   : 		if(fTime < m_TimeEventTableRange[dwIndex].m_fTime)
; 69   : 		{
; 70   : 			break;
; 71   : 		}
; 72   : 	}
; 73   : 
; 74   : 	if (dwIndex >= m_TimeEventTableRange.size())
; 75   : 	{
; 76   : 		rRange = m_TimeEventTableRange[m_TimeEventTableRange.size()-1].m_Value * m_fMaxRange;
; 77   : 		if (rRange<0.0f)
; 78   : 			rRange = 0.0f;
; 79   : 		return;
; 80   : 	}
; 81   : 
; 82   : 	TTimeEventTypeFloat & rEffectRange = m_TimeEventTableRange[dwIndex];
; 83   : 	TTimeEventTypeFloat & rPrevEffectRange = m_TimeEventTableRange[dwIndex-1];
; 84   : 
; 85   : 	float Head = fabs(rEffectRange.m_fTime - fTime) / fabs(rEffectRange.m_fTime - rPrevEffectRange.m_fTime);
; 86   : 	float Tail = 1.0f - fabs(rEffectRange.m_fTime - fTime) / fabs(rEffectRange.m_fTime - rPrevEffectRange.m_fTime);
; 87   : 	rRange = ((rPrevEffectRange.m_Value*Head) + (rEffectRange.m_Value*Tail) )*m_fMaxRange;
; 88   : 	if (rRange<0.0f)
; 89   : 		rRange = 0.0f;
; 90   : 		*/
; 91   : }

  000d3	0f 57 c0	 xorps	 xmm0, xmm0
  000d6	f3 0f 11 08	 movss	 DWORD PTR [eax], xmm1
  000da	0f 2f c1	 comiss	 xmm0, xmm1
  000dd	76 06		 jbe	 SHORT $LN4@GetRange
  000df	c7 00 00 00 00
	00		 mov	 DWORD PTR [eax], 0
$LN4@GetRange:
  000e5	5f		 pop	 edi
  000e6	8b e5		 mov	 esp, ebp
  000e8	5d		 pop	 ebp
  000e9	c2 08 00	 ret	 8
?GetRange@CLightData@@QAEXMAAM@Z ENDP			; CLightData::GetRange
_TEXT	ENDS
; Function compile flags: /Ogtp
; File C:\DS Project\DS Files\Source\ClientSource\Client\EffectLib\SimpleLightData.cpp
; File C:\Program Files (x86)\Microsoft Visual Studio\2019\Community\VC\Tools\MSVC\14.27.29110\include\vector
; File C:\Program Files (x86)\Microsoft Visual Studio\2019\Community\VC\Tools\MSVC\14.27.29110\include\xmemory
; File C:\Program Files (x86)\Microsoft Visual Studio\2019\Community\VC\Tools\MSVC\14.27.29110\include\vector
; File C:\Program Files (x86)\Microsoft Visual Studio\2019\Community\VC\Tools\MSVC\14.27.29110\include\xmemory
; File C:\Program Files (x86)\Microsoft Visual Studio\2019\Community\VC\Tools\MSVC\14.27.29110\include\vector
; File C:\DS Project\DS Files\Source\ClientSource\Client\EffectLib\SimpleLightData.cpp
;	COMDAT ??1CLightData@@UAE@XZ
_TEXT	SEGMENT
??1CLightData@@UAE@XZ PROC				; CLightData::~CLightData, COMDAT
; _this$ = ecx

; 141  : {

  00000	56		 push	 esi
  00001	8b f1		 mov	 esi, ecx
  00003	c7 06 00 00 00
	00		 mov	 DWORD PTR [esi], OFFSET ??_7CLightData@@6B@
; File C:\Program Files (x86)\Microsoft Visual Studio\2019\Community\VC\Tools\MSVC\14.27.29110\include\vector

; 1693 :         if (_Myfirst) { // destroy and deallocate old array

  00009	8b 4e 1c	 mov	 ecx, DWORD PTR [esi+28]
  0000c	85 c9		 test	 ecx, ecx
  0000e	74 27		 je	 SHORT $LN6@CLightData

; 1694 :             _Destroy(_Myfirst, _Mylast);
; 1695 :             _Getal().deallocate(_Myfirst, static_cast<size_type>(_Myend - _Myfirst));

  00010	8b 46 24	 mov	 eax, DWORD PTR [esi+36]
  00013	2b c1		 sub	 eax, ecx
; File C:\Program Files (x86)\Microsoft Visual Studio\2019\Community\VC\Tools\MSVC\14.27.29110\include\xmemory

; 803  :         _Deallocate<_New_alignof<_Ty>>(_Ptr, sizeof(_Ty) * _Count);

  00015	83 e0 f8	 and	 eax, -8			; fffffff8H
  00018	50		 push	 eax
  00019	51		 push	 ecx
  0001a	e8 00 00 00 00	 call	 ??$_Deallocate@$07$0A@@std@@YAXPAXI@Z ; std::_Deallocate<8,0>
; File C:\Program Files (x86)\Microsoft Visual Studio\2019\Community\VC\Tools\MSVC\14.27.29110\include\vector

; 1697 :             _Myfirst = pointer();

  0001f	c7 46 1c 00 00
	00 00		 mov	 DWORD PTR [esi+28], 0
; File C:\Program Files (x86)\Microsoft Visual Studio\2019\Community\VC\Tools\MSVC\14.27.29110\include\xmemory

; 803  :         _Deallocate<_New_alignof<_Ty>>(_Ptr, sizeof(_Ty) * _Count);

  00026	83 c4 08	 add	 esp, 8
; File C:\Program Files (x86)\Microsoft Visual Studio\2019\Community\VC\Tools\MSVC\14.27.29110\include\vector

; 1698 :             _Mylast  = pointer();

  00029	c7 46 20 00 00
	00 00		 mov	 DWORD PTR [esi+32], 0

; 1699 :             _Myend   = pointer();

  00030	c7 46 24 00 00
	00 00		 mov	 DWORD PTR [esi+36], 0
$LN6@CLightData:
; File C:\DS Project\DS Files\Source\ClientSource\Client\EffectLib\SimpleLightData.cpp

; 142  : }

  00037	8b ce		 mov	 ecx, esi
  00039	5e		 pop	 esi
  0003a	e9 00 00 00 00	 jmp	 ??1CEffectElementBase@@UAE@XZ ; CEffectElementBase::~CEffectElementBase
??1CLightData@@UAE@XZ ENDP				; CLightData::~CLightData
_TEXT	ENDS
; Function compile flags: /Ogtp
; File C:\DS Project\DS Files\Source\ClientSource\Client\EffectLib\SimpleLightData.cpp
; File C:\Program Files (x86)\Microsoft Visual Studio\2019\Community\VC\Tools\MSVC\14.27.29110\include\vector
; File C:\DS Project\DS Files\Source\ClientSource\Client\EffectLib\SimpleLightData.cpp
;	COMDAT ??0CLightData@@QAE@XZ
_TEXT	SEGMENT
_this$ = -16						; size = 4
__$EHRec$ = -12						; size = 12
??0CLightData@@QAE@XZ PROC				; CLightData::CLightData, COMDAT
; _this$ = ecx

; 136  : {

  00000	55		 push	 ebp
  00001	8b ec		 mov	 ebp, esp
  00003	6a ff		 push	 -1
  00005	68 00 00 00 00	 push	 __ehhandler$??0CLightData@@QAE@XZ
  0000a	64 a1 00 00 00
	00		 mov	 eax, DWORD PTR fs:0
  00010	50		 push	 eax
  00011	51		 push	 ecx
  00012	56		 push	 esi
  00013	a1 00 00 00 00	 mov	 eax, DWORD PTR ___security_cookie
  00018	33 c5		 xor	 eax, ebp
  0001a	50		 push	 eax
  0001b	8d 45 f4	 lea	 eax, DWORD PTR __$EHRec$[ebp]
  0001e	64 a3 00 00 00
	00		 mov	 DWORD PTR fs:0, eax
  00024	8b f1		 mov	 esi, ecx
  00026	89 75 f0	 mov	 DWORD PTR _this$[ebp], esi
  00029	e8 00 00 00 00	 call	 ??0CEffectElementBase@@QAE@XZ ; CEffectElementBase::CEffectElementBase
  0002e	c7 06 00 00 00
	00		 mov	 DWORD PTR [esi], OFFSET ??_7CLightData@@6B@
  00034	c7 45 fc 00 00
	00 00		 mov	 DWORD PTR __$EHRec$[ebp+8], 0
; File C:\Program Files (x86)\Microsoft Visual Studio\2019\Community\VC\Tools\MSVC\14.27.29110\include\vector

; 375  :     _Vector_val() noexcept : _Myfirst(), _Mylast(), _Myend() {}

  0003b	c7 46 1c 00 00
	00 00		 mov	 DWORD PTR [esi+28], 0
  00042	c7 46 20 00 00
	00 00		 mov	 DWORD PTR [esi+32], 0
  00049	c7 46 24 00 00
	00 00		 mov	 DWORD PTR [esi+36], 0
; File C:\DS Project\DS Files\Source\ClientSource\Client\EffectLib\SimpleLightData.cpp

; 137  : 	Clear();

  00050	8b ce		 mov	 ecx, esi
  00052	c6 45 fc 01	 mov	 BYTE PTR __$EHRec$[ebp+8], 1
  00056	e8 00 00 00 00	 call	 ?Clear@CEffectElementBase@@QAEXXZ ; CEffectElementBase::Clear

; 138  : }

  0005b	8b c6		 mov	 eax, esi
  0005d	8b 4d f4	 mov	 ecx, DWORD PTR __$EHRec$[ebp]
  00060	64 89 0d 00 00
	00 00		 mov	 DWORD PTR fs:0, ecx
  00067	59		 pop	 ecx
  00068	5e		 pop	 esi
  00069	8b e5		 mov	 esp, ebp
  0006b	5d		 pop	 ebp
  0006c	c3		 ret	 0
_TEXT	ENDS
;	COMDAT text$x
text$x	SEGMENT
__unwindfunclet$??0CLightData@@QAE@XZ$0:
  00000	8b 4d f0	 mov	 ecx, DWORD PTR _this$[ebp]
  00003	e9 00 00 00 00	 jmp	 ??1CEffectElementBase@@UAE@XZ ; CEffectElementBase::~CEffectElementBase
__unwindfunclet$??0CLightData@@QAE@XZ$1:
  00008	8b 4d f0	 mov	 ecx, DWORD PTR _this$[ebp]
  0000b	83 c1 1c	 add	 ecx, 28			; 0000001cH
  0000e	e9 00 00 00 00	 jmp	 ??1?$vector@V?$CTimeEvent@M@@V?$allocator@V?$CTimeEvent@M@@@std@@@std@@QAE@XZ ; std::vector<CTimeEvent<float>,std::allocator<CTimeEvent<float> > >::~vector<CTimeEvent<float>,std::allocator<CTimeEvent<float> > >
  00013	cc		 int	 3
  00014	cc		 int	 3
  00015	cc		 int	 3
  00016	cc		 int	 3
  00017	cc		 int	 3
__ehhandler$??0CLightData@@QAE@XZ:
  00018	90		 npad	 1
  00019	90		 npad	 1
  0001a	8b 54 24 08	 mov	 edx, DWORD PTR [esp+8]
  0001e	8d 42 0c	 lea	 eax, DWORD PTR [edx+12]
  00021	8b 4a f4	 mov	 ecx, DWORD PTR [edx-12]
  00024	33 c8		 xor	 ecx, eax
  00026	e8 00 00 00 00	 call	 @__security_check_cookie@4
  0002b	b8 00 00 00 00	 mov	 eax, OFFSET __ehfuncinfo$??0CLightData@@QAE@XZ
  00030	e9 00 00 00 00	 jmp	 ___CxxFrameHandler3
text$x	ENDS
??0CLightData@@QAE@XZ ENDP				; CLightData::CLightData
; Function compile flags: /Ogtp
; File C:\Program Files (x86)\Microsoft Visual Studio\2019\Community\VC\Tools\MSVC\14.27.29110\include\xmemory
;	COMDAT ??$_Allocate_manually_vector_aligned@U_Default_allocate_traits@std@@@std@@YAPAXI@Z
_TEXT	SEGMENT
__Bytes$ = 8						; size = 4
??$_Allocate_manually_vector_aligned@U_Default_allocate_traits@std@@@std@@YAPAXI@Z PROC ; std::_Allocate_manually_vector_aligned<std::_Default_allocate_traits>, COMDAT

; 113  : __declspec(allocator) void* _Allocate_manually_vector_aligned(const size_t _Bytes) {

  00000	55		 push	 ebp
  00001	8b ec		 mov	 ebp, esp

; 114  :     // allocate _Bytes manually aligned to at least _Big_allocation_alignment
; 115  :     const size_t _Block_size = _Non_user_size + _Bytes;

  00003	8b 45 08	 mov	 eax, DWORD PTR __Bytes$[ebp]
  00006	8d 48 23	 lea	 ecx, DWORD PTR [eax+35]

; 116  :     if (_Block_size <= _Bytes) {

  00009	3b c8		 cmp	 ecx, eax
  0000b	0f 86 00 00 00
	00		 jbe	 ?_Throw_bad_array_new_length@std@@YAXXZ ; std::_Throw_bad_array_new_length

; 77   :         return ::operator new(_Bytes);

  00011	51		 push	 ecx
  00012	e8 00 00 00 00	 call	 ??2@YAPAXI@Z		; operator new

; 117  :         _Throw_bad_array_new_length(); // add overflow
; 118  :     }
; 119  : 
; 120  :     const uintptr_t _Ptr_container = reinterpret_cast<uintptr_t>(_Traits::_Allocate(_Block_size));

  00017	8b c8		 mov	 ecx, eax

; 77   :         return ::operator new(_Bytes);

  00019	83 c4 04	 add	 esp, 4

; 121  :     _STL_VERIFY(_Ptr_container != 0, "invalid argument"); // validate even in release since we're doing p[-1]

  0001c	85 c9		 test	 ecx, ecx
  0001e	74 0b		 je	 SHORT $LN7@Allocate_m

; 122  :     void* const _Ptr = reinterpret_cast<void*>((_Ptr_container + _Non_user_size) & ~(_Big_allocation_alignment - 1));

  00020	8d 41 23	 lea	 eax, DWORD PTR [ecx+35]
  00023	83 e0 e0	 and	 eax, -32		; ffffffe0H

; 123  :     static_cast<uintptr_t*>(_Ptr)[-1] = _Ptr_container;

  00026	89 48 fc	 mov	 DWORD PTR [eax-4], ecx

; 124  : 
; 125  : #ifdef _DEBUG
; 126  :     static_cast<uintptr_t*>(_Ptr)[-2] = _Big_allocation_sentinel;
; 127  : #endif // _DEBUG
; 128  :     return _Ptr;
; 129  : }

  00029	5d		 pop	 ebp
  0002a	c3		 ret	 0
$LN7@Allocate_m:

; 121  :     _STL_VERIFY(_Ptr_container != 0, "invalid argument"); // validate even in release since we're doing p[-1]

  0002b	e9 00 00 00 00	 jmp	 __invalid_parameter_noinfo_noreturn
??$_Allocate_manually_vector_aligned@U_Default_allocate_traits@std@@@std@@YAPAXI@Z ENDP ; std::_Allocate_manually_vector_aligned<std::_Default_allocate_traits>
_TEXT	ENDS
; Function compile flags: /Ogtp
; File C:\Program Files (x86)\Microsoft Visual Studio\2019\Community\VC\Tools\MSVC\14.27.29110\include\xmemory
;	COMDAT ??$_Allocate@$07U_Default_allocate_traits@std@@$0A@@std@@YAPAXI@Z
_TEXT	SEGMENT
__Bytes$ = 8						; size = 4
??$_Allocate@$07U_Default_allocate_traits@std@@$0A@@std@@YAPAXI@Z PROC ; std::_Allocate<8,std::_Default_allocate_traits,0>, COMDAT

; 197  : __declspec(allocator) void* _Allocate(const size_t _Bytes) {

  00000	55		 push	 ebp
  00001	8b ec		 mov	 ebp, esp

; 198  :     // allocate _Bytes when !_HAS_ALIGNED_NEW || _Align <= __STDCPP_DEFAULT_NEW_ALIGNMENT__
; 199  : #if defined(_M_IX86) || defined(_M_X64)
; 200  :     if (_Bytes >= _Big_allocation_threshold) { // boost the alignment of big allocations to help autovectorization

  00003	8b 45 08	 mov	 eax, DWORD PTR __Bytes$[ebp]
  00006	3d 00 10 00 00	 cmp	 eax, 4096		; 00001000H
  0000b	72 09		 jb	 SHORT $LN2@Allocate

; 201  :         return _Allocate_manually_vector_aligned<_Traits>(_Bytes);

  0000d	89 45 08	 mov	 DWORD PTR __Bytes$[ebp], eax

; 210  : }

  00010	5d		 pop	 ebp

; 201  :         return _Allocate_manually_vector_aligned<_Traits>(_Bytes);

  00011	e9 00 00 00 00	 jmp	 ??$_Allocate_manually_vector_aligned@U_Default_allocate_traits@std@@@std@@YAPAXI@Z ; std::_Allocate_manually_vector_aligned<std::_Default_allocate_traits>
$LN2@Allocate:

; 202  :     }
; 203  : #endif // defined(_M_IX86) || defined(_M_X64)
; 204  : 
; 205  :     if (_Bytes != 0) {

  00016	85 c0		 test	 eax, eax
  00018	74 09		 je	 SHORT $LN3@Allocate

; 77   :         return ::operator new(_Bytes);

  0001a	89 45 08	 mov	 DWORD PTR __Bytes$[ebp], eax

; 210  : }

  0001d	5d		 pop	 ebp

; 77   :         return ::operator new(_Bytes);

  0001e	e9 00 00 00 00	 jmp	 ??2@YAPAXI@Z		; operator new
$LN3@Allocate:

; 206  :         return _Traits::_Allocate(_Bytes);
; 207  :     }
; 208  : 
; 209  :     return nullptr;

  00023	33 c0		 xor	 eax, eax

; 210  : }

  00025	5d		 pop	 ebp
  00026	c3		 ret	 0
??$_Allocate@$07U_Default_allocate_traits@std@@$0A@@std@@YAPAXI@Z ENDP ; std::_Allocate<8,std::_Default_allocate_traits,0>
_TEXT	ENDS
; Function compile flags: /Ogtp
; File C:\Program Files (x86)\Microsoft Visual Studio\2019\Community\VC\Tools\MSVC\14.27.29110\include\xmemory
;	COMDAT ??$_Deallocate@$07$0A@@std@@YAXPAXI@Z
_TEXT	SEGMENT
__Ptr$ = 8						; size = 4
__Bytes$ = 12						; size = 4
??$_Deallocate@$07$0A@@std@@YAXPAXI@Z PROC		; std::_Deallocate<8,0>, COMDAT

; 213  : void _Deallocate(void* _Ptr, size_t _Bytes) noexcept {

  00000	55		 push	 ebp
  00001	8b ec		 mov	 ebp, esp

; 214  :     // deallocate storage allocated by _Allocate when !_HAS_ALIGNED_NEW || _Align <= __STDCPP_DEFAULT_NEW_ALIGNMENT__
; 215  : #if defined(_M_IX86) || defined(_M_X64)
; 216  :     if (_Bytes >= _Big_allocation_threshold) { // boost the alignment of big allocations to help autovectorization

  00003	8b 4d 0c	 mov	 ecx, DWORD PTR __Bytes$[ebp]
  00006	81 f9 00 10 00
	00		 cmp	 ecx, 4096		; 00001000H
  0000c	72 18		 jb	 SHORT $LN15@Deallocate

; 137  :     const uintptr_t _Ptr_container   = _Ptr_user[-1];

  0000e	8b 45 08	 mov	 eax, DWORD PTR __Ptr$[ebp]
  00011	83 c1 23	 add	 ecx, 35			; 00000023H
  00014	8b 50 fc	 mov	 edx, DWORD PTR [eax-4]

; 138  : 
; 139  :     // If the following asserts, it likely means that we are performing
; 140  :     // an aligned delete on memory coming from an unaligned allocation.
; 141  :     _STL_ASSERT(_Ptr_user[-2] == _Big_allocation_sentinel, "invalid argument");
; 142  : 
; 143  :     // Extra paranoia on aligned allocation/deallocation; ensure _Ptr_container is
; 144  :     // in range [_Min_back_shift, _Non_user_size]
; 145  : #ifdef _DEBUG
; 146  :     constexpr uintptr_t _Min_back_shift = 2 * sizeof(void*);
; 147  : #else // ^^^ _DEBUG ^^^ // vvv !_DEBUG vvv
; 148  :     constexpr uintptr_t _Min_back_shift = sizeof(void*);
; 149  : #endif // _DEBUG
; 150  :     const uintptr_t _Back_shift = reinterpret_cast<uintptr_t>(_Ptr) - _Ptr_container;

  00017	2b c2		 sub	 eax, edx

; 151  :     _STL_VERIFY(_Back_shift >= _Min_back_shift && _Back_shift <= _Non_user_size, "invalid argument");

  00019	83 c0 fc	 add	 eax, -4			; fffffffcH
  0001c	83 f8 1f	 cmp	 eax, 31			; 0000001fH
  0001f	76 08		 jbe	 SHORT $LN13@Deallocate
  00021	e9 00 00 00 00	 jmp	 __invalid_parameter_noinfo_noreturn
$LN15@Deallocate:

; 214  :     // deallocate storage allocated by _Allocate when !_HAS_ALIGNED_NEW || _Align <= __STDCPP_DEFAULT_NEW_ALIGNMENT__
; 215  : #if defined(_M_IX86) || defined(_M_X64)
; 216  :     if (_Bytes >= _Big_allocation_threshold) { // boost the alignment of big allocations to help autovectorization

  00026	8b 55 08	 mov	 edx, DWORD PTR __Ptr$[ebp]
$LN13@Deallocate:

; 217  :         _Adjust_manually_vector_aligned(_Ptr, _Bytes);
; 218  :     }
; 219  : #endif // defined(_M_IX86) || defined(_M_X64)
; 220  : 
; 221  :     ::operator delete(_Ptr, _Bytes);

  00029	89 4d 0c	 mov	 DWORD PTR __Bytes$[ebp], ecx
  0002c	89 55 08	 mov	 DWORD PTR __Ptr$[ebp], edx

; 222  : }

  0002f	5d		 pop	 ebp

; 217  :         _Adjust_manually_vector_aligned(_Ptr, _Bytes);
; 218  :     }
; 219  : #endif // defined(_M_IX86) || defined(_M_X64)
; 220  : 
; 221  :     ::operator delete(_Ptr, _Bytes);

  00030	e9 00 00 00 00	 jmp	 ??3@YAXPAXI@Z		; operator delete
??$_Deallocate@$07$0A@@std@@YAXPAXI@Z ENDP		; std::_Deallocate<8,0>
_TEXT	ENDS
; Function compile flags: /Ogtp
; File C:\Program Files (x86)\Microsoft Visual Studio\2019\Community\VC\Tools\MSVC\14.27.29110\include\xmemory
;	COMDAT ??$_Construct_in_place@PADABQAD@std@@YAXAAPADABQAD@Z
_TEXT	SEGMENT
__Obj$ = 8						; size = 4
_<_Args_0>$ = 12					; size = 4
??$_Construct_in_place@PADABQAD@std@@YAXAAPADABQAD@Z PROC ; std::_Construct_in_place<char *,char * const &>, COMDAT

; 228  : void _Construct_in_place(_Ty& _Obj, _Types&&... _Args) noexcept(is_nothrow_constructible_v<_Ty, _Types...>) {

  00000	55		 push	 ebp
  00001	8b ec		 mov	 ebp, esp

; 229  :     ::new (const_cast<void*>(static_cast<const volatile void*>(_STD addressof(_Obj))))

  00003	8b 45 0c	 mov	 eax, DWORD PTR _<_Args_0>$[ebp]
  00006	8b 08		 mov	 ecx, DWORD PTR [eax]
  00008	8b 45 08	 mov	 eax, DWORD PTR __Obj$[ebp]
  0000b	89 08		 mov	 DWORD PTR [eax], ecx

; 230  :         _Ty(_STD forward<_Types>(_Args)...);
; 231  : }

  0000d	5d		 pop	 ebp
  0000e	c3		 ret	 0
??$_Construct_in_place@PADABQAD@std@@YAXAAPADABQAD@Z ENDP ; std::_Construct_in_place<char *,char * const &>
_TEXT	ENDS
; Function compile flags: /Ogtp
; File C:\Program Files (x86)\Microsoft Visual Studio\2019\Community\VC\Tools\MSVC\14.27.29110\include\xmemory
;	COMDAT ??$_Destroy_in_place@PAD@std@@YAXAAPAD@Z
_TEXT	SEGMENT
__Obj$ = 8						; size = 4
??$_Destroy_in_place@PAD@std@@YAXAAPAD@Z PROC		; std::_Destroy_in_place<char *>, COMDAT

; 268  :     _Obj.~_Ty();
; 269  : }

  00000	c2 00 00	 ret	 0
??$_Destroy_in_place@PAD@std@@YAXAAPAD@Z ENDP		; std::_Destroy_in_place<char *>
_TEXT	ENDS
; Function compile flags: /Ogtp
; File C:\Program Files (x86)\Microsoft Visual Studio\2019\Community\VC\Tools\MSVC\14.27.29110\include\xstring
; File C:\Program Files (x86)\Microsoft Visual Studio\2019\Community\VC\Tools\MSVC\14.27.29110\include\xmemory
; File C:\Program Files (x86)\Microsoft Visual Studio\2019\Community\VC\Tools\MSVC\14.27.29110\include\xstring
;	COMDAT ??1?$basic_string@DU?$char_traits@D@std@@V?$allocator@D@2@@std@@QAE@XZ
_TEXT	SEGMENT
??1?$basic_string@DU?$char_traits@D@std@@V?$allocator@D@2@@std@@QAE@XZ PROC ; std::basic_string<char,std::char_traits<char>,std::allocator<char> >::~basic_string<char,std::char_traits<char>,std::allocator<char> >, COMDAT
; _this$ = ecx

; 2722 :     ~basic_string() noexcept {

  00000	56		 push	 esi
  00001	8b f1		 mov	 esi, ecx

; 2153 :         return _BUF_SIZE <= _Myres;

  00003	8b 46 14	 mov	 eax, DWORD PTR [esi+20]
  00006	83 f8 10	 cmp	 eax, 16			; 00000010H

; 4301 :         if (_Mypair._Myval2._Large_string_engaged()) {

  00009	72 0c		 jb	 SHORT $LN4@basic_stri

; 4302 :             const pointer _Ptr = _Mypair._Myval2._Bx._Ptr;
; 4303 :             auto& _Al          = _Getal();
; 4304 :             _Destroy_in_place(_Mypair._Myval2._Bx._Ptr);
; 4305 :             _Al.deallocate(_Ptr, _Mypair._Myval2._Myres + 1);

  0000b	40		 inc	 eax
; File C:\Program Files (x86)\Microsoft Visual Studio\2019\Community\VC\Tools\MSVC\14.27.29110\include\xmemory

; 803  :         _Deallocate<_New_alignof<_Ty>>(_Ptr, sizeof(_Ty) * _Count);

  0000c	50		 push	 eax
  0000d	ff 36		 push	 DWORD PTR [esi]
  0000f	e8 00 00 00 00	 call	 ??$_Deallocate@$07$0A@@std@@YAXPAXI@Z ; std::_Deallocate<8,0>
  00014	83 c4 08	 add	 esp, 8
$LN4@basic_stri:
; File C:\Program Files (x86)\Microsoft Visual Studio\2019\Community\VC\Tools\MSVC\14.27.29110\include\xstring

; 4308 :         _Mypair._Myval2._Mysize = 0;

  00017	c7 46 10 00 00
	00 00		 mov	 DWORD PTR [esi+16], 0

; 4309 :         _Mypair._Myval2._Myres  = _BUF_SIZE - 1;

  0001e	c7 46 14 0f 00
	00 00		 mov	 DWORD PTR [esi+20], 15	; 0000000fH

; 4310 :         // the _Traits::assign is last so the codegen doesn't think the char write can alias this
; 4311 :         _Traits::assign(_Mypair._Myval2._Bx._Buf[0], _Elem());

  00025	c6 06 00	 mov	 BYTE PTR [esi], 0
  00028	5e		 pop	 esi

; 2723 :         _Tidy_deallocate();
; 2724 : #if _ITERATOR_DEBUG_LEVEL != 0
; 2725 :         auto&& _Alproxy          = _GET_PROXY_ALLOCATOR(_Alty, _Getal());
; 2726 :         const auto _To_delete    = _Mypair._Myval2._Myproxy;
; 2727 :         _Mypair._Myval2._Myproxy = nullptr;
; 2728 :         _Delete_plain_internal(_Alproxy, _To_delete);
; 2729 : #endif // _ITERATOR_DEBUG_LEVEL != 0
; 2730 :     }

  00029	c3		 ret	 0
??1?$basic_string@DU?$char_traits@D@std@@V?$allocator@D@2@@std@@QAE@XZ ENDP ; std::basic_string<char,std::char_traits<char>,std::allocator<char> >::~basic_string<char,std::char_traits<char>,std::allocator<char> >
_TEXT	ENDS
; Function compile flags: /Ogtp
; File C:\Program Files (x86)\Microsoft Visual Studio\2019\Community\VC\Tools\MSVC\14.27.29110\include\xstring
; File C:\Program Files (x86)\Microsoft Visual Studio\2019\Community\VC\Tools\MSVC\14.27.29110\include\utility
; File C:\Program Files (x86)\Microsoft Visual Studio\2019\Community\VC\Tools\MSVC\14.27.29110\include\xstring
; File C:\Program Files (x86)\Microsoft Visual Studio\2019\Community\VC\Tools\MSVC\14.27.29110\include\xmemory
; File C:\Program Files (x86)\Microsoft Visual Studio\2019\Community\VC\Tools\MSVC\14.27.29110\include\xstring
;	COMDAT ??0?$basic_string@DU?$char_traits@D@std@@V?$allocator@D@2@@std@@QAE@QBD@Z
_TEXT	SEGMENT
__New_ptr$1 = -8					; size = 4
$T2 = -4						; size = 4
__Ptr$ = 8						; size = 4
??0?$basic_string@DU?$char_traits@D@std@@V?$allocator@D@2@@std@@QAE@QBD@Z PROC ; std::basic_string<char,std::char_traits<char>,std::allocator<char> >::basic_string<char,std::char_traits<char>,std::allocator<char> >, COMDAT
; _this$ = ecx

; 2335 :     basic_string(_In_z_ const _Elem* const _Ptr) : _Mypair(_Zero_then_variadic_args_t{}) {

  00000	55		 push	 ebp
  00001	8b ec		 mov	 ebp, esp
  00003	83 ec 08	 sub	 esp, 8
  00006	53		 push	 ebx
  00007	8b d9		 mov	 ebx, ecx

; 321  :         return _CSTD strlen(reinterpret_cast<const char*>(_First));

  00009	8b 4d 08	 mov	 ecx, DWORD PTR __Ptr$[ebp]

; 2335 :     basic_string(_In_z_ const _Elem* const _Ptr) : _Mypair(_Zero_then_variadic_args_t{}) {

  0000c	57		 push	 edi

; 321  :         return _CSTD strlen(reinterpret_cast<const char*>(_First));

  0000d	8b f9		 mov	 edi, ecx

; 4293 :         _Mypair._Myval2._Mysize = 0;

  0000f	c7 43 10 00 00
	00 00		 mov	 DWORD PTR [ebx+16], 0

; 4294 :         _Mypair._Myval2._Myres  = _BUF_SIZE - 1;

  00016	c7 43 14 0f 00
	00 00		 mov	 DWORD PTR [ebx+20], 15	; 0000000fH

; 4295 :         // the _Traits::assign is last so the codegen doesn't think the char write can alias this
; 4296 :         _Traits::assign(_Mypair._Myval2._Bx._Buf[0], _Elem());

  0001d	c6 03 00	 mov	 BYTE PTR [ebx], 0

; 321  :         return _CSTD strlen(reinterpret_cast<const char*>(_First));

  00020	8d 57 01	 lea	 edx, DWORD PTR [edi+1]
$LL47@basic_stri:
  00023	8a 07		 mov	 al, BYTE PTR [edi]
  00025	47		 inc	 edi
  00026	84 c0		 test	 al, al
  00028	75 f9		 jne	 SHORT $LL47@basic_stri
  0002a	2b fa		 sub	 edi, edx

; 2966 :         if (_Count <= _Mypair._Myval2._Myres) {

  0002c	83 ff 0f	 cmp	 edi, 15			; 0000000fH
  0002f	77 1c		 ja	 SHORT $LN14@basic_stri

; 363  :         return static_cast<_Elem*>(_CSTD memmove(_First1, _First2, _Count));

  00031	57		 push	 edi
  00032	51		 push	 ecx
  00033	53		 push	 ebx

; 2968 :             _Mypair._Myval2._Mysize = _Count;

  00034	89 7b 10	 mov	 DWORD PTR [ebx+16], edi

; 363  :         return static_cast<_Elem*>(_CSTD memmove(_First1, _First2, _Count));

  00037	e8 00 00 00 00	 call	 _memmove
  0003c	83 c4 0c	 add	 esp, 12			; 0000000cH

; 2970 :             _Traits::assign(_Old_ptr[_Count], _Elem());

  0003f	c6 04 1f 00	 mov	 BYTE PTR [edi+ebx], 0

; 2336 :         auto&& _Alproxy = _GET_PROXY_ALLOCATOR(_Alty, _Getal());
; 2337 :         _Container_proxy_ptr<_Alty> _Proxy(_Alproxy, _Mypair._Myval2);
; 2338 :         _Tidy_init();
; 2339 :         assign(_Ptr);
; 2340 :         _Proxy._Release();
; 2341 :     }

  00043	8b c3		 mov	 eax, ebx
  00045	5f		 pop	 edi
  00046	5b		 pop	 ebx
  00047	8b e5		 mov	 esp, ebp
  00049	5d		 pop	 ebp
  0004a	c2 04 00	 ret	 4
$LN14@basic_stri:

; 4221 :         if (_New_size > max_size()) {

  0004d	81 ff ff ff ff
	7f		 cmp	 edi, 2147483647		; 7fffffffH
  00053	77 5c		 ja	 SHORT $LN51@basic_stri

; 4201 :         const size_type _Masked = _Requested | _ALLOC_MASK;

  00055	8b c7		 mov	 eax, edi
  00057	83 c8 0f	 or	 eax, 15			; 0000000fH
  0005a	3d ff ff ff 7f	 cmp	 eax, 2147483647		; 7fffffffH

; 4202 :         if (_Masked > _Max) { // the mask overflows, settle for max_size()

  0005f	76 07		 jbe	 SHORT $LN31@basic_stri

; 4203 :             return _Max;

  00061	b8 ff ff ff 7f	 mov	 eax, 2147483647		; 7fffffffH
  00066	eb 0a		 jmp	 SHORT $LN49@basic_stri
$LN31@basic_stri:
; File C:\Program Files (x86)\Microsoft Visual Studio\2019\Community\VC\Tools\MSVC\14.27.29110\include\utility

; 44   :     return _Left < _Right ? _Right : _Left;

  00068	b9 16 00 00 00	 mov	 ecx, 22			; 00000016H
  0006d	3b c1		 cmp	 eax, ecx
  0006f	0f 42 c1	 cmovb	 eax, ecx
$LN49@basic_stri:
; File C:\Program Files (x86)\Microsoft Visual Studio\2019\Community\VC\Tools\MSVC\14.27.29110\include\xstring

; 4228 :         const pointer _New_ptr        = _Al.allocate(_New_capacity + 1); // throws

  00072	89 45 fc	 mov	 DWORD PTR $T2[ebp], eax
  00075	40		 inc	 eax
  00076	56		 push	 esi
; File C:\Program Files (x86)\Microsoft Visual Studio\2019\Community\VC\Tools\MSVC\14.27.29110\include\xmemory

; 807  :         return static_cast<_Ty*>(_Allocate<_New_alignof<_Ty>>(_Get_size_of_n<sizeof(_Ty)>(_Count)));

  00077	50		 push	 eax
  00078	e8 00 00 00 00	 call	 ??$_Allocate@$07U_Default_allocate_traits@std@@$0A@@std@@YAPAXI@Z ; std::_Allocate<8,std::_Default_allocate_traits,0>
; File C:\Program Files (x86)\Microsoft Visual Studio\2019\Community\VC\Tools\MSVC\14.27.29110\include\xstring

; 328  :         return static_cast<_Elem*>(_CSTD memcpy(_First1, _First2, _Count));

  0007d	57		 push	 edi
  0007e	ff 75 08	 push	 DWORD PTR __Ptr$[ebp]

; 4228 :         const pointer _New_ptr        = _Al.allocate(_New_capacity + 1); // throws

  00081	8b f0		 mov	 esi, eax

; 4229 :         _Mypair._Myval2._Orphan_all();
; 4230 :         _Mypair._Myval2._Mysize = _New_size;

  00083	89 7b 10	 mov	 DWORD PTR [ebx+16], edi

; 4231 :         _Mypair._Myval2._Myres  = _New_capacity;

  00086	8b 45 fc	 mov	 eax, DWORD PTR $T2[ebp]

; 328  :         return static_cast<_Elem*>(_CSTD memcpy(_First1, _First2, _Count));

  00089	56		 push	 esi

; 4228 :         const pointer _New_ptr        = _Al.allocate(_New_capacity + 1); // throws

  0008a	89 75 f8	 mov	 DWORD PTR __New_ptr$1[ebp], esi

; 4231 :         _Mypair._Myval2._Myres  = _New_capacity;

  0008d	89 43 14	 mov	 DWORD PTR [ebx+20], eax

; 328  :         return static_cast<_Elem*>(_CSTD memcpy(_First1, _First2, _Count));

  00090	e8 00 00 00 00	 call	 _memcpy

; 4237 :             _Construct_in_place(_Mypair._Myval2._Bx._Ptr, _New_ptr);

  00095	8d 45 f8	 lea	 eax, DWORD PTR __New_ptr$1[ebp]

; 2978 :                 _Traits::assign(_New_ptr[_Count], _Elem());

  00098	c6 04 3e 00	 mov	 BYTE PTR [esi+edi], 0

; 4237 :             _Construct_in_place(_Mypair._Myval2._Bx._Ptr, _New_ptr);

  0009c	50		 push	 eax
  0009d	53		 push	 ebx
  0009e	e8 00 00 00 00	 call	 ??$_Construct_in_place@PADABQAD@std@@YAXAAPADABQAD@Z ; std::_Construct_in_place<char *,char * const &>
  000a3	83 c4 18	 add	 esp, 24			; 00000018H

; 2336 :         auto&& _Alproxy = _GET_PROXY_ALLOCATOR(_Alty, _Getal());
; 2337 :         _Container_proxy_ptr<_Alty> _Proxy(_Alproxy, _Mypair._Myval2);
; 2338 :         _Tidy_init();
; 2339 :         assign(_Ptr);
; 2340 :         _Proxy._Release();
; 2341 :     }

  000a6	8b c3		 mov	 eax, ebx

; 4237 :             _Construct_in_place(_Mypair._Myval2._Bx._Ptr, _New_ptr);

  000a8	5e		 pop	 esi

; 2336 :         auto&& _Alproxy = _GET_PROXY_ALLOCATOR(_Alty, _Getal());
; 2337 :         _Container_proxy_ptr<_Alty> _Proxy(_Alproxy, _Mypair._Myval2);
; 2338 :         _Tidy_init();
; 2339 :         assign(_Ptr);
; 2340 :         _Proxy._Release();
; 2341 :     }

  000a9	5f		 pop	 edi
  000aa	5b		 pop	 ebx
  000ab	8b e5		 mov	 esp, ebp
  000ad	5d		 pop	 ebp
  000ae	c2 04 00	 ret	 4
$LN51@basic_stri:

; 4222 :             _Xlen_string(); // result too long

  000b1	e8 00 00 00 00	 call	 ?_Xlen_string@std@@YAXXZ ; std::_Xlen_string
$LN48@basic_stri:
  000b6	cc		 int	 3
??0?$basic_string@DU?$char_traits@D@std@@V?$allocator@D@2@@std@@QAE@QBD@Z ENDP ; std::basic_string<char,std::char_traits<char>,std::allocator<char> >::basic_string<char,std::char_traits<char>,std::allocator<char> >
_TEXT	ENDS
; Function compile flags: /Ogtp
; File C:\Program Files (x86)\Microsoft Visual Studio\2019\Community\VC\Tools\MSVC\14.27.29110\include\xstring
;	COMDAT ?_Xlen_string@std@@YAXXZ
_TEXT	SEGMENT
?_Xlen_string@std@@YAXXZ PROC				; std::_Xlen_string, COMDAT

; 2201 :     _Xlength_error("string too long");

  00000	68 00 00 00 00	 push	 OFFSET ??_C@_0BA@JFNIOLAK@string?5too?5long@
  00005	e8 00 00 00 00	 call	 ?_Xlength_error@std@@YAXPBD@Z ; std::_Xlength_error
$LN3@Xlen_strin:
  0000a	cc		 int	 3
?_Xlen_string@std@@YAXXZ ENDP				; std::_Xlen_string
_TEXT	ENDS
; Function compile flags: /Ogtp
; File C:\Program Files (x86)\Microsoft Visual Studio\2019\Community\VC\Tools\MSVC\14.27.29110\include\exception
;	COMDAT ?_Throw_bad_array_new_length@std@@YAXXZ
_TEXT	SEGMENT
$T1 = -12						; size = 12
?_Throw_bad_array_new_length@std@@YAXXZ PROC		; std::_Throw_bad_array_new_length, COMDAT

; 320  : [[noreturn]] inline void _Throw_bad_array_new_length() {

  00000	55		 push	 ebp
  00001	8b ec		 mov	 ebp, esp
  00003	83 ec 0c	 sub	 esp, 12			; 0000000cH

; 321  :     _THROW(bad_array_new_length{});

  00006	8d 4d f4	 lea	 ecx, DWORD PTR $T1[ebp]
  00009	e8 00 00 00 00	 call	 ??0bad_array_new_length@std@@QAE@XZ ; std::bad_array_new_length::bad_array_new_length
  0000e	68 00 00 00 00	 push	 OFFSET __TI3?AVbad_array_new_length@std@@
  00013	8d 45 f4	 lea	 eax, DWORD PTR $T1[ebp]
  00016	50		 push	 eax
  00017	e8 00 00 00 00	 call	 __CxxThrowException@8
$LN3@Throw_bad_:
  0001c	cc		 int	 3
?_Throw_bad_array_new_length@std@@YAXXZ ENDP		; std::_Throw_bad_array_new_length
_TEXT	ENDS
; Function compile flags: /Ogtp
; File C:\Program Files (x86)\Microsoft Visual Studio\2019\Community\VC\Tools\MSVC\14.27.29110\include\vcruntime_exception.h
;	COMDAT ??_Gbad_array_new_length@std@@UAEPAXI@Z
_TEXT	SEGMENT
___flags$ = 8						; size = 4
??_Gbad_array_new_length@std@@UAEPAXI@Z PROC		; std::bad_array_new_length::`scalar deleting destructor', COMDAT
; _this$ = ecx
  00000	55		 push	 ebp
  00001	8b ec		 mov	 ebp, esp

; 89   :     {

  00003	56		 push	 esi
  00004	8b f1		 mov	 esi, ecx

; 90   :         __std_exception_destroy(&_Data);

  00006	8d 46 04	 lea	 eax, DWORD PTR [esi+4]
  00009	c7 06 00 00 00
	00		 mov	 DWORD PTR [esi], OFFSET ??_7exception@std@@6B@
  0000f	50		 push	 eax
  00010	e8 00 00 00 00	 call	 ___std_exception_destroy
  00015	83 c4 04	 add	 esp, 4
  00018	f6 45 08 01	 test	 BYTE PTR ___flags$[ebp], 1
  0001c	74 0b		 je	 SHORT $LN12@scalar
  0001e	6a 0c		 push	 12			; 0000000cH
  00020	56		 push	 esi
  00021	e8 00 00 00 00	 call	 ??3@YAXPAXI@Z		; operator delete
  00026	83 c4 08	 add	 esp, 8
$LN12@scalar:
  00029	8b c6		 mov	 eax, esi
  0002b	5e		 pop	 esi
  0002c	5d		 pop	 ebp
  0002d	c2 04 00	 ret	 4
??_Gbad_array_new_length@std@@UAEPAXI@Z ENDP		; std::bad_array_new_length::`scalar deleting destructor'
_TEXT	ENDS
; Function compile flags: /Ogtp
; File C:\Program Files (x86)\Microsoft Visual Studio\2019\Community\VC\Tools\MSVC\14.27.29110\include\vcruntime_exception.h
;	COMDAT ??0bad_array_new_length@std@@QAE@ABV01@@Z
_TEXT	SEGMENT
___that$ = 8						; size = 4
??0bad_array_new_length@std@@QAE@ABV01@@Z PROC		; std::bad_array_new_length::bad_array_new_length, COMDAT
; _this$ = ecx
  00000	55		 push	 ebp
  00001	8b ec		 mov	 ebp, esp

; 72   :     {

  00003	56		 push	 esi
  00004	8b f1		 mov	 esi, ecx
  00006	0f 57 c0	 xorps	 xmm0, xmm0

; 71   :         : _Data()

  00009	8d 46 04	 lea	 eax, DWORD PTR [esi+4]

; 73   :         __std_exception_copy(&_Other._Data, &_Data);

  0000c	50		 push	 eax
  0000d	c7 06 00 00 00
	00		 mov	 DWORD PTR [esi], OFFSET ??_7exception@std@@6B@
  00013	66 0f d6 00	 movq	 QWORD PTR [eax], xmm0
  00017	8b 45 08	 mov	 eax, DWORD PTR ___that$[ebp]
  0001a	83 c0 04	 add	 eax, 4
  0001d	50		 push	 eax
  0001e	e8 00 00 00 00	 call	 ___std_exception_copy
  00023	83 c4 08	 add	 esp, 8
  00026	c7 06 00 00 00
	00		 mov	 DWORD PTR [esi], OFFSET ??_7bad_array_new_length@std@@6B@
  0002c	8b c6		 mov	 eax, esi
  0002e	5e		 pop	 esi
  0002f	5d		 pop	 ebp
  00030	c2 04 00	 ret	 4
??0bad_array_new_length@std@@QAE@ABV01@@Z ENDP		; std::bad_array_new_length::bad_array_new_length
_TEXT	ENDS
; Function compile flags: /Ogtp
; File C:\Program Files (x86)\Microsoft Visual Studio\2019\Community\VC\Tools\MSVC\14.27.29110\include\vcruntime_exception.h
;	COMDAT ??1bad_array_new_length@std@@UAE@XZ
_TEXT	SEGMENT
??1bad_array_new_length@std@@UAE@XZ PROC		; std::bad_array_new_length::~bad_array_new_length, COMDAT
; _this$ = ecx

; 90   :         __std_exception_destroy(&_Data);

  00000	8d 41 04	 lea	 eax, DWORD PTR [ecx+4]
  00003	c7 01 00 00 00
	00		 mov	 DWORD PTR [ecx], OFFSET ??_7exception@std@@6B@
  00009	50		 push	 eax
  0000a	e8 00 00 00 00	 call	 ___std_exception_destroy
  0000f	59		 pop	 ecx
  00010	c3		 ret	 0
??1bad_array_new_length@std@@UAE@XZ ENDP		; std::bad_array_new_length::~bad_array_new_length
_TEXT	ENDS
; Function compile flags: /Ogtp
; File C:\Program Files (x86)\Microsoft Visual Studio\2019\Community\VC\Tools\MSVC\14.27.29110\include\vcruntime_exception.h
;	COMDAT ??0bad_array_new_length@std@@QAE@XZ
_TEXT	SEGMENT
??0bad_array_new_length@std@@QAE@XZ PROC		; std::bad_array_new_length::bad_array_new_length, COMDAT
; _this$ = ecx

; 141  :     {

  00000	0f 57 c0	 xorps	 xmm0, xmm0

; 142  :     }

  00003	8b c1		 mov	 eax, ecx

; 65   :         : _Data()

  00005	66 0f d6 41 04	 movq	 QWORD PTR [ecx+4], xmm0

; 66   :     {
; 67   :         _Data._What = _Message;

  0000a	c7 41 04 00 00
	00 00		 mov	 DWORD PTR [ecx+4], OFFSET ??_C@_0BF@KINCDENJ@bad?5array?5new?5length@

; 141  :     {

  00011	c7 01 00 00 00
	00		 mov	 DWORD PTR [ecx], OFFSET ??_7bad_array_new_length@std@@6B@

; 142  :     }

  00017	c3		 ret	 0
??0bad_array_new_length@std@@QAE@XZ ENDP		; std::bad_array_new_length::bad_array_new_length
_TEXT	ENDS
; Function compile flags: /Ogtp
; File C:\Program Files (x86)\Microsoft Visual Studio\2019\Community\VC\Tools\MSVC\14.27.29110\include\vcruntime_exception.h
;	COMDAT ??_Gbad_alloc@std@@UAEPAXI@Z
_TEXT	SEGMENT
___flags$ = 8						; size = 4
??_Gbad_alloc@std@@UAEPAXI@Z PROC			; std::bad_alloc::`scalar deleting destructor', COMDAT
; _this$ = ecx
  00000	55		 push	 ebp
  00001	8b ec		 mov	 ebp, esp

; 89   :     {

  00003	56		 push	 esi
  00004	8b f1		 mov	 esi, ecx

; 90   :         __std_exception_destroy(&_Data);

  00006	8d 46 04	 lea	 eax, DWORD PTR [esi+4]
  00009	c7 06 00 00 00
	00		 mov	 DWORD PTR [esi], OFFSET ??_7exception@std@@6B@
  0000f	50		 push	 eax
  00010	e8 00 00 00 00	 call	 ___std_exception_destroy
  00015	83 c4 04	 add	 esp, 4
  00018	f6 45 08 01	 test	 BYTE PTR ___flags$[ebp], 1
  0001c	74 0b		 je	 SHORT $LN9@scalar
  0001e	6a 0c		 push	 12			; 0000000cH
  00020	56		 push	 esi
  00021	e8 00 00 00 00	 call	 ??3@YAXPAXI@Z		; operator delete
  00026	83 c4 08	 add	 esp, 8
$LN9@scalar:
  00029	8b c6		 mov	 eax, esi
  0002b	5e		 pop	 esi
  0002c	5d		 pop	 ebp
  0002d	c2 04 00	 ret	 4
??_Gbad_alloc@std@@UAEPAXI@Z ENDP			; std::bad_alloc::`scalar deleting destructor'
_TEXT	ENDS
; Function compile flags: /Ogtp
; File C:\Program Files (x86)\Microsoft Visual Studio\2019\Community\VC\Tools\MSVC\14.27.29110\include\vcruntime_exception.h
;	COMDAT ??0bad_alloc@std@@QAE@ABV01@@Z
_TEXT	SEGMENT
___that$ = 8						; size = 4
??0bad_alloc@std@@QAE@ABV01@@Z PROC			; std::bad_alloc::bad_alloc, COMDAT
; _this$ = ecx
  00000	55		 push	 ebp
  00001	8b ec		 mov	 ebp, esp

; 72   :     {

  00003	56		 push	 esi
  00004	8b f1		 mov	 esi, ecx
  00006	0f 57 c0	 xorps	 xmm0, xmm0

; 71   :         : _Data()

  00009	8d 46 04	 lea	 eax, DWORD PTR [esi+4]

; 73   :         __std_exception_copy(&_Other._Data, &_Data);

  0000c	50		 push	 eax
  0000d	c7 06 00 00 00
	00		 mov	 DWORD PTR [esi], OFFSET ??_7exception@std@@6B@
  00013	66 0f d6 00	 movq	 QWORD PTR [eax], xmm0
  00017	8b 45 08	 mov	 eax, DWORD PTR ___that$[ebp]
  0001a	83 c0 04	 add	 eax, 4
  0001d	50		 push	 eax
  0001e	e8 00 00 00 00	 call	 ___std_exception_copy
  00023	83 c4 08	 add	 esp, 8
  00026	c7 06 00 00 00
	00		 mov	 DWORD PTR [esi], OFFSET ??_7bad_alloc@std@@6B@
  0002c	8b c6		 mov	 eax, esi
  0002e	5e		 pop	 esi
  0002f	5d		 pop	 ebp
  00030	c2 04 00	 ret	 4
??0bad_alloc@std@@QAE@ABV01@@Z ENDP			; std::bad_alloc::bad_alloc
_TEXT	ENDS
; Function compile flags: /Ogtp
; File C:\Program Files (x86)\Microsoft Visual Studio\2019\Community\VC\Tools\MSVC\14.27.29110\include\vcruntime_exception.h
;	COMDAT ??_Gexception@std@@UAEPAXI@Z
_TEXT	SEGMENT
___flags$ = 8						; size = 4
??_Gexception@std@@UAEPAXI@Z PROC			; std::exception::`scalar deleting destructor', COMDAT
; _this$ = ecx
  00000	55		 push	 ebp
  00001	8b ec		 mov	 ebp, esp

; 89   :     {

  00003	56		 push	 esi
  00004	8b f1		 mov	 esi, ecx

; 90   :         __std_exception_destroy(&_Data);

  00006	8d 46 04	 lea	 eax, DWORD PTR [esi+4]
  00009	c7 06 00 00 00
	00		 mov	 DWORD PTR [esi], OFFSET ??_7exception@std@@6B@
  0000f	50		 push	 eax
  00010	e8 00 00 00 00	 call	 ___std_exception_destroy
  00015	83 c4 04	 add	 esp, 4
  00018	f6 45 08 01	 test	 BYTE PTR ___flags$[ebp], 1
  0001c	74 0b		 je	 SHORT $LN6@scalar
  0001e	6a 0c		 push	 12			; 0000000cH
  00020	56		 push	 esi
  00021	e8 00 00 00 00	 call	 ??3@YAXPAXI@Z		; operator delete
  00026	83 c4 08	 add	 esp, 8
$LN6@scalar:
  00029	8b c6		 mov	 eax, esi
  0002b	5e		 pop	 esi
  0002c	5d		 pop	 ebp
  0002d	c2 04 00	 ret	 4
??_Gexception@std@@UAEPAXI@Z ENDP			; std::exception::`scalar deleting destructor'
_TEXT	ENDS
; Function compile flags: /Ogtp
; File C:\Program Files (x86)\Microsoft Visual Studio\2019\Community\VC\Tools\MSVC\14.27.29110\include\vcruntime_exception.h
;	COMDAT ?what@exception@std@@UBEPBDXZ
_TEXT	SEGMENT
?what@exception@std@@UBEPBDXZ PROC			; std::exception::what, COMDAT
; _this$ = ecx

; 95   :         return _Data._What ? _Data._What : "Unknown exception";

  00000	8b 49 04	 mov	 ecx, DWORD PTR [ecx+4]
  00003	b8 00 00 00 00	 mov	 eax, OFFSET ??_C@_0BC@EOODALEL@Unknown?5exception@
  00008	85 c9		 test	 ecx, ecx
  0000a	0f 45 c1	 cmovne	 eax, ecx

; 96   :     }

  0000d	c3		 ret	 0
?what@exception@std@@UBEPBDXZ ENDP			; std::exception::what
_TEXT	ENDS
; Function compile flags: /Ogtp
; File C:\Program Files (x86)\Microsoft Visual Studio\2019\Community\VC\Tools\MSVC\14.27.29110\include\vcruntime_exception.h
;	COMDAT ??1exception@std@@UAE@XZ
_TEXT	SEGMENT
??1exception@std@@UAE@XZ PROC				; std::exception::~exception, COMDAT
; _this$ = ecx

; 90   :         __std_exception_destroy(&_Data);

  00000	8d 41 04	 lea	 eax, DWORD PTR [ecx+4]
  00003	c7 01 00 00 00
	00		 mov	 DWORD PTR [ecx], OFFSET ??_7exception@std@@6B@
  00009	50		 push	 eax
  0000a	e8 00 00 00 00	 call	 ___std_exception_destroy
  0000f	59		 pop	 ecx

; 91   :     }

  00010	c3		 ret	 0
??1exception@std@@UAE@XZ ENDP				; std::exception::~exception
_TEXT	ENDS
; Function compile flags: /Ogtp
; File C:\Program Files (x86)\Microsoft Visual Studio\2019\Community\VC\Tools\MSVC\14.27.29110\include\vcruntime_exception.h
;	COMDAT ??0exception@std@@QAE@ABV01@@Z
_TEXT	SEGMENT
__Other$ = 8						; size = 4
??0exception@std@@QAE@ABV01@@Z PROC			; std::exception::exception, COMDAT
; _this$ = ecx

; 72   :     {

  00000	55		 push	 ebp
  00001	8b ec		 mov	 ebp, esp
  00003	56		 push	 esi
  00004	8b f1		 mov	 esi, ecx
  00006	0f 57 c0	 xorps	 xmm0, xmm0
  00009	8d 46 04	 lea	 eax, DWORD PTR [esi+4]

; 73   :         __std_exception_copy(&_Other._Data, &_Data);

  0000c	50		 push	 eax
  0000d	c7 06 00 00 00
	00		 mov	 DWORD PTR [esi], OFFSET ??_7exception@std@@6B@
  00013	66 0f d6 00	 movq	 QWORD PTR [eax], xmm0
  00017	8b 45 08	 mov	 eax, DWORD PTR __Other$[ebp]
  0001a	83 c0 04	 add	 eax, 4
  0001d	50		 push	 eax
  0001e	e8 00 00 00 00	 call	 ___std_exception_copy
  00023	83 c4 08	 add	 esp, 8

; 74   :     }

  00026	8b c6		 mov	 eax, esi
  00028	5e		 pop	 esi
  00029	5d		 pop	 ebp
  0002a	c2 04 00	 ret	 4
??0exception@std@@QAE@ABV01@@Z ENDP			; std::exception::exception
_TEXT	ENDS
END
