; Listing generated by Microsoft (R) Optimizing Compiler Version 19.27.29112.0 

	TITLE	C:\DS Project\DS Files\Source\ClientSource\Client\eterGrnLib\Mesh.cpp
	.686P
	.XMM
	include listing.inc
	.model	flat

INCLUDELIB LIBCMT
INCLUDELIB OLDNAMES

PUBLIC	?GrannyPNT3322VertexType@@3PAUgranny_data_type_definition@@A ; GrannyPNT3322VertexType
PUBLIC	??_C@_08GCJNLIKG@Position@			; `string'
PUBLIC	??_C@_06EFAGIKOH@Normal@			; `string'
PUBLIC	??_C@_0BE@MAKBLMOM@TextureCoordinates0@		; `string'
PUBLIC	??_C@_0BE@NJLKINKN@TextureCoordinates1@		; `string'
;	COMDAT ??_C@_0BE@NJLKINKN@TextureCoordinates1@
CONST	SEGMENT
??_C@_0BE@NJLKINKN@TextureCoordinates1@ DB 'TextureCoordinates1', 00H ; `string'
CONST	ENDS
;	COMDAT ??_C@_0BE@MAKBLMOM@TextureCoordinates0@
CONST	SEGMENT
??_C@_0BE@MAKBLMOM@TextureCoordinates0@ DB 'TextureCoordinates0', 00H ; `string'
CONST	ENDS
;	COMDAT ??_C@_06EFAGIKOH@Normal@
CONST	SEGMENT
??_C@_06EFAGIKOH@Normal@ DB 'Normal', 00H		; `string'
CONST	ENDS
;	COMDAT ??_C@_08GCJNLIKG@Position@
CONST	SEGMENT
??_C@_08GCJNLIKG@Position@ DB 'Position', 00H		; `string'
CONST	ENDS
_DATA	SEGMENT
?GrannyPNT3322VertexType@@3PAUgranny_data_type_definition@@A DD 0aH ; GrannyPNT3322VertexType
	DD	FLAT:??_C@_08GCJNLIKG@Position@
	DD	00H
	DD	03H
	ORG $+16
	DD	0aH
	DD	FLAT:??_C@_06EFAGIKOH@Normal@
	DD	00H
	DD	03H
	ORG $+16
	DD	0aH
	DD	FLAT:??_C@_0BE@MAKBLMOM@TextureCoordinates0@
	DD	00H
	DD	02H
	ORG $+16
	DD	0aH
	DD	FLAT:??_C@_0BE@NJLKINKN@TextureCoordinates1@
	DD	00H
	DD	02H
	ORG $+16
	DD	00H
	ORG $+28
_DATA	ENDS
PUBLIC	??0exception@std@@QAE@ABV01@@Z			; std::exception::exception
PUBLIC	??1exception@std@@UAE@XZ			; std::exception::~exception
PUBLIC	?what@exception@std@@UBEPBDXZ			; std::exception::what
PUBLIC	??_Gexception@std@@UAEPAXI@Z			; std::exception::`scalar deleting destructor'
PUBLIC	??0bad_alloc@std@@QAE@ABV01@@Z			; std::bad_alloc::bad_alloc
PUBLIC	??_Gbad_alloc@std@@UAEPAXI@Z			; std::bad_alloc::`scalar deleting destructor'
PUBLIC	??0bad_array_new_length@std@@QAE@XZ		; std::bad_array_new_length::bad_array_new_length
PUBLIC	??1bad_array_new_length@std@@UAE@XZ		; std::bad_array_new_length::~bad_array_new_length
PUBLIC	??0bad_array_new_length@std@@QAE@ABV01@@Z	; std::bad_array_new_length::bad_array_new_length
PUBLIC	??_Gbad_array_new_length@std@@UAEPAXI@Z		; std::bad_array_new_length::`scalar deleting destructor'
PUBLIC	?_Throw_bad_array_new_length@std@@YAXXZ		; std::_Throw_bad_array_new_length
PUBLIC	??0CGrannyMesh@@QAE@XZ				; CGrannyMesh::CGrannyMesh
PUBLIC	??1CGrannyMesh@@UAE@XZ				; CGrannyMesh::~CGrannyMesh
PUBLIC	?IsEmpty@CGrannyMesh@@QBE_NXZ			; CGrannyMesh::IsEmpty
PUBLIC	?CreateFromGrannyMeshPointer@CGrannyMesh@@QAE_NPAUgranny_skeleton@@PAUgranny_mesh@@HHAAVCGrannyMaterialPalette@@@Z ; CGrannyMesh::CreateFromGrannyMeshPointer
PUBLIC	?LoadIndices@CGrannyMesh@@QAEXPAX@Z		; CGrannyMesh::LoadIndices
PUBLIC	?LoadPNTVertices@CGrannyMesh@@QAEXPAX@Z		; CGrannyMesh::LoadPNTVertices
PUBLIC	?NEW_LoadVertices@CGrannyMesh@@QAEXPAX@Z	; CGrannyMesh::NEW_LoadVertices
PUBLIC	?Destroy@CGrannyMesh@@QAEXXZ			; CGrannyMesh::Destroy
PUBLIC	?SetPNT2Mesh@CGrannyMesh@@QAEXXZ		; CGrannyMesh::SetPNT2Mesh
PUBLIC	?DeformPNTVertices@CGrannyMesh@@QBEXPAXPAUD3DXMATRIX@@PAUmesh_binding@granny@@@Z ; CGrannyMesh::DeformPNTVertices
PUBLIC	?CanDeformPNTVertices@CGrannyMesh@@QBE_NXZ	; CGrannyMesh::CanDeformPNTVertices
PUBLIC	?IsTwoSide@CGrannyMesh@@QBE_NXZ			; CGrannyMesh::IsTwoSide
PUBLIC	?GetVertexCount@CGrannyMesh@@QBEHXZ		; CGrannyMesh::GetVertexCount
PUBLIC	?GetDefaultBoneIndices@CGrannyMesh@@QBEPBHXZ	; CGrannyMesh::GetDefaultBoneIndices
PUBLIC	?GetVertexBasePosition@CGrannyMesh@@QBEHXZ	; CGrannyMesh::GetVertexBasePosition
PUBLIC	?GetIndexBasePosition@CGrannyMesh@@QBEHXZ	; CGrannyMesh::GetIndexBasePosition
PUBLIC	?GetGrannyMeshPointer@CGrannyMesh@@QBEPBUgranny_mesh@@XZ ; CGrannyMesh::GetGrannyMeshPointer
PUBLIC	?GetTriGroupNodeList@CGrannyMesh@@QBEPBUSTriGroupNode@1@W4EType@CGrannyMaterial@@@Z ; CGrannyMesh::GetTriGroupNodeList
PUBLIC	?RebuildTriGroupNodeList@CGrannyMesh@@QAEXXZ	; CGrannyMesh::RebuildTriGroupNodeList
PUBLIC	?Initialize@CGrannyMesh@@IAEXXZ			; CGrannyMesh::Initialize
PUBLIC	?LoadMaterials@CGrannyMesh@@IAE_NAAVCGrannyMaterialPalette@@@Z ; CGrannyMesh::LoadMaterials
PUBLIC	?LoadTriGroupNodeList@CGrannyMesh@@IAE_NAAVCGrannyMaterialPalette@@@Z ; CGrannyMesh::LoadTriGroupNodeList
PUBLIC	?_Xlength@?$vector@KV?$allocator@K@std@@@std@@CAXXZ ; std::vector<unsigned long,std::allocator<unsigned long> >::_Xlength
PUBLIC	??_GCGrannyMesh@@UAEPAXI@Z			; CGrannyMesh::`scalar deleting destructor'
PUBLIC	??$_Emplace_reallocate@ABK@?$vector@KV?$allocator@K@std@@@std@@QAEPAKQAKABK@Z ; std::vector<unsigned long,std::allocator<unsigned long> >::_Emplace_reallocate<unsigned long const &>
PUBLIC	??$_Destroy_range@V?$allocator@K@std@@@std@@YAXPAKQAKAAV?$allocator@K@0@@Z ; std::_Destroy_range<std::allocator<unsigned long> >
PUBLIC	??$_Deallocate@$07$0A@@std@@YAXPAXI@Z		; std::_Deallocate<8,0>
PUBLIC	??$_Allocate@$07U_Default_allocate_traits@std@@$0A@@std@@YAPAXI@Z ; std::_Allocate<8,std::_Default_allocate_traits,0>
PUBLIC	??$_Allocate_manually_vector_aligned@U_Default_allocate_traits@std@@@std@@YAPAXI@Z ; std::_Allocate_manually_vector_aligned<std::_Default_allocate_traits>
PUBLIC	??$_Uninitialized_move@PAKV?$allocator@K@std@@@std@@YAPAKQAK0PAKAAV?$allocator@K@0@@Z ; std::_Uninitialized_move<unsigned long *,std::allocator<unsigned long> >
PUBLIC	??$_Copy_memmove@PAKPAK@std@@YAPAKPAK00@Z	; std::_Copy_memmove<unsigned long *,unsigned long *>
PUBLIC	??_7exception@std@@6B@				; std::exception::`vftable'
PUBLIC	??_C@_0BC@EOODALEL@Unknown?5exception@		; `string'
PUBLIC	??_7bad_alloc@std@@6B@				; std::bad_alloc::`vftable'
PUBLIC	??_7bad_array_new_length@std@@6B@		; std::bad_array_new_length::`vftable'
PUBLIC	??_C@_0BF@KINCDENJ@bad?5array?5new?5length@	; `string'
PUBLIC	__TI3?AVbad_array_new_length@std@@
PUBLIC	__CTA3?AVbad_array_new_length@std@@
PUBLIC	??_R0?AVbad_array_new_length@std@@@8		; std::bad_array_new_length `RTTI Type Descriptor'
PUBLIC	__CT??_R0?AVbad_array_new_length@std@@@8??0bad_array_new_length@std@@QAE@ABV01@@Z12
PUBLIC	??_R0?AVbad_alloc@std@@@8			; std::bad_alloc `RTTI Type Descriptor'
PUBLIC	__CT??_R0?AVbad_alloc@std@@@8??0bad_alloc@std@@QAE@ABV01@@Z12
PUBLIC	??_R0?AVexception@std@@@8			; std::exception `RTTI Type Descriptor'
PUBLIC	__CT??_R0?AVexception@std@@@8??0exception@std@@QAE@ABV01@@Z12
PUBLIC	??_7CGrannyMesh@@6B@				; CGrannyMesh::`vftable'
PUBLIC	??_C@_02MALHOEON@2x@				; `string'
PUBLIC	??_C@_0BA@FOIKENOD@vector?5too?5long@		; `string'
PUBLIC	??_R4exception@std@@6B@				; std::exception::`RTTI Complete Object Locator'
PUBLIC	??_R3exception@std@@8				; std::exception::`RTTI Class Hierarchy Descriptor'
PUBLIC	??_R2exception@std@@8				; std::exception::`RTTI Base Class Array'
PUBLIC	??_R1A@?0A@EA@exception@std@@8			; std::exception::`RTTI Base Class Descriptor at (0,-1,0,64)'
PUBLIC	??_R4bad_alloc@std@@6B@				; std::bad_alloc::`RTTI Complete Object Locator'
PUBLIC	??_R3bad_alloc@std@@8				; std::bad_alloc::`RTTI Class Hierarchy Descriptor'
PUBLIC	??_R2bad_alloc@std@@8				; std::bad_alloc::`RTTI Base Class Array'
PUBLIC	??_R1A@?0A@EA@bad_alloc@std@@8			; std::bad_alloc::`RTTI Base Class Descriptor at (0,-1,0,64)'
PUBLIC	??_R4bad_array_new_length@std@@6B@		; std::bad_array_new_length::`RTTI Complete Object Locator'
PUBLIC	??_R3bad_array_new_length@std@@8		; std::bad_array_new_length::`RTTI Class Hierarchy Descriptor'
PUBLIC	??_R2bad_array_new_length@std@@8		; std::bad_array_new_length::`RTTI Base Class Array'
PUBLIC	??_R1A@?0A@EA@bad_array_new_length@std@@8	; std::bad_array_new_length::`RTTI Base Class Descriptor at (0,-1,0,64)'
PUBLIC	??_R4CGrannyMesh@@6B@				; CGrannyMesh::`RTTI Complete Object Locator'
PUBLIC	??_R0?AVCGrannyMesh@@@8				; CGrannyMesh `RTTI Type Descriptor'
PUBLIC	??_R3CGrannyMesh@@8				; CGrannyMesh::`RTTI Class Hierarchy Descriptor'
PUBLIC	??_R2CGrannyMesh@@8				; CGrannyMesh::`RTTI Base Class Array'
PUBLIC	??_R1A@?0A@EA@CGrannyMesh@@8			; CGrannyMesh::`RTTI Base Class Descriptor at (0,-1,0,64)'
EXTRN	??2@YAPAXI@Z:PROC				; operator new
EXTRN	??3@YAXPAXI@Z:PROC				; operator delete
EXTRN	??_U@YAPAXI@Z:PROC				; operator new[]
EXTRN	??_V@YAXPAX@Z:PROC				; operator delete[]
EXTRN	__imp__GrannyGetMeshTriangleGroupCount@4:PROC
EXTRN	__imp__GrannyGetMeshTriangleGroups@4:PROC
EXTRN	__imp__GrannyGetMeshVertexType@4:PROC
EXTRN	__imp__GrannyGetMeshVertexCount@4:PROC
EXTRN	__imp__GrannyCopyMeshVertices@12:PROC
EXTRN	__imp__GrannyGetMeshVertices@4:PROC
EXTRN	__imp__GrannyMeshIsRigid@4:PROC
EXTRN	__imp__GrannyCopyMeshIndices@12:PROC
EXTRN	__imp__GrannyNewMeshBinding@12:PROC
EXTRN	__imp__GrannyFreeMeshBinding@4:PROC
EXTRN	__imp__GrannyGetMeshBindingToBoneIndices@4:PROC
EXTRN	__imp__GrannyNewMeshDeformer@16:PROC
EXTRN	__imp__GrannyFreeMeshDeformer@4:PROC
EXTRN	__imp__GrannyDeformVertices@24:PROC
EXTRN	__invalid_parameter_noinfo_noreturn:PROC
EXTRN	_strncmp:PROC
EXTRN	___std_exception_copy:PROC
EXTRN	___std_exception_destroy:PROC
EXTRN	??_Eexception@std@@UAEPAXI@Z:PROC		; std::exception::`vector deleting destructor'
EXTRN	??_Ebad_alloc@std@@UAEPAXI@Z:PROC		; std::bad_alloc::`vector deleting destructor'
EXTRN	??_Ebad_array_new_length@std@@UAEPAXI@Z:PROC	; std::bad_array_new_length::`vector deleting destructor'
EXTRN	?_Xlength_error@std@@YAXPBD@Z:PROC		; std::_Xlength_error
EXTRN	?GetType@CGrannyMaterial@@QBE?AW4EType@1@XZ:PROC ; CGrannyMaterial::GetType
EXTRN	?RegisterMaterial@CGrannyMaterialPalette@@QAEKPAUgranny_material@@@Z:PROC ; CGrannyMaterialPalette::RegisterMaterial
EXTRN	?GetMaterialRef@CGrannyMaterialPalette@@QAEAAVCGrannyMaterial@@K@Z:PROC ; CGrannyMaterialPalette::GetMaterialRef
EXTRN	??_ECGrannyMesh@@UAEPAXI@Z:PROC			; CGrannyMesh::`vector deleting destructor'
EXTRN	__CxxThrowException@8:PROC
EXTRN	_memmove:PROC
EXTRN	__imp__GrannyPNT332VertexType:DWORD
EXTRN	??_7type_info@@6B@:QWORD			; type_info::`vftable'
;	COMDAT ??_R1A@?0A@EA@CGrannyMesh@@8
rdata$r	SEGMENT
??_R1A@?0A@EA@CGrannyMesh@@8 DD FLAT:??_R0?AVCGrannyMesh@@@8 ; CGrannyMesh::`RTTI Base Class Descriptor at (0,-1,0,64)'
	DD	00H
	DD	00H
	DD	0ffffffffH
	DD	00H
	DD	040H
	DD	FLAT:??_R3CGrannyMesh@@8
rdata$r	ENDS
;	COMDAT ??_R2CGrannyMesh@@8
rdata$r	SEGMENT
??_R2CGrannyMesh@@8 DD FLAT:??_R1A@?0A@EA@CGrannyMesh@@8 ; CGrannyMesh::`RTTI Base Class Array'
rdata$r	ENDS
;	COMDAT ??_R3CGrannyMesh@@8
rdata$r	SEGMENT
??_R3CGrannyMesh@@8 DD 00H				; CGrannyMesh::`RTTI Class Hierarchy Descriptor'
	DD	00H
	DD	01H
	DD	FLAT:??_R2CGrannyMesh@@8
rdata$r	ENDS
;	COMDAT ??_R0?AVCGrannyMesh@@@8
data$r	SEGMENT
??_R0?AVCGrannyMesh@@@8 DD FLAT:??_7type_info@@6B@	; CGrannyMesh `RTTI Type Descriptor'
	DD	00H
	DB	'.?AVCGrannyMesh@@', 00H
data$r	ENDS
;	COMDAT ??_R4CGrannyMesh@@6B@
rdata$r	SEGMENT
??_R4CGrannyMesh@@6B@ DD 00H				; CGrannyMesh::`RTTI Complete Object Locator'
	DD	00H
	DD	00H
	DD	FLAT:??_R0?AVCGrannyMesh@@@8
	DD	FLAT:??_R3CGrannyMesh@@8
rdata$r	ENDS
;	COMDAT ??_R1A@?0A@EA@bad_array_new_length@std@@8
rdata$r	SEGMENT
??_R1A@?0A@EA@bad_array_new_length@std@@8 DD FLAT:??_R0?AVbad_array_new_length@std@@@8 ; std::bad_array_new_length::`RTTI Base Class Descriptor at (0,-1,0,64)'
	DD	02H
	DD	00H
	DD	0ffffffffH
	DD	00H
	DD	040H
	DD	FLAT:??_R3bad_array_new_length@std@@8
rdata$r	ENDS
;	COMDAT ??_R2bad_array_new_length@std@@8
rdata$r	SEGMENT
??_R2bad_array_new_length@std@@8 DD FLAT:??_R1A@?0A@EA@bad_array_new_length@std@@8 ; std::bad_array_new_length::`RTTI Base Class Array'
	DD	FLAT:??_R1A@?0A@EA@bad_alloc@std@@8
	DD	FLAT:??_R1A@?0A@EA@exception@std@@8
rdata$r	ENDS
;	COMDAT ??_R3bad_array_new_length@std@@8
rdata$r	SEGMENT
??_R3bad_array_new_length@std@@8 DD 00H			; std::bad_array_new_length::`RTTI Class Hierarchy Descriptor'
	DD	00H
	DD	03H
	DD	FLAT:??_R2bad_array_new_length@std@@8
rdata$r	ENDS
;	COMDAT ??_R4bad_array_new_length@std@@6B@
rdata$r	SEGMENT
??_R4bad_array_new_length@std@@6B@ DD 00H		; std::bad_array_new_length::`RTTI Complete Object Locator'
	DD	00H
	DD	00H
	DD	FLAT:??_R0?AVbad_array_new_length@std@@@8
	DD	FLAT:??_R3bad_array_new_length@std@@8
rdata$r	ENDS
;	COMDAT ??_R1A@?0A@EA@bad_alloc@std@@8
rdata$r	SEGMENT
??_R1A@?0A@EA@bad_alloc@std@@8 DD FLAT:??_R0?AVbad_alloc@std@@@8 ; std::bad_alloc::`RTTI Base Class Descriptor at (0,-1,0,64)'
	DD	01H
	DD	00H
	DD	0ffffffffH
	DD	00H
	DD	040H
	DD	FLAT:??_R3bad_alloc@std@@8
rdata$r	ENDS
;	COMDAT ??_R2bad_alloc@std@@8
rdata$r	SEGMENT
??_R2bad_alloc@std@@8 DD FLAT:??_R1A@?0A@EA@bad_alloc@std@@8 ; std::bad_alloc::`RTTI Base Class Array'
	DD	FLAT:??_R1A@?0A@EA@exception@std@@8
rdata$r	ENDS
;	COMDAT ??_R3bad_alloc@std@@8
rdata$r	SEGMENT
??_R3bad_alloc@std@@8 DD 00H				; std::bad_alloc::`RTTI Class Hierarchy Descriptor'
	DD	00H
	DD	02H
	DD	FLAT:??_R2bad_alloc@std@@8
rdata$r	ENDS
;	COMDAT ??_R4bad_alloc@std@@6B@
rdata$r	SEGMENT
??_R4bad_alloc@std@@6B@ DD 00H				; std::bad_alloc::`RTTI Complete Object Locator'
	DD	00H
	DD	00H
	DD	FLAT:??_R0?AVbad_alloc@std@@@8
	DD	FLAT:??_R3bad_alloc@std@@8
rdata$r	ENDS
;	COMDAT ??_R1A@?0A@EA@exception@std@@8
rdata$r	SEGMENT
??_R1A@?0A@EA@exception@std@@8 DD FLAT:??_R0?AVexception@std@@@8 ; std::exception::`RTTI Base Class Descriptor at (0,-1,0,64)'
	DD	00H
	DD	00H
	DD	0ffffffffH
	DD	00H
	DD	040H
	DD	FLAT:??_R3exception@std@@8
rdata$r	ENDS
;	COMDAT ??_R2exception@std@@8
rdata$r	SEGMENT
??_R2exception@std@@8 DD FLAT:??_R1A@?0A@EA@exception@std@@8 ; std::exception::`RTTI Base Class Array'
rdata$r	ENDS
;	COMDAT ??_R3exception@std@@8
rdata$r	SEGMENT
??_R3exception@std@@8 DD 00H				; std::exception::`RTTI Class Hierarchy Descriptor'
	DD	00H
	DD	01H
	DD	FLAT:??_R2exception@std@@8
rdata$r	ENDS
;	COMDAT ??_R4exception@std@@6B@
rdata$r	SEGMENT
??_R4exception@std@@6B@ DD 00H				; std::exception::`RTTI Complete Object Locator'
	DD	00H
	DD	00H
	DD	FLAT:??_R0?AVexception@std@@@8
	DD	FLAT:??_R3exception@std@@8
rdata$r	ENDS
;	COMDAT ??_C@_0BA@FOIKENOD@vector?5too?5long@
CONST	SEGMENT
??_C@_0BA@FOIKENOD@vector?5too?5long@ DB 'vector too long', 00H ; `string'
CONST	ENDS
;	COMDAT ??_C@_02MALHOEON@2x@
CONST	SEGMENT
??_C@_02MALHOEON@2x@ DB '2x', 00H			; `string'
CONST	ENDS
;	COMDAT ??_7CGrannyMesh@@6B@
CONST	SEGMENT
??_7CGrannyMesh@@6B@ DD FLAT:??_R4CGrannyMesh@@6B@	; CGrannyMesh::`vftable'
	DD	FLAT:??_ECGrannyMesh@@UAEPAXI@Z
CONST	ENDS
;	COMDAT __CT??_R0?AVexception@std@@@8??0exception@std@@QAE@ABV01@@Z12
xdata$x	SEGMENT
__CT??_R0?AVexception@std@@@8??0exception@std@@QAE@ABV01@@Z12 DD 00H
	DD	FLAT:??_R0?AVexception@std@@@8
	DD	00H
	DD	0ffffffffH
	ORG $+4
	DD	0cH
	DD	FLAT:??0exception@std@@QAE@ABV01@@Z
xdata$x	ENDS
;	COMDAT ??_R0?AVexception@std@@@8
data$r	SEGMENT
??_R0?AVexception@std@@@8 DD FLAT:??_7type_info@@6B@	; std::exception `RTTI Type Descriptor'
	DD	00H
	DB	'.?AVexception@std@@', 00H
data$r	ENDS
;	COMDAT __CT??_R0?AVbad_alloc@std@@@8??0bad_alloc@std@@QAE@ABV01@@Z12
xdata$x	SEGMENT
__CT??_R0?AVbad_alloc@std@@@8??0bad_alloc@std@@QAE@ABV01@@Z12 DD 010H
	DD	FLAT:??_R0?AVbad_alloc@std@@@8
	DD	00H
	DD	0ffffffffH
	ORG $+4
	DD	0cH
	DD	FLAT:??0bad_alloc@std@@QAE@ABV01@@Z
xdata$x	ENDS
;	COMDAT ??_R0?AVbad_alloc@std@@@8
data$r	SEGMENT
??_R0?AVbad_alloc@std@@@8 DD FLAT:??_7type_info@@6B@	; std::bad_alloc `RTTI Type Descriptor'
	DD	00H
	DB	'.?AVbad_alloc@std@@', 00H
data$r	ENDS
;	COMDAT __CT??_R0?AVbad_array_new_length@std@@@8??0bad_array_new_length@std@@QAE@ABV01@@Z12
xdata$x	SEGMENT
__CT??_R0?AVbad_array_new_length@std@@@8??0bad_array_new_length@std@@QAE@ABV01@@Z12 DD 00H
	DD	FLAT:??_R0?AVbad_array_new_length@std@@@8
	DD	00H
	DD	0ffffffffH
	ORG $+4
	DD	0cH
	DD	FLAT:??0bad_array_new_length@std@@QAE@ABV01@@Z
xdata$x	ENDS
;	COMDAT ??_R0?AVbad_array_new_length@std@@@8
data$r	SEGMENT
??_R0?AVbad_array_new_length@std@@@8 DD FLAT:??_7type_info@@6B@ ; std::bad_array_new_length `RTTI Type Descriptor'
	DD	00H
	DB	'.?AVbad_array_new_length@std@@', 00H
data$r	ENDS
;	COMDAT __CTA3?AVbad_array_new_length@std@@
xdata$x	SEGMENT
__CTA3?AVbad_array_new_length@std@@ DD 03H
	DD	FLAT:__CT??_R0?AVbad_array_new_length@std@@@8??0bad_array_new_length@std@@QAE@ABV01@@Z12
	DD	FLAT:__CT??_R0?AVbad_alloc@std@@@8??0bad_alloc@std@@QAE@ABV01@@Z12
	DD	FLAT:__CT??_R0?AVexception@std@@@8??0exception@std@@QAE@ABV01@@Z12
xdata$x	ENDS
;	COMDAT __TI3?AVbad_array_new_length@std@@
xdata$x	SEGMENT
__TI3?AVbad_array_new_length@std@@ DD 00H
	DD	FLAT:??1bad_array_new_length@std@@UAE@XZ
	DD	00H
	DD	FLAT:__CTA3?AVbad_array_new_length@std@@
xdata$x	ENDS
;	COMDAT ??_C@_0BF@KINCDENJ@bad?5array?5new?5length@
CONST	SEGMENT
??_C@_0BF@KINCDENJ@bad?5array?5new?5length@ DB 'bad array new length', 00H ; `string'
CONST	ENDS
;	COMDAT ??_7bad_array_new_length@std@@6B@
CONST	SEGMENT
??_7bad_array_new_length@std@@6B@ DD FLAT:??_R4bad_array_new_length@std@@6B@ ; std::bad_array_new_length::`vftable'
	DD	FLAT:??_Ebad_array_new_length@std@@UAEPAXI@Z
	DD	FLAT:?what@exception@std@@UBEPBDXZ
CONST	ENDS
;	COMDAT ??_7bad_alloc@std@@6B@
CONST	SEGMENT
??_7bad_alloc@std@@6B@ DD FLAT:??_R4bad_alloc@std@@6B@	; std::bad_alloc::`vftable'
	DD	FLAT:??_Ebad_alloc@std@@UAEPAXI@Z
	DD	FLAT:?what@exception@std@@UBEPBDXZ
CONST	ENDS
;	COMDAT ??_C@_0BC@EOODALEL@Unknown?5exception@
CONST	SEGMENT
??_C@_0BC@EOODALEL@Unknown?5exception@ DB 'Unknown exception', 00H ; `string'
CONST	ENDS
;	COMDAT ??_7exception@std@@6B@
CONST	SEGMENT
??_7exception@std@@6B@ DD FLAT:??_R4exception@std@@6B@	; std::exception::`vftable'
	DD	FLAT:??_Eexception@std@@UAEPAXI@Z
	DD	FLAT:?what@exception@std@@UBEPBDXZ
CONST	ENDS
; Function compile flags: /Ogtp
; File C:\Program Files (x86)\Microsoft Visual Studio\2019\Community\VC\Tools\MSVC\14.27.29110\include\xutility
;	COMDAT ??$_Copy_memmove@PAKPAK@std@@YAPAKPAK00@Z
_TEXT	SEGMENT
__First$ = 8						; size = 4
__Last$ = 12						; size = 4
__Dest$ = 16						; size = 4
??$_Copy_memmove@PAKPAK@std@@YAPAKPAK00@Z PROC		; std::_Copy_memmove<unsigned long *,unsigned long *>, COMDAT

; 4113 : _OutIt _Copy_memmove(_InIt _First, _InIt _Last, _OutIt _Dest) {

  00000	55		 push	 ebp
  00001	8b ec		 mov	 ebp, esp

; 4114 :     const char* const _First_ch = const_cast<const char*>(reinterpret_cast<const volatile char*>(_First));
; 4115 :     const char* const _Last_ch  = const_cast<const char*>(reinterpret_cast<const volatile char*>(_Last));
; 4116 :     char* const _Dest_ch        = const_cast<char*>(reinterpret_cast<volatile char*>(_Dest));
; 4117 :     const auto _Count           = static_cast<size_t>(_Last_ch - _First_ch);

  00003	8b 45 08	 mov	 eax, DWORD PTR __First$[ebp]
  00006	56		 push	 esi

; 4118 :     _CSTD memmove(_Dest_ch, _First_ch, _Count);

  00007	8b 75 10	 mov	 esi, DWORD PTR __Dest$[ebp]
  0000a	57		 push	 edi
  0000b	8b 7d 0c	 mov	 edi, DWORD PTR __Last$[ebp]
  0000e	2b f8		 sub	 edi, eax
  00010	57		 push	 edi
  00011	50		 push	 eax
  00012	56		 push	 esi
  00013	e8 00 00 00 00	 call	 _memmove
  00018	83 c4 0c	 add	 esp, 12			; 0000000cH

; 4119 :     return reinterpret_cast<_OutIt>(_Dest_ch + _Count);

  0001b	8d 04 37	 lea	 eax, DWORD PTR [edi+esi]
  0001e	5f		 pop	 edi
  0001f	5e		 pop	 esi

; 4120 : }

  00020	5d		 pop	 ebp
  00021	c3		 ret	 0
??$_Copy_memmove@PAKPAK@std@@YAPAKPAK00@Z ENDP		; std::_Copy_memmove<unsigned long *,unsigned long *>
_TEXT	ENDS
; Function compile flags: /Ogtp
; File C:\Program Files (x86)\Microsoft Visual Studio\2019\Community\VC\Tools\MSVC\14.27.29110\include\xmemory
;	COMDAT ??$_Uninitialized_move@PAKV?$allocator@K@std@@@std@@YAPAKQAK0PAKAAV?$allocator@K@0@@Z
_TEXT	SEGMENT
__First$ = 8						; size = 4
__Last$ = 12						; size = 4
__Dest$ = 16						; size = 4
__Al$ = 20						; size = 4
??$_Uninitialized_move@PAKV?$allocator@K@std@@@std@@YAPAKQAK0PAKAAV?$allocator@K@0@@Z PROC ; std::_Uninitialized_move<unsigned long *,std::allocator<unsigned long> >, COMDAT

; 1647 :     const _InIt _First, const _InIt _Last, _Alloc_ptr_t<_Alloc> _Dest, _Alloc& _Al) {

  00000	55		 push	 ebp
  00001	8b ec		 mov	 ebp, esp
  00003	53		 push	 ebx

; 1648 :     // move [_First, _Last) to raw _Dest, using _Al
; 1649 :     // note: only called internally from elsewhere in the STL
; 1650 :     using _Ptrval     = typename _Alloc::value_type*;
; 1651 :     auto _UFirst      = _Get_unwrapped(_First);
; 1652 :     const auto _ULast = _Get_unwrapped(_Last);
; 1653 :     if constexpr (conjunction_v<bool_constant<_Ptr_move_cat<decltype(_UFirst), _Ptrval>::_Really_trivial>,
; 1654 :                       _Uses_default_construct<_Alloc, _Ptrval, decltype(_STD move(*_UFirst))>>) {
; 1655 :         _Copy_memmove(_UFirst, _ULast, _Unfancy(_Dest));

  00004	8b 5d 10	 mov	 ebx, DWORD PTR __Dest$[ebp]
  00007	57		 push	 edi
  00008	8b 7d 0c	 mov	 edi, DWORD PTR __Last$[ebp]
  0000b	53		 push	 ebx
  0000c	57		 push	 edi
  0000d	ff 75 08	 push	 DWORD PTR __First$[ebp]
  00010	e8 00 00 00 00	 call	 ??$_Copy_memmove@PAKPAK@std@@YAPAKPAK00@Z ; std::_Copy_memmove<unsigned long *,unsigned long *>

; 1656 :         return _Dest + (_ULast - _UFirst);

  00015	2b 7d 08	 sub	 edi, DWORD PTR __First$[ebp]
  00018	83 c4 0c	 add	 esp, 12			; 0000000cH
  0001b	c1 ff 02	 sar	 edi, 2
  0001e	8d 04 bb	 lea	 eax, DWORD PTR [ebx+edi*4]
  00021	5f		 pop	 edi
  00022	5b		 pop	 ebx

; 1657 :     } else {
; 1658 :         _Uninitialized_backout_al<_Alloc> _Backout{_Dest, _Al};
; 1659 :         for (; _UFirst != _ULast; ++_UFirst) {
; 1660 :             _Backout._Emplace_back(_STD move(*_UFirst));
; 1661 :         }
; 1662 : 
; 1663 :         return _Backout._Release();
; 1664 :     }
; 1665 : }

  00023	5d		 pop	 ebp
  00024	c3		 ret	 0
??$_Uninitialized_move@PAKV?$allocator@K@std@@@std@@YAPAKQAK0PAKAAV?$allocator@K@0@@Z ENDP ; std::_Uninitialized_move<unsigned long *,std::allocator<unsigned long> >
_TEXT	ENDS
; Function compile flags: /Ogtp
; File C:\Program Files (x86)\Microsoft Visual Studio\2019\Community\VC\Tools\MSVC\14.27.29110\include\xmemory
;	COMDAT ??$_Allocate_manually_vector_aligned@U_Default_allocate_traits@std@@@std@@YAPAXI@Z
_TEXT	SEGMENT
__Bytes$ = 8						; size = 4
??$_Allocate_manually_vector_aligned@U_Default_allocate_traits@std@@@std@@YAPAXI@Z PROC ; std::_Allocate_manually_vector_aligned<std::_Default_allocate_traits>, COMDAT

; 113  : __declspec(allocator) void* _Allocate_manually_vector_aligned(const size_t _Bytes) {

  00000	55		 push	 ebp
  00001	8b ec		 mov	 ebp, esp

; 114  :     // allocate _Bytes manually aligned to at least _Big_allocation_alignment
; 115  :     const size_t _Block_size = _Non_user_size + _Bytes;

  00003	8b 45 08	 mov	 eax, DWORD PTR __Bytes$[ebp]
  00006	8d 48 23	 lea	 ecx, DWORD PTR [eax+35]

; 116  :     if (_Block_size <= _Bytes) {

  00009	3b c8		 cmp	 ecx, eax
  0000b	0f 86 00 00 00
	00		 jbe	 ?_Throw_bad_array_new_length@std@@YAXXZ ; std::_Throw_bad_array_new_length

; 77   :         return ::operator new(_Bytes);

  00011	51		 push	 ecx
  00012	e8 00 00 00 00	 call	 ??2@YAPAXI@Z		; operator new

; 117  :         _Throw_bad_array_new_length(); // add overflow
; 118  :     }
; 119  : 
; 120  :     const uintptr_t _Ptr_container = reinterpret_cast<uintptr_t>(_Traits::_Allocate(_Block_size));

  00017	8b c8		 mov	 ecx, eax

; 77   :         return ::operator new(_Bytes);

  00019	83 c4 04	 add	 esp, 4

; 121  :     _STL_VERIFY(_Ptr_container != 0, "invalid argument"); // validate even in release since we're doing p[-1]

  0001c	85 c9		 test	 ecx, ecx
  0001e	74 0b		 je	 SHORT $LN7@Allocate_m

; 122  :     void* const _Ptr = reinterpret_cast<void*>((_Ptr_container + _Non_user_size) & ~(_Big_allocation_alignment - 1));

  00020	8d 41 23	 lea	 eax, DWORD PTR [ecx+35]
  00023	83 e0 e0	 and	 eax, -32		; ffffffe0H

; 123  :     static_cast<uintptr_t*>(_Ptr)[-1] = _Ptr_container;

  00026	89 48 fc	 mov	 DWORD PTR [eax-4], ecx

; 124  : 
; 125  : #ifdef _DEBUG
; 126  :     static_cast<uintptr_t*>(_Ptr)[-2] = _Big_allocation_sentinel;
; 127  : #endif // _DEBUG
; 128  :     return _Ptr;
; 129  : }

  00029	5d		 pop	 ebp
  0002a	c3		 ret	 0
$LN7@Allocate_m:

; 121  :     _STL_VERIFY(_Ptr_container != 0, "invalid argument"); // validate even in release since we're doing p[-1]

  0002b	e9 00 00 00 00	 jmp	 __invalid_parameter_noinfo_noreturn
??$_Allocate_manually_vector_aligned@U_Default_allocate_traits@std@@@std@@YAPAXI@Z ENDP ; std::_Allocate_manually_vector_aligned<std::_Default_allocate_traits>
_TEXT	ENDS
; Function compile flags: /Ogtp
; File C:\Program Files (x86)\Microsoft Visual Studio\2019\Community\VC\Tools\MSVC\14.27.29110\include\xmemory
;	COMDAT ??$_Allocate@$07U_Default_allocate_traits@std@@$0A@@std@@YAPAXI@Z
_TEXT	SEGMENT
__Bytes$ = 8						; size = 4
??$_Allocate@$07U_Default_allocate_traits@std@@$0A@@std@@YAPAXI@Z PROC ; std::_Allocate<8,std::_Default_allocate_traits,0>, COMDAT

; 197  : __declspec(allocator) void* _Allocate(const size_t _Bytes) {

  00000	55		 push	 ebp
  00001	8b ec		 mov	 ebp, esp

; 198  :     // allocate _Bytes when !_HAS_ALIGNED_NEW || _Align <= __STDCPP_DEFAULT_NEW_ALIGNMENT__
; 199  : #if defined(_M_IX86) || defined(_M_X64)
; 200  :     if (_Bytes >= _Big_allocation_threshold) { // boost the alignment of big allocations to help autovectorization

  00003	8b 45 08	 mov	 eax, DWORD PTR __Bytes$[ebp]
  00006	3d 00 10 00 00	 cmp	 eax, 4096		; 00001000H
  0000b	72 09		 jb	 SHORT $LN2@Allocate

; 201  :         return _Allocate_manually_vector_aligned<_Traits>(_Bytes);

  0000d	89 45 08	 mov	 DWORD PTR __Bytes$[ebp], eax

; 210  : }

  00010	5d		 pop	 ebp

; 201  :         return _Allocate_manually_vector_aligned<_Traits>(_Bytes);

  00011	e9 00 00 00 00	 jmp	 ??$_Allocate_manually_vector_aligned@U_Default_allocate_traits@std@@@std@@YAPAXI@Z ; std::_Allocate_manually_vector_aligned<std::_Default_allocate_traits>
$LN2@Allocate:

; 202  :     }
; 203  : #endif // defined(_M_IX86) || defined(_M_X64)
; 204  : 
; 205  :     if (_Bytes != 0) {

  00016	85 c0		 test	 eax, eax
  00018	74 09		 je	 SHORT $LN3@Allocate

; 77   :         return ::operator new(_Bytes);

  0001a	89 45 08	 mov	 DWORD PTR __Bytes$[ebp], eax

; 210  : }

  0001d	5d		 pop	 ebp

; 77   :         return ::operator new(_Bytes);

  0001e	e9 00 00 00 00	 jmp	 ??2@YAPAXI@Z		; operator new
$LN3@Allocate:

; 206  :         return _Traits::_Allocate(_Bytes);
; 207  :     }
; 208  : 
; 209  :     return nullptr;

  00023	33 c0		 xor	 eax, eax

; 210  : }

  00025	5d		 pop	 ebp
  00026	c3		 ret	 0
??$_Allocate@$07U_Default_allocate_traits@std@@$0A@@std@@YAPAXI@Z ENDP ; std::_Allocate<8,std::_Default_allocate_traits,0>
_TEXT	ENDS
; Function compile flags: /Ogtp
; File C:\Program Files (x86)\Microsoft Visual Studio\2019\Community\VC\Tools\MSVC\14.27.29110\include\xmemory
;	COMDAT ??$_Deallocate@$07$0A@@std@@YAXPAXI@Z
_TEXT	SEGMENT
__Ptr$ = 8						; size = 4
__Bytes$ = 12						; size = 4
??$_Deallocate@$07$0A@@std@@YAXPAXI@Z PROC		; std::_Deallocate<8,0>, COMDAT

; 213  : void _Deallocate(void* _Ptr, size_t _Bytes) noexcept {

  00000	55		 push	 ebp
  00001	8b ec		 mov	 ebp, esp

; 214  :     // deallocate storage allocated by _Allocate when !_HAS_ALIGNED_NEW || _Align <= __STDCPP_DEFAULT_NEW_ALIGNMENT__
; 215  : #if defined(_M_IX86) || defined(_M_X64)
; 216  :     if (_Bytes >= _Big_allocation_threshold) { // boost the alignment of big allocations to help autovectorization

  00003	8b 4d 0c	 mov	 ecx, DWORD PTR __Bytes$[ebp]
  00006	81 f9 00 10 00
	00		 cmp	 ecx, 4096		; 00001000H
  0000c	72 18		 jb	 SHORT $LN15@Deallocate

; 137  :     const uintptr_t _Ptr_container   = _Ptr_user[-1];

  0000e	8b 45 08	 mov	 eax, DWORD PTR __Ptr$[ebp]
  00011	83 c1 23	 add	 ecx, 35			; 00000023H
  00014	8b 50 fc	 mov	 edx, DWORD PTR [eax-4]

; 138  : 
; 139  :     // If the following asserts, it likely means that we are performing
; 140  :     // an aligned delete on memory coming from an unaligned allocation.
; 141  :     _STL_ASSERT(_Ptr_user[-2] == _Big_allocation_sentinel, "invalid argument");
; 142  : 
; 143  :     // Extra paranoia on aligned allocation/deallocation; ensure _Ptr_container is
; 144  :     // in range [_Min_back_shift, _Non_user_size]
; 145  : #ifdef _DEBUG
; 146  :     constexpr uintptr_t _Min_back_shift = 2 * sizeof(void*);
; 147  : #else // ^^^ _DEBUG ^^^ // vvv !_DEBUG vvv
; 148  :     constexpr uintptr_t _Min_back_shift = sizeof(void*);
; 149  : #endif // _DEBUG
; 150  :     const uintptr_t _Back_shift = reinterpret_cast<uintptr_t>(_Ptr) - _Ptr_container;

  00017	2b c2		 sub	 eax, edx

; 151  :     _STL_VERIFY(_Back_shift >= _Min_back_shift && _Back_shift <= _Non_user_size, "invalid argument");

  00019	83 c0 fc	 add	 eax, -4			; fffffffcH
  0001c	83 f8 1f	 cmp	 eax, 31			; 0000001fH
  0001f	76 08		 jbe	 SHORT $LN13@Deallocate
  00021	e9 00 00 00 00	 jmp	 __invalid_parameter_noinfo_noreturn
$LN15@Deallocate:

; 214  :     // deallocate storage allocated by _Allocate when !_HAS_ALIGNED_NEW || _Align <= __STDCPP_DEFAULT_NEW_ALIGNMENT__
; 215  : #if defined(_M_IX86) || defined(_M_X64)
; 216  :     if (_Bytes >= _Big_allocation_threshold) { // boost the alignment of big allocations to help autovectorization

  00026	8b 55 08	 mov	 edx, DWORD PTR __Ptr$[ebp]
$LN13@Deallocate:

; 217  :         _Adjust_manually_vector_aligned(_Ptr, _Bytes);
; 218  :     }
; 219  : #endif // defined(_M_IX86) || defined(_M_X64)
; 220  : 
; 221  :     ::operator delete(_Ptr, _Bytes);

  00029	89 4d 0c	 mov	 DWORD PTR __Bytes$[ebp], ecx
  0002c	89 55 08	 mov	 DWORD PTR __Ptr$[ebp], edx

; 222  : }

  0002f	5d		 pop	 ebp

; 217  :         _Adjust_manually_vector_aligned(_Ptr, _Bytes);
; 218  :     }
; 219  : #endif // defined(_M_IX86) || defined(_M_X64)
; 220  : 
; 221  :     ::operator delete(_Ptr, _Bytes);

  00030	e9 00 00 00 00	 jmp	 ??3@YAXPAXI@Z		; operator delete
??$_Deallocate@$07$0A@@std@@YAXPAXI@Z ENDP		; std::_Deallocate<8,0>
_TEXT	ENDS
; Function compile flags: /Ogtp
; File C:\Program Files (x86)\Microsoft Visual Studio\2019\Community\VC\Tools\MSVC\14.27.29110\include\xmemory
;	COMDAT ??$_Destroy_range@V?$allocator@K@std@@@std@@YAXPAKQAKAAV?$allocator@K@0@@Z
_TEXT	SEGMENT
__First$ = 8						; size = 4
__Last$ = 12						; size = 4
__Al$ = 16						; size = 4
??$_Destroy_range@V?$allocator@K@std@@@std@@YAXPAKQAKAAV?$allocator@K@0@@Z PROC ; std::_Destroy_range<std::allocator<unsigned long> >, COMDAT

; 956  :     // note that this is an optimization for debug mode codegen; in release mode the BE removes all of this
; 957  :     using _Ty = typename _Alloc::value_type;
; 958  :     if _CONSTEXPR_IF (!conjunction_v<is_trivially_destructible<_Ty>, _Uses_default_destroy<_Alloc, _Ty*>>) {
; 959  :         for (; _First != _Last; ++_First) {
; 960  :             allocator_traits<_Alloc>::destroy(_Al, _Unfancy(_First));
; 961  :         }
; 962  :     }
; 963  : }

  00000	c2 00 00	 ret	 0
??$_Destroy_range@V?$allocator@K@std@@@std@@YAXPAKQAKAAV?$allocator@K@0@@Z ENDP ; std::_Destroy_range<std::allocator<unsigned long> >
_TEXT	ENDS
; Function compile flags: /Ogtp
; File C:\Program Files (x86)\Microsoft Visual Studio\2019\Community\VC\Tools\MSVC\14.27.29110\include\vector
; File C:\Program Files (x86)\Microsoft Visual Studio\2019\Community\VC\Tools\MSVC\14.27.29110\include\xmemory
; File C:\Program Files (x86)\Microsoft Visual Studio\2019\Community\VC\Tools\MSVC\14.27.29110\include\vector
; File C:\Program Files (x86)\Microsoft Visual Studio\2019\Community\VC\Tools\MSVC\14.27.29110\include\xmemory
; File C:\Program Files (x86)\Microsoft Visual Studio\2019\Community\VC\Tools\MSVC\14.27.29110\include\vector
; File C:\Program Files (x86)\Microsoft Visual Studio\2019\Community\VC\Tools\MSVC\14.27.29110\include\xmemory
; File C:\Program Files (x86)\Microsoft Visual Studio\2019\Community\VC\Tools\MSVC\14.27.29110\include\vector
; File C:\Program Files (x86)\Microsoft Visual Studio\2019\Community\VC\Tools\MSVC\14.27.29110\include\xmemory
; File C:\Program Files (x86)\Microsoft Visual Studio\2019\Community\VC\Tools\MSVC\14.27.29110\include\vector
; File C:\Program Files (x86)\Microsoft Visual Studio\2019\Community\VC\Tools\MSVC\14.27.29110\include\xmemory
; File C:\Program Files (x86)\Microsoft Visual Studio\2019\Community\VC\Tools\MSVC\14.27.29110\include\vector
;	COMDAT ??$_Emplace_reallocate@ABK@?$vector@KV?$allocator@K@std@@@std@@QAEPAKQAKABK@Z
_TEXT	SEGMENT
tv436 = -12						; size = 4
__Newsize$1$ = -8					; size = 4
tv435 = -4						; size = 4
__Whereptr$ = 8						; size = 4
_<_Val_0>$ = 12						; size = 4
??$_Emplace_reallocate@ABK@?$vector@KV?$allocator@K@std@@@std@@QAEPAKQAKABK@Z PROC ; std::vector<unsigned long,std::allocator<unsigned long> >::_Emplace_reallocate<unsigned long const &>, COMDAT
; _this$ = ecx

; 725  :     pointer _Emplace_reallocate(const pointer _Whereptr, _Valty&&... _Val) {

  00000	55		 push	 ebp
  00001	8b ec		 mov	 ebp, esp
  00003	83 ec 0c	 sub	 esp, 12			; 0000000cH
  00006	53		 push	 ebx

; 726  :         // reallocate and insert by perfectly forwarding _Val at _Whereptr
; 727  :         _Alty& _Al        = _Getal();
; 728  :         auto& _My_data    = _Mypair._Myval2;
; 729  :         pointer& _Myfirst = _My_data._Myfirst;
; 730  :         pointer& _Mylast  = _My_data._Mylast;
; 731  : 
; 732  :         _STL_INTERNAL_CHECK(_Mylast == _My_data._Myend); // check that we have no unused capacity
; 733  : 
; 734  :         const auto _Whereoff = static_cast<size_type>(_Whereptr - _Myfirst);

  00007	8b 5d 08	 mov	 ebx, DWORD PTR __Whereptr$[ebp]
  0000a	56		 push	 esi
  0000b	8b f1		 mov	 esi, ecx
  0000d	57		 push	 edi
  0000e	8b 16		 mov	 edx, DWORD PTR [esi]
  00010	2b da		 sub	 ebx, edx

; 735  :         const auto _Oldsize  = static_cast<size_type>(_Mylast - _Myfirst);

  00012	8b 46 04	 mov	 eax, DWORD PTR [esi+4]
  00015	2b c2		 sub	 eax, edx
  00017	c1 fb 02	 sar	 ebx, 2
  0001a	c1 f8 02	 sar	 eax, 2

; 736  : 
; 737  :         if (_Oldsize == max_size()) {

  0001d	3d ff ff ff 3f	 cmp	 eax, 1073741823		; 3fffffffH
  00022	0f 84 be 00 00
	00		 je	 $LN39@Emplace_re

; 1494 :         return static_cast<size_type>(_My_data._Myend - _My_data._Myfirst);

  00028	8b 4e 08	 mov	 ecx, DWORD PTR [esi+8]

; 739  :         }
; 740  : 
; 741  :         const size_type _Newsize     = _Oldsize + 1;

  0002b	8d 78 01	 lea	 edi, DWORD PTR [eax+1]

; 1494 :         return static_cast<size_type>(_My_data._Myend - _My_data._Myfirst);

  0002e	2b ca		 sub	 ecx, edx

; 739  :         }
; 740  : 
; 741  :         const size_type _Newsize     = _Oldsize + 1;

  00030	89 7d f8	 mov	 DWORD PTR __Newsize$1$[ebp], edi

; 1494 :         return static_cast<size_type>(_My_data._Myend - _My_data._Myfirst);

  00033	c1 f9 02	 sar	 ecx, 2

; 1619 :         if (_Oldcapacity > max_size() - _Oldcapacity / 2) {

  00036	b8 ff ff ff 3f	 mov	 eax, 1073741823		; 3fffffffH
  0003b	8b d1		 mov	 edx, ecx
  0003d	d1 ea		 shr	 edx, 1
  0003f	2b c2		 sub	 eax, edx
  00041	3b c8		 cmp	 ecx, eax
  00043	76 04		 jbe	 SHORT $LN12@Emplace_re

; 1620 :             return _Newsize; // geometric growth would overflow

  00045	8b c7		 mov	 eax, edi
  00047	eb 08		 jmp	 SHORT $LN13@Emplace_re
$LN12@Emplace_re:

; 1621 :         }
; 1622 : 
; 1623 :         const size_type _Geometric = _Oldcapacity + _Oldcapacity / 2;

  00049	8d 04 0a	 lea	 eax, DWORD PTR [edx+ecx]

; 1624 : 
; 1625 :         if (_Geometric < _Newsize) {

  0004c	3b c7		 cmp	 eax, edi
  0004e	0f 42 c7	 cmovb	 eax, edi
$LN13@Emplace_re:
; File C:\Program Files (x86)\Microsoft Visual Studio\2019\Community\VC\Tools\MSVC\14.27.29110\include\xmemory

; 60   :         if (_Count > _Max_possible) {

  00051	3d ff ff ff 3f	 cmp	 eax, 1073741823		; 3fffffffH
  00056	0f 87 8f 00 00
	00		 ja	 $LN40@Emplace_re

; 62   :         }
; 63   :     }
; 64   : 
; 65   :     return _Count * _Ty_size;

  0005c	c1 e0 02	 shl	 eax, 2

; 807  :         return static_cast<_Ty*>(_Allocate<_New_alignof<_Ty>>(_Get_size_of_n<sizeof(_Ty)>(_Count)));

  0005f	50		 push	 eax

; 65   :     return _Count * _Ty_size;

  00060	89 45 f4	 mov	 DWORD PTR tv436[ebp], eax

; 807  :         return static_cast<_Ty*>(_Allocate<_New_alignof<_Ty>>(_Get_size_of_n<sizeof(_Ty)>(_Count)));

  00063	e8 00 00 00 00	 call	 ??$_Allocate@$07U_Default_allocate_traits@std@@$0A@@std@@YAPAXI@Z ; std::_Allocate<8,std::_Default_allocate_traits,0>
; File C:\Program Files (x86)\Microsoft Visual Studio\2019\Community\VC\Tools\MSVC\14.27.29110\include\vector

; 749  :         _Alty_traits::construct(_Al, _Unfancy(_Newvec + _Whereoff), _STD forward<_Valty>(_Val)...);

  00068	8b 4d 0c	 mov	 ecx, DWORD PTR _<_Val_0>$[ebp]
; File C:\Program Files (x86)\Microsoft Visual Studio\2019\Community\VC\Tools\MSVC\14.27.29110\include\xmemory

; 807  :         return static_cast<_Ty*>(_Allocate<_New_alignof<_Ty>>(_Get_size_of_n<sizeof(_Ty)>(_Count)));

  0006b	8b f8		 mov	 edi, eax
; File C:\Program Files (x86)\Microsoft Visual Studio\2019\Community\VC\Tools\MSVC\14.27.29110\include\vector

; 749  :         _Alty_traits::construct(_Al, _Unfancy(_Newvec + _Whereoff), _STD forward<_Valty>(_Val)...);

  0006d	8d 04 9f	 lea	 eax, DWORD PTR [edi+ebx*4]
; File C:\Program Files (x86)\Microsoft Visual Studio\2019\Community\VC\Tools\MSVC\14.27.29110\include\xmemory

; 807  :         return static_cast<_Ty*>(_Allocate<_New_alignof<_Ty>>(_Get_size_of_n<sizeof(_Ty)>(_Count)));

  00070	83 c4 04	 add	 esp, 4
; File C:\Program Files (x86)\Microsoft Visual Studio\2019\Community\VC\Tools\MSVC\14.27.29110\include\vector

; 752  :         if (_Whereptr == _Mylast) { // at back, provide strong guarantee

  00073	8b 5d 08	 mov	 ebx, DWORD PTR __Whereptr$[ebp]
  00076	89 45 fc	 mov	 DWORD PTR tv435[ebp], eax
  00079	8b 09		 mov	 ecx, DWORD PTR [ecx]
  0007b	89 08		 mov	 DWORD PTR [eax], ecx
  0007d	8b 56 04	 mov	 edx, DWORD PTR [esi+4]
  00080	8b 0e		 mov	 ecx, DWORD PTR [esi]
  00082	3b da		 cmp	 ebx, edx
  00084	75 07		 jne	 SHORT $LN4@Emplace_re

; 753  :             _Umove_if_noexcept(_Myfirst, _Mylast, _Newvec);
; 754  :         } else { // provide basic guarantee

  00086	8b 5d fc	 mov	 ebx, DWORD PTR tv435[ebp]

; 1597 :         _Uninitialized_move(_First, _Last, _Dest, _Getal());

  00089	8b c7		 mov	 eax, edi

; 753  :             _Umove_if_noexcept(_Myfirst, _Mylast, _Newvec);
; 754  :         } else { // provide basic guarantee

  0008b	eb 17		 jmp	 SHORT $LN5@Emplace_re
$LN4@Emplace_re:

; 1592 :         return _Uninitialized_move(_First, _Last, _Dest, _Getal());

  0008d	56		 push	 esi
  0008e	57		 push	 edi
  0008f	53		 push	 ebx
  00090	51		 push	 ecx
  00091	e8 00 00 00 00	 call	 ??$_Uninitialized_move@PAKV?$allocator@K@std@@@std@@YAPAKQAK0PAKAAV?$allocator@K@0@@Z ; std::_Uninitialized_move<unsigned long *,std::allocator<unsigned long> >
  00096	8b 56 04	 mov	 edx, DWORD PTR [esi+4]
  00099	8b cb		 mov	 ecx, ebx

; 755  :             _Umove(_Myfirst, _Whereptr, _Newvec);
; 756  :             _Constructed_first = _Newvec;
; 757  :             _Umove(_Whereptr, _Mylast, _Newvec + _Whereoff + 1);

  0009b	8b 5d fc	 mov	 ebx, DWORD PTR tv435[ebp]

; 1592 :         return _Uninitialized_move(_First, _Last, _Dest, _Getal());

  0009e	83 c4 10	 add	 esp, 16			; 00000010H

; 755  :             _Umove(_Myfirst, _Whereptr, _Newvec);
; 756  :             _Constructed_first = _Newvec;
; 757  :             _Umove(_Whereptr, _Mylast, _Newvec + _Whereoff + 1);

  000a1	8d 43 04	 lea	 eax, DWORD PTR [ebx+4]
$LN5@Emplace_re:
  000a4	56		 push	 esi
  000a5	50		 push	 eax
  000a6	52		 push	 edx
  000a7	51		 push	 ecx
  000a8	e8 00 00 00 00	 call	 ??$_Uninitialized_move@PAKV?$allocator@K@std@@@std@@YAPAKQAK0PAKAAV?$allocator@K@0@@Z ; std::_Uninitialized_move<unsigned long *,std::allocator<unsigned long> >

; 1675 :         if (_Myfirst) { // destroy and deallocate old array

  000ad	8b 0e		 mov	 ecx, DWORD PTR [esi]

; 755  :             _Umove(_Myfirst, _Whereptr, _Newvec);
; 756  :             _Constructed_first = _Newvec;
; 757  :             _Umove(_Whereptr, _Mylast, _Newvec + _Whereoff + 1);

  000af	83 c4 10	 add	 esp, 16			; 00000010H

; 1675 :         if (_Myfirst) { // destroy and deallocate old array

  000b2	85 c9		 test	 ecx, ecx
  000b4	74 12		 je	 SHORT $LN33@Emplace_re

; 1676 :             _Destroy(_Myfirst, _Mylast);
; 1677 :             _Getal().deallocate(_Myfirst, static_cast<size_type>(_Myend - _Myfirst));

  000b6	8b 46 08	 mov	 eax, DWORD PTR [esi+8]
  000b9	2b c1		 sub	 eax, ecx
; File C:\Program Files (x86)\Microsoft Visual Studio\2019\Community\VC\Tools\MSVC\14.27.29110\include\xmemory

; 803  :         _Deallocate<_New_alignof<_Ty>>(_Ptr, sizeof(_Ty) * _Count);

  000bb	83 e0 fc	 and	 eax, -4			; fffffffcH
  000be	50		 push	 eax
  000bf	51		 push	 ecx
  000c0	e8 00 00 00 00	 call	 ??$_Deallocate@$07$0A@@std@@YAXPAXI@Z ; std::_Deallocate<8,0>
  000c5	83 c4 08	 add	 esp, 8
$LN33@Emplace_re:
; File C:\Program Files (x86)\Microsoft Visual Studio\2019\Community\VC\Tools\MSVC\14.27.29110\include\vector

; 1681 :         _Mylast  = _Newvec + _Newsize;

  000c8	8b 4d f8	 mov	 ecx, DWORD PTR __Newsize$1$[ebp]

; 758  :         }
; 759  :         _CATCH_ALL
; 760  :         _Destroy(_Constructed_first, _Constructed_last);
; 761  :         _Al.deallocate(_Newvec, _Newcapacity);
; 762  :         _RERAISE;
; 763  :         _CATCH_END
; 764  : 
; 765  :         _Change_array(_Newvec, _Newsize, _Newcapacity);
; 766  :         return _Newvec + _Whereoff;

  000cb	8b c3		 mov	 eax, ebx

; 1680 :         _Myfirst = _Newvec;

  000cd	89 3e		 mov	 DWORD PTR [esi], edi

; 1681 :         _Mylast  = _Newvec + _Newsize;

  000cf	8d 0c 8f	 lea	 ecx, DWORD PTR [edi+ecx*4]
  000d2	89 4e 04	 mov	 DWORD PTR [esi+4], ecx

; 1682 :         _Myend   = _Newvec + _Newcapacity;

  000d5	8b 4d f4	 mov	 ecx, DWORD PTR tv436[ebp]
  000d8	03 cf		 add	 ecx, edi

; 758  :         }
; 759  :         _CATCH_ALL
; 760  :         _Destroy(_Constructed_first, _Constructed_last);
; 761  :         _Al.deallocate(_Newvec, _Newcapacity);
; 762  :         _RERAISE;
; 763  :         _CATCH_END
; 764  : 
; 765  :         _Change_array(_Newvec, _Newsize, _Newcapacity);
; 766  :         return _Newvec + _Whereoff;

  000da	5f		 pop	 edi

; 1682 :         _Myend   = _Newvec + _Newcapacity;

  000db	89 4e 08	 mov	 DWORD PTR [esi+8], ecx

; 758  :         }
; 759  :         _CATCH_ALL
; 760  :         _Destroy(_Constructed_first, _Constructed_last);
; 761  :         _Al.deallocate(_Newvec, _Newcapacity);
; 762  :         _RERAISE;
; 763  :         _CATCH_END
; 764  : 
; 765  :         _Change_array(_Newvec, _Newsize, _Newcapacity);
; 766  :         return _Newvec + _Whereoff;

  000de	5e		 pop	 esi
  000df	5b		 pop	 ebx

; 767  :     }

  000e0	8b e5		 mov	 esp, ebp
  000e2	5d		 pop	 ebp
  000e3	c2 08 00	 ret	 8
$LN39@Emplace_re:

; 738  :             _Xlength();

  000e6	e8 00 00 00 00	 call	 ?_Xlength@?$vector@KV?$allocator@K@std@@@std@@CAXXZ ; std::vector<unsigned long,std::allocator<unsigned long> >::_Xlength
$LN40@Emplace_re:
; File C:\Program Files (x86)\Microsoft Visual Studio\2019\Community\VC\Tools\MSVC\14.27.29110\include\xmemory

; 61   :             _Throw_bad_array_new_length(); // multiply overflow

  000eb	e8 00 00 00 00	 call	 ?_Throw_bad_array_new_length@std@@YAXXZ ; std::_Throw_bad_array_new_length
$LN37@Emplace_re:
  000f0	cc		 int	 3
??$_Emplace_reallocate@ABK@?$vector@KV?$allocator@K@std@@@std@@QAEPAKQAKABK@Z ENDP ; std::vector<unsigned long,std::allocator<unsigned long> >::_Emplace_reallocate<unsigned long const &>
_TEXT	ENDS
; Function compile flags: /Ogtp
;	COMDAT ??_GCGrannyMesh@@UAEPAXI@Z
_TEXT	SEGMENT
___flags$ = 8						; size = 4
??_GCGrannyMesh@@UAEPAXI@Z PROC				; CGrannyMesh::`scalar deleting destructor', COMDAT
; _this$ = ecx
  00000	55		 push	 ebp
  00001	8b ec		 mov	 ebp, esp
  00003	56		 push	 esi
  00004	8b f1		 mov	 esi, ecx
  00006	e8 00 00 00 00	 call	 ??1CGrannyMesh@@UAE@XZ	; CGrannyMesh::~CGrannyMesh
  0000b	f6 45 08 01	 test	 BYTE PTR ___flags$[ebp], 1
  0000f	74 0b		 je	 SHORT $LN4@scalar
  00011	6a 38		 push	 56			; 00000038H
  00013	56		 push	 esi
  00014	e8 00 00 00 00	 call	 ??3@YAXPAXI@Z		; operator delete
  00019	83 c4 08	 add	 esp, 8
$LN4@scalar:
  0001c	8b c6		 mov	 eax, esi
  0001e	5e		 pop	 esi
  0001f	5d		 pop	 ebp
  00020	c2 04 00	 ret	 4
??_GCGrannyMesh@@UAEPAXI@Z ENDP				; CGrannyMesh::`scalar deleting destructor'
_TEXT	ENDS
; Function compile flags: /Ogtp
; File C:\Program Files (x86)\Microsoft Visual Studio\2019\Community\VC\Tools\MSVC\14.27.29110\include\vector
;	COMDAT ?_Xlength@?$vector@KV?$allocator@K@std@@@std@@CAXXZ
_TEXT	SEGMENT
?_Xlength@?$vector@KV?$allocator@K@std@@@std@@CAXXZ PROC ; std::vector<unsigned long,std::allocator<unsigned long> >::_Xlength, COMDAT

; 1704 :         _Xlength_error("vector too long");

  00000	68 00 00 00 00	 push	 OFFSET ??_C@_0BA@FOIKENOD@vector?5too?5long@
  00005	e8 00 00 00 00	 call	 ?_Xlength_error@std@@YAXPBD@Z ; std::_Xlength_error
$LN3@Xlength:
  0000a	cc		 int	 3
?_Xlength@?$vector@KV?$allocator@K@std@@@std@@CAXXZ ENDP ; std::vector<unsigned long,std::allocator<unsigned long> >::_Xlength
_TEXT	ENDS
; Function compile flags: /Ogtp
; File C:\DS Project\DS Files\Source\ClientSource\Client\eterGrnLib\Mesh.cpp
;	COMDAT ?LoadTriGroupNodeList@CGrannyMesh@@IAE_NAAVCGrannyMaterialPalette@@@Z
_TEXT	SEGMENT
_mtrlCount$1$ = -16					; size = 4
_GroupNodeCount$1$ = -12				; size = 4
tv358 = -8						; size = 4
tv356 = -4						; size = 4
_rkMtrlPal$ = 8						; size = 4
?LoadTriGroupNodeList@CGrannyMesh@@IAE_NAAVCGrannyMaterialPalette@@@Z PROC ; CGrannyMesh::LoadTriGroupNodeList, COMDAT
; _this$ = ecx

; 176  : {

  00000	55		 push	 ebp
  00001	8b ec		 mov	 ebp, esp
  00003	83 ec 10	 sub	 esp, 16			; 00000010H
  00006	56		 push	 esi
  00007	57		 push	 edi
  00008	8b f9		 mov	 edi, ecx

; 177  : 	assert(m_pgrnMesh != NULL);
; 178  : 	assert(m_triGroupNodes == NULL);
; 179  : 
; 180  : 	int mtrlCount		= m_pgrnMesh->MaterialBindingCount;

  0000a	8b 47 08	 mov	 eax, DWORD PTR [edi+8]
  0000d	8b 70 14	 mov	 esi, DWORD PTR [eax+20]
  00010	89 75 f0	 mov	 DWORD PTR _mtrlCount$1$[ebp], esi

; 181  : 	if (mtrlCount <= 0)

  00013	85 f6		 test	 esi, esi
  00015	0f 8e b2 00 00
	00		 jle	 $LN17@LoadTriGro

; 182  : 		return true;
; 183  : 
; 184  : 	int GroupNodeCount	= GrannyGetMeshTriangleGroupCount(m_pgrnMesh);

  0001b	50		 push	 eax
  0001c	ff 15 00 00 00
	00		 call	 DWORD PTR __imp__GrannyGetMeshTriangleGroupCount@4
  00022	89 45 f4	 mov	 DWORD PTR _GroupNodeCount$1$[ebp], eax

; 185  : 	if (GroupNodeCount <= 0)

  00025	85 c0		 test	 eax, eax
  00027	0f 8e a0 00 00
	00		 jle	 $LN17@LoadTriGro

; 186  : 		return true;
; 187  : 
; 188  : 	m_triGroupNodes		= new TTriGroupNode[GroupNodeCount];

  0002d	33 c9		 xor	 ecx, ecx
  0002f	ba 10 00 00 00	 mov	 edx, 16			; 00000010H
  00034	f7 e2		 mul	 edx
  00036	0f 90 c1	 seto	 cl
  00039	f7 d9		 neg	 ecx
  0003b	0b c8		 or	 ecx, eax
  0003d	51		 push	 ecx
  0003e	e8 00 00 00 00	 call	 ??_U@YAPAXI@Z		; operator new[]
  00043	83 c4 04	 add	 esp, 4
  00046	89 47 20	 mov	 DWORD PTR [edi+32], eax

; 189  : 
; 190  : 	const granny_tri_material_group * c_pgrnTriGroups = GrannyGetMeshTriangleGroups(m_pgrnMesh);

  00049	ff 77 08	 push	 DWORD PTR [edi+8]
  0004c	ff 15 00 00 00
	00		 call	 DWORD PTR __imp__GrannyGetMeshTriangleGroups@4
  00052	33 d2		 xor	 edx, edx
  00054	89 55 f8	 mov	 DWORD PTR tv358[ebp], edx
  00057	53		 push	 ebx
  00058	8d 48 08	 lea	 ecx, DWORD PTR [eax+8]
  0005b	89 4d fc	 mov	 DWORD PTR tv356[ebp], ecx
  0005e	66 90		 npad	 2
$LL4@LoadTriGro:

; 191  : 
; 192  : 	for (int g = 0; g < GroupNodeCount; ++g)
; 193  : 	{
; 194  : 		const granny_tri_material_group & c_rgrnTriGroup = c_pgrnTriGroups[g];
; 195  : 		TTriGroupNode * pTriGroupNode = m_triGroupNodes + g;
; 196  : 
; 197  : 		pTriGroupNode->idxPos = m_idxBasePos + c_rgrnTriGroup.TriFirst * 3;

  00060	8b 41 fc	 mov	 eax, DWORD PTR [ecx-4]
  00063	8b 5f 20	 mov	 ebx, DWORD PTR [edi+32]
  00066	03 da		 add	 ebx, edx
  00068	8d 04 40	 lea	 eax, DWORD PTR [eax+eax*2]
  0006b	03 47 30	 add	 eax, DWORD PTR [edi+48]
  0006e	89 43 04	 mov	 DWORD PTR [ebx+4], eax

; 198  : 		pTriGroupNode->triCount = c_rgrnTriGroup.TriCount;

  00071	8b 01		 mov	 eax, DWORD PTR [ecx]
  00073	89 43 08	 mov	 DWORD PTR [ebx+8], eax

; 199  : 
; 200  : 		int iMtrl = c_rgrnTriGroup.MaterialIndex;

  00076	8b 49 f8	 mov	 ecx, DWORD PTR [ecx-8]

; 201  : 		if (iMtrl < 0 || iMtrl >= mtrlCount)

  00079	85 c9		 test	 ecx, ecx
  0007b	78 0c		 js	 SHORT $LN9@LoadTriGro
  0007d	3b ce		 cmp	 ecx, esi
  0007f	7d 08		 jge	 SHORT $LN9@LoadTriGro

; 204  : 		}
; 205  : 		else
; 206  : 		{
; 207  : 			pTriGroupNode->mtrlIndex=m_mtrlIndexVector[iMtrl];

  00081	8b 47 14	 mov	 eax, DWORD PTR [edi+20]
  00084	8b 04 88	 mov	 eax, DWORD PTR [eax+ecx*4]
  00087	eb 02		 jmp	 SHORT $LN8@LoadTriGro
$LN9@LoadTriGro:

; 202  : 		{
; 203  : 			pTriGroupNode->mtrlIndex=0;//m_mtrlIndexVector[iMtrl];

  00089	33 c0		 xor	 eax, eax
$LN8@LoadTriGro:

; 208  : 		}
; 209  : 
; 210  : 		const CGrannyMaterial& rkMtrl=rkMtrlPal.GetMaterialRef(pTriGroupNode->mtrlIndex);

  0008b	8b 4d 08	 mov	 ecx, DWORD PTR _rkMtrlPal$[ebp]
  0008e	50		 push	 eax
  0008f	89 43 0c	 mov	 DWORD PTR [ebx+12], eax
  00092	e8 00 00 00 00	 call	 ?GetMaterialRef@CGrannyMaterialPalette@@QAEAAVCGrannyMaterial@@K@Z ; CGrannyMaterialPalette::GetMaterialRef
  00097	8b f0		 mov	 esi, eax

; 211  : 		pTriGroupNode->pNextTriGroupNode		= m_triGroupNodeLists[rkMtrl.GetType()];

  00099	8b ce		 mov	 ecx, esi
  0009b	e8 00 00 00 00	 call	 ?GetType@CGrannyMaterial@@QBE?AW4EType@1@XZ ; CGrannyMaterial::GetType
  000a0	8b 4c 87 24	 mov	 ecx, DWORD PTR [edi+eax*4+36]
  000a4	89 0b		 mov	 DWORD PTR [ebx], ecx

; 212  : 		m_triGroupNodeLists[rkMtrl.GetType()]	= pTriGroupNode;

  000a6	8b ce		 mov	 ecx, esi
  000a8	e8 00 00 00 00	 call	 ?GetType@CGrannyMaterial@@QBE?AW4EType@1@XZ ; CGrannyMaterial::GetType
  000ad	8b 4d fc	 mov	 ecx, DWORD PTR tv356[ebp]
  000b0	8b 55 f8	 mov	 edx, DWORD PTR tv358[ebp]
  000b3	83 c1 0c	 add	 ecx, 12			; 0000000cH
  000b6	8b 75 f0	 mov	 esi, DWORD PTR _mtrlCount$1$[ebp]
  000b9	83 c2 10	 add	 edx, 16			; 00000010H
  000bc	83 6d f4 01	 sub	 DWORD PTR _GroupNodeCount$1$[ebp], 1
  000c0	89 5c 87 24	 mov	 DWORD PTR [edi+eax*4+36], ebx
  000c4	89 4d fc	 mov	 DWORD PTR tv356[ebp], ecx
  000c7	89 55 f8	 mov	 DWORD PTR tv358[ebp], edx
  000ca	75 94		 jne	 SHORT $LL4@LoadTriGro

; 213  : 
; 214  : 	}
; 215  : 
; 216  : 	return true;

  000cc	5b		 pop	 ebx
$LN17@LoadTriGro:
  000cd	5f		 pop	 edi

; 217  : }

  000ce	b0 01		 mov	 al, 1
  000d0	5e		 pop	 esi
  000d1	8b e5		 mov	 esp, ebp
  000d3	5d		 pop	 ebp
  000d4	c2 04 00	 ret	 4
?LoadTriGroupNodeList@CGrannyMesh@@IAE_NAAVCGrannyMaterialPalette@@@Z ENDP ; CGrannyMesh::LoadTriGroupNodeList
_TEXT	ENDS
; Function compile flags: /Ogtp
; File C:\DS Project\DS Files\Source\ClientSource\Client\eterGrnLib\Mesh.cpp
; File C:\Program Files (x86)\Microsoft Visual Studio\2019\Community\VC\Tools\MSVC\14.27.29110\include\vector
; File C:\DS Project\DS Files\Source\ClientSource\Client\eterGrnLib\Mesh.cpp
; File C:\Program Files (x86)\Microsoft Visual Studio\2019\Community\VC\Tools\MSVC\14.27.29110\include\vector
; File C:\DS Project\DS Files\Source\ClientSource\Client\eterGrnLib\Mesh.cpp
;	COMDAT ?LoadMaterials@CGrannyMesh@@IAE_NAAVCGrannyMaterialPalette@@@Z
_TEXT	SEGMENT
_mtrlCount$1$ = -16					; size = 4
_mtrlIndex$1 = -12					; size = 4
_this$1$ = -8						; size = 4
_bHaveBlendThing$1$ = -1				; size = 1
_rkMtrlPal$ = 8						; size = 4
?LoadMaterials@CGrannyMesh@@IAE_NAAVCGrannyMaterialPalette@@@Z PROC ; CGrannyMesh::LoadMaterials, COMDAT
; _this$ = ecx

; 251  : {

  00000	55		 push	 ebp
  00001	8b ec		 mov	 ebp, esp
  00003	83 ec 10	 sub	 esp, 16			; 00000010H

; 252  : 	assert(m_pgrnMesh != NULL);
; 253  : 
; 254  : 	if (m_pgrnMesh->MaterialBindingCount <= 0)

  00006	8b 41 08	 mov	 eax, DWORD PTR [ecx+8]
  00009	89 4d f8	 mov	 DWORD PTR _this$1$[ebp], ecx
  0000c	8b 40 14	 mov	 eax, DWORD PTR [eax+20]
  0000f	89 45 f0	 mov	 DWORD PTR _mtrlCount$1$[ebp], eax
  00012	85 c0		 test	 eax, eax
  00014	7e 71		 jle	 SHORT $LN18@LoadMateri

; 264  : 		m_mtrlIndexVector.push_back(mtrlIndex);

  00016	53		 push	 ebx
  00017	56		 push	 esi
  00018	57		 push	 edi
  00019	8b 7d 08	 mov	 edi, DWORD PTR _rkMtrlPal$[ebp]
  0001c	8d 71 14	 lea	 esi, DWORD PTR [ecx+20]
  0001f	c6 45 ff 00	 mov	 BYTE PTR _bHaveBlendThing$1$[ebp], 0
  00023	33 db		 xor	 ebx, ebx
$LL4@LoadMateri:

; 263  : 		DWORD mtrlIndex=rkMtrlPal.RegisterMaterial(pgrnMaterial);

  00025	8b 41 08	 mov	 eax, DWORD PTR [ecx+8]
  00028	8b cf		 mov	 ecx, edi
  0002a	8b 40 18	 mov	 eax, DWORD PTR [eax+24]
  0002d	ff 34 98	 push	 DWORD PTR [eax+ebx*4]
  00030	e8 00 00 00 00	 call	 ?RegisterMaterial@CGrannyMaterialPalette@@QAEKPAUgranny_material@@@Z ; CGrannyMaterialPalette::RegisterMaterial
; File C:\Program Files (x86)\Microsoft Visual Studio\2019\Community\VC\Tools\MSVC\14.27.29110\include\vector

; 704  :         if (_Mylast != _My_data._Myend) {

  00035	8b 4e 04	 mov	 ecx, DWORD PTR [esi+4]
; File C:\DS Project\DS Files\Source\ClientSource\Client\eterGrnLib\Mesh.cpp

; 263  : 		DWORD mtrlIndex=rkMtrlPal.RegisterMaterial(pgrnMaterial);

  00038	8b f8		 mov	 edi, eax
  0003a	89 7d f4	 mov	 DWORD PTR _mtrlIndex$1[ebp], edi
; File C:\Program Files (x86)\Microsoft Visual Studio\2019\Community\VC\Tools\MSVC\14.27.29110\include\vector

; 704  :         if (_Mylast != _My_data._Myend) {

  0003d	3b 4e 08	 cmp	 ecx, DWORD PTR [esi+8]
  00040	74 08		 je	 SHORT $LN10@LoadMateri

; 687  :         _Alty_traits::construct(_Getal(), _Unfancy(_Mylast), _STD forward<_Valty>(_Val)...);

  00042	89 39		 mov	 DWORD PTR [ecx], edi

; 688  :         _Orphan_range(_Mylast, _Mylast);
; 689  :         _Ty& _Result = *_Mylast;
; 690  :         ++_Mylast;

  00044	83 46 04 04	 add	 DWORD PTR [esi+4], 4

; 705  :             return _Emplace_back_with_unused_capacity(_STD forward<_Valty>(_Val)...);

  00048	eb 0c		 jmp	 SHORT $LN9@LoadMateri
$LN10@LoadMateri:

; 706  :         }
; 707  : 
; 708  :         _Ty& _Result = *_Emplace_reallocate(_Mylast, _STD forward<_Valty>(_Val)...);

  0004a	8d 45 f4	 lea	 eax, DWORD PTR _mtrlIndex$1[ebp]
  0004d	50		 push	 eax
  0004e	51		 push	 ecx
  0004f	8b ce		 mov	 ecx, esi
  00051	e8 00 00 00 00	 call	 ??$_Emplace_reallocate@ABK@?$vector@KV?$allocator@K@std@@@std@@QAEPAKQAKABK@Z ; std::vector<unsigned long,std::allocator<unsigned long> >::_Emplace_reallocate<unsigned long const &>
$LN9@LoadMateri:
; File C:\DS Project\DS Files\Source\ClientSource\Client\eterGrnLib\Mesh.cpp

; 265  : 		bHaveBlendThing |= rkMtrlPal.GetMaterialRef(mtrlIndex).GetType() == CGrannyMaterial::TYPE_BLEND_PNT;

  00056	57		 push	 edi
  00057	8b 7d 08	 mov	 edi, DWORD PTR _rkMtrlPal$[ebp]
  0005a	8b cf		 mov	 ecx, edi
  0005c	e8 00 00 00 00	 call	 ?GetMaterialRef@CGrannyMaterialPalette@@QAEAAVCGrannyMaterial@@K@Z ; CGrannyMaterialPalette::GetMaterialRef
  00061	8b c8		 mov	 ecx, eax
  00063	e8 00 00 00 00	 call	 ?GetType@CGrannyMaterial@@QBE?AW4EType@1@XZ ; CGrannyMaterial::GetType
  00068	8a 55 ff	 mov	 dl, BYTE PTR _bHaveBlendThing$1$[ebp]
  0006b	83 f8 01	 cmp	 eax, 1
  0006e	8b 4d f8	 mov	 ecx, DWORD PTR _this$1$[ebp]
  00071	0f 94 c0	 sete	 al
  00074	43		 inc	 ebx
  00075	0a d0		 or	 dl, al
  00077	88 55 ff	 mov	 BYTE PTR _bHaveBlendThing$1$[ebp], dl
  0007a	3b 5d f0	 cmp	 ebx, DWORD PTR _mtrlCount$1$[ebp]
  0007d	7c a6		 jl	 SHORT $LL4@LoadMateri

; 266  : 	}
; 267  : 	m_bHaveBlendThing = bHaveBlendThing;

  0007f	8b c1		 mov	 eax, ecx

; 268  : 
; 269  : 	return true;

  00081	5f		 pop	 edi
  00082	5e		 pop	 esi
  00083	5b		 pop	 ebx
  00084	88 50 36	 mov	 BYTE PTR [eax+54], dl
$LN18@LoadMateri:

; 270  : }

  00087	b0 01		 mov	 al, 1
  00089	8b e5		 mov	 esp, ebp
  0008b	5d		 pop	 ebp
  0008c	c2 04 00	 ret	 4
?LoadMaterials@CGrannyMesh@@IAE_NAAVCGrannyMaterialPalette@@@Z ENDP ; CGrannyMesh::LoadMaterials
_TEXT	ENDS
; Function compile flags: /Ogtp
; File C:\DS Project\DS Files\Source\ClientSource\Client\eterGrnLib\Mesh.cpp
;	COMDAT ?Initialize@CGrannyMesh@@IAEXXZ
_TEXT	SEGMENT
?Initialize@CGrannyMesh@@IAEXXZ PROC			; CGrannyMesh::Initialize, COMDAT
; _this$ = ecx

; 302  : 	for (int r = 0; r < CGrannyMaterial::TYPE_MAX_NUM; ++r)
; 303  : 		m_triGroupNodeLists[r] = NULL;

  00000	c7 41 24 00 00
	00 00		 mov	 DWORD PTR [ecx+36], 0
  00007	c7 41 28 00 00
	00 00		 mov	 DWORD PTR [ecx+40], 0

; 304  : 
; 305  : 	m_pgrnMeshType = GrannyPNT332VertexType;

  0000e	a1 00 00 00 00	 mov	 eax, DWORD PTR __imp__GrannyPNT332VertexType
  00013	8b 00		 mov	 eax, DWORD PTR [eax]
  00015	89 41 04	 mov	 DWORD PTR [ecx+4], eax

; 306  : 	m_pgrnMesh = NULL;

  00018	c7 41 08 00 00
	00 00		 mov	 DWORD PTR [ecx+8], 0

; 307  : 	// WORK
; 308  : 	m_pgrnMeshBindingTemp = NULL;

  0001f	c7 41 0c 00 00
	00 00		 mov	 DWORD PTR [ecx+12], 0

; 309  : 	// END_OF_WORK
; 310  : 	m_pgrnMeshDeformer = NULL;

  00026	c7 41 10 00 00
	00 00		 mov	 DWORD PTR [ecx+16], 0

; 311  : 
; 312  : 	m_triGroupNodes = NULL;

  0002d	c7 41 20 00 00
	00 00		 mov	 DWORD PTR [ecx+32], 0

; 313  : 
; 314  : 	m_vtxBasePos = 0;

  00034	c7 41 2c 00 00
	00 00		 mov	 DWORD PTR [ecx+44], 0

; 315  : 	m_idxBasePos = 0;

  0003b	c7 41 30 00 00
	00 00		 mov	 DWORD PTR [ecx+48], 0

; 316  : 
; 317  : 	m_canDeformPNTVertex = false;

  00042	66 c7 41 34 00
	00		 mov	 WORD PTR [ecx+52], 0

; 318  : 	m_isTwoSide = false;
; 319  : 	m_bHaveBlendThing = false;

  00048	c6 41 36 00	 mov	 BYTE PTR [ecx+54], 0

; 320  : }

  0004c	c3		 ret	 0
?Initialize@CGrannyMesh@@IAEXXZ ENDP			; CGrannyMesh::Initialize
_TEXT	ENDS
; Function compile flags: /Ogtp
; File C:\DS Project\DS Files\Source\ClientSource\Client\eterGrnLib\Mesh.cpp
;	COMDAT ?RebuildTriGroupNodeList@CGrannyMesh@@QAEXXZ
_TEXT	SEGMENT
?RebuildTriGroupNodeList@CGrannyMesh@@QAEXXZ PROC	; CGrannyMesh::RebuildTriGroupNodeList, COMDAT
; _this$ = ecx

; 221  : 	assert(!"CGrannyMesh::RebuildTriGroupNodeList() - Why should you rebuild it -?");
; 222  : 	/*
; 223  : 	int mtrlCount = m_pgrnMesh->MaterialBindingCount;
; 224  : 	int GroupNodeCount = GrannyGetMeshTriangleGroupCount(m_pgrnMesh);
; 225  : 
; 226  : 	if (GroupNodeCount <= 0)
; 227  : 		return;
; 228  : 
; 229  : 	const granny_tri_material_group * c_pgrnTriGroups = GrannyGetMeshTriangleGroups(m_pgrnMesh);
; 230  : 
; 231  : 	for (int g = 0; g < GroupNodeCount; ++g)
; 232  : 	{
; 233  : 		const granny_tri_material_group& c_rgrnTriGroup = c_pgrnTriGroups[g];
; 234  : 		TTriGroupNode * pTriGroupNode = m_triGroupNodes + g;
; 235  : 
; 236  : 		int iMtrl = c_rgrnTriGroup.MaterialIndex;
; 237  : 
; 238  : 		if (iMtrl >= 0 && iMtrl < mtrlCount)
; 239  : 		{
; 240  : 			CGrannyMaterial & rMtrl = m_mtrls[iMtrl];
; 241  : 
; 242  : 			pTriGroupNode->lpd3dTextures[0] = rMtrl.GetD3DTexture(0);
; 243  : 			pTriGroupNode->lpd3dTextures[1] = rMtrl.GetD3DTexture(1);
; 244  : 
; 245  : 		}
; 246  : 	}
; 247  : 	*/
; 248  : }

  00000	c2 00 00	 ret	 0
?RebuildTriGroupNodeList@CGrannyMesh@@QAEXXZ ENDP	; CGrannyMesh::RebuildTriGroupNodeList
_TEXT	ENDS
; Function compile flags: /Ogtp
; File C:\DS Project\DS Files\Source\ClientSource\Client\eterGrnLib\Mesh.cpp
;	COMDAT ?GetTriGroupNodeList@CGrannyMesh@@QBEPBUSTriGroupNode@1@W4EType@CGrannyMaterial@@@Z
_TEXT	SEGMENT
_eMtrlType$ = 8						; size = 4
?GetTriGroupNodeList@CGrannyMesh@@QBEPBUSTriGroupNode@1@W4EType@CGrannyMaterial@@@Z PROC ; CGrannyMesh::GetTriGroupNodeList, COMDAT
; _this$ = ecx

; 88   : {

  00000	55		 push	 ebp
  00001	8b ec		 mov	 ebp, esp

; 89   : 	return m_triGroupNodeLists[eMtrlType];

  00003	8b 45 08	 mov	 eax, DWORD PTR _eMtrlType$[ebp]
  00006	8b 44 81 24	 mov	 eax, DWORD PTR [ecx+eax*4+36]

; 90   : }

  0000a	5d		 pop	 ebp
  0000b	c2 04 00	 ret	 4
?GetTriGroupNodeList@CGrannyMesh@@QBEPBUSTriGroupNode@1@W4EType@CGrannyMaterial@@@Z ENDP ; CGrannyMesh::GetTriGroupNodeList
_TEXT	ENDS
; Function compile flags: /Ogtp
; File C:\DS Project\DS Files\Source\ClientSource\Client\eterGrnLib\Mesh.cpp
;	COMDAT ?GetGrannyMeshPointer@CGrannyMesh@@QBEPBUgranny_mesh@@XZ
_TEXT	SEGMENT
?GetGrannyMeshPointer@CGrannyMesh@@QBEPBUgranny_mesh@@XZ PROC ; CGrannyMesh::GetGrannyMeshPointer, COMDAT
; _this$ = ecx

; 84   : 	return m_pgrnMesh;

  00000	8b 41 08	 mov	 eax, DWORD PTR [ecx+8]

; 85   : }

  00003	c3		 ret	 0
?GetGrannyMeshPointer@CGrannyMesh@@QBEPBUgranny_mesh@@XZ ENDP ; CGrannyMesh::GetGrannyMeshPointer
_TEXT	ENDS
; Function compile flags: /Ogtp
; File C:\DS Project\DS Files\Source\ClientSource\Client\eterGrnLib\Mesh.cpp
;	COMDAT ?GetIndexBasePosition@CGrannyMesh@@QBEHXZ
_TEXT	SEGMENT
?GetIndexBasePosition@CGrannyMesh@@QBEHXZ PROC		; CGrannyMesh::GetIndexBasePosition, COMDAT
; _this$ = ecx

; 105  : 	return m_idxBasePos;

  00000	8b 41 30	 mov	 eax, DWORD PTR [ecx+48]

; 106  : }

  00003	c3		 ret	 0
?GetIndexBasePosition@CGrannyMesh@@QBEHXZ ENDP		; CGrannyMesh::GetIndexBasePosition
_TEXT	ENDS
; Function compile flags: /Ogtp
; File C:\DS Project\DS Files\Source\ClientSource\Client\eterGrnLib\Mesh.cpp
;	COMDAT ?GetVertexBasePosition@CGrannyMesh@@QBEHXZ
_TEXT	SEGMENT
?GetVertexBasePosition@CGrannyMesh@@QBEHXZ PROC		; CGrannyMesh::GetVertexBasePosition, COMDAT
; _this$ = ecx

; 100  : 	return m_vtxBasePos;

  00000	8b 41 2c	 mov	 eax, DWORD PTR [ecx+44]

; 101  : }

  00003	c3		 ret	 0
?GetVertexBasePosition@CGrannyMesh@@QBEHXZ ENDP		; CGrannyMesh::GetVertexBasePosition
_TEXT	ENDS
; Function compile flags: /Ogtp
; File C:\DS Project\DS Files\Source\ClientSource\Client\eterGrnLib\Mesh.cpp
;	COMDAT ?GetDefaultBoneIndices@CGrannyMesh@@QBEPBHXZ
_TEXT	SEGMENT
?GetDefaultBoneIndices@CGrannyMesh@@QBEPBHXZ PROC	; CGrannyMesh::GetDefaultBoneIndices, COMDAT
; _this$ = ecx

; 117  : 	return GrannyGetMeshBindingToBoneIndices(m_pgrnMeshBindingTemp);

  00000	ff 71 0c	 push	 DWORD PTR [ecx+12]
  00003	ff 15 00 00 00
	00		 call	 DWORD PTR __imp__GrannyGetMeshBindingToBoneIndices@4

; 118  : }

  00009	c3		 ret	 0
?GetDefaultBoneIndices@CGrannyMesh@@QBEPBHXZ ENDP	; CGrannyMesh::GetDefaultBoneIndices
_TEXT	ENDS
; Function compile flags: /Ogtp
; File C:\DS Project\DS Files\Source\ClientSource\Client\eterGrnLib\Mesh.cpp
;	COMDAT ?GetVertexCount@CGrannyMesh@@QBEHXZ
_TEXT	SEGMENT
?GetVertexCount@CGrannyMesh@@QBEHXZ PROC		; CGrannyMesh::GetVertexCount, COMDAT
; _this$ = ecx

; 94   : 	assert(m_pgrnMesh!=NULL);
; 95   : 	return GrannyGetMeshVertexCount(m_pgrnMesh);

  00000	ff 71 08	 push	 DWORD PTR [ecx+8]
  00003	ff 15 00 00 00
	00		 call	 DWORD PTR __imp__GrannyGetMeshVertexCount@4

; 96   : }

  00009	c3		 ret	 0
?GetVertexCount@CGrannyMesh@@QBEHXZ ENDP		; CGrannyMesh::GetVertexCount
_TEXT	ENDS
; Function compile flags: /Ogtp
; File C:\DS Project\DS Files\Source\ClientSource\Client\eterGrnLib\Mesh.cpp
;	COMDAT ?IsTwoSide@CGrannyMesh@@QBE_NXZ
_TEXT	SEGMENT
?IsTwoSide@CGrannyMesh@@QBE_NXZ PROC			; CGrannyMesh::IsTwoSide, COMDAT
; _this$ = ecx

; 274  : 	return m_isTwoSide;

  00000	8a 41 35	 mov	 al, BYTE PTR [ecx+53]

; 275  : }

  00003	c3		 ret	 0
?IsTwoSide@CGrannyMesh@@QBE_NXZ ENDP			; CGrannyMesh::IsTwoSide
_TEXT	ENDS
; Function compile flags: /Ogtp
; File C:\DS Project\DS Files\Source\ClientSource\Client\eterGrnLib\Mesh.cpp
;	COMDAT ?CanDeformPNTVertices@CGrannyMesh@@QBE_NXZ
_TEXT	SEGMENT
?CanDeformPNTVertices@CGrannyMesh@@QBE_NXZ PROC		; CGrannyMesh::CanDeformPNTVertices, COMDAT
; _this$ = ecx

; 79   : 	return m_canDeformPNTVertex;

  00000	8a 41 34	 mov	 al, BYTE PTR [ecx+52]

; 80   : }

  00003	c3		 ret	 0
?CanDeformPNTVertices@CGrannyMesh@@QBE_NXZ ENDP		; CGrannyMesh::CanDeformPNTVertices
_TEXT	ENDS
; Function compile flags: /Ogtp
; File C:\DS Project\DS Files\Source\ClientSource\Client\eterGrnLib\Mesh.cpp
;	COMDAT ?DeformPNTVertices@CGrannyMesh@@QBEXPAXPAUD3DXMATRIX@@PAUmesh_binding@granny@@@Z
_TEXT	SEGMENT
_this$1$ = -4						; size = 4
_dstBaseVertices$ = 8					; size = 4
_boneMatrices$ = 12					; size = 4
_pgrnMeshBinding$ = 16					; size = 4
?DeformPNTVertices@CGrannyMesh@@QBEXPAXPAUD3DXMATRIX@@PAUmesh_binding@granny@@@Z PROC ; CGrannyMesh::DeformPNTVertices, COMDAT
; _this$ = ecx

; 46   : {

  00000	55		 push	 ebp
  00001	8b ec		 mov	 ebp, esp
  00003	51		 push	 ecx
  00004	53		 push	 ebx
  00005	56		 push	 esi
  00006	57		 push	 edi
  00007	8b f9		 mov	 edi, ecx
  00009	89 7d fc	 mov	 DWORD PTR _this$1$[ebp], edi

; 47   : 	assert(dstBaseVertices != NULL);
; 48   : 	assert(boneMatrices != NULL);
; 49   : 	assert(m_pgrnMeshDeformer != NULL);
; 50   : 
; 51   : 	const granny_mesh * pgrnMesh = GetGrannyMeshPointer();

  0000c	e8 00 00 00 00	 call	 ?GetGrannyMeshPointer@CGrannyMesh@@QBEPBUgranny_mesh@@XZ ; CGrannyMesh::GetGrannyMeshPointer
  00011	8b f0		 mov	 esi, eax

; 52   : 
; 53   : 	TPNTVertex * srcVertices = (TPNTVertex *) GrannyGetMeshVertices(pgrnMesh);

  00013	56		 push	 esi
  00014	ff 15 00 00 00
	00		 call	 DWORD PTR __imp__GrannyGetMeshVertices@4

; 54   : 	TPNTVertex * dstVertices = ((TPNTVertex *) dstBaseVertices) + m_vtxBasePos;

  0001a	8b 7f 2c	 mov	 edi, DWORD PTR [edi+44]
  0001d	8b d8		 mov	 ebx, eax
  0001f	c1 e7 05	 shl	 edi, 5
  00022	03 7d 08	 add	 edi, DWORD PTR _dstBaseVertices$[ebp]

; 55   : 
; 56   : 	int vtxCount = GrannyGetMeshVertexCount(pgrnMesh);

  00025	56		 push	 esi
  00026	ff 15 00 00 00
	00		 call	 DWORD PTR __imp__GrannyGetMeshVertexCount@4

; 57   : 
; 58   : 	// WORK
; 59   : #if GrannyProductMinorVersion==4
; 60   : 	int * boneIndices = GrannyGetMeshBindingToBoneIndices(pgrnMeshBinding);
; 61   : #elif GrannyProductMinorVersion==11 || GrannyProductMinorVersion==9 || GrannyProductMinorVersion==8 || GrannyProductMinorVersion==7
; 62   : 	const granny_int32x * boneIndices = GrannyGetMeshBindingToBoneIndices(pgrnMeshBinding);

  0002c	ff 75 10	 push	 DWORD PTR _pgrnMeshBinding$[ebp]
  0002f	8b f0		 mov	 esi, eax
  00031	ff 15 00 00 00
	00		 call	 DWORD PTR __imp__GrannyGetMeshBindingToBoneIndices@4

; 63   : #else
; 64   : #error "unknown granny version"
; 65   : #endif
; 66   : 	// END_OF_WORK
; 67   : 
; 68   : 	GrannyDeformVertices(

  00037	57		 push	 edi
  00038	53		 push	 ebx
  00039	56		 push	 esi
  0003a	ff 75 0c	 push	 DWORD PTR _boneMatrices$[ebp]
  0003d	50		 push	 eax
  0003e	8b 45 fc	 mov	 eax, DWORD PTR _this$1$[ebp]
  00041	ff 70 10	 push	 DWORD PTR [eax+16]
  00044	ff 15 00 00 00
	00		 call	 DWORD PTR __imp__GrannyDeformVertices@24
  0004a	5f		 pop	 edi
  0004b	5e		 pop	 esi
  0004c	5b		 pop	 ebx

; 69   : 		m_pgrnMeshDeformer,
; 70   : 		boneIndices,
; 71   : 		(float *)boneMatrices,
; 72   : 		vtxCount,
; 73   : 		srcVertices,
; 74   : 		dstVertices);
; 75   : }

  0004d	8b e5		 mov	 esp, ebp
  0004f	5d		 pop	 ebp
  00050	c2 0c 00	 ret	 12			; 0000000cH
?DeformPNTVertices@CGrannyMesh@@QBEXPAXPAUD3DXMATRIX@@PAUmesh_binding@granny@@@Z ENDP ; CGrannyMesh::DeformPNTVertices
_TEXT	ENDS
; Function compile flags: /Ogtp
; File C:\DS Project\DS Files\Source\ClientSource\Client\eterGrnLib\Mesh.cpp
;	COMDAT ?SetPNT2Mesh@CGrannyMesh@@QAEXXZ
_TEXT	SEGMENT
?SetPNT2Mesh@CGrannyMesh@@QAEXXZ PROC			; CGrannyMesh::SetPNT2Mesh, COMDAT
; _this$ = ecx

; 279  : 	m_pgrnMeshType = GrannyPNT3322VertexType;

  00000	c7 41 04 00 00
	00 00		 mov	 DWORD PTR [ecx+4], OFFSET ?GrannyPNT3322VertexType@@3PAUgranny_data_type_definition@@A ; GrannyPNT3322VertexType

; 280  : }

  00007	c3		 ret	 0
?SetPNT2Mesh@CGrannyMesh@@QAEXXZ ENDP			; CGrannyMesh::SetPNT2Mesh
_TEXT	ENDS
; Function compile flags: /Ogtp
; File C:\DS Project\DS Files\Source\ClientSource\Client\eterGrnLib\Mesh.cpp
;	COMDAT ?Destroy@CGrannyMesh@@QAEXXZ
_TEXT	SEGMENT
?Destroy@CGrannyMesh@@QAEXXZ PROC			; CGrannyMesh::Destroy, COMDAT
; _this$ = ecx

; 283  : {

  00000	56		 push	 esi
  00001	8b f1		 mov	 esi, ecx

; 284  : 	if (m_triGroupNodes)

  00003	8b 46 20	 mov	 eax, DWORD PTR [esi+32]
  00006	85 c0		 test	 eax, eax
  00008	74 09		 je	 SHORT $LN2@Destroy

; 285  : 		delete [] m_triGroupNodes;

  0000a	50		 push	 eax
  0000b	e8 00 00 00 00	 call	 ??_V@YAXPAX@Z		; operator delete[]
  00010	83 c4 04	 add	 esp, 4
$LN2@Destroy:

; 286  : 
; 287  : 	m_mtrlIndexVector.clear();

  00013	8b 46 14	 mov	 eax, DWORD PTR [esi+20]
  00016	89 46 18	 mov	 DWORD PTR [esi+24], eax

; 288  : 
; 289  : 	// WORK
; 290  : 	if (m_pgrnMeshBindingTemp)

  00019	8b 46 0c	 mov	 eax, DWORD PTR [esi+12]
  0001c	85 c0		 test	 eax, eax
  0001e	74 07		 je	 SHORT $LN3@Destroy

; 291  : 		GrannyFreeMeshBinding(m_pgrnMeshBindingTemp);

  00020	50		 push	 eax
  00021	ff 15 00 00 00
	00		 call	 DWORD PTR __imp__GrannyFreeMeshBinding@4
$LN3@Destroy:

; 292  : 	// END_OF_WORK
; 293  : 
; 294  :     if (m_pgrnMeshDeformer)

  00027	8b 46 10	 mov	 eax, DWORD PTR [esi+16]
  0002a	85 c0		 test	 eax, eax
  0002c	74 07		 je	 SHORT $LN4@Destroy

; 295  : 		GrannyFreeMeshDeformer(m_pgrnMeshDeformer);

  0002e	50		 push	 eax
  0002f	ff 15 00 00 00
	00		 call	 DWORD PTR __imp__GrannyFreeMeshDeformer@4
$LN4@Destroy:

; 296  : 
; 297  : 	Initialize();

  00035	8b ce		 mov	 ecx, esi
  00037	5e		 pop	 esi
  00038	e9 00 00 00 00	 jmp	 ?Initialize@CGrannyMesh@@IAEXXZ ; CGrannyMesh::Initialize
?Destroy@CGrannyMesh@@QAEXXZ ENDP			; CGrannyMesh::Destroy
_TEXT	ENDS
; Function compile flags: /Ogtp
; File C:\DS Project\DS Files\Source\ClientSource\Client\eterGrnLib\Mesh.cpp
;	COMDAT ?NEW_LoadVertices@CGrannyMesh@@QAEXPAX@Z
_TEXT	SEGMENT
_dstBaseVertices$ = 8					; size = 4
?NEW_LoadVertices@CGrannyMesh@@QAEXPAX@Z PROC		; CGrannyMesh::NEW_LoadVertices, COMDAT
; _this$ = ecx

; 35   : {

  00000	55		 push	 ebp
  00001	8b ec		 mov	 ebp, esp
  00003	56		 push	 esi
  00004	57		 push	 edi
  00005	8b f1		 mov	 esi, ecx

; 36   : 	const granny_mesh * pgrnMesh = GetGrannyMeshPointer();

  00007	e8 00 00 00 00	 call	 ?GetGrannyMeshPointer@CGrannyMesh@@QBEPBUgranny_mesh@@XZ ; CGrannyMesh::GetGrannyMeshPointer
  0000c	8b f8		 mov	 edi, eax

; 37   : 
; 38   : 	if (!GrannyMeshIsRigid(pgrnMesh))

  0000e	57		 push	 edi
  0000f	ff 15 00 00 00
	00		 call	 DWORD PTR __imp__GrannyMeshIsRigid@4
  00015	84 c0		 test	 al, al
  00017	74 14		 je	 SHORT $LN1@NEW_LoadVe

; 39   : 		return;
; 40   : 
; 41   : 	TPNTVertex * dstVertices = ((TPNTVertex *)dstBaseVertices) + m_vtxBasePos;

  00019	8b 4e 2c	 mov	 ecx, DWORD PTR [esi+44]
  0001c	c1 e1 05	 shl	 ecx, 5
  0001f	03 4d 08	 add	 ecx, DWORD PTR _dstBaseVertices$[ebp]

; 42   : 	GrannyCopyMeshVertices(pgrnMesh, m_pgrnMeshType, dstVertices);

  00022	51		 push	 ecx
  00023	ff 76 04	 push	 DWORD PTR [esi+4]
  00026	57		 push	 edi
  00027	ff 15 00 00 00
	00		 call	 DWORD PTR __imp__GrannyCopyMeshVertices@12
$LN1@NEW_LoadVe:

; 43   : }

  0002d	5f		 pop	 edi
  0002e	5e		 pop	 esi
  0002f	5d		 pop	 ebp
  00030	c2 04 00	 ret	 4
?NEW_LoadVertices@CGrannyMesh@@QAEXPAX@Z ENDP		; CGrannyMesh::NEW_LoadVertices
_TEXT	ENDS
; Function compile flags: /Ogtp
; File C:\DS Project\DS Files\Source\ClientSource\Client\eterGrnLib\Mesh.cpp
;	COMDAT ?LoadPNTVertices@CGrannyMesh@@QAEXPAX@Z
_TEXT	SEGMENT
_dstBaseVertices$ = 8					; size = 4
?LoadPNTVertices@CGrannyMesh@@QAEXPAX@Z PROC		; CGrannyMesh::LoadPNTVertices, COMDAT
; _this$ = ecx

; 24   : {

  00000	55		 push	 ebp
  00001	8b ec		 mov	 ebp, esp
  00003	56		 push	 esi
  00004	57		 push	 edi
  00005	8b f1		 mov	 esi, ecx

; 25   : 	const granny_mesh * pgrnMesh = GetGrannyMeshPointer();

  00007	e8 00 00 00 00	 call	 ?GetGrannyMeshPointer@CGrannyMesh@@QBEPBUgranny_mesh@@XZ ; CGrannyMesh::GetGrannyMeshPointer
  0000c	8b f8		 mov	 edi, eax

; 26   : 
; 27   : 	if (!GrannyMeshIsRigid(pgrnMesh))

  0000e	57		 push	 edi
  0000f	ff 15 00 00 00
	00		 call	 DWORD PTR __imp__GrannyMeshIsRigid@4
  00015	84 c0		 test	 al, al
  00017	74 14		 je	 SHORT $LN1@LoadPNTVer

; 28   : 		return;
; 29   : 
; 30   : 	TPNTVertex * dstVertices = ((TPNTVertex *)dstBaseVertices) + m_vtxBasePos;

  00019	8b 4e 2c	 mov	 ecx, DWORD PTR [esi+44]
  0001c	c1 e1 05	 shl	 ecx, 5
  0001f	03 4d 08	 add	 ecx, DWORD PTR _dstBaseVertices$[ebp]

; 31   : 	GrannyCopyMeshVertices(pgrnMesh, m_pgrnMeshType, dstVertices);

  00022	51		 push	 ecx
  00023	ff 76 04	 push	 DWORD PTR [esi+4]
  00026	57		 push	 edi
  00027	ff 15 00 00 00
	00		 call	 DWORD PTR __imp__GrannyCopyMeshVertices@12
$LN1@LoadPNTVer:

; 32   : }

  0002d	5f		 pop	 edi
  0002e	5e		 pop	 esi
  0002f	5d		 pop	 ebp
  00030	c2 04 00	 ret	 4
?LoadPNTVertices@CGrannyMesh@@QAEXPAX@Z ENDP		; CGrannyMesh::LoadPNTVertices
_TEXT	ENDS
; Function compile flags: /Ogtp
; File C:\DS Project\DS Files\Source\ClientSource\Client\eterGrnLib\Mesh.cpp
;	COMDAT ?LoadIndices@CGrannyMesh@@QAEXPAX@Z
_TEXT	SEGMENT
_dstBaseIndices$ = 8					; size = 4
?LoadIndices@CGrannyMesh@@QAEXPAX@Z PROC		; CGrannyMesh::LoadIndices, COMDAT
; _this$ = ecx

; 16   : {

  00000	55		 push	 ebp
  00001	8b ec		 mov	 ebp, esp
  00003	56		 push	 esi
  00004	8b f1		 mov	 esi, ecx

; 17   : 	const granny_mesh * pgrnMesh = GetGrannyMeshPointer();

  00006	e8 00 00 00 00	 call	 ?GetGrannyMeshPointer@CGrannyMesh@@QBEPBUgranny_mesh@@XZ ; CGrannyMesh::GetGrannyMeshPointer

; 18   : 
; 19   : 	TIndex * dstIndices = ((TIndex *)dstBaseIndices) + m_idxBasePos;

  0000b	8b 56 30	 mov	 edx, DWORD PTR [esi+48]
  0000e	8b 4d 08	 mov	 ecx, DWORD PTR _dstBaseIndices$[ebp]
  00011	8d 0c 51	 lea	 ecx, DWORD PTR [ecx+edx*2]

; 20   : 	GrannyCopyMeshIndices(pgrnMesh, sizeof(TIndex), dstIndices);

  00014	51		 push	 ecx
  00015	6a 02		 push	 2
  00017	50		 push	 eax
  00018	ff 15 00 00 00
	00		 call	 DWORD PTR __imp__GrannyCopyMeshIndices@12
  0001e	5e		 pop	 esi

; 21   : }

  0001f	5d		 pop	 ebp
  00020	c2 04 00	 ret	 4
?LoadIndices@CGrannyMesh@@QAEXPAX@Z ENDP		; CGrannyMesh::LoadIndices
_TEXT	ENDS
; Function compile flags: /Ogtp
; File C:\DS Project\DS Files\Source\ClientSource\Client\eterGrnLib\Mesh.cpp
;	COMDAT ?CreateFromGrannyMeshPointer@CGrannyMesh@@QAE_NPAUgranny_skeleton@@PAUgranny_mesh@@HHAAVCGrannyMaterialPalette@@@Z
_TEXT	SEGMENT
_pgrnSkeleton$ = 8					; size = 4
_pgrnMesh$ = 12						; size = 4
_vtxBasePos$ = 16					; size = 4
_idxBasePos$ = 20					; size = 4
_rkMtrlPal$ = 24					; size = 4
?CreateFromGrannyMeshPointer@CGrannyMesh@@QAE_NPAUgranny_skeleton@@PAUgranny_mesh@@HHAAVCGrannyMaterialPalette@@@Z PROC ; CGrannyMesh::CreateFromGrannyMeshPointer, COMDAT
; _this$ = ecx

; 130  : {

  00000	55		 push	 ebp
  00001	8b ec		 mov	 ebp, esp

; 131  : 	assert(IsEmpty());
; 132  : 
; 133  : 	m_pgrnMesh = pgrnMesh;
; 134  : 	m_vtxBasePos = vtxBasePos;

  00003	8b 45 10	 mov	 eax, DWORD PTR _vtxBasePos$[ebp]
  00006	56		 push	 esi
  00007	8b f1		 mov	 esi, ecx
  00009	8b 4d 0c	 mov	 ecx, DWORD PTR _pgrnMesh$[ebp]
  0000c	89 46 2c	 mov	 DWORD PTR [esi+44], eax

; 135  : 	m_idxBasePos = idxBasePos;

  0000f	8b 45 14	 mov	 eax, DWORD PTR _idxBasePos$[ebp]
  00012	89 4e 08	 mov	 DWORD PTR [esi+8], ecx
  00015	89 46 30	 mov	 DWORD PTR [esi+48], eax

; 136  : 
; 137  : 	if (m_pgrnMesh->BoneBindingCount < 0)

  00018	83 79 1c 00	 cmp	 DWORD PTR [ecx+28], 0
  0001c	7c 79		 jl	 SHORT $LN6@CreateFrom

; 138  : 		return true;
; 139  : 
; 140  : 	// WORK
; 141  : 	m_pgrnMeshBindingTemp = GrannyNewMeshBinding(m_pgrnMesh, pgrnSkeleton, pgrnSkeleton);

  0001e	8b 45 08	 mov	 eax, DWORD PTR _pgrnSkeleton$[ebp]
  00021	50		 push	 eax
  00022	50		 push	 eax
  00023	51		 push	 ecx
  00024	ff 15 00 00 00
	00		 call	 DWORD PTR __imp__GrannyNewMeshBinding@12

; 142  : 	// END_OF_WORK
; 143  : 
; 144  : 	if (!GrannyMeshIsRigid(m_pgrnMesh))

  0002a	ff 76 08	 push	 DWORD PTR [esi+8]
  0002d	89 46 0c	 mov	 DWORD PTR [esi+12], eax
  00030	ff 15 00 00 00
	00		 call	 DWORD PTR __imp__GrannyMeshIsRigid@4
  00036	84 c0		 test	 al, al
  00038	75 1e		 jne	 SHORT $LN3@CreateFrom

; 145  : 	{
; 146  : 		m_canDeformPNTVertex = true;
; 147  : 
; 148  : 		granny_data_type_definition * pgrnInputType = GrannyGetMeshVertexType(m_pgrnMesh);

  0003a	ff 76 08	 push	 DWORD PTR [esi+8]
  0003d	c6 46 34 01	 mov	 BYTE PTR [esi+52], 1
  00041	ff 15 00 00 00
	00		 call	 DWORD PTR __imp__GrannyGetMeshVertexType@4

; 149  : 		granny_data_type_definition * pgrnOutputType = m_pgrnMeshType;
; 150  : 
; 151  : #if GrannyProductMinorVersion==4
; 152  : 		m_pgrnMeshDeformer = GrannyNewMeshDeformer(pgrnInputType, pgrnOutputType, GrannyDeformPositionNormal);
; 153  : #elif GrannyProductMinorVersion==11 || GrannyProductMinorVersion==9 || GrannyProductMinorVersion==8 || GrannyProductMinorVersion==7
; 154  : 		m_pgrnMeshDeformer = GrannyNewMeshDeformer(pgrnInputType, pgrnOutputType, GrannyDeformPositionNormal, GrannyDontAllowUncopiedTail);

  00047	6a 00		 push	 0
  00049	6a 02		 push	 2
  0004b	ff 76 04	 push	 DWORD PTR [esi+4]
  0004e	50		 push	 eax
  0004f	ff 15 00 00 00
	00		 call	 DWORD PTR __imp__GrannyNewMeshDeformer@16
  00055	89 46 10	 mov	 DWORD PTR [esi+16], eax
$LN3@CreateFrom:

; 155  : 		// m_pgrnMeshDeformer = GrannyNewMeshDeformer(pgrnInputType, pgrnOutputType, GrannyDeformPositionNormal, GrannyAllowUncopiedTail);
; 156  : #else
; 157  : #error "unknown granny version"
; 158  : #endif
; 159  : 		assert(m_pgrnMeshDeformer != NULL && "Cannot create mesh deformer");
; 160  : 	}
; 161  : 
; 162  : 	// Two Side Mesh
; 163  : 	if (!strncmp(m_pgrnMesh->Name, "2x", 2))

  00058	8b 46 08	 mov	 eax, DWORD PTR [esi+8]
  0005b	6a 02		 push	 2
  0005d	68 00 00 00 00	 push	 OFFSET ??_C@_02MALHOEON@2x@
  00062	ff 30		 push	 DWORD PTR [eax]
  00064	e8 00 00 00 00	 call	 _strncmp
  00069	83 c4 0c	 add	 esp, 12			; 0000000cH
  0006c	85 c0		 test	 eax, eax
  0006e	75 04		 jne	 SHORT $LN4@CreateFrom

; 164  : 		m_isTwoSide = true;

  00070	c6 46 35 01	 mov	 BYTE PTR [esi+53], 1
$LN4@CreateFrom:

; 165  : 
; 166  : 	if (!LoadMaterials(rkMtrlPal))

  00074	ff 75 18	 push	 DWORD PTR _rkMtrlPal$[ebp]
  00077	8b ce		 mov	 ecx, esi
  00079	e8 00 00 00 00	 call	 ?LoadMaterials@CGrannyMesh@@IAE_NAAVCGrannyMaterialPalette@@@Z ; CGrannyMesh::LoadMaterials
  0007e	84 c0		 test	 al, al
  00080	74 0e		 je	 SHORT $LN8@CreateFrom

; 167  : 		return false;
; 168  : 
; 169  : 	if (!LoadTriGroupNodeList(rkMtrlPal))

  00082	ff 75 18	 push	 DWORD PTR _rkMtrlPal$[ebp]
  00085	8b ce		 mov	 ecx, esi
  00087	e8 00 00 00 00	 call	 ?LoadTriGroupNodeList@CGrannyMesh@@IAE_NAAVCGrannyMaterialPalette@@@Z ; CGrannyMesh::LoadTriGroupNodeList
  0008c	84 c0		 test	 al, al
  0008e	75 07		 jne	 SHORT $LN6@CreateFrom
$LN8@CreateFrom:

; 170  : 		return false;

  00090	32 c0		 xor	 al, al
  00092	5e		 pop	 esi

; 173  : }

  00093	5d		 pop	 ebp
  00094	c2 14 00	 ret	 20			; 00000014H
$LN6@CreateFrom:

; 171  : 
; 172  : 	return true;

  00097	b0 01		 mov	 al, 1
  00099	5e		 pop	 esi

; 173  : }

  0009a	5d		 pop	 ebp
  0009b	c2 14 00	 ret	 20			; 00000014H
?CreateFromGrannyMeshPointer@CGrannyMesh@@QAE_NPAUgranny_skeleton@@PAUgranny_mesh@@HHAAVCGrannyMaterialPalette@@@Z ENDP ; CGrannyMesh::CreateFromGrannyMeshPointer
_TEXT	ENDS
; Function compile flags: /Ogtp
; File C:\DS Project\DS Files\Source\ClientSource\Client\eterGrnLib\Mesh.cpp
;	COMDAT ?IsEmpty@CGrannyMesh@@QBE_NXZ
_TEXT	SEGMENT
?IsEmpty@CGrannyMesh@@QBE_NXZ PROC			; CGrannyMesh::IsEmpty, COMDAT
; _this$ = ecx

; 123  : 	if (m_pgrnMesh)

  00000	83 79 08 00	 cmp	 DWORD PTR [ecx+8], 0
  00004	0f 94 c0	 sete	 al

; 124  : 		return false;
; 125  : 
; 126  : 	return true;
; 127  : }

  00007	c3		 ret	 0
?IsEmpty@CGrannyMesh@@QBE_NXZ ENDP			; CGrannyMesh::IsEmpty
_TEXT	ENDS
; Function compile flags: /Ogtp
; File C:\DS Project\DS Files\Source\ClientSource\Client\eterGrnLib\Mesh.cpp
; File C:\Program Files (x86)\Microsoft Visual Studio\2019\Community\VC\Tools\MSVC\14.27.29110\include\vector
; File C:\Program Files (x86)\Microsoft Visual Studio\2019\Community\VC\Tools\MSVC\14.27.29110\include\xmemory
; File C:\Program Files (x86)\Microsoft Visual Studio\2019\Community\VC\Tools\MSVC\14.27.29110\include\vector
; File C:\Program Files (x86)\Microsoft Visual Studio\2019\Community\VC\Tools\MSVC\14.27.29110\include\xmemory
; File C:\Program Files (x86)\Microsoft Visual Studio\2019\Community\VC\Tools\MSVC\14.27.29110\include\vector
; File C:\DS Project\DS Files\Source\ClientSource\Client\eterGrnLib\Mesh.cpp
;	COMDAT ??1CGrannyMesh@@UAE@XZ
_TEXT	SEGMENT
??1CGrannyMesh@@UAE@XZ PROC				; CGrannyMesh::~CGrannyMesh, COMDAT
; _this$ = ecx

; 328  : {

  00000	56		 push	 esi
  00001	8b f1		 mov	 esi, ecx
  00003	c7 06 00 00 00
	00		 mov	 DWORD PTR [esi], OFFSET ??_7CGrannyMesh@@6B@

; 329  : 	Destroy();

  00009	e8 00 00 00 00	 call	 ?Destroy@CGrannyMesh@@QAEXXZ ; CGrannyMesh::Destroy
; File C:\Program Files (x86)\Microsoft Visual Studio\2019\Community\VC\Tools\MSVC\14.27.29110\include\vector

; 1693 :         if (_Myfirst) { // destroy and deallocate old array

  0000e	8b 4e 14	 mov	 ecx, DWORD PTR [esi+20]
  00011	85 c9		 test	 ecx, ecx
  00013	74 27		 je	 SHORT $LN6@CGrannyMes

; 1694 :             _Destroy(_Myfirst, _Mylast);
; 1695 :             _Getal().deallocate(_Myfirst, static_cast<size_type>(_Myend - _Myfirst));

  00015	8b 46 1c	 mov	 eax, DWORD PTR [esi+28]
  00018	2b c1		 sub	 eax, ecx
; File C:\Program Files (x86)\Microsoft Visual Studio\2019\Community\VC\Tools\MSVC\14.27.29110\include\xmemory

; 803  :         _Deallocate<_New_alignof<_Ty>>(_Ptr, sizeof(_Ty) * _Count);

  0001a	83 e0 fc	 and	 eax, -4			; fffffffcH
  0001d	50		 push	 eax
  0001e	51		 push	 ecx
  0001f	e8 00 00 00 00	 call	 ??$_Deallocate@$07$0A@@std@@YAXPAXI@Z ; std::_Deallocate<8,0>
; File C:\Program Files (x86)\Microsoft Visual Studio\2019\Community\VC\Tools\MSVC\14.27.29110\include\vector

; 1697 :             _Myfirst = pointer();

  00024	c7 46 14 00 00
	00 00		 mov	 DWORD PTR [esi+20], 0
; File C:\Program Files (x86)\Microsoft Visual Studio\2019\Community\VC\Tools\MSVC\14.27.29110\include\xmemory

; 803  :         _Deallocate<_New_alignof<_Ty>>(_Ptr, sizeof(_Ty) * _Count);

  0002b	83 c4 08	 add	 esp, 8
; File C:\Program Files (x86)\Microsoft Visual Studio\2019\Community\VC\Tools\MSVC\14.27.29110\include\vector

; 1698 :             _Mylast  = pointer();

  0002e	c7 46 18 00 00
	00 00		 mov	 DWORD PTR [esi+24], 0

; 1699 :             _Myend   = pointer();

  00035	c7 46 1c 00 00
	00 00		 mov	 DWORD PTR [esi+28], 0
$LN6@CGrannyMes:
  0003c	5e		 pop	 esi
; File C:\DS Project\DS Files\Source\ClientSource\Client\eterGrnLib\Mesh.cpp

; 330  : }

  0003d	c3		 ret	 0
??1CGrannyMesh@@UAE@XZ ENDP				; CGrannyMesh::~CGrannyMesh
_TEXT	ENDS
; Function compile flags: /Ogtp
; File C:\DS Project\DS Files\Source\ClientSource\Client\eterGrnLib\Mesh.cpp
; File C:\Program Files (x86)\Microsoft Visual Studio\2019\Community\VC\Tools\MSVC\14.27.29110\include\vector
; File C:\DS Project\DS Files\Source\ClientSource\Client\eterGrnLib\Mesh.cpp
;	COMDAT ??0CGrannyMesh@@QAE@XZ
_TEXT	SEGMENT
_this$ = -4						; size = 4
??0CGrannyMesh@@QAE@XZ PROC				; CGrannyMesh::CGrannyMesh, COMDAT
; _this$ = ecx

; 323  : {

  00000	55		 push	 ebp
  00001	8b ec		 mov	 ebp, esp
  00003	51		 push	 ecx
  00004	56		 push	 esi
  00005	8b f1		 mov	 esi, ecx
  00007	89 75 fc	 mov	 DWORD PTR _this$[ebp], esi
  0000a	c7 06 00 00 00
	00		 mov	 DWORD PTR [esi], OFFSET ??_7CGrannyMesh@@6B@
; File C:\Program Files (x86)\Microsoft Visual Studio\2019\Community\VC\Tools\MSVC\14.27.29110\include\vector

; 375  :     _Vector_val() noexcept : _Myfirst(), _Mylast(), _Myend() {}

  00010	c7 46 14 00 00
	00 00		 mov	 DWORD PTR [esi+20], 0
  00017	c7 46 18 00 00
	00 00		 mov	 DWORD PTR [esi+24], 0
  0001e	c7 46 1c 00 00
	00 00		 mov	 DWORD PTR [esi+28], 0
; File C:\DS Project\DS Files\Source\ClientSource\Client\eterGrnLib\Mesh.cpp

; 324  : 	Initialize();

  00025	e8 00 00 00 00	 call	 ?Initialize@CGrannyMesh@@IAEXXZ ; CGrannyMesh::Initialize

; 325  : }

  0002a	8b c6		 mov	 eax, esi
  0002c	5e		 pop	 esi
  0002d	8b e5		 mov	 esp, ebp
  0002f	5d		 pop	 ebp
  00030	c3		 ret	 0
??0CGrannyMesh@@QAE@XZ ENDP				; CGrannyMesh::CGrannyMesh
_TEXT	ENDS
; Function compile flags: /Ogtp
; File C:\Program Files (x86)\Microsoft Visual Studio\2019\Community\VC\Tools\MSVC\14.27.29110\include\exception
;	COMDAT ?_Throw_bad_array_new_length@std@@YAXXZ
_TEXT	SEGMENT
$T1 = -12						; size = 12
?_Throw_bad_array_new_length@std@@YAXXZ PROC		; std::_Throw_bad_array_new_length, COMDAT

; 320  : [[noreturn]] inline void _Throw_bad_array_new_length() {

  00000	55		 push	 ebp
  00001	8b ec		 mov	 ebp, esp
  00003	83 ec 0c	 sub	 esp, 12			; 0000000cH

; 321  :     _THROW(bad_array_new_length{});

  00006	8d 4d f4	 lea	 ecx, DWORD PTR $T1[ebp]
  00009	e8 00 00 00 00	 call	 ??0bad_array_new_length@std@@QAE@XZ ; std::bad_array_new_length::bad_array_new_length
  0000e	68 00 00 00 00	 push	 OFFSET __TI3?AVbad_array_new_length@std@@
  00013	8d 45 f4	 lea	 eax, DWORD PTR $T1[ebp]
  00016	50		 push	 eax
  00017	e8 00 00 00 00	 call	 __CxxThrowException@8
$LN3@Throw_bad_:
  0001c	cc		 int	 3
?_Throw_bad_array_new_length@std@@YAXXZ ENDP		; std::_Throw_bad_array_new_length
_TEXT	ENDS
; Function compile flags: /Ogtp
; File C:\Program Files (x86)\Microsoft Visual Studio\2019\Community\VC\Tools\MSVC\14.27.29110\include\vcruntime_exception.h
;	COMDAT ??_Gbad_array_new_length@std@@UAEPAXI@Z
_TEXT	SEGMENT
___flags$ = 8						; size = 4
??_Gbad_array_new_length@std@@UAEPAXI@Z PROC		; std::bad_array_new_length::`scalar deleting destructor', COMDAT
; _this$ = ecx
  00000	55		 push	 ebp
  00001	8b ec		 mov	 ebp, esp

; 89   :     {

  00003	56		 push	 esi
  00004	8b f1		 mov	 esi, ecx

; 90   :         __std_exception_destroy(&_Data);

  00006	8d 46 04	 lea	 eax, DWORD PTR [esi+4]
  00009	c7 06 00 00 00
	00		 mov	 DWORD PTR [esi], OFFSET ??_7exception@std@@6B@
  0000f	50		 push	 eax
  00010	e8 00 00 00 00	 call	 ___std_exception_destroy
  00015	83 c4 04	 add	 esp, 4
  00018	f6 45 08 01	 test	 BYTE PTR ___flags$[ebp], 1
  0001c	74 0b		 je	 SHORT $LN12@scalar
  0001e	6a 0c		 push	 12			; 0000000cH
  00020	56		 push	 esi
  00021	e8 00 00 00 00	 call	 ??3@YAXPAXI@Z		; operator delete
  00026	83 c4 08	 add	 esp, 8
$LN12@scalar:
  00029	8b c6		 mov	 eax, esi
  0002b	5e		 pop	 esi
  0002c	5d		 pop	 ebp
  0002d	c2 04 00	 ret	 4
??_Gbad_array_new_length@std@@UAEPAXI@Z ENDP		; std::bad_array_new_length::`scalar deleting destructor'
_TEXT	ENDS
; Function compile flags: /Ogtp
; File C:\Program Files (x86)\Microsoft Visual Studio\2019\Community\VC\Tools\MSVC\14.27.29110\include\vcruntime_exception.h
;	COMDAT ??0bad_array_new_length@std@@QAE@ABV01@@Z
_TEXT	SEGMENT
___that$ = 8						; size = 4
??0bad_array_new_length@std@@QAE@ABV01@@Z PROC		; std::bad_array_new_length::bad_array_new_length, COMDAT
; _this$ = ecx
  00000	55		 push	 ebp
  00001	8b ec		 mov	 ebp, esp

; 72   :     {

  00003	56		 push	 esi
  00004	8b f1		 mov	 esi, ecx
  00006	0f 57 c0	 xorps	 xmm0, xmm0

; 71   :         : _Data()

  00009	8d 46 04	 lea	 eax, DWORD PTR [esi+4]

; 73   :         __std_exception_copy(&_Other._Data, &_Data);

  0000c	50		 push	 eax
  0000d	c7 06 00 00 00
	00		 mov	 DWORD PTR [esi], OFFSET ??_7exception@std@@6B@
  00013	66 0f d6 00	 movq	 QWORD PTR [eax], xmm0
  00017	8b 45 08	 mov	 eax, DWORD PTR ___that$[ebp]
  0001a	83 c0 04	 add	 eax, 4
  0001d	50		 push	 eax
  0001e	e8 00 00 00 00	 call	 ___std_exception_copy
  00023	83 c4 08	 add	 esp, 8
  00026	c7 06 00 00 00
	00		 mov	 DWORD PTR [esi], OFFSET ??_7bad_array_new_length@std@@6B@
  0002c	8b c6		 mov	 eax, esi
  0002e	5e		 pop	 esi
  0002f	5d		 pop	 ebp
  00030	c2 04 00	 ret	 4
??0bad_array_new_length@std@@QAE@ABV01@@Z ENDP		; std::bad_array_new_length::bad_array_new_length
_TEXT	ENDS
; Function compile flags: /Ogtp
; File C:\Program Files (x86)\Microsoft Visual Studio\2019\Community\VC\Tools\MSVC\14.27.29110\include\vcruntime_exception.h
;	COMDAT ??1bad_array_new_length@std@@UAE@XZ
_TEXT	SEGMENT
??1bad_array_new_length@std@@UAE@XZ PROC		; std::bad_array_new_length::~bad_array_new_length, COMDAT
; _this$ = ecx

; 90   :         __std_exception_destroy(&_Data);

  00000	8d 41 04	 lea	 eax, DWORD PTR [ecx+4]
  00003	c7 01 00 00 00
	00		 mov	 DWORD PTR [ecx], OFFSET ??_7exception@std@@6B@
  00009	50		 push	 eax
  0000a	e8 00 00 00 00	 call	 ___std_exception_destroy
  0000f	59		 pop	 ecx
  00010	c3		 ret	 0
??1bad_array_new_length@std@@UAE@XZ ENDP		; std::bad_array_new_length::~bad_array_new_length
_TEXT	ENDS
; Function compile flags: /Ogtp
; File C:\Program Files (x86)\Microsoft Visual Studio\2019\Community\VC\Tools\MSVC\14.27.29110\include\vcruntime_exception.h
;	COMDAT ??0bad_array_new_length@std@@QAE@XZ
_TEXT	SEGMENT
??0bad_array_new_length@std@@QAE@XZ PROC		; std::bad_array_new_length::bad_array_new_length, COMDAT
; _this$ = ecx

; 141  :     {

  00000	0f 57 c0	 xorps	 xmm0, xmm0

; 142  :     }

  00003	8b c1		 mov	 eax, ecx

; 65   :         : _Data()

  00005	66 0f d6 41 04	 movq	 QWORD PTR [ecx+4], xmm0

; 66   :     {
; 67   :         _Data._What = _Message;

  0000a	c7 41 04 00 00
	00 00		 mov	 DWORD PTR [ecx+4], OFFSET ??_C@_0BF@KINCDENJ@bad?5array?5new?5length@

; 141  :     {

  00011	c7 01 00 00 00
	00		 mov	 DWORD PTR [ecx], OFFSET ??_7bad_array_new_length@std@@6B@

; 142  :     }

  00017	c3		 ret	 0
??0bad_array_new_length@std@@QAE@XZ ENDP		; std::bad_array_new_length::bad_array_new_length
_TEXT	ENDS
; Function compile flags: /Ogtp
; File C:\Program Files (x86)\Microsoft Visual Studio\2019\Community\VC\Tools\MSVC\14.27.29110\include\vcruntime_exception.h
;	COMDAT ??_Gbad_alloc@std@@UAEPAXI@Z
_TEXT	SEGMENT
___flags$ = 8						; size = 4
??_Gbad_alloc@std@@UAEPAXI@Z PROC			; std::bad_alloc::`scalar deleting destructor', COMDAT
; _this$ = ecx
  00000	55		 push	 ebp
  00001	8b ec		 mov	 ebp, esp

; 89   :     {

  00003	56		 push	 esi
  00004	8b f1		 mov	 esi, ecx

; 90   :         __std_exception_destroy(&_Data);

  00006	8d 46 04	 lea	 eax, DWORD PTR [esi+4]
  00009	c7 06 00 00 00
	00		 mov	 DWORD PTR [esi], OFFSET ??_7exception@std@@6B@
  0000f	50		 push	 eax
  00010	e8 00 00 00 00	 call	 ___std_exception_destroy
  00015	83 c4 04	 add	 esp, 4
  00018	f6 45 08 01	 test	 BYTE PTR ___flags$[ebp], 1
  0001c	74 0b		 je	 SHORT $LN9@scalar
  0001e	6a 0c		 push	 12			; 0000000cH
  00020	56		 push	 esi
  00021	e8 00 00 00 00	 call	 ??3@YAXPAXI@Z		; operator delete
  00026	83 c4 08	 add	 esp, 8
$LN9@scalar:
  00029	8b c6		 mov	 eax, esi
  0002b	5e		 pop	 esi
  0002c	5d		 pop	 ebp
  0002d	c2 04 00	 ret	 4
??_Gbad_alloc@std@@UAEPAXI@Z ENDP			; std::bad_alloc::`scalar deleting destructor'
_TEXT	ENDS
; Function compile flags: /Ogtp
; File C:\Program Files (x86)\Microsoft Visual Studio\2019\Community\VC\Tools\MSVC\14.27.29110\include\vcruntime_exception.h
;	COMDAT ??0bad_alloc@std@@QAE@ABV01@@Z
_TEXT	SEGMENT
___that$ = 8						; size = 4
??0bad_alloc@std@@QAE@ABV01@@Z PROC			; std::bad_alloc::bad_alloc, COMDAT
; _this$ = ecx
  00000	55		 push	 ebp
  00001	8b ec		 mov	 ebp, esp

; 72   :     {

  00003	56		 push	 esi
  00004	8b f1		 mov	 esi, ecx
  00006	0f 57 c0	 xorps	 xmm0, xmm0

; 71   :         : _Data()

  00009	8d 46 04	 lea	 eax, DWORD PTR [esi+4]

; 73   :         __std_exception_copy(&_Other._Data, &_Data);

  0000c	50		 push	 eax
  0000d	c7 06 00 00 00
	00		 mov	 DWORD PTR [esi], OFFSET ??_7exception@std@@6B@
  00013	66 0f d6 00	 movq	 QWORD PTR [eax], xmm0
  00017	8b 45 08	 mov	 eax, DWORD PTR ___that$[ebp]
  0001a	83 c0 04	 add	 eax, 4
  0001d	50		 push	 eax
  0001e	e8 00 00 00 00	 call	 ___std_exception_copy
  00023	83 c4 08	 add	 esp, 8
  00026	c7 06 00 00 00
	00		 mov	 DWORD PTR [esi], OFFSET ??_7bad_alloc@std@@6B@
  0002c	8b c6		 mov	 eax, esi
  0002e	5e		 pop	 esi
  0002f	5d		 pop	 ebp
  00030	c2 04 00	 ret	 4
??0bad_alloc@std@@QAE@ABV01@@Z ENDP			; std::bad_alloc::bad_alloc
_TEXT	ENDS
; Function compile flags: /Ogtp
; File C:\Program Files (x86)\Microsoft Visual Studio\2019\Community\VC\Tools\MSVC\14.27.29110\include\vcruntime_exception.h
;	COMDAT ??_Gexception@std@@UAEPAXI@Z
_TEXT	SEGMENT
___flags$ = 8						; size = 4
??_Gexception@std@@UAEPAXI@Z PROC			; std::exception::`scalar deleting destructor', COMDAT
; _this$ = ecx
  00000	55		 push	 ebp
  00001	8b ec		 mov	 ebp, esp

; 89   :     {

  00003	56		 push	 esi
  00004	8b f1		 mov	 esi, ecx

; 90   :         __std_exception_destroy(&_Data);

  00006	8d 46 04	 lea	 eax, DWORD PTR [esi+4]
  00009	c7 06 00 00 00
	00		 mov	 DWORD PTR [esi], OFFSET ??_7exception@std@@6B@
  0000f	50		 push	 eax
  00010	e8 00 00 00 00	 call	 ___std_exception_destroy
  00015	83 c4 04	 add	 esp, 4
  00018	f6 45 08 01	 test	 BYTE PTR ___flags$[ebp], 1
  0001c	74 0b		 je	 SHORT $LN6@scalar
  0001e	6a 0c		 push	 12			; 0000000cH
  00020	56		 push	 esi
  00021	e8 00 00 00 00	 call	 ??3@YAXPAXI@Z		; operator delete
  00026	83 c4 08	 add	 esp, 8
$LN6@scalar:
  00029	8b c6		 mov	 eax, esi
  0002b	5e		 pop	 esi
  0002c	5d		 pop	 ebp
  0002d	c2 04 00	 ret	 4
??_Gexception@std@@UAEPAXI@Z ENDP			; std::exception::`scalar deleting destructor'
_TEXT	ENDS
; Function compile flags: /Ogtp
; File C:\Program Files (x86)\Microsoft Visual Studio\2019\Community\VC\Tools\MSVC\14.27.29110\include\vcruntime_exception.h
;	COMDAT ?what@exception@std@@UBEPBDXZ
_TEXT	SEGMENT
?what@exception@std@@UBEPBDXZ PROC			; std::exception::what, COMDAT
; _this$ = ecx

; 95   :         return _Data._What ? _Data._What : "Unknown exception";

  00000	8b 49 04	 mov	 ecx, DWORD PTR [ecx+4]
  00003	b8 00 00 00 00	 mov	 eax, OFFSET ??_C@_0BC@EOODALEL@Unknown?5exception@
  00008	85 c9		 test	 ecx, ecx
  0000a	0f 45 c1	 cmovne	 eax, ecx

; 96   :     }

  0000d	c3		 ret	 0
?what@exception@std@@UBEPBDXZ ENDP			; std::exception::what
_TEXT	ENDS
; Function compile flags: /Ogtp
; File C:\Program Files (x86)\Microsoft Visual Studio\2019\Community\VC\Tools\MSVC\14.27.29110\include\vcruntime_exception.h
;	COMDAT ??1exception@std@@UAE@XZ
_TEXT	SEGMENT
??1exception@std@@UAE@XZ PROC				; std::exception::~exception, COMDAT
; _this$ = ecx

; 90   :         __std_exception_destroy(&_Data);

  00000	8d 41 04	 lea	 eax, DWORD PTR [ecx+4]
  00003	c7 01 00 00 00
	00		 mov	 DWORD PTR [ecx], OFFSET ??_7exception@std@@6B@
  00009	50		 push	 eax
  0000a	e8 00 00 00 00	 call	 ___std_exception_destroy
  0000f	59		 pop	 ecx

; 91   :     }

  00010	c3		 ret	 0
??1exception@std@@UAE@XZ ENDP				; std::exception::~exception
_TEXT	ENDS
; Function compile flags: /Ogtp
; File C:\Program Files (x86)\Microsoft Visual Studio\2019\Community\VC\Tools\MSVC\14.27.29110\include\vcruntime_exception.h
;	COMDAT ??0exception@std@@QAE@ABV01@@Z
_TEXT	SEGMENT
__Other$ = 8						; size = 4
??0exception@std@@QAE@ABV01@@Z PROC			; std::exception::exception, COMDAT
; _this$ = ecx

; 72   :     {

  00000	55		 push	 ebp
  00001	8b ec		 mov	 ebp, esp
  00003	56		 push	 esi
  00004	8b f1		 mov	 esi, ecx
  00006	0f 57 c0	 xorps	 xmm0, xmm0
  00009	8d 46 04	 lea	 eax, DWORD PTR [esi+4]

; 73   :         __std_exception_copy(&_Other._Data, &_Data);

  0000c	50		 push	 eax
  0000d	c7 06 00 00 00
	00		 mov	 DWORD PTR [esi], OFFSET ??_7exception@std@@6B@
  00013	66 0f d6 00	 movq	 QWORD PTR [eax], xmm0
  00017	8b 45 08	 mov	 eax, DWORD PTR __Other$[ebp]
  0001a	83 c0 04	 add	 eax, 4
  0001d	50		 push	 eax
  0001e	e8 00 00 00 00	 call	 ___std_exception_copy
  00023	83 c4 08	 add	 esp, 8

; 74   :     }

  00026	8b c6		 mov	 eax, esi
  00028	5e		 pop	 esi
  00029	5d		 pop	 ebp
  0002a	c2 04 00	 ret	 4
??0exception@std@@QAE@ABV01@@Z ENDP			; std::exception::exception
_TEXT	ENDS
END
