; Listing generated by Microsoft (R) Optimizing Compiler Version 19.27.29112.0 

	TITLE	C:\DS Project\DS Files\Source\ClientSource\Client\eterGrnLib\ModelInstanceUpdate.cpp
	.686P
	.XMM
	include listing.inc
	.model	flat

INCLUDELIB LIBCMT
INCLUDELIB OLDNAMES

PUBLIC	?Update@CGrannyModelInstance@@QAEXK@Z		; CGrannyModelInstance::Update
PUBLIC	?UpdateLocalTime@CGrannyModelInstance@@QAEXM@Z	; CGrannyModelInstance::UpdateLocalTime
PUBLIC	?UpdateTransform@CGrannyModelInstance@@QAEXPAUD3DXMATRIX@@M@Z ; CGrannyModelInstance::UpdateTransform
PUBLIC	?UpdateSkeleton@CGrannyModelInstance@@QAEXPBUD3DXMATRIX@@M@Z ; CGrannyModelInstance::UpdateSkeleton
PUBLIC	?Deform@CGrannyModelInstance@@QAEXPBUD3DXMATRIX@@@Z ; CGrannyModelInstance::Deform
PUBLIC	?UpdateWorldPose@CGrannyModelInstance@@IAEXXZ	; CGrannyModelInstance::UpdateWorldPose
PUBLIC	?UpdateWorldMatrices@CGrannyModelInstance@@IAEXPBUD3DXMATRIX@@@Z ; CGrannyModelInstance::UpdateWorldMatrices
PUBLIC	?DeformPNTVertices@CGrannyModelInstance@@IAEXPAX@Z ; CGrannyModelInstance::DeformPNTVertices
PUBLIC	??1CGrannyLocalPose@@UAE@XZ			; CGrannyLocalPose::~CGrannyLocalPose
PUBLIC	??_GCGrannyLocalPose@@UAEPAXI@Z			; CGrannyLocalPose::`scalar deleting destructor'
PUBLIC	??_C@_0EC@DKCFBIDP@CGrannyModelIstance?3?3UpdateTran@ ; `string'
PUBLIC	??_C@_0CI@PBPMOHGO@GRANNY?5DEFORM?5DYNAMIC?5BUFFER?5LO@ ; `string'
PUBLIC	??_7CGrannyLocalPose@@6B@			; CGrannyLocalPose::`vftable'
PUBLIC	??_R4CGrannyLocalPose@@6B@			; CGrannyLocalPose::`RTTI Complete Object Locator'
PUBLIC	??_R0?AVCGrannyLocalPose@@@8			; CGrannyLocalPose `RTTI Type Descriptor'
PUBLIC	??_R3CGrannyLocalPose@@8			; CGrannyLocalPose::`RTTI Class Hierarchy Descriptor'
PUBLIC	??_R2CGrannyLocalPose@@8			; CGrannyLocalPose::`RTTI Base Class Array'
PUBLIC	??_R1A@?0A@EA@CGrannyLocalPose@@8		; CGrannyLocalPose::`RTTI Base Class Descriptor at (0,-1,0,64)'
PUBLIC	__real@42f00000
EXTRN	??3@YAXPAXI@Z:PROC				; operator delete
EXTRN	_atexit:PROC
EXTRN	__Init_thread_header:PROC
EXTRN	__Init_thread_footer:PROC
EXTRN	__imp__GrannyGetSourceSkeleton@4:PROC
EXTRN	__imp__GrannySetModelClock@8:PROC
EXTRN	__imp__GrannyFreeCompletedModelControls@4:PROC
EXTRN	__imp__GrannySampleModelAnimationsAccelerated@20:PROC
EXTRN	__imp__GrannyUpdateModelMatrix@20:PROC
EXTRN	__imp__GrannyNewLocalPose@4:PROC
EXTRN	__imp__GrannyFreeLocalPose@4:PROC
EXTRN	__imp__GrannyGetWorldPoseComposite4x4Array@4:PROC
EXTRN	?TraceError@@YAXPBDZZ:PROC			; TraceError
EXTRN	_D3DXMatrixMultiply@12:PROC
EXTRN	?LockRange@CGraphicVertexBuffer@@QBE_NIPAPAX@Z:PROC ; CGraphicVertexBuffer::LockRange
EXTRN	?Unlock@CGraphicVertexBuffer@@QAE_NXZ:PROC	; CGraphicVertexBuffer::Unlock
EXTRN	?CanDeformPNTVertices@CGrannyMesh@@QBE_NXZ:PROC	; CGrannyMesh::CanDeformPNTVertices
EXTRN	?GetDeformVertexCount@CGrannyModel@@QBEHXZ:PROC	; CGrannyModel::GetDeformVertexCount
EXTRN	?CanDeformPNTVertices@CGrannyModel@@QBE_NXZ:PROC ; CGrannyModel::CanDeformPNTVertices
EXTRN	?DeformPNTVertices@CGrannyModel@@QBEXPAXPAUD3DXMATRIX@@ABV?$vector@PAUmesh_binding@granny@@V?$allocator@PAUmesh_binding@granny@@@std@@@std@@@Z:PROC ; CGrannyModel::DeformPNTVertices
EXTRN	?GetMeshCount@CGrannyModel@@QBEHXZ:PROC		; CGrannyModel::GetMeshCount
EXTRN	?GetMeshPointer@CGrannyModel@@QAEPAVCGrannyMesh@@H@Z:PROC ; CGrannyModel::GetMeshPointer
EXTRN	?IsEmpty@CGrannyModelInstance@@QAE_NXZ:PROC	; CGrannyModelInstance::IsEmpty
EXTRN	?GetLocalTime@CGrannyModelInstance@@QAEMXZ:PROC	; CGrannyModelInstance::GetLocalTime
EXTRN	?GetBoneMatrixPointer@CGrannyModelInstance@@QBEPBMH@Z:PROC ; CGrannyModelInstance::GetBoneMatrixPointer
EXTRN	?__GetMeshBoneIndices@CGrannyModelInstance@@IBEPBHI@Z:PROC ; CGrannyModelInstance::__GetMeshBoneIndices
EXTRN	?__GetDeformableVertexBufferRef@CGrannyModelInstance@@IAEAAVCGraphicVertexBuffer@@XZ:PROC ; CGrannyModelInstance::__GetDeformableVertexBufferRef
EXTRN	?__GetWorldPosePtr@CGrannyModelInstance@@IBEPAUworld_pose@granny@@XZ:PROC ; CGrannyModelInstance::__GetWorldPosePtr
EXTRN	??_ECGrannyLocalPose@@UAEPAXI@Z:PROC		; CGrannyLocalPose::`vector deleting destructor'
EXTRN	__ftoui3:PROC
EXTRN	__Init_thread_epoch:DWORD
EXTRN	??_7type_info@@6B@:QWORD			; type_info::`vftable'
EXTRN	__fltused:DWORD
EXTRN	__tls_array:DWORD
EXTRN	__tls_index:DWORD
;	COMDAT ?$TSS0@?1??UpdateWorldPose@CGrannyModelInstance@@IAEXXZ@4HA
_BSS	SEGMENT
?$TSS0@?1??UpdateWorldPose@CGrannyModelInstance@@IAEXXZ@4HA DD 01H DUP (?) ; `CGrannyModelInstance::UpdateWorldPose'::`2'::$TSS0
_BSS	ENDS
;	COMDAT __real@42f00000
CONST	SEGMENT
__real@42f00000 DD 042f00000r			; 120
CONST	ENDS
;	COMDAT ??_R1A@?0A@EA@CGrannyLocalPose@@8
rdata$r	SEGMENT
??_R1A@?0A@EA@CGrannyLocalPose@@8 DD FLAT:??_R0?AVCGrannyLocalPose@@@8 ; CGrannyLocalPose::`RTTI Base Class Descriptor at (0,-1,0,64)'
	DD	00H
	DD	00H
	DD	0ffffffffH
	DD	00H
	DD	040H
	DD	FLAT:??_R3CGrannyLocalPose@@8
rdata$r	ENDS
;	COMDAT ??_R2CGrannyLocalPose@@8
rdata$r	SEGMENT
??_R2CGrannyLocalPose@@8 DD FLAT:??_R1A@?0A@EA@CGrannyLocalPose@@8 ; CGrannyLocalPose::`RTTI Base Class Array'
rdata$r	ENDS
;	COMDAT ??_R3CGrannyLocalPose@@8
rdata$r	SEGMENT
??_R3CGrannyLocalPose@@8 DD 00H				; CGrannyLocalPose::`RTTI Class Hierarchy Descriptor'
	DD	00H
	DD	01H
	DD	FLAT:??_R2CGrannyLocalPose@@8
rdata$r	ENDS
;	COMDAT ??_R0?AVCGrannyLocalPose@@@8
data$r	SEGMENT
??_R0?AVCGrannyLocalPose@@@8 DD FLAT:??_7type_info@@6B@	; CGrannyLocalPose `RTTI Type Descriptor'
	DD	00H
	DB	'.?AVCGrannyLocalPose@@', 00H
data$r	ENDS
;	COMDAT ??_R4CGrannyLocalPose@@6B@
rdata$r	SEGMENT
??_R4CGrannyLocalPose@@6B@ DD 00H			; CGrannyLocalPose::`RTTI Complete Object Locator'
	DD	00H
	DD	00H
	DD	FLAT:??_R0?AVCGrannyLocalPose@@@8
	DD	FLAT:??_R3CGrannyLocalPose@@8
rdata$r	ENDS
;	COMDAT ?s_SharedLocalPose@?1??UpdateWorldPose@CGrannyModelInstance@@IAEXXZ@4VCGrannyLocalPose@@A
_DATA	SEGMENT
?s_SharedLocalPose@?1??UpdateWorldPose@CGrannyModelInstance@@IAEXXZ@4VCGrannyLocalPose@@A DD FLAT:??_7CGrannyLocalPose@@6B@ ; `CGrannyModelInstance::UpdateWorldPose'::`2'::s_SharedLocalPose
	DD	00H
	DD	00H
_DATA	ENDS
;	COMDAT ??_7CGrannyLocalPose@@6B@
CONST	SEGMENT
??_7CGrannyLocalPose@@6B@ DD FLAT:??_R4CGrannyLocalPose@@6B@ ; CGrannyLocalPose::`vftable'
	DD	FLAT:??_ECGrannyLocalPose@@UAEPAXI@Z
CONST	ENDS
;	COMDAT ??_C@_0CI@PBPMOHGO@GRANNY?5DEFORM?5DYNAMIC?5BUFFER?5LO@
CONST	SEGMENT
??_C@_0CI@PBPMOHGO@GRANNY?5DEFORM?5DYNAMIC?5BUFFER?5LO@ DB 'GRANNY DEFORM'
	DB	' DYNAMIC BUFFER LOCK ERROR', 00H		; `string'
CONST	ENDS
;	COMDAT ??_C@_0EC@DKCFBIDP@CGrannyModelIstance?3?3UpdateTran@
CONST	SEGMENT
??_C@_0EC@DKCFBIDP@CGrannyModelIstance?3?3UpdateTran@ DB 'CGrannyModelIst'
	DB	'ance::UpdateTransform - m_pgrnModelInstance = NULL', 00H ; `string'
CONST	ENDS
; Function compile flags: /Ogtp
; File C:\DS Project\DS Files\Source\ClientSource\Client\eterGrnLib\ModelInstanceUpdate.cpp
;	COMDAT ??__Fs_SharedLocalPose@?1??UpdateWorldPose@CGrannyModelInstance@@IAEXXZ@YAXXZ
text$yd	SEGMENT
??__Fs_SharedLocalPose@?1??UpdateWorldPose@CGrannyModelInstance@@IAEXXZ@YAXXZ PROC ; `CGrannyModelInstance::UpdateWorldPose'::`2'::`dynamic atexit destructor for 's_SharedLocalPose'', COMDAT

; 103  : 			if (m_pgrnLocalPose)

  00000	a1 04 00 00 00	 mov	 eax, DWORD PTR ?s_SharedLocalPose@?1??UpdateWorldPose@CGrannyModelInstance@@IAEXXZ@4VCGrannyLocalPose@@A+4
  00005	c7 05 00 00 00
	00 00 00 00 00	 mov	 DWORD PTR ?s_SharedLocalPose@?1??UpdateWorldPose@CGrannyModelInstance@@IAEXXZ@4VCGrannyLocalPose@@A, OFFSET ??_7CGrannyLocalPose@@6B@
  0000f	85 c0		 test	 eax, eax
  00011	74 07		 je	 SHORT $LN4@dynamic

; 104  : 				GrannyFreeLocalPose(m_pgrnLocalPose);

  00013	50		 push	 eax
  00014	ff 15 00 00 00
	00		 call	 DWORD PTR __imp__GrannyFreeLocalPose@4
$LN4@dynamic:
  0001a	c3		 ret	 0
??__Fs_SharedLocalPose@?1??UpdateWorldPose@CGrannyModelInstance@@IAEXXZ@YAXXZ ENDP ; `CGrannyModelInstance::UpdateWorldPose'::`2'::`dynamic atexit destructor for 's_SharedLocalPose''
text$yd	ENDS
; Function compile flags: /Ogtp
; File C:\DS Project\DS Files\Source\ClientSource\Client\eterGrnLib\ModelInstanceUpdate.cpp
;	COMDAT ??_GCGrannyLocalPose@@UAEPAXI@Z
_TEXT	SEGMENT
___flags$ = 8						; size = 4
??_GCGrannyLocalPose@@UAEPAXI@Z PROC			; CGrannyLocalPose::`scalar deleting destructor', COMDAT
; _this$ = ecx
  00000	55		 push	 ebp
  00001	8b ec		 mov	 ebp, esp

; 102  : 		{

  00003	56		 push	 esi
  00004	8b f1		 mov	 esi, ecx

; 103  : 			if (m_pgrnLocalPose)

  00006	8b 46 04	 mov	 eax, DWORD PTR [esi+4]
  00009	c7 06 00 00 00
	00		 mov	 DWORD PTR [esi], OFFSET ??_7CGrannyLocalPose@@6B@
  0000f	85 c0		 test	 eax, eax
  00011	74 07		 je	 SHORT $LN5@scalar

; 104  : 				GrannyFreeLocalPose(m_pgrnLocalPose);

  00013	50		 push	 eax
  00014	ff 15 00 00 00
	00		 call	 DWORD PTR __imp__GrannyFreeLocalPose@4
$LN5@scalar:
  0001a	f6 45 08 01	 test	 BYTE PTR ___flags$[ebp], 1
  0001e	74 0b		 je	 SHORT $LN7@scalar
  00020	6a 0c		 push	 12			; 0000000cH
  00022	56		 push	 esi
  00023	e8 00 00 00 00	 call	 ??3@YAXPAXI@Z		; operator delete
  00028	83 c4 08	 add	 esp, 8
$LN7@scalar:
  0002b	8b c6		 mov	 eax, esi
  0002d	5e		 pop	 esi
  0002e	5d		 pop	 ebp
  0002f	c2 04 00	 ret	 4
??_GCGrannyLocalPose@@UAEPAXI@Z ENDP			; CGrannyLocalPose::`scalar deleting destructor'
_TEXT	ENDS
; Function compile flags: /Ogtp
; File C:\DS Project\DS Files\Source\ClientSource\Client\eterGrnLib\ModelInstanceUpdate.cpp
;	COMDAT ??1CGrannyLocalPose@@UAE@XZ
_TEXT	SEGMENT
??1CGrannyLocalPose@@UAE@XZ PROC			; CGrannyLocalPose::~CGrannyLocalPose, COMDAT
; _this$ = ecx

; 103  : 			if (m_pgrnLocalPose)

  00000	8b 41 04	 mov	 eax, DWORD PTR [ecx+4]
  00003	c7 01 00 00 00
	00		 mov	 DWORD PTR [ecx], OFFSET ??_7CGrannyLocalPose@@6B@
  00009	85 c0		 test	 eax, eax
  0000b	74 07		 je	 SHORT $LN2@CGrannyLoc

; 104  : 				GrannyFreeLocalPose(m_pgrnLocalPose);

  0000d	50		 push	 eax
  0000e	ff 15 00 00 00
	00		 call	 DWORD PTR __imp__GrannyFreeLocalPose@4
$LN2@CGrannyLoc:

; 105  : 		}

  00014	c3		 ret	 0
??1CGrannyLocalPose@@UAE@XZ ENDP			; CGrannyLocalPose::~CGrannyLocalPose
_TEXT	ENDS
; Function compile flags: /Ogtp
; File C:\DS Project\DS Files\Source\ClientSource\Client\eterGrnLib\ModelInstanceUpdate.cpp
;	COMDAT ?DeformPNTVertices@CGrannyModelInstance@@IAEXPAX@Z
_TEXT	SEGMENT
_pvDest$ = 8						; size = 4
?DeformPNTVertices@CGrannyModelInstance@@IAEXPAX@Z PROC	; CGrannyModelInstance::DeformPNTVertices, COMDAT
; _this$ = ecx

; 218  : {

  00000	55		 push	 ebp
  00001	8b ec		 mov	 ebp, esp
  00003	56		 push	 esi
  00004	8b f1		 mov	 esi, ecx

; 219  : 	assert(m_pModel != NULL);
; 220  : 	assert(m_pModel->CanDeformPNTVertices());
; 221  : 
; 222  : 	// WORK
; 223  : 	m_pModel->DeformPNTVertices(pvDest, (D3DXMATRIX *) GrannyGetWorldPoseComposite4x4Array(__GetWorldPosePtr()), m_vct_pgrnMeshBinding);

  00006	8d 46 40	 lea	 eax, DWORD PTR [esi+64]
  00009	50		 push	 eax
  0000a	e8 00 00 00 00	 call	 ?__GetWorldPosePtr@CGrannyModelInstance@@IBEPAUworld_pose@granny@@XZ ; CGrannyModelInstance::__GetWorldPosePtr
  0000f	50		 push	 eax
  00010	ff 15 00 00 00
	00		 call	 DWORD PTR __imp__GrannyGetWorldPoseComposite4x4Array@4
  00016	8b 4e 04	 mov	 ecx, DWORD PTR [esi+4]
  00019	50		 push	 eax
  0001a	ff 75 08	 push	 DWORD PTR _pvDest$[ebp]
  0001d	e8 00 00 00 00	 call	 ?DeformPNTVertices@CGrannyModel@@QBEXPAXPAUD3DXMATRIX@@ABV?$vector@PAUmesh_binding@granny@@V?$allocator@PAUmesh_binding@granny@@@std@@@std@@@Z ; CGrannyModel::DeformPNTVertices
  00022	5e		 pop	 esi

; 224  : 	// END_OF_WORK
; 225  : }

  00023	5d		 pop	 ebp
  00024	c2 04 00	 ret	 4
?DeformPNTVertices@CGrannyModelInstance@@IAEXPAX@Z ENDP	; CGrannyModelInstance::DeformPNTVertices
_TEXT	ENDS
; Function compile flags: /Ogtp
; File C:\DS Project\DS Files\Source\ClientSource\Client\eterGrnLib\ModelInstanceUpdate.cpp
;	COMDAT ?UpdateWorldMatrices@CGrannyModelInstance@@IAEXPBUD3DXMATRIX@@@Z
_TEXT	SEGMENT
_meshCount$1$ = -20					; size = 4
_boneMatrices$1$ = -16					; size = 4
_boneIndices$1$ = -12					; size = 4
_this$1$ = -8						; size = 4
tv183 = -4						; size = 4
_c_pWorldMatrix$ = 8					; size = 4
?UpdateWorldMatrices@CGrannyModelInstance@@IAEXPBUD3DXMATRIX@@@Z PROC ; CGrannyModelInstance::UpdateWorldMatrices, COMDAT
; _this$ = ecx

; 164  : {

  00000	55		 push	 ebp
  00001	8b ec		 mov	 ebp, esp
  00003	83 ec 14	 sub	 esp, 20			; 00000014H
  00006	57		 push	 edi
  00007	8b f9		 mov	 edi, ecx
  00009	89 7d f8	 mov	 DWORD PTR _this$1$[ebp], edi

; 165  : 	// NO_MESH_BUG_FIX
; 166  : 	if (!m_meshMatrices)

  0000c	83 7f 14 00	 cmp	 DWORD PTR [edi+20], 0
  00010	0f 84 9e 00 00
	00		 je	 $LN3@UpdateWorl

; 167  : 		return;
; 168  : 	// END_OF_NO_MESH_BUG_FIX
; 169  : 
; 170  : 	assert(m_pModel != NULL);
; 171  : 	assert(ms_lpd3dMatStack != NULL);
; 172  : 
; 173  : 	int meshCount = m_pModel->GetMeshCount();

  00016	8b 4f 04	 mov	 ecx, DWORD PTR [edi+4]
  00019	53		 push	 ebx
  0001a	56		 push	 esi
  0001b	e8 00 00 00 00	 call	 ?GetMeshCount@CGrannyModel@@QBEHXZ ; CGrannyModel::GetMeshCount
  00020	8b f0		 mov	 esi, eax

; 174  : 
; 175  : 	granny_matrix_4x4 * pgrnMatCompositeBuffer = GrannyGetWorldPoseComposite4x4Array(__GetWorldPosePtr());

  00022	8b cf		 mov	 ecx, edi
  00024	89 75 ec	 mov	 DWORD PTR _meshCount$1$[ebp], esi
  00027	e8 00 00 00 00	 call	 ?__GetWorldPosePtr@CGrannyModelInstance@@IBEPAUworld_pose@granny@@XZ ; CGrannyModelInstance::__GetWorldPosePtr
  0002c	50		 push	 eax
  0002d	ff 15 00 00 00
	00		 call	 DWORD PTR __imp__GrannyGetWorldPoseComposite4x4Array@4
  00033	33 db		 xor	 ebx, ebx

; 176  : 	D3DXMATRIX * boneMatrices = (D3DXMATRIX *) pgrnMatCompositeBuffer;

  00035	89 45 f0	 mov	 DWORD PTR _boneMatrices$1$[ebp], eax

; 177  : 
; 178  : 	for (int i = 0; i < meshCount; ++i)

  00038	85 f6		 test	 esi, esi
  0003a	7e 76		 jle	 SHORT $LN13@UpdateWorl

; 167  : 		return;
; 168  : 	// END_OF_NO_MESH_BUG_FIX
; 169  : 
; 170  : 	assert(m_pModel != NULL);
; 171  : 	assert(ms_lpd3dMatStack != NULL);
; 172  : 
; 173  : 	int meshCount = m_pModel->GetMeshCount();

  0003c	33 c0		 xor	 eax, eax
  0003e	89 45 fc	 mov	 DWORD PTR tv183[ebp], eax
$LL4@UpdateWorl:

; 179  : 	{
; 180  : 		D3DXMATRIX & rWorldMatrix = m_meshMatrices[i];

  00041	8b 77 14	 mov	 esi, DWORD PTR [edi+20]

; 181  : 
; 182  : 		const CGrannyMesh * pMesh = m_pModel->GetMeshPointer(i);

  00044	8b 4f 04	 mov	 ecx, DWORD PTR [edi+4]
  00047	03 f0		 add	 esi, eax
  00049	53		 push	 ebx
  0004a	e8 00 00 00 00	 call	 ?GetMeshPointer@CGrannyModel@@QAEPAVCGrannyMesh@@H@Z ; CGrannyModel::GetMeshPointer

; 183  : 
; 184  : 		// WORK
; 185  : 
; 186  : #if GrannyProductMinorVersion==4
; 187  : 		int * boneIndices = __GetMeshBoneIndices(i);
; 188  : #elif GrannyProductMinorVersion==11 || GrannyProductMinorVersion==9 || GrannyProductMinorVersion==8 || GrannyProductMinorVersion==7
; 189  : 		const granny_int32x * boneIndices = __GetMeshBoneIndices(i);

  0004f	8b 4d f8	 mov	 ecx, DWORD PTR _this$1$[ebp]
  00052	8b f8		 mov	 edi, eax
  00054	53		 push	 ebx
  00055	e8 00 00 00 00	 call	 ?__GetMeshBoneIndices@CGrannyModelInstance@@IBEPBHI@Z ; CGrannyModelInstance::__GetMeshBoneIndices

; 190  : #else
; 191  : #error "unknown granny version"
; 192  : #endif
; 193  : 		// END_OF_WORK
; 194  : 
; 195  : 		if (pMesh->CanDeformPNTVertices())

  0005a	8b cf		 mov	 ecx, edi
  0005c	89 45 f4	 mov	 DWORD PTR _boneIndices$1$[ebp], eax
  0005f	e8 00 00 00 00	 call	 ?CanDeformPNTVertices@CGrannyMesh@@QBE_NXZ ; CGrannyMesh::CanDeformPNTVertices
  00064	84 c0		 test	 al, al
  00066	74 23		 je	 SHORT $LN6@UpdateWorl

; 196  : 		{
; 197  : 			rWorldMatrix = *c_pWorldMatrix;

  00068	8b 45 08	 mov	 eax, DWORD PTR _c_pWorldMatrix$[ebp]
  0006b	0f 10 00	 movups	 xmm0, XMMWORD PTR [eax]
  0006e	0f 11 06	 movups	 XMMWORD PTR [esi], xmm0
  00071	0f 10 40 10	 movups	 xmm0, XMMWORD PTR [eax+16]
  00075	0f 11 46 10	 movups	 XMMWORD PTR [esi+16], xmm0
  00079	0f 10 40 20	 movups	 xmm0, XMMWORD PTR [eax+32]
  0007d	0f 11 46 20	 movups	 XMMWORD PTR [esi+32], xmm0
  00081	0f 10 40 30	 movups	 xmm0, XMMWORD PTR [eax+48]
  00085	0f 11 46 30	 movups	 XMMWORD PTR [esi+48], xmm0

; 198  : 		}

  00089	eb 15		 jmp	 SHORT $LN2@UpdateWorl
$LN6@UpdateWorl:

; 199  : 		else
; 200  : 		{
; 201  : #if GrannyProductMinorVersion==4
; 202  : 			int iBone = *boneIndices;
; 203  : #elif GrannyProductMinorVersion==11 || GrannyProductMinorVersion==11 || GrannyProductMinorVersion==9 || GrannyProductMinorVersion==8 || GrannyProductMinorVersion==7
; 204  : 			const granny_int32x iBone = *boneIndices;
; 205  : #else
; 206  : #error "unknown granny version"
; 207  : #endif
; 208  : 			D3DXMatrixMultiply(&rWorldMatrix, &boneMatrices[iBone], c_pWorldMatrix);

  0008b	8b 45 f4	 mov	 eax, DWORD PTR _boneIndices$1$[ebp]
  0008e	ff 75 08	 push	 DWORD PTR _c_pWorldMatrix$[ebp]
  00091	8b 00		 mov	 eax, DWORD PTR [eax]
  00093	c1 e0 06	 shl	 eax, 6
  00096	03 45 f0	 add	 eax, DWORD PTR _boneMatrices$1$[ebp]
  00099	50		 push	 eax
  0009a	56		 push	 esi
  0009b	e8 00 00 00 00	 call	 _D3DXMatrixMultiply@12
$LN2@UpdateWorl:

; 177  : 
; 178  : 	for (int i = 0; i < meshCount; ++i)

  000a0	8b 45 fc	 mov	 eax, DWORD PTR tv183[ebp]
  000a3	43		 inc	 ebx
  000a4	8b 7d f8	 mov	 edi, DWORD PTR _this$1$[ebp]
  000a7	83 c0 40	 add	 eax, 64			; 00000040H
  000aa	89 45 fc	 mov	 DWORD PTR tv183[ebp], eax
  000ad	3b 5d ec	 cmp	 ebx, DWORD PTR _meshCount$1$[ebp]
  000b0	7c 8f		 jl	 SHORT $LL4@UpdateWorl
$LN13@UpdateWorl:
  000b2	5e		 pop	 esi
  000b3	5b		 pop	 ebx
$LN3@UpdateWorl:
  000b4	5f		 pop	 edi

; 209  : 		}
; 210  : 	}
; 211  : 
; 212  : #ifdef _TEST
; 213  : 	TEST_matWorld = *c_pWorldMatrix;
; 214  : #endif
; 215  : }

  000b5	8b e5		 mov	 esp, ebp
  000b7	5d		 pop	 ebp
  000b8	c2 04 00	 ret	 4
?UpdateWorldMatrices@CGrannyModelInstance@@IAEXPBUD3DXMATRIX@@@Z ENDP ; CGrannyModelInstance::UpdateWorldMatrices
_TEXT	ENDS
; Function compile flags: /Ogtp
; File C:\DS Project\DS Files\Source\ClientSource\Client\eterGrnLib\ModelInstanceUpdate.cpp
;	COMDAT ?UpdateWorldPose@CGrannyModelInstance@@IAEXXZ
_TEXT	SEGMENT
_pgrnSkeleton$1$ = -4					; size = 4
?UpdateWorldPose@CGrannyModelInstance@@IAEXXZ PROC	; CGrannyModelInstance::UpdateWorldPose, COMDAT
; _this$ = ecx

; 138  : {

  00000	55		 push	 ebp
  00001	8b ec		 mov	 ebp, esp
  00003	51		 push	 ecx
  00004	56		 push	 esi
  00005	8b f1		 mov	 esi, ecx

; 139  : 	// WEP	= m_iParentBoneIndex != 0 -> UpdateWorldPose(O)
; 140  : 	// LOD	= UpdateWorldPose(O)
; 141  : 	// Hair	= UpdateWorldPose(X)
; 142  : 
; 143  : 	if (m_ppkSkeletonInst)

  00007	8b 46 74	 mov	 eax, DWORD PTR [esi+116]
  0000a	85 c0		 test	 eax, eax
  0000c	74 08		 je	 SHORT $LN4@UpdateWorl

; 144  : 		if (*m_ppkSkeletonInst!=this)

  0000e	39 30		 cmp	 DWORD PTR [eax], esi
  00010	0f 85 94 00 00
	00		 jne	 $LN1@UpdateWorl
$LN4@UpdateWorl:

; 145  : 			return;
; 146  : 
; 147  : 	static CGrannyLocalPose s_SharedLocalPose;

  00016	64 a1 00 00 00
	00		 mov	 eax, DWORD PTR fs:__tls_array
  0001c	8b 0d 00 00 00
	00		 mov	 ecx, DWORD PTR __tls_index
  00022	8b 0c 88	 mov	 ecx, DWORD PTR [eax+ecx*4]
  00025	a1 00 00 00 00	 mov	 eax, DWORD PTR ?$TSS0@?1??UpdateWorldPose@CGrannyModelInstance@@IAEXXZ@4HA
  0002a	3b 81 00 00 00
	00		 cmp	 eax, DWORD PTR __Init_thread_epoch[ecx]
  00030	7f 7d		 jg	 SHORT $LN16@UpdateWorl
$LN2@UpdateWorl:
  00032	53		 push	 ebx
  00033	57		 push	 edi

; 148  : 
; 149  : 	granny_skeleton * pgrnSkeleton = GrannyGetSourceSkeleton(m_pgrnModelInstance);

  00034	ff 76 08	 push	 DWORD PTR [esi+8]
  00037	ff 15 00 00 00
	00		 call	 DWORD PTR __imp__GrannyGetSourceSkeleton@4

; 109  : 			if (m_pgrnLocalPose)

  0003d	8b 3d 04 00 00
	00		 mov	 edi, DWORD PTR ?s_SharedLocalPose@?1??UpdateWorldPose@CGrannyModelInstance@@IAEXXZ@4VCGrannyLocalPose@@A+4

; 148  : 
; 149  : 	granny_skeleton * pgrnSkeleton = GrannyGetSourceSkeleton(m_pgrnModelInstance);

  00043	89 45 fc	 mov	 DWORD PTR _pgrnSkeleton$1$[ebp], eax

; 150  : 	granny_local_pose * pgrnLocalPose = s_SharedLocalPose.Get(pgrnSkeleton->BoneCount);

  00046	8b 58 04	 mov	 ebx, DWORD PTR [eax+4]

; 109  : 			if (m_pgrnLocalPose)

  00049	85 ff		 test	 edi, edi
  0004b	74 0f		 je	 SHORT $LN12@UpdateWorl

; 110  : 			{
; 111  : 				if (m_boneCount >= boneCount)

  0004d	39 1d 08 00 00
	00		 cmp	 DWORD PTR ?s_SharedLocalPose@?1??UpdateWorldPose@CGrannyModelInstance@@IAEXXZ@4VCGrannyLocalPose@@A+8, ebx
  00053	7d 1c		 jge	 SHORT $LN11@UpdateWorl

; 112  : 					return m_pgrnLocalPose;
; 113  : 
; 114  : 				GrannyFreeLocalPose(m_pgrnLocalPose);

  00055	57		 push	 edi
  00056	ff 15 00 00 00
	00		 call	 DWORD PTR __imp__GrannyFreeLocalPose@4
$LN12@UpdateWorl:

; 115  : 			}
; 116  : 
; 117  : 			m_boneCount = boneCount;
; 118  : 			m_pgrnLocalPose = GrannyNewLocalPose(m_boneCount);

  0005c	53		 push	 ebx
  0005d	89 1d 08 00 00
	00		 mov	 DWORD PTR ?s_SharedLocalPose@?1??UpdateWorldPose@CGrannyModelInstance@@IAEXXZ@4VCGrannyLocalPose@@A+8, ebx
  00063	ff 15 00 00 00
	00		 call	 DWORD PTR __imp__GrannyNewLocalPose@4
  00069	8b f8		 mov	 edi, eax
  0006b	89 3d 04 00 00
	00		 mov	 DWORD PTR ?s_SharedLocalPose@?1??UpdateWorldPose@CGrannyModelInstance@@IAEXXZ@4VCGrannyLocalPose@@A+4, edi
$LN11@UpdateWorl:

; 151  : 
; 152  : 	const float * pAttachBoneMatrix = (mc_pParentInstance) ? mc_pParentInstance->GetBoneMatrixPointer(m_iParentBoneIndex) : NULL;

  00071	8b 4e 18	 mov	 ecx, DWORD PTR [esi+24]
  00074	85 c9		 test	 ecx, ecx
  00076	74 0c		 je	 SHORT $LN6@UpdateWorl
  00078	ff 76 1c	 push	 DWORD PTR [esi+28]
  0007b	e8 00 00 00 00	 call	 ?GetBoneMatrixPointer@CGrannyModelInstance@@QBEPBMH@Z ; CGrannyModelInstance::GetBoneMatrixPointer
  00080	8b d8		 mov	 ebx, eax
  00082	eb 02		 jmp	 SHORT $LN7@UpdateWorl
$LN6@UpdateWorl:
  00084	33 db		 xor	 ebx, ebx
$LN7@UpdateWorl:

; 153  : 
; 154  : 	GrannySampleModelAnimationsAccelerated(m_pgrnModelInstance, pgrnSkeleton->BoneCount, pAttachBoneMatrix, pgrnLocalPose, __GetWorldPosePtr());

  00086	8b ce		 mov	 ecx, esi
  00088	e8 00 00 00 00	 call	 ?__GetWorldPosePtr@CGrannyModelInstance@@IBEPAUworld_pose@granny@@XZ ; CGrannyModelInstance::__GetWorldPosePtr
  0008d	50		 push	 eax
  0008e	8b 45 fc	 mov	 eax, DWORD PTR _pgrnSkeleton$1$[ebp]
  00091	57		 push	 edi
  00092	53		 push	 ebx
  00093	ff 70 04	 push	 DWORD PTR [eax+4]
  00096	ff 76 08	 push	 DWORD PTR [esi+8]
  00099	ff 15 00 00 00
	00		 call	 DWORD PTR __imp__GrannySampleModelAnimationsAccelerated@20

; 155  : 	/*
; 156  : 	GrannySampleModelAnimations(m_pgrnModelInstance, 0, pgrnSkeleton->BoneCount, pgrnLocalPose);
; 157  : 	GrannyBuildWorldPose(pgrnSkeleton, 0, pgrnSkeleton->BoneCount, pgrnLocalPose, pAttachBoneMatrix, m_pgrnWorldPose);
; 158  : 	*/
; 159  : 	GrannyFreeCompletedModelControls(m_pgrnModelInstance);

  0009f	ff 76 08	 push	 DWORD PTR [esi+8]
  000a2	ff 15 00 00 00
	00		 call	 DWORD PTR __imp__GrannyFreeCompletedModelControls@4
  000a8	5f		 pop	 edi
  000a9	5b		 pop	 ebx
$LN1@UpdateWorl:
  000aa	5e		 pop	 esi

; 160  : 
; 161  : }

  000ab	8b e5		 mov	 esp, ebp
  000ad	5d		 pop	 ebp
  000ae	c3		 ret	 0
$LN16@UpdateWorl:

; 145  : 			return;
; 146  : 
; 147  : 	static CGrannyLocalPose s_SharedLocalPose;

  000af	68 00 00 00 00	 push	 OFFSET ?$TSS0@?1??UpdateWorldPose@CGrannyModelInstance@@IAEXXZ@4HA
  000b4	e8 00 00 00 00	 call	 __Init_thread_header
  000b9	83 c4 04	 add	 esp, 4
  000bc	83 3d 00 00 00
	00 ff		 cmp	 DWORD PTR ?$TSS0@?1??UpdateWorldPose@CGrannyModelInstance@@IAEXXZ@4HA, -1
  000c3	0f 85 69 ff ff
	ff		 jne	 $LN2@UpdateWorl
  000c9	68 00 00 00 00	 push	 OFFSET ??__Fs_SharedLocalPose@?1??UpdateWorldPose@CGrannyModelInstance@@IAEXXZ@YAXXZ ; `CGrannyModelInstance::UpdateWorldPose'::`2'::`dynamic atexit destructor for 's_SharedLocalPose''
  000ce	e8 00 00 00 00	 call	 _atexit
  000d3	68 00 00 00 00	 push	 OFFSET ?$TSS0@?1??UpdateWorldPose@CGrannyModelInstance@@IAEXXZ@4HA
  000d8	e8 00 00 00 00	 call	 __Init_thread_footer
  000dd	83 c4 08	 add	 esp, 8
  000e0	e9 4d ff ff ff	 jmp	 $LN2@UpdateWorl
?UpdateWorldPose@CGrannyModelInstance@@IAEXXZ ENDP	; CGrannyModelInstance::UpdateWorldPose
_TEXT	ENDS
; Function compile flags: /Ogtp
; File C:\DS Project\DS Files\Source\ClientSource\Client\eterGrnLib\ModelInstanceUpdate.cpp
;	COMDAT ?Deform@CGrannyModelInstance@@QAEXPBUD3DXMATRIX@@@Z
_TEXT	SEGMENT
_pntVertices$1 = 8					; size = 4
_c_pWorldMatrix$ = 8					; size = 4
?Deform@CGrannyModelInstance@@QAEXPBUD3DXMATRIX@@@Z PROC ; CGrannyModelInstance::Deform, COMDAT
; _this$ = ecx

; 62   : {

  00000	55		 push	 ebp
  00001	8b ec		 mov	 ebp, esp
  00003	56		 push	 esi
  00004	8b f1		 mov	 esi, ecx

; 63   : 	if (IsEmpty())

  00006	e8 00 00 00 00	 call	 ?IsEmpty@CGrannyModelInstance@@QAE_NXZ ; CGrannyModelInstance::IsEmpty
  0000b	84 c0		 test	 al, al
  0000d	75 64		 jne	 SHORT $LN5@Deform

; 64   : 		return;
; 65   : 
; 66   : 	// DELETED
; 67   : 	//m_pgrnWorldPose = m_pgrnWorldPoseReal;
; 68   : 	/////////////////////////////////////////////
; 69   : 
; 70   : 	UpdateWorldPose();

  0000f	8b ce		 mov	 ecx, esi
  00011	e8 00 00 00 00	 call	 ?UpdateWorldPose@CGrannyModelInstance@@IAEXXZ ; CGrannyModelInstance::UpdateWorldPose

; 71   : 	UpdateWorldMatrices(c_pWorldMatrix);

  00016	ff 75 08	 push	 DWORD PTR _c_pWorldMatrix$[ebp]
  00019	8b ce		 mov	 ecx, esi
  0001b	e8 00 00 00 00	 call	 ?UpdateWorldMatrices@CGrannyModelInstance@@IAEXPBUD3DXMATRIX@@@Z ; CGrannyModelInstance::UpdateWorldMatrices

; 72   : 
; 73   : 	if (m_pModel->CanDeformPNTVertices())

  00020	8b 4e 04	 mov	 ecx, DWORD PTR [esi+4]
  00023	e8 00 00 00 00	 call	 ?CanDeformPNTVertices@CGrannyModel@@QBE_NXZ ; CGrannyModel::CanDeformPNTVertices
  00028	84 c0		 test	 al, al
  0002a	74 47		 je	 SHORT $LN5@Deform

; 74   : 	{
; 75   : 		// WORK
; 76   : 		CGraphicVertexBuffer& rkDeformableVertexBuffer = __GetDeformableVertexBufferRef();

  0002c	57		 push	 edi
  0002d	8b ce		 mov	 ecx, esi
  0002f	e8 00 00 00 00	 call	 ?__GetDeformableVertexBufferRef@CGrannyModelInstance@@IAEAAVCGraphicVertexBuffer@@XZ ; CGrannyModelInstance::__GetDeformableVertexBufferRef

; 77   : 		TPNTVertex* pntVertices;
; 78   : 		if (rkDeformableVertexBuffer.LockRange(m_pModel->GetDeformVertexCount(), (void **)&pntVertices))

  00034	8b 4e 04	 mov	 ecx, DWORD PTR [esi+4]
  00037	8b f8		 mov	 edi, eax
  00039	8d 45 08	 lea	 eax, DWORD PTR _pntVertices$1[ebp]
  0003c	50		 push	 eax
  0003d	e8 00 00 00 00	 call	 ?GetDeformVertexCount@CGrannyModel@@QBEHXZ ; CGrannyModel::GetDeformVertexCount
  00042	50		 push	 eax
  00043	8b cf		 mov	 ecx, edi
  00045	e8 00 00 00 00	 call	 ?LockRange@CGraphicVertexBuffer@@QBE_NIPAPAX@Z ; CGraphicVertexBuffer::LockRange
  0004a	84 c0		 test	 al, al
  0004c	74 17		 je	 SHORT $LN4@Deform

; 79   : 		{
; 80   : 			DeformPNTVertices(pntVertices);

  0004e	ff 75 08	 push	 DWORD PTR _pntVertices$1[ebp]
  00051	8b ce		 mov	 ecx, esi
  00053	e8 00 00 00 00	 call	 ?DeformPNTVertices@CGrannyModelInstance@@IAEXPAX@Z ; CGrannyModelInstance::DeformPNTVertices

; 81   : 			rkDeformableVertexBuffer.Unlock();

  00058	8b cf		 mov	 ecx, edi
  0005a	e8 00 00 00 00	 call	 ?Unlock@CGraphicVertexBuffer@@QAE_NXZ ; CGraphicVertexBuffer::Unlock
  0005f	5f		 pop	 edi
  00060	5e		 pop	 esi

; 86   : 		}
; 87   : 		// END_OF_WORK
; 88   : 	}
; 89   : }

  00061	5d		 pop	 ebp
  00062	c2 04 00	 ret	 4
$LN4@Deform:

; 82   : 		}
; 83   : 		else
; 84   : 		{
; 85   : 			TraceError("GRANNY DEFORM DYNAMIC BUFFER LOCK ERROR");

  00065	68 00 00 00 00	 push	 OFFSET ??_C@_0CI@PBPMOHGO@GRANNY?5DEFORM?5DYNAMIC?5BUFFER?5LO@
  0006a	e8 00 00 00 00	 call	 ?TraceError@@YAXPBDZZ	; TraceError
  0006f	83 c4 04	 add	 esp, 4
  00072	5f		 pop	 edi
$LN5@Deform:
  00073	5e		 pop	 esi

; 86   : 		}
; 87   : 		// END_OF_WORK
; 88   : 	}
; 89   : }

  00074	5d		 pop	 ebp
  00075	c2 04 00	 ret	 4
?Deform@CGrannyModelInstance@@QAEXPBUD3DXMATRIX@@@Z ENDP ; CGrannyModelInstance::Deform
_TEXT	ENDS
; Function compile flags: /Ogtp
; File C:\DS Project\DS Files\Source\ClientSource\Client\eterGrnLib\ModelInstanceUpdate.cpp
;	COMDAT ?UpdateSkeleton@CGrannyModelInstance@@QAEXPBUD3DXMATRIX@@M@Z
_TEXT	SEGMENT
_c_pWorldMatrix$ = 8					; size = 4
___formal$ = 12						; size = 4
?UpdateSkeleton@CGrannyModelInstance@@QAEXPBUD3DXMATRIX@@M@Z PROC ; CGrannyModelInstance::UpdateSkeleton, COMDAT
; _this$ = ecx

; 129  : {

  00000	55		 push	 ebp
  00001	8b ec		 mov	 ebp, esp
  00003	56		 push	 esi
  00004	8b f1		 mov	 esi, ecx

; 130  : 	// DELETED
; 131  : 	//m_pgrnWorldPose = m_pgrnWorldPoseReal;
; 132  : 	///////////////////////////////////////////
; 133  : 	UpdateWorldPose();

  00006	e8 00 00 00 00	 call	 ?UpdateWorldPose@CGrannyModelInstance@@IAEXXZ ; CGrannyModelInstance::UpdateWorldPose

; 134  : 	UpdateWorldMatrices(c_pWorldMatrix);

  0000b	ff 75 08	 push	 DWORD PTR _c_pWorldMatrix$[ebp]
  0000e	8b ce		 mov	 ecx, esi
  00010	e8 00 00 00 00	 call	 ?UpdateWorldMatrices@CGrannyModelInstance@@IAEXPBUD3DXMATRIX@@@Z ; CGrannyModelInstance::UpdateWorldMatrices
  00015	5e		 pop	 esi

; 135  : }

  00016	5d		 pop	 ebp
  00017	c2 08 00	 ret	 8
?UpdateSkeleton@CGrannyModelInstance@@QAEXPBUD3DXMATRIX@@M@Z ENDP ; CGrannyModelInstance::UpdateSkeleton
_TEXT	ENDS
; Function compile flags: /Ogtp
; File C:\DS Project\DS Files\Source\ClientSource\Client\eterGrnLib\ModelInstanceUpdate.cpp
;	COMDAT ?UpdateTransform@CGrannyModelInstance@@QAEXPAUD3DXMATRIX@@M@Z
_TEXT	SEGMENT
_pMatrix$ = 8						; size = 4
_fSecondsElapsed$ = 12					; size = 4
?UpdateTransform@CGrannyModelInstance@@QAEXPAUD3DXMATRIX@@M@Z PROC ; CGrannyModelInstance::UpdateTransform, COMDAT
; _this$ = ecx

; 44   : {

  00000	55		 push	 ebp
  00001	8b ec		 mov	 ebp, esp

; 45   : 	if (!m_pgrnModelInstance)

  00003	8b 49 08	 mov	 ecx, DWORD PTR [ecx+8]
  00006	85 c9		 test	 ecx, ecx
  00008	75 11		 jne	 SHORT $LN2@UpdateTran

; 46   : 	{
; 47   : 		TraceError("CGrannyModelIstance::UpdateTransform - m_pgrnModelInstance = NULL");

  0000a	68 00 00 00 00	 push	 OFFSET ??_C@_0EC@DKCFBIDP@CGrannyModelIstance?3?3UpdateTran@
  0000f	e8 00 00 00 00	 call	 ?TraceError@@YAXPBDZZ	; TraceError
  00014	83 c4 04	 add	 esp, 4

; 54   : #else
; 55   : #error "unknown granny version"
; 56   : #endif
; 57   : 	//Tracef("%f %f %f",pMatrix->_41,pMatrix->_42,pMatrix->_43);
; 58   : 
; 59   : }

  00017	5d		 pop	 ebp
  00018	c2 08 00	 ret	 8
$LN2@UpdateTran:

; 48   : 		return;
; 49   : 	}
; 50   : #if GrannyProductMinorVersion==4
; 51   : 	GrannyUpdateModelMatrix(m_pgrnModelInstance, fSecondsElapsed, (const float *) pMatrix, (float *) pMatrix);
; 52   : #elif GrannyProductMinorVersion==11 || GrannyProductMinorVersion==9 || GrannyProductMinorVersion==8 || GrannyProductMinorVersion==7
; 53   : 	GrannyUpdateModelMatrix(m_pgrnModelInstance, fSecondsElapsed, (const float *) pMatrix, (float *) pMatrix, false);

  0001b	8b 45 08	 mov	 eax, DWORD PTR _pMatrix$[ebp]
  0001e	f3 0f 10 45 0c	 movss	 xmm0, DWORD PTR _fSecondsElapsed$[ebp]
  00023	6a 00		 push	 0
  00025	50		 push	 eax
  00026	50		 push	 eax
  00027	51		 push	 ecx
  00028	f3 0f 11 04 24	 movss	 DWORD PTR [esp], xmm0
  0002d	51		 push	 ecx
  0002e	ff 15 00 00 00
	00		 call	 DWORD PTR __imp__GrannyUpdateModelMatrix@20

; 54   : #else
; 55   : #error "unknown granny version"
; 56   : #endif
; 57   : 	//Tracef("%f %f %f",pMatrix->_41,pMatrix->_42,pMatrix->_43);
; 58   : 
; 59   : }

  00034	5d		 pop	 ebp
  00035	c2 08 00	 ret	 8
?UpdateTransform@CGrannyModelInstance@@QAEXPAUD3DXMATRIX@@M@Z ENDP ; CGrannyModelInstance::UpdateTransform
_TEXT	ENDS
; Function compile flags: /Ogtp
; File C:\DS Project\DS Files\Source\ClientSource\Client\eterGrnLib\ModelInstanceUpdate.cpp
;	COMDAT ?UpdateLocalTime@CGrannyModelInstance@@QAEXM@Z
_TEXT	SEGMENT
_fElapsedTime$ = 8					; size = 4
?UpdateLocalTime@CGrannyModelInstance@@QAEXM@Z PROC	; CGrannyModelInstance::UpdateLocalTime, COMDAT
; _this$ = ecx

; 38   : {

  00000	55		 push	 ebp
  00001	8b ec		 mov	 ebp, esp

; 39   : 	m_fSecondsElapsed = fElapsedTime;

  00003	f3 0f 10 4d 08	 movss	 xmm1, DWORD PTR _fElapsedTime$[ebp]

; 40   : 	m_fLocalTime += fElapsedTime;

  00008	f3 0f 10 41 20	 movss	 xmm0, DWORD PTR [ecx+32]
  0000d	f3 0f 58 c1	 addss	 xmm0, xmm1
  00011	f3 0f 11 49 24	 movss	 DWORD PTR [ecx+36], xmm1
  00016	f3 0f 11 41 20	 movss	 DWORD PTR [ecx+32], xmm0

; 41   : }

  0001b	5d		 pop	 ebp
  0001c	c2 04 00	 ret	 4
?UpdateLocalTime@CGrannyModelInstance@@QAEXM@Z ENDP	; CGrannyModelInstance::UpdateLocalTime
_TEXT	ENDS
; Function compile flags: /Ogtp
; File C:\DS Project\DS Files\Source\ClientSource\Client\eterGrnLib\ModelInstanceUpdate.cpp
;	COMDAT ?Update@CGrannyModelInstance@@QAEXK@Z
_TEXT	SEGMENT
tv146 = 8						; size = 4
_dwAniFPS$ = 8						; size = 4
?Update@CGrannyModelInstance@@QAEXK@Z PROC		; CGrannyModelInstance::Update, COMDAT
; _this$ = ecx

; 8    : {

  00000	55		 push	 ebp
  00001	8b ec		 mov	 ebp, esp
  00003	56		 push	 esi
  00004	57		 push	 edi

; 9    : 	if (!dwAniFPS)

  00005	8b 7d 08	 mov	 edi, DWORD PTR _dwAniFPS$[ebp]
  00008	8b f1		 mov	 esi, ecx
  0000a	85 ff		 test	 edi, edi
  0000c	74 55		 je	 SHORT $LN1@Update

; 10   : 		return;
; 11   : 
; 12   : 	const DWORD c_dwCurUpdateFrame = (DWORD) (GetLocalTime() * ANIFPS_MAX);

  0000e	53		 push	 ebx
  0000f	e8 00 00 00 00	 call	 ?GetLocalTime@CGrannyModelInstance@@QAEMXZ ; CGrannyModelInstance::GetLocalTime
  00014	d8 0d 00 00 00
	00		 fmul	 DWORD PTR __real@42f00000
  0001a	d9 5d 08	 fstp	 DWORD PTR tv146[ebp]
  0001d	f3 0f 10 45 08	 movss	 xmm0, DWORD PTR tv146[ebp]
  00022	e8 00 00 00 00	 call	 __ftoui3
  00027	8b d8		 mov	 ebx, eax

; 13   : 	const DWORD ANIFPS_STEP = ANIFPS_MAX/dwAniFPS;

  00029	33 d2		 xor	 edx, edx
  0002b	b8 78 00 00 00	 mov	 eax, 120		; 00000078H
  00030	f7 f7		 div	 edi
  00032	8b f8		 mov	 edi, eax

; 14   : 	if (c_dwCurUpdateFrame>ANIFPS_STEP && c_dwCurUpdateFrame/ANIFPS_STEP==m_dwOldUpdateFrame/ANIFPS_STEP)

  00034	3b df		 cmp	 ebx, edi
  00036	76 13		 jbe	 SHORT $LN3@Update
  00038	8b 46 28	 mov	 eax, DWORD PTR [esi+40]
  0003b	33 d2		 xor	 edx, edx
  0003d	f7 f7		 div	 edi
  0003f	33 d2		 xor	 edx, edx
  00041	8b c8		 mov	 ecx, eax
  00043	8b c3		 mov	 eax, ebx
  00045	f7 f7		 div	 edi
  00047	3b c1		 cmp	 eax, ecx
  00049	74 17		 je	 SHORT $LN5@Update
$LN3@Update:

; 15   : 		return;
; 16   : 
; 17   : 	m_dwOldUpdateFrame=c_dwCurUpdateFrame;
; 18   : 
; 19   : 	//DWORD t1=timeGetTime();
; 20   : 	GrannySetModelClock(m_pgrnModelInstance, GetLocalTime());

  0004b	8b ce		 mov	 ecx, esi
  0004d	89 5e 28	 mov	 DWORD PTR [esi+40], ebx
  00050	e8 00 00 00 00	 call	 ?GetLocalTime@CGrannyModelInstance@@QAEMXZ ; CGrannyModelInstance::GetLocalTime
  00055	51		 push	 ecx
  00056	d9 1c 24	 fstp	 DWORD PTR [esp]
  00059	ff 76 08	 push	 DWORD PTR [esi+8]
  0005c	ff 15 00 00 00
	00		 call	 DWORD PTR __imp__GrannySetModelClock@8
$LN5@Update:
  00062	5b		 pop	 ebx
$LN1@Update:
  00063	5f		 pop	 edi

; 21   : 	//DWORD t2=timeGetTime();
; 22   : 
; 23   : #ifdef __PERFORMANCE_CHECKER__
; 24   : 	{
; 25   : 		static FILE* fp=fopen("perf_grn_setmodelclock.txt", "w");
; 26   : 
; 27   : 		if (t2-t1>3)
; 28   : 		{
; 29   : 			fprintf(fp, "%f:%x:- GrannySetModelClock(time=%f) = %dms\n", timeGetTime()/1000.0f, this, GetLocalTime(), t2-t1);
; 30   : 			fflush(fp);
; 31   : 		}
; 32   : 	}
; 33   : #endif
; 34   : 
; 35   : }

  00064	5e		 pop	 esi
  00065	5d		 pop	 ebp
  00066	c2 04 00	 ret	 4
?Update@CGrannyModelInstance@@QAEXK@Z ENDP		; CGrannyModelInstance::Update
_TEXT	ENDS
END
