; Listing generated by Microsoft (R) Optimizing Compiler Version 19.27.29112.0 

	TITLE	C:\DS Project\DS Files\Source\ClientSource\Client\eterGrnLib\ModelInstanceModel.cpp
	.686P
	.XMM
	include listing.inc
	.model	flat

INCLUDELIB LIBCMT
INCLUDELIB OLDNAMES

PUBLIC	??_H@YGXPAXIIP6EPAX0@Z@Z			; `vector constructor iterator'
PUBLIC	??0exception@std@@QAE@ABV01@@Z			; std::exception::exception
PUBLIC	??1exception@std@@UAE@XZ			; std::exception::~exception
PUBLIC	?what@exception@std@@UBEPBDXZ			; std::exception::what
PUBLIC	??_Gexception@std@@UAEPAXI@Z			; std::exception::`scalar deleting destructor'
PUBLIC	??0bad_alloc@std@@QAE@ABV01@@Z			; std::bad_alloc::bad_alloc
PUBLIC	??_Gbad_alloc@std@@UAEPAXI@Z			; std::bad_alloc::`scalar deleting destructor'
PUBLIC	??0bad_array_new_length@std@@QAE@XZ		; std::bad_array_new_length::bad_array_new_length
PUBLIC	??1bad_array_new_length@std@@UAE@XZ		; std::bad_array_new_length::~bad_array_new_length
PUBLIC	??0bad_array_new_length@std@@QAE@ABV01@@Z	; std::bad_array_new_length::bad_array_new_length
PUBLIC	??_Gbad_array_new_length@std@@UAEPAXI@Z		; std::bad_array_new_length::`scalar deleting destructor'
PUBLIC	?_Throw_bad_array_new_length@std@@YAXXZ		; std::_Throw_bad_array_new_length
PUBLIC	??0D3DXMATRIX@@QAE@XZ				; D3DXMATRIX::D3DXMATRIX
PUBLIC	?Clear@CGrannyModelInstance@@QAEXXZ		; CGrannyModelInstance::Clear
PUBLIC	?SetMainModelPointer@CGrannyModelInstance@@QAEXPAVCGrannyModel@@PAVCGraphicVertexBuffer@@@Z ; CGrannyModelInstance::SetMainModelPointer
PUBLIC	?SetLinkedModelPointer@CGrannyModelInstance@@QAEXPAVCGrannyModel@@PAVCGraphicVertexBuffer@@PAPAV1@@Z ; CGrannyModelInstance::SetLinkedModelPointer
PUBLIC	?GetDeformableVertexCount@CGrannyModelInstance@@QAEKXZ ; CGrannyModelInstance::GetDeformableVertexCount
PUBLIC	?GetVertexCount@CGrannyModelInstance@@QAEKXZ	; CGrannyModelInstance::GetVertexCount
PUBLIC	?GetBoneMatrixPointer@CGrannyModelInstance@@QBEPBMH@Z ; CGrannyModelInstance::GetBoneMatrixPointer
PUBLIC	?GetCompositeBoneMatrixPointer@CGrannyModelInstance@@QBEPBMH@Z ; CGrannyModelInstance::GetCompositeBoneMatrixPointer
PUBLIC	?GetBoneIndexByName@CGrannyModelInstance@@QBE_NPBDPAH@Z ; CGrannyModelInstance::GetBoneIndexByName
PUBLIC	?ReloadTexture@CGrannyModelInstance@@QAEXXZ	; CGrannyModelInstance::ReloadTexture
PUBLIC	?__DestroyModelInstance@CGrannyModelInstance@@IAEXXZ ; CGrannyModelInstance::__DestroyModelInstance
PUBLIC	?__DestroyMeshMatrices@CGrannyModelInstance@@IAEXXZ ; CGrannyModelInstance::__DestroyMeshMatrices
PUBLIC	?__DestroyDynamicVertexBuffer@CGrannyModelInstance@@IAEXXZ ; CGrannyModelInstance::__DestroyDynamicVertexBuffer
PUBLIC	?__CreateModelInstance@CGrannyModelInstance@@IAEXXZ ; CGrannyModelInstance::__CreateModelInstance
PUBLIC	?__CreateMeshMatrices@CGrannyModelInstance@@IAEXXZ ; CGrannyModelInstance::__CreateMeshMatrices
PUBLIC	?__CreateDynamicVertexBuffer@CGrannyModelInstance@@IAEXXZ ; CGrannyModelInstance::__CreateDynamicVertexBuffer
PUBLIC	?__DestroyWorldPose@CGrannyModelInstance@@IAEXXZ ; CGrannyModelInstance::__DestroyWorldPose
PUBLIC	?__CreateWorldPose@CGrannyModelInstance@@IAEXPAV1@@Z ; CGrannyModelInstance::__CreateWorldPose
PUBLIC	?__CreateMeshBindingVector@CGrannyModelInstance@@IAE_NPAV1@@Z ; CGrannyModelInstance::__CreateMeshBindingVector
PUBLIC	?__DestroyMeshBindingVector@CGrannyModelInstance@@IAEXXZ ; CGrannyModelInstance::__DestroyMeshBindingVector
PUBLIC	?__GetMeshBoneIndices@CGrannyModelInstance@@IBEPBHI@Z ; CGrannyModelInstance::__GetMeshBoneIndices
PUBLIC	?__IsDeformableVertexBuffer@CGrannyModelInstance@@IAE_NXZ ; CGrannyModelInstance::__IsDeformableVertexBuffer
PUBLIC	?__SetSharedDeformableVertexBuffer@CGrannyModelInstance@@IAEXPAVCGraphicVertexBuffer@@@Z ; CGrannyModelInstance::__SetSharedDeformableVertexBuffer
PUBLIC	?__GetDeformableD3DVertexBufferPtr@CGrannyModelInstance@@IAEPAUIDirect3DVertexBuffer8@@XZ ; CGrannyModelInstance::__GetDeformableD3DVertexBufferPtr
PUBLIC	?__GetDeformableVertexBufferRef@CGrannyModelInstance@@IAEAAVCGraphicVertexBuffer@@XZ ; CGrannyModelInstance::__GetDeformableVertexBufferRef
PUBLIC	?__GetWorldPosePtr@CGrannyModelInstance@@IBEPAUworld_pose@granny@@XZ ; CGrannyModelInstance::__GetWorldPosePtr
PUBLIC	?_Reallocate_exactly@?$vector@PAUmesh_binding@granny@@V?$allocator@PAUmesh_binding@granny@@@std@@@std@@AAEXI@Z ; std::vector<granny::mesh_binding *,std::allocator<granny::mesh_binding *> >::_Reallocate_exactly
PUBLIC	?_Xlength@?$vector@PAUmesh_binding@granny@@V?$allocator@PAUmesh_binding@granny@@@std@@@std@@CAXXZ ; std::vector<granny::mesh_binding *,std::allocator<granny::mesh_binding *> >::_Xlength
PUBLIC	??$_Emplace_reallocate@PAUmesh_binding@granny@@@?$vector@PAUmesh_binding@granny@@V?$allocator@PAUmesh_binding@granny@@@std@@@std@@QAEPAPAUmesh_binding@granny@@QAPAU23@$$QAPAU23@@Z ; std::vector<granny::mesh_binding *,std::allocator<granny::mesh_binding *> >::_Emplace_reallocate<granny::mesh_binding *>
PUBLIC	??$_Destroy_range@V?$allocator@PAUmesh_binding@granny@@@std@@@std@@YAXPAPAUmesh_binding@granny@@QAPAU12@AAV?$allocator@PAUmesh_binding@granny@@@0@@Z ; std::_Destroy_range<std::allocator<granny::mesh_binding *> >
PUBLIC	??$_Allocate@$07U_Default_allocate_traits@std@@$0A@@std@@YAPAXI@Z ; std::_Allocate<8,std::_Default_allocate_traits,0>
PUBLIC	??$_Deallocate@$07$0A@@std@@YAXPAXI@Z		; std::_Deallocate<8,0>
PUBLIC	??$_Uninitialized_move@PAPAUmesh_binding@granny@@V?$allocator@PAUmesh_binding@granny@@@std@@@std@@YAPAPAUmesh_binding@granny@@QAPAU12@0PAPAU12@AAV?$allocator@PAUmesh_binding@granny@@@0@@Z ; std::_Uninitialized_move<granny::mesh_binding * *,std::allocator<granny::mesh_binding *> >
PUBLIC	??$_Allocate_manually_vector_aligned@U_Default_allocate_traits@std@@@std@@YAPAXI@Z ; std::_Allocate_manually_vector_aligned<std::_Default_allocate_traits>
PUBLIC	??$_Copy_memmove@PAPAUmesh_binding@granny@@PAPAU12@@std@@YAPAPAUmesh_binding@granny@@PAPAU12@00@Z ; std::_Copy_memmove<granny::mesh_binding * *,granny::mesh_binding * *>
PUBLIC	??_7exception@std@@6B@				; std::exception::`vftable'
PUBLIC	??_C@_0BC@EOODALEL@Unknown?5exception@		; `string'
PUBLIC	??_7bad_alloc@std@@6B@				; std::bad_alloc::`vftable'
PUBLIC	??_7bad_array_new_length@std@@6B@		; std::bad_array_new_length::`vftable'
PUBLIC	??_C@_0BF@KINCDENJ@bad?5array?5new?5length@	; `string'
PUBLIC	__TI3?AVbad_array_new_length@std@@
PUBLIC	__CTA3?AVbad_array_new_length@std@@
PUBLIC	??_R0?AVbad_array_new_length@std@@@8		; std::bad_array_new_length `RTTI Type Descriptor'
PUBLIC	__CT??_R0?AVbad_array_new_length@std@@@8??0bad_array_new_length@std@@QAE@ABV01@@Z12
PUBLIC	??_R0?AVbad_alloc@std@@@8			; std::bad_alloc `RTTI Type Descriptor'
PUBLIC	__CT??_R0?AVbad_alloc@std@@@8??0bad_alloc@std@@QAE@ABV01@@Z12
PUBLIC	??_R0?AVexception@std@@@8			; std::exception `RTTI Type Descriptor'
PUBLIC	__CT??_R0?AVexception@std@@@8??0exception@std@@QAE@ABV01@@Z12
PUBLIC	??_C@_0BA@FOIKENOD@vector?5too?5long@		; `string'
PUBLIC	??_R4exception@std@@6B@				; std::exception::`RTTI Complete Object Locator'
PUBLIC	??_R3exception@std@@8				; std::exception::`RTTI Class Hierarchy Descriptor'
PUBLIC	??_R2exception@std@@8				; std::exception::`RTTI Base Class Array'
PUBLIC	??_R1A@?0A@EA@exception@std@@8			; std::exception::`RTTI Base Class Descriptor at (0,-1,0,64)'
PUBLIC	??_R4bad_alloc@std@@6B@				; std::bad_alloc::`RTTI Complete Object Locator'
PUBLIC	??_R3bad_alloc@std@@8				; std::bad_alloc::`RTTI Class Hierarchy Descriptor'
PUBLIC	??_R2bad_alloc@std@@8				; std::bad_alloc::`RTTI Base Class Array'
PUBLIC	??_R1A@?0A@EA@bad_alloc@std@@8			; std::bad_alloc::`RTTI Base Class Descriptor at (0,-1,0,64)'
PUBLIC	??_R4bad_array_new_length@std@@6B@		; std::bad_array_new_length::`RTTI Complete Object Locator'
PUBLIC	??_R3bad_array_new_length@std@@8		; std::bad_array_new_length::`RTTI Class Hierarchy Descriptor'
PUBLIC	??_R2bad_array_new_length@std@@8		; std::bad_array_new_length::`RTTI Base Class Array'
PUBLIC	??_R1A@?0A@EA@bad_array_new_length@std@@8	; std::bad_array_new_length::`RTTI Base Class Descriptor at (0,-1,0,64)'
EXTRN	??2@YAPAXI@Z:PROC				; operator new
EXTRN	??3@YAXPAXI@Z:PROC				; operator delete
EXTRN	??_U@YAPAXI@Z:PROC				; operator new[]
EXTRN	??_V@YAXPAX@Z:PROC				; operator delete[]
EXTRN	__imp__GrannyInstantiateModel@4:PROC
EXTRN	__imp__GrannyFreeModelInstance@4:PROC
EXTRN	__imp__GrannyGetSourceSkeleton@4:PROC
EXTRN	__imp__GrannyNewMeshBinding@12:PROC
EXTRN	__imp__GrannyFreeMeshBinding@4:PROC
EXTRN	__imp__GrannyGetMeshBindingToBoneIndices@4:PROC
EXTRN	__imp__GrannyFindBoneByName@12:PROC
EXTRN	__imp__GrannyNewWorldPose@4:PROC
EXTRN	__imp__GrannyFreeWorldPose@4:PROC
EXTRN	__imp__GrannyGetWorldPose4x4@8:PROC
EXTRN	__imp__GrannyGetWorldPoseComposite4x4@8:PROC
EXTRN	__invalid_parameter_noinfo_noreturn:PROC
EXTRN	___std_exception_copy:PROC
EXTRN	___std_exception_destroy:PROC
EXTRN	??_Eexception@std@@UAEPAXI@Z:PROC		; std::exception::`vector deleting destructor'
EXTRN	??_Ebad_alloc@std@@UAEPAXI@Z:PROC		; std::bad_alloc::`vector deleting destructor'
EXTRN	??_Ebad_array_new_length@std@@UAEPAXI@Z:PROC	; std::bad_array_new_length::`vector deleting destructor'
EXTRN	?_Xlength_error@std@@YAXPBD@Z:PROC		; std::_Xlength_error
EXTRN	?AddReference@CReferenceObject@@QAEXXZ:PROC	; CReferenceObject::AddReference
EXTRN	?Release@CReferenceObject@@QAEXXZ:PROC		; CReferenceObject::Release
EXTRN	?Destroy@CGraphicVertexBuffer@@QAEXXZ:PROC	; CGraphicVertexBuffer::Destroy
EXTRN	?IsEmpty@CGraphicVertexBuffer@@QBE_NXZ:PROC	; CGraphicVertexBuffer::IsEmpty
EXTRN	?Clear@CGrannyMaterialPalette@@QAEXXZ:PROC	; CGrannyMaterialPalette::Clear
EXTRN	?Copy@CGrannyMaterialPalette@@QAEXABV1@@Z:PROC	; CGrannyMaterialPalette::Copy
EXTRN	?GetDeformVertexCount@CGrannyModel@@QBEHXZ:PROC	; CGrannyModel::GetDeformVertexCount
EXTRN	?GetVertexCount@CGrannyModel@@QBEHXZ:PROC	; CGrannyModel::GetVertexCount
EXTRN	?GetMeshCount@CGrannyModel@@QBEHXZ:PROC		; CGrannyModel::GetMeshCount
EXTRN	?GetGrannyModelPointer@CGrannyModel@@QAEPAUgranny_model@@XZ:PROC ; CGrannyModel::GetGrannyModelPointer
EXTRN	?GetMaterialPalette@CGrannyModel@@QBEABVCGrannyMaterialPalette@@XZ:PROC ; CGrannyModel::GetMaterialPalette
EXTRN	?DestroyDeviceObjects@CGrannyModelInstance@@QAEXXZ:PROC ; CGrannyModelInstance::DestroyDeviceObjects
EXTRN	?ResetLocalTime@CGrannyModelInstance@@QAEHXZ:PROC ; CGrannyModelInstance::ResetLocalTime
EXTRN	?__Initialize@CGrannyModelInstance@@IAEXXZ:PROC	; CGrannyModelInstance::__Initialize
EXTRN	__CxxThrowException@8:PROC
EXTRN	_memmove:PROC
EXTRN	??_7type_info@@6B@:QWORD			; type_info::`vftable'
;	COMDAT ??_R1A@?0A@EA@bad_array_new_length@std@@8
rdata$r	SEGMENT
??_R1A@?0A@EA@bad_array_new_length@std@@8 DD FLAT:??_R0?AVbad_array_new_length@std@@@8 ; std::bad_array_new_length::`RTTI Base Class Descriptor at (0,-1,0,64)'
	DD	02H
	DD	00H
	DD	0ffffffffH
	DD	00H
	DD	040H
	DD	FLAT:??_R3bad_array_new_length@std@@8
rdata$r	ENDS
;	COMDAT ??_R2bad_array_new_length@std@@8
rdata$r	SEGMENT
??_R2bad_array_new_length@std@@8 DD FLAT:??_R1A@?0A@EA@bad_array_new_length@std@@8 ; std::bad_array_new_length::`RTTI Base Class Array'
	DD	FLAT:??_R1A@?0A@EA@bad_alloc@std@@8
	DD	FLAT:??_R1A@?0A@EA@exception@std@@8
rdata$r	ENDS
;	COMDAT ??_R3bad_array_new_length@std@@8
rdata$r	SEGMENT
??_R3bad_array_new_length@std@@8 DD 00H			; std::bad_array_new_length::`RTTI Class Hierarchy Descriptor'
	DD	00H
	DD	03H
	DD	FLAT:??_R2bad_array_new_length@std@@8
rdata$r	ENDS
;	COMDAT ??_R4bad_array_new_length@std@@6B@
rdata$r	SEGMENT
??_R4bad_array_new_length@std@@6B@ DD 00H		; std::bad_array_new_length::`RTTI Complete Object Locator'
	DD	00H
	DD	00H
	DD	FLAT:??_R0?AVbad_array_new_length@std@@@8
	DD	FLAT:??_R3bad_array_new_length@std@@8
rdata$r	ENDS
;	COMDAT ??_R1A@?0A@EA@bad_alloc@std@@8
rdata$r	SEGMENT
??_R1A@?0A@EA@bad_alloc@std@@8 DD FLAT:??_R0?AVbad_alloc@std@@@8 ; std::bad_alloc::`RTTI Base Class Descriptor at (0,-1,0,64)'
	DD	01H
	DD	00H
	DD	0ffffffffH
	DD	00H
	DD	040H
	DD	FLAT:??_R3bad_alloc@std@@8
rdata$r	ENDS
;	COMDAT ??_R2bad_alloc@std@@8
rdata$r	SEGMENT
??_R2bad_alloc@std@@8 DD FLAT:??_R1A@?0A@EA@bad_alloc@std@@8 ; std::bad_alloc::`RTTI Base Class Array'
	DD	FLAT:??_R1A@?0A@EA@exception@std@@8
rdata$r	ENDS
;	COMDAT ??_R3bad_alloc@std@@8
rdata$r	SEGMENT
??_R3bad_alloc@std@@8 DD 00H				; std::bad_alloc::`RTTI Class Hierarchy Descriptor'
	DD	00H
	DD	02H
	DD	FLAT:??_R2bad_alloc@std@@8
rdata$r	ENDS
;	COMDAT ??_R4bad_alloc@std@@6B@
rdata$r	SEGMENT
??_R4bad_alloc@std@@6B@ DD 00H				; std::bad_alloc::`RTTI Complete Object Locator'
	DD	00H
	DD	00H
	DD	FLAT:??_R0?AVbad_alloc@std@@@8
	DD	FLAT:??_R3bad_alloc@std@@8
rdata$r	ENDS
;	COMDAT ??_R1A@?0A@EA@exception@std@@8
rdata$r	SEGMENT
??_R1A@?0A@EA@exception@std@@8 DD FLAT:??_R0?AVexception@std@@@8 ; std::exception::`RTTI Base Class Descriptor at (0,-1,0,64)'
	DD	00H
	DD	00H
	DD	0ffffffffH
	DD	00H
	DD	040H
	DD	FLAT:??_R3exception@std@@8
rdata$r	ENDS
;	COMDAT ??_R2exception@std@@8
rdata$r	SEGMENT
??_R2exception@std@@8 DD FLAT:??_R1A@?0A@EA@exception@std@@8 ; std::exception::`RTTI Base Class Array'
rdata$r	ENDS
;	COMDAT ??_R3exception@std@@8
rdata$r	SEGMENT
??_R3exception@std@@8 DD 00H				; std::exception::`RTTI Class Hierarchy Descriptor'
	DD	00H
	DD	01H
	DD	FLAT:??_R2exception@std@@8
rdata$r	ENDS
;	COMDAT ??_R4exception@std@@6B@
rdata$r	SEGMENT
??_R4exception@std@@6B@ DD 00H				; std::exception::`RTTI Complete Object Locator'
	DD	00H
	DD	00H
	DD	FLAT:??_R0?AVexception@std@@@8
	DD	FLAT:??_R3exception@std@@8
rdata$r	ENDS
;	COMDAT ??_C@_0BA@FOIKENOD@vector?5too?5long@
CONST	SEGMENT
??_C@_0BA@FOIKENOD@vector?5too?5long@ DB 'vector too long', 00H ; `string'
CONST	ENDS
;	COMDAT __CT??_R0?AVexception@std@@@8??0exception@std@@QAE@ABV01@@Z12
xdata$x	SEGMENT
__CT??_R0?AVexception@std@@@8??0exception@std@@QAE@ABV01@@Z12 DD 00H
	DD	FLAT:??_R0?AVexception@std@@@8
	DD	00H
	DD	0ffffffffH
	ORG $+4
	DD	0cH
	DD	FLAT:??0exception@std@@QAE@ABV01@@Z
xdata$x	ENDS
;	COMDAT ??_R0?AVexception@std@@@8
data$r	SEGMENT
??_R0?AVexception@std@@@8 DD FLAT:??_7type_info@@6B@	; std::exception `RTTI Type Descriptor'
	DD	00H
	DB	'.?AVexception@std@@', 00H
data$r	ENDS
;	COMDAT __CT??_R0?AVbad_alloc@std@@@8??0bad_alloc@std@@QAE@ABV01@@Z12
xdata$x	SEGMENT
__CT??_R0?AVbad_alloc@std@@@8??0bad_alloc@std@@QAE@ABV01@@Z12 DD 010H
	DD	FLAT:??_R0?AVbad_alloc@std@@@8
	DD	00H
	DD	0ffffffffH
	ORG $+4
	DD	0cH
	DD	FLAT:??0bad_alloc@std@@QAE@ABV01@@Z
xdata$x	ENDS
;	COMDAT ??_R0?AVbad_alloc@std@@@8
data$r	SEGMENT
??_R0?AVbad_alloc@std@@@8 DD FLAT:??_7type_info@@6B@	; std::bad_alloc `RTTI Type Descriptor'
	DD	00H
	DB	'.?AVbad_alloc@std@@', 00H
data$r	ENDS
;	COMDAT __CT??_R0?AVbad_array_new_length@std@@@8??0bad_array_new_length@std@@QAE@ABV01@@Z12
xdata$x	SEGMENT
__CT??_R0?AVbad_array_new_length@std@@@8??0bad_array_new_length@std@@QAE@ABV01@@Z12 DD 00H
	DD	FLAT:??_R0?AVbad_array_new_length@std@@@8
	DD	00H
	DD	0ffffffffH
	ORG $+4
	DD	0cH
	DD	FLAT:??0bad_array_new_length@std@@QAE@ABV01@@Z
xdata$x	ENDS
;	COMDAT ??_R0?AVbad_array_new_length@std@@@8
data$r	SEGMENT
??_R0?AVbad_array_new_length@std@@@8 DD FLAT:??_7type_info@@6B@ ; std::bad_array_new_length `RTTI Type Descriptor'
	DD	00H
	DB	'.?AVbad_array_new_length@std@@', 00H
data$r	ENDS
;	COMDAT __CTA3?AVbad_array_new_length@std@@
xdata$x	SEGMENT
__CTA3?AVbad_array_new_length@std@@ DD 03H
	DD	FLAT:__CT??_R0?AVbad_array_new_length@std@@@8??0bad_array_new_length@std@@QAE@ABV01@@Z12
	DD	FLAT:__CT??_R0?AVbad_alloc@std@@@8??0bad_alloc@std@@QAE@ABV01@@Z12
	DD	FLAT:__CT??_R0?AVexception@std@@@8??0exception@std@@QAE@ABV01@@Z12
xdata$x	ENDS
;	COMDAT __TI3?AVbad_array_new_length@std@@
xdata$x	SEGMENT
__TI3?AVbad_array_new_length@std@@ DD 00H
	DD	FLAT:??1bad_array_new_length@std@@UAE@XZ
	DD	00H
	DD	FLAT:__CTA3?AVbad_array_new_length@std@@
xdata$x	ENDS
;	COMDAT ??_C@_0BF@KINCDENJ@bad?5array?5new?5length@
CONST	SEGMENT
??_C@_0BF@KINCDENJ@bad?5array?5new?5length@ DB 'bad array new length', 00H ; `string'
CONST	ENDS
;	COMDAT ??_7bad_array_new_length@std@@6B@
CONST	SEGMENT
??_7bad_array_new_length@std@@6B@ DD FLAT:??_R4bad_array_new_length@std@@6B@ ; std::bad_array_new_length::`vftable'
	DD	FLAT:??_Ebad_array_new_length@std@@UAEPAXI@Z
	DD	FLAT:?what@exception@std@@UBEPBDXZ
CONST	ENDS
;	COMDAT ??_7bad_alloc@std@@6B@
CONST	SEGMENT
??_7bad_alloc@std@@6B@ DD FLAT:??_R4bad_alloc@std@@6B@	; std::bad_alloc::`vftable'
	DD	FLAT:??_Ebad_alloc@std@@UAEPAXI@Z
	DD	FLAT:?what@exception@std@@UBEPBDXZ
CONST	ENDS
;	COMDAT ??_C@_0BC@EOODALEL@Unknown?5exception@
CONST	SEGMENT
??_C@_0BC@EOODALEL@Unknown?5exception@ DB 'Unknown exception', 00H ; `string'
CONST	ENDS
;	COMDAT ??_7exception@std@@6B@
CONST	SEGMENT
??_7exception@std@@6B@ DD FLAT:??_R4exception@std@@6B@	; std::exception::`vftable'
	DD	FLAT:??_Eexception@std@@UAEPAXI@Z
	DD	FLAT:?what@exception@std@@UBEPBDXZ
CONST	ENDS
; Function compile flags: /Ogtp
; File C:\Program Files (x86)\Microsoft Visual Studio\2019\Community\VC\Tools\MSVC\14.27.29110\include\xutility
;	COMDAT ??$_Copy_memmove@PAPAUmesh_binding@granny@@PAPAU12@@std@@YAPAPAUmesh_binding@granny@@PAPAU12@00@Z
_TEXT	SEGMENT
__First$ = 8						; size = 4
__Last$ = 12						; size = 4
__Dest$ = 16						; size = 4
??$_Copy_memmove@PAPAUmesh_binding@granny@@PAPAU12@@std@@YAPAPAUmesh_binding@granny@@PAPAU12@00@Z PROC ; std::_Copy_memmove<granny::mesh_binding * *,granny::mesh_binding * *>, COMDAT

; 4113 : _OutIt _Copy_memmove(_InIt _First, _InIt _Last, _OutIt _Dest) {

  00000	55		 push	 ebp
  00001	8b ec		 mov	 ebp, esp

; 4114 :     const char* const _First_ch = const_cast<const char*>(reinterpret_cast<const volatile char*>(_First));
; 4115 :     const char* const _Last_ch  = const_cast<const char*>(reinterpret_cast<const volatile char*>(_Last));
; 4116 :     char* const _Dest_ch        = const_cast<char*>(reinterpret_cast<volatile char*>(_Dest));
; 4117 :     const auto _Count           = static_cast<size_t>(_Last_ch - _First_ch);

  00003	8b 45 08	 mov	 eax, DWORD PTR __First$[ebp]
  00006	56		 push	 esi

; 4118 :     _CSTD memmove(_Dest_ch, _First_ch, _Count);

  00007	8b 75 10	 mov	 esi, DWORD PTR __Dest$[ebp]
  0000a	57		 push	 edi
  0000b	8b 7d 0c	 mov	 edi, DWORD PTR __Last$[ebp]
  0000e	2b f8		 sub	 edi, eax
  00010	57		 push	 edi
  00011	50		 push	 eax
  00012	56		 push	 esi
  00013	e8 00 00 00 00	 call	 _memmove
  00018	83 c4 0c	 add	 esp, 12			; 0000000cH

; 4119 :     return reinterpret_cast<_OutIt>(_Dest_ch + _Count);

  0001b	8d 04 37	 lea	 eax, DWORD PTR [edi+esi]
  0001e	5f		 pop	 edi
  0001f	5e		 pop	 esi

; 4120 : }

  00020	5d		 pop	 ebp
  00021	c3		 ret	 0
??$_Copy_memmove@PAPAUmesh_binding@granny@@PAPAU12@@std@@YAPAPAUmesh_binding@granny@@PAPAU12@00@Z ENDP ; std::_Copy_memmove<granny::mesh_binding * *,granny::mesh_binding * *>
_TEXT	ENDS
; Function compile flags: /Ogtp
; File C:\Program Files (x86)\Microsoft Visual Studio\2019\Community\VC\Tools\MSVC\14.27.29110\include\xmemory
;	COMDAT ??$_Allocate_manually_vector_aligned@U_Default_allocate_traits@std@@@std@@YAPAXI@Z
_TEXT	SEGMENT
__Bytes$ = 8						; size = 4
??$_Allocate_manually_vector_aligned@U_Default_allocate_traits@std@@@std@@YAPAXI@Z PROC ; std::_Allocate_manually_vector_aligned<std::_Default_allocate_traits>, COMDAT

; 113  : __declspec(allocator) void* _Allocate_manually_vector_aligned(const size_t _Bytes) {

  00000	55		 push	 ebp
  00001	8b ec		 mov	 ebp, esp

; 114  :     // allocate _Bytes manually aligned to at least _Big_allocation_alignment
; 115  :     const size_t _Block_size = _Non_user_size + _Bytes;

  00003	8b 45 08	 mov	 eax, DWORD PTR __Bytes$[ebp]
  00006	8d 48 23	 lea	 ecx, DWORD PTR [eax+35]

; 116  :     if (_Block_size <= _Bytes) {

  00009	3b c8		 cmp	 ecx, eax
  0000b	0f 86 00 00 00
	00		 jbe	 ?_Throw_bad_array_new_length@std@@YAXXZ ; std::_Throw_bad_array_new_length

; 77   :         return ::operator new(_Bytes);

  00011	51		 push	 ecx
  00012	e8 00 00 00 00	 call	 ??2@YAPAXI@Z		; operator new

; 117  :         _Throw_bad_array_new_length(); // add overflow
; 118  :     }
; 119  : 
; 120  :     const uintptr_t _Ptr_container = reinterpret_cast<uintptr_t>(_Traits::_Allocate(_Block_size));

  00017	8b c8		 mov	 ecx, eax

; 77   :         return ::operator new(_Bytes);

  00019	83 c4 04	 add	 esp, 4

; 121  :     _STL_VERIFY(_Ptr_container != 0, "invalid argument"); // validate even in release since we're doing p[-1]

  0001c	85 c9		 test	 ecx, ecx
  0001e	74 0b		 je	 SHORT $LN7@Allocate_m

; 122  :     void* const _Ptr = reinterpret_cast<void*>((_Ptr_container + _Non_user_size) & ~(_Big_allocation_alignment - 1));

  00020	8d 41 23	 lea	 eax, DWORD PTR [ecx+35]
  00023	83 e0 e0	 and	 eax, -32		; ffffffe0H

; 123  :     static_cast<uintptr_t*>(_Ptr)[-1] = _Ptr_container;

  00026	89 48 fc	 mov	 DWORD PTR [eax-4], ecx

; 124  : 
; 125  : #ifdef _DEBUG
; 126  :     static_cast<uintptr_t*>(_Ptr)[-2] = _Big_allocation_sentinel;
; 127  : #endif // _DEBUG
; 128  :     return _Ptr;
; 129  : }

  00029	5d		 pop	 ebp
  0002a	c3		 ret	 0
$LN7@Allocate_m:

; 121  :     _STL_VERIFY(_Ptr_container != 0, "invalid argument"); // validate even in release since we're doing p[-1]

  0002b	e9 00 00 00 00	 jmp	 __invalid_parameter_noinfo_noreturn
??$_Allocate_manually_vector_aligned@U_Default_allocate_traits@std@@@std@@YAPAXI@Z ENDP ; std::_Allocate_manually_vector_aligned<std::_Default_allocate_traits>
_TEXT	ENDS
; Function compile flags: /Ogtp
; File C:\Program Files (x86)\Microsoft Visual Studio\2019\Community\VC\Tools\MSVC\14.27.29110\include\xmemory
;	COMDAT ??$_Uninitialized_move@PAPAUmesh_binding@granny@@V?$allocator@PAUmesh_binding@granny@@@std@@@std@@YAPAPAUmesh_binding@granny@@QAPAU12@0PAPAU12@AAV?$allocator@PAUmesh_binding@granny@@@0@@Z
_TEXT	SEGMENT
__First$ = 8						; size = 4
__Last$ = 12						; size = 4
__Dest$ = 16						; size = 4
__Al$ = 20						; size = 4
??$_Uninitialized_move@PAPAUmesh_binding@granny@@V?$allocator@PAUmesh_binding@granny@@@std@@@std@@YAPAPAUmesh_binding@granny@@QAPAU12@0PAPAU12@AAV?$allocator@PAUmesh_binding@granny@@@0@@Z PROC ; std::_Uninitialized_move<granny::mesh_binding * *,std::allocator<granny::mesh_binding *> >, COMDAT

; 1647 :     const _InIt _First, const _InIt _Last, _Alloc_ptr_t<_Alloc> _Dest, _Alloc& _Al) {

  00000	55		 push	 ebp
  00001	8b ec		 mov	 ebp, esp
  00003	53		 push	 ebx

; 1648 :     // move [_First, _Last) to raw _Dest, using _Al
; 1649 :     // note: only called internally from elsewhere in the STL
; 1650 :     using _Ptrval     = typename _Alloc::value_type*;
; 1651 :     auto _UFirst      = _Get_unwrapped(_First);
; 1652 :     const auto _ULast = _Get_unwrapped(_Last);
; 1653 :     if constexpr (conjunction_v<bool_constant<_Ptr_move_cat<decltype(_UFirst), _Ptrval>::_Really_trivial>,
; 1654 :                       _Uses_default_construct<_Alloc, _Ptrval, decltype(_STD move(*_UFirst))>>) {
; 1655 :         _Copy_memmove(_UFirst, _ULast, _Unfancy(_Dest));

  00004	8b 5d 10	 mov	 ebx, DWORD PTR __Dest$[ebp]
  00007	57		 push	 edi
  00008	8b 7d 0c	 mov	 edi, DWORD PTR __Last$[ebp]
  0000b	53		 push	 ebx
  0000c	57		 push	 edi
  0000d	ff 75 08	 push	 DWORD PTR __First$[ebp]
  00010	e8 00 00 00 00	 call	 ??$_Copy_memmove@PAPAUmesh_binding@granny@@PAPAU12@@std@@YAPAPAUmesh_binding@granny@@PAPAU12@00@Z ; std::_Copy_memmove<granny::mesh_binding * *,granny::mesh_binding * *>

; 1656 :         return _Dest + (_ULast - _UFirst);

  00015	2b 7d 08	 sub	 edi, DWORD PTR __First$[ebp]
  00018	83 c4 0c	 add	 esp, 12			; 0000000cH
  0001b	c1 ff 02	 sar	 edi, 2
  0001e	8d 04 bb	 lea	 eax, DWORD PTR [ebx+edi*4]
  00021	5f		 pop	 edi
  00022	5b		 pop	 ebx

; 1657 :     } else {
; 1658 :         _Uninitialized_backout_al<_Alloc> _Backout{_Dest, _Al};
; 1659 :         for (; _UFirst != _ULast; ++_UFirst) {
; 1660 :             _Backout._Emplace_back(_STD move(*_UFirst));
; 1661 :         }
; 1662 : 
; 1663 :         return _Backout._Release();
; 1664 :     }
; 1665 : }

  00023	5d		 pop	 ebp
  00024	c3		 ret	 0
??$_Uninitialized_move@PAPAUmesh_binding@granny@@V?$allocator@PAUmesh_binding@granny@@@std@@@std@@YAPAPAUmesh_binding@granny@@QAPAU12@0PAPAU12@AAV?$allocator@PAUmesh_binding@granny@@@0@@Z ENDP ; std::_Uninitialized_move<granny::mesh_binding * *,std::allocator<granny::mesh_binding *> >
_TEXT	ENDS
; Function compile flags: /Ogtp
; File C:\Program Files (x86)\Microsoft Visual Studio\2019\Community\VC\Tools\MSVC\14.27.29110\include\xmemory
;	COMDAT ??$_Deallocate@$07$0A@@std@@YAXPAXI@Z
_TEXT	SEGMENT
__Ptr$ = 8						; size = 4
__Bytes$ = 12						; size = 4
??$_Deallocate@$07$0A@@std@@YAXPAXI@Z PROC		; std::_Deallocate<8,0>, COMDAT

; 213  : void _Deallocate(void* _Ptr, size_t _Bytes) noexcept {

  00000	55		 push	 ebp
  00001	8b ec		 mov	 ebp, esp

; 214  :     // deallocate storage allocated by _Allocate when !_HAS_ALIGNED_NEW || _Align <= __STDCPP_DEFAULT_NEW_ALIGNMENT__
; 215  : #if defined(_M_IX86) || defined(_M_X64)
; 216  :     if (_Bytes >= _Big_allocation_threshold) { // boost the alignment of big allocations to help autovectorization

  00003	8b 4d 0c	 mov	 ecx, DWORD PTR __Bytes$[ebp]
  00006	81 f9 00 10 00
	00		 cmp	 ecx, 4096		; 00001000H
  0000c	72 18		 jb	 SHORT $LN15@Deallocate

; 137  :     const uintptr_t _Ptr_container   = _Ptr_user[-1];

  0000e	8b 45 08	 mov	 eax, DWORD PTR __Ptr$[ebp]
  00011	83 c1 23	 add	 ecx, 35			; 00000023H
  00014	8b 50 fc	 mov	 edx, DWORD PTR [eax-4]

; 138  : 
; 139  :     // If the following asserts, it likely means that we are performing
; 140  :     // an aligned delete on memory coming from an unaligned allocation.
; 141  :     _STL_ASSERT(_Ptr_user[-2] == _Big_allocation_sentinel, "invalid argument");
; 142  : 
; 143  :     // Extra paranoia on aligned allocation/deallocation; ensure _Ptr_container is
; 144  :     // in range [_Min_back_shift, _Non_user_size]
; 145  : #ifdef _DEBUG
; 146  :     constexpr uintptr_t _Min_back_shift = 2 * sizeof(void*);
; 147  : #else // ^^^ _DEBUG ^^^ // vvv !_DEBUG vvv
; 148  :     constexpr uintptr_t _Min_back_shift = sizeof(void*);
; 149  : #endif // _DEBUG
; 150  :     const uintptr_t _Back_shift = reinterpret_cast<uintptr_t>(_Ptr) - _Ptr_container;

  00017	2b c2		 sub	 eax, edx

; 151  :     _STL_VERIFY(_Back_shift >= _Min_back_shift && _Back_shift <= _Non_user_size, "invalid argument");

  00019	83 c0 fc	 add	 eax, -4			; fffffffcH
  0001c	83 f8 1f	 cmp	 eax, 31			; 0000001fH
  0001f	76 08		 jbe	 SHORT $LN13@Deallocate
  00021	e9 00 00 00 00	 jmp	 __invalid_parameter_noinfo_noreturn
$LN15@Deallocate:

; 214  :     // deallocate storage allocated by _Allocate when !_HAS_ALIGNED_NEW || _Align <= __STDCPP_DEFAULT_NEW_ALIGNMENT__
; 215  : #if defined(_M_IX86) || defined(_M_X64)
; 216  :     if (_Bytes >= _Big_allocation_threshold) { // boost the alignment of big allocations to help autovectorization

  00026	8b 55 08	 mov	 edx, DWORD PTR __Ptr$[ebp]
$LN13@Deallocate:

; 217  :         _Adjust_manually_vector_aligned(_Ptr, _Bytes);
; 218  :     }
; 219  : #endif // defined(_M_IX86) || defined(_M_X64)
; 220  : 
; 221  :     ::operator delete(_Ptr, _Bytes);

  00029	89 4d 0c	 mov	 DWORD PTR __Bytes$[ebp], ecx
  0002c	89 55 08	 mov	 DWORD PTR __Ptr$[ebp], edx

; 222  : }

  0002f	5d		 pop	 ebp

; 217  :         _Adjust_manually_vector_aligned(_Ptr, _Bytes);
; 218  :     }
; 219  : #endif // defined(_M_IX86) || defined(_M_X64)
; 220  : 
; 221  :     ::operator delete(_Ptr, _Bytes);

  00030	e9 00 00 00 00	 jmp	 ??3@YAXPAXI@Z		; operator delete
??$_Deallocate@$07$0A@@std@@YAXPAXI@Z ENDP		; std::_Deallocate<8,0>
_TEXT	ENDS
; Function compile flags: /Ogtp
; File C:\Program Files (x86)\Microsoft Visual Studio\2019\Community\VC\Tools\MSVC\14.27.29110\include\xmemory
;	COMDAT ??$_Allocate@$07U_Default_allocate_traits@std@@$0A@@std@@YAPAXI@Z
_TEXT	SEGMENT
__Bytes$ = 8						; size = 4
??$_Allocate@$07U_Default_allocate_traits@std@@$0A@@std@@YAPAXI@Z PROC ; std::_Allocate<8,std::_Default_allocate_traits,0>, COMDAT

; 197  : __declspec(allocator) void* _Allocate(const size_t _Bytes) {

  00000	55		 push	 ebp
  00001	8b ec		 mov	 ebp, esp

; 198  :     // allocate _Bytes when !_HAS_ALIGNED_NEW || _Align <= __STDCPP_DEFAULT_NEW_ALIGNMENT__
; 199  : #if defined(_M_IX86) || defined(_M_X64)
; 200  :     if (_Bytes >= _Big_allocation_threshold) { // boost the alignment of big allocations to help autovectorization

  00003	8b 45 08	 mov	 eax, DWORD PTR __Bytes$[ebp]
  00006	3d 00 10 00 00	 cmp	 eax, 4096		; 00001000H
  0000b	72 09		 jb	 SHORT $LN2@Allocate

; 201  :         return _Allocate_manually_vector_aligned<_Traits>(_Bytes);

  0000d	89 45 08	 mov	 DWORD PTR __Bytes$[ebp], eax

; 210  : }

  00010	5d		 pop	 ebp

; 201  :         return _Allocate_manually_vector_aligned<_Traits>(_Bytes);

  00011	e9 00 00 00 00	 jmp	 ??$_Allocate_manually_vector_aligned@U_Default_allocate_traits@std@@@std@@YAPAXI@Z ; std::_Allocate_manually_vector_aligned<std::_Default_allocate_traits>
$LN2@Allocate:

; 202  :     }
; 203  : #endif // defined(_M_IX86) || defined(_M_X64)
; 204  : 
; 205  :     if (_Bytes != 0) {

  00016	85 c0		 test	 eax, eax
  00018	74 09		 je	 SHORT $LN3@Allocate

; 77   :         return ::operator new(_Bytes);

  0001a	89 45 08	 mov	 DWORD PTR __Bytes$[ebp], eax

; 210  : }

  0001d	5d		 pop	 ebp

; 77   :         return ::operator new(_Bytes);

  0001e	e9 00 00 00 00	 jmp	 ??2@YAPAXI@Z		; operator new
$LN3@Allocate:

; 206  :         return _Traits::_Allocate(_Bytes);
; 207  :     }
; 208  : 
; 209  :     return nullptr;

  00023	33 c0		 xor	 eax, eax

; 210  : }

  00025	5d		 pop	 ebp
  00026	c3		 ret	 0
??$_Allocate@$07U_Default_allocate_traits@std@@$0A@@std@@YAPAXI@Z ENDP ; std::_Allocate<8,std::_Default_allocate_traits,0>
_TEXT	ENDS
; Function compile flags: /Ogtp
; File C:\Program Files (x86)\Microsoft Visual Studio\2019\Community\VC\Tools\MSVC\14.27.29110\include\xmemory
;	COMDAT ??$_Destroy_range@V?$allocator@PAUmesh_binding@granny@@@std@@@std@@YAXPAPAUmesh_binding@granny@@QAPAU12@AAV?$allocator@PAUmesh_binding@granny@@@0@@Z
_TEXT	SEGMENT
__First$ = 8						; size = 4
__Last$ = 12						; size = 4
__Al$ = 16						; size = 4
??$_Destroy_range@V?$allocator@PAUmesh_binding@granny@@@std@@@std@@YAXPAPAUmesh_binding@granny@@QAPAU12@AAV?$allocator@PAUmesh_binding@granny@@@0@@Z PROC ; std::_Destroy_range<std::allocator<granny::mesh_binding *> >, COMDAT

; 956  :     // note that this is an optimization for debug mode codegen; in release mode the BE removes all of this
; 957  :     using _Ty = typename _Alloc::value_type;
; 958  :     if _CONSTEXPR_IF (!conjunction_v<is_trivially_destructible<_Ty>, _Uses_default_destroy<_Alloc, _Ty*>>) {
; 959  :         for (; _First != _Last; ++_First) {
; 960  :             allocator_traits<_Alloc>::destroy(_Al, _Unfancy(_First));
; 961  :         }
; 962  :     }
; 963  : }

  00000	c2 00 00	 ret	 0
??$_Destroy_range@V?$allocator@PAUmesh_binding@granny@@@std@@@std@@YAXPAPAUmesh_binding@granny@@QAPAU12@AAV?$allocator@PAUmesh_binding@granny@@@0@@Z ENDP ; std::_Destroy_range<std::allocator<granny::mesh_binding *> >
_TEXT	ENDS
; Function compile flags: /Ogtp
; File C:\Program Files (x86)\Microsoft Visual Studio\2019\Community\VC\Tools\MSVC\14.27.29110\include\vector
; File C:\Program Files (x86)\Microsoft Visual Studio\2019\Community\VC\Tools\MSVC\14.27.29110\include\xmemory
; File C:\Program Files (x86)\Microsoft Visual Studio\2019\Community\VC\Tools\MSVC\14.27.29110\include\vector
; File C:\Program Files (x86)\Microsoft Visual Studio\2019\Community\VC\Tools\MSVC\14.27.29110\include\xmemory
; File C:\Program Files (x86)\Microsoft Visual Studio\2019\Community\VC\Tools\MSVC\14.27.29110\include\vector
; File C:\Program Files (x86)\Microsoft Visual Studio\2019\Community\VC\Tools\MSVC\14.27.29110\include\xmemory
; File C:\Program Files (x86)\Microsoft Visual Studio\2019\Community\VC\Tools\MSVC\14.27.29110\include\vector
; File C:\Program Files (x86)\Microsoft Visual Studio\2019\Community\VC\Tools\MSVC\14.27.29110\include\xmemory
; File C:\Program Files (x86)\Microsoft Visual Studio\2019\Community\VC\Tools\MSVC\14.27.29110\include\vector
; File C:\Program Files (x86)\Microsoft Visual Studio\2019\Community\VC\Tools\MSVC\14.27.29110\include\xmemory
; File C:\Program Files (x86)\Microsoft Visual Studio\2019\Community\VC\Tools\MSVC\14.27.29110\include\vector
;	COMDAT ??$_Emplace_reallocate@PAUmesh_binding@granny@@@?$vector@PAUmesh_binding@granny@@V?$allocator@PAUmesh_binding@granny@@@std@@@std@@QAEPAPAUmesh_binding@granny@@QAPAU23@$$QAPAU23@@Z
_TEXT	SEGMENT
tv436 = -12						; size = 4
__Newsize$1$ = -8					; size = 4
tv435 = -4						; size = 4
__Whereptr$ = 8						; size = 4
_<_Val_0>$ = 12						; size = 4
??$_Emplace_reallocate@PAUmesh_binding@granny@@@?$vector@PAUmesh_binding@granny@@V?$allocator@PAUmesh_binding@granny@@@std@@@std@@QAEPAPAUmesh_binding@granny@@QAPAU23@$$QAPAU23@@Z PROC ; std::vector<granny::mesh_binding *,std::allocator<granny::mesh_binding *> >::_Emplace_reallocate<granny::mesh_binding *>, COMDAT
; _this$ = ecx

; 725  :     pointer _Emplace_reallocate(const pointer _Whereptr, _Valty&&... _Val) {

  00000	55		 push	 ebp
  00001	8b ec		 mov	 ebp, esp
  00003	83 ec 0c	 sub	 esp, 12			; 0000000cH
  00006	53		 push	 ebx

; 726  :         // reallocate and insert by perfectly forwarding _Val at _Whereptr
; 727  :         _Alty& _Al        = _Getal();
; 728  :         auto& _My_data    = _Mypair._Myval2;
; 729  :         pointer& _Myfirst = _My_data._Myfirst;
; 730  :         pointer& _Mylast  = _My_data._Mylast;
; 731  : 
; 732  :         _STL_INTERNAL_CHECK(_Mylast == _My_data._Myend); // check that we have no unused capacity
; 733  : 
; 734  :         const auto _Whereoff = static_cast<size_type>(_Whereptr - _Myfirst);

  00007	8b 5d 08	 mov	 ebx, DWORD PTR __Whereptr$[ebp]
  0000a	56		 push	 esi
  0000b	8b f1		 mov	 esi, ecx
  0000d	57		 push	 edi
  0000e	8b 16		 mov	 edx, DWORD PTR [esi]
  00010	2b da		 sub	 ebx, edx

; 735  :         const auto _Oldsize  = static_cast<size_type>(_Mylast - _Myfirst);

  00012	8b 46 04	 mov	 eax, DWORD PTR [esi+4]
  00015	2b c2		 sub	 eax, edx
  00017	c1 fb 02	 sar	 ebx, 2
  0001a	c1 f8 02	 sar	 eax, 2

; 736  : 
; 737  :         if (_Oldsize == max_size()) {

  0001d	3d ff ff ff 3f	 cmp	 eax, 1073741823		; 3fffffffH
  00022	0f 84 be 00 00
	00		 je	 $LN39@Emplace_re

; 1494 :         return static_cast<size_type>(_My_data._Myend - _My_data._Myfirst);

  00028	8b 4e 08	 mov	 ecx, DWORD PTR [esi+8]

; 739  :         }
; 740  : 
; 741  :         const size_type _Newsize     = _Oldsize + 1;

  0002b	8d 78 01	 lea	 edi, DWORD PTR [eax+1]

; 1494 :         return static_cast<size_type>(_My_data._Myend - _My_data._Myfirst);

  0002e	2b ca		 sub	 ecx, edx

; 739  :         }
; 740  : 
; 741  :         const size_type _Newsize     = _Oldsize + 1;

  00030	89 7d f8	 mov	 DWORD PTR __Newsize$1$[ebp], edi

; 1494 :         return static_cast<size_type>(_My_data._Myend - _My_data._Myfirst);

  00033	c1 f9 02	 sar	 ecx, 2

; 1619 :         if (_Oldcapacity > max_size() - _Oldcapacity / 2) {

  00036	b8 ff ff ff 3f	 mov	 eax, 1073741823		; 3fffffffH
  0003b	8b d1		 mov	 edx, ecx
  0003d	d1 ea		 shr	 edx, 1
  0003f	2b c2		 sub	 eax, edx
  00041	3b c8		 cmp	 ecx, eax
  00043	76 04		 jbe	 SHORT $LN12@Emplace_re

; 1620 :             return _Newsize; // geometric growth would overflow

  00045	8b c7		 mov	 eax, edi
  00047	eb 08		 jmp	 SHORT $LN13@Emplace_re
$LN12@Emplace_re:

; 1621 :         }
; 1622 : 
; 1623 :         const size_type _Geometric = _Oldcapacity + _Oldcapacity / 2;

  00049	8d 04 0a	 lea	 eax, DWORD PTR [edx+ecx]

; 1624 : 
; 1625 :         if (_Geometric < _Newsize) {

  0004c	3b c7		 cmp	 eax, edi
  0004e	0f 42 c7	 cmovb	 eax, edi
$LN13@Emplace_re:
; File C:\Program Files (x86)\Microsoft Visual Studio\2019\Community\VC\Tools\MSVC\14.27.29110\include\xmemory

; 60   :         if (_Count > _Max_possible) {

  00051	3d ff ff ff 3f	 cmp	 eax, 1073741823		; 3fffffffH
  00056	0f 87 8f 00 00
	00		 ja	 $LN40@Emplace_re

; 62   :         }
; 63   :     }
; 64   : 
; 65   :     return _Count * _Ty_size;

  0005c	c1 e0 02	 shl	 eax, 2

; 807  :         return static_cast<_Ty*>(_Allocate<_New_alignof<_Ty>>(_Get_size_of_n<sizeof(_Ty)>(_Count)));

  0005f	50		 push	 eax

; 65   :     return _Count * _Ty_size;

  00060	89 45 f4	 mov	 DWORD PTR tv436[ebp], eax

; 807  :         return static_cast<_Ty*>(_Allocate<_New_alignof<_Ty>>(_Get_size_of_n<sizeof(_Ty)>(_Count)));

  00063	e8 00 00 00 00	 call	 ??$_Allocate@$07U_Default_allocate_traits@std@@$0A@@std@@YAPAXI@Z ; std::_Allocate<8,std::_Default_allocate_traits,0>
; File C:\Program Files (x86)\Microsoft Visual Studio\2019\Community\VC\Tools\MSVC\14.27.29110\include\vector

; 749  :         _Alty_traits::construct(_Al, _Unfancy(_Newvec + _Whereoff), _STD forward<_Valty>(_Val)...);

  00068	8b 4d 0c	 mov	 ecx, DWORD PTR _<_Val_0>$[ebp]
; File C:\Program Files (x86)\Microsoft Visual Studio\2019\Community\VC\Tools\MSVC\14.27.29110\include\xmemory

; 807  :         return static_cast<_Ty*>(_Allocate<_New_alignof<_Ty>>(_Get_size_of_n<sizeof(_Ty)>(_Count)));

  0006b	8b f8		 mov	 edi, eax
; File C:\Program Files (x86)\Microsoft Visual Studio\2019\Community\VC\Tools\MSVC\14.27.29110\include\vector

; 749  :         _Alty_traits::construct(_Al, _Unfancy(_Newvec + _Whereoff), _STD forward<_Valty>(_Val)...);

  0006d	8d 04 9f	 lea	 eax, DWORD PTR [edi+ebx*4]
; File C:\Program Files (x86)\Microsoft Visual Studio\2019\Community\VC\Tools\MSVC\14.27.29110\include\xmemory

; 807  :         return static_cast<_Ty*>(_Allocate<_New_alignof<_Ty>>(_Get_size_of_n<sizeof(_Ty)>(_Count)));

  00070	83 c4 04	 add	 esp, 4
; File C:\Program Files (x86)\Microsoft Visual Studio\2019\Community\VC\Tools\MSVC\14.27.29110\include\vector

; 752  :         if (_Whereptr == _Mylast) { // at back, provide strong guarantee

  00073	8b 5d 08	 mov	 ebx, DWORD PTR __Whereptr$[ebp]
  00076	89 45 fc	 mov	 DWORD PTR tv435[ebp], eax
  00079	8b 09		 mov	 ecx, DWORD PTR [ecx]
  0007b	89 08		 mov	 DWORD PTR [eax], ecx
  0007d	8b 56 04	 mov	 edx, DWORD PTR [esi+4]
  00080	8b 0e		 mov	 ecx, DWORD PTR [esi]
  00082	3b da		 cmp	 ebx, edx
  00084	75 07		 jne	 SHORT $LN4@Emplace_re

; 753  :             _Umove_if_noexcept(_Myfirst, _Mylast, _Newvec);
; 754  :         } else { // provide basic guarantee

  00086	8b 5d fc	 mov	 ebx, DWORD PTR tv435[ebp]

; 1597 :         _Uninitialized_move(_First, _Last, _Dest, _Getal());

  00089	8b c7		 mov	 eax, edi

; 753  :             _Umove_if_noexcept(_Myfirst, _Mylast, _Newvec);
; 754  :         } else { // provide basic guarantee

  0008b	eb 17		 jmp	 SHORT $LN5@Emplace_re
$LN4@Emplace_re:

; 1592 :         return _Uninitialized_move(_First, _Last, _Dest, _Getal());

  0008d	56		 push	 esi
  0008e	57		 push	 edi
  0008f	53		 push	 ebx
  00090	51		 push	 ecx
  00091	e8 00 00 00 00	 call	 ??$_Uninitialized_move@PAPAUmesh_binding@granny@@V?$allocator@PAUmesh_binding@granny@@@std@@@std@@YAPAPAUmesh_binding@granny@@QAPAU12@0PAPAU12@AAV?$allocator@PAUmesh_binding@granny@@@0@@Z ; std::_Uninitialized_move<granny::mesh_binding * *,std::allocator<granny::mesh_binding *> >
  00096	8b 56 04	 mov	 edx, DWORD PTR [esi+4]
  00099	8b cb		 mov	 ecx, ebx

; 755  :             _Umove(_Myfirst, _Whereptr, _Newvec);
; 756  :             _Constructed_first = _Newvec;
; 757  :             _Umove(_Whereptr, _Mylast, _Newvec + _Whereoff + 1);

  0009b	8b 5d fc	 mov	 ebx, DWORD PTR tv435[ebp]

; 1592 :         return _Uninitialized_move(_First, _Last, _Dest, _Getal());

  0009e	83 c4 10	 add	 esp, 16			; 00000010H

; 755  :             _Umove(_Myfirst, _Whereptr, _Newvec);
; 756  :             _Constructed_first = _Newvec;
; 757  :             _Umove(_Whereptr, _Mylast, _Newvec + _Whereoff + 1);

  000a1	8d 43 04	 lea	 eax, DWORD PTR [ebx+4]
$LN5@Emplace_re:
  000a4	56		 push	 esi
  000a5	50		 push	 eax
  000a6	52		 push	 edx
  000a7	51		 push	 ecx
  000a8	e8 00 00 00 00	 call	 ??$_Uninitialized_move@PAPAUmesh_binding@granny@@V?$allocator@PAUmesh_binding@granny@@@std@@@std@@YAPAPAUmesh_binding@granny@@QAPAU12@0PAPAU12@AAV?$allocator@PAUmesh_binding@granny@@@0@@Z ; std::_Uninitialized_move<granny::mesh_binding * *,std::allocator<granny::mesh_binding *> >

; 1675 :         if (_Myfirst) { // destroy and deallocate old array

  000ad	8b 0e		 mov	 ecx, DWORD PTR [esi]

; 755  :             _Umove(_Myfirst, _Whereptr, _Newvec);
; 756  :             _Constructed_first = _Newvec;
; 757  :             _Umove(_Whereptr, _Mylast, _Newvec + _Whereoff + 1);

  000af	83 c4 10	 add	 esp, 16			; 00000010H

; 1675 :         if (_Myfirst) { // destroy and deallocate old array

  000b2	85 c9		 test	 ecx, ecx
  000b4	74 12		 je	 SHORT $LN33@Emplace_re

; 1676 :             _Destroy(_Myfirst, _Mylast);
; 1677 :             _Getal().deallocate(_Myfirst, static_cast<size_type>(_Myend - _Myfirst));

  000b6	8b 46 08	 mov	 eax, DWORD PTR [esi+8]
  000b9	2b c1		 sub	 eax, ecx
; File C:\Program Files (x86)\Microsoft Visual Studio\2019\Community\VC\Tools\MSVC\14.27.29110\include\xmemory

; 803  :         _Deallocate<_New_alignof<_Ty>>(_Ptr, sizeof(_Ty) * _Count);

  000bb	83 e0 fc	 and	 eax, -4			; fffffffcH
  000be	50		 push	 eax
  000bf	51		 push	 ecx
  000c0	e8 00 00 00 00	 call	 ??$_Deallocate@$07$0A@@std@@YAXPAXI@Z ; std::_Deallocate<8,0>
  000c5	83 c4 08	 add	 esp, 8
$LN33@Emplace_re:
; File C:\Program Files (x86)\Microsoft Visual Studio\2019\Community\VC\Tools\MSVC\14.27.29110\include\vector

; 1681 :         _Mylast  = _Newvec + _Newsize;

  000c8	8b 4d f8	 mov	 ecx, DWORD PTR __Newsize$1$[ebp]

; 758  :         }
; 759  :         _CATCH_ALL
; 760  :         _Destroy(_Constructed_first, _Constructed_last);
; 761  :         _Al.deallocate(_Newvec, _Newcapacity);
; 762  :         _RERAISE;
; 763  :         _CATCH_END
; 764  : 
; 765  :         _Change_array(_Newvec, _Newsize, _Newcapacity);
; 766  :         return _Newvec + _Whereoff;

  000cb	8b c3		 mov	 eax, ebx

; 1680 :         _Myfirst = _Newvec;

  000cd	89 3e		 mov	 DWORD PTR [esi], edi

; 1681 :         _Mylast  = _Newvec + _Newsize;

  000cf	8d 0c 8f	 lea	 ecx, DWORD PTR [edi+ecx*4]
  000d2	89 4e 04	 mov	 DWORD PTR [esi+4], ecx

; 1682 :         _Myend   = _Newvec + _Newcapacity;

  000d5	8b 4d f4	 mov	 ecx, DWORD PTR tv436[ebp]
  000d8	03 cf		 add	 ecx, edi

; 758  :         }
; 759  :         _CATCH_ALL
; 760  :         _Destroy(_Constructed_first, _Constructed_last);
; 761  :         _Al.deallocate(_Newvec, _Newcapacity);
; 762  :         _RERAISE;
; 763  :         _CATCH_END
; 764  : 
; 765  :         _Change_array(_Newvec, _Newsize, _Newcapacity);
; 766  :         return _Newvec + _Whereoff;

  000da	5f		 pop	 edi

; 1682 :         _Myend   = _Newvec + _Newcapacity;

  000db	89 4e 08	 mov	 DWORD PTR [esi+8], ecx

; 758  :         }
; 759  :         _CATCH_ALL
; 760  :         _Destroy(_Constructed_first, _Constructed_last);
; 761  :         _Al.deallocate(_Newvec, _Newcapacity);
; 762  :         _RERAISE;
; 763  :         _CATCH_END
; 764  : 
; 765  :         _Change_array(_Newvec, _Newsize, _Newcapacity);
; 766  :         return _Newvec + _Whereoff;

  000de	5e		 pop	 esi
  000df	5b		 pop	 ebx

; 767  :     }

  000e0	8b e5		 mov	 esp, ebp
  000e2	5d		 pop	 ebp
  000e3	c2 08 00	 ret	 8
$LN39@Emplace_re:

; 738  :             _Xlength();

  000e6	e8 00 00 00 00	 call	 ?_Xlength@?$vector@PAUmesh_binding@granny@@V?$allocator@PAUmesh_binding@granny@@@std@@@std@@CAXXZ ; std::vector<granny::mesh_binding *,std::allocator<granny::mesh_binding *> >::_Xlength
$LN40@Emplace_re:
; File C:\Program Files (x86)\Microsoft Visual Studio\2019\Community\VC\Tools\MSVC\14.27.29110\include\xmemory

; 61   :             _Throw_bad_array_new_length(); // multiply overflow

  000eb	e8 00 00 00 00	 call	 ?_Throw_bad_array_new_length@std@@YAXXZ ; std::_Throw_bad_array_new_length
$LN37@Emplace_re:
  000f0	cc		 int	 3
??$_Emplace_reallocate@PAUmesh_binding@granny@@@?$vector@PAUmesh_binding@granny@@V?$allocator@PAUmesh_binding@granny@@@std@@@std@@QAEPAPAUmesh_binding@granny@@QAPAU23@$$QAPAU23@@Z ENDP ; std::vector<granny::mesh_binding *,std::allocator<granny::mesh_binding *> >::_Emplace_reallocate<granny::mesh_binding *>
_TEXT	ENDS
; Function compile flags: /Ogtp
; File C:\Program Files (x86)\Microsoft Visual Studio\2019\Community\VC\Tools\MSVC\14.27.29110\include\vector
;	COMDAT ?_Xlength@?$vector@PAUmesh_binding@granny@@V?$allocator@PAUmesh_binding@granny@@@std@@@std@@CAXXZ
_TEXT	SEGMENT
?_Xlength@?$vector@PAUmesh_binding@granny@@V?$allocator@PAUmesh_binding@granny@@@std@@@std@@CAXXZ PROC ; std::vector<granny::mesh_binding *,std::allocator<granny::mesh_binding *> >::_Xlength, COMDAT

; 1704 :         _Xlength_error("vector too long");

  00000	68 00 00 00 00	 push	 OFFSET ??_C@_0BA@FOIKENOD@vector?5too?5long@
  00005	e8 00 00 00 00	 call	 ?_Xlength_error@std@@YAXPBD@Z ; std::_Xlength_error
$LN3@Xlength:
  0000a	cc		 int	 3
?_Xlength@?$vector@PAUmesh_binding@granny@@V?$allocator@PAUmesh_binding@granny@@@std@@@std@@CAXXZ ENDP ; std::vector<granny::mesh_binding *,std::allocator<granny::mesh_binding *> >::_Xlength
_TEXT	ENDS
; Function compile flags: /Ogtp
; File C:\Program Files (x86)\Microsoft Visual Studio\2019\Community\VC\Tools\MSVC\14.27.29110\include\vector
; File C:\Program Files (x86)\Microsoft Visual Studio\2019\Community\VC\Tools\MSVC\14.27.29110\include\xmemory
; File C:\Program Files (x86)\Microsoft Visual Studio\2019\Community\VC\Tools\MSVC\14.27.29110\include\vector
; File C:\Program Files (x86)\Microsoft Visual Studio\2019\Community\VC\Tools\MSVC\14.27.29110\include\xmemory
; File C:\Program Files (x86)\Microsoft Visual Studio\2019\Community\VC\Tools\MSVC\14.27.29110\include\vector
; File C:\Program Files (x86)\Microsoft Visual Studio\2019\Community\VC\Tools\MSVC\14.27.29110\include\xmemory
; File C:\Program Files (x86)\Microsoft Visual Studio\2019\Community\VC\Tools\MSVC\14.27.29110\include\vector
; File C:\Program Files (x86)\Microsoft Visual Studio\2019\Community\VC\Tools\MSVC\14.27.29110\include\xmemory
; File C:\Program Files (x86)\Microsoft Visual Studio\2019\Community\VC\Tools\MSVC\14.27.29110\include\vector
; File C:\Program Files (x86)\Microsoft Visual Studio\2019\Community\VC\Tools\MSVC\14.27.29110\include\xmemory
; File C:\Program Files (x86)\Microsoft Visual Studio\2019\Community\VC\Tools\MSVC\14.27.29110\include\vector
;	COMDAT ?_Reallocate_exactly@?$vector@PAUmesh_binding@granny@@V?$allocator@PAUmesh_binding@granny@@@std@@@std@@AAEXI@Z
_TEXT	SEGMENT
tv254 = 8						; size = 4
__Newcapacity$ = 8					; size = 4
?_Reallocate_exactly@?$vector@PAUmesh_binding@granny@@V?$allocator@PAUmesh_binding@granny@@@std@@@std@@AAEXI@Z PROC ; std::vector<granny::mesh_binding *,std::allocator<granny::mesh_binding *> >::_Reallocate_exactly, COMDAT
; _this$ = ecx

; 1251 :     void _Reallocate_exactly(const size_type _Newcapacity) {

  00000	55		 push	 ebp
  00001	8b ec		 mov	 ebp, esp
; File C:\Program Files (x86)\Microsoft Visual Studio\2019\Community\VC\Tools\MSVC\14.27.29110\include\xmemory

; 60   :         if (_Count > _Max_possible) {

  00003	8b 45 08	 mov	 eax, DWORD PTR __Newcapacity$[ebp]
; File C:\Program Files (x86)\Microsoft Visual Studio\2019\Community\VC\Tools\MSVC\14.27.29110\include\vector

; 1251 :     void _Reallocate_exactly(const size_type _Newcapacity) {

  00006	53		 push	 ebx
  00007	56		 push	 esi
  00008	8b f1		 mov	 esi, ecx
  0000a	57		 push	 edi

; 1252 :         // set capacity to _Newcapacity (without geometric growth), provide strong guarantee
; 1253 :         auto& _My_data    = _Mypair._Myval2;
; 1254 :         pointer& _Myfirst = _My_data._Myfirst;
; 1255 :         pointer& _Mylast  = _My_data._Mylast;
; 1256 : 
; 1257 :         const auto _Size = static_cast<size_type>(_Mylast - _Myfirst);

  0000b	8b 7e 04	 mov	 edi, DWORD PTR [esi+4]
  0000e	2b 3e		 sub	 edi, DWORD PTR [esi]
  00010	c1 ff 02	 sar	 edi, 2
; File C:\Program Files (x86)\Microsoft Visual Studio\2019\Community\VC\Tools\MSVC\14.27.29110\include\xmemory

; 60   :         if (_Count > _Max_possible) {

  00013	3d ff ff ff 3f	 cmp	 eax, 1073741823		; 3fffffffH
  00018	77 4c		 ja	 SHORT $LN26@Reallocate

; 62   :         }
; 63   :     }
; 64   : 
; 65   :     return _Count * _Ty_size;

  0001a	c1 e0 02	 shl	 eax, 2

; 807  :         return static_cast<_Ty*>(_Allocate<_New_alignof<_Ty>>(_Get_size_of_n<sizeof(_Ty)>(_Count)));

  0001d	50		 push	 eax

; 65   :     return _Count * _Ty_size;

  0001e	89 45 08	 mov	 DWORD PTR tv254[ebp], eax

; 807  :         return static_cast<_Ty*>(_Allocate<_New_alignof<_Ty>>(_Get_size_of_n<sizeof(_Ty)>(_Count)));

  00021	e8 00 00 00 00	 call	 ??$_Allocate@$07U_Default_allocate_traits@std@@$0A@@std@@YAPAXI@Z ; std::_Allocate<8,std::_Default_allocate_traits,0>
; File C:\Program Files (x86)\Microsoft Visual Studio\2019\Community\VC\Tools\MSVC\14.27.29110\include\vector

; 1597 :         _Uninitialized_move(_First, _Last, _Dest, _Getal());

  00026	56		 push	 esi
; File C:\Program Files (x86)\Microsoft Visual Studio\2019\Community\VC\Tools\MSVC\14.27.29110\include\xmemory

; 807  :         return static_cast<_Ty*>(_Allocate<_New_alignof<_Ty>>(_Get_size_of_n<sizeof(_Ty)>(_Count)));

  00027	8b d8		 mov	 ebx, eax
; File C:\Program Files (x86)\Microsoft Visual Studio\2019\Community\VC\Tools\MSVC\14.27.29110\include\vector

; 1597 :         _Uninitialized_move(_First, _Last, _Dest, _Getal());

  00029	53		 push	 ebx
  0002a	ff 76 04	 push	 DWORD PTR [esi+4]
  0002d	ff 36		 push	 DWORD PTR [esi]
  0002f	e8 00 00 00 00	 call	 ??$_Uninitialized_move@PAPAUmesh_binding@granny@@V?$allocator@PAUmesh_binding@granny@@@std@@@std@@YAPAPAUmesh_binding@granny@@QAPAU12@0PAPAU12@AAV?$allocator@PAUmesh_binding@granny@@@0@@Z ; std::_Uninitialized_move<granny::mesh_binding * *,std::allocator<granny::mesh_binding *> >

; 1675 :         if (_Myfirst) { // destroy and deallocate old array

  00034	8b 0e		 mov	 ecx, DWORD PTR [esi]

; 1597 :         _Uninitialized_move(_First, _Last, _Dest, _Getal());

  00036	83 c4 14	 add	 esp, 20			; 00000014H

; 1675 :         if (_Myfirst) { // destroy and deallocate old array

  00039	85 c9		 test	 ecx, ecx
  0003b	74 12		 je	 SHORT $LN20@Reallocate

; 1676 :             _Destroy(_Myfirst, _Mylast);
; 1677 :             _Getal().deallocate(_Myfirst, static_cast<size_type>(_Myend - _Myfirst));

  0003d	8b 46 08	 mov	 eax, DWORD PTR [esi+8]
  00040	2b c1		 sub	 eax, ecx
; File C:\Program Files (x86)\Microsoft Visual Studio\2019\Community\VC\Tools\MSVC\14.27.29110\include\xmemory

; 803  :         _Deallocate<_New_alignof<_Ty>>(_Ptr, sizeof(_Ty) * _Count);

  00042	83 e0 fc	 and	 eax, -4			; fffffffcH
  00045	50		 push	 eax
  00046	51		 push	 ecx
  00047	e8 00 00 00 00	 call	 ??$_Deallocate@$07$0A@@std@@YAXPAXI@Z ; std::_Deallocate<8,0>
  0004c	83 c4 08	 add	 esp, 8
$LN20@Reallocate:
; File C:\Program Files (x86)\Microsoft Visual Studio\2019\Community\VC\Tools\MSVC\14.27.29110\include\vector

; 1681 :         _Mylast  = _Newvec + _Newsize;

  0004f	8d 04 bb	 lea	 eax, DWORD PTR [ebx+edi*4]
  00052	89 1e		 mov	 DWORD PTR [esi], ebx
  00054	89 46 04	 mov	 DWORD PTR [esi+4], eax

; 1682 :         _Myend   = _Newvec + _Newcapacity;

  00057	8b 45 08	 mov	 eax, DWORD PTR tv254[ebp]
  0005a	03 c3		 add	 eax, ebx
  0005c	5f		 pop	 edi
  0005d	89 46 08	 mov	 DWORD PTR [esi+8], eax
  00060	5e		 pop	 esi
  00061	5b		 pop	 ebx

; 1269 :     }

  00062	5d		 pop	 ebp
  00063	c2 04 00	 ret	 4
$LN26@Reallocate:
; File C:\Program Files (x86)\Microsoft Visual Studio\2019\Community\VC\Tools\MSVC\14.27.29110\include\xmemory

; 61   :             _Throw_bad_array_new_length(); // multiply overflow

  00066	e8 00 00 00 00	 call	 ?_Throw_bad_array_new_length@std@@YAXXZ ; std::_Throw_bad_array_new_length
$LN24@Reallocate:
  0006b	cc		 int	 3
?_Reallocate_exactly@?$vector@PAUmesh_binding@granny@@V?$allocator@PAUmesh_binding@granny@@@std@@@std@@AAEXI@Z ENDP ; std::vector<granny::mesh_binding *,std::allocator<granny::mesh_binding *> >::_Reallocate_exactly
_TEXT	ENDS
; Function compile flags: /Ogtp
; File C:\DS Project\DS Files\Source\ClientSource\Client\eterGrnLib\ModelInstanceModel.cpp
;	COMDAT ?__GetWorldPosePtr@CGrannyModelInstance@@IBEPAUworld_pose@granny@@XZ
_TEXT	SEGMENT
?__GetWorldPosePtr@CGrannyModelInstance@@IBEPAUworld_pose@granny@@XZ PROC ; CGrannyModelInstance::__GetWorldPosePtr, COMDAT
; _this$ = ecx

; 67   : 	if (m_pgrnWorldPoseReal)

  00000	8b 41 3c	 mov	 eax, DWORD PTR [ecx+60]
  00003	85 c0		 test	 eax, eax
  00005	75 13		 jne	 SHORT $LN1@GetWorldPo

; 68   : 		return m_pgrnWorldPoseReal;
; 69   : 
; 70   : 	if (m_ppkSkeletonInst && *m_ppkSkeletonInst)

  00007	8b 41 74	 mov	 eax, DWORD PTR [ecx+116]
  0000a	85 c0		 test	 eax, eax
  0000c	74 0a		 je	 SHORT $LN3@GetWorldPo
  0000e	8b 00		 mov	 eax, DWORD PTR [eax]
  00010	85 c0		 test	 eax, eax
  00012	74 04		 je	 SHORT $LN3@GetWorldPo

; 71   : 		return (*m_ppkSkeletonInst)->m_pgrnWorldPoseReal;

  00014	8b 40 3c	 mov	 eax, DWORD PTR [eax+60]

; 75   : }

  00017	c3		 ret	 0
$LN3@GetWorldPo:

; 72   : 
; 73   : 	assert(m_ppkSkeletonInst!=NULL && "__GetWorldPosePtr - NO HAVE SKELETON");
; 74   : 	return NULL;

  00018	33 c0		 xor	 eax, eax
$LN1@GetWorldPo:

; 75   : }

  0001a	c3		 ret	 0
?__GetWorldPosePtr@CGrannyModelInstance@@IBEPAUworld_pose@granny@@XZ ENDP ; CGrannyModelInstance::__GetWorldPosePtr
_TEXT	ENDS
; Function compile flags: /Ogtp
; File C:\DS Project\DS Files\Source\ClientSource\Client\eterGrnLib\ModelInstanceModel.cpp
;	COMDAT ?__GetDeformableVertexBufferRef@CGrannyModelInstance@@IAEAAVCGraphicVertexBuffer@@XZ
_TEXT	SEGMENT
?__GetDeformableVertexBufferRef@CGrannyModelInstance@@IAEAAVCGraphicVertexBuffer@@XZ PROC ; CGrannyModelInstance::__GetDeformableVertexBufferRef, COMDAT
; _this$ = ecx

; 224  : 	if (m_pkSharedDeformableVertexBuffer)

  00000	8b 41 4c	 mov	 eax, DWORD PTR [ecx+76]
  00003	85 c0		 test	 eax, eax
  00005	75 03		 jne	 SHORT $LN1@GetDeforma

; 225  : 		return *m_pkSharedDeformableVertexBuffer;
; 226  : 
; 227  : 	return m_kLocalDeformableVertexBuffer;

  00007	8d 41 50	 lea	 eax, DWORD PTR [ecx+80]
$LN1@GetDeforma:

; 228  : }

  0000a	c3		 ret	 0
?__GetDeformableVertexBufferRef@CGrannyModelInstance@@IAEAAVCGraphicVertexBuffer@@XZ ENDP ; CGrannyModelInstance::__GetDeformableVertexBufferRef
_TEXT	ENDS
; Function compile flags: /Ogtp
; File C:\DS Project\DS Files\Source\ClientSource\Client\eterGrnLib\ModelInstanceModel.cpp
;	COMDAT ?__GetDeformableD3DVertexBufferPtr@CGrannyModelInstance@@IAEPAUIDirect3DVertexBuffer8@@XZ
_TEXT	SEGMENT
?__GetDeformableD3DVertexBufferPtr@CGrannyModelInstance@@IAEPAUIDirect3DVertexBuffer8@@XZ PROC ; CGrannyModelInstance::__GetDeformableD3DVertexBufferPtr, COMDAT
; _this$ = ecx

; 219  : 	return __GetDeformableVertexBufferRef().GetD3DVertexBuffer();

  00000	e8 00 00 00 00	 call	 ?__GetDeformableVertexBufferRef@CGrannyModelInstance@@IAEAAVCGraphicVertexBuffer@@XZ ; CGrannyModelInstance::__GetDeformableVertexBufferRef
  00005	8b 40 04	 mov	 eax, DWORD PTR [eax+4]

; 220  : }

  00008	c3		 ret	 0
?__GetDeformableD3DVertexBufferPtr@CGrannyModelInstance@@IAEPAUIDirect3DVertexBuffer8@@XZ ENDP ; CGrannyModelInstance::__GetDeformableD3DVertexBufferPtr
_TEXT	ENDS
; Function compile flags: /Ogtp
; File C:\DS Project\DS Files\Source\ClientSource\Client\eterGrnLib\ModelInstanceModel.cpp
;	COMDAT ?__SetSharedDeformableVertexBuffer@CGrannyModelInstance@@IAEXPAVCGraphicVertexBuffer@@@Z
_TEXT	SEGMENT
_pkSharedDeformableVertexBuffer$ = 8			; size = 4
?__SetSharedDeformableVertexBuffer@CGrannyModelInstance@@IAEXPAVCGraphicVertexBuffer@@@Z PROC ; CGrannyModelInstance::__SetSharedDeformableVertexBuffer, COMDAT
; _this$ = ecx

; 205  : {

  00000	55		 push	 ebp
  00001	8b ec		 mov	 ebp, esp

; 206  : 	m_pkSharedDeformableVertexBuffer = pkSharedDeformableVertexBuffer;

  00003	8b 45 08	 mov	 eax, DWORD PTR _pkSharedDeformableVertexBuffer$[ebp]
  00006	89 41 4c	 mov	 DWORD PTR [ecx+76], eax

; 207  : }

  00009	5d		 pop	 ebp
  0000a	c2 04 00	 ret	 4
?__SetSharedDeformableVertexBuffer@CGrannyModelInstance@@IAEXPAVCGraphicVertexBuffer@@@Z ENDP ; CGrannyModelInstance::__SetSharedDeformableVertexBuffer
_TEXT	ENDS
; Function compile flags: /Ogtp
; File C:\DS Project\DS Files\Source\ClientSource\Client\eterGrnLib\ModelInstanceModel.cpp
;	COMDAT ?__IsDeformableVertexBuffer@CGrannyModelInstance@@IAE_NXZ
_TEXT	SEGMENT
?__IsDeformableVertexBuffer@CGrannyModelInstance@@IAE_NXZ PROC ; CGrannyModelInstance::__IsDeformableVertexBuffer, COMDAT
; _this$ = ecx

; 211  : 	if (m_pkSharedDeformableVertexBuffer)

  00000	83 79 4c 00	 cmp	 DWORD PTR [ecx+76], 0
  00004	74 03		 je	 SHORT $LN2@IsDeformab

; 212  : 		return true;

  00006	b0 01		 mov	 al, 1

; 215  : }

  00008	c3		 ret	 0
$LN2@IsDeformab:

; 213  : 
; 214  : 	return m_kLocalDeformableVertexBuffer.IsEmpty();

  00009	83 c1 50	 add	 ecx, 80			; 00000050H
  0000c	e9 00 00 00 00	 jmp	 ?IsEmpty@CGraphicVertexBuffer@@QBE_NXZ ; CGraphicVertexBuffer::IsEmpty
?__IsDeformableVertexBuffer@CGrannyModelInstance@@IAE_NXZ ENDP ; CGrannyModelInstance::__IsDeformableVertexBuffer
_TEXT	ENDS
; Function compile flags: /Ogtp
; File C:\DS Project\DS Files\Source\ClientSource\Client\eterGrnLib\ModelInstanceModel.cpp
; File C:\Program Files (x86)\Microsoft Visual Studio\2019\Community\VC\Tools\MSVC\14.27.29110\include\vector
; File C:\DS Project\DS Files\Source\ClientSource\Client\eterGrnLib\ModelInstanceModel.cpp
;	COMDAT ?__GetMeshBoneIndices@CGrannyModelInstance@@IBEPBHI@Z
_TEXT	SEGMENT
_iMeshBinding$ = 8					; size = 4
?__GetMeshBoneIndices@CGrannyModelInstance@@IBEPBHI@Z PROC ; CGrannyModelInstance::__GetMeshBoneIndices, COMDAT
; _this$ = ecx

; 84   : {

  00000	55		 push	 ebp
  00001	8b ec		 mov	 ebp, esp
; File C:\Program Files (x86)\Microsoft Visual Studio\2019\Community\VC\Tools\MSVC\14.27.29110\include\vector

; 1514 :         return _My_data._Myfirst[_Pos];

  00003	8b 49 40	 mov	 ecx, DWORD PTR [ecx+64]
  00006	8b 45 08	 mov	 eax, DWORD PTR _iMeshBinding$[ebp]
; File C:\DS Project\DS Files\Source\ClientSource\Client\eterGrnLib\ModelInstanceModel.cpp

; 86   : 	return GrannyGetMeshBindingToBoneIndices(m_vct_pgrnMeshBinding[iMeshBinding]);

  00009	ff 34 81	 push	 DWORD PTR [ecx+eax*4]
  0000c	ff 15 00 00 00
	00		 call	 DWORD PTR __imp__GrannyGetMeshBindingToBoneIndices@4

; 87   : }

  00012	5d		 pop	 ebp
  00013	c2 04 00	 ret	 4
?__GetMeshBoneIndices@CGrannyModelInstance@@IBEPBHI@Z ENDP ; CGrannyModelInstance::__GetMeshBoneIndices
_TEXT	ENDS
; Function compile flags: /Ogtp
; File C:\DS Project\DS Files\Source\ClientSource\Client\eterGrnLib\ModelInstanceModel.cpp
; File C:\Program Files (x86)\Microsoft Visual Studio\2019\Community\VC\Tools\MSVC\14.27.29110\include\vector
; File C:\Program Files (x86)\Microsoft Visual Studio\2019\Community\VC\Tools\MSVC\14.27.29110\include\algorithm
; File C:\DS Project\DS Files\Source\ClientSource\Client\eterGrnLib\ModelInstanceModel.cpp
;	COMDAT ?__DestroyMeshBindingVector@CGrannyModelInstance@@IAEXXZ
_TEXT	SEGMENT
_this$1$ = -8						; size = 4
tv231 = -4						; size = 4
?__DestroyMeshBindingVector@CGrannyModelInstance@@IAEXXZ PROC ; CGrannyModelInstance::__DestroyMeshBindingVector, COMDAT
; _this$ = ecx

; 114  : {

  00000	55		 push	 ebp
  00001	8b ec		 mov	 ebp, esp
  00003	83 ec 08	 sub	 esp, 8
  00006	56		 push	 esi
  00007	57		 push	 edi
  00008	8b f9		 mov	 edi, ecx
  0000a	89 7d f8	 mov	 DWORD PTR _this$1$[ebp], edi
; File C:\Program Files (x86)\Microsoft Visual Studio\2019\Community\VC\Tools\MSVC\14.27.29110\include\vector

; 42   :     _Vector_const_iterator(_Tptr _Parg, const _Container_base* _Pvector) noexcept : _Ptr(_Parg) {

  0000d	8b 47 44	 mov	 eax, DWORD PTR [edi+68]
  00010	8b 77 40	 mov	 esi, DWORD PTR [edi+64]
; File C:\Program Files (x86)\Microsoft Visual Studio\2019\Community\VC\Tools\MSVC\14.27.29110\include\algorithm

; 235  :     for (; _UFirst != _ULast; ++_UFirst) {

  00013	3b f0		 cmp	 esi, eax
  00015	74 24		 je	 SHORT $LN24@DestroyMes
  00017	53		 push	 ebx
  00018	8b 1d 00 00 00
	00		 mov	 ebx, DWORD PTR __imp__GrannyFreeMeshBinding@4
  0001e	8b f8		 mov	 edi, eax
$LL18@DestroyMes:

; 236  :         _Func(*_UFirst);

  00020	ff 36		 push	 DWORD PTR [esi]
  00022	ff d3		 call	 ebx
  00024	83 c6 04	 add	 esi, 4
  00027	3b f7		 cmp	 esi, edi
  00029	75 f5		 jne	 SHORT $LL18@DestroyMes
; File C:\DS Project\DS Files\Source\ClientSource\Client\eterGrnLib\ModelInstanceModel.cpp

; 116  : 	m_vct_pgrnMeshBinding.clear();

  0002b	8b 7d f8	 mov	 edi, DWORD PTR _this$1$[ebp]
  0002e	5b		 pop	 ebx
  0002f	8b 47 40	 mov	 eax, DWORD PTR [edi+64]
  00032	89 47 44	 mov	 DWORD PTR [edi+68], eax
  00035	5f		 pop	 edi

; 117  : }

  00036	5e		 pop	 esi
  00037	8b e5		 mov	 esp, ebp
  00039	5d		 pop	 ebp
  0003a	c3		 ret	 0
$LN24@DestroyMes:

; 116  : 	m_vct_pgrnMeshBinding.clear();

  0003b	89 77 44	 mov	 DWORD PTR [edi+68], esi
  0003e	5f		 pop	 edi

; 117  : }

  0003f	5e		 pop	 esi
  00040	8b e5		 mov	 esp, ebp
  00042	5d		 pop	 ebp
  00043	c3		 ret	 0
?__DestroyMeshBindingVector@CGrannyModelInstance@@IAEXXZ ENDP ; CGrannyModelInstance::__DestroyMeshBindingVector
_TEXT	ENDS
; Function compile flags: /Ogtp
; File C:\DS Project\DS Files\Source\ClientSource\Client\eterGrnLib\ModelInstanceModel.cpp
; File C:\Program Files (x86)\Microsoft Visual Studio\2019\Community\VC\Tools\MSVC\14.27.29110\include\vector
; File C:\DS Project\DS Files\Source\ClientSource\Client\eterGrnLib\ModelInstanceModel.cpp
; File C:\Program Files (x86)\Microsoft Visual Studio\2019\Community\VC\Tools\MSVC\14.27.29110\include\vector
; File C:\DS Project\DS Files\Source\ClientSource\Client\eterGrnLib\ModelInstanceModel.cpp
; File C:\Program Files (x86)\Microsoft Visual Studio\2019\Community\VC\Tools\MSVC\14.27.29110\include\vector
; File C:\DS Project\DS Files\Source\ClientSource\Client\eterGrnLib\ModelInstanceModel.cpp
; File C:\Program Files (x86)\Microsoft Visual Studio\2019\Community\VC\Tools\MSVC\14.27.29110\include\vector
; File C:\DS Project\DS Files\Source\ClientSource\Client\eterGrnLib\ModelInstanceModel.cpp
; File C:\Program Files (x86)\Microsoft Visual Studio\2019\Community\VC\Tools\MSVC\14.27.29110\include\vector
; File C:\DS Project\DS Files\Source\ClientSource\Client\eterGrnLib\ModelInstanceModel.cpp
; File C:\Program Files (x86)\Microsoft Visual Studio\2019\Community\VC\Tools\MSVC\14.27.29110\include\vector
; File C:\DS Project\DS Files\Source\ClientSource\Client\eterGrnLib\ModelInstanceModel.cpp
;	COMDAT ?__CreateMeshBindingVector@CGrannyModelInstance@@IAE_NPAV1@@Z
_TEXT	SEGMENT
_pgrnDstSkeleton$1$ = -4				; size = 4
$T1 = 8							; size = 4
_pkDstModelInst$ = 8					; size = 4
?__CreateMeshBindingVector@CGrannyModelInstance@@IAE_NPAV1@@Z PROC ; CGrannyModelInstance::__CreateMeshBindingVector, COMDAT
; _this$ = ecx

; 90   : {

  00000	55		 push	 ebp
  00001	8b ec		 mov	 ebp, esp
  00003	51		 push	 ecx
  00004	53		 push	 ebx
  00005	57		 push	 edi
  00006	8b f9		 mov	 edi, ecx

; 91   : 	assert(m_vct_pgrnMeshBinding.empty());
; 92   : 
; 93   : 	if (!m_pModel)

  00008	8b 4f 04	 mov	 ecx, DWORD PTR [edi+4]
  0000b	85 c9		 test	 ecx, ecx
  0000d	0f 84 af 00 00
	00		 je	 $LN27@CreateMesh

; 94   : 		return false;
; 95   : 
; 96   : 	granny_model* pgrnModel = m_pModel->GetGrannyModelPointer();

  00013	e8 00 00 00 00	 call	 ?GetGrannyModelPointer@CGrannyModel@@QAEPAUgranny_model@@XZ ; CGrannyModel::GetGrannyModelPointer
  00018	8b d8		 mov	 ebx, eax

; 97   : 	if (!pgrnModel)

  0001a	85 db		 test	 ebx, ebx
  0001c	0f 84 a0 00 00
	00		 je	 $LN27@CreateMesh

; 99   : 
; 100  : 	granny_skeleton* pgrnDstSkeleton = pgrnModel->Skeleton;

  00022	8b 53 04	 mov	 edx, DWORD PTR [ebx+4]
  00025	56		 push	 esi

; 101  : 	if (pkDstModelInst && pkDstModelInst->m_pModel && pkDstModelInst->m_pModel->GetGrannyModelPointer())

  00026	8b 75 08	 mov	 esi, DWORD PTR _pkDstModelInst$[ebp]
  00029	89 55 fc	 mov	 DWORD PTR _pgrnDstSkeleton$1$[ebp], edx
  0002c	85 f6		 test	 esi, esi
  0002e	74 1e		 je	 SHORT $LN7@CreateMesh
  00030	8b 4e 04	 mov	 ecx, DWORD PTR [esi+4]
  00033	85 c9		 test	 ecx, ecx
  00035	74 17		 je	 SHORT $LN7@CreateMesh
  00037	e8 00 00 00 00	 call	 ?GetGrannyModelPointer@CGrannyModel@@QAEPAUgranny_model@@XZ ; CGrannyModel::GetGrannyModelPointer
  0003c	85 c0		 test	 eax, eax
  0003e	74 0e		 je	 SHORT $LN7@CreateMesh

; 102  : 		pgrnDstSkeleton = pkDstModelInst->m_pModel->GetGrannyModelPointer()->Skeleton;

  00040	8b 4e 04	 mov	 ecx, DWORD PTR [esi+4]
  00043	e8 00 00 00 00	 call	 ?GetGrannyModelPointer@CGrannyModel@@QAEPAUgranny_model@@XZ ; CGrannyModel::GetGrannyModelPointer
  00048	8b 40 04	 mov	 eax, DWORD PTR [eax+4]
  0004b	89 45 fc	 mov	 DWORD PTR _pgrnDstSkeleton$1$[ebp], eax
$LN7@CreateMesh:
; File C:\Program Files (x86)\Microsoft Visual Studio\2019\Community\VC\Tools\MSVC\14.27.29110\include\vector

; 1494 :         return static_cast<size_type>(_My_data._Myend - _My_data._Myfirst);

  0004e	8b 47 48	 mov	 eax, DWORD PTR [edi+72]
; File C:\DS Project\DS Files\Source\ClientSource\Client\eterGrnLib\ModelInstanceModel.cpp

; 104  : 	m_vct_pgrnMeshBinding.reserve(pgrnModel->MeshBindingCount);

  00051	8d 77 40	 lea	 esi, DWORD PTR [edi+64]
; File C:\Program Files (x86)\Microsoft Visual Studio\2019\Community\VC\Tools\MSVC\14.27.29110\include\vector

; 1494 :         return static_cast<size_type>(_My_data._Myend - _My_data._Myfirst);

  00054	2b 06		 sub	 eax, DWORD PTR [esi]
; File C:\DS Project\DS Files\Source\ClientSource\Client\eterGrnLib\ModelInstanceModel.cpp

; 104  : 	m_vct_pgrnMeshBinding.reserve(pgrnModel->MeshBindingCount);

  00056	8b 4b 4c	 mov	 ecx, DWORD PTR [ebx+76]
; File C:\Program Files (x86)\Microsoft Visual Studio\2019\Community\VC\Tools\MSVC\14.27.29110\include\vector

; 1494 :         return static_cast<size_type>(_My_data._Myend - _My_data._Myfirst);

  00059	c1 f8 02	 sar	 eax, 2

; 1306 :         if (_Newcapacity > capacity()) { // something to do (reserve() never shrinks)

  0005c	3b c8		 cmp	 ecx, eax
  0005e	76 13		 jbe	 SHORT $LN10@CreateMesh

; 1307 :             if (_Newcapacity > max_size()) {

  00060	81 f9 ff ff ff
	3f		 cmp	 ecx, 1073741823		; 3fffffffH
  00066	77 64		 ja	 SHORT $LN30@CreateMesh

; 1309 :             }
; 1310 : 
; 1311 :             _Reallocate_exactly(_Newcapacity);

  00068	51		 push	 ecx
  00069	8b ce		 mov	 ecx, esi
  0006b	e8 00 00 00 00	 call	 ?_Reallocate_exactly@?$vector@PAUmesh_binding@granny@@V?$allocator@PAUmesh_binding@granny@@@std@@@std@@AAEXI@Z ; std::vector<granny::mesh_binding *,std::allocator<granny::mesh_binding *> >::_Reallocate_exactly
  00070	8b 4b 4c	 mov	 ecx, DWORD PTR [ebx+76]
$LN10@CreateMesh:
; File C:\DS Project\DS Files\Source\ClientSource\Client\eterGrnLib\ModelInstanceModel.cpp

; 107  : 	for (iMeshBinding = 0; iMeshBinding != pgrnModel->MeshBindingCount; ++iMeshBinding)

  00073	33 ff		 xor	 edi, edi
  00075	85 c9		 test	 ecx, ecx
  00077	74 3e		 je	 SHORT $LN3@CreateMesh
  00079	0f 1f 80 00 00
	00 00		 npad	 7
$LL4@CreateMesh:

; 108  : 		m_vct_pgrnMeshBinding.push_back(GrannyNewMeshBinding(pgrnModel->MeshBindings[iMeshBinding].Mesh, pgrnModel->Skeleton, pgrnDstSkeleton));

  00080	ff 75 fc	 push	 DWORD PTR _pgrnDstSkeleton$1$[ebp]
  00083	8b 43 50	 mov	 eax, DWORD PTR [ebx+80]
  00086	ff 73 04	 push	 DWORD PTR [ebx+4]
  00089	ff 34 b8	 push	 DWORD PTR [eax+edi*4]
  0008c	ff 15 00 00 00
	00		 call	 DWORD PTR __imp__GrannyNewMeshBinding@12
; File C:\Program Files (x86)\Microsoft Visual Studio\2019\Community\VC\Tools\MSVC\14.27.29110\include\vector

; 704  :         if (_Mylast != _My_data._Myend) {

  00092	8b 4e 04	 mov	 ecx, DWORD PTR [esi+4]
; File C:\DS Project\DS Files\Source\ClientSource\Client\eterGrnLib\ModelInstanceModel.cpp

; 108  : 		m_vct_pgrnMeshBinding.push_back(GrannyNewMeshBinding(pgrnModel->MeshBindings[iMeshBinding].Mesh, pgrnModel->Skeleton, pgrnDstSkeleton));

  00095	89 45 08	 mov	 DWORD PTR $T1[ebp], eax
; File C:\Program Files (x86)\Microsoft Visual Studio\2019\Community\VC\Tools\MSVC\14.27.29110\include\vector

; 704  :         if (_Mylast != _My_data._Myend) {

  00098	3b 4e 08	 cmp	 ecx, DWORD PTR [esi+8]
  0009b	74 08		 je	 SHORT $LN19@CreateMesh

; 687  :         _Alty_traits::construct(_Getal(), _Unfancy(_Mylast), _STD forward<_Valty>(_Val)...);

  0009d	89 01		 mov	 DWORD PTR [ecx], eax

; 688  :         _Orphan_range(_Mylast, _Mylast);
; 689  :         _Ty& _Result = *_Mylast;
; 690  :         ++_Mylast;

  0009f	83 46 04 04	 add	 DWORD PTR [esi+4], 4

; 705  :             return _Emplace_back_with_unused_capacity(_STD forward<_Valty>(_Val)...);

  000a3	eb 0c		 jmp	 SHORT $LN2@CreateMesh
$LN19@CreateMesh:

; 706  :         }
; 707  : 
; 708  :         _Ty& _Result = *_Emplace_reallocate(_Mylast, _STD forward<_Valty>(_Val)...);

  000a5	8d 45 08	 lea	 eax, DWORD PTR $T1[ebp]
  000a8	50		 push	 eax
  000a9	51		 push	 ecx
  000aa	8b ce		 mov	 ecx, esi
  000ac	e8 00 00 00 00	 call	 ??$_Emplace_reallocate@PAUmesh_binding@granny@@@?$vector@PAUmesh_binding@granny@@V?$allocator@PAUmesh_binding@granny@@@std@@@std@@QAEPAPAUmesh_binding@granny@@QAPAU23@$$QAPAU23@@Z ; std::vector<granny::mesh_binding *,std::allocator<granny::mesh_binding *> >::_Emplace_reallocate<granny::mesh_binding *>
$LN2@CreateMesh:
; File C:\DS Project\DS Files\Source\ClientSource\Client\eterGrnLib\ModelInstanceModel.cpp

; 107  : 	for (iMeshBinding = 0; iMeshBinding != pgrnModel->MeshBindingCount; ++iMeshBinding)

  000b1	47		 inc	 edi
  000b2	3b 7b 4c	 cmp	 edi, DWORD PTR [ebx+76]
  000b5	75 c9		 jne	 SHORT $LL4@CreateMesh
$LN3@CreateMesh:

; 109  : 
; 110  : 	return true;

  000b7	5e		 pop	 esi
  000b8	5f		 pop	 edi
  000b9	b0 01		 mov	 al, 1

; 111  : }

  000bb	5b		 pop	 ebx
  000bc	8b e5		 mov	 esp, ebp
  000be	5d		 pop	 ebp
  000bf	c2 04 00	 ret	 4
$LN27@CreateMesh:
  000c2	5f		 pop	 edi

; 98   : 		return false;

  000c3	32 c0		 xor	 al, al

; 111  : }

  000c5	5b		 pop	 ebx
  000c6	8b e5		 mov	 esp, ebp
  000c8	5d		 pop	 ebp
  000c9	c2 04 00	 ret	 4
$LN30@CreateMesh:
; File C:\Program Files (x86)\Microsoft Visual Studio\2019\Community\VC\Tools\MSVC\14.27.29110\include\vector

; 1308 :                 _Xlength();

  000cc	e8 00 00 00 00	 call	 ?_Xlength@?$vector@PAUmesh_binding@granny@@V?$allocator@PAUmesh_binding@granny@@@std@@@std@@CAXXZ ; std::vector<granny::mesh_binding *,std::allocator<granny::mesh_binding *> >::_Xlength
$LN28@CreateMesh:
  000d1	cc		 int	 3
?__CreateMeshBindingVector@CGrannyModelInstance@@IAE_NPAV1@@Z ENDP ; CGrannyModelInstance::__CreateMeshBindingVector
_TEXT	ENDS
; Function compile flags: /Ogtp
; File C:\DS Project\DS Files\Source\ClientSource\Client\eterGrnLib\ModelInstanceModel.cpp
;	COMDAT ?__CreateWorldPose@CGrannyModelInstance@@IAEXPAV1@@Z
_TEXT	SEGMENT
_pkSkeletonInst$ = 8					; size = 4
?__CreateWorldPose@CGrannyModelInstance@@IAEXPAV1@@Z PROC ; CGrannyModelInstance::__CreateWorldPose, COMDAT
; _this$ = ecx

; 123  : {

  00000	55		 push	 ebp
  00001	8b ec		 mov	 ebp, esp

; 124  : 	assert(m_pgrnModelInstance != NULL);
; 125  : 	assert(m_pgrnWorldPoseReal == NULL);
; 126  : 
; 127  : 	// WORK
; 128  : 	if (pkSkeletonInst)

  00003	83 7d 08 00	 cmp	 DWORD PTR _pkSkeletonInst$[ebp], 0
  00007	56		 push	 esi
  00008	8b f1		 mov	 esi, ecx
  0000a	75 15		 jne	 SHORT $LN1@CreateWorl

; 129  : 		return;
; 130  : 	// END_OF_WORK
; 131  : 
; 132  : 	granny_skeleton * pgrnSkeleton = GrannyGetSourceSkeleton(m_pgrnModelInstance);

  0000c	ff 76 08	 push	 DWORD PTR [esi+8]
  0000f	ff 15 00 00 00
	00		 call	 DWORD PTR __imp__GrannyGetSourceSkeleton@4

; 133  : 
; 134  : 	// WORK
; 135  : 	m_pgrnWorldPoseReal = GrannyNewWorldPose(pgrnSkeleton->BoneCount);

  00015	ff 70 04	 push	 DWORD PTR [eax+4]
  00018	ff 15 00 00 00
	00		 call	 DWORD PTR __imp__GrannyNewWorldPose@4
  0001e	89 46 3c	 mov	 DWORD PTR [esi+60], eax
$LN1@CreateWorl:
  00021	5e		 pop	 esi

; 136  : 	// END_OF_WORK
; 137  : }

  00022	5d		 pop	 ebp
  00023	c2 04 00	 ret	 4
?__CreateWorldPose@CGrannyModelInstance@@IAEXPAV1@@Z ENDP ; CGrannyModelInstance::__CreateWorldPose
_TEXT	ENDS
; Function compile flags: /Ogtp
; File C:\DS Project\DS Files\Source\ClientSource\Client\eterGrnLib\ModelInstanceModel.cpp
;	COMDAT ?__DestroyWorldPose@CGrannyModelInstance@@IAEXXZ
_TEXT	SEGMENT
?__DestroyWorldPose@CGrannyModelInstance@@IAEXXZ PROC	; CGrannyModelInstance::__DestroyWorldPose, COMDAT
; _this$ = ecx

; 140  : {

  00000	56		 push	 esi
  00001	8b f1		 mov	 esi, ecx

; 141  : 	if (!m_pgrnWorldPoseReal)

  00003	8b 46 3c	 mov	 eax, DWORD PTR [esi+60]
  00006	85 c0		 test	 eax, eax
  00008	74 0e		 je	 SHORT $LN1@DestroyWor

; 142  : 		return;
; 143  : 
; 144  : 	GrannyFreeWorldPose(m_pgrnWorldPoseReal);

  0000a	50		 push	 eax
  0000b	ff 15 00 00 00
	00		 call	 DWORD PTR __imp__GrannyFreeWorldPose@4

; 145  : 	m_pgrnWorldPoseReal = NULL;

  00011	c7 46 3c 00 00
	00 00		 mov	 DWORD PTR [esi+60], 0
$LN1@DestroyWor:

; 146  : }

  00018	5e		 pop	 esi
  00019	c3		 ret	 0
?__DestroyWorldPose@CGrannyModelInstance@@IAEXXZ ENDP	; CGrannyModelInstance::__DestroyWorldPose
_TEXT	ENDS
; Function compile flags: /Ogtp
; File C:\DS Project\DS Files\Source\ClientSource\Client\eterGrnLib\ModelInstanceModel.cpp
;	COMDAT ?__CreateDynamicVertexBuffer@CGrannyModelInstance@@IAEXXZ
_TEXT	SEGMENT
?__CreateDynamicVertexBuffer@CGrannyModelInstance@@IAEXXZ PROC ; CGrannyModelInstance::__CreateDynamicVertexBuffer, COMDAT
; _this$ = ecx

; 231  : {

  00000	56		 push	 esi
  00001	8b f1		 mov	 esi, ecx

; 232  : 	assert(m_pModel != NULL);
; 233  : 	assert(m_kLocalDeformableVertexBuffer.IsEmpty());
; 234  : 
; 235  : 	int vtxCount = m_pModel->GetDeformVertexCount();

  00003	8b 4e 04	 mov	 ecx, DWORD PTR [esi+4]
  00006	e8 00 00 00 00	 call	 ?GetDeformVertexCount@CGrannyModel@@QBEHXZ ; CGrannyModel::GetDeformVertexCount

; 236  : 
; 237  : 	if (0 != vtxCount)

  0000b	85 c0		 test	 eax, eax
  0000d	74 13		 je	 SHORT $LN3@CreateDyna

; 238  : 	{
; 239  : 		if (!m_kLocalDeformableVertexBuffer.Create(vtxCount,

  0000f	8b 56 50	 mov	 edx, DWORD PTR [esi+80]
  00012	8d 4e 50	 lea	 ecx, DWORD PTR [esi+80]
  00015	6a 01		 push	 1
  00017	6a 08		 push	 8
  00019	68 12 01 00 00	 push	 274			; 00000112H
  0001e	50		 push	 eax
  0001f	ff 52 04	 call	 DWORD PTR [edx+4]
$LN3@CreateDyna:

; 240  : 									   D3DFVF_XYZ|D3DFVF_NORMAL|D3DFVF_TEX1,
; 241  : 									   //D3DUSAGE_DYNAMIC, D3DPOOL_SYSTEMMEM
; 242  : 
; 243  : 									   D3DUSAGE_WRITEONLY, D3DPOOL_MANAGED
; 244  : 		))
; 245  : 			return;
; 246  : 	}
; 247  : }

  00022	5e		 pop	 esi
  00023	c3		 ret	 0
?__CreateDynamicVertexBuffer@CGrannyModelInstance@@IAEXXZ ENDP ; CGrannyModelInstance::__CreateDynamicVertexBuffer
_TEXT	ENDS
; Function compile flags: /Ogtp
; File C:\DS Project\DS Files\Source\ClientSource\Client\eterGrnLib\ModelInstanceModel.cpp
;	COMDAT ?__CreateMeshMatrices@CGrannyModelInstance@@IAEXXZ
_TEXT	SEGMENT
$T1 = -4						; size = 4
$T2 = -4						; size = 4
?__CreateMeshMatrices@CGrannyModelInstance@@IAEXXZ PROC	; CGrannyModelInstance::__CreateMeshMatrices, COMDAT
; _this$ = ecx

; 167  : {

  00000	55		 push	 ebp
  00001	8b ec		 mov	 ebp, esp
  00003	51		 push	 ecx
  00004	56		 push	 esi
  00005	8b f1		 mov	 esi, ecx

; 168  : 	assert(m_pModel != NULL);
; 169  : 
; 170  : 	if (m_pModel->GetMeshCount() <= 0)

  00007	8b 4e 04	 mov	 ecx, DWORD PTR [esi+4]
  0000a	e8 00 00 00 00	 call	 ?GetMeshCount@CGrannyModel@@QBEHXZ ; CGrannyModel::GetMeshCount
  0000f	85 c0		 test	 eax, eax
  00011	7e 2a		 jle	 SHORT $LN1@CreateMesh

; 171  : 		return;
; 172  : 
; 173  : 	int meshCount = m_pModel->GetMeshCount();

  00013	8b 4e 04	 mov	 ecx, DWORD PTR [esi+4]
  00016	e8 00 00 00 00	 call	 ?GetMeshCount@CGrannyModel@@QBEHXZ ; CGrannyModel::GetMeshCount

; 174  : 	m_meshMatrices = new D3DXMATRIX[meshCount];

  0001b	33 c9		 xor	 ecx, ecx
  0001d	89 45 fc	 mov	 DWORD PTR $T2[ebp], eax
  00020	ba 40 00 00 00	 mov	 edx, 64			; 00000040H
  00025	f7 e2		 mul	 edx
  00027	0f 90 c1	 seto	 cl
  0002a	f7 d9		 neg	 ecx
  0002c	0b c8		 or	 ecx, eax
  0002e	51		 push	 ecx
  0002f	e8 00 00 00 00	 call	 ??_U@YAPAXI@Z		; operator new[]
  00034	83 c4 04	 add	 esp, 4
  00037	89 45 fc	 mov	 DWORD PTR $T1[ebp], eax
  0003a	89 46 14	 mov	 DWORD PTR [esi+20], eax
$LN1@CreateMesh:
  0003d	5e		 pop	 esi

; 175  : }

  0003e	8b e5		 mov	 esp, ebp
  00040	5d		 pop	 ebp
  00041	c3		 ret	 0
?__CreateMeshMatrices@CGrannyModelInstance@@IAEXXZ ENDP	; CGrannyModelInstance::__CreateMeshMatrices
_TEXT	ENDS
; Function compile flags: /Ogtp
; File C:\DS Project\DS Files\Source\ClientSource\Client\eterGrnLib\ModelInstanceModel.cpp
;	COMDAT ?__CreateModelInstance@CGrannyModelInstance@@IAEXXZ
_TEXT	SEGMENT
?__CreateModelInstance@CGrannyModelInstance@@IAEXXZ PROC ; CGrannyModelInstance::__CreateModelInstance, COMDAT
; _this$ = ecx

; 149  : {

  00000	56		 push	 esi
  00001	8b f1		 mov	 esi, ecx

; 150  : 	assert(m_pModel != NULL);
; 151  : 	assert(m_pgrnModelInstance == NULL);
; 152  : 
; 153  : 	const granny_model * pgrnModel = m_pModel->GetGrannyModelPointer();

  00003	8b 4e 04	 mov	 ecx, DWORD PTR [esi+4]
  00006	e8 00 00 00 00	 call	 ?GetGrannyModelPointer@CGrannyModel@@QAEPAUgranny_model@@XZ ; CGrannyModel::GetGrannyModelPointer

; 154  : 	m_pgrnModelInstance = GrannyInstantiateModel(pgrnModel);

  0000b	50		 push	 eax
  0000c	ff 15 00 00 00
	00		 call	 DWORD PTR __imp__GrannyInstantiateModel@4
  00012	89 46 08	 mov	 DWORD PTR [esi+8], eax
  00015	5e		 pop	 esi

; 155  : }

  00016	c3		 ret	 0
?__CreateModelInstance@CGrannyModelInstance@@IAEXXZ ENDP ; CGrannyModelInstance::__CreateModelInstance
_TEXT	ENDS
; Function compile flags: /Ogtp
; File C:\DS Project\DS Files\Source\ClientSource\Client\eterGrnLib\ModelInstanceModel.cpp
;	COMDAT ?__DestroyDynamicVertexBuffer@CGrannyModelInstance@@IAEXXZ
_TEXT	SEGMENT
?__DestroyDynamicVertexBuffer@CGrannyModelInstance@@IAEXXZ PROC ; CGrannyModelInstance::__DestroyDynamicVertexBuffer, COMDAT
; _this$ = ecx

; 250  : {

  00000	56		 push	 esi
  00001	8b f1		 mov	 esi, ecx

; 251  : 	m_kLocalDeformableVertexBuffer.Destroy();

  00003	8d 4e 50	 lea	 ecx, DWORD PTR [esi+80]
  00006	e8 00 00 00 00	 call	 ?Destroy@CGraphicVertexBuffer@@QAEXXZ ; CGraphicVertexBuffer::Destroy

; 252  : 	m_pkSharedDeformableVertexBuffer = NULL;

  0000b	c7 46 4c 00 00
	00 00		 mov	 DWORD PTR [esi+76], 0
  00012	5e		 pop	 esi

; 253  : }

  00013	c3		 ret	 0
?__DestroyDynamicVertexBuffer@CGrannyModelInstance@@IAEXXZ ENDP ; CGrannyModelInstance::__DestroyDynamicVertexBuffer
_TEXT	ENDS
; Function compile flags: /Ogtp
; File C:\DS Project\DS Files\Source\ClientSource\Client\eterGrnLib\ModelInstanceModel.cpp
;	COMDAT ?__DestroyMeshMatrices@CGrannyModelInstance@@IAEXXZ
_TEXT	SEGMENT
?__DestroyMeshMatrices@CGrannyModelInstance@@IAEXXZ PROC ; CGrannyModelInstance::__DestroyMeshMatrices, COMDAT
; _this$ = ecx

; 178  : {

  00000	56		 push	 esi
  00001	8b f1		 mov	 esi, ecx

; 179  : 	if (!m_meshMatrices)

  00003	8b 46 14	 mov	 eax, DWORD PTR [esi+20]
  00006	85 c0		 test	 eax, eax
  00008	74 10		 je	 SHORT $LN1@DestroyMes

; 180  : 		return;
; 181  : 
; 182  : 	delete [] m_meshMatrices;

  0000a	50		 push	 eax
  0000b	e8 00 00 00 00	 call	 ??_V@YAXPAX@Z		; operator delete[]
  00010	83 c4 04	 add	 esp, 4

; 183  : 	m_meshMatrices = NULL;

  00013	c7 46 14 00 00
	00 00		 mov	 DWORD PTR [esi+20], 0
$LN1@DestroyMes:

; 184  : }

  0001a	5e		 pop	 esi
  0001b	c3		 ret	 0
?__DestroyMeshMatrices@CGrannyModelInstance@@IAEXXZ ENDP ; CGrannyModelInstance::__DestroyMeshMatrices
_TEXT	ENDS
; Function compile flags: /Ogtp
; File C:\DS Project\DS Files\Source\ClientSource\Client\eterGrnLib\ModelInstanceModel.cpp
;	COMDAT ?__DestroyModelInstance@CGrannyModelInstance@@IAEXXZ
_TEXT	SEGMENT
?__DestroyModelInstance@CGrannyModelInstance@@IAEXXZ PROC ; CGrannyModelInstance::__DestroyModelInstance, COMDAT
; _this$ = ecx

; 158  : {

  00000	56		 push	 esi
  00001	8b f1		 mov	 esi, ecx

; 159  : 	if (!m_pgrnModelInstance)

  00003	8b 46 08	 mov	 eax, DWORD PTR [esi+8]
  00006	85 c0		 test	 eax, eax
  00008	74 0e		 je	 SHORT $LN1@DestroyMod

; 160  : 		return;
; 161  : 
; 162  : 	GrannyFreeModelInstance(m_pgrnModelInstance);

  0000a	50		 push	 eax
  0000b	ff 15 00 00 00
	00		 call	 DWORD PTR __imp__GrannyFreeModelInstance@4

; 163  : 	m_pgrnModelInstance = NULL;

  00011	c7 46 08 00 00
	00 00		 mov	 DWORD PTR [esi+8], 0
$LN1@DestroyMod:

; 164  : }

  00018	5e		 pop	 esi
  00019	c3		 ret	 0
?__DestroyModelInstance@CGrannyModelInstance@@IAEXXZ ENDP ; CGrannyModelInstance::__DestroyModelInstance
_TEXT	ENDS
; Function compile flags: /Ogtp
; File C:\DS Project\DS Files\Source\ClientSource\Client\eterGrnLib\ModelInstanceModel.cpp
;	COMDAT ?ReloadTexture@CGrannyModelInstance@@QAEXXZ
_TEXT	SEGMENT
?ReloadTexture@CGrannyModelInstance@@QAEXXZ PROC	; CGrannyModelInstance::ReloadTexture, COMDAT
; _this$ = ecx

; 288  : 	assert("Not currently used - CGrannyModelInstance::ReloadTexture()");
; 289  : /*
; 290  : 	assert(m_pModel != NULL);
; 291  : 	const CGrannyMaterialPalette & c_rGrannyMaterialPalette = m_pModel->GetMaterialPalette();
; 292  : 	DWORD dwMaterialCount = c_rGrannyMaterialPalette.GetMaterialCount();
; 293  : 	for (DWORD dwMtrIndex = 0; dwMtrIndex < dwMaterialCount; ++dwMtrIndex)
; 294  : 	{
; 295  : 		const CGrannyMaterial & c_rGrannyMaterial = c_rGrannyMaterialPalette.GetMaterialRef(dwMtrIndex);
; 296  : 		CGraphicImage * pImageStage0 = c_rGrannyMaterial.GetImagePointer(0);
; 297  : 		if (pImageStage0)
; 298  : 			pImageStage0->Reload();
; 299  : 		CGraphicImage * pImageStage1 = c_rGrannyMaterial.GetImagePointer(1);
; 300  : 		if (pImageStage1)
; 301  : 			pImageStage1->Reload();
; 302  : 	}
; 303  : */
; 304  : }

  00000	c2 00 00	 ret	 0
?ReloadTexture@CGrannyModelInstance@@QAEXXZ ENDP	; CGrannyModelInstance::ReloadTexture
_TEXT	ENDS
; Function compile flags: /Ogtp
; File C:\DS Project\DS Files\Source\ClientSource\Client\eterGrnLib\ModelInstanceModel.cpp
;	COMDAT ?GetBoneIndexByName@CGrannyModelInstance@@QBE_NPBDPAH@Z
_TEXT	SEGMENT
_c_szBoneName$ = 8					; size = 4
_pBoneIndex$ = 12					; size = 4
?GetBoneIndexByName@CGrannyModelInstance@@QBE_NPBDPAH@Z PROC ; CGrannyModelInstance::GetBoneIndexByName, COMDAT
; _this$ = ecx

; 258  : {

  00000	55		 push	 ebp
  00001	8b ec		 mov	 ebp, esp

; 259  : 	assert(m_pgrnModelInstance != NULL);
; 260  : 
; 261  : 	granny_skeleton * pgrnSkeleton = GrannyGetSourceSkeleton(m_pgrnModelInstance);

  00003	ff 71 08	 push	 DWORD PTR [ecx+8]
  00006	ff 15 00 00 00
	00		 call	 DWORD PTR __imp__GrannyGetSourceSkeleton@4

; 262  : 
; 263  : 	if (!GrannyFindBoneByName(pgrnSkeleton, c_szBoneName, pBoneIndex))

  0000c	ff 75 0c	 push	 DWORD PTR _pBoneIndex$[ebp]
  0000f	ff 75 08	 push	 DWORD PTR _c_szBoneName$[ebp]
  00012	50		 push	 eax
  00013	ff 15 00 00 00
	00		 call	 DWORD PTR __imp__GrannyFindBoneByName@12
  00019	84 c0		 test	 al, al
  0001b	0f 95 c0	 setne	 al

; 264  : 		return false;
; 265  : 
; 266  : 	return true;
; 267  : }

  0001e	5d		 pop	 ebp
  0001f	c2 08 00	 ret	 8
?GetBoneIndexByName@CGrannyModelInstance@@QBE_NPBDPAH@Z ENDP ; CGrannyModelInstance::GetBoneIndexByName
_TEXT	ENDS
; Function compile flags: /Ogtp
; File C:\DS Project\DS Files\Source\ClientSource\Client\eterGrnLib\ModelInstanceModel.cpp
;	COMDAT ?GetCompositeBoneMatrixPointer@CGrannyModelInstance@@QBEPBMH@Z
_TEXT	SEGMENT
_iBone$ = 8						; size = 4
?GetCompositeBoneMatrixPointer@CGrannyModelInstance@@QBEPBMH@Z PROC ; CGrannyModelInstance::GetCompositeBoneMatrixPointer, COMDAT
; _this$ = ecx

; 282  : {

  00000	55		 push	 ebp
  00001	8b ec		 mov	 ebp, esp

; 283  : 	return GrannyGetWorldPoseComposite4x4(__GetWorldPosePtr(), iBone);

  00003	ff 75 08	 push	 DWORD PTR _iBone$[ebp]
  00006	e8 00 00 00 00	 call	 ?__GetWorldPosePtr@CGrannyModelInstance@@IBEPAUworld_pose@granny@@XZ ; CGrannyModelInstance::__GetWorldPosePtr
  0000b	50		 push	 eax
  0000c	ff 15 00 00 00
	00		 call	 DWORD PTR __imp__GrannyGetWorldPoseComposite4x4@8

; 284  : }

  00012	5d		 pop	 ebp
  00013	c2 04 00	 ret	 4
?GetCompositeBoneMatrixPointer@CGrannyModelInstance@@QBEPBMH@Z ENDP ; CGrannyModelInstance::GetCompositeBoneMatrixPointer
_TEXT	ENDS
; Function compile flags: /Ogtp
; File C:\DS Project\DS Files\Source\ClientSource\Client\eterGrnLib\ModelInstanceModel.cpp
;	COMDAT ?GetBoneMatrixPointer@CGrannyModelInstance@@QBEPBMH@Z
_TEXT	SEGMENT
_iBone$ = 8						; size = 4
?GetBoneMatrixPointer@CGrannyModelInstance@@QBEPBMH@Z PROC ; CGrannyModelInstance::GetBoneMatrixPointer, COMDAT
; _this$ = ecx

; 270  : {

  00000	55		 push	 ebp
  00001	8b ec		 mov	 ebp, esp
  00003	56		 push	 esi

; 271  : 	const float* bones = GrannyGetWorldPose4x4(__GetWorldPosePtr(), iBone);

  00004	ff 75 08	 push	 DWORD PTR _iBone$[ebp]
  00007	8b f1		 mov	 esi, ecx
  00009	e8 00 00 00 00	 call	 ?__GetWorldPosePtr@CGrannyModelInstance@@IBEPAUworld_pose@granny@@XZ ; CGrannyModelInstance::__GetWorldPosePtr
  0000e	50		 push	 eax
  0000f	ff 15 00 00 00
	00		 call	 DWORD PTR __imp__GrannyGetWorldPose4x4@8

; 272  : 	if (!bones)

  00015	85 c0		 test	 eax, eax
  00017	75 0a		 jne	 SHORT $LN1@GetBoneMat

; 273  : 	{
; 274  : 		granny_model* pModel = m_pModel->GetGrannyModelPointer();

  00019	8b 4e 04	 mov	 ecx, DWORD PTR [esi+4]
  0001c	e8 00 00 00 00	 call	 ?GetGrannyModelPointer@CGrannyModel@@QAEPAUgranny_model@@XZ ; CGrannyModel::GetGrannyModelPointer

; 275  : 		//TraceError("GrannyModelInstance(%s).GetBoneMatrixPointer(boneIndex(%d)).NOT_FOUND_BONE", pModel->Name, iBone);
; 276  : 		return NULL;

  00021	33 c0		 xor	 eax, eax
$LN1@GetBoneMat:
  00023	5e		 pop	 esi

; 277  : 	}
; 278  : 	return bones;
; 279  : }

  00024	5d		 pop	 ebp
  00025	c2 04 00	 ret	 4
?GetBoneMatrixPointer@CGrannyModelInstance@@QBEPBMH@Z ENDP ; CGrannyModelInstance::GetBoneMatrixPointer
_TEXT	ENDS
; Function compile flags: /Ogtp
; File C:\DS Project\DS Files\Source\ClientSource\Client\eterGrnLib\ModelInstanceModel.cpp
;	COMDAT ?GetVertexCount@CGrannyModelInstance@@QAEKXZ
_TEXT	SEGMENT
?GetVertexCount@CGrannyModelInstance@@QAEKXZ PROC	; CGrannyModelInstance::GetVertexCount, COMDAT
; _this$ = ecx

; 196  : 	if (!m_pModel)

  00000	8b 49 04	 mov	 ecx, DWORD PTR [ecx+4]
  00003	85 c9		 test	 ecx, ecx
  00005	75 03		 jne	 SHORT $LN2@GetVertexC

; 197  : 		return 0;

  00007	33 c0		 xor	 eax, eax

; 200  : }

  00009	c3		 ret	 0
$LN2@GetVertexC:

; 198  : 
; 199  : 	return m_pModel->GetVertexCount();

  0000a	e9 00 00 00 00	 jmp	 ?GetVertexCount@CGrannyModel@@QBEHXZ ; CGrannyModel::GetVertexCount
?GetVertexCount@CGrannyModelInstance@@QAEKXZ ENDP	; CGrannyModelInstance::GetVertexCount
_TEXT	ENDS
; Function compile flags: /Ogtp
; File C:\DS Project\DS Files\Source\ClientSource\Client\eterGrnLib\ModelInstanceModel.cpp
;	COMDAT ?GetDeformableVertexCount@CGrannyModelInstance@@QAEKXZ
_TEXT	SEGMENT
?GetDeformableVertexCount@CGrannyModelInstance@@QAEKXZ PROC ; CGrannyModelInstance::GetDeformableVertexCount, COMDAT
; _this$ = ecx

; 188  : 	if (!m_pModel)

  00000	8b 49 04	 mov	 ecx, DWORD PTR [ecx+4]
  00003	85 c9		 test	 ecx, ecx
  00005	75 03		 jne	 SHORT $LN2@GetDeforma

; 189  : 		return 0;

  00007	33 c0		 xor	 eax, eax

; 192  : }

  00009	c3		 ret	 0
$LN2@GetDeforma:

; 190  : 
; 191  : 	return m_pModel->GetDeformVertexCount();

  0000a	e9 00 00 00 00	 jmp	 ?GetDeformVertexCount@CGrannyModel@@QBEHXZ ; CGrannyModel::GetDeformVertexCount
?GetDeformableVertexCount@CGrannyModelInstance@@QAEKXZ ENDP ; CGrannyModelInstance::GetDeformableVertexCount
_TEXT	ENDS
; Function compile flags: /Ogtp
; File C:\DS Project\DS Files\Source\ClientSource\Client\eterGrnLib\ModelInstanceModel.cpp
;	COMDAT ?SetLinkedModelPointer@CGrannyModelInstance@@QAEXPAVCGrannyModel@@PAVCGraphicVertexBuffer@@PAPAV1@@Z
_TEXT	SEGMENT
_pkModel$ = 8						; size = 4
_pkSharedDeformableVertexBuffer$ = 12			; size = 4
_ppkSkeletonInst$ = 16					; size = 4
?SetLinkedModelPointer@CGrannyModelInstance@@QAEXPAVCGrannyModel@@PAVCGraphicVertexBuffer@@PAPAV1@@Z PROC ; CGrannyModelInstance::SetLinkedModelPointer, COMDAT
; _this$ = ecx

; 26   : {

  00000	55		 push	 ebp
  00001	8b ec		 mov	 ebp, esp
  00003	53		 push	 ebx
  00004	56		 push	 esi
  00005	57		 push	 edi
  00006	8b f1		 mov	 esi, ecx

; 27   : 	Clear();

  00008	e8 00 00 00 00	 call	 ?Clear@CGrannyModelInstance@@QAEXXZ ; CGrannyModelInstance::Clear

; 28   : 
; 29   : 	if (m_pModel)

  0000d	8b 4e 04	 mov	 ecx, DWORD PTR [esi+4]
  00010	85 c9		 test	 ecx, ecx
  00012	74 05		 je	 SHORT $LN2@SetLinkedM

; 30   : 		m_pModel->Release();

  00014	e8 00 00 00 00	 call	 ?Release@CReferenceObject@@QAEXXZ ; CReferenceObject::Release
$LN2@SetLinkedM:

; 31   : 
; 32   : 	m_pModel = pkModel;

  00019	8b 5d 08	 mov	 ebx, DWORD PTR _pkModel$[ebp]

; 33   : 
; 34   : 	m_pModel->AddReference();

  0001c	8b cb		 mov	 ecx, ebx
  0001e	89 5e 04	 mov	 DWORD PTR [esi+4], ebx
  00021	e8 00 00 00 00	 call	 ?AddReference@CReferenceObject@@QAEXXZ ; CReferenceObject::AddReference

; 35   : 
; 36   : 	if (pkSharedDeformableVertexBuffer)

  00026	8b 45 0c	 mov	 eax, DWORD PTR _pkSharedDeformableVertexBuffer$[ebp]
  00029	8b ce		 mov	 ecx, esi
  0002b	85 c0		 test	 eax, eax
  0002d	74 08		 je	 SHORT $LN3@SetLinkedM

; 37   : 		__SetSharedDeformableVertexBuffer(pkSharedDeformableVertexBuffer);

  0002f	50		 push	 eax
  00030	e8 00 00 00 00	 call	 ?__SetSharedDeformableVertexBuffer@CGrannyModelInstance@@IAEXPAVCGraphicVertexBuffer@@@Z ; CGrannyModelInstance::__SetSharedDeformableVertexBuffer
  00035	eb 05		 jmp	 SHORT $LN4@SetLinkedM
$LN3@SetLinkedM:

; 38   : 	else
; 39   : 		__CreateDynamicVertexBuffer();

  00037	e8 00 00 00 00	 call	 ?__CreateDynamicVertexBuffer@CGrannyModelInstance@@IAEXXZ ; CGrannyModelInstance::__CreateDynamicVertexBuffer
$LN4@SetLinkedM:

; 40   : 
; 41   : 	__CreateModelInstance();

  0003c	8b ce		 mov	 ecx, esi
  0003e	e8 00 00 00 00	 call	 ?__CreateModelInstance@CGrannyModelInstance@@IAEXXZ ; CGrannyModelInstance::__CreateModelInstance

; 42   : 
; 43   : 	// WORK
; 44   : 	if (ppkSkeletonInst && *ppkSkeletonInst)

  00043	8b 7d 10	 mov	 edi, DWORD PTR _ppkSkeletonInst$[ebp]
  00046	85 ff		 test	 edi, edi
  00048	74 15		 je	 SHORT $LN5@SetLinkedM
  0004a	83 3f 00	 cmp	 DWORD PTR [edi], 0
  0004d	74 10		 je	 SHORT $LN5@SetLinkedM

; 45   : 	{
; 46   : 		m_ppkSkeletonInst = ppkSkeletonInst;

  0004f	89 7e 74	 mov	 DWORD PTR [esi+116], edi

; 47   : 		__CreateWorldPose(*ppkSkeletonInst);

  00052	8b ce		 mov	 ecx, esi
  00054	ff 37		 push	 DWORD PTR [edi]
  00056	e8 00 00 00 00	 call	 ?__CreateWorldPose@CGrannyModelInstance@@IAEXPAV1@@Z ; CGrannyModelInstance::__CreateWorldPose

; 48   : 		__CreateMeshBindingVector(*ppkSkeletonInst);

  0005b	8b 07		 mov	 eax, DWORD PTR [edi]

; 49   : 	}

  0005d	eb 0b		 jmp	 SHORT $LN6@SetLinkedM
$LN5@SetLinkedM:

; 50   : 	else
; 51   : 	{
; 52   : 		__CreateWorldPose(NULL);

  0005f	6a 00		 push	 0
  00061	8b ce		 mov	 ecx, esi
  00063	e8 00 00 00 00	 call	 ?__CreateWorldPose@CGrannyModelInstance@@IAEXPAV1@@Z ; CGrannyModelInstance::__CreateWorldPose

; 53   : 		__CreateMeshBindingVector(NULL);

  00068	33 c0		 xor	 eax, eax
$LN6@SetLinkedM:

; 54   : 	}
; 55   : 	// END_OF_WORK
; 56   : 
; 57   : 	__CreateMeshMatrices();

  0006a	50		 push	 eax
  0006b	8b ce		 mov	 ecx, esi
  0006d	e8 00 00 00 00	 call	 ?__CreateMeshBindingVector@CGrannyModelInstance@@IAE_NPAV1@@Z ; CGrannyModelInstance::__CreateMeshBindingVector
  00072	8b ce		 mov	 ecx, esi
  00074	e8 00 00 00 00	 call	 ?__CreateMeshMatrices@CGrannyModelInstance@@IAEXXZ ; CGrannyModelInstance::__CreateMeshMatrices

; 58   : 
; 59   : 	ResetLocalTime();

  00079	8b ce		 mov	 ecx, esi
  0007b	e8 00 00 00 00	 call	 ?ResetLocalTime@CGrannyModelInstance@@QAEHXZ ; CGrannyModelInstance::ResetLocalTime

; 60   : 
; 61   : 	m_kMtrlPal.Copy(pkModel->GetMaterialPalette());

  00080	8b cb		 mov	 ecx, ebx
  00082	e8 00 00 00 00	 call	 ?GetMaterialPalette@CGrannyModel@@QBEABVCGrannyMaterialPalette@@XZ ; CGrannyModel::GetMaterialPalette
  00087	50		 push	 eax
  00088	8d 4e 2c	 lea	 ecx, DWORD PTR [esi+44]
  0008b	e8 00 00 00 00	 call	 ?Copy@CGrannyMaterialPalette@@QAEXABV1@@Z ; CGrannyMaterialPalette::Copy
  00090	5f		 pop	 edi
  00091	5e		 pop	 esi
  00092	5b		 pop	 ebx

; 62   : }

  00093	5d		 pop	 ebp
  00094	c2 0c 00	 ret	 12			; 0000000cH
?SetLinkedModelPointer@CGrannyModelInstance@@QAEXPAVCGrannyModel@@PAVCGraphicVertexBuffer@@PAPAV1@@Z ENDP ; CGrannyModelInstance::SetLinkedModelPointer
_TEXT	ENDS
; Function compile flags: /Ogtp
; File C:\DS Project\DS Files\Source\ClientSource\Client\eterGrnLib\ModelInstanceModel.cpp
;	COMDAT ?SetMainModelPointer@CGrannyModelInstance@@QAEXPAVCGrannyModel@@PAVCGraphicVertexBuffer@@@Z
_TEXT	SEGMENT
_pModel$ = 8						; size = 4
_pkSharedDeformableVertexBuffer$ = 12			; size = 4
?SetMainModelPointer@CGrannyModelInstance@@QAEXPAVCGrannyModel@@PAVCGraphicVertexBuffer@@@Z PROC ; CGrannyModelInstance::SetMainModelPointer, COMDAT
; _this$ = ecx

; 21   : {

  00000	55		 push	 ebp
  00001	8b ec		 mov	 ebp, esp

; 22   : 	SetLinkedModelPointer(pModel, pkSharedDeformableVertexBuffer, NULL);

  00003	6a 00		 push	 0
  00005	ff 75 0c	 push	 DWORD PTR _pkSharedDeformableVertexBuffer$[ebp]
  00008	ff 75 08	 push	 DWORD PTR _pModel$[ebp]
  0000b	e8 00 00 00 00	 call	 ?SetLinkedModelPointer@CGrannyModelInstance@@QAEXPAVCGrannyModel@@PAVCGraphicVertexBuffer@@PAPAV1@@Z ; CGrannyModelInstance::SetLinkedModelPointer

; 23   : }

  00010	5d		 pop	 ebp
  00011	c2 08 00	 ret	 8
?SetMainModelPointer@CGrannyModelInstance@@QAEXPAVCGrannyModel@@PAVCGraphicVertexBuffer@@@Z ENDP ; CGrannyModelInstance::SetMainModelPointer
_TEXT	ENDS
; Function compile flags: /Ogtp
; File C:\DS Project\DS Files\Source\ClientSource\Client\eterGrnLib\ModelInstanceModel.cpp
;	COMDAT ?Clear@CGrannyModelInstance@@QAEXXZ
_TEXT	SEGMENT
?Clear@CGrannyModelInstance@@QAEXXZ PROC		; CGrannyModelInstance::Clear, COMDAT
; _this$ = ecx

; 6    : {

  00000	56		 push	 esi
  00001	8b f1		 mov	 esi, ecx

; 7    : 	m_kMtrlPal.Clear();

  00003	8d 4e 2c	 lea	 ecx, DWORD PTR [esi+44]
  00006	e8 00 00 00 00	 call	 ?Clear@CGrannyMaterialPalette@@QAEXXZ ; CGrannyMaterialPalette::Clear

; 8    : 
; 9    : 	DestroyDeviceObjects();

  0000b	8b ce		 mov	 ecx, esi
  0000d	e8 00 00 00 00	 call	 ?DestroyDeviceObjects@CGrannyModelInstance@@QAEXXZ ; CGrannyModelInstance::DestroyDeviceObjects

; 10   : 	// WORK
; 11   : 	__DestroyMeshBindingVector();

  00012	8b ce		 mov	 ecx, esi
  00014	e8 00 00 00 00	 call	 ?__DestroyMeshBindingVector@CGrannyModelInstance@@IAEXXZ ; CGrannyModelInstance::__DestroyMeshBindingVector

; 12   : 	// END_OF_WORK
; 13   : 	__DestroyMeshMatrices();

  00019	8b ce		 mov	 ecx, esi
  0001b	e8 00 00 00 00	 call	 ?__DestroyMeshMatrices@CGrannyModelInstance@@IAEXXZ ; CGrannyModelInstance::__DestroyMeshMatrices

; 14   : 	__DestroyModelInstance();

  00020	8b ce		 mov	 ecx, esi
  00022	e8 00 00 00 00	 call	 ?__DestroyModelInstance@CGrannyModelInstance@@IAEXXZ ; CGrannyModelInstance::__DestroyModelInstance

; 15   : 	__DestroyWorldPose();

  00027	8b ce		 mov	 ecx, esi
  00029	e8 00 00 00 00	 call	 ?__DestroyWorldPose@CGrannyModelInstance@@IAEXXZ ; CGrannyModelInstance::__DestroyWorldPose

; 16   : 
; 17   : 	__Initialize();

  0002e	8b ce		 mov	 ecx, esi
  00030	5e		 pop	 esi
  00031	e9 00 00 00 00	 jmp	 ?__Initialize@CGrannyModelInstance@@IAEXXZ ; CGrannyModelInstance::__Initialize
?Clear@CGrannyModelInstance@@QAEXXZ ENDP		; CGrannyModelInstance::Clear
_TEXT	ENDS
; Function compile flags: /Ogtp
; File C:\DS Project\DS Files\Source\ClientSource\extern\include\d3dx8math.h
;	COMDAT ??0D3DXMATRIX@@QAE@XZ
_TEXT	SEGMENT
??0D3DXMATRIX@@QAE@XZ PROC				; D3DXMATRIX::D3DXMATRIX, COMDAT
; _this$ = ecx

; 177  :     D3DXMATRIX() {};

  00000	8b c1		 mov	 eax, ecx
  00002	c3		 ret	 0
??0D3DXMATRIX@@QAE@XZ ENDP				; D3DXMATRIX::D3DXMATRIX
_TEXT	ENDS
; Function compile flags: /Ogtp
; File C:\Program Files (x86)\Microsoft Visual Studio\2019\Community\VC\Tools\MSVC\14.27.29110\include\exception
;	COMDAT ?_Throw_bad_array_new_length@std@@YAXXZ
_TEXT	SEGMENT
$T1 = -12						; size = 12
?_Throw_bad_array_new_length@std@@YAXXZ PROC		; std::_Throw_bad_array_new_length, COMDAT

; 320  : [[noreturn]] inline void _Throw_bad_array_new_length() {

  00000	55		 push	 ebp
  00001	8b ec		 mov	 ebp, esp
  00003	83 ec 0c	 sub	 esp, 12			; 0000000cH

; 321  :     _THROW(bad_array_new_length{});

  00006	8d 4d f4	 lea	 ecx, DWORD PTR $T1[ebp]
  00009	e8 00 00 00 00	 call	 ??0bad_array_new_length@std@@QAE@XZ ; std::bad_array_new_length::bad_array_new_length
  0000e	68 00 00 00 00	 push	 OFFSET __TI3?AVbad_array_new_length@std@@
  00013	8d 45 f4	 lea	 eax, DWORD PTR $T1[ebp]
  00016	50		 push	 eax
  00017	e8 00 00 00 00	 call	 __CxxThrowException@8
$LN3@Throw_bad_:
  0001c	cc		 int	 3
?_Throw_bad_array_new_length@std@@YAXXZ ENDP		; std::_Throw_bad_array_new_length
_TEXT	ENDS
; Function compile flags: /Ogtp
; File C:\Program Files (x86)\Microsoft Visual Studio\2019\Community\VC\Tools\MSVC\14.27.29110\include\vcruntime_exception.h
;	COMDAT ??_Gbad_array_new_length@std@@UAEPAXI@Z
_TEXT	SEGMENT
___flags$ = 8						; size = 4
??_Gbad_array_new_length@std@@UAEPAXI@Z PROC		; std::bad_array_new_length::`scalar deleting destructor', COMDAT
; _this$ = ecx
  00000	55		 push	 ebp
  00001	8b ec		 mov	 ebp, esp

; 89   :     {

  00003	56		 push	 esi
  00004	8b f1		 mov	 esi, ecx

; 90   :         __std_exception_destroy(&_Data);

  00006	8d 46 04	 lea	 eax, DWORD PTR [esi+4]
  00009	c7 06 00 00 00
	00		 mov	 DWORD PTR [esi], OFFSET ??_7exception@std@@6B@
  0000f	50		 push	 eax
  00010	e8 00 00 00 00	 call	 ___std_exception_destroy
  00015	83 c4 04	 add	 esp, 4
  00018	f6 45 08 01	 test	 BYTE PTR ___flags$[ebp], 1
  0001c	74 0b		 je	 SHORT $LN12@scalar
  0001e	6a 0c		 push	 12			; 0000000cH
  00020	56		 push	 esi
  00021	e8 00 00 00 00	 call	 ??3@YAXPAXI@Z		; operator delete
  00026	83 c4 08	 add	 esp, 8
$LN12@scalar:
  00029	8b c6		 mov	 eax, esi
  0002b	5e		 pop	 esi
  0002c	5d		 pop	 ebp
  0002d	c2 04 00	 ret	 4
??_Gbad_array_new_length@std@@UAEPAXI@Z ENDP		; std::bad_array_new_length::`scalar deleting destructor'
_TEXT	ENDS
; Function compile flags: /Ogtp
; File C:\Program Files (x86)\Microsoft Visual Studio\2019\Community\VC\Tools\MSVC\14.27.29110\include\vcruntime_exception.h
;	COMDAT ??0bad_array_new_length@std@@QAE@ABV01@@Z
_TEXT	SEGMENT
___that$ = 8						; size = 4
??0bad_array_new_length@std@@QAE@ABV01@@Z PROC		; std::bad_array_new_length::bad_array_new_length, COMDAT
; _this$ = ecx
  00000	55		 push	 ebp
  00001	8b ec		 mov	 ebp, esp

; 72   :     {

  00003	56		 push	 esi
  00004	8b f1		 mov	 esi, ecx
  00006	0f 57 c0	 xorps	 xmm0, xmm0

; 71   :         : _Data()

  00009	8d 46 04	 lea	 eax, DWORD PTR [esi+4]

; 73   :         __std_exception_copy(&_Other._Data, &_Data);

  0000c	50		 push	 eax
  0000d	c7 06 00 00 00
	00		 mov	 DWORD PTR [esi], OFFSET ??_7exception@std@@6B@
  00013	66 0f d6 00	 movq	 QWORD PTR [eax], xmm0
  00017	8b 45 08	 mov	 eax, DWORD PTR ___that$[ebp]
  0001a	83 c0 04	 add	 eax, 4
  0001d	50		 push	 eax
  0001e	e8 00 00 00 00	 call	 ___std_exception_copy
  00023	83 c4 08	 add	 esp, 8
  00026	c7 06 00 00 00
	00		 mov	 DWORD PTR [esi], OFFSET ??_7bad_array_new_length@std@@6B@
  0002c	8b c6		 mov	 eax, esi
  0002e	5e		 pop	 esi
  0002f	5d		 pop	 ebp
  00030	c2 04 00	 ret	 4
??0bad_array_new_length@std@@QAE@ABV01@@Z ENDP		; std::bad_array_new_length::bad_array_new_length
_TEXT	ENDS
; Function compile flags: /Ogtp
; File C:\Program Files (x86)\Microsoft Visual Studio\2019\Community\VC\Tools\MSVC\14.27.29110\include\vcruntime_exception.h
;	COMDAT ??1bad_array_new_length@std@@UAE@XZ
_TEXT	SEGMENT
??1bad_array_new_length@std@@UAE@XZ PROC		; std::bad_array_new_length::~bad_array_new_length, COMDAT
; _this$ = ecx

; 90   :         __std_exception_destroy(&_Data);

  00000	8d 41 04	 lea	 eax, DWORD PTR [ecx+4]
  00003	c7 01 00 00 00
	00		 mov	 DWORD PTR [ecx], OFFSET ??_7exception@std@@6B@
  00009	50		 push	 eax
  0000a	e8 00 00 00 00	 call	 ___std_exception_destroy
  0000f	59		 pop	 ecx
  00010	c3		 ret	 0
??1bad_array_new_length@std@@UAE@XZ ENDP		; std::bad_array_new_length::~bad_array_new_length
_TEXT	ENDS
; Function compile flags: /Ogtp
; File C:\Program Files (x86)\Microsoft Visual Studio\2019\Community\VC\Tools\MSVC\14.27.29110\include\vcruntime_exception.h
;	COMDAT ??0bad_array_new_length@std@@QAE@XZ
_TEXT	SEGMENT
??0bad_array_new_length@std@@QAE@XZ PROC		; std::bad_array_new_length::bad_array_new_length, COMDAT
; _this$ = ecx

; 141  :     {

  00000	0f 57 c0	 xorps	 xmm0, xmm0

; 142  :     }

  00003	8b c1		 mov	 eax, ecx

; 65   :         : _Data()

  00005	66 0f d6 41 04	 movq	 QWORD PTR [ecx+4], xmm0

; 66   :     {
; 67   :         _Data._What = _Message;

  0000a	c7 41 04 00 00
	00 00		 mov	 DWORD PTR [ecx+4], OFFSET ??_C@_0BF@KINCDENJ@bad?5array?5new?5length@

; 141  :     {

  00011	c7 01 00 00 00
	00		 mov	 DWORD PTR [ecx], OFFSET ??_7bad_array_new_length@std@@6B@

; 142  :     }

  00017	c3		 ret	 0
??0bad_array_new_length@std@@QAE@XZ ENDP		; std::bad_array_new_length::bad_array_new_length
_TEXT	ENDS
; Function compile flags: /Ogtp
; File C:\Program Files (x86)\Microsoft Visual Studio\2019\Community\VC\Tools\MSVC\14.27.29110\include\vcruntime_exception.h
;	COMDAT ??_Gbad_alloc@std@@UAEPAXI@Z
_TEXT	SEGMENT
___flags$ = 8						; size = 4
??_Gbad_alloc@std@@UAEPAXI@Z PROC			; std::bad_alloc::`scalar deleting destructor', COMDAT
; _this$ = ecx
  00000	55		 push	 ebp
  00001	8b ec		 mov	 ebp, esp

; 89   :     {

  00003	56		 push	 esi
  00004	8b f1		 mov	 esi, ecx

; 90   :         __std_exception_destroy(&_Data);

  00006	8d 46 04	 lea	 eax, DWORD PTR [esi+4]
  00009	c7 06 00 00 00
	00		 mov	 DWORD PTR [esi], OFFSET ??_7exception@std@@6B@
  0000f	50		 push	 eax
  00010	e8 00 00 00 00	 call	 ___std_exception_destroy
  00015	83 c4 04	 add	 esp, 4
  00018	f6 45 08 01	 test	 BYTE PTR ___flags$[ebp], 1
  0001c	74 0b		 je	 SHORT $LN9@scalar
  0001e	6a 0c		 push	 12			; 0000000cH
  00020	56		 push	 esi
  00021	e8 00 00 00 00	 call	 ??3@YAXPAXI@Z		; operator delete
  00026	83 c4 08	 add	 esp, 8
$LN9@scalar:
  00029	8b c6		 mov	 eax, esi
  0002b	5e		 pop	 esi
  0002c	5d		 pop	 ebp
  0002d	c2 04 00	 ret	 4
??_Gbad_alloc@std@@UAEPAXI@Z ENDP			; std::bad_alloc::`scalar deleting destructor'
_TEXT	ENDS
; Function compile flags: /Ogtp
; File C:\Program Files (x86)\Microsoft Visual Studio\2019\Community\VC\Tools\MSVC\14.27.29110\include\vcruntime_exception.h
;	COMDAT ??0bad_alloc@std@@QAE@ABV01@@Z
_TEXT	SEGMENT
___that$ = 8						; size = 4
??0bad_alloc@std@@QAE@ABV01@@Z PROC			; std::bad_alloc::bad_alloc, COMDAT
; _this$ = ecx
  00000	55		 push	 ebp
  00001	8b ec		 mov	 ebp, esp

; 72   :     {

  00003	56		 push	 esi
  00004	8b f1		 mov	 esi, ecx
  00006	0f 57 c0	 xorps	 xmm0, xmm0

; 71   :         : _Data()

  00009	8d 46 04	 lea	 eax, DWORD PTR [esi+4]

; 73   :         __std_exception_copy(&_Other._Data, &_Data);

  0000c	50		 push	 eax
  0000d	c7 06 00 00 00
	00		 mov	 DWORD PTR [esi], OFFSET ??_7exception@std@@6B@
  00013	66 0f d6 00	 movq	 QWORD PTR [eax], xmm0
  00017	8b 45 08	 mov	 eax, DWORD PTR ___that$[ebp]
  0001a	83 c0 04	 add	 eax, 4
  0001d	50		 push	 eax
  0001e	e8 00 00 00 00	 call	 ___std_exception_copy
  00023	83 c4 08	 add	 esp, 8
  00026	c7 06 00 00 00
	00		 mov	 DWORD PTR [esi], OFFSET ??_7bad_alloc@std@@6B@
  0002c	8b c6		 mov	 eax, esi
  0002e	5e		 pop	 esi
  0002f	5d		 pop	 ebp
  00030	c2 04 00	 ret	 4
??0bad_alloc@std@@QAE@ABV01@@Z ENDP			; std::bad_alloc::bad_alloc
_TEXT	ENDS
; Function compile flags: /Ogtp
; File C:\Program Files (x86)\Microsoft Visual Studio\2019\Community\VC\Tools\MSVC\14.27.29110\include\vcruntime_exception.h
;	COMDAT ??_Gexception@std@@UAEPAXI@Z
_TEXT	SEGMENT
___flags$ = 8						; size = 4
??_Gexception@std@@UAEPAXI@Z PROC			; std::exception::`scalar deleting destructor', COMDAT
; _this$ = ecx
  00000	55		 push	 ebp
  00001	8b ec		 mov	 ebp, esp

; 89   :     {

  00003	56		 push	 esi
  00004	8b f1		 mov	 esi, ecx

; 90   :         __std_exception_destroy(&_Data);

  00006	8d 46 04	 lea	 eax, DWORD PTR [esi+4]
  00009	c7 06 00 00 00
	00		 mov	 DWORD PTR [esi], OFFSET ??_7exception@std@@6B@
  0000f	50		 push	 eax
  00010	e8 00 00 00 00	 call	 ___std_exception_destroy
  00015	83 c4 04	 add	 esp, 4
  00018	f6 45 08 01	 test	 BYTE PTR ___flags$[ebp], 1
  0001c	74 0b		 je	 SHORT $LN6@scalar
  0001e	6a 0c		 push	 12			; 0000000cH
  00020	56		 push	 esi
  00021	e8 00 00 00 00	 call	 ??3@YAXPAXI@Z		; operator delete
  00026	83 c4 08	 add	 esp, 8
$LN6@scalar:
  00029	8b c6		 mov	 eax, esi
  0002b	5e		 pop	 esi
  0002c	5d		 pop	 ebp
  0002d	c2 04 00	 ret	 4
??_Gexception@std@@UAEPAXI@Z ENDP			; std::exception::`scalar deleting destructor'
_TEXT	ENDS
; Function compile flags: /Ogtp
; File C:\Program Files (x86)\Microsoft Visual Studio\2019\Community\VC\Tools\MSVC\14.27.29110\include\vcruntime_exception.h
;	COMDAT ?what@exception@std@@UBEPBDXZ
_TEXT	SEGMENT
?what@exception@std@@UBEPBDXZ PROC			; std::exception::what, COMDAT
; _this$ = ecx

; 95   :         return _Data._What ? _Data._What : "Unknown exception";

  00000	8b 49 04	 mov	 ecx, DWORD PTR [ecx+4]
  00003	b8 00 00 00 00	 mov	 eax, OFFSET ??_C@_0BC@EOODALEL@Unknown?5exception@
  00008	85 c9		 test	 ecx, ecx
  0000a	0f 45 c1	 cmovne	 eax, ecx

; 96   :     }

  0000d	c3		 ret	 0
?what@exception@std@@UBEPBDXZ ENDP			; std::exception::what
_TEXT	ENDS
; Function compile flags: /Ogtp
; File C:\Program Files (x86)\Microsoft Visual Studio\2019\Community\VC\Tools\MSVC\14.27.29110\include\vcruntime_exception.h
;	COMDAT ??1exception@std@@UAE@XZ
_TEXT	SEGMENT
??1exception@std@@UAE@XZ PROC				; std::exception::~exception, COMDAT
; _this$ = ecx

; 90   :         __std_exception_destroy(&_Data);

  00000	8d 41 04	 lea	 eax, DWORD PTR [ecx+4]
  00003	c7 01 00 00 00
	00		 mov	 DWORD PTR [ecx], OFFSET ??_7exception@std@@6B@
  00009	50		 push	 eax
  0000a	e8 00 00 00 00	 call	 ___std_exception_destroy
  0000f	59		 pop	 ecx

; 91   :     }

  00010	c3		 ret	 0
??1exception@std@@UAE@XZ ENDP				; std::exception::~exception
_TEXT	ENDS
; Function compile flags: /Ogtp
; File C:\Program Files (x86)\Microsoft Visual Studio\2019\Community\VC\Tools\MSVC\14.27.29110\include\vcruntime_exception.h
;	COMDAT ??0exception@std@@QAE@ABV01@@Z
_TEXT	SEGMENT
__Other$ = 8						; size = 4
??0exception@std@@QAE@ABV01@@Z PROC			; std::exception::exception, COMDAT
; _this$ = ecx

; 72   :     {

  00000	55		 push	 ebp
  00001	8b ec		 mov	 ebp, esp
  00003	56		 push	 esi
  00004	8b f1		 mov	 esi, ecx
  00006	0f 57 c0	 xorps	 xmm0, xmm0
  00009	8d 46 04	 lea	 eax, DWORD PTR [esi+4]

; 73   :         __std_exception_copy(&_Other._Data, &_Data);

  0000c	50		 push	 eax
  0000d	c7 06 00 00 00
	00		 mov	 DWORD PTR [esi], OFFSET ??_7exception@std@@6B@
  00013	66 0f d6 00	 movq	 QWORD PTR [eax], xmm0
  00017	8b 45 08	 mov	 eax, DWORD PTR __Other$[ebp]
  0001a	83 c0 04	 add	 eax, 4
  0001d	50		 push	 eax
  0001e	e8 00 00 00 00	 call	 ___std_exception_copy
  00023	83 c4 08	 add	 esp, 8

; 74   :     }

  00026	8b c6		 mov	 eax, esi
  00028	5e		 pop	 esi
  00029	5d		 pop	 ebp
  0002a	c2 04 00	 ret	 4
??0exception@std@@QAE@ABV01@@Z ENDP			; std::exception::exception
_TEXT	ENDS
; Function compile flags: /Ogtp
;	COMDAT ??_H@YGXPAXIIP6EPAX0@Z@Z
_TEXT	SEGMENT
___t$ = 8						; size = 4
___s$ = 12						; size = 4
___n$ = 16						; size = 4
___f$ = 20						; size = 4
??_H@YGXPAXIIP6EPAX0@Z@Z PROC				; `vector constructor iterator', COMDAT
  00000	55		 push	 ebp
  00001	8b ec		 mov	 ebp, esp
  00003	56		 push	 esi
  00004	8b 75 10	 mov	 esi, DWORD PTR ___n$[ebp]
  00007	85 f6		 test	 esi, esi
  00009	74 16		 je	 SHORT $LN6@vector
  0000b	53		 push	 ebx
  0000c	8b 5d 14	 mov	 ebx, DWORD PTR ___f$[ebp]
  0000f	57		 push	 edi
  00010	8b 7d 08	 mov	 edi, DWORD PTR ___t$[ebp]
$LL2@vector:
  00013	8b cf		 mov	 ecx, edi
  00015	ff d3		 call	 ebx
  00017	03 7d 0c	 add	 edi, DWORD PTR ___s$[ebp]
  0001a	83 ee 01	 sub	 esi, 1
  0001d	75 f4		 jne	 SHORT $LL2@vector
  0001f	5f		 pop	 edi
  00020	5b		 pop	 ebx
$LN6@vector:
  00021	5e		 pop	 esi
  00022	5d		 pop	 ebp
  00023	c2 10 00	 ret	 16			; 00000010H
??_H@YGXPAXIIP6EPAX0@Z@Z ENDP				; `vector constructor iterator'
_TEXT	ENDS
END
