; Listing generated by Microsoft (R) Optimizing Compiler Version 19.27.29112.0 

	TITLE	C:\DS Project\DS Files\Source\ClientSource\Client\eterGrnLib\ThingInstance.cpp
	.686P
	.XMM
	include listing.inc
	.model	flat

INCLUDELIB LIBCMT
INCLUDELIB OLDNAMES

PUBLIC	??_R4?$CDynamicPool@VCGraphicThingInstance@@@@6B@ ; CDynamicPool<CGraphicThingInstance>::`RTTI Complete Object Locator'
PUBLIC	??_R0?AV?$CDynamicPool@VCGraphicThingInstance@@@@@8 ; CDynamicPool<CGraphicThingInstance> `RTTI Type Descriptor'
PUBLIC	??_R3?$CDynamicPool@VCGraphicThingInstance@@@@8	; CDynamicPool<CGraphicThingInstance>::`RTTI Class Hierarchy Descriptor'
PUBLIC	??_R2?$CDynamicPool@VCGraphicThingInstance@@@@8	; CDynamicPool<CGraphicThingInstance>::`RTTI Base Class Array'
PUBLIC	??_R1A@?0A@EA@?$CDynamicPool@VCGraphicThingInstance@@@@8 ; CDynamicPool<CGraphicThingInstance>::`RTTI Base Class Descriptor at (0,-1,0,64)'
PUBLIC	??_7?$CDynamicPool@VCGraphicThingInstance@@@@6B@ ; CDynamicPool<CGraphicThingInstance>::`vftable'
PUBLIC	??_G?$CDynamicPool@VCGraphicThingInstance@@@@UAEPAXI@Z ; CDynamicPool<CGraphicThingInstance>::`scalar deleting destructor'
EXTRN	??_E?$CDynamicPool@VCGraphicThingInstance@@@@UAEPAXI@Z:PROC ; CDynamicPool<CGraphicThingInstance>::`vector deleting destructor'
EXTRN	??_7type_info@@6B@:QWORD			; type_info::`vftable'
CONST	SEGMENT
?piecewise_construct@std@@3Upiecewise_construct_t@1@B	ORG $+1 ; std::piecewise_construct
CONST	ENDS
;	COMDAT ??_7?$CDynamicPool@VCGraphicThingInstance@@@@6B@
CONST	SEGMENT
??_7?$CDynamicPool@VCGraphicThingInstance@@@@6B@ DD FLAT:??_R4?$CDynamicPool@VCGraphicThingInstance@@@@6B@ ; CDynamicPool<CGraphicThingInstance>::`vftable'
	DD	FLAT:??_E?$CDynamicPool@VCGraphicThingInstance@@@@UAEPAXI@Z
CONST	ENDS
;	COMDAT ??_R1A@?0A@EA@?$CDynamicPool@VCGraphicThingInstance@@@@8
rdata$r	SEGMENT
??_R1A@?0A@EA@?$CDynamicPool@VCGraphicThingInstance@@@@8 DD FLAT:??_R0?AV?$CDynamicPool@VCGraphicThingInstance@@@@@8 ; CDynamicPool<CGraphicThingInstance>::`RTTI Base Class Descriptor at (0,-1,0,64)'
	DD	00H
	DD	00H
	DD	0ffffffffH
	DD	00H
	DD	040H
	DD	FLAT:??_R3?$CDynamicPool@VCGraphicThingInstance@@@@8
rdata$r	ENDS
;	COMDAT ??_R2?$CDynamicPool@VCGraphicThingInstance@@@@8
rdata$r	SEGMENT
??_R2?$CDynamicPool@VCGraphicThingInstance@@@@8 DD FLAT:??_R1A@?0A@EA@?$CDynamicPool@VCGraphicThingInstance@@@@8 ; CDynamicPool<CGraphicThingInstance>::`RTTI Base Class Array'
rdata$r	ENDS
;	COMDAT ??_R3?$CDynamicPool@VCGraphicThingInstance@@@@8
rdata$r	SEGMENT
??_R3?$CDynamicPool@VCGraphicThingInstance@@@@8 DD 00H	; CDynamicPool<CGraphicThingInstance>::`RTTI Class Hierarchy Descriptor'
	DD	00H
	DD	01H
	DD	FLAT:??_R2?$CDynamicPool@VCGraphicThingInstance@@@@8
rdata$r	ENDS
;	COMDAT ??_R0?AV?$CDynamicPool@VCGraphicThingInstance@@@@@8
data$r	SEGMENT
??_R0?AV?$CDynamicPool@VCGraphicThingInstance@@@@@8 DD FLAT:??_7type_info@@6B@ ; CDynamicPool<CGraphicThingInstance> `RTTI Type Descriptor'
	DD	00H
	DB	'.?AV?$CDynamicPool@VCGraphicThingInstance@@@@', 00H
data$r	ENDS
;	COMDAT ??_R4?$CDynamicPool@VCGraphicThingInstance@@@@6B@
rdata$r	SEGMENT
??_R4?$CDynamicPool@VCGraphicThingInstance@@@@6B@ DD 00H ; CDynamicPool<CGraphicThingInstance>::`RTTI Complete Object Locator'
	DD	00H
	DD	00H
	DD	FLAT:??_R0?AV?$CDynamicPool@VCGraphicThingInstance@@@@@8
	DD	FLAT:??_R3?$CDynamicPool@VCGraphicThingInstance@@@@8
rdata$r	ENDS
PUBLIC	??0exception@std@@QAE@ABV01@@Z			; std::exception::exception
PUBLIC	??1exception@std@@UAE@XZ			; std::exception::~exception
PUBLIC	?what@exception@std@@UBEPBDXZ			; std::exception::what
PUBLIC	??_Gexception@std@@UAEPAXI@Z			; std::exception::`scalar deleting destructor'
PUBLIC	??0bad_alloc@std@@QAE@ABV01@@Z			; std::bad_alloc::bad_alloc
PUBLIC	??_Gbad_alloc@std@@UAEPAXI@Z			; std::bad_alloc::`scalar deleting destructor'
PUBLIC	??0bad_array_new_length@std@@QAE@XZ		; std::bad_array_new_length::bad_array_new_length
PUBLIC	??1bad_array_new_length@std@@UAE@XZ		; std::bad_array_new_length::~bad_array_new_length
PUBLIC	??0bad_array_new_length@std@@QAE@ABV01@@Z	; std::bad_array_new_length::bad_array_new_length
PUBLIC	??_Gbad_array_new_length@std@@UAEPAXI@Z		; std::bad_array_new_length::`scalar deleting destructor'
PUBLIC	?_Throw_bad_array_new_length@std@@YAXXZ		; std::_Throw_bad_array_new_length
PUBLIC	?_Throw_tree_length_error@std@@YAXXZ		; std::_Throw_tree_length_error
PUBLIC	?Clear@SModelThingSet@CGraphicThingInstance@@QAEXXZ ; CGraphicThingInstance::SModelThingSet::Clear
PUBLIC	?_Xlength@?$vector@PAV?$CRef@VCGraphicThing@@@@V?$allocator@PAV?$CRef@VCGraphicThing@@@@@std@@@std@@CAXXZ ; std::vector<CRef<CGraphicThing> *,std::allocator<CRef<CGraphicThing> *> >::_Xlength
PUBLIC	?GetType@CGraphicThingInstance@@UBEHXZ		; CGraphicThingInstance::GetType
PUBLIC	??0CGraphicThingInstance@@QAE@XZ		; CGraphicThingInstance::CGraphicThingInstance
PUBLIC	??1CGraphicThingInstance@@UAE@XZ		; CGraphicThingInstance::~CGraphicThingInstance
PUBLIC	?DeformNoSkin@CGraphicThingInstance@@QAEXXZ	; CGraphicThingInstance::DeformNoSkin
PUBLIC	?UpdateLODLevel@CGraphicThingInstance@@QAEXXZ	; CGraphicThingInstance::UpdateLODLevel
PUBLIC	?UpdateTime@CGraphicThingInstance@@QAEXXZ	; CGraphicThingInstance::UpdateTime
PUBLIC	?DeformAll@CGraphicThingInstance@@QAEXXZ	; CGraphicThingInstance::DeformAll
PUBLIC	?LessRenderOrder@CGraphicThingInstance@@QAE_NPAV1@@Z ; CGraphicThingInstance::LessRenderOrder
PUBLIC	?Picking@CGraphicThingInstance@@QAE_NABUD3DXVECTOR3@@0AAM1@Z ; CGraphicThingInstance::Picking
PUBLIC	?OnInitialize@CGraphicThingInstance@@UAEXXZ	; CGraphicThingInstance::OnInitialize
PUBLIC	?CreateDeviceObjects@CGraphicThingInstance@@QAE_NXZ ; CGraphicThingInstance::CreateDeviceObjects
PUBLIC	?DestroyDeviceObjects@CGraphicThingInstance@@QAEXXZ ; CGraphicThingInstance::DestroyDeviceObjects
PUBLIC	?ReserveModelInstance@CGraphicThingInstance@@QAEXH@Z ; CGraphicThingInstance::ReserveModelInstance
PUBLIC	?ReserveModelThing@CGraphicThingInstance@@QAEXH@Z ; CGraphicThingInstance::ReserveModelThing
PUBLIC	?CheckModelInstanceIndex@CGraphicThingInstance@@QAE_NH@Z ; CGraphicThingInstance::CheckModelInstanceIndex
PUBLIC	?CheckModelThingIndex@CGraphicThingInstance@@QAE_NH@Z ; CGraphicThingInstance::CheckModelThingIndex
PUBLIC	?CheckMotionThingIndex@CGraphicThingInstance@@QAE_NK@Z ; CGraphicThingInstance::CheckMotionThingIndex
PUBLIC	?GetMotionThingPointer@CGraphicThingInstance@@QAE_NKPAPAVCGraphicThing@@@Z ; CGraphicThingInstance::GetMotionThingPointer
PUBLIC	?IsMotionThing@CGraphicThingInstance@@QAE_NXZ	; CGraphicThingInstance::IsMotionThing
PUBLIC	?RegisterModelThing@CGraphicThingInstance@@QAEXHPAVCGraphicThing@@@Z ; CGraphicThingInstance::RegisterModelThing
PUBLIC	?RegisterLODThing@CGraphicThingInstance@@QAEXHPAVCGraphicThing@@@Z ; CGraphicThingInstance::RegisterLODThing
PUBLIC	?RegisterMotionThing@CGraphicThingInstance@@QAEXKPAVCGraphicThing@@@Z ; CGraphicThingInstance::RegisterMotionThing
PUBLIC	?SetModelInstance@CGraphicThingInstance@@QAE_NHHHH@Z ; CGraphicThingInstance::SetModelInstance
PUBLIC	?SetEndStopMotion@CGraphicThingInstance@@QAEXXZ	; CGraphicThingInstance::SetEndStopMotion
PUBLIC	?SetMotionAtEnd@CGraphicThingInstance@@QAEXXZ	; CGraphicThingInstance::SetMotionAtEnd
PUBLIC	?AttachModelInstance@CGraphicThingInstance@@QAEXHPBDH@Z ; CGraphicThingInstance::AttachModelInstance
PUBLIC	?AttachModelInstance@CGraphicThingInstance@@QAEXHPBDAAV1@H@Z ; CGraphicThingInstance::AttachModelInstance
PUBLIC	?DetachModelInstance@CGraphicThingInstance@@QAEXHAAV1@H@Z ; CGraphicThingInstance::DetachModelInstance
PUBLIC	?FindBoneIndex@CGraphicThingInstance@@QAE_NHPBDPAH@Z ; CGraphicThingInstance::FindBoneIndex
PUBLIC	?GetBonePosition@CGraphicThingInstance@@QAE_NHHPAM00@Z ; CGraphicThingInstance::GetBonePosition
PUBLIC	?ResetLocalTime@CGraphicThingInstance@@QAEXXZ	; CGraphicThingInstance::ResetLocalTime
PUBLIC	?InsertDelay@CGraphicThingInstance@@QAEXM@Z	; CGraphicThingInstance::InsertDelay
PUBLIC	?SetMaterialImagePointer@CGraphicThingInstance@@QAEXIPBDPAVCGraphicImage@@@Z ; CGraphicThingInstance::SetMaterialImagePointer
PUBLIC	?SetMaterialData@CGraphicThingInstance@@QAEXIPBDUSMaterialData@@@Z ; CGraphicThingInstance::SetMaterialData
PUBLIC	?SetSpecularInfo@CGraphicThingInstance@@QAEXIPBDHM@Z ; CGraphicThingInstance::SetSpecularInfo
PUBLIC	?__SetLocalTime@CGraphicThingInstance@@QAEXM@Z	; CGraphicThingInstance::__SetLocalTime
PUBLIC	?GetLastLocalTime@CGraphicThingInstance@@QAEMXZ	; CGraphicThingInstance::GetLastLocalTime
PUBLIC	?GetLocalTime@CGraphicThingInstance@@QAEMXZ	; CGraphicThingInstance::GetLocalTime
PUBLIC	?GetSecondElapsed@CGraphicThingInstance@@QAEMXZ	; CGraphicThingInstance::GetSecondElapsed
PUBLIC	?GetAverageSecondElapsed@CGraphicThingInstance@@QAEMXZ ; CGraphicThingInstance::GetAverageSecondElapsed
PUBLIC	?GetLODLevel@CGraphicThingInstance@@QAEEK@Z	; CGraphicThingInstance::GetLODLevel
PUBLIC	?GetHeight@CGraphicThingInstance@@QAEMXZ	; CGraphicThingInstance::GetHeight
PUBLIC	?RenderWithOneTexture@CGraphicThingInstance@@QAEXXZ ; CGraphicThingInstance::RenderWithOneTexture
PUBLIC	?RenderWithTwoTexture@CGraphicThingInstance@@QAEXXZ ; CGraphicThingInstance::RenderWithTwoTexture
PUBLIC	?BlendRenderWithOneTexture@CGraphicThingInstance@@QAEXXZ ; CGraphicThingInstance::BlendRenderWithOneTexture
PUBLIC	?BlendRenderWithTwoTexture@CGraphicThingInstance@@QAEXXZ ; CGraphicThingInstance::BlendRenderWithTwoTexture
PUBLIC	?GetLODControllerCount@CGraphicThingInstance@@QBEKXZ ; CGraphicThingInstance::GetLODControllerCount
PUBLIC	?GetLODControllerPointer@CGraphicThingInstance@@QBEPAVCGrannyLODController@@K@Z ; CGraphicThingInstance::GetLODControllerPointer
PUBLIC	?GetLODControllerPointer@CGraphicThingInstance@@QAEPAVCGrannyLODController@@K@Z ; CGraphicThingInstance::GetLODControllerPointer
PUBLIC	?ReloadTexture@CGraphicThingInstance@@QAEXXZ	; CGraphicThingInstance::ReloadTexture
PUBLIC	?GetBaseThingPtr@CGraphicThingInstance@@QAEPAVCGraphicThing@@XZ ; CGraphicThingInstance::GetBaseThingPtr
PUBLIC	?SetMotion@CGraphicThingInstance@@QAE_NKMHM@Z	; CGraphicThingInstance::SetMotion
PUBLIC	?ChangeMotion@CGraphicThingInstance@@QAE_NKHM@Z	; CGraphicThingInstance::ChangeMotion
PUBLIC	?Intersect@CGraphicThingInstance@@QAE_NPAM00@Z	; CGraphicThingInstance::Intersect
PUBLIC	?GetBoundBox@CGraphicThingInstance@@QAEXPAUD3DXVECTOR3@@0@Z ; CGraphicThingInstance::GetBoundBox
PUBLIC	?GetBoundBox@CGraphicThingInstance@@QAEHKPAUD3DXVECTOR3@@0@Z ; CGraphicThingInstance::GetBoundBox
PUBLIC	?GetBoneMatrix@CGraphicThingInstance@@QAEHKKPAPAUD3DXMATRIX@@@Z ; CGraphicThingInstance::GetBoneMatrix
PUBLIC	?GetCompositeBoneMatrix@CGraphicThingInstance@@QAEHKKPAPAUD3DXMATRIX@@@Z ; CGraphicThingInstance::GetCompositeBoneMatrix
PUBLIC	?UpdateTransform@CGraphicThingInstance@@QAEXPAUD3DXMATRIX@@MH@Z ; CGraphicThingInstance::UpdateTransform
PUBLIC	?BuildBoundingSphere@CGraphicThingInstance@@QAEXXZ ; CGraphicThingInstance::BuildBoundingSphere
PUBLIC	?BuildBoundingAABB@CGraphicThingInstance@@QAEXXZ ; CGraphicThingInstance::BuildBoundingAABB
PUBLIC	?CalculateBBox@CGraphicThingInstance@@UAEXXZ	; CGraphicThingInstance::CalculateBBox
PUBLIC	?GetBoundingSphere@CGraphicThingInstance@@UAE_NAAUD3DXVECTOR3@@AAM@Z ; CGraphicThingInstance::GetBoundingSphere
PUBLIC	?GetBoundingAABB@CGraphicThingInstance@@UAE_NAAUD3DXVECTOR3@@0@Z ; CGraphicThingInstance::GetBoundingAABB
PUBLIC	?OnClear@CGraphicThingInstance@@MAEXXZ		; CGraphicThingInstance::OnClear
PUBLIC	?OnDeform@CGraphicThingInstance@@MAEXXZ		; CGraphicThingInstance::OnDeform
PUBLIC	?OnUpdate@CGraphicThingInstance@@MAEXXZ		; CGraphicThingInstance::OnUpdate
PUBLIC	?OnRender@CGraphicThingInstance@@MAEXXZ		; CGraphicThingInstance::OnRender
PUBLIC	?OnBlendRender@CGraphicThingInstance@@MAEXXZ	; CGraphicThingInstance::OnBlendRender
PUBLIC	?OnRenderToShadowMap@CGraphicThingInstance@@MAEXXZ ; CGraphicThingInstance::OnRenderToShadowMap
PUBLIC	?OnRenderShadow@CGraphicThingInstance@@MAEXXZ	; CGraphicThingInstance::OnRenderShadow
PUBLIC	?OnRenderPCBlocker@CGraphicThingInstance@@MAEXXZ ; CGraphicThingInstance::OnRenderPCBlocker
PUBLIC	??1?$vector@PAVCGrannyLODController@@V?$allocator@PAVCGrannyLODController@@@std@@@std@@QAE@XZ ; std::vector<CGrannyLODController *,std::allocator<CGrannyLODController *> >::~vector<CGrannyLODController *,std::allocator<CGrannyLODController *> >
PUBLIC	?_Xlength@?$vector@PAVCGrannyLODController@@V?$allocator@PAVCGrannyLODController@@@std@@@std@@CAXXZ ; std::vector<CGrannyLODController *,std::allocator<CGrannyLODController *> >::_Xlength
PUBLIC	??1?$vector@USModelThingSet@CGraphicThingInstance@@V?$allocator@USModelThingSet@CGraphicThingInstance@@@std@@@std@@QAE@XZ ; std::vector<CGraphicThingInstance::SModelThingSet,std::allocator<CGraphicThingInstance::SModelThingSet> >::~vector<CGraphicThingInstance::SModelThingSet,std::allocator<CGraphicThingInstance::SModelThingSet> >
PUBLIC	?_Xlength@?$vector@USModelThingSet@CGraphicThingInstance@@V?$allocator@USModelThingSet@CGraphicThingInstance@@@std@@@std@@CAXXZ ; std::vector<CGraphicThingInstance::SModelThingSet,std::allocator<CGraphicThingInstance::SModelThingSet> >::_Xlength
PUBLIC	??1?$_Tree@V?$_Tmap_traits@KPAV?$CRef@VCGraphicThing@@@@U?$less@K@std@@V?$allocator@U?$pair@$$CBKPAV?$CRef@VCGraphicThing@@@@@std@@@3@$0A@@std@@@std@@QAE@XZ ; std::_Tree<std::_Tmap_traits<unsigned long,CRef<CGraphicThing> *,std::less<unsigned long>,std::allocator<std::pair<unsigned long const ,CRef<CGraphicThing> *> >,0> >::~_Tree<std::_Tmap_traits<unsigned long,CRef<CGraphicThing> *,std::less<unsigned long>,std::allocator<std::pair<unsigned long const ,CRef<CGraphicThing> *> >,0> >
PUBLIC	?_Insert_node@?$_Tree_val@U?$_Tree_simple_types@U?$pair@$$CBKPAV?$CRef@VCGraphicThing@@@@@std@@@std@@@std@@QAEPAU?$_Tree_node@U?$pair@$$CBKPAV?$CRef@VCGraphicThing@@@@@std@@PAX@2@U?$_Tree_id@PAU?$_Tree_node@U?$pair@$$CBKPAV?$CRef@VCGraphicThing@@@@@std@@PAX@std@@@2@QAU32@@Z ; std::_Tree_val<std::_Tree_simple_types<std::pair<unsigned long const ,CRef<CGraphicThing> *> > >::_Insert_node
PUBLIC	??1?$map@KPAV?$CRef@VCGraphicThing@@@@U?$less@K@std@@V?$allocator@U?$pair@$$CBKPAV?$CRef@VCGraphicThing@@@@@std@@@3@@std@@QAE@XZ ; std::map<unsigned long,CRef<CGraphicThing> *,std::less<unsigned long>,std::allocator<std::pair<unsigned long const ,CRef<CGraphicThing> *> > >::~map<unsigned long,CRef<CGraphicThing> *,std::less<unsigned long>,std::allocator<std::pair<unsigned long const ,CRef<CGraphicThing> *> > >
PUBLIC	?OnUpdateCollisionData@CGraphicThingInstance@@MAEXPBV?$vector@VCStaticCollisionData@@V?$allocator@VCStaticCollisionData@@@std@@@std@@@Z ; CGraphicThingInstance::OnUpdateCollisionData
PUBLIC	?OnUpdateHeighInstance@CGraphicThingInstance@@MAEXPAVCAttributeInstance@@@Z ; CGraphicThingInstance::OnUpdateHeighInstance
PUBLIC	?OnGetObjectHeight@CGraphicThingInstance@@MAE_NMMPAM@Z ; CGraphicThingInstance::OnGetObjectHeight
PUBLIC	?CreateSystem@CGraphicThingInstance@@SAXI@Z	; CGraphicThingInstance::CreateSystem
PUBLIC	?DestroySystem@CGraphicThingInstance@@SAXXZ	; CGraphicThingInstance::DestroySystem
PUBLIC	?New@CGraphicThingInstance@@SAPAV1@XZ		; CGraphicThingInstance::New
PUBLIC	?Delete@CGraphicThingInstance@@SAXPAV1@@Z	; CGraphicThingInstance::Delete
PUBLIC	?HaveBlendThing@CGraphicThingInstance@@QAE_NXZ	; CGraphicThingInstance::HaveBlendThing
PUBLIC	??_GCGraphicThingInstance@@UAEPAXI@Z		; CGraphicThingInstance::`scalar deleting destructor'
PUBLIC	??1?$CDynamicPool@VCGraphicThingInstance@@@@UAE@XZ ; CDynamicPool<CGraphicThingInstance>::~CDynamicPool<CGraphicThingInstance>
PUBLIC	?Delete@?$CDynamicPool@VCGraphicThingInstance@@@@KAXPAVCGraphicThingInstance@@@Z ; CDynamicPool<CGraphicThingInstance>::Delete
PUBLIC	?_Reallocate_exactly@?$vector@PAVCGraphicThingInstance@@V?$allocator@PAVCGraphicThingInstance@@@std@@@std@@AAEXI@Z ; std::vector<CGraphicThingInstance *,std::allocator<CGraphicThingInstance *> >::_Reallocate_exactly
PUBLIC	?_Xlength@?$vector@PAVCGraphicThingInstance@@V?$allocator@PAVCGraphicThingInstance@@@std@@@std@@CAXXZ ; std::vector<CGraphicThingInstance *,std::allocator<CGraphicThingInstance *> >::_Xlength
PUBLIC	??$stl_wipe@V?$vector@PAVCGrannyLODController@@V?$allocator@PAVCGrannyLODController@@@std@@@std@@@@YAXAAV?$vector@PAVCGrannyLODController@@V?$allocator@PAVCGrannyLODController@@@std@@@std@@@Z ; stl_wipe<std::vector<CGrannyLODController *,std::allocator<CGrannyLODController *> > >
PUBLIC	??$_Emplace_reallocate@ABQAVCGrannyLODController@@@?$vector@PAVCGrannyLODController@@V?$allocator@PAVCGrannyLODController@@@std@@@std@@QAEPAPAVCGrannyLODController@@QAPAV2@ABQAV2@@Z ; std::vector<CGrannyLODController *,std::allocator<CGrannyLODController *> >::_Emplace_reallocate<CGrannyLODController * const &>
PUBLIC	??$_Emplace_reallocate@ABQAV?$CRef@VCGraphicThing@@@@@?$vector@PAV?$CRef@VCGraphicThing@@@@V?$allocator@PAV?$CRef@VCGraphicThing@@@@@std@@@std@@QAEPAPAV?$CRef@VCGraphicThing@@@@QAPAV2@ABQAV2@@Z ; std::vector<CRef<CGraphicThing> *,std::allocator<CRef<CGraphicThing> *> >::_Emplace_reallocate<CRef<CGraphicThing> * const &>
PUBLIC	??$_Emplace_reallocate@ABQAVCGraphicThingInstance@@@?$vector@PAVCGraphicThingInstance@@V?$allocator@PAVCGraphicThingInstance@@@std@@@std@@QAEPAPAVCGraphicThingInstance@@QAPAV2@ABQAV2@@Z ; std::vector<CGraphicThingInstance *,std::allocator<CGraphicThingInstance *> >::_Emplace_reallocate<CGraphicThingInstance * const &>
PUBLIC	??$_Destroy_range@V?$allocator@PAVCGraphicThingInstance@@@std@@@std@@YAXPAPAVCGraphicThingInstance@@QAPAV1@AAV?$allocator@PAVCGraphicThingInstance@@@0@@Z ; std::_Destroy_range<std::allocator<CGraphicThingInstance *> >
PUBLIC	??$_Destroy_range@V?$allocator@USModelThingSet@CGraphicThingInstance@@@std@@@std@@YAXPAUSModelThingSet@CGraphicThingInstance@@QAU12@AAV?$allocator@USModelThingSet@CGraphicThingInstance@@@0@@Z ; std::_Destroy_range<std::allocator<CGraphicThingInstance::SModelThingSet> >
PUBLIC	??$_Deallocate@$07$0A@@std@@YAXPAXI@Z		; std::_Deallocate<8,0>
PUBLIC	??$_Destroy_range@V?$allocator@PAVCGrannyLODController@@@std@@@std@@YAXPAPAVCGrannyLODController@@QAPAV1@AAV?$allocator@PAVCGrannyLODController@@@0@@Z ; std::_Destroy_range<std::allocator<CGrannyLODController *> >
PUBLIC	??$_Allocate@$07U_Default_allocate_traits@std@@$0A@@std@@YAPAXI@Z ; std::_Allocate<8,std::_Default_allocate_traits,0>
PUBLIC	??$_Uninitialized_move@PAPAVCGraphicThingInstance@@V?$allocator@PAVCGraphicThingInstance@@@std@@@std@@YAPAPAVCGraphicThingInstance@@QAPAV1@0PAPAV1@AAV?$allocator@PAVCGraphicThingInstance@@@0@@Z ; std::_Uninitialized_move<CGraphicThingInstance * *,std::allocator<CGraphicThingInstance *> >
PUBLIC	??$_Find_lower_bound@K@?$_Tree@V?$_Tmap_traits@KPAV?$CRef@VCGraphicThing@@@@U?$less@K@std@@V?$allocator@U?$pair@$$CBKPAV?$CRef@VCGraphicThing@@@@@std@@@3@$0A@@std@@@std@@IBE?AU?$_Tree_find_result@PAU?$_Tree_node@U?$pair@$$CBKPAV?$CRef@VCGraphicThing@@@@@std@@PAX@std@@@1@ABK@Z ; std::_Tree<std::_Tmap_traits<unsigned long,CRef<CGraphicThing> *,std::less<unsigned long>,std::allocator<std::pair<unsigned long const ,CRef<CGraphicThing> *> >,0> >::_Find_lower_bound<unsigned long>
PUBLIC	??1?$_Alloc_construct_ptr@V?$allocator@U?$_Tree_node@U?$pair@$$CBKPAV?$CRef@VCGraphicThing@@@@@std@@PAX@std@@@std@@@std@@QAE@XZ ; std::_Alloc_construct_ptr<std::allocator<std::_Tree_node<std::pair<unsigned long const ,CRef<CGraphicThing> *>,void *> > >::~_Alloc_construct_ptr<std::allocator<std::_Tree_node<std::pair<unsigned long const ,CRef<CGraphicThing> *>,void *> > >
PUBLIC	??$_Erase_tree@V?$allocator@U?$_Tree_node@U?$pair@$$CBKPAV?$CRef@VCGraphicThing@@@@@std@@PAX@std@@@std@@@?$_Tree_val@U?$_Tree_simple_types@U?$pair@$$CBKPAV?$CRef@VCGraphicThing@@@@@std@@@std@@@std@@QAEXAAV?$allocator@U?$_Tree_node@U?$pair@$$CBKPAV?$CRef@VCGraphicThing@@@@@std@@PAX@std@@@1@PAU?$_Tree_node@U?$pair@$$CBKPAV?$CRef@VCGraphicThing@@@@@std@@PAX@1@@Z ; std::_Tree_val<std::_Tree_simple_types<std::pair<unsigned long const ,CRef<CGraphicThing> *> > >::_Erase_tree<std::allocator<std::_Tree_node<std::pair<unsigned long const ,CRef<CGraphicThing> *>,void *> > >
PUBLIC	??$_Resize_reallocate@U_Value_init_tag@std@@@?$vector@USModelThingSet@CGraphicThingInstance@@V?$allocator@USModelThingSet@CGraphicThingInstance@@@std@@@std@@AAEXIABU_Value_init_tag@1@@Z ; std::vector<CGraphicThingInstance::SModelThingSet,std::allocator<CGraphicThingInstance::SModelThingSet> >::_Resize_reallocate<std::_Value_init_tag>
PUBLIC	??$_Construct_in_place@PAU?$_Tree_node@U?$pair@$$CBKPAV?$CRef@VCGraphicThing@@@@@std@@PAX@std@@ABQAU12@@std@@YAXAAPAU?$_Tree_node@U?$pair@$$CBKPAV?$CRef@VCGraphicThing@@@@@std@@PAX@0@ABQAU10@@Z ; std::_Construct_in_place<std::_Tree_node<std::pair<unsigned long const ,CRef<CGraphicThing> *>,void *> *,std::_Tree_node<std::pair<unsigned long const ,CRef<CGraphicThing> *>,void *> * const &>
PUBLIC	??$_Allocate_manually_vector_aligned@U_Default_allocate_traits@std@@@std@@YAPAXI@Z ; std::_Allocate_manually_vector_aligned<std::_Default_allocate_traits>
PUBLIC	??$_Copy_memmove@PAPAVCGraphicThingInstance@@PAPAV1@@std@@YAPAPAVCGraphicThingInstance@@PAPAV1@00@Z ; std::_Copy_memmove<CGraphicThingInstance * *,CGraphicThingInstance * *>
PUBLIC	??$_Destroy_in_place@PAU?$_Tree_node@U?$pair@$$CBKPAV?$CRef@VCGraphicThing@@@@@std@@PAX@std@@@std@@YAXAAPAU?$_Tree_node@U?$pair@$$CBKPAV?$CRef@VCGraphicThing@@@@@std@@PAX@0@@Z ; std::_Destroy_in_place<std::_Tree_node<std::pair<unsigned long const ,CRef<CGraphicThing> *>,void *> *>
PUBLIC	??$_Uninitialized_value_construct_n@V?$allocator@USModelThingSet@CGraphicThingInstance@@@std@@@std@@YAPAUSModelThingSet@CGraphicThingInstance@@PAU12@IAAV?$allocator@USModelThingSet@CGraphicThingInstance@@@0@@Z ; std::_Uninitialized_value_construct_n<std::allocator<CGraphicThingInstance::SModelThingSet> >
PUBLIC	??$_Uninitialized_move@PAPAVCGrannyLODController@@V?$allocator@PAVCGrannyLODController@@@std@@@std@@YAPAPAVCGrannyLODController@@QAPAV1@0PAPAV1@AAV?$allocator@PAVCGrannyLODController@@@0@@Z ; std::_Uninitialized_move<CGrannyLODController * *,std::allocator<CGrannyLODController *> >
PUBLIC	??$_Destroy_range@V?$allocator@PAV?$CRef@VCGraphicThing@@@@@std@@@std@@YAXPAPAV?$CRef@VCGraphicThing@@@@QAPAV1@AAV?$allocator@PAV?$CRef@VCGraphicThing@@@@@0@@Z ; std::_Destroy_range<std::allocator<CRef<CGraphicThing> *> >
PUBLIC	??$_Uninitialized_move@PAPAV?$CRef@VCGraphicThing@@@@V?$allocator@PAV?$CRef@VCGraphicThing@@@@@std@@@std@@YAPAPAV?$CRef@VCGraphicThing@@@@QAPAV1@0PAPAV1@AAV?$allocator@PAV?$CRef@VCGraphicThing@@@@@0@@Z ; std::_Uninitialized_move<CRef<CGraphicThing> * *,std::allocator<CRef<CGraphicThing> *> >
PUBLIC	??$_Construct_in_place@PAU?$_Tree_node@U?$pair@$$CBKPAV?$CRef@VCGraphicThing@@@@@std@@PAX@std@@AAPAU12@@std@@YAXAAPAU?$_Tree_node@U?$pair@$$CBKPAV?$CRef@VCGraphicThing@@@@@std@@PAX@0@0@Z ; std::_Construct_in_place<std::_Tree_node<std::pair<unsigned long const ,CRef<CGraphicThing> *>,void *> *,std::_Tree_node<std::pair<unsigned long const ,CRef<CGraphicThing> *>,void *> * &>
PUBLIC	??$_Copy_memmove@PAPAVCGrannyLODController@@PAPAV1@@std@@YAPAPAVCGrannyLODController@@PAPAV1@00@Z ; std::_Copy_memmove<CGrannyLODController * *,CGrannyLODController * *>
PUBLIC	??$_Copy_memmove@PAPAV?$CRef@VCGraphicThing@@@@PAPAV1@@std@@YAPAPAV?$CRef@VCGraphicThing@@@@PAPAV1@00@Z ; std::_Copy_memmove<CRef<CGraphicThing> * *,CRef<CGraphicThing> * *>
PUBLIC	??$_Uninitialized_move@PAUSModelThingSet@CGraphicThingInstance@@V?$allocator@USModelThingSet@CGraphicThingInstance@@@std@@@std@@YAPAUSModelThingSet@CGraphicThingInstance@@QAU12@0PAU12@AAV?$allocator@USModelThingSet@CGraphicThingInstance@@@0@@Z ; std::_Uninitialized_move<CGraphicThingInstance::SModelThingSet *,std::allocator<CGraphicThingInstance::SModelThingSet> >
PUBLIC	??$?0ABK$$Z$$V@?$pair@$$CBKPAV?$CRef@VCGraphicThing@@@@@std@@QAE@Upiecewise_construct_t@1@V?$tuple@ABK@1@V?$tuple@$$V@1@@Z ; std::pair<unsigned long const ,CRef<CGraphicThing> *>::pair<unsigned long const ,CRef<CGraphicThing> *><unsigned long const &>
PUBLIC	??$?0V?$tuple@ABK@std@@V?$tuple@$$V@1@$0A@$$Z$S@?$pair@$$CBKPAV?$CRef@VCGraphicThing@@@@@std@@QAE@AAV?$tuple@ABK@1@AAV?$tuple@$$V@1@U?$integer_sequence@I$0A@@1@U?$integer_sequence@I$S@1@@Z ; std::pair<unsigned long const ,CRef<CGraphicThing> *>::pair<unsigned long const ,CRef<CGraphicThing> *><std::tuple<unsigned long const &>,std::tuple<>,0>
PUBLIC	??_7exception@std@@6B@				; std::exception::`vftable'
PUBLIC	??_C@_0BC@EOODALEL@Unknown?5exception@		; `string'
PUBLIC	??_7bad_alloc@std@@6B@				; std::bad_alloc::`vftable'
PUBLIC	??_7bad_array_new_length@std@@6B@		; std::bad_array_new_length::`vftable'
PUBLIC	??_C@_0BF@KINCDENJ@bad?5array?5new?5length@	; `string'
PUBLIC	__TI3?AVbad_array_new_length@std@@
PUBLIC	__CTA3?AVbad_array_new_length@std@@
PUBLIC	??_R0?AVbad_array_new_length@std@@@8		; std::bad_array_new_length `RTTI Type Descriptor'
PUBLIC	__CT??_R0?AVbad_array_new_length@std@@@8??0bad_array_new_length@std@@QAE@ABV01@@Z12
PUBLIC	??_R0?AVbad_alloc@std@@@8			; std::bad_alloc `RTTI Type Descriptor'
PUBLIC	__CT??_R0?AVbad_alloc@std@@@8??0bad_alloc@std@@QAE@ABV01@@Z12
PUBLIC	??_R0?AVexception@std@@@8			; std::exception `RTTI Type Descriptor'
PUBLIC	__CT??_R0?AVexception@std@@@8??0exception@std@@QAE@ABV01@@Z12
PUBLIC	??_C@_0BB@GCADKGJO@map?1set?5too?5long@		; `string'
PUBLIC	?ms_singleton@?$CSingleton@VCCameraManager@@@@0PAVCCameraManager@@A ; CSingleton<CCameraManager>::ms_singleton
PUBLIC	?ms_singleton@?$CSingleton@VCTimer@@@@0PAVCTimer@@A ; CSingleton<CTimer>::ms_singleton
PUBLIC	?ms_kPool@CGraphicThingInstance@@2V?$CDynamicPool@VCGraphicThingInstance@@@@A ; CGraphicThingInstance::ms_kPool
PUBLIC	??_7CGraphicThingInstance@@6B@			; CGraphicThingInstance::`vftable'
PUBLIC	??_C@_0GI@OAKDPIDM@CGraphicThingInstance?3?3AttachMo@ ; `string'
PUBLIC	??_C@_0FH@FOLHJMIP@CGraphicThingInstance?3?3AttachMo@ ; `string'
PUBLIC	??_C@_0FN@FDKPIIBK@CGraphicThingInstance?3?3SetModel@ ; `string'
PUBLIC	??_C@_0IG@CNBHAOPI@CGraphicThingInstance?3?3SetModel@ ; `string'
PUBLIC	??_C@_0HL@PNAAKLOK@CGraphicThingInstance?3?3SetMater@ ; `string'
PUBLIC	??_C@_0GM@CIGLBIHL@CGraphicThingInstance?3?3SetMater@ ; `string'
PUBLIC	??_C@_0FG@DKLHHMAO@CGraphicThingInstance?3?3SetMater@ ; `string'
PUBLIC	??_C@_0EH@ILONCBFP@CGraphicThingInstance?3?3SetMater@ ; `string'
PUBLIC	??_C@_0FG@IDFCAGB@CGraphicThingInstance?3?3SetSpecu@ ; `string'
PUBLIC	??_C@_0EH@ILOLFLHJ@CGraphicThingInstance?3?3SetSpecu@ ; `string'
PUBLIC	??_C@_0EL@BCFDDCFO@CGraphicThingInstance?3?3Register@ ; `string'
PUBLIC	??_C@_0ED@LMOOEEKB@CGraphicThingInstance?3?3UpdateLO@ ; `string'
PUBLIC	??_C@_0BA@FOIKENOD@vector?5too?5long@		; `string'
PUBLIC	??_R4exception@std@@6B@				; std::exception::`RTTI Complete Object Locator'
PUBLIC	??_R3exception@std@@8				; std::exception::`RTTI Class Hierarchy Descriptor'
PUBLIC	??_R2exception@std@@8				; std::exception::`RTTI Base Class Array'
PUBLIC	??_R1A@?0A@EA@exception@std@@8			; std::exception::`RTTI Base Class Descriptor at (0,-1,0,64)'
PUBLIC	??_R4bad_alloc@std@@6B@				; std::bad_alloc::`RTTI Complete Object Locator'
PUBLIC	??_R3bad_alloc@std@@8				; std::bad_alloc::`RTTI Class Hierarchy Descriptor'
PUBLIC	??_R2bad_alloc@std@@8				; std::bad_alloc::`RTTI Base Class Array'
PUBLIC	??_R1A@?0A@EA@bad_alloc@std@@8			; std::bad_alloc::`RTTI Base Class Descriptor at (0,-1,0,64)'
PUBLIC	??_R4bad_array_new_length@std@@6B@		; std::bad_array_new_length::`RTTI Complete Object Locator'
PUBLIC	??_R3bad_array_new_length@std@@8		; std::bad_array_new_length::`RTTI Class Hierarchy Descriptor'
PUBLIC	??_R2bad_array_new_length@std@@8		; std::bad_array_new_length::`RTTI Base Class Array'
PUBLIC	??_R1A@?0A@EA@bad_array_new_length@std@@8	; std::bad_array_new_length::`RTTI Base Class Descriptor at (0,-1,0,64)'
PUBLIC	??_R4CGraphicThingInstance@@6B@			; CGraphicThingInstance::`RTTI Complete Object Locator'
PUBLIC	??_R0?AVCGraphicThingInstance@@@8		; CGraphicThingInstance `RTTI Type Descriptor'
PUBLIC	??_R3CGraphicThingInstance@@8			; CGraphicThingInstance::`RTTI Class Hierarchy Descriptor'
PUBLIC	??_R2CGraphicThingInstance@@8			; CGraphicThingInstance::`RTTI Base Class Array'
PUBLIC	??_R1A@?0A@EA@CGraphicThingInstance@@8		; CGraphicThingInstance::`RTTI Base Class Descriptor at (0,-1,0,64)'
PUBLIC	??_R1A@?0A@EA@CGraphicObjectInstance@@8		; CGraphicObjectInstance::`RTTI Base Class Descriptor at (0,-1,0,64)'
PUBLIC	??_R0?AVCGraphicObjectInstance@@@8		; CGraphicObjectInstance `RTTI Type Descriptor'
PUBLIC	??_R3CGraphicObjectInstance@@8			; CGraphicObjectInstance::`RTTI Class Hierarchy Descriptor'
PUBLIC	??_R2CGraphicObjectInstance@@8			; CGraphicObjectInstance::`RTTI Base Class Array'
PUBLIC	??_R1A@?0A@EA@CGraphicCollisionObject@@8	; CGraphicCollisionObject::`RTTI Base Class Descriptor at (0,-1,0,64)'
PUBLIC	??_R0?AVCGraphicCollisionObject@@@8		; CGraphicCollisionObject `RTTI Type Descriptor'
PUBLIC	??_R3CGraphicCollisionObject@@8			; CGraphicCollisionObject::`RTTI Class Hierarchy Descriptor'
PUBLIC	??_R2CGraphicCollisionObject@@8			; CGraphicCollisionObject::`RTTI Base Class Array'
PUBLIC	??_R1A@?0A@EA@CGraphicBase@@8			; CGraphicBase::`RTTI Base Class Descriptor at (0,-1,0,64)'
PUBLIC	??_R0?AVCGraphicBase@@@8			; CGraphicBase `RTTI Type Descriptor'
PUBLIC	??_R3CGraphicBase@@8				; CGraphicBase::`RTTI Class Hierarchy Descriptor'
PUBLIC	??_R2CGraphicBase@@8				; CGraphicBase::`RTTI Base Class Array'
PUBLIC	__real@00000000
PUBLIC	__real@3e800000
PUBLIC	__real@3f000000
PUBLIC	__real@42480000
PUBLIC	__xmm@7fffffff7fffffff7fffffff7fffffff
EXTRN	??2@YAPAXI@Z:PROC				; operator new
EXTRN	??3@YAXPAXI@Z:PROC				; operator delete
EXTRN	_atexit:PROC
EXTRN	___std_terminate:PROC
EXTRN	__invalid_parameter_noinfo_noreturn:PROC
EXTRN	___std_exception_copy:PROC
EXTRN	___std_exception_destroy:PROC
EXTRN	??_Eexception@std@@UAEPAXI@Z:PROC		; std::exception::`vector deleting destructor'
EXTRN	??_Ebad_alloc@std@@UAEPAXI@Z:PROC		; std::bad_alloc::`vector deleting destructor'
EXTRN	??_Ebad_array_new_length@std@@UAEPAXI@Z:PROC	; std::bad_array_new_length::`vector deleting destructor'
EXTRN	?_Xlength_error@std@@YAXPBD@Z:PROC		; std::_Xlength_error
EXTRN	?TraceError@@YAXPBDZZ:PROC			; TraceError
EXTRN	_D3DXVec3TransformCoord@12:PROC
EXTRN	_D3DXVec4Transform@12:PROC
EXTRN	?GetCurrentCamera@CCameraManager@@QAEPAVCCamera@@XZ:PROC ; CCameraManager::GetCurrentCamera
EXTRN	?GetElapsedSecond@CTimer@@QAEMXZ:PROC		; CTimer::GetElapsedSecond
EXTRN	?AddReference@CReferenceObject@@QAEXXZ:PROC	; CReferenceObject::AddReference
EXTRN	?Release@CReferenceObject@@QAEXXZ:PROC		; CReferenceObject::Release
EXTRN	?Picking@CAttributeInstance@@QAE_NABUD3DXVECTOR3@@0AAM1@Z:PROC ; CAttributeInstance::Picking
EXTRN	?GetHeight@CAttributeInstance@@QAEHMMPAM@Z:PROC	; CAttributeInstance::GetHeight
EXTRN	??0CGraphicObjectInstance@@QAE@XZ:PROC		; CGraphicObjectInstance::CGraphicObjectInstance
EXTRN	??1CGraphicObjectInstance@@UAE@XZ:PROC		; CGraphicObjectInstance::~CGraphicObjectInstance
EXTRN	?GetPosition@CGraphicObjectInstance@@QBEABUD3DXVECTOR3@@XZ:PROC ; CGraphicObjectInstance::GetPosition
EXTRN	?Clear@CGraphicObjectInstance@@QAEXXZ:PROC	; CGraphicObjectInstance::Clear
EXTRN	?isShow@CGraphicObjectInstance@@QAE_NXZ:PROC	; CGraphicObjectInstance::isShow
EXTRN	?GetTransform@CGraphicObjectInstance@@QAEAAUD3DXMATRIX@@XZ:PROC ; CGraphicObjectInstance::GetTransform
EXTRN	?Initialize@CGraphicObjectInstance@@QAEXXZ:PROC	; CGraphicObjectInstance::Initialize
EXTRN	?AddCollision@CGraphicObjectInstance@@QAEXPBVCStaticCollisionData@@PBUD3DXMATRIX@@@Z:PROC ; CGraphicObjectInstance::AddCollision
EXTRN	?SetHeightInstance@CGraphicObjectInstance@@QAEXPAVCAttributeInstance@@@Z:PROC ; CGraphicObjectInstance::SetHeightInstance
EXTRN	?CheckMotionIndex@CGraphicThing@@QBE_NH@Z:PROC	; CGraphicThing::CheckMotionIndex
EXTRN	?GetMotionPointer@CGraphicThing@@QAEPAVCGrannyMotion@@H@Z:PROC ; CGraphicThing::GetMotionPointer
EXTRN	?UpdateTransform@CGrannyModelInstance@@QAEXPAUD3DXMATRIX@@M@Z:PROC ; CGrannyModelInstance::UpdateTransform
EXTRN	?GetBoneMatrixPointer@CGrannyModelInstance@@QBEPBMH@Z:PROC ; CGrannyModelInstance::GetBoneMatrixPointer
EXTRN	?GetCompositeBoneMatrixPointer@CGrannyModelInstance@@QBEPBMH@Z:PROC ; CGrannyModelInstance::GetCompositeBoneMatrixPointer
EXTRN	?GetBoneIndexByName@CGrannyModelInstance@@QBE_NPBDPAH@Z:PROC ; CGrannyModelInstance::GetBoneIndexByName
EXTRN	?GetBoundBox@CGrannyModelInstance@@QAEXPAUD3DXVECTOR3@@0@Z:PROC ; CGrannyModelInstance::GetBoundBox
EXTRN	??0CGrannyLODController@@QAE@XZ:PROC		; CGrannyLODController::CGrannyLODController
EXTRN	?Clear@CGrannyLODController@@QAEXXZ:PROC	; CGrannyLODController::Clear
EXTRN	?CreateDeviceObjects@CGrannyLODController@@QAEXXZ:PROC ; CGrannyLODController::CreateDeviceObjects
EXTRN	?DestroyDeviceObjects@CGrannyLODController@@QAEXXZ:PROC ; CGrannyLODController::DestroyDeviceObjects
EXTRN	?AddModel@CGrannyLODController@@QAEXPAVCGraphicThing@@HPAV1@@Z:PROC ; CGrannyLODController::AddModel
EXTRN	?AttachModelInstance@CGrannyLODController@@QAEXPAV1@PBD@Z:PROC ; CGrannyLODController::AttachModelInstance
EXTRN	?DetachModelInstance@CGrannyLODController@@QAEXPAV1@@Z:PROC ; CGrannyLODController::DetachModelInstance
EXTRN	?SetMaterialImagePointer@CGrannyLODController@@QAEXPBDPAVCGraphicImage@@@Z:PROC ; CGrannyLODController::SetMaterialImagePointer
EXTRN	?SetMaterialData@CGrannyLODController@@QAEXPBDABUSMaterialData@@@Z:PROC ; CGrannyLODController::SetMaterialData
EXTRN	?SetSpecularInfo@CGrannyLODController@@QAEXPBDHM@Z:PROC ; CGrannyLODController::SetSpecularInfo
EXTRN	?RenderWithOneTexture@CGrannyLODController@@QAEXXZ:PROC ; CGrannyLODController::RenderWithOneTexture
EXTRN	?RenderWithTwoTexture@CGrannyLODController@@QAEXXZ:PROC ; CGrannyLODController::RenderWithTwoTexture
EXTRN	?BlendRenderWithOneTexture@CGrannyLODController@@QAEXXZ:PROC ; CGrannyLODController::BlendRenderWithOneTexture
EXTRN	?UpdateLODLevel@CGrannyLODController@@QAEXMM@Z:PROC ; CGrannyLODController::UpdateLODLevel
EXTRN	?UpdateTime@CGrannyLODController@@QAEXM@Z:PROC	; CGrannyLODController::UpdateTime
EXTRN	?Deform@CGrannyLODController@@QAEXPBUD3DXMATRIX@@@Z:PROC ; CGrannyLODController::Deform
EXTRN	?DeformNoSkin@CGrannyLODController@@QAEXPBUD3DXMATRIX@@@Z:PROC ; CGrannyLODController::DeformNoSkin
EXTRN	?DeformAll@CGrannyLODController@@QAEXPBUD3DXMATRIX@@@Z:PROC ; CGrannyLODController::DeformAll
EXTRN	?RenderToShadowMap@CGrannyLODController@@QAEXXZ:PROC ; CGrannyLODController::RenderToShadowMap
EXTRN	?RenderShadow@CGrannyLODController@@QAEXXZ:PROC	; CGrannyLODController::RenderShadow
EXTRN	?ReloadTexture@CGrannyLODController@@QAEXXZ:PROC ; CGrannyLODController::ReloadTexture
EXTRN	?GetBoundBox@CGrannyLODController@@QAEXPAUD3DXVECTOR3@@0@Z:PROC ; CGrannyLODController::GetBoundBox
EXTRN	?Intersect@CGrannyLODController@@QAE_NPBUD3DXMATRIX@@PAM11@Z:PROC ; CGrannyLODController::Intersect
EXTRN	?SetLocalTime@CGrannyLODController@@QAEXM@Z:PROC ; CGrannyLODController::SetLocalTime
EXTRN	?ResetLocalTime@CGrannyLODController@@QAEXXZ:PROC ; CGrannyLODController::ResetLocalTime
EXTRN	?SetMotionPointer@CGrannyLODController@@QAEXPBVCGrannyMotion@@MHM@Z:PROC ; CGrannyLODController::SetMotionPointer
EXTRN	?ChangeMotionPointer@CGrannyLODController@@QAEXPBVCGrannyMotion@@HM@Z:PROC ; CGrannyLODController::ChangeMotionPointer
EXTRN	?SetMotionAtEnd@CGrannyLODController@@QAEXXZ:PROC ; CGrannyLODController::SetMotionAtEnd
EXTRN	?isModelInstance@CGrannyLODController@@QAEHXZ:PROC ; CGrannyLODController::isModelInstance
EXTRN	?GetModelInstance@CGrannyLODController@@QAEPAVCGrannyModelInstance@@XZ:PROC ; CGrannyLODController::GetModelInstance
EXTRN	??_ECGraphicThingInstance@@UAEPAXI@Z:PROC	; CGraphicThingInstance::`vector deleting destructor'
EXTRN	@__security_check_cookie@4:PROC
EXTRN	__CxxThrowException@8:PROC
EXTRN	___CxxFrameHandler3:PROC
EXTRN	__libm_sse2_sqrt_precise:PROC
EXTRN	_memmove:PROC
EXTRN	___security_cookie:DWORD
EXTRN	__fltused:DWORD
;	COMDAT ?ms_singleton@?$CSingleton@VCCameraManager@@@@0PAVCCameraManager@@A
_BSS	SEGMENT
?ms_singleton@?$CSingleton@VCCameraManager@@@@0PAVCCameraManager@@A DD 01H DUP (?) ; CSingleton<CCameraManager>::ms_singleton
_BSS	ENDS
;	COMDAT ?ms_singleton@?$CSingleton@VCTimer@@@@0PAVCTimer@@A
_BSS	SEGMENT
?ms_singleton@?$CSingleton@VCTimer@@@@0PAVCTimer@@A DD 01H DUP (?) ; CSingleton<CTimer>::ms_singleton
_BSS	ENDS
CRT$XCU	SEGMENT
??ms_kPool$initializer$@CGraphicThingInstance@@2P6AXXZA@@3P6AXXZA DD FLAT:??__E?ms_kPool@CGraphicThingInstance@@2V?$CDynamicPool@VCGraphicThingInstance@@@@A@@YAXXZ ; ??ms_kPool$initializer$@CGraphicThingInstance@@2P6AXXZA@@3P6AXXZA
CRT$XCU	ENDS
;	COMDAT __xmm@7fffffff7fffffff7fffffff7fffffff
CONST	SEGMENT
__xmm@7fffffff7fffffff7fffffff7fffffff DB 0ffH, 0ffH, 0ffH, 07fH, 0ffH, 0ffH
	DB	0ffH, 07fH, 0ffH, 0ffH, 0ffH, 07fH, 0ffH, 0ffH, 0ffH, 07fH
CONST	ENDS
;	COMDAT __real@42480000
CONST	SEGMENT
__real@42480000 DD 042480000r			; 50
CONST	ENDS
;	COMDAT __real@3f000000
CONST	SEGMENT
__real@3f000000 DD 03f000000r			; 0.5
CONST	ENDS
;	COMDAT __real@3e800000
CONST	SEGMENT
__real@3e800000 DD 03e800000r			; 0.25
CONST	ENDS
;	COMDAT __real@00000000
CONST	SEGMENT
__real@00000000 DD 000000000r			; 0
CONST	ENDS
;	COMDAT ??_R2CGraphicBase@@8
rdata$r	SEGMENT
??_R2CGraphicBase@@8 DD FLAT:??_R1A@?0A@EA@CGraphicBase@@8 ; CGraphicBase::`RTTI Base Class Array'
rdata$r	ENDS
;	COMDAT ??_R3CGraphicBase@@8
rdata$r	SEGMENT
??_R3CGraphicBase@@8 DD 00H				; CGraphicBase::`RTTI Class Hierarchy Descriptor'
	DD	00H
	DD	01H
	DD	FLAT:??_R2CGraphicBase@@8
rdata$r	ENDS
;	COMDAT ??_R0?AVCGraphicBase@@@8
data$r	SEGMENT
??_R0?AVCGraphicBase@@@8 DD FLAT:??_7type_info@@6B@	; CGraphicBase `RTTI Type Descriptor'
	DD	00H
	DB	'.?AVCGraphicBase@@', 00H
data$r	ENDS
;	COMDAT ??_R1A@?0A@EA@CGraphicBase@@8
rdata$r	SEGMENT
??_R1A@?0A@EA@CGraphicBase@@8 DD FLAT:??_R0?AVCGraphicBase@@@8 ; CGraphicBase::`RTTI Base Class Descriptor at (0,-1,0,64)'
	DD	00H
	DD	00H
	DD	0ffffffffH
	DD	00H
	DD	040H
	DD	FLAT:??_R3CGraphicBase@@8
rdata$r	ENDS
;	COMDAT ??_R2CGraphicCollisionObject@@8
rdata$r	SEGMENT
??_R2CGraphicCollisionObject@@8 DD FLAT:??_R1A@?0A@EA@CGraphicCollisionObject@@8 ; CGraphicCollisionObject::`RTTI Base Class Array'
	DD	FLAT:??_R1A@?0A@EA@CGraphicBase@@8
rdata$r	ENDS
;	COMDAT ??_R3CGraphicCollisionObject@@8
rdata$r	SEGMENT
??_R3CGraphicCollisionObject@@8 DD 00H			; CGraphicCollisionObject::`RTTI Class Hierarchy Descriptor'
	DD	00H
	DD	02H
	DD	FLAT:??_R2CGraphicCollisionObject@@8
rdata$r	ENDS
;	COMDAT ??_R0?AVCGraphicCollisionObject@@@8
data$r	SEGMENT
??_R0?AVCGraphicCollisionObject@@@8 DD FLAT:??_7type_info@@6B@ ; CGraphicCollisionObject `RTTI Type Descriptor'
	DD	00H
	DB	'.?AVCGraphicCollisionObject@@', 00H
data$r	ENDS
;	COMDAT ??_R1A@?0A@EA@CGraphicCollisionObject@@8
rdata$r	SEGMENT
??_R1A@?0A@EA@CGraphicCollisionObject@@8 DD FLAT:??_R0?AVCGraphicCollisionObject@@@8 ; CGraphicCollisionObject::`RTTI Base Class Descriptor at (0,-1,0,64)'
	DD	01H
	DD	00H
	DD	0ffffffffH
	DD	00H
	DD	040H
	DD	FLAT:??_R3CGraphicCollisionObject@@8
rdata$r	ENDS
;	COMDAT ??_R2CGraphicObjectInstance@@8
rdata$r	SEGMENT
??_R2CGraphicObjectInstance@@8 DD FLAT:??_R1A@?0A@EA@CGraphicObjectInstance@@8 ; CGraphicObjectInstance::`RTTI Base Class Array'
	DD	FLAT:??_R1A@?0A@EA@CGraphicCollisionObject@@8
	DD	FLAT:??_R1A@?0A@EA@CGraphicBase@@8
rdata$r	ENDS
;	COMDAT ??_R3CGraphicObjectInstance@@8
rdata$r	SEGMENT
??_R3CGraphicObjectInstance@@8 DD 00H			; CGraphicObjectInstance::`RTTI Class Hierarchy Descriptor'
	DD	00H
	DD	03H
	DD	FLAT:??_R2CGraphicObjectInstance@@8
rdata$r	ENDS
;	COMDAT ??_R0?AVCGraphicObjectInstance@@@8
data$r	SEGMENT
??_R0?AVCGraphicObjectInstance@@@8 DD FLAT:??_7type_info@@6B@ ; CGraphicObjectInstance `RTTI Type Descriptor'
	DD	00H
	DB	'.?AVCGraphicObjectInstance@@', 00H
data$r	ENDS
;	COMDAT ??_R1A@?0A@EA@CGraphicObjectInstance@@8
rdata$r	SEGMENT
??_R1A@?0A@EA@CGraphicObjectInstance@@8 DD FLAT:??_R0?AVCGraphicObjectInstance@@@8 ; CGraphicObjectInstance::`RTTI Base Class Descriptor at (0,-1,0,64)'
	DD	02H
	DD	00H
	DD	0ffffffffH
	DD	00H
	DD	040H
	DD	FLAT:??_R3CGraphicObjectInstance@@8
rdata$r	ENDS
;	COMDAT ??_R1A@?0A@EA@CGraphicThingInstance@@8
rdata$r	SEGMENT
??_R1A@?0A@EA@CGraphicThingInstance@@8 DD FLAT:??_R0?AVCGraphicThingInstance@@@8 ; CGraphicThingInstance::`RTTI Base Class Descriptor at (0,-1,0,64)'
	DD	03H
	DD	00H
	DD	0ffffffffH
	DD	00H
	DD	040H
	DD	FLAT:??_R3CGraphicThingInstance@@8
rdata$r	ENDS
;	COMDAT ??_R2CGraphicThingInstance@@8
rdata$r	SEGMENT
??_R2CGraphicThingInstance@@8 DD FLAT:??_R1A@?0A@EA@CGraphicThingInstance@@8 ; CGraphicThingInstance::`RTTI Base Class Array'
	DD	FLAT:??_R1A@?0A@EA@CGraphicObjectInstance@@8
	DD	FLAT:??_R1A@?0A@EA@CGraphicCollisionObject@@8
	DD	FLAT:??_R1A@?0A@EA@CGraphicBase@@8
rdata$r	ENDS
;	COMDAT ??_R3CGraphicThingInstance@@8
rdata$r	SEGMENT
??_R3CGraphicThingInstance@@8 DD 00H			; CGraphicThingInstance::`RTTI Class Hierarchy Descriptor'
	DD	00H
	DD	04H
	DD	FLAT:??_R2CGraphicThingInstance@@8
rdata$r	ENDS
;	COMDAT ??_R0?AVCGraphicThingInstance@@@8
data$r	SEGMENT
??_R0?AVCGraphicThingInstance@@@8 DD FLAT:??_7type_info@@6B@ ; CGraphicThingInstance `RTTI Type Descriptor'
	DD	00H
	DB	'.?AVCGraphicThingInstance@@', 00H
data$r	ENDS
;	COMDAT ??_R4CGraphicThingInstance@@6B@
rdata$r	SEGMENT
??_R4CGraphicThingInstance@@6B@ DD 00H			; CGraphicThingInstance::`RTTI Complete Object Locator'
	DD	00H
	DD	00H
	DD	FLAT:??_R0?AVCGraphicThingInstance@@@8
	DD	FLAT:??_R3CGraphicThingInstance@@8
rdata$r	ENDS
;	COMDAT ??_R1A@?0A@EA@bad_array_new_length@std@@8
rdata$r	SEGMENT
??_R1A@?0A@EA@bad_array_new_length@std@@8 DD FLAT:??_R0?AVbad_array_new_length@std@@@8 ; std::bad_array_new_length::`RTTI Base Class Descriptor at (0,-1,0,64)'
	DD	02H
	DD	00H
	DD	0ffffffffH
	DD	00H
	DD	040H
	DD	FLAT:??_R3bad_array_new_length@std@@8
rdata$r	ENDS
;	COMDAT ??_R2bad_array_new_length@std@@8
rdata$r	SEGMENT
??_R2bad_array_new_length@std@@8 DD FLAT:??_R1A@?0A@EA@bad_array_new_length@std@@8 ; std::bad_array_new_length::`RTTI Base Class Array'
	DD	FLAT:??_R1A@?0A@EA@bad_alloc@std@@8
	DD	FLAT:??_R1A@?0A@EA@exception@std@@8
rdata$r	ENDS
;	COMDAT ??_R3bad_array_new_length@std@@8
rdata$r	SEGMENT
??_R3bad_array_new_length@std@@8 DD 00H			; std::bad_array_new_length::`RTTI Class Hierarchy Descriptor'
	DD	00H
	DD	03H
	DD	FLAT:??_R2bad_array_new_length@std@@8
rdata$r	ENDS
;	COMDAT ??_R4bad_array_new_length@std@@6B@
rdata$r	SEGMENT
??_R4bad_array_new_length@std@@6B@ DD 00H		; std::bad_array_new_length::`RTTI Complete Object Locator'
	DD	00H
	DD	00H
	DD	FLAT:??_R0?AVbad_array_new_length@std@@@8
	DD	FLAT:??_R3bad_array_new_length@std@@8
rdata$r	ENDS
;	COMDAT ??_R1A@?0A@EA@bad_alloc@std@@8
rdata$r	SEGMENT
??_R1A@?0A@EA@bad_alloc@std@@8 DD FLAT:??_R0?AVbad_alloc@std@@@8 ; std::bad_alloc::`RTTI Base Class Descriptor at (0,-1,0,64)'
	DD	01H
	DD	00H
	DD	0ffffffffH
	DD	00H
	DD	040H
	DD	FLAT:??_R3bad_alloc@std@@8
rdata$r	ENDS
;	COMDAT ??_R2bad_alloc@std@@8
rdata$r	SEGMENT
??_R2bad_alloc@std@@8 DD FLAT:??_R1A@?0A@EA@bad_alloc@std@@8 ; std::bad_alloc::`RTTI Base Class Array'
	DD	FLAT:??_R1A@?0A@EA@exception@std@@8
rdata$r	ENDS
;	COMDAT ??_R3bad_alloc@std@@8
rdata$r	SEGMENT
??_R3bad_alloc@std@@8 DD 00H				; std::bad_alloc::`RTTI Class Hierarchy Descriptor'
	DD	00H
	DD	02H
	DD	FLAT:??_R2bad_alloc@std@@8
rdata$r	ENDS
;	COMDAT ??_R4bad_alloc@std@@6B@
rdata$r	SEGMENT
??_R4bad_alloc@std@@6B@ DD 00H				; std::bad_alloc::`RTTI Complete Object Locator'
	DD	00H
	DD	00H
	DD	FLAT:??_R0?AVbad_alloc@std@@@8
	DD	FLAT:??_R3bad_alloc@std@@8
rdata$r	ENDS
;	COMDAT ??_R1A@?0A@EA@exception@std@@8
rdata$r	SEGMENT
??_R1A@?0A@EA@exception@std@@8 DD FLAT:??_R0?AVexception@std@@@8 ; std::exception::`RTTI Base Class Descriptor at (0,-1,0,64)'
	DD	00H
	DD	00H
	DD	0ffffffffH
	DD	00H
	DD	040H
	DD	FLAT:??_R3exception@std@@8
rdata$r	ENDS
;	COMDAT ??_R2exception@std@@8
rdata$r	SEGMENT
??_R2exception@std@@8 DD FLAT:??_R1A@?0A@EA@exception@std@@8 ; std::exception::`RTTI Base Class Array'
rdata$r	ENDS
;	COMDAT ??_R3exception@std@@8
rdata$r	SEGMENT
??_R3exception@std@@8 DD 00H				; std::exception::`RTTI Class Hierarchy Descriptor'
	DD	00H
	DD	01H
	DD	FLAT:??_R2exception@std@@8
rdata$r	ENDS
;	COMDAT ??_R4exception@std@@6B@
rdata$r	SEGMENT
??_R4exception@std@@6B@ DD 00H				; std::exception::`RTTI Complete Object Locator'
	DD	00H
	DD	00H
	DD	FLAT:??_R0?AVexception@std@@@8
	DD	FLAT:??_R3exception@std@@8
rdata$r	ENDS
;	COMDAT ??_C@_0BA@FOIKENOD@vector?5too?5long@
CONST	SEGMENT
??_C@_0BA@FOIKENOD@vector?5too?5long@ DB 'vector too long', 00H ; `string'
CONST	ENDS
;	COMDAT ??_C@_0ED@LMOOEEKB@CGraphicThingInstance?3?3UpdateLO@
CONST	SEGMENT
??_C@_0ED@LMOOEEKB@CGraphicThingInstance?3?3UpdateLO@ DB 'CGraphicThingIn'
	DB	'stance::UpdateLODLevel - GetCurrentCamera() == NULL', 00H ; `string'
CONST	ENDS
;	COMDAT ??_C@_0EL@BCFDDCFO@CGraphicThingInstance?3?3Register@
CONST	SEGMENT
??_C@_0EL@BCFDDCFO@CGraphicThingInstance?3?3Register@ DB 'CGraphicThingIn'
	DB	'stance::RegisterModelThing(iModelThing=%d, pModelThing=%s)', 0aH
	DB	00H						; `string'
CONST	ENDS
;	COMDAT ??_C@_0EH@ILOLFLHJ@CGraphicThingInstance?3?3SetSpecu@
CONST	SEGMENT
??_C@_0EH@ILOLFLHJ@CGraphicThingInstance?3?3SetSpecu@ DB 'CGraphicThingIn'
	DB	'stance::SetSpecularInfo(ePart(%d)) - ePart Data is NULL', 00H ; `string'
CONST	ENDS
;	COMDAT ??_C@_0FG@IDFCAGB@CGraphicThingInstance?3?3SetSpecu@
CONST	SEGMENT
??_C@_0FG@IDFCAGB@CGraphicThingInstance?3?3SetSpecu@ DB 'CGraphicThingIns'
	DB	'tance::SetSpecularInfo(ePart(%d)<uPartCount(%d)) - ePart OUT '
	DB	'OF RANGE', 00H				; `string'
CONST	ENDS
;	COMDAT ??_C@_0EH@ILONCBFP@CGraphicThingInstance?3?3SetMater@
CONST	SEGMENT
??_C@_0EH@ILONCBFP@CGraphicThingInstance?3?3SetMater@ DB 'CGraphicThingIn'
	DB	'stance::SetMaterialData(ePart(%d)) - ePart Data is NULL', 00H ; `string'
CONST	ENDS
;	COMDAT ??_C@_0FG@DKLHHMAO@CGraphicThingInstance?3?3SetMater@
CONST	SEGMENT
??_C@_0FG@DKLHHMAO@CGraphicThingInstance?3?3SetMater@ DB 'CGraphicThingIn'
	DB	'stance::SetMaterialData(ePart(%d)<uPartCount(%d)) - ePart OUT'
	DB	' OF RANGE', 00H				; `string'
CONST	ENDS
;	COMDAT ??_C@_0GM@CIGLBIHL@CGraphicThingInstance?3?3SetMater@
CONST	SEGMENT
??_C@_0GM@CIGLBIHL@CGraphicThingInstance?3?3SetMater@ DB 'CGraphicThingIn'
	DB	'stance::SetMaterialImagePointer(ePart(%d), c_szImageName=%s, '
	DB	'pImage=%s) - ePart Data is NULL', 00H	; `string'
CONST	ENDS
;	COMDAT ??_C@_0HL@PNAAKLOK@CGraphicThingInstance?3?3SetMater@
CONST	SEGMENT
??_C@_0HL@PNAAKLOK@CGraphicThingInstance?3?3SetMater@ DB 'CGraphicThingIn'
	DB	'stance::SetMaterialImagePointer(ePart(%d)<uPartCount(%d), c_s'
	DB	'zImageName=%s, pImage=%s) - ePart OUT OF RANGE', 00H ; `string'
CONST	ENDS
;	COMDAT ??_C@_0IG@CNBHAOPI@CGraphicThingInstance?3?3SetModel@
CONST	SEGMENT
??_C@_0IG@CNBHAOPI@CGraphicThingInstance?3?3SetModel@ DB 'CGraphicThingIn'
	DB	'stance::SetModelInstanceByOtherSkeletonInstance(iSkelInstance'
	DB	'=%d, iDstModelInstance=%d, pModelThing=%d, iSrcModel=%d)', 0aH
	DB	00H						; `string'
CONST	ENDS
;	COMDAT ??_C@_0FN@FDKPIIBK@CGraphicThingInstance?3?3SetModel@
CONST	SEGMENT
??_C@_0FN@FDKPIIBK@CGraphicThingInstance?3?3SetModel@ DB 'CGraphicThingIn'
	DB	'stance::SetModelInstance(iDstModelInstance=%d, pModelThing=%d'
	DB	', iSrcModel=%d)', 0aH, 00H			; `string'
CONST	ENDS
;	COMDAT ??_C@_0FH@FOLHJMIP@CGraphicThingInstance?3?3AttachMo@
CONST	SEGMENT
??_C@_0FH@FOLHJMIP@CGraphicThingInstance?3?3AttachMo@ DB 'CGraphicThingIn'
	DB	'stance::AttachModelInstance(iDstModelInstance=%d, iSrcModelIn'
	DB	'stance=%d)', 00H				; `string'
CONST	ENDS
;	COMDAT ??_C@_0GI@OAKDPIDM@CGraphicThingInstance?3?3AttachMo@
CONST	SEGMENT
??_C@_0GI@OAKDPIDM@CGraphicThingInstance?3?3AttachMo@ DB 'CGraphicThingIn'
	DB	'stance::AttachModelInstance(iDstModelInstance=%d, c_szBoneNam'
	DB	'e=%s, iSrcModelInstance=%d)', 00H		; `string'
CONST	ENDS
;	COMDAT ??_7CGraphicThingInstance@@6B@
CONST	SEGMENT
??_7CGraphicThingInstance@@6B@ DD FLAT:??_R4CGraphicThingInstance@@6B@ ; CGraphicThingInstance::`vftable'
	DD	FLAT:??_ECGraphicThingInstance@@UAEPAXI@Z
	DD	FLAT:?GetType@CGraphicThingInstance@@UBEHXZ
	DD	FLAT:?OnInitialize@CGraphicThingInstance@@UAEXXZ
	DD	FLAT:?GetBoundingSphere@CGraphicThingInstance@@UAE_NAAUD3DXVECTOR3@@AAM@Z
	DD	FLAT:?OnRender@CGraphicThingInstance@@MAEXXZ
	DD	FLAT:?OnBlendRender@CGraphicThingInstance@@MAEXXZ
	DD	FLAT:?OnRenderToShadowMap@CGraphicThingInstance@@MAEXXZ
	DD	FLAT:?OnRenderShadow@CGraphicThingInstance@@MAEXXZ
	DD	FLAT:?OnRenderPCBlocker@CGraphicThingInstance@@MAEXXZ
	DD	FLAT:?OnClear@CGraphicThingInstance@@MAEXXZ
	DD	FLAT:?OnUpdate@CGraphicThingInstance@@MAEXXZ
	DD	FLAT:?OnDeform@CGraphicThingInstance@@MAEXXZ
	DD	FLAT:?OnUpdateCollisionData@CGraphicThingInstance@@MAEXPBV?$vector@VCStaticCollisionData@@V?$allocator@VCStaticCollisionData@@@std@@@std@@@Z
	DD	FLAT:?OnUpdateHeighInstance@CGraphicThingInstance@@MAEXPAVCAttributeInstance@@@Z
	DD	FLAT:?OnGetObjectHeight@CGraphicThingInstance@@MAE_NMMPAM@Z
	DD	FLAT:?CalculateBBox@CGraphicThingInstance@@UAEXXZ
	DD	FLAT:?GetBoundingAABB@CGraphicThingInstance@@UAE_NAAUD3DXVECTOR3@@0@Z
CONST	ENDS
_DATA	SEGMENT
?ms_kPool@CGraphicThingInstance@@2V?$CDynamicPool@VCGraphicThingInstance@@@@A DD FLAT:??_7?$CDynamicPool@VCGraphicThingInstance@@@@6B@ ; CGraphicThingInstance::ms_kPool
	DD	00H
	DD	00H
	DD	00H
	DD	00H
	DD	00H
	DD	00H
	DD	00H
	DD	00H
_DATA	ENDS
;	COMDAT ??_C@_0BB@GCADKGJO@map?1set?5too?5long@
CONST	SEGMENT
??_C@_0BB@GCADKGJO@map?1set?5too?5long@ DB 'map/set too long', 00H ; `string'
CONST	ENDS
;	COMDAT __CT??_R0?AVexception@std@@@8??0exception@std@@QAE@ABV01@@Z12
xdata$x	SEGMENT
__CT??_R0?AVexception@std@@@8??0exception@std@@QAE@ABV01@@Z12 DD 00H
	DD	FLAT:??_R0?AVexception@std@@@8
	DD	00H
	DD	0ffffffffH
	ORG $+4
	DD	0cH
	DD	FLAT:??0exception@std@@QAE@ABV01@@Z
xdata$x	ENDS
;	COMDAT ??_R0?AVexception@std@@@8
data$r	SEGMENT
??_R0?AVexception@std@@@8 DD FLAT:??_7type_info@@6B@	; std::exception `RTTI Type Descriptor'
	DD	00H
	DB	'.?AVexception@std@@', 00H
data$r	ENDS
;	COMDAT __CT??_R0?AVbad_alloc@std@@@8??0bad_alloc@std@@QAE@ABV01@@Z12
xdata$x	SEGMENT
__CT??_R0?AVbad_alloc@std@@@8??0bad_alloc@std@@QAE@ABV01@@Z12 DD 010H
	DD	FLAT:??_R0?AVbad_alloc@std@@@8
	DD	00H
	DD	0ffffffffH
	ORG $+4
	DD	0cH
	DD	FLAT:??0bad_alloc@std@@QAE@ABV01@@Z
xdata$x	ENDS
;	COMDAT ??_R0?AVbad_alloc@std@@@8
data$r	SEGMENT
??_R0?AVbad_alloc@std@@@8 DD FLAT:??_7type_info@@6B@	; std::bad_alloc `RTTI Type Descriptor'
	DD	00H
	DB	'.?AVbad_alloc@std@@', 00H
data$r	ENDS
;	COMDAT __CT??_R0?AVbad_array_new_length@std@@@8??0bad_array_new_length@std@@QAE@ABV01@@Z12
xdata$x	SEGMENT
__CT??_R0?AVbad_array_new_length@std@@@8??0bad_array_new_length@std@@QAE@ABV01@@Z12 DD 00H
	DD	FLAT:??_R0?AVbad_array_new_length@std@@@8
	DD	00H
	DD	0ffffffffH
	ORG $+4
	DD	0cH
	DD	FLAT:??0bad_array_new_length@std@@QAE@ABV01@@Z
xdata$x	ENDS
;	COMDAT ??_R0?AVbad_array_new_length@std@@@8
data$r	SEGMENT
??_R0?AVbad_array_new_length@std@@@8 DD FLAT:??_7type_info@@6B@ ; std::bad_array_new_length `RTTI Type Descriptor'
	DD	00H
	DB	'.?AVbad_array_new_length@std@@', 00H
data$r	ENDS
;	COMDAT __CTA3?AVbad_array_new_length@std@@
xdata$x	SEGMENT
__CTA3?AVbad_array_new_length@std@@ DD 03H
	DD	FLAT:__CT??_R0?AVbad_array_new_length@std@@@8??0bad_array_new_length@std@@QAE@ABV01@@Z12
	DD	FLAT:__CT??_R0?AVbad_alloc@std@@@8??0bad_alloc@std@@QAE@ABV01@@Z12
	DD	FLAT:__CT??_R0?AVexception@std@@@8??0exception@std@@QAE@ABV01@@Z12
xdata$x	ENDS
;	COMDAT __TI3?AVbad_array_new_length@std@@
xdata$x	SEGMENT
__TI3?AVbad_array_new_length@std@@ DD 00H
	DD	FLAT:??1bad_array_new_length@std@@UAE@XZ
	DD	00H
	DD	FLAT:__CTA3?AVbad_array_new_length@std@@
xdata$x	ENDS
;	COMDAT ??_C@_0BF@KINCDENJ@bad?5array?5new?5length@
CONST	SEGMENT
??_C@_0BF@KINCDENJ@bad?5array?5new?5length@ DB 'bad array new length', 00H ; `string'
CONST	ENDS
;	COMDAT ??_7bad_array_new_length@std@@6B@
CONST	SEGMENT
??_7bad_array_new_length@std@@6B@ DD FLAT:??_R4bad_array_new_length@std@@6B@ ; std::bad_array_new_length::`vftable'
	DD	FLAT:??_Ebad_array_new_length@std@@UAEPAXI@Z
	DD	FLAT:?what@exception@std@@UBEPBDXZ
CONST	ENDS
;	COMDAT ??_7bad_alloc@std@@6B@
CONST	SEGMENT
??_7bad_alloc@std@@6B@ DD FLAT:??_R4bad_alloc@std@@6B@	; std::bad_alloc::`vftable'
	DD	FLAT:??_Ebad_alloc@std@@UAEPAXI@Z
	DD	FLAT:?what@exception@std@@UBEPBDXZ
CONST	ENDS
;	COMDAT ??_C@_0BC@EOODALEL@Unknown?5exception@
CONST	SEGMENT
??_C@_0BC@EOODALEL@Unknown?5exception@ DB 'Unknown exception', 00H ; `string'
CONST	ENDS
;	COMDAT ??_7exception@std@@6B@
CONST	SEGMENT
??_7exception@std@@6B@ DD FLAT:??_R4exception@std@@6B@	; std::exception::`vftable'
	DD	FLAT:??_Eexception@std@@UAEPAXI@Z
	DD	FLAT:?what@exception@std@@UBEPBDXZ
CONST	ENDS
;	COMDAT xdata$x
xdata$x	SEGMENT
__unwindtable$??$?0U?$pair@$$CBKPAV?$CRef@VCGraphicThing@@@@@std@@@?$_Tree_temp_node@V?$allocator@U?$_Tree_node@U?$pair@$$CBKPAV?$CRef@VCGraphicThing@@@@@std@@PAX@std@@@std@@@std@@QAE@AAV?$allocator@U?$_Tree_node@U?$pair@$$CBKPAV?$CRef@VCGraphicThing@@@@@std@@PAX@std@@@1@PAU?$_Tree_node@U?$pair@$$CBKPAV?$CRef@VCGraphicThing@@@@@std@@PAX@1@$$QAU?$pair@$$CBKPAV?$CRef@VCGraphicThing@@@@@1@@Z DD 0ffffffffH
	DD	FLAT:__unwindfunclet$??$?0U?$pair@$$CBKPAV?$CRef@VCGraphicThing@@@@@std@@@?$_Tree_temp_node@V?$allocator@U?$_Tree_node@U?$pair@$$CBKPAV?$CRef@VCGraphicThing@@@@@std@@PAX@std@@@std@@@std@@QAE@AAV?$allocator@U?$_Tree_node@U?$pair@$$CBKPAV?$CRef@VCGraphicThing@@@@@std@@PAX@std@@@1@PAU?$_Tree_node@U?$pair@$$CBKPAV?$CRef@VCGraphicThing@@@@@std@@PAX@1@$$QAU?$pair@$$CBKPAV?$CRef@VCGraphicThing@@@@@1@@Z$1
__ehfuncinfo$??$?0U?$pair@$$CBKPAV?$CRef@VCGraphicThing@@@@@std@@@?$_Tree_temp_node@V?$allocator@U?$_Tree_node@U?$pair@$$CBKPAV?$CRef@VCGraphicThing@@@@@std@@PAX@std@@@std@@@std@@QAE@AAV?$allocator@U?$_Tree_node@U?$pair@$$CBKPAV?$CRef@VCGraphicThing@@@@@std@@PAX@std@@@1@PAU?$_Tree_node@U?$pair@$$CBKPAV?$CRef@VCGraphicThing@@@@@std@@PAX@1@$$QAU?$pair@$$CBKPAV?$CRef@VCGraphicThing@@@@@1@@Z DD 019930522H
	DD	01H
	DD	FLAT:__unwindtable$??$?0U?$pair@$$CBKPAV?$CRef@VCGraphicThing@@@@@std@@@?$_Tree_temp_node@V?$allocator@U?$_Tree_node@U?$pair@$$CBKPAV?$CRef@VCGraphicThing@@@@@std@@PAX@std@@@std@@@std@@QAE@AAV?$allocator@U?$_Tree_node@U?$pair@$$CBKPAV?$CRef@VCGraphicThing@@@@@std@@PAX@std@@@1@PAU?$_Tree_node@U?$pair@$$CBKPAV?$CRef@VCGraphicThing@@@@@std@@PAX@1@$$QAU?$pair@$$CBKPAV?$CRef@VCGraphicThing@@@@@1@@Z
	DD	2 DUP(00H)
	DD	2 DUP(00H)
	DD	00H
	DD	01H
xdata$x	ENDS
;	COMDAT xdata$x
xdata$x	SEGMENT
__unwindtable$??$?0ABUpiecewise_construct_t@std@@V?$tuple@ABK@1@V?$tuple@$$V@1@@?$_Tree_temp_node@V?$allocator@U?$_Tree_node@U?$pair@$$CBKPAV?$CRef@VCGraphicThing@@@@@std@@PAX@std@@@std@@@std@@QAE@AAV?$allocator@U?$_Tree_node@U?$pair@$$CBKPAV?$CRef@VCGraphicThing@@@@@std@@PAX@std@@@1@PAU?$_Tree_node@U?$pair@$$CBKPAV?$CRef@VCGraphicThing@@@@@std@@PAX@1@ABUpiecewise_construct_t@1@$$QAV?$tuple@ABK@1@$$QAV?$tuple@$$V@1@@Z DD 0ffffffffH
	DD	FLAT:__unwindfunclet$??$?0ABUpiecewise_construct_t@std@@V?$tuple@ABK@1@V?$tuple@$$V@1@@?$_Tree_temp_node@V?$allocator@U?$_Tree_node@U?$pair@$$CBKPAV?$CRef@VCGraphicThing@@@@@std@@PAX@std@@@std@@@std@@QAE@AAV?$allocator@U?$_Tree_node@U?$pair@$$CBKPAV?$CRef@VCGraphicThing@@@@@std@@PAX@std@@@1@PAU?$_Tree_node@U?$pair@$$CBKPAV?$CRef@VCGraphicThing@@@@@std@@PAX@1@ABUpiecewise_construct_t@1@$$QAV?$tuple@ABK@1@$$QAV?$tuple@$$V@1@@Z$1
__ehfuncinfo$??$?0ABUpiecewise_construct_t@std@@V?$tuple@ABK@1@V?$tuple@$$V@1@@?$_Tree_temp_node@V?$allocator@U?$_Tree_node@U?$pair@$$CBKPAV?$CRef@VCGraphicThing@@@@@std@@PAX@std@@@std@@@std@@QAE@AAV?$allocator@U?$_Tree_node@U?$pair@$$CBKPAV?$CRef@VCGraphicThing@@@@@std@@PAX@std@@@1@PAU?$_Tree_node@U?$pair@$$CBKPAV?$CRef@VCGraphicThing@@@@@std@@PAX@1@ABUpiecewise_construct_t@1@$$QAV?$tuple@ABK@1@$$QAV?$tuple@$$V@1@@Z DD 019930522H
	DD	01H
	DD	FLAT:__unwindtable$??$?0ABUpiecewise_construct_t@std@@V?$tuple@ABK@1@V?$tuple@$$V@1@@?$_Tree_temp_node@V?$allocator@U?$_Tree_node@U?$pair@$$CBKPAV?$CRef@VCGraphicThing@@@@@std@@PAX@std@@@std@@@std@@QAE@AAV?$allocator@U?$_Tree_node@U?$pair@$$CBKPAV?$CRef@VCGraphicThing@@@@@std@@PAX@std@@@1@PAU?$_Tree_node@U?$pair@$$CBKPAV?$CRef@VCGraphicThing@@@@@std@@PAX@1@ABUpiecewise_construct_t@1@$$QAV?$tuple@ABK@1@$$QAV?$tuple@$$V@1@@Z
	DD	2 DUP(00H)
	DD	2 DUP(00H)
	DD	00H
	DD	01H
xdata$x	ENDS
;	COMDAT xdata$x
xdata$x	SEGMENT
__unwindtable$??0?$_Tree_temp_node_alloc@V?$allocator@U?$_Tree_node@U?$pair@$$CBKPAV?$CRef@VCGraphicThing@@@@@std@@PAX@std@@@std@@@std@@QAE@AAV?$allocator@U?$_Tree_node@U?$pair@$$CBKPAV?$CRef@VCGraphicThing@@@@@std@@PAX@std@@@1@@Z DD 0ffffffffH
	DD	FLAT:__unwindfunclet$??0?$_Tree_temp_node_alloc@V?$allocator@U?$_Tree_node@U?$pair@$$CBKPAV?$CRef@VCGraphicThing@@@@@std@@PAX@std@@@std@@@std@@QAE@AAV?$allocator@U?$_Tree_node@U?$pair@$$CBKPAV?$CRef@VCGraphicThing@@@@@std@@PAX@std@@@1@@Z$0
__ehfuncinfo$??0?$_Tree_temp_node_alloc@V?$allocator@U?$_Tree_node@U?$pair@$$CBKPAV?$CRef@VCGraphicThing@@@@@std@@PAX@std@@@std@@@std@@QAE@AAV?$allocator@U?$_Tree_node@U?$pair@$$CBKPAV?$CRef@VCGraphicThing@@@@@std@@PAX@std@@@1@@Z DD 019930522H
	DD	01H
	DD	FLAT:__unwindtable$??0?$_Tree_temp_node_alloc@V?$allocator@U?$_Tree_node@U?$pair@$$CBKPAV?$CRef@VCGraphicThing@@@@@std@@PAX@std@@@std@@@std@@QAE@AAV?$allocator@U?$_Tree_node@U?$pair@$$CBKPAV?$CRef@VCGraphicThing@@@@@std@@PAX@std@@@1@@Z
	DD	2 DUP(00H)
	DD	2 DUP(00H)
	DD	00H
	DD	01H
xdata$x	ENDS
;	COMDAT xdata$x
xdata$x	SEGMENT
__unwindtable$??$_Emplace@U?$pair@$$CBKPAV?$CRef@VCGraphicThing@@@@@std@@@?$_Tree@V?$_Tmap_traits@KPAV?$CRef@VCGraphicThing@@@@U?$less@K@std@@V?$allocator@U?$pair@$$CBKPAV?$CRef@VCGraphicThing@@@@@std@@@3@$0A@@std@@@std@@IAE?AU?$pair@PAU?$_Tree_node@U?$pair@$$CBKPAV?$CRef@VCGraphicThing@@@@@std@@PAX@std@@_N@1@$$QAU?$pair@$$CBKPAV?$CRef@VCGraphicThing@@@@@1@@Z DD 0ffffffffH
	DD	FLAT:__unwindfunclet$??$_Emplace@U?$pair@$$CBKPAV?$CRef@VCGraphicThing@@@@@std@@@?$_Tree@V?$_Tmap_traits@KPAV?$CRef@VCGraphicThing@@@@U?$less@K@std@@V?$allocator@U?$pair@$$CBKPAV?$CRef@VCGraphicThing@@@@@std@@@3@$0A@@std@@@std@@IAE?AU?$pair@PAU?$_Tree_node@U?$pair@$$CBKPAV?$CRef@VCGraphicThing@@@@@std@@PAX@std@@_N@1@$$QAU?$pair@$$CBKPAV?$CRef@VCGraphicThing@@@@@1@@Z$2
__ehfuncinfo$??$_Emplace@U?$pair@$$CBKPAV?$CRef@VCGraphicThing@@@@@std@@@?$_Tree@V?$_Tmap_traits@KPAV?$CRef@VCGraphicThing@@@@U?$less@K@std@@V?$allocator@U?$pair@$$CBKPAV?$CRef@VCGraphicThing@@@@@std@@@3@$0A@@std@@@std@@IAE?AU?$pair@PAU?$_Tree_node@U?$pair@$$CBKPAV?$CRef@VCGraphicThing@@@@@std@@PAX@std@@_N@1@$$QAU?$pair@$$CBKPAV?$CRef@VCGraphicThing@@@@@1@@Z DD 019930522H
	DD	01H
	DD	FLAT:__unwindtable$??$_Emplace@U?$pair@$$CBKPAV?$CRef@VCGraphicThing@@@@@std@@@?$_Tree@V?$_Tmap_traits@KPAV?$CRef@VCGraphicThing@@@@U?$less@K@std@@V?$allocator@U?$pair@$$CBKPAV?$CRef@VCGraphicThing@@@@@std@@@3@$0A@@std@@@std@@IAE?AU?$pair@PAU?$_Tree_node@U?$pair@$$CBKPAV?$CRef@VCGraphicThing@@@@@std@@PAX@std@@_N@1@$$QAU?$pair@$$CBKPAV?$CRef@VCGraphicThing@@@@@1@@Z
	DD	2 DUP(00H)
	DD	2 DUP(00H)
	DD	00H
	DD	01H
xdata$x	ENDS
;	COMDAT xdata$x
xdata$x	SEGMENT
__unwindtable$??$_Try_emplace@ABK$$V@?$map@KPAV?$CRef@VCGraphicThing@@@@U?$less@K@std@@V?$allocator@U?$pair@$$CBKPAV?$CRef@VCGraphicThing@@@@@std@@@3@@std@@AAE?AU?$pair@PAU?$_Tree_node@U?$pair@$$CBKPAV?$CRef@VCGraphicThing@@@@@std@@PAX@std@@_N@1@ABK@Z DD 0ffffffffH
	DD	FLAT:__unwindfunclet$??$_Try_emplace@ABK$$V@?$map@KPAV?$CRef@VCGraphicThing@@@@U?$less@K@std@@V?$allocator@U?$pair@$$CBKPAV?$CRef@VCGraphicThing@@@@@std@@@3@@std@@AAE?AU?$pair@PAU?$_Tree_node@U?$pair@$$CBKPAV?$CRef@VCGraphicThing@@@@@std@@PAX@std@@_N@1@ABK@Z$2
__ehfuncinfo$??$_Try_emplace@ABK$$V@?$map@KPAV?$CRef@VCGraphicThing@@@@U?$less@K@std@@V?$allocator@U?$pair@$$CBKPAV?$CRef@VCGraphicThing@@@@@std@@@3@@std@@AAE?AU?$pair@PAU?$_Tree_node@U?$pair@$$CBKPAV?$CRef@VCGraphicThing@@@@@std@@PAX@std@@_N@1@ABK@Z DD 019930522H
	DD	01H
	DD	FLAT:__unwindtable$??$_Try_emplace@ABK$$V@?$map@KPAV?$CRef@VCGraphicThing@@@@U?$less@K@std@@V?$allocator@U?$pair@$$CBKPAV?$CRef@VCGraphicThing@@@@@std@@@3@@std@@AAE?AU?$pair@PAU?$_Tree_node@U?$pair@$$CBKPAV?$CRef@VCGraphicThing@@@@@std@@PAX@std@@_N@1@ABK@Z
	DD	2 DUP(00H)
	DD	2 DUP(00H)
	DD	00H
	DD	01H
xdata$x	ENDS
;	COMDAT xdata$x
xdata$x	SEGMENT
__unwindtable$??$stl_wipe_second@V?$map@KPAV?$CRef@VCGraphicThing@@@@U?$less@K@std@@V?$allocator@U?$pair@$$CBKPAV?$CRef@VCGraphicThing@@@@@std@@@3@@std@@@@YAXAAV?$map@KPAV?$CRef@VCGraphicThing@@@@U?$less@K@std@@V?$allocator@U?$pair@$$CBKPAV?$CRef@VCGraphicThing@@@@@std@@@3@@std@@@Z DD 0ffffffffH
	DD	FLAT:___std_terminate
__ehfuncinfo$??$stl_wipe_second@V?$map@KPAV?$CRef@VCGraphicThing@@@@U?$less@K@std@@V?$allocator@U?$pair@$$CBKPAV?$CRef@VCGraphicThing@@@@@std@@@3@@std@@@@YAXAAV?$map@KPAV?$CRef@VCGraphicThing@@@@U?$less@K@std@@V?$allocator@U?$pair@$$CBKPAV?$CRef@VCGraphicThing@@@@@std@@@3@@std@@@Z DD 019930522H
	DD	01H
	DD	FLAT:__unwindtable$??$stl_wipe_second@V?$map@KPAV?$CRef@VCGraphicThing@@@@U?$less@K@std@@V?$allocator@U?$pair@$$CBKPAV?$CRef@VCGraphicThing@@@@@std@@@3@@std@@@@YAXAAV?$map@KPAV?$CRef@VCGraphicThing@@@@U?$less@K@std@@V?$allocator@U?$pair@$$CBKPAV?$CRef@VCGraphicThing@@@@@std@@@3@@std@@@Z
	DD	2 DUP(00H)
	DD	2 DUP(00H)
	DD	00H
	DD	01H
xdata$x	ENDS
;	COMDAT xdata$x
xdata$x	SEGMENT
__unwindtable$??$insert@$0A@$0A@@?$_Tree@V?$_Tmap_traits@KPAV?$CRef@VCGraphicThing@@@@U?$less@K@std@@V?$allocator@U?$pair@$$CBKPAV?$CRef@VCGraphicThing@@@@@std@@@3@$0A@@std@@@std@@QAE?AU?$pair@V?$_Tree_iterator@V?$_Tree_val@U?$_Tree_simple_types@U?$pair@$$CBKPAV?$CRef@VCGraphicThing@@@@@std@@@std@@@std@@@std@@_N@1@$$QAU?$pair@$$CBKPAV?$CRef@VCGraphicThing@@@@@1@@Z DD 0ffffffffH
	DD	FLAT:__unwindfunclet$??$insert@$0A@$0A@@?$_Tree@V?$_Tmap_traits@KPAV?$CRef@VCGraphicThing@@@@U?$less@K@std@@V?$allocator@U?$pair@$$CBKPAV?$CRef@VCGraphicThing@@@@@std@@@3@$0A@@std@@@std@@QAE?AU?$pair@V?$_Tree_iterator@V?$_Tree_val@U?$_Tree_simple_types@U?$pair@$$CBKPAV?$CRef@VCGraphicThing@@@@@std@@@std@@@std@@@std@@_N@1@$$QAU?$pair@$$CBKPAV?$CRef@VCGraphicThing@@@@@1@@Z$2
__ehfuncinfo$??$insert@$0A@$0A@@?$_Tree@V?$_Tmap_traits@KPAV?$CRef@VCGraphicThing@@@@U?$less@K@std@@V?$allocator@U?$pair@$$CBKPAV?$CRef@VCGraphicThing@@@@@std@@@3@$0A@@std@@@std@@QAE?AU?$pair@V?$_Tree_iterator@V?$_Tree_val@U?$_Tree_simple_types@U?$pair@$$CBKPAV?$CRef@VCGraphicThing@@@@@std@@@std@@@std@@@std@@_N@1@$$QAU?$pair@$$CBKPAV?$CRef@VCGraphicThing@@@@@1@@Z DD 019930522H
	DD	01H
	DD	FLAT:__unwindtable$??$insert@$0A@$0A@@?$_Tree@V?$_Tmap_traits@KPAV?$CRef@VCGraphicThing@@@@U?$less@K@std@@V?$allocator@U?$pair@$$CBKPAV?$CRef@VCGraphicThing@@@@@std@@@3@$0A@@std@@@std@@QAE?AU?$pair@V?$_Tree_iterator@V?$_Tree_val@U?$_Tree_simple_types@U?$pair@$$CBKPAV?$CRef@VCGraphicThing@@@@@std@@@std@@@std@@@std@@_N@1@$$QAU?$pair@$$CBKPAV?$CRef@VCGraphicThing@@@@@1@@Z
	DD	2 DUP(00H)
	DD	2 DUP(00H)
	DD	00H
	DD	01H
xdata$x	ENDS
;	COMDAT xdata$x
xdata$x	SEGMENT
__unwindtable$?Alloc@?$CDynamicPool@VCGraphicThingInstance@@@@QAEPAVCGraphicThingInstance@@XZ DD 0ffffffffH
	DD	FLAT:__unwindfunclet$?Alloc@?$CDynamicPool@VCGraphicThingInstance@@@@QAEPAVCGraphicThingInstance@@XZ$0
__ehfuncinfo$?Alloc@?$CDynamicPool@VCGraphicThingInstance@@@@QAEPAVCGraphicThingInstance@@XZ DD 019930522H
	DD	01H
	DD	FLAT:__unwindtable$?Alloc@?$CDynamicPool@VCGraphicThingInstance@@@@QAEPAVCGraphicThingInstance@@XZ
	DD	2 DUP(00H)
	DD	2 DUP(00H)
	DD	00H
	DD	01H
xdata$x	ENDS
;	COMDAT xdata$x
xdata$x	SEGMENT
__unwindtable$??$stl_wipe@V?$vector@PAV?$CRef@VCGraphicThing@@@@V?$allocator@PAV?$CRef@VCGraphicThing@@@@@std@@@std@@@@YAXAAV?$vector@PAV?$CRef@VCGraphicThing@@@@V?$allocator@PAV?$CRef@VCGraphicThing@@@@@std@@@std@@@Z DD 0ffffffffH
	DD	FLAT:___std_terminate
__ehfuncinfo$??$stl_wipe@V?$vector@PAV?$CRef@VCGraphicThing@@@@V?$allocator@PAV?$CRef@VCGraphicThing@@@@@std@@@std@@@@YAXAAV?$vector@PAV?$CRef@VCGraphicThing@@@@V?$allocator@PAV?$CRef@VCGraphicThing@@@@@std@@@std@@@Z DD 019930522H
	DD	01H
	DD	FLAT:__unwindtable$??$stl_wipe@V?$vector@PAV?$CRef@VCGraphicThing@@@@V?$allocator@PAV?$CRef@VCGraphicThing@@@@@std@@@std@@@@YAXAAV?$vector@PAV?$CRef@VCGraphicThing@@@@V?$allocator@PAV?$CRef@VCGraphicThing@@@@@std@@@std@@@Z
	DD	2 DUP(00H)
	DD	2 DUP(00H)
	DD	00H
	DD	01H
xdata$x	ENDS
;	COMDAT xdata$x
xdata$x	SEGMENT
__unwindtable$??_G?$CRef@VCGraphicThing@@@@QAEPAXI@Z DD 0ffffffffH
	DD	FLAT:___std_terminate
__ehfuncinfo$??_G?$CRef@VCGraphicThing@@@@QAEPAXI@Z DD 019930522H
	DD	01H
	DD	FLAT:__unwindtable$??_G?$CRef@VCGraphicThing@@@@QAEPAXI@Z
	DD	2 DUP(00H)
	DD	2 DUP(00H)
	DD	00H
	DD	05H
xdata$x	ENDS
;	COMDAT xdata$x
xdata$x	SEGMENT
__ehfuncinfo$??1?$CRef@VCGraphicThing@@@@QAE@XZ DD 019930522H
	DD	00H
	DD	00H
	DD	2 DUP(00H)
	DD	2 DUP(00H)
	DD	00H
	DD	05H
xdata$x	ENDS
;	COMDAT xdata$x
xdata$x	SEGMENT
__unwindtable$?New@CGraphicThingInstance@@SAPAV1@XZ DD 0ffffffffH
	DD	FLAT:__unwindfunclet$?New@CGraphicThingInstance@@SAPAV1@XZ$0
__ehfuncinfo$?New@CGraphicThingInstance@@SAPAV1@XZ DD 019930522H
	DD	01H
	DD	FLAT:__unwindtable$?New@CGraphicThingInstance@@SAPAV1@XZ
	DD	2 DUP(00H)
	DD	2 DUP(00H)
	DD	00H
	DD	01H
xdata$x	ENDS
;	COMDAT xdata$x
xdata$x	SEGMENT
__unwindtable$??A?$map@KPAV?$CRef@VCGraphicThing@@@@U?$less@K@std@@V?$allocator@U?$pair@$$CBKPAV?$CRef@VCGraphicThing@@@@@std@@@3@@std@@QAEAAPAV?$CRef@VCGraphicThing@@@@ABK@Z DD 0ffffffffH
	DD	FLAT:__unwindfunclet$??A?$map@KPAV?$CRef@VCGraphicThing@@@@U?$less@K@std@@V?$allocator@U?$pair@$$CBKPAV?$CRef@VCGraphicThing@@@@@std@@@3@@std@@QAEAAPAV?$CRef@VCGraphicThing@@@@ABK@Z$2
__ehfuncinfo$??A?$map@KPAV?$CRef@VCGraphicThing@@@@U?$less@K@std@@V?$allocator@U?$pair@$$CBKPAV?$CRef@VCGraphicThing@@@@@std@@@3@@std@@QAEAAPAV?$CRef@VCGraphicThing@@@@ABK@Z DD 019930522H
	DD	01H
	DD	FLAT:__unwindtable$??A?$map@KPAV?$CRef@VCGraphicThing@@@@U?$less@K@std@@V?$allocator@U?$pair@$$CBKPAV?$CRef@VCGraphicThing@@@@@std@@@3@@std@@QAEAAPAV?$CRef@VCGraphicThing@@@@ABK@Z
	DD	2 DUP(00H)
	DD	2 DUP(00H)
	DD	00H
	DD	01H
xdata$x	ENDS
;	COMDAT xdata$x
xdata$x	SEGMENT
__unwindtable$?OnClear@CGraphicThingInstance@@MAEXXZ DD 0ffffffffH
	DD	FLAT:___std_terminate
	DD	0ffffffffH
	DD	FLAT:___std_terminate
__ehfuncinfo$?OnClear@CGraphicThingInstance@@MAEXXZ DD 019930522H
	DD	02H
	DD	FLAT:__unwindtable$?OnClear@CGraphicThingInstance@@MAEXXZ
	DD	2 DUP(00H)
	DD	2 DUP(00H)
	DD	00H
	DD	01H
xdata$x	ENDS
;	COMDAT xdata$x
xdata$x	SEGMENT
__unwindtable$?GetBaseThingPtr@CGraphicThingInstance@@QAEPAVCGraphicThing@@XZ DD 0ffffffffH
	DD	FLAT:___std_terminate
__ehfuncinfo$?GetBaseThingPtr@CGraphicThingInstance@@QAEPAVCGraphicThing@@XZ DD 019930522H
	DD	01H
	DD	FLAT:__unwindtable$?GetBaseThingPtr@CGraphicThingInstance@@QAEPAVCGraphicThing@@XZ
	DD	2 DUP(00H)
	DD	2 DUP(00H)
	DD	00H
	DD	01H
xdata$x	ENDS
;	COMDAT xdata$x
xdata$x	SEGMENT
__unwindtable$?RegisterMotionThing@CGraphicThingInstance@@QAEXKPAVCGraphicThing@@@Z DD 0ffffffffH
	DD	FLAT:__unwindfunclet$?RegisterMotionThing@CGraphicThingInstance@@QAEXKPAVCGraphicThing@@@Z$3
__ehfuncinfo$?RegisterMotionThing@CGraphicThingInstance@@QAEXKPAVCGraphicThing@@@Z DD 019930522H
	DD	01H
	DD	FLAT:__unwindtable$?RegisterMotionThing@CGraphicThingInstance@@QAEXKPAVCGraphicThing@@@Z
	DD	2 DUP(00H)
	DD	2 DUP(00H)
	DD	00H
	DD	01H
xdata$x	ENDS
;	COMDAT xdata$x
xdata$x	SEGMENT
__unwindtable$?GetMotionThingPointer@CGraphicThingInstance@@QAE_NKPAPAVCGraphicThing@@@Z DD 0ffffffffH
	DD	FLAT:__unwindfunclet$?GetMotionThingPointer@CGraphicThingInstance@@QAE_NKPAPAVCGraphicThing@@@Z$2
__ehfuncinfo$?GetMotionThingPointer@CGraphicThingInstance@@QAE_NKPAPAVCGraphicThing@@@Z DD 019930522H
	DD	01H
	DD	FLAT:__unwindtable$?GetMotionThingPointer@CGraphicThingInstance@@QAE_NKPAPAVCGraphicThing@@@Z
	DD	2 DUP(00H)
	DD	2 DUP(00H)
	DD	00H
	DD	01H
xdata$x	ENDS
;	COMDAT xdata$x
xdata$x	SEGMENT
__unwindtable$?ReserveModelInstance@CGraphicThingInstance@@QAEXH@Z DD 0ffffffffH
	DD	FLAT:__unwindfunclet$?ReserveModelInstance@CGraphicThingInstance@@QAEXH@Z$0
__ehfuncinfo$?ReserveModelInstance@CGraphicThingInstance@@QAEXH@Z DD 019930522H
	DD	01H
	DD	FLAT:__unwindtable$?ReserveModelInstance@CGraphicThingInstance@@QAEXH@Z
	DD	2 DUP(00H)
	DD	2 DUP(00H)
	DD	00H
	DD	01H
xdata$x	ENDS
;	COMDAT xdata$x
xdata$x	SEGMENT
__unwindtable$??0CGraphicThingInstance@@QAE@XZ DD 0ffffffffH
	DD	FLAT:__unwindfunclet$??0CGraphicThingInstance@@QAE@XZ$0
	DD	00H
	DD	FLAT:__unwindfunclet$??0CGraphicThingInstance@@QAE@XZ$1
	DD	01H
	DD	FLAT:__unwindfunclet$??0CGraphicThingInstance@@QAE@XZ$2
	DD	02H
	DD	FLAT:__unwindfunclet$??0CGraphicThingInstance@@QAE@XZ$3
__ehfuncinfo$??0CGraphicThingInstance@@QAE@XZ DD 019930522H
	DD	04H
	DD	FLAT:__unwindtable$??0CGraphicThingInstance@@QAE@XZ
	DD	2 DUP(00H)
	DD	2 DUP(00H)
	DD	00H
	DD	01H
xdata$x	ENDS
;	COMDAT xdata$x
xdata$x	SEGMENT
__unwindtable$?Clear@SModelThingSet@CGraphicThingInstance@@QAEXXZ DD 0ffffffffH
	DD	FLAT:___std_terminate
__ehfuncinfo$?Clear@SModelThingSet@CGraphicThingInstance@@QAEXXZ DD 019930522H
	DD	01H
	DD	FLAT:__unwindtable$?Clear@SModelThingSet@CGraphicThingInstance@@QAEXXZ
	DD	2 DUP(00H)
	DD	2 DUP(00H)
	DD	00H
	DD	01H
xdata$x	ENDS
; Function compile flags: /Ogtp
; File C:\Program Files (x86)\Microsoft Visual Studio\2019\Community\VC\Tools\MSVC\14.27.29110\include\tuple
;	COMDAT ??$?0V?$tuple@ABK@std@@V?$tuple@$$V@1@$0A@$$Z$S@?$pair@$$CBKPAV?$CRef@VCGraphicThing@@@@@std@@QAE@AAV?$tuple@ABK@1@AAV?$tuple@$$V@1@U?$integer_sequence@I$0A@@1@U?$integer_sequence@I$S@1@@Z
_TEXT	SEGMENT
__Val1$ = 8						; size = 4
__Val2$ = 12						; size = 4
___formal$ = 16						; size = 1
___formal$ = 20						; size = 1
??$?0V?$tuple@ABK@std@@V?$tuple@$$V@1@$0A@$$Z$S@?$pair@$$CBKPAV?$CRef@VCGraphicThing@@@@@std@@QAE@AAV?$tuple@ABK@1@AAV?$tuple@$$V@1@U?$integer_sequence@I$0A@@1@U?$integer_sequence@I$S@1@@Z PROC ; std::pair<unsigned long const ,CRef<CGraphicThing> *>::pair<unsigned long const ,CRef<CGraphicThing> *><std::tuple<unsigned long const &>,std::tuple<>,0>, COMDAT
; _this$ = ecx

; 975  :     : first(_STD get<_Indexes1>(_STD move(_Val1))...), second(_STD get<_Indexes2>(_STD move(_Val2))...) {}

  00000	55		 push	 ebp
  00001	8b ec		 mov	 ebp, esp
  00003	8b 45 08	 mov	 eax, DWORD PTR __Val1$[ebp]
  00006	8b 00		 mov	 eax, DWORD PTR [eax]
  00008	8b 00		 mov	 eax, DWORD PTR [eax]
  0000a	89 01		 mov	 DWORD PTR [ecx], eax
  0000c	8b c1		 mov	 eax, ecx
  0000e	c7 41 04 00 00
	00 00		 mov	 DWORD PTR [ecx+4], 0
  00015	5d		 pop	 ebp
  00016	c2 10 00	 ret	 16			; 00000010H
??$?0V?$tuple@ABK@std@@V?$tuple@$$V@1@$0A@$$Z$S@?$pair@$$CBKPAV?$CRef@VCGraphicThing@@@@@std@@QAE@AAV?$tuple@ABK@1@AAV?$tuple@$$V@1@U?$integer_sequence@I$0A@@1@U?$integer_sequence@I$S@1@@Z ENDP ; std::pair<unsigned long const ,CRef<CGraphicThing> *>::pair<unsigned long const ,CRef<CGraphicThing> *><std::tuple<unsigned long const &>,std::tuple<>,0>
_TEXT	ENDS
; Function compile flags: /Ogtp
; File C:\Program Files (x86)\Microsoft Visual Studio\2019\Community\VC\Tools\MSVC\14.27.29110\include\tuple
;	COMDAT ??$?0ABK$$Z$$V@?$pair@$$CBKPAV?$CRef@VCGraphicThing@@@@@std@@QAE@Upiecewise_construct_t@1@V?$tuple@ABK@1@V?$tuple@$$V@1@@Z
_TEXT	SEGMENT
$T1 = -8						; size = 1
$T2 = -4						; size = 1
___formal$ = 8						; size = 1
__Val1$ = 12						; size = 4
__Val2$ = 16						; size = 1
??$?0ABK$$Z$$V@?$pair@$$CBKPAV?$CRef@VCGraphicThing@@@@@std@@QAE@Upiecewise_construct_t@1@V?$tuple@ABK@1@V?$tuple@$$V@1@@Z PROC ; std::pair<unsigned long const ,CRef<CGraphicThing> *>::pair<unsigned long const ,CRef<CGraphicThing> *><unsigned long const &>, COMDAT
; _this$ = ecx

; 981  :     : pair(_Val1, _Val2, index_sequence_for<_Types1...>{}, index_sequence_for<_Types2...>{}) {}

  00000	55		 push	 ebp
  00001	8b ec		 mov	 ebp, esp
  00003	83 ec 08	 sub	 esp, 8
  00006	56		 push	 esi
  00007	c6 45 fc 00	 mov	 BYTE PTR $T2[ebp], 0
  0000b	8d 45 10	 lea	 eax, DWORD PTR __Val2$[ebp]
  0000e	ff 75 fc	 push	 DWORD PTR $T2[ebp]
  00011	c6 45 f8 00	 mov	 BYTE PTR $T1[ebp], 0
  00015	8b f1		 mov	 esi, ecx
  00017	ff 75 f8	 push	 DWORD PTR $T1[ebp]
  0001a	50		 push	 eax
  0001b	8d 45 0c	 lea	 eax, DWORD PTR __Val1$[ebp]
  0001e	50		 push	 eax
  0001f	e8 00 00 00 00	 call	 ??$?0V?$tuple@ABK@std@@V?$tuple@$$V@1@$0A@$$Z$S@?$pair@$$CBKPAV?$CRef@VCGraphicThing@@@@@std@@QAE@AAV?$tuple@ABK@1@AAV?$tuple@$$V@1@U?$integer_sequence@I$0A@@1@U?$integer_sequence@I$S@1@@Z ; std::pair<unsigned long const ,CRef<CGraphicThing> *>::pair<unsigned long const ,CRef<CGraphicThing> *><std::tuple<unsigned long const &>,std::tuple<>,0>
  00024	8b c6		 mov	 eax, esi
  00026	5e		 pop	 esi
  00027	8b e5		 mov	 esp, ebp
  00029	5d		 pop	 ebp
  0002a	c2 0c 00	 ret	 12			; 0000000cH
??$?0ABK$$Z$$V@?$pair@$$CBKPAV?$CRef@VCGraphicThing@@@@@std@@QAE@Upiecewise_construct_t@1@V?$tuple@ABK@1@V?$tuple@$$V@1@@Z ENDP ; std::pair<unsigned long const ,CRef<CGraphicThing> *>::pair<unsigned long const ,CRef<CGraphicThing> *><unsigned long const &>
_TEXT	ENDS
; Function compile flags: /Ogtp
; File C:\Program Files (x86)\Microsoft Visual Studio\2019\Community\VC\Tools\MSVC\14.27.29110\include\xmemory
; File C:\Program Files (x86)\Microsoft Visual Studio\2019\Community\VC\Tools\MSVC\14.27.29110\include\vector
; File C:\Program Files (x86)\Microsoft Visual Studio\2019\Community\VC\Tools\MSVC\14.27.29110\include\xmemory
; File C:\Program Files (x86)\Microsoft Visual Studio\2019\Community\VC\Tools\MSVC\14.27.29110\include\vector
; File C:\Program Files (x86)\Microsoft Visual Studio\2019\Community\VC\Tools\MSVC\14.27.29110\include\xmemory
; File C:\Program Files (x86)\Microsoft Visual Studio\2019\Community\VC\Tools\MSVC\14.27.29110\include\vector
; File C:\Program Files (x86)\Microsoft Visual Studio\2019\Community\VC\Tools\MSVC\14.27.29110\include\xmemory
; File C:\Program Files (x86)\Microsoft Visual Studio\2019\Community\VC\Tools\MSVC\14.27.29110\include\vector
; File C:\Program Files (x86)\Microsoft Visual Studio\2019\Community\VC\Tools\MSVC\14.27.29110\include\xmemory
;	COMDAT ??$_Uninitialized_move@PAUSModelThingSet@CGraphicThingInstance@@V?$allocator@USModelThingSet@CGraphicThingInstance@@@std@@@std@@YAPAUSModelThingSet@CGraphicThingInstance@@QAU12@0PAU12@AAV?$allocator@USModelThingSet@CGraphicThingInstance@@@0@@Z
_TEXT	SEGMENT
__First$ = 8						; size = 4
__Last$ = 12						; size = 4
__Dest$ = 16						; size = 4
__Al$ = 20						; size = 4
??$_Uninitialized_move@PAUSModelThingSet@CGraphicThingInstance@@V?$allocator@USModelThingSet@CGraphicThingInstance@@@std@@@std@@YAPAUSModelThingSet@CGraphicThingInstance@@QAU12@0PAU12@AAV?$allocator@USModelThingSet@CGraphicThingInstance@@@0@@Z PROC ; std::_Uninitialized_move<CGraphicThingInstance::SModelThingSet *,std::allocator<CGraphicThingInstance::SModelThingSet> >, COMDAT

; 1647 :     const _InIt _First, const _InIt _Last, _Alloc_ptr_t<_Alloc> _Dest, _Alloc& _Al) {

  00000	55		 push	 ebp
  00001	8b ec		 mov	 ebp, esp

; 1659 :         for (; _UFirst != _ULast; ++_UFirst) {

  00003	8b 4d 08	 mov	 ecx, DWORD PTR __First$[ebp]
  00006	56		 push	 esi

; 1497 :     _Uninitialized_backout_al(pointer _Dest, _Alloc& _Al_) : _First(_Dest), _Last(_Dest), _Al(_Al_) {}

  00007	8b 75 10	 mov	 esi, DWORD PTR __Dest$[ebp]

; 1647 :     const _InIt _First, const _InIt _Last, _Alloc_ptr_t<_Alloc> _Dest, _Alloc& _Al) {

  0000a	57		 push	 edi

; 1659 :         for (; _UFirst != _ULast; ++_UFirst) {

  0000b	8b 7d 0c	 mov	 edi, DWORD PTR __Last$[ebp]
  0000e	3b cf		 cmp	 ecx, edi
  00010	74 57		 je	 SHORT $LN3@Uninitiali

; 1497 :     _Uninitialized_backout_al(pointer _Dest, _Alloc& _Al_) : _First(_Dest), _Last(_Dest), _Al(_Al_) {}

  00012	8b d6		 mov	 edx, esi
  00014	8d 41 08	 lea	 eax, DWORD PTR [ecx+8]
  00017	2b d1		 sub	 edx, ecx
  00019	0f 1f 80 00 00
	00 00		 npad	 7
$LL4@Uninitiali:
; File C:\Program Files (x86)\Microsoft Visual Studio\2019\Community\VC\Tools\MSVC\14.27.29110\include\vector

; 375  :     _Vector_val() noexcept : _Myfirst(), _Mylast(), _Myend() {}

  00020	c7 06 00 00 00
	00		 mov	 DWORD PTR [esi], 0
; File C:\Program Files (x86)\Microsoft Visual Studio\2019\Community\VC\Tools\MSVC\14.27.29110\include\xmemory

; 1509 :         ++_Last;

  00026	8d 40 0c	 lea	 eax, DWORD PTR [eax+12]
; File C:\Program Files (x86)\Microsoft Visual Studio\2019\Community\VC\Tools\MSVC\14.27.29110\include\vector

; 375  :     _Vector_val() noexcept : _Myfirst(), _Mylast(), _Myend() {}

  00029	c7 46 04 00 00
	00 00		 mov	 DWORD PTR [esi+4], 0
  00030	c7 44 02 f4 00
	00 00 00	 mov	 DWORD PTR [edx+eax-12], 0

; 386  :         _Myfirst = _Right._Myfirst;

  00038	8b 48 ec	 mov	 ecx, DWORD PTR [eax-20]
  0003b	89 0e		 mov	 DWORD PTR [esi], ecx

; 387  :         _Mylast  = _Right._Mylast;

  0003d	8b 48 f0	 mov	 ecx, DWORD PTR [eax-16]
  00040	89 4e 04	 mov	 DWORD PTR [esi+4], ecx
; File C:\Program Files (x86)\Microsoft Visual Studio\2019\Community\VC\Tools\MSVC\14.27.29110\include\xmemory

; 1509 :         ++_Last;

  00043	83 c6 0c	 add	 esi, 12			; 0000000cH
; File C:\Program Files (x86)\Microsoft Visual Studio\2019\Community\VC\Tools\MSVC\14.27.29110\include\vector

; 388  :         _Myend   = _Right._Myend;

  00046	8b 48 f4	 mov	 ecx, DWORD PTR [eax-12]
  00049	89 4c 02 f4	 mov	 DWORD PTR [edx+eax-12], ecx
; File C:\Program Files (x86)\Microsoft Visual Studio\2019\Community\VC\Tools\MSVC\14.27.29110\include\xmemory

; 1659 :         for (; _UFirst != _ULast; ++_UFirst) {

  0004d	8d 48 f8	 lea	 ecx, DWORD PTR [eax-8]
; File C:\Program Files (x86)\Microsoft Visual Studio\2019\Community\VC\Tools\MSVC\14.27.29110\include\vector

; 390  :         _Right._Myfirst = pointer();

  00050	c7 40 ec 00 00
	00 00		 mov	 DWORD PTR [eax-20], 0

; 391  :         _Right._Mylast  = pointer();

  00057	c7 40 f0 00 00
	00 00		 mov	 DWORD PTR [eax-16], 0

; 392  :         _Right._Myend   = pointer();

  0005e	c7 40 f4 00 00
	00 00		 mov	 DWORD PTR [eax-12], 0
; File C:\Program Files (x86)\Microsoft Visual Studio\2019\Community\VC\Tools\MSVC\14.27.29110\include\xmemory

; 1659 :         for (; _UFirst != _ULast; ++_UFirst) {

  00065	3b cf		 cmp	 ecx, edi
  00067	75 b7		 jne	 SHORT $LL4@Uninitiali
$LN3@Uninitiali:

; 1503 :         _Destroy_range(_First, _Last, _Al);

  00069	ff 75 14	 push	 DWORD PTR __Al$[ebp]
  0006c	56		 push	 esi
  0006d	56		 push	 esi
  0006e	e8 00 00 00 00	 call	 ??$_Destroy_range@V?$allocator@USModelThingSet@CGraphicThingInstance@@@std@@@std@@YAXPAUSModelThingSet@CGraphicThingInstance@@QAU12@AAV?$allocator@USModelThingSet@CGraphicThingInstance@@@0@@Z ; std::_Destroy_range<std::allocator<CGraphicThingInstance::SModelThingSet> >
  00073	83 c4 0c	 add	 esp, 12			; 0000000cH

; 1660 :             _Backout._Emplace_back(_STD move(*_UFirst));
; 1661 :         }
; 1662 : 
; 1663 :         return _Backout._Release();

  00076	8b c6		 mov	 eax, esi
  00078	5f		 pop	 edi
  00079	5e		 pop	 esi

; 1664 :     }
; 1665 : }

  0007a	5d		 pop	 ebp
  0007b	c3		 ret	 0
??$_Uninitialized_move@PAUSModelThingSet@CGraphicThingInstance@@V?$allocator@USModelThingSet@CGraphicThingInstance@@@std@@@std@@YAPAUSModelThingSet@CGraphicThingInstance@@QAU12@0PAU12@AAV?$allocator@USModelThingSet@CGraphicThingInstance@@@0@@Z ENDP ; std::_Uninitialized_move<CGraphicThingInstance::SModelThingSet *,std::allocator<CGraphicThingInstance::SModelThingSet> >
_TEXT	ENDS
; Function compile flags: /Ogtp
; File C:\Program Files (x86)\Microsoft Visual Studio\2019\Community\VC\Tools\MSVC\14.27.29110\include\xutility
;	COMDAT ??$_Copy_memmove@PAPAV?$CRef@VCGraphicThing@@@@PAPAV1@@std@@YAPAPAV?$CRef@VCGraphicThing@@@@PAPAV1@00@Z
_TEXT	SEGMENT
__First$ = 8						; size = 4
__Last$ = 12						; size = 4
__Dest$ = 16						; size = 4
??$_Copy_memmove@PAPAV?$CRef@VCGraphicThing@@@@PAPAV1@@std@@YAPAPAV?$CRef@VCGraphicThing@@@@PAPAV1@00@Z PROC ; std::_Copy_memmove<CRef<CGraphicThing> * *,CRef<CGraphicThing> * *>, COMDAT

; 4113 : _OutIt _Copy_memmove(_InIt _First, _InIt _Last, _OutIt _Dest) {

  00000	55		 push	 ebp
  00001	8b ec		 mov	 ebp, esp

; 4114 :     const char* const _First_ch = const_cast<const char*>(reinterpret_cast<const volatile char*>(_First));
; 4115 :     const char* const _Last_ch  = const_cast<const char*>(reinterpret_cast<const volatile char*>(_Last));
; 4116 :     char* const _Dest_ch        = const_cast<char*>(reinterpret_cast<volatile char*>(_Dest));
; 4117 :     const auto _Count           = static_cast<size_t>(_Last_ch - _First_ch);

  00003	8b 45 08	 mov	 eax, DWORD PTR __First$[ebp]
  00006	56		 push	 esi

; 4118 :     _CSTD memmove(_Dest_ch, _First_ch, _Count);

  00007	8b 75 10	 mov	 esi, DWORD PTR __Dest$[ebp]
  0000a	57		 push	 edi
  0000b	8b 7d 0c	 mov	 edi, DWORD PTR __Last$[ebp]
  0000e	2b f8		 sub	 edi, eax
  00010	57		 push	 edi
  00011	50		 push	 eax
  00012	56		 push	 esi
  00013	e8 00 00 00 00	 call	 _memmove
  00018	83 c4 0c	 add	 esp, 12			; 0000000cH

; 4119 :     return reinterpret_cast<_OutIt>(_Dest_ch + _Count);

  0001b	8d 04 37	 lea	 eax, DWORD PTR [edi+esi]
  0001e	5f		 pop	 edi
  0001f	5e		 pop	 esi

; 4120 : }

  00020	5d		 pop	 ebp
  00021	c3		 ret	 0
??$_Copy_memmove@PAPAV?$CRef@VCGraphicThing@@@@PAPAV1@@std@@YAPAPAV?$CRef@VCGraphicThing@@@@PAPAV1@00@Z ENDP ; std::_Copy_memmove<CRef<CGraphicThing> * *,CRef<CGraphicThing> * *>
_TEXT	ENDS
; Function compile flags: /Ogtp
; File C:\Program Files (x86)\Microsoft Visual Studio\2019\Community\VC\Tools\MSVC\14.27.29110\include\xutility
;	COMDAT ??$_Copy_memmove@PAPAVCGrannyLODController@@PAPAV1@@std@@YAPAPAVCGrannyLODController@@PAPAV1@00@Z
_TEXT	SEGMENT
__First$ = 8						; size = 4
__Last$ = 12						; size = 4
__Dest$ = 16						; size = 4
??$_Copy_memmove@PAPAVCGrannyLODController@@PAPAV1@@std@@YAPAPAVCGrannyLODController@@PAPAV1@00@Z PROC ; std::_Copy_memmove<CGrannyLODController * *,CGrannyLODController * *>, COMDAT

; 4113 : _OutIt _Copy_memmove(_InIt _First, _InIt _Last, _OutIt _Dest) {

  00000	55		 push	 ebp
  00001	8b ec		 mov	 ebp, esp

; 4114 :     const char* const _First_ch = const_cast<const char*>(reinterpret_cast<const volatile char*>(_First));
; 4115 :     const char* const _Last_ch  = const_cast<const char*>(reinterpret_cast<const volatile char*>(_Last));
; 4116 :     char* const _Dest_ch        = const_cast<char*>(reinterpret_cast<volatile char*>(_Dest));
; 4117 :     const auto _Count           = static_cast<size_t>(_Last_ch - _First_ch);

  00003	8b 45 08	 mov	 eax, DWORD PTR __First$[ebp]
  00006	56		 push	 esi

; 4118 :     _CSTD memmove(_Dest_ch, _First_ch, _Count);

  00007	8b 75 10	 mov	 esi, DWORD PTR __Dest$[ebp]
  0000a	57		 push	 edi
  0000b	8b 7d 0c	 mov	 edi, DWORD PTR __Last$[ebp]
  0000e	2b f8		 sub	 edi, eax
  00010	57		 push	 edi
  00011	50		 push	 eax
  00012	56		 push	 esi
  00013	e8 00 00 00 00	 call	 _memmove
  00018	83 c4 0c	 add	 esp, 12			; 0000000cH

; 4119 :     return reinterpret_cast<_OutIt>(_Dest_ch + _Count);

  0001b	8d 04 37	 lea	 eax, DWORD PTR [edi+esi]
  0001e	5f		 pop	 edi
  0001f	5e		 pop	 esi

; 4120 : }

  00020	5d		 pop	 ebp
  00021	c3		 ret	 0
??$_Copy_memmove@PAPAVCGrannyLODController@@PAPAV1@@std@@YAPAPAVCGrannyLODController@@PAPAV1@00@Z ENDP ; std::_Copy_memmove<CGrannyLODController * *,CGrannyLODController * *>
_TEXT	ENDS
; Function compile flags: /Ogtp
; File C:\Program Files (x86)\Microsoft Visual Studio\2019\Community\VC\Tools\MSVC\14.27.29110\include\xmemory
;	COMDAT ??$_Construct_in_place@PAU?$_Tree_node@U?$pair@$$CBKPAV?$CRef@VCGraphicThing@@@@@std@@PAX@std@@AAPAU12@@std@@YAXAAPAU?$_Tree_node@U?$pair@$$CBKPAV?$CRef@VCGraphicThing@@@@@std@@PAX@0@0@Z
_TEXT	SEGMENT
__Obj$ = 8						; size = 4
_<_Args_0>$ = 12					; size = 4
??$_Construct_in_place@PAU?$_Tree_node@U?$pair@$$CBKPAV?$CRef@VCGraphicThing@@@@@std@@PAX@std@@AAPAU12@@std@@YAXAAPAU?$_Tree_node@U?$pair@$$CBKPAV?$CRef@VCGraphicThing@@@@@std@@PAX@0@0@Z PROC ; std::_Construct_in_place<std::_Tree_node<std::pair<unsigned long const ,CRef<CGraphicThing> *>,void *> *,std::_Tree_node<std::pair<unsigned long const ,CRef<CGraphicThing> *>,void *> * &>, COMDAT

; 228  : void _Construct_in_place(_Ty& _Obj, _Types&&... _Args) noexcept(is_nothrow_constructible_v<_Ty, _Types...>) {

  00000	55		 push	 ebp
  00001	8b ec		 mov	 ebp, esp

; 229  :     ::new (const_cast<void*>(static_cast<const volatile void*>(_STD addressof(_Obj))))

  00003	8b 45 0c	 mov	 eax, DWORD PTR _<_Args_0>$[ebp]
  00006	8b 08		 mov	 ecx, DWORD PTR [eax]
  00008	8b 45 08	 mov	 eax, DWORD PTR __Obj$[ebp]
  0000b	89 08		 mov	 DWORD PTR [eax], ecx

; 230  :         _Ty(_STD forward<_Types>(_Args)...);
; 231  : }

  0000d	5d		 pop	 ebp
  0000e	c3		 ret	 0
??$_Construct_in_place@PAU?$_Tree_node@U?$pair@$$CBKPAV?$CRef@VCGraphicThing@@@@@std@@PAX@std@@AAPAU12@@std@@YAXAAPAU?$_Tree_node@U?$pair@$$CBKPAV?$CRef@VCGraphicThing@@@@@std@@PAX@0@0@Z ENDP ; std::_Construct_in_place<std::_Tree_node<std::pair<unsigned long const ,CRef<CGraphicThing> *>,void *> *,std::_Tree_node<std::pair<unsigned long const ,CRef<CGraphicThing> *>,void *> * &>
_TEXT	ENDS
; Function compile flags: /Ogtp
; File C:\Program Files (x86)\Microsoft Visual Studio\2019\Community\VC\Tools\MSVC\14.27.29110\include\xmemory
;	COMDAT ??$_Uninitialized_move@PAPAV?$CRef@VCGraphicThing@@@@V?$allocator@PAV?$CRef@VCGraphicThing@@@@@std@@@std@@YAPAPAV?$CRef@VCGraphicThing@@@@QAPAV1@0PAPAV1@AAV?$allocator@PAV?$CRef@VCGraphicThing@@@@@0@@Z
_TEXT	SEGMENT
__First$ = 8						; size = 4
__Last$ = 12						; size = 4
__Dest$ = 16						; size = 4
__Al$ = 20						; size = 4
??$_Uninitialized_move@PAPAV?$CRef@VCGraphicThing@@@@V?$allocator@PAV?$CRef@VCGraphicThing@@@@@std@@@std@@YAPAPAV?$CRef@VCGraphicThing@@@@QAPAV1@0PAPAV1@AAV?$allocator@PAV?$CRef@VCGraphicThing@@@@@0@@Z PROC ; std::_Uninitialized_move<CRef<CGraphicThing> * *,std::allocator<CRef<CGraphicThing> *> >, COMDAT

; 1647 :     const _InIt _First, const _InIt _Last, _Alloc_ptr_t<_Alloc> _Dest, _Alloc& _Al) {

  00000	55		 push	 ebp
  00001	8b ec		 mov	 ebp, esp
  00003	53		 push	 ebx

; 1648 :     // move [_First, _Last) to raw _Dest, using _Al
; 1649 :     // note: only called internally from elsewhere in the STL
; 1650 :     using _Ptrval     = typename _Alloc::value_type*;
; 1651 :     auto _UFirst      = _Get_unwrapped(_First);
; 1652 :     const auto _ULast = _Get_unwrapped(_Last);
; 1653 :     if constexpr (conjunction_v<bool_constant<_Ptr_move_cat<decltype(_UFirst), _Ptrval>::_Really_trivial>,
; 1654 :                       _Uses_default_construct<_Alloc, _Ptrval, decltype(_STD move(*_UFirst))>>) {
; 1655 :         _Copy_memmove(_UFirst, _ULast, _Unfancy(_Dest));

  00004	8b 5d 10	 mov	 ebx, DWORD PTR __Dest$[ebp]
  00007	57		 push	 edi
  00008	8b 7d 0c	 mov	 edi, DWORD PTR __Last$[ebp]
  0000b	53		 push	 ebx
  0000c	57		 push	 edi
  0000d	ff 75 08	 push	 DWORD PTR __First$[ebp]
  00010	e8 00 00 00 00	 call	 ??$_Copy_memmove@PAPAV?$CRef@VCGraphicThing@@@@PAPAV1@@std@@YAPAPAV?$CRef@VCGraphicThing@@@@PAPAV1@00@Z ; std::_Copy_memmove<CRef<CGraphicThing> * *,CRef<CGraphicThing> * *>

; 1656 :         return _Dest + (_ULast - _UFirst);

  00015	2b 7d 08	 sub	 edi, DWORD PTR __First$[ebp]
  00018	83 c4 0c	 add	 esp, 12			; 0000000cH
  0001b	c1 ff 02	 sar	 edi, 2
  0001e	8d 04 bb	 lea	 eax, DWORD PTR [ebx+edi*4]
  00021	5f		 pop	 edi
  00022	5b		 pop	 ebx

; 1657 :     } else {
; 1658 :         _Uninitialized_backout_al<_Alloc> _Backout{_Dest, _Al};
; 1659 :         for (; _UFirst != _ULast; ++_UFirst) {
; 1660 :             _Backout._Emplace_back(_STD move(*_UFirst));
; 1661 :         }
; 1662 : 
; 1663 :         return _Backout._Release();
; 1664 :     }
; 1665 : }

  00023	5d		 pop	 ebp
  00024	c3		 ret	 0
??$_Uninitialized_move@PAPAV?$CRef@VCGraphicThing@@@@V?$allocator@PAV?$CRef@VCGraphicThing@@@@@std@@@std@@YAPAPAV?$CRef@VCGraphicThing@@@@QAPAV1@0PAPAV1@AAV?$allocator@PAV?$CRef@VCGraphicThing@@@@@0@@Z ENDP ; std::_Uninitialized_move<CRef<CGraphicThing> * *,std::allocator<CRef<CGraphicThing> *> >
_TEXT	ENDS
; Function compile flags: /Ogtp
; File C:\Program Files (x86)\Microsoft Visual Studio\2019\Community\VC\Tools\MSVC\14.27.29110\include\xmemory
;	COMDAT ??$_Destroy_range@V?$allocator@PAV?$CRef@VCGraphicThing@@@@@std@@@std@@YAXPAPAV?$CRef@VCGraphicThing@@@@QAPAV1@AAV?$allocator@PAV?$CRef@VCGraphicThing@@@@@0@@Z
_TEXT	SEGMENT
__First$ = 8						; size = 4
__Last$ = 12						; size = 4
__Al$ = 16						; size = 4
??$_Destroy_range@V?$allocator@PAV?$CRef@VCGraphicThing@@@@@std@@@std@@YAXPAPAV?$CRef@VCGraphicThing@@@@QAPAV1@AAV?$allocator@PAV?$CRef@VCGraphicThing@@@@@0@@Z PROC ; std::_Destroy_range<std::allocator<CRef<CGraphicThing> *> >, COMDAT

; 956  :     // note that this is an optimization for debug mode codegen; in release mode the BE removes all of this
; 957  :     using _Ty = typename _Alloc::value_type;
; 958  :     if _CONSTEXPR_IF (!conjunction_v<is_trivially_destructible<_Ty>, _Uses_default_destroy<_Alloc, _Ty*>>) {
; 959  :         for (; _First != _Last; ++_First) {
; 960  :             allocator_traits<_Alloc>::destroy(_Al, _Unfancy(_First));
; 961  :         }
; 962  :     }
; 963  : }

  00000	c2 00 00	 ret	 0
??$_Destroy_range@V?$allocator@PAV?$CRef@VCGraphicThing@@@@@std@@@std@@YAXPAPAV?$CRef@VCGraphicThing@@@@QAPAV1@AAV?$allocator@PAV?$CRef@VCGraphicThing@@@@@0@@Z ENDP ; std::_Destroy_range<std::allocator<CRef<CGraphicThing> *> >
_TEXT	ENDS
; Function compile flags: /Ogtp
; File C:\Program Files (x86)\Microsoft Visual Studio\2019\Community\VC\Tools\MSVC\14.27.29110\include\xmemory
;	COMDAT ??$_Uninitialized_move@PAPAVCGrannyLODController@@V?$allocator@PAVCGrannyLODController@@@std@@@std@@YAPAPAVCGrannyLODController@@QAPAV1@0PAPAV1@AAV?$allocator@PAVCGrannyLODController@@@0@@Z
_TEXT	SEGMENT
__First$ = 8						; size = 4
__Last$ = 12						; size = 4
__Dest$ = 16						; size = 4
__Al$ = 20						; size = 4
??$_Uninitialized_move@PAPAVCGrannyLODController@@V?$allocator@PAVCGrannyLODController@@@std@@@std@@YAPAPAVCGrannyLODController@@QAPAV1@0PAPAV1@AAV?$allocator@PAVCGrannyLODController@@@0@@Z PROC ; std::_Uninitialized_move<CGrannyLODController * *,std::allocator<CGrannyLODController *> >, COMDAT

; 1647 :     const _InIt _First, const _InIt _Last, _Alloc_ptr_t<_Alloc> _Dest, _Alloc& _Al) {

  00000	55		 push	 ebp
  00001	8b ec		 mov	 ebp, esp
  00003	53		 push	 ebx

; 1648 :     // move [_First, _Last) to raw _Dest, using _Al
; 1649 :     // note: only called internally from elsewhere in the STL
; 1650 :     using _Ptrval     = typename _Alloc::value_type*;
; 1651 :     auto _UFirst      = _Get_unwrapped(_First);
; 1652 :     const auto _ULast = _Get_unwrapped(_Last);
; 1653 :     if constexpr (conjunction_v<bool_constant<_Ptr_move_cat<decltype(_UFirst), _Ptrval>::_Really_trivial>,
; 1654 :                       _Uses_default_construct<_Alloc, _Ptrval, decltype(_STD move(*_UFirst))>>) {
; 1655 :         _Copy_memmove(_UFirst, _ULast, _Unfancy(_Dest));

  00004	8b 5d 10	 mov	 ebx, DWORD PTR __Dest$[ebp]
  00007	57		 push	 edi
  00008	8b 7d 0c	 mov	 edi, DWORD PTR __Last$[ebp]
  0000b	53		 push	 ebx
  0000c	57		 push	 edi
  0000d	ff 75 08	 push	 DWORD PTR __First$[ebp]
  00010	e8 00 00 00 00	 call	 ??$_Copy_memmove@PAPAVCGrannyLODController@@PAPAV1@@std@@YAPAPAVCGrannyLODController@@PAPAV1@00@Z ; std::_Copy_memmove<CGrannyLODController * *,CGrannyLODController * *>

; 1656 :         return _Dest + (_ULast - _UFirst);

  00015	2b 7d 08	 sub	 edi, DWORD PTR __First$[ebp]
  00018	83 c4 0c	 add	 esp, 12			; 0000000cH
  0001b	c1 ff 02	 sar	 edi, 2
  0001e	8d 04 bb	 lea	 eax, DWORD PTR [ebx+edi*4]
  00021	5f		 pop	 edi
  00022	5b		 pop	 ebx

; 1657 :     } else {
; 1658 :         _Uninitialized_backout_al<_Alloc> _Backout{_Dest, _Al};
; 1659 :         for (; _UFirst != _ULast; ++_UFirst) {
; 1660 :             _Backout._Emplace_back(_STD move(*_UFirst));
; 1661 :         }
; 1662 : 
; 1663 :         return _Backout._Release();
; 1664 :     }
; 1665 : }

  00023	5d		 pop	 ebp
  00024	c3		 ret	 0
??$_Uninitialized_move@PAPAVCGrannyLODController@@V?$allocator@PAVCGrannyLODController@@@std@@@std@@YAPAPAVCGrannyLODController@@QAPAV1@0PAPAV1@AAV?$allocator@PAVCGrannyLODController@@@0@@Z ENDP ; std::_Uninitialized_move<CGrannyLODController * *,std::allocator<CGrannyLODController *> >
_TEXT	ENDS
; Function compile flags: /Ogtp
; File C:\Program Files (x86)\Microsoft Visual Studio\2019\Community\VC\Tools\MSVC\14.27.29110\include\xmemory
; File C:\Program Files (x86)\Microsoft Visual Studio\2019\Community\VC\Tools\MSVC\14.27.29110\include\vector
; File C:\Program Files (x86)\Microsoft Visual Studio\2019\Community\VC\Tools\MSVC\14.27.29110\include\xmemory
;	COMDAT ??$_Uninitialized_value_construct_n@V?$allocator@USModelThingSet@CGraphicThingInstance@@@std@@@std@@YAPAUSModelThingSet@CGraphicThingInstance@@PAU12@IAAV?$allocator@USModelThingSet@CGraphicThingInstance@@@0@@Z
_TEXT	SEGMENT
__First$ = 8						; size = 4
__Count$ = 12						; size = 4
__Al$ = 16						; size = 4
??$_Uninitialized_value_construct_n@V?$allocator@USModelThingSet@CGraphicThingInstance@@@std@@@std@@YAPAUSModelThingSet@CGraphicThingInstance@@PAU12@IAAV?$allocator@USModelThingSet@CGraphicThingInstance@@@0@@Z PROC ; std::_Uninitialized_value_construct_n<std::allocator<CGraphicThingInstance::SModelThingSet> >, COMDAT

; 1824 :     _Alloc_ptr_t<_Alloc> _First, _Alloc_size_t<_Alloc> _Count, _Alloc& _Al) {

  00000	55		 push	 ebp
  00001	8b ec		 mov	 ebp, esp

; 1825 :     // value-initialize _Count objects to raw _First, using _Al
; 1826 :     using _Ptrty = typename _Alloc::value_type*;
; 1827 :     if constexpr (_Use_memset_value_construct_v<_Ptrty> && _Uses_default_construct<_Alloc, _Ptrty>::value) {
; 1828 :         auto _PFirst = _Unfancy(_First);
; 1829 :         _Zero_range(_PFirst, _PFirst + _Count);
; 1830 :         return _First + _Count;
; 1831 :     } else {
; 1832 :         _Uninitialized_backout_al<_Alloc> _Backout{_First, _Al};
; 1833 :         for (; 0 < _Count; --_Count) {

  00003	8b 45 0c	 mov	 eax, DWORD PTR __Count$[ebp]
  00006	56		 push	 esi

; 1497 :     _Uninitialized_backout_al(pointer _Dest, _Alloc& _Al_) : _First(_Dest), _Last(_Dest), _Al(_Al_) {}

  00007	8b 75 08	 mov	 esi, DWORD PTR __First$[ebp]

; 1825 :     // value-initialize _Count objects to raw _First, using _Al
; 1826 :     using _Ptrty = typename _Alloc::value_type*;
; 1827 :     if constexpr (_Use_memset_value_construct_v<_Ptrty> && _Uses_default_construct<_Alloc, _Ptrty>::value) {
; 1828 :         auto _PFirst = _Unfancy(_First);
; 1829 :         _Zero_range(_PFirst, _PFirst + _Count);
; 1830 :         return _First + _Count;
; 1831 :     } else {
; 1832 :         _Uninitialized_backout_al<_Alloc> _Backout{_First, _Al};
; 1833 :         for (; 0 < _Count; --_Count) {

  0000a	85 c0		 test	 eax, eax
  0000c	74 25		 je	 SHORT $LN3@Uninitiali
  0000e	66 90		 npad	 2
$LL4@Uninitiali:

; 694  :         ::new (const_cast<void*>(static_cast<const volatile void*>(_Ptr))) _Objty(_STD forward<_Types>(_Args)...);

  00010	c7 46 04 00 00
	00 00		 mov	 DWORD PTR [esi+4], 0
; File C:\Program Files (x86)\Microsoft Visual Studio\2019\Community\VC\Tools\MSVC\14.27.29110\include\vector

; 375  :     _Vector_val() noexcept : _Myfirst(), _Mylast(), _Myend() {}

  00017	c7 06 00 00 00
	00		 mov	 DWORD PTR [esi], 0
  0001d	c7 46 04 00 00
	00 00		 mov	 DWORD PTR [esi+4], 0
  00024	c7 46 08 00 00
	00 00		 mov	 DWORD PTR [esi+8], 0
; File C:\Program Files (x86)\Microsoft Visual Studio\2019\Community\VC\Tools\MSVC\14.27.29110\include\xmemory

; 1509 :         ++_Last;

  0002b	83 c6 0c	 add	 esi, 12			; 0000000cH

; 1825 :     // value-initialize _Count objects to raw _First, using _Al
; 1826 :     using _Ptrty = typename _Alloc::value_type*;
; 1827 :     if constexpr (_Use_memset_value_construct_v<_Ptrty> && _Uses_default_construct<_Alloc, _Ptrty>::value) {
; 1828 :         auto _PFirst = _Unfancy(_First);
; 1829 :         _Zero_range(_PFirst, _PFirst + _Count);
; 1830 :         return _First + _Count;
; 1831 :     } else {
; 1832 :         _Uninitialized_backout_al<_Alloc> _Backout{_First, _Al};
; 1833 :         for (; 0 < _Count; --_Count) {

  0002e	83 e8 01	 sub	 eax, 1
  00031	75 dd		 jne	 SHORT $LL4@Uninitiali
$LN3@Uninitiali:

; 1503 :         _Destroy_range(_First, _Last, _Al);

  00033	ff 75 10	 push	 DWORD PTR __Al$[ebp]
  00036	56		 push	 esi
  00037	56		 push	 esi
  00038	e8 00 00 00 00	 call	 ??$_Destroy_range@V?$allocator@USModelThingSet@CGraphicThingInstance@@@std@@@std@@YAXPAUSModelThingSet@CGraphicThingInstance@@QAU12@AAV?$allocator@USModelThingSet@CGraphicThingInstance@@@0@@Z ; std::_Destroy_range<std::allocator<CGraphicThingInstance::SModelThingSet> >
  0003d	83 c4 0c	 add	 esp, 12			; 0000000cH

; 1834 :             _Backout._Emplace_back();
; 1835 :         }
; 1836 : 
; 1837 :         return _Backout._Release();

  00040	8b c6		 mov	 eax, esi
  00042	5e		 pop	 esi

; 1838 :     }
; 1839 : }

  00043	5d		 pop	 ebp
  00044	c3		 ret	 0
??$_Uninitialized_value_construct_n@V?$allocator@USModelThingSet@CGraphicThingInstance@@@std@@@std@@YAPAUSModelThingSet@CGraphicThingInstance@@PAU12@IAAV?$allocator@USModelThingSet@CGraphicThingInstance@@@0@@Z ENDP ; std::_Uninitialized_value_construct_n<std::allocator<CGraphicThingInstance::SModelThingSet> >
_TEXT	ENDS
; Function compile flags: /Ogtp
; File C:\Program Files (x86)\Microsoft Visual Studio\2019\Community\VC\Tools\MSVC\14.27.29110\include\xmemory
;	COMDAT ??$_Destroy_in_place@PAU?$_Tree_node@U?$pair@$$CBKPAV?$CRef@VCGraphicThing@@@@@std@@PAX@std@@@std@@YAXAAPAU?$_Tree_node@U?$pair@$$CBKPAV?$CRef@VCGraphicThing@@@@@std@@PAX@0@@Z
_TEXT	SEGMENT
__Obj$ = 8						; size = 4
??$_Destroy_in_place@PAU?$_Tree_node@U?$pair@$$CBKPAV?$CRef@VCGraphicThing@@@@@std@@PAX@std@@@std@@YAXAAPAU?$_Tree_node@U?$pair@$$CBKPAV?$CRef@VCGraphicThing@@@@@std@@PAX@0@@Z PROC ; std::_Destroy_in_place<std::_Tree_node<std::pair<unsigned long const ,CRef<CGraphicThing> *>,void *> *>, COMDAT

; 268  :     _Obj.~_Ty();
; 269  : }

  00000	c2 00 00	 ret	 0
??$_Destroy_in_place@PAU?$_Tree_node@U?$pair@$$CBKPAV?$CRef@VCGraphicThing@@@@@std@@PAX@std@@@std@@YAXAAPAU?$_Tree_node@U?$pair@$$CBKPAV?$CRef@VCGraphicThing@@@@@std@@PAX@0@@Z ENDP ; std::_Destroy_in_place<std::_Tree_node<std::pair<unsigned long const ,CRef<CGraphicThing> *>,void *> *>
_TEXT	ENDS
; Function compile flags: /Ogtp
; File C:\Program Files (x86)\Microsoft Visual Studio\2019\Community\VC\Tools\MSVC\14.27.29110\include\xutility
;	COMDAT ??$_Copy_memmove@PAPAVCGraphicThingInstance@@PAPAV1@@std@@YAPAPAVCGraphicThingInstance@@PAPAV1@00@Z
_TEXT	SEGMENT
__First$ = 8						; size = 4
__Last$ = 12						; size = 4
__Dest$ = 16						; size = 4
??$_Copy_memmove@PAPAVCGraphicThingInstance@@PAPAV1@@std@@YAPAPAVCGraphicThingInstance@@PAPAV1@00@Z PROC ; std::_Copy_memmove<CGraphicThingInstance * *,CGraphicThingInstance * *>, COMDAT

; 4113 : _OutIt _Copy_memmove(_InIt _First, _InIt _Last, _OutIt _Dest) {

  00000	55		 push	 ebp
  00001	8b ec		 mov	 ebp, esp

; 4114 :     const char* const _First_ch = const_cast<const char*>(reinterpret_cast<const volatile char*>(_First));
; 4115 :     const char* const _Last_ch  = const_cast<const char*>(reinterpret_cast<const volatile char*>(_Last));
; 4116 :     char* const _Dest_ch        = const_cast<char*>(reinterpret_cast<volatile char*>(_Dest));
; 4117 :     const auto _Count           = static_cast<size_t>(_Last_ch - _First_ch);

  00003	8b 45 08	 mov	 eax, DWORD PTR __First$[ebp]
  00006	56		 push	 esi

; 4118 :     _CSTD memmove(_Dest_ch, _First_ch, _Count);

  00007	8b 75 10	 mov	 esi, DWORD PTR __Dest$[ebp]
  0000a	57		 push	 edi
  0000b	8b 7d 0c	 mov	 edi, DWORD PTR __Last$[ebp]
  0000e	2b f8		 sub	 edi, eax
  00010	57		 push	 edi
  00011	50		 push	 eax
  00012	56		 push	 esi
  00013	e8 00 00 00 00	 call	 _memmove
  00018	83 c4 0c	 add	 esp, 12			; 0000000cH

; 4119 :     return reinterpret_cast<_OutIt>(_Dest_ch + _Count);

  0001b	8d 04 37	 lea	 eax, DWORD PTR [edi+esi]
  0001e	5f		 pop	 edi
  0001f	5e		 pop	 esi

; 4120 : }

  00020	5d		 pop	 ebp
  00021	c3		 ret	 0
??$_Copy_memmove@PAPAVCGraphicThingInstance@@PAPAV1@@std@@YAPAPAVCGraphicThingInstance@@PAPAV1@00@Z ENDP ; std::_Copy_memmove<CGraphicThingInstance * *,CGraphicThingInstance * *>
_TEXT	ENDS
; Function compile flags: /Ogtp
; File C:\Program Files (x86)\Microsoft Visual Studio\2019\Community\VC\Tools\MSVC\14.27.29110\include\xmemory
;	COMDAT ??$_Allocate_manually_vector_aligned@U_Default_allocate_traits@std@@@std@@YAPAXI@Z
_TEXT	SEGMENT
__Bytes$ = 8						; size = 4
??$_Allocate_manually_vector_aligned@U_Default_allocate_traits@std@@@std@@YAPAXI@Z PROC ; std::_Allocate_manually_vector_aligned<std::_Default_allocate_traits>, COMDAT

; 113  : __declspec(allocator) void* _Allocate_manually_vector_aligned(const size_t _Bytes) {

  00000	55		 push	 ebp
  00001	8b ec		 mov	 ebp, esp

; 114  :     // allocate _Bytes manually aligned to at least _Big_allocation_alignment
; 115  :     const size_t _Block_size = _Non_user_size + _Bytes;

  00003	8b 45 08	 mov	 eax, DWORD PTR __Bytes$[ebp]
  00006	8d 48 23	 lea	 ecx, DWORD PTR [eax+35]

; 116  :     if (_Block_size <= _Bytes) {

  00009	3b c8		 cmp	 ecx, eax
  0000b	0f 86 00 00 00
	00		 jbe	 ?_Throw_bad_array_new_length@std@@YAXXZ ; std::_Throw_bad_array_new_length

; 77   :         return ::operator new(_Bytes);

  00011	51		 push	 ecx
  00012	e8 00 00 00 00	 call	 ??2@YAPAXI@Z		; operator new

; 117  :         _Throw_bad_array_new_length(); // add overflow
; 118  :     }
; 119  : 
; 120  :     const uintptr_t _Ptr_container = reinterpret_cast<uintptr_t>(_Traits::_Allocate(_Block_size));

  00017	8b c8		 mov	 ecx, eax

; 77   :         return ::operator new(_Bytes);

  00019	83 c4 04	 add	 esp, 4

; 121  :     _STL_VERIFY(_Ptr_container != 0, "invalid argument"); // validate even in release since we're doing p[-1]

  0001c	85 c9		 test	 ecx, ecx
  0001e	74 0b		 je	 SHORT $LN7@Allocate_m

; 122  :     void* const _Ptr = reinterpret_cast<void*>((_Ptr_container + _Non_user_size) & ~(_Big_allocation_alignment - 1));

  00020	8d 41 23	 lea	 eax, DWORD PTR [ecx+35]
  00023	83 e0 e0	 and	 eax, -32		; ffffffe0H

; 123  :     static_cast<uintptr_t*>(_Ptr)[-1] = _Ptr_container;

  00026	89 48 fc	 mov	 DWORD PTR [eax-4], ecx

; 124  : 
; 125  : #ifdef _DEBUG
; 126  :     static_cast<uintptr_t*>(_Ptr)[-2] = _Big_allocation_sentinel;
; 127  : #endif // _DEBUG
; 128  :     return _Ptr;
; 129  : }

  00029	5d		 pop	 ebp
  0002a	c3		 ret	 0
$LN7@Allocate_m:

; 121  :     _STL_VERIFY(_Ptr_container != 0, "invalid argument"); // validate even in release since we're doing p[-1]

  0002b	e9 00 00 00 00	 jmp	 __invalid_parameter_noinfo_noreturn
??$_Allocate_manually_vector_aligned@U_Default_allocate_traits@std@@@std@@YAPAXI@Z ENDP ; std::_Allocate_manually_vector_aligned<std::_Default_allocate_traits>
_TEXT	ENDS
; Function compile flags: /Ogtp
; File C:\Program Files (x86)\Microsoft Visual Studio\2019\Community\VC\Tools\MSVC\14.27.29110\include\xmemory
;	COMDAT ??$_Construct_in_place@PAU?$_Tree_node@U?$pair@$$CBKPAV?$CRef@VCGraphicThing@@@@@std@@PAX@std@@ABQAU12@@std@@YAXAAPAU?$_Tree_node@U?$pair@$$CBKPAV?$CRef@VCGraphicThing@@@@@std@@PAX@0@ABQAU10@@Z
_TEXT	SEGMENT
__Obj$ = 8						; size = 4
_<_Args_0>$ = 12					; size = 4
??$_Construct_in_place@PAU?$_Tree_node@U?$pair@$$CBKPAV?$CRef@VCGraphicThing@@@@@std@@PAX@std@@ABQAU12@@std@@YAXAAPAU?$_Tree_node@U?$pair@$$CBKPAV?$CRef@VCGraphicThing@@@@@std@@PAX@0@ABQAU10@@Z PROC ; std::_Construct_in_place<std::_Tree_node<std::pair<unsigned long const ,CRef<CGraphicThing> *>,void *> *,std::_Tree_node<std::pair<unsigned long const ,CRef<CGraphicThing> *>,void *> * const &>, COMDAT

; 228  : void _Construct_in_place(_Ty& _Obj, _Types&&... _Args) noexcept(is_nothrow_constructible_v<_Ty, _Types...>) {

  00000	55		 push	 ebp
  00001	8b ec		 mov	 ebp, esp

; 229  :     ::new (const_cast<void*>(static_cast<const volatile void*>(_STD addressof(_Obj))))

  00003	8b 45 0c	 mov	 eax, DWORD PTR _<_Args_0>$[ebp]
  00006	8b 08		 mov	 ecx, DWORD PTR [eax]
  00008	8b 45 08	 mov	 eax, DWORD PTR __Obj$[ebp]
  0000b	89 08		 mov	 DWORD PTR [eax], ecx

; 230  :         _Ty(_STD forward<_Types>(_Args)...);
; 231  : }

  0000d	5d		 pop	 ebp
  0000e	c3		 ret	 0
??$_Construct_in_place@PAU?$_Tree_node@U?$pair@$$CBKPAV?$CRef@VCGraphicThing@@@@@std@@PAX@std@@ABQAU12@@std@@YAXAAPAU?$_Tree_node@U?$pair@$$CBKPAV?$CRef@VCGraphicThing@@@@@std@@PAX@0@ABQAU10@@Z ENDP ; std::_Construct_in_place<std::_Tree_node<std::pair<unsigned long const ,CRef<CGraphicThing> *>,void *> *,std::_Tree_node<std::pair<unsigned long const ,CRef<CGraphicThing> *>,void *> * const &>
_TEXT	ENDS
; Function compile flags: /Ogtp
; File C:\Program Files (x86)\Microsoft Visual Studio\2019\Community\VC\Tools\MSVC\14.27.29110\include\vector
; File C:\Program Files (x86)\Microsoft Visual Studio\2019\Community\VC\Tools\MSVC\14.27.29110\include\xmemory
; File C:\Program Files (x86)\Microsoft Visual Studio\2019\Community\VC\Tools\MSVC\14.27.29110\include\vector
; File C:\Program Files (x86)\Microsoft Visual Studio\2019\Community\VC\Tools\MSVC\14.27.29110\include\xmemory
; File C:\Program Files (x86)\Microsoft Visual Studio\2019\Community\VC\Tools\MSVC\14.27.29110\include\vector
; File C:\Program Files (x86)\Microsoft Visual Studio\2019\Community\VC\Tools\MSVC\14.27.29110\include\xmemory
; File C:\Program Files (x86)\Microsoft Visual Studio\2019\Community\VC\Tools\MSVC\14.27.29110\include\vector
; File C:\Program Files (x86)\Microsoft Visual Studio\2019\Community\VC\Tools\MSVC\14.27.29110\include\xmemory
; File C:\Program Files (x86)\Microsoft Visual Studio\2019\Community\VC\Tools\MSVC\14.27.29110\include\vector
; File C:\Program Files (x86)\Microsoft Visual Studio\2019\Community\VC\Tools\MSVC\14.27.29110\include\xmemory
; File C:\Program Files (x86)\Microsoft Visual Studio\2019\Community\VC\Tools\MSVC\14.27.29110\include\vector
;	COMDAT ??$_Resize_reallocate@U_Value_init_tag@std@@@?$vector@USModelThingSet@CGraphicThingInstance@@V?$allocator@USModelThingSet@CGraphicThingInstance@@@std@@@std@@AAEXIABU_Value_init_tag@1@@Z
_TEXT	SEGMENT
tv302 = -8						; size = 4
__Newvec$1$ = -4					; size = 4
__Oldsize$1$ = 8					; size = 4
__Newsize$ = 8						; size = 4
__Val$ = 12						; size = 4
??$_Resize_reallocate@U_Value_init_tag@std@@@?$vector@USModelThingSet@CGraphicThingInstance@@V?$allocator@USModelThingSet@CGraphicThingInstance@@@std@@@std@@AAEXIABU_Value_init_tag@1@@Z PROC ; std::vector<CGraphicThingInstance::SModelThingSet,std::allocator<CGraphicThingInstance::SModelThingSet> >::_Resize_reallocate<std::_Value_init_tag>, COMDAT
; _this$ = ecx

; 1182 :     void _Resize_reallocate(const size_type _Newsize, const _Ty2& _Val) {

  00000	55		 push	 ebp
  00001	8b ec		 mov	 ebp, esp
  00003	83 ec 08	 sub	 esp, 8
  00006	53		 push	 ebx

; 1183 :         if (_Newsize > max_size()) {

  00007	8b 5d 08	 mov	 ebx, DWORD PTR __Newsize$[ebp]
  0000a	56		 push	 esi
  0000b	57		 push	 edi
  0000c	8b f9		 mov	 edi, ecx
  0000e	81 fb 55 55 55
	15		 cmp	 ebx, 357913941		; 15555555H
  00014	0f 87 e0 00 00
	00		 ja	 $LN38@Resize_rea

; 1185 :         }
; 1186 : 
; 1187 :         auto& _My_data    = _Mypair._Myval2;
; 1188 :         pointer& _Myfirst = _My_data._Myfirst;
; 1189 :         pointer& _Mylast  = _My_data._Mylast;
; 1190 : 
; 1191 :         const auto _Oldsize          = static_cast<size_type>(_Mylast - _Myfirst);

  0001a	8b 4f 04	 mov	 ecx, DWORD PTR [edi+4]
  0001d	b8 ab aa aa 2a	 mov	 eax, 715827883		; 2aaaaaabH
  00022	2b 0f		 sub	 ecx, DWORD PTR [edi]
  00024	f7 e9		 imul	 ecx

; 1494 :         return static_cast<size_type>(_My_data._Myend - _My_data._Myfirst);

  00026	8b 4f 08	 mov	 ecx, DWORD PTR [edi+8]
  00029	2b 0f		 sub	 ecx, DWORD PTR [edi]

; 1185 :         }
; 1186 : 
; 1187 :         auto& _My_data    = _Mypair._Myval2;
; 1188 :         pointer& _Myfirst = _My_data._Myfirst;
; 1189 :         pointer& _Mylast  = _My_data._Mylast;
; 1190 : 
; 1191 :         const auto _Oldsize          = static_cast<size_type>(_Mylast - _Myfirst);

  0002b	d1 fa		 sar	 edx, 1
  0002d	8b c2		 mov	 eax, edx
  0002f	c1 e8 1f	 shr	 eax, 31			; 0000001fH
  00032	03 c2		 add	 eax, edx
  00034	89 45 08	 mov	 DWORD PTR __Oldsize$1$[ebp], eax

; 1494 :         return static_cast<size_type>(_My_data._Myend - _My_data._Myfirst);

  00037	b8 ab aa aa 2a	 mov	 eax, 715827883		; 2aaaaaabH
  0003c	f7 e9		 imul	 ecx

; 1619 :         if (_Oldcapacity > max_size() - _Oldcapacity / 2) {

  0003e	b8 55 55 55 15	 mov	 eax, 357913941		; 15555555H

; 1494 :         return static_cast<size_type>(_My_data._Myend - _My_data._Myfirst);

  00043	d1 fa		 sar	 edx, 1
  00045	8b ca		 mov	 ecx, edx
  00047	c1 e9 1f	 shr	 ecx, 31			; 0000001fH
  0004a	03 ca		 add	 ecx, edx

; 1619 :         if (_Oldcapacity > max_size() - _Oldcapacity / 2) {

  0004c	8b d1		 mov	 edx, ecx
  0004e	d1 ea		 shr	 edx, 1
  00050	2b c2		 sub	 eax, edx
  00052	3b c8		 cmp	 ecx, eax
  00054	77 14		 ja	 SHORT $LN36@Resize_rea

; 1620 :             return _Newsize; // geometric growth would overflow
; 1621 :         }
; 1622 : 
; 1623 :         const size_type _Geometric = _Oldcapacity + _Oldcapacity / 2;

  00056	8d 04 0a	 lea	 eax, DWORD PTR [edx+ecx]

; 1624 : 
; 1625 :         if (_Geometric < _Newsize) {

  00059	3b c3		 cmp	 eax, ebx
  0005b	72 0d		 jb	 SHORT $LN36@Resize_rea
; File C:\Program Files (x86)\Microsoft Visual Studio\2019\Community\VC\Tools\MSVC\14.27.29110\include\xmemory

; 60   :         if (_Count > _Max_possible) {

  0005d	3d 55 55 55 15	 cmp	 eax, 357913941		; 15555555H
  00062	0f 87 97 00 00
	00		 ja	 $LN39@Resize_rea
  00068	eb 02		 jmp	 SHORT $LN18@Resize_rea
$LN36@Resize_rea:

; 62   :         }
; 63   :     }
; 64   : 
; 65   :     return _Count * _Ty_size;

  0006a	8b c3		 mov	 eax, ebx
$LN18@Resize_rea:
  0006c	8d 04 40	 lea	 eax, DWORD PTR [eax+eax*2]
  0006f	c1 e0 02	 shl	 eax, 2

; 807  :         return static_cast<_Ty*>(_Allocate<_New_alignof<_Ty>>(_Get_size_of_n<sizeof(_Ty)>(_Count)));

  00072	50		 push	 eax

; 65   :     return _Count * _Ty_size;

  00073	89 45 f8	 mov	 DWORD PTR tv302[ebp], eax

; 807  :         return static_cast<_Ty*>(_Allocate<_New_alignof<_Ty>>(_Get_size_of_n<sizeof(_Ty)>(_Count)));

  00076	e8 00 00 00 00	 call	 ??$_Allocate@$07U_Default_allocate_traits@std@@$0A@@std@@YAPAXI@Z ; std::_Allocate<8,std::_Default_allocate_traits,0>
; File C:\Program Files (x86)\Microsoft Visual Studio\2019\Community\VC\Tools\MSVC\14.27.29110\include\vector

; 1199 :         _Appended_last = _Ufill(_Appended_first, _Newsize - _Oldsize, _Val);

  0007b	8b 4d 08	 mov	 ecx, DWORD PTR __Oldsize$1$[ebp]
; File C:\Program Files (x86)\Microsoft Visual Studio\2019\Community\VC\Tools\MSVC\14.27.29110\include\xmemory

; 807  :         return static_cast<_Ty*>(_Allocate<_New_alignof<_Ty>>(_Get_size_of_n<sizeof(_Ty)>(_Count)));

  0007e	8b f0		 mov	 esi, eax
; File C:\Program Files (x86)\Microsoft Visual Studio\2019\Community\VC\Tools\MSVC\14.27.29110\include\vector

; 1199 :         _Appended_last = _Ufill(_Appended_first, _Newsize - _Oldsize, _Val);

  00080	8b c3		 mov	 eax, ebx
; File C:\Program Files (x86)\Microsoft Visual Studio\2019\Community\VC\Tools\MSVC\14.27.29110\include\xmemory

; 807  :         return static_cast<_Ty*>(_Allocate<_New_alignof<_Ty>>(_Get_size_of_n<sizeof(_Ty)>(_Count)));

  00082	89 75 fc	 mov	 DWORD PTR __Newvec$1$[ebp], esi
; File C:\Program Files (x86)\Microsoft Visual Studio\2019\Community\VC\Tools\MSVC\14.27.29110\include\vector

; 1199 :         _Appended_last = _Ufill(_Appended_first, _Newsize - _Oldsize, _Val);

  00085	2b c1		 sub	 eax, ecx

; 1583 :         return _Uninitialized_value_construct_n(_Dest, _Count, _Getal());

  00087	57		 push	 edi
  00088	50		 push	 eax

; 1192 :         const size_type _Newcapacity = _Calculate_growth(_Newsize);
; 1193 : 
; 1194 :         const pointer _Newvec         = _Getal().allocate(_Newcapacity);
; 1195 :         const pointer _Appended_first = _Newvec + _Oldsize;

  00089	8d 04 49	 lea	 eax, DWORD PTR [ecx+ecx*2]
  0008c	8d 04 86	 lea	 eax, DWORD PTR [esi+eax*4]

; 1583 :         return _Uninitialized_value_construct_n(_Dest, _Count, _Getal());

  0008f	50		 push	 eax
  00090	e8 00 00 00 00	 call	 ??$_Uninitialized_value_construct_n@V?$allocator@USModelThingSet@CGraphicThingInstance@@@std@@@std@@YAPAUSModelThingSet@CGraphicThingInstance@@PAU12@IAAV?$allocator@USModelThingSet@CGraphicThingInstance@@@0@@Z ; std::_Uninitialized_value_construct_n<std::allocator<CGraphicThingInstance::SModelThingSet> >

; 1597 :         _Uninitialized_move(_First, _Last, _Dest, _Getal());

  00095	57		 push	 edi
  00096	56		 push	 esi
  00097	ff 77 04	 push	 DWORD PTR [edi+4]
  0009a	ff 37		 push	 DWORD PTR [edi]
  0009c	e8 00 00 00 00	 call	 ??$_Uninitialized_move@PAUSModelThingSet@CGraphicThingInstance@@V?$allocator@USModelThingSet@CGraphicThingInstance@@@std@@@std@@YAPAUSModelThingSet@CGraphicThingInstance@@QAU12@0PAU12@AAV?$allocator@USModelThingSet@CGraphicThingInstance@@@0@@Z ; std::_Uninitialized_move<CGraphicThingInstance::SModelThingSet *,std::allocator<CGraphicThingInstance::SModelThingSet> >

; 1675 :         if (_Myfirst) { // destroy and deallocate old array

  000a1	8b 0f		 mov	 ecx, DWORD PTR [edi]

; 1597 :         _Uninitialized_move(_First, _Last, _Dest, _Getal());

  000a3	83 c4 20	 add	 esp, 32			; 00000020H

; 1675 :         if (_Myfirst) { // destroy and deallocate old array

  000a6	85 c9		 test	 ecx, ecx
  000a8	74 34		 je	 SHORT $LN29@Resize_rea

; 1612 :         _Destroy_range(_First, _Last, _Getal());

  000aa	57		 push	 edi
  000ab	ff 77 04	 push	 DWORD PTR [edi+4]
  000ae	51		 push	 ecx
  000af	e8 00 00 00 00	 call	 ??$_Destroy_range@V?$allocator@USModelThingSet@CGraphicThingInstance@@@std@@@std@@YAXPAUSModelThingSet@CGraphicThingInstance@@QAU12@AAV?$allocator@USModelThingSet@CGraphicThingInstance@@@0@@Z ; std::_Destroy_range<std::allocator<CGraphicThingInstance::SModelThingSet> >

; 1677 :             _Getal().deallocate(_Myfirst, static_cast<size_type>(_Myend - _Myfirst));

  000b4	8b 37		 mov	 esi, DWORD PTR [edi]
  000b6	b8 ab aa aa 2a	 mov	 eax, 715827883		; 2aaaaaabH
  000bb	8b 4f 08	 mov	 ecx, DWORD PTR [edi+8]
  000be	2b ce		 sub	 ecx, esi
  000c0	f7 e9		 imul	 ecx
  000c2	d1 fa		 sar	 edx, 1
  000c4	8b c2		 mov	 eax, edx
  000c6	c1 e8 1f	 shr	 eax, 31			; 0000001fH
  000c9	03 c2		 add	 eax, edx
; File C:\Program Files (x86)\Microsoft Visual Studio\2019\Community\VC\Tools\MSVC\14.27.29110\include\xmemory

; 803  :         _Deallocate<_New_alignof<_Ty>>(_Ptr, sizeof(_Ty) * _Count);

  000cb	8d 04 40	 lea	 eax, DWORD PTR [eax+eax*2]
  000ce	c1 e0 02	 shl	 eax, 2
  000d1	50		 push	 eax
  000d2	56		 push	 esi
  000d3	e8 00 00 00 00	 call	 ??$_Deallocate@$07$0A@@std@@YAXPAXI@Z ; std::_Deallocate<8,0>
  000d8	8b 75 fc	 mov	 esi, DWORD PTR __Newvec$1$[ebp]
  000db	83 c4 14	 add	 esp, 20			; 00000014H
$LN29@Resize_rea:
; File C:\Program Files (x86)\Microsoft Visual Studio\2019\Community\VC\Tools\MSVC\14.27.29110\include\vector

; 1681 :         _Mylast  = _Newvec + _Newsize;

  000de	8d 04 5b	 lea	 eax, DWORD PTR [ebx+ebx*2]
  000e1	89 37		 mov	 DWORD PTR [edi], esi
  000e3	8d 04 86	 lea	 eax, DWORD PTR [esi+eax*4]
  000e6	89 47 04	 mov	 DWORD PTR [edi+4], eax

; 1682 :         _Myend   = _Newvec + _Newcapacity;

  000e9	8b 45 f8	 mov	 eax, DWORD PTR tv302[ebp]
  000ec	03 c6		 add	 eax, esi
  000ee	89 47 08	 mov	 DWORD PTR [edi+8], eax
  000f1	5f		 pop	 edi
  000f2	5e		 pop	 esi
  000f3	5b		 pop	 ebx

; 1208 :     }

  000f4	8b e5		 mov	 esp, ebp
  000f6	5d		 pop	 ebp
  000f7	c2 08 00	 ret	 8
$LN38@Resize_rea:

; 1184 :             _Xlength();

  000fa	e8 00 00 00 00	 call	 ?_Xlength@?$vector@USModelThingSet@CGraphicThingInstance@@V?$allocator@USModelThingSet@CGraphicThingInstance@@@std@@@std@@CAXXZ ; std::vector<CGraphicThingInstance::SModelThingSet,std::allocator<CGraphicThingInstance::SModelThingSet> >::_Xlength
$LN39@Resize_rea:
; File C:\Program Files (x86)\Microsoft Visual Studio\2019\Community\VC\Tools\MSVC\14.27.29110\include\xmemory

; 61   :             _Throw_bad_array_new_length(); // multiply overflow

  000ff	e8 00 00 00 00	 call	 ?_Throw_bad_array_new_length@std@@YAXXZ ; std::_Throw_bad_array_new_length
$LN35@Resize_rea:
  00104	cc		 int	 3
??$_Resize_reallocate@U_Value_init_tag@std@@@?$vector@USModelThingSet@CGraphicThingInstance@@V?$allocator@USModelThingSet@CGraphicThingInstance@@@std@@@std@@AAEXIABU_Value_init_tag@1@@Z ENDP ; std::vector<CGraphicThingInstance::SModelThingSet,std::allocator<CGraphicThingInstance::SModelThingSet> >::_Resize_reallocate<std::_Value_init_tag>
_TEXT	ENDS
; Function compile flags: /Ogtp
; File C:\Program Files (x86)\Microsoft Visual Studio\2019\Community\VC\Tools\MSVC\14.27.29110\include\xtree
; File C:\Program Files (x86)\Microsoft Visual Studio\2019\Community\VC\Tools\MSVC\14.27.29110\include\utility
; File C:\Program Files (x86)\Microsoft Visual Studio\2019\Community\VC\Tools\MSVC\14.27.29110\include\xmemory
; File C:\Program Files (x86)\Microsoft Visual Studio\2019\Community\VC\Tools\MSVC\14.27.29110\include\xtree
;	COMDAT ??$_Erase_tree@V?$allocator@U?$_Tree_node@U?$pair@$$CBKPAV?$CRef@VCGraphicThing@@@@@std@@PAX@std@@@std@@@?$_Tree_val@U?$_Tree_simple_types@U?$pair@$$CBKPAV?$CRef@VCGraphicThing@@@@@std@@@std@@@std@@QAEXAAV?$allocator@U?$_Tree_node@U?$pair@$$CBKPAV?$CRef@VCGraphicThing@@@@@std@@PAX@std@@@1@PAU?$_Tree_node@U?$pair@$$CBKPAV?$CRef@VCGraphicThing@@@@@std@@PAX@1@@Z
_TEXT	SEGMENT
__Al$ = 8						; size = 4
__Rootnode$ = 12					; size = 4
??$_Erase_tree@V?$allocator@U?$_Tree_node@U?$pair@$$CBKPAV?$CRef@VCGraphicThing@@@@@std@@PAX@std@@@std@@@?$_Tree_val@U?$_Tree_simple_types@U?$pair@$$CBKPAV?$CRef@VCGraphicThing@@@@@std@@@std@@@std@@QAEXAAV?$allocator@U?$_Tree_node@U?$pair@$$CBKPAV?$CRef@VCGraphicThing@@@@@std@@PAX@std@@@1@PAU?$_Tree_node@U?$pair@$$CBKPAV?$CRef@VCGraphicThing@@@@@std@@PAX@1@@Z PROC ; std::_Tree_val<std::_Tree_simple_types<std::pair<unsigned long const ,CRef<CGraphicThing> *> > >::_Erase_tree<std::allocator<std::_Tree_node<std::pair<unsigned long const ,CRef<CGraphicThing> *>,void *> > >, COMDAT
; _this$ = ecx

; 742  :     void _Erase_tree(_Alnode& _Al, _Nodeptr _Rootnode) noexcept {

  00000	55		 push	 ebp
  00001	8b ec		 mov	 ebp, esp
  00003	53		 push	 ebx
  00004	56		 push	 esi

; 743  :         while (!_Rootnode->_Isnil) { // free subtrees, then node

  00005	8b 75 0c	 mov	 esi, DWORD PTR __Rootnode$[ebp]
  00008	8b d9		 mov	 ebx, ecx
  0000a	80 7e 0d 00	 cmp	 BYTE PTR [esi+13], 0
  0000e	75 25		 jne	 SHORT $LN3@Erase_tree
  00010	57		 push	 edi
  00011	8b 7d 08	 mov	 edi, DWORD PTR __Al$[ebp]
$LL2@Erase_tree:

; 744  :             _Erase_tree(_Al, _Rootnode->_Right);

  00014	ff 76 08	 push	 DWORD PTR [esi+8]
  00017	8b cb		 mov	 ecx, ebx
  00019	57		 push	 edi
  0001a	e8 00 00 00 00	 call	 ??$_Erase_tree@V?$allocator@U?$_Tree_node@U?$pair@$$CBKPAV?$CRef@VCGraphicThing@@@@@std@@PAX@std@@@std@@@?$_Tree_val@U?$_Tree_simple_types@U?$pair@$$CBKPAV?$CRef@VCGraphicThing@@@@@std@@@std@@@std@@QAEXAAV?$allocator@U?$_Tree_node@U?$pair@$$CBKPAV?$CRef@VCGraphicThing@@@@@std@@PAX@std@@@1@PAU?$_Tree_node@U?$pair@$$CBKPAV?$CRef@VCGraphicThing@@@@@std@@PAX@1@@Z ; std::_Tree_val<std::_Tree_simple_types<std::pair<unsigned long const ,CRef<CGraphicThing> *> > >::_Erase_tree<std::allocator<std::_Tree_node<std::pair<unsigned long const ,CRef<CGraphicThing> *>,void *> > >
; File C:\Program Files (x86)\Microsoft Visual Studio\2019\Community\VC\Tools\MSVC\14.27.29110\include\utility

; 599  :     _Ty _Old_val = static_cast<_Ty&&>(_Val);

  0001f	8b c6		 mov	 eax, esi

; 600  :     _Val         = static_cast<_Other&&>(_New_val);

  00021	8b 36		 mov	 esi, DWORD PTR [esi]
; File C:\Program Files (x86)\Microsoft Visual Studio\2019\Community\VC\Tools\MSVC\14.27.29110\include\xmemory

; 689  :         _Deallocate<_New_alignof<value_type>>(_Ptr, sizeof(value_type) * _Count);

  00023	6a 18		 push	 24			; 00000018H
  00025	50		 push	 eax
  00026	e8 00 00 00 00	 call	 ??$_Deallocate@$07$0A@@std@@YAXPAXI@Z ; std::_Deallocate<8,0>
  0002b	83 c4 08	 add	 esp, 8
; File C:\Program Files (x86)\Microsoft Visual Studio\2019\Community\VC\Tools\MSVC\14.27.29110\include\xtree

; 743  :         while (!_Rootnode->_Isnil) { // free subtrees, then node

  0002e	80 7e 0d 00	 cmp	 BYTE PTR [esi+13], 0
  00032	74 e0		 je	 SHORT $LL2@Erase_tree
  00034	5f		 pop	 edi
$LN3@Erase_tree:
  00035	5e		 pop	 esi

; 745  :             _Alnode::value_type::_Freenode(_Al, _STD exchange(_Rootnode, _Rootnode->_Left));
; 746  :         }
; 747  :     }

  00036	5b		 pop	 ebx
  00037	5d		 pop	 ebp
  00038	c2 08 00	 ret	 8
??$_Erase_tree@V?$allocator@U?$_Tree_node@U?$pair@$$CBKPAV?$CRef@VCGraphicThing@@@@@std@@PAX@std@@@std@@@?$_Tree_val@U?$_Tree_simple_types@U?$pair@$$CBKPAV?$CRef@VCGraphicThing@@@@@std@@@std@@@std@@QAEXAAV?$allocator@U?$_Tree_node@U?$pair@$$CBKPAV?$CRef@VCGraphicThing@@@@@std@@PAX@std@@@1@PAU?$_Tree_node@U?$pair@$$CBKPAV?$CRef@VCGraphicThing@@@@@std@@PAX@1@@Z ENDP ; std::_Tree_val<std::_Tree_simple_types<std::pair<unsigned long const ,CRef<CGraphicThing> *> > >::_Erase_tree<std::allocator<std::_Tree_node<std::pair<unsigned long const ,CRef<CGraphicThing> *>,void *> > >
_TEXT	ENDS
; Function compile flags: /Ogtp
; File C:\Program Files (x86)\Microsoft Visual Studio\2019\Community\VC\Tools\MSVC\14.27.29110\include\xmemory
;	COMDAT ??1?$_Alloc_construct_ptr@V?$allocator@U?$_Tree_node@U?$pair@$$CBKPAV?$CRef@VCGraphicThing@@@@@std@@PAX@std@@@std@@@std@@QAE@XZ
_TEXT	SEGMENT
??1?$_Alloc_construct_ptr@V?$allocator@U?$_Tree_node@U?$pair@$$CBKPAV?$CRef@VCGraphicThing@@@@@std@@PAX@std@@@std@@@std@@QAE@XZ PROC ; std::_Alloc_construct_ptr<std::allocator<std::_Tree_node<std::pair<unsigned long const ,CRef<CGraphicThing> *>,void *> > >::~_Alloc_construct_ptr<std::allocator<std::_Tree_node<std::pair<unsigned long const ,CRef<CGraphicThing> *>,void *> > >, COMDAT
; _this$ = ecx

; 1052 :         if (_Ptr) {

  00000	8b 41 04	 mov	 eax, DWORD PTR [ecx+4]
  00003	85 c0		 test	 eax, eax
  00005	74 0b		 je	 SHORT $LN2@Alloc_cons

; 803  :         _Deallocate<_New_alignof<_Ty>>(_Ptr, sizeof(_Ty) * _Count);

  00007	6a 18		 push	 24			; 00000018H
  00009	50		 push	 eax
  0000a	e8 00 00 00 00	 call	 ??$_Deallocate@$07$0A@@std@@YAXPAXI@Z ; std::_Deallocate<8,0>
  0000f	83 c4 08	 add	 esp, 8
$LN2@Alloc_cons:

; 1053 :             _Al.deallocate(_Ptr, 1);
; 1054 :         }
; 1055 :     }

  00012	c3		 ret	 0
??1?$_Alloc_construct_ptr@V?$allocator@U?$_Tree_node@U?$pair@$$CBKPAV?$CRef@VCGraphicThing@@@@@std@@PAX@std@@@std@@@std@@QAE@XZ ENDP ; std::_Alloc_construct_ptr<std::allocator<std::_Tree_node<std::pair<unsigned long const ,CRef<CGraphicThing> *>,void *> > >::~_Alloc_construct_ptr<std::allocator<std::_Tree_node<std::pair<unsigned long const ,CRef<CGraphicThing> *>,void *> > >
_TEXT	ENDS
; Function compile flags: /Ogtp
; File C:\Program Files (x86)\Microsoft Visual Studio\2019\Community\VC\Tools\MSVC\14.27.29110\include\xtree
; File C:\Program Files (x86)\Microsoft Visual Studio\2019\Community\VC\Tools\MSVC\14.27.29110\include\xstddef
; File C:\Program Files (x86)\Microsoft Visual Studio\2019\Community\VC\Tools\MSVC\14.27.29110\include\xtree
; File C:\Program Files (x86)\Microsoft Visual Studio\2019\Community\VC\Tools\MSVC\14.27.29110\include\xstddef
; File C:\Program Files (x86)\Microsoft Visual Studio\2019\Community\VC\Tools\MSVC\14.27.29110\include\xtree
;	COMDAT ??$_Find_lower_bound@K@?$_Tree@V?$_Tmap_traits@KPAV?$CRef@VCGraphicThing@@@@U?$less@K@std@@V?$allocator@U?$pair@$$CBKPAV?$CRef@VCGraphicThing@@@@@std@@@3@$0A@@std@@@std@@IBE?AU?$_Tree_find_result@PAU?$_Tree_node@U?$pair@$$CBKPAV?$CRef@VCGraphicThing@@@@@std@@PAX@std@@@1@ABK@Z
_TEXT	SEGMENT
___$ReturnUdt$ = 8					; size = 4
__Keyval$ = 12						; size = 4
??$_Find_lower_bound@K@?$_Tree@V?$_Tmap_traits@KPAV?$CRef@VCGraphicThing@@@@U?$less@K@std@@V?$allocator@U?$pair@$$CBKPAV?$CRef@VCGraphicThing@@@@@std@@@3@$0A@@std@@@std@@IBE?AU?$_Tree_find_result@PAU?$_Tree_node@U?$pair@$$CBKPAV?$CRef@VCGraphicThing@@@@@std@@PAX@std@@@1@ABK@Z PROC ; std::_Tree<std::_Tmap_traits<unsigned long,CRef<CGraphicThing> *,std::less<unsigned long>,std::allocator<std::pair<unsigned long const ,CRef<CGraphicThing> *> >,0> >::_Find_lower_bound<unsigned long>, COMDAT
; _this$ = ecx

; 1699 :     _Tree_find_result<_Nodeptr> _Find_lower_bound(const _Keyty& _Keyval) const {

  00000	55		 push	 ebp
  00001	8b ec		 mov	 ebp, esp

; 1700 :         const auto _Scary = _Get_scary();
; 1701 :         _Tree_find_result<_Nodeptr> _Result{{_Scary->_Myhead->_Parent, _Tree_child::_Right}, _Scary->_Myhead};

  00003	8b 09		 mov	 ecx, DWORD PTR [ecx]
  00005	8b 55 08	 mov	 edx, DWORD PTR ___$ReturnUdt$[ebp]
  00008	8b 41 04	 mov	 eax, DWORD PTR [ecx+4]
  0000b	89 02		 mov	 DWORD PTR [edx], eax
  0000d	c7 42 04 00 00
	00 00		 mov	 DWORD PTR [edx+4], 0
  00014	89 4a 08	 mov	 DWORD PTR [edx+8], ecx

; 1702 :         _Nodeptr _Trynode = _Result._Location._Parent;
; 1703 :         while (!_Trynode->_Isnil) {

  00017	80 78 0d 00	 cmp	 BYTE PTR [eax+13], 0
  0001b	75 28		 jne	 SHORT $LN12@Find_lower
; File C:\Program Files (x86)\Microsoft Visual Studio\2019\Community\VC\Tools\MSVC\14.27.29110\include\xstddef

; 127  :         return _Left < _Right;

  0001d	8b 4d 0c	 mov	 ecx, DWORD PTR __Keyval$[ebp]
  00020	56		 push	 esi
  00021	8b 31		 mov	 esi, DWORD PTR [ecx]
$LL2@Find_lower:
; File C:\Program Files (x86)\Microsoft Visual Studio\2019\Community\VC\Tools\MSVC\14.27.29110\include\xtree

; 1704 :             _Result._Location._Parent = _Trynode;

  00023	89 02		 mov	 DWORD PTR [edx], eax
; File C:\Program Files (x86)\Microsoft Visual Studio\2019\Community\VC\Tools\MSVC\14.27.29110\include\xstddef

; 127  :         return _Left < _Right;

  00025	39 70 10	 cmp	 DWORD PTR [eax+16], esi
; File C:\Program Files (x86)\Microsoft Visual Studio\2019\Community\VC\Tools\MSVC\14.27.29110\include\xtree

; 1705 :             if (_DEBUG_LT_PRED(_Getcomp(), _Traits::_Kfn(_Trynode->_Myval), _Keyval)) {

  00028	73 07		 jae	 SHORT $LN4@Find_lower

; 1706 :                 _Result._Location._Child = _Tree_child::_Right;
; 1707 :                 _Trynode                 = _Trynode->_Right;

  0002a	8b 40 08	 mov	 eax, DWORD PTR [eax+8]
  0002d	33 c9		 xor	 ecx, ecx

; 1708 :             } else {

  0002f	eb 0a		 jmp	 SHORT $LN5@Find_lower
$LN4@Find_lower:

; 1709 :                 _Result._Location._Child = _Tree_child::_Left;
; 1710 :                 _Result._Bound           = _Trynode;

  00031	89 42 08	 mov	 DWORD PTR [edx+8], eax

; 1711 :                 _Trynode                 = _Trynode->_Left;

  00034	b9 01 00 00 00	 mov	 ecx, 1
  00039	8b 00		 mov	 eax, DWORD PTR [eax]
$LN5@Find_lower:

; 1702 :         _Nodeptr _Trynode = _Result._Location._Parent;
; 1703 :         while (!_Trynode->_Isnil) {

  0003b	89 4a 04	 mov	 DWORD PTR [edx+4], ecx
  0003e	80 78 0d 00	 cmp	 BYTE PTR [eax+13], 0
  00042	74 df		 je	 SHORT $LL2@Find_lower

; 1712 :             }
; 1713 :         }
; 1714 : 
; 1715 :         return _Result;

  00044	5e		 pop	 esi
$LN12@Find_lower:

; 1716 :     }

  00045	8b c2		 mov	 eax, edx
  00047	5d		 pop	 ebp
  00048	c2 08 00	 ret	 8
??$_Find_lower_bound@K@?$_Tree@V?$_Tmap_traits@KPAV?$CRef@VCGraphicThing@@@@U?$less@K@std@@V?$allocator@U?$pair@$$CBKPAV?$CRef@VCGraphicThing@@@@@std@@@3@$0A@@std@@@std@@IBE?AU?$_Tree_find_result@PAU?$_Tree_node@U?$pair@$$CBKPAV?$CRef@VCGraphicThing@@@@@std@@PAX@std@@@1@ABK@Z ENDP ; std::_Tree<std::_Tmap_traits<unsigned long,CRef<CGraphicThing> *,std::less<unsigned long>,std::allocator<std::pair<unsigned long const ,CRef<CGraphicThing> *> >,0> >::_Find_lower_bound<unsigned long>
_TEXT	ENDS
; Function compile flags: /Ogtp
; File C:\Program Files (x86)\Microsoft Visual Studio\2019\Community\VC\Tools\MSVC\14.27.29110\include\xmemory
;	COMDAT ??$_Uninitialized_move@PAPAVCGraphicThingInstance@@V?$allocator@PAVCGraphicThingInstance@@@std@@@std@@YAPAPAVCGraphicThingInstance@@QAPAV1@0PAPAV1@AAV?$allocator@PAVCGraphicThingInstance@@@0@@Z
_TEXT	SEGMENT
__First$ = 8						; size = 4
__Last$ = 12						; size = 4
__Dest$ = 16						; size = 4
__Al$ = 20						; size = 4
??$_Uninitialized_move@PAPAVCGraphicThingInstance@@V?$allocator@PAVCGraphicThingInstance@@@std@@@std@@YAPAPAVCGraphicThingInstance@@QAPAV1@0PAPAV1@AAV?$allocator@PAVCGraphicThingInstance@@@0@@Z PROC ; std::_Uninitialized_move<CGraphicThingInstance * *,std::allocator<CGraphicThingInstance *> >, COMDAT

; 1647 :     const _InIt _First, const _InIt _Last, _Alloc_ptr_t<_Alloc> _Dest, _Alloc& _Al) {

  00000	55		 push	 ebp
  00001	8b ec		 mov	 ebp, esp
  00003	53		 push	 ebx

; 1648 :     // move [_First, _Last) to raw _Dest, using _Al
; 1649 :     // note: only called internally from elsewhere in the STL
; 1650 :     using _Ptrval     = typename _Alloc::value_type*;
; 1651 :     auto _UFirst      = _Get_unwrapped(_First);
; 1652 :     const auto _ULast = _Get_unwrapped(_Last);
; 1653 :     if constexpr (conjunction_v<bool_constant<_Ptr_move_cat<decltype(_UFirst), _Ptrval>::_Really_trivial>,
; 1654 :                       _Uses_default_construct<_Alloc, _Ptrval, decltype(_STD move(*_UFirst))>>) {
; 1655 :         _Copy_memmove(_UFirst, _ULast, _Unfancy(_Dest));

  00004	8b 5d 10	 mov	 ebx, DWORD PTR __Dest$[ebp]
  00007	57		 push	 edi
  00008	8b 7d 0c	 mov	 edi, DWORD PTR __Last$[ebp]
  0000b	53		 push	 ebx
  0000c	57		 push	 edi
  0000d	ff 75 08	 push	 DWORD PTR __First$[ebp]
  00010	e8 00 00 00 00	 call	 ??$_Copy_memmove@PAPAVCGraphicThingInstance@@PAPAV1@@std@@YAPAPAVCGraphicThingInstance@@PAPAV1@00@Z ; std::_Copy_memmove<CGraphicThingInstance * *,CGraphicThingInstance * *>

; 1656 :         return _Dest + (_ULast - _UFirst);

  00015	2b 7d 08	 sub	 edi, DWORD PTR __First$[ebp]
  00018	83 c4 0c	 add	 esp, 12			; 0000000cH
  0001b	c1 ff 02	 sar	 edi, 2
  0001e	8d 04 bb	 lea	 eax, DWORD PTR [ebx+edi*4]
  00021	5f		 pop	 edi
  00022	5b		 pop	 ebx

; 1657 :     } else {
; 1658 :         _Uninitialized_backout_al<_Alloc> _Backout{_Dest, _Al};
; 1659 :         for (; _UFirst != _ULast; ++_UFirst) {
; 1660 :             _Backout._Emplace_back(_STD move(*_UFirst));
; 1661 :         }
; 1662 : 
; 1663 :         return _Backout._Release();
; 1664 :     }
; 1665 : }

  00023	5d		 pop	 ebp
  00024	c3		 ret	 0
??$_Uninitialized_move@PAPAVCGraphicThingInstance@@V?$allocator@PAVCGraphicThingInstance@@@std@@@std@@YAPAPAVCGraphicThingInstance@@QAPAV1@0PAPAV1@AAV?$allocator@PAVCGraphicThingInstance@@@0@@Z ENDP ; std::_Uninitialized_move<CGraphicThingInstance * *,std::allocator<CGraphicThingInstance *> >
_TEXT	ENDS
; Function compile flags: /Ogtp
; File C:\Program Files (x86)\Microsoft Visual Studio\2019\Community\VC\Tools\MSVC\14.27.29110\include\xmemory
;	COMDAT ??$_Allocate@$07U_Default_allocate_traits@std@@$0A@@std@@YAPAXI@Z
_TEXT	SEGMENT
__Bytes$ = 8						; size = 4
??$_Allocate@$07U_Default_allocate_traits@std@@$0A@@std@@YAPAXI@Z PROC ; std::_Allocate<8,std::_Default_allocate_traits,0>, COMDAT

; 197  : __declspec(allocator) void* _Allocate(const size_t _Bytes) {

  00000	55		 push	 ebp
  00001	8b ec		 mov	 ebp, esp

; 198  :     // allocate _Bytes when !_HAS_ALIGNED_NEW || _Align <= __STDCPP_DEFAULT_NEW_ALIGNMENT__
; 199  : #if defined(_M_IX86) || defined(_M_X64)
; 200  :     if (_Bytes >= _Big_allocation_threshold) { // boost the alignment of big allocations to help autovectorization

  00003	8b 45 08	 mov	 eax, DWORD PTR __Bytes$[ebp]
  00006	3d 00 10 00 00	 cmp	 eax, 4096		; 00001000H
  0000b	72 09		 jb	 SHORT $LN2@Allocate

; 201  :         return _Allocate_manually_vector_aligned<_Traits>(_Bytes);

  0000d	89 45 08	 mov	 DWORD PTR __Bytes$[ebp], eax

; 210  : }

  00010	5d		 pop	 ebp

; 201  :         return _Allocate_manually_vector_aligned<_Traits>(_Bytes);

  00011	e9 00 00 00 00	 jmp	 ??$_Allocate_manually_vector_aligned@U_Default_allocate_traits@std@@@std@@YAPAXI@Z ; std::_Allocate_manually_vector_aligned<std::_Default_allocate_traits>
$LN2@Allocate:

; 202  :     }
; 203  : #endif // defined(_M_IX86) || defined(_M_X64)
; 204  : 
; 205  :     if (_Bytes != 0) {

  00016	85 c0		 test	 eax, eax
  00018	74 09		 je	 SHORT $LN3@Allocate

; 77   :         return ::operator new(_Bytes);

  0001a	89 45 08	 mov	 DWORD PTR __Bytes$[ebp], eax

; 210  : }

  0001d	5d		 pop	 ebp

; 77   :         return ::operator new(_Bytes);

  0001e	e9 00 00 00 00	 jmp	 ??2@YAPAXI@Z		; operator new
$LN3@Allocate:

; 206  :         return _Traits::_Allocate(_Bytes);
; 207  :     }
; 208  : 
; 209  :     return nullptr;

  00023	33 c0		 xor	 eax, eax

; 210  : }

  00025	5d		 pop	 ebp
  00026	c3		 ret	 0
??$_Allocate@$07U_Default_allocate_traits@std@@$0A@@std@@YAPAXI@Z ENDP ; std::_Allocate<8,std::_Default_allocate_traits,0>
_TEXT	ENDS
; Function compile flags: /Ogtp
; File C:\Program Files (x86)\Microsoft Visual Studio\2019\Community\VC\Tools\MSVC\14.27.29110\include\xmemory
;	COMDAT ??$_Destroy_range@V?$allocator@PAVCGrannyLODController@@@std@@@std@@YAXPAPAVCGrannyLODController@@QAPAV1@AAV?$allocator@PAVCGrannyLODController@@@0@@Z
_TEXT	SEGMENT
__First$ = 8						; size = 4
__Last$ = 12						; size = 4
__Al$ = 16						; size = 4
??$_Destroy_range@V?$allocator@PAVCGrannyLODController@@@std@@@std@@YAXPAPAVCGrannyLODController@@QAPAV1@AAV?$allocator@PAVCGrannyLODController@@@0@@Z PROC ; std::_Destroy_range<std::allocator<CGrannyLODController *> >, COMDAT

; 956  :     // note that this is an optimization for debug mode codegen; in release mode the BE removes all of this
; 957  :     using _Ty = typename _Alloc::value_type;
; 958  :     if _CONSTEXPR_IF (!conjunction_v<is_trivially_destructible<_Ty>, _Uses_default_destroy<_Alloc, _Ty*>>) {
; 959  :         for (; _First != _Last; ++_First) {
; 960  :             allocator_traits<_Alloc>::destroy(_Al, _Unfancy(_First));
; 961  :         }
; 962  :     }
; 963  : }

  00000	c2 00 00	 ret	 0
??$_Destroy_range@V?$allocator@PAVCGrannyLODController@@@std@@@std@@YAXPAPAVCGrannyLODController@@QAPAV1@AAV?$allocator@PAVCGrannyLODController@@@0@@Z ENDP ; std::_Destroy_range<std::allocator<CGrannyLODController *> >
_TEXT	ENDS
; Function compile flags: /Ogtp
; File C:\Program Files (x86)\Microsoft Visual Studio\2019\Community\VC\Tools\MSVC\14.27.29110\include\xmemory
;	COMDAT ??$_Deallocate@$07$0A@@std@@YAXPAXI@Z
_TEXT	SEGMENT
__Ptr$ = 8						; size = 4
__Bytes$ = 12						; size = 4
??$_Deallocate@$07$0A@@std@@YAXPAXI@Z PROC		; std::_Deallocate<8,0>, COMDAT

; 213  : void _Deallocate(void* _Ptr, size_t _Bytes) noexcept {

  00000	55		 push	 ebp
  00001	8b ec		 mov	 ebp, esp

; 214  :     // deallocate storage allocated by _Allocate when !_HAS_ALIGNED_NEW || _Align <= __STDCPP_DEFAULT_NEW_ALIGNMENT__
; 215  : #if defined(_M_IX86) || defined(_M_X64)
; 216  :     if (_Bytes >= _Big_allocation_threshold) { // boost the alignment of big allocations to help autovectorization

  00003	8b 4d 0c	 mov	 ecx, DWORD PTR __Bytes$[ebp]
  00006	81 f9 00 10 00
	00		 cmp	 ecx, 4096		; 00001000H
  0000c	72 18		 jb	 SHORT $LN15@Deallocate

; 137  :     const uintptr_t _Ptr_container   = _Ptr_user[-1];

  0000e	8b 45 08	 mov	 eax, DWORD PTR __Ptr$[ebp]
  00011	83 c1 23	 add	 ecx, 35			; 00000023H
  00014	8b 50 fc	 mov	 edx, DWORD PTR [eax-4]

; 138  : 
; 139  :     // If the following asserts, it likely means that we are performing
; 140  :     // an aligned delete on memory coming from an unaligned allocation.
; 141  :     _STL_ASSERT(_Ptr_user[-2] == _Big_allocation_sentinel, "invalid argument");
; 142  : 
; 143  :     // Extra paranoia on aligned allocation/deallocation; ensure _Ptr_container is
; 144  :     // in range [_Min_back_shift, _Non_user_size]
; 145  : #ifdef _DEBUG
; 146  :     constexpr uintptr_t _Min_back_shift = 2 * sizeof(void*);
; 147  : #else // ^^^ _DEBUG ^^^ // vvv !_DEBUG vvv
; 148  :     constexpr uintptr_t _Min_back_shift = sizeof(void*);
; 149  : #endif // _DEBUG
; 150  :     const uintptr_t _Back_shift = reinterpret_cast<uintptr_t>(_Ptr) - _Ptr_container;

  00017	2b c2		 sub	 eax, edx

; 151  :     _STL_VERIFY(_Back_shift >= _Min_back_shift && _Back_shift <= _Non_user_size, "invalid argument");

  00019	83 c0 fc	 add	 eax, -4			; fffffffcH
  0001c	83 f8 1f	 cmp	 eax, 31			; 0000001fH
  0001f	76 08		 jbe	 SHORT $LN13@Deallocate
  00021	e9 00 00 00 00	 jmp	 __invalid_parameter_noinfo_noreturn
$LN15@Deallocate:

; 214  :     // deallocate storage allocated by _Allocate when !_HAS_ALIGNED_NEW || _Align <= __STDCPP_DEFAULT_NEW_ALIGNMENT__
; 215  : #if defined(_M_IX86) || defined(_M_X64)
; 216  :     if (_Bytes >= _Big_allocation_threshold) { // boost the alignment of big allocations to help autovectorization

  00026	8b 55 08	 mov	 edx, DWORD PTR __Ptr$[ebp]
$LN13@Deallocate:

; 217  :         _Adjust_manually_vector_aligned(_Ptr, _Bytes);
; 218  :     }
; 219  : #endif // defined(_M_IX86) || defined(_M_X64)
; 220  : 
; 221  :     ::operator delete(_Ptr, _Bytes);

  00029	89 4d 0c	 mov	 DWORD PTR __Bytes$[ebp], ecx
  0002c	89 55 08	 mov	 DWORD PTR __Ptr$[ebp], edx

; 222  : }

  0002f	5d		 pop	 ebp

; 217  :         _Adjust_manually_vector_aligned(_Ptr, _Bytes);
; 218  :     }
; 219  : #endif // defined(_M_IX86) || defined(_M_X64)
; 220  : 
; 221  :     ::operator delete(_Ptr, _Bytes);

  00030	e9 00 00 00 00	 jmp	 ??3@YAXPAXI@Z		; operator delete
??$_Deallocate@$07$0A@@std@@YAXPAXI@Z ENDP		; std::_Deallocate<8,0>
_TEXT	ENDS
; Function compile flags: /Ogtp
; File C:\Program Files (x86)\Microsoft Visual Studio\2019\Community\VC\Tools\MSVC\14.27.29110\include\xmemory
; File C:\Program Files (x86)\Microsoft Visual Studio\2019\Community\VC\Tools\MSVC\14.27.29110\include\vector
; File C:\Program Files (x86)\Microsoft Visual Studio\2019\Community\VC\Tools\MSVC\14.27.29110\include\xmemory
; File C:\Program Files (x86)\Microsoft Visual Studio\2019\Community\VC\Tools\MSVC\14.27.29110\include\vector
; File C:\Program Files (x86)\Microsoft Visual Studio\2019\Community\VC\Tools\MSVC\14.27.29110\include\xmemory
; File C:\Program Files (x86)\Microsoft Visual Studio\2019\Community\VC\Tools\MSVC\14.27.29110\include\vector
; File C:\Program Files (x86)\Microsoft Visual Studio\2019\Community\VC\Tools\MSVC\14.27.29110\include\xmemory
;	COMDAT ??$_Destroy_range@V?$allocator@USModelThingSet@CGraphicThingInstance@@@std@@@std@@YAXPAUSModelThingSet@CGraphicThingInstance@@QAU12@AAV?$allocator@USModelThingSet@CGraphicThingInstance@@@0@@Z
_TEXT	SEGMENT
__First$ = 8						; size = 4
__Last$ = 12						; size = 4
__Al$ = 16						; size = 4
??$_Destroy_range@V?$allocator@USModelThingSet@CGraphicThingInstance@@@std@@@std@@YAXPAUSModelThingSet@CGraphicThingInstance@@QAU12@AAV?$allocator@USModelThingSet@CGraphicThingInstance@@@0@@Z PROC ; std::_Destroy_range<std::allocator<CGraphicThingInstance::SModelThingSet> >, COMDAT

; 955  : void _Destroy_range(_Alloc_ptr_t<_Alloc> _First, const _Alloc_ptr_t<_Alloc> _Last, _Alloc& _Al) noexcept {

  00000	55		 push	 ebp
  00001	8b ec		 mov	 ebp, esp
  00003	56		 push	 esi

; 959  :         for (; _First != _Last; ++_First) {

  00004	8b 75 08	 mov	 esi, DWORD PTR __First$[ebp]
  00007	57		 push	 edi
  00008	8b 7d 0c	 mov	 edi, DWORD PTR __Last$[ebp]
  0000b	3b f7		 cmp	 esi, edi
  0000d	74 34		 je	 SHORT $LN3@Destroy_ra
  0000f	90		 npad	 1
$LL4@Destroy_ra:
; File C:\Program Files (x86)\Microsoft Visual Studio\2019\Community\VC\Tools\MSVC\14.27.29110\include\vector

; 1693 :         if (_Myfirst) { // destroy and deallocate old array

  00010	8b 0e		 mov	 ecx, DWORD PTR [esi]
  00012	85 c9		 test	 ecx, ecx
  00014	74 26		 je	 SHORT $LN17@Destroy_ra

; 1694 :             _Destroy(_Myfirst, _Mylast);
; 1695 :             _Getal().deallocate(_Myfirst, static_cast<size_type>(_Myend - _Myfirst));

  00016	8b 46 08	 mov	 eax, DWORD PTR [esi+8]
  00019	2b c1		 sub	 eax, ecx
; File C:\Program Files (x86)\Microsoft Visual Studio\2019\Community\VC\Tools\MSVC\14.27.29110\include\xmemory

; 803  :         _Deallocate<_New_alignof<_Ty>>(_Ptr, sizeof(_Ty) * _Count);

  0001b	83 e0 fc	 and	 eax, -4			; fffffffcH
  0001e	50		 push	 eax
  0001f	51		 push	 ecx
  00020	e8 00 00 00 00	 call	 ??$_Deallocate@$07$0A@@std@@YAXPAXI@Z ; std::_Deallocate<8,0>
; File C:\Program Files (x86)\Microsoft Visual Studio\2019\Community\VC\Tools\MSVC\14.27.29110\include\vector

; 1697 :             _Myfirst = pointer();

  00025	c7 06 00 00 00
	00		 mov	 DWORD PTR [esi], 0
; File C:\Program Files (x86)\Microsoft Visual Studio\2019\Community\VC\Tools\MSVC\14.27.29110\include\xmemory

; 803  :         _Deallocate<_New_alignof<_Ty>>(_Ptr, sizeof(_Ty) * _Count);

  0002b	83 c4 08	 add	 esp, 8
; File C:\Program Files (x86)\Microsoft Visual Studio\2019\Community\VC\Tools\MSVC\14.27.29110\include\vector

; 1698 :             _Mylast  = pointer();

  0002e	c7 46 04 00 00
	00 00		 mov	 DWORD PTR [esi+4], 0

; 1699 :             _Myend   = pointer();

  00035	c7 46 08 00 00
	00 00		 mov	 DWORD PTR [esi+8], 0
$LN17@Destroy_ra:
; File C:\Program Files (x86)\Microsoft Visual Studio\2019\Community\VC\Tools\MSVC\14.27.29110\include\xmemory

; 959  :         for (; _First != _Last; ++_First) {

  0003c	83 c6 0c	 add	 esi, 12			; 0000000cH
  0003f	3b f7		 cmp	 esi, edi
  00041	75 cd		 jne	 SHORT $LL4@Destroy_ra
$LN3@Destroy_ra:
  00043	5f		 pop	 edi

; 960  :             allocator_traits<_Alloc>::destroy(_Al, _Unfancy(_First));
; 961  :         }
; 962  :     }
; 963  : }

  00044	5e		 pop	 esi
  00045	5d		 pop	 ebp
  00046	c3		 ret	 0
??$_Destroy_range@V?$allocator@USModelThingSet@CGraphicThingInstance@@@std@@@std@@YAXPAUSModelThingSet@CGraphicThingInstance@@QAU12@AAV?$allocator@USModelThingSet@CGraphicThingInstance@@@0@@Z ENDP ; std::_Destroy_range<std::allocator<CGraphicThingInstance::SModelThingSet> >
_TEXT	ENDS
; Function compile flags: /Ogtp
; File C:\Program Files (x86)\Microsoft Visual Studio\2019\Community\VC\Tools\MSVC\14.27.29110\include\xmemory
;	COMDAT ??$_Destroy_range@V?$allocator@PAVCGraphicThingInstance@@@std@@@std@@YAXPAPAVCGraphicThingInstance@@QAPAV1@AAV?$allocator@PAVCGraphicThingInstance@@@0@@Z
_TEXT	SEGMENT
__First$ = 8						; size = 4
__Last$ = 12						; size = 4
__Al$ = 16						; size = 4
??$_Destroy_range@V?$allocator@PAVCGraphicThingInstance@@@std@@@std@@YAXPAPAVCGraphicThingInstance@@QAPAV1@AAV?$allocator@PAVCGraphicThingInstance@@@0@@Z PROC ; std::_Destroy_range<std::allocator<CGraphicThingInstance *> >, COMDAT

; 956  :     // note that this is an optimization for debug mode codegen; in release mode the BE removes all of this
; 957  :     using _Ty = typename _Alloc::value_type;
; 958  :     if _CONSTEXPR_IF (!conjunction_v<is_trivially_destructible<_Ty>, _Uses_default_destroy<_Alloc, _Ty*>>) {
; 959  :         for (; _First != _Last; ++_First) {
; 960  :             allocator_traits<_Alloc>::destroy(_Al, _Unfancy(_First));
; 961  :         }
; 962  :     }
; 963  : }

  00000	c2 00 00	 ret	 0
??$_Destroy_range@V?$allocator@PAVCGraphicThingInstance@@@std@@@std@@YAXPAPAVCGraphicThingInstance@@QAPAV1@AAV?$allocator@PAVCGraphicThingInstance@@@0@@Z ENDP ; std::_Destroy_range<std::allocator<CGraphicThingInstance *> >
_TEXT	ENDS
; Function compile flags: /Ogtp
; File C:\Program Files (x86)\Microsoft Visual Studio\2019\Community\VC\Tools\MSVC\14.27.29110\include\vector
; File C:\Program Files (x86)\Microsoft Visual Studio\2019\Community\VC\Tools\MSVC\14.27.29110\include\xmemory
; File C:\Program Files (x86)\Microsoft Visual Studio\2019\Community\VC\Tools\MSVC\14.27.29110\include\vector
; File C:\Program Files (x86)\Microsoft Visual Studio\2019\Community\VC\Tools\MSVC\14.27.29110\include\xmemory
; File C:\Program Files (x86)\Microsoft Visual Studio\2019\Community\VC\Tools\MSVC\14.27.29110\include\vector
; File C:\Program Files (x86)\Microsoft Visual Studio\2019\Community\VC\Tools\MSVC\14.27.29110\include\xmemory
; File C:\Program Files (x86)\Microsoft Visual Studio\2019\Community\VC\Tools\MSVC\14.27.29110\include\vector
; File C:\Program Files (x86)\Microsoft Visual Studio\2019\Community\VC\Tools\MSVC\14.27.29110\include\xmemory
; File C:\Program Files (x86)\Microsoft Visual Studio\2019\Community\VC\Tools\MSVC\14.27.29110\include\vector
; File C:\Program Files (x86)\Microsoft Visual Studio\2019\Community\VC\Tools\MSVC\14.27.29110\include\xmemory
; File C:\Program Files (x86)\Microsoft Visual Studio\2019\Community\VC\Tools\MSVC\14.27.29110\include\vector
;	COMDAT ??$_Emplace_reallocate@ABQAVCGraphicThingInstance@@@?$vector@PAVCGraphicThingInstance@@V?$allocator@PAVCGraphicThingInstance@@@std@@@std@@QAEPAPAVCGraphicThingInstance@@QAPAV2@ABQAV2@@Z
_TEXT	SEGMENT
tv436 = -12						; size = 4
__Newsize$1$ = -8					; size = 4
tv435 = -4						; size = 4
__Whereptr$ = 8						; size = 4
_<_Val_0>$ = 12						; size = 4
??$_Emplace_reallocate@ABQAVCGraphicThingInstance@@@?$vector@PAVCGraphicThingInstance@@V?$allocator@PAVCGraphicThingInstance@@@std@@@std@@QAEPAPAVCGraphicThingInstance@@QAPAV2@ABQAV2@@Z PROC ; std::vector<CGraphicThingInstance *,std::allocator<CGraphicThingInstance *> >::_Emplace_reallocate<CGraphicThingInstance * const &>, COMDAT
; _this$ = ecx

; 725  :     pointer _Emplace_reallocate(const pointer _Whereptr, _Valty&&... _Val) {

  00000	55		 push	 ebp
  00001	8b ec		 mov	 ebp, esp
  00003	83 ec 0c	 sub	 esp, 12			; 0000000cH
  00006	53		 push	 ebx

; 726  :         // reallocate and insert by perfectly forwarding _Val at _Whereptr
; 727  :         _Alty& _Al        = _Getal();
; 728  :         auto& _My_data    = _Mypair._Myval2;
; 729  :         pointer& _Myfirst = _My_data._Myfirst;
; 730  :         pointer& _Mylast  = _My_data._Mylast;
; 731  : 
; 732  :         _STL_INTERNAL_CHECK(_Mylast == _My_data._Myend); // check that we have no unused capacity
; 733  : 
; 734  :         const auto _Whereoff = static_cast<size_type>(_Whereptr - _Myfirst);

  00007	8b 5d 08	 mov	 ebx, DWORD PTR __Whereptr$[ebp]
  0000a	56		 push	 esi
  0000b	8b f1		 mov	 esi, ecx
  0000d	57		 push	 edi
  0000e	8b 16		 mov	 edx, DWORD PTR [esi]
  00010	2b da		 sub	 ebx, edx

; 735  :         const auto _Oldsize  = static_cast<size_type>(_Mylast - _Myfirst);

  00012	8b 46 04	 mov	 eax, DWORD PTR [esi+4]
  00015	2b c2		 sub	 eax, edx
  00017	c1 fb 02	 sar	 ebx, 2
  0001a	c1 f8 02	 sar	 eax, 2

; 736  : 
; 737  :         if (_Oldsize == max_size()) {

  0001d	3d ff ff ff 3f	 cmp	 eax, 1073741823		; 3fffffffH
  00022	0f 84 be 00 00
	00		 je	 $LN39@Emplace_re

; 1494 :         return static_cast<size_type>(_My_data._Myend - _My_data._Myfirst);

  00028	8b 4e 08	 mov	 ecx, DWORD PTR [esi+8]

; 739  :         }
; 740  : 
; 741  :         const size_type _Newsize     = _Oldsize + 1;

  0002b	8d 78 01	 lea	 edi, DWORD PTR [eax+1]

; 1494 :         return static_cast<size_type>(_My_data._Myend - _My_data._Myfirst);

  0002e	2b ca		 sub	 ecx, edx

; 739  :         }
; 740  : 
; 741  :         const size_type _Newsize     = _Oldsize + 1;

  00030	89 7d f8	 mov	 DWORD PTR __Newsize$1$[ebp], edi

; 1494 :         return static_cast<size_type>(_My_data._Myend - _My_data._Myfirst);

  00033	c1 f9 02	 sar	 ecx, 2

; 1619 :         if (_Oldcapacity > max_size() - _Oldcapacity / 2) {

  00036	b8 ff ff ff 3f	 mov	 eax, 1073741823		; 3fffffffH
  0003b	8b d1		 mov	 edx, ecx
  0003d	d1 ea		 shr	 edx, 1
  0003f	2b c2		 sub	 eax, edx
  00041	3b c8		 cmp	 ecx, eax
  00043	76 04		 jbe	 SHORT $LN12@Emplace_re

; 1620 :             return _Newsize; // geometric growth would overflow

  00045	8b c7		 mov	 eax, edi
  00047	eb 08		 jmp	 SHORT $LN13@Emplace_re
$LN12@Emplace_re:

; 1621 :         }
; 1622 : 
; 1623 :         const size_type _Geometric = _Oldcapacity + _Oldcapacity / 2;

  00049	8d 04 0a	 lea	 eax, DWORD PTR [edx+ecx]

; 1624 : 
; 1625 :         if (_Geometric < _Newsize) {

  0004c	3b c7		 cmp	 eax, edi
  0004e	0f 42 c7	 cmovb	 eax, edi
$LN13@Emplace_re:
; File C:\Program Files (x86)\Microsoft Visual Studio\2019\Community\VC\Tools\MSVC\14.27.29110\include\xmemory

; 60   :         if (_Count > _Max_possible) {

  00051	3d ff ff ff 3f	 cmp	 eax, 1073741823		; 3fffffffH
  00056	0f 87 8f 00 00
	00		 ja	 $LN40@Emplace_re

; 62   :         }
; 63   :     }
; 64   : 
; 65   :     return _Count * _Ty_size;

  0005c	c1 e0 02	 shl	 eax, 2

; 807  :         return static_cast<_Ty*>(_Allocate<_New_alignof<_Ty>>(_Get_size_of_n<sizeof(_Ty)>(_Count)));

  0005f	50		 push	 eax

; 65   :     return _Count * _Ty_size;

  00060	89 45 f4	 mov	 DWORD PTR tv436[ebp], eax

; 807  :         return static_cast<_Ty*>(_Allocate<_New_alignof<_Ty>>(_Get_size_of_n<sizeof(_Ty)>(_Count)));

  00063	e8 00 00 00 00	 call	 ??$_Allocate@$07U_Default_allocate_traits@std@@$0A@@std@@YAPAXI@Z ; std::_Allocate<8,std::_Default_allocate_traits,0>
; File C:\Program Files (x86)\Microsoft Visual Studio\2019\Community\VC\Tools\MSVC\14.27.29110\include\vector

; 749  :         _Alty_traits::construct(_Al, _Unfancy(_Newvec + _Whereoff), _STD forward<_Valty>(_Val)...);

  00068	8b 4d 0c	 mov	 ecx, DWORD PTR _<_Val_0>$[ebp]
; File C:\Program Files (x86)\Microsoft Visual Studio\2019\Community\VC\Tools\MSVC\14.27.29110\include\xmemory

; 807  :         return static_cast<_Ty*>(_Allocate<_New_alignof<_Ty>>(_Get_size_of_n<sizeof(_Ty)>(_Count)));

  0006b	8b f8		 mov	 edi, eax
; File C:\Program Files (x86)\Microsoft Visual Studio\2019\Community\VC\Tools\MSVC\14.27.29110\include\vector

; 749  :         _Alty_traits::construct(_Al, _Unfancy(_Newvec + _Whereoff), _STD forward<_Valty>(_Val)...);

  0006d	8d 04 9f	 lea	 eax, DWORD PTR [edi+ebx*4]
; File C:\Program Files (x86)\Microsoft Visual Studio\2019\Community\VC\Tools\MSVC\14.27.29110\include\xmemory

; 807  :         return static_cast<_Ty*>(_Allocate<_New_alignof<_Ty>>(_Get_size_of_n<sizeof(_Ty)>(_Count)));

  00070	83 c4 04	 add	 esp, 4
; File C:\Program Files (x86)\Microsoft Visual Studio\2019\Community\VC\Tools\MSVC\14.27.29110\include\vector

; 752  :         if (_Whereptr == _Mylast) { // at back, provide strong guarantee

  00073	8b 5d 08	 mov	 ebx, DWORD PTR __Whereptr$[ebp]
  00076	89 45 fc	 mov	 DWORD PTR tv435[ebp], eax
  00079	8b 09		 mov	 ecx, DWORD PTR [ecx]
  0007b	89 08		 mov	 DWORD PTR [eax], ecx
  0007d	8b 56 04	 mov	 edx, DWORD PTR [esi+4]
  00080	8b 0e		 mov	 ecx, DWORD PTR [esi]
  00082	3b da		 cmp	 ebx, edx
  00084	75 07		 jne	 SHORT $LN4@Emplace_re

; 753  :             _Umove_if_noexcept(_Myfirst, _Mylast, _Newvec);
; 754  :         } else { // provide basic guarantee

  00086	8b 5d fc	 mov	 ebx, DWORD PTR tv435[ebp]

; 1597 :         _Uninitialized_move(_First, _Last, _Dest, _Getal());

  00089	8b c7		 mov	 eax, edi

; 753  :             _Umove_if_noexcept(_Myfirst, _Mylast, _Newvec);
; 754  :         } else { // provide basic guarantee

  0008b	eb 17		 jmp	 SHORT $LN5@Emplace_re
$LN4@Emplace_re:

; 1592 :         return _Uninitialized_move(_First, _Last, _Dest, _Getal());

  0008d	56		 push	 esi
  0008e	57		 push	 edi
  0008f	53		 push	 ebx
  00090	51		 push	 ecx
  00091	e8 00 00 00 00	 call	 ??$_Uninitialized_move@PAPAVCGraphicThingInstance@@V?$allocator@PAVCGraphicThingInstance@@@std@@@std@@YAPAPAVCGraphicThingInstance@@QAPAV1@0PAPAV1@AAV?$allocator@PAVCGraphicThingInstance@@@0@@Z ; std::_Uninitialized_move<CGraphicThingInstance * *,std::allocator<CGraphicThingInstance *> >
  00096	8b 56 04	 mov	 edx, DWORD PTR [esi+4]
  00099	8b cb		 mov	 ecx, ebx

; 755  :             _Umove(_Myfirst, _Whereptr, _Newvec);
; 756  :             _Constructed_first = _Newvec;
; 757  :             _Umove(_Whereptr, _Mylast, _Newvec + _Whereoff + 1);

  0009b	8b 5d fc	 mov	 ebx, DWORD PTR tv435[ebp]

; 1592 :         return _Uninitialized_move(_First, _Last, _Dest, _Getal());

  0009e	83 c4 10	 add	 esp, 16			; 00000010H

; 755  :             _Umove(_Myfirst, _Whereptr, _Newvec);
; 756  :             _Constructed_first = _Newvec;
; 757  :             _Umove(_Whereptr, _Mylast, _Newvec + _Whereoff + 1);

  000a1	8d 43 04	 lea	 eax, DWORD PTR [ebx+4]
$LN5@Emplace_re:
  000a4	56		 push	 esi
  000a5	50		 push	 eax
  000a6	52		 push	 edx
  000a7	51		 push	 ecx
  000a8	e8 00 00 00 00	 call	 ??$_Uninitialized_move@PAPAVCGraphicThingInstance@@V?$allocator@PAVCGraphicThingInstance@@@std@@@std@@YAPAPAVCGraphicThingInstance@@QAPAV1@0PAPAV1@AAV?$allocator@PAVCGraphicThingInstance@@@0@@Z ; std::_Uninitialized_move<CGraphicThingInstance * *,std::allocator<CGraphicThingInstance *> >

; 1675 :         if (_Myfirst) { // destroy and deallocate old array

  000ad	8b 0e		 mov	 ecx, DWORD PTR [esi]

; 755  :             _Umove(_Myfirst, _Whereptr, _Newvec);
; 756  :             _Constructed_first = _Newvec;
; 757  :             _Umove(_Whereptr, _Mylast, _Newvec + _Whereoff + 1);

  000af	83 c4 10	 add	 esp, 16			; 00000010H

; 1675 :         if (_Myfirst) { // destroy and deallocate old array

  000b2	85 c9		 test	 ecx, ecx
  000b4	74 12		 je	 SHORT $LN33@Emplace_re

; 1676 :             _Destroy(_Myfirst, _Mylast);
; 1677 :             _Getal().deallocate(_Myfirst, static_cast<size_type>(_Myend - _Myfirst));

  000b6	8b 46 08	 mov	 eax, DWORD PTR [esi+8]
  000b9	2b c1		 sub	 eax, ecx
; File C:\Program Files (x86)\Microsoft Visual Studio\2019\Community\VC\Tools\MSVC\14.27.29110\include\xmemory

; 803  :         _Deallocate<_New_alignof<_Ty>>(_Ptr, sizeof(_Ty) * _Count);

  000bb	83 e0 fc	 and	 eax, -4			; fffffffcH
  000be	50		 push	 eax
  000bf	51		 push	 ecx
  000c0	e8 00 00 00 00	 call	 ??$_Deallocate@$07$0A@@std@@YAXPAXI@Z ; std::_Deallocate<8,0>
  000c5	83 c4 08	 add	 esp, 8
$LN33@Emplace_re:
; File C:\Program Files (x86)\Microsoft Visual Studio\2019\Community\VC\Tools\MSVC\14.27.29110\include\vector

; 1681 :         _Mylast  = _Newvec + _Newsize;

  000c8	8b 4d f8	 mov	 ecx, DWORD PTR __Newsize$1$[ebp]

; 758  :         }
; 759  :         _CATCH_ALL
; 760  :         _Destroy(_Constructed_first, _Constructed_last);
; 761  :         _Al.deallocate(_Newvec, _Newcapacity);
; 762  :         _RERAISE;
; 763  :         _CATCH_END
; 764  : 
; 765  :         _Change_array(_Newvec, _Newsize, _Newcapacity);
; 766  :         return _Newvec + _Whereoff;

  000cb	8b c3		 mov	 eax, ebx

; 1680 :         _Myfirst = _Newvec;

  000cd	89 3e		 mov	 DWORD PTR [esi], edi

; 1681 :         _Mylast  = _Newvec + _Newsize;

  000cf	8d 0c 8f	 lea	 ecx, DWORD PTR [edi+ecx*4]
  000d2	89 4e 04	 mov	 DWORD PTR [esi+4], ecx

; 1682 :         _Myend   = _Newvec + _Newcapacity;

  000d5	8b 4d f4	 mov	 ecx, DWORD PTR tv436[ebp]
  000d8	03 cf		 add	 ecx, edi

; 758  :         }
; 759  :         _CATCH_ALL
; 760  :         _Destroy(_Constructed_first, _Constructed_last);
; 761  :         _Al.deallocate(_Newvec, _Newcapacity);
; 762  :         _RERAISE;
; 763  :         _CATCH_END
; 764  : 
; 765  :         _Change_array(_Newvec, _Newsize, _Newcapacity);
; 766  :         return _Newvec + _Whereoff;

  000da	5f		 pop	 edi

; 1682 :         _Myend   = _Newvec + _Newcapacity;

  000db	89 4e 08	 mov	 DWORD PTR [esi+8], ecx

; 758  :         }
; 759  :         _CATCH_ALL
; 760  :         _Destroy(_Constructed_first, _Constructed_last);
; 761  :         _Al.deallocate(_Newvec, _Newcapacity);
; 762  :         _RERAISE;
; 763  :         _CATCH_END
; 764  : 
; 765  :         _Change_array(_Newvec, _Newsize, _Newcapacity);
; 766  :         return _Newvec + _Whereoff;

  000de	5e		 pop	 esi
  000df	5b		 pop	 ebx

; 767  :     }

  000e0	8b e5		 mov	 esp, ebp
  000e2	5d		 pop	 ebp
  000e3	c2 08 00	 ret	 8
$LN39@Emplace_re:

; 738  :             _Xlength();

  000e6	e8 00 00 00 00	 call	 ?_Xlength@?$vector@PAVCGraphicThingInstance@@V?$allocator@PAVCGraphicThingInstance@@@std@@@std@@CAXXZ ; std::vector<CGraphicThingInstance *,std::allocator<CGraphicThingInstance *> >::_Xlength
$LN40@Emplace_re:
; File C:\Program Files (x86)\Microsoft Visual Studio\2019\Community\VC\Tools\MSVC\14.27.29110\include\xmemory

; 61   :             _Throw_bad_array_new_length(); // multiply overflow

  000eb	e8 00 00 00 00	 call	 ?_Throw_bad_array_new_length@std@@YAXXZ ; std::_Throw_bad_array_new_length
$LN37@Emplace_re:
  000f0	cc		 int	 3
??$_Emplace_reallocate@ABQAVCGraphicThingInstance@@@?$vector@PAVCGraphicThingInstance@@V?$allocator@PAVCGraphicThingInstance@@@std@@@std@@QAEPAPAVCGraphicThingInstance@@QAPAV2@ABQAV2@@Z ENDP ; std::vector<CGraphicThingInstance *,std::allocator<CGraphicThingInstance *> >::_Emplace_reallocate<CGraphicThingInstance * const &>
_TEXT	ENDS
; Function compile flags: /Ogtp
; File C:\Program Files (x86)\Microsoft Visual Studio\2019\Community\VC\Tools\MSVC\14.27.29110\include\vector
; File C:\Program Files (x86)\Microsoft Visual Studio\2019\Community\VC\Tools\MSVC\14.27.29110\include\xmemory
; File C:\Program Files (x86)\Microsoft Visual Studio\2019\Community\VC\Tools\MSVC\14.27.29110\include\vector
; File C:\Program Files (x86)\Microsoft Visual Studio\2019\Community\VC\Tools\MSVC\14.27.29110\include\xmemory
; File C:\Program Files (x86)\Microsoft Visual Studio\2019\Community\VC\Tools\MSVC\14.27.29110\include\vector
; File C:\Program Files (x86)\Microsoft Visual Studio\2019\Community\VC\Tools\MSVC\14.27.29110\include\xmemory
; File C:\Program Files (x86)\Microsoft Visual Studio\2019\Community\VC\Tools\MSVC\14.27.29110\include\vector
; File C:\Program Files (x86)\Microsoft Visual Studio\2019\Community\VC\Tools\MSVC\14.27.29110\include\xmemory
; File C:\Program Files (x86)\Microsoft Visual Studio\2019\Community\VC\Tools\MSVC\14.27.29110\include\vector
; File C:\Program Files (x86)\Microsoft Visual Studio\2019\Community\VC\Tools\MSVC\14.27.29110\include\xmemory
; File C:\Program Files (x86)\Microsoft Visual Studio\2019\Community\VC\Tools\MSVC\14.27.29110\include\vector
;	COMDAT ??$_Emplace_reallocate@ABQAV?$CRef@VCGraphicThing@@@@@?$vector@PAV?$CRef@VCGraphicThing@@@@V?$allocator@PAV?$CRef@VCGraphicThing@@@@@std@@@std@@QAEPAPAV?$CRef@VCGraphicThing@@@@QAPAV2@ABQAV2@@Z
_TEXT	SEGMENT
tv436 = -12						; size = 4
__Newsize$1$ = -8					; size = 4
tv435 = -4						; size = 4
__Whereptr$ = 8						; size = 4
_<_Val_0>$ = 12						; size = 4
??$_Emplace_reallocate@ABQAV?$CRef@VCGraphicThing@@@@@?$vector@PAV?$CRef@VCGraphicThing@@@@V?$allocator@PAV?$CRef@VCGraphicThing@@@@@std@@@std@@QAEPAPAV?$CRef@VCGraphicThing@@@@QAPAV2@ABQAV2@@Z PROC ; std::vector<CRef<CGraphicThing> *,std::allocator<CRef<CGraphicThing> *> >::_Emplace_reallocate<CRef<CGraphicThing> * const &>, COMDAT
; _this$ = ecx

; 725  :     pointer _Emplace_reallocate(const pointer _Whereptr, _Valty&&... _Val) {

  00000	55		 push	 ebp
  00001	8b ec		 mov	 ebp, esp
  00003	83 ec 0c	 sub	 esp, 12			; 0000000cH
  00006	53		 push	 ebx

; 726  :         // reallocate and insert by perfectly forwarding _Val at _Whereptr
; 727  :         _Alty& _Al        = _Getal();
; 728  :         auto& _My_data    = _Mypair._Myval2;
; 729  :         pointer& _Myfirst = _My_data._Myfirst;
; 730  :         pointer& _Mylast  = _My_data._Mylast;
; 731  : 
; 732  :         _STL_INTERNAL_CHECK(_Mylast == _My_data._Myend); // check that we have no unused capacity
; 733  : 
; 734  :         const auto _Whereoff = static_cast<size_type>(_Whereptr - _Myfirst);

  00007	8b 5d 08	 mov	 ebx, DWORD PTR __Whereptr$[ebp]
  0000a	56		 push	 esi
  0000b	8b f1		 mov	 esi, ecx
  0000d	57		 push	 edi
  0000e	8b 16		 mov	 edx, DWORD PTR [esi]
  00010	2b da		 sub	 ebx, edx

; 735  :         const auto _Oldsize  = static_cast<size_type>(_Mylast - _Myfirst);

  00012	8b 46 04	 mov	 eax, DWORD PTR [esi+4]
  00015	2b c2		 sub	 eax, edx
  00017	c1 fb 02	 sar	 ebx, 2
  0001a	c1 f8 02	 sar	 eax, 2

; 736  : 
; 737  :         if (_Oldsize == max_size()) {

  0001d	3d ff ff ff 3f	 cmp	 eax, 1073741823		; 3fffffffH
  00022	0f 84 be 00 00
	00		 je	 $LN39@Emplace_re

; 1494 :         return static_cast<size_type>(_My_data._Myend - _My_data._Myfirst);

  00028	8b 4e 08	 mov	 ecx, DWORD PTR [esi+8]

; 739  :         }
; 740  : 
; 741  :         const size_type _Newsize     = _Oldsize + 1;

  0002b	8d 78 01	 lea	 edi, DWORD PTR [eax+1]

; 1494 :         return static_cast<size_type>(_My_data._Myend - _My_data._Myfirst);

  0002e	2b ca		 sub	 ecx, edx

; 739  :         }
; 740  : 
; 741  :         const size_type _Newsize     = _Oldsize + 1;

  00030	89 7d f8	 mov	 DWORD PTR __Newsize$1$[ebp], edi

; 1494 :         return static_cast<size_type>(_My_data._Myend - _My_data._Myfirst);

  00033	c1 f9 02	 sar	 ecx, 2

; 1619 :         if (_Oldcapacity > max_size() - _Oldcapacity / 2) {

  00036	b8 ff ff ff 3f	 mov	 eax, 1073741823		; 3fffffffH
  0003b	8b d1		 mov	 edx, ecx
  0003d	d1 ea		 shr	 edx, 1
  0003f	2b c2		 sub	 eax, edx
  00041	3b c8		 cmp	 ecx, eax
  00043	76 04		 jbe	 SHORT $LN12@Emplace_re

; 1620 :             return _Newsize; // geometric growth would overflow

  00045	8b c7		 mov	 eax, edi
  00047	eb 08		 jmp	 SHORT $LN13@Emplace_re
$LN12@Emplace_re:

; 1621 :         }
; 1622 : 
; 1623 :         const size_type _Geometric = _Oldcapacity + _Oldcapacity / 2;

  00049	8d 04 0a	 lea	 eax, DWORD PTR [edx+ecx]

; 1624 : 
; 1625 :         if (_Geometric < _Newsize) {

  0004c	3b c7		 cmp	 eax, edi
  0004e	0f 42 c7	 cmovb	 eax, edi
$LN13@Emplace_re:
; File C:\Program Files (x86)\Microsoft Visual Studio\2019\Community\VC\Tools\MSVC\14.27.29110\include\xmemory

; 60   :         if (_Count > _Max_possible) {

  00051	3d ff ff ff 3f	 cmp	 eax, 1073741823		; 3fffffffH
  00056	0f 87 8f 00 00
	00		 ja	 $LN40@Emplace_re

; 62   :         }
; 63   :     }
; 64   : 
; 65   :     return _Count * _Ty_size;

  0005c	c1 e0 02	 shl	 eax, 2

; 807  :         return static_cast<_Ty*>(_Allocate<_New_alignof<_Ty>>(_Get_size_of_n<sizeof(_Ty)>(_Count)));

  0005f	50		 push	 eax

; 65   :     return _Count * _Ty_size;

  00060	89 45 f4	 mov	 DWORD PTR tv436[ebp], eax

; 807  :         return static_cast<_Ty*>(_Allocate<_New_alignof<_Ty>>(_Get_size_of_n<sizeof(_Ty)>(_Count)));

  00063	e8 00 00 00 00	 call	 ??$_Allocate@$07U_Default_allocate_traits@std@@$0A@@std@@YAPAXI@Z ; std::_Allocate<8,std::_Default_allocate_traits,0>
; File C:\Program Files (x86)\Microsoft Visual Studio\2019\Community\VC\Tools\MSVC\14.27.29110\include\vector

; 749  :         _Alty_traits::construct(_Al, _Unfancy(_Newvec + _Whereoff), _STD forward<_Valty>(_Val)...);

  00068	8b 4d 0c	 mov	 ecx, DWORD PTR _<_Val_0>$[ebp]
; File C:\Program Files (x86)\Microsoft Visual Studio\2019\Community\VC\Tools\MSVC\14.27.29110\include\xmemory

; 807  :         return static_cast<_Ty*>(_Allocate<_New_alignof<_Ty>>(_Get_size_of_n<sizeof(_Ty)>(_Count)));

  0006b	8b f8		 mov	 edi, eax
; File C:\Program Files (x86)\Microsoft Visual Studio\2019\Community\VC\Tools\MSVC\14.27.29110\include\vector

; 749  :         _Alty_traits::construct(_Al, _Unfancy(_Newvec + _Whereoff), _STD forward<_Valty>(_Val)...);

  0006d	8d 04 9f	 lea	 eax, DWORD PTR [edi+ebx*4]
; File C:\Program Files (x86)\Microsoft Visual Studio\2019\Community\VC\Tools\MSVC\14.27.29110\include\xmemory

; 807  :         return static_cast<_Ty*>(_Allocate<_New_alignof<_Ty>>(_Get_size_of_n<sizeof(_Ty)>(_Count)));

  00070	83 c4 04	 add	 esp, 4
; File C:\Program Files (x86)\Microsoft Visual Studio\2019\Community\VC\Tools\MSVC\14.27.29110\include\vector

; 752  :         if (_Whereptr == _Mylast) { // at back, provide strong guarantee

  00073	8b 5d 08	 mov	 ebx, DWORD PTR __Whereptr$[ebp]
  00076	89 45 fc	 mov	 DWORD PTR tv435[ebp], eax
  00079	8b 09		 mov	 ecx, DWORD PTR [ecx]
  0007b	89 08		 mov	 DWORD PTR [eax], ecx
  0007d	8b 56 04	 mov	 edx, DWORD PTR [esi+4]
  00080	8b 0e		 mov	 ecx, DWORD PTR [esi]
  00082	3b da		 cmp	 ebx, edx
  00084	75 07		 jne	 SHORT $LN4@Emplace_re

; 753  :             _Umove_if_noexcept(_Myfirst, _Mylast, _Newvec);
; 754  :         } else { // provide basic guarantee

  00086	8b 5d fc	 mov	 ebx, DWORD PTR tv435[ebp]

; 1597 :         _Uninitialized_move(_First, _Last, _Dest, _Getal());

  00089	8b c7		 mov	 eax, edi

; 753  :             _Umove_if_noexcept(_Myfirst, _Mylast, _Newvec);
; 754  :         } else { // provide basic guarantee

  0008b	eb 17		 jmp	 SHORT $LN5@Emplace_re
$LN4@Emplace_re:

; 1592 :         return _Uninitialized_move(_First, _Last, _Dest, _Getal());

  0008d	56		 push	 esi
  0008e	57		 push	 edi
  0008f	53		 push	 ebx
  00090	51		 push	 ecx
  00091	e8 00 00 00 00	 call	 ??$_Uninitialized_move@PAPAV?$CRef@VCGraphicThing@@@@V?$allocator@PAV?$CRef@VCGraphicThing@@@@@std@@@std@@YAPAPAV?$CRef@VCGraphicThing@@@@QAPAV1@0PAPAV1@AAV?$allocator@PAV?$CRef@VCGraphicThing@@@@@0@@Z ; std::_Uninitialized_move<CRef<CGraphicThing> * *,std::allocator<CRef<CGraphicThing> *> >
  00096	8b 56 04	 mov	 edx, DWORD PTR [esi+4]
  00099	8b cb		 mov	 ecx, ebx

; 755  :             _Umove(_Myfirst, _Whereptr, _Newvec);
; 756  :             _Constructed_first = _Newvec;
; 757  :             _Umove(_Whereptr, _Mylast, _Newvec + _Whereoff + 1);

  0009b	8b 5d fc	 mov	 ebx, DWORD PTR tv435[ebp]

; 1592 :         return _Uninitialized_move(_First, _Last, _Dest, _Getal());

  0009e	83 c4 10	 add	 esp, 16			; 00000010H

; 755  :             _Umove(_Myfirst, _Whereptr, _Newvec);
; 756  :             _Constructed_first = _Newvec;
; 757  :             _Umove(_Whereptr, _Mylast, _Newvec + _Whereoff + 1);

  000a1	8d 43 04	 lea	 eax, DWORD PTR [ebx+4]
$LN5@Emplace_re:
  000a4	56		 push	 esi
  000a5	50		 push	 eax
  000a6	52		 push	 edx
  000a7	51		 push	 ecx
  000a8	e8 00 00 00 00	 call	 ??$_Uninitialized_move@PAPAV?$CRef@VCGraphicThing@@@@V?$allocator@PAV?$CRef@VCGraphicThing@@@@@std@@@std@@YAPAPAV?$CRef@VCGraphicThing@@@@QAPAV1@0PAPAV1@AAV?$allocator@PAV?$CRef@VCGraphicThing@@@@@0@@Z ; std::_Uninitialized_move<CRef<CGraphicThing> * *,std::allocator<CRef<CGraphicThing> *> >

; 1675 :         if (_Myfirst) { // destroy and deallocate old array

  000ad	8b 0e		 mov	 ecx, DWORD PTR [esi]

; 755  :             _Umove(_Myfirst, _Whereptr, _Newvec);
; 756  :             _Constructed_first = _Newvec;
; 757  :             _Umove(_Whereptr, _Mylast, _Newvec + _Whereoff + 1);

  000af	83 c4 10	 add	 esp, 16			; 00000010H

; 1675 :         if (_Myfirst) { // destroy and deallocate old array

  000b2	85 c9		 test	 ecx, ecx
  000b4	74 12		 je	 SHORT $LN33@Emplace_re

; 1676 :             _Destroy(_Myfirst, _Mylast);
; 1677 :             _Getal().deallocate(_Myfirst, static_cast<size_type>(_Myend - _Myfirst));

  000b6	8b 46 08	 mov	 eax, DWORD PTR [esi+8]
  000b9	2b c1		 sub	 eax, ecx
; File C:\Program Files (x86)\Microsoft Visual Studio\2019\Community\VC\Tools\MSVC\14.27.29110\include\xmemory

; 803  :         _Deallocate<_New_alignof<_Ty>>(_Ptr, sizeof(_Ty) * _Count);

  000bb	83 e0 fc	 and	 eax, -4			; fffffffcH
  000be	50		 push	 eax
  000bf	51		 push	 ecx
  000c0	e8 00 00 00 00	 call	 ??$_Deallocate@$07$0A@@std@@YAXPAXI@Z ; std::_Deallocate<8,0>
  000c5	83 c4 08	 add	 esp, 8
$LN33@Emplace_re:
; File C:\Program Files (x86)\Microsoft Visual Studio\2019\Community\VC\Tools\MSVC\14.27.29110\include\vector

; 1681 :         _Mylast  = _Newvec + _Newsize;

  000c8	8b 4d f8	 mov	 ecx, DWORD PTR __Newsize$1$[ebp]

; 758  :         }
; 759  :         _CATCH_ALL
; 760  :         _Destroy(_Constructed_first, _Constructed_last);
; 761  :         _Al.deallocate(_Newvec, _Newcapacity);
; 762  :         _RERAISE;
; 763  :         _CATCH_END
; 764  : 
; 765  :         _Change_array(_Newvec, _Newsize, _Newcapacity);
; 766  :         return _Newvec + _Whereoff;

  000cb	8b c3		 mov	 eax, ebx

; 1680 :         _Myfirst = _Newvec;

  000cd	89 3e		 mov	 DWORD PTR [esi], edi

; 1681 :         _Mylast  = _Newvec + _Newsize;

  000cf	8d 0c 8f	 lea	 ecx, DWORD PTR [edi+ecx*4]
  000d2	89 4e 04	 mov	 DWORD PTR [esi+4], ecx

; 1682 :         _Myend   = _Newvec + _Newcapacity;

  000d5	8b 4d f4	 mov	 ecx, DWORD PTR tv436[ebp]
  000d8	03 cf		 add	 ecx, edi

; 758  :         }
; 759  :         _CATCH_ALL
; 760  :         _Destroy(_Constructed_first, _Constructed_last);
; 761  :         _Al.deallocate(_Newvec, _Newcapacity);
; 762  :         _RERAISE;
; 763  :         _CATCH_END
; 764  : 
; 765  :         _Change_array(_Newvec, _Newsize, _Newcapacity);
; 766  :         return _Newvec + _Whereoff;

  000da	5f		 pop	 edi

; 1682 :         _Myend   = _Newvec + _Newcapacity;

  000db	89 4e 08	 mov	 DWORD PTR [esi+8], ecx

; 758  :         }
; 759  :         _CATCH_ALL
; 760  :         _Destroy(_Constructed_first, _Constructed_last);
; 761  :         _Al.deallocate(_Newvec, _Newcapacity);
; 762  :         _RERAISE;
; 763  :         _CATCH_END
; 764  : 
; 765  :         _Change_array(_Newvec, _Newsize, _Newcapacity);
; 766  :         return _Newvec + _Whereoff;

  000de	5e		 pop	 esi
  000df	5b		 pop	 ebx

; 767  :     }

  000e0	8b e5		 mov	 esp, ebp
  000e2	5d		 pop	 ebp
  000e3	c2 08 00	 ret	 8
$LN39@Emplace_re:

; 738  :             _Xlength();

  000e6	e8 00 00 00 00	 call	 ?_Xlength@?$vector@PAV?$CRef@VCGraphicThing@@@@V?$allocator@PAV?$CRef@VCGraphicThing@@@@@std@@@std@@CAXXZ ; std::vector<CRef<CGraphicThing> *,std::allocator<CRef<CGraphicThing> *> >::_Xlength
$LN40@Emplace_re:
; File C:\Program Files (x86)\Microsoft Visual Studio\2019\Community\VC\Tools\MSVC\14.27.29110\include\xmemory

; 61   :             _Throw_bad_array_new_length(); // multiply overflow

  000eb	e8 00 00 00 00	 call	 ?_Throw_bad_array_new_length@std@@YAXXZ ; std::_Throw_bad_array_new_length
$LN37@Emplace_re:
  000f0	cc		 int	 3
??$_Emplace_reallocate@ABQAV?$CRef@VCGraphicThing@@@@@?$vector@PAV?$CRef@VCGraphicThing@@@@V?$allocator@PAV?$CRef@VCGraphicThing@@@@@std@@@std@@QAEPAPAV?$CRef@VCGraphicThing@@@@QAPAV2@ABQAV2@@Z ENDP ; std::vector<CRef<CGraphicThing> *,std::allocator<CRef<CGraphicThing> *> >::_Emplace_reallocate<CRef<CGraphicThing> * const &>
_TEXT	ENDS
; Function compile flags: /Ogtp
; File C:\Program Files (x86)\Microsoft Visual Studio\2019\Community\VC\Tools\MSVC\14.27.29110\include\vector
; File C:\Program Files (x86)\Microsoft Visual Studio\2019\Community\VC\Tools\MSVC\14.27.29110\include\xmemory
; File C:\Program Files (x86)\Microsoft Visual Studio\2019\Community\VC\Tools\MSVC\14.27.29110\include\vector
; File C:\Program Files (x86)\Microsoft Visual Studio\2019\Community\VC\Tools\MSVC\14.27.29110\include\xmemory
; File C:\Program Files (x86)\Microsoft Visual Studio\2019\Community\VC\Tools\MSVC\14.27.29110\include\vector
; File C:\Program Files (x86)\Microsoft Visual Studio\2019\Community\VC\Tools\MSVC\14.27.29110\include\xmemory
; File C:\Program Files (x86)\Microsoft Visual Studio\2019\Community\VC\Tools\MSVC\14.27.29110\include\vector
; File C:\Program Files (x86)\Microsoft Visual Studio\2019\Community\VC\Tools\MSVC\14.27.29110\include\xmemory
; File C:\Program Files (x86)\Microsoft Visual Studio\2019\Community\VC\Tools\MSVC\14.27.29110\include\vector
; File C:\Program Files (x86)\Microsoft Visual Studio\2019\Community\VC\Tools\MSVC\14.27.29110\include\xmemory
; File C:\Program Files (x86)\Microsoft Visual Studio\2019\Community\VC\Tools\MSVC\14.27.29110\include\vector
;	COMDAT ??$_Emplace_reallocate@ABQAVCGrannyLODController@@@?$vector@PAVCGrannyLODController@@V?$allocator@PAVCGrannyLODController@@@std@@@std@@QAEPAPAVCGrannyLODController@@QAPAV2@ABQAV2@@Z
_TEXT	SEGMENT
tv436 = -12						; size = 4
__Newsize$1$ = -8					; size = 4
tv435 = -4						; size = 4
__Whereptr$ = 8						; size = 4
_<_Val_0>$ = 12						; size = 4
??$_Emplace_reallocate@ABQAVCGrannyLODController@@@?$vector@PAVCGrannyLODController@@V?$allocator@PAVCGrannyLODController@@@std@@@std@@QAEPAPAVCGrannyLODController@@QAPAV2@ABQAV2@@Z PROC ; std::vector<CGrannyLODController *,std::allocator<CGrannyLODController *> >::_Emplace_reallocate<CGrannyLODController * const &>, COMDAT
; _this$ = ecx

; 725  :     pointer _Emplace_reallocate(const pointer _Whereptr, _Valty&&... _Val) {

  00000	55		 push	 ebp
  00001	8b ec		 mov	 ebp, esp
  00003	83 ec 0c	 sub	 esp, 12			; 0000000cH
  00006	53		 push	 ebx

; 726  :         // reallocate and insert by perfectly forwarding _Val at _Whereptr
; 727  :         _Alty& _Al        = _Getal();
; 728  :         auto& _My_data    = _Mypair._Myval2;
; 729  :         pointer& _Myfirst = _My_data._Myfirst;
; 730  :         pointer& _Mylast  = _My_data._Mylast;
; 731  : 
; 732  :         _STL_INTERNAL_CHECK(_Mylast == _My_data._Myend); // check that we have no unused capacity
; 733  : 
; 734  :         const auto _Whereoff = static_cast<size_type>(_Whereptr - _Myfirst);

  00007	8b 5d 08	 mov	 ebx, DWORD PTR __Whereptr$[ebp]
  0000a	56		 push	 esi
  0000b	8b f1		 mov	 esi, ecx
  0000d	57		 push	 edi
  0000e	8b 16		 mov	 edx, DWORD PTR [esi]
  00010	2b da		 sub	 ebx, edx

; 735  :         const auto _Oldsize  = static_cast<size_type>(_Mylast - _Myfirst);

  00012	8b 46 04	 mov	 eax, DWORD PTR [esi+4]
  00015	2b c2		 sub	 eax, edx
  00017	c1 fb 02	 sar	 ebx, 2
  0001a	c1 f8 02	 sar	 eax, 2

; 736  : 
; 737  :         if (_Oldsize == max_size()) {

  0001d	3d ff ff ff 3f	 cmp	 eax, 1073741823		; 3fffffffH
  00022	0f 84 be 00 00
	00		 je	 $LN39@Emplace_re

; 1494 :         return static_cast<size_type>(_My_data._Myend - _My_data._Myfirst);

  00028	8b 4e 08	 mov	 ecx, DWORD PTR [esi+8]

; 739  :         }
; 740  : 
; 741  :         const size_type _Newsize     = _Oldsize + 1;

  0002b	8d 78 01	 lea	 edi, DWORD PTR [eax+1]

; 1494 :         return static_cast<size_type>(_My_data._Myend - _My_data._Myfirst);

  0002e	2b ca		 sub	 ecx, edx

; 739  :         }
; 740  : 
; 741  :         const size_type _Newsize     = _Oldsize + 1;

  00030	89 7d f8	 mov	 DWORD PTR __Newsize$1$[ebp], edi

; 1494 :         return static_cast<size_type>(_My_data._Myend - _My_data._Myfirst);

  00033	c1 f9 02	 sar	 ecx, 2

; 1619 :         if (_Oldcapacity > max_size() - _Oldcapacity / 2) {

  00036	b8 ff ff ff 3f	 mov	 eax, 1073741823		; 3fffffffH
  0003b	8b d1		 mov	 edx, ecx
  0003d	d1 ea		 shr	 edx, 1
  0003f	2b c2		 sub	 eax, edx
  00041	3b c8		 cmp	 ecx, eax
  00043	76 04		 jbe	 SHORT $LN12@Emplace_re

; 1620 :             return _Newsize; // geometric growth would overflow

  00045	8b c7		 mov	 eax, edi
  00047	eb 08		 jmp	 SHORT $LN13@Emplace_re
$LN12@Emplace_re:

; 1621 :         }
; 1622 : 
; 1623 :         const size_type _Geometric = _Oldcapacity + _Oldcapacity / 2;

  00049	8d 04 0a	 lea	 eax, DWORD PTR [edx+ecx]

; 1624 : 
; 1625 :         if (_Geometric < _Newsize) {

  0004c	3b c7		 cmp	 eax, edi
  0004e	0f 42 c7	 cmovb	 eax, edi
$LN13@Emplace_re:
; File C:\Program Files (x86)\Microsoft Visual Studio\2019\Community\VC\Tools\MSVC\14.27.29110\include\xmemory

; 60   :         if (_Count > _Max_possible) {

  00051	3d ff ff ff 3f	 cmp	 eax, 1073741823		; 3fffffffH
  00056	0f 87 8f 00 00
	00		 ja	 $LN40@Emplace_re

; 62   :         }
; 63   :     }
; 64   : 
; 65   :     return _Count * _Ty_size;

  0005c	c1 e0 02	 shl	 eax, 2

; 807  :         return static_cast<_Ty*>(_Allocate<_New_alignof<_Ty>>(_Get_size_of_n<sizeof(_Ty)>(_Count)));

  0005f	50		 push	 eax

; 65   :     return _Count * _Ty_size;

  00060	89 45 f4	 mov	 DWORD PTR tv436[ebp], eax

; 807  :         return static_cast<_Ty*>(_Allocate<_New_alignof<_Ty>>(_Get_size_of_n<sizeof(_Ty)>(_Count)));

  00063	e8 00 00 00 00	 call	 ??$_Allocate@$07U_Default_allocate_traits@std@@$0A@@std@@YAPAXI@Z ; std::_Allocate<8,std::_Default_allocate_traits,0>
; File C:\Program Files (x86)\Microsoft Visual Studio\2019\Community\VC\Tools\MSVC\14.27.29110\include\vector

; 749  :         _Alty_traits::construct(_Al, _Unfancy(_Newvec + _Whereoff), _STD forward<_Valty>(_Val)...);

  00068	8b 4d 0c	 mov	 ecx, DWORD PTR _<_Val_0>$[ebp]
; File C:\Program Files (x86)\Microsoft Visual Studio\2019\Community\VC\Tools\MSVC\14.27.29110\include\xmemory

; 807  :         return static_cast<_Ty*>(_Allocate<_New_alignof<_Ty>>(_Get_size_of_n<sizeof(_Ty)>(_Count)));

  0006b	8b f8		 mov	 edi, eax
; File C:\Program Files (x86)\Microsoft Visual Studio\2019\Community\VC\Tools\MSVC\14.27.29110\include\vector

; 749  :         _Alty_traits::construct(_Al, _Unfancy(_Newvec + _Whereoff), _STD forward<_Valty>(_Val)...);

  0006d	8d 04 9f	 lea	 eax, DWORD PTR [edi+ebx*4]
; File C:\Program Files (x86)\Microsoft Visual Studio\2019\Community\VC\Tools\MSVC\14.27.29110\include\xmemory

; 807  :         return static_cast<_Ty*>(_Allocate<_New_alignof<_Ty>>(_Get_size_of_n<sizeof(_Ty)>(_Count)));

  00070	83 c4 04	 add	 esp, 4
; File C:\Program Files (x86)\Microsoft Visual Studio\2019\Community\VC\Tools\MSVC\14.27.29110\include\vector

; 752  :         if (_Whereptr == _Mylast) { // at back, provide strong guarantee

  00073	8b 5d 08	 mov	 ebx, DWORD PTR __Whereptr$[ebp]
  00076	89 45 fc	 mov	 DWORD PTR tv435[ebp], eax
  00079	8b 09		 mov	 ecx, DWORD PTR [ecx]
  0007b	89 08		 mov	 DWORD PTR [eax], ecx
  0007d	8b 56 04	 mov	 edx, DWORD PTR [esi+4]
  00080	8b 0e		 mov	 ecx, DWORD PTR [esi]
  00082	3b da		 cmp	 ebx, edx
  00084	75 07		 jne	 SHORT $LN4@Emplace_re

; 753  :             _Umove_if_noexcept(_Myfirst, _Mylast, _Newvec);
; 754  :         } else { // provide basic guarantee

  00086	8b 5d fc	 mov	 ebx, DWORD PTR tv435[ebp]

; 1597 :         _Uninitialized_move(_First, _Last, _Dest, _Getal());

  00089	8b c7		 mov	 eax, edi

; 753  :             _Umove_if_noexcept(_Myfirst, _Mylast, _Newvec);
; 754  :         } else { // provide basic guarantee

  0008b	eb 17		 jmp	 SHORT $LN5@Emplace_re
$LN4@Emplace_re:

; 1592 :         return _Uninitialized_move(_First, _Last, _Dest, _Getal());

  0008d	56		 push	 esi
  0008e	57		 push	 edi
  0008f	53		 push	 ebx
  00090	51		 push	 ecx
  00091	e8 00 00 00 00	 call	 ??$_Uninitialized_move@PAPAVCGrannyLODController@@V?$allocator@PAVCGrannyLODController@@@std@@@std@@YAPAPAVCGrannyLODController@@QAPAV1@0PAPAV1@AAV?$allocator@PAVCGrannyLODController@@@0@@Z ; std::_Uninitialized_move<CGrannyLODController * *,std::allocator<CGrannyLODController *> >
  00096	8b 56 04	 mov	 edx, DWORD PTR [esi+4]
  00099	8b cb		 mov	 ecx, ebx

; 755  :             _Umove(_Myfirst, _Whereptr, _Newvec);
; 756  :             _Constructed_first = _Newvec;
; 757  :             _Umove(_Whereptr, _Mylast, _Newvec + _Whereoff + 1);

  0009b	8b 5d fc	 mov	 ebx, DWORD PTR tv435[ebp]

; 1592 :         return _Uninitialized_move(_First, _Last, _Dest, _Getal());

  0009e	83 c4 10	 add	 esp, 16			; 00000010H

; 755  :             _Umove(_Myfirst, _Whereptr, _Newvec);
; 756  :             _Constructed_first = _Newvec;
; 757  :             _Umove(_Whereptr, _Mylast, _Newvec + _Whereoff + 1);

  000a1	8d 43 04	 lea	 eax, DWORD PTR [ebx+4]
$LN5@Emplace_re:
  000a4	56		 push	 esi
  000a5	50		 push	 eax
  000a6	52		 push	 edx
  000a7	51		 push	 ecx
  000a8	e8 00 00 00 00	 call	 ??$_Uninitialized_move@PAPAVCGrannyLODController@@V?$allocator@PAVCGrannyLODController@@@std@@@std@@YAPAPAVCGrannyLODController@@QAPAV1@0PAPAV1@AAV?$allocator@PAVCGrannyLODController@@@0@@Z ; std::_Uninitialized_move<CGrannyLODController * *,std::allocator<CGrannyLODController *> >

; 1675 :         if (_Myfirst) { // destroy and deallocate old array

  000ad	8b 0e		 mov	 ecx, DWORD PTR [esi]

; 755  :             _Umove(_Myfirst, _Whereptr, _Newvec);
; 756  :             _Constructed_first = _Newvec;
; 757  :             _Umove(_Whereptr, _Mylast, _Newvec + _Whereoff + 1);

  000af	83 c4 10	 add	 esp, 16			; 00000010H

; 1675 :         if (_Myfirst) { // destroy and deallocate old array

  000b2	85 c9		 test	 ecx, ecx
  000b4	74 12		 je	 SHORT $LN33@Emplace_re

; 1676 :             _Destroy(_Myfirst, _Mylast);
; 1677 :             _Getal().deallocate(_Myfirst, static_cast<size_type>(_Myend - _Myfirst));

  000b6	8b 46 08	 mov	 eax, DWORD PTR [esi+8]
  000b9	2b c1		 sub	 eax, ecx
; File C:\Program Files (x86)\Microsoft Visual Studio\2019\Community\VC\Tools\MSVC\14.27.29110\include\xmemory

; 803  :         _Deallocate<_New_alignof<_Ty>>(_Ptr, sizeof(_Ty) * _Count);

  000bb	83 e0 fc	 and	 eax, -4			; fffffffcH
  000be	50		 push	 eax
  000bf	51		 push	 ecx
  000c0	e8 00 00 00 00	 call	 ??$_Deallocate@$07$0A@@std@@YAXPAXI@Z ; std::_Deallocate<8,0>
  000c5	83 c4 08	 add	 esp, 8
$LN33@Emplace_re:
; File C:\Program Files (x86)\Microsoft Visual Studio\2019\Community\VC\Tools\MSVC\14.27.29110\include\vector

; 1681 :         _Mylast  = _Newvec + _Newsize;

  000c8	8b 4d f8	 mov	 ecx, DWORD PTR __Newsize$1$[ebp]

; 758  :         }
; 759  :         _CATCH_ALL
; 760  :         _Destroy(_Constructed_first, _Constructed_last);
; 761  :         _Al.deallocate(_Newvec, _Newcapacity);
; 762  :         _RERAISE;
; 763  :         _CATCH_END
; 764  : 
; 765  :         _Change_array(_Newvec, _Newsize, _Newcapacity);
; 766  :         return _Newvec + _Whereoff;

  000cb	8b c3		 mov	 eax, ebx

; 1680 :         _Myfirst = _Newvec;

  000cd	89 3e		 mov	 DWORD PTR [esi], edi

; 1681 :         _Mylast  = _Newvec + _Newsize;

  000cf	8d 0c 8f	 lea	 ecx, DWORD PTR [edi+ecx*4]
  000d2	89 4e 04	 mov	 DWORD PTR [esi+4], ecx

; 1682 :         _Myend   = _Newvec + _Newcapacity;

  000d5	8b 4d f4	 mov	 ecx, DWORD PTR tv436[ebp]
  000d8	03 cf		 add	 ecx, edi

; 758  :         }
; 759  :         _CATCH_ALL
; 760  :         _Destroy(_Constructed_first, _Constructed_last);
; 761  :         _Al.deallocate(_Newvec, _Newcapacity);
; 762  :         _RERAISE;
; 763  :         _CATCH_END
; 764  : 
; 765  :         _Change_array(_Newvec, _Newsize, _Newcapacity);
; 766  :         return _Newvec + _Whereoff;

  000da	5f		 pop	 edi

; 1682 :         _Myend   = _Newvec + _Newcapacity;

  000db	89 4e 08	 mov	 DWORD PTR [esi+8], ecx

; 758  :         }
; 759  :         _CATCH_ALL
; 760  :         _Destroy(_Constructed_first, _Constructed_last);
; 761  :         _Al.deallocate(_Newvec, _Newcapacity);
; 762  :         _RERAISE;
; 763  :         _CATCH_END
; 764  : 
; 765  :         _Change_array(_Newvec, _Newsize, _Newcapacity);
; 766  :         return _Newvec + _Whereoff;

  000de	5e		 pop	 esi
  000df	5b		 pop	 ebx

; 767  :     }

  000e0	8b e5		 mov	 esp, ebp
  000e2	5d		 pop	 ebp
  000e3	c2 08 00	 ret	 8
$LN39@Emplace_re:

; 738  :             _Xlength();

  000e6	e8 00 00 00 00	 call	 ?_Xlength@?$vector@PAVCGrannyLODController@@V?$allocator@PAVCGrannyLODController@@@std@@@std@@CAXXZ ; std::vector<CGrannyLODController *,std::allocator<CGrannyLODController *> >::_Xlength
$LN40@Emplace_re:
; File C:\Program Files (x86)\Microsoft Visual Studio\2019\Community\VC\Tools\MSVC\14.27.29110\include\xmemory

; 61   :             _Throw_bad_array_new_length(); // multiply overflow

  000eb	e8 00 00 00 00	 call	 ?_Throw_bad_array_new_length@std@@YAXXZ ; std::_Throw_bad_array_new_length
$LN37@Emplace_re:
  000f0	cc		 int	 3
??$_Emplace_reallocate@ABQAVCGrannyLODController@@@?$vector@PAVCGrannyLODController@@V?$allocator@PAVCGrannyLODController@@@std@@@std@@QAEPAPAVCGrannyLODController@@QAPAV2@ABQAV2@@Z ENDP ; std::vector<CGrannyLODController *,std::allocator<CGrannyLODController *> >::_Emplace_reallocate<CGrannyLODController * const &>
_TEXT	ENDS
; Function compile flags: /Ogtp
; File C:\DS Project\DS Files\Source\ClientSource\Client\eterBase\Stl.h
; File C:\Program Files (x86)\Microsoft Visual Studio\2019\Community\VC\Tools\MSVC\14.27.29110\include\vector
; File C:\DS Project\DS Files\Source\ClientSource\Client\eterBase\Stl.h
; File C:\Program Files (x86)\Microsoft Visual Studio\2019\Community\VC\Tools\MSVC\14.27.29110\include\vector
; File C:\DS Project\DS Files\Source\ClientSource\Client\eterBase\Stl.h
;	COMDAT ??$stl_wipe@V?$vector@PAVCGrannyLODController@@V?$allocator@PAVCGrannyLODController@@@std@@@std@@@@YAXAAV?$vector@PAVCGrannyLODController@@V?$allocator@PAVCGrannyLODController@@@std@@@std@@@Z
_TEXT	SEGMENT
_container$ = 8						; size = 4
??$stl_wipe@V?$vector@PAVCGrannyLODController@@V?$allocator@PAVCGrannyLODController@@@std@@@std@@@@YAXAAV?$vector@PAVCGrannyLODController@@V?$allocator@PAVCGrannyLODController@@@std@@@std@@@Z PROC ; stl_wipe<std::vector<CGrannyLODController *,std::allocator<CGrannyLODController *> > >, COMDAT

; 94   : {

  00000	55		 push	 ebp
  00001	8b ec		 mov	 ebp, esp
  00003	56		 push	 esi
  00004	57		 push	 edi
; File C:\Program Files (x86)\Microsoft Visual Studio\2019\Community\VC\Tools\MSVC\14.27.29110\include\vector

; 42   :     _Vector_const_iterator(_Tptr _Parg, const _Container_base* _Pvector) noexcept : _Ptr(_Parg) {

  00005	8b 7d 08	 mov	 edi, DWORD PTR _container$[ebp]
  00008	8b 37		 mov	 esi, DWORD PTR [edi]
  0000a	3b 77 04	 cmp	 esi, DWORD PTR [edi+4]
; File C:\DS Project\DS Files\Source\ClientSource\Client\eterBase\Stl.h

; 95   : 	for (TContainer::iterator i = container.begin(); i != container.end(); ++i)

  0000d	74 24		 je	 SHORT $LN32@stl_wipe
  0000f	90		 npad	 1
$LL4@stl_wipe:

; 96   : 	{
; 97   : 		delete *i;

  00010	8b 0e		 mov	 ecx, DWORD PTR [esi]
  00012	85 c9		 test	 ecx, ecx
  00014	74 06		 je	 SHORT $LN6@stl_wipe
  00016	8b 01		 mov	 eax, DWORD PTR [ecx]
  00018	6a 01		 push	 1
  0001a	ff 10		 call	 DWORD PTR [eax]
$LN6@stl_wipe:

; 98   : 		*i = NULL;

  0001c	c7 06 00 00 00
	00		 mov	 DWORD PTR [esi], 0
; File C:\Program Files (x86)\Microsoft Visual Studio\2019\Community\VC\Tools\MSVC\14.27.29110\include\vector

; 75   :         ++_Ptr;

  00022	83 c6 04	 add	 esi, 4

; 149  :         return _Ptr == _Right._Ptr;

  00025	3b 77 04	 cmp	 esi, DWORD PTR [edi+4]
; File C:\DS Project\DS Files\Source\ClientSource\Client\eterBase\Stl.h

; 95   : 	for (TContainer::iterator i = container.begin(); i != container.end(); ++i)

  00028	75 e6		 jne	 SHORT $LL4@stl_wipe

; 99   : 	}
; 100  : 
; 101  : 	container.clear();

  0002a	8b 07		 mov	 eax, DWORD PTR [edi]
  0002c	89 47 04	 mov	 DWORD PTR [edi+4], eax
  0002f	5f		 pop	 edi

; 102  : }

  00030	5e		 pop	 esi
  00031	5d		 pop	 ebp
  00032	c3		 ret	 0
$LN32@stl_wipe:

; 99   : 	}
; 100  : 
; 101  : 	container.clear();

  00033	89 77 04	 mov	 DWORD PTR [edi+4], esi
  00036	5f		 pop	 edi

; 102  : }

  00037	5e		 pop	 esi
  00038	5d		 pop	 ebp
  00039	c3		 ret	 0
??$stl_wipe@V?$vector@PAVCGrannyLODController@@V?$allocator@PAVCGrannyLODController@@@std@@@std@@@@YAXAAV?$vector@PAVCGrannyLODController@@V?$allocator@PAVCGrannyLODController@@@std@@@std@@@Z ENDP ; stl_wipe<std::vector<CGrannyLODController *,std::allocator<CGrannyLODController *> > >
_TEXT	ENDS
; Function compile flags: /Ogtp
;	COMDAT ??__F?ms_kPool@CGraphicThingInstance@@2V?$CDynamicPool@VCGraphicThingInstance@@@@A@@YAXXZ
text$yd	SEGMENT
??__F?ms_kPool@CGraphicThingInstance@@2V?$CDynamicPool@VCGraphicThingInstance@@@@A@@YAXXZ PROC ; `dynamic atexit destructor for 'CGraphicThingInstance::ms_kPool'', COMDAT
  00000	b9 00 00 00 00	 mov	 ecx, OFFSET ?ms_kPool@CGraphicThingInstance@@2V?$CDynamicPool@VCGraphicThingInstance@@@@A ; CGraphicThingInstance::ms_kPool
  00005	e9 00 00 00 00	 jmp	 ??1?$CDynamicPool@VCGraphicThingInstance@@@@UAE@XZ ; CDynamicPool<CGraphicThingInstance>::~CDynamicPool<CGraphicThingInstance>
??__F?ms_kPool@CGraphicThingInstance@@2V?$CDynamicPool@VCGraphicThingInstance@@@@A@@YAXXZ ENDP ; `dynamic atexit destructor for 'CGraphicThingInstance::ms_kPool''
text$yd	ENDS
; Function compile flags: /Ogtp
; File C:\DS Project\DS Files\Source\ClientSource\Client\eterGrnLib\ThingInstance.cpp
;	COMDAT ??__E?ms_kPool@CGraphicThingInstance@@2V?$CDynamicPool@VCGraphicThingInstance@@@@A@@YAXXZ
text$di	SEGMENT
??__E?ms_kPool@CGraphicThingInstance@@2V?$CDynamicPool@VCGraphicThingInstance@@@@A@@YAXXZ PROC ; `dynamic initializer for 'CGraphicThingInstance::ms_kPool'', COMDAT

; 9    : CDynamicPool<CGraphicThingInstance>		CGraphicThingInstance::ms_kPool;

  00000	68 00 00 00 00	 push	 OFFSET ??__F?ms_kPool@CGraphicThingInstance@@2V?$CDynamicPool@VCGraphicThingInstance@@@@A@@YAXXZ ; `dynamic atexit destructor for 'CGraphicThingInstance::ms_kPool''
  00005	e8 00 00 00 00	 call	 _atexit
  0000a	59		 pop	 ecx
  0000b	c3		 ret	 0
??__E?ms_kPool@CGraphicThingInstance@@2V?$CDynamicPool@VCGraphicThingInstance@@@@A@@YAXXZ ENDP ; `dynamic initializer for 'CGraphicThingInstance::ms_kPool''
text$di	ENDS
; Function compile flags: /Ogtp
;	COMDAT ??_G?$CDynamicPool@VCGraphicThingInstance@@@@UAEPAXI@Z
_TEXT	SEGMENT
___flags$ = 8						; size = 4
??_G?$CDynamicPool@VCGraphicThingInstance@@@@UAEPAXI@Z PROC ; CDynamicPool<CGraphicThingInstance>::`scalar deleting destructor', COMDAT
; _this$ = ecx
  00000	55		 push	 ebp
  00001	8b ec		 mov	 ebp, esp
  00003	56		 push	 esi
  00004	8b f1		 mov	 esi, ecx
  00006	e8 00 00 00 00	 call	 ??1?$CDynamicPool@VCGraphicThingInstance@@@@UAE@XZ ; CDynamicPool<CGraphicThingInstance>::~CDynamicPool<CGraphicThingInstance>
  0000b	f6 45 08 01	 test	 BYTE PTR ___flags$[ebp], 1
  0000f	74 0b		 je	 SHORT $LN4@scalar
  00011	6a 24		 push	 36			; 00000024H
  00013	56		 push	 esi
  00014	e8 00 00 00 00	 call	 ??3@YAXPAXI@Z		; operator delete
  00019	83 c4 08	 add	 esp, 8
$LN4@scalar:
  0001c	8b c6		 mov	 eax, esi
  0001e	5e		 pop	 esi
  0001f	5d		 pop	 ebp
  00020	c2 04 00	 ret	 4
??_G?$CDynamicPool@VCGraphicThingInstance@@@@UAEPAXI@Z ENDP ; CDynamicPool<CGraphicThingInstance>::`scalar deleting destructor'
_TEXT	ENDS
; Function compile flags: /Ogtp
; File C:\Program Files (x86)\Microsoft Visual Studio\2019\Community\VC\Tools\MSVC\14.27.29110\include\vector
;	COMDAT ?_Xlength@?$vector@PAVCGraphicThingInstance@@V?$allocator@PAVCGraphicThingInstance@@@std@@@std@@CAXXZ
_TEXT	SEGMENT
?_Xlength@?$vector@PAVCGraphicThingInstance@@V?$allocator@PAVCGraphicThingInstance@@@std@@@std@@CAXXZ PROC ; std::vector<CGraphicThingInstance *,std::allocator<CGraphicThingInstance *> >::_Xlength, COMDAT

; 1704 :         _Xlength_error("vector too long");

  00000	68 00 00 00 00	 push	 OFFSET ??_C@_0BA@FOIKENOD@vector?5too?5long@
  00005	e8 00 00 00 00	 call	 ?_Xlength_error@std@@YAXPBD@Z ; std::_Xlength_error
$LN3@Xlength:
  0000a	cc		 int	 3
?_Xlength@?$vector@PAVCGraphicThingInstance@@V?$allocator@PAVCGraphicThingInstance@@@std@@@std@@CAXXZ ENDP ; std::vector<CGraphicThingInstance *,std::allocator<CGraphicThingInstance *> >::_Xlength
_TEXT	ENDS
; Function compile flags: /Ogtp
; File C:\Program Files (x86)\Microsoft Visual Studio\2019\Community\VC\Tools\MSVC\14.27.29110\include\vector
; File C:\Program Files (x86)\Microsoft Visual Studio\2019\Community\VC\Tools\MSVC\14.27.29110\include\xmemory
; File C:\Program Files (x86)\Microsoft Visual Studio\2019\Community\VC\Tools\MSVC\14.27.29110\include\vector
; File C:\Program Files (x86)\Microsoft Visual Studio\2019\Community\VC\Tools\MSVC\14.27.29110\include\xmemory
; File C:\Program Files (x86)\Microsoft Visual Studio\2019\Community\VC\Tools\MSVC\14.27.29110\include\vector
; File C:\Program Files (x86)\Microsoft Visual Studio\2019\Community\VC\Tools\MSVC\14.27.29110\include\xmemory
; File C:\Program Files (x86)\Microsoft Visual Studio\2019\Community\VC\Tools\MSVC\14.27.29110\include\vector
; File C:\Program Files (x86)\Microsoft Visual Studio\2019\Community\VC\Tools\MSVC\14.27.29110\include\xmemory
; File C:\Program Files (x86)\Microsoft Visual Studio\2019\Community\VC\Tools\MSVC\14.27.29110\include\vector
; File C:\Program Files (x86)\Microsoft Visual Studio\2019\Community\VC\Tools\MSVC\14.27.29110\include\xmemory
; File C:\Program Files (x86)\Microsoft Visual Studio\2019\Community\VC\Tools\MSVC\14.27.29110\include\vector
;	COMDAT ?_Reallocate_exactly@?$vector@PAVCGraphicThingInstance@@V?$allocator@PAVCGraphicThingInstance@@@std@@@std@@AAEXI@Z
_TEXT	SEGMENT
tv254 = 8						; size = 4
__Newcapacity$ = 8					; size = 4
?_Reallocate_exactly@?$vector@PAVCGraphicThingInstance@@V?$allocator@PAVCGraphicThingInstance@@@std@@@std@@AAEXI@Z PROC ; std::vector<CGraphicThingInstance *,std::allocator<CGraphicThingInstance *> >::_Reallocate_exactly, COMDAT
; _this$ = ecx

; 1251 :     void _Reallocate_exactly(const size_type _Newcapacity) {

  00000	55		 push	 ebp
  00001	8b ec		 mov	 ebp, esp
; File C:\Program Files (x86)\Microsoft Visual Studio\2019\Community\VC\Tools\MSVC\14.27.29110\include\xmemory

; 60   :         if (_Count > _Max_possible) {

  00003	8b 45 08	 mov	 eax, DWORD PTR __Newcapacity$[ebp]
; File C:\Program Files (x86)\Microsoft Visual Studio\2019\Community\VC\Tools\MSVC\14.27.29110\include\vector

; 1251 :     void _Reallocate_exactly(const size_type _Newcapacity) {

  00006	53		 push	 ebx
  00007	56		 push	 esi
  00008	8b f1		 mov	 esi, ecx
  0000a	57		 push	 edi

; 1252 :         // set capacity to _Newcapacity (without geometric growth), provide strong guarantee
; 1253 :         auto& _My_data    = _Mypair._Myval2;
; 1254 :         pointer& _Myfirst = _My_data._Myfirst;
; 1255 :         pointer& _Mylast  = _My_data._Mylast;
; 1256 : 
; 1257 :         const auto _Size = static_cast<size_type>(_Mylast - _Myfirst);

  0000b	8b 7e 04	 mov	 edi, DWORD PTR [esi+4]
  0000e	2b 3e		 sub	 edi, DWORD PTR [esi]
  00010	c1 ff 02	 sar	 edi, 2
; File C:\Program Files (x86)\Microsoft Visual Studio\2019\Community\VC\Tools\MSVC\14.27.29110\include\xmemory

; 60   :         if (_Count > _Max_possible) {

  00013	3d ff ff ff 3f	 cmp	 eax, 1073741823		; 3fffffffH
  00018	77 4c		 ja	 SHORT $LN26@Reallocate

; 62   :         }
; 63   :     }
; 64   : 
; 65   :     return _Count * _Ty_size;

  0001a	c1 e0 02	 shl	 eax, 2

; 807  :         return static_cast<_Ty*>(_Allocate<_New_alignof<_Ty>>(_Get_size_of_n<sizeof(_Ty)>(_Count)));

  0001d	50		 push	 eax

; 65   :     return _Count * _Ty_size;

  0001e	89 45 08	 mov	 DWORD PTR tv254[ebp], eax

; 807  :         return static_cast<_Ty*>(_Allocate<_New_alignof<_Ty>>(_Get_size_of_n<sizeof(_Ty)>(_Count)));

  00021	e8 00 00 00 00	 call	 ??$_Allocate@$07U_Default_allocate_traits@std@@$0A@@std@@YAPAXI@Z ; std::_Allocate<8,std::_Default_allocate_traits,0>
; File C:\Program Files (x86)\Microsoft Visual Studio\2019\Community\VC\Tools\MSVC\14.27.29110\include\vector

; 1597 :         _Uninitialized_move(_First, _Last, _Dest, _Getal());

  00026	56		 push	 esi
; File C:\Program Files (x86)\Microsoft Visual Studio\2019\Community\VC\Tools\MSVC\14.27.29110\include\xmemory

; 807  :         return static_cast<_Ty*>(_Allocate<_New_alignof<_Ty>>(_Get_size_of_n<sizeof(_Ty)>(_Count)));

  00027	8b d8		 mov	 ebx, eax
; File C:\Program Files (x86)\Microsoft Visual Studio\2019\Community\VC\Tools\MSVC\14.27.29110\include\vector

; 1597 :         _Uninitialized_move(_First, _Last, _Dest, _Getal());

  00029	53		 push	 ebx
  0002a	ff 76 04	 push	 DWORD PTR [esi+4]
  0002d	ff 36		 push	 DWORD PTR [esi]
  0002f	e8 00 00 00 00	 call	 ??$_Uninitialized_move@PAPAVCGraphicThingInstance@@V?$allocator@PAVCGraphicThingInstance@@@std@@@std@@YAPAPAVCGraphicThingInstance@@QAPAV1@0PAPAV1@AAV?$allocator@PAVCGraphicThingInstance@@@0@@Z ; std::_Uninitialized_move<CGraphicThingInstance * *,std::allocator<CGraphicThingInstance *> >

; 1675 :         if (_Myfirst) { // destroy and deallocate old array

  00034	8b 0e		 mov	 ecx, DWORD PTR [esi]

; 1597 :         _Uninitialized_move(_First, _Last, _Dest, _Getal());

  00036	83 c4 14	 add	 esp, 20			; 00000014H

; 1675 :         if (_Myfirst) { // destroy and deallocate old array

  00039	85 c9		 test	 ecx, ecx
  0003b	74 12		 je	 SHORT $LN20@Reallocate

; 1676 :             _Destroy(_Myfirst, _Mylast);
; 1677 :             _Getal().deallocate(_Myfirst, static_cast<size_type>(_Myend - _Myfirst));

  0003d	8b 46 08	 mov	 eax, DWORD PTR [esi+8]
  00040	2b c1		 sub	 eax, ecx
; File C:\Program Files (x86)\Microsoft Visual Studio\2019\Community\VC\Tools\MSVC\14.27.29110\include\xmemory

; 803  :         _Deallocate<_New_alignof<_Ty>>(_Ptr, sizeof(_Ty) * _Count);

  00042	83 e0 fc	 and	 eax, -4			; fffffffcH
  00045	50		 push	 eax
  00046	51		 push	 ecx
  00047	e8 00 00 00 00	 call	 ??$_Deallocate@$07$0A@@std@@YAXPAXI@Z ; std::_Deallocate<8,0>
  0004c	83 c4 08	 add	 esp, 8
$LN20@Reallocate:
; File C:\Program Files (x86)\Microsoft Visual Studio\2019\Community\VC\Tools\MSVC\14.27.29110\include\vector

; 1681 :         _Mylast  = _Newvec + _Newsize;

  0004f	8d 04 bb	 lea	 eax, DWORD PTR [ebx+edi*4]
  00052	89 1e		 mov	 DWORD PTR [esi], ebx
  00054	89 46 04	 mov	 DWORD PTR [esi+4], eax

; 1682 :         _Myend   = _Newvec + _Newcapacity;

  00057	8b 45 08	 mov	 eax, DWORD PTR tv254[ebp]
  0005a	03 c3		 add	 eax, ebx
  0005c	5f		 pop	 edi
  0005d	89 46 08	 mov	 DWORD PTR [esi+8], eax
  00060	5e		 pop	 esi
  00061	5b		 pop	 ebx

; 1269 :     }

  00062	5d		 pop	 ebp
  00063	c2 04 00	 ret	 4
$LN26@Reallocate:
; File C:\Program Files (x86)\Microsoft Visual Studio\2019\Community\VC\Tools\MSVC\14.27.29110\include\xmemory

; 61   :             _Throw_bad_array_new_length(); // multiply overflow

  00066	e8 00 00 00 00	 call	 ?_Throw_bad_array_new_length@std@@YAXXZ ; std::_Throw_bad_array_new_length
$LN24@Reallocate:
  0006b	cc		 int	 3
?_Reallocate_exactly@?$vector@PAVCGraphicThingInstance@@V?$allocator@PAVCGraphicThingInstance@@@std@@@std@@AAEXI@Z ENDP ; std::vector<CGraphicThingInstance *,std::allocator<CGraphicThingInstance *> >::_Reallocate_exactly
_TEXT	ENDS
; Function compile flags: /Ogtp
; File C:\DS Project\DS Files\Source\ClientSource\Client\eterlib\Pool.h
;	COMDAT ?Delete@?$CDynamicPool@VCGraphicThingInstance@@@@KAXPAVCGraphicThingInstance@@@Z
_TEXT	SEGMENT
_pkData$ = 8						; size = 4
?Delete@?$CDynamicPool@VCGraphicThingInstance@@@@KAXPAVCGraphicThingInstance@@@Z PROC ; CDynamicPool<CGraphicThingInstance>::Delete, COMDAT

; 109  : 		{

  00000	55		 push	 ebp
  00001	8b ec		 mov	 ebp, esp

; 110  : 			delete pkData;

  00003	8b 4d 08	 mov	 ecx, DWORD PTR _pkData$[ebp]
  00006	85 c9		 test	 ecx, ecx
  00008	74 06		 je	 SHORT $LN3@Delete
  0000a	8b 01		 mov	 eax, DWORD PTR [ecx]
  0000c	6a 01		 push	 1
  0000e	ff 10		 call	 DWORD PTR [eax]
$LN3@Delete:

; 111  : 		}

  00010	5d		 pop	 ebp
  00011	c3		 ret	 0
?Delete@?$CDynamicPool@VCGraphicThingInstance@@@@KAXPAVCGraphicThingInstance@@@Z ENDP ; CDynamicPool<CGraphicThingInstance>::Delete
_TEXT	ENDS
; Function compile flags: /Ogtp
; File C:\DS Project\DS Files\Source\ClientSource\Client\eterlib\Pool.h
; File C:\Program Files (x86)\Microsoft Visual Studio\2019\Community\VC\Tools\MSVC\14.27.29110\include\vector
; File C:\Program Files (x86)\Microsoft Visual Studio\2019\Community\VC\Tools\MSVC\14.27.29110\include\xmemory
; File C:\Program Files (x86)\Microsoft Visual Studio\2019\Community\VC\Tools\MSVC\14.27.29110\include\vector
; File C:\Program Files (x86)\Microsoft Visual Studio\2019\Community\VC\Tools\MSVC\14.27.29110\include\xmemory
; File C:\Program Files (x86)\Microsoft Visual Studio\2019\Community\VC\Tools\MSVC\14.27.29110\include\vector
; File C:\Program Files (x86)\Microsoft Visual Studio\2019\Community\VC\Tools\MSVC\14.27.29110\include\xmemory
; File C:\Program Files (x86)\Microsoft Visual Studio\2019\Community\VC\Tools\MSVC\14.27.29110\include\vector
; File C:\Program Files (x86)\Microsoft Visual Studio\2019\Community\VC\Tools\MSVC\14.27.29110\include\xmemory
; File C:\Program Files (x86)\Microsoft Visual Studio\2019\Community\VC\Tools\MSVC\14.27.29110\include\vector
; File C:\DS Project\DS Files\Source\ClientSource\Client\eterlib\Pool.h
;	COMDAT ??1?$CDynamicPool@VCGraphicThingInstance@@@@UAE@XZ
_TEXT	SEGMENT
??1?$CDynamicPool@VCGraphicThingInstance@@@@UAE@XZ PROC	; CDynamicPool<CGraphicThingInstance>::~CDynamicPool<CGraphicThingInstance>, COMDAT
; _this$ = ecx

; 18   : 		{

  00000	56		 push	 esi
  00001	8b f1		 mov	 esi, ecx
  00003	c7 06 00 00 00
	00		 mov	 DWORD PTR [esi], OFFSET ??_7?$CDynamicPool@VCGraphicThingInstance@@@@6B@
; File C:\Program Files (x86)\Microsoft Visual Studio\2019\Community\VC\Tools\MSVC\14.27.29110\include\vector

; 1693 :         if (_Myfirst) { // destroy and deallocate old array

  00009	8b 4e 10	 mov	 ecx, DWORD PTR [esi+16]
  0000c	85 c9		 test	 ecx, ecx
  0000e	74 27		 je	 SHORT $LN6@CDynamicPo

; 1694 :             _Destroy(_Myfirst, _Mylast);
; 1695 :             _Getal().deallocate(_Myfirst, static_cast<size_type>(_Myend - _Myfirst));

  00010	8b 46 18	 mov	 eax, DWORD PTR [esi+24]
  00013	2b c1		 sub	 eax, ecx
; File C:\Program Files (x86)\Microsoft Visual Studio\2019\Community\VC\Tools\MSVC\14.27.29110\include\xmemory

; 803  :         _Deallocate<_New_alignof<_Ty>>(_Ptr, sizeof(_Ty) * _Count);

  00015	83 e0 fc	 and	 eax, -4			; fffffffcH
  00018	50		 push	 eax
  00019	51		 push	 ecx
  0001a	e8 00 00 00 00	 call	 ??$_Deallocate@$07$0A@@std@@YAXPAXI@Z ; std::_Deallocate<8,0>
; File C:\Program Files (x86)\Microsoft Visual Studio\2019\Community\VC\Tools\MSVC\14.27.29110\include\vector

; 1697 :             _Myfirst = pointer();

  0001f	c7 46 10 00 00
	00 00		 mov	 DWORD PTR [esi+16], 0
; File C:\Program Files (x86)\Microsoft Visual Studio\2019\Community\VC\Tools\MSVC\14.27.29110\include\xmemory

; 803  :         _Deallocate<_New_alignof<_Ty>>(_Ptr, sizeof(_Ty) * _Count);

  00026	83 c4 08	 add	 esp, 8
; File C:\Program Files (x86)\Microsoft Visual Studio\2019\Community\VC\Tools\MSVC\14.27.29110\include\vector

; 1698 :             _Mylast  = pointer();

  00029	c7 46 14 00 00
	00 00		 mov	 DWORD PTR [esi+20], 0

; 1699 :             _Myend   = pointer();

  00030	c7 46 18 00 00
	00 00		 mov	 DWORD PTR [esi+24], 0
$LN6@CDynamicPo:

; 1693 :         if (_Myfirst) { // destroy and deallocate old array

  00037	8b 4e 04	 mov	 ecx, DWORD PTR [esi+4]
  0003a	85 c9		 test	 ecx, ecx
  0003c	74 27		 je	 SHORT $LN13@CDynamicPo

; 1694 :             _Destroy(_Myfirst, _Mylast);
; 1695 :             _Getal().deallocate(_Myfirst, static_cast<size_type>(_Myend - _Myfirst));

  0003e	8b 46 0c	 mov	 eax, DWORD PTR [esi+12]
  00041	2b c1		 sub	 eax, ecx
; File C:\Program Files (x86)\Microsoft Visual Studio\2019\Community\VC\Tools\MSVC\14.27.29110\include\xmemory

; 803  :         _Deallocate<_New_alignof<_Ty>>(_Ptr, sizeof(_Ty) * _Count);

  00043	83 e0 fc	 and	 eax, -4			; fffffffcH
  00046	50		 push	 eax
  00047	51		 push	 ecx
  00048	e8 00 00 00 00	 call	 ??$_Deallocate@$07$0A@@std@@YAXPAXI@Z ; std::_Deallocate<8,0>
; File C:\Program Files (x86)\Microsoft Visual Studio\2019\Community\VC\Tools\MSVC\14.27.29110\include\vector

; 1697 :             _Myfirst = pointer();

  0004d	c7 46 04 00 00
	00 00		 mov	 DWORD PTR [esi+4], 0
; File C:\Program Files (x86)\Microsoft Visual Studio\2019\Community\VC\Tools\MSVC\14.27.29110\include\xmemory

; 803  :         _Deallocate<_New_alignof<_Ty>>(_Ptr, sizeof(_Ty) * _Count);

  00054	83 c4 08	 add	 esp, 8
; File C:\Program Files (x86)\Microsoft Visual Studio\2019\Community\VC\Tools\MSVC\14.27.29110\include\vector

; 1698 :             _Mylast  = pointer();

  00057	c7 46 08 00 00
	00 00		 mov	 DWORD PTR [esi+8], 0

; 1699 :             _Myend   = pointer();

  0005e	c7 46 0c 00 00
	00 00		 mov	 DWORD PTR [esi+12], 0
$LN13@CDynamicPo:
  00065	5e		 pop	 esi
; File C:\DS Project\DS Files\Source\ClientSource\Client\eterlib\Pool.h

; 26   : 		}

  00066	c3		 ret	 0
??1?$CDynamicPool@VCGraphicThingInstance@@@@UAE@XZ ENDP	; CDynamicPool<CGraphicThingInstance>::~CDynamicPool<CGraphicThingInstance>
_TEXT	ENDS
; Function compile flags: /Ogtp
;	COMDAT ??_GCGraphicThingInstance@@UAEPAXI@Z
_TEXT	SEGMENT
___flags$ = 8						; size = 4
??_GCGraphicThingInstance@@UAEPAXI@Z PROC		; CGraphicThingInstance::`scalar deleting destructor', COMDAT
; _this$ = ecx
  00000	55		 push	 ebp
  00001	8b ec		 mov	 ebp, esp
  00003	56		 push	 esi
  00004	8b f1		 mov	 esi, ecx
  00006	e8 00 00 00 00	 call	 ??1CGraphicThingInstance@@UAE@XZ ; CGraphicThingInstance::~CGraphicThingInstance
  0000b	f6 45 08 01	 test	 BYTE PTR ___flags$[ebp], 1
  0000f	74 0e		 je	 SHORT $LN4@scalar
  00011	68 a8 02 00 00	 push	 680			; 000002a8H
  00016	56		 push	 esi
  00017	e8 00 00 00 00	 call	 ??3@YAXPAXI@Z		; operator delete
  0001c	83 c4 08	 add	 esp, 8
$LN4@scalar:
  0001f	8b c6		 mov	 eax, esi
  00021	5e		 pop	 esi
  00022	5d		 pop	 ebp
  00023	c2 04 00	 ret	 4
??_GCGraphicThingInstance@@UAEPAXI@Z ENDP		; CGraphicThingInstance::`scalar deleting destructor'
_TEXT	ENDS
; Function compile flags: /Ogtp
; File C:\DS Project\DS Files\Source\ClientSource\Client\eterGrnLib\ThingInstance.cpp
; File C:\Program Files (x86)\Microsoft Visual Studio\2019\Community\VC\Tools\MSVC\14.27.29110\include\vector
; File C:\DS Project\DS Files\Source\ClientSource\Client\eterGrnLib\ThingInstance.cpp
; File C:\DS Project\DS Files\Source\ClientSource\Client\eterGrnLib\LODController.h
; File C:\DS Project\DS Files\Source\ClientSource\Client\eterGrnLib\ThingInstance.cpp
; File C:\Program Files (x86)\Microsoft Visual Studio\2019\Community\VC\Tools\MSVC\14.27.29110\include\vector
; File C:\DS Project\DS Files\Source\ClientSource\Client\eterGrnLib\ThingInstance.cpp
; File C:\Program Files (x86)\Microsoft Visual Studio\2019\Community\VC\Tools\MSVC\14.27.29110\include\vector
; File C:\DS Project\DS Files\Source\ClientSource\Client\eterGrnLib\ThingInstance.cpp
;	COMDAT ?HaveBlendThing@CGraphicThingInstance@@QAE_NXZ
_TEXT	SEGMENT
?HaveBlendThing@CGraphicThingInstance@@QAE_NXZ PROC	; CGraphicThingInstance::HaveBlendThing, COMDAT
; _this$ = ecx

; 944  : {

  00000	53		 push	 ebx
  00001	8b d9		 mov	 ebx, ecx
  00003	56		 push	 esi

; 945  : 	for (int i = 0; i < m_LODControllerVector.size(); i++)

  00004	33 f6		 xor	 esi, esi
  00006	57		 push	 edi
; File C:\Program Files (x86)\Microsoft Visual Studio\2019\Community\VC\Tools\MSVC\14.27.29110\include\vector

; 1484 :         return static_cast<size_type>(_My_data._Mylast - _My_data._Myfirst);

  00007	8b 83 8c 02 00
	00		 mov	 eax, DWORD PTR [ebx+652]
  0000d	8b 93 88 02 00
	00		 mov	 edx, DWORD PTR [ebx+648]
  00013	2b c2		 sub	 eax, edx
  00015	c1 f8 02	 sar	 eax, 2
; File C:\DS Project\DS Files\Source\ClientSource\Client\eterGrnLib\ThingInstance.cpp

; 945  : 	for (int i = 0; i < m_LODControllerVector.size(); i++)

  00018	85 c0		 test	 eax, eax
  0001a	74 3b		 je	 SHORT $LN23@HaveBlendT
  0001c	0f 1f 40 00	 npad	 4
$LL4@HaveBlendT:

; 947  : 		if (m_LODControllerVector[i]->HaveBlendThing())

  00020	8b 3c b2	 mov	 edi, DWORD PTR [edx+esi*4]
; File C:\DS Project\DS Files\Source\ClientSource\Client\eterGrnLib\LODController.h

; 272  : 		bool	HaveBlendThing() { return 0 != GetModelInstance() ? GetModelInstance()->HaveBlendThing() : false; }

  00023	8b cf		 mov	 ecx, edi
  00025	e8 00 00 00 00	 call	 ?GetModelInstance@CGrannyLODController@@QAEPAVCGrannyModelInstance@@XZ ; CGrannyLODController::GetModelInstance
  0002a	85 c0		 test	 eax, eax
  0002c	74 13		 je	 SHORT $LN22@HaveBlendT
  0002e	8b cf		 mov	 ecx, edi
  00030	e8 00 00 00 00	 call	 ?GetModelInstance@CGrannyLODController@@QAEPAVCGrannyModelInstance@@XZ ; CGrannyLODController::GetModelInstance
; File C:\DS Project\DS Files\Source\ClientSource\Client\eterGrnLib\ThingInstance.cpp

; 947  : 		if (m_LODControllerVector[i]->HaveBlendThing())

  00035	8b 40 04	 mov	 eax, DWORD PTR [eax+4]
  00038	80 b8 88 00 00
	00 00		 cmp	 BYTE PTR [eax+136], 0
  0003f	75 1c		 jne	 SHORT $LN18@HaveBlendT
$LN22@HaveBlendT:
; File C:\Program Files (x86)\Microsoft Visual Studio\2019\Community\VC\Tools\MSVC\14.27.29110\include\vector

; 1484 :         return static_cast<size_type>(_My_data._Mylast - _My_data._Myfirst);

  00041	8b 83 8c 02 00
	00		 mov	 eax, DWORD PTR [ebx+652]
; File C:\DS Project\DS Files\Source\ClientSource\Client\eterGrnLib\ThingInstance.cpp

; 945  : 	for (int i = 0; i < m_LODControllerVector.size(); i++)

  00047	46		 inc	 esi
; File C:\Program Files (x86)\Microsoft Visual Studio\2019\Community\VC\Tools\MSVC\14.27.29110\include\vector

; 1484 :         return static_cast<size_type>(_My_data._Mylast - _My_data._Myfirst);

  00048	8b 93 88 02 00
	00		 mov	 edx, DWORD PTR [ebx+648]
  0004e	2b c2		 sub	 eax, edx
  00050	c1 f8 02	 sar	 eax, 2
; File C:\DS Project\DS Files\Source\ClientSource\Client\eterGrnLib\ThingInstance.cpp

; 945  : 	for (int i = 0; i < m_LODControllerVector.size(); i++)

  00053	3b f0		 cmp	 esi, eax
  00055	72 c9		 jb	 SHORT $LL4@HaveBlendT
$LN23@HaveBlendT:
  00057	5f		 pop	 edi

; 948  : 			return true;
; 949  : 	}
; 950  : 	return false;
; 951  : }

  00058	5e		 pop	 esi
  00059	32 c0		 xor	 al, al
  0005b	5b		 pop	 ebx
  0005c	c3		 ret	 0
$LN18@HaveBlendT:
  0005d	5f		 pop	 edi
  0005e	5e		 pop	 esi
  0005f	b0 01		 mov	 al, 1
  00061	5b		 pop	 ebx
  00062	c3		 ret	 0
?HaveBlendThing@CGraphicThingInstance@@QAE_NXZ ENDP	; CGraphicThingInstance::HaveBlendThing
_TEXT	ENDS
; Function compile flags: /Ogtp
; File C:\DS Project\DS Files\Source\ClientSource\Client\eterGrnLib\ThingInstance.cpp
; File C:\Program Files (x86)\Microsoft Visual Studio\2019\Community\VC\Tools\MSVC\14.27.29110\include\vector
; File C:\DS Project\DS Files\Source\ClientSource\Client\eterGrnLib\ThingInstance.cpp
; File C:\Program Files (x86)\Microsoft Visual Studio\2019\Community\VC\Tools\MSVC\14.27.29110\include\vector
; File C:\DS Project\DS Files\Source\ClientSource\Client\eterGrnLib\ThingInstance.cpp
; File C:\Program Files (x86)\Microsoft Visual Studio\2019\Community\VC\Tools\MSVC\14.27.29110\include\vector
; File C:\DS Project\DS Files\Source\ClientSource\Client\eterGrnLib\ThingInstance.cpp
;	COMDAT ?Delete@CGraphicThingInstance@@SAXPAV1@@Z
_TEXT	SEGMENT
_pkData$ = 8						; size = 4
_pkThingInst$ = 8					; size = 4
?Delete@CGraphicThingInstance@@SAXPAV1@@Z PROC		; CGraphicThingInstance::Delete, COMDAT

; 49   : {

  00000	55		 push	 ebp
  00001	8b ec		 mov	 ebp, esp
  00003	56		 push	 esi

; 50   : 	pkThingInst->Clear();

  00004	8b 75 08	 mov	 esi, DWORD PTR _pkThingInst$[ebp]
  00007	8b ce		 mov	 ecx, esi
  00009	e8 00 00 00 00	 call	 ?Clear@CGraphicObjectInstance@@QAEXXZ ; CGraphicObjectInstance::Clear
; File C:\Program Files (x86)\Microsoft Visual Studio\2019\Community\VC\Tools\MSVC\14.27.29110\include\vector

; 704  :         if (_Mylast != _My_data._Myend) {

  0000e	a1 14 00 00 00	 mov	 eax, DWORD PTR ?ms_kPool@CGraphicThingInstance@@2V?$CDynamicPool@VCGraphicThingInstance@@@@A+20
; File C:\DS Project\DS Files\Source\ClientSource\Client\eterGrnLib\ThingInstance.cpp

; 51   : 	ms_kPool.Free(pkThingInst);

  00013	89 75 08	 mov	 DWORD PTR _pkData$[ebp], esi
; File C:\Program Files (x86)\Microsoft Visual Studio\2019\Community\VC\Tools\MSVC\14.27.29110\include\vector

; 704  :         if (_Mylast != _My_data._Myend) {

  00016	3b 05 18 00 00
	00		 cmp	 eax, DWORD PTR ?ms_kPool@CGraphicThingInstance@@2V?$CDynamicPool@VCGraphicThingInstance@@@@A+24
  0001c	74 0c		 je	 SHORT $LN8@Delete

; 687  :         _Alty_traits::construct(_Getal(), _Unfancy(_Mylast), _STD forward<_Valty>(_Val)...);

  0001e	89 30		 mov	 DWORD PTR [eax], esi

; 688  :         _Orphan_range(_Mylast, _Mylast);
; 689  :         _Ty& _Result = *_Mylast;
; 690  :         ++_Mylast;

  00020	83 05 14 00 00
	00 04		 add	 DWORD PTR ?ms_kPool@CGraphicThingInstance@@2V?$CDynamicPool@VCGraphicThingInstance@@@@A+20, 4
  00027	5e		 pop	 esi
; File C:\DS Project\DS Files\Source\ClientSource\Client\eterGrnLib\ThingInstance.cpp

; 52   : }

  00028	5d		 pop	 ebp
  00029	c3		 ret	 0
$LN8@Delete:
; File C:\Program Files (x86)\Microsoft Visual Studio\2019\Community\VC\Tools\MSVC\14.27.29110\include\vector

; 708  :         _Ty& _Result = *_Emplace_reallocate(_Mylast, _STD forward<_Valty>(_Val)...);

  0002a	8d 4d 08	 lea	 ecx, DWORD PTR _pkData$[ebp]
  0002d	51		 push	 ecx
  0002e	50		 push	 eax
  0002f	b9 10 00 00 00	 mov	 ecx, OFFSET ?ms_kPool@CGraphicThingInstance@@2V?$CDynamicPool@VCGraphicThingInstance@@@@A+16
  00034	e8 00 00 00 00	 call	 ??$_Emplace_reallocate@ABQAVCGraphicThingInstance@@@?$vector@PAVCGraphicThingInstance@@V?$allocator@PAVCGraphicThingInstance@@@std@@@std@@QAEPAPAVCGraphicThingInstance@@QAPAV2@ABQAV2@@Z ; std::vector<CGraphicThingInstance *,std::allocator<CGraphicThingInstance *> >::_Emplace_reallocate<CGraphicThingInstance * const &>
  00039	5e		 pop	 esi
; File C:\DS Project\DS Files\Source\ClientSource\Client\eterGrnLib\ThingInstance.cpp

; 52   : }

  0003a	5d		 pop	 ebp
  0003b	c3		 ret	 0
?Delete@CGraphicThingInstance@@SAXPAV1@@Z ENDP		; CGraphicThingInstance::Delete
_TEXT	ENDS
; Function compile flags: /Ogtp
; File C:\DS Project\DS Files\Source\ClientSource\Client\eterGrnLib\ThingInstance.cpp
; File C:\DS Project\DS Files\Source\ClientSource\Client\eterlib\Pool.h
; File C:\Program Files (x86)\Microsoft Visual Studio\2019\Community\VC\Tools\MSVC\14.27.29110\include\vector
; File C:\DS Project\DS Files\Source\ClientSource\Client\eterlib\Pool.h
; File C:\Program Files (x86)\Microsoft Visual Studio\2019\Community\VC\Tools\MSVC\14.27.29110\include\vector
; File C:\DS Project\DS Files\Source\ClientSource\Client\eterGrnLib\ThingInstance.cpp
; File C:\Program Files (x86)\Microsoft Visual Studio\2019\Community\VC\Tools\MSVC\14.27.29110\include\vector
; File C:\DS Project\DS Files\Source\ClientSource\Client\eterlib\Pool.h
; File C:\DS Project\DS Files\Source\ClientSource\Client\eterGrnLib\ThingInstance.cpp
; File C:\Program Files (x86)\Microsoft Visual Studio\2019\Community\VC\Tools\MSVC\14.27.29110\include\vector
; File C:\DS Project\DS Files\Source\ClientSource\Client\eterlib\Pool.h
; File C:\DS Project\DS Files\Source\ClientSource\Client\eterGrnLib\ThingInstance.cpp
; File C:\DS Project\DS Files\Source\ClientSource\Client\eterlib\Pool.h
; File C:\Program Files (x86)\Microsoft Visual Studio\2019\Community\VC\Tools\MSVC\14.27.29110\include\vector
; File C:\DS Project\DS Files\Source\ClientSource\Client\eterGrnLib\ThingInstance.cpp
;	COMDAT ?New@CGraphicThingInstance@@SAPAV1@XZ
_TEXT	SEGMENT
$T2 = -16						; size = 4
_pkNewData$3 = -16					; size = 4
__$EHRec$ = -12						; size = 12
?New@CGraphicThingInstance@@SAPAV1@XZ PROC		; CGraphicThingInstance::New, COMDAT

; 44   : {

  00000	55		 push	 ebp
  00001	8b ec		 mov	 ebp, esp
  00003	6a ff		 push	 -1
  00005	68 00 00 00 00	 push	 __ehhandler$?New@CGraphicThingInstance@@SAPAV1@XZ
  0000a	64 a1 00 00 00
	00		 mov	 eax, DWORD PTR fs:0
  00010	50		 push	 eax
  00011	51		 push	 ecx
  00012	56		 push	 esi
  00013	a1 00 00 00 00	 mov	 eax, DWORD PTR ___security_cookie
  00018	33 c5		 xor	 eax, ebp
  0001a	50		 push	 eax
  0001b	8d 45 f4	 lea	 eax, DWORD PTR __$EHRec$[ebp]
  0001e	64 a3 00 00 00
	00		 mov	 DWORD PTR fs:0, eax
; File C:\DS Project\DS Files\Source\ClientSource\Client\eterlib\Pool.h

; 63   : 			if (m_kVct_pkFree.empty())

  00024	8b 0d 14 00 00
	00		 mov	 ecx, DWORD PTR ?ms_kPool@CGraphicThingInstance@@2V?$CDynamicPool@VCGraphicThingInstance@@@@A+20
  0002a	39 0d 10 00 00
	00		 cmp	 DWORD PTR ?ms_kPool@CGraphicThingInstance@@2V?$CDynamicPool@VCGraphicThingInstance@@@@A+16, ecx
  00030	0f 85 87 00 00
	00		 jne	 $LN4@New

; 65   : 				T* pkNewData=new T;

  00036	68 a8 02 00 00	 push	 680			; 000002a8H
  0003b	e8 00 00 00 00	 call	 ??2@YAPAXI@Z		; operator new
  00040	83 c4 04	 add	 esp, 4
  00043	89 45 f0	 mov	 DWORD PTR $T2[ebp], eax
  00046	c7 45 fc 00 00
	00 00		 mov	 DWORD PTR __$EHRec$[ebp+8], 0
  0004d	85 c0		 test	 eax, eax
  0004f	74 0b		 je	 SHORT $LN6@New
  00051	8b c8		 mov	 ecx, eax
  00053	e8 00 00 00 00	 call	 ??0CGraphicThingInstance@@QAE@XZ ; CGraphicThingInstance::CGraphicThingInstance
  00058	8b f0		 mov	 esi, eax
  0005a	eb 02		 jmp	 SHORT $LN7@New
$LN6@New:
  0005c	33 f6		 xor	 esi, esi
$LN7@New:
; File C:\Program Files (x86)\Microsoft Visual Studio\2019\Community\VC\Tools\MSVC\14.27.29110\include\vector

; 704  :         if (_Mylast != _My_data._Myend) {

  0005e	a1 08 00 00 00	 mov	 eax, DWORD PTR ?ms_kPool@CGraphicThingInstance@@2V?$CDynamicPool@VCGraphicThingInstance@@@@A+8
; File C:\DS Project\DS Files\Source\ClientSource\Client\eterlib\Pool.h

; 65   : 				T* pkNewData=new T;

  00063	c7 45 fc ff ff
	ff ff		 mov	 DWORD PTR __$EHRec$[ebp+8], -1
  0006a	89 75 f0	 mov	 DWORD PTR _pkNewData$3[ebp], esi
; File C:\Program Files (x86)\Microsoft Visual Studio\2019\Community\VC\Tools\MSVC\14.27.29110\include\vector

; 704  :         if (_Mylast != _My_data._Myend) {

  0006d	3b 05 0c 00 00
	00		 cmp	 eax, DWORD PTR ?ms_kPool@CGraphicThingInstance@@2V?$CDynamicPool@VCGraphicThingInstance@@@@A+12
  00073	74 21		 je	 SHORT $LN14@New

; 687  :         _Alty_traits::construct(_Getal(), _Unfancy(_Mylast), _STD forward<_Valty>(_Val)...);

  00075	89 30		 mov	 DWORD PTR [eax], esi
; File C:\DS Project\DS Files\Source\ClientSource\Client\eterGrnLib\ThingInstance.cpp

; 45   : 	return ms_kPool.Alloc();

  00077	8b c6		 mov	 eax, esi
; File C:\Program Files (x86)\Microsoft Visual Studio\2019\Community\VC\Tools\MSVC\14.27.29110\include\vector

; 690  :         ++_Mylast;

  00079	83 05 08 00 00
	00 04		 add	 DWORD PTR ?ms_kPool@CGraphicThingInstance@@2V?$CDynamicPool@VCGraphicThingInstance@@@@A+8, 4
; File C:\DS Project\DS Files\Source\ClientSource\Client\eterlib\Pool.h

; 67   : 				++m_uUsedCapacity;

  00080	ff 05 20 00 00
	00		 inc	 DWORD PTR ?ms_kPool@CGraphicThingInstance@@2V?$CDynamicPool@VCGraphicThingInstance@@@@A+32
; File C:\DS Project\DS Files\Source\ClientSource\Client\eterGrnLib\ThingInstance.cpp

; 46   : }

  00086	8b 4d f4	 mov	 ecx, DWORD PTR __$EHRec$[ebp]
  00089	64 89 0d 00 00
	00 00		 mov	 DWORD PTR fs:0, ecx
  00090	59		 pop	 ecx
  00091	5e		 pop	 esi
  00092	8b e5		 mov	 esp, ebp
  00094	5d		 pop	 ebp
  00095	c3		 ret	 0
$LN14@New:
; File C:\Program Files (x86)\Microsoft Visual Studio\2019\Community\VC\Tools\MSVC\14.27.29110\include\vector

; 708  :         _Ty& _Result = *_Emplace_reallocate(_Mylast, _STD forward<_Valty>(_Val)...);

  00096	8d 4d f0	 lea	 ecx, DWORD PTR _pkNewData$3[ebp]
  00099	51		 push	 ecx
  0009a	50		 push	 eax
  0009b	b9 04 00 00 00	 mov	 ecx, OFFSET ?ms_kPool@CGraphicThingInstance@@2V?$CDynamicPool@VCGraphicThingInstance@@@@A+4
  000a0	e8 00 00 00 00	 call	 ??$_Emplace_reallocate@ABQAVCGraphicThingInstance@@@?$vector@PAVCGraphicThingInstance@@V?$allocator@PAVCGraphicThingInstance@@@std@@@std@@QAEPAPAVCGraphicThingInstance@@QAPAV2@ABQAV2@@Z ; std::vector<CGraphicThingInstance *,std::allocator<CGraphicThingInstance *> >::_Emplace_reallocate<CGraphicThingInstance * const &>
; File C:\DS Project\DS Files\Source\ClientSource\Client\eterlib\Pool.h

; 67   : 				++m_uUsedCapacity;

  000a5	ff 05 20 00 00
	00		 inc	 DWORD PTR ?ms_kPool@CGraphicThingInstance@@2V?$CDynamicPool@VCGraphicThingInstance@@@@A+32
; File C:\DS Project\DS Files\Source\ClientSource\Client\eterGrnLib\ThingInstance.cpp

; 45   : 	return ms_kPool.Alloc();

  000ab	8b c6		 mov	 eax, esi

; 46   : }

  000ad	8b 4d f4	 mov	 ecx, DWORD PTR __$EHRec$[ebp]
  000b0	64 89 0d 00 00
	00 00		 mov	 DWORD PTR fs:0, ecx
  000b7	59		 pop	 ecx
  000b8	5e		 pop	 esi
  000b9	8b e5		 mov	 esp, ebp
  000bb	5d		 pop	 ebp
  000bc	c3		 ret	 0
$LN4@New:
; File C:\DS Project\DS Files\Source\ClientSource\Client\eterlib\Pool.h

; 71   : 			T* pkFreeData=m_kVct_pkFree.back();

  000bd	8b 41 fc	 mov	 eax, DWORD PTR [ecx-4]
; File C:\Program Files (x86)\Microsoft Visual Studio\2019\Community\VC\Tools\MSVC\14.27.29110\include\vector

; 1559 :         return _My_data._Mylast[-1];

  000c0	83 c1 fc	 add	 ecx, -4			; fffffffcH

; 1338 :         --_Mylast;

  000c3	89 0d 14 00 00
	00		 mov	 DWORD PTR ?ms_kPool@CGraphicThingInstance@@2V?$CDynamicPool@VCGraphicThingInstance@@@@A+20, ecx
; File C:\DS Project\DS Files\Source\ClientSource\Client\eterGrnLib\ThingInstance.cpp

; 46   : }

  000c9	8b 4d f4	 mov	 ecx, DWORD PTR __$EHRec$[ebp]
  000cc	64 89 0d 00 00
	00 00		 mov	 DWORD PTR fs:0, ecx
  000d3	59		 pop	 ecx
  000d4	5e		 pop	 esi
  000d5	8b e5		 mov	 esp, ebp
  000d7	5d		 pop	 ebp
  000d8	c3		 ret	 0
_TEXT	ENDS
;	COMDAT text$x
text$x	SEGMENT
__unwindfunclet$?New@CGraphicThingInstance@@SAPAV1@XZ$0:
  00000	68 a8 02 00 00	 push	 680			; 000002a8H
  00005	8b 45 f0	 mov	 eax, DWORD PTR $T2[ebp]
  00008	50		 push	 eax
  00009	e8 00 00 00 00	 call	 ??3@YAXPAXI@Z		; operator delete
  0000e	83 c4 08	 add	 esp, 8
  00011	c3		 ret	 0
  00012	cc		 int	 3
  00013	cc		 int	 3
  00014	cc		 int	 3
  00015	cc		 int	 3
  00016	cc		 int	 3
__ehhandler$?New@CGraphicThingInstance@@SAPAV1@XZ:
  00017	90		 npad	 1
  00018	90		 npad	 1
  00019	8b 54 24 08	 mov	 edx, DWORD PTR [esp+8]
  0001d	8d 42 0c	 lea	 eax, DWORD PTR [edx+12]
  00020	8b 4a f4	 mov	 ecx, DWORD PTR [edx-12]
  00023	33 c8		 xor	 ecx, eax
  00025	e8 00 00 00 00	 call	 @__security_check_cookie@4
  0002a	b8 00 00 00 00	 mov	 eax, OFFSET __ehfuncinfo$?New@CGraphicThingInstance@@SAPAV1@XZ
  0002f	e9 00 00 00 00	 jmp	 ___CxxFrameHandler3
text$x	ENDS
?New@CGraphicThingInstance@@SAPAV1@XZ ENDP		; CGraphicThingInstance::New
; Function compile flags: /Ogtp
; File C:\DS Project\DS Files\Source\ClientSource\Client\eterGrnLib\ThingInstance.cpp
; File C:\Program Files (x86)\Microsoft Visual Studio\2019\Community\VC\Tools\MSVC\14.27.29110\include\algorithm
; File C:\DS Project\DS Files\Source\ClientSource\Client\eterGrnLib\ThingInstance.cpp
; File C:\Program Files (x86)\Microsoft Visual Studio\2019\Community\VC\Tools\MSVC\14.27.29110\include\algorithm
; File C:\DS Project\DS Files\Source\ClientSource\Client\eterlib\Pool.h
; File C:\Program Files (x86)\Microsoft Visual Studio\2019\Community\VC\Tools\MSVC\14.27.29110\include\algorithm
; File C:\DS Project\DS Files\Source\ClientSource\Client\eterlib\Pool.h
; File C:\DS Project\DS Files\Source\ClientSource\Client\eterGrnLib\ThingInstance.cpp
; File C:\DS Project\DS Files\Source\ClientSource\Client\eterlib\Pool.h
; File C:\DS Project\DS Files\Source\ClientSource\Client\eterGrnLib\ThingInstance.cpp
;	COMDAT ?DestroySystem@CGraphicThingInstance@@SAXXZ
_TEXT	SEGMENT
?DestroySystem@CGraphicThingInstance@@SAXXZ PROC	; CGraphicThingInstance::DestroySystem, COMDAT

; 39   : {

  00000	56		 push	 esi
; File C:\Program Files (x86)\Microsoft Visual Studio\2019\Community\VC\Tools\MSVC\14.27.29110\include\algorithm

; 235  :     for (; _UFirst != _ULast; ++_UFirst) {

  00001	8b 35 04 00 00
	00		 mov	 esi, DWORD PTR ?ms_kPool@CGraphicThingInstance@@2V?$CDynamicPool@VCGraphicThingInstance@@@@A+4
; File C:\DS Project\DS Files\Source\ClientSource\Client\eterGrnLib\ThingInstance.cpp

; 39   : {

  00007	57		 push	 edi
; File C:\Program Files (x86)\Microsoft Visual Studio\2019\Community\VC\Tools\MSVC\14.27.29110\include\algorithm

; 234  :     const auto _ULast = _Get_unwrapped(_Last);

  00008	8b 3d 08 00 00
	00		 mov	 edi, DWORD PTR ?ms_kPool@CGraphicThingInstance@@2V?$CDynamicPool@VCGraphicThingInstance@@@@A+8

; 235  :     for (; _UFirst != _ULast; ++_UFirst) {

  0000e	3b f7		 cmp	 esi, edi
  00010	74 2a		 je	 SHORT $LN30@DestroySys
$LL20@DestroySys:
; File C:\DS Project\DS Files\Source\ClientSource\Client\eterlib\Pool.h

; 110  : 			delete pkData;

  00012	8b 0e		 mov	 ecx, DWORD PTR [esi]
  00014	85 c9		 test	 ecx, ecx
  00016	74 06		 je	 SHORT $LN18@DestroySys
  00018	8b 01		 mov	 eax, DWORD PTR [ecx]
  0001a	6a 01		 push	 1
  0001c	ff 10		 call	 DWORD PTR [eax]
$LN18@DestroySys:
; File C:\Program Files (x86)\Microsoft Visual Studio\2019\Community\VC\Tools\MSVC\14.27.29110\include\algorithm

; 235  :     for (; _UFirst != _ULast; ++_UFirst) {

  0001e	83 c6 04	 add	 esi, 4
  00021	3b f7		 cmp	 esi, edi
  00023	75 ed		 jne	 SHORT $LL20@DestroySys
; File C:\DS Project\DS Files\Source\ClientSource\Client\eterlib\Pool.h

; 51   : 			m_kVct_pkData.clear();

  00025	a1 04 00 00 00	 mov	 eax, DWORD PTR ?ms_kPool@CGraphicThingInstance@@2V?$CDynamicPool@VCGraphicThingInstance@@@@A+4
  0002a	a3 08 00 00 00	 mov	 DWORD PTR ?ms_kPool@CGraphicThingInstance@@2V?$CDynamicPool@VCGraphicThingInstance@@@@A+8, eax
; File C:\DS Project\DS Files\Source\ClientSource\Client\eterGrnLib\ThingInstance.cpp

; 41   : }

  0002f	a1 10 00 00 00	 mov	 eax, DWORD PTR ?ms_kPool@CGraphicThingInstance@@2V?$CDynamicPool@VCGraphicThingInstance@@@@A+16
  00034	5f		 pop	 edi
  00035	a3 14 00 00 00	 mov	 DWORD PTR ?ms_kPool@CGraphicThingInstance@@2V?$CDynamicPool@VCGraphicThingInstance@@@@A+20, eax
  0003a	5e		 pop	 esi
  0003b	c3		 ret	 0
$LN30@DestroySys:
  0003c	a1 10 00 00 00	 mov	 eax, DWORD PTR ?ms_kPool@CGraphicThingInstance@@2V?$CDynamicPool@VCGraphicThingInstance@@@@A+16
  00041	5f		 pop	 edi
; File C:\DS Project\DS Files\Source\ClientSource\Client\eterlib\Pool.h

; 51   : 			m_kVct_pkData.clear();

  00042	89 35 08 00 00
	00		 mov	 DWORD PTR ?ms_kPool@CGraphicThingInstance@@2V?$CDynamicPool@VCGraphicThingInstance@@@@A+8, esi
; File C:\DS Project\DS Files\Source\ClientSource\Client\eterGrnLib\ThingInstance.cpp

; 41   : }

  00048	a3 14 00 00 00	 mov	 DWORD PTR ?ms_kPool@CGraphicThingInstance@@2V?$CDynamicPool@VCGraphicThingInstance@@@@A+20, eax
  0004d	5e		 pop	 esi
  0004e	c3		 ret	 0
?DestroySystem@CGraphicThingInstance@@SAXXZ ENDP	; CGraphicThingInstance::DestroySystem
_TEXT	ENDS
; Function compile flags: /Ogtp
; File C:\DS Project\DS Files\Source\ClientSource\Client\eterGrnLib\ThingInstance.cpp
; File C:\Program Files (x86)\Microsoft Visual Studio\2019\Community\VC\Tools\MSVC\14.27.29110\include\vector
; File C:\DS Project\DS Files\Source\ClientSource\Client\eterGrnLib\ThingInstance.cpp
; File C:\DS Project\DS Files\Source\ClientSource\Client\eterlib\Pool.h
; File C:\Program Files (x86)\Microsoft Visual Studio\2019\Community\VC\Tools\MSVC\14.27.29110\include\vector
; File C:\DS Project\DS Files\Source\ClientSource\Client\eterlib\Pool.h
; File C:\Program Files (x86)\Microsoft Visual Studio\2019\Community\VC\Tools\MSVC\14.27.29110\include\vector
; File C:\DS Project\DS Files\Source\ClientSource\Client\eterGrnLib\ThingInstance.cpp
; File C:\Program Files (x86)\Microsoft Visual Studio\2019\Community\VC\Tools\MSVC\14.27.29110\include\vector
; File C:\DS Project\DS Files\Source\ClientSource\Client\eterGrnLib\ThingInstance.cpp
;	COMDAT ?CreateSystem@CGraphicThingInstance@@SAXI@Z
_TEXT	SEGMENT
_uCapacity$ = 8						; size = 4
?CreateSystem@CGraphicThingInstance@@SAXI@Z PROC	; CGraphicThingInstance::CreateSystem, COMDAT

; 34   : {

  00000	55		 push	 ebp
  00001	8b ec		 mov	 ebp, esp
; File C:\Program Files (x86)\Microsoft Visual Studio\2019\Community\VC\Tools\MSVC\14.27.29110\include\vector

; 1494 :         return static_cast<size_type>(_My_data._Myend - _My_data._Myfirst);

  00003	a1 0c 00 00 00	 mov	 eax, DWORD PTR ?ms_kPool@CGraphicThingInstance@@2V?$CDynamicPool@VCGraphicThingInstance@@@@A+12
  00008	2b 05 04 00 00
	00		 sub	 eax, DWORD PTR ?ms_kPool@CGraphicThingInstance@@2V?$CDynamicPool@VCGraphicThingInstance@@@@A+4
; File C:\DS Project\DS Files\Source\ClientSource\Client\eterGrnLib\ThingInstance.cpp

; 34   : {

  0000e	56		 push	 esi
; File C:\DS Project\DS Files\Source\ClientSource\Client\eterlib\Pool.h

; 57   : 			m_uInitCapacity=uCapacity;

  0000f	8b 75 08	 mov	 esi, DWORD PTR _uCapacity$[ebp]
; File C:\Program Files (x86)\Microsoft Visual Studio\2019\Community\VC\Tools\MSVC\14.27.29110\include\vector

; 1494 :         return static_cast<size_type>(_My_data._Myend - _My_data._Myfirst);

  00012	c1 f8 02	 sar	 eax, 2
; File C:\DS Project\DS Files\Source\ClientSource\Client\eterlib\Pool.h

; 57   : 			m_uInitCapacity=uCapacity;

  00015	89 35 1c 00 00
	00		 mov	 DWORD PTR ?ms_kPool@CGraphicThingInstance@@2V?$CDynamicPool@VCGraphicThingInstance@@@@A+28, esi
; File C:\Program Files (x86)\Microsoft Visual Studio\2019\Community\VC\Tools\MSVC\14.27.29110\include\vector

; 1306 :         if (_Newcapacity > capacity()) { // something to do (reserve() never shrinks)

  0001b	3b f0		 cmp	 esi, eax
  0001d	76 13		 jbe	 SHORT $LN6@CreateSyst

; 1307 :             if (_Newcapacity > max_size()) {

  0001f	81 fe ff ff ff
	3f		 cmp	 esi, 1073741823		; 3fffffffH
  00025	77 33		 ja	 SHORT $LN19@CreateSyst

; 1309 :             }
; 1310 : 
; 1311 :             _Reallocate_exactly(_Newcapacity);

  00027	56		 push	 esi
  00028	b9 04 00 00 00	 mov	 ecx, OFFSET ?ms_kPool@CGraphicThingInstance@@2V?$CDynamicPool@VCGraphicThingInstance@@@@A+4
  0002d	e8 00 00 00 00	 call	 ?_Reallocate_exactly@?$vector@PAVCGraphicThingInstance@@V?$allocator@PAVCGraphicThingInstance@@@std@@@std@@AAEXI@Z ; std::vector<CGraphicThingInstance *,std::allocator<CGraphicThingInstance *> >::_Reallocate_exactly
$LN6@CreateSyst:

; 1494 :         return static_cast<size_type>(_My_data._Myend - _My_data._Myfirst);

  00032	a1 18 00 00 00	 mov	 eax, DWORD PTR ?ms_kPool@CGraphicThingInstance@@2V?$CDynamicPool@VCGraphicThingInstance@@@@A+24
  00037	2b 05 10 00 00
	00		 sub	 eax, DWORD PTR ?ms_kPool@CGraphicThingInstance@@2V?$CDynamicPool@VCGraphicThingInstance@@@@A+16
  0003d	c1 f8 02	 sar	 eax, 2

; 1306 :         if (_Newcapacity > capacity()) { // something to do (reserve() never shrinks)

  00040	3b f0		 cmp	 esi, eax
  00042	76 13		 jbe	 SHORT $LN13@CreateSyst

; 1307 :             if (_Newcapacity > max_size()) {

  00044	81 fe ff ff ff
	3f		 cmp	 esi, 1073741823		; 3fffffffH
  0004a	77 0e		 ja	 SHORT $LN19@CreateSyst

; 1309 :             }
; 1310 : 
; 1311 :             _Reallocate_exactly(_Newcapacity);

  0004c	56		 push	 esi
  0004d	b9 10 00 00 00	 mov	 ecx, OFFSET ?ms_kPool@CGraphicThingInstance@@2V?$CDynamicPool@VCGraphicThingInstance@@@@A+16
  00052	e8 00 00 00 00	 call	 ?_Reallocate_exactly@?$vector@PAVCGraphicThingInstance@@V?$allocator@PAVCGraphicThingInstance@@@std@@@std@@AAEXI@Z ; std::vector<CGraphicThingInstance *,std::allocator<CGraphicThingInstance *> >::_Reallocate_exactly
$LN13@CreateSyst:
  00057	5e		 pop	 esi
; File C:\DS Project\DS Files\Source\ClientSource\Client\eterGrnLib\ThingInstance.cpp

; 36   : }

  00058	5d		 pop	 ebp
  00059	c3		 ret	 0
$LN19@CreateSyst:
; File C:\Program Files (x86)\Microsoft Visual Studio\2019\Community\VC\Tools\MSVC\14.27.29110\include\vector

; 1308 :                 _Xlength();

  0005a	e8 00 00 00 00	 call	 ?_Xlength@?$vector@PAVCGraphicThingInstance@@V?$allocator@PAVCGraphicThingInstance@@@std@@@std@@CAXXZ ; std::vector<CGraphicThingInstance *,std::allocator<CGraphicThingInstance *> >::_Xlength
$LN20@CreateSyst:
  0005f	cc		 int	 3
?CreateSystem@CGraphicThingInstance@@SAXI@Z ENDP	; CGraphicThingInstance::CreateSystem
_TEXT	ENDS
; Function compile flags: /Ogtp
; File C:\DS Project\DS Files\Source\ClientSource\Client\eterGrnLib\ThingInstance.cpp
;	COMDAT ?OnGetObjectHeight@CGraphicThingInstance@@MAE_NMMPAM@Z
_TEXT	SEGMENT
_fX$ = 8						; size = 4
_fY$ = 12						; size = 4
_pfHeight$ = 16						; size = 4
?OnGetObjectHeight@CGraphicThingInstance@@MAE_NMMPAM@Z PROC ; CGraphicThingInstance::OnGetObjectHeight, COMDAT
; _this$ = ecx

; 84   : {

  00000	55		 push	 ebp
  00001	8b ec		 mov	 ebp, esp

; 85   : 	if (m_pHeightAttributeInstance && m_pHeightAttributeInstance->GetHeight(fX, fY, pfHeight))

  00003	8b 89 44 02 00
	00		 mov	 ecx, DWORD PTR [ecx+580]
  00009	85 c9		 test	 ecx, ecx
  0000b	74 2a		 je	 SHORT $LN2@OnGetObjec
  0000d	ff 75 10	 push	 DWORD PTR _pfHeight$[ebp]
  00010	f3 0f 10 45 0c	 movss	 xmm0, DWORD PTR _fY$[ebp]
  00015	83 ec 08	 sub	 esp, 8
  00018	f3 0f 11 44 24
	04		 movss	 DWORD PTR [esp+4], xmm0
  0001e	f3 0f 10 45 08	 movss	 xmm0, DWORD PTR _fX$[ebp]
  00023	f3 0f 11 04 24	 movss	 DWORD PTR [esp], xmm0
  00028	e8 00 00 00 00	 call	 ?GetHeight@CAttributeInstance@@QAEHMMPAM@Z ; CAttributeInstance::GetHeight
  0002d	85 c0		 test	 eax, eax
  0002f	74 06		 je	 SHORT $LN2@OnGetObjec

; 86   : 		return true;

  00031	b0 01		 mov	 al, 1

; 88   : }

  00033	5d		 pop	 ebp
  00034	c2 0c 00	 ret	 12			; 0000000cH
$LN2@OnGetObjec:

; 87   : 	return false;

  00037	32 c0		 xor	 al, al

; 88   : }

  00039	5d		 pop	 ebp
  0003a	c2 0c 00	 ret	 12			; 0000000cH
?OnGetObjectHeight@CGraphicThingInstance@@MAE_NMMPAM@Z ENDP ; CGraphicThingInstance::OnGetObjectHeight
_TEXT	ENDS
; Function compile flags: /Ogtp
; File C:\DS Project\DS Files\Source\ClientSource\Client\eterGrnLib\ThingInstance.cpp
;	COMDAT ?OnUpdateHeighInstance@CGraphicThingInstance@@MAEXPAVCAttributeInstance@@@Z
_TEXT	SEGMENT
_pAttributeInstance$ = 8				; size = 4
?OnUpdateHeighInstance@CGraphicThingInstance@@MAEXPAVCAttributeInstance@@@Z PROC ; CGraphicThingInstance::OnUpdateHeighInstance, COMDAT
; _this$ = ecx

; 78   : {

  00000	55		 push	 ebp
  00001	8b ec		 mov	 ebp, esp

; 81   : }

  00003	5d		 pop	 ebp

; 79   : 	assert(pAttributeInstance);
; 80   : 	SetHeightInstance(pAttributeInstance);

  00004	e9 00 00 00 00	 jmp	 ?SetHeightInstance@CGraphicObjectInstance@@QAEXPAVCAttributeInstance@@@Z ; CGraphicObjectInstance::SetHeightInstance
?OnUpdateHeighInstance@CGraphicThingInstance@@MAEXPAVCAttributeInstance@@@Z ENDP ; CGraphicThingInstance::OnUpdateHeighInstance
_TEXT	ENDS
; Function compile flags: /Ogtp
; File C:\DS Project\DS Files\Source\ClientSource\Client\eterGrnLib\ThingInstance.cpp
; File C:\Program Files (x86)\Microsoft Visual Studio\2019\Community\VC\Tools\MSVC\14.27.29110\include\vector
; File C:\DS Project\DS Files\Source\ClientSource\Client\eterGrnLib\ThingInstance.cpp
; File C:\Program Files (x86)\Microsoft Visual Studio\2019\Community\VC\Tools\MSVC\14.27.29110\include\vector
; File C:\DS Project\DS Files\Source\ClientSource\Client\eterGrnLib\ThingInstance.cpp
; File C:\Program Files (x86)\Microsoft Visual Studio\2019\Community\VC\Tools\MSVC\14.27.29110\include\vector
; File C:\DS Project\DS Files\Source\ClientSource\Client\eterGrnLib\ThingInstance.cpp
;	COMDAT ?OnUpdateCollisionData@CGraphicThingInstance@@MAEXPBV?$vector@VCStaticCollisionData@@V?$allocator@VCStaticCollisionData@@@std@@@std@@@Z
_TEXT	SEGMENT
_pscdVector$ = 8					; size = 4
?OnUpdateCollisionData@CGraphicThingInstance@@MAEXPBV?$vector@VCStaticCollisionData@@V?$allocator@VCStaticCollisionData@@@std@@@std@@@Z PROC ; CGraphicThingInstance::OnUpdateCollisionData, COMDAT
; _this$ = ecx

; 68   : {

  00000	55		 push	 ebp
  00001	8b ec		 mov	 ebp, esp
  00003	53		 push	 ebx
; File C:\Program Files (x86)\Microsoft Visual Studio\2019\Community\VC\Tools\MSVC\14.27.29110\include\vector

; 42   :     _Vector_const_iterator(_Tptr _Parg, const _Container_base* _Pvector) noexcept : _Ptr(_Parg) {

  00004	8b 5d 08	 mov	 ebx, DWORD PTR _pscdVector$[ebp]
; File C:\DS Project\DS Files\Source\ClientSource\Client\eterGrnLib\ThingInstance.cpp

; 68   : {

  00007	56		 push	 esi
  00008	57		 push	 edi
  00009	8b f9		 mov	 edi, ecx
; File C:\Program Files (x86)\Microsoft Visual Studio\2019\Community\VC\Tools\MSVC\14.27.29110\include\vector

; 42   :     _Vector_const_iterator(_Tptr _Parg, const _Container_base* _Pvector) noexcept : _Ptr(_Parg) {

  0000b	8b 33		 mov	 esi, DWORD PTR [ebx]
  0000d	3b 73 04	 cmp	 esi, DWORD PTR [ebx+4]
; File C:\DS Project\DS Files\Source\ClientSource\Client\eterGrnLib\ThingInstance.cpp

; 71   : 	for(it = pscdVector->begin();it!=pscdVector->end();++it)

  00010	74 18		 je	 SHORT $LN3@OnUpdateCo
$LL4@OnUpdateCo:

; 72   : 	{
; 73   : 		AddCollision(&(*it),&GetTransform());

  00012	8b cf		 mov	 ecx, edi
  00014	e8 00 00 00 00	 call	 ?GetTransform@CGraphicObjectInstance@@QAEAAUD3DXMATRIX@@XZ ; CGraphicObjectInstance::GetTransform
  00019	50		 push	 eax
  0001a	56		 push	 esi
  0001b	8b cf		 mov	 ecx, edi
  0001d	e8 00 00 00 00	 call	 ?AddCollision@CGraphicObjectInstance@@QAEXPBVCStaticCollisionData@@PBUD3DXMATRIX@@@Z ; CGraphicObjectInstance::AddCollision
; File C:\Program Files (x86)\Microsoft Visual Studio\2019\Community\VC\Tools\MSVC\14.27.29110\include\vector

; 75   :         ++_Ptr;

  00022	83 c6 50	 add	 esi, 80			; 00000050H

; 149  :         return _Ptr == _Right._Ptr;

  00025	3b 73 04	 cmp	 esi, DWORD PTR [ebx+4]
; File C:\DS Project\DS Files\Source\ClientSource\Client\eterGrnLib\ThingInstance.cpp

; 71   : 	for(it = pscdVector->begin();it!=pscdVector->end();++it)

  00028	75 e8		 jne	 SHORT $LL4@OnUpdateCo
$LN3@OnUpdateCo:
  0002a	5f		 pop	 edi

; 74   : 	}
; 75   : }

  0002b	5e		 pop	 esi
  0002c	5b		 pop	 ebx
  0002d	5d		 pop	 ebp
  0002e	c2 04 00	 ret	 4
?OnUpdateCollisionData@CGraphicThingInstance@@MAEXPBV?$vector@VCStaticCollisionData@@V?$allocator@VCStaticCollisionData@@@std@@@std@@@Z ENDP ; CGraphicThingInstance::OnUpdateCollisionData
_TEXT	ENDS
; Function compile flags: /Ogtp
;	COMDAT ??1?$map@KPAV?$CRef@VCGraphicThing@@@@U?$less@K@std@@V?$allocator@U?$pair@$$CBKPAV?$CRef@VCGraphicThing@@@@@std@@@3@@std@@QAE@XZ
_TEXT	SEGMENT
??1?$map@KPAV?$CRef@VCGraphicThing@@@@U?$less@K@std@@V?$allocator@U?$pair@$$CBKPAV?$CRef@VCGraphicThing@@@@@std@@@3@@std@@QAE@XZ PROC ; std::map<unsigned long,CRef<CGraphicThing> *,std::less<unsigned long>,std::allocator<std::pair<unsigned long const ,CRef<CGraphicThing> *> > >::~map<unsigned long,CRef<CGraphicThing> *,std::less<unsigned long>,std::allocator<std::pair<unsigned long const ,CRef<CGraphicThing> *> > >, COMDAT
; _this$ = ecx
  00000	e9 00 00 00 00	 jmp	 ??1?$_Tree@V?$_Tmap_traits@KPAV?$CRef@VCGraphicThing@@@@U?$less@K@std@@V?$allocator@U?$pair@$$CBKPAV?$CRef@VCGraphicThing@@@@@std@@@3@$0A@@std@@@std@@QAE@XZ ; std::_Tree<std::_Tmap_traits<unsigned long,CRef<CGraphicThing> *,std::less<unsigned long>,std::allocator<std::pair<unsigned long const ,CRef<CGraphicThing> *> >,0> >::~_Tree<std::_Tmap_traits<unsigned long,CRef<CGraphicThing> *,std::less<unsigned long>,std::allocator<std::pair<unsigned long const ,CRef<CGraphicThing> *> >,0> >
??1?$map@KPAV?$CRef@VCGraphicThing@@@@U?$less@K@std@@V?$allocator@U?$pair@$$CBKPAV?$CRef@VCGraphicThing@@@@@std@@@3@@std@@QAE@XZ ENDP ; std::map<unsigned long,CRef<CGraphicThing> *,std::less<unsigned long>,std::allocator<std::pair<unsigned long const ,CRef<CGraphicThing> *> > >::~map<unsigned long,CRef<CGraphicThing> *,std::less<unsigned long>,std::allocator<std::pair<unsigned long const ,CRef<CGraphicThing> *> > >
_TEXT	ENDS
; Function compile flags: /Ogtp
; File C:\Program Files (x86)\Microsoft Visual Studio\2019\Community\VC\Tools\MSVC\14.27.29110\include\xtree
;	COMDAT ?_Insert_node@?$_Tree_val@U?$_Tree_simple_types@U?$pair@$$CBKPAV?$CRef@VCGraphicThing@@@@@std@@@std@@@std@@QAEPAU?$_Tree_node@U?$pair@$$CBKPAV?$CRef@VCGraphicThing@@@@@std@@PAX@2@U?$_Tree_id@PAU?$_Tree_node@U?$pair@$$CBKPAV?$CRef@VCGraphicThing@@@@@std@@PAX@std@@@2@QAU32@@Z
_TEXT	SEGMENT
__Head$1$ = -8						; size = 4
_this$1$ = -4						; size = 4
__Loc$ = 8						; size = 8
__Newnode$ = 16						; size = 4
?_Insert_node@?$_Tree_val@U?$_Tree_simple_types@U?$pair@$$CBKPAV?$CRef@VCGraphicThing@@@@@std@@@std@@@std@@QAEPAU?$_Tree_node@U?$pair@$$CBKPAV?$CRef@VCGraphicThing@@@@@std@@PAX@2@U?$_Tree_id@PAU?$_Tree_node@U?$pair@$$CBKPAV?$CRef@VCGraphicThing@@@@@std@@PAX@std@@@2@QAU32@@Z PROC ; std::_Tree_val<std::_Tree_simple_types<std::pair<unsigned long const ,CRef<CGraphicThing> *> > >::_Insert_node, COMDAT
; _this$ = ecx

; 644  :     _Nodeptr _Insert_node(const _Tree_id<_Nodeptr> _Loc, const _Nodeptr _Newnode) noexcept {

  00000	55		 push	 ebp
  00001	8b ec		 mov	 ebp, esp
  00003	83 ec 08	 sub	 esp, 8

; 645  :         ++_Mysize;
; 646  :         const auto _Head  = _Myhead;
; 647  :         _Newnode->_Parent = _Loc._Parent;

  00006	8b 55 08	 mov	 edx, DWORD PTR __Loc$[ebp]
  00009	8b c1		 mov	 eax, ecx
  0000b	89 45 fc	 mov	 DWORD PTR _this$1$[ebp], eax
  0000e	8b 08		 mov	 ecx, DWORD PTR [eax]
  00010	ff 40 04	 inc	 DWORD PTR [eax+4]
  00013	8b 45 10	 mov	 eax, DWORD PTR __Newnode$[ebp]
  00016	89 4d f8	 mov	 DWORD PTR __Head$1$[ebp], ecx
  00019	89 50 04	 mov	 DWORD PTR [eax+4], edx

; 648  :         if (_Loc._Parent == _Head) { // first node in tree, just set head values

  0001c	3b d1		 cmp	 edx, ecx
  0001e	75 12		 jne	 SHORT $LN5@Insert_nod

; 649  :             _Head->_Left     = _Newnode;

  00020	89 01		 mov	 DWORD PTR [ecx], eax

; 650  :             _Head->_Parent   = _Newnode;

  00022	89 41 04	 mov	 DWORD PTR [ecx+4], eax

; 651  :             _Head->_Right    = _Newnode;

  00025	89 41 08	 mov	 DWORD PTR [ecx+8], eax

; 652  :             _Newnode->_Color = _Black; // the root is black

  00028	c6 40 0c 01	 mov	 BYTE PTR [eax+12], 1

; 711  :     }

  0002c	8b e5		 mov	 esp, ebp
  0002e	5d		 pop	 ebp
  0002f	c2 0c 00	 ret	 12			; 0000000cH
$LN5@Insert_nod:

; 653  :             return _Newnode;
; 654  :         }
; 655  : 
; 656  :         _STL_INTERNAL_CHECK(_Loc._Child != _Tree_child::_Unused);
; 657  :         if (_Loc._Child == _Tree_child::_Right) { // add to right of _Loc._Parent

  00032	83 7d 0c 00	 cmp	 DWORD PTR __Loc$[ebp+4], 0
  00036	75 0d		 jne	 SHORT $LN6@Insert_nod

; 658  :             _STL_INTERNAL_CHECK(_Loc._Parent->_Right->_Isnil);
; 659  :             _Loc._Parent->_Right = _Newnode;

  00038	89 42 08	 mov	 DWORD PTR [edx+8], eax

; 660  :             if (_Loc._Parent == _Head->_Right) { // remember rightmost node

  0003b	3b 51 08	 cmp	 edx, DWORD PTR [ecx+8]
  0003e	75 0d		 jne	 SHORT $LN9@Insert_nod

; 661  :                 _Head->_Right = _Newnode;

  00040	89 41 08	 mov	 DWORD PTR [ecx+8], eax

; 662  :             }
; 663  :         } else { // add to left of _Loc._Parent

  00043	eb 08		 jmp	 SHORT $LN9@Insert_nod
$LN6@Insert_nod:

; 664  :             _STL_INTERNAL_CHECK(_Loc._Parent->_Left->_Isnil);
; 665  :             _Loc._Parent->_Left = _Newnode;

  00045	89 02		 mov	 DWORD PTR [edx], eax

; 666  :             if (_Loc._Parent == _Head->_Left) { // remember leftmost node

  00047	3b 11		 cmp	 edx, DWORD PTR [ecx]
  00049	75 02		 jne	 SHORT $LN9@Insert_nod

; 667  :                 _Head->_Left = _Newnode;

  0004b	89 01		 mov	 DWORD PTR [ecx], eax
$LN9@Insert_nod:

; 668  :             }
; 669  :         }
; 670  : 
; 671  :         for (_Nodeptr _Pnode = _Newnode; _Pnode->_Parent->_Color == _Red;) {

  0004d	8b d0		 mov	 edx, eax
  0004f	8b 40 04	 mov	 eax, DWORD PTR [eax+4]
  00052	80 78 0c 00	 cmp	 BYTE PTR [eax+12], 0
  00056	0f 85 99 01 00
	00		 jne	 $LN3@Insert_nod
  0005c	53		 push	 ebx
  0005d	56		 push	 esi
  0005e	57		 push	 edi
  0005f	90		 npad	 1
$LL2@Insert_nod:

; 672  :             if (_Pnode->_Parent == _Pnode->_Parent->_Parent->_Left) { // fixup red-red in left subtree

  00060	8b 4a 04	 mov	 ecx, DWORD PTR [edx+4]
  00063	8d 7a 04	 lea	 edi, DWORD PTR [edx+4]
  00066	8b 71 04	 mov	 esi, DWORD PTR [ecx+4]
  00069	8d 59 04	 lea	 ebx, DWORD PTR [ecx+4]
  0006c	8b 06		 mov	 eax, DWORD PTR [esi]
  0006e	3b c8		 cmp	 ecx, eax
  00070	0f 85 ba 00 00
	00		 jne	 $LN10@Insert_nod

; 673  :                 const auto _Parent_sibling = _Pnode->_Parent->_Parent->_Right;

  00076	8b 46 08	 mov	 eax, DWORD PTR [esi+8]

; 674  :                 if (_Parent_sibling->_Color == _Red) { // parent's sibling has two red children, blacken both

  00079	80 78 0c 00	 cmp	 BYTE PTR [eax+12], 0
  0007d	0f 84 b3 00 00
	00		 je	 $LN53@Insert_nod

; 675  :                     _Pnode->_Parent->_Color          = _Black;
; 676  :                     _Parent_sibling->_Color          = _Black;
; 677  :                     _Pnode->_Parent->_Parent->_Color = _Red;
; 678  :                     _Pnode                           = _Pnode->_Parent->_Parent;
; 679  :                 } else { // parent's sibling has red and black children
; 680  :                     if (_Pnode == _Pnode->_Parent->_Right) { // rotate right child to left

  00083	8b 71 08	 mov	 esi, DWORD PTR [ecx+8]
  00086	3b d6		 cmp	 edx, esi
  00088	75 47		 jne	 SHORT $LN51@Insert_nod

; 460  :         _Wherenode->_Right = _Pnode->_Left;

  0008a	8b 06		 mov	 eax, DWORD PTR [esi]

; 681  :                         _Pnode = _Pnode->_Parent;

  0008c	8b d1		 mov	 edx, ecx

; 460  :         _Wherenode->_Right = _Pnode->_Left;

  0008e	89 42 08	 mov	 DWORD PTR [edx+8], eax

; 461  : 
; 462  :         if (!_Pnode->_Left->_Isnil) {

  00091	8b 06		 mov	 eax, DWORD PTR [esi]
  00093	80 78 0d 00	 cmp	 BYTE PTR [eax+13], 0
  00097	75 03		 jne	 SHORT $LN20@Insert_nod

; 463  :             _Pnode->_Left->_Parent = _Wherenode;

  00099	89 50 04	 mov	 DWORD PTR [eax+4], edx
$LN20@Insert_nod:

; 464  :         }
; 465  : 
; 466  :         _Pnode->_Parent = _Wherenode->_Parent;

  0009c	8b 03		 mov	 eax, DWORD PTR [ebx]
  0009e	89 46 04	 mov	 DWORD PTR [esi+4], eax

; 467  : 
; 468  :         if (_Wherenode == _Myhead->_Parent) {

  000a1	8b 45 fc	 mov	 eax, DWORD PTR _this$1$[ebp]
  000a4	8b 00		 mov	 eax, DWORD PTR [eax]
  000a6	3b 50 04	 cmp	 edx, DWORD PTR [eax+4]
  000a9	75 0b		 jne	 SHORT $LN21@Insert_nod

; 469  :             _Myhead->_Parent = _Pnode;

  000ab	89 70 04	 mov	 DWORD PTR [eax+4], esi

; 477  :         _Wherenode->_Parent = _Pnode;

  000ae	8b fb		 mov	 edi, ebx
  000b0	89 16		 mov	 DWORD PTR [esi], edx
  000b2	89 33		 mov	 DWORD PTR [ebx], esi
  000b4	eb 1d		 jmp	 SHORT $LN49@Insert_nod
$LN21@Insert_nod:

; 470  :         } else if (_Wherenode == _Wherenode->_Parent->_Left) {

  000b6	8b 03		 mov	 eax, DWORD PTR [ebx]
  000b8	3b 10		 cmp	 edx, DWORD PTR [eax]
  000ba	75 0a		 jne	 SHORT $LN23@Insert_nod

; 471  :             _Wherenode->_Parent->_Left = _Pnode;

  000bc	89 30		 mov	 DWORD PTR [eax], esi

; 477  :         _Wherenode->_Parent = _Pnode;

  000be	8b fb		 mov	 edi, ebx
  000c0	89 16		 mov	 DWORD PTR [esi], edx
  000c2	89 33		 mov	 DWORD PTR [ebx], esi
  000c4	eb 0d		 jmp	 SHORT $LN49@Insert_nod
$LN23@Insert_nod:

; 473  :             _Wherenode->_Parent->_Right = _Pnode;

  000c6	89 70 08	 mov	 DWORD PTR [eax+8], esi

; 477  :         _Wherenode->_Parent = _Pnode;

  000c9	8b fb		 mov	 edi, ebx
  000cb	89 16		 mov	 DWORD PTR [esi], edx
  000cd	89 33		 mov	 DWORD PTR [ebx], esi
  000cf	eb 02		 jmp	 SHORT $LN49@Insert_nod
$LN51@Insert_nod:
  000d1	8b f1		 mov	 esi, ecx
$LN49@Insert_nod:

; 682  :                         _Lrotate(_Pnode);
; 683  :                     }
; 684  : 
; 685  :                     _Pnode->_Parent->_Color          = _Black; // propagate red up

  000d3	c6 46 0c 01	 mov	 BYTE PTR [esi+12], 1

; 686  :                     _Pnode->_Parent->_Parent->_Color = _Red;

  000d7	8b 07		 mov	 eax, DWORD PTR [edi]
  000d9	8b 40 04	 mov	 eax, DWORD PTR [eax+4]
  000dc	c6 40 0c 00	 mov	 BYTE PTR [eax+12], 0

; 687  :                     _Rrotate(_Pnode->_Parent->_Parent);

  000e0	8b 07		 mov	 eax, DWORD PTR [edi]
  000e2	8b 48 04	 mov	 ecx, DWORD PTR [eax+4]

; 481  :         _Nodeptr _Pnode   = _Wherenode->_Left;

  000e5	8b 31		 mov	 esi, DWORD PTR [ecx]

; 482  :         _Wherenode->_Left = _Pnode->_Right;

  000e7	8b 46 08	 mov	 eax, DWORD PTR [esi+8]
  000ea	89 01		 mov	 DWORD PTR [ecx], eax

; 483  : 
; 484  :         if (!_Pnode->_Right->_Isnil) {

  000ec	8b 46 08	 mov	 eax, DWORD PTR [esi+8]
  000ef	80 78 0d 00	 cmp	 BYTE PTR [eax+13], 0
  000f3	75 03		 jne	 SHORT $LN27@Insert_nod

; 485  :             _Pnode->_Right->_Parent = _Wherenode;

  000f5	89 48 04	 mov	 DWORD PTR [eax+4], ecx
$LN27@Insert_nod:

; 486  :         }
; 487  : 
; 488  :         _Pnode->_Parent = _Wherenode->_Parent;

  000f8	8b 41 04	 mov	 eax, DWORD PTR [ecx+4]
  000fb	89 46 04	 mov	 DWORD PTR [esi+4], eax

; 489  : 
; 490  :         if (_Wherenode == _Myhead->_Parent) {

  000fe	8b 45 fc	 mov	 eax, DWORD PTR _this$1$[ebp]
  00101	8b 00		 mov	 eax, DWORD PTR [eax]
  00103	3b 48 04	 cmp	 ecx, DWORD PTR [eax+4]
  00106	75 0b		 jne	 SHORT $LN28@Insert_nod

; 491  :             _Myhead->_Parent = _Pnode;

  00108	89 70 04	 mov	 DWORD PTR [eax+4], esi

; 496  :         }
; 497  : 
; 498  :         _Pnode->_Right      = _Wherenode;

  0010b	89 4e 08	 mov	 DWORD PTR [esi+8], ecx

; 688  :                 }
; 689  :             } else { // fixup red-red in right subtree

  0010e	e9 cc 00 00 00	 jmp	 $LN52@Insert_nod
$LN28@Insert_nod:

; 492  :         } else if (_Wherenode == _Wherenode->_Parent->_Right) {

  00113	8b 41 04	 mov	 eax, DWORD PTR [ecx+4]
  00116	3b 48 08	 cmp	 ecx, DWORD PTR [eax+8]
  00119	75 0b		 jne	 SHORT $LN30@Insert_nod

; 493  :             _Wherenode->_Parent->_Right = _Pnode;

  0011b	89 70 08	 mov	 DWORD PTR [eax+8], esi

; 496  :         }
; 497  : 
; 498  :         _Pnode->_Right      = _Wherenode;

  0011e	89 4e 08	 mov	 DWORD PTR [esi+8], ecx

; 688  :                 }
; 689  :             } else { // fixup red-red in right subtree

  00121	e9 b9 00 00 00	 jmp	 $LN52@Insert_nod
$LN30@Insert_nod:

; 495  :             _Wherenode->_Parent->_Left = _Pnode;

  00126	89 30		 mov	 DWORD PTR [eax], esi

; 496  :         }
; 497  : 
; 498  :         _Pnode->_Right      = _Wherenode;

  00128	89 4e 08	 mov	 DWORD PTR [esi+8], ecx

; 688  :                 }
; 689  :             } else { // fixup red-red in right subtree

  0012b	e9 af 00 00 00	 jmp	 $LN52@Insert_nod
$LN10@Insert_nod:

; 690  :                 const auto _Parent_sibling = _Pnode->_Parent->_Parent->_Left;
; 691  :                 if (_Parent_sibling->_Color == _Red) { // parent's sibling has two red children, blacken both

  00130	80 78 0c 00	 cmp	 BYTE PTR [eax+12], 0
  00134	75 1b		 jne	 SHORT $LN15@Insert_nod
$LN53@Insert_nod:

; 668  :             }
; 669  :         }
; 670  : 
; 671  :         for (_Nodeptr _Pnode = _Newnode; _Pnode->_Parent->_Color == _Red;) {

  00136	c6 41 0c 01	 mov	 BYTE PTR [ecx+12], 1
  0013a	c6 40 0c 01	 mov	 BYTE PTR [eax+12], 1
  0013e	8b 07		 mov	 eax, DWORD PTR [edi]
  00140	8b 40 04	 mov	 eax, DWORD PTR [eax+4]
  00143	c6 40 0c 00	 mov	 BYTE PTR [eax+12], 0
  00147	8b 07		 mov	 eax, DWORD PTR [edi]
  00149	8b 50 04	 mov	 edx, DWORD PTR [eax+4]
  0014c	e9 91 00 00 00	 jmp	 $LN46@Insert_nod
$LN15@Insert_nod:

; 692  :                     _Pnode->_Parent->_Color          = _Black;
; 693  :                     _Parent_sibling->_Color          = _Black;
; 694  :                     _Pnode->_Parent->_Parent->_Color = _Red;
; 695  :                     _Pnode                           = _Pnode->_Parent->_Parent;
; 696  :                 } else { // parent's sibling has red and black children
; 697  :                     if (_Pnode == _Pnode->_Parent->_Left) { // rotate left child to right

  00151	8b 01		 mov	 eax, DWORD PTR [ecx]
  00153	3b d0		 cmp	 edx, eax
  00155	75 3e		 jne	 SHORT $LN39@Insert_nod

; 698  :                         _Pnode = _Pnode->_Parent;

  00157	8b d1		 mov	 edx, ecx

; 481  :         _Nodeptr _Pnode   = _Wherenode->_Left;

  00159	8b c8		 mov	 ecx, eax

; 482  :         _Wherenode->_Left = _Pnode->_Right;

  0015b	8b 41 08	 mov	 eax, DWORD PTR [ecx+8]
  0015e	89 02		 mov	 DWORD PTR [edx], eax

; 483  : 
; 484  :         if (!_Pnode->_Right->_Isnil) {

  00160	8b 41 08	 mov	 eax, DWORD PTR [ecx+8]
  00163	80 78 0d 00	 cmp	 BYTE PTR [eax+13], 0
  00167	75 03		 jne	 SHORT $LN34@Insert_nod

; 485  :             _Pnode->_Right->_Parent = _Wherenode;

  00169	89 50 04	 mov	 DWORD PTR [eax+4], edx
$LN34@Insert_nod:

; 486  :         }
; 487  : 
; 488  :         _Pnode->_Parent = _Wherenode->_Parent;

  0016c	8b 03		 mov	 eax, DWORD PTR [ebx]
  0016e	89 41 04	 mov	 DWORD PTR [ecx+4], eax

; 489  : 
; 490  :         if (_Wherenode == _Myhead->_Parent) {

  00171	8b 45 fc	 mov	 eax, DWORD PTR _this$1$[ebp]
  00174	8b 00		 mov	 eax, DWORD PTR [eax]
  00176	3b 50 04	 cmp	 edx, DWORD PTR [eax+4]
  00179	75 05		 jne	 SHORT $LN35@Insert_nod

; 491  :             _Myhead->_Parent = _Pnode;

  0017b	89 48 04	 mov	 DWORD PTR [eax+4], ecx
  0017e	eb 0e		 jmp	 SHORT $LN38@Insert_nod
$LN35@Insert_nod:

; 492  :         } else if (_Wherenode == _Wherenode->_Parent->_Right) {

  00180	8b 03		 mov	 eax, DWORD PTR [ebx]
  00182	3b 50 08	 cmp	 edx, DWORD PTR [eax+8]
  00185	75 05		 jne	 SHORT $LN37@Insert_nod

; 493  :             _Wherenode->_Parent->_Right = _Pnode;

  00187	89 48 08	 mov	 DWORD PTR [eax+8], ecx

; 494  :         } else {

  0018a	eb 02		 jmp	 SHORT $LN38@Insert_nod
$LN37@Insert_nod:

; 495  :             _Wherenode->_Parent->_Left = _Pnode;

  0018c	89 08		 mov	 DWORD PTR [eax], ecx
$LN38@Insert_nod:

; 496  :         }
; 497  : 
; 498  :         _Pnode->_Right      = _Wherenode;

  0018e	89 51 08	 mov	 DWORD PTR [ecx+8], edx

; 499  :         _Wherenode->_Parent = _Pnode;

  00191	8b fb		 mov	 edi, ebx
  00193	89 0b		 mov	 DWORD PTR [ebx], ecx
$LN39@Insert_nod:

; 699  :                         _Rrotate(_Pnode);
; 700  :                     }
; 701  : 
; 702  :                     _Pnode->_Parent->_Color          = _Black; // propagate red up

  00195	c6 41 0c 01	 mov	 BYTE PTR [ecx+12], 1

