; Listing generated by Microsoft (R) Optimizing Compiler Version 19.27.29112.0 

	TITLE	C:\DS Project\DS Files\Source\ClientSource\Client\eterGrnLib\ThingInstance.cpp
	.686P
	.XMM
	include listing.inc
	.model	flat

INCLUDELIB LIBCMT
INCLUDELIB OLDNAMES

PUBLIC	??_R4?$CDynamicPool@VCGraphicThingInstance@@@@6B@ ; CDynamicPool<CGraphicThingInstance>::`RTTI Complete Object Locator'
PUBLIC	??_R0?AV?$CDynamicPool@VCGraphicThingInstance@@@@@8 ; CDynamicPool<CGraphicThingInstance> `RTTI Type Descriptor'
PUBLIC	??_R3?$CDynamicPool@VCGraphicThingInstance@@@@8	; CDynamicPool<CGraphicThingInstance>::`RTTI Class Hierarchy Descriptor'
PUBLIC	??_R2?$CDynamicPool@VCGraphicThingInstance@@@@8	; CDynamicPool<CGraphicThingInstance>::`RTTI Base Class Array'
PUBLIC	??_R1A@?0A@EA@?$CDynamicPool@VCGraphicThingInstance@@@@8 ; CDynamicPool<CGraphicThingInstance>::`RTTI Base Class Descriptor at (0,-1,0,64)'
PUBLIC	??_7?$CDynamicPool@VCGraphicThingInstance@@@@6B@ ; CDynamicPool<CGraphicThingInstance>::`vftable'
PUBLIC	??_G?$CDynamicPool@VCGraphicThingInstance@@@@UAEPAXI@Z ; CDynamicPool<CGraphicThingInstance>::`scalar deleting destructor'
EXTRN	??_E?$CDynamicPool@VCGraphicThingInstance@@@@UAEPAXI@Z:PROC ; CDynamicPool<CGraphicThingInstance>::`vector deleting destructor'
EXTRN	??_7type_info@@6B@:QWORD			; type_info::`vftable'
CONST	SEGMENT
?piecewise_construct@std@@3Upiecewise_construct_t@1@B	ORG $+1 ; std::piecewise_construct
CONST	ENDS
;	COMDAT ??_7?$CDynamicPool@VCGraphicThingInstance@@@@6B@
CONST	SEGMENT
??_7?$CDynamicPool@VCGraphicThingInstance@@@@6B@ DD FLAT:??_R4?$CDynamicPool@VCGraphicThingInstance@@@@6B@ ; CDynamicPool<CGraphicThingInstance>::`vftable'
	DD	FLAT:??_E?$CDynamicPool@VCGraphicThingInstance@@@@UAEPAXI@Z
CONST	ENDS
;	COMDAT ??_R1A@?0A@EA@?$CDynamicPool@VCGraphicThingInstance@@@@8
rdata$r	SEGMENT
??_R1A@?0A@EA@?$CDynamicPool@VCGraphicThingInstance@@@@8 DD FLAT:??_R0?AV?$CDynamicPool@VCGraphicThingInstance@@@@@8 ; CDynamicPool<CGraphicThingInstance>::`RTTI Base Class Descriptor at (0,-1,0,64)'
	DD	00H
	DD	00H
	DD	0ffffffffH
	DD	00H
	DD	040H
	DD	FLAT:??_R3?$CDynamicPool@VCGraphicThingInstance@@@@8
rdata$r	ENDS
;	COMDAT ??_R2?$CDynamicPool@VCGraphicThingInstance@@@@8
rdata$r	SEGMENT
??_R2?$CDynamicPool@VCGraphicThingInstance@@@@8 DD FLAT:??_R1A@?0A@EA@?$CDynamicPool@VCGraphicThingInstance@@@@8 ; CDynamicPool<CGraphicThingInstance>::`RTTI Base Class Array'
rdata$r	ENDS
;	COMDAT ??_R3?$CDynamicPool@VCGraphicThingInstance@@@@8
rdata$r	SEGMENT
??_R3?$CDynamicPool@VCGraphicThingInstance@@@@8 DD 00H	; CDynamicPool<CGraphicThingInstance>::`RTTI Class Hierarchy Descriptor'
	DD	00H
	DD	01H
	DD	FLAT:??_R2?$CDynamicPool@VCGraphicThingInstance@@@@8
rdata$r	ENDS
;	COMDAT ??_R0?AV?$CDynamicPool@VCGraphicThingInstance@@@@@8
data$r	SEGMENT
??_R0?AV?$CDynamicPool@VCGraphicThingInstance@@@@@8 DD FLAT:??_7type_info@@6B@ ; CDynamicPool<CGraphicThingInstance> `RTTI Type Descriptor'
	DD	00H
	DB	'.?AV?$CDynamicPool@VCGraphicThingInstance@@@@', 00H
data$r	ENDS
;	COMDAT ??_R4?$CDynamicPool@VCGraphicThingInstance@@@@6B@
rdata$r	SEGMENT
??_R4?$CDynamicPool@VCGraphicThingInstance@@@@6B@ DD 00H ; CDynamicPool<CGraphicThingInstance>::`RTTI Complete Object Locator'
	DD	00H
	DD	00H
	DD	FLAT:??_R0?AV?$CDynamicPool@VCGraphicThingInstance@@@@@8
	DD	FLAT:??_R3?$CDynamicPool@VCGraphicThingInstance@@@@8
rdata$r	ENDS
PUBLIC	??0exception@std@@QAE@ABV01@@Z			; std::exception::exception
PUBLIC	??1exception@std@@UAE@XZ			; std::exception::~exception
PUBLIC	?what@exception@std@@UBEPBDXZ			; std::exception::what
PUBLIC	??_Gexception@std@@UAEPAXI@Z			; std::exception::`scalar deleting destructor'
PUBLIC	??0bad_alloc@std@@QAE@ABV01@@Z			; std::bad_alloc::bad_alloc
PUBLIC	??_Gbad_alloc@std@@UAEPAXI@Z			; std::bad_alloc::`scalar deleting destructor'
PUBLIC	??0bad_array_new_length@std@@QAE@XZ		; std::bad_array_new_length::bad_array_new_length
PUBLIC	??1bad_array_new_length@std@@UAE@XZ		; std::bad_array_new_length::~bad_array_new_length
PUBLIC	??0bad_array_new_length@std@@QAE@ABV01@@Z	; std::bad_array_new_length::bad_array_new_length
PUBLIC	??_Gbad_array_new_length@std@@UAEPAXI@Z		; std::bad_array_new_length::`scalar deleting destructor'
PUBLIC	?_Throw_bad_array_new_length@std@@YAXXZ		; std::_Throw_bad_array_new_length
PUBLIC	?_Throw_tree_length_error@std@@YAXXZ		; std::_Throw_tree_length_error
PUBLIC	?Clear@SModelThingSet@CGraphicThingInstance@@QAEXXZ ; CGraphicThingInstance::SModelThingSet::Clear
PUBLIC	?_Xlength@?$vector@PAV?$CRef@VCGraphicThing@@@@V?$allocator@PAV?$CRef@VCGraphicThing@@@@@std@@@std@@CAXXZ ; std::vector<CRef<CGraphicThing> *,std::allocator<CRef<CGraphicThing> *> >::_Xlength
PUBLIC	?GetType@CGraphicThingInstance@@UBEHXZ		; CGraphicThingInstance::GetType
PUBLIC	??0CGraphicThingInstance@@QAE@XZ		; CGraphicThingInstance::CGraphicThingInstance
PUBLIC	??1CGraphicThingInstance@@UAE@XZ		; CGraphicThingInstance::~CGraphicThingInstance
PUBLIC	?DeformNoSkin@CGraphicThingInstance@@QAEXXZ	; CGraphicThingInstance::DeformNoSkin
PUBLIC	?UpdateLODLevel@CGraphicThingInstance@@QAEXXZ	; CGraphicThingInstance::UpdateLODLevel
PUBLIC	?UpdateTime@CGraphicThingInstance@@QAEXXZ	; CGraphicThingInstance::UpdateTime
PUBLIC	?DeformAll@CGraphicThingInstance@@QAEXXZ	; CGraphicThingInstance::DeformAll
PUBLIC	?LessRenderOrder@CGraphicThingInstance@@QAE_NPAV1@@Z ; CGraphicThingInstance::LessRenderOrder
PUBLIC	?Picking@CGraphicThingInstance@@QAE_NABUD3DXVECTOR3@@0AAM1@Z ; CGraphicThingInstance::Picking
PUBLIC	?OnInitialize@CGraphicThingInstance@@UAEXXZ	; CGraphicThingInstance::OnInitialize
PUBLIC	?CreateDeviceObjects@CGraphicThingInstance@@QAE_NXZ ; CGraphicThingInstance::CreateDeviceObjects
PUBLIC	?DestroyDeviceObjects@CGraphicThingInstance@@QAEXXZ ; CGraphicThingInstance::DestroyDeviceObjects
PUBLIC	?ReserveModelInstance@CGraphicThingInstance@@QAEXH@Z ; CGraphicThingInstance::ReserveModelInstance
PUBLIC	?ReserveModelThing@CGraphicThingInstance@@QAEXH@Z ; CGraphicThingInstance::ReserveModelThing
PUBLIC	?CheckModelInstanceIndex@CGraphicThingInstance@@QAE_NH@Z ; CGraphicThingInstance::CheckModelInstanceIndex
PUBLIC	?CheckModelThingIndex@CGraphicThingInstance@@QAE_NH@Z ; CGraphicThingInstance::CheckModelThingIndex
PUBLIC	?CheckMotionThingIndex@CGraphicThingInstance@@QAE_NK@Z ; CGraphicThingInstance::CheckMotionThingIndex
PUBLIC	?GetMotionThingPointer@CGraphicThingInstance@@QAE_NKPAPAVCGraphicThing@@@Z ; CGraphicThingInstance::GetMotionThingPointer
PUBLIC	?IsMotionThing@CGraphicThingInstance@@QAE_NXZ	; CGraphicThingInstance::IsMotionThing
PUBLIC	?RegisterModelThing@CGraphicThingInstance@@QAEXHPAVCGraphicThing@@@Z ; CGraphicThingInstance::RegisterModelThing
PUBLIC	?RegisterLODThing@CGraphicThingInstance@@QAEXHPAVCGraphicThing@@@Z ; CGraphicThingInstance::RegisterLODThing
PUBLIC	?RegisterMotionThing@CGraphicThingInstance@@QAEXKPAVCGraphicThing@@@Z ; CGraphicThingInstance::RegisterMotionThing
PUBLIC	?SetModelInstance@CGraphicThingInstance@@QAE_NHHHH@Z ; CGraphicThingInstance::SetModelInstance
PUBLIC	?SetEndStopMotion@CGraphicThingInstance@@QAEXXZ	; CGraphicThingInstance::SetEndStopMotion
PUBLIC	?SetMotionAtEnd@CGraphicThingInstance@@QAEXXZ	; CGraphicThingInstance::SetMotionAtEnd
PUBLIC	?AttachModelInstance@CGraphicThingInstance@@QAEXHPBDH@Z ; CGraphicThingInstance::AttachModelInstance
PUBLIC	?AttachModelInstance@CGraphicThingInstance@@QAEXHPBDAAV1@H@Z ; CGraphicThingInstance::AttachModelInstance
PUBLIC	?DetachModelInstance@CGraphicThingInstance@@QAEXHAAV1@H@Z ; CGraphicThingInstance::DetachModelInstance
PUBLIC	?FindBoneIndex@CGraphicThingInstance@@QAE_NHPBDPAH@Z ; CGraphicThingInstance::FindBoneIndex
PUBLIC	?GetBonePosition@CGraphicThingInstance@@QAE_NHHPAM00@Z ; CGraphicThingInstance::GetBonePosition
PUBLIC	?ResetLocalTime@CGraphicThingInstance@@QAEXXZ	; CGraphicThingInstance::ResetLocalTime
PUBLIC	?InsertDelay@CGraphicThingInstance@@QAEXM@Z	; CGraphicThingInstance::InsertDelay
PUBLIC	?SetMaterialImagePointer@CGraphicThingInstance@@QAEXIPBDPAVCGraphicImage@@@Z ; CGraphicThingInstance::SetMaterialImagePointer
PUBLIC	?SetMaterialData@CGraphicThingInstance@@QAEXIPBDUSMaterialData@@@Z ; CGraphicThingInstance::SetMaterialData
PUBLIC	?SetSpecularInfo@CGraphicThingInstance@@QAEXIPBDHM@Z ; CGraphicThingInstance::SetSpecularInfo
PUBLIC	?__SetLocalTime@CGraphicThingInstance@@QAEXM@Z	; CGraphicThingInstance::__SetLocalTime
PUBLIC	?GetLastLocalTime@CGraphicThingInstance@@QAEMXZ	; CGraphicThingInstance::GetLastLocalTime
PUBLIC	?GetLocalTime@CGraphicThingInstance@@QAEMXZ	; CGraphicThingInstance::GetLocalTime
PUBLIC	?GetSecondElapsed@CGraphicThingInstance@@QAEMXZ	; CGraphicThingInstance::GetSecondElapsed
PUBLIC	?GetAverageSecondElapsed@CGraphicThingInstance@@QAEMXZ ; CGraphicThingInstance::GetAverageSecondElapsed
PUBLIC	?GetLODLevel@CGraphicThingInstance@@QAEEK@Z	; CGraphicThingInstance::GetLODLevel
PUBLIC	?GetHeight@CGraphicThingInstance@@QAEMXZ	; CGraphicThingInstance::GetHeight
PUBLIC	?RenderWithOneTexture@CGraphicThingInstance@@QAEXXZ ; CGraphicThingInstance::RenderWithOneTexture
PUBLIC	?RenderWithTwoTexture@CGraphicThingInstance@@QAEXXZ ; CGraphicThingInstance::RenderWithTwoTexture
PUBLIC	?BlendRenderWithOneTexture@CGraphicThingInstance@@QAEXXZ ; CGraphicThingInstance::BlendRenderWithOneTexture
PUBLIC	?BlendRenderWithTwoTexture@CGraphicThingInstance@@QAEXXZ ; CGraphicThingInstance::BlendRenderWithTwoTexture
PUBLIC	?GetLODControllerCount@CGraphicThingInstance@@QBEKXZ ; CGraphicThingInstance::GetLODControllerCount
PUBLIC	?GetLODControllerPointer@CGraphicThingInstance@@QBEPAVCGrannyLODController@@K@Z ; CGraphicThingInstance::GetLODControllerPointer
PUBLIC	?GetLODControllerPointer@CGraphicThingInstance@@QAEPAVCGrannyLODController@@K@Z ; CGraphicThingInstance::GetLODControllerPointer
PUBLIC	?ReloadTexture@CGraphicThingInstance@@QAEXXZ	; CGraphicThingInstance::ReloadTexture
PUBLIC	?GetBaseThingPtr@CGraphicThingInstance@@QAEPAVCGraphicThing@@XZ ; CGraphicThingInstance::GetBaseThingPtr
PUBLIC	?SetMotion@CGraphicThingInstance@@QAE_NKMHM@Z	; CGraphicThingInstance::SetMotion
PUBLIC	?ChangeMotion@CGraphicThingInstance@@QAE_NKHM@Z	; CGraphicThingInstance::ChangeMotion
PUBLIC	?Intersect@CGraphicThingInstance@@QAE_NPAM00@Z	; CGraphicThingInstance::Intersect
PUBLIC	?GetBoundBox@CGraphicThingInstance@@QAEXPAUD3DXVECTOR3@@0@Z ; CGraphicThingInstance::GetBoundBox
PUBLIC	?GetBoundBox@CGraphicThingInstance@@QAEHKPAUD3DXVECTOR3@@0@Z ; CGraphicThingInstance::GetBoundBox
PUBLIC	?GetBoneMatrix@CGraphicThingInstance@@QAEHKKPAPAUD3DXMATRIX@@@Z ; CGraphicThingInstance::GetBoneMatrix
PUBLIC	?GetCompositeBoneMatrix@CGraphicThingInstance@@QAEHKKPAPAUD3DXMATRIX@@@Z ; CGraphicThingInstance::GetCompositeBoneMatrix
PUBLIC	?UpdateTransform@CGraphicThingInstance@@QAEXPAUD3DXMATRIX@@MH@Z ; CGraphicThingInstance::UpdateTransform
PUBLIC	?BuildBoundingSphere@CGraphicThingInstance@@QAEXXZ ; CGraphicThingInstance::BuildBoundingSphere
PUBLIC	?BuildBoundingAABB@CGraphicThingInstance@@QAEXXZ ; CGraphicThingInstance::BuildBoundingAABB
PUBLIC	?CalculateBBox@CGraphicThingInstance@@UAEXXZ	; CGraphicThingInstance::CalculateBBox
PUBLIC	?GetBoundingSphere@CGraphicThingInstance@@UAE_NAAUD3DXVECTOR3@@AAM@Z ; CGraphicThingInstance::GetBoundingSphere
PUBLIC	?GetBoundingAABB@CGraphicThingInstance@@UAE_NAAUD3DXVECTOR3@@0@Z ; CGraphicThingInstance::GetBoundingAABB
PUBLIC	?OnClear@CGraphicThingInstance@@MAEXXZ		; CGraphicThingInstance::OnClear
PUBLIC	?OnDeform@CGraphicThingInstance@@MAEXXZ		; CGraphicThingInstance::OnDeform
PUBLIC	?OnUpdate@CGraphicThingInstance@@MAEXXZ		; CGraphicThingInstance::OnUpdate
PUBLIC	?OnRender@CGraphicThingInstance@@MAEXXZ		; CGraphicThingInstance::OnRender
PUBLIC	?OnBlendRender@CGraphicThingInstance@@MAEXXZ	; CGraphicThingInstance::OnBlendRender
PUBLIC	?OnRenderToShadowMap@CGraphicThingInstance@@MAEXXZ ; CGraphicThingInstance::OnRenderToShadowMap
PUBLIC	?OnRenderShadow@CGraphicThingInstance@@MAEXXZ	; CGraphicThingInstance::OnRenderShadow
PUBLIC	?OnRenderPCBlocker@CGraphicThingInstance@@MAEXXZ ; CGraphicThingInstance::OnRenderPCBlocker
PUBLIC	??1?$vector@PAVCGrannyLODController@@V?$allocator@PAVCGrannyLODController@@@std@@@std@@QAE@XZ ; std::vector<CGrannyLODController *,std::allocator<CGrannyLODController *> >::~vector<CGrannyLODController *,std::allocator<CGrannyLODController *> >
PUBLIC	?_Xlength@?$vector@PAVCGrannyLODController@@V?$allocator@PAVCGrannyLODController@@@std@@@std@@CAXXZ ; std::vector<CGrannyLODController *,std::allocator<CGrannyLODController *> >::_Xlength
PUBLIC	??1?$vector@USModelThingSet@CGraphicThingInstance@@V?$allocator@USModelThingSet@CGraphicThingInstance@@@std@@@std@@QAE@XZ ; std::vector<CGraphicThingInstance::SModelThingSet,std::allocator<CGraphicThingInstance::SModelThingSet> >::~vector<CGraphicThingInstance::SModelThingSet,std::allocator<CGraphicThingInstance::SModelThingSet> >
PUBLIC	?_Xlength@?$vector@USModelThingSet@CGraphicThingInstance@@V?$allocator@USModelThingSet@CGraphicThingInstance@@@std@@@std@@CAXXZ ; std::vector<CGraphicThingInstance::SModelThingSet,std::allocator<CGraphicThingInstance::SModelThingSet> >::_Xlength
PUBLIC	??1?$_Tree@V?$_Tmap_traits@KPAV?$CRef@VCGraphicThing@@@@U?$less@K@std@@V?$allocator@U?$pair@$$CBKPAV?$CRef@VCGraphicThing@@@@@std@@@3@$0A@@std@@@std@@QAE@XZ ; std::_Tree<std::_Tmap_traits<unsigned long,CRef<CGraphicThing> *,std::less<unsigned long>,std::allocator<std::pair<unsigned long const ,CRef<CGraphicThing> *> >,0> >::~_Tree<std::_Tmap_traits<unsigned long,CRef<CGraphicThing> *,std::less<unsigned long>,std::allocator<std::pair<unsigned long const ,CRef<CGraphicThing> *> >,0> >
PUBLIC	?_Insert_node@?$_Tree_val@U?$_Tree_simple_types@U?$pair@$$CBKPAV?$CRef@VCGraphicThing@@@@@std@@@std@@@std@@QAEPAU?$_Tree_node@U?$pair@$$CBKPAV?$CRef@VCGraphicThing@@@@@std@@PAX@2@U?$_Tree_id@PAU?$_Tree_node@U?$pair@$$CBKPAV?$CRef@VCGraphicThing@@@@@std@@PAX@std@@@2@QAU32@@Z ; std::_Tree_val<std::_Tree_simple_types<std::pair<unsigned long const ,CRef<CGraphicThing> *> > >::_Insert_node
PUBLIC	??1?$map@KPAV?$CRef@VCGraphicThing@@@@U?$less@K@std@@V?$allocator@U?$pair@$$CBKPAV?$CRef@VCGraphicThing@@@@@std@@@3@@std@@QAE@XZ ; std::map<unsigned long,CRef<CGraphicThing> *,std::less<unsigned long>,std::allocator<std::pair<unsigned long const ,CRef<CGraphicThing> *> > >::~map<unsigned long,CRef<CGraphicThing> *,std::less<unsigned long>,std::allocator<std::pair<unsigned long const ,CRef<CGraphicThing> *> > >
PUBLIC	?OnUpdateCollisionData@CGraphicThingInstance@@MAEXPBV?$vector@VCStaticCollisionData@@V?$allocator@VCStaticCollisionData@@@std@@@std@@@Z ; CGraphicThingInstance::OnUpdateCollisionData
PUBLIC	?OnUpdateHeighInstance@CGraphicThingInstance@@MAEXPAVCAttributeInstance@@@Z ; CGraphicThingInstance::OnUpdateHeighInstance
PUBLIC	?OnGetObjectHeight@CGraphicThingInstance@@MAE_NMMPAM@Z ; CGraphicThingInstance::OnGetObjectHeight
PUBLIC	?CreateSystem@CGraphicThingInstance@@SAXI@Z	; CGraphicThingInstance::CreateSystem
PUBLIC	?DestroySystem@CGraphicThingInstance@@SAXXZ	; CGraphicThingInstance::DestroySystem
PUBLIC	?New@CGraphicThingInstance@@SAPAV1@XZ		; CGraphicThingInstance::New
PUBLIC	?Delete@CGraphicThingInstance@@SAXPAV1@@Z	; CGraphicThingInstance::Delete
PUBLIC	?HaveBlendThing@CGraphicThingInstance@@QAE_NXZ	; CGraphicThingInstance::HaveBlendThing
PUBLIC	??_GCGraphicThingInstance@@UAEPAXI@Z		; CGraphicThingInstance::`scalar deleting destructor'
PUBLIC	??1?$CDynamicPool@VCGraphicThingInstance@@@@UAE@XZ ; CDynamicPool<CGraphicThingInstance>::~CDynamicPool<CGraphicThingInstance>
PUBLIC	?Delete@?$CDynamicPool@VCGraphicThingInstance@@@@KAXPAVCGraphicThingInstance@@@Z ; CDynamicPool<CGraphicThingInstance>::Delete
PUBLIC	?_Reallocate_exactly@?$vector@PAVCGraphicThingInstance@@V?$allocator@PAVCGraphicThingInstance@@@std@@@std@@AAEXI@Z ; std::vector<CGraphicThingInstance *,std::allocator<CGraphicThingInstance *> >::_Reallocate_exactly
PUBLIC	?_Xlength@?$vector@PAVCGraphicThingInstance@@V?$allocator@PAVCGraphicThingInstance@@@std@@@std@@CAXXZ ; std::vector<CGraphicThingInstance *,std::allocator<CGraphicThingInstance *> >::_Xlength
PUBLIC	??$stl_wipe@V?$vector@PAVCGrannyLODController@@V?$allocator@PAVCGrannyLODController@@@std@@@std@@@@YAXAAV?$vector@PAVCGrannyLODController@@V?$allocator@PAVCGrannyLODController@@@std@@@std@@@Z ; stl_wipe<std::vector<CGrannyLODController *,std::allocator<CGrannyLODController *> > >
PUBLIC	??$_Emplace_reallocate@ABQAVCGrannyLODController@@@?$vector@PAVCGrannyLODController@@V?$allocator@PAVCGrannyLODController@@@std@@@std@@QAEPAPAVCGrannyLODController@@QAPAV2@ABQAV2@@Z ; std::vector<CGrannyLODController *,std::allocator<CGrannyLODController *> >::_Emplace_reallocate<CGrannyLODController * const &>
PUBLIC	??$_Emplace_reallocate@ABQAV?$CRef@VCGraphicThing@@@@@?$vector@PAV?$CRef@VCGraphicThing@@@@V?$allocator@PAV?$CRef@VCGraphicThing@@@@@std@@@std@@QAEPAPAV?$CRef@VCGraphicThing@@@@QAPAV2@ABQAV2@@Z ; std::vector<CRef<CGraphicThing> *,std::allocator<CRef<CGraphicThing> *> >::_Emplace_reallocate<CRef<CGraphicThing> * const &>
PUBLIC	??$_Emplace_reallocate@ABQAVCGraphicThingInstance@@@?$vector@PAVCGraphicThingInstance@@V?$allocator@PAVCGraphicThingInstance@@@std@@@std@@QAEPAPAVCGraphicThingInstance@@QAPAV2@ABQAV2@@Z ; std::vector<CGraphicThingInstance *,std::allocator<CGraphicThingInstance *> >::_Emplace_reallocate<CGraphicThingInstance * const &>
PUBLIC	??$_Destroy_range@V?$allocator@PAVCGraphicThingInstance@@@std@@@std@@YAXPAPAVCGraphicThingInstance@@QAPAV1@AAV?$allocator@PAVCGraphicThingInstance@@@0@@Z ; std::_Destroy_range<std::allocator<CGraphicThingInstance *> >
PUBLIC	??$_Destroy_range@V?$allocator@USModelThingSet@CGraphicThingInstance@@@std@@@std@@YAXPAUSModelThingSet@CGraphicThingInstance@@QAU12@AAV?$allocator@USModelThingSet@CGraphicThingInstance@@@0@@Z ; std::_Destroy_range<std::allocator<CGraphicThingInstance::SModelThingSet> >
PUBLIC	??$_Deallocate@$07$0A@@std@@YAXPAXI@Z		; std::_Deallocate<8,0>
PUBLIC	??$_Destroy_range@V?$allocator@PAVCGrannyLODController@@@std@@@std@@YAXPAPAVCGrannyLODController@@QAPAV1@AAV?$allocator@PAVCGrannyLODController@@@0@@Z ; std::_Destroy_range<std::allocator<CGrannyLODController *> >
PUBLIC	??$_Allocate@$07U_Default_allocate_traits@std@@$0A@@std@@YAPAXI@Z ; std::_Allocate<8,std::_Default_allocate_traits,0>
PUBLIC	??$_Uninitialized_move@PAPAVCGraphicThingInstance@@V?$allocator@PAVCGraphicThingInstance@@@std@@@std@@YAPAPAVCGraphicThingInstance@@QAPAV1@0PAPAV1@AAV?$allocator@PAVCGraphicThingInstance@@@0@@Z ; std::_Uninitialized_move<CGraphicThingInstance * *,std::allocator<CGraphicThingInstance *> >
PUBLIC	??$_Find_lower_bound@K@?$_Tree@V?$_Tmap_traits@KPAV?$CRef@VCGraphicThing@@@@U?$less@K@std@@V?$allocator@U?$pair@$$CBKPAV?$CRef@VCGraphicThing@@@@@std@@@3@$0A@@std@@@std@@IBE?AU?$_Tree_find_result@PAU?$_Tree_node@U?$pair@$$CBKPAV?$CRef@VCGraphicThing@@@@@std@@PAX@std@@@1@ABK@Z ; std::_Tree<std::_Tmap_traits<unsigned long,CRef<CGraphicThing> *,std::less<unsigned long>,std::allocator<std::pair<unsigned long const ,CRef<CGraphicThing> *> >,0> >::_Find_lower_bound<unsigned long>
PUBLIC	??1?$_Alloc_construct_ptr@V?$allocator@U?$_Tree_node@U?$pair@$$CBKPAV?$CRef@VCGraphicThing@@@@@std@@PAX@std@@@std@@@std@@QAE@XZ ; std::_Alloc_construct_ptr<std::allocator<std::_Tree_node<std::pair<unsigned long const ,CRef<CGraphicThing> *>,void *> > >::~_Alloc_construct_ptr<std::allocator<std::_Tree_node<std::pair<unsigned long const ,CRef<CGraphicThing> *>,void *> > >
PUBLIC	??$_Erase_tree@V?$allocator@U?$_Tree_node@U?$pair@$$CBKPAV?$CRef@VCGraphicThing@@@@@std@@PAX@std@@@std@@@?$_Tree_val@U?$_Tree_simple_types@U?$pair@$$CBKPAV?$CRef@VCGraphicThing@@@@@std@@@std@@@std@@QAEXAAV?$allocator@U?$_Tree_node@U?$pair@$$CBKPAV?$CRef@VCGraphicThing@@@@@std@@PAX@std@@@1@PAU?$_Tree_node@U?$pair@$$CBKPAV?$CRef@VCGraphicThing@@@@@std@@PAX@1@@Z ; std::_Tree_val<std::_Tree_simple_types<std::pair<unsigned long const ,CRef<CGraphicThing> *> > >::_Erase_tree<std::allocator<std::_Tree_node<std::pair<unsigned long const ,CRef<CGraphicThing> *>,void *> > >
PUBLIC	??$_Resize_reallocate@U_Value_init_tag@std@@@?$vector@USModelThingSet@CGraphicThingInstance@@V?$allocator@USModelThingSet@CGraphicThingInstance@@@std@@@std@@AAEXIABU_Value_init_tag@1@@Z ; std::vector<CGraphicThingInstance::SModelThingSet,std::allocator<CGraphicThingInstance::SModelThingSet> >::_Resize_reallocate<std::_Value_init_tag>
PUBLIC	??$_Construct_in_place@PAU?$_Tree_node@U?$pair@$$CBKPAV?$CRef@VCGraphicThing@@@@@std@@PAX@std@@ABQAU12@@std@@YAXAAPAU?$_Tree_node@U?$pair@$$CBKPAV?$CRef@VCGraphicThing@@@@@std@@PAX@0@ABQAU10@@Z ; std::_Construct_in_place<std::_Tree_node<std::pair<unsigned long const ,CRef<CGraphicThing> *>,void *> *,std::_Tree_node<std::pair<unsigned long const ,CRef<CGraphicThing> *>,void *> * const &>
PUBLIC	??$_Allocate_manually_vector_aligned@U_Default_allocate_traits@std@@@std@@YAPAXI@Z ; std::_Allocate_manually_vector_aligned<std::_Default_allocate_traits>
PUBLIC	??$_Copy_memmove@PAPAVCGraphicThingInstance@@PAPAV1@@std@@YAPAPAVCGraphicThingInstance@@PAPAV1@00@Z ; std::_Copy_memmove<CGraphicThingInstance * *,CGraphicThingInstance * *>
PUBLIC	??$_Destroy_in_place@PAU?$_Tree_node@U?$pair@$$CBKPAV?$CRef@VCGraphicThing@@@@@std@@PAX@std@@@std@@YAXAAPAU?$_Tree_node@U?$pair@$$CBKPAV?$CRef@VCGraphicThing@@@@@std@@PAX@0@@Z ; std::_Destroy_in_place<std::_Tree_node<std::pair<unsigned long const ,CRef<CGraphicThing> *>,void *> *>
PUBLIC	??$_Uninitialized_value_construct_n@V?$allocator@USModelThingSet@CGraphicThingInstance@@@std@@@std@@YAPAUSModelThingSet@CGraphicThingInstance@@PAU12@IAAV?$allocator@USModelThingSet@CGraphicThingInstance@@@0@@Z ; std::_Uninitialized_value_construct_n<std::allocator<CGraphicThingInstance::SModelThingSet> >
PUBLIC	??$_Uninitialized_move@PAPAVCGrannyLODController@@V?$allocator@PAVCGrannyLODController@@@std@@@std@@YAPAPAVCGrannyLODController@@QAPAV1@0PAPAV1@AAV?$allocator@PAVCGrannyLODController@@@0@@Z ; std::_Uninitialized_move<CGrannyLODController * *,std::allocator<CGrannyLODController *> >
PUBLIC	??$_Destroy_range@V?$allocator@PAV?$CRef@VCGraphicThing@@@@@std@@@std@@YAXPAPAV?$CRef@VCGraphicThing@@@@QAPAV1@AAV?$allocator@PAV?$CRef@VCGraphicThing@@@@@0@@Z ; std::_Destroy_range<std::allocator<CRef<CGraphicThing> *> >
PUBLIC	??$_Uninitialized_move@PAPAV?$CRef@VCGraphicThing@@@@V?$allocator@PAV?$CRef@VCGraphicThing@@@@@std@@@std@@YAPAPAV?$CRef@VCGraphicThing@@@@QAPAV1@0PAPAV1@AAV?$allocator@PAV?$CRef@VCGraphicThing@@@@@0@@Z ; std::_Uninitialized_move<CRef<CGraphicThing> * *,std::allocator<CRef<CGraphicThing> *> >
PUBLIC	??$_Construct_in_place@PAU?$_Tree_node@U?$pair@$$CBKPAV?$CRef@VCGraphicThing@@@@@std@@PAX@std@@AAPAU12@@std@@YAXAAPAU?$_Tree_node@U?$pair@$$CBKPAV?$CRef@VCGraphicThing@@@@@std@@PAX@0@0@Z ; std::_Construct_in_place<std::_Tree_node<std::pair<unsigned long const ,CRef<CGraphicThing> *>,void *> *,std::_Tree_node<std::pair<unsigned long const ,CRef<CGraphicThing> *>,void *> * &>
PUBLIC	??$_Copy_memmove@PAPAVCGrannyLODController@@PAPAV1@@std@@YAPAPAVCGrannyLODController@@PAPAV1@00@Z ; std::_Copy_memmove<CGrannyLODController * *,CGrannyLODController * *>
PUBLIC	??$_Copy_memmove@PAPAV?$CRef@VCGraphicThing@@@@PAPAV1@@std@@YAPAPAV?$CRef@VCGraphicThing@@@@PAPAV1@00@Z ; std::_Copy_memmove<CRef<CGraphicThing> * *,CRef<CGraphicThing> * *>
PUBLIC	??$_Uninitialized_move@PAUSModelThingSet@CGraphicThingInstance@@V?$allocator@USModelThingSet@CGraphicThingInstance@@@std@@@std@@YAPAUSModelThingSet@CGraphicThingInstance@@QAU12@0PAU12@AAV?$allocator@USModelThingSet@CGraphicThingInstance@@@0@@Z ; std::_Uninitialized_move<CGraphicThingInstance::SModelThingSet *,std::allocator<CGraphicThingInstance::SModelThingSet> >
PUBLIC	??$?0ABK$$Z$$V@?$pair@$$CBKPAV?$CRef@VCGraphicThing@@@@@std@@QAE@Upiecewise_construct_t@1@V?$tuple@ABK@1@V?$tuple@$$V@1@@Z ; std::pair<unsigned long const ,CRef<CGraphicThing> *>::pair<unsigned long const ,CRef<CGraphicThing> *><unsigned long const &>
PUBLIC	??$?0V?$tuple@ABK@std@@V?$tuple@$$V@1@$0A@$$Z$S@?$pair@$$CBKPAV?$CRef@VCGraphicThing@@@@@std@@QAE@AAV?$tuple@ABK@1@AAV?$tuple@$$V@1@U?$integer_sequence@I$0A@@1@U?$integer_sequence@I$S@1@@Z ; std::pair<unsigned long const ,CRef<CGraphicThing> *>::pair<unsigned long const ,CRef<CGraphicThing> *><std::tuple<unsigned long const &>,std::tuple<>,0>
PUBLIC	??_7exception@std@@6B@				; std::exception::`vftable'
PUBLIC	??_C@_0BC@EOODALEL@Unknown?5exception@		; `string'
PUBLIC	??_7bad_alloc@std@@6B@				; std::bad_alloc::`vftable'
PUBLIC	??_7bad_array_new_length@std@@6B@		; std::bad_array_new_length::`vftable'
PUBLIC	??_C@_0BF@KINCDENJ@bad?5array?5new?5length@	; `string'
PUBLIC	__TI3?AVbad_array_new_length@std@@
PUBLIC	__CTA3?AVbad_array_new_length@std@@
PUBLIC	??_R0?AVbad_array_new_length@std@@@8		; std::bad_array_new_length `RTTI Type Descriptor'
PUBLIC	__CT??_R0?AVbad_array_new_length@std@@@8??0bad_array_new_length@std@@QAE@ABV01@@Z12
PUBLIC	??_R0?AVbad_alloc@std@@@8			; std::bad_alloc `RTTI Type Descriptor'
PUBLIC	__CT??_R0?AVbad_alloc@std@@@8??0bad_alloc@std@@QAE@ABV01@@Z12
PUBLIC	??_R0?AVexception@std@@@8			; std::exception `RTTI Type Descriptor'
PUBLIC	__CT??_R0?AVexception@std@@@8??0exception@std@@QAE@ABV01@@Z12
PUBLIC	??_C@_0BB@GCADKGJO@map?1set?5too?5long@		; `string'
PUBLIC	?ms_singleton@?$CSingleton@VCCameraManager@@@@0PAVCCameraManager@@A ; CSingleton<CCameraManager>::ms_singleton
PUBLIC	?ms_singleton@?$CSingleton@VCTimer@@@@0PAVCTimer@@A ; CSingleton<CTimer>::ms_singleton
PUBLIC	?ms_kPool@CGraphicThingInstance@@2V?$CDynamicPool@VCGraphicThingInstance@@@@A ; CGraphicThingInstance::ms_kPool
PUBLIC	??_7CGraphicThingInstance@@6B@			; CGraphicThingInstance::`vftable'
PUBLIC	??_C@_0GI@OAKDPIDM@CGraphicThingInstance?3?3AttachMo@ ; `string'
PUBLIC	??_C@_0FH@FOLHJMIP@CGraphicThingInstance?3?3AttachMo@ ; `string'
PUBLIC	??_C@_0FN@FDKPIIBK@CGraphicThingInstance?3?3SetModel@ ; `string'
PUBLIC	??_C@_0IG@CNBHAOPI@CGraphicThingInstance?3?3SetModel@ ; `string'
PUBLIC	??_C@_0HL@PNAAKLOK@CGraphicThingInstance?3?3SetMater@ ; `string'
PUBLIC	??_C@_0GM@CIGLBIHL@CGraphicThingInstance?3?3SetMater@ ; `string'
PUBLIC	??_C@_0FG@DKLHHMAO@CGraphicThingInstance?3?3SetMater@ ; `string'
PUBLIC	??_C@_0EH@ILONCBFP@CGraphicThingInstance?3?3SetMater@ ; `string'
PUBLIC	??_C@_0FG@IDFCAGB@CGraphicThingInstance?3?3SetSpecu@ ; `string'
PUBLIC	??_C@_0EH@ILOLFLHJ@CGraphicThingInstance?3?3SetSpecu@ ; `string'
PUBLIC	??_C@_0EL@BCFDDCFO@CGraphicThingInstance?3?3Register@ ; `string'
PUBLIC	??_C@_0ED@LMOOEEKB@CGraphicThingInstance?3?3UpdateLO@ ; `string'
PUBLIC	??_C@_0BA@FOIKENOD@vector?5too?5long@		; `string'
PUBLIC	??_R4exception@std@@6B@				; std::exception::`RTTI Complete Object Locator'
PUBLIC	??_R3exception@std@@8				; std::exception::`RTTI Class Hierarchy Descriptor'
PUBLIC	??_R2exception@std@@8				; std::exception::`RTTI Base Class Array'
PUBLIC	??_R1A@?0A@EA@exception@std@@8			; std::exception::`RTTI Base Class Descriptor at (0,-1,0,64)'
PUBLIC	??_R4bad_alloc@std@@6B@				; std::bad_alloc::`RTTI Complete Object Locator'
PUBLIC	??_R3bad_alloc@std@@8				; std::bad_alloc::`RTTI Class Hierarchy Descriptor'
PUBLIC	??_R2bad_alloc@std@@8				; std::bad_alloc::`RTTI Base Class Array'
PUBLIC	??_R1A@?0A@EA@bad_alloc@std@@8			; std::bad_alloc::`RTTI Base Class Descriptor at (0,-1,0,64)'
PUBLIC	??_R4bad_array_new_length@std@@6B@		; std::bad_array_new_length::`RTTI Complete Object Locator'
PUBLIC	??_R3bad_array_new_length@std@@8		; std::bad_array_new_length::`RTTI Class Hierarchy Descriptor'
PUBLIC	??_R2bad_array_new_length@std@@8		; std::bad_array_new_length::`RTTI Base Class Array'
PUBLIC	??_R1A@?0A@EA@bad_array_new_length@std@@8	; std::bad_array_new_length::`RTTI Base Class Descriptor at (0,-1,0,64)'
PUBLIC	??_R4CGraphicThingInstance@@6B@			; CGraphicThingInstance::`RTTI Complete Object Locator'
PUBLIC	??_R0?AVCGraphicThingInstance@@@8		; CGraphicThingInstance `RTTI Type Descriptor'
PUBLIC	??_R3CGraphicThingInstance@@8			; CGraphicThingInstance::`RTTI Class Hierarchy Descriptor'
PUBLIC	??_R2CGraphicThingInstance@@8			; CGraphicThingInstance::`RTTI Base Class Array'
PUBLIC	??_R1A@?0A@EA@CGraphicThingInstance@@8		; CGraphicThingInstance::`RTTI Base Class Descriptor at (0,-1,0,64)'
PUBLIC	??_R1A@?0A@EA@CGraphicObjectInstance@@8		; CGraphicObjectInstance::`RTTI Base Class Descriptor at (0,-1,0,64)'
PUBLIC	??_R0?AVCGraphicObjectInstance@@@8		; CGraphicObjectInstance `RTTI Type Descriptor'
PUBLIC	??_R3CGraphicObjectInstance@@8			; CGraphicObjectInstance::`RTTI Class Hierarchy Descriptor'
PUBLIC	??_R2CGraphicObjectInstance@@8			; CGraphicObjectInstance::`RTTI Base Class Array'
PUBLIC	??_R1A@?0A@EA@CGraphicCollisionObject@@8	; CGraphicCollisionObject::`RTTI Base Class Descriptor at (0,-1,0,64)'
PUBLIC	??_R0?AVCGraphicCollisionObject@@@8		; CGraphicCollisionObject `RTTI Type Descriptor'
PUBLIC	??_R3CGraphicCollisionObject@@8			; CGraphicCollisionObject::`RTTI Class Hierarchy Descriptor'
PUBLIC	??_R2CGraphicCollisionObject@@8			; CGraphicCollisionObject::`RTTI Base Class Array'
PUBLIC	??_R1A@?0A@EA@CGraphicBase@@8			; CGraphicBase::`RTTI Base Class Descriptor at (0,-1,0,64)'
PUBLIC	??_R0?AVCGraphicBase@@@8			; CGraphicBase `RTTI Type Descriptor'
PUBLIC	??_R3CGraphicBase@@8				; CGraphicBase::`RTTI Class Hierarchy Descriptor'
PUBLIC	??_R2CGraphicBase@@8				; CGraphicBase::`RTTI Base Class Array'
PUBLIC	__real@00000000
PUBLIC	__real@3e800000
PUBLIC	__real@3f000000
PUBLIC	__real@42480000
PUBLIC	__xmm@7fffffff7fffffff7fffffff7fffffff
EXTRN	??2@YAPAXI@Z:PROC				; operator new
EXTRN	??3@YAXPAXI@Z:PROC				; operator delete
EXTRN	_atexit:PROC
EXTRN	___std_terminate:PROC
EXTRN	__invalid_parameter_noinfo_noreturn:PROC
EXTRN	___std_exception_copy:PROC
EXTRN	___std_exception_destroy:PROC
EXTRN	??_Eexception@std@@UAEPAXI@Z:PROC		; std::exception::`vector deleting destructor'
EXTRN	??_Ebad_alloc@std@@UAEPAXI@Z:PROC		; std::bad_alloc::`vector deleting destructor'
EXTRN	??_Ebad_array_new_length@std@@UAEPAXI@Z:PROC	; std::bad_array_new_length::`vector deleting destructor'
EXTRN	?_Xlength_error@std@@YAXPBD@Z:PROC		; std::_Xlength_error
EXTRN	?TraceError@@YAXPBDZZ:PROC			; TraceError
EXTRN	_D3DXVec3TransformCoord@12:PROC
EXTRN	_D3DXVec4Transform@12:PROC
EXTRN	?GetCurrentCamera@CCameraManager@@QAEPAVCCamera@@XZ:PROC ; CCameraManager::GetCurrentCamera
EXTRN	?GetElapsedSecond@CTimer@@QAEMXZ:PROC		; CTimer::GetElapsedSecond
EXTRN	?AddReference@CReferenceObject@@QAEXXZ:PROC	; CReferenceObject::AddReference
EXTRN	?Release@CReferenceObject@@QAEXXZ:PROC		; CReferenceObject::Release
EXTRN	?Picking@CAttributeInstance@@QAE_NABUD3DXVECTOR3@@0AAM1@Z:PROC ; CAttributeInstance::Picking
EXTRN	?GetHeight@CAttributeInstance@@QAEHMMPAM@Z:PROC	; CAttributeInstance::GetHeight
EXTRN	??0CGraphicObjectInstance@@QAE@XZ:PROC		; CGraphicObjectInstance::CGraphicObjectInstance
EXTRN	??1CGraphicObjectInstance@@UAE@XZ:PROC		; CGraphicObjectInstance::~CGraphicObjectInstance
EXTRN	?GetPosition@CGraphicObjectInstance@@QBEABUD3DXVECTOR3@@XZ:PROC ; CGraphicObjectInstance::GetPosition
EXTRN	?Clear@CGraphicObjectInstance@@QAEXXZ:PROC	; CGraphicObjectInstance::Clear
EXTRN	?isShow@CGraphicObjectInstance@@QAE_NXZ:PROC	; CGraphicObjectInstance::isShow
EXTRN	?GetTransform@CGraphicObjectInstance@@QAEAAUD3DXMATRIX@@XZ:PROC ; CGraphicObjectInstance::GetTransform
EXTRN	?Initialize@CGraphicObjectInstance@@QAEXXZ:PROC	; CGraphicObjectInstance::Initialize
EXTRN	?AddCollision@CGraphicObjectInstance@@QAEXPBVCStaticCollisionData@@PBUD3DXMATRIX@@@Z:PROC ; CGraphicObjectInstance::AddCollision
EXTRN	?SetHeightInstance@CGraphicObjectInstance@@QAEXPAVCAttributeInstance@@@Z:PROC ; CGraphicObjectInstance::SetHeightInstance
EXTRN	?CheckMotionIndex@CGraphicThing@@QBE_NH@Z:PROC	; CGraphicThing::CheckMotionIndex
EXTRN	?GetMotionPointer@CGraphicThing@@QAEPAVCGrannyMotion@@H@Z:PROC ; CGraphicThing::GetMotionPointer
EXTRN	?UpdateTransform@CGrannyModelInstance@@QAEXPAUD3DXMATRIX@@M@Z:PROC ; CGrannyModelInstance::UpdateTransform
EXTRN	?GetBoneMatrixPointer@CGrannyModelInstance@@QBEPBMH@Z:PROC ; CGrannyModelInstance::GetBoneMatrixPointer
EXTRN	?GetCompositeBoneMatrixPointer@CGrannyModelInstance@@QBEPBMH@Z:PROC ; CGrannyModelInstance::GetCompositeBoneMatrixPointer
EXTRN	?GetBoneIndexByName@CGrannyModelInstance@@QBE_NPBDPAH@Z:PROC ; CGrannyModelInstance::GetBoneIndexByName
EXTRN	?GetBoundBox@CGrannyModelInstance@@QAEXPAUD3DXVECTOR3@@0@Z:PROC ; CGrannyModelInstance::GetBoundBox
EXTRN	??0CGrannyLODController@@QAE@XZ:PROC		; CGrannyLODController::CGrannyLODController
EXTRN	?Clear@CGrannyLODController@@QAEXXZ:PROC	; CGrannyLODController::Clear
EXTRN	?CreateDeviceObjects@CGrannyLODController@@QAEXXZ:PROC ; CGrannyLODController::CreateDeviceObjects
EXTRN	?DestroyDeviceObjects@CGrannyLODController@@QAEXXZ:PROC ; CGrannyLODController::DestroyDeviceObjects
EXTRN	?AddModel@CGrannyLODController@@QAEXPAVCGraphicThing@@HPAV1@@Z:PROC ; CGrannyLODController::AddModel
EXTRN	?AttachModelInstance@CGrannyLODController@@QAEXPAV1@PBD@Z:PROC ; CGrannyLODController::AttachModelInstance
EXTRN	?DetachModelInstance@CGrannyLODController@@QAEXPAV1@@Z:PROC ; CGrannyLODController::DetachModelInstance
EXTRN	?SetMaterialImagePointer@CGrannyLODController@@QAEXPBDPAVCGraphicImage@@@Z:PROC ; CGrannyLODController::SetMaterialImagePointer
EXTRN	?SetMaterialData@CGrannyLODController@@QAEXPBDABUSMaterialData@@@Z:PROC ; CGrannyLODController::SetMaterialData
EXTRN	?SetSpecularInfo@CGrannyLODController@@QAEXPBDHM@Z:PROC ; CGrannyLODController::SetSpecularInfo
EXTRN	?RenderWithOneTexture@CGrannyLODController@@QAEXXZ:PROC ; CGrannyLODController::RenderWithOneTexture
EXTRN	?RenderWithTwoTexture@CGrannyLODController@@QAEXXZ:PROC ; CGrannyLODController::RenderWithTwoTexture
EXTRN	?BlendRenderWithOneTexture@CGrannyLODController@@QAEXXZ:PROC ; CGrannyLODController::BlendRenderWithOneTexture
EXTRN	?UpdateLODLevel@CGrannyLODController@@QAEXMM@Z:PROC ; CGrannyLODController::UpdateLODLevel
EXTRN	?UpdateTime@CGrannyLODController@@QAEXM@Z:PROC	; CGrannyLODController::UpdateTime
EXTRN	?Deform@CGrannyLODController@@QAEXPBUD3DXMATRIX@@@Z:PROC ; CGrannyLODController::Deform
EXTRN	?DeformNoSkin@CGrannyLODController@@QAEXPBUD3DXMATRIX@@@Z:PROC ; CGrannyLODController::DeformNoSkin
EXTRN	?DeformAll@CGrannyLODController@@QAEXPBUD3DXMATRIX@@@Z:PROC ; CGrannyLODController::DeformAll
EXTRN	?RenderToShadowMap@CGrannyLODController@@QAEXXZ:PROC ; CGrannyLODController::RenderToShadowMap
EXTRN	?RenderShadow@CGrannyLODController@@QAEXXZ:PROC	; CGrannyLODController::RenderShadow
EXTRN	?ReloadTexture@CGrannyLODController@@QAEXXZ:PROC ; CGrannyLODController::ReloadTexture
EXTRN	?GetBoundBox@CGrannyLODController@@QAEXPAUD3DXVECTOR3@@0@Z:PROC ; CGrannyLODController::GetBoundBox
EXTRN	?Intersect@CGrannyLODController@@QAE_NPBUD3DXMATRIX@@PAM11@Z:PROC ; CGrannyLODController::Intersect
EXTRN	?SetLocalTime@CGrannyLODController@@QAEXM@Z:PROC ; CGrannyLODController::SetLocalTime
EXTRN	?ResetLocalTime@CGrannyLODController@@QAEXXZ:PROC ; CGrannyLODController::ResetLocalTime
EXTRN	?SetMotionPointer@CGrannyLODController@@QAEXPBVCGrannyMotion@@MHM@Z:PROC ; CGrannyLODController::SetMotionPointer
EXTRN	?ChangeMotionPointer@CGrannyLODController@@QAEXPBVCGrannyMotion@@HM@Z:PROC ; CGrannyLODController::ChangeMotionPointer
EXTRN	?SetMotionAtEnd@CGrannyLODController@@QAEXXZ:PROC ; CGrannyLODController::SetMotionAtEnd
EXTRN	?isModelInstance@CGrannyLODController@@QAEHXZ:PROC ; CGrannyLODController::isModelInstance
EXTRN	?GetModelInstance@CGrannyLODController@@QAEPAVCGrannyModelInstance@@XZ:PROC ; CGrannyLODController::GetModelInstance
EXTRN	??_ECGraphicThingInstance@@UAEPAXI@Z:PROC	; CGraphicThingInstance::`vector deleting destructor'
EXTRN	@__security_check_cookie@4:PROC
EXTRN	__CxxThrowException@8:PROC
EXTRN	___CxxFrameHandler3:PROC
EXTRN	__libm_sse2_sqrt_precise:PROC
EXTRN	_memmove:PROC
EXTRN	___security_cookie:DWORD
EXTRN	__fltused:DWORD
;	COMDAT ?ms_singleton@?$CSingleton@VCCameraManager@@@@0PAVCCameraManager@@A
_BSS	SEGMENT
?ms_singleton@?$CSingleton@VCCameraManager@@@@0PAVCCameraManager@@A DD 01H DUP (?) ; CSingleton<CCameraManager>::ms_singleton
_BSS	ENDS
;	COMDAT ?ms_singleton@?$CSingleton@VCTimer@@@@0PAVCTimer@@A
_BSS	SEGMENT
?ms_singleton@?$CSingleton@VCTimer@@@@0PAVCTimer@@A DD 01H DUP (?) ; CSingleton<CTimer>::ms_singleton
_BSS	ENDS
CRT$XCU	SEGMENT
??ms_kPool$initializer$@CGraphicThingInstance@@2P6AXXZA@@3P6AXXZA DD FLAT:??__E?ms_kPool@CGraphicThingInstance@@2V?$CDynamicPool@VCGraphicThingInstance@@@@A@@YAXXZ ; ??ms_kPool$initializer$@CGraphicThingInstance@@2P6AXXZA@@3P6AXXZA
CRT$XCU	ENDS
;	COMDAT __xmm@7fffffff7fffffff7fffffff7fffffff
CONST	SEGMENT
__xmm@7fffffff7fffffff7fffffff7fffffff DB 0ffH, 0ffH, 0ffH, 07fH, 0ffH, 0ffH
	DB	0ffH, 07fH, 0ffH, 0ffH, 0ffH, 07fH, 0ffH, 0ffH, 0ffH, 07fH
CONST	ENDS
;	COMDAT __real@42480000
CONST	SEGMENT
__real@42480000 DD 042480000r			; 50
CONST	ENDS
;	COMDAT __real@3f000000
CONST	SEGMENT
__real@3f000000 DD 03f000000r			; 0.5
CONST	ENDS
;	COMDAT __real@3e800000
CONST	SEGMENT
__real@3e800000 DD 03e800000r			; 0.25
CONST	ENDS
;	COMDAT __real@00000000
CONST	SEGMENT
__real@00000000 DD 000000000r			; 0
CONST	ENDS
;	COMDAT ??_R2CGraphicBase@@8
rdata$r	SEGMENT
??_R2CGraphicBase@@8 DD FLAT:??_R1A@?0A@EA@CGraphicBase@@8 ; CGraphicBase::`RTTI Base Class Array'
rdata$r	ENDS
;	COMDAT ??_R3CGraphicBase@@8
rdata$r	SEGMENT
??_R3CGraphicBase@@8 DD 00H				; CGraphicBase::`RTTI Class Hierarchy Descriptor'
	DD	00H
	DD	01H
	DD	FLAT:??_R2CGraphicBase@@8
rdata$r	ENDS
;	COMDAT ??_R0?AVCGraphicBase@@@8
data$r	SEGMENT
??_R0?AVCGraphicBase@@@8 DD FLAT:??_7type_info@@6B@	; CGraphicBase `RTTI Type Descriptor'
	DD	00H
	DB	'.?AVCGraphicBase@@', 00H
data$r	ENDS
;	COMDAT ??_R1A@?0A@EA@CGraphicBase@@8
rdata$r	SEGMENT
??_R1A@?0A@EA@CGraphicBase@@8 DD FLAT:??_R0?AVCGraphicBase@@@8 ; CGraphicBase::`RTTI Base Class Descriptor at (0,-1,0,64)'
	DD	00H
	DD	00H
	DD	0ffffffffH
	DD	00H
	DD	040H
	DD	FLAT:??_R3CGraphicBase@@8
rdata$r	ENDS
;	COMDAT ??_R2CGraphicCollisionObject@@8
rdata$r	SEGMENT
??_R2CGraphicCollisionObject@@8 DD FLAT:??_R1A@?0A@EA@CGraphicCollisionObject@@8 ; CGraphicCollisionObject::`RTTI Base Class Array'
	DD	FLAT:??_R1A@?0A@EA@CGraphicBase@@8
rdata$r	ENDS
;	COMDAT ??_R3CGraphicCollisionObject@@8
rdata$r	SEGMENT
??_R3CGraphicCollisionObject@@8 DD 00H			; CGraphicCollisionObject::`RTTI Class Hierarchy Descriptor'
	DD	00H
	DD	02H
	DD	FLAT:??_R2CGraphicCollisionObject@@8
rdata$r	ENDS
;	COMDAT ??_R0?AVCGraphicCollisionObject@@@8
data$r	SEGMENT
??_R0?AVCGraphicCollisionObject@@@8 DD FLAT:??_7type_info@@6B@ ; CGraphicCollisionObject `RTTI Type Descriptor'
	DD	00H
	DB	'.?AVCGraphicCollisionObject@@', 00H
data$r	ENDS
;	COMDAT ??_R1A@?0A@EA@CGraphicCollisionObject@@8
rdata$r	SEGMENT
??_R1A@?0A@EA@CGraphicCollisionObject@@8 DD FLAT:??_R0?AVCGraphicCollisionObject@@@8 ; CGraphicCollisionObject::`RTTI Base Class Descriptor at (0,-1,0,64)'
	DD	01H
	DD	00H
	DD	0ffffffffH
	DD	00H
	DD	040H
	DD	FLAT:??_R3CGraphicCollisionObject@@8
rdata$r	ENDS
;	COMDAT ??_R2CGraphicObjectInstance@@8
rdata$r	SEGMENT
??_R2CGraphicObjectInstance@@8 DD FLAT:??_R1A@?0A@EA@CGraphicObjectInstance@@8 ; CGraphicObjectInstance::`RTTI Base Class Array'
	DD	FLAT:??_R1A@?0A@EA@CGraphicCollisionObject@@8
	DD	FLAT:??_R1A@?0A@EA@CGraphicBase@@8
rdata$r	ENDS
;	COMDAT ??_R3CGraphicObjectInstance@@8
rdata$r	SEGMENT
??_R3CGraphicObjectInstance@@8 DD 00H			; CGraphicObjectInstance::`RTTI Class Hierarchy Descriptor'
	DD	00H
	DD	03H
	DD	FLAT:??_R2CGraphicObjectInstance@@8
rdata$r	ENDS
;	COMDAT ??_R0?AVCGraphicObjectInstance@@@8
data$r	SEGMENT
??_R0?AVCGraphicObjectInstance@@@8 DD FLAT:??_7type_info@@6B@ ; CGraphicObjectInstance `RTTI Type Descriptor'
	DD	00H
	DB	'.?AVCGraphicObjectInstance@@', 00H
data$r	ENDS
;	COMDAT ??_R1A@?0A@EA@CGraphicObjectInstance@@8
rdata$r	SEGMENT
??_R1A@?0A@EA@CGraphicObjectInstance@@8 DD FLAT:??_R0?AVCGraphicObjectInstance@@@8 ; CGraphicObjectInstance::`RTTI Base Class Descriptor at (0,-1,0,64)'
	DD	02H
	DD	00H
	DD	0ffffffffH
	DD	00H
	DD	040H
	DD	FLAT:??_R3CGraphicObjectInstance@@8
rdata$r	ENDS
;	COMDAT ??_R1A@?0A@EA@CGraphicThingInstance@@8
rdata$r	SEGMENT
??_R1A@?0A@EA@CGraphicThingInstance@@8 DD FLAT:??_R0?AVCGraphicThingInstance@@@8 ; CGraphicThingInstance::`RTTI Base Class Descriptor at (0,-1,0,64)'
	DD	03H
	DD	00H
	DD	0ffffffffH
	DD	00H
	DD	040H
	DD	FLAT:??_R3CGraphicThingInstance@@8
rdata$r	ENDS
;	COMDAT ??_R2CGraphicThingInstance@@8
rdata$r	SEGMENT
??_R2CGraphicThingInstance@@8 DD FLAT:??_R1A@?0A@EA@CGraphicThingInstance@@8 ; CGraphicThingInstance::`RTTI Base Class Array'
	DD	FLAT:??_R1A@?0A@EA@CGraphicObjectInstance@@8
	DD	FLAT:??_R1A@?0A@EA@CGraphicCollisionObject@@8
	DD	FLAT:??_R1A@?0A@EA@CGraphicBase@@8
rdata$r	ENDS
;	COMDAT ??_R3CGraphicThingInstance@@8
rdata$r	SEGMENT
??_R3CGraphicThingInstance@@8 DD 00H			; CGraphicThingInstance::`RTTI Class Hierarchy Descriptor'
	DD	00H
	DD	04H
	DD	FLAT:??_R2CGraphicThingInstance@@8
rdata$r	ENDS
;	COMDAT ??_R0?AVCGraphicThingInstance@@@8
data$r	SEGMENT
??_R0?AVCGraphicThingInstance@@@8 DD FLAT:??_7type_info@@6B@ ; CGraphicThingInstance `RTTI Type Descriptor'
	DD	00H
	DB	'.?AVCGraphicThingInstance@@', 00H
data$r	ENDS
;	COMDAT ??_R4CGraphicThingInstance@@6B@
rdata$r	SEGMENT
??_R4CGraphicThingInstance@@6B@ DD 00H			; CGraphicThingInstance::`RTTI Complete Object Locator'
	DD	00H
	DD	00H
	DD	FLAT:??_R0?AVCGraphicThingInstance@@@8
	DD	FLAT:??_R3CGraphicThingInstance@@8
rdata$r	ENDS
;	COMDAT ??_R1A@?0A@EA@bad_array_new_length@std@@8
rdata$r	SEGMENT
??_R1A@?0A@EA@bad_array_new_length@std@@8 DD FLAT:??_R0?AVbad_array_new_length@std@@@8 ; std::bad_array_new_length::`RTTI Base Class Descriptor at (0,-1,0,64)'
	DD	02H
	DD	00H
	DD	0ffffffffH
	DD	00H
	DD	040H
	DD	FLAT:??_R3bad_array_new_length@std@@8
rdata$r	ENDS
;	COMDAT ??_R2bad_array_new_length@std@@8
rdata$r	SEGMENT
??_R2bad_array_new_length@std@@8 DD FLAT:??_R1A@?0A@EA@bad_array_new_length@std@@8 ; std::bad_array_new_length::`RTTI Base Class Array'
	DD	FLAT:??_R1A@?0A@EA@bad_alloc@std@@8
	DD	FLAT:??_R1A@?0A@EA@exception@std@@8
rdata$r	ENDS
;	COMDAT ??_R3bad_array_new_length@std@@8
rdata$r	SEGMENT
??_R3bad_array_new_length@std@@8 DD 00H			; std::bad_array_new_length::`RTTI Class Hierarchy Descriptor'
	DD	00H
	DD	03H
	DD	FLAT:??_R2bad_array_new_length@std@@8
rdata$r	ENDS
;	COMDAT ??_R4bad_array_new_length@std@@6B@
rdata$r	SEGMENT
??_R4bad_array_new_length@std@@6B@ DD 00H		; std::bad_array_new_length::`RTTI Complete Object Locator'
	DD	00H
	DD	00H
	DD	FLAT:??_R0?AVbad_array_new_length@std@@@8
	DD	FLAT:??_R3bad_array_new_length@std@@8
rdata$r	ENDS
;	COMDAT ??_R1A@?0A@EA@bad_alloc@std@@8
rdata$r	SEGMENT
??_R1A@?0A@EA@bad_alloc@std@@8 DD FLAT:??_R0?AVbad_alloc@std@@@8 ; std::bad_alloc::`RTTI Base Class Descriptor at (0,-1,0,64)'
	DD	01H
	DD	00H
	DD	0ffffffffH
	DD	00H
	DD	040H
	DD	FLAT:??_R3bad_alloc@std@@8
rdata$r	ENDS
;	COMDAT ??_R2bad_alloc@std@@8
rdata$r	SEGMENT
??_R2bad_alloc@std@@8 DD FLAT:??_R1A@?0A@EA@bad_alloc@std@@8 ; std::bad_alloc::`RTTI Base Class Array'
	DD	FLAT:??_R1A@?0A@EA@exception@std@@8
rdata$r	ENDS
;	COMDAT ??_R3bad_alloc@std@@8
rdata$r	SEGMENT
??_R3bad_alloc@std@@8 DD 00H				; std::bad_alloc::`RTTI Class Hierarchy Descriptor'
	DD	00H
	DD	02H
	DD	FLAT:??_R2bad_alloc@std@@8
rdata$r	ENDS
;	COMDAT ??_R4bad_alloc@std@@6B@
rdata$r	SEGMENT
??_R4bad_alloc@std@@6B@ DD 00H				; std::bad_alloc::`RTTI Complete Object Locator'
	DD	00H
	DD	00H
	DD	FLAT:??_R0?AVbad_alloc@std@@@8
	DD	FLAT:??_R3bad_alloc@std@@8
rdata$r	ENDS
;	COMDAT ??_R1A@?0A@EA@exception@std@@8
rdata$r	SEGMENT
??_R1A@?0A@EA@exception@std@@8 DD FLAT:??_R0?AVexception@std@@@8 ; std::exception::`RTTI Base Class Descriptor at (0,-1,0,64)'
	DD	00H
	DD	00H
	DD	0ffffffffH
	DD	00H
	DD	040H
	DD	FLAT:??_R3exception@std@@8
rdata$r	ENDS
;	COMDAT ??_R2exception@std@@8
rdata$r	SEGMENT
??_R2exception@std@@8 DD FLAT:??_R1A@?0A@EA@exception@std@@8 ; std::exception::`RTTI Base Class Array'
rdata$r	ENDS
;	COMDAT ??_R3exception@std@@8
rdata$r	SEGMENT
??_R3exception@std@@8 DD 00H				; std::exception::`RTTI Class Hierarchy Descriptor'
	DD	00H
	DD	01H
	DD	FLAT:??_R2exception@std@@8
rdata$r	ENDS
;	COMDAT ??_R4exception@std@@6B@
rdata$r	SEGMENT
??_R4exception@std@@6B@ DD 00H				; std::exception::`RTTI Complete Object Locator'
	DD	00H
	DD	00H
	DD	FLAT:??_R0?AVexception@std@@@8
	DD	FLAT:??_R3exception@std@@8
rdata$r	ENDS
;	COMDAT ??_C@_0BA@FOIKENOD@vector?5too?5long@
CONST	SEGMENT
??_C@_0BA@FOIKENOD@vector?5too?5long@ DB 'vector too long', 00H ; `string'
CONST	ENDS
;	COMDAT ??_C@_0ED@LMOOEEKB@CGraphicThingInstance?3?3UpdateLO@
CONST	SEGMENT
??_C@_0ED@LMOOEEKB@CGraphicThingInstance?3?3UpdateLO@ DB 'CGraphicThingIn'
	DB	'stance::UpdateLODLevel - GetCurrentCamera() == NULL', 00H ; `string'
CONST	ENDS
;	COMDAT ??_C@_0EL@BCFDDCFO@CGraphicThingInstance?3?3Register@
CONST	SEGMENT
??_C@_0EL@BCFDDCFO@CGraphicThingInstance?3?3Register@ DB 'CGraphicThingIn'
	DB	'stance::RegisterModelThing(iModelThing=%d, pModelThing=%s)', 0aH
	DB	00H						; `string'
CONST	ENDS
;	COMDAT ??_C@_0EH@ILOLFLHJ@CGraphicThingInstance?3?3SetSpecu@
CONST	SEGMENT
??_C@_0EH@ILOLFLHJ@CGraphicThingInstance?3?3SetSpecu@ DB 'CGraphicThingIn'
	DB	'stance::SetSpecularInfo(ePart(%d)) - ePart Data is NULL', 00H ; `string'
CONST	ENDS
;	COMDAT ??_C@_0FG@IDFCAGB@CGraphicThingInstance?3?3SetSpecu@
CONST	SEGMENT
??_C@_0FG@IDFCAGB@CGraphicThingInstance?3?3SetSpecu@ DB 'CGraphicThingIns'
	DB	'tance::SetSpecularInfo(ePart(%d)<uPartCount(%d)) - ePart OUT '
	DB	'OF RANGE', 00H				; `string'
CONST	ENDS
;	COMDAT ??_C@_0EH@ILONCBFP@CGraphicThingInstance?3?3SetMater@
CONST	SEGMENT
??_C@_0EH@ILONCBFP@CGraphicThingInstance?3?3SetMater@ DB 'CGraphicThingIn'
	DB	'stance::SetMaterialData(ePart(%d)) - ePart Data is NULL', 00H ; `string'
CONST	ENDS
;	COMDAT ??_C@_0FG@DKLHHMAO@CGraphicThingInstance?3?3SetMater@
CONST	SEGMENT
??_C@_0FG@DKLHHMAO@CGraphicThingInstance?3?3SetMater@ DB 'CGraphicThingIn'
	DB	'stance::SetMaterialData(ePart(%d)<uPartCount(%d)) - ePart OUT'
	DB	' OF RANGE', 00H				; `string'
CONST	ENDS
;	COMDAT ??_C@_0GM@CIGLBIHL@CGraphicThingInstance?3?3SetMater@
CONST	SEGMENT
??_C@_0GM@CIGLBIHL@CGraphicThingInstance?3?3SetMater@ DB 'CGraphicThingIn'
	DB	'stance::SetMaterialImagePointer(ePart(%d), c_szImageName=%s, '
	DB	'pImage=%s) - ePart Data is NULL', 00H	; `string'
CONST	ENDS
;	COMDAT ??_C@_0HL@PNAAKLOK@CGraphicThingInstance?3?3SetMater@
CONST	SEGMENT
??_C@_0HL@PNAAKLOK@CGraphicThingInstance?3?3SetMater@ DB 'CGraphicThingIn'
	DB	'stance::SetMaterialImagePointer(ePart(%d)<uPartCount(%d), c_s'
	DB	'zImageName=%s, pImage=%s) - ePart OUT OF RANGE', 00H ; `string'
CONST	ENDS
;	COMDAT ??_C@_0IG@CNBHAOPI@CGraphicThingInstance?3?3SetModel@
CONST	SEGMENT
??_C@_0IG@CNBHAOPI@CGraphicThingInstance?3?3SetModel@ DB 'CGraphicThingIn'
	DB	'stance::SetModelInstanceByOtherSkeletonInstance(iSkelInstance'
	DB	'=%d, iDstModelInstance=%d, pModelThing=%d, iSrcModel=%d)', 0aH
	DB	00H						; `string'
CONST	ENDS
;	COMDAT ??_C@_0FN@FDKPIIBK@CGraphicThingInstance?3?3SetModel@
CONST	SEGMENT
??_C@_0FN@FDKPIIBK@CGraphicThingInstance?3?3SetModel@ DB 'CGraphicThingIn'
	DB	'stance::SetModelInstance(iDstModelInstance=%d, pModelThing=%d'
	DB	', iSrcModel=%d)', 0aH, 00H			; `string'
CONST	ENDS
;	COMDAT ??_C@_0FH@FOLHJMIP@CGraphicThingInstance?3?3AttachMo@
CONST	SEGMENT
??_C@_0FH@FOLHJMIP@CGraphicThingInstance?3?3AttachMo@ DB 'CGraphicThingIn'
	DB	'stance::AttachModelInstance(iDstModelInstance=%d, iSrcModelIn'
	DB	'stance=%d)', 00H				; `string'
CONST	ENDS
;	COMDAT ??_C@_0GI@OAKDPIDM@CGraphicThingInstance?3?3AttachMo@
CONST	SEGMENT
??_C@_0GI@OAKDPIDM@CGraphicThingInstance?3?3AttachMo@ DB 'CGraphicThingIn'
	DB	'stance::AttachModelInstance(iDstModelInstance=%d, c_szBoneNam'
	DB	'e=%s, iSrcModelInstance=%d)', 00H		; `string'
CONST	ENDS
;	COMDAT ??_7CGraphicThingInstance@@6B@
CONST	SEGMENT
??_7CGraphicThingInstance@@6B@ DD FLAT:??_R4CGraphicThingInstance@@6B@ ; CGraphicThingInstance::`vftable'
	DD	FLAT:??_ECGraphicThingInstance@@UAEPAXI@Z
	DD	FLAT:?GetType@CGraphicThingInstance@@UBEHXZ
	DD	FLAT:?OnInitialize@CGraphicThingInstance@@UAEXXZ
	DD	FLAT:?GetBoundingSphere@CGraphicThingInstance@@UAE_NAAUD3DXVECTOR3@@AAM@Z
	DD	FLAT:?OnRender@CGraphicThingInstance@@MAEXXZ
	DD	FLAT:?OnBlendRender@CGraphicThingInstance@@MAEXXZ
	DD	FLAT:?OnRenderToShadowMap@CGraphicThingInstance@@MAEXXZ
	DD	FLAT:?OnRenderShadow@CGraphicThingInstance@@MAEXXZ
	DD	FLAT:?OnRenderPCBlocker@CGraphicThingInstance@@MAEXXZ
	DD	FLAT:?OnClear@CGraphicThingInstance@@MAEXXZ
	DD	FLAT:?OnUpdate@CGraphicThingInstance@@MAEXXZ
	DD	FLAT:?OnDeform@CGraphicThingInstance@@MAEXXZ
	DD	FLAT:?OnUpdateCollisionData@CGraphicThingInstance@@MAEXPBV?$vector@VCStaticCollisionData@@V?$allocator@VCStaticCollisionData@@@std@@@std@@@Z
	DD	FLAT:?OnUpdateHeighInstance@CGraphicThingInstance@@MAEXPAVCAttributeInstance@@@Z
	DD	FLAT:?OnGetObjectHeight@CGraphicThingInstance@@MAE_NMMPAM@Z
	DD	FLAT:?CalculateBBox@CGraphicThingInstance@@UAEXXZ
	DD	FLAT:?GetBoundingAABB@CGraphicThingInstance@@UAE_NAAUD3DXVECTOR3@@0@Z
CONST	ENDS
_DATA	SEGMENT
?ms_kPool@CGraphicThingInstance@@2V?$CDynamicPool@VCGraphicThingInstance@@@@A DD FLAT:??_7?$CDynamicPool@VCGraphicThingInstance@@@@6B@ ; CGraphicThingInstance::ms_kPool
	DD	00H
	DD	00H
	DD	00H
	DD	00H
	DD	00H
	DD	00H
	DD	00H
	DD	00H
_DATA	ENDS
;	COMDAT ??_C@_0BB@GCADKGJO@map?1set?5too?5long@
CONST	SEGMENT
??_C@_0BB@GCADKGJO@map?1set?5too?5long@ DB 'map/set too long', 00H ; `string'
CONST	ENDS
;	COMDAT __CT??_R0?AVexception@std@@@8??0exception@std@@QAE@ABV01@@Z12
xdata$x	SEGMENT
__CT??_R0?AVexception@std@@@8??0exception@std@@QAE@ABV01@@Z12 DD 00H
	DD	FLAT:??_R0?AVexception@std@@@8
	DD	00H
	DD	0ffffffffH
	ORG $+4
	DD	0cH
	DD	FLAT:??0exception@std@@QAE@ABV01@@Z
xdata$x	ENDS
;	COMDAT ??_R0?AVexception@std@@@8
data$r	SEGMENT
??_R0?AVexception@std@@@8 DD FLAT:??_7type_info@@6B@	; std::exception `RTTI Type Descriptor'
	DD	00H
	DB	'.?AVexception@std@@', 00H
data$r	ENDS
;	COMDAT __CT??_R0?AVbad_alloc@std@@@8??0bad_alloc@std@@QAE@ABV01@@Z12
xdata$x	SEGMENT
__CT??_R0?AVbad_alloc@std@@@8??0bad_alloc@std@@QAE@ABV01@@Z12 DD 010H
	DD	FLAT:??_R0?AVbad_alloc@std@@@8
	DD	00H
	DD	0ffffffffH
	ORG $+4
	DD	0cH
	DD	FLAT:??0bad_alloc@std@@QAE@ABV01@@Z
xdata$x	ENDS
;	COMDAT ??_R0?AVbad_alloc@std@@@8
data$r	SEGMENT
??_R0?AVbad_alloc@std@@@8 DD FLAT:??_7type_info@@6B@	; std::bad_alloc `RTTI Type Descriptor'
	DD	00H
	DB	'.?AVbad_alloc@std@@', 00H
data$r	ENDS
;	COMDAT __CT??_R0?AVbad_array_new_length@std@@@8??0bad_array_new_length@std@@QAE@ABV01@@Z12
xdata$x	SEGMENT
__CT??_R0?AVbad_array_new_length@std@@@8??0bad_array_new_length@std@@QAE@ABV01@@Z12 DD 00H
	DD	FLAT:??_R0?AVbad_array_new_length@std@@@8
	DD	00H
	DD	0ffffffffH
	ORG $+4
	DD	0cH
	DD	FLAT:??0bad_array_new_length@std@@QAE@ABV01@@Z
xdata$x	ENDS
;	COMDAT ??_R0?AVbad_array_new_length@std@@@8
data$r	SEGMENT
??_R0?AVbad_array_new_length@std@@@8 DD FLAT:??_7type_info@@6B@ ; std::bad_array_new_length `RTTI Type Descriptor'
	DD	00H
	DB	'.?AVbad_array_new_length@std@@', 00H
data$r	ENDS
;	COMDAT __CTA3?AVbad_array_new_length@std@@
xdata$x	SEGMENT
__CTA3?AVbad_array_new_length@std@@ DD 03H
	DD	FLAT:__CT??_R0?AVbad_array_new_length@std@@@8??0bad_array_new_length@std@@QAE@ABV01@@Z12
	DD	FLAT:__CT??_R0?AVbad_alloc@std@@@8??0bad_alloc@std@@QAE@ABV01@@Z12
	DD	FLAT:__CT??_R0?AVexception@std@@@8??0exception@std@@QAE@ABV01@@Z12
xdata$x	ENDS
;	COMDAT __TI3?AVbad_array_new_length@std@@
xdata$x	SEGMENT
__TI3?AVbad_array_new_length@std@@ DD 00H
	DD	FLAT:??1bad_array_new_length@std@@UAE@XZ
	DD	00H
	DD	FLAT:__CTA3?AVbad_array_new_length@std@@
xdata$x	ENDS
;	COMDAT ??_C@_0BF@KINCDENJ@bad?5array?5new?5length@
CONST	SEGMENT
??_C@_0BF@KINCDENJ@bad?5array?5new?5length@ DB 'bad array new length', 00H ; `string'
CONST	ENDS
;	COMDAT ??_7bad_array_new_length@std@@6B@
CONST	SEGMENT
??_7bad_array_new_length@std@@6B@ DD FLAT:??_R4bad_array_new_length@std@@6B@ ; std::bad_array_new_length::`vftable'
	DD	FLAT:??_Ebad_array_new_length@std@@UAEPAXI@Z
	DD	FLAT:?what@exception@std@@UBEPBDXZ
CONST	ENDS
;	COMDAT ??_7bad_alloc@std@@6B@
CONST	SEGMENT
??_7bad_alloc@std@@6B@ DD FLAT:??_R4bad_alloc@std@@6B@	; std::bad_alloc::`vftable'
	DD	FLAT:??_Ebad_alloc@std@@UAEPAXI@Z
	DD	FLAT:?what@exception@std@@UBEPBDXZ
CONST	ENDS
;	COMDAT ??_C@_0BC@EOODALEL@Unknown?5exception@
CONST	SEGMENT
??_C@_0BC@EOODALEL@Unknown?5exception@ DB 'Unknown exception', 00H ; `string'
CONST	ENDS
;	COMDAT ??_7exception@std@@6B@
CONST	SEGMENT
??_7exception@std@@6B@ DD FLAT:??_R4exception@std@@6B@	; std::exception::`vftable'
	DD	FLAT:??_Eexception@std@@UAEPAXI@Z
	DD	FLAT:?what@exception@std@@UBEPBDXZ
CONST	ENDS
;	COMDAT xdata$x
xdata$x	SEGMENT
__unwindtable$??$?0U?$pair@$$CBKPAV?$CRef@VCGraphicThing@@@@@std@@@?$_Tree_temp_node@V?$allocator@U?$_Tree_node@U?$pair@$$CBKPAV?$CRef@VCGraphicThing@@@@@std@@PAX@std@@@std@@@std@@QAE@AAV?$allocator@U?$_Tree_node@U?$pair@$$CBKPAV?$CRef@VCGraphicThing@@@@@std@@PAX@std@@@1@PAU?$_Tree_node@U?$pair@$$CBKPAV?$CRef@VCGraphicThing@@@@@std@@PAX@1@$$QAU?$pair@$$CBKPAV?$CRef@VCGraphicThing@@@@@1@@Z DD 0ffffffffH
	DD	FLAT:__unwindfunclet$??$?0U?$pair@$$CBKPAV?$CRef@VCGraphicThing@@@@@std@@@?$_Tree_temp_node@V?$allocator@U?$_Tree_node@U?$pair@$$CBKPAV?$CRef@VCGraphicThing@@@@@std@@PAX@std@@@std@@@std@@QAE@AAV?$allocator@U?$_Tree_node@U?$pair@$$CBKPAV?$CRef@VCGraphicThing@@@@@std@@PAX@std@@@1@PAU?$_Tree_node@U?$pair@$$CBKPAV?$CRef@VCGraphicThing@@@@@std@@PAX@1@$$QAU?$pair@$$CBKPAV?$CRef@VCGraphicThing@@@@@1@@Z$1
__ehfuncinfo$??$?0U?$pair@$$CBKPAV?$CRef@VCGraphicThing@@@@@std@@@?$_Tree_temp_node@V?$allocator@U?$_Tree_node@U?$pair@$$CBKPAV?$CRef@VCGraphicThing@@@@@std@@PAX@std@@@std@@@std@@QAE@AAV?$allocator@U?$_Tree_node@U?$pair@$$CBKPAV?$CRef@VCGraphicThing@@@@@std@@PAX@std@@@1@PAU?$_Tree_node@U?$pair@$$CBKPAV?$CRef@VCGraphicThing@@@@@std@@PAX@1@$$QAU?$pair@$$CBKPAV?$CRef@VCGraphicThing@@@@@1@@Z DD 019930522H
	DD	01H
	DD	FLAT:__unwindtable$??$?0U?$pair@$$CBKPAV?$CRef@VCGraphicThing@@@@@std@@@?$_Tree_temp_node@V?$allocator@U?$_Tree_node@U?$pair@$$CBKPAV?$CRef@VCGraphicThing@@@@@std@@PAX@std@@@std@@@std@@QAE@AAV?$allocator@U?$_Tree_node@U?$pair@$$CBKPAV?$CRef@VCGraphicThing@@@@@std@@PAX@std@@@1@PAU?$_Tree_node@U?$pair@$$CBKPAV?$CRef@VCGraphicThing@@@@@std@@PAX@1@$$QAU?$pair@$$CBKPAV?$CRef@VCGraphicThing@@@@@1@@Z
	DD	2 DUP(00H)
	DD	2 DUP(00H)
	DD	00H
	DD	01H
xdata$x	ENDS
;	COMDAT xdata$x
xdata$x	SEGMENT
__unwindtable$??$?0ABUpiecewise_construct_t@std@@V?$tuple@ABK@1@V?$tuple@$$V@1@@?$_Tree_temp_node@V?$allocator@U?$_Tree_node@U?$pair@$$CBKPAV?$CRef@VCGraphicThing@@@@@std@@PAX@std@@@std@@@std@@QAE@AAV?$allocator@U?$_Tree_node@U?$pair@$$CBKPAV?$CRef@VCGraphicThing@@@@@std@@PAX@std@@@1@PAU?$_Tree_node@U?$pair@$$CBKPAV?$CRef@VCGraphicThing@@@@@std@@PAX@1@ABUpiecewise_construct_t@1@$$QAV?$tuple@ABK@1@$$QAV?$tuple@$$V@1@@Z DD 0ffffffffH
	DD	FLAT:__unwindfunclet$??$?0ABUpiecewise_construct_t@std@@V?$tuple@ABK@1@V?$tuple@$$V@1@@?$_Tree_temp_node@V?$allocator@U?$_Tree_node@U?$pair@$$CBKPAV?$CRef@VCGraphicThing@@@@@std@@PAX@std@@@std@@@std@@QAE@AAV?$allocator@U?$_Tree_node@U?$pair@$$CBKPAV?$CRef@VCGraphicThing@@@@@std@@PAX@std@@@1@PAU?$_Tree_node@U?$pair@$$CBKPAV?$CRef@VCGraphicThing@@@@@std@@PAX@1@ABUpiecewise_construct_t@1@$$QAV?$tuple@ABK@1@$$QAV?$tuple@$$V@1@@Z$1
__ehfuncinfo$??$?0ABUpiecewise_construct_t@std@@V?$tuple@ABK@1@V?$tuple@$$V@1@@?$_Tree_temp_node@V?$allocator@U?$_Tree_node@U?$pair@$$CBKPAV?$CRef@VCGraphicThing@@@@@std@@PAX@std@@@std@@@std@@QAE@AAV?$allocator@U?$_Tree_node@U?$pair@$$CBKPAV?$CRef@VCGraphicThing@@@@@std@@PAX@std@@@1@PAU?$_Tree_node@U?$pair@$$CBKPAV?$CRef@VCGraphicThing@@@@@std@@PAX@1@ABUpiecewise_construct_t@1@$$QAV?$tuple@ABK@1@$$QAV?$tuple@$$V@1@@Z DD 019930522H
	DD	01H
	DD	FLAT:__unwindtable$??$?0ABUpiecewise_construct_t@std@@V?$tuple@ABK@1@V?$tuple@$$V@1@@?$_Tree_temp_node@V?$allocator@U?$_Tree_node@U?$pair@$$CBKPAV?$CRef@VCGraphicThing@@@@@std@@PAX@std@@@std@@@std@@QAE@AAV?$allocator@U?$_Tree_node@U?$pair@$$CBKPAV?$CRef@VCGraphicThing@@@@@std@@PAX@std@@@1@PAU?$_Tree_node@U?$pair@$$CBKPAV?$CRef@VCGraphicThing@@@@@std@@PAX@1@ABUpiecewise_construct_t@1@$$QAV?$tuple@ABK@1@$$QAV?$tuple@$$V@1@@Z
	DD	2 DUP(00H)
	DD	2 DUP(00H)
	DD	00H
	DD	01H
xdata$x	ENDS
;	COMDAT xdata$x
xdata$x	SEGMENT
__unwindtable$??0?$_Tree_temp_node_alloc@V?$allocator@U?$_Tree_node@U?$pair@$$CBKPAV?$CRef@VCGraphicThing@@@@@std@@PAX@std@@@std@@@std@@QAE@AAV?$allocator@U?$_Tree_node@U?$pair@$$CBKPAV?$CRef@VCGraphicThing@@@@@std@@PAX@std@@@1@@Z DD 0ffffffffH
	DD	FLAT:__unwindfunclet$??0?$_Tree_temp_node_alloc@V?$allocator@U?$_Tree_node@U?$pair@$$CBKPAV?$CRef@VCGraphicThing@@@@@std@@PAX@std@@@std@@@std@@QAE@AAV?$allocator@U?$_Tree_node@U?$pair@$$CBKPAV?$CRef@VCGraphicThing@@@@@std@@PAX@std@@@1@@Z$0
__ehfuncinfo$??0?$_Tree_temp_node_alloc@V?$allocator@U?$_Tree_node@U?$pair@$$CBKPAV?$CRef@VCGraphicThing@@@@@std@@PAX@std@@@std@@@std@@QAE@AAV?$allocator@U?$_Tree_node@U?$pair@$$CBKPAV?$CRef@VCGraphicThing@@@@@std@@PAX@std@@@1@@Z DD 019930522H
	DD	01H
	DD	FLAT:__unwindtable$??0?$_Tree_temp_node_alloc@V?$allocator@U?$_Tree_node@U?$pair@$$CBKPAV?$CRef@VCGraphicThing@@@@@std@@PAX@std@@@std@@@std@@QAE@AAV?$allocator@U?$_Tree_node@U?$pair@$$CBKPAV?$CRef@VCGraphicThing@@@@@std@@PAX@std@@@1@@Z
	DD	2 DUP(00H)
	DD	2 DUP(00H)
	DD	00H
	DD	01H
xdata$x	ENDS
;	COMDAT xdata$x
xdata$x	SEGMENT
__unwindtable$??$_Emplace@U?$pair@$$CBKPAV?$CRef@VCGraphicThing@@@@@std@@@?$_Tree@V?$_Tmap_traits@KPAV?$CRef@VCGraphicThing@@@@U?$less@K@std@@V?$allocator@U?$pair@$$CBKPAV?$CRef@VCGraphicThing@@@@@std@@@3@$0A@@std@@@std@@IAE?AU?$pair@PAU?$_Tree_node@U?$pair@$$CBKPAV?$CRef@VCGraphicThing@@@@@std@@PAX@std@@_N@1@$$QAU?$pair@$$CBKPAV?$CRef@VCGraphicThing@@@@@1@@Z DD 0ffffffffH
	DD	FLAT:__unwindfunclet$??$_Emplace@U?$pair@$$CBKPAV?$CRef@VCGraphicThing@@@@@std@@@?$_Tree@V?$_Tmap_traits@KPAV?$CRef@VCGraphicThing@@@@U?$less@K@std@@V?$allocator@U?$pair@$$CBKPAV?$CRef@VCGraphicThing@@@@@std@@@3@$0A@@std@@@std@@IAE?AU?$pair@PAU?$_Tree_node@U?$pair@$$CBKPAV?$CRef@VCGraphicThing@@@@@std@@PAX@std@@_N@1@$$QAU?$pair@$$CBKPAV?$CRef@VCGraphicThing@@@@@1@@Z$2
__ehfuncinfo$??$_Emplace@U?$pair@$$CBKPAV?$CRef@VCGraphicThing@@@@@std@@@?$_Tree@V?$_Tmap_traits@KPAV?$CRef@VCGraphicThing@@@@U?$less@K@std@@V?$allocator@U?$pair@$$CBKPAV?$CRef@VCGraphicThing@@@@@std@@@3@$0A@@std@@@std@@IAE?AU?$pair@PAU?$_Tree_node@U?$pair@$$CBKPAV?$CRef@VCGraphicThing@@@@@std@@PAX@std@@_N@1@$$QAU?$pair@$$CBKPAV?$CRef@VCGraphicThing@@@@@1@@Z DD 019930522H
	DD	01H
	DD	FLAT:__unwindtable$??$_Emplace@U?$pair@$$CBKPAV?$CRef@VCGraphicThing@@@@@std@@@?$_Tree@V?$_Tmap_traits@KPAV?$CRef@VCGraphicThing@@@@U?$less@K@std@@V?$allocator@U?$pair@$$CBKPAV?$CRef@VCGraphicThing@@@@@std@@@3@$0A@@std@@@std@@IAE?AU?$pair@PAU?$_Tree_node@U?$pair@$$CBKPAV?$CRef@VCGraphicThing@@@@@std@@PAX@std@@_N@1@$$QAU?$pair@$$CBKPAV?$CRef@VCGraphicThing@@@@@1@@Z
	DD	2 DUP(00H)
	DD	2 DUP(00H)
	DD	00H
	DD	01H
xdata$x	ENDS
;	COMDAT xdata$x
xdata$x	SEGMENT
__unwindtable$??$_Try_emplace@ABK$$V@?$map@KPAV?$CRef@VCGraphicThing@@@@U?$less@K@std@@V?$allocator@U?$pair@$$CBKPAV?$CRef@VCGraphicThing@@@@@std@@@3@@std@@AAE?AU?$pair@PAU?$_Tree_node@U?$pair@$$CBKPAV?$CRef@VCGraphicThing@@@@@std@@PAX@std@@_N@1@ABK@Z DD 0ffffffffH
	DD	FLAT:__unwindfunclet$??$_Try_emplace@ABK$$V@?$map@KPAV?$CRef@VCGraphicThing@@@@U?$less@K@std@@V?$allocator@U?$pair@$$CBKPAV?$CRef@VCGraphicThing@@@@@std@@@3@@std@@AAE?AU?$pair@PAU?$_Tree_node@U?$pair@$$CBKPAV?$CRef@VCGraphicThing@@@@@std@@PAX@std@@_N@1@ABK@Z$2
__ehfuncinfo$??$_Try_emplace@ABK$$V@?$map@KPAV?$CRef@VCGraphicThing@@@@U?$less@K@std@@V?$allocator@U?$pair@$$CBKPAV?$CRef@VCGraphicThing@@@@@std@@@3@@std@@AAE?AU?$pair@PAU?$_Tree_node@U?$pair@$$CBKPAV?$CRef@VCGraphicThing@@@@@std@@PAX@std@@_N@1@ABK@Z DD 019930522H
	DD	01H
	DD	FLAT:__unwindtable$??$_Try_emplace@ABK$$V@?$map@KPAV?$CRef@VCGraphicThing@@@@U?$less@K@std@@V?$allocator@U?$pair@$$CBKPAV?$CRef@VCGraphicThing@@@@@std@@@3@@std@@AAE?AU?$pair@PAU?$_Tree_node@U?$pair@$$CBKPAV?$CRef@VCGraphicThing@@@@@std@@PAX@std@@_N@1@ABK@Z
	DD	2 DUP(00H)
	DD	2 DUP(00H)
	DD	00H
	DD	01H
xdata$x	ENDS
;	COMDAT xdata$x
xdata$x	SEGMENT
__unwindtable$??$stl_wipe_second@V?$map@KPAV?$CRef@VCGraphicThing@@@@U?$less@K@std@@V?$allocator@U?$pair@$$CBKPAV?$CRef@VCGraphicThing@@@@@std@@@3@@std@@@@YAXAAV?$map@KPAV?$CRef@VCGraphicThing@@@@U?$less@K@std@@V?$allocator@U?$pair@$$CBKPAV?$CRef@VCGraphicThing@@@@@std@@@3@@std@@@Z DD 0ffffffffH
	DD	FLAT:___std_terminate
__ehfuncinfo$??$stl_wipe_second@V?$map@KPAV?$CRef@VCGraphicThing@@@@U?$less@K@std@@V?$allocator@U?$pair@$$CBKPAV?$CRef@VCGraphicThing@@@@@std@@@3@@std@@@@YAXAAV?$map@KPAV?$CRef@VCGraphicThing@@@@U?$less@K@std@@V?$allocator@U?$pair@$$CBKPAV?$CRef@VCGraphicThing@@@@@std@@@3@@std@@@Z DD 019930522H
	DD	01H
	DD	FLAT:__unwindtable$??$stl_wipe_second@V?$map@KPAV?$CRef@VCGraphicThing@@@@U?$less@K@std@@V?$allocator@U?$pair@$$CBKPAV?$CRef@VCGraphicThing@@@@@std@@@3@@std@@@@YAXAAV?$map@KPAV?$CRef@VCGraphicThing@@@@U?$less@K@std@@V?$allocator@U?$pair@$$CBKPAV?$CRef@VCGraphicThing@@@@@std@@@3@@std@@@Z
	DD	2 DUP(00H)
	DD	2 DUP(00H)
	DD	00H
	DD	01H
xdata$x	ENDS
;	COMDAT xdata$x
xdata$x	SEGMENT
__unwindtable$??$insert@$0A@$0A@@?$_Tree@V?$_Tmap_traits@KPAV?$CRef@VCGraphicThing@@@@U?$less@K@std@@V?$allocator@U?$pair@$$CBKPAV?$CRef@VCGraphicThing@@@@@std@@@3@$0A@@std@@@std@@QAE?AU?$pair@V?$_Tree_iterator@V?$_Tree_val@U?$_Tree_simple_types@U?$pair@$$CBKPAV?$CRef@VCGraphicThing@@@@@std@@@std@@@std@@@std@@_N@1@$$QAU?$pair@$$CBKPAV?$CRef@VCGraphicThing@@@@@1@@Z DD 0ffffffffH
	DD	FLAT:__unwindfunclet$??$insert@$0A@$0A@@?$_Tree@V?$_Tmap_traits@KPAV?$CRef@VCGraphicThing@@@@U?$less@K@std@@V?$allocator@U?$pair@$$CBKPAV?$CRef@VCGraphicThing@@@@@std@@@3@$0A@@std@@@std@@QAE?AU?$pair@V?$_Tree_iterator@V?$_Tree_val@U?$_Tree_simple_types@U?$pair@$$CBKPAV?$CRef@VCGraphicThing@@@@@std@@@std@@@std@@@std@@_N@1@$$QAU?$pair@$$CBKPAV?$CRef@VCGraphicThing@@@@@1@@Z$2
__ehfuncinfo$??$insert@$0A@$0A@@?$_Tree@V?$_Tmap_traits@KPAV?$CRef@VCGraphicThing@@@@U?$less@K@std@@V?$allocator@U?$pair@$$CBKPAV?$CRef@VCGraphicThing@@@@@std@@@3@$0A@@std@@@std@@QAE?AU?$pair@V?$_Tree_iterator@V?$_Tree_val@U?$_Tree_simple_types@U?$pair@$$CBKPAV?$CRef@VCGraphicThing@@@@@std@@@std@@@std@@@std@@_N@1@$$QAU?$pair@$$CBKPAV?$CRef@VCGraphicThing@@@@@1@@Z DD 019930522H
	DD	01H
	DD	FLAT:__unwindtable$??$insert@$0A@$0A@@?$_Tree@V?$_Tmap_traits@KPAV?$CRef@VCGraphicThing@@@@U?$less@K@std@@V?$allocator@U?$pair@$$CBKPAV?$CRef@VCGraphicThing@@@@@std@@@3@$0A@@std@@@std@@QAE?AU?$pair@V?$_Tree_iterator@V?$_Tree_val@U?$_Tree_simple_types@U?$pair@$$CBKPAV?$CRef@VCGraphicThing@@@@@std@@@std@@@std@@@std@@_N@1@$$QAU?$pair@$$CBKPAV?$CRef@VCGraphicThing@@@@@1@@Z
	DD	2 DUP(00H)
	DD	2 DUP(00H)
	DD	00H
	DD	01H
xdata$x	ENDS
;	COMDAT xdata$x
xdata$x	SEGMENT
__unwindtable$?Alloc@?$CDynamicPool@VCGraphicThingInstance@@@@QAEPAVCGraphicThingInstance@@XZ DD 0ffffffffH
	DD	FLAT:__unwindfunclet$?Alloc@?$CDynamicPool@VCGraphicThingInstance@@@@QAEPAVCGraphicThingInstance@@XZ$0
__ehfuncinfo$?Alloc@?$CDynamicPool@VCGraphicThingInstance@@@@QAEPAVCGraphicThingInstance@@XZ DD 019930522H
	DD	01H
	DD	FLAT:__unwindtable$?Alloc@?$CDynamicPool@VCGraphicThingInstance@@@@QAEPAVCGraphicThingInstance@@XZ
	DD	2 DUP(00H)
	DD	2 DUP(00H)
	DD	00H
	DD	01H
xdata$x	ENDS
;	COMDAT xdata$x
xdata$x	SEGMENT
__unwindtable$??$stl_wipe@V?$vector@PAV?$CRef@VCGraphicThing@@@@V?$allocator@PAV?$CRef@VCGraphicThing@@@@@std@@@std@@@@YAXAAV?$vector@PAV?$CRef@VCGraphicThing@@@@V?$allocator@PAV?$CRef@VCGraphicThing@@@@@std@@@std@@@Z DD 0ffffffffH
	DD	FLAT:___std_terminate
__ehfuncinfo$??$stl_wipe@V?$vector@PAV?$CRef@VCGraphicThing@@@@V?$allocator@PAV?$CRef@VCGraphicThing@@@@@std@@@std@@@@YAXAAV?$vector@PAV?$CRef@VCGraphicThing@@@@V?$allocator@PAV?$CRef@VCGraphicThing@@@@@std@@@std@@@Z DD 019930522H
	DD	01H
	DD	FLAT:__unwindtable$??$stl_wipe@V?$vector@PAV?$CRef@VCGraphicThing@@@@V?$allocator@PAV?$CRef@VCGraphicThing@@@@@std@@@std@@@@YAXAAV?$vector@PAV?$CRef@VCGraphicThing@@@@V?$allocator@PAV?$CRef@VCGraphicThing@@@@@std@@@std@@@Z
	DD	2 DUP(00H)
	DD	2 DUP(00H)
	DD	00H
	DD	01H
xdata$x	ENDS
;	COMDAT xdata$x
xdata$x	SEGMENT
__unwindtable$??_G?$CRef@VCGraphicThing@@@@QAEPAXI@Z DD 0ffffffffH
	DD	FLAT:___std_terminate
__ehfuncinfo$??_G?$CRef@VCGraphicThing@@@@QAEPAXI@Z DD 019930522H
	DD	01H
	DD	FLAT:__unwindtable$??_G?$CRef@VCGraphicThing@@@@QAEPAXI@Z
	DD	2 DUP(00H)
	DD	2 DUP(00H)
	DD	00H
	DD	05H
xdata$x	ENDS
;	COMDAT xdata$x
xdata$x	SEGMENT
__ehfuncinfo$??1?$CRef@VCGraphicThing@@@@QAE@XZ DD 019930522H
	DD	00H
	DD	00H
	DD	2 DUP(00H)
	DD	2 DUP(00H)
	DD	00H
	DD	05H
xdata$x	ENDS
;	COMDAT xdata$x
xdata$x	SEGMENT
__unwindtable$?New@CGraphicThingInstance@@SAPAV1@XZ DD 0ffffffffH
	DD	FLAT:__unwindfunclet$?New@CGraphicThingInstance@@SAPAV1@XZ$0
__ehfuncinfo$?New@CGraphicThingInstance@@SAPAV1@XZ DD 019930522H
	DD	01H
	DD	FLAT:__unwindtable$?New@CGraphicThingInstance@@SAPAV1@XZ
	DD	2 DUP(00H)
	DD	2 DUP(00H)
	DD	00H
	DD	01H
xdata$x	ENDS
;	COMDAT xdata$x
xdata$x	SEGMENT
__unwindtable$??A?$map@KPAV?$CRef@VCGraphicThing@@@@U?$less@K@std@@V?$allocator@U?$pair@$$CBKPAV?$CRef@VCGraphicThing@@@@@std@@@3@@std@@QAEAAPAV?$CRef@VCGraphicThing@@@@ABK@Z DD 0ffffffffH
	DD	FLAT:__unwindfunclet$??A?$map@KPAV?$CRef@VCGraphicThing@@@@U?$less@K@std@@V?$allocator@U?$pair@$$CBKPAV?$CRef@VCGraphicThing@@@@@std@@@3@@std@@QAEAAPAV?$CRef@VCGraphicThing@@@@ABK@Z$2
__ehfuncinfo$??A?$map@KPAV?$CRef@VCGraphicThing@@@@U?$less@K@std@@V?$allocator@U?$pair@$$CBKPAV?$CRef@VCGraphicThing@@@@@std@@@3@@std@@QAEAAPAV?$CRef@VCGraphicThing@@@@ABK@Z DD 019930522H
	DD	01H
	DD	FLAT:__unwindtable$??A?$map@KPAV?$CRef@VCGraphicThing@@@@U?$less@K@std@@V?$allocator@U?$pair@$$CBKPAV?$CRef@VCGraphicThing@@@@@std@@@3@@std@@QAEAAPAV?$CRef@VCGraphicThing@@@@ABK@Z
	DD	2 DUP(00H)
	DD	2 DUP(00H)
	DD	00H
	DD	01H
xdata$x	ENDS
;	COMDAT xdata$x
xdata$x	SEGMENT
__unwindtable$?OnClear@CGraphicThingInstance@@MAEXXZ DD 0ffffffffH
	DD	FLAT:___std_terminate
	DD	0ffffffffH
	DD	FLAT:___std_terminate
__ehfuncinfo$?OnClear@CGraphicThingInstance@@MAEXXZ DD 019930522H
	DD	02H
	DD	FLAT:__unwindtable$?OnClear@CGraphicThingInstance@@MAEXXZ
	DD	2 DUP(00H)
	DD	2 DUP(00H)
	DD	00H
	DD	01H
xdata$x	ENDS
;	COMDAT xdata$x
xdata$x	SEGMENT
__unwindtable$?GetBaseThingPtr@CGraphicThingInstance@@QAEPAVCGraphicThing@@XZ DD 0ffffffffH
	DD	FLAT:___std_terminate
__ehfuncinfo$?GetBaseThingPtr@CGraphicThingInstance@@QAEPAVCGraphicThing@@XZ DD 019930522H
	DD	01H
	DD	FLAT:__unwindtable$?GetBaseThingPtr@CGraphicThingInstance@@QAEPAVCGraphicThing@@XZ
	DD	2 DUP(00H)
	DD	2 DUP(00H)
	DD	00H
	DD	01H
xdata$x	ENDS
;	COMDAT xdata$x
xdata$x	SEGMENT
__unwindtable$?RegisterMotionThing@CGraphicThingInstance@@QAEXKPAVCGraphicThing@@@Z DD 0ffffffffH
	DD	FLAT:__unwindfunclet$?RegisterMotionThing@CGraphicThingInstance@@QAEXKPAVCGraphicThing@@@Z$3
__ehfuncinfo$?RegisterMotionThing@CGraphicThingInstance@@QAEXKPAVCGraphicThing@@@Z DD 019930522H
	DD	01H
	DD	FLAT:__unwindtable$?RegisterMotionThing@CGraphicThingInstance@@QAEXKPAVCGraphicThing@@@Z
	DD	2 DUP(00H)
	DD	2 DUP(00H)
	DD	00H
	DD	01H
xdata$x	ENDS
;	COMDAT xdata$x
xdata$x	SEGMENT
__unwindtable$?GetMotionThingPointer@CGraphicThingInstance@@QAE_NKPAPAVCGraphicThing@@@Z DD 0ffffffffH
	DD	FLAT:__unwindfunclet$?GetMotionThingPointer@CGraphicThingInstance@@QAE_NKPAPAVCGraphicThing@@@Z$2
__ehfuncinfo$?GetMotionThingPointer@CGraphicThingInstance@@QAE_NKPAPAVCGraphicThing@@@Z DD 019930522H
	DD	01H
	DD	FLAT:__unwindtable$?GetMotionThingPointer@CGraphicThingInstance@@QAE_NKPAPAVCGraphicThing@@@Z
	DD	2 DUP(00H)
	DD	2 DUP(00H)
	DD	00H
	DD	01H
xdata$x	ENDS
;	COMDAT xdata$x
xdata$x	SEGMENT
__unwindtable$?ReserveModelInstance@CGraphicThingInstance@@QAEXH@Z DD 0ffffffffH
	DD	FLAT:__unwindfunclet$?ReserveModelInstance@CGraphicThingInstance@@QAEXH@Z$0
__ehfuncinfo$?ReserveModelInstance@CGraphicThingInstance@@QAEXH@Z DD 019930522H
	DD	01H
	DD	FLAT:__unwindtable$?ReserveModelInstance@CGraphicThingInstance@@QAEXH@Z
	DD	2 DUP(00H)
	DD	2 DUP(00H)
	DD	00H
	DD	01H
xdata$x	ENDS
;	COMDAT xdata$x
xdata$x	SEGMENT
__unwindtable$??0CGraphicThingInstance@@QAE@XZ DD 0ffffffffH
	DD	FLAT:__unwindfunclet$??0CGraphicThingInstance@@QAE@XZ$0
	DD	00H
	DD	FLAT:__unwindfunclet$??0CGraphicThingInstance@@QAE@XZ$1
	DD	01H
	DD	FLAT:__unwindfunclet$??0CGraphicThingInstance@@QAE@XZ$2
	DD	02H
	DD	FLAT:__unwindfunclet$??0CGraphicThingInstance@@QAE@XZ$3
__ehfuncinfo$??0CGraphicThingInstance@@QAE@XZ DD 019930522H
	DD	04H
	DD	FLAT:__unwindtable$??0CGraphicThingInstance@@QAE@XZ
	DD	2 DUP(00H)
	DD	2 DUP(00H)
	DD	00H
	DD	01H
xdata$x	ENDS
;	COMDAT xdata$x
xdata$x	SEGMENT
__unwindtable$?Clear@SModelThingSet@CGraphicThingInstance@@QAEXXZ DD 0ffffffffH
	DD	FLAT:___std_terminate
__ehfuncinfo$?Clear@SModelThingSet@CGraphicThingInstance@@QAEXXZ DD 019930522H
	DD	01H
	DD	FLAT:__unwindtable$?Clear@SModelThingSet@CGraphicThingInstance@@QAEXXZ
	DD	2 DUP(00H)
	DD	2 DUP(00H)
	DD	00H
	DD	01H
xdata$x	ENDS
; Function compile flags: /Ogtp
; File C:\Program Files (x86)\Microsoft Visual Studio\2019\Community\VC\Tools\MSVC\14.27.29110\include\tuple
;	COMDAT ??$?0V?$tuple@ABK@std@@V?$tuple@$$V@1@$0A@$$Z$S@?$pair@$$CBKPAV?$CRef@VCGraphicThing@@@@@std@@QAE@AAV?$tuple@ABK@1@AAV?$tuple@$$V@1@U?$integer_sequence@I$0A@@1@U?$integer_sequence@I$S@1@@Z
_TEXT	SEGMENT
__Val1$ = 8						; size = 4
__Val2$ = 12						; size = 4
___formal$ = 16						; size = 1
___formal$ = 20						; size = 1
??$?0V?$tuple@ABK@std@@V?$tuple@$$V@1@$0A@$$Z$S@?$pair@$$CBKPAV?$CRef@VCGraphicThing@@@@@std@@QAE@AAV?$tuple@ABK@1@AAV?$tuple@$$V@1@U?$integer_sequence@I$0A@@1@U?$integer_sequence@I$S@1@@Z PROC ; std::pair<unsigned long const ,CRef<CGraphicThing> *>::pair<unsigned long const ,CRef<CGraphicThing> *><std::tuple<unsigned long const &>,std::tuple<>,0>, COMDAT
; _this$ = ecx

; 975  :     : first(_STD get<_Indexes1>(_STD move(_Val1))...), second(_STD get<_Indexes2>(_STD move(_Val2))...) {}

  00000	55		 push	 ebp
  00001	8b ec		 mov	 ebp, esp
  00003	8b 45 08	 mov	 eax, DWORD PTR __Val1$[ebp]
  00006	8b 00		 mov	 eax, DWORD PTR [eax]
  00008	8b 00		 mov	 eax, DWORD PTR [eax]
  0000a	89 01		 mov	 DWORD PTR [ecx], eax
  0000c	8b c1		 mov	 eax, ecx
  0000e	c7 41 04 00 00
	00 00		 mov	 DWORD PTR [ecx+4], 0
  00015	5d		 pop	 ebp
  00016	c2 10 00	 ret	 16			; 00000010H
??$?0V?$tuple@ABK@std@@V?$tuple@$$V@1@$0A@$$Z$S@?$pair@$$CBKPAV?$CRef@VCGraphicThing@@@@@std@@QAE@AAV?$tuple@ABK@1@AAV?$tuple@$$V@1@U?$integer_sequence@I$0A@@1@U?$integer_sequence@I$S@1@@Z ENDP ; std::pair<unsigned long const ,CRef<CGraphicThing> *>::pair<unsigned long const ,CRef<CGraphicThing> *><std::tuple<unsigned long const &>,std::tuple<>,0>
_TEXT	ENDS
; Function compile flags: /Ogtp
; File C:\Program Files (x86)\Microsoft Visual Studio\2019\Community\VC\Tools\MSVC\14.27.29110\include\tuple
;	COMDAT ??$?0ABK$$Z$$V@?$pair@$$CBKPAV?$CRef@VCGraphicThing@@@@@std@@QAE@Upiecewise_construct_t@1@V?$tuple@ABK@1@V?$tuple@$$V@1@@Z
_TEXT	SEGMENT
$T1 = -8						; size = 1
$T2 = -4						; size = 1
___formal$ = 8						; size = 1
__Val1$ = 12						; size = 4
__Val2$ = 16						; size = 1
??$?0ABK$$Z$$V@?$pair@$$CBKPAV?$CRef@VCGraphicThing@@@@@std@@QAE@Upiecewise_construct_t@1@V?$tuple@ABK@1@V?$tuple@$$V@1@@Z PROC ; std::pair<unsigned long const ,CRef<CGraphicThing> *>::pair<unsigned long const ,CRef<CGraphicThing> *><unsigned long const &>, COMDAT
; _this$ = ecx

; 981  :     : pair(_Val1, _Val2, index_sequence_for<_Types1...>{}, index_sequence_for<_Types2...>{}) {}

  00000	55		 push	 ebp
  00001	8b ec		 mov	 ebp, esp
  00003	83 ec 08	 sub	 esp, 8
  00006	56		 push	 esi
  00007	c6 45 fc 00	 mov	 BYTE PTR $T2[ebp], 0
  0000b	8d 45 10	 lea	 eax, DWORD PTR __Val2$[ebp]
  0000e	ff 75 fc	 push	 DWORD PTR $T2[ebp]
  00011	c6 45 f8 00	 mov	 BYTE PTR $T1[ebp], 0
  00015	8b f1		 mov	 esi, ecx
  00017	ff 75 f8	 push	 DWORD PTR $T1[ebp]
  0001a	50		 push	 eax
  0001b	8d 45 0c	 lea	 eax, DWORD PTR __Val1$[ebp]
  0001e	50		 push	 eax
  0001f	e8 00 00 00 00	 call	 ??$?0V?$tuple@ABK@std@@V?$tuple@$$V@1@$0A@$$Z$S@?$pair@$$CBKPAV?$CRef@VCGraphicThing@@@@@std@@QAE@AAV?$tuple@ABK@1@AAV?$tuple@$$V@1@U?$integer_sequence@I$0A@@1@U?$integer_sequence@I$S@1@@Z ; std::pair<unsigned long const ,CRef<CGraphicThing> *>::pair<unsigned long const ,CRef<CGraphicThing> *><std::tuple<unsigned long const &>,std::tuple<>,0>
  00024	8b c6		 mov	 eax, esi
  00026	5e		 pop	 esi
  00027	8b e5		 mov	 esp, ebp
  00029	5d		 pop	 ebp
  0002a	c2 0c 00	 ret	 12			; 0000000cH
??$?0ABK$$Z$$V@?$pair@$$CBKPAV?$CRef@VCGraphicThing@@@@@std@@QAE@Upiecewise_construct_t@1@V?$tuple@ABK@1@V?$tuple@$$V@1@@Z ENDP ; std::pair<unsigned long const ,CRef<CGraphicThing> *>::pair<unsigned long const ,CRef<CGraphicThing> *><unsigned long const &>
_TEXT	ENDS
; Function compile flags: /Ogtp
; File C:\Program Files (x86)\Microsoft Visual Studio\2019\Community\VC\Tools\MSVC\14.27.29110\include\xmemory
; File C:\Program Files (x86)\Microsoft Visual Studio\2019\Community\VC\Tools\MSVC\14.27.29110\include\vector
; File C:\Program Files (x86)\Microsoft Visual Studio\2019\Community\VC\Tools\MSVC\14.27.29110\include\xmemory
; File C:\Program Files (x86)\Microsoft Visual Studio\2019\Community\VC\Tools\MSVC\14.27.29110\include\vector
; File C:\Program Files (x86)\Microsoft Visual Studio\2019\Community\VC\Tools\MSVC\14.27.29110\include\xmemory
; File C:\Program Files (x86)\Microsoft Visual Studio\2019\Community\VC\Tools\MSVC\14.27.29110\include\vector
; File C:\Program Files (x86)\Microsoft Visual Studio\2019\Community\VC\Tools\MSVC\14.27.29110\include\xmemory
; File C:\Program Files (x86)\Microsoft Visual Studio\2019\Community\VC\Tools\MSVC\14.27.29110\include\vector
; File C:\Program Files (x86)\Microsoft Visual Studio\2019\Community\VC\Tools\MSVC\14.27.29110\include\xmemory
;	COMDAT ??$_Uninitialized_move@PAUSModelThingSet@CGraphicThingInstance@@V?$allocator@USModelThingSet@CGraphicThingInstance@@@std@@@std@@YAPAUSModelThingSet@CGraphicThingInstance@@QAU12@0PAU12@AAV?$allocator@USModelThingSet@CGraphicThingInstance@@@0@@Z
_TEXT	SEGMENT
__First$ = 8						; size = 4
__Last$ = 12						; size = 4
__Dest$ = 16						; size = 4
__Al$ = 20						; size = 4
??$_Uninitialized_move@PAUSModelThingSet@CGraphicThingInstance@@V?$allocator@USModelThingSet@CGraphicThingInstance@@@std@@@std@@YAPAUSModelThingSet@CGraphicThingInstance@@QAU12@0PAU12@AAV?$allocator@USModelThingSet@CGraphicThingInstance@@@0@@Z PROC ; std::_Uninitialized_move<CGraphicThingInstance::SModelThingSet *,std::allocator<CGraphicThingInstance::SModelThingSet> >, COMDAT

; 1647 :     const _InIt _First, const _InIt _Last, _Alloc_ptr_t<_Alloc> _Dest, _Alloc& _Al) {

  00000	55		 push	 ebp
  00001	8b ec		 mov	 ebp, esp

; 1659 :         for (; _UFirst != _ULast; ++_UFirst) {

  00003	8b 4d 08	 mov	 ecx, DWORD PTR __First$[ebp]
  00006	56		 push	 esi

; 1497 :     _Uninitialized_backout_al(pointer _Dest, _Alloc& _Al_) : _First(_Dest), _Last(_Dest), _Al(_Al_) {}

  00007	8b 75 10	 mov	 esi, DWORD PTR __Dest$[ebp]

; 1647 :     const _InIt _First, const _InIt _Last, _Alloc_ptr_t<_Alloc> _Dest, _Alloc& _Al) {

  0000a	57		 push	 edi

; 1659 :         for (; _UFirst != _ULast; ++_UFirst) {

  0000b	8b 7d 0c	 mov	 edi, DWORD PTR __Last$[ebp]
  0000e	3b cf		 cmp	 ecx, edi
  00010	74 57		 je	 SHORT $LN3@Uninitiali

; 1497 :     _Uninitialized_backout_al(pointer _Dest, _Alloc& _Al_) : _First(_Dest), _Last(_Dest), _Al(_Al_) {}

  00012	8b d6		 mov	 edx, esi
  00014	8d 41 08	 lea	 eax, DWORD PTR [ecx+8]
  00017	2b d1		 sub	 edx, ecx
  00019	0f 1f 80 00 00
	00 00		 npad	 7
$LL4@Uninitiali:
; File C:\Program Files (x86)\Microsoft Visual Studio\2019\Community\VC\Tools\MSVC\14.27.29110\include\vector

; 375  :     _Vector_val() noexcept : _Myfirst(), _Mylast(), _Myend() {}

  00020	c7 06 00 00 00
	00		 mov	 DWORD PTR [esi], 0
; File C:\Program Files (x86)\Microsoft Visual Studio\2019\Community\VC\Tools\MSVC\14.27.29110\include\xmemory

; 1509 :         ++_Last;

  00026	8d 40 0c	 lea	 eax, DWORD PTR [eax+12]
; File C:\Program Files (x86)\Microsoft Visual Studio\2019\Community\VC\Tools\MSVC\14.27.29110\include\vector

; 375  :     _Vector_val() noexcept : _Myfirst(), _Mylast(), _Myend() {}

  00029	c7 46 04 00 00
	00 00		 mov	 DWORD PTR [esi+4], 0
  00030	c7 44 02 f4 00
	00 00 00	 mov	 DWORD PTR [edx+eax-12], 0

; 386  :         _Myfirst = _Right._Myfirst;

  00038	8b 48 ec	 mov	 ecx, DWORD PTR [eax-20]
  0003b	89 0e		 mov	 DWORD PTR [esi], ecx

; 387  :         _Mylast  = _Right._Mylast;

  0003d	8b 48 f0	 mov	 ecx, DWORD PTR [eax-16]
  00040	89 4e 04	 mov	 DWORD PTR [esi+4], ecx
; File C:\Program Files (x86)\Microsoft Visual Studio\2019\Community\VC\Tools\MSVC\14.27.29110\include\xmemory

; 1509 :         ++_Last;

  00043	83 c6 0c	 add	 esi, 12			; 0000000cH
; File C:\Program Files (x86)\Microsoft Visual Studio\2019\Community\VC\Tools\MSVC\14.27.29110\include\vector

; 388  :         _Myend   = _Right._Myend;

  00046	8b 48 f4	 mov	 ecx, DWORD PTR [eax-12]
  00049	89 4c 02 f4	 mov	 DWORD PTR [edx+eax-12], ecx
; File C:\Program Files (x86)\Microsoft Visual Studio\2019\Community\VC\Tools\MSVC\14.27.29110\include\xmemory

; 1659 :         for (; _UFirst != _ULast; ++_UFirst) {

  0004d	8d 48 f8	 lea	 ecx, DWORD PTR [eax-8]
; File C:\Program Files (x86)\Microsoft Visual Studio\2019\Community\VC\Tools\MSVC\14.27.29110\include\vector

; 390  :         _Right._Myfirst = pointer();

  00050	c7 40 ec 00 00
	00 00		 mov	 DWORD PTR [eax-20], 0

; 391  :         _Right._Mylast  = pointer();

  00057	c7 40 f0 00 00
	00 00		 mov	 DWORD PTR [eax-16], 0

; 392  :         _Right._Myend   = pointer();

  0005e	c7 40 f4 00 00
	00 00		 mov	 DWORD PTR [eax-12], 0
; File C:\Program Files (x86)\Microsoft Visual Studio\2019\Community\VC\Tools\MSVC\14.27.29110\include\xmemory

; 1659 :         for (; _UFirst != _ULast; ++_UFirst) {

  00065	3b cf		 cmp	 ecx, edi
  00067	75 b7		 jne	 SHORT $LL4@Uninitiali
$LN3@Uninitiali:

; 1503 :         _Destroy_range(_First, _Last, _Al);

  00069	ff 75 14	 push	 DWORD PTR __Al$[ebp]
  0006c	56		 push	 esi
  0006d	56		 push	 esi
  0006e	e8 00 00 00 00	 call	 ??$_Destroy_range@V?$allocator@USModelThingSet@CGraphicThingInstance@@@std@@@std@@YAXPAUSModelThingSet@CGraphicThingInstance@@QAU12@AAV?$allocator@USModelThingSet@CGraphicThingInstance@@@0@@Z ; std::_Destroy_range<std::allocator<CGraphicThingInstance::SModelThingSet> >
  00073	83 c4 0c	 add	 esp, 12			; 0000000cH

; 1660 :             _Backout._Emplace_back(_STD move(*_UFirst));
; 1661 :         }
; 1662 : 
; 1663 :         return _Backout._Release();

  00076	8b c6		 mov	 eax, esi
  00078	5f		 pop	 edi
  00079	5e		 pop	 esi

; 1664 :     }
; 1665 : }

  0007a	5d		 pop	 ebp
  0007b	c3		 ret	 0
??$_Uninitialized_move@PAUSModelThingSet@CGraphicThingInstance@@V?$allocator@USModelThingSet@CGraphicThingInstance@@@std@@@std@@YAPAUSModelThingSet@CGraphicThingInstance@@QAU12@0PAU12@AAV?$allocator@USModelThingSet@CGraphicThingInstance@@@0@@Z ENDP ; std::_Uninitialized_move<CGraphicThingInstance::SModelThingSet *,std::allocator<CGraphicThingInstance::SModelThingSet> >
_TEXT	ENDS
; Function compile flags: /Ogtp
; File C:\Program Files (x86)\Microsoft Visual Studio\2019\Community\VC\Tools\MSVC\14.27.29110\include\xutility
;	COMDAT ??$_Copy_memmove@PAPAV?$CRef@VCGraphicThing@@@@PAPAV1@@std@@YAPAPAV?$CRef@VCGraphicThing@@@@PAPAV1@00@Z
_TEXT	SEGMENT
__First$ = 8						; size = 4
__Last$ = 12						; size = 4
__Dest$ = 16						; size = 4
??$_Copy_memmove@PAPAV?$CRef@VCGraphicThing@@@@PAPAV1@@std@@YAPAPAV?$CRef@VCGraphicThing@@@@PAPAV1@00@Z PROC ; std::_Copy_memmove<CRef<CGraphicThing> * *,CRef<CGraphicThing> * *>, COMDAT

; 4113 : _OutIt _Copy_memmove(_InIt _First, _InIt _Last, _OutIt _Dest) {

  00000	55		 push	 ebp
  00001	8b ec		 mov	 ebp, esp

; 4114 :     const char* const _First_ch = const_cast<const char*>(reinterpret_cast<const volatile char*>(_First));
; 4115 :     const char* const _Last_ch  = const_cast<const char*>(reinterpret_cast<const volatile char*>(_Last));
; 4116 :     char* const _Dest_ch        = const_cast<char*>(reinterpret_cast<volatile char*>(_Dest));
; 4117 :     const auto _Count           = static_cast<size_t>(_Last_ch - _First_ch);

  00003	8b 45 08	 mov	 eax, DWORD PTR __First$[ebp]
  00006	56		 push	 esi

; 4118 :     _CSTD memmove(_Dest_ch, _First_ch, _Count);

  00007	8b 75 10	 mov	 esi, DWORD PTR __Dest$[ebp]
  0000a	57		 push	 edi
  0000b	8b 7d 0c	 mov	 edi, DWORD PTR __Last$[ebp]
  0000e	2b f8		 sub	 edi, eax
  00010	57		 push	 edi
  00011	50		 push	 eax
  00012	56		 push	 esi
  00013	e8 00 00 00 00	 call	 _memmove
  00018	83 c4 0c	 add	 esp, 12			; 0000000cH

; 4119 :     return reinterpret_cast<_OutIt>(_Dest_ch + _Count);

  0001b	8d 04 37	 lea	 eax, DWORD PTR [edi+esi]
  0001e	5f		 pop	 edi
  0001f	5e		 pop	 esi

; 4120 : }

  00020	5d		 pop	 ebp
  00021	c3		 ret	 0
??$_Copy_memmove@PAPAV?$CRef@VCGraphicThing@@@@PAPAV1@@std@@YAPAPAV?$CRef@VCGraphicThing@@@@PAPAV1@00@Z ENDP ; std::_Copy_memmove<CRef<CGraphicThing> * *,CRef<CGraphicThing> * *>
_TEXT	ENDS
; Function compile flags: /Ogtp
; File C:\Program Files (x86)\Microsoft Visual Studio\2019\Community\VC\Tools\MSVC\14.27.29110\include\xutility
;	COMDAT ??$_Copy_memmove@PAPAVCGrannyLODController@@PAPAV1@@std@@YAPAPAVCGrannyLODController@@PAPAV1@00@Z
_TEXT	SEGMENT
__First$ = 8						; size = 4
__Last$ = 12						; size = 4
__Dest$ = 16						; size = 4
??$_Copy_memmove@PAPAVCGrannyLODController@@PAPAV1@@std@@YAPAPAVCGrannyLODController@@PAPAV1@00@Z PROC ; std::_Copy_memmove<CGrannyLODController * *,CGrannyLODController * *>, COMDAT

; 4113 : _OutIt _Copy_memmove(_InIt _First, _InIt _Last, _OutIt _Dest) {

  00000	55		 push	 ebp
  00001	8b ec		 mov	 ebp, esp

; 4114 :     const char* const _First_ch = const_cast<const char*>(reinterpret_cast<const volatile char*>(_First));
; 4115 :     const char* const _Last_ch  = const_cast<const char*>(reinterpret_cast<const volatile char*>(_Last));
; 4116 :     char* const _Dest_ch        = const_cast<char*>(reinterpret_cast<volatile char*>(_Dest));
; 4117 :     const auto _Count           = static_cast<size_t>(_Last_ch - _First_ch);

  00003	8b 45 08	 mov	 eax, DWORD PTR __First$[ebp]
  00006	56		 push	 esi

; 4118 :     _CSTD memmove(_Dest_ch, _First_ch, _Count);

  00007	8b 75 10	 mov	 esi, DWORD PTR __Dest$[ebp]
  0000a	57		 push	 edi
  0000b	8b 7d 0c	 mov	 edi, DWORD PTR __Last$[ebp]
  0000e	2b f8		 sub	 edi, eax
  00010	57		 push	 edi
  00011	50		 push	 eax
  00012	56		 push	 esi
  00013	e8 00 00 00 00	 call	 _memmove
  00018	83 c4 0c	 add	 esp, 12			; 0000000cH

; 4119 :     return reinterpret_cast<_OutIt>(_Dest_ch + _Count);

  0001b	8d 04 37	 lea	 eax, DWORD PTR [edi+esi]
  0001e	5f		 pop	 edi
  0001f	5e		 pop	 esi

; 4120 : }

  00020	5d		 pop	 ebp
  00021	c3		 ret	 0
??$_Copy_memmove@PAPAVCGrannyLODController@@PAPAV1@@std@@YAPAPAVCGrannyLODController@@PAPAV1@00@Z ENDP ; std::_Copy_memmove<CGrannyLODController * *,CGrannyLODController * *>
_TEXT	ENDS
; Function compile flags: /Ogtp
; File C:\Program Files (x86)\Microsoft Visual Studio\2019\Community\VC\Tools\MSVC\14.27.29110\include\xmemory
;	COMDAT ??$_Construct_in_place@PAU?$_Tree_node@U?$pair@$$CBKPAV?$CRef@VCGraphicThing@@@@@std@@PAX@std@@AAPAU12@@std@@YAXAAPAU?$_Tree_node@U?$pair@$$CBKPAV?$CRef@VCGraphicThing@@@@@std@@PAX@0@0@Z
_TEXT	SEGMENT
__Obj$ = 8						; size = 4
_<_Args_0>$ = 12					; size = 4
??$_Construct_in_place@PAU?$_Tree_node@U?$pair@$$CBKPAV?$CRef@VCGraphicThing@@@@@std@@PAX@std@@AAPAU12@@std@@YAXAAPAU?$_Tree_node@U?$pair@$$CBKPAV?$CRef@VCGraphicThing@@@@@std@@PAX@0@0@Z PROC ; std::_Construct_in_place<std::_Tree_node<std::pair<unsigned long const ,CRef<CGraphicThing> *>,void *> *,std::_Tree_node<std::pair<unsigned long const ,CRef<CGraphicThing> *>,void *> * &>, COMDAT

; 228  : void _Construct_in_place(_Ty& _Obj, _Types&&... _Args) noexcept(is_nothrow_constructible_v<_Ty, _Types...>) {

  00000	55		 push	 ebp
  00001	8b ec		 mov	 ebp, esp

; 229  :     ::new (const_cast<void*>(static_cast<const volatile void*>(_STD addressof(_Obj))))

  00003	8b 45 0c	 mov	 eax, DWORD PTR _<_Args_0>$[ebp]
  00006	8b 08		 mov	 ecx, DWORD PTR [eax]
  00008	8b 45 08	 mov	 eax, DWORD PTR __Obj$[ebp]
  0000b	89 08		 mov	 DWORD PTR [eax], ecx

; 230  :         _Ty(_STD forward<_Types>(_Args)...);
; 231  : }

  0000d	5d		 pop	 ebp
  0000e	c3		 ret	 0
??$_Construct_in_place@PAU?$_Tree_node@U?$pair@$$CBKPAV?$CRef@VCGraphicThing@@@@@std@@PAX@std@@AAPAU12@@std@@YAXAAPAU?$_Tree_node@U?$pair@$$CBKPAV?$CRef@VCGraphicThing@@@@@std@@PAX@0@0@Z ENDP ; std::_Construct_in_place<std::_Tree_node<std::pair<unsigned long const ,CRef<CGraphicThing> *>,void *> *,std::_Tree_node<std::pair<unsigned long const ,CRef<CGraphicThing> *>,void *> * &>
_TEXT	ENDS
; Function compile flags: /Ogtp
; File C:\Program Files (x86)\Microsoft Visual Studio\2019\Community\VC\Tools\MSVC\14.27.29110\include\xmemory
;	COMDAT ??$_Uninitialized_move@PAPAV?$CRef@VCGraphicThing@@@@V?$allocator@PAV?$CRef@VCGraphicThing@@@@@std@@@std@@YAPAPAV?$CRef@VCGraphicThing@@@@QAPAV1@0PAPAV1@AAV?$allocator@PAV?$CRef@VCGraphicThing@@@@@0@@Z
_TEXT	SEGMENT
__First$ = 8						; size = 4
__Last$ = 12						; size = 4
__Dest$ = 16						; size = 4
__Al$ = 20						; size = 4
??$_Uninitialized_move@PAPAV?$CRef@VCGraphicThing@@@@V?$allocator@PAV?$CRef@VCGraphicThing@@@@@std@@@std@@YAPAPAV?$CRef@VCGraphicThing@@@@QAPAV1@0PAPAV1@AAV?$allocator@PAV?$CRef@VCGraphicThing@@@@@0@@Z PROC ; std::_Uninitialized_move<CRef<CGraphicThing> * *,std::allocator<CRef<CGraphicThing> *> >, COMDAT

; 1647 :     const _InIt _First, const _InIt _Last, _Alloc_ptr_t<_Alloc> _Dest, _Alloc& _Al) {

  00000	55		 push	 ebp
  00001	8b ec		 mov	 ebp, esp
  00003	53		 push	 ebx

; 1648 :     // move [_First, _Last) to raw _Dest, using _Al
; 1649 :     // note: only called internally from elsewhere in the STL
; 1650 :     using _Ptrval     = typename _Alloc::value_type*;
; 1651 :     auto _UFirst      = _Get_unwrapped(_First);
; 1652 :     const auto _ULast = _Get_unwrapped(_Last);
; 1653 :     if constexpr (conjunction_v<bool_constant<_Ptr_move_cat<decltype(_UFirst), _Ptrval>::_Really_trivial>,
; 1654 :                       _Uses_default_construct<_Alloc, _Ptrval, decltype(_STD move(*_UFirst))>>) {
; 1655 :         _Copy_memmove(_UFirst, _ULast, _Unfancy(_Dest));

  00004	8b 5d 10	 mov	 ebx, DWORD PTR __Dest$[ebp]
  00007	57		 push	 edi
  00008	8b 7d 0c	 mov	 edi, DWORD PTR __Last$[ebp]
  0000b	53		 push	 ebx
  0000c	57		 push	 edi
  0000d	ff 75 08	 push	 DWORD PTR __First$[ebp]
  00010	e8 00 00 00 00	 call	 ??$_Copy_memmove@PAPAV?$CRef@VCGraphicThing@@@@PAPAV1@@std@@YAPAPAV?$CRef@VCGraphicThing@@@@PAPAV1@00@Z ; std::_Copy_memmove<CRef<CGraphicThing> * *,CRef<CGraphicThing> * *>

; 1656 :         return _Dest + (_ULast - _UFirst);

  00015	2b 7d 08	 sub	 edi, DWORD PTR __First$[ebp]
  00018	83 c4 0c	 add	 esp, 12			; 0000000cH
  0001b	c1 ff 02	 sar	 edi, 2
  0001e	8d 04 bb	 lea	 eax, DWORD PTR [ebx+edi*4]
  00021	5f		 pop	 edi
  00022	5b		 pop	 ebx

; 1657 :     } else {
; 1658 :         _Uninitialized_backout_al<_Alloc> _Backout{_Dest, _Al};
; 1659 :         for (; _UFirst != _ULast; ++_UFirst) {
; 1660 :             _Backout._Emplace_back(_STD move(*_UFirst));
; 1661 :         }
; 1662 : 
; 1663 :         return _Backout._Release();
; 1664 :     }
; 1665 : }

  00023	5d		 pop	 ebp
  00024	c3		 ret	 0
??$_Uninitialized_move@PAPAV?$CRef@VCGraphicThing@@@@V?$allocator@PAV?$CRef@VCGraphicThing@@@@@std@@@std@@YAPAPAV?$CRef@VCGraphicThing@@@@QAPAV1@0PAPAV1@AAV?$allocator@PAV?$CRef@VCGraphicThing@@@@@0@@Z ENDP ; std::_Uninitialized_move<CRef<CGraphicThing> * *,std::allocator<CRef<CGraphicThing> *> >
_TEXT	ENDS
; Function compile flags: /Ogtp
; File C:\Program Files (x86)\Microsoft Visual Studio\2019\Community\VC\Tools\MSVC\14.27.29110\include\xmemory
;	COMDAT ??$_Destroy_range@V?$allocator@PAV?$CRef@VCGraphicThing@@@@@std@@@std@@YAXPAPAV?$CRef@VCGraphicThing@@@@QAPAV1@AAV?$allocator@PAV?$CRef@VCGraphicThing@@@@@0@@Z
_TEXT	SEGMENT
__First$ = 8						; size = 4
__Last$ = 12						; size = 4
__Al$ = 16						; size = 4
??$_Destroy_range@V?$allocator@PAV?$CRef@VCGraphicThing@@@@@std@@@std@@YAXPAPAV?$CRef@VCGraphicThing@@@@QAPAV1@AAV?$allocator@PAV?$CRef@VCGraphicThing@@@@@0@@Z PROC ; std::_Destroy_range<std::allocator<CRef<CGraphicThing> *> >, COMDAT

; 956  :     // note that this is an optimization for debug mode codegen; in release mode the BE removes all of this
; 957  :     using _Ty = typename _Alloc::value_type;
; 958  :     if _CONSTEXPR_IF (!conjunction_v<is_trivially_destructible<_Ty>, _Uses_default_destroy<_Alloc, _Ty*>>) {
; 959  :         for (; _First != _Last; ++_First) {
; 960  :             allocator_traits<_Alloc>::destroy(_Al, _Unfancy(_First));
; 961  :         }
; 962  :     }
; 963  : }

  00000	c2 00 00	 ret	 0
??$_Destroy_range@V?$allocator@PAV?$CRef@VCGraphicThing@@@@@std@@@std@@YAXPAPAV?$CRef@VCGraphicThing@@@@QAPAV1@AAV?$allocator@PAV?$CRef@VCGraphicThing@@@@@0@@Z ENDP ; std::_Destroy_range<std::allocator<CRef<CGraphicThing> *> >
_TEXT	ENDS
; Function compile flags: /Ogtp
; File C:\Program Files (x86)\Microsoft Visual Studio\2019\Community\VC\Tools\MSVC\14.27.29110\include\xmemory
;	COMDAT ??$_Uninitialized_move@PAPAVCGrannyLODController@@V?$allocator@PAVCGrannyLODController@@@std@@@std@@YAPAPAVCGrannyLODController@@QAPAV1@0PAPAV1@AAV?$allocator@PAVCGrannyLODController@@@0@@Z
_TEXT	SEGMENT
__First$ = 8						; size = 4
__Last$ = 12						; size = 4
__Dest$ = 16						; size = 4
__Al$ = 20						; size = 4
??$_Uninitialized_move@PAPAVCGrannyLODController@@V?$allocator@PAVCGrannyLODController@@@std@@@std@@YAPAPAVCGrannyLODController@@QAPAV1@0PAPAV1@AAV?$allocator@PAVCGrannyLODController@@@0@@Z PROC ; std::_Uninitialized_move<CGrannyLODController * *,std::allocator<CGrannyLODController *> >, COMDAT

; 1647 :     const _InIt _First, const _InIt _Last, _Alloc_ptr_t<_Alloc> _Dest, _Alloc& _Al) {

  00000	55		 push	 ebp
  00001	8b ec		 mov	 ebp, esp
  00003	53		 push	 ebx

; 1648 :     // move [_First, _Last) to raw _Dest, using _Al
; 1649 :     // note: only called internally from elsewhere in the STL
; 1650 :     using _Ptrval     = typename _Alloc::value_type*;
; 1651 :     auto _UFirst      = _Get_unwrapped(_First);
; 1652 :     const auto _ULast = _Get_unwrapped(_Last);
; 1653 :     if constexpr (conjunction_v<bool_constant<_Ptr_move_cat<decltype(_UFirst), _Ptrval>::_Really_trivial>,
; 1654 :                       _Uses_default_construct<_Alloc, _Ptrval, decltype(_STD move(*_UFirst))>>) {
; 1655 :         _Copy_memmove(_UFirst, _ULast, _Unfancy(_Dest));

  00004	8b 5d 10	 mov	 ebx, DWORD PTR __Dest$[ebp]
  00007	57		 push	 edi
  00008	8b 7d 0c	 mov	 edi, DWORD PTR __Last$[ebp]
  0000b	53		 push	 ebx
  0000c	57		 push	 edi
  0000d	ff 75 08	 push	 DWORD PTR __First$[ebp]
  00010	e8 00 00 00 00	 call	 ??$_Copy_memmove@PAPAVCGrannyLODController@@PAPAV1@@std@@YAPAPAVCGrannyLODController@@PAPAV1@00@Z ; std::_Copy_memmove<CGrannyLODController * *,CGrannyLODController * *>

; 1656 :         return _Dest + (_ULast - _UFirst);

  00015	2b 7d 08	 sub	 edi, DWORD PTR __First$[ebp]
  00018	83 c4 0c	 add	 esp, 12			; 0000000cH
  0001b	c1 ff 02	 sar	 edi, 2
  0001e	8d 04 bb	 lea	 eax, DWORD PTR [ebx+edi*4]
  00021	5f		 pop	 edi
  00022	5b		 pop	 ebx

; 1657 :     } else {
; 1658 :         _Uninitialized_backout_al<_Alloc> _Backout{_Dest, _Al};
; 1659 :         for (; _UFirst != _ULast; ++_UFirst) {
; 1660 :             _Backout._Emplace_back(_STD move(*_UFirst));
; 1661 :         }
; 1662 : 
; 1663 :         return _Backout._Release();
; 1664 :     }
; 1665 : }

  00023	5d		 pop	 ebp
  00024	c3		 ret	 0
??$_Uninitialized_move@PAPAVCGrannyLODController@@V?$allocator@PAVCGrannyLODController@@@std@@@std@@YAPAPAVCGrannyLODController@@QAPAV1@0PAPAV1@AAV?$allocator@PAVCGrannyLODController@@@0@@Z ENDP ; std::_Uninitialized_move<CGrannyLODController * *,std::allocator<CGrannyLODController *> >
_TEXT	ENDS
; Function compile flags: /Ogtp
; File C:\Program Files (x86)\Microsoft Visual Studio\2019\Community\VC\Tools\MSVC\14.27.29110\include\xmemory
; File C:\Program Files (x86)\Microsoft Visual Studio\2019\Community\VC\Tools\MSVC\14.27.29110\include\vector
; File C:\Program Files (x86)\Microsoft Visual Studio\2019\Community\VC\Tools\MSVC\14.27.29110\include\xmemory
;	COMDAT ??$_Uninitialized_value_construct_n@V?$allocator@USModelThingSet@CGraphicThingInstance@@@std@@@std@@YAPAUSModelThingSet@CGraphicThingInstance@@PAU12@IAAV?$allocator@USModelThingSet@CGraphicThingInstance@@@0@@Z
_TEXT	SEGMENT
__First$ = 8						; size = 4
__Count$ = 12						; size = 4
__Al$ = 16						; size = 4
??$_Uninitialized_value_construct_n@V?$allocator@USModelThingSet@CGraphicThingInstance@@@std@@@std@@YAPAUSModelThingSet@CGraphicThingInstance@@PAU12@IAAV?$allocator@USModelThingSet@CGraphicThingInstance@@@0@@Z PROC ; std::_Uninitialized_value_construct_n<std::allocator<CGraphicThingInstance::SModelThingSet> >, COMDAT

; 1824 :     _Alloc_ptr_t<_Alloc> _First, _Alloc_size_t<_Alloc> _Count, _Alloc& _Al) {

  00000	55		 push	 ebp
  00001	8b ec		 mov	 ebp, esp

; 1825 :     // value-initialize _Count objects to raw _First, using _Al
; 1826 :     using _Ptrty = typename _Alloc::value_type*;
; 1827 :     if constexpr (_Use_memset_value_construct_v<_Ptrty> && _Uses_default_construct<_Alloc, _Ptrty>::value) {
; 1828 :         auto _PFirst = _Unfancy(_First);
; 1829 :         _Zero_range(_PFirst, _PFirst + _Count);
; 1830 :         return _First + _Count;
; 1831 :     } else {
; 1832 :         _Uninitialized_backout_al<_Alloc> _Backout{_First, _Al};
; 1833 :         for (; 0 < _Count; --_Count) {

  00003	8b 45 0c	 mov	 eax, DWORD PTR __Count$[ebp]
  00006	56		 push	 esi

; 1497 :     _Uninitialized_backout_al(pointer _Dest, _Alloc& _Al_) : _First(_Dest), _Last(_Dest), _Al(_Al_) {}

  00007	8b 75 08	 mov	 esi, DWORD PTR __First$[ebp]

; 1825 :     // value-initialize _Count objects to raw _First, using _Al
; 1826 :     using _Ptrty = typename _Alloc::value_type*;
; 1827 :     if constexpr (_Use_memset_value_construct_v<_Ptrty> && _Uses_default_construct<_Alloc, _Ptrty>::value) {
; 1828 :         auto _PFirst = _Unfancy(_First);
; 1829 :         _Zero_range(_PFirst, _PFirst + _Count);
; 1830 :         return _First + _Count;
; 1831 :     } else {
; 1832 :         _Uninitialized_backout_al<_Alloc> _Backout{_First, _Al};
; 1833 :         for (; 0 < _Count; --_Count) {

  0000a	85 c0		 test	 eax, eax
  0000c	74 25		 je	 SHORT $LN3@Uninitiali
  0000e	66 90		 npad	 2
$LL4@Uninitiali:

; 694  :         ::new (const_cast<void*>(static_cast<const volatile void*>(_Ptr))) _Objty(_STD forward<_Types>(_Args)...);

  00010	c7 46 04 00 00
	00 00		 mov	 DWORD PTR [esi+4], 0
; File C:\Program Files (x86)\Microsoft Visual Studio\2019\Community\VC\Tools\MSVC\14.27.29110\include\vector

; 375  :     _Vector_val() noexcept : _Myfirst(), _Mylast(), _Myend() {}

  00017	c7 06 00 00 00
	00		 mov	 DWORD PTR [esi], 0
  0001d	c7 46 04 00 00
	00 00		 mov	 DWORD PTR [esi+4], 0
  00024	c7 46 08 00 00
	00 00		 mov	 DWORD PTR [esi+8], 0
; File C:\Program Files (x86)\Microsoft Visual Studio\2019\Community\VC\Tools\MSVC\14.27.29110\include\xmemory

; 1509 :         ++_Last;

  0002b	83 c6 0c	 add	 esi, 12			; 0000000cH

; 1825 :     // value-initialize _Count objects to raw _First, using _Al
; 1826 :     using _Ptrty = typename _Alloc::value_type*;
; 1827 :     if constexpr (_Use_memset_value_construct_v<_Ptrty> && _Uses_default_construct<_Alloc, _Ptrty>::value) {
; 1828 :         auto _PFirst = _Unfancy(_First);
; 1829 :         _Zero_range(_PFirst, _PFirst + _Count);
; 1830 :         return _First + _Count;
; 1831 :     } else {
; 1832 :         _Uninitialized_backout_al<_Alloc> _Backout{_First, _Al};
; 1833 :         for (; 0 < _Count; --_Count) {

  0002e	83 e8 01	 sub	 eax, 1
  00031	75 dd		 jne	 SHORT $LL4@Uninitiali
$LN3@Uninitiali:

; 1503 :         _Destroy_range(_First, _Last, _Al);

  00033	ff 75 10	 push	 DWORD PTR __Al$[ebp]
  00036	56		 push	 esi
  00037	56		 push	 esi
  00038	e8 00 00 00 00	 call	 ??$_Destroy_range@V?$allocator@USModelThingSet@CGraphicThingInstance@@@std@@@std@@YAXPAUSModelThingSet@CGraphicThingInstance@@QAU12@AAV?$allocator@USModelThingSet@CGraphicThingInstance@@@0@@Z ; std::_Destroy_range<std::allocator<CGraphicThingInstance::SModelThingSet> >
  0003d	83 c4 0c	 add	 esp, 12			; 0000000cH

; 1834 :             _Backout._Emplace_back();
; 1835 :         }
; 1836 : 
; 1837 :         return _Backout._Release();

  00040	8b c6		 mov	 eax, esi
  00042	5e		 pop	 esi

; 1838 :     }
; 1839 : }

  00043	5d		 pop	 ebp
  00044	c3		 ret	 0
??$_Uninitialized_value_construct_n@V?$allocator@USModelThingSet@CGraphicThingInstance@@@std@@@std@@YAPAUSModelThingSet@CGraphicThingInstance@@PAU12@IAAV?$allocator@USModelThingSet@CGraphicThingInstance@@@0@@Z ENDP ; std::_Uninitialized_value_construct_n<std::allocator<CGraphicThingInstance::SModelThingSet> >
_TEXT	ENDS
; Function compile flags: /Ogtp
; File C:\Program Files (x86)\Microsoft Visual Studio\2019\Community\VC\Tools\MSVC\14.27.29110\include\xmemory
;	COMDAT ??$_Destroy_in_place@PAU?$_Tree_node@U?$pair@$$CBKPAV?$CRef@VCGraphicThing@@@@@std@@PAX@std@@@std@@YAXAAPAU?$_Tree_node@U?$pair@$$CBKPAV?$CRef@VCGraphicThing@@@@@std@@PAX@0@@Z
_TEXT	SEGMENT
__Obj$ = 8						; size = 4
??$_Destroy_in_place@PAU?$_Tree_node@U?$pair@$$CBKPAV?$CRef@VCGraphicThing@@@@@std@@PAX@std@@@std@@YAXAAPAU?$_Tree_node@U?$pair@$$CBKPAV?$CRef@VCGraphicThing@@@@@std@@PAX@0@@Z PROC ; std::_Destroy_in_place<std::_Tree_node<std::pair<unsigned long const ,CRef<CGraphicThing> *>,void *> *>, COMDAT

; 268  :     _Obj.~_Ty();
; 269  : }

  00000	c2 00 00	 ret	 0
??$_Destroy_in_place@PAU?$_Tree_node@U?$pair@$$CBKPAV?$CRef@VCGraphicThing@@@@@std@@PAX@std@@@std@@YAXAAPAU?$_Tree_node@U?$pair@$$CBKPAV?$CRef@VCGraphicThing@@@@@std@@PAX@0@@Z ENDP ; std::_Destroy_in_place<std::_Tree_node<std::pair<unsigned long const ,CRef<CGraphicThing> *>,void *> *>
_TEXT	ENDS
; Function compile flags: /Ogtp
; File C:\Program Files (x86)\Microsoft Visual Studio\2019\Community\VC\Tools\MSVC\14.27.29110\include\xutility
;	COMDAT ??$_Copy_memmove@PAPAVCGraphicThingInstance@@PAPAV1@@std@@YAPAPAVCGraphicThingInstance@@PAPAV1@00@Z
_TEXT	SEGMENT
__First$ = 8						; size = 4
__Last$ = 12						; size = 4
__Dest$ = 16						; size = 4
??$_Copy_memmove@PAPAVCGraphicThingInstance@@PAPAV1@@std@@YAPAPAVCGraphicThingInstance@@PAPAV1@00@Z PROC ; std::_Copy_memmove<CGraphicThingInstance * *,CGraphicThingInstance * *>, COMDAT

; 4113 : _OutIt _Copy_memmove(_InIt _First, _InIt _Last, _OutIt _Dest) {

  00000	55		 push	 ebp
  00001	8b ec		 mov	 ebp, esp

; 4114 :     const char* const _First_ch = const_cast<const char*>(reinterpret_cast<const volatile char*>(_First));
; 4115 :     const char* const _Last_ch  = const_cast<const char*>(reinterpret_cast<const volatile char*>(_Last));
; 4116 :     char* const _Dest_ch        = const_cast<char*>(reinterpret_cast<volatile char*>(_Dest));
; 4117 :     const auto _Count           = static_cast<size_t>(_Last_ch - _First_ch);

  00003	8b 45 08	 mov	 eax, DWORD PTR __First$[ebp]
  00006	56		 push	 esi

; 4118 :     _CSTD memmove(_Dest_ch, _First_ch, _Count);

  00007	8b 75 10	 mov	 esi, DWORD PTR __Dest$[ebp]
  0000a	57		 push	 edi
  0000b	8b 7d 0c	 mov	 edi, DWORD PTR __Last$[ebp]
  0000e	2b f8		 sub	 edi, eax
  00010	57		 push	 edi
  00011	50		 push	 eax
  00012	56		 push	 esi
  00013	e8 00 00 00 00	 call	 _memmove
  00018	83 c4 0c	 add	 esp, 12			; 0000000cH

; 4119 :     return reinterpret_cast<_OutIt>(_Dest_ch + _Count);

  0001b	8d 04 37	 lea	 eax, DWORD PTR [edi+esi]
  0001e	5f		 pop	 edi
  0001f	5e		 pop	 esi

; 4120 : }

  00020	5d		 pop	 ebp
  00021	c3		 ret	 0
??$_Copy_memmove@PAPAVCGraphicThingInstance@@PAPAV1@@std@@YAPAPAVCGraphicThingInstance@@PAPAV1@00@Z ENDP ; std::_Copy_memmove<CGraphicThingInstance * *,CGraphicThingInstance * *>
_TEXT	ENDS
; Function compile flags: /Ogtp
; File C:\Program Files (x86)\Microsoft Visual Studio\2019\Community\VC\Tools\MSVC\14.27.29110\include\xmemory
;	COMDAT ??$_Allocate_manually_vector_aligned@U_Default_allocate_traits@std@@@std@@YAPAXI@Z
_TEXT	SEGMENT
__Bytes$ = 8						; size = 4
??$_Allocate_manually_vector_aligned@U_Default_allocate_traits@std@@@std@@YAPAXI@Z PROC ; std::_Allocate_manually_vector_aligned<std::_Default_allocate_traits>, COMDAT

; 113  : __declspec(allocator) void* _Allocate_manually_vector_aligned(const size_t _Bytes) {

  00000	55		 push	 ebp
  00001	8b ec		 mov	 ebp, esp

; 114  :     // allocate _Bytes manually aligned to at least _Big_allocation_alignment
; 115  :     const size_t _Block_size = _Non_user_size + _Bytes;

  00003	8b 45 08	 mov	 eax, DWORD PTR __Bytes$[ebp]
  00006	8d 48 23	 lea	 ecx, DWORD PTR [eax+35]

; 116  :     if (_Block_size <= _Bytes) {

  00009	3b c8		 cmp	 ecx, eax
  0000b	0f 86 00 00 00
	00		 jbe	 ?_Throw_bad_array_new_length@std@@YAXXZ ; std::_Throw_bad_array_new_length

; 77   :         return ::operator new(_Bytes);

  00011	51		 push	 ecx
  00012	e8 00 00 00 00	 call	 ??2@YAPAXI@Z		; operator new

; 117  :         _Throw_bad_array_new_length(); // add overflow
; 118  :     }
; 119  : 
; 120  :     const uintptr_t _Ptr_container = reinterpret_cast<uintptr_t>(_Traits::_Allocate(_Block_size));

  00017	8b c8		 mov	 ecx, eax

; 77   :         return ::operator new(_Bytes);

  00019	83 c4 04	 add	 esp, 4

; 121  :     _STL_VERIFY(_Ptr_container != 0, "invalid argument"); // validate even in release since we're doing p[-1]

  0001c	85 c9		 test	 ecx, ecx
  0001e	74 0b		 je	 SHORT $LN7@Allocate_m

; 122  :     void* const _Ptr = reinterpret_cast<void*>((_Ptr_container + _Non_user_size) & ~(_Big_allocation_alignment - 1));

  00020	8d 41 23	 lea	 eax, DWORD PTR [ecx+35]
  00023	83 e0 e0	 and	 eax, -32		; ffffffe0H

; 123  :     static_cast<uintptr_t*>(_Ptr)[-1] = _Ptr_container;

  00026	89 48 fc	 mov	 DWORD PTR [eax-4], ecx

; 124  : 
; 125  : #ifdef _DEBUG
; 126  :     static_cast<uintptr_t*>(_Ptr)[-2] = _Big_allocation_sentinel;
; 127  : #endif // _DEBUG
; 128  :     return _Ptr;
; 129  : }

  00029	5d		 pop	 ebp
  0002a	c3		 ret	 0
$LN7@Allocate_m:

; 121  :     _STL_VERIFY(_Ptr_container != 0, "invalid argument"); // validate even in release since we're doing p[-1]

  0002b	e9 00 00 00 00	 jmp	 __invalid_parameter_noinfo_noreturn
??$_Allocate_manually_vector_aligned@U_Default_allocate_traits@std@@@std@@YAPAXI@Z ENDP ; std::_Allocate_manually_vector_aligned<std::_Default_allocate_traits>
_TEXT	ENDS
; Function compile flags: /Ogtp
; File C:\Program Files (x86)\Microsoft Visual Studio\2019\Community\VC\Tools\MSVC\14.27.29110\include\xmemory
;	COMDAT ??$_Construct_in_place@PAU?$_Tree_node@U?$pair@$$CBKPAV?$CRef@VCGraphicThing@@@@@std@@PAX@std@@ABQAU12@@std@@YAXAAPAU?$_Tree_node@U?$pair@$$CBKPAV?$CRef@VCGraphicThing@@@@@std@@PAX@0@ABQAU10@@Z
_TEXT	SEGMENT
__Obj$ = 8						; size = 4
_<_Args_0>$ = 12					; size = 4
??$_Construct_in_place@PAU?$_Tree_node@U?$pair@$$CBKPAV?$CRef@VCGraphicThing@@@@@std@@PAX@std@@ABQAU12@@std@@YAXAAPAU?$_Tree_node@U?$pair@$$CBKPAV?$CRef@VCGraphicThing@@@@@std@@PAX@0@ABQAU10@@Z PROC ; std::_Construct_in_place<std::_Tree_node<std::pair<unsigned long const ,CRef<CGraphicThing> *>,void *> *,std::_Tree_node<std::pair<unsigned long const ,CRef<CGraphicThing> *>,void *> * const &>, COMDAT

; 228  : void _Construct_in_place(_Ty& _Obj, _Types&&... _Args) noexcept(is_nothrow_constructible_v<_Ty, _Types...>) {

  00000	55		 push	 ebp
  00001	8b ec		 mov	 ebp, esp

; 229  :     ::new (const_cast<void*>(static_cast<const volatile void*>(_STD addressof(_Obj))))

  00003	8b 45 0c	 mov	 eax, DWORD PTR _<_Args_0>$[ebp]
  00006	8b 08		 mov	 ecx, DWORD PTR [eax]
  00008	8b 45 08	 mov	 eax, DWORD PTR __Obj$[ebp]
  0000b	89 08		 mov	 DWORD PTR [eax], ecx

; 230  :         _Ty(_STD forward<_Types>(_Args)...);
; 231  : }

  0000d	5d		 pop	 ebp
  0000e	c3		 ret	 0
??$_Construct_in_place@PAU?$_Tree_node@U?$pair@$$CBKPAV?$CRef@VCGraphicThing@@@@@std@@PAX@std@@ABQAU12@@std@@YAXAAPAU?$_Tree_node@U?$pair@$$CBKPAV?$CRef@VCGraphicThing@@@@@std@@PAX@0@ABQAU10@@Z ENDP ; std::_Construct_in_place<std::_Tree_node<std::pair<unsigned long const ,CRef<CGraphicThing> *>,void *> *,std::_Tree_node<std::pair<unsigned long const ,CRef<CGraphicThing> *>,void *> * const &>
_TEXT	ENDS
; Function compile flags: /Ogtp
; File C:\Program Files (x86)\Microsoft Visual Studio\2019\Community\VC\Tools\MSVC\14.27.29110\include\vector
; File C:\Program Files (x86)\Microsoft Visual Studio\2019\Community\VC\Tools\MSVC\14.27.29110\include\xmemory
; File C:\Program Files (x86)\Microsoft Visual Studio\2019\Community\VC\Tools\MSVC\14.27.29110\include\vector
; File C:\Program Files (x86)\Microsoft Visual Studio\2019\Community\VC\Tools\MSVC\14.27.29110\include\xmemory
; File C:\Program Files (x86)\Microsoft Visual Studio\2019\Community\VC\Tools\MSVC\14.27.29110\include\vector
; File C:\Program Files (x86)\Microsoft Visual Studio\2019\Community\VC\Tools\MSVC\14.27.29110\include\xmemory
; File C:\Program Files (x86)\Microsoft Visual Studio\2019\Community\VC\Tools\MSVC\14.27.29110\include\vector
; File C:\Program Files (x86)\Microsoft Visual Studio\2019\Community\VC\Tools\MSVC\14.27.29110\include\xmemory
; File C:\Program Files (x86)\Microsoft Visual Studio\2019\Community\VC\Tools\MSVC\14.27.29110\include\vector
; File C:\Program Files (x86)\Microsoft Visual Studio\2019\Community\VC\Tools\MSVC\14.27.29110\include\xmemory
; File C:\Program Files (x86)\Microsoft Visual Studio\2019\Community\VC\Tools\MSVC\14.27.29110\include\vector
;	COMDAT ??$_Resize_reallocate@U_Value_init_tag@std@@@?$vector@USModelThingSet@CGraphicThingInstance@@V?$allocator@USModelThingSet@CGraphicThingInstance@@@std@@@std@@AAEXIABU_Value_init_tag@1@@Z
_TEXT	SEGMENT
tv302 = -8						; size = 4
__Newvec$1$ = -4					; size = 4
__Oldsize$1$ = 8					; size = 4
__Newsize$ = 8						; size = 4
__Val$ = 12						; size = 4
??$_Resize_reallocate@U_Value_init_tag@std@@@?$vector@USModelThingSet@CGraphicThingInstance@@V?$allocator@USModelThingSet@CGraphicThingInstance@@@std@@@std@@AAEXIABU_Value_init_tag@1@@Z PROC ; std::vector<CGraphicThingInstance::SModelThingSet,std::allocator<CGraphicThingInstance::SModelThingSet> >::_Resize_reallocate<std::_Value_init_tag>, COMDAT
; _this$ = ecx

; 1182 :     void _Resize_reallocate(const size_type _Newsize, const _Ty2& _Val) {

  00000	55		 push	 ebp
  00001	8b ec		 mov	 ebp, esp
  00003	83 ec 08	 sub	 esp, 8
  00006	53		 push	 ebx

; 1183 :         if (_Newsize > max_size()) {

  00007	8b 5d 08	 mov	 ebx, DWORD PTR __Newsize$[ebp]
  0000a	56		 push	 esi
  0000b	57		 push	 edi
  0000c	8b f9		 mov	 edi, ecx
  0000e	81 fb 55 55 55
	15		 cmp	 ebx, 357913941		; 15555555H
  00014	0f 87 e0 00 00
	00		 ja	 $LN38@Resize_rea

; 1185 :         }
; 1186 : 
; 1187 :         auto& _My_data    = _Mypair._Myval2;
; 1188 :         pointer& _Myfirst = _My_data._Myfirst;
; 1189 :         pointer& _Mylast  = _My_data._Mylast;
; 1190 : 
; 1191 :         const auto _Oldsize          = static_cast<size_type>(_Mylast - _Myfirst);

  0001a	8b 4f 04	 mov	 ecx, DWORD PTR [edi+4]
  0001d	b8 ab aa aa 2a	 mov	 eax, 715827883		; 2aaaaaabH
  00022	2b 0f		 sub	 ecx, DWORD PTR [edi]
  00024	f7 e9		 imul	 ecx

; 1494 :         return static_cast<size_type>(_My_data._Myend - _My_data._Myfirst);

  00026	8b 4f 08	 mov	 ecx, DWORD PTR [edi+8]
  00029	2b 0f		 sub	 ecx, DWORD PTR [edi]

; 1185 :         }
; 1186 : 
; 1187 :         auto& _My_data    = _Mypair._Myval2;
; 1188 :         pointer& _Myfirst = _My_data._Myfirst;
; 1189 :         pointer& _Mylast  = _My_data._Mylast;
; 1190 : 
; 1191 :         const auto _Oldsize          = static_cast<size_type>(_Mylast - _Myfirst);

  0002b	d1 fa		 sar	 edx, 1
  0002d	8b c2		 mov	 eax, edx
  0002f	c1 e8 1f	 shr	 eax, 31			; 0000001fH
  00032	03 c2		 add	 eax, edx
  00034	89 45 08	 mov	 DWORD PTR __Oldsize$1$[ebp], eax

; 1494 :         return static_cast<size_type>(_My_data._Myend - _My_data._Myfirst);

  00037	b8 ab aa aa 2a	 mov	 eax, 715827883		; 2aaaaaabH
  0003c	f7 e9		 imul	 ecx

; 1619 :         if (_Oldcapacity > max_size() - _Oldcapacity / 2) {

  0003e	b8 55 55 55 15	 mov	 eax, 357913941		; 15555555H

; 1494 :         return static_cast<size_type>(_My_data._Myend - _My_data._Myfirst);

  00043	d1 fa		 sar	 edx, 1
  00045	8b ca		 mov	 ecx, edx
  00047	c1 e9 1f	 shr	 ecx, 31			; 0000001fH
  0004a	03 ca		 add	 ecx, edx

; 1619 :         if (_Oldcapacity > max_size() - _Oldcapacity / 2) {

  0004c	8b d1		 mov	 edx, ecx
  0004e	d1 ea		 shr	 edx, 1
  00050	2b c2		 sub	 eax, edx
  00052	3b c8		 cmp	 ecx, eax
  00054	77 14		 ja	 SHORT $LN36@Resize_rea

; 1620 :             return _Newsize; // geometric growth would overflow
; 1621 :         }
; 1622 : 
; 1623 :         const size_type _Geometric = _Oldcapacity + _Oldcapacity / 2;

  00056	8d 04 0a	 lea	 eax, DWORD PTR [edx+ecx]

; 1624 : 
; 1625 :         if (_Geometric < _Newsize) {

  00059	3b c3		 cmp	 eax, ebx
  0005b	72 0d		 jb	 SHORT $LN36@Resize_rea
; File C:\Program Files (x86)\Microsoft Visual Studio\2019\Community\VC\Tools\MSVC\14.27.29110\include\xmemory

; 60   :         if (_Count > _Max_possible) {

  0005d	3d 55 55 55 15	 cmp	 eax, 357913941		; 15555555H
  00062	0f 87 97 00 00
	00		 ja	 $LN39@Resize_rea
  00068	eb 02		 jmp	 SHORT $LN18@Resize_rea
$LN36@Resize_rea:

; 62   :         }
; 63   :     }
; 64   : 
; 65   :     return _Count * _Ty_size;

  0006a	8b c3		 mov	 eax, ebx
$LN18@Resize_rea:
  0006c	8d 04 40	 lea	 eax, DWORD PTR [eax+eax*2]
  0006f	c1 e0 02	 shl	 eax, 2

; 807  :         return static_cast<_Ty*>(_Allocate<_New_alignof<_Ty>>(_Get_size_of_n<sizeof(_Ty)>(_Count)));

  00072	50		 push	 eax

; 65   :     return _Count * _Ty_size;

  00073	89 45 f8	 mov	 DWORD PTR tv302[ebp], eax

; 807  :         return static_cast<_Ty*>(_Allocate<_New_alignof<_Ty>>(_Get_size_of_n<sizeof(_Ty)>(_Count)));

  00076	e8 00 00 00 00	 call	 ??$_Allocate@$07U_Default_allocate_traits@std@@$0A@@std@@YAPAXI@Z ; std::_Allocate<8,std::_Default_allocate_traits,0>
; File C:\Program Files (x86)\Microsoft Visual Studio\2019\Community\VC\Tools\MSVC\14.27.29110\include\vector

; 1199 :         _Appended_last = _Ufill(_Appended_first, _Newsize - _Oldsize, _Val);

  0007b	8b 4d 08	 mov	 ecx, DWORD PTR __Oldsize$1$[ebp]
; File C:\Program Files (x86)\Microsoft Visual Studio\2019\Community\VC\Tools\MSVC\14.27.29110\include\xmemory

; 807  :         return static_cast<_Ty*>(_Allocate<_New_alignof<_Ty>>(_Get_size_of_n<sizeof(_Ty)>(_Count)));

  0007e	8b f0		 mov	 esi, eax
; File C:\Program Files (x86)\Microsoft Visual Studio\2019\Community\VC\Tools\MSVC\14.27.29110\include\vector

; 1199 :         _Appended_last = _Ufill(_Appended_first, _Newsize - _Oldsize, _Val);

  00080	8b c3		 mov	 eax, ebx
; File C:\Program Files (x86)\Microsoft Visual Studio\2019\Community\VC\Tools\MSVC\14.27.29110\include\xmemory

; 807  :         return static_cast<_Ty*>(_Allocate<_New_alignof<_Ty>>(_Get_size_of_n<sizeof(_Ty)>(_Count)));

  00082	89 75 fc	 mov	 DWORD PTR __Newvec$1$[ebp], esi
; File C:\Program Files (x86)\Microsoft Visual Studio\2019\Community\VC\Tools\MSVC\14.27.29110\include\vector

; 1199 :         _Appended_last = _Ufill(_Appended_first, _Newsize - _Oldsize, _Val);

  00085	2b c1		 sub	 eax, ecx

; 1583 :         return _Uninitialized_value_construct_n(_Dest, _Count, _Getal());

  00087	57		 push	 edi
  00088	50		 push	 eax

; 1192 :         const size_type _Newcapacity = _Calculate_growth(_Newsize);
; 1193 : 
; 1194 :         const pointer _Newvec         = _Getal().allocate(_Newcapacity);
; 1195 :         const pointer _Appended_first = _Newvec + _Oldsize;

  00089	8d 04 49	 lea	 eax, DWORD PTR [ecx+ecx*2]
  0008c	8d 04 86	 lea	 eax, DWORD PTR [esi+eax*4]

; 1583 :         return _Uninitialized_value_construct_n(_Dest, _Count, _Getal());

  0008f	50		 push	 eax
  00090	e8 00 00 00 00	 call	 ??$_Uninitialized_value_construct_n@V?$allocator@USModelThingSet@CGraphicThingInstance@@@std@@@std@@YAPAUSModelThingSet@CGraphicThingInstance@@PAU12@IAAV?$allocator@USModelThingSet@CGraphicThingInstance@@@0@@Z ; std::_Uninitialized_value_construct_n<std::allocator<CGraphicThingInstance::SModelThingSet> >

; 1597 :         _Uninitialized_move(_First, _Last, _Dest, _Getal());

  00095	57		 push	 edi
  00096	56		 push	 esi
  00097	ff 77 04	 push	 DWORD PTR [edi+4]
  0009a	ff 37		 push	 DWORD PTR [edi]
  0009c	e8 00 00 00 00	 call	 ??$_Uninitialized_move@PAUSModelThingSet@CGraphicThingInstance@@V?$allocator@USModelThingSet@CGraphicThingInstance@@@std@@@std@@YAPAUSModelThingSet@CGraphicThingInstance@@QAU12@0PAU12@AAV?$allocator@USModelThingSet@CGraphicThingInstance@@@0@@Z ; std::_Uninitialized_move<CGraphicThingInstance::SModelThingSet *,std::allocator<CGraphicThingInstance::SModelThingSet> >

; 1675 :         if (_Myfirst) { // destroy and deallocate old array

  000a1	8b 0f		 mov	 ecx, DWORD PTR [edi]

; 1597 :         _Uninitialized_move(_First, _Last, _Dest, _Getal());

  000a3	83 c4 20	 add	 esp, 32			; 00000020H

; 1675 :         if (_Myfirst) { // destroy and deallocate old array

  000a6	85 c9		 test	 ecx, ecx
  000a8	74 34		 je	 SHORT $LN29@Resize_rea

; 1612 :         _Destroy_range(_First, _Last, _Getal());

  000aa	57		 push	 edi
  000ab	ff 77 04	 push	 DWORD PTR [edi+4]
  000ae	51		 push	 ecx
  000af	e8 00 00 00 00	 call	 ??$_Destroy_range@V?$allocator@USModelThingSet@CGraphicThingInstance@@@std@@@std@@YAXPAUSModelThingSet@CGraphicThingInstance@@QAU12@AAV?$allocator@USModelThingSet@CGraphicThingInstance@@@0@@Z ; std::_Destroy_range<std::allocator<CGraphicThingInstance::SModelThingSet> >

; 1677 :             _Getal().deallocate(_Myfirst, static_cast<size_type>(_Myend - _Myfirst));

  000b4	8b 37		 mov	 esi, DWORD PTR [edi]
  000b6	b8 ab aa aa 2a	 mov	 eax, 715827883		; 2aaaaaabH
  000bb	8b 4f 08	 mov	 ecx, DWORD PTR [edi+8]
  000be	2b ce		 sub	 ecx, esi
  000c0	f7 e9		 imul	 ecx
  000c2	d1 fa		 sar	 edx, 1
  000c4	8b c2		 mov	 eax, edx
  000c6	c1 e8 1f	 shr	 eax, 31			; 0000001fH
  000c9	03 c2		 add	 eax, edx
; File C:\Program Files (x86)\Microsoft Visual Studio\2019\Community\VC\Tools\MSVC\14.27.29110\include\xmemory

; 803  :         _Deallocate<_New_alignof<_Ty>>(_Ptr, sizeof(_Ty) * _Count);

  000cb	8d 04 40	 lea	 eax, DWORD PTR [eax+eax*2]
  000ce	c1 e0 02	 shl	 eax, 2
  000d1	50		 push	 eax
  000d2	56		 push	 esi
  000d3	e8 00 00 00 00	 call	 ??$_Deallocate@$07$0A@@std@@YAXPAXI@Z ; std::_Deallocate<8,0>
  000d8	8b 75 fc	 mov	 esi, DWORD PTR __Newvec$1$[ebp]
  000db	83 c4 14	 add	 esp, 20			; 00000014H
$LN29@Resize_rea:
; File C:\Program Files (x86)\Microsoft Visual Studio\2019\Community\VC\Tools\MSVC\14.27.29110\include\vector

; 1681 :         _Mylast  = _Newvec + _Newsize;

  000de	8d 04 5b	 lea	 eax, DWORD PTR [ebx+ebx*2]
  000e1	89 37		 mov	 DWORD PTR [edi], esi
  000e3	8d 04 86	 lea	 eax, DWORD PTR [esi+eax*4]
  000e6	89 47 04	 mov	 DWORD PTR [edi+4], eax

; 1682 :         _Myend   = _Newvec + _Newcapacity;

  000e9	8b 45 f8	 mov	 eax, DWORD PTR tv302[ebp]
  000ec	03 c6		 add	 eax, esi
  000ee	89 47 08	 mov	 DWORD PTR [edi+8], eax
  000f1	5f		 pop	 edi
  000f2	5e		 pop	 esi
  000f3	5b		 pop	 ebx

; 1208 :     }

  000f4	8b e5		 mov	 esp, ebp
  000f6	5d		 pop	 ebp
  000f7	c2 08 00	 ret	 8
$LN38@Resize_rea:

; 1184 :             _Xlength();

  000fa	e8 00 00 00 00	 call	 ?_Xlength@?$vector@USModelThingSet@CGraphicThingInstance@@V?$allocator@USModelThingSet@CGraphicThingInstance@@@std@@@std@@CAXXZ ; std::vector<CGraphicThingInstance::SModelThingSet,std::allocator<CGraphicThingInstance::SModelThingSet> >::_Xlength
$LN39@Resize_rea:
; File C:\Program Files (x86)\Microsoft Visual Studio\2019\Community\VC\Tools\MSVC\14.27.29110\include\xmemory

; 61   :             _Throw_bad_array_new_length(); // multiply overflow

  000ff	e8 00 00 00 00	 call	 ?_Throw_bad_array_new_length@std@@YAXXZ ; std::_Throw_bad_array_new_length
$LN35@Resize_rea:
  00104	cc		 int	 3
??$_Resize_reallocate@U_Value_init_tag@std@@@?$vector@USModelThingSet@CGraphicThingInstance@@V?$allocator@USModelThingSet@CGraphicThingInstance@@@std@@@std@@AAEXIABU_Value_init_tag@1@@Z ENDP ; std::vector<CGraphicThingInstance::SModelThingSet,std::allocator<CGraphicThingInstance::SModelThingSet> >::_Resize_reallocate<std::_Value_init_tag>
_TEXT	ENDS
; Function compile flags: /Ogtp
; File C:\Program Files (x86)\Microsoft Visual Studio\2019\Community\VC\Tools\MSVC\14.27.29110\include\xtree
; File C:\Program Files (x86)\Microsoft Visual Studio\2019\Community\VC\Tools\MSVC\14.27.29110\include\utility
; File C:\Program Files (x86)\Microsoft Visual Studio\2019\Community\VC\Tools\MSVC\14.27.29110\include\xmemory
; File C:\Program Files (x86)\Microsoft Visual Studio\2019\Community\VC\Tools\MSVC\14.27.29110\include\xtree
;	COMDAT ??$_Erase_tree@V?$allocator@U?$_Tree_node@U?$pair@$$CBKPAV?$CRef@VCGraphicThing@@@@@std@@PAX@std@@@std@@@?$_Tree_val@U?$_Tree_simple_types@U?$pair@$$CBKPAV?$CRef@VCGraphicThing@@@@@std@@@std@@@std@@QAEXAAV?$allocator@U?$_Tree_node@U?$pair@$$CBKPAV?$CRef@VCGraphicThing@@@@@std@@PAX@std@@@1@PAU?$_Tree_node@U?$pair@$$CBKPAV?$CRef@VCGraphicThing@@@@@std@@PAX@1@@Z
_TEXT	SEGMENT
__Al$ = 8						; size = 4
__Rootnode$ = 12					; size = 4
??$_Erase_tree@V?$allocator@U?$_Tree_node@U?$pair@$$CBKPAV?$CRef@VCGraphicThing@@@@@std@@PAX@std@@@std@@@?$_Tree_val@U?$_Tree_simple_types@U?$pair@$$CBKPAV?$CRef@VCGraphicThing@@@@@std@@@std@@@std@@QAEXAAV?$allocator@U?$_Tree_node@U?$pair@$$CBKPAV?$CRef@VCGraphicThing@@@@@std@@PAX@std@@@1@PAU?$_Tree_node@U?$pair@$$CBKPAV?$CRef@VCGraphicThing@@@@@std@@PAX@1@@Z PROC ; std::_Tree_val<std::_Tree_simple_types<std::pair<unsigned long const ,CRef<CGraphicThing> *> > >::_Erase_tree<std::allocator<std::_Tree_node<std::pair<unsigned long const ,CRef<CGraphicThing> *>,void *> > >, COMDAT
; _this$ = ecx

; 742  :     void _Erase_tree(_Alnode& _Al, _Nodeptr _Rootnode) noexcept {

  00000	55		 push	 ebp
  00001	8b ec		 mov	 ebp, esp
  00003	53		 push	 ebx
  00004	56		 push	 esi

; 743  :         while (!_Rootnode->_Isnil) { // free subtrees, then node

  00005	8b 75 0c	 mov	 esi, DWORD PTR __Rootnode$[ebp]
  00008	8b d9		 mov	 ebx, ecx
  0000a	80 7e 0d 00	 cmp	 BYTE PTR [esi+13], 0
  0000e	75 25		 jne	 SHORT $LN3@Erase_tree
  00010	57		 push	 edi
  00011	8b 7d 08	 mov	 edi, DWORD PTR __Al$[ebp]
$LL2@Erase_tree:

; 744  :             _Erase_tree(_Al, _Rootnode->_Right);

  00014	ff 76 08	 push	 DWORD PTR [esi+8]
  00017	8b cb		 mov	 ecx, ebx
  00019	57		 push	 edi
  0001a	e8 00 00 00 00	 call	 ??$_Erase_tree@V?$allocator@U?$_Tree_node@U?$pair@$$CBKPAV?$CRef@VCGraphicThing@@@@@std@@PAX@std@@@std@@@?$_Tree_val@U?$_Tree_simple_types@U?$pair@$$CBKPAV?$CRef@VCGraphicThing@@@@@std@@@std@@@std@@QAEXAAV?$allocator@U?$_Tree_node@U?$pair@$$CBKPAV?$CRef@VCGraphicThing@@@@@std@@PAX@std@@@1@PAU?$_Tree_node@U?$pair@$$CBKPAV?$CRef@VCGraphicThing@@@@@std@@PAX@1@@Z ; std::_Tree_val<std::_Tree_simple_types<std::pair<unsigned long const ,CRef<CGraphicThing> *> > >::_Erase_tree<std::allocator<std::_Tree_node<std::pair<unsigned long const ,CRef<CGraphicThing> *>,void *> > >
; File C:\Program Files (x86)\Microsoft Visual Studio\2019\Community\VC\Tools\MSVC\14.27.29110\include\utility

; 599  :     _Ty _Old_val = static_cast<_Ty&&>(_Val);

  0001f	8b c6		 mov	 eax, esi

; 600  :     _Val         = static_cast<_Other&&>(_New_val);

  00021	8b 36		 mov	 esi, DWORD PTR [esi]
; File C:\Program Files (x86)\Microsoft Visual Studio\2019\Community\VC\Tools\MSVC\14.27.29110\include\xmemory

; 689  :         _Deallocate<_New_alignof<value_type>>(_Ptr, sizeof(value_type) * _Count);

  00023	6a 18		 push	 24			; 00000018H
  00025	50		 push	 eax
  00026	e8 00 00 00 00	 call	 ??$_Deallocate@$07$0A@@std@@YAXPAXI@Z ; std::_Deallocate<8,0>
  0002b	83 c4 08	 add	 esp, 8
; File C:\Program Files (x86)\Microsoft Visual Studio\2019\Community\VC\Tools\MSVC\14.27.29110\include\xtree

; 743  :         while (!_Rootnode->_Isnil) { // free subtrees, then node

  0002e	80 7e 0d 00	 cmp	 BYTE PTR [esi+13], 0
  00032	74 e0		 je	 SHORT $LL2@Erase_tree
  00034	5f		 pop	 edi
$LN3@Erase_tree:
  00035	5e		 pop	 esi

; 745  :             _Alnode::value_type::_Freenode(_Al, _STD exchange(_Rootnode, _Rootnode->_Left));
; 746  :         }
; 747  :     }

  00036	5b		 pop	 ebx
  00037	5d		 pop	 ebp
  00038	c2 08 00	 ret	 8
??$_Erase_tree@V?$allocator@U?$_Tree_node@U?$pair@$$CBKPAV?$CRef@VCGraphicThing@@@@@std@@PAX@std@@@std@@@?$_Tree_val@U?$_Tree_simple_types@U?$pair@$$CBKPAV?$CRef@VCGraphicThing@@@@@std@@@std@@@std@@QAEXAAV?$allocator@U?$_Tree_node@U?$pair@$$CBKPAV?$CRef@VCGraphicThing@@@@@std@@PAX@std@@@1@PAU?$_Tree_node@U?$pair@$$CBKPAV?$CRef@VCGraphicThing@@@@@std@@PAX@1@@Z ENDP ; std::_Tree_val<std::_Tree_simple_types<std::pair<unsigned long const ,CRef<CGraphicThing> *> > >::_Erase_tree<std::allocator<std::_Tree_node<std::pair<unsigned long const ,CRef<CGraphicThing> *>,void *> > >
_TEXT	ENDS
; Function compile flags: /Ogtp
; File C:\Program Files (x86)\Microsoft Visual Studio\2019\Community\VC\Tools\MSVC\14.27.29110\include\xmemory
;	COMDAT ??1?$_Alloc_construct_ptr@V?$allocator@U?$_Tree_node@U?$pair@$$CBKPAV?$CRef@VCGraphicThing@@@@@std@@PAX@std@@@std@@@std@@QAE@XZ
_TEXT	SEGMENT
??1?$_Alloc_construct_ptr@V?$allocator@U?$_Tree_node@U?$pair@$$CBKPAV?$CRef@VCGraphicThing@@@@@std@@PAX@std@@@std@@@std@@QAE@XZ PROC ; std::_Alloc_construct_ptr<std::allocator<std::_Tree_node<std::pair<unsigned long const ,CRef<CGraphicThing> *>,void *> > >::~_Alloc_construct_ptr<std::allocator<std::_Tree_node<std::pair<unsigned long const ,CRef<CGraphicThing> *>,void *> > >, COMDAT
; _this$ = ecx

; 1052 :         if (_Ptr) {

  00000	8b 41 04	 mov	 eax, DWORD PTR [ecx+4]
  00003	85 c0		 test	 eax, eax
  00005	74 0b		 je	 SHORT $LN2@Alloc_cons

; 803  :         _Deallocate<_New_alignof<_Ty>>(_Ptr, sizeof(_Ty) * _Count);

  00007	6a 18		 push	 24			; 00000018H
  00009	50		 push	 eax
  0000a	e8 00 00 00 00	 call	 ??$_Deallocate@$07$0A@@std@@YAXPAXI@Z ; std::_Deallocate<8,0>
  0000f	83 c4 08	 add	 esp, 8
$LN2@Alloc_cons:

; 1053 :             _Al.deallocate(_Ptr, 1);
; 1054 :         }
; 1055 :     }

  00012	c3		 ret	 0
??1?$_Alloc_construct_ptr@V?$allocator@U?$_Tree_node@U?$pair@$$CBKPAV?$CRef@VCGraphicThing@@@@@std@@PAX@std@@@std@@@std@@QAE@XZ ENDP ; std::_Alloc_construct_ptr<std::allocator<std::_Tree_node<std::pair<unsigned long const ,CRef<CGraphicThing> *>,void *> > >::~_Alloc_construct_ptr<std::allocator<std::_Tree_node<std::pair<unsigned long const ,CRef<CGraphicThing> *>,void *> > >
_TEXT	ENDS
; Function compile flags: /Ogtp
; File C:\Program Files (x86)\Microsoft Visual Studio\2019\Community\VC\Tools\MSVC\14.27.29110\include\xtree
; File C:\Program Files (x86)\Microsoft Visual Studio\2019\Community\VC\Tools\MSVC\14.27.29110\include\xstddef
; File C:\Program Files (x86)\Microsoft Visual Studio\2019\Community\VC\Tools\MSVC\14.27.29110\include\xtree
; File C:\Program Files (x86)\Microsoft Visual Studio\2019\Community\VC\Tools\MSVC\14.27.29110\include\xstddef
; File C:\Program Files (x86)\Microsoft Visual Studio\2019\Community\VC\Tools\MSVC\14.27.29110\include\xtree
;	COMDAT ??$_Find_lower_bound@K@?$_Tree@V?$_Tmap_traits@KPAV?$CRef@VCGraphicThing@@@@U?$less@K@std@@V?$allocator@U?$pair@$$CBKPAV?$CRef@VCGraphicThing@@@@@std@@@3@$0A@@std@@@std@@IBE?AU?$_Tree_find_result@PAU?$_Tree_node@U?$pair@$$CBKPAV?$CRef@VCGraphicThing@@@@@std@@PAX@std@@@1@ABK@Z
_TEXT	SEGMENT
___$ReturnUdt$ = 8					; size = 4
__Keyval$ = 12						; size = 4
??$_Find_lower_bound@K@?$_Tree@V?$_Tmap_traits@KPAV?$CRef@VCGraphicThing@@@@U?$less@K@std@@V?$allocator@U?$pair@$$CBKPAV?$CRef@VCGraphicThing@@@@@std@@@3@$0A@@std@@@std@@IBE?AU?$_Tree_find_result@PAU?$_Tree_node@U?$pair@$$CBKPAV?$CRef@VCGraphicThing@@@@@std@@PAX@std@@@1@ABK@Z PROC ; std::_Tree<std::_Tmap_traits<unsigned long,CRef<CGraphicThing> *,std::less<unsigned long>,std::allocator<std::pair<unsigned long const ,CRef<CGraphicThing> *> >,0> >::_Find_lower_bound<unsigned long>, COMDAT
; _this$ = ecx

; 1699 :     _Tree_find_result<_Nodeptr> _Find_lower_bound(const _Keyty& _Keyval) const {

  00000	55		 push	 ebp
  00001	8b ec		 mov	 ebp, esp

; 1700 :         const auto _Scary = _Get_scary();
; 1701 :         _Tree_find_result<_Nodeptr> _Result{{_Scary->_Myhead->_Parent, _Tree_child::_Right}, _Scary->_Myhead};

  00003	8b 09		 mov	 ecx, DWORD PTR [ecx]
  00005	8b 55 08	 mov	 edx, DWORD PTR ___$ReturnUdt$[ebp]
  00008	8b 41 04	 mov	 eax, DWORD PTR [ecx+4]
  0000b	89 02		 mov	 DWORD PTR [edx], eax
  0000d	c7 42 04 00 00
	00 00		 mov	 DWORD PTR [edx+4], 0
  00014	89 4a 08	 mov	 DWORD PTR [edx+8], ecx

; 1702 :         _Nodeptr _Trynode = _Result._Location._Parent;
; 1703 :         while (!_Trynode->_Isnil) {

  00017	80 78 0d 00	 cmp	 BYTE PTR [eax+13], 0
  0001b	75 28		 jne	 SHORT $LN12@Find_lower
; File C:\Program Files (x86)\Microsoft Visual Studio\2019\Community\VC\Tools\MSVC\14.27.29110\include\xstddef

; 127  :         return _Left < _Right;

  0001d	8b 4d 0c	 mov	 ecx, DWORD PTR __Keyval$[ebp]
  00020	56		 push	 esi
  00021	8b 31		 mov	 esi, DWORD PTR [ecx]
$LL2@Find_lower:
; File C:\Program Files (x86)\Microsoft Visual Studio\2019\Community\VC\Tools\MSVC\14.27.29110\include\xtree

; 1704 :             _Result._Location._Parent = _Trynode;

  00023	89 02		 mov	 DWORD PTR [edx], eax
; File C:\Program Files (x86)\Microsoft Visual Studio\2019\Community\VC\Tools\MSVC\14.27.29110\include\xstddef

; 127  :         return _Left < _Right;

  00025	39 70 10	 cmp	 DWORD PTR [eax+16], esi
; File C:\Program Files (x86)\Microsoft Visual Studio\2019\Community\VC\Tools\MSVC\14.27.29110\include\xtree

; 1705 :             if (_DEBUG_LT_PRED(_Getcomp(), _Traits::_Kfn(_Trynode->_Myval), _Keyval)) {

  00028	73 07		 jae	 SHORT $LN4@Find_lower

; 1706 :                 _Result._Location._Child = _Tree_child::_Right;
; 1707 :                 _Trynode                 = _Trynode->_Right;

  0002a	8b 40 08	 mov	 eax, DWORD PTR [eax+8]
  0002d	33 c9		 xor	 ecx, ecx

; 1708 :             } else {

  0002f	eb 0a		 jmp	 SHORT $LN5@Find_lower
$LN4@Find_lower:

; 1709 :                 _Result._Location._Child = _Tree_child::_Left;
; 1710 :                 _Result._Bound           = _Trynode;

  00031	89 42 08	 mov	 DWORD PTR [edx+8], eax

; 1711 :                 _Trynode                 = _Trynode->_Left;

  00034	b9 01 00 00 00	 mov	 ecx, 1
  00039	8b 00		 mov	 eax, DWORD PTR [eax]
$LN5@Find_lower:

; 1702 :         _Nodeptr _Trynode = _Result._Location._Parent;
; 1703 :         while (!_Trynode->_Isnil) {

  0003b	89 4a 04	 mov	 DWORD PTR [edx+4], ecx
  0003e	80 78 0d 00	 cmp	 BYTE PTR [eax+13], 0
  00042	74 df		 je	 SHORT $LL2@Find_lower

; 1712 :             }
; 1713 :         }
; 1714 : 
; 1715 :         return _Result;

  00044	5e		 pop	 esi
$LN12@Find_lower:

; 1716 :     }

  00045	8b c2		 mov	 eax, edx
  00047	5d		 pop	 ebp
  00048	c2 08 00	 ret	 8
??$_Find_lower_bound@K@?$_Tree@V?$_Tmap_traits@KPAV?$CRef@VCGraphicThing@@@@U?$less@K@std@@V?$allocator@U?$pair@$$CBKPAV?$CRef@VCGraphicThing@@@@@std@@@3@$0A@@std@@@std@@IBE?AU?$_Tree_find_result@PAU?$_Tree_node@U?$pair@$$CBKPAV?$CRef@VCGraphicThing@@@@@std@@PAX@std@@@1@ABK@Z ENDP ; std::_Tree<std::_Tmap_traits<unsigned long,CRef<CGraphicThing> *,std::less<unsigned long>,std::allocator<std::pair<unsigned long const ,CRef<CGraphicThing> *> >,0> >::_Find_lower_bound<unsigned long>
_TEXT	ENDS
; Function compile flags: /Ogtp
; File C:\Program Files (x86)\Microsoft Visual Studio\2019\Community\VC\Tools\MSVC\14.27.29110\include\xmemory
;	COMDAT ??$_Uninitialized_move@PAPAVCGraphicThingInstance@@V?$allocator@PAVCGraphicThingInstance@@@std@@@std@@YAPAPAVCGraphicThingInstance@@QAPAV1@0PAPAV1@AAV?$allocator@PAVCGraphicThingInstance@@@0@@Z
_TEXT	SEGMENT
__First$ = 8						; size = 4
__Last$ = 12						; size = 4
__Dest$ = 16						; size = 4
__Al$ = 20						; size = 4
??$_Uninitialized_move@PAPAVCGraphicThingInstance@@V?$allocator@PAVCGraphicThingInstance@@@std@@@std@@YAPAPAVCGraphicThingInstance@@QAPAV1@0PAPAV1@AAV?$allocator@PAVCGraphicThingInstance@@@0@@Z PROC ; std::_Uninitialized_move<CGraphicThingInstance * *,std::allocator<CGraphicThingInstance *> >, COMDAT

; 1647 :     const _InIt _First, const _InIt _Last, _Alloc_ptr_t<_Alloc> _Dest, _Alloc& _Al) {

  00000	55		 push	 ebp
  00001	8b ec		 mov	 ebp, esp
  00003	53		 push	 ebx

; 1648 :     // move [_First, _Last) to raw _Dest, using _Al
; 1649 :     // note: only called internally from elsewhere in the STL
; 1650 :     using _Ptrval     = typename _Alloc::value_type*;
; 1651 :     auto _UFirst      = _Get_unwrapped(_First);
; 1652 :     const auto _ULast = _Get_unwrapped(_Last);
; 1653 :     if constexpr (conjunction_v<bool_constant<_Ptr_move_cat<decltype(_UFirst), _Ptrval>::_Really_trivial>,
; 1654 :                       _Uses_default_construct<_Alloc, _Ptrval, decltype(_STD move(*_UFirst))>>) {
; 1655 :         _Copy_memmove(_UFirst, _ULast, _Unfancy(_Dest));

  00004	8b 5d 10	 mov	 ebx, DWORD PTR __Dest$[ebp]
  00007	57		 push	 edi
  00008	8b 7d 0c	 mov	 edi, DWORD PTR __Last$[ebp]
  0000b	53		 push	 ebx
  0000c	57		 push	 edi
  0000d	ff 75 08	 push	 DWORD PTR __First$[ebp]
  00010	e8 00 00 00 00	 call	 ??$_Copy_memmove@PAPAVCGraphicThingInstance@@PAPAV1@@std@@YAPAPAVCGraphicThingInstance@@PAPAV1@00@Z ; std::_Copy_memmove<CGraphicThingInstance * *,CGraphicThingInstance * *>

; 1656 :         return _Dest + (_ULast - _UFirst);

  00015	2b 7d 08	 sub	 edi, DWORD PTR __First$[ebp]
  00018	83 c4 0c	 add	 esp, 12			; 0000000cH
  0001b	c1 ff 02	 sar	 edi, 2
  0001e	8d 04 bb	 lea	 eax, DWORD PTR [ebx+edi*4]
  00021	5f		 pop	 edi
  00022	5b		 pop	 ebx

; 1657 :     } else {
; 1658 :         _Uninitialized_backout_al<_Alloc> _Backout{_Dest, _Al};
; 1659 :         for (; _UFirst != _ULast; ++_UFirst) {
; 1660 :             _Backout._Emplace_back(_STD move(*_UFirst));
; 1661 :         }
; 1662 : 
; 1663 :         return _Backout._Release();
; 1664 :     }
; 1665 : }

  00023	5d		 pop	 ebp
  00024	c3		 ret	 0
??$_Uninitialized_move@PAPAVCGraphicThingInstance@@V?$allocator@PAVCGraphicThingInstance@@@std@@@std@@YAPAPAVCGraphicThingInstance@@QAPAV1@0PAPAV1@AAV?$allocator@PAVCGraphicThingInstance@@@0@@Z ENDP ; std::_Uninitialized_move<CGraphicThingInstance * *,std::allocator<CGraphicThingInstance *> >
_TEXT	ENDS
; Function compile flags: /Ogtp
; File C:\Program Files (x86)\Microsoft Visual Studio\2019\Community\VC\Tools\MSVC\14.27.29110\include\xmemory
;	COMDAT ??$_Allocate@$07U_Default_allocate_traits@std@@$0A@@std@@YAPAXI@Z
_TEXT	SEGMENT
__Bytes$ = 8						; size = 4
??$_Allocate@$07U_Default_allocate_traits@std@@$0A@@std@@YAPAXI@Z PROC ; std::_Allocate<8,std::_Default_allocate_traits,0>, COMDAT

; 197  : __declspec(allocator) void* _Allocate(const size_t _Bytes) {

  00000	55		 push	 ebp
  00001	8b ec		 mov	 ebp, esp

; 198  :     // allocate _Bytes when !_HAS_ALIGNED_NEW || _Align <= __STDCPP_DEFAULT_NEW_ALIGNMENT__
; 199  : #if defined(_M_IX86) || defined(_M_X64)
; 200  :     if (_Bytes >= _Big_allocation_threshold) { // boost the alignment of big allocations to help autovectorization

  00003	8b 45 08	 mov	 eax, DWORD PTR __Bytes$[ebp]
  00006	3d 00 10 00 00	 cmp	 eax, 4096		; 00001000H
  0000b	72 09		 jb	 SHORT $LN2@Allocate

; 201  :         return _Allocate_manually_vector_aligned<_Traits>(_Bytes);

  0000d	89 45 08	 mov	 DWORD PTR __Bytes$[ebp], eax

; 210  : }

  00010	5d		 pop	 ebp

; 201  :         return _Allocate_manually_vector_aligned<_Traits>(_Bytes);

  00011	e9 00 00 00 00	 jmp	 ??$_Allocate_manually_vector_aligned@U_Default_allocate_traits@std@@@std@@YAPAXI@Z ; std::_Allocate_manually_vector_aligned<std::_Default_allocate_traits>
$LN2@Allocate:

; 202  :     }
; 203  : #endif // defined(_M_IX86) || defined(_M_X64)
; 204  : 
; 205  :     if (_Bytes != 0) {

  00016	85 c0		 test	 eax, eax
  00018	74 09		 je	 SHORT $LN3@Allocate

; 77   :         return ::operator new(_Bytes);

  0001a	89 45 08	 mov	 DWORD PTR __Bytes$[ebp], eax

; 210  : }

  0001d	5d		 pop	 ebp

; 77   :         return ::operator new(_Bytes);

  0001e	e9 00 00 00 00	 jmp	 ??2@YAPAXI@Z		; operator new
$LN3@Allocate:

; 206  :         return _Traits::_Allocate(_Bytes);
; 207  :     }
; 208  : 
; 209  :     return nullptr;

  00023	33 c0		 xor	 eax, eax

; 210  : }

  00025	5d		 pop	 ebp
  00026	c3		 ret	 0
??$_Allocate@$07U_Default_allocate_traits@std@@$0A@@std@@YAPAXI@Z ENDP ; std::_Allocate<8,std::_Default_allocate_traits,0>
_TEXT	ENDS
; Function compile flags: /Ogtp
; File C:\Program Files (x86)\Microsoft Visual Studio\2019\Community\VC\Tools\MSVC\14.27.29110\include\xmemory
;	COMDAT ??$_Destroy_range@V?$allocator@PAVCGrannyLODController@@@std@@@std@@YAXPAPAVCGrannyLODController@@QAPAV1@AAV?$allocator@PAVCGrannyLODController@@@0@@Z
_TEXT	SEGMENT
__First$ = 8						; size = 4
__Last$ = 12						; size = 4
__Al$ = 16						; size = 4
??$_Destroy_range@V?$allocator@PAVCGrannyLODController@@@std@@@std@@YAXPAPAVCGrannyLODController@@QAPAV1@AAV?$allocator@PAVCGrannyLODController@@@0@@Z PROC ; std::_Destroy_range<std::allocator<CGrannyLODController *> >, COMDAT

; 956  :     // note that this is an optimization for debug mode codegen; in release mode the BE removes all of this
; 957  :     using _Ty = typename _Alloc::value_type;
; 958  :     if _CONSTEXPR_IF (!conjunction_v<is_trivially_destructible<_Ty>, _Uses_default_destroy<_Alloc, _Ty*>>) {
; 959  :         for (; _First != _Last; ++_First) {
; 960  :             allocator_traits<_Alloc>::destroy(_Al, _Unfancy(_First));
; 961  :         }
; 962  :     }
; 963  : }

  00000	c2 00 00	 ret	 0
??$_Destroy_range@V?$allocator@PAVCGrannyLODController@@@std@@@std@@YAXPAPAVCGrannyLODController@@QAPAV1@AAV?$allocator@PAVCGrannyLODController@@@0@@Z ENDP ; std::_Destroy_range<std::allocator<CGrannyLODController *> >
_TEXT	ENDS
; Function compile flags: /Ogtp
; File C:\Program Files (x86)\Microsoft Visual Studio\2019\Community\VC\Tools\MSVC\14.27.29110\include\xmemory
;	COMDAT ??$_Deallocate@$07$0A@@std@@YAXPAXI@Z
_TEXT	SEGMENT
__Ptr$ = 8						; size = 4
__Bytes$ = 12						; size = 4
??$_Deallocate@$07$0A@@std@@YAXPAXI@Z PROC		; std::_Deallocate<8,0>, COMDAT

; 213  : void _Deallocate(void* _Ptr, size_t _Bytes) noexcept {

  00000	55		 push	 ebp
  00001	8b ec		 mov	 ebp, esp

; 214  :     // deallocate storage allocated by _Allocate when !_HAS_ALIGNED_NEW || _Align <= __STDCPP_DEFAULT_NEW_ALIGNMENT__
; 215  : #if defined(_M_IX86) || defined(_M_X64)
; 216  :     if (_Bytes >= _Big_allocation_threshold) { // boost the alignment of big allocations to help autovectorization

  00003	8b 4d 0c	 mov	 ecx, DWORD PTR __Bytes$[ebp]
  00006	81 f9 00 10 00
	00		 cmp	 ecx, 4096		; 00001000H
  0000c	72 18		 jb	 SHORT $LN15@Deallocate

; 137  :     const uintptr_t _Ptr_container   = _Ptr_user[-1];

  0000e	8b 45 08	 mov	 eax, DWORD PTR __Ptr$[ebp]
  00011	83 c1 23	 add	 ecx, 35			; 00000023H
  00014	8b 50 fc	 mov	 edx, DWORD PTR [eax-4]

; 138  : 
; 139  :     // If the following asserts, it likely means that we are performing
; 140  :     // an aligned delete on memory coming from an unaligned allocation.
; 141  :     _STL_ASSERT(_Ptr_user[-2] == _Big_allocation_sentinel, "invalid argument");
; 142  : 
; 143  :     // Extra paranoia on aligned allocation/deallocation; ensure _Ptr_container is
; 144  :     // in range [_Min_back_shift, _Non_user_size]
; 145  : #ifdef _DEBUG
; 146  :     constexpr uintptr_t _Min_back_shift = 2 * sizeof(void*);
; 147  : #else // ^^^ _DEBUG ^^^ // vvv !_DEBUG vvv
; 148  :     constexpr uintptr_t _Min_back_shift = sizeof(void*);
; 149  : #endif // _DEBUG
; 150  :     const uintptr_t _Back_shift = reinterpret_cast<uintptr_t>(_Ptr) - _Ptr_container;

  00017	2b c2		 sub	 eax, edx

; 151  :     _STL_VERIFY(_Back_shift >= _Min_back_shift && _Back_shift <= _Non_user_size, "invalid argument");

  00019	83 c0 fc	 add	 eax, -4			; fffffffcH
  0001c	83 f8 1f	 cmp	 eax, 31			; 0000001fH
  0001f	76 08		 jbe	 SHORT $LN13@Deallocate
  00021	e9 00 00 00 00	 jmp	 __invalid_parameter_noinfo_noreturn
$LN15@Deallocate:

; 214  :     // deallocate storage allocated by _Allocate when !_HAS_ALIGNED_NEW || _Align <= __STDCPP_DEFAULT_NEW_ALIGNMENT__
; 215  : #if defined(_M_IX86) || defined(_M_X64)
; 216  :     if (_Bytes >= _Big_allocation_threshold) { // boost the alignment of big allocations to help autovectorization

  00026	8b 55 08	 mov	 edx, DWORD PTR __Ptr$[ebp]
$LN13@Deallocate:

; 217  :         _Adjust_manually_vector_aligned(_Ptr, _Bytes);
; 218  :     }
; 219  : #endif // defined(_M_IX86) || defined(_M_X64)
; 220  : 
; 221  :     ::operator delete(_Ptr, _Bytes);

  00029	89 4d 0c	 mov	 DWORD PTR __Bytes$[ebp], ecx
  0002c	89 55 08	 mov	 DWORD PTR __Ptr$[ebp], edx

; 222  : }

  0002f	5d		 pop	 ebp

; 217  :         _Adjust_manually_vector_aligned(_Ptr, _Bytes);
; 218  :     }
; 219  : #endif // defined(_M_IX86) || defined(_M_X64)
; 220  : 
; 221  :     ::operator delete(_Ptr, _Bytes);

  00030	e9 00 00 00 00	 jmp	 ??3@YAXPAXI@Z		; operator delete
??$_Deallocate@$07$0A@@std@@YAXPAXI@Z ENDP		; std::_Deallocate<8,0>
_TEXT	ENDS
; Function compile flags: /Ogtp
; File C:\Program Files (x86)\Microsoft Visual Studio\2019\Community\VC\Tools\MSVC\14.27.29110\include\xmemory
; File C:\Program Files (x86)\Microsoft Visual Studio\2019\Community\VC\Tools\MSVC\14.27.29110\include\vector
; File C:\Program Files (x86)\Microsoft Visual Studio\2019\Community\VC\Tools\MSVC\14.27.29110\include\xmemory
; File C:\Program Files (x86)\Microsoft Visual Studio\2019\Community\VC\Tools\MSVC\14.27.29110\include\vector
; File C:\Program Files (x86)\Microsoft Visual Studio\2019\Community\VC\Tools\MSVC\14.27.29110\include\xmemory
; File C:\Program Files (x86)\Microsoft Visual Studio\2019\Community\VC\Tools\MSVC\14.27.29110\include\vector
; File C:\Program Files (x86)\Microsoft Visual Studio\2019\Community\VC\Tools\MSVC\14.27.29110\include\xmemory
;	COMDAT ??$_Destroy_range@V?$allocator@USModelThingSet@CGraphicThingInstance@@@std@@@std@@YAXPAUSModelThingSet@CGraphicThingInstance@@QAU12@AAV?$allocator@USModelThingSet@CGraphicThingInstance@@@0@@Z
_TEXT	SEGMENT
__First$ = 8						; size = 4
__Last$ = 12						; size = 4
__Al$ = 16						; size = 4
??$_Destroy_range@V?$allocator@USModelThingSet@CGraphicThingInstance@@@std@@@std@@YAXPAUSModelThingSet@CGraphicThingInstance@@QAU12@AAV?$allocator@USModelThingSet@CGraphicThingInstance@@@0@@Z PROC ; std::_Destroy_range<std::allocator<CGraphicThingInstance::SModelThingSet> >, COMDAT

; 955  : void _Destroy_range(_Alloc_ptr_t<_Alloc> _First, const _Alloc_ptr_t<_Alloc> _Last, _Alloc& _Al) noexcept {

  00000	55		 push	 ebp
  00001	8b ec		 mov	 ebp, esp
  00003	56		 push	 esi

; 959  :         for (; _First != _Last; ++_First) {

  00004	8b 75 08	 mov	 esi, DWORD PTR __First$[ebp]
  00007	57		 push	 edi
  00008	8b 7d 0c	 mov	 edi, DWORD PTR __Last$[ebp]
  0000b	3b f7		 cmp	 esi, edi
  0000d	74 34		 je	 SHORT $LN3@Destroy_ra
  0000f	90		 npad	 1
$LL4@Destroy_ra:
; File C:\Program Files (x86)\Microsoft Visual Studio\2019\Community\VC\Tools\MSVC\14.27.29110\include\vector

; 1693 :         if (_Myfirst) { // destroy and deallocate old array

  00010	8b 0e		 mov	 ecx, DWORD PTR [esi]
  00012	85 c9		 test	 ecx, ecx
  00014	74 26		 je	 SHORT $LN17@Destroy_ra

; 1694 :             _Destroy(_Myfirst, _Mylast);
; 1695 :             _Getal().deallocate(_Myfirst, static_cast<size_type>(_Myend - _Myfirst));

  00016	8b 46 08	 mov	 eax, DWORD PTR [esi+8]
  00019	2b c1		 sub	 eax, ecx
; File C:\Program Files (x86)\Microsoft Visual Studio\2019\Community\VC\Tools\MSVC\14.27.29110\include\xmemory

; 803  :         _Deallocate<_New_alignof<_Ty>>(_Ptr, sizeof(_Ty) * _Count);

  0001b	83 e0 fc	 and	 eax, -4			; fffffffcH
  0001e	50		 push	 eax
  0001f	51		 push	 ecx
  00020	e8 00 00 00 00	 call	 ??$_Deallocate@$07$0A@@std@@YAXPAXI@Z ; std::_Deallocate<8,0>
; File C:\Program Files (x86)\Microsoft Visual Studio\2019\Community\VC\Tools\MSVC\14.27.29110\include\vector

; 1697 :             _Myfirst = pointer();

  00025	c7 06 00 00 00
	00		 mov	 DWORD PTR [esi], 0
; File C:\Program Files (x86)\Microsoft Visual Studio\2019\Community\VC\Tools\MSVC\14.27.29110\include\xmemory

; 803  :         _Deallocate<_New_alignof<_Ty>>(_Ptr, sizeof(_Ty) * _Count);

  0002b	83 c4 08	 add	 esp, 8
; File C:\Program Files (x86)\Microsoft Visual Studio\2019\Community\VC\Tools\MSVC\14.27.29110\include\vector

; 1698 :             _Mylast  = pointer();

  0002e	c7 46 04 00 00
	00 00		 mov	 DWORD PTR [esi+4], 0

; 1699 :             _Myend   = pointer();

  00035	c7 46 08 00 00
	00 00		 mov	 DWORD PTR [esi+8], 0
$LN17@Destroy_ra:
; File C:\Program Files (x86)\Microsoft Visual Studio\2019\Community\VC\Tools\MSVC\14.27.29110\include\xmemory

; 959  :         for (; _First != _Last; ++_First) {

  0003c	83 c6 0c	 add	 esi, 12			; 0000000cH
  0003f	3b f7		 cmp	 esi, edi
  00041	75 cd		 jne	 SHORT $LL4@Destroy_ra
$LN3@Destroy_ra:
  00043	5f		 pop	 edi

; 960  :             allocator_traits<_Alloc>::destroy(_Al, _Unfancy(_First));
; 961  :         }
; 962  :     }
; 963  : }

  00044	5e		 pop	 esi
  00045	5d		 pop	 ebp
  00046	c3		 ret	 0
??$_Destroy_range@V?$allocator@USModelThingSet@CGraphicThingInstance@@@std@@@std@@YAXPAUSModelThingSet@CGraphicThingInstance@@QAU12@AAV?$allocator@USModelThingSet@CGraphicThingInstance@@@0@@Z ENDP ; std::_Destroy_range<std::allocator<CGraphicThingInstance::SModelThingSet> >
_TEXT	ENDS
; Function compile flags: /Ogtp
; File C:\Program Files (x86)\Microsoft Visual Studio\2019\Community\VC\Tools\MSVC\14.27.29110\include\xmemory
;	COMDAT ??$_Destroy_range@V?$allocator@PAVCGraphicThingInstance@@@std@@@std@@YAXPAPAVCGraphicThingInstance@@QAPAV1@AAV?$allocator@PAVCGraphicThingInstance@@@0@@Z
_TEXT	SEGMENT
__First$ = 8						; size = 4
__Last$ = 12						; size = 4
__Al$ = 16						; size = 4
??$_Destroy_range@V?$allocator@PAVCGraphicThingInstance@@@std@@@std@@YAXPAPAVCGraphicThingInstance@@QAPAV1@AAV?$allocator@PAVCGraphicThingInstance@@@0@@Z PROC ; std::_Destroy_range<std::allocator<CGraphicThingInstance *> >, COMDAT

; 956  :     // note that this is an optimization for debug mode codegen; in release mode the BE removes all of this
; 957  :     using _Ty = typename _Alloc::value_type;
; 958  :     if _CONSTEXPR_IF (!conjunction_v<is_trivially_destructible<_Ty>, _Uses_default_destroy<_Alloc, _Ty*>>) {
; 959  :         for (; _First != _Last; ++_First) {
; 960  :             allocator_traits<_Alloc>::destroy(_Al, _Unfancy(_First));
; 961  :         }
; 962  :     }
; 963  : }

  00000	c2 00 00	 ret	 0
??$_Destroy_range@V?$allocator@PAVCGraphicThingInstance@@@std@@@std@@YAXPAPAVCGraphicThingInstance@@QAPAV1@AAV?$allocator@PAVCGraphicThingInstance@@@0@@Z ENDP ; std::_Destroy_range<std::allocator<CGraphicThingInstance *> >
_TEXT	ENDS
; Function compile flags: /Ogtp
; File C:\Program Files (x86)\Microsoft Visual Studio\2019\Community\VC\Tools\MSVC\14.27.29110\include\vector
; File C:\Program Files (x86)\Microsoft Visual Studio\2019\Community\VC\Tools\MSVC\14.27.29110\include\xmemory
; File C:\Program Files (x86)\Microsoft Visual Studio\2019\Community\VC\Tools\MSVC\14.27.29110\include\vector
; File C:\Program Files (x86)\Microsoft Visual Studio\2019\Community\VC\Tools\MSVC\14.27.29110\include\xmemory
; File C:\Program Files (x86)\Microsoft Visual Studio\2019\Community\VC\Tools\MSVC\14.27.29110\include\vector
; File C:\Program Files (x86)\Microsoft Visual Studio\2019\Community\VC\Tools\MSVC\14.27.29110\include\xmemory
; File C:\Program Files (x86)\Microsoft Visual Studio\2019\Community\VC\Tools\MSVC\14.27.29110\include\vector
; File C:\Program Files (x86)\Microsoft Visual Studio\2019\Community\VC\Tools\MSVC\14.27.29110\include\xmemory
; File C:\Program Files (x86)\Microsoft Visual Studio\2019\Community\VC\Tools\MSVC\14.27.29110\include\vector
; File C:\Program Files (x86)\Microsoft Visual Studio\2019\Community\VC\Tools\MSVC\14.27.29110\include\xmemory
; File C:\Program Files (x86)\Microsoft Visual Studio\2019\Community\VC\Tools\MSVC\14.27.29110\include\vector
;	COMDAT ??$_Emplace_reallocate@ABQAVCGraphicThingInstance@@@?$vector@PAVCGraphicThingInstance@@V?$allocator@PAVCGraphicThingInstance@@@std@@@std@@QAEPAPAVCGraphicThingInstance@@QAPAV2@ABQAV2@@Z
_TEXT	SEGMENT
tv436 = -12						; size = 4
__Newsize$1$ = -8					; size = 4
tv435 = -4						; size = 4
__Whereptr$ = 8						; size = 4
_<_Val_0>$ = 12						; size = 4
??$_Emplace_reallocate@ABQAVCGraphicThingInstance@@@?$vector@PAVCGraphicThingInstance@@V?$allocator@PAVCGraphicThingInstance@@@std@@@std@@QAEPAPAVCGraphicThingInstance@@QAPAV2@ABQAV2@@Z PROC ; std::vector<CGraphicThingInstance *,std::allocator<CGraphicThingInstance *> >::_Emplace_reallocate<CGraphicThingInstance * const &>, COMDAT
; _this$ = ecx

; 725  :     pointer _Emplace_reallocate(const pointer _Whereptr, _Valty&&... _Val) {

  00000	55		 push	 ebp
  00001	8b ec		 mov	 ebp, esp
  00003	83 ec 0c	 sub	 esp, 12			; 0000000cH
  00006	53		 push	 ebx

; 726  :         // reallocate and insert by perfectly forwarding _Val at _Whereptr
; 727  :         _Alty& _Al        = _Getal();
; 728  :         auto& _My_data    = _Mypair._Myval2;
; 729  :         pointer& _Myfirst = _My_data._Myfirst;
; 730  :         pointer& _Mylast  = _My_data._Mylast;
; 731  : 
; 732  :         _STL_INTERNAL_CHECK(_Mylast == _My_data._Myend); // check that we have no unused capacity
; 733  : 
; 734  :         const auto _Whereoff = static_cast<size_type>(_Whereptr - _Myfirst);

  00007	8b 5d 08	 mov	 ebx, DWORD PTR __Whereptr$[ebp]
  0000a	56		 push	 esi
  0000b	8b f1		 mov	 esi, ecx
  0000d	57		 push	 edi
  0000e	8b 16		 mov	 edx, DWORD PTR [esi]
  00010	2b da		 sub	 ebx, edx

; 735  :         const auto _Oldsize  = static_cast<size_type>(_Mylast - _Myfirst);

  00012	8b 46 04	 mov	 eax, DWORD PTR [esi+4]
  00015	2b c2		 sub	 eax, edx
  00017	c1 fb 02	 sar	 ebx, 2
  0001a	c1 f8 02	 sar	 eax, 2

; 736  : 
; 737  :         if (_Oldsize == max_size()) {

  0001d	3d ff ff ff 3f	 cmp	 eax, 1073741823		; 3fffffffH
  00022	0f 84 be 00 00
	00		 je	 $LN39@Emplace_re

; 1494 :         return static_cast<size_type>(_My_data._Myend - _My_data._Myfirst);

  00028	8b 4e 08	 mov	 ecx, DWORD PTR [esi+8]

; 739  :         }
; 740  : 
; 741  :         const size_type _Newsize     = _Oldsize + 1;

  0002b	8d 78 01	 lea	 edi, DWORD PTR [eax+1]

; 1494 :         return static_cast<size_type>(_My_data._Myend - _My_data._Myfirst);

  0002e	2b ca		 sub	 ecx, edx

; 739  :         }
; 740  : 
; 741  :         const size_type _Newsize     = _Oldsize + 1;

  00030	89 7d f8	 mov	 DWORD PTR __Newsize$1$[ebp], edi

; 1494 :         return static_cast<size_type>(_My_data._Myend - _My_data._Myfirst);

  00033	c1 f9 02	 sar	 ecx, 2

; 1619 :         if (_Oldcapacity > max_size() - _Oldcapacity / 2) {

  00036	b8 ff ff ff 3f	 mov	 eax, 1073741823		; 3fffffffH
  0003b	8b d1		 mov	 edx, ecx
  0003d	d1 ea		 shr	 edx, 1
  0003f	2b c2		 sub	 eax, edx
  00041	3b c8		 cmp	 ecx, eax
  00043	76 04		 jbe	 SHORT $LN12@Emplace_re

; 1620 :             return _Newsize; // geometric growth would overflow

  00045	8b c7		 mov	 eax, edi
  00047	eb 08		 jmp	 SHORT $LN13@Emplace_re
$LN12@Emplace_re:

; 1621 :         }
; 1622 : 
; 1623 :         const size_type _Geometric = _Oldcapacity + _Oldcapacity / 2;

  00049	8d 04 0a	 lea	 eax, DWORD PTR [edx+ecx]

; 1624 : 
; 1625 :         if (_Geometric < _Newsize) {

  0004c	3b c7		 cmp	 eax, edi
  0004e	0f 42 c7	 cmovb	 eax, edi
$LN13@Emplace_re:
; File C:\Program Files (x86)\Microsoft Visual Studio\2019\Community\VC\Tools\MSVC\14.27.29110\include\xmemory

; 60   :         if (_Count > _Max_possible) {

  00051	3d ff ff ff 3f	 cmp	 eax, 1073741823		; 3fffffffH
  00056	0f 87 8f 00 00
	00		 ja	 $LN40@Emplace_re

; 62   :         }
; 63   :     }
; 64   : 
; 65   :     return _Count * _Ty_size;

  0005c	c1 e0 02	 shl	 eax, 2

; 807  :         return static_cast<_Ty*>(_Allocate<_New_alignof<_Ty>>(_Get_size_of_n<sizeof(_Ty)>(_Count)));

  0005f	50		 push	 eax

; 65   :     return _Count * _Ty_size;

  00060	89 45 f4	 mov	 DWORD PTR tv436[ebp], eax

; 807  :         return static_cast<_Ty*>(_Allocate<_New_alignof<_Ty>>(_Get_size_of_n<sizeof(_Ty)>(_Count)));

  00063	e8 00 00 00 00	 call	 ??$_Allocate@$07U_Default_allocate_traits@std@@$0A@@std@@YAPAXI@Z ; std::_Allocate<8,std::_Default_allocate_traits,0>
; File C:\Program Files (x86)\Microsoft Visual Studio\2019\Community\VC\Tools\MSVC\14.27.29110\include\vector

; 749  :         _Alty_traits::construct(_Al, _Unfancy(_Newvec + _Whereoff), _STD forward<_Valty>(_Val)...);

  00068	8b 4d 0c	 mov	 ecx, DWORD PTR _<_Val_0>$[ebp]
; File C:\Program Files (x86)\Microsoft Visual Studio\2019\Community\VC\Tools\MSVC\14.27.29110\include\xmemory

; 807  :         return static_cast<_Ty*>(_Allocate<_New_alignof<_Ty>>(_Get_size_of_n<sizeof(_Ty)>(_Count)));

  0006b	8b f8		 mov	 edi, eax
; File C:\Program Files (x86)\Microsoft Visual Studio\2019\Community\VC\Tools\MSVC\14.27.29110\include\vector

; 749  :         _Alty_traits::construct(_Al, _Unfancy(_Newvec + _Whereoff), _STD forward<_Valty>(_Val)...);

  0006d	8d 04 9f	 lea	 eax, DWORD PTR [edi+ebx*4]
; File C:\Program Files (x86)\Microsoft Visual Studio\2019\Community\VC\Tools\MSVC\14.27.29110\include\xmemory

; 807  :         return static_cast<_Ty*>(_Allocate<_New_alignof<_Ty>>(_Get_size_of_n<sizeof(_Ty)>(_Count)));

  00070	83 c4 04	 add	 esp, 4
; File C:\Program Files (x86)\Microsoft Visual Studio\2019\Community\VC\Tools\MSVC\14.27.29110\include\vector

; 752  :         if (_Whereptr == _Mylast) { // at back, provide strong guarantee

  00073	8b 5d 08	 mov	 ebx, DWORD PTR __Whereptr$[ebp]
  00076	89 45 fc	 mov	 DWORD PTR tv435[ebp], eax
  00079	8b 09		 mov	 ecx, DWORD PTR [ecx]
  0007b	89 08		 mov	 DWORD PTR [eax], ecx
  0007d	8b 56 04	 mov	 edx, DWORD PTR [esi+4]
  00080	8b 0e		 mov	 ecx, DWORD PTR [esi]
  00082	3b da		 cmp	 ebx, edx
  00084	75 07		 jne	 SHORT $LN4@Emplace_re

; 753  :             _Umove_if_noexcept(_Myfirst, _Mylast, _Newvec);
; 754  :         } else { // provide basic guarantee

  00086	8b 5d fc	 mov	 ebx, DWORD PTR tv435[ebp]

; 1597 :         _Uninitialized_move(_First, _Last, _Dest, _Getal());

  00089	8b c7		 mov	 eax, edi

; 753  :             _Umove_if_noexcept(_Myfirst, _Mylast, _Newvec);
; 754  :         } else { // provide basic guarantee

  0008b	eb 17		 jmp	 SHORT $LN5@Emplace_re
$LN4@Emplace_re:

; 1592 :         return _Uninitialized_move(_First, _Last, _Dest, _Getal());

  0008d	56		 push	 esi
  0008e	57		 push	 edi
  0008f	53		 push	 ebx
  00090	51		 push	 ecx
  00091	e8 00 00 00 00	 call	 ??$_Uninitialized_move@PAPAVCGraphicThingInstance@@V?$allocator@PAVCGraphicThingInstance@@@std@@@std@@YAPAPAVCGraphicThingInstance@@QAPAV1@0PAPAV1@AAV?$allocator@PAVCGraphicThingInstance@@@0@@Z ; std::_Uninitialized_move<CGraphicThingInstance * *,std::allocator<CGraphicThingInstance *> >
  00096	8b 56 04	 mov	 edx, DWORD PTR [esi+4]
  00099	8b cb		 mov	 ecx, ebx

; 755  :             _Umove(_Myfirst, _Whereptr, _Newvec);
; 756  :             _Constructed_first = _Newvec;
; 757  :             _Umove(_Whereptr, _Mylast, _Newvec + _Whereoff + 1);

  0009b	8b 5d fc	 mov	 ebx, DWORD PTR tv435[ebp]

; 1592 :         return _Uninitialized_move(_First, _Last, _Dest, _Getal());

  0009e	83 c4 10	 add	 esp, 16			; 00000010H

; 755  :             _Umove(_Myfirst, _Whereptr, _Newvec);
; 756  :             _Constructed_first = _Newvec;
; 757  :             _Umove(_Whereptr, _Mylast, _Newvec + _Whereoff + 1);

  000a1	8d 43 04	 lea	 eax, DWORD PTR [ebx+4]
$LN5@Emplace_re:
  000a4	56		 push	 esi
  000a5	50		 push	 eax
  000a6	52		 push	 edx
  000a7	51		 push	 ecx
  000a8	e8 00 00 00 00	 call	 ??$_Uninitialized_move@PAPAVCGraphicThingInstance@@V?$allocator@PAVCGraphicThingInstance@@@std@@@std@@YAPAPAVCGraphicThingInstance@@QAPAV1@0PAPAV1@AAV?$allocator@PAVCGraphicThingInstance@@@0@@Z ; std::_Uninitialized_move<CGraphicThingInstance * *,std::allocator<CGraphicThingInstance *> >

; 1675 :         if (_Myfirst) { // destroy and deallocate old array

  000ad	8b 0e		 mov	 ecx, DWORD PTR [esi]

; 755  :             _Umove(_Myfirst, _Whereptr, _Newvec);
; 756  :             _Constructed_first = _Newvec;
; 757  :             _Umove(_Whereptr, _Mylast, _Newvec + _Whereoff + 1);

  000af	83 c4 10	 add	 esp, 16			; 00000010H

; 1675 :         if (_Myfirst) { // destroy and deallocate old array

  000b2	85 c9		 test	 ecx, ecx
  000b4	74 12		 je	 SHORT $LN33@Emplace_re

; 1676 :             _Destroy(_Myfirst, _Mylast);
; 1677 :             _Getal().deallocate(_Myfirst, static_cast<size_type>(_Myend - _Myfirst));

  000b6	8b 46 08	 mov	 eax, DWORD PTR [esi+8]
  000b9	2b c1		 sub	 eax, ecx
; File C:\Program Files (x86)\Microsoft Visual Studio\2019\Community\VC\Tools\MSVC\14.27.29110\include\xmemory

; 803  :         _Deallocate<_New_alignof<_Ty>>(_Ptr, sizeof(_Ty) * _Count);

  000bb	83 e0 fc	 and	 eax, -4			; fffffffcH
  000be	50		 push	 eax
  000bf	51		 push	 ecx
  000c0	e8 00 00 00 00	 call	 ??$_Deallocate@$07$0A@@std@@YAXPAXI@Z ; std::_Deallocate<8,0>
  000c5	83 c4 08	 add	 esp, 8
$LN33@Emplace_re:
; File C:\Program Files (x86)\Microsoft Visual Studio\2019\Community\VC\Tools\MSVC\14.27.29110\include\vector

; 1681 :         _Mylast  = _Newvec + _Newsize;

  000c8	8b 4d f8	 mov	 ecx, DWORD PTR __Newsize$1$[ebp]

; 758  :         }
; 759  :         _CATCH_ALL
; 760  :         _Destroy(_Constructed_first, _Constructed_last);
; 761  :         _Al.deallocate(_Newvec, _Newcapacity);
; 762  :         _RERAISE;
; 763  :         _CATCH_END
; 764  : 
; 765  :         _Change_array(_Newvec, _Newsize, _Newcapacity);
; 766  :         return _Newvec + _Whereoff;

  000cb	8b c3		 mov	 eax, ebx

; 1680 :         _Myfirst = _Newvec;

  000cd	89 3e		 mov	 DWORD PTR [esi], edi

; 1681 :         _Mylast  = _Newvec + _Newsize;

  000cf	8d 0c 8f	 lea	 ecx, DWORD PTR [edi+ecx*4]
  000d2	89 4e 04	 mov	 DWORD PTR [esi+4], ecx

; 1682 :         _Myend   = _Newvec + _Newcapacity;

  000d5	8b 4d f4	 mov	 ecx, DWORD PTR tv436[ebp]
  000d8	03 cf		 add	 ecx, edi

; 758  :         }
; 759  :         _CATCH_ALL
; 760  :         _Destroy(_Constructed_first, _Constructed_last);
; 761  :         _Al.deallocate(_Newvec, _Newcapacity);
; 762  :         _RERAISE;
; 763  :         _CATCH_END
; 764  : 
; 765  :         _Change_array(_Newvec, _Newsize, _Newcapacity);
; 766  :         return _Newvec + _Whereoff;

  000da	5f		 pop	 edi

; 1682 :         _Myend   = _Newvec + _Newcapacity;

  000db	89 4e 08	 mov	 DWORD PTR [esi+8], ecx

; 758  :         }
; 759  :         _CATCH_ALL
; 760  :         _Destroy(_Constructed_first, _Constructed_last);
; 761  :         _Al.deallocate(_Newvec, _Newcapacity);
; 762  :         _RERAISE;
; 763  :         _CATCH_END
; 764  : 
; 765  :         _Change_array(_Newvec, _Newsize, _Newcapacity);
; 766  :         return _Newvec + _Whereoff;

  000de	5e		 pop	 esi
  000df	5b		 pop	 ebx

; 767  :     }

  000e0	8b e5		 mov	 esp, ebp
  000e2	5d		 pop	 ebp
  000e3	c2 08 00	 ret	 8
$LN39@Emplace_re:

; 738  :             _Xlength();

  000e6	e8 00 00 00 00	 call	 ?_Xlength@?$vector@PAVCGraphicThingInstance@@V?$allocator@PAVCGraphicThingInstance@@@std@@@std@@CAXXZ ; std::vector<CGraphicThingInstance *,std::allocator<CGraphicThingInstance *> >::_Xlength
$LN40@Emplace_re:
; File C:\Program Files (x86)\Microsoft Visual Studio\2019\Community\VC\Tools\MSVC\14.27.29110\include\xmemory

; 61   :             _Throw_bad_array_new_length(); // multiply overflow

  000eb	e8 00 00 00 00	 call	 ?_Throw_bad_array_new_length@std@@YAXXZ ; std::_Throw_bad_array_new_length
$LN37@Emplace_re:
  000f0	cc		 int	 3
??$_Emplace_reallocate@ABQAVCGraphicThingInstance@@@?$vector@PAVCGraphicThingInstance@@V?$allocator@PAVCGraphicThingInstance@@@std@@@std@@QAEPAPAVCGraphicThingInstance@@QAPAV2@ABQAV2@@Z ENDP ; std::vector<CGraphicThingInstance *,std::allocator<CGraphicThingInstance *> >::_Emplace_reallocate<CGraphicThingInstance * const &>
_TEXT	ENDS
; Function compile flags: /Ogtp
; File C:\Program Files (x86)\Microsoft Visual Studio\2019\Community\VC\Tools\MSVC\14.27.29110\include\vector
; File C:\Program Files (x86)\Microsoft Visual Studio\2019\Community\VC\Tools\MSVC\14.27.29110\include\xmemory
; File C:\Program Files (x86)\Microsoft Visual Studio\2019\Community\VC\Tools\MSVC\14.27.29110\include\vector
; File C:\Program Files (x86)\Microsoft Visual Studio\2019\Community\VC\Tools\MSVC\14.27.29110\include\xmemory
; File C:\Program Files (x86)\Microsoft Visual Studio\2019\Community\VC\Tools\MSVC\14.27.29110\include\vector
; File C:\Program Files (x86)\Microsoft Visual Studio\2019\Community\VC\Tools\MSVC\14.27.29110\include\xmemory
; File C:\Program Files (x86)\Microsoft Visual Studio\2019\Community\VC\Tools\MSVC\14.27.29110\include\vector
; File C:\Program Files (x86)\Microsoft Visual Studio\2019\Community\VC\Tools\MSVC\14.27.29110\include\xmemory
; File C:\Program Files (x86)\Microsoft Visual Studio\2019\Community\VC\Tools\MSVC\14.27.29110\include\vector
; File C:\Program Files (x86)\Microsoft Visual Studio\2019\Community\VC\Tools\MSVC\14.27.29110\include\xmemory
; File C:\Program Files (x86)\Microsoft Visual Studio\2019\Community\VC\Tools\MSVC\14.27.29110\include\vector
;	COMDAT ??$_Emplace_reallocate@ABQAV?$CRef@VCGraphicThing@@@@@?$vector@PAV?$CRef@VCGraphicThing@@@@V?$allocator@PAV?$CRef@VCGraphicThing@@@@@std@@@std@@QAEPAPAV?$CRef@VCGraphicThing@@@@QAPAV2@ABQAV2@@Z
_TEXT	SEGMENT
tv436 = -12						; size = 4
__Newsize$1$ = -8					; size = 4
tv435 = -4						; size = 4
__Whereptr$ = 8						; size = 4
_<_Val_0>$ = 12						; size = 4
??$_Emplace_reallocate@ABQAV?$CRef@VCGraphicThing@@@@@?$vector@PAV?$CRef@VCGraphicThing@@@@V?$allocator@PAV?$CRef@VCGraphicThing@@@@@std@@@std@@QAEPAPAV?$CRef@VCGraphicThing@@@@QAPAV2@ABQAV2@@Z PROC ; std::vector<CRef<CGraphicThing> *,std::allocator<CRef<CGraphicThing> *> >::_Emplace_reallocate<CRef<CGraphicThing> * const &>, COMDAT
; _this$ = ecx

; 725  :     pointer _Emplace_reallocate(const pointer _Whereptr, _Valty&&... _Val) {

  00000	55		 push	 ebp
  00001	8b ec		 mov	 ebp, esp
  00003	83 ec 0c	 sub	 esp, 12			; 0000000cH
  00006	53		 push	 ebx

; 726  :         // reallocate and insert by perfectly forwarding _Val at _Whereptr
; 727  :         _Alty& _Al        = _Getal();
; 728  :         auto& _My_data    = _Mypair._Myval2;
; 729  :         pointer& _Myfirst = _My_data._Myfirst;
; 730  :         pointer& _Mylast  = _My_data._Mylast;
; 731  : 
; 732  :         _STL_INTERNAL_CHECK(_Mylast == _My_data._Myend); // check that we have no unused capacity
; 733  : 
; 734  :         const auto _Whereoff = static_cast<size_type>(_Whereptr - _Myfirst);

  00007	8b 5d 08	 mov	 ebx, DWORD PTR __Whereptr$[ebp]
  0000a	56		 push	 esi
  0000b	8b f1		 mov	 esi, ecx
  0000d	57		 push	 edi
  0000e	8b 16		 mov	 edx, DWORD PTR [esi]
  00010	2b da		 sub	 ebx, edx

; 735  :         const auto _Oldsize  = static_cast<size_type>(_Mylast - _Myfirst);

  00012	8b 46 04	 mov	 eax, DWORD PTR [esi+4]
  00015	2b c2		 sub	 eax, edx
  00017	c1 fb 02	 sar	 ebx, 2
  0001a	c1 f8 02	 sar	 eax, 2

; 736  : 
; 737  :         if (_Oldsize == max_size()) {

  0001d	3d ff ff ff 3f	 cmp	 eax, 1073741823		; 3fffffffH
  00022	0f 84 be 00 00
	00		 je	 $LN39@Emplace_re

; 1494 :         return static_cast<size_type>(_My_data._Myend - _My_data._Myfirst);

  00028	8b 4e 08	 mov	 ecx, DWORD PTR [esi+8]

; 739  :         }
; 740  : 
; 741  :         const size_type _Newsize     = _Oldsize + 1;

  0002b	8d 78 01	 lea	 edi, DWORD PTR [eax+1]

; 1494 :         return static_cast<size_type>(_My_data._Myend - _My_data._Myfirst);

  0002e	2b ca		 sub	 ecx, edx

; 739  :         }
; 740  : 
; 741  :         const size_type _Newsize     = _Oldsize + 1;

  00030	89 7d f8	 mov	 DWORD PTR __Newsize$1$[ebp], edi

; 1494 :         return static_cast<size_type>(_My_data._Myend - _My_data._Myfirst);

  00033	c1 f9 02	 sar	 ecx, 2

; 1619 :         if (_Oldcapacity > max_size() - _Oldcapacity / 2) {

  00036	b8 ff ff ff 3f	 mov	 eax, 1073741823		; 3fffffffH
  0003b	8b d1		 mov	 edx, ecx
  0003d	d1 ea		 shr	 edx, 1
  0003f	2b c2		 sub	 eax, edx
  00041	3b c8		 cmp	 ecx, eax
  00043	76 04		 jbe	 SHORT $LN12@Emplace_re

; 1620 :             return _Newsize; // geometric growth would overflow

  00045	8b c7		 mov	 eax, edi
  00047	eb 08		 jmp	 SHORT $LN13@Emplace_re
$LN12@Emplace_re:

; 1621 :         }
; 1622 : 
; 1623 :         const size_type _Geometric = _Oldcapacity + _Oldcapacity / 2;

  00049	8d 04 0a	 lea	 eax, DWORD PTR [edx+ecx]

; 1624 : 
; 1625 :         if (_Geometric < _Newsize) {

  0004c	3b c7		 cmp	 eax, edi
  0004e	0f 42 c7	 cmovb	 eax, edi
$LN13@Emplace_re:
; File C:\Program Files (x86)\Microsoft Visual Studio\2019\Community\VC\Tools\MSVC\14.27.29110\include\xmemory

; 60   :         if (_Count > _Max_possible) {

  00051	3d ff ff ff 3f	 cmp	 eax, 1073741823		; 3fffffffH
  00056	0f 87 8f 00 00
	00		 ja	 $LN40@Emplace_re

; 62   :         }
; 63   :     }
; 64   : 
; 65   :     return _Count * _Ty_size;

  0005c	c1 e0 02	 shl	 eax, 2

; 807  :         return static_cast<_Ty*>(_Allocate<_New_alignof<_Ty>>(_Get_size_of_n<sizeof(_Ty)>(_Count)));

  0005f	50		 push	 eax

; 65   :     return _Count * _Ty_size;

  00060	89 45 f4	 mov	 DWORD PTR tv436[ebp], eax

; 807  :         return static_cast<_Ty*>(_Allocate<_New_alignof<_Ty>>(_Get_size_of_n<sizeof(_Ty)>(_Count)));

  00063	e8 00 00 00 00	 call	 ??$_Allocate@$07U_Default_allocate_traits@std@@$0A@@std@@YAPAXI@Z ; std::_Allocate<8,std::_Default_allocate_traits,0>
; File C:\Program Files (x86)\Microsoft Visual Studio\2019\Community\VC\Tools\MSVC\14.27.29110\include\vector

; 749  :         _Alty_traits::construct(_Al, _Unfancy(_Newvec + _Whereoff), _STD forward<_Valty>(_Val)...);

  00068	8b 4d 0c	 mov	 ecx, DWORD PTR _<_Val_0>$[ebp]
; File C:\Program Files (x86)\Microsoft Visual Studio\2019\Community\VC\Tools\MSVC\14.27.29110\include\xmemory

; 807  :         return static_cast<_Ty*>(_Allocate<_New_alignof<_Ty>>(_Get_size_of_n<sizeof(_Ty)>(_Count)));

  0006b	8b f8		 mov	 edi, eax
; File C:\Program Files (x86)\Microsoft Visual Studio\2019\Community\VC\Tools\MSVC\14.27.29110\include\vector

; 749  :         _Alty_traits::construct(_Al, _Unfancy(_Newvec + _Whereoff), _STD forward<_Valty>(_Val)...);

  0006d	8d 04 9f	 lea	 eax, DWORD PTR [edi+ebx*4]
; File C:\Program Files (x86)\Microsoft Visual Studio\2019\Community\VC\Tools\MSVC\14.27.29110\include\xmemory

; 807  :         return static_cast<_Ty*>(_Allocate<_New_alignof<_Ty>>(_Get_size_of_n<sizeof(_Ty)>(_Count)));

  00070	83 c4 04	 add	 esp, 4
; File C:\Program Files (x86)\Microsoft Visual Studio\2019\Community\VC\Tools\MSVC\14.27.29110\include\vector

; 752  :         if (_Whereptr == _Mylast) { // at back, provide strong guarantee

  00073	8b 5d 08	 mov	 ebx, DWORD PTR __Whereptr$[ebp]
  00076	89 45 fc	 mov	 DWORD PTR tv435[ebp], eax
  00079	8b 09		 mov	 ecx, DWORD PTR [ecx]
  0007b	89 08		 mov	 DWORD PTR [eax], ecx
  0007d	8b 56 04	 mov	 edx, DWORD PTR [esi+4]
  00080	8b 0e		 mov	 ecx, DWORD PTR [esi]
  00082	3b da		 cmp	 ebx, edx
  00084	75 07		 jne	 SHORT $LN4@Emplace_re

; 753  :             _Umove_if_noexcept(_Myfirst, _Mylast, _Newvec);
; 754  :         } else { // provide basic guarantee

  00086	8b 5d fc	 mov	 ebx, DWORD PTR tv435[ebp]

; 1597 :         _Uninitialized_move(_First, _Last, _Dest, _Getal());

  00089	8b c7		 mov	 eax, edi

; 753  :             _Umove_if_noexcept(_Myfirst, _Mylast, _Newvec);
; 754  :         } else { // provide basic guarantee

  0008b	eb 17		 jmp	 SHORT $LN5@Emplace_re
$LN4@Emplace_re:

; 1592 :         return _Uninitialized_move(_First, _Last, _Dest, _Getal());

  0008d	56		 push	 esi
  0008e	57		 push	 edi
  0008f	53		 push	 ebx
  00090	51		 push	 ecx
  00091	e8 00 00 00 00	 call	 ??$_Uninitialized_move@PAPAV?$CRef@VCGraphicThing@@@@V?$allocator@PAV?$CRef@VCGraphicThing@@@@@std@@@std@@YAPAPAV?$CRef@VCGraphicThing@@@@QAPAV1@0PAPAV1@AAV?$allocator@PAV?$CRef@VCGraphicThing@@@@@0@@Z ; std::_Uninitialized_move<CRef<CGraphicThing> * *,std::allocator<CRef<CGraphicThing> *> >
  00096	8b 56 04	 mov	 edx, DWORD PTR [esi+4]
  00099	8b cb		 mov	 ecx, ebx

; 755  :             _Umove(_Myfirst, _Whereptr, _Newvec);
; 756  :             _Constructed_first = _Newvec;
; 757  :             _Umove(_Whereptr, _Mylast, _Newvec + _Whereoff + 1);

  0009b	8b 5d fc	 mov	 ebx, DWORD PTR tv435[ebp]

; 1592 :         return _Uninitialized_move(_First, _Last, _Dest, _Getal());

  0009e	83 c4 10	 add	 esp, 16			; 00000010H

; 755  :             _Umove(_Myfirst, _Whereptr, _Newvec);
; 756  :             _Constructed_first = _Newvec;
; 757  :             _Umove(_Whereptr, _Mylast, _Newvec + _Whereoff + 1);

  000a1	8d 43 04	 lea	 eax, DWORD PTR [ebx+4]
$LN5@Emplace_re:
  000a4	56		 push	 esi
  000a5	50		 push	 eax
  000a6	52		 push	 edx
  000a7	51		 push	 ecx
  000a8	e8 00 00 00 00	 call	 ??$_Uninitialized_move@PAPAV?$CRef@VCGraphicThing@@@@V?$allocator@PAV?$CRef@VCGraphicThing@@@@@std@@@std@@YAPAPAV?$CRef@VCGraphicThing@@@@QAPAV1@0PAPAV1@AAV?$allocator@PAV?$CRef@VCGraphicThing@@@@@0@@Z ; std::_Uninitialized_move<CRef<CGraphicThing> * *,std::allocator<CRef<CGraphicThing> *> >

; 1675 :         if (_Myfirst) { // destroy and deallocate old array

  000ad	8b 0e		 mov	 ecx, DWORD PTR [esi]

; 755  :             _Umove(_Myfirst, _Whereptr, _Newvec);
; 756  :             _Constructed_first = _Newvec;
; 757  :             _Umove(_Whereptr, _Mylast, _Newvec + _Whereoff + 1);

  000af	83 c4 10	 add	 esp, 16			; 00000010H

; 1675 :         if (_Myfirst) { // destroy and deallocate old array

  000b2	85 c9		 test	 ecx, ecx
  000b4	74 12		 je	 SHORT $LN33@Emplace_re

; 1676 :             _Destroy(_Myfirst, _Mylast);
; 1677 :             _Getal().deallocate(_Myfirst, static_cast<size_type>(_Myend - _Myfirst));

  000b6	8b 46 08	 mov	 eax, DWORD PTR [esi+8]
  000b9	2b c1		 sub	 eax, ecx
; File C:\Program Files (x86)\Microsoft Visual Studio\2019\Community\VC\Tools\MSVC\14.27.29110\include\xmemory

; 803  :         _Deallocate<_New_alignof<_Ty>>(_Ptr, sizeof(_Ty) * _Count);

  000bb	83 e0 fc	 and	 eax, -4			; fffffffcH
  000be	50		 push	 eax
  000bf	51		 push	 ecx
  000c0	e8 00 00 00 00	 call	 ??$_Deallocate@$07$0A@@std@@YAXPAXI@Z ; std::_Deallocate<8,0>
  000c5	83 c4 08	 add	 esp, 8
$LN33@Emplace_re:
; File C:\Program Files (x86)\Microsoft Visual Studio\2019\Community\VC\Tools\MSVC\14.27.29110\include\vector

; 1681 :         _Mylast  = _Newvec + _Newsize;

  000c8	8b 4d f8	 mov	 ecx, DWORD PTR __Newsize$1$[ebp]

; 758  :         }
; 759  :         _CATCH_ALL
; 760  :         _Destroy(_Constructed_first, _Constructed_last);
; 761  :         _Al.deallocate(_Newvec, _Newcapacity);
; 762  :         _RERAISE;
; 763  :         _CATCH_END
; 764  : 
; 765  :         _Change_array(_Newvec, _Newsize, _Newcapacity);
; 766  :         return _Newvec + _Whereoff;

  000cb	8b c3		 mov	 eax, ebx

; 1680 :         _Myfirst = _Newvec;

  000cd	89 3e		 mov	 DWORD PTR [esi], edi

; 1681 :         _Mylast  = _Newvec + _Newsize;

  000cf	8d 0c 8f	 lea	 ecx, DWORD PTR [edi+ecx*4]
  000d2	89 4e 04	 mov	 DWORD PTR [esi+4], ecx

; 1682 :         _Myend   = _Newvec + _Newcapacity;

  000d5	8b 4d f4	 mov	 ecx, DWORD PTR tv436[ebp]
  000d8	03 cf		 add	 ecx, edi

; 758  :         }
; 759  :         _CATCH_ALL
; 760  :         _Destroy(_Constructed_first, _Constructed_last);
; 761  :         _Al.deallocate(_Newvec, _Newcapacity);
; 762  :         _RERAISE;
; 763  :         _CATCH_END
; 764  : 
; 765  :         _Change_array(_Newvec, _Newsize, _Newcapacity);
; 766  :         return _Newvec + _Whereoff;

  000da	5f		 pop	 edi

; 1682 :         _Myend   = _Newvec + _Newcapacity;

  000db	89 4e 08	 mov	 DWORD PTR [esi+8], ecx

; 758  :         }
; 759  :         _CATCH_ALL
; 760  :         _Destroy(_Constructed_first, _Constructed_last);
; 761  :         _Al.deallocate(_Newvec, _Newcapacity);
; 762  :         _RERAISE;
; 763  :         _CATCH_END
; 764  : 
; 765  :         _Change_array(_Newvec, _Newsize, _Newcapacity);
; 766  :         return _Newvec + _Whereoff;

  000de	5e		 pop	 esi
  000df	5b		 pop	 ebx

; 767  :     }

  000e0	8b e5		 mov	 esp, ebp
  000e2	5d		 pop	 ebp
  000e3	c2 08 00	 ret	 8
$LN39@Emplace_re:

; 738  :             _Xlength();

  000e6	e8 00 00 00 00	 call	 ?_Xlength@?$vector@PAV?$CRef@VCGraphicThing@@@@V?$allocator@PAV?$CRef@VCGraphicThing@@@@@std@@@std@@CAXXZ ; std::vector<CRef<CGraphicThing> *,std::allocator<CRef<CGraphicThing> *> >::_Xlength
$LN40@Emplace_re:
; File C:\Program Files (x86)\Microsoft Visual Studio\2019\Community\VC\Tools\MSVC\14.27.29110\include\xmemory

; 61   :             _Throw_bad_array_new_length(); // multiply overflow

  000eb	e8 00 00 00 00	 call	 ?_Throw_bad_array_new_length@std@@YAXXZ ; std::_Throw_bad_array_new_length
$LN37@Emplace_re:
  000f0	cc		 int	 3
??$_Emplace_reallocate@ABQAV?$CRef@VCGraphicThing@@@@@?$vector@PAV?$CRef@VCGraphicThing@@@@V?$allocator@PAV?$CRef@VCGraphicThing@@@@@std@@@std@@QAEPAPAV?$CRef@VCGraphicThing@@@@QAPAV2@ABQAV2@@Z ENDP ; std::vector<CRef<CGraphicThing> *,std::allocator<CRef<CGraphicThing> *> >::_Emplace_reallocate<CRef<CGraphicThing> * const &>
_TEXT	ENDS
; Function compile flags: /Ogtp
; File C:\Program Files (x86)\Microsoft Visual Studio\2019\Community\VC\Tools\MSVC\14.27.29110\include\vector
; File C:\Program Files (x86)\Microsoft Visual Studio\2019\Community\VC\Tools\MSVC\14.27.29110\include\xmemory
; File C:\Program Files (x86)\Microsoft Visual Studio\2019\Community\VC\Tools\MSVC\14.27.29110\include\vector
; File C:\Program Files (x86)\Microsoft Visual Studio\2019\Community\VC\Tools\MSVC\14.27.29110\include\xmemory
; File C:\Program Files (x86)\Microsoft Visual Studio\2019\Community\VC\Tools\MSVC\14.27.29110\include\vector
; File C:\Program Files (x86)\Microsoft Visual Studio\2019\Community\VC\Tools\MSVC\14.27.29110\include\xmemory
; File C:\Program Files (x86)\Microsoft Visual Studio\2019\Community\VC\Tools\MSVC\14.27.29110\include\vector
; File C:\Program Files (x86)\Microsoft Visual Studio\2019\Community\VC\Tools\MSVC\14.27.29110\include\xmemory
; File C:\Program Files (x86)\Microsoft Visual Studio\2019\Community\VC\Tools\MSVC\14.27.29110\include\vector
; File C:\Program Files (x86)\Microsoft Visual Studio\2019\Community\VC\Tools\MSVC\14.27.29110\include\xmemory
; File C:\Program Files (x86)\Microsoft Visual Studio\2019\Community\VC\Tools\MSVC\14.27.29110\include\vector
;	COMDAT ??$_Emplace_reallocate@ABQAVCGrannyLODController@@@?$vector@PAVCGrannyLODController@@V?$allocator@PAVCGrannyLODController@@@std@@@std@@QAEPAPAVCGrannyLODController@@QAPAV2@ABQAV2@@Z
_TEXT	SEGMENT
tv436 = -12						; size = 4
__Newsize$1$ = -8					; size = 4
tv435 = -4						; size = 4
__Whereptr$ = 8						; size = 4
_<_Val_0>$ = 12						; size = 4
??$_Emplace_reallocate@ABQAVCGrannyLODController@@@?$vector@PAVCGrannyLODController@@V?$allocator@PAVCGrannyLODController@@@std@@@std@@QAEPAPAVCGrannyLODController@@QAPAV2@ABQAV2@@Z PROC ; std::vector<CGrannyLODController *,std::allocator<CGrannyLODController *> >::_Emplace_reallocate<CGrannyLODController * const &>, COMDAT
; _this$ = ecx

; 725  :     pointer _Emplace_reallocate(const pointer _Whereptr, _Valty&&... _Val) {

  00000	55		 push	 ebp
  00001	8b ec		 mov	 ebp, esp
  00003	83 ec 0c	 sub	 esp, 12			; 0000000cH
  00006	53		 push	 ebx

; 726  :         // reallocate and insert by perfectly forwarding _Val at _Whereptr
; 727  :         _Alty& _Al        = _Getal();
; 728  :         auto& _My_data    = _Mypair._Myval2;
; 729  :         pointer& _Myfirst = _My_data._Myfirst;
; 730  :         pointer& _Mylast  = _My_data._Mylast;
; 731  : 
; 732  :         _STL_INTERNAL_CHECK(_Mylast == _My_data._Myend); // check that we have no unused capacity
; 733  : 
; 734  :         const auto _Whereoff = static_cast<size_type>(_Whereptr - _Myfirst);

  00007	8b 5d 08	 mov	 ebx, DWORD PTR __Whereptr$[ebp]
  0000a	56		 push	 esi
  0000b	8b f1		 mov	 esi, ecx
  0000d	57		 push	 edi
  0000e	8b 16		 mov	 edx, DWORD PTR [esi]
  00010	2b da		 sub	 ebx, edx

; 735  :         const auto _Oldsize  = static_cast<size_type>(_Mylast - _Myfirst);

  00012	8b 46 04	 mov	 eax, DWORD PTR [esi+4]
  00015	2b c2		 sub	 eax, edx
  00017	c1 fb 02	 sar	 ebx, 2
  0001a	c1 f8 02	 sar	 eax, 2

; 736  : 
; 737  :         if (_Oldsize == max_size()) {

  0001d	3d ff ff ff 3f	 cmp	 eax, 1073741823		; 3fffffffH
  00022	0f 84 be 00 00
	00		 je	 $LN39@Emplace_re

; 1494 :         return static_cast<size_type>(_My_data._Myend - _My_data._Myfirst);

  00028	8b 4e 08	 mov	 ecx, DWORD PTR [esi+8]

; 739  :         }
; 740  : 
; 741  :         const size_type _Newsize     = _Oldsize + 1;

  0002b	8d 78 01	 lea	 edi, DWORD PTR [eax+1]

; 1494 :         return static_cast<size_type>(_My_data._Myend - _My_data._Myfirst);

  0002e	2b ca		 sub	 ecx, edx

; 739  :         }
; 740  : 
; 741  :         const size_type _Newsize     = _Oldsize + 1;

  00030	89 7d f8	 mov	 DWORD PTR __Newsize$1$[ebp], edi

; 1494 :         return static_cast<size_type>(_My_data._Myend - _My_data._Myfirst);

  00033	c1 f9 02	 sar	 ecx, 2

; 1619 :         if (_Oldcapacity > max_size() - _Oldcapacity / 2) {

  00036	b8 ff ff ff 3f	 mov	 eax, 1073741823		; 3fffffffH
  0003b	8b d1		 mov	 edx, ecx
  0003d	d1 ea		 shr	 edx, 1
  0003f	2b c2		 sub	 eax, edx
  00041	3b c8		 cmp	 ecx, eax
  00043	76 04		 jbe	 SHORT $LN12@Emplace_re

; 1620 :             return _Newsize; // geometric growth would overflow

  00045	8b c7		 mov	 eax, edi
  00047	eb 08		 jmp	 SHORT $LN13@Emplace_re
$LN12@Emplace_re:

; 1621 :         }
; 1622 : 
; 1623 :         const size_type _Geometric = _Oldcapacity + _Oldcapacity / 2;

  00049	8d 04 0a	 lea	 eax, DWORD PTR [edx+ecx]

; 1624 : 
; 1625 :         if (_Geometric < _Newsize) {

  0004c	3b c7		 cmp	 eax, edi
  0004e	0f 42 c7	 cmovb	 eax, edi
$LN13@Emplace_re:
; File C:\Program Files (x86)\Microsoft Visual Studio\2019\Community\VC\Tools\MSVC\14.27.29110\include\xmemory

; 60   :         if (_Count > _Max_possible) {

  00051	3d ff ff ff 3f	 cmp	 eax, 1073741823		; 3fffffffH
  00056	0f 87 8f 00 00
	00		 ja	 $LN40@Emplace_re

; 62   :         }
; 63   :     }
; 64   : 
; 65   :     return _Count * _Ty_size;

  0005c	c1 e0 02	 shl	 eax, 2

; 807  :         return static_cast<_Ty*>(_Allocate<_New_alignof<_Ty>>(_Get_size_of_n<sizeof(_Ty)>(_Count)));

  0005f	50		 push	 eax

; 65   :     return _Count * _Ty_size;

  00060	89 45 f4	 mov	 DWORD PTR tv436[ebp], eax

; 807  :         return static_cast<_Ty*>(_Allocate<_New_alignof<_Ty>>(_Get_size_of_n<sizeof(_Ty)>(_Count)));

  00063	e8 00 00 00 00	 call	 ??$_Allocate@$07U_Default_allocate_traits@std@@$0A@@std@@YAPAXI@Z ; std::_Allocate<8,std::_Default_allocate_traits,0>
; File C:\Program Files (x86)\Microsoft Visual Studio\2019\Community\VC\Tools\MSVC\14.27.29110\include\vector

; 749  :         _Alty_traits::construct(_Al, _Unfancy(_Newvec + _Whereoff), _STD forward<_Valty>(_Val)...);

  00068	8b 4d 0c	 mov	 ecx, DWORD PTR _<_Val_0>$[ebp]
; File C:\Program Files (x86)\Microsoft Visual Studio\2019\Community\VC\Tools\MSVC\14.27.29110\include\xmemory

; 807  :         return static_cast<_Ty*>(_Allocate<_New_alignof<_Ty>>(_Get_size_of_n<sizeof(_Ty)>(_Count)));

  0006b	8b f8		 mov	 edi, eax
; File C:\Program Files (x86)\Microsoft Visual Studio\2019\Community\VC\Tools\MSVC\14.27.29110\include\vector

; 749  :         _Alty_traits::construct(_Al, _Unfancy(_Newvec + _Whereoff), _STD forward<_Valty>(_Val)...);

  0006d	8d 04 9f	 lea	 eax, DWORD PTR [edi+ebx*4]
; File C:\Program Files (x86)\Microsoft Visual Studio\2019\Community\VC\Tools\MSVC\14.27.29110\include\xmemory

; 807  :         return static_cast<_Ty*>(_Allocate<_New_alignof<_Ty>>(_Get_size_of_n<sizeof(_Ty)>(_Count)));

  00070	83 c4 04	 add	 esp, 4
; File C:\Program Files (x86)\Microsoft Visual Studio\2019\Community\VC\Tools\MSVC\14.27.29110\include\vector

; 752  :         if (_Whereptr == _Mylast) { // at back, provide strong guarantee

  00073	8b 5d 08	 mov	 ebx, DWORD PTR __Whereptr$[ebp]
  00076	89 45 fc	 mov	 DWORD PTR tv435[ebp], eax
  00079	8b 09		 mov	 ecx, DWORD PTR [ecx]
  0007b	89 08		 mov	 DWORD PTR [eax], ecx
  0007d	8b 56 04	 mov	 edx, DWORD PTR [esi+4]
  00080	8b 0e		 mov	 ecx, DWORD PTR [esi]
  00082	3b da		 cmp	 ebx, edx
  00084	75 07		 jne	 SHORT $LN4@Emplace_re

; 753  :             _Umove_if_noexcept(_Myfirst, _Mylast, _Newvec);
; 754  :         } else { // provide basic guarantee

  00086	8b 5d fc	 mov	 ebx, DWORD PTR tv435[ebp]

; 1597 :         _Uninitialized_move(_First, _Last, _Dest, _Getal());

  00089	8b c7		 mov	 eax, edi

; 753  :             _Umove_if_noexcept(_Myfirst, _Mylast, _Newvec);
; 754  :         } else { // provide basic guarantee

  0008b	eb 17		 jmp	 SHORT $LN5@Emplace_re
$LN4@Emplace_re:

; 1592 :         return _Uninitialized_move(_First, _Last, _Dest, _Getal());

  0008d	56		 push	 esi
  0008e	57		 push	 edi
  0008f	53		 push	 ebx
  00090	51		 push	 ecx
  00091	e8 00 00 00 00	 call	 ??$_Uninitialized_move@PAPAVCGrannyLODController@@V?$allocator@PAVCGrannyLODController@@@std@@@std@@YAPAPAVCGrannyLODController@@QAPAV1@0PAPAV1@AAV?$allocator@PAVCGrannyLODController@@@0@@Z ; std::_Uninitialized_move<CGrannyLODController * *,std::allocator<CGrannyLODController *> >
  00096	8b 56 04	 mov	 edx, DWORD PTR [esi+4]
  00099	8b cb		 mov	 ecx, ebx

; 755  :             _Umove(_Myfirst, _Whereptr, _Newvec);
; 756  :             _Constructed_first = _Newvec;
; 757  :             _Umove(_Whereptr, _Mylast, _Newvec + _Whereoff + 1);

  0009b	8b 5d fc	 mov	 ebx, DWORD PTR tv435[ebp]

; 1592 :         return _Uninitialized_move(_First, _Last, _Dest, _Getal());

  0009e	83 c4 10	 add	 esp, 16			; 00000010H

; 755  :             _Umove(_Myfirst, _Whereptr, _Newvec);
; 756  :             _Constructed_first = _Newvec;
; 757  :             _Umove(_Whereptr, _Mylast, _Newvec + _Whereoff + 1);

  000a1	8d 43 04	 lea	 eax, DWORD PTR [ebx+4]
$LN5@Emplace_re:
  000a4	56		 push	 esi
  000a5	50		 push	 eax
  000a6	52		 push	 edx
  000a7	51		 push	 ecx
  000a8	e8 00 00 00 00	 call	 ??$_Uninitialized_move@PAPAVCGrannyLODController@@V?$allocator@PAVCGrannyLODController@@@std@@@std@@YAPAPAVCGrannyLODController@@QAPAV1@0PAPAV1@AAV?$allocator@PAVCGrannyLODController@@@0@@Z ; std::_Uninitialized_move<CGrannyLODController * *,std::allocator<CGrannyLODController *> >

; 1675 :         if (_Myfirst) { // destroy and deallocate old array

  000ad	8b 0e		 mov	 ecx, DWORD PTR [esi]

; 755  :             _Umove(_Myfirst, _Whereptr, _Newvec);
; 756  :             _Constructed_first = _Newvec;
; 757  :             _Umove(_Whereptr, _Mylast, _Newvec + _Whereoff + 1);

  000af	83 c4 10	 add	 esp, 16			; 00000010H

; 1675 :         if (_Myfirst) { // destroy and deallocate old array

  000b2	85 c9		 test	 ecx, ecx
  000b4	74 12		 je	 SHORT $LN33@Emplace_re

; 1676 :             _Destroy(_Myfirst, _Mylast);
; 1677 :             _Getal().deallocate(_Myfirst, static_cast<size_type>(_Myend - _Myfirst));

  000b6	8b 46 08	 mov	 eax, DWORD PTR [esi+8]
  000b9	2b c1		 sub	 eax, ecx
; File C:\Program Files (x86)\Microsoft Visual Studio\2019\Community\VC\Tools\MSVC\14.27.29110\include\xmemory

; 803  :         _Deallocate<_New_alignof<_Ty>>(_Ptr, sizeof(_Ty) * _Count);

  000bb	83 e0 fc	 and	 eax, -4			; fffffffcH
  000be	50		 push	 eax
  000bf	51		 push	 ecx
  000c0	e8 00 00 00 00	 call	 ??$_Deallocate@$07$0A@@std@@YAXPAXI@Z ; std::_Deallocate<8,0>
  000c5	83 c4 08	 add	 esp, 8
$LN33@Emplace_re:
; File C:\Program Files (x86)\Microsoft Visual Studio\2019\Community\VC\Tools\MSVC\14.27.29110\include\vector

; 1681 :         _Mylast  = _Newvec + _Newsize;

  000c8	8b 4d f8	 mov	 ecx, DWORD PTR __Newsize$1$[ebp]

; 758  :         }
; 759  :         _CATCH_ALL
; 760  :         _Destroy(_Constructed_first, _Constructed_last);
; 761  :         _Al.deallocate(_Newvec, _Newcapacity);
; 762  :         _RERAISE;
; 763  :         _CATCH_END
; 764  : 
; 765  :         _Change_array(_Newvec, _Newsize, _Newcapacity);
; 766  :         return _Newvec + _Whereoff;

  000cb	8b c3		 mov	 eax, ebx

; 1680 :         _Myfirst = _Newvec;

  000cd	89 3e		 mov	 DWORD PTR [esi], edi

; 1681 :         _Mylast  = _Newvec + _Newsize;

  000cf	8d 0c 8f	 lea	 ecx, DWORD PTR [edi+ecx*4]
  000d2	89 4e 04	 mov	 DWORD PTR [esi+4], ecx

; 1682 :         _Myend   = _Newvec + _Newcapacity;

  000d5	8b 4d f4	 mov	 ecx, DWORD PTR tv436[ebp]
  000d8	03 cf		 add	 ecx, edi

; 758  :         }
; 759  :         _CATCH_ALL
; 760  :         _Destroy(_Constructed_first, _Constructed_last);
; 761  :         _Al.deallocate(_Newvec, _Newcapacity);
; 762  :         _RERAISE;
; 763  :         _CATCH_END
; 764  : 
; 765  :         _Change_array(_Newvec, _Newsize, _Newcapacity);
; 766  :         return _Newvec + _Whereoff;

  000da	5f		 pop	 edi

; 1682 :         _Myend   = _Newvec + _Newcapacity;

  000db	89 4e 08	 mov	 DWORD PTR [esi+8], ecx

; 758  :         }
; 759  :         _CATCH_ALL
; 760  :         _Destroy(_Constructed_first, _Constructed_last);
; 761  :         _Al.deallocate(_Newvec, _Newcapacity);
; 762  :         _RERAISE;
; 763  :         _CATCH_END
; 764  : 
; 765  :         _Change_array(_Newvec, _Newsize, _Newcapacity);
; 766  :         return _Newvec + _Whereoff;

  000de	5e		 pop	 esi
  000df	5b		 pop	 ebx

; 767  :     }

  000e0	8b e5		 mov	 esp, ebp
  000e2	5d		 pop	 ebp
  000e3	c2 08 00	 ret	 8
$LN39@Emplace_re:

; 738  :             _Xlength();

  000e6	e8 00 00 00 00	 call	 ?_Xlength@?$vector@PAVCGrannyLODController@@V?$allocator@PAVCGrannyLODController@@@std@@@std@@CAXXZ ; std::vector<CGrannyLODController *,std::allocator<CGrannyLODController *> >::_Xlength
$LN40@Emplace_re:
; File C:\Program Files (x86)\Microsoft Visual Studio\2019\Community\VC\Tools\MSVC\14.27.29110\include\xmemory

; 61   :             _Throw_bad_array_new_length(); // multiply overflow

  000eb	e8 00 00 00 00	 call	 ?_Throw_bad_array_new_length@std@@YAXXZ ; std::_Throw_bad_array_new_length
$LN37@Emplace_re:
  000f0	cc		 int	 3
??$_Emplace_reallocate@ABQAVCGrannyLODController@@@?$vector@PAVCGrannyLODController@@V?$allocator@PAVCGrannyLODController@@@std@@@std@@QAEPAPAVCGrannyLODController@@QAPAV2@ABQAV2@@Z ENDP ; std::vector<CGrannyLODController *,std::allocator<CGrannyLODController *> >::_Emplace_reallocate<CGrannyLODController * const &>
_TEXT	ENDS
; Function compile flags: /Ogtp
; File C:\DS Project\DS Files\Source\ClientSource\Client\eterBase\Stl.h
; File C:\Program Files (x86)\Microsoft Visual Studio\2019\Community\VC\Tools\MSVC\14.27.29110\include\vector
; File C:\DS Project\DS Files\Source\ClientSource\Client\eterBase\Stl.h
; File C:\Program Files (x86)\Microsoft Visual Studio\2019\Community\VC\Tools\MSVC\14.27.29110\include\vector
; File C:\DS Project\DS Files\Source\ClientSource\Client\eterBase\Stl.h
;	COMDAT ??$stl_wipe@V?$vector@PAVCGrannyLODController@@V?$allocator@PAVCGrannyLODController@@@std@@@std@@@@YAXAAV?$vector@PAVCGrannyLODController@@V?$allocator@PAVCGrannyLODController@@@std@@@std@@@Z
_TEXT	SEGMENT
_container$ = 8						; size = 4
??$stl_wipe@V?$vector@PAVCGrannyLODController@@V?$allocator@PAVCGrannyLODController@@@std@@@std@@@@YAXAAV?$vector@PAVCGrannyLODController@@V?$allocator@PAVCGrannyLODController@@@std@@@std@@@Z PROC ; stl_wipe<std::vector<CGrannyLODController *,std::allocator<CGrannyLODController *> > >, COMDAT

; 94   : {

  00000	55		 push	 ebp
  00001	8b ec		 mov	 ebp, esp
  00003	56		 push	 esi
  00004	57		 push	 edi
; File C:\Program Files (x86)\Microsoft Visual Studio\2019\Community\VC\Tools\MSVC\14.27.29110\include\vector

; 42   :     _Vector_const_iterator(_Tptr _Parg, const _Container_base* _Pvector) noexcept : _Ptr(_Parg) {

  00005	8b 7d 08	 mov	 edi, DWORD PTR _container$[ebp]
  00008	8b 37		 mov	 esi, DWORD PTR [edi]
  0000a	3b 77 04	 cmp	 esi, DWORD PTR [edi+4]
; File C:\DS Project\DS Files\Source\ClientSource\Client\eterBase\Stl.h

; 95   : 	for (TContainer::iterator i = container.begin(); i != container.end(); ++i)

  0000d	74 24		 je	 SHORT $LN32@stl_wipe
  0000f	90		 npad	 1
$LL4@stl_wipe:

; 96   : 	{
; 97   : 		delete *i;

  00010	8b 0e		 mov	 ecx, DWORD PTR [esi]
  00012	85 c9		 test	 ecx, ecx
  00014	74 06		 je	 SHORT $LN6@stl_wipe
  00016	8b 01		 mov	 eax, DWORD PTR [ecx]
  00018	6a 01		 push	 1
  0001a	ff 10		 call	 DWORD PTR [eax]
$LN6@stl_wipe:

; 98   : 		*i = NULL;

  0001c	c7 06 00 00 00
	00		 mov	 DWORD PTR [esi], 0
; File C:\Program Files (x86)\Microsoft Visual Studio\2019\Community\VC\Tools\MSVC\14.27.29110\include\vector

; 75   :         ++_Ptr;

  00022	83 c6 04	 add	 esi, 4

; 149  :         return _Ptr == _Right._Ptr;

  00025	3b 77 04	 cmp	 esi, DWORD PTR [edi+4]
; File C:\DS Project\DS Files\Source\ClientSource\Client\eterBase\Stl.h

; 95   : 	for (TContainer::iterator i = container.begin(); i != container.end(); ++i)

  00028	75 e6		 jne	 SHORT $LL4@stl_wipe

; 99   : 	}
; 100  : 
; 101  : 	container.clear();

  0002a	8b 07		 mov	 eax, DWORD PTR [edi]
  0002c	89 47 04	 mov	 DWORD PTR [edi+4], eax
  0002f	5f		 pop	 edi

; 102  : }

  00030	5e		 pop	 esi
  00031	5d		 pop	 ebp
  00032	c3		 ret	 0
$LN32@stl_wipe:

; 99   : 	}
; 100  : 
; 101  : 	container.clear();

  00033	89 77 04	 mov	 DWORD PTR [edi+4], esi
  00036	5f		 pop	 edi

; 102  : }

  00037	5e		 pop	 esi
  00038	5d		 pop	 ebp
  00039	c3		 ret	 0
??$stl_wipe@V?$vector@PAVCGrannyLODController@@V?$allocator@PAVCGrannyLODController@@@std@@@std@@@@YAXAAV?$vector@PAVCGrannyLODController@@V?$allocator@PAVCGrannyLODController@@@std@@@std@@@Z ENDP ; stl_wipe<std::vector<CGrannyLODController *,std::allocator<CGrannyLODController *> > >
_TEXT	ENDS
; Function compile flags: /Ogtp
;	COMDAT ??__F?ms_kPool@CGraphicThingInstance@@2V?$CDynamicPool@VCGraphicThingInstance@@@@A@@YAXXZ
text$yd	SEGMENT
??__F?ms_kPool@CGraphicThingInstance@@2V?$CDynamicPool@VCGraphicThingInstance@@@@A@@YAXXZ PROC ; `dynamic atexit destructor for 'CGraphicThingInstance::ms_kPool'', COMDAT
  00000	b9 00 00 00 00	 mov	 ecx, OFFSET ?ms_kPool@CGraphicThingInstance@@2V?$CDynamicPool@VCGraphicThingInstance@@@@A ; CGraphicThingInstance::ms_kPool
  00005	e9 00 00 00 00	 jmp	 ??1?$CDynamicPool@VCGraphicThingInstance@@@@UAE@XZ ; CDynamicPool<CGraphicThingInstance>::~CDynamicPool<CGraphicThingInstance>
??__F?ms_kPool@CGraphicThingInstance@@2V?$CDynamicPool@VCGraphicThingInstance@@@@A@@YAXXZ ENDP ; `dynamic atexit destructor for 'CGraphicThingInstance::ms_kPool''
text$yd	ENDS
; Function compile flags: /Ogtp
; File C:\DS Project\DS Files\Source\ClientSource\Client\eterGrnLib\ThingInstance.cpp
;	COMDAT ??__E?ms_kPool@CGraphicThingInstance@@2V?$CDynamicPool@VCGraphicThingInstance@@@@A@@YAXXZ
text$di	SEGMENT
??__E?ms_kPool@CGraphicThingInstance@@2V?$CDynamicPool@VCGraphicThingInstance@@@@A@@YAXXZ PROC ; `dynamic initializer for 'CGraphicThingInstance::ms_kPool'', COMDAT

; 9    : CDynamicPool<CGraphicThingInstance>		CGraphicThingInstance::ms_kPool;

  00000	68 00 00 00 00	 push	 OFFSET ??__F?ms_kPool@CGraphicThingInstance@@2V?$CDynamicPool@VCGraphicThingInstance@@@@A@@YAXXZ ; `dynamic atexit destructor for 'CGraphicThingInstance::ms_kPool''
  00005	e8 00 00 00 00	 call	 _atexit
  0000a	59		 pop	 ecx
  0000b	c3		 ret	 0
??__E?ms_kPool@CGraphicThingInstance@@2V?$CDynamicPool@VCGraphicThingInstance@@@@A@@YAXXZ ENDP ; `dynamic initializer for 'CGraphicThingInstance::ms_kPool''
text$di	ENDS
; Function compile flags: /Ogtp
;	COMDAT ??_G?$CDynamicPool@VCGraphicThingInstance@@@@UAEPAXI@Z
_TEXT	SEGMENT
___flags$ = 8						; size = 4
??_G?$CDynamicPool@VCGraphicThingInstance@@@@UAEPAXI@Z PROC ; CDynamicPool<CGraphicThingInstance>::`scalar deleting destructor', COMDAT
; _this$ = ecx
  00000	55		 push	 ebp
  00001	8b ec		 mov	 ebp, esp
  00003	56		 push	 esi
  00004	8b f1		 mov	 esi, ecx
  00006	e8 00 00 00 00	 call	 ??1?$CDynamicPool@VCGraphicThingInstance@@@@UAE@XZ ; CDynamicPool<CGraphicThingInstance>::~CDynamicPool<CGraphicThingInstance>
  0000b	f6 45 08 01	 test	 BYTE PTR ___flags$[ebp], 1
  0000f	74 0b		 je	 SHORT $LN4@scalar
  00011	6a 24		 push	 36			; 00000024H
  00013	56		 push	 esi
  00014	e8 00 00 00 00	 call	 ??3@YAXPAXI@Z		; operator delete
  00019	83 c4 08	 add	 esp, 8
$LN4@scalar:
  0001c	8b c6		 mov	 eax, esi
  0001e	5e		 pop	 esi
  0001f	5d		 pop	 ebp
  00020	c2 04 00	 ret	 4
??_G?$CDynamicPool@VCGraphicThingInstance@@@@UAEPAXI@Z ENDP ; CDynamicPool<CGraphicThingInstance>::`scalar deleting destructor'
_TEXT	ENDS
; Function compile flags: /Ogtp
; File C:\Program Files (x86)\Microsoft Visual Studio\2019\Community\VC\Tools\MSVC\14.27.29110\include\vector
;	COMDAT ?_Xlength@?$vector@PAVCGraphicThingInstance@@V?$allocator@PAVCGraphicThingInstance@@@std@@@std@@CAXXZ
_TEXT	SEGMENT
?_Xlength@?$vector@PAVCGraphicThingInstance@@V?$allocator@PAVCGraphicThingInstance@@@std@@@std@@CAXXZ PROC ; std::vector<CGraphicThingInstance *,std::allocator<CGraphicThingInstance *> >::_Xlength, COMDAT

; 1704 :         _Xlength_error("vector too long");

  00000	68 00 00 00 00	 push	 OFFSET ??_C@_0BA@FOIKENOD@vector?5too?5long@
  00005	e8 00 00 00 00	 call	 ?_Xlength_error@std@@YAXPBD@Z ; std::_Xlength_error
$LN3@Xlength:
  0000a	cc		 int	 3
?_Xlength@?$vector@PAVCGraphicThingInstance@@V?$allocator@PAVCGraphicThingInstance@@@std@@@std@@CAXXZ ENDP ; std::vector<CGraphicThingInstance *,std::allocator<CGraphicThingInstance *> >::_Xlength
_TEXT	ENDS
; Function compile flags: /Ogtp
; File C:\Program Files (x86)\Microsoft Visual Studio\2019\Community\VC\Tools\MSVC\14.27.29110\include\vector
; File C:\Program Files (x86)\Microsoft Visual Studio\2019\Community\VC\Tools\MSVC\14.27.29110\include\xmemory
; File C:\Program Files (x86)\Microsoft Visual Studio\2019\Community\VC\Tools\MSVC\14.27.29110\include\vector
; File C:\Program Files (x86)\Microsoft Visual Studio\2019\Community\VC\Tools\MSVC\14.27.29110\include\xmemory
; File C:\Program Files (x86)\Microsoft Visual Studio\2019\Community\VC\Tools\MSVC\14.27.29110\include\vector
; File C:\Program Files (x86)\Microsoft Visual Studio\2019\Community\VC\Tools\MSVC\14.27.29110\include\xmemory
; File C:\Program Files (x86)\Microsoft Visual Studio\2019\Community\VC\Tools\MSVC\14.27.29110\include\vector
; File C:\Program Files (x86)\Microsoft Visual Studio\2019\Community\VC\Tools\MSVC\14.27.29110\include\xmemory
; File C:\Program Files (x86)\Microsoft Visual Studio\2019\Community\VC\Tools\MSVC\14.27.29110\include\vector
; File C:\Program Files (x86)\Microsoft Visual Studio\2019\Community\VC\Tools\MSVC\14.27.29110\include\xmemory
; File C:\Program Files (x86)\Microsoft Visual Studio\2019\Community\VC\Tools\MSVC\14.27.29110\include\vector
;	COMDAT ?_Reallocate_exactly@?$vector@PAVCGraphicThingInstance@@V?$allocator@PAVCGraphicThingInstance@@@std@@@std@@AAEXI@Z
_TEXT	SEGMENT
tv254 = 8						; size = 4
__Newcapacity$ = 8					; size = 4
?_Reallocate_exactly@?$vector@PAVCGraphicThingInstance@@V?$allocator@PAVCGraphicThingInstance@@@std@@@std@@AAEXI@Z PROC ; std::vector<CGraphicThingInstance *,std::allocator<CGraphicThingInstance *> >::_Reallocate_exactly, COMDAT
; _this$ = ecx

; 1251 :     void _Reallocate_exactly(const size_type _Newcapacity) {

  00000	55		 push	 ebp
  00001	8b ec		 mov	 ebp, esp
; File C:\Program Files (x86)\Microsoft Visual Studio\2019\Community\VC\Tools\MSVC\14.27.29110\include\xmemory

; 60   :         if (_Count > _Max_possible) {

  00003	8b 45 08	 mov	 eax, DWORD PTR __Newcapacity$[ebp]
; File C:\Program Files (x86)\Microsoft Visual Studio\2019\Community\VC\Tools\MSVC\14.27.29110\include\vector

; 1251 :     void _Reallocate_exactly(const size_type _Newcapacity) {

  00006	53		 push	 ebx
  00007	56		 push	 esi
  00008	8b f1		 mov	 esi, ecx
  0000a	57		 push	 edi

; 1252 :         // set capacity to _Newcapacity (without geometric growth), provide strong guarantee
; 1253 :         auto& _My_data    = _Mypair._Myval2;
; 1254 :         pointer& _Myfirst = _My_data._Myfirst;
; 1255 :         pointer& _Mylast  = _My_data._Mylast;
; 1256 : 
; 1257 :         const auto _Size = static_cast<size_type>(_Mylast - _Myfirst);

  0000b	8b 7e 04	 mov	 edi, DWORD PTR [esi+4]
  0000e	2b 3e		 sub	 edi, DWORD PTR [esi]
  00010	c1 ff 02	 sar	 edi, 2
; File C:\Program Files (x86)\Microsoft Visual Studio\2019\Community\VC\Tools\MSVC\14.27.29110\include\xmemory

; 60   :         if (_Count > _Max_possible) {

  00013	3d ff ff ff 3f	 cmp	 eax, 1073741823		; 3fffffffH
  00018	77 4c		 ja	 SHORT $LN26@Reallocate

; 62   :         }
; 63   :     }
; 64   : 
; 65   :     return _Count * _Ty_size;

  0001a	c1 e0 02	 shl	 eax, 2

; 807  :         return static_cast<_Ty*>(_Allocate<_New_alignof<_Ty>>(_Get_size_of_n<sizeof(_Ty)>(_Count)));

  0001d	50		 push	 eax

; 65   :     return _Count * _Ty_size;

  0001e	89 45 08	 mov	 DWORD PTR tv254[ebp], eax

; 807  :         return static_cast<_Ty*>(_Allocate<_New_alignof<_Ty>>(_Get_size_of_n<sizeof(_Ty)>(_Count)));

  00021	e8 00 00 00 00	 call	 ??$_Allocate@$07U_Default_allocate_traits@std@@$0A@@std@@YAPAXI@Z ; std::_Allocate<8,std::_Default_allocate_traits,0>
; File C:\Program Files (x86)\Microsoft Visual Studio\2019\Community\VC\Tools\MSVC\14.27.29110\include\vector

; 1597 :         _Uninitialized_move(_First, _Last, _Dest, _Getal());

  00026	56		 push	 esi
; File C:\Program Files (x86)\Microsoft Visual Studio\2019\Community\VC\Tools\MSVC\14.27.29110\include\xmemory

; 807  :         return static_cast<_Ty*>(_Allocate<_New_alignof<_Ty>>(_Get_size_of_n<sizeof(_Ty)>(_Count)));

  00027	8b d8		 mov	 ebx, eax
; File C:\Program Files (x86)\Microsoft Visual Studio\2019\Community\VC\Tools\MSVC\14.27.29110\include\vector

; 1597 :         _Uninitialized_move(_First, _Last, _Dest, _Getal());

  00029	53		 push	 ebx
  0002a	ff 76 04	 push	 DWORD PTR [esi+4]
  0002d	ff 36		 push	 DWORD PTR [esi]
  0002f	e8 00 00 00 00	 call	 ??$_Uninitialized_move@PAPAVCGraphicThingInstance@@V?$allocator@PAVCGraphicThingInstance@@@std@@@std@@YAPAPAVCGraphicThingInstance@@QAPAV1@0PAPAV1@AAV?$allocator@PAVCGraphicThingInstance@@@0@@Z ; std::_Uninitialized_move<CGraphicThingInstance * *,std::allocator<CGraphicThingInstance *> >

; 1675 :         if (_Myfirst) { // destroy and deallocate old array

  00034	8b 0e		 mov	 ecx, DWORD PTR [esi]

; 1597 :         _Uninitialized_move(_First, _Last, _Dest, _Getal());

  00036	83 c4 14	 add	 esp, 20			; 00000014H

; 1675 :         if (_Myfirst) { // destroy and deallocate old array

  00039	85 c9		 test	 ecx, ecx
  0003b	74 12		 je	 SHORT $LN20@Reallocate

; 1676 :             _Destroy(_Myfirst, _Mylast);
; 1677 :             _Getal().deallocate(_Myfirst, static_cast<size_type>(_Myend - _Myfirst));

  0003d	8b 46 08	 mov	 eax, DWORD PTR [esi+8]
  00040	2b c1		 sub	 eax, ecx
; File C:\Program Files (x86)\Microsoft Visual Studio\2019\Community\VC\Tools\MSVC\14.27.29110\include\xmemory

; 803  :         _Deallocate<_New_alignof<_Ty>>(_Ptr, sizeof(_Ty) * _Count);

  00042	83 e0 fc	 and	 eax, -4			; fffffffcH
  00045	50		 push	 eax
  00046	51		 push	 ecx
  00047	e8 00 00 00 00	 call	 ??$_Deallocate@$07$0A@@std@@YAXPAXI@Z ; std::_Deallocate<8,0>
  0004c	83 c4 08	 add	 esp, 8
$LN20@Reallocate:
; File C:\Program Files (x86)\Microsoft Visual Studio\2019\Community\VC\Tools\MSVC\14.27.29110\include\vector

; 1681 :         _Mylast  = _Newvec + _Newsize;

  0004f	8d 04 bb	 lea	 eax, DWORD PTR [ebx+edi*4]
  00052	89 1e		 mov	 DWORD PTR [esi], ebx
  00054	89 46 04	 mov	 DWORD PTR [esi+4], eax

; 1682 :         _Myend   = _Newvec + _Newcapacity;

  00057	8b 45 08	 mov	 eax, DWORD PTR tv254[ebp]
  0005a	03 c3		 add	 eax, ebx
  0005c	5f		 pop	 edi
  0005d	89 46 08	 mov	 DWORD PTR [esi+8], eax
  00060	5e		 pop	 esi
  00061	5b		 pop	 ebx

; 1269 :     }

  00062	5d		 pop	 ebp
  00063	c2 04 00	 ret	 4
$LN26@Reallocate:
; File C:\Program Files (x86)\Microsoft Visual Studio\2019\Community\VC\Tools\MSVC\14.27.29110\include\xmemory

; 61   :             _Throw_bad_array_new_length(); // multiply overflow

  00066	e8 00 00 00 00	 call	 ?_Throw_bad_array_new_length@std@@YAXXZ ; std::_Throw_bad_array_new_length
$LN24@Reallocate:
  0006b	cc		 int	 3
?_Reallocate_exactly@?$vector@PAVCGraphicThingInstance@@V?$allocator@PAVCGraphicThingInstance@@@std@@@std@@AAEXI@Z ENDP ; std::vector<CGraphicThingInstance *,std::allocator<CGraphicThingInstance *> >::_Reallocate_exactly
_TEXT	ENDS
; Function compile flags: /Ogtp
; File C:\DS Project\DS Files\Source\ClientSource\Client\eterlib\Pool.h
;	COMDAT ?Delete@?$CDynamicPool@VCGraphicThingInstance@@@@KAXPAVCGraphicThingInstance@@@Z
_TEXT	SEGMENT
_pkData$ = 8						; size = 4
?Delete@?$CDynamicPool@VCGraphicThingInstance@@@@KAXPAVCGraphicThingInstance@@@Z PROC ; CDynamicPool<CGraphicThingInstance>::Delete, COMDAT

; 109  : 		{

  00000	55		 push	 ebp
  00001	8b ec		 mov	 ebp, esp

; 110  : 			delete pkData;

  00003	8b 4d 08	 mov	 ecx, DWORD PTR _pkData$[ebp]
  00006	85 c9		 test	 ecx, ecx
  00008	74 06		 je	 SHORT $LN3@Delete
  0000a	8b 01		 mov	 eax, DWORD PTR [ecx]
  0000c	6a 01		 push	 1
  0000e	ff 10		 call	 DWORD PTR [eax]
$LN3@Delete:

; 111  : 		}

  00010	5d		 pop	 ebp
  00011	c3		 ret	 0
?Delete@?$CDynamicPool@VCGraphicThingInstance@@@@KAXPAVCGraphicThingInstance@@@Z ENDP ; CDynamicPool<CGraphicThingInstance>::Delete
_TEXT	ENDS
; Function compile flags: /Ogtp
; File C:\DS Project\DS Files\Source\ClientSource\Client\eterlib\Pool.h
; File C:\Program Files (x86)\Microsoft Visual Studio\2019\Community\VC\Tools\MSVC\14.27.29110\include\vector
; File C:\Program Files (x86)\Microsoft Visual Studio\2019\Community\VC\Tools\MSVC\14.27.29110\include\xmemory
; File C:\Program Files (x86)\Microsoft Visual Studio\2019\Community\VC\Tools\MSVC\14.27.29110\include\vector
; File C:\Program Files (x86)\Microsoft Visual Studio\2019\Community\VC\Tools\MSVC\14.27.29110\include\xmemory
; File C:\Program Files (x86)\Microsoft Visual Studio\2019\Community\VC\Tools\MSVC\14.27.29110\include\vector
; File C:\Program Files (x86)\Microsoft Visual Studio\2019\Community\VC\Tools\MSVC\14.27.29110\include\xmemory
; File C:\Program Files (x86)\Microsoft Visual Studio\2019\Community\VC\Tools\MSVC\14.27.29110\include\vector
; File C:\Program Files (x86)\Microsoft Visual Studio\2019\Community\VC\Tools\MSVC\14.27.29110\include\xmemory
; File C:\Program Files (x86)\Microsoft Visual Studio\2019\Community\VC\Tools\MSVC\14.27.29110\include\vector
; File C:\DS Project\DS Files\Source\ClientSource\Client\eterlib\Pool.h
;	COMDAT ??1?$CDynamicPool@VCGraphicThingInstance@@@@UAE@XZ
_TEXT	SEGMENT
??1?$CDynamicPool@VCGraphicThingInstance@@@@UAE@XZ PROC	; CDynamicPool<CGraphicThingInstance>::~CDynamicPool<CGraphicThingInstance>, COMDAT
; _this$ = ecx

; 18   : 		{

  00000	56		 push	 esi
  00001	8b f1		 mov	 esi, ecx
  00003	c7 06 00 00 00
	00		 mov	 DWORD PTR [esi], OFFSET ??_7?$CDynamicPool@VCGraphicThingInstance@@@@6B@
; File C:\Program Files (x86)\Microsoft Visual Studio\2019\Community\VC\Tools\MSVC\14.27.29110\include\vector

; 1693 :         if (_Myfirst) { // destroy and deallocate old array

  00009	8b 4e 10	 mov	 ecx, DWORD PTR [esi+16]
  0000c	85 c9		 test	 ecx, ecx
  0000e	74 27		 je	 SHORT $LN6@CDynamicPo

; 1694 :             _Destroy(_Myfirst, _Mylast);
; 1695 :             _Getal().deallocate(_Myfirst, static_cast<size_type>(_Myend - _Myfirst));

  00010	8b 46 18	 mov	 eax, DWORD PTR [esi+24]
  00013	2b c1		 sub	 eax, ecx
; File C:\Program Files (x86)\Microsoft Visual Studio\2019\Community\VC\Tools\MSVC\14.27.29110\include\xmemory

; 803  :         _Deallocate<_New_alignof<_Ty>>(_Ptr, sizeof(_Ty) * _Count);

  00015	83 e0 fc	 and	 eax, -4			; fffffffcH
  00018	50		 push	 eax
  00019	51		 push	 ecx
  0001a	e8 00 00 00 00	 call	 ??$_Deallocate@$07$0A@@std@@YAXPAXI@Z ; std::_Deallocate<8,0>
; File C:\Program Files (x86)\Microsoft Visual Studio\2019\Community\VC\Tools\MSVC\14.27.29110\include\vector

; 1697 :             _Myfirst = pointer();

  0001f	c7 46 10 00 00
	00 00		 mov	 DWORD PTR [esi+16], 0
; File C:\Program Files (x86)\Microsoft Visual Studio\2019\Community\VC\Tools\MSVC\14.27.29110\include\xmemory

; 803  :         _Deallocate<_New_alignof<_Ty>>(_Ptr, sizeof(_Ty) * _Count);

  00026	83 c4 08	 add	 esp, 8
; File C:\Program Files (x86)\Microsoft Visual Studio\2019\Community\VC\Tools\MSVC\14.27.29110\include\vector

; 1698 :             _Mylast  = pointer();

  00029	c7 46 14 00 00
	00 00		 mov	 DWORD PTR [esi+20], 0

; 1699 :             _Myend   = pointer();

  00030	c7 46 18 00 00
	00 00		 mov	 DWORD PTR [esi+24], 0
$LN6@CDynamicPo:

; 1693 :         if (_Myfirst) { // destroy and deallocate old array

  00037	8b 4e 04	 mov	 ecx, DWORD PTR [esi+4]
  0003a	85 c9		 test	 ecx, ecx
  0003c	74 27		 je	 SHORT $LN13@CDynamicPo

; 1694 :             _Destroy(_Myfirst, _Mylast);
; 1695 :             _Getal().deallocate(_Myfirst, static_cast<size_type>(_Myend - _Myfirst));

  0003e	8b 46 0c	 mov	 eax, DWORD PTR [esi+12]
  00041	2b c1		 sub	 eax, ecx
; File C:\Program Files (x86)\Microsoft Visual Studio\2019\Community\VC\Tools\MSVC\14.27.29110\include\xmemory

; 803  :         _Deallocate<_New_alignof<_Ty>>(_Ptr, sizeof(_Ty) * _Count);

  00043	83 e0 fc	 and	 eax, -4			; fffffffcH
  00046	50		 push	 eax
  00047	51		 push	 ecx
  00048	e8 00 00 00 00	 call	 ??$_Deallocate@$07$0A@@std@@YAXPAXI@Z ; std::_Deallocate<8,0>
; File C:\Program Files (x86)\Microsoft Visual Studio\2019\Community\VC\Tools\MSVC\14.27.29110\include\vector

; 1697 :             _Myfirst = pointer();

  0004d	c7 46 04 00 00
	00 00		 mov	 DWORD PTR [esi+4], 0
; File C:\Program Files (x86)\Microsoft Visual Studio\2019\Community\VC\Tools\MSVC\14.27.29110\include\xmemory

; 803  :         _Deallocate<_New_alignof<_Ty>>(_Ptr, sizeof(_Ty) * _Count);

  00054	83 c4 08	 add	 esp, 8
; File C:\Program Files (x86)\Microsoft Visual Studio\2019\Community\VC\Tools\MSVC\14.27.29110\include\vector

; 1698 :             _Mylast  = pointer();

  00057	c7 46 08 00 00
	00 00		 mov	 DWORD PTR [esi+8], 0

; 1699 :             _Myend   = pointer();

  0005e	c7 46 0c 00 00
	00 00		 mov	 DWORD PTR [esi+12], 0
$LN13@CDynamicPo:
  00065	5e		 pop	 esi
; File C:\DS Project\DS Files\Source\ClientSource\Client\eterlib\Pool.h

; 26   : 		}

  00066	c3		 ret	 0
??1?$CDynamicPool@VCGraphicThingInstance@@@@UAE@XZ ENDP	; CDynamicPool<CGraphicThingInstance>::~CDynamicPool<CGraphicThingInstance>
_TEXT	ENDS
; Function compile flags: /Ogtp
;	COMDAT ??_GCGraphicThingInstance@@UAEPAXI@Z
_TEXT	SEGMENT
___flags$ = 8						; size = 4
??_GCGraphicThingInstance@@UAEPAXI@Z PROC		; CGraphicThingInstance::`scalar deleting destructor', COMDAT
; _this$ = ecx
  00000	55		 push	 ebp
  00001	8b ec		 mov	 ebp, esp
  00003	56		 push	 esi
  00004	8b f1		 mov	 esi, ecx
  00006	e8 00 00 00 00	 call	 ??1CGraphicThingInstance@@UAE@XZ ; CGraphicThingInstance::~CGraphicThingInstance
  0000b	f6 45 08 01	 test	 BYTE PTR ___flags$[ebp], 1
  0000f	74 0e		 je	 SHORT $LN4@scalar
  00011	68 a8 02 00 00	 push	 680			; 000002a8H
  00016	56		 push	 esi
  00017	e8 00 00 00 00	 call	 ??3@YAXPAXI@Z		; operator delete
  0001c	83 c4 08	 add	 esp, 8
$LN4@scalar:
  0001f	8b c6		 mov	 eax, esi
  00021	5e		 pop	 esi
  00022	5d		 pop	 ebp
  00023	c2 04 00	 ret	 4
??_GCGraphicThingInstance@@UAEPAXI@Z ENDP		; CGraphicThingInstance::`scalar deleting destructor'
_TEXT	ENDS
; Function compile flags: /Ogtp
; File C:\DS Project\DS Files\Source\ClientSource\Client\eterGrnLib\ThingInstance.cpp
; File C:\Program Files (x86)\Microsoft Visual Studio\2019\Community\VC\Tools\MSVC\14.27.29110\include\vector
; File C:\DS Project\DS Files\Source\ClientSource\Client\eterGrnLib\ThingInstance.cpp
; File C:\DS Project\DS Files\Source\ClientSource\Client\eterGrnLib\LODController.h
; File C:\DS Project\DS Files\Source\ClientSource\Client\eterGrnLib\ThingInstance.cpp
; File C:\Program Files (x86)\Microsoft Visual Studio\2019\Community\VC\Tools\MSVC\14.27.29110\include\vector
; File C:\DS Project\DS Files\Source\ClientSource\Client\eterGrnLib\ThingInstance.cpp
; File C:\Program Files (x86)\Microsoft Visual Studio\2019\Community\VC\Tools\MSVC\14.27.29110\include\vector
; File C:\DS Project\DS Files\Source\ClientSource\Client\eterGrnLib\ThingInstance.cpp
;	COMDAT ?HaveBlendThing@CGraphicThingInstance@@QAE_NXZ
_TEXT	SEGMENT
?HaveBlendThing@CGraphicThingInstance@@QAE_NXZ PROC	; CGraphicThingInstance::HaveBlendThing, COMDAT
; _this$ = ecx

; 944  : {

  00000	53		 push	 ebx
  00001	8b d9		 mov	 ebx, ecx
  00003	56		 push	 esi

; 945  : 	for (int i = 0; i < m_LODControllerVector.size(); i++)

  00004	33 f6		 xor	 esi, esi
  00006	57		 push	 edi
; File C:\Program Files (x86)\Microsoft Visual Studio\2019\Community\VC\Tools\MSVC\14.27.29110\include\vector

; 1484 :         return static_cast<size_type>(_My_data._Mylast - _My_data._Myfirst);

  00007	8b 83 8c 02 00
	00		 mov	 eax, DWORD PTR [ebx+652]
  0000d	8b 93 88 02 00
	00		 mov	 edx, DWORD PTR [ebx+648]
  00013	2b c2		 sub	 eax, edx
  00015	c1 f8 02	 sar	 eax, 2
; File C:\DS Project\DS Files\Source\ClientSource\Client\eterGrnLib\ThingInstance.cpp

; 945  : 	for (int i = 0; i < m_LODControllerVector.size(); i++)

  00018	85 c0		 test	 eax, eax
  0001a	74 3b		 je	 SHORT $LN23@HaveBlendT
  0001c	0f 1f 40 00	 npad	 4
$LL4@HaveBlendT:

; 947  : 		if (m_LODControllerVector[i]->HaveBlendThing())

  00020	8b 3c b2	 mov	 edi, DWORD PTR [edx+esi*4]
; File C:\DS Project\DS Files\Source\ClientSource\Client\eterGrnLib\LODController.h

; 272  : 		bool	HaveBlendThing() { return 0 != GetModelInstance() ? GetModelInstance()->HaveBlendThing() : false; }

  00023	8b cf		 mov	 ecx, edi
  00025	e8 00 00 00 00	 call	 ?GetModelInstance@CGrannyLODController@@QAEPAVCGrannyModelInstance@@XZ ; CGrannyLODController::GetModelInstance
  0002a	85 c0		 test	 eax, eax
  0002c	74 13		 je	 SHORT $LN22@HaveBlendT
  0002e	8b cf		 mov	 ecx, edi
  00030	e8 00 00 00 00	 call	 ?GetModelInstance@CGrannyLODController@@QAEPAVCGrannyModelInstance@@XZ ; CGrannyLODController::GetModelInstance
; File C:\DS Project\DS Files\Source\ClientSource\Client\eterGrnLib\ThingInstance.cpp

; 947  : 		if (m_LODControllerVector[i]->HaveBlendThing())

  00035	8b 40 04	 mov	 eax, DWORD PTR [eax+4]
  00038	80 b8 88 00 00
	00 00		 cmp	 BYTE PTR [eax+136], 0
  0003f	75 1c		 jne	 SHORT $LN18@HaveBlendT
$LN22@HaveBlendT:
; File C:\Program Files (x86)\Microsoft Visual Studio\2019\Community\VC\Tools\MSVC\14.27.29110\include\vector

; 1484 :         return static_cast<size_type>(_My_data._Mylast - _My_data._Myfirst);

  00041	8b 83 8c 02 00
	00		 mov	 eax, DWORD PTR [ebx+652]
; File C:\DS Project\DS Files\Source\ClientSource\Client\eterGrnLib\ThingInstance.cpp

; 945  : 	for (int i = 0; i < m_LODControllerVector.size(); i++)

  00047	46		 inc	 esi
; File C:\Program Files (x86)\Microsoft Visual Studio\2019\Community\VC\Tools\MSVC\14.27.29110\include\vector

; 1484 :         return static_cast<size_type>(_My_data._Mylast - _My_data._Myfirst);

  00048	8b 93 88 02 00
	00		 mov	 edx, DWORD PTR [ebx+648]
  0004e	2b c2		 sub	 eax, edx
  00050	c1 f8 02	 sar	 eax, 2
; File C:\DS Project\DS Files\Source\ClientSource\Client\eterGrnLib\ThingInstance.cpp

; 945  : 	for (int i = 0; i < m_LODControllerVector.size(); i++)

  00053	3b f0		 cmp	 esi, eax
  00055	72 c9		 jb	 SHORT $LL4@HaveBlendT
$LN23@HaveBlendT:
  00057	5f		 pop	 edi

; 948  : 			return true;
; 949  : 	}
; 950  : 	return false;
; 951  : }

  00058	5e		 pop	 esi
  00059	32 c0		 xor	 al, al
  0005b	5b		 pop	 ebx
  0005c	c3		 ret	 0
$LN18@HaveBlendT:
  0005d	5f		 pop	 edi
  0005e	5e		 pop	 esi
  0005f	b0 01		 mov	 al, 1
  00061	5b		 pop	 ebx
  00062	c3		 ret	 0
?HaveBlendThing@CGraphicThingInstance@@QAE_NXZ ENDP	; CGraphicThingInstance::HaveBlendThing
_TEXT	ENDS
; Function compile flags: /Ogtp
; File C:\DS Project\DS Files\Source\ClientSource\Client\eterGrnLib\ThingInstance.cpp
; File C:\Program Files (x86)\Microsoft Visual Studio\2019\Community\VC\Tools\MSVC\14.27.29110\include\vector
; File C:\DS Project\DS Files\Source\ClientSource\Client\eterGrnLib\ThingInstance.cpp
; File C:\Program Files (x86)\Microsoft Visual Studio\2019\Community\VC\Tools\MSVC\14.27.29110\include\vector
; File C:\DS Project\DS Files\Source\ClientSource\Client\eterGrnLib\ThingInstance.cpp
; File C:\Program Files (x86)\Microsoft Visual Studio\2019\Community\VC\Tools\MSVC\14.27.29110\include\vector
; File C:\DS Project\DS Files\Source\ClientSource\Client\eterGrnLib\ThingInstance.cpp
;	COMDAT ?Delete@CGraphicThingInstance@@SAXPAV1@@Z
_TEXT	SEGMENT
_pkData$ = 8						; size = 4
_pkThingInst$ = 8					; size = 4
?Delete@CGraphicThingInstance@@SAXPAV1@@Z PROC		; CGraphicThingInstance::Delete, COMDAT

; 49   : {

  00000	55		 push	 ebp
  00001	8b ec		 mov	 ebp, esp
  00003	56		 push	 esi

; 50   : 	pkThingInst->Clear();

  00004	8b 75 08	 mov	 esi, DWORD PTR _pkThingInst$[ebp]
  00007	8b ce		 mov	 ecx, esi
  00009	e8 00 00 00 00	 call	 ?Clear@CGraphicObjectInstance@@QAEXXZ ; CGraphicObjectInstance::Clear
; File C:\Program Files (x86)\Microsoft Visual Studio\2019\Community\VC\Tools\MSVC\14.27.29110\include\vector

; 704  :         if (_Mylast != _My_data._Myend) {

  0000e	a1 14 00 00 00	 mov	 eax, DWORD PTR ?ms_kPool@CGraphicThingInstance@@2V?$CDynamicPool@VCGraphicThingInstance@@@@A+20
; File C:\DS Project\DS Files\Source\ClientSource\Client\eterGrnLib\ThingInstance.cpp

; 51   : 	ms_kPool.Free(pkThingInst);

  00013	89 75 08	 mov	 DWORD PTR _pkData$[ebp], esi
; File C:\Program Files (x86)\Microsoft Visual Studio\2019\Community\VC\Tools\MSVC\14.27.29110\include\vector

; 704  :         if (_Mylast != _My_data._Myend) {

  00016	3b 05 18 00 00
	00		 cmp	 eax, DWORD PTR ?ms_kPool@CGraphicThingInstance@@2V?$CDynamicPool@VCGraphicThingInstance@@@@A+24
  0001c	74 0c		 je	 SHORT $LN8@Delete

; 687  :         _Alty_traits::construct(_Getal(), _Unfancy(_Mylast), _STD forward<_Valty>(_Val)...);

  0001e	89 30		 mov	 DWORD PTR [eax], esi

; 688  :         _Orphan_range(_Mylast, _Mylast);
; 689  :         _Ty& _Result = *_Mylast;
; 690  :         ++_Mylast;

  00020	83 05 14 00 00
	00 04		 add	 DWORD PTR ?ms_kPool@CGraphicThingInstance@@2V?$CDynamicPool@VCGraphicThingInstance@@@@A+20, 4
  00027	5e		 pop	 esi
; File C:\DS Project\DS Files\Source\ClientSource\Client\eterGrnLib\ThingInstance.cpp

; 52   : }

  00028	5d		 pop	 ebp
  00029	c3		 ret	 0
$LN8@Delete:
; File C:\Program Files (x86)\Microsoft Visual Studio\2019\Community\VC\Tools\MSVC\14.27.29110\include\vector

; 708  :         _Ty& _Result = *_Emplace_reallocate(_Mylast, _STD forward<_Valty>(_Val)...);

  0002a	8d 4d 08	 lea	 ecx, DWORD PTR _pkData$[ebp]
  0002d	51		 push	 ecx
  0002e	50		 push	 eax
  0002f	b9 10 00 00 00	 mov	 ecx, OFFSET ?ms_kPool@CGraphicThingInstance@@2V?$CDynamicPool@VCGraphicThingInstance@@@@A+16
  00034	e8 00 00 00 00	 call	 ??$_Emplace_reallocate@ABQAVCGraphicThingInstance@@@?$vector@PAVCGraphicThingInstance@@V?$allocator@PAVCGraphicThingInstance@@@std@@@std@@QAEPAPAVCGraphicThingInstance@@QAPAV2@ABQAV2@@Z ; std::vector<CGraphicThingInstance *,std::allocator<CGraphicThingInstance *> >::_Emplace_reallocate<CGraphicThingInstance * const &>
  00039	5e		 pop	 esi
; File C:\DS Project\DS Files\Source\ClientSource\Client\eterGrnLib\ThingInstance.cpp

; 52   : }

  0003a	5d		 pop	 ebp
  0003b	c3		 ret	 0
?Delete@CGraphicThingInstance@@SAXPAV1@@Z ENDP		; CGraphicThingInstance::Delete
_TEXT	ENDS
; Function compile flags: /Ogtp
; File C:\DS Project\DS Files\Source\ClientSource\Client\eterGrnLib\ThingInstance.cpp
; File C:\DS Project\DS Files\Source\ClientSource\Client\eterlib\Pool.h
; File C:\Program Files (x86)\Microsoft Visual Studio\2019\Community\VC\Tools\MSVC\14.27.29110\include\vector
; File C:\DS Project\DS Files\Source\ClientSource\Client\eterlib\Pool.h
; File C:\Program Files (x86)\Microsoft Visual Studio\2019\Community\VC\Tools\MSVC\14.27.29110\include\vector
; File C:\DS Project\DS Files\Source\ClientSource\Client\eterGrnLib\ThingInstance.cpp
; File C:\Program Files (x86)\Microsoft Visual Studio\2019\Community\VC\Tools\MSVC\14.27.29110\include\vector
; File C:\DS Project\DS Files\Source\ClientSource\Client\eterlib\Pool.h
; File C:\DS Project\DS Files\Source\ClientSource\Client\eterGrnLib\ThingInstance.cpp
; File C:\Program Files (x86)\Microsoft Visual Studio\2019\Community\VC\Tools\MSVC\14.27.29110\include\vector
; File C:\DS Project\DS Files\Source\ClientSource\Client\eterlib\Pool.h
; File C:\DS Project\DS Files\Source\ClientSource\Client\eterGrnLib\ThingInstance.cpp
; File C:\DS Project\DS Files\Source\ClientSource\Client\eterlib\Pool.h
; File C:\Program Files (x86)\Microsoft Visual Studio\2019\Community\VC\Tools\MSVC\14.27.29110\include\vector
; File C:\DS Project\DS Files\Source\ClientSource\Client\eterGrnLib\ThingInstance.cpp
;	COMDAT ?New@CGraphicThingInstance@@SAPAV1@XZ
_TEXT	SEGMENT
$T2 = -16						; size = 4
_pkNewData$3 = -16					; size = 4
__$EHRec$ = -12						; size = 12
?New@CGraphicThingInstance@@SAPAV1@XZ PROC		; CGraphicThingInstance::New, COMDAT

; 44   : {

  00000	55		 push	 ebp
  00001	8b ec		 mov	 ebp, esp
  00003	6a ff		 push	 -1
  00005	68 00 00 00 00	 push	 __ehhandler$?New@CGraphicThingInstance@@SAPAV1@XZ
  0000a	64 a1 00 00 00
	00		 mov	 eax, DWORD PTR fs:0
  00010	50		 push	 eax
  00011	51		 push	 ecx
  00012	56		 push	 esi
  00013	a1 00 00 00 00	 mov	 eax, DWORD PTR ___security_cookie
  00018	33 c5		 xor	 eax, ebp
  0001a	50		 push	 eax
  0001b	8d 45 f4	 lea	 eax, DWORD PTR __$EHRec$[ebp]
  0001e	64 a3 00 00 00
	00		 mov	 DWORD PTR fs:0, eax
; File C:\DS Project\DS Files\Source\ClientSource\Client\eterlib\Pool.h

; 63   : 			if (m_kVct_pkFree.empty())

  00024	8b 0d 14 00 00
	00		 mov	 ecx, DWORD PTR ?ms_kPool@CGraphicThingInstance@@2V?$CDynamicPool@VCGraphicThingInstance@@@@A+20
  0002a	39 0d 10 00 00
	00		 cmp	 DWORD PTR ?ms_kPool@CGraphicThingInstance@@2V?$CDynamicPool@VCGraphicThingInstance@@@@A+16, ecx
  00030	0f 85 87 00 00
	00		 jne	 $LN4@New

; 65   : 				T* pkNewData=new T;

  00036	68 a8 02 00 00	 push	 680			; 000002a8H
  0003b	e8 00 00 00 00	 call	 ??2@YAPAXI@Z		; operator new
  00040	83 c4 04	 add	 esp, 4
  00043	89 45 f0	 mov	 DWORD PTR $T2[ebp], eax
  00046	c7 45 fc 00 00
	00 00		 mov	 DWORD PTR __$EHRec$[ebp+8], 0
  0004d	85 c0		 test	 eax, eax
  0004f	74 0b		 je	 SHORT $LN6@New
  00051	8b c8		 mov	 ecx, eax
  00053	e8 00 00 00 00	 call	 ??0CGraphicThingInstance@@QAE@XZ ; CGraphicThingInstance::CGraphicThingInstance
  00058	8b f0		 mov	 esi, eax
  0005a	eb 02		 jmp	 SHORT $LN7@New
$LN6@New:
  0005c	33 f6		 xor	 esi, esi
$LN7@New:
; File C:\Program Files (x86)\Microsoft Visual Studio\2019\Community\VC\Tools\MSVC\14.27.29110\include\vector

; 704  :         if (_Mylast != _My_data._Myend) {

  0005e	a1 08 00 00 00	 mov	 eax, DWORD PTR ?ms_kPool@CGraphicThingInstance@@2V?$CDynamicPool@VCGraphicThingInstance@@@@A+8
; File C:\DS Project\DS Files\Source\ClientSource\Client\eterlib\Pool.h

; 65   : 				T* pkNewData=new T;

  00063	c7 45 fc ff ff
	ff ff		 mov	 DWORD PTR __$EHRec$[ebp+8], -1
  0006a	89 75 f0	 mov	 DWORD PTR _pkNewData$3[ebp], esi
; File C:\Program Files (x86)\Microsoft Visual Studio\2019\Community\VC\Tools\MSVC\14.27.29110\include\vector

; 704  :         if (_Mylast != _My_data._Myend) {

  0006d	3b 05 0c 00 00
	00		 cmp	 eax, DWORD PTR ?ms_kPool@CGraphicThingInstance@@2V?$CDynamicPool@VCGraphicThingInstance@@@@A+12
  00073	74 21		 je	 SHORT $LN14@New

; 687  :         _Alty_traits::construct(_Getal(), _Unfancy(_Mylast), _STD forward<_Valty>(_Val)...);

  00075	89 30		 mov	 DWORD PTR [eax], esi
; File C:\DS Project\DS Files\Source\ClientSource\Client\eterGrnLib\ThingInstance.cpp

; 45   : 	return ms_kPool.Alloc();

  00077	8b c6		 mov	 eax, esi
; File C:\Program Files (x86)\Microsoft Visual Studio\2019\Community\VC\Tools\MSVC\14.27.29110\include\vector

; 690  :         ++_Mylast;

  00079	83 05 08 00 00
	00 04		 add	 DWORD PTR ?ms_kPool@CGraphicThingInstance@@2V?$CDynamicPool@VCGraphicThingInstance@@@@A+8, 4
; File C:\DS Project\DS Files\Source\ClientSource\Client\eterlib\Pool.h

; 67   : 				++m_uUsedCapacity;

  00080	ff 05 20 00 00
	00		 inc	 DWORD PTR ?ms_kPool@CGraphicThingInstance@@2V?$CDynamicPool@VCGraphicThingInstance@@@@A+32
; File C:\DS Project\DS Files\Source\ClientSource\Client\eterGrnLib\ThingInstance.cpp

; 46   : }

  00086	8b 4d f4	 mov	 ecx, DWORD PTR __$EHRec$[ebp]
  00089	64 89 0d 00 00
	00 00		 mov	 DWORD PTR fs:0, ecx
  00090	59		 pop	 ecx
  00091	5e		 pop	 esi
  00092	8b e5		 mov	 esp, ebp
  00094	5d		 pop	 ebp
  00095	c3		 ret	 0
$LN14@New:
; File C:\Program Files (x86)\Microsoft Visual Studio\2019\Community\VC\Tools\MSVC\14.27.29110\include\vector

; 708  :         _Ty& _Result = *_Emplace_reallocate(_Mylast, _STD forward<_Valty>(_Val)...);

  00096	8d 4d f0	 lea	 ecx, DWORD PTR _pkNewData$3[ebp]
  00099	51		 push	 ecx
  0009a	50		 push	 eax
  0009b	b9 04 00 00 00	 mov	 ecx, OFFSET ?ms_kPool@CGraphicThingInstance@@2V?$CDynamicPool@VCGraphicThingInstance@@@@A+4
  000a0	e8 00 00 00 00	 call	 ??$_Emplace_reallocate@ABQAVCGraphicThingInstance@@@?$vector@PAVCGraphicThingInstance@@V?$allocator@PAVCGraphicThingInstance@@@std@@@std@@QAEPAPAVCGraphicThingInstance@@QAPAV2@ABQAV2@@Z ; std::vector<CGraphicThingInstance *,std::allocator<CGraphicThingInstance *> >::_Emplace_reallocate<CGraphicThingInstance * const &>
; File C:\DS Project\DS Files\Source\ClientSource\Client\eterlib\Pool.h

; 67   : 				++m_uUsedCapacity;

  000a5	ff 05 20 00 00
	00		 inc	 DWORD PTR ?ms_kPool@CGraphicThingInstance@@2V?$CDynamicPool@VCGraphicThingInstance@@@@A+32
; File C:\DS Project\DS Files\Source\ClientSource\Client\eterGrnLib\ThingInstance.cpp

; 45   : 	return ms_kPool.Alloc();

  000ab	8b c6		 mov	 eax, esi

; 46   : }

  000ad	8b 4d f4	 mov	 ecx, DWORD PTR __$EHRec$[ebp]
  000b0	64 89 0d 00 00
	00 00		 mov	 DWORD PTR fs:0, ecx
  000b7	59		 pop	 ecx
  000b8	5e		 pop	 esi
  000b9	8b e5		 mov	 esp, ebp
  000bb	5d		 pop	 ebp
  000bc	c3		 ret	 0
$LN4@New:
; File C:\DS Project\DS Files\Source\ClientSource\Client\eterlib\Pool.h

; 71   : 			T* pkFreeData=m_kVct_pkFree.back();

  000bd	8b 41 fc	 mov	 eax, DWORD PTR [ecx-4]
; File C:\Program Files (x86)\Microsoft Visual Studio\2019\Community\VC\Tools\MSVC\14.27.29110\include\vector

; 1559 :         return _My_data._Mylast[-1];

  000c0	83 c1 fc	 add	 ecx, -4			; fffffffcH

; 1338 :         --_Mylast;

  000c3	89 0d 14 00 00
	00		 mov	 DWORD PTR ?ms_kPool@CGraphicThingInstance@@2V?$CDynamicPool@VCGraphicThingInstance@@@@A+20, ecx
; File C:\DS Project\DS Files\Source\ClientSource\Client\eterGrnLib\ThingInstance.cpp

; 46   : }

  000c9	8b 4d f4	 mov	 ecx, DWORD PTR __$EHRec$[ebp]
  000cc	64 89 0d 00 00
	00 00		 mov	 DWORD PTR fs:0, ecx
  000d3	59		 pop	 ecx
  000d4	5e		 pop	 esi
  000d5	8b e5		 mov	 esp, ebp
  000d7	5d		 pop	 ebp
  000d8	c3		 ret	 0
_TEXT	ENDS
;	COMDAT text$x
text$x	SEGMENT
__unwindfunclet$?New@CGraphicThingInstance@@SAPAV1@XZ$0:
  00000	68 a8 02 00 00	 push	 680			; 000002a8H
  00005	8b 45 f0	 mov	 eax, DWORD PTR $T2[ebp]
  00008	50		 push	 eax
  00009	e8 00 00 00 00	 call	 ??3@YAXPAXI@Z		; operator delete
  0000e	83 c4 08	 add	 esp, 8
  00011	c3		 ret	 0
  00012	cc		 int	 3
  00013	cc		 int	 3
  00014	cc		 int	 3
  00015	cc		 int	 3
  00016	cc		 int	 3
__ehhandler$?New@CGraphicThingInstance@@SAPAV1@XZ:
  00017	90		 npad	 1
  00018	90		 npad	 1
  00019	8b 54 24 08	 mov	 edx, DWORD PTR [esp+8]
  0001d	8d 42 0c	 lea	 eax, DWORD PTR [edx+12]
  00020	8b 4a f4	 mov	 ecx, DWORD PTR [edx-12]
  00023	33 c8		 xor	 ecx, eax
  00025	e8 00 00 00 00	 call	 @__security_check_cookie@4
  0002a	b8 00 00 00 00	 mov	 eax, OFFSET __ehfuncinfo$?New@CGraphicThingInstance@@SAPAV1@XZ
  0002f	e9 00 00 00 00	 jmp	 ___CxxFrameHandler3
text$x	ENDS
?New@CGraphicThingInstance@@SAPAV1@XZ ENDP		; CGraphicThingInstance::New
; Function compile flags: /Ogtp
; File C:\DS Project\DS Files\Source\ClientSource\Client\eterGrnLib\ThingInstance.cpp
; File C:\Program Files (x86)\Microsoft Visual Studio\2019\Community\VC\Tools\MSVC\14.27.29110\include\algorithm
; File C:\DS Project\DS Files\Source\ClientSource\Client\eterGrnLib\ThingInstance.cpp
; File C:\Program Files (x86)\Microsoft Visual Studio\2019\Community\VC\Tools\MSVC\14.27.29110\include\algorithm
; File C:\DS Project\DS Files\Source\ClientSource\Client\eterlib\Pool.h
; File C:\Program Files (x86)\Microsoft Visual Studio\2019\Community\VC\Tools\MSVC\14.27.29110\include\algorithm
; File C:\DS Project\DS Files\Source\ClientSource\Client\eterlib\Pool.h
; File C:\DS Project\DS Files\Source\ClientSource\Client\eterGrnLib\ThingInstance.cpp
; File C:\DS Project\DS Files\Source\ClientSource\Client\eterlib\Pool.h
; File C:\DS Project\DS Files\Source\ClientSource\Client\eterGrnLib\ThingInstance.cpp
;	COMDAT ?DestroySystem@CGraphicThingInstance@@SAXXZ
_TEXT	SEGMENT
?DestroySystem@CGraphicThingInstance@@SAXXZ PROC	; CGraphicThingInstance::DestroySystem, COMDAT

; 39   : {

  00000	56		 push	 esi
; File C:\Program Files (x86)\Microsoft Visual Studio\2019\Community\VC\Tools\MSVC\14.27.29110\include\algorithm

; 235  :     for (; _UFirst != _ULast; ++_UFirst) {

  00001	8b 35 04 00 00
	00		 mov	 esi, DWORD PTR ?ms_kPool@CGraphicThingInstance@@2V?$CDynamicPool@VCGraphicThingInstance@@@@A+4
; File C:\DS Project\DS Files\Source\ClientSource\Client\eterGrnLib\ThingInstance.cpp

; 39   : {

  00007	57		 push	 edi
; File C:\Program Files (x86)\Microsoft Visual Studio\2019\Community\VC\Tools\MSVC\14.27.29110\include\algorithm

; 234  :     const auto _ULast = _Get_unwrapped(_Last);

  00008	8b 3d 08 00 00
	00		 mov	 edi, DWORD PTR ?ms_kPool@CGraphicThingInstance@@2V?$CDynamicPool@VCGraphicThingInstance@@@@A+8

; 235  :     for (; _UFirst != _ULast; ++_UFirst) {

  0000e	3b f7		 cmp	 esi, edi
  00010	74 2a		 je	 SHORT $LN30@DestroySys
$LL20@DestroySys:
; File C:\DS Project\DS Files\Source\ClientSource\Client\eterlib\Pool.h

; 110  : 			delete pkData;

  00012	8b 0e		 mov	 ecx, DWORD PTR [esi]
  00014	85 c9		 test	 ecx, ecx
  00016	74 06		 je	 SHORT $LN18@DestroySys
  00018	8b 01		 mov	 eax, DWORD PTR [ecx]
  0001a	6a 01		 push	 1
  0001c	ff 10		 call	 DWORD PTR [eax]
$LN18@DestroySys:
; File C:\Program Files (x86)\Microsoft Visual Studio\2019\Community\VC\Tools\MSVC\14.27.29110\include\algorithm

; 235  :     for (; _UFirst != _ULast; ++_UFirst) {

  0001e	83 c6 04	 add	 esi, 4
  00021	3b f7		 cmp	 esi, edi
  00023	75 ed		 jne	 SHORT $LL20@DestroySys
; File C:\DS Project\DS Files\Source\ClientSource\Client\eterlib\Pool.h

; 51   : 			m_kVct_pkData.clear();

  00025	a1 04 00 00 00	 mov	 eax, DWORD PTR ?ms_kPool@CGraphicThingInstance@@2V?$CDynamicPool@VCGraphicThingInstance@@@@A+4
  0002a	a3 08 00 00 00	 mov	 DWORD PTR ?ms_kPool@CGraphicThingInstance@@2V?$CDynamicPool@VCGraphicThingInstance@@@@A+8, eax
; File C:\DS Project\DS Files\Source\ClientSource\Client\eterGrnLib\ThingInstance.cpp

; 41   : }

  0002f	a1 10 00 00 00	 mov	 eax, DWORD PTR ?ms_kPool@CGraphicThingInstance@@2V?$CDynamicPool@VCGraphicThingInstance@@@@A+16
  00034	5f		 pop	 edi
  00035	a3 14 00 00 00	 mov	 DWORD PTR ?ms_kPool@CGraphicThingInstance@@2V?$CDynamicPool@VCGraphicThingInstance@@@@A+20, eax
  0003a	5e		 pop	 esi
  0003b	c3		 ret	 0
$LN30@DestroySys:
  0003c	a1 10 00 00 00	 mov	 eax, DWORD PTR ?ms_kPool@CGraphicThingInstance@@2V?$CDynamicPool@VCGraphicThingInstance@@@@A+16
  00041	5f		 pop	 edi
; File C:\DS Project\DS Files\Source\ClientSource\Client\eterlib\Pool.h

; 51   : 			m_kVct_pkData.clear();

  00042	89 35 08 00 00
	00		 mov	 DWORD PTR ?ms_kPool@CGraphicThingInstance@@2V?$CDynamicPool@VCGraphicThingInstance@@@@A+8, esi
; File C:\DS Project\DS Files\Source\ClientSource\Client\eterGrnLib\ThingInstance.cpp

; 41   : }

  00048	a3 14 00 00 00	 mov	 DWORD PTR ?ms_kPool@CGraphicThingInstance@@2V?$CDynamicPool@VCGraphicThingInstance@@@@A+20, eax
  0004d	5e		 pop	 esi
  0004e	c3		 ret	 0
?DestroySystem@CGraphicThingInstance@@SAXXZ ENDP	; CGraphicThingInstance::DestroySystem
_TEXT	ENDS
; Function compile flags: /Ogtp
; File C:\DS Project\DS Files\Source\ClientSource\Client\eterGrnLib\ThingInstance.cpp
; File C:\Program Files (x86)\Microsoft Visual Studio\2019\Community\VC\Tools\MSVC\14.27.29110\include\vector
; File C:\DS Project\DS Files\Source\ClientSource\Client\eterGrnLib\ThingInstance.cpp
; File C:\DS Project\DS Files\Source\ClientSource\Client\eterlib\Pool.h
; File C:\Program Files (x86)\Microsoft Visual Studio\2019\Community\VC\Tools\MSVC\14.27.29110\include\vector
; File C:\DS Project\DS Files\Source\ClientSource\Client\eterlib\Pool.h
; File C:\Program Files (x86)\Microsoft Visual Studio\2019\Community\VC\Tools\MSVC\14.27.29110\include\vector
; File C:\DS Project\DS Files\Source\ClientSource\Client\eterGrnLib\ThingInstance.cpp
; File C:\Program Files (x86)\Microsoft Visual Studio\2019\Community\VC\Tools\MSVC\14.27.29110\include\vector
; File C:\DS Project\DS Files\Source\ClientSource\Client\eterGrnLib\ThingInstance.cpp
;	COMDAT ?CreateSystem@CGraphicThingInstance@@SAXI@Z
_TEXT	SEGMENT
_uCapacity$ = 8						; size = 4
?CreateSystem@CGraphicThingInstance@@SAXI@Z PROC	; CGraphicThingInstance::CreateSystem, COMDAT

; 34   : {

  00000	55		 push	 ebp
  00001	8b ec		 mov	 ebp, esp
; File C:\Program Files (x86)\Microsoft Visual Studio\2019\Community\VC\Tools\MSVC\14.27.29110\include\vector

; 1494 :         return static_cast<size_type>(_My_data._Myend - _My_data._Myfirst);

  00003	a1 0c 00 00 00	 mov	 eax, DWORD PTR ?ms_kPool@CGraphicThingInstance@@2V?$CDynamicPool@VCGraphicThingInstance@@@@A+12
  00008	2b 05 04 00 00
	00		 sub	 eax, DWORD PTR ?ms_kPool@CGraphicThingInstance@@2V?$CDynamicPool@VCGraphicThingInstance@@@@A+4
; File C:\DS Project\DS Files\Source\ClientSource\Client\eterGrnLib\ThingInstance.cpp

; 34   : {

  0000e	56		 push	 esi
; File C:\DS Project\DS Files\Source\ClientSource\Client\eterlib\Pool.h

; 57   : 			m_uInitCapacity=uCapacity;

  0000f	8b 75 08	 mov	 esi, DWORD PTR _uCapacity$[ebp]
; File C:\Program Files (x86)\Microsoft Visual Studio\2019\Community\VC\Tools\MSVC\14.27.29110\include\vector

; 1494 :         return static_cast<size_type>(_My_data._Myend - _My_data._Myfirst);

  00012	c1 f8 02	 sar	 eax, 2
; File C:\DS Project\DS Files\Source\ClientSource\Client\eterlib\Pool.h

; 57   : 			m_uInitCapacity=uCapacity;

  00015	89 35 1c 00 00
	00		 mov	 DWORD PTR ?ms_kPool@CGraphicThingInstance@@2V?$CDynamicPool@VCGraphicThingInstance@@@@A+28, esi
; File C:\Program Files (x86)\Microsoft Visual Studio\2019\Community\VC\Tools\MSVC\14.27.29110\include\vector

; 1306 :         if (_Newcapacity > capacity()) { // something to do (reserve() never shrinks)

  0001b	3b f0		 cmp	 esi, eax
  0001d	76 13		 jbe	 SHORT $LN6@CreateSyst

; 1307 :             if (_Newcapacity > max_size()) {

  0001f	81 fe ff ff ff
	3f		 cmp	 esi, 1073741823		; 3fffffffH
  00025	77 33		 ja	 SHORT $LN19@CreateSyst

; 1309 :             }
; 1310 : 
; 1311 :             _Reallocate_exactly(_Newcapacity);

  00027	56		 push	 esi
  00028	b9 04 00 00 00	 mov	 ecx, OFFSET ?ms_kPool@CGraphicThingInstance@@2V?$CDynamicPool@VCGraphicThingInstance@@@@A+4
  0002d	e8 00 00 00 00	 call	 ?_Reallocate_exactly@?$vector@PAVCGraphicThingInstance@@V?$allocator@PAVCGraphicThingInstance@@@std@@@std@@AAEXI@Z ; std::vector<CGraphicThingInstance *,std::allocator<CGraphicThingInstance *> >::_Reallocate_exactly
$LN6@CreateSyst:

; 1494 :         return static_cast<size_type>(_My_data._Myend - _My_data._Myfirst);

  00032	a1 18 00 00 00	 mov	 eax, DWORD PTR ?ms_kPool@CGraphicThingInstance@@2V?$CDynamicPool@VCGraphicThingInstance@@@@A+24
  00037	2b 05 10 00 00
	00		 sub	 eax, DWORD PTR ?ms_kPool@CGraphicThingInstance@@2V?$CDynamicPool@VCGraphicThingInstance@@@@A+16
  0003d	c1 f8 02	 sar	 eax, 2

; 1306 :         if (_Newcapacity > capacity()) { // something to do (reserve() never shrinks)

  00040	3b f0		 cmp	 esi, eax
  00042	76 13		 jbe	 SHORT $LN13@CreateSyst

; 1307 :             if (_Newcapacity > max_size()) {

  00044	81 fe ff ff ff
	3f		 cmp	 esi, 1073741823		; 3fffffffH
  0004a	77 0e		 ja	 SHORT $LN19@CreateSyst

; 1309 :             }
; 1310 : 
; 1311 :             _Reallocate_exactly(_Newcapacity);

  0004c	56		 push	 esi
  0004d	b9 10 00 00 00	 mov	 ecx, OFFSET ?ms_kPool@CGraphicThingInstance@@2V?$CDynamicPool@VCGraphicThingInstance@@@@A+16
  00052	e8 00 00 00 00	 call	 ?_Reallocate_exactly@?$vector@PAVCGraphicThingInstance@@V?$allocator@PAVCGraphicThingInstance@@@std@@@std@@AAEXI@Z ; std::vector<CGraphicThingInstance *,std::allocator<CGraphicThingInstance *> >::_Reallocate_exactly
$LN13@CreateSyst:
  00057	5e		 pop	 esi
; File C:\DS Project\DS Files\Source\ClientSource\Client\eterGrnLib\ThingInstance.cpp

; 36   : }

  00058	5d		 pop	 ebp
  00059	c3		 ret	 0
$LN19@CreateSyst:
; File C:\Program Files (x86)\Microsoft Visual Studio\2019\Community\VC\Tools\MSVC\14.27.29110\include\vector

; 1308 :                 _Xlength();

  0005a	e8 00 00 00 00	 call	 ?_Xlength@?$vector@PAVCGraphicThingInstance@@V?$allocator@PAVCGraphicThingInstance@@@std@@@std@@CAXXZ ; std::vector<CGraphicThingInstance *,std::allocator<CGraphicThingInstance *> >::_Xlength
$LN20@CreateSyst:
  0005f	cc		 int	 3
?CreateSystem@CGraphicThingInstance@@SAXI@Z ENDP	; CGraphicThingInstance::CreateSystem
_TEXT	ENDS
; Function compile flags: /Ogtp
; File C:\DS Project\DS Files\Source\ClientSource\Client\eterGrnLib\ThingInstance.cpp
;	COMDAT ?OnGetObjectHeight@CGraphicThingInstance@@MAE_NMMPAM@Z
_TEXT	SEGMENT
_fX$ = 8						; size = 4
_fY$ = 12						; size = 4
_pfHeight$ = 16						; size = 4
?OnGetObjectHeight@CGraphicThingInstance@@MAE_NMMPAM@Z PROC ; CGraphicThingInstance::OnGetObjectHeight, COMDAT
; _this$ = ecx

; 84   : {

  00000	55		 push	 ebp
  00001	8b ec		 mov	 ebp, esp

; 85   : 	if (m_pHeightAttributeInstance && m_pHeightAttributeInstance->GetHeight(fX, fY, pfHeight))

  00003	8b 89 44 02 00
	00		 mov	 ecx, DWORD PTR [ecx+580]
  00009	85 c9		 test	 ecx, ecx
  0000b	74 2a		 je	 SHORT $LN2@OnGetObjec
  0000d	ff 75 10	 push	 DWORD PTR _pfHeight$[ebp]
  00010	f3 0f 10 45 0c	 movss	 xmm0, DWORD PTR _fY$[ebp]
  00015	83 ec 08	 sub	 esp, 8
  00018	f3 0f 11 44 24
	04		 movss	 DWORD PTR [esp+4], xmm0
  0001e	f3 0f 10 45 08	 movss	 xmm0, DWORD PTR _fX$[ebp]
  00023	f3 0f 11 04 24	 movss	 DWORD PTR [esp], xmm0
  00028	e8 00 00 00 00	 call	 ?GetHeight@CAttributeInstance@@QAEHMMPAM@Z ; CAttributeInstance::GetHeight
  0002d	85 c0		 test	 eax, eax
  0002f	74 06		 je	 SHORT $LN2@OnGetObjec

; 86   : 		return true;

  00031	b0 01		 mov	 al, 1

; 88   : }

  00033	5d		 pop	 ebp
  00034	c2 0c 00	 ret	 12			; 0000000cH
$LN2@OnGetObjec:

; 87   : 	return false;

  00037	32 c0		 xor	 al, al

; 88   : }

  00039	5d		 pop	 ebp
  0003a	c2 0c 00	 ret	 12			; 0000000cH
?OnGetObjectHeight@CGraphicThingInstance@@MAE_NMMPAM@Z ENDP ; CGraphicThingInstance::OnGetObjectHeight
_TEXT	ENDS
; Function compile flags: /Ogtp
; File C:\DS Project\DS Files\Source\ClientSource\Client\eterGrnLib\ThingInstance.cpp
;	COMDAT ?OnUpdateHeighInstance@CGraphicThingInstance@@MAEXPAVCAttributeInstance@@@Z
_TEXT	SEGMENT
_pAttributeInstance$ = 8				; size = 4
?OnUpdateHeighInstance@CGraphicThingInstance@@MAEXPAVCAttributeInstance@@@Z PROC ; CGraphicThingInstance::OnUpdateHeighInstance, COMDAT
; _this$ = ecx

; 78   : {

  00000	55		 push	 ebp
  00001	8b ec		 mov	 ebp, esp

; 81   : }

  00003	5d		 pop	 ebp

; 79   : 	assert(pAttributeInstance);
; 80   : 	SetHeightInstance(pAttributeInstance);

  00004	e9 00 00 00 00	 jmp	 ?SetHeightInstance@CGraphicObjectInstance@@QAEXPAVCAttributeInstance@@@Z ; CGraphicObjectInstance::SetHeightInstance
?OnUpdateHeighInstance@CGraphicThingInstance@@MAEXPAVCAttributeInstance@@@Z ENDP ; CGraphicThingInstance::OnUpdateHeighInstance
_TEXT	ENDS
; Function compile flags: /Ogtp
; File C:\DS Project\DS Files\Source\ClientSource\Client\eterGrnLib\ThingInstance.cpp
; File C:\Program Files (x86)\Microsoft Visual Studio\2019\Community\VC\Tools\MSVC\14.27.29110\include\vector
; File C:\DS Project\DS Files\Source\ClientSource\Client\eterGrnLib\ThingInstance.cpp
; File C:\Program Files (x86)\Microsoft Visual Studio\2019\Community\VC\Tools\MSVC\14.27.29110\include\vector
; File C:\DS Project\DS Files\Source\ClientSource\Client\eterGrnLib\ThingInstance.cpp
; File C:\Program Files (x86)\Microsoft Visual Studio\2019\Community\VC\Tools\MSVC\14.27.29110\include\vector
; File C:\DS Project\DS Files\Source\ClientSource\Client\eterGrnLib\ThingInstance.cpp
;	COMDAT ?OnUpdateCollisionData@CGraphicThingInstance@@MAEXPBV?$vector@VCStaticCollisionData@@V?$allocator@VCStaticCollisionData@@@std@@@std@@@Z
_TEXT	SEGMENT
_pscdVector$ = 8					; size = 4
?OnUpdateCollisionData@CGraphicThingInstance@@MAEXPBV?$vector@VCStaticCollisionData@@V?$allocator@VCStaticCollisionData@@@std@@@std@@@Z PROC ; CGraphicThingInstance::OnUpdateCollisionData, COMDAT
; _this$ = ecx

; 68   : {

  00000	55		 push	 ebp
  00001	8b ec		 mov	 ebp, esp
  00003	53		 push	 ebx
; File C:\Program Files (x86)\Microsoft Visual Studio\2019\Community\VC\Tools\MSVC\14.27.29110\include\vector

; 42   :     _Vector_const_iterator(_Tptr _Parg, const _Container_base* _Pvector) noexcept : _Ptr(_Parg) {

  00004	8b 5d 08	 mov	 ebx, DWORD PTR _pscdVector$[ebp]
; File C:\DS Project\DS Files\Source\ClientSource\Client\eterGrnLib\ThingInstance.cpp

; 68   : {

  00007	56		 push	 esi
  00008	57		 push	 edi
  00009	8b f9		 mov	 edi, ecx
; File C:\Program Files (x86)\Microsoft Visual Studio\2019\Community\VC\Tools\MSVC\14.27.29110\include\vector

; 42   :     _Vector_const_iterator(_Tptr _Parg, const _Container_base* _Pvector) noexcept : _Ptr(_Parg) {

  0000b	8b 33		 mov	 esi, DWORD PTR [ebx]
  0000d	3b 73 04	 cmp	 esi, DWORD PTR [ebx+4]
; File C:\DS Project\DS Files\Source\ClientSource\Client\eterGrnLib\ThingInstance.cpp

; 71   : 	for(it = pscdVector->begin();it!=pscdVector->end();++it)

  00010	74 18		 je	 SHORT $LN3@OnUpdateCo
$LL4@OnUpdateCo:

; 72   : 	{
; 73   : 		AddCollision(&(*it),&GetTransform());

  00012	8b cf		 mov	 ecx, edi
  00014	e8 00 00 00 00	 call	 ?GetTransform@CGraphicObjectInstance@@QAEAAUD3DXMATRIX@@XZ ; CGraphicObjectInstance::GetTransform
  00019	50		 push	 eax
  0001a	56		 push	 esi
  0001b	8b cf		 mov	 ecx, edi
  0001d	e8 00 00 00 00	 call	 ?AddCollision@CGraphicObjectInstance@@QAEXPBVCStaticCollisionData@@PBUD3DXMATRIX@@@Z ; CGraphicObjectInstance::AddCollision
; File C:\Program Files (x86)\Microsoft Visual Studio\2019\Community\VC\Tools\MSVC\14.27.29110\include\vector

; 75   :         ++_Ptr;

  00022	83 c6 50	 add	 esi, 80			; 00000050H

; 149  :         return _Ptr == _Right._Ptr;

  00025	3b 73 04	 cmp	 esi, DWORD PTR [ebx+4]
; File C:\DS Project\DS Files\Source\ClientSource\Client\eterGrnLib\ThingInstance.cpp

; 71   : 	for(it = pscdVector->begin();it!=pscdVector->end();++it)

  00028	75 e8		 jne	 SHORT $LL4@OnUpdateCo
$LN3@OnUpdateCo:
  0002a	5f		 pop	 edi

; 74   : 	}
; 75   : }

  0002b	5e		 pop	 esi
  0002c	5b		 pop	 ebx
  0002d	5d		 pop	 ebp
  0002e	c2 04 00	 ret	 4
?OnUpdateCollisionData@CGraphicThingInstance@@MAEXPBV?$vector@VCStaticCollisionData@@V?$allocator@VCStaticCollisionData@@@std@@@std@@@Z ENDP ; CGraphicThingInstance::OnUpdateCollisionData
_TEXT	ENDS
; Function compile flags: /Ogtp
;	COMDAT ??1?$map@KPAV?$CRef@VCGraphicThing@@@@U?$less@K@std@@V?$allocator@U?$pair@$$CBKPAV?$CRef@VCGraphicThing@@@@@std@@@3@@std@@QAE@XZ
_TEXT	SEGMENT
??1?$map@KPAV?$CRef@VCGraphicThing@@@@U?$less@K@std@@V?$allocator@U?$pair@$$CBKPAV?$CRef@VCGraphicThing@@@@@std@@@3@@std@@QAE@XZ PROC ; std::map<unsigned long,CRef<CGraphicThing> *,std::less<unsigned long>,std::allocator<std::pair<unsigned long const ,CRef<CGraphicThing> *> > >::~map<unsigned long,CRef<CGraphicThing> *,std::less<unsigned long>,std::allocator<std::pair<unsigned long const ,CRef<CGraphicThing> *> > >, COMDAT
; _this$ = ecx
  00000	e9 00 00 00 00	 jmp	 ??1?$_Tree@V?$_Tmap_traits@KPAV?$CRef@VCGraphicThing@@@@U?$less@K@std@@V?$allocator@U?$pair@$$CBKPAV?$CRef@VCGraphicThing@@@@@std@@@3@$0A@@std@@@std@@QAE@XZ ; std::_Tree<std::_Tmap_traits<unsigned long,CRef<CGraphicThing> *,std::less<unsigned long>,std::allocator<std::pair<unsigned long const ,CRef<CGraphicThing> *> >,0> >::~_Tree<std::_Tmap_traits<unsigned long,CRef<CGraphicThing> *,std::less<unsigned long>,std::allocator<std::pair<unsigned long const ,CRef<CGraphicThing> *> >,0> >
??1?$map@KPAV?$CRef@VCGraphicThing@@@@U?$less@K@std@@V?$allocator@U?$pair@$$CBKPAV?$CRef@VCGraphicThing@@@@@std@@@3@@std@@QAE@XZ ENDP ; std::map<unsigned long,CRef<CGraphicThing> *,std::less<unsigned long>,std::allocator<std::pair<unsigned long const ,CRef<CGraphicThing> *> > >::~map<unsigned long,CRef<CGraphicThing> *,std::less<unsigned long>,std::allocator<std::pair<unsigned long const ,CRef<CGraphicThing> *> > >
_TEXT	ENDS
; Function compile flags: /Ogtp
; File C:\Program Files (x86)\Microsoft Visual Studio\2019\Community\VC\Tools\MSVC\14.27.29110\include\xtree
;	COMDAT ?_Insert_node@?$_Tree_val@U?$_Tree_simple_types@U?$pair@$$CBKPAV?$CRef@VCGraphicThing@@@@@std@@@std@@@std@@QAEPAU?$_Tree_node@U?$pair@$$CBKPAV?$CRef@VCGraphicThing@@@@@std@@PAX@2@U?$_Tree_id@PAU?$_Tree_node@U?$pair@$$CBKPAV?$CRef@VCGraphicThing@@@@@std@@PAX@std@@@2@QAU32@@Z
_TEXT	SEGMENT
__Head$1$ = -8						; size = 4
_this$1$ = -4						; size = 4
__Loc$ = 8						; size = 8
__Newnode$ = 16						; size = 4
?_Insert_node@?$_Tree_val@U?$_Tree_simple_types@U?$pair@$$CBKPAV?$CRef@VCGraphicThing@@@@@std@@@std@@@std@@QAEPAU?$_Tree_node@U?$pair@$$CBKPAV?$CRef@VCGraphicThing@@@@@std@@PAX@2@U?$_Tree_id@PAU?$_Tree_node@U?$pair@$$CBKPAV?$CRef@VCGraphicThing@@@@@std@@PAX@std@@@2@QAU32@@Z PROC ; std::_Tree_val<std::_Tree_simple_types<std::pair<unsigned long const ,CRef<CGraphicThing> *> > >::_Insert_node, COMDAT
; _this$ = ecx

; 644  :     _Nodeptr _Insert_node(const _Tree_id<_Nodeptr> _Loc, const _Nodeptr _Newnode) noexcept {

  00000	55		 push	 ebp
  00001	8b ec		 mov	 ebp, esp
  00003	83 ec 08	 sub	 esp, 8

; 645  :         ++_Mysize;
; 646  :         const auto _Head  = _Myhead;
; 647  :         _Newnode->_Parent = _Loc._Parent;

  00006	8b 55 08	 mov	 edx, DWORD PTR __Loc$[ebp]
  00009	8b c1		 mov	 eax, ecx
  0000b	89 45 fc	 mov	 DWORD PTR _this$1$[ebp], eax
  0000e	8b 08		 mov	 ecx, DWORD PTR [eax]
  00010	ff 40 04	 inc	 DWORD PTR [eax+4]
  00013	8b 45 10	 mov	 eax, DWORD PTR __Newnode$[ebp]
  00016	89 4d f8	 mov	 DWORD PTR __Head$1$[ebp], ecx
  00019	89 50 04	 mov	 DWORD PTR [eax+4], edx

; 648  :         if (_Loc._Parent == _Head) { // first node in tree, just set head values

  0001c	3b d1		 cmp	 edx, ecx
  0001e	75 12		 jne	 SHORT $LN5@Insert_nod

; 649  :             _Head->_Left     = _Newnode;

  00020	89 01		 mov	 DWORD PTR [ecx], eax

; 650  :             _Head->_Parent   = _Newnode;

  00022	89 41 04	 mov	 DWORD PTR [ecx+4], eax

; 651  :             _Head->_Right    = _Newnode;

  00025	89 41 08	 mov	 DWORD PTR [ecx+8], eax

; 652  :             _Newnode->_Color = _Black; // the root is black

  00028	c6 40 0c 01	 mov	 BYTE PTR [eax+12], 1

; 711  :     }

  0002c	8b e5		 mov	 esp, ebp
  0002e	5d		 pop	 ebp
  0002f	c2 0c 00	 ret	 12			; 0000000cH
$LN5@Insert_nod:

; 653  :             return _Newnode;
; 654  :         }
; 655  : 
; 656  :         _STL_INTERNAL_CHECK(_Loc._Child != _Tree_child::_Unused);
; 657  :         if (_Loc._Child == _Tree_child::_Right) { // add to right of _Loc._Parent

  00032	83 7d 0c 00	 cmp	 DWORD PTR __Loc$[ebp+4], 0
  00036	75 0d		 jne	 SHORT $LN6@Insert_nod

; 658  :             _STL_INTERNAL_CHECK(_Loc._Parent->_Right->_Isnil);
; 659  :             _Loc._Parent->_Right = _Newnode;

  00038	89 42 08	 mov	 DWORD PTR [edx+8], eax

; 660  :             if (_Loc._Parent == _Head->_Right) { // remember rightmost node

  0003b	3b 51 08	 cmp	 edx, DWORD PTR [ecx+8]
  0003e	75 0d		 jne	 SHORT $LN9@Insert_nod

; 661  :                 _Head->_Right = _Newnode;

  00040	89 41 08	 mov	 DWORD PTR [ecx+8], eax

; 662  :             }
; 663  :         } else { // add to left of _Loc._Parent

  00043	eb 08		 jmp	 SHORT $LN9@Insert_nod
$LN6@Insert_nod:

; 664  :             _STL_INTERNAL_CHECK(_Loc._Parent->_Left->_Isnil);
; 665  :             _Loc._Parent->_Left = _Newnode;

  00045	89 02		 mov	 DWORD PTR [edx], eax

; 666  :             if (_Loc._Parent == _Head->_Left) { // remember leftmost node

  00047	3b 11		 cmp	 edx, DWORD PTR [ecx]
  00049	75 02		 jne	 SHORT $LN9@Insert_nod

; 667  :                 _Head->_Left = _Newnode;

  0004b	89 01		 mov	 DWORD PTR [ecx], eax
$LN9@Insert_nod:

; 668  :             }
; 669  :         }
; 670  : 
; 671  :         for (_Nodeptr _Pnode = _Newnode; _Pnode->_Parent->_Color == _Red;) {

  0004d	8b d0		 mov	 edx, eax
  0004f	8b 40 04	 mov	 eax, DWORD PTR [eax+4]
  00052	80 78 0c 00	 cmp	 BYTE PTR [eax+12], 0
  00056	0f 85 99 01 00
	00		 jne	 $LN3@Insert_nod
  0005c	53		 push	 ebx
  0005d	56		 push	 esi
  0005e	57		 push	 edi
  0005f	90		 npad	 1
$LL2@Insert_nod:

; 672  :             if (_Pnode->_Parent == _Pnode->_Parent->_Parent->_Left) { // fixup red-red in left subtree

  00060	8b 4a 04	 mov	 ecx, DWORD PTR [edx+4]
  00063	8d 7a 04	 lea	 edi, DWORD PTR [edx+4]
  00066	8b 71 04	 mov	 esi, DWORD PTR [ecx+4]
  00069	8d 59 04	 lea	 ebx, DWORD PTR [ecx+4]
  0006c	8b 06		 mov	 eax, DWORD PTR [esi]
  0006e	3b c8		 cmp	 ecx, eax
  00070	0f 85 ba 00 00
	00		 jne	 $LN10@Insert_nod

; 673  :                 const auto _Parent_sibling = _Pnode->_Parent->_Parent->_Right;

  00076	8b 46 08	 mov	 eax, DWORD PTR [esi+8]

; 674  :                 if (_Parent_sibling->_Color == _Red) { // parent's sibling has two red children, blacken both

  00079	80 78 0c 00	 cmp	 BYTE PTR [eax+12], 0
  0007d	0f 84 b3 00 00
	00		 je	 $LN53@Insert_nod

; 675  :                     _Pnode->_Parent->_Color          = _Black;
; 676  :                     _Parent_sibling->_Color          = _Black;
; 677  :                     _Pnode->_Parent->_Parent->_Color = _Red;
; 678  :                     _Pnode                           = _Pnode->_Parent->_Parent;
; 679  :                 } else { // parent's sibling has red and black children
; 680  :                     if (_Pnode == _Pnode->_Parent->_Right) { // rotate right child to left

  00083	8b 71 08	 mov	 esi, DWORD PTR [ecx+8]
  00086	3b d6		 cmp	 edx, esi
  00088	75 47		 jne	 SHORT $LN51@Insert_nod

; 460  :         _Wherenode->_Right = _Pnode->_Left;

  0008a	8b 06		 mov	 eax, DWORD PTR [esi]

; 681  :                         _Pnode = _Pnode->_Parent;

  0008c	8b d1		 mov	 edx, ecx

; 460  :         _Wherenode->_Right = _Pnode->_Left;

  0008e	89 42 08	 mov	 DWORD PTR [edx+8], eax

; 461  : 
; 462  :         if (!_Pnode->_Left->_Isnil) {

  00091	8b 06		 mov	 eax, DWORD PTR [esi]
  00093	80 78 0d 00	 cmp	 BYTE PTR [eax+13], 0
  00097	75 03		 jne	 SHORT $LN20@Insert_nod

; 463  :             _Pnode->_Left->_Parent = _Wherenode;

  00099	89 50 04	 mov	 DWORD PTR [eax+4], edx
$LN20@Insert_nod:

; 464  :         }
; 465  : 
; 466  :         _Pnode->_Parent = _Wherenode->_Parent;

  0009c	8b 03		 mov	 eax, DWORD PTR [ebx]
  0009e	89 46 04	 mov	 DWORD PTR [esi+4], eax

; 467  : 
; 468  :         if (_Wherenode == _Myhead->_Parent) {

  000a1	8b 45 fc	 mov	 eax, DWORD PTR _this$1$[ebp]
  000a4	8b 00		 mov	 eax, DWORD PTR [eax]
  000a6	3b 50 04	 cmp	 edx, DWORD PTR [eax+4]
  000a9	75 0b		 jne	 SHORT $LN21@Insert_nod

; 469  :             _Myhead->_Parent = _Pnode;

  000ab	89 70 04	 mov	 DWORD PTR [eax+4], esi

; 477  :         _Wherenode->_Parent = _Pnode;

  000ae	8b fb		 mov	 edi, ebx
  000b0	89 16		 mov	 DWORD PTR [esi], edx
  000b2	89 33		 mov	 DWORD PTR [ebx], esi
  000b4	eb 1d		 jmp	 SHORT $LN49@Insert_nod
$LN21@Insert_nod:

; 470  :         } else if (_Wherenode == _Wherenode->_Parent->_Left) {

  000b6	8b 03		 mov	 eax, DWORD PTR [ebx]
  000b8	3b 10		 cmp	 edx, DWORD PTR [eax]
  000ba	75 0a		 jne	 SHORT $LN23@Insert_nod

; 471  :             _Wherenode->_Parent->_Left = _Pnode;

  000bc	89 30		 mov	 DWORD PTR [eax], esi

; 477  :         _Wherenode->_Parent = _Pnode;

  000be	8b fb		 mov	 edi, ebx
  000c0	89 16		 mov	 DWORD PTR [esi], edx
  000c2	89 33		 mov	 DWORD PTR [ebx], esi
  000c4	eb 0d		 jmp	 SHORT $LN49@Insert_nod
$LN23@Insert_nod:

; 473  :             _Wherenode->_Parent->_Right = _Pnode;

  000c6	89 70 08	 mov	 DWORD PTR [eax+8], esi

; 477  :         _Wherenode->_Parent = _Pnode;

  000c9	8b fb		 mov	 edi, ebx
  000cb	89 16		 mov	 DWORD PTR [esi], edx
  000cd	89 33		 mov	 DWORD PTR [ebx], esi
  000cf	eb 02		 jmp	 SHORT $LN49@Insert_nod
$LN51@Insert_nod:
  000d1	8b f1		 mov	 esi, ecx
$LN49@Insert_nod:

; 682  :                         _Lrotate(_Pnode);
; 683  :                     }
; 684  : 
; 685  :                     _Pnode->_Parent->_Color          = _Black; // propagate red up

  000d3	c6 46 0c 01	 mov	 BYTE PTR [esi+12], 1

; 686  :                     _Pnode->_Parent->_Parent->_Color = _Red;

  000d7	8b 07		 mov	 eax, DWORD PTR [edi]
  000d9	8b 40 04	 mov	 eax, DWORD PTR [eax+4]
  000dc	c6 40 0c 00	 mov	 BYTE PTR [eax+12], 0

; 687  :                     _Rrotate(_Pnode->_Parent->_Parent);

  000e0	8b 07		 mov	 eax, DWORD PTR [edi]
  000e2	8b 48 04	 mov	 ecx, DWORD PTR [eax+4]

; 481  :         _Nodeptr _Pnode   = _Wherenode->_Left;

  000e5	8b 31		 mov	 esi, DWORD PTR [ecx]

; 482  :         _Wherenode->_Left = _Pnode->_Right;

  000e7	8b 46 08	 mov	 eax, DWORD PTR [esi+8]
  000ea	89 01		 mov	 DWORD PTR [ecx], eax

; 483  : 
; 484  :         if (!_Pnode->_Right->_Isnil) {

  000ec	8b 46 08	 mov	 eax, DWORD PTR [esi+8]
  000ef	80 78 0d 00	 cmp	 BYTE PTR [eax+13], 0
  000f3	75 03		 jne	 SHORT $LN27@Insert_nod

; 485  :             _Pnode->_Right->_Parent = _Wherenode;

  000f5	89 48 04	 mov	 DWORD PTR [eax+4], ecx
$LN27@Insert_nod:

; 486  :         }
; 487  : 
; 488  :         _Pnode->_Parent = _Wherenode->_Parent;

  000f8	8b 41 04	 mov	 eax, DWORD PTR [ecx+4]
  000fb	89 46 04	 mov	 DWORD PTR [esi+4], eax

; 489  : 
; 490  :         if (_Wherenode == _Myhead->_Parent) {

  000fe	8b 45 fc	 mov	 eax, DWORD PTR _this$1$[ebp]
  00101	8b 00		 mov	 eax, DWORD PTR [eax]
  00103	3b 48 04	 cmp	 ecx, DWORD PTR [eax+4]
  00106	75 0b		 jne	 SHORT $LN28@Insert_nod

; 491  :             _Myhead->_Parent = _Pnode;

  00108	89 70 04	 mov	 DWORD PTR [eax+4], esi

; 496  :         }
; 497  : 
; 498  :         _Pnode->_Right      = _Wherenode;

  0010b	89 4e 08	 mov	 DWORD PTR [esi+8], ecx

; 688  :                 }
; 689  :             } else { // fixup red-red in right subtree

  0010e	e9 cc 00 00 00	 jmp	 $LN52@Insert_nod
$LN28@Insert_nod:

; 492  :         } else if (_Wherenode == _Wherenode->_Parent->_Right) {

  00113	8b 41 04	 mov	 eax, DWORD PTR [ecx+4]
  00116	3b 48 08	 cmp	 ecx, DWORD PTR [eax+8]
  00119	75 0b		 jne	 SHORT $LN30@Insert_nod

; 493  :             _Wherenode->_Parent->_Right = _Pnode;

  0011b	89 70 08	 mov	 DWORD PTR [eax+8], esi

; 496  :         }
; 497  : 
; 498  :         _Pnode->_Right      = _Wherenode;

  0011e	89 4e 08	 mov	 DWORD PTR [esi+8], ecx

; 688  :                 }
; 689  :             } else { // fixup red-red in right subtree

  00121	e9 b9 00 00 00	 jmp	 $LN52@Insert_nod
$LN30@Insert_nod:

; 495  :             _Wherenode->_Parent->_Left = _Pnode;

  00126	89 30		 mov	 DWORD PTR [eax], esi

; 496  :         }
; 497  : 
; 498  :         _Pnode->_Right      = _Wherenode;

  00128	89 4e 08	 mov	 DWORD PTR [esi+8], ecx

; 688  :                 }
; 689  :             } else { // fixup red-red in right subtree

  0012b	e9 af 00 00 00	 jmp	 $LN52@Insert_nod
$LN10@Insert_nod:

; 690  :                 const auto _Parent_sibling = _Pnode->_Parent->_Parent->_Left;
; 691  :                 if (_Parent_sibling->_Color == _Red) { // parent's sibling has two red children, blacken both

  00130	80 78 0c 00	 cmp	 BYTE PTR [eax+12], 0
  00134	75 1b		 jne	 SHORT $LN15@Insert_nod
$LN53@Insert_nod:

; 668  :             }
; 669  :         }
; 670  : 
; 671  :         for (_Nodeptr _Pnode = _Newnode; _Pnode->_Parent->_Color == _Red;) {

  00136	c6 41 0c 01	 mov	 BYTE PTR [ecx+12], 1
  0013a	c6 40 0c 01	 mov	 BYTE PTR [eax+12], 1
  0013e	8b 07		 mov	 eax, DWORD PTR [edi]
  00140	8b 40 04	 mov	 eax, DWORD PTR [eax+4]
  00143	c6 40 0c 00	 mov	 BYTE PTR [eax+12], 0
  00147	8b 07		 mov	 eax, DWORD PTR [edi]
  00149	8b 50 04	 mov	 edx, DWORD PTR [eax+4]
  0014c	e9 91 00 00 00	 jmp	 $LN46@Insert_nod
$LN15@Insert_nod:

; 692  :                     _Pnode->_Parent->_Color          = _Black;
; 693  :                     _Parent_sibling->_Color          = _Black;
; 694  :                     _Pnode->_Parent->_Parent->_Color = _Red;
; 695  :                     _Pnode                           = _Pnode->_Parent->_Parent;
; 696  :                 } else { // parent's sibling has red and black children
; 697  :                     if (_Pnode == _Pnode->_Parent->_Left) { // rotate left child to right

  00151	8b 01		 mov	 eax, DWORD PTR [ecx]
  00153	3b d0		 cmp	 edx, eax
  00155	75 3e		 jne	 SHORT $LN39@Insert_nod

; 698  :                         _Pnode = _Pnode->_Parent;

  00157	8b d1		 mov	 edx, ecx

; 481  :         _Nodeptr _Pnode   = _Wherenode->_Left;

  00159	8b c8		 mov	 ecx, eax

; 482  :         _Wherenode->_Left = _Pnode->_Right;

  0015b	8b 41 08	 mov	 eax, DWORD PTR [ecx+8]
  0015e	89 02		 mov	 DWORD PTR [edx], eax

; 483  : 
; 484  :         if (!_Pnode->_Right->_Isnil) {

  00160	8b 41 08	 mov	 eax, DWORD PTR [ecx+8]
  00163	80 78 0d 00	 cmp	 BYTE PTR [eax+13], 0
  00167	75 03		 jne	 SHORT $LN34@Insert_nod

; 485  :             _Pnode->_Right->_Parent = _Wherenode;

  00169	89 50 04	 mov	 DWORD PTR [eax+4], edx
$LN34@Insert_nod:

; 486  :         }
; 487  : 
; 488  :         _Pnode->_Parent = _Wherenode->_Parent;

  0016c	8b 03		 mov	 eax, DWORD PTR [ebx]
  0016e	89 41 04	 mov	 DWORD PTR [ecx+4], eax

; 489  : 
; 490  :         if (_Wherenode == _Myhead->_Parent) {

  00171	8b 45 fc	 mov	 eax, DWORD PTR _this$1$[ebp]
  00174	8b 00		 mov	 eax, DWORD PTR [eax]
  00176	3b 50 04	 cmp	 edx, DWORD PTR [eax+4]
  00179	75 05		 jne	 SHORT $LN35@Insert_nod

; 491  :             _Myhead->_Parent = _Pnode;

  0017b	89 48 04	 mov	 DWORD PTR [eax+4], ecx
  0017e	eb 0e		 jmp	 SHORT $LN38@Insert_nod
$LN35@Insert_nod:

; 492  :         } else if (_Wherenode == _Wherenode->_Parent->_Right) {

  00180	8b 03		 mov	 eax, DWORD PTR [ebx]
  00182	3b 50 08	 cmp	 edx, DWORD PTR [eax+8]
  00185	75 05		 jne	 SHORT $LN37@Insert_nod

; 493  :             _Wherenode->_Parent->_Right = _Pnode;

  00187	89 48 08	 mov	 DWORD PTR [eax+8], ecx

; 494  :         } else {

  0018a	eb 02		 jmp	 SHORT $LN38@Insert_nod
$LN37@Insert_nod:

; 495  :             _Wherenode->_Parent->_Left = _Pnode;

  0018c	89 08		 mov	 DWORD PTR [eax], ecx
$LN38@Insert_nod:

; 496  :         }
; 497  : 
; 498  :         _Pnode->_Right      = _Wherenode;

  0018e	89 51 08	 mov	 DWORD PTR [ecx+8], edx

; 499  :         _Wherenode->_Parent = _Pnode;

  00191	8b fb		 mov	 edi, ebx
  00193	89 0b		 mov	 DWORD PTR [ebx], ecx
$LN39@Insert_nod:

; 699  :                         _Rrotate(_Pnode);
; 700  :                     }
; 701  : 
; 702  :                     _Pnode->_Parent->_Color          = _Black; // propagate red up

  00195	c6 41 0c 01	 mov	 BYTE PTR [ecx+12], 1

; 703  :                     _Pnode->_Parent->_Parent->_Color = _Red;

  00199	8b 07		 mov	 eax, DWORD PTR [edi]
  0019b	8b 40 04	 mov	 eax, DWORD PTR [eax+4]
  0019e	c6 40 0c 00	 mov	 BYTE PTR [eax+12], 0

; 704  :                     _Lrotate(_Pnode->_Parent->_Parent);

  001a2	8b 07		 mov	 eax, DWORD PTR [edi]
  001a4	8b 48 04	 mov	 ecx, DWORD PTR [eax+4]

; 459  :         _Nodeptr _Pnode    = _Wherenode->_Right;

  001a7	8b 71 08	 mov	 esi, DWORD PTR [ecx+8]

; 460  :         _Wherenode->_Right = _Pnode->_Left;

  001aa	8b 06		 mov	 eax, DWORD PTR [esi]
  001ac	89 41 08	 mov	 DWORD PTR [ecx+8], eax

; 461  : 
; 462  :         if (!_Pnode->_Left->_Isnil) {

  001af	8b 06		 mov	 eax, DWORD PTR [esi]
  001b1	80 78 0d 00	 cmp	 BYTE PTR [eax+13], 0
  001b5	75 03		 jne	 SHORT $LN41@Insert_nod

; 463  :             _Pnode->_Left->_Parent = _Wherenode;

  001b7	89 48 04	 mov	 DWORD PTR [eax+4], ecx
$LN41@Insert_nod:

; 464  :         }
; 465  : 
; 466  :         _Pnode->_Parent = _Wherenode->_Parent;

  001ba	8b 41 04	 mov	 eax, DWORD PTR [ecx+4]
  001bd	89 46 04	 mov	 DWORD PTR [esi+4], eax

; 467  : 
; 468  :         if (_Wherenode == _Myhead->_Parent) {

  001c0	8b 45 fc	 mov	 eax, DWORD PTR _this$1$[ebp]
  001c3	8b 00		 mov	 eax, DWORD PTR [eax]
  001c5	3b 48 04	 cmp	 ecx, DWORD PTR [eax+4]
  001c8	75 05		 jne	 SHORT $LN42@Insert_nod

; 469  :             _Myhead->_Parent = _Pnode;

  001ca	89 70 04	 mov	 DWORD PTR [eax+4], esi
  001cd	eb 0e		 jmp	 SHORT $LN45@Insert_nod
$LN42@Insert_nod:

; 470  :         } else if (_Wherenode == _Wherenode->_Parent->_Left) {

  001cf	8b 41 04	 mov	 eax, DWORD PTR [ecx+4]
  001d2	3b 08		 cmp	 ecx, DWORD PTR [eax]
  001d4	75 04		 jne	 SHORT $LN44@Insert_nod

; 471  :             _Wherenode->_Parent->_Left = _Pnode;

  001d6	89 30		 mov	 DWORD PTR [eax], esi

; 472  :         } else {

  001d8	eb 03		 jmp	 SHORT $LN45@Insert_nod
$LN44@Insert_nod:

; 473  :             _Wherenode->_Parent->_Right = _Pnode;

  001da	89 70 08	 mov	 DWORD PTR [eax+8], esi
$LN45@Insert_nod:

; 474  :         }
; 475  : 
; 476  :         _Pnode->_Left       = _Wherenode;

  001dd	89 0e		 mov	 DWORD PTR [esi], ecx
$LN52@Insert_nod:

; 668  :             }
; 669  :         }
; 670  : 
; 671  :         for (_Nodeptr _Pnode = _Newnode; _Pnode->_Parent->_Color == _Red;) {

  001df	89 71 04	 mov	 DWORD PTR [ecx+4], esi
$LN46@Insert_nod:
  001e2	8b 42 04	 mov	 eax, DWORD PTR [edx+4]
  001e5	80 78 0c 00	 cmp	 BYTE PTR [eax+12], 0
  001e9	0f 84 71 fe ff
	ff		 je	 $LL2@Insert_nod
  001ef	8b 4d f8	 mov	 ecx, DWORD PTR __Head$1$[ebp]
  001f2	5f		 pop	 edi
  001f3	5e		 pop	 esi
  001f4	5b		 pop	 ebx
$LN3@Insert_nod:

; 705  :                 }
; 706  :             }
; 707  :         }
; 708  : 
; 709  :         _Head->_Parent->_Color = _Black; // root is always black

  001f5	8b 41 04	 mov	 eax, DWORD PTR [ecx+4]
  001f8	c6 40 0c 01	 mov	 BYTE PTR [eax+12], 1

; 710  :         return _Newnode;

  001fc	8b 45 10	 mov	 eax, DWORD PTR __Newnode$[ebp]

; 711  :     }

  001ff	8b e5		 mov	 esp, ebp
  00201	5d		 pop	 ebp
  00202	c2 0c 00	 ret	 12			; 0000000cH
?_Insert_node@?$_Tree_val@U?$_Tree_simple_types@U?$pair@$$CBKPAV?$CRef@VCGraphicThing@@@@@std@@@std@@@std@@QAEPAU?$_Tree_node@U?$pair@$$CBKPAV?$CRef@VCGraphicThing@@@@@std@@PAX@2@U?$_Tree_id@PAU?$_Tree_node@U?$pair@$$CBKPAV?$CRef@VCGraphicThing@@@@@std@@PAX@std@@@2@QAU32@@Z ENDP ; std::_Tree_val<std::_Tree_simple_types<std::pair<unsigned long const ,CRef<CGraphicThing> *> > >::_Insert_node
_TEXT	ENDS
; Function compile flags: /Ogtp
; File C:\Program Files (x86)\Microsoft Visual Studio\2019\Community\VC\Tools\MSVC\14.27.29110\include\xtree
; File C:\Program Files (x86)\Microsoft Visual Studio\2019\Community\VC\Tools\MSVC\14.27.29110\include\utility
; File C:\Program Files (x86)\Microsoft Visual Studio\2019\Community\VC\Tools\MSVC\14.27.29110\include\xmemory
; File C:\Program Files (x86)\Microsoft Visual Studio\2019\Community\VC\Tools\MSVC\14.27.29110\include\xtree
; File C:\Program Files (x86)\Microsoft Visual Studio\2019\Community\VC\Tools\MSVC\14.27.29110\include\xmemory
; File C:\Program Files (x86)\Microsoft Visual Studio\2019\Community\VC\Tools\MSVC\14.27.29110\include\xtree
;	COMDAT ??1?$_Tree@V?$_Tmap_traits@KPAV?$CRef@VCGraphicThing@@@@U?$less@K@std@@V?$allocator@U?$pair@$$CBKPAV?$CRef@VCGraphicThing@@@@@std@@@3@$0A@@std@@@std@@QAE@XZ
_TEXT	SEGMENT
??1?$_Tree@V?$_Tmap_traits@KPAV?$CRef@VCGraphicThing@@@@U?$less@K@std@@V?$allocator@U?$pair@$$CBKPAV?$CRef@VCGraphicThing@@@@@std@@@3@$0A@@std@@@std@@QAE@XZ PROC ; std::_Tree<std::_Tmap_traits<unsigned long,CRef<CGraphicThing> *,std::less<unsigned long>,std::allocator<std::pair<unsigned long const ,CRef<CGraphicThing> *> >,0> >::~_Tree<std::_Tmap_traits<unsigned long,CRef<CGraphicThing> *,std::less<unsigned long>,std::allocator<std::pair<unsigned long const ,CRef<CGraphicThing> *> >,0> >, COMDAT
; _this$ = ecx

; 1189 :     ~_Tree() noexcept {

  00000	56		 push	 esi
  00001	57		 push	 edi
  00002	8b f9		 mov	 edi, ecx

; 752  :         _Erase_tree(_Al, _Myhead->_Parent);

  00004	8b 07		 mov	 eax, DWORD PTR [edi]
  00006	8b 70 04	 mov	 esi, DWORD PTR [eax+4]

; 743  :         while (!_Rootnode->_Isnil) { // free subtrees, then node

  00009	80 7e 0d 00	 cmp	 BYTE PTR [esi+13], 0
  0000d	75 23		 jne	 SHORT $LN7@Tree
  0000f	90		 npad	 1
$LL6@Tree:

; 744  :             _Erase_tree(_Al, _Rootnode->_Right);

  00010	ff 76 08	 push	 DWORD PTR [esi+8]
  00013	8b cf		 mov	 ecx, edi
  00015	57		 push	 edi
  00016	e8 00 00 00 00	 call	 ??$_Erase_tree@V?$allocator@U?$_Tree_node@U?$pair@$$CBKPAV?$CRef@VCGraphicThing@@@@@std@@PAX@std@@@std@@@?$_Tree_val@U?$_Tree_simple_types@U?$pair@$$CBKPAV?$CRef@VCGraphicThing@@@@@std@@@std@@@std@@QAEXAAV?$allocator@U?$_Tree_node@U?$pair@$$CBKPAV?$CRef@VCGraphicThing@@@@@std@@PAX@std@@@1@PAU?$_Tree_node@U?$pair@$$CBKPAV?$CRef@VCGraphicThing@@@@@std@@PAX@1@@Z ; std::_Tree_val<std::_Tree_simple_types<std::pair<unsigned long const ,CRef<CGraphicThing> *> > >::_Erase_tree<std::allocator<std::_Tree_node<std::pair<unsigned long const ,CRef<CGraphicThing> *>,void *> > >
; File C:\Program Files (x86)\Microsoft Visual Studio\2019\Community\VC\Tools\MSVC\14.27.29110\include\utility

; 599  :     _Ty _Old_val = static_cast<_Ty&&>(_Val);

  0001b	8b c6		 mov	 eax, esi

; 600  :     _Val         = static_cast<_Other&&>(_New_val);

  0001d	8b 36		 mov	 esi, DWORD PTR [esi]
; File C:\Program Files (x86)\Microsoft Visual Studio\2019\Community\VC\Tools\MSVC\14.27.29110\include\xmemory

; 689  :         _Deallocate<_New_alignof<value_type>>(_Ptr, sizeof(value_type) * _Count);

  0001f	6a 18		 push	 24			; 00000018H
  00021	50		 push	 eax
  00022	e8 00 00 00 00	 call	 ??$_Deallocate@$07$0A@@std@@YAXPAXI@Z ; std::_Deallocate<8,0>
  00027	83 c4 08	 add	 esp, 8
; File C:\Program Files (x86)\Microsoft Visual Studio\2019\Community\VC\Tools\MSVC\14.27.29110\include\xtree

; 743  :         while (!_Rootnode->_Isnil) { // free subtrees, then node

  0002a	80 7e 0d 00	 cmp	 BYTE PTR [esi+13], 0
  0002e	74 e0		 je	 SHORT $LL6@Tree
  00030	8b 07		 mov	 eax, DWORD PTR [edi]
$LN7@Tree:
; File C:\Program Files (x86)\Microsoft Visual Studio\2019\Community\VC\Tools\MSVC\14.27.29110\include\xmemory

; 689  :         _Deallocate<_New_alignof<value_type>>(_Ptr, sizeof(value_type) * _Count);

  00032	6a 18		 push	 24			; 00000018H
  00034	50		 push	 eax
  00035	e8 00 00 00 00	 call	 ??$_Deallocate@$07$0A@@std@@YAXPAXI@Z ; std::_Deallocate<8,0>
  0003a	83 c4 08	 add	 esp, 8
  0003d	5f		 pop	 edi
  0003e	5e		 pop	 esi
; File C:\Program Files (x86)\Microsoft Visual Studio\2019\Community\VC\Tools\MSVC\14.27.29110\include\xtree

; 1196 :     }

  0003f	c3		 ret	 0
??1?$_Tree@V?$_Tmap_traits@KPAV?$CRef@VCGraphicThing@@@@U?$less@K@std@@V?$allocator@U?$pair@$$CBKPAV?$CRef@VCGraphicThing@@@@@std@@@3@$0A@@std@@@std@@QAE@XZ ENDP ; std::_Tree<std::_Tmap_traits<unsigned long,CRef<CGraphicThing> *,std::less<unsigned long>,std::allocator<std::pair<unsigned long const ,CRef<CGraphicThing> *> >,0> >::~_Tree<std::_Tmap_traits<unsigned long,CRef<CGraphicThing> *,std::less<unsigned long>,std::allocator<std::pair<unsigned long const ,CRef<CGraphicThing> *> >,0> >
_TEXT	ENDS
; Function compile flags: /Ogtp
; File C:\Program Files (x86)\Microsoft Visual Studio\2019\Community\VC\Tools\MSVC\14.27.29110\include\vector
;	COMDAT ?_Xlength@?$vector@USModelThingSet@CGraphicThingInstance@@V?$allocator@USModelThingSet@CGraphicThingInstance@@@std@@@std@@CAXXZ
_TEXT	SEGMENT
?_Xlength@?$vector@USModelThingSet@CGraphicThingInstance@@V?$allocator@USModelThingSet@CGraphicThingInstance@@@std@@@std@@CAXXZ PROC ; std::vector<CGraphicThingInstance::SModelThingSet,std::allocator<CGraphicThingInstance::SModelThingSet> >::_Xlength, COMDAT

; 1704 :         _Xlength_error("vector too long");

  00000	68 00 00 00 00	 push	 OFFSET ??_C@_0BA@FOIKENOD@vector?5too?5long@
  00005	e8 00 00 00 00	 call	 ?_Xlength_error@std@@YAXPBD@Z ; std::_Xlength_error
$LN3@Xlength:
  0000a	cc		 int	 3
?_Xlength@?$vector@USModelThingSet@CGraphicThingInstance@@V?$allocator@USModelThingSet@CGraphicThingInstance@@@std@@@std@@CAXXZ ENDP ; std::vector<CGraphicThingInstance::SModelThingSet,std::allocator<CGraphicThingInstance::SModelThingSet> >::_Xlength
_TEXT	ENDS
; Function compile flags: /Ogtp
; File C:\Program Files (x86)\Microsoft Visual Studio\2019\Community\VC\Tools\MSVC\14.27.29110\include\vector
; File C:\Program Files (x86)\Microsoft Visual Studio\2019\Community\VC\Tools\MSVC\14.27.29110\include\xmemory
; File C:\Program Files (x86)\Microsoft Visual Studio\2019\Community\VC\Tools\MSVC\14.27.29110\include\vector
; File C:\Program Files (x86)\Microsoft Visual Studio\2019\Community\VC\Tools\MSVC\14.27.29110\include\xmemory
; File C:\Program Files (x86)\Microsoft Visual Studio\2019\Community\VC\Tools\MSVC\14.27.29110\include\vector
;	COMDAT ??1?$vector@USModelThingSet@CGraphicThingInstance@@V?$allocator@USModelThingSet@CGraphicThingInstance@@@std@@@std@@QAE@XZ
_TEXT	SEGMENT
??1?$vector@USModelThingSet@CGraphicThingInstance@@V?$allocator@USModelThingSet@CGraphicThingInstance@@@std@@@std@@QAE@XZ PROC ; std::vector<CGraphicThingInstance::SModelThingSet,std::allocator<CGraphicThingInstance::SModelThingSet> >::~vector<CGraphicThingInstance::SModelThingSet,std::allocator<CGraphicThingInstance::SModelThingSet> >, COMDAT
; _this$ = ecx

; 672  :     ~vector() noexcept {

  00000	57		 push	 edi
  00001	8b f9		 mov	 edi, ecx

; 1693 :         if (_Myfirst) { // destroy and deallocate old array

  00003	8b 07		 mov	 eax, DWORD PTR [edi]
  00005	85 c0		 test	 eax, eax
  00007	74 44		 je	 SHORT $LN4@vector

; 1612 :         _Destroy_range(_First, _Last, _Getal());

  00009	57		 push	 edi
  0000a	ff 77 04	 push	 DWORD PTR [edi+4]
  0000d	50		 push	 eax
  0000e	e8 00 00 00 00	 call	 ??$_Destroy_range@V?$allocator@USModelThingSet@CGraphicThingInstance@@@std@@@std@@YAXPAUSModelThingSet@CGraphicThingInstance@@QAU12@AAV?$allocator@USModelThingSet@CGraphicThingInstance@@@0@@Z ; std::_Destroy_range<std::allocator<CGraphicThingInstance::SModelThingSet> >

; 1695 :             _Getal().deallocate(_Myfirst, static_cast<size_type>(_Myend - _Myfirst));

  00013	8b 4f 08	 mov	 ecx, DWORD PTR [edi+8]
  00016	b8 ab aa aa 2a	 mov	 eax, 715827883		; 2aaaaaabH
  0001b	2b 0f		 sub	 ecx, DWORD PTR [edi]
  0001d	f7 e9		 imul	 ecx
  0001f	d1 fa		 sar	 edx, 1
  00021	8b c2		 mov	 eax, edx
  00023	c1 e8 1f	 shr	 eax, 31			; 0000001fH
  00026	03 c2		 add	 eax, edx
; File C:\Program Files (x86)\Microsoft Visual Studio\2019\Community\VC\Tools\MSVC\14.27.29110\include\xmemory

; 803  :         _Deallocate<_New_alignof<_Ty>>(_Ptr, sizeof(_Ty) * _Count);

  00028	8d 04 40	 lea	 eax, DWORD PTR [eax+eax*2]
  0002b	c1 e0 02	 shl	 eax, 2
  0002e	50		 push	 eax
  0002f	ff 37		 push	 DWORD PTR [edi]
  00031	e8 00 00 00 00	 call	 ??$_Deallocate@$07$0A@@std@@YAXPAXI@Z ; std::_Deallocate<8,0>
; File C:\Program Files (x86)\Microsoft Visual Studio\2019\Community\VC\Tools\MSVC\14.27.29110\include\vector

; 1697 :             _Myfirst = pointer();

  00036	c7 07 00 00 00
	00		 mov	 DWORD PTR [edi], 0
; File C:\Program Files (x86)\Microsoft Visual Studio\2019\Community\VC\Tools\MSVC\14.27.29110\include\xmemory

; 803  :         _Deallocate<_New_alignof<_Ty>>(_Ptr, sizeof(_Ty) * _Count);

  0003c	83 c4 14	 add	 esp, 20			; 00000014H
; File C:\Program Files (x86)\Microsoft Visual Studio\2019\Community\VC\Tools\MSVC\14.27.29110\include\vector

; 1698 :             _Mylast  = pointer();

  0003f	c7 47 04 00 00
	00 00		 mov	 DWORD PTR [edi+4], 0

; 1699 :             _Myend   = pointer();

  00046	c7 47 08 00 00
	00 00		 mov	 DWORD PTR [edi+8], 0
$LN4@vector:
  0004d	5f		 pop	 edi

; 673  :         _Tidy();
; 674  : #if _ITERATOR_DEBUG_LEVEL != 0
; 675  :         auto&& _Alproxy = _GET_PROXY_ALLOCATOR(_Alty, _Getal());
; 676  :         _Delete_plain_internal(_Alproxy, _STD exchange(_Mypair._Myval2._Myproxy, nullptr));
; 677  : #endif // _ITERATOR_DEBUG_LEVEL != 0
; 678  :     }

  0004e	c3		 ret	 0
??1?$vector@USModelThingSet@CGraphicThingInstance@@V?$allocator@USModelThingSet@CGraphicThingInstance@@@std@@@std@@QAE@XZ ENDP ; std::vector<CGraphicThingInstance::SModelThingSet,std::allocator<CGraphicThingInstance::SModelThingSet> >::~vector<CGraphicThingInstance::SModelThingSet,std::allocator<CGraphicThingInstance::SModelThingSet> >
_TEXT	ENDS
; Function compile flags: /Ogtp
; File C:\Program Files (x86)\Microsoft Visual Studio\2019\Community\VC\Tools\MSVC\14.27.29110\include\vector
;	COMDAT ?_Xlength@?$vector@PAVCGrannyLODController@@V?$allocator@PAVCGrannyLODController@@@std@@@std@@CAXXZ
_TEXT	SEGMENT
?_Xlength@?$vector@PAVCGrannyLODController@@V?$allocator@PAVCGrannyLODController@@@std@@@std@@CAXXZ PROC ; std::vector<CGrannyLODController *,std::allocator<CGrannyLODController *> >::_Xlength, COMDAT

; 1704 :         _Xlength_error("vector too long");

  00000	68 00 00 00 00	 push	 OFFSET ??_C@_0BA@FOIKENOD@vector?5too?5long@
  00005	e8 00 00 00 00	 call	 ?_Xlength_error@std@@YAXPBD@Z ; std::_Xlength_error
$LN3@Xlength:
  0000a	cc		 int	 3
?_Xlength@?$vector@PAVCGrannyLODController@@V?$allocator@PAVCGrannyLODController@@@std@@@std@@CAXXZ ENDP ; std::vector<CGrannyLODController *,std::allocator<CGrannyLODController *> >::_Xlength
_TEXT	ENDS
; Function compile flags: /Ogtp
; File C:\Program Files (x86)\Microsoft Visual Studio\2019\Community\VC\Tools\MSVC\14.27.29110\include\vector
; File C:\Program Files (x86)\Microsoft Visual Studio\2019\Community\VC\Tools\MSVC\14.27.29110\include\xmemory
; File C:\Program Files (x86)\Microsoft Visual Studio\2019\Community\VC\Tools\MSVC\14.27.29110\include\vector
; File C:\Program Files (x86)\Microsoft Visual Studio\2019\Community\VC\Tools\MSVC\14.27.29110\include\xmemory
; File C:\Program Files (x86)\Microsoft Visual Studio\2019\Community\VC\Tools\MSVC\14.27.29110\include\vector
;	COMDAT ??1?$vector@PAVCGrannyLODController@@V?$allocator@PAVCGrannyLODController@@@std@@@std@@QAE@XZ
_TEXT	SEGMENT
??1?$vector@PAVCGrannyLODController@@V?$allocator@PAVCGrannyLODController@@@std@@@std@@QAE@XZ PROC ; std::vector<CGrannyLODController *,std::allocator<CGrannyLODController *> >::~vector<CGrannyLODController *,std::allocator<CGrannyLODController *> >, COMDAT
; _this$ = ecx

; 672  :     ~vector() noexcept {

  00000	56		 push	 esi
  00001	8b f1		 mov	 esi, ecx

; 1693 :         if (_Myfirst) { // destroy and deallocate old array

  00003	8b 0e		 mov	 ecx, DWORD PTR [esi]
  00005	85 c9		 test	 ecx, ecx
  00007	74 26		 je	 SHORT $LN4@vector

; 1694 :             _Destroy(_Myfirst, _Mylast);
; 1695 :             _Getal().deallocate(_Myfirst, static_cast<size_type>(_Myend - _Myfirst));

  00009	8b 46 08	 mov	 eax, DWORD PTR [esi+8]
  0000c	2b c1		 sub	 eax, ecx
; File C:\Program Files (x86)\Microsoft Visual Studio\2019\Community\VC\Tools\MSVC\14.27.29110\include\xmemory

; 803  :         _Deallocate<_New_alignof<_Ty>>(_Ptr, sizeof(_Ty) * _Count);

  0000e	83 e0 fc	 and	 eax, -4			; fffffffcH
  00011	50		 push	 eax
  00012	51		 push	 ecx
  00013	e8 00 00 00 00	 call	 ??$_Deallocate@$07$0A@@std@@YAXPAXI@Z ; std::_Deallocate<8,0>
; File C:\Program Files (x86)\Microsoft Visual Studio\2019\Community\VC\Tools\MSVC\14.27.29110\include\vector

; 1697 :             _Myfirst = pointer();

  00018	c7 06 00 00 00
	00		 mov	 DWORD PTR [esi], 0
; File C:\Program Files (x86)\Microsoft Visual Studio\2019\Community\VC\Tools\MSVC\14.27.29110\include\xmemory

; 803  :         _Deallocate<_New_alignof<_Ty>>(_Ptr, sizeof(_Ty) * _Count);

  0001e	83 c4 08	 add	 esp, 8
; File C:\Program Files (x86)\Microsoft Visual Studio\2019\Community\VC\Tools\MSVC\14.27.29110\include\vector

; 1698 :             _Mylast  = pointer();

  00021	c7 46 04 00 00
	00 00		 mov	 DWORD PTR [esi+4], 0

; 1699 :             _Myend   = pointer();

  00028	c7 46 08 00 00
	00 00		 mov	 DWORD PTR [esi+8], 0
$LN4@vector:
  0002f	5e		 pop	 esi

; 673  :         _Tidy();
; 674  : #if _ITERATOR_DEBUG_LEVEL != 0
; 675  :         auto&& _Alproxy = _GET_PROXY_ALLOCATOR(_Alty, _Getal());
; 676  :         _Delete_plain_internal(_Alproxy, _STD exchange(_Mypair._Myval2._Myproxy, nullptr));
; 677  : #endif // _ITERATOR_DEBUG_LEVEL != 0
; 678  :     }

  00030	c3		 ret	 0
??1?$vector@PAVCGrannyLODController@@V?$allocator@PAVCGrannyLODController@@@std@@@std@@QAE@XZ ENDP ; std::vector<CGrannyLODController *,std::allocator<CGrannyLODController *> >::~vector<CGrannyLODController *,std::allocator<CGrannyLODController *> >
_TEXT	ENDS
; Function compile flags: /Ogtp
; File C:\DS Project\DS Files\Source\ClientSource\Client\eterGrnLib\ThingInstance.cpp
; File C:\Program Files (x86)\Microsoft Visual Studio\2019\Community\VC\Tools\MSVC\14.27.29110\include\vector
; File C:\DS Project\DS Files\Source\ClientSource\Client\eterGrnLib\ThingInstance.cpp
; File C:\Program Files (x86)\Microsoft Visual Studio\2019\Community\VC\Tools\MSVC\14.27.29110\include\algorithm
; File C:\DS Project\DS Files\Source\ClientSource\Client\eterGrnLib\LODController.h
; File C:\Program Files (x86)\Microsoft Visual Studio\2019\Community\VC\Tools\MSVC\14.27.29110\include\algorithm
; File C:\DS Project\DS Files\Source\ClientSource\Client\eterGrnLib\ThingInstance.cpp
;	COMDAT ?OnRenderPCBlocker@CGraphicThingInstance@@MAEXXZ
_TEXT	SEGMENT
?OnRenderPCBlocker@CGraphicThingInstance@@MAEXXZ PROC	; CGraphicThingInstance::OnRenderPCBlocker, COMDAT
; _this$ = ecx

; 894  : {

  00000	53		 push	 ebx
; File C:\Program Files (x86)\Microsoft Visual Studio\2019\Community\VC\Tools\MSVC\14.27.29110\include\vector

; 42   :     _Vector_const_iterator(_Tptr _Parg, const _Container_base* _Pvector) noexcept : _Ptr(_Parg) {

  00001	8b 99 8c 02 00
	00		 mov	 ebx, DWORD PTR [ecx+652]
; File C:\DS Project\DS Files\Source\ClientSource\Client\eterGrnLib\ThingInstance.cpp

; 894  : {

  00007	56		 push	 esi
; File C:\Program Files (x86)\Microsoft Visual Studio\2019\Community\VC\Tools\MSVC\14.27.29110\include\algorithm

; 235  :     for (; _UFirst != _ULast; ++_UFirst) {

  00008	8b b1 88 02 00
	00		 mov	 esi, DWORD PTR [ecx+648]
  0000e	3b f3		 cmp	 esi, ebx
  00010	74 1d		 je	 SHORT $LN17@OnRenderPC
  00012	57		 push	 edi
$LL18@OnRenderPC:

; 236  :         _Func(*_UFirst);

  00013	8b 3e		 mov	 edi, DWORD PTR [esi]
; File C:\DS Project\DS Files\Source\ClientSource\Client\eterGrnLib\LODController.h

; 51   : 				if (pController->isModelInstance())

  00015	8b cf		 mov	 ecx, edi
  00017	e8 00 00 00 00	 call	 ?isModelInstance@CGrannyLODController@@QAEHXZ ; CGrannyLODController::isModelInstance
  0001c	85 c0		 test	 eax, eax
  0001e	74 07		 je	 SHORT $LN16@OnRenderPC

; 52   : 					pController->RenderWithOneTexture();

  00020	8b cf		 mov	 ecx, edi
  00022	e8 00 00 00 00	 call	 ?RenderWithOneTexture@CGrannyLODController@@QAEXXZ ; CGrannyLODController::RenderWithOneTexture
$LN16@OnRenderPC:
; File C:\Program Files (x86)\Microsoft Visual Studio\2019\Community\VC\Tools\MSVC\14.27.29110\include\algorithm

; 235  :     for (; _UFirst != _ULast; ++_UFirst) {

  00027	83 c6 04	 add	 esi, 4
  0002a	3b f3		 cmp	 esi, ebx
  0002c	75 e5		 jne	 SHORT $LL18@OnRenderPC
  0002e	5f		 pop	 edi
$LN17@OnRenderPC:
  0002f	5e		 pop	 esi
; File C:\DS Project\DS Files\Source\ClientSource\Client\eterGrnLib\ThingInstance.cpp

; 897  : }

  00030	5b		 pop	 ebx
  00031	c3		 ret	 0
?OnRenderPCBlocker@CGraphicThingInstance@@MAEXXZ ENDP	; CGraphicThingInstance::OnRenderPCBlocker
_TEXT	ENDS
; Function compile flags: /Ogtp
; File C:\DS Project\DS Files\Source\ClientSource\Client\eterGrnLib\ThingInstance.cpp
; File C:\Program Files (x86)\Microsoft Visual Studio\2019\Community\VC\Tools\MSVC\14.27.29110\include\vector
; File C:\DS Project\DS Files\Source\ClientSource\Client\eterGrnLib\ThingInstance.cpp
; File C:\Program Files (x86)\Microsoft Visual Studio\2019\Community\VC\Tools\MSVC\14.27.29110\include\algorithm
; File C:\DS Project\DS Files\Source\ClientSource\Client\eterGrnLib\LODController.h
; File C:\Program Files (x86)\Microsoft Visual Studio\2019\Community\VC\Tools\MSVC\14.27.29110\include\algorithm
; File C:\DS Project\DS Files\Source\ClientSource\Client\eterGrnLib\ThingInstance.cpp
;	COMDAT ?OnRenderShadow@CGraphicThingInstance@@MAEXXZ
_TEXT	SEGMENT
?OnRenderShadow@CGraphicThingInstance@@MAEXXZ PROC	; CGraphicThingInstance::OnRenderShadow, COMDAT
; _this$ = ecx

; 888  : {

  00000	53		 push	 ebx
; File C:\Program Files (x86)\Microsoft Visual Studio\2019\Community\VC\Tools\MSVC\14.27.29110\include\vector

; 42   :     _Vector_const_iterator(_Tptr _Parg, const _Container_base* _Pvector) noexcept : _Ptr(_Parg) {

  00001	8b 99 8c 02 00
	00		 mov	 ebx, DWORD PTR [ecx+652]
; File C:\DS Project\DS Files\Source\ClientSource\Client\eterGrnLib\ThingInstance.cpp

; 888  : {

  00007	56		 push	 esi
; File C:\Program Files (x86)\Microsoft Visual Studio\2019\Community\VC\Tools\MSVC\14.27.29110\include\algorithm

; 235  :     for (; _UFirst != _ULast; ++_UFirst) {

  00008	8b b1 88 02 00
	00		 mov	 esi, DWORD PTR [ecx+648]
  0000e	3b f3		 cmp	 esi, ebx
  00010	74 1d		 je	 SHORT $LN17@OnRenderSh
  00012	57		 push	 edi
$LL18@OnRenderSh:

; 236  :         _Func(*_UFirst);

  00013	8b 3e		 mov	 edi, DWORD PTR [esi]
; File C:\DS Project\DS Files\Source\ClientSource\Client\eterGrnLib\LODController.h

; 96   : 				if (pController->isModelInstance())

  00015	8b cf		 mov	 ecx, edi
  00017	e8 00 00 00 00	 call	 ?isModelInstance@CGrannyLODController@@QAEHXZ ; CGrannyLODController::isModelInstance
  0001c	85 c0		 test	 eax, eax
  0001e	74 07		 je	 SHORT $LN16@OnRenderSh

; 97   : 					pController->RenderShadow();

  00020	8b cf		 mov	 ecx, edi
  00022	e8 00 00 00 00	 call	 ?RenderShadow@CGrannyLODController@@QAEXXZ ; CGrannyLODController::RenderShadow
$LN16@OnRenderSh:
; File C:\Program Files (x86)\Microsoft Visual Studio\2019\Community\VC\Tools\MSVC\14.27.29110\include\algorithm

; 235  :     for (; _UFirst != _ULast; ++_UFirst) {

  00027	83 c6 04	 add	 esi, 4
  0002a	3b f3		 cmp	 esi, ebx
  0002c	75 e5		 jne	 SHORT $LL18@OnRenderSh
  0002e	5f		 pop	 edi
$LN17@OnRenderSh:
  0002f	5e		 pop	 esi
; File C:\DS Project\DS Files\Source\ClientSource\Client\eterGrnLib\ThingInstance.cpp

; 891  : }

  00030	5b		 pop	 ebx
  00031	c3		 ret	 0
?OnRenderShadow@CGraphicThingInstance@@MAEXXZ ENDP	; CGraphicThingInstance::OnRenderShadow
_TEXT	ENDS
; Function compile flags: /Ogtp
; File C:\DS Project\DS Files\Source\ClientSource\Client\eterGrnLib\ThingInstance.cpp
; File C:\Program Files (x86)\Microsoft Visual Studio\2019\Community\VC\Tools\MSVC\14.27.29110\include\vector
; File C:\Program Files (x86)\Microsoft Visual Studio\2019\Community\VC\Tools\MSVC\14.27.29110\include\algorithm
; File C:\DS Project\DS Files\Source\ClientSource\Client\eterGrnLib\LODController.h
; File C:\Program Files (x86)\Microsoft Visual Studio\2019\Community\VC\Tools\MSVC\14.27.29110\include\algorithm
; File C:\DS Project\DS Files\Source\ClientSource\Client\eterGrnLib\ThingInstance.cpp
;	COMDAT ?OnRenderToShadowMap@CGraphicThingInstance@@MAEXXZ
_TEXT	SEGMENT
?OnRenderToShadowMap@CGraphicThingInstance@@MAEXXZ PROC	; CGraphicThingInstance::OnRenderToShadowMap, COMDAT
; _this$ = ecx

; 880  : 	if (!m_bUpdated)

  00000	80 b9 48 02 00
	00 00		 cmp	 BYTE PTR [ecx+584], 0
  00007	74 35		 je	 SHORT $LN18@OnRenderTo
; File C:\Program Files (x86)\Microsoft Visual Studio\2019\Community\VC\Tools\MSVC\14.27.29110\include\vector

; 42   :     _Vector_const_iterator(_Tptr _Parg, const _Container_base* _Pvector) noexcept : _Ptr(_Parg) {

  00009	53		 push	 ebx
  0000a	8b 99 8c 02 00
	00		 mov	 ebx, DWORD PTR [ecx+652]
  00010	56		 push	 esi
; File C:\Program Files (x86)\Microsoft Visual Studio\2019\Community\VC\Tools\MSVC\14.27.29110\include\algorithm

; 235  :     for (; _UFirst != _ULast; ++_UFirst) {

  00011	8b b1 88 02 00
	00		 mov	 esi, DWORD PTR [ecx+648]
  00017	3b f3		 cmp	 esi, ebx
  00019	74 21		 je	 SHORT $LN28@OnRenderTo
  0001b	57		 push	 edi
  0001c	0f 1f 40 00	 npad	 4
$LL19@OnRenderTo:

; 236  :         _Func(*_UFirst);

  00020	8b 3e		 mov	 edi, DWORD PTR [esi]
; File C:\DS Project\DS Files\Source\ClientSource\Client\eterGrnLib\LODController.h

; 87   : 				if (pController->isModelInstance())

  00022	8b cf		 mov	 ecx, edi
  00024	e8 00 00 00 00	 call	 ?isModelInstance@CGrannyLODController@@QAEHXZ ; CGrannyLODController::isModelInstance
  00029	85 c0		 test	 eax, eax
  0002b	74 07		 je	 SHORT $LN17@OnRenderTo

; 88   : 					pController->RenderToShadowMap();

  0002d	8b cf		 mov	 ecx, edi
  0002f	e8 00 00 00 00	 call	 ?RenderToShadowMap@CGrannyLODController@@QAEXXZ ; CGrannyLODController::RenderToShadowMap
$LN17@OnRenderTo:
; File C:\Program Files (x86)\Microsoft Visual Studio\2019\Community\VC\Tools\MSVC\14.27.29110\include\algorithm

; 235  :     for (; _UFirst != _ULast; ++_UFirst) {

  00034	83 c6 04	 add	 esi, 4
  00037	3b f3		 cmp	 esi, ebx
  00039	75 e5		 jne	 SHORT $LL19@OnRenderTo
  0003b	5f		 pop	 edi
$LN28@OnRenderTo:
  0003c	5e		 pop	 esi
  0003d	5b		 pop	 ebx
$LN18@OnRenderTo:
; File C:\DS Project\DS Files\Source\ClientSource\Client\eterGrnLib\ThingInstance.cpp

; 885  : }

  0003e	c3		 ret	 0
?OnRenderToShadowMap@CGraphicThingInstance@@MAEXXZ ENDP	; CGraphicThingInstance::OnRenderToShadowMap
_TEXT	ENDS
; Function compile flags: /Ogtp
; File C:\DS Project\DS Files\Source\ClientSource\Client\eterGrnLib\ThingInstance.cpp
;	COMDAT ?OnBlendRender@CGraphicThingInstance@@MAEXXZ
_TEXT	SEGMENT
?OnBlendRender@CGraphicThingInstance@@MAEXXZ PROC	; CGraphicThingInstance::OnBlendRender, COMDAT
; _this$ = ecx

; 835  : 	BlendRenderWithOneTexture();

  00000	e9 00 00 00 00	 jmp	 ?BlendRenderWithOneTexture@CGraphicThingInstance@@QAEXXZ ; CGraphicThingInstance::BlendRenderWithOneTexture
?OnBlendRender@CGraphicThingInstance@@MAEXXZ ENDP	; CGraphicThingInstance::OnBlendRender
_TEXT	ENDS
; Function compile flags: /Ogtp
; File C:\DS Project\DS Files\Source\ClientSource\Client\eterGrnLib\ThingInstance.cpp
;	COMDAT ?OnRender@CGraphicThingInstance@@MAEXXZ
_TEXT	SEGMENT
?OnRender@CGraphicThingInstance@@MAEXXZ PROC		; CGraphicThingInstance::OnRender, COMDAT
; _this$ = ecx

; 830  : 	RenderWithOneTexture();

  00000	e9 00 00 00 00	 jmp	 ?RenderWithOneTexture@CGraphicThingInstance@@QAEXXZ ; CGraphicThingInstance::RenderWithOneTexture
?OnRender@CGraphicThingInstance@@MAEXXZ ENDP		; CGraphicThingInstance::OnRender
_TEXT	ENDS
; Function compile flags: /Ogtp
; File C:\DS Project\DS Files\Source\ClientSource\Client\eterGrnLib\ThingInstance.cpp
;	COMDAT ?OnUpdate@CGraphicThingInstance@@MAEXXZ
_TEXT	SEGMENT
?OnUpdate@CGraphicThingInstance@@MAEXXZ PROC		; CGraphicThingInstance::OnUpdate, COMDAT
; _this$ = ecx

; 797  : {

  00000	56		 push	 esi
  00001	8b f1		 mov	 esi, ecx

; 798  : #ifdef __PERFORMANCE_CHECKER__
; 799  : 	DWORD t1=timeGetTime();
; 800  : #endif
; 801  : 	UpdateLODLevel();

  00003	e8 00 00 00 00	 call	 ?UpdateLODLevel@CGraphicThingInstance@@QAEXXZ ; CGraphicThingInstance::UpdateLODLevel

; 802  : #ifdef __PERFORMANCE_CHECKER__
; 803  : 	DWORD t2=timeGetTime();
; 804  : #endif
; 805  : 	UpdateTime();

  00008	8b ce		 mov	 ecx, esi
  0000a	5e		 pop	 esi
  0000b	e9 00 00 00 00	 jmp	 ?UpdateTime@CGraphicThingInstance@@QAEXXZ ; CGraphicThingInstance::UpdateTime
?OnUpdate@CGraphicThingInstance@@MAEXXZ ENDP		; CGraphicThingInstance::OnUpdate
_TEXT	ENDS
; Function compile flags: /Ogtp
; File C:\DS Project\DS Files\Source\ClientSource\Client\eterGrnLib\ThingInstance.cpp
; File C:\Program Files (x86)\Microsoft Visual Studio\2019\Community\VC\Tools\MSVC\14.27.29110\include\vector
; File C:\DS Project\DS Files\Source\ClientSource\Client\eterGrnLib\ThingInstance.cpp
; File C:\Program Files (x86)\Microsoft Visual Studio\2019\Community\VC\Tools\MSVC\14.27.29110\include\vector
; File C:\DS Project\DS Files\Source\ClientSource\Client\eterGrnLib\ThingInstance.cpp
; File C:\Program Files (x86)\Microsoft Visual Studio\2019\Community\VC\Tools\MSVC\14.27.29110\include\vector
; File C:\DS Project\DS Files\Source\ClientSource\Client\eterGrnLib\ThingInstance.cpp
; File C:\Program Files (x86)\Microsoft Visual Studio\2019\Community\VC\Tools\MSVC\14.27.29110\include\vector
; File C:\DS Project\DS Files\Source\ClientSource\Client\eterGrnLib\ThingInstance.cpp
;	COMDAT ?OnDeform@CGraphicThingInstance@@MAEXXZ
_TEXT	SEGMENT
?OnDeform@CGraphicThingInstance@@MAEXXZ PROC		; CGraphicThingInstance::OnDeform, COMDAT
; _this$ = ecx

; 713  : {

  00000	56		 push	 esi
  00001	8b f1		 mov	 esi, ecx
  00003	57		 push	 edi

; 715  : 	for (std::vector<CGrannyLODController*>::size_type iMod = 0; iMod != m_LODControllerVector.size(); iMod++)

  00004	33 ff		 xor	 edi, edi
  00006	c6 86 48 02 00
	00 01		 mov	 BYTE PTR [esi+584], 1
; File C:\Program Files (x86)\Microsoft Visual Studio\2019\Community\VC\Tools\MSVC\14.27.29110\include\vector

; 1484 :         return static_cast<size_type>(_My_data._Mylast - _My_data._Myfirst);

  0000d	8b 86 8c 02 00
	00		 mov	 eax, DWORD PTR [esi+652]
  00013	8b 8e 88 02 00
	00		 mov	 ecx, DWORD PTR [esi+648]
  00019	2b c1		 sub	 eax, ecx
; File C:\DS Project\DS Files\Source\ClientSource\Client\eterGrnLib\ThingInstance.cpp

; 715  : 	for (std::vector<CGrannyLODController*>::size_type iMod = 0; iMod != m_LODControllerVector.size(); iMod++)

  0001b	83 f8 04	 cmp	 eax, 4
  0001e	72 50		 jb	 SHORT $LN3@OnDeform
  00020	53		 push	 ebx
$LL4@OnDeform:

; 716  : 	{
; 717  : 		CGrannyLODController * pkLOD = m_LODControllerVector[iMod];

  00021	8b 1c b9	 mov	 ebx, DWORD PTR [ecx+edi*4]

; 718  : 		if (!pkLOD->isModelInstance())

  00024	8b cb		 mov	 ecx, ebx
  00026	e8 00 00 00 00	 call	 ?isModelInstance@CGrannyLODController@@QAEHXZ ; CGrannyLODController::isModelInstance
  0002b	85 c0		 test	 eax, eax
  0002d	74 2a		 je	 SHORT $LN2@OnDeform
; File C:\Program Files (x86)\Microsoft Visual Studio\2019\Community\VC\Tools\MSVC\14.27.29110\include\vector

; 1484 :         return static_cast<size_type>(_My_data._Mylast - _My_data._Myfirst);

  0002f	8b 86 98 02 00
	00		 mov	 eax, DWORD PTR [esi+664]
  00035	2b 86 94 02 00
	00		 sub	 eax, DWORD PTR [esi+660]
; File C:\DS Project\DS Files\Source\ClientSource\Client\eterGrnLib\ThingInstance.cpp

; 722  : 		if (m_modelThingSetVector.size() == 1)

  0003b	83 e8 0c	 sub	 eax, 12			; 0000000cH
  0003e	83 f8 0c	 cmp	 eax, 12			; 0000000cH
  00041	72 08		 jb	 SHORT $LN21@OnDeform

; 727  : #endif
; 728  : 		else
; 729  : #endif
; 730  : 			pkLOD->Deform(&m_worldMatrix);

  00043	8d 46 6c	 lea	 eax, DWORD PTR [esi+108]
  00046	83 ff 05	 cmp	 edi, 5
  00049	75 06		 jne	 SHORT $LN22@OnDeform
$LN21@OnDeform:

; 723  : 			pkLOD->Deform(&m_TransformMatrix);
; 724  : #ifdef ENABLE_ACCE_SYSTEM
; 725  : 		else if (iMod == 5) /* CRaceData::PART_ACCE  */
; 726  : 			pkLOD->Deform(&m_TransformMatrix);

  0004b	8d 86 f8 01 00
	00		 lea	 eax, DWORD PTR [esi+504]
$LN22@OnDeform:

; 715  : 	for (std::vector<CGrannyLODController*>::size_type iMod = 0; iMod != m_LODControllerVector.size(); iMod++)

  00051	50		 push	 eax
  00052	8b cb		 mov	 ecx, ebx
  00054	e8 00 00 00 00	 call	 ?Deform@CGrannyLODController@@QAEXPBUD3DXMATRIX@@@Z ; CGrannyLODController::Deform
$LN2@OnDeform:
; File C:\Program Files (x86)\Microsoft Visual Studio\2019\Community\VC\Tools\MSVC\14.27.29110\include\vector

; 1484 :         return static_cast<size_type>(_My_data._Mylast - _My_data._Myfirst);

  00059	8b 86 8c 02 00
	00		 mov	 eax, DWORD PTR [esi+652]
; File C:\DS Project\DS Files\Source\ClientSource\Client\eterGrnLib\ThingInstance.cpp

; 715  : 	for (std::vector<CGrannyLODController*>::size_type iMod = 0; iMod != m_LODControllerVector.size(); iMod++)

  0005f	47		 inc	 edi
; File C:\Program Files (x86)\Microsoft Visual Studio\2019\Community\VC\Tools\MSVC\14.27.29110\include\vector

; 1484 :         return static_cast<size_type>(_My_data._Mylast - _My_data._Myfirst);

  00060	8b 8e 88 02 00
	00		 mov	 ecx, DWORD PTR [esi+648]
  00066	2b c1		 sub	 eax, ecx
  00068	c1 f8 02	 sar	 eax, 2
; File C:\DS Project\DS Files\Source\ClientSource\Client\eterGrnLib\ThingInstance.cpp

; 715  : 	for (std::vector<CGrannyLODController*>::size_type iMod = 0; iMod != m_LODControllerVector.size(); iMod++)

  0006b	3b f8		 cmp	 edi, eax
  0006d	75 b2		 jne	 SHORT $LL4@OnDeform
  0006f	5b		 pop	 ebx
$LN3@OnDeform:
  00070	5f		 pop	 edi

; 731  : 	}
; 732  : }

  00071	5e		 pop	 esi
  00072	c3		 ret	 0
?OnDeform@CGraphicThingInstance@@MAEXXZ ENDP		; CGraphicThingInstance::OnDeform
_TEXT	ENDS
; Function compile flags: /Ogtp
; File C:\DS Project\DS Files\Source\ClientSource\Client\eterGrnLib\ThingInstance.cpp
; File C:\Program Files (x86)\Microsoft Visual Studio\2019\Community\VC\Tools\MSVC\14.27.29110\include\xtree
; File C:\DS Project\DS Files\Source\ClientSource\Client\eterGrnLib\ThingInstance.cpp
; File C:\Program Files (x86)\Microsoft Visual Studio\2019\Community\VC\Tools\MSVC\14.27.29110\include\xtree
; File C:\DS Project\DS Files\Source\ClientSource\Client\eterBase\Stl.h
; File C:\DS Project\DS Files\Source\ClientSource\Client\eterlib\Ref.h
; File C:\Program Files (x86)\Microsoft Visual Studio\2019\Community\VC\Tools\MSVC\14.27.29110\include\xtree
; File C:\DS Project\DS Files\Source\ClientSource\Client\eterBase\Stl.h
; File C:\Program Files (x86)\Microsoft Visual Studio\2019\Community\VC\Tools\MSVC\14.27.29110\include\xtree
; File C:\Program Files (x86)\Microsoft Visual Studio\2019\Community\VC\Tools\MSVC\14.27.29110\include\utility
; File C:\Program Files (x86)\Microsoft Visual Studio\2019\Community\VC\Tools\MSVC\14.27.29110\include\xmemory
; File C:\Program Files (x86)\Microsoft Visual Studio\2019\Community\VC\Tools\MSVC\14.27.29110\include\xtree
; File C:\Program Files (x86)\Microsoft Visual Studio\2019\Community\VC\Tools\MSVC\14.27.29110\include\vector
; File C:\Program Files (x86)\Microsoft Visual Studio\2019\Community\VC\Tools\MSVC\14.27.29110\include\xtree
; File C:\DS Project\DS Files\Source\ClientSource\Client\eterGrnLib\ThingInstance.cpp
; File C:\Program Files (x86)\Microsoft Visual Studio\2019\Community\VC\Tools\MSVC\14.27.29110\include\xtree
; File C:\Program Files (x86)\Microsoft Visual Studio\2019\Community\VC\Tools\MSVC\14.27.29110\include\vector
; File C:\DS Project\DS Files\Source\ClientSource\Client\eterGrnLib\ThingInstance.cpp
; File C:\Program Files (x86)\Microsoft Visual Studio\2019\Community\VC\Tools\MSVC\14.27.29110\include\vector
; File C:\DS Project\DS Files\Source\ClientSource\Client\eterGrnLib\ThingInstance.cpp
; File C:\Program Files (x86)\Microsoft Visual Studio\2019\Community\VC\Tools\MSVC\14.27.29110\include\vector
; File C:\DS Project\DS Files\Source\ClientSource\Client\eterBase\Stl.h
; File C:\DS Project\DS Files\Source\ClientSource\Client\eterlib\Ref.h
; File C:\DS Project\DS Files\Source\ClientSource\Client\eterBase\Stl.h
; File C:\Program Files (x86)\Microsoft Visual Studio\2019\Community\VC\Tools\MSVC\14.27.29110\include\vector
; File C:\DS Project\DS Files\Source\ClientSource\Client\eterBase\Stl.h
; File C:\DS Project\DS Files\Source\ClientSource\Client\eterlib\Ref.h
; File C:\DS Project\DS Files\Source\ClientSource\Client\eterBase\Stl.h
; File C:\DS Project\DS Files\Source\ClientSource\Client\eterGrnLib\ThingInstance.cpp
; File C:\Program Files (x86)\Microsoft Visual Studio\2019\Community\VC\Tools\MSVC\14.27.29110\include\vector
; File C:\DS Project\DS Files\Source\ClientSource\Client\eterGrnLib\ThingInstance.cpp
;	COMDAT ?OnClear@CGraphicThingInstance@@MAEXXZ
_TEXT	SEGMENT
_this$1$ = -24						; size = 4
_d$1$ = -20						; size = 4
tv818 = -16						; size = 4
__$EHRec$ = -12						; size = 12
?OnClear@CGraphicThingInstance@@MAEXXZ PROC		; CGraphicThingInstance::OnClear, COMDAT
; _this$ = ecx

; 955  : {

  00000	55		 push	 ebp
  00001	8b ec		 mov	 ebp, esp
  00003	6a ff		 push	 -1
  00005	68 00 00 00 00	 push	 __ehhandler$?OnClear@CGraphicThingInstance@@MAEXXZ
  0000a	64 a1 00 00 00
	00		 mov	 eax, DWORD PTR fs:0
  00010	50		 push	 eax
  00011	83 ec 0c	 sub	 esp, 12			; 0000000cH
  00014	53		 push	 ebx
  00015	56		 push	 esi
  00016	57		 push	 edi
  00017	a1 00 00 00 00	 mov	 eax, DWORD PTR ___security_cookie
  0001c	33 c5		 xor	 eax, ebp
  0001e	50		 push	 eax
  0001f	8d 45 f4	 lea	 eax, DWORD PTR __$EHRec$[ebp]
  00022	64 a3 00 00 00
	00		 mov	 DWORD PTR fs:0, eax
  00028	8b d9		 mov	 ebx, ecx
  0002a	89 5d e8	 mov	 DWORD PTR _this$1$[ebp], ebx

; 956  : 	stl_wipe(m_LODControllerVector);

  0002d	8d 83 88 02 00
	00		 lea	 eax, DWORD PTR [ebx+648]
  00033	50		 push	 eax
  00034	e8 00 00 00 00	 call	 ??$stl_wipe@V?$vector@PAVCGrannyLODController@@V?$allocator@PAVCGrannyLODController@@@std@@@std@@@@YAXAAV?$vector@PAVCGrannyLODController@@V?$allocator@PAVCGrannyLODController@@@std@@@std@@@Z ; stl_wipe<std::vector<CGrannyLODController *,std::allocator<CGrannyLODController *> > >
; File C:\Program Files (x86)\Microsoft Visual Studio\2019\Community\VC\Tools\MSVC\14.27.29110\include\xtree

; 1240 :         return iterator(_Scary->_Myhead->_Left, _Scary);

  00039	8b bb a0 02 00
	00		 mov	 edi, DWORD PTR [ebx+672]
; File C:\DS Project\DS Files\Source\ClientSource\Client\eterGrnLib\ThingInstance.cpp

; 957  : 	stl_wipe_second(m_roMotionThingMap);

  0003f	81 c3 a0 02 00
	00		 add	 ebx, 672		; 000002a0H
  00045	83 c4 04	 add	 esp, 4
; File C:\Program Files (x86)\Microsoft Visual Studio\2019\Community\VC\Tools\MSVC\14.27.29110\include\xtree

; 39   :     _Tree_unchecked_const_iterator(_Nodeptr _Pnode, const _Mytree* _Plist) noexcept : _Ptr(_Pnode) {

  00048	8b 37		 mov	 esi, DWORD PTR [edi]
  0004a	3b f7		 cmp	 esi, edi
; File C:\DS Project\DS Files\Source\ClientSource\Client\eterBase\Stl.h

; 127  : 	for (TContainer::iterator i = container.begin(); i != container.end(); ++i)

  0004c	74 75		 je	 SHORT $LN8@OnClear
  0004e	66 90		 npad	 2
$LL29@OnClear:

; 128  : 	{
; 129  : 		delete i->second;

  00050	8b 7e 14	 mov	 edi, DWORD PTR [esi+20]
  00053	85 ff		 test	 edi, edi
  00055	74 2a		 je	 SHORT $LN7@OnClear
; File C:\DS Project\DS Files\Source\ClientSource\Client\eterlib\Ref.h

; 53   : 			if (m_pObject)

  00057	8b 0f		 mov	 ecx, DWORD PTR [edi]

; 37   : 		{

  00059	c7 45 fc 00 00
	00 00		 mov	 DWORD PTR __$EHRec$[ebp+8], 0

; 53   : 			if (m_pObject)

  00060	85 c9		 test	 ecx, ecx
  00062	74 0b		 je	 SHORT $LN60@OnClear

; 54   : 			{
; 55   : 				m_pObject->Release();

  00064	e8 00 00 00 00	 call	 ?Release@CReferenceObject@@QAEXXZ ; CReferenceObject::Release

; 56   : 				m_pObject = NULL;

  00069	c7 07 00 00 00
	00		 mov	 DWORD PTR [edi], 0
$LN60@OnClear:
  0006f	6a 04		 push	 4
  00071	57		 push	 edi

; 39   : 		}

  00072	c7 45 fc ff ff
	ff ff		 mov	 DWORD PTR __$EHRec$[ebp+8], -1
  00079	e8 00 00 00 00	 call	 ??3@YAXPAXI@Z		; operator delete
  0007e	83 c4 08	 add	 esp, 8
$LN7@OnClear:
; File C:\Program Files (x86)\Microsoft Visual Studio\2019\Community\VC\Tools\MSVC\14.27.29110\include\xtree

; 52   :         if (_Ptr->_Right->_Isnil) { // climb looking for right subtree

  00081	8b 46 08	 mov	 eax, DWORD PTR [esi+8]
  00084	80 78 0d 00	 cmp	 BYTE PTR [eax+13], 0
  00088	74 1d		 je	 SHORT $LN28@OnClear

; 53   :             _Nodeptr _Pnode;
; 54   :             while (!(_Pnode = _Ptr->_Parent)->_Isnil && _Ptr == _Pnode->_Right) {

  0008a	8b 46 04	 mov	 eax, DWORD PTR [esi+4]
  0008d	80 78 0d 00	 cmp	 BYTE PTR [eax+13], 0
  00091	75 10		 jne	 SHORT $LN27@OnClear
$LL26@OnClear:
  00093	3b 70 08	 cmp	 esi, DWORD PTR [eax+8]
  00096	75 0b		 jne	 SHORT $LN27@OnClear

; 55   :                 _Ptr = _Pnode; // ==> parent while right subtree

  00098	8b f0		 mov	 esi, eax
  0009a	8b 40 04	 mov	 eax, DWORD PTR [eax+4]
  0009d	80 78 0d 00	 cmp	 BYTE PTR [eax+13], 0
  000a1	74 f0		 je	 SHORT $LL26@OnClear
$LN27@OnClear:

; 56   :             }
; 57   : 
; 58   :             _Ptr = _Pnode; // ==> parent (head if end())

  000a3	8b f0		 mov	 esi, eax

; 59   :         } else {

  000a5	eb 16		 jmp	 SHORT $LN126@OnClear
$LN28@OnClear:

; 60   :             _Ptr = _Mytree::_Min(_Ptr->_Right); // ==> smallest of right subtree

  000a7	8b f0		 mov	 esi, eax

; 451  :         while (!_Pnode->_Left->_Isnil) {

  000a9	8b 0e		 mov	 ecx, DWORD PTR [esi]
  000ab	80 79 0d 00	 cmp	 BYTE PTR [ecx+13], 0
  000af	75 0c		 jne	 SHORT $LN126@OnClear
$LL32@OnClear:
  000b1	8b 01		 mov	 eax, DWORD PTR [ecx]

; 452  :             _Pnode = _Pnode->_Left;

  000b3	8b f1		 mov	 esi, ecx
  000b5	8b c8		 mov	 ecx, eax
  000b7	80 78 0d 00	 cmp	 BYTE PTR [eax+13], 0
  000bb	74 f4		 je	 SHORT $LL32@OnClear
$LN126@OnClear:

; 39   :     _Tree_unchecked_const_iterator(_Nodeptr _Pnode, const _Mytree* _Plist) noexcept : _Ptr(_Pnode) {

  000bd	8b 3b		 mov	 edi, DWORD PTR [ebx]

; 232  :         return this->_Ptr == _Right._Ptr;

  000bf	3b f7		 cmp	 esi, edi
; File C:\DS Project\DS Files\Source\ClientSource\Client\eterBase\Stl.h

; 127  : 	for (TContainer::iterator i = container.begin(); i != container.end(); ++i)

  000c1	75 8d		 jne	 SHORT $LL29@OnClear
$LN8@OnClear:
; File C:\Program Files (x86)\Microsoft Visual Studio\2019\Community\VC\Tools\MSVC\14.27.29110\include\xtree

; 1448 :         _Scary->_Erase_tree(_Getal(), _Head->_Parent);

  000c3	8b 77 04	 mov	 esi, DWORD PTR [edi+4]

; 743  :         while (!_Rootnode->_Isnil) { // free subtrees, then node

  000c6	80 7e 0d 00	 cmp	 BYTE PTR [esi+13], 0
  000ca	75 24		 jne	 SHORT $LN66@OnClear
  000cc	0f 1f 40 00	 npad	 4
$LL65@OnClear:

; 744  :             _Erase_tree(_Al, _Rootnode->_Right);

  000d0	ff 76 08	 push	 DWORD PTR [esi+8]
  000d3	8b cb		 mov	 ecx, ebx
  000d5	53		 push	 ebx
  000d6	e8 00 00 00 00	 call	 ??$_Erase_tree@V?$allocator@U?$_Tree_node@U?$pair@$$CBKPAV?$CRef@VCGraphicThing@@@@@std@@PAX@std@@@std@@@?$_Tree_val@U?$_Tree_simple_types@U?$pair@$$CBKPAV?$CRef@VCGraphicThing@@@@@std@@@std@@@std@@QAEXAAV?$allocator@U?$_Tree_node@U?$pair@$$CBKPAV?$CRef@VCGraphicThing@@@@@std@@PAX@std@@@1@PAU?$_Tree_node@U?$pair@$$CBKPAV?$CRef@VCGraphicThing@@@@@std@@PAX@1@@Z ; std::_Tree_val<std::_Tree_simple_types<std::pair<unsigned long const ,CRef<CGraphicThing> *> > >::_Erase_tree<std::allocator<std::_Tree_node<std::pair<unsigned long const ,CRef<CGraphicThing> *>,void *> > >
; File C:\Program Files (x86)\Microsoft Visual Studio\2019\Community\VC\Tools\MSVC\14.27.29110\include\utility

; 599  :     _Ty _Old_val = static_cast<_Ty&&>(_Val);

  000db	8b c6		 mov	 eax, esi

; 600  :     _Val         = static_cast<_Other&&>(_New_val);

  000dd	8b 36		 mov	 esi, DWORD PTR [esi]
; File C:\Program Files (x86)\Microsoft Visual Studio\2019\Community\VC\Tools\MSVC\14.27.29110\include\xmemory

; 689  :         _Deallocate<_New_alignof<value_type>>(_Ptr, sizeof(value_type) * _Count);

  000df	6a 18		 push	 24			; 00000018H
  000e1	50		 push	 eax
  000e2	e8 00 00 00 00	 call	 ??$_Deallocate@$07$0A@@std@@YAXPAXI@Z ; std::_Deallocate<8,0>
  000e7	83 c4 08	 add	 esp, 8
; File C:\Program Files (x86)\Microsoft Visual Studio\2019\Community\VC\Tools\MSVC\14.27.29110\include\xtree

; 743  :         while (!_Rootnode->_Isnil) { // free subtrees, then node

  000ea	80 7e 0d 00	 cmp	 BYTE PTR [esi+13], 0
  000ee	74 e0		 je	 SHORT $LL65@OnClear
$LN66@OnClear:
; File C:\Program Files (x86)\Microsoft Visual Studio\2019\Community\VC\Tools\MSVC\14.27.29110\include\vector

; 1484 :         return static_cast<size_type>(_My_data._Mylast - _My_data._Myfirst);

  000f0	8b 4d e8	 mov	 ecx, DWORD PTR _this$1$[ebp]
  000f3	b8 ab aa aa 2a	 mov	 eax, 715827883		; 2aaaaaabH
; File C:\Program Files (x86)\Microsoft Visual Studio\2019\Community\VC\Tools\MSVC\14.27.29110\include\xtree

; 1449 :         _Head->_Parent  = _Head;

  000f8	89 7f 04	 mov	 DWORD PTR [edi+4], edi

; 1450 :         _Head->_Left    = _Head;

  000fb	89 3f		 mov	 DWORD PTR [edi], edi

; 1451 :         _Head->_Right   = _Head;

  000fd	89 7f 08	 mov	 DWORD PTR [edi+8], edi
; File C:\DS Project\DS Files\Source\ClientSource\Client\eterGrnLib\ThingInstance.cpp

; 959  : 	for (DWORD d = 0; d < m_modelThingSetVector.size(); ++d)

  00100	33 ff		 xor	 edi, edi
; File C:\Program Files (x86)\Microsoft Visual Studio\2019\Community\VC\Tools\MSVC\14.27.29110\include\xtree

; 1452 :         _Scary->_Mysize = 0;

  00102	c7 43 04 00 00
	00 00		 mov	 DWORD PTR [ebx+4], 0
; File C:\Program Files (x86)\Microsoft Visual Studio\2019\Community\VC\Tools\MSVC\14.27.29110\include\vector

; 1484 :         return static_cast<size_type>(_My_data._Mylast - _My_data._Myfirst);

  00109	8b 99 94 02 00
	00		 mov	 ebx, DWORD PTR [ecx+660]
  0010f	8b 89 98 02 00
	00		 mov	 ecx, DWORD PTR [ecx+664]
  00115	2b cb		 sub	 ecx, ebx
; File C:\DS Project\DS Files\Source\ClientSource\Client\eterGrnLib\ThingInstance.cpp

; 959  : 	for (DWORD d = 0; d < m_modelThingSetVector.size(); ++d)

  00117	89 7d ec	 mov	 DWORD PTR _d$1$[ebp], edi
; File C:\Program Files (x86)\Microsoft Visual Studio\2019\Community\VC\Tools\MSVC\14.27.29110\include\vector

; 1484 :         return static_cast<size_type>(_My_data._Mylast - _My_data._Myfirst);

  0011a	f7 e9		 imul	 ecx
  0011c	d1 fa		 sar	 edx, 1
  0011e	8b c2		 mov	 eax, edx
  00120	c1 e8 1f	 shr	 eax, 31			; 0000001fH
  00123	03 c2		 add	 eax, edx
; File C:\DS Project\DS Files\Source\ClientSource\Client\eterGrnLib\ThingInstance.cpp

; 959  : 	for (DWORD d = 0; d < m_modelThingSetVector.size(); ++d)

  00125	0f 84 97 00 00
	00		 je	 $LN3@OnClear
; File C:\Program Files (x86)\Microsoft Visual Studio\2019\Community\VC\Tools\MSVC\14.27.29110\include\vector

; 1483 :         auto& _My_data = _Mypair._Myval2;

  0012b	33 c0		 xor	 eax, eax
  0012d	89 45 f0	 mov	 DWORD PTR tv818[ebp], eax
$LL4@OnClear:

; 42   :     _Vector_const_iterator(_Tptr _Parg, const _Container_base* _Pvector) noexcept : _Ptr(_Parg) {

  00130	8b 34 18	 mov	 esi, DWORD PTR [eax+ebx]
  00133	3b 74 18 04	 cmp	 esi, DWORD PTR [eax+ebx+4]
; File C:\DS Project\DS Files\Source\ClientSource\Client\eterBase\Stl.h

; 95   : 	for (TContainer::iterator i = container.begin(); i != container.end(); ++i)

  00137	74 4f		 je	 SHORT $LN143@OnClear
  00139	0f 1f 80 00 00
	00 00		 npad	 7
$LL85@OnClear:

; 96   : 	{
; 97   : 		delete *i;

  00140	8b 3e		 mov	 edi, DWORD PTR [esi]
  00142	85 ff		 test	 edi, edi
  00144	74 2d		 je	 SHORT $LN110@OnClear
; File C:\DS Project\DS Files\Source\ClientSource\Client\eterlib\Ref.h

; 53   : 			if (m_pObject)

  00146	8b 0f		 mov	 ecx, DWORD PTR [edi]

; 37   : 		{

  00148	c7 45 fc 01 00
	00 00		 mov	 DWORD PTR __$EHRec$[ebp+8], 1

; 53   : 			if (m_pObject)

  0014f	85 c9		 test	 ecx, ecx
  00151	74 0b		 je	 SHORT $LN136@OnClear

; 54   : 			{
; 55   : 				m_pObject->Release();

  00153	e8 00 00 00 00	 call	 ?Release@CReferenceObject@@QAEXXZ ; CReferenceObject::Release

; 56   : 				m_pObject = NULL;

  00158	c7 07 00 00 00
	00		 mov	 DWORD PTR [edi], 0
$LN136@OnClear:
  0015e	6a 04		 push	 4
  00160	57		 push	 edi

; 39   : 		}

  00161	c7 45 fc ff ff
	ff ff		 mov	 DWORD PTR __$EHRec$[ebp+8], -1
  00168	e8 00 00 00 00	 call	 ??3@YAXPAXI@Z		; operator delete
  0016d	8b 45 f0	 mov	 eax, DWORD PTR tv818[ebp]
  00170	83 c4 08	 add	 esp, 8
$LN110@OnClear:
; File C:\DS Project\DS Files\Source\ClientSource\Client\eterBase\Stl.h

; 98   : 		*i = NULL;

  00173	c7 06 00 00 00
	00		 mov	 DWORD PTR [esi], 0
; File C:\Program Files (x86)\Microsoft Visual Studio\2019\Community\VC\Tools\MSVC\14.27.29110\include\vector

; 75   :         ++_Ptr;

  00179	83 c6 04	 add	 esi, 4

; 149  :         return _Ptr == _Right._Ptr;

  0017c	3b 74 18 04	 cmp	 esi, DWORD PTR [eax+ebx+4]
; File C:\DS Project\DS Files\Source\ClientSource\Client\eterBase\Stl.h

; 95   : 	for (TContainer::iterator i = container.begin(); i != container.end(); ++i)

  00180	75 be		 jne	 SHORT $LL85@OnClear
; File C:\DS Project\DS Files\Source\ClientSource\Client\eterlib\Ref.h

; 56   : 				m_pObject = NULL;

  00182	8b 34 18	 mov	 esi, DWORD PTR [eax+ebx]
  00185	8b 7d ec	 mov	 edi, DWORD PTR _d$1$[ebp]
$LN143@OnClear:
; File C:\DS Project\DS Files\Source\ClientSource\Client\eterBase\Stl.h

; 101  : 	container.clear();

  00188	89 74 18 04	 mov	 DWORD PTR [eax+ebx+4], esi
; File C:\DS Project\DS Files\Source\ClientSource\Client\eterGrnLib\ThingInstance.cpp

; 959  : 	for (DWORD d = 0; d < m_modelThingSetVector.size(); ++d)

  0018c	47		 inc	 edi
  0018d	83 c0 0c	 add	 eax, 12			; 0000000cH
  00190	89 7d ec	 mov	 DWORD PTR _d$1$[ebp], edi
  00193	89 45 f0	 mov	 DWORD PTR tv818[ebp], eax
; File C:\Program Files (x86)\Microsoft Visual Studio\2019\Community\VC\Tools\MSVC\14.27.29110\include\vector

; 1484 :         return static_cast<size_type>(_My_data._Mylast - _My_data._Myfirst);

  00196	8b 45 e8	 mov	 eax, DWORD PTR _this$1$[ebp]
  00199	8b 88 98 02 00
	00		 mov	 ecx, DWORD PTR [eax+664]
  0019f	8b 98 94 02 00
	00		 mov	 ebx, DWORD PTR [eax+660]
  001a5	2b cb		 sub	 ecx, ebx
  001a7	b8 ab aa aa 2a	 mov	 eax, 715827883		; 2aaaaaabH
  001ac	f7 e9		 imul	 ecx
  001ae	d1 fa		 sar	 edx, 1
  001b0	8b c2		 mov	 eax, edx
  001b2	c1 e8 1f	 shr	 eax, 31			; 0000001fH
  001b5	03 c2		 add	 eax, edx
; File C:\DS Project\DS Files\Source\ClientSource\Client\eterGrnLib\ThingInstance.cpp

; 959  : 	for (DWORD d = 0; d < m_modelThingSetVector.size(); ++d)

  001b7	3b f8		 cmp	 edi, eax
  001b9	8b 45 f0	 mov	 eax, DWORD PTR tv818[ebp]
  001bc	0f 82 6e ff ff
	ff		 jb	 $LL4@OnClear
$LN3@OnClear:

; 960  : 		m_modelThingSetVector[d].Clear();
; 961  : }

  001c2	8b 4d f4	 mov	 ecx, DWORD PTR __$EHRec$[ebp]
  001c5	64 89 0d 00 00
	00 00		 mov	 DWORD PTR fs:0, ecx
  001cc	59		 pop	 ecx
  001cd	5f		 pop	 edi
  001ce	5e		 pop	 esi
  001cf	5b		 pop	 ebx
  001d0	8b e5		 mov	 esp, ebp
  001d2	5d		 pop	 ebp
  001d3	c3		 ret	 0
  001d4	cc		 int	 3
  001d5	cc		 int	 3
  001d6	cc		 int	 3
  001d7	cc		 int	 3
  001d8	cc		 int	 3
_TEXT	ENDS
;	COMDAT text$x
text$x	SEGMENT
__ehhandler$?OnClear@CGraphicThingInstance@@MAEXXZ:
  00000	90		 npad	 1
  00001	90		 npad	 1
  00002	8b 54 24 08	 mov	 edx, DWORD PTR [esp+8]
  00006	8d 42 0c	 lea	 eax, DWORD PTR [edx+12]
  00009	8b 4a e4	 mov	 ecx, DWORD PTR [edx-28]
  0000c	33 c8		 xor	 ecx, eax
  0000e	e8 00 00 00 00	 call	 @__security_check_cookie@4
  00013	b8 00 00 00 00	 mov	 eax, OFFSET __ehfuncinfo$?OnClear@CGraphicThingInstance@@MAEXXZ
  00018	e9 00 00 00 00	 jmp	 ___CxxFrameHandler3
text$x	ENDS
?OnClear@CGraphicThingInstance@@MAEXXZ ENDP		; CGraphicThingInstance::OnClear
; Function compile flags: /Ogtp
; File C:\DS Project\DS Files\Source\ClientSource\Client\eterGrnLib\ThingInstance.cpp
;	COMDAT ?GetBoundingAABB@CGraphicThingInstance@@UAE_NAAUD3DXVECTOR3@@0@Z
_TEXT	SEGMENT
_v3Min$ = 8						; size = 4
_v3Max$ = 12						; size = 4
?GetBoundingAABB@CGraphicThingInstance@@UAE_NAAUD3DXVECTOR3@@0@Z PROC ; CGraphicThingInstance::GetBoundingAABB, COMDAT
; _this$ = ecx

; 129  : {

  00000	55		 push	 ebp
  00001	8b ec		 mov	 ebp, esp
  00003	56		 push	 esi
  00004	57		 push	 edi
  00005	8b f9		 mov	 edi, ecx

; 130  : 	BuildBoundingAABB();

  00007	e8 00 00 00 00	 call	 ?BuildBoundingAABB@CGraphicThingInstance@@QAEXXZ ; CGraphicThingInstance::BuildBoundingAABB

; 131  : 
; 132  : 	v3Min = m_v3Min;

  0000c	f3 0f 7e 87 70
	02 00 00	 movq	 xmm0, QWORD PTR [edi+624]

; 133  : 	v3Max = m_v3Max;
; 134  : 
; 135  : 	D3DXVec3TransformCoord(&m_v3Center, &m_v3Center, &GetTransform());

  00014	8d b7 64 02 00
	00		 lea	 esi, DWORD PTR [edi+612]
  0001a	8b 55 08	 mov	 edx, DWORD PTR _v3Min$[ebp]
  0001d	8b 4d 0c	 mov	 ecx, DWORD PTR _v3Max$[ebp]
  00020	66 0f d6 02	 movq	 QWORD PTR [edx], xmm0
  00024	8b 87 78 02 00
	00		 mov	 eax, DWORD PTR [edi+632]
  0002a	89 42 08	 mov	 DWORD PTR [edx+8], eax
  0002d	f3 0f 7e 87 7c
	02 00 00	 movq	 xmm0, QWORD PTR [edi+636]
  00035	66 0f d6 01	 movq	 QWORD PTR [ecx], xmm0
  00039	8b 87 84 02 00
	00		 mov	 eax, DWORD PTR [edi+644]
  0003f	89 41 08	 mov	 DWORD PTR [ecx+8], eax
  00042	8b cf		 mov	 ecx, edi
  00044	e8 00 00 00 00	 call	 ?GetTransform@CGraphicObjectInstance@@QAEAAUD3DXMATRIX@@XZ ; CGraphicObjectInstance::GetTransform
  00049	50		 push	 eax
  0004a	56		 push	 esi
  0004b	56		 push	 esi
  0004c	e8 00 00 00 00	 call	 _D3DXVec3TransformCoord@12

; 136  : 	return true;

  00051	5f		 pop	 edi
  00052	b0 01		 mov	 al, 1
  00054	5e		 pop	 esi

; 137  : }

  00055	5d		 pop	 ebp
  00056	c2 08 00	 ret	 8
?GetBoundingAABB@CGraphicThingInstance@@UAE_NAAUD3DXVECTOR3@@0@Z ENDP ; CGraphicThingInstance::GetBoundingAABB
_TEXT	ENDS
; Function compile flags: /Ogtp
; File C:\DS Project\DS Files\Source\ClientSource\Client\eterGrnLib\ThingInstance.cpp
;	COMDAT ?GetBoundingSphere@CGraphicThingInstance@@UAE_NAAUD3DXVECTOR3@@AAM@Z
_TEXT	SEGMENT
_v3Center$ = 8						; size = 4
_fRadius$ = 12						; size = 4
?GetBoundingSphere@CGraphicThingInstance@@UAE_NAAUD3DXVECTOR3@@AAM@Z PROC ; CGraphicThingInstance::GetBoundingSphere, COMDAT
; _this$ = ecx

; 101  : {

  00000	55		 push	 ebp
  00001	8b ec		 mov	 ebp, esp
  00003	56		 push	 esi
  00004	8b f1		 mov	 esi, ecx
  00006	0f 57 c0	 xorps	 xmm0, xmm0
  00009	57		 push	 edi

; 102  : 	if (m_fRadius <= 0)

  0000a	f3 0f 10 8e 60
	02 00 00	 movss	 xmm1, DWORD PTR [esi+608]
  00012	0f 2f c1	 comiss	 xmm0, xmm1
  00015	72 12		 jb	 SHORT $LN2@GetBoundin

; 103  : 	{
; 104  : 		BuildBoundingSphere();

  00017	e8 00 00 00 00	 call	 ?BuildBoundingSphere@CGraphicThingInstance@@QAEXXZ ; CGraphicThingInstance::BuildBoundingSphere

; 105  : 
; 106  : 		fRadius = m_fRadius;

  0001c	8b 45 0c	 mov	 eax, DWORD PTR _fRadius$[ebp]
  0001f	8b 8e 60 02 00
	00		 mov	 ecx, DWORD PTR [esi+608]
  00025	89 08		 mov	 DWORD PTR [eax], ecx

; 107  : 		v3Center = m_v3Center;
; 108  : 	}

  00027	eb 07		 jmp	 SHORT $LN5@GetBoundin
$LN2@GetBoundin:

; 109  : 	else
; 110  : 	{
; 111  : 		fRadius = m_fRadius;

  00029	8b 45 0c	 mov	 eax, DWORD PTR _fRadius$[ebp]
  0002c	f3 0f 11 08	 movss	 DWORD PTR [eax], xmm1
$LN5@GetBoundin:

; 112  : 		v3Center = m_v3Center;
; 113  : 	}
; 114  : 
; 115  : 	D3DXVec3TransformCoord(&v3Center, &v3Center, &GetTransform());

  00030	8b 7d 08	 mov	 edi, DWORD PTR _v3Center$[ebp]
  00033	8b ce		 mov	 ecx, esi
  00035	f3 0f 7e 86 64
	02 00 00	 movq	 xmm0, QWORD PTR [esi+612]
  0003d	66 0f d6 07	 movq	 QWORD PTR [edi], xmm0
  00041	8b 86 6c 02 00
	00		 mov	 eax, DWORD PTR [esi+620]
  00047	89 47 08	 mov	 DWORD PTR [edi+8], eax
  0004a	e8 00 00 00 00	 call	 ?GetTransform@CGraphicObjectInstance@@QAEAAUD3DXMATRIX@@XZ ; CGraphicObjectInstance::GetTransform
  0004f	50		 push	 eax
  00050	57		 push	 edi
  00051	57		 push	 edi
  00052	e8 00 00 00 00	 call	 _D3DXVec3TransformCoord@12

; 116  : 	return true;

  00057	5f		 pop	 edi
  00058	b0 01		 mov	 al, 1
  0005a	5e		 pop	 esi

; 117  : }

  0005b	5d		 pop	 ebp
  0005c	c2 08 00	 ret	 8
?GetBoundingSphere@CGraphicThingInstance@@UAE_NAAUD3DXVECTOR3@@AAM@Z ENDP ; CGraphicThingInstance::GetBoundingSphere
_TEXT	ENDS
; Function compile flags: /Ogtp
; File C:\DS Project\DS Files\Source\ClientSource\Client\eterGrnLib\ThingInstance.cpp
; File C:\DS Project\DS Files\Source\ClientSource\extern\include\d3dx8math.inl
; File C:\DS Project\DS Files\Source\ClientSource\Client\eterGrnLib\ThingInstance.cpp
; File C:\DS Project\DS Files\Source\ClientSource\extern\include\d3dx8math.inl
; File C:\DS Project\DS Files\Source\ClientSource\Client\eterGrnLib\ThingInstance.cpp
; File C:\DS Project\DS Files\Source\ClientSource\extern\include\d3dx8math.inl
; File C:\DS Project\DS Files\Source\ClientSource\Client\eterGrnLib\ThingInstance.cpp
; File C:\DS Project\DS Files\Source\ClientSource\extern\include\d3dx8math.inl
; File C:\DS Project\DS Files\Source\ClientSource\Client\eterGrnLib\ThingInstance.cpp
; File C:\DS Project\DS Files\Source\ClientSource\extern\include\d3dx8math.inl
; File C:\DS Project\DS Files\Source\ClientSource\Client\eterGrnLib\ThingInstance.cpp
; File C:\DS Project\DS Files\Source\ClientSource\extern\include\d3dx8math.inl
; File C:\DS Project\DS Files\Source\ClientSource\Client\eterGrnLib\ThingInstance.cpp
; File C:\DS Project\DS Files\Source\ClientSource\extern\include\d3dx8math.inl
; File C:\DS Project\DS Files\Source\ClientSource\Client\eterGrnLib\ThingInstance.cpp
; File C:\DS Project\DS Files\Source\ClientSource\extern\include\d3dx8math.inl
; File C:\DS Project\DS Files\Source\ClientSource\Client\eterGrnLib\ThingInstance.cpp
; File C:\DS Project\DS Files\Source\ClientSource\extern\include\d3dx8math.inl
; File C:\DS Project\DS Files\Source\ClientSource\Client\eterGrnLib\ThingInstance.cpp
; File C:\DS Project\DS Files\Source\ClientSource\extern\include\d3dx8math.inl
; File C:\DS Project\DS Files\Source\ClientSource\Client\eterGrnLib\ThingInstance.cpp
; File C:\DS Project\DS Files\Source\ClientSource\extern\include\d3dx8math.inl
; File C:\DS Project\DS Files\Source\ClientSource\Client\eterGrnLib\ThingInstance.cpp
; File C:\DS Project\DS Files\Source\ClientSource\extern\include\d3dx8math.inl
; File C:\DS Project\DS Files\Source\ClientSource\Client\eterGrnLib\ThingInstance.cpp
; File C:\DS Project\DS Files\Source\ClientSource\extern\include\d3dx8math.inl
; File C:\DS Project\DS Files\Source\ClientSource\Client\eterGrnLib\ThingInstance.cpp
; File C:\DS Project\DS Files\Source\ClientSource\extern\include\d3dx8math.inl
; File C:\DS Project\DS Files\Source\ClientSource\Client\eterGrnLib\ThingInstance.cpp
;	COMDAT ?CalculateBBox@CGraphicThingInstance@@UAEXXZ
_TEXT	SEGMENT
$T1 = -24						; size = 16
$T2 = -24						; size = 16
$T3 = -24						; size = 16
$T4 = -24						; size = 16
$T5 = -24						; size = 16
$T6 = -24						; size = 16
$T7 = -24						; size = 16
$T8 = -24						; size = 16
_c_rmatTransform$1$ = -8				; size = 4
tv1041 = -4						; size = 4
?CalculateBBox@CGraphicThingInstance@@UAEXXZ PROC	; CGraphicThingInstance::CalculateBBox, COMDAT
; _this$ = ecx

; 140  : {

  00000	55		 push	 ebp
  00001	8b ec		 mov	 ebp, esp
  00003	83 ec 18	 sub	 esp, 24			; 00000018H
  00006	53		 push	 ebx
  00007	56		 push	 esi
  00008	8b d9		 mov	 ebx, ecx
  0000a	57		 push	 edi

; 141  : 	GetBoundBox(&m_v3BBoxMin, &m_v3BBoxMax);

  0000b	8d bb 54 01 00
	00		 lea	 edi, DWORD PTR [ebx+340]
  00011	57		 push	 edi
  00012	8d b3 48 01 00
	00		 lea	 esi, DWORD PTR [ebx+328]
  00018	56		 push	 esi
  00019	e8 00 00 00 00	 call	 ?GetBoundBox@CGraphicThingInstance@@QAEXPAUD3DXVECTOR3@@0@Z ; CGraphicThingInstance::GetBoundBox
; File C:\DS Project\DS Files\Source\ClientSource\extern\include\d3dx8math.inl

; 323  :     z = fz;

  0001e	f3 0f 10 8b 50
	01 00 00	 movss	 xmm1, DWORD PTR [ebx+336]
; File C:\DS Project\DS Files\Source\ClientSource\Client\eterGrnLib\ThingInstance.cpp

; 152  : 	const D3DXMATRIX & c_rmatTransform = GetTransform();

  00026	8b cb		 mov	 ecx, ebx
; File C:\DS Project\DS Files\Source\ClientSource\extern\include\d3dx8math.inl

; 321  :     x = fx;

  00028	f3 0f 10 26	 movss	 xmm4, DWORD PTR [esi]

; 322  :     y = fy;

  0002c	f3 0f 10 ab 4c
	01 00 00	 movss	 xmm5, DWORD PTR [ebx+332]

; 323  :     z = fz;

  00034	f3 0f 11 4d f0	 movss	 DWORD PTR $T8[ebp+8], xmm1
  00039	f3 0f 11 65 e8	 movss	 DWORD PTR $T8[ebp], xmm4
  0003e	f3 0f 11 6d ec	 movss	 DWORD PTR $T8[ebp+4], xmm5

; 324  :     w = fw;

  00043	c7 45 f4 00 00
	80 3f		 mov	 DWORD PTR $T8[ebp+12], 1065353216 ; 3f800000H
; File C:\DS Project\DS Files\Source\ClientSource\Client\eterGrnLib\ThingInstance.cpp

; 143  : 	m_v4TBBox[0] = D3DXVECTOR4(m_v3BBoxMin.x, m_v3BBoxMin.y, m_v3BBoxMin.z, 1.0f);

  0004a	0f 10 45 e8	 movups	 xmm0, XMMWORD PTR $T8[ebp]
; File C:\DS Project\DS Files\Source\ClientSource\extern\include\d3dx8math.inl

; 324  :     w = fw;

  0004e	c7 45 f4 00 00
	80 3f		 mov	 DWORD PTR $T7[ebp+12], 1065353216 ; 3f800000H
  00055	f3 0f 11 4d f0	 movss	 DWORD PTR $T7[ebp+8], xmm1
; File C:\DS Project\DS Files\Source\ClientSource\Client\eterGrnLib\ThingInstance.cpp

; 143  : 	m_v4TBBox[0] = D3DXVECTOR4(m_v3BBoxMin.x, m_v3BBoxMin.y, m_v3BBoxMin.z, 1.0f);

  0005a	0f 11 83 b0 00
	00 00		 movups	 XMMWORD PTR [ebx+176], xmm0
; File C:\DS Project\DS Files\Source\ClientSource\extern\include\d3dx8math.inl

; 322  :     y = fy;

  00061	f3 0f 10 9b 58
	01 00 00	 movss	 xmm3, DWORD PTR [ebx+344]
  00069	f3 0f 11 65 e8	 movss	 DWORD PTR $T7[ebp], xmm4
  0006e	f3 0f 11 5d ec	 movss	 DWORD PTR $T7[ebp+4], xmm3
; File C:\DS Project\DS Files\Source\ClientSource\Client\eterGrnLib\ThingInstance.cpp

; 144  : 	m_v4TBBox[1] = D3DXVECTOR4(m_v3BBoxMin.x, m_v3BBoxMax.y, m_v3BBoxMin.z, 1.0f);

  00073	0f 10 45 e8	 movups	 xmm0, XMMWORD PTR $T7[ebp]
; File C:\DS Project\DS Files\Source\ClientSource\extern\include\d3dx8math.inl

; 324  :     w = fw;

  00077	c7 45 f4 00 00
	80 3f		 mov	 DWORD PTR $T6[ebp+12], 1065353216 ; 3f800000H
  0007e	f3 0f 11 4d f0	 movss	 DWORD PTR $T6[ebp+8], xmm1
; File C:\DS Project\DS Files\Source\ClientSource\Client\eterGrnLib\ThingInstance.cpp

; 144  : 	m_v4TBBox[1] = D3DXVECTOR4(m_v3BBoxMin.x, m_v3BBoxMax.y, m_v3BBoxMin.z, 1.0f);

  00083	0f 11 83 c0 00
	00 00		 movups	 XMMWORD PTR [ebx+192], xmm0
; File C:\DS Project\DS Files\Source\ClientSource\extern\include\d3dx8math.inl

; 321  :     x = fx;

  0008a	f3 0f 10 17	 movss	 xmm2, DWORD PTR [edi]
  0008e	f3 0f 11 55 e8	 movss	 DWORD PTR $T6[ebp], xmm2

; 322  :     y = fy;

  00093	f3 0f 11 6d ec	 movss	 DWORD PTR $T6[ebp+4], xmm5
; File C:\DS Project\DS Files\Source\ClientSource\Client\eterGrnLib\ThingInstance.cpp

; 145  : 	m_v4TBBox[2] = D3DXVECTOR4(m_v3BBoxMax.x, m_v3BBoxMin.y, m_v3BBoxMin.z, 1.0f);

  00098	0f 10 45 e8	 movups	 xmm0, XMMWORD PTR $T6[ebp]
; File C:\DS Project\DS Files\Source\ClientSource\extern\include\d3dx8math.inl

; 324  :     w = fw;

  0009c	c7 45 f4 00 00
	80 3f		 mov	 DWORD PTR $T5[ebp+12], 1065353216 ; 3f800000H
  000a3	f3 0f 11 4d f0	 movss	 DWORD PTR $T5[ebp+8], xmm1
; File C:\DS Project\DS Files\Source\ClientSource\Client\eterGrnLib\ThingInstance.cpp

; 145  : 	m_v4TBBox[2] = D3DXVECTOR4(m_v3BBoxMax.x, m_v3BBoxMin.y, m_v3BBoxMin.z, 1.0f);

  000a8	0f 11 83 d0 00
	00 00		 movups	 XMMWORD PTR [ebx+208], xmm0
; File C:\DS Project\DS Files\Source\ClientSource\extern\include\d3dx8math.inl

; 321  :     x = fx;

  000af	f3 0f 11 55 e8	 movss	 DWORD PTR $T5[ebp], xmm2

; 322  :     y = fy;

  000b4	f3 0f 11 5d ec	 movss	 DWORD PTR $T5[ebp+4], xmm3
; File C:\DS Project\DS Files\Source\ClientSource\Client\eterGrnLib\ThingInstance.cpp

; 146  : 	m_v4TBBox[3] = D3DXVECTOR4(m_v3BBoxMax.x, m_v3BBoxMax.y, m_v3BBoxMin.z, 1.0f);

  000b9	0f 10 45 e8	 movups	 xmm0, XMMWORD PTR $T5[ebp]
; File C:\DS Project\DS Files\Source\ClientSource\extern\include\d3dx8math.inl

; 324  :     w = fw;

  000bd	c7 45 f4 00 00
	80 3f		 mov	 DWORD PTR $T4[ebp+12], 1065353216 ; 3f800000H
  000c4	f3 0f 11 65 e8	 movss	 DWORD PTR $T4[ebp], xmm4
; File C:\DS Project\DS Files\Source\ClientSource\Client\eterGrnLib\ThingInstance.cpp

; 146  : 	m_v4TBBox[3] = D3DXVECTOR4(m_v3BBoxMax.x, m_v3BBoxMax.y, m_v3BBoxMin.z, 1.0f);

  000c9	0f 11 83 e0 00
	00 00		 movups	 XMMWORD PTR [ebx+224], xmm0
; File C:\DS Project\DS Files\Source\ClientSource\extern\include\d3dx8math.inl

; 323  :     z = fz;

  000d0	f3 0f 10 8b 5c
	01 00 00	 movss	 xmm1, DWORD PTR [ebx+348]
  000d8	f3 0f 11 6d ec	 movss	 DWORD PTR $T4[ebp+4], xmm5
  000dd	f3 0f 11 4d f0	 movss	 DWORD PTR $T4[ebp+8], xmm1
; File C:\DS Project\DS Files\Source\ClientSource\Client\eterGrnLib\ThingInstance.cpp

; 147  : 	m_v4TBBox[4] = D3DXVECTOR4(m_v3BBoxMin.x, m_v3BBoxMin.y, m_v3BBoxMax.z, 1.0f);

  000e2	0f 10 45 e8	 movups	 xmm0, XMMWORD PTR $T4[ebp]
; File C:\DS Project\DS Files\Source\ClientSource\extern\include\d3dx8math.inl

; 324  :     w = fw;

  000e6	c7 45 f4 00 00
	80 3f		 mov	 DWORD PTR $T3[ebp+12], 1065353216 ; 3f800000H
  000ed	f3 0f 11 65 e8	 movss	 DWORD PTR $T3[ebp], xmm4
  000f2	f3 0f 11 5d ec	 movss	 DWORD PTR $T3[ebp+4], xmm3
  000f7	f3 0f 11 4d f0	 movss	 DWORD PTR $T3[ebp+8], xmm1
; File C:\DS Project\DS Files\Source\ClientSource\Client\eterGrnLib\ThingInstance.cpp

; 147  : 	m_v4TBBox[4] = D3DXVECTOR4(m_v3BBoxMin.x, m_v3BBoxMin.y, m_v3BBoxMax.z, 1.0f);

  000fc	0f 11 83 f0 00
	00 00		 movups	 XMMWORD PTR [ebx+240], xmm0

; 148  : 	m_v4TBBox[5] = D3DXVECTOR4(m_v3BBoxMin.x, m_v3BBoxMax.y, m_v3BBoxMax.z, 1.0f);

  00103	0f 10 45 e8	 movups	 xmm0, XMMWORD PTR $T3[ebp]
; File C:\DS Project\DS Files\Source\ClientSource\extern\include\d3dx8math.inl

; 324  :     w = fw;

  00107	c7 45 f4 00 00
	80 3f		 mov	 DWORD PTR $T2[ebp+12], 1065353216 ; 3f800000H
  0010e	f3 0f 11 55 e8	 movss	 DWORD PTR $T2[ebp], xmm2
  00113	f3 0f 11 6d ec	 movss	 DWORD PTR $T2[ebp+4], xmm5
  00118	f3 0f 11 4d f0	 movss	 DWORD PTR $T2[ebp+8], xmm1
; File C:\DS Project\DS Files\Source\ClientSource\Client\eterGrnLib\ThingInstance.cpp

; 148  : 	m_v4TBBox[5] = D3DXVECTOR4(m_v3BBoxMin.x, m_v3BBoxMax.y, m_v3BBoxMax.z, 1.0f);

  0011d	0f 11 83 00 01
	00 00		 movups	 XMMWORD PTR [ebx+256], xmm0

; 149  : 	m_v4TBBox[6] = D3DXVECTOR4(m_v3BBoxMax.x, m_v3BBoxMin.y, m_v3BBoxMax.z, 1.0f);

  00124	0f 10 45 e8	 movups	 xmm0, XMMWORD PTR $T2[ebp]
; File C:\DS Project\DS Files\Source\ClientSource\extern\include\d3dx8math.inl

; 324  :     w = fw;

  00128	c7 45 f4 00 00
	80 3f		 mov	 DWORD PTR $T1[ebp+12], 1065353216 ; 3f800000H
  0012f	f3 0f 11 55 e8	 movss	 DWORD PTR $T1[ebp], xmm2
; File C:\DS Project\DS Files\Source\ClientSource\Client\eterGrnLib\ThingInstance.cpp

; 149  : 	m_v4TBBox[6] = D3DXVECTOR4(m_v3BBoxMax.x, m_v3BBoxMin.y, m_v3BBoxMax.z, 1.0f);

  00134	0f 11 83 10 01
	00 00		 movups	 XMMWORD PTR [ebx+272], xmm0
; File C:\DS Project\DS Files\Source\ClientSource\extern\include\d3dx8math.inl

; 322  :     y = fy;

  0013b	f3 0f 11 5d ec	 movss	 DWORD PTR $T1[ebp+4], xmm3

; 323  :     z = fz;

  00140	f3 0f 11 4d f0	 movss	 DWORD PTR $T1[ebp+8], xmm1
; File C:\DS Project\DS Files\Source\ClientSource\Client\eterGrnLib\ThingInstance.cpp

; 150  : 	m_v4TBBox[7] = D3DXVECTOR4(m_v3BBoxMax.x, m_v3BBoxMax.y, m_v3BBoxMax.z, 1.0f);

  00145	0f 10 45 e8	 movups	 xmm0, XMMWORD PTR $T1[ebp]
  00149	0f 11 83 20 01
	00 00		 movups	 XMMWORD PTR [ebx+288], xmm0

; 152  : 	const D3DXMATRIX & c_rmatTransform = GetTransform();

  00150	e8 00 00 00 00	 call	 ?GetTransform@CGraphicObjectInstance@@QAEAAUD3DXMATRIX@@XZ ; CGraphicObjectInstance::GetTransform
  00155	8b c8		 mov	 ecx, eax
  00157	33 ff		 xor	 edi, edi
  00159	89 4d f8	 mov	 DWORD PTR _c_rmatTransform$1$[ebp], ecx
  0015c	0f 1f 40 00	 npad	 4
$LL4@CalculateB:

; 155  : 	{
; 156  : 		D3DXVec4Transform(&m_v4TBBox[i], &m_v4TBBox[i], &c_rmatTransform);

  00160	8b f7		 mov	 esi, edi
  00162	8d 83 b0 00 00
	00		 lea	 eax, DWORD PTR [ebx+176]
  00168	c1 e6 04	 shl	 esi, 4
  0016b	03 c6		 add	 eax, esi
  0016d	51		 push	 ecx
  0016e	50		 push	 eax
  0016f	50		 push	 eax
  00170	89 45 fc	 mov	 DWORD PTR tv1041[ebp], eax
  00173	e8 00 00 00 00	 call	 _D3DXVec4Transform@12
  00178	8d 4f 0b	 lea	 ecx, DWORD PTR [edi+11]
  0017b	03 c9		 add	 ecx, ecx

; 157  : 		if (0 == i)

  0017d	85 ff		 test	 edi, edi
  0017f	75 49		 jne	 SHORT $LN5@CalculateB

; 158  : 		{
; 159  : 			m_v3TBBoxMin.x = m_v4TBBox[i].x;

  00181	8b 45 fc	 mov	 eax, DWORD PTR tv1041[ebp]
  00184	8b 00		 mov	 eax, DWORD PTR [eax]
  00186	89 83 30 01 00
	00		 mov	 DWORD PTR [ebx+304], eax

; 160  : 			m_v3TBBoxMin.y = m_v4TBBox[i].y;

  0018c	f3 0f 10 8b b4
	00 00 00	 movss	 xmm1, DWORD PTR [ebx+180]
  00194	f3 0f 11 8b 34
	01 00 00	 movss	 DWORD PTR [ebx+308], xmm1

; 161  : 			m_v3TBBoxMin.z = m_v4TBBox[i].z;

  0019c	f3 0f 10 83 b8
	00 00 00	 movss	 xmm0, DWORD PTR [ebx+184]
  001a4	f3 0f 11 83 38
	01 00 00	 movss	 DWORD PTR [ebx+312], xmm0

; 162  : 			m_v3TBBoxMax.x = m_v4TBBox[i].x;

  001ac	8b 04 cb	 mov	 eax, DWORD PTR [ebx+ecx*8]
  001af	89 83 3c 01 00
	00		 mov	 DWORD PTR [ebx+316], eax

; 163  : 			m_v3TBBoxMax.y = m_v4TBBox[i].y;

  001b5	f3 0f 11 8b 40
	01 00 00	 movss	 DWORD PTR [ebx+320], xmm1

; 164  : 			m_v3TBBoxMax.z = m_v4TBBox[i].z;

  001bd	f3 0f 11 83 44
	01 00 00	 movss	 DWORD PTR [ebx+324], xmm0

; 165  : 		}

  001c5	e9 a7 00 00 00	 jmp	 $LN2@CalculateB
$LN5@CalculateB:

; 166  : 		else
; 167  : 		{
; 168  : 			if (m_v3TBBoxMin.x > m_v4TBBox[i].x)

  001ca	f3 0f 10 0c cb	 movss	 xmm1, DWORD PTR [ebx+ecx*8]
  001cf	f3 0f 10 83 30
	01 00 00	 movss	 xmm0, DWORD PTR [ebx+304]
  001d7	0f 2f c1	 comiss	 xmm0, xmm1
  001da	76 08		 jbe	 SHORT $LN36@CalculateB

; 169  : 				m_v3TBBoxMin.x = m_v4TBBox[i].x;

  001dc	f3 0f 11 8b 30
	01 00 00	 movss	 DWORD PTR [ebx+304], xmm1
$LN36@CalculateB:

; 170  : 			if (m_v3TBBoxMax.x < m_v4TBBox[i].x)

  001e4	f3 0f 10 84 1e
	b0 00 00 00	 movss	 xmm0, DWORD PTR [esi+ebx+176]
  001ed	8d 04 1e	 lea	 eax, DWORD PTR [esi+ebx]
  001f0	0f 2f 83 3c 01
	00 00		 comiss	 xmm0, DWORD PTR [ebx+316]
  001f7	76 08		 jbe	 SHORT $LN37@CalculateB

; 171  : 				m_v3TBBoxMax.x = m_v4TBBox[i].x;

  001f9	f3 0f 11 83 3c
	01 00 00	 movss	 DWORD PTR [ebx+316], xmm0
$LN37@CalculateB:

; 172  : 			if (m_v3TBBoxMin.y > m_v4TBBox[i].y)

  00201	f3 0f 10 8c 1e
	b4 00 00 00	 movss	 xmm1, DWORD PTR [esi+ebx+180]
  0020a	f3 0f 10 83 34
	01 00 00	 movss	 xmm0, DWORD PTR [ebx+308]
  00212	0f 2f c1	 comiss	 xmm0, xmm1
  00215	76 11		 jbe	 SHORT $LN9@CalculateB

; 173  : 				m_v3TBBoxMin.y = m_v4TBBox[i].y;

  00217	f3 0f 11 8b 34
	01 00 00	 movss	 DWORD PTR [ebx+308], xmm1
  0021f	f3 0f 10 8c 1e
	b4 00 00 00	 movss	 xmm1, DWORD PTR [esi+ebx+180]
$LN9@CalculateB:

; 174  : 			if (m_v3TBBoxMax.y < m_v4TBBox[i].y)

  00228	0f 2f 8b 40 01
	00 00		 comiss	 xmm1, DWORD PTR [ebx+320]
  0022f	76 08		 jbe	 SHORT $LN10@CalculateB

; 175  : 				m_v3TBBoxMax.y = m_v4TBBox[i].y;

  00231	f3 0f 11 8b 40
	01 00 00	 movss	 DWORD PTR [ebx+320], xmm1
$LN10@CalculateB:

; 176  : 			if (m_v3TBBoxMin.z > m_v4TBBox[i].z)

  00239	f3 0f 10 8c 1e
	b8 00 00 00	 movss	 xmm1, DWORD PTR [esi+ebx+184]
  00242	f3 0f 10 83 38
	01 00 00	 movss	 xmm0, DWORD PTR [ebx+312]
  0024a	0f 2f c1	 comiss	 xmm0, xmm1
  0024d	76 11		 jbe	 SHORT $LN11@CalculateB

; 177  : 				m_v3TBBoxMin.z = m_v4TBBox[i].z;

  0024f	f3 0f 11 8b 38
	01 00 00	 movss	 DWORD PTR [ebx+312], xmm1
  00257	f3 0f 10 8c 1e
	b8 00 00 00	 movss	 xmm1, DWORD PTR [esi+ebx+184]
$LN11@CalculateB:

; 178  : 			if (m_v3TBBoxMax.z < m_v4TBBox[i].z)

  00260	0f 2f 8b 44 01
	00 00		 comiss	 xmm1, DWORD PTR [ebx+324]
  00267	76 08		 jbe	 SHORT $LN2@CalculateB

; 179  : 				m_v3TBBoxMax.z = m_v4TBBox[i].z;

  00269	f3 0f 11 8b 44
	01 00 00	 movss	 DWORD PTR [ebx+324], xmm1
$LN2@CalculateB:

; 153  : 
; 154  : 	for (DWORD i = 0; i < 8; ++i)

  00271	8b 4d f8	 mov	 ecx, DWORD PTR _c_rmatTransform$1$[ebp]
  00274	47		 inc	 edi
  00275	83 ff 08	 cmp	 edi, 8
  00278	0f 82 e2 fe ff
	ff		 jb	 $LL4@CalculateB

; 180  : 		}
; 181  : 	}
; 182  : }

  0027e	5f		 pop	 edi
  0027f	5e		 pop	 esi
  00280	5b		 pop	 ebx
  00281	8b e5		 mov	 esp, ebp
  00283	5d		 pop	 ebp
  00284	c3		 ret	 0
?CalculateBBox@CGraphicThingInstance@@UAEXXZ ENDP	; CGraphicThingInstance::CalculateBBox
_TEXT	ENDS
; Function compile flags: /Ogtp
; File C:\DS Project\DS Files\Source\ClientSource\Client\eterGrnLib\ThingInstance.cpp
; File C:\DS Project\DS Files\Source\ClientSource\extern\include\d3dx8math.inl
; File C:\DS Project\DS Files\Source\ClientSource\Client\eterGrnLib\ThingInstance.cpp
; File C:\DS Project\DS Files\Source\ClientSource\extern\include\d3dx8math.inl
; File C:\DS Project\DS Files\Source\ClientSource\Client\eterGrnLib\ThingInstance.cpp
; File C:\DS Project\DS Files\Source\ClientSource\extern\include\d3dx8math.inl
; File C:\DS Project\DS Files\Source\ClientSource\Client\eterGrnLib\ThingInstance.cpp
; File C:\DS Project\DS Files\Source\ClientSource\extern\include\d3dx8math.inl
; File C:\DS Project\DS Files\Source\ClientSource\Client\eterGrnLib\ThingInstance.cpp
;	COMDAT ?BuildBoundingAABB@CGraphicThingInstance@@QAEXXZ
_TEXT	SEGMENT
$T1 = -40						; size = 12
_v3Max$ = -28						; size = 12
_v3Min$ = -16						; size = 12
__$ArrayPad$ = -4					; size = 4
?BuildBoundingAABB@CGraphicThingInstance@@QAEXXZ PROC	; CGraphicThingInstance::BuildBoundingAABB, COMDAT
; _this$ = ecx

; 120  : {

  00000	55		 push	 ebp
  00001	8b ec		 mov	 ebp, esp
  00003	83 ec 28	 sub	 esp, 40			; 00000028H
  00006	a1 00 00 00 00	 mov	 eax, DWORD PTR ___security_cookie
  0000b	33 c5		 xor	 eax, ebp
  0000d	89 45 fc	 mov	 DWORD PTR __$ArrayPad$[ebp], eax
  00010	56		 push	 esi

; 121  : 	D3DXVECTOR3 v3Min, v3Max;
; 122  : 	GetBoundBox(0, &v3Min, &v3Max);

  00011	8d 45 e4	 lea	 eax, DWORD PTR _v3Max$[ebp]
  00014	8b f1		 mov	 esi, ecx
  00016	50		 push	 eax
  00017	8d 45 f0	 lea	 eax, DWORD PTR _v3Min$[ebp]
  0001a	50		 push	 eax
  0001b	6a 00		 push	 0
  0001d	e8 00 00 00 00	 call	 ?GetBoundBox@CGraphicThingInstance@@QAEHKPAUD3DXVECTOR3@@0@Z ; CGraphicThingInstance::GetBoundBox
; File C:\DS Project\DS Files\Source\ClientSource\extern\include\d3dx8math.inl

; 257  :     return D3DXVECTOR3(x + v.x, y + v.y, z + v.z);

  00022	f3 0f 10 7d e4	 movss	 xmm7, DWORD PTR _v3Max$[ebp]
  00027	f3 0f 10 5d f4	 movss	 xmm3, DWORD PTR _v3Min$[ebp+4]
  0002c	0f 28 e7	 movaps	 xmm4, xmm7
  0002f	f3 0f 10 75 f0	 movss	 xmm6, DWORD PTR _v3Min$[ebp]
  00034	0f 28 d3	 movaps	 xmm2, xmm3
  00037	f3 0f 10 6d e8	 movss	 xmm5, DWORD PTR _v3Max$[ebp+4]
  0003c	f3 0f 58 e6	 addss	 xmm4, xmm6
  00040	f3 0f 10 45 f8	 movss	 xmm0, DWORD PTR _v3Min$[ebp+8]
  00045	f3 0f 58 d5	 addss	 xmm2, xmm5
  00049	f3 0f 58 45 ec	 addss	 xmm0, DWORD PTR _v3Max$[ebp+8]

; 182  :     z = fz;

  0004e	f3 0f 10 0d 00
	00 00 00	 movss	 xmm1, DWORD PTR __real@3f000000
; File C:\DS Project\DS Files\Source\ClientSource\Client\eterGrnLib\ThingInstance.cpp

; 126  : }

  00056	8b 4d fc	 mov	 ecx, DWORD PTR __$ArrayPad$[ebp]
; File C:\DS Project\DS Files\Source\ClientSource\extern\include\d3dx8math.inl

; 182  :     z = fz;

  00059	f3 0f 59 e1	 mulss	 xmm4, xmm1
; File C:\DS Project\DS Files\Source\ClientSource\Client\eterGrnLib\ThingInstance.cpp

; 126  : }

  0005d	33 cd		 xor	 ecx, ebp
; File C:\DS Project\DS Files\Source\ClientSource\extern\include\d3dx8math.inl

; 180  :     x = fx;

  0005f	f3 0f 59 d1	 mulss	 xmm2, xmm1

; 181  :     y = fy;

  00063	f3 0f 59 c1	 mulss	 xmm0, xmm1
; File C:\DS Project\DS Files\Source\ClientSource\Client\eterGrnLib\ThingInstance.cpp

; 123  : 	m_v3Center = (v3Min + v3Max) * 0.5f;

  00067	0f 14 e2	 unpcklps xmm4, xmm2
  0006a	66 0f d6 a6 64
	02 00 00	 movq	 QWORD PTR [esi+612], xmm4
; File C:\DS Project\DS Files\Source\ClientSource\extern\include\d3dx8math.inl

; 182  :     z = fz;

  00072	f3 0f 11 45 e0	 movss	 DWORD PTR $T1[ebp+8], xmm0
; File C:\DS Project\DS Files\Source\ClientSource\Client\eterGrnLib\ThingInstance.cpp

; 123  : 	m_v3Center = (v3Min + v3Max) * 0.5f;

  00077	8b 45 e0	 mov	 eax, DWORD PTR $T1[ebp+8]
  0007a	89 86 6c 02 00
	00		 mov	 DWORD PTR [esi+620], eax

; 124  : 	m_v3Min = v3Min;

  00080	8b 45 f8	 mov	 eax, DWORD PTR _v3Min$[ebp+8]
  00083	0f 14 f3	 unpcklps xmm6, xmm3
  00086	66 0f d6 b6 70
	02 00 00	 movq	 QWORD PTR [esi+624], xmm6
  0008e	89 86 78 02 00
	00		 mov	 DWORD PTR [esi+632], eax

; 125  : 	m_v3Max = v3Max;

  00094	8b 45 ec	 mov	 eax, DWORD PTR _v3Max$[ebp+8]
  00097	0f 14 fd	 unpcklps xmm7, xmm5
  0009a	66 0f d6 be 7c
	02 00 00	 movq	 QWORD PTR [esi+636], xmm7
  000a2	89 86 84 02 00
	00		 mov	 DWORD PTR [esi+644], eax
  000a8	5e		 pop	 esi

; 126  : }

  000a9	e8 00 00 00 00	 call	 @__security_check_cookie@4
  000ae	8b e5		 mov	 esp, ebp
  000b0	5d		 pop	 ebp
  000b1	c3		 ret	 0
?BuildBoundingAABB@CGraphicThingInstance@@QAEXXZ ENDP	; CGraphicThingInstance::BuildBoundingAABB
_TEXT	ENDS
; Function compile flags: /Ogtp
; File C:\DS Project\DS Files\Source\ClientSource\Client\eterGrnLib\ThingInstance.cpp
; File C:\DS Project\DS Files\Source\ClientSource\extern\include\d3dx8math.inl
; File C:\DS Project\DS Files\Source\ClientSource\Client\eterGrnLib\ThingInstance.cpp
; File C:\DS Project\DS Files\Source\ClientSource\extern\include\d3dx8math.inl
; File C:\DS Project\DS Files\Source\ClientSource\Client\eterGrnLib\ThingInstance.cpp
; File C:\DS Project\DS Files\Source\ClientSource\extern\include\d3dx8math.inl
; File C:\DS Project\DS Files\Source\ClientSource\Client\eterGrnLib\ThingInstance.cpp
; File C:\DS Project\DS Files\Source\ClientSource\extern\include\d3dx8math.inl
; File C:\Program Files (x86)\Windows Kits\10\Include\10.0.18362.0\ucrt\corecrt_math.h
; File C:\DS Project\DS Files\Source\ClientSource\Client\eterGrnLib\ThingInstance.cpp
; File C:\Program Files (x86)\Windows Kits\10\Include\10.0.18362.0\ucrt\corecrt_math.h
; File C:\DS Project\DS Files\Source\ClientSource\Client\eterGrnLib\ThingInstance.cpp
;	COMDAT ?BuildBoundingSphere@CGraphicThingInstance@@QAEXXZ
_TEXT	SEGMENT
$T1 = -28						; size = 12
_v3Min$ = -28						; size = 12
_v3Max$ = -16						; size = 12
__$ArrayPad$ = -4					; size = 4
?BuildBoundingSphere@CGraphicThingInstance@@QAEXXZ PROC	; CGraphicThingInstance::BuildBoundingSphere, COMDAT
; _this$ = ecx

; 91   : {

  00000	55		 push	 ebp
  00001	8b ec		 mov	 ebp, esp
  00003	83 e4 f8	 and	 esp, -8			; fffffff8H
  00006	83 ec 1c	 sub	 esp, 28			; 0000001cH
  00009	a1 00 00 00 00	 mov	 eax, DWORD PTR ___security_cookie
  0000e	33 c4		 xor	 eax, esp
  00010	89 44 24 18	 mov	 DWORD PTR __$ArrayPad$[esp+28], eax
  00014	56		 push	 esi

; 92   : 	D3DXVECTOR3 v3Min, v3Max;
; 93   : 	GetBoundBox(0, &v3Min, &v3Max);

  00015	8d 44 24 10	 lea	 eax, DWORD PTR _v3Max$[esp+32]
  00019	8b f1		 mov	 esi, ecx
  0001b	50		 push	 eax
  0001c	8d 44 24 08	 lea	 eax, DWORD PTR _v3Min$[esp+36]
  00020	50		 push	 eax
  00021	6a 00		 push	 0
  00023	e8 00 00 00 00	 call	 ?GetBoundBox@CGraphicThingInstance@@QAEHKPAUD3DXVECTOR3@@0@Z ; CGraphicThingInstance::GetBoundBox
; File C:\DS Project\DS Files\Source\ClientSource\extern\include\d3dx8math.inl

; 257  :     return D3DXVECTOR3(x + v.x, y + v.y, z + v.z);

  00028	f3 0f 10 54 24
	0c		 movss	 xmm2, DWORD PTR _v3Min$[esp+40]
  0002e	f3 0f 10 74 24
	18		 movss	 xmm6, DWORD PTR _v3Max$[esp+40]
  00034	0f 28 c2	 movaps	 xmm0, xmm2
  00037	f3 0f 10 4c 24
	08		 movss	 xmm1, DWORD PTR _v3Min$[esp+36]
  0003d	f3 0f 58 c6	 addss	 xmm0, xmm6
  00041	f3 0f 10 7c 24
	14		 movss	 xmm7, DWORD PTR _v3Max$[esp+36]

; 263  :     return D3DXVECTOR3(x - v.x, y - v.y, z - v.z);

  00047	f3 0f 5c f2	 subss	 xmm6, xmm2

; 257  :     return D3DXVECTOR3(x + v.x, y + v.y, z + v.z);

  0004b	f3 0f 10 5c 24
	10		 movss	 xmm3, DWORD PTR _v3Max$[esp+32]
  00051	f3 0f 58 cf	 addss	 xmm1, xmm7

; 263  :     return D3DXVECTOR3(x - v.x, y - v.y, z - v.z);

  00055	f3 0f 5c 7c 24
	08		 subss	 xmm7, DWORD PTR _v3Min$[esp+36]

; 257  :     return D3DXVECTOR3(x + v.x, y + v.y, z + v.z);

  0005b	f3 0f 58 5c 24
	04		 addss	 xmm3, DWORD PTR _v3Min$[esp+32]

; 181  :     y = fy;

  00061	f3 0f 59 05 00
	00 00 00	 mulss	 xmm0, DWORD PTR __real@3f000000
  00069	f3 0f 59 0d 00
	00 00 00	 mulss	 xmm1, DWORD PTR __real@3f000000

; 182  :     z = fz;

  00071	f3 0f 59 1d 00
	00 00 00	 mulss	 xmm3, DWORD PTR __real@3f000000
  00079	f3 0f 11 44 24
	0c		 movss	 DWORD PTR $T1[esp+40], xmm0

; 263  :     return D3DXVECTOR3(x - v.x, y - v.y, z - v.z);

  0007f	f3 0f 10 44 24
	10		 movss	 xmm0, DWORD PTR _v3Max$[esp+32]
  00085	f3 0f 5c 44 24
	04		 subss	 xmm0, DWORD PTR _v3Min$[esp+32]
; File C:\DS Project\DS Files\Source\ClientSource\Client\eterGrnLib\ThingInstance.cpp

; 94   : 	m_v3Center = (v3Min + v3Max) * 0.5f;

  0008b	8b 44 24 0c	 mov	 eax, DWORD PTR $T1[esp+40]
; File C:\DS Project\DS Files\Source\ClientSource\extern\include\d3dx8math.inl

; 182  :     z = fz;

  0008f	f3 0f 59 ff	 mulss	 xmm7, xmm7

; 1239 :     return sqrtf(pV->x * pV->x + pV->y * pV->y + pV->z * pV->z);

  00093	f3 0f 59 f6	 mulss	 xmm6, xmm6
  00097	f3 0f 59 c0	 mulss	 xmm0, xmm0
; File C:\DS Project\DS Files\Source\ClientSource\Client\eterGrnLib\ThingInstance.cpp

; 94   : 	m_v3Center = (v3Min + v3Max) * 0.5f;

  0009b	0f 14 d9	 unpcklps xmm3, xmm1
  0009e	0f 57 c9	 xorps	 xmm1, xmm1
  000a1	66 0f d6 9e 64
	02 00 00	 movq	 QWORD PTR [esi+612], xmm3
; File C:\DS Project\DS Files\Source\ClientSource\extern\include\d3dx8math.inl

; 1239 :     return sqrtf(pV->x * pV->x + pV->y * pV->y + pV->z * pV->z);

  000a9	f3 0f 58 f8	 addss	 xmm7, xmm0
; File C:\DS Project\DS Files\Source\ClientSource\Client\eterGrnLib\ThingInstance.cpp

; 94   : 	m_v3Center = (v3Min + v3Max) * 0.5f;

  000ad	89 86 6c 02 00
	00		 mov	 DWORD PTR [esi+620], eax
; File C:\DS Project\DS Files\Source\ClientSource\extern\include\d3dx8math.inl

; 1239 :     return sqrtf(pV->x * pV->x + pV->y * pV->y + pV->z * pV->z);

  000b3	f3 0f 58 fe	 addss	 xmm7, xmm6
; File C:\Program Files (x86)\Windows Kits\10\Include\10.0.18362.0\ucrt\corecrt_math.h

; 760  :             return (float)sqrt(_X);

  000b7	0f 5a c7	 cvtps2pd xmm0, xmm7
  000ba	66 0f 2e c8	 ucomisd xmm1, xmm0
  000be	77 06		 ja	 SHORT $LN19@BuildBound
  000c0	f2 0f 51 c0	 sqrtsd	 xmm0, xmm0
  000c4	eb 05		 jmp	 SHORT $LN20@BuildBound
$LN19@BuildBound:
  000c6	e8 00 00 00 00	 call	 __libm_sse2_sqrt_precise
$LN20@BuildBound:
; File C:\DS Project\DS Files\Source\ClientSource\Client\eterGrnLib\ThingInstance.cpp

; 98   : }

  000cb	8b 4c 24 1c	 mov	 ecx, DWORD PTR __$ArrayPad$[esp+32]
; File C:\Program Files (x86)\Windows Kits\10\Include\10.0.18362.0\ucrt\corecrt_math.h

; 760  :             return (float)sqrt(_X);

  000cf	f2 0f 5a c0	 cvtsd2ss xmm0, xmm0
; File C:\DS Project\DS Files\Source\ClientSource\Client\eterGrnLib\ThingInstance.cpp

; 97   : 	m_fRadius = D3DXVec3Length(&vDelta) * 0.5f + 50.0f; // extra length for attached objects

  000d3	f3 0f 59 05 00
	00 00 00	 mulss	 xmm0, DWORD PTR __real@3f000000
  000db	f3 0f 58 05 00
	00 00 00	 addss	 xmm0, DWORD PTR __real@42480000
  000e3	f3 0f 11 86 60
	02 00 00	 movss	 DWORD PTR [esi+608], xmm0

; 98   : }

  000eb	5e		 pop	 esi
  000ec	33 cc		 xor	 ecx, esp
  000ee	e8 00 00 00 00	 call	 @__security_check_cookie@4
  000f3	8b e5		 mov	 esp, ebp
  000f5	5d		 pop	 ebp
  000f6	c3		 ret	 0
?BuildBoundingSphere@CGraphicThingInstance@@QAEXXZ ENDP	; CGraphicThingInstance::BuildBoundingSphere
_TEXT	ENDS
; Function compile flags: /Ogtp
; File C:\DS Project\DS Files\Source\ClientSource\Client\eterGrnLib\ThingInstance.cpp
; File C:\Program Files (x86)\Microsoft Visual Studio\2019\Community\VC\Tools\MSVC\14.27.29110\include\vector
; File C:\DS Project\DS Files\Source\ClientSource\Client\eterGrnLib\ThingInstance.cpp
; File C:\Program Files (x86)\Microsoft Visual Studio\2019\Community\VC\Tools\MSVC\14.27.29110\include\vector
; File C:\DS Project\DS Files\Source\ClientSource\Client\eterGrnLib\ThingInstance.cpp
;	COMDAT ?UpdateTransform@CGraphicThingInstance@@QAEXPAUD3DXMATRIX@@MH@Z
_TEXT	SEGMENT
_pMatrix$ = 8						; size = 4
_fSecondsElapsed$ = 12					; size = 4
_iModelInstanceIndex$ = 16				; size = 4
?UpdateTransform@CGraphicThingInstance@@QAEXPAUD3DXMATRIX@@MH@Z PROC ; CGraphicThingInstance::UpdateTransform, COMDAT
; _this$ = ecx

; 653  : {

  00000	55		 push	 ebp
  00001	8b ec		 mov	 ebp, esp
; File C:\Program Files (x86)\Microsoft Visual Studio\2019\Community\VC\Tools\MSVC\14.27.29110\include\vector

; 1484 :         return static_cast<size_type>(_My_data._Mylast - _My_data._Myfirst);

  00003	8b 81 8c 02 00
	00		 mov	 eax, DWORD PTR [ecx+652]
  00009	8b 91 88 02 00
	00		 mov	 edx, DWORD PTR [ecx+648]
  0000f	2b c2		 sub	 eax, edx
; File C:\DS Project\DS Files\Source\ClientSource\Client\eterGrnLib\ThingInstance.cpp

; 656  : 	if (iModelInstanceIndex>=nLODCount)

  00011	8b 4d 10	 mov	 ecx, DWORD PTR _iModelInstanceIndex$[ebp]
; File C:\Program Files (x86)\Microsoft Visual Studio\2019\Community\VC\Tools\MSVC\14.27.29110\include\vector

; 1484 :         return static_cast<size_type>(_My_data._Mylast - _My_data._Myfirst);

  00014	c1 f8 02	 sar	 eax, 2
; File C:\DS Project\DS Files\Source\ClientSource\Client\eterGrnLib\ThingInstance.cpp

; 656  : 	if (iModelInstanceIndex>=nLODCount)

  00017	3b c8		 cmp	 ecx, eax
  00019	7d 25		 jge	 SHORT $LN1@UpdateTran

; 657  : 	{
; 658  : 		//TraceError("void CGraphicThingInstance::UpdateTransform(pMatrix, fSecondsElapsed=%f, iModelInstanceIndex=%d/nLODCount=%d)",
; 659  : 		//	fSecondsElapsed, iModelInstanceIndex, nLODCount);
; 660  : 		return;
; 661  : 	}
; 662  : 
; 663  : 	CGrannyLODController* pkLODCtrl=m_LODControllerVector[iModelInstanceIndex];

  0001b	8b 0c 8a	 mov	 ecx, DWORD PTR [edx+ecx*4]

; 664  : 	if (!pkLODCtrl)

  0001e	85 c9		 test	 ecx, ecx
  00020	74 1e		 je	 SHORT $LN1@UpdateTran

; 665  : 	{
; 666  : 		//TraceError("void CGraphicThingInstance::UpdateTransform(pMatrix, fSecondsElapsed=%f, iModelInstanceIndex=%d/nLODCount=%d) - m_LODControllerVector[iModelInstanceIndex] == NULL",
; 667  : 		//	fSecondsElapsed, iModelInstanceIndex, nLODCount);
; 668  : 		return;
; 669  : 	}
; 670  : 
; 671  : 	CGrannyModelInstance * pModelInstance = pkLODCtrl->GetModelInstance();

  00022	e8 00 00 00 00	 call	 ?GetModelInstance@CGrannyLODController@@QAEPAVCGrannyModelInstance@@XZ ; CGrannyLODController::GetModelInstance

; 672  : 	if (!pModelInstance)

  00027	85 c0		 test	 eax, eax
  00029	74 15		 je	 SHORT $LN1@UpdateTran

; 673  : 	{
; 674  : 	/*	TraceError("void CGraphicThingInstance::UpdateTransform(pMatrix, fSecondsElapsed=%f, iModelInstanceIndex=%d/nLODCount=%d) - pkLODCtrl->GetModelInstance() == NULL",
; 675  : 			fSecondsElapsed, iModelInstanceIndex, nLODCount);*/
; 676  : 		return;
; 677  : 	}
; 678  : 
; 679  : 	pModelInstance->UpdateTransform(pMatrix, fSecondsElapsed);

  0002b	f3 0f 10 45 0c	 movss	 xmm0, DWORD PTR _fSecondsElapsed$[ebp]
  00030	51		 push	 ecx
  00031	f3 0f 11 04 24	 movss	 DWORD PTR [esp], xmm0
  00036	8b c8		 mov	 ecx, eax
  00038	ff 75 08	 push	 DWORD PTR _pMatrix$[ebp]
  0003b	e8 00 00 00 00	 call	 ?UpdateTransform@CGrannyModelInstance@@QAEXPAUD3DXMATRIX@@M@Z ; CGrannyModelInstance::UpdateTransform
$LN1@UpdateTran:

; 680  : }

  00040	5d		 pop	 ebp
  00041	c2 0c 00	 ret	 12			; 0000000cH
?UpdateTransform@CGraphicThingInstance@@QAEXPAUD3DXMATRIX@@MH@Z ENDP ; CGraphicThingInstance::UpdateTransform
_TEXT	ENDS
; Function compile flags: /Ogtp
; File C:\DS Project\DS Files\Source\ClientSource\Client\eterGrnLib\ThingInstance.cpp
; File C:\Program Files (x86)\Microsoft Visual Studio\2019\Community\VC\Tools\MSVC\14.27.29110\include\vector
; File C:\DS Project\DS Files\Source\ClientSource\Client\eterGrnLib\ThingInstance.cpp
;	COMDAT ?GetCompositeBoneMatrix@CGraphicThingInstance@@QAEHKKPAPAUD3DXMATRIX@@@Z
_TEXT	SEGMENT
_dwModelInstanceIndex$ = 8				; size = 4
_dwBoneIndex$ = 12					; size = 4
_ppMatrix$ = 16						; size = 4
?GetCompositeBoneMatrix@CGraphicThingInstance@@QAEHKKPAPAUD3DXMATRIX@@@Z PROC ; CGraphicThingInstance::GetCompositeBoneMatrix, COMDAT
; _this$ = ecx

; 636  : {

  00000	55		 push	 ebp
  00001	8b ec		 mov	 ebp, esp
  00003	56		 push	 esi
  00004	57		 push	 edi

; 637  : 	if (!CheckModelInstanceIndex(dwModelInstanceIndex))

  00005	8b 7d 08	 mov	 edi, DWORD PTR _dwModelInstanceIndex$[ebp]
  00008	8b f1		 mov	 esi, ecx
  0000a	57		 push	 edi
  0000b	e8 00 00 00 00	 call	 ?CheckModelInstanceIndex@CGraphicThingInstance@@QAE_NH@Z ; CGraphicThingInstance::CheckModelInstanceIndex
  00010	84 c0		 test	 al, al
  00012	74 2c		 je	 SHORT $LN7@GetComposi
; File C:\Program Files (x86)\Microsoft Visual Studio\2019\Community\VC\Tools\MSVC\14.27.29110\include\vector

; 1504 :         return _My_data._Myfirst[_Pos];

  00014	8b 86 88 02 00
	00		 mov	 eax, DWORD PTR [esi+648]
; File C:\DS Project\DS Files\Source\ClientSource\Client\eterGrnLib\ThingInstance.cpp

; 640  : 	CGrannyModelInstance * pModelInstance = m_LODControllerVector[dwModelInstanceIndex]->GetModelInstance();

  0001a	8b 0c b8	 mov	 ecx, DWORD PTR [eax+edi*4]
  0001d	e8 00 00 00 00	 call	 ?GetModelInstance@CGrannyLODController@@QAEPAVCGrannyModelInstance@@XZ ; CGrannyLODController::GetModelInstance

; 641  : 	if (!pModelInstance)

  00022	85 c0		 test	 eax, eax
  00024	74 1a		 je	 SHORT $LN7@GetComposi

; 645  : 	}
; 646  : 
; 647  : 	*ppMatrix = (D3DXMATRIX *)pModelInstance->GetCompositeBoneMatrixPointer(dwBoneIndex);

  00026	ff 75 0c	 push	 DWORD PTR _dwBoneIndex$[ebp]
  00029	8b c8		 mov	 ecx, eax
  0002b	e8 00 00 00 00	 call	 ?GetCompositeBoneMatrixPointer@CGrannyModelInstance@@QBEPBMH@Z ; CGrannyModelInstance::GetCompositeBoneMatrixPointer
  00030	8b 4d 10	 mov	 ecx, DWORD PTR _ppMatrix$[ebp]
  00033	5f		 pop	 edi

; 648  : 
; 649  : 	return TRUE;
; 650  : }

  00034	5e		 pop	 esi
  00035	89 01		 mov	 DWORD PTR [ecx], eax
  00037	b8 01 00 00 00	 mov	 eax, 1
  0003c	5d		 pop	 ebp
  0003d	c2 0c 00	 ret	 12			; 0000000cH
$LN7@GetComposi:
  00040	5f		 pop	 edi

; 642  : 	{
; 643  : 		//TraceError("CGraphicThingInstance::GetCompositeBoneMatrix(dwModelInstanceIndex=%d, dwBoneIndex=%d, D3DXMATRIX ** ppMatrix)", dwModelInstanceIndex, dwBoneIndex);
; 644  : 		return FALSE;

  00041	33 c0		 xor	 eax, eax

; 648  : 
; 649  : 	return TRUE;
; 650  : }

  00043	5e		 pop	 esi
  00044	5d		 pop	 ebp
  00045	c2 0c 00	 ret	 12			; 0000000cH
?GetCompositeBoneMatrix@CGraphicThingInstance@@QAEHKKPAPAUD3DXMATRIX@@@Z ENDP ; CGraphicThingInstance::GetCompositeBoneMatrix
_TEXT	ENDS
; Function compile flags: /Ogtp
; File C:\DS Project\DS Files\Source\ClientSource\Client\eterGrnLib\ThingInstance.cpp
; File C:\Program Files (x86)\Microsoft Visual Studio\2019\Community\VC\Tools\MSVC\14.27.29110\include\vector
; File C:\DS Project\DS Files\Source\ClientSource\Client\eterGrnLib\ThingInstance.cpp
;	COMDAT ?GetBoneMatrix@CGraphicThingInstance@@QAEHKKPAPAUD3DXMATRIX@@@Z
_TEXT	SEGMENT
_dwModelInstanceIndex$ = 8				; size = 4
_dwBoneIndex$ = 12					; size = 4
_ppMatrix$ = 16						; size = 4
?GetBoneMatrix@CGraphicThingInstance@@QAEHKKPAPAUD3DXMATRIX@@@Z PROC ; CGraphicThingInstance::GetBoneMatrix, COMDAT
; _this$ = ecx

; 620  : {

  00000	55		 push	 ebp
  00001	8b ec		 mov	 ebp, esp
  00003	56		 push	 esi
  00004	57		 push	 edi

; 621  : 	if (!CheckModelInstanceIndex(dwModelInstanceIndex))

  00005	8b 7d 08	 mov	 edi, DWORD PTR _dwModelInstanceIndex$[ebp]
  00008	8b f1		 mov	 esi, ecx
  0000a	57		 push	 edi
  0000b	e8 00 00 00 00	 call	 ?CheckModelInstanceIndex@CGraphicThingInstance@@QAE_NH@Z ; CGraphicThingInstance::CheckModelInstanceIndex
  00010	84 c0		 test	 al, al
  00012	74 30		 je	 SHORT $LN8@GetBoneMat
; File C:\Program Files (x86)\Microsoft Visual Studio\2019\Community\VC\Tools\MSVC\14.27.29110\include\vector

; 1504 :         return _My_data._Myfirst[_Pos];

  00014	8b 86 88 02 00
	00		 mov	 eax, DWORD PTR [esi+648]
; File C:\DS Project\DS Files\Source\ClientSource\Client\eterGrnLib\ThingInstance.cpp

; 624  : 	CGrannyModelInstance * pModelInstance = m_LODControllerVector[dwModelInstanceIndex]->GetModelInstance();

  0001a	8b 0c b8	 mov	 ecx, DWORD PTR [eax+edi*4]
  0001d	e8 00 00 00 00	 call	 ?GetModelInstance@CGrannyLODController@@QAEPAVCGrannyModelInstance@@XZ ; CGrannyLODController::GetModelInstance

; 625  : 	if (!pModelInstance)

  00022	85 c0		 test	 eax, eax
  00024	74 1e		 je	 SHORT $LN8@GetBoneMat

; 626  : 		return FALSE;
; 627  : 
; 628  : 	*ppMatrix = (D3DXMATRIX *)pModelInstance->GetBoneMatrixPointer(dwBoneIndex);

  00026	ff 75 0c	 push	 DWORD PTR _dwBoneIndex$[ebp]
  00029	8b c8		 mov	 ecx, eax
  0002b	e8 00 00 00 00	 call	 ?GetBoneMatrixPointer@CGrannyModelInstance@@QBEPBMH@Z ; CGrannyModelInstance::GetBoneMatrixPointer
  00030	8b 4d 10	 mov	 ecx, DWORD PTR _ppMatrix$[ebp]
  00033	89 01		 mov	 DWORD PTR [ecx], eax

; 629  : 	if (!*ppMatrix)

  00035	85 c0		 test	 eax, eax
  00037	74 0b		 je	 SHORT $LN8@GetBoneMat

; 631  : 
; 632  : 	return TRUE;

  00039	5f		 pop	 edi
  0003a	b8 01 00 00 00	 mov	 eax, 1

; 633  : }

  0003f	5e		 pop	 esi
  00040	5d		 pop	 ebp
  00041	c2 0c 00	 ret	 12			; 0000000cH
$LN8@GetBoneMat:
  00044	5f		 pop	 edi

; 630  : 		return FALSE;

  00045	33 c0		 xor	 eax, eax

; 633  : }

  00047	5e		 pop	 esi
  00048	5d		 pop	 ebp
  00049	c2 0c 00	 ret	 12			; 0000000cH
?GetBoneMatrix@CGraphicThingInstance@@QAEHKKPAPAUD3DXMATRIX@@@Z ENDP ; CGraphicThingInstance::GetBoneMatrix
_TEXT	ENDS
; Function compile flags: /Ogtp
; File C:\DS Project\DS Files\Source\ClientSource\Client\eterGrnLib\ThingInstance.cpp
;	COMDAT ?GetBoundBox@CGraphicThingInstance@@QAEHKPAUD3DXVECTOR3@@0@Z
_TEXT	SEGMENT
_dwModelInstanceIndex$ = 8				; size = 4
_vtMin$ = 12						; size = 4
_vtMax$ = 16						; size = 4
?GetBoundBox@CGraphicThingInstance@@QAEHKPAUD3DXVECTOR3@@0@Z PROC ; CGraphicThingInstance::GetBoundBox, COMDAT
; _this$ = ecx

; 603  : {

  00000	55		 push	 ebp
  00001	8b ec		 mov	 ebp, esp
  00003	53		 push	 ebx
  00004	56		 push	 esi
  00005	57		 push	 edi

; 604  : 	if (!CheckModelInstanceIndex(dwModelInstanceIndex))

  00006	ff 75 08	 push	 DWORD PTR _dwModelInstanceIndex$[ebp]
  00009	8b d9		 mov	 ebx, ecx
  0000b	e8 00 00 00 00	 call	 ?CheckModelInstanceIndex@CGraphicThingInstance@@QAE_NH@Z ; CGraphicThingInstance::CheckModelInstanceIndex
  00010	84 c0		 test	 al, al
  00012	74 61		 je	 SHORT $LN7@GetBoundBo

; 605  : 		return FALSE;
; 606  : 
; 607  : 	vtMin->x = vtMin->y = vtMin->z = 100000.0f;

  00014	8b 75 0c	 mov	 esi, DWORD PTR _vtMin$[ebp]

; 608  : 	vtMax->x = vtMax->y = vtMax->z = -100000.0f;
; 609  : 
; 610  : 	CGrannyLODController * pController = m_LODControllerVector[dwModelInstanceIndex];

  00017	8b 83 88 02 00
	00		 mov	 eax, DWORD PTR [ebx+648]
  0001d	8b 4d 08	 mov	 ecx, DWORD PTR _dwModelInstanceIndex$[ebp]
  00020	8b 7d 10	 mov	 edi, DWORD PTR _vtMax$[ebp]
  00023	c7 46 08 00 50
	c3 47		 mov	 DWORD PTR [esi+8], 1203982336 ; 47c35000H
  0002a	c7 46 04 00 50
	c3 47		 mov	 DWORD PTR [esi+4], 1203982336 ; 47c35000H
  00031	8b 1c 88	 mov	 ebx, DWORD PTR [eax+ecx*4]

; 611  : 	if (!pController->isModelInstance())

  00034	8b cb		 mov	 ecx, ebx
  00036	c7 06 00 50 c3
	47		 mov	 DWORD PTR [esi], 1203982336 ; 47c35000H
  0003c	c7 47 08 00 50
	c3 c7		 mov	 DWORD PTR [edi+8], -943501312 ; c7c35000H
  00043	c7 47 04 00 50
	c3 c7		 mov	 DWORD PTR [edi+4], -943501312 ; c7c35000H
  0004a	c7 07 00 50 c3
	c7		 mov	 DWORD PTR [edi], -943501312 ; c7c35000H
  00050	e8 00 00 00 00	 call	 ?isModelInstance@CGrannyLODController@@QAEHXZ ; CGrannyLODController::isModelInstance
  00055	85 c0		 test	 eax, eax
  00057	74 1c		 je	 SHORT $LN7@GetBoundBo

; 612  : 		return FALSE;
; 613  : 
; 614  : 	CGrannyModelInstance * pModelInstance = pController->GetModelInstance();

  00059	8b cb		 mov	 ecx, ebx
  0005b	e8 00 00 00 00	 call	 ?GetModelInstance@CGrannyLODController@@QAEPAVCGrannyModelInstance@@XZ ; CGrannyLODController::GetModelInstance

; 615  : 	pModelInstance->GetBoundBox(vtMin, vtMax);

  00060	57		 push	 edi
  00061	56		 push	 esi
  00062	8b c8		 mov	 ecx, eax
  00064	e8 00 00 00 00	 call	 ?GetBoundBox@CGrannyModelInstance@@QAEXPAUD3DXVECTOR3@@0@Z ; CGrannyModelInstance::GetBoundBox
  00069	5f		 pop	 edi

; 616  : 	return TRUE;
; 617  : }

  0006a	5e		 pop	 esi
  0006b	b8 01 00 00 00	 mov	 eax, 1
  00070	5b		 pop	 ebx
  00071	5d		 pop	 ebp
  00072	c2 0c 00	 ret	 12			; 0000000cH
$LN7@GetBoundBo:
  00075	5f		 pop	 edi
  00076	5e		 pop	 esi
  00077	33 c0		 xor	 eax, eax
  00079	5b		 pop	 ebx
  0007a	5d		 pop	 ebp
  0007b	c2 0c 00	 ret	 12			; 0000000cH
?GetBoundBox@CGraphicThingInstance@@QAEHKPAUD3DXVECTOR3@@0@Z ENDP ; CGraphicThingInstance::GetBoundBox
_TEXT	ENDS
; Function compile flags: /Ogtp
; File C:\DS Project\DS Files\Source\ClientSource\Client\eterGrnLib\ThingInstance.cpp
; File C:\Program Files (x86)\Microsoft Visual Studio\2019\Community\VC\Tools\MSVC\14.27.29110\include\algorithm
; File C:\DS Project\DS Files\Source\ClientSource\Client\eterGrnLib\ThingInstance.cpp
; File C:\Program Files (x86)\Microsoft Visual Studio\2019\Community\VC\Tools\MSVC\14.27.29110\include\vector
; File C:\Program Files (x86)\Microsoft Visual Studio\2019\Community\VC\Tools\MSVC\14.27.29110\include\algorithm
; File C:\DS Project\DS Files\Source\ClientSource\Client\eterGrnLib\LODController.h
; File C:\Program Files (x86)\Microsoft Visual Studio\2019\Community\VC\Tools\MSVC\14.27.29110\include\algorithm
; File C:\DS Project\DS Files\Source\ClientSource\Client\eterGrnLib\ThingInstance.cpp
;	COMDAT ?GetBoundBox@CGraphicThingInstance@@QAEXPAUD3DXVECTOR3@@0@Z
_TEXT	SEGMENT
tv269 = 8						; size = 4
_vtMin$ = 8						; size = 4
_vtMax$ = 12						; size = 4
?GetBoundBox@CGraphicThingInstance@@QAEXPAUD3DXVECTOR3@@0@Z PROC ; CGraphicThingInstance::GetBoundBox, COMDAT
; _this$ = ecx

; 596  : {

  00000	55		 push	 ebp
  00001	8b ec		 mov	 ebp, esp

; 598  : 	vtMax->x = vtMax->y = vtMax->z = -100000.0f;

  00003	8b 45 0c	 mov	 eax, DWORD PTR _vtMax$[ebp]
  00006	53		 push	 ebx
  00007	8b 5d 08	 mov	 ebx, DWORD PTR _vtMin$[ebp]
  0000a	56		 push	 esi
; File C:\Program Files (x86)\Microsoft Visual Studio\2019\Community\VC\Tools\MSVC\14.27.29110\include\algorithm

; 235  :     for (; _UFirst != _ULast; ++_UFirst) {

  0000b	8b b1 88 02 00
	00		 mov	 esi, DWORD PTR [ecx+648]
; File C:\DS Project\DS Files\Source\ClientSource\Client\eterGrnLib\ThingInstance.cpp

; 597  : 	vtMin->x = vtMin->y = vtMin->z = 100000.0f;

  00011	c7 43 08 00 50
	c3 47		 mov	 DWORD PTR [ebx+8], 1203982336 ; 47c35000H
  00018	c7 43 04 00 50
	c3 47		 mov	 DWORD PTR [ebx+4], 1203982336 ; 47c35000H
  0001f	c7 03 00 50 c3
	47		 mov	 DWORD PTR [ebx], 1203982336 ; 47c35000H

; 598  : 	vtMax->x = vtMax->y = vtMax->z = -100000.0f;

  00025	c7 40 08 00 50
	c3 c7		 mov	 DWORD PTR [eax+8], -943501312 ; c7c35000H
  0002c	c7 40 04 00 50
	c3 c7		 mov	 DWORD PTR [eax+4], -943501312 ; c7c35000H
  00033	c7 00 00 50 c3
	c7		 mov	 DWORD PTR [eax], -943501312 ; c7c35000H
; File C:\Program Files (x86)\Microsoft Visual Studio\2019\Community\VC\Tools\MSVC\14.27.29110\include\vector

; 42   :     _Vector_const_iterator(_Tptr _Parg, const _Container_base* _Pvector) noexcept : _Ptr(_Parg) {

  00039	8b 81 8c 02 00
	00		 mov	 eax, DWORD PTR [ecx+652]
  0003f	89 45 08	 mov	 DWORD PTR tv269[ebp], eax
; File C:\Program Files (x86)\Microsoft Visual Studio\2019\Community\VC\Tools\MSVC\14.27.29110\include\algorithm

; 235  :     for (; _UFirst != _ULast; ++_UFirst) {

  00042	3b f0		 cmp	 esi, eax
  00044	74 22		 je	 SHORT $LN19@GetBoundBo
  00046	57		 push	 edi
$LL20@GetBoundBo:

; 236  :         _Func(*_UFirst);

  00047	8b 3e		 mov	 edi, DWORD PTR [esi]
; File C:\DS Project\DS Files\Source\ClientSource\Client\eterGrnLib\LODController.h

; 163  : 				if (pController->isModelInstance())

  00049	8b cf		 mov	 ecx, edi
  0004b	e8 00 00 00 00	 call	 ?isModelInstance@CGrannyLODController@@QAEHXZ ; CGrannyLODController::isModelInstance
  00050	85 c0		 test	 eax, eax
  00052	74 0b		 je	 SHORT $LN18@GetBoundBo

; 164  : 					pController->GetBoundBox(m_vtMin, m_vtMax);

  00054	ff 75 0c	 push	 DWORD PTR _vtMax$[ebp]
  00057	8b cf		 mov	 ecx, edi
  00059	53		 push	 ebx
  0005a	e8 00 00 00 00	 call	 ?GetBoundBox@CGrannyLODController@@QAEXPAUD3DXVECTOR3@@0@Z ; CGrannyLODController::GetBoundBox
$LN18@GetBoundBo:
; File C:\Program Files (x86)\Microsoft Visual Studio\2019\Community\VC\Tools\MSVC\14.27.29110\include\algorithm

; 235  :     for (; _UFirst != _ULast; ++_UFirst) {

  0005f	83 c6 04	 add	 esi, 4
  00062	3b 75 08	 cmp	 esi, DWORD PTR tv269[ebp]
  00065	75 e0		 jne	 SHORT $LL20@GetBoundBo
  00067	5f		 pop	 edi
$LN19@GetBoundBo:
  00068	5e		 pop	 esi
; File C:\DS Project\DS Files\Source\ClientSource\Client\eterGrnLib\ThingInstance.cpp

; 600  : }

  00069	5b		 pop	 ebx
  0006a	5d		 pop	 ebp
  0006b	c2 08 00	 ret	 8
?GetBoundBox@CGraphicThingInstance@@QAEXPAUD3DXVECTOR3@@0@Z ENDP ; CGraphicThingInstance::GetBoundBox
_TEXT	ENDS
; Function compile flags: /Ogtp
; File C:\DS Project\DS Files\Source\ClientSource\Client\eterGrnLib\ThingInstance.cpp
; File C:\Program Files (x86)\Microsoft Visual Studio\2019\Community\VC\Tools\MSVC\14.27.29110\include\vector
; File C:\DS Project\DS Files\Source\ClientSource\Client\eterGrnLib\ThingInstance.cpp
;	COMDAT ?Intersect@CGraphicThingInstance@@QAE_NPAM00@Z
_TEXT	SEGMENT
_pu$ = 8						; size = 4
_pv$ = 12						; size = 4
_pt$ = 16						; size = 4
?Intersect@CGraphicThingInstance@@QAE_NPAM00@Z PROC	; CGraphicThingInstance::Intersect, COMDAT
; _this$ = ecx

; 580  : {

  00000	55		 push	 ebp
  00001	8b ec		 mov	 ebp, esp
  00003	56		 push	 esi
  00004	57		 push	 edi
  00005	8b f9		 mov	 edi, ecx

; 581  : 	if (!CGraphicObjectInstance::isShow())

  00007	e8 00 00 00 00	 call	 ?isShow@CGraphicObjectInstance@@QAE_NXZ ; CGraphicObjectInstance::isShow
  0000c	84 c0		 test	 al, al
  0000e	74 37		 je	 SHORT $LN10@Intersect

; 582  : 		return false;
; 583  : 	if (!m_bUpdated)

  00010	80 bf 48 02 00
	00 00		 cmp	 BYTE PTR [edi+584], 0
  00017	74 2e		 je	 SHORT $LN10@Intersect
; File C:\Program Files (x86)\Microsoft Visual Studio\2019\Community\VC\Tools\MSVC\14.27.29110\include\vector

; 1479 :         return _My_data._Myfirst == _My_data._Mylast;

  00019	8b b7 88 02 00
	00		 mov	 esi, DWORD PTR [edi+648]
  0001f	3b b7 8c 02 00
	00		 cmp	 esi, DWORD PTR [edi+652]
; File C:\DS Project\DS Files\Source\ClientSource\Client\eterGrnLib\ThingInstance.cpp

; 586  : 	if (m_LODControllerVector.empty())

  00025	74 20		 je	 SHORT $LN10@Intersect

; 590  : 	}
; 591  : 
; 592  : 	return m_LODControllerVector[0]->Intersect(&GetTransform(), pu, pv, pt);

  00027	ff 75 10	 push	 DWORD PTR _pt$[ebp]
  0002a	8b 36		 mov	 esi, DWORD PTR [esi]
  0002c	8b cf		 mov	 ecx, edi
  0002e	ff 75 0c	 push	 DWORD PTR _pv$[ebp]
  00031	ff 75 08	 push	 DWORD PTR _pu$[ebp]
  00034	e8 00 00 00 00	 call	 ?GetTransform@CGraphicObjectInstance@@QAEAAUD3DXMATRIX@@XZ ; CGraphicObjectInstance::GetTransform
  00039	50		 push	 eax
  0003a	8b ce		 mov	 ecx, esi
  0003c	e8 00 00 00 00	 call	 ?Intersect@CGrannyLODController@@QAE_NPBUD3DXMATRIX@@PAM11@Z ; CGrannyLODController::Intersect
  00041	5f		 pop	 edi

; 593  : }

  00042	5e		 pop	 esi
  00043	5d		 pop	 ebp
  00044	c2 0c 00	 ret	 12			; 0000000cH
$LN10@Intersect:
  00047	5f		 pop	 edi

; 587  : 	{
; 588  : 		//TraceError("CGraphicThingInstance::Intersect - m_LODControllerVector is empty");
; 589  : 		return false;

  00048	32 c0		 xor	 al, al

; 593  : }

  0004a	5e		 pop	 esi
  0004b	5d		 pop	 ebp
  0004c	c2 0c 00	 ret	 12			; 0000000cH
?Intersect@CGraphicThingInstance@@QAE_NPAM00@Z ENDP	; CGraphicThingInstance::Intersect
_TEXT	ENDS
; Function compile flags: /Ogtp
; File C:\DS Project\DS Files\Source\ClientSource\Client\eterGrnLib\ThingInstance.cpp
; File C:\Program Files (x86)\Microsoft Visual Studio\2019\Community\VC\Tools\MSVC\14.27.29110\include\xtree
; File C:\Program Files (x86)\Microsoft Visual Studio\2019\Community\VC\Tools\MSVC\14.27.29110\include\xstddef
; File C:\Program Files (x86)\Microsoft Visual Studio\2019\Community\VC\Tools\MSVC\14.27.29110\include\xtree
; File C:\DS Project\DS Files\Source\ClientSource\Client\eterGrnLib\ThingInstance.cpp
; File C:\Program Files (x86)\Microsoft Visual Studio\2019\Community\VC\Tools\MSVC\14.27.29110\include\vector
; File C:\Program Files (x86)\Microsoft Visual Studio\2019\Community\VC\Tools\MSVC\14.27.29110\include\algorithm
; File C:\DS Project\DS Files\Source\ClientSource\Client\eterGrnLib\ThingInstance.cpp
; File C:\Program Files (x86)\Microsoft Visual Studio\2019\Community\VC\Tools\MSVC\14.27.29110\include\algorithm
; File C:\DS Project\DS Files\Source\ClientSource\Client\eterGrnLib\LODController.h
; File C:\Program Files (x86)\Microsoft Visual Studio\2019\Community\VC\Tools\MSVC\14.27.29110\include\algorithm
; File C:\DS Project\DS Files\Source\ClientSource\Client\eterGrnLib\ThingInstance.cpp
;	COMDAT ?ChangeMotion@CGraphicThingInstance@@QAE_NKHM@Z
_TEXT	SEGMENT
__Loc$1 = -12						; size = 12
_ChangeMotionPointer$$sroa$245$1$ = 8			; size = 4
_dwMotionKey$ = 8					; size = 4
_loopCount$ = 12					; size = 4
_speedRatio$ = 16					; size = 4
?ChangeMotion@CGraphicThingInstance@@QAE_NKHM@Z PROC	; CGraphicThingInstance::ChangeMotion, COMDAT
; _this$ = ecx

; 481  : {

  00000	55		 push	 ebp
  00001	8b ec		 mov	 ebp, esp
  00003	83 ec 0c	 sub	 esp, 12			; 0000000cH
  00006	53		 push	 ebx
  00007	56		 push	 esi

; 482  : 	if (!CheckMotionThingIndex(dwMotionKey))

  00008	8b 75 08	 mov	 esi, DWORD PTR _dwMotionKey$[ebp]
  0000b	57		 push	 edi
  0000c	56		 push	 esi
  0000d	8b f9		 mov	 edi, ecx
  0000f	e8 00 00 00 00	 call	 ?CheckMotionThingIndex@CGraphicThingInstance@@QAE_NK@Z ; CGraphicThingInstance::CheckMotionThingIndex
  00014	84 c0		 test	 al, al
  00016	0f 84 90 00 00
	00		 je	 $LN54@ChangeMoti
; File C:\Program Files (x86)\Microsoft Visual Studio\2019\Community\VC\Tools\MSVC\14.27.29110\include\xtree

; 1458 :         const _Tree_find_result<_Nodeptr> _Loc = _Find_lower_bound(_Keyval);

  0001c	8d 45 08	 lea	 eax, DWORD PTR _dwMotionKey$[ebp]
  0001f	50		 push	 eax
  00020	8d 45 f4	 lea	 eax, DWORD PTR __Loc$1[ebp]
  00023	50		 push	 eax
  00024	8d 8f a0 02 00
	00		 lea	 ecx, DWORD PTR [edi+672]
  0002a	e8 00 00 00 00	 call	 ??$_Find_lower_bound@K@?$_Tree@V?$_Tmap_traits@KPAV?$CRef@VCGraphicThing@@@@U?$less@K@std@@V?$allocator@U?$pair@$$CBKPAV?$CRef@VCGraphicThing@@@@@std@@@3@$0A@@std@@@std@@IBE?AU?$_Tree_find_result@PAU?$_Tree_node@U?$pair@$$CBKPAV?$CRef@VCGraphicThing@@@@@std@@PAX@std@@@1@ABK@Z ; std::_Tree<std::_Tmap_traits<unsigned long,CRef<CGraphicThing> *,std::less<unsigned long>,std::allocator<std::pair<unsigned long const ,CRef<CGraphicThing> *> >,0> >::_Find_lower_bound<unsigned long>

; 1695 :         return !_Bound->_Isnil && !_DEBUG_LT_PRED(_Getcomp(), _Keyval, _Traits::_Kfn(_Bound->_Myval));

  0002f	8b 45 fc	 mov	 eax, DWORD PTR __Loc$1[ebp+8]
  00032	80 78 0d 00	 cmp	 BYTE PTR [eax+13], 0
  00036	75 05		 jne	 SHORT $LN9@ChangeMoti
; File C:\Program Files (x86)\Microsoft Visual Studio\2019\Community\VC\Tools\MSVC\14.27.29110\include\xstddef

; 127  :         return _Left < _Right;

  00038	3b 70 10	 cmp	 esi, DWORD PTR [eax+16]
; File C:\Program Files (x86)\Microsoft Visual Studio\2019\Community\VC\Tools\MSVC\14.27.29110\include\xtree

; 1695 :         return !_Bound->_Isnil && !_DEBUG_LT_PRED(_Getcomp(), _Keyval, _Traits::_Kfn(_Bound->_Myval));

  0003b	73 06		 jae	 SHORT $LN8@ChangeMoti
$LN9@ChangeMoti:

; 1463 :         return _Get_scary()->_Myhead;

  0003d	8b 87 a0 02 00
	00		 mov	 eax, DWORD PTR [edi+672]
$LN8@ChangeMoti:
; File C:\DS Project\DS Files\Source\ClientSource\Client\eterGrnLib\ThingInstance.cpp

; 486  : 	CGraphicThing::TRef * proMotionThing = itor->second;

  00043	8b 40 14	 mov	 eax, DWORD PTR [eax+20]

; 487  : 	CGraphicThing * pMotionThing = proMotionThing->GetPointer();

  00046	8b 30		 mov	 esi, DWORD PTR [eax]

; 488  : 
; 489  : 	if (!pMotionThing)

  00048	85 f6		 test	 esi, esi
  0004a	74 60		 je	 SHORT $LN54@ChangeMoti

; 490  : 		return false;
; 491  : 
; 492  : 	if (!pMotionThing->CheckMotionIndex(0))

  0004c	6a 00		 push	 0
  0004e	8b ce		 mov	 ecx, esi
  00050	e8 00 00 00 00	 call	 ?CheckMotionIndex@CGraphicThing@@QBE_NH@Z ; CGraphicThing::CheckMotionIndex
  00055	84 c0		 test	 al, al
  00057	74 53		 je	 SHORT $LN54@ChangeMoti

; 496  : 	ChangeMotionPointer.m_pMotion = pMotionThing->GetMotionPointer(0);

  00059	6a 00		 push	 0
  0005b	8b ce		 mov	 ecx, esi
  0005d	e8 00 00 00 00	 call	 ?GetMotionPointer@CGraphicThing@@QAEPAVCGrannyMotion@@H@Z ; CGraphicThing::GetMotionPointer
; File C:\Program Files (x86)\Microsoft Visual Studio\2019\Community\VC\Tools\MSVC\14.27.29110\include\vector

; 42   :     _Vector_const_iterator(_Tptr _Parg, const _Container_base* _Pvector) noexcept : _Ptr(_Parg) {

  00062	8b 9f 8c 02 00
	00		 mov	 ebx, DWORD PTR [edi+652]
; File C:\Program Files (x86)\Microsoft Visual Studio\2019\Community\VC\Tools\MSVC\14.27.29110\include\algorithm

; 235  :     for (; _UFirst != _ULast; ++_UFirst) {

  00068	8b b7 88 02 00
	00		 mov	 esi, DWORD PTR [edi+648]
; File C:\DS Project\DS Files\Source\ClientSource\Client\eterGrnLib\ThingInstance.cpp

; 496  : 	ChangeMotionPointer.m_pMotion = pMotionThing->GetMotionPointer(0);

  0006e	89 45 08	 mov	 DWORD PTR _ChangeMotionPointer$$sroa$245$1$[ebp], eax
; File C:\Program Files (x86)\Microsoft Visual Studio\2019\Community\VC\Tools\MSVC\14.27.29110\include\algorithm

; 235  :     for (; _UFirst != _ULast; ++_UFirst) {

  00071	3b f3		 cmp	 esi, ebx
  00073	74 2c		 je	 SHORT $LN43@ChangeMoti
$LL44@ChangeMoti:

; 236  :         _Func(*_UFirst);

  00075	8b 3e		 mov	 edi, DWORD PTR [esi]
; File C:\DS Project\DS Files\Source\ClientSource\Client\eterGrnLib\LODController.h

; 208  : 				if (pController->isModelInstance())

  00077	8b cf		 mov	 ecx, edi
  00079	e8 00 00 00 00	 call	 ?isModelInstance@CGrannyLODController@@QAEHXZ ; CGrannyLODController::isModelInstance
  0007e	85 c0		 test	 eax, eax
  00080	74 18		 je	 SHORT $LN42@ChangeMoti

; 209  : 					pController->ChangeMotionPointer(m_pMotion, m_loopCount, m_speedRatio);

  00082	f3 0f 10 45 10	 movss	 xmm0, DWORD PTR _speedRatio$[ebp]
  00087	51		 push	 ecx
  00088	f3 0f 11 04 24	 movss	 DWORD PTR [esp], xmm0
  0008d	8b cf		 mov	 ecx, edi
  0008f	ff 75 0c	 push	 DWORD PTR _loopCount$[ebp]
  00092	ff 75 08	 push	 DWORD PTR _ChangeMotionPointer$$sroa$245$1$[ebp]
  00095	e8 00 00 00 00	 call	 ?ChangeMotionPointer@CGrannyLODController@@QAEXPBVCGrannyMotion@@HM@Z ; CGrannyLODController::ChangeMotionPointer
$LN42@ChangeMoti:
; File C:\Program Files (x86)\Microsoft Visual Studio\2019\Community\VC\Tools\MSVC\14.27.29110\include\algorithm

; 235  :     for (; _UFirst != _ULast; ++_UFirst) {

  0009a	83 c6 04	 add	 esi, 4
  0009d	3b f3		 cmp	 esi, ebx
  0009f	75 d4		 jne	 SHORT $LL44@ChangeMoti
$LN43@ChangeMoti:
  000a1	5f		 pop	 edi
; File C:\DS Project\DS Files\Source\ClientSource\Client\eterGrnLib\ThingInstance.cpp

; 502  : }

  000a2	5e		 pop	 esi
  000a3	b0 01		 mov	 al, 1
  000a5	5b		 pop	 ebx
  000a6	8b e5		 mov	 esp, ebp
  000a8	5d		 pop	 ebp
  000a9	c2 0c 00	 ret	 12			; 0000000cH
$LN54@ChangeMoti:
  000ac	5f		 pop	 edi
  000ad	5e		 pop	 esi
  000ae	32 c0		 xor	 al, al
  000b0	5b		 pop	 ebx
  000b1	8b e5		 mov	 esp, ebp
  000b3	5d		 pop	 ebp
  000b4	c2 0c 00	 ret	 12			; 0000000cH
?ChangeMotion@CGraphicThingInstance@@QAE_NKHM@Z ENDP	; CGraphicThingInstance::ChangeMotion
_TEXT	ENDS
; Function compile flags: /Ogtp
; File C:\DS Project\DS Files\Source\ClientSource\Client\eterGrnLib\ThingInstance.cpp
; File C:\Program Files (x86)\Microsoft Visual Studio\2019\Community\VC\Tools\MSVC\14.27.29110\include\xtree
; File C:\Program Files (x86)\Microsoft Visual Studio\2019\Community\VC\Tools\MSVC\14.27.29110\include\xstddef
; File C:\Program Files (x86)\Microsoft Visual Studio\2019\Community\VC\Tools\MSVC\14.27.29110\include\xtree
; File C:\DS Project\DS Files\Source\ClientSource\Client\eterGrnLib\ThingInstance.cpp
; File C:\Program Files (x86)\Microsoft Visual Studio\2019\Community\VC\Tools\MSVC\14.27.29110\include\vector
; File C:\Program Files (x86)\Microsoft Visual Studio\2019\Community\VC\Tools\MSVC\14.27.29110\include\algorithm
; File C:\DS Project\DS Files\Source\ClientSource\Client\eterGrnLib\ThingInstance.cpp
; File C:\Program Files (x86)\Microsoft Visual Studio\2019\Community\VC\Tools\MSVC\14.27.29110\include\algorithm
; File C:\DS Project\DS Files\Source\ClientSource\Client\eterGrnLib\LODController.h
; File C:\Program Files (x86)\Microsoft Visual Studio\2019\Community\VC\Tools\MSVC\14.27.29110\include\algorithm
; File C:\DS Project\DS Files\Source\ClientSource\Client\eterGrnLib\ThingInstance.cpp
;	COMDAT ?SetMotion@CGraphicThingInstance@@QAE_NKMHM@Z
_TEXT	SEGMENT
__Func$ = -32						; size = 16
_SetMotionPointer$ = -16				; size = 16
__Loc$1 = -12						; size = 12
_dwMotionKey$ = 8					; size = 4
_blendTime$ = 12					; size = 4
_loopCount$ = 16					; size = 4
_speedRatio$ = 20					; size = 4
?SetMotion@CGraphicThingInstance@@QAE_NKMHM@Z PROC	; CGraphicThingInstance::SetMotion, COMDAT
; _this$ = ecx

; 456  : {

  00000	55		 push	 ebp
  00001	8b ec		 mov	 ebp, esp
  00003	83 ec 20	 sub	 esp, 32			; 00000020H
  00006	53		 push	 ebx
  00007	56		 push	 esi

; 457  : 	if (!CheckMotionThingIndex(dwMotionKey))

  00008	8b 75 08	 mov	 esi, DWORD PTR _dwMotionKey$[ebp]
  0000b	57		 push	 edi
  0000c	56		 push	 esi
  0000d	8b f9		 mov	 edi, ecx
  0000f	e8 00 00 00 00	 call	 ?CheckMotionThingIndex@CGraphicThingInstance@@QAE_NK@Z ; CGraphicThingInstance::CheckMotionThingIndex
  00014	84 c0		 test	 al, al
  00016	0f 84 b9 00 00
	00		 je	 $LN66@SetMotion
; File C:\Program Files (x86)\Microsoft Visual Studio\2019\Community\VC\Tools\MSVC\14.27.29110\include\xtree

; 1458 :         const _Tree_find_result<_Nodeptr> _Loc = _Find_lower_bound(_Keyval);

  0001c	8d 45 08	 lea	 eax, DWORD PTR _dwMotionKey$[ebp]
  0001f	50		 push	 eax
  00020	8d 45 f4	 lea	 eax, DWORD PTR __Loc$1[ebp]
  00023	50		 push	 eax
  00024	8d 8f a0 02 00
	00		 lea	 ecx, DWORD PTR [edi+672]
  0002a	e8 00 00 00 00	 call	 ??$_Find_lower_bound@K@?$_Tree@V?$_Tmap_traits@KPAV?$CRef@VCGraphicThing@@@@U?$less@K@std@@V?$allocator@U?$pair@$$CBKPAV?$CRef@VCGraphicThing@@@@@std@@@3@$0A@@std@@@std@@IBE?AU?$_Tree_find_result@PAU?$_Tree_node@U?$pair@$$CBKPAV?$CRef@VCGraphicThing@@@@@std@@PAX@std@@@1@ABK@Z ; std::_Tree<std::_Tmap_traits<unsigned long,CRef<CGraphicThing> *,std::less<unsigned long>,std::allocator<std::pair<unsigned long const ,CRef<CGraphicThing> *> >,0> >::_Find_lower_bound<unsigned long>

; 1695 :         return !_Bound->_Isnil && !_DEBUG_LT_PRED(_Getcomp(), _Keyval, _Traits::_Kfn(_Bound->_Myval));

  0002f	8b 45 fc	 mov	 eax, DWORD PTR __Loc$1[ebp+8]
  00032	80 78 0d 00	 cmp	 BYTE PTR [eax+13], 0
  00036	75 05		 jne	 SHORT $LN9@SetMotion
; File C:\Program Files (x86)\Microsoft Visual Studio\2019\Community\VC\Tools\MSVC\14.27.29110\include\xstddef

; 127  :         return _Left < _Right;

  00038	3b 70 10	 cmp	 esi, DWORD PTR [eax+16]
; File C:\Program Files (x86)\Microsoft Visual Studio\2019\Community\VC\Tools\MSVC\14.27.29110\include\xtree

; 1695 :         return !_Bound->_Isnil && !_DEBUG_LT_PRED(_Getcomp(), _Keyval, _Traits::_Kfn(_Bound->_Myval));

  0003b	73 06		 jae	 SHORT $LN8@SetMotion
$LN9@SetMotion:

; 1463 :         return _Get_scary()->_Myhead;

  0003d	8b 87 a0 02 00
	00		 mov	 eax, DWORD PTR [edi+672]
$LN8@SetMotion:
; File C:\DS Project\DS Files\Source\ClientSource\Client\eterGrnLib\ThingInstance.cpp

; 461  : 	CGraphicThing::TRef * proMotionThing = itor->second;

  00043	8b 40 14	 mov	 eax, DWORD PTR [eax+20]

; 462  : 	CGraphicThing * pMotionThing = proMotionThing->GetPointer();

  00046	8b 30		 mov	 esi, DWORD PTR [eax]

; 463  : 
; 464  : 	if (!pMotionThing)

  00048	85 f6		 test	 esi, esi
  0004a	0f 84 85 00 00
	00		 je	 $LN66@SetMotion

; 465  : 		return false;
; 466  : 
; 467  : 	if (!pMotionThing->CheckMotionIndex(0))

  00050	6a 00		 push	 0
  00052	8b ce		 mov	 ecx, esi
  00054	e8 00 00 00 00	 call	 ?CheckMotionIndex@CGraphicThing@@QBE_NH@Z ; CGraphicThing::CheckMotionIndex
  00059	84 c0		 test	 al, al
  0005b	74 78		 je	 SHORT $LN66@SetMotion

; 471  : 	SetMotionPointer.m_pMotion = pMotionThing->GetMotionPointer(0);

  0005d	6a 00		 push	 0
  0005f	8b ce		 mov	 ecx, esi
  00061	e8 00 00 00 00	 call	 ?GetMotionPointer@CGraphicThing@@QAEPAVCGrannyMotion@@H@Z ; CGraphicThing::GetMotionPointer
; File C:\Program Files (x86)\Microsoft Visual Studio\2019\Community\VC\Tools\MSVC\14.27.29110\include\vector

; 42   :     _Vector_const_iterator(_Tptr _Parg, const _Container_base* _Pvector) noexcept : _Ptr(_Parg) {

  00066	8b 9f 8c 02 00
	00		 mov	 ebx, DWORD PTR [edi+652]
; File C:\Program Files (x86)\Microsoft Visual Studio\2019\Community\VC\Tools\MSVC\14.27.29110\include\algorithm

; 235  :     for (; _UFirst != _ULast; ++_UFirst) {

  0006c	8b b7 88 02 00
	00		 mov	 esi, DWORD PTR [edi+648]
; File C:\DS Project\DS Files\Source\ClientSource\Client\eterGrnLib\ThingInstance.cpp

; 471  : 	SetMotionPointer.m_pMotion = pMotionThing->GetMotionPointer(0);

  00072	89 45 f0	 mov	 DWORD PTR _SetMotionPointer$[ebp], eax

; 472  : 	SetMotionPointer.m_blendTime = blendTime;
; 473  : 	SetMotionPointer.m_loopCount = loopCount;
; 474  : 	SetMotionPointer.m_speedRatio = speedRatio;
; 475  : 
; 476  : 	std::for_each(m_LODControllerVector.begin(), m_LODControllerVector.end(), SetMotionPointer);

  00075	f3 0f 10 45 f0	 movss	 xmm0, DWORD PTR _SetMotionPointer$[ebp]
  0007a	8b 45 10	 mov	 eax, DWORD PTR _loopCount$[ebp]
  0007d	89 45 fc	 mov	 DWORD PTR _SetMotionPointer$[ebp+12], eax
  00080	f3 0f 11 45 e0	 movss	 DWORD PTR __Func$[ebp], xmm0
  00085	f3 0f 10 45 fc	 movss	 xmm0, DWORD PTR _SetMotionPointer$[ebp+12]
  0008a	f3 0f 11 45 ec	 movss	 DWORD PTR __Func$[ebp+12], xmm0
; File C:\Program Files (x86)\Microsoft Visual Studio\2019\Community\VC\Tools\MSVC\14.27.29110\include\algorithm

; 235  :     for (; _UFirst != _ULast; ++_UFirst) {

  0008f	3b f3		 cmp	 esi, ebx
  00091	74 37		 je	 SHORT $LN43@SetMotion
$LL44@SetMotion:

; 236  :         _Func(*_UFirst);

  00093	8b 3e		 mov	 edi, DWORD PTR [esi]
; File C:\DS Project\DS Files\Source\ClientSource\Client\eterGrnLib\LODController.h

; 195  : 				if (pController->isModelInstance())

  00095	8b cf		 mov	 ecx, edi
  00097	e8 00 00 00 00	 call	 ?isModelInstance@CGrannyLODController@@QAEHXZ ; CGrannyLODController::isModelInstance
  0009c	85 c0		 test	 eax, eax
  0009e	74 23		 je	 SHORT $LN42@SetMotion

; 196  : 					pController->SetMotionPointer(m_pMotion, m_blendTime, m_loopCount, m_speedRatio);

  000a0	f3 0f 10 45 14	 movss	 xmm0, DWORD PTR _speedRatio$[ebp]
  000a5	51		 push	 ecx
  000a6	f3 0f 11 04 24	 movss	 DWORD PTR [esp], xmm0
  000ab	ff 75 ec	 push	 DWORD PTR __Func$[ebp+12]
  000ae	f3 0f 10 45 0c	 movss	 xmm0, DWORD PTR _blendTime$[ebp]
  000b3	51		 push	 ecx
  000b4	f3 0f 11 04 24	 movss	 DWORD PTR [esp], xmm0
  000b9	8b cf		 mov	 ecx, edi
  000bb	ff 75 e0	 push	 DWORD PTR __Func$[ebp]
  000be	e8 00 00 00 00	 call	 ?SetMotionPointer@CGrannyLODController@@QAEXPBVCGrannyMotion@@MHM@Z ; CGrannyLODController::SetMotionPointer
$LN42@SetMotion:
; File C:\Program Files (x86)\Microsoft Visual Studio\2019\Community\VC\Tools\MSVC\14.27.29110\include\algorithm

; 235  :     for (; _UFirst != _ULast; ++_UFirst) {

  000c3	83 c6 04	 add	 esi, 4
  000c6	3b f3		 cmp	 esi, ebx
  000c8	75 c9		 jne	 SHORT $LL44@SetMotion
$LN43@SetMotion:
  000ca	5f		 pop	 edi
; File C:\DS Project\DS Files\Source\ClientSource\Client\eterGrnLib\ThingInstance.cpp

; 478  : }

  000cb	5e		 pop	 esi
  000cc	b0 01		 mov	 al, 1
  000ce	5b		 pop	 ebx
  000cf	8b e5		 mov	 esp, ebp
  000d1	5d		 pop	 ebp
  000d2	c2 10 00	 ret	 16			; 00000010H
$LN66@SetMotion:
  000d5	5f		 pop	 edi
  000d6	5e		 pop	 esi
  000d7	32 c0		 xor	 al, al
  000d9	5b		 pop	 ebx
  000da	8b e5		 mov	 esp, ebp
  000dc	5d		 pop	 ebp
  000dd	c2 10 00	 ret	 16			; 00000010H
?SetMotion@CGraphicThingInstance@@QAE_NKMHM@Z ENDP	; CGraphicThingInstance::SetMotion
_TEXT	ENDS
; Function compile flags: /Ogtp
; File C:\DS Project\DS Files\Source\ClientSource\Client\eterGrnLib\ThingInstance.cpp
; File C:\Program Files (x86)\Microsoft Visual Studio\2019\Community\VC\Tools\MSVC\14.27.29110\include\vector
; File C:\DS Project\DS Files\Source\ClientSource\Client\eterGrnLib\ThingInstance.cpp
; File C:\Program Files (x86)\Microsoft Visual Studio\2019\Community\VC\Tools\MSVC\14.27.29110\include\vector
; File C:\DS Project\DS Files\Source\ClientSource\Client\eterGrnLib\ThingInstance.cpp
; File C:\DS Project\DS Files\Source\ClientSource\Client\eterlib\Ref.h
; File C:\DS Project\DS Files\Source\ClientSource\Client\eterGrnLib\ThingInstance.cpp
;	COMDAT ?GetBaseThingPtr@CGraphicThingInstance@@QAEPAVCGraphicThing@@XZ
_TEXT	SEGMENT
__$EHRec$ = -12						; size = 12
?GetBaseThingPtr@CGraphicThingInstance@@QAEPAVCGraphicThing@@XZ PROC ; CGraphicThingInstance::GetBaseThingPtr, COMDAT
; _this$ = ecx

; 12   : {

  00000	55		 push	 ebp
  00001	8b ec		 mov	 ebp, esp
  00003	6a ff		 push	 -1
  00005	68 00 00 00 00	 push	 __ehhandler$?GetBaseThingPtr@CGraphicThingInstance@@QAEPAVCGraphicThing@@XZ
  0000a	64 a1 00 00 00
	00		 mov	 eax, DWORD PTR fs:0
  00010	50		 push	 eax
  00011	56		 push	 esi
  00012	a1 00 00 00 00	 mov	 eax, DWORD PTR ___security_cookie
  00017	33 c5		 xor	 eax, ebp
  00019	50		 push	 eax
  0001a	8d 45 f4	 lea	 eax, DWORD PTR __$EHRec$[ebp]
  0001d	64 a3 00 00 00
	00		 mov	 DWORD PTR fs:0, eax
; File C:\Program Files (x86)\Microsoft Visual Studio\2019\Community\VC\Tools\MSVC\14.27.29110\include\vector

; 1479 :         return _My_data._Myfirst == _My_data._Mylast;

  00023	8b 81 94 02 00
	00		 mov	 eax, DWORD PTR [ecx+660]
; File C:\DS Project\DS Files\Source\ClientSource\Client\eterGrnLib\ThingInstance.cpp

; 13   : 	if (m_modelThingSetVector.empty())

  00029	3b 81 98 02 00
	00		 cmp	 eax, DWORD PTR [ecx+664]
  0002f	74 3e		 je	 SHORT $LN26@GetBaseThi
; File C:\Program Files (x86)\Microsoft Visual Studio\2019\Community\VC\Tools\MSVC\14.27.29110\include\vector

; 1479 :         return _My_data._Myfirst == _My_data._Mylast;

  00031	8b 30		 mov	 esi, DWORD PTR [eax]
; File C:\DS Project\DS Files\Source\ClientSource\Client\eterGrnLib\ThingInstance.cpp

; 17   : 	if (rkModelThingSet.m_pLODThingRefVector.empty())

  00033	3b 70 04	 cmp	 esi, DWORD PTR [eax+4]
  00036	74 37		 je	 SHORT $LN26@GetBaseThi

; 18   : 		return NULL;
; 19   : 
; 20   : 	CGraphicThing::TRef* proThing=rkModelThingSet.m_pLODThingRefVector[0];

  00038	8b 36		 mov	 esi, DWORD PTR [esi]

; 21   : 	if (!proThing)

  0003a	85 f6		 test	 esi, esi
  0003c	74 31		 je	 SHORT $LN26@GetBaseThi
; File C:\DS Project\DS Files\Source\ClientSource\Client\eterlib\Ref.h

; 94   : 			m_pObject = pObject;

  0003e	8b 36		 mov	 esi, DWORD PTR [esi]

; 95   : 
; 96   : 			if (m_pObject)

  00040	85 f6		 test	 esi, esi
  00042	74 07		 je	 SHORT $LN18@GetBaseThi

; 97   : 				m_pObject->AddReference();

  00044	8b ce		 mov	 ecx, esi
  00046	e8 00 00 00 00	 call	 ?AddReference@CReferenceObject@@QAEXXZ ; CReferenceObject::AddReference
$LN18@GetBaseThi:

; 37   : 		{

  0004b	c7 45 fc 00 00
	00 00		 mov	 DWORD PTR __$EHRec$[ebp+8], 0

; 53   : 			if (m_pObject)

  00052	85 f6		 test	 esi, esi
  00054	74 07		 je	 SHORT $LN24@GetBaseThi

; 54   : 			{
; 55   : 				m_pObject->Release();

  00056	8b ce		 mov	 ecx, esi
  00058	e8 00 00 00 00	 call	 ?Release@CReferenceObject@@QAEXXZ ; CReferenceObject::Release
$LN24@GetBaseThi:
; File C:\DS Project\DS Files\Source\ClientSource\Client\eterGrnLib\ThingInstance.cpp

; 25   : 	return roThing.GetPointer();

  0005d	8b c6		 mov	 eax, esi

; 26   : }

  0005f	8b 4d f4	 mov	 ecx, DWORD PTR __$EHRec$[ebp]
  00062	64 89 0d 00 00
	00 00		 mov	 DWORD PTR fs:0, ecx
  00069	59		 pop	 ecx
  0006a	5e		 pop	 esi
  0006b	8b e5		 mov	 esp, ebp
  0006d	5d		 pop	 ebp
  0006e	c3		 ret	 0
$LN26@GetBaseThi:

; 22   : 		return NULL;

  0006f	33 c0		 xor	 eax, eax

; 26   : }

  00071	8b 4d f4	 mov	 ecx, DWORD PTR __$EHRec$[ebp]
  00074	64 89 0d 00 00
	00 00		 mov	 DWORD PTR fs:0, ecx
  0007b	59		 pop	 ecx
  0007c	5e		 pop	 esi
  0007d	8b e5		 mov	 esp, ebp
  0007f	5d		 pop	 ebp
  00080	c3		 ret	 0
  00081	cc		 int	 3
  00082	cc		 int	 3
  00083	cc		 int	 3
  00084	cc		 int	 3
  00085	cc		 int	 3
_TEXT	ENDS
;	COMDAT text$x
text$x	SEGMENT
__ehhandler$?GetBaseThingPtr@CGraphicThingInstance@@QAEPAVCGraphicThing@@XZ:
  00000	90		 npad	 1
  00001	90		 npad	 1
  00002	8b 54 24 08	 mov	 edx, DWORD PTR [esp+8]
  00006	8d 42 0c	 lea	 eax, DWORD PTR [edx+12]
  00009	8b 4a f8	 mov	 ecx, DWORD PTR [edx-8]
  0000c	33 c8		 xor	 ecx, eax
  0000e	e8 00 00 00 00	 call	 @__security_check_cookie@4
  00013	b8 00 00 00 00	 mov	 eax, OFFSET __ehfuncinfo$?GetBaseThingPtr@CGraphicThingInstance@@QAEPAVCGraphicThing@@XZ
  00018	e9 00 00 00 00	 jmp	 ___CxxFrameHandler3
text$x	ENDS
?GetBaseThingPtr@CGraphicThingInstance@@QAEPAVCGraphicThing@@XZ ENDP ; CGraphicThingInstance::GetBaseThingPtr
; Function compile flags: /Ogtp
; File C:\DS Project\DS Files\Source\ClientSource\Client\eterGrnLib\ThingInstance.cpp
; File C:\Program Files (x86)\Microsoft Visual Studio\2019\Community\VC\Tools\MSVC\14.27.29110\include\vector
; File C:\DS Project\DS Files\Source\ClientSource\Client\eterGrnLib\ThingInstance.cpp
; File C:\Program Files (x86)\Microsoft Visual Studio\2019\Community\VC\Tools\MSVC\14.27.29110\include\algorithm
; File C:\DS Project\DS Files\Source\ClientSource\Client\eterGrnLib\LODController.h
; File C:\Program Files (x86)\Microsoft Visual Studio\2019\Community\VC\Tools\MSVC\14.27.29110\include\algorithm
; File C:\DS Project\DS Files\Source\ClientSource\Client\eterGrnLib\ThingInstance.cpp
;	COMDAT ?ReloadTexture@CGraphicThingInstance@@QAEXXZ
_TEXT	SEGMENT
?ReloadTexture@CGraphicThingInstance@@QAEXXZ PROC	; CGraphicThingInstance::ReloadTexture, COMDAT
; _this$ = ecx

; 938  : {

  00000	53		 push	 ebx
; File C:\Program Files (x86)\Microsoft Visual Studio\2019\Community\VC\Tools\MSVC\14.27.29110\include\vector

; 42   :     _Vector_const_iterator(_Tptr _Parg, const _Container_base* _Pvector) noexcept : _Ptr(_Parg) {

  00001	8b 99 8c 02 00
	00		 mov	 ebx, DWORD PTR [ecx+652]
; File C:\DS Project\DS Files\Source\ClientSource\Client\eterGrnLib\ThingInstance.cpp

; 938  : {

  00007	56		 push	 esi
; File C:\Program Files (x86)\Microsoft Visual Studio\2019\Community\VC\Tools\MSVC\14.27.29110\include\algorithm

; 235  :     for (; _UFirst != _ULast; ++_UFirst) {

  00008	8b b1 88 02 00
	00		 mov	 esi, DWORD PTR [ecx+648]
  0000e	3b f3		 cmp	 esi, ebx
  00010	74 1d		 je	 SHORT $LN17@ReloadText
  00012	57		 push	 edi
$LL18@ReloadText:

; 236  :         _Func(*_UFirst);

  00013	8b 3e		 mov	 edi, DWORD PTR [esi]
; File C:\DS Project\DS Files\Source\ClientSource\Client\eterGrnLib\LODController.h

; 181  : 				if (pController->isModelInstance())

  00015	8b cf		 mov	 ecx, edi
  00017	e8 00 00 00 00	 call	 ?isModelInstance@CGrannyLODController@@QAEHXZ ; CGrannyLODController::isModelInstance
  0001c	85 c0		 test	 eax, eax
  0001e	74 07		 je	 SHORT $LN16@ReloadText

; 182  : 					pController->ReloadTexture();

  00020	8b cf		 mov	 ecx, edi
  00022	e8 00 00 00 00	 call	 ?ReloadTexture@CGrannyLODController@@QAEXXZ ; CGrannyLODController::ReloadTexture
$LN16@ReloadText:
; File C:\Program Files (x86)\Microsoft Visual Studio\2019\Community\VC\Tools\MSVC\14.27.29110\include\algorithm

; 235  :     for (; _UFirst != _ULast; ++_UFirst) {

  00027	83 c6 04	 add	 esi, 4
  0002a	3b f3		 cmp	 esi, ebx
  0002c	75 e5		 jne	 SHORT $LL18@ReloadText
  0002e	5f		 pop	 edi
$LN17@ReloadText:
  0002f	5e		 pop	 esi
; File C:\DS Project\DS Files\Source\ClientSource\Client\eterGrnLib\ThingInstance.cpp

; 941  : }

  00030	5b		 pop	 ebx
  00031	c3		 ret	 0
?ReloadTexture@CGraphicThingInstance@@QAEXXZ ENDP	; CGraphicThingInstance::ReloadTexture
_TEXT	ENDS
; Function compile flags: /Ogtp
; File C:\DS Project\DS Files\Source\ClientSource\Client\eterGrnLib\ThingInstance.cpp
;	COMDAT ?GetLODControllerPointer@CGraphicThingInstance@@QAEPAVCGrannyLODController@@K@Z
_TEXT	SEGMENT
_dwModelIndex$ = 8					; size = 4
?GetLODControllerPointer@CGraphicThingInstance@@QAEPAVCGrannyLODController@@K@Z PROC ; CGraphicThingInstance::GetLODControllerPointer, COMDAT
; _this$ = ecx

; 911  : {

  00000	55		 push	 ebp
  00001	8b ec		 mov	 ebp, esp

; 912  : 	assert(dwModelIndex < m_LODControllerVector.size());
; 913  : 	return m_LODControllerVector[dwModelIndex];

  00003	8b 89 88 02 00
	00		 mov	 ecx, DWORD PTR [ecx+648]
  00009	8b 45 08	 mov	 eax, DWORD PTR _dwModelIndex$[ebp]
  0000c	8b 04 81	 mov	 eax, DWORD PTR [ecx+eax*4]

; 914  : }

  0000f	5d		 pop	 ebp
  00010	c2 04 00	 ret	 4
?GetLODControllerPointer@CGraphicThingInstance@@QAEPAVCGrannyLODController@@K@Z ENDP ; CGraphicThingInstance::GetLODControllerPointer
_TEXT	ENDS
; Function compile flags: /Ogtp
; File C:\DS Project\DS Files\Source\ClientSource\Client\eterGrnLib\ThingInstance.cpp
;	COMDAT ?GetLODControllerPointer@CGraphicThingInstance@@QBEPAVCGrannyLODController@@K@Z
_TEXT	SEGMENT
_dwModelIndex$ = 8					; size = 4
?GetLODControllerPointer@CGraphicThingInstance@@QBEPAVCGrannyLODController@@K@Z PROC ; CGraphicThingInstance::GetLODControllerPointer, COMDAT
; _this$ = ecx

; 905  : {

  00000	55		 push	 ebp
  00001	8b ec		 mov	 ebp, esp

; 906  : 	assert(dwModelIndex < m_LODControllerVector.size());
; 907  : 	return m_LODControllerVector[dwModelIndex];

  00003	8b 89 88 02 00
	00		 mov	 ecx, DWORD PTR [ecx+648]
  00009	8b 45 08	 mov	 eax, DWORD PTR _dwModelIndex$[ebp]
  0000c	8b 04 81	 mov	 eax, DWORD PTR [ecx+eax*4]

; 908  : }

  0000f	5d		 pop	 ebp
  00010	c2 04 00	 ret	 4
?GetLODControllerPointer@CGraphicThingInstance@@QBEPAVCGrannyLODController@@K@Z ENDP ; CGraphicThingInstance::GetLODControllerPointer
_TEXT	ENDS
; Function compile flags: /Ogtp
; File C:\DS Project\DS Files\Source\ClientSource\Client\eterGrnLib\ThingInstance.cpp
; File C:\Program Files (x86)\Microsoft Visual Studio\2019\Community\VC\Tools\MSVC\14.27.29110\include\vector
; File C:\DS Project\DS Files\Source\ClientSource\Client\eterGrnLib\ThingInstance.cpp
;	COMDAT ?GetLODControllerCount@CGraphicThingInstance@@QBEKXZ
_TEXT	SEGMENT
?GetLODControllerCount@CGraphicThingInstance@@QBEKXZ PROC ; CGraphicThingInstance::GetLODControllerCount, COMDAT
; _this$ = ecx
; File C:\Program Files (x86)\Microsoft Visual Studio\2019\Community\VC\Tools\MSVC\14.27.29110\include\vector

; 1484 :         return static_cast<size_type>(_My_data._Mylast - _My_data._Myfirst);

  00000	8b 81 8c 02 00
	00		 mov	 eax, DWORD PTR [ecx+652]
  00006	2b 81 88 02 00
	00		 sub	 eax, DWORD PTR [ecx+648]
  0000c	c1 f8 02	 sar	 eax, 2
; File C:\DS Project\DS Files\Source\ClientSource\Client\eterGrnLib\ThingInstance.cpp

; 902  : }

  0000f	c3		 ret	 0
?GetLODControllerCount@CGraphicThingInstance@@QBEKXZ ENDP ; CGraphicThingInstance::GetLODControllerCount
_TEXT	ENDS
; Function compile flags: /Ogtp
; File C:\DS Project\DS Files\Source\ClientSource\Client\eterGrnLib\ThingInstance.cpp
; File C:\Program Files (x86)\Microsoft Visual Studio\2019\Community\VC\Tools\MSVC\14.27.29110\include\vector
; File C:\Program Files (x86)\Microsoft Visual Studio\2019\Community\VC\Tools\MSVC\14.27.29110\include\algorithm
; File C:\DS Project\DS Files\Source\ClientSource\Client\eterGrnLib\LODController.h
; File C:\Program Files (x86)\Microsoft Visual Studio\2019\Community\VC\Tools\MSVC\14.27.29110\include\algorithm
; File C:\DS Project\DS Files\Source\ClientSource\Client\eterGrnLib\ThingInstance.cpp
;	COMDAT ?BlendRenderWithTwoTexture@CGraphicThingInstance@@QAEXXZ
_TEXT	SEGMENT
?BlendRenderWithTwoTexture@CGraphicThingInstance@@QAEXXZ PROC ; CGraphicThingInstance::BlendRenderWithTwoTexture, COMDAT
; _this$ = ecx

; 870  : 	//assert(m_bUpdated);
; 871  : 	if (!m_bUpdated)

  00000	80 b9 48 02 00
	00 00		 cmp	 BYTE PTR [ecx+584], 0
  00007	74 35		 je	 SHORT $LN18@BlendRende
; File C:\Program Files (x86)\Microsoft Visual Studio\2019\Community\VC\Tools\MSVC\14.27.29110\include\vector

; 42   :     _Vector_const_iterator(_Tptr _Parg, const _Container_base* _Pvector) noexcept : _Ptr(_Parg) {

  00009	53		 push	 ebx
  0000a	8b 99 8c 02 00
	00		 mov	 ebx, DWORD PTR [ecx+652]
  00010	56		 push	 esi
; File C:\Program Files (x86)\Microsoft Visual Studio\2019\Community\VC\Tools\MSVC\14.27.29110\include\algorithm

; 235  :     for (; _UFirst != _ULast; ++_UFirst) {

  00011	8b b1 88 02 00
	00		 mov	 esi, DWORD PTR [ecx+648]
  00017	3b f3		 cmp	 esi, ebx
  00019	74 21		 je	 SHORT $LN28@BlendRende
  0001b	57		 push	 edi
  0001c	0f 1f 40 00	 npad	 4
$LL19@BlendRende:

; 236  :         _Func(*_UFirst);

  00020	8b 3e		 mov	 edi, DWORD PTR [esi]
; File C:\DS Project\DS Files\Source\ClientSource\Client\eterGrnLib\LODController.h

; 69   : 				if (pController->isModelInstance())

  00022	8b cf		 mov	 ecx, edi
  00024	e8 00 00 00 00	 call	 ?isModelInstance@CGrannyLODController@@QAEHXZ ; CGrannyLODController::isModelInstance
  00029	85 c0		 test	 eax, eax
  0002b	74 07		 je	 SHORT $LN17@BlendRende

; 70   : 					pController->RenderWithTwoTexture();

  0002d	8b cf		 mov	 ecx, edi
  0002f	e8 00 00 00 00	 call	 ?RenderWithTwoTexture@CGrannyLODController@@QAEXXZ ; CGrannyLODController::RenderWithTwoTexture
$LN17@BlendRende:
; File C:\Program Files (x86)\Microsoft Visual Studio\2019\Community\VC\Tools\MSVC\14.27.29110\include\algorithm

; 235  :     for (; _UFirst != _ULast; ++_UFirst) {

  00034	83 c6 04	 add	 esi, 4
  00037	3b f3		 cmp	 esi, ebx
  00039	75 e5		 jne	 SHORT $LL19@BlendRende
  0003b	5f		 pop	 edi
$LN28@BlendRende:
  0003c	5e		 pop	 esi
  0003d	5b		 pop	 ebx
$LN18@BlendRende:
; File C:\DS Project\DS Files\Source\ClientSource\Client\eterGrnLib\ThingInstance.cpp

; 876  : }

  0003e	c3		 ret	 0
?BlendRenderWithTwoTexture@CGraphicThingInstance@@QAEXXZ ENDP ; CGraphicThingInstance::BlendRenderWithTwoTexture
_TEXT	ENDS
; Function compile flags: /Ogtp
; File C:\DS Project\DS Files\Source\ClientSource\Client\eterGrnLib\ThingInstance.cpp
; File C:\Program Files (x86)\Microsoft Visual Studio\2019\Community\VC\Tools\MSVC\14.27.29110\include\vector
; File C:\Program Files (x86)\Microsoft Visual Studio\2019\Community\VC\Tools\MSVC\14.27.29110\include\algorithm
; File C:\DS Project\DS Files\Source\ClientSource\Client\eterGrnLib\LODController.h
; File C:\Program Files (x86)\Microsoft Visual Studio\2019\Community\VC\Tools\MSVC\14.27.29110\include\algorithm
; File C:\DS Project\DS Files\Source\ClientSource\Client\eterGrnLib\ThingInstance.cpp
;	COMDAT ?BlendRenderWithOneTexture@CGraphicThingInstance@@QAEXXZ
_TEXT	SEGMENT
?BlendRenderWithOneTexture@CGraphicThingInstance@@QAEXXZ PROC ; CGraphicThingInstance::BlendRenderWithOneTexture, COMDAT
; _this$ = ecx

; 850  : 	//assert(m_bUpdated);
; 851  : 	if (!m_bUpdated)

  00000	80 b9 48 02 00
	00 00		 cmp	 BYTE PTR [ecx+584], 0
  00007	74 35		 je	 SHORT $LN18@BlendRende
; File C:\Program Files (x86)\Microsoft Visual Studio\2019\Community\VC\Tools\MSVC\14.27.29110\include\vector

; 42   :     _Vector_const_iterator(_Tptr _Parg, const _Container_base* _Pvector) noexcept : _Ptr(_Parg) {

  00009	53		 push	 ebx
  0000a	8b 99 8c 02 00
	00		 mov	 ebx, DWORD PTR [ecx+652]
  00010	56		 push	 esi
; File C:\Program Files (x86)\Microsoft Visual Studio\2019\Community\VC\Tools\MSVC\14.27.29110\include\algorithm

; 235  :     for (; _UFirst != _ULast; ++_UFirst) {

  00011	8b b1 88 02 00
	00		 mov	 esi, DWORD PTR [ecx+648]
  00017	3b f3		 cmp	 esi, ebx
  00019	74 21		 je	 SHORT $LN28@BlendRende
  0001b	57		 push	 edi
  0001c	0f 1f 40 00	 npad	 4
$LL19@BlendRende:

; 236  :         _Func(*_UFirst);

  00020	8b 3e		 mov	 edi, DWORD PTR [esi]
; File C:\DS Project\DS Files\Source\ClientSource\Client\eterGrnLib\LODController.h

; 60   : 				if (pController->isModelInstance())

  00022	8b cf		 mov	 ecx, edi
  00024	e8 00 00 00 00	 call	 ?isModelInstance@CGrannyLODController@@QAEHXZ ; CGrannyLODController::isModelInstance
  00029	85 c0		 test	 eax, eax
  0002b	74 07		 je	 SHORT $LN17@BlendRende

; 61   : 					pController->BlendRenderWithOneTexture();

  0002d	8b cf		 mov	 ecx, edi
  0002f	e8 00 00 00 00	 call	 ?BlendRenderWithOneTexture@CGrannyLODController@@QAEXXZ ; CGrannyLODController::BlendRenderWithOneTexture
$LN17@BlendRende:
; File C:\Program Files (x86)\Microsoft Visual Studio\2019\Community\VC\Tools\MSVC\14.27.29110\include\algorithm

; 235  :     for (; _UFirst != _ULast; ++_UFirst) {

  00034	83 c6 04	 add	 esi, 4
  00037	3b f3		 cmp	 esi, ebx
  00039	75 e5		 jne	 SHORT $LL19@BlendRende
  0003b	5f		 pop	 edi
$LN28@BlendRende:
  0003c	5e		 pop	 esi
  0003d	5b		 pop	 ebx
$LN18@BlendRende:
; File C:\DS Project\DS Files\Source\ClientSource\Client\eterGrnLib\ThingInstance.cpp

; 856  : }

  0003e	c3		 ret	 0
?BlendRenderWithOneTexture@CGraphicThingInstance@@QAEXXZ ENDP ; CGraphicThingInstance::BlendRenderWithOneTexture
_TEXT	ENDS
; Function compile flags: /Ogtp
; File C:\DS Project\DS Files\Source\ClientSource\Client\eterGrnLib\ThingInstance.cpp
; File C:\Program Files (x86)\Microsoft Visual Studio\2019\Community\VC\Tools\MSVC\14.27.29110\include\vector
; File C:\Program Files (x86)\Microsoft Visual Studio\2019\Community\VC\Tools\MSVC\14.27.29110\include\algorithm
; File C:\DS Project\DS Files\Source\ClientSource\Client\eterGrnLib\LODController.h
; File C:\Program Files (x86)\Microsoft Visual Studio\2019\Community\VC\Tools\MSVC\14.27.29110\include\algorithm
; File C:\DS Project\DS Files\Source\ClientSource\Client\eterGrnLib\ThingInstance.cpp
;	COMDAT ?RenderWithTwoTexture@CGraphicThingInstance@@QAEXXZ
_TEXT	SEGMENT
?RenderWithTwoTexture@CGraphicThingInstance@@QAEXXZ PROC ; CGraphicThingInstance::RenderWithTwoTexture, COMDAT
; _this$ = ecx

; 860  : 	//assert(m_bUpdated);
; 861  : 	if (!m_bUpdated)

  00000	80 b9 48 02 00
	00 00		 cmp	 BYTE PTR [ecx+584], 0
  00007	74 35		 je	 SHORT $LN18@RenderWith
; File C:\Program Files (x86)\Microsoft Visual Studio\2019\Community\VC\Tools\MSVC\14.27.29110\include\vector

; 42   :     _Vector_const_iterator(_Tptr _Parg, const _Container_base* _Pvector) noexcept : _Ptr(_Parg) {

  00009	53		 push	 ebx
  0000a	8b 99 8c 02 00
	00		 mov	 ebx, DWORD PTR [ecx+652]
  00010	56		 push	 esi
; File C:\Program Files (x86)\Microsoft Visual Studio\2019\Community\VC\Tools\MSVC\14.27.29110\include\algorithm

; 235  :     for (; _UFirst != _ULast; ++_UFirst) {

  00011	8b b1 88 02 00
	00		 mov	 esi, DWORD PTR [ecx+648]
  00017	3b f3		 cmp	 esi, ebx
  00019	74 21		 je	 SHORT $LN28@RenderWith
  0001b	57		 push	 edi
  0001c	0f 1f 40 00	 npad	 4
$LL19@RenderWith:

; 236  :         _Func(*_UFirst);

  00020	8b 3e		 mov	 edi, DWORD PTR [esi]
; File C:\DS Project\DS Files\Source\ClientSource\Client\eterGrnLib\LODController.h

; 69   : 				if (pController->isModelInstance())

  00022	8b cf		 mov	 ecx, edi
  00024	e8 00 00 00 00	 call	 ?isModelInstance@CGrannyLODController@@QAEHXZ ; CGrannyLODController::isModelInstance
  00029	85 c0		 test	 eax, eax
  0002b	74 07		 je	 SHORT $LN17@RenderWith

; 70   : 					pController->RenderWithTwoTexture();

  0002d	8b cf		 mov	 ecx, edi
  0002f	e8 00 00 00 00	 call	 ?RenderWithTwoTexture@CGrannyLODController@@QAEXXZ ; CGrannyLODController::RenderWithTwoTexture
$LN17@RenderWith:
; File C:\Program Files (x86)\Microsoft Visual Studio\2019\Community\VC\Tools\MSVC\14.27.29110\include\algorithm

; 235  :     for (; _UFirst != _ULast; ++_UFirst) {

  00034	83 c6 04	 add	 esi, 4
  00037	3b f3		 cmp	 esi, ebx
  00039	75 e5		 jne	 SHORT $LL19@RenderWith
  0003b	5f		 pop	 edi
$LN28@RenderWith:
  0003c	5e		 pop	 esi
  0003d	5b		 pop	 ebx
$LN18@RenderWith:
; File C:\DS Project\DS Files\Source\ClientSource\Client\eterGrnLib\ThingInstance.cpp

; 866  : }

  0003e	c3		 ret	 0
?RenderWithTwoTexture@CGraphicThingInstance@@QAEXXZ ENDP ; CGraphicThingInstance::RenderWithTwoTexture
_TEXT	ENDS
; Function compile flags: /Ogtp
; File C:\DS Project\DS Files\Source\ClientSource\Client\eterGrnLib\ThingInstance.cpp
; File C:\Program Files (x86)\Microsoft Visual Studio\2019\Community\VC\Tools\MSVC\14.27.29110\include\vector
; File C:\Program Files (x86)\Microsoft Visual Studio\2019\Community\VC\Tools\MSVC\14.27.29110\include\algorithm
; File C:\DS Project\DS Files\Source\ClientSource\Client\eterGrnLib\LODController.h
; File C:\Program Files (x86)\Microsoft Visual Studio\2019\Community\VC\Tools\MSVC\14.27.29110\include\algorithm
; File C:\DS Project\DS Files\Source\ClientSource\Client\eterGrnLib\ThingInstance.cpp
;	COMDAT ?RenderWithOneTexture@CGraphicThingInstance@@QAEXXZ
_TEXT	SEGMENT
?RenderWithOneTexture@CGraphicThingInstance@@QAEXXZ PROC ; CGraphicThingInstance::RenderWithOneTexture, COMDAT
; _this$ = ecx

; 840  : 	//assert(m_bUpdated);
; 841  : 	if (!m_bUpdated)

  00000	80 b9 48 02 00
	00 00		 cmp	 BYTE PTR [ecx+584], 0
  00007	74 35		 je	 SHORT $LN18@RenderWith
; File C:\Program Files (x86)\Microsoft Visual Studio\2019\Community\VC\Tools\MSVC\14.27.29110\include\vector

; 42   :     _Vector_const_iterator(_Tptr _Parg, const _Container_base* _Pvector) noexcept : _Ptr(_Parg) {

  00009	53		 push	 ebx
  0000a	8b 99 8c 02 00
	00		 mov	 ebx, DWORD PTR [ecx+652]
  00010	56		 push	 esi
; File C:\Program Files (x86)\Microsoft Visual Studio\2019\Community\VC\Tools\MSVC\14.27.29110\include\algorithm

; 235  :     for (; _UFirst != _ULast; ++_UFirst) {

  00011	8b b1 88 02 00
	00		 mov	 esi, DWORD PTR [ecx+648]
  00017	3b f3		 cmp	 esi, ebx
  00019	74 21		 je	 SHORT $LN28@RenderWith
  0001b	57		 push	 edi
  0001c	0f 1f 40 00	 npad	 4
$LL19@RenderWith:

; 236  :         _Func(*_UFirst);

  00020	8b 3e		 mov	 edi, DWORD PTR [esi]
; File C:\DS Project\DS Files\Source\ClientSource\Client\eterGrnLib\LODController.h

; 51   : 				if (pController->isModelInstance())

  00022	8b cf		 mov	 ecx, edi
  00024	e8 00 00 00 00	 call	 ?isModelInstance@CGrannyLODController@@QAEHXZ ; CGrannyLODController::isModelInstance
  00029	85 c0		 test	 eax, eax
  0002b	74 07		 je	 SHORT $LN17@RenderWith

; 52   : 					pController->RenderWithOneTexture();

  0002d	8b cf		 mov	 ecx, edi
  0002f	e8 00 00 00 00	 call	 ?RenderWithOneTexture@CGrannyLODController@@QAEXXZ ; CGrannyLODController::RenderWithOneTexture
$LN17@RenderWith:
; File C:\Program Files (x86)\Microsoft Visual Studio\2019\Community\VC\Tools\MSVC\14.27.29110\include\algorithm

; 235  :     for (; _UFirst != _ULast; ++_UFirst) {

  00034	83 c6 04	 add	 esi, 4
  00037	3b f3		 cmp	 esi, ebx
  00039	75 e5		 jne	 SHORT $LL19@RenderWith
  0003b	5f		 pop	 edi
$LN28@RenderWith:
  0003c	5e		 pop	 esi
  0003d	5b		 pop	 ebx
$LN18@RenderWith:
; File C:\DS Project\DS Files\Source\ClientSource\Client\eterGrnLib\ThingInstance.cpp

; 846  : }

  0003e	c3		 ret	 0
?RenderWithOneTexture@CGraphicThingInstance@@QAEXXZ ENDP ; CGraphicThingInstance::RenderWithOneTexture
_TEXT	ENDS
; Function compile flags: /Ogtp
; File C:\DS Project\DS Files\Source\ClientSource\Client\eterGrnLib\ThingInstance.cpp
; File C:\Program Files (x86)\Microsoft Visual Studio\2019\Community\VC\Tools\MSVC\14.27.29110\include\vector
; File C:\DS Project\DS Files\Source\ClientSource\Client\eterGrnLib\ThingInstance.cpp
; File C:\Program Files (x86)\Windows Kits\10\Include\10.0.18362.0\ucrt\corecrt_math.h
; File C:\DS Project\DS Files\Source\ClientSource\Client\eterGrnLib\ThingInstance.cpp
;	COMDAT ?GetHeight@CGraphicThingInstance@@QAEMXZ
_TEXT	SEGMENT
tv184 = -32						; size = 4
_vtMax$ = -28						; size = 12
_vtMin$ = -16						; size = 12
__$ArrayPad$ = -4					; size = 4
?GetHeight@CGraphicThingInstance@@QAEMXZ PROC		; CGraphicThingInstance::GetHeight, COMDAT
; _this$ = ecx

; 923  : {

  00000	55		 push	 ebp
  00001	8b ec		 mov	 ebp, esp
  00003	83 ec 20	 sub	 esp, 32			; 00000020H
  00006	a1 00 00 00 00	 mov	 eax, DWORD PTR ___security_cookie
  0000b	33 c5		 xor	 eax, ebp
  0000d	89 45 fc	 mov	 DWORD PTR __$ArrayPad$[ebp], eax
; File C:\Program Files (x86)\Microsoft Visual Studio\2019\Community\VC\Tools\MSVC\14.27.29110\include\vector

; 1479 :         return _My_data._Myfirst == _My_data._Mylast;

  00010	8b 81 88 02 00
	00		 mov	 eax, DWORD PTR [ecx+648]
  00016	3b 81 8c 02 00
	00		 cmp	 eax, DWORD PTR [ecx+652]
; File C:\DS Project\DS Files\Source\ClientSource\Client\eterGrnLib\ThingInstance.cpp

; 924  : 	if (m_LODControllerVector.empty())

  0001c	74 41		 je	 SHORT $LN13@GetHeight

; 925  : 		return 0.0f;
; 926  : 
; 927  : 	CGrannyModelInstance * pModelInstance = m_LODControllerVector[0]->GetModelInstance();

  0001e	8b 08		 mov	 ecx, DWORD PTR [eax]
  00020	e8 00 00 00 00	 call	 ?GetModelInstance@CGrannyLODController@@QAEPAVCGrannyModelInstance@@XZ ; CGrannyLODController::GetModelInstance

; 928  : 	if (!pModelInstance)

  00025	85 c0		 test	 eax, eax
  00027	74 36		 je	 SHORT $LN13@GetHeight

; 929  : 		return 0.0f;
; 930  : 
; 931  : 	D3DXVECTOR3 vtMin, vtMax;
; 932  : 	pModelInstance->GetBoundBox(&vtMin, &vtMax);

  00029	8d 4d e4	 lea	 ecx, DWORD PTR _vtMax$[ebp]
  0002c	51		 push	 ecx
  0002d	8d 4d f0	 lea	 ecx, DWORD PTR _vtMin$[ebp]
  00030	51		 push	 ecx
  00031	8b c8		 mov	 ecx, eax
  00033	e8 00 00 00 00	 call	 ?GetBoundBox@CGrannyModelInstance@@QAEXPAUD3DXVECTOR3@@0@Z ; CGrannyModelInstance::GetBoundBox

; 934  : 	return fabs(vtMin.z - vtMax.z);

  00038	f3 0f 10 45 f8	 movss	 xmm0, DWORD PTR _vtMin$[ebp+8]
  0003d	f3 0f 5c 45 ec	 subss	 xmm0, DWORD PTR _vtMax$[ebp+8]
; File C:\Program Files (x86)\Windows Kits\10\Include\10.0.18362.0\ucrt\corecrt_math.h

; 672  :             return (float)fabs(_X);

  00042	0f 54 05 00 00
	00 00		 andps	 xmm0, DWORD PTR __xmm@7fffffff7fffffff7fffffff7fffffff
; File C:\DS Project\DS Files\Source\ClientSource\Client\eterGrnLib\ThingInstance.cpp

; 934  : 	return fabs(vtMin.z - vtMax.z);

  00049	f3 0f 11 45 e0	 movss	 DWORD PTR tv184[ebp], xmm0
  0004e	d9 45 e0	 fld	 DWORD PTR tv184[ebp]

; 935  : }

  00051	8b 4d fc	 mov	 ecx, DWORD PTR __$ArrayPad$[ebp]
  00054	33 cd		 xor	 ecx, ebp
  00056	e8 00 00 00 00	 call	 @__security_check_cookie@4
  0005b	8b e5		 mov	 esp, ebp
  0005d	5d		 pop	 ebp
  0005e	c3		 ret	 0
$LN13@GetHeight:
  0005f	8b 4d fc	 mov	 ecx, DWORD PTR __$ArrayPad$[ebp]
  00062	d9 ee		 fldz
  00064	33 cd		 xor	 ecx, ebp
  00066	e8 00 00 00 00	 call	 @__security_check_cookie@4
  0006b	8b e5		 mov	 esp, ebp
  0006d	5d		 pop	 ebp
  0006e	c3		 ret	 0
?GetHeight@CGraphicThingInstance@@QAEMXZ ENDP		; CGraphicThingInstance::GetHeight
_TEXT	ENDS
; Function compile flags: /Ogtp
; File C:\DS Project\DS Files\Source\ClientSource\Client\eterGrnLib\ThingInstance.cpp
;	COMDAT ?GetLODLevel@CGraphicThingInstance@@QAEEK@Z
_TEXT	SEGMENT
_dwModelInstance$ = 8					; size = 4
?GetLODLevel@CGraphicThingInstance@@QAEEK@Z PROC	; CGraphicThingInstance::GetLODLevel, COMDAT
; _this$ = ecx

; 917  : {

  00000	55		 push	 ebp
  00001	8b ec		 mov	 ebp, esp

; 918  : 	assert(dwModelInstance < m_LODControllerVector.size());
; 919  : 	return (m_LODControllerVector[dwModelInstance]->GetLODLevel());

  00003	8b 89 88 02 00
	00		 mov	 ecx, DWORD PTR [ecx+648]
  00009	8b 45 08	 mov	 eax, DWORD PTR _dwModelInstance$[ebp]
  0000c	8b 04 81	 mov	 eax, DWORD PTR [ecx+eax*4]
  0000f	8a 40 1c	 mov	 al, BYTE PTR [eax+28]

; 920  : }

  00012	5d		 pop	 ebp
  00013	c2 04 00	 ret	 4
?GetLODLevel@CGraphicThingInstance@@QAEEK@Z ENDP	; CGraphicThingInstance::GetLODLevel
_TEXT	ENDS
; Function compile flags: /Ogtp
; File C:\DS Project\DS Files\Source\ClientSource\Client\eterGrnLib\ThingInstance.cpp
;	COMDAT ?GetAverageSecondElapsed@CGraphicThingInstance@@QAEMXZ
_TEXT	SEGMENT
?GetAverageSecondElapsed@CGraphicThingInstance@@QAEMXZ PROC ; CGraphicThingInstance::GetAverageSecondElapsed, COMDAT
; _this$ = ecx

; 576  : 	return m_fAverageSecondElapsed;

  00000	d9 81 5c 02 00
	00		 fld	 DWORD PTR [ecx+604]

; 577  : }

  00006	c3		 ret	 0
?GetAverageSecondElapsed@CGraphicThingInstance@@QAEMXZ ENDP ; CGraphicThingInstance::GetAverageSecondElapsed
_TEXT	ENDS
; Function compile flags: /Ogtp
; File C:\DS Project\DS Files\Source\ClientSource\Client\eterGrnLib\ThingInstance.cpp
;	COMDAT ?GetSecondElapsed@CGraphicThingInstance@@QAEMXZ
_TEXT	SEGMENT
?GetSecondElapsed@CGraphicThingInstance@@QAEMXZ PROC	; CGraphicThingInstance::GetSecondElapsed, COMDAT
; _this$ = ecx

; 571  : 	return m_fSecondElapsed;

  00000	d9 81 58 02 00
	00		 fld	 DWORD PTR [ecx+600]

; 572  : }

  00006	c3		 ret	 0
?GetSecondElapsed@CGraphicThingInstance@@QAEMXZ ENDP	; CGraphicThingInstance::GetSecondElapsed
_TEXT	ENDS
; Function compile flags: /Ogtp
; File C:\DS Project\DS Files\Source\ClientSource\Client\eterGrnLib\ThingInstance.cpp
;	COMDAT ?GetLocalTime@CGraphicThingInstance@@QAEMXZ
_TEXT	SEGMENT
?GetLocalTime@CGraphicThingInstance@@QAEMXZ PROC	; CGraphicThingInstance::GetLocalTime, COMDAT
; _this$ = ecx

; 566  : 	return m_fLocalTime;

  00000	d9 81 50 02 00
	00		 fld	 DWORD PTR [ecx+592]

; 567  : }

  00006	c3		 ret	 0
?GetLocalTime@CGraphicThingInstance@@QAEMXZ ENDP	; CGraphicThingInstance::GetLocalTime
_TEXT	ENDS
; Function compile flags: /Ogtp
; File C:\DS Project\DS Files\Source\ClientSource\Client\eterGrnLib\ThingInstance.cpp
;	COMDAT ?GetLastLocalTime@CGraphicThingInstance@@QAEMXZ
_TEXT	SEGMENT
?GetLastLocalTime@CGraphicThingInstance@@QAEMXZ PROC	; CGraphicThingInstance::GetLastLocalTime, COMDAT
; _this$ = ecx

; 561  : 	return m_fLastLocalTime;

  00000	d9 81 4c 02 00
	00		 fld	 DWORD PTR [ecx+588]

; 562  : }

  00006	c3		 ret	 0
?GetLastLocalTime@CGraphicThingInstance@@QAEMXZ ENDP	; CGraphicThingInstance::GetLastLocalTime
_TEXT	ENDS
; Function compile flags: /Ogtp
; File C:\DS Project\DS Files\Source\ClientSource\Client\eterGrnLib\ThingInstance.cpp
; File C:\Program Files (x86)\Microsoft Visual Studio\2019\Community\VC\Tools\MSVC\14.27.29110\include\algorithm
; File C:\DS Project\DS Files\Source\ClientSource\Client\eterGrnLib\ThingInstance.cpp
; File C:\Program Files (x86)\Microsoft Visual Studio\2019\Community\VC\Tools\MSVC\14.27.29110\include\vector
; File C:\DS Project\DS Files\Source\ClientSource\Client\eterGrnLib\ThingInstance.cpp
; File C:\Program Files (x86)\Microsoft Visual Studio\2019\Community\VC\Tools\MSVC\14.27.29110\include\algorithm
; File C:\DS Project\DS Files\Source\ClientSource\Client\eterGrnLib\LODController.h
; File C:\Program Files (x86)\Microsoft Visual Studio\2019\Community\VC\Tools\MSVC\14.27.29110\include\algorithm
; File C:\DS Project\DS Files\Source\ClientSource\Client\eterGrnLib\ThingInstance.cpp
;	COMDAT ?__SetLocalTime@CGraphicThingInstance@@QAEXM@Z
_TEXT	SEGMENT
_fLocalTime$ = 8					; size = 4
?__SetLocalTime@CGraphicThingInstance@@QAEXM@Z PROC	; CGraphicThingInstance::__SetLocalTime, COMDAT
; _this$ = ecx

; 734  : {

  00000	55		 push	 ebp
  00001	8b ec		 mov	 ebp, esp

; 735  : 	m_fLastLocalTime = m_fLocalTime;

  00003	8b 81 50 02 00
	00		 mov	 eax, DWORD PTR [ecx+592]

; 736  : 	m_fLocalTime = fLocalTime;

  00009	f3 0f 10 45 08	 movss	 xmm0, DWORD PTR _fLocalTime$[ebp]
  0000e	56		 push	 esi
; File C:\Program Files (x86)\Microsoft Visual Studio\2019\Community\VC\Tools\MSVC\14.27.29110\include\algorithm

; 235  :     for (; _UFirst != _ULast; ++_UFirst) {

  0000f	8b b1 88 02 00
	00		 mov	 esi, DWORD PTR [ecx+648]
; File C:\DS Project\DS Files\Source\ClientSource\Client\eterGrnLib\ThingInstance.cpp

; 734  : {

  00015	57		 push	 edi
; File C:\Program Files (x86)\Microsoft Visual Studio\2019\Community\VC\Tools\MSVC\14.27.29110\include\vector

; 42   :     _Vector_const_iterator(_Tptr _Parg, const _Container_base* _Pvector) noexcept : _Ptr(_Parg) {

  00016	8b b9 8c 02 00
	00		 mov	 edi, DWORD PTR [ecx+652]
; File C:\DS Project\DS Files\Source\ClientSource\Client\eterGrnLib\ThingInstance.cpp

; 735  : 	m_fLastLocalTime = m_fLocalTime;

  0001c	89 81 4c 02 00
	00		 mov	 DWORD PTR [ecx+588], eax

; 736  : 	m_fLocalTime = fLocalTime;

  00022	f3 0f 11 81 50
	02 00 00	 movss	 DWORD PTR [ecx+592], xmm0
; File C:\Program Files (x86)\Microsoft Visual Studio\2019\Community\VC\Tools\MSVC\14.27.29110\include\algorithm

; 235  :     for (; _UFirst != _ULast; ++_UFirst) {

  0002a	3b f7		 cmp	 esi, edi
  0002c	74 1b		 je	 SHORT $LN17@SetLocalTi
  0002e	66 90		 npad	 2
$LL18@SetLocalTi:
; File C:\DS Project\DS Files\Source\ClientSource\Client\eterGrnLib\LODController.h

; 20   : 				pController->SetLocalTime(fLocalTime);

  00030	51		 push	 ecx
  00031	8b 0e		 mov	 ecx, DWORD PTR [esi]
  00033	f3 0f 11 04 24	 movss	 DWORD PTR [esp], xmm0
  00038	e8 00 00 00 00	 call	 ?SetLocalTime@CGrannyLODController@@QAEXM@Z ; CGrannyLODController::SetLocalTime
; File C:\Program Files (x86)\Microsoft Visual Studio\2019\Community\VC\Tools\MSVC\14.27.29110\include\algorithm

; 235  :     for (; _UFirst != _ULast; ++_UFirst) {

  0003d	f3 0f 10 45 08	 movss	 xmm0, DWORD PTR _fLocalTime$[ebp]
  00042	83 c6 04	 add	 esi, 4
  00045	3b f7		 cmp	 esi, edi
  00047	75 e7		 jne	 SHORT $LL18@SetLocalTi
$LN17@SetLocalTi:
  00049	5f		 pop	 edi
; File C:\DS Project\DS Files\Source\ClientSource\Client\eterGrnLib\ThingInstance.cpp

; 741  : }

  0004a	5e		 pop	 esi
  0004b	5d		 pop	 ebp
  0004c	c2 04 00	 ret	 4
?__SetLocalTime@CGraphicThingInstance@@QAEXM@Z ENDP	; CGraphicThingInstance::__SetLocalTime
_TEXT	ENDS
; Function compile flags: /Ogtp
; File C:\DS Project\DS Files\Source\ClientSource\Client\eterGrnLib\ThingInstance.cpp
; File C:\Program Files (x86)\Microsoft Visual Studio\2019\Community\VC\Tools\MSVC\14.27.29110\include\vector
; File C:\DS Project\DS Files\Source\ClientSource\Client\eterGrnLib\ThingInstance.cpp
; File C:\Program Files (x86)\Microsoft Visual Studio\2019\Community\VC\Tools\MSVC\14.27.29110\include\vector
; File C:\DS Project\DS Files\Source\ClientSource\Client\eterGrnLib\ThingInstance.cpp
;	COMDAT ?SetSpecularInfo@CGraphicThingInstance@@QAEXIPBDHM@Z
_TEXT	SEGMENT
_ePart$ = 8						; size = 4
_c_szMtrlName$ = 12					; size = 4
_bEnable$ = 16						; size = 4
_fPower$ = 20						; size = 4
?SetSpecularInfo@CGraphicThingInstance@@QAEXIPBDHM@Z PROC ; CGraphicThingInstance::SetSpecularInfo, COMDAT
; _this$ = ecx

; 435  : {

  00000	55		 push	 ebp
  00001	8b ec		 mov	 ebp, esp
; File C:\Program Files (x86)\Microsoft Visual Studio\2019\Community\VC\Tools\MSVC\14.27.29110\include\vector

; 1484 :         return static_cast<size_type>(_My_data._Mylast - _My_data._Myfirst);

  00003	8b 81 8c 02 00
	00		 mov	 eax, DWORD PTR [ecx+652]
  00009	8b 91 88 02 00
	00		 mov	 edx, DWORD PTR [ecx+648]
  0000f	2b c2		 sub	 eax, edx
; File C:\DS Project\DS Files\Source\ClientSource\Client\eterGrnLib\ThingInstance.cpp

; 436  : 	if (ePart>=m_LODControllerVector.size())

  00011	8b 4d 08	 mov	 ecx, DWORD PTR _ePart$[ebp]
; File C:\Program Files (x86)\Microsoft Visual Studio\2019\Community\VC\Tools\MSVC\14.27.29110\include\vector

; 1484 :         return static_cast<size_type>(_My_data._Mylast - _My_data._Myfirst);

  00014	c1 f8 02	 sar	 eax, 2
; File C:\DS Project\DS Files\Source\ClientSource\Client\eterGrnLib\ThingInstance.cpp

; 436  : 	if (ePart>=m_LODControllerVector.size())

  00017	3b c8		 cmp	 ecx, eax
  00019	72 13		 jb	 SHORT $LN2@SetSpecula

; 437  : 	{
; 438  : 		TraceError("CGraphicThingInstance::SetSpecularInfo(ePart(%d)<uPartCount(%d)) - ePart OUT OF RANGE",

  0001b	50		 push	 eax
  0001c	51		 push	 ecx
  0001d	68 00 00 00 00	 push	 OFFSET ??_C@_0FG@IDFCAGB@CGraphicThingInstance?3?3SetSpecu@
  00022	e8 00 00 00 00	 call	 ?TraceError@@YAXPBDZZ	; TraceError
  00027	83 c4 0c	 add	 esp, 12			; 0000000cH

; 453  : }

  0002a	5d		 pop	 ebp
  0002b	c2 10 00	 ret	 16			; 00000010H
$LN2@SetSpecula:

; 439  : 			ePart, m_LODControllerVector.size());
; 440  : 
; 441  : 		return;
; 442  : 	}
; 443  : 
; 444  : 	if (!m_LODControllerVector[ePart])

  0002e	8b 14 8a	 mov	 edx, DWORD PTR [edx+ecx*4]
  00031	85 d2		 test	 edx, edx
  00033	75 13		 jne	 SHORT $LN3@SetSpecula

; 445  : 	{
; 446  : 		TraceError("CGraphicThingInstance::SetSpecularInfo(ePart(%d)) - ePart Data is NULL",

  00035	50		 push	 eax
  00036	51		 push	 ecx
  00037	68 00 00 00 00	 push	 OFFSET ??_C@_0EH@ILOLFLHJ@CGraphicThingInstance?3?3SetSpecu@
  0003c	e8 00 00 00 00	 call	 ?TraceError@@YAXPBDZZ	; TraceError
  00041	83 c4 0c	 add	 esp, 12			; 0000000cH

; 453  : }

  00044	5d		 pop	 ebp
  00045	c2 10 00	 ret	 16			; 00000010H
$LN3@SetSpecula:

; 447  : 			ePart, m_LODControllerVector.size());
; 448  : 
; 449  : 		return;
; 450  : 	}
; 451  : 
; 452  : 	m_LODControllerVector[ePart]->SetSpecularInfo(c_szMtrlName, bEnable, fPower);

  00048	f3 0f 10 45 14	 movss	 xmm0, DWORD PTR _fPower$[ebp]
  0004d	51		 push	 ecx
  0004e	f3 0f 11 04 24	 movss	 DWORD PTR [esp], xmm0
  00053	8b ca		 mov	 ecx, edx
  00055	ff 75 10	 push	 DWORD PTR _bEnable$[ebp]
  00058	ff 75 0c	 push	 DWORD PTR _c_szMtrlName$[ebp]
  0005b	e8 00 00 00 00	 call	 ?SetSpecularInfo@CGrannyLODController@@QAEXPBDHM@Z ; CGrannyLODController::SetSpecularInfo

; 453  : }

  00060	5d		 pop	 ebp
  00061	c2 10 00	 ret	 16			; 00000010H
?SetSpecularInfo@CGraphicThingInstance@@QAEXIPBDHM@Z ENDP ; CGraphicThingInstance::SetSpecularInfo
_TEXT	ENDS
; Function compile flags: /Ogtp
; File C:\DS Project\DS Files\Source\ClientSource\Client\eterGrnLib\ThingInstance.cpp
; File C:\Program Files (x86)\Microsoft Visual Studio\2019\Community\VC\Tools\MSVC\14.27.29110\include\vector
; File C:\DS Project\DS Files\Source\ClientSource\Client\eterGrnLib\ThingInstance.cpp
; File C:\Program Files (x86)\Microsoft Visual Studio\2019\Community\VC\Tools\MSVC\14.27.29110\include\vector
; File C:\DS Project\DS Files\Source\ClientSource\Client\eterGrnLib\ThingInstance.cpp
;	COMDAT ?SetMaterialData@CGraphicThingInstance@@QAEXIPBDUSMaterialData@@@Z
_TEXT	SEGMENT
_ePart$ = 8						; size = 4
_c_szImageName$ = 12					; size = 4
_kMaterialData$ = 16					; size = 16
?SetMaterialData@CGraphicThingInstance@@QAEXIPBDUSMaterialData@@@Z PROC ; CGraphicThingInstance::SetMaterialData, COMDAT
; _this$ = ecx

; 414  : {

  00000	55		 push	 ebp
  00001	8b ec		 mov	 ebp, esp
; File C:\Program Files (x86)\Microsoft Visual Studio\2019\Community\VC\Tools\MSVC\14.27.29110\include\vector

; 1484 :         return static_cast<size_type>(_My_data._Mylast - _My_data._Myfirst);

  00003	8b 81 8c 02 00
	00		 mov	 eax, DWORD PTR [ecx+652]
  00009	8b 91 88 02 00
	00		 mov	 edx, DWORD PTR [ecx+648]
  0000f	2b c2		 sub	 eax, edx
; File C:\DS Project\DS Files\Source\ClientSource\Client\eterGrnLib\ThingInstance.cpp

; 415  : 	if (ePart>=m_LODControllerVector.size())

  00011	8b 4d 08	 mov	 ecx, DWORD PTR _ePart$[ebp]
; File C:\Program Files (x86)\Microsoft Visual Studio\2019\Community\VC\Tools\MSVC\14.27.29110\include\vector

; 1484 :         return static_cast<size_type>(_My_data._Mylast - _My_data._Myfirst);

  00014	c1 f8 02	 sar	 eax, 2
; File C:\DS Project\DS Files\Source\ClientSource\Client\eterGrnLib\ThingInstance.cpp

; 415  : 	if (ePart>=m_LODControllerVector.size())

  00017	3b c8		 cmp	 ecx, eax
  00019	72 13		 jb	 SHORT $LN2@SetMateria

; 416  : 	{
; 417  : 		TraceError("CGraphicThingInstance::SetMaterialData(ePart(%d)<uPartCount(%d)) - ePart OUT OF RANGE",

  0001b	50		 push	 eax
  0001c	51		 push	 ecx
  0001d	68 00 00 00 00	 push	 OFFSET ??_C@_0FG@DKLHHMAO@CGraphicThingInstance?3?3SetMater@
  00022	e8 00 00 00 00	 call	 ?TraceError@@YAXPBDZZ	; TraceError
  00027	83 c4 0c	 add	 esp, 12			; 0000000cH

; 432  : }

  0002a	5d		 pop	 ebp
  0002b	c2 18 00	 ret	 24			; 00000018H
$LN2@SetMateria:

; 418  : 			ePart, m_LODControllerVector.size());
; 419  : 
; 420  : 		return;
; 421  : 	}
; 422  : 
; 423  : 	if (!m_LODControllerVector[ePart])

  0002e	8b 14 8a	 mov	 edx, DWORD PTR [edx+ecx*4]
  00031	85 d2		 test	 edx, edx
  00033	75 13		 jne	 SHORT $LN3@SetMateria

; 424  : 	{
; 425  : 		TraceError("CGraphicThingInstance::SetMaterialData(ePart(%d)) - ePart Data is NULL",

  00035	50		 push	 eax
  00036	51		 push	 ecx
  00037	68 00 00 00 00	 push	 OFFSET ??_C@_0EH@ILONCBFP@CGraphicThingInstance?3?3SetMater@
  0003c	e8 00 00 00 00	 call	 ?TraceError@@YAXPBDZZ	; TraceError
  00041	83 c4 0c	 add	 esp, 12			; 0000000cH

; 432  : }

  00044	5d		 pop	 ebp
  00045	c2 18 00	 ret	 24			; 00000018H
$LN3@SetMateria:

; 426  : 			ePart, m_LODControllerVector.size());
; 427  : 
; 428  : 		return;
; 429  : 	}
; 430  : 
; 431  : 	m_LODControllerVector[ePart]->SetMaterialData(c_szImageName, kMaterialData);

  00048	8d 45 10	 lea	 eax, DWORD PTR _kMaterialData$[ebp]
  0004b	8b ca		 mov	 ecx, edx
  0004d	50		 push	 eax
  0004e	ff 75 0c	 push	 DWORD PTR _c_szImageName$[ebp]
  00051	e8 00 00 00 00	 call	 ?SetMaterialData@CGrannyLODController@@QAEXPBDABUSMaterialData@@@Z ; CGrannyLODController::SetMaterialData

; 432  : }

  00056	5d		 pop	 ebp
  00057	c2 18 00	 ret	 24			; 00000018H
?SetMaterialData@CGraphicThingInstance@@QAEXIPBDUSMaterialData@@@Z ENDP ; CGraphicThingInstance::SetMaterialData
_TEXT	ENDS
; Function compile flags: /Ogtp
; File C:\DS Project\DS Files\Source\ClientSource\Client\eterGrnLib\ThingInstance.cpp
; File C:\Program Files (x86)\Microsoft Visual Studio\2019\Community\VC\Tools\MSVC\14.27.29110\include\vector
; File C:\DS Project\DS Files\Source\ClientSource\Client\eterGrnLib\ThingInstance.cpp
; File C:\Program Files (x86)\Microsoft Visual Studio\2019\Community\VC\Tools\MSVC\14.27.29110\include\vector
; File C:\DS Project\DS Files\Source\ClientSource\Client\eterGrnLib\ThingInstance.cpp
; File C:\Program Files (x86)\Microsoft Visual Studio\2019\Community\VC\Tools\MSVC\14.27.29110\include\xstring
; File C:\DS Project\DS Files\Source\ClientSource\Client\eterGrnLib\ThingInstance.cpp
; File C:\Program Files (x86)\Microsoft Visual Studio\2019\Community\VC\Tools\MSVC\14.27.29110\include\xstring
; File C:\DS Project\DS Files\Source\ClientSource\Client\eterGrnLib\ThingInstance.cpp
;	COMDAT ?SetMaterialImagePointer@CGraphicThingInstance@@QAEXIPBDPAVCGraphicImage@@@Z
_TEXT	SEGMENT
_ePart$ = 8						; size = 4
_c_szImageName$ = 12					; size = 4
_pImage$ = 16						; size = 4
?SetMaterialImagePointer@CGraphicThingInstance@@QAEXIPBDPAVCGraphicImage@@@Z PROC ; CGraphicThingInstance::SetMaterialImagePointer, COMDAT
; _this$ = ecx

; 393  : {

  00000	55		 push	 ebp
  00001	8b ec		 mov	 ebp, esp
; File C:\Program Files (x86)\Microsoft Visual Studio\2019\Community\VC\Tools\MSVC\14.27.29110\include\vector

; 1484 :         return static_cast<size_type>(_My_data._Mylast - _My_data._Myfirst);

  00003	8b 81 88 02 00
	00		 mov	 eax, DWORD PTR [ecx+648]
  00009	8b 89 8c 02 00
	00		 mov	 ecx, DWORD PTR [ecx+652]
; File C:\DS Project\DS Files\Source\ClientSource\Client\eterGrnLib\ThingInstance.cpp

; 394  : 	if (ePart>=m_LODControllerVector.size())

  0000f	8b 55 08	 mov	 edx, DWORD PTR _ePart$[ebp]
; File C:\Program Files (x86)\Microsoft Visual Studio\2019\Community\VC\Tools\MSVC\14.27.29110\include\vector

; 1484 :         return static_cast<size_type>(_My_data._Mylast - _My_data._Myfirst);

  00012	2b c8		 sub	 ecx, eax
  00014	c1 f9 02	 sar	 ecx, 2
; File C:\DS Project\DS Files\Source\ClientSource\Client\eterGrnLib\ThingInstance.cpp

; 394  : 	if (ePart>=m_LODControllerVector.size())

  00017	3b d1		 cmp	 edx, ecx
  00019	72 25		 jb	 SHORT $LN2@SetMateria
; File C:\Program Files (x86)\Microsoft Visual Studio\2019\Community\VC\Tools\MSVC\14.27.29110\include\xstring

; 3668 :         return _Mypair._Myval2._Myptr();

  0001b	8b 45 10	 mov	 eax, DWORD PTR _pImage$[ebp]
  0001e	83 c0 0c	 add	 eax, 12			; 0000000cH

; 2153 :         return _BUF_SIZE <= _Myres;

  00021	83 78 14 10	 cmp	 DWORD PTR [eax+20], 16	; 00000010H

; 2145 :         if (_Large_string_engaged()) {

  00025	72 02		 jb	 SHORT $LN12@SetMateria

; 2146 :             _Result = _Unfancy(_Bx._Ptr);

  00027	8b 00		 mov	 eax, DWORD PTR [eax]
$LN12@SetMateria:
; File C:\DS Project\DS Files\Source\ClientSource\Client\eterGrnLib\ThingInstance.cpp

; 396  : 		TraceError("CGraphicThingInstance::SetMaterialImagePointer(ePart(%d)<uPartCount(%d), c_szImageName=%s, pImage=%s) - ePart OUT OF RANGE",

  00029	50		 push	 eax
  0002a	ff 75 0c	 push	 DWORD PTR _c_szImageName$[ebp]
  0002d	51		 push	 ecx
  0002e	52		 push	 edx
  0002f	68 00 00 00 00	 push	 OFFSET ??_C@_0HL@PNAAKLOK@CGraphicThingInstance?3?3SetMater@
  00034	e8 00 00 00 00	 call	 ?TraceError@@YAXPBDZZ	; TraceError
  00039	83 c4 14	 add	 esp, 20			; 00000014H

; 411  : }

  0003c	5d		 pop	 ebp
  0003d	c2 0c 00	 ret	 12			; 0000000cH
$LN2@SetMateria:

; 397  : 			ePart, m_LODControllerVector.size(), c_szImageName, pImage->GetFileName());
; 398  : 
; 399  : 		return;
; 400  : 	}
; 401  : 
; 402  : 	if (!m_LODControllerVector[ePart])

  00040	8b 04 90	 mov	 eax, DWORD PTR [eax+edx*4]
  00043	85 c0		 test	 eax, eax
  00045	75 25		 jne	 SHORT $LN3@SetMateria
; File C:\Program Files (x86)\Microsoft Visual Studio\2019\Community\VC\Tools\MSVC\14.27.29110\include\xstring

; 3668 :         return _Mypair._Myval2._Myptr();

  00047	8b 45 10	 mov	 eax, DWORD PTR _pImage$[ebp]
  0004a	83 c0 0c	 add	 eax, 12			; 0000000cH

; 2153 :         return _BUF_SIZE <= _Myres;

  0004d	83 78 14 10	 cmp	 DWORD PTR [eax+20], 16	; 00000010H

; 2145 :         if (_Large_string_engaged()) {

  00051	72 02		 jb	 SHORT $LN25@SetMateria

; 2146 :             _Result = _Unfancy(_Bx._Ptr);

  00053	8b 00		 mov	 eax, DWORD PTR [eax]
$LN25@SetMateria:
; File C:\DS Project\DS Files\Source\ClientSource\Client\eterGrnLib\ThingInstance.cpp

; 404  : 		TraceError("CGraphicThingInstance::SetMaterialImagePointer(ePart(%d), c_szImageName=%s, pImage=%s) - ePart Data is NULL",

  00055	50		 push	 eax
  00056	ff 75 0c	 push	 DWORD PTR _c_szImageName$[ebp]
  00059	51		 push	 ecx
  0005a	52		 push	 edx
  0005b	68 00 00 00 00	 push	 OFFSET ??_C@_0GM@CIGLBIHL@CGraphicThingInstance?3?3SetMater@
  00060	e8 00 00 00 00	 call	 ?TraceError@@YAXPBDZZ	; TraceError
  00065	83 c4 14	 add	 esp, 20			; 00000014H

; 411  : }

  00068	5d		 pop	 ebp
  00069	c2 0c 00	 ret	 12			; 0000000cH
$LN3@SetMateria:

; 405  : 			ePart, m_LODControllerVector.size(), c_szImageName, pImage->GetFileName());
; 406  : 
; 407  : 		return;
; 408  : 	}
; 409  : 
; 410  : 	m_LODControllerVector[ePart]->SetMaterialImagePointer(c_szImageName, pImage);

  0006c	ff 75 10	 push	 DWORD PTR _pImage$[ebp]
  0006f	8b c8		 mov	 ecx, eax
  00071	ff 75 0c	 push	 DWORD PTR _c_szImageName$[ebp]
  00074	e8 00 00 00 00	 call	 ?SetMaterialImagePointer@CGrannyLODController@@QAEXPBDPAVCGraphicImage@@@Z ; CGrannyLODController::SetMaterialImagePointer

; 411  : }

  00079	5d		 pop	 ebp
  0007a	c2 0c 00	 ret	 12			; 0000000cH
?SetMaterialImagePointer@CGraphicThingInstance@@QAEXIPBDPAVCGraphicImage@@@Z ENDP ; CGraphicThingInstance::SetMaterialImagePointer
_TEXT	ENDS
; Function compile flags: /Ogtp
; File C:\DS Project\DS Files\Source\ClientSource\Client\eterGrnLib\ThingInstance.cpp
;	COMDAT ?InsertDelay@CGraphicThingInstance@@QAEXM@Z
_TEXT	SEGMENT
_fDelay$ = 8						; size = 4
?InsertDelay@CGraphicThingInstance@@QAEXM@Z PROC	; CGraphicThingInstance::InsertDelay, COMDAT
; _this$ = ecx

; 555  : {

  00000	55		 push	 ebp
  00001	8b ec		 mov	 ebp, esp

; 556  : 	m_fDelay = fDelay;

  00003	f3 0f 10 45 08	 movss	 xmm0, DWORD PTR _fDelay$[ebp]
  00008	f3 0f 11 81 54
	02 00 00	 movss	 DWORD PTR [ecx+596], xmm0

; 557  : }

  00010	5d		 pop	 ebp
  00011	c2 04 00	 ret	 4
?InsertDelay@CGraphicThingInstance@@QAEXM@Z ENDP	; CGraphicThingInstance::InsertDelay
_TEXT	ENDS
; Function compile flags: /Ogtp
; File C:\DS Project\DS Files\Source\ClientSource\Client\eterGrnLib\ThingInstance.cpp
; File C:\Program Files (x86)\Microsoft Visual Studio\2019\Community\VC\Tools\MSVC\14.27.29110\include\vector
; File C:\DS Project\DS Files\Source\ClientSource\Client\eterGrnLib\ThingInstance.cpp
; File C:\Program Files (x86)\Microsoft Visual Studio\2019\Community\VC\Tools\MSVC\14.27.29110\include\algorithm
; File C:\DS Project\DS Files\Source\ClientSource\Client\eterGrnLib\ThingInstance.cpp
; File C:\Program Files (x86)\Microsoft Visual Studio\2019\Community\VC\Tools\MSVC\14.27.29110\include\algorithm
; File C:\DS Project\DS Files\Source\ClientSource\Client\eterGrnLib\LODController.h
; File C:\Program Files (x86)\Microsoft Visual Studio\2019\Community\VC\Tools\MSVC\14.27.29110\include\algorithm
; File C:\DS Project\DS Files\Source\ClientSource\Client\eterGrnLib\ThingInstance.cpp
;	COMDAT ?ResetLocalTime@CGraphicThingInstance@@QAEXXZ
_TEXT	SEGMENT
?ResetLocalTime@CGraphicThingInstance@@QAEXXZ PROC	; CGraphicThingInstance::ResetLocalTime, COMDAT
; _this$ = ecx

; 539  : {

  00000	53		 push	 ebx
; File C:\Program Files (x86)\Microsoft Visual Studio\2019\Community\VC\Tools\MSVC\14.27.29110\include\vector

; 42   :     _Vector_const_iterator(_Tptr _Parg, const _Container_base* _Pvector) noexcept : _Ptr(_Parg) {

  00001	8b 99 8c 02 00
	00		 mov	 ebx, DWORD PTR [ecx+652]
; File C:\DS Project\DS Files\Source\ClientSource\Client\eterGrnLib\ThingInstance.cpp

; 539  : {

  00007	56		 push	 esi
; File C:\Program Files (x86)\Microsoft Visual Studio\2019\Community\VC\Tools\MSVC\14.27.29110\include\algorithm

; 235  :     for (; _UFirst != _ULast; ++_UFirst) {

  00008	8b b1 88 02 00
	00		 mov	 esi, DWORD PTR [ecx+648]
; File C:\DS Project\DS Files\Source\ClientSource\Client\eterGrnLib\ThingInstance.cpp

; 541  : 	m_fLastLocalTime = 0.0f;

  0000e	c7 81 4c 02 00
	00 00 00 00 00	 mov	 DWORD PTR [ecx+588], 0

; 542  : 	m_fLocalTime = 0.0f;

  00018	c7 81 50 02 00
	00 00 00 00 00	 mov	 DWORD PTR [ecx+592], 0
; File C:\Program Files (x86)\Microsoft Visual Studio\2019\Community\VC\Tools\MSVC\14.27.29110\include\algorithm

; 235  :     for (; _UFirst != _ULast; ++_UFirst) {

  00022	3b f3		 cmp	 esi, ebx
  00024	74 1d		 je	 SHORT $LN17@ResetLocal
  00026	57		 push	 edi
$LL18@ResetLocal:

; 236  :         _Func(*_UFirst);

  00027	8b 3e		 mov	 edi, DWORD PTR [esi]
; File C:\DS Project\DS Files\Source\ClientSource\Client\eterGrnLib\LODController.h

; 172  : 				if (pController->isModelInstance())

  00029	8b cf		 mov	 ecx, edi
  0002b	e8 00 00 00 00	 call	 ?isModelInstance@CGrannyLODController@@QAEHXZ ; CGrannyLODController::isModelInstance
  00030	85 c0		 test	 eax, eax
  00032	74 07		 je	 SHORT $LN16@ResetLocal

; 173  : 					pController->ResetLocalTime();

  00034	8b cf		 mov	 ecx, edi
  00036	e8 00 00 00 00	 call	 ?ResetLocalTime@CGrannyLODController@@QAEXXZ ; CGrannyLODController::ResetLocalTime
$LN16@ResetLocal:
; File C:\Program Files (x86)\Microsoft Visual Studio\2019\Community\VC\Tools\MSVC\14.27.29110\include\algorithm

; 235  :     for (; _UFirst != _ULast; ++_UFirst) {

  0003b	83 c6 04	 add	 esi, 4
  0003e	3b f3		 cmp	 esi, ebx
  00040	75 e5		 jne	 SHORT $LL18@ResetLocal
  00042	5f		 pop	 edi
$LN17@ResetLocal:
  00043	5e		 pop	 esi
; File C:\DS Project\DS Files\Source\ClientSource\Client\eterGrnLib\ThingInstance.cpp

; 546  : }

  00044	5b		 pop	 ebx
  00045	c3		 ret	 0
?ResetLocalTime@CGraphicThingInstance@@QAEXXZ ENDP	; CGraphicThingInstance::ResetLocalTime
_TEXT	ENDS
; Function compile flags: /Ogtp
; File C:\DS Project\DS Files\Source\ClientSource\Client\eterGrnLib\ThingInstance.cpp
; File C:\Program Files (x86)\Microsoft Visual Studio\2019\Community\VC\Tools\MSVC\14.27.29110\include\vector
; File C:\DS Project\DS Files\Source\ClientSource\Client\eterGrnLib\ThingInstance.cpp
;	COMDAT ?GetBonePosition@CGraphicThingInstance@@QAE_NHHPAM00@Z
_TEXT	SEGMENT
_iModelIndex$ = 8					; size = 4
_iBoneIndex$ = 12					; size = 4
_pfx$ = 16						; size = 4
_pfy$ = 20						; size = 4
_pfz$ = 24						; size = 4
?GetBonePosition@CGraphicThingInstance@@QAE_NHHPAM00@Z PROC ; CGraphicThingInstance::GetBonePosition, COMDAT
; _this$ = ecx

; 330  : {

  00000	55		 push	 ebp
  00001	8b ec		 mov	 ebp, esp
; File C:\Program Files (x86)\Microsoft Visual Studio\2019\Community\VC\Tools\MSVC\14.27.29110\include\vector

; 1504 :         return _My_data._Myfirst[_Pos];

  00003	8b 81 88 02 00
	00		 mov	 eax, DWORD PTR [ecx+648]
  00009	8b 4d 08	 mov	 ecx, DWORD PTR _iModelIndex$[ebp]
; File C:\DS Project\DS Files\Source\ClientSource\Client\eterGrnLib\ThingInstance.cpp

; 333  : 	CGrannyModelInstance * pModelInstance = m_LODControllerVector[iModelIndex]->GetModelInstance();

  0000c	8b 0c 88	 mov	 ecx, DWORD PTR [eax+ecx*4]
  0000f	e8 00 00 00 00	 call	 ?GetModelInstance@CGrannyLODController@@QAEPAVCGrannyModelInstance@@XZ ; CGrannyLODController::GetModelInstance

; 334  : 
; 335  : 	if (!pModelInstance)

  00014	85 c0		 test	 eax, eax
  00016	75 06		 jne	 SHORT $LN2@GetBonePos

; 336  : 		return false;

  00018	32 c0		 xor	 al, al

; 344  : }

  0001a	5d		 pop	 ebp
  0001b	c2 14 00	 ret	 20			; 00000014H
$LN2@GetBonePos:

; 337  : 
; 338  : 	const float * pfMatrix = pModelInstance->GetBoneMatrixPointer(iBoneIndex);

  0001e	ff 75 0c	 push	 DWORD PTR _iBoneIndex$[ebp]
  00021	8b c8		 mov	 ecx, eax
  00023	e8 00 00 00 00	 call	 ?GetBoneMatrixPointer@CGrannyModelInstance@@QBEPBMH@Z ; CGrannyModelInstance::GetBoneMatrixPointer

; 339  : 
; 340  : 	*pfx = pfMatrix[12];

  00028	8b 4d 10	 mov	 ecx, DWORD PTR _pfx$[ebp]
  0002b	8b 50 30	 mov	 edx, DWORD PTR [eax+48]
  0002e	89 11		 mov	 DWORD PTR [ecx], edx

; 341  : 	*pfy = pfMatrix[13];

  00030	8b 4d 14	 mov	 ecx, DWORD PTR _pfy$[ebp]
  00033	8b 50 34	 mov	 edx, DWORD PTR [eax+52]
  00036	89 11		 mov	 DWORD PTR [ecx], edx

; 342  : 	*pfz = pfMatrix[14];

  00038	8b 48 38	 mov	 ecx, DWORD PTR [eax+56]
  0003b	8b 45 18	 mov	 eax, DWORD PTR _pfz$[ebp]
  0003e	89 08		 mov	 DWORD PTR [eax], ecx

; 343  : 	return true;

  00040	b0 01		 mov	 al, 1

; 344  : }

  00042	5d		 pop	 ebp
  00043	c2 14 00	 ret	 20			; 00000014H
?GetBonePosition@CGraphicThingInstance@@QAE_NHHPAM00@Z ENDP ; CGraphicThingInstance::GetBonePosition
_TEXT	ENDS
; Function compile flags: /Ogtp
; File C:\DS Project\DS Files\Source\ClientSource\Client\eterGrnLib\ThingInstance.cpp
; File C:\Program Files (x86)\Microsoft Visual Studio\2019\Community\VC\Tools\MSVC\14.27.29110\include\vector
; File C:\DS Project\DS Files\Source\ClientSource\Client\eterGrnLib\ThingInstance.cpp
;	COMDAT ?FindBoneIndex@CGraphicThingInstance@@QAE_NHPBDPAH@Z
_TEXT	SEGMENT
_iModelInstance$ = 8					; size = 4
_c_szBoneName$ = 12					; size = 4
_iRetBone$ = 16						; size = 4
?FindBoneIndex@CGraphicThingInstance@@QAE_NHPBDPAH@Z PROC ; CGraphicThingInstance::FindBoneIndex, COMDAT
; _this$ = ecx

; 264  : {

  00000	55		 push	 ebp
  00001	8b ec		 mov	 ebp, esp
; File C:\Program Files (x86)\Microsoft Visual Studio\2019\Community\VC\Tools\MSVC\14.27.29110\include\vector

; 1504 :         return _My_data._Myfirst[_Pos];

  00003	8b 89 88 02 00
	00		 mov	 ecx, DWORD PTR [ecx+648]
  00009	8b 45 08	 mov	 eax, DWORD PTR _iModelInstance$[ebp]
; File C:\DS Project\DS Files\Source\ClientSource\Client\eterGrnLib\ThingInstance.cpp

; 267  : 	CGrannyModelInstance * pModelInstance = m_LODControllerVector[iModelInstance]->GetModelInstance();

  0000c	8b 0c 81	 mov	 ecx, DWORD PTR [ecx+eax*4]
  0000f	e8 00 00 00 00	 call	 ?GetModelInstance@CGrannyLODController@@QAEPAVCGrannyModelInstance@@XZ ; CGrannyLODController::GetModelInstance

; 268  : 
; 269  : 	if (!pModelInstance)

  00014	85 c0		 test	 eax, eax
  00016	75 06		 jne	 SHORT $LN2@FindBoneIn

; 270  : 		return false;

  00018	32 c0		 xor	 al, al

; 273  : }

  0001a	5d		 pop	 ebp
  0001b	c2 0c 00	 ret	 12			; 0000000cH
$LN2@FindBoneIn:

; 271  : 
; 272  : 	return pModelInstance->GetBoneIndexByName(c_szBoneName, iRetBone);

  0001e	ff 75 10	 push	 DWORD PTR _iRetBone$[ebp]
  00021	8b c8		 mov	 ecx, eax
  00023	ff 75 0c	 push	 DWORD PTR _c_szBoneName$[ebp]
  00026	e8 00 00 00 00	 call	 ?GetBoneIndexByName@CGrannyModelInstance@@QBE_NPBDPAH@Z ; CGrannyModelInstance::GetBoneIndexByName

; 273  : }

  0002b	5d		 pop	 ebp
  0002c	c2 0c 00	 ret	 12			; 0000000cH
?FindBoneIndex@CGraphicThingInstance@@QAE_NHPBDPAH@Z ENDP ; CGraphicThingInstance::FindBoneIndex
_TEXT	ENDS
; Function compile flags: /Ogtp
; File C:\DS Project\DS Files\Source\ClientSource\Client\eterGrnLib\ThingInstance.cpp
;	COMDAT ?DetachModelInstance@CGraphicThingInstance@@QAEXHAAV1@H@Z
_TEXT	SEGMENT
_this$1$ = -4						; size = 4
_iDstModelInstance$ = 8					; size = 4
_rSrcInstance$ = 12					; size = 4
_iSrcModelInstance$ = 16				; size = 4
?DetachModelInstance@CGraphicThingInstance@@QAEXHAAV1@H@Z PROC ; CGraphicThingInstance::DetachModelInstance, COMDAT
; _this$ = ecx

; 312  : {

  00000	55		 push	 ebp
  00001	8b ec		 mov	 ebp, esp
  00003	51		 push	 ecx
  00004	53		 push	 ebx
  00005	56		 push	 esi
  00006	57		 push	 edi

; 313  : 	if (!CheckModelInstanceIndex(iDstModelInstance))

  00007	8b 7d 08	 mov	 edi, DWORD PTR _iDstModelInstance$[ebp]
  0000a	8b c1		 mov	 eax, ecx
  0000c	57		 push	 edi
  0000d	89 45 fc	 mov	 DWORD PTR _this$1$[ebp], eax
  00010	e8 00 00 00 00	 call	 ?CheckModelInstanceIndex@CGraphicThingInstance@@QAE_NH@Z ; CGraphicThingInstance::CheckModelInstanceIndex
  00015	8b 75 10	 mov	 esi, DWORD PTR _iSrcModelInstance$[ebp]
  00018	84 c0		 test	 al, al
  0001a	74 32		 je	 SHORT $LN9@DetachMode

; 314  : 	{
; 315  : 		TraceError("CGraphicThingInstance::AttachModelInstance(iDstModelInstance=%d, iSrcModelInstance=%d)", iDstModelInstance, iSrcModelInstance);
; 316  : 		return;
; 317  : 	}
; 318  : 	if (!rSrcInstance.CheckModelInstanceIndex(iSrcModelInstance))

  0001c	8b 5d 0c	 mov	 ebx, DWORD PTR _rSrcInstance$[ebp]
  0001f	8b cb		 mov	 ecx, ebx
  00021	56		 push	 esi
  00022	e8 00 00 00 00	 call	 ?CheckModelInstanceIndex@CGraphicThingInstance@@QAE_NH@Z ; CGraphicThingInstance::CheckModelInstanceIndex
  00027	84 c0		 test	 al, al
  00029	74 23		 je	 SHORT $LN9@DetachMode

; 321  : 		return;
; 322  : 	}
; 323  : 
; 324  : 	CGrannyLODController * pDstLODController = m_LODControllerVector[iDstModelInstance];
; 325  : 	CGrannyLODController * pSrcLODController = rSrcInstance.m_LODControllerVector[iSrcModelInstance];
; 326  : 	pDstLODController->DetachModelInstance(pSrcLODController);

  0002b	8b 4d fc	 mov	 ecx, DWORD PTR _this$1$[ebp]
  0002e	8b 83 88 02 00
	00		 mov	 eax, DWORD PTR [ebx+648]
  00034	8b 89 88 02 00
	00		 mov	 ecx, DWORD PTR [ecx+648]
  0003a	ff 34 b0	 push	 DWORD PTR [eax+esi*4]
  0003d	8b 0c b9	 mov	 ecx, DWORD PTR [ecx+edi*4]
  00040	e8 00 00 00 00	 call	 ?DetachModelInstance@CGrannyLODController@@QAEXPAV1@@Z ; CGrannyLODController::DetachModelInstance
  00045	5f		 pop	 edi

; 327  : }

  00046	5e		 pop	 esi
  00047	5b		 pop	 ebx
  00048	8b e5		 mov	 esp, ebp
  0004a	5d		 pop	 ebp
  0004b	c2 0c 00	 ret	 12			; 0000000cH
$LN9@DetachMode:

; 319  : 	{
; 320  : 		TraceError("CGraphicThingInstance::AttachModelInstance(iDstModelInstance=%d, iSrcModelInstance=%d)", iDstModelInstance, iSrcModelInstance);

  0004e	56		 push	 esi
  0004f	57		 push	 edi
  00050	68 00 00 00 00	 push	 OFFSET ??_C@_0FH@FOLHJMIP@CGraphicThingInstance?3?3AttachMo@
  00055	e8 00 00 00 00	 call	 ?TraceError@@YAXPBDZZ	; TraceError
  0005a	83 c4 0c	 add	 esp, 12			; 0000000cH
  0005d	5f		 pop	 edi

; 327  : }

  0005e	5e		 pop	 esi
  0005f	5b		 pop	 ebx
  00060	8b e5		 mov	 esp, ebp
  00062	5d		 pop	 ebp
  00063	c2 0c 00	 ret	 12			; 0000000cH
?DetachModelInstance@CGraphicThingInstance@@QAEXHAAV1@H@Z ENDP ; CGraphicThingInstance::DetachModelInstance
_TEXT	ENDS
; Function compile flags: /Ogtp
; File C:\DS Project\DS Files\Source\ClientSource\Client\eterGrnLib\ThingInstance.cpp
;	COMDAT ?AttachModelInstance@CGraphicThingInstance@@QAEXHPBDAAV1@H@Z
_TEXT	SEGMENT
_this$1$ = -4						; size = 4
_iDstModelInstance$ = 8					; size = 4
_c_szBoneName$ = 12					; size = 4
_rSrcInstance$ = 16					; size = 4
_iSrcModelInstance$ = 20				; size = 4
?AttachModelInstance@CGraphicThingInstance@@QAEXHPBDAAV1@H@Z PROC ; CGraphicThingInstance::AttachModelInstance, COMDAT
; _this$ = ecx

; 294  : {

  00000	55		 push	 ebp
  00001	8b ec		 mov	 ebp, esp
  00003	51		 push	 ecx
  00004	53		 push	 ebx
  00005	56		 push	 esi
  00006	57		 push	 edi

; 295  : 	if (!CheckModelInstanceIndex(iDstModelInstance))

  00007	8b 7d 08	 mov	 edi, DWORD PTR _iDstModelInstance$[ebp]
  0000a	8b c1		 mov	 eax, ecx
  0000c	57		 push	 edi
  0000d	89 45 fc	 mov	 DWORD PTR _this$1$[ebp], eax
  00010	e8 00 00 00 00	 call	 ?CheckModelInstanceIndex@CGraphicThingInstance@@QAE_NH@Z ; CGraphicThingInstance::CheckModelInstanceIndex
  00015	8b 75 14	 mov	 esi, DWORD PTR _iSrcModelInstance$[ebp]
  00018	84 c0		 test	 al, al
  0001a	74 35		 je	 SHORT $LN9@AttachMode

; 296  : 	{
; 297  : 		TraceError("CGraphicThingInstance::AttachModelInstance(iDstModelInstance=%d, c_szBoneName=%s, iSrcModelInstance=%d)", iDstModelInstance, c_szBoneName, iSrcModelInstance);
; 298  : 		return;
; 299  : 	}
; 300  : 	if (!rSrcInstance.CheckModelInstanceIndex(iSrcModelInstance))

  0001c	8b 5d 10	 mov	 ebx, DWORD PTR _rSrcInstance$[ebp]
  0001f	8b cb		 mov	 ecx, ebx
  00021	56		 push	 esi
  00022	e8 00 00 00 00	 call	 ?CheckModelInstanceIndex@CGraphicThingInstance@@QAE_NH@Z ; CGraphicThingInstance::CheckModelInstanceIndex
  00027	84 c0		 test	 al, al
  00029	74 26		 je	 SHORT $LN9@AttachMode

; 303  : 		return;
; 304  : 	}
; 305  : 
; 306  : 	CGrannyLODController * pDstLODController = m_LODControllerVector[iDstModelInstance];
; 307  : 	CGrannyLODController * pSrcLODController = rSrcInstance.m_LODControllerVector[iSrcModelInstance];
; 308  : 	pDstLODController->AttachModelInstance(pSrcLODController, c_szBoneName);

  0002b	8b 4d fc	 mov	 ecx, DWORD PTR _this$1$[ebp]
  0002e	8b 83 88 02 00
	00		 mov	 eax, DWORD PTR [ebx+648]
  00034	ff 75 0c	 push	 DWORD PTR _c_szBoneName$[ebp]
  00037	8b 89 88 02 00
	00		 mov	 ecx, DWORD PTR [ecx+648]
  0003d	ff 34 b0	 push	 DWORD PTR [eax+esi*4]
  00040	8b 0c b9	 mov	 ecx, DWORD PTR [ecx+edi*4]
  00043	e8 00 00 00 00	 call	 ?AttachModelInstance@CGrannyLODController@@QAEXPAV1@PBD@Z ; CGrannyLODController::AttachModelInstance
  00048	5f		 pop	 edi

; 309  : }

  00049	5e		 pop	 esi
  0004a	5b		 pop	 ebx
  0004b	8b e5		 mov	 esp, ebp
  0004d	5d		 pop	 ebp
  0004e	c2 10 00	 ret	 16			; 00000010H
$LN9@AttachMode:

; 301  : 	{
; 302  : 		TraceError("CGraphicThingInstance::AttachModelInstance(iDstModelInstance=%d, c_szBoneName=%s, iSrcModelInstance=%d)", iDstModelInstance, c_szBoneName, iSrcModelInstance);

  00051	56		 push	 esi
  00052	ff 75 0c	 push	 DWORD PTR _c_szBoneName$[ebp]
  00055	57		 push	 edi
  00056	68 00 00 00 00	 push	 OFFSET ??_C@_0GI@OAKDPIDM@CGraphicThingInstance?3?3AttachMo@
  0005b	e8 00 00 00 00	 call	 ?TraceError@@YAXPBDZZ	; TraceError
  00060	83 c4 10	 add	 esp, 16			; 00000010H
  00063	5f		 pop	 edi

; 309  : }

  00064	5e		 pop	 esi
  00065	5b		 pop	 ebx
  00066	8b e5		 mov	 esp, ebp
  00068	5d		 pop	 ebp
  00069	c2 10 00	 ret	 16			; 00000010H
?AttachModelInstance@CGraphicThingInstance@@QAEXHPBDAAV1@H@Z ENDP ; CGraphicThingInstance::AttachModelInstance
_TEXT	ENDS
; Function compile flags: /Ogtp
; File C:\DS Project\DS Files\Source\ClientSource\Client\eterGrnLib\ThingInstance.cpp
; File C:\Program Files (x86)\Microsoft Visual Studio\2019\Community\VC\Tools\MSVC\14.27.29110\include\vector
; File C:\DS Project\DS Files\Source\ClientSource\Client\eterGrnLib\ThingInstance.cpp
;	COMDAT ?AttachModelInstance@CGraphicThingInstance@@QAEXHPBDH@Z
_TEXT	SEGMENT
_iDstModelInstance$ = 8					; size = 4
_c_szBoneName$ = 12					; size = 4
_iSrcModelInstance$ = 16				; size = 4
?AttachModelInstance@CGraphicThingInstance@@QAEXHPBDH@Z PROC ; CGraphicThingInstance::AttachModelInstance, COMDAT
; _this$ = ecx

; 276  : {

  00000	55		 push	 ebp
  00001	8b ec		 mov	 ebp, esp
  00003	53		 push	 ebx
  00004	56		 push	 esi
  00005	57		 push	 edi

; 277  : 	if (!CheckModelInstanceIndex(iSrcModelInstance))

  00006	8b 7d 10	 mov	 edi, DWORD PTR _iSrcModelInstance$[ebp]
  00009	8b d9		 mov	 ebx, ecx
  0000b	57		 push	 edi
  0000c	e8 00 00 00 00	 call	 ?CheckModelInstanceIndex@CGraphicThingInstance@@QAE_NH@Z ; CGraphicThingInstance::CheckModelInstanceIndex
  00011	8b 75 08	 mov	 esi, DWORD PTR _iDstModelInstance$[ebp]
  00014	84 c0		 test	 al, al
  00016	74 27		 je	 SHORT $LN9@AttachMode

; 278  : 	{
; 279  : 		TraceError("CGraphicThingInstance::AttachModelInstance(iDstModelInstance=%d, c_szBoneName=%s, iSrcModelInstance=%d)", iDstModelInstance, c_szBoneName, iSrcModelInstance);
; 280  : 		return;
; 281  : 	}
; 282  : 	if (!CheckModelInstanceIndex(iDstModelInstance))

  00018	56		 push	 esi
  00019	8b cb		 mov	 ecx, ebx
  0001b	e8 00 00 00 00	 call	 ?CheckModelInstanceIndex@CGraphicThingInstance@@QAE_NH@Z ; CGraphicThingInstance::CheckModelInstanceIndex
  00020	84 c0		 test	 al, al
  00022	74 1b		 je	 SHORT $LN9@AttachMode
; File C:\Program Files (x86)\Microsoft Visual Studio\2019\Community\VC\Tools\MSVC\14.27.29110\include\vector

; 1504 :         return _My_data._Myfirst[_Pos];

  00024	8b 8b 88 02 00
	00		 mov	 ecx, DWORD PTR [ebx+648]
; File C:\DS Project\DS Files\Source\ClientSource\Client\eterGrnLib\ThingInstance.cpp

; 290  : 	pDstLODController->AttachModelInstance(pSrcLODController, c_szBoneName);

  0002a	ff 75 0c	 push	 DWORD PTR _c_szBoneName$[ebp]
  0002d	ff 34 b9	 push	 DWORD PTR [ecx+edi*4]
  00030	8b 0c b1	 mov	 ecx, DWORD PTR [ecx+esi*4]
  00033	e8 00 00 00 00	 call	 ?AttachModelInstance@CGrannyLODController@@QAEXPAV1@PBD@Z ; CGrannyLODController::AttachModelInstance
  00038	5f		 pop	 edi

; 291  : }

  00039	5e		 pop	 esi
  0003a	5b		 pop	 ebx
  0003b	5d		 pop	 ebp
  0003c	c2 0c 00	 ret	 12			; 0000000cH
$LN9@AttachMode:

; 283  : 	{
; 284  : 		TraceError("CGraphicThingInstance::AttachModelInstance(iDstModelInstance=%d, c_szBoneName=%s, iSrcModelInstance=%d)", iDstModelInstance, c_szBoneName, iSrcModelInstance);

  0003f	57		 push	 edi
  00040	ff 75 0c	 push	 DWORD PTR _c_szBoneName$[ebp]
  00043	56		 push	 esi
  00044	68 00 00 00 00	 push	 OFFSET ??_C@_0GI@OAKDPIDM@CGraphicThingInstance?3?3AttachMo@
  00049	e8 00 00 00 00	 call	 ?TraceError@@YAXPBDZZ	; TraceError
  0004e	83 c4 10	 add	 esp, 16			; 00000010H
  00051	5f		 pop	 edi

; 291  : }

  00052	5e		 pop	 esi
  00053	5b		 pop	 ebx
  00054	5d		 pop	 ebp
  00055	c2 0c 00	 ret	 12			; 0000000cH
?AttachModelInstance@CGraphicThingInstance@@QAEXHPBDH@Z ENDP ; CGraphicThingInstance::AttachModelInstance
_TEXT	ENDS
; Function compile flags: /Ogtp
; File C:\DS Project\DS Files\Source\ClientSource\Client\eterGrnLib\ThingInstance.cpp
; File C:\Program Files (x86)\Microsoft Visual Studio\2019\Community\VC\Tools\MSVC\14.27.29110\include\algorithm
; File C:\DS Project\DS Files\Source\ClientSource\Client\eterGrnLib\ThingInstance.cpp
; File C:\Program Files (x86)\Microsoft Visual Studio\2019\Community\VC\Tools\MSVC\14.27.29110\include\vector
; File C:\Program Files (x86)\Microsoft Visual Studio\2019\Community\VC\Tools\MSVC\14.27.29110\include\algorithm
; File C:\DS Project\DS Files\Source\ClientSource\Client\eterBase\Stl.h
; File C:\Program Files (x86)\Microsoft Visual Studio\2019\Community\VC\Tools\MSVC\14.27.29110\include\algorithm
; File C:\DS Project\DS Files\Source\ClientSource\Client\eterGrnLib\ThingInstance.cpp
;	COMDAT ?SetMotionAtEnd@CGraphicThingInstance@@QAEXXZ
_TEXT	SEGMENT
?SetMotionAtEnd@CGraphicThingInstance@@QAEXXZ PROC	; CGraphicThingInstance::SetMotionAtEnd, COMDAT
; _this$ = ecx

; 55   : {

  00000	56		 push	 esi
; File C:\Program Files (x86)\Microsoft Visual Studio\2019\Community\VC\Tools\MSVC\14.27.29110\include\algorithm

; 235  :     for (; _UFirst != _ULast; ++_UFirst) {

  00001	8b b1 88 02 00
	00		 mov	 esi, DWORD PTR [ecx+648]
; File C:\DS Project\DS Files\Source\ClientSource\Client\eterGrnLib\ThingInstance.cpp

; 55   : {

  00007	57		 push	 edi
; File C:\Program Files (x86)\Microsoft Visual Studio\2019\Community\VC\Tools\MSVC\14.27.29110\include\vector

; 42   :     _Vector_const_iterator(_Tptr _Parg, const _Container_base* _Pvector) noexcept : _Ptr(_Parg) {

  00008	8b b9 8c 02 00
	00		 mov	 edi, DWORD PTR [ecx+652]
; File C:\Program Files (x86)\Microsoft Visual Studio\2019\Community\VC\Tools\MSVC\14.27.29110\include\algorithm

; 235  :     for (; _UFirst != _ULast; ++_UFirst) {

  0000e	3b f7		 cmp	 esi, edi
  00010	74 0e		 je	 SHORT $LN21@SetMotionA
$LL22@SetMotionA:
; File C:\DS Project\DS Files\Source\ClientSource\Client\eterBase\Stl.h

; 41   : 		{((_P->*_Ptr)()); }

  00012	8b 0e		 mov	 ecx, DWORD PTR [esi]
  00014	e8 00 00 00 00	 call	 ?SetMotionAtEnd@CGrannyLODController@@QAEXXZ ; CGrannyLODController::SetMotionAtEnd
; File C:\Program Files (x86)\Microsoft Visual Studio\2019\Community\VC\Tools\MSVC\14.27.29110\include\algorithm

; 235  :     for (; _UFirst != _ULast; ++_UFirst) {

  00019	83 c6 04	 add	 esi, 4
  0001c	3b f7		 cmp	 esi, edi
  0001e	75 f2		 jne	 SHORT $LL22@SetMotionA
$LN21@SetMotionA:
  00020	5f		 pop	 edi
; File C:\DS Project\DS Files\Source\ClientSource\Client\eterGrnLib\ThingInstance.cpp

; 57   : }

  00021	5e		 pop	 esi
  00022	c3		 ret	 0
?SetMotionAtEnd@CGraphicThingInstance@@QAEXXZ ENDP	; CGraphicThingInstance::SetMotionAtEnd
_TEXT	ENDS
; Function compile flags: /Ogtp
; File C:\DS Project\DS Files\Source\ClientSource\Client\eterGrnLib\ThingInstance.cpp
; File C:\Program Files (x86)\Microsoft Visual Studio\2019\Community\VC\Tools\MSVC\14.27.29110\include\vector
; File C:\DS Project\DS Files\Source\ClientSource\Client\eterGrnLib\ThingInstance.cpp
; File C:\Program Files (x86)\Microsoft Visual Studio\2019\Community\VC\Tools\MSVC\14.27.29110\include\algorithm
; File C:\DS Project\DS Files\Source\ClientSource\Client\eterGrnLib\LODController.h
; File C:\Program Files (x86)\Microsoft Visual Studio\2019\Community\VC\Tools\MSVC\14.27.29110\include\algorithm
; File C:\DS Project\DS Files\Source\ClientSource\Client\eterGrnLib\ThingInstance.cpp
;	COMDAT ?SetEndStopMotion@CGraphicThingInstance@@QAEXXZ
_TEXT	SEGMENT
?SetEndStopMotion@CGraphicThingInstance@@QAEXXZ PROC	; CGraphicThingInstance::SetEndStopMotion, COMDAT
; _this$ = ecx

; 505  : {

  00000	53		 push	 ebx
; File C:\Program Files (x86)\Microsoft Visual Studio\2019\Community\VC\Tools\MSVC\14.27.29110\include\vector

; 42   :     _Vector_const_iterator(_Tptr _Parg, const _Container_base* _Pvector) noexcept : _Ptr(_Parg) {

  00001	8b 99 8c 02 00
	00		 mov	 ebx, DWORD PTR [ecx+652]
; File C:\DS Project\DS Files\Source\ClientSource\Client\eterGrnLib\ThingInstance.cpp

; 505  : {

  00007	56		 push	 esi
; File C:\Program Files (x86)\Microsoft Visual Studio\2019\Community\VC\Tools\MSVC\14.27.29110\include\algorithm

; 235  :     for (; _UFirst != _ULast; ++_UFirst) {

  00008	8b b1 88 02 00
	00		 mov	 esi, DWORD PTR [ecx+648]
  0000e	3b f3		 cmp	 esi, ebx
  00010	74 1d		 je	 SHORT $LN17@SetEndStop
  00012	57		 push	 edi
$LL18@SetEndStop:

; 236  :         _Func(*_UFirst);

  00013	8b 3e		 mov	 edi, DWORD PTR [esi]
; File C:\DS Project\DS Files\Source\ClientSource\Client\eterGrnLib\LODController.h

; 219  : 				if (pController->isModelInstance())

  00015	8b cf		 mov	 ecx, edi
  00017	e8 00 00 00 00	 call	 ?isModelInstance@CGrannyLODController@@QAEHXZ ; CGrannyLODController::isModelInstance
  0001c	85 c0		 test	 eax, eax
  0001e	74 07		 je	 SHORT $LN16@SetEndStop

; 220  : 					pController->SetMotionAtEnd();

  00020	8b cf		 mov	 ecx, edi
  00022	e8 00 00 00 00	 call	 ?SetMotionAtEnd@CGrannyLODController@@QAEXXZ ; CGrannyLODController::SetMotionAtEnd
$LN16@SetEndStop:
; File C:\Program Files (x86)\Microsoft Visual Studio\2019\Community\VC\Tools\MSVC\14.27.29110\include\algorithm

; 235  :     for (; _UFirst != _ULast; ++_UFirst) {

  00027	83 c6 04	 add	 esi, 4
  0002a	3b f3		 cmp	 esi, ebx
  0002c	75 e5		 jne	 SHORT $LL18@SetEndStop
  0002e	5f		 pop	 edi
$LN17@SetEndStop:
  0002f	5e		 pop	 esi
; File C:\DS Project\DS Files\Source\ClientSource\Client\eterGrnLib\ThingInstance.cpp

; 507  : }

  00030	5b		 pop	 ebx
  00031	c3		 ret	 0
?SetEndStopMotion@CGraphicThingInstance@@QAEXXZ ENDP	; CGraphicThingInstance::SetEndStopMotion
_TEXT	ENDS
; Function compile flags: /Ogtp
; File C:\DS Project\DS Files\Source\ClientSource\Client\eterGrnLib\ThingInstance.cpp
; File C:\Program Files (x86)\Microsoft Visual Studio\2019\Community\VC\Tools\MSVC\14.27.29110\include\vector
; File C:\DS Project\DS Files\Source\ClientSource\Client\eterGrnLib\ThingInstance.cpp
; File C:\Program Files (x86)\Microsoft Visual Studio\2019\Community\VC\Tools\MSVC\14.27.29110\include\vector
; File C:\DS Project\DS Files\Source\ClientSource\Client\eterGrnLib\ThingInstance.cpp
; File C:\Program Files (x86)\Microsoft Visual Studio\2019\Community\VC\Tools\MSVC\14.27.29110\include\vector
; File C:\DS Project\DS Files\Source\ClientSource\Client\eterGrnLib\ThingInstance.cpp
; File C:\Program Files (x86)\Microsoft Visual Studio\2019\Community\VC\Tools\MSVC\14.27.29110\include\vector
; File C:\DS Project\DS Files\Source\ClientSource\Client\eterGrnLib\ThingInstance.cpp
; File C:\DS Project\DS Files\Source\ClientSource\Client\eterlib\Ref.h
; File C:\DS Project\DS Files\Source\ClientSource\Client\eterGrnLib\ThingInstance.cpp
; File C:\Program Files (x86)\Microsoft Visual Studio\2019\Community\VC\Tools\MSVC\14.27.29110\include\vector
; File C:\DS Project\DS Files\Source\ClientSource\Client\eterGrnLib\ThingInstance.cpp
; File C:\Program Files (x86)\Microsoft Visual Studio\2019\Community\VC\Tools\MSVC\14.27.29110\include\vector
; File C:\DS Project\DS Files\Source\ClientSource\Client\eterGrnLib\ThingInstance.cpp
;	COMDAT ?SetModelInstance@CGraphicThingInstance@@QAE_NHHHH@Z
_TEXT	SEGMENT
tv354 = -4						; size = 4
_pController$1$ = 8					; size = 4
_iDstModelInstance$ = 8					; size = 4
_iSrcModelThing$ = 12					; size = 4
_iSrcModel$ = 16					; size = 4
_iSkelInstance$ = 20					; size = 4
?SetModelInstance@CGraphicThingInstance@@QAE_NHHHH@Z PROC ; CGraphicThingInstance::SetModelInstance, COMDAT
; _this$ = ecx

; 346  : {

  00000	55		 push	 ebp
  00001	8b ec		 mov	 ebp, esp
  00003	51		 push	 ecx
  00004	56		 push	 esi
  00005	57		 push	 edi

; 347  : 	if (!CheckModelInstanceIndex(iDstModelInstance))

  00006	8b 7d 08	 mov	 edi, DWORD PTR _iDstModelInstance$[ebp]
  00009	8b f1		 mov	 esi, ecx
  0000b	57		 push	 edi
  0000c	e8 00 00 00 00	 call	 ?CheckModelInstanceIndex@CGraphicThingInstance@@QAE_NH@Z ; CGraphicThingInstance::CheckModelInstanceIndex
  00011	84 c0		 test	 al, al
  00013	0f 84 bf 00 00
	00		 je	 $LN32@SetModelIn

; 348  : 	{
; 349  : 		TraceError("CGraphicThingInstance::SetModelInstance(iDstModelInstance=%d, pModelThing=%d, iSrcModel=%d)\n", iDstModelInstance, iSrcModelThing, iSrcModel);
; 350  : 		return false;
; 351  : 	}
; 352  : 	if (!CheckModelThingIndex(iSrcModelThing))

  00019	ff 75 0c	 push	 DWORD PTR _iSrcModelThing$[ebp]
  0001c	8b ce		 mov	 ecx, esi
  0001e	e8 00 00 00 00	 call	 ?CheckModelThingIndex@CGraphicThingInstance@@QAE_NH@Z ; CGraphicThingInstance::CheckModelThingIndex
  00023	84 c0		 test	 al, al
  00025	0f 84 ad 00 00
	00		 je	 $LN32@SetModelIn
; File C:\Program Files (x86)\Microsoft Visual Studio\2019\Community\VC\Tools\MSVC\14.27.29110\include\vector

; 1504 :         return _My_data._Myfirst[_Pos];

  0002b	8b 86 88 02 00
	00		 mov	 eax, DWORD PTR [esi+648]
  00031	53		 push	 ebx
; File C:\DS Project\DS Files\Source\ClientSource\Client\eterGrnLib\ThingInstance.cpp

; 358  : 	CGrannyLODController * pController = m_LODControllerVector[iDstModelInstance];

  00032	8b 04 b8	 mov	 eax, DWORD PTR [eax+edi*4]
  00035	89 45 08	 mov	 DWORD PTR _pController$1$[ebp], eax

; 359  : 	if (!pController)

  00038	85 c0		 test	 eax, eax
  0003a	74 29		 je	 SHORT $LN28@SetModelIn

; 360  : 		return false;
; 361  : 
; 362  : 	// HAIR_LINK
; 363  : 	CGrannyLODController * pSkelController = NULL;
; 364  : 	if (iSkelInstance != DONTUSEVALUE)

  0003c	8b 5d 14	 mov	 ebx, DWORD PTR _iSkelInstance$[ebp]
  0003f	83 fb ff	 cmp	 ebx, -1
  00042	74 3b		 je	 SHORT $LN33@SetModelIn

; 365  : 	{
; 366  : 		if (!CheckModelInstanceIndex(iSkelInstance))

  00044	53		 push	 ebx
  00045	8b ce		 mov	 ecx, esi
  00047	e8 00 00 00 00	 call	 ?CheckModelInstanceIndex@CGraphicThingInstance@@QAE_NH@Z ; CGraphicThingInstance::CheckModelInstanceIndex
  0004c	84 c0		 test	 al, al
  0004e	75 20		 jne	 SHORT $LN9@SetModelIn

; 367  : 		{
; 368  : 			TraceError("CGraphicThingInstance::SetModelInstanceByOtherSkeletonInstance(iSkelInstance=%d, iDstModelInstance=%d, pModelThing=%d, iSrcModel=%d)\n", iSkelInstance, iDstModelInstance, iSrcModelThing, iSrcModel);

  00050	ff 75 10	 push	 DWORD PTR _iSrcModel$[ebp]
  00053	ff 75 0c	 push	 DWORD PTR _iSrcModelThing$[ebp]
  00056	57		 push	 edi
  00057	53		 push	 ebx
  00058	68 00 00 00 00	 push	 OFFSET ??_C@_0IG@CNBHAOPI@CGraphicThingInstance?3?3SetModel@
  0005d	e8 00 00 00 00	 call	 ?TraceError@@YAXPBDZZ	; TraceError
  00062	83 c4 14	 add	 esp, 20			; 00000014H
$LN28@SetModelIn:

; 369  : 			return false;

  00065	5b		 pop	 ebx
  00066	5f		 pop	 edi
  00067	32 c0		 xor	 al, al

; 390  : }

  00069	5e		 pop	 esi
  0006a	8b e5		 mov	 esp, ebp
  0006c	5d		 pop	 ebp
  0006d	c2 10 00	 ret	 16			; 00000010H
$LN9@SetModelIn:

; 370  : 		}
; 371  : 		pSkelController = m_LODControllerVector[iSkelInstance];

  00070	8b 86 88 02 00
	00		 mov	 eax, DWORD PTR [esi+648]
  00076	8b 1c 98	 mov	 ebx, DWORD PTR [eax+ebx*4]

; 372  : 		if (!pSkelController)

  00079	85 db		 test	 ebx, ebx
  0007b	74 e8		 je	 SHORT $LN28@SetModelIn

; 360  : 		return false;
; 361  : 
; 362  : 	// HAIR_LINK
; 363  : 	CGrannyLODController * pSkelController = NULL;
; 364  : 	if (iSkelInstance != DONTUSEVALUE)

  0007d	eb 02		 jmp	 SHORT $LN10@SetModelIn
$LN33@SetModelIn:
  0007f	33 db		 xor	 ebx, ebx
$LN10@SetModelIn:
; File C:\Program Files (x86)\Microsoft Visual Studio\2019\Community\VC\Tools\MSVC\14.27.29110\include\vector

; 1504 :         return _My_data._Myfirst[_Pos];

  00081	8b 45 0c	 mov	 eax, DWORD PTR _iSrcModelThing$[ebp]
  00084	8d 0c 40	 lea	 ecx, DWORD PTR [eax+eax*2]
  00087	8b 86 94 02 00
	00		 mov	 eax, DWORD PTR [esi+660]
  0008d	8d 3c 88	 lea	 edi, DWORD PTR [eax+ecx*4]
; File C:\DS Project\DS Files\Source\ClientSource\Client\eterGrnLib\ThingInstance.cpp

; 379  : 	pController->Clear();

  00090	8b 4d 08	 mov	 ecx, DWORD PTR _pController$1$[ebp]
  00093	e8 00 00 00 00	 call	 ?Clear@CGrannyLODController@@QAEXXZ ; CGrannyLODController::Clear
; File C:\Program Files (x86)\Microsoft Visual Studio\2019\Community\VC\Tools\MSVC\14.27.29110\include\vector

; 1484 :         return static_cast<size_type>(_My_data._Mylast - _My_data._Myfirst);

  00098	8b 47 04	 mov	 eax, DWORD PTR [edi+4]
; File C:\DS Project\DS Files\Source\ClientSource\Client\eterGrnLib\ThingInstance.cpp

; 382  : 	for (DWORD i = 0; i < rModelThingSet.m_pLODThingRefVector.size(); ++i)

  0009b	33 f6		 xor	 esi, esi
; File C:\Program Files (x86)\Microsoft Visual Studio\2019\Community\VC\Tools\MSVC\14.27.29110\include\vector

; 1484 :         return static_cast<size_type>(_My_data._Mylast - _My_data._Myfirst);

  0009d	8b 0f		 mov	 ecx, DWORD PTR [edi]
  0009f	2b c1		 sub	 eax, ecx
  000a1	c1 f8 02	 sar	 eax, 2
; File C:\DS Project\DS Files\Source\ClientSource\Client\eterGrnLib\ThingInstance.cpp

; 382  : 	for (DWORD i = 0; i < rModelThingSet.m_pLODThingRefVector.size(); ++i)

  000a4	85 c0		 test	 eax, eax
  000a6	74 25		 je	 SHORT $LN3@SetModelIn
$LL4@SetModelIn:
; File C:\DS Project\DS Files\Source\ClientSource\Client\eterlib\Ref.h

; 62   : 			return m_pObject == NULL ? true : false;

  000a8	8b 04 b1	 mov	 eax, DWORD PTR [ecx+esi*4]
  000ab	8b 00		 mov	 eax, DWORD PTR [eax]
  000ad	85 c0		 test	 eax, eax
; File C:\DS Project\DS Files\Source\ClientSource\Client\eterGrnLib\ThingInstance.cpp

; 384  : 		if (rModelThingSet.m_pLODThingRefVector[i]->IsNull())

  000af	74 b4		 je	 SHORT $LN28@SetModelIn

; 385  : 			return false;
; 386  : 
; 387  : 		pController->AddModel(rModelThingSet.m_pLODThingRefVector[i]->GetPointer(), iSrcModel, pSkelController);

  000b1	8b 4d 08	 mov	 ecx, DWORD PTR _pController$1$[ebp]
  000b4	53		 push	 ebx
  000b5	ff 75 10	 push	 DWORD PTR _iSrcModel$[ebp]
  000b8	50		 push	 eax
  000b9	e8 00 00 00 00	 call	 ?AddModel@CGrannyLODController@@QAEXPAVCGraphicThing@@HPAV1@@Z ; CGrannyLODController::AddModel
; File C:\Program Files (x86)\Microsoft Visual Studio\2019\Community\VC\Tools\MSVC\14.27.29110\include\vector

; 1484 :         return static_cast<size_type>(_My_data._Mylast - _My_data._Myfirst);

  000be	8b 47 04	 mov	 eax, DWORD PTR [edi+4]
; File C:\DS Project\DS Files\Source\ClientSource\Client\eterGrnLib\ThingInstance.cpp

; 382  : 	for (DWORD i = 0; i < rModelThingSet.m_pLODThingRefVector.size(); ++i)

  000c1	46		 inc	 esi
; File C:\Program Files (x86)\Microsoft Visual Studio\2019\Community\VC\Tools\MSVC\14.27.29110\include\vector

; 1484 :         return static_cast<size_type>(_My_data._Mylast - _My_data._Myfirst);

  000c2	8b 0f		 mov	 ecx, DWORD PTR [edi]
  000c4	2b c1		 sub	 eax, ecx
  000c6	c1 f8 02	 sar	 eax, 2
; File C:\DS Project\DS Files\Source\ClientSource\Client\eterGrnLib\ThingInstance.cpp

; 382  : 	for (DWORD i = 0; i < rModelThingSet.m_pLODThingRefVector.size(); ++i)

  000c9	3b f0		 cmp	 esi, eax
  000cb	72 db		 jb	 SHORT $LL4@SetModelIn
$LN3@SetModelIn:
  000cd	5b		 pop	 ebx
  000ce	5f		 pop	 edi

; 388  : 	}
; 389  : 	return true;

  000cf	b0 01		 mov	 al, 1

; 390  : }

  000d1	5e		 pop	 esi
  000d2	8b e5		 mov	 esp, ebp
  000d4	5d		 pop	 ebp
  000d5	c2 10 00	 ret	 16			; 00000010H
$LN32@SetModelIn:

; 353  : 	{
; 354  : 		TraceError("CGraphicThingInstance::SetModelInstance(iDstModelInstance=%d, pModelThing=%d, iSrcModel=%d)\n", iDstModelInstance, iSrcModelThing, iSrcModel);

  000d8	ff 75 10	 push	 DWORD PTR _iSrcModel$[ebp]
  000db	ff 75 0c	 push	 DWORD PTR _iSrcModelThing$[ebp]
  000de	57		 push	 edi
  000df	68 00 00 00 00	 push	 OFFSET ??_C@_0FN@FDKPIIBK@CGraphicThingInstance?3?3SetModel@
  000e4	e8 00 00 00 00	 call	 ?TraceError@@YAXPBDZZ	; TraceError
  000e9	83 c4 10	 add	 esp, 16			; 00000010H

; 355  : 		return false;

  000ec	32 c0		 xor	 al, al
  000ee	5f		 pop	 edi

; 390  : }

  000ef	5e		 pop	 esi
  000f0	8b e5		 mov	 esp, ebp
  000f2	5d		 pop	 ebp
  000f3	c2 10 00	 ret	 16			; 00000010H
?SetModelInstance@CGraphicThingInstance@@QAE_NHHHH@Z ENDP ; CGraphicThingInstance::SetModelInstance
_TEXT	ENDS
; Function compile flags: /Ogtp
; File C:\DS Project\DS Files\Source\ClientSource\Client\eterGrnLib\ThingInstance.cpp
; File C:\DS Project\DS Files\Source\ClientSource\Client\eterlib\Ref.h
; File C:\DS Project\DS Files\Source\ClientSource\Client\eterGrnLib\ThingInstance.cpp
; File C:\DS Project\DS Files\Source\ClientSource\Client\eterlib\Ref.h
; File C:\Program Files (x86)\Microsoft Visual Studio\2019\Community\VC\Tools\MSVC\14.27.29110\include\utility
; File C:\Program Files (x86)\Microsoft Visual Studio\2019\Community\VC\Tools\MSVC\14.27.29110\include\xtree
; File C:\Program Files (x86)\Microsoft Visual Studio\2019\Community\VC\Tools\MSVC\14.27.29110\include\utility
; File C:\DS Project\DS Files\Source\ClientSource\Client\eterGrnLib\ThingInstance.cpp
; File C:\Program Files (x86)\Microsoft Visual Studio\2019\Community\VC\Tools\MSVC\14.27.29110\include\utility
; File C:\Program Files (x86)\Microsoft Visual Studio\2019\Community\VC\Tools\MSVC\14.27.29110\include\xtree
; File C:\Program Files (x86)\Microsoft Visual Studio\2019\Community\VC\Tools\MSVC\14.27.29110\include\xstddef
; File C:\Program Files (x86)\Microsoft Visual Studio\2019\Community\VC\Tools\MSVC\14.27.29110\include\xtree
; File C:\Program Files (x86)\Microsoft Visual Studio\2019\Community\VC\Tools\MSVC\14.27.29110\include\xmemory
; File C:\Program Files (x86)\Microsoft Visual Studio\2019\Community\VC\Tools\MSVC\14.27.29110\include\xtree
; File C:\Program Files (x86)\Microsoft Visual Studio\2019\Community\VC\Tools\MSVC\14.27.29110\include\xmemory
; File C:\Program Files (x86)\Microsoft Visual Studio\2019\Community\VC\Tools\MSVC\14.27.29110\include\xtree
; File C:\DS Project\DS Files\Source\ClientSource\Client\eterGrnLib\ThingInstance.cpp
; File C:\Program Files (x86)\Microsoft Visual Studio\2019\Community\VC\Tools\MSVC\14.27.29110\include\xtree
; File C:\DS Project\DS Files\Source\ClientSource\Client\eterGrnLib\ThingInstance.cpp
;	COMDAT ?RegisterMotionThing@CGraphicThingInstance@@QAEXKPAVCGraphicThing@@@Z
_TEXT	SEGMENT
$T2 = -44						; size = 12
__Loc$3 = -32						; size = 12
$T4 = -20						; size = 8
$T5 = -20						; size = 8
$T6 = -16						; size = 4
__$EHRec$ = -12						; size = 12
_dwMotionKey$ = 8					; size = 4
__Myhead$7 = 12						; size = 4
_pMotionThing$ = 12					; size = 4
?RegisterMotionThing@CGraphicThingInstance@@QAEXKPAVCGraphicThing@@@Z PROC ; CGraphicThingInstance::RegisterMotionThing, COMDAT
; _this$ = ecx

; 532  : {

  00000	55		 push	 ebp
  00001	8b ec		 mov	 ebp, esp
  00003	6a ff		 push	 -1
  00005	68 00 00 00 00	 push	 __ehhandler$?RegisterMotionThing@CGraphicThingInstance@@QAEXKPAVCGraphicThing@@@Z
  0000a	64 a1 00 00 00
	00		 mov	 eax, DWORD PTR fs:0
  00010	50		 push	 eax
  00011	83 ec 20	 sub	 esp, 32			; 00000020H
  00014	53		 push	 ebx
  00015	56		 push	 esi
  00016	57		 push	 edi
  00017	a1 00 00 00 00	 mov	 eax, DWORD PTR ___security_cookie
  0001c	33 c5		 xor	 eax, ebp
  0001e	50		 push	 eax
  0001f	8d 45 f4	 lea	 eax, DWORD PTR __$EHRec$[ebp]
  00022	64 a3 00 00 00
	00		 mov	 DWORD PTR fs:0, eax
  00028	8b d9		 mov	 ebx, ecx

; 533  : 	CGraphicThing::TRef * pMotionRef = new CGraphicThing::TRef;

  0002a	6a 04		 push	 4
  0002c	e8 00 00 00 00	 call	 ??2@YAPAXI@Z		; operator new
  00031	8b f8		 mov	 edi, eax
  00033	83 c4 04	 add	 esp, 4
  00036	89 7d f0	 mov	 DWORD PTR $T6[ebp], edi
  00039	85 ff		 test	 edi, edi
  0003b	74 08		 je	 SHORT $LN3@RegisterMo
; File C:\DS Project\DS Files\Source\ClientSource\Client\eterlib\Ref.h

; 20   : 		CRef() : m_pObject(NULL)

  0003d	c7 07 00 00 00
	00		 mov	 DWORD PTR [edi], 0
; File C:\DS Project\DS Files\Source\ClientSource\Client\eterGrnLib\ThingInstance.cpp

; 533  : 	CGraphicThing::TRef * pMotionRef = new CGraphicThing::TRef;

  00043	eb 02		 jmp	 SHORT $LN4@RegisterMo
$LN3@RegisterMo:
  00045	33 ff		 xor	 edi, edi
$LN4@RegisterMo:
; File C:\DS Project\DS Files\Source\ClientSource\Client\eterlib\Ref.h

; 69   : 			m_pObject = pObject;

  00047	8b 4d 0c	 mov	 ecx, DWORD PTR _pMotionThing$[ebp]
  0004a	8b 37		 mov	 esi, DWORD PTR [edi]
  0004c	89 0f		 mov	 DWORD PTR [edi], ecx

; 70   : 
; 71   : 			if (m_pObject)

  0004e	85 c9		 test	 ecx, ecx
  00050	74 05		 je	 SHORT $LN9@RegisterMo

; 72   : 				m_pObject->AddReference();

  00052	e8 00 00 00 00	 call	 ?AddReference@CReferenceObject@@QAEXXZ ; CReferenceObject::AddReference
$LN9@RegisterMo:

; 73   : 
; 74   : 			if (pOldObject)

  00057	85 f6		 test	 esi, esi
  00059	74 07		 je	 SHORT $LN10@RegisterMo

; 75   : 				pOldObject->Release();

  0005b	8b ce		 mov	 ecx, esi
  0005d	e8 00 00 00 00	 call	 ?Release@CReferenceObject@@QAEXXZ ; CReferenceObject::Release
$LN10@RegisterMo:
; File C:\Program Files (x86)\Microsoft Visual Studio\2019\Community\VC\Tools\MSVC\14.27.29110\include\utility

; 192  :         : first(_STD forward<_Other1>(_Val1)), second(_STD forward<_Other2>(_Val2)) {}

  00062	8b 75 08	 mov	 esi, DWORD PTR _dwMotionKey$[ebp]
; File C:\Program Files (x86)\Microsoft Visual Studio\2019\Community\VC\Tools\MSVC\14.27.29110\include\xtree

; 1009 :             _Loc                = _Find_lower_bound(_Keyval);

  00065	8d 45 ec	 lea	 eax, DWORD PTR $T5[ebp]
  00068	50		 push	 eax
  00069	8d 45 d4	 lea	 eax, DWORD PTR $T2[ebp]
; File C:\Program Files (x86)\Microsoft Visual Studio\2019\Community\VC\Tools\MSVC\14.27.29110\include\utility

; 192  :         : first(_STD forward<_Other1>(_Val1)), second(_STD forward<_Other2>(_Val2)) {}

  0006c	89 75 ec	 mov	 DWORD PTR $T5[ebp], esi
; File C:\DS Project\DS Files\Source\ClientSource\Client\eterGrnLib\ThingInstance.cpp

; 535  : 	m_roMotionThingMap.insert(std::map<DWORD, CGraphicThing::TRef *>::value_type(dwMotionKey, pMotionRef));

  0006f	81 c3 a0 02 00
	00		 add	 ebx, 672		; 000002a0H
; File C:\Program Files (x86)\Microsoft Visual Studio\2019\Community\VC\Tools\MSVC\14.27.29110\include\utility

; 192  :         : first(_STD forward<_Other1>(_Val1)), second(_STD forward<_Other2>(_Val2)) {}

  00075	89 7d f0	 mov	 DWORD PTR $T5[ebp+4], edi
; File C:\Program Files (x86)\Microsoft Visual Studio\2019\Community\VC\Tools\MSVC\14.27.29110\include\xtree

; 1009 :             _Loc                = _Find_lower_bound(_Keyval);

  00078	50		 push	 eax
  00079	8b cb		 mov	 ecx, ebx
  0007b	e8 00 00 00 00	 call	 ??$_Find_lower_bound@K@?$_Tree@V?$_Tmap_traits@KPAV?$CRef@VCGraphicThing@@@@U?$less@K@std@@V?$allocator@U?$pair@$$CBKPAV?$CRef@VCGraphicThing@@@@@std@@@3@$0A@@std@@@std@@IBE?AU?$_Tree_find_result@PAU?$_Tree_node@U?$pair@$$CBKPAV?$CRef@VCGraphicThing@@@@@std@@PAX@std@@@1@ABK@Z ; std::_Tree<std::_Tmap_traits<unsigned long,CRef<CGraphicThing> *,std::less<unsigned long>,std::allocator<std::pair<unsigned long const ,CRef<CGraphicThing> *> >,0> >::_Find_lower_bound<unsigned long>
  00080	f3 0f 7e 00	 movq	 xmm0, QWORD PTR [eax]
  00084	8b 40 08	 mov	 eax, DWORD PTR [eax+8]
  00087	66 0f d6 45 e0	 movq	 QWORD PTR __Loc$3[ebp], xmm0

; 1695 :         return !_Bound->_Isnil && !_DEBUG_LT_PRED(_Getcomp(), _Keyval, _Traits::_Kfn(_Bound->_Myval));

  0008c	80 78 0d 00	 cmp	 BYTE PTR [eax+13], 0
  00090	75 05		 jne	 SHORT $LN22@RegisterMo
; File C:\Program Files (x86)\Microsoft Visual Studio\2019\Community\VC\Tools\MSVC\14.27.29110\include\xstddef

; 127  :         return _Left < _Right;

  00092	3b 70 10	 cmp	 esi, DWORD PTR [eax+16]
; File C:\Program Files (x86)\Microsoft Visual Studio\2019\Community\VC\Tools\MSVC\14.27.29110\include\xtree

; 1695 :         return !_Bound->_Isnil && !_DEBUG_LT_PRED(_Getcomp(), _Keyval, _Traits::_Kfn(_Bound->_Myval));

  00095	73 6c		 jae	 SHORT $LN68@RegisterMo
$LN22@RegisterMo:

; 1719 :         if (max_size() == _Get_scary()->_Mysize) {

  00097	81 7b 04 aa aa
	aa 0a		 cmp	 DWORD PTR [ebx+4], 178956970 ; 0aaaaaaaH
  0009e	74 77		 je	 SHORT $LN83@RegisterMo

; 1015 :             _Inserted = _Tree_temp_node<_Alnode>(_Getal(), _Scary->_Myhead, _STD forward<_Valtys>(_Vals)...)._Release();

  000a0	8b 03		 mov	 eax, DWORD PTR [ebx]
  000a2	89 45 0c	 mov	 DWORD PTR __Myhead$7[ebp], eax
; File C:\Program Files (x86)\Microsoft Visual Studio\2019\Community\VC\Tools\MSVC\14.27.29110\include\xmemory

; 1040 :     explicit _Alloc_construct_ptr(_Alloc& _Al_) : _Al(_Al_), _Ptr(nullptr) {}

  000a5	89 5d ec	 mov	 DWORD PTR $T4[ebp], ebx

; 807  :         return static_cast<_Ty*>(_Allocate<_New_alignof<_Ty>>(_Get_size_of_n<sizeof(_Ty)>(_Count)));

  000a8	6a 18		 push	 24			; 00000018H
; File C:\Program Files (x86)\Microsoft Visual Studio\2019\Community\VC\Tools\MSVC\14.27.29110\include\xtree

; 784  :     explicit _Tree_temp_node_alloc(_Alnode& _Al_) : _Alloc_construct_ptr<_Alnode>(_Al_) {

  000aa	c7 45 fc 00 00
	00 00		 mov	 DWORD PTR __$EHRec$[ebp+8], 0
; File C:\Program Files (x86)\Microsoft Visual Studio\2019\Community\VC\Tools\MSVC\14.27.29110\include\xmemory

; 1047 :         _Ptr = nullptr; // if allocate throws, prevents double-free

  000b1	c7 45 f0 00 00
	00 00		 mov	 DWORD PTR $T4[ebp+4], 0

; 807  :         return static_cast<_Ty*>(_Allocate<_New_alignof<_Ty>>(_Get_size_of_n<sizeof(_Ty)>(_Count)));

  000b8	e8 00 00 00 00	 call	 ??$_Allocate@$07U_Default_allocate_traits@std@@$0A@@std@@YAPAXI@Z ; std::_Allocate<8,std::_Default_allocate_traits,0>

; 1048 :         _Ptr = _Al.allocate(1);

  000bd	8b f0		 mov	 esi, eax
; File C:\Program Files (x86)\Microsoft Visual Studio\2019\Community\VC\Tools\MSVC\14.27.29110\include\xtree

; 806  :         _Alnode_traits::construct(this->_Al, _STD addressof(this->_Ptr->_Myval), _STD forward<_Valtys>(_Vals)...);

  000bf	8b 45 08	 mov	 eax, DWORD PTR _dwMotionKey$[ebp]
  000c2	89 46 10	 mov	 DWORD PTR [esi+16], eax

; 807  :         _Construct_in_place(this->_Ptr->_Left, _Myhead);

  000c5	8d 45 0c	 lea	 eax, DWORD PTR __Myhead$7[ebp]
  000c8	50		 push	 eax
  000c9	56		 push	 esi
  000ca	89 7e 14	 mov	 DWORD PTR [esi+20], edi
  000cd	e8 00 00 00 00	 call	 ??$_Construct_in_place@PAU?$_Tree_node@U?$pair@$$CBKPAV?$CRef@VCGraphicThing@@@@@std@@PAX@std@@AAPAU12@@std@@YAXAAPAU?$_Tree_node@U?$pair@$$CBKPAV?$CRef@VCGraphicThing@@@@@std@@PAX@0@0@Z ; std::_Construct_in_place<std::_Tree_node<std::pair<unsigned long const ,CRef<CGraphicThing> *>,void *> *,std::_Tree_node<std::pair<unsigned long const ,CRef<CGraphicThing> *>,void *> * &>

; 808  :         _Construct_in_place(this->_Ptr->_Parent, _Myhead);

  000d2	8d 45 0c	 lea	 eax, DWORD PTR __Myhead$7[ebp]
  000d5	50		 push	 eax
  000d6	8d 46 04	 lea	 eax, DWORD PTR [esi+4]
  000d9	50		 push	 eax
  000da	e8 00 00 00 00	 call	 ??$_Construct_in_place@PAU?$_Tree_node@U?$pair@$$CBKPAV?$CRef@VCGraphicThing@@@@@std@@PAX@std@@AAPAU12@@std@@YAXAAPAU?$_Tree_node@U?$pair@$$CBKPAV?$CRef@VCGraphicThing@@@@@std@@PAX@0@0@Z ; std::_Construct_in_place<std::_Tree_node<std::pair<unsigned long const ,CRef<CGraphicThing> *>,void *> *,std::_Tree_node<std::pair<unsigned long const ,CRef<CGraphicThing> *>,void *> * &>

; 809  :         _Construct_in_place(this->_Ptr->_Right, _Myhead);

  000df	8d 45 0c	 lea	 eax, DWORD PTR __Myhead$7[ebp]
  000e2	50		 push	 eax
  000e3	8d 46 08	 lea	 eax, DWORD PTR [esi+8]
  000e6	50		 push	 eax
  000e7	e8 00 00 00 00	 call	 ??$_Construct_in_place@PAU?$_Tree_node@U?$pair@$$CBKPAV?$CRef@VCGraphicThing@@@@@std@@PAX@std@@AAPAU12@@std@@YAXAAPAU?$_Tree_node@U?$pair@$$CBKPAV?$CRef@VCGraphicThing@@@@@std@@PAX@0@0@Z ; std::_Construct_in_place<std::_Tree_node<std::pair<unsigned long const ,CRef<CGraphicThing> *>,void *> *,std::_Tree_node<std::pair<unsigned long const ,CRef<CGraphicThing> *>,void *> * &>
  000ec	83 c4 1c	 add	 esp, 28			; 0000001cH

; 810  :         this->_Ptr->_Color = _Red;

  000ef	66 c7 46 0c 00
	00		 mov	 WORD PTR [esi+12], 0

; 1034 :         return {_Scary->_Insert_node(_Loc._Location, _Inserted), true};

  000f5	8b cb		 mov	 ecx, ebx
  000f7	56		 push	 esi
  000f8	ff 75 e4	 push	 DWORD PTR __Loc$3[ebp+4]
  000fb	ff 75 e0	 push	 DWORD PTR __Loc$3[ebp]
  000fe	e8 00 00 00 00	 call	 ?_Insert_node@?$_Tree_val@U?$_Tree_simple_types@U?$pair@$$CBKPAV?$CRef@VCGraphicThing@@@@@std@@@std@@@std@@QAEPAU?$_Tree_node@U?$pair@$$CBKPAV?$CRef@VCGraphicThing@@@@@std@@PAX@2@U?$_Tree_id@PAU?$_Tree_node@U?$pair@$$CBKPAV?$CRef@VCGraphicThing@@@@@std@@PAX@std@@@2@QAU32@@Z ; std::_Tree_val<std::_Tree_simple_types<std::pair<unsigned long const ,CRef<CGraphicThing> *> > >::_Insert_node
$LN68@RegisterMo:
; File C:\DS Project\DS Files\Source\ClientSource\Client\eterGrnLib\ThingInstance.cpp

; 536  : }

  00103	8b 4d f4	 mov	 ecx, DWORD PTR __$EHRec$[ebp]
  00106	64 89 0d 00 00
	00 00		 mov	 DWORD PTR fs:0, ecx
  0010d	59		 pop	 ecx
  0010e	5f		 pop	 edi
  0010f	5e		 pop	 esi
  00110	5b		 pop	 ebx
  00111	8b e5		 mov	 esp, ebp
  00113	5d		 pop	 ebp
  00114	c2 08 00	 ret	 8
$LN83@RegisterMo:
; File C:\Program Files (x86)\Microsoft Visual Studio\2019\Community\VC\Tools\MSVC\14.27.29110\include\xtree

; 1720 :             _Throw_tree_length_error();

  00117	e8 00 00 00 00	 call	 ?_Throw_tree_length_error@std@@YAXXZ ; std::_Throw_tree_length_error
$LN81@RegisterMo:
  0011c	cc		 int	 3
_TEXT	ENDS
;	COMDAT text$x
text$x	SEGMENT
__unwindfunclet$?RegisterMotionThing@CGraphicThingInstance@@QAEXKPAVCGraphicThing@@@Z$3:
  00000	8d 4d ec	 lea	 ecx, DWORD PTR $T4[ebp]
  00003	e9 00 00 00 00	 jmp	 ??1?$_Alloc_construct_ptr@V?$allocator@U?$_Tree_node@U?$pair@$$CBKPAV?$CRef@VCGraphicThing@@@@@std@@PAX@std@@@std@@@std@@QAE@XZ ; std::_Alloc_construct_ptr<std::allocator<std::_Tree_node<std::pair<unsigned long const ,CRef<CGraphicThing> *>,void *> > >::~_Alloc_construct_ptr<std::allocator<std::_Tree_node<std::pair<unsigned long const ,CRef<CGraphicThing> *>,void *> > >
  00008	cc		 int	 3
  00009	cc		 int	 3
  0000a	cc		 int	 3
  0000b	cc		 int	 3
  0000c	cc		 int	 3
__ehhandler$?RegisterMotionThing@CGraphicThingInstance@@QAEXKPAVCGraphicThing@@@Z:
  0000d	90		 npad	 1
  0000e	90		 npad	 1
  0000f	8b 54 24 08	 mov	 edx, DWORD PTR [esp+8]
  00013	8d 42 0c	 lea	 eax, DWORD PTR [edx+12]
  00016	8b 4a d0	 mov	 ecx, DWORD PTR [edx-48]
  00019	33 c8		 xor	 ecx, eax
  0001b	e8 00 00 00 00	 call	 @__security_check_cookie@4
  00020	b8 00 00 00 00	 mov	 eax, OFFSET __ehfuncinfo$?RegisterMotionThing@CGraphicThingInstance@@QAEXKPAVCGraphicThing@@@Z
  00025	e9 00 00 00 00	 jmp	 ___CxxFrameHandler3
text$x	ENDS
?RegisterMotionThing@CGraphicThingInstance@@QAEXKPAVCGraphicThing@@@Z ENDP ; CGraphicThingInstance::RegisterMotionThing
; Function compile flags: /Ogtp
; File C:\DS Project\DS Files\Source\ClientSource\Client\eterGrnLib\ThingInstance.cpp
; File C:\DS Project\DS Files\Source\ClientSource\Client\eterlib\Ref.h
; File C:\DS Project\DS Files\Source\ClientSource\Client\eterGrnLib\ThingInstance.cpp
; File C:\DS Project\DS Files\Source\ClientSource\Client\eterlib\Ref.h
; File C:\DS Project\DS Files\Source\ClientSource\Client\eterGrnLib\ThingInstance.cpp
; File C:\DS Project\DS Files\Source\ClientSource\Client\eterlib\Ref.h
; File C:\Program Files (x86)\Microsoft Visual Studio\2019\Community\VC\Tools\MSVC\14.27.29110\include\vector
; File C:\DS Project\DS Files\Source\ClientSource\Client\eterGrnLib\ThingInstance.cpp
; File C:\Program Files (x86)\Microsoft Visual Studio\2019\Community\VC\Tools\MSVC\14.27.29110\include\vector
; File C:\DS Project\DS Files\Source\ClientSource\Client\eterGrnLib\ThingInstance.cpp
;	COMDAT ?RegisterLODThing@CGraphicThingInstance@@QAEXHPAVCGraphicThing@@@Z
_TEXT	SEGMENT
$T1 = -4						; size = 4
_pModelRef$ = -4					; size = 4
_iModelThing$ = 8					; size = 4
_pModelThing$ = 12					; size = 4
?RegisterLODThing@CGraphicThingInstance@@QAEXHPAVCGraphicThing@@@Z PROC ; CGraphicThingInstance::RegisterLODThing, COMDAT
; _this$ = ecx

; 524  : {

  00000	55		 push	 ebp
  00001	8b ec		 mov	 ebp, esp
  00003	51		 push	 ecx
  00004	53		 push	 ebx
  00005	56		 push	 esi
  00006	57		 push	 edi

; 526  : 	CGraphicThing::TRef * pModelRef = new CGraphicThing::TRef;

  00007	6a 04		 push	 4
  00009	8b d9		 mov	 ebx, ecx
  0000b	e8 00 00 00 00	 call	 ??2@YAPAXI@Z		; operator new
  00010	8b f0		 mov	 esi, eax
  00012	83 c4 04	 add	 esp, 4
  00015	89 75 fc	 mov	 DWORD PTR $T1[ebp], esi
  00018	85 f6		 test	 esi, esi
  0001a	74 08		 je	 SHORT $LN3@RegisterLO
; File C:\DS Project\DS Files\Source\ClientSource\Client\eterlib\Ref.h

; 20   : 		CRef() : m_pObject(NULL)

  0001c	c7 06 00 00 00
	00		 mov	 DWORD PTR [esi], 0
; File C:\DS Project\DS Files\Source\ClientSource\Client\eterGrnLib\ThingInstance.cpp

; 526  : 	CGraphicThing::TRef * pModelRef = new CGraphicThing::TRef;

  00022	eb 02		 jmp	 SHORT $LN4@RegisterLO
$LN3@RegisterLO:
  00024	33 f6		 xor	 esi, esi
$LN4@RegisterLO:
; File C:\DS Project\DS Files\Source\ClientSource\Client\eterlib\Ref.h

; 69   : 			m_pObject = pObject;

  00026	8b 4d 0c	 mov	 ecx, DWORD PTR _pModelThing$[ebp]
  00029	8b 3e		 mov	 edi, DWORD PTR [esi]
; File C:\DS Project\DS Files\Source\ClientSource\Client\eterGrnLib\ThingInstance.cpp

; 526  : 	CGraphicThing::TRef * pModelRef = new CGraphicThing::TRef;

  0002b	89 75 fc	 mov	 DWORD PTR _pModelRef$[ebp], esi
; File C:\DS Project\DS Files\Source\ClientSource\Client\eterlib\Ref.h

; 69   : 			m_pObject = pObject;

  0002e	89 0e		 mov	 DWORD PTR [esi], ecx

; 70   : 
; 71   : 			if (m_pObject)

  00030	85 c9		 test	 ecx, ecx
  00032	74 05		 je	 SHORT $LN9@RegisterLO

; 72   : 				m_pObject->AddReference();

  00034	e8 00 00 00 00	 call	 ?AddReference@CReferenceObject@@QAEXXZ ; CReferenceObject::AddReference
$LN9@RegisterLO:

; 73   : 
; 74   : 			if (pOldObject)

  00039	85 ff		 test	 edi, edi
  0003b	74 07		 je	 SHORT $LN10@RegisterLO

; 75   : 				pOldObject->Release();

  0003d	8b cf		 mov	 ecx, edi
  0003f	e8 00 00 00 00	 call	 ?Release@CReferenceObject@@QAEXXZ ; CReferenceObject::Release
$LN10@RegisterLO:
; File C:\Program Files (x86)\Microsoft Visual Studio\2019\Community\VC\Tools\MSVC\14.27.29110\include\vector

; 1504 :         return _My_data._Myfirst[_Pos];

  00044	8b 45 08	 mov	 eax, DWORD PTR _iModelThing$[ebp]
  00047	8d 0c 40	 lea	 ecx, DWORD PTR [eax+eax*2]
  0004a	8b 83 94 02 00
	00		 mov	 eax, DWORD PTR [ebx+660]
  00050	8d 0c 88	 lea	 ecx, DWORD PTR [eax+ecx*4]

; 704  :         if (_Mylast != _My_data._Myend) {

  00053	8b 41 04	 mov	 eax, DWORD PTR [ecx+4]
  00056	3b 41 08	 cmp	 eax, DWORD PTR [ecx+8]
  00059	74 0f		 je	 SHORT $LN17@RegisterLO
  0005b	5f		 pop	 edi

; 687  :         _Alty_traits::construct(_Getal(), _Unfancy(_Mylast), _STD forward<_Valty>(_Val)...);

  0005c	89 30		 mov	 DWORD PTR [eax], esi

; 688  :         _Orphan_range(_Mylast, _Mylast);
; 689  :         _Ty& _Result = *_Mylast;
; 690  :         ++_Mylast;

  0005e	83 41 04 04	 add	 DWORD PTR [ecx+4], 4
; File C:\DS Project\DS Files\Source\ClientSource\Client\eterGrnLib\ThingInstance.cpp

; 529  : }

  00062	5e		 pop	 esi
  00063	5b		 pop	 ebx
  00064	8b e5		 mov	 esp, ebp
  00066	5d		 pop	 ebp
  00067	c2 08 00	 ret	 8
$LN17@RegisterLO:
; File C:\Program Files (x86)\Microsoft Visual Studio\2019\Community\VC\Tools\MSVC\14.27.29110\include\vector

; 708  :         _Ty& _Result = *_Emplace_reallocate(_Mylast, _STD forward<_Valty>(_Val)...);

  0006a	8d 55 fc	 lea	 edx, DWORD PTR _pModelRef$[ebp]
  0006d	52		 push	 edx
  0006e	50		 push	 eax
  0006f	e8 00 00 00 00	 call	 ??$_Emplace_reallocate@ABQAV?$CRef@VCGraphicThing@@@@@?$vector@PAV?$CRef@VCGraphicThing@@@@V?$allocator@PAV?$CRef@VCGraphicThing@@@@@std@@@std@@QAEPAPAV?$CRef@VCGraphicThing@@@@QAPAV2@ABQAV2@@Z ; std::vector<CRef<CGraphicThing> *,std::allocator<CRef<CGraphicThing> *> >::_Emplace_reallocate<CRef<CGraphicThing> * const &>
  00074	5f		 pop	 edi
; File C:\DS Project\DS Files\Source\ClientSource\Client\eterGrnLib\ThingInstance.cpp

; 529  : }

  00075	5e		 pop	 esi
  00076	5b		 pop	 ebx
  00077	8b e5		 mov	 esp, ebp
  00079	5d		 pop	 ebp
  0007a	c2 08 00	 ret	 8
?RegisterLODThing@CGraphicThingInstance@@QAEXHPAVCGraphicThing@@@Z ENDP ; CGraphicThingInstance::RegisterLODThing
_TEXT	ENDS
; Function compile flags: /Ogtp
; File C:\DS Project\DS Files\Source\ClientSource\Client\eterGrnLib\ThingInstance.cpp
; File C:\Program Files (x86)\Microsoft Visual Studio\2019\Community\VC\Tools\MSVC\14.27.29110\include\xstring
; File C:\DS Project\DS Files\Source\ClientSource\Client\eterGrnLib\ThingInstance.cpp
; File C:\Program Files (x86)\Microsoft Visual Studio\2019\Community\VC\Tools\MSVC\14.27.29110\include\vector
; File C:\DS Project\DS Files\Source\ClientSource\Client\eterGrnLib\ThingInstance.cpp
;	COMDAT ?RegisterModelThing@CGraphicThingInstance@@QAEXHPAVCGraphicThing@@@Z
_TEXT	SEGMENT
_iModelThing$ = 8					; size = 4
_pModelThing$ = 12					; size = 4
?RegisterModelThing@CGraphicThingInstance@@QAEXHPAVCGraphicThing@@@Z PROC ; CGraphicThingInstance::RegisterModelThing, COMDAT
; _this$ = ecx

; 510  : {

  00000	55		 push	 ebp
  00001	8b ec		 mov	 ebp, esp
  00003	56		 push	 esi

; 511  : 	if (!CheckModelThingIndex(iModelThing))

  00004	8b 75 08	 mov	 esi, DWORD PTR _iModelThing$[ebp]
  00007	57		 push	 edi
  00008	56		 push	 esi
  00009	8b f9		 mov	 edi, ecx
  0000b	e8 00 00 00 00	 call	 ?CheckModelThingIndex@CGraphicThingInstance@@QAE_NH@Z ; CGraphicThingInstance::CheckModelThingIndex
  00010	84 c0		 test	 al, al
  00012	75 23		 jne	 SHORT $LN2@RegisterMo
; File C:\Program Files (x86)\Microsoft Visual Studio\2019\Community\VC\Tools\MSVC\14.27.29110\include\xstring

; 3668 :         return _Mypair._Myval2._Myptr();

  00014	8b 45 0c	 mov	 eax, DWORD PTR _pModelThing$[ebp]
  00017	83 c0 0c	 add	 eax, 12			; 0000000cH

; 2153 :         return _BUF_SIZE <= _Myres;

  0001a	83 78 14 10	 cmp	 DWORD PTR [eax+20], 16	; 00000010H

; 2145 :         if (_Large_string_engaged()) {

  0001e	72 02		 jb	 SHORT $LN10@RegisterMo

; 2146 :             _Result = _Unfancy(_Bx._Ptr);

  00020	8b 00		 mov	 eax, DWORD PTR [eax]
$LN10@RegisterMo:
; File C:\DS Project\DS Files\Source\ClientSource\Client\eterGrnLib\ThingInstance.cpp

; 513  : 		TraceError("CGraphicThingInstance::RegisterModelThing(iModelThing=%d, pModelThing=%s)\n", iModelThing, pModelThing->GetFileName());

  00022	50		 push	 eax
  00023	56		 push	 esi
  00024	68 00 00 00 00	 push	 OFFSET ??_C@_0EL@BCFDDCFO@CGraphicThingInstance?3?3Register@
  00029	e8 00 00 00 00	 call	 ?TraceError@@YAXPBDZZ	; TraceError
  0002e	83 c4 0c	 add	 esp, 12			; 0000000cH
  00031	5f		 pop	 edi

; 521  : }

  00032	5e		 pop	 esi
  00033	5d		 pop	 ebp
  00034	c2 08 00	 ret	 8
$LN2@RegisterMo:
; File C:\Program Files (x86)\Microsoft Visual Studio\2019\Community\VC\Tools\MSVC\14.27.29110\include\vector

; 1504 :         return _My_data._Myfirst[_Pos];

  00037	8b 87 94 02 00
	00		 mov	 eax, DWORD PTR [edi+660]
  0003d	8d 0c 76	 lea	 ecx, DWORD PTR [esi+esi*2]
  00040	8d 0c 88	 lea	 ecx, DWORD PTR [eax+ecx*4]
; File C:\DS Project\DS Files\Source\ClientSource\Client\eterGrnLib\ThingInstance.cpp

; 517  : 	m_modelThingSetVector[iModelThing].Clear();

  00043	e8 00 00 00 00	 call	 ?Clear@SModelThingSet@CGraphicThingInstance@@QAEXXZ ; CGraphicThingInstance::SModelThingSet::Clear

; 518  : 
; 519  : 	if (pModelThing)

  00048	8b 45 0c	 mov	 eax, DWORD PTR _pModelThing$[ebp]
  0004b	85 c0		 test	 eax, eax
  0004d	74 09		 je	 SHORT $LN3@RegisterMo

; 520  : 		RegisterLODThing(iModelThing, pModelThing);

  0004f	50		 push	 eax
  00050	56		 push	 esi
  00051	8b cf		 mov	 ecx, edi
  00053	e8 00 00 00 00	 call	 ?RegisterLODThing@CGraphicThingInstance@@QAEXHPAVCGraphicThing@@@Z ; CGraphicThingInstance::RegisterLODThing
$LN3@RegisterMo:

; 521  : }

  00058	5f		 pop	 edi
  00059	5e		 pop	 esi
  0005a	5d		 pop	 ebp
  0005b	c2 08 00	 ret	 8
?RegisterModelThing@CGraphicThingInstance@@QAEXHPAVCGraphicThing@@@Z ENDP ; CGraphicThingInstance::RegisterModelThing
_TEXT	ENDS
; Function compile flags: /Ogtp
; File C:\DS Project\DS Files\Source\ClientSource\Client\eterGrnLib\ThingInstance.cpp
;	COMDAT ?IsMotionThing@CGraphicThingInstance@@QAE_NXZ
_TEXT	SEGMENT
?IsMotionThing@CGraphicThingInstance@@QAE_NXZ PROC	; CGraphicThingInstance::IsMotionThing, COMDAT
; _this$ = ecx

; 244  : 	return !m_roMotionThingMap.empty();

  00000	83 b9 a4 02 00
	00 00		 cmp	 DWORD PTR [ecx+676], 0
  00007	0f 95 c0	 setne	 al

; 245  : }

  0000a	c3		 ret	 0
?IsMotionThing@CGraphicThingInstance@@QAE_NXZ ENDP	; CGraphicThingInstance::IsMotionThing
_TEXT	ENDS
; Function compile flags: /Ogtp
; File C:\DS Project\DS Files\Source\ClientSource\Client\eterGrnLib\ThingInstance.cpp
; File C:\Program Files (x86)\Microsoft Visual Studio\2019\Community\VC\Tools\MSVC\14.27.29110\include\map
; File C:\DS Project\DS Files\Source\ClientSource\Client\eterGrnLib\ThingInstance.cpp
; File C:\Program Files (x86)\Microsoft Visual Studio\2019\Community\VC\Tools\MSVC\14.27.29110\include\map
; File C:\Program Files (x86)\Microsoft Visual Studio\2019\Community\VC\Tools\MSVC\14.27.29110\include\xtree
; File C:\Program Files (x86)\Microsoft Visual Studio\2019\Community\VC\Tools\MSVC\14.27.29110\include\xstddef
; File C:\Program Files (x86)\Microsoft Visual Studio\2019\Community\VC\Tools\MSVC\14.27.29110\include\xtree
; File C:\Program Files (x86)\Microsoft Visual Studio\2019\Community\VC\Tools\MSVC\14.27.29110\include\map
; File C:\Program Files (x86)\Microsoft Visual Studio\2019\Community\VC\Tools\MSVC\14.27.29110\include\xmemory
; File C:\Program Files (x86)\Microsoft Visual Studio\2019\Community\VC\Tools\MSVC\14.27.29110\include\xtree
; File C:\Program Files (x86)\Microsoft Visual Studio\2019\Community\VC\Tools\MSVC\14.27.29110\include\xmemory
; File C:\DS Project\DS Files\Source\ClientSource\Client\eterGrnLib\ThingInstance.cpp
; File C:\Program Files (x86)\Microsoft Visual Studio\2019\Community\VC\Tools\MSVC\14.27.29110\include\xtree
; File C:\Program Files (x86)\Microsoft Visual Studio\2019\Community\VC\Tools\MSVC\14.27.29110\include\xmemory
; File C:\DS Project\DS Files\Source\ClientSource\Client\eterGrnLib\ThingInstance.cpp
; File C:\Program Files (x86)\Microsoft Visual Studio\2019\Community\VC\Tools\MSVC\14.27.29110\include\xmemory
; File C:\Program Files (x86)\Microsoft Visual Studio\2019\Community\VC\Tools\MSVC\14.27.29110\include\xtree
; File C:\Program Files (x86)\Microsoft Visual Studio\2019\Community\VC\Tools\MSVC\14.27.29110\include\map
; File C:\DS Project\DS Files\Source\ClientSource\Client\eterGrnLib\ThingInstance.cpp
; File C:\Program Files (x86)\Microsoft Visual Studio\2019\Community\VC\Tools\MSVC\14.27.29110\include\xtree
; File C:\DS Project\DS Files\Source\ClientSource\Client\eterGrnLib\ThingInstance.cpp
;	COMDAT ?GetMotionThingPointer@CGraphicThingInstance@@QAE_NKPAPAVCGraphicThing@@@Z
_TEXT	SEGMENT
__Loc$3 = -36						; size = 12
$T4 = -24						; size = 8
__Myhead$5 = -16					; size = 4
__$EHRec$ = -12						; size = 12
_dwKey$ = 8						; size = 4
_ppMotion$ = 12						; size = 4
?GetMotionThingPointer@CGraphicThingInstance@@QAE_NKPAPAVCGraphicThing@@@Z PROC ; CGraphicThingInstance::GetMotionThingPointer, COMDAT
; _this$ = ecx

; 234  : {

  00000	55		 push	 ebp
  00001	8b ec		 mov	 ebp, esp
  00003	6a ff		 push	 -1
  00005	68 00 00 00 00	 push	 __ehhandler$?GetMotionThingPointer@CGraphicThingInstance@@QAE_NKPAPAVCGraphicThing@@@Z
  0000a	64 a1 00 00 00
	00		 mov	 eax, DWORD PTR fs:0
  00010	50		 push	 eax
  00011	83 ec 18	 sub	 esp, 24			; 00000018H
  00014	56		 push	 esi
  00015	57		 push	 edi
  00016	a1 00 00 00 00	 mov	 eax, DWORD PTR ___security_cookie
  0001b	33 c5		 xor	 eax, ebp
  0001d	50		 push	 eax
  0001e	8d 45 f4	 lea	 eax, DWORD PTR __$EHRec$[ebp]
  00021	64 a3 00 00 00
	00		 mov	 DWORD PTR fs:0, eax
  00027	8b f9		 mov	 edi, ecx

; 235  : 	if (!CheckMotionThingIndex(dwKey))

  00029	8b 75 08	 mov	 esi, DWORD PTR _dwKey$[ebp]
  0002c	56		 push	 esi
  0002d	e8 00 00 00 00	 call	 ?CheckMotionThingIndex@CGraphicThingInstance@@QAE_NK@Z ; CGraphicThingInstance::CheckMotionThingIndex
  00032	84 c0		 test	 al, al
  00034	75 13		 jne	 SHORT $LN2@GetMotionT

; 240  : }

  00036	8b 4d f4	 mov	 ecx, DWORD PTR __$EHRec$[ebp]
  00039	64 89 0d 00 00
	00 00		 mov	 DWORD PTR fs:0, ecx
  00040	59		 pop	 ecx
  00041	5f		 pop	 edi
  00042	5e		 pop	 esi
  00043	8b e5		 mov	 esp, ebp
  00045	5d		 pop	 ebp
  00046	c2 08 00	 ret	 8
$LN2@GetMotionT:
; File C:\Program Files (x86)\Microsoft Visual Studio\2019\Community\VC\Tools\MSVC\14.27.29110\include\map

; 176  :         const auto _Loc = _Mybase::_Find_lower_bound(_Keyval);

  00049	8d 45 08	 lea	 eax, DWORD PTR _dwKey$[ebp]
; File C:\DS Project\DS Files\Source\ClientSource\Client\eterGrnLib\ThingInstance.cpp

; 238  : 	*ppMotion = m_roMotionThingMap[dwKey]->GetPointer();

  0004c	81 c7 a0 02 00
	00		 add	 edi, 672		; 000002a0H
; File C:\Program Files (x86)\Microsoft Visual Studio\2019\Community\VC\Tools\MSVC\14.27.29110\include\map

; 176  :         const auto _Loc = _Mybase::_Find_lower_bound(_Keyval);

  00052	50		 push	 eax
  00053	8d 45 dc	 lea	 eax, DWORD PTR __Loc$3[ebp]
  00056	8b cf		 mov	 ecx, edi
  00058	50		 push	 eax
  00059	e8 00 00 00 00	 call	 ??$_Find_lower_bound@K@?$_Tree@V?$_Tmap_traits@KPAV?$CRef@VCGraphicThing@@@@U?$less@K@std@@V?$allocator@U?$pair@$$CBKPAV?$CRef@VCGraphicThing@@@@@std@@@3@$0A@@std@@@std@@IBE?AU?$_Tree_find_result@PAU?$_Tree_node@U?$pair@$$CBKPAV?$CRef@VCGraphicThing@@@@@std@@PAX@std@@@1@ABK@Z ; std::_Tree<std::_Tmap_traits<unsigned long,CRef<CGraphicThing> *,std::less<unsigned long>,std::allocator<std::pair<unsigned long const ,CRef<CGraphicThing> *> >,0> >::_Find_lower_bound<unsigned long>
; File C:\Program Files (x86)\Microsoft Visual Studio\2019\Community\VC\Tools\MSVC\14.27.29110\include\xtree

; 1695 :         return !_Bound->_Isnil && !_DEBUG_LT_PRED(_Getcomp(), _Keyval, _Traits::_Kfn(_Bound->_Myval));

  0005e	8b 45 e4	 mov	 eax, DWORD PTR __Loc$3[ebp+8]
  00061	80 78 0d 00	 cmp	 BYTE PTR [eax+13], 0
  00065	75 05		 jne	 SHORT $LN7@GetMotionT
; File C:\Program Files (x86)\Microsoft Visual Studio\2019\Community\VC\Tools\MSVC\14.27.29110\include\xstddef

; 127  :         return _Left < _Right;

  00067	3b 70 10	 cmp	 esi, DWORD PTR [eax+16]
; File C:\Program Files (x86)\Microsoft Visual Studio\2019\Community\VC\Tools\MSVC\14.27.29110\include\xtree

; 1695 :         return !_Bound->_Isnil && !_DEBUG_LT_PRED(_Getcomp(), _Keyval, _Traits::_Kfn(_Bound->_Myval));

  0006a	73 7f		 jae	 SHORT $LN6@GetMotionT
$LN7@GetMotionT:

; 1719 :         if (max_size() == _Get_scary()->_Mysize) {

  0006c	81 7f 04 aa aa
	aa 0a		 cmp	 DWORD PTR [edi+4], 178956970 ; 0aaaaaaaH
  00073	0f 84 91 00 00
	00		 je	 $LN77@GetMotionT
; File C:\Program Files (x86)\Microsoft Visual Studio\2019\Community\VC\Tools\MSVC\14.27.29110\include\map

; 184  :         const auto _Inserted = _Tree_temp_node<_Alnode>(_Mybase::_Getal(), _Scary->_Myhead, piecewise_construct,

  00079	8b 07		 mov	 eax, DWORD PTR [edi]
  0007b	89 45 f0	 mov	 DWORD PTR __Myhead$5[ebp], eax
; File C:\Program Files (x86)\Microsoft Visual Studio\2019\Community\VC\Tools\MSVC\14.27.29110\include\xmemory

; 1040 :     explicit _Alloc_construct_ptr(_Alloc& _Al_) : _Al(_Al_), _Ptr(nullptr) {}

  0007e	89 7d e8	 mov	 DWORD PTR $T4[ebp], edi

; 807  :         return static_cast<_Ty*>(_Allocate<_New_alignof<_Ty>>(_Get_size_of_n<sizeof(_Ty)>(_Count)));

  00081	6a 18		 push	 24			; 00000018H
; File C:\Program Files (x86)\Microsoft Visual Studio\2019\Community\VC\Tools\MSVC\14.27.29110\include\xtree

; 784  :     explicit _Tree_temp_node_alloc(_Alnode& _Al_) : _Alloc_construct_ptr<_Alnode>(_Al_) {

  00083	c7 45 fc 00 00
	00 00		 mov	 DWORD PTR __$EHRec$[ebp+8], 0
; File C:\Program Files (x86)\Microsoft Visual Studio\2019\Community\VC\Tools\MSVC\14.27.29110\include\xmemory

; 1047 :         _Ptr = nullptr; // if allocate throws, prevents double-free

  0008a	c7 45 ec 00 00
	00 00		 mov	 DWORD PTR $T4[ebp+4], 0

; 807  :         return static_cast<_Ty*>(_Allocate<_New_alignof<_Ty>>(_Get_size_of_n<sizeof(_Ty)>(_Count)));

  00091	e8 00 00 00 00	 call	 ??$_Allocate@$07U_Default_allocate_traits@std@@$0A@@std@@YAPAXI@Z ; std::_Allocate<8,std::_Default_allocate_traits,0>

; 1048 :         _Ptr = _Al.allocate(1);

  00096	8b f0		 mov	 esi, eax
; File C:\DS Project\DS Files\Source\ClientSource\Client\eterGrnLib\ThingInstance.cpp

  00098	8d 55 08	 lea	 edx, DWORD PTR _dwKey$[ebp]
; File C:\Program Files (x86)\Microsoft Visual Studio\2019\Community\VC\Tools\MSVC\14.27.29110\include\xtree

; 806  :         _Alnode_traits::construct(this->_Al, _STD addressof(this->_Ptr->_Myval), _STD forward<_Valtys>(_Vals)...);

  0009b	8d 4e 10	 lea	 ecx, DWORD PTR [esi+16]
; File C:\Program Files (x86)\Microsoft Visual Studio\2019\Community\VC\Tools\MSVC\14.27.29110\include\xmemory

; 694  :         ::new (const_cast<void*>(static_cast<const volatile void*>(_Ptr))) _Objty(_STD forward<_Types>(_Args)...);

  0009e	51		 push	 ecx
  0009f	8b c4		 mov	 eax, esp
; File C:\DS Project\DS Files\Source\ClientSource\Client\eterGrnLib\ThingInstance.cpp

  000a1	89 10		 mov	 DWORD PTR [eax], edx
; File C:\Program Files (x86)\Microsoft Visual Studio\2019\Community\VC\Tools\MSVC\14.27.29110\include\xmemory

; 694  :         ::new (const_cast<void*>(static_cast<const volatile void*>(_Ptr))) _Objty(_STD forward<_Types>(_Args)...);

  000a3	0f b6 05 00 00
	00 00		 movzx	 eax, BYTE PTR ?piecewise_construct@std@@3Upiecewise_construct_t@1@B
  000aa	50		 push	 eax
  000ab	e8 00 00 00 00	 call	 ??$?0ABK$$Z$$V@?$pair@$$CBKPAV?$CRef@VCGraphicThing@@@@@std@@QAE@Upiecewise_construct_t@1@V?$tuple@ABK@1@V?$tuple@$$V@1@@Z ; std::pair<unsigned long const ,CRef<CGraphicThing> *>::pair<unsigned long const ,CRef<CGraphicThing> *><unsigned long const &>
; File C:\Program Files (x86)\Microsoft Visual Studio\2019\Community\VC\Tools\MSVC\14.27.29110\include\xtree

; 807  :         _Construct_in_place(this->_Ptr->_Left, _Myhead);

  000b0	8d 45 f0	 lea	 eax, DWORD PTR __Myhead$5[ebp]
  000b3	50		 push	 eax
  000b4	56		 push	 esi
  000b5	e8 00 00 00 00	 call	 ??$_Construct_in_place@PAU?$_Tree_node@U?$pair@$$CBKPAV?$CRef@VCGraphicThing@@@@@std@@PAX@std@@AAPAU12@@std@@YAXAAPAU?$_Tree_node@U?$pair@$$CBKPAV?$CRef@VCGraphicThing@@@@@std@@PAX@0@0@Z ; std::_Construct_in_place<std::_Tree_node<std::pair<unsigned long const ,CRef<CGraphicThing> *>,void *> *,std::_Tree_node<std::pair<unsigned long const ,CRef<CGraphicThing> *>,void *> * &>

; 808  :         _Construct_in_place(this->_Ptr->_Parent, _Myhead);

  000ba	8d 45 f0	 lea	 eax, DWORD PTR __Myhead$5[ebp]
  000bd	50		 push	 eax
  000be	8d 46 04	 lea	 eax, DWORD PTR [esi+4]
  000c1	50		 push	 eax
  000c2	e8 00 00 00 00	 call	 ??$_Construct_in_place@PAU?$_Tree_node@U?$pair@$$CBKPAV?$CRef@VCGraphicThing@@@@@std@@PAX@std@@AAPAU12@@std@@YAXAAPAU?$_Tree_node@U?$pair@$$CBKPAV?$CRef@VCGraphicThing@@@@@std@@PAX@0@0@Z ; std::_Construct_in_place<std::_Tree_node<std::pair<unsigned long const ,CRef<CGraphicThing> *>,void *> *,std::_Tree_node<std::pair<unsigned long const ,CRef<CGraphicThing> *>,void *> * &>

; 809  :         _Construct_in_place(this->_Ptr->_Right, _Myhead);

  000c7	8d 45 f0	 lea	 eax, DWORD PTR __Myhead$5[ebp]
  000ca	50		 push	 eax
  000cb	8d 46 08	 lea	 eax, DWORD PTR [esi+8]
  000ce	50		 push	 eax
  000cf	e8 00 00 00 00	 call	 ??$_Construct_in_place@PAU?$_Tree_node@U?$pair@$$CBKPAV?$CRef@VCGraphicThing@@@@@std@@PAX@std@@AAPAU12@@std@@YAXAAPAU?$_Tree_node@U?$pair@$$CBKPAV?$CRef@VCGraphicThing@@@@@std@@PAX@0@0@Z ; std::_Construct_in_place<std::_Tree_node<std::pair<unsigned long const ,CRef<CGraphicThing> *>,void *> *,std::_Tree_node<std::pair<unsigned long const ,CRef<CGraphicThing> *>,void *> * &>
  000d4	83 c4 18	 add	 esp, 24			; 00000018H

; 810  :         this->_Ptr->_Color = _Red;

  000d7	66 c7 46 0c 00
	00		 mov	 WORD PTR [esi+12], 0
; File C:\Program Files (x86)\Microsoft Visual Studio\2019\Community\VC\Tools\MSVC\14.27.29110\include\map

; 190  :         return {_Scary->_Insert_node(_Loc._Location, _Inserted), true};

  000dd	8b cf		 mov	 ecx, edi
  000df	56		 push	 esi
  000e0	ff 75 e0	 push	 DWORD PTR __Loc$3[ebp+4]
  000e3	ff 75 dc	 push	 DWORD PTR __Loc$3[ebp]
  000e6	e8 00 00 00 00	 call	 ?_Insert_node@?$_Tree_val@U?$_Tree_simple_types@U?$pair@$$CBKPAV?$CRef@VCGraphicThing@@@@@std@@@std@@@std@@QAEPAU?$_Tree_node@U?$pair@$$CBKPAV?$CRef@VCGraphicThing@@@@@std@@PAX@2@U?$_Tree_id@PAU?$_Tree_node@U?$pair@$$CBKPAV?$CRef@VCGraphicThing@@@@@std@@PAX@std@@@2@QAU32@@Z ; std::_Tree_val<std::_Tree_simple_types<std::pair<unsigned long const ,CRef<CGraphicThing> *> > >::_Insert_node
$LN6@GetMotionT:
; File C:\DS Project\DS Files\Source\ClientSource\Client\eterGrnLib\ThingInstance.cpp

; 238  : 	*ppMotion = m_roMotionThingMap[dwKey]->GetPointer();

  000eb	8b 40 14	 mov	 eax, DWORD PTR [eax+20]
  000ee	8b 08		 mov	 ecx, DWORD PTR [eax]
  000f0	8b 45 0c	 mov	 eax, DWORD PTR _ppMotion$[ebp]
  000f3	89 08		 mov	 DWORD PTR [eax], ecx

; 239  : 	return true;

  000f5	b0 01		 mov	 al, 1

; 240  : }

  000f7	8b 4d f4	 mov	 ecx, DWORD PTR __$EHRec$[ebp]
  000fa	64 89 0d 00 00
	00 00		 mov	 DWORD PTR fs:0, ecx
  00101	59		 pop	 ecx
  00102	5f		 pop	 edi
  00103	5e		 pop	 esi
  00104	8b e5		 mov	 esp, ebp
  00106	5d		 pop	 ebp
  00107	c2 08 00	 ret	 8
$LN77@GetMotionT:
; File C:\Program Files (x86)\Microsoft Visual Studio\2019\Community\VC\Tools\MSVC\14.27.29110\include\xtree

; 1720 :             _Throw_tree_length_error();

  0010a	e8 00 00 00 00	 call	 ?_Throw_tree_length_error@std@@YAXXZ ; std::_Throw_tree_length_error
$LN75@GetMotionT:
  0010f	cc		 int	 3
_TEXT	ENDS
;	COMDAT text$x
text$x	SEGMENT
__unwindfunclet$?GetMotionThingPointer@CGraphicThingInstance@@QAE_NKPAPAVCGraphicThing@@@Z$2:
  00000	8d 4d e8	 lea	 ecx, DWORD PTR $T4[ebp]
  00003	e9 00 00 00 00	 jmp	 ??1?$_Alloc_construct_ptr@V?$allocator@U?$_Tree_node@U?$pair@$$CBKPAV?$CRef@VCGraphicThing@@@@@std@@PAX@std@@@std@@@std@@QAE@XZ ; std::_Alloc_construct_ptr<std::allocator<std::_Tree_node<std::pair<unsigned long const ,CRef<CGraphicThing> *>,void *> > >::~_Alloc_construct_ptr<std::allocator<std::_Tree_node<std::pair<unsigned long const ,CRef<CGraphicThing> *>,void *> > >
  00008	cc		 int	 3
  00009	cc		 int	 3
  0000a	cc		 int	 3
  0000b	cc		 int	 3
  0000c	cc		 int	 3
__ehhandler$?GetMotionThingPointer@CGraphicThingInstance@@QAE_NKPAPAVCGraphicThing@@@Z:
  0000d	90		 npad	 1
  0000e	90		 npad	 1
  0000f	8b 54 24 08	 mov	 edx, DWORD PTR [esp+8]
  00013	8d 42 0c	 lea	 eax, DWORD PTR [edx+12]
  00016	8b 4a dc	 mov	 ecx, DWORD PTR [edx-36]
  00019	33 c8		 xor	 ecx, eax
  0001b	e8 00 00 00 00	 call	 @__security_check_cookie@4
  00020	b8 00 00 00 00	 mov	 eax, OFFSET __ehfuncinfo$?GetMotionThingPointer@CGraphicThingInstance@@QAE_NKPAPAVCGraphicThing@@@Z
  00025	e9 00 00 00 00	 jmp	 ___CxxFrameHandler3
text$x	ENDS
?GetMotionThingPointer@CGraphicThingInstance@@QAE_NKPAPAVCGraphicThing@@@Z ENDP ; CGraphicThingInstance::GetMotionThingPointer
; Function compile flags: /Ogtp
; File C:\DS Project\DS Files\Source\ClientSource\Client\eterGrnLib\ThingInstance.cpp
; File C:\Program Files (x86)\Microsoft Visual Studio\2019\Community\VC\Tools\MSVC\14.27.29110\include\xtree
; File C:\DS Project\DS Files\Source\ClientSource\Client\eterGrnLib\ThingInstance.cpp
; File C:\Program Files (x86)\Microsoft Visual Studio\2019\Community\VC\Tools\MSVC\14.27.29110\include\xtree
; File C:\Program Files (x86)\Microsoft Visual Studio\2019\Community\VC\Tools\MSVC\14.27.29110\include\xstddef
; File C:\Program Files (x86)\Microsoft Visual Studio\2019\Community\VC\Tools\MSVC\14.27.29110\include\xtree
; File C:\DS Project\DS Files\Source\ClientSource\Client\eterGrnLib\ThingInstance.cpp
;	COMDAT ?CheckMotionThingIndex@CGraphicThingInstance@@QAE_NK@Z
_TEXT	SEGMENT
__Loc$1 = -12						; size = 12
_dwMotionKey$ = 8					; size = 4
?CheckMotionThingIndex@CGraphicThingInstance@@QAE_NK@Z PROC ; CGraphicThingInstance::CheckMotionThingIndex, COMDAT
; _this$ = ecx

; 224  : {

  00000	55		 push	 ebp
  00001	8b ec		 mov	 ebp, esp
  00003	83 ec 0c	 sub	 esp, 12			; 0000000cH
  00006	56		 push	 esi
; File C:\Program Files (x86)\Microsoft Visual Studio\2019\Community\VC\Tools\MSVC\14.27.29110\include\xtree

; 1458 :         const _Tree_find_result<_Nodeptr> _Loc = _Find_lower_bound(_Keyval);

  00007	8d 45 08	 lea	 eax, DWORD PTR _dwMotionKey$[ebp]
  0000a	50		 push	 eax
; File C:\DS Project\DS Files\Source\ClientSource\Client\eterGrnLib\ThingInstance.cpp

; 225  : 	std::map<DWORD, CGraphicThing::TRef *>::iterator itor = m_roMotionThingMap.find(dwMotionKey);

  0000b	8d b1 a0 02 00
	00		 lea	 esi, DWORD PTR [ecx+672]
; File C:\Program Files (x86)\Microsoft Visual Studio\2019\Community\VC\Tools\MSVC\14.27.29110\include\xtree

; 1458 :         const _Tree_find_result<_Nodeptr> _Loc = _Find_lower_bound(_Keyval);

  00011	8d 45 f4	 lea	 eax, DWORD PTR __Loc$1[ebp]
  00014	8b ce		 mov	 ecx, esi
  00016	50		 push	 eax
  00017	e8 00 00 00 00	 call	 ??$_Find_lower_bound@K@?$_Tree@V?$_Tmap_traits@KPAV?$CRef@VCGraphicThing@@@@U?$less@K@std@@V?$allocator@U?$pair@$$CBKPAV?$CRef@VCGraphicThing@@@@@std@@@3@$0A@@std@@@std@@IBE?AU?$_Tree_find_result@PAU?$_Tree_node@U?$pair@$$CBKPAV?$CRef@VCGraphicThing@@@@@std@@PAX@std@@@1@ABK@Z ; std::_Tree<std::_Tmap_traits<unsigned long,CRef<CGraphicThing> *,std::less<unsigned long>,std::allocator<std::pair<unsigned long const ,CRef<CGraphicThing> *> >,0> >::_Find_lower_bound<unsigned long>

; 1695 :         return !_Bound->_Isnil && !_DEBUG_LT_PRED(_Getcomp(), _Keyval, _Traits::_Kfn(_Bound->_Myval));

  0001c	8b 4d fc	 mov	 ecx, DWORD PTR __Loc$1[ebp+8]
  0001f	80 79 0d 00	 cmp	 BYTE PTR [ecx+13], 0
  00023	75 15		 jne	 SHORT $LN32@CheckMotio
; File C:\Program Files (x86)\Microsoft Visual Studio\2019\Community\VC\Tools\MSVC\14.27.29110\include\xstddef

; 127  :         return _Left < _Right;

  00025	8b 45 08	 mov	 eax, DWORD PTR _dwMotionKey$[ebp]
  00028	3b 41 10	 cmp	 eax, DWORD PTR [ecx+16]
; File C:\Program Files (x86)\Microsoft Visual Studio\2019\Community\VC\Tools\MSVC\14.27.29110\include\xtree

; 1695 :         return !_Bound->_Isnil && !_DEBUG_LT_PRED(_Getcomp(), _Keyval, _Traits::_Kfn(_Bound->_Myval));

  0002b	72 0d		 jb	 SHORT $LN32@CheckMotio

; 232  :         return this->_Ptr == _Right._Ptr;

  0002d	39 0e		 cmp	 DWORD PTR [esi], ecx
; File C:\DS Project\DS Files\Source\ClientSource\Client\eterGrnLib\ThingInstance.cpp

; 227  : 	if (m_roMotionThingMap.end() == itor)

  0002f	74 09		 je	 SHORT $LN32@CheckMotio

; 229  : 
; 230  : 	return true;

  00031	b0 01		 mov	 al, 1
  00033	5e		 pop	 esi

; 231  : }

  00034	8b e5		 mov	 esp, ebp
  00036	5d		 pop	 ebp
  00037	c2 04 00	 ret	 4
$LN32@CheckMotio:

; 228  : 		return false;

  0003a	32 c0		 xor	 al, al
  0003c	5e		 pop	 esi

; 231  : }

  0003d	8b e5		 mov	 esp, ebp
  0003f	5d		 pop	 ebp
  00040	c2 04 00	 ret	 4
?CheckMotionThingIndex@CGraphicThingInstance@@QAE_NK@Z ENDP ; CGraphicThingInstance::CheckMotionThingIndex
_TEXT	ENDS
; Function compile flags: /Ogtp
; File C:\DS Project\DS Files\Source\ClientSource\Client\eterGrnLib\ThingInstance.cpp
; File C:\Program Files (x86)\Microsoft Visual Studio\2019\Community\VC\Tools\MSVC\14.27.29110\include\vector
; File C:\DS Project\DS Files\Source\ClientSource\Client\eterGrnLib\ThingInstance.cpp
;	COMDAT ?CheckModelThingIndex@CGraphicThingInstance@@QAE_NH@Z
_TEXT	SEGMENT
_iModelThing$ = 8					; size = 4
?CheckModelThingIndex@CGraphicThingInstance@@QAE_NH@Z PROC ; CGraphicThingInstance::CheckModelThingIndex, COMDAT
; _this$ = ecx

; 211  : {

  00000	55		 push	 ebp
  00001	8b ec		 mov	 ebp, esp

; 212  : 	if (iModelThing < 0)

  00003	83 7d 08 00	 cmp	 DWORD PTR _iModelThing$[ebp], 0
  00007	7c 27		 jl	 SHORT $LN7@CheckModel
; File C:\Program Files (x86)\Microsoft Visual Studio\2019\Community\VC\Tools\MSVC\14.27.29110\include\vector

; 1484 :         return static_cast<size_type>(_My_data._Mylast - _My_data._Myfirst);

  00009	8b 91 98 02 00
	00		 mov	 edx, DWORD PTR [ecx+664]
  0000f	b8 ab aa aa 2a	 mov	 eax, 715827883		; 2aaaaaabH
  00014	2b 91 94 02 00
	00		 sub	 edx, DWORD PTR [ecx+660]
  0001a	f7 ea		 imul	 edx
  0001c	d1 fa		 sar	 edx, 1
  0001e	8b c2		 mov	 eax, edx
  00020	c1 e8 1f	 shr	 eax, 31			; 0000001fH
  00023	03 c2		 add	 eax, edx
; File C:\DS Project\DS Files\Source\ClientSource\Client\eterGrnLib\ThingInstance.cpp

; 217  : 	if (iModelThing >= max)

  00025	39 45 08	 cmp	 DWORD PTR _iModelThing$[ebp], eax
  00028	7d 06		 jge	 SHORT $LN7@CheckModel

; 219  : 
; 220  : 	return true;

  0002a	b0 01		 mov	 al, 1

; 221  : }

  0002c	5d		 pop	 ebp
  0002d	c2 04 00	 ret	 4
$LN7@CheckModel:

; 218  : 		return false;

  00030	32 c0		 xor	 al, al

; 221  : }

  00032	5d		 pop	 ebp
  00033	c2 04 00	 ret	 4
?CheckModelThingIndex@CGraphicThingInstance@@QAE_NH@Z ENDP ; CGraphicThingInstance::CheckModelThingIndex
_TEXT	ENDS
; Function compile flags: /Ogtp
; File C:\DS Project\DS Files\Source\ClientSource\Client\eterGrnLib\ThingInstance.cpp
; File C:\Program Files (x86)\Microsoft Visual Studio\2019\Community\VC\Tools\MSVC\14.27.29110\include\vector
; File C:\DS Project\DS Files\Source\ClientSource\Client\eterGrnLib\ThingInstance.cpp
;	COMDAT ?CheckModelInstanceIndex@CGraphicThingInstance@@QAE_NH@Z
_TEXT	SEGMENT
_iModelInstance$ = 8					; size = 4
?CheckModelInstanceIndex@CGraphicThingInstance@@QAE_NH@Z PROC ; CGraphicThingInstance::CheckModelInstanceIndex, COMDAT
; _this$ = ecx

; 198  : {

  00000	55		 push	 ebp
  00001	8b ec		 mov	 ebp, esp

; 199  : 	if (iModelInstance < 0)

  00003	8b 55 08	 mov	 edx, DWORD PTR _iModelInstance$[ebp]
  00006	85 d2		 test	 edx, edx
  00008	78 19		 js	 SHORT $LN7@CheckModel
; File C:\Program Files (x86)\Microsoft Visual Studio\2019\Community\VC\Tools\MSVC\14.27.29110\include\vector

; 1484 :         return static_cast<size_type>(_My_data._Mylast - _My_data._Myfirst);

  0000a	8b 81 8c 02 00
	00		 mov	 eax, DWORD PTR [ecx+652]
  00010	2b 81 88 02 00
	00		 sub	 eax, DWORD PTR [ecx+648]
  00016	c1 f8 02	 sar	 eax, 2
; File C:\DS Project\DS Files\Source\ClientSource\Client\eterGrnLib\ThingInstance.cpp

; 204  : 	if (iModelInstance >= max)

  00019	3b d0		 cmp	 edx, eax
  0001b	7d 06		 jge	 SHORT $LN7@CheckModel

; 206  : 
; 207  : 	return true;

  0001d	b0 01		 mov	 al, 1

; 208  : }

  0001f	5d		 pop	 ebp
  00020	c2 04 00	 ret	 4
$LN7@CheckModel:

; 205  : 		return false;

  00023	32 c0		 xor	 al, al

; 208  : }

  00025	5d		 pop	 ebp
  00026	c2 04 00	 ret	 4
?CheckModelInstanceIndex@CGraphicThingInstance@@QAE_NH@Z ENDP ; CGraphicThingInstance::CheckModelInstanceIndex
_TEXT	ENDS
; Function compile flags: /Ogtp
; File C:\DS Project\DS Files\Source\ClientSource\Client\eterGrnLib\ThingInstance.cpp
; File C:\Program Files (x86)\Microsoft Visual Studio\2019\Community\VC\Tools\MSVC\14.27.29110\include\vector
; File C:\DS Project\DS Files\Source\ClientSource\Client\eterGrnLib\ThingInstance.cpp
; File C:\Program Files (x86)\Microsoft Visual Studio\2019\Community\VC\Tools\MSVC\14.27.29110\include\vector
; File C:\DS Project\DS Files\Source\ClientSource\Client\eterGrnLib\ThingInstance.cpp
; File C:\Program Files (x86)\Microsoft Visual Studio\2019\Community\VC\Tools\MSVC\14.27.29110\include\vector
; File C:\DS Project\DS Files\Source\ClientSource\Client\eterGrnLib\ThingInstance.cpp
; File C:\Program Files (x86)\Microsoft Visual Studio\2019\Community\VC\Tools\MSVC\14.27.29110\include\vector
; File C:\DS Project\DS Files\Source\ClientSource\Client\eterGrnLib\ThingInstance.cpp
; File C:\Program Files (x86)\Microsoft Visual Studio\2019\Community\VC\Tools\MSVC\14.27.29110\include\vector
; File C:\DS Project\DS Files\Source\ClientSource\Client\eterGrnLib\ThingInstance.cpp
;	COMDAT ?ReserveModelThing@CGraphicThingInstance@@QAEXH@Z
_TEXT	SEGMENT
_iCount$ = 8						; size = 4
$T1 = 11						; size = 1
?ReserveModelThing@CGraphicThingInstance@@QAEXH@Z PROC	; CGraphicThingInstance::ReserveModelThing, COMDAT
; _this$ = ecx

; 259  : {

  00000	55		 push	 ebp
  00001	8b ec		 mov	 ebp, esp
  00003	53		 push	 ebx
  00004	56		 push	 esi
; File C:\Program Files (x86)\Microsoft Visual Studio\2019\Community\VC\Tools\MSVC\14.27.29110\include\vector

; 1216 :         if (_Newsize < _Oldsize) { // trim

  00005	8b 75 08	 mov	 esi, DWORD PTR _iCount$[ebp]
  00008	b8 ab aa aa 2a	 mov	 eax, 715827883		; 2aaaaaabH
; File C:\DS Project\DS Files\Source\ClientSource\Client\eterGrnLib\ThingInstance.cpp

; 259  : {

  0000d	57		 push	 edi

; 260  : 	m_modelThingSetVector.resize(iCount);

  0000e	8d b9 94 02 00
	00		 lea	 edi, DWORD PTR [ecx+660]
; File C:\Program Files (x86)\Microsoft Visual Studio\2019\Community\VC\Tools\MSVC\14.27.29110\include\vector

; 1215 :         const auto _Oldsize = static_cast<size_type>(_Mylast - _Myfirst);

  00014	8b 4f 04	 mov	 ecx, DWORD PTR [edi+4]
  00017	2b 0f		 sub	 ecx, DWORD PTR [edi]
  00019	f7 e9		 imul	 ecx
  0001b	d1 fa		 sar	 edx, 1
  0001d	8b da		 mov	 ebx, edx
  0001f	c1 eb 1f	 shr	 ebx, 31			; 0000001fH
  00022	03 da		 add	 ebx, edx

; 1216 :         if (_Newsize < _Oldsize) { // trim

  00024	3b f3		 cmp	 esi, ebx
  00026	73 20		 jae	 SHORT $LN6@ReserveMod

; 1217 :             const pointer _Newlast = _Myfirst + _Newsize;

  00028	8b 17		 mov	 edx, DWORD PTR [edi]
  0002a	8d 04 76	 lea	 eax, DWORD PTR [esi+esi*2]

; 1612 :         _Destroy_range(_First, _Last, _Getal());

  0002d	57		 push	 edi

; 1217 :             const pointer _Newlast = _Myfirst + _Newsize;

  0002e	8d 34 82	 lea	 esi, DWORD PTR [edx+eax*4]

; 1612 :         _Destroy_range(_First, _Last, _Getal());

  00031	8b 47 04	 mov	 eax, DWORD PTR [edi+4]
  00034	50		 push	 eax
  00035	56		 push	 esi
  00036	e8 00 00 00 00	 call	 ??$_Destroy_range@V?$allocator@USModelThingSet@CGraphicThingInstance@@@std@@@std@@YAXPAUSModelThingSet@CGraphicThingInstance@@QAU12@AAV?$allocator@USModelThingSet@CGraphicThingInstance@@@0@@Z ; std::_Destroy_range<std::allocator<CGraphicThingInstance::SModelThingSet> >
; File C:\DS Project\DS Files\Source\ClientSource\Client\eterGrnLib\ThingInstance.cpp

; 261  : }

  0003b	83 c4 0c	 add	 esp, 12			; 0000000cH
; File C:\Program Files (x86)\Microsoft Visual Studio\2019\Community\VC\Tools\MSVC\14.27.29110\include\vector

; 1220 :             _Mylast = _Newlast;

  0003e	89 77 04	 mov	 DWORD PTR [edi+4], esi
  00041	5f		 pop	 edi
; File C:\DS Project\DS Files\Source\ClientSource\Client\eterGrnLib\ThingInstance.cpp

; 261  : }

  00042	5e		 pop	 esi
  00043	5b		 pop	 ebx
  00044	5d		 pop	 ebp
  00045	c2 04 00	 ret	 4
$LN6@ReserveMod:
; File C:\Program Files (x86)\Microsoft Visual Studio\2019\Community\VC\Tools\MSVC\14.27.29110\include\vector

; 1224 :         if (_Newsize > _Oldsize) { // append

  00048	76 3f		 jbe	 SHORT $LN7@ReserveMod

; 1225 :             const auto _Oldcapacity = static_cast<size_type>(_My_data._Myend - _Myfirst);

  0004a	8b 4f 08	 mov	 ecx, DWORD PTR [edi+8]
  0004d	b8 ab aa aa 2a	 mov	 eax, 715827883		; 2aaaaaabH
  00052	2b 0f		 sub	 ecx, DWORD PTR [edi]
  00054	f7 e9		 imul	 ecx
  00056	d1 fa		 sar	 edx, 1
  00058	8b c2		 mov	 eax, edx
  0005a	c1 e8 1f	 shr	 eax, 31			; 0000001fH
  0005d	03 c2		 add	 eax, edx

; 1226 :             if (_Newsize > _Oldcapacity) { // reallocate

  0005f	3b f0		 cmp	 esi, eax
  00061	76 13		 jbe	 SHORT $LN8@ReserveMod

; 1227 :                 _Resize_reallocate(_Newsize, _Val);

  00063	8d 45 0b	 lea	 eax, DWORD PTR $T1[ebp]
  00066	8b cf		 mov	 ecx, edi
  00068	50		 push	 eax
  00069	56		 push	 esi
  0006a	e8 00 00 00 00	 call	 ??$_Resize_reallocate@U_Value_init_tag@std@@@?$vector@USModelThingSet@CGraphicThingInstance@@V?$allocator@USModelThingSet@CGraphicThingInstance@@@std@@@std@@AAEXIABU_Value_init_tag@1@@Z ; std::vector<CGraphicThingInstance::SModelThingSet,std::allocator<CGraphicThingInstance::SModelThingSet> >::_Resize_reallocate<std::_Value_init_tag>
  0006f	5f		 pop	 edi
; File C:\DS Project\DS Files\Source\ClientSource\Client\eterGrnLib\ThingInstance.cpp

; 261  : }

  00070	5e		 pop	 esi
  00071	5b		 pop	 ebx
  00072	5d		 pop	 ebp
  00073	c2 04 00	 ret	 4
$LN8@ReserveMod:
; File C:\Program Files (x86)\Microsoft Visual Studio\2019\Community\VC\Tools\MSVC\14.27.29110\include\vector

; 1583 :         return _Uninitialized_value_construct_n(_Dest, _Count, _Getal());

  00076	8b 47 04	 mov	 eax, DWORD PTR [edi+4]

; 1232 :             _Mylast                = _Ufill(_Oldlast, _Newsize - _Oldsize, _Val);

  00079	2b f3		 sub	 esi, ebx

; 1583 :         return _Uninitialized_value_construct_n(_Dest, _Count, _Getal());

  0007b	57		 push	 edi
  0007c	56		 push	 esi
  0007d	50		 push	 eax
  0007e	e8 00 00 00 00	 call	 ??$_Uninitialized_value_construct_n@V?$allocator@USModelThingSet@CGraphicThingInstance@@@std@@@std@@YAPAUSModelThingSet@CGraphicThingInstance@@PAU12@IAAV?$allocator@USModelThingSet@CGraphicThingInstance@@@0@@Z ; std::_Uninitialized_value_construct_n<std::allocator<CGraphicThingInstance::SModelThingSet> >

; 1232 :             _Mylast                = _Ufill(_Oldlast, _Newsize - _Oldsize, _Val);

  00083	89 47 04	 mov	 DWORD PTR [edi+4], eax
; File C:\DS Project\DS Files\Source\ClientSource\Client\eterGrnLib\ThingInstance.cpp

; 261  : }

  00086	83 c4 0c	 add	 esp, 12			; 0000000cH
$LN7@ReserveMod:
  00089	5f		 pop	 edi
  0008a	5e		 pop	 esi
  0008b	5b		 pop	 ebx
  0008c	5d		 pop	 ebp
  0008d	c2 04 00	 ret	 4
?ReserveModelThing@CGraphicThingInstance@@QAEXH@Z ENDP	; CGraphicThingInstance::ReserveModelThing
_TEXT	ENDS
; Function compile flags: /Ogtp
; File C:\DS Project\DS Files\Source\ClientSource\Client\eterGrnLib\ThingInstance.cpp
; File C:\Program Files (x86)\Microsoft Visual Studio\2019\Community\VC\Tools\MSVC\14.27.29110\include\vector
; File C:\DS Project\DS Files\Source\ClientSource\Client\eterGrnLib\ThingInstance.cpp
; File C:\Program Files (x86)\Microsoft Visual Studio\2019\Community\VC\Tools\MSVC\14.27.29110\include\vector
; File C:\DS Project\DS Files\Source\ClientSource\Client\eterGrnLib\ThingInstance.cpp
;	COMDAT ?ReserveModelInstance@CGraphicThingInstance@@QAEXH@Z
_TEXT	SEGMENT
$T2 = -16						; size = 4
__$EHRec$ = -12						; size = 12
_pInstance$3 = 8					; size = 4
_iCount$ = 8						; size = 4
?ReserveModelInstance@CGraphicThingInstance@@QAEXH@Z PROC ; CGraphicThingInstance::ReserveModelInstance, COMDAT
; _this$ = ecx

; 248  : {

  00000	55		 push	 ebp
  00001	8b ec		 mov	 ebp, esp
  00003	6a ff		 push	 -1
  00005	68 00 00 00 00	 push	 __ehhandler$?ReserveModelInstance@CGraphicThingInstance@@QAEXH@Z
  0000a	64 a1 00 00 00
	00		 mov	 eax, DWORD PTR fs:0
  00010	50		 push	 eax
  00011	51		 push	 ecx
  00012	56		 push	 esi
  00013	57		 push	 edi
  00014	a1 00 00 00 00	 mov	 eax, DWORD PTR ___security_cookie
  00019	33 c5		 xor	 eax, ebp
  0001b	50		 push	 eax
  0001c	8d 45 f4	 lea	 eax, DWORD PTR __$EHRec$[ebp]
  0001f	64 a3 00 00 00
	00		 mov	 DWORD PTR fs:0, eax

; 249  : 	stl_wipe(m_LODControllerVector);

  00025	8d b1 88 02 00
	00		 lea	 esi, DWORD PTR [ecx+648]
  0002b	56		 push	 esi
  0002c	e8 00 00 00 00	 call	 ??$stl_wipe@V?$vector@PAVCGrannyLODController@@V?$allocator@PAVCGrannyLODController@@@std@@@std@@@@YAXAAV?$vector@PAVCGrannyLODController@@V?$allocator@PAVCGrannyLODController@@@std@@@std@@@Z ; stl_wipe<std::vector<CGrannyLODController *,std::allocator<CGrannyLODController *> > >

; 251  : 	for (int i = 0; i < iCount; ++i)

  00031	8b 7d 08	 mov	 edi, DWORD PTR _iCount$[ebp]
  00034	83 c4 04	 add	 esp, 4
  00037	85 ff		 test	 edi, edi
  00039	7e 53		 jle	 SHORT $LN3@ReserveMod
  0003b	0f 1f 44 00 00	 npad	 5
$LL4@ReserveMod:

; 253  : 		CGrannyLODController * pInstance = new CGrannyLODController;

  00040	6a 3c		 push	 60			; 0000003cH
  00042	e8 00 00 00 00	 call	 ??2@YAPAXI@Z		; operator new
  00047	83 c4 04	 add	 esp, 4
  0004a	89 45 f0	 mov	 DWORD PTR $T2[ebp], eax
  0004d	c7 45 fc 00 00
	00 00		 mov	 DWORD PTR __$EHRec$[ebp+8], 0
  00054	85 c0		 test	 eax, eax
  00056	74 09		 je	 SHORT $LN6@ReserveMod
  00058	8b c8		 mov	 ecx, eax
  0005a	e8 00 00 00 00	 call	 ??0CGrannyLODController@@QAE@XZ ; CGrannyLODController::CGrannyLODController
  0005f	eb 02		 jmp	 SHORT $LN7@ReserveMod
$LN6@ReserveMod:
  00061	33 c0		 xor	 eax, eax
$LN7@ReserveMod:
; File C:\Program Files (x86)\Microsoft Visual Studio\2019\Community\VC\Tools\MSVC\14.27.29110\include\vector

; 704  :         if (_Mylast != _My_data._Myend) {

  00063	8b 4e 04	 mov	 ecx, DWORD PTR [esi+4]
; File C:\DS Project\DS Files\Source\ClientSource\Client\eterGrnLib\ThingInstance.cpp

; 253  : 		CGrannyLODController * pInstance = new CGrannyLODController;

  00066	c7 45 fc ff ff
	ff ff		 mov	 DWORD PTR __$EHRec$[ebp+8], -1
  0006d	89 45 08	 mov	 DWORD PTR _pInstance$3[ebp], eax
; File C:\Program Files (x86)\Microsoft Visual Studio\2019\Community\VC\Tools\MSVC\14.27.29110\include\vector

; 704  :         if (_Mylast != _My_data._Myend) {

  00070	3b 4e 08	 cmp	 ecx, DWORD PTR [esi+8]
  00073	74 08		 je	 SHORT $LN12@ReserveMod

; 687  :         _Alty_traits::construct(_Getal(), _Unfancy(_Mylast), _STD forward<_Valty>(_Val)...);

  00075	89 01		 mov	 DWORD PTR [ecx], eax

; 688  :         _Orphan_range(_Mylast, _Mylast);
; 689  :         _Ty& _Result = *_Mylast;
; 690  :         ++_Mylast;

  00077	83 46 04 04	 add	 DWORD PTR [esi+4], 4

; 705  :             return _Emplace_back_with_unused_capacity(_STD forward<_Valty>(_Val)...);

  0007b	eb 0c		 jmp	 SHORT $LN2@ReserveMod
$LN12@ReserveMod:

; 706  :         }
; 707  : 
; 708  :         _Ty& _Result = *_Emplace_reallocate(_Mylast, _STD forward<_Valty>(_Val)...);

  0007d	8d 45 08	 lea	 eax, DWORD PTR _pInstance$3[ebp]
  00080	50		 push	 eax
  00081	51		 push	 ecx
  00082	8b ce		 mov	 ecx, esi
  00084	e8 00 00 00 00	 call	 ??$_Emplace_reallocate@ABQAVCGrannyLODController@@@?$vector@PAVCGrannyLODController@@V?$allocator@PAVCGrannyLODController@@@std@@@std@@QAEPAPAVCGrannyLODController@@QAPAV2@ABQAV2@@Z ; std::vector<CGrannyLODController *,std::allocator<CGrannyLODController *> >::_Emplace_reallocate<CGrannyLODController * const &>
$LN2@ReserveMod:
; File C:\DS Project\DS Files\Source\ClientSource\Client\eterGrnLib\ThingInstance.cpp

; 251  : 	for (int i = 0; i < iCount; ++i)

  00089	83 ef 01	 sub	 edi, 1
  0008c	75 b2		 jne	 SHORT $LL4@ReserveMod
$LN3@ReserveMod:

; 254  : 		m_LODControllerVector.push_back(pInstance);
; 255  : 	}
; 256  : }

  0008e	8b 4d f4	 mov	 ecx, DWORD PTR __$EHRec$[ebp]
  00091	64 89 0d 00 00
	00 00		 mov	 DWORD PTR fs:0, ecx
  00098	59		 pop	 ecx
  00099	5f		 pop	 edi
  0009a	5e		 pop	 esi
  0009b	8b e5		 mov	 esp, ebp
  0009d	5d		 pop	 ebp
  0009e	c2 04 00	 ret	 4
_TEXT	ENDS
;	COMDAT text$x
text$x	SEGMENT
__unwindfunclet$?ReserveModelInstance@CGraphicThingInstance@@QAEXH@Z$0:
  00000	6a 3c		 push	 60			; 0000003cH
  00002	8b 45 f0	 mov	 eax, DWORD PTR $T2[ebp]
  00005	50		 push	 eax
  00006	e8 00 00 00 00	 call	 ??3@YAXPAXI@Z		; operator delete
  0000b	83 c4 08	 add	 esp, 8
  0000e	c3		 ret	 0
  0000f	cc		 int	 3
  00010	cc		 int	 3
  00011	cc		 int	 3
  00012	cc		 int	 3
  00013	cc		 int	 3
__ehhandler$?ReserveModelInstance@CGraphicThingInstance@@QAEXH@Z:
  00014	90		 npad	 1
  00015	90		 npad	 1
  00016	8b 54 24 08	 mov	 edx, DWORD PTR [esp+8]
  0001a	8d 42 0c	 lea	 eax, DWORD PTR [edx+12]
  0001d	8b 4a f0	 mov	 ecx, DWORD PTR [edx-16]
  00020	33 c8		 xor	 ecx, eax
  00022	e8 00 00 00 00	 call	 @__security_check_cookie@4
  00027	b8 00 00 00 00	 mov	 eax, OFFSET __ehfuncinfo$?ReserveModelInstance@CGraphicThingInstance@@QAEXH@Z
  0002c	e9 00 00 00 00	 jmp	 ___CxxFrameHandler3
text$x	ENDS
?ReserveModelInstance@CGraphicThingInstance@@QAEXH@Z ENDP ; CGraphicThingInstance::ReserveModelInstance
; Function compile flags: /Ogtp
; File C:\DS Project\DS Files\Source\ClientSource\Client\eterGrnLib\ThingInstance.cpp
; File C:\Program Files (x86)\Microsoft Visual Studio\2019\Community\VC\Tools\MSVC\14.27.29110\include\vector
; File C:\DS Project\DS Files\Source\ClientSource\Client\eterGrnLib\ThingInstance.cpp
; File C:\Program Files (x86)\Microsoft Visual Studio\2019\Community\VC\Tools\MSVC\14.27.29110\include\algorithm
; File C:\DS Project\DS Files\Source\ClientSource\Client\eterGrnLib\LODController.h
; File C:\Program Files (x86)\Microsoft Visual Studio\2019\Community\VC\Tools\MSVC\14.27.29110\include\algorithm
; File C:\DS Project\DS Files\Source\ClientSource\Client\eterGrnLib\ThingInstance.cpp
;	COMDAT ?DestroyDeviceObjects@CGraphicThingInstance@@QAEXXZ
_TEXT	SEGMENT
?DestroyDeviceObjects@CGraphicThingInstance@@QAEXXZ PROC ; CGraphicThingInstance::DestroyDeviceObjects, COMDAT
; _this$ = ecx

; 192  : {

  00000	53		 push	 ebx
; File C:\Program Files (x86)\Microsoft Visual Studio\2019\Community\VC\Tools\MSVC\14.27.29110\include\vector

; 42   :     _Vector_const_iterator(_Tptr _Parg, const _Container_base* _Pvector) noexcept : _Ptr(_Parg) {

  00001	8b 99 8c 02 00
	00		 mov	 ebx, DWORD PTR [ecx+652]
; File C:\DS Project\DS Files\Source\ClientSource\Client\eterGrnLib\ThingInstance.cpp

; 192  : {

  00007	56		 push	 esi
; File C:\Program Files (x86)\Microsoft Visual Studio\2019\Community\VC\Tools\MSVC\14.27.29110\include\algorithm

; 235  :     for (; _UFirst != _ULast; ++_UFirst) {

  00008	8b b1 88 02 00
	00		 mov	 esi, DWORD PTR [ecx+648]
  0000e	3b f3		 cmp	 esi, ebx
  00010	74 1d		 je	 SHORT $LN17@DestroyDev
  00012	57		 push	 edi
$LL18@DestroyDev:

; 236  :         _Func(*_UFirst);

  00013	8b 3e		 mov	 edi, DWORD PTR [esi]
; File C:\DS Project\DS Files\Source\ClientSource\Client\eterGrnLib\LODController.h

; 145  : 				if (pController->isModelInstance())

  00015	8b cf		 mov	 ecx, edi
  00017	e8 00 00 00 00	 call	 ?isModelInstance@CGrannyLODController@@QAEHXZ ; CGrannyLODController::isModelInstance
  0001c	85 c0		 test	 eax, eax
  0001e	74 07		 je	 SHORT $LN16@DestroyDev

; 146  : 					pController->DestroyDeviceObjects();

  00020	8b cf		 mov	 ecx, edi
  00022	e8 00 00 00 00	 call	 ?DestroyDeviceObjects@CGrannyLODController@@QAEXXZ ; CGrannyLODController::DestroyDeviceObjects
$LN16@DestroyDev:
; File C:\Program Files (x86)\Microsoft Visual Studio\2019\Community\VC\Tools\MSVC\14.27.29110\include\algorithm

; 235  :     for (; _UFirst != _ULast; ++_UFirst) {

  00027	83 c6 04	 add	 esi, 4
  0002a	3b f3		 cmp	 esi, ebx
  0002c	75 e5		 jne	 SHORT $LL18@DestroyDev
  0002e	5f		 pop	 edi
$LN17@DestroyDev:
  0002f	5e		 pop	 esi
; File C:\DS Project\DS Files\Source\ClientSource\Client\eterGrnLib\ThingInstance.cpp

; 195  : }

  00030	5b		 pop	 ebx
  00031	c3		 ret	 0
?DestroyDeviceObjects@CGraphicThingInstance@@QAEXXZ ENDP ; CGraphicThingInstance::DestroyDeviceObjects
_TEXT	ENDS
; Function compile flags: /Ogtp
; File C:\DS Project\DS Files\Source\ClientSource\Client\eterGrnLib\ThingInstance.cpp
; File C:\Program Files (x86)\Microsoft Visual Studio\2019\Community\VC\Tools\MSVC\14.27.29110\include\vector
; File C:\DS Project\DS Files\Source\ClientSource\Client\eterGrnLib\ThingInstance.cpp
; File C:\Program Files (x86)\Microsoft Visual Studio\2019\Community\VC\Tools\MSVC\14.27.29110\include\algorithm
; File C:\DS Project\DS Files\Source\ClientSource\Client\eterGrnLib\LODController.h
; File C:\Program Files (x86)\Microsoft Visual Studio\2019\Community\VC\Tools\MSVC\14.27.29110\include\algorithm
; File C:\DS Project\DS Files\Source\ClientSource\Client\eterGrnLib\ThingInstance.cpp
;	COMDAT ?CreateDeviceObjects@CGraphicThingInstance@@QAE_NXZ
_TEXT	SEGMENT
?CreateDeviceObjects@CGraphicThingInstance@@QAE_NXZ PROC ; CGraphicThingInstance::CreateDeviceObjects, COMDAT
; _this$ = ecx

; 185  : {

  00000	53		 push	 ebx
; File C:\Program Files (x86)\Microsoft Visual Studio\2019\Community\VC\Tools\MSVC\14.27.29110\include\vector

; 42   :     _Vector_const_iterator(_Tptr _Parg, const _Container_base* _Pvector) noexcept : _Ptr(_Parg) {

  00001	8b 99 8c 02 00
	00		 mov	 ebx, DWORD PTR [ecx+652]
; File C:\DS Project\DS Files\Source\ClientSource\Client\eterGrnLib\ThingInstance.cpp

; 185  : {

  00007	56		 push	 esi
; File C:\Program Files (x86)\Microsoft Visual Studio\2019\Community\VC\Tools\MSVC\14.27.29110\include\algorithm

; 235  :     for (; _UFirst != _ULast; ++_UFirst) {

  00008	8b b1 88 02 00
	00		 mov	 esi, DWORD PTR [ecx+648]
  0000e	3b f3		 cmp	 esi, ebx
  00010	74 1d		 je	 SHORT $LN27@CreateDevi
  00012	57		 push	 edi
$LL18@CreateDevi:

; 236  :         _Func(*_UFirst);

  00013	8b 3e		 mov	 edi, DWORD PTR [esi]
; File C:\DS Project\DS Files\Source\ClientSource\Client\eterGrnLib\LODController.h

; 136  : 				if (pController->isModelInstance())

  00015	8b cf		 mov	 ecx, edi
  00017	e8 00 00 00 00	 call	 ?isModelInstance@CGrannyLODController@@QAEHXZ ; CGrannyLODController::isModelInstance
  0001c	85 c0		 test	 eax, eax
  0001e	74 07		 je	 SHORT $LN16@CreateDevi

; 137  : 					pController->CreateDeviceObjects();

  00020	8b cf		 mov	 ecx, edi
  00022	e8 00 00 00 00	 call	 ?CreateDeviceObjects@CGrannyLODController@@QAEXXZ ; CGrannyLODController::CreateDeviceObjects
$LN16@CreateDevi:
; File C:\Program Files (x86)\Microsoft Visual Studio\2019\Community\VC\Tools\MSVC\14.27.29110\include\algorithm

; 235  :     for (; _UFirst != _ULast; ++_UFirst) {

  00027	83 c6 04	 add	 esi, 4
  0002a	3b f3		 cmp	 esi, ebx
  0002c	75 e5		 jne	 SHORT $LL18@CreateDevi
; File C:\DS Project\DS Files\Source\ClientSource\Client\eterGrnLib\ThingInstance.cpp

; 188  : 	return true;

  0002e	5f		 pop	 edi
$LN27@CreateDevi:
  0002f	5e		 pop	 esi

; 189  : }

  00030	b0 01		 mov	 al, 1
  00032	5b		 pop	 ebx
  00033	c3		 ret	 0
?CreateDeviceObjects@CGraphicThingInstance@@QAE_NXZ ENDP ; CGraphicThingInstance::CreateDeviceObjects
_TEXT	ENDS
; Function compile flags: /Ogtp
; File C:\DS Project\DS Files\Source\ClientSource\Client\eterGrnLib\ThingInstance.cpp
; File C:\DS Project\DS Files\Source\ClientSource\extern\include\d3dx8math.inl
; File C:\DS Project\DS Files\Source\ClientSource\Client\eterGrnLib\ThingInstance.cpp
;	COMDAT ?OnInitialize@CGraphicThingInstance@@UAEXXZ
_TEXT	SEGMENT
$T1 = -12						; size = 12
?OnInitialize@CGraphicThingInstance@@UAEXXZ PROC	; CGraphicThingInstance::OnInitialize, COMDAT
; _this$ = ecx

; 964  : {

  00000	55		 push	 ebp
  00001	8b ec		 mov	 ebp, esp
  00003	83 ec 0c	 sub	 esp, 12			; 0000000cH
  00006	0f 57 c0	 xorps	 xmm0, xmm0
; File C:\DS Project\DS Files\Source\ClientSource\extern\include\d3dx8math.inl

; 182  :     z = fz;

  00009	c7 45 fc 00 00
	00 00		 mov	 DWORD PTR $T1[ebp+8], 0
; File C:\DS Project\DS Files\Source\ClientSource\Client\eterGrnLib\ThingInstance.cpp

; 972  : 	m_v3Center = D3DXVECTOR3(0.0f, 0.0f, 0.0f);

  00010	8b 45 fc	 mov	 eax, DWORD PTR $T1[ebp+8]
  00013	0f 14 c0	 unpcklps xmm0, xmm0
  00016	66 0f d6 81 64
	02 00 00	 movq	 QWORD PTR [ecx+612], xmm0
  0001e	c6 81 48 02 00
	00 00		 mov	 BYTE PTR [ecx+584], 0
  00025	c7 81 4c 02 00
	00 00 00 00 00	 mov	 DWORD PTR [ecx+588], 0
  0002f	c7 81 50 02 00
	00 00 00 00 00	 mov	 DWORD PTR [ecx+592], 0
  00039	c7 81 54 02 00
	00 00 00 00 00	 mov	 DWORD PTR [ecx+596], 0
  00043	c7 81 58 02 00
	00 00 00 00 00	 mov	 DWORD PTR [ecx+600], 0
  0004d	c7 81 5c 02 00
	00 8f c2 f5 3c	 mov	 DWORD PTR [ecx+604], 1022739087 ; 3cf5c28fH
  00057	c7 81 60 02 00
	00 00 00 80 bf	 mov	 DWORD PTR [ecx+608], -1082130432 ; bf800000H
  00061	89 81 6c 02 00
	00		 mov	 DWORD PTR [ecx+620], eax

; 973  : 
; 974  : 	ResetLocalTime();

  00067	e8 00 00 00 00	 call	 ?ResetLocalTime@CGraphicThingInstance@@QAEXXZ ; CGraphicThingInstance::ResetLocalTime

; 975  : }

  0006c	8b e5		 mov	 esp, ebp
  0006e	5d		 pop	 ebp
  0006f	c3		 ret	 0
?OnInitialize@CGraphicThingInstance@@UAEXXZ ENDP	; CGraphicThingInstance::OnInitialize
_TEXT	ENDS
; Function compile flags: /Ogtp
; File C:\DS Project\DS Files\Source\ClientSource\Client\eterGrnLib\ThingInstance.cpp
;	COMDAT ?Picking@CGraphicThingInstance@@QAE_NABUD3DXVECTOR3@@0AAM1@Z
_TEXT	SEGMENT
_v$ = 8							; size = 4
_dir$ = 12						; size = 4
_out_x$ = 16						; size = 4
_out_y$ = 20						; size = 4
?Picking@CGraphicThingInstance@@QAE_NABUD3DXVECTOR3@@0AAM1@Z PROC ; CGraphicThingInstance::Picking, COMDAT
; _this$ = ecx

; 60   : {

  00000	55		 push	 ebp
  00001	8b ec		 mov	 ebp, esp

; 61   : 	if (!m_pHeightAttributeInstance)

  00003	8b 89 44 02 00
	00		 mov	 ecx, DWORD PTR [ecx+580]
  00009	85 c9		 test	 ecx, ecx
  0000b	75 06		 jne	 SHORT $LN2@Picking

; 62   : 		return false;

  0000d	32 c0		 xor	 al, al

; 64   : }

  0000f	5d		 pop	 ebp
  00010	c2 10 00	 ret	 16			; 00000010H
$LN2@Picking:
  00013	5d		 pop	 ebp

; 63   : 	return m_pHeightAttributeInstance->Picking(v,dir,out_x,out_y);

  00014	e9 00 00 00 00	 jmp	 ?Picking@CAttributeInstance@@QAE_NABUD3DXVECTOR3@@0AAM1@Z ; CAttributeInstance::Picking
?Picking@CGraphicThingInstance@@QAE_NABUD3DXVECTOR3@@0AAM1@Z ENDP ; CGraphicThingInstance::Picking
_TEXT	ENDS
; Function compile flags: /Ogtp
; File C:\DS Project\DS Files\Source\ClientSource\Client\eterGrnLib\ThingInstance.cpp
;	COMDAT ?LessRenderOrder@CGraphicThingInstance@@QAE_NPAV1@@Z
_TEXT	SEGMENT
_pkThingInst$ = 8					; size = 4
?LessRenderOrder@CGraphicThingInstance@@QAE_NPAV1@@Z PROC ; CGraphicThingInstance::LessRenderOrder, COMDAT
; _this$ = ecx

; 29   : {

  00000	55		 push	 ebp
  00001	8b ec		 mov	 ebp, esp
  00003	56		 push	 esi
  00004	57		 push	 edi
  00005	8b f9		 mov	 edi, ecx

; 30   : 	return (GetBaseThingPtr()<pkThingInst->GetBaseThingPtr());

  00007	8b 4d 08	 mov	 ecx, DWORD PTR _pkThingInst$[ebp]
  0000a	e8 00 00 00 00	 call	 ?GetBaseThingPtr@CGraphicThingInstance@@QAEPAVCGraphicThing@@XZ ; CGraphicThingInstance::GetBaseThingPtr
  0000f	8b cf		 mov	 ecx, edi
  00011	8b f0		 mov	 esi, eax
  00013	e8 00 00 00 00	 call	 ?GetBaseThingPtr@CGraphicThingInstance@@QAEPAVCGraphicThing@@XZ ; CGraphicThingInstance::GetBaseThingPtr
  00018	3b c6		 cmp	 eax, esi
  0001a	5f		 pop	 edi
  0001b	0f 92 c0	 setb	 al
  0001e	5e		 pop	 esi

; 31   : }

  0001f	5d		 pop	 ebp
  00020	c2 04 00	 ret	 4
?LessRenderOrder@CGraphicThingInstance@@QAE_NPAV1@@Z ENDP ; CGraphicThingInstance::LessRenderOrder
_TEXT	ENDS
; Function compile flags: /Ogtp
; File C:\DS Project\DS Files\Source\ClientSource\Client\eterGrnLib\ThingInstance.cpp
; File C:\Program Files (x86)\Microsoft Visual Studio\2019\Community\VC\Tools\MSVC\14.27.29110\include\vector
; File C:\DS Project\DS Files\Source\ClientSource\Client\eterGrnLib\ThingInstance.cpp
; File C:\Program Files (x86)\Microsoft Visual Studio\2019\Community\VC\Tools\MSVC\14.27.29110\include\algorithm
; File C:\Program Files (x86)\Microsoft Visual Studio\2019\Community\VC\Tools\MSVC\14.27.29110\include\vector
; File C:\Program Files (x86)\Microsoft Visual Studio\2019\Community\VC\Tools\MSVC\14.27.29110\include\algorithm
; File C:\DS Project\DS Files\Source\ClientSource\Client\eterGrnLib\LODController.h
; File C:\Program Files (x86)\Microsoft Visual Studio\2019\Community\VC\Tools\MSVC\14.27.29110\include\algorithm
; File C:\DS Project\DS Files\Source\ClientSource\Client\eterGrnLib\ThingInstance.cpp
;	COMDAT ?DeformAll@CGraphicThingInstance@@QAEXXZ
_TEXT	SEGMENT
tv224 = -4						; size = 4
?DeformAll@CGraphicThingInstance@@QAEXXZ PROC		; CGraphicThingInstance::DeformAll, COMDAT
; _this$ = ecx

; 683  : {

  00000	55		 push	 ebp
  00001	8b ec		 mov	 ebp, esp
  00003	51		 push	 ecx
  00004	56		 push	 esi

; 684  : 	m_bUpdated = true;

  00005	c6 81 48 02 00
	00 01		 mov	 BYTE PTR [ecx+584], 1

; 685  : 
; 686  : 	CGrannyLODController::FDeformAll deform;
; 687  : 	deform.mc_pWorldMatrix = &m_worldMatrix;

  0000c	8d 71 6c	 lea	 esi, DWORD PTR [ecx+108]
; File C:\Program Files (x86)\Microsoft Visual Studio\2019\Community\VC\Tools\MSVC\14.27.29110\include\vector

; 42   :     _Vector_const_iterator(_Tptr _Parg, const _Container_base* _Pvector) noexcept : _Ptr(_Parg) {

  0000f	8b 81 8c 02 00
	00		 mov	 eax, DWORD PTR [ecx+652]
; File C:\DS Project\DS Files\Source\ClientSource\Client\eterGrnLib\ThingInstance.cpp

; 683  : {

  00015	57		 push	 edi
; File C:\Program Files (x86)\Microsoft Visual Studio\2019\Community\VC\Tools\MSVC\14.27.29110\include\algorithm

; 235  :     for (; _UFirst != _ULast; ++_UFirst) {

  00016	8b b9 88 02 00
	00		 mov	 edi, DWORD PTR [ecx+648]
; File C:\Program Files (x86)\Microsoft Visual Studio\2019\Community\VC\Tools\MSVC\14.27.29110\include\vector

; 42   :     _Vector_const_iterator(_Tptr _Parg, const _Container_base* _Pvector) noexcept : _Ptr(_Parg) {

  0001c	89 45 fc	 mov	 DWORD PTR tv224[ebp], eax
; File C:\Program Files (x86)\Microsoft Visual Studio\2019\Community\VC\Tools\MSVC\14.27.29110\include\algorithm

; 235  :     for (; _UFirst != _ULast; ++_UFirst) {

  0001f	3b f8		 cmp	 edi, eax
  00021	74 1f		 je	 SHORT $LN17@DeformAll
  00023	53		 push	 ebx
$LL18@DeformAll:

; 236  :         _Func(*_UFirst);

  00024	8b 1f		 mov	 ebx, DWORD PTR [edi]
; File C:\DS Project\DS Files\Source\ClientSource\Client\eterGrnLib\LODController.h

; 127  : 				if (pController->isModelInstance())

  00026	8b cb		 mov	 ecx, ebx
  00028	e8 00 00 00 00	 call	 ?isModelInstance@CGrannyLODController@@QAEHXZ ; CGrannyLODController::isModelInstance
  0002d	85 c0		 test	 eax, eax
  0002f	74 08		 je	 SHORT $LN16@DeformAll

; 128  : 					pController->DeformAll(mc_pWorldMatrix);

  00031	56		 push	 esi
  00032	8b cb		 mov	 ecx, ebx
  00034	e8 00 00 00 00	 call	 ?DeformAll@CGrannyLODController@@QAEXPBUD3DXMATRIX@@@Z ; CGrannyLODController::DeformAll
$LN16@DeformAll:
; File C:\Program Files (x86)\Microsoft Visual Studio\2019\Community\VC\Tools\MSVC\14.27.29110\include\algorithm

; 235  :     for (; _UFirst != _ULast; ++_UFirst) {

  00039	83 c7 04	 add	 edi, 4
  0003c	3b 7d fc	 cmp	 edi, DWORD PTR tv224[ebp]
  0003f	75 e3		 jne	 SHORT $LL18@DeformAll
  00041	5b		 pop	 ebx
$LN17@DeformAll:
  00042	5f		 pop	 edi
; File C:\DS Project\DS Files\Source\ClientSource\Client\eterGrnLib\ThingInstance.cpp

; 689  : }

  00043	5e		 pop	 esi
  00044	8b e5		 mov	 esp, ebp
  00046	5d		 pop	 ebp
  00047	c3		 ret	 0
?DeformAll@CGraphicThingInstance@@QAEXXZ ENDP		; CGraphicThingInstance::DeformAll
_TEXT	ENDS
; Function compile flags: /Ogtp
; File C:\DS Project\DS Files\Source\ClientSource\Client\eterGrnLib\ThingInstance.cpp
; File C:\Program Files (x86)\Microsoft Visual Studio\2019\Community\VC\Tools\MSVC\14.27.29110\include\vector
; File C:\DS Project\DS Files\Source\ClientSource\Client\eterGrnLib\ThingInstance.cpp
; File C:\Program Files (x86)\Microsoft Visual Studio\2019\Community\VC\Tools\MSVC\14.27.29110\include\algorithm
; File C:\DS Project\DS Files\Source\ClientSource\Client\eterGrnLib\LODController.h
; File C:\Program Files (x86)\Microsoft Visual Studio\2019\Community\VC\Tools\MSVC\14.27.29110\include\algorithm
; File C:\DS Project\DS Files\Source\ClientSource\Client\eterGrnLib\ThingInstance.cpp
;	COMDAT ?UpdateTime@CGraphicThingInstance@@QAEXXZ
_TEXT	SEGMENT
tv168 = -4						; size = 4
$T1 = -4						; size = 4
?UpdateTime@CGraphicThingInstance@@QAEXXZ PROC		; CGraphicThingInstance::UpdateTime, COMDAT
; _this$ = ecx

; 767  : {

  00000	55		 push	 ebp
  00001	8b ec		 mov	 ebp, esp
  00003	51		 push	 ecx
  00004	53		 push	 ebx
  00005	56		 push	 esi
  00006	8b f1		 mov	 esi, ecx

; 768  : 	//granny_system_clock clockNow = GrannyGetSystemSeconds();
; 769  : 	//m_fSecondElapsed = GrannyGetSecondsElapsed(&m_clockLast, &clockNow) * m_fMotionTimeSpeed;
; 770  : 
; 771  : 	//DWORD t1=ELTimer_GetMSec();
; 772  : 
; 773  : 	m_fSecondElapsed=CTimer::Instance().GetElapsedSecond();

  00008	8b 0d 00 00 00
	00		 mov	 ecx, DWORD PTR ?ms_singleton@?$CSingleton@VCTimer@@@@0PAVCTimer@@A ; CSingleton<CTimer>::ms_singleton
  0000e	e8 00 00 00 00	 call	 ?GetElapsedSecond@CTimer@@QAEMXZ ; CTimer::GetElapsedSecond

; 774  : 
; 775  : 	if (m_fDelay > m_fSecondElapsed)

  00013	f3 0f 10 86 54
	02 00 00	 movss	 xmm0, DWORD PTR [esi+596]
  0001b	d9 5d fc	 fstp	 DWORD PTR tv168[ebp]
  0001e	f3 0f 10 4d fc	 movss	 xmm1, DWORD PTR tv168[ebp]
  00023	0f 2f c1	 comiss	 xmm0, xmm1
  00026	76 09		 jbe	 SHORT $LN2@UpdateTime

; 776  : 	{
; 777  : 		m_fDelay -= m_fSecondElapsed;

  00028	0f 57 d2	 xorps	 xmm2, xmm2
  0002b	f3 0f 5c c1	 subss	 xmm0, xmm1

; 778  : 		m_fSecondElapsed = 0.0f;
; 779  : 	}

  0002f	eb 0a		 jmp	 SHORT $LN29@UpdateTime
$LN2@UpdateTime:

; 780  : 	else
; 781  : 	{
; 782  : 		m_fSecondElapsed -= m_fDelay;

  00031	0f 28 d1	 movaps	 xmm2, xmm1
  00034	f3 0f 5c d0	 subss	 xmm2, xmm0
  00038	0f 57 c0	 xorps	 xmm0, xmm0
$LN29@UpdateTime:

; 788  : 	m_fAverageSecondElapsed = m_fAverageSecondElapsed + (m_fSecondElapsed - m_fAverageSecondElapsed) / 4.0f;

  0003b	f3 0f 10 8e 5c
	02 00 00	 movss	 xmm1, DWORD PTR [esi+604]
  00043	f3 0f 11 86 54
	02 00 00	 movss	 DWORD PTR [esi+596], xmm0
  0004b	f3 0f 10 86 50
	02 00 00	 movss	 xmm0, DWORD PTR [esi+592]
; File C:\Program Files (x86)\Microsoft Visual Studio\2019\Community\VC\Tools\MSVC\14.27.29110\include\vector

; 42   :     _Vector_const_iterator(_Tptr _Parg, const _Container_base* _Pvector) noexcept : _Ptr(_Parg) {

  00053	8b 9e 8c 02 00
	00		 mov	 ebx, DWORD PTR [esi+652]
; File C:\DS Project\DS Files\Source\ClientSource\Client\eterGrnLib\ThingInstance.cpp

; 786  : 	m_fLastLocalTime = m_fLocalTime;

  00059	f3 0f 11 86 4c
	02 00 00	 movss	 DWORD PTR [esi+588], xmm0

; 787  : 	m_fLocalTime += m_fSecondElapsed;

  00061	f3 0f 58 c2	 addss	 xmm0, xmm2
  00065	f3 0f 11 96 58
	02 00 00	 movss	 DWORD PTR [esi+600], xmm2
  0006d	f3 0f 11 55 fc	 movss	 DWORD PTR $T1[ebp], xmm2
  00072	f3 0f 11 86 50
	02 00 00	 movss	 DWORD PTR [esi+592], xmm0

; 788  : 	m_fAverageSecondElapsed = m_fAverageSecondElapsed + (m_fSecondElapsed - m_fAverageSecondElapsed) / 4.0f;

  0007a	0f 28 c2	 movaps	 xmm0, xmm2
  0007d	f3 0f 5c c1	 subss	 xmm0, xmm1
  00081	f3 0f 59 05 00
	00 00 00	 mulss	 xmm0, DWORD PTR __real@3e800000
  00089	f3 0f 58 c1	 addss	 xmm0, xmm1
  0008d	f3 0f 11 86 5c
	02 00 00	 movss	 DWORD PTR [esi+604], xmm0
; File C:\Program Files (x86)\Microsoft Visual Studio\2019\Community\VC\Tools\MSVC\14.27.29110\include\algorithm

; 235  :     for (; _UFirst != _ULast; ++_UFirst) {

  00095	8b b6 88 02 00
	00		 mov	 esi, DWORD PTR [esi+648]
  0009b	3b f3		 cmp	 esi, ebx
  0009d	74 28		 je	 SHORT $LN19@UpdateTime
  0009f	57		 push	 edi
$LL20@UpdateTime:

; 236  :         _Func(*_UFirst);

  000a0	8b 3e		 mov	 edi, DWORD PTR [esi]
; File C:\DS Project\DS Files\Source\ClientSource\Client\eterGrnLib\LODController.h

; 30   : 				if (pController->isModelInstance())

  000a2	8b cf		 mov	 ecx, edi
  000a4	e8 00 00 00 00	 call	 ?isModelInstance@CGrannyLODController@@QAEHXZ ; CGrannyLODController::isModelInstance
  000a9	85 c0		 test	 eax, eax
  000ab	74 12		 je	 SHORT $LN18@UpdateTime

; 31   : 					pController->UpdateTime(fElapsedTime);

  000ad	f3 0f 10 45 fc	 movss	 xmm0, DWORD PTR $T1[ebp]
  000b2	51		 push	 ecx
  000b3	8b cf		 mov	 ecx, edi
  000b5	f3 0f 11 04 24	 movss	 DWORD PTR [esp], xmm0
  000ba	e8 00 00 00 00	 call	 ?UpdateTime@CGrannyLODController@@QAEXM@Z ; CGrannyLODController::UpdateTime
$LN18@UpdateTime:
; File C:\Program Files (x86)\Microsoft Visual Studio\2019\Community\VC\Tools\MSVC\14.27.29110\include\algorithm

; 235  :     for (; _UFirst != _ULast; ++_UFirst) {

  000bf	83 c6 04	 add	 esi, 4
  000c2	3b f3		 cmp	 esi, ebx
  000c4	75 da		 jne	 SHORT $LL20@UpdateTime
  000c6	5f		 pop	 edi
$LN19@UpdateTime:
  000c7	5e		 pop	 esi
; File C:\DS Project\DS Files\Source\ClientSource\Client\eterGrnLib\ThingInstance.cpp

; 794  : }

  000c8	5b		 pop	 ebx
  000c9	8b e5		 mov	 esp, ebp
  000cb	5d		 pop	 ebp
  000cc	c3		 ret	 0
?UpdateTime@CGraphicThingInstance@@QAEXXZ ENDP		; CGraphicThingInstance::UpdateTime
_TEXT	ENDS
; Function compile flags: /Ogtp
; File C:\DS Project\DS Files\Source\ClientSource\Client\eterGrnLib\ThingInstance.cpp
; File C:\Program Files (x86)\Windows Kits\10\Include\10.0.18362.0\ucrt\corecrt_math.h
; File C:\DS Project\DS Files\Source\ClientSource\Client\eterGrnLib\ThingInstance.cpp
; File C:\Program Files (x86)\Windows Kits\10\Include\10.0.18362.0\ucrt\corecrt_math.h
; File C:\DS Project\DS Files\Source\ClientSource\Client\eterGrnLib\ThingInstance.cpp
; File C:\Program Files (x86)\Windows Kits\10\Include\10.0.18362.0\ucrt\corecrt_math.h
; File C:\DS Project\DS Files\Source\ClientSource\Client\eterGrnLib\ThingInstance.cpp
; File C:\Program Files (x86)\Windows Kits\10\Include\10.0.18362.0\ucrt\corecrt_math.h
; File C:\Program Files (x86)\Microsoft Visual Studio\2019\Community\VC\Tools\MSVC\14.27.29110\include\algorithm
; File C:\Program Files (x86)\Microsoft Visual Studio\2019\Community\VC\Tools\MSVC\14.27.29110\include\vector
; File C:\Program Files (x86)\Windows Kits\10\Include\10.0.18362.0\ucrt\corecrt_math.h
; File C:\Program Files (x86)\Microsoft Visual Studio\2019\Community\VC\Tools\MSVC\14.27.29110\include\algorithm
; File C:\Program Files (x86)\Windows Kits\10\Include\10.0.18362.0\ucrt\corecrt_math.h
; File C:\Program Files (x86)\Microsoft Visual Studio\2019\Community\VC\Tools\MSVC\14.27.29110\include\algorithm
; File C:\DS Project\DS Files\Source\ClientSource\Client\eterGrnLib\LODController.h
; File C:\Program Files (x86)\Microsoft Visual Studio\2019\Community\VC\Tools\MSVC\14.27.29110\include\algorithm
; File C:\DS Project\DS Files\Source\ClientSource\Client\eterGrnLib\ThingInstance.cpp
;	COMDAT ?UpdateLODLevel@CGraphicThingInstance@@QAEXXZ
_TEXT	SEGMENT
_this$1$ = -12						; size = 4
_update$$sroa$212$1$ = -8				; size = 4
_update$$sroa$214$1$ = -4				; size = 4
?UpdateLODLevel@CGraphicThingInstance@@QAEXXZ PROC	; CGraphicThingInstance::UpdateLODLevel, COMDAT
; _this$ = ecx

; 744  : {

  00000	55		 push	 ebp
  00001	8b ec		 mov	 ebp, esp
  00003	83 e4 f8	 and	 esp, -8			; fffffff8H
  00006	83 ec 0c	 sub	 esp, 12			; 0000000cH
  00009	53		 push	 ebx
  0000a	56		 push	 esi
  0000b	8b d9		 mov	 ebx, ecx

; 745  : 	CCamera * pcurCamera = CCameraManager::Instance().GetCurrentCamera();

  0000d	8b 0d 00 00 00
	00		 mov	 ecx, DWORD PTR ?ms_singleton@?$CSingleton@VCCameraManager@@@@0PAVCCameraManager@@A ; CSingleton<CCameraManager>::ms_singleton
  00013	57		 push	 edi
  00014	89 5c 24 0c	 mov	 DWORD PTR _this$1$[esp+24], ebx
  00018	e8 00 00 00 00	 call	 ?GetCurrentCamera@CCameraManager@@QAEPAVCCamera@@XZ ; CCameraManager::GetCurrentCamera
  0001d	8b f8		 mov	 edi, eax

; 746  : 	if (!pcurCamera)

  0001f	85 ff		 test	 edi, edi
  00021	75 14		 jne	 SHORT $LN2@UpdateLODL

; 747  : 	{
; 748  : 		TraceError("CGraphicThingInstance::UpdateLODLevel - GetCurrentCamera() == NULL");

  00023	68 00 00 00 00	 push	 OFFSET ??_C@_0ED@LMOOEEKB@CGraphicThingInstance?3?3UpdateLO@
  00028	e8 00 00 00 00	 call	 ?TraceError@@YAXPBDZZ	; TraceError
  0002d	83 c4 04	 add	 esp, 4

; 764  : }

  00030	5f		 pop	 edi
  00031	5e		 pop	 esi
  00032	5b		 pop	 ebx
  00033	8b e5		 mov	 esp, ebp
  00035	5d		 pop	 ebp
  00036	c3		 ret	 0
$LN2@UpdateLODL:

; 749  : 		return;
; 750  : 	}
; 751  : 
; 752  : 	const D3DXVECTOR3 & c_rv3TargetPosition = pcurCamera->GetTarget();
; 753  : 	const D3DXVECTOR3 & c_rv3CameraPosition = pcurCamera->GetEye();
; 754  : 	const D3DXVECTOR3 & c_v3Position = GetPosition();

  00037	8b cb		 mov	 ecx, ebx
  00039	e8 00 00 00 00	 call	 ?GetPosition@CGraphicObjectInstance@@QBEABUD3DXVECTOR3@@XZ ; CGraphicObjectInstance::GetPosition

; 755  : 
; 756  : 	CGrannyLODController::FUpdateLODLevel update;
; 757  : 	update.fDistanceFromCenter = sqrtf((c_rv3TargetPosition.x - c_v3Position.x) * (c_rv3TargetPosition.x - c_v3Position.x) +

  0003e	f3 0f 10 4f 40	 movss	 xmm1, DWORD PTR [edi+64]
  00043	8b f0		 mov	 esi, eax
  00045	f3 0f 10 47 3c	 movss	 xmm0, DWORD PTR [edi+60]
  0004a	f3 0f 5c 06	 subss	 xmm0, DWORD PTR [esi]
  0004e	f3 0f 5c 4e 04	 subss	 xmm1, DWORD PTR [esi+4]
  00053	f3 0f 59 c0	 mulss	 xmm0, xmm0
  00057	f3 0f 59 c9	 mulss	 xmm1, xmm1
  0005b	f3 0f 58 c1	 addss	 xmm0, xmm1
  0005f	0f 57 c9	 xorps	 xmm1, xmm1
; File C:\Program Files (x86)\Windows Kits\10\Include\10.0.18362.0\ucrt\corecrt_math.h

; 760  :             return (float)sqrt(_X);

  00062	0f 5a c0	 cvtps2pd xmm0, xmm0
  00065	66 0f 2e c8	 ucomisd xmm1, xmm0
  00069	77 06		 ja	 SHORT $LN32@UpdateLODL
  0006b	f2 0f 51 c0	 sqrtsd	 xmm0, xmm0
  0006f	eb 05		 jmp	 SHORT $LN33@UpdateLODL
$LN32@UpdateLODL:
  00071	e8 00 00 00 00	 call	 __libm_sse2_sqrt_precise
$LN33@UpdateLODL:
; File C:\DS Project\DS Files\Source\ClientSource\Client\eterGrnLib\ThingInstance.cpp

; 759  : 	update.fDistanceFromCamera = sqrtf((c_rv3CameraPosition.x - c_v3Position.x) * (c_rv3CameraPosition.x - c_v3Position.x) +

  00076	f3 0f 10 4f 34	 movss	 xmm1, DWORD PTR [edi+52]
  0007b	f3 0f 10 57 30	 movss	 xmm2, DWORD PTR [edi+48]
  00080	f3 0f 5c 16	 subss	 xmm2, DWORD PTR [esi]
  00084	f3 0f 5c 4e 04	 subss	 xmm1, DWORD PTR [esi+4]
; File C:\Program Files (x86)\Windows Kits\10\Include\10.0.18362.0\ucrt\corecrt_math.h

; 760  :             return (float)sqrt(_X);

  00089	f2 0f 5a c0	 cvtsd2ss xmm0, xmm0
; File C:\DS Project\DS Files\Source\ClientSource\Client\eterGrnLib\ThingInstance.cpp

; 759  : 	update.fDistanceFromCamera = sqrtf((c_rv3CameraPosition.x - c_v3Position.x) * (c_rv3CameraPosition.x - c_v3Position.x) +

  0008d	f3 0f 59 d2	 mulss	 xmm2, xmm2
; File C:\Program Files (x86)\Windows Kits\10\Include\10.0.18362.0\ucrt\corecrt_math.h

; 760  :             return (float)sqrt(_X);

  00091	f3 0f 11 44 24
	14		 movss	 DWORD PTR _update$$sroa$214$1$[esp+24], xmm0
; File C:\DS Project\DS Files\Source\ClientSource\Client\eterGrnLib\ThingInstance.cpp

; 759  : 	update.fDistanceFromCamera = sqrtf((c_rv3CameraPosition.x - c_v3Position.x) * (c_rv3CameraPosition.x - c_v3Position.x) +

  00097	f3 0f 10 47 38	 movss	 xmm0, DWORD PTR [edi+56]
  0009c	f3 0f 5c 46 08	 subss	 xmm0, DWORD PTR [esi+8]
  000a1	f3 0f 59 c9	 mulss	 xmm1, xmm1
  000a5	f3 0f 58 d1	 addss	 xmm2, xmm1
  000a9	f3 0f 59 c0	 mulss	 xmm0, xmm0
  000ad	0f 57 c9	 xorps	 xmm1, xmm1
  000b0	f3 0f 58 d0	 addss	 xmm2, xmm0
; File C:\Program Files (x86)\Windows Kits\10\Include\10.0.18362.0\ucrt\corecrt_math.h

; 760  :             return (float)sqrt(_X);

  000b4	0f 5a c2	 cvtps2pd xmm0, xmm2
  000b7	66 0f 2e c8	 ucomisd xmm1, xmm0
  000bb	77 06		 ja	 SHORT $LN34@UpdateLODL
  000bd	f2 0f 51 c0	 sqrtsd	 xmm0, xmm0
  000c1	eb 05		 jmp	 SHORT $LN35@UpdateLODL
$LN34@UpdateLODL:
  000c3	e8 00 00 00 00	 call	 __libm_sse2_sqrt_precise
$LN35@UpdateLODL:
; File C:\Program Files (x86)\Microsoft Visual Studio\2019\Community\VC\Tools\MSVC\14.27.29110\include\algorithm

; 235  :     for (; _UFirst != _ULast; ++_UFirst) {

  000c8	8b 74 24 0c	 mov	 esi, DWORD PTR _this$1$[esp+24]
; File C:\Program Files (x86)\Microsoft Visual Studio\2019\Community\VC\Tools\MSVC\14.27.29110\include\vector

; 42   :     _Vector_const_iterator(_Tptr _Parg, const _Container_base* _Pvector) noexcept : _Ptr(_Parg) {

  000cc	8b 9b 8c 02 00
	00		 mov	 ebx, DWORD PTR [ebx+652]
; File C:\Program Files (x86)\Windows Kits\10\Include\10.0.18362.0\ucrt\corecrt_math.h

; 760  :             return (float)sqrt(_X);

  000d2	f2 0f 5a c0	 cvtsd2ss xmm0, xmm0
; File C:\Program Files (x86)\Microsoft Visual Studio\2019\Community\VC\Tools\MSVC\14.27.29110\include\algorithm

; 235  :     for (; _UFirst != _ULast; ++_UFirst) {

  000d6	8b b6 88 02 00
	00		 mov	 esi, DWORD PTR [esi+648]
; File C:\Program Files (x86)\Windows Kits\10\Include\10.0.18362.0\ucrt\corecrt_math.h

; 760  :             return (float)sqrt(_X);

  000dc	f3 0f 11 44 24
	10		 movss	 DWORD PTR _update$$sroa$212$1$[esp+24], xmm0
; File C:\Program Files (x86)\Microsoft Visual Studio\2019\Community\VC\Tools\MSVC\14.27.29110\include\algorithm

; 235  :     for (; _UFirst != _ULast; ++_UFirst) {

  000e2	3b f3		 cmp	 esi, ebx
  000e4	74 35		 je	 SHORT $LN22@UpdateLODL
$LL23@UpdateLODL:

; 236  :         _Func(*_UFirst);

  000e6	8b 3e		 mov	 edi, DWORD PTR [esi]
; File C:\DS Project\DS Files\Source\ClientSource\Client\eterGrnLib\LODController.h

; 42   : 				if (pController->isModelInstance())

  000e8	8b cf		 mov	 ecx, edi
  000ea	e8 00 00 00 00	 call	 ?isModelInstance@CGrannyLODController@@QAEHXZ ; CGrannyLODController::isModelInstance
  000ef	85 c0		 test	 eax, eax
  000f1	74 21		 je	 SHORT $LN21@UpdateLODL

; 43   : 					pController->UpdateLODLevel(fDistanceFromCenter, fDistanceFromCamera);

  000f3	f3 0f 10 44 24
	10		 movss	 xmm0, DWORD PTR _update$$sroa$212$1$[esp+24]
  000f9	83 ec 08	 sub	 esp, 8
  000fc	8b cf		 mov	 ecx, edi
  000fe	f3 0f 11 44 24
	04		 movss	 DWORD PTR [esp+4], xmm0
  00104	f3 0f 10 44 24
	1c		 movss	 xmm0, DWORD PTR _update$$sroa$214$1$[esp+32]
  0010a	f3 0f 11 04 24	 movss	 DWORD PTR [esp], xmm0
  0010f	e8 00 00 00 00	 call	 ?UpdateLODLevel@CGrannyLODController@@QAEXMM@Z ; CGrannyLODController::UpdateLODLevel
$LN21@UpdateLODL:
; File C:\Program Files (x86)\Microsoft Visual Studio\2019\Community\VC\Tools\MSVC\14.27.29110\include\algorithm

; 235  :     for (; _UFirst != _ULast; ++_UFirst) {

  00114	83 c6 04	 add	 esi, 4
  00117	3b f3		 cmp	 esi, ebx
  00119	75 cb		 jne	 SHORT $LL23@UpdateLODL
$LN22@UpdateLODL:
; File C:\DS Project\DS Files\Source\ClientSource\Client\eterGrnLib\ThingInstance.cpp

; 764  : }

  0011b	5f		 pop	 edi
  0011c	5e		 pop	 esi
  0011d	5b		 pop	 ebx
  0011e	8b e5		 mov	 esp, ebp
  00120	5d		 pop	 ebp
  00121	c3		 ret	 0
?UpdateLODLevel@CGraphicThingInstance@@QAEXXZ ENDP	; CGraphicThingInstance::UpdateLODLevel
_TEXT	ENDS
; Function compile flags: /Ogtp
; File C:\DS Project\DS Files\Source\ClientSource\Client\eterGrnLib\ThingInstance.cpp
; File C:\Program Files (x86)\Microsoft Visual Studio\2019\Community\VC\Tools\MSVC\14.27.29110\include\vector
; File C:\DS Project\DS Files\Source\ClientSource\Client\eterGrnLib\ThingInstance.cpp
; File C:\Program Files (x86)\Microsoft Visual Studio\2019\Community\VC\Tools\MSVC\14.27.29110\include\vector
; File C:\DS Project\DS Files\Source\ClientSource\Client\eterGrnLib\ThingInstance.cpp
; File C:\Program Files (x86)\Microsoft Visual Studio\2019\Community\VC\Tools\MSVC\14.27.29110\include\vector
; File C:\DS Project\DS Files\Source\ClientSource\Client\eterGrnLib\ThingInstance.cpp
; File C:\Program Files (x86)\Microsoft Visual Studio\2019\Community\VC\Tools\MSVC\14.27.29110\include\vector
; File C:\DS Project\DS Files\Source\ClientSource\Client\eterGrnLib\ThingInstance.cpp
;	COMDAT ?DeformNoSkin@CGraphicThingInstance@@QAEXXZ
_TEXT	SEGMENT
?DeformNoSkin@CGraphicThingInstance@@QAEXXZ PROC	; CGraphicThingInstance::DeformNoSkin, COMDAT
; _this$ = ecx

; 691  : {

  00000	56		 push	 esi
  00001	8b f1		 mov	 esi, ecx
  00003	57		 push	 edi

; 693  : 	for (std::vector<CGrannyLODController*>::size_type iMod = 0; iMod != m_LODControllerVector.size(); iMod++)

  00004	33 ff		 xor	 edi, edi
  00006	c6 86 48 02 00
	00 01		 mov	 BYTE PTR [esi+584], 1
; File C:\Program Files (x86)\Microsoft Visual Studio\2019\Community\VC\Tools\MSVC\14.27.29110\include\vector

; 1484 :         return static_cast<size_type>(_My_data._Mylast - _My_data._Myfirst);

  0000d	8b 86 8c 02 00
	00		 mov	 eax, DWORD PTR [esi+652]
  00013	8b 8e 88 02 00
	00		 mov	 ecx, DWORD PTR [esi+648]
  00019	2b c1		 sub	 eax, ecx
; File C:\DS Project\DS Files\Source\ClientSource\Client\eterGrnLib\ThingInstance.cpp

; 693  : 	for (std::vector<CGrannyLODController*>::size_type iMod = 0; iMod != m_LODControllerVector.size(); iMod++)

  0001b	83 f8 04	 cmp	 eax, 4
  0001e	72 50		 jb	 SHORT $LN3@DeformNoSk
  00020	53		 push	 ebx
$LL4@DeformNoSk:

; 694  : 	{
; 695  : 		CGrannyLODController * pkLOD = m_LODControllerVector[iMod];

  00021	8b 1c b9	 mov	 ebx, DWORD PTR [ecx+edi*4]

; 696  : 		if (!pkLOD->isModelInstance())

  00024	8b cb		 mov	 ecx, ebx
  00026	e8 00 00 00 00	 call	 ?isModelInstance@CGrannyLODController@@QAEHXZ ; CGrannyLODController::isModelInstance
  0002b	85 c0		 test	 eax, eax
  0002d	74 2a		 je	 SHORT $LN2@DeformNoSk
; File C:\Program Files (x86)\Microsoft Visual Studio\2019\Community\VC\Tools\MSVC\14.27.29110\include\vector

; 1484 :         return static_cast<size_type>(_My_data._Mylast - _My_data._Myfirst);

  0002f	8b 86 98 02 00
	00		 mov	 eax, DWORD PTR [esi+664]
  00035	2b 86 94 02 00
	00		 sub	 eax, DWORD PTR [esi+660]
; File C:\DS Project\DS Files\Source\ClientSource\Client\eterGrnLib\ThingInstance.cpp

; 700  : 		if (m_modelThingSetVector.size() == 1)

  0003b	83 e8 0c	 sub	 eax, 12			; 0000000cH
  0003e	83 f8 0c	 cmp	 eax, 12			; 0000000cH
  00041	72 08		 jb	 SHORT $LN21@DeformNoSk

; 705  : #endif
; 706  : 		else
; 707  : #endif
; 708  : 			pkLOD->DeformNoSkin(&m_worldMatrix);

  00043	8d 46 6c	 lea	 eax, DWORD PTR [esi+108]
  00046	83 ff 05	 cmp	 edi, 5
  00049	75 06		 jne	 SHORT $LN22@DeformNoSk
$LN21@DeformNoSk:

; 701  : 			pkLOD->DeformNoSkin(&m_TransformMatrix);
; 702  : #ifdef ENABLE_ACCE_SYSTEM
; 703  : 		else if (iMod == 5) /* CRaceData::PART_ACCE  */
; 704  : 			pkLOD->DeformNoSkin(&m_TransformMatrix);

  0004b	8d 86 f8 01 00
	00		 lea	 eax, DWORD PTR [esi+504]
$LN22@DeformNoSk:

; 693  : 	for (std::vector<CGrannyLODController*>::size_type iMod = 0; iMod != m_LODControllerVector.size(); iMod++)

  00051	50		 push	 eax
  00052	8b cb		 mov	 ecx, ebx
  00054	e8 00 00 00 00	 call	 ?DeformNoSkin@CGrannyLODController@@QAEXPBUD3DXMATRIX@@@Z ; CGrannyLODController::DeformNoSkin
$LN2@DeformNoSk:
; File C:\Program Files (x86)\Microsoft Visual Studio\2019\Community\VC\Tools\MSVC\14.27.29110\include\vector

; 1484 :         return static_cast<size_type>(_My_data._Mylast - _My_data._Myfirst);

  00059	8b 86 8c 02 00
	00		 mov	 eax, DWORD PTR [esi+652]
; File C:\DS Project\DS Files\Source\ClientSource\Client\eterGrnLib\ThingInstance.cpp

; 693  : 	for (std::vector<CGrannyLODController*>::size_type iMod = 0; iMod != m_LODControllerVector.size(); iMod++)

  0005f	47		 inc	 edi
; File C:\Program Files (x86)\Microsoft Visual Studio\2019\Community\VC\Tools\MSVC\14.27.29110\include\vector

; 1484 :         return static_cast<size_type>(_My_data._Mylast - _My_data._Myfirst);

  00060	8b 8e 88 02 00
	00		 mov	 ecx, DWORD PTR [esi+648]
  00066	2b c1		 sub	 eax, ecx
  00068	c1 f8 02	 sar	 eax, 2
; File C:\DS Project\DS Files\Source\ClientSource\Client\eterGrnLib\ThingInstance.cpp

; 693  : 	for (std::vector<CGrannyLODController*>::size_type iMod = 0; iMod != m_LODControllerVector.size(); iMod++)

  0006b	3b f8		 cmp	 edi, eax
  0006d	75 b2		 jne	 SHORT $LL4@DeformNoSk
  0006f	5b		 pop	 ebx
$LN3@DeformNoSk:
  00070	5f		 pop	 edi

; 709  : 	}
; 710  : }

  00071	5e		 pop	 esi
  00072	c3		 ret	 0
?DeformNoSkin@CGraphicThingInstance@@QAEXXZ ENDP	; CGraphicThingInstance::DeformNoSkin
_TEXT	ENDS
; Function compile flags: /Ogtp
; File C:\DS Project\DS Files\Source\ClientSource\Client\eterGrnLib\ThingInstance.cpp
; File C:\Program Files (x86)\Microsoft Visual Studio\2019\Community\VC\Tools\MSVC\14.27.29110\include\vector
; File C:\DS Project\DS Files\Source\ClientSource\Client\eterGrnLib\ThingInstance.cpp
; File C:\Program Files (x86)\Microsoft Visual Studio\2019\Community\VC\Tools\MSVC\14.27.29110\include\vector
; File C:\Program Files (x86)\Microsoft Visual Studio\2019\Community\VC\Tools\MSVC\14.27.29110\include\xmemory
; File C:\Program Files (x86)\Microsoft Visual Studio\2019\Community\VC\Tools\MSVC\14.27.29110\include\vector
; File C:\Program Files (x86)\Microsoft Visual Studio\2019\Community\VC\Tools\MSVC\14.27.29110\include\xmemory
; File C:\Program Files (x86)\Microsoft Visual Studio\2019\Community\VC\Tools\MSVC\14.27.29110\include\vector
; File C:\Program Files (x86)\Microsoft Visual Studio\2019\Community\VC\Tools\MSVC\14.27.29110\include\xmemory
; File C:\Program Files (x86)\Microsoft Visual Studio\2019\Community\VC\Tools\MSVC\14.27.29110\include\vector
; File C:\Program Files (x86)\Microsoft Visual Studio\2019\Community\VC\Tools\MSVC\14.27.29110\include\xmemory
; File C:\Program Files (x86)\Microsoft Visual Studio\2019\Community\VC\Tools\MSVC\14.27.29110\include\vector
; File C:\DS Project\DS Files\Source\ClientSource\Client\eterGrnLib\ThingInstance.cpp
;	COMDAT ??1CGraphicThingInstance@@UAE@XZ
_TEXT	SEGMENT
??1CGraphicThingInstance@@UAE@XZ PROC			; CGraphicThingInstance::~CGraphicThingInstance, COMDAT
; _this$ = ecx

; 983  : {

  00000	53		 push	 ebx
  00001	57		 push	 edi
  00002	8b f9		 mov	 edi, ecx

; 984  : }

  00004	8d 8f a0 02 00
	00		 lea	 ecx, DWORD PTR [edi+672]
  0000a	c7 07 00 00 00
	00		 mov	 DWORD PTR [edi], OFFSET ??_7CGraphicThingInstance@@6B@
  00010	e8 00 00 00 00	 call	 ??1?$_Tree@V?$_Tmap_traits@KPAV?$CRef@VCGraphicThing@@@@U?$less@K@std@@V?$allocator@U?$pair@$$CBKPAV?$CRef@VCGraphicThing@@@@@std@@@3@$0A@@std@@@std@@QAE@XZ ; std::_Tree<std::_Tmap_traits<unsigned long,CRef<CGraphicThing> *,std::less<unsigned long>,std::allocator<std::pair<unsigned long const ,CRef<CGraphicThing> *> >,0> >::~_Tree<std::_Tmap_traits<unsigned long,CRef<CGraphicThing> *,std::less<unsigned long>,std::allocator<std::pair<unsigned long const ,CRef<CGraphicThing> *> >,0> >
; File C:\Program Files (x86)\Microsoft Visual Studio\2019\Community\VC\Tools\MSVC\14.27.29110\include\vector

; 1693 :         if (_Myfirst) { // destroy and deallocate old array

  00015	8b 87 94 02 00
	00		 mov	 eax, DWORD PTR [edi+660]
; File C:\DS Project\DS Files\Source\ClientSource\Client\eterGrnLib\ThingInstance.cpp

; 984  : }

  0001b	8d 9f 94 02 00
	00		 lea	 ebx, DWORD PTR [edi+660]
; File C:\Program Files (x86)\Microsoft Visual Studio\2019\Community\VC\Tools\MSVC\14.27.29110\include\vector

; 1693 :         if (_Myfirst) { // destroy and deallocate old array

  00021	85 c0		 test	 eax, eax
  00023	74 44		 je	 SHORT $LN9@CGraphicTh

; 1612 :         _Destroy_range(_First, _Last, _Getal());

  00025	53		 push	 ebx
  00026	ff 73 04	 push	 DWORD PTR [ebx+4]
  00029	50		 push	 eax
  0002a	e8 00 00 00 00	 call	 ??$_Destroy_range@V?$allocator@USModelThingSet@CGraphicThingInstance@@@std@@@std@@YAXPAUSModelThingSet@CGraphicThingInstance@@QAU12@AAV?$allocator@USModelThingSet@CGraphicThingInstance@@@0@@Z ; std::_Destroy_range<std::allocator<CGraphicThingInstance::SModelThingSet> >

; 1695 :             _Getal().deallocate(_Myfirst, static_cast<size_type>(_Myend - _Myfirst));

  0002f	8b 4b 08	 mov	 ecx, DWORD PTR [ebx+8]
  00032	b8 ab aa aa 2a	 mov	 eax, 715827883		; 2aaaaaabH
  00037	2b 0b		 sub	 ecx, DWORD PTR [ebx]
  00039	f7 e9		 imul	 ecx
  0003b	d1 fa		 sar	 edx, 1
  0003d	8b c2		 mov	 eax, edx
  0003f	c1 e8 1f	 shr	 eax, 31			; 0000001fH
  00042	03 c2		 add	 eax, edx
; File C:\Program Files (x86)\Microsoft Visual Studio\2019\Community\VC\Tools\MSVC\14.27.29110\include\xmemory

; 803  :         _Deallocate<_New_alignof<_Ty>>(_Ptr, sizeof(_Ty) * _Count);

  00044	8d 04 40	 lea	 eax, DWORD PTR [eax+eax*2]
  00047	c1 e0 02	 shl	 eax, 2
  0004a	50		 push	 eax
  0004b	ff 33		 push	 DWORD PTR [ebx]
  0004d	e8 00 00 00 00	 call	 ??$_Deallocate@$07$0A@@std@@YAXPAXI@Z ; std::_Deallocate<8,0>
; File C:\Program Files (x86)\Microsoft Visual Studio\2019\Community\VC\Tools\MSVC\14.27.29110\include\vector

; 1697 :             _Myfirst = pointer();

  00052	c7 03 00 00 00
	00		 mov	 DWORD PTR [ebx], 0
; File C:\Program Files (x86)\Microsoft Visual Studio\2019\Community\VC\Tools\MSVC\14.27.29110\include\xmemory

; 803  :         _Deallocate<_New_alignof<_Ty>>(_Ptr, sizeof(_Ty) * _Count);

  00058	83 c4 14	 add	 esp, 20			; 00000014H
; File C:\Program Files (x86)\Microsoft Visual Studio\2019\Community\VC\Tools\MSVC\14.27.29110\include\vector

; 1698 :             _Mylast  = pointer();

  0005b	c7 43 04 00 00
	00 00		 mov	 DWORD PTR [ebx+4], 0

; 1699 :             _Myend   = pointer();

  00062	c7 43 08 00 00
	00 00		 mov	 DWORD PTR [ebx+8], 0
$LN9@CGraphicTh:

; 1693 :         if (_Myfirst) { // destroy and deallocate old array

  00069	8b 8f 88 02 00
	00		 mov	 ecx, DWORD PTR [edi+648]
  0006f	85 c9		 test	 ecx, ecx
  00071	74 33		 je	 SHORT $LN18@CGraphicTh

; 1694 :             _Destroy(_Myfirst, _Mylast);
; 1695 :             _Getal().deallocate(_Myfirst, static_cast<size_type>(_Myend - _Myfirst));

  00073	8b 87 90 02 00
	00		 mov	 eax, DWORD PTR [edi+656]
  00079	2b c1		 sub	 eax, ecx
; File C:\Program Files (x86)\Microsoft Visual Studio\2019\Community\VC\Tools\MSVC\14.27.29110\include\xmemory

; 803  :         _Deallocate<_New_alignof<_Ty>>(_Ptr, sizeof(_Ty) * _Count);

  0007b	83 e0 fc	 and	 eax, -4			; fffffffcH
  0007e	50		 push	 eax
  0007f	51		 push	 ecx
  00080	e8 00 00 00 00	 call	 ??$_Deallocate@$07$0A@@std@@YAXPAXI@Z ; std::_Deallocate<8,0>
; File C:\Program Files (x86)\Microsoft Visual Studio\2019\Community\VC\Tools\MSVC\14.27.29110\include\vector

; 1697 :             _Myfirst = pointer();

  00085	c7 87 88 02 00
	00 00 00 00 00	 mov	 DWORD PTR [edi+648], 0
; File C:\Program Files (x86)\Microsoft Visual Studio\2019\Community\VC\Tools\MSVC\14.27.29110\include\xmemory

; 803  :         _Deallocate<_New_alignof<_Ty>>(_Ptr, sizeof(_Ty) * _Count);

  0008f	83 c4 08	 add	 esp, 8
; File C:\Program Files (x86)\Microsoft Visual Studio\2019\Community\VC\Tools\MSVC\14.27.29110\include\vector

; 1698 :             _Mylast  = pointer();

  00092	c7 87 8c 02 00
	00 00 00 00 00	 mov	 DWORD PTR [edi+652], 0

; 1699 :             _Myend   = pointer();

  0009c	c7 87 90 02 00
	00 00 00 00 00	 mov	 DWORD PTR [edi+656], 0
$LN18@CGraphicTh:
; File C:\DS Project\DS Files\Source\ClientSource\Client\eterGrnLib\ThingInstance.cpp

; 984  : }

  000a6	8b cf		 mov	 ecx, edi
  000a8	5f		 pop	 edi
  000a9	5b		 pop	 ebx
  000aa	e9 00 00 00 00	 jmp	 ??1CGraphicObjectInstance@@UAE@XZ ; CGraphicObjectInstance::~CGraphicObjectInstance
??1CGraphicThingInstance@@UAE@XZ ENDP			; CGraphicThingInstance::~CGraphicThingInstance
_TEXT	ENDS
; Function compile flags: /Ogtp
; File C:\DS Project\DS Files\Source\ClientSource\Client\eterGrnLib\ThingInstance.cpp
; File C:\Program Files (x86)\Microsoft Visual Studio\2019\Community\VC\Tools\MSVC\14.27.29110\include\vector
; File C:\DS Project\DS Files\Source\ClientSource\Client\eterGrnLib\ThingInstance.cpp
; File C:\Program Files (x86)\Microsoft Visual Studio\2019\Community\VC\Tools\MSVC\14.27.29110\include\xmemory
; File C:\Program Files (x86)\Microsoft Visual Studio\2019\Community\VC\Tools\MSVC\14.27.29110\include\xtree
; File C:\Program Files (x86)\Microsoft Visual Studio\2019\Community\VC\Tools\MSVC\14.27.29110\include\xmemory
; File C:\Program Files (x86)\Microsoft Visual Studio\2019\Community\VC\Tools\MSVC\14.27.29110\include\xtree
; File C:\DS Project\DS Files\Source\ClientSource\Client\eterGrnLib\ThingInstance.cpp
;	COMDAT ??0CGraphicThingInstance@@QAE@XZ
_TEXT	SEGMENT
_this$ = -20						; size = 4
__Pnode$2 = -16						; size = 4
_this$ = -16						; size = 4
__$EHRec$ = -12						; size = 12
??0CGraphicThingInstance@@QAE@XZ PROC			; CGraphicThingInstance::CGraphicThingInstance, COMDAT
; _this$ = ecx

; 978  : {

  00000	55		 push	 ebp
  00001	8b ec		 mov	 ebp, esp
  00003	6a ff		 push	 -1
  00005	68 00 00 00 00	 push	 __ehhandler$??0CGraphicThingInstance@@QAE@XZ
  0000a	64 a1 00 00 00
	00		 mov	 eax, DWORD PTR fs:0
  00010	50		 push	 eax
  00011	83 ec 08	 sub	 esp, 8
  00014	53		 push	 ebx
  00015	56		 push	 esi
  00016	57		 push	 edi
  00017	a1 00 00 00 00	 mov	 eax, DWORD PTR ___security_cookie
  0001c	33 c5		 xor	 eax, ebp
  0001e	50		 push	 eax
  0001f	8d 45 f4	 lea	 eax, DWORD PTR __$EHRec$[ebp]
  00022	64 a3 00 00 00
	00		 mov	 DWORD PTR fs:0, eax
  00028	8b d9		 mov	 ebx, ecx
  0002a	89 5d ec	 mov	 DWORD PTR _this$[ebp], ebx
  0002d	e8 00 00 00 00	 call	 ??0CGraphicObjectInstance@@QAE@XZ ; CGraphicObjectInstance::CGraphicObjectInstance
  00032	c7 03 00 00 00
	00		 mov	 DWORD PTR [ebx], OFFSET ??_7CGraphicThingInstance@@6B@
  00038	c7 45 fc 00 00
	00 00		 mov	 DWORD PTR __$EHRec$[ebp+8], 0
; File C:\Program Files (x86)\Microsoft Visual Studio\2019\Community\VC\Tools\MSVC\14.27.29110\include\vector

; 375  :     _Vector_val() noexcept : _Myfirst(), _Mylast(), _Myend() {}

  0003f	c7 83 88 02 00
	00 00 00 00 00	 mov	 DWORD PTR [ebx+648], 0
  00049	c7 83 8c 02 00
	00 00 00 00 00	 mov	 DWORD PTR [ebx+652], 0
  00053	c7 83 90 02 00
	00 00 00 00 00	 mov	 DWORD PTR [ebx+656], 0
  0005d	c7 83 94 02 00
	00 00 00 00 00	 mov	 DWORD PTR [ebx+660], 0
  00067	c7 83 98 02 00
	00 00 00 00 00	 mov	 DWORD PTR [ebx+664], 0
  00071	c7 83 9c 02 00
	00 00 00 00 00	 mov	 DWORD PTR [ebx+668], 0
; File C:\DS Project\DS Files\Source\ClientSource\Client\eterGrnLib\ThingInstance.cpp

; 978  : {

  0007b	8d bb a0 02 00
	00		 lea	 edi, DWORD PTR [ebx+672]
  00081	c6 45 fc 02	 mov	 BYTE PTR __$EHRec$[ebp+8], 2
  00085	89 7d f0	 mov	 DWORD PTR _this$[ebp], edi
; File C:\Program Files (x86)\Microsoft Visual Studio\2019\Community\VC\Tools\MSVC\14.27.29110\include\xmemory

; 807  :         return static_cast<_Ty*>(_Allocate<_New_alignof<_Ty>>(_Get_size_of_n<sizeof(_Ty)>(_Count)));

  00088	6a 18		 push	 24			; 00000018H
; File C:\Program Files (x86)\Microsoft Visual Studio\2019\Community\VC\Tools\MSVC\14.27.29110\include\xtree

; 435  :     _Tree_val() noexcept : _Myhead(), _Mysize(0) {}

  0008a	c7 07 00 00 00
	00		 mov	 DWORD PTR [edi], 0
  00090	c7 47 04 00 00
	00 00		 mov	 DWORD PTR [edi+4], 0
; File C:\Program Files (x86)\Microsoft Visual Studio\2019\Community\VC\Tools\MSVC\14.27.29110\include\xmemory

; 807  :         return static_cast<_Ty*>(_Allocate<_New_alignof<_Ty>>(_Get_size_of_n<sizeof(_Ty)>(_Count)));

  00097	e8 00 00 00 00	 call	 ??$_Allocate@$07U_Default_allocate_traits@std@@$0A@@std@@YAPAXI@Z ; std::_Allocate<8,std::_Default_allocate_traits,0>
; File C:\Program Files (x86)\Microsoft Visual Studio\2019\Community\VC\Tools\MSVC\14.27.29110\include\xtree

; 343  :         const auto _Pnode = _Al.allocate(1);

  0009c	8b f0		 mov	 esi, eax

; 344  :         _Construct_in_place(_Pnode->_Left, _Pnode);

  0009e	8d 45 f0	 lea	 eax, DWORD PTR __Pnode$2[ebp]
  000a1	50		 push	 eax
  000a2	56		 push	 esi
  000a3	89 75 f0	 mov	 DWORD PTR __Pnode$2[ebp], esi
  000a6	e8 00 00 00 00	 call	 ??$_Construct_in_place@PAU?$_Tree_node@U?$pair@$$CBKPAV?$CRef@VCGraphicThing@@@@@std@@PAX@std@@ABQAU12@@std@@YAXAAPAU?$_Tree_node@U?$pair@$$CBKPAV?$CRef@VCGraphicThing@@@@@std@@PAX@0@ABQAU10@@Z ; std::_Construct_in_place<std::_Tree_node<std::pair<unsigned long const ,CRef<CGraphicThing> *>,void *> *,std::_Tree_node<std::pair<unsigned long const ,CRef<CGraphicThing> *>,void *> * const &>

; 345  :         _Construct_in_place(_Pnode->_Parent, _Pnode);

  000ab	8d 45 f0	 lea	 eax, DWORD PTR __Pnode$2[ebp]
  000ae	50		 push	 eax
  000af	8d 4e 04	 lea	 ecx, DWORD PTR [esi+4]
  000b2	51		 push	 ecx
  000b3	e8 00 00 00 00	 call	 ??$_Construct_in_place@PAU?$_Tree_node@U?$pair@$$CBKPAV?$CRef@VCGraphicThing@@@@@std@@PAX@std@@ABQAU12@@std@@YAXAAPAU?$_Tree_node@U?$pair@$$CBKPAV?$CRef@VCGraphicThing@@@@@std@@PAX@0@ABQAU10@@Z ; std::_Construct_in_place<std::_Tree_node<std::pair<unsigned long const ,CRef<CGraphicThing> *>,void *> *,std::_Tree_node<std::pair<unsigned long const ,CRef<CGraphicThing> *>,void *> * const &>

; 346  :         _Construct_in_place(_Pnode->_Right, _Pnode);

  000b8	8d 45 f0	 lea	 eax, DWORD PTR __Pnode$2[ebp]
  000bb	50		 push	 eax
  000bc	8d 46 08	 lea	 eax, DWORD PTR [esi+8]
  000bf	50		 push	 eax
  000c0	e8 00 00 00 00	 call	 ??$_Construct_in_place@PAU?$_Tree_node@U?$pair@$$CBKPAV?$CRef@VCGraphicThing@@@@@std@@PAX@std@@ABQAU12@@std@@YAXAAPAU?$_Tree_node@U?$pair@$$CBKPAV?$CRef@VCGraphicThing@@@@@std@@PAX@0@ABQAU10@@Z ; std::_Construct_in_place<std::_Tree_node<std::pair<unsigned long const ,CRef<CGraphicThing> *>,void *> *,std::_Tree_node<std::pair<unsigned long const ,CRef<CGraphicThing> *>,void *> * const &>

; 347  :         _Pnode->_Color = _Black;

  000c5	66 c7 46 0c 01
	01		 mov	 WORD PTR [esi+12], 257	; 00000101H
  000cb	83 c4 1c	 add	 esp, 28			; 0000001cH

; 2021 :         _Scary->_Myhead = _Node::_Buyheadnode(_Getal());

  000ce	89 37		 mov	 DWORD PTR [edi], esi
; File C:\DS Project\DS Files\Source\ClientSource\Client\eterGrnLib\ThingInstance.cpp

; 979  : 	Initialize();

  000d0	8b cb		 mov	 ecx, ebx
  000d2	c6 45 fc 03	 mov	 BYTE PTR __$EHRec$[ebp+8], 3
  000d6	e8 00 00 00 00	 call	 ?Initialize@CGraphicObjectInstance@@QAEXXZ ; CGraphicObjectInstance::Initialize

; 980  : }

  000db	8b c3		 mov	 eax, ebx
  000dd	8b 4d f4	 mov	 ecx, DWORD PTR __$EHRec$[ebp]
  000e0	64 89 0d 00 00
	00 00		 mov	 DWORD PTR fs:0, ecx
  000e7	59		 pop	 ecx
  000e8	5f		 pop	 edi
  000e9	5e		 pop	 esi
  000ea	5b		 pop	 ebx
  000eb	8b e5		 mov	 esp, ebp
  000ed	5d		 pop	 ebp
  000ee	c3		 ret	 0
_TEXT	ENDS
;	COMDAT text$x
text$x	SEGMENT
__unwindfunclet$??0CGraphicThingInstance@@QAE@XZ$0:
  00000	8b 4d ec	 mov	 ecx, DWORD PTR _this$[ebp]
  00003	e9 00 00 00 00	 jmp	 ??1CGraphicObjectInstance@@UAE@XZ ; CGraphicObjectInstance::~CGraphicObjectInstance
__unwindfunclet$??0CGraphicThingInstance@@QAE@XZ$1:
  00008	8b 4d ec	 mov	 ecx, DWORD PTR _this$[ebp]
  0000b	81 c1 88 02 00
	00		 add	 ecx, 648		; 00000288H
  00011	e9 00 00 00 00	 jmp	 ??1?$vector@PAVCGrannyLODController@@V?$allocator@PAVCGrannyLODController@@@std@@@std@@QAE@XZ ; std::vector<CGrannyLODController *,std::allocator<CGrannyLODController *> >::~vector<CGrannyLODController *,std::allocator<CGrannyLODController *> >
__unwindfunclet$??0CGraphicThingInstance@@QAE@XZ$2:
  00016	8b 4d ec	 mov	 ecx, DWORD PTR _this$[ebp]
  00019	81 c1 94 02 00
	00		 add	 ecx, 660		; 00000294H
  0001f	e9 00 00 00 00	 jmp	 ??1?$vector@USModelThingSet@CGraphicThingInstance@@V?$allocator@USModelThingSet@CGraphicThingInstance@@@std@@@std@@QAE@XZ ; std::vector<CGraphicThingInstance::SModelThingSet,std::allocator<CGraphicThingInstance::SModelThingSet> >::~vector<CGraphicThingInstance::SModelThingSet,std::allocator<CGraphicThingInstance::SModelThingSet> >
__unwindfunclet$??0CGraphicThingInstance@@QAE@XZ$3:
  00024	8b 4d ec	 mov	 ecx, DWORD PTR _this$[ebp]
  00027	81 c1 a0 02 00
	00		 add	 ecx, 672		; 000002a0H
  0002d	e9 00 00 00 00	 jmp	 ??1?$map@KPAV?$CRef@VCGraphicThing@@@@U?$less@K@std@@V?$allocator@U?$pair@$$CBKPAV?$CRef@VCGraphicThing@@@@@std@@@3@@std@@QAE@XZ
  00032	cc		 int	 3
  00033	cc		 int	 3
  00034	cc		 int	 3
  00035	cc		 int	 3
  00036	cc		 int	 3
__ehhandler$??0CGraphicThingInstance@@QAE@XZ:
  00037	90		 npad	 1
  00038	90		 npad	 1
  00039	8b 54 24 08	 mov	 edx, DWORD PTR [esp+8]
  0003d	8d 42 0c	 lea	 eax, DWORD PTR [edx+12]
  00040	8b 4a e8	 mov	 ecx, DWORD PTR [edx-24]
  00043	33 c8		 xor	 ecx, eax
  00045	e8 00 00 00 00	 call	 @__security_check_cookie@4
  0004a	b8 00 00 00 00	 mov	 eax, OFFSET __ehfuncinfo$??0CGraphicThingInstance@@QAE@XZ
  0004f	e9 00 00 00 00	 jmp	 ___CxxFrameHandler3
text$x	ENDS
??0CGraphicThingInstance@@QAE@XZ ENDP			; CGraphicThingInstance::CGraphicThingInstance
; Function compile flags: /Ogtp
; File C:\DS Project\DS Files\Source\ClientSource\Client\eterGrnLib\ThingInstance.h
;	COMDAT ?GetType@CGraphicThingInstance@@UBEHXZ
_TEXT	SEGMENT
?GetType@CGraphicThingInstance@@UBEHXZ PROC		; CGraphicThingInstance::GetType, COMDAT
; _this$ = ecx

; 28   : 		int GetType() const { return ID; }

  00000	b8 13 1f f2 ad	 mov	 eax, -1376641261	; adf21f13H
  00005	c3		 ret	 0
?GetType@CGraphicThingInstance@@UBEHXZ ENDP		; CGraphicThingInstance::GetType
_TEXT	ENDS
; Function compile flags: /Ogtp
; File C:\Program Files (x86)\Microsoft Visual Studio\2019\Community\VC\Tools\MSVC\14.27.29110\include\vector
;	COMDAT ?_Xlength@?$vector@PAV?$CRef@VCGraphicThing@@@@V?$allocator@PAV?$CRef@VCGraphicThing@@@@@std@@@std@@CAXXZ
_TEXT	SEGMENT
?_Xlength@?$vector@PAV?$CRef@VCGraphicThing@@@@V?$allocator@PAV?$CRef@VCGraphicThing@@@@@std@@@std@@CAXXZ PROC ; std::vector<CRef<CGraphicThing> *,std::allocator<CRef<CGraphicThing> *> >::_Xlength, COMDAT

; 1704 :         _Xlength_error("vector too long");

  00000	68 00 00 00 00	 push	 OFFSET ??_C@_0BA@FOIKENOD@vector?5too?5long@
  00005	e8 00 00 00 00	 call	 ?_Xlength_error@std@@YAXPBD@Z ; std::_Xlength_error
$LN3@Xlength:
  0000a	cc		 int	 3
?_Xlength@?$vector@PAV?$CRef@VCGraphicThing@@@@V?$allocator@PAV?$CRef@VCGraphicThing@@@@@std@@@std@@CAXXZ ENDP ; std::vector<CRef<CGraphicThing> *,std::allocator<CRef<CGraphicThing> *> >::_Xlength
_TEXT	ENDS
; Function compile flags: /Ogtp
; File C:\DS Project\DS Files\Source\ClientSource\Client\eterGrnLib\ThingInstance.h
; File C:\Program Files (x86)\Microsoft Visual Studio\2019\Community\VC\Tools\MSVC\14.27.29110\include\vector
; File C:\DS Project\DS Files\Source\ClientSource\Client\eterBase\Stl.h
; File C:\DS Project\DS Files\Source\ClientSource\Client\eterlib\Ref.h
; File C:\DS Project\DS Files\Source\ClientSource\Client\eterBase\Stl.h
; File C:\Program Files (x86)\Microsoft Visual Studio\2019\Community\VC\Tools\MSVC\14.27.29110\include\vector
; File C:\DS Project\DS Files\Source\ClientSource\Client\eterBase\Stl.h
; File C:\DS Project\DS Files\Source\ClientSource\Client\eterlib\Ref.h
; File C:\DS Project\DS Files\Source\ClientSource\Client\eterBase\Stl.h
; File C:\DS Project\DS Files\Source\ClientSource\Client\eterGrnLib\ThingInstance.h
; File C:\DS Project\DS Files\Source\ClientSource\Client\eterBase\Stl.h
; File C:\DS Project\DS Files\Source\ClientSource\Client\eterGrnLib\ThingInstance.h
;	COMDAT ?Clear@SModelThingSet@CGraphicThingInstance@@QAEXXZ
_TEXT	SEGMENT
__$EHRec$ = -12						; size = 12
?Clear@SModelThingSet@CGraphicThingInstance@@QAEXXZ PROC ; CGraphicThingInstance::SModelThingSet::Clear, COMDAT
; _this$ = ecx

; 16   : 			{

  00000	55		 push	 ebp
  00001	8b ec		 mov	 ebp, esp
  00003	6a ff		 push	 -1
  00005	68 00 00 00 00	 push	 __ehhandler$?Clear@SModelThingSet@CGraphicThingInstance@@QAEXXZ
  0000a	64 a1 00 00 00
	00		 mov	 eax, DWORD PTR fs:0
  00010	50		 push	 eax
  00011	53		 push	 ebx
  00012	56		 push	 esi
  00013	57		 push	 edi
  00014	a1 00 00 00 00	 mov	 eax, DWORD PTR ___security_cookie
  00019	33 c5		 xor	 eax, ebp
  0001b	50		 push	 eax
  0001c	8d 45 f4	 lea	 eax, DWORD PTR __$EHRec$[ebp]
  0001f	64 a3 00 00 00
	00		 mov	 DWORD PTR fs:0, eax
  00025	8b d9		 mov	 ebx, ecx
; File C:\Program Files (x86)\Microsoft Visual Studio\2019\Community\VC\Tools\MSVC\14.27.29110\include\vector

; 42   :     _Vector_const_iterator(_Tptr _Parg, const _Container_base* _Pvector) noexcept : _Ptr(_Parg) {

  00027	8b 33		 mov	 esi, DWORD PTR [ebx]
  00029	3b 73 04	 cmp	 esi, DWORD PTR [ebx+4]
; File C:\DS Project\DS Files\Source\ClientSource\Client\eterBase\Stl.h

; 95   : 	for (TContainer::iterator i = container.begin(); i != container.end(); ++i)

  0002c	74 57		 je	 SHORT $LN44@Clear
  0002e	66 90		 npad	 2
$LL6@Clear:

; 96   : 	{
; 97   : 		delete *i;

  00030	8b 3e		 mov	 edi, DWORD PTR [esi]
  00032	85 ff		 test	 edi, edi
  00034	74 2a		 je	 SHORT $LN31@Clear
; File C:\DS Project\DS Files\Source\ClientSource\Client\eterlib\Ref.h

; 53   : 			if (m_pObject)

  00036	8b 0f		 mov	 ecx, DWORD PTR [edi]

; 37   : 		{

  00038	c7 45 fc 00 00
	00 00		 mov	 DWORD PTR __$EHRec$[ebp+8], 0

; 53   : 			if (m_pObject)

  0003f	85 c9		 test	 ecx, ecx
  00041	74 0b		 je	 SHORT $LN42@Clear

; 54   : 			{
; 55   : 				m_pObject->Release();

  00043	e8 00 00 00 00	 call	 ?Release@CReferenceObject@@QAEXXZ ; CReferenceObject::Release

; 56   : 				m_pObject = NULL;

  00048	c7 07 00 00 00
	00		 mov	 DWORD PTR [edi], 0
$LN42@Clear:
  0004e	6a 04		 push	 4
  00050	57		 push	 edi

; 39   : 		}

  00051	c7 45 fc ff ff
	ff ff		 mov	 DWORD PTR __$EHRec$[ebp+8], -1
  00058	e8 00 00 00 00	 call	 ??3@YAXPAXI@Z		; operator delete
  0005d	83 c4 08	 add	 esp, 8
$LN31@Clear:
; File C:\DS Project\DS Files\Source\ClientSource\Client\eterBase\Stl.h

; 98   : 		*i = NULL;

  00060	c7 06 00 00 00
	00		 mov	 DWORD PTR [esi], 0
; File C:\Program Files (x86)\Microsoft Visual Studio\2019\Community\VC\Tools\MSVC\14.27.29110\include\vector

; 75   :         ++_Ptr;

  00066	83 c6 04	 add	 esi, 4

; 149  :         return _Ptr == _Right._Ptr;

  00069	3b 73 04	 cmp	 esi, DWORD PTR [ebx+4]
; File C:\DS Project\DS Files\Source\ClientSource\Client\eterBase\Stl.h

; 95   : 	for (TContainer::iterator i = container.begin(); i != container.end(); ++i)

  0006c	75 c2		 jne	 SHORT $LL6@Clear
; File C:\DS Project\DS Files\Source\ClientSource\Client\eterlib\Ref.h

; 56   : 				m_pObject = NULL;

  0006e	8b 03		 mov	 eax, DWORD PTR [ebx]
; File C:\DS Project\DS Files\Source\ClientSource\Client\eterBase\Stl.h

; 101  : 	container.clear();

  00070	89 43 04	 mov	 DWORD PTR [ebx+4], eax
; File C:\DS Project\DS Files\Source\ClientSource\Client\eterGrnLib\ThingInstance.h

; 18   : 			}

  00073	8b 4d f4	 mov	 ecx, DWORD PTR __$EHRec$[ebp]
  00076	64 89 0d 00 00
	00 00		 mov	 DWORD PTR fs:0, ecx
  0007d	59		 pop	 ecx
  0007e	5f		 pop	 edi
  0007f	5e		 pop	 esi
  00080	5b		 pop	 ebx
  00081	8b e5		 mov	 esp, ebp
  00083	5d		 pop	 ebp
  00084	c3		 ret	 0
$LN44@Clear:
; File C:\DS Project\DS Files\Source\ClientSource\Client\eterBase\Stl.h

; 101  : 	container.clear();

  00085	89 73 04	 mov	 DWORD PTR [ebx+4], esi
; File C:\DS Project\DS Files\Source\ClientSource\Client\eterGrnLib\ThingInstance.h

; 18   : 			}

  00088	8b 4d f4	 mov	 ecx, DWORD PTR __$EHRec$[ebp]
  0008b	64 89 0d 00 00
	00 00		 mov	 DWORD PTR fs:0, ecx
  00092	59		 pop	 ecx
  00093	5f		 pop	 edi
  00094	5e		 pop	 esi
  00095	5b		 pop	 ebx
  00096	8b e5		 mov	 esp, ebp
  00098	5d		 pop	 ebp
  00099	c3		 ret	 0
  0009a	cc		 int	 3
  0009b	cc		 int	 3
  0009c	cc		 int	 3
  0009d	cc		 int	 3
  0009e	cc		 int	 3
_TEXT	ENDS
;	COMDAT text$x
text$x	SEGMENT
__ehhandler$?Clear@SModelThingSet@CGraphicThingInstance@@QAEXXZ:
  00000	90		 npad	 1
  00001	90		 npad	 1
  00002	8b 54 24 08	 mov	 edx, DWORD PTR [esp+8]
  00006	8d 42 0c	 lea	 eax, DWORD PTR [edx+12]
  00009	8b 4a f0	 mov	 ecx, DWORD PTR [edx-16]
  0000c	33 c8		 xor	 ecx, eax
  0000e	e8 00 00 00 00	 call	 @__security_check_cookie@4
  00013	b8 00 00 00 00	 mov	 eax, OFFSET __ehfuncinfo$?Clear@SModelThingSet@CGraphicThingInstance@@QAEXXZ
  00018	e9 00 00 00 00	 jmp	 ___CxxFrameHandler3
text$x	ENDS
?Clear@SModelThingSet@CGraphicThingInstance@@QAEXXZ ENDP ; CGraphicThingInstance::SModelThingSet::Clear
; Function compile flags: /Ogtp
; File C:\Program Files (x86)\Microsoft Visual Studio\2019\Community\VC\Tools\MSVC\14.27.29110\include\xtree
;	COMDAT ?_Throw_tree_length_error@std@@YAXXZ
_TEXT	SEGMENT
?_Throw_tree_length_error@std@@YAXXZ PROC		; std::_Throw_tree_length_error, COMDAT

; 415  :     _Xlength_error("map/set too long");

  00000	68 00 00 00 00	 push	 OFFSET ??_C@_0BB@GCADKGJO@map?1set?5too?5long@
  00005	e8 00 00 00 00	 call	 ?_Xlength_error@std@@YAXPBD@Z ; std::_Xlength_error
$LN3@Throw_tree:
  0000a	cc		 int	 3
?_Throw_tree_length_error@std@@YAXXZ ENDP		; std::_Throw_tree_length_error
_TEXT	ENDS
; Function compile flags: /Ogtp
; File C:\Program Files (x86)\Microsoft Visual Studio\2019\Community\VC\Tools\MSVC\14.27.29110\include\exception
;	COMDAT ?_Throw_bad_array_new_length@std@@YAXXZ
_TEXT	SEGMENT
$T1 = -12						; size = 12
?_Throw_bad_array_new_length@std@@YAXXZ PROC		; std::_Throw_bad_array_new_length, COMDAT

; 320  : [[noreturn]] inline void _Throw_bad_array_new_length() {

  00000	55		 push	 ebp
  00001	8b ec		 mov	 ebp, esp
  00003	83 ec 0c	 sub	 esp, 12			; 0000000cH

; 321  :     _THROW(bad_array_new_length{});

  00006	8d 4d f4	 lea	 ecx, DWORD PTR $T1[ebp]
  00009	e8 00 00 00 00	 call	 ??0bad_array_new_length@std@@QAE@XZ ; std::bad_array_new_length::bad_array_new_length
  0000e	68 00 00 00 00	 push	 OFFSET __TI3?AVbad_array_new_length@std@@
  00013	8d 45 f4	 lea	 eax, DWORD PTR $T1[ebp]
  00016	50		 push	 eax
  00017	e8 00 00 00 00	 call	 __CxxThrowException@8
$LN3@Throw_bad_:
  0001c	cc		 int	 3
?_Throw_bad_array_new_length@std@@YAXXZ ENDP		; std::_Throw_bad_array_new_length
_TEXT	ENDS
; Function compile flags: /Ogtp
; File C:\Program Files (x86)\Microsoft Visual Studio\2019\Community\VC\Tools\MSVC\14.27.29110\include\vcruntime_exception.h
;	COMDAT ??_Gbad_array_new_length@std@@UAEPAXI@Z
_TEXT	SEGMENT
___flags$ = 8						; size = 4
??_Gbad_array_new_length@std@@UAEPAXI@Z PROC		; std::bad_array_new_length::`scalar deleting destructor', COMDAT
; _this$ = ecx
  00000	55		 push	 ebp
  00001	8b ec		 mov	 ebp, esp

; 89   :     {

  00003	56		 push	 esi
  00004	8b f1		 mov	 esi, ecx

; 90   :         __std_exception_destroy(&_Data);

  00006	8d 46 04	 lea	 eax, DWORD PTR [esi+4]
  00009	c7 06 00 00 00
	00		 mov	 DWORD PTR [esi], OFFSET ??_7exception@std@@6B@
  0000f	50		 push	 eax
  00010	e8 00 00 00 00	 call	 ___std_exception_destroy
  00015	83 c4 04	 add	 esp, 4
  00018	f6 45 08 01	 test	 BYTE PTR ___flags$[ebp], 1
  0001c	74 0b		 je	 SHORT $LN12@scalar
  0001e	6a 0c		 push	 12			; 0000000cH
  00020	56		 push	 esi
  00021	e8 00 00 00 00	 call	 ??3@YAXPAXI@Z		; operator delete
  00026	83 c4 08	 add	 esp, 8
$LN12@scalar:
  00029	8b c6		 mov	 eax, esi
  0002b	5e		 pop	 esi
  0002c	5d		 pop	 ebp
  0002d	c2 04 00	 ret	 4
??_Gbad_array_new_length@std@@UAEPAXI@Z ENDP		; std::bad_array_new_length::`scalar deleting destructor'
_TEXT	ENDS
; Function compile flags: /Ogtp
; File C:\Program Files (x86)\Microsoft Visual Studio\2019\Community\VC\Tools\MSVC\14.27.29110\include\vcruntime_exception.h
;	COMDAT ??0bad_array_new_length@std@@QAE@ABV01@@Z
_TEXT	SEGMENT
___that$ = 8						; size = 4
??0bad_array_new_length@std@@QAE@ABV01@@Z PROC		; std::bad_array_new_length::bad_array_new_length, COMDAT
; _this$ = ecx
  00000	55		 push	 ebp
  00001	8b ec		 mov	 ebp, esp

; 72   :     {

  00003	56		 push	 esi
  00004	8b f1		 mov	 esi, ecx
  00006	0f 57 c0	 xorps	 xmm0, xmm0

; 71   :         : _Data()

  00009	8d 46 04	 lea	 eax, DWORD PTR [esi+4]

; 73   :         __std_exception_copy(&_Other._Data, &_Data);

  0000c	50		 push	 eax
  0000d	c7 06 00 00 00
	00		 mov	 DWORD PTR [esi], OFFSET ??_7exception@std@@6B@
  00013	66 0f d6 00	 movq	 QWORD PTR [eax], xmm0
  00017	8b 45 08	 mov	 eax, DWORD PTR ___that$[ebp]
  0001a	83 c0 04	 add	 eax, 4
  0001d	50		 push	 eax
  0001e	e8 00 00 00 00	 call	 ___std_exception_copy
  00023	83 c4 08	 add	 esp, 8
  00026	c7 06 00 00 00
	00		 mov	 DWORD PTR [esi], OFFSET ??_7bad_array_new_length@std@@6B@
  0002c	8b c6		 mov	 eax, esi
  0002e	5e		 pop	 esi
  0002f	5d		 pop	 ebp
  00030	c2 04 00	 ret	 4
??0bad_array_new_length@std@@QAE@ABV01@@Z ENDP		; std::bad_array_new_length::bad_array_new_length
_TEXT	ENDS
; Function compile flags: /Ogtp
; File C:\Program Files (x86)\Microsoft Visual Studio\2019\Community\VC\Tools\MSVC\14.27.29110\include\vcruntime_exception.h
;	COMDAT ??1bad_array_new_length@std@@UAE@XZ
_TEXT	SEGMENT
??1bad_array_new_length@std@@UAE@XZ PROC		; std::bad_array_new_length::~bad_array_new_length, COMDAT
; _this$ = ecx

; 90   :         __std_exception_destroy(&_Data);

  00000	8d 41 04	 lea	 eax, DWORD PTR [ecx+4]
  00003	c7 01 00 00 00
	00		 mov	 DWORD PTR [ecx], OFFSET ??_7exception@std@@6B@
  00009	50		 push	 eax
  0000a	e8 00 00 00 00	 call	 ___std_exception_destroy
  0000f	59		 pop	 ecx
  00010	c3		 ret	 0
??1bad_array_new_length@std@@UAE@XZ ENDP		; std::bad_array_new_length::~bad_array_new_length
_TEXT	ENDS
; Function compile flags: /Ogtp
; File C:\Program Files (x86)\Microsoft Visual Studio\2019\Community\VC\Tools\MSVC\14.27.29110\include\vcruntime_exception.h
;	COMDAT ??0bad_array_new_length@std@@QAE@XZ
_TEXT	SEGMENT
??0bad_array_new_length@std@@QAE@XZ PROC		; std::bad_array_new_length::bad_array_new_length, COMDAT
; _this$ = ecx

; 141  :     {

  00000	0f 57 c0	 xorps	 xmm0, xmm0

; 142  :     }

  00003	8b c1		 mov	 eax, ecx

; 65   :         : _Data()

  00005	66 0f d6 41 04	 movq	 QWORD PTR [ecx+4], xmm0

; 66   :     {
; 67   :         _Data._What = _Message;

  0000a	c7 41 04 00 00
	00 00		 mov	 DWORD PTR [ecx+4], OFFSET ??_C@_0BF@KINCDENJ@bad?5array?5new?5length@

; 141  :     {

  00011	c7 01 00 00 00
	00		 mov	 DWORD PTR [ecx], OFFSET ??_7bad_array_new_length@std@@6B@

; 142  :     }

  00017	c3		 ret	 0
??0bad_array_new_length@std@@QAE@XZ ENDP		; std::bad_array_new_length::bad_array_new_length
_TEXT	ENDS
; Function compile flags: /Ogtp
; File C:\Program Files (x86)\Microsoft Visual Studio\2019\Community\VC\Tools\MSVC\14.27.29110\include\vcruntime_exception.h
;	COMDAT ??_Gbad_alloc@std@@UAEPAXI@Z
_TEXT	SEGMENT
___flags$ = 8						; size = 4
??_Gbad_alloc@std@@UAEPAXI@Z PROC			; std::bad_alloc::`scalar deleting destructor', COMDAT
; _this$ = ecx
  00000	55		 push	 ebp
  00001	8b ec		 mov	 ebp, esp

; 89   :     {

  00003	56		 push	 esi
  00004	8b f1		 mov	 esi, ecx

; 90   :         __std_exception_destroy(&_Data);

  00006	8d 46 04	 lea	 eax, DWORD PTR [esi+4]
  00009	c7 06 00 00 00
	00		 mov	 DWORD PTR [esi], OFFSET ??_7exception@std@@6B@
  0000f	50		 push	 eax
  00010	e8 00 00 00 00	 call	 ___std_exception_destroy
  00015	83 c4 04	 add	 esp, 4
  00018	f6 45 08 01	 test	 BYTE PTR ___flags$[ebp], 1
  0001c	74 0b		 je	 SHORT $LN9@scalar
  0001e	6a 0c		 push	 12			; 0000000cH
  00020	56		 push	 esi
  00021	e8 00 00 00 00	 call	 ??3@YAXPAXI@Z		; operator delete
  00026	83 c4 08	 add	 esp, 8
$LN9@scalar:
  00029	8b c6		 mov	 eax, esi
  0002b	5e		 pop	 esi
  0002c	5d		 pop	 ebp
  0002d	c2 04 00	 ret	 4
??_Gbad_alloc@std@@UAEPAXI@Z ENDP			; std::bad_alloc::`scalar deleting destructor'
_TEXT	ENDS
; Function compile flags: /Ogtp
; File C:\Program Files (x86)\Microsoft Visual Studio\2019\Community\VC\Tools\MSVC\14.27.29110\include\vcruntime_exception.h
;	COMDAT ??0bad_alloc@std@@QAE@ABV01@@Z
_TEXT	SEGMENT
___that$ = 8						; size = 4
??0bad_alloc@std@@QAE@ABV01@@Z PROC			; std::bad_alloc::bad_alloc, COMDAT
; _this$ = ecx
  00000	55		 push	 ebp
  00001	8b ec		 mov	 ebp, esp

; 72   :     {

  00003	56		 push	 esi
  00004	8b f1		 mov	 esi, ecx
  00006	0f 57 c0	 xorps	 xmm0, xmm0

; 71   :         : _Data()

  00009	8d 46 04	 lea	 eax, DWORD PTR [esi+4]

; 73   :         __std_exception_copy(&_Other._Data, &_Data);

  0000c	50		 push	 eax
  0000d	c7 06 00 00 00
	00		 mov	 DWORD PTR [esi], OFFSET ??_7exception@std@@6B@
  00013	66 0f d6 00	 movq	 QWORD PTR [eax], xmm0
  00017	8b 45 08	 mov	 eax, DWORD PTR ___that$[ebp]
  0001a	83 c0 04	 add	 eax, 4
  0001d	50		 push	 eax
  0001e	e8 00 00 00 00	 call	 ___std_exception_copy
  00023	83 c4 08	 add	 esp, 8
  00026	c7 06 00 00 00
	00		 mov	 DWORD PTR [esi], OFFSET ??_7bad_alloc@std@@6B@
  0002c	8b c6		 mov	 eax, esi
  0002e	5e		 pop	 esi
  0002f	5d		 pop	 ebp
  00030	c2 04 00	 ret	 4
??0bad_alloc@std@@QAE@ABV01@@Z ENDP			; std::bad_alloc::bad_alloc
_TEXT	ENDS
; Function compile flags: /Ogtp
; File C:\Program Files (x86)\Microsoft Visual Studio\2019\Community\VC\Tools\MSVC\14.27.29110\include\vcruntime_exception.h
;	COMDAT ??_Gexception@std@@UAEPAXI@Z
_TEXT	SEGMENT
___flags$ = 8						; size = 4
??_Gexception@std@@UAEPAXI@Z PROC			; std::exception::`scalar deleting destructor', COMDAT
; _this$ = ecx
  00000	55		 push	 ebp
  00001	8b ec		 mov	 ebp, esp

; 89   :     {

  00003	56		 push	 esi
  00004	8b f1		 mov	 esi, ecx

; 90   :         __std_exception_destroy(&_Data);

  00006	8d 46 04	 lea	 eax, DWORD PTR [esi+4]
  00009	c7 06 00 00 00
	00		 mov	 DWORD PTR [esi], OFFSET ??_7exception@std@@6B@
  0000f	50		 push	 eax
  00010	e8 00 00 00 00	 call	 ___std_exception_destroy
  00015	83 c4 04	 add	 esp, 4
  00018	f6 45 08 01	 test	 BYTE PTR ___flags$[ebp], 1
  0001c	74 0b		 je	 SHORT $LN6@scalar
  0001e	6a 0c		 push	 12			; 0000000cH
  00020	56		 push	 esi
  00021	e8 00 00 00 00	 call	 ??3@YAXPAXI@Z		; operator delete
  00026	83 c4 08	 add	 esp, 8
$LN6@scalar:
  00029	8b c6		 mov	 eax, esi
  0002b	5e		 pop	 esi
  0002c	5d		 pop	 ebp
  0002d	c2 04 00	 ret	 4
??_Gexception@std@@UAEPAXI@Z ENDP			; std::exception::`scalar deleting destructor'
_TEXT	ENDS
; Function compile flags: /Ogtp
; File C:\Program Files (x86)\Microsoft Visual Studio\2019\Community\VC\Tools\MSVC\14.27.29110\include\vcruntime_exception.h
;	COMDAT ?what@exception@std@@UBEPBDXZ
_TEXT	SEGMENT
?what@exception@std@@UBEPBDXZ PROC			; std::exception::what, COMDAT
; _this$ = ecx

; 95   :         return _Data._What ? _Data._What : "Unknown exception";

  00000	8b 49 04	 mov	 ecx, DWORD PTR [ecx+4]
  00003	b8 00 00 00 00	 mov	 eax, OFFSET ??_C@_0BC@EOODALEL@Unknown?5exception@
  00008	85 c9		 test	 ecx, ecx
  0000a	0f 45 c1	 cmovne	 eax, ecx

; 96   :     }

  0000d	c3		 ret	 0
?what@exception@std@@UBEPBDXZ ENDP			; std::exception::what
_TEXT	ENDS
; Function compile flags: /Ogtp
; File C:\Program Files (x86)\Microsoft Visual Studio\2019\Community\VC\Tools\MSVC\14.27.29110\include\vcruntime_exception.h
;	COMDAT ??1exception@std@@UAE@XZ
_TEXT	SEGMENT
??1exception@std@@UAE@XZ PROC				; std::exception::~exception, COMDAT
; _this$ = ecx

; 90   :         __std_exception_destroy(&_Data);

  00000	8d 41 04	 lea	 eax, DWORD PTR [ecx+4]
  00003	c7 01 00 00 00
	00		 mov	 DWORD PTR [ecx], OFFSET ??_7exception@std@@6B@
  00009	50		 push	 eax
  0000a	e8 00 00 00 00	 call	 ___std_exception_destroy
  0000f	59		 pop	 ecx

; 91   :     }

  00010	c3		 ret	 0
??1exception@std@@UAE@XZ ENDP				; std::exception::~exception
_TEXT	ENDS
; Function compile flags: /Ogtp
; File C:\Program Files (x86)\Microsoft Visual Studio\2019\Community\VC\Tools\MSVC\14.27.29110\include\vcruntime_exception.h
;	COMDAT ??0exception@std@@QAE@ABV01@@Z
_TEXT	SEGMENT
__Other$ = 8						; size = 4
??0exception@std@@QAE@ABV01@@Z PROC			; std::exception::exception, COMDAT
; _this$ = ecx

; 72   :     {

  00000	55		 push	 ebp
  00001	8b ec		 mov	 ebp, esp
  00003	56		 push	 esi
  00004	8b f1		 mov	 esi, ecx
  00006	0f 57 c0	 xorps	 xmm0, xmm0
  00009	8d 46 04	 lea	 eax, DWORD PTR [esi+4]

; 73   :         __std_exception_copy(&_Other._Data, &_Data);

  0000c	50		 push	 eax
  0000d	c7 06 00 00 00
	00		 mov	 DWORD PTR [esi], OFFSET ??_7exception@std@@6B@
  00013	66 0f d6 00	 movq	 QWORD PTR [eax], xmm0
  00017	8b 45 08	 mov	 eax, DWORD PTR __Other$[ebp]
  0001a	83 c0 04	 add	 eax, 4
  0001d	50		 push	 eax
  0001e	e8 00 00 00 00	 call	 ___std_exception_copy
  00023	83 c4 08	 add	 esp, 8

; 74   :     }

  00026	8b c6		 mov	 eax, esi
  00028	5e		 pop	 esi
  00029	5d		 pop	 ebp
  0002a	c2 04 00	 ret	 4
??0exception@std@@QAE@ABV01@@Z ENDP			; std::exception::exception
_TEXT	ENDS
END
