; Listing generated by Microsoft (R) Optimizing Compiler Version 19.27.29112.0 

	TITLE	C:\DS Project\DS Files\Source\ClientSource\Client\eterGrnLib\Thing.cpp
	.686P
	.XMM
	include listing.inc
	.model	flat

INCLUDELIB LIBCMT
INCLUDELIB OLDNAMES

PUBLIC	??0exception@std@@QAE@ABV01@@Z			; std::exception::exception
PUBLIC	??1exception@std@@UAE@XZ			; std::exception::~exception
PUBLIC	?what@exception@std@@UBEPBDXZ			; std::exception::what
PUBLIC	??_Gexception@std@@UAEPAXI@Z			; std::exception::`scalar deleting destructor'
PUBLIC	??0bad_alloc@std@@QAE@ABV01@@Z			; std::bad_alloc::bad_alloc
PUBLIC	??_Gbad_alloc@std@@UAEPAXI@Z			; std::bad_alloc::`scalar deleting destructor'
PUBLIC	??0bad_array_new_length@std@@QAE@XZ		; std::bad_array_new_length::bad_array_new_length
PUBLIC	??1bad_array_new_length@std@@UAE@XZ		; std::bad_array_new_length::~bad_array_new_length
PUBLIC	??0bad_array_new_length@std@@QAE@ABV01@@Z	; std::bad_array_new_length::bad_array_new_length
PUBLIC	??_Gbad_array_new_length@std@@UAEPAXI@Z		; std::bad_array_new_length::`scalar deleting destructor'
PUBLIC	?_Throw_bad_array_new_length@std@@YAXXZ		; std::_Throw_bad_array_new_length
PUBLIC	?_Xlen_string@std@@YAXXZ			; std::_Xlen_string
PUBLIC	?assign@?$basic_string@DU?$char_traits@D@std@@V?$allocator@D@2@@std@@QAEAAV12@QBDI@Z ; std::basic_string<char,std::char_traits<char>,std::allocator<char> >::assign
PUBLIC	??_ECGrannyModel@@UAEPAXI@Z			; CGrannyModel::`vector deleting destructor'
PUBLIC	??_ECGrannyMotion@@UAEPAXI@Z			; CGrannyMotion::`vector deleting destructor'
PUBLIC	?Type@CGraphicThing@@SAKXZ			; CGraphicThing::Type
PUBLIC	??0CGraphicThing@@QAE@PBD@Z			; CGraphicThing::CGraphicThing
PUBLIC	??1CGraphicThing@@UAE@XZ			; CGraphicThing::~CGraphicThing
PUBLIC	?CreateDeviceObjects@CGraphicThing@@UAE_NXZ	; CGraphicThing::CreateDeviceObjects
PUBLIC	?DestroyDeviceObjects@CGraphicThing@@UAEXXZ	; CGraphicThing::DestroyDeviceObjects
PUBLIC	?CheckModelIndex@CGraphicThing@@QBE_NH@Z	; CGraphicThing::CheckModelIndex
PUBLIC	?GetModelPointer@CGraphicThing@@QAEPAVCGrannyModel@@H@Z ; CGraphicThing::GetModelPointer
PUBLIC	?GetModelCount@CGraphicThing@@QBEHXZ		; CGraphicThing::GetModelCount
PUBLIC	?CheckMotionIndex@CGraphicThing@@QBE_NH@Z	; CGraphicThing::CheckMotionIndex
PUBLIC	?GetMotionPointer@CGraphicThing@@QAEPAVCGrannyMotion@@H@Z ; CGraphicThing::GetMotionPointer
PUBLIC	?GetMotionCount@CGraphicThing@@QBEHXZ		; CGraphicThing::GetMotionCount
PUBLIC	?Initialize@CGraphicThing@@IAEXXZ		; CGraphicThing::Initialize
PUBLIC	?LoadModels@CGraphicThing@@IAE_NXZ		; CGraphicThing::LoadModels
PUBLIC	?LoadMotions@CGraphicThing@@IAE_NXZ		; CGraphicThing::LoadMotions
PUBLIC	?OnLoad@CGraphicThing@@MAE_NHPBX@Z		; CGraphicThing::OnLoad
PUBLIC	?OnClear@CGraphicThing@@MAEXXZ			; CGraphicThing::OnClear
PUBLIC	?OnIsEmpty@CGraphicThing@@MBE_NXZ		; CGraphicThing::OnIsEmpty
PUBLIC	?OnIsType@CGraphicThing@@MAE_NK@Z		; CGraphicThing::OnIsType
PUBLIC	??_GCGraphicThing@@UAEPAXI@Z			; CGraphicThing::`scalar deleting destructor'
PUBLIC	?GetModelLocalPath@@YAABV?$basic_string@DU?$char_traits@D@std@@V?$allocator@D@2@@std@@XZ ; GetModelLocalPath
PUBLIC	??$_Destroy_in_place@PAD@std@@YAXAAPAD@Z	; std::_Destroy_in_place<char *>
PUBLIC	??$_Construct_in_place@PADABQAD@std@@YAXAAPADABQAD@Z ; std::_Construct_in_place<char *,char * const &>
PUBLIC	??$_Deallocate@$07$0A@@std@@YAXPAXI@Z		; std::_Deallocate<8,0>
PUBLIC	??$_Allocate@$07U_Default_allocate_traits@std@@$0A@@std@@YAPAXI@Z ; std::_Allocate<8,std::_Default_allocate_traits,0>
PUBLIC	??$_Allocate_manually_vector_aligned@U_Default_allocate_traits@std@@@std@@YAPAXI@Z ; std::_Allocate_manually_vector_aligned<std::_Default_allocate_traits>
PUBLIC	??_7exception@std@@6B@				; std::exception::`vftable'
PUBLIC	??_C@_0BC@EOODALEL@Unknown?5exception@		; `string'
PUBLIC	??_7bad_alloc@std@@6B@				; std::bad_alloc::`vftable'
PUBLIC	??_7bad_array_new_length@std@@6B@		; std::bad_array_new_length::`vftable'
PUBLIC	??_C@_0BF@KINCDENJ@bad?5array?5new?5length@	; `string'
PUBLIC	__TI3?AVbad_array_new_length@std@@
PUBLIC	__CTA3?AVbad_array_new_length@std@@
PUBLIC	??_R0?AVbad_array_new_length@std@@@8		; std::bad_array_new_length `RTTI Type Descriptor'
PUBLIC	__CT??_R0?AVbad_array_new_length@std@@@8??0bad_array_new_length@std@@QAE@ABV01@@Z12
PUBLIC	??_R0?AVbad_alloc@std@@@8			; std::bad_alloc `RTTI Type Descriptor'
PUBLIC	__CT??_R0?AVbad_alloc@std@@@8??0bad_alloc@std@@QAE@ABV01@@Z12
PUBLIC	??_R0?AVexception@std@@@8			; std::exception `RTTI Type Descriptor'
PUBLIC	__CT??_R0?AVexception@std@@@8??0exception@std@@QAE@ABV01@@Z12
PUBLIC	??_C@_0BA@JFNIOLAK@string?5too?5long@		; `string'
PUBLIC	??_7CGraphicThing@@6B@				; CGraphicThing::`vftable'
PUBLIC	??_C@_0O@POMHALBA@CGraphicThing@		; `string'
PUBLIC	??_C@_0BM@CNDJBDNK@m_pgrnFileInfo?5?$DN?$DN?5NULL?3?5?$CFs?6@ ; `string'
PUBLIC	??_C@_0BI@CFPLBAOH@invalid?5string?5position@	; `string'
PUBLIC	??_R4exception@std@@6B@				; std::exception::`RTTI Complete Object Locator'
PUBLIC	??_R3exception@std@@8				; std::exception::`RTTI Class Hierarchy Descriptor'
PUBLIC	??_R2exception@std@@8				; std::exception::`RTTI Base Class Array'
PUBLIC	??_R1A@?0A@EA@exception@std@@8			; std::exception::`RTTI Base Class Descriptor at (0,-1,0,64)'
PUBLIC	??_R4bad_alloc@std@@6B@				; std::bad_alloc::`RTTI Complete Object Locator'
PUBLIC	??_R3bad_alloc@std@@8				; std::bad_alloc::`RTTI Class Hierarchy Descriptor'
PUBLIC	??_R2bad_alloc@std@@8				; std::bad_alloc::`RTTI Base Class Array'
PUBLIC	??_R1A@?0A@EA@bad_alloc@std@@8			; std::bad_alloc::`RTTI Base Class Descriptor at (0,-1,0,64)'
PUBLIC	??_R4bad_array_new_length@std@@6B@		; std::bad_array_new_length::`RTTI Complete Object Locator'
PUBLIC	??_R3bad_array_new_length@std@@8		; std::bad_array_new_length::`RTTI Class Hierarchy Descriptor'
PUBLIC	??_R2bad_array_new_length@std@@8		; std::bad_array_new_length::`RTTI Base Class Array'
PUBLIC	??_R1A@?0A@EA@bad_array_new_length@std@@8	; std::bad_array_new_length::`RTTI Base Class Descriptor at (0,-1,0,64)'
PUBLIC	??_R4CGraphicThing@@6B@				; CGraphicThing::`RTTI Complete Object Locator'
PUBLIC	??_R0?AVCGraphicThing@@@8			; CGraphicThing `RTTI Type Descriptor'
PUBLIC	??_R3CGraphicThing@@8				; CGraphicThing::`RTTI Class Hierarchy Descriptor'
PUBLIC	??_R2CGraphicThing@@8				; CGraphicThing::`RTTI Base Class Array'
PUBLIC	??_R1A@?0A@EA@CGraphicThing@@8			; CGraphicThing::`RTTI Base Class Descriptor at (0,-1,0,64)'
PUBLIC	??_R1A@?0A@EA@CResource@@8			; CResource::`RTTI Base Class Descriptor at (0,-1,0,64)'
PUBLIC	??_R0?AVCResource@@@8				; CResource `RTTI Type Descriptor'
PUBLIC	??_R3CResource@@8				; CResource::`RTTI Class Hierarchy Descriptor'
PUBLIC	??_R2CResource@@8				; CResource::`RTTI Base Class Array'
PUBLIC	??_R1A@?0A@EA@CReferenceObject@@8		; CReferenceObject::`RTTI Base Class Descriptor at (0,-1,0,64)'
PUBLIC	??_R0?AVCReferenceObject@@@8			; CReferenceObject `RTTI Type Descriptor'
PUBLIC	??_R3CReferenceObject@@8			; CReferenceObject::`RTTI Class Hierarchy Descriptor'
PUBLIC	??_R2CReferenceObject@@8			; CReferenceObject::`RTTI Base Class Array'
EXTRN	??_L@YGXPAXIIP6EX0@Z1@Z:PROC			; `eh vector constructor iterator'
EXTRN	??_M@YGXPAXIIP6EX0@Z@Z:PROC			; `eh vector destructor iterator'
EXTRN	??2@YAPAXI@Z:PROC				; operator new
EXTRN	??3@YAXPAXI@Z:PROC				; operator delete
EXTRN	??_U@YAPAXI@Z:PROC				; operator new[]
EXTRN	??_V@YAXPAXI@Z:PROC				; operator delete[]
EXTRN	_atexit:PROC
EXTRN	__Init_thread_header:PROC
EXTRN	__Init_thread_abort:PROC
EXTRN	__Init_thread_footer:PROC
EXTRN	__imp__GrannyReadEntireFileFromMemory@8:PROC
EXTRN	__imp__GrannyFreeFileSection@8:PROC
EXTRN	__imp__GrannyFreeFile@4:PROC
EXTRN	__imp__GrannyGetFileInfo@4:PROC
EXTRN	__invalid_parameter_noinfo_noreturn:PROC
EXTRN	___std_exception_copy:PROC
EXTRN	___std_exception_destroy:PROC
EXTRN	??_Eexception@std@@UAEPAXI@Z:PROC		; std::exception::`vector deleting destructor'
EXTRN	??_Ebad_alloc@std@@UAEPAXI@Z:PROC		; std::bad_alloc::`vector deleting destructor'
EXTRN	??_Ebad_array_new_length@std@@UAEPAXI@Z:PROC	; std::bad_array_new_length::`vector deleting destructor'
EXTRN	?_Xlength_error@std@@YAXPBD@Z:PROC		; std::_Xlength_error
EXTRN	?_Xout_of_range@std@@YAXPBD@Z:PROC		; std::_Xout_of_range
EXTRN	?Tracef@@YAXPBDZZ:PROC				; Tracef
EXTRN	?Clear@CResource@@QAEXXZ:PROC			; CResource::Clear
EXTRN	?StringToType@CResource@@SAKPBD@Z:PROC		; CResource::StringToType
EXTRN	??0CResource@@QAE@PBD@Z:PROC			; CResource::CResource
EXTRN	??1CResource@@UAE@XZ:PROC			; CResource::~CResource
EXTRN	?OnIsType@CResource@@MAE_NK@Z:PROC		; CResource::OnIsType
EXTRN	?OnConstruct@CResource@@MAEXXZ:PROC		; CResource::OnConstruct
EXTRN	?OnSelfDestruct@CResource@@MAEXXZ:PROC		; CResource::OnSelfDestruct
EXTRN	??0CGrannyModel@@QAE@XZ:PROC			; CGrannyModel::CGrannyModel
EXTRN	??1CGrannyModel@@UAE@XZ:PROC			; CGrannyModel::~CGrannyModel
EXTRN	?CreateFromGrannyModelPointer@CGrannyModel@@QAE_NPAUgranny_model@@@Z:PROC ; CGrannyModel::CreateFromGrannyModelPointer
EXTRN	?CreateDeviceObjects@CGrannyModel@@QAE_NXZ:PROC	; CGrannyModel::CreateDeviceObjects
EXTRN	?DestroyDeviceObjects@CGrannyModel@@QAEXXZ:PROC	; CGrannyModel::DestroyDeviceObjects
EXTRN	??0CGrannyMotion@@QAE@XZ:PROC			; CGrannyMotion::CGrannyMotion
EXTRN	??1CGrannyMotion@@UAE@XZ:PROC			; CGrannyMotion::~CGrannyMotion
EXTRN	?BindGrannyAnimation@CGrannyMotion@@QAE_NPAUgranny_animation@@@Z:PROC ; CGrannyMotion::BindGrannyAnimation
EXTRN	??_ECGraphicThing@@UAEPAXI@Z:PROC		; CGraphicThing::`vector deleting destructor'
EXTRN	@__security_check_cookie@4:PROC
EXTRN	__CxxThrowException@8:PROC
EXTRN	___CxxFrameHandler3:PROC
EXTRN	_memcpy:PROC
EXTRN	_memmove:PROC
EXTRN	__Init_thread_epoch:DWORD
EXTRN	??_7type_info@@6B@:QWORD			; type_info::`vftable'
EXTRN	___security_cookie:DWORD
EXTRN	__tls_array:DWORD
EXTRN	__tls_index:DWORD
;	COMDAT ?s_type@?1??Type@CGraphicThing@@SAKXZ@4KA
_BSS	SEGMENT
?s_type@?1??Type@CGraphicThing@@SAKXZ@4KA DD 01H DUP (?) ; `CGraphicThing::Type'::`2'::s_type
_BSS	ENDS
;	COMDAT ?$TSS0@?1??Type@CGraphicThing@@SAKXZ@4HA
_BSS	SEGMENT
?$TSS0@?1??Type@CGraphicThing@@SAKXZ@4HA DD 01H DUP (?)	; `CGraphicThing::Type'::`2'::$TSS0
_BSS	ENDS
CRT$XCU	SEGMENT
?gs_modelLocalPath$initializer$@@3P6AXXZA DD FLAT:??__Egs_modelLocalPath@@YAXXZ ; gs_modelLocalPath$initializer$
CRT$XCU	ENDS
;	COMDAT ??_R2CReferenceObject@@8
rdata$r	SEGMENT
??_R2CReferenceObject@@8 DD FLAT:??_R1A@?0A@EA@CReferenceObject@@8 ; CReferenceObject::`RTTI Base Class Array'
rdata$r	ENDS
;	COMDAT ??_R3CReferenceObject@@8
rdata$r	SEGMENT
??_R3CReferenceObject@@8 DD 00H				; CReferenceObject::`RTTI Class Hierarchy Descriptor'
	DD	00H
	DD	01H
	DD	FLAT:??_R2CReferenceObject@@8
rdata$r	ENDS
;	COMDAT ??_R0?AVCReferenceObject@@@8
data$r	SEGMENT
??_R0?AVCReferenceObject@@@8 DD FLAT:??_7type_info@@6B@	; CReferenceObject `RTTI Type Descriptor'
	DD	00H
	DB	'.?AVCReferenceObject@@', 00H
data$r	ENDS
;	COMDAT ??_R1A@?0A@EA@CReferenceObject@@8
rdata$r	SEGMENT
??_R1A@?0A@EA@CReferenceObject@@8 DD FLAT:??_R0?AVCReferenceObject@@@8 ; CReferenceObject::`RTTI Base Class Descriptor at (0,-1,0,64)'
	DD	00H
	DD	00H
	DD	0ffffffffH
	DD	00H
	DD	040H
	DD	FLAT:??_R3CReferenceObject@@8
rdata$r	ENDS
;	COMDAT ??_R2CResource@@8
rdata$r	SEGMENT
??_R2CResource@@8 DD FLAT:??_R1A@?0A@EA@CResource@@8	; CResource::`RTTI Base Class Array'
	DD	FLAT:??_R1A@?0A@EA@CReferenceObject@@8
rdata$r	ENDS
;	COMDAT ??_R3CResource@@8
rdata$r	SEGMENT
??_R3CResource@@8 DD 00H				; CResource::`RTTI Class Hierarchy Descriptor'
	DD	00H
	DD	02H
	DD	FLAT:??_R2CResource@@8
rdata$r	ENDS
;	COMDAT ??_R0?AVCResource@@@8
data$r	SEGMENT
??_R0?AVCResource@@@8 DD FLAT:??_7type_info@@6B@	; CResource `RTTI Type Descriptor'
	DD	00H
	DB	'.?AVCResource@@', 00H
data$r	ENDS
;	COMDAT ??_R1A@?0A@EA@CResource@@8
rdata$r	SEGMENT
??_R1A@?0A@EA@CResource@@8 DD FLAT:??_R0?AVCResource@@@8 ; CResource::`RTTI Base Class Descriptor at (0,-1,0,64)'
	DD	01H
	DD	00H
	DD	0ffffffffH
	DD	00H
	DD	040H
	DD	FLAT:??_R3CResource@@8
rdata$r	ENDS
;	COMDAT ??_R1A@?0A@EA@CGraphicThing@@8
rdata$r	SEGMENT
??_R1A@?0A@EA@CGraphicThing@@8 DD FLAT:??_R0?AVCGraphicThing@@@8 ; CGraphicThing::`RTTI Base Class Descriptor at (0,-1,0,64)'
	DD	02H
	DD	00H
	DD	0ffffffffH
	DD	00H
	DD	040H
	DD	FLAT:??_R3CGraphicThing@@8
rdata$r	ENDS
;	COMDAT ??_R2CGraphicThing@@8
rdata$r	SEGMENT
??_R2CGraphicThing@@8 DD FLAT:??_R1A@?0A@EA@CGraphicThing@@8 ; CGraphicThing::`RTTI Base Class Array'
	DD	FLAT:??_R1A@?0A@EA@CResource@@8
	DD	FLAT:??_R1A@?0A@EA@CReferenceObject@@8
rdata$r	ENDS
;	COMDAT ??_R3CGraphicThing@@8
rdata$r	SEGMENT
??_R3CGraphicThing@@8 DD 00H				; CGraphicThing::`RTTI Class Hierarchy Descriptor'
	DD	00H
	DD	03H
	DD	FLAT:??_R2CGraphicThing@@8
rdata$r	ENDS
;	COMDAT ??_R0?AVCGraphicThing@@@8
data$r	SEGMENT
??_R0?AVCGraphicThing@@@8 DD FLAT:??_7type_info@@6B@	; CGraphicThing `RTTI Type Descriptor'
	DD	00H
	DB	'.?AVCGraphicThing@@', 00H
data$r	ENDS
;	COMDAT ??_R4CGraphicThing@@6B@
rdata$r	SEGMENT
??_R4CGraphicThing@@6B@ DD 00H				; CGraphicThing::`RTTI Complete Object Locator'
	DD	00H
	DD	00H
	DD	FLAT:??_R0?AVCGraphicThing@@@8
	DD	FLAT:??_R3CGraphicThing@@8
rdata$r	ENDS
;	COMDAT ??_R1A@?0A@EA@bad_array_new_length@std@@8
rdata$r	SEGMENT
??_R1A@?0A@EA@bad_array_new_length@std@@8 DD FLAT:??_R0?AVbad_array_new_length@std@@@8 ; std::bad_array_new_length::`RTTI Base Class Descriptor at (0,-1,0,64)'
	DD	02H
	DD	00H
	DD	0ffffffffH
	DD	00H
	DD	040H
	DD	FLAT:??_R3bad_array_new_length@std@@8
rdata$r	ENDS
;	COMDAT ??_R2bad_array_new_length@std@@8
rdata$r	SEGMENT
??_R2bad_array_new_length@std@@8 DD FLAT:??_R1A@?0A@EA@bad_array_new_length@std@@8 ; std::bad_array_new_length::`RTTI Base Class Array'
	DD	FLAT:??_R1A@?0A@EA@bad_alloc@std@@8
	DD	FLAT:??_R1A@?0A@EA@exception@std@@8
rdata$r	ENDS
;	COMDAT ??_R3bad_array_new_length@std@@8
rdata$r	SEGMENT
??_R3bad_array_new_length@std@@8 DD 00H			; std::bad_array_new_length::`RTTI Class Hierarchy Descriptor'
	DD	00H
	DD	03H
	DD	FLAT:??_R2bad_array_new_length@std@@8
rdata$r	ENDS
;	COMDAT ??_R4bad_array_new_length@std@@6B@
rdata$r	SEGMENT
??_R4bad_array_new_length@std@@6B@ DD 00H		; std::bad_array_new_length::`RTTI Complete Object Locator'
	DD	00H
	DD	00H
	DD	FLAT:??_R0?AVbad_array_new_length@std@@@8
	DD	FLAT:??_R3bad_array_new_length@std@@8
rdata$r	ENDS
;	COMDAT ??_R1A@?0A@EA@bad_alloc@std@@8
rdata$r	SEGMENT
??_R1A@?0A@EA@bad_alloc@std@@8 DD FLAT:??_R0?AVbad_alloc@std@@@8 ; std::bad_alloc::`RTTI Base Class Descriptor at (0,-1,0,64)'
	DD	01H
	DD	00H
	DD	0ffffffffH
	DD	00H
	DD	040H
	DD	FLAT:??_R3bad_alloc@std@@8
rdata$r	ENDS
;	COMDAT ??_R2bad_alloc@std@@8
rdata$r	SEGMENT
??_R2bad_alloc@std@@8 DD FLAT:??_R1A@?0A@EA@bad_alloc@std@@8 ; std::bad_alloc::`RTTI Base Class Array'
	DD	FLAT:??_R1A@?0A@EA@exception@std@@8
rdata$r	ENDS
;	COMDAT ??_R3bad_alloc@std@@8
rdata$r	SEGMENT
??_R3bad_alloc@std@@8 DD 00H				; std::bad_alloc::`RTTI Class Hierarchy Descriptor'
	DD	00H
	DD	02H
	DD	FLAT:??_R2bad_alloc@std@@8
rdata$r	ENDS
;	COMDAT ??_R4bad_alloc@std@@6B@
rdata$r	SEGMENT
??_R4bad_alloc@std@@6B@ DD 00H				; std::bad_alloc::`RTTI Complete Object Locator'
	DD	00H
	DD	00H
	DD	FLAT:??_R0?AVbad_alloc@std@@@8
	DD	FLAT:??_R3bad_alloc@std@@8
rdata$r	ENDS
;	COMDAT ??_R1A@?0A@EA@exception@std@@8
rdata$r	SEGMENT
??_R1A@?0A@EA@exception@std@@8 DD FLAT:??_R0?AVexception@std@@@8 ; std::exception::`RTTI Base Class Descriptor at (0,-1,0,64)'
	DD	00H
	DD	00H
	DD	0ffffffffH
	DD	00H
	DD	040H
	DD	FLAT:??_R3exception@std@@8
rdata$r	ENDS
;	COMDAT ??_R2exception@std@@8
rdata$r	SEGMENT
??_R2exception@std@@8 DD FLAT:??_R1A@?0A@EA@exception@std@@8 ; std::exception::`RTTI Base Class Array'
rdata$r	ENDS
;	COMDAT ??_R3exception@std@@8
rdata$r	SEGMENT
??_R3exception@std@@8 DD 00H				; std::exception::`RTTI Class Hierarchy Descriptor'
	DD	00H
	DD	01H
	DD	FLAT:??_R2exception@std@@8
rdata$r	ENDS
;	COMDAT ??_R4exception@std@@6B@
rdata$r	SEGMENT
??_R4exception@std@@6B@ DD 00H				; std::exception::`RTTI Complete Object Locator'
	DD	00H
	DD	00H
	DD	FLAT:??_R0?AVexception@std@@@8
	DD	FLAT:??_R3exception@std@@8
rdata$r	ENDS
;	COMDAT ??_C@_0BI@CFPLBAOH@invalid?5string?5position@
CONST	SEGMENT
??_C@_0BI@CFPLBAOH@invalid?5string?5position@ DB 'invalid string position'
	DB	00H						; `string'
CONST	ENDS
_DATA	SEGMENT
?gs_modelLocalPath@@3V?$basic_string@DU?$char_traits@D@std@@V?$allocator@D@2@@std@@A DB 00H ; gs_modelLocalPath
	DB	19 DUP(00H)
	DD	0fH
_DATA	ENDS
;	COMDAT ??_C@_0BM@CNDJBDNK@m_pgrnFileInfo?5?$DN?$DN?5NULL?3?5?$CFs?6@
CONST	SEGMENT
??_C@_0BM@CNDJBDNK@m_pgrnFileInfo?5?$DN?$DN?5NULL?3?5?$CFs?6@ DB 'm_pgrnF'
	DB	'ileInfo == NULL: %s', 0aH, 00H		; `string'
CONST	ENDS
;	COMDAT ??_C@_0O@POMHALBA@CGraphicThing@
CONST	SEGMENT
??_C@_0O@POMHALBA@CGraphicThing@ DB 'CGraphicThing', 00H ; `string'
CONST	ENDS
;	COMDAT ??_7CGraphicThing@@6B@
CONST	SEGMENT
??_7CGraphicThing@@6B@ DD FLAT:??_R4CGraphicThing@@6B@	; CGraphicThing::`vftable'
	DD	FLAT:??_ECGraphicThing@@UAEPAXI@Z
	DD	FLAT:?OnConstruct@CResource@@MAEXXZ
	DD	FLAT:?OnSelfDestruct@CResource@@MAEXXZ
	DD	FLAT:?CreateDeviceObjects@CGraphicThing@@UAE_NXZ
	DD	FLAT:?DestroyDeviceObjects@CGraphicThing@@UAEXXZ
	DD	FLAT:?OnLoad@CGraphicThing@@MAE_NHPBX@Z
	DD	FLAT:?OnClear@CGraphicThing@@MAEXXZ
	DD	FLAT:?OnIsEmpty@CGraphicThing@@MBE_NXZ
	DD	FLAT:?OnIsType@CGraphicThing@@MAE_NK@Z
CONST	ENDS
;	COMDAT ??_C@_0BA@JFNIOLAK@string?5too?5long@
CONST	SEGMENT
??_C@_0BA@JFNIOLAK@string?5too?5long@ DB 'string too long', 00H ; `string'
CONST	ENDS
;	COMDAT __CT??_R0?AVexception@std@@@8??0exception@std@@QAE@ABV01@@Z12
xdata$x	SEGMENT
__CT??_R0?AVexception@std@@@8??0exception@std@@QAE@ABV01@@Z12 DD 00H
	DD	FLAT:??_R0?AVexception@std@@@8
	DD	00H
	DD	0ffffffffH
	ORG $+4
	DD	0cH
	DD	FLAT:??0exception@std@@QAE@ABV01@@Z
xdata$x	ENDS
;	COMDAT ??_R0?AVexception@std@@@8
data$r	SEGMENT
??_R0?AVexception@std@@@8 DD FLAT:??_7type_info@@6B@	; std::exception `RTTI Type Descriptor'
	DD	00H
	DB	'.?AVexception@std@@', 00H
data$r	ENDS
;	COMDAT __CT??_R0?AVbad_alloc@std@@@8??0bad_alloc@std@@QAE@ABV01@@Z12
xdata$x	SEGMENT
__CT??_R0?AVbad_alloc@std@@@8??0bad_alloc@std@@QAE@ABV01@@Z12 DD 010H
	DD	FLAT:??_R0?AVbad_alloc@std@@@8
	DD	00H
	DD	0ffffffffH
	ORG $+4
	DD	0cH
	DD	FLAT:??0bad_alloc@std@@QAE@ABV01@@Z
xdata$x	ENDS
;	COMDAT ??_R0?AVbad_alloc@std@@@8
data$r	SEGMENT
??_R0?AVbad_alloc@std@@@8 DD FLAT:??_7type_info@@6B@	; std::bad_alloc `RTTI Type Descriptor'
	DD	00H
	DB	'.?AVbad_alloc@std@@', 00H
data$r	ENDS
;	COMDAT __CT??_R0?AVbad_array_new_length@std@@@8??0bad_array_new_length@std@@QAE@ABV01@@Z12
xdata$x	SEGMENT
__CT??_R0?AVbad_array_new_length@std@@@8??0bad_array_new_length@std@@QAE@ABV01@@Z12 DD 00H
	DD	FLAT:??_R0?AVbad_array_new_length@std@@@8
	DD	00H
	DD	0ffffffffH
	ORG $+4
	DD	0cH
	DD	FLAT:??0bad_array_new_length@std@@QAE@ABV01@@Z
xdata$x	ENDS
;	COMDAT ??_R0?AVbad_array_new_length@std@@@8
data$r	SEGMENT
??_R0?AVbad_array_new_length@std@@@8 DD FLAT:??_7type_info@@6B@ ; std::bad_array_new_length `RTTI Type Descriptor'
	DD	00H
	DB	'.?AVbad_array_new_length@std@@', 00H
data$r	ENDS
;	COMDAT __CTA3?AVbad_array_new_length@std@@
xdata$x	SEGMENT
__CTA3?AVbad_array_new_length@std@@ DD 03H
	DD	FLAT:__CT??_R0?AVbad_array_new_length@std@@@8??0bad_array_new_length@std@@QAE@ABV01@@Z12
	DD	FLAT:__CT??_R0?AVbad_alloc@std@@@8??0bad_alloc@std@@QAE@ABV01@@Z12
	DD	FLAT:__CT??_R0?AVexception@std@@@8??0exception@std@@QAE@ABV01@@Z12
xdata$x	ENDS
;	COMDAT __TI3?AVbad_array_new_length@std@@
xdata$x	SEGMENT
__TI3?AVbad_array_new_length@std@@ DD 00H
	DD	FLAT:??1bad_array_new_length@std@@UAE@XZ
	DD	00H
	DD	FLAT:__CTA3?AVbad_array_new_length@std@@
xdata$x	ENDS
;	COMDAT ??_C@_0BF@KINCDENJ@bad?5array?5new?5length@
CONST	SEGMENT
??_C@_0BF@KINCDENJ@bad?5array?5new?5length@ DB 'bad array new length', 00H ; `string'
CONST	ENDS
;	COMDAT ??_7bad_array_new_length@std@@6B@
CONST	SEGMENT
??_7bad_array_new_length@std@@6B@ DD FLAT:??_R4bad_array_new_length@std@@6B@ ; std::bad_array_new_length::`vftable'
	DD	FLAT:??_Ebad_array_new_length@std@@UAEPAXI@Z
	DD	FLAT:?what@exception@std@@UBEPBDXZ
CONST	ENDS
;	COMDAT ??_7bad_alloc@std@@6B@
CONST	SEGMENT
??_7bad_alloc@std@@6B@ DD FLAT:??_R4bad_alloc@std@@6B@	; std::bad_alloc::`vftable'
	DD	FLAT:??_Ebad_alloc@std@@UAEPAXI@Z
	DD	FLAT:?what@exception@std@@UBEPBDXZ
CONST	ENDS
;	COMDAT ??_C@_0BC@EOODALEL@Unknown?5exception@
CONST	SEGMENT
??_C@_0BC@EOODALEL@Unknown?5exception@ DB 'Unknown exception', 00H ; `string'
CONST	ENDS
;	COMDAT ??_7exception@std@@6B@
CONST	SEGMENT
??_7exception@std@@6B@ DD FLAT:??_R4exception@std@@6B@	; std::exception::`vftable'
	DD	FLAT:??_Eexception@std@@UAEPAXI@Z
	DD	FLAT:?what@exception@std@@UBEPBDXZ
CONST	ENDS
;	COMDAT xdata$x
xdata$x	SEGMENT
__unwindtable$?LoadMotions@CGraphicThing@@IAE_NXZ DD 0ffffffffH
	DD	FLAT:__unwindfunclet$?LoadMotions@CGraphicThing@@IAE_NXZ$0
__ehfuncinfo$?LoadMotions@CGraphicThing@@IAE_NXZ DD 019930522H
	DD	01H
	DD	FLAT:__unwindtable$?LoadMotions@CGraphicThing@@IAE_NXZ
	DD	2 DUP(00H)
	DD	2 DUP(00H)
	DD	00H
	DD	01H
xdata$x	ENDS
;	COMDAT xdata$x
xdata$x	SEGMENT
__unwindtable$?LoadModels@CGraphicThing@@IAE_NXZ DD 0ffffffffH
	DD	FLAT:__unwindfunclet$?LoadModels@CGraphicThing@@IAE_NXZ$0
__ehfuncinfo$?LoadModels@CGraphicThing@@IAE_NXZ DD 019930522H
	DD	01H
	DD	FLAT:__unwindtable$?LoadModels@CGraphicThing@@IAE_NXZ
	DD	2 DUP(00H)
	DD	2 DUP(00H)
	DD	00H
	DD	01H
xdata$x	ENDS
;	COMDAT xdata$x
xdata$x	SEGMENT
__ehfuncinfo$??1CGraphicThing@@UAE@XZ DD 019930522H
	DD	00H
	DD	00H
	DD	2 DUP(00H)
	DD	2 DUP(00H)
	DD	00H
	DD	05H
xdata$x	ENDS
;	COMDAT xdata$x
xdata$x	SEGMENT
__unwindtable$?Type@CGraphicThing@@SAKXZ DD 0ffffffffH
	DD	FLAT:__unwindfunclet$?Type@CGraphicThing@@SAKXZ$0
__ehfuncinfo$?Type@CGraphicThing@@SAKXZ DD 019930522H
	DD	01H
	DD	FLAT:__unwindtable$?Type@CGraphicThing@@SAKXZ
	DD	2 DUP(00H)
	DD	2 DUP(00H)
	DD	00H
	DD	01H
xdata$x	ENDS
;	COMDAT xdata$x
xdata$x	SEGMENT
__ehfuncinfo$??_ECGrannyMotion@@UAEPAXI@Z DD 019930522H
	DD	00H
	DD	00H
	DD	2 DUP(00H)
	DD	2 DUP(00H)
	DD	00H
	DD	05H
xdata$x	ENDS
;	COMDAT xdata$x
xdata$x	SEGMENT
__ehfuncinfo$??_ECGrannyModel@@UAEPAXI@Z DD 019930522H
	DD	00H
	DD	00H
	DD	2 DUP(00H)
	DD	2 DUP(00H)
	DD	00H
	DD	05H
xdata$x	ENDS
; Function compile flags: /Ogtp
; File C:\Program Files (x86)\Microsoft Visual Studio\2019\Community\VC\Tools\MSVC\14.27.29110\include\xmemory
;	COMDAT ??$_Allocate_manually_vector_aligned@U_Default_allocate_traits@std@@@std@@YAPAXI@Z
_TEXT	SEGMENT
__Bytes$ = 8						; size = 4
??$_Allocate_manually_vector_aligned@U_Default_allocate_traits@std@@@std@@YAPAXI@Z PROC ; std::_Allocate_manually_vector_aligned<std::_Default_allocate_traits>, COMDAT

; 113  : __declspec(allocator) void* _Allocate_manually_vector_aligned(const size_t _Bytes) {

  00000	55		 push	 ebp
  00001	8b ec		 mov	 ebp, esp

; 114  :     // allocate _Bytes manually aligned to at least _Big_allocation_alignment
; 115  :     const size_t _Block_size = _Non_user_size + _Bytes;

  00003	8b 45 08	 mov	 eax, DWORD PTR __Bytes$[ebp]
  00006	8d 48 23	 lea	 ecx, DWORD PTR [eax+35]

; 116  :     if (_Block_size <= _Bytes) {

  00009	3b c8		 cmp	 ecx, eax
  0000b	0f 86 00 00 00
	00		 jbe	 ?_Throw_bad_array_new_length@std@@YAXXZ ; std::_Throw_bad_array_new_length

; 77   :         return ::operator new(_Bytes);

  00011	51		 push	 ecx
  00012	e8 00 00 00 00	 call	 ??2@YAPAXI@Z		; operator new

; 117  :         _Throw_bad_array_new_length(); // add overflow
; 118  :     }
; 119  : 
; 120  :     const uintptr_t _Ptr_container = reinterpret_cast<uintptr_t>(_Traits::_Allocate(_Block_size));

  00017	8b c8		 mov	 ecx, eax

; 77   :         return ::operator new(_Bytes);

  00019	83 c4 04	 add	 esp, 4

; 121  :     _STL_VERIFY(_Ptr_container != 0, "invalid argument"); // validate even in release since we're doing p[-1]

  0001c	85 c9		 test	 ecx, ecx
  0001e	74 0b		 je	 SHORT $LN7@Allocate_m

; 122  :     void* const _Ptr = reinterpret_cast<void*>((_Ptr_container + _Non_user_size) & ~(_Big_allocation_alignment - 1));

  00020	8d 41 23	 lea	 eax, DWORD PTR [ecx+35]
  00023	83 e0 e0	 and	 eax, -32		; ffffffe0H

; 123  :     static_cast<uintptr_t*>(_Ptr)[-1] = _Ptr_container;

  00026	89 48 fc	 mov	 DWORD PTR [eax-4], ecx

; 124  : 
; 125  : #ifdef _DEBUG
; 126  :     static_cast<uintptr_t*>(_Ptr)[-2] = _Big_allocation_sentinel;
; 127  : #endif // _DEBUG
; 128  :     return _Ptr;
; 129  : }

  00029	5d		 pop	 ebp
  0002a	c3		 ret	 0
$LN7@Allocate_m:

; 121  :     _STL_VERIFY(_Ptr_container != 0, "invalid argument"); // validate even in release since we're doing p[-1]

  0002b	e9 00 00 00 00	 jmp	 __invalid_parameter_noinfo_noreturn
??$_Allocate_manually_vector_aligned@U_Default_allocate_traits@std@@@std@@YAPAXI@Z ENDP ; std::_Allocate_manually_vector_aligned<std::_Default_allocate_traits>
_TEXT	ENDS
; Function compile flags: /Ogtp
; File C:\Program Files (x86)\Microsoft Visual Studio\2019\Community\VC\Tools\MSVC\14.27.29110\include\xmemory
;	COMDAT ??$_Allocate@$07U_Default_allocate_traits@std@@$0A@@std@@YAPAXI@Z
_TEXT	SEGMENT
__Bytes$ = 8						; size = 4
??$_Allocate@$07U_Default_allocate_traits@std@@$0A@@std@@YAPAXI@Z PROC ; std::_Allocate<8,std::_Default_allocate_traits,0>, COMDAT

; 197  : __declspec(allocator) void* _Allocate(const size_t _Bytes) {

  00000	55		 push	 ebp
  00001	8b ec		 mov	 ebp, esp

; 198  :     // allocate _Bytes when !_HAS_ALIGNED_NEW || _Align <= __STDCPP_DEFAULT_NEW_ALIGNMENT__
; 199  : #if defined(_M_IX86) || defined(_M_X64)
; 200  :     if (_Bytes >= _Big_allocation_threshold) { // boost the alignment of big allocations to help autovectorization

  00003	8b 45 08	 mov	 eax, DWORD PTR __Bytes$[ebp]
  00006	3d 00 10 00 00	 cmp	 eax, 4096		; 00001000H
  0000b	72 09		 jb	 SHORT $LN2@Allocate

; 201  :         return _Allocate_manually_vector_aligned<_Traits>(_Bytes);

  0000d	89 45 08	 mov	 DWORD PTR __Bytes$[ebp], eax

; 210  : }

  00010	5d		 pop	 ebp

; 201  :         return _Allocate_manually_vector_aligned<_Traits>(_Bytes);

  00011	e9 00 00 00 00	 jmp	 ??$_Allocate_manually_vector_aligned@U_Default_allocate_traits@std@@@std@@YAPAXI@Z ; std::_Allocate_manually_vector_aligned<std::_Default_allocate_traits>
$LN2@Allocate:

; 202  :     }
; 203  : #endif // defined(_M_IX86) || defined(_M_X64)
; 204  : 
; 205  :     if (_Bytes != 0) {

  00016	85 c0		 test	 eax, eax
  00018	74 09		 je	 SHORT $LN3@Allocate

; 77   :         return ::operator new(_Bytes);

  0001a	89 45 08	 mov	 DWORD PTR __Bytes$[ebp], eax

; 210  : }

  0001d	5d		 pop	 ebp

; 77   :         return ::operator new(_Bytes);

  0001e	e9 00 00 00 00	 jmp	 ??2@YAPAXI@Z		; operator new
$LN3@Allocate:

; 206  :         return _Traits::_Allocate(_Bytes);
; 207  :     }
; 208  : 
; 209  :     return nullptr;

  00023	33 c0		 xor	 eax, eax

; 210  : }

  00025	5d		 pop	 ebp
  00026	c3		 ret	 0
??$_Allocate@$07U_Default_allocate_traits@std@@$0A@@std@@YAPAXI@Z ENDP ; std::_Allocate<8,std::_Default_allocate_traits,0>
_TEXT	ENDS
; Function compile flags: /Ogtp
; File C:\Program Files (x86)\Microsoft Visual Studio\2019\Community\VC\Tools\MSVC\14.27.29110\include\xmemory
;	COMDAT ??$_Deallocate@$07$0A@@std@@YAXPAXI@Z
_TEXT	SEGMENT
__Ptr$ = 8						; size = 4
__Bytes$ = 12						; size = 4
??$_Deallocate@$07$0A@@std@@YAXPAXI@Z PROC		; std::_Deallocate<8,0>, COMDAT

; 213  : void _Deallocate(void* _Ptr, size_t _Bytes) noexcept {

  00000	55		 push	 ebp
  00001	8b ec		 mov	 ebp, esp

; 214  :     // deallocate storage allocated by _Allocate when !_HAS_ALIGNED_NEW || _Align <= __STDCPP_DEFAULT_NEW_ALIGNMENT__
; 215  : #if defined(_M_IX86) || defined(_M_X64)
; 216  :     if (_Bytes >= _Big_allocation_threshold) { // boost the alignment of big allocations to help autovectorization

  00003	8b 4d 0c	 mov	 ecx, DWORD PTR __Bytes$[ebp]
  00006	81 f9 00 10 00
	00		 cmp	 ecx, 4096		; 00001000H
  0000c	72 18		 jb	 SHORT $LN15@Deallocate

; 137  :     const uintptr_t _Ptr_container   = _Ptr_user[-1];

  0000e	8b 45 08	 mov	 eax, DWORD PTR __Ptr$[ebp]
  00011	83 c1 23	 add	 ecx, 35			; 00000023H
  00014	8b 50 fc	 mov	 edx, DWORD PTR [eax-4]

; 138  : 
; 139  :     // If the following asserts, it likely means that we are performing
; 140  :     // an aligned delete on memory coming from an unaligned allocation.
; 141  :     _STL_ASSERT(_Ptr_user[-2] == _Big_allocation_sentinel, "invalid argument");
; 142  : 
; 143  :     // Extra paranoia on aligned allocation/deallocation; ensure _Ptr_container is
; 144  :     // in range [_Min_back_shift, _Non_user_size]
; 145  : #ifdef _DEBUG
; 146  :     constexpr uintptr_t _Min_back_shift = 2 * sizeof(void*);
; 147  : #else // ^^^ _DEBUG ^^^ // vvv !_DEBUG vvv
; 148  :     constexpr uintptr_t _Min_back_shift = sizeof(void*);
; 149  : #endif // _DEBUG
; 150  :     const uintptr_t _Back_shift = reinterpret_cast<uintptr_t>(_Ptr) - _Ptr_container;

  00017	2b c2		 sub	 eax, edx

; 151  :     _STL_VERIFY(_Back_shift >= _Min_back_shift && _Back_shift <= _Non_user_size, "invalid argument");

  00019	83 c0 fc	 add	 eax, -4			; fffffffcH
  0001c	83 f8 1f	 cmp	 eax, 31			; 0000001fH
  0001f	76 08		 jbe	 SHORT $LN13@Deallocate
  00021	e9 00 00 00 00	 jmp	 __invalid_parameter_noinfo_noreturn
$LN15@Deallocate:

; 214  :     // deallocate storage allocated by _Allocate when !_HAS_ALIGNED_NEW || _Align <= __STDCPP_DEFAULT_NEW_ALIGNMENT__
; 215  : #if defined(_M_IX86) || defined(_M_X64)
; 216  :     if (_Bytes >= _Big_allocation_threshold) { // boost the alignment of big allocations to help autovectorization

  00026	8b 55 08	 mov	 edx, DWORD PTR __Ptr$[ebp]
$LN13@Deallocate:

; 217  :         _Adjust_manually_vector_aligned(_Ptr, _Bytes);
; 218  :     }
; 219  : #endif // defined(_M_IX86) || defined(_M_X64)
; 220  : 
; 221  :     ::operator delete(_Ptr, _Bytes);

  00029	89 4d 0c	 mov	 DWORD PTR __Bytes$[ebp], ecx
  0002c	89 55 08	 mov	 DWORD PTR __Ptr$[ebp], edx

; 222  : }

  0002f	5d		 pop	 ebp

; 217  :         _Adjust_manually_vector_aligned(_Ptr, _Bytes);
; 218  :     }
; 219  : #endif // defined(_M_IX86) || defined(_M_X64)
; 220  : 
; 221  :     ::operator delete(_Ptr, _Bytes);

  00030	e9 00 00 00 00	 jmp	 ??3@YAXPAXI@Z		; operator delete
??$_Deallocate@$07$0A@@std@@YAXPAXI@Z ENDP		; std::_Deallocate<8,0>
_TEXT	ENDS
; Function compile flags: /Ogtp
; File C:\Program Files (x86)\Microsoft Visual Studio\2019\Community\VC\Tools\MSVC\14.27.29110\include\xmemory
;	COMDAT ??$_Construct_in_place@PADABQAD@std@@YAXAAPADABQAD@Z
_TEXT	SEGMENT
__Obj$ = 8						; size = 4
_<_Args_0>$ = 12					; size = 4
??$_Construct_in_place@PADABQAD@std@@YAXAAPADABQAD@Z PROC ; std::_Construct_in_place<char *,char * const &>, COMDAT

; 228  : void _Construct_in_place(_Ty& _Obj, _Types&&... _Args) noexcept(is_nothrow_constructible_v<_Ty, _Types...>) {

  00000	55		 push	 ebp
  00001	8b ec		 mov	 ebp, esp

; 229  :     ::new (const_cast<void*>(static_cast<const volatile void*>(_STD addressof(_Obj))))

  00003	8b 45 0c	 mov	 eax, DWORD PTR _<_Args_0>$[ebp]
  00006	8b 08		 mov	 ecx, DWORD PTR [eax]
  00008	8b 45 08	 mov	 eax, DWORD PTR __Obj$[ebp]
  0000b	89 08		 mov	 DWORD PTR [eax], ecx

; 230  :         _Ty(_STD forward<_Types>(_Args)...);
; 231  : }

  0000d	5d		 pop	 ebp
  0000e	c3		 ret	 0
??$_Construct_in_place@PADABQAD@std@@YAXAAPADABQAD@Z ENDP ; std::_Construct_in_place<char *,char * const &>
_TEXT	ENDS
; Function compile flags: /Ogtp
; File C:\Program Files (x86)\Microsoft Visual Studio\2019\Community\VC\Tools\MSVC\14.27.29110\include\xmemory
;	COMDAT ??$_Destroy_in_place@PAD@std@@YAXAAPAD@Z
_TEXT	SEGMENT
__Obj$ = 8						; size = 4
??$_Destroy_in_place@PAD@std@@YAXAAPAD@Z PROC		; std::_Destroy_in_place<char *>, COMDAT

; 268  :     _Obj.~_Ty();
; 269  : }

  00000	c2 00 00	 ret	 0
??$_Destroy_in_place@PAD@std@@YAXAAPAD@Z ENDP		; std::_Destroy_in_place<char *>
_TEXT	ENDS
; Function compile flags: /Ogtp
; File C:\DS Project\DS Files\Source\ClientSource\Client\eterGrnLib\Thing.cpp
;	COMDAT ?GetModelLocalPath@@YAABV?$basic_string@DU?$char_traits@D@std@@V?$allocator@D@2@@std@@XZ
_TEXT	SEGMENT
?GetModelLocalPath@@YAABV?$basic_string@DU?$char_traits@D@std@@V?$allocator@D@2@@std@@XZ PROC ; GetModelLocalPath, COMDAT

; 182  : 	return gs_modelLocalPath;

  00000	b8 00 00 00 00	 mov	 eax, OFFSET ?gs_modelLocalPath@@3V?$basic_string@DU?$char_traits@D@std@@V?$allocator@D@2@@std@@A

; 183  : }

  00005	c3		 ret	 0
?GetModelLocalPath@@YAABV?$basic_string@DU?$char_traits@D@std@@V?$allocator@D@2@@std@@XZ ENDP ; GetModelLocalPath
_TEXT	ENDS
; Function compile flags: /Ogtp
; File C:\Program Files (x86)\Microsoft Visual Studio\2019\Community\VC\Tools\MSVC\14.27.29110\include\xstring
; File C:\Program Files (x86)\Microsoft Visual Studio\2019\Community\VC\Tools\MSVC\14.27.29110\include\xmemory
; File C:\Program Files (x86)\Microsoft Visual Studio\2019\Community\VC\Tools\MSVC\14.27.29110\include\xstring
;	COMDAT ??__Fgs_modelLocalPath@@YAXXZ
text$yd	SEGMENT
??__Fgs_modelLocalPath@@YAXXZ PROC			; `dynamic atexit destructor for 'gs_modelLocalPath'', COMDAT

; 2153 :         return _BUF_SIZE <= _Myres;

  00000	83 3d 14 00 00
	00 10		 cmp	 DWORD PTR ?gs_modelLocalPath@@3V?$basic_string@DU?$char_traits@D@std@@V?$allocator@D@2@@std@@A+20, 16 ; 00000010H

; 4301 :         if (_Mypair._Myval2._Large_string_engaged()) {

  00007	72 22		 jb	 SHORT $LN7@dynamic

; 4302 :             const pointer _Ptr = _Mypair._Myval2._Bx._Ptr;

  00009	56		 push	 esi
  0000a	8b 35 00 00 00
	00		 mov	 esi, DWORD PTR ?gs_modelLocalPath@@3V?$basic_string@DU?$char_traits@D@std@@V?$allocator@D@2@@std@@A

; 4303 :             auto& _Al          = _Getal();
; 4304 :             _Destroy_in_place(_Mypair._Myval2._Bx._Ptr);

  00010	68 00 00 00 00	 push	 OFFSET ?gs_modelLocalPath@@3V?$basic_string@DU?$char_traits@D@std@@V?$allocator@D@2@@std@@A
  00015	e8 00 00 00 00	 call	 ??$_Destroy_in_place@PAD@std@@YAXAAPAD@Z ; std::_Destroy_in_place<char *>

; 4305 :             _Al.deallocate(_Ptr, _Mypair._Myval2._Myres + 1);

  0001a	a1 14 00 00 00	 mov	 eax, DWORD PTR ?gs_modelLocalPath@@3V?$basic_string@DU?$char_traits@D@std@@V?$allocator@D@2@@std@@A+20
  0001f	40		 inc	 eax
; File C:\Program Files (x86)\Microsoft Visual Studio\2019\Community\VC\Tools\MSVC\14.27.29110\include\xmemory

; 803  :         _Deallocate<_New_alignof<_Ty>>(_Ptr, sizeof(_Ty) * _Count);

  00020	50		 push	 eax
  00021	56		 push	 esi
  00022	e8 00 00 00 00	 call	 ??$_Deallocate@$07$0A@@std@@YAXPAXI@Z ; std::_Deallocate<8,0>
  00027	83 c4 0c	 add	 esp, 12			; 0000000cH
  0002a	5e		 pop	 esi
$LN7@dynamic:
; File C:\Program Files (x86)\Microsoft Visual Studio\2019\Community\VC\Tools\MSVC\14.27.29110\include\xstring

; 4308 :         _Mypair._Myval2._Mysize = 0;

  0002b	c7 05 10 00 00
	00 00 00 00 00	 mov	 DWORD PTR ?gs_modelLocalPath@@3V?$basic_string@DU?$char_traits@D@std@@V?$allocator@D@2@@std@@A+16, 0

; 4309 :         _Mypair._Myval2._Myres  = _BUF_SIZE - 1;

  00035	c7 05 14 00 00
	00 0f 00 00 00	 mov	 DWORD PTR ?gs_modelLocalPath@@3V?$basic_string@DU?$char_traits@D@std@@V?$allocator@D@2@@std@@A+20, 15 ; 0000000fH

; 4310 :         // the _Traits::assign is last so the codegen doesn't think the char write can alias this
; 4311 :         _Traits::assign(_Mypair._Myval2._Bx._Buf[0], _Elem());

  0003f	c6 05 00 00 00
	00 00		 mov	 BYTE PTR ?gs_modelLocalPath@@3V?$basic_string@DU?$char_traits@D@std@@V?$allocator@D@2@@std@@A, 0
  00046	c3		 ret	 0
??__Fgs_modelLocalPath@@YAXXZ ENDP			; `dynamic atexit destructor for 'gs_modelLocalPath''
text$yd	ENDS
; Function compile flags: /Ogtp
; File C:\DS Project\DS Files\Source\ClientSource\Client\eterGrnLib\Thing.cpp
;	COMDAT ??__Egs_modelLocalPath@@YAXXZ
text$di	SEGMENT
??__Egs_modelLocalPath@@YAXXZ PROC			; `dynamic initializer for 'gs_modelLocalPath'', COMDAT

; 178  : static std::string gs_modelLocalPath;

  00000	68 00 00 00 00	 push	 OFFSET ??__Fgs_modelLocalPath@@YAXXZ ; `dynamic atexit destructor for 'gs_modelLocalPath''
  00005	e8 00 00 00 00	 call	 _atexit
  0000a	59		 pop	 ecx
  0000b	c3		 ret	 0
??__Egs_modelLocalPath@@YAXXZ ENDP			; `dynamic initializer for 'gs_modelLocalPath''
text$di	ENDS
; Function compile flags: /Ogtp
;	COMDAT ??_GCGraphicThing@@UAEPAXI@Z
_TEXT	SEGMENT
___flags$ = 8						; size = 4
??_GCGraphicThing@@UAEPAXI@Z PROC			; CGraphicThing::`scalar deleting destructor', COMDAT
; _this$ = ecx
  00000	55		 push	 ebp
  00001	8b ec		 mov	 ebp, esp
  00003	56		 push	 esi
  00004	8b f1		 mov	 esi, ecx
  00006	e8 00 00 00 00	 call	 ??1CGraphicThing@@UAE@XZ ; CGraphicThing::~CGraphicThing
  0000b	f6 45 08 01	 test	 BYTE PTR ___flags$[ebp], 1
  0000f	74 0b		 je	 SHORT $LN4@scalar
  00011	6a 40		 push	 64			; 00000040H
  00013	56		 push	 esi
  00014	e8 00 00 00 00	 call	 ??3@YAXPAXI@Z		; operator delete
  00019	83 c4 08	 add	 esp, 8
$LN4@scalar:
  0001c	8b c6		 mov	 eax, esi
  0001e	5e		 pop	 esi
  0001f	5d		 pop	 ebp
  00020	c2 04 00	 ret	 4
??_GCGraphicThing@@UAEPAXI@Z ENDP			; CGraphicThing::`scalar deleting destructor'
_TEXT	ENDS
; Function compile flags: /Ogtp
; File C:\DS Project\DS Files\Source\ClientSource\Client\eterGrnLib\Thing.cpp
;	COMDAT ?OnIsType@CGraphicThing@@MAE_NK@Z
_TEXT	SEGMENT
_type$ = 8						; size = 4
?OnIsType@CGraphicThing@@MAE_NK@Z PROC			; CGraphicThing::OnIsType, COMDAT
; _this$ = ecx

; 53   : {

  00000	55		 push	 ebp
  00001	8b ec		 mov	 ebp, esp
  00003	56		 push	 esi
  00004	8b f1		 mov	 esi, ecx

; 54   : 	if (CGraphicThing::Type() == type)

  00006	e8 00 00 00 00	 call	 ?Type@CGraphicThing@@SAKXZ ; CGraphicThing::Type
  0000b	8b 55 08	 mov	 edx, DWORD PTR _type$[ebp]
  0000e	3b c2		 cmp	 eax, edx
  00010	75 07		 jne	 SHORT $LN2@OnIsType

; 55   : 		return true;

  00012	b0 01		 mov	 al, 1
  00014	5e		 pop	 esi

; 58   : }

  00015	5d		 pop	 ebp
  00016	c2 04 00	 ret	 4
$LN2@OnIsType:

; 56   : 
; 57   : 	return CResource::OnIsType(type);

  00019	52		 push	 edx
  0001a	8b ce		 mov	 ecx, esi
  0001c	e8 00 00 00 00	 call	 ?OnIsType@CResource@@MAE_NK@Z ; CResource::OnIsType
  00021	5e		 pop	 esi

; 58   : }

  00022	5d		 pop	 ebp
  00023	c2 04 00	 ret	 4
?OnIsType@CGraphicThing@@MAE_NK@Z ENDP			; CGraphicThing::OnIsType
_TEXT	ENDS
; Function compile flags: /Ogtp
; File C:\DS Project\DS Files\Source\ClientSource\Client\eterGrnLib\Thing.cpp
;	COMDAT ?OnIsEmpty@CGraphicThing@@MBE_NXZ
_TEXT	SEGMENT
?OnIsEmpty@CGraphicThing@@MBE_NXZ PROC			; CGraphicThing::OnIsEmpty, COMDAT
; _this$ = ecx

; 49   : 	return m_pgrnFile ? false : true;

  00000	83 79 2c 00	 cmp	 DWORD PTR [ecx+44], 0
  00004	0f 94 c0	 sete	 al

; 50   : }

  00007	c3		 ret	 0
?OnIsEmpty@CGraphicThing@@MBE_NXZ ENDP			; CGraphicThing::OnIsEmpty
_TEXT	ENDS
; Function compile flags: /Ogtp
; File C:\DS Project\DS Files\Source\ClientSource\Client\eterGrnLib\Thing.cpp
;	COMDAT ?OnClear@CGraphicThing@@MAEXXZ
_TEXT	SEGMENT
?OnClear@CGraphicThing@@MAEXXZ PROC			; CGraphicThing::OnClear, COMDAT
; _this$ = ecx

; 28   : {

  00000	56		 push	 esi
  00001	8b f1		 mov	 esi, ecx

; 29   : 	if (m_motions)

  00003	8b 4e 3c	 mov	 ecx, DWORD PTR [esi+60]
  00006	85 c9		 test	 ecx, ecx
  00008	74 1c		 je	 SHORT $LN7@OnClear

; 30   : 		delete [] m_motions;

  0000a	83 79 fc 00	 cmp	 DWORD PTR [ecx-4], 0
  0000e	8d 41 fc	 lea	 eax, DWORD PTR [ecx-4]
  00011	74 08		 je	 SHORT $LN6@OnClear
  00013	8b 01		 mov	 eax, DWORD PTR [ecx]
  00015	6a 03		 push	 3
  00017	ff 10		 call	 DWORD PTR [eax]
  00019	eb 0b		 jmp	 SHORT $LN7@OnClear
$LN6@OnClear:
  0001b	6a 04		 push	 4
  0001d	50		 push	 eax
  0001e	e8 00 00 00 00	 call	 ??_V@YAXPAXI@Z		; operator delete[]
  00023	83 c4 08	 add	 esp, 8
$LN7@OnClear:

; 31   : 
; 32   : 	if (m_models)

  00026	8b 4e 38	 mov	 ecx, DWORD PTR [esi+56]
  00029	85 c9		 test	 ecx, ecx
  0002b	74 1c		 je	 SHORT $LN11@OnClear

; 33   : 		delete [] m_models;

  0002d	83 79 fc 00	 cmp	 DWORD PTR [ecx-4], 0
  00031	8d 41 fc	 lea	 eax, DWORD PTR [ecx-4]
  00034	74 08		 je	 SHORT $LN10@OnClear
  00036	8b 01		 mov	 eax, DWORD PTR [ecx]
  00038	6a 03		 push	 3
  0003a	ff 10		 call	 DWORD PTR [eax]
  0003c	eb 0b		 jmp	 SHORT $LN11@OnClear
$LN10@OnClear:
  0003e	6a 04		 push	 4
  00040	50		 push	 eax
  00041	e8 00 00 00 00	 call	 ??_V@YAXPAXI@Z		; operator delete[]
  00046	83 c4 08	 add	 esp, 8
$LN11@OnClear:

; 34   : 
; 35   : 	if (m_pgrnFile)

  00049	8b 46 2c	 mov	 eax, DWORD PTR [esi+44]
  0004c	85 c0		 test	 eax, eax
  0004e	74 07		 je	 SHORT $LN4@OnClear

; 36   : 		GrannyFreeFile(m_pgrnFile);

  00050	50		 push	 eax
  00051	ff 15 00 00 00
	00		 call	 DWORD PTR __imp__GrannyFreeFile@4
$LN4@OnClear:

; 37   : 
; 38   : 	Initialize();

  00057	8b ce		 mov	 ecx, esi
  00059	5e		 pop	 esi
  0005a	e9 00 00 00 00	 jmp	 ?Initialize@CGraphicThing@@IAEXXZ ; CGraphicThing::Initialize
?OnClear@CGraphicThing@@MAEXXZ ENDP			; CGraphicThing::OnClear
_TEXT	ENDS
; Function compile flags: /Ogtp
; File C:\DS Project\DS Files\Source\ClientSource\Client\eterGrnLib\Thing.cpp
;	COMDAT ?OnLoad@CGraphicThing@@MAE_NHPBX@Z
_TEXT	SEGMENT
_iSize$ = 8						; size = 4
_c_pvBuf$ = 12						; size = 4
?OnLoad@CGraphicThing@@MAE_NHPBX@Z PROC			; CGraphicThing::OnLoad, COMDAT
; _this$ = ecx

; 158  : {

  00000	55		 push	 ebp
  00001	8b ec		 mov	 ebp, esp

; 159  : 	if (!c_pvBuf)

  00003	8b 45 0c	 mov	 eax, DWORD PTR _c_pvBuf$[ebp]
  00006	56		 push	 esi
  00007	8b f1		 mov	 esi, ecx
  00009	85 c0		 test	 eax, eax
  0000b	74 34		 je	 SHORT $LN6@OnLoad

; 160  : 		return false;
; 161  : 
; 162  : 	m_pgrnFile = GrannyReadEntireFileFromMemory(iSize, (void *) c_pvBuf);

  0000d	50		 push	 eax
  0000e	ff 75 08	 push	 DWORD PTR _iSize$[ebp]
  00011	ff 15 00 00 00
	00		 call	 DWORD PTR __imp__GrannyReadEntireFileFromMemory@8
  00017	89 46 2c	 mov	 DWORD PTR [esi+44], eax

; 163  : 
; 164  : 	if (!m_pgrnFile)

  0001a	85 c0		 test	 eax, eax
  0001c	74 23		 je	 SHORT $LN6@OnLoad

; 165  : 		return false;
; 166  : 
; 167  :     m_pgrnFileInfo = GrannyGetFileInfo(m_pgrnFile);

  0001e	50		 push	 eax
  0001f	ff 15 00 00 00
	00		 call	 DWORD PTR __imp__GrannyGetFileInfo@4
  00025	89 46 30	 mov	 DWORD PTR [esi+48], eax

; 168  : 
; 169  : 	if (!m_pgrnFileInfo)

  00028	85 c0		 test	 eax, eax
  0002a	74 15		 je	 SHORT $LN6@OnLoad

; 171  : 
; 172  : 	LoadModels();

  0002c	8b ce		 mov	 ecx, esi
  0002e	e8 00 00 00 00	 call	 ?LoadModels@CGraphicThing@@IAE_NXZ ; CGraphicThing::LoadModels

; 173  : 	LoadMotions();

  00033	8b ce		 mov	 ecx, esi
  00035	e8 00 00 00 00	 call	 ?LoadMotions@CGraphicThing@@IAE_NXZ ; CGraphicThing::LoadMotions

; 174  : 	return true;

  0003a	b0 01		 mov	 al, 1
  0003c	5e		 pop	 esi

; 175  : }

  0003d	5d		 pop	 ebp
  0003e	c2 08 00	 ret	 8
$LN6@OnLoad:

; 170  : 		return false;

  00041	32 c0		 xor	 al, al
  00043	5e		 pop	 esi

; 175  : }

  00044	5d		 pop	 ebp
  00045	c2 08 00	 ret	 8
?OnLoad@CGraphicThing@@MAE_NHPBX@Z ENDP			; CGraphicThing::OnLoad
_TEXT	ENDS
; Function compile flags: /Ogtp
; File C:\DS Project\DS Files\Source\ClientSource\Client\eterGrnLib\Thing.cpp
;	COMDAT ?LoadMotions@CGraphicThing@@IAE_NXZ
_TEXT	SEGMENT
$T2 = -20						; size = 4
$T3 = -16						; size = 4
__$EHRec$ = -12						; size = 12
?LoadMotions@CGraphicThing@@IAE_NXZ PROC		; CGraphicThing::LoadMotions, COMDAT
; _this$ = ecx

; 226  : {

  00000	55		 push	 ebp
  00001	8b ec		 mov	 ebp, esp
  00003	6a ff		 push	 -1
  00005	68 00 00 00 00	 push	 __ehhandler$?LoadMotions@CGraphicThing@@IAE_NXZ
  0000a	64 a1 00 00 00
	00		 mov	 eax, DWORD PTR fs:0
  00010	50		 push	 eax
  00011	83 ec 08	 sub	 esp, 8
  00014	53		 push	 ebx
  00015	56		 push	 esi
  00016	57		 push	 edi
  00017	a1 00 00 00 00	 mov	 eax, DWORD PTR ___security_cookie
  0001c	33 c5		 xor	 eax, ebp
  0001e	50		 push	 eax
  0001f	8d 45 f4	 lea	 eax, DWORD PTR __$EHRec$[ebp]
  00022	64 a3 00 00 00
	00		 mov	 DWORD PTR fs:0, eax
  00028	8b d9		 mov	 ebx, ecx

; 227  : 	assert(m_pgrnFile != NULL);
; 228  : 	assert(m_motions == NULL);
; 229  : 
; 230  : 	if (m_pgrnFileInfo->AnimationCount <= 0)

  0002a	8b 43 30	 mov	 eax, DWORD PTR [ebx+48]
  0002d	8b 78 4c	 mov	 edi, DWORD PTR [eax+76]
  00030	85 ff		 test	 edi, edi
  00032	0f 8e 99 00 00
	00		 jle	 $LN12@LoadMotion

; 231  : 		return false;
; 232  : 
; 233  : 	int motionCount = m_pgrnFileInfo->AnimationCount;
; 234  : 
; 235  : 	m_motions = new CGrannyMotion[motionCount];

  00038	33 c9		 xor	 ecx, ecx
  0003a	89 7d f0	 mov	 DWORD PTR $T3[ebp], edi
  0003d	8b c7		 mov	 eax, edi
  0003f	ba 08 00 00 00	 mov	 edx, 8
  00044	f7 e2		 mul	 edx
  00046	0f 90 c1	 seto	 cl
  00049	f7 d9		 neg	 ecx
  0004b	0b c8		 or	 ecx, eax
  0004d	33 c0		 xor	 eax, eax
  0004f	83 c1 04	 add	 ecx, 4
  00052	0f 92 c0	 setb	 al
  00055	f7 d8		 neg	 eax
  00057	0b c1		 or	 eax, ecx
  00059	50		 push	 eax
  0005a	e8 00 00 00 00	 call	 ??_U@YAPAXI@Z		; operator new[]
  0005f	83 c4 04	 add	 esp, 4
  00062	89 45 ec	 mov	 DWORD PTR $T2[ebp], eax
  00065	c7 45 fc 00 00
	00 00		 mov	 DWORD PTR __$EHRec$[ebp+8], 0
  0006c	85 c0		 test	 eax, eax
  0006e	74 1a		 je	 SHORT $LN8@LoadMotion
  00070	68 00 00 00 00	 push	 OFFSET ??1CGrannyMotion@@UAE@XZ ; CGrannyMotion::~CGrannyMotion
  00075	68 00 00 00 00	 push	 OFFSET ??0CGrannyMotion@@QAE@XZ ; CGrannyMotion::CGrannyMotion
  0007a	57		 push	 edi
  0007b	8d 70 04	 lea	 esi, DWORD PTR [eax+4]
  0007e	89 38		 mov	 DWORD PTR [eax], edi
  00080	6a 08		 push	 8
  00082	56		 push	 esi
  00083	e8 00 00 00 00	 call	 ??_L@YGXPAXIIP6EX0@Z1@Z
  00088	eb 02		 jmp	 SHORT $LN9@LoadMotion
$LN8@LoadMotion:
  0008a	33 f6		 xor	 esi, esi
$LN9@LoadMotion:
  0008c	89 73 3c	 mov	 DWORD PTR [ebx+60], esi

; 236  : 
; 237  : 	for (int m = 0; m < motionCount; ++m)

  0008f	33 f6		 xor	 esi, esi
  00091	c7 45 fc ff ff
	ff ff		 mov	 DWORD PTR __$EHRec$[ebp+8], -1
  00098	0f 1f 84 00 00
	00 00 00	 npad	 8
$LL4@LoadMotion:

; 238  : 		if (!m_motions[m].BindGrannyAnimation(m_pgrnFileInfo->Animations[m]))

  000a0	8b 43 30	 mov	 eax, DWORD PTR [ebx+48]
  000a3	8b 40 50	 mov	 eax, DWORD PTR [eax+80]
  000a6	ff 34 b0	 push	 DWORD PTR [eax+esi*4]
  000a9	8b 43 3c	 mov	 eax, DWORD PTR [ebx+60]
  000ac	8d 0c f0	 lea	 ecx, DWORD PTR [eax+esi*8]
  000af	e8 00 00 00 00	 call	 ?BindGrannyAnimation@CGrannyMotion@@QAE_NPAUgranny_animation@@@Z ; CGrannyMotion::BindGrannyAnimation
  000b4	84 c0		 test	 al, al
  000b6	74 19		 je	 SHORT $LN12@LoadMotion

; 236  : 
; 237  : 	for (int m = 0; m < motionCount; ++m)

  000b8	46		 inc	 esi
  000b9	3b f7		 cmp	 esi, edi
  000bb	7c e3		 jl	 SHORT $LL4@LoadMotion

; 240  : 
; 241  : 	return true;

  000bd	b0 01		 mov	 al, 1

; 242  : }

  000bf	8b 4d f4	 mov	 ecx, DWORD PTR __$EHRec$[ebp]
  000c2	64 89 0d 00 00
	00 00		 mov	 DWORD PTR fs:0, ecx
  000c9	59		 pop	 ecx
  000ca	5f		 pop	 edi
  000cb	5e		 pop	 esi
  000cc	5b		 pop	 ebx
  000cd	8b e5		 mov	 esp, ebp
  000cf	5d		 pop	 ebp
  000d0	c3		 ret	 0
$LN12@LoadMotion:

; 239  : 			return false;

  000d1	32 c0		 xor	 al, al

; 242  : }

  000d3	8b 4d f4	 mov	 ecx, DWORD PTR __$EHRec$[ebp]
  000d6	64 89 0d 00 00
	00 00		 mov	 DWORD PTR fs:0, ecx
  000dd	59		 pop	 ecx
  000de	5f		 pop	 edi
  000df	5e		 pop	 esi
  000e0	5b		 pop	 ebx
  000e1	8b e5		 mov	 esp, ebp
  000e3	5d		 pop	 ebp
  000e4	c3		 ret	 0
_TEXT	ENDS
;	COMDAT text$x
text$x	SEGMENT
__unwindfunclet$?LoadMotions@CGraphicThing@@IAE_NXZ$0:
  00000	33 db		 xor	 ebx, ebx
  00002	8b 45 f0	 mov	 eax, DWORD PTR $T3[ebp]
  00005	b9 08 00 00 00	 mov	 ecx, 8
  0000a	f7 e1		 mul	 ecx
  0000c	0f 90 c3	 seto	 bl
  0000f	f7 db		 neg	 ebx
  00011	0b d8		 or	 ebx, eax
  00013	33 c0		 xor	 eax, eax
  00015	83 c3 04	 add	 ebx, 4
  00018	0f 92 c0	 setb	 al
  0001b	f7 d8		 neg	 eax
  0001d	0b c3		 or	 eax, ebx
  0001f	50		 push	 eax
  00020	8b 45 ec	 mov	 eax, DWORD PTR $T2[ebp]
  00023	50		 push	 eax
  00024	e8 00 00 00 00	 call	 ??_V@YAXPAXI@Z		; operator delete[]
  00029	83 c4 08	 add	 esp, 8
  0002c	c3		 ret	 0
  0002d	cc		 int	 3
  0002e	cc		 int	 3
  0002f	cc		 int	 3
  00030	cc		 int	 3
  00031	cc		 int	 3
__ehhandler$?LoadMotions@CGraphicThing@@IAE_NXZ:
  00032	90		 npad	 1
  00033	90		 npad	 1
  00034	8b 54 24 08	 mov	 edx, DWORD PTR [esp+8]
  00038	8d 42 0c	 lea	 eax, DWORD PTR [edx+12]
  0003b	8b 4a e8	 mov	 ecx, DWORD PTR [edx-24]
  0003e	33 c8		 xor	 ecx, eax
  00040	e8 00 00 00 00	 call	 @__security_check_cookie@4
  00045	b8 00 00 00 00	 mov	 eax, OFFSET __ehfuncinfo$?LoadMotions@CGraphicThing@@IAE_NXZ
  0004a	e9 00 00 00 00	 jmp	 ___CxxFrameHandler3
text$x	ENDS
?LoadMotions@CGraphicThing@@IAE_NXZ ENDP		; CGraphicThing::LoadMotions
; Function compile flags: /Ogtp
; File C:\DS Project\DS Files\Source\ClientSource\Client\eterGrnLib\Thing.cpp
; File C:\Program Files (x86)\Microsoft Visual Studio\2019\Community\VC\Tools\MSVC\14.27.29110\include\xstring
; File C:\DS Project\DS Files\Source\ClientSource\Client\eterGrnLib\Thing.cpp
; File C:\Program Files (x86)\Microsoft Visual Studio\2019\Community\VC\Tools\MSVC\14.27.29110\include\xstring
; File C:\DS Project\DS Files\Source\ClientSource\Client\eterGrnLib\Thing.cpp
; File C:\Program Files (x86)\Microsoft Visual Studio\2019\Community\VC\Tools\MSVC\14.27.29110\include\xstring
; File C:\DS Project\DS Files\Source\ClientSource\Client\eterGrnLib\Thing.cpp
; File C:\Program Files (x86)\Microsoft Visual Studio\2019\Community\VC\Tools\MSVC\14.27.29110\include\xstring
; File C:\DS Project\DS Files\Source\ClientSource\Client\eterGrnLib\Thing.cpp
;	COMDAT ?LoadModels@CGraphicThing@@IAE_NXZ
_TEXT	SEGMENT
$T2 = -20						; size = 4
$T3 = -16						; size = 4
__$EHRec$ = -12						; size = 12
?LoadModels@CGraphicThing@@IAE_NXZ PROC			; CGraphicThing::LoadModels, COMDAT
; _this$ = ecx

; 187  : {

  00000	55		 push	 ebp
  00001	8b ec		 mov	 ebp, esp
  00003	6a ff		 push	 -1
  00005	68 00 00 00 00	 push	 __ehhandler$?LoadModels@CGraphicThing@@IAE_NXZ
  0000a	64 a1 00 00 00
	00		 mov	 eax, DWORD PTR fs:0
  00010	50		 push	 eax
  00011	83 ec 08	 sub	 esp, 8
  00014	53		 push	 ebx
  00015	56		 push	 esi
  00016	57		 push	 edi
  00017	a1 00 00 00 00	 mov	 eax, DWORD PTR ___security_cookie
  0001c	33 c5		 xor	 eax, ebp
  0001e	50		 push	 eax
  0001f	8d 45 f4	 lea	 eax, DWORD PTR __$EHRec$[ebp]
  00022	64 a3 00 00 00
	00		 mov	 DWORD PTR fs:0, eax
  00028	8b d9		 mov	 ebx, ecx

; 188  : 	assert(m_pgrnFile != NULL);
; 189  : 	assert(m_models == NULL);
; 190  : 
; 191  : 	if (m_pgrnFileInfo->ModelCount <= 0)

  0002a	8b 7b 30	 mov	 edi, DWORD PTR [ebx+48]
  0002d	83 7f 3c 00	 cmp	 DWORD PTR [edi+60], 0
  00031	0f 8e 32 01 00
	00		 jle	 $LN58@LoadModels

; 198  : 	if (fileName.length() > 2 && fileName[1] != ':')

  00037	8b 43 1c	 mov	 eax, DWORD PTR [ebx+28]
  0003a	8d 53 0c	 lea	 edx, DWORD PTR [ebx+12]
  0003d	83 f8 02	 cmp	 eax, 2
  00040	76 5c		 jbe	 SHORT $LN43@LoadModels
; File C:\Program Files (x86)\Microsoft Visual Studio\2019\Community\VC\Tools\MSVC\14.27.29110\include\xstring

; 2145 :         if (_Large_string_engaged()) {

  00042	83 7a 14 10	 cmp	 DWORD PTR [edx+20], 16	; 00000010H
  00046	8b ca		 mov	 ecx, edx
  00048	72 02		 jb	 SHORT $LN67@LoadModels

; 2146 :             _Result = _Unfancy(_Bx._Ptr);

  0004a	8b 0a		 mov	 ecx, DWORD PTR [edx]
$LN67@LoadModels:
; File C:\DS Project\DS Files\Source\ClientSource\Client\eterGrnLib\Thing.cpp

; 198  : 	if (fileName.length() > 2 && fileName[1] != ':')

  0004c	80 79 01 3a	 cmp	 BYTE PTR [ecx+1], 58	; 0000003aH
  00050	74 4c		 je	 SHORT $LN43@LoadModels
; File C:\Program Files (x86)\Microsoft Visual Studio\2019\Community\VC\Tools\MSVC\14.27.29110\include\xstring

; 2145 :         if (_Large_string_engaged()) {

  00052	8b 7a 14	 mov	 edi, DWORD PTR [edx+20]
  00055	8b f2		 mov	 esi, edx
  00057	83 ff 10	 cmp	 edi, 16			; 00000010H
  0005a	72 02		 jb	 SHORT $LN68@LoadModels

; 2146 :             _Result = _Unfancy(_Bx._Ptr);

  0005c	8b 32		 mov	 esi, DWORD PTR [edx]
$LN68@LoadModels:

; 605  :         for (auto _Match_try = _Haystack + (_STD min)(_Start_at, _Hay_size - 1);; --_Match_try) {

  0005e	83 c9 ff	 or	 ecx, -1
  00061	48		 dec	 eax
  00062	3b c1		 cmp	 eax, ecx
  00064	0f 42 c8	 cmovb	 ecx, eax
  00067	03 ce		 add	 ecx, esi

; 606  :             if (_Traits::eq(*_Match_try, _Ch)) {

  00069	80 39 5c	 cmp	 BYTE PTR [ecx], 92	; 0000005cH
  0006c	74 10		 je	 SHORT $LN56@LoadModels
  0006e	66 90		 npad	 2
$LL29@LoadModels:

; 608  :             }
; 609  : 
; 610  :             if (_Match_try == _Haystack) {

  00070	3b ce		 cmp	 ecx, esi
  00072	0f 84 7e 00 00
	00		 je	 $LN57@LoadModels

; 606  :             if (_Traits::eq(*_Match_try, _Ch)) {

  00078	49		 dec	 ecx
  00079	80 39 5c	 cmp	 BYTE PTR [ecx], 92	; 0000005cH
  0007c	75 f2		 jne	 SHORT $LL29@LoadModels
$LN56@LoadModels:

; 607  :                 return static_cast<size_t>(_Match_try - _Haystack); // found a match

  0007e	2b ce		 sub	 ecx, esi
$LN26@LoadModels:
; File C:\DS Project\DS Files\Source\ClientSource\Client\eterGrnLib\Thing.cpp

; 201  : 		gs_modelLocalPath.assign(fileName, 0, sepPos+1);

  00080	41		 inc	 ecx
; File C:\Program Files (x86)\Microsoft Visual Studio\2019\Community\VC\Tools\MSVC\14.27.29110\include\xstring

; 2174 :         return (_STD min)(_Size, _Mysize - _Off);

  00081	39 4a 10	 cmp	 DWORD PTR [edx+16], ecx
  00084	0f 42 4a 10	 cmovb	 ecx, DWORD PTR [edx+16]

; 2145 :         if (_Large_string_engaged()) {

  00088	83 ff 10	 cmp	 edi, 16			; 00000010H
  0008b	72 02		 jb	 SHORT $LN49@LoadModels

; 2146 :             _Result = _Unfancy(_Bx._Ptr);

  0008d	8b 12		 mov	 edx, DWORD PTR [edx]
$LN49@LoadModels:

; 2946 :         return assign(_Right._Mypair._Myval2._Myptr() + _Roff, _Count);

  0008f	51		 push	 ecx
  00090	52		 push	 edx
  00091	b9 00 00 00 00	 mov	 ecx, OFFSET ?gs_modelLocalPath@@3V?$basic_string@DU?$char_traits@D@std@@V?$allocator@D@2@@std@@A
  00096	e8 00 00 00 00	 call	 ?assign@?$basic_string@DU?$char_traits@D@std@@V?$allocator@D@2@@std@@QAEAAV12@QBDI@Z ; std::basic_string<char,std::char_traits<char>,std::allocator<char> >::assign
  0009b	8b 7b 30	 mov	 edi, DWORD PTR [ebx+48]
$LN43@LoadModels:
; File C:\DS Project\DS Files\Source\ClientSource\Client\eterGrnLib\Thing.cpp

; 205  : 	int modelCount = m_pgrnFileInfo->ModelCount;

  0009e	8b 7f 3c	 mov	 edi, DWORD PTR [edi+60]

; 207  : 	m_models = new CGrannyModel[modelCount];

  000a1	33 c9		 xor	 ecx, ecx
  000a3	8b c7		 mov	 eax, edi
  000a5	89 7d f0	 mov	 DWORD PTR $T3[ebp], edi
  000a8	ba 90 00 00 00	 mov	 edx, 144		; 00000090H
  000ad	f7 e2		 mul	 edx
  000af	0f 90 c1	 seto	 cl
  000b2	f7 d9		 neg	 ecx
  000b4	0b c8		 or	 ecx, eax
  000b6	33 c0		 xor	 eax, eax
  000b8	83 c1 04	 add	 ecx, 4
  000bb	0f 92 c0	 setb	 al
  000be	f7 d8		 neg	 eax
  000c0	0b c1		 or	 eax, ecx
  000c2	50		 push	 eax
  000c3	e8 00 00 00 00	 call	 ??_U@YAPAXI@Z		; operator new[]
  000c8	83 c4 04	 add	 esp, 4
  000cb	89 45 ec	 mov	 DWORD PTR $T2[ebp], eax
  000ce	c7 45 fc 00 00
	00 00		 mov	 DWORD PTR __$EHRec$[ebp+8], 0
  000d5	85 c0		 test	 eax, eax
  000d7	74 22		 je	 SHORT $LN9@LoadModels
  000d9	68 00 00 00 00	 push	 OFFSET ??1CGrannyModel@@UAE@XZ ; CGrannyModel::~CGrannyModel
  000de	68 00 00 00 00	 push	 OFFSET ??0CGrannyModel@@QAE@XZ ; CGrannyModel::CGrannyModel
  000e3	57		 push	 edi
  000e4	8d 70 04	 lea	 esi, DWORD PTR [eax+4]
  000e7	89 38		 mov	 DWORD PTR [eax], edi
  000e9	68 90 00 00 00	 push	 144			; 00000090H
  000ee	56		 push	 esi
  000ef	e8 00 00 00 00	 call	 ??_L@YGXPAXIIP6EX0@Z1@Z
  000f4	eb 07		 jmp	 SHORT $LN10@LoadModels
$LN57@LoadModels:
; File C:\Program Files (x86)\Microsoft Visual Studio\2019\Community\VC\Tools\MSVC\14.27.29110\include\xstring

; 616  :     return static_cast<size_t>(-1); // no match

  000f6	83 c9 ff	 or	 ecx, -1
  000f9	eb 85		 jmp	 SHORT $LN26@LoadModels
$LN9@LoadModels:
; File C:\DS Project\DS Files\Source\ClientSource\Client\eterGrnLib\Thing.cpp

; 207  : 	m_models = new CGrannyModel[modelCount];

  000fb	33 f6		 xor	 esi, esi
$LN10@LoadModels:
  000fd	89 73 38	 mov	 DWORD PTR [ebx+56], esi

; 208  : 
; 209  : 	for (int m = 0; m < modelCount; ++m)

  00100	33 f6		 xor	 esi, esi
  00102	c7 45 fc ff ff
	ff ff		 mov	 DWORD PTR __$EHRec$[ebp+8], -1
  00109	85 ff		 test	 edi, edi
  0010b	7e 26		 jle	 SHORT $LN3@LoadModels

; 207  : 	m_models = new CGrannyModel[modelCount];

  0010d	33 ff		 xor	 edi, edi
  0010f	90		 npad	 1
$LL4@LoadModels:

; 210  : 	{
; 211  : 		CGrannyModel & rModel = m_models[m];
; 212  : 		granny_model * pgrnModel = m_pgrnFileInfo->Models[m];

  00110	8b 43 30	 mov	 eax, DWORD PTR [ebx+48]
  00113	8b 4b 38	 mov	 ecx, DWORD PTR [ebx+56]
  00116	03 cf		 add	 ecx, edi
  00118	8b 40 40	 mov	 eax, DWORD PTR [eax+64]

; 213  : 
; 214  : 		if (!rModel.CreateFromGrannyModelPointer(pgrnModel))

  0011b	ff 34 b0	 push	 DWORD PTR [eax+esi*4]
  0011e	e8 00 00 00 00	 call	 ?CreateFromGrannyModelPointer@CGrannyModel@@QAE_NPAUgranny_model@@@Z ; CGrannyModel::CreateFromGrannyModelPointer
  00123	84 c0		 test	 al, al
  00125	74 42		 je	 SHORT $LN58@LoadModels

; 208  : 
; 209  : 	for (int m = 0; m < modelCount; ++m)

  00127	46		 inc	 esi
  00128	81 c7 90 00 00
	00		 add	 edi, 144		; 00000090H
  0012e	3b 75 f0	 cmp	 esi, DWORD PTR $T3[ebp]
  00131	7c dd		 jl	 SHORT $LL4@LoadModels
$LN3@LoadModels:

; 216  : 	}
; 217  : 
; 218  : 	GrannyFreeFileSection(m_pgrnFile, GrannyStandardRigidVertexSection);

  00133	8b 35 00 00 00
	00		 mov	 esi, DWORD PTR __imp__GrannyFreeFileSection@8
  00139	6a 01		 push	 1
  0013b	ff 73 2c	 push	 DWORD PTR [ebx+44]
  0013e	ff d6		 call	 esi

; 219  : 	GrannyFreeFileSection(m_pgrnFile, GrannyStandardRigidIndexSection);

  00140	6a 02		 push	 2
  00142	ff 73 2c	 push	 DWORD PTR [ebx+44]
  00145	ff d6		 call	 esi

; 220  : 	GrannyFreeFileSection(m_pgrnFile, GrannyStandardDeformableIndexSection);

  00147	6a 04		 push	 4
  00149	ff 73 2c	 push	 DWORD PTR [ebx+44]
  0014c	ff d6		 call	 esi

; 221  : 	GrannyFreeFileSection(m_pgrnFile, GrannyStandardTextureSection);

  0014e	6a 05		 push	 5
  00150	ff 73 2c	 push	 DWORD PTR [ebx+44]
  00153	ff d6		 call	 esi

; 222  : 	return true;

  00155	b0 01		 mov	 al, 1

; 223  : }

  00157	8b 4d f4	 mov	 ecx, DWORD PTR __$EHRec$[ebp]
  0015a	64 89 0d 00 00
	00 00		 mov	 DWORD PTR fs:0, ecx
  00161	59		 pop	 ecx
  00162	5f		 pop	 edi
  00163	5e		 pop	 esi
  00164	5b		 pop	 ebx
  00165	8b e5		 mov	 esp, ebp
  00167	5d		 pop	 ebp
  00168	c3		 ret	 0
$LN58@LoadModels:

; 215  : 			return false;

  00169	32 c0		 xor	 al, al

; 223  : }

  0016b	8b 4d f4	 mov	 ecx, DWORD PTR __$EHRec$[ebp]
  0016e	64 89 0d 00 00
	00 00		 mov	 DWORD PTR fs:0, ecx
  00175	59		 pop	 ecx
  00176	5f		 pop	 edi
  00177	5e		 pop	 esi
  00178	5b		 pop	 ebx
  00179	8b e5		 mov	 esp, ebp
  0017b	5d		 pop	 ebp
  0017c	c3		 ret	 0
_TEXT	ENDS
;	COMDAT text$x
text$x	SEGMENT
__unwindfunclet$?LoadModels@CGraphicThing@@IAE_NXZ$0:
  00000	33 db		 xor	 ebx, ebx
  00002	8b 45 f0	 mov	 eax, DWORD PTR $T3[ebp]
  00005	b9 90 00 00 00	 mov	 ecx, 144		; 00000090H
  0000a	f7 e1		 mul	 ecx
  0000c	0f 90 c3	 seto	 bl
  0000f	f7 db		 neg	 ebx
  00011	0b d8		 or	 ebx, eax
  00013	33 c0		 xor	 eax, eax
  00015	83 c3 04	 add	 ebx, 4
  00018	0f 92 c0	 setb	 al
  0001b	f7 d8		 neg	 eax
  0001d	0b c3		 or	 eax, ebx
  0001f	50		 push	 eax
  00020	8b 45 ec	 mov	 eax, DWORD PTR $T2[ebp]
  00023	50		 push	 eax
  00024	e8 00 00 00 00	 call	 ??_V@YAXPAXI@Z		; operator delete[]
  00029	83 c4 08	 add	 esp, 8
  0002c	c3		 ret	 0
  0002d	cc		 int	 3
  0002e	cc		 int	 3
  0002f	cc		 int	 3
  00030	cc		 int	 3
  00031	cc		 int	 3
__ehhandler$?LoadModels@CGraphicThing@@IAE_NXZ:
  00032	90		 npad	 1
  00033	90		 npad	 1
  00034	8b 54 24 08	 mov	 edx, DWORD PTR [esp+8]
  00038	8d 42 0c	 lea	 eax, DWORD PTR [edx+12]
  0003b	8b 4a e8	 mov	 ecx, DWORD PTR [edx-24]
  0003e	33 c8		 xor	 ecx, eax
  00040	e8 00 00 00 00	 call	 @__security_check_cookie@4
  00045	b8 00 00 00 00	 mov	 eax, OFFSET __ehfuncinfo$?LoadModels@CGraphicThing@@IAE_NXZ
  0004a	e9 00 00 00 00	 jmp	 ___CxxFrameHandler3
text$x	ENDS
?LoadModels@CGraphicThing@@IAE_NXZ ENDP			; CGraphicThing::LoadModels
; Function compile flags: /Ogtp
; File C:\DS Project\DS Files\Source\ClientSource\Client\eterGrnLib\Thing.cpp
;	COMDAT ?Initialize@CGraphicThing@@IAEXXZ
_TEXT	SEGMENT
?Initialize@CGraphicThing@@IAEXXZ PROC			; CGraphicThing::Initialize, COMDAT
; _this$ = ecx

; 19   : 	m_pgrnFile = NULL;

  00000	c7 41 2c 00 00
	00 00		 mov	 DWORD PTR [ecx+44], 0

; 20   : 	m_pgrnFileInfo = NULL;

  00007	c7 41 30 00 00
	00 00		 mov	 DWORD PTR [ecx+48], 0

; 21   : 	m_pgrnAni = NULL;

  0000e	c7 41 34 00 00
	00 00		 mov	 DWORD PTR [ecx+52], 0

; 22   : 
; 23   : 	m_models = NULL;

  00015	c7 41 38 00 00
	00 00		 mov	 DWORD PTR [ecx+56], 0

; 24   : 	m_motions = NULL;

  0001c	c7 41 3c 00 00
	00 00		 mov	 DWORD PTR [ecx+60], 0

; 25   : }

  00023	c3		 ret	 0
?Initialize@CGraphicThing@@IAEXXZ ENDP			; CGraphicThing::Initialize
_TEXT	ENDS
; Function compile flags: /Ogtp
; File C:\DS Project\DS Files\Source\ClientSource\Client\eterGrnLib\Thing.cpp
;	COMDAT ?GetMotionCount@CGraphicThing@@QBEHXZ
_TEXT	SEGMENT
?GetMotionCount@CGraphicThing@@QBEHXZ PROC		; CGraphicThing::GetMotionCount, COMDAT
; _this$ = ecx

; 151  : 	if (!m_pgrnFileInfo)

  00000	8b 41 30	 mov	 eax, DWORD PTR [ecx+48]
  00003	85 c0		 test	 eax, eax
  00005	75 01		 jne	 SHORT $LN2@GetMotionC

; 155  : }

  00007	c3		 ret	 0
$LN2@GetMotionC:

; 152  : 		return 0;
; 153  : 
; 154  : 	return (m_pgrnFileInfo->AnimationCount);

  00008	8b 40 4c	 mov	 eax, DWORD PTR [eax+76]

; 155  : }

  0000b	c3		 ret	 0
?GetMotionCount@CGraphicThing@@QBEHXZ ENDP		; CGraphicThing::GetMotionCount
_TEXT	ENDS
; Function compile flags: /Ogtp
; File C:\DS Project\DS Files\Source\ClientSource\Client\eterGrnLib\Thing.cpp
;	COMDAT ?GetMotionPointer@CGraphicThing@@QAEPAVCGrannyMotion@@H@Z
_TEXT	SEGMENT
_iMotion$ = 8						; size = 4
?GetMotionPointer@CGraphicThing@@QAEPAVCGrannyMotion@@H@Z PROC ; CGraphicThing::GetMotionPointer, COMDAT
; _this$ = ecx

; 131  : {

  00000	55		 push	 ebp
  00001	8b ec		 mov	 ebp, esp

; 132  : 	assert(CheckMotionIndex(iMotion));
; 133  : 
; 134  : 	if (iMotion >= m_pgrnFileInfo->AnimationCount)

  00003	8b 41 30	 mov	 eax, DWORD PTR [ecx+48]
  00006	8b 55 08	 mov	 edx, DWORD PTR _iMotion$[ebp]
  00009	3b 50 4c	 cmp	 edx, DWORD PTR [eax+76]
  0000c	7c 06		 jl	 SHORT $LN2@GetMotionP

; 135  : 		return NULL;

  0000e	33 c0		 xor	 eax, eax

; 139  : }

  00010	5d		 pop	 ebp
  00011	c2 04 00	 ret	 4
$LN2@GetMotionP:

; 136  : 
; 137  : 	assert(m_motions != NULL);
; 138  : 	return (m_motions + iMotion);

  00014	8b 41 3c	 mov	 eax, DWORD PTR [ecx+60]
  00017	8d 04 d0	 lea	 eax, DWORD PTR [eax+edx*8]

; 139  : }

  0001a	5d		 pop	 ebp
  0001b	c2 04 00	 ret	 4
?GetMotionPointer@CGraphicThing@@QAEPAVCGrannyMotion@@H@Z ENDP ; CGraphicThing::GetMotionPointer
_TEXT	ENDS
; Function compile flags: /Ogtp
; File C:\DS Project\DS Files\Source\ClientSource\Client\eterGrnLib\Thing.cpp
;	COMDAT ?CheckMotionIndex@CGraphicThing@@QBE_NH@Z
_TEXT	SEGMENT
_iMotion$ = 8						; size = 4
?CheckMotionIndex@CGraphicThing@@QBE_NH@Z PROC		; CGraphicThing::CheckMotionIndex, COMDAT
; _this$ = ecx

; 106  : {

  00000	55		 push	 ebp
  00001	8b ec		 mov	 ebp, esp

; 107  : 	// Temporary
; 108  : 	if (!m_pgrnFileInfo)

  00003	8b 49 30	 mov	 ecx, DWORD PTR [ecx+48]
  00006	85 c9		 test	 ecx, ecx
  00008	74 12		 je	 SHORT $LN6@CheckMotio

; 109  : 		return false;
; 110  : 	// Temporary
; 111  : 
; 112  : 	assert(m_pgrnFileInfo != NULL);
; 113  : 
; 114  : 	if (iMotion < 0)

  0000a	8b 45 08	 mov	 eax, DWORD PTR _iMotion$[ebp]
  0000d	85 c0		 test	 eax, eax
  0000f	78 0b		 js	 SHORT $LN6@CheckMotio

; 115  : 		return false;
; 116  : 
; 117  : 	if (iMotion >= m_pgrnFileInfo->AnimationCount)

  00011	3b 41 4c	 cmp	 eax, DWORD PTR [ecx+76]
  00014	7d 06		 jge	 SHORT $LN6@CheckMotio

; 119  : 
; 120  : 	return true;

  00016	b0 01		 mov	 al, 1

; 121  : }

  00018	5d		 pop	 ebp
  00019	c2 04 00	 ret	 4
$LN6@CheckMotio:

; 118  : 		return false;

  0001c	32 c0		 xor	 al, al

; 121  : }

  0001e	5d		 pop	 ebp
  0001f	c2 04 00	 ret	 4
?CheckMotionIndex@CGraphicThing@@QBE_NH@Z ENDP		; CGraphicThing::CheckMotionIndex
_TEXT	ENDS
; Function compile flags: /Ogtp
; File C:\DS Project\DS Files\Source\ClientSource\Client\eterGrnLib\Thing.cpp
;	COMDAT ?GetModelCount@CGraphicThing@@QBEHXZ
_TEXT	SEGMENT
?GetModelCount@CGraphicThing@@QBEHXZ PROC		; CGraphicThing::GetModelCount, COMDAT
; _this$ = ecx

; 143  : 	if (!m_pgrnFileInfo)

  00000	8b 41 30	 mov	 eax, DWORD PTR [ecx+48]
  00003	85 c0		 test	 eax, eax
  00005	75 01		 jne	 SHORT $LN2@GetModelCo

; 147  : }

  00007	c3		 ret	 0
$LN2@GetModelCo:

; 144  : 		return 0;
; 145  : 
; 146  : 	return (m_pgrnFileInfo->ModelCount);

  00008	8b 40 3c	 mov	 eax, DWORD PTR [eax+60]

; 147  : }

  0000b	c3		 ret	 0
?GetModelCount@CGraphicThing@@QBEHXZ ENDP		; CGraphicThing::GetModelCount
_TEXT	ENDS
; Function compile flags: /Ogtp
; File C:\DS Project\DS Files\Source\ClientSource\Client\eterGrnLib\Thing.cpp
;	COMDAT ?GetModelPointer@CGraphicThing@@QAEPAVCGrannyModel@@H@Z
_TEXT	SEGMENT
_iModel$ = 8						; size = 4
?GetModelPointer@CGraphicThing@@QAEPAVCGrannyModel@@H@Z PROC ; CGraphicThing::GetModelPointer, COMDAT
; _this$ = ecx

; 124  : {

  00000	55		 push	 ebp
  00001	8b ec		 mov	 ebp, esp

; 125  : 	assert(CheckModelIndex(iModel));
; 126  : 	assert(m_models != NULL);
; 127  : 	return m_models + iModel;

  00003	8b 45 08	 mov	 eax, DWORD PTR _iModel$[ebp]
  00006	8d 04 c0	 lea	 eax, DWORD PTR [eax+eax*8]
  00009	c1 e0 04	 shl	 eax, 4
  0000c	03 41 38	 add	 eax, DWORD PTR [ecx+56]

; 128  : }

  0000f	5d		 pop	 ebp
  00010	c2 04 00	 ret	 4
?GetModelPointer@CGraphicThing@@QAEPAVCGrannyModel@@H@Z ENDP ; CGraphicThing::GetModelPointer
_TEXT	ENDS
; Function compile flags: /Ogtp
; File C:\DS Project\DS Files\Source\ClientSource\Client\eterGrnLib\Thing.cpp
; File C:\Program Files (x86)\Microsoft Visual Studio\2019\Community\VC\Tools\MSVC\14.27.29110\include\xstring
; File C:\DS Project\DS Files\Source\ClientSource\Client\eterGrnLib\Thing.cpp
;	COMDAT ?CheckModelIndex@CGraphicThing@@QBE_NH@Z
_TEXT	SEGMENT
_iModel$ = 8						; size = 4
?CheckModelIndex@CGraphicThing@@QBE_NH@Z PROC		; CGraphicThing::CheckModelIndex, COMDAT
; _this$ = ecx

; 87   : {

  00000	55		 push	 ebp
  00001	8b ec		 mov	 ebp, esp

; 88   : 	if (!m_pgrnFileInfo)

  00003	8b 51 30	 mov	 edx, DWORD PTR [ecx+48]
  00006	85 d2		 test	 edx, edx
  00008	75 1f		 jne	 SHORT $LN2@CheckModel
; File C:\Program Files (x86)\Microsoft Visual Studio\2019\Community\VC\Tools\MSVC\14.27.29110\include\xstring

; 2153 :         return _BUF_SIZE <= _Myres;

  0000a	83 79 20 10	 cmp	 DWORD PTR [ecx+32], 16	; 00000010H

; 3668 :         return _Mypair._Myval2._Myptr();

  0000e	8d 41 0c	 lea	 eax, DWORD PTR [ecx+12]

; 2145 :         if (_Large_string_engaged()) {

  00011	72 02		 jb	 SHORT $LN11@CheckModel

; 2146 :             _Result = _Unfancy(_Bx._Ptr);

  00013	8b 00		 mov	 eax, DWORD PTR [eax]
$LN11@CheckModel:
; File C:\DS Project\DS Files\Source\ClientSource\Client\eterGrnLib\Thing.cpp

; 90   : 		Tracef("m_pgrnFileInfo == NULL: %s\n", GetFileName());

  00015	50		 push	 eax
  00016	68 00 00 00 00	 push	 OFFSET ??_C@_0BM@CNDJBDNK@m_pgrnFileInfo?5?$DN?$DN?5NULL?3?5?$CFs?6@
  0001b	e8 00 00 00 00	 call	 ?Tracef@@YAXPBDZZ	; Tracef
  00020	83 c4 08	 add	 esp, 8
$LN15@CheckModel:

; 103  : }

  00023	32 c0		 xor	 al, al
  00025	5d		 pop	 ebp
  00026	c2 04 00	 ret	 4
$LN2@CheckModel:

; 91   : 		return false;
; 92   : 	}
; 93   : 
; 94   : 	assert(m_pgrnFileInfo != NULL);
; 95   : 
; 96   : 	if (iModel < 0)

  00029	8b 45 08	 mov	 eax, DWORD PTR _iModel$[ebp]
  0002c	85 c0		 test	 eax, eax
  0002e	78 f3		 js	 SHORT $LN15@CheckModel

; 97   : 		return false;
; 98   : 
; 99   : 	if (iModel >= m_pgrnFileInfo->ModelCount)

  00030	3b 42 3c	 cmp	 eax, DWORD PTR [edx+60]
  00033	7d ee		 jge	 SHORT $LN15@CheckModel

; 100  : 		return false;
; 101  : 
; 102  : 	return true;

  00035	b0 01		 mov	 al, 1

; 103  : }

  00037	5d		 pop	 ebp
  00038	c2 04 00	 ret	 4
?CheckModelIndex@CGraphicThing@@QBE_NH@Z ENDP		; CGraphicThing::CheckModelIndex
_TEXT	ENDS
; Function compile flags: /Ogtp
; File C:\DS Project\DS Files\Source\ClientSource\Client\eterGrnLib\Thing.cpp
;	COMDAT ?DestroyDeviceObjects@CGraphicThing@@UAEXXZ
_TEXT	SEGMENT
?DestroyDeviceObjects@CGraphicThing@@UAEXXZ PROC	; CGraphicThing::DestroyDeviceObjects, COMDAT
; _this$ = ecx

; 75   : {

  00000	53		 push	 ebx
  00001	8b d9		 mov	 ebx, ecx

; 76   : 	if (!m_pgrnFileInfo)

  00003	8b 43 30	 mov	 eax, DWORD PTR [ebx+48]
  00006	85 c0		 test	 eax, eax
  00008	74 26		 je	 SHORT $LN3@DestroyDev

; 77   : 		return;
; 78   : 
; 79   : 	for (int m = 0; m < m_pgrnFileInfo->ModelCount; ++m)

  0000a	56		 push	 esi
  0000b	33 f6		 xor	 esi, esi
  0000d	39 70 3c	 cmp	 DWORD PTR [eax+60], esi
  00010	7e 1d		 jle	 SHORT $LN11@DestroyDev
  00012	57		 push	 edi
  00013	33 ff		 xor	 edi, edi
$LL4@DestroyDev:

; 80   : 	{
; 81   : 		CGrannyModel & rModel = m_models[m];

  00015	8b 4b 38	 mov	 ecx, DWORD PTR [ebx+56]
  00018	03 cf		 add	 ecx, edi

; 82   : 		rModel.DestroyDeviceObjects();

  0001a	e8 00 00 00 00	 call	 ?DestroyDeviceObjects@CGrannyModel@@QAEXXZ ; CGrannyModel::DestroyDeviceObjects
  0001f	8b 43 30	 mov	 eax, DWORD PTR [ebx+48]
  00022	46		 inc	 esi
  00023	81 c7 90 00 00
	00		 add	 edi, 144		; 00000090H
  00029	3b 70 3c	 cmp	 esi, DWORD PTR [eax+60]
  0002c	7c e7		 jl	 SHORT $LL4@DestroyDev
  0002e	5f		 pop	 edi
$LN11@DestroyDev:
  0002f	5e		 pop	 esi
$LN3@DestroyDev:
  00030	5b		 pop	 ebx

; 83   : 	}
; 84   : }

  00031	c3		 ret	 0
?DestroyDeviceObjects@CGraphicThing@@UAEXXZ ENDP	; CGraphicThing::DestroyDeviceObjects
_TEXT	ENDS
; Function compile flags: /Ogtp
; File C:\DS Project\DS Files\Source\ClientSource\Client\eterGrnLib\Thing.cpp
;	COMDAT ?CreateDeviceObjects@CGraphicThing@@UAE_NXZ
_TEXT	SEGMENT
?CreateDeviceObjects@CGraphicThing@@UAE_NXZ PROC	; CGraphicThing::CreateDeviceObjects, COMDAT
; _this$ = ecx

; 61   : {

  00000	53		 push	 ebx
  00001	8b d9		 mov	 ebx, ecx

; 62   : 	if (!m_pgrnFileInfo)

  00003	8b 43 30	 mov	 eax, DWORD PTR [ebx+48]
  00006	85 c0		 test	 eax, eax
  00008	74 2f		 je	 SHORT $LN12@CreateDevi

; 63   : 		return true;
; 64   : 
; 65   : 	for (int m = 0; m < m_pgrnFileInfo->ModelCount; ++m)

  0000a	56		 push	 esi
  0000b	33 f6		 xor	 esi, esi
  0000d	39 70 3c	 cmp	 DWORD PTR [eax+60], esi
  00010	7e 22		 jle	 SHORT $LN11@CreateDevi
  00012	57		 push	 edi
  00013	33 ff		 xor	 edi, edi
$LL4@CreateDevi:

; 66   : 	{
; 67   : 		CGrannyModel & rModel = m_models[m];

  00015	8b 4b 38	 mov	 ecx, DWORD PTR [ebx+56]
  00018	03 cf		 add	 ecx, edi

; 68   : 		rModel.CreateDeviceObjects();

  0001a	e8 00 00 00 00	 call	 ?CreateDeviceObjects@CGrannyModel@@QAE_NXZ ; CGrannyModel::CreateDeviceObjects
  0001f	8b 43 30	 mov	 eax, DWORD PTR [ebx+48]
  00022	46		 inc	 esi
  00023	81 c7 90 00 00
	00		 add	 edi, 144		; 00000090H
  00029	3b 70 3c	 cmp	 esi, DWORD PTR [eax+60]
  0002c	7c e7		 jl	 SHORT $LL4@CreateDevi

; 69   : 	}
; 70   : 
; 71   : 	return true;

  0002e	5f		 pop	 edi
  0002f	5e		 pop	 esi
  00030	b0 01		 mov	 al, 1
  00032	5b		 pop	 ebx

; 72   : }

  00033	c3		 ret	 0
$LN11@CreateDevi:
  00034	5e		 pop	 esi

; 69   : 	}
; 70   : 
; 71   : 	return true;

  00035	b0 01		 mov	 al, 1
  00037	5b		 pop	 ebx

; 72   : }

  00038	c3		 ret	 0
$LN12@CreateDevi:

; 69   : 	}
; 70   : 
; 71   : 	return true;

  00039	b0 01		 mov	 al, 1
  0003b	5b		 pop	 ebx

; 72   : }

  0003c	c3		 ret	 0
?CreateDeviceObjects@CGraphicThing@@UAE_NXZ ENDP	; CGraphicThing::CreateDeviceObjects
_TEXT	ENDS
; Function compile flags: /Ogtp
; File C:\DS Project\DS Files\Source\ClientSource\Client\eterGrnLib\Thing.cpp
;	COMDAT ??1CGraphicThing@@UAE@XZ
_TEXT	SEGMENT
__$EHRec$ = -12						; size = 12
??1CGraphicThing@@UAE@XZ PROC				; CGraphicThing::~CGraphicThing, COMDAT
; _this$ = ecx

; 12   : {

  00000	55		 push	 ebp
  00001	8b ec		 mov	 ebp, esp
  00003	6a ff		 push	 -1
  00005	68 00 00 00 00	 push	 __ehhandler$??1CGraphicThing@@UAE@XZ
  0000a	64 a1 00 00 00
	00		 mov	 eax, DWORD PTR fs:0
  00010	50		 push	 eax
  00011	56		 push	 esi
  00012	a1 00 00 00 00	 mov	 eax, DWORD PTR ___security_cookie
  00017	33 c5		 xor	 eax, ebp
  00019	50		 push	 eax
  0001a	8d 45 f4	 lea	 eax, DWORD PTR __$EHRec$[ebp]
  0001d	64 a3 00 00 00
	00		 mov	 DWORD PTR fs:0, eax
  00023	8b f1		 mov	 esi, ecx
  00025	c7 06 00 00 00
	00		 mov	 DWORD PTR [esi], OFFSET ??_7CGraphicThing@@6B@

; 13   : 	//OnClear();
; 14   : 	Clear();

  0002b	e8 00 00 00 00	 call	 ?Clear@CResource@@QAEXXZ ; CResource::Clear

; 15   : }

  00030	8b ce		 mov	 ecx, esi
  00032	e8 00 00 00 00	 call	 ??1CResource@@UAE@XZ	; CResource::~CResource
  00037	8b 4d f4	 mov	 ecx, DWORD PTR __$EHRec$[ebp]
  0003a	64 89 0d 00 00
	00 00		 mov	 DWORD PTR fs:0, ecx
  00041	59		 pop	 ecx
  00042	5e		 pop	 esi
  00043	8b e5		 mov	 esp, ebp
  00045	5d		 pop	 ebp
  00046	c3		 ret	 0
  00047	cc		 int	 3
  00048	cc		 int	 3
  00049	cc		 int	 3
  0004a	cc		 int	 3
  0004b	cc		 int	 3
_TEXT	ENDS
;	COMDAT text$x
text$x	SEGMENT
__ehhandler$??1CGraphicThing@@UAE@XZ:
  00000	90		 npad	 1
  00001	90		 npad	 1
  00002	8b 54 24 08	 mov	 edx, DWORD PTR [esp+8]
  00006	8d 42 0c	 lea	 eax, DWORD PTR [edx+12]
  00009	8b 4a f8	 mov	 ecx, DWORD PTR [edx-8]
  0000c	33 c8		 xor	 ecx, eax
  0000e	e8 00 00 00 00	 call	 @__security_check_cookie@4
  00013	b8 00 00 00 00	 mov	 eax, OFFSET __ehfuncinfo$??1CGraphicThing@@UAE@XZ
  00018	e9 00 00 00 00	 jmp	 ___CxxFrameHandler3
text$x	ENDS
??1CGraphicThing@@UAE@XZ ENDP				; CGraphicThing::~CGraphicThing
; Function compile flags: /Ogtp
; File C:\DS Project\DS Files\Source\ClientSource\Client\eterGrnLib\Thing.cpp
;	COMDAT ??0CGraphicThing@@QAE@PBD@Z
_TEXT	SEGMENT
_this$ = -4						; size = 4
_c_szFileName$ = 8					; size = 4
??0CGraphicThing@@QAE@PBD@Z PROC			; CGraphicThing::CGraphicThing, COMDAT
; _this$ = ecx

; 7    : {

  00000	55		 push	 ebp
  00001	8b ec		 mov	 ebp, esp
  00003	51		 push	 ecx
  00004	56		 push	 esi
  00005	ff 75 08	 push	 DWORD PTR _c_szFileName$[ebp]
  00008	8b f1		 mov	 esi, ecx
  0000a	89 75 fc	 mov	 DWORD PTR _this$[ebp], esi
  0000d	e8 00 00 00 00	 call	 ??0CResource@@QAE@PBD@Z	; CResource::CResource

; 8    : 	Initialize();

  00012	8b ce		 mov	 ecx, esi
  00014	c7 06 00 00 00
	00		 mov	 DWORD PTR [esi], OFFSET ??_7CGraphicThing@@6B@
  0001a	e8 00 00 00 00	 call	 ?Initialize@CGraphicThing@@IAEXXZ ; CGraphicThing::Initialize

; 9    : }

  0001f	8b c6		 mov	 eax, esi
  00021	5e		 pop	 esi
  00022	8b e5		 mov	 esp, ebp
  00024	5d		 pop	 ebp
  00025	c2 04 00	 ret	 4
??0CGraphicThing@@QAE@PBD@Z ENDP			; CGraphicThing::CGraphicThing
_TEXT	ENDS
; Function compile flags: /Ogtp
; File C:\DS Project\DS Files\Source\ClientSource\Client\eterGrnLib\Thing.cpp
;	COMDAT ?Type@CGraphicThing@@SAKXZ
_TEXT	SEGMENT
__$EHRec$ = -12						; size = 12
?Type@CGraphicThing@@SAKXZ PROC				; CGraphicThing::Type, COMDAT

; 42   : {

  00000	55		 push	 ebp
  00001	8b ec		 mov	 ebp, esp
  00003	6a ff		 push	 -1
  00005	68 00 00 00 00	 push	 __ehhandler$?Type@CGraphicThing@@SAKXZ
  0000a	64 a1 00 00 00
	00		 mov	 eax, DWORD PTR fs:0
  00010	50		 push	 eax
  00011	a1 00 00 00 00	 mov	 eax, DWORD PTR ___security_cookie
  00016	33 c5		 xor	 eax, ebp
  00018	50		 push	 eax
  00019	8d 45 f4	 lea	 eax, DWORD PTR __$EHRec$[ebp]
  0001c	64 a3 00 00 00
	00		 mov	 DWORD PTR fs:0, eax

; 43   : 	static TType s_type = StringToType("CGraphicThing");

  00022	64 a1 00 00 00
	00		 mov	 eax, DWORD PTR fs:__tls_array
  00028	8b 0d 00 00 00
	00		 mov	 ecx, DWORD PTR __tls_index
  0002e	8b 0c 88	 mov	 ecx, DWORD PTR [eax+ecx*4]
  00031	a1 00 00 00 00	 mov	 eax, DWORD PTR ?$TSS0@?1??Type@CGraphicThing@@SAKXZ@4HA
  00036	3b 81 00 00 00
	00		 cmp	 eax, DWORD PTR __Init_thread_epoch[ecx]
  0003c	7f 14		 jg	 SHORT $LN9@Type
$LN5@Type:

; 44   : 	return s_type;
; 45   : }

  0003e	a1 00 00 00 00	 mov	 eax, DWORD PTR ?s_type@?1??Type@CGraphicThing@@SAKXZ@4KA
  00043	8b 4d f4	 mov	 ecx, DWORD PTR __$EHRec$[ebp]
  00046	64 89 0d 00 00
	00 00		 mov	 DWORD PTR fs:0, ecx
  0004d	59		 pop	 ecx
  0004e	8b e5		 mov	 esp, ebp
  00050	5d		 pop	 ebp
  00051	c3		 ret	 0
$LN9@Type:

; 43   : 	static TType s_type = StringToType("CGraphicThing");

  00052	68 00 00 00 00	 push	 OFFSET ?$TSS0@?1??Type@CGraphicThing@@SAKXZ@4HA
  00057	e8 00 00 00 00	 call	 __Init_thread_header
  0005c	83 c4 04	 add	 esp, 4
  0005f	83 3d 00 00 00
	00 ff		 cmp	 DWORD PTR ?$TSS0@?1??Type@CGraphicThing@@SAKXZ@4HA, -1
  00066	75 d6		 jne	 SHORT $LN5@Type
  00068	68 00 00 00 00	 push	 OFFSET ??_C@_0O@POMHALBA@CGraphicThing@
  0006d	c7 45 fc 00 00
	00 00		 mov	 DWORD PTR __$EHRec$[ebp+8], 0
  00074	e8 00 00 00 00	 call	 ?StringToType@CResource@@SAKPBD@Z ; CResource::StringToType
  00079	68 00 00 00 00	 push	 OFFSET ?$TSS0@?1??Type@CGraphicThing@@SAKXZ@4HA
  0007e	a3 00 00 00 00	 mov	 DWORD PTR ?s_type@?1??Type@CGraphicThing@@SAKXZ@4KA, eax
  00083	e8 00 00 00 00	 call	 __Init_thread_footer
  00088	83 c4 08	 add	 esp, 8
  0008b	eb b1		 jmp	 SHORT $LN5@Type
_TEXT	ENDS
;	COMDAT text$x
text$x	SEGMENT
__unwindfunclet$?Type@CGraphicThing@@SAKXZ$0:
  00000	68 00 00 00 00	 push	 OFFSET ?$TSS0@?1??Type@CGraphicThing@@SAKXZ@4HA
  00005	e8 00 00 00 00	 call	 __Init_thread_abort
  0000a	59		 pop	 ecx
  0000b	c3		 ret	 0
  0000c	cc		 int	 3
  0000d	cc		 int	 3
  0000e	cc		 int	 3
  0000f	cc		 int	 3
  00010	cc		 int	 3
__ehhandler$?Type@CGraphicThing@@SAKXZ:
  00011	90		 npad	 1
  00012	90		 npad	 1
  00013	8b 54 24 08	 mov	 edx, DWORD PTR [esp+8]
  00017	8d 42 0c	 lea	 eax, DWORD PTR [edx+12]
  0001a	8b 4a fc	 mov	 ecx, DWORD PTR [edx-4]
  0001d	33 c8		 xor	 ecx, eax
  0001f	e8 00 00 00 00	 call	 @__security_check_cookie@4
  00024	b8 00 00 00 00	 mov	 eax, OFFSET __ehfuncinfo$?Type@CGraphicThing@@SAKXZ
  00029	e9 00 00 00 00	 jmp	 ___CxxFrameHandler3
text$x	ENDS
?Type@CGraphicThing@@SAKXZ ENDP				; CGraphicThing::Type
; Function compile flags: /Ogtp
;	COMDAT ??_ECGrannyMotion@@UAEPAXI@Z
_TEXT	SEGMENT
__$EHRec$ = -12						; size = 12
___flags$ = 8						; size = 4
??_ECGrannyMotion@@UAEPAXI@Z PROC			; CGrannyMotion::`vector deleting destructor', COMDAT
; _this$ = ecx
  00000	55		 push	 ebp
  00001	8b ec		 mov	 ebp, esp
  00003	6a ff		 push	 -1
  00005	68 00 00 00 00	 push	 __ehhandler$??_ECGrannyMotion@@UAEPAXI@Z
  0000a	64 a1 00 00 00
	00		 mov	 eax, DWORD PTR fs:0
  00010	50		 push	 eax
  00011	53		 push	 ebx
  00012	56		 push	 esi
  00013	57		 push	 edi
  00014	a1 00 00 00 00	 mov	 eax, DWORD PTR ___security_cookie
  00019	33 c5		 xor	 eax, ebp
  0001b	50		 push	 eax
  0001c	8d 45 f4	 lea	 eax, DWORD PTR __$EHRec$[ebp]
  0001f	64 a3 00 00 00
	00		 mov	 DWORD PTR fs:0, eax
  00025	8b f1		 mov	 esi, ecx
  00027	8b 45 08	 mov	 eax, DWORD PTR ___flags$[ebp]
  0002a	8b d8		 mov	 ebx, eax
  0002c	83 e3 01	 and	 ebx, 1
  0002f	a8 02		 test	 al, 2
  00031	74 40		 je	 SHORT $LN2@vector
  00033	68 00 00 00 00	 push	 OFFSET ??1CGrannyMotion@@UAE@XZ ; CGrannyMotion::~CGrannyMotion
  00038	ff 76 fc	 push	 DWORD PTR [esi-4]
  0003b	8d 7e fc	 lea	 edi, DWORD PTR [esi-4]
  0003e	6a 08		 push	 8
  00040	56		 push	 esi
  00041	e8 00 00 00 00	 call	 ??_M@YGXPAXIIP6EX0@Z@Z
  00046	85 db		 test	 ebx, ebx
  00048	74 13		 je	 SHORT $LN3@vector
  0004a	8b 0f		 mov	 ecx, DWORD PTR [edi]
  0004c	8d 0c cd 04 00
	00 00		 lea	 ecx, DWORD PTR [ecx*8+4]
  00053	51		 push	 ecx
  00054	57		 push	 edi
  00055	e8 00 00 00 00	 call	 ??_V@YAXPAXI@Z		; operator delete[]
  0005a	83 c4 08	 add	 esp, 8
$LN3@vector:
  0005d	8b c7		 mov	 eax, edi
  0005f	8b 4d f4	 mov	 ecx, DWORD PTR __$EHRec$[ebp]
  00062	64 89 0d 00 00
	00 00		 mov	 DWORD PTR fs:0, ecx
  00069	59		 pop	 ecx
  0006a	5f		 pop	 edi
  0006b	5e		 pop	 esi
  0006c	5b		 pop	 ebx
  0006d	8b e5		 mov	 esp, ebp
  0006f	5d		 pop	 ebp
  00070	c2 04 00	 ret	 4
$LN2@vector:
  00073	e8 00 00 00 00	 call	 ??1CGrannyMotion@@UAE@XZ ; CGrannyMotion::~CGrannyMotion
  00078	85 db		 test	 ebx, ebx
  0007a	74 0b		 je	 SHORT $LN4@vector
  0007c	6a 08		 push	 8
  0007e	56		 push	 esi
  0007f	e8 00 00 00 00	 call	 ??3@YAXPAXI@Z		; operator delete
  00084	83 c4 08	 add	 esp, 8
$LN4@vector:
  00087	8b c6		 mov	 eax, esi
  00089	8b 4d f4	 mov	 ecx, DWORD PTR __$EHRec$[ebp]
  0008c	64 89 0d 00 00
	00 00		 mov	 DWORD PTR fs:0, ecx
  00093	59		 pop	 ecx
  00094	5f		 pop	 edi
  00095	5e		 pop	 esi
  00096	5b		 pop	 ebx
  00097	8b e5		 mov	 esp, ebp
  00099	5d		 pop	 ebp
  0009a	c2 04 00	 ret	 4
  0009d	cc		 int	 3
  0009e	cc		 int	 3
  0009f	cc		 int	 3
  000a0	cc		 int	 3
  000a1	cc		 int	 3
_TEXT	ENDS
;	COMDAT text$x
text$x	SEGMENT
__ehhandler$??_ECGrannyMotion@@UAEPAXI@Z:
  00000	90		 npad	 1
  00001	90		 npad	 1
  00002	8b 54 24 08	 mov	 edx, DWORD PTR [esp+8]
  00006	8d 42 0c	 lea	 eax, DWORD PTR [edx+12]
  00009	8b 4a f0	 mov	 ecx, DWORD PTR [edx-16]
  0000c	33 c8		 xor	 ecx, eax
  0000e	e8 00 00 00 00	 call	 @__security_check_cookie@4
  00013	b8 00 00 00 00	 mov	 eax, OFFSET __ehfuncinfo$??_ECGrannyMotion@@UAEPAXI@Z
  00018	e9 00 00 00 00	 jmp	 ___CxxFrameHandler3
text$x	ENDS
??_ECGrannyMotion@@UAEPAXI@Z ENDP			; CGrannyMotion::`vector deleting destructor'
; Function compile flags: /Ogtp
;	COMDAT ??_ECGrannyModel@@UAEPAXI@Z
_TEXT	SEGMENT
__$EHRec$ = -12						; size = 12
___flags$ = 8						; size = 4
??_ECGrannyModel@@UAEPAXI@Z PROC			; CGrannyModel::`vector deleting destructor', COMDAT
; _this$ = ecx
  00000	55		 push	 ebp
  00001	8b ec		 mov	 ebp, esp
  00003	6a ff		 push	 -1
  00005	68 00 00 00 00	 push	 __ehhandler$??_ECGrannyModel@@UAEPAXI@Z
  0000a	64 a1 00 00 00
	00		 mov	 eax, DWORD PTR fs:0
  00010	50		 push	 eax
  00011	53		 push	 ebx
  00012	56		 push	 esi
  00013	57		 push	 edi
  00014	a1 00 00 00 00	 mov	 eax, DWORD PTR ___security_cookie
  00019	33 c5		 xor	 eax, ebp
  0001b	50		 push	 eax
  0001c	8d 45 f4	 lea	 eax, DWORD PTR __$EHRec$[ebp]
  0001f	64 a3 00 00 00
	00		 mov	 DWORD PTR fs:0, eax
  00025	8b f1		 mov	 esi, ecx
  00027	8b 45 08	 mov	 eax, DWORD PTR ___flags$[ebp]
  0002a	8b d8		 mov	 ebx, eax
  0002c	83 e3 01	 and	 ebx, 1
  0002f	a8 02		 test	 al, 2
  00031	74 45		 je	 SHORT $LN2@vector
  00033	68 00 00 00 00	 push	 OFFSET ??1CGrannyModel@@UAE@XZ ; CGrannyModel::~CGrannyModel
  00038	ff 76 fc	 push	 DWORD PTR [esi-4]
  0003b	8d 7e fc	 lea	 edi, DWORD PTR [esi-4]
  0003e	68 90 00 00 00	 push	 144			; 00000090H
  00043	56		 push	 esi
  00044	e8 00 00 00 00	 call	 ??_M@YGXPAXIIP6EX0@Z@Z
  00049	85 db		 test	 ebx, ebx
  0004b	74 15		 je	 SHORT $LN3@vector
  0004d	8b 0f		 mov	 ecx, DWORD PTR [edi]
  0004f	8d 0c c9	 lea	 ecx, DWORD PTR [ecx+ecx*8]
  00052	c1 e1 04	 shl	 ecx, 4
  00055	83 c1 04	 add	 ecx, 4
  00058	51		 push	 ecx
  00059	57		 push	 edi
  0005a	e8 00 00 00 00	 call	 ??_V@YAXPAXI@Z		; operator delete[]
  0005f	83 c4 08	 add	 esp, 8
$LN3@vector:
  00062	8b c7		 mov	 eax, edi
  00064	8b 4d f4	 mov	 ecx, DWORD PTR __$EHRec$[ebp]
  00067	64 89 0d 00 00
	00 00		 mov	 DWORD PTR fs:0, ecx
  0006e	59		 pop	 ecx
  0006f	5f		 pop	 edi
  00070	5e		 pop	 esi
  00071	5b		 pop	 ebx
  00072	8b e5		 mov	 esp, ebp
  00074	5d		 pop	 ebp
  00075	c2 04 00	 ret	 4
$LN2@vector:
  00078	e8 00 00 00 00	 call	 ??1CGrannyModel@@UAE@XZ	; CGrannyModel::~CGrannyModel
  0007d	85 db		 test	 ebx, ebx
  0007f	74 0e		 je	 SHORT $LN4@vector
  00081	68 90 00 00 00	 push	 144			; 00000090H
  00086	56		 push	 esi
  00087	e8 00 00 00 00	 call	 ??3@YAXPAXI@Z		; operator delete
  0008c	83 c4 08	 add	 esp, 8
$LN4@vector:
  0008f	8b c6		 mov	 eax, esi
  00091	8b 4d f4	 mov	 ecx, DWORD PTR __$EHRec$[ebp]
  00094	64 89 0d 00 00
	00 00		 mov	 DWORD PTR fs:0, ecx
  0009b	59		 pop	 ecx
  0009c	5f		 pop	 edi
  0009d	5e		 pop	 esi
  0009e	5b		 pop	 ebx
  0009f	8b e5		 mov	 esp, ebp
  000a1	5d		 pop	 ebp
  000a2	c2 04 00	 ret	 4
  000a5	cc		 int	 3
  000a6	cc		 int	 3
  000a7	cc		 int	 3
  000a8	cc		 int	 3
  000a9	cc		 int	 3
_TEXT	ENDS
;	COMDAT text$x
text$x	SEGMENT
__ehhandler$??_ECGrannyModel@@UAEPAXI@Z:
  00000	90		 npad	 1
  00001	90		 npad	 1
  00002	8b 54 24 08	 mov	 edx, DWORD PTR [esp+8]
  00006	8d 42 0c	 lea	 eax, DWORD PTR [edx+12]
  00009	8b 4a f0	 mov	 ecx, DWORD PTR [edx-16]
  0000c	33 c8		 xor	 ecx, eax
  0000e	e8 00 00 00 00	 call	 @__security_check_cookie@4
  00013	b8 00 00 00 00	 mov	 eax, OFFSET __ehfuncinfo$??_ECGrannyModel@@UAEPAXI@Z
  00018	e9 00 00 00 00	 jmp	 ___CxxFrameHandler3
text$x	ENDS
??_ECGrannyModel@@UAEPAXI@Z ENDP			; CGrannyModel::`vector deleting destructor'
; Function compile flags: /Ogtp
; File C:\Program Files (x86)\Microsoft Visual Studio\2019\Community\VC\Tools\MSVC\14.27.29110\include\xstring
; File C:\Program Files (x86)\Microsoft Visual Studio\2019\Community\VC\Tools\MSVC\14.27.29110\include\utility
; File C:\Program Files (x86)\Microsoft Visual Studio\2019\Community\VC\Tools\MSVC\14.27.29110\include\xstring
; File C:\Program Files (x86)\Microsoft Visual Studio\2019\Community\VC\Tools\MSVC\14.27.29110\include\xmemory
; File C:\Program Files (x86)\Microsoft Visual Studio\2019\Community\VC\Tools\MSVC\14.27.29110\include\xstring
; File C:\Program Files (x86)\Microsoft Visual Studio\2019\Community\VC\Tools\MSVC\14.27.29110\include\xmemory
; File C:\Program Files (x86)\Microsoft Visual Studio\2019\Community\VC\Tools\MSVC\14.27.29110\include\xstring
;	COMDAT ?assign@?$basic_string@DU?$char_traits@D@std@@V?$allocator@D@2@@std@@QAEAAV12@QBDI@Z
_TEXT	SEGMENT
__Old$1$ = -4						; size = 4
__Ptr$ = 8						; size = 4
__New_ptr$1 = 12					; size = 4
__Count$ = 12						; size = 4
?assign@?$basic_string@DU?$char_traits@D@std@@V?$allocator@D@2@@std@@QAEAAV12@QBDI@Z PROC ; std::basic_string<char,std::char_traits<char>,std::allocator<char> >::assign, COMDAT
; _this$ = ecx

; 2964 :     basic_string& assign(_In_reads_(_Count) const _Elem* const _Ptr, _CRT_GUARDOVERFLOW const size_type _Count) {

  00000	55		 push	 ebp
  00001	8b ec		 mov	 ebp, esp
  00003	51		 push	 ecx
  00004	53		 push	 ebx
  00005	56		 push	 esi
  00006	8b f1		 mov	 esi, ecx
  00008	57		 push	 edi

; 2965 :         // assign [_Ptr, _Ptr + _Count)
; 2966 :         if (_Count <= _Mypair._Myval2._Myres) {

  00009	8b 7d 0c	 mov	 edi, DWORD PTR __Count$[ebp]
  0000c	8b 4e 14	 mov	 ecx, DWORD PTR [esi+20]
  0000f	89 4d fc	 mov	 DWORD PTR __Old$1$[ebp], ecx
  00012	3b f9		 cmp	 edi, ecx
  00014	77 28		 ja	 SHORT $LN2@assign

; 2135 :         value_type* _Result = _Bx._Buf;

  00016	8b de		 mov	 ebx, esi

; 2153 :         return _BUF_SIZE <= _Myres;

  00018	83 f9 10	 cmp	 ecx, 16			; 00000010H

; 2136 :         if (_Large_string_engaged()) {

  0001b	72 02		 jb	 SHORT $LN5@assign

; 2137 :             _Result = _Unfancy(_Bx._Ptr);

  0001d	8b 1e		 mov	 ebx, DWORD PTR [esi]
$LN5@assign:

; 363  :         return static_cast<_Elem*>(_CSTD memmove(_First1, _First2, _Count));

  0001f	57		 push	 edi
  00020	ff 75 08	 push	 DWORD PTR __Ptr$[ebp]

; 2967 :             _Elem* const _Old_ptr   = _Mypair._Myval2._Myptr();
; 2968 :             _Mypair._Myval2._Mysize = _Count;

  00023	89 7e 10	 mov	 DWORD PTR [esi+16], edi

; 363  :         return static_cast<_Elem*>(_CSTD memmove(_First1, _First2, _Count));

  00026	53		 push	 ebx
  00027	e8 00 00 00 00	 call	 _memmove
  0002c	83 c4 0c	 add	 esp, 12			; 0000000cH

; 2969 :             _Traits::move(_Old_ptr, _Ptr, _Count);
; 2970 :             _Traits::assign(_Old_ptr[_Count], _Elem());

  0002f	c6 04 3b 00	 mov	 BYTE PTR [ebx+edi], 0

; 2981 :     }

  00033	8b c6		 mov	 eax, esi
  00035	5f		 pop	 edi
  00036	5e		 pop	 esi
  00037	5b		 pop	 ebx
  00038	8b e5		 mov	 esp, ebp
  0003a	5d		 pop	 ebp
  0003b	c2 08 00	 ret	 8
$LN2@assign:

; 4221 :         if (_New_size > max_size()) {

  0003e	81 ff ff ff ff
	7f		 cmp	 edi, 2147483647		; 7fffffffH
  00044	0f 87 91 00 00
	00		 ja	 $LN36@assign

; 4201 :         const size_type _Masked = _Requested | _ALLOC_MASK;

  0004a	8b df		 mov	 ebx, edi
  0004c	83 cb 0f	 or	 ebx, 15			; 0000000fH
  0004f	81 fb ff ff ff
	7f		 cmp	 ebx, 2147483647		; 7fffffffH

; 4202 :         if (_Masked > _Max) { // the mask overflows, settle for max_size()

  00055	76 07		 jbe	 SHORT $LN19@assign

; 4203 :             return _Max;

  00057	bb ff ff ff 7f	 mov	 ebx, 2147483647		; 7fffffffH
  0005c	eb 1e		 jmp	 SHORT $LN18@assign
$LN19@assign:

; 4204 :         }
; 4205 : 
; 4206 :         if (_Old > _Max - _Old / 2) { // similarly, geometric overflows

  0005e	8b d1		 mov	 edx, ecx
  00060	b8 ff ff ff 7f	 mov	 eax, 2147483647		; 7fffffffH
  00065	d1 ea		 shr	 edx, 1
  00067	2b c2		 sub	 eax, edx
  00069	3b c8		 cmp	 ecx, eax
  0006b	76 07		 jbe	 SHORT $LN20@assign

; 4207 :             return _Max;

  0006d	bb ff ff ff 7f	 mov	 ebx, 2147483647		; 7fffffffH
  00072	eb 08		 jmp	 SHORT $LN18@assign
$LN20@assign:

; 4208 :         }
; 4209 : 
; 4210 :         return (_STD max)(_Masked, _Old + _Old / 2);

  00074	8d 04 0a	 lea	 eax, DWORD PTR [edx+ecx]
; File C:\Program Files (x86)\Microsoft Visual Studio\2019\Community\VC\Tools\MSVC\14.27.29110\include\utility

; 44   :     return _Left < _Right ? _Right : _Left;

  00077	3b d8		 cmp	 ebx, eax
  00079	0f 42 d8	 cmovb	 ebx, eax
$LN18@assign:
; File C:\Program Files (x86)\Microsoft Visual Studio\2019\Community\VC\Tools\MSVC\14.27.29110\include\xstring

; 4228 :         const pointer _New_ptr        = _Al.allocate(_New_capacity + 1); // throws

  0007c	8d 43 01	 lea	 eax, DWORD PTR [ebx+1]
; File C:\Program Files (x86)\Microsoft Visual Studio\2019\Community\VC\Tools\MSVC\14.27.29110\include\xmemory

; 807  :         return static_cast<_Ty*>(_Allocate<_New_alignof<_Ty>>(_Get_size_of_n<sizeof(_Ty)>(_Count)));

  0007f	50		 push	 eax
  00080	e8 00 00 00 00	 call	 ??$_Allocate@$07U_Default_allocate_traits@std@@$0A@@std@@YAPAXI@Z ; std::_Allocate<8,std::_Default_allocate_traits,0>
; File C:\Program Files (x86)\Microsoft Visual Studio\2019\Community\VC\Tools\MSVC\14.27.29110\include\xstring

; 328  :         return static_cast<_Elem*>(_CSTD memcpy(_First1, _First2, _Count));

  00085	57		 push	 edi
  00086	ff 75 08	 push	 DWORD PTR __Ptr$[ebp]

; 4228 :         const pointer _New_ptr        = _Al.allocate(_New_capacity + 1); // throws

  00089	89 45 0c	 mov	 DWORD PTR __New_ptr$1[ebp], eax

; 328  :         return static_cast<_Elem*>(_CSTD memcpy(_First1, _First2, _Count));

  0008c	50		 push	 eax

; 4230 :         _Mypair._Myval2._Mysize = _New_size;

  0008d	89 7e 10	 mov	 DWORD PTR [esi+16], edi

; 4231 :         _Mypair._Myval2._Myres  = _New_capacity;

  00090	89 5e 14	 mov	 DWORD PTR [esi+20], ebx

; 328  :         return static_cast<_Elem*>(_CSTD memcpy(_First1, _First2, _Count));

  00093	e8 00 00 00 00	 call	 _memcpy

; 2978 :                 _Traits::assign(_New_ptr[_Count], _Elem());

  00098	8b 5d 0c	 mov	 ebx, DWORD PTR __New_ptr$1[ebp]

; 328  :         return static_cast<_Elem*>(_CSTD memcpy(_First1, _First2, _Count));

  0009b	83 c4 10	 add	 esp, 16			; 00000010H

; 4233 :         if (_BUF_SIZE <= _Old_capacity) {

  0009e	8b 45 fc	 mov	 eax, DWORD PTR __Old$1$[ebp]

; 2978 :                 _Traits::assign(_New_ptr[_Count], _Elem());

  000a1	c6 04 3b 00	 mov	 BYTE PTR [ebx+edi], 0

; 4233 :         if (_BUF_SIZE <= _Old_capacity) {

  000a5	83 f8 10	 cmp	 eax, 16			; 00000010H
  000a8	72 19		 jb	 SHORT $LN13@assign

; 4234 :             _Al.deallocate(_Mypair._Myval2._Bx._Ptr, _Old_capacity + 1);

  000aa	40		 inc	 eax
; File C:\Program Files (x86)\Microsoft Visual Studio\2019\Community\VC\Tools\MSVC\14.27.29110\include\xmemory

; 803  :         _Deallocate<_New_alignof<_Ty>>(_Ptr, sizeof(_Ty) * _Count);

  000ab	50		 push	 eax
  000ac	ff 36		 push	 DWORD PTR [esi]
  000ae	e8 00 00 00 00	 call	 ??$_Deallocate@$07$0A@@std@@YAXPAXI@Z ; std::_Deallocate<8,0>
; File C:\Program Files (x86)\Microsoft Visual Studio\2019\Community\VC\Tools\MSVC\14.27.29110\include\xstring

; 2981 :     }

  000b3	83 c4 08	 add	 esp, 8

; 4235 :             _Mypair._Myval2._Bx._Ptr = _New_ptr;

  000b6	89 1e		 mov	 DWORD PTR [esi], ebx

; 2981 :     }

  000b8	8b c6		 mov	 eax, esi
  000ba	5f		 pop	 edi
  000bb	5e		 pop	 esi
  000bc	5b		 pop	 ebx
  000bd	8b e5		 mov	 esp, ebp
  000bf	5d		 pop	 ebp
  000c0	c2 08 00	 ret	 8
$LN13@assign:

; 4237 :             _Construct_in_place(_Mypair._Myval2._Bx._Ptr, _New_ptr);

  000c3	8d 45 0c	 lea	 eax, DWORD PTR __New_ptr$1[ebp]
  000c6	50		 push	 eax
  000c7	56		 push	 esi
  000c8	e8 00 00 00 00	 call	 ??$_Construct_in_place@PADABQAD@std@@YAXAAPADABQAD@Z ; std::_Construct_in_place<char *,char * const &>

; 2981 :     }

  000cd	83 c4 08	 add	 esp, 8
  000d0	8b c6		 mov	 eax, esi
  000d2	5f		 pop	 edi
  000d3	5e		 pop	 esi
  000d4	5b		 pop	 ebx
  000d5	8b e5		 mov	 esp, ebp
  000d7	5d		 pop	 ebp
  000d8	c2 08 00	 ret	 8
$LN36@assign:

; 4222 :             _Xlen_string(); // result too long

  000db	e8 00 00 00 00	 call	 ?_Xlen_string@std@@YAXXZ ; std::_Xlen_string
$LN33@assign:
  000e0	cc		 int	 3
?assign@?$basic_string@DU?$char_traits@D@std@@V?$allocator@D@2@@std@@QAEAAV12@QBDI@Z ENDP ; std::basic_string<char,std::char_traits<char>,std::allocator<char> >::assign
_TEXT	ENDS
; Function compile flags: /Ogtp
; File C:\Program Files (x86)\Microsoft Visual Studio\2019\Community\VC\Tools\MSVC\14.27.29110\include\xstring
;	COMDAT ?_Xlen_string@std@@YAXXZ
_TEXT	SEGMENT
?_Xlen_string@std@@YAXXZ PROC				; std::_Xlen_string, COMDAT

; 2201 :     _Xlength_error("string too long");

  00000	68 00 00 00 00	 push	 OFFSET ??_C@_0BA@JFNIOLAK@string?5too?5long@
  00005	e8 00 00 00 00	 call	 ?_Xlength_error@std@@YAXPBD@Z ; std::_Xlength_error
$LN3@Xlen_strin:
  0000a	cc		 int	 3
?_Xlen_string@std@@YAXXZ ENDP				; std::_Xlen_string
_TEXT	ENDS
; Function compile flags: /Ogtp
; File C:\Program Files (x86)\Microsoft Visual Studio\2019\Community\VC\Tools\MSVC\14.27.29110\include\exception
;	COMDAT ?_Throw_bad_array_new_length@std@@YAXXZ
_TEXT	SEGMENT
$T1 = -12						; size = 12
?_Throw_bad_array_new_length@std@@YAXXZ PROC		; std::_Throw_bad_array_new_length, COMDAT

; 320  : [[noreturn]] inline void _Throw_bad_array_new_length() {

  00000	55		 push	 ebp
  00001	8b ec		 mov	 ebp, esp
  00003	83 ec 0c	 sub	 esp, 12			; 0000000cH

; 321  :     _THROW(bad_array_new_length{});

  00006	8d 4d f4	 lea	 ecx, DWORD PTR $T1[ebp]
  00009	e8 00 00 00 00	 call	 ??0bad_array_new_length@std@@QAE@XZ ; std::bad_array_new_length::bad_array_new_length
  0000e	68 00 00 00 00	 push	 OFFSET __TI3?AVbad_array_new_length@std@@
  00013	8d 45 f4	 lea	 eax, DWORD PTR $T1[ebp]
  00016	50		 push	 eax
  00017	e8 00 00 00 00	 call	 __CxxThrowException@8
$LN3@Throw_bad_:
  0001c	cc		 int	 3
?_Throw_bad_array_new_length@std@@YAXXZ ENDP		; std::_Throw_bad_array_new_length
_TEXT	ENDS
; Function compile flags: /Ogtp
; File C:\Program Files (x86)\Microsoft Visual Studio\2019\Community\VC\Tools\MSVC\14.27.29110\include\vcruntime_exception.h
;	COMDAT ??_Gbad_array_new_length@std@@UAEPAXI@Z
_TEXT	SEGMENT
___flags$ = 8						; size = 4
??_Gbad_array_new_length@std@@UAEPAXI@Z PROC		; std::bad_array_new_length::`scalar deleting destructor', COMDAT
; _this$ = ecx
  00000	55		 push	 ebp
  00001	8b ec		 mov	 ebp, esp

; 89   :     {

  00003	56		 push	 esi
  00004	8b f1		 mov	 esi, ecx

; 90   :         __std_exception_destroy(&_Data);

  00006	8d 46 04	 lea	 eax, DWORD PTR [esi+4]
  00009	c7 06 00 00 00
	00		 mov	 DWORD PTR [esi], OFFSET ??_7exception@std@@6B@
  0000f	50		 push	 eax
  00010	e8 00 00 00 00	 call	 ___std_exception_destroy
  00015	83 c4 04	 add	 esp, 4
  00018	f6 45 08 01	 test	 BYTE PTR ___flags$[ebp], 1
  0001c	74 0b		 je	 SHORT $LN12@scalar
  0001e	6a 0c		 push	 12			; 0000000cH
  00020	56		 push	 esi
  00021	e8 00 00 00 00	 call	 ??3@YAXPAXI@Z		; operator delete
  00026	83 c4 08	 add	 esp, 8
$LN12@scalar:
  00029	8b c6		 mov	 eax, esi
  0002b	5e		 pop	 esi
  0002c	5d		 pop	 ebp
  0002d	c2 04 00	 ret	 4
??_Gbad_array_new_length@std@@UAEPAXI@Z ENDP		; std::bad_array_new_length::`scalar deleting destructor'
_TEXT	ENDS
; Function compile flags: /Ogtp
; File C:\Program Files (x86)\Microsoft Visual Studio\2019\Community\VC\Tools\MSVC\14.27.29110\include\vcruntime_exception.h
;	COMDAT ??0bad_array_new_length@std@@QAE@ABV01@@Z
_TEXT	SEGMENT
___that$ = 8						; size = 4
??0bad_array_new_length@std@@QAE@ABV01@@Z PROC		; std::bad_array_new_length::bad_array_new_length, COMDAT
; _this$ = ecx
  00000	55		 push	 ebp
  00001	8b ec		 mov	 ebp, esp

; 72   :     {

  00003	56		 push	 esi
  00004	8b f1		 mov	 esi, ecx
  00006	0f 57 c0	 xorps	 xmm0, xmm0

; 71   :         : _Data()

  00009	8d 46 04	 lea	 eax, DWORD PTR [esi+4]

; 73   :         __std_exception_copy(&_Other._Data, &_Data);

  0000c	50		 push	 eax
  0000d	c7 06 00 00 00
	00		 mov	 DWORD PTR [esi], OFFSET ??_7exception@std@@6B@
  00013	66 0f d6 00	 movq	 QWORD PTR [eax], xmm0
  00017	8b 45 08	 mov	 eax, DWORD PTR ___that$[ebp]
  0001a	83 c0 04	 add	 eax, 4
  0001d	50		 push	 eax
  0001e	e8 00 00 00 00	 call	 ___std_exception_copy
  00023	83 c4 08	 add	 esp, 8
  00026	c7 06 00 00 00
	00		 mov	 DWORD PTR [esi], OFFSET ??_7bad_array_new_length@std@@6B@
  0002c	8b c6		 mov	 eax, esi
  0002e	5e		 pop	 esi
  0002f	5d		 pop	 ebp
  00030	c2 04 00	 ret	 4
??0bad_array_new_length@std@@QAE@ABV01@@Z ENDP		; std::bad_array_new_length::bad_array_new_length
_TEXT	ENDS
; Function compile flags: /Ogtp
; File C:\Program Files (x86)\Microsoft Visual Studio\2019\Community\VC\Tools\MSVC\14.27.29110\include\vcruntime_exception.h
;	COMDAT ??1bad_array_new_length@std@@UAE@XZ
_TEXT	SEGMENT
??1bad_array_new_length@std@@UAE@XZ PROC		; std::bad_array_new_length::~bad_array_new_length, COMDAT
; _this$ = ecx

; 90   :         __std_exception_destroy(&_Data);

  00000	8d 41 04	 lea	 eax, DWORD PTR [ecx+4]
  00003	c7 01 00 00 00
	00		 mov	 DWORD PTR [ecx], OFFSET ??_7exception@std@@6B@
  00009	50		 push	 eax
  0000a	e8 00 00 00 00	 call	 ___std_exception_destroy
  0000f	59		 pop	 ecx
  00010	c3		 ret	 0
??1bad_array_new_length@std@@UAE@XZ ENDP		; std::bad_array_new_length::~bad_array_new_length
_TEXT	ENDS
; Function compile flags: /Ogtp
; File C:\Program Files (x86)\Microsoft Visual Studio\2019\Community\VC\Tools\MSVC\14.27.29110\include\vcruntime_exception.h
;	COMDAT ??0bad_array_new_length@std@@QAE@XZ
_TEXT	SEGMENT
??0bad_array_new_length@std@@QAE@XZ PROC		; std::bad_array_new_length::bad_array_new_length, COMDAT
; _this$ = ecx

; 141  :     {

  00000	0f 57 c0	 xorps	 xmm0, xmm0

; 142  :     }

  00003	8b c1		 mov	 eax, ecx

; 65   :         : _Data()

  00005	66 0f d6 41 04	 movq	 QWORD PTR [ecx+4], xmm0

; 66   :     {
; 67   :         _Data._What = _Message;

  0000a	c7 41 04 00 00
	00 00		 mov	 DWORD PTR [ecx+4], OFFSET ??_C@_0BF@KINCDENJ@bad?5array?5new?5length@

; 141  :     {

  00011	c7 01 00 00 00
	00		 mov	 DWORD PTR [ecx], OFFSET ??_7bad_array_new_length@std@@6B@

; 142  :     }

  00017	c3		 ret	 0
??0bad_array_new_length@std@@QAE@XZ ENDP		; std::bad_array_new_length::bad_array_new_length
_TEXT	ENDS
; Function compile flags: /Ogtp
; File C:\Program Files (x86)\Microsoft Visual Studio\2019\Community\VC\Tools\MSVC\14.27.29110\include\vcruntime_exception.h
;	COMDAT ??_Gbad_alloc@std@@UAEPAXI@Z
_TEXT	SEGMENT
___flags$ = 8						; size = 4
??_Gbad_alloc@std@@UAEPAXI@Z PROC			; std::bad_alloc::`scalar deleting destructor', COMDAT
; _this$ = ecx
  00000	55		 push	 ebp
  00001	8b ec		 mov	 ebp, esp

; 89   :     {

  00003	56		 push	 esi
  00004	8b f1		 mov	 esi, ecx

; 90   :         __std_exception_destroy(&_Data);

  00006	8d 46 04	 lea	 eax, DWORD PTR [esi+4]
  00009	c7 06 00 00 00
	00		 mov	 DWORD PTR [esi], OFFSET ??_7exception@std@@6B@
  0000f	50		 push	 eax
  00010	e8 00 00 00 00	 call	 ___std_exception_destroy
  00015	83 c4 04	 add	 esp, 4
  00018	f6 45 08 01	 test	 BYTE PTR ___flags$[ebp], 1
  0001c	74 0b		 je	 SHORT $LN9@scalar
  0001e	6a 0c		 push	 12			; 0000000cH
  00020	56		 push	 esi
  00021	e8 00 00 00 00	 call	 ??3@YAXPAXI@Z		; operator delete
  00026	83 c4 08	 add	 esp, 8
$LN9@scalar:
  00029	8b c6		 mov	 eax, esi
  0002b	5e		 pop	 esi
  0002c	5d		 pop	 ebp
  0002d	c2 04 00	 ret	 4
??_Gbad_alloc@std@@UAEPAXI@Z ENDP			; std::bad_alloc::`scalar deleting destructor'
_TEXT	ENDS
; Function compile flags: /Ogtp
; File C:\Program Files (x86)\Microsoft Visual Studio\2019\Community\VC\Tools\MSVC\14.27.29110\include\vcruntime_exception.h
;	COMDAT ??0bad_alloc@std@@QAE@ABV01@@Z
_TEXT	SEGMENT
___that$ = 8						; size = 4
??0bad_alloc@std@@QAE@ABV01@@Z PROC			; std::bad_alloc::bad_alloc, COMDAT
; _this$ = ecx
  00000	55		 push	 ebp
  00001	8b ec		 mov	 ebp, esp

; 72   :     {

  00003	56		 push	 esi
  00004	8b f1		 mov	 esi, ecx
  00006	0f 57 c0	 xorps	 xmm0, xmm0

; 71   :         : _Data()

  00009	8d 46 04	 lea	 eax, DWORD PTR [esi+4]

; 73   :         __std_exception_copy(&_Other._Data, &_Data);

  0000c	50		 push	 eax
  0000d	c7 06 00 00 00
	00		 mov	 DWORD PTR [esi], OFFSET ??_7exception@std@@6B@
  00013	66 0f d6 00	 movq	 QWORD PTR [eax], xmm0
  00017	8b 45 08	 mov	 eax, DWORD PTR ___that$[ebp]
  0001a	83 c0 04	 add	 eax, 4
  0001d	50		 push	 eax
  0001e	e8 00 00 00 00	 call	 ___std_exception_copy
  00023	83 c4 08	 add	 esp, 8
  00026	c7 06 00 00 00
	00		 mov	 DWORD PTR [esi], OFFSET ??_7bad_alloc@std@@6B@
  0002c	8b c6		 mov	 eax, esi
  0002e	5e		 pop	 esi
  0002f	5d		 pop	 ebp
  00030	c2 04 00	 ret	 4
??0bad_alloc@std@@QAE@ABV01@@Z ENDP			; std::bad_alloc::bad_alloc
_TEXT	ENDS
; Function compile flags: /Ogtp
; File C:\Program Files (x86)\Microsoft Visual Studio\2019\Community\VC\Tools\MSVC\14.27.29110\include\vcruntime_exception.h
;	COMDAT ??_Gexception@std@@UAEPAXI@Z
_TEXT	SEGMENT
___flags$ = 8						; size = 4
??_Gexception@std@@UAEPAXI@Z PROC			; std::exception::`scalar deleting destructor', COMDAT
; _this$ = ecx
  00000	55		 push	 ebp
  00001	8b ec		 mov	 ebp, esp

; 89   :     {

  00003	56		 push	 esi
  00004	8b f1		 mov	 esi, ecx

; 90   :         __std_exception_destroy(&_Data);

  00006	8d 46 04	 lea	 eax, DWORD PTR [esi+4]
  00009	c7 06 00 00 00
	00		 mov	 DWORD PTR [esi], OFFSET ??_7exception@std@@6B@
  0000f	50		 push	 eax
  00010	e8 00 00 00 00	 call	 ___std_exception_destroy
  00015	83 c4 04	 add	 esp, 4
  00018	f6 45 08 01	 test	 BYTE PTR ___flags$[ebp], 1
  0001c	74 0b		 je	 SHORT $LN6@scalar
  0001e	6a 0c		 push	 12			; 0000000cH
  00020	56		 push	 esi
  00021	e8 00 00 00 00	 call	 ??3@YAXPAXI@Z		; operator delete
  00026	83 c4 08	 add	 esp, 8
$LN6@scalar:
  00029	8b c6		 mov	 eax, esi
  0002b	5e		 pop	 esi
  0002c	5d		 pop	 ebp
  0002d	c2 04 00	 ret	 4
??_Gexception@std@@UAEPAXI@Z ENDP			; std::exception::`scalar deleting destructor'
_TEXT	ENDS
; Function compile flags: /Ogtp
; File C:\Program Files (x86)\Microsoft Visual Studio\2019\Community\VC\Tools\MSVC\14.27.29110\include\vcruntime_exception.h
;	COMDAT ?what@exception@std@@UBEPBDXZ
_TEXT	SEGMENT
?what@exception@std@@UBEPBDXZ PROC			; std::exception::what, COMDAT
; _this$ = ecx

; 95   :         return _Data._What ? _Data._What : "Unknown exception";

  00000	8b 49 04	 mov	 ecx, DWORD PTR [ecx+4]
  00003	b8 00 00 00 00	 mov	 eax, OFFSET ??_C@_0BC@EOODALEL@Unknown?5exception@
  00008	85 c9		 test	 ecx, ecx
  0000a	0f 45 c1	 cmovne	 eax, ecx

; 96   :     }

  0000d	c3		 ret	 0
?what@exception@std@@UBEPBDXZ ENDP			; std::exception::what
_TEXT	ENDS
; Function compile flags: /Ogtp
; File C:\Program Files (x86)\Microsoft Visual Studio\2019\Community\VC\Tools\MSVC\14.27.29110\include\vcruntime_exception.h
;	COMDAT ??1exception@std@@UAE@XZ
_TEXT	SEGMENT
??1exception@std@@UAE@XZ PROC				; std::exception::~exception, COMDAT
; _this$ = ecx

; 90   :         __std_exception_destroy(&_Data);

  00000	8d 41 04	 lea	 eax, DWORD PTR [ecx+4]
  00003	c7 01 00 00 00
	00		 mov	 DWORD PTR [ecx], OFFSET ??_7exception@std@@6B@
  00009	50		 push	 eax
  0000a	e8 00 00 00 00	 call	 ___std_exception_destroy
  0000f	59		 pop	 ecx

; 91   :     }

  00010	c3		 ret	 0
??1exception@std@@UAE@XZ ENDP				; std::exception::~exception
_TEXT	ENDS
; Function compile flags: /Ogtp
; File C:\Program Files (x86)\Microsoft Visual Studio\2019\Community\VC\Tools\MSVC\14.27.29110\include\vcruntime_exception.h
;	COMDAT ??0exception@std@@QAE@ABV01@@Z
_TEXT	SEGMENT
__Other$ = 8						; size = 4
??0exception@std@@QAE@ABV01@@Z PROC			; std::exception::exception, COMDAT
; _this$ = ecx

; 72   :     {

  00000	55		 push	 ebp
  00001	8b ec		 mov	 ebp, esp
  00003	56		 push	 esi
  00004	8b f1		 mov	 esi, ecx
  00006	0f 57 c0	 xorps	 xmm0, xmm0
  00009	8d 46 04	 lea	 eax, DWORD PTR [esi+4]

; 73   :         __std_exception_copy(&_Other._Data, &_Data);

  0000c	50		 push	 eax
  0000d	c7 06 00 00 00
	00		 mov	 DWORD PTR [esi], OFFSET ??_7exception@std@@6B@
  00013	66 0f d6 00	 movq	 QWORD PTR [eax], xmm0
  00017	8b 45 08	 mov	 eax, DWORD PTR __Other$[ebp]
  0001a	83 c0 04	 add	 eax, 4
  0001d	50		 push	 eax
  0001e	e8 00 00 00 00	 call	 ___std_exception_copy
  00023	83 c4 08	 add	 esp, 8

; 74   :     }

  00026	8b c6		 mov	 eax, esi
  00028	5e		 pop	 esi
  00029	5d		 pop	 ebp
  0002a	c2 04 00	 ret	 4
??0exception@std@@QAE@ABV01@@Z ENDP			; std::exception::exception
_TEXT	ENDS
END
