; Listing generated by Microsoft (R) Optimizing Compiler Version 19.27.29112.0 

	TITLE	C:\DS Project\DS Files\Source\ClientSource\Client\EterLib\CollisionData.cpp
	.686P
	.XMM
	include listing.inc
	.model	flat

INCLUDELIB LIBCMT
INCLUDELIB OLDNAMES

PUBLIC	??_7?$CDynamicPool@VCSphereCollisionInstance@@@@6B@ ; CDynamicPool<CSphereCollisionInstance>::`vftable'
PUBLIC	??_G?$CDynamicPool@VCSphereCollisionInstance@@@@UAEPAXI@Z ; CDynamicPool<CSphereCollisionInstance>::`scalar deleting destructor'
PUBLIC	??_7?$CDynamicPool@VCCylinderCollisionInstance@@@@6B@ ; CDynamicPool<CCylinderCollisionInstance>::`vftable'
PUBLIC	??_G?$CDynamicPool@VCCylinderCollisionInstance@@@@UAEPAXI@Z ; CDynamicPool<CCylinderCollisionInstance>::`scalar deleting destructor'
PUBLIC	??_7?$CDynamicPool@VCPlaneCollisionInstance@@@@6B@ ; CDynamicPool<CPlaneCollisionInstance>::`vftable'
PUBLIC	??_G?$CDynamicPool@VCPlaneCollisionInstance@@@@UAEPAXI@Z ; CDynamicPool<CPlaneCollisionInstance>::`scalar deleting destructor'
PUBLIC	??_7?$CDynamicPool@VCAABBCollisionInstance@@@@6B@ ; CDynamicPool<CAABBCollisionInstance>::`vftable'
PUBLIC	??_G?$CDynamicPool@VCAABBCollisionInstance@@@@UAEPAXI@Z ; CDynamicPool<CAABBCollisionInstance>::`scalar deleting destructor'
PUBLIC	??_7?$CDynamicPool@VCOBBCollisionInstance@@@@6B@ ; CDynamicPool<COBBCollisionInstance>::`vftable'
PUBLIC	??_G?$CDynamicPool@VCOBBCollisionInstance@@@@UAEPAXI@Z ; CDynamicPool<COBBCollisionInstance>::`scalar deleting destructor'
PUBLIC	??_R4?$CDynamicPool@VCSphereCollisionInstance@@@@6B@ ; CDynamicPool<CSphereCollisionInstance>::`RTTI Complete Object Locator'
PUBLIC	??_R0?AV?$CDynamicPool@VCSphereCollisionInstance@@@@@8 ; CDynamicPool<CSphereCollisionInstance> `RTTI Type Descriptor'
PUBLIC	??_R3?$CDynamicPool@VCSphereCollisionInstance@@@@8 ; CDynamicPool<CSphereCollisionInstance>::`RTTI Class Hierarchy Descriptor'
PUBLIC	??_R2?$CDynamicPool@VCSphereCollisionInstance@@@@8 ; CDynamicPool<CSphereCollisionInstance>::`RTTI Base Class Array'
PUBLIC	??_R1A@?0A@EA@?$CDynamicPool@VCSphereCollisionInstance@@@@8 ; CDynamicPool<CSphereCollisionInstance>::`RTTI Base Class Descriptor at (0,-1,0,64)'
PUBLIC	??_R4?$CDynamicPool@VCCylinderCollisionInstance@@@@6B@ ; CDynamicPool<CCylinderCollisionInstance>::`RTTI Complete Object Locator'
PUBLIC	??_R0?AV?$CDynamicPool@VCCylinderCollisionInstance@@@@@8 ; CDynamicPool<CCylinderCollisionInstance> `RTTI Type Descriptor'
PUBLIC	??_R3?$CDynamicPool@VCCylinderCollisionInstance@@@@8 ; CDynamicPool<CCylinderCollisionInstance>::`RTTI Class Hierarchy Descriptor'
PUBLIC	??_R2?$CDynamicPool@VCCylinderCollisionInstance@@@@8 ; CDynamicPool<CCylinderCollisionInstance>::`RTTI Base Class Array'
PUBLIC	??_R1A@?0A@EA@?$CDynamicPool@VCCylinderCollisionInstance@@@@8 ; CDynamicPool<CCylinderCollisionInstance>::`RTTI Base Class Descriptor at (0,-1,0,64)'
PUBLIC	??_R4?$CDynamicPool@VCPlaneCollisionInstance@@@@6B@ ; CDynamicPool<CPlaneCollisionInstance>::`RTTI Complete Object Locator'
PUBLIC	??_R0?AV?$CDynamicPool@VCPlaneCollisionInstance@@@@@8 ; CDynamicPool<CPlaneCollisionInstance> `RTTI Type Descriptor'
PUBLIC	??_R3?$CDynamicPool@VCPlaneCollisionInstance@@@@8 ; CDynamicPool<CPlaneCollisionInstance>::`RTTI Class Hierarchy Descriptor'
PUBLIC	??_R2?$CDynamicPool@VCPlaneCollisionInstance@@@@8 ; CDynamicPool<CPlaneCollisionInstance>::`RTTI Base Class Array'
PUBLIC	??_R1A@?0A@EA@?$CDynamicPool@VCPlaneCollisionInstance@@@@8 ; CDynamicPool<CPlaneCollisionInstance>::`RTTI Base Class Descriptor at (0,-1,0,64)'
PUBLIC	??_R4?$CDynamicPool@VCAABBCollisionInstance@@@@6B@ ; CDynamicPool<CAABBCollisionInstance>::`RTTI Complete Object Locator'
PUBLIC	??_R0?AV?$CDynamicPool@VCAABBCollisionInstance@@@@@8 ; CDynamicPool<CAABBCollisionInstance> `RTTI Type Descriptor'
PUBLIC	??_R3?$CDynamicPool@VCAABBCollisionInstance@@@@8 ; CDynamicPool<CAABBCollisionInstance>::`RTTI Class Hierarchy Descriptor'
PUBLIC	??_R2?$CDynamicPool@VCAABBCollisionInstance@@@@8 ; CDynamicPool<CAABBCollisionInstance>::`RTTI Base Class Array'
PUBLIC	??_R1A@?0A@EA@?$CDynamicPool@VCAABBCollisionInstance@@@@8 ; CDynamicPool<CAABBCollisionInstance>::`RTTI Base Class Descriptor at (0,-1,0,64)'
PUBLIC	??_R4?$CDynamicPool@VCOBBCollisionInstance@@@@6B@ ; CDynamicPool<COBBCollisionInstance>::`RTTI Complete Object Locator'
PUBLIC	??_R0?AV?$CDynamicPool@VCOBBCollisionInstance@@@@@8 ; CDynamicPool<COBBCollisionInstance> `RTTI Type Descriptor'
PUBLIC	??_R3?$CDynamicPool@VCOBBCollisionInstance@@@@8	; CDynamicPool<COBBCollisionInstance>::`RTTI Class Hierarchy Descriptor'
PUBLIC	??_R2?$CDynamicPool@VCOBBCollisionInstance@@@@8	; CDynamicPool<COBBCollisionInstance>::`RTTI Base Class Array'
PUBLIC	??_R1A@?0A@EA@?$CDynamicPool@VCOBBCollisionInstance@@@@8 ; CDynamicPool<COBBCollisionInstance>::`RTTI Base Class Descriptor at (0,-1,0,64)'
EXTRN	??_E?$CDynamicPool@VCSphereCollisionInstance@@@@UAEPAXI@Z:PROC ; CDynamicPool<CSphereCollisionInstance>::`vector deleting destructor'
EXTRN	??_E?$CDynamicPool@VCCylinderCollisionInstance@@@@UAEPAXI@Z:PROC ; CDynamicPool<CCylinderCollisionInstance>::`vector deleting destructor'
EXTRN	??_E?$CDynamicPool@VCPlaneCollisionInstance@@@@UAEPAXI@Z:PROC ; CDynamicPool<CPlaneCollisionInstance>::`vector deleting destructor'
EXTRN	??_E?$CDynamicPool@VCAABBCollisionInstance@@@@UAEPAXI@Z:PROC ; CDynamicPool<CAABBCollisionInstance>::`vector deleting destructor'
EXTRN	??_E?$CDynamicPool@VCOBBCollisionInstance@@@@UAEPAXI@Z:PROC ; CDynamicPool<COBBCollisionInstance>::`vector deleting destructor'
EXTRN	??_7type_info@@6B@:QWORD			; type_info::`vftable'
;	COMDAT ??_R1A@?0A@EA@?$CDynamicPool@VCOBBCollisionInstance@@@@8
rdata$r	SEGMENT
??_R1A@?0A@EA@?$CDynamicPool@VCOBBCollisionInstance@@@@8 DD FLAT:??_R0?AV?$CDynamicPool@VCOBBCollisionInstance@@@@@8 ; CDynamicPool<COBBCollisionInstance>::`RTTI Base Class Descriptor at (0,-1,0,64)'
	DD	00H
	DD	00H
	DD	0ffffffffH
	DD	00H
	DD	040H
	DD	FLAT:??_R3?$CDynamicPool@VCOBBCollisionInstance@@@@8
rdata$r	ENDS
;	COMDAT ??_R2?$CDynamicPool@VCOBBCollisionInstance@@@@8
rdata$r	SEGMENT
??_R2?$CDynamicPool@VCOBBCollisionInstance@@@@8 DD FLAT:??_R1A@?0A@EA@?$CDynamicPool@VCOBBCollisionInstance@@@@8 ; CDynamicPool<COBBCollisionInstance>::`RTTI Base Class Array'
rdata$r	ENDS
;	COMDAT ??_R3?$CDynamicPool@VCOBBCollisionInstance@@@@8
rdata$r	SEGMENT
??_R3?$CDynamicPool@VCOBBCollisionInstance@@@@8 DD 00H	; CDynamicPool<COBBCollisionInstance>::`RTTI Class Hierarchy Descriptor'
	DD	00H
	DD	01H
	DD	FLAT:??_R2?$CDynamicPool@VCOBBCollisionInstance@@@@8
rdata$r	ENDS
;	COMDAT ??_R0?AV?$CDynamicPool@VCOBBCollisionInstance@@@@@8
data$r	SEGMENT
??_R0?AV?$CDynamicPool@VCOBBCollisionInstance@@@@@8 DD FLAT:??_7type_info@@6B@ ; CDynamicPool<COBBCollisionInstance> `RTTI Type Descriptor'
	DD	00H
	DB	'.?AV?$CDynamicPool@VCOBBCollisionInstance@@@@', 00H
data$r	ENDS
;	COMDAT ??_R4?$CDynamicPool@VCOBBCollisionInstance@@@@6B@
rdata$r	SEGMENT
??_R4?$CDynamicPool@VCOBBCollisionInstance@@@@6B@ DD 00H ; CDynamicPool<COBBCollisionInstance>::`RTTI Complete Object Locator'
	DD	00H
	DD	00H
	DD	FLAT:??_R0?AV?$CDynamicPool@VCOBBCollisionInstance@@@@@8
	DD	FLAT:??_R3?$CDynamicPool@VCOBBCollisionInstance@@@@8
rdata$r	ENDS
;	COMDAT ??_R1A@?0A@EA@?$CDynamicPool@VCAABBCollisionInstance@@@@8
rdata$r	SEGMENT
??_R1A@?0A@EA@?$CDynamicPool@VCAABBCollisionInstance@@@@8 DD FLAT:??_R0?AV?$CDynamicPool@VCAABBCollisionInstance@@@@@8 ; CDynamicPool<CAABBCollisionInstance>::`RTTI Base Class Descriptor at (0,-1,0,64)'
	DD	00H
	DD	00H
	DD	0ffffffffH
	DD	00H
	DD	040H
	DD	FLAT:??_R3?$CDynamicPool@VCAABBCollisionInstance@@@@8
rdata$r	ENDS
;	COMDAT ??_R2?$CDynamicPool@VCAABBCollisionInstance@@@@8
rdata$r	SEGMENT
??_R2?$CDynamicPool@VCAABBCollisionInstance@@@@8 DD FLAT:??_R1A@?0A@EA@?$CDynamicPool@VCAABBCollisionInstance@@@@8 ; CDynamicPool<CAABBCollisionInstance>::`RTTI Base Class Array'
rdata$r	ENDS
;	COMDAT ??_R3?$CDynamicPool@VCAABBCollisionInstance@@@@8
rdata$r	SEGMENT
??_R3?$CDynamicPool@VCAABBCollisionInstance@@@@8 DD 00H	; CDynamicPool<CAABBCollisionInstance>::`RTTI Class Hierarchy Descriptor'
	DD	00H
	DD	01H
	DD	FLAT:??_R2?$CDynamicPool@VCAABBCollisionInstance@@@@8
rdata$r	ENDS
;	COMDAT ??_R0?AV?$CDynamicPool@VCAABBCollisionInstance@@@@@8
data$r	SEGMENT
??_R0?AV?$CDynamicPool@VCAABBCollisionInstance@@@@@8 DD FLAT:??_7type_info@@6B@ ; CDynamicPool<CAABBCollisionInstance> `RTTI Type Descriptor'
	DD	00H
	DB	'.?AV?$CDynamicPool@VCAABBCollisionInstance@@@@', 00H
data$r	ENDS
;	COMDAT ??_R4?$CDynamicPool@VCAABBCollisionInstance@@@@6B@
rdata$r	SEGMENT
??_R4?$CDynamicPool@VCAABBCollisionInstance@@@@6B@ DD 00H ; CDynamicPool<CAABBCollisionInstance>::`RTTI Complete Object Locator'
	DD	00H
	DD	00H
	DD	FLAT:??_R0?AV?$CDynamicPool@VCAABBCollisionInstance@@@@@8
	DD	FLAT:??_R3?$CDynamicPool@VCAABBCollisionInstance@@@@8
rdata$r	ENDS
;	COMDAT ??_R1A@?0A@EA@?$CDynamicPool@VCPlaneCollisionInstance@@@@8
rdata$r	SEGMENT
??_R1A@?0A@EA@?$CDynamicPool@VCPlaneCollisionInstance@@@@8 DD FLAT:??_R0?AV?$CDynamicPool@VCPlaneCollisionInstance@@@@@8 ; CDynamicPool<CPlaneCollisionInstance>::`RTTI Base Class Descriptor at (0,-1,0,64)'
	DD	00H
	DD	00H
	DD	0ffffffffH
	DD	00H
	DD	040H
	DD	FLAT:??_R3?$CDynamicPool@VCPlaneCollisionInstance@@@@8
rdata$r	ENDS
;	COMDAT ??_R2?$CDynamicPool@VCPlaneCollisionInstance@@@@8
rdata$r	SEGMENT
??_R2?$CDynamicPool@VCPlaneCollisionInstance@@@@8 DD FLAT:??_R1A@?0A@EA@?$CDynamicPool@VCPlaneCollisionInstance@@@@8 ; CDynamicPool<CPlaneCollisionInstance>::`RTTI Base Class Array'
rdata$r	ENDS
;	COMDAT ??_R3?$CDynamicPool@VCPlaneCollisionInstance@@@@8
rdata$r	SEGMENT
??_R3?$CDynamicPool@VCPlaneCollisionInstance@@@@8 DD 00H ; CDynamicPool<CPlaneCollisionInstance>::`RTTI Class Hierarchy Descriptor'
	DD	00H
	DD	01H
	DD	FLAT:??_R2?$CDynamicPool@VCPlaneCollisionInstance@@@@8
rdata$r	ENDS
;	COMDAT ??_R0?AV?$CDynamicPool@VCPlaneCollisionInstance@@@@@8
data$r	SEGMENT
??_R0?AV?$CDynamicPool@VCPlaneCollisionInstance@@@@@8 DD FLAT:??_7type_info@@6B@ ; CDynamicPool<CPlaneCollisionInstance> `RTTI Type Descriptor'
	DD	00H
	DB	'.?AV?$CDynamicPool@VCPlaneCollisionInstance@@@@', 00H
data$r	ENDS
;	COMDAT ??_R4?$CDynamicPool@VCPlaneCollisionInstance@@@@6B@
rdata$r	SEGMENT
??_R4?$CDynamicPool@VCPlaneCollisionInstance@@@@6B@ DD 00H ; CDynamicPool<CPlaneCollisionInstance>::`RTTI Complete Object Locator'
	DD	00H
	DD	00H
	DD	FLAT:??_R0?AV?$CDynamicPool@VCPlaneCollisionInstance@@@@@8
	DD	FLAT:??_R3?$CDynamicPool@VCPlaneCollisionInstance@@@@8
rdata$r	ENDS
;	COMDAT ??_R1A@?0A@EA@?$CDynamicPool@VCCylinderCollisionInstance@@@@8
rdata$r	SEGMENT
??_R1A@?0A@EA@?$CDynamicPool@VCCylinderCollisionInstance@@@@8 DD FLAT:??_R0?AV?$CDynamicPool@VCCylinderCollisionInstance@@@@@8 ; CDynamicPool<CCylinderCollisionInstance>::`RTTI Base Class Descriptor at (0,-1,0,64)'
	DD	00H
	DD	00H
	DD	0ffffffffH
	DD	00H
	DD	040H
	DD	FLAT:??_R3?$CDynamicPool@VCCylinderCollisionInstance@@@@8
rdata$r	ENDS
;	COMDAT ??_R2?$CDynamicPool@VCCylinderCollisionInstance@@@@8
rdata$r	SEGMENT
??_R2?$CDynamicPool@VCCylinderCollisionInstance@@@@8 DD FLAT:??_R1A@?0A@EA@?$CDynamicPool@VCCylinderCollisionInstance@@@@8 ; CDynamicPool<CCylinderCollisionInstance>::`RTTI Base Class Array'
rdata$r	ENDS
;	COMDAT ??_R3?$CDynamicPool@VCCylinderCollisionInstance@@@@8
rdata$r	SEGMENT
??_R3?$CDynamicPool@VCCylinderCollisionInstance@@@@8 DD 00H ; CDynamicPool<CCylinderCollisionInstance>::`RTTI Class Hierarchy Descriptor'
	DD	00H
	DD	01H
	DD	FLAT:??_R2?$CDynamicPool@VCCylinderCollisionInstance@@@@8
rdata$r	ENDS
;	COMDAT ??_R0?AV?$CDynamicPool@VCCylinderCollisionInstance@@@@@8
data$r	SEGMENT
??_R0?AV?$CDynamicPool@VCCylinderCollisionInstance@@@@@8 DD FLAT:??_7type_info@@6B@ ; CDynamicPool<CCylinderCollisionInstance> `RTTI Type Descriptor'
	DD	00H
	DB	'.?AV?$CDynamicPool@VCCylinderCollisionInstance@@@@', 00H
data$r	ENDS
;	COMDAT ??_R4?$CDynamicPool@VCCylinderCollisionInstance@@@@6B@
rdata$r	SEGMENT
??_R4?$CDynamicPool@VCCylinderCollisionInstance@@@@6B@ DD 00H ; CDynamicPool<CCylinderCollisionInstance>::`RTTI Complete Object Locator'
	DD	00H
	DD	00H
	DD	FLAT:??_R0?AV?$CDynamicPool@VCCylinderCollisionInstance@@@@@8
	DD	FLAT:??_R3?$CDynamicPool@VCCylinderCollisionInstance@@@@8
rdata$r	ENDS
;	COMDAT ??_R1A@?0A@EA@?$CDynamicPool@VCSphereCollisionInstance@@@@8
rdata$r	SEGMENT
??_R1A@?0A@EA@?$CDynamicPool@VCSphereCollisionInstance@@@@8 DD FLAT:??_R0?AV?$CDynamicPool@VCSphereCollisionInstance@@@@@8 ; CDynamicPool<CSphereCollisionInstance>::`RTTI Base Class Descriptor at (0,-1,0,64)'
	DD	00H
	DD	00H
	DD	0ffffffffH
	DD	00H
	DD	040H
	DD	FLAT:??_R3?$CDynamicPool@VCSphereCollisionInstance@@@@8
rdata$r	ENDS
;	COMDAT ??_R2?$CDynamicPool@VCSphereCollisionInstance@@@@8
rdata$r	SEGMENT
??_R2?$CDynamicPool@VCSphereCollisionInstance@@@@8 DD FLAT:??_R1A@?0A@EA@?$CDynamicPool@VCSphereCollisionInstance@@@@8 ; CDynamicPool<CSphereCollisionInstance>::`RTTI Base Class Array'
rdata$r	ENDS
;	COMDAT ??_R3?$CDynamicPool@VCSphereCollisionInstance@@@@8
rdata$r	SEGMENT
??_R3?$CDynamicPool@VCSphereCollisionInstance@@@@8 DD 00H ; CDynamicPool<CSphereCollisionInstance>::`RTTI Class Hierarchy Descriptor'
	DD	00H
	DD	01H
	DD	FLAT:??_R2?$CDynamicPool@VCSphereCollisionInstance@@@@8
rdata$r	ENDS
;	COMDAT ??_R0?AV?$CDynamicPool@VCSphereCollisionInstance@@@@@8
data$r	SEGMENT
??_R0?AV?$CDynamicPool@VCSphereCollisionInstance@@@@@8 DD FLAT:??_7type_info@@6B@ ; CDynamicPool<CSphereCollisionInstance> `RTTI Type Descriptor'
	DD	00H
	DB	'.?AV?$CDynamicPool@VCSphereCollisionInstance@@@@', 00H
data$r	ENDS
;	COMDAT ??_R4?$CDynamicPool@VCSphereCollisionInstance@@@@6B@
rdata$r	SEGMENT
??_R4?$CDynamicPool@VCSphereCollisionInstance@@@@6B@ DD 00H ; CDynamicPool<CSphereCollisionInstance>::`RTTI Complete Object Locator'
	DD	00H
	DD	00H
	DD	FLAT:??_R0?AV?$CDynamicPool@VCSphereCollisionInstance@@@@@8
	DD	FLAT:??_R3?$CDynamicPool@VCSphereCollisionInstance@@@@8
rdata$r	ENDS
;	COMDAT ??_7?$CDynamicPool@VCOBBCollisionInstance@@@@6B@
CONST	SEGMENT
??_7?$CDynamicPool@VCOBBCollisionInstance@@@@6B@ DD FLAT:??_R4?$CDynamicPool@VCOBBCollisionInstance@@@@6B@ ; CDynamicPool<COBBCollisionInstance>::`vftable'
	DD	FLAT:??_E?$CDynamicPool@VCOBBCollisionInstance@@@@UAEPAXI@Z
CONST	ENDS
;	COMDAT ??_7?$CDynamicPool@VCAABBCollisionInstance@@@@6B@
CONST	SEGMENT
??_7?$CDynamicPool@VCAABBCollisionInstance@@@@6B@ DD FLAT:??_R4?$CDynamicPool@VCAABBCollisionInstance@@@@6B@ ; CDynamicPool<CAABBCollisionInstance>::`vftable'
	DD	FLAT:??_E?$CDynamicPool@VCAABBCollisionInstance@@@@UAEPAXI@Z
CONST	ENDS
;	COMDAT ??_7?$CDynamicPool@VCPlaneCollisionInstance@@@@6B@
CONST	SEGMENT
??_7?$CDynamicPool@VCPlaneCollisionInstance@@@@6B@ DD FLAT:??_R4?$CDynamicPool@VCPlaneCollisionInstance@@@@6B@ ; CDynamicPool<CPlaneCollisionInstance>::`vftable'
	DD	FLAT:??_E?$CDynamicPool@VCPlaneCollisionInstance@@@@UAEPAXI@Z
CONST	ENDS
;	COMDAT ??_7?$CDynamicPool@VCCylinderCollisionInstance@@@@6B@
CONST	SEGMENT
??_7?$CDynamicPool@VCCylinderCollisionInstance@@@@6B@ DD FLAT:??_R4?$CDynamicPool@VCCylinderCollisionInstance@@@@6B@ ; CDynamicPool<CCylinderCollisionInstance>::`vftable'
	DD	FLAT:??_E?$CDynamicPool@VCCylinderCollisionInstance@@@@UAEPAXI@Z
CONST	ENDS
;	COMDAT ??_7?$CDynamicPool@VCSphereCollisionInstance@@@@6B@
CONST	SEGMENT
??_7?$CDynamicPool@VCSphereCollisionInstance@@@@6B@ DD FLAT:??_R4?$CDynamicPool@VCSphereCollisionInstance@@@@6B@ ; CDynamicPool<CSphereCollisionInstance>::`vftable'
	DD	FLAT:??_E?$CDynamicPool@VCSphereCollisionInstance@@@@UAEPAXI@Z
CONST	ENDS
PUBLIC	??_H@YGXPAXIIP6EPAX0@Z@Z			; `vector constructor iterator'
PUBLIC	??0D3DXVECTOR3@@QAE@XZ				; D3DXVECTOR3::D3DXVECTOR3
PUBLIC	??0D3DXMATRIX@@QAE@XZ				; D3DXMATRIX::D3DXMATRIX
PUBLIC	??0exception@std@@QAE@ABV01@@Z			; std::exception::exception
PUBLIC	??1exception@std@@UAE@XZ			; std::exception::~exception
PUBLIC	?what@exception@std@@UBEPBDXZ			; std::exception::what
PUBLIC	??_Gexception@std@@UAEPAXI@Z			; std::exception::`scalar deleting destructor'
PUBLIC	??0bad_alloc@std@@QAE@ABV01@@Z			; std::bad_alloc::bad_alloc
PUBLIC	??_Gbad_alloc@std@@UAEPAXI@Z			; std::bad_alloc::`scalar deleting destructor'
PUBLIC	??0bad_array_new_length@std@@QAE@XZ		; std::bad_array_new_length::bad_array_new_length
PUBLIC	??1bad_array_new_length@std@@UAE@XZ		; std::bad_array_new_length::~bad_array_new_length
PUBLIC	??0bad_array_new_length@std@@QAE@ABV01@@Z	; std::bad_array_new_length::bad_array_new_length
PUBLIC	??_Gbad_array_new_length@std@@UAEPAXI@Z		; std::bad_array_new_length::`scalar deleting destructor'
PUBLIC	?_Throw_bad_array_new_length@std@@YAXXZ		; std::_Throw_bad_array_new_length
PUBLIC	??$_Deallocate@$07$0A@@std@@YAXPAXI@Z		; std::_Deallocate<8,0>
PUBLIC	??$_Allocate@$07U_Default_allocate_traits@std@@$0A@@std@@YAPAXI@Z ; std::_Allocate<8,std::_Default_allocate_traits,0>
PUBLIC	??$_Allocate_manually_vector_aligned@U_Default_allocate_traits@std@@@std@@YAPAXI@Z ; std::_Allocate_manually_vector_aligned<std::_Default_allocate_traits>
PUBLIC	?DestroyCollisionInstanceSystem@@YAXXZ		; DestroyCollisionInstanceSystem
PUBLIC	?Destroy@CBaseCollisionInstance@@QAEXXZ		; CBaseCollisionInstance::Destroy
PUBLIC	?BuildCollisionInstance@CBaseCollisionInstance@@SAPAV1@PBVCStaticCollisionData@@PBUD3DXMATRIX@@@Z ; CBaseCollisionInstance::BuildCollisionInstance
PUBLIC	?GetAttribute@CSphereCollisionInstance@@QAEAAUSSphereData@@XZ ; CSphereCollisionInstance::GetAttribute
PUBLIC	?GetAttribute@CSphereCollisionInstance@@QBEABUSSphereData@@XZ ; CSphereCollisionInstance::GetAttribute
PUBLIC	?Render@CSphereCollisionInstance@@UAEXW4_D3DFILLMODE@@@Z ; CSphereCollisionInstance::Render
PUBLIC	?OnDestroy@CSphereCollisionInstance@@MAEXXZ	; CSphereCollisionInstance::OnDestroy
PUBLIC	?OnMovementCollisionDynamicSphere@CSphereCollisionInstance@@MBE_NABUCDynamicSphereInstance@@@Z ; CSphereCollisionInstance::OnMovementCollisionDynamicSphere
PUBLIC	?OnCollisionDynamicSphere@CSphereCollisionInstance@@MBE_NABUCDynamicSphereInstance@@@Z ; CSphereCollisionInstance::OnCollisionDynamicSphere
PUBLIC	?OnGetCollisionMovementAdjust@CSphereCollisionInstance@@MBE?AUD3DXVECTOR3@@ABUCDynamicSphereInstance@@@Z ; CSphereCollisionInstance::OnGetCollisionMovementAdjust
PUBLIC	?GetAttribute@CPlaneCollisionInstance@@QAEAAUSPlaneData@@XZ ; CPlaneCollisionInstance::GetAttribute
PUBLIC	?GetAttribute@CPlaneCollisionInstance@@QBEABUSPlaneData@@XZ ; CPlaneCollisionInstance::GetAttribute
PUBLIC	?Render@CPlaneCollisionInstance@@UAEXW4_D3DFILLMODE@@@Z ; CPlaneCollisionInstance::Render
PUBLIC	?OnDestroy@CPlaneCollisionInstance@@MAEXXZ	; CPlaneCollisionInstance::OnDestroy
PUBLIC	?OnMovementCollisionDynamicSphere@CPlaneCollisionInstance@@MBE_NABUCDynamicSphereInstance@@@Z ; CPlaneCollisionInstance::OnMovementCollisionDynamicSphere
PUBLIC	?OnCollisionDynamicSphere@CPlaneCollisionInstance@@MBE_NABUCDynamicSphereInstance@@@Z ; CPlaneCollisionInstance::OnCollisionDynamicSphere
PUBLIC	?OnGetCollisionMovementAdjust@CPlaneCollisionInstance@@MBE?AUD3DXVECTOR3@@ABUCDynamicSphereInstance@@@Z ; CPlaneCollisionInstance::OnGetCollisionMovementAdjust
PUBLIC	?GetAttribute@CAABBCollisionInstance@@QAEAAUSAABBData@@XZ ; CAABBCollisionInstance::GetAttribute
PUBLIC	?GetAttribute@CAABBCollisionInstance@@QBEABUSAABBData@@XZ ; CAABBCollisionInstance::GetAttribute
PUBLIC	?Render@CAABBCollisionInstance@@UAEXW4_D3DFILLMODE@@@Z ; CAABBCollisionInstance::Render
PUBLIC	?OnDestroy@CAABBCollisionInstance@@MAEXXZ	; CAABBCollisionInstance::OnDestroy
PUBLIC	?OnMovementCollisionDynamicSphere@CAABBCollisionInstance@@MBE_NABUCDynamicSphereInstance@@@Z ; CAABBCollisionInstance::OnMovementCollisionDynamicSphere
PUBLIC	?OnCollisionDynamicSphere@CAABBCollisionInstance@@MBE_NABUCDynamicSphereInstance@@@Z ; CAABBCollisionInstance::OnCollisionDynamicSphere
PUBLIC	?OnGetCollisionMovementAdjust@CAABBCollisionInstance@@MBE?AUD3DXVECTOR3@@ABUCDynamicSphereInstance@@@Z ; CAABBCollisionInstance::OnGetCollisionMovementAdjust
PUBLIC	?GetAttribute@COBBCollisionInstance@@QAEAAUSOBBData@@XZ ; COBBCollisionInstance::GetAttribute
PUBLIC	?GetAttribute@COBBCollisionInstance@@QBEABUSOBBData@@XZ ; COBBCollisionInstance::GetAttribute
PUBLIC	?Render@COBBCollisionInstance@@UAEXW4_D3DFILLMODE@@@Z ; COBBCollisionInstance::Render
PUBLIC	?OnDestroy@COBBCollisionInstance@@MAEXXZ	; COBBCollisionInstance::OnDestroy
PUBLIC	?OnMovementCollisionDynamicSphere@COBBCollisionInstance@@MBE_NABUCDynamicSphereInstance@@@Z ; COBBCollisionInstance::OnMovementCollisionDynamicSphere
PUBLIC	?OnCollisionDynamicSphere@COBBCollisionInstance@@MBE_NABUCDynamicSphereInstance@@@Z ; COBBCollisionInstance::OnCollisionDynamicSphere
PUBLIC	?OnGetCollisionMovementAdjust@COBBCollisionInstance@@MBE?AUD3DXVECTOR3@@ABUCDynamicSphereInstance@@@Z ; COBBCollisionInstance::OnGetCollisionMovementAdjust
PUBLIC	?GetAttribute@CCylinderCollisionInstance@@QAEAAUSCylinderData@@XZ ; CCylinderCollisionInstance::GetAttribute
PUBLIC	?GetAttribute@CCylinderCollisionInstance@@QBEABUSCylinderData@@XZ ; CCylinderCollisionInstance::GetAttribute
PUBLIC	?Render@CCylinderCollisionInstance@@UAEXW4_D3DFILLMODE@@@Z ; CCylinderCollisionInstance::Render
PUBLIC	?OnDestroy@CCylinderCollisionInstance@@MAEXXZ	; CCylinderCollisionInstance::OnDestroy
PUBLIC	?OnMovementCollisionDynamicSphere@CCylinderCollisionInstance@@MBE_NABUCDynamicSphereInstance@@@Z ; CCylinderCollisionInstance::OnMovementCollisionDynamicSphere
PUBLIC	?OnCollisionDynamicSphere@CCylinderCollisionInstance@@MBE_NABUCDynamicSphereInstance@@@Z ; CCylinderCollisionInstance::OnCollisionDynamicSphere
PUBLIC	?OnGetCollisionMovementAdjust@CCylinderCollisionInstance@@MBE?AUD3DXVECTOR3@@ABUCDynamicSphereInstance@@@Z ; CCylinderCollisionInstance::OnGetCollisionMovementAdjust
PUBLIC	?CollideCylinderVSDynamicSphere@CCylinderCollisionInstance@@IBE_NABUSCylinderData@@ABUCDynamicSphereInstance@@@Z ; CCylinderCollisionInstance::CollideCylinderVSDynamicSphere
PUBLIC	??1?$CDynamicPool@VCSphereCollisionInstance@@@@UAE@XZ ; CDynamicPool<CSphereCollisionInstance>::~CDynamicPool<CSphereCollisionInstance>
PUBLIC	?Delete@?$CDynamicPool@VCSphereCollisionInstance@@@@KAXPAVCSphereCollisionInstance@@@Z ; CDynamicPool<CSphereCollisionInstance>::Delete
PUBLIC	?_Xlength@?$vector@PAVCSphereCollisionInstance@@V?$allocator@PAVCSphereCollisionInstance@@@std@@@std@@CAXXZ ; std::vector<CSphereCollisionInstance *,std::allocator<CSphereCollisionInstance *> >::_Xlength
PUBLIC	??1?$CDynamicPool@VCCylinderCollisionInstance@@@@UAE@XZ ; CDynamicPool<CCylinderCollisionInstance>::~CDynamicPool<CCylinderCollisionInstance>
PUBLIC	?Delete@?$CDynamicPool@VCCylinderCollisionInstance@@@@KAXPAVCCylinderCollisionInstance@@@Z ; CDynamicPool<CCylinderCollisionInstance>::Delete
PUBLIC	?_Xlength@?$vector@PAVCCylinderCollisionInstance@@V?$allocator@PAVCCylinderCollisionInstance@@@std@@@std@@CAXXZ ; std::vector<CCylinderCollisionInstance *,std::allocator<CCylinderCollisionInstance *> >::_Xlength
PUBLIC	??1?$CDynamicPool@VCPlaneCollisionInstance@@@@UAE@XZ ; CDynamicPool<CPlaneCollisionInstance>::~CDynamicPool<CPlaneCollisionInstance>
PUBLIC	?Delete@?$CDynamicPool@VCPlaneCollisionInstance@@@@KAXPAVCPlaneCollisionInstance@@@Z ; CDynamicPool<CPlaneCollisionInstance>::Delete
PUBLIC	?_Xlength@?$vector@PAVCPlaneCollisionInstance@@V?$allocator@PAVCPlaneCollisionInstance@@@std@@@std@@CAXXZ ; std::vector<CPlaneCollisionInstance *,std::allocator<CPlaneCollisionInstance *> >::_Xlength
PUBLIC	??1?$CDynamicPool@VCAABBCollisionInstance@@@@UAE@XZ ; CDynamicPool<CAABBCollisionInstance>::~CDynamicPool<CAABBCollisionInstance>
PUBLIC	?Delete@?$CDynamicPool@VCAABBCollisionInstance@@@@KAXPAVCAABBCollisionInstance@@@Z ; CDynamicPool<CAABBCollisionInstance>::Delete
PUBLIC	?_Xlength@?$vector@PAVCAABBCollisionInstance@@V?$allocator@PAVCAABBCollisionInstance@@@std@@@std@@CAXXZ ; std::vector<CAABBCollisionInstance *,std::allocator<CAABBCollisionInstance *> >::_Xlength
PUBLIC	??1?$CDynamicPool@VCOBBCollisionInstance@@@@UAE@XZ ; CDynamicPool<COBBCollisionInstance>::~CDynamicPool<COBBCollisionInstance>
PUBLIC	?Delete@?$CDynamicPool@VCOBBCollisionInstance@@@@KAXPAVCOBBCollisionInstance@@@Z ; CDynamicPool<COBBCollisionInstance>::Delete
PUBLIC	?_Xlength@?$vector@PAVCOBBCollisionInstance@@V?$allocator@PAVCOBBCollisionInstance@@@std@@@std@@CAXXZ ; std::vector<COBBCollisionInstance *,std::allocator<COBBCollisionInstance *> >::_Xlength
PUBLIC	??$_Emplace_reallocate@ABQAVCOBBCollisionInstance@@@?$vector@PAVCOBBCollisionInstance@@V?$allocator@PAVCOBBCollisionInstance@@@std@@@std@@QAEPAPAVCOBBCollisionInstance@@QAPAV2@ABQAV2@@Z ; std::vector<COBBCollisionInstance *,std::allocator<COBBCollisionInstance *> >::_Emplace_reallocate<COBBCollisionInstance * const &>
PUBLIC	??$_Emplace_reallocate@ABQAVCAABBCollisionInstance@@@?$vector@PAVCAABBCollisionInstance@@V?$allocator@PAVCAABBCollisionInstance@@@std@@@std@@QAEPAPAVCAABBCollisionInstance@@QAPAV2@ABQAV2@@Z ; std::vector<CAABBCollisionInstance *,std::allocator<CAABBCollisionInstance *> >::_Emplace_reallocate<CAABBCollisionInstance * const &>
PUBLIC	??$_Emplace_reallocate@ABQAVCPlaneCollisionInstance@@@?$vector@PAVCPlaneCollisionInstance@@V?$allocator@PAVCPlaneCollisionInstance@@@std@@@std@@QAEPAPAVCPlaneCollisionInstance@@QAPAV2@ABQAV2@@Z ; std::vector<CPlaneCollisionInstance *,std::allocator<CPlaneCollisionInstance *> >::_Emplace_reallocate<CPlaneCollisionInstance * const &>
PUBLIC	??$_Emplace_reallocate@ABQAVCCylinderCollisionInstance@@@?$vector@PAVCCylinderCollisionInstance@@V?$allocator@PAVCCylinderCollisionInstance@@@std@@@std@@QAEPAPAVCCylinderCollisionInstance@@QAPAV2@ABQAV2@@Z ; std::vector<CCylinderCollisionInstance *,std::allocator<CCylinderCollisionInstance *> >::_Emplace_reallocate<CCylinderCollisionInstance * const &>
PUBLIC	??$_Emplace_reallocate@ABQAVCSphereCollisionInstance@@@?$vector@PAVCSphereCollisionInstance@@V?$allocator@PAVCSphereCollisionInstance@@@std@@@std@@QAEPAPAVCSphereCollisionInstance@@QAPAV2@ABQAV2@@Z ; std::vector<CSphereCollisionInstance *,std::allocator<CSphereCollisionInstance *> >::_Emplace_reallocate<CSphereCollisionInstance * const &>
PUBLIC	??$_Destroy_range@V?$allocator@PAVCOBBCollisionInstance@@@std@@@std@@YAXPAPAVCOBBCollisionInstance@@QAPAV1@AAV?$allocator@PAVCOBBCollisionInstance@@@0@@Z ; std::_Destroy_range<std::allocator<COBBCollisionInstance *> >
PUBLIC	??$_Destroy_range@V?$allocator@PAVCAABBCollisionInstance@@@std@@@std@@YAXPAPAVCAABBCollisionInstance@@QAPAV1@AAV?$allocator@PAVCAABBCollisionInstance@@@0@@Z ; std::_Destroy_range<std::allocator<CAABBCollisionInstance *> >
PUBLIC	??$_Destroy_range@V?$allocator@PAVCPlaneCollisionInstance@@@std@@@std@@YAXPAPAVCPlaneCollisionInstance@@QAPAV1@AAV?$allocator@PAVCPlaneCollisionInstance@@@0@@Z ; std::_Destroy_range<std::allocator<CPlaneCollisionInstance *> >
PUBLIC	??$_Destroy_range@V?$allocator@PAVCCylinderCollisionInstance@@@std@@@std@@YAXPAPAVCCylinderCollisionInstance@@QAPAV1@AAV?$allocator@PAVCCylinderCollisionInstance@@@0@@Z ; std::_Destroy_range<std::allocator<CCylinderCollisionInstance *> >
PUBLIC	??$_Destroy_range@V?$allocator@PAVCSphereCollisionInstance@@@std@@@std@@YAXPAPAVCSphereCollisionInstance@@QAPAV1@AAV?$allocator@PAVCSphereCollisionInstance@@@0@@Z ; std::_Destroy_range<std::allocator<CSphereCollisionInstance *> >
PUBLIC	??$_Uninitialized_move@PAPAVCOBBCollisionInstance@@V?$allocator@PAVCOBBCollisionInstance@@@std@@@std@@YAPAPAVCOBBCollisionInstance@@QAPAV1@0PAPAV1@AAV?$allocator@PAVCOBBCollisionInstance@@@0@@Z ; std::_Uninitialized_move<COBBCollisionInstance * *,std::allocator<COBBCollisionInstance *> >
PUBLIC	??$_Uninitialized_move@PAPAVCAABBCollisionInstance@@V?$allocator@PAVCAABBCollisionInstance@@@std@@@std@@YAPAPAVCAABBCollisionInstance@@QAPAV1@0PAPAV1@AAV?$allocator@PAVCAABBCollisionInstance@@@0@@Z ; std::_Uninitialized_move<CAABBCollisionInstance * *,std::allocator<CAABBCollisionInstance *> >
PUBLIC	??$_Uninitialized_move@PAPAVCPlaneCollisionInstance@@V?$allocator@PAVCPlaneCollisionInstance@@@std@@@std@@YAPAPAVCPlaneCollisionInstance@@QAPAV1@0PAPAV1@AAV?$allocator@PAVCPlaneCollisionInstance@@@0@@Z ; std::_Uninitialized_move<CPlaneCollisionInstance * *,std::allocator<CPlaneCollisionInstance *> >
PUBLIC	??$_Uninitialized_move@PAPAVCCylinderCollisionInstance@@V?$allocator@PAVCCylinderCollisionInstance@@@std@@@std@@YAPAPAVCCylinderCollisionInstance@@QAPAV1@0PAPAV1@AAV?$allocator@PAVCCylinderCollisionInstance@@@0@@Z ; std::_Uninitialized_move<CCylinderCollisionInstance * *,std::allocator<CCylinderCollisionInstance *> >
PUBLIC	??$_Uninitialized_move@PAPAVCSphereCollisionInstance@@V?$allocator@PAVCSphereCollisionInstance@@@std@@@std@@YAPAPAVCSphereCollisionInstance@@QAPAV1@0PAPAV1@AAV?$allocator@PAVCSphereCollisionInstance@@@0@@Z ; std::_Uninitialized_move<CSphereCollisionInstance * *,std::allocator<CSphereCollisionInstance *> >
PUBLIC	??$_Copy_memmove@PAPAVCOBBCollisionInstance@@PAPAV1@@std@@YAPAPAVCOBBCollisionInstance@@PAPAV1@00@Z ; std::_Copy_memmove<COBBCollisionInstance * *,COBBCollisionInstance * *>
PUBLIC	??$_Copy_memmove@PAPAVCAABBCollisionInstance@@PAPAV1@@std@@YAPAPAVCAABBCollisionInstance@@PAPAV1@00@Z ; std::_Copy_memmove<CAABBCollisionInstance * *,CAABBCollisionInstance * *>
PUBLIC	??$_Copy_memmove@PAPAVCPlaneCollisionInstance@@PAPAV1@@std@@YAPAPAVCPlaneCollisionInstance@@PAPAV1@00@Z ; std::_Copy_memmove<CPlaneCollisionInstance * *,CPlaneCollisionInstance * *>
PUBLIC	??$_Copy_memmove@PAPAVCCylinderCollisionInstance@@PAPAV1@@std@@YAPAPAVCCylinderCollisionInstance@@PAPAV1@00@Z ; std::_Copy_memmove<CCylinderCollisionInstance * *,CCylinderCollisionInstance * *>
PUBLIC	??$_Copy_memmove@PAPAVCSphereCollisionInstance@@PAPAV1@@std@@YAPAPAVCSphereCollisionInstance@@PAPAV1@00@Z ; std::_Copy_memmove<CSphereCollisionInstance * *,CSphereCollisionInstance * *>
PUBLIC	??_7exception@std@@6B@				; std::exception::`vftable'
PUBLIC	??_C@_0BC@EOODALEL@Unknown?5exception@		; `string'
PUBLIC	??_7bad_alloc@std@@6B@				; std::bad_alloc::`vftable'
PUBLIC	??_7bad_array_new_length@std@@6B@		; std::bad_array_new_length::`vftable'
PUBLIC	??_C@_0BF@KINCDENJ@bad?5array?5new?5length@	; `string'
PUBLIC	__TI3?AVbad_array_new_length@std@@
PUBLIC	__CTA3?AVbad_array_new_length@std@@
PUBLIC	??_R0?AVbad_array_new_length@std@@@8		; std::bad_array_new_length `RTTI Type Descriptor'
PUBLIC	__CT??_R0?AVbad_array_new_length@std@@@8??0bad_array_new_length@std@@QAE@ABV01@@Z12
PUBLIC	??_R0?AVbad_alloc@std@@@8			; std::bad_alloc `RTTI Type Descriptor'
PUBLIC	__CT??_R0?AVbad_alloc@std@@@8??0bad_alloc@std@@QAE@ABV01@@Z12
PUBLIC	??_R0?AVexception@std@@@8			; std::exception `RTTI Type Descriptor'
PUBLIC	__CT??_R0?AVexception@std@@@8??0exception@std@@QAE@ABV01@@Z12
PUBLIC	??_R4exception@std@@6B@				; std::exception::`RTTI Complete Object Locator'
PUBLIC	??_R3exception@std@@8				; std::exception::`RTTI Class Hierarchy Descriptor'
PUBLIC	??_R2exception@std@@8				; std::exception::`RTTI Base Class Array'
PUBLIC	??_R1A@?0A@EA@exception@std@@8			; std::exception::`RTTI Base Class Descriptor at (0,-1,0,64)'
PUBLIC	??_R4bad_alloc@std@@6B@				; std::bad_alloc::`RTTI Complete Object Locator'
PUBLIC	??_R3bad_alloc@std@@8				; std::bad_alloc::`RTTI Class Hierarchy Descriptor'
PUBLIC	??_R2bad_alloc@std@@8				; std::bad_alloc::`RTTI Base Class Array'
PUBLIC	??_R1A@?0A@EA@bad_alloc@std@@8			; std::bad_alloc::`RTTI Base Class Descriptor at (0,-1,0,64)'
PUBLIC	??_R4bad_array_new_length@std@@6B@		; std::bad_array_new_length::`RTTI Complete Object Locator'
PUBLIC	??_R3bad_array_new_length@std@@8		; std::bad_array_new_length::`RTTI Class Hierarchy Descriptor'
PUBLIC	??_R2bad_array_new_length@std@@8		; std::bad_array_new_length::`RTTI Base Class Array'
PUBLIC	??_R1A@?0A@EA@bad_array_new_length@std@@8	; std::bad_array_new_length::`RTTI Base Class Descriptor at (0,-1,0,64)'
PUBLIC	??_7CBaseCollisionInstance@@6B@			; CBaseCollisionInstance::`vftable'
PUBLIC	??_7CSphereCollisionInstance@@6B@		; CSphereCollisionInstance::`vftable'
PUBLIC	??_7CPlaneCollisionInstance@@6B@		; CPlaneCollisionInstance::`vftable'
PUBLIC	??_7CAABBCollisionInstance@@6B@			; CAABBCollisionInstance::`vftable'
PUBLIC	??_7COBBCollisionInstance@@6B@			; COBBCollisionInstance::`vftable'
PUBLIC	??_7CCylinderCollisionInstance@@6B@		; CCylinderCollisionInstance::`vftable'
PUBLIC	?ms_singleton@?$CSingleton@VCStateManager@@@@0PAVCStateManager@@A ; CSingleton<CStateManager>::ms_singleton
PUBLIC	?gs_sci@@3V?$CDynamicPool@VCSphereCollisionInstance@@@@A ; gs_sci
PUBLIC	?gs_cci@@3V?$CDynamicPool@VCCylinderCollisionInstance@@@@A ; gs_cci
PUBLIC	?gs_pci@@3V?$CDynamicPool@VCPlaneCollisionInstance@@@@A ; gs_pci
PUBLIC	?gs_aci@@3V?$CDynamicPool@VCAABBCollisionInstance@@@@A ; gs_aci
PUBLIC	?gs_oci@@3V?$CDynamicPool@VCOBBCollisionInstance@@@@A ; gs_oci
PUBLIC	??_C@_0BA@FOIKENOD@vector?5too?5long@		; `string'
PUBLIC	??_R4CBaseCollisionInstance@@6B@		; CBaseCollisionInstance::`RTTI Complete Object Locator'
PUBLIC	??_R0?AVCBaseCollisionInstance@@@8		; CBaseCollisionInstance `RTTI Type Descriptor'
PUBLIC	??_R3CBaseCollisionInstance@@8			; CBaseCollisionInstance::`RTTI Class Hierarchy Descriptor'
PUBLIC	??_R2CBaseCollisionInstance@@8			; CBaseCollisionInstance::`RTTI Base Class Array'
PUBLIC	??_R1A@?0A@EA@CBaseCollisionInstance@@8		; CBaseCollisionInstance::`RTTI Base Class Descriptor at (0,-1,0,64)'
PUBLIC	??_R4CSphereCollisionInstance@@6B@		; CSphereCollisionInstance::`RTTI Complete Object Locator'
PUBLIC	??_R0?AVCSphereCollisionInstance@@@8		; CSphereCollisionInstance `RTTI Type Descriptor'
PUBLIC	??_R3CSphereCollisionInstance@@8		; CSphereCollisionInstance::`RTTI Class Hierarchy Descriptor'
PUBLIC	??_R2CSphereCollisionInstance@@8		; CSphereCollisionInstance::`RTTI Base Class Array'
PUBLIC	??_R1A@?0A@EA@CSphereCollisionInstance@@8	; CSphereCollisionInstance::`RTTI Base Class Descriptor at (0,-1,0,64)'
PUBLIC	??_R4CPlaneCollisionInstance@@6B@		; CPlaneCollisionInstance::`RTTI Complete Object Locator'
PUBLIC	??_R0?AVCPlaneCollisionInstance@@@8		; CPlaneCollisionInstance `RTTI Type Descriptor'
PUBLIC	??_R3CPlaneCollisionInstance@@8			; CPlaneCollisionInstance::`RTTI Class Hierarchy Descriptor'
PUBLIC	??_R2CPlaneCollisionInstance@@8			; CPlaneCollisionInstance::`RTTI Base Class Array'
PUBLIC	??_R1A@?0A@EA@CPlaneCollisionInstance@@8	; CPlaneCollisionInstance::`RTTI Base Class Descriptor at (0,-1,0,64)'
PUBLIC	??_R4CAABBCollisionInstance@@6B@		; CAABBCollisionInstance::`RTTI Complete Object Locator'
PUBLIC	??_R0?AVCAABBCollisionInstance@@@8		; CAABBCollisionInstance `RTTI Type Descriptor'
PUBLIC	??_R3CAABBCollisionInstance@@8			; CAABBCollisionInstance::`RTTI Class Hierarchy Descriptor'
PUBLIC	??_R2CAABBCollisionInstance@@8			; CAABBCollisionInstance::`RTTI Base Class Array'
PUBLIC	??_R1A@?0A@EA@CAABBCollisionInstance@@8		; CAABBCollisionInstance::`RTTI Base Class Descriptor at (0,-1,0,64)'
PUBLIC	??_R4COBBCollisionInstance@@6B@			; COBBCollisionInstance::`RTTI Complete Object Locator'
PUBLIC	??_R0?AVCOBBCollisionInstance@@@8		; COBBCollisionInstance `RTTI Type Descriptor'
PUBLIC	??_R3COBBCollisionInstance@@8			; COBBCollisionInstance::`RTTI Class Hierarchy Descriptor'
PUBLIC	??_R2COBBCollisionInstance@@8			; COBBCollisionInstance::`RTTI Base Class Array'
PUBLIC	??_R1A@?0A@EA@COBBCollisionInstance@@8		; COBBCollisionInstance::`RTTI Base Class Descriptor at (0,-1,0,64)'
PUBLIC	??_R4CCylinderCollisionInstance@@6B@		; CCylinderCollisionInstance::`RTTI Complete Object Locator'
PUBLIC	??_R0?AVCCylinderCollisionInstance@@@8		; CCylinderCollisionInstance `RTTI Type Descriptor'
PUBLIC	??_R3CCylinderCollisionInstance@@8		; CCylinderCollisionInstance::`RTTI Class Hierarchy Descriptor'
PUBLIC	??_R2CCylinderCollisionInstance@@8		; CCylinderCollisionInstance::`RTTI Base Class Array'
PUBLIC	??_R1A@?0A@EA@CCylinderCollisionInstance@@8	; CCylinderCollisionInstance::`RTTI Base Class Descriptor at (0,-1,0,64)'
PUBLIC	__real@00000000
PUBLIC	__real@38d1b717
PUBLIC	__real@3f000000
PUBLIC	__real@3f1a36e2eb1c432d
PUBLIC	__real@3f800000
PUBLIC	__real@40800000
PUBLIC	__real@bf1a36e2eb1c432d
PUBLIC	__xmm@7fffffffffffffff7fffffffffffffff
PUBLIC	__xmm@80000000800000008000000080000000
EXTRN	__purecall:PROC
EXTRN	??2@YAPAXI@Z:PROC				; operator new
EXTRN	??3@YAXPAXI@Z:PROC				; operator delete
EXTRN	_atexit:PROC
EXTRN	__Init_thread_header:PROC
EXTRN	__Init_thread_abort:PROC
EXTRN	__Init_thread_footer:PROC
EXTRN	__invalid_parameter_noinfo_noreturn:PROC
EXTRN	_D3DXVec3Normalize@8:PROC
EXTRN	_D3DXVec3TransformCoord@12:PROC
EXTRN	_D3DXMatrixMultiply@12:PROC
EXTRN	_D3DXMatrixTranslation@16:PROC
EXTRN	_D3DXMatrixRotationQuaternion@8:PROC
EXTRN	___std_exception_copy:PROC
EXTRN	___std_exception_destroy:PROC
EXTRN	??_Eexception@std@@UAEPAXI@Z:PROC		; std::exception::`vector deleting destructor'
EXTRN	??_Ebad_alloc@std@@UAEPAXI@Z:PROC		; std::bad_alloc::`vector deleting destructor'
EXTRN	??_Ebad_array_new_length@std@@UAEPAXI@Z:PROC	; std::bad_array_new_length::`vector deleting destructor'
EXTRN	?_Xlength_error@std@@YAXPBD@Z:PROC		; std::_Xlength_error
EXTRN	??0CScreen@@QAE@XZ:PROC				; CScreen::CScreen
EXTRN	??1CScreen@@UAE@XZ:PROC				; CScreen::~CScreen
EXTRN	?RenderBar3d@CScreen@@QAEXPBUD3DXVECTOR3@@@Z:PROC ; CScreen::RenderBar3d
EXTRN	?RenderCube@CScreen@@QAEXMMMMMM@Z:PROC		; CScreen::RenderCube
EXTRN	?RenderCube@CScreen@@QAEXMMMMMMUD3DXMATRIX@@@Z:PROC ; CScreen::RenderCube
EXTRN	?RenderSphere@CScreen@@QAEXPBUD3DXMATRIX@@MMMMW4_D3DFILLMODE@@@Z:PROC ; CScreen::RenderSphere
EXTRN	?RenderCylinder@CScreen@@QAEXPBUD3DXMATRIX@@MMMMMW4_D3DFILLMODE@@@Z:PROC ; CScreen::RenderCylinder
EXTRN	?IntersectLineSegments@@YAXABUD3DXVECTOR3@@000AAU1@1@Z:PROC ; IntersectLineSegments
EXTRN	?SetRenderState@CStateManager@@QAEXW4_D3DRENDERSTATETYPE@@K@Z:PROC ; CStateManager::SetRenderState
EXTRN	@__security_check_cookie@4:PROC
EXTRN	__CxxThrowException@8:PROC
EXTRN	___CxxFrameHandler3:PROC
EXTRN	__libm_sse2_sqrt_precise:PROC
EXTRN	_memmove:PROC
EXTRN	__Init_thread_epoch:DWORD
EXTRN	___security_cookie:DWORD
EXTRN	__fltused:DWORD
EXTRN	__tls_array:DWORD
EXTRN	__tls_index:DWORD
;	COMDAT ?ms_singleton@?$CSingleton@VCStateManager@@@@0PAVCStateManager@@A
_BSS	SEGMENT
?ms_singleton@?$CSingleton@VCStateManager@@@@0PAVCStateManager@@A DD 01H DUP (?) ; CSingleton<CStateManager>::ms_singleton
_BSS	ENDS
;	COMDAT ?s@?1??Render@CSphereCollisionInstance@@UAEXW4_D3DFILLMODE@@@Z@4VCScreen@@A
_BSS	SEGMENT
?s@?1??Render@CSphereCollisionInstance@@UAEXW4_D3DFILLMODE@@@Z@4VCScreen@@A DD 01H DUP (?) ; `CSphereCollisionInstance::Render'::`2'::s
_BSS	ENDS
;	COMDAT ?$TSS0@?1??Render@CSphereCollisionInstance@@UAEXW4_D3DFILLMODE@@@Z@4HA
_BSS	SEGMENT
?$TSS0@?1??Render@CSphereCollisionInstance@@UAEXW4_D3DFILLMODE@@@Z@4HA DD 01H DUP (?) ; `CSphereCollisionInstance::Render'::`2'::$TSS0
_BSS	ENDS
;	COMDAT ?s@?1??Render@CPlaneCollisionInstance@@UAEXW4_D3DFILLMODE@@@Z@4VCScreen@@A
_BSS	SEGMENT
?s@?1??Render@CPlaneCollisionInstance@@UAEXW4_D3DFILLMODE@@@Z@4VCScreen@@A DD 01H DUP (?) ; `CPlaneCollisionInstance::Render'::`2'::s
_BSS	ENDS
;	COMDAT ?$TSS0@?1??Render@CPlaneCollisionInstance@@UAEXW4_D3DFILLMODE@@@Z@4HA
_BSS	SEGMENT
?$TSS0@?1??Render@CPlaneCollisionInstance@@UAEXW4_D3DFILLMODE@@@Z@4HA DD 01H DUP (?) ; `CPlaneCollisionInstance::Render'::`2'::$TSS0
_BSS	ENDS
;	COMDAT ?s@?1??Render@CCylinderCollisionInstance@@UAEXW4_D3DFILLMODE@@@Z@4VCScreen@@A
_BSS	SEGMENT
?s@?1??Render@CCylinderCollisionInstance@@UAEXW4_D3DFILLMODE@@@Z@4VCScreen@@A DD 01H DUP (?) ; `CCylinderCollisionInstance::Render'::`2'::s
_BSS	ENDS
;	COMDAT ?$TSS0@?1??Render@CCylinderCollisionInstance@@UAEXW4_D3DFILLMODE@@@Z@4HA
_BSS	SEGMENT
?$TSS0@?1??Render@CCylinderCollisionInstance@@UAEXW4_D3DFILLMODE@@@Z@4HA DD 01H DUP (?) ; `CCylinderCollisionInstance::Render'::`2'::$TSS0
_BSS	ENDS
;	COMDAT ?s@?1??Render@CAABBCollisionInstance@@UAEXW4_D3DFILLMODE@@@Z@4VCScreen@@A
_BSS	SEGMENT
?s@?1??Render@CAABBCollisionInstance@@UAEXW4_D3DFILLMODE@@@Z@4VCScreen@@A DD 01H DUP (?) ; `CAABBCollisionInstance::Render'::`2'::s
_BSS	ENDS
;	COMDAT ?$TSS0@?1??Render@CAABBCollisionInstance@@UAEXW4_D3DFILLMODE@@@Z@4HA
_BSS	SEGMENT
?$TSS0@?1??Render@CAABBCollisionInstance@@UAEXW4_D3DFILLMODE@@@Z@4HA DD 01H DUP (?) ; `CAABBCollisionInstance::Render'::`2'::$TSS0
_BSS	ENDS
;	COMDAT ?s@?1??Render@COBBCollisionInstance@@UAEXW4_D3DFILLMODE@@@Z@4VCScreen@@A
_BSS	SEGMENT
?s@?1??Render@COBBCollisionInstance@@UAEXW4_D3DFILLMODE@@@Z@4VCScreen@@A DD 01H DUP (?) ; `COBBCollisionInstance::Render'::`2'::s
_BSS	ENDS
;	COMDAT ?$TSS0@?1??Render@COBBCollisionInstance@@UAEXW4_D3DFILLMODE@@@Z@4HA
_BSS	SEGMENT
?$TSS0@?1??Render@COBBCollisionInstance@@UAEXW4_D3DFILLMODE@@@Z@4HA DD 01H DUP (?) ; `COBBCollisionInstance::Render'::`2'::$TSS0
_BSS	ENDS
CRT$XCU	SEGMENT
?gs_sci$initializer$@@3P6AXXZA DD FLAT:??__Egs_sci@@YAXXZ ; gs_sci$initializer$
CRT$XCU	ENDS
;	COMDAT __xmm@80000000800000008000000080000000
CONST	SEGMENT
__xmm@80000000800000008000000080000000 DB 00H, 00H, 00H, 080H, 00H, 00H, 00H
	DB	080H, 00H, 00H, 00H, 080H, 00H, 00H, 00H, 080H
CONST	ENDS
;	COMDAT __xmm@7fffffffffffffff7fffffffffffffff
CONST	SEGMENT
__xmm@7fffffffffffffff7fffffffffffffff DB 0ffH, 0ffH, 0ffH, 0ffH, 0ffH, 0ffH
	DB	0ffH, 07fH, 0ffH, 0ffH, 0ffH, 0ffH, 0ffH, 0ffH, 0ffH, 07fH
CONST	ENDS
;	COMDAT __real@bf1a36e2eb1c432d
CONST	SEGMENT
__real@bf1a36e2eb1c432d DQ 0bf1a36e2eb1c432dr	; -0.0001
CONST	ENDS
;	COMDAT __real@40800000
CONST	SEGMENT
__real@40800000 DD 040800000r			; 4
CONST	ENDS
;	COMDAT __real@3f800000
CONST	SEGMENT
__real@3f800000 DD 03f800000r			; 1
CONST	ENDS
;	COMDAT __real@3f1a36e2eb1c432d
CONST	SEGMENT
__real@3f1a36e2eb1c432d DQ 03f1a36e2eb1c432dr	; 0.0001
CONST	ENDS
;	COMDAT __real@3f000000
CONST	SEGMENT
__real@3f000000 DD 03f000000r			; 0.5
CONST	ENDS
;	COMDAT __real@38d1b717
CONST	SEGMENT
__real@38d1b717 DD 038d1b717r			; 0.0001
CONST	ENDS
;	COMDAT __real@00000000
CONST	SEGMENT
__real@00000000 DD 000000000r			; 0
CONST	ENDS
;	COMDAT ??_R1A@?0A@EA@CCylinderCollisionInstance@@8
rdata$r	SEGMENT
??_R1A@?0A@EA@CCylinderCollisionInstance@@8 DD FLAT:??_R0?AVCCylinderCollisionInstance@@@8 ; CCylinderCollisionInstance::`RTTI Base Class Descriptor at (0,-1,0,64)'
	DD	01H
	DD	00H
	DD	0ffffffffH
	DD	00H
	DD	040H
	DD	FLAT:??_R3CCylinderCollisionInstance@@8
rdata$r	ENDS
;	COMDAT ??_R2CCylinderCollisionInstance@@8
rdata$r	SEGMENT
??_R2CCylinderCollisionInstance@@8 DD FLAT:??_R1A@?0A@EA@CCylinderCollisionInstance@@8 ; CCylinderCollisionInstance::`RTTI Base Class Array'
	DD	FLAT:??_R1A@?0A@EA@CBaseCollisionInstance@@8
rdata$r	ENDS
;	COMDAT ??_R3CCylinderCollisionInstance@@8
rdata$r	SEGMENT
??_R3CCylinderCollisionInstance@@8 DD 00H		; CCylinderCollisionInstance::`RTTI Class Hierarchy Descriptor'
	DD	00H
	DD	02H
	DD	FLAT:??_R2CCylinderCollisionInstance@@8
rdata$r	ENDS
;	COMDAT ??_R0?AVCCylinderCollisionInstance@@@8
data$r	SEGMENT
??_R0?AVCCylinderCollisionInstance@@@8 DD FLAT:??_7type_info@@6B@ ; CCylinderCollisionInstance `RTTI Type Descriptor'
	DD	00H
	DB	'.?AVCCylinderCollisionInstance@@', 00H
data$r	ENDS
;	COMDAT ??_R4CCylinderCollisionInstance@@6B@
rdata$r	SEGMENT
??_R4CCylinderCollisionInstance@@6B@ DD 00H		; CCylinderCollisionInstance::`RTTI Complete Object Locator'
	DD	00H
	DD	00H
	DD	FLAT:??_R0?AVCCylinderCollisionInstance@@@8
	DD	FLAT:??_R3CCylinderCollisionInstance@@8
rdata$r	ENDS
;	COMDAT ??_R1A@?0A@EA@COBBCollisionInstance@@8
rdata$r	SEGMENT
??_R1A@?0A@EA@COBBCollisionInstance@@8 DD FLAT:??_R0?AVCOBBCollisionInstance@@@8 ; COBBCollisionInstance::`RTTI Base Class Descriptor at (0,-1,0,64)'
	DD	01H
	DD	00H
	DD	0ffffffffH
	DD	00H
	DD	040H
	DD	FLAT:??_R3COBBCollisionInstance@@8
rdata$r	ENDS
;	COMDAT ??_R2COBBCollisionInstance@@8
rdata$r	SEGMENT
??_R2COBBCollisionInstance@@8 DD FLAT:??_R1A@?0A@EA@COBBCollisionInstance@@8 ; COBBCollisionInstance::`RTTI Base Class Array'
	DD	FLAT:??_R1A@?0A@EA@CBaseCollisionInstance@@8
rdata$r	ENDS
;	COMDAT ??_R3COBBCollisionInstance@@8
rdata$r	SEGMENT
??_R3COBBCollisionInstance@@8 DD 00H			; COBBCollisionInstance::`RTTI Class Hierarchy Descriptor'
	DD	00H
	DD	02H
	DD	FLAT:??_R2COBBCollisionInstance@@8
rdata$r	ENDS
;	COMDAT ??_R0?AVCOBBCollisionInstance@@@8
data$r	SEGMENT
??_R0?AVCOBBCollisionInstance@@@8 DD FLAT:??_7type_info@@6B@ ; COBBCollisionInstance `RTTI Type Descriptor'
	DD	00H
	DB	'.?AVCOBBCollisionInstance@@', 00H
data$r	ENDS
;	COMDAT ??_R4COBBCollisionInstance@@6B@
rdata$r	SEGMENT
??_R4COBBCollisionInstance@@6B@ DD 00H			; COBBCollisionInstance::`RTTI Complete Object Locator'
	DD	00H
	DD	00H
	DD	FLAT:??_R0?AVCOBBCollisionInstance@@@8
	DD	FLAT:??_R3COBBCollisionInstance@@8
rdata$r	ENDS
;	COMDAT ??_R1A@?0A@EA@CAABBCollisionInstance@@8
rdata$r	SEGMENT
??_R1A@?0A@EA@CAABBCollisionInstance@@8 DD FLAT:??_R0?AVCAABBCollisionInstance@@@8 ; CAABBCollisionInstance::`RTTI Base Class Descriptor at (0,-1,0,64)'
	DD	01H
	DD	00H
	DD	0ffffffffH
	DD	00H
	DD	040H
	DD	FLAT:??_R3CAABBCollisionInstance@@8
rdata$r	ENDS
;	COMDAT ??_R2CAABBCollisionInstance@@8
rdata$r	SEGMENT
??_R2CAABBCollisionInstance@@8 DD FLAT:??_R1A@?0A@EA@CAABBCollisionInstance@@8 ; CAABBCollisionInstance::`RTTI Base Class Array'
	DD	FLAT:??_R1A@?0A@EA@CBaseCollisionInstance@@8
rdata$r	ENDS
;	COMDAT ??_R3CAABBCollisionInstance@@8
rdata$r	SEGMENT
??_R3CAABBCollisionInstance@@8 DD 00H			; CAABBCollisionInstance::`RTTI Class Hierarchy Descriptor'
	DD	00H
	DD	02H
	DD	FLAT:??_R2CAABBCollisionInstance@@8
rdata$r	ENDS
;	COMDAT ??_R0?AVCAABBCollisionInstance@@@8
data$r	SEGMENT
??_R0?AVCAABBCollisionInstance@@@8 DD FLAT:??_7type_info@@6B@ ; CAABBCollisionInstance `RTTI Type Descriptor'
	DD	00H
	DB	'.?AVCAABBCollisionInstance@@', 00H
data$r	ENDS
;	COMDAT ??_R4CAABBCollisionInstance@@6B@
rdata$r	SEGMENT
??_R4CAABBCollisionInstance@@6B@ DD 00H			; CAABBCollisionInstance::`RTTI Complete Object Locator'
	DD	00H
	DD	00H
	DD	FLAT:??_R0?AVCAABBCollisionInstance@@@8
	DD	FLAT:??_R3CAABBCollisionInstance@@8
rdata$r	ENDS
;	COMDAT ??_R1A@?0A@EA@CPlaneCollisionInstance@@8
rdata$r	SEGMENT
??_R1A@?0A@EA@CPlaneCollisionInstance@@8 DD FLAT:??_R0?AVCPlaneCollisionInstance@@@8 ; CPlaneCollisionInstance::`RTTI Base Class Descriptor at (0,-1,0,64)'
	DD	01H
	DD	00H
	DD	0ffffffffH
	DD	00H
	DD	040H
	DD	FLAT:??_R3CPlaneCollisionInstance@@8
rdata$r	ENDS
;	COMDAT ??_R2CPlaneCollisionInstance@@8
rdata$r	SEGMENT
??_R2CPlaneCollisionInstance@@8 DD FLAT:??_R1A@?0A@EA@CPlaneCollisionInstance@@8 ; CPlaneCollisionInstance::`RTTI Base Class Array'
	DD	FLAT:??_R1A@?0A@EA@CBaseCollisionInstance@@8
rdata$r	ENDS
;	COMDAT ??_R3CPlaneCollisionInstance@@8
rdata$r	SEGMENT
??_R3CPlaneCollisionInstance@@8 DD 00H			; CPlaneCollisionInstance::`RTTI Class Hierarchy Descriptor'
	DD	00H
	DD	02H
	DD	FLAT:??_R2CPlaneCollisionInstance@@8
rdata$r	ENDS
;	COMDAT ??_R0?AVCPlaneCollisionInstance@@@8
data$r	SEGMENT
??_R0?AVCPlaneCollisionInstance@@@8 DD FLAT:??_7type_info@@6B@ ; CPlaneCollisionInstance `RTTI Type Descriptor'
	DD	00H
	DB	'.?AVCPlaneCollisionInstance@@', 00H
data$r	ENDS
;	COMDAT ??_R4CPlaneCollisionInstance@@6B@
rdata$r	SEGMENT
??_R4CPlaneCollisionInstance@@6B@ DD 00H		; CPlaneCollisionInstance::`RTTI Complete Object Locator'
	DD	00H
	DD	00H
	DD	FLAT:??_R0?AVCPlaneCollisionInstance@@@8
	DD	FLAT:??_R3CPlaneCollisionInstance@@8
rdata$r	ENDS
;	COMDAT ??_R1A@?0A@EA@CSphereCollisionInstance@@8
rdata$r	SEGMENT
??_R1A@?0A@EA@CSphereCollisionInstance@@8 DD FLAT:??_R0?AVCSphereCollisionInstance@@@8 ; CSphereCollisionInstance::`RTTI Base Class Descriptor at (0,-1,0,64)'
	DD	01H
	DD	00H
	DD	0ffffffffH
	DD	00H
	DD	040H
	DD	FLAT:??_R3CSphereCollisionInstance@@8
rdata$r	ENDS
;	COMDAT ??_R2CSphereCollisionInstance@@8
rdata$r	SEGMENT
??_R2CSphereCollisionInstance@@8 DD FLAT:??_R1A@?0A@EA@CSphereCollisionInstance@@8 ; CSphereCollisionInstance::`RTTI Base Class Array'
	DD	FLAT:??_R1A@?0A@EA@CBaseCollisionInstance@@8
rdata$r	ENDS
;	COMDAT ??_R3CSphereCollisionInstance@@8
rdata$r	SEGMENT
??_R3CSphereCollisionInstance@@8 DD 00H			; CSphereCollisionInstance::`RTTI Class Hierarchy Descriptor'
	DD	00H
	DD	02H
	DD	FLAT:??_R2CSphereCollisionInstance@@8
rdata$r	ENDS
;	COMDAT ??_R0?AVCSphereCollisionInstance@@@8
data$r	SEGMENT
??_R0?AVCSphereCollisionInstance@@@8 DD FLAT:??_7type_info@@6B@ ; CSphereCollisionInstance `RTTI Type Descriptor'
	DD	00H
	DB	'.?AVCSphereCollisionInstance@@', 00H
data$r	ENDS
;	COMDAT ??_R4CSphereCollisionInstance@@6B@
rdata$r	SEGMENT
??_R4CSphereCollisionInstance@@6B@ DD 00H		; CSphereCollisionInstance::`RTTI Complete Object Locator'
	DD	00H
	DD	00H
	DD	FLAT:??_R0?AVCSphereCollisionInstance@@@8
	DD	FLAT:??_R3CSphereCollisionInstance@@8
rdata$r	ENDS
;	COMDAT ??_R1A@?0A@EA@CBaseCollisionInstance@@8
rdata$r	SEGMENT
??_R1A@?0A@EA@CBaseCollisionInstance@@8 DD FLAT:??_R0?AVCBaseCollisionInstance@@@8 ; CBaseCollisionInstance::`RTTI Base Class Descriptor at (0,-1,0,64)'
	DD	00H
	DD	00H
	DD	0ffffffffH
	DD	00H
	DD	040H
	DD	FLAT:??_R3CBaseCollisionInstance@@8
rdata$r	ENDS
;	COMDAT ??_R2CBaseCollisionInstance@@8
rdata$r	SEGMENT
??_R2CBaseCollisionInstance@@8 DD FLAT:??_R1A@?0A@EA@CBaseCollisionInstance@@8 ; CBaseCollisionInstance::`RTTI Base Class Array'
rdata$r	ENDS
;	COMDAT ??_R3CBaseCollisionInstance@@8
rdata$r	SEGMENT
??_R3CBaseCollisionInstance@@8 DD 00H			; CBaseCollisionInstance::`RTTI Class Hierarchy Descriptor'
	DD	00H
	DD	01H
	DD	FLAT:??_R2CBaseCollisionInstance@@8
rdata$r	ENDS
;	COMDAT ??_R0?AVCBaseCollisionInstance@@@8
data$r	SEGMENT
??_R0?AVCBaseCollisionInstance@@@8 DD FLAT:??_7type_info@@6B@ ; CBaseCollisionInstance `RTTI Type Descriptor'
	DD	00H
	DB	'.?AVCBaseCollisionInstance@@', 00H
data$r	ENDS
;	COMDAT ??_R4CBaseCollisionInstance@@6B@
rdata$r	SEGMENT
??_R4CBaseCollisionInstance@@6B@ DD 00H			; CBaseCollisionInstance::`RTTI Complete Object Locator'
	DD	00H
	DD	00H
	DD	FLAT:??_R0?AVCBaseCollisionInstance@@@8
	DD	FLAT:??_R3CBaseCollisionInstance@@8
rdata$r	ENDS
;	COMDAT ??_C@_0BA@FOIKENOD@vector?5too?5long@
CONST	SEGMENT
??_C@_0BA@FOIKENOD@vector?5too?5long@ DB 'vector too long', 00H ; `string'
CONST	ENDS
_DATA	SEGMENT
?gs_sci@@3V?$CDynamicPool@VCSphereCollisionInstance@@@@A DD FLAT:??_7?$CDynamicPool@VCSphereCollisionInstance@@@@6B@ ; gs_sci
	DD	00H
	DD	00H
	DD	00H
	DD	00H
	DD	00H
	DD	00H
	DD	00H
	DD	00H
?gs_cci@@3V?$CDynamicPool@VCCylinderCollisionInstance@@@@A DD FLAT:??_7?$CDynamicPool@VCCylinderCollisionInstance@@@@6B@ ; gs_cci
	DD	00H
	DD	00H
	DD	00H
	DD	00H
	DD	00H
	DD	00H
	DD	00H
	DD	00H
?gs_pci@@3V?$CDynamicPool@VCPlaneCollisionInstance@@@@A DD FLAT:??_7?$CDynamicPool@VCPlaneCollisionInstance@@@@6B@ ; gs_pci
	DD	00H
	DD	00H
	DD	00H
	DD	00H
	DD	00H
	DD	00H
	DD	00H
	DD	00H
?gs_aci@@3V?$CDynamicPool@VCAABBCollisionInstance@@@@A DD FLAT:??_7?$CDynamicPool@VCAABBCollisionInstance@@@@6B@ ; gs_aci
	DD	00H
	DD	00H
	DD	00H
	DD	00H
	DD	00H
	DD	00H
	DD	00H
	DD	00H
?gs_oci@@3V?$CDynamicPool@VCOBBCollisionInstance@@@@A DD FLAT:??_7?$CDynamicPool@VCOBBCollisionInstance@@@@6B@ ; gs_oci
	DD	00H
	DD	00H
	DD	00H
	DD	00H
	DD	00H
	DD	00H
	DD	00H
	DD	00H
_DATA	ENDS
;	COMDAT ??_7CCylinderCollisionInstance@@6B@
CONST	SEGMENT
??_7CCylinderCollisionInstance@@6B@ DD FLAT:??_R4CCylinderCollisionInstance@@6B@ ; CCylinderCollisionInstance::`vftable'
	DD	FLAT:?Render@CCylinderCollisionInstance@@UAEXW4_D3DFILLMODE@@@Z
	DD	FLAT:?OnGetCollisionMovementAdjust@CCylinderCollisionInstance@@MBE?AUD3DXVECTOR3@@ABUCDynamicSphereInstance@@@Z
	DD	FLAT:?OnMovementCollisionDynamicSphere@CCylinderCollisionInstance@@MBE_NABUCDynamicSphereInstance@@@Z
	DD	FLAT:?OnCollisionDynamicSphere@CCylinderCollisionInstance@@MBE_NABUCDynamicSphereInstance@@@Z
	DD	FLAT:?OnDestroy@CCylinderCollisionInstance@@MAEXXZ
CONST	ENDS
;	COMDAT ??_7COBBCollisionInstance@@6B@
CONST	SEGMENT
??_7COBBCollisionInstance@@6B@ DD FLAT:??_R4COBBCollisionInstance@@6B@ ; COBBCollisionInstance::`vftable'
	DD	FLAT:?Render@COBBCollisionInstance@@UAEXW4_D3DFILLMODE@@@Z
	DD	FLAT:?OnGetCollisionMovementAdjust@COBBCollisionInstance@@MBE?AUD3DXVECTOR3@@ABUCDynamicSphereInstance@@@Z
	DD	FLAT:?OnMovementCollisionDynamicSphere@COBBCollisionInstance@@MBE_NABUCDynamicSphereInstance@@@Z
	DD	FLAT:?OnCollisionDynamicSphere@COBBCollisionInstance@@MBE_NABUCDynamicSphereInstance@@@Z
	DD	FLAT:?OnDestroy@COBBCollisionInstance@@MAEXXZ
CONST	ENDS
;	COMDAT ??_7CAABBCollisionInstance@@6B@
CONST	SEGMENT
??_7CAABBCollisionInstance@@6B@ DD FLAT:??_R4CAABBCollisionInstance@@6B@ ; CAABBCollisionInstance::`vftable'
	DD	FLAT:?Render@CAABBCollisionInstance@@UAEXW4_D3DFILLMODE@@@Z
	DD	FLAT:?OnGetCollisionMovementAdjust@CAABBCollisionInstance@@MBE?AUD3DXVECTOR3@@ABUCDynamicSphereInstance@@@Z
	DD	FLAT:?OnMovementCollisionDynamicSphere@CAABBCollisionInstance@@MBE_NABUCDynamicSphereInstance@@@Z
	DD	FLAT:?OnCollisionDynamicSphere@CAABBCollisionInstance@@MBE_NABUCDynamicSphereInstance@@@Z
	DD	FLAT:?OnDestroy@CAABBCollisionInstance@@MAEXXZ
CONST	ENDS
;	COMDAT ??_7CPlaneCollisionInstance@@6B@
CONST	SEGMENT
??_7CPlaneCollisionInstance@@6B@ DD FLAT:??_R4CPlaneCollisionInstance@@6B@ ; CPlaneCollisionInstance::`vftable'
	DD	FLAT:?Render@CPlaneCollisionInstance@@UAEXW4_D3DFILLMODE@@@Z
	DD	FLAT:?OnGetCollisionMovementAdjust@CPlaneCollisionInstance@@MBE?AUD3DXVECTOR3@@ABUCDynamicSphereInstance@@@Z
	DD	FLAT:?OnMovementCollisionDynamicSphere@CPlaneCollisionInstance@@MBE_NABUCDynamicSphereInstance@@@Z
	DD	FLAT:?OnCollisionDynamicSphere@CPlaneCollisionInstance@@MBE_NABUCDynamicSphereInstance@@@Z
	DD	FLAT:?OnDestroy@CPlaneCollisionInstance@@MAEXXZ
CONST	ENDS
;	COMDAT ??_7CSphereCollisionInstance@@6B@
CONST	SEGMENT
??_7CSphereCollisionInstance@@6B@ DD FLAT:??_R4CSphereCollisionInstance@@6B@ ; CSphereCollisionInstance::`vftable'
	DD	FLAT:?Render@CSphereCollisionInstance@@UAEXW4_D3DFILLMODE@@@Z
	DD	FLAT:?OnGetCollisionMovementAdjust@CSphereCollisionInstance@@MBE?AUD3DXVECTOR3@@ABUCDynamicSphereInstance@@@Z
	DD	FLAT:?OnMovementCollisionDynamicSphere@CSphereCollisionInstance@@MBE_NABUCDynamicSphereInstance@@@Z
	DD	FLAT:?OnCollisionDynamicSphere@CSphereCollisionInstance@@MBE_NABUCDynamicSphereInstance@@@Z
	DD	FLAT:?OnDestroy@CSphereCollisionInstance@@MAEXXZ
CONST	ENDS
;	COMDAT ??_7CBaseCollisionInstance@@6B@
CONST	SEGMENT
??_7CBaseCollisionInstance@@6B@ DD FLAT:??_R4CBaseCollisionInstance@@6B@ ; CBaseCollisionInstance::`vftable'
	DD	FLAT:__purecall
	DD	FLAT:__purecall
	DD	FLAT:__purecall
	DD	FLAT:__purecall
	DD	FLAT:__purecall
CONST	ENDS
;	COMDAT ??_R1A@?0A@EA@bad_array_new_length@std@@8
rdata$r	SEGMENT
??_R1A@?0A@EA@bad_array_new_length@std@@8 DD FLAT:??_R0?AVbad_array_new_length@std@@@8 ; std::bad_array_new_length::`RTTI Base Class Descriptor at (0,-1,0,64)'
	DD	02H
	DD	00H
	DD	0ffffffffH
	DD	00H
	DD	040H
	DD	FLAT:??_R3bad_array_new_length@std@@8
rdata$r	ENDS
;	COMDAT ??_R2bad_array_new_length@std@@8
rdata$r	SEGMENT
??_R2bad_array_new_length@std@@8 DD FLAT:??_R1A@?0A@EA@bad_array_new_length@std@@8 ; std::bad_array_new_length::`RTTI Base Class Array'
	DD	FLAT:??_R1A@?0A@EA@bad_alloc@std@@8
	DD	FLAT:??_R1A@?0A@EA@exception@std@@8
rdata$r	ENDS
;	COMDAT ??_R3bad_array_new_length@std@@8
rdata$r	SEGMENT
??_R3bad_array_new_length@std@@8 DD 00H			; std::bad_array_new_length::`RTTI Class Hierarchy Descriptor'
	DD	00H
	DD	03H
	DD	FLAT:??_R2bad_array_new_length@std@@8
rdata$r	ENDS
;	COMDAT ??_R4bad_array_new_length@std@@6B@
rdata$r	SEGMENT
??_R4bad_array_new_length@std@@6B@ DD 00H		; std::bad_array_new_length::`RTTI Complete Object Locator'
	DD	00H
	DD	00H
	DD	FLAT:??_R0?AVbad_array_new_length@std@@@8
	DD	FLAT:??_R3bad_array_new_length@std@@8
rdata$r	ENDS
;	COMDAT ??_R1A@?0A@EA@bad_alloc@std@@8
rdata$r	SEGMENT
??_R1A@?0A@EA@bad_alloc@std@@8 DD FLAT:??_R0?AVbad_alloc@std@@@8 ; std::bad_alloc::`RTTI Base Class Descriptor at (0,-1,0,64)'
	DD	01H
	DD	00H
	DD	0ffffffffH
	DD	00H
	DD	040H
	DD	FLAT:??_R3bad_alloc@std@@8
rdata$r	ENDS
;	COMDAT ??_R2bad_alloc@std@@8
rdata$r	SEGMENT
??_R2bad_alloc@std@@8 DD FLAT:??_R1A@?0A@EA@bad_alloc@std@@8 ; std::bad_alloc::`RTTI Base Class Array'
	DD	FLAT:??_R1A@?0A@EA@exception@std@@8
rdata$r	ENDS
;	COMDAT ??_R3bad_alloc@std@@8
rdata$r	SEGMENT
??_R3bad_alloc@std@@8 DD 00H				; std::bad_alloc::`RTTI Class Hierarchy Descriptor'
	DD	00H
	DD	02H
	DD	FLAT:??_R2bad_alloc@std@@8
rdata$r	ENDS
;	COMDAT ??_R4bad_alloc@std@@6B@
rdata$r	SEGMENT
??_R4bad_alloc@std@@6B@ DD 00H				; std::bad_alloc::`RTTI Complete Object Locator'
	DD	00H
	DD	00H
	DD	FLAT:??_R0?AVbad_alloc@std@@@8
	DD	FLAT:??_R3bad_alloc@std@@8
rdata$r	ENDS
;	COMDAT ??_R1A@?0A@EA@exception@std@@8
rdata$r	SEGMENT
??_R1A@?0A@EA@exception@std@@8 DD FLAT:??_R0?AVexception@std@@@8 ; std::exception::`RTTI Base Class Descriptor at (0,-1,0,64)'
	DD	00H
	DD	00H
	DD	0ffffffffH
	DD	00H
	DD	040H
	DD	FLAT:??_R3exception@std@@8
rdata$r	ENDS
;	COMDAT ??_R2exception@std@@8
rdata$r	SEGMENT
??_R2exception@std@@8 DD FLAT:??_R1A@?0A@EA@exception@std@@8 ; std::exception::`RTTI Base Class Array'
rdata$r	ENDS
;	COMDAT ??_R3exception@std@@8
rdata$r	SEGMENT
??_R3exception@std@@8 DD 00H				; std::exception::`RTTI Class Hierarchy Descriptor'
	DD	00H
	DD	01H
	DD	FLAT:??_R2exception@std@@8
rdata$r	ENDS
;	COMDAT ??_R4exception@std@@6B@
rdata$r	SEGMENT
??_R4exception@std@@6B@ DD 00H				; std::exception::`RTTI Complete Object Locator'
	DD	00H
	DD	00H
	DD	FLAT:??_R0?AVexception@std@@@8
	DD	FLAT:??_R3exception@std@@8
rdata$r	ENDS
;	COMDAT __CT??_R0?AVexception@std@@@8??0exception@std@@QAE@ABV01@@Z12
xdata$x	SEGMENT
__CT??_R0?AVexception@std@@@8??0exception@std@@QAE@ABV01@@Z12 DD 00H
	DD	FLAT:??_R0?AVexception@std@@@8
	DD	00H
	DD	0ffffffffH
	ORG $+4
	DD	0cH
	DD	FLAT:??0exception@std@@QAE@ABV01@@Z
xdata$x	ENDS
;	COMDAT ??_R0?AVexception@std@@@8
data$r	SEGMENT
??_R0?AVexception@std@@@8 DD FLAT:??_7type_info@@6B@	; std::exception `RTTI Type Descriptor'
	DD	00H
	DB	'.?AVexception@std@@', 00H
data$r	ENDS
;	COMDAT __CT??_R0?AVbad_alloc@std@@@8??0bad_alloc@std@@QAE@ABV01@@Z12
xdata$x	SEGMENT
__CT??_R0?AVbad_alloc@std@@@8??0bad_alloc@std@@QAE@ABV01@@Z12 DD 010H
	DD	FLAT:??_R0?AVbad_alloc@std@@@8
	DD	00H
	DD	0ffffffffH
	ORG $+4
	DD	0cH
	DD	FLAT:??0bad_alloc@std@@QAE@ABV01@@Z
xdata$x	ENDS
;	COMDAT ??_R0?AVbad_alloc@std@@@8
data$r	SEGMENT
??_R0?AVbad_alloc@std@@@8 DD FLAT:??_7type_info@@6B@	; std::bad_alloc `RTTI Type Descriptor'
	DD	00H
	DB	'.?AVbad_alloc@std@@', 00H
data$r	ENDS
;	COMDAT __CT??_R0?AVbad_array_new_length@std@@@8??0bad_array_new_length@std@@QAE@ABV01@@Z12
xdata$x	SEGMENT
__CT??_R0?AVbad_array_new_length@std@@@8??0bad_array_new_length@std@@QAE@ABV01@@Z12 DD 00H
	DD	FLAT:??_R0?AVbad_array_new_length@std@@@8
	DD	00H
	DD	0ffffffffH
	ORG $+4
	DD	0cH
	DD	FLAT:??0bad_array_new_length@std@@QAE@ABV01@@Z
xdata$x	ENDS
;	COMDAT ??_R0?AVbad_array_new_length@std@@@8
data$r	SEGMENT
??_R0?AVbad_array_new_length@std@@@8 DD FLAT:??_7type_info@@6B@ ; std::bad_array_new_length `RTTI Type Descriptor'
	DD	00H
	DB	'.?AVbad_array_new_length@std@@', 00H
data$r	ENDS
;	COMDAT __CTA3?AVbad_array_new_length@std@@
xdata$x	SEGMENT
__CTA3?AVbad_array_new_length@std@@ DD 03H
	DD	FLAT:__CT??_R0?AVbad_array_new_length@std@@@8??0bad_array_new_length@std@@QAE@ABV01@@Z12
	DD	FLAT:__CT??_R0?AVbad_alloc@std@@@8??0bad_alloc@std@@QAE@ABV01@@Z12
	DD	FLAT:__CT??_R0?AVexception@std@@@8??0exception@std@@QAE@ABV01@@Z12
xdata$x	ENDS
;	COMDAT __TI3?AVbad_array_new_length@std@@
xdata$x	SEGMENT
__TI3?AVbad_array_new_length@std@@ DD 00H
	DD	FLAT:??1bad_array_new_length@std@@UAE@XZ
	DD	00H
	DD	FLAT:__CTA3?AVbad_array_new_length@std@@
xdata$x	ENDS
;	COMDAT ??_C@_0BF@KINCDENJ@bad?5array?5new?5length@
CONST	SEGMENT
??_C@_0BF@KINCDENJ@bad?5array?5new?5length@ DB 'bad array new length', 00H ; `string'
CONST	ENDS
;	COMDAT ??_7bad_array_new_length@std@@6B@
CONST	SEGMENT
??_7bad_array_new_length@std@@6B@ DD FLAT:??_R4bad_array_new_length@std@@6B@ ; std::bad_array_new_length::`vftable'
	DD	FLAT:??_Ebad_array_new_length@std@@UAEPAXI@Z
	DD	FLAT:?what@exception@std@@UBEPBDXZ
CONST	ENDS
;	COMDAT ??_7bad_alloc@std@@6B@
CONST	SEGMENT
??_7bad_alloc@std@@6B@ DD FLAT:??_R4bad_alloc@std@@6B@	; std::bad_alloc::`vftable'
	DD	FLAT:??_Ebad_alloc@std@@UAEPAXI@Z
	DD	FLAT:?what@exception@std@@UBEPBDXZ
CONST	ENDS
;	COMDAT ??_C@_0BC@EOODALEL@Unknown?5exception@
CONST	SEGMENT
??_C@_0BC@EOODALEL@Unknown?5exception@ DB 'Unknown exception', 00H ; `string'
CONST	ENDS
;	COMDAT ??_7exception@std@@6B@
CONST	SEGMENT
??_7exception@std@@6B@ DD FLAT:??_R4exception@std@@6B@	; std::exception::`vftable'
	DD	FLAT:??_Eexception@std@@UAEPAXI@Z
	DD	FLAT:?what@exception@std@@UBEPBDXZ
CONST	ENDS
;	COMDAT xdata$x
xdata$x	SEGMENT
__unwindtable$?Render@CCylinderCollisionInstance@@UAEXW4_D3DFILLMODE@@@Z DD 0ffffffffH
	DD	FLAT:__unwindfunclet$?Render@CCylinderCollisionInstance@@UAEXW4_D3DFILLMODE@@@Z$0
__ehfuncinfo$?Render@CCylinderCollisionInstance@@UAEXW4_D3DFILLMODE@@@Z DD 019930522H
	DD	01H
	DD	FLAT:__unwindtable$?Render@CCylinderCollisionInstance@@UAEXW4_D3DFILLMODE@@@Z
	DD	2 DUP(00H)
	DD	2 DUP(00H)
	DD	00H
	DD	01H
xdata$x	ENDS
;	COMDAT xdata$x
xdata$x	SEGMENT
__unwindtable$?Render@COBBCollisionInstance@@UAEXW4_D3DFILLMODE@@@Z DD 0ffffffffH
	DD	FLAT:__unwindfunclet$?Render@COBBCollisionInstance@@UAEXW4_D3DFILLMODE@@@Z$0
__ehfuncinfo$?Render@COBBCollisionInstance@@UAEXW4_D3DFILLMODE@@@Z DD 019930522H
	DD	01H
	DD	FLAT:__unwindtable$?Render@COBBCollisionInstance@@UAEXW4_D3DFILLMODE@@@Z
	DD	2 DUP(00H)
	DD	2 DUP(00H)
	DD	00H
	DD	01H
xdata$x	ENDS
;	COMDAT xdata$x
xdata$x	SEGMENT
__unwindtable$?Render@CAABBCollisionInstance@@UAEXW4_D3DFILLMODE@@@Z DD 0ffffffffH
	DD	FLAT:__unwindfunclet$?Render@CAABBCollisionInstance@@UAEXW4_D3DFILLMODE@@@Z$0
__ehfuncinfo$?Render@CAABBCollisionInstance@@UAEXW4_D3DFILLMODE@@@Z DD 019930522H
	DD	01H
	DD	FLAT:__unwindtable$?Render@CAABBCollisionInstance@@UAEXW4_D3DFILLMODE@@@Z
	DD	2 DUP(00H)
	DD	2 DUP(00H)
	DD	00H
	DD	01H
xdata$x	ENDS
;	COMDAT xdata$x
xdata$x	SEGMENT
__unwindtable$?Render@CPlaneCollisionInstance@@UAEXW4_D3DFILLMODE@@@Z DD 0ffffffffH
	DD	FLAT:__unwindfunclet$?Render@CPlaneCollisionInstance@@UAEXW4_D3DFILLMODE@@@Z$0
__ehfuncinfo$?Render@CPlaneCollisionInstance@@UAEXW4_D3DFILLMODE@@@Z DD 019930522H
	DD	01H
	DD	FLAT:__unwindtable$?Render@CPlaneCollisionInstance@@UAEXW4_D3DFILLMODE@@@Z
	DD	2 DUP(00H)
	DD	2 DUP(00H)
	DD	00H
	DD	01H
xdata$x	ENDS
;	COMDAT xdata$x
xdata$x	SEGMENT
__unwindtable$?Render@CSphereCollisionInstance@@UAEXW4_D3DFILLMODE@@@Z DD 0ffffffffH
	DD	FLAT:__unwindfunclet$?Render@CSphereCollisionInstance@@UAEXW4_D3DFILLMODE@@@Z$0
__ehfuncinfo$?Render@CSphereCollisionInstance@@UAEXW4_D3DFILLMODE@@@Z DD 019930522H
	DD	01H
	DD	FLAT:__unwindtable$?Render@CSphereCollisionInstance@@UAEXW4_D3DFILLMODE@@@Z
	DD	2 DUP(00H)
	DD	2 DUP(00H)
	DD	00H
	DD	01H
xdata$x	ENDS
CRT$XCU	SEGMENT
?gs_cci$initializer$@@3P6AXXZA DD FLAT:??__Egs_cci@@YAXXZ ; gs_cci$initializer$
CRT$XCU	ENDS
CRT$XCU	SEGMENT
?gs_pci$initializer$@@3P6AXXZA DD FLAT:??__Egs_pci@@YAXXZ ; gs_pci$initializer$
CRT$XCU	ENDS
CRT$XCU	SEGMENT
?gs_aci$initializer$@@3P6AXXZA DD FLAT:??__Egs_aci@@YAXXZ ; gs_aci$initializer$
CRT$XCU	ENDS
CRT$XCU	SEGMENT
?gs_oci$initializer$@@3P6AXXZA DD FLAT:??__Egs_oci@@YAXXZ ; gs_oci$initializer$
CRT$XCU	ENDS
; Function compile flags: /Ogtp
; File C:\Program Files (x86)\Microsoft Visual Studio\2019\Community\VC\Tools\MSVC\14.27.29110\include\xutility
;	COMDAT ??$_Copy_memmove@PAPAVCSphereCollisionInstance@@PAPAV1@@std@@YAPAPAVCSphereCollisionInstance@@PAPAV1@00@Z
_TEXT	SEGMENT
__First$ = 8						; size = 4
__Last$ = 12						; size = 4
__Dest$ = 16						; size = 4
??$_Copy_memmove@PAPAVCSphereCollisionInstance@@PAPAV1@@std@@YAPAPAVCSphereCollisionInstance@@PAPAV1@00@Z PROC ; std::_Copy_memmove<CSphereCollisionInstance * *,CSphereCollisionInstance * *>, COMDAT

; 4113 : _OutIt _Copy_memmove(_InIt _First, _InIt _Last, _OutIt _Dest) {

  00000	55		 push	 ebp
  00001	8b ec		 mov	 ebp, esp

; 4114 :     const char* const _First_ch = const_cast<const char*>(reinterpret_cast<const volatile char*>(_First));
; 4115 :     const char* const _Last_ch  = const_cast<const char*>(reinterpret_cast<const volatile char*>(_Last));
; 4116 :     char* const _Dest_ch        = const_cast<char*>(reinterpret_cast<volatile char*>(_Dest));
; 4117 :     const auto _Count           = static_cast<size_t>(_Last_ch - _First_ch);

  00003	8b 45 08	 mov	 eax, DWORD PTR __First$[ebp]
  00006	56		 push	 esi

; 4118 :     _CSTD memmove(_Dest_ch, _First_ch, _Count);

  00007	8b 75 10	 mov	 esi, DWORD PTR __Dest$[ebp]
  0000a	57		 push	 edi
  0000b	8b 7d 0c	 mov	 edi, DWORD PTR __Last$[ebp]
  0000e	2b f8		 sub	 edi, eax
  00010	57		 push	 edi
  00011	50		 push	 eax
  00012	56		 push	 esi
  00013	e8 00 00 00 00	 call	 _memmove
  00018	83 c4 0c	 add	 esp, 12			; 0000000cH

; 4119 :     return reinterpret_cast<_OutIt>(_Dest_ch + _Count);

  0001b	8d 04 37	 lea	 eax, DWORD PTR [edi+esi]
  0001e	5f		 pop	 edi
  0001f	5e		 pop	 esi

; 4120 : }

  00020	5d		 pop	 ebp
  00021	c3		 ret	 0
??$_Copy_memmove@PAPAVCSphereCollisionInstance@@PAPAV1@@std@@YAPAPAVCSphereCollisionInstance@@PAPAV1@00@Z ENDP ; std::_Copy_memmove<CSphereCollisionInstance * *,CSphereCollisionInstance * *>
_TEXT	ENDS
; Function compile flags: /Ogtp
; File C:\Program Files (x86)\Microsoft Visual Studio\2019\Community\VC\Tools\MSVC\14.27.29110\include\xutility
;	COMDAT ??$_Copy_memmove@PAPAVCCylinderCollisionInstance@@PAPAV1@@std@@YAPAPAVCCylinderCollisionInstance@@PAPAV1@00@Z
_TEXT	SEGMENT
__First$ = 8						; size = 4
__Last$ = 12						; size = 4
__Dest$ = 16						; size = 4
??$_Copy_memmove@PAPAVCCylinderCollisionInstance@@PAPAV1@@std@@YAPAPAVCCylinderCollisionInstance@@PAPAV1@00@Z PROC ; std::_Copy_memmove<CCylinderCollisionInstance * *,CCylinderCollisionInstance * *>, COMDAT

; 4113 : _OutIt _Copy_memmove(_InIt _First, _InIt _Last, _OutIt _Dest) {

  00000	55		 push	 ebp
  00001	8b ec		 mov	 ebp, esp

; 4114 :     const char* const _First_ch = const_cast<const char*>(reinterpret_cast<const volatile char*>(_First));
; 4115 :     const char* const _Last_ch  = const_cast<const char*>(reinterpret_cast<const volatile char*>(_Last));
; 4116 :     char* const _Dest_ch        = const_cast<char*>(reinterpret_cast<volatile char*>(_Dest));
; 4117 :     const auto _Count           = static_cast<size_t>(_Last_ch - _First_ch);

  00003	8b 45 08	 mov	 eax, DWORD PTR __First$[ebp]
  00006	56		 push	 esi

; 4118 :     _CSTD memmove(_Dest_ch, _First_ch, _Count);

  00007	8b 75 10	 mov	 esi, DWORD PTR __Dest$[ebp]
  0000a	57		 push	 edi
  0000b	8b 7d 0c	 mov	 edi, DWORD PTR __Last$[ebp]
  0000e	2b f8		 sub	 edi, eax
  00010	57		 push	 edi
  00011	50		 push	 eax
  00012	56		 push	 esi
  00013	e8 00 00 00 00	 call	 _memmove
  00018	83 c4 0c	 add	 esp, 12			; 0000000cH

; 4119 :     return reinterpret_cast<_OutIt>(_Dest_ch + _Count);

  0001b	8d 04 37	 lea	 eax, DWORD PTR [edi+esi]
  0001e	5f		 pop	 edi
  0001f	5e		 pop	 esi

; 4120 : }

  00020	5d		 pop	 ebp
  00021	c3		 ret	 0
??$_Copy_memmove@PAPAVCCylinderCollisionInstance@@PAPAV1@@std@@YAPAPAVCCylinderCollisionInstance@@PAPAV1@00@Z ENDP ; std::_Copy_memmove<CCylinderCollisionInstance * *,CCylinderCollisionInstance * *>
_TEXT	ENDS
; Function compile flags: /Ogtp
; File C:\Program Files (x86)\Microsoft Visual Studio\2019\Community\VC\Tools\MSVC\14.27.29110\include\xutility
;	COMDAT ??$_Copy_memmove@PAPAVCPlaneCollisionInstance@@PAPAV1@@std@@YAPAPAVCPlaneCollisionInstance@@PAPAV1@00@Z
_TEXT	SEGMENT
__First$ = 8						; size = 4
__Last$ = 12						; size = 4
__Dest$ = 16						; size = 4
??$_Copy_memmove@PAPAVCPlaneCollisionInstance@@PAPAV1@@std@@YAPAPAVCPlaneCollisionInstance@@PAPAV1@00@Z PROC ; std::_Copy_memmove<CPlaneCollisionInstance * *,CPlaneCollisionInstance * *>, COMDAT

; 4113 : _OutIt _Copy_memmove(_InIt _First, _InIt _Last, _OutIt _Dest) {

  00000	55		 push	 ebp
  00001	8b ec		 mov	 ebp, esp

; 4114 :     const char* const _First_ch = const_cast<const char*>(reinterpret_cast<const volatile char*>(_First));
; 4115 :     const char* const _Last_ch  = const_cast<const char*>(reinterpret_cast<const volatile char*>(_Last));
; 4116 :     char* const _Dest_ch        = const_cast<char*>(reinterpret_cast<volatile char*>(_Dest));
; 4117 :     const auto _Count           = static_cast<size_t>(_Last_ch - _First_ch);

  00003	8b 45 08	 mov	 eax, DWORD PTR __First$[ebp]
  00006	56		 push	 esi

; 4118 :     _CSTD memmove(_Dest_ch, _First_ch, _Count);

  00007	8b 75 10	 mov	 esi, DWORD PTR __Dest$[ebp]
  0000a	57		 push	 edi
  0000b	8b 7d 0c	 mov	 edi, DWORD PTR __Last$[ebp]
  0000e	2b f8		 sub	 edi, eax
  00010	57		 push	 edi
  00011	50		 push	 eax
  00012	56		 push	 esi
  00013	e8 00 00 00 00	 call	 _memmove
  00018	83 c4 0c	 add	 esp, 12			; 0000000cH

; 4119 :     return reinterpret_cast<_OutIt>(_Dest_ch + _Count);

  0001b	8d 04 37	 lea	 eax, DWORD PTR [edi+esi]
  0001e	5f		 pop	 edi
  0001f	5e		 pop	 esi

; 4120 : }

  00020	5d		 pop	 ebp
  00021	c3		 ret	 0
??$_Copy_memmove@PAPAVCPlaneCollisionInstance@@PAPAV1@@std@@YAPAPAVCPlaneCollisionInstance@@PAPAV1@00@Z ENDP ; std::_Copy_memmove<CPlaneCollisionInstance * *,CPlaneCollisionInstance * *>
_TEXT	ENDS
; Function compile flags: /Ogtp
; File C:\Program Files (x86)\Microsoft Visual Studio\2019\Community\VC\Tools\MSVC\14.27.29110\include\xutility
;	COMDAT ??$_Copy_memmove@PAPAVCAABBCollisionInstance@@PAPAV1@@std@@YAPAPAVCAABBCollisionInstance@@PAPAV1@00@Z
_TEXT	SEGMENT
__First$ = 8						; size = 4
__Last$ = 12						; size = 4
__Dest$ = 16						; size = 4
??$_Copy_memmove@PAPAVCAABBCollisionInstance@@PAPAV1@@std@@YAPAPAVCAABBCollisionInstance@@PAPAV1@00@Z PROC ; std::_Copy_memmove<CAABBCollisionInstance * *,CAABBCollisionInstance * *>, COMDAT

; 4113 : _OutIt _Copy_memmove(_InIt _First, _InIt _Last, _OutIt _Dest) {

  00000	55		 push	 ebp
  00001	8b ec		 mov	 ebp, esp

; 4114 :     const char* const _First_ch = const_cast<const char*>(reinterpret_cast<const volatile char*>(_First));
; 4115 :     const char* const _Last_ch  = const_cast<const char*>(reinterpret_cast<const volatile char*>(_Last));
; 4116 :     char* const _Dest_ch        = const_cast<char*>(reinterpret_cast<volatile char*>(_Dest));
; 4117 :     const auto _Count           = static_cast<size_t>(_Last_ch - _First_ch);

  00003	8b 45 08	 mov	 eax, DWORD PTR __First$[ebp]
  00006	56		 push	 esi

; 4118 :     _CSTD memmove(_Dest_ch, _First_ch, _Count);

  00007	8b 75 10	 mov	 esi, DWORD PTR __Dest$[ebp]
  0000a	57		 push	 edi
  0000b	8b 7d 0c	 mov	 edi, DWORD PTR __Last$[ebp]
  0000e	2b f8		 sub	 edi, eax
  00010	57		 push	 edi
  00011	50		 push	 eax
  00012	56		 push	 esi
  00013	e8 00 00 00 00	 call	 _memmove
  00018	83 c4 0c	 add	 esp, 12			; 0000000cH

; 4119 :     return reinterpret_cast<_OutIt>(_Dest_ch + _Count);

  0001b	8d 04 37	 lea	 eax, DWORD PTR [edi+esi]
  0001e	5f		 pop	 edi
  0001f	5e		 pop	 esi

; 4120 : }

  00020	5d		 pop	 ebp
  00021	c3		 ret	 0
??$_Copy_memmove@PAPAVCAABBCollisionInstance@@PAPAV1@@std@@YAPAPAVCAABBCollisionInstance@@PAPAV1@00@Z ENDP ; std::_Copy_memmove<CAABBCollisionInstance * *,CAABBCollisionInstance * *>
_TEXT	ENDS
; Function compile flags: /Ogtp
; File C:\Program Files (x86)\Microsoft Visual Studio\2019\Community\VC\Tools\MSVC\14.27.29110\include\xutility
;	COMDAT ??$_Copy_memmove@PAPAVCOBBCollisionInstance@@PAPAV1@@std@@YAPAPAVCOBBCollisionInstance@@PAPAV1@00@Z
_TEXT	SEGMENT
__First$ = 8						; size = 4
__Last$ = 12						; size = 4
__Dest$ = 16						; size = 4
??$_Copy_memmove@PAPAVCOBBCollisionInstance@@PAPAV1@@std@@YAPAPAVCOBBCollisionInstance@@PAPAV1@00@Z PROC ; std::_Copy_memmove<COBBCollisionInstance * *,COBBCollisionInstance * *>, COMDAT

; 4113 : _OutIt _Copy_memmove(_InIt _First, _InIt _Last, _OutIt _Dest) {

  00000	55		 push	 ebp
  00001	8b ec		 mov	 ebp, esp

; 4114 :     const char* const _First_ch = const_cast<const char*>(reinterpret_cast<const volatile char*>(_First));
; 4115 :     const char* const _Last_ch  = const_cast<const char*>(reinterpret_cast<const volatile char*>(_Last));
; 4116 :     char* const _Dest_ch        = const_cast<char*>(reinterpret_cast<volatile char*>(_Dest));
; 4117 :     const auto _Count           = static_cast<size_t>(_Last_ch - _First_ch);

  00003	8b 45 08	 mov	 eax, DWORD PTR __First$[ebp]
  00006	56		 push	 esi

; 4118 :     _CSTD memmove(_Dest_ch, _First_ch, _Count);

  00007	8b 75 10	 mov	 esi, DWORD PTR __Dest$[ebp]
  0000a	57		 push	 edi
  0000b	8b 7d 0c	 mov	 edi, DWORD PTR __Last$[ebp]
  0000e	2b f8		 sub	 edi, eax
  00010	57		 push	 edi
  00011	50		 push	 eax
  00012	56		 push	 esi
  00013	e8 00 00 00 00	 call	 _memmove
  00018	83 c4 0c	 add	 esp, 12			; 0000000cH

; 4119 :     return reinterpret_cast<_OutIt>(_Dest_ch + _Count);

  0001b	8d 04 37	 lea	 eax, DWORD PTR [edi+esi]
  0001e	5f		 pop	 edi
  0001f	5e		 pop	 esi

; 4120 : }

  00020	5d		 pop	 ebp
  00021	c3		 ret	 0
??$_Copy_memmove@PAPAVCOBBCollisionInstance@@PAPAV1@@std@@YAPAPAVCOBBCollisionInstance@@PAPAV1@00@Z ENDP ; std::_Copy_memmove<COBBCollisionInstance * *,COBBCollisionInstance * *>
_TEXT	ENDS
; Function compile flags: /Ogtp
; File C:\Program Files (x86)\Microsoft Visual Studio\2019\Community\VC\Tools\MSVC\14.27.29110\include\xmemory
;	COMDAT ??$_Uninitialized_move@PAPAVCSphereCollisionInstance@@V?$allocator@PAVCSphereCollisionInstance@@@std@@@std@@YAPAPAVCSphereCollisionInstance@@QAPAV1@0PAPAV1@AAV?$allocator@PAVCSphereCollisionInstance@@@0@@Z
_TEXT	SEGMENT
__First$ = 8						; size = 4
__Last$ = 12						; size = 4
__Dest$ = 16						; size = 4
__Al$ = 20						; size = 4
??$_Uninitialized_move@PAPAVCSphereCollisionInstance@@V?$allocator@PAVCSphereCollisionInstance@@@std@@@std@@YAPAPAVCSphereCollisionInstance@@QAPAV1@0PAPAV1@AAV?$allocator@PAVCSphereCollisionInstance@@@0@@Z PROC ; std::_Uninitialized_move<CSphereCollisionInstance * *,std::allocator<CSphereCollisionInstance *> >, COMDAT

; 1647 :     const _InIt _First, const _InIt _Last, _Alloc_ptr_t<_Alloc> _Dest, _Alloc& _Al) {

  00000	55		 push	 ebp
  00001	8b ec		 mov	 ebp, esp
  00003	53		 push	 ebx

; 1648 :     // move [_First, _Last) to raw _Dest, using _Al
; 1649 :     // note: only called internally from elsewhere in the STL
; 1650 :     using _Ptrval     = typename _Alloc::value_type*;
; 1651 :     auto _UFirst      = _Get_unwrapped(_First);
; 1652 :     const auto _ULast = _Get_unwrapped(_Last);
; 1653 :     if constexpr (conjunction_v<bool_constant<_Ptr_move_cat<decltype(_UFirst), _Ptrval>::_Really_trivial>,
; 1654 :                       _Uses_default_construct<_Alloc, _Ptrval, decltype(_STD move(*_UFirst))>>) {
; 1655 :         _Copy_memmove(_UFirst, _ULast, _Unfancy(_Dest));

  00004	8b 5d 10	 mov	 ebx, DWORD PTR __Dest$[ebp]
  00007	57		 push	 edi
  00008	8b 7d 0c	 mov	 edi, DWORD PTR __Last$[ebp]
  0000b	53		 push	 ebx
  0000c	57		 push	 edi
  0000d	ff 75 08	 push	 DWORD PTR __First$[ebp]
  00010	e8 00 00 00 00	 call	 ??$_Copy_memmove@PAPAVCSphereCollisionInstance@@PAPAV1@@std@@YAPAPAVCSphereCollisionInstance@@PAPAV1@00@Z ; std::_Copy_memmove<CSphereCollisionInstance * *,CSphereCollisionInstance * *>

; 1656 :         return _Dest + (_ULast - _UFirst);

  00015	2b 7d 08	 sub	 edi, DWORD PTR __First$[ebp]
  00018	83 c4 0c	 add	 esp, 12			; 0000000cH
  0001b	c1 ff 02	 sar	 edi, 2
  0001e	8d 04 bb	 lea	 eax, DWORD PTR [ebx+edi*4]
  00021	5f		 pop	 edi
  00022	5b		 pop	 ebx

; 1657 :     } else {
; 1658 :         _Uninitialized_backout_al<_Alloc> _Backout{_Dest, _Al};
; 1659 :         for (; _UFirst != _ULast; ++_UFirst) {
; 1660 :             _Backout._Emplace_back(_STD move(*_UFirst));
; 1661 :         }
; 1662 : 
; 1663 :         return _Backout._Release();
; 1664 :     }
; 1665 : }

  00023	5d		 pop	 ebp
  00024	c3		 ret	 0
??$_Uninitialized_move@PAPAVCSphereCollisionInstance@@V?$allocator@PAVCSphereCollisionInstance@@@std@@@std@@YAPAPAVCSphereCollisionInstance@@QAPAV1@0PAPAV1@AAV?$allocator@PAVCSphereCollisionInstance@@@0@@Z ENDP ; std::_Uninitialized_move<CSphereCollisionInstance * *,std::allocator<CSphereCollisionInstance *> >
_TEXT	ENDS
; Function compile flags: /Ogtp
; File C:\Program Files (x86)\Microsoft Visual Studio\2019\Community\VC\Tools\MSVC\14.27.29110\include\xmemory
;	COMDAT ??$_Uninitialized_move@PAPAVCCylinderCollisionInstance@@V?$allocator@PAVCCylinderCollisionInstance@@@std@@@std@@YAPAPAVCCylinderCollisionInstance@@QAPAV1@0PAPAV1@AAV?$allocator@PAVCCylinderCollisionInstance@@@0@@Z
_TEXT	SEGMENT
__First$ = 8						; size = 4
__Last$ = 12						; size = 4
__Dest$ = 16						; size = 4
__Al$ = 20						; size = 4
??$_Uninitialized_move@PAPAVCCylinderCollisionInstance@@V?$allocator@PAVCCylinderCollisionInstance@@@std@@@std@@YAPAPAVCCylinderCollisionInstance@@QAPAV1@0PAPAV1@AAV?$allocator@PAVCCylinderCollisionInstance@@@0@@Z PROC ; std::_Uninitialized_move<CCylinderCollisionInstance * *,std::allocator<CCylinderCollisionInstance *> >, COMDAT

; 1647 :     const _InIt _First, const _InIt _Last, _Alloc_ptr_t<_Alloc> _Dest, _Alloc& _Al) {

  00000	55		 push	 ebp
  00001	8b ec		 mov	 ebp, esp
  00003	53		 push	 ebx

; 1648 :     // move [_First, _Last) to raw _Dest, using _Al
; 1649 :     // note: only called internally from elsewhere in the STL
; 1650 :     using _Ptrval     = typename _Alloc::value_type*;
; 1651 :     auto _UFirst      = _Get_unwrapped(_First);
; 1652 :     const auto _ULast = _Get_unwrapped(_Last);
; 1653 :     if constexpr (conjunction_v<bool_constant<_Ptr_move_cat<decltype(_UFirst), _Ptrval>::_Really_trivial>,
; 1654 :                       _Uses_default_construct<_Alloc, _Ptrval, decltype(_STD move(*_UFirst))>>) {
; 1655 :         _Copy_memmove(_UFirst, _ULast, _Unfancy(_Dest));

  00004	8b 5d 10	 mov	 ebx, DWORD PTR __Dest$[ebp]
  00007	57		 push	 edi
  00008	8b 7d 0c	 mov	 edi, DWORD PTR __Last$[ebp]
  0000b	53		 push	 ebx
  0000c	57		 push	 edi
  0000d	ff 75 08	 push	 DWORD PTR __First$[ebp]
  00010	e8 00 00 00 00	 call	 ??$_Copy_memmove@PAPAVCCylinderCollisionInstance@@PAPAV1@@std@@YAPAPAVCCylinderCollisionInstance@@PAPAV1@00@Z ; std::_Copy_memmove<CCylinderCollisionInstance * *,CCylinderCollisionInstance * *>

; 1656 :         return _Dest + (_ULast - _UFirst);

  00015	2b 7d 08	 sub	 edi, DWORD PTR __First$[ebp]
  00018	83 c4 0c	 add	 esp, 12			; 0000000cH
  0001b	c1 ff 02	 sar	 edi, 2
  0001e	8d 04 bb	 lea	 eax, DWORD PTR [ebx+edi*4]
  00021	5f		 pop	 edi
  00022	5b		 pop	 ebx

; 1657 :     } else {
; 1658 :         _Uninitialized_backout_al<_Alloc> _Backout{_Dest, _Al};
; 1659 :         for (; _UFirst != _ULast; ++_UFirst) {
; 1660 :             _Backout._Emplace_back(_STD move(*_UFirst));
; 1661 :         }
; 1662 : 
; 1663 :         return _Backout._Release();
; 1664 :     }
; 1665 : }

  00023	5d		 pop	 ebp
  00024	c3		 ret	 0
??$_Uninitialized_move@PAPAVCCylinderCollisionInstance@@V?$allocator@PAVCCylinderCollisionInstance@@@std@@@std@@YAPAPAVCCylinderCollisionInstance@@QAPAV1@0PAPAV1@AAV?$allocator@PAVCCylinderCollisionInstance@@@0@@Z ENDP ; std::_Uninitialized_move<CCylinderCollisionInstance * *,std::allocator<CCylinderCollisionInstance *> >
_TEXT	ENDS
; Function compile flags: /Ogtp
; File C:\Program Files (x86)\Microsoft Visual Studio\2019\Community\VC\Tools\MSVC\14.27.29110\include\xmemory
;	COMDAT ??$_Uninitialized_move@PAPAVCPlaneCollisionInstance@@V?$allocator@PAVCPlaneCollisionInstance@@@std@@@std@@YAPAPAVCPlaneCollisionInstance@@QAPAV1@0PAPAV1@AAV?$allocator@PAVCPlaneCollisionInstance@@@0@@Z
_TEXT	SEGMENT
__First$ = 8						; size = 4
__Last$ = 12						; size = 4
__Dest$ = 16						; size = 4
__Al$ = 20						; size = 4
??$_Uninitialized_move@PAPAVCPlaneCollisionInstance@@V?$allocator@PAVCPlaneCollisionInstance@@@std@@@std@@YAPAPAVCPlaneCollisionInstance@@QAPAV1@0PAPAV1@AAV?$allocator@PAVCPlaneCollisionInstance@@@0@@Z PROC ; std::_Uninitialized_move<CPlaneCollisionInstance * *,std::allocator<CPlaneCollisionInstance *> >, COMDAT

; 1647 :     const _InIt _First, const _InIt _Last, _Alloc_ptr_t<_Alloc> _Dest, _Alloc& _Al) {

  00000	55		 push	 ebp
  00001	8b ec		 mov	 ebp, esp
  00003	53		 push	 ebx

; 1648 :     // move [_First, _Last) to raw _Dest, using _Al
; 1649 :     // note: only called internally from elsewhere in the STL
; 1650 :     using _Ptrval     = typename _Alloc::value_type*;
; 1651 :     auto _UFirst      = _Get_unwrapped(_First);
; 1652 :     const auto _ULast = _Get_unwrapped(_Last);
; 1653 :     if constexpr (conjunction_v<bool_constant<_Ptr_move_cat<decltype(_UFirst), _Ptrval>::_Really_trivial>,
; 1654 :                       _Uses_default_construct<_Alloc, _Ptrval, decltype(_STD move(*_UFirst))>>) {
; 1655 :         _Copy_memmove(_UFirst, _ULast, _Unfancy(_Dest));

  00004	8b 5d 10	 mov	 ebx, DWORD PTR __Dest$[ebp]
  00007	57		 push	 edi
  00008	8b 7d 0c	 mov	 edi, DWORD PTR __Last$[ebp]
  0000b	53		 push	 ebx
  0000c	57		 push	 edi
  0000d	ff 75 08	 push	 DWORD PTR __First$[ebp]
  00010	e8 00 00 00 00	 call	 ??$_Copy_memmove@PAPAVCPlaneCollisionInstance@@PAPAV1@@std@@YAPAPAVCPlaneCollisionInstance@@PAPAV1@00@Z ; std::_Copy_memmove<CPlaneCollisionInstance * *,CPlaneCollisionInstance * *>

; 1656 :         return _Dest + (_ULast - _UFirst);

  00015	2b 7d 08	 sub	 edi, DWORD PTR __First$[ebp]
  00018	83 c4 0c	 add	 esp, 12			; 0000000cH
  0001b	c1 ff 02	 sar	 edi, 2
  0001e	8d 04 bb	 lea	 eax, DWORD PTR [ebx+edi*4]
  00021	5f		 pop	 edi
  00022	5b		 pop	 ebx

; 1657 :     } else {
; 1658 :         _Uninitialized_backout_al<_Alloc> _Backout{_Dest, _Al};
; 1659 :         for (; _UFirst != _ULast; ++_UFirst) {
; 1660 :             _Backout._Emplace_back(_STD move(*_UFirst));
; 1661 :         }
; 1662 : 
; 1663 :         return _Backout._Release();
; 1664 :     }
; 1665 : }

  00023	5d		 pop	 ebp
  00024	c3		 ret	 0
??$_Uninitialized_move@PAPAVCPlaneCollisionInstance@@V?$allocator@PAVCPlaneCollisionInstance@@@std@@@std@@YAPAPAVCPlaneCollisionInstance@@QAPAV1@0PAPAV1@AAV?$allocator@PAVCPlaneCollisionInstance@@@0@@Z ENDP ; std::_Uninitialized_move<CPlaneCollisionInstance * *,std::allocator<CPlaneCollisionInstance *> >
_TEXT	ENDS
; Function compile flags: /Ogtp
; File C:\Program Files (x86)\Microsoft Visual Studio\2019\Community\VC\Tools\MSVC\14.27.29110\include\xmemory
;	COMDAT ??$_Uninitialized_move@PAPAVCAABBCollisionInstance@@V?$allocator@PAVCAABBCollisionInstance@@@std@@@std@@YAPAPAVCAABBCollisionInstance@@QAPAV1@0PAPAV1@AAV?$allocator@PAVCAABBCollisionInstance@@@0@@Z
_TEXT	SEGMENT
__First$ = 8						; size = 4
__Last$ = 12						; size = 4
__Dest$ = 16						; size = 4
__Al$ = 20						; size = 4
??$_Uninitialized_move@PAPAVCAABBCollisionInstance@@V?$allocator@PAVCAABBCollisionInstance@@@std@@@std@@YAPAPAVCAABBCollisionInstance@@QAPAV1@0PAPAV1@AAV?$allocator@PAVCAABBCollisionInstance@@@0@@Z PROC ; std::_Uninitialized_move<CAABBCollisionInstance * *,std::allocator<CAABBCollisionInstance *> >, COMDAT

; 1647 :     const _InIt _First, const _InIt _Last, _Alloc_ptr_t<_Alloc> _Dest, _Alloc& _Al) {

  00000	55		 push	 ebp
  00001	8b ec		 mov	 ebp, esp
  00003	53		 push	 ebx

; 1648 :     // move [_First, _Last) to raw _Dest, using _Al
; 1649 :     // note: only called internally from elsewhere in the STL
; 1650 :     using _Ptrval     = typename _Alloc::value_type*;
; 1651 :     auto _UFirst      = _Get_unwrapped(_First);
; 1652 :     const auto _ULast = _Get_unwrapped(_Last);
; 1653 :     if constexpr (conjunction_v<bool_constant<_Ptr_move_cat<decltype(_UFirst), _Ptrval>::_Really_trivial>,
; 1654 :                       _Uses_default_construct<_Alloc, _Ptrval, decltype(_STD move(*_UFirst))>>) {
; 1655 :         _Copy_memmove(_UFirst, _ULast, _Unfancy(_Dest));

  00004	8b 5d 10	 mov	 ebx, DWORD PTR __Dest$[ebp]
  00007	57		 push	 edi
  00008	8b 7d 0c	 mov	 edi, DWORD PTR __Last$[ebp]
  0000b	53		 push	 ebx
  0000c	57		 push	 edi
  0000d	ff 75 08	 push	 DWORD PTR __First$[ebp]
  00010	e8 00 00 00 00	 call	 ??$_Copy_memmove@PAPAVCAABBCollisionInstance@@PAPAV1@@std@@YAPAPAVCAABBCollisionInstance@@PAPAV1@00@Z ; std::_Copy_memmove<CAABBCollisionInstance * *,CAABBCollisionInstance * *>

; 1656 :         return _Dest + (_ULast - _UFirst);

  00015	2b 7d 08	 sub	 edi, DWORD PTR __First$[ebp]
  00018	83 c4 0c	 add	 esp, 12			; 0000000cH
  0001b	c1 ff 02	 sar	 edi, 2
  0001e	8d 04 bb	 lea	 eax, DWORD PTR [ebx+edi*4]
  00021	5f		 pop	 edi
  00022	5b		 pop	 ebx

; 1657 :     } else {
; 1658 :         _Uninitialized_backout_al<_Alloc> _Backout{_Dest, _Al};
; 1659 :         for (; _UFirst != _ULast; ++_UFirst) {
; 1660 :             _Backout._Emplace_back(_STD move(*_UFirst));
; 1661 :         }
; 1662 : 
; 1663 :         return _Backout._Release();
; 1664 :     }
; 1665 : }

  00023	5d		 pop	 ebp
  00024	c3		 ret	 0
??$_Uninitialized_move@PAPAVCAABBCollisionInstance@@V?$allocator@PAVCAABBCollisionInstance@@@std@@@std@@YAPAPAVCAABBCollisionInstance@@QAPAV1@0PAPAV1@AAV?$allocator@PAVCAABBCollisionInstance@@@0@@Z ENDP ; std::_Uninitialized_move<CAABBCollisionInstance * *,std::allocator<CAABBCollisionInstance *> >
_TEXT	ENDS
; Function compile flags: /Ogtp
; File C:\Program Files (x86)\Microsoft Visual Studio\2019\Community\VC\Tools\MSVC\14.27.29110\include\xmemory
;	COMDAT ??$_Uninitialized_move@PAPAVCOBBCollisionInstance@@V?$allocator@PAVCOBBCollisionInstance@@@std@@@std@@YAPAPAVCOBBCollisionInstance@@QAPAV1@0PAPAV1@AAV?$allocator@PAVCOBBCollisionInstance@@@0@@Z
_TEXT	SEGMENT
__First$ = 8						; size = 4
__Last$ = 12						; size = 4
__Dest$ = 16						; size = 4
__Al$ = 20						; size = 4
??$_Uninitialized_move@PAPAVCOBBCollisionInstance@@V?$allocator@PAVCOBBCollisionInstance@@@std@@@std@@YAPAPAVCOBBCollisionInstance@@QAPAV1@0PAPAV1@AAV?$allocator@PAVCOBBCollisionInstance@@@0@@Z PROC ; std::_Uninitialized_move<COBBCollisionInstance * *,std::allocator<COBBCollisionInstance *> >, COMDAT

; 1647 :     const _InIt _First, const _InIt _Last, _Alloc_ptr_t<_Alloc> _Dest, _Alloc& _Al) {

  00000	55		 push	 ebp
  00001	8b ec		 mov	 ebp, esp
  00003	53		 push	 ebx

; 1648 :     // move [_First, _Last) to raw _Dest, using _Al
; 1649 :     // note: only called internally from elsewhere in the STL
; 1650 :     using _Ptrval     = typename _Alloc::value_type*;
; 1651 :     auto _UFirst      = _Get_unwrapped(_First);
; 1652 :     const auto _ULast = _Get_unwrapped(_Last);
; 1653 :     if constexpr (conjunction_v<bool_constant<_Ptr_move_cat<decltype(_UFirst), _Ptrval>::_Really_trivial>,
; 1654 :                       _Uses_default_construct<_Alloc, _Ptrval, decltype(_STD move(*_UFirst))>>) {
; 1655 :         _Copy_memmove(_UFirst, _ULast, _Unfancy(_Dest));

  00004	8b 5d 10	 mov	 ebx, DWORD PTR __Dest$[ebp]
  00007	57		 push	 edi
  00008	8b 7d 0c	 mov	 edi, DWORD PTR __Last$[ebp]
  0000b	53		 push	 ebx
  0000c	57		 push	 edi
  0000d	ff 75 08	 push	 DWORD PTR __First$[ebp]
  00010	e8 00 00 00 00	 call	 ??$_Copy_memmove@PAPAVCOBBCollisionInstance@@PAPAV1@@std@@YAPAPAVCOBBCollisionInstance@@PAPAV1@00@Z ; std::_Copy_memmove<COBBCollisionInstance * *,COBBCollisionInstance * *>

; 1656 :         return _Dest + (_ULast - _UFirst);

  00015	2b 7d 08	 sub	 edi, DWORD PTR __First$[ebp]
  00018	83 c4 0c	 add	 esp, 12			; 0000000cH
  0001b	c1 ff 02	 sar	 edi, 2
  0001e	8d 04 bb	 lea	 eax, DWORD PTR [ebx+edi*4]
  00021	5f		 pop	 edi
  00022	5b		 pop	 ebx

; 1657 :     } else {
; 1658 :         _Uninitialized_backout_al<_Alloc> _Backout{_Dest, _Al};
; 1659 :         for (; _UFirst != _ULast; ++_UFirst) {
; 1660 :             _Backout._Emplace_back(_STD move(*_UFirst));
; 1661 :         }
; 1662 : 
; 1663 :         return _Backout._Release();
; 1664 :     }
; 1665 : }

  00023	5d		 pop	 ebp
  00024	c3		 ret	 0
??$_Uninitialized_move@PAPAVCOBBCollisionInstance@@V?$allocator@PAVCOBBCollisionInstance@@@std@@@std@@YAPAPAVCOBBCollisionInstance@@QAPAV1@0PAPAV1@AAV?$allocator@PAVCOBBCollisionInstance@@@0@@Z ENDP ; std::_Uninitialized_move<COBBCollisionInstance * *,std::allocator<COBBCollisionInstance *> >
_TEXT	ENDS
; Function compile flags: /Ogtp
; File C:\Program Files (x86)\Microsoft Visual Studio\2019\Community\VC\Tools\MSVC\14.27.29110\include\xmemory
;	COMDAT ??$_Destroy_range@V?$allocator@PAVCSphereCollisionInstance@@@std@@@std@@YAXPAPAVCSphereCollisionInstance@@QAPAV1@AAV?$allocator@PAVCSphereCollisionInstance@@@0@@Z
_TEXT	SEGMENT
__First$ = 8						; size = 4
__Last$ = 12						; size = 4
__Al$ = 16						; size = 4
??$_Destroy_range@V?$allocator@PAVCSphereCollisionInstance@@@std@@@std@@YAXPAPAVCSphereCollisionInstance@@QAPAV1@AAV?$allocator@PAVCSphereCollisionInstance@@@0@@Z PROC ; std::_Destroy_range<std::allocator<CSphereCollisionInstance *> >, COMDAT

; 956  :     // note that this is an optimization for debug mode codegen; in release mode the BE removes all of this
; 957  :     using _Ty = typename _Alloc::value_type;
; 958  :     if _CONSTEXPR_IF (!conjunction_v<is_trivially_destructible<_Ty>, _Uses_default_destroy<_Alloc, _Ty*>>) {
; 959  :         for (; _First != _Last; ++_First) {
; 960  :             allocator_traits<_Alloc>::destroy(_Al, _Unfancy(_First));
; 961  :         }
; 962  :     }
; 963  : }

  00000	c2 00 00	 ret	 0
??$_Destroy_range@V?$allocator@PAVCSphereCollisionInstance@@@std@@@std@@YAXPAPAVCSphereCollisionInstance@@QAPAV1@AAV?$allocator@PAVCSphereCollisionInstance@@@0@@Z ENDP ; std::_Destroy_range<std::allocator<CSphereCollisionInstance *> >
_TEXT	ENDS
; Function compile flags: /Ogtp
; File C:\Program Files (x86)\Microsoft Visual Studio\2019\Community\VC\Tools\MSVC\14.27.29110\include\xmemory
;	COMDAT ??$_Destroy_range@V?$allocator@PAVCCylinderCollisionInstance@@@std@@@std@@YAXPAPAVCCylinderCollisionInstance@@QAPAV1@AAV?$allocator@PAVCCylinderCollisionInstance@@@0@@Z
_TEXT	SEGMENT
__First$ = 8						; size = 4
__Last$ = 12						; size = 4
__Al$ = 16						; size = 4
??$_Destroy_range@V?$allocator@PAVCCylinderCollisionInstance@@@std@@@std@@YAXPAPAVCCylinderCollisionInstance@@QAPAV1@AAV?$allocator@PAVCCylinderCollisionInstance@@@0@@Z PROC ; std::_Destroy_range<std::allocator<CCylinderCollisionInstance *> >, COMDAT

; 956  :     // note that this is an optimization for debug mode codegen; in release mode the BE removes all of this
; 957  :     using _Ty = typename _Alloc::value_type;
; 958  :     if _CONSTEXPR_IF (!conjunction_v<is_trivially_destructible<_Ty>, _Uses_default_destroy<_Alloc, _Ty*>>) {
; 959  :         for (; _First != _Last; ++_First) {
; 960  :             allocator_traits<_Alloc>::destroy(_Al, _Unfancy(_First));
; 961  :         }
; 962  :     }
; 963  : }

  00000	c2 00 00	 ret	 0
??$_Destroy_range@V?$allocator@PAVCCylinderCollisionInstance@@@std@@@std@@YAXPAPAVCCylinderCollisionInstance@@QAPAV1@AAV?$allocator@PAVCCylinderCollisionInstance@@@0@@Z ENDP ; std::_Destroy_range<std::allocator<CCylinderCollisionInstance *> >
_TEXT	ENDS
; Function compile flags: /Ogtp
; File C:\Program Files (x86)\Microsoft Visual Studio\2019\Community\VC\Tools\MSVC\14.27.29110\include\xmemory
;	COMDAT ??$_Destroy_range@V?$allocator@PAVCPlaneCollisionInstance@@@std@@@std@@YAXPAPAVCPlaneCollisionInstance@@QAPAV1@AAV?$allocator@PAVCPlaneCollisionInstance@@@0@@Z
_TEXT	SEGMENT
__First$ = 8						; size = 4
__Last$ = 12						; size = 4
__Al$ = 16						; size = 4
??$_Destroy_range@V?$allocator@PAVCPlaneCollisionInstance@@@std@@@std@@YAXPAPAVCPlaneCollisionInstance@@QAPAV1@AAV?$allocator@PAVCPlaneCollisionInstance@@@0@@Z PROC ; std::_Destroy_range<std::allocator<CPlaneCollisionInstance *> >, COMDAT

; 956  :     // note that this is an optimization for debug mode codegen; in release mode the BE removes all of this
; 957  :     using _Ty = typename _Alloc::value_type;
; 958  :     if _CONSTEXPR_IF (!conjunction_v<is_trivially_destructible<_Ty>, _Uses_default_destroy<_Alloc, _Ty*>>) {
; 959  :         for (; _First != _Last; ++_First) {
; 960  :             allocator_traits<_Alloc>::destroy(_Al, _Unfancy(_First));
; 961  :         }
; 962  :     }
; 963  : }

  00000	c2 00 00	 ret	 0
??$_Destroy_range@V?$allocator@PAVCPlaneCollisionInstance@@@std@@@std@@YAXPAPAVCPlaneCollisionInstance@@QAPAV1@AAV?$allocator@PAVCPlaneCollisionInstance@@@0@@Z ENDP ; std::_Destroy_range<std::allocator<CPlaneCollisionInstance *> >
_TEXT	ENDS
; Function compile flags: /Ogtp
; File C:\Program Files (x86)\Microsoft Visual Studio\2019\Community\VC\Tools\MSVC\14.27.29110\include\xmemory
;	COMDAT ??$_Destroy_range@V?$allocator@PAVCAABBCollisionInstance@@@std@@@std@@YAXPAPAVCAABBCollisionInstance@@QAPAV1@AAV?$allocator@PAVCAABBCollisionInstance@@@0@@Z
_TEXT	SEGMENT
__First$ = 8						; size = 4
__Last$ = 12						; size = 4
__Al$ = 16						; size = 4
??$_Destroy_range@V?$allocator@PAVCAABBCollisionInstance@@@std@@@std@@YAXPAPAVCAABBCollisionInstance@@QAPAV1@AAV?$allocator@PAVCAABBCollisionInstance@@@0@@Z PROC ; std::_Destroy_range<std::allocator<CAABBCollisionInstance *> >, COMDAT

; 956  :     // note that this is an optimization for debug mode codegen; in release mode the BE removes all of this
; 957  :     using _Ty = typename _Alloc::value_type;
; 958  :     if _CONSTEXPR_IF (!conjunction_v<is_trivially_destructible<_Ty>, _Uses_default_destroy<_Alloc, _Ty*>>) {
; 959  :         for (; _First != _Last; ++_First) {
; 960  :             allocator_traits<_Alloc>::destroy(_Al, _Unfancy(_First));
; 961  :         }
; 962  :     }
; 963  : }

  00000	c2 00 00	 ret	 0
??$_Destroy_range@V?$allocator@PAVCAABBCollisionInstance@@@std@@@std@@YAXPAPAVCAABBCollisionInstance@@QAPAV1@AAV?$allocator@PAVCAABBCollisionInstance@@@0@@Z ENDP ; std::_Destroy_range<std::allocator<CAABBCollisionInstance *> >
_TEXT	ENDS
; Function compile flags: /Ogtp
; File C:\Program Files (x86)\Microsoft Visual Studio\2019\Community\VC\Tools\MSVC\14.27.29110\include\xmemory
;	COMDAT ??$_Destroy_range@V?$allocator@PAVCOBBCollisionInstance@@@std@@@std@@YAXPAPAVCOBBCollisionInstance@@QAPAV1@AAV?$allocator@PAVCOBBCollisionInstance@@@0@@Z
_TEXT	SEGMENT
__First$ = 8						; size = 4
__Last$ = 12						; size = 4
__Al$ = 16						; size = 4
??$_Destroy_range@V?$allocator@PAVCOBBCollisionInstance@@@std@@@std@@YAXPAPAVCOBBCollisionInstance@@QAPAV1@AAV?$allocator@PAVCOBBCollisionInstance@@@0@@Z PROC ; std::_Destroy_range<std::allocator<COBBCollisionInstance *> >, COMDAT

; 956  :     // note that this is an optimization for debug mode codegen; in release mode the BE removes all of this
; 957  :     using _Ty = typename _Alloc::value_type;
; 958  :     if _CONSTEXPR_IF (!conjunction_v<is_trivially_destructible<_Ty>, _Uses_default_destroy<_Alloc, _Ty*>>) {
; 959  :         for (; _First != _Last; ++_First) {
; 960  :             allocator_traits<_Alloc>::destroy(_Al, _Unfancy(_First));
; 961  :         }
; 962  :     }
; 963  : }

  00000	c2 00 00	 ret	 0
??$_Destroy_range@V?$allocator@PAVCOBBCollisionInstance@@@std@@@std@@YAXPAPAVCOBBCollisionInstance@@QAPAV1@AAV?$allocator@PAVCOBBCollisionInstance@@@0@@Z ENDP ; std::_Destroy_range<std::allocator<COBBCollisionInstance *> >
_TEXT	ENDS
; Function compile flags: /Ogtp
; File C:\Program Files (x86)\Microsoft Visual Studio\2019\Community\VC\Tools\MSVC\14.27.29110\include\vector
; File C:\Program Files (x86)\Microsoft Visual Studio\2019\Community\VC\Tools\MSVC\14.27.29110\include\xmemory
; File C:\Program Files (x86)\Microsoft Visual Studio\2019\Community\VC\Tools\MSVC\14.27.29110\include\vector
; File C:\Program Files (x86)\Microsoft Visual Studio\2019\Community\VC\Tools\MSVC\14.27.29110\include\xmemory
; File C:\Program Files (x86)\Microsoft Visual Studio\2019\Community\VC\Tools\MSVC\14.27.29110\include\vector
; File C:\Program Files (x86)\Microsoft Visual Studio\2019\Community\VC\Tools\MSVC\14.27.29110\include\xmemory
; File C:\Program Files (x86)\Microsoft Visual Studio\2019\Community\VC\Tools\MSVC\14.27.29110\include\vector
; File C:\Program Files (x86)\Microsoft Visual Studio\2019\Community\VC\Tools\MSVC\14.27.29110\include\xmemory
; File C:\Program Files (x86)\Microsoft Visual Studio\2019\Community\VC\Tools\MSVC\14.27.29110\include\vector
; File C:\Program Files (x86)\Microsoft Visual Studio\2019\Community\VC\Tools\MSVC\14.27.29110\include\xmemory
; File C:\Program Files (x86)\Microsoft Visual Studio\2019\Community\VC\Tools\MSVC\14.27.29110\include\vector
;	COMDAT ??$_Emplace_reallocate@ABQAVCSphereCollisionInstance@@@?$vector@PAVCSphereCollisionInstance@@V?$allocator@PAVCSphereCollisionInstance@@@std@@@std@@QAEPAPAVCSphereCollisionInstance@@QAPAV2@ABQAV2@@Z
_TEXT	SEGMENT
tv436 = -12						; size = 4
__Newsize$1$ = -8					; size = 4
tv435 = -4						; size = 4
__Whereptr$ = 8						; size = 4
_<_Val_0>$ = 12						; size = 4
??$_Emplace_reallocate@ABQAVCSphereCollisionInstance@@@?$vector@PAVCSphereCollisionInstance@@V?$allocator@PAVCSphereCollisionInstance@@@std@@@std@@QAEPAPAVCSphereCollisionInstance@@QAPAV2@ABQAV2@@Z PROC ; std::vector<CSphereCollisionInstance *,std::allocator<CSphereCollisionInstance *> >::_Emplace_reallocate<CSphereCollisionInstance * const &>, COMDAT
; _this$ = ecx

; 725  :     pointer _Emplace_reallocate(const pointer _Whereptr, _Valty&&... _Val) {

  00000	55		 push	 ebp
  00001	8b ec		 mov	 ebp, esp
  00003	83 ec 0c	 sub	 esp, 12			; 0000000cH
  00006	53		 push	 ebx

; 726  :         // reallocate and insert by perfectly forwarding _Val at _Whereptr
; 727  :         _Alty& _Al        = _Getal();
; 728  :         auto& _My_data    = _Mypair._Myval2;
; 729  :         pointer& _Myfirst = _My_data._Myfirst;
; 730  :         pointer& _Mylast  = _My_data._Mylast;
; 731  : 
; 732  :         _STL_INTERNAL_CHECK(_Mylast == _My_data._Myend); // check that we have no unused capacity
; 733  : 
; 734  :         const auto _Whereoff = static_cast<size_type>(_Whereptr - _Myfirst);

  00007	8b 5d 08	 mov	 ebx, DWORD PTR __Whereptr$[ebp]
  0000a	56		 push	 esi
  0000b	8b f1		 mov	 esi, ecx
  0000d	57		 push	 edi
  0000e	8b 16		 mov	 edx, DWORD PTR [esi]
  00010	2b da		 sub	 ebx, edx

; 735  :         const auto _Oldsize  = static_cast<size_type>(_Mylast - _Myfirst);

  00012	8b 46 04	 mov	 eax, DWORD PTR [esi+4]
  00015	2b c2		 sub	 eax, edx
  00017	c1 fb 02	 sar	 ebx, 2
  0001a	c1 f8 02	 sar	 eax, 2

; 736  : 
; 737  :         if (_Oldsize == max_size()) {

  0001d	3d ff ff ff 3f	 cmp	 eax, 1073741823		; 3fffffffH
  00022	0f 84 be 00 00
	00		 je	 $LN39@Emplace_re

; 1494 :         return static_cast<size_type>(_My_data._Myend - _My_data._Myfirst);

  00028	8b 4e 08	 mov	 ecx, DWORD PTR [esi+8]

; 739  :         }
; 740  : 
; 741  :         const size_type _Newsize     = _Oldsize + 1;

  0002b	8d 78 01	 lea	 edi, DWORD PTR [eax+1]

; 1494 :         return static_cast<size_type>(_My_data._Myend - _My_data._Myfirst);

  0002e	2b ca		 sub	 ecx, edx

; 739  :         }
; 740  : 
; 741  :         const size_type _Newsize     = _Oldsize + 1;

  00030	89 7d f8	 mov	 DWORD PTR __Newsize$1$[ebp], edi

; 1494 :         return static_cast<size_type>(_My_data._Myend - _My_data._Myfirst);

  00033	c1 f9 02	 sar	 ecx, 2

; 1619 :         if (_Oldcapacity > max_size() - _Oldcapacity / 2) {

  00036	b8 ff ff ff 3f	 mov	 eax, 1073741823		; 3fffffffH
  0003b	8b d1		 mov	 edx, ecx
  0003d	d1 ea		 shr	 edx, 1
  0003f	2b c2		 sub	 eax, edx
  00041	3b c8		 cmp	 ecx, eax
  00043	76 04		 jbe	 SHORT $LN12@Emplace_re

; 1620 :             return _Newsize; // geometric growth would overflow

  00045	8b c7		 mov	 eax, edi
  00047	eb 08		 jmp	 SHORT $LN13@Emplace_re
$LN12@Emplace_re:

; 1621 :         }
; 1622 : 
; 1623 :         const size_type _Geometric = _Oldcapacity + _Oldcapacity / 2;

  00049	8d 04 0a	 lea	 eax, DWORD PTR [edx+ecx]

; 1624 : 
; 1625 :         if (_Geometric < _Newsize) {

  0004c	3b c7		 cmp	 eax, edi
  0004e	0f 42 c7	 cmovb	 eax, edi
$LN13@Emplace_re:
; File C:\Program Files (x86)\Microsoft Visual Studio\2019\Community\VC\Tools\MSVC\14.27.29110\include\xmemory

; 60   :         if (_Count > _Max_possible) {

  00051	3d ff ff ff 3f	 cmp	 eax, 1073741823		; 3fffffffH
  00056	0f 87 8f 00 00
	00		 ja	 $LN40@Emplace_re

; 62   :         }
; 63   :     }
; 64   : 
; 65   :     return _Count * _Ty_size;

  0005c	c1 e0 02	 shl	 eax, 2

; 807  :         return static_cast<_Ty*>(_Allocate<_New_alignof<_Ty>>(_Get_size_of_n<sizeof(_Ty)>(_Count)));

  0005f	50		 push	 eax

; 65   :     return _Count * _Ty_size;

  00060	89 45 f4	 mov	 DWORD PTR tv436[ebp], eax

; 807  :         return static_cast<_Ty*>(_Allocate<_New_alignof<_Ty>>(_Get_size_of_n<sizeof(_Ty)>(_Count)));

  00063	e8 00 00 00 00	 call	 ??$_Allocate@$07U_Default_allocate_traits@std@@$0A@@std@@YAPAXI@Z ; std::_Allocate<8,std::_Default_allocate_traits,0>
; File C:\Program Files (x86)\Microsoft Visual Studio\2019\Community\VC\Tools\MSVC\14.27.29110\include\vector

; 749  :         _Alty_traits::construct(_Al, _Unfancy(_Newvec + _Whereoff), _STD forward<_Valty>(_Val)...);

  00068	8b 4d 0c	 mov	 ecx, DWORD PTR _<_Val_0>$[ebp]
; File C:\Program Files (x86)\Microsoft Visual Studio\2019\Community\VC\Tools\MSVC\14.27.29110\include\xmemory

; 807  :         return static_cast<_Ty*>(_Allocate<_New_alignof<_Ty>>(_Get_size_of_n<sizeof(_Ty)>(_Count)));

  0006b	8b f8		 mov	 edi, eax
; File C:\Program Files (x86)\Microsoft Visual Studio\2019\Community\VC\Tools\MSVC\14.27.29110\include\vector

; 749  :         _Alty_traits::construct(_Al, _Unfancy(_Newvec + _Whereoff), _STD forward<_Valty>(_Val)...);

  0006d	8d 04 9f	 lea	 eax, DWORD PTR [edi+ebx*4]
; File C:\Program Files (x86)\Microsoft Visual Studio\2019\Community\VC\Tools\MSVC\14.27.29110\include\xmemory

; 807  :         return static_cast<_Ty*>(_Allocate<_New_alignof<_Ty>>(_Get_size_of_n<sizeof(_Ty)>(_Count)));

  00070	83 c4 04	 add	 esp, 4
; File C:\Program Files (x86)\Microsoft Visual Studio\2019\Community\VC\Tools\MSVC\14.27.29110\include\vector

; 752  :         if (_Whereptr == _Mylast) { // at back, provide strong guarantee

  00073	8b 5d 08	 mov	 ebx, DWORD PTR __Whereptr$[ebp]
  00076	89 45 fc	 mov	 DWORD PTR tv435[ebp], eax
  00079	8b 09		 mov	 ecx, DWORD PTR [ecx]
  0007b	89 08		 mov	 DWORD PTR [eax], ecx
  0007d	8b 56 04	 mov	 edx, DWORD PTR [esi+4]
  00080	8b 0e		 mov	 ecx, DWORD PTR [esi]
  00082	3b da		 cmp	 ebx, edx
  00084	75 07		 jne	 SHORT $LN4@Emplace_re

; 753  :             _Umove_if_noexcept(_Myfirst, _Mylast, _Newvec);
; 754  :         } else { // provide basic guarantee

  00086	8b 5d fc	 mov	 ebx, DWORD PTR tv435[ebp]

; 1597 :         _Uninitialized_move(_First, _Last, _Dest, _Getal());

  00089	8b c7		 mov	 eax, edi

; 753  :             _Umove_if_noexcept(_Myfirst, _Mylast, _Newvec);
; 754  :         } else { // provide basic guarantee

  0008b	eb 17		 jmp	 SHORT $LN5@Emplace_re
$LN4@Emplace_re:

; 1592 :         return _Uninitialized_move(_First, _Last, _Dest, _Getal());

  0008d	56		 push	 esi
  0008e	57		 push	 edi
  0008f	53		 push	 ebx
  00090	51		 push	 ecx
  00091	e8 00 00 00 00	 call	 ??$_Uninitialized_move@PAPAVCSphereCollisionInstance@@V?$allocator@PAVCSphereCollisionInstance@@@std@@@std@@YAPAPAVCSphereCollisionInstance@@QAPAV1@0PAPAV1@AAV?$allocator@PAVCSphereCollisionInstance@@@0@@Z ; std::_Uninitialized_move<CSphereCollisionInstance * *,std::allocator<CSphereCollisionInstance *> >
  00096	8b 56 04	 mov	 edx, DWORD PTR [esi+4]
  00099	8b cb		 mov	 ecx, ebx

; 755  :             _Umove(_Myfirst, _Whereptr, _Newvec);
; 756  :             _Constructed_first = _Newvec;
; 757  :             _Umove(_Whereptr, _Mylast, _Newvec + _Whereoff + 1);

  0009b	8b 5d fc	 mov	 ebx, DWORD PTR tv435[ebp]

; 1592 :         return _Uninitialized_move(_First, _Last, _Dest, _Getal());

  0009e	83 c4 10	 add	 esp, 16			; 00000010H

; 755  :             _Umove(_Myfirst, _Whereptr, _Newvec);
; 756  :             _Constructed_first = _Newvec;
; 757  :             _Umove(_Whereptr, _Mylast, _Newvec + _Whereoff + 1);

  000a1	8d 43 04	 lea	 eax, DWORD PTR [ebx+4]
$LN5@Emplace_re:
  000a4	56		 push	 esi
  000a5	50		 push	 eax
  000a6	52		 push	 edx
  000a7	51		 push	 ecx
  000a8	e8 00 00 00 00	 call	 ??$_Uninitialized_move@PAPAVCSphereCollisionInstance@@V?$allocator@PAVCSphereCollisionInstance@@@std@@@std@@YAPAPAVCSphereCollisionInstance@@QAPAV1@0PAPAV1@AAV?$allocator@PAVCSphereCollisionInstance@@@0@@Z ; std::_Uninitialized_move<CSphereCollisionInstance * *,std::allocator<CSphereCollisionInstance *> >

; 1675 :         if (_Myfirst) { // destroy and deallocate old array

  000ad	8b 0e		 mov	 ecx, DWORD PTR [esi]

; 755  :             _Umove(_Myfirst, _Whereptr, _Newvec);
; 756  :             _Constructed_first = _Newvec;
; 757  :             _Umove(_Whereptr, _Mylast, _Newvec + _Whereoff + 1);

  000af	83 c4 10	 add	 esp, 16			; 00000010H

; 1675 :         if (_Myfirst) { // destroy and deallocate old array

  000b2	85 c9		 test	 ecx, ecx
  000b4	74 12		 je	 SHORT $LN33@Emplace_re

; 1676 :             _Destroy(_Myfirst, _Mylast);
; 1677 :             _Getal().deallocate(_Myfirst, static_cast<size_type>(_Myend - _Myfirst));

  000b6	8b 46 08	 mov	 eax, DWORD PTR [esi+8]
  000b9	2b c1		 sub	 eax, ecx
; File C:\Program Files (x86)\Microsoft Visual Studio\2019\Community\VC\Tools\MSVC\14.27.29110\include\xmemory

; 803  :         _Deallocate<_New_alignof<_Ty>>(_Ptr, sizeof(_Ty) * _Count);

  000bb	83 e0 fc	 and	 eax, -4			; fffffffcH
  000be	50		 push	 eax
  000bf	51		 push	 ecx
  000c0	e8 00 00 00 00	 call	 ??$_Deallocate@$07$0A@@std@@YAXPAXI@Z ; std::_Deallocate<8,0>
  000c5	83 c4 08	 add	 esp, 8
$LN33@Emplace_re:
; File C:\Program Files (x86)\Microsoft Visual Studio\2019\Community\VC\Tools\MSVC\14.27.29110\include\vector

; 1681 :         _Mylast  = _Newvec + _Newsize;

  000c8	8b 4d f8	 mov	 ecx, DWORD PTR __Newsize$1$[ebp]

; 758  :         }
; 759  :         _CATCH_ALL
; 760  :         _Destroy(_Constructed_first, _Constructed_last);
; 761  :         _Al.deallocate(_Newvec, _Newcapacity);
; 762  :         _RERAISE;
; 763  :         _CATCH_END
; 764  : 
; 765  :         _Change_array(_Newvec, _Newsize, _Newcapacity);
; 766  :         return _Newvec + _Whereoff;

  000cb	8b c3		 mov	 eax, ebx

; 1680 :         _Myfirst = _Newvec;

  000cd	89 3e		 mov	 DWORD PTR [esi], edi

; 1681 :         _Mylast  = _Newvec + _Newsize;

  000cf	8d 0c 8f	 lea	 ecx, DWORD PTR [edi+ecx*4]
  000d2	89 4e 04	 mov	 DWORD PTR [esi+4], ecx

; 1682 :         _Myend   = _Newvec + _Newcapacity;

  000d5	8b 4d f4	 mov	 ecx, DWORD PTR tv436[ebp]
  000d8	03 cf		 add	 ecx, edi

; 758  :         }
; 759  :         _CATCH_ALL
; 760  :         _Destroy(_Constructed_first, _Constructed_last);
; 761  :         _Al.deallocate(_Newvec, _Newcapacity);
; 762  :         _RERAISE;
; 763  :         _CATCH_END
; 764  : 
; 765  :         _Change_array(_Newvec, _Newsize, _Newcapacity);
; 766  :         return _Newvec + _Whereoff;

  000da	5f		 pop	 edi

; 1682 :         _Myend   = _Newvec + _Newcapacity;

  000db	89 4e 08	 mov	 DWORD PTR [esi+8], ecx

; 758  :         }
; 759  :         _CATCH_ALL
; 760  :         _Destroy(_Constructed_first, _Constructed_last);
; 761  :         _Al.deallocate(_Newvec, _Newcapacity);
; 762  :         _RERAISE;
; 763  :         _CATCH_END
; 764  : 
; 765  :         _Change_array(_Newvec, _Newsize, _Newcapacity);
; 766  :         return _Newvec + _Whereoff;

  000de	5e		 pop	 esi
  000df	5b		 pop	 ebx

; 767  :     }

  000e0	8b e5		 mov	 esp, ebp
  000e2	5d		 pop	 ebp
  000e3	c2 08 00	 ret	 8
$LN39@Emplace_re:

; 738  :             _Xlength();

  000e6	e8 00 00 00 00	 call	 ?_Xlength@?$vector@PAVCSphereCollisionInstance@@V?$allocator@PAVCSphereCollisionInstance@@@std@@@std@@CAXXZ ; std::vector<CSphereCollisionInstance *,std::allocator<CSphereCollisionInstance *> >::_Xlength
$LN40@Emplace_re:
; File C:\Program Files (x86)\Microsoft Visual Studio\2019\Community\VC\Tools\MSVC\14.27.29110\include\xmemory

; 61   :             _Throw_bad_array_new_length(); // multiply overflow

  000eb	e8 00 00 00 00	 call	 ?_Throw_bad_array_new_length@std@@YAXXZ ; std::_Throw_bad_array_new_length
$LN37@Emplace_re:
  000f0	cc		 int	 3
??$_Emplace_reallocate@ABQAVCSphereCollisionInstance@@@?$vector@PAVCSphereCollisionInstance@@V?$allocator@PAVCSphereCollisionInstance@@@std@@@std@@QAEPAPAVCSphereCollisionInstance@@QAPAV2@ABQAV2@@Z ENDP ; std::vector<CSphereCollisionInstance *,std::allocator<CSphereCollisionInstance *> >::_Emplace_reallocate<CSphereCollisionInstance * const &>
_TEXT	ENDS
; Function compile flags: /Ogtp
; File C:\Program Files (x86)\Microsoft Visual Studio\2019\Community\VC\Tools\MSVC\14.27.29110\include\vector
; File C:\Program Files (x86)\Microsoft Visual Studio\2019\Community\VC\Tools\MSVC\14.27.29110\include\xmemory
; File C:\Program Files (x86)\Microsoft Visual Studio\2019\Community\VC\Tools\MSVC\14.27.29110\include\vector
; File C:\Program Files (x86)\Microsoft Visual Studio\2019\Community\VC\Tools\MSVC\14.27.29110\include\xmemory
; File C:\Program Files (x86)\Microsoft Visual Studio\2019\Community\VC\Tools\MSVC\14.27.29110\include\vector
; File C:\Program Files (x86)\Microsoft Visual Studio\2019\Community\VC\Tools\MSVC\14.27.29110\include\xmemory
; File C:\Program Files (x86)\Microsoft Visual Studio\2019\Community\VC\Tools\MSVC\14.27.29110\include\vector
; File C:\Program Files (x86)\Microsoft Visual Studio\2019\Community\VC\Tools\MSVC\14.27.29110\include\xmemory
; File C:\Program Files (x86)\Microsoft Visual Studio\2019\Community\VC\Tools\MSVC\14.27.29110\include\vector
; File C:\Program Files (x86)\Microsoft Visual Studio\2019\Community\VC\Tools\MSVC\14.27.29110\include\xmemory
; File C:\Program Files (x86)\Microsoft Visual Studio\2019\Community\VC\Tools\MSVC\14.27.29110\include\vector
;	COMDAT ??$_Emplace_reallocate@ABQAVCCylinderCollisionInstance@@@?$vector@PAVCCylinderCollisionInstance@@V?$allocator@PAVCCylinderCollisionInstance@@@std@@@std@@QAEPAPAVCCylinderCollisionInstance@@QAPAV2@ABQAV2@@Z
_TEXT	SEGMENT
tv436 = -12						; size = 4
__Newsize$1$ = -8					; size = 4
tv435 = -4						; size = 4
__Whereptr$ = 8						; size = 4
_<_Val_0>$ = 12						; size = 4
??$_Emplace_reallocate@ABQAVCCylinderCollisionInstance@@@?$vector@PAVCCylinderCollisionInstance@@V?$allocator@PAVCCylinderCollisionInstance@@@std@@@std@@QAEPAPAVCCylinderCollisionInstance@@QAPAV2@ABQAV2@@Z PROC ; std::vector<CCylinderCollisionInstance *,std::allocator<CCylinderCollisionInstance *> >::_Emplace_reallocate<CCylinderCollisionInstance * const &>, COMDAT
; _this$ = ecx

; 725  :     pointer _Emplace_reallocate(const pointer _Whereptr, _Valty&&... _Val) {

  00000	55		 push	 ebp
  00001	8b ec		 mov	 ebp, esp
  00003	83 ec 0c	 sub	 esp, 12			; 0000000cH
  00006	53		 push	 ebx

; 726  :         // reallocate and insert by perfectly forwarding _Val at _Whereptr
; 727  :         _Alty& _Al        = _Getal();
; 728  :         auto& _My_data    = _Mypair._Myval2;
; 729  :         pointer& _Myfirst = _My_data._Myfirst;
; 730  :         pointer& _Mylast  = _My_data._Mylast;
; 731  : 
; 732  :         _STL_INTERNAL_CHECK(_Mylast == _My_data._Myend); // check that we have no unused capacity
; 733  : 
; 734  :         const auto _Whereoff = static_cast<size_type>(_Whereptr - _Myfirst);

  00007	8b 5d 08	 mov	 ebx, DWORD PTR __Whereptr$[ebp]
  0000a	56		 push	 esi
  0000b	8b f1		 mov	 esi, ecx
  0000d	57		 push	 edi
  0000e	8b 16		 mov	 edx, DWORD PTR [esi]
  00010	2b da		 sub	 ebx, edx

; 735  :         const auto _Oldsize  = static_cast<size_type>(_Mylast - _Myfirst);

  00012	8b 46 04	 mov	 eax, DWORD PTR [esi+4]
  00015	2b c2		 sub	 eax, edx
  00017	c1 fb 02	 sar	 ebx, 2
  0001a	c1 f8 02	 sar	 eax, 2

; 736  : 
; 737  :         if (_Oldsize == max_size()) {

  0001d	3d ff ff ff 3f	 cmp	 eax, 1073741823		; 3fffffffH
  00022	0f 84 be 00 00
	00		 je	 $LN39@Emplace_re

; 1494 :         return static_cast<size_type>(_My_data._Myend - _My_data._Myfirst);

  00028	8b 4e 08	 mov	 ecx, DWORD PTR [esi+8]

; 739  :         }
; 740  : 
; 741  :         const size_type _Newsize     = _Oldsize + 1;

  0002b	8d 78 01	 lea	 edi, DWORD PTR [eax+1]

; 1494 :         return static_cast<size_type>(_My_data._Myend - _My_data._Myfirst);

  0002e	2b ca		 sub	 ecx, edx

; 739  :         }
; 740  : 
; 741  :         const size_type _Newsize     = _Oldsize + 1;

  00030	89 7d f8	 mov	 DWORD PTR __Newsize$1$[ebp], edi

; 1494 :         return static_cast<size_type>(_My_data._Myend - _My_data._Myfirst);

  00033	c1 f9 02	 sar	 ecx, 2

; 1619 :         if (_Oldcapacity > max_size() - _Oldcapacity / 2) {

  00036	b8 ff ff ff 3f	 mov	 eax, 1073741823		; 3fffffffH
  0003b	8b d1		 mov	 edx, ecx
  0003d	d1 ea		 shr	 edx, 1
  0003f	2b c2		 sub	 eax, edx
  00041	3b c8		 cmp	 ecx, eax
  00043	76 04		 jbe	 SHORT $LN12@Emplace_re

; 1620 :             return _Newsize; // geometric growth would overflow

  00045	8b c7		 mov	 eax, edi
  00047	eb 08		 jmp	 SHORT $LN13@Emplace_re
$LN12@Emplace_re:

; 1621 :         }
; 1622 : 
; 1623 :         const size_type _Geometric = _Oldcapacity + _Oldcapacity / 2;

  00049	8d 04 0a	 lea	 eax, DWORD PTR [edx+ecx]

; 1624 : 
; 1625 :         if (_Geometric < _Newsize) {

  0004c	3b c7		 cmp	 eax, edi
  0004e	0f 42 c7	 cmovb	 eax, edi
$LN13@Emplace_re:
; File C:\Program Files (x86)\Microsoft Visual Studio\2019\Community\VC\Tools\MSVC\14.27.29110\include\xmemory

; 60   :         if (_Count > _Max_possible) {

  00051	3d ff ff ff 3f	 cmp	 eax, 1073741823		; 3fffffffH
  00056	0f 87 8f 00 00
	00		 ja	 $LN40@Emplace_re

; 62   :         }
; 63   :     }
; 64   : 
; 65   :     return _Count * _Ty_size;

  0005c	c1 e0 02	 shl	 eax, 2

; 807  :         return static_cast<_Ty*>(_Allocate<_New_alignof<_Ty>>(_Get_size_of_n<sizeof(_Ty)>(_Count)));

  0005f	50		 push	 eax

; 65   :     return _Count * _Ty_size;

  00060	89 45 f4	 mov	 DWORD PTR tv436[ebp], eax

; 807  :         return static_cast<_Ty*>(_Allocate<_New_alignof<_Ty>>(_Get_size_of_n<sizeof(_Ty)>(_Count)));

  00063	e8 00 00 00 00	 call	 ??$_Allocate@$07U_Default_allocate_traits@std@@$0A@@std@@YAPAXI@Z ; std::_Allocate<8,std::_Default_allocate_traits,0>
; File C:\Program Files (x86)\Microsoft Visual Studio\2019\Community\VC\Tools\MSVC\14.27.29110\include\vector

; 749  :         _Alty_traits::construct(_Al, _Unfancy(_Newvec + _Whereoff), _STD forward<_Valty>(_Val)...);

  00068	8b 4d 0c	 mov	 ecx, DWORD PTR _<_Val_0>$[ebp]
; File C:\Program Files (x86)\Microsoft Visual Studio\2019\Community\VC\Tools\MSVC\14.27.29110\include\xmemory

; 807  :         return static_cast<_Ty*>(_Allocate<_New_alignof<_Ty>>(_Get_size_of_n<sizeof(_Ty)>(_Count)));

  0006b	8b f8		 mov	 edi, eax
; File C:\Program Files (x86)\Microsoft Visual Studio\2019\Community\VC\Tools\MSVC\14.27.29110\include\vector

; 749  :         _Alty_traits::construct(_Al, _Unfancy(_Newvec + _Whereoff), _STD forward<_Valty>(_Val)...);

  0006d	8d 04 9f	 lea	 eax, DWORD PTR [edi+ebx*4]
; File C:\Program Files (x86)\Microsoft Visual Studio\2019\Community\VC\Tools\MSVC\14.27.29110\include\xmemory

; 807  :         return static_cast<_Ty*>(_Allocate<_New_alignof<_Ty>>(_Get_size_of_n<sizeof(_Ty)>(_Count)));

  00070	83 c4 04	 add	 esp, 4
; File C:\Program Files (x86)\Microsoft Visual Studio\2019\Community\VC\Tools\MSVC\14.27.29110\include\vector

; 752  :         if (_Whereptr == _Mylast) { // at back, provide strong guarantee

  00073	8b 5d 08	 mov	 ebx, DWORD PTR __Whereptr$[ebp]
  00076	89 45 fc	 mov	 DWORD PTR tv435[ebp], eax
  00079	8b 09		 mov	 ecx, DWORD PTR [ecx]
  0007b	89 08		 mov	 DWORD PTR [eax], ecx
  0007d	8b 56 04	 mov	 edx, DWORD PTR [esi+4]
  00080	8b 0e		 mov	 ecx, DWORD PTR [esi]
  00082	3b da		 cmp	 ebx, edx
  00084	75 07		 jne	 SHORT $LN4@Emplace_re

; 753  :             _Umove_if_noexcept(_Myfirst, _Mylast, _Newvec);
; 754  :         } else { // provide basic guarantee

  00086	8b 5d fc	 mov	 ebx, DWORD PTR tv435[ebp]

; 1597 :         _Uninitialized_move(_First, _Last, _Dest, _Getal());

  00089	8b c7		 mov	 eax, edi

; 753  :             _Umove_if_noexcept(_Myfirst, _Mylast, _Newvec);
; 754  :         } else { // provide basic guarantee

  0008b	eb 17		 jmp	 SHORT $LN5@Emplace_re
$LN4@Emplace_re:

; 1592 :         return _Uninitialized_move(_First, _Last, _Dest, _Getal());

  0008d	56		 push	 esi
  0008e	57		 push	 edi
  0008f	53		 push	 ebx
  00090	51		 push	 ecx
  00091	e8 00 00 00 00	 call	 ??$_Uninitialized_move@PAPAVCCylinderCollisionInstance@@V?$allocator@PAVCCylinderCollisionInstance@@@std@@@std@@YAPAPAVCCylinderCollisionInstance@@QAPAV1@0PAPAV1@AAV?$allocator@PAVCCylinderCollisionInstance@@@0@@Z ; std::_Uninitialized_move<CCylinderCollisionInstance * *,std::allocator<CCylinderCollisionInstance *> >
  00096	8b 56 04	 mov	 edx, DWORD PTR [esi+4]
  00099	8b cb		 mov	 ecx, ebx

; 755  :             _Umove(_Myfirst, _Whereptr, _Newvec);
; 756  :             _Constructed_first = _Newvec;
; 757  :             _Umove(_Whereptr, _Mylast, _Newvec + _Whereoff + 1);

  0009b	8b 5d fc	 mov	 ebx, DWORD PTR tv435[ebp]

; 1592 :         return _Uninitialized_move(_First, _Last, _Dest, _Getal());

  0009e	83 c4 10	 add	 esp, 16			; 00000010H

; 755  :             _Umove(_Myfirst, _Whereptr, _Newvec);
; 756  :             _Constructed_first = _Newvec;
; 757  :             _Umove(_Whereptr, _Mylast, _Newvec + _Whereoff + 1);

  000a1	8d 43 04	 lea	 eax, DWORD PTR [ebx+4]
$LN5@Emplace_re:
  000a4	56		 push	 esi
  000a5	50		 push	 eax
  000a6	52		 push	 edx
  000a7	51		 push	 ecx
  000a8	e8 00 00 00 00	 call	 ??$_Uninitialized_move@PAPAVCCylinderCollisionInstance@@V?$allocator@PAVCCylinderCollisionInstance@@@std@@@std@@YAPAPAVCCylinderCollisionInstance@@QAPAV1@0PAPAV1@AAV?$allocator@PAVCCylinderCollisionInstance@@@0@@Z ; std::_Uninitialized_move<CCylinderCollisionInstance * *,std::allocator<CCylinderCollisionInstance *> >

; 1675 :         if (_Myfirst) { // destroy and deallocate old array

  000ad	8b 0e		 mov	 ecx, DWORD PTR [esi]

; 755  :             _Umove(_Myfirst, _Whereptr, _Newvec);
; 756  :             _Constructed_first = _Newvec;
; 757  :             _Umove(_Whereptr, _Mylast, _Newvec + _Whereoff + 1);

  000af	83 c4 10	 add	 esp, 16			; 00000010H

; 1675 :         if (_Myfirst) { // destroy and deallocate old array

  000b2	85 c9		 test	 ecx, ecx
  000b4	74 12		 je	 SHORT $LN33@Emplace_re

; 1676 :             _Destroy(_Myfirst, _Mylast);
; 1677 :             _Getal().deallocate(_Myfirst, static_cast<size_type>(_Myend - _Myfirst));

  000b6	8b 46 08	 mov	 eax, DWORD PTR [esi+8]
  000b9	2b c1		 sub	 eax, ecx
; File C:\Program Files (x86)\Microsoft Visual Studio\2019\Community\VC\Tools\MSVC\14.27.29110\include\xmemory

; 803  :         _Deallocate<_New_alignof<_Ty>>(_Ptr, sizeof(_Ty) * _Count);

  000bb	83 e0 fc	 and	 eax, -4			; fffffffcH
  000be	50		 push	 eax
  000bf	51		 push	 ecx
  000c0	e8 00 00 00 00	 call	 ??$_Deallocate@$07$0A@@std@@YAXPAXI@Z ; std::_Deallocate<8,0>
  000c5	83 c4 08	 add	 esp, 8
$LN33@Emplace_re:
; File C:\Program Files (x86)\Microsoft Visual Studio\2019\Community\VC\Tools\MSVC\14.27.29110\include\vector

; 1681 :         _Mylast  = _Newvec + _Newsize;

  000c8	8b 4d f8	 mov	 ecx, DWORD PTR __Newsize$1$[ebp]

; 758  :         }
; 759  :         _CATCH_ALL
; 760  :         _Destroy(_Constructed_first, _Constructed_last);
; 761  :         _Al.deallocate(_Newvec, _Newcapacity);
; 762  :         _RERAISE;
; 763  :         _CATCH_END
; 764  : 
; 765  :         _Change_array(_Newvec, _Newsize, _Newcapacity);
; 766  :         return _Newvec + _Whereoff;

  000cb	8b c3		 mov	 eax, ebx

; 1680 :         _Myfirst = _Newvec;

  000cd	89 3e		 mov	 DWORD PTR [esi], edi

; 1681 :         _Mylast  = _Newvec + _Newsize;

  000cf	8d 0c 8f	 lea	 ecx, DWORD PTR [edi+ecx*4]
  000d2	89 4e 04	 mov	 DWORD PTR [esi+4], ecx

; 1682 :         _Myend   = _Newvec + _Newcapacity;

  000d5	8b 4d f4	 mov	 ecx, DWORD PTR tv436[ebp]
  000d8	03 cf		 add	 ecx, edi

; 758  :         }
; 759  :         _CATCH_ALL
; 760  :         _Destroy(_Constructed_first, _Constructed_last);
; 761  :         _Al.deallocate(_Newvec, _Newcapacity);
; 762  :         _RERAISE;
; 763  :         _CATCH_END
; 764  : 
; 765  :         _Change_array(_Newvec, _Newsize, _Newcapacity);
; 766  :         return _Newvec + _Whereoff;

  000da	5f		 pop	 edi

; 1682 :         _Myend   = _Newvec + _Newcapacity;

  000db	89 4e 08	 mov	 DWORD PTR [esi+8], ecx

; 758  :         }
; 759  :         _CATCH_ALL
; 760  :         _Destroy(_Constructed_first, _Constructed_last);
; 761  :         _Al.deallocate(_Newvec, _Newcapacity);
; 762  :         _RERAISE;
; 763  :         _CATCH_END
; 764  : 
; 765  :         _Change_array(_Newvec, _Newsize, _Newcapacity);
; 766  :         return _Newvec + _Whereoff;

  000de	5e		 pop	 esi
  000df	5b		 pop	 ebx

; 767  :     }

  000e0	8b e5		 mov	 esp, ebp
  000e2	5d		 pop	 ebp
  000e3	c2 08 00	 ret	 8
$LN39@Emplace_re:

; 738  :             _Xlength();

  000e6	e8 00 00 00 00	 call	 ?_Xlength@?$vector@PAVCCylinderCollisionInstance@@V?$allocator@PAVCCylinderCollisionInstance@@@std@@@std@@CAXXZ ; std::vector<CCylinderCollisionInstance *,std::allocator<CCylinderCollisionInstance *> >::_Xlength
$LN40@Emplace_re:
; File C:\Program Files (x86)\Microsoft Visual Studio\2019\Community\VC\Tools\MSVC\14.27.29110\include\xmemory

; 61   :             _Throw_bad_array_new_length(); // multiply overflow

  000eb	e8 00 00 00 00	 call	 ?_Throw_bad_array_new_length@std@@YAXXZ ; std::_Throw_bad_array_new_length
$LN37@Emplace_re:
  000f0	cc		 int	 3
??$_Emplace_reallocate@ABQAVCCylinderCollisionInstance@@@?$vector@PAVCCylinderCollisionInstance@@V?$allocator@PAVCCylinderCollisionInstance@@@std@@@std@@QAEPAPAVCCylinderCollisionInstance@@QAPAV2@ABQAV2@@Z ENDP ; std::vector<CCylinderCollisionInstance *,std::allocator<CCylinderCollisionInstance *> >::_Emplace_reallocate<CCylinderCollisionInstance * const &>
_TEXT	ENDS
; Function compile flags: /Ogtp
; File C:\Program Files (x86)\Microsoft Visual Studio\2019\Community\VC\Tools\MSVC\14.27.29110\include\vector
; File C:\Program Files (x86)\Microsoft Visual Studio\2019\Community\VC\Tools\MSVC\14.27.29110\include\xmemory
; File C:\Program Files (x86)\Microsoft Visual Studio\2019\Community\VC\Tools\MSVC\14.27.29110\include\vector
; File C:\Program Files (x86)\Microsoft Visual Studio\2019\Community\VC\Tools\MSVC\14.27.29110\include\xmemory
; File C:\Program Files (x86)\Microsoft Visual Studio\2019\Community\VC\Tools\MSVC\14.27.29110\include\vector
; File C:\Program Files (x86)\Microsoft Visual Studio\2019\Community\VC\Tools\MSVC\14.27.29110\include\xmemory
; File C:\Program Files (x86)\Microsoft Visual Studio\2019\Community\VC\Tools\MSVC\14.27.29110\include\vector
; File C:\Program Files (x86)\Microsoft Visual Studio\2019\Community\VC\Tools\MSVC\14.27.29110\include\xmemory
; File C:\Program Files (x86)\Microsoft Visual Studio\2019\Community\VC\Tools\MSVC\14.27.29110\include\vector
; File C:\Program Files (x86)\Microsoft Visual Studio\2019\Community\VC\Tools\MSVC\14.27.29110\include\xmemory
; File C:\Program Files (x86)\Microsoft Visual Studio\2019\Community\VC\Tools\MSVC\14.27.29110\include\vector
;	COMDAT ??$_Emplace_reallocate@ABQAVCPlaneCollisionInstance@@@?$vector@PAVCPlaneCollisionInstance@@V?$allocator@PAVCPlaneCollisionInstance@@@std@@@std@@QAEPAPAVCPlaneCollisionInstance@@QAPAV2@ABQAV2@@Z
_TEXT	SEGMENT
tv436 = -12						; size = 4
__Newsize$1$ = -8					; size = 4
tv435 = -4						; size = 4
__Whereptr$ = 8						; size = 4
_<_Val_0>$ = 12						; size = 4
??$_Emplace_reallocate@ABQAVCPlaneCollisionInstance@@@?$vector@PAVCPlaneCollisionInstance@@V?$allocator@PAVCPlaneCollisionInstance@@@std@@@std@@QAEPAPAVCPlaneCollisionInstance@@QAPAV2@ABQAV2@@Z PROC ; std::vector<CPlaneCollisionInstance *,std::allocator<CPlaneCollisionInstance *> >::_Emplace_reallocate<CPlaneCollisionInstance * const &>, COMDAT
; _this$ = ecx

; 725  :     pointer _Emplace_reallocate(const pointer _Whereptr, _Valty&&... _Val) {

  00000	55		 push	 ebp
  00001	8b ec		 mov	 ebp, esp
  00003	83 ec 0c	 sub	 esp, 12			; 0000000cH
  00006	53		 push	 ebx

; 726  :         // reallocate and insert by perfectly forwarding _Val at _Whereptr
; 727  :         _Alty& _Al        = _Getal();
; 728  :         auto& _My_data    = _Mypair._Myval2;
; 729  :         pointer& _Myfirst = _My_data._Myfirst;
; 730  :         pointer& _Mylast  = _My_data._Mylast;
; 731  : 
; 732  :         _STL_INTERNAL_CHECK(_Mylast == _My_data._Myend); // check that we have no unused capacity
; 733  : 
; 734  :         const auto _Whereoff = static_cast<size_type>(_Whereptr - _Myfirst);

  00007	8b 5d 08	 mov	 ebx, DWORD PTR __Whereptr$[ebp]
  0000a	56		 push	 esi
  0000b	8b f1		 mov	 esi, ecx
  0000d	57		 push	 edi
  0000e	8b 16		 mov	 edx, DWORD PTR [esi]
  00010	2b da		 sub	 ebx, edx

; 735  :         const auto _Oldsize  = static_cast<size_type>(_Mylast - _Myfirst);

  00012	8b 46 04	 mov	 eax, DWORD PTR [esi+4]
  00015	2b c2		 sub	 eax, edx
  00017	c1 fb 02	 sar	 ebx, 2
  0001a	c1 f8 02	 sar	 eax, 2

; 736  : 
; 737  :         if (_Oldsize == max_size()) {

  0001d	3d ff ff ff 3f	 cmp	 eax, 1073741823		; 3fffffffH
  00022	0f 84 be 00 00
	00		 je	 $LN39@Emplace_re

; 1494 :         return static_cast<size_type>(_My_data._Myend - _My_data._Myfirst);

  00028	8b 4e 08	 mov	 ecx, DWORD PTR [esi+8]

; 739  :         }
; 740  : 
; 741  :         const size_type _Newsize     = _Oldsize + 1;

  0002b	8d 78 01	 lea	 edi, DWORD PTR [eax+1]

; 1494 :         return static_cast<size_type>(_My_data._Myend - _My_data._Myfirst);

  0002e	2b ca		 sub	 ecx, edx

; 739  :         }
; 740  : 
; 741  :         const size_type _Newsize     = _Oldsize + 1;

  00030	89 7d f8	 mov	 DWORD PTR __Newsize$1$[ebp], edi

; 1494 :         return static_cast<size_type>(_My_data._Myend - _My_data._Myfirst);

  00033	c1 f9 02	 sar	 ecx, 2

; 1619 :         if (_Oldcapacity > max_size() - _Oldcapacity / 2) {

  00036	b8 ff ff ff 3f	 mov	 eax, 1073741823		; 3fffffffH
  0003b	8b d1		 mov	 edx, ecx
  0003d	d1 ea		 shr	 edx, 1
  0003f	2b c2		 sub	 eax, edx
  00041	3b c8		 cmp	 ecx, eax
  00043	76 04		 jbe	 SHORT $LN12@Emplace_re

; 1620 :             return _Newsize; // geometric growth would overflow

  00045	8b c7		 mov	 eax, edi
  00047	eb 08		 jmp	 SHORT $LN13@Emplace_re
$LN12@Emplace_re:

; 1621 :         }
; 1622 : 
; 1623 :         const size_type _Geometric = _Oldcapacity + _Oldcapacity / 2;

  00049	8d 04 0a	 lea	 eax, DWORD PTR [edx+ecx]

; 1624 : 
; 1625 :         if (_Geometric < _Newsize) {

  0004c	3b c7		 cmp	 eax, edi
  0004e	0f 42 c7	 cmovb	 eax, edi
$LN13@Emplace_re:
; File C:\Program Files (x86)\Microsoft Visual Studio\2019\Community\VC\Tools\MSVC\14.27.29110\include\xmemory

; 60   :         if (_Count > _Max_possible) {

  00051	3d ff ff ff 3f	 cmp	 eax, 1073741823		; 3fffffffH
  00056	0f 87 8f 00 00
	00		 ja	 $LN40@Emplace_re

; 62   :         }
; 63   :     }
; 64   : 
; 65   :     return _Count * _Ty_size;

  0005c	c1 e0 02	 shl	 eax, 2

; 807  :         return static_cast<_Ty*>(_Allocate<_New_alignof<_Ty>>(_Get_size_of_n<sizeof(_Ty)>(_Count)));

  0005f	50		 push	 eax

; 65   :     return _Count * _Ty_size;

  00060	89 45 f4	 mov	 DWORD PTR tv436[ebp], eax

; 807  :         return static_cast<_Ty*>(_Allocate<_New_alignof<_Ty>>(_Get_size_of_n<sizeof(_Ty)>(_Count)));

  00063	e8 00 00 00 00	 call	 ??$_Allocate@$07U_Default_allocate_traits@std@@$0A@@std@@YAPAXI@Z ; std::_Allocate<8,std::_Default_allocate_traits,0>
; File C:\Program Files (x86)\Microsoft Visual Studio\2019\Community\VC\Tools\MSVC\14.27.29110\include\vector

; 749  :         _Alty_traits::construct(_Al, _Unfancy(_Newvec + _Whereoff), _STD forward<_Valty>(_Val)...);

  00068	8b 4d 0c	 mov	 ecx, DWORD PTR _<_Val_0>$[ebp]
; File C:\Program Files (x86)\Microsoft Visual Studio\2019\Community\VC\Tools\MSVC\14.27.29110\include\xmemory

; 807  :         return static_cast<_Ty*>(_Allocate<_New_alignof<_Ty>>(_Get_size_of_n<sizeof(_Ty)>(_Count)));

  0006b	8b f8		 mov	 edi, eax
; File C:\Program Files (x86)\Microsoft Visual Studio\2019\Community\VC\Tools\MSVC\14.27.29110\include\vector

; 749  :         _Alty_traits::construct(_Al, _Unfancy(_Newvec + _Whereoff), _STD forward<_Valty>(_Val)...);

  0006d	8d 04 9f	 lea	 eax, DWORD PTR [edi+ebx*4]
; File C:\Program Files (x86)\Microsoft Visual Studio\2019\Community\VC\Tools\MSVC\14.27.29110\include\xmemory

; 807  :         return static_cast<_Ty*>(_Allocate<_New_alignof<_Ty>>(_Get_size_of_n<sizeof(_Ty)>(_Count)));

  00070	83 c4 04	 add	 esp, 4
; File C:\Program Files (x86)\Microsoft Visual Studio\2019\Community\VC\Tools\MSVC\14.27.29110\include\vector

; 752  :         if (_Whereptr == _Mylast) { // at back, provide strong guarantee

  00073	8b 5d 08	 mov	 ebx, DWORD PTR __Whereptr$[ebp]
  00076	89 45 fc	 mov	 DWORD PTR tv435[ebp], eax
  00079	8b 09		 mov	 ecx, DWORD PTR [ecx]
  0007b	89 08		 mov	 DWORD PTR [eax], ecx
  0007d	8b 56 04	 mov	 edx, DWORD PTR [esi+4]
  00080	8b 0e		 mov	 ecx, DWORD PTR [esi]
  00082	3b da		 cmp	 ebx, edx
  00084	75 07		 jne	 SHORT $LN4@Emplace_re

; 753  :             _Umove_if_noexcept(_Myfirst, _Mylast, _Newvec);
; 754  :         } else { // provide basic guarantee

  00086	8b 5d fc	 mov	 ebx, DWORD PTR tv435[ebp]

; 1597 :         _Uninitialized_move(_First, _Last, _Dest, _Getal());

  00089	8b c7		 mov	 eax, edi

; 753  :             _Umove_if_noexcept(_Myfirst, _Mylast, _Newvec);
; 754  :         } else { // provide basic guarantee

  0008b	eb 17		 jmp	 SHORT $LN5@Emplace_re
$LN4@Emplace_re:

; 1592 :         return _Uninitialized_move(_First, _Last, _Dest, _Getal());

  0008d	56		 push	 esi
  0008e	57		 push	 edi
  0008f	53		 push	 ebx
  00090	51		 push	 ecx
  00091	e8 00 00 00 00	 call	 ??$_Uninitialized_move@PAPAVCPlaneCollisionInstance@@V?$allocator@PAVCPlaneCollisionInstance@@@std@@@std@@YAPAPAVCPlaneCollisionInstance@@QAPAV1@0PAPAV1@AAV?$allocator@PAVCPlaneCollisionInstance@@@0@@Z ; std::_Uninitialized_move<CPlaneCollisionInstance * *,std::allocator<CPlaneCollisionInstance *> >
  00096	8b 56 04	 mov	 edx, DWORD PTR [esi+4]
  00099	8b cb		 mov	 ecx, ebx

; 755  :             _Umove(_Myfirst, _Whereptr, _Newvec);
; 756  :             _Constructed_first = _Newvec;
; 757  :             _Umove(_Whereptr, _Mylast, _Newvec + _Whereoff + 1);

  0009b	8b 5d fc	 mov	 ebx, DWORD PTR tv435[ebp]

; 1592 :         return _Uninitialized_move(_First, _Last, _Dest, _Getal());

  0009e	83 c4 10	 add	 esp, 16			; 00000010H

; 755  :             _Umove(_Myfirst, _Whereptr, _Newvec);
; 756  :             _Constructed_first = _Newvec;
; 757  :             _Umove(_Whereptr, _Mylast, _Newvec + _Whereoff + 1);

  000a1	8d 43 04	 lea	 eax, DWORD PTR [ebx+4]
$LN5@Emplace_re:
  000a4	56		 push	 esi
  000a5	50		 push	 eax
  000a6	52		 push	 edx
  000a7	51		 push	 ecx
  000a8	e8 00 00 00 00	 call	 ??$_Uninitialized_move@PAPAVCPlaneCollisionInstance@@V?$allocator@PAVCPlaneCollisionInstance@@@std@@@std@@YAPAPAVCPlaneCollisionInstance@@QAPAV1@0PAPAV1@AAV?$allocator@PAVCPlaneCollisionInstance@@@0@@Z ; std::_Uninitialized_move<CPlaneCollisionInstance * *,std::allocator<CPlaneCollisionInstance *> >

; 1675 :         if (_Myfirst) { // destroy and deallocate old array

  000ad	8b 0e		 mov	 ecx, DWORD PTR [esi]

; 755  :             _Umove(_Myfirst, _Whereptr, _Newvec);
; 756  :             _Constructed_first = _Newvec;
; 757  :             _Umove(_Whereptr, _Mylast, _Newvec + _Whereoff + 1);

  000af	83 c4 10	 add	 esp, 16			; 00000010H

; 1675 :         if (_Myfirst) { // destroy and deallocate old array

  000b2	85 c9		 test	 ecx, ecx
  000b4	74 12		 je	 SHORT $LN33@Emplace_re

; 1676 :             _Destroy(_Myfirst, _Mylast);
; 1677 :             _Getal().deallocate(_Myfirst, static_cast<size_type>(_Myend - _Myfirst));

  000b6	8b 46 08	 mov	 eax, DWORD PTR [esi+8]
  000b9	2b c1		 sub	 eax, ecx
; File C:\Program Files (x86)\Microsoft Visual Studio\2019\Community\VC\Tools\MSVC\14.27.29110\include\xmemory

; 803  :         _Deallocate<_New_alignof<_Ty>>(_Ptr, sizeof(_Ty) * _Count);

  000bb	83 e0 fc	 and	 eax, -4			; fffffffcH
  000be	50		 push	 eax
  000bf	51		 push	 ecx
  000c0	e8 00 00 00 00	 call	 ??$_Deallocate@$07$0A@@std@@YAXPAXI@Z ; std::_Deallocate<8,0>
  000c5	83 c4 08	 add	 esp, 8
$LN33@Emplace_re:
; File C:\Program Files (x86)\Microsoft Visual Studio\2019\Community\VC\Tools\MSVC\14.27.29110\include\vector

; 1681 :         _Mylast  = _Newvec + _Newsize;

  000c8	8b 4d f8	 mov	 ecx, DWORD PTR __Newsize$1$[ebp]

; 758  :         }
; 759  :         _CATCH_ALL
; 760  :         _Destroy(_Constructed_first, _Constructed_last);
; 761  :         _Al.deallocate(_Newvec, _Newcapacity);
; 762  :         _RERAISE;
; 763  :         _CATCH_END
; 764  : 
; 765  :         _Change_array(_Newvec, _Newsize, _Newcapacity);
; 766  :         return _Newvec + _Whereoff;

  000cb	8b c3		 mov	 eax, ebx

; 1680 :         _Myfirst = _Newvec;

  000cd	89 3e		 mov	 DWORD PTR [esi], edi

; 1681 :         _Mylast  = _Newvec + _Newsize;

  000cf	8d 0c 8f	 lea	 ecx, DWORD PTR [edi+ecx*4]
  000d2	89 4e 04	 mov	 DWORD PTR [esi+4], ecx

; 1682 :         _Myend   = _Newvec + _Newcapacity;

  000d5	8b 4d f4	 mov	 ecx, DWORD PTR tv436[ebp]
  000d8	03 cf		 add	 ecx, edi

; 758  :         }
; 759  :         _CATCH_ALL
; 760  :         _Destroy(_Constructed_first, _Constructed_last);
; 761  :         _Al.deallocate(_Newvec, _Newcapacity);
; 762  :         _RERAISE;
; 763  :         _CATCH_END
; 764  : 
; 765  :         _Change_array(_Newvec, _Newsize, _Newcapacity);
; 766  :         return _Newvec + _Whereoff;

  000da	5f		 pop	 edi

; 1682 :         _Myend   = _Newvec + _Newcapacity;

  000db	89 4e 08	 mov	 DWORD PTR [esi+8], ecx

; 758  :         }
; 759  :         _CATCH_ALL
; 760  :         _Destroy(_Constructed_first, _Constructed_last);
; 761  :         _Al.deallocate(_Newvec, _Newcapacity);
; 762  :         _RERAISE;
; 763  :         _CATCH_END
; 764  : 
; 765  :         _Change_array(_Newvec, _Newsize, _Newcapacity);
; 766  :         return _Newvec + _Whereoff;

  000de	5e		 pop	 esi
  000df	5b		 pop	 ebx

; 767  :     }

  000e0	8b e5		 mov	 esp, ebp
  000e2	5d		 pop	 ebp
  000e3	c2 08 00	 ret	 8
$LN39@Emplace_re:

; 738  :             _Xlength();

  000e6	e8 00 00 00 00	 call	 ?_Xlength@?$vector@PAVCPlaneCollisionInstance@@V?$allocator@PAVCPlaneCollisionInstance@@@std@@@std@@CAXXZ ; std::vector<CPlaneCollisionInstance *,std::allocator<CPlaneCollisionInstance *> >::_Xlength
$LN40@Emplace_re:
; File C:\Program Files (x86)\Microsoft Visual Studio\2019\Community\VC\Tools\MSVC\14.27.29110\include\xmemory

; 61   :             _Throw_bad_array_new_length(); // multiply overflow

  000eb	e8 00 00 00 00	 call	 ?_Throw_bad_array_new_length@std@@YAXXZ ; std::_Throw_bad_array_new_length
$LN37@Emplace_re:
  000f0	cc		 int	 3
??$_Emplace_reallocate@ABQAVCPlaneCollisionInstance@@@?$vector@PAVCPlaneCollisionInstance@@V?$allocator@PAVCPlaneCollisionInstance@@@std@@@std@@QAEPAPAVCPlaneCollisionInstance@@QAPAV2@ABQAV2@@Z ENDP ; std::vector<CPlaneCollisionInstance *,std::allocator<CPlaneCollisionInstance *> >::_Emplace_reallocate<CPlaneCollisionInstance * const &>
_TEXT	ENDS
; Function compile flags: /Ogtp
; File C:\Program Files (x86)\Microsoft Visual Studio\2019\Community\VC\Tools\MSVC\14.27.29110\include\vector
; File C:\Program Files (x86)\Microsoft Visual Studio\2019\Community\VC\Tools\MSVC\14.27.29110\include\xmemory
; File C:\Program Files (x86)\Microsoft Visual Studio\2019\Community\VC\Tools\MSVC\14.27.29110\include\vector
; File C:\Program Files (x86)\Microsoft Visual Studio\2019\Community\VC\Tools\MSVC\14.27.29110\include\xmemory
; File C:\Program Files (x86)\Microsoft Visual Studio\2019\Community\VC\Tools\MSVC\14.27.29110\include\vector
; File C:\Program Files (x86)\Microsoft Visual Studio\2019\Community\VC\Tools\MSVC\14.27.29110\include\xmemory
; File C:\Program Files (x86)\Microsoft Visual Studio\2019\Community\VC\Tools\MSVC\14.27.29110\include\vector
; File C:\Program Files (x86)\Microsoft Visual Studio\2019\Community\VC\Tools\MSVC\14.27.29110\include\xmemory
; File C:\Program Files (x86)\Microsoft Visual Studio\2019\Community\VC\Tools\MSVC\14.27.29110\include\vector
; File C:\Program Files (x86)\Microsoft Visual Studio\2019\Community\VC\Tools\MSVC\14.27.29110\include\xmemory
; File C:\Program Files (x86)\Microsoft Visual Studio\2019\Community\VC\Tools\MSVC\14.27.29110\include\vector
;	COMDAT ??$_Emplace_reallocate@ABQAVCAABBCollisionInstance@@@?$vector@PAVCAABBCollisionInstance@@V?$allocator@PAVCAABBCollisionInstance@@@std@@@std@@QAEPAPAVCAABBCollisionInstance@@QAPAV2@ABQAV2@@Z
_TEXT	SEGMENT
tv436 = -12						; size = 4
__Newsize$1$ = -8					; size = 4
tv435 = -4						; size = 4
__Whereptr$ = 8						; size = 4
_<_Val_0>$ = 12						; size = 4
??$_Emplace_reallocate@ABQAVCAABBCollisionInstance@@@?$vector@PAVCAABBCollisionInstance@@V?$allocator@PAVCAABBCollisionInstance@@@std@@@std@@QAEPAPAVCAABBCollisionInstance@@QAPAV2@ABQAV2@@Z PROC ; std::vector<CAABBCollisionInstance *,std::allocator<CAABBCollisionInstance *> >::_Emplace_reallocate<CAABBCollisionInstance * const &>, COMDAT
; _this$ = ecx

; 725  :     pointer _Emplace_reallocate(const pointer _Whereptr, _Valty&&... _Val) {

  00000	55		 push	 ebp
  00001	8b ec		 mov	 ebp, esp
  00003	83 ec 0c	 sub	 esp, 12			; 0000000cH
  00006	53		 push	 ebx

; 726  :         // reallocate and insert by perfectly forwarding _Val at _Whereptr
; 727  :         _Alty& _Al        = _Getal();
; 728  :         auto& _My_data    = _Mypair._Myval2;
; 729  :         pointer& _Myfirst = _My_data._Myfirst;
; 730  :         pointer& _Mylast  = _My_data._Mylast;
; 731  : 
; 732  :         _STL_INTERNAL_CHECK(_Mylast == _My_data._Myend); // check that we have no unused capacity
; 733  : 
; 734  :         const auto _Whereoff = static_cast<size_type>(_Whereptr - _Myfirst);

  00007	8b 5d 08	 mov	 ebx, DWORD PTR __Whereptr$[ebp]
  0000a	56		 push	 esi
  0000b	8b f1		 mov	 esi, ecx
  0000d	57		 push	 edi
  0000e	8b 16		 mov	 edx, DWORD PTR [esi]
  00010	2b da		 sub	 ebx, edx

; 735  :         const auto _Oldsize  = static_cast<size_type>(_Mylast - _Myfirst);

  00012	8b 46 04	 mov	 eax, DWORD PTR [esi+4]
  00015	2b c2		 sub	 eax, edx
  00017	c1 fb 02	 sar	 ebx, 2
  0001a	c1 f8 02	 sar	 eax, 2

; 736  : 
; 737  :         if (_Oldsize == max_size()) {

  0001d	3d ff ff ff 3f	 cmp	 eax, 1073741823		; 3fffffffH
  00022	0f 84 be 00 00
	00		 je	 $LN39@Emplace_re

; 1494 :         return static_cast<size_type>(_My_data._Myend - _My_data._Myfirst);

  00028	8b 4e 08	 mov	 ecx, DWORD PTR [esi+8]

; 739  :         }
; 740  : 
; 741  :         const size_type _Newsize     = _Oldsize + 1;

  0002b	8d 78 01	 lea	 edi, DWORD PTR [eax+1]

; 1494 :         return static_cast<size_type>(_My_data._Myend - _My_data._Myfirst);

  0002e	2b ca		 sub	 ecx, edx

; 739  :         }
; 740  : 
; 741  :         const size_type _Newsize     = _Oldsize + 1;

  00030	89 7d f8	 mov	 DWORD PTR __Newsize$1$[ebp], edi

; 1494 :         return static_cast<size_type>(_My_data._Myend - _My_data._Myfirst);

  00033	c1 f9 02	 sar	 ecx, 2

; 1619 :         if (_Oldcapacity > max_size() - _Oldcapacity / 2) {

  00036	b8 ff ff ff 3f	 mov	 eax, 1073741823		; 3fffffffH
  0003b	8b d1		 mov	 edx, ecx
  0003d	d1 ea		 shr	 edx, 1
  0003f	2b c2		 sub	 eax, edx
  00041	3b c8		 cmp	 ecx, eax
  00043	76 04		 jbe	 SHORT $LN12@Emplace_re

; 1620 :             return _Newsize; // geometric growth would overflow

  00045	8b c7		 mov	 eax, edi
  00047	eb 08		 jmp	 SHORT $LN13@Emplace_re
$LN12@Emplace_re:

; 1621 :         }
; 1622 : 
; 1623 :         const size_type _Geometric = _Oldcapacity + _Oldcapacity / 2;

  00049	8d 04 0a	 lea	 eax, DWORD PTR [edx+ecx]

; 1624 : 
; 1625 :         if (_Geometric < _Newsize) {

  0004c	3b c7		 cmp	 eax, edi
  0004e	0f 42 c7	 cmovb	 eax, edi
$LN13@Emplace_re:
; File C:\Program Files (x86)\Microsoft Visual Studio\2019\Community\VC\Tools\MSVC\14.27.29110\include\xmemory

; 60   :         if (_Count > _Max_possible) {

  00051	3d ff ff ff 3f	 cmp	 eax, 1073741823		; 3fffffffH
  00056	0f 87 8f 00 00
	00		 ja	 $LN40@Emplace_re

; 62   :         }
; 63   :     }
; 64   : 
; 65   :     return _Count * _Ty_size;

  0005c	c1 e0 02	 shl	 eax, 2

; 807  :         return static_cast<_Ty*>(_Allocate<_New_alignof<_Ty>>(_Get_size_of_n<sizeof(_Ty)>(_Count)));

  0005f	50		 push	 eax

; 65   :     return _Count * _Ty_size;

  00060	89 45 f4	 mov	 DWORD PTR tv436[ebp], eax

; 807  :         return static_cast<_Ty*>(_Allocate<_New_alignof<_Ty>>(_Get_size_of_n<sizeof(_Ty)>(_Count)));

  00063	e8 00 00 00 00	 call	 ??$_Allocate@$07U_Default_allocate_traits@std@@$0A@@std@@YAPAXI@Z ; std::_Allocate<8,std::_Default_allocate_traits,0>
; File C:\Program Files (x86)\Microsoft Visual Studio\2019\Community\VC\Tools\MSVC\14.27.29110\include\vector

; 749  :         _Alty_traits::construct(_Al, _Unfancy(_Newvec + _Whereoff), _STD forward<_Valty>(_Val)...);

  00068	8b 4d 0c	 mov	 ecx, DWORD PTR _<_Val_0>$[ebp]
; File C:\Program Files (x86)\Microsoft Visual Studio\2019\Community\VC\Tools\MSVC\14.27.29110\include\xmemory

; 807  :         return static_cast<_Ty*>(_Allocate<_New_alignof<_Ty>>(_Get_size_of_n<sizeof(_Ty)>(_Count)));

  0006b	8b f8		 mov	 edi, eax
; File C:\Program Files (x86)\Microsoft Visual Studio\2019\Community\VC\Tools\MSVC\14.27.29110\include\vector

; 749  :         _Alty_traits::construct(_Al, _Unfancy(_Newvec + _Whereoff), _STD forward<_Valty>(_Val)...);

  0006d	8d 04 9f	 lea	 eax, DWORD PTR [edi+ebx*4]
; File C:\Program Files (x86)\Microsoft Visual Studio\2019\Community\VC\Tools\MSVC\14.27.29110\include\xmemory

; 807  :         return static_cast<_Ty*>(_Allocate<_New_alignof<_Ty>>(_Get_size_of_n<sizeof(_Ty)>(_Count)));

  00070	83 c4 04	 add	 esp, 4
; File C:\Program Files (x86)\Microsoft Visual Studio\2019\Community\VC\Tools\MSVC\14.27.29110\include\vector

; 752  :         if (_Whereptr == _Mylast) { // at back, provide strong guarantee

  00073	8b 5d 08	 mov	 ebx, DWORD PTR __Whereptr$[ebp]
  00076	89 45 fc	 mov	 DWORD PTR tv435[ebp], eax
  00079	8b 09		 mov	 ecx, DWORD PTR [ecx]
  0007b	89 08		 mov	 DWORD PTR [eax], ecx
  0007d	8b 56 04	 mov	 edx, DWORD PTR [esi+4]
  00080	8b 0e		 mov	 ecx, DWORD PTR [esi]
  00082	3b da		 cmp	 ebx, edx
  00084	75 07		 jne	 SHORT $LN4@Emplace_re

; 753  :             _Umove_if_noexcept(_Myfirst, _Mylast, _Newvec);
; 754  :         } else { // provide basic guarantee

  00086	8b 5d fc	 mov	 ebx, DWORD PTR tv435[ebp]

; 1597 :         _Uninitialized_move(_First, _Last, _Dest, _Getal());

  00089	8b c7		 mov	 eax, edi

; 753  :             _Umove_if_noexcept(_Myfirst, _Mylast, _Newvec);
; 754  :         } else { // provide basic guarantee

  0008b	eb 17		 jmp	 SHORT $LN5@Emplace_re
$LN4@Emplace_re:

; 1592 :         return _Uninitialized_move(_First, _Last, _Dest, _Getal());

  0008d	56		 push	 esi
  0008e	57		 push	 edi
  0008f	53		 push	 ebx
  00090	51		 push	 ecx
  00091	e8 00 00 00 00	 call	 ??$_Uninitialized_move@PAPAVCAABBCollisionInstance@@V?$allocator@PAVCAABBCollisionInstance@@@std@@@std@@YAPAPAVCAABBCollisionInstance@@QAPAV1@0PAPAV1@AAV?$allocator@PAVCAABBCollisionInstance@@@0@@Z ; std::_Uninitialized_move<CAABBCollisionInstance * *,std::allocator<CAABBCollisionInstance *> >
  00096	8b 56 04	 mov	 edx, DWORD PTR [esi+4]
  00099	8b cb		 mov	 ecx, ebx

; 755  :             _Umove(_Myfirst, _Whereptr, _Newvec);
; 756  :             _Constructed_first = _Newvec;
; 757  :             _Umove(_Whereptr, _Mylast, _Newvec + _Whereoff + 1);

  0009b	8b 5d fc	 mov	 ebx, DWORD PTR tv435[ebp]

; 1592 :         return _Uninitialized_move(_First, _Last, _Dest, _Getal());

  0009e	83 c4 10	 add	 esp, 16			; 00000010H

; 755  :             _Umove(_Myfirst, _Whereptr, _Newvec);
; 756  :             _Constructed_first = _Newvec;
; 757  :             _Umove(_Whereptr, _Mylast, _Newvec + _Whereoff + 1);

  000a1	8d 43 04	 lea	 eax, DWORD PTR [ebx+4]
$LN5@Emplace_re:
  000a4	56		 push	 esi
  000a5	50		 push	 eax
  000a6	52		 push	 edx
  000a7	51		 push	 ecx
  000a8	e8 00 00 00 00	 call	 ??$_Uninitialized_move@PAPAVCAABBCollisionInstance@@V?$allocator@PAVCAABBCollisionInstance@@@std@@@std@@YAPAPAVCAABBCollisionInstance@@QAPAV1@0PAPAV1@AAV?$allocator@PAVCAABBCollisionInstance@@@0@@Z ; std::_Uninitialized_move<CAABBCollisionInstance * *,std::allocator<CAABBCollisionInstance *> >

; 1675 :         if (_Myfirst) { // destroy and deallocate old array

  000ad	8b 0e		 mov	 ecx, DWORD PTR [esi]

; 755  :             _Umove(_Myfirst, _Whereptr, _Newvec);
; 756  :             _Constructed_first = _Newvec;
; 757  :             _Umove(_Whereptr, _Mylast, _Newvec + _Whereoff + 1);

  000af	83 c4 10	 add	 esp, 16			; 00000010H

; 1675 :         if (_Myfirst) { // destroy and deallocate old array

  000b2	85 c9		 test	 ecx, ecx
  000b4	74 12		 je	 SHORT $LN33@Emplace_re

; 1676 :             _Destroy(_Myfirst, _Mylast);
; 1677 :             _Getal().deallocate(_Myfirst, static_cast<size_type>(_Myend - _Myfirst));

  000b6	8b 46 08	 mov	 eax, DWORD PTR [esi+8]
  000b9	2b c1		 sub	 eax, ecx
; File C:\Program Files (x86)\Microsoft Visual Studio\2019\Community\VC\Tools\MSVC\14.27.29110\include\xmemory

; 803  :         _Deallocate<_New_alignof<_Ty>>(_Ptr, sizeof(_Ty) * _Count);

  000bb	83 e0 fc	 and	 eax, -4			; fffffffcH
  000be	50		 push	 eax
  000bf	51		 push	 ecx
  000c0	e8 00 00 00 00	 call	 ??$_Deallocate@$07$0A@@std@@YAXPAXI@Z ; std::_Deallocate<8,0>
  000c5	83 c4 08	 add	 esp, 8
$LN33@Emplace_re:
; File C:\Program Files (x86)\Microsoft Visual Studio\2019\Community\VC\Tools\MSVC\14.27.29110\include\vector

; 1681 :         _Mylast  = _Newvec + _Newsize;

  000c8	8b 4d f8	 mov	 ecx, DWORD PTR __Newsize$1$[ebp]

; 758  :         }
; 759  :         _CATCH_ALL
; 760  :         _Destroy(_Constructed_first, _Constructed_last);
; 761  :         _Al.deallocate(_Newvec, _Newcapacity);
; 762  :         _RERAISE;
; 763  :         _CATCH_END
; 764  : 
; 765  :         _Change_array(_Newvec, _Newsize, _Newcapacity);
; 766  :         return _Newvec + _Whereoff;

  000cb	8b c3		 mov	 eax, ebx

; 1680 :         _Myfirst = _Newvec;

  000cd	89 3e		 mov	 DWORD PTR [esi], edi

; 1681 :         _Mylast  = _Newvec + _Newsize;

  000cf	8d 0c 8f	 lea	 ecx, DWORD PTR [edi+ecx*4]
  000d2	89 4e 04	 mov	 DWORD PTR [esi+4], ecx

; 1682 :         _Myend   = _Newvec + _Newcapacity;

  000d5	8b 4d f4	 mov	 ecx, DWORD PTR tv436[ebp]
  000d8	03 cf		 add	 ecx, edi

; 758  :         }
; 759  :         _CATCH_ALL
; 760  :         _Destroy(_Constructed_first, _Constructed_last);
; 761  :         _Al.deallocate(_Newvec, _Newcapacity);
; 762  :         _RERAISE;
; 763  :         _CATCH_END
; 764  : 
; 765  :         _Change_array(_Newvec, _Newsize, _Newcapacity);
; 766  :         return _Newvec + _Whereoff;

  000da	5f		 pop	 edi

; 1682 :         _Myend   = _Newvec + _Newcapacity;

  000db	89 4e 08	 mov	 DWORD PTR [esi+8], ecx

; 758  :         }
; 759  :         _CATCH_ALL
; 760  :         _Destroy(_Constructed_first, _Constructed_last);
; 761  :         _Al.deallocate(_Newvec, _Newcapacity);
; 762  :         _RERAISE;
; 763  :         _CATCH_END
; 764  : 
; 765  :         _Change_array(_Newvec, _Newsize, _Newcapacity);
; 766  :         return _Newvec + _Whereoff;

  000de	5e		 pop	 esi
  000df	5b		 pop	 ebx

; 767  :     }

  000e0	8b e5		 mov	 esp, ebp
  000e2	5d		 pop	 ebp
  000e3	c2 08 00	 ret	 8
$LN39@Emplace_re:

; 738  :             _Xlength();

  000e6	e8 00 00 00 00	 call	 ?_Xlength@?$vector@PAVCAABBCollisionInstance@@V?$allocator@PAVCAABBCollisionInstance@@@std@@@std@@CAXXZ ; std::vector<CAABBCollisionInstance *,std::allocator<CAABBCollisionInstance *> >::_Xlength
$LN40@Emplace_re:
; File C:\Program Files (x86)\Microsoft Visual Studio\2019\Community\VC\Tools\MSVC\14.27.29110\include\xmemory

; 61   :             _Throw_bad_array_new_length(); // multiply overflow

  000eb	e8 00 00 00 00	 call	 ?_Throw_bad_array_new_length@std@@YAXXZ ; std::_Throw_bad_array_new_length
$LN37@Emplace_re:
  000f0	cc		 int	 3
??$_Emplace_reallocate@ABQAVCAABBCollisionInstance@@@?$vector@PAVCAABBCollisionInstance@@V?$allocator@PAVCAABBCollisionInstance@@@std@@@std@@QAEPAPAVCAABBCollisionInstance@@QAPAV2@ABQAV2@@Z ENDP ; std::vector<CAABBCollisionInstance *,std::allocator<CAABBCollisionInstance *> >::_Emplace_reallocate<CAABBCollisionInstance * const &>
_TEXT	ENDS
; Function compile flags: /Ogtp
; File C:\Program Files (x86)\Microsoft Visual Studio\2019\Community\VC\Tools\MSVC\14.27.29110\include\vector
; File C:\Program Files (x86)\Microsoft Visual Studio\2019\Community\VC\Tools\MSVC\14.27.29110\include\xmemory
; File C:\Program Files (x86)\Microsoft Visual Studio\2019\Community\VC\Tools\MSVC\14.27.29110\include\vector
; File C:\Program Files (x86)\Microsoft Visual Studio\2019\Community\VC\Tools\MSVC\14.27.29110\include\xmemory
; File C:\Program Files (x86)\Microsoft Visual Studio\2019\Community\VC\Tools\MSVC\14.27.29110\include\vector
; File C:\Program Files (x86)\Microsoft Visual Studio\2019\Community\VC\Tools\MSVC\14.27.29110\include\xmemory
; File C:\Program Files (x86)\Microsoft Visual Studio\2019\Community\VC\Tools\MSVC\14.27.29110\include\vector
; File C:\Program Files (x86)\Microsoft Visual Studio\2019\Community\VC\Tools\MSVC\14.27.29110\include\xmemory
; File C:\Program Files (x86)\Microsoft Visual Studio\2019\Community\VC\Tools\MSVC\14.27.29110\include\vector
; File C:\Program Files (x86)\Microsoft Visual Studio\2019\Community\VC\Tools\MSVC\14.27.29110\include\xmemory
; File C:\Program Files (x86)\Microsoft Visual Studio\2019\Community\VC\Tools\MSVC\14.27.29110\include\vector
;	COMDAT ??$_Emplace_reallocate@ABQAVCOBBCollisionInstance@@@?$vector@PAVCOBBCollisionInstance@@V?$allocator@PAVCOBBCollisionInstance@@@std@@@std@@QAEPAPAVCOBBCollisionInstance@@QAPAV2@ABQAV2@@Z
_TEXT	SEGMENT
tv436 = -12						; size = 4
__Newsize$1$ = -8					; size = 4
tv435 = -4						; size = 4
__Whereptr$ = 8						; size = 4
_<_Val_0>$ = 12						; size = 4
??$_Emplace_reallocate@ABQAVCOBBCollisionInstance@@@?$vector@PAVCOBBCollisionInstance@@V?$allocator@PAVCOBBCollisionInstance@@@std@@@std@@QAEPAPAVCOBBCollisionInstance@@QAPAV2@ABQAV2@@Z PROC ; std::vector<COBBCollisionInstance *,std::allocator<COBBCollisionInstance *> >::_Emplace_reallocate<COBBCollisionInstance * const &>, COMDAT
; _this$ = ecx

; 725  :     pointer _Emplace_reallocate(const pointer _Whereptr, _Valty&&... _Val) {

  00000	55		 push	 ebp
  00001	8b ec		 mov	 ebp, esp
  00003	83 ec 0c	 sub	 esp, 12			; 0000000cH
  00006	53		 push	 ebx

; 726  :         // reallocate and insert by perfectly forwarding _Val at _Whereptr
; 727  :         _Alty& _Al        = _Getal();
; 728  :         auto& _My_data    = _Mypair._Myval2;
; 729  :         pointer& _Myfirst = _My_data._Myfirst;
; 730  :         pointer& _Mylast  = _My_data._Mylast;
; 731  : 
; 732  :         _STL_INTERNAL_CHECK(_Mylast == _My_data._Myend); // check that we have no unused capacity
; 733  : 
; 734  :         const auto _Whereoff = static_cast<size_type>(_Whereptr - _Myfirst);

  00007	8b 5d 08	 mov	 ebx, DWORD PTR __Whereptr$[ebp]
  0000a	56		 push	 esi
  0000b	8b f1		 mov	 esi, ecx
  0000d	57		 push	 edi
  0000e	8b 16		 mov	 edx, DWORD PTR [esi]
  00010	2b da		 sub	 ebx, edx

; 735  :         const auto _Oldsize  = static_cast<size_type>(_Mylast - _Myfirst);

  00012	8b 46 04	 mov	 eax, DWORD PTR [esi+4]
  00015	2b c2		 sub	 eax, edx
  00017	c1 fb 02	 sar	 ebx, 2
  0001a	c1 f8 02	 sar	 eax, 2

; 736  : 
; 737  :         if (_Oldsize == max_size()) {

  0001d	3d ff ff ff 3f	 cmp	 eax, 1073741823		; 3fffffffH
  00022	0f 84 be 00 00
	00		 je	 $LN39@Emplace_re

; 1494 :         return static_cast<size_type>(_My_data._Myend - _My_data._Myfirst);

  00028	8b 4e 08	 mov	 ecx, DWORD PTR [esi+8]

; 739  :         }
; 740  : 
; 741  :         const size_type _Newsize     = _Oldsize + 1;

  0002b	8d 78 01	 lea	 edi, DWORD PTR [eax+1]

; 1494 :         return static_cast<size_type>(_My_data._Myend - _My_data._Myfirst);

  0002e	2b ca		 sub	 ecx, edx

; 739  :         }
; 740  : 
; 741  :         const size_type _Newsize     = _Oldsize + 1;

  00030	89 7d f8	 mov	 DWORD PTR __Newsize$1$[ebp], edi

; 1494 :         return static_cast<size_type>(_My_data._Myend - _My_data._Myfirst);

  00033	c1 f9 02	 sar	 ecx, 2

; 1619 :         if (_Oldcapacity > max_size() - _Oldcapacity / 2) {

  00036	b8 ff ff ff 3f	 mov	 eax, 1073741823		; 3fffffffH
  0003b	8b d1		 mov	 edx, ecx
  0003d	d1 ea		 shr	 edx, 1
  0003f	2b c2		 sub	 eax, edx
  00041	3b c8		 cmp	 ecx, eax
  00043	76 04		 jbe	 SHORT $LN12@Emplace_re

; 1620 :             return _Newsize; // geometric growth would overflow

  00045	8b c7		 mov	 eax, edi
  00047	eb 08		 jmp	 SHORT $LN13@Emplace_re
$LN12@Emplace_re:

; 1621 :         }
; 1622 : 
; 1623 :         const size_type _Geometric = _Oldcapacity + _Oldcapacity / 2;

  00049	8d 04 0a	 lea	 eax, DWORD PTR [edx+ecx]

; 1624 : 
; 1625 :         if (_Geometric < _Newsize) {

  0004c	3b c7		 cmp	 eax, edi
  0004e	0f 42 c7	 cmovb	 eax, edi
$LN13@Emplace_re:
; File C:\Program Files (x86)\Microsoft Visual Studio\2019\Community\VC\Tools\MSVC\14.27.29110\include\xmemory

; 60   :         if (_Count > _Max_possible) {

  00051	3d ff ff ff 3f	 cmp	 eax, 1073741823		; 3fffffffH
  00056	0f 87 8f 00 00
	00		 ja	 $LN40@Emplace_re

; 62   :         }
; 63   :     }
; 64   : 
; 65   :     return _Count * _Ty_size;

  0005c	c1 e0 02	 shl	 eax, 2

; 807  :         return static_cast<_Ty*>(_Allocate<_New_alignof<_Ty>>(_Get_size_of_n<sizeof(_Ty)>(_Count)));

  0005f	50		 push	 eax

; 65   :     return _Count * _Ty_size;

  00060	89 45 f4	 mov	 DWORD PTR tv436[ebp], eax

; 807  :         return static_cast<_Ty*>(_Allocate<_New_alignof<_Ty>>(_Get_size_of_n<sizeof(_Ty)>(_Count)));

  00063	e8 00 00 00 00	 call	 ??$_Allocate@$07U_Default_allocate_traits@std@@$0A@@std@@YAPAXI@Z ; std::_Allocate<8,std::_Default_allocate_traits,0>
; File C:\Program Files (x86)\Microsoft Visual Studio\2019\Community\VC\Tools\MSVC\14.27.29110\include\vector

; 749  :         _Alty_traits::construct(_Al, _Unfancy(_Newvec + _Whereoff), _STD forward<_Valty>(_Val)...);

  00068	8b 4d 0c	 mov	 ecx, DWORD PTR _<_Val_0>$[ebp]
; File C:\Program Files (x86)\Microsoft Visual Studio\2019\Community\VC\Tools\MSVC\14.27.29110\include\xmemory

; 807  :         return static_cast<_Ty*>(_Allocate<_New_alignof<_Ty>>(_Get_size_of_n<sizeof(_Ty)>(_Count)));

  0006b	8b f8		 mov	 edi, eax
; File C:\Program Files (x86)\Microsoft Visual Studio\2019\Community\VC\Tools\MSVC\14.27.29110\include\vector

; 749  :         _Alty_traits::construct(_Al, _Unfancy(_Newvec + _Whereoff), _STD forward<_Valty>(_Val)...);

  0006d	8d 04 9f	 lea	 eax, DWORD PTR [edi+ebx*4]
; File C:\Program Files (x86)\Microsoft Visual Studio\2019\Community\VC\Tools\MSVC\14.27.29110\include\xmemory

; 807  :         return static_cast<_Ty*>(_Allocate<_New_alignof<_Ty>>(_Get_size_of_n<sizeof(_Ty)>(_Count)));

  00070	83 c4 04	 add	 esp, 4
; File C:\Program Files (x86)\Microsoft Visual Studio\2019\Community\VC\Tools\MSVC\14.27.29110\include\vector

; 752  :         if (_Whereptr == _Mylast) { // at back, provide strong guarantee

  00073	8b 5d 08	 mov	 ebx, DWORD PTR __Whereptr$[ebp]
  00076	89 45 fc	 mov	 DWORD PTR tv435[ebp], eax
  00079	8b 09		 mov	 ecx, DWORD PTR [ecx]
  0007b	89 08		 mov	 DWORD PTR [eax], ecx
  0007d	8b 56 04	 mov	 edx, DWORD PTR [esi+4]
  00080	8b 0e		 mov	 ecx, DWORD PTR [esi]
  00082	3b da		 cmp	 ebx, edx
  00084	75 07		 jne	 SHORT $LN4@Emplace_re

; 753  :             _Umove_if_noexcept(_Myfirst, _Mylast, _Newvec);
; 754  :         } else { // provide basic guarantee

  00086	8b 5d fc	 mov	 ebx, DWORD PTR tv435[ebp]

; 1597 :         _Uninitialized_move(_First, _Last, _Dest, _Getal());

  00089	8b c7		 mov	 eax, edi

; 753  :             _Umove_if_noexcept(_Myfirst, _Mylast, _Newvec);
; 754  :         } else { // provide basic guarantee

  0008b	eb 17		 jmp	 SHORT $LN5@Emplace_re
$LN4@Emplace_re:

; 1592 :         return _Uninitialized_move(_First, _Last, _Dest, _Getal());

  0008d	56		 push	 esi
  0008e	57		 push	 edi
  0008f	53		 push	 ebx
  00090	51		 push	 ecx
  00091	e8 00 00 00 00	 call	 ??$_Uninitialized_move@PAPAVCOBBCollisionInstance@@V?$allocator@PAVCOBBCollisionInstance@@@std@@@std@@YAPAPAVCOBBCollisionInstance@@QAPAV1@0PAPAV1@AAV?$allocator@PAVCOBBCollisionInstance@@@0@@Z ; std::_Uninitialized_move<COBBCollisionInstance * *,std::allocator<COBBCollisionInstance *> >
  00096	8b 56 04	 mov	 edx, DWORD PTR [esi+4]
  00099	8b cb		 mov	 ecx, ebx

; 755  :             _Umove(_Myfirst, _Whereptr, _Newvec);
; 756  :             _Constructed_first = _Newvec;
; 757  :             _Umove(_Whereptr, _Mylast, _Newvec + _Whereoff + 1);

  0009b	8b 5d fc	 mov	 ebx, DWORD PTR tv435[ebp]

; 1592 :         return _Uninitialized_move(_First, _Last, _Dest, _Getal());

  0009e	83 c4 10	 add	 esp, 16			; 00000010H

; 755  :             _Umove(_Myfirst, _Whereptr, _Newvec);
; 756  :             _Constructed_first = _Newvec;
; 757  :             _Umove(_Whereptr, _Mylast, _Newvec + _Whereoff + 1);

  000a1	8d 43 04	 lea	 eax, DWORD PTR [ebx+4]
$LN5@Emplace_re:
  000a4	56		 push	 esi
  000a5	50		 push	 eax
  000a6	52		 push	 edx
  000a7	51		 push	 ecx
  000a8	e8 00 00 00 00	 call	 ??$_Uninitialized_move@PAPAVCOBBCollisionInstance@@V?$allocator@PAVCOBBCollisionInstance@@@std@@@std@@YAPAPAVCOBBCollisionInstance@@QAPAV1@0PAPAV1@AAV?$allocator@PAVCOBBCollisionInstance@@@0@@Z ; std::_Uninitialized_move<COBBCollisionInstance * *,std::allocator<COBBCollisionInstance *> >

; 1675 :         if (_Myfirst) { // destroy and deallocate old array

  000ad	8b 0e		 mov	 ecx, DWORD PTR [esi]

; 755  :             _Umove(_Myfirst, _Whereptr, _Newvec);
; 756  :             _Constructed_first = _Newvec;
; 757  :             _Umove(_Whereptr, _Mylast, _Newvec + _Whereoff + 1);

  000af	83 c4 10	 add	 esp, 16			; 00000010H

; 1675 :         if (_Myfirst) { // destroy and deallocate old array

  000b2	85 c9		 test	 ecx, ecx
  000b4	74 12		 je	 SHORT $LN33@Emplace_re

; 1676 :             _Destroy(_Myfirst, _Mylast);
; 1677 :             _Getal().deallocate(_Myfirst, static_cast<size_type>(_Myend - _Myfirst));

  000b6	8b 46 08	 mov	 eax, DWORD PTR [esi+8]
  000b9	2b c1		 sub	 eax, ecx
; File C:\Program Files (x86)\Microsoft Visual Studio\2019\Community\VC\Tools\MSVC\14.27.29110\include\xmemory

; 803  :         _Deallocate<_New_alignof<_Ty>>(_Ptr, sizeof(_Ty) * _Count);

  000bb	83 e0 fc	 and	 eax, -4			; fffffffcH
  000be	50		 push	 eax
  000bf	51		 push	 ecx
  000c0	e8 00 00 00 00	 call	 ??$_Deallocate@$07$0A@@std@@YAXPAXI@Z ; std::_Deallocate<8,0>
  000c5	83 c4 08	 add	 esp, 8
$LN33@Emplace_re:
; File C:\Program Files (x86)\Microsoft Visual Studio\2019\Community\VC\Tools\MSVC\14.27.29110\include\vector

; 1681 :         _Mylast  = _Newvec + _Newsize;

  000c8	8b 4d f8	 mov	 ecx, DWORD PTR __Newsize$1$[ebp]

; 758  :         }
; 759  :         _CATCH_ALL
; 760  :         _Destroy(_Constructed_first, _Constructed_last);
; 761  :         _Al.deallocate(_Newvec, _Newcapacity);
; 762  :         _RERAISE;
; 763  :         _CATCH_END
; 764  : 
; 765  :         _Change_array(_Newvec, _Newsize, _Newcapacity);
; 766  :         return _Newvec + _Whereoff;

  000cb	8b c3		 mov	 eax, ebx

; 1680 :         _Myfirst = _Newvec;

  000cd	89 3e		 mov	 DWORD PTR [esi], edi

; 1681 :         _Mylast  = _Newvec + _Newsize;

  000cf	8d 0c 8f	 lea	 ecx, DWORD PTR [edi+ecx*4]
  000d2	89 4e 04	 mov	 DWORD PTR [esi+4], ecx

; 1682 :         _Myend   = _Newvec + _Newcapacity;

  000d5	8b 4d f4	 mov	 ecx, DWORD PTR tv436[ebp]
  000d8	03 cf		 add	 ecx, edi

; 758  :         }
; 759  :         _CATCH_ALL
; 760  :         _Destroy(_Constructed_first, _Constructed_last);
; 761  :         _Al.deallocate(_Newvec, _Newcapacity);
; 762  :         _RERAISE;
; 763  :         _CATCH_END
; 764  : 
; 765  :         _Change_array(_Newvec, _Newsize, _Newcapacity);
; 766  :         return _Newvec + _Whereoff;

  000da	5f		 pop	 edi

; 1682 :         _Myend   = _Newvec + _Newcapacity;

  000db	89 4e 08	 mov	 DWORD PTR [esi+8], ecx

; 758  :         }
; 759  :         _CATCH_ALL
; 760  :         _Destroy(_Constructed_first, _Constructed_last);
; 761  :         _Al.deallocate(_Newvec, _Newcapacity);
; 762  :         _RERAISE;
; 763  :         _CATCH_END
; 764  : 
; 765  :         _Change_array(_Newvec, _Newsize, _Newcapacity);
; 766  :         return _Newvec + _Whereoff;

  000de	5e		 pop	 esi
  000df	5b		 pop	 ebx

; 767  :     }

  000e0	8b e5		 mov	 esp, ebp
  000e2	5d		 pop	 ebp
  000e3	c2 08 00	 ret	 8
$LN39@Emplace_re:

; 738  :             _Xlength();

  000e6	e8 00 00 00 00	 call	 ?_Xlength@?$vector@PAVCOBBCollisionInstance@@V?$allocator@PAVCOBBCollisionInstance@@@std@@@std@@CAXXZ ; std::vector<COBBCollisionInstance *,std::allocator<COBBCollisionInstance *> >::_Xlength
$LN40@Emplace_re:
; File C:\Program Files (x86)\Microsoft Visual Studio\2019\Community\VC\Tools\MSVC\14.27.29110\include\xmemory

; 61   :             _Throw_bad_array_new_length(); // multiply overflow

  000eb	e8 00 00 00 00	 call	 ?_Throw_bad_array_new_length@std@@YAXXZ ; std::_Throw_bad_array_new_length
$LN37@Emplace_re:
  000f0	cc		 int	 3
??$_Emplace_reallocate@ABQAVCOBBCollisionInstance@@@?$vector@PAVCOBBCollisionInstance@@V?$allocator@PAVCOBBCollisionInstance@@@std@@@std@@QAEPAPAVCOBBCollisionInstance@@QAPAV2@ABQAV2@@Z ENDP ; std::vector<COBBCollisionInstance *,std::allocator<COBBCollisionInstance *> >::_Emplace_reallocate<COBBCollisionInstance * const &>
_TEXT	ENDS
; Function compile flags: /Ogtp
;	COMDAT ??__Fs@?1??Render@COBBCollisionInstance@@UAEXW4_D3DFILLMODE@@@Z@YAXXZ
text$yd	SEGMENT
??__Fs@?1??Render@COBBCollisionInstance@@UAEXW4_D3DFILLMODE@@@Z@YAXXZ PROC ; `COBBCollisionInstance::Render'::`2'::`dynamic atexit destructor for 's'', COMDAT
  00000	b9 00 00 00 00	 mov	 ecx, OFFSET ?s@?1??Render@COBBCollisionInstance@@UAEXW4_D3DFILLMODE@@@Z@4VCScreen@@A
  00005	e9 00 00 00 00	 jmp	 ??1CScreen@@UAE@XZ	; CScreen::~CScreen
??__Fs@?1??Render@COBBCollisionInstance@@UAEXW4_D3DFILLMODE@@@Z@YAXXZ ENDP ; `COBBCollisionInstance::Render'::`2'::`dynamic atexit destructor for 's''
text$yd	ENDS
; Function compile flags: /Ogtp
;	COMDAT ??__Fs@?1??Render@CAABBCollisionInstance@@UAEXW4_D3DFILLMODE@@@Z@YAXXZ
text$yd	SEGMENT
??__Fs@?1??Render@CAABBCollisionInstance@@UAEXW4_D3DFILLMODE@@@Z@YAXXZ PROC ; `CAABBCollisionInstance::Render'::`2'::`dynamic atexit destructor for 's'', COMDAT
  00000	b9 00 00 00 00	 mov	 ecx, OFFSET ?s@?1??Render@CAABBCollisionInstance@@UAEXW4_D3DFILLMODE@@@Z@4VCScreen@@A
  00005	e9 00 00 00 00	 jmp	 ??1CScreen@@UAE@XZ	; CScreen::~CScreen
??__Fs@?1??Render@CAABBCollisionInstance@@UAEXW4_D3DFILLMODE@@@Z@YAXXZ ENDP ; `CAABBCollisionInstance::Render'::`2'::`dynamic atexit destructor for 's''
text$yd	ENDS
; Function compile flags: /Ogtp
;	COMDAT ??__Fs@?1??Render@CCylinderCollisionInstance@@UAEXW4_D3DFILLMODE@@@Z@YAXXZ
text$yd	SEGMENT
??__Fs@?1??Render@CCylinderCollisionInstance@@UAEXW4_D3DFILLMODE@@@Z@YAXXZ PROC ; `CCylinderCollisionInstance::Render'::`2'::`dynamic atexit destructor for 's'', COMDAT
  00000	b9 00 00 00 00	 mov	 ecx, OFFSET ?s@?1??Render@CCylinderCollisionInstance@@UAEXW4_D3DFILLMODE@@@Z@4VCScreen@@A
  00005	e9 00 00 00 00	 jmp	 ??1CScreen@@UAE@XZ	; CScreen::~CScreen
??__Fs@?1??Render@CCylinderCollisionInstance@@UAEXW4_D3DFILLMODE@@@Z@YAXXZ ENDP ; `CCylinderCollisionInstance::Render'::`2'::`dynamic atexit destructor for 's''
text$yd	ENDS
; Function compile flags: /Ogtp
;	COMDAT ??__Fs@?1??Render@CPlaneCollisionInstance@@UAEXW4_D3DFILLMODE@@@Z@YAXXZ
text$yd	SEGMENT
??__Fs@?1??Render@CPlaneCollisionInstance@@UAEXW4_D3DFILLMODE@@@Z@YAXXZ PROC ; `CPlaneCollisionInstance::Render'::`2'::`dynamic atexit destructor for 's'', COMDAT
  00000	b9 00 00 00 00	 mov	 ecx, OFFSET ?s@?1??Render@CPlaneCollisionInstance@@UAEXW4_D3DFILLMODE@@@Z@4VCScreen@@A
  00005	e9 00 00 00 00	 jmp	 ??1CScreen@@UAE@XZ	; CScreen::~CScreen
??__Fs@?1??Render@CPlaneCollisionInstance@@UAEXW4_D3DFILLMODE@@@Z@YAXXZ ENDP ; `CPlaneCollisionInstance::Render'::`2'::`dynamic atexit destructor for 's''
text$yd	ENDS
; Function compile flags: /Ogtp
;	COMDAT ??__Fs@?1??Render@CSphereCollisionInstance@@UAEXW4_D3DFILLMODE@@@Z@YAXXZ
text$yd	SEGMENT
??__Fs@?1??Render@CSphereCollisionInstance@@UAEXW4_D3DFILLMODE@@@Z@YAXXZ PROC ; `CSphereCollisionInstance::Render'::`2'::`dynamic atexit destructor for 's'', COMDAT
  00000	b9 00 00 00 00	 mov	 ecx, OFFSET ?s@?1??Render@CSphereCollisionInstance@@UAEXW4_D3DFILLMODE@@@Z@4VCScreen@@A
  00005	e9 00 00 00 00	 jmp	 ??1CScreen@@UAE@XZ	; CScreen::~CScreen
??__Fs@?1??Render@CSphereCollisionInstance@@UAEXW4_D3DFILLMODE@@@Z@YAXXZ ENDP ; `CSphereCollisionInstance::Render'::`2'::`dynamic atexit destructor for 's''
text$yd	ENDS
; Function compile flags: /Ogtp
;	COMDAT ??__Fgs_oci@@YAXXZ
text$yd	SEGMENT
??__Fgs_oci@@YAXXZ PROC					; `dynamic atexit destructor for 'gs_oci'', COMDAT
  00000	b9 00 00 00 00	 mov	 ecx, OFFSET ?gs_oci@@3V?$CDynamicPool@VCOBBCollisionInstance@@@@A ; gs_oci
  00005	e9 00 00 00 00	 jmp	 ??1?$CDynamicPool@VCOBBCollisionInstance@@@@UAE@XZ ; CDynamicPool<COBBCollisionInstance>::~CDynamicPool<COBBCollisionInstance>
??__Fgs_oci@@YAXXZ ENDP					; `dynamic atexit destructor for 'gs_oci''
text$yd	ENDS
; Function compile flags: /Ogtp
; File C:\DS Project\DS Files\Source\ClientSource\Client\EterLib\CollisionData.cpp
;	COMDAT ??__Egs_oci@@YAXXZ
text$di	SEGMENT
??__Egs_oci@@YAXXZ PROC					; `dynamic initializer for 'gs_oci'', COMDAT

; 22   : CDynamicPool<COBBCollisionInstance> gs_oci;

  00000	68 00 00 00 00	 push	 OFFSET ??__Fgs_oci@@YAXXZ ; `dynamic atexit destructor for 'gs_oci''
  00005	e8 00 00 00 00	 call	 _atexit
  0000a	59		 pop	 ecx
  0000b	c3		 ret	 0
??__Egs_oci@@YAXXZ ENDP					; `dynamic initializer for 'gs_oci''
text$di	ENDS
; Function compile flags: /Ogtp
;	COMDAT ??_G?$CDynamicPool@VCOBBCollisionInstance@@@@UAEPAXI@Z
_TEXT	SEGMENT
___flags$ = 8						; size = 4
??_G?$CDynamicPool@VCOBBCollisionInstance@@@@UAEPAXI@Z PROC ; CDynamicPool<COBBCollisionInstance>::`scalar deleting destructor', COMDAT
; _this$ = ecx
  00000	55		 push	 ebp
  00001	8b ec		 mov	 ebp, esp
  00003	56		 push	 esi
  00004	8b f1		 mov	 esi, ecx
  00006	e8 00 00 00 00	 call	 ??1?$CDynamicPool@VCOBBCollisionInstance@@@@UAE@XZ ; CDynamicPool<COBBCollisionInstance>::~CDynamicPool<COBBCollisionInstance>
  0000b	f6 45 08 01	 test	 BYTE PTR ___flags$[ebp], 1
  0000f	74 0b		 je	 SHORT $LN4@scalar
  00011	6a 24		 push	 36			; 00000024H
  00013	56		 push	 esi
  00014	e8 00 00 00 00	 call	 ??3@YAXPAXI@Z		; operator delete
  00019	83 c4 08	 add	 esp, 8
$LN4@scalar:
  0001c	8b c6		 mov	 eax, esi
  0001e	5e		 pop	 esi
  0001f	5d		 pop	 ebp
  00020	c2 04 00	 ret	 4
??_G?$CDynamicPool@VCOBBCollisionInstance@@@@UAEPAXI@Z ENDP ; CDynamicPool<COBBCollisionInstance>::`scalar deleting destructor'
_TEXT	ENDS
; Function compile flags: /Ogtp
; File C:\Program Files (x86)\Microsoft Visual Studio\2019\Community\VC\Tools\MSVC\14.27.29110\include\vector
;	COMDAT ?_Xlength@?$vector@PAVCOBBCollisionInstance@@V?$allocator@PAVCOBBCollisionInstance@@@std@@@std@@CAXXZ
_TEXT	SEGMENT
?_Xlength@?$vector@PAVCOBBCollisionInstance@@V?$allocator@PAVCOBBCollisionInstance@@@std@@@std@@CAXXZ PROC ; std::vector<COBBCollisionInstance *,std::allocator<COBBCollisionInstance *> >::_Xlength, COMDAT

; 1704 :         _Xlength_error("vector too long");

  00000	68 00 00 00 00	 push	 OFFSET ??_C@_0BA@FOIKENOD@vector?5too?5long@
  00005	e8 00 00 00 00	 call	 ?_Xlength_error@std@@YAXPBD@Z ; std::_Xlength_error
$LN3@Xlength:
  0000a	cc		 int	 3
?_Xlength@?$vector@PAVCOBBCollisionInstance@@V?$allocator@PAVCOBBCollisionInstance@@@std@@@std@@CAXXZ ENDP ; std::vector<COBBCollisionInstance *,std::allocator<COBBCollisionInstance *> >::_Xlength
_TEXT	ENDS
; Function compile flags: /Ogtp
; File C:\DS Project\DS Files\Source\ClientSource\Client\EterLib\Pool.h
;	COMDAT ?Delete@?$CDynamicPool@VCOBBCollisionInstance@@@@KAXPAVCOBBCollisionInstance@@@Z
_TEXT	SEGMENT
_pkData$ = 8						; size = 4
?Delete@?$CDynamicPool@VCOBBCollisionInstance@@@@KAXPAVCOBBCollisionInstance@@@Z PROC ; CDynamicPool<COBBCollisionInstance>::Delete, COMDAT

; 109  : 		{

  00000	55		 push	 ebp
  00001	8b ec		 mov	 ebp, esp

; 110  : 			delete pkData;

  00003	6a 5c		 push	 92			; 0000005cH
  00005	ff 75 08	 push	 DWORD PTR _pkData$[ebp]
  00008	e8 00 00 00 00	 call	 ??3@YAXPAXI@Z		; operator delete
  0000d	83 c4 08	 add	 esp, 8

; 111  : 		}

  00010	5d		 pop	 ebp
  00011	c3		 ret	 0
?Delete@?$CDynamicPool@VCOBBCollisionInstance@@@@KAXPAVCOBBCollisionInstance@@@Z ENDP ; CDynamicPool<COBBCollisionInstance>::Delete
_TEXT	ENDS
; Function compile flags: /Ogtp
; File C:\DS Project\DS Files\Source\ClientSource\Client\EterLib\Pool.h
; File C:\Program Files (x86)\Microsoft Visual Studio\2019\Community\VC\Tools\MSVC\14.27.29110\include\vector
; File C:\Program Files (x86)\Microsoft Visual Studio\2019\Community\VC\Tools\MSVC\14.27.29110\include\xmemory
; File C:\Program Files (x86)\Microsoft Visual Studio\2019\Community\VC\Tools\MSVC\14.27.29110\include\vector
; File C:\Program Files (x86)\Microsoft Visual Studio\2019\Community\VC\Tools\MSVC\14.27.29110\include\xmemory
; File C:\Program Files (x86)\Microsoft Visual Studio\2019\Community\VC\Tools\MSVC\14.27.29110\include\vector
; File C:\Program Files (x86)\Microsoft Visual Studio\2019\Community\VC\Tools\MSVC\14.27.29110\include\xmemory
; File C:\Program Files (x86)\Microsoft Visual Studio\2019\Community\VC\Tools\MSVC\14.27.29110\include\vector
; File C:\Program Files (x86)\Microsoft Visual Studio\2019\Community\VC\Tools\MSVC\14.27.29110\include\xmemory
; File C:\Program Files (x86)\Microsoft Visual Studio\2019\Community\VC\Tools\MSVC\14.27.29110\include\vector
; File C:\DS Project\DS Files\Source\ClientSource\Client\EterLib\Pool.h
;	COMDAT ??1?$CDynamicPool@VCOBBCollisionInstance@@@@UAE@XZ
_TEXT	SEGMENT
??1?$CDynamicPool@VCOBBCollisionInstance@@@@UAE@XZ PROC	; CDynamicPool<COBBCollisionInstance>::~CDynamicPool<COBBCollisionInstance>, COMDAT
; _this$ = ecx

; 18   : 		{

  00000	56		 push	 esi
  00001	8b f1		 mov	 esi, ecx
  00003	c7 06 00 00 00
	00		 mov	 DWORD PTR [esi], OFFSET ??_7?$CDynamicPool@VCOBBCollisionInstance@@@@6B@
; File C:\Program Files (x86)\Microsoft Visual Studio\2019\Community\VC\Tools\MSVC\14.27.29110\include\vector

; 1693 :         if (_Myfirst) { // destroy and deallocate old array

  00009	8b 4e 10	 mov	 ecx, DWORD PTR [esi+16]
  0000c	85 c9		 test	 ecx, ecx
  0000e	74 27		 je	 SHORT $LN6@CDynamicPo

; 1694 :             _Destroy(_Myfirst, _Mylast);
; 1695 :             _Getal().deallocate(_Myfirst, static_cast<size_type>(_Myend - _Myfirst));

  00010	8b 46 18	 mov	 eax, DWORD PTR [esi+24]
  00013	2b c1		 sub	 eax, ecx
; File C:\Program Files (x86)\Microsoft Visual Studio\2019\Community\VC\Tools\MSVC\14.27.29110\include\xmemory

; 803  :         _Deallocate<_New_alignof<_Ty>>(_Ptr, sizeof(_Ty) * _Count);

  00015	83 e0 fc	 and	 eax, -4			; fffffffcH
  00018	50		 push	 eax
  00019	51		 push	 ecx
  0001a	e8 00 00 00 00	 call	 ??$_Deallocate@$07$0A@@std@@YAXPAXI@Z ; std::_Deallocate<8,0>
; File C:\Program Files (x86)\Microsoft Visual Studio\2019\Community\VC\Tools\MSVC\14.27.29110\include\vector

; 1697 :             _Myfirst = pointer();

  0001f	c7 46 10 00 00
	00 00		 mov	 DWORD PTR [esi+16], 0
; File C:\Program Files (x86)\Microsoft Visual Studio\2019\Community\VC\Tools\MSVC\14.27.29110\include\xmemory

; 803  :         _Deallocate<_New_alignof<_Ty>>(_Ptr, sizeof(_Ty) * _Count);

  00026	83 c4 08	 add	 esp, 8
; File C:\Program Files (x86)\Microsoft Visual Studio\2019\Community\VC\Tools\MSVC\14.27.29110\include\vector

; 1698 :             _Mylast  = pointer();

  00029	c7 46 14 00 00
	00 00		 mov	 DWORD PTR [esi+20], 0

; 1699 :             _Myend   = pointer();

  00030	c7 46 18 00 00
	00 00		 mov	 DWORD PTR [esi+24], 0
$LN6@CDynamicPo:

; 1693 :         if (_Myfirst) { // destroy and deallocate old array

  00037	8b 4e 04	 mov	 ecx, DWORD PTR [esi+4]
  0003a	85 c9		 test	 ecx, ecx
  0003c	74 27		 je	 SHORT $LN13@CDynamicPo

; 1694 :             _Destroy(_Myfirst, _Mylast);
; 1695 :             _Getal().deallocate(_Myfirst, static_cast<size_type>(_Myend - _Myfirst));

  0003e	8b 46 0c	 mov	 eax, DWORD PTR [esi+12]
  00041	2b c1		 sub	 eax, ecx
; File C:\Program Files (x86)\Microsoft Visual Studio\2019\Community\VC\Tools\MSVC\14.27.29110\include\xmemory

; 803  :         _Deallocate<_New_alignof<_Ty>>(_Ptr, sizeof(_Ty) * _Count);

  00043	83 e0 fc	 and	 eax, -4			; fffffffcH
  00046	50		 push	 eax
  00047	51		 push	 ecx
  00048	e8 00 00 00 00	 call	 ??$_Deallocate@$07$0A@@std@@YAXPAXI@Z ; std::_Deallocate<8,0>
; File C:\Program Files (x86)\Microsoft Visual Studio\2019\Community\VC\Tools\MSVC\14.27.29110\include\vector

; 1697 :             _Myfirst = pointer();

  0004d	c7 46 04 00 00
	00 00		 mov	 DWORD PTR [esi+4], 0
; File C:\Program Files (x86)\Microsoft Visual Studio\2019\Community\VC\Tools\MSVC\14.27.29110\include\xmemory

; 803  :         _Deallocate<_New_alignof<_Ty>>(_Ptr, sizeof(_Ty) * _Count);

  00054	83 c4 08	 add	 esp, 8
; File C:\Program Files (x86)\Microsoft Visual Studio\2019\Community\VC\Tools\MSVC\14.27.29110\include\vector

; 1698 :             _Mylast  = pointer();

  00057	c7 46 08 00 00
	00 00		 mov	 DWORD PTR [esi+8], 0

; 1699 :             _Myend   = pointer();

  0005e	c7 46 0c 00 00
	00 00		 mov	 DWORD PTR [esi+12], 0
$LN13@CDynamicPo:
  00065	5e		 pop	 esi
; File C:\DS Project\DS Files\Source\ClientSource\Client\EterLib\Pool.h

; 26   : 		}

  00066	c3		 ret	 0
??1?$CDynamicPool@VCOBBCollisionInstance@@@@UAE@XZ ENDP	; CDynamicPool<COBBCollisionInstance>::~CDynamicPool<COBBCollisionInstance>
_TEXT	ENDS
; Function compile flags: /Ogtp
;	COMDAT ??__Fgs_aci@@YAXXZ
text$yd	SEGMENT
??__Fgs_aci@@YAXXZ PROC					; `dynamic atexit destructor for 'gs_aci'', COMDAT
  00000	b9 00 00 00 00	 mov	 ecx, OFFSET ?gs_aci@@3V?$CDynamicPool@VCAABBCollisionInstance@@@@A ; gs_aci
  00005	e9 00 00 00 00	 jmp	 ??1?$CDynamicPool@VCAABBCollisionInstance@@@@UAE@XZ ; CDynamicPool<CAABBCollisionInstance>::~CDynamicPool<CAABBCollisionInstance>
??__Fgs_aci@@YAXXZ ENDP					; `dynamic atexit destructor for 'gs_aci''
text$yd	ENDS
; Function compile flags: /Ogtp
; File C:\DS Project\DS Files\Source\ClientSource\Client\EterLib\CollisionData.cpp
;	COMDAT ??__Egs_aci@@YAXXZ
text$di	SEGMENT
??__Egs_aci@@YAXXZ PROC					; `dynamic initializer for 'gs_aci'', COMDAT

; 21   : CDynamicPool<CAABBCollisionInstance> gs_aci;

  00000	68 00 00 00 00	 push	 OFFSET ??__Fgs_aci@@YAXXZ ; `dynamic atexit destructor for 'gs_aci''
  00005	e8 00 00 00 00	 call	 _atexit
  0000a	59		 pop	 ecx
  0000b	c3		 ret	 0
??__Egs_aci@@YAXXZ ENDP					; `dynamic initializer for 'gs_aci''
text$di	ENDS
; Function compile flags: /Ogtp
;	COMDAT ??_G?$CDynamicPool@VCAABBCollisionInstance@@@@UAEPAXI@Z
_TEXT	SEGMENT
___flags$ = 8						; size = 4
??_G?$CDynamicPool@VCAABBCollisionInstance@@@@UAEPAXI@Z PROC ; CDynamicPool<CAABBCollisionInstance>::`scalar deleting destructor', COMDAT
; _this$ = ecx
  00000	55		 push	 ebp
  00001	8b ec		 mov	 ebp, esp
  00003	56		 push	 esi
  00004	8b f1		 mov	 esi, ecx
  00006	e8 00 00 00 00	 call	 ??1?$CDynamicPool@VCAABBCollisionInstance@@@@UAE@XZ ; CDynamicPool<CAABBCollisionInstance>::~CDynamicPool<CAABBCollisionInstance>
  0000b	f6 45 08 01	 test	 BYTE PTR ___flags$[ebp], 1
  0000f	74 0b		 je	 SHORT $LN4@scalar
  00011	6a 24		 push	 36			; 00000024H
  00013	56		 push	 esi
  00014	e8 00 00 00 00	 call	 ??3@YAXPAXI@Z		; operator delete
  00019	83 c4 08	 add	 esp, 8
$LN4@scalar:
  0001c	8b c6		 mov	 eax, esi
  0001e	5e		 pop	 esi
  0001f	5d		 pop	 ebp
  00020	c2 04 00	 ret	 4
??_G?$CDynamicPool@VCAABBCollisionInstance@@@@UAEPAXI@Z ENDP ; CDynamicPool<CAABBCollisionInstance>::`scalar deleting destructor'
_TEXT	ENDS
; Function compile flags: /Ogtp
; File C:\Program Files (x86)\Microsoft Visual Studio\2019\Community\VC\Tools\MSVC\14.27.29110\include\vector
;	COMDAT ?_Xlength@?$vector@PAVCAABBCollisionInstance@@V?$allocator@PAVCAABBCollisionInstance@@@std@@@std@@CAXXZ
_TEXT	SEGMENT
?_Xlength@?$vector@PAVCAABBCollisionInstance@@V?$allocator@PAVCAABBCollisionInstance@@@std@@@std@@CAXXZ PROC ; std::vector<CAABBCollisionInstance *,std::allocator<CAABBCollisionInstance *> >::_Xlength, COMDAT

; 1704 :         _Xlength_error("vector too long");

  00000	68 00 00 00 00	 push	 OFFSET ??_C@_0BA@FOIKENOD@vector?5too?5long@
  00005	e8 00 00 00 00	 call	 ?_Xlength_error@std@@YAXPBD@Z ; std::_Xlength_error
$LN3@Xlength:
  0000a	cc		 int	 3
?_Xlength@?$vector@PAVCAABBCollisionInstance@@V?$allocator@PAVCAABBCollisionInstance@@@std@@@std@@CAXXZ ENDP ; std::vector<CAABBCollisionInstance *,std::allocator<CAABBCollisionInstance *> >::_Xlength
_TEXT	ENDS
; Function compile flags: /Ogtp
; File C:\DS Project\DS Files\Source\ClientSource\Client\EterLib\Pool.h
;	COMDAT ?Delete@?$CDynamicPool@VCAABBCollisionInstance@@@@KAXPAVCAABBCollisionInstance@@@Z
_TEXT	SEGMENT
_pkData$ = 8						; size = 4
?Delete@?$CDynamicPool@VCAABBCollisionInstance@@@@KAXPAVCAABBCollisionInstance@@@Z PROC ; CDynamicPool<CAABBCollisionInstance>::Delete, COMDAT

; 109  : 		{

  00000	55		 push	 ebp
  00001	8b ec		 mov	 ebp, esp

; 110  : 			delete pkData;

  00003	6a 1c		 push	 28			; 0000001cH
  00005	ff 75 08	 push	 DWORD PTR _pkData$[ebp]
  00008	e8 00 00 00 00	 call	 ??3@YAXPAXI@Z		; operator delete
  0000d	83 c4 08	 add	 esp, 8

; 111  : 		}

  00010	5d		 pop	 ebp
  00011	c3		 ret	 0
?Delete@?$CDynamicPool@VCAABBCollisionInstance@@@@KAXPAVCAABBCollisionInstance@@@Z ENDP ; CDynamicPool<CAABBCollisionInstance>::Delete
_TEXT	ENDS
; Function compile flags: /Ogtp
; File C:\DS Project\DS Files\Source\ClientSource\Client\EterLib\Pool.h
; File C:\Program Files (x86)\Microsoft Visual Studio\2019\Community\VC\Tools\MSVC\14.27.29110\include\vector
; File C:\Program Files (x86)\Microsoft Visual Studio\2019\Community\VC\Tools\MSVC\14.27.29110\include\xmemory
; File C:\Program Files (x86)\Microsoft Visual Studio\2019\Community\VC\Tools\MSVC\14.27.29110\include\vector
; File C:\Program Files (x86)\Microsoft Visual Studio\2019\Community\VC\Tools\MSVC\14.27.29110\include\xmemory
; File C:\Program Files (x86)\Microsoft Visual Studio\2019\Community\VC\Tools\MSVC\14.27.29110\include\vector
; File C:\Program Files (x86)\Microsoft Visual Studio\2019\Community\VC\Tools\MSVC\14.27.29110\include\xmemory
; File C:\Program Files (x86)\Microsoft Visual Studio\2019\Community\VC\Tools\MSVC\14.27.29110\include\vector
; File C:\Program Files (x86)\Microsoft Visual Studio\2019\Community\VC\Tools\MSVC\14.27.29110\include\xmemory
; File C:\Program Files (x86)\Microsoft Visual Studio\2019\Community\VC\Tools\MSVC\14.27.29110\include\vector
; File C:\DS Project\DS Files\Source\ClientSource\Client\EterLib\Pool.h
;	COMDAT ??1?$CDynamicPool@VCAABBCollisionInstance@@@@UAE@XZ
_TEXT	SEGMENT
??1?$CDynamicPool@VCAABBCollisionInstance@@@@UAE@XZ PROC ; CDynamicPool<CAABBCollisionInstance>::~CDynamicPool<CAABBCollisionInstance>, COMDAT
; _this$ = ecx

; 18   : 		{

  00000	56		 push	 esi
  00001	8b f1		 mov	 esi, ecx
  00003	c7 06 00 00 00
	00		 mov	 DWORD PTR [esi], OFFSET ??_7?$CDynamicPool@VCAABBCollisionInstance@@@@6B@
; File C:\Program Files (x86)\Microsoft Visual Studio\2019\Community\VC\Tools\MSVC\14.27.29110\include\vector

; 1693 :         if (_Myfirst) { // destroy and deallocate old array

  00009	8b 4e 10	 mov	 ecx, DWORD PTR [esi+16]
  0000c	85 c9		 test	 ecx, ecx
  0000e	74 27		 je	 SHORT $LN6@CDynamicPo

; 1694 :             _Destroy(_Myfirst, _Mylast);
; 1695 :             _Getal().deallocate(_Myfirst, static_cast<size_type>(_Myend - _Myfirst));

  00010	8b 46 18	 mov	 eax, DWORD PTR [esi+24]
  00013	2b c1		 sub	 eax, ecx
; File C:\Program Files (x86)\Microsoft Visual Studio\2019\Community\VC\Tools\MSVC\14.27.29110\include\xmemory

; 803  :         _Deallocate<_New_alignof<_Ty>>(_Ptr, sizeof(_Ty) * _Count);

  00015	83 e0 fc	 and	 eax, -4			; fffffffcH
  00018	50		 push	 eax
  00019	51		 push	 ecx
  0001a	e8 00 00 00 00	 call	 ??$_Deallocate@$07$0A@@std@@YAXPAXI@Z ; std::_Deallocate<8,0>
; File C:\Program Files (x86)\Microsoft Visual Studio\2019\Community\VC\Tools\MSVC\14.27.29110\include\vector

; 1697 :             _Myfirst = pointer();

  0001f	c7 46 10 00 00
	00 00		 mov	 DWORD PTR [esi+16], 0
; File C:\Program Files (x86)\Microsoft Visual Studio\2019\Community\VC\Tools\MSVC\14.27.29110\include\xmemory

; 803  :         _Deallocate<_New_alignof<_Ty>>(_Ptr, sizeof(_Ty) * _Count);

  00026	83 c4 08	 add	 esp, 8
; File C:\Program Files (x86)\Microsoft Visual Studio\2019\Community\VC\Tools\MSVC\14.27.29110\include\vector

; 1698 :             _Mylast  = pointer();

  00029	c7 46 14 00 00
	00 00		 mov	 DWORD PTR [esi+20], 0

; 1699 :             _Myend   = pointer();

  00030	c7 46 18 00 00
	00 00		 mov	 DWORD PTR [esi+24], 0
$LN6@CDynamicPo:

; 1693 :         if (_Myfirst) { // destroy and deallocate old array

  00037	8b 4e 04	 mov	 ecx, DWORD PTR [esi+4]
  0003a	85 c9		 test	 ecx, ecx
  0003c	74 27		 je	 SHORT $LN13@CDynamicPo

; 1694 :             _Destroy(_Myfirst, _Mylast);
; 1695 :             _Getal().deallocate(_Myfirst, static_cast<size_type>(_Myend - _Myfirst));

  0003e	8b 46 0c	 mov	 eax, DWORD PTR [esi+12]
  00041	2b c1		 sub	 eax, ecx
; File C:\Program Files (x86)\Microsoft Visual Studio\2019\Community\VC\Tools\MSVC\14.27.29110\include\xmemory

; 803  :         _Deallocate<_New_alignof<_Ty>>(_Ptr, sizeof(_Ty) * _Count);

  00043	83 e0 fc	 and	 eax, -4			; fffffffcH
  00046	50		 push	 eax
  00047	51		 push	 ecx
  00048	e8 00 00 00 00	 call	 ??$_Deallocate@$07$0A@@std@@YAXPAXI@Z ; std::_Deallocate<8,0>
; File C:\Program Files (x86)\Microsoft Visual Studio\2019\Community\VC\Tools\MSVC\14.27.29110\include\vector

; 1697 :             _Myfirst = pointer();

  0004d	c7 46 04 00 00
	00 00		 mov	 DWORD PTR [esi+4], 0
; File C:\Program Files (x86)\Microsoft Visual Studio\2019\Community\VC\Tools\MSVC\14.27.29110\include\xmemory

; 803  :         _Deallocate<_New_alignof<_Ty>>(_Ptr, sizeof(_Ty) * _Count);

  00054	83 c4 08	 add	 esp, 8
; File C:\Program Files (x86)\Microsoft Visual Studio\2019\Community\VC\Tools\MSVC\14.27.29110\include\vector

; 1698 :             _Mylast  = pointer();

  00057	c7 46 08 00 00
	00 00		 mov	 DWORD PTR [esi+8], 0

; 1699 :             _Myend   = pointer();

  0005e	c7 46 0c 00 00
	00 00		 mov	 DWORD PTR [esi+12], 0
$LN13@CDynamicPo:
  00065	5e		 pop	 esi
; File C:\DS Project\DS Files\Source\ClientSource\Client\EterLib\Pool.h

; 26   : 		}

  00066	c3		 ret	 0
??1?$CDynamicPool@VCAABBCollisionInstance@@@@UAE@XZ ENDP ; CDynamicPool<CAABBCollisionInstance>::~CDynamicPool<CAABBCollisionInstance>
_TEXT	ENDS
; Function compile flags: /Ogtp
;	COMDAT ??__Fgs_pci@@YAXXZ
text$yd	SEGMENT
??__Fgs_pci@@YAXXZ PROC					; `dynamic atexit destructor for 'gs_pci'', COMDAT
  00000	b9 00 00 00 00	 mov	 ecx, OFFSET ?gs_pci@@3V?$CDynamicPool@VCPlaneCollisionInstance@@@@A ; gs_pci
  00005	e9 00 00 00 00	 jmp	 ??1?$CDynamicPool@VCPlaneCollisionInstance@@@@UAE@XZ ; CDynamicPool<CPlaneCollisionInstance>::~CDynamicPool<CPlaneCollisionInstance>
??__Fgs_pci@@YAXXZ ENDP					; `dynamic atexit destructor for 'gs_pci''
text$yd	ENDS
; Function compile flags: /Ogtp
; File C:\DS Project\DS Files\Source\ClientSource\Client\EterLib\CollisionData.cpp
;	COMDAT ??__Egs_pci@@YAXXZ
text$di	SEGMENT
??__Egs_pci@@YAXXZ PROC					; `dynamic initializer for 'gs_pci'', COMDAT

; 20   : CDynamicPool<CPlaneCollisionInstance> gs_pci;

  00000	68 00 00 00 00	 push	 OFFSET ??__Fgs_pci@@YAXXZ ; `dynamic atexit destructor for 'gs_pci''
  00005	e8 00 00 00 00	 call	 _atexit
  0000a	59		 pop	 ecx
  0000b	c3		 ret	 0
??__Egs_pci@@YAXXZ ENDP					; `dynamic initializer for 'gs_pci''
text$di	ENDS
; Function compile flags: /Ogtp
;	COMDAT ??_G?$CDynamicPool@VCPlaneCollisionInstance@@@@UAEPAXI@Z
_TEXT	SEGMENT
___flags$ = 8						; size = 4
??_G?$CDynamicPool@VCPlaneCollisionInstance@@@@UAEPAXI@Z PROC ; CDynamicPool<CPlaneCollisionInstance>::`scalar deleting destructor', COMDAT
; _this$ = ecx
  00000	55		 push	 ebp
  00001	8b ec		 mov	 ebp, esp
  00003	56		 push	 esi
  00004	8b f1		 mov	 esi, ecx
  00006	e8 00 00 00 00	 call	 ??1?$CDynamicPool@VCPlaneCollisionInstance@@@@UAE@XZ ; CDynamicPool<CPlaneCollisionInstance>::~CDynamicPool<CPlaneCollisionInstance>
  0000b	f6 45 08 01	 test	 BYTE PTR ___flags$[ebp], 1
  0000f	74 0b		 je	 SHORT $LN4@scalar
  00011	6a 24		 push	 36			; 00000024H
  00013	56		 push	 esi
  00014	e8 00 00 00 00	 call	 ??3@YAXPAXI@Z		; operator delete
  00019	83 c4 08	 add	 esp, 8
$LN4@scalar:
  0001c	8b c6		 mov	 eax, esi
  0001e	5e		 pop	 esi
  0001f	5d		 pop	 ebp
  00020	c2 04 00	 ret	 4
??_G?$CDynamicPool@VCPlaneCollisionInstance@@@@UAEPAXI@Z ENDP ; CDynamicPool<CPlaneCollisionInstance>::`scalar deleting destructor'
_TEXT	ENDS
; Function compile flags: /Ogtp
; File C:\Program Files (x86)\Microsoft Visual Studio\2019\Community\VC\Tools\MSVC\14.27.29110\include\vector
;	COMDAT ?_Xlength@?$vector@PAVCPlaneCollisionInstance@@V?$allocator@PAVCPlaneCollisionInstance@@@std@@@std@@CAXXZ
_TEXT	SEGMENT
?_Xlength@?$vector@PAVCPlaneCollisionInstance@@V?$allocator@PAVCPlaneCollisionInstance@@@std@@@std@@CAXXZ PROC ; std::vector<CPlaneCollisionInstance *,std::allocator<CPlaneCollisionInstance *> >::_Xlength, COMDAT

; 1704 :         _Xlength_error("vector too long");

  00000	68 00 00 00 00	 push	 OFFSET ??_C@_0BA@FOIKENOD@vector?5too?5long@
  00005	e8 00 00 00 00	 call	 ?_Xlength_error@std@@YAXPBD@Z ; std::_Xlength_error
$LN3@Xlength:
  0000a	cc		 int	 3
?_Xlength@?$vector@PAVCPlaneCollisionInstance@@V?$allocator@PAVCPlaneCollisionInstance@@@std@@@std@@CAXXZ ENDP ; std::vector<CPlaneCollisionInstance *,std::allocator<CPlaneCollisionInstance *> >::_Xlength
_TEXT	ENDS
; Function compile flags: /Ogtp
; File C:\DS Project\DS Files\Source\ClientSource\Client\EterLib\Pool.h
;	COMDAT ?Delete@?$CDynamicPool@VCPlaneCollisionInstance@@@@KAXPAVCPlaneCollisionInstance@@@Z
_TEXT	SEGMENT
_pkData$ = 8						; size = 4
?Delete@?$CDynamicPool@VCPlaneCollisionInstance@@@@KAXPAVCPlaneCollisionInstance@@@Z PROC ; CDynamicPool<CPlaneCollisionInstance>::Delete, COMDAT

; 109  : 		{

  00000	55		 push	 ebp
  00001	8b ec		 mov	 ebp, esp

; 110  : 			delete pkData;

  00003	6a 7c		 push	 124			; 0000007cH
  00005	ff 75 08	 push	 DWORD PTR _pkData$[ebp]
  00008	e8 00 00 00 00	 call	 ??3@YAXPAXI@Z		; operator delete
  0000d	83 c4 08	 add	 esp, 8

; 111  : 		}

  00010	5d		 pop	 ebp
  00011	c3		 ret	 0
?Delete@?$CDynamicPool@VCPlaneCollisionInstance@@@@KAXPAVCPlaneCollisionInstance@@@Z ENDP ; CDynamicPool<CPlaneCollisionInstance>::Delete
_TEXT	ENDS
; Function compile flags: /Ogtp
; File C:\DS Project\DS Files\Source\ClientSource\Client\EterLib\Pool.h
; File C:\Program Files (x86)\Microsoft Visual Studio\2019\Community\VC\Tools\MSVC\14.27.29110\include\vector
; File C:\Program Files (x86)\Microsoft Visual Studio\2019\Community\VC\Tools\MSVC\14.27.29110\include\xmemory
; File C:\Program Files (x86)\Microsoft Visual Studio\2019\Community\VC\Tools\MSVC\14.27.29110\include\vector
; File C:\Program Files (x86)\Microsoft Visual Studio\2019\Community\VC\Tools\MSVC\14.27.29110\include\xmemory
; File C:\Program Files (x86)\Microsoft Visual Studio\2019\Community\VC\Tools\MSVC\14.27.29110\include\vector
; File C:\Program Files (x86)\Microsoft Visual Studio\2019\Community\VC\Tools\MSVC\14.27.29110\include\xmemory
; File C:\Program Files (x86)\Microsoft Visual Studio\2019\Community\VC\Tools\MSVC\14.27.29110\include\vector
; File C:\Program Files (x86)\Microsoft Visual Studio\2019\Community\VC\Tools\MSVC\14.27.29110\include\xmemory
; File C:\Program Files (x86)\Microsoft Visual Studio\2019\Community\VC\Tools\MSVC\14.27.29110\include\vector
; File C:\DS Project\DS Files\Source\ClientSource\Client\EterLib\Pool.h
;	COMDAT ??1?$CDynamicPool@VCPlaneCollisionInstance@@@@UAE@XZ
_TEXT	SEGMENT
??1?$CDynamicPool@VCPlaneCollisionInstance@@@@UAE@XZ PROC ; CDynamicPool<CPlaneCollisionInstance>::~CDynamicPool<CPlaneCollisionInstance>, COMDAT
; _this$ = ecx

; 18   : 		{

  00000	56		 push	 esi
  00001	8b f1		 mov	 esi, ecx
  00003	c7 06 00 00 00
	00		 mov	 DWORD PTR [esi], OFFSET ??_7?$CDynamicPool@VCPlaneCollisionInstance@@@@6B@
; File C:\Program Files (x86)\Microsoft Visual Studio\2019\Community\VC\Tools\MSVC\14.27.29110\include\vector

; 1693 :         if (_Myfirst) { // destroy and deallocate old array

  00009	8b 4e 10	 mov	 ecx, DWORD PTR [esi+16]
  0000c	85 c9		 test	 ecx, ecx
  0000e	74 27		 je	 SHORT $LN6@CDynamicPo

; 1694 :             _Destroy(_Myfirst, _Mylast);
; 1695 :             _Getal().deallocate(_Myfirst, static_cast<size_type>(_Myend - _Myfirst));

  00010	8b 46 18	 mov	 eax, DWORD PTR [esi+24]
  00013	2b c1		 sub	 eax, ecx
; File C:\Program Files (x86)\Microsoft Visual Studio\2019\Community\VC\Tools\MSVC\14.27.29110\include\xmemory

; 803  :         _Deallocate<_New_alignof<_Ty>>(_Ptr, sizeof(_Ty) * _Count);

  00015	83 e0 fc	 and	 eax, -4			; fffffffcH
  00018	50		 push	 eax
  00019	51		 push	 ecx
  0001a	e8 00 00 00 00	 call	 ??$_Deallocate@$07$0A@@std@@YAXPAXI@Z ; std::_Deallocate<8,0>
; File C:\Program Files (x86)\Microsoft Visual Studio\2019\Community\VC\Tools\MSVC\14.27.29110\include\vector

; 1697 :             _Myfirst = pointer();

  0001f	c7 46 10 00 00
	00 00		 mov	 DWORD PTR [esi+16], 0
; File C:\Program Files (x86)\Microsoft Visual Studio\2019\Community\VC\Tools\MSVC\14.27.29110\include\xmemory

; 803  :         _Deallocate<_New_alignof<_Ty>>(_Ptr, sizeof(_Ty) * _Count);

  00026	83 c4 08	 add	 esp, 8
; File C:\Program Files (x86)\Microsoft Visual Studio\2019\Community\VC\Tools\MSVC\14.27.29110\include\vector

; 1698 :             _Mylast  = pointer();

  00029	c7 46 14 00 00
	00 00		 mov	 DWORD PTR [esi+20], 0

; 1699 :             _Myend   = pointer();

  00030	c7 46 18 00 00
	00 00		 mov	 DWORD PTR [esi+24], 0
$LN6@CDynamicPo:

; 1693 :         if (_Myfirst) { // destroy and deallocate old array

  00037	8b 4e 04	 mov	 ecx, DWORD PTR [esi+4]
  0003a	85 c9		 test	 ecx, ecx
  0003c	74 27		 je	 SHORT $LN13@CDynamicPo

; 1694 :             _Destroy(_Myfirst, _Mylast);
; 1695 :             _Getal().deallocate(_Myfirst, static_cast<size_type>(_Myend - _Myfirst));

  0003e	8b 46 0c	 mov	 eax, DWORD PTR [esi+12]
  00041	2b c1		 sub	 eax, ecx
; File C:\Program Files (x86)\Microsoft Visual Studio\2019\Community\VC\Tools\MSVC\14.27.29110\include\xmemory

; 803  :         _Deallocate<_New_alignof<_Ty>>(_Ptr, sizeof(_Ty) * _Count);

  00043	83 e0 fc	 and	 eax, -4			; fffffffcH
  00046	50		 push	 eax
  00047	51		 push	 ecx
  00048	e8 00 00 00 00	 call	 ??$_Deallocate@$07$0A@@std@@YAXPAXI@Z ; std::_Deallocate<8,0>
; File C:\Program Files (x86)\Microsoft Visual Studio\2019\Community\VC\Tools\MSVC\14.27.29110\include\vector

; 1697 :             _Myfirst = pointer();

  0004d	c7 46 04 00 00
	00 00		 mov	 DWORD PTR [esi+4], 0
; File C:\Program Files (x86)\Microsoft Visual Studio\2019\Community\VC\Tools\MSVC\14.27.29110\include\xmemory

; 803  :         _Deallocate<_New_alignof<_Ty>>(_Ptr, sizeof(_Ty) * _Count);

  00054	83 c4 08	 add	 esp, 8
; File C:\Program Files (x86)\Microsoft Visual Studio\2019\Community\VC\Tools\MSVC\14.27.29110\include\vector

; 1698 :             _Mylast  = pointer();

  00057	c7 46 08 00 00
	00 00		 mov	 DWORD PTR [esi+8], 0

; 1699 :             _Myend   = pointer();

  0005e	c7 46 0c 00 00
	00 00		 mov	 DWORD PTR [esi+12], 0
$LN13@CDynamicPo:
  00065	5e		 pop	 esi
; File C:\DS Project\DS Files\Source\ClientSource\Client\EterLib\Pool.h

; 26   : 		}

  00066	c3		 ret	 0
??1?$CDynamicPool@VCPlaneCollisionInstance@@@@UAE@XZ ENDP ; CDynamicPool<CPlaneCollisionInstance>::~CDynamicPool<CPlaneCollisionInstance>
_TEXT	ENDS
; Function compile flags: /Ogtp
;	COMDAT ??__Fgs_cci@@YAXXZ
text$yd	SEGMENT
??__Fgs_cci@@YAXXZ PROC					; `dynamic atexit destructor for 'gs_cci'', COMDAT
  00000	b9 00 00 00 00	 mov	 ecx, OFFSET ?gs_cci@@3V?$CDynamicPool@VCCylinderCollisionInstance@@@@A ; gs_cci
  00005	e9 00 00 00 00	 jmp	 ??1?$CDynamicPool@VCCylinderCollisionInstance@@@@UAE@XZ ; CDynamicPool<CCylinderCollisionInstance>::~CDynamicPool<CCylinderCollisionInstance>
??__Fgs_cci@@YAXXZ ENDP					; `dynamic atexit destructor for 'gs_cci''
text$yd	ENDS
; Function compile flags: /Ogtp
; File C:\DS Project\DS Files\Source\ClientSource\Client\EterLib\CollisionData.cpp
;	COMDAT ??__Egs_cci@@YAXXZ
text$di	SEGMENT
??__Egs_cci@@YAXXZ PROC					; `dynamic initializer for 'gs_cci'', COMDAT

; 19   : CDynamicPool<CCylinderCollisionInstance> gs_cci;

  00000	68 00 00 00 00	 push	 OFFSET ??__Fgs_cci@@YAXXZ ; `dynamic atexit destructor for 'gs_cci''
  00005	e8 00 00 00 00	 call	 _atexit
  0000a	59		 pop	 ecx
  0000b	c3		 ret	 0
??__Egs_cci@@YAXXZ ENDP					; `dynamic initializer for 'gs_cci''
text$di	ENDS
; Function compile flags: /Ogtp
;	COMDAT ??_G?$CDynamicPool@VCCylinderCollisionInstance@@@@UAEPAXI@Z
_TEXT	SEGMENT
___flags$ = 8						; size = 4
??_G?$CDynamicPool@VCCylinderCollisionInstance@@@@UAEPAXI@Z PROC ; CDynamicPool<CCylinderCollisionInstance>::`scalar deleting destructor', COMDAT
; _this$ = ecx
  00000	55		 push	 ebp
  00001	8b ec		 mov	 ebp, esp
  00003	56		 push	 esi
  00004	8b f1		 mov	 esi, ecx
  00006	e8 00 00 00 00	 call	 ??1?$CDynamicPool@VCCylinderCollisionInstance@@@@UAE@XZ ; CDynamicPool<CCylinderCollisionInstance>::~CDynamicPool<CCylinderCollisionInstance>
  0000b	f6 45 08 01	 test	 BYTE PTR ___flags$[ebp], 1
  0000f	74 0b		 je	 SHORT $LN4@scalar
  00011	6a 24		 push	 36			; 00000024H
  00013	56		 push	 esi
  00014	e8 00 00 00 00	 call	 ??3@YAXPAXI@Z		; operator delete
  00019	83 c4 08	 add	 esp, 8
$LN4@scalar:
  0001c	8b c6		 mov	 eax, esi
  0001e	5e		 pop	 esi
  0001f	5d		 pop	 ebp
  00020	c2 04 00	 ret	 4
??_G?$CDynamicPool@VCCylinderCollisionInstance@@@@UAEPAXI@Z ENDP ; CDynamicPool<CCylinderCollisionInstance>::`scalar deleting destructor'
_TEXT	ENDS
; Function compile flags: /Ogtp
; File C:\Program Files (x86)\Microsoft Visual Studio\2019\Community\VC\Tools\MSVC\14.27.29110\include\vector
;	COMDAT ?_Xlength@?$vector@PAVCCylinderCollisionInstance@@V?$allocator@PAVCCylinderCollisionInstance@@@std@@@std@@CAXXZ
_TEXT	SEGMENT
?_Xlength@?$vector@PAVCCylinderCollisionInstance@@V?$allocator@PAVCCylinderCollisionInstance@@@std@@@std@@CAXXZ PROC ; std::vector<CCylinderCollisionInstance *,std::allocator<CCylinderCollisionInstance *> >::_Xlength, COMDAT

; 1704 :         _Xlength_error("vector too long");

  00000	68 00 00 00 00	 push	 OFFSET ??_C@_0BA@FOIKENOD@vector?5too?5long@
  00005	e8 00 00 00 00	 call	 ?_Xlength_error@std@@YAXPBD@Z ; std::_Xlength_error
$LN3@Xlength:
  0000a	cc		 int	 3
?_Xlength@?$vector@PAVCCylinderCollisionInstance@@V?$allocator@PAVCCylinderCollisionInstance@@@std@@@std@@CAXXZ ENDP ; std::vector<CCylinderCollisionInstance *,std::allocator<CCylinderCollisionInstance *> >::_Xlength
_TEXT	ENDS
; Function compile flags: /Ogtp
; File C:\DS Project\DS Files\Source\ClientSource\Client\EterLib\Pool.h
;	COMDAT ?Delete@?$CDynamicPool@VCCylinderCollisionInstance@@@@KAXPAVCCylinderCollisionInstance@@@Z
_TEXT	SEGMENT
_pkData$ = 8						; size = 4
?Delete@?$CDynamicPool@VCCylinderCollisionInstance@@@@KAXPAVCCylinderCollisionInstance@@@Z PROC ; CDynamicPool<CCylinderCollisionInstance>::Delete, COMDAT

; 109  : 		{

  00000	55		 push	 ebp
  00001	8b ec		 mov	 ebp, esp

; 110  : 			delete pkData;

  00003	6a 18		 push	 24			; 00000018H
  00005	ff 75 08	 push	 DWORD PTR _pkData$[ebp]
  00008	e8 00 00 00 00	 call	 ??3@YAXPAXI@Z		; operator delete
  0000d	83 c4 08	 add	 esp, 8

; 111  : 		}

  00010	5d		 pop	 ebp
  00011	c3		 ret	 0
?Delete@?$CDynamicPool@VCCylinderCollisionInstance@@@@KAXPAVCCylinderCollisionInstance@@@Z ENDP ; CDynamicPool<CCylinderCollisionInstance>::Delete
_TEXT	ENDS
; Function compile flags: /Ogtp
; File C:\DS Project\DS Files\Source\ClientSource\Client\EterLib\Pool.h
; File C:\Program Files (x86)\Microsoft Visual Studio\2019\Community\VC\Tools\MSVC\14.27.29110\include\vector
; File C:\Program Files (x86)\Microsoft Visual Studio\2019\Community\VC\Tools\MSVC\14.27.29110\include\xmemory
; File C:\Program Files (x86)\Microsoft Visual Studio\2019\Community\VC\Tools\MSVC\14.27.29110\include\vector
; File C:\Program Files (x86)\Microsoft Visual Studio\2019\Community\VC\Tools\MSVC\14.27.29110\include\xmemory
; File C:\Program Files (x86)\Microsoft Visual Studio\2019\Community\VC\Tools\MSVC\14.27.29110\include\vector
; File C:\Program Files (x86)\Microsoft Visual Studio\2019\Community\VC\Tools\MSVC\14.27.29110\include\xmemory
; File C:\Program Files (x86)\Microsoft Visual Studio\2019\Community\VC\Tools\MSVC\14.27.29110\include\vector
; File C:\Program Files (x86)\Microsoft Visual Studio\2019\Community\VC\Tools\MSVC\14.27.29110\include\xmemory
; File C:\Program Files (x86)\Microsoft Visual Studio\2019\Community\VC\Tools\MSVC\14.27.29110\include\vector
; File C:\DS Project\DS Files\Source\ClientSource\Client\EterLib\Pool.h
;	COMDAT ??1?$CDynamicPool@VCCylinderCollisionInstance@@@@UAE@XZ
_TEXT	SEGMENT
??1?$CDynamicPool@VCCylinderCollisionInstance@@@@UAE@XZ PROC ; CDynamicPool<CCylinderCollisionInstance>::~CDynamicPool<CCylinderCollisionInstance>, COMDAT
; _this$ = ecx

; 18   : 		{

  00000	56		 push	 esi
  00001	8b f1		 mov	 esi, ecx
  00003	c7 06 00 00 00
	00		 mov	 DWORD PTR [esi], OFFSET ??_7?$CDynamicPool@VCCylinderCollisionInstance@@@@6B@
; File C:\Program Files (x86)\Microsoft Visual Studio\2019\Community\VC\Tools\MSVC\14.27.29110\include\vector

; 1693 :         if (_Myfirst) { // destroy and deallocate old array

  00009	8b 4e 10	 mov	 ecx, DWORD PTR [esi+16]
  0000c	85 c9		 test	 ecx, ecx
  0000e	74 27		 je	 SHORT $LN6@CDynamicPo

; 1694 :             _Destroy(_Myfirst, _Mylast);
; 1695 :             _Getal().deallocate(_Myfirst, static_cast<size_type>(_Myend - _Myfirst));

  00010	8b 46 18	 mov	 eax, DWORD PTR [esi+24]
  00013	2b c1		 sub	 eax, ecx
; File C:\Program Files (x86)\Microsoft Visual Studio\2019\Community\VC\Tools\MSVC\14.27.29110\include\xmemory

; 803  :         _Deallocate<_New_alignof<_Ty>>(_Ptr, sizeof(_Ty) * _Count);

  00015	83 e0 fc	 and	 eax, -4			; fffffffcH
  00018	50		 push	 eax
  00019	51		 push	 ecx
  0001a	e8 00 00 00 00	 call	 ??$_Deallocate@$07$0A@@std@@YAXPAXI@Z ; std::_Deallocate<8,0>
; File C:\Program Files (x86)\Microsoft Visual Studio\2019\Community\VC\Tools\MSVC\14.27.29110\include\vector

; 1697 :             _Myfirst = pointer();

  0001f	c7 46 10 00 00
	00 00		 mov	 DWORD PTR [esi+16], 0
; File C:\Program Files (x86)\Microsoft Visual Studio\2019\Community\VC\Tools\MSVC\14.27.29110\include\xmemory

; 803  :         _Deallocate<_New_alignof<_Ty>>(_Ptr, sizeof(_Ty) * _Count);

  00026	83 c4 08	 add	 esp, 8
; File C:\Program Files (x86)\Microsoft Visual Studio\2019\Community\VC\Tools\MSVC\14.27.29110\include\vector

; 1698 :             _Mylast  = pointer();

  00029	c7 46 14 00 00
	00 00		 mov	 DWORD PTR [esi+20], 0

; 1699 :             _Myend   = pointer();

  00030	c7 46 18 00 00
	00 00		 mov	 DWORD PTR [esi+24], 0
$LN6@CDynamicPo:

; 1693 :         if (_Myfirst) { // destroy and deallocate old array

  00037	8b 4e 04	 mov	 ecx, DWORD PTR [esi+4]
  0003a	85 c9		 test	 ecx, ecx
  0003c	74 27		 je	 SHORT $LN13@CDynamicPo

; 1694 :             _Destroy(_Myfirst, _Mylast);
; 1695 :             _Getal().deallocate(_Myfirst, static_cast<size_type>(_Myend - _Myfirst));

  0003e	8b 46 0c	 mov	 eax, DWORD PTR [esi+12]
  00041	2b c1		 sub	 eax, ecx
; File C:\Program Files (x86)\Microsoft Visual Studio\2019\Community\VC\Tools\MSVC\14.27.29110\include\xmemory

; 803  :         _Deallocate<_New_alignof<_Ty>>(_Ptr, sizeof(_Ty) * _Count);

  00043	83 e0 fc	 and	 eax, -4			; fffffffcH
  00046	50		 push	 eax
  00047	51		 push	 ecx
  00048	e8 00 00 00 00	 call	 ??$_Deallocate@$07$0A@@std@@YAXPAXI@Z ; std::_Deallocate<8,0>
; File C:\Program Files (x86)\Microsoft Visual Studio\2019\Community\VC\Tools\MSVC\14.27.29110\include\vector

; 1697 :             _Myfirst = pointer();

  0004d	c7 46 04 00 00
	00 00		 mov	 DWORD PTR [esi+4], 0
; File C:\Program Files (x86)\Microsoft Visual Studio\2019\Community\VC\Tools\MSVC\14.27.29110\include\xmemory

; 803  :         _Deallocate<_New_alignof<_Ty>>(_Ptr, sizeof(_Ty) * _Count);

  00054	83 c4 08	 add	 esp, 8
; File C:\Program Files (x86)\Microsoft Visual Studio\2019\Community\VC\Tools\MSVC\14.27.29110\include\vector

; 1698 :             _Mylast  = pointer();

  00057	c7 46 08 00 00
	00 00		 mov	 DWORD PTR [esi+8], 0

; 1699 :             _Myend   = pointer();

  0005e	c7 46 0c 00 00
	00 00		 mov	 DWORD PTR [esi+12], 0
$LN13@CDynamicPo:
  00065	5e		 pop	 esi
; File C:\DS Project\DS Files\Source\ClientSource\Client\EterLib\Pool.h

; 26   : 		}

  00066	c3		 ret	 0
??1?$CDynamicPool@VCCylinderCollisionInstance@@@@UAE@XZ ENDP ; CDynamicPool<CCylinderCollisionInstance>::~CDynamicPool<CCylinderCollisionInstance>
_TEXT	ENDS
; Function compile flags: /Ogtp
;	COMDAT ??__Fgs_sci@@YAXXZ
text$yd	SEGMENT
??__Fgs_sci@@YAXXZ PROC					; `dynamic atexit destructor for 'gs_sci'', COMDAT
  00000	b9 00 00 00 00	 mov	 ecx, OFFSET ?gs_sci@@3V?$CDynamicPool@VCSphereCollisionInstance@@@@A ; gs_sci
  00005	e9 00 00 00 00	 jmp	 ??1?$CDynamicPool@VCSphereCollisionInstance@@@@UAE@XZ ; CDynamicPool<CSphereCollisionInstance>::~CDynamicPool<CSphereCollisionInstance>
??__Fgs_sci@@YAXXZ ENDP					; `dynamic atexit destructor for 'gs_sci''
text$yd	ENDS
; Function compile flags: /Ogtp
; File C:\DS Project\DS Files\Source\ClientSource\Client\EterLib\CollisionData.cpp
;	COMDAT ??__Egs_sci@@YAXXZ
text$di	SEGMENT
??__Egs_sci@@YAXXZ PROC					; `dynamic initializer for 'gs_sci'', COMDAT

; 18   : CDynamicPool<CSphereCollisionInstance> gs_sci;

  00000	68 00 00 00 00	 push	 OFFSET ??__Fgs_sci@@YAXXZ ; `dynamic atexit destructor for 'gs_sci''
  00005	e8 00 00 00 00	 call	 _atexit
  0000a	59		 pop	 ecx
  0000b	c3		 ret	 0
??__Egs_sci@@YAXXZ ENDP					; `dynamic initializer for 'gs_sci''
text$di	ENDS
; Function compile flags: /Ogtp
;	COMDAT ??_G?$CDynamicPool@VCSphereCollisionInstance@@@@UAEPAXI@Z
_TEXT	SEGMENT
___flags$ = 8						; size = 4
??_G?$CDynamicPool@VCSphereCollisionInstance@@@@UAEPAXI@Z PROC ; CDynamicPool<CSphereCollisionInstance>::`scalar deleting destructor', COMDAT
; _this$ = ecx
  00000	55		 push	 ebp
  00001	8b ec		 mov	 ebp, esp
  00003	56		 push	 esi
  00004	8b f1		 mov	 esi, ecx
  00006	e8 00 00 00 00	 call	 ??1?$CDynamicPool@VCSphereCollisionInstance@@@@UAE@XZ ; CDynamicPool<CSphereCollisionInstance>::~CDynamicPool<CSphereCollisionInstance>
  0000b	f6 45 08 01	 test	 BYTE PTR ___flags$[ebp], 1
  0000f	74 0b		 je	 SHORT $LN4@scalar
  00011	6a 24		 push	 36			; 00000024H
  00013	56		 push	 esi
  00014	e8 00 00 00 00	 call	 ??3@YAXPAXI@Z		; operator delete
  00019	83 c4 08	 add	 esp, 8
$LN4@scalar:
  0001c	8b c6		 mov	 eax, esi
  0001e	5e		 pop	 esi
  0001f	5d		 pop	 ebp
  00020	c2 04 00	 ret	 4
??_G?$CDynamicPool@VCSphereCollisionInstance@@@@UAEPAXI@Z ENDP ; CDynamicPool<CSphereCollisionInstance>::`scalar deleting destructor'
_TEXT	ENDS
; Function compile flags: /Ogtp
; File C:\Program Files (x86)\Microsoft Visual Studio\2019\Community\VC\Tools\MSVC\14.27.29110\include\vector
;	COMDAT ?_Xlength@?$vector@PAVCSphereCollisionInstance@@V?$allocator@PAVCSphereCollisionInstance@@@std@@@std@@CAXXZ
_TEXT	SEGMENT
?_Xlength@?$vector@PAVCSphereCollisionInstance@@V?$allocator@PAVCSphereCollisionInstance@@@std@@@std@@CAXXZ PROC ; std::vector<CSphereCollisionInstance *,std::allocator<CSphereCollisionInstance *> >::_Xlength, COMDAT

; 1704 :         _Xlength_error("vector too long");

  00000	68 00 00 00 00	 push	 OFFSET ??_C@_0BA@FOIKENOD@vector?5too?5long@
  00005	e8 00 00 00 00	 call	 ?_Xlength_error@std@@YAXPBD@Z ; std::_Xlength_error
$LN3@Xlength:
  0000a	cc		 int	 3
?_Xlength@?$vector@PAVCSphereCollisionInstance@@V?$allocator@PAVCSphereCollisionInstance@@@std@@@std@@CAXXZ ENDP ; std::vector<CSphereCollisionInstance *,std::allocator<CSphereCollisionInstance *> >::_Xlength
_TEXT	ENDS
; Function compile flags: /Ogtp
; File C:\DS Project\DS Files\Source\ClientSource\Client\EterLib\Pool.h
;	COMDAT ?Delete@?$CDynamicPool@VCSphereCollisionInstance@@@@KAXPAVCSphereCollisionInstance@@@Z
_TEXT	SEGMENT
_pkData$ = 8						; size = 4
?Delete@?$CDynamicPool@VCSphereCollisionInstance@@@@KAXPAVCSphereCollisionInstance@@@Z PROC ; CDynamicPool<CSphereCollisionInstance>::Delete, COMDAT

; 109  : 		{

  00000	55		 push	 ebp
  00001	8b ec		 mov	 ebp, esp

; 110  : 			delete pkData;

  00003	6a 14		 push	 20			; 00000014H
  00005	ff 75 08	 push	 DWORD PTR _pkData$[ebp]
  00008	e8 00 00 00 00	 call	 ??3@YAXPAXI@Z		; operator delete
  0000d	83 c4 08	 add	 esp, 8

; 111  : 		}

  00010	5d		 pop	 ebp
  00011	c3		 ret	 0
?Delete@?$CDynamicPool@VCSphereCollisionInstance@@@@KAXPAVCSphereCollisionInstance@@@Z ENDP ; CDynamicPool<CSphereCollisionInstance>::Delete
_TEXT	ENDS
; Function compile flags: /Ogtp
; File C:\DS Project\DS Files\Source\ClientSource\Client\EterLib\Pool.h
; File C:\Program Files (x86)\Microsoft Visual Studio\2019\Community\VC\Tools\MSVC\14.27.29110\include\vector
; File C:\Program Files (x86)\Microsoft Visual Studio\2019\Community\VC\Tools\MSVC\14.27.29110\include\xmemory
; File C:\Program Files (x86)\Microsoft Visual Studio\2019\Community\VC\Tools\MSVC\14.27.29110\include\vector
; File C:\Program Files (x86)\Microsoft Visual Studio\2019\Community\VC\Tools\MSVC\14.27.29110\include\xmemory
; File C:\Program Files (x86)\Microsoft Visual Studio\2019\Community\VC\Tools\MSVC\14.27.29110\include\vector
; File C:\Program Files (x86)\Microsoft Visual Studio\2019\Community\VC\Tools\MSVC\14.27.29110\include\xmemory
; File C:\Program Files (x86)\Microsoft Visual Studio\2019\Community\VC\Tools\MSVC\14.27.29110\include\vector
; File C:\Program Files (x86)\Microsoft Visual Studio\2019\Community\VC\Tools\MSVC\14.27.29110\include\xmemory
; File C:\Program Files (x86)\Microsoft Visual Studio\2019\Community\VC\Tools\MSVC\14.27.29110\include\vector
; File C:\DS Project\DS Files\Source\ClientSource\Client\EterLib\Pool.h
;	COMDAT ??1?$CDynamicPool@VCSphereCollisionInstance@@@@UAE@XZ
_TEXT	SEGMENT
??1?$CDynamicPool@VCSphereCollisionInstance@@@@UAE@XZ PROC ; CDynamicPool<CSphereCollisionInstance>::~CDynamicPool<CSphereCollisionInstance>, COMDAT
; _this$ = ecx

; 18   : 		{

  00000	56		 push	 esi
  00001	8b f1		 mov	 esi, ecx
  00003	c7 06 00 00 00
	00		 mov	 DWORD PTR [esi], OFFSET ??_7?$CDynamicPool@VCSphereCollisionInstance@@@@6B@
; File C:\Program Files (x86)\Microsoft Visual Studio\2019\Community\VC\Tools\MSVC\14.27.29110\include\vector

; 1693 :         if (_Myfirst) { // destroy and deallocate old array

  00009	8b 4e 10	 mov	 ecx, DWORD PTR [esi+16]
  0000c	85 c9		 test	 ecx, ecx
  0000e	74 27		 je	 SHORT $LN6@CDynamicPo

; 1694 :             _Destroy(_Myfirst, _Mylast);
; 1695 :             _Getal().deallocate(_Myfirst, static_cast<size_type>(_Myend - _Myfirst));

  00010	8b 46 18	 mov	 eax, DWORD PTR [esi+24]
  00013	2b c1		 sub	 eax, ecx
; File C:\Program Files (x86)\Microsoft Visual Studio\2019\Community\VC\Tools\MSVC\14.27.29110\include\xmemory

; 803  :         _Deallocate<_New_alignof<_Ty>>(_Ptr, sizeof(_Ty) * _Count);

  00015	83 e0 fc	 and	 eax, -4			; fffffffcH
  00018	50		 push	 eax
  00019	51		 push	 ecx
  0001a	e8 00 00 00 00	 call	 ??$_Deallocate@$07$0A@@std@@YAXPAXI@Z ; std::_Deallocate<8,0>
; File C:\Program Files (x86)\Microsoft Visual Studio\2019\Community\VC\Tools\MSVC\14.27.29110\include\vector

; 1697 :             _Myfirst = pointer();

  0001f	c7 46 10 00 00
	00 00		 mov	 DWORD PTR [esi+16], 0
; File C:\Program Files (x86)\Microsoft Visual Studio\2019\Community\VC\Tools\MSVC\14.27.29110\include\xmemory

; 803  :         _Deallocate<_New_alignof<_Ty>>(_Ptr, sizeof(_Ty) * _Count);

  00026	83 c4 08	 add	 esp, 8
; File C:\Program Files (x86)\Microsoft Visual Studio\2019\Community\VC\Tools\MSVC\14.27.29110\include\vector

; 1698 :             _Mylast  = pointer();

  00029	c7 46 14 00 00
	00 00		 mov	 DWORD PTR [esi+20], 0

; 1699 :             _Myend   = pointer();

  00030	c7 46 18 00 00
	00 00		 mov	 DWORD PTR [esi+24], 0
$LN6@CDynamicPo:

; 1693 :         if (_Myfirst) { // destroy and deallocate old array

  00037	8b 4e 04	 mov	 ecx, DWORD PTR [esi+4]
  0003a	85 c9		 test	 ecx, ecx
  0003c	74 27		 je	 SHORT $LN13@CDynamicPo

; 1694 :             _Destroy(_Myfirst, _Mylast);
; 1695 :             _Getal().deallocate(_Myfirst, static_cast<size_type>(_Myend - _Myfirst));

  0003e	8b 46 0c	 mov	 eax, DWORD PTR [esi+12]
  00041	2b c1		 sub	 eax, ecx
; File C:\Program Files (x86)\Microsoft Visual Studio\2019\Community\VC\Tools\MSVC\14.27.29110\include\xmemory

; 803  :         _Deallocate<_New_alignof<_Ty>>(_Ptr, sizeof(_Ty) * _Count);

  00043	83 e0 fc	 and	 eax, -4			; fffffffcH
  00046	50		 push	 eax
  00047	51		 push	 ecx
  00048	e8 00 00 00 00	 call	 ??$_Deallocate@$07$0A@@std@@YAXPAXI@Z ; std::_Deallocate<8,0>
; File C:\Program Files (x86)\Microsoft Visual Studio\2019\Community\VC\Tools\MSVC\14.27.29110\include\vector

; 1697 :             _Myfirst = pointer();

  0004d	c7 46 04 00 00
	00 00		 mov	 DWORD PTR [esi+4], 0
; File C:\Program Files (x86)\Microsoft Visual Studio\2019\Community\VC\Tools\MSVC\14.27.29110\include\xmemory

; 803  :         _Deallocate<_New_alignof<_Ty>>(_Ptr, sizeof(_Ty) * _Count);

  00054	83 c4 08	 add	 esp, 8
; File C:\Program Files (x86)\Microsoft Visual Studio\2019\Community\VC\Tools\MSVC\14.27.29110\include\vector

; 1698 :             _Mylast  = pointer();

  00057	c7 46 08 00 00
	00 00		 mov	 DWORD PTR [esi+8], 0

; 1699 :             _Myend   = pointer();

  0005e	c7 46 0c 00 00
	00 00		 mov	 DWORD PTR [esi+12], 0
$LN13@CDynamicPo:
  00065	5e		 pop	 esi
; File C:\DS Project\DS Files\Source\ClientSource\Client\EterLib\Pool.h

; 26   : 		}

  00066	c3		 ret	 0
??1?$CDynamicPool@VCSphereCollisionInstance@@@@UAE@XZ ENDP ; CDynamicPool<CSphereCollisionInstance>::~CDynamicPool<CSphereCollisionInstance>
_TEXT	ENDS
; Function compile flags: /Ogtp
; File C:\DS Project\DS Files\Source\ClientSource\Client\EterLib\CollisionData.cpp
; File C:\DS Project\DS Files\Source\ClientSource\extern\include\d3dx8math.inl
; File C:\DS Project\DS Files\Source\ClientSource\Client\EterLib\CollisionData.cpp
; File C:\DS Project\DS Files\Source\ClientSource\extern\include\d3dx8math.inl
; File C:\DS Project\DS Files\Source\ClientSource\Client\EterLib\CollisionData.cpp
; File C:\DS Project\DS Files\Source\ClientSource\extern\include\d3dx8math.inl
; File C:\DS Project\DS Files\Source\ClientSource\Client\EterLib\CollisionData.cpp
; File C:\DS Project\DS Files\Source\ClientSource\extern\include\d3dx8math.inl
; File C:\DS Project\DS Files\Source\ClientSource\Client\EterLib\CollisionData.cpp
; File C:\DS Project\DS Files\Source\ClientSource\extern\include\d3dx8math.inl
; File C:\DS Project\DS Files\Source\ClientSource\Client\EterLib\CollisionData.cpp
; File C:\DS Project\DS Files\Source\ClientSource\extern\include\d3dx8math.inl
; File C:\DS Project\DS Files\Source\ClientSource\Client\EterLib\CollisionData.cpp
; File C:\DS Project\DS Files\Source\ClientSource\extern\include\d3dx8math.inl
; File C:\DS Project\DS Files\Source\ClientSource\Client\EterLib\CollisionData.cpp
; File C:\DS Project\DS Files\Source\ClientSource\extern\include\d3dx8math.inl
; File C:\DS Project\DS Files\Source\ClientSource\Client\EterLib\CollisionData.cpp
; File C:\DS Project\DS Files\Source\ClientSource\extern\include\d3dx8math.inl
; File C:\DS Project\DS Files\Source\ClientSource\Client\EterLib\CollisionData.cpp
;	COMDAT ?CollideCylinderVSDynamicSphere@CCylinderCollisionInstance@@IBE_NABUSCylinderData@@ABUCDynamicSphereInstance@@@Z
_TEXT	SEGMENT
_ob$ = -40						; size = 12
_oa$ = -28						; size = 12
$T1 = -16						; size = 12
__$ArrayPad$ = -4					; size = 4
_c_rattribute$ = 8					; size = 4
_s$ = 12						; size = 4
?CollideCylinderVSDynamicSphere@CCylinderCollisionInstance@@IBE_NABUSCylinderData@@ABUCDynamicSphereInstance@@@Z PROC ; CCylinderCollisionInstance::CollideCylinderVSDynamicSphere, COMDAT
; _this$ = ecx

; 450  : {

  00000	55		 push	 ebp
  00001	8b ec		 mov	 ebp, esp
  00003	83 ec 28	 sub	 esp, 40			; 00000028H
  00006	a1 00 00 00 00	 mov	 eax, DWORD PTR ___security_cookie
  0000b	33 c5		 xor	 eax, ebp
  0000d	89 45 fc	 mov	 DWORD PTR __$ArrayPad$[ebp], eax
  00010	56		 push	 esi
  00011	8b 75 08	 mov	 esi, DWORD PTR _c_rattribute$[ebp]
  00014	57		 push	 edi
  00015	8b 7d 0c	 mov	 edi, DWORD PTR _s$[ebp]

; 451  : 	if (s.v3Position.z + s.fRadius < c_rattribute.v3Position.z)

  00018	f3 0f 10 66 08	 movss	 xmm4, DWORD PTR [esi+8]
  0001d	f3 0f 10 4f 08	 movss	 xmm1, DWORD PTR [edi+8]
  00022	f3 0f 10 5f 18	 movss	 xmm3, DWORD PTR [edi+24]
  00027	0f 28 c1	 movaps	 xmm0, xmm1
  0002a	f3 0f 58 c3	 addss	 xmm0, xmm3
  0002e	0f 2f e0	 comiss	 xmm4, xmm0
  00031	0f 87 a0 00 00
	00		 ja	 $LN13@CollideCyl

; 452  : 		return false;
; 453  : 
; 454  : 	if (s.v3Position.z - s.fRadius > c_rattribute.v3Position.z + c_rattribute.fHeight)

  00037	f3 0f 10 56 10	 movss	 xmm2, DWORD PTR [esi+16]
  0003c	f3 0f 5c cb	 subss	 xmm1, xmm3
  00040	f3 0f 58 d4	 addss	 xmm2, xmm4
  00044	0f 2f ca	 comiss	 xmm1, xmm2
  00047	0f 87 8a 00 00
	00		 ja	 $LN13@CollideCyl
; File C:\DS Project\DS Files\Source\ClientSource\extern\include\d3dx8math.inl

; 180  :     x = fx;

  0004d	f3 0f 10 06	 movss	 xmm0, DWORD PTR [esi]
; File C:\DS Project\DS Files\Source\ClientSource\Client\EterLib\CollisionData.cpp

; 464  : 	IntersectLineSegments(c_rattribute.v3Position, D3DXVECTOR3(c_rattribute.v3Position.x,c_rattribute.v3Position.y,c_rattribute.v3Position.z+c_rattribute.fHeight), s.v3LastPosition, s.v3Position, oa, ob);

  00051	8d 45 d8	 lea	 eax, DWORD PTR _ob$[ebp]
  00054	50		 push	 eax
  00055	8d 45 e4	 lea	 eax, DWORD PTR _oa$[ebp]
; File C:\DS Project\DS Files\Source\ClientSource\extern\include\d3dx8math.inl

; 180  :     x = fx;

  00058	f3 0f 11 45 f0	 movss	 DWORD PTR $T1[ebp], xmm0

; 181  :     y = fy;

  0005d	f3 0f 10 46 04	 movss	 xmm0, DWORD PTR [esi+4]
; File C:\DS Project\DS Files\Source\ClientSource\Client\EterLib\CollisionData.cpp

; 464  : 	IntersectLineSegments(c_rattribute.v3Position, D3DXVECTOR3(c_rattribute.v3Position.x,c_rattribute.v3Position.y,c_rattribute.v3Position.z+c_rattribute.fHeight), s.v3LastPosition, s.v3Position, oa, ob);

  00062	50		 push	 eax
  00063	57		 push	 edi
  00064	8d 47 0c	 lea	 eax, DWORD PTR [edi+12]
; File C:\DS Project\DS Files\Source\ClientSource\extern\include\d3dx8math.inl

; 181  :     y = fy;

  00067	f3 0f 11 45 f4	 movss	 DWORD PTR $T1[ebp+4], xmm0
; File C:\DS Project\DS Files\Source\ClientSource\Client\EterLib\CollisionData.cpp

; 464  : 	IntersectLineSegments(c_rattribute.v3Position, D3DXVECTOR3(c_rattribute.v3Position.x,c_rattribute.v3Position.y,c_rattribute.v3Position.z+c_rattribute.fHeight), s.v3LastPosition, s.v3Position, oa, ob);

  0006c	50		 push	 eax
  0006d	8d 45 f0	 lea	 eax, DWORD PTR $T1[ebp]
; File C:\DS Project\DS Files\Source\ClientSource\extern\include\d3dx8math.inl

; 182  :     z = fz;

  00070	f3 0f 11 55 f8	 movss	 DWORD PTR $T1[ebp+8], xmm2
; File C:\DS Project\DS Files\Source\ClientSource\Client\EterLib\CollisionData.cpp

; 464  : 	IntersectLineSegments(c_rattribute.v3Position, D3DXVECTOR3(c_rattribute.v3Position.x,c_rattribute.v3Position.y,c_rattribute.v3Position.z+c_rattribute.fHeight), s.v3LastPosition, s.v3Position, oa, ob);

  00075	50		 push	 eax
  00076	56		 push	 esi
  00077	e8 00 00 00 00	 call	 ?IntersectLineSegments@@YAXABUD3DXVECTOR3@@000AAU1@1@Z ; IntersectLineSegments
; File C:\DS Project\DS Files\Source\ClientSource\extern\include\d3dx8math.inl

; 263  :     return D3DXVECTOR3(x - v.x, y - v.y, z - v.z);

  0007c	f3 0f 10 55 e4	 movss	 xmm2, DWORD PTR _oa$[ebp]
; File C:\DS Project\DS Files\Source\ClientSource\Client\EterLib\CollisionData.cpp

; 464  : 	IntersectLineSegments(c_rattribute.v3Position, D3DXVECTOR3(c_rattribute.v3Position.x,c_rattribute.v3Position.y,c_rattribute.v3Position.z+c_rattribute.fHeight), s.v3LastPosition, s.v3Position, oa, ob);

  00081	83 c4 18	 add	 esp, 24			; 00000018H
; File C:\DS Project\DS Files\Source\ClientSource\extern\include\d3dx8math.inl

; 263  :     return D3DXVECTOR3(x - v.x, y - v.y, z - v.z);

  00084	f3 0f 10 5d e8	 movss	 xmm3, DWORD PTR _oa$[ebp+4]
  00089	f3 0f 5c 5d dc	 subss	 xmm3, DWORD PTR _ob$[ebp+4]
  0008e	f3 0f 5c 55 d8	 subss	 xmm2, DWORD PTR _ob$[ebp]
  00093	f3 0f 10 45 ec	 movss	 xmm0, DWORD PTR _oa$[ebp+8]
  00098	f3 0f 5c 45 e0	 subss	 xmm0, DWORD PTR _ob$[ebp+8]
; File C:\DS Project\DS Files\Source\ClientSource\Client\EterLib\CollisionData.cpp

; 465  : 	return (D3DXVec3LengthSq(&(oa-ob))<=(c_rattribute.fRadius+s.fRadius)*(c_rattribute.fRadius+s.fRadius));

  0009d	f3 0f 10 4e 0c	 movss	 xmm1, DWORD PTR [esi+12]
  000a2	f3 0f 58 4f 18	 addss	 xmm1, DWORD PTR [edi+24]
; File C:\DS Project\DS Files\Source\ClientSource\extern\include\d3dx8math.inl

; 182  :     z = fz;

  000a7	f3 0f 59 db	 mulss	 xmm3, xmm3
  000ab	5f		 pop	 edi

; 1253 :     return pV->x * pV->x + pV->y * pV->y + pV->z * pV->z;

  000ac	f3 0f 59 d2	 mulss	 xmm2, xmm2
; File C:\DS Project\DS Files\Source\ClientSource\Client\EterLib\CollisionData.cpp

; 466  : }

  000b0	5e		 pop	 esi
; File C:\DS Project\DS Files\Source\ClientSource\extern\include\d3dx8math.inl

; 1253 :     return pV->x * pV->x + pV->y * pV->y + pV->z * pV->z;

  000b1	f3 0f 59 c0	 mulss	 xmm0, xmm0
  000b5	f3 0f 58 da	 addss	 xmm3, xmm2
; File C:\DS Project\DS Files\Source\ClientSource\Client\EterLib\CollisionData.cpp

; 465  : 	return (D3DXVec3LengthSq(&(oa-ob))<=(c_rattribute.fRadius+s.fRadius)*(c_rattribute.fRadius+s.fRadius));

  000b9	f3 0f 59 c9	 mulss	 xmm1, xmm1
; File C:\DS Project\DS Files\Source\ClientSource\extern\include\d3dx8math.inl

; 1253 :     return pV->x * pV->x + pV->y * pV->y + pV->z * pV->z;

  000bd	f3 0f 58 d8	 addss	 xmm3, xmm0
; File C:\DS Project\DS Files\Source\ClientSource\Client\EterLib\CollisionData.cpp

; 465  : 	return (D3DXVec3LengthSq(&(oa-ob))<=(c_rattribute.fRadius+s.fRadius)*(c_rattribute.fRadius+s.fRadius));

  000c1	0f 2f cb	 comiss	 xmm1, xmm3
  000c4	0f 93 c0	 setae	 al

; 466  : }

  000c7	8b 4d fc	 mov	 ecx, DWORD PTR __$ArrayPad$[ebp]
  000ca	33 cd		 xor	 ecx, ebp
  000cc	e8 00 00 00 00	 call	 @__security_check_cookie@4
  000d1	8b e5		 mov	 esp, ebp
  000d3	5d		 pop	 ebp
  000d4	c2 08 00	 ret	 8
$LN13@CollideCyl:
  000d7	8b 4d fc	 mov	 ecx, DWORD PTR __$ArrayPad$[ebp]
  000da	32 c0		 xor	 al, al
  000dc	5f		 pop	 edi
  000dd	33 cd		 xor	 ecx, ebp
  000df	5e		 pop	 esi
  000e0	e8 00 00 00 00	 call	 @__security_check_cookie@4
  000e5	8b e5		 mov	 esp, ebp
  000e7	5d		 pop	 ebp
  000e8	c2 08 00	 ret	 8
?CollideCylinderVSDynamicSphere@CCylinderCollisionInstance@@IBE_NABUSCylinderData@@ABUCDynamicSphereInstance@@@Z ENDP ; CCylinderCollisionInstance::CollideCylinderVSDynamicSphere
_TEXT	ENDS
; Function compile flags: /Ogtp
; File C:\DS Project\DS Files\Source\ClientSource\Client\EterLib\CollisionData.cpp
; File C:\DS Project\DS Files\Source\ClientSource\extern\include\d3dx8math.inl
; File C:\DS Project\DS Files\Source\ClientSource\Client\EterLib\CollisionData.cpp
; File C:\DS Project\DS Files\Source\ClientSource\extern\include\d3dx8math.inl
; File C:\DS Project\DS Files\Source\ClientSource\Client\EterLib\CollisionData.cpp
; File C:\DS Project\DS Files\Source\ClientSource\extern\include\d3dx8math.inl
; File C:\DS Project\DS Files\Source\ClientSource\Client\EterLib\CollisionData.cpp
; File C:\DS Project\DS Files\Source\ClientSource\extern\include\d3dx8math.inl
; File C:\DS Project\DS Files\Source\ClientSource\Client\EterLib\CollisionData.cpp
; File C:\DS Project\DS Files\Source\ClientSource\extern\include\d3dx8math.inl
; File C:\DS Project\DS Files\Source\ClientSource\Client\EterLib\CollisionData.cpp
; File C:\DS Project\DS Files\Source\ClientSource\extern\include\d3dx8math.inl
; File C:\DS Project\DS Files\Source\ClientSource\Client\EterLib\CollisionData.cpp
; File C:\DS Project\DS Files\Source\ClientSource\extern\include\d3dx8math.inl
; File C:\DS Project\DS Files\Source\ClientSource\Client\EterLib\CollisionData.cpp
; File C:\DS Project\DS Files\Source\ClientSource\extern\include\d3dx8math.inl
; File C:\DS Project\DS Files\Source\ClientSource\Client\EterLib\CollisionData.cpp
; File C:\DS Project\DS Files\Source\ClientSource\extern\include\d3dx8math.inl
; File C:\DS Project\DS Files\Source\ClientSource\Client\EterLib\CollisionData.cpp
; File C:\DS Project\DS Files\Source\ClientSource\extern\include\d3dx8math.inl
; File C:\DS Project\DS Files\Source\ClientSource\Client\EterLib\CollisionData.cpp
; File C:\DS Project\DS Files\Source\ClientSource\extern\include\d3dx8math.inl
; File C:\DS Project\DS Files\Source\ClientSource\Client\EterLib\CollisionData.cpp
; File C:\DS Project\DS Files\Source\ClientSource\extern\include\d3dx8math.inl
; File C:\DS Project\DS Files\Source\ClientSource\Client\EterLib\CollisionData.cpp
; File C:\DS Project\DS Files\Source\ClientSource\extern\include\d3dx8math.inl
; File C:\DS Project\DS Files\Source\ClientSource\Client\EterLib\CollisionData.cpp
;	COMDAT ?OnGetCollisionMovementAdjust@CCylinderCollisionInstance@@MBE?AUD3DXVECTOR3@@ABUCDynamicSphereInstance@@@Z
_TEXT	SEGMENT
tv1063 = -28						; size = 4
tv1064 = -24						; size = 4
tv1065 = -20						; size = 4
tv1021 = -20						; size = 4
tv1023 = -16						; size = 4
_sum$1$ = -16						; size = 4
_v3Position$ = -12					; size = 12
___$ReturnUdt$ = 8					; size = 4
_s$ = 12						; size = 4
?OnGetCollisionMovementAdjust@CCylinderCollisionInstance@@MBE?AUD3DXVECTOR3@@ABUCDynamicSphereInstance@@@Z PROC ; CCylinderCollisionInstance::OnGetCollisionMovementAdjust, COMDAT
; _this$ = ecx

; 511  : {

  00000	55		 push	 ebp
  00001	8b ec		 mov	 ebp, esp
  00003	83 e4 f8	 and	 esp, -8			; fffffff8H
  00006	83 ec 1c	 sub	 esp, 28			; 0000001cH

; 513  : 	v3Position.z = s.v3Position.z;

  00009	8b 45 0c	 mov	 eax, DWORD PTR _s$[ebp]
  0000c	f3 0f 7e 41 04	 movq	 xmm0, QWORD PTR [ecx+4]
  00011	66 0f d6 44 24
	10		 movq	 QWORD PTR _v3Position$[esp+28], xmm0
  00017	56		 push	 esi
; File C:\DS Project\DS Files\Source\ClientSource\extern\include\d3dx8math.inl

; 263  :     return D3DXVECTOR3(x - v.x, y - v.y, z - v.z);

  00018	f3 0f 10 10	 movss	 xmm2, DWORD PTR [eax]
  0001c	f3 0f 10 60 04	 movss	 xmm4, DWORD PTR [eax+4]
  00021	0f 28 da	 movaps	 xmm3, xmm2
  00024	f3 0f 5c 5c 24
	14		 subss	 xmm3, DWORD PTR _v3Position$[esp+32]
; File C:\DS Project\DS Files\Source\ClientSource\Client\EterLib\CollisionData.cpp

; 513  : 	v3Position.z = s.v3Position.z;

  0002a	f3 0f 10 78 08	 movss	 xmm7, DWORD PTR [eax+8]
; File C:\DS Project\DS Files\Source\ClientSource\extern\include\d3dx8math.inl

; 263  :     return D3DXVECTOR3(x - v.x, y - v.y, z - v.z);

  0002f	0f 28 cc	 movaps	 xmm1, xmm4
  00032	f3 0f 5c 4c 24
	18		 subss	 xmm1, DWORD PTR _v3Position$[esp+36]
; File C:\DS Project\DS Files\Source\ClientSource\Client\EterLib\CollisionData.cpp

; 514  : 	if (D3DXVec3LengthSq(&(s.v3Position-v3Position))>=(s.fRadius+m_attribute.fRadius)*(m_attribute.fRadius+s.fRadius))

  00038	8b 75 08	 mov	 esi, DWORD PTR ___$ReturnUdt$[ebp]
; File C:\DS Project\DS Files\Source\ClientSource\extern\include\d3dx8math.inl

; 263  :     return D3DXVECTOR3(x - v.x, y - v.y, z - v.z);

  0003b	f3 0f 5c ff	 subss	 xmm7, xmm7

; 1253 :     return pV->x * pV->x + pV->y * pV->y + pV->z * pV->z;

  0003f	0f 28 c3	 movaps	 xmm0, xmm3

; 263  :     return D3DXVECTOR3(x - v.x, y - v.y, z - v.z);

  00042	f3 0f 11 5c 24
	10		 movss	 DWORD PTR tv1023[esp+32], xmm3

; 1253 :     return pV->x * pV->x + pV->y * pV->y + pV->z * pV->z;

  00048	f3 0f 59 c3	 mulss	 xmm0, xmm3
; File C:\DS Project\DS Files\Source\ClientSource\Client\EterLib\CollisionData.cpp

; 514  : 	if (D3DXVec3LengthSq(&(s.v3Position-v3Position))>=(s.fRadius+m_attribute.fRadius)*(m_attribute.fRadius+s.fRadius))

  0004c	f3 0f 10 58 18	 movss	 xmm3, DWORD PTR [eax+24]
; File C:\DS Project\DS Files\Source\ClientSource\extern\include\d3dx8math.inl

; 182  :     z = fz;

  00051	0f 28 f1	 movaps	 xmm6, xmm1
; File C:\DS Project\DS Files\Source\ClientSource\Client\EterLib\CollisionData.cpp

; 514  : 	if (D3DXVec3LengthSq(&(s.v3Position-v3Position))>=(s.fRadius+m_attribute.fRadius)*(m_attribute.fRadius+s.fRadius))

  00054	f3 0f 58 59 10	 addss	 xmm3, DWORD PTR [ecx+16]
; File C:\DS Project\DS Files\Source\ClientSource\extern\include\d3dx8math.inl

; 182  :     z = fz;

  00059	f3 0f 59 f1	 mulss	 xmm6, xmm1

; 1253 :     return pV->x * pV->x + pV->y * pV->y + pV->z * pV->z;

  0005d	f3 0f 58 f0	 addss	 xmm6, xmm0
; File C:\DS Project\DS Files\Source\ClientSource\Client\EterLib\CollisionData.cpp

; 514  : 	if (D3DXVec3LengthSq(&(s.v3Position-v3Position))>=(s.fRadius+m_attribute.fRadius)*(m_attribute.fRadius+s.fRadius))

  00061	f3 0f 59 db	 mulss	 xmm3, xmm3
; File C:\DS Project\DS Files\Source\ClientSource\extern\include\d3dx8math.inl

; 1253 :     return pV->x * pV->x + pV->y * pV->y + pV->z * pV->z;

  00065	0f 28 c7	 movaps	 xmm0, xmm7
  00068	f3 0f 59 c7	 mulss	 xmm0, xmm7
  0006c	f3 0f 58 f0	 addss	 xmm6, xmm0
; File C:\DS Project\DS Files\Source\ClientSource\Client\EterLib\CollisionData.cpp

; 514  : 	if (D3DXVec3LengthSq(&(s.v3Position-v3Position))>=(s.fRadius+m_attribute.fRadius)*(m_attribute.fRadius+s.fRadius))

  00070	0f 2f f3	 comiss	 xmm6, xmm3
  00073	72 1d		 jb	 SHORT $LN2@OnGetColli
$LN49@OnGetColli:

; 550  : }

  00075	c7 06 00 00 00
	00		 mov	 DWORD PTR [esi], 0
  0007b	8b c6		 mov	 eax, esi
  0007d	c7 46 04 00 00
	00 00		 mov	 DWORD PTR [esi+4], 0
  00084	c7 46 08 00 00
	00 00		 mov	 DWORD PTR [esi+8], 0
  0008b	5e		 pop	 esi
  0008c	8b e5		 mov	 esp, ebp
  0008e	5d		 pop	 ebp
  0008f	c2 08 00	 ret	 8
$LN2@OnGetColli:
; File C:\DS Project\DS Files\Source\ClientSource\extern\include\d3dx8math.inl

; 263  :     return D3DXVECTOR3(x - v.x, y - v.y, z - v.z);

  00092	f3 0f 5c 60 10	 subss	 xmm4, DWORD PTR [eax+16]
  00097	f3 0f 5c 50 0c	 subss	 xmm2, DWORD PTR [eax+12]
  0009c	0f 57 c0	 xorps	 xmm0, xmm0
; File C:\DS Project\DS Files\Source\ClientSource\Client\EterLib\CollisionData.cpp

; 522  : 	float mul = (s.fRadius+m_attribute.fRadius)*(s.fRadius+m_attribute.fRadius)-D3DXVec3LengthSq(&(s.v3Position-v3Position));

  0009f	f3 0f 5c de	 subss	 xmm3, xmm6
  000a3	0f 57 ed	 xorps	 xmm5, xmm5
; File C:\DS Project\DS Files\Source\ClientSource\extern\include\d3dx8math.inl

; 263  :     return D3DXVECTOR3(x - v.x, y - v.y, z - v.z);

  000a6	f3 0f 11 64 24
	0c		 movss	 DWORD PTR tv1021[esp+32], xmm4

; 1277 :     v.x = pV1->y * pV2->z - pV1->z * pV2->y;

  000ac	f3 0f 5c e0	 subss	 xmm4, xmm0

; 1278 :     v.y = pV1->z * pV2->x - pV1->x * pV2->z;

  000b0	f3 0f 5c ea	 subss	 xmm5, xmm2
  000b4	f3 0f 59 d0	 mulss	 xmm2, xmm0
; File C:\DS Project\DS Files\Source\ClientSource\Client\EterLib\CollisionData.cpp

; 524  : 	if (sum*sum-4*mul<=0)

  000b8	f3 0f 59 1d 00
	00 00 00	 mulss	 xmm3, DWORD PTR __real@40800000
; File C:\DS Project\DS Files\Source\ClientSource\extern\include\d3dx8math.inl

; 1277 :     v.x = pV1->y * pV2->z - pV1->z * pV2->y;

  000c0	f3 0f 11 64 24
	04		 movss	 DWORD PTR tv1063[esp+32], xmm4

; 1279 :     v.z = pV1->x * pV2->y - pV1->y * pV2->x;

  000c6	f3 0f 10 64 24
	0c		 movss	 xmm4, DWORD PTR tv1021[esp+32]

; 182  :     z = fz;

  000cc	f3 0f 59 cd	 mulss	 xmm1, xmm5

; 1279 :     v.z = pV1->x * pV2->y - pV1->y * pV2->x;

  000d0	f3 0f 59 e0	 mulss	 xmm4, xmm0
  000d4	f3 0f 11 6c 24
	08		 movss	 DWORD PTR tv1064[esp+32], xmm5

; 1264 :     return pV1->x * pV2->x + pV1->y * pV2->y + pV1->z * pV2->z;

  000da	f3 0f 10 6c 24
	10		 movss	 xmm5, DWORD PTR tv1023[esp+32]
  000e0	f3 0f 59 6c 24
	04		 mulss	 xmm5, DWORD PTR tv1063[esp+32]

; 1279 :     v.z = pV1->x * pV2->y - pV1->y * pV2->x;

  000e6	f3 0f 5c d4	 subss	 xmm2, xmm4

; 1264 :     return pV1->x * pV2->x + pV1->y * pV2->y + pV1->z * pV2->z;

  000ea	f3 0f 58 cd	 addss	 xmm1, xmm5
  000ee	f3 0f 59 fa	 mulss	 xmm7, xmm2

; 1279 :     v.z = pV1->x * pV2->y - pV1->y * pV2->x;

  000f2	f3 0f 11 54 24
	0c		 movss	 DWORD PTR tv1065[esp+32], xmm2

; 1264 :     return pV1->x * pV2->x + pV1->y * pV2->y + pV1->z * pV2->z;

  000f8	f3 0f 58 cf	 addss	 xmm1, xmm7
; File C:\DS Project\DS Files\Source\ClientSource\Client\EterLib\CollisionData.cpp

; 521  : 	float sum = - D3DXVec3Dot(&c,&(s.v3Position-v3Position));

  000fc	0f 57 0d 00 00
	00 00		 xorps	 xmm1, DWORD PTR __xmm@80000000800000008000000080000000

; 524  : 	if (sum*sum-4*mul<=0)

  00103	0f 28 d1	 movaps	 xmm2, xmm1
  00106	f3 0f 11 4c 24
	10		 movss	 DWORD PTR _sum$1$[esp+32], xmm1
  0010c	f3 0f 59 d1	 mulss	 xmm2, xmm1
  00110	f3 0f 5c d3	 subss	 xmm2, xmm3
  00114	0f 2f c2	 comiss	 xmm0, xmm2
  00117	0f 83 58 ff ff
	ff		 jae	 $LN49@OnGetColli

; 525  : 		return D3DXVECTOR3(0.0f,0.0f,0.0f);
; 526  : 	float sq = sqrt(sum*sum-4*mul);

  0011d	0f 57 c0	 xorps	 xmm0, xmm0
  00120	0f 57 c9	 xorps	 xmm1, xmm1
  00123	f3 0f 5a c2	 cvtss2sd xmm0, xmm2
  00127	66 0f 2e c8	 ucomisd xmm1, xmm0
  0012b	77 06		 ja	 SHORT $LN45@OnGetColli
  0012d	f2 0f 51 c0	 sqrtsd	 xmm0, xmm0
  00131	eb 05		 jmp	 SHORT $LN46@OnGetColli
$LN45@OnGetColli:
  00133	e8 00 00 00 00	 call	 __libm_sse2_sqrt_precise
$LN46@OnGetColli:

; 527  : 	float t1=-sum-sq, t2=-sum+sq;

  00138	f3 0f 10 5c 24
	10		 movss	 xmm3, DWORD PTR _sum$1$[esp+32]
  0013e	0f 57 e4	 xorps	 xmm4, xmm4
  00141	0f 57 1d 00 00
	00 00		 xorps	 xmm3, DWORD PTR __xmm@80000000800000008000000080000000

; 528  : 	t1*=0.5f;
; 529  : 	t2*=0.5f;
; 530  : 
; 531  : 
; 532  : 	if (fabs(t1)<=fabs(t2))

  00148	0f 57 d2	 xorps	 xmm2, xmm2
  0014b	f3 0f 10 2d 00
	00 00 00	 movss	 xmm5, DWORD PTR __real@3f000000
  00153	f2 0f 5a e0	 cvtsd2ss xmm4, xmm0
  00157	f3 0f 5c dc	 subss	 xmm3, xmm4
  0015b	f3 0f 5c 64 24
	10		 subss	 xmm4, DWORD PTR _sum$1$[esp+32]
  00161	f3 0f 59 dd	 mulss	 xmm3, xmm5
  00165	f3 0f 59 e5	 mulss	 xmm4, xmm5
  00169	f3 0f 5a d3	 cvtss2sd xmm2, xmm3
  0016d	0f 5a c4	 cvtps2pd xmm0, xmm4
  00170	0f 54 15 00 00
	00 00		 andps	 xmm2, QWORD PTR __xmm@7fffffffffffffff7fffffffffffffff
  00177	0f 54 05 00 00
	00 00		 andps	 xmm0, QWORD PTR __xmm@7fffffffffffffff7fffffffffffffff
  0017e	66 0f 2f c2	 comisd	 xmm0, xmm2
  00182	72 33		 jb	 SHORT $LN4@OnGetColli

; 533  : 	{
; 534  : 		return (gc_fReduceMove*t1)*c;

  00184	f3 0f 59 dd	 mulss	 xmm3, xmm5

; 550  : }

  00188	8b c6		 mov	 eax, esi
  0018a	0f 28 c3	 movaps	 xmm0, xmm3
  0018d	f3 0f 59 44 24
	04		 mulss	 xmm0, DWORD PTR tv1063[esp+32]
; File C:\DS Project\DS Files\Source\ClientSource\extern\include\d3dx8math.inl

; 180  :     x = fx;

  00193	f3 0f 11 06	 movss	 DWORD PTR [esi], xmm0
  00197	0f 28 c3	 movaps	 xmm0, xmm3

; 181  :     y = fy;

  0019a	f3 0f 59 5c 24
	0c		 mulss	 xmm3, DWORD PTR tv1065[esp+32]
; File C:\DS Project\DS Files\Source\ClientSource\Client\EterLib\CollisionData.cpp

; 550  : }

  001a0	f3 0f 59 44 24
	08		 mulss	 xmm0, DWORD PTR tv1064[esp+32]
; File C:\DS Project\DS Files\Source\ClientSource\extern\include\d3dx8math.inl

; 182  :     z = fz;

  001a6	f3 0f 11 5e 08	 movss	 DWORD PTR [esi+8], xmm3
; File C:\DS Project\DS Files\Source\ClientSource\Client\EterLib\CollisionData.cpp

; 550  : }

  001ab	f3 0f 11 46 04	 movss	 DWORD PTR [esi+4], xmm0
  001b0	5e		 pop	 esi
  001b1	8b e5		 mov	 esp, ebp
  001b3	5d		 pop	 ebp
  001b4	c2 08 00	 ret	 8
$LN4@OnGetColli:

; 535  : 	}
; 536  : 	else
; 537  : 		return (gc_fReduceMove*t2)*c;

  001b7	f3 0f 59 e5	 mulss	 xmm4, xmm5

; 550  : }

  001bb	8b c6		 mov	 eax, esi
  001bd	0f 28 c4	 movaps	 xmm0, xmm4
  001c0	f3 0f 59 44 24
	04		 mulss	 xmm0, DWORD PTR tv1063[esp+32]
; File C:\DS Project\DS Files\Source\ClientSource\extern\include\d3dx8math.inl

; 180  :     x = fx;

  001c6	f3 0f 11 06	 movss	 DWORD PTR [esi], xmm0
  001ca	0f 28 c4	 movaps	 xmm0, xmm4

; 181  :     y = fy;

  001cd	f3 0f 59 64 24
	0c		 mulss	 xmm4, DWORD PTR tv1065[esp+32]
; File C:\DS Project\DS Files\Source\ClientSource\Client\EterLib\CollisionData.cpp

; 550  : }

  001d3	f3 0f 59 44 24
	08		 mulss	 xmm0, DWORD PTR tv1064[esp+32]
; File C:\DS Project\DS Files\Source\ClientSource\extern\include\d3dx8math.inl

; 182  :     z = fz;

  001d9	f3 0f 11 66 08	 movss	 DWORD PTR [esi+8], xmm4
; File C:\DS Project\DS Files\Source\ClientSource\Client\EterLib\CollisionData.cpp

; 550  : }

  001de	f3 0f 11 46 04	 movss	 DWORD PTR [esi+4], xmm0
  001e3	5e		 pop	 esi
  001e4	8b e5		 mov	 esp, ebp
  001e6	5d		 pop	 ebp
  001e7	c2 08 00	 ret	 8
?OnGetCollisionMovementAdjust@CCylinderCollisionInstance@@MBE?AUD3DXVECTOR3@@ABUCDynamicSphereInstance@@@Z ENDP ; CCylinderCollisionInstance::OnGetCollisionMovementAdjust
_TEXT	ENDS
; Function compile flags: /Ogtp
; File C:\DS Project\DS Files\Source\ClientSource\Client\EterLib\CollisionData.cpp
;	COMDAT ?OnCollisionDynamicSphere@CCylinderCollisionInstance@@MBE_NABUCDynamicSphereInstance@@@Z
_TEXT	SEGMENT
_s$ = 8							; size = 4
?OnCollisionDynamicSphere@CCylinderCollisionInstance@@MBE_NABUCDynamicSphereInstance@@@Z PROC ; CCylinderCollisionInstance::OnCollisionDynamicSphere, COMDAT
; _this$ = ecx

; 504  : {

  00000	55		 push	 ebp
  00001	8b ec		 mov	 ebp, esp

; 505  : 	//Tracef("OnCollisionDynamicSphere\n");
; 506  : 
; 507  : 	return (CollideCylinderVSDynamicSphere(m_attribute, s));

  00003	ff 75 08	 push	 DWORD PTR _s$[ebp]
  00006	8d 41 04	 lea	 eax, DWORD PTR [ecx+4]
  00009	50		 push	 eax
  0000a	e8 00 00 00 00	 call	 ?CollideCylinderVSDynamicSphere@CCylinderCollisionInstance@@IBE_NABUSCylinderData@@ABUCDynamicSphereInstance@@@Z ; CCylinderCollisionInstance::CollideCylinderVSDynamicSphere

; 508  : }

  0000f	5d		 pop	 ebp
  00010	c2 04 00	 ret	 4
?OnCollisionDynamicSphere@CCylinderCollisionInstance@@MBE_NABUCDynamicSphereInstance@@@Z ENDP ; CCylinderCollisionInstance::OnCollisionDynamicSphere
_TEXT	ENDS
; Function compile flags: /Ogtp
; File C:\DS Project\DS Files\Source\ClientSource\Client\EterLib\CollisionData.cpp
; File C:\DS Project\DS Files\Source\ClientSource\Client\EterLib\GrpMath.h
; File C:\DS Project\DS Files\Source\ClientSource\Client\EterLib\CollisionData.cpp
; File C:\DS Project\DS Files\Source\ClientSource\extern\include\d3dx8math.inl
; File C:\Program Files (x86)\Windows Kits\10\Include\10.0.18362.0\ucrt\corecrt_math.h
; File C:\DS Project\DS Files\Source\ClientSource\Client\EterLib\CollisionData.cpp
; File C:\Program Files (x86)\Windows Kits\10\Include\10.0.18362.0\ucrt\corecrt_math.h
; File C:\DS Project\DS Files\Source\ClientSource\Client\EterLib\CollisionData.cpp
; File C:\DS Project\DS Files\Source\ClientSource\extern\include\d3dx8math.inl
; File C:\DS Project\DS Files\Source\ClientSource\Client\EterLib\CollisionData.cpp
; File C:\DS Project\DS Files\Source\ClientSource\extern\include\d3dx8math.inl
; File C:\DS Project\DS Files\Source\ClientSource\Client\EterLib\CollisionData.cpp
; File C:\DS Project\DS Files\Source\ClientSource\extern\include\d3dx8math.inl
; File C:\DS Project\DS Files\Source\ClientSource\Client\EterLib\CollisionData.cpp
; File C:\DS Project\DS Files\Source\ClientSource\extern\include\d3dx8math.inl
; File C:\DS Project\DS Files\Source\ClientSource\Client\EterLib\CollisionData.cpp
; File C:\DS Project\DS Files\Source\ClientSource\extern\include\d3dx8math.inl
; File C:\DS Project\DS Files\Source\ClientSource\Client\EterLib\CollisionData.cpp
;	COMDAT ?OnMovementCollisionDynamicSphere@CCylinderCollisionInstance@@MBE_NABUCDynamicSphereInstance@@@Z
_TEXT	SEGMENT
_v3Step$1$sroa$292$1$ = -40				; size = 4
_v3Step$1$sroa$291$1$ = -36				; size = 4
_v3Step$1$sroa$290$1$ = -32				; size = 4
_iStep$1$ = -28						; size = 4
_cylinder$2 = -24					; size = 20
__$ArrayPad$ = -4					; size = 4
_s$ = 8							; size = 4
?OnMovementCollisionDynamicSphere@CCylinderCollisionInstance@@MBE_NABUCDynamicSphereInstance@@@Z PROC ; CCylinderCollisionInstance::OnMovementCollisionDynamicSphere, COMDAT
; _this$ = ecx

; 469  : {

  00000	55		 push	 ebp
  00001	8b ec		 mov	 ebp, esp
  00003	83 e4 f8	 and	 esp, -8			; fffffff8H
  00006	83 ec 2c	 sub	 esp, 44			; 0000002cH
  00009	a1 00 00 00 00	 mov	 eax, DWORD PTR ___security_cookie
  0000e	33 c4		 xor	 eax, esp
  00010	89 44 24 28	 mov	 DWORD PTR __$ArrayPad$[esp+44], eax
  00014	53		 push	 ebx
  00015	56		 push	 esi
  00016	8b d9		 mov	 ebx, ecx
  00018	57		 push	 edi
  00019	8b 7d 08	 mov	 edi, DWORD PTR _s$[ebp]

; 470  : 	if (CollideCylinderVSDynamicSphere(m_attribute, s))

  0001c	57		 push	 edi
  0001d	8d 73 04	 lea	 esi, DWORD PTR [ebx+4]
  00020	56		 push	 esi
  00021	e8 00 00 00 00	 call	 ?CollideCylinderVSDynamicSphere@CCylinderCollisionInstance@@IBE_NABUSCylinderData@@ABUCDynamicSphereInstance@@@Z ; CCylinderCollisionInstance::CollideCylinderVSDynamicSphere
  00026	84 c0		 test	 al, al
  00028	74 46		 je	 SHORT $LN35@OnMovement
; File C:\DS Project\DS Files\Source\ClientSource\Client\EterLib\GrpMath.h

; 44   : 	return (c_rv3Source.x-c_rv3Target.x)*(c_rv3Source.x-c_rv3Target.x) + (c_rv3Source.y-c_rv3Target.y)*(c_rv3Source.y-c_rv3Target.y);

  0002a	f3 0f 10 5f 04	 movss	 xmm3, DWORD PTR [edi+4]
  0002f	f3 0f 10 27	 movss	 xmm4, DWORD PTR [edi]
  00033	f3 0f 10 57 10	 movss	 xmm2, DWORD PTR [edi+16]
  00038	f3 0f 10 4f 0c	 movss	 xmm1, DWORD PTR [edi+12]
  0003d	f3 0f 5c 26	 subss	 xmm4, DWORD PTR [esi]
  00041	f3 0f 5c 0e	 subss	 xmm1, DWORD PTR [esi]
  00045	f3 0f 5c 5e 04	 subss	 xmm3, DWORD PTR [esi+4]
  0004a	f3 0f 5c 56 04	 subss	 xmm2, DWORD PTR [esi+4]
  0004f	f3 0f 59 e4	 mulss	 xmm4, xmm4
  00053	f3 0f 59 db	 mulss	 xmm3, xmm3
  00057	f3 0f 59 c9	 mulss	 xmm1, xmm1
  0005b	f3 0f 59 d2	 mulss	 xmm2, xmm2
  0005f	f3 0f 58 e3	 addss	 xmm4, xmm3
  00063	f3 0f 58 ca	 addss	 xmm1, xmm2
; File C:\DS Project\DS Files\Source\ClientSource\Client\EterLib\CollisionData.cpp

; 472  : 		if (GetVector3Distance(s.v3Position, m_attribute.v3Position) <

  00067	0f 2f cc	 comiss	 xmm1, xmm4
  0006a	0f 87 7c 01 00
	00		 ja	 $LN30@OnMovement
$LN35@OnMovement:
; File C:\DS Project\DS Files\Source\ClientSource\extern\include\d3dx8math.inl

; 263  :     return D3DXVECTOR3(x - v.x, y - v.y, z - v.z);

  00070	f3 0f 10 47 04	 movss	 xmm0, DWORD PTR [edi+4]
  00075	f3 0f 5c 47 10	 subss	 xmm0, DWORD PTR [edi+16]
  0007a	f3 0f 10 17	 movss	 xmm2, DWORD PTR [edi]
  0007e	f3 0f 5c 57 0c	 subss	 xmm2, DWORD PTR [edi+12]
  00083	f3 0f 10 5f 08	 movss	 xmm3, DWORD PTR [edi+8]
  00088	f3 0f 5c 5f 14	 subss	 xmm3, DWORD PTR [edi+20]

; 182  :     z = fz;

  0008d	0f 28 c8	 movaps	 xmm1, xmm0

; 263  :     return D3DXVECTOR3(x - v.x, y - v.y, z - v.z);

  00090	f3 0f 11 44 24
	14		 movss	 DWORD PTR _v3Step$1$sroa$291$1$[esp+56], xmm0

; 182  :     z = fz;

  00096	f3 0f 59 c8	 mulss	 xmm1, xmm0

; 1239 :     return sqrtf(pV->x * pV->x + pV->y * pV->y + pV->z * pV->z);

  0009a	0f 28 c2	 movaps	 xmm0, xmm2

; 263  :     return D3DXVECTOR3(x - v.x, y - v.y, z - v.z);

  0009d	f3 0f 11 54 24
	10		 movss	 DWORD PTR _v3Step$1$sroa$292$1$[esp+56], xmm2

; 1239 :     return sqrtf(pV->x * pV->x + pV->y * pV->y + pV->z * pV->z);

  000a3	f3 0f 59 c2	 mulss	 xmm0, xmm2

; 263  :     return D3DXVECTOR3(x - v.x, y - v.y, z - v.z);

  000a7	f3 0f 11 5c 24
	18		 movss	 DWORD PTR _v3Step$1$sroa$290$1$[esp+56], xmm3

; 1239 :     return sqrtf(pV->x * pV->x + pV->y * pV->y + pV->z * pV->z);

  000ad	f3 0f 58 c8	 addss	 xmm1, xmm0
  000b1	0f 28 c3	 movaps	 xmm0, xmm3
  000b4	f3 0f 59 c3	 mulss	 xmm0, xmm3
  000b8	f3 0f 58 c8	 addss	 xmm1, xmm0
; File C:\Program Files (x86)\Windows Kits\10\Include\10.0.18362.0\ucrt\corecrt_math.h

; 760  :             return (float)sqrt(_X);

  000bc	0f 5a c1	 cvtps2pd xmm0, xmm1
  000bf	0f 57 c9	 xorps	 xmm1, xmm1
  000c2	66 0f 2e c8	 ucomisd xmm1, xmm0
  000c6	77 06		 ja	 SHORT $LN36@OnMovement
  000c8	f2 0f 51 c0	 sqrtsd	 xmm0, xmm0
  000cc	eb 05		 jmp	 SHORT $LN37@OnMovement
$LN36@OnMovement:
  000ce	e8 00 00 00 00	 call	 __libm_sse2_sqrt_precise
$LN37@OnMovement:
; File C:\DS Project\DS Files\Source\ClientSource\Client\EterLib\CollisionData.cpp

; 480  : 	if (s.fRadius<=0.0001f)

  000d3	f3 0f 10 4f 18	 movss	 xmm1, DWORD PTR [edi+24]
; File C:\Program Files (x86)\Windows Kits\10\Include\10.0.18362.0\ucrt\corecrt_math.h

; 760  :             return (float)sqrt(_X);

  000d8	0f 57 d2	 xorps	 xmm2, xmm2
  000db	f2 0f 5a d0	 cvtsd2ss xmm2, xmm0
; File C:\DS Project\DS Files\Source\ClientSource\Client\EterLib\CollisionData.cpp

; 480  : 	if (s.fRadius<=0.0001f)

  000df	f3 0f 10 05 00
	00 00 00	 movss	 xmm0, DWORD PTR __real@38d1b717
  000e7	0f 2f c1	 comiss	 xmm0, xmm1
  000ea	0f 83 e6 00 00
	00		 jae	 $LN3@OnMovement

; 481  : 		return false;
; 482  : 	if (fDistance >= s.fRadius*2.0f)

  000f0	0f 28 c1	 movaps	 xmm0, xmm1
  000f3	f3 0f 58 c1	 addss	 xmm0, xmm1
  000f7	0f 2f d0	 comiss	 xmm2, xmm0
  000fa	0f 82 d6 00 00
	00		 jb	 $LN3@OnMovement

; 488  : 		int iStep = fDistance / s.fRadius*2.0f;

  00100	f3 0f 5e d1	 divss	 xmm2, xmm1
  00104	8b 46 10	 mov	 eax, DWORD PTR [esi+16]
  00107	89 44 24 30	 mov	 DWORD PTR _cylinder$2[esp+72], eax
  0010b	8b 47 14	 mov	 eax, DWORD PTR [edi+20]
  0010e	0f 10 06	 movups	 xmm0, XMMWORD PTR [esi]

; 491  : 		for (int i = 0; i < iStep; ++i)

  00111	33 f6		 xor	 esi, esi
; File C:\DS Project\DS Files\Source\ClientSource\extern\include\d3dx8math.inl

; 275  :     FLOAT fInv = 1.0f / f;

  00113	f3 0f 10 0d 00
	00 00 00	 movss	 xmm1, DWORD PTR __real@3f800000
; File C:\DS Project\DS Files\Source\ClientSource\Client\EterLib\CollisionData.cpp

; 488  : 		int iStep = fDistance / s.fRadius*2.0f;

  0011b	f3 0f 58 d2	 addss	 xmm2, xmm2
  0011f	0f 11 44 24 20	 movups	 XMMWORD PTR _cylinder$2[esp+56], xmm0
  00124	89 44 24 28	 mov	 DWORD PTR _cylinder$2[esp+64], eax
  00128	f3 0f 7e 47 0c	 movq	 xmm0, QWORD PTR [edi+12]
  0012d	66 0f d6 44 24
	20		 movq	 QWORD PTR _cylinder$2[esp+56], xmm0
  00133	f3 0f 2c c2	 cvttss2si eax, xmm2
; File C:\DS Project\DS Files\Source\ClientSource\extern\include\d3dx8math.inl

; 180  :     x = fx;

  00137	f3 0f 10 54 24
	14		 movss	 xmm2, DWORD PTR _v3Step$1$sroa$291$1$[esp+56]

; 181  :     y = fy;

  0013d	f3 0f 10 5c 24
	18		 movss	 xmm3, DWORD PTR _v3Step$1$sroa$290$1$[esp+56]
; File C:\DS Project\DS Files\Source\ClientSource\Client\EterLib\CollisionData.cpp

; 488  : 		int iStep = fDistance / s.fRadius*2.0f;

  00143	89 44 24 1c	 mov	 DWORD PTR _iStep$1$[esp+56], eax
  00147	66 0f 6e c0	 movd	 xmm0, eax

; 489  : 		D3DXVECTOR3 v3Step = v3Distance / float(iStep);

  0014b	0f 5b c0	 cvtdq2ps xmm0, xmm0
; File C:\DS Project\DS Files\Source\ClientSource\extern\include\d3dx8math.inl

; 275  :     FLOAT fInv = 1.0f / f;

  0014e	f3 0f 5e c8	 divss	 xmm1, xmm0
  00152	f3 0f 10 44 24
	10		 movss	 xmm0, DWORD PTR _v3Step$1$sroa$292$1$[esp+56]
  00158	f3 0f 59 c1	 mulss	 xmm0, xmm1

; 180  :     x = fx;

  0015c	f3 0f 59 d1	 mulss	 xmm2, xmm1

; 181  :     y = fy;

  00160	f3 0f 59 d9	 mulss	 xmm3, xmm1

; 275  :     FLOAT fInv = 1.0f / f;

  00164	f3 0f 11 44 24
	10		 movss	 DWORD PTR _v3Step$1$sroa$292$1$[esp+56], xmm0

; 180  :     x = fx;

  0016a	f3 0f 11 54 24
	14		 movss	 DWORD PTR _v3Step$1$sroa$291$1$[esp+56], xmm2

; 181  :     y = fy;

  00170	f3 0f 11 5c 24
	18		 movss	 DWORD PTR _v3Step$1$sroa$290$1$[esp+56], xmm3
; File C:\DS Project\DS Files\Source\ClientSource\Client\EterLib\CollisionData.cpp

; 491  : 		for (int i = 0; i < iStep; ++i)

  00176	85 c0		 test	 eax, eax
  00178	7e 5c		 jle	 SHORT $LN3@OnMovement
  0017a	66 0f 1f 44 00
	00		 npad	 6
$LL4@OnMovement:
; File C:\DS Project\DS Files\Source\ClientSource\extern\include\d3dx8math.inl

; 204  :     x += v.x;

  00180	f3 0f 58 44 24
	20		 addss	 xmm0, DWORD PTR _cylinder$2[esp+56]
; File C:\DS Project\DS Files\Source\ClientSource\Client\EterLib\CollisionData.cpp

; 494  : 			if (CollideCylinderVSDynamicSphere(cylinder, s))

  00186	57		 push	 edi
  00187	8d 44 24 24	 lea	 eax, DWORD PTR _cylinder$2[esp+60]
  0018b	8b cb		 mov	 ecx, ebx
  0018d	50		 push	 eax
; File C:\DS Project\DS Files\Source\ClientSource\extern\include\d3dx8math.inl

; 204  :     x += v.x;

  0018e	f3 0f 11 44 24
	28		 movss	 DWORD PTR _cylinder$2[esp+64], xmm0

; 205  :     y += v.y;

  00194	f3 0f 10 44 24
	2c		 movss	 xmm0, DWORD PTR _cylinder$2[esp+68]
  0019a	f3 0f 58 c2	 addss	 xmm0, xmm2
  0019e	f3 0f 11 44 24
	2c		 movss	 DWORD PTR _cylinder$2[esp+68], xmm0

; 206  :     z += v.z;

  001a4	f3 0f 10 44 24
	30		 movss	 xmm0, DWORD PTR _cylinder$2[esp+72]
  001aa	f3 0f 58 c3	 addss	 xmm0, xmm3
  001ae	f3 0f 11 44 24
	30		 movss	 DWORD PTR _cylinder$2[esp+72], xmm0
; File C:\DS Project\DS Files\Source\ClientSource\Client\EterLib\CollisionData.cpp

; 494  : 			if (CollideCylinderVSDynamicSphere(cylinder, s))

  001b4	e8 00 00 00 00	 call	 ?CollideCylinderVSDynamicSphere@CCylinderCollisionInstance@@IBE_NABUSCylinderData@@ABUCDynamicSphereInstance@@@Z ; CCylinderCollisionInstance::CollideCylinderVSDynamicSphere
  001b9	84 c0		 test	 al, al
  001bb	75 2f		 jne	 SHORT $LN30@OnMovement

; 491  : 		for (int i = 0; i < iStep; ++i)

  001bd	f3 0f 10 44 24
	10		 movss	 xmm0, DWORD PTR _v3Step$1$sroa$292$1$[esp+56]
  001c3	46		 inc	 esi
  001c4	f3 0f 10 54 24
	14		 movss	 xmm2, DWORD PTR _v3Step$1$sroa$291$1$[esp+56]
  001ca	f3 0f 10 5c 24
	18		 movss	 xmm3, DWORD PTR _v3Step$1$sroa$290$1$[esp+56]
  001d0	3b 74 24 1c	 cmp	 esi, DWORD PTR _iStep$1$[esp+56]
  001d4	7c aa		 jl	 SHORT $LL4@OnMovement
$LN3@OnMovement:

; 495  : 				return true;
; 496  : 
; 497  : 		}
; 498  : 	}
; 499  : 
; 500  : 	return false;

  001d6	32 c0		 xor	 al, al

; 501  : }

  001d8	5f		 pop	 edi
  001d9	5e		 pop	 esi
  001da	5b		 pop	 ebx
  001db	8b 4c 24 28	 mov	 ecx, DWORD PTR __$ArrayPad$[esp+44]
  001df	33 cc		 xor	 ecx, esp
  001e1	e8 00 00 00 00	 call	 @__security_check_cookie@4
  001e6	8b e5		 mov	 esp, ebp
  001e8	5d		 pop	 ebp
  001e9	c2 04 00	 ret	 4
$LN30@OnMovement:
  001ec	8b 4c 24 34	 mov	 ecx, DWORD PTR __$ArrayPad$[esp+56]
  001f0	b0 01		 mov	 al, 1
  001f2	5f		 pop	 edi
  001f3	5e		 pop	 esi
  001f4	5b		 pop	 ebx
  001f5	33 cc		 xor	 ecx, esp
  001f7	e8 00 00 00 00	 call	 @__security_check_cookie@4
  001fc	8b e5		 mov	 esp, ebp
  001fe	5d		 pop	 ebp
  001ff	c2 04 00	 ret	 4
?OnMovementCollisionDynamicSphere@CCylinderCollisionInstance@@MBE_NABUCDynamicSphereInstance@@@Z ENDP ; CCylinderCollisionInstance::OnMovementCollisionDynamicSphere
_TEXT	ENDS
; Function compile flags: /Ogtp
; File C:\DS Project\DS Files\Source\ClientSource\Client\EterLib\CollisionData.cpp
; File C:\Program Files (x86)\Microsoft Visual Studio\2019\Community\VC\Tools\MSVC\14.27.29110\include\vector
; File C:\DS Project\DS Files\Source\ClientSource\Client\EterLib\CollisionData.cpp
; File C:\Program Files (x86)\Microsoft Visual Studio\2019\Community\VC\Tools\MSVC\14.27.29110\include\vector
; File C:\DS Project\DS Files\Source\ClientSource\Client\EterLib\CollisionData.cpp
; File C:\Program Files (x86)\Microsoft Visual Studio\2019\Community\VC\Tools\MSVC\14.27.29110\include\vector
; File C:\DS Project\DS Files\Source\ClientSource\Client\EterLib\CollisionData.cpp
;	COMDAT ?OnDestroy@CCylinderCollisionInstance@@MAEXXZ
_TEXT	SEGMENT
_pkData$ = -4						; size = 4
?OnDestroy@CCylinderCollisionInstance@@MAEXXZ PROC	; CCylinderCollisionInstance::OnDestroy, COMDAT
; _this$ = ecx

; 560  : {

  00000	55		 push	 ebp
  00001	8b ec		 mov	 ebp, esp
  00003	51		 push	 ecx
; File C:\Program Files (x86)\Microsoft Visual Studio\2019\Community\VC\Tools\MSVC\14.27.29110\include\vector

; 704  :         if (_Mylast != _My_data._Myend) {

  00004	a1 14 00 00 00	 mov	 eax, DWORD PTR ?gs_cci@@3V?$CDynamicPool@VCCylinderCollisionInstance@@@@A+20
; File C:\DS Project\DS Files\Source\ClientSource\Client\EterLib\CollisionData.cpp

; 561  : 	gs_cci.Free(this);

  00009	89 4d fc	 mov	 DWORD PTR _pkData$[ebp], ecx
; File C:\Program Files (x86)\Microsoft Visual Studio\2019\Community\VC\Tools\MSVC\14.27.29110\include\vector

; 704  :         if (_Mylast != _My_data._Myend) {

  0000c	3b 05 18 00 00
	00		 cmp	 eax, DWORD PTR ?gs_cci@@3V?$CDynamicPool@VCCylinderCollisionInstance@@@@A+24
  00012	74 0d		 je	 SHORT $LN8@OnDestroy

; 687  :         _Alty_traits::construct(_Getal(), _Unfancy(_Mylast), _STD forward<_Valty>(_Val)...);

  00014	89 08		 mov	 DWORD PTR [eax], ecx

; 688  :         _Orphan_range(_Mylast, _Mylast);
; 689  :         _Ty& _Result = *_Mylast;
; 690  :         ++_Mylast;

  00016	83 05 14 00 00
	00 04		 add	 DWORD PTR ?gs_cci@@3V?$CDynamicPool@VCCylinderCollisionInstance@@@@A+20, 4
; File C:\DS Project\DS Files\Source\ClientSource\Client\EterLib\CollisionData.cpp

; 562  : }

  0001d	8b e5		 mov	 esp, ebp
  0001f	5d		 pop	 ebp
  00020	c3		 ret	 0
$LN8@OnDestroy:
; File C:\Program Files (x86)\Microsoft Visual Studio\2019\Community\VC\Tools\MSVC\14.27.29110\include\vector

; 708  :         _Ty& _Result = *_Emplace_reallocate(_Mylast, _STD forward<_Valty>(_Val)...);

  00021	8d 4d fc	 lea	 ecx, DWORD PTR _pkData$[ebp]
  00024	51		 push	 ecx
  00025	50		 push	 eax
  00026	b9 10 00 00 00	 mov	 ecx, OFFSET ?gs_cci@@3V?$CDynamicPool@VCCylinderCollisionInstance@@@@A+16
  0002b	e8 00 00 00 00	 call	 ??$_Emplace_reallocate@ABQAVCCylinderCollisionInstance@@@?$vector@PAVCCylinderCollisionInstance@@V?$allocator@PAVCCylinderCollisionInstance@@@std@@@std@@QAEPAPAVCCylinderCollisionInstance@@QAPAV2@ABQAV2@@Z ; std::vector<CCylinderCollisionInstance *,std::allocator<CCylinderCollisionInstance *> >::_Emplace_reallocate<CCylinderCollisionInstance * const &>
; File C:\DS Project\DS Files\Source\ClientSource\Client\EterLib\CollisionData.cpp

; 562  : }

  00030	8b e5		 mov	 esp, ebp
  00032	5d		 pop	 ebp
  00033	c3		 ret	 0
?OnDestroy@CCylinderCollisionInstance@@MAEXXZ ENDP	; CCylinderCollisionInstance::OnDestroy
_TEXT	ENDS
; Function compile flags: /Ogtp
; File C:\DS Project\DS Files\Source\ClientSource\Client\EterLib\CollisionData.cpp
;	COMDAT ?Render@CCylinderCollisionInstance@@UAEXW4_D3DFILLMODE@@@Z
_TEXT	SEGMENT
__$EHRec$ = -12						; size = 12
_d3dFillMode$ = 8					; size = 4
?Render@CCylinderCollisionInstance@@UAEXW4_D3DFILLMODE@@@Z PROC ; CCylinderCollisionInstance::Render, COMDAT
; _this$ = ecx

; 553  : {

  00000	55		 push	 ebp
  00001	8b ec		 mov	 ebp, esp
  00003	6a ff		 push	 -1
  00005	68 00 00 00 00	 push	 __ehhandler$?Render@CCylinderCollisionInstance@@UAEXW4_D3DFILLMODE@@@Z
  0000a	64 a1 00 00 00
	00		 mov	 eax, DWORD PTR fs:0
  00010	50		 push	 eax
  00011	56		 push	 esi
  00012	a1 00 00 00 00	 mov	 eax, DWORD PTR ___security_cookie
  00017	33 c5		 xor	 eax, ebp
  00019	50		 push	 eax
  0001a	8d 45 f4	 lea	 eax, DWORD PTR __$EHRec$[ebp]
  0001d	64 a3 00 00 00
	00		 mov	 DWORD PTR fs:0, eax
  00023	8b f1		 mov	 esi, ecx

; 554  : 	static CScreen s;

  00025	64 a1 00 00 00
	00		 mov	 eax, DWORD PTR fs:__tls_array
  0002b	8b 15 00 00 00
	00		 mov	 edx, DWORD PTR __tls_index
  00031	8b 14 90	 mov	 edx, DWORD PTR [eax+edx*4]
  00034	a1 00 00 00 00	 mov	 eax, DWORD PTR ?$TSS0@?1??Render@CCylinderCollisionInstance@@UAEXW4_D3DFILLMODE@@@Z@4HA
  00039	3b 82 00 00 00
	00		 cmp	 eax, DWORD PTR __Init_thread_epoch[edx]
  0003f	7f 71		 jg	 SHORT $LN7@Render
$LN2@Render:

; 555  : 	STATEMANAGER.SetRenderState(D3DRS_TEXTUREFACTOR, 0xffffffff);

  00041	8b 0d 00 00 00
	00		 mov	 ecx, DWORD PTR ?ms_singleton@?$CSingleton@VCStateManager@@@@0PAVCStateManager@@A ; CSingleton<CStateManager>::ms_singleton
  00047	6a ff		 push	 -1
  00049	6a 3c		 push	 60			; 0000003cH
  0004b	e8 00 00 00 00	 call	 ?SetRenderState@CStateManager@@QAEXW4_D3DRENDERSTATETYPE@@K@Z ; CStateManager::SetRenderState

