; Listing generated by Microsoft (R) Optimizing Compiler Version 19.27.29112.0 

	TITLE	C:\DS Project\DS Files\Source\ClientSource\Client\EterLib\GrpColor.cpp
	.686P
	.XMM
	include listing.inc
	.model	flat

INCLUDELIB LIBCMT
INCLUDELIB OLDNAMES

PUBLIC	??0CGraphicColor@@QAE@ABV0@@Z			; CGraphicColor::CGraphicColor
PUBLIC	??0CGraphicColor@@QAE@MMMM@Z			; CGraphicColor::CGraphicColor
PUBLIC	??0CGraphicColor@@QAE@K@Z			; CGraphicColor::CGraphicColor
PUBLIC	??0CGraphicColor@@QAE@XZ			; CGraphicColor::CGraphicColor
PUBLIC	??1CGraphicColor@@QAE@XZ			; CGraphicColor::~CGraphicColor
PUBLIC	?Clear@CGraphicColor@@QAEXXZ			; CGraphicColor::Clear
PUBLIC	?Set@CGraphicColor@@QAEXMMMM@Z			; CGraphicColor::Set
PUBLIC	?Set@CGraphicColor@@QAEXABV1@@Z			; CGraphicColor::Set
PUBLIC	?Set@CGraphicColor@@QAEXK@Z			; CGraphicColor::Set
PUBLIC	?Blend@CGraphicColor@@QAEXMABV1@0@Z		; CGraphicColor::Blend
PUBLIC	?GetPackValue@CGraphicColor@@QBEKXZ		; CGraphicColor::GetPackValue
PUBLIC	__real@3f800000
PUBLIC	__real@437f0000
PUBLIC	__xmm@41f00000000000000000000000000000
EXTRN	__fltused:DWORD
;	COMDAT __xmm@41f00000000000000000000000000000
CONST	SEGMENT
__xmm@41f00000000000000000000000000000 DB 00H, 00H, 00H, 00H, 00H, 00H, 00H
	DB	00H, 00H, 00H, 00H, 00H, 00H, 00H, 0f0H, 'A'
CONST	ENDS
;	COMDAT __real@437f0000
CONST	SEGMENT
__real@437f0000 DD 0437f0000r			; 255
CONST	ENDS
;	COMDAT __real@3f800000
CONST	SEGMENT
__real@3f800000 DD 03f800000r			; 1
CONST	ENDS
; Function compile flags: /Ogtp
; File C:\DS Project\DS Files\Source\ClientSource\Client\EterLib\GrpColor.cpp
;	COMDAT ?GetPackValue@CGraphicColor@@QBEKXZ
_TEXT	SEGMENT
?GetPackValue@CGraphicColor@@QBEKXZ PROC		; CGraphicColor::GetPackValue, COMDAT
; _this$ = ecx

; 68   : 	DWORD packValue=0;
; 69   : 
; 70   : 	packValue  = int(255.0f * m_a);packValue <<= 8;

  00000	f3 0f 10 0d 00
	00 00 00	 movss	 xmm1, DWORD PTR __real@437f0000
  00008	56		 push	 esi
  00009	8b f1		 mov	 esi, ecx
  0000b	f3 0f 10 46 0c	 movss	 xmm0, DWORD PTR [esi+12]
  00010	f3 0f 59 c1	 mulss	 xmm0, xmm1
  00014	f3 0f 2c d0	 cvttss2si edx, xmm0

; 71   : 	packValue |= int(255.0f * m_r);packValue <<= 8;

  00018	f3 0f 10 06	 movss	 xmm0, DWORD PTR [esi]
  0001c	f3 0f 59 c1	 mulss	 xmm0, xmm1

; 72   : 	packValue |= int(255.0f * m_g);packValue <<= 8;
; 73   : 	packValue |= int(255.0f * m_b);

  00020	c1 e2 08	 shl	 edx, 8
  00023	f3 0f 2c c0	 cvttss2si eax, xmm0
  00027	f3 0f 10 46 04	 movss	 xmm0, DWORD PTR [esi+4]
  0002c	f3 0f 59 c1	 mulss	 xmm0, xmm1
  00030	0b c2		 or	 eax, edx
  00032	c1 e0 08	 shl	 eax, 8
  00035	f3 0f 2c c8	 cvttss2si ecx, xmm0
  00039	f3 0f 10 46 08	 movss	 xmm0, DWORD PTR [esi+8]
  0003e	f3 0f 59 c1	 mulss	 xmm0, xmm1
  00042	0b c1		 or	 eax, ecx
  00044	c1 e0 08	 shl	 eax, 8

; 74   : 
; 75   : 	return packValue;

  00047	5e		 pop	 esi
  00048	f3 0f 2c c8	 cvttss2si ecx, xmm0
  0004c	0b c1		 or	 eax, ecx

; 76   : }

  0004e	c3		 ret	 0
?GetPackValue@CGraphicColor@@QBEKXZ ENDP		; CGraphicColor::GetPackValue
_TEXT	ENDS
; Function compile flags: /Ogtp
; File C:\DS Project\DS Files\Source\ClientSource\Client\EterLib\GrpColor.cpp
;	COMDAT ?Blend@CGraphicColor@@QAEXMABV1@0@Z
_TEXT	SEGMENT
_p$ = 8							; size = 4
_c_rSrcColor$ = 12					; size = 4
_c_rDstColor$ = 16					; size = 4
?Blend@CGraphicColor@@QAEXMABV1@0@Z PROC		; CGraphicColor::Blend, COMDAT
; _this$ = ecx

; 50   : {

  00000	55		 push	 ebp
  00001	8b ec		 mov	 ebp, esp

; 51   : 	float q=1.0f-p;

  00003	f3 0f 10 5d 08	 movss	 xmm3, DWORD PTR _p$[ebp]

; 52   : 	m_r=c_rSrcColor.m_r*q+c_rDstColor.m_r*p;

  00008	8b 55 0c	 mov	 edx, DWORD PTR _c_rSrcColor$[ebp]
  0000b	8b 45 10	 mov	 eax, DWORD PTR _c_rDstColor$[ebp]
  0000e	f3 0f 10 15 00
	00 00 00	 movss	 xmm2, DWORD PTR __real@3f800000
  00016	f3 0f 5c d3	 subss	 xmm2, xmm3
  0001a	f3 0f 10 0a	 movss	 xmm1, DWORD PTR [edx]
  0001e	f3 0f 10 00	 movss	 xmm0, DWORD PTR [eax]
  00022	f3 0f 59 c3	 mulss	 xmm0, xmm3
  00026	f3 0f 59 ca	 mulss	 xmm1, xmm2
  0002a	f3 0f 58 c8	 addss	 xmm1, xmm0
  0002e	f3 0f 11 09	 movss	 DWORD PTR [ecx], xmm1
  00032	f3 0f 10 4a 04	 movss	 xmm1, DWORD PTR [edx+4]
  00037	f3 0f 10 40 04	 movss	 xmm0, DWORD PTR [eax+4]
  0003c	f3 0f 59 ca	 mulss	 xmm1, xmm2
  00040	f3 0f 59 c3	 mulss	 xmm0, xmm3
  00044	f3 0f 58 c8	 addss	 xmm1, xmm0
  00048	f3 0f 11 49 04	 movss	 DWORD PTR [ecx+4], xmm1
  0004d	f3 0f 10 4a 08	 movss	 xmm1, DWORD PTR [edx+8]
  00052	f3 0f 10 40 08	 movss	 xmm0, DWORD PTR [eax+8]
  00057	f3 0f 59 ca	 mulss	 xmm1, xmm2
  0005b	f3 0f 59 c3	 mulss	 xmm0, xmm3
  0005f	f3 0f 58 c8	 addss	 xmm1, xmm0
  00063	f3 0f 11 49 08	 movss	 DWORD PTR [ecx+8], xmm1
  00068	f3 0f 10 4a 0c	 movss	 xmm1, DWORD PTR [edx+12]
  0006d	f3 0f 10 40 0c	 movss	 xmm0, DWORD PTR [eax+12]
  00072	f3 0f 59 ca	 mulss	 xmm1, xmm2
  00076	f3 0f 59 c3	 mulss	 xmm0, xmm3
  0007a	f3 0f 58 c8	 addss	 xmm1, xmm0
  0007e	f3 0f 11 49 0c	 movss	 DWORD PTR [ecx+12], xmm1

; 53   : 	m_g=c_rSrcColor.m_g*q+c_rDstColor.m_g*p;
; 54   : 	m_b=c_rSrcColor.m_b*q+c_rDstColor.m_b*p;
; 55   : 	m_a=c_rSrcColor.m_a*q+c_rDstColor.m_a*p;
; 56   : }

  00083	5d		 pop	 ebp
  00084	c2 0c 00	 ret	 12			; 0000000cH
?Blend@CGraphicColor@@QAEXMABV1@0@Z ENDP		; CGraphicColor::Blend
_TEXT	ENDS
; Function compile flags: /Ogtp
; File C:\DS Project\DS Files\Source\ClientSource\Client\EterLib\GrpColor.cpp
;	COMDAT ?Set@CGraphicColor@@QAEXK@Z
_TEXT	SEGMENT
_pack$ = 8						; size = 4
?Set@CGraphicColor@@QAEXK@Z PROC			; CGraphicColor::Set, COMDAT
; _this$ = ecx

; 59   : {

  00000	55		 push	 ebp
  00001	8b ec		 mov	 ebp, esp

; 60   : 	m_b = (pack & 0xff) / 255.0f; pack >>= 8;

  00003	8b 55 08	 mov	 edx, DWORD PTR _pack$[ebp]
  00006	f3 0f 10 0d 00
	00 00 00	 movss	 xmm1, DWORD PTR __real@437f0000
  0000e	0f b6 c2	 movzx	 eax, dl
  00011	c1 ea 08	 shr	 edx, 8
  00014	66 0f 6e c0	 movd	 xmm0, eax
  00018	f3 0f e6 c0	 cvtdq2pd xmm0, xmm0
  0001c	c1 e8 1f	 shr	 eax, 31			; 0000001fH
  0001f	f2 0f 58 04 c5
	00 00 00 00	 addsd	 xmm0, QWORD PTR __xmm@41f00000000000000000000000000000[eax*8]

; 61   : 	m_g = (pack & 0xff) / 255.0f; pack >>= 8;

  00028	0f b6 c2	 movzx	 eax, dl
  0002b	c1 ea 08	 shr	 edx, 8
  0002e	66 0f 5a c0	 cvtpd2ps xmm0, xmm0
  00032	f3 0f 5e c1	 divss	 xmm0, xmm1
  00036	f3 0f 11 41 08	 movss	 DWORD PTR [ecx+8], xmm0
  0003b	66 0f 6e c0	 movd	 xmm0, eax
  0003f	f3 0f e6 c0	 cvtdq2pd xmm0, xmm0
  00043	c1 e8 1f	 shr	 eax, 31			; 0000001fH
  00046	f2 0f 58 04 c5
	00 00 00 00	 addsd	 xmm0, QWORD PTR __xmm@41f00000000000000000000000000000[eax*8]

; 62   : 	m_r = (pack & 0xff) / 255.0f; pack >>= 8;

  0004f	0f b6 c2	 movzx	 eax, dl
  00052	c1 ea 08	 shr	 edx, 8
  00055	66 0f 5a c0	 cvtpd2ps xmm0, xmm0
  00059	f3 0f 5e c1	 divss	 xmm0, xmm1
  0005d	f3 0f 11 41 04	 movss	 DWORD PTR [ecx+4], xmm0
  00062	66 0f 6e c0	 movd	 xmm0, eax
  00066	f3 0f e6 c0	 cvtdq2pd xmm0, xmm0
  0006a	c1 e8 1f	 shr	 eax, 31			; 0000001fH
  0006d	f2 0f 58 04 c5
	00 00 00 00	 addsd	 xmm0, QWORD PTR __xmm@41f00000000000000000000000000000[eax*8]
  00076	66 0f 5a c0	 cvtpd2ps xmm0, xmm0
  0007a	f3 0f 5e c1	 divss	 xmm0, xmm1
  0007e	f3 0f 11 01	 movss	 DWORD PTR [ecx], xmm0
  00082	66 0f 6e c2	 movd	 xmm0, edx

; 63   : 	m_a = (pack) / 255.0f;

  00086	f3 0f e6 c0	 cvtdq2pd xmm0, xmm0
  0008a	c1 ea 1f	 shr	 edx, 31			; 0000001fH
  0008d	f2 0f 58 04 d5
	00 00 00 00	 addsd	 xmm0, QWORD PTR __xmm@41f00000000000000000000000000000[edx*8]
  00096	66 0f 5a c0	 cvtpd2ps xmm0, xmm0
  0009a	f3 0f 5e c1	 divss	 xmm0, xmm1
  0009e	f3 0f 11 41 0c	 movss	 DWORD PTR [ecx+12], xmm0

; 64   : }

  000a3	5d		 pop	 ebp
  000a4	c2 04 00	 ret	 4
?Set@CGraphicColor@@QAEXK@Z ENDP			; CGraphicColor::Set
_TEXT	ENDS
; Function compile flags: /Ogtp
; File C:\DS Project\DS Files\Source\ClientSource\Client\EterLib\GrpColor.cpp
;	COMDAT ?Set@CGraphicColor@@QAEXABV1@@Z
_TEXT	SEGMENT
_c_rSrcColor$ = 8					; size = 4
?Set@CGraphicColor@@QAEXABV1@@Z PROC			; CGraphicColor::Set, COMDAT
; _this$ = ecx

; 42   : {

  00000	55		 push	 ebp
  00001	8b ec		 mov	 ebp, esp

; 43   : 	m_r=c_rSrcColor.m_r;

  00003	8b 55 08	 mov	 edx, DWORD PTR _c_rSrcColor$[ebp]
  00006	8b 02		 mov	 eax, DWORD PTR [edx]
  00008	89 01		 mov	 DWORD PTR [ecx], eax

; 44   : 	m_g=c_rSrcColor.m_g;

  0000a	8b 42 04	 mov	 eax, DWORD PTR [edx+4]
  0000d	89 41 04	 mov	 DWORD PTR [ecx+4], eax

; 45   : 	m_b=c_rSrcColor.m_b;

  00010	8b 42 08	 mov	 eax, DWORD PTR [edx+8]
  00013	89 41 08	 mov	 DWORD PTR [ecx+8], eax

; 46   : 	m_a=c_rSrcColor.m_a;

  00016	8b 42 0c	 mov	 eax, DWORD PTR [edx+12]
  00019	89 41 0c	 mov	 DWORD PTR [ecx+12], eax

; 47   : }

  0001c	5d		 pop	 ebp
  0001d	c2 04 00	 ret	 4
?Set@CGraphicColor@@QAEXABV1@@Z ENDP			; CGraphicColor::Set
_TEXT	ENDS
; Function compile flags: /Ogtp
; File C:\DS Project\DS Files\Source\ClientSource\Client\EterLib\GrpColor.cpp
;	COMDAT ?Set@CGraphicColor@@QAEXMMMM@Z
_TEXT	SEGMENT
_r$ = 8							; size = 4
_g$ = 12						; size = 4
_b$ = 16						; size = 4
_a$ = 20						; size = 4
?Set@CGraphicColor@@QAEXMMMM@Z PROC			; CGraphicColor::Set, COMDAT
; _this$ = ecx

; 34   : {

  00000	55		 push	 ebp
  00001	8b ec		 mov	 ebp, esp

; 35   : 	m_r=r;

  00003	f3 0f 10 45 08	 movss	 xmm0, DWORD PTR _r$[ebp]
  00008	f3 0f 11 01	 movss	 DWORD PTR [ecx], xmm0

; 36   : 	m_g=g;

  0000c	f3 0f 10 45 0c	 movss	 xmm0, DWORD PTR _g$[ebp]
  00011	f3 0f 11 41 04	 movss	 DWORD PTR [ecx+4], xmm0

; 37   : 	m_b=b;

  00016	f3 0f 10 45 10	 movss	 xmm0, DWORD PTR _b$[ebp]
  0001b	f3 0f 11 41 08	 movss	 DWORD PTR [ecx+8], xmm0

; 38   : 	m_a=a;

  00020	f3 0f 10 45 14	 movss	 xmm0, DWORD PTR _a$[ebp]
  00025	f3 0f 11 41 0c	 movss	 DWORD PTR [ecx+12], xmm0

; 39   : }

  0002a	5d		 pop	 ebp
  0002b	c2 10 00	 ret	 16			; 00000010H
?Set@CGraphicColor@@QAEXMMMM@Z ENDP			; CGraphicColor::Set
_TEXT	ENDS
; Function compile flags: /Ogtp
; File C:\DS Project\DS Files\Source\ClientSource\Client\EterLib\GrpColor.cpp
;	COMDAT ?Clear@CGraphicColor@@QAEXXZ
_TEXT	SEGMENT
?Clear@CGraphicColor@@QAEXXZ PROC			; CGraphicColor::Clear, COMDAT
; _this$ = ecx

; 30   : 	Set(1.0f, 1.0f, 1.0f, 1.0f);

  00000	83 ec 10	 sub	 esp, 16			; 00000010H
  00003	c7 44 24 0c 00
	00 80 3f	 mov	 DWORD PTR [esp+12], 1065353216 ; 3f800000H
  0000b	c7 44 24 08 00
	00 80 3f	 mov	 DWORD PTR [esp+8], 1065353216 ; 3f800000H
  00013	c7 44 24 04 00
	00 80 3f	 mov	 DWORD PTR [esp+4], 1065353216 ; 3f800000H
  0001b	c7 04 24 00 00
	80 3f		 mov	 DWORD PTR [esp], 1065353216 ; 3f800000H
  00022	e8 00 00 00 00	 call	 ?Set@CGraphicColor@@QAEXMMMM@Z ; CGraphicColor::Set

; 31   : }

  00027	c3		 ret	 0
?Clear@CGraphicColor@@QAEXXZ ENDP			; CGraphicColor::Clear
_TEXT	ENDS
; Function compile flags: /Ogtp
; File C:\DS Project\DS Files\Source\ClientSource\Client\EterLib\GrpColor.cpp
;	COMDAT ??1CGraphicColor@@QAE@XZ
_TEXT	SEGMENT
??1CGraphicColor@@QAE@XZ PROC				; CGraphicColor::~CGraphicColor, COMDAT
; _this$ = ecx

; 26   : }

  00000	c2 00 00	 ret	 0
??1CGraphicColor@@QAE@XZ ENDP				; CGraphicColor::~CGraphicColor
_TEXT	ENDS
; Function compile flags: /Ogtp
; File C:\DS Project\DS Files\Source\ClientSource\Client\EterLib\GrpColor.cpp
;	COMDAT ??0CGraphicColor@@QAE@XZ
_TEXT	SEGMENT
??0CGraphicColor@@QAE@XZ PROC				; CGraphicColor::CGraphicColor, COMDAT
; _this$ = ecx

; 5    : {

  00000	56		 push	 esi
  00001	8b f1		 mov	 esi, ecx

; 6    : 	Clear();

  00003	e8 00 00 00 00	 call	 ?Clear@CGraphicColor@@QAEXXZ ; CGraphicColor::Clear

; 7    : }

  00008	8b c6		 mov	 eax, esi
  0000a	5e		 pop	 esi
  0000b	c3		 ret	 0
??0CGraphicColor@@QAE@XZ ENDP				; CGraphicColor::CGraphicColor
_TEXT	ENDS
; Function compile flags: /Ogtp
; File C:\DS Project\DS Files\Source\ClientSource\Client\EterLib\GrpColor.cpp
;	COMDAT ??0CGraphicColor@@QAE@K@Z
_TEXT	SEGMENT
_color$ = 8						; size = 4
??0CGraphicColor@@QAE@K@Z PROC				; CGraphicColor::CGraphicColor, COMDAT
; _this$ = ecx

; 20   : {

  00000	55		 push	 ebp
  00001	8b ec		 mov	 ebp, esp
  00003	56		 push	 esi

; 21   : 	Set(color);

  00004	ff 75 08	 push	 DWORD PTR _color$[ebp]
  00007	8b f1		 mov	 esi, ecx
  00009	e8 00 00 00 00	 call	 ?Set@CGraphicColor@@QAEXK@Z ; CGraphicColor::Set

; 22   : }

  0000e	8b c6		 mov	 eax, esi
  00010	5e		 pop	 esi
  00011	5d		 pop	 ebp
  00012	c2 04 00	 ret	 4
??0CGraphicColor@@QAE@K@Z ENDP				; CGraphicColor::CGraphicColor
_TEXT	ENDS
; Function compile flags: /Ogtp
; File C:\DS Project\DS Files\Source\ClientSource\Client\EterLib\GrpColor.cpp
;	COMDAT ??0CGraphicColor@@QAE@MMMM@Z
_TEXT	SEGMENT
_r$ = 8							; size = 4
_g$ = 12						; size = 4
_b$ = 16						; size = 4
_a$ = 20						; size = 4
??0CGraphicColor@@QAE@MMMM@Z PROC			; CGraphicColor::CGraphicColor, COMDAT
; _this$ = ecx

; 15   : {

  00000	55		 push	 ebp
  00001	8b ec		 mov	 ebp, esp

; 16   : 	Set(r, g, b, a);

  00003	f3 0f 10 45 14	 movss	 xmm0, DWORD PTR _a$[ebp]
  00008	56		 push	 esi
  00009	83 ec 10	 sub	 esp, 16			; 00000010H
  0000c	8b f1		 mov	 esi, ecx
  0000e	f3 0f 11 44 24
	0c		 movss	 DWORD PTR [esp+12], xmm0
  00014	f3 0f 10 45 10	 movss	 xmm0, DWORD PTR _b$[ebp]
  00019	f3 0f 11 44 24
	08		 movss	 DWORD PTR [esp+8], xmm0
  0001f	f3 0f 10 45 0c	 movss	 xmm0, DWORD PTR _g$[ebp]
  00024	f3 0f 11 44 24
	04		 movss	 DWORD PTR [esp+4], xmm0
  0002a	f3 0f 10 45 08	 movss	 xmm0, DWORD PTR _r$[ebp]
  0002f	f3 0f 11 04 24	 movss	 DWORD PTR [esp], xmm0
  00034	e8 00 00 00 00	 call	 ?Set@CGraphicColor@@QAEXMMMM@Z ; CGraphicColor::Set

; 17   : }

  00039	8b c6		 mov	 eax, esi
  0003b	5e		 pop	 esi
  0003c	5d		 pop	 ebp
  0003d	c2 10 00	 ret	 16			; 00000010H
??0CGraphicColor@@QAE@MMMM@Z ENDP			; CGraphicColor::CGraphicColor
_TEXT	ENDS
; Function compile flags: /Ogtp
; File C:\DS Project\DS Files\Source\ClientSource\Client\EterLib\GrpColor.cpp
;	COMDAT ??0CGraphicColor@@QAE@ABV0@@Z
_TEXT	SEGMENT
_c_rSrcColor$ = 8					; size = 4
??0CGraphicColor@@QAE@ABV0@@Z PROC			; CGraphicColor::CGraphicColor, COMDAT
; _this$ = ecx

; 10   : {

  00000	55		 push	 ebp
  00001	8b ec		 mov	 ebp, esp
  00003	56		 push	 esi

; 11   : 	Set(c_rSrcColor);

  00004	ff 75 08	 push	 DWORD PTR _c_rSrcColor$[ebp]
  00007	8b f1		 mov	 esi, ecx
  00009	e8 00 00 00 00	 call	 ?Set@CGraphicColor@@QAEXABV1@@Z ; CGraphicColor::Set

; 12   : }

  0000e	8b c6		 mov	 eax, esi
  00010	5e		 pop	 esi
  00011	5d		 pop	 ebp
  00012	c2 04 00	 ret	 4
??0CGraphicColor@@QAE@ABV0@@Z ENDP			; CGraphicColor::CGraphicColor
_TEXT	ENDS
END
