; Listing generated by Microsoft (R) Optimizing Compiler Version 19.27.29112.0 

	TITLE	C:\DS Project\DS Files\Source\ClientSource\Client\EterLib\GrpColorInstance.cpp
	.686P
	.XMM
	include listing.inc
	.model	flat

INCLUDELIB LIBCMT
INCLUDELIB OLDNAMES

PUBLIC	??0CGraphicColorInstance@@QAE@XZ		; CGraphicColorInstance::CGraphicColorInstance
PUBLIC	??1CGraphicColorInstance@@UAE@XZ		; CGraphicColorInstance::~CGraphicColorInstance
PUBLIC	?Clear@CGraphicColorInstance@@QAEXXZ		; CGraphicColorInstance::Clear
PUBLIC	?SetColorReference@CGraphicColorInstance@@QAEXABVCGraphicColor@@@Z ; CGraphicColorInstance::SetColorReference
PUBLIC	?BlendColorReference@CGraphicColorInstance@@QAEXKABVCGraphicColor@@@Z ; CGraphicColorInstance::BlendColorReference
PUBLIC	?Update@CGraphicColorInstance@@QAEXXZ		; CGraphicColorInstance::Update
PUBLIC	?GetCurrentColorReference@CGraphicColorInstance@@QBEABVCGraphicColor@@XZ ; CGraphicColorInstance::GetCurrentColorReference
PUBLIC	?GetTickCount@CGraphicColorInstance@@IAEKXZ	; CGraphicColorInstance::GetTickCount
PUBLIC	??_GCGraphicColorInstance@@UAEPAXI@Z		; CGraphicColorInstance::`scalar deleting destructor'
PUBLIC	??_7CGraphicColorInstance@@6B@			; CGraphicColorInstance::`vftable'
PUBLIC	?ms_singleton@?$CSingleton@VCTimer@@@@0PAVCTimer@@A ; CSingleton<CTimer>::ms_singleton
PUBLIC	??_R4CGraphicColorInstance@@6B@			; CGraphicColorInstance::`RTTI Complete Object Locator'
PUBLIC	??_R0?AVCGraphicColorInstance@@@8		; CGraphicColorInstance `RTTI Type Descriptor'
PUBLIC	??_R3CGraphicColorInstance@@8			; CGraphicColorInstance::`RTTI Class Hierarchy Descriptor'
PUBLIC	??_R2CGraphicColorInstance@@8			; CGraphicColorInstance::`RTTI Base Class Array'
PUBLIC	??_R1A@?0A@EA@CGraphicColorInstance@@8		; CGraphicColorInstance::`RTTI Base Class Descriptor at (0,-1,0,64)'
PUBLIC	__xmm@41f00000000000000000000000000000
EXTRN	??3@YAXPAXI@Z:PROC				; operator delete
EXTRN	??0CGraphicColor@@QAE@XZ:PROC			; CGraphicColor::CGraphicColor
EXTRN	??1CGraphicColor@@QAE@XZ:PROC			; CGraphicColor::~CGraphicColor
EXTRN	?Clear@CGraphicColor@@QAEXXZ:PROC		; CGraphicColor::Clear
EXTRN	?Blend@CGraphicColor@@QAEXMABV1@0@Z:PROC	; CGraphicColor::Blend
EXTRN	??_ECGraphicColorInstance@@UAEPAXI@Z:PROC	; CGraphicColorInstance::`vector deleting destructor'
EXTRN	?GetCurrentMillisecond@CTimer@@QAEKXZ:PROC	; CTimer::GetCurrentMillisecond
EXTRN	@__security_check_cookie@4:PROC
EXTRN	___CxxFrameHandler3:PROC
EXTRN	??_7type_info@@6B@:QWORD			; type_info::`vftable'
EXTRN	___security_cookie:DWORD
EXTRN	__fltused:DWORD
;	COMDAT ?ms_singleton@?$CSingleton@VCTimer@@@@0PAVCTimer@@A
_BSS	SEGMENT
?ms_singleton@?$CSingleton@VCTimer@@@@0PAVCTimer@@A DD 01H DUP (?) ; CSingleton<CTimer>::ms_singleton
_BSS	ENDS
;	COMDAT __xmm@41f00000000000000000000000000000
CONST	SEGMENT
__xmm@41f00000000000000000000000000000 DB 00H, 00H, 00H, 00H, 00H, 00H, 00H
	DB	00H, 00H, 00H, 00H, 00H, 00H, 00H, 0f0H, 'A'
CONST	ENDS
;	COMDAT ??_R1A@?0A@EA@CGraphicColorInstance@@8
rdata$r	SEGMENT
??_R1A@?0A@EA@CGraphicColorInstance@@8 DD FLAT:??_R0?AVCGraphicColorInstance@@@8 ; CGraphicColorInstance::`RTTI Base Class Descriptor at (0,-1,0,64)'
	DD	00H
	DD	00H
	DD	0ffffffffH
	DD	00H
	DD	040H
	DD	FLAT:??_R3CGraphicColorInstance@@8
rdata$r	ENDS
;	COMDAT ??_R2CGraphicColorInstance@@8
rdata$r	SEGMENT
??_R2CGraphicColorInstance@@8 DD FLAT:??_R1A@?0A@EA@CGraphicColorInstance@@8 ; CGraphicColorInstance::`RTTI Base Class Array'
rdata$r	ENDS
;	COMDAT ??_R3CGraphicColorInstance@@8
rdata$r	SEGMENT
??_R3CGraphicColorInstance@@8 DD 00H			; CGraphicColorInstance::`RTTI Class Hierarchy Descriptor'
	DD	00H
	DD	01H
	DD	FLAT:??_R2CGraphicColorInstance@@8
rdata$r	ENDS
;	COMDAT ??_R0?AVCGraphicColorInstance@@@8
data$r	SEGMENT
??_R0?AVCGraphicColorInstance@@@8 DD FLAT:??_7type_info@@6B@ ; CGraphicColorInstance `RTTI Type Descriptor'
	DD	00H
	DB	'.?AVCGraphicColorInstance@@', 00H
data$r	ENDS
;	COMDAT ??_R4CGraphicColorInstance@@6B@
rdata$r	SEGMENT
??_R4CGraphicColorInstance@@6B@ DD 00H			; CGraphicColorInstance::`RTTI Complete Object Locator'
	DD	00H
	DD	00H
	DD	FLAT:??_R0?AVCGraphicColorInstance@@@8
	DD	FLAT:??_R3CGraphicColorInstance@@8
rdata$r	ENDS
;	COMDAT ??_7CGraphicColorInstance@@6B@
CONST	SEGMENT
??_7CGraphicColorInstance@@6B@ DD FLAT:??_R4CGraphicColorInstance@@6B@ ; CGraphicColorInstance::`vftable'
	DD	FLAT:??_ECGraphicColorInstance@@UAEPAXI@Z
CONST	ENDS
;	COMDAT xdata$x
xdata$x	SEGMENT
__unwindtable$??0CGraphicColorInstance@@QAE@XZ DD 0ffffffffH
	DD	FLAT:__unwindfunclet$??0CGraphicColorInstance@@QAE@XZ$0
	DD	00H
	DD	FLAT:__unwindfunclet$??0CGraphicColorInstance@@QAE@XZ$1
__ehfuncinfo$??0CGraphicColorInstance@@QAE@XZ DD 019930522H
	DD	02H
	DD	FLAT:__unwindtable$??0CGraphicColorInstance@@QAE@XZ
	DD	2 DUP(00H)
	DD	2 DUP(00H)
	DD	00H
	DD	01H
xdata$x	ENDS
; Function compile flags: /Ogtp
;	COMDAT ??_GCGraphicColorInstance@@UAEPAXI@Z
_TEXT	SEGMENT
___flags$ = 8						; size = 4
??_GCGraphicColorInstance@@UAEPAXI@Z PROC		; CGraphicColorInstance::`scalar deleting destructor', COMDAT
; _this$ = ecx
  00000	55		 push	 ebp
  00001	8b ec		 mov	 ebp, esp
  00003	56		 push	 esi
  00004	8b f1		 mov	 esi, ecx
  00006	e8 00 00 00 00	 call	 ??1CGraphicColorInstance@@UAE@XZ ; CGraphicColorInstance::~CGraphicColorInstance
  0000b	f6 45 08 01	 test	 BYTE PTR ___flags$[ebp], 1
  0000f	74 0b		 je	 SHORT $LN4@scalar
  00011	6a 3c		 push	 60			; 0000003cH
  00013	56		 push	 esi
  00014	e8 00 00 00 00	 call	 ??3@YAXPAXI@Z		; operator delete
  00019	83 c4 08	 add	 esp, 8
$LN4@scalar:
  0001c	8b c6		 mov	 eax, esi
  0001e	5e		 pop	 esi
  0001f	5d		 pop	 ebp
  00020	c2 04 00	 ret	 4
??_GCGraphicColorInstance@@UAEPAXI@Z ENDP		; CGraphicColorInstance::`scalar deleting destructor'
_TEXT	ENDS
; Function compile flags: /Ogtp
; File C:\DS Project\DS Files\Source\ClientSource\Client\EterLib\GrpColorInstance.cpp
;	COMDAT ?GetTickCount@CGraphicColorInstance@@IAEKXZ
_TEXT	SEGMENT
?GetTickCount@CGraphicColorInstance@@IAEKXZ PROC	; CGraphicColorInstance::GetTickCount, COMDAT
; _this$ = ecx

; 58   : 	return CTimer::Instance().GetCurrentMillisecond();

  00000	8b 0d 00 00 00
	00		 mov	 ecx, DWORD PTR ?ms_singleton@?$CSingleton@VCTimer@@@@0PAVCTimer@@A ; CSingleton<CTimer>::ms_singleton
  00006	e9 00 00 00 00	 jmp	 ?GetCurrentMillisecond@CTimer@@QAEKXZ ; CTimer::GetCurrentMillisecond
?GetTickCount@CGraphicColorInstance@@IAEKXZ ENDP	; CGraphicColorInstance::GetTickCount
_TEXT	ENDS
; Function compile flags: /Ogtp
; File C:\DS Project\DS Files\Source\ClientSource\Client\EterLib\GrpColorInstance.cpp
;	COMDAT ?GetCurrentColorReference@CGraphicColorInstance@@QBEABVCGraphicColor@@XZ
_TEXT	SEGMENT
?GetCurrentColorReference@CGraphicColorInstance@@QBEABVCGraphicColor@@XZ PROC ; CGraphicColorInstance::GetCurrentColorReference, COMDAT
; _this$ = ecx

; 63   : 	return m_curColor;

  00000	8d 41 24	 lea	 eax, DWORD PTR [ecx+36]

; 64   : }

  00003	c3		 ret	 0
?GetCurrentColorReference@CGraphicColorInstance@@QBEABVCGraphicColor@@XZ ENDP ; CGraphicColorInstance::GetCurrentColorReference
_TEXT	ENDS
; Function compile flags: /Ogtp
; File C:\DS Project\DS Files\Source\ClientSource\Client\EterLib\GrpColorInstance.cpp
;	COMDAT ?Update@CGraphicColorInstance@@QAEXXZ
_TEXT	SEGMENT
?Update@CGraphicColorInstance@@QAEXXZ PROC		; CGraphicColorInstance::Update, COMDAT
; _this$ = ecx

; 42   : {

  00000	56		 push	 esi
  00001	57		 push	 edi
  00002	8b f1		 mov	 esi, ecx

; 43   : 	DWORD curTime = GetCurrentTime();

  00004	e8 00 00 00 00	 call	 ?GetTickCount@CGraphicColorInstance@@IAEKXZ ; CGraphicColorInstance::GetTickCount

; 44   : 	DWORD elapsedTime = curTime - m_baseTime;
; 45   : 
; 46   : 	if (elapsedTime < m_blendTime)

  00009	8b 56 38	 mov	 edx, DWORD PTR [esi+56]
  0000c	8b c8		 mov	 ecx, eax
  0000e	2b 4e 34	 sub	 ecx, DWORD PTR [esi+52]
  00011	8d 46 14	 lea	 eax, DWORD PTR [esi+20]
  00014	3b ca		 cmp	 ecx, edx
  00016	73 4a		 jae	 SHORT $LN2@Update

; 47   : 	{
; 48   : 		m_curColor.Blend(elapsedTime/float(m_blendTime), m_srcColor, m_dstColor);

  00018	66 0f 6e c1	 movd	 xmm0, ecx
  0001c	f3 0f e6 c0	 cvtdq2pd xmm0, xmm0
  00020	c1 e9 1f	 shr	 ecx, 31			; 0000001fH
  00023	50		 push	 eax
  00024	8d 46 04	 lea	 eax, DWORD PTR [esi+4]
  00027	50		 push	 eax
  00028	51		 push	 ecx
  00029	f2 0f 58 04 cd
	00 00 00 00	 addsd	 xmm0, QWORD PTR __xmm@41f00000000000000000000000000000[ecx*8]
  00032	8d 4e 24	 lea	 ecx, DWORD PTR [esi+36]
  00035	66 0f 5a c8	 cvtpd2ps xmm1, xmm0
  00039	66 0f 6e c2	 movd	 xmm0, edx
  0003d	f3 0f e6 c0	 cvtdq2pd xmm0, xmm0
  00041	c1 ea 1f	 shr	 edx, 31			; 0000001fH
  00044	f2 0f 58 04 d5
	00 00 00 00	 addsd	 xmm0, QWORD PTR __xmm@41f00000000000000000000000000000[edx*8]
  0004d	66 0f 5a c0	 cvtpd2ps xmm0, xmm0
  00051	f3 0f 5e c8	 divss	 xmm1, xmm0
  00055	f3 0f 11 0c 24	 movss	 DWORD PTR [esp], xmm1
  0005a	e8 00 00 00 00	 call	 ?Blend@CGraphicColor@@QAEXMABV1@0@Z ; CGraphicColor::Blend
  0005f	5f		 pop	 edi

; 53   : 	}
; 54   : }

  00060	5e		 pop	 esi
  00061	c3		 ret	 0
$LN2@Update:

; 49   : 	}
; 50   : 	else
; 51   : 	{
; 52   : 		m_curColor=m_dstColor;

  00062	0f 10 00	 movups	 xmm0, XMMWORD PTR [eax]
  00065	5f		 pop	 edi
  00066	0f 11 46 24	 movups	 XMMWORD PTR [esi+36], xmm0

; 53   : 	}
; 54   : }

  0006a	5e		 pop	 esi
  0006b	c3		 ret	 0
?Update@CGraphicColorInstance@@QAEXXZ ENDP		; CGraphicColorInstance::Update
_TEXT	ENDS
; Function compile flags: /Ogtp
; File C:\DS Project\DS Files\Source\ClientSource\Client\EterLib\GrpColorInstance.cpp
;	COMDAT ?BlendColorReference@CGraphicColorInstance@@QAEXKABVCGraphicColor@@@Z
_TEXT	SEGMENT
_blendTime$ = 8						; size = 4
_c_rDstColor$ = 12					; size = 4
?BlendColorReference@CGraphicColorInstance@@QAEXKABVCGraphicColor@@@Z PROC ; CGraphicColorInstance::BlendColorReference, COMDAT
; _this$ = ecx

; 33   : {

  00000	55		 push	 ebp
  00001	8b ec		 mov	 ebp, esp
  00003	56		 push	 esi
  00004	8b f1		 mov	 esi, ecx

; 34   : 	m_baseTime = GetCurrentTime();

  00006	e8 00 00 00 00	 call	 ?GetTickCount@CGraphicColorInstance@@IAEKXZ ; CGraphicColorInstance::GetTickCount

; 35   : 	m_blendTime = blendTime;
; 36   : 
; 37   : 	m_srcColor = m_curColor;

  0000b	0f 10 46 24	 movups	 xmm0, XMMWORD PTR [esi+36]
  0000f	89 46 34	 mov	 DWORD PTR [esi+52], eax
  00012	8b 45 08	 mov	 eax, DWORD PTR _blendTime$[ebp]
  00015	89 46 38	 mov	 DWORD PTR [esi+56], eax

; 38   : 	m_dstColor = c_rDstColor;

  00018	8b 45 0c	 mov	 eax, DWORD PTR _c_rDstColor$[ebp]
  0001b	0f 11 46 04	 movups	 XMMWORD PTR [esi+4], xmm0
  0001f	0f 10 00	 movups	 xmm0, XMMWORD PTR [eax]
  00022	0f 11 46 14	 movups	 XMMWORD PTR [esi+20], xmm0
  00026	5e		 pop	 esi

; 39   : }

  00027	5d		 pop	 ebp
  00028	c2 08 00	 ret	 8
?BlendColorReference@CGraphicColorInstance@@QAEXKABVCGraphicColor@@@Z ENDP ; CGraphicColorInstance::BlendColorReference
_TEXT	ENDS
; Function compile flags: /Ogtp
; File C:\DS Project\DS Files\Source\ClientSource\Client\EterLib\GrpColorInstance.cpp
;	COMDAT ?SetColorReference@CGraphicColorInstance@@QAEXABVCGraphicColor@@@Z
_TEXT	SEGMENT
_c_rSrcColor$ = 8					; size = 4
?SetColorReference@CGraphicColorInstance@@QAEXABVCGraphicColor@@@Z PROC ; CGraphicColorInstance::SetColorReference, COMDAT
; _this$ = ecx

; 26   : {

  00000	55		 push	 ebp
  00001	8b ec		 mov	 ebp, esp

; 27   : 	m_srcColor = c_rSrcColor;

  00003	8b 45 08	 mov	 eax, DWORD PTR _c_rSrcColor$[ebp]
  00006	0f 10 00	 movups	 xmm0, XMMWORD PTR [eax]
  00009	0f 11 41 04	 movups	 XMMWORD PTR [ecx+4], xmm0

; 28   : 	m_dstColor = c_rSrcColor;

  0000d	0f 10 00	 movups	 xmm0, XMMWORD PTR [eax]
  00010	0f 11 41 14	 movups	 XMMWORD PTR [ecx+20], xmm0

; 29   : 	m_curColor = c_rSrcColor;

  00014	0f 10 00	 movups	 xmm0, XMMWORD PTR [eax]
  00017	0f 11 41 24	 movups	 XMMWORD PTR [ecx+36], xmm0

; 30   : }

  0001b	5d		 pop	 ebp
  0001c	c2 04 00	 ret	 4
?SetColorReference@CGraphicColorInstance@@QAEXABVCGraphicColor@@@Z ENDP ; CGraphicColorInstance::SetColorReference
_TEXT	ENDS
; Function compile flags: /Ogtp
; File C:\DS Project\DS Files\Source\ClientSource\Client\EterLib\GrpColorInstance.cpp
;	COMDAT ?Clear@CGraphicColorInstance@@QAEXXZ
_TEXT	SEGMENT
?Clear@CGraphicColorInstance@@QAEXXZ PROC		; CGraphicColorInstance::Clear, COMDAT
; _this$ = ecx

; 16   : {

  00000	56		 push	 esi
  00001	8b f1		 mov	 esi, ecx

; 17   : 	m_srcColor.Clear();

  00003	8d 4e 04	 lea	 ecx, DWORD PTR [esi+4]
  00006	e8 00 00 00 00	 call	 ?Clear@CGraphicColor@@QAEXXZ ; CGraphicColor::Clear

; 18   : 	m_dstColor.Clear();

  0000b	8d 4e 14	 lea	 ecx, DWORD PTR [esi+20]
  0000e	e8 00 00 00 00	 call	 ?Clear@CGraphicColor@@QAEXXZ ; CGraphicColor::Clear

; 19   : 	m_curColor.Clear();

  00013	8d 4e 24	 lea	 ecx, DWORD PTR [esi+36]
  00016	e8 00 00 00 00	 call	 ?Clear@CGraphicColor@@QAEXXZ ; CGraphicColor::Clear

; 20   : 
; 21   : 	m_baseTime=0;

  0001b	c7 46 34 00 00
	00 00		 mov	 DWORD PTR [esi+52], 0

; 22   : 	m_blendTime=0;

  00022	c7 46 38 00 00
	00 00		 mov	 DWORD PTR [esi+56], 0
  00029	5e		 pop	 esi

; 23   : }

  0002a	c3		 ret	 0
?Clear@CGraphicColorInstance@@QAEXXZ ENDP		; CGraphicColorInstance::Clear
_TEXT	ENDS
; Function compile flags: /Ogtp
; File C:\DS Project\DS Files\Source\ClientSource\Client\EterLib\GrpColorInstance.cpp
;	COMDAT ??1CGraphicColorInstance@@UAE@XZ
_TEXT	SEGMENT
??1CGraphicColorInstance@@UAE@XZ PROC			; CGraphicColorInstance::~CGraphicColorInstance, COMDAT
; _this$ = ecx

; 12   : {

  00000	56		 push	 esi
  00001	8b f1		 mov	 esi, ecx

; 13   : }

  00003	8d 4e 24	 lea	 ecx, DWORD PTR [esi+36]
  00006	c7 06 00 00 00
	00		 mov	 DWORD PTR [esi], OFFSET ??_7CGraphicColorInstance@@6B@
  0000c	e8 00 00 00 00	 call	 ??1CGraphicColor@@QAE@XZ ; CGraphicColor::~CGraphicColor
  00011	8d 4e 14	 lea	 ecx, DWORD PTR [esi+20]
  00014	e8 00 00 00 00	 call	 ??1CGraphicColor@@QAE@XZ ; CGraphicColor::~CGraphicColor
  00019	8d 4e 04	 lea	 ecx, DWORD PTR [esi+4]
  0001c	5e		 pop	 esi
  0001d	e9 00 00 00 00	 jmp	 ??1CGraphicColor@@QAE@XZ ; CGraphicColor::~CGraphicColor
??1CGraphicColorInstance@@UAE@XZ ENDP			; CGraphicColorInstance::~CGraphicColorInstance
_TEXT	ENDS
; Function compile flags: /Ogtp
; File C:\DS Project\DS Files\Source\ClientSource\Client\EterLib\GrpColorInstance.cpp
;	COMDAT ??0CGraphicColorInstance@@QAE@XZ
_TEXT	SEGMENT
_this$ = -16						; size = 4
__$EHRec$ = -12						; size = 12
??0CGraphicColorInstance@@QAE@XZ PROC			; CGraphicColorInstance::CGraphicColorInstance, COMDAT
; _this$ = ecx

; 6    : {

  00000	55		 push	 ebp
  00001	8b ec		 mov	 ebp, esp
  00003	6a ff		 push	 -1
  00005	68 00 00 00 00	 push	 __ehhandler$??0CGraphicColorInstance@@QAE@XZ
  0000a	64 a1 00 00 00
	00		 mov	 eax, DWORD PTR fs:0
  00010	50		 push	 eax
  00011	51		 push	 ecx
  00012	56		 push	 esi
  00013	a1 00 00 00 00	 mov	 eax, DWORD PTR ___security_cookie
  00018	33 c5		 xor	 eax, ebp
  0001a	50		 push	 eax
  0001b	8d 45 f4	 lea	 eax, DWORD PTR __$EHRec$[ebp]
  0001e	64 a3 00 00 00
	00		 mov	 DWORD PTR fs:0, eax
  00024	8b f1		 mov	 esi, ecx
  00026	89 75 f0	 mov	 DWORD PTR _this$[ebp], esi
  00029	8d 4e 04	 lea	 ecx, DWORD PTR [esi+4]
  0002c	c7 06 00 00 00
	00		 mov	 DWORD PTR [esi], OFFSET ??_7CGraphicColorInstance@@6B@
  00032	e8 00 00 00 00	 call	 ??0CGraphicColor@@QAE@XZ ; CGraphicColor::CGraphicColor
  00037	8d 4e 14	 lea	 ecx, DWORD PTR [esi+20]
  0003a	c7 45 fc 00 00
	00 00		 mov	 DWORD PTR __$EHRec$[ebp+8], 0
  00041	e8 00 00 00 00	 call	 ??0CGraphicColor@@QAE@XZ ; CGraphicColor::CGraphicColor
  00046	8d 4e 24	 lea	 ecx, DWORD PTR [esi+36]
  00049	c6 45 fc 01	 mov	 BYTE PTR __$EHRec$[ebp+8], 1
  0004d	e8 00 00 00 00	 call	 ??0CGraphicColor@@QAE@XZ ; CGraphicColor::CGraphicColor

; 7    : 	m_baseTime=0;

  00052	c7 46 34 00 00
	00 00		 mov	 DWORD PTR [esi+52], 0

; 8    : 	m_blendTime=0;
; 9    : }

  00059	8b c6		 mov	 eax, esi
  0005b	c7 46 38 00 00
	00 00		 mov	 DWORD PTR [esi+56], 0
  00062	8b 4d f4	 mov	 ecx, DWORD PTR __$EHRec$[ebp]
  00065	64 89 0d 00 00
	00 00		 mov	 DWORD PTR fs:0, ecx
  0006c	59		 pop	 ecx
  0006d	5e		 pop	 esi
  0006e	8b e5		 mov	 esp, ebp
  00070	5d		 pop	 ebp
  00071	c3		 ret	 0
_TEXT	ENDS
;	COMDAT text$x
text$x	SEGMENT
__unwindfunclet$??0CGraphicColorInstance@@QAE@XZ$0:
  00000	8b 4d f0	 mov	 ecx, DWORD PTR _this$[ebp]
  00003	83 c1 04	 add	 ecx, 4
  00006	e9 00 00 00 00	 jmp	 ??1CGraphicColor@@QAE@XZ ; CGraphicColor::~CGraphicColor
__unwindfunclet$??0CGraphicColorInstance@@QAE@XZ$1:
  0000b	8b 4d f0	 mov	 ecx, DWORD PTR _this$[ebp]
  0000e	83 c1 14	 add	 ecx, 20			; 00000014H
  00011	e9 00 00 00 00	 jmp	 ??1CGraphicColor@@QAE@XZ ; CGraphicColor::~CGraphicColor
  00016	cc		 int	 3
  00017	cc		 int	 3
  00018	cc		 int	 3
  00019	cc		 int	 3
  0001a	cc		 int	 3
__ehhandler$??0CGraphicColorInstance@@QAE@XZ:
  0001b	90		 npad	 1
  0001c	90		 npad	 1
  0001d	8b 54 24 08	 mov	 edx, DWORD PTR [esp+8]
  00021	8d 42 0c	 lea	 eax, DWORD PTR [edx+12]
  00024	8b 4a f4	 mov	 ecx, DWORD PTR [edx-12]
  00027	33 c8		 xor	 ecx, eax
  00029	e8 00 00 00 00	 call	 @__security_check_cookie@4
  0002e	b8 00 00 00 00	 mov	 eax, OFFSET __ehfuncinfo$??0CGraphicColorInstance@@QAE@XZ
  00033	e9 00 00 00 00	 jmp	 ___CxxFrameHandler3
text$x	ENDS
??0CGraphicColorInstance@@QAE@XZ ENDP			; CGraphicColorInstance::CGraphicColorInstance
END
