; Listing generated by Microsoft (R) Optimizing Compiler Version 19.27.29112.0 

	TITLE	C:\DS Project\DS Files\Source\ClientSource\Client\EterLib\GrpDIB.cpp
	.686P
	.XMM
	include listing.inc
	.model	flat

INCLUDELIB LIBCMT
INCLUDELIB OLDNAMES

PUBLIC	??0CGraphicDib@@QAE@XZ				; CGraphicDib::CGraphicDib
PUBLIC	??1CGraphicDib@@UAE@XZ				; CGraphicDib::~CGraphicDib
PUBLIC	?Destroy@CGraphicDib@@QAEXXZ			; CGraphicDib::Destroy
PUBLIC	?Create@CGraphicDib@@QAE_NPAUHDC__@@HH@Z	; CGraphicDib::Create
PUBLIC	?SetBkMode@CGraphicDib@@QAEXH@Z			; CGraphicDib::SetBkMode
PUBLIC	?TextOutA@CGraphicDib@@QAEXHHPBD@Z		; CGraphicDib::TextOutA
PUBLIC	?Put@CGraphicDib@@QAEXPAUHDC__@@HH@Z		; CGraphicDib::Put
PUBLIC	?GetWidth@CGraphicDib@@QAEHXZ			; CGraphicDib::GetWidth
PUBLIC	?GetHeight@CGraphicDib@@QAEHXZ			; CGraphicDib::GetHeight
PUBLIC	?GetPointer@CGraphicDib@@QAEPAXXZ		; CGraphicDib::GetPointer
PUBLIC	?GetDCHandle@CGraphicDib@@QAEPAUHDC__@@XZ	; CGraphicDib::GetDCHandle
PUBLIC	?Initialize@CGraphicDib@@IAEXXZ			; CGraphicDib::Initialize
PUBLIC	??_GCGraphicDib@@UAEPAXI@Z			; CGraphicDib::`scalar deleting destructor'
PUBLIC	??_7CGraphicDib@@6B@				; CGraphicDib::`vftable'
PUBLIC	??_R4CGraphicDib@@6B@				; CGraphicDib::`RTTI Complete Object Locator'
PUBLIC	??_R0?AVCGraphicDib@@@8				; CGraphicDib `RTTI Type Descriptor'
PUBLIC	??_R3CGraphicDib@@8				; CGraphicDib::`RTTI Class Hierarchy Descriptor'
PUBLIC	??_R2CGraphicDib@@8				; CGraphicDib::`RTTI Base Class Array'
PUBLIC	??_R1A@?0A@EA@CGraphicDib@@8			; CGraphicDib::`RTTI Base Class Descriptor at (0,-1,0,64)'
EXTRN	??3@YAXPAXI@Z:PROC				; operator delete
EXTRN	__imp__CreateCompatibleDC@4:PROC
EXTRN	__imp__DeleteDC@4:PROC
EXTRN	__imp__DeleteObject@4:PROC
EXTRN	__imp__SelectObject@8:PROC
EXTRN	__imp__SetBkColor@8:PROC
EXTRN	__imp__SetBkMode@8:PROC
EXTRN	__imp__SetDIBitsToDevice@48:PROC
EXTRN	__imp__SetTextColor@8:PROC
EXTRN	__imp__CreateDIBSection@24:PROC
EXTRN	__imp__TextOutA@20:PROC
EXTRN	??_ECGraphicDib@@UAEPAXI@Z:PROC			; CGraphicDib::`vector deleting destructor'
EXTRN	??_7type_info@@6B@:QWORD			; type_info::`vftable'
;	COMDAT ??_R1A@?0A@EA@CGraphicDib@@8
rdata$r	SEGMENT
??_R1A@?0A@EA@CGraphicDib@@8 DD FLAT:??_R0?AVCGraphicDib@@@8 ; CGraphicDib::`RTTI Base Class Descriptor at (0,-1,0,64)'
	DD	00H
	DD	00H
	DD	0ffffffffH
	DD	00H
	DD	040H
	DD	FLAT:??_R3CGraphicDib@@8
rdata$r	ENDS
;	COMDAT ??_R2CGraphicDib@@8
rdata$r	SEGMENT
??_R2CGraphicDib@@8 DD FLAT:??_R1A@?0A@EA@CGraphicDib@@8 ; CGraphicDib::`RTTI Base Class Array'
rdata$r	ENDS
;	COMDAT ??_R3CGraphicDib@@8
rdata$r	SEGMENT
??_R3CGraphicDib@@8 DD 00H				; CGraphicDib::`RTTI Class Hierarchy Descriptor'
	DD	00H
	DD	01H
	DD	FLAT:??_R2CGraphicDib@@8
rdata$r	ENDS
;	COMDAT ??_R0?AVCGraphicDib@@@8
data$r	SEGMENT
??_R0?AVCGraphicDib@@@8 DD FLAT:??_7type_info@@6B@	; CGraphicDib `RTTI Type Descriptor'
	DD	00H
	DB	'.?AVCGraphicDib@@', 00H
data$r	ENDS
;	COMDAT ??_R4CGraphicDib@@6B@
rdata$r	SEGMENT
??_R4CGraphicDib@@6B@ DD 00H				; CGraphicDib::`RTTI Complete Object Locator'
	DD	00H
	DD	00H
	DD	FLAT:??_R0?AVCGraphicDib@@@8
	DD	FLAT:??_R3CGraphicDib@@8
rdata$r	ENDS
;	COMDAT ??_7CGraphicDib@@6B@
CONST	SEGMENT
??_7CGraphicDib@@6B@ DD FLAT:??_R4CGraphicDib@@6B@	; CGraphicDib::`vftable'
	DD	FLAT:??_ECGraphicDib@@UAEPAXI@Z
CONST	ENDS
; Function compile flags: /Ogtp
;	COMDAT ??_GCGraphicDib@@UAEPAXI@Z
_TEXT	SEGMENT
___flags$ = 8						; size = 4
??_GCGraphicDib@@UAEPAXI@Z PROC				; CGraphicDib::`scalar deleting destructor', COMDAT
; _this$ = ecx
  00000	55		 push	 ebp
  00001	8b ec		 mov	 ebp, esp
  00003	56		 push	 esi
  00004	8b f1		 mov	 esi, ecx
  00006	e8 00 00 00 00	 call	 ??1CGraphicDib@@UAE@XZ	; CGraphicDib::~CGraphicDib
  0000b	f6 45 08 01	 test	 BYTE PTR ___flags$[ebp], 1
  0000f	74 0b		 je	 SHORT $LN4@scalar
  00011	6a 44		 push	 68			; 00000044H
  00013	56		 push	 esi
  00014	e8 00 00 00 00	 call	 ??3@YAXPAXI@Z		; operator delete
  00019	83 c4 08	 add	 esp, 8
$LN4@scalar:
  0001c	8b c6		 mov	 eax, esi
  0001e	5e		 pop	 esi
  0001f	5d		 pop	 ebp
  00020	c2 04 00	 ret	 4
??_GCGraphicDib@@UAEPAXI@Z ENDP				; CGraphicDib::`scalar deleting destructor'
_TEXT	ENDS
; Function compile flags: /Ogtp
; File C:\DS Project\DS Files\Source\ClientSource\Client\EterLib\GrpDIB.cpp
;	COMDAT ?Initialize@CGraphicDib@@IAEXXZ
_TEXT	SEGMENT
?Initialize@CGraphicDib@@IAEXXZ PROC			; CGraphicDib::Initialize, COMDAT
; _this$ = ecx

; 16   : 	m_hDC=NULL;

  00000	c7 41 04 00 00
	00 00		 mov	 DWORD PTR [ecx+4], 0

; 17   : 	m_hBmp=NULL;

  00007	c7 41 08 00 00
	00 00		 mov	 DWORD PTR [ecx+8], 0

; 18   : 	m_pvBuf=NULL;

  0000e	c7 41 40 00 00
	00 00		 mov	 DWORD PTR [ecx+64], 0

; 19   : 	m_width=0;

  00015	c7 41 38 00 00
	00 00		 mov	 DWORD PTR [ecx+56], 0

; 20   : 	m_height=0;

  0001c	c7 41 3c 00 00
	00 00		 mov	 DWORD PTR [ecx+60], 0

; 21   : }

  00023	c3		 ret	 0
?Initialize@CGraphicDib@@IAEXXZ ENDP			; CGraphicDib::Initialize
_TEXT	ENDS
; Function compile flags: /Ogtp
; File C:\DS Project\DS Files\Source\ClientSource\Client\EterLib\GrpDIB.cpp
;	COMDAT ?GetDCHandle@CGraphicDib@@QAEPAUHDC__@@XZ
_TEXT	SEGMENT
?GetDCHandle@CGraphicDib@@QAEPAUHDC__@@XZ PROC		; CGraphicDib::GetDCHandle, COMDAT
; _this$ = ecx

; 69   : 	return m_hDC;

  00000	8b 41 04	 mov	 eax, DWORD PTR [ecx+4]

; 70   : }

  00003	c3		 ret	 0
?GetDCHandle@CGraphicDib@@QAEPAUHDC__@@XZ ENDP		; CGraphicDib::GetDCHandle
_TEXT	ENDS
; Function compile flags: /Ogtp
; File C:\DS Project\DS Files\Source\ClientSource\Client\EterLib\GrpDIB.cpp
;	COMDAT ?GetPointer@CGraphicDib@@QAEPAXXZ
_TEXT	SEGMENT
?GetPointer@CGraphicDib@@QAEPAXXZ PROC			; CGraphicDib::GetPointer, COMDAT
; _this$ = ecx

; 103  : 	return m_pvBuf;

  00000	8b 41 40	 mov	 eax, DWORD PTR [ecx+64]

; 104  : }

  00003	c3		 ret	 0
?GetPointer@CGraphicDib@@QAEPAXXZ ENDP			; CGraphicDib::GetPointer
_TEXT	ENDS
; Function compile flags: /Ogtp
; File C:\DS Project\DS Files\Source\ClientSource\Client\EterLib\GrpDIB.cpp
;	COMDAT ?GetHeight@CGraphicDib@@QAEHXZ
_TEXT	SEGMENT
?GetHeight@CGraphicDib@@QAEHXZ PROC			; CGraphicDib::GetHeight, COMDAT
; _this$ = ecx

; 113  : 	return m_height;

  00000	8b 41 3c	 mov	 eax, DWORD PTR [ecx+60]

; 114  : }

  00003	c3		 ret	 0
?GetHeight@CGraphicDib@@QAEHXZ ENDP			; CGraphicDib::GetHeight
_TEXT	ENDS
; Function compile flags: /Ogtp
; File C:\DS Project\DS Files\Source\ClientSource\Client\EterLib\GrpDIB.cpp
;	COMDAT ?GetWidth@CGraphicDib@@QAEHXZ
_TEXT	SEGMENT
?GetWidth@CGraphicDib@@QAEHXZ PROC			; CGraphicDib::GetWidth, COMDAT
; _this$ = ecx

; 108  : 	return m_width;

  00000	8b 41 38	 mov	 eax, DWORD PTR [ecx+56]

; 109  : }

  00003	c3		 ret	 0
?GetWidth@CGraphicDib@@QAEHXZ ENDP			; CGraphicDib::GetWidth
_TEXT	ENDS
; Function compile flags: /Ogtp
; File C:\DS Project\DS Files\Source\ClientSource\Client\EterLib\GrpDIB.cpp
;	COMDAT ?Put@CGraphicDib@@QAEXPAUHDC__@@HH@Z
_TEXT	SEGMENT
_hDC$ = 8						; size = 4
_x$ = 12						; size = 4
_y$ = 16						; size = 4
?Put@CGraphicDib@@QAEXPAUHDC__@@HH@Z PROC		; CGraphicDib::Put, COMDAT
; _this$ = ecx

; 84   : {

  00000	55		 push	 ebp
  00001	8b ec		 mov	 ebp, esp

; 85   : 	SetDIBitsToDevice(

  00003	8b 51 3c	 mov	 edx, DWORD PTR [ecx+60]
  00006	8d 41 0c	 lea	 eax, DWORD PTR [ecx+12]
  00009	6a 00		 push	 0
  0000b	50		 push	 eax
  0000c	ff 71 40	 push	 DWORD PTR [ecx+64]
  0000f	52		 push	 edx
  00010	6a 00		 push	 0
  00012	6a 00		 push	 0
  00014	6a 00		 push	 0
  00016	52		 push	 edx
  00017	ff 71 38	 push	 DWORD PTR [ecx+56]
  0001a	ff 75 10	 push	 DWORD PTR _y$[ebp]
  0001d	ff 75 0c	 push	 DWORD PTR _x$[ebp]
  00020	ff 75 08	 push	 DWORD PTR _hDC$[ebp]
  00023	ff 15 00 00 00
	00		 call	 DWORD PTR __imp__SetDIBitsToDevice@48

; 86   : 	  hDC,
; 87   : 	  x,
; 88   : 	  y,
; 89   : 	  m_width,
; 90   : 	  m_height,
; 91   : 	  0,
; 92   : 	  0,
; 93   : 	  0,
; 94   : 	  m_height,
; 95   : 	  m_pvBuf,
; 96   : 	  &m_bmi,
; 97   : 	  DIB_RGB_COLORS
; 98   : 	);
; 99   : }

  00029	5d		 pop	 ebp
  0002a	c2 0c 00	 ret	 12			; 0000000cH
?Put@CGraphicDib@@QAEXPAUHDC__@@HH@Z ENDP		; CGraphicDib::Put
_TEXT	ENDS
; Function compile flags: /Ogtp
; File C:\DS Project\DS Files\Source\ClientSource\Client\EterLib\GrpDIB.cpp
;	COMDAT ?TextOutA@CGraphicDib@@QAEXHHPBD@Z
_TEXT	SEGMENT
_ix$ = 8						; size = 4
_iy$ = 12						; size = 4
_c_szText$ = 16						; size = 4
?TextOutA@CGraphicDib@@QAEXHHPBD@Z PROC			; CGraphicDib::TextOutA, COMDAT
; _this$ = ecx

; 78   : {

  00000	55		 push	 ebp
  00001	8b ec		 mov	 ebp, esp
  00003	56		 push	 esi
  00004	57		 push	 edi
  00005	8b f1		 mov	 esi, ecx

; 79   : 	::SetBkColor(m_hDC, 0);

  00007	6a 00		 push	 0
  00009	ff 76 04	 push	 DWORD PTR [esi+4]
  0000c	ff 15 00 00 00
	00		 call	 DWORD PTR __imp__SetBkColor@8

; 80   : 	::TextOut(m_hDC, ix, iy, c_szText, strlen(c_szText));

  00012	8b 55 10	 mov	 edx, DWORD PTR _c_szText$[ebp]
  00015	8b c2		 mov	 eax, edx
  00017	8d 78 01	 lea	 edi, DWORD PTR [eax+1]
  0001a	66 0f 1f 44 00
	00		 npad	 6
$LL3@TextOutA:
  00020	8a 08		 mov	 cl, BYTE PTR [eax]
  00022	40		 inc	 eax
  00023	84 c9		 test	 cl, cl
  00025	75 f9		 jne	 SHORT $LL3@TextOutA
  00027	2b c7		 sub	 eax, edi
  00029	50		 push	 eax
  0002a	52		 push	 edx
  0002b	ff 75 0c	 push	 DWORD PTR _iy$[ebp]
  0002e	ff 75 08	 push	 DWORD PTR _ix$[ebp]
  00031	ff 76 04	 push	 DWORD PTR [esi+4]
  00034	ff 15 00 00 00
	00		 call	 DWORD PTR __imp__TextOutA@20
  0003a	5f		 pop	 edi
  0003b	5e		 pop	 esi

; 81   : }

  0003c	5d		 pop	 ebp
  0003d	c2 0c 00	 ret	 12			; 0000000cH
?TextOutA@CGraphicDib@@QAEXHHPBD@Z ENDP			; CGraphicDib::TextOutA
_TEXT	ENDS
; Function compile flags: /Ogtp
; File C:\DS Project\DS Files\Source\ClientSource\Client\EterLib\GrpDIB.cpp
;	COMDAT ?SetBkMode@CGraphicDib@@QAEXH@Z
_TEXT	SEGMENT
_iBkMode$ = 8						; size = 4
?SetBkMode@CGraphicDib@@QAEXH@Z PROC			; CGraphicDib::SetBkMode, COMDAT
; _this$ = ecx

; 73   : {

  00000	55		 push	 ebp
  00001	8b ec		 mov	 ebp, esp

; 74   : 	::SetBkMode(m_hDC, iBkMode);

  00003	ff 75 08	 push	 DWORD PTR _iBkMode$[ebp]
  00006	ff 71 04	 push	 DWORD PTR [ecx+4]
  00009	ff 15 00 00 00
	00		 call	 DWORD PTR __imp__SetBkMode@8

; 75   : }

  0000f	5d		 pop	 ebp
  00010	c2 04 00	 ret	 4
?SetBkMode@CGraphicDib@@QAEXH@Z ENDP			; CGraphicDib::SetBkMode
_TEXT	ENDS
; Function compile flags: /Ogtp
; File C:\DS Project\DS Files\Source\ClientSource\Client\EterLib\GrpDIB.cpp
;	COMDAT ?Create@CGraphicDib@@QAE_NPAUHDC__@@HH@Z
_TEXT	SEGMENT
_hDC$ = 8						; size = 4
_width$ = 12						; size = 4
_height$ = 16						; size = 4
?Create@CGraphicDib@@QAE_NPAUHDC__@@HH@Z PROC		; CGraphicDib::Create, COMDAT
; _this$ = ecx

; 32   : {

  00000	55		 push	 ebp
  00001	8b ec		 mov	 ebp, esp
  00003	56		 push	 esi
  00004	57		 push	 edi
  00005	8b f1		 mov	 esi, ecx

; 33   : 	Destroy();

  00007	e8 00 00 00 00	 call	 ?Destroy@CGraphicDib@@QAEXXZ ; CGraphicDib::Destroy

; 34   : 
; 35   : 	m_width = width;

  0000c	8b 45 0c	 mov	 eax, DWORD PTR _width$[ebp]

; 36   : 	m_height = height;
; 37   : 
; 38   : 	ZeroMemory(&m_bmi.bmiHeader,  sizeof(BITMAPINFOHEADER));

  0000f	8d 7e 0c	 lea	 edi, DWORD PTR [esi+12]

; 39   : 	m_bmi.bmiHeader.biSize        = sizeof(BITMAPINFOHEADER);
; 40   : 	m_bmi.bmiHeader.biWidth       =  m_width;
; 41   : 	m_bmi.bmiHeader.biHeight      = -m_height;
; 42   : 	m_bmi.bmiHeader.biPlanes      = 1;
; 43   : 	m_bmi.bmiHeader.biBitCount    = 32;
; 44   : 	m_bmi.bmiHeader.biCompression = BI_RGB;
; 45   : 
; 46   : 	m_hDC=CreateCompatibleDC(hDC);

  00012	ff 75 08	 push	 DWORD PTR _hDC$[ebp]
  00015	89 46 38	 mov	 DWORD PTR [esi+56], eax
  00018	8b 45 10	 mov	 eax, DWORD PTR _height$[ebp]
  0001b	89 46 3c	 mov	 DWORD PTR [esi+60], eax
  0001e	c7 46 20 00 00
	00 00		 mov	 DWORD PTR [esi+32], 0
  00025	c7 46 24 00 00
	00 00		 mov	 DWORD PTR [esi+36], 0
  0002c	c7 46 28 00 00
	00 00		 mov	 DWORD PTR [esi+40], 0
  00033	c7 46 2c 00 00
	00 00		 mov	 DWORD PTR [esi+44], 0
  0003a	c7 46 30 00 00
	00 00		 mov	 DWORD PTR [esi+48], 0
  00041	8b 46 38	 mov	 eax, DWORD PTR [esi+56]
  00044	89 46 10	 mov	 DWORD PTR [esi+16], eax
  00047	8b 46 3c	 mov	 eax, DWORD PTR [esi+60]
  0004a	f7 d8		 neg	 eax
  0004c	c7 07 28 00 00
	00		 mov	 DWORD PTR [edi], 40	; 00000028H
  00052	89 46 14	 mov	 DWORD PTR [esi+20], eax
  00055	c7 46 18 01 00
	20 00		 mov	 DWORD PTR [esi+24], 2097153 ; 00200001H
  0005c	c7 46 1c 00 00
	00 00		 mov	 DWORD PTR [esi+28], 0
  00063	ff 15 00 00 00
	00		 call	 DWORD PTR __imp__CreateCompatibleDC@4
  00069	89 46 04	 mov	 DWORD PTR [esi+4], eax

; 47   : 	if (!m_hDC)

  0006c	85 c0		 test	 eax, eax
  0006e	74 39		 je	 SHORT $LN5@Create

; 48   : 	{
; 49   : 		assert(!"CGraphicDib::Create CreateCompatibleDC Error");
; 50   : 		return false;
; 51   : 	}
; 52   : 
; 53   : 	m_hBmp=CreateDIBSection(m_hDC, &m_bmi, DIB_RGB_COLORS, &m_pvBuf, NULL, 0);

  00070	6a 00		 push	 0
  00072	6a 00		 push	 0
  00074	8d 4e 40	 lea	 ecx, DWORD PTR [esi+64]
  00077	51		 push	 ecx
  00078	6a 00		 push	 0
  0007a	57		 push	 edi
  0007b	50		 push	 eax
  0007c	ff 15 00 00 00
	00		 call	 DWORD PTR __imp__CreateDIBSection@24
  00082	89 46 08	 mov	 DWORD PTR [esi+8], eax

; 54   : 	if (!m_hBmp)

  00085	85 c0		 test	 eax, eax
  00087	74 20		 je	 SHORT $LN5@Create

; 58   : 	}
; 59   : 
; 60   : 	SelectObject(m_hDC, m_hBmp);

  00089	50		 push	 eax
  0008a	ff 76 04	 push	 DWORD PTR [esi+4]
  0008d	ff 15 00 00 00
	00		 call	 DWORD PTR __imp__SelectObject@8

; 61   : 
; 62   : 	::SetTextColor(m_hDC, RGB(255, 255, 255));

  00093	68 ff ff ff 00	 push	 16777215		; 00ffffffH
  00098	ff 76 04	 push	 DWORD PTR [esi+4]
  0009b	ff 15 00 00 00
	00		 call	 DWORD PTR __imp__SetTextColor@8
  000a1	5f		 pop	 edi

; 63   : 
; 64   : 	return true;

  000a2	b0 01		 mov	 al, 1

; 65   : }

  000a4	5e		 pop	 esi
  000a5	5d		 pop	 ebp
  000a6	c2 0c 00	 ret	 12			; 0000000cH
$LN5@Create:
  000a9	5f		 pop	 edi

; 55   : 	{
; 56   : 		assert(!"CGraphicDib::Create CreateDIBSection Error");
; 57   : 		return false;

  000aa	32 c0		 xor	 al, al

; 65   : }

  000ac	5e		 pop	 esi
  000ad	5d		 pop	 ebp
  000ae	c2 0c 00	 ret	 12			; 0000000cH
?Create@CGraphicDib@@QAE_NPAUHDC__@@HH@Z ENDP		; CGraphicDib::Create
_TEXT	ENDS
; Function compile flags: /Ogtp
; File C:\DS Project\DS Files\Source\ClientSource\Client\EterLib\GrpDIB.cpp
;	COMDAT ?Destroy@CGraphicDib@@QAEXXZ
_TEXT	SEGMENT
?Destroy@CGraphicDib@@QAEXXZ PROC			; CGraphicDib::Destroy, COMDAT
; _this$ = ecx

; 24   : {

  00000	56		 push	 esi
  00001	8b f1		 mov	 esi, ecx

; 25   : 	if (m_hBmp) DeleteObject(m_hBmp);

  00003	8b 46 08	 mov	 eax, DWORD PTR [esi+8]
  00006	85 c0		 test	 eax, eax
  00008	74 07		 je	 SHORT $LN2@Destroy
  0000a	50		 push	 eax
  0000b	ff 15 00 00 00
	00		 call	 DWORD PTR __imp__DeleteObject@4
$LN2@Destroy:

; 26   : 	if (m_hDC)	DeleteDC(m_hDC);

  00011	8b 46 04	 mov	 eax, DWORD PTR [esi+4]
  00014	85 c0		 test	 eax, eax
  00016	74 07		 je	 SHORT $LN3@Destroy
  00018	50		 push	 eax
  00019	ff 15 00 00 00
	00		 call	 DWORD PTR __imp__DeleteDC@4
$LN3@Destroy:

; 27   : 
; 28   : 	Initialize();

  0001f	8b ce		 mov	 ecx, esi
  00021	5e		 pop	 esi
  00022	e9 00 00 00 00	 jmp	 ?Initialize@CGraphicDib@@IAEXXZ ; CGraphicDib::Initialize
?Destroy@CGraphicDib@@QAEXXZ ENDP			; CGraphicDib::Destroy
_TEXT	ENDS
; Function compile flags: /Ogtp
; File C:\DS Project\DS Files\Source\ClientSource\Client\EterLib\GrpDIB.cpp
;	COMDAT ??1CGraphicDib@@UAE@XZ
_TEXT	SEGMENT
??1CGraphicDib@@UAE@XZ PROC				; CGraphicDib::~CGraphicDib, COMDAT
; _this$ = ecx

; 10   : {

  00000	c7 01 00 00 00
	00		 mov	 DWORD PTR [ecx], OFFSET ??_7CGraphicDib@@6B@

; 11   : 	Destroy();

  00006	e9 00 00 00 00	 jmp	 ?Destroy@CGraphicDib@@QAEXXZ ; CGraphicDib::Destroy
??1CGraphicDib@@UAE@XZ ENDP				; CGraphicDib::~CGraphicDib
_TEXT	ENDS
; Function compile flags: /Ogtp
; File C:\DS Project\DS Files\Source\ClientSource\Client\EterLib\GrpDIB.cpp
;	COMDAT ??0CGraphicDib@@QAE@XZ
_TEXT	SEGMENT
??0CGraphicDib@@QAE@XZ PROC				; CGraphicDib::CGraphicDib, COMDAT
; _this$ = ecx

; 5    : {

  00000	56		 push	 esi
  00001	8b f1		 mov	 esi, ecx
  00003	c7 06 00 00 00
	00		 mov	 DWORD PTR [esi], OFFSET ??_7CGraphicDib@@6B@

; 6    : 	Initialize();

  00009	e8 00 00 00 00	 call	 ?Initialize@CGraphicDib@@IAEXXZ ; CGraphicDib::Initialize

; 7    : }

  0000e	8b c6		 mov	 eax, esi
  00010	5e		 pop	 esi
  00011	c3		 ret	 0
??0CGraphicDib@@QAE@XZ ENDP				; CGraphicDib::CGraphicDib
_TEXT	ENDS
END
