; Listing generated by Microsoft (R) Optimizing Compiler Version 19.27.29112.0 

	TITLE	C:\DS Project\DS Files\Source\ClientSource\Client\EterLib\GrpD3DXBuffer.cpp
	.686P
	.XMM
	include listing.inc
	.model	flat

INCLUDELIB LIBCMT
INCLUDELIB OLDNAMES

PUBLIC	??0CDirect3DXBuffer@@QAE@XZ			; CDirect3DXBuffer::CDirect3DXBuffer
PUBLIC	??0CDirect3DXBuffer@@QAE@PAUID3DXBuffer@@@Z	; CDirect3DXBuffer::CDirect3DXBuffer
PUBLIC	??1CDirect3DXBuffer@@UAE@XZ			; CDirect3DXBuffer::~CDirect3DXBuffer
PUBLIC	?Destroy@CDirect3DXBuffer@@QAEXXZ		; CDirect3DXBuffer::Destroy
PUBLIC	?Create@CDirect3DXBuffer@@QAEXPAUID3DXBuffer@@@Z ; CDirect3DXBuffer::Create
PUBLIC	?GetPointer@CDirect3DXBuffer@@QAEPAXXZ		; CDirect3DXBuffer::GetPointer
PUBLIC	?GetSize@CDirect3DXBuffer@@QAEHXZ		; CDirect3DXBuffer::GetSize
PUBLIC	??_GCDirect3DXBuffer@@UAEPAXI@Z			; CDirect3DXBuffer::`scalar deleting destructor'
PUBLIC	??_7CDirect3DXBuffer@@6B@			; CDirect3DXBuffer::`vftable'
PUBLIC	??_R4CDirect3DXBuffer@@6B@			; CDirect3DXBuffer::`RTTI Complete Object Locator'
PUBLIC	??_R0?AVCDirect3DXBuffer@@@8			; CDirect3DXBuffer `RTTI Type Descriptor'
PUBLIC	??_R3CDirect3DXBuffer@@8			; CDirect3DXBuffer::`RTTI Class Hierarchy Descriptor'
PUBLIC	??_R2CDirect3DXBuffer@@8			; CDirect3DXBuffer::`RTTI Base Class Array'
PUBLIC	??_R1A@?0A@EA@CDirect3DXBuffer@@8		; CDirect3DXBuffer::`RTTI Base Class Descriptor at (0,-1,0,64)'
EXTRN	??3@YAXPAXI@Z:PROC				; operator delete
EXTRN	??_ECDirect3DXBuffer@@UAEPAXI@Z:PROC		; CDirect3DXBuffer::`vector deleting destructor'
EXTRN	@__security_check_cookie@4:PROC
EXTRN	___CxxFrameHandler3:PROC
EXTRN	??_7type_info@@6B@:QWORD			; type_info::`vftable'
EXTRN	___security_cookie:DWORD
;	COMDAT ??_R1A@?0A@EA@CDirect3DXBuffer@@8
rdata$r	SEGMENT
??_R1A@?0A@EA@CDirect3DXBuffer@@8 DD FLAT:??_R0?AVCDirect3DXBuffer@@@8 ; CDirect3DXBuffer::`RTTI Base Class Descriptor at (0,-1,0,64)'
	DD	00H
	DD	00H
	DD	0ffffffffH
	DD	00H
	DD	040H
	DD	FLAT:??_R3CDirect3DXBuffer@@8
rdata$r	ENDS
;	COMDAT ??_R2CDirect3DXBuffer@@8
rdata$r	SEGMENT
??_R2CDirect3DXBuffer@@8 DD FLAT:??_R1A@?0A@EA@CDirect3DXBuffer@@8 ; CDirect3DXBuffer::`RTTI Base Class Array'
rdata$r	ENDS
;	COMDAT ??_R3CDirect3DXBuffer@@8
rdata$r	SEGMENT
??_R3CDirect3DXBuffer@@8 DD 00H				; CDirect3DXBuffer::`RTTI Class Hierarchy Descriptor'
	DD	00H
	DD	01H
	DD	FLAT:??_R2CDirect3DXBuffer@@8
rdata$r	ENDS
;	COMDAT ??_R0?AVCDirect3DXBuffer@@@8
data$r	SEGMENT
??_R0?AVCDirect3DXBuffer@@@8 DD FLAT:??_7type_info@@6B@	; CDirect3DXBuffer `RTTI Type Descriptor'
	DD	00H
	DB	'.?AVCDirect3DXBuffer@@', 00H
data$r	ENDS
;	COMDAT ??_R4CDirect3DXBuffer@@6B@
rdata$r	SEGMENT
??_R4CDirect3DXBuffer@@6B@ DD 00H			; CDirect3DXBuffer::`RTTI Complete Object Locator'
	DD	00H
	DD	00H
	DD	FLAT:??_R0?AVCDirect3DXBuffer@@@8
	DD	FLAT:??_R3CDirect3DXBuffer@@8
rdata$r	ENDS
;	COMDAT ??_7CDirect3DXBuffer@@6B@
CONST	SEGMENT
??_7CDirect3DXBuffer@@6B@ DD FLAT:??_R4CDirect3DXBuffer@@6B@ ; CDirect3DXBuffer::`vftable'
	DD	FLAT:??_ECDirect3DXBuffer@@UAEPAXI@Z
CONST	ENDS
;	COMDAT xdata$x
xdata$x	SEGMENT
__ehfuncinfo$??1CDirect3DXBuffer@@UAE@XZ DD 019930522H
	DD	00H
	DD	00H
	DD	2 DUP(00H)
	DD	2 DUP(00H)
	DD	00H
	DD	05H
xdata$x	ENDS
; Function compile flags: /Ogtp
;	COMDAT ??_GCDirect3DXBuffer@@UAEPAXI@Z
_TEXT	SEGMENT
___flags$ = 8						; size = 4
??_GCDirect3DXBuffer@@UAEPAXI@Z PROC			; CDirect3DXBuffer::`scalar deleting destructor', COMDAT
; _this$ = ecx
  00000	55		 push	 ebp
  00001	8b ec		 mov	 ebp, esp
  00003	56		 push	 esi
  00004	8b f1		 mov	 esi, ecx
  00006	e8 00 00 00 00	 call	 ??1CDirect3DXBuffer@@UAE@XZ ; CDirect3DXBuffer::~CDirect3DXBuffer
  0000b	f6 45 08 01	 test	 BYTE PTR ___flags$[ebp], 1
  0000f	74 0b		 je	 SHORT $LN4@scalar
  00011	6a 08		 push	 8
  00013	56		 push	 esi
  00014	e8 00 00 00 00	 call	 ??3@YAXPAXI@Z		; operator delete
  00019	83 c4 08	 add	 esp, 8
$LN4@scalar:
  0001c	8b c6		 mov	 eax, esi
  0001e	5e		 pop	 esi
  0001f	5d		 pop	 ebp
  00020	c2 04 00	 ret	 4
??_GCDirect3DXBuffer@@UAEPAXI@Z ENDP			; CDirect3DXBuffer::`scalar deleting destructor'
_TEXT	ENDS
; Function compile flags: /Ogtp
; File C:\DS Project\DS Files\Source\ClientSource\Client\EterLib\GrpD3DXBuffer.cpp
;	COMDAT ?GetSize@CDirect3DXBuffer@@QAEHXZ
_TEXT	SEGMENT
?GetSize@CDirect3DXBuffer@@QAEHXZ PROC			; CDirect3DXBuffer::GetSize, COMDAT
; _this$ = ecx

; 39   : 	assert(m_lpd3dxBuffer!=NULL);
; 40   : 	return m_lpd3dxBuffer->GetBufferSize();

  00000	8b 41 04	 mov	 eax, DWORD PTR [ecx+4]
  00003	50		 push	 eax
  00004	8b 08		 mov	 ecx, DWORD PTR [eax]
  00006	ff 51 10	 call	 DWORD PTR [ecx+16]

; 41   : }

  00009	c3		 ret	 0
?GetSize@CDirect3DXBuffer@@QAEHXZ ENDP			; CDirect3DXBuffer::GetSize
_TEXT	ENDS
; Function compile flags: /Ogtp
; File C:\DS Project\DS Files\Source\ClientSource\Client\EterLib\GrpD3DXBuffer.cpp
;	COMDAT ?GetPointer@CDirect3DXBuffer@@QAEPAXXZ
_TEXT	SEGMENT
?GetPointer@CDirect3DXBuffer@@QAEPAXXZ PROC		; CDirect3DXBuffer::GetPointer, COMDAT
; _this$ = ecx

; 33   : 	assert(m_lpd3dxBuffer!=NULL);
; 34   : 	return m_lpd3dxBuffer->GetBufferPointer();

  00000	8b 41 04	 mov	 eax, DWORD PTR [ecx+4]
  00003	50		 push	 eax
  00004	8b 08		 mov	 ecx, DWORD PTR [eax]
  00006	ff 51 0c	 call	 DWORD PTR [ecx+12]

; 35   : }

  00009	c3		 ret	 0
?GetPointer@CDirect3DXBuffer@@QAEPAXXZ ENDP		; CDirect3DXBuffer::GetPointer
_TEXT	ENDS
; Function compile flags: /Ogtp
; File C:\DS Project\DS Files\Source\ClientSource\Client\EterLib\GrpD3DXBuffer.cpp
;	COMDAT ?Create@CDirect3DXBuffer@@QAEXPAUID3DXBuffer@@@Z
_TEXT	SEGMENT
_lpd3dxBuffer$ = 8					; size = 4
?Create@CDirect3DXBuffer@@QAEXPAUID3DXBuffer@@@Z PROC	; CDirect3DXBuffer::Create, COMDAT
; _this$ = ecx

; 26   : {

  00000	55		 push	 ebp
  00001	8b ec		 mov	 ebp, esp
  00003	56		 push	 esi
  00004	8b f1		 mov	 esi, ecx

; 27   : 	Destroy();

  00006	e8 00 00 00 00	 call	 ?Destroy@CDirect3DXBuffer@@QAEXXZ ; CDirect3DXBuffer::Destroy

; 28   : 	m_lpd3dxBuffer=lpd3dxBuffer;

  0000b	8b 45 08	 mov	 eax, DWORD PTR _lpd3dxBuffer$[ebp]
  0000e	89 46 04	 mov	 DWORD PTR [esi+4], eax
  00011	5e		 pop	 esi

; 29   : }

  00012	5d		 pop	 ebp
  00013	c2 04 00	 ret	 4
?Create@CDirect3DXBuffer@@QAEXPAUID3DXBuffer@@@Z ENDP	; CDirect3DXBuffer::Create
_TEXT	ENDS
; Function compile flags: /Ogtp
; File C:\DS Project\DS Files\Source\ClientSource\Client\EterLib\GrpD3DXBuffer.cpp
; File C:\DS Project\DS Files\Source\ClientSource\Client\eterBase\Stl.h
; File C:\DS Project\DS Files\Source\ClientSource\Client\EterLib\GrpD3DXBuffer.cpp
;	COMDAT ?Destroy@CDirect3DXBuffer@@QAEXXZ
_TEXT	SEGMENT
?Destroy@CDirect3DXBuffer@@QAEXXZ PROC			; CDirect3DXBuffer::Destroy, COMDAT
; _this$ = ecx

; 21   : {

  00000	56		 push	 esi
  00001	8b f1		 mov	 esi, ecx
; File C:\DS Project\DS Files\Source\ClientSource\Client\eterBase\Stl.h

; 138  : 	if (!rpObject)

  00003	8b 56 04	 mov	 edx, DWORD PTR [esi+4]
  00006	85 d2		 test	 edx, edx
  00008	74 0d		 je	 SHORT $LN3@Destroy

; 139  : 		return;
; 140  : 
; 141  : 	rpObject->Release();

  0000a	8b 02		 mov	 eax, DWORD PTR [edx]
  0000c	52		 push	 edx
  0000d	ff 50 08	 call	 DWORD PTR [eax+8]

; 142  : 	rpObject = NULL;

  00010	c7 46 04 00 00
	00 00		 mov	 DWORD PTR [esi+4], 0
$LN3@Destroy:
  00017	5e		 pop	 esi
; File C:\DS Project\DS Files\Source\ClientSource\Client\EterLib\GrpD3DXBuffer.cpp

; 23   : }

  00018	c3		 ret	 0
?Destroy@CDirect3DXBuffer@@QAEXXZ ENDP			; CDirect3DXBuffer::Destroy
_TEXT	ENDS
; Function compile flags: /Ogtp
; File C:\DS Project\DS Files\Source\ClientSource\Client\EterLib\GrpD3DXBuffer.cpp
;	COMDAT ??1CDirect3DXBuffer@@UAE@XZ
_TEXT	SEGMENT
__$EHRec$ = -12						; size = 12
??1CDirect3DXBuffer@@UAE@XZ PROC			; CDirect3DXBuffer::~CDirect3DXBuffer, COMDAT
; _this$ = ecx

; 16   : {

  00000	55		 push	 ebp
  00001	8b ec		 mov	 ebp, esp
  00003	6a ff		 push	 -1
  00005	68 00 00 00 00	 push	 __ehhandler$??1CDirect3DXBuffer@@UAE@XZ
  0000a	64 a1 00 00 00
	00		 mov	 eax, DWORD PTR fs:0
  00010	50		 push	 eax
  00011	a1 00 00 00 00	 mov	 eax, DWORD PTR ___security_cookie
  00016	33 c5		 xor	 eax, ebp
  00018	50		 push	 eax
  00019	8d 45 f4	 lea	 eax, DWORD PTR __$EHRec$[ebp]
  0001c	64 a3 00 00 00
	00		 mov	 DWORD PTR fs:0, eax
  00022	c7 01 00 00 00
	00		 mov	 DWORD PTR [ecx], OFFSET ??_7CDirect3DXBuffer@@6B@

; 17   : 	Destroy();

  00028	e8 00 00 00 00	 call	 ?Destroy@CDirect3DXBuffer@@QAEXXZ ; CDirect3DXBuffer::Destroy

; 18   : }

  0002d	8b 4d f4	 mov	 ecx, DWORD PTR __$EHRec$[ebp]
  00030	64 89 0d 00 00
	00 00		 mov	 DWORD PTR fs:0, ecx
  00037	59		 pop	 ecx
  00038	8b e5		 mov	 esp, ebp
  0003a	5d		 pop	 ebp
  0003b	c3		 ret	 0
  0003c	cc		 int	 3
  0003d	cc		 int	 3
  0003e	cc		 int	 3
  0003f	cc		 int	 3
  00040	cc		 int	 3
_TEXT	ENDS
;	COMDAT text$x
text$x	SEGMENT
__ehhandler$??1CDirect3DXBuffer@@UAE@XZ:
  00000	90		 npad	 1
  00001	90		 npad	 1
  00002	8b 54 24 08	 mov	 edx, DWORD PTR [esp+8]
  00006	8d 42 0c	 lea	 eax, DWORD PTR [edx+12]
  00009	8b 4a fc	 mov	 ecx, DWORD PTR [edx-4]
  0000c	33 c8		 xor	 ecx, eax
  0000e	e8 00 00 00 00	 call	 @__security_check_cookie@4
  00013	b8 00 00 00 00	 mov	 eax, OFFSET __ehfuncinfo$??1CDirect3DXBuffer@@UAE@XZ
  00018	e9 00 00 00 00	 jmp	 ___CxxFrameHandler3
text$x	ENDS
??1CDirect3DXBuffer@@UAE@XZ ENDP			; CDirect3DXBuffer::~CDirect3DXBuffer
; Function compile flags: /Ogtp
; File C:\DS Project\DS Files\Source\ClientSource\Client\EterLib\GrpD3DXBuffer.cpp
;	COMDAT ??0CDirect3DXBuffer@@QAE@PAUID3DXBuffer@@@Z
_TEXT	SEGMENT
_lpd3dxBuffer$ = 8					; size = 4
??0CDirect3DXBuffer@@QAE@PAUID3DXBuffer@@@Z PROC	; CDirect3DXBuffer::CDirect3DXBuffer, COMDAT
; _this$ = ecx

; 11   : {

  00000	55		 push	 ebp
  00001	8b ec		 mov	 ebp, esp

; 12   : 	m_lpd3dxBuffer=lpd3dxBuffer;

  00003	8b 45 08	 mov	 eax, DWORD PTR _lpd3dxBuffer$[ebp]
  00006	89 41 04	 mov	 DWORD PTR [ecx+4], eax

; 13   : }

  00009	8b c1		 mov	 eax, ecx
  0000b	c7 01 00 00 00
	00		 mov	 DWORD PTR [ecx], OFFSET ??_7CDirect3DXBuffer@@6B@
  00011	5d		 pop	 ebp
  00012	c2 04 00	 ret	 4
??0CDirect3DXBuffer@@QAE@PAUID3DXBuffer@@@Z ENDP	; CDirect3DXBuffer::CDirect3DXBuffer
_TEXT	ENDS
; Function compile flags: /Ogtp
; File C:\DS Project\DS Files\Source\ClientSource\Client\EterLib\GrpD3DXBuffer.cpp
;	COMDAT ??0CDirect3DXBuffer@@QAE@XZ
_TEXT	SEGMENT
??0CDirect3DXBuffer@@QAE@XZ PROC			; CDirect3DXBuffer::CDirect3DXBuffer, COMDAT
; _this$ = ecx

; 6    : {

  00000	c7 01 00 00 00
	00		 mov	 DWORD PTR [ecx], OFFSET ??_7CDirect3DXBuffer@@6B@

; 7    : 	m_lpd3dxBuffer=NULL;
; 8    : }

  00006	8b c1		 mov	 eax, ecx
  00008	c7 41 04 00 00
	00 00		 mov	 DWORD PTR [ecx+4], 0
  0000f	c3		 ret	 0
??0CDirect3DXBuffer@@QAE@XZ ENDP			; CDirect3DXBuffer::CDirect3DXBuffer
_TEXT	ENDS
END
