; Listing generated by Microsoft (R) Optimizing Compiler Version 19.27.29112.0 

	TITLE	C:\DS Project\DS Files\Source\ClientSource\Client\EterLib\GrpObjectInstance.cpp
	.686P
	.XMM
	include listing.inc
	.model	flat

INCLUDELIB LIBCMT
INCLUDELIB OLDNAMES

PUBLIC	??_H@YGXPAXIIP6EPAX0@Z@Z			; `vector constructor iterator'
PUBLIC	??0D3DXVECTOR3@@QAE@XZ				; D3DXVECTOR3::D3DXVECTOR3
PUBLIC	??0D3DXVECTOR4@@QAE@XZ				; D3DXVECTOR4::D3DXVECTOR4
PUBLIC	??0exception@std@@QAE@ABV01@@Z			; std::exception::exception
PUBLIC	??1exception@std@@UAE@XZ			; std::exception::~exception
PUBLIC	?what@exception@std@@UBEPBDXZ			; std::exception::what
PUBLIC	??_Gexception@std@@UAEPAXI@Z			; std::exception::`scalar deleting destructor'
PUBLIC	??0bad_alloc@std@@QAE@ABV01@@Z			; std::bad_alloc::bad_alloc
PUBLIC	??_Gbad_alloc@std@@UAEPAXI@Z			; std::bad_alloc::`scalar deleting destructor'
PUBLIC	??0bad_array_new_length@std@@QAE@XZ		; std::bad_array_new_length::bad_array_new_length
PUBLIC	??1bad_array_new_length@std@@UAE@XZ		; std::bad_array_new_length::~bad_array_new_length
PUBLIC	??0bad_array_new_length@std@@QAE@ABV01@@Z	; std::bad_array_new_length::bad_array_new_length
PUBLIC	??_Gbad_array_new_length@std@@UAEPAXI@Z		; std::bad_array_new_length::`scalar deleting destructor'
PUBLIC	?_Throw_bad_array_new_length@std@@YAXXZ		; std::_Throw_bad_array_new_length
PUBLIC	??$_Deallocate@$07$0A@@std@@YAXPAXI@Z		; std::_Deallocate<8,0>
PUBLIC	??$_Allocate@$07U_Default_allocate_traits@std@@$0A@@std@@YAPAXI@Z ; std::_Allocate<8,std::_Default_allocate_traits,0>
PUBLIC	??$_Allocate_manually_vector_aligned@U_Default_allocate_traits@std@@@std@@YAPAXI@Z ; std::_Allocate_manually_vector_aligned<std::_Default_allocate_traits>
PUBLIC	?Unlink@SpherePack@@QAEXXZ			; SpherePack::Unlink
PUBLIC	??0CGraphicObjectInstance@@QAE@XZ		; CGraphicObjectInstance::CGraphicObjectInstance
PUBLIC	??1CGraphicObjectInstance@@UAE@XZ		; CGraphicObjectInstance::~CGraphicObjectInstance
PUBLIC	?GetPosition@CGraphicObjectInstance@@QBEABUD3DXVECTOR3@@XZ ; CGraphicObjectInstance::GetPosition
PUBLIC	?GetScale@CGraphicObjectInstance@@QBEABUD3DXVECTOR3@@XZ ; CGraphicObjectInstance::GetScale
PUBLIC	?GetRotation@CGraphicObjectInstance@@QAEMXZ	; CGraphicObjectInstance::GetRotation
PUBLIC	?GetYaw@CGraphicObjectInstance@@QAEMXZ		; CGraphicObjectInstance::GetYaw
PUBLIC	?GetPitch@CGraphicObjectInstance@@QAEMXZ	; CGraphicObjectInstance::GetPitch
PUBLIC	?GetRoll@CGraphicObjectInstance@@QAEMXZ		; CGraphicObjectInstance::GetRoll
PUBLIC	?SetPosition@CGraphicObjectInstance@@QAEXMMM@Z	; CGraphicObjectInstance::SetPosition
PUBLIC	?SetPosition@CGraphicObjectInstance@@QAEXABUD3DXVECTOR3@@@Z ; CGraphicObjectInstance::SetPosition
PUBLIC	?SetScalePosition@CGraphicObjectInstance@@QAEXMMM@Z ; CGraphicObjectInstance::SetScalePosition
PUBLIC	?SetScale@CGraphicObjectInstance@@QAEXMMM_N@Z	; CGraphicObjectInstance::SetScale
PUBLIC	?SetRotation@CGraphicObjectInstance@@QAEXM@Z	; CGraphicObjectInstance::SetRotation
PUBLIC	?SetRotation@CGraphicObjectInstance@@QAEXMMM@Z	; CGraphicObjectInstance::SetRotation
PUBLIC	?SetRotationQuaternion@CGraphicObjectInstance@@QAEXABUD3DXQUATERNION@@@Z ; CGraphicObjectInstance::SetRotationQuaternion
PUBLIC	?SetRotationMatrix@CGraphicObjectInstance@@QAEXABUD3DXMATRIX@@@Z ; CGraphicObjectInstance::SetRotationMatrix
PUBLIC	?Clear@CGraphicObjectInstance@@QAEXXZ		; CGraphicObjectInstance::Clear
PUBLIC	?Update@CGraphicObjectInstance@@QAEXXZ		; CGraphicObjectInstance::Update
PUBLIC	?Render@CGraphicObjectInstance@@QAE_NXZ		; CGraphicObjectInstance::Render
PUBLIC	?BlendRender@CGraphicObjectInstance@@QAEXXZ	; CGraphicObjectInstance::BlendRender
PUBLIC	?RenderToShadowMap@CGraphicObjectInstance@@QAEXXZ ; CGraphicObjectInstance::RenderToShadowMap
PUBLIC	?RenderShadow@CGraphicObjectInstance@@QAEXXZ	; CGraphicObjectInstance::RenderShadow
PUBLIC	?RenderPCBlocker@CGraphicObjectInstance@@QAEXXZ	; CGraphicObjectInstance::RenderPCBlocker
PUBLIC	?Deform@CGraphicObjectInstance@@QAEXXZ		; CGraphicObjectInstance::Deform
PUBLIC	?Transform@CGraphicObjectInstance@@QAEXXZ	; CGraphicObjectInstance::Transform
PUBLIC	?Show@CGraphicObjectInstance@@QAEXXZ		; CGraphicObjectInstance::Show
PUBLIC	?Hide@CGraphicObjectInstance@@QAEXXZ		; CGraphicObjectInstance::Hide
PUBLIC	?isShow@CGraphicObjectInstance@@QAE_NXZ		; CGraphicObjectInstance::isShow
PUBLIC	?isIntersect@CGraphicObjectInstance@@QAE_NABVCRay@@PAM11@Z ; CGraphicObjectInstance::isIntersect
PUBLIC	?GetWTBBoxVertex@CGraphicObjectInstance@@QAEAAUD3DXVECTOR4@@ABE@Z ; CGraphicObjectInstance::GetWTBBoxVertex
PUBLIC	?GetTransform@CGraphicObjectInstance@@QAEAAUD3DXMATRIX@@XZ ; CGraphicObjectInstance::GetTransform
PUBLIC	?SetPortal@CGraphicObjectInstance@@QAEXKH@Z	; CGraphicObjectInstance::SetPortal
PUBLIC	?GetPortal@CGraphicObjectInstance@@QAEHK@Z	; CGraphicObjectInstance::GetPortal
PUBLIC	?Initialize@CGraphicObjectInstance@@QAEXXZ	; CGraphicObjectInstance::Initialize
PUBLIC	?OnInitialize@CGraphicObjectInstance@@UAEXXZ	; CGraphicObjectInstance::OnInitialize
PUBLIC	?UpdateBoundingSphere@CGraphicObjectInstance@@QAEXXZ ; CGraphicObjectInstance::UpdateBoundingSphere
PUBLIC	?RegisterBoundingSphere@CGraphicObjectInstance@@QAEXXZ ; CGraphicObjectInstance::RegisterBoundingSphere
PUBLIC	?OnClear@CGraphicObjectInstance@@UAEXXZ		; CGraphicObjectInstance::OnClear
PUBLIC	?OnUpdate@CGraphicObjectInstance@@UAEXXZ	; CGraphicObjectInstance::OnUpdate
PUBLIC	?OnDeform@CGraphicObjectInstance@@UAEXXZ	; CGraphicObjectInstance::OnDeform
PUBLIC	?AddCollision@CGraphicObjectInstance@@QAEXPBVCStaticCollisionData@@PBUD3DXMATRIX@@@Z ; CGraphicObjectInstance::AddCollision
PUBLIC	?ClearCollision@CGraphicObjectInstance@@QAEXXZ	; CGraphicObjectInstance::ClearCollision
PUBLIC	?CollisionDynamicSphere@CGraphicObjectInstance@@QBE_NABUCDynamicSphereInstance@@@Z ; CGraphicObjectInstance::CollisionDynamicSphere
PUBLIC	?MovementCollisionDynamicSphere@CGraphicObjectInstance@@QBE_NABUCDynamicSphereInstance@@@Z ; CGraphicObjectInstance::MovementCollisionDynamicSphere
PUBLIC	?GetCollisionMovementAdjust@CGraphicObjectInstance@@QBE?AUD3DXVECTOR3@@ABUCDynamicSphereInstance@@@Z ; CGraphicObjectInstance::GetCollisionMovementAdjust
PUBLIC	?UpdateCollisionData@CGraphicObjectInstance@@QAEXPBV?$vector@VCStaticCollisionData@@V?$allocator@VCStaticCollisionData@@@std@@@std@@@Z ; CGraphicObjectInstance::UpdateCollisionData
PUBLIC	??1?$vector@PAVCBaseCollisionInstance@@V?$allocator@PAVCBaseCollisionInstance@@@std@@@std@@QAE@XZ ; std::vector<CBaseCollisionInstance *,std::allocator<CBaseCollisionInstance *> >::~vector<CBaseCollisionInstance *,std::allocator<CBaseCollisionInstance *> >
PUBLIC	?_Xlength@?$vector@PAVCBaseCollisionInstance@@V?$allocator@PAVCBaseCollisionInstance@@@std@@@std@@CAXXZ ; std::vector<CBaseCollisionInstance *,std::allocator<CBaseCollisionInstance *> >::_Xlength
PUBLIC	?GetCollisionInstanceCount@CGraphicObjectInstance@@QAEKXZ ; CGraphicObjectInstance::GetCollisionInstanceCount
PUBLIC	?GetCollisionInstanceData@CGraphicObjectInstance@@QAEPAVCBaseCollisionInstance@@K@Z ; CGraphicObjectInstance::GetCollisionInstanceData
PUBLIC	?SetHeightInstance@CGraphicObjectInstance@@QAEXPAVCAttributeInstance@@@Z ; CGraphicObjectInstance::SetHeightInstance
PUBLIC	?ClearHeightInstance@CGraphicObjectInstance@@QAEXXZ ; CGraphicObjectInstance::ClearHeightInstance
PUBLIC	?UpdateHeightInstance@CGraphicObjectInstance@@QAEXPAVCAttributeInstance@@@Z ; CGraphicObjectInstance::UpdateHeightInstance
PUBLIC	?IsObjectHeight@CGraphicObjectInstance@@QAE_NXZ	; CGraphicObjectInstance::IsObjectHeight
PUBLIC	?GetObjectHeight@CGraphicObjectInstance@@QAE_NMMPAM@Z ; CGraphicObjectInstance::GetObjectHeight
PUBLIC	??_GCGraphicObjectInstance@@UAEPAXI@Z		; CGraphicObjectInstance::`scalar deleting destructor'
PUBLIC	??$_Emplace_reallocate@PAVCBaseCollisionInstance@@@?$vector@PAVCBaseCollisionInstance@@V?$allocator@PAVCBaseCollisionInstance@@@std@@@std@@QAEPAPAVCBaseCollisionInstance@@QAPAV2@$$QAPAV2@@Z ; std::vector<CBaseCollisionInstance *,std::allocator<CBaseCollisionInstance *> >::_Emplace_reallocate<CBaseCollisionInstance *>
PUBLIC	??$_Destroy_range@V?$allocator@PAVCBaseCollisionInstance@@@std@@@std@@YAXPAPAVCBaseCollisionInstance@@QAPAV1@AAV?$allocator@PAVCBaseCollisionInstance@@@0@@Z ; std::_Destroy_range<std::allocator<CBaseCollisionInstance *> >
PUBLIC	??$_Uninitialized_move@PAPAVCBaseCollisionInstance@@V?$allocator@PAVCBaseCollisionInstance@@@std@@@std@@YAPAPAVCBaseCollisionInstance@@QAPAV1@0PAPAV1@AAV?$allocator@PAVCBaseCollisionInstance@@@0@@Z ; std::_Uninitialized_move<CBaseCollisionInstance * *,std::allocator<CBaseCollisionInstance *> >
PUBLIC	??$_Copy_memmove@PAPAVCBaseCollisionInstance@@PAPAV1@@std@@YAPAPAVCBaseCollisionInstance@@PAPAV1@00@Z ; std::_Copy_memmove<CBaseCollisionInstance * *,CBaseCollisionInstance * *>
PUBLIC	??_7exception@std@@6B@				; std::exception::`vftable'
PUBLIC	??_C@_0BC@EOODALEL@Unknown?5exception@		; `string'
PUBLIC	??_7bad_alloc@std@@6B@				; std::bad_alloc::`vftable'
PUBLIC	??_7bad_array_new_length@std@@6B@		; std::bad_array_new_length::`vftable'
PUBLIC	??_C@_0BF@KINCDENJ@bad?5array?5new?5length@	; `string'
PUBLIC	__TI3?AVbad_array_new_length@std@@
PUBLIC	__CTA3?AVbad_array_new_length@std@@
PUBLIC	??_R0?AVbad_array_new_length@std@@@8		; std::bad_array_new_length `RTTI Type Descriptor'
PUBLIC	__CT??_R0?AVbad_array_new_length@std@@@8??0bad_array_new_length@std@@QAE@ABV01@@Z12
PUBLIC	??_R0?AVbad_alloc@std@@@8			; std::bad_alloc `RTTI Type Descriptor'
PUBLIC	__CT??_R0?AVbad_alloc@std@@@8??0bad_alloc@std@@QAE@ABV01@@Z12
PUBLIC	??_R0?AVexception@std@@@8			; std::exception `RTTI Type Descriptor'
PUBLIC	__CT??_R0?AVexception@std@@@8??0exception@std@@QAE@ABV01@@Z12
PUBLIC	??_R4exception@std@@6B@				; std::exception::`RTTI Complete Object Locator'
PUBLIC	??_R3exception@std@@8				; std::exception::`RTTI Class Hierarchy Descriptor'
PUBLIC	??_R2exception@std@@8				; std::exception::`RTTI Base Class Array'
PUBLIC	??_R1A@?0A@EA@exception@std@@8			; std::exception::`RTTI Base Class Descriptor at (0,-1,0,64)'
PUBLIC	??_R4bad_alloc@std@@6B@				; std::bad_alloc::`RTTI Complete Object Locator'
PUBLIC	??_R3bad_alloc@std@@8				; std::bad_alloc::`RTTI Class Hierarchy Descriptor'
PUBLIC	??_R2bad_alloc@std@@8				; std::bad_alloc::`RTTI Base Class Array'
PUBLIC	??_R1A@?0A@EA@bad_alloc@std@@8			; std::bad_alloc::`RTTI Base Class Descriptor at (0,-1,0,64)'
PUBLIC	??_R4bad_array_new_length@std@@6B@		; std::bad_array_new_length::`RTTI Complete Object Locator'
PUBLIC	??_R3bad_array_new_length@std@@8		; std::bad_array_new_length::`RTTI Class Hierarchy Descriptor'
PUBLIC	??_R2bad_array_new_length@std@@8		; std::bad_array_new_length::`RTTI Base Class Array'
PUBLIC	??_R1A@?0A@EA@bad_array_new_length@std@@8	; std::bad_array_new_length::`RTTI Base Class Descriptor at (0,-1,0,64)'
PUBLIC	?ms_singleton@?$CSingleton@VCCullingManager@@@@0PAVCCullingManager@@A ; CSingleton<CCullingManager>::ms_singleton
PUBLIC	??_7CGraphicObjectInstance@@6B@			; CGraphicObjectInstance::`vftable'
PUBLIC	??_C@_0BA@FOIKENOD@vector?5too?5long@		; `string'
PUBLIC	??_R4CGraphicObjectInstance@@6B@		; CGraphicObjectInstance::`RTTI Complete Object Locator'
PUBLIC	??_R0?AVCGraphicObjectInstance@@@8		; CGraphicObjectInstance `RTTI Type Descriptor'
PUBLIC	??_R3CGraphicObjectInstance@@8			; CGraphicObjectInstance::`RTTI Class Hierarchy Descriptor'
PUBLIC	??_R2CGraphicObjectInstance@@8			; CGraphicObjectInstance::`RTTI Base Class Array'
PUBLIC	??_R1A@?0A@EA@CGraphicObjectInstance@@8		; CGraphicObjectInstance::`RTTI Base Class Descriptor at (0,-1,0,64)'
PUBLIC	??_R1A@?0A@EA@CGraphicCollisionObject@@8	; CGraphicCollisionObject::`RTTI Base Class Descriptor at (0,-1,0,64)'
PUBLIC	??_R0?AVCGraphicCollisionObject@@@8		; CGraphicCollisionObject `RTTI Type Descriptor'
PUBLIC	??_R3CGraphicCollisionObject@@8			; CGraphicCollisionObject::`RTTI Class Hierarchy Descriptor'
PUBLIC	??_R2CGraphicCollisionObject@@8			; CGraphicCollisionObject::`RTTI Base Class Array'
PUBLIC	??_R1A@?0A@EA@CGraphicBase@@8			; CGraphicBase::`RTTI Base Class Descriptor at (0,-1,0,64)'
PUBLIC	??_R0?AVCGraphicBase@@@8			; CGraphicBase `RTTI Type Descriptor'
PUBLIC	??_R3CGraphicBase@@8				; CGraphicBase::`RTTI Class Hierarchy Descriptor'
PUBLIC	??_R2CGraphicBase@@8				; CGraphicBase::`RTTI Base Class Array'
PUBLIC	__real@3c8efa35
EXTRN	__purecall:PROC
EXTRN	??2@YAPAXI@Z:PROC				; operator new
EXTRN	??3@YAXPAXI@Z:PROC				; operator delete
EXTRN	__invalid_parameter_noinfo_noreturn:PROC
EXTRN	_D3DXMatrixMultiply@12:PROC
EXTRN	_D3DXMatrixScaling@16:PROC
EXTRN	_D3DXMatrixRotationZ@8:PROC
EXTRN	_D3DXMatrixRotationQuaternion@8:PROC
EXTRN	_D3DXMatrixRotationYawPitchRoll@16:PROC
EXTRN	___std_exception_copy:PROC
EXTRN	___std_exception_destroy:PROC
EXTRN	??_Eexception@std@@UAEPAXI@Z:PROC		; std::exception::`vector deleting destructor'
EXTRN	??_Ebad_alloc@std@@UAEPAXI@Z:PROC		; std::bad_alloc::`vector deleting destructor'
EXTRN	??_Ebad_array_new_length@std@@UAEPAXI@Z:PROC	; std::bad_array_new_length::`vector deleting destructor'
EXTRN	?_Xlength_error@std@@YAXPBD@Z:PROC		; std::_Xlength_error
EXTRN	??0CGraphicCollisionObject@@QAE@XZ:PROC		; CGraphicCollisionObject::CGraphicCollisionObject
EXTRN	??1CGraphicCollisionObject@@UAE@XZ:PROC		; CGraphicCollisionObject::~CGraphicCollisionObject
EXTRN	?IntersectTriangle@CGraphicCollisionObject@@IAE_NABUD3DXVECTOR3@@0000PAM11@Z:PROC ; CGraphicCollisionObject::IntersectTriangle
EXTRN	?LostChild@SpherePack@@QAEXPAV1@@Z:PROC		; SpherePack::LostChild
EXTRN	?AddIntegrate@SpherePackFactory@@QAEXPAVSpherePack@@@Z:PROC ; SpherePackFactory::AddIntegrate
EXTRN	?AddRecompute@SpherePackFactory@@QAEXPAVSpherePack@@@Z:PROC ; SpherePackFactory::AddRecompute
EXTRN	?Register@CCullingManager@@QAEPAVSpherePack@@PAVCGraphicObjectInstance@@@Z:PROC ; CCullingManager::Register
EXTRN	?Unregister@CCullingManager@@QAEXPAVSpherePack@@@Z:PROC ; CCullingManager::Unregister
EXTRN	?Destroy@CBaseCollisionInstance@@QAEXXZ:PROC	; CBaseCollisionInstance::Destroy
EXTRN	?BuildCollisionInstance@CBaseCollisionInstance@@SAPAV1@PBVCStaticCollisionData@@PBUD3DXMATRIX@@@Z:PROC ; CBaseCollisionInstance::BuildCollisionInstance
EXTRN	??_ECGraphicObjectInstance@@UAEPAXI@Z:PROC	; CGraphicObjectInstance::`vector deleting destructor'
EXTRN	@__security_check_cookie@4:PROC
EXTRN	__CxxThrowException@8:PROC
EXTRN	___CxxFrameHandler3:PROC
EXTRN	_memmove:PROC
EXTRN	??_7type_info@@6B@:QWORD			; type_info::`vftable'
EXTRN	___security_cookie:DWORD
EXTRN	__fltused:DWORD
;	COMDAT ?ms_singleton@?$CSingleton@VCCullingManager@@@@0PAVCCullingManager@@A
_BSS	SEGMENT
?ms_singleton@?$CSingleton@VCCullingManager@@@@0PAVCCullingManager@@A DD 01H DUP (?) ; CSingleton<CCullingManager>::ms_singleton
_BSS	ENDS
;	COMDAT __real@3c8efa35
CONST	SEGMENT
__real@3c8efa35 DD 03c8efa35r			; 0.0174533
CONST	ENDS
;	COMDAT ??_R2CGraphicBase@@8
rdata$r	SEGMENT
??_R2CGraphicBase@@8 DD FLAT:??_R1A@?0A@EA@CGraphicBase@@8 ; CGraphicBase::`RTTI Base Class Array'
rdata$r	ENDS
;	COMDAT ??_R3CGraphicBase@@8
rdata$r	SEGMENT
??_R3CGraphicBase@@8 DD 00H				; CGraphicBase::`RTTI Class Hierarchy Descriptor'
	DD	00H
	DD	01H
	DD	FLAT:??_R2CGraphicBase@@8
rdata$r	ENDS
;	COMDAT ??_R0?AVCGraphicBase@@@8
data$r	SEGMENT
??_R0?AVCGraphicBase@@@8 DD FLAT:??_7type_info@@6B@	; CGraphicBase `RTTI Type Descriptor'
	DD	00H
	DB	'.?AVCGraphicBase@@', 00H
data$r	ENDS
;	COMDAT ??_R1A@?0A@EA@CGraphicBase@@8
rdata$r	SEGMENT
??_R1A@?0A@EA@CGraphicBase@@8 DD FLAT:??_R0?AVCGraphicBase@@@8 ; CGraphicBase::`RTTI Base Class Descriptor at (0,-1,0,64)'
	DD	00H
	DD	00H
	DD	0ffffffffH
	DD	00H
	DD	040H
	DD	FLAT:??_R3CGraphicBase@@8
rdata$r	ENDS
;	COMDAT ??_R2CGraphicCollisionObject@@8
rdata$r	SEGMENT
??_R2CGraphicCollisionObject@@8 DD FLAT:??_R1A@?0A@EA@CGraphicCollisionObject@@8 ; CGraphicCollisionObject::`RTTI Base Class Array'
	DD	FLAT:??_R1A@?0A@EA@CGraphicBase@@8
rdata$r	ENDS
;	COMDAT ??_R3CGraphicCollisionObject@@8
rdata$r	SEGMENT
??_R3CGraphicCollisionObject@@8 DD 00H			; CGraphicCollisionObject::`RTTI Class Hierarchy Descriptor'
	DD	00H
	DD	02H
	DD	FLAT:??_R2CGraphicCollisionObject@@8
rdata$r	ENDS
;	COMDAT ??_R0?AVCGraphicCollisionObject@@@8
data$r	SEGMENT
??_R0?AVCGraphicCollisionObject@@@8 DD FLAT:??_7type_info@@6B@ ; CGraphicCollisionObject `RTTI Type Descriptor'
	DD	00H
	DB	'.?AVCGraphicCollisionObject@@', 00H
data$r	ENDS
;	COMDAT ??_R1A@?0A@EA@CGraphicCollisionObject@@8
rdata$r	SEGMENT
??_R1A@?0A@EA@CGraphicCollisionObject@@8 DD FLAT:??_R0?AVCGraphicCollisionObject@@@8 ; CGraphicCollisionObject::`RTTI Base Class Descriptor at (0,-1,0,64)'
	DD	01H
	DD	00H
	DD	0ffffffffH
	DD	00H
	DD	040H
	DD	FLAT:??_R3CGraphicCollisionObject@@8
rdata$r	ENDS
;	COMDAT ??_R1A@?0A@EA@CGraphicObjectInstance@@8
rdata$r	SEGMENT
??_R1A@?0A@EA@CGraphicObjectInstance@@8 DD FLAT:??_R0?AVCGraphicObjectInstance@@@8 ; CGraphicObjectInstance::`RTTI Base Class Descriptor at (0,-1,0,64)'
	DD	02H
	DD	00H
	DD	0ffffffffH
	DD	00H
	DD	040H
	DD	FLAT:??_R3CGraphicObjectInstance@@8
rdata$r	ENDS
;	COMDAT ??_R2CGraphicObjectInstance@@8
rdata$r	SEGMENT
??_R2CGraphicObjectInstance@@8 DD FLAT:??_R1A@?0A@EA@CGraphicObjectInstance@@8 ; CGraphicObjectInstance::`RTTI Base Class Array'
	DD	FLAT:??_R1A@?0A@EA@CGraphicCollisionObject@@8
	DD	FLAT:??_R1A@?0A@EA@CGraphicBase@@8
rdata$r	ENDS
;	COMDAT ??_R3CGraphicObjectInstance@@8
rdata$r	SEGMENT
??_R3CGraphicObjectInstance@@8 DD 00H			; CGraphicObjectInstance::`RTTI Class Hierarchy Descriptor'
	DD	00H
	DD	03H
	DD	FLAT:??_R2CGraphicObjectInstance@@8
rdata$r	ENDS
;	COMDAT ??_R0?AVCGraphicObjectInstance@@@8
data$r	SEGMENT
??_R0?AVCGraphicObjectInstance@@@8 DD FLAT:??_7type_info@@6B@ ; CGraphicObjectInstance `RTTI Type Descriptor'
	DD	00H
	DB	'.?AVCGraphicObjectInstance@@', 00H
data$r	ENDS
;	COMDAT ??_R4CGraphicObjectInstance@@6B@
rdata$r	SEGMENT
??_R4CGraphicObjectInstance@@6B@ DD 00H			; CGraphicObjectInstance::`RTTI Complete Object Locator'
	DD	00H
	DD	00H
	DD	FLAT:??_R0?AVCGraphicObjectInstance@@@8
	DD	FLAT:??_R3CGraphicObjectInstance@@8
rdata$r	ENDS
;	COMDAT ??_C@_0BA@FOIKENOD@vector?5too?5long@
CONST	SEGMENT
??_C@_0BA@FOIKENOD@vector?5too?5long@ DB 'vector too long', 00H ; `string'
CONST	ENDS
;	COMDAT ??_7CGraphicObjectInstance@@6B@
CONST	SEGMENT
??_7CGraphicObjectInstance@@6B@ DD FLAT:??_R4CGraphicObjectInstance@@6B@ ; CGraphicObjectInstance::`vftable'
	DD	FLAT:??_ECGraphicObjectInstance@@UAEPAXI@Z
	DD	FLAT:__purecall
	DD	FLAT:?OnInitialize@CGraphicObjectInstance@@UAEXXZ
	DD	FLAT:__purecall
	DD	FLAT:__purecall
	DD	FLAT:__purecall
	DD	FLAT:__purecall
	DD	FLAT:__purecall
	DD	FLAT:__purecall
	DD	FLAT:?OnClear@CGraphicObjectInstance@@UAEXXZ
	DD	FLAT:?OnUpdate@CGraphicObjectInstance@@UAEXXZ
	DD	FLAT:?OnDeform@CGraphicObjectInstance@@UAEXXZ
	DD	FLAT:__purecall
	DD	FLAT:__purecall
	DD	FLAT:__purecall
CONST	ENDS
;	COMDAT ??_R1A@?0A@EA@bad_array_new_length@std@@8
rdata$r	SEGMENT
??_R1A@?0A@EA@bad_array_new_length@std@@8 DD FLAT:??_R0?AVbad_array_new_length@std@@@8 ; std::bad_array_new_length::`RTTI Base Class Descriptor at (0,-1,0,64)'
	DD	02H
	DD	00H
	DD	0ffffffffH
	DD	00H
	DD	040H
	DD	FLAT:??_R3bad_array_new_length@std@@8
rdata$r	ENDS
;	COMDAT ??_R2bad_array_new_length@std@@8
rdata$r	SEGMENT
??_R2bad_array_new_length@std@@8 DD FLAT:??_R1A@?0A@EA@bad_array_new_length@std@@8 ; std::bad_array_new_length::`RTTI Base Class Array'
	DD	FLAT:??_R1A@?0A@EA@bad_alloc@std@@8
	DD	FLAT:??_R1A@?0A@EA@exception@std@@8
rdata$r	ENDS
;	COMDAT ??_R3bad_array_new_length@std@@8
rdata$r	SEGMENT
??_R3bad_array_new_length@std@@8 DD 00H			; std::bad_array_new_length::`RTTI Class Hierarchy Descriptor'
	DD	00H
	DD	03H
	DD	FLAT:??_R2bad_array_new_length@std@@8
rdata$r	ENDS
;	COMDAT ??_R4bad_array_new_length@std@@6B@
rdata$r	SEGMENT
??_R4bad_array_new_length@std@@6B@ DD 00H		; std::bad_array_new_length::`RTTI Complete Object Locator'
	DD	00H
	DD	00H
	DD	FLAT:??_R0?AVbad_array_new_length@std@@@8
	DD	FLAT:??_R3bad_array_new_length@std@@8
rdata$r	ENDS
;	COMDAT ??_R1A@?0A@EA@bad_alloc@std@@8
rdata$r	SEGMENT
??_R1A@?0A@EA@bad_alloc@std@@8 DD FLAT:??_R0?AVbad_alloc@std@@@8 ; std::bad_alloc::`RTTI Base Class Descriptor at (0,-1,0,64)'
	DD	01H
	DD	00H
	DD	0ffffffffH
	DD	00H
	DD	040H
	DD	FLAT:??_R3bad_alloc@std@@8
rdata$r	ENDS
;	COMDAT ??_R2bad_alloc@std@@8
rdata$r	SEGMENT
??_R2bad_alloc@std@@8 DD FLAT:??_R1A@?0A@EA@bad_alloc@std@@8 ; std::bad_alloc::`RTTI Base Class Array'
	DD	FLAT:??_R1A@?0A@EA@exception@std@@8
rdata$r	ENDS
;	COMDAT ??_R3bad_alloc@std@@8
rdata$r	SEGMENT
??_R3bad_alloc@std@@8 DD 00H				; std::bad_alloc::`RTTI Class Hierarchy Descriptor'
	DD	00H
	DD	02H
	DD	FLAT:??_R2bad_alloc@std@@8
rdata$r	ENDS
;	COMDAT ??_R4bad_alloc@std@@6B@
rdata$r	SEGMENT
??_R4bad_alloc@std@@6B@ DD 00H				; std::bad_alloc::`RTTI Complete Object Locator'
	DD	00H
	DD	00H
	DD	FLAT:??_R0?AVbad_alloc@std@@@8
	DD	FLAT:??_R3bad_alloc@std@@8
rdata$r	ENDS
;	COMDAT ??_R1A@?0A@EA@exception@std@@8
rdata$r	SEGMENT
??_R1A@?0A@EA@exception@std@@8 DD FLAT:??_R0?AVexception@std@@@8 ; std::exception::`RTTI Base Class Descriptor at (0,-1,0,64)'
	DD	00H
	DD	00H
	DD	0ffffffffH
	DD	00H
	DD	040H
	DD	FLAT:??_R3exception@std@@8
rdata$r	ENDS
;	COMDAT ??_R2exception@std@@8
rdata$r	SEGMENT
??_R2exception@std@@8 DD FLAT:??_R1A@?0A@EA@exception@std@@8 ; std::exception::`RTTI Base Class Array'
rdata$r	ENDS
;	COMDAT ??_R3exception@std@@8
rdata$r	SEGMENT
??_R3exception@std@@8 DD 00H				; std::exception::`RTTI Class Hierarchy Descriptor'
	DD	00H
	DD	01H
	DD	FLAT:??_R2exception@std@@8
rdata$r	ENDS
;	COMDAT ??_R4exception@std@@6B@
rdata$r	SEGMENT
??_R4exception@std@@6B@ DD 00H				; std::exception::`RTTI Complete Object Locator'
	DD	00H
	DD	00H
	DD	FLAT:??_R0?AVexception@std@@@8
	DD	FLAT:??_R3exception@std@@8
rdata$r	ENDS
;	COMDAT __CT??_R0?AVexception@std@@@8??0exception@std@@QAE@ABV01@@Z12
xdata$x	SEGMENT
__CT??_R0?AVexception@std@@@8??0exception@std@@QAE@ABV01@@Z12 DD 00H
	DD	FLAT:??_R0?AVexception@std@@@8
	DD	00H
	DD	0ffffffffH
	ORG $+4
	DD	0cH
	DD	FLAT:??0exception@std@@QAE@ABV01@@Z
xdata$x	ENDS
;	COMDAT ??_R0?AVexception@std@@@8
data$r	SEGMENT
??_R0?AVexception@std@@@8 DD FLAT:??_7type_info@@6B@	; std::exception `RTTI Type Descriptor'
	DD	00H
	DB	'.?AVexception@std@@', 00H
data$r	ENDS
;	COMDAT __CT??_R0?AVbad_alloc@std@@@8??0bad_alloc@std@@QAE@ABV01@@Z12
xdata$x	SEGMENT
__CT??_R0?AVbad_alloc@std@@@8??0bad_alloc@std@@QAE@ABV01@@Z12 DD 010H
	DD	FLAT:??_R0?AVbad_alloc@std@@@8
	DD	00H
	DD	0ffffffffH
	ORG $+4
	DD	0cH
	DD	FLAT:??0bad_alloc@std@@QAE@ABV01@@Z
xdata$x	ENDS
;	COMDAT ??_R0?AVbad_alloc@std@@@8
data$r	SEGMENT
??_R0?AVbad_alloc@std@@@8 DD FLAT:??_7type_info@@6B@	; std::bad_alloc `RTTI Type Descriptor'
	DD	00H
	DB	'.?AVbad_alloc@std@@', 00H
data$r	ENDS
;	COMDAT __CT??_R0?AVbad_array_new_length@std@@@8??0bad_array_new_length@std@@QAE@ABV01@@Z12
xdata$x	SEGMENT
__CT??_R0?AVbad_array_new_length@std@@@8??0bad_array_new_length@std@@QAE@ABV01@@Z12 DD 00H
	DD	FLAT:??_R0?AVbad_array_new_length@std@@@8
	DD	00H
	DD	0ffffffffH
	ORG $+4
	DD	0cH
	DD	FLAT:??0bad_array_new_length@std@@QAE@ABV01@@Z
xdata$x	ENDS
;	COMDAT ??_R0?AVbad_array_new_length@std@@@8
data$r	SEGMENT
??_R0?AVbad_array_new_length@std@@@8 DD FLAT:??_7type_info@@6B@ ; std::bad_array_new_length `RTTI Type Descriptor'
	DD	00H
	DB	'.?AVbad_array_new_length@std@@', 00H
data$r	ENDS
;	COMDAT __CTA3?AVbad_array_new_length@std@@
xdata$x	SEGMENT
__CTA3?AVbad_array_new_length@std@@ DD 03H
	DD	FLAT:__CT??_R0?AVbad_array_new_length@std@@@8??0bad_array_new_length@std@@QAE@ABV01@@Z12
	DD	FLAT:__CT??_R0?AVbad_alloc@std@@@8??0bad_alloc@std@@QAE@ABV01@@Z12
	DD	FLAT:__CT??_R0?AVexception@std@@@8??0exception@std@@QAE@ABV01@@Z12
xdata$x	ENDS
;	COMDAT __TI3?AVbad_array_new_length@std@@
xdata$x	SEGMENT
__TI3?AVbad_array_new_length@std@@ DD 00H
	DD	FLAT:??1bad_array_new_length@std@@UAE@XZ
	DD	00H
	DD	FLAT:__CTA3?AVbad_array_new_length@std@@
xdata$x	ENDS
;	COMDAT ??_C@_0BF@KINCDENJ@bad?5array?5new?5length@
CONST	SEGMENT
??_C@_0BF@KINCDENJ@bad?5array?5new?5length@ DB 'bad array new length', 00H ; `string'
CONST	ENDS
;	COMDAT ??_7bad_array_new_length@std@@6B@
CONST	SEGMENT
??_7bad_array_new_length@std@@6B@ DD FLAT:??_R4bad_array_new_length@std@@6B@ ; std::bad_array_new_length::`vftable'
	DD	FLAT:??_Ebad_array_new_length@std@@UAEPAXI@Z
	DD	FLAT:?what@exception@std@@UBEPBDXZ
CONST	ENDS
;	COMDAT ??_7bad_alloc@std@@6B@
CONST	SEGMENT
??_7bad_alloc@std@@6B@ DD FLAT:??_R4bad_alloc@std@@6B@	; std::bad_alloc::`vftable'
	DD	FLAT:??_Ebad_alloc@std@@UAEPAXI@Z
	DD	FLAT:?what@exception@std@@UBEPBDXZ
CONST	ENDS
;	COMDAT ??_C@_0BC@EOODALEL@Unknown?5exception@
CONST	SEGMENT
??_C@_0BC@EOODALEL@Unknown?5exception@ DB 'Unknown exception', 00H ; `string'
CONST	ENDS
;	COMDAT ??_7exception@std@@6B@
CONST	SEGMENT
??_7exception@std@@6B@ DD FLAT:??_R4exception@std@@6B@	; std::exception::`vftable'
	DD	FLAT:??_Eexception@std@@UAEPAXI@Z
	DD	FLAT:?what@exception@std@@UBEPBDXZ
CONST	ENDS
;	COMDAT xdata$x
xdata$x	SEGMENT
__ehfuncinfo$??1CGraphicObjectInstance@@UAE@XZ DD 019930522H
	DD	00H
	DD	00H
	DD	2 DUP(00H)
	DD	2 DUP(00H)
	DD	00H
	DD	05H
xdata$x	ENDS
;	COMDAT xdata$x
xdata$x	SEGMENT
__unwindtable$??0CGraphicObjectInstance@@QAE@XZ DD 0ffffffffH
	DD	FLAT:__unwindfunclet$??0CGraphicObjectInstance@@QAE@XZ$0
	DD	00H
	DD	FLAT:__unwindfunclet$??0CGraphicObjectInstance@@QAE@XZ$1
__ehfuncinfo$??0CGraphicObjectInstance@@QAE@XZ DD 019930522H
	DD	02H
	DD	FLAT:__unwindtable$??0CGraphicObjectInstance@@QAE@XZ
	DD	2 DUP(00H)
	DD	2 DUP(00H)
	DD	00H
	DD	01H
xdata$x	ENDS
; Function compile flags: /Ogtp
; File C:\Program Files (x86)\Microsoft Visual Studio\2019\Community\VC\Tools\MSVC\14.27.29110\include\xutility
;	COMDAT ??$_Copy_memmove@PAPAVCBaseCollisionInstance@@PAPAV1@@std@@YAPAPAVCBaseCollisionInstance@@PAPAV1@00@Z
_TEXT	SEGMENT
__First$ = 8						; size = 4
__Last$ = 12						; size = 4
__Dest$ = 16						; size = 4
??$_Copy_memmove@PAPAVCBaseCollisionInstance@@PAPAV1@@std@@YAPAPAVCBaseCollisionInstance@@PAPAV1@00@Z PROC ; std::_Copy_memmove<CBaseCollisionInstance * *,CBaseCollisionInstance * *>, COMDAT

; 4113 : _OutIt _Copy_memmove(_InIt _First, _InIt _Last, _OutIt _Dest) {

  00000	55		 push	 ebp
  00001	8b ec		 mov	 ebp, esp

; 4114 :     const char* const _First_ch = const_cast<const char*>(reinterpret_cast<const volatile char*>(_First));
; 4115 :     const char* const _Last_ch  = const_cast<const char*>(reinterpret_cast<const volatile char*>(_Last));
; 4116 :     char* const _Dest_ch        = const_cast<char*>(reinterpret_cast<volatile char*>(_Dest));
; 4117 :     const auto _Count           = static_cast<size_t>(_Last_ch - _First_ch);

  00003	8b 45 08	 mov	 eax, DWORD PTR __First$[ebp]
  00006	56		 push	 esi

; 4118 :     _CSTD memmove(_Dest_ch, _First_ch, _Count);

  00007	8b 75 10	 mov	 esi, DWORD PTR __Dest$[ebp]
  0000a	57		 push	 edi
  0000b	8b 7d 0c	 mov	 edi, DWORD PTR __Last$[ebp]
  0000e	2b f8		 sub	 edi, eax
  00010	57		 push	 edi
  00011	50		 push	 eax
  00012	56		 push	 esi
  00013	e8 00 00 00 00	 call	 _memmove
  00018	83 c4 0c	 add	 esp, 12			; 0000000cH

; 4119 :     return reinterpret_cast<_OutIt>(_Dest_ch + _Count);

  0001b	8d 04 37	 lea	 eax, DWORD PTR [edi+esi]
  0001e	5f		 pop	 edi
  0001f	5e		 pop	 esi

; 4120 : }

  00020	5d		 pop	 ebp
  00021	c3		 ret	 0
??$_Copy_memmove@PAPAVCBaseCollisionInstance@@PAPAV1@@std@@YAPAPAVCBaseCollisionInstance@@PAPAV1@00@Z ENDP ; std::_Copy_memmove<CBaseCollisionInstance * *,CBaseCollisionInstance * *>
_TEXT	ENDS
; Function compile flags: /Ogtp
; File C:\Program Files (x86)\Microsoft Visual Studio\2019\Community\VC\Tools\MSVC\14.27.29110\include\xmemory
;	COMDAT ??$_Uninitialized_move@PAPAVCBaseCollisionInstance@@V?$allocator@PAVCBaseCollisionInstance@@@std@@@std@@YAPAPAVCBaseCollisionInstance@@QAPAV1@0PAPAV1@AAV?$allocator@PAVCBaseCollisionInstance@@@0@@Z
_TEXT	SEGMENT
__First$ = 8						; size = 4
__Last$ = 12						; size = 4
__Dest$ = 16						; size = 4
__Al$ = 20						; size = 4
??$_Uninitialized_move@PAPAVCBaseCollisionInstance@@V?$allocator@PAVCBaseCollisionInstance@@@std@@@std@@YAPAPAVCBaseCollisionInstance@@QAPAV1@0PAPAV1@AAV?$allocator@PAVCBaseCollisionInstance@@@0@@Z PROC ; std::_Uninitialized_move<CBaseCollisionInstance * *,std::allocator<CBaseCollisionInstance *> >, COMDAT

; 1647 :     const _InIt _First, const _InIt _Last, _Alloc_ptr_t<_Alloc> _Dest, _Alloc& _Al) {

  00000	55		 push	 ebp
  00001	8b ec		 mov	 ebp, esp
  00003	53		 push	 ebx

; 1648 :     // move [_First, _Last) to raw _Dest, using _Al
; 1649 :     // note: only called internally from elsewhere in the STL
; 1650 :     using _Ptrval     = typename _Alloc::value_type*;
; 1651 :     auto _UFirst      = _Get_unwrapped(_First);
; 1652 :     const auto _ULast = _Get_unwrapped(_Last);
; 1653 :     if constexpr (conjunction_v<bool_constant<_Ptr_move_cat<decltype(_UFirst), _Ptrval>::_Really_trivial>,
; 1654 :                       _Uses_default_construct<_Alloc, _Ptrval, decltype(_STD move(*_UFirst))>>) {
; 1655 :         _Copy_memmove(_UFirst, _ULast, _Unfancy(_Dest));

  00004	8b 5d 10	 mov	 ebx, DWORD PTR __Dest$[ebp]
  00007	57		 push	 edi
  00008	8b 7d 0c	 mov	 edi, DWORD PTR __Last$[ebp]
  0000b	53		 push	 ebx
  0000c	57		 push	 edi
  0000d	ff 75 08	 push	 DWORD PTR __First$[ebp]
  00010	e8 00 00 00 00	 call	 ??$_Copy_memmove@PAPAVCBaseCollisionInstance@@PAPAV1@@std@@YAPAPAVCBaseCollisionInstance@@PAPAV1@00@Z ; std::_Copy_memmove<CBaseCollisionInstance * *,CBaseCollisionInstance * *>

; 1656 :         return _Dest + (_ULast - _UFirst);

  00015	2b 7d 08	 sub	 edi, DWORD PTR __First$[ebp]
  00018	83 c4 0c	 add	 esp, 12			; 0000000cH
  0001b	c1 ff 02	 sar	 edi, 2
  0001e	8d 04 bb	 lea	 eax, DWORD PTR [ebx+edi*4]
  00021	5f		 pop	 edi
  00022	5b		 pop	 ebx

; 1657 :     } else {
; 1658 :         _Uninitialized_backout_al<_Alloc> _Backout{_Dest, _Al};
; 1659 :         for (; _UFirst != _ULast; ++_UFirst) {
; 1660 :             _Backout._Emplace_back(_STD move(*_UFirst));
; 1661 :         }
; 1662 : 
; 1663 :         return _Backout._Release();
; 1664 :     }
; 1665 : }

  00023	5d		 pop	 ebp
  00024	c3		 ret	 0
??$_Uninitialized_move@PAPAVCBaseCollisionInstance@@V?$allocator@PAVCBaseCollisionInstance@@@std@@@std@@YAPAPAVCBaseCollisionInstance@@QAPAV1@0PAPAV1@AAV?$allocator@PAVCBaseCollisionInstance@@@0@@Z ENDP ; std::_Uninitialized_move<CBaseCollisionInstance * *,std::allocator<CBaseCollisionInstance *> >
_TEXT	ENDS
; Function compile flags: /Ogtp
; File C:\Program Files (x86)\Microsoft Visual Studio\2019\Community\VC\Tools\MSVC\14.27.29110\include\xmemory
;	COMDAT ??$_Destroy_range@V?$allocator@PAVCBaseCollisionInstance@@@std@@@std@@YAXPAPAVCBaseCollisionInstance@@QAPAV1@AAV?$allocator@PAVCBaseCollisionInstance@@@0@@Z
_TEXT	SEGMENT
__First$ = 8						; size = 4
__Last$ = 12						; size = 4
__Al$ = 16						; size = 4
??$_Destroy_range@V?$allocator@PAVCBaseCollisionInstance@@@std@@@std@@YAXPAPAVCBaseCollisionInstance@@QAPAV1@AAV?$allocator@PAVCBaseCollisionInstance@@@0@@Z PROC ; std::_Destroy_range<std::allocator<CBaseCollisionInstance *> >, COMDAT

; 956  :     // note that this is an optimization for debug mode codegen; in release mode the BE removes all of this
; 957  :     using _Ty = typename _Alloc::value_type;
; 958  :     if _CONSTEXPR_IF (!conjunction_v<is_trivially_destructible<_Ty>, _Uses_default_destroy<_Alloc, _Ty*>>) {
; 959  :         for (; _First != _Last; ++_First) {
; 960  :             allocator_traits<_Alloc>::destroy(_Al, _Unfancy(_First));
; 961  :         }
; 962  :     }
; 963  : }

  00000	c2 00 00	 ret	 0
??$_Destroy_range@V?$allocator@PAVCBaseCollisionInstance@@@std@@@std@@YAXPAPAVCBaseCollisionInstance@@QAPAV1@AAV?$allocator@PAVCBaseCollisionInstance@@@0@@Z ENDP ; std::_Destroy_range<std::allocator<CBaseCollisionInstance *> >
_TEXT	ENDS
; Function compile flags: /Ogtp
; File C:\Program Files (x86)\Microsoft Visual Studio\2019\Community\VC\Tools\MSVC\14.27.29110\include\vector
; File C:\Program Files (x86)\Microsoft Visual Studio\2019\Community\VC\Tools\MSVC\14.27.29110\include\xmemory
; File C:\Program Files (x86)\Microsoft Visual Studio\2019\Community\VC\Tools\MSVC\14.27.29110\include\vector
; File C:\Program Files (x86)\Microsoft Visual Studio\2019\Community\VC\Tools\MSVC\14.27.29110\include\xmemory
; File C:\Program Files (x86)\Microsoft Visual Studio\2019\Community\VC\Tools\MSVC\14.27.29110\include\vector
; File C:\Program Files (x86)\Microsoft Visual Studio\2019\Community\VC\Tools\MSVC\14.27.29110\include\xmemory
; File C:\Program Files (x86)\Microsoft Visual Studio\2019\Community\VC\Tools\MSVC\14.27.29110\include\vector
; File C:\Program Files (x86)\Microsoft Visual Studio\2019\Community\VC\Tools\MSVC\14.27.29110\include\xmemory
; File C:\Program Files (x86)\Microsoft Visual Studio\2019\Community\VC\Tools\MSVC\14.27.29110\include\vector
; File C:\Program Files (x86)\Microsoft Visual Studio\2019\Community\VC\Tools\MSVC\14.27.29110\include\xmemory
; File C:\Program Files (x86)\Microsoft Visual Studio\2019\Community\VC\Tools\MSVC\14.27.29110\include\vector
;	COMDAT ??$_Emplace_reallocate@PAVCBaseCollisionInstance@@@?$vector@PAVCBaseCollisionInstance@@V?$allocator@PAVCBaseCollisionInstance@@@std@@@std@@QAEPAPAVCBaseCollisionInstance@@QAPAV2@$$QAPAV2@@Z
_TEXT	SEGMENT
tv436 = -12						; size = 4
__Newsize$1$ = -8					; size = 4
tv435 = -4						; size = 4
__Whereptr$ = 8						; size = 4
_<_Val_0>$ = 12						; size = 4
??$_Emplace_reallocate@PAVCBaseCollisionInstance@@@?$vector@PAVCBaseCollisionInstance@@V?$allocator@PAVCBaseCollisionInstance@@@std@@@std@@QAEPAPAVCBaseCollisionInstance@@QAPAV2@$$QAPAV2@@Z PROC ; std::vector<CBaseCollisionInstance *,std::allocator<CBaseCollisionInstance *> >::_Emplace_reallocate<CBaseCollisionInstance *>, COMDAT
; _this$ = ecx

; 725  :     pointer _Emplace_reallocate(const pointer _Whereptr, _Valty&&... _Val) {

  00000	55		 push	 ebp
  00001	8b ec		 mov	 ebp, esp
  00003	83 ec 0c	 sub	 esp, 12			; 0000000cH
  00006	53		 push	 ebx

; 726  :         // reallocate and insert by perfectly forwarding _Val at _Whereptr
; 727  :         _Alty& _Al        = _Getal();
; 728  :         auto& _My_data    = _Mypair._Myval2;
; 729  :         pointer& _Myfirst = _My_data._Myfirst;
; 730  :         pointer& _Mylast  = _My_data._Mylast;
; 731  : 
; 732  :         _STL_INTERNAL_CHECK(_Mylast == _My_data._Myend); // check that we have no unused capacity
; 733  : 
; 734  :         const auto _Whereoff = static_cast<size_type>(_Whereptr - _Myfirst);

  00007	8b 5d 08	 mov	 ebx, DWORD PTR __Whereptr$[ebp]
  0000a	56		 push	 esi
  0000b	8b f1		 mov	 esi, ecx
  0000d	57		 push	 edi
  0000e	8b 16		 mov	 edx, DWORD PTR [esi]
  00010	2b da		 sub	 ebx, edx

; 735  :         const auto _Oldsize  = static_cast<size_type>(_Mylast - _Myfirst);

  00012	8b 46 04	 mov	 eax, DWORD PTR [esi+4]
  00015	2b c2		 sub	 eax, edx
  00017	c1 fb 02	 sar	 ebx, 2
  0001a	c1 f8 02	 sar	 eax, 2

; 736  : 
; 737  :         if (_Oldsize == max_size()) {

  0001d	3d ff ff ff 3f	 cmp	 eax, 1073741823		; 3fffffffH
  00022	0f 84 be 00 00
	00		 je	 $LN39@Emplace_re

; 1494 :         return static_cast<size_type>(_My_data._Myend - _My_data._Myfirst);

  00028	8b 4e 08	 mov	 ecx, DWORD PTR [esi+8]

; 739  :         }
; 740  : 
; 741  :         const size_type _Newsize     = _Oldsize + 1;

  0002b	8d 78 01	 lea	 edi, DWORD PTR [eax+1]

; 1494 :         return static_cast<size_type>(_My_data._Myend - _My_data._Myfirst);

  0002e	2b ca		 sub	 ecx, edx

; 739  :         }
; 740  : 
; 741  :         const size_type _Newsize     = _Oldsize + 1;

  00030	89 7d f8	 mov	 DWORD PTR __Newsize$1$[ebp], edi

; 1494 :         return static_cast<size_type>(_My_data._Myend - _My_data._Myfirst);

  00033	c1 f9 02	 sar	 ecx, 2

; 1619 :         if (_Oldcapacity > max_size() - _Oldcapacity / 2) {

  00036	b8 ff ff ff 3f	 mov	 eax, 1073741823		; 3fffffffH
  0003b	8b d1		 mov	 edx, ecx
  0003d	d1 ea		 shr	 edx, 1
  0003f	2b c2		 sub	 eax, edx
  00041	3b c8		 cmp	 ecx, eax
  00043	76 04		 jbe	 SHORT $LN12@Emplace_re

; 1620 :             return _Newsize; // geometric growth would overflow

  00045	8b c7		 mov	 eax, edi
  00047	eb 08		 jmp	 SHORT $LN13@Emplace_re
$LN12@Emplace_re:

; 1621 :         }
; 1622 : 
; 1623 :         const size_type _Geometric = _Oldcapacity + _Oldcapacity / 2;

  00049	8d 04 0a	 lea	 eax, DWORD PTR [edx+ecx]

; 1624 : 
; 1625 :         if (_Geometric < _Newsize) {

  0004c	3b c7		 cmp	 eax, edi
  0004e	0f 42 c7	 cmovb	 eax, edi
$LN13@Emplace_re:
; File C:\Program Files (x86)\Microsoft Visual Studio\2019\Community\VC\Tools\MSVC\14.27.29110\include\xmemory

; 60   :         if (_Count > _Max_possible) {

  00051	3d ff ff ff 3f	 cmp	 eax, 1073741823		; 3fffffffH
  00056	0f 87 8f 00 00
	00		 ja	 $LN40@Emplace_re

; 62   :         }
; 63   :     }
; 64   : 
; 65   :     return _Count * _Ty_size;

  0005c	c1 e0 02	 shl	 eax, 2

; 807  :         return static_cast<_Ty*>(_Allocate<_New_alignof<_Ty>>(_Get_size_of_n<sizeof(_Ty)>(_Count)));

  0005f	50		 push	 eax

; 65   :     return _Count * _Ty_size;

  00060	89 45 f4	 mov	 DWORD PTR tv436[ebp], eax

; 807  :         return static_cast<_Ty*>(_Allocate<_New_alignof<_Ty>>(_Get_size_of_n<sizeof(_Ty)>(_Count)));

  00063	e8 00 00 00 00	 call	 ??$_Allocate@$07U_Default_allocate_traits@std@@$0A@@std@@YAPAXI@Z ; std::_Allocate<8,std::_Default_allocate_traits,0>
; File C:\Program Files (x86)\Microsoft Visual Studio\2019\Community\VC\Tools\MSVC\14.27.29110\include\vector

; 749  :         _Alty_traits::construct(_Al, _Unfancy(_Newvec + _Whereoff), _STD forward<_Valty>(_Val)...);

  00068	8b 4d 0c	 mov	 ecx, DWORD PTR _<_Val_0>$[ebp]
; File C:\Program Files (x86)\Microsoft Visual Studio\2019\Community\VC\Tools\MSVC\14.27.29110\include\xmemory

; 807  :         return static_cast<_Ty*>(_Allocate<_New_alignof<_Ty>>(_Get_size_of_n<sizeof(_Ty)>(_Count)));

  0006b	8b f8		 mov	 edi, eax
; File C:\Program Files (x86)\Microsoft Visual Studio\2019\Community\VC\Tools\MSVC\14.27.29110\include\vector

; 749  :         _Alty_traits::construct(_Al, _Unfancy(_Newvec + _Whereoff), _STD forward<_Valty>(_Val)...);

  0006d	8d 04 9f	 lea	 eax, DWORD PTR [edi+ebx*4]
; File C:\Program Files (x86)\Microsoft Visual Studio\2019\Community\VC\Tools\MSVC\14.27.29110\include\xmemory

; 807  :         return static_cast<_Ty*>(_Allocate<_New_alignof<_Ty>>(_Get_size_of_n<sizeof(_Ty)>(_Count)));

  00070	83 c4 04	 add	 esp, 4
; File C:\Program Files (x86)\Microsoft Visual Studio\2019\Community\VC\Tools\MSVC\14.27.29110\include\vector

; 752  :         if (_Whereptr == _Mylast) { // at back, provide strong guarantee

  00073	8b 5d 08	 mov	 ebx, DWORD PTR __Whereptr$[ebp]
  00076	89 45 fc	 mov	 DWORD PTR tv435[ebp], eax
  00079	8b 09		 mov	 ecx, DWORD PTR [ecx]
  0007b	89 08		 mov	 DWORD PTR [eax], ecx
  0007d	8b 56 04	 mov	 edx, DWORD PTR [esi+4]
  00080	8b 0e		 mov	 ecx, DWORD PTR [esi]
  00082	3b da		 cmp	 ebx, edx
  00084	75 07		 jne	 SHORT $LN4@Emplace_re

; 753  :             _Umove_if_noexcept(_Myfirst, _Mylast, _Newvec);
; 754  :         } else { // provide basic guarantee

  00086	8b 5d fc	 mov	 ebx, DWORD PTR tv435[ebp]

; 1597 :         _Uninitialized_move(_First, _Last, _Dest, _Getal());

  00089	8b c7		 mov	 eax, edi

; 753  :             _Umove_if_noexcept(_Myfirst, _Mylast, _Newvec);
; 754  :         } else { // provide basic guarantee

  0008b	eb 17		 jmp	 SHORT $LN5@Emplace_re
$LN4@Emplace_re:

; 1592 :         return _Uninitialized_move(_First, _Last, _Dest, _Getal());

  0008d	56		 push	 esi
  0008e	57		 push	 edi
  0008f	53		 push	 ebx
  00090	51		 push	 ecx
  00091	e8 00 00 00 00	 call	 ??$_Uninitialized_move@PAPAVCBaseCollisionInstance@@V?$allocator@PAVCBaseCollisionInstance@@@std@@@std@@YAPAPAVCBaseCollisionInstance@@QAPAV1@0PAPAV1@AAV?$allocator@PAVCBaseCollisionInstance@@@0@@Z ; std::_Uninitialized_move<CBaseCollisionInstance * *,std::allocator<CBaseCollisionInstance *> >
  00096	8b 56 04	 mov	 edx, DWORD PTR [esi+4]
  00099	8b cb		 mov	 ecx, ebx

; 755  :             _Umove(_Myfirst, _Whereptr, _Newvec);
; 756  :             _Constructed_first = _Newvec;
; 757  :             _Umove(_Whereptr, _Mylast, _Newvec + _Whereoff + 1);

  0009b	8b 5d fc	 mov	 ebx, DWORD PTR tv435[ebp]

; 1592 :         return _Uninitialized_move(_First, _Last, _Dest, _Getal());

  0009e	83 c4 10	 add	 esp, 16			; 00000010H

; 755  :             _Umove(_Myfirst, _Whereptr, _Newvec);
; 756  :             _Constructed_first = _Newvec;
; 757  :             _Umove(_Whereptr, _Mylast, _Newvec + _Whereoff + 1);

  000a1	8d 43 04	 lea	 eax, DWORD PTR [ebx+4]
$LN5@Emplace_re:
  000a4	56		 push	 esi
  000a5	50		 push	 eax
  000a6	52		 push	 edx
  000a7	51		 push	 ecx
  000a8	e8 00 00 00 00	 call	 ??$_Uninitialized_move@PAPAVCBaseCollisionInstance@@V?$allocator@PAVCBaseCollisionInstance@@@std@@@std@@YAPAPAVCBaseCollisionInstance@@QAPAV1@0PAPAV1@AAV?$allocator@PAVCBaseCollisionInstance@@@0@@Z ; std::_Uninitialized_move<CBaseCollisionInstance * *,std::allocator<CBaseCollisionInstance *> >

; 1675 :         if (_Myfirst) { // destroy and deallocate old array

  000ad	8b 0e		 mov	 ecx, DWORD PTR [esi]

; 755  :             _Umove(_Myfirst, _Whereptr, _Newvec);
; 756  :             _Constructed_first = _Newvec;
; 757  :             _Umove(_Whereptr, _Mylast, _Newvec + _Whereoff + 1);

  000af	83 c4 10	 add	 esp, 16			; 00000010H

; 1675 :         if (_Myfirst) { // destroy and deallocate old array

  000b2	85 c9		 test	 ecx, ecx
  000b4	74 12		 je	 SHORT $LN33@Emplace_re

; 1676 :             _Destroy(_Myfirst, _Mylast);
; 1677 :             _Getal().deallocate(_Myfirst, static_cast<size_type>(_Myend - _Myfirst));

  000b6	8b 46 08	 mov	 eax, DWORD PTR [esi+8]
  000b9	2b c1		 sub	 eax, ecx
; File C:\Program Files (x86)\Microsoft Visual Studio\2019\Community\VC\Tools\MSVC\14.27.29110\include\xmemory

; 803  :         _Deallocate<_New_alignof<_Ty>>(_Ptr, sizeof(_Ty) * _Count);

  000bb	83 e0 fc	 and	 eax, -4			; fffffffcH
  000be	50		 push	 eax
  000bf	51		 push	 ecx
  000c0	e8 00 00 00 00	 call	 ??$_Deallocate@$07$0A@@std@@YAXPAXI@Z ; std::_Deallocate<8,0>
  000c5	83 c4 08	 add	 esp, 8
$LN33@Emplace_re:
; File C:\Program Files (x86)\Microsoft Visual Studio\2019\Community\VC\Tools\MSVC\14.27.29110\include\vector

; 1681 :         _Mylast  = _Newvec + _Newsize;

  000c8	8b 4d f8	 mov	 ecx, DWORD PTR __Newsize$1$[ebp]

; 758  :         }
; 759  :         _CATCH_ALL
; 760  :         _Destroy(_Constructed_first, _Constructed_last);
; 761  :         _Al.deallocate(_Newvec, _Newcapacity);
; 762  :         _RERAISE;
; 763  :         _CATCH_END
; 764  : 
; 765  :         _Change_array(_Newvec, _Newsize, _Newcapacity);
; 766  :         return _Newvec + _Whereoff;

  000cb	8b c3		 mov	 eax, ebx

; 1680 :         _Myfirst = _Newvec;

  000cd	89 3e		 mov	 DWORD PTR [esi], edi

; 1681 :         _Mylast  = _Newvec + _Newsize;

  000cf	8d 0c 8f	 lea	 ecx, DWORD PTR [edi+ecx*4]
  000d2	89 4e 04	 mov	 DWORD PTR [esi+4], ecx

; 1682 :         _Myend   = _Newvec + _Newcapacity;

  000d5	8b 4d f4	 mov	 ecx, DWORD PTR tv436[ebp]
  000d8	03 cf		 add	 ecx, edi

; 758  :         }
; 759  :         _CATCH_ALL
; 760  :         _Destroy(_Constructed_first, _Constructed_last);
; 761  :         _Al.deallocate(_Newvec, _Newcapacity);
; 762  :         _RERAISE;
; 763  :         _CATCH_END
; 764  : 
; 765  :         _Change_array(_Newvec, _Newsize, _Newcapacity);
; 766  :         return _Newvec + _Whereoff;

  000da	5f		 pop	 edi

; 1682 :         _Myend   = _Newvec + _Newcapacity;

  000db	89 4e 08	 mov	 DWORD PTR [esi+8], ecx

; 758  :         }
; 759  :         _CATCH_ALL
; 760  :         _Destroy(_Constructed_first, _Constructed_last);
; 761  :         _Al.deallocate(_Newvec, _Newcapacity);
; 762  :         _RERAISE;
; 763  :         _CATCH_END
; 764  : 
; 765  :         _Change_array(_Newvec, _Newsize, _Newcapacity);
; 766  :         return _Newvec + _Whereoff;

  000de	5e		 pop	 esi
  000df	5b		 pop	 ebx

; 767  :     }

  000e0	8b e5		 mov	 esp, ebp
  000e2	5d		 pop	 ebp
  000e3	c2 08 00	 ret	 8
$LN39@Emplace_re:

; 738  :             _Xlength();

  000e6	e8 00 00 00 00	 call	 ?_Xlength@?$vector@PAVCBaseCollisionInstance@@V?$allocator@PAVCBaseCollisionInstance@@@std@@@std@@CAXXZ ; std::vector<CBaseCollisionInstance *,std::allocator<CBaseCollisionInstance *> >::_Xlength
$LN40@Emplace_re:
; File C:\Program Files (x86)\Microsoft Visual Studio\2019\Community\VC\Tools\MSVC\14.27.29110\include\xmemory

; 61   :             _Throw_bad_array_new_length(); // multiply overflow

  000eb	e8 00 00 00 00	 call	 ?_Throw_bad_array_new_length@std@@YAXXZ ; std::_Throw_bad_array_new_length
$LN37@Emplace_re:
  000f0	cc		 int	 3
??$_Emplace_reallocate@PAVCBaseCollisionInstance@@@?$vector@PAVCBaseCollisionInstance@@V?$allocator@PAVCBaseCollisionInstance@@@std@@@std@@QAEPAPAVCBaseCollisionInstance@@QAPAV2@$$QAPAV2@@Z ENDP ; std::vector<CBaseCollisionInstance *,std::allocator<CBaseCollisionInstance *> >::_Emplace_reallocate<CBaseCollisionInstance *>
_TEXT	ENDS
; Function compile flags: /Ogtp
;	COMDAT ??_GCGraphicObjectInstance@@UAEPAXI@Z
_TEXT	SEGMENT
___flags$ = 8						; size = 4
??_GCGraphicObjectInstance@@UAEPAXI@Z PROC		; CGraphicObjectInstance::`scalar deleting destructor', COMDAT
; _this$ = ecx
  00000	55		 push	 ebp
  00001	8b ec		 mov	 ebp, esp
  00003	56		 push	 esi
  00004	8b f1		 mov	 esi, ecx
  00006	e8 00 00 00 00	 call	 ??1CGraphicObjectInstance@@UAE@XZ ; CGraphicObjectInstance::~CGraphicObjectInstance
  0000b	f6 45 08 01	 test	 BYTE PTR ___flags$[ebp], 1
  0000f	74 0e		 je	 SHORT $LN4@scalar
  00011	68 48 02 00 00	 push	 584			; 00000248H
  00016	56		 push	 esi
  00017	e8 00 00 00 00	 call	 ??3@YAXPAXI@Z		; operator delete
  0001c	83 c4 08	 add	 esp, 8
$LN4@scalar:
  0001f	8b c6		 mov	 eax, esi
  00021	5e		 pop	 esi
  00022	5d		 pop	 ebp
  00023	c2 04 00	 ret	 4
??_GCGraphicObjectInstance@@UAEPAXI@Z ENDP		; CGraphicObjectInstance::`scalar deleting destructor'
_TEXT	ENDS
; Function compile flags: /Ogtp
; File C:\DS Project\DS Files\Source\ClientSource\Client\EterLib\GrpObjectInstance.cpp
;	COMDAT ?GetObjectHeight@CGraphicObjectInstance@@QAE_NMMPAM@Z
_TEXT	SEGMENT
_fX$ = 8						; size = 4
_fY$ = 12						; size = 4
_pfHeight$ = 16						; size = 4
?GetObjectHeight@CGraphicObjectInstance@@QAE_NMMPAM@Z PROC ; CGraphicObjectInstance::GetObjectHeight, COMDAT
; _this$ = ecx

; 473  : {

  00000	55		 push	 ebp
  00001	8b ec		 mov	 ebp, esp

; 474  : 	if (!m_pHeightAttributeInstance)

  00003	83 b9 44 02 00
	00 00		 cmp	 DWORD PTR [ecx+580], 0
  0000a	75 06		 jne	 SHORT $LN2@GetObjectH

; 475  : 		return false;

  0000c	32 c0		 xor	 al, al

; 478  : }

  0000e	5d		 pop	 ebp
  0000f	c2 0c 00	 ret	 12			; 0000000cH
$LN2@GetObjectH:

; 476  : 
; 477  : 	return OnGetObjectHeight(fX, fY, pfHeight);

  00012	ff 75 10	 push	 DWORD PTR _pfHeight$[ebp]
  00015	8b 01		 mov	 eax, DWORD PTR [ecx]
  00017	f3 0f 10 45 0c	 movss	 xmm0, DWORD PTR _fY$[ebp]
  0001c	83 ec 08	 sub	 esp, 8
  0001f	8b 40 38	 mov	 eax, DWORD PTR [eax+56]
  00022	f3 0f 11 44 24
	04		 movss	 DWORD PTR [esp+4], xmm0
  00028	f3 0f 10 45 08	 movss	 xmm0, DWORD PTR _fX$[ebp]
  0002d	f3 0f 11 04 24	 movss	 DWORD PTR [esp], xmm0
  00032	ff d0		 call	 eax

; 478  : }

  00034	5d		 pop	 ebp
  00035	c2 0c 00	 ret	 12			; 0000000cH
?GetObjectHeight@CGraphicObjectInstance@@QAE_NMMPAM@Z ENDP ; CGraphicObjectInstance::GetObjectHeight
_TEXT	ENDS
; Function compile flags: /Ogtp
; File C:\DS Project\DS Files\Source\ClientSource\Client\EterLib\GrpObjectInstance.cpp
;	COMDAT ?IsObjectHeight@CGraphicObjectInstance@@QAE_NXZ
_TEXT	SEGMENT
?IsObjectHeight@CGraphicObjectInstance@@QAE_NXZ PROC	; CGraphicObjectInstance::IsObjectHeight, COMDAT
; _this$ = ecx

; 466  : 	if (m_pHeightAttributeInstance)

  00000	83 b9 44 02 00
	00 00		 cmp	 DWORD PTR [ecx+580], 0
  00007	0f 95 c0	 setne	 al

; 467  : 		return true;
; 468  : 
; 469  : 	return false;
; 470  : }

  0000a	c3		 ret	 0
?IsObjectHeight@CGraphicObjectInstance@@QAE_NXZ ENDP	; CGraphicObjectInstance::IsObjectHeight
_TEXT	ENDS
; Function compile flags: /Ogtp
; File C:\DS Project\DS Files\Source\ClientSource\Client\EterLib\GrpObjectInstance.cpp
;	COMDAT ?UpdateHeightInstance@CGraphicObjectInstance@@QAEXPAVCAttributeInstance@@@Z
_TEXT	SEGMENT
_pAttributeInstance$ = 8				; size = 4
?UpdateHeightInstance@CGraphicObjectInstance@@QAEXPAVCAttributeInstance@@@Z PROC ; CGraphicObjectInstance::UpdateHeightInstance, COMDAT
; _this$ = ecx

; 459  : {

  00000	55		 push	 ebp
  00001	8b ec		 mov	 ebp, esp
  00003	56		 push	 esi
  00004	8b f1		 mov	 esi, ecx

; 460  : 	ClearHeightInstance();

  00006	e8 00 00 00 00	 call	 ?ClearHeightInstance@CGraphicObjectInstance@@QAEXXZ ; CGraphicObjectInstance::ClearHeightInstance

; 461  : 	OnUpdateHeighInstance(pAttributeInstance);

  0000b	8b 06		 mov	 eax, DWORD PTR [esi]
  0000d	8b ce		 mov	 ecx, esi
  0000f	ff 75 08	 push	 DWORD PTR _pAttributeInstance$[ebp]
  00012	ff 50 34	 call	 DWORD PTR [eax+52]
  00015	5e		 pop	 esi

; 462  : }

  00016	5d		 pop	 ebp
  00017	c2 04 00	 ret	 4
?UpdateHeightInstance@CGraphicObjectInstance@@QAEXPAVCAttributeInstance@@@Z ENDP ; CGraphicObjectInstance::UpdateHeightInstance
_TEXT	ENDS
; Function compile flags: /Ogtp
; File C:\DS Project\DS Files\Source\ClientSource\Client\EterLib\GrpObjectInstance.cpp
;	COMDAT ?ClearHeightInstance@CGraphicObjectInstance@@QAEXXZ
_TEXT	SEGMENT
?ClearHeightInstance@CGraphicObjectInstance@@QAEXXZ PROC ; CGraphicObjectInstance::ClearHeightInstance, COMDAT
; _this$ = ecx

; 455  : 	m_pHeightAttributeInstance = NULL;

  00000	c7 81 44 02 00
	00 00 00 00 00	 mov	 DWORD PTR [ecx+580], 0

; 456  : }

  0000a	c3		 ret	 0
?ClearHeightInstance@CGraphicObjectInstance@@QAEXXZ ENDP ; CGraphicObjectInstance::ClearHeightInstance
_TEXT	ENDS
; Function compile flags: /Ogtp
; File C:\DS Project\DS Files\Source\ClientSource\Client\EterLib\GrpObjectInstance.cpp
;	COMDAT ?SetHeightInstance@CGraphicObjectInstance@@QAEXPAVCAttributeInstance@@@Z
_TEXT	SEGMENT
_pAttributeInstance$ = 8				; size = 4
?SetHeightInstance@CGraphicObjectInstance@@QAEXPAVCAttributeInstance@@@Z PROC ; CGraphicObjectInstance::SetHeightInstance, COMDAT
; _this$ = ecx

; 449  : {

  00000	55		 push	 ebp
  00001	8b ec		 mov	 ebp, esp

; 450  : 	m_pHeightAttributeInstance = pAttributeInstance;

  00003	8b 45 08	 mov	 eax, DWORD PTR _pAttributeInstance$[ebp]
  00006	89 81 44 02 00
	00		 mov	 DWORD PTR [ecx+580], eax

; 451  : }

  0000c	5d		 pop	 ebp
  0000d	c2 04 00	 ret	 4
?SetHeightInstance@CGraphicObjectInstance@@QAEXPAVCAttributeInstance@@@Z ENDP ; CGraphicObjectInstance::SetHeightInstance
_TEXT	ENDS
; Function compile flags: /Ogtp
; File C:\DS Project\DS Files\Source\ClientSource\Client\EterLib\GrpObjectInstance.cpp
; File C:\Program Files (x86)\Microsoft Visual Studio\2019\Community\VC\Tools\MSVC\14.27.29110\include\vector
; File C:\DS Project\DS Files\Source\ClientSource\Client\EterLib\GrpObjectInstance.cpp
; File C:\Program Files (x86)\Microsoft Visual Studio\2019\Community\VC\Tools\MSVC\14.27.29110\include\vector
; File C:\DS Project\DS Files\Source\ClientSource\Client\EterLib\GrpObjectInstance.cpp
;	COMDAT ?GetCollisionInstanceData@CGraphicObjectInstance@@QAEPAVCBaseCollisionInstance@@K@Z
_TEXT	SEGMENT
_dwIndex$ = 8						; size = 4
?GetCollisionInstanceData@CGraphicObjectInstance@@QAEPAVCBaseCollisionInstance@@K@Z PROC ; CGraphicObjectInstance::GetCollisionInstanceData, COMDAT
; _this$ = ecx

; 437  : {

  00000	55		 push	 ebp
  00001	8b ec		 mov	 ebp, esp
; File C:\Program Files (x86)\Microsoft Visual Studio\2019\Community\VC\Tools\MSVC\14.27.29110\include\vector

; 1484 :         return static_cast<size_type>(_My_data._Mylast - _My_data._Myfirst);

  00003	8b 81 3c 02 00
	00		 mov	 eax, DWORD PTR [ecx+572]
  00009	8b 91 38 02 00
	00		 mov	 edx, DWORD PTR [ecx+568]
  0000f	2b c2		 sub	 eax, edx
; File C:\DS Project\DS Files\Source\ClientSource\Client\EterLib\GrpObjectInstance.cpp

; 438  : 	if (dwIndex>m_StaticCollisionInstanceVector.size())

  00011	8b 4d 08	 mov	 ecx, DWORD PTR _dwIndex$[ebp]
; File C:\Program Files (x86)\Microsoft Visual Studio\2019\Community\VC\Tools\MSVC\14.27.29110\include\vector

; 1484 :         return static_cast<size_type>(_My_data._Mylast - _My_data._Myfirst);

  00014	c1 f8 02	 sar	 eax, 2
; File C:\DS Project\DS Files\Source\ClientSource\Client\EterLib\GrpObjectInstance.cpp

; 438  : 	if (dwIndex>m_StaticCollisionInstanceVector.size())

  00017	3b c8		 cmp	 ecx, eax
  00019	76 06		 jbe	 SHORT $LN2@GetCollisi

; 439  : 	{
; 440  : 		return 0;

  0001b	33 c0		 xor	 eax, eax

; 443  : }

  0001d	5d		 pop	 ebp
  0001e	c2 04 00	 ret	 4
$LN2@GetCollisi:

; 441  : 	}
; 442  : 	return m_StaticCollisionInstanceVector[dwIndex];

  00021	8b 04 8a	 mov	 eax, DWORD PTR [edx+ecx*4]

; 443  : }

  00024	5d		 pop	 ebp
  00025	c2 04 00	 ret	 4
?GetCollisionInstanceData@CGraphicObjectInstance@@QAEPAVCBaseCollisionInstance@@K@Z ENDP ; CGraphicObjectInstance::GetCollisionInstanceData
_TEXT	ENDS
; Function compile flags: /Ogtp
; File C:\DS Project\DS Files\Source\ClientSource\Client\EterLib\GrpObjectInstance.cpp
; File C:\Program Files (x86)\Microsoft Visual Studio\2019\Community\VC\Tools\MSVC\14.27.29110\include\vector
; File C:\DS Project\DS Files\Source\ClientSource\Client\EterLib\GrpObjectInstance.cpp
;	COMDAT ?GetCollisionInstanceCount@CGraphicObjectInstance@@QAEKXZ
_TEXT	SEGMENT
?GetCollisionInstanceCount@CGraphicObjectInstance@@QAEKXZ PROC ; CGraphicObjectInstance::GetCollisionInstanceCount, COMDAT
; _this$ = ecx
; File C:\Program Files (x86)\Microsoft Visual Studio\2019\Community\VC\Tools\MSVC\14.27.29110\include\vector

; 1484 :         return static_cast<size_type>(_My_data._Mylast - _My_data._Myfirst);

  00000	8b 81 3c 02 00
	00		 mov	 eax, DWORD PTR [ecx+572]
  00006	2b 81 38 02 00
	00		 sub	 eax, DWORD PTR [ecx+568]
  0000c	c1 f8 02	 sar	 eax, 2
; File C:\DS Project\DS Files\Source\ClientSource\Client\EterLib\GrpObjectInstance.cpp

; 434  : }

  0000f	c3		 ret	 0
?GetCollisionInstanceCount@CGraphicObjectInstance@@QAEKXZ ENDP ; CGraphicObjectInstance::GetCollisionInstanceCount
_TEXT	ENDS
; Function compile flags: /Ogtp
; File C:\Program Files (x86)\Microsoft Visual Studio\2019\Community\VC\Tools\MSVC\14.27.29110\include\vector
;	COMDAT ?_Xlength@?$vector@PAVCBaseCollisionInstance@@V?$allocator@PAVCBaseCollisionInstance@@@std@@@std@@CAXXZ
_TEXT	SEGMENT
?_Xlength@?$vector@PAVCBaseCollisionInstance@@V?$allocator@PAVCBaseCollisionInstance@@@std@@@std@@CAXXZ PROC ; std::vector<CBaseCollisionInstance *,std::allocator<CBaseCollisionInstance *> >::_Xlength, COMDAT

; 1704 :         _Xlength_error("vector too long");

  00000	68 00 00 00 00	 push	 OFFSET ??_C@_0BA@FOIKENOD@vector?5too?5long@
  00005	e8 00 00 00 00	 call	 ?_Xlength_error@std@@YAXPBD@Z ; std::_Xlength_error
$LN3@Xlength:
  0000a	cc		 int	 3
?_Xlength@?$vector@PAVCBaseCollisionInstance@@V?$allocator@PAVCBaseCollisionInstance@@@std@@@std@@CAXXZ ENDP ; std::vector<CBaseCollisionInstance *,std::allocator<CBaseCollisionInstance *> >::_Xlength
_TEXT	ENDS
; Function compile flags: /Ogtp
; File C:\Program Files (x86)\Microsoft Visual Studio\2019\Community\VC\Tools\MSVC\14.27.29110\include\vector
; File C:\Program Files (x86)\Microsoft Visual Studio\2019\Community\VC\Tools\MSVC\14.27.29110\include\xmemory
; File C:\Program Files (x86)\Microsoft Visual Studio\2019\Community\VC\Tools\MSVC\14.27.29110\include\vector
; File C:\Program Files (x86)\Microsoft Visual Studio\2019\Community\VC\Tools\MSVC\14.27.29110\include\xmemory
; File C:\Program Files (x86)\Microsoft Visual Studio\2019\Community\VC\Tools\MSVC\14.27.29110\include\vector
;	COMDAT ??1?$vector@PAVCBaseCollisionInstance@@V?$allocator@PAVCBaseCollisionInstance@@@std@@@std@@QAE@XZ
_TEXT	SEGMENT
??1?$vector@PAVCBaseCollisionInstance@@V?$allocator@PAVCBaseCollisionInstance@@@std@@@std@@QAE@XZ PROC ; std::vector<CBaseCollisionInstance *,std::allocator<CBaseCollisionInstance *> >::~vector<CBaseCollisionInstance *,std::allocator<CBaseCollisionInstance *> >, COMDAT
; _this$ = ecx

; 672  :     ~vector() noexcept {

  00000	56		 push	 esi
  00001	8b f1		 mov	 esi, ecx

; 1693 :         if (_Myfirst) { // destroy and deallocate old array

  00003	8b 0e		 mov	 ecx, DWORD PTR [esi]
  00005	85 c9		 test	 ecx, ecx
  00007	74 26		 je	 SHORT $LN4@vector

; 1694 :             _Destroy(_Myfirst, _Mylast);
; 1695 :             _Getal().deallocate(_Myfirst, static_cast<size_type>(_Myend - _Myfirst));

  00009	8b 46 08	 mov	 eax, DWORD PTR [esi+8]
  0000c	2b c1		 sub	 eax, ecx
; File C:\Program Files (x86)\Microsoft Visual Studio\2019\Community\VC\Tools\MSVC\14.27.29110\include\xmemory

; 803  :         _Deallocate<_New_alignof<_Ty>>(_Ptr, sizeof(_Ty) * _Count);

  0000e	83 e0 fc	 and	 eax, -4			; fffffffcH
  00011	50		 push	 eax
  00012	51		 push	 ecx
  00013	e8 00 00 00 00	 call	 ??$_Deallocate@$07$0A@@std@@YAXPAXI@Z ; std::_Deallocate<8,0>
; File C:\Program Files (x86)\Microsoft Visual Studio\2019\Community\VC\Tools\MSVC\14.27.29110\include\vector

; 1697 :             _Myfirst = pointer();

  00018	c7 06 00 00 00
	00		 mov	 DWORD PTR [esi], 0
; File C:\Program Files (x86)\Microsoft Visual Studio\2019\Community\VC\Tools\MSVC\14.27.29110\include\xmemory

; 803  :         _Deallocate<_New_alignof<_Ty>>(_Ptr, sizeof(_Ty) * _Count);

  0001e	83 c4 08	 add	 esp, 8
; File C:\Program Files (x86)\Microsoft Visual Studio\2019\Community\VC\Tools\MSVC\14.27.29110\include\vector

; 1698 :             _Mylast  = pointer();

  00021	c7 46 04 00 00
	00 00		 mov	 DWORD PTR [esi+4], 0

; 1699 :             _Myend   = pointer();

  00028	c7 46 08 00 00
	00 00		 mov	 DWORD PTR [esi+8], 0
$LN4@vector:
  0002f	5e		 pop	 esi

; 673  :         _Tidy();
; 674  : #if _ITERATOR_DEBUG_LEVEL != 0
; 675  :         auto&& _Alproxy = _GET_PROXY_ALLOCATOR(_Alty, _Getal());
; 676  :         _Delete_plain_internal(_Alproxy, _STD exchange(_Mypair._Myval2._Myproxy, nullptr));
; 677  : #endif // _ITERATOR_DEBUG_LEVEL != 0
; 678  :     }

  00030	c3		 ret	 0
??1?$vector@PAVCBaseCollisionInstance@@V?$allocator@PAVCBaseCollisionInstance@@@std@@@std@@QAE@XZ ENDP ; std::vector<CBaseCollisionInstance *,std::allocator<CBaseCollisionInstance *> >::~vector<CBaseCollisionInstance *,std::allocator<CBaseCollisionInstance *> >
_TEXT	ENDS
; Function compile flags: /Ogtp
; File C:\DS Project\DS Files\Source\ClientSource\Client\EterLib\GrpObjectInstance.cpp
;	COMDAT ?UpdateCollisionData@CGraphicObjectInstance@@QAEXPBV?$vector@VCStaticCollisionData@@V?$allocator@VCStaticCollisionData@@@std@@@std@@@Z
_TEXT	SEGMENT
_pscdVector$ = 8					; size = 4
?UpdateCollisionData@CGraphicObjectInstance@@QAEXPBV?$vector@VCStaticCollisionData@@V?$allocator@VCStaticCollisionData@@@std@@@std@@@Z PROC ; CGraphicObjectInstance::UpdateCollisionData, COMDAT
; _this$ = ecx

; 425  : {

  00000	55		 push	 ebp
  00001	8b ec		 mov	 ebp, esp
  00003	56		 push	 esi
  00004	8b f1		 mov	 esi, ecx

; 426  : 
; 427  : 	ClearCollision();

  00006	e8 00 00 00 00	 call	 ?ClearCollision@CGraphicObjectInstance@@QAEXXZ ; CGraphicObjectInstance::ClearCollision

; 428  : 	OnUpdateCollisionData(pscdVector);

  0000b	8b 06		 mov	 eax, DWORD PTR [esi]
  0000d	8b ce		 mov	 ecx, esi
  0000f	ff 75 08	 push	 DWORD PTR _pscdVector$[ebp]
  00012	ff 50 30	 call	 DWORD PTR [eax+48]
  00015	5e		 pop	 esi

; 429  : }

  00016	5d		 pop	 ebp
  00017	c2 04 00	 ret	 4
?UpdateCollisionData@CGraphicObjectInstance@@QAEXPBV?$vector@VCStaticCollisionData@@V?$allocator@VCStaticCollisionData@@@std@@@std@@@Z ENDP ; CGraphicObjectInstance::UpdateCollisionData
_TEXT	ENDS
; Function compile flags: /Ogtp
; File C:\DS Project\DS Files\Source\ClientSource\Client\EterLib\GrpObjectInstance.cpp
; File C:\Program Files (x86)\Microsoft Visual Studio\2019\Community\VC\Tools\MSVC\14.27.29110\include\vector
; File C:\DS Project\DS Files\Source\ClientSource\Client\EterLib\GrpObjectInstance.cpp
; File C:\DS Project\DS Files\Source\ClientSource\Client\EterLib\CollisionData.h
; File C:\DS Project\DS Files\Source\ClientSource\Client\EterLib\GrpObjectInstance.cpp
; File C:\Program Files (x86)\Microsoft Visual Studio\2019\Community\VC\Tools\MSVC\14.27.29110\include\vector
; File C:\DS Project\DS Files\Source\ClientSource\Client\EterLib\GrpObjectInstance.cpp
; File C:\DS Project\DS Files\Source\ClientSource\extern\include\d3dx8math.inl
; File C:\DS Project\DS Files\Source\ClientSource\Client\EterLib\GrpObjectInstance.cpp
; File C:\DS Project\DS Files\Source\ClientSource\extern\include\d3dx8math.inl
; File C:\DS Project\DS Files\Source\ClientSource\Client\EterLib\GrpObjectInstance.cpp
; File C:\DS Project\DS Files\Source\ClientSource\Client\EterLib\CollisionData.h
; File C:\DS Project\DS Files\Source\ClientSource\Client\EterLib\GrpObjectInstance.cpp
;	COMDAT ?GetCollisionMovementAdjust@CGraphicObjectInstance@@QBE?AUD3DXVECTOR3@@ABUCDynamicSphereInstance@@@Z
_TEXT	SEGMENT
___$ReturnUdt$ = 8					; size = 4
_s$ = 12						; size = 4
?GetCollisionMovementAdjust@CGraphicObjectInstance@@QBE?AUD3DXVECTOR3@@ABUCDynamicSphereInstance@@@Z PROC ; CGraphicObjectInstance::GetCollisionMovementAdjust, COMDAT
; _this$ = ecx

; 413  : {

  00000	55		 push	 ebp
  00001	8b ec		 mov	 ebp, esp
  00003	53		 push	 ebx
  00004	56		 push	 esi
  00005	57		 push	 edi
  00006	8b f9		 mov	 edi, ecx
; File C:\Program Files (x86)\Microsoft Visual Studio\2019\Community\VC\Tools\MSVC\14.27.29110\include\vector

; 42   :     _Vector_const_iterator(_Tptr _Parg, const _Container_base* _Pvector) noexcept : _Ptr(_Parg) {

  00008	8b b7 38 02 00
	00		 mov	 esi, DWORD PTR [edi+568]
  0000e	3b b7 3c 02 00
	00		 cmp	 esi, DWORD PTR [edi+572]
; File C:\DS Project\DS Files\Source\ClientSource\Client\EterLib\GrpObjectInstance.cpp

; 415  : 	for(it = m_StaticCollisionInstanceVector.begin();it!=m_StaticCollisionInstanceVector.end();++it)

  00014	74 23		 je	 SHORT $LN3@GetCollisi
  00016	8b 5d 0c	 mov	 ebx, DWORD PTR _s$[ebp]
  00019	0f 1f 80 00 00
	00 00		 npad	 7
$LL4@GetCollisi:

; 417  : 		if ((*it)->MovementCollisionDynamicSphere(s))

  00020	8b 0e		 mov	 ecx, DWORD PTR [esi]
; File C:\DS Project\DS Files\Source\ClientSource\Client\EterLib\CollisionData.h

; 83   : 			return OnMovementCollisionDynamicSphere(s);

  00022	53		 push	 ebx
  00023	8b 01		 mov	 eax, DWORD PTR [ecx]
  00025	8b 40 08	 mov	 eax, DWORD PTR [eax+8]
  00028	ff d0		 call	 eax
; File C:\DS Project\DS Files\Source\ClientSource\Client\EterLib\GrpObjectInstance.cpp

; 417  : 		if ((*it)->MovementCollisionDynamicSphere(s))

  0002a	84 c0		 test	 al, al
  0002c	75 29		 jne	 SHORT $LN30@GetCollisi
; File C:\Program Files (x86)\Microsoft Visual Studio\2019\Community\VC\Tools\MSVC\14.27.29110\include\vector

; 75   :         ++_Ptr;

  0002e	83 c6 04	 add	 esi, 4

; 149  :         return _Ptr == _Right._Ptr;

  00031	3b b7 3c 02 00
	00		 cmp	 esi, DWORD PTR [edi+572]
; File C:\DS Project\DS Files\Source\ClientSource\Client\EterLib\GrpObjectInstance.cpp

; 415  : 	for(it = m_StaticCollisionInstanceVector.begin();it!=m_StaticCollisionInstanceVector.end();++it)

  00037	75 e7		 jne	 SHORT $LL4@GetCollisi
$LN3@GetCollisi:
; File C:\DS Project\DS Files\Source\ClientSource\extern\include\d3dx8math.inl

; 180  :     x = fx;

  00039	8b 45 08	 mov	 eax, DWORD PTR ___$ReturnUdt$[ebp]
  0003c	5f		 pop	 edi
; File C:\DS Project\DS Files\Source\ClientSource\Client\EterLib\GrpObjectInstance.cpp

; 422  : }

  0003d	5e		 pop	 esi
  0003e	5b		 pop	 ebx
; File C:\DS Project\DS Files\Source\ClientSource\extern\include\d3dx8math.inl

; 180  :     x = fx;

  0003f	c7 00 00 00 00
	00		 mov	 DWORD PTR [eax], 0

; 181  :     y = fy;

  00045	c7 40 04 00 00
	00 00		 mov	 DWORD PTR [eax+4], 0

; 182  :     z = fz;

  0004c	c7 40 08 00 00
	00 00		 mov	 DWORD PTR [eax+8], 0
; File C:\DS Project\DS Files\Source\ClientSource\Client\EterLib\GrpObjectInstance.cpp

; 422  : }

  00053	5d		 pop	 ebp
  00054	c2 08 00	 ret	 8
$LN30@GetCollisi:

; 418  : 			return (*it)->GetCollisionMovementAdjust(s);

  00057	8b 0e		 mov	 ecx, DWORD PTR [esi]
; File C:\DS Project\DS Files\Source\ClientSource\Client\EterLib\CollisionData.h

; 93   : 			return OnGetCollisionMovementAdjust(s);

  00059	8b 75 08	 mov	 esi, DWORD PTR ___$ReturnUdt$[ebp]
  0005c	53		 push	 ebx
  0005d	56		 push	 esi
  0005e	8b 11		 mov	 edx, DWORD PTR [ecx]
  00060	ff 52 04	 call	 DWORD PTR [edx+4]
  00063	5f		 pop	 edi
; File C:\DS Project\DS Files\Source\ClientSource\Client\EterLib\GrpObjectInstance.cpp

; 418  : 			return (*it)->GetCollisionMovementAdjust(s);

  00064	8b c6		 mov	 eax, esi

; 422  : }

  00066	5e		 pop	 esi
  00067	5b		 pop	 ebx
  00068	5d		 pop	 ebp
  00069	c2 08 00	 ret	 8
?GetCollisionMovementAdjust@CGraphicObjectInstance@@QBE?AUD3DXVECTOR3@@ABUCDynamicSphereInstance@@@Z ENDP ; CGraphicObjectInstance::GetCollisionMovementAdjust
_TEXT	ENDS
; Function compile flags: /Ogtp
; File C:\DS Project\DS Files\Source\ClientSource\Client\EterLib\GrpObjectInstance.cpp
; File C:\Program Files (x86)\Microsoft Visual Studio\2019\Community\VC\Tools\MSVC\14.27.29110\include\vector
; File C:\DS Project\DS Files\Source\ClientSource\Client\EterLib\GrpObjectInstance.cpp
; File C:\DS Project\DS Files\Source\ClientSource\Client\EterLib\CollisionData.h
; File C:\DS Project\DS Files\Source\ClientSource\Client\EterLib\GrpObjectInstance.cpp
; File C:\Program Files (x86)\Microsoft Visual Studio\2019\Community\VC\Tools\MSVC\14.27.29110\include\vector
; File C:\DS Project\DS Files\Source\ClientSource\Client\EterLib\GrpObjectInstance.cpp
;	COMDAT ?MovementCollisionDynamicSphere@CGraphicObjectInstance@@QBE_NABUCDynamicSphereInstance@@@Z
_TEXT	SEGMENT
_s$ = 8							; size = 4
?MovementCollisionDynamicSphere@CGraphicObjectInstance@@QBE_NABUCDynamicSphereInstance@@@Z PROC ; CGraphicObjectInstance::MovementCollisionDynamicSphere, COMDAT
; _this$ = ecx

; 402  : {

  00000	55		 push	 ebp
  00001	8b ec		 mov	 ebp, esp
  00003	53		 push	 ebx
  00004	56		 push	 esi
  00005	57		 push	 edi
  00006	8b f9		 mov	 edi, ecx
; File C:\Program Files (x86)\Microsoft Visual Studio\2019\Community\VC\Tools\MSVC\14.27.29110\include\vector

; 42   :     _Vector_const_iterator(_Tptr _Parg, const _Container_base* _Pvector) noexcept : _Ptr(_Parg) {

  00008	8b b7 38 02 00
	00		 mov	 esi, DWORD PTR [edi+568]
  0000e	3b b7 3c 02 00
	00		 cmp	 esi, DWORD PTR [edi+572]
; File C:\DS Project\DS Files\Source\ClientSource\Client\EterLib\GrpObjectInstance.cpp

; 404  : 	for(it = m_StaticCollisionInstanceVector.begin();it!=m_StaticCollisionInstanceVector.end();++it)

  00014	74 23		 je	 SHORT $LN3@MovementCo
  00016	8b 5d 08	 mov	 ebx, DWORD PTR _s$[ebp]
  00019	0f 1f 80 00 00
	00 00		 npad	 7
$LL4@MovementCo:

; 406  : 		if ((*it)->MovementCollisionDynamicSphere(s))

  00020	8b 0e		 mov	 ecx, DWORD PTR [esi]
; File C:\DS Project\DS Files\Source\ClientSource\Client\EterLib\CollisionData.h

; 83   : 			return OnMovementCollisionDynamicSphere(s);

  00022	53		 push	 ebx
  00023	8b 01		 mov	 eax, DWORD PTR [ecx]
  00025	8b 40 08	 mov	 eax, DWORD PTR [eax+8]
  00028	ff d0		 call	 eax
; File C:\DS Project\DS Files\Source\ClientSource\Client\EterLib\GrpObjectInstance.cpp

; 406  : 		if ((*it)->MovementCollisionDynamicSphere(s))

  0002a	84 c0		 test	 al, al
  0002c	75 14		 jne	 SHORT $LN26@MovementCo
; File C:\Program Files (x86)\Microsoft Visual Studio\2019\Community\VC\Tools\MSVC\14.27.29110\include\vector

; 75   :         ++_Ptr;

  0002e	83 c6 04	 add	 esi, 4

; 149  :         return _Ptr == _Right._Ptr;

  00031	3b b7 3c 02 00
	00		 cmp	 esi, DWORD PTR [edi+572]
; File C:\DS Project\DS Files\Source\ClientSource\Client\EterLib\GrpObjectInstance.cpp

; 404  : 	for(it = m_StaticCollisionInstanceVector.begin();it!=m_StaticCollisionInstanceVector.end();++it)

  00037	75 e7		 jne	 SHORT $LL4@MovementCo
$LN3@MovementCo:
  00039	5f		 pop	 edi

; 407  : 			return true;
; 408  : 	}
; 409  : 	return false;
; 410  : }

  0003a	5e		 pop	 esi
  0003b	32 c0		 xor	 al, al
  0003d	5b		 pop	 ebx
  0003e	5d		 pop	 ebp
  0003f	c2 04 00	 ret	 4
$LN26@MovementCo:
  00042	5f		 pop	 edi
  00043	5e		 pop	 esi
  00044	b0 01		 mov	 al, 1
  00046	5b		 pop	 ebx
  00047	5d		 pop	 ebp
  00048	c2 04 00	 ret	 4
?MovementCollisionDynamicSphere@CGraphicObjectInstance@@QBE_NABUCDynamicSphereInstance@@@Z ENDP ; CGraphicObjectInstance::MovementCollisionDynamicSphere
_TEXT	ENDS
; Function compile flags: /Ogtp
; File C:\DS Project\DS Files\Source\ClientSource\Client\EterLib\GrpObjectInstance.cpp
; File C:\Program Files (x86)\Microsoft Visual Studio\2019\Community\VC\Tools\MSVC\14.27.29110\include\vector
; File C:\DS Project\DS Files\Source\ClientSource\Client\EterLib\GrpObjectInstance.cpp
; File C:\DS Project\DS Files\Source\ClientSource\Client\EterLib\CollisionData.h
; File C:\DS Project\DS Files\Source\ClientSource\Client\EterLib\GrpObjectInstance.cpp
; File C:\Program Files (x86)\Microsoft Visual Studio\2019\Community\VC\Tools\MSVC\14.27.29110\include\vector
; File C:\DS Project\DS Files\Source\ClientSource\Client\EterLib\GrpObjectInstance.cpp
;	COMDAT ?CollisionDynamicSphere@CGraphicObjectInstance@@QBE_NABUCDynamicSphereInstance@@@Z
_TEXT	SEGMENT
_s$ = 8							; size = 4
?CollisionDynamicSphere@CGraphicObjectInstance@@QBE_NABUCDynamicSphereInstance@@@Z PROC ; CGraphicObjectInstance::CollisionDynamicSphere, COMDAT
; _this$ = ecx

; 391  : {

  00000	55		 push	 ebp
  00001	8b ec		 mov	 ebp, esp
  00003	53		 push	 ebx
  00004	56		 push	 esi
  00005	57		 push	 edi
  00006	8b f9		 mov	 edi, ecx
; File C:\Program Files (x86)\Microsoft Visual Studio\2019\Community\VC\Tools\MSVC\14.27.29110\include\vector

; 42   :     _Vector_const_iterator(_Tptr _Parg, const _Container_base* _Pvector) noexcept : _Ptr(_Parg) {

  00008	8b b7 38 02 00
	00		 mov	 esi, DWORD PTR [edi+568]
  0000e	3b b7 3c 02 00
	00		 cmp	 esi, DWORD PTR [edi+572]
; File C:\DS Project\DS Files\Source\ClientSource\Client\EterLib\GrpObjectInstance.cpp

; 393  : 	for(it = m_StaticCollisionInstanceVector.begin();it!=m_StaticCollisionInstanceVector.end();++it)

  00014	74 23		 je	 SHORT $LN3@CollisionD
  00016	8b 5d 08	 mov	 ebx, DWORD PTR _s$[ebp]
  00019	0f 1f 80 00 00
	00 00		 npad	 7
$LL4@CollisionD:

; 395  : 		if ((*it)->CollisionDynamicSphere(s))

  00020	8b 0e		 mov	 ecx, DWORD PTR [esi]
; File C:\DS Project\DS Files\Source\ClientSource\Client\EterLib\CollisionData.h

; 87   : 			return OnCollisionDynamicSphere(s);

  00022	53		 push	 ebx
  00023	8b 01		 mov	 eax, DWORD PTR [ecx]
  00025	8b 40 0c	 mov	 eax, DWORD PTR [eax+12]
  00028	ff d0		 call	 eax
; File C:\DS Project\DS Files\Source\ClientSource\Client\EterLib\GrpObjectInstance.cpp

; 395  : 		if ((*it)->CollisionDynamicSphere(s))

  0002a	84 c0		 test	 al, al
  0002c	75 14		 jne	 SHORT $LN26@CollisionD
; File C:\Program Files (x86)\Microsoft Visual Studio\2019\Community\VC\Tools\MSVC\14.27.29110\include\vector

; 75   :         ++_Ptr;

  0002e	83 c6 04	 add	 esi, 4

; 149  :         return _Ptr == _Right._Ptr;

  00031	3b b7 3c 02 00
	00		 cmp	 esi, DWORD PTR [edi+572]
; File C:\DS Project\DS Files\Source\ClientSource\Client\EterLib\GrpObjectInstance.cpp

; 393  : 	for(it = m_StaticCollisionInstanceVector.begin();it!=m_StaticCollisionInstanceVector.end();++it)

  00037	75 e7		 jne	 SHORT $LL4@CollisionD
$LN3@CollisionD:
  00039	5f		 pop	 edi

; 396  : 			return true;
; 397  : 	}
; 398  : 	return false;
; 399  : }

  0003a	5e		 pop	 esi
  0003b	32 c0		 xor	 al, al
  0003d	5b		 pop	 ebx
  0003e	5d		 pop	 ebp
  0003f	c2 04 00	 ret	 4
$LN26@CollisionD:
  00042	5f		 pop	 edi
  00043	5e		 pop	 esi
  00044	b0 01		 mov	 al, 1
  00046	5b		 pop	 ebx
  00047	5d		 pop	 ebp
  00048	c2 04 00	 ret	 4
?CollisionDynamicSphere@CGraphicObjectInstance@@QBE_NABUCDynamicSphereInstance@@@Z ENDP ; CGraphicObjectInstance::CollisionDynamicSphere
_TEXT	ENDS
; Function compile flags: /Ogtp
; File C:\DS Project\DS Files\Source\ClientSource\Client\EterLib\GrpObjectInstance.cpp
; File C:\Program Files (x86)\Microsoft Visual Studio\2019\Community\VC\Tools\MSVC\14.27.29110\include\vector
; File C:\DS Project\DS Files\Source\ClientSource\Client\EterLib\GrpObjectInstance.cpp
; File C:\Program Files (x86)\Microsoft Visual Studio\2019\Community\VC\Tools\MSVC\14.27.29110\include\vector
; File C:\DS Project\DS Files\Source\ClientSource\Client\EterLib\GrpObjectInstance.cpp
;	COMDAT ?ClearCollision@CGraphicObjectInstance@@QAEXXZ
_TEXT	SEGMENT
?ClearCollision@CGraphicObjectInstance@@QAEXXZ PROC	; CGraphicObjectInstance::ClearCollision, COMDAT
; _this$ = ecx

; 377  : {

  00000	56		 push	 esi
  00001	57		 push	 edi
  00002	8b f9		 mov	 edi, ecx
; File C:\Program Files (x86)\Microsoft Visual Studio\2019\Community\VC\Tools\MSVC\14.27.29110\include\vector

; 42   :     _Vector_const_iterator(_Tptr _Parg, const _Container_base* _Pvector) noexcept : _Ptr(_Parg) {

  00004	8b b7 38 02 00
	00		 mov	 esi, DWORD PTR [edi+568]
  0000a	3b b7 3c 02 00
	00		 cmp	 esi, DWORD PTR [edi+572]
; File C:\DS Project\DS Files\Source\ClientSource\Client\EterLib\GrpObjectInstance.cpp

; 380  : 	for(it = m_StaticCollisionInstanceVector.begin();it!=m_StaticCollisionInstanceVector.end();++it)

  00010	74 21		 je	 SHORT $LN34@ClearColli
$LL4@ClearColli:

; 381  : 	{
; 382  : 		(*it)->Destroy();

  00012	8b 0e		 mov	 ecx, DWORD PTR [esi]
  00014	e8 00 00 00 00	 call	 ?Destroy@CBaseCollisionInstance@@QAEXXZ ; CBaseCollisionInstance::Destroy
; File C:\Program Files (x86)\Microsoft Visual Studio\2019\Community\VC\Tools\MSVC\14.27.29110\include\vector

; 75   :         ++_Ptr;

  00019	83 c6 04	 add	 esi, 4

; 149  :         return _Ptr == _Right._Ptr;

  0001c	3b b7 3c 02 00
	00		 cmp	 esi, DWORD PTR [edi+572]
; File C:\DS Project\DS Files\Source\ClientSource\Client\EterLib\GrpObjectInstance.cpp

; 380  : 	for(it = m_StaticCollisionInstanceVector.begin();it!=m_StaticCollisionInstanceVector.end();++it)

  00022	75 ee		 jne	 SHORT $LL4@ClearColli

; 383  : 
; 384  : 	}
; 385  : 
; 386  : 	m_StaticCollisionInstanceVector.clear();

  00024	8b 87 38 02 00
	00		 mov	 eax, DWORD PTR [edi+568]
  0002a	89 87 3c 02 00
	00		 mov	 DWORD PTR [edi+572], eax
  00030	5f		 pop	 edi

; 387  : 
; 388  : }

  00031	5e		 pop	 esi
  00032	c3		 ret	 0
$LN34@ClearColli:

; 383  : 
; 384  : 	}
; 385  : 
; 386  : 	m_StaticCollisionInstanceVector.clear();

  00033	89 b7 3c 02 00
	00		 mov	 DWORD PTR [edi+572], esi
  00039	5f		 pop	 edi

; 387  : 
; 388  : }

  0003a	5e		 pop	 esi
  0003b	c3		 ret	 0
?ClearCollision@CGraphicObjectInstance@@QAEXXZ ENDP	; CGraphicObjectInstance::ClearCollision
_TEXT	ENDS
; Function compile flags: /Ogtp
; File C:\DS Project\DS Files\Source\ClientSource\Client\EterLib\GrpObjectInstance.cpp
; File C:\Program Files (x86)\Microsoft Visual Studio\2019\Community\VC\Tools\MSVC\14.27.29110\include\vector
; File C:\DS Project\DS Files\Source\ClientSource\Client\EterLib\GrpObjectInstance.cpp
; File C:\Program Files (x86)\Microsoft Visual Studio\2019\Community\VC\Tools\MSVC\14.27.29110\include\vector
; File C:\DS Project\DS Files\Source\ClientSource\Client\EterLib\GrpObjectInstance.cpp
; File C:\Program Files (x86)\Microsoft Visual Studio\2019\Community\VC\Tools\MSVC\14.27.29110\include\vector
; File C:\DS Project\DS Files\Source\ClientSource\Client\EterLib\GrpObjectInstance.cpp
;	COMDAT ?AddCollision@CGraphicObjectInstance@@QAEXPBVCStaticCollisionData@@PBUD3DXMATRIX@@@Z
_TEXT	SEGMENT
_pscd$ = 8						; size = 4
$T1 = 12						; size = 4
_pMat$ = 12						; size = 4
?AddCollision@CGraphicObjectInstance@@QAEXPBVCStaticCollisionData@@PBUD3DXMATRIX@@@Z PROC ; CGraphicObjectInstance::AddCollision, COMDAT
; _this$ = ecx

; 372  : {

  00000	55		 push	 ebp
  00001	8b ec		 mov	 ebp, esp
  00003	56		 push	 esi

; 373  : 	m_StaticCollisionInstanceVector.push_back(CBaseCollisionInstance::BuildCollisionInstance(pscd, pMat));

  00004	ff 75 0c	 push	 DWORD PTR _pMat$[ebp]
  00007	8b f1		 mov	 esi, ecx
  00009	ff 75 08	 push	 DWORD PTR _pscd$[ebp]
  0000c	e8 00 00 00 00	 call	 ?BuildCollisionInstance@CBaseCollisionInstance@@SAPAV1@PBVCStaticCollisionData@@PBUD3DXMATRIX@@@Z ; CBaseCollisionInstance::BuildCollisionInstance
; File C:\Program Files (x86)\Microsoft Visual Studio\2019\Community\VC\Tools\MSVC\14.27.29110\include\vector

; 704  :         if (_Mylast != _My_data._Myend) {

  00011	8b 96 3c 02 00
	00		 mov	 edx, DWORD PTR [esi+572]
; File C:\DS Project\DS Files\Source\ClientSource\Client\EterLib\GrpObjectInstance.cpp

; 373  : 	m_StaticCollisionInstanceVector.push_back(CBaseCollisionInstance::BuildCollisionInstance(pscd, pMat));

  00017	8d 8e 38 02 00
	00		 lea	 ecx, DWORD PTR [esi+568]
  0001d	83 c4 08	 add	 esp, 8
  00020	89 45 0c	 mov	 DWORD PTR $T1[ebp], eax
; File C:\Program Files (x86)\Microsoft Visual Studio\2019\Community\VC\Tools\MSVC\14.27.29110\include\vector

; 704  :         if (_Mylast != _My_data._Myend) {

  00023	5e		 pop	 esi
  00024	3b 51 08	 cmp	 edx, DWORD PTR [ecx+8]
  00027	74 0a		 je	 SHORT $LN6@AddCollisi

; 687  :         _Alty_traits::construct(_Getal(), _Unfancy(_Mylast), _STD forward<_Valty>(_Val)...);

  00029	89 02		 mov	 DWORD PTR [edx], eax

; 688  :         _Orphan_range(_Mylast, _Mylast);
; 689  :         _Ty& _Result = *_Mylast;
; 690  :         ++_Mylast;

  0002b	83 41 04 04	 add	 DWORD PTR [ecx+4], 4
; File C:\DS Project\DS Files\Source\ClientSource\Client\EterLib\GrpObjectInstance.cpp

; 374  : }

  0002f	5d		 pop	 ebp
  00030	c2 08 00	 ret	 8
$LN6@AddCollisi:
; File C:\Program Files (x86)\Microsoft Visual Studio\2019\Community\VC\Tools\MSVC\14.27.29110\include\vector

; 708  :         _Ty& _Result = *_Emplace_reallocate(_Mylast, _STD forward<_Valty>(_Val)...);

  00033	8d 45 0c	 lea	 eax, DWORD PTR $T1[ebp]
  00036	50		 push	 eax
  00037	52		 push	 edx
  00038	e8 00 00 00 00	 call	 ??$_Emplace_reallocate@PAVCBaseCollisionInstance@@@?$vector@PAVCBaseCollisionInstance@@V?$allocator@PAVCBaseCollisionInstance@@@std@@@std@@QAEPAPAVCBaseCollisionInstance@@QAPAV2@$$QAPAV2@@Z ; std::vector<CBaseCollisionInstance *,std::allocator<CBaseCollisionInstance *> >::_Emplace_reallocate<CBaseCollisionInstance *>
; File C:\DS Project\DS Files\Source\ClientSource\Client\EterLib\GrpObjectInstance.cpp

; 374  : }

  0003d	5d		 pop	 ebp
  0003e	c2 08 00	 ret	 8
?AddCollision@CGraphicObjectInstance@@QAEXPBVCStaticCollisionData@@PBUD3DXMATRIX@@@Z ENDP ; CGraphicObjectInstance::AddCollision
_TEXT	ENDS
; Function compile flags: /Ogtp
; File C:\DS Project\DS Files\Source\ClientSource\Client\EterLib\GrpObjectInstance.h
;	COMDAT ?OnDeform@CGraphicObjectInstance@@UAEXXZ
_TEXT	SEGMENT
?OnDeform@CGraphicObjectInstance@@UAEXXZ PROC		; CGraphicObjectInstance::OnDeform, COMDAT
; _this$ = ecx

; 104  : 		virtual void			OnDeform(){}

  00000	c2 00 00	 ret	 0
?OnDeform@CGraphicObjectInstance@@UAEXXZ ENDP		; CGraphicObjectInstance::OnDeform
_TEXT	ENDS
; Function compile flags: /Ogtp
; File C:\DS Project\DS Files\Source\ClientSource\Client\EterLib\GrpObjectInstance.h
;	COMDAT ?OnUpdate@CGraphicObjectInstance@@UAEXXZ
_TEXT	SEGMENT
?OnUpdate@CGraphicObjectInstance@@UAEXXZ PROC		; CGraphicObjectInstance::OnUpdate, COMDAT
; _this$ = ecx

; 103  : 		virtual void			OnUpdate(){}

  00000	c2 00 00	 ret	 0
?OnUpdate@CGraphicObjectInstance@@UAEXXZ ENDP		; CGraphicObjectInstance::OnUpdate
_TEXT	ENDS
; Function compile flags: /Ogtp
; File C:\DS Project\DS Files\Source\ClientSource\Client\EterLib\GrpObjectInstance.h
;	COMDAT ?OnClear@CGraphicObjectInstance@@UAEXXZ
_TEXT	SEGMENT
?OnClear@CGraphicObjectInstance@@UAEXXZ PROC		; CGraphicObjectInstance::OnClear, COMDAT
; _this$ = ecx

; 102  : 		virtual void			OnClear(){}

  00000	c2 00 00	 ret	 0
?OnClear@CGraphicObjectInstance@@UAEXXZ ENDP		; CGraphicObjectInstance::OnClear
_TEXT	ENDS
; Function compile flags: /Ogtp
; File C:\DS Project\DS Files\Source\ClientSource\Client\EterLib\GrpObjectInstance.cpp
;	COMDAT ?RegisterBoundingSphere@CGraphicObjectInstance@@QAEXXZ
_TEXT	SEGMENT
?RegisterBoundingSphere@CGraphicObjectInstance@@QAEXXZ PROC ; CGraphicObjectInstance::RegisterBoundingSphere, COMDAT
; _this$ = ecx

; 364  : {

  00000	56		 push	 esi
  00001	8b f1		 mov	 esi, ecx

; 365  : 	if (m_CullingHandle)

  00003	8b 86 68 01 00
	00		 mov	 eax, DWORD PTR [esi+360]
  00009	85 c0		 test	 eax, eax
  0000b	74 0c		 je	 SHORT $LN2@RegisterBo

; 366  : 		CCullingManager::Instance().Unregister(m_CullingHandle);

  0000d	8b 0d 00 00 00
	00		 mov	 ecx, DWORD PTR ?ms_singleton@?$CSingleton@VCCullingManager@@@@0PAVCCullingManager@@A ; CSingleton<CCullingManager>::ms_singleton
  00013	50		 push	 eax
  00014	e8 00 00 00 00	 call	 ?Unregister@CCullingManager@@QAEXPAVSpherePack@@@Z ; CCullingManager::Unregister
$LN2@RegisterBo:

; 367  : 
; 368  : 	m_CullingHandle = CCullingManager::Instance().Register(this);

  00019	8b 0d 00 00 00
	00		 mov	 ecx, DWORD PTR ?ms_singleton@?$CSingleton@VCCullingManager@@@@0PAVCCullingManager@@A ; CSingleton<CCullingManager>::ms_singleton
  0001f	56		 push	 esi
  00020	e8 00 00 00 00	 call	 ?Register@CCullingManager@@QAEPAVSpherePack@@PAVCGraphicObjectInstance@@@Z ; CCullingManager::Register
  00025	89 86 68 01 00
	00		 mov	 DWORD PTR [esi+360], eax
  0002b	5e		 pop	 esi

; 369  : }

  0002c	c3		 ret	 0
?RegisterBoundingSphere@CGraphicObjectInstance@@QAEXXZ ENDP ; CGraphicObjectInstance::RegisterBoundingSphere
_TEXT	ENDS
; Function compile flags: /Ogtp
; File C:\DS Project\DS Files\Source\ClientSource\Client\EterLib\GrpObjectInstance.cpp
; File C:\DS Project\DS Files\Source\ClientSource\Client\SphereLib\spherepack.h
; File C:\DS Project\DS Files\Source\ClientSource\Client\SphereLib\sphere.h
; File C:\DS Project\DS Files\Source\ClientSource\Client\SphereLib\spherepack.h
; File C:\DS Project\DS Files\Source\ClientSource\Client\SphereLib\vector.h
; File C:\DS Project\DS Files\Source\ClientSource\Client\SphereLib\spherepack.h
; File C:\DS Project\DS Files\Source\ClientSource\Client\EterLib\GrpObjectInstance.cpp
; File C:\DS Project\DS Files\Source\ClientSource\Client\SphereLib\spherepack.h
; File C:\DS Project\DS Files\Source\ClientSource\Client\SphereLib\vector.h
; File C:\DS Project\DS Files\Source\ClientSource\Client\SphereLib\spherepack.h
; File C:\DS Project\DS Files\Source\ClientSource\Client\EterLib\GrpObjectInstance.cpp
;	COMDAT ?UpdateBoundingSphere@CGraphicObjectInstance@@QAEXXZ
_TEXT	SEGMENT
_radius$1 = -20						; size = 4
_center$2 = -16						; size = 12
__$ArrayPad$ = -4					; size = 4
?UpdateBoundingSphere@CGraphicObjectInstance@@QAEXXZ PROC ; CGraphicObjectInstance::UpdateBoundingSphere, COMDAT
; _this$ = ecx

; 350  : {

  00000	55		 push	 ebp
  00001	8b ec		 mov	 ebp, esp
  00003	83 ec 14	 sub	 esp, 20			; 00000014H
  00006	a1 00 00 00 00	 mov	 eax, DWORD PTR ___security_cookie
  0000b	33 c5		 xor	 eax, ebp
  0000d	89 45 fc	 mov	 DWORD PTR __$ArrayPad$[ebp], eax
  00010	56		 push	 esi
  00011	8b f1		 mov	 esi, ecx

; 351  : 	if (m_CullingHandle)

  00013	83 be 68 01 00
	00 00		 cmp	 DWORD PTR [esi+360], 0
  0001a	0f 84 3d 01 00
	00		 je	 $LN28@UpdateBoun

; 352  : 	{
; 353  : 		Vector3d center;
; 354  : 		float radius;
; 355  : 		GetBoundingSphere(center,radius);

  00020	8b 06		 mov	 eax, DWORD PTR [esi]
  00022	8d 4d ec	 lea	 ecx, DWORD PTR _radius$1[ebp]
  00025	51		 push	 ecx
  00026	8d 4d f0	 lea	 ecx, DWORD PTR _center$2[ebp]
  00029	51		 push	 ecx
  0002a	8b ce		 mov	 ecx, esi
  0002c	ff 50 0c	 call	 DWORD PTR [eax+12]

; 356  : 		if (radius != m_CullingHandle->GetRadius())

  0002f	8b b6 68 01 00
	00		 mov	 esi, DWORD PTR [esi+360]
  00035	f3 0f 10 55 ec	 movss	 xmm2, DWORD PTR _radius$1[ebp]
  0003a	f3 0f 10 45 f0	 movss	 xmm0, DWORD PTR _center$2[ebp]
  0003f	0f 2e 56 10	 ucomiss xmm2, DWORD PTR [esi+16]
  00043	f3 0f 11 46 04	 movss	 DWORD PTR [esi+4], xmm0
  00048	f3 0f 10 45 f4	 movss	 xmm0, DWORD PTR _center$2[ebp+4]
  0004d	9f		 lahf
  0004e	f3 0f 11 46 08	 movss	 DWORD PTR [esi+8], xmm0
  00053	f3 0f 10 45 f8	 movss	 xmm0, DWORD PTR _center$2[ebp+8]
  00058	f3 0f 11 46 0c	 movss	 DWORD PTR [esi+12], xmm0
  0005d	f6 c4 44	 test	 ah, 68			; 00000044H
  00060	0f 8b 99 00 00
	00		 jnp	 $LN3@UpdateBoun
; File C:\DS Project\DS Files\Source\ClientSource\Client\SphereLib\spherepack.h

; 474  : 	if (mParent && !HasSpherePackFlag(SPF_INTEGRATE))

  00066	8b 4e 20	 mov	 ecx, DWORD PTR [esi+32]
  00069	85 c9		 test	 ecx, ecx
  0006b	0f 84 ec 00 00
	00		 je	 $LN28@UpdateBoun

; 133  : 		if ( mFlags & flag ) return true;

  00071	f6 46 38 20	 test	 BYTE PTR [esi+56], 32	; 00000020H
  00075	0f 85 e2 00 00
	00		 jne	 $LN28@UpdateBoun

; 476  : 		if (radius != GetRadius())

  0007b	0f 2e 56 10	 ucomiss xmm2, DWORD PTR [esi+16]
  0007f	9f		 lahf
  00080	f6 c4 44	 test	 ah, 68			; 00000044H
  00083	7b 34		 jnp	 SHORT $LN20@UpdateBoun
; File C:\DS Project\DS Files\Source\ClientSource\Client\SphereLib\sphere.h

; 68   : 		mRadius2 = radius*radius;

  00085	0f 28 c2	 movaps	 xmm0, xmm2
  00088	f3 0f 11 56 10	 movss	 DWORD PTR [esi+16], xmm2
  0008d	f3 0f 59 c2	 mulss	 xmm0, xmm2
  00091	f3 0f 11 46 14	 movss	 DWORD PTR [esi+20], xmm0
  00096	0f 57 c0	 xorps	 xmm0, xmm0
; File C:\DS Project\DS Files\Source\ClientSource\Client\SphereLib\spherepack.h

; 241  : 		mBindingDistance = parent->GetRadius() - GetRadius();

  00099	f3 0f 10 49 10	 movss	 xmm1, DWORD PTR [ecx+16]
  0009e	f3 0f 5c ca	 subss	 xmm1, xmm2

; 242  : 		if ( mBindingDistance <= 0 )

  000a2	0f 2f c1	 comiss	 xmm0, xmm1
  000a5	72 09		 jb	 SHORT $LN19@UpdateBoun

; 243  : 			mBindingDistance = 0;

  000a7	c7 46 40 00 00
	00 00		 mov	 DWORD PTR [esi+64], 0
  000ae	eb 09		 jmp	 SHORT $LN20@UpdateBoun
$LN19@UpdateBoun:

; 244  : 		else
; 245  : 			mBindingDistance*=mBindingDistance;

  000b0	f3 0f 59 c9	 mulss	 xmm1, xmm1
  000b4	f3 0f 11 4e 40	 movss	 DWORD PTR [esi+64], xmm1
$LN20@UpdateBoun:

; 482  : 		mFactory->AddRecompute(mParent);

  000b9	51		 push	 ecx
  000ba	8b 4e 48	 mov	 ecx, DWORD PTR [esi+72]
  000bd	e8 00 00 00 00	 call	 ?AddRecompute@SpherePackFactory@@QAEXPAVSpherePack@@@Z ; SpherePackFactory::AddRecompute

; 212  : 	float DistanceSquared(const SpherePack *pack) const { return mCenter.DistanceSq( pack->mCenter );  };

  000c2	8b 46 20	 mov	 eax, DWORD PTR [esi+32]
; File C:\DS Project\DS Files\Source\ClientSource\Client\SphereLib\vector.h

; 170  : 		float dx = a.x - x;

  000c5	f3 0f 10 48 04	 movss	 xmm1, DWORD PTR [eax+4]

; 171  : 		float dy = a.y - y;

  000ca	f3 0f 10 50 08	 movss	 xmm2, DWORD PTR [eax+8]
  000cf	f3 0f 5c 56 08	 subss	 xmm2, DWORD PTR [esi+8]
  000d4	f3 0f 5c 4e 04	 subss	 xmm1, DWORD PTR [esi+4]

; 172  : 		float dz = a.z - z;

  000d9	f3 0f 10 40 0c	 movss	 xmm0, DWORD PTR [eax+12]
  000de	f3 0f 5c 46 0c	 subss	 xmm0, DWORD PTR [esi+12]

; 173  : 		return dx*dx + dy*dy + dz*dz;

  000e3	f3 0f 59 d2	 mulss	 xmm2, xmm2
  000e7	f3 0f 59 c9	 mulss	 xmm1, xmm1
  000eb	f3 0f 59 c0	 mulss	 xmm0, xmm0
  000ef	f3 0f 58 d1	 addss	 xmm2, xmm1
  000f3	f3 0f 58 d0	 addss	 xmm2, xmm0
; File C:\DS Project\DS Files\Source\ClientSource\Client\SphereLib\spherepack.h

; 486  : 		if (dist >= mBindingDistance)

  000f7	0f 2f 56 40	 comiss	 xmm2, DWORD PTR [esi+64]
  000fb	72 60		 jb	 SHORT $LN28@UpdateBoun
; File C:\DS Project\DS Files\Source\ClientSource\Client\EterLib\GrpObjectInstance.cpp

; 357  : 			m_CullingHandle->NewPosRadius(center,radius);

  000fd	eb 4e		 jmp	 SHORT $LN41@UpdateBoun
$LN3@UpdateBoun:
; File C:\DS Project\DS Files\Source\ClientSource\Client\SphereLib\spherepack.h

; 452  : 	if (mParent && !HasSpherePackFlag(SPF_INTEGRATE))

  000ff	8b 46 20	 mov	 eax, DWORD PTR [esi+32]
  00102	85 c0		 test	 eax, eax
  00104	74 57		 je	 SHORT $LN28@UpdateBoun

; 133  : 		if ( mFlags & flag ) return true;

  00106	f6 46 38 20	 test	 BYTE PTR [esi+56], 32	; 00000020H
  0010a	75 51		 jne	 SHORT $LN28@UpdateBoun
; File C:\DS Project\DS Files\Source\ClientSource\Client\SphereLib\vector.h

; 170  : 		float dx = a.x - x;

  0010c	f3 0f 10 48 04	 movss	 xmm1, DWORD PTR [eax+4]

; 171  : 		float dy = a.y - y;

  00111	f3 0f 10 50 08	 movss	 xmm2, DWORD PTR [eax+8]
  00116	f3 0f 5c 56 08	 subss	 xmm2, DWORD PTR [esi+8]
  0011b	f3 0f 5c 4e 04	 subss	 xmm1, DWORD PTR [esi+4]

; 172  : 		float dz = a.z - z;

  00120	f3 0f 10 40 0c	 movss	 xmm0, DWORD PTR [eax+12]
  00125	f3 0f 5c 46 0c	 subss	 xmm0, DWORD PTR [esi+12]

; 173  : 		return dx*dx + dy*dy + dz*dz;

  0012a	f3 0f 59 d2	 mulss	 xmm2, xmm2
  0012e	f3 0f 59 c9	 mulss	 xmm1, xmm1
  00132	f3 0f 59 c0	 mulss	 xmm0, xmm0
  00136	f3 0f 58 d1	 addss	 xmm2, xmm1
  0013a	f3 0f 58 d0	 addss	 xmm2, xmm0
; File C:\DS Project\DS Files\Source\ClientSource\Client\SphereLib\spherepack.h

; 456  : 		if (dist >= mBindingDistance) // if that exceeds our binding distance...

  0013e	0f 2f 56 40	 comiss	 xmm2, DWORD PTR [esi+64]
  00142	72 19		 jb	 SHORT $LN28@UpdateBoun

; 457  : 		{
; 458  : 			// If our parent, is not already marked to be recomputed (rebalance the sphere), then add him to the recomputation fifo.
; 459  : 			mFactory->AddRecompute(mParent);

  00144	8b 4e 48	 mov	 ecx, DWORD PTR [esi+72]
  00147	50		 push	 eax
  00148	e8 00 00 00 00	 call	 ?AddRecompute@SpherePackFactory@@QAEXPAVSpherePack@@@Z ; SpherePackFactory::AddRecompute
$LN41@UpdateBoun:
; File C:\DS Project\DS Files\Source\ClientSource\Client\EterLib\GrpObjectInstance.cpp

; 361  : }

  0014d	8b ce		 mov	 ecx, esi
  0014f	e8 00 00 00 00	 call	 ?Unlink@SpherePack@@QAEXXZ ; SpherePack::Unlink
  00154	8b 4e 48	 mov	 ecx, DWORD PTR [esi+72]
  00157	56		 push	 esi
  00158	e8 00 00 00 00	 call	 ?AddIntegrate@SpherePackFactory@@QAEXPAVSpherePack@@@Z ; SpherePackFactory::AddIntegrate
$LN28@UpdateBoun:
  0015d	8b 4d fc	 mov	 ecx, DWORD PTR __$ArrayPad$[ebp]
  00160	33 cd		 xor	 ecx, ebp
  00162	5e		 pop	 esi
  00163	e8 00 00 00 00	 call	 @__security_check_cookie@4
  00168	8b e5		 mov	 esp, ebp
  0016a	5d		 pop	 ebp
  0016b	c3		 ret	 0
?UpdateBoundingSphere@CGraphicObjectInstance@@QAEXXZ ENDP ; CGraphicObjectInstance::UpdateBoundingSphere
_TEXT	ENDS
; Function compile flags: /Ogtp
; File C:\DS Project\DS Files\Source\ClientSource\Client\EterLib\GrpObjectInstance.cpp
;	COMDAT ?OnInitialize@CGraphicObjectInstance@@UAEXXZ
_TEXT	SEGMENT
?OnInitialize@CGraphicObjectInstance@@UAEXXZ PROC	; CGraphicObjectInstance::OnInitialize, COMDAT
; _this$ = ecx

; 6    : {

  00000	0f 57 c0	 xorps	 xmm0, xmm0

; 7    : 	ZeroMemory(m_abyPortalID, sizeof(m_abyPortalID));

  00003	66 0f d6 81 60
	01 00 00	 movq	 QWORD PTR [ecx+352], xmm0

; 8    : }

  0000b	c3		 ret	 0
?OnInitialize@CGraphicObjectInstance@@UAEXXZ ENDP	; CGraphicObjectInstance::OnInitialize
_TEXT	ENDS
; Function compile flags: /Ogtp
; File C:\DS Project\DS Files\Source\ClientSource\Client\EterLib\GrpObjectInstance.cpp
; File C:\DS Project\DS Files\Source\ClientSource\extern\include\d3dx8math.inl
; File C:\DS Project\DS Files\Source\ClientSource\Client\EterLib\GrpObjectInstance.cpp
; File C:\DS Project\DS Files\Source\ClientSource\extern\include\d3dx8math.inl
; File C:\DS Project\DS Files\Source\ClientSource\Client\EterLib\GrpObjectInstance.cpp
; File C:\DS Project\DS Files\Source\ClientSource\extern\include\d3dx8math.inl
; File C:\DS Project\DS Files\Source\ClientSource\Client\EterLib\GrpObjectInstance.cpp
;	COMDAT ?Initialize@CGraphicObjectInstance@@QAEXXZ
_TEXT	SEGMENT
?Initialize@CGraphicObjectInstance@@QAEXXZ PROC		; CGraphicObjectInstance::Initialize, COMDAT
; _this$ = ecx

; 311  : {

  00000	56		 push	 esi
  00001	8b f1		 mov	 esi, ecx

; 312  : 	if (m_CullingHandle)

  00003	8b 86 68 01 00
	00		 mov	 eax, DWORD PTR [esi+360]
  00009	85 c0		 test	 eax, eax
  0000b	74 0c		 je	 SHORT $LN2@Initialize

; 313  : 		CCullingManager::Instance().Unregister(m_CullingHandle);

  0000d	8b 0d 00 00 00
	00		 mov	 ecx, DWORD PTR ?ms_singleton@?$CSingleton@VCCullingManager@@@@0PAVCCullingManager@@A ; CSingleton<CCullingManager>::ms_singleton
  00013	50		 push	 eax
  00014	e8 00 00 00 00	 call	 ?Unregister@CCullingManager@@QAEXPAVSpherePack@@@Z ; CCullingManager::Unregister
$LN2@Initialize:

; 314  : 	m_CullingHandle = 0;

  00019	c7 86 68 01 00
	00 00 00 00 00	 mov	 DWORD PTR [esi+360], 0

; 315  : 
; 316  : 	m_pHeightAttributeInstance = NULL;

  00023	c7 86 44 02 00
	00 00 00 00 00	 mov	 DWORD PTR [esi+580], 0

; 317  : 
; 318  : 	m_isVisible = TRUE;

  0002d	c6 46 68 01	 mov	 BYTE PTR [esi+104], 1

; 319  : 
; 320  : 	m_BlockCamera = false;

  00031	c6 86 ac 00 00
	00 00		 mov	 BYTE PTR [esi+172], 0

; 321  : 
; 322  : 	m_v3Position.x = m_v3Position.y = m_v3Position.z = 0.0f;

  00038	c7 46 0c 00 00
	00 00		 mov	 DWORD PTR [esi+12], 0
  0003f	c7 46 08 00 00
	00 00		 mov	 DWORD PTR [esi+8], 0
  00046	c7 46 04 00 00
	00 00		 mov	 DWORD PTR [esi+4], 0

; 323  : #ifdef ENABLE_OBJ_SCALLING
; 324  : 	m_v3Scale.x = m_v3Scale.y = m_v3Scale.z = 0.0f;

  0004d	c7 46 18 00 00
	00 00		 mov	 DWORD PTR [esi+24], 0
  00054	c7 46 14 00 00
	00 00		 mov	 DWORD PTR [esi+20], 0
  0005b	c7 46 10 00 00
	00 00		 mov	 DWORD PTR [esi+16], 0

; 325  : #else
; 326  : 	m_v3Scale.x = m_v3Scale.y = m_v3Scale.z = 1.0f;
; 327  : #endif
; 328  : 	m_fYaw = m_fPitch = m_fRoll = 0.0f;

  00062	c7 46 24 00 00
	00 00		 mov	 DWORD PTR [esi+36], 0
  00069	c7 46 20 00 00
	00 00		 mov	 DWORD PTR [esi+32], 0
  00070	c7 46 1c 00 00
	00 00		 mov	 DWORD PTR [esi+28], 0
; File C:\DS Project\DS Files\Source\ClientSource\extern\include\d3dx8math.inl

; 1516 :     pOut->m[0][1] = pOut->m[0][2] = pOut->m[0][3] =

  00077	c7 86 a4 00 00
	00 00 00 00 00	 mov	 DWORD PTR [esi+164], 0
  00081	c7 86 a0 00 00
	00 00 00 00 00	 mov	 DWORD PTR [esi+160], 0
  0008b	c7 86 9c 00 00
	00 00 00 00 00	 mov	 DWORD PTR [esi+156], 0
  00095	c7 86 98 00 00
	00 00 00 00 00	 mov	 DWORD PTR [esi+152], 0
  0009f	c7 86 90 00 00
	00 00 00 00 00	 mov	 DWORD PTR [esi+144], 0
  000a9	c7 86 8c 00 00
	00 00 00 00 00	 mov	 DWORD PTR [esi+140], 0
  000b3	c7 86 88 00 00
	00 00 00 00 00	 mov	 DWORD PTR [esi+136], 0
  000bd	c7 86 84 00 00
	00 00 00 00 00	 mov	 DWORD PTR [esi+132], 0
  000c7	c7 46 7c 00 00
	00 00		 mov	 DWORD PTR [esi+124], 0
  000ce	c7 46 78 00 00
	00 00		 mov	 DWORD PTR [esi+120], 0
  000d5	c7 46 74 00 00
	00 00		 mov	 DWORD PTR [esi+116], 0
  000dc	c7 46 70 00 00
	00 00		 mov	 DWORD PTR [esi+112], 0

; 1517 :     pOut->m[1][0] = pOut->m[1][2] = pOut->m[1][3] =
; 1518 :     pOut->m[2][0] = pOut->m[2][1] = pOut->m[2][3] =
; 1519 :     pOut->m[3][0] = pOut->m[3][1] = pOut->m[3][2] = 0.0f;
; 1520 : 
; 1521 :     pOut->m[0][0] = pOut->m[1][1] = pOut->m[2][2] = pOut->m[3][3] = 1.0f;

  000e3	c7 86 a8 00 00
	00 00 00 80 3f	 mov	 DWORD PTR [esi+168], 1065353216 ; 3f800000H
  000ed	c7 86 94 00 00
	00 00 00 80 3f	 mov	 DWORD PTR [esi+148], 1065353216 ; 3f800000H
  000f7	c7 86 80 00 00
	00 00 00 80 3f	 mov	 DWORD PTR [esi+128], 1065353216 ; 3f800000H
  00101	c7 46 6c 00 00
	80 3f		 mov	 DWORD PTR [esi+108], 1065353216 ; 3f800000H

; 1516 :     pOut->m[0][1] = pOut->m[0][2] = pOut->m[0][3] =

  00108	c7 46 60 00 00
	00 00		 mov	 DWORD PTR [esi+96], 0
  0010f	c7 46 5c 00 00
	00 00		 mov	 DWORD PTR [esi+92], 0
  00116	c7 46 58 00 00
	00 00		 mov	 DWORD PTR [esi+88], 0
  0011d	c7 46 54 00 00
	00 00		 mov	 DWORD PTR [esi+84], 0
  00124	c7 46 4c 00 00
	00 00		 mov	 DWORD PTR [esi+76], 0
  0012b	c7 46 48 00 00
	00 00		 mov	 DWORD PTR [esi+72], 0
  00132	c7 46 44 00 00
	00 00		 mov	 DWORD PTR [esi+68], 0
  00139	c7 46 40 00 00
	00 00		 mov	 DWORD PTR [esi+64], 0
  00140	c7 46 38 00 00
	00 00		 mov	 DWORD PTR [esi+56], 0
  00147	c7 46 34 00 00
	00 00		 mov	 DWORD PTR [esi+52], 0
  0014e	c7 46 30 00 00
	00 00		 mov	 DWORD PTR [esi+48], 0
  00155	c7 46 2c 00 00
	00 00		 mov	 DWORD PTR [esi+44], 0

; 1517 :     pOut->m[1][0] = pOut->m[1][2] = pOut->m[1][3] =
; 1518 :     pOut->m[2][0] = pOut->m[2][1] = pOut->m[2][3] =
; 1519 :     pOut->m[3][0] = pOut->m[3][1] = pOut->m[3][2] = 0.0f;
; 1520 : 
; 1521 :     pOut->m[0][0] = pOut->m[1][1] = pOut->m[2][2] = pOut->m[3][3] = 1.0f;

  0015c	c7 46 64 00 00
	80 3f		 mov	 DWORD PTR [esi+100], 1065353216 ; 3f800000H
  00163	c7 46 50 00 00
	80 3f		 mov	 DWORD PTR [esi+80], 1065353216 ; 3f800000H
  0016a	c7 46 3c 00 00
	80 3f		 mov	 DWORD PTR [esi+60], 1065353216 ; 3f800000H
  00171	c7 46 28 00 00
	80 3f		 mov	 DWORD PTR [esi+40], 1065353216 ; 3f800000H
; File C:\DS Project\DS Files\Source\ClientSource\Client\EterLib\GrpObjectInstance.cpp

; 334  : 	m_v3ScalePosition.x = m_v3ScalePosition.y = m_v3ScalePosition.z = 0.0f;

  00178	c7 86 74 01 00
	00 00 00 00 00	 mov	 DWORD PTR [esi+372], 0
  00182	c7 86 70 01 00
	00 00 00 00 00	 mov	 DWORD PTR [esi+368], 0
  0018c	c7 86 6c 01 00
	00 00 00 00 00	 mov	 DWORD PTR [esi+364], 0
; File C:\DS Project\DS Files\Source\ClientSource\extern\include\d3dx8math.inl

; 1516 :     pOut->m[0][1] = pOut->m[0][2] = pOut->m[0][3] =

  00196	c7 86 b0 01 00
	00 00 00 00 00	 mov	 DWORD PTR [esi+432], 0
  001a0	c7 86 ac 01 00
	00 00 00 00 00	 mov	 DWORD PTR [esi+428], 0
  001aa	c7 86 a8 01 00
	00 00 00 00 00	 mov	 DWORD PTR [esi+424], 0
  001b4	c7 86 a4 01 00
	00 00 00 00 00	 mov	 DWORD PTR [esi+420], 0
  001be	c7 86 9c 01 00
	00 00 00 00 00	 mov	 DWORD PTR [esi+412], 0
  001c8	c7 86 98 01 00
	00 00 00 00 00	 mov	 DWORD PTR [esi+408], 0
  001d2	c7 86 94 01 00
	00 00 00 00 00	 mov	 DWORD PTR [esi+404], 0
  001dc	c7 86 90 01 00
	00 00 00 00 00	 mov	 DWORD PTR [esi+400], 0
  001e6	c7 86 88 01 00
	00 00 00 00 00	 mov	 DWORD PTR [esi+392], 0
  001f0	c7 86 84 01 00
	00 00 00 00 00	 mov	 DWORD PTR [esi+388], 0
  001fa	c7 86 80 01 00
	00 00 00 00 00	 mov	 DWORD PTR [esi+384], 0
  00204	c7 86 7c 01 00
	00 00 00 00 00	 mov	 DWORD PTR [esi+380], 0

; 1517 :     pOut->m[1][0] = pOut->m[1][2] = pOut->m[1][3] =
; 1518 :     pOut->m[2][0] = pOut->m[2][1] = pOut->m[2][3] =
; 1519 :     pOut->m[3][0] = pOut->m[3][1] = pOut->m[3][2] = 0.0f;
; 1520 : 
; 1521 :     pOut->m[0][0] = pOut->m[1][1] = pOut->m[2][2] = pOut->m[3][3] = 1.0f;

  0020e	c7 86 b4 01 00
	00 00 00 80 3f	 mov	 DWORD PTR [esi+436], 1065353216 ; 3f800000H
  00218	c7 86 a0 01 00
	00 00 00 80 3f	 mov	 DWORD PTR [esi+416], 1065353216 ; 3f800000H
  00222	c7 86 8c 01 00
	00 00 00 80 3f	 mov	 DWORD PTR [esi+396], 1065353216 ; 3f800000H
  0022c	c7 86 78 01 00
	00 00 00 80 3f	 mov	 DWORD PTR [esi+376], 1065353216 ; 3f800000H

; 1516 :     pOut->m[0][1] = pOut->m[0][2] = pOut->m[0][3] =

  00236	c7 86 f0 01 00
	00 00 00 00 00	 mov	 DWORD PTR [esi+496], 0
  00240	c7 86 ec 01 00
	00 00 00 00 00	 mov	 DWORD PTR [esi+492], 0
  0024a	c7 86 e8 01 00
	00 00 00 00 00	 mov	 DWORD PTR [esi+488], 0
  00254	c7 86 e4 01 00
	00 00 00 00 00	 mov	 DWORD PTR [esi+484], 0
  0025e	c7 86 dc 01 00
	00 00 00 00 00	 mov	 DWORD PTR [esi+476], 0
  00268	c7 86 d8 01 00
	00 00 00 00 00	 mov	 DWORD PTR [esi+472], 0
  00272	c7 86 d4 01 00
	00 00 00 00 00	 mov	 DWORD PTR [esi+468], 0
  0027c	c7 86 d0 01 00
	00 00 00 00 00	 mov	 DWORD PTR [esi+464], 0
  00286	c7 86 c8 01 00
	00 00 00 00 00	 mov	 DWORD PTR [esi+456], 0
  00290	c7 86 c4 01 00
	00 00 00 00 00	 mov	 DWORD PTR [esi+452], 0
  0029a	c7 86 c0 01 00
	00 00 00 00 00	 mov	 DWORD PTR [esi+448], 0
  002a4	c7 86 bc 01 00
	00 00 00 00 00	 mov	 DWORD PTR [esi+444], 0

; 1517 :     pOut->m[1][0] = pOut->m[1][2] = pOut->m[1][3] =
; 1518 :     pOut->m[2][0] = pOut->m[2][1] = pOut->m[2][3] =
; 1519 :     pOut->m[3][0] = pOut->m[3][1] = pOut->m[3][2] = 0.0f;
; 1520 : 
; 1521 :     pOut->m[0][0] = pOut->m[1][1] = pOut->m[2][2] = pOut->m[3][3] = 1.0f;

  002ae	c7 86 f4 01 00
	00 00 00 80 3f	 mov	 DWORD PTR [esi+500], 1065353216 ; 3f800000H
  002b8	c7 86 e0 01 00
	00 00 00 80 3f	 mov	 DWORD PTR [esi+480], 1065353216 ; 3f800000H
  002c2	c7 86 cc 01 00
	00 00 00 80 3f	 mov	 DWORD PTR [esi+460], 1065353216 ; 3f800000H
  002cc	c7 86 b8 01 00
	00 00 00 80 3f	 mov	 DWORD PTR [esi+440], 1065353216 ; 3f800000H

; 1516 :     pOut->m[0][1] = pOut->m[0][2] = pOut->m[0][3] =

  002d6	c7 86 30 02 00
	00 00 00 00 00	 mov	 DWORD PTR [esi+560], 0
; File C:\DS Project\DS Files\Source\ClientSource\Client\EterLib\GrpObjectInstance.cpp

; 341  : 	OnInitialize();

  002e0	8b 06		 mov	 eax, DWORD PTR [esi]
  002e2	8b ce		 mov	 ecx, esi
; File C:\DS Project\DS Files\Source\ClientSource\extern\include\d3dx8math.inl

; 1516 :     pOut->m[0][1] = pOut->m[0][2] = pOut->m[0][3] =

  002e4	c7 86 2c 02 00
	00 00 00 00 00	 mov	 DWORD PTR [esi+556], 0
  002ee	c7 86 28 02 00
	00 00 00 00 00	 mov	 DWORD PTR [esi+552], 0
  002f8	c7 86 24 02 00
	00 00 00 00 00	 mov	 DWORD PTR [esi+548], 0
  00302	c7 86 1c 02 00
	00 00 00 00 00	 mov	 DWORD PTR [esi+540], 0
  0030c	c7 86 18 02 00
	00 00 00 00 00	 mov	 DWORD PTR [esi+536], 0
  00316	c7 86 14 02 00
	00 00 00 00 00	 mov	 DWORD PTR [esi+532], 0
  00320	c7 86 10 02 00
	00 00 00 00 00	 mov	 DWORD PTR [esi+528], 0
  0032a	c7 86 08 02 00
	00 00 00 00 00	 mov	 DWORD PTR [esi+520], 0
  00334	c7 86 04 02 00
	00 00 00 00 00	 mov	 DWORD PTR [esi+516], 0
  0033e	c7 86 00 02 00
	00 00 00 00 00	 mov	 DWORD PTR [esi+512], 0
  00348	c7 86 fc 01 00
	00 00 00 00 00	 mov	 DWORD PTR [esi+508], 0

; 1517 :     pOut->m[1][0] = pOut->m[1][2] = pOut->m[1][3] =
; 1518 :     pOut->m[2][0] = pOut->m[2][1] = pOut->m[2][3] =
; 1519 :     pOut->m[3][0] = pOut->m[3][1] = pOut->m[3][2] = 0.0f;
; 1520 : 
; 1521 :     pOut->m[0][0] = pOut->m[1][1] = pOut->m[2][2] = pOut->m[3][3] = 1.0f;

  00352	c7 86 34 02 00
	00 00 00 80 3f	 mov	 DWORD PTR [esi+564], 1065353216 ; 3f800000H
  0035c	c7 86 20 02 00
	00 00 00 80 3f	 mov	 DWORD PTR [esi+544], 1065353216 ; 3f800000H
  00366	c7 86 0c 02 00
	00 00 00 80 3f	 mov	 DWORD PTR [esi+524], 1065353216 ; 3f800000H
  00370	c7 86 f8 01 00
	00 00 00 80 3f	 mov	 DWORD PTR [esi+504], 1065353216 ; 3f800000H
; File C:\DS Project\DS Files\Source\ClientSource\Client\EterLib\GrpObjectInstance.cpp

; 341  : 	OnInitialize();

  0037a	5e		 pop	 esi
  0037b	ff 60 08	 jmp	 DWORD PTR [eax+8]
?Initialize@CGraphicObjectInstance@@QAEXXZ ENDP		; CGraphicObjectInstance::Initialize
_TEXT	ENDS
; Function compile flags: /Ogtp
; File C:\DS Project\DS Files\Source\ClientSource\Client\EterLib\GrpObjectInstance.cpp
;	COMDAT ?GetPortal@CGraphicObjectInstance@@QAEHK@Z
_TEXT	SEGMENT
_dwIndex$ = 8						; size = 4
?GetPortal@CGraphicObjectInstance@@QAEHK@Z PROC		; CGraphicObjectInstance::GetPortal, COMDAT
; _this$ = ecx

; 492  : {

  00000	55		 push	 ebp
  00001	8b ec		 mov	 ebp, esp

; 493  : 	if (dwIndex >= PORTAL_ID_MAX_NUM)

  00003	8b 45 08	 mov	 eax, DWORD PTR _dwIndex$[ebp]
  00006	83 f8 08	 cmp	 eax, 8
  00009	72 06		 jb	 SHORT $LN2@GetPortal

; 494  : 	{
; 495  : 		assert(dwIndex < PORTAL_ID_MAX_NUM);
; 496  : 		return 0;

  0000b	33 c0		 xor	 eax, eax

; 500  : }

  0000d	5d		 pop	 ebp
  0000e	c2 04 00	 ret	 4
$LN2@GetPortal:

; 497  : 	}
; 498  : 
; 499  : 	return m_abyPortalID[dwIndex];

  00011	0f b6 84 08 60
	01 00 00	 movzx	 eax, BYTE PTR [eax+ecx+352]

; 500  : }

  00019	5d		 pop	 ebp
  0001a	c2 04 00	 ret	 4
?GetPortal@CGraphicObjectInstance@@QAEHK@Z ENDP		; CGraphicObjectInstance::GetPortal
_TEXT	ENDS
; Function compile flags: /Ogtp
; File C:\DS Project\DS Files\Source\ClientSource\Client\EterLib\GrpObjectInstance.cpp
;	COMDAT ?SetPortal@CGraphicObjectInstance@@QAEXKH@Z
_TEXT	SEGMENT
_dwIndex$ = 8						; size = 4
_iID$ = 12						; size = 4
?SetPortal@CGraphicObjectInstance@@QAEXKH@Z PROC	; CGraphicObjectInstance::SetPortal, COMDAT
; _this$ = ecx

; 481  : {

  00000	55		 push	 ebp
  00001	8b ec		 mov	 ebp, esp

; 482  : 	if (dwIndex >= PORTAL_ID_MAX_NUM)

  00003	8b 55 08	 mov	 edx, DWORD PTR _dwIndex$[ebp]
  00006	83 fa 08	 cmp	 edx, 8
  00009	73 0a		 jae	 SHORT $LN1@SetPortal

; 483  : 	{
; 484  : 		assert(dwIndex < PORTAL_ID_MAX_NUM);
; 485  : 		return;
; 486  : 	}
; 487  : 
; 488  : 	m_abyPortalID[dwIndex] = iID;

  0000b	8a 45 0c	 mov	 al, BYTE PTR _iID$[ebp]
  0000e	88 84 0a 60 01
	00 00		 mov	 BYTE PTR [edx+ecx+352], al
$LN1@SetPortal:

; 489  : }

  00015	5d		 pop	 ebp
  00016	c2 08 00	 ret	 8
?SetPortal@CGraphicObjectInstance@@QAEXKH@Z ENDP	; CGraphicObjectInstance::SetPortal
_TEXT	ENDS
; Function compile flags: /Ogtp
; File C:\DS Project\DS Files\Source\ClientSource\Client\EterLib\GrpObjectInstance.cpp
;	COMDAT ?GetTransform@CGraphicObjectInstance@@QAEAAUD3DXMATRIX@@XZ
_TEXT	SEGMENT
?GetTransform@CGraphicObjectInstance@@QAEAAUD3DXMATRIX@@XZ PROC ; CGraphicObjectInstance::GetTransform, COMDAT
; _this$ = ecx

; 169  : 	return m_worldMatrix;

  00000	8d 41 6c	 lea	 eax, DWORD PTR [ecx+108]

; 170  : }

  00003	c3		 ret	 0
?GetTransform@CGraphicObjectInstance@@QAEAAUD3DXMATRIX@@XZ ENDP ; CGraphicObjectInstance::GetTransform
_TEXT	ENDS
; Function compile flags: /Ogtp
; File C:\DS Project\DS Files\Source\ClientSource\Client\EterLib\GrpObjectInstance.cpp
;	COMDAT ?GetWTBBoxVertex@CGraphicObjectInstance@@QAEAAUD3DXVECTOR4@@ABE@Z
_TEXT	SEGMENT
_c_rucNumTBBoxVertex$ = 8				; size = 4
?GetWTBBoxVertex@CGraphicObjectInstance@@QAEAAUD3DXVECTOR4@@ABE@Z PROC ; CGraphicObjectInstance::GetWTBBoxVertex, COMDAT
; _this$ = ecx

; 255  : {

  00000	55		 push	 ebp
  00001	8b ec		 mov	 ebp, esp

; 256  : 	return m_v4TBBox[c_rucNumTBBoxVertex];

  00003	8b 45 08	 mov	 eax, DWORD PTR _c_rucNumTBBoxVertex$[ebp]
  00006	0f b6 00	 movzx	 eax, BYTE PTR [eax]
  00009	83 c0 0b	 add	 eax, 11			; 0000000bH
  0000c	c1 e0 04	 shl	 eax, 4
  0000f	03 c1		 add	 eax, ecx

; 257  : }

  00011	5d		 pop	 ebp
  00012	c2 04 00	 ret	 4
?GetWTBBoxVertex@CGraphicObjectInstance@@QAEAAUD3DXVECTOR4@@ABE@Z ENDP ; CGraphicObjectInstance::GetWTBBoxVertex
_TEXT	ENDS
; Function compile flags: /Ogtp
; File C:\DS Project\DS Files\Source\ClientSource\Client\EterLib\GrpObjectInstance.cpp
; File C:\DS Project\DS Files\Source\ClientSource\Client\EterLib\Ray.h
; File C:\DS Project\DS Files\Source\ClientSource\Client\EterLib\GrpObjectInstance.cpp
; File C:\DS Project\DS Files\Source\ClientSource\Client\EterLib\Ray.h
; File C:\DS Project\DS Files\Source\ClientSource\extern\include\d3dx8math.inl
; File C:\DS Project\DS Files\Source\ClientSource\Client\EterLib\Ray.h
; File C:\DS Project\DS Files\Source\ClientSource\extern\include\d3dx8math.inl
; File C:\DS Project\DS Files\Source\ClientSource\Client\EterLib\Ray.h
; File C:\DS Project\DS Files\Source\ClientSource\Client\EterLib\GrpObjectInstance.cpp
; File C:\DS Project\DS Files\Source\ClientSource\Client\EterLib\Ray.h
; File C:\DS Project\DS Files\Source\ClientSource\Client\EterLib\GrpObjectInstance.cpp
; File C:\DS Project\DS Files\Source\ClientSource\Client\EterLib\Ray.h
; File C:\DS Project\DS Files\Source\ClientSource\Client\EterLib\GrpObjectInstance.cpp
; File C:\DS Project\DS Files\Source\ClientSource\Client\EterLib\Ray.h
; File C:\DS Project\DS Files\Source\ClientSource\Client\EterLib\GrpObjectInstance.cpp
; File C:\DS Project\DS Files\Source\ClientSource\extern\include\d3dx8math.inl
; File C:\DS Project\DS Files\Source\ClientSource\Client\EterLib\GrpObjectInstance.cpp
; File C:\DS Project\DS Files\Source\ClientSource\extern\include\d3dx8math.inl
; File C:\DS Project\DS Files\Source\ClientSource\Client\EterLib\GrpObjectInstance.cpp
; File C:\DS Project\DS Files\Source\ClientSource\extern\include\d3dx8math.inl
; File C:\DS Project\DS Files\Source\ClientSource\Client\EterLib\GrpObjectInstance.cpp
; File C:\DS Project\DS Files\Source\ClientSource\extern\include\d3dx8math.inl
; File C:\DS Project\DS Files\Source\ClientSource\Client\EterLib\GrpObjectInstance.cpp
; File C:\DS Project\DS Files\Source\ClientSource\extern\include\d3dx8math.inl
; File C:\DS Project\DS Files\Source\ClientSource\Client\EterLib\GrpObjectInstance.cpp
; File C:\DS Project\DS Files\Source\ClientSource\extern\include\d3dx8math.inl
; File C:\DS Project\DS Files\Source\ClientSource\Client\EterLib\GrpObjectInstance.cpp
; File C:\DS Project\DS Files\Source\ClientSource\extern\include\d3dx8math.inl
; File C:\DS Project\DS Files\Source\ClientSource\Client\EterLib\GrpObjectInstance.cpp
; File C:\DS Project\DS Files\Source\ClientSource\extern\include\d3dx8math.inl
; File C:\DS Project\DS Files\Source\ClientSource\Client\EterLib\GrpObjectInstance.cpp
; File C:\DS Project\DS Files\Source\ClientSource\extern\include\d3dx8math.inl
; File C:\DS Project\DS Files\Source\ClientSource\Client\EterLib\GrpObjectInstance.cpp
; File C:\DS Project\DS Files\Source\ClientSource\extern\include\d3dx8math.inl
; File C:\DS Project\DS Files\Source\ClientSource\Client\EterLib\GrpObjectInstance.cpp
;	COMDAT ?isIntersect@CGraphicObjectInstance@@QAE_NABVCRay@@PAM11@Z
_TEXT	SEGMENT
_pu$GSCopy$1$ = -220					; size = 4
_pv$GSCopy$1$ = -216					; size = 4
_pt$GSCopy$1$ = -212					; size = 4
$T1 = -208						; size = 12
$T2 = -208						; size = 12
$T3 = -208						; size = 12
$T4 = -208						; size = 12
$T5 = -208						; size = 12
$T6 = -208						; size = 12
$T7 = -208						; size = 12
$T8 = -208						; size = 12
_v3Start$ = -196					; size = 12
_v3Dir$ = -184						; size = 12
_posVertices$ = -172					; size = 96
_Indices$ = -76						; size = 72
__$ArrayPad$ = -4					; size = 4
_c_rRay$ = 8						; size = 4
_pu$ = 12						; size = 4
_pv$ = 16						; size = 4
_pt$ = 20						; size = 4
?isIntersect@CGraphicObjectInstance@@QAE_NABVCRay@@PAM11@Z PROC ; CGraphicObjectInstance::isIntersect, COMDAT
; _this$ = ecx

; 260  : {

  00000	55		 push	 ebp
  00001	8b ec		 mov	 ebp, esp
  00003	81 ec dc 00 00
	00		 sub	 esp, 220		; 000000dcH
  00009	a1 00 00 00 00	 mov	 eax, DWORD PTR ___security_cookie
  0000e	33 c5		 xor	 eax, ebp
  00010	89 45 fc	 mov	 DWORD PTR __$ArrayPad$[ebp], eax
  00013	8b 55 08	 mov	 edx, DWORD PTR _c_rRay$[ebp]
  00016	8b 45 10	 mov	 eax, DWORD PTR _pv$[ebp]
  00019	53		 push	 ebx
  0001a	8b d9		 mov	 ebx, ecx
  0001c	89 85 28 ff ff
	ff		 mov	 DWORD PTR _pv$GSCopy$1$[ebp], eax
; File C:\DS Project\DS Files\Source\ClientSource\Client\EterLib\Ray.h

; 36   : 			*pv3Start = m_v3Start;

  00022	f3 0f 7e 02	 movq	 xmm0, QWORD PTR [edx]
; File C:\DS Project\DS Files\Source\ClientSource\Client\EterLib\GrpObjectInstance.cpp

; 260  : {

  00026	8b 45 14	 mov	 eax, DWORD PTR _pt$[ebp]
; File C:\DS Project\DS Files\Source\ClientSource\Client\EterLib\Ray.h

; 36   : 			*pv3Start = m_v3Start;

  00029	66 0f d6 85 3c
	ff ff ff	 movq	 QWORD PTR _v3Start$[ebp], xmm0
; File C:\DS Project\DS Files\Source\ClientSource\extern\include\d3dx8math.inl

; 180  :     x = fx;

  00031	f3 0f 10 ab 30
	01 00 00	 movss	 xmm5, DWORD PTR [ebx+304]
; File C:\DS Project\DS Files\Source\ClientSource\Client\EterLib\Ray.h

; 41   : 			*pv3Dir = m_v3Direction;

  00039	f3 0f 7e 42 18	 movq	 xmm0, QWORD PTR [edx+24]
; File C:\DS Project\DS Files\Source\ClientSource\extern\include\d3dx8math.inl

; 181  :     y = fy;

  0003e	f3 0f 10 9b 34
	01 00 00	 movss	 xmm3, DWORD PTR [ebx+308]

; 180  :     x = fx;

  00046	f3 0f 10 a3 3c
	01 00 00	 movss	 xmm4, DWORD PTR [ebx+316]

; 182  :     z = fz;

  0004e	f3 0f 10 8b 38
	01 00 00	 movss	 xmm1, DWORD PTR [ebx+312]

; 181  :     y = fy;

  00056	f3 0f 10 93 40
	01 00 00	 movss	 xmm2, DWORD PTR [ebx+320]
; File C:\DS Project\DS Files\Source\ClientSource\Client\EterLib\Ray.h

; 41   : 			*pv3Dir = m_v3Direction;

  0005e	66 0f d6 85 48
	ff ff ff	 movq	 QWORD PTR _v3Dir$[ebp], xmm0
; File C:\DS Project\DS Files\Source\ClientSource\Client\EterLib\GrpObjectInstance.cpp

; 268  : 	posVertices[0] = TPosition(m_v3TBBoxMin.x, m_v3TBBoxMin.y, m_v3TBBoxMin.z);

  00066	0f 28 c5	 movaps	 xmm0, xmm5
  00069	0f 14 c3	 unpcklps xmm0, xmm3
  0006c	66 0f d6 85 54
	ff ff ff	 movq	 QWORD PTR _posVertices$[ebp], xmm0

; 269  : 	posVertices[1] = TPosition(m_v3TBBoxMax.x, m_v3TBBoxMin.y, m_v3TBBoxMin.z);

  00074	0f 28 c4	 movaps	 xmm0, xmm4
  00077	8b 4d 0c	 mov	 ecx, DWORD PTR _pu$[ebp]
  0007a	89 85 2c ff ff
	ff		 mov	 DWORD PTR _pt$GSCopy$1$[ebp], eax
; File C:\DS Project\DS Files\Source\ClientSource\Client\EterLib\Ray.h

; 36   : 			*pv3Start = m_v3Start;

  00080	8b 42 08	 mov	 eax, DWORD PTR [edx+8]
; File C:\DS Project\DS Files\Source\ClientSource\Client\EterLib\GrpObjectInstance.cpp

; 269  : 	posVertices[1] = TPosition(m_v3TBBoxMax.x, m_v3TBBoxMin.y, m_v3TBBoxMin.z);

  00083	0f 14 c3	 unpcklps xmm0, xmm3
; File C:\DS Project\DS Files\Source\ClientSource\Client\EterLib\Ray.h

; 36   : 			*pv3Start = m_v3Start;

  00086	89 85 44 ff ff
	ff		 mov	 DWORD PTR _v3Start$[ebp+8], eax

; 41   : 			*pv3Dir = m_v3Direction;

  0008c	8b 42 20	 mov	 eax, DWORD PTR [edx+32]
; File C:\DS Project\DS Files\Source\ClientSource\Client\EterLib\GrpObjectInstance.cpp

; 269  : 	posVertices[1] = TPosition(m_v3TBBoxMax.x, m_v3TBBoxMin.y, m_v3TBBoxMin.z);

  0008f	66 0f d6 85 60
	ff ff ff	 movq	 QWORD PTR _posVertices$[ebp+12], xmm0

; 270  : 	posVertices[2] = TPosition(m_v3TBBoxMin.x, m_v3TBBoxMax.y, m_v3TBBoxMin.z);

  00097	0f 28 c5	 movaps	 xmm0, xmm5
; File C:\DS Project\DS Files\Source\ClientSource\Client\EterLib\Ray.h

; 41   : 			*pv3Dir = m_v3Direction;

  0009a	89 85 50 ff ff
	ff		 mov	 DWORD PTR _v3Dir$[ebp+8], eax
; File C:\DS Project\DS Files\Source\ClientSource\Client\EterLib\GrpObjectInstance.cpp

; 270  : 	posVertices[2] = TPosition(m_v3TBBoxMin.x, m_v3TBBoxMax.y, m_v3TBBoxMin.z);

  000a0	0f 14 c2	 unpcklps xmm0, xmm2
  000a3	66 0f d6 85 6c
	ff ff ff	 movq	 QWORD PTR _posVertices$[ebp+24], xmm0

; 271  : 	posVertices[3] = TPosition(m_v3TBBoxMax.x, m_v3TBBoxMax.y, m_v3TBBoxMin.z);

  000ab	0f 28 c4	 movaps	 xmm0, xmm4
; File C:\DS Project\DS Files\Source\ClientSource\extern\include\d3dx8math.inl

; 182  :     z = fz;

  000ae	f3 0f 11 8d 38
	ff ff ff	 movss	 DWORD PTR $T8[ebp+8], xmm1
; File C:\DS Project\DS Files\Source\ClientSource\Client\EterLib\GrpObjectInstance.cpp

; 268  : 	posVertices[0] = TPosition(m_v3TBBoxMin.x, m_v3TBBoxMin.y, m_v3TBBoxMin.z);

  000b6	8b 85 38 ff ff
	ff		 mov	 eax, DWORD PTR $T8[ebp+8]
  000bc	89 85 5c ff ff
	ff		 mov	 DWORD PTR _posVertices$[ebp+8], eax
; File C:\DS Project\DS Files\Source\ClientSource\extern\include\d3dx8math.inl

; 182  :     z = fz;

  000c2	f3 0f 11 8d 38
	ff ff ff	 movss	 DWORD PTR $T7[ebp+8], xmm1
; File C:\DS Project\DS Files\Source\ClientSource\Client\EterLib\GrpObjectInstance.cpp

; 269  : 	posVertices[1] = TPosition(m_v3TBBoxMax.x, m_v3TBBoxMin.y, m_v3TBBoxMin.z);

  000ca	8b 85 38 ff ff
	ff		 mov	 eax, DWORD PTR $T7[ebp+8]
  000d0	89 85 68 ff ff
	ff		 mov	 DWORD PTR _posVertices$[ebp+20], eax

; 271  : 	posVertices[3] = TPosition(m_v3TBBoxMax.x, m_v3TBBoxMax.y, m_v3TBBoxMin.z);

  000d6	0f 14 c2	 unpcklps xmm0, xmm2
; File C:\DS Project\DS Files\Source\ClientSource\extern\include\d3dx8math.inl

; 182  :     z = fz;

  000d9	f3 0f 11 8d 38
	ff ff ff	 movss	 DWORD PTR $T6[ebp+8], xmm1
; File C:\DS Project\DS Files\Source\ClientSource\Client\EterLib\GrpObjectInstance.cpp

; 270  : 	posVertices[2] = TPosition(m_v3TBBoxMin.x, m_v3TBBoxMax.y, m_v3TBBoxMin.z);

  000e1	8b 85 38 ff ff
	ff		 mov	 eax, DWORD PTR $T6[ebp+8]
  000e7	89 85 74 ff ff
	ff		 mov	 DWORD PTR _posVertices$[ebp+32], eax
; File C:\DS Project\DS Files\Source\ClientSource\extern\include\d3dx8math.inl

; 182  :     z = fz;

  000ed	f3 0f 11 8d 38
	ff ff ff	 movss	 DWORD PTR $T5[ebp+8], xmm1
; File C:\DS Project\DS Files\Source\ClientSource\Client\EterLib\GrpObjectInstance.cpp

; 271  : 	posVertices[3] = TPosition(m_v3TBBoxMax.x, m_v3TBBoxMax.y, m_v3TBBoxMin.z);

  000f5	8b 85 38 ff ff
	ff		 mov	 eax, DWORD PTR $T5[ebp+8]
; File C:\DS Project\DS Files\Source\ClientSource\extern\include\d3dx8math.inl

; 182  :     z = fz;

  000fb	f3 0f 10 8b 44
	01 00 00	 movss	 xmm1, DWORD PTR [ebx+324]
; File C:\DS Project\DS Files\Source\ClientSource\Client\EterLib\GrpObjectInstance.cpp

; 271  : 	posVertices[3] = TPosition(m_v3TBBoxMax.x, m_v3TBBoxMax.y, m_v3TBBoxMin.z);

  00103	66 0f d6 85 78
	ff ff ff	 movq	 QWORD PTR _posVertices$[ebp+36], xmm0

; 272  : 	posVertices[4] = TPosition(m_v3TBBoxMin.x, m_v3TBBoxMin.y, m_v3TBBoxMax.z);

  0010b	0f 28 c5	 movaps	 xmm0, xmm5
  0010e	89 45 80	 mov	 DWORD PTR _posVertices$[ebp+44], eax
; File C:\DS Project\DS Files\Source\ClientSource\extern\include\d3dx8math.inl

; 182  :     z = fz;

  00111	f3 0f 11 8d 38
	ff ff ff	 movss	 DWORD PTR $T4[ebp+8], xmm1
; File C:\DS Project\DS Files\Source\ClientSource\Client\EterLib\GrpObjectInstance.cpp

; 272  : 	posVertices[4] = TPosition(m_v3TBBoxMin.x, m_v3TBBoxMin.y, m_v3TBBoxMax.z);

  00119	8b 85 38 ff ff
	ff		 mov	 eax, DWORD PTR $T4[ebp+8]
  0011f	0f 14 c3	 unpcklps xmm0, xmm3
  00122	89 45 8c	 mov	 DWORD PTR _posVertices$[ebp+56], eax
; File C:\DS Project\DS Files\Source\ClientSource\extern\include\d3dx8math.inl

; 182  :     z = fz;

  00125	f3 0f 11 8d 38
	ff ff ff	 movss	 DWORD PTR $T3[ebp+8], xmm1
; File C:\DS Project\DS Files\Source\ClientSource\Client\EterLib\GrpObjectInstance.cpp

; 273  : 	posVertices[5] = TPosition(m_v3TBBoxMax.x, m_v3TBBoxMin.y, m_v3TBBoxMax.z);

  0012d	8b 85 38 ff ff
	ff		 mov	 eax, DWORD PTR $T3[ebp+8]
  00133	66 0f d6 45 84	 movq	 QWORD PTR _posVertices$[ebp+48], xmm0
  00138	0f 28 c4	 movaps	 xmm0, xmm4
  0013b	89 45 98	 mov	 DWORD PTR _posVertices$[ebp+68], eax
; File C:\DS Project\DS Files\Source\ClientSource\extern\include\d3dx8math.inl

; 182  :     z = fz;

  0013e	f3 0f 11 8d 38
	ff ff ff	 movss	 DWORD PTR $T2[ebp+8], xmm1
; File C:\DS Project\DS Files\Source\ClientSource\Client\EterLib\GrpObjectInstance.cpp

; 274  : 	posVertices[6] = TPosition(m_v3TBBoxMin.x, m_v3TBBoxMax.y, m_v3TBBoxMax.z);

  00146	8b 85 38 ff ff
	ff		 mov	 eax, DWORD PTR $T2[ebp+8]
  0014c	56		 push	 esi
  0014d	0f 14 c3	 unpcklps xmm0, xmm3
  00150	0f 14 ea	 unpcklps xmm5, xmm2
  00153	89 45 a4	 mov	 DWORD PTR _posVertices$[ebp+80], eax
; File C:\DS Project\DS Files\Source\ClientSource\extern\include\d3dx8math.inl

; 182  :     z = fz;

  00156	f3 0f 11 8d 38
	ff ff ff	 movss	 DWORD PTR $T1[ebp+8], xmm1
; File C:\DS Project\DS Files\Source\ClientSource\Client\EterLib\GrpObjectInstance.cpp

; 275  : 	posVertices[7] = TPosition(m_v3TBBoxMax.x, m_v3TBBoxMax.y, m_v3TBBoxMax.z);

  0015e	8b 85 38 ff ff
	ff		 mov	 eax, DWORD PTR $T1[ebp+8]
  00164	0f 14 e2	 unpcklps xmm4, xmm2
  00167	57		 push	 edi
  00168	89 8d 24 ff ff
	ff		 mov	 DWORD PTR _pu$GSCopy$1$[ebp], ecx
  0016e	66 0f d6 45 90	 movq	 QWORD PTR _posVertices$[ebp+60], xmm0
  00173	66 0f d6 6d 9c	 movq	 QWORD PTR _posVertices$[ebp+72], xmm5
  00178	66 0f d6 65 a8	 movq	 QWORD PTR _posVertices$[ebp+84], xmm4
  0017d	89 45 b0	 mov	 DWORD PTR _posVertices$[ebp+92], eax

; 276  : 
; 277  : 	TIndex Indices[36] = {0, 1, 2, 1, 3, 2,

  00180	c7 45 b4 00 00
	01 00		 mov	 DWORD PTR _Indices$[ebp], 65536 ; 00010000H
  00187	c7 45 b8 02 00
	01 00		 mov	 DWORD PTR _Indices$[ebp+4], 65538 ; 00010002H
  0018e	c7 45 bc 03 00
	02 00		 mov	 DWORD PTR _Indices$[ebp+8], 131075 ; 00020003H

; 278  : 						  2, 0, 6, 0, 4, 6,

  00195	c7 45 c0 02 00
	00 00		 mov	 DWORD PTR _Indices$[ebp+12], 2
  0019c	c7 45 c4 06 00
	00 00		 mov	 DWORD PTR _Indices$[ebp+16], 6
  001a3	c7 45 c8 04 00
	06 00		 mov	 DWORD PTR _Indices$[ebp+20], 393220 ; 00060004H

; 279  : 						  0, 1, 4, 1, 5, 4,

  001aa	c7 45 cc 00 00
	01 00		 mov	 DWORD PTR _Indices$[ebp+24], 65536 ; 00010000H
  001b1	c7 45 d0 04 00
	01 00		 mov	 DWORD PTR _Indices$[ebp+28], 65540 ; 00010004H
  001b8	c7 45 d4 05 00
	04 00		 mov	 DWORD PTR _Indices$[ebp+32], 262149 ; 00040005H

; 280  : 						  1, 3, 5, 3, 7, 5,

  001bf	c7 45 d8 01 00
	03 00		 mov	 DWORD PTR _Indices$[ebp+36], 196609 ; 00030001H
  001c6	c7 45 dc 05 00
	03 00		 mov	 DWORD PTR _Indices$[ebp+40], 196613 ; 00030005H
; File C:\DS Project\DS Files\Source\ClientSource\extern\include\d3dx8math.inl

; 180  :     x = fx;

  001cd	8d 75 b6	 lea	 esi, DWORD PTR _Indices$[ebp+2]
; File C:\DS Project\DS Files\Source\ClientSource\Client\EterLib\GrpObjectInstance.cpp

; 280  : 						  1, 3, 5, 3, 7, 5,

  001d0	c7 45 e0 07 00
	05 00		 mov	 DWORD PTR _Indices$[ebp+44], 327687 ; 00050007H

; 281  : 						  3, 2, 7, 2, 6, 7,
; 282  : 						  4, 5, 6, 5, 7, 6};
; 283  : 
; 284  : 	int triCount = 12;

  001d7	bf 0c 00 00 00	 mov	 edi, 12			; 0000000cH
  001dc	c7 45 e4 03 00
	02 00		 mov	 DWORD PTR _Indices$[ebp+48], 131075 ; 00020003H
  001e3	c7 45 e8 07 00
	02 00		 mov	 DWORD PTR _Indices$[ebp+52], 131079 ; 00020007H
  001ea	c7 45 ec 06 00
	07 00		 mov	 DWORD PTR _Indices$[ebp+56], 458758 ; 00070006H
  001f1	c7 45 f0 04 00
	05 00		 mov	 DWORD PTR _Indices$[ebp+60], 327684 ; 00050004H
  001f8	c7 45 f4 06 00
	05 00		 mov	 DWORD PTR _Indices$[ebp+64], 327686 ; 00050006H
  001ff	c7 45 f8 07 00
	06 00		 mov	 DWORD PTR _Indices$[ebp+68], 393223 ; 00060007H
  00206	66 66 0f 1f 84
	00 00 00 00 00	 npad	 10
$LL2@isIntersec:

; 285  : 	WORD* pcurIdx = (WORD*)Indices;
; 286  : 
; 287  : 	while (triCount--)
; 288  : 	{
; 289  : 		if (IntersectTriangle(v3Start, v3Dir,

  00210	ff b5 2c ff ff
	ff		 push	 DWORD PTR _pt$GSCopy$1$[ebp]
  00216	0f b7 46 02	 movzx	 eax, WORD PTR [esi+2]
  0021a	4f		 dec	 edi
  0021b	ff b5 28 ff ff
	ff		 push	 DWORD PTR _pv$GSCopy$1$[ebp]
  00221	51		 push	 ecx
  00222	8d 04 40	 lea	 eax, DWORD PTR [eax+eax*2]
  00225	8d 8d 54 ff ff
	ff		 lea	 ecx, DWORD PTR _posVertices$[ebp]
  0022b	8d 04 81	 lea	 eax, DWORD PTR [ecx+eax*4]
  0022e	50		 push	 eax
  0022f	0f b7 06	 movzx	 eax, WORD PTR [esi]
  00232	8d 04 40	 lea	 eax, DWORD PTR [eax+eax*2]
  00235	8d 04 81	 lea	 eax, DWORD PTR [ecx+eax*4]
  00238	50		 push	 eax
  00239	0f b7 46 fe	 movzx	 eax, WORD PTR [esi-2]
  0023d	8d 04 40	 lea	 eax, DWORD PTR [eax+eax*2]
  00240	8d 04 81	 lea	 eax, DWORD PTR [ecx+eax*4]
  00243	8b cb		 mov	 ecx, ebx
  00245	50		 push	 eax
  00246	8d 85 48 ff ff
	ff		 lea	 eax, DWORD PTR _v3Dir$[ebp]
  0024c	50		 push	 eax
  0024d	8d 85 3c ff ff
	ff		 lea	 eax, DWORD PTR _v3Start$[ebp]
  00253	50		 push	 eax
  00254	e8 00 00 00 00	 call	 ?IntersectTriangle@CGraphicCollisionObject@@IAE_NABUD3DXVECTOR3@@0000PAM11@Z ; CGraphicCollisionObject::IntersectTriangle
  00259	84 c0		 test	 al, al
  0025b	75 20		 jne	 SHORT $LN32@isIntersec

; 290  : 			posVertices[pcurIdx[0]],
; 291  : 			posVertices[pcurIdx[1]],
; 292  : 			posVertices[pcurIdx[2]],
; 293  : 			pu, pv, pt))
; 294  : 		{
; 295  : 			return true;
; 296  : 		}
; 297  : 
; 298  : 		pcurIdx += 3;

  0025d	8b 8d 24 ff ff
	ff		 mov	 ecx, DWORD PTR _pu$GSCopy$1$[ebp]
  00263	83 c6 06	 add	 esi, 6
  00266	85 ff		 test	 edi, edi
  00268	75 a6		 jne	 SHORT $LL2@isIntersec

; 299  : 	}
; 300  : 
; 301  : 	return false;
; 302  : }

  0026a	5f		 pop	 edi
  0026b	5e		 pop	 esi
  0026c	5b		 pop	 ebx
  0026d	8b 4d fc	 mov	 ecx, DWORD PTR __$ArrayPad$[ebp]
  00270	33 cd		 xor	 ecx, ebp
  00272	e8 00 00 00 00	 call	 @__security_check_cookie@4
  00277	8b e5		 mov	 esp, ebp
  00279	5d		 pop	 ebp
  0027a	c2 10 00	 ret	 16			; 00000010H
$LN32@isIntersec:
  0027d	8b 4d fc	 mov	 ecx, DWORD PTR __$ArrayPad$[ebp]
  00280	b0 01		 mov	 al, 1
  00282	5f		 pop	 edi
  00283	5e		 pop	 esi
  00284	33 cd		 xor	 ecx, ebp
  00286	5b		 pop	 ebx
  00287	e8 00 00 00 00	 call	 @__security_check_cookie@4
  0028c	8b e5		 mov	 esp, ebp
  0028e	5d		 pop	 ebp
  0028f	c2 10 00	 ret	 16			; 00000010H
?isIntersect@CGraphicObjectInstance@@QAE_NABVCRay@@PAM11@Z ENDP ; CGraphicObjectInstance::isIntersect
_TEXT	ENDS
; Function compile flags: /Ogtp
; File C:\DS Project\DS Files\Source\ClientSource\Client\EterLib\GrpObjectInstance.cpp
;	COMDAT ?isShow@CGraphicObjectInstance@@QAE_NXZ
_TEXT	SEGMENT
?isShow@CGraphicObjectInstance@@QAE_NXZ PROC		; CGraphicObjectInstance::isShow, COMDAT
; _this$ = ecx

; 247  : 	return m_isVisible;

  00000	8a 41 68	 mov	 al, BYTE PTR [ecx+104]

; 248  : }

  00003	c3		 ret	 0
?isShow@CGraphicObjectInstance@@QAE_NXZ ENDP		; CGraphicObjectInstance::isShow
_TEXT	ENDS
; Function compile flags: /Ogtp
; File C:\DS Project\DS Files\Source\ClientSource\Client\EterLib\GrpObjectInstance.cpp
;	COMDAT ?Hide@CGraphicObjectInstance@@QAEXXZ
_TEXT	SEGMENT
?Hide@CGraphicObjectInstance@@QAEXXZ PROC		; CGraphicObjectInstance::Hide, COMDAT
; _this$ = ecx

; 243  : 	m_isVisible = false;

  00000	c6 41 68 00	 mov	 BYTE PTR [ecx+104], 0

; 244  : }

  00004	c3		 ret	 0
?Hide@CGraphicObjectInstance@@QAEXXZ ENDP		; CGraphicObjectInstance::Hide
_TEXT	ENDS
; Function compile flags: /Ogtp
; File C:\DS Project\DS Files\Source\ClientSource\Client\EterLib\GrpObjectInstance.cpp
;	COMDAT ?Show@CGraphicObjectInstance@@QAEXXZ
_TEXT	SEGMENT
?Show@CGraphicObjectInstance@@QAEXXZ PROC		; CGraphicObjectInstance::Show, COMDAT
; _this$ = ecx

; 238  : 	m_isVisible = true;

  00000	c6 41 68 01	 mov	 BYTE PTR [ecx+104], 1

; 239  : }

  00004	c3		 ret	 0
?Show@CGraphicObjectInstance@@QAEXXZ ENDP		; CGraphicObjectInstance::Show
_TEXT	ENDS
; Function compile flags: /Ogtp
; File C:\DS Project\DS Files\Source\ClientSource\Client\EterLib\GrpObjectInstance.cpp
;	COMDAT ?Transform@CGraphicObjectInstance@@QAEXXZ
_TEXT	SEGMENT
_tmp2$ = -132						; size = 64
_tmp1$ = -68						; size = 64
__$ArrayPad$ = -4					; size = 4
?Transform@CGraphicObjectInstance@@QAEXXZ PROC		; CGraphicObjectInstance::Transform, COMDAT
; _this$ = ecx

; 110  : {

  00000	55		 push	 ebp
  00001	8b ec		 mov	 ebp, esp
  00003	81 ec 84 00 00
	00		 sub	 esp, 132		; 00000084H
  00009	a1 00 00 00 00	 mov	 eax, DWORD PTR ___security_cookie
  0000e	33 c5		 xor	 eax, ebp
  00010	89 45 fc	 mov	 DWORD PTR __$ArrayPad$[ebp], eax
  00013	53		 push	 ebx
  00014	56		 push	 esi
  00015	8b d9		 mov	 ebx, ecx

; 111  : #ifdef ENABLE_OBJ_SCALLING
; 112  : 	D3DXMATRIX tmp1;
; 113  : 	D3DXMatrixMultiply(&tmp1, &m_PositionMatrix, &m_mRotation);

  00017	8d 45 bc	 lea	 eax, DWORD PTR _tmp1$[ebp]
  0001a	57		 push	 edi
  0001b	8d 7b 28	 lea	 edi, DWORD PTR [ebx+40]
  0001e	57		 push	 edi
  0001f	8d b3 b8 01 00
	00		 lea	 esi, DWORD PTR [ebx+440]
  00025	56		 push	 esi
  00026	50		 push	 eax
  00027	e8 00 00 00 00	 call	 _D3DXMatrixMultiply@12

; 114  : 
; 115  : 	m_worldMatrix = tmp1;

  0002c	0f 10 45 bc	 movups	 xmm0, XMMWORD PTR _tmp1$[ebp]

; 116  : 	m_worldMatrix._41 += m_v3Position.x;
; 117  : 	m_worldMatrix._42 += m_v3Position.y;
; 118  : 	m_worldMatrix._43 += m_v3Position.z;
; 119  : 	D3DXMatrixMultiply(&tmp1, &m_PositionMatrix, &m_ScaleMatrix);

  00030	8d 83 78 01 00
	00		 lea	 eax, DWORD PTR [ebx+376]
  00036	50		 push	 eax
  00037	0f 11 43 6c	 movups	 XMMWORD PTR [ebx+108], xmm0
  0003b	56		 push	 esi
  0003c	0f 10 45 cc	 movups	 xmm0, XMMWORD PTR _tmp1$[ebp+16]
  00040	8d 45 bc	 lea	 eax, DWORD PTR _tmp1$[ebp]
  00043	50		 push	 eax
  00044	0f 11 43 7c	 movups	 XMMWORD PTR [ebx+124], xmm0
  00048	0f 10 45 dc	 movups	 xmm0, XMMWORD PTR _tmp1$[ebp+32]
  0004c	0f 11 83 8c 00
	00 00		 movups	 XMMWORD PTR [ebx+140], xmm0
  00053	0f 10 45 ec	 movups	 xmm0, XMMWORD PTR _tmp1$[ebp+48]
  00057	0f 11 83 9c 00
	00 00		 movups	 XMMWORD PTR [ebx+156], xmm0
  0005e	f3 0f 10 43 04	 movss	 xmm0, DWORD PTR [ebx+4]
  00063	f3 0f 58 83 9c
	00 00 00	 addss	 xmm0, DWORD PTR [ebx+156]
  0006b	f3 0f 11 83 9c
	00 00 00	 movss	 DWORD PTR [ebx+156], xmm0
  00073	f3 0f 10 83 a0
	00 00 00	 movss	 xmm0, DWORD PTR [ebx+160]
  0007b	f3 0f 58 43 08	 addss	 xmm0, DWORD PTR [ebx+8]
  00080	f3 0f 11 83 a0
	00 00 00	 movss	 DWORD PTR [ebx+160], xmm0
  00088	f3 0f 10 43 0c	 movss	 xmm0, DWORD PTR [ebx+12]
  0008d	f3 0f 58 83 a4
	00 00 00	 addss	 xmm0, DWORD PTR [ebx+164]
  00095	f3 0f 11 83 a4
	00 00 00	 movss	 DWORD PTR [ebx+164], xmm0
  0009d	e8 00 00 00 00	 call	 _D3DXMatrixMultiply@12

; 120  : 
; 121  : 	D3DXMATRIX tmp2;
; 122  : 	D3DXMatrixMultiply(&tmp2, &tmp1, &m_mRotation);

  000a2	57		 push	 edi
  000a3	8d 45 bc	 lea	 eax, DWORD PTR _tmp1$[ebp]
  000a6	50		 push	 eax
  000a7	8d 85 7c ff ff
	ff		 lea	 eax, DWORD PTR _tmp2$[ebp]
  000ad	50		 push	 eax
  000ae	e8 00 00 00 00	 call	 _D3DXMatrixMultiply@12

; 123  : 
; 124  : 	m_TransformMatrix = tmp2;

  000b3	0f 10 85 7c ff
	ff ff		 movups	 xmm0, XMMWORD PTR _tmp2$[ebp]

; 125  : 	m_TransformMatrix._41 = m_v3ScalePosition.x + m_v3Position.x + m_TransformMatrix._41;
; 126  : 	m_TransformMatrix._42 = m_v3ScalePosition.y + m_v3Position.y + m_TransformMatrix._42;
; 127  : 	m_TransformMatrix._43 = m_v3ScalePosition.z + m_v3Position.z + m_TransformMatrix._43;
; 128  : #else
; 129  : 	m_worldMatrix = m_mRotation;
; 130  : 
; 131  : 	m_worldMatrix._41	+= m_v3Position.x;
; 132  : 	m_worldMatrix._42	+= m_v3Position.y;
; 133  : 	m_worldMatrix._43	+= m_v3Position.z;
; 134  : #endif
; 135  : }

  000ba	8b 4d fc	 mov	 ecx, DWORD PTR __$ArrayPad$[ebp]
  000bd	5f		 pop	 edi
  000be	0f 11 83 f8 01
	00 00		 movups	 XMMWORD PTR [ebx+504], xmm0
  000c5	5e		 pop	 esi
  000c6	0f 10 45 8c	 movups	 xmm0, XMMWORD PTR _tmp2$[ebp+16]
  000ca	33 cd		 xor	 ecx, ebp
  000cc	0f 11 83 08 02
	00 00		 movups	 XMMWORD PTR [ebx+520], xmm0
  000d3	0f 10 45 9c	 movups	 xmm0, XMMWORD PTR _tmp2$[ebp+32]
  000d7	0f 11 83 18 02
	00 00		 movups	 XMMWORD PTR [ebx+536], xmm0
  000de	0f 10 45 ac	 movups	 xmm0, XMMWORD PTR _tmp2$[ebp+48]
  000e2	0f 11 83 28 02
	00 00		 movups	 XMMWORD PTR [ebx+552], xmm0
  000e9	f3 0f 10 83 6c
	01 00 00	 movss	 xmm0, DWORD PTR [ebx+364]
  000f1	f3 0f 58 43 04	 addss	 xmm0, DWORD PTR [ebx+4]
  000f6	f3 0f 58 83 28
	02 00 00	 addss	 xmm0, DWORD PTR [ebx+552]
  000fe	f3 0f 11 83 28
	02 00 00	 movss	 DWORD PTR [ebx+552], xmm0
  00106	f3 0f 10 83 70
	01 00 00	 movss	 xmm0, DWORD PTR [ebx+368]
  0010e	f3 0f 58 43 08	 addss	 xmm0, DWORD PTR [ebx+8]
  00113	f3 0f 58 83 2c
	02 00 00	 addss	 xmm0, DWORD PTR [ebx+556]
  0011b	f3 0f 11 83 2c
	02 00 00	 movss	 DWORD PTR [ebx+556], xmm0
  00123	f3 0f 10 83 74
	01 00 00	 movss	 xmm0, DWORD PTR [ebx+372]
  0012b	f3 0f 58 43 0c	 addss	 xmm0, DWORD PTR [ebx+12]
  00130	f3 0f 58 83 30
	02 00 00	 addss	 xmm0, DWORD PTR [ebx+560]
  00138	f3 0f 11 83 30
	02 00 00	 movss	 DWORD PTR [ebx+560], xmm0
  00140	5b		 pop	 ebx
  00141	e8 00 00 00 00	 call	 @__security_check_cookie@4
  00146	8b e5		 mov	 esp, ebp
  00148	5d		 pop	 ebp
  00149	c3		 ret	 0
?Transform@CGraphicObjectInstance@@QAEXXZ ENDP		; CGraphicObjectInstance::Transform
_TEXT	ENDS
; Function compile flags: /Ogtp
; File C:\DS Project\DS Files\Source\ClientSource\Client\EterLib\GrpObjectInstance.cpp
;	COMDAT ?Deform@CGraphicObjectInstance@@QAEXXZ
_TEXT	SEGMENT
?Deform@CGraphicObjectInstance@@QAEXXZ PROC		; CGraphicObjectInstance::Deform, COMDAT
; _this$ = ecx

; 101  : {

  00000	56		 push	 esi
  00001	8b f1		 mov	 esi, ecx

; 102  : 	if (!isShow())

  00003	e8 00 00 00 00	 call	 ?isShow@CGraphicObjectInstance@@QAE_NXZ ; CGraphicObjectInstance::isShow
  00008	84 c0		 test	 al, al
  0000a	74 08		 je	 SHORT $LN1@Deform

; 103  : 		return;
; 104  : 
; 105  : 	OnDeform();

  0000c	8b 06		 mov	 eax, DWORD PTR [esi]
  0000e	8b ce		 mov	 ecx, esi
  00010	5e		 pop	 esi
  00011	ff 60 2c	 jmp	 DWORD PTR [eax+44]
$LN1@Deform:
  00014	5e		 pop	 esi

; 106  : }

  00015	c3		 ret	 0
?Deform@CGraphicObjectInstance@@QAEXXZ ENDP		; CGraphicObjectInstance::Deform
_TEXT	ENDS
; Function compile flags: /Ogtp
; File C:\DS Project\DS Files\Source\ClientSource\Client\EterLib\GrpObjectInstance.cpp
;	COMDAT ?RenderPCBlocker@CGraphicObjectInstance@@QAEXXZ
_TEXT	SEGMENT
?RenderPCBlocker@CGraphicObjectInstance@@QAEXXZ PROC	; CGraphicObjectInstance::RenderPCBlocker, COMDAT
; _this$ = ecx

; 86   : {

  00000	56		 push	 esi
  00001	8b f1		 mov	 esi, ecx

; 87   : 	if (!isShow())

  00003	e8 00 00 00 00	 call	 ?isShow@CGraphicObjectInstance@@QAE_NXZ ; CGraphicObjectInstance::isShow
  00008	84 c0		 test	 al, al
  0000a	74 08		 je	 SHORT $LN1@RenderPCBl

; 88   : 		return;
; 89   : 
; 90   : 	OnRenderPCBlocker();

  0000c	8b 06		 mov	 eax, DWORD PTR [esi]
  0000e	8b ce		 mov	 ecx, esi
  00010	5e		 pop	 esi
  00011	ff 60 20	 jmp	 DWORD PTR [eax+32]
$LN1@RenderPCBl:
  00014	5e		 pop	 esi

; 91   : }

  00015	c3		 ret	 0
?RenderPCBlocker@CGraphicObjectInstance@@QAEXXZ ENDP	; CGraphicObjectInstance::RenderPCBlocker
_TEXT	ENDS
; Function compile flags: /Ogtp
; File C:\DS Project\DS Files\Source\ClientSource\Client\EterLib\GrpObjectInstance.cpp
;	COMDAT ?RenderShadow@CGraphicObjectInstance@@QAEXXZ
_TEXT	SEGMENT
?RenderShadow@CGraphicObjectInstance@@QAEXXZ PROC	; CGraphicObjectInstance::RenderShadow, COMDAT
; _this$ = ecx

; 78   : {

  00000	56		 push	 esi
  00001	8b f1		 mov	 esi, ecx

; 79   : 	if (!isShow())

  00003	e8 00 00 00 00	 call	 ?isShow@CGraphicObjectInstance@@QAE_NXZ ; CGraphicObjectInstance::isShow
  00008	84 c0		 test	 al, al
  0000a	74 08		 je	 SHORT $LN1@RenderShad

; 80   : 		return;
; 81   : 
; 82   : 	OnRenderShadow();

  0000c	8b 06		 mov	 eax, DWORD PTR [esi]
  0000e	8b ce		 mov	 ecx, esi
  00010	5e		 pop	 esi
  00011	ff 60 1c	 jmp	 DWORD PTR [eax+28]
$LN1@RenderShad:
  00014	5e		 pop	 esi

; 83   : }

  00015	c3		 ret	 0
?RenderShadow@CGraphicObjectInstance@@QAEXXZ ENDP	; CGraphicObjectInstance::RenderShadow
_TEXT	ENDS
; Function compile flags: /Ogtp
; File C:\DS Project\DS Files\Source\ClientSource\Client\EterLib\GrpObjectInstance.cpp
;	COMDAT ?RenderToShadowMap@CGraphicObjectInstance@@QAEXXZ
_TEXT	SEGMENT
?RenderToShadowMap@CGraphicObjectInstance@@QAEXXZ PROC	; CGraphicObjectInstance::RenderToShadowMap, COMDAT
; _this$ = ecx

; 70   : {

  00000	56		 push	 esi
  00001	8b f1		 mov	 esi, ecx

; 71   : 	if (!isShow())

  00003	e8 00 00 00 00	 call	 ?isShow@CGraphicObjectInstance@@QAE_NXZ ; CGraphicObjectInstance::isShow
  00008	84 c0		 test	 al, al
  0000a	74 08		 je	 SHORT $LN1@RenderToSh

; 72   : 		return;
; 73   : 
; 74   : 	OnRenderToShadowMap();

  0000c	8b 06		 mov	 eax, DWORD PTR [esi]
  0000e	8b ce		 mov	 ecx, esi
  00010	5e		 pop	 esi
  00011	ff 60 18	 jmp	 DWORD PTR [eax+24]
$LN1@RenderToSh:
  00014	5e		 pop	 esi

; 75   : }

  00015	c3		 ret	 0
?RenderToShadowMap@CGraphicObjectInstance@@QAEXXZ ENDP	; CGraphicObjectInstance::RenderToShadowMap
_TEXT	ENDS
; Function compile flags: /Ogtp
; File C:\DS Project\DS Files\Source\ClientSource\Client\EterLib\GrpObjectInstance.cpp
;	COMDAT ?BlendRender@CGraphicObjectInstance@@QAEXXZ
_TEXT	SEGMENT
?BlendRender@CGraphicObjectInstance@@QAEXXZ PROC	; CGraphicObjectInstance::BlendRender, COMDAT
; _this$ = ecx

; 62   : {

  00000	56		 push	 esi
  00001	8b f1		 mov	 esi, ecx

; 63   : 	if (!isShow())

  00003	e8 00 00 00 00	 call	 ?isShow@CGraphicObjectInstance@@QAE_NXZ ; CGraphicObjectInstance::isShow
  00008	84 c0		 test	 al, al
  0000a	74 08		 je	 SHORT $LN1@BlendRende

; 64   : 		return;
; 65   : 
; 66   : 	OnBlendRender();

  0000c	8b 06		 mov	 eax, DWORD PTR [esi]
  0000e	8b ce		 mov	 ecx, esi
  00010	5e		 pop	 esi
  00011	ff 60 14	 jmp	 DWORD PTR [eax+20]
$LN1@BlendRende:
  00014	5e		 pop	 esi

; 67   : }

  00015	c3		 ret	 0
?BlendRender@CGraphicObjectInstance@@QAEXXZ ENDP	; CGraphicObjectInstance::BlendRender
_TEXT	ENDS
; Function compile flags: /Ogtp
; File C:\DS Project\DS Files\Source\ClientSource\Client\EterLib\GrpObjectInstance.cpp
;	COMDAT ?Render@CGraphicObjectInstance@@QAE_NXZ
_TEXT	SEGMENT
?Render@CGraphicObjectInstance@@QAE_NXZ PROC		; CGraphicObjectInstance::Render, COMDAT
; _this$ = ecx

; 41   : {

  00000	56		 push	 esi
  00001	8b f1		 mov	 esi, ecx

; 42   : 	/*
; 43   : 	if (m_CullingHandle)
; 44   : 	{
; 45   : 		SpherePack * ps = m_CullingHandle->GetParent();
; 46   : 		CScreen s;
; 47   : 		s.SetColorOperation();
; 48   : 		//s.SetDiffuseColor(1,isShow()?1:0,0);
; 49   : 		//s.RenderCircle2d(m_CullingHandle->GetCenter().x,m_CullingHandle->GetCenter().y,m_CullingHandle->GetCenter().z,m_CullingHandle->GetRadius());
; 50   : 		s.SetDiffuseColor(1,isShow()?1:0,ps->HasSpherePackFlag(SPF_PARTIAL)?1:0);
; 51   : 		s.RenderCircle2d(ps->GetCenter().x,ps->GetCenter().y,ps->GetCenter().z,ps->GetRadius());
; 52   : 	}
; 53   : 	//*/
; 54   : 	if (!isShow())

  00003	e8 00 00 00 00	 call	 ?isShow@CGraphicObjectInstance@@QAE_NXZ ; CGraphicObjectInstance::isShow
  00008	84 c0		 test	 al, al
  0000a	75 02		 jne	 SHORT $LN2@Render
  0000c	5e		 pop	 esi

; 59   : }

  0000d	c3		 ret	 0
$LN2@Render:

; 55   : 		return false;
; 56   : 
; 57   : 	OnRender();

  0000e	8b 06		 mov	 eax, DWORD PTR [esi]
  00010	8b ce		 mov	 ecx, esi
  00012	ff 50 10	 call	 DWORD PTR [eax+16]

; 58   : 	return true;

  00015	b0 01		 mov	 al, 1
  00017	5e		 pop	 esi

; 59   : }

  00018	c3		 ret	 0
?Render@CGraphicObjectInstance@@QAE_NXZ ENDP		; CGraphicObjectInstance::Render
_TEXT	ENDS
; Function compile flags: /Ogtp
; File C:\DS Project\DS Files\Source\ClientSource\Client\EterLib\GrpObjectInstance.cpp
;	COMDAT ?Update@CGraphicObjectInstance@@QAEXXZ
_TEXT	SEGMENT
?Update@CGraphicObjectInstance@@QAEXXZ PROC		; CGraphicObjectInstance::Update, COMDAT
; _this$ = ecx

; 94   : {

  00000	56		 push	 esi
  00001	8b f1		 mov	 esi, ecx

; 95   : 	OnUpdate();

  00003	8b 06		 mov	 eax, DWORD PTR [esi]
  00005	ff 50 28	 call	 DWORD PTR [eax+40]

; 96   : 
; 97   : 	UpdateBoundingSphere();

  00008	8b ce		 mov	 ecx, esi
  0000a	5e		 pop	 esi
  0000b	e9 00 00 00 00	 jmp	 ?UpdateBoundingSphere@CGraphicObjectInstance@@QAEXXZ ; CGraphicObjectInstance::UpdateBoundingSphere
?Update@CGraphicObjectInstance@@QAEXXZ ENDP		; CGraphicObjectInstance::Update
_TEXT	ENDS
; Function compile flags: /Ogtp
; File C:\DS Project\DS Files\Source\ClientSource\Client\EterLib\GrpObjectInstance.cpp
; File C:\DS Project\DS Files\Source\ClientSource\extern\include\d3dx8math.inl
; File C:\DS Project\DS Files\Source\ClientSource\Client\EterLib\GrpObjectInstance.cpp
; File C:\DS Project\DS Files\Source\ClientSource\extern\include\d3dx8math.inl
; File C:\DS Project\DS Files\Source\ClientSource\Client\EterLib\GrpObjectInstance.cpp
;	COMDAT ?Clear@CGraphicObjectInstance@@QAEXXZ
_TEXT	SEGMENT
?Clear@CGraphicObjectInstance@@QAEXXZ PROC		; CGraphicObjectInstance::Clear, COMDAT
; _this$ = ecx

; 11   : {

  00000	56		 push	 esi
  00001	8b f1		 mov	 esi, ecx

; 12   : 	if (m_CullingHandle)

  00003	8b 86 68 01 00
	00		 mov	 eax, DWORD PTR [esi+360]
  00009	85 c0		 test	 eax, eax
  0000b	74 16		 je	 SHORT $LN2@Clear

; 13   : 	{
; 14   : 		CCullingManager::Instance().Unregister(m_CullingHandle);

  0000d	8b 0d 00 00 00
	00		 mov	 ecx, DWORD PTR ?ms_singleton@?$CSingleton@VCCullingManager@@@@0PAVCCullingManager@@A ; CSingleton<CCullingManager>::ms_singleton
  00013	50		 push	 eax
  00014	e8 00 00 00 00	 call	 ?Unregister@CCullingManager@@QAEXPAVSpherePack@@@Z ; CCullingManager::Unregister

; 15   : 		m_CullingHandle = NULL;

  00019	c7 86 68 01 00
	00 00 00 00 00	 mov	 DWORD PTR [esi+360], 0
$LN2@Clear:

; 16   : 	}
; 17   : 
; 18   : 	ClearHeightInstance();

  00023	8b ce		 mov	 ecx, esi
  00025	e8 00 00 00 00	 call	 ?ClearHeightInstance@CGraphicObjectInstance@@QAEXXZ ; CGraphicObjectInstance::ClearHeightInstance
  0002a	0f 57 c0	 xorps	 xmm0, xmm0

; 19   : 
; 20   : 	m_isVisible = TRUE;

  0002d	c6 46 68 01	 mov	 BYTE PTR [esi+104], 1

; 21   : 
; 22   : 	m_v3Position.x = m_v3Position.y = m_v3Position.z = 0.0f;

  00031	c7 46 0c 00 00
	00 00		 mov	 DWORD PTR [esi+12], 0
  00038	c7 46 08 00 00
	00 00		 mov	 DWORD PTR [esi+8], 0
  0003f	c7 46 04 00 00
	00 00		 mov	 DWORD PTR [esi+4], 0

; 23   : 	m_v3Scale.x = m_v3Scale.y = m_v3Scale.z = 0.0f;

  00046	c7 46 18 00 00
	00 00		 mov	 DWORD PTR [esi+24], 0
  0004d	c7 46 14 00 00
	00 00		 mov	 DWORD PTR [esi+20], 0
  00054	c7 46 10 00 00
	00 00		 mov	 DWORD PTR [esi+16], 0

; 24   : 	//m_fRotation = 0.0f;
; 25   : 	m_fYaw = m_fPitch = m_fRoll = 0.0f;

  0005b	c7 46 24 00 00
	00 00		 mov	 DWORD PTR [esi+36], 0
  00062	c7 46 20 00 00
	00 00		 mov	 DWORD PTR [esi+32], 0
  00069	c7 46 1c 00 00
	00 00		 mov	 DWORD PTR [esi+28], 0
; File C:\DS Project\DS Files\Source\ClientSource\extern\include\d3dx8math.inl

; 1516 :     pOut->m[0][1] = pOut->m[0][2] = pOut->m[0][3] =

  00070	c7 86 a4 00 00
	00 00 00 00 00	 mov	 DWORD PTR [esi+164], 0
  0007a	c7 86 a0 00 00
	00 00 00 00 00	 mov	 DWORD PTR [esi+160], 0
  00084	c7 86 9c 00 00
	00 00 00 00 00	 mov	 DWORD PTR [esi+156], 0
  0008e	c7 86 98 00 00
	00 00 00 00 00	 mov	 DWORD PTR [esi+152], 0
  00098	c7 86 90 00 00
	00 00 00 00 00	 mov	 DWORD PTR [esi+144], 0
  000a2	c7 86 8c 00 00
	00 00 00 00 00	 mov	 DWORD PTR [esi+140], 0
  000ac	c7 86 88 00 00
	00 00 00 00 00	 mov	 DWORD PTR [esi+136], 0
  000b6	c7 86 84 00 00
	00 00 00 00 00	 mov	 DWORD PTR [esi+132], 0
  000c0	c7 46 7c 00 00
	00 00		 mov	 DWORD PTR [esi+124], 0
  000c7	c7 46 78 00 00
	00 00		 mov	 DWORD PTR [esi+120], 0
  000ce	c7 46 74 00 00
	00 00		 mov	 DWORD PTR [esi+116], 0
  000d5	c7 46 70 00 00
	00 00		 mov	 DWORD PTR [esi+112], 0

; 1517 :     pOut->m[1][0] = pOut->m[1][2] = pOut->m[1][3] =
; 1518 :     pOut->m[2][0] = pOut->m[2][1] = pOut->m[2][3] =
; 1519 :     pOut->m[3][0] = pOut->m[3][1] = pOut->m[3][2] = 0.0f;
; 1520 : 
; 1521 :     pOut->m[0][0] = pOut->m[1][1] = pOut->m[2][2] = pOut->m[3][3] = 1.0f;

  000dc	c7 86 a8 00 00
	00 00 00 80 3f	 mov	 DWORD PTR [esi+168], 1065353216 ; 3f800000H
  000e6	c7 86 94 00 00
	00 00 00 80 3f	 mov	 DWORD PTR [esi+148], 1065353216 ; 3f800000H
  000f0	c7 86 80 00 00
	00 00 00 80 3f	 mov	 DWORD PTR [esi+128], 1065353216 ; 3f800000H
  000fa	c7 46 6c 00 00
	80 3f		 mov	 DWORD PTR [esi+108], 1065353216 ; 3f800000H
; File C:\DS Project\DS Files\Source\ClientSource\Client\EterLib\GrpObjectInstance.cpp

; 29   : 	m_v3ScalePosition.x = m_v3ScalePosition.y = m_v3ScalePosition.z = 0.0f;

  00101	c7 86 74 01 00
	00 00 00 00 00	 mov	 DWORD PTR [esi+372], 0
  0010b	c7 86 70 01 00
	00 00 00 00 00	 mov	 DWORD PTR [esi+368], 0
  00115	c7 86 6c 01 00
	00 00 00 00 00	 mov	 DWORD PTR [esi+364], 0
; File C:\DS Project\DS Files\Source\ClientSource\extern\include\d3dx8math.inl

; 1516 :     pOut->m[0][1] = pOut->m[0][2] = pOut->m[0][3] =

  0011f	c7 86 b0 01 00
	00 00 00 00 00	 mov	 DWORD PTR [esi+432], 0
  00129	c7 86 ac 01 00
	00 00 00 00 00	 mov	 DWORD PTR [esi+428], 0
  00133	c7 86 a8 01 00
	00 00 00 00 00	 mov	 DWORD PTR [esi+424], 0
  0013d	c7 86 a4 01 00
	00 00 00 00 00	 mov	 DWORD PTR [esi+420], 0
  00147	c7 86 9c 01 00
	00 00 00 00 00	 mov	 DWORD PTR [esi+412], 0
  00151	c7 86 98 01 00
	00 00 00 00 00	 mov	 DWORD PTR [esi+408], 0
  0015b	c7 86 94 01 00
	00 00 00 00 00	 mov	 DWORD PTR [esi+404], 0
  00165	c7 86 90 01 00
	00 00 00 00 00	 mov	 DWORD PTR [esi+400], 0
  0016f	c7 86 88 01 00
	00 00 00 00 00	 mov	 DWORD PTR [esi+392], 0
  00179	c7 86 84 01 00
	00 00 00 00 00	 mov	 DWORD PTR [esi+388], 0
  00183	c7 86 80 01 00
	00 00 00 00 00	 mov	 DWORD PTR [esi+384], 0
  0018d	c7 86 7c 01 00
	00 00 00 00 00	 mov	 DWORD PTR [esi+380], 0

; 1517 :     pOut->m[1][0] = pOut->m[1][2] = pOut->m[1][3] =
; 1518 :     pOut->m[2][0] = pOut->m[2][1] = pOut->m[2][3] =
; 1519 :     pOut->m[3][0] = pOut->m[3][1] = pOut->m[3][2] = 0.0f;
; 1520 : 
; 1521 :     pOut->m[0][0] = pOut->m[1][1] = pOut->m[2][2] = pOut->m[3][3] = 1.0f;

  00197	c7 86 b4 01 00
	00 00 00 80 3f	 mov	 DWORD PTR [esi+436], 1065353216 ; 3f800000H
  001a1	c7 86 a0 01 00
	00 00 00 80 3f	 mov	 DWORD PTR [esi+416], 1065353216 ; 3f800000H
  001ab	c7 86 8c 01 00
	00 00 00 80 3f	 mov	 DWORD PTR [esi+396], 1065353216 ; 3f800000H
  001b5	c7 86 78 01 00
	00 00 00 80 3f	 mov	 DWORD PTR [esi+376], 1065353216 ; 3f800000H

; 1516 :     pOut->m[0][1] = pOut->m[0][2] = pOut->m[0][3] =

  001bf	c7 86 f0 01 00
	00 00 00 00 00	 mov	 DWORD PTR [esi+496], 0
  001c9	c7 86 ec 01 00
	00 00 00 00 00	 mov	 DWORD PTR [esi+492], 0
  001d3	c7 86 e8 01 00
	00 00 00 00 00	 mov	 DWORD PTR [esi+488], 0
  001dd	c7 86 e4 01 00
	00 00 00 00 00	 mov	 DWORD PTR [esi+484], 0
  001e7	c7 86 dc 01 00
	00 00 00 00 00	 mov	 DWORD PTR [esi+476], 0
  001f1	c7 86 d8 01 00
	00 00 00 00 00	 mov	 DWORD PTR [esi+472], 0
  001fb	c7 86 d4 01 00
	00 00 00 00 00	 mov	 DWORD PTR [esi+468], 0
  00205	c7 86 d0 01 00
	00 00 00 00 00	 mov	 DWORD PTR [esi+464], 0
  0020f	c7 86 c8 01 00
	00 00 00 00 00	 mov	 DWORD PTR [esi+456], 0
  00219	c7 86 c4 01 00
	00 00 00 00 00	 mov	 DWORD PTR [esi+452], 0
  00223	c7 86 c0 01 00
	00 00 00 00 00	 mov	 DWORD PTR [esi+448], 0
  0022d	c7 86 bc 01 00
	00 00 00 00 00	 mov	 DWORD PTR [esi+444], 0

; 1517 :     pOut->m[1][0] = pOut->m[1][2] = pOut->m[1][3] =
; 1518 :     pOut->m[2][0] = pOut->m[2][1] = pOut->m[2][3] =
; 1519 :     pOut->m[3][0] = pOut->m[3][1] = pOut->m[3][2] = 0.0f;
; 1520 : 
; 1521 :     pOut->m[0][0] = pOut->m[1][1] = pOut->m[2][2] = pOut->m[3][3] = 1.0f;

  00237	c7 86 f4 01 00
	00 00 00 80 3f	 mov	 DWORD PTR [esi+500], 1065353216 ; 3f800000H
  00241	c7 86 e0 01 00
	00 00 00 80 3f	 mov	 DWORD PTR [esi+480], 1065353216 ; 3f800000H
  0024b	c7 86 cc 01 00
	00 00 00 80 3f	 mov	 DWORD PTR [esi+460], 1065353216 ; 3f800000H
  00255	c7 86 b8 01 00
	00 00 00 80 3f	 mov	 DWORD PTR [esi+440], 1065353216 ; 3f800000H

; 1516 :     pOut->m[0][1] = pOut->m[0][2] = pOut->m[0][3] =

  0025f	c7 86 30 02 00
	00 00 00 00 00	 mov	 DWORD PTR [esi+560], 0
  00269	c7 86 2c 02 00
	00 00 00 00 00	 mov	 DWORD PTR [esi+556], 0
  00273	c7 86 28 02 00
	00 00 00 00 00	 mov	 DWORD PTR [esi+552], 0
  0027d	c7 86 24 02 00
	00 00 00 00 00	 mov	 DWORD PTR [esi+548], 0
  00287	c7 86 1c 02 00
	00 00 00 00 00	 mov	 DWORD PTR [esi+540], 0
  00291	c7 86 18 02 00
	00 00 00 00 00	 mov	 DWORD PTR [esi+536], 0
  0029b	c7 86 14 02 00
	00 00 00 00 00	 mov	 DWORD PTR [esi+532], 0
  002a5	c7 86 10 02 00
	00 00 00 00 00	 mov	 DWORD PTR [esi+528], 0
  002af	c7 86 08 02 00
	00 00 00 00 00	 mov	 DWORD PTR [esi+520], 0
  002b9	c7 86 04 02 00
	00 00 00 00 00	 mov	 DWORD PTR [esi+516], 0
  002c3	c7 86 00 02 00
	00 00 00 00 00	 mov	 DWORD PTR [esi+512], 0
  002cd	c7 86 fc 01 00
	00 00 00 00 00	 mov	 DWORD PTR [esi+508], 0

; 1517 :     pOut->m[1][0] = pOut->m[1][2] = pOut->m[1][3] =
; 1518 :     pOut->m[2][0] = pOut->m[2][1] = pOut->m[2][3] =
; 1519 :     pOut->m[3][0] = pOut->m[3][1] = pOut->m[3][2] = 0.0f;
; 1520 : 
; 1521 :     pOut->m[0][0] = pOut->m[1][1] = pOut->m[2][2] = pOut->m[3][3] = 1.0f;

  002d7	c7 86 34 02 00
	00 00 00 80 3f	 mov	 DWORD PTR [esi+564], 1065353216 ; 3f800000H
  002e1	c7 86 20 02 00
	00 00 00 80 3f	 mov	 DWORD PTR [esi+544], 1065353216 ; 3f800000H
  002eb	c7 86 0c 02 00
	00 00 00 80 3f	 mov	 DWORD PTR [esi+524], 1065353216 ; 3f800000H
  002f5	c7 86 f8 01 00
	00 00 00 80 3f	 mov	 DWORD PTR [esi+504], 1065353216 ; 3f800000H
; File C:\DS Project\DS Files\Source\ClientSource\Client\EterLib\GrpObjectInstance.cpp

; 35   : 	ZeroMemory(m_abyPortalID, sizeof(m_abyPortalID));

  002ff	66 0f d6 86 60
	01 00 00	 movq	 QWORD PTR [esi+352], xmm0

; 36   : 
; 37   : 	OnClear();

  00307	8b 06		 mov	 eax, DWORD PTR [esi]
  00309	8b ce		 mov	 ecx, esi
  0030b	5e		 pop	 esi
  0030c	ff 60 24	 jmp	 DWORD PTR [eax+36]
?Clear@CGraphicObjectInstance@@QAEXXZ ENDP		; CGraphicObjectInstance::Clear
_TEXT	ENDS
; Function compile flags: /Ogtp
; File C:\DS Project\DS Files\Source\ClientSource\Client\EterLib\GrpObjectInstance.cpp
;	COMDAT ?SetRotationMatrix@CGraphicObjectInstance@@QAEXABUD3DXMATRIX@@@Z
_TEXT	SEGMENT
_m$ = 8							; size = 4
?SetRotationMatrix@CGraphicObjectInstance@@QAEXABUD3DXMATRIX@@@Z PROC ; CGraphicObjectInstance::SetRotationMatrix, COMDAT
; _this$ = ecx

; 178  : {

  00000	55		 push	 ebp
  00001	8b ec		 mov	 ebp, esp

; 179  : 	m_mRotation = m;

  00003	8b 45 08	 mov	 eax, DWORD PTR _m$[ebp]
  00006	0f 10 00	 movups	 xmm0, XMMWORD PTR [eax]
  00009	0f 11 41 28	 movups	 XMMWORD PTR [ecx+40], xmm0
  0000d	0f 10 40 10	 movups	 xmm0, XMMWORD PTR [eax+16]
  00011	0f 11 41 38	 movups	 XMMWORD PTR [ecx+56], xmm0
  00015	0f 10 40 20	 movups	 xmm0, XMMWORD PTR [eax+32]
  00019	0f 11 41 48	 movups	 XMMWORD PTR [ecx+72], xmm0
  0001d	0f 10 40 30	 movups	 xmm0, XMMWORD PTR [eax+48]
  00021	0f 11 41 58	 movups	 XMMWORD PTR [ecx+88], xmm0

; 180  : }

  00025	5d		 pop	 ebp
  00026	c2 04 00	 ret	 4
?SetRotationMatrix@CGraphicObjectInstance@@QAEXABUD3DXMATRIX@@@Z ENDP ; CGraphicObjectInstance::SetRotationMatrix
_TEXT	ENDS
; Function compile flags: /Ogtp
; File C:\DS Project\DS Files\Source\ClientSource\Client\EterLib\GrpObjectInstance.cpp
;	COMDAT ?SetRotationQuaternion@CGraphicObjectInstance@@QAEXABUD3DXQUATERNION@@@Z
_TEXT	SEGMENT
_q$ = 8							; size = 4
?SetRotationQuaternion@CGraphicObjectInstance@@QAEXABUD3DXQUATERNION@@@Z PROC ; CGraphicObjectInstance::SetRotationQuaternion, COMDAT
; _this$ = ecx

; 173  : {

  00000	55		 push	 ebp
  00001	8b ec		 mov	 ebp, esp

; 174  : 	D3DXMatrixRotationQuaternion(&m_mRotation, &q);

  00003	ff 75 08	 push	 DWORD PTR _q$[ebp]
  00006	8d 41 28	 lea	 eax, DWORD PTR [ecx+40]
  00009	50		 push	 eax
  0000a	e8 00 00 00 00	 call	 _D3DXMatrixRotationQuaternion@8

; 175  : }

  0000f	5d		 pop	 ebp
  00010	c2 04 00	 ret	 4
?SetRotationQuaternion@CGraphicObjectInstance@@QAEXABUD3DXQUATERNION@@@Z ENDP ; CGraphicObjectInstance::SetRotationQuaternion
_TEXT	ENDS
; Function compile flags: /Ogtp
; File C:\DS Project\DS Files\Source\ClientSource\Client\EterLib\GrpObjectInstance.cpp
;	COMDAT ?SetRotation@CGraphicObjectInstance@@QAEXMMM@Z
_TEXT	SEGMENT
_fYaw$ = 8						; size = 4
_fPitch$ = 12						; size = 4
_fRoll$ = 16						; size = 4
?SetRotation@CGraphicObjectInstance@@QAEXMMM@Z PROC	; CGraphicObjectInstance::SetRotation, COMDAT
; _this$ = ecx

; 192  : {

  00000	55		 push	 ebp
  00001	8b ec		 mov	 ebp, esp

; 193  : 	//m_fRotation = fRotation;
; 194  : 	m_fYaw = fYaw;
; 195  : 	m_fPitch = fPitch;
; 196  : 	m_fRoll = fRoll;

  00003	f3 0f 10 45 10	 movss	 xmm0, DWORD PTR _fRoll$[ebp]

; 197  : 
; 198  : 	D3DXMatrixRotationYawPitchRoll(&m_mRotation, D3DXToRadian(fYaw), D3DXToRadian(fPitch), D3DXToRadian(fRoll));

  00008	8d 41 28	 lea	 eax, DWORD PTR [ecx+40]
  0000b	f3 0f 10 0d 00
	00 00 00	 movss	 xmm1, DWORD PTR __real@3c8efa35
  00013	83 ec 0c	 sub	 esp, 12			; 0000000cH
  00016	f3 0f 10 55 0c	 movss	 xmm2, DWORD PTR _fPitch$[ebp]
  0001b	f3 0f 10 5d 08	 movss	 xmm3, DWORD PTR _fYaw$[ebp]
  00020	f3 0f 11 41 24	 movss	 DWORD PTR [ecx+36], xmm0
  00025	f3 0f 11 51 20	 movss	 DWORD PTR [ecx+32], xmm2
  0002a	f3 0f 59 c1	 mulss	 xmm0, xmm1
  0002e	f3 0f 11 59 1c	 movss	 DWORD PTR [ecx+28], xmm3
  00033	f3 0f 59 d1	 mulss	 xmm2, xmm1
  00037	f3 0f 59 d9	 mulss	 xmm3, xmm1
  0003b	f3 0f 11 44 24
	08		 movss	 DWORD PTR [esp+8], xmm0
  00041	f3 0f 11 54 24
	04		 movss	 DWORD PTR [esp+4], xmm2
  00047	f3 0f 11 1c 24	 movss	 DWORD PTR [esp], xmm3
  0004c	50		 push	 eax
  0004d	e8 00 00 00 00	 call	 _D3DXMatrixRotationYawPitchRoll@16

; 199  : }

  00052	5d		 pop	 ebp
  00053	c2 0c 00	 ret	 12			; 0000000cH
?SetRotation@CGraphicObjectInstance@@QAEXMMM@Z ENDP	; CGraphicObjectInstance::SetRotation
_TEXT	ENDS
; Function compile flags: /Ogtp
; File C:\DS Project\DS Files\Source\ClientSource\Client\EterLib\GrpObjectInstance.cpp
;	COMDAT ?SetRotation@CGraphicObjectInstance@@QAEXM@Z
_TEXT	SEGMENT
_fRotation$ = 8						; size = 4
?SetRotation@CGraphicObjectInstance@@QAEXM@Z PROC	; CGraphicObjectInstance::SetRotation, COMDAT
; _this$ = ecx

; 183  : {

  00000	55		 push	 ebp
  00001	8b ec		 mov	 ebp, esp

; 184  : 	m_fYaw = 0;
; 185  : 	m_fPitch = 0;
; 186  : 	m_fRoll = fRotation;

  00003	f3 0f 10 45 08	 movss	 xmm0, DWORD PTR _fRotation$[ebp]

; 187  : 
; 188  : 	D3DXMatrixRotationZ(&m_mRotation, D3DXToRadian(fRotation));

  00008	8d 41 28	 lea	 eax, DWORD PTR [ecx+40]
  0000b	f3 0f 11 41 24	 movss	 DWORD PTR [ecx+36], xmm0
  00010	f3 0f 59 05 00
	00 00 00	 mulss	 xmm0, DWORD PTR __real@3c8efa35
  00018	51		 push	 ecx
  00019	c7 41 1c 00 00
	00 00		 mov	 DWORD PTR [ecx+28], 0
  00020	c7 41 20 00 00
	00 00		 mov	 DWORD PTR [ecx+32], 0
  00027	f3 0f 11 04 24	 movss	 DWORD PTR [esp], xmm0
  0002c	50		 push	 eax
  0002d	e8 00 00 00 00	 call	 _D3DXMatrixRotationZ@8

; 189  : }

  00032	5d		 pop	 ebp
  00033	c2 04 00	 ret	 4
?SetRotation@CGraphicObjectInstance@@QAEXM@Z ENDP	; CGraphicObjectInstance::SetRotation
_TEXT	ENDS
; Function compile flags: /Ogtp
; File C:\DS Project\DS Files\Source\ClientSource\Client\EterLib\GrpObjectInstance.cpp
;	COMDAT ?SetScale@CGraphicObjectInstance@@QAEXMMM_N@Z
_TEXT	SEGMENT
_x$ = 8							; size = 4
_y$ = 12						; size = 4
_z$ = 16						; size = 4
_bScaleNow$ = 20					; size = 1
?SetScale@CGraphicObjectInstance@@QAEXMMM_N@Z PROC	; CGraphicObjectInstance::SetScale, COMDAT
; _this$ = ecx

; 225  : {

  00000	55		 push	 ebp
  00001	8b ec		 mov	 ebp, esp

; 226  : 	m_v3Scale.x = x;
; 227  : 	m_v3Scale.y = y;
; 228  : 	m_v3Scale.z = z;
; 229  : 
; 230  : #ifdef ENABLE_OBJ_SCALLING
; 231  : 	if (bScaleNow)

  00003	80 7d 14 00	 cmp	 BYTE PTR _bScaleNow$[ebp], 0
  00007	f3 0f 10 45 08	 movss	 xmm0, DWORD PTR _x$[ebp]
  0000c	f3 0f 10 4d 0c	 movss	 xmm1, DWORD PTR _y$[ebp]
  00011	f3 0f 10 55 10	 movss	 xmm2, DWORD PTR _z$[ebp]
  00016	f3 0f 11 41 10	 movss	 DWORD PTR [ecx+16], xmm0
  0001b	f3 0f 11 49 14	 movss	 DWORD PTR [ecx+20], xmm1
  00020	f3 0f 11 51 18	 movss	 DWORD PTR [ecx+24], xmm2
  00025	74 20		 je	 SHORT $LN2@SetScale

; 232  : 		D3DXMatrixScaling(&m_ScaleMatrix, m_v3Scale.x, m_v3Scale.y, m_v3Scale.z);

  00027	83 ec 0c	 sub	 esp, 12			; 0000000cH
  0002a	8d 81 78 01 00
	00		 lea	 eax, DWORD PTR [ecx+376]
  00030	f3 0f 11 54 24
	08		 movss	 DWORD PTR [esp+8], xmm2
  00036	f3 0f 11 4c 24
	04		 movss	 DWORD PTR [esp+4], xmm1
  0003c	f3 0f 11 04 24	 movss	 DWORD PTR [esp], xmm0
  00041	50		 push	 eax
  00042	e8 00 00 00 00	 call	 _D3DXMatrixScaling@16
$LN2@SetScale:

; 233  : #endif
; 234  : }

  00047	5d		 pop	 ebp
  00048	c2 10 00	 ret	 16			; 00000010H
?SetScale@CGraphicObjectInstance@@QAEXMMM_N@Z ENDP	; CGraphicObjectInstance::SetScale
_TEXT	ENDS
; Function compile flags: /Ogtp
; File C:\DS Project\DS Files\Source\ClientSource\Client\EterLib\GrpObjectInstance.cpp
;	COMDAT ?SetScalePosition@CGraphicObjectInstance@@QAEXMMM@Z
_TEXT	SEGMENT
_x$ = 8							; size = 4
_y$ = 12						; size = 4
_z$ = 16						; size = 4
?SetScalePosition@CGraphicObjectInstance@@QAEXMMM@Z PROC ; CGraphicObjectInstance::SetScalePosition, COMDAT
; _this$ = ecx

; 215  : {

  00000	55		 push	 ebp
  00001	8b ec		 mov	 ebp, esp

; 216  : 	m_v3ScalePosition.x = x;

  00003	f3 0f 10 45 08	 movss	 xmm0, DWORD PTR _x$[ebp]
  00008	f3 0f 11 81 6c
	01 00 00	 movss	 DWORD PTR [ecx+364], xmm0

; 217  : 	m_v3ScalePosition.y = y;

  00010	f3 0f 10 45 0c	 movss	 xmm0, DWORD PTR _y$[ebp]
  00015	f3 0f 11 81 70
	01 00 00	 movss	 DWORD PTR [ecx+368], xmm0

; 218  : 	m_v3ScalePosition.z = z;

  0001d	f3 0f 10 45 10	 movss	 xmm0, DWORD PTR _z$[ebp]
  00022	f3 0f 11 81 74
	01 00 00	 movss	 DWORD PTR [ecx+372], xmm0

; 219  : }

  0002a	5d		 pop	 ebp
  0002b	c2 0c 00	 ret	 12			; 0000000cH
?SetScalePosition@CGraphicObjectInstance@@QAEXMMM@Z ENDP ; CGraphicObjectInstance::SetScalePosition
_TEXT	ENDS
; Function compile flags: /Ogtp
; File C:\DS Project\DS Files\Source\ClientSource\Client\EterLib\GrpObjectInstance.cpp
;	COMDAT ?SetPosition@CGraphicObjectInstance@@QAEXABUD3DXVECTOR3@@@Z
_TEXT	SEGMENT
_newposition$ = 8					; size = 4
?SetPosition@CGraphicObjectInstance@@QAEXABUD3DXVECTOR3@@@Z PROC ; CGraphicObjectInstance::SetPosition, COMDAT
; _this$ = ecx

; 209  : {

  00000	55		 push	 ebp
  00001	8b ec		 mov	 ebp, esp

; 210  : 	m_v3Position = newposition;

  00003	8b 45 08	 mov	 eax, DWORD PTR _newposition$[ebp]
  00006	f3 0f 7e 00	 movq	 xmm0, QWORD PTR [eax]
  0000a	66 0f d6 41 04	 movq	 QWORD PTR [ecx+4], xmm0
  0000f	8b 40 08	 mov	 eax, DWORD PTR [eax+8]
  00012	89 41 0c	 mov	 DWORD PTR [ecx+12], eax

; 211  : }

  00015	5d		 pop	 ebp
  00016	c2 04 00	 ret	 4
?SetPosition@CGraphicObjectInstance@@QAEXABUD3DXVECTOR3@@@Z ENDP ; CGraphicObjectInstance::SetPosition
_TEXT	ENDS
; Function compile flags: /Ogtp
; File C:\DS Project\DS Files\Source\ClientSource\Client\EterLib\GrpObjectInstance.cpp
;	COMDAT ?SetPosition@CGraphicObjectInstance@@QAEXMMM@Z
_TEXT	SEGMENT
_x$ = 8							; size = 4
_y$ = 12						; size = 4
_z$ = 16						; size = 4
?SetPosition@CGraphicObjectInstance@@QAEXMMM@Z PROC	; CGraphicObjectInstance::SetPosition, COMDAT
; _this$ = ecx

; 202  : {

  00000	55		 push	 ebp
  00001	8b ec		 mov	 ebp, esp

; 203  : 	m_v3Position.x = x;

  00003	f3 0f 10 45 08	 movss	 xmm0, DWORD PTR _x$[ebp]
  00008	f3 0f 11 41 04	 movss	 DWORD PTR [ecx+4], xmm0

; 204  : 	m_v3Position.y = y;

  0000d	f3 0f 10 45 0c	 movss	 xmm0, DWORD PTR _y$[ebp]
  00012	f3 0f 11 41 08	 movss	 DWORD PTR [ecx+8], xmm0

; 205  : 	m_v3Position.z = z;

  00017	f3 0f 10 45 10	 movss	 xmm0, DWORD PTR _z$[ebp]
  0001c	f3 0f 11 41 0c	 movss	 DWORD PTR [ecx+12], xmm0

; 206  : }

  00021	5d		 pop	 ebp
  00022	c2 0c 00	 ret	 12			; 0000000cH
?SetPosition@CGraphicObjectInstance@@QAEXMMM@Z ENDP	; CGraphicObjectInstance::SetPosition
_TEXT	ENDS
; Function compile flags: /Ogtp
; File C:\DS Project\DS Files\Source\ClientSource\Client\EterLib\GrpObjectInstance.cpp
;	COMDAT ?GetRoll@CGraphicObjectInstance@@QAEMXZ
_TEXT	SEGMENT
?GetRoll@CGraphicObjectInstance@@QAEMXZ PROC		; CGraphicObjectInstance::GetRoll, COMDAT
; _this$ = ecx

; 164  : 	return m_fRoll;

  00000	d9 41 24	 fld	 DWORD PTR [ecx+36]

; 165  : }

  00003	c3		 ret	 0
?GetRoll@CGraphicObjectInstance@@QAEMXZ ENDP		; CGraphicObjectInstance::GetRoll
_TEXT	ENDS
; Function compile flags: /Ogtp
; File C:\DS Project\DS Files\Source\ClientSource\Client\EterLib\GrpObjectInstance.cpp
;	COMDAT ?GetPitch@CGraphicObjectInstance@@QAEMXZ
_TEXT	SEGMENT
?GetPitch@CGraphicObjectInstance@@QAEMXZ PROC		; CGraphicObjectInstance::GetPitch, COMDAT
; _this$ = ecx

; 159  : 	return m_fPitch;

  00000	d9 41 20	 fld	 DWORD PTR [ecx+32]

; 160  : }

  00003	c3		 ret	 0
?GetPitch@CGraphicObjectInstance@@QAEMXZ ENDP		; CGraphicObjectInstance::GetPitch
_TEXT	ENDS
; Function compile flags: /Ogtp
; File C:\DS Project\DS Files\Source\ClientSource\Client\EterLib\GrpObjectInstance.cpp
;	COMDAT ?GetYaw@CGraphicObjectInstance@@QAEMXZ
_TEXT	SEGMENT
?GetYaw@CGraphicObjectInstance@@QAEMXZ PROC		; CGraphicObjectInstance::GetYaw, COMDAT
; _this$ = ecx

; 154  : 	return m_fYaw;

  00000	d9 41 1c	 fld	 DWORD PTR [ecx+28]

; 155  : }

  00003	c3		 ret	 0
?GetYaw@CGraphicObjectInstance@@QAEMXZ ENDP		; CGraphicObjectInstance::GetYaw
_TEXT	ENDS
; Function compile flags: /Ogtp
; File C:\DS Project\DS Files\Source\ClientSource\Client\EterLib\GrpObjectInstance.cpp
;	COMDAT ?GetRotation@CGraphicObjectInstance@@QAEMXZ
_TEXT	SEGMENT
?GetRotation@CGraphicObjectInstance@@QAEMXZ PROC	; CGraphicObjectInstance::GetRotation, COMDAT
; _this$ = ecx

; 149  : 	return GetRoll();

  00000	e9 00 00 00 00	 jmp	 ?GetRoll@CGraphicObjectInstance@@QAEMXZ ; CGraphicObjectInstance::GetRoll
?GetRotation@CGraphicObjectInstance@@QAEMXZ ENDP	; CGraphicObjectInstance::GetRotation
_TEXT	ENDS
; Function compile flags: /Ogtp
; File C:\DS Project\DS Files\Source\ClientSource\Client\EterLib\GrpObjectInstance.cpp
;	COMDAT ?GetScale@CGraphicObjectInstance@@QBEABUD3DXVECTOR3@@XZ
_TEXT	SEGMENT
?GetScale@CGraphicObjectInstance@@QBEABUD3DXVECTOR3@@XZ PROC ; CGraphicObjectInstance::GetScale, COMDAT
; _this$ = ecx

; 144  : 	return m_v3Scale;

  00000	8d 41 10	 lea	 eax, DWORD PTR [ecx+16]

; 145  : }

  00003	c3		 ret	 0
?GetScale@CGraphicObjectInstance@@QBEABUD3DXVECTOR3@@XZ ENDP ; CGraphicObjectInstance::GetScale
_TEXT	ENDS
; Function compile flags: /Ogtp
; File C:\DS Project\DS Files\Source\ClientSource\Client\EterLib\GrpObjectInstance.cpp
;	COMDAT ?GetPosition@CGraphicObjectInstance@@QBEABUD3DXVECTOR3@@XZ
_TEXT	SEGMENT
?GetPosition@CGraphicObjectInstance@@QBEABUD3DXVECTOR3@@XZ PROC ; CGraphicObjectInstance::GetPosition, COMDAT
; _this$ = ecx

; 139  : 	return m_v3Position;

  00000	8d 41 04	 lea	 eax, DWORD PTR [ecx+4]

; 140  : }

  00003	c3		 ret	 0
?GetPosition@CGraphicObjectInstance@@QBEABUD3DXVECTOR3@@XZ ENDP ; CGraphicObjectInstance::GetPosition
_TEXT	ENDS
; Function compile flags: /Ogtp
; File C:\DS Project\DS Files\Source\ClientSource\Client\EterLib\GrpObjectInstance.cpp
; File C:\Program Files (x86)\Microsoft Visual Studio\2019\Community\VC\Tools\MSVC\14.27.29110\include\vector
; File C:\Program Files (x86)\Microsoft Visual Studio\2019\Community\VC\Tools\MSVC\14.27.29110\include\xmemory
; File C:\Program Files (x86)\Microsoft Visual Studio\2019\Community\VC\Tools\MSVC\14.27.29110\include\vector
; File C:\Program Files (x86)\Microsoft Visual Studio\2019\Community\VC\Tools\MSVC\14.27.29110\include\xmemory
; File C:\Program Files (x86)\Microsoft Visual Studio\2019\Community\VC\Tools\MSVC\14.27.29110\include\vector
; File C:\DS Project\DS Files\Source\ClientSource\Client\EterLib\GrpObjectInstance.cpp
;	COMDAT ??1CGraphicObjectInstance@@UAE@XZ
_TEXT	SEGMENT
__$EHRec$ = -12						; size = 12
??1CGraphicObjectInstance@@UAE@XZ PROC			; CGraphicObjectInstance::~CGraphicObjectInstance, COMDAT
; _this$ = ecx

; 345  : {

  00000	55		 push	 ebp
  00001	8b ec		 mov	 ebp, esp
  00003	6a ff		 push	 -1
  00005	68 00 00 00 00	 push	 __ehhandler$??1CGraphicObjectInstance@@UAE@XZ
  0000a	64 a1 00 00 00
	00		 mov	 eax, DWORD PTR fs:0
  00010	50		 push	 eax
  00011	56		 push	 esi
  00012	a1 00 00 00 00	 mov	 eax, DWORD PTR ___security_cookie
  00017	33 c5		 xor	 eax, ebp
  00019	50		 push	 eax
  0001a	8d 45 f4	 lea	 eax, DWORD PTR __$EHRec$[ebp]
  0001d	64 a3 00 00 00
	00		 mov	 DWORD PTR fs:0, eax
  00023	8b f1		 mov	 esi, ecx
  00025	c7 06 00 00 00
	00		 mov	 DWORD PTR [esi], OFFSET ??_7CGraphicObjectInstance@@6B@

; 346  : 	Initialize();

  0002b	e8 00 00 00 00	 call	 ?Initialize@CGraphicObjectInstance@@QAEXXZ ; CGraphicObjectInstance::Initialize
; File C:\Program Files (x86)\Microsoft Visual Studio\2019\Community\VC\Tools\MSVC\14.27.29110\include\vector

; 1693 :         if (_Myfirst) { // destroy and deallocate old array

  00030	8b 8e 38 02 00
	00		 mov	 ecx, DWORD PTR [esi+568]
  00036	85 c9		 test	 ecx, ecx
  00038	74 33		 je	 SHORT $LN6@CGraphicOb

; 1694 :             _Destroy(_Myfirst, _Mylast);
; 1695 :             _Getal().deallocate(_Myfirst, static_cast<size_type>(_Myend - _Myfirst));

  0003a	8b 86 40 02 00
	00		 mov	 eax, DWORD PTR [esi+576]
  00040	2b c1		 sub	 eax, ecx
; File C:\Program Files (x86)\Microsoft Visual Studio\2019\Community\VC\Tools\MSVC\14.27.29110\include\xmemory

; 803  :         _Deallocate<_New_alignof<_Ty>>(_Ptr, sizeof(_Ty) * _Count);

  00042	83 e0 fc	 and	 eax, -4			; fffffffcH
  00045	50		 push	 eax
  00046	51		 push	 ecx
  00047	e8 00 00 00 00	 call	 ??$_Deallocate@$07$0A@@std@@YAXPAXI@Z ; std::_Deallocate<8,0>
; File C:\Program Files (x86)\Microsoft Visual Studio\2019\Community\VC\Tools\MSVC\14.27.29110\include\vector

; 1697 :             _Myfirst = pointer();

  0004c	c7 86 38 02 00
	00 00 00 00 00	 mov	 DWORD PTR [esi+568], 0
; File C:\Program Files (x86)\Microsoft Visual Studio\2019\Community\VC\Tools\MSVC\14.27.29110\include\xmemory

; 803  :         _Deallocate<_New_alignof<_Ty>>(_Ptr, sizeof(_Ty) * _Count);

  00056	83 c4 08	 add	 esp, 8
; File C:\Program Files (x86)\Microsoft Visual Studio\2019\Community\VC\Tools\MSVC\14.27.29110\include\vector

; 1698 :             _Mylast  = pointer();

  00059	c7 86 3c 02 00
	00 00 00 00 00	 mov	 DWORD PTR [esi+572], 0

; 1699 :             _Myend   = pointer();

  00063	c7 86 40 02 00
	00 00 00 00 00	 mov	 DWORD PTR [esi+576], 0
$LN6@CGraphicOb:
; File C:\DS Project\DS Files\Source\ClientSource\Client\EterLib\GrpObjectInstance.cpp

; 347  : }

  0006d	8b ce		 mov	 ecx, esi
  0006f	e8 00 00 00 00	 call	 ??1CGraphicCollisionObject@@UAE@XZ ; CGraphicCollisionObject::~CGraphicCollisionObject
  00074	8b 4d f4	 mov	 ecx, DWORD PTR __$EHRec$[ebp]
  00077	64 89 0d 00 00
	00 00		 mov	 DWORD PTR fs:0, ecx
  0007e	59		 pop	 ecx
  0007f	5e		 pop	 esi
  00080	8b e5		 mov	 esp, ebp
  00082	5d		 pop	 ebp
  00083	c3		 ret	 0
  00084	cc		 int	 3
  00085	cc		 int	 3
  00086	cc		 int	 3
  00087	cc		 int	 3
  00088	cc		 int	 3
_TEXT	ENDS
;	COMDAT text$x
text$x	SEGMENT
__ehhandler$??1CGraphicObjectInstance@@UAE@XZ:
  00000	90		 npad	 1
  00001	90		 npad	 1
  00002	8b 54 24 08	 mov	 edx, DWORD PTR [esp+8]
  00006	8d 42 0c	 lea	 eax, DWORD PTR [edx+12]
  00009	8b 4a f8	 mov	 ecx, DWORD PTR [edx-8]
  0000c	33 c8		 xor	 ecx, eax
  0000e	e8 00 00 00 00	 call	 @__security_check_cookie@4
  00013	b8 00 00 00 00	 mov	 eax, OFFSET __ehfuncinfo$??1CGraphicObjectInstance@@UAE@XZ
  00018	e9 00 00 00 00	 jmp	 ___CxxFrameHandler3
text$x	ENDS
??1CGraphicObjectInstance@@UAE@XZ ENDP			; CGraphicObjectInstance::~CGraphicObjectInstance
; Function compile flags: /Ogtp
; File C:\DS Project\DS Files\Source\ClientSource\Client\EterLib\GrpObjectInstance.cpp
; File C:\Program Files (x86)\Microsoft Visual Studio\2019\Community\VC\Tools\MSVC\14.27.29110\include\vector
; File C:\DS Project\DS Files\Source\ClientSource\Client\EterLib\GrpObjectInstance.cpp
;	COMDAT ??0CGraphicObjectInstance@@QAE@XZ
_TEXT	SEGMENT
_this$ = -16						; size = 4
__$EHRec$ = -12						; size = 12
??0CGraphicObjectInstance@@QAE@XZ PROC			; CGraphicObjectInstance::CGraphicObjectInstance, COMDAT
; _this$ = ecx

; 305  : {

  00000	55		 push	 ebp
  00001	8b ec		 mov	 ebp, esp
  00003	6a ff		 push	 -1
  00005	68 00 00 00 00	 push	 __ehhandler$??0CGraphicObjectInstance@@QAE@XZ
  0000a	64 a1 00 00 00
	00		 mov	 eax, DWORD PTR fs:0
  00010	50		 push	 eax
  00011	51		 push	 ecx
  00012	56		 push	 esi
  00013	a1 00 00 00 00	 mov	 eax, DWORD PTR ___security_cookie
  00018	33 c5		 xor	 eax, ebp
  0001a	50		 push	 eax
  0001b	8d 45 f4	 lea	 eax, DWORD PTR __$EHRec$[ebp]
  0001e	64 a3 00 00 00
	00		 mov	 DWORD PTR fs:0, eax
  00024	8b f1		 mov	 esi, ecx
  00026	89 75 f0	 mov	 DWORD PTR _this$[ebp], esi
  00029	e8 00 00 00 00	 call	 ??0CGraphicCollisionObject@@QAE@XZ ; CGraphicCollisionObject::CGraphicCollisionObject
  0002e	c7 06 00 00 00
	00		 mov	 DWORD PTR [esi], OFFSET ??_7CGraphicObjectInstance@@6B@
  00034	c7 45 fc 00 00
	00 00		 mov	 DWORD PTR __$EHRec$[ebp+8], 0
; File C:\Program Files (x86)\Microsoft Visual Studio\2019\Community\VC\Tools\MSVC\14.27.29110\include\vector

; 375  :     _Vector_val() noexcept : _Myfirst(), _Mylast(), _Myend() {}

  0003b	c7 86 38 02 00
	00 00 00 00 00	 mov	 DWORD PTR [esi+568], 0
  00045	c7 86 3c 02 00
	00 00 00 00 00	 mov	 DWORD PTR [esi+572], 0
  0004f	c7 86 40 02 00
	00 00 00 00 00	 mov	 DWORD PTR [esi+576], 0
; File C:\DS Project\DS Files\Source\ClientSource\Client\EterLib\GrpObjectInstance.cpp

; 307  : 	Initialize();

  00059	8b ce		 mov	 ecx, esi
  0005b	c6 45 fc 01	 mov	 BYTE PTR __$EHRec$[ebp+8], 1
  0005f	c7 86 68 01 00
	00 00 00 00 00	 mov	 DWORD PTR [esi+360], 0
  00069	e8 00 00 00 00	 call	 ?Initialize@CGraphicObjectInstance@@QAEXXZ ; CGraphicObjectInstance::Initialize

; 308  : }

  0006e	8b c6		 mov	 eax, esi
  00070	8b 4d f4	 mov	 ecx, DWORD PTR __$EHRec$[ebp]
  00073	64 89 0d 00 00
	00 00		 mov	 DWORD PTR fs:0, ecx
  0007a	59		 pop	 ecx
  0007b	5e		 pop	 esi
  0007c	8b e5		 mov	 esp, ebp
  0007e	5d		 pop	 ebp
  0007f	c3		 ret	 0
_TEXT	ENDS
;	COMDAT text$x
text$x	SEGMENT
__unwindfunclet$??0CGraphicObjectInstance@@QAE@XZ$0:
  00000	8b 4d f0	 mov	 ecx, DWORD PTR _this$[ebp]
  00003	e9 00 00 00 00	 jmp	 ??1CGraphicCollisionObject@@UAE@XZ ; CGraphicCollisionObject::~CGraphicCollisionObject
__unwindfunclet$??0CGraphicObjectInstance@@QAE@XZ$1:
  00008	8b 4d f0	 mov	 ecx, DWORD PTR _this$[ebp]
  0000b	81 c1 38 02 00
	00		 add	 ecx, 568		; 00000238H
  00011	e9 00 00 00 00	 jmp	 ??1?$vector@PAVCBaseCollisionInstance@@V?$allocator@PAVCBaseCollisionInstance@@@std@@@std@@QAE@XZ ; std::vector<CBaseCollisionInstance *,std::allocator<CBaseCollisionInstance *> >::~vector<CBaseCollisionInstance *,std::allocator<CBaseCollisionInstance *> >
  00016	cc		 int	 3
  00017	cc		 int	 3
  00018	cc		 int	 3
  00019	cc		 int	 3
  0001a	cc		 int	 3
__ehhandler$??0CGraphicObjectInstance@@QAE@XZ:
  0001b	90		 npad	 1
  0001c	90		 npad	 1
  0001d	8b 54 24 08	 mov	 edx, DWORD PTR [esp+8]
  00021	8d 42 0c	 lea	 eax, DWORD PTR [edx+12]
  00024	8b 4a f4	 mov	 ecx, DWORD PTR [edx-12]
  00027	33 c8		 xor	 ecx, eax
  00029	e8 00 00 00 00	 call	 @__security_check_cookie@4
  0002e	b8 00 00 00 00	 mov	 eax, OFFSET __ehfuncinfo$??0CGraphicObjectInstance@@QAE@XZ
  00033	e9 00 00 00 00	 jmp	 ___CxxFrameHandler3
text$x	ENDS
??0CGraphicObjectInstance@@QAE@XZ ENDP			; CGraphicObjectInstance::CGraphicObjectInstance
; Function compile flags: /Ogtp
; File C:\DS Project\DS Files\Source\ClientSource\Client\SphereLib\spherepack.h
;	COMDAT ?Unlink@SpherePack@@QAEXXZ
_TEXT	SEGMENT
?Unlink@SpherePack@@QAEXXZ PROC				; SpherePack::Unlink, COMDAT
; _this$ = ecx

; 147  : 	{

  00000	56		 push	 esi
  00001	8b f1		 mov	 esi, ecx

; 148  : 		if ( mFifo1 ) // if we belong to fifo1, null us out

  00003	8b 46 30	 mov	 eax, DWORD PTR [esi+48]
  00006	85 c0		 test	 eax, eax
  00008	74 0d		 je	 SHORT $LN2@Unlink

; 149  : 		{
; 150  : 			*mFifo1 = 0;

  0000a	c7 00 00 00 00
	00		 mov	 DWORD PTR [eax], 0

; 151  : 			mFifo1 = 0;

  00010	c7 46 30 00 00
	00 00		 mov	 DWORD PTR [esi+48], 0
$LN2@Unlink:

; 152  : 		}
; 153  : 
; 154  : 		if ( mFifo2 ) // if we belong to fifo2, null us out

  00017	8b 46 34	 mov	 eax, DWORD PTR [esi+52]
  0001a	85 c0		 test	 eax, eax
  0001c	74 0d		 je	 SHORT $LN3@Unlink

; 155  : 		{
; 156  : 			*mFifo2 = 0;

  0001e	c7 00 00 00 00
	00		 mov	 DWORD PTR [eax], 0

; 157  : 			mFifo2 = 0;

  00024	c7 46 34 00 00
	00 00		 mov	 DWORD PTR [esi+52], 0
$LN3@Unlink:

; 158  : 		}
; 159  : 
; 160  : 		if ( mParent ) mParent->LostChild(this);

  0002b	8b 4e 20	 mov	 ecx, DWORD PTR [esi+32]
  0002e	85 c9		 test	 ecx, ecx
  00030	74 06		 je	 SHORT $LN6@Unlink
  00032	56		 push	 esi
  00033	e8 00 00 00 00	 call	 ?LostChild@SpherePack@@QAEXPAV1@@Z ; SpherePack::LostChild
$LN6@Unlink:

; 161  : 
; 162  : 		assert( !mChildren ); // can't unlink guys with children!
; 163  : 
; 164  : 		mParent = 0; // got no father anymore
; 165  : 	}

  00038	c7 46 20 00 00
	00 00		 mov	 DWORD PTR [esi+32], 0
  0003f	5e		 pop	 esi
  00040	c3		 ret	 0
?Unlink@SpherePack@@QAEXXZ ENDP				; SpherePack::Unlink
_TEXT	ENDS
; Function compile flags: /Ogtp
; File C:\Program Files (x86)\Microsoft Visual Studio\2019\Community\VC\Tools\MSVC\14.27.29110\include\xmemory
;	COMDAT ??$_Allocate_manually_vector_aligned@U_Default_allocate_traits@std@@@std@@YAPAXI@Z
_TEXT	SEGMENT
__Bytes$ = 8						; size = 4
??$_Allocate_manually_vector_aligned@U_Default_allocate_traits@std@@@std@@YAPAXI@Z PROC ; std::_Allocate_manually_vector_aligned<std::_Default_allocate_traits>, COMDAT

; 113  : __declspec(allocator) void* _Allocate_manually_vector_aligned(const size_t _Bytes) {

  00000	55		 push	 ebp
  00001	8b ec		 mov	 ebp, esp

; 114  :     // allocate _Bytes manually aligned to at least _Big_allocation_alignment
; 115  :     const size_t _Block_size = _Non_user_size + _Bytes;

  00003	8b 45 08	 mov	 eax, DWORD PTR __Bytes$[ebp]
  00006	8d 48 23	 lea	 ecx, DWORD PTR [eax+35]

; 116  :     if (_Block_size <= _Bytes) {

  00009	3b c8		 cmp	 ecx, eax
  0000b	0f 86 00 00 00
	00		 jbe	 ?_Throw_bad_array_new_length@std@@YAXXZ ; std::_Throw_bad_array_new_length

; 77   :         return ::operator new(_Bytes);

  00011	51		 push	 ecx
  00012	e8 00 00 00 00	 call	 ??2@YAPAXI@Z		; operator new

; 117  :         _Throw_bad_array_new_length(); // add overflow
; 118  :     }
; 119  : 
; 120  :     const uintptr_t _Ptr_container = reinterpret_cast<uintptr_t>(_Traits::_Allocate(_Block_size));

  00017	8b c8		 mov	 ecx, eax

; 77   :         return ::operator new(_Bytes);

  00019	83 c4 04	 add	 esp, 4

; 121  :     _STL_VERIFY(_Ptr_container != 0, "invalid argument"); // validate even in release since we're doing p[-1]

  0001c	85 c9		 test	 ecx, ecx
  0001e	74 0b		 je	 SHORT $LN7@Allocate_m

; 122  :     void* const _Ptr = reinterpret_cast<void*>((_Ptr_container + _Non_user_size) & ~(_Big_allocation_alignment - 1));

  00020	8d 41 23	 lea	 eax, DWORD PTR [ecx+35]
  00023	83 e0 e0	 and	 eax, -32		; ffffffe0H

; 123  :     static_cast<uintptr_t*>(_Ptr)[-1] = _Ptr_container;

  00026	89 48 fc	 mov	 DWORD PTR [eax-4], ecx

; 124  : 
; 125  : #ifdef _DEBUG
; 126  :     static_cast<uintptr_t*>(_Ptr)[-2] = _Big_allocation_sentinel;
; 127  : #endif // _DEBUG
; 128  :     return _Ptr;
; 129  : }

  00029	5d		 pop	 ebp
  0002a	c3		 ret	 0
$LN7@Allocate_m:

; 121  :     _STL_VERIFY(_Ptr_container != 0, "invalid argument"); // validate even in release since we're doing p[-1]

  0002b	e9 00 00 00 00	 jmp	 __invalid_parameter_noinfo_noreturn
??$_Allocate_manually_vector_aligned@U_Default_allocate_traits@std@@@std@@YAPAXI@Z ENDP ; std::_Allocate_manually_vector_aligned<std::_Default_allocate_traits>
_TEXT	ENDS
; Function compile flags: /Ogtp
; File C:\Program Files (x86)\Microsoft Visual Studio\2019\Community\VC\Tools\MSVC\14.27.29110\include\xmemory
;	COMDAT ??$_Allocate@$07U_Default_allocate_traits@std@@$0A@@std@@YAPAXI@Z
_TEXT	SEGMENT
__Bytes$ = 8						; size = 4
??$_Allocate@$07U_Default_allocate_traits@std@@$0A@@std@@YAPAXI@Z PROC ; std::_Allocate<8,std::_Default_allocate_traits,0>, COMDAT

; 197  : __declspec(allocator) void* _Allocate(const size_t _Bytes) {

  00000	55		 push	 ebp
  00001	8b ec		 mov	 ebp, esp

; 198  :     // allocate _Bytes when !_HAS_ALIGNED_NEW || _Align <= __STDCPP_DEFAULT_NEW_ALIGNMENT__
; 199  : #if defined(_M_IX86) || defined(_M_X64)
; 200  :     if (_Bytes >= _Big_allocation_threshold) { // boost the alignment of big allocations to help autovectorization

  00003	8b 45 08	 mov	 eax, DWORD PTR __Bytes$[ebp]
  00006	3d 00 10 00 00	 cmp	 eax, 4096		; 00001000H
  0000b	72 09		 jb	 SHORT $LN2@Allocate

; 201  :         return _Allocate_manually_vector_aligned<_Traits>(_Bytes);

  0000d	89 45 08	 mov	 DWORD PTR __Bytes$[ebp], eax

; 210  : }

  00010	5d		 pop	 ebp

; 201  :         return _Allocate_manually_vector_aligned<_Traits>(_Bytes);

  00011	e9 00 00 00 00	 jmp	 ??$_Allocate_manually_vector_aligned@U_Default_allocate_traits@std@@@std@@YAPAXI@Z ; std::_Allocate_manually_vector_aligned<std::_Default_allocate_traits>
$LN2@Allocate:

; 202  :     }
; 203  : #endif // defined(_M_IX86) || defined(_M_X64)
; 204  : 
; 205  :     if (_Bytes != 0) {

  00016	85 c0		 test	 eax, eax
  00018	74 09		 je	 SHORT $LN3@Allocate

; 77   :         return ::operator new(_Bytes);

  0001a	89 45 08	 mov	 DWORD PTR __Bytes$[ebp], eax

; 210  : }

  0001d	5d		 pop	 ebp

; 77   :         return ::operator new(_Bytes);

  0001e	e9 00 00 00 00	 jmp	 ??2@YAPAXI@Z		; operator new
$LN3@Allocate:

; 206  :         return _Traits::_Allocate(_Bytes);
; 207  :     }
; 208  : 
; 209  :     return nullptr;

  00023	33 c0		 xor	 eax, eax

; 210  : }

  00025	5d		 pop	 ebp
  00026	c3		 ret	 0
??$_Allocate@$07U_Default_allocate_traits@std@@$0A@@std@@YAPAXI@Z ENDP ; std::_Allocate<8,std::_Default_allocate_traits,0>
_TEXT	ENDS
; Function compile flags: /Ogtp
; File C:\Program Files (x86)\Microsoft Visual Studio\2019\Community\VC\Tools\MSVC\14.27.29110\include\xmemory
;	COMDAT ??$_Deallocate@$07$0A@@std@@YAXPAXI@Z
_TEXT	SEGMENT
__Ptr$ = 8						; size = 4
__Bytes$ = 12						; size = 4
??$_Deallocate@$07$0A@@std@@YAXPAXI@Z PROC		; std::_Deallocate<8,0>, COMDAT

; 213  : void _Deallocate(void* _Ptr, size_t _Bytes) noexcept {

  00000	55		 push	 ebp
  00001	8b ec		 mov	 ebp, esp

; 214  :     // deallocate storage allocated by _Allocate when !_HAS_ALIGNED_NEW || _Align <= __STDCPP_DEFAULT_NEW_ALIGNMENT__
; 215  : #if defined(_M_IX86) || defined(_M_X64)
; 216  :     if (_Bytes >= _Big_allocation_threshold) { // boost the alignment of big allocations to help autovectorization

  00003	8b 4d 0c	 mov	 ecx, DWORD PTR __Bytes$[ebp]
  00006	81 f9 00 10 00
	00		 cmp	 ecx, 4096		; 00001000H
  0000c	72 18		 jb	 SHORT $LN15@Deallocate

; 137  :     const uintptr_t _Ptr_container   = _Ptr_user[-1];

  0000e	8b 45 08	 mov	 eax, DWORD PTR __Ptr$[ebp]
  00011	83 c1 23	 add	 ecx, 35			; 00000023H
  00014	8b 50 fc	 mov	 edx, DWORD PTR [eax-4]

; 138  : 
; 139  :     // If the following asserts, it likely means that we are performing
; 140  :     // an aligned delete on memory coming from an unaligned allocation.
; 141  :     _STL_ASSERT(_Ptr_user[-2] == _Big_allocation_sentinel, "invalid argument");
; 142  : 
; 143  :     // Extra paranoia on aligned allocation/deallocation; ensure _Ptr_container is
; 144  :     // in range [_Min_back_shift, _Non_user_size]
; 145  : #ifdef _DEBUG
; 146  :     constexpr uintptr_t _Min_back_shift = 2 * sizeof(void*);
; 147  : #else // ^^^ _DEBUG ^^^ // vvv !_DEBUG vvv
; 148  :     constexpr uintptr_t _Min_back_shift = sizeof(void*);
; 149  : #endif // _DEBUG
; 150  :     const uintptr_t _Back_shift = reinterpret_cast<uintptr_t>(_Ptr) - _Ptr_container;

  00017	2b c2		 sub	 eax, edx

; 151  :     _STL_VERIFY(_Back_shift >= _Min_back_shift && _Back_shift <= _Non_user_size, "invalid argument");

  00019	83 c0 fc	 add	 eax, -4			; fffffffcH
  0001c	83 f8 1f	 cmp	 eax, 31			; 0000001fH
  0001f	76 08		 jbe	 SHORT $LN13@Deallocate
  00021	e9 00 00 00 00	 jmp	 __invalid_parameter_noinfo_noreturn
$LN15@Deallocate:

; 214  :     // deallocate storage allocated by _Allocate when !_HAS_ALIGNED_NEW || _Align <= __STDCPP_DEFAULT_NEW_ALIGNMENT__
; 215  : #if defined(_M_IX86) || defined(_M_X64)
; 216  :     if (_Bytes >= _Big_allocation_threshold) { // boost the alignment of big allocations to help autovectorization

  00026	8b 55 08	 mov	 edx, DWORD PTR __Ptr$[ebp]
$LN13@Deallocate:

; 217  :         _Adjust_manually_vector_aligned(_Ptr, _Bytes);
; 218  :     }
; 219  : #endif // defined(_M_IX86) || defined(_M_X64)
; 220  : 
; 221  :     ::operator delete(_Ptr, _Bytes);

  00029	89 4d 0c	 mov	 DWORD PTR __Bytes$[ebp], ecx
  0002c	89 55 08	 mov	 DWORD PTR __Ptr$[ebp], edx

; 222  : }

  0002f	5d		 pop	 ebp

; 217  :         _Adjust_manually_vector_aligned(_Ptr, _Bytes);
; 218  :     }
; 219  : #endif // defined(_M_IX86) || defined(_M_X64)
; 220  : 
; 221  :     ::operator delete(_Ptr, _Bytes);

  00030	e9 00 00 00 00	 jmp	 ??3@YAXPAXI@Z		; operator delete
??$_Deallocate@$07$0A@@std@@YAXPAXI@Z ENDP		; std::_Deallocate<8,0>
_TEXT	ENDS
; Function compile flags: /Ogtp
; File C:\Program Files (x86)\Microsoft Visual Studio\2019\Community\VC\Tools\MSVC\14.27.29110\include\exception
;	COMDAT ?_Throw_bad_array_new_length@std@@YAXXZ
_TEXT	SEGMENT
$T1 = -12						; size = 12
?_Throw_bad_array_new_length@std@@YAXXZ PROC		; std::_Throw_bad_array_new_length, COMDAT

; 320  : [[noreturn]] inline void _Throw_bad_array_new_length() {

  00000	55		 push	 ebp
  00001	8b ec		 mov	 ebp, esp
  00003	83 ec 0c	 sub	 esp, 12			; 0000000cH

; 321  :     _THROW(bad_array_new_length{});

  00006	8d 4d f4	 lea	 ecx, DWORD PTR $T1[ebp]
  00009	e8 00 00 00 00	 call	 ??0bad_array_new_length@std@@QAE@XZ ; std::bad_array_new_length::bad_array_new_length
  0000e	68 00 00 00 00	 push	 OFFSET __TI3?AVbad_array_new_length@std@@
  00013	8d 45 f4	 lea	 eax, DWORD PTR $T1[ebp]
  00016	50		 push	 eax
  00017	e8 00 00 00 00	 call	 __CxxThrowException@8
$LN3@Throw_bad_:
  0001c	cc		 int	 3
?_Throw_bad_array_new_length@std@@YAXXZ ENDP		; std::_Throw_bad_array_new_length
_TEXT	ENDS
; Function compile flags: /Ogtp
; File C:\Program Files (x86)\Microsoft Visual Studio\2019\Community\VC\Tools\MSVC\14.27.29110\include\vcruntime_exception.h
;	COMDAT ??_Gbad_array_new_length@std@@UAEPAXI@Z
_TEXT	SEGMENT
___flags$ = 8						; size = 4
??_Gbad_array_new_length@std@@UAEPAXI@Z PROC		; std::bad_array_new_length::`scalar deleting destructor', COMDAT
; _this$ = ecx
  00000	55		 push	 ebp
  00001	8b ec		 mov	 ebp, esp

; 89   :     {

  00003	56		 push	 esi
  00004	8b f1		 mov	 esi, ecx

; 90   :         __std_exception_destroy(&_Data);

  00006	8d 46 04	 lea	 eax, DWORD PTR [esi+4]
  00009	c7 06 00 00 00
	00		 mov	 DWORD PTR [esi], OFFSET ??_7exception@std@@6B@
  0000f	50		 push	 eax
  00010	e8 00 00 00 00	 call	 ___std_exception_destroy
  00015	83 c4 04	 add	 esp, 4
  00018	f6 45 08 01	 test	 BYTE PTR ___flags$[ebp], 1
  0001c	74 0b		 je	 SHORT $LN12@scalar
  0001e	6a 0c		 push	 12			; 0000000cH
  00020	56		 push	 esi
  00021	e8 00 00 00 00	 call	 ??3@YAXPAXI@Z		; operator delete
  00026	83 c4 08	 add	 esp, 8
$LN12@scalar:
  00029	8b c6		 mov	 eax, esi
  0002b	5e		 pop	 esi
  0002c	5d		 pop	 ebp
  0002d	c2 04 00	 ret	 4
??_Gbad_array_new_length@std@@UAEPAXI@Z ENDP		; std::bad_array_new_length::`scalar deleting destructor'
_TEXT	ENDS
; Function compile flags: /Ogtp
; File C:\Program Files (x86)\Microsoft Visual Studio\2019\Community\VC\Tools\MSVC\14.27.29110\include\vcruntime_exception.h
;	COMDAT ??0bad_array_new_length@std@@QAE@ABV01@@Z
_TEXT	SEGMENT
___that$ = 8						; size = 4
??0bad_array_new_length@std@@QAE@ABV01@@Z PROC		; std::bad_array_new_length::bad_array_new_length, COMDAT
; _this$ = ecx
  00000	55		 push	 ebp
  00001	8b ec		 mov	 ebp, esp

; 72   :     {

  00003	56		 push	 esi
  00004	8b f1		 mov	 esi, ecx
  00006	0f 57 c0	 xorps	 xmm0, xmm0

; 71   :         : _Data()

  00009	8d 46 04	 lea	 eax, DWORD PTR [esi+4]

; 73   :         __std_exception_copy(&_Other._Data, &_Data);

  0000c	50		 push	 eax
  0000d	c7 06 00 00 00
	00		 mov	 DWORD PTR [esi], OFFSET ??_7exception@std@@6B@
  00013	66 0f d6 00	 movq	 QWORD PTR [eax], xmm0
  00017	8b 45 08	 mov	 eax, DWORD PTR ___that$[ebp]
  0001a	83 c0 04	 add	 eax, 4
  0001d	50		 push	 eax
  0001e	e8 00 00 00 00	 call	 ___std_exception_copy
  00023	83 c4 08	 add	 esp, 8
  00026	c7 06 00 00 00
	00		 mov	 DWORD PTR [esi], OFFSET ??_7bad_array_new_length@std@@6B@
  0002c	8b c6		 mov	 eax, esi
  0002e	5e		 pop	 esi
  0002f	5d		 pop	 ebp
  00030	c2 04 00	 ret	 4
??0bad_array_new_length@std@@QAE@ABV01@@Z ENDP		; std::bad_array_new_length::bad_array_new_length
_TEXT	ENDS
; Function compile flags: /Ogtp
; File C:\Program Files (x86)\Microsoft Visual Studio\2019\Community\VC\Tools\MSVC\14.27.29110\include\vcruntime_exception.h
;	COMDAT ??1bad_array_new_length@std@@UAE@XZ
_TEXT	SEGMENT
??1bad_array_new_length@std@@UAE@XZ PROC		; std::bad_array_new_length::~bad_array_new_length, COMDAT
; _this$ = ecx

; 90   :         __std_exception_destroy(&_Data);

  00000	8d 41 04	 lea	 eax, DWORD PTR [ecx+4]
  00003	c7 01 00 00 00
	00		 mov	 DWORD PTR [ecx], OFFSET ??_7exception@std@@6B@
  00009	50		 push	 eax
  0000a	e8 00 00 00 00	 call	 ___std_exception_destroy
  0000f	59		 pop	 ecx
  00010	c3		 ret	 0
??1bad_array_new_length@std@@UAE@XZ ENDP		; std::bad_array_new_length::~bad_array_new_length
_TEXT	ENDS
; Function compile flags: /Ogtp
; File C:\Program Files (x86)\Microsoft Visual Studio\2019\Community\VC\Tools\MSVC\14.27.29110\include\vcruntime_exception.h
;	COMDAT ??0bad_array_new_length@std@@QAE@XZ
_TEXT	SEGMENT
??0bad_array_new_length@std@@QAE@XZ PROC		; std::bad_array_new_length::bad_array_new_length, COMDAT
; _this$ = ecx

; 141  :     {

  00000	0f 57 c0	 xorps	 xmm0, xmm0

; 142  :     }

  00003	8b c1		 mov	 eax, ecx

; 65   :         : _Data()

  00005	66 0f d6 41 04	 movq	 QWORD PTR [ecx+4], xmm0

; 66   :     {
; 67   :         _Data._What = _Message;

  0000a	c7 41 04 00 00
	00 00		 mov	 DWORD PTR [ecx+4], OFFSET ??_C@_0BF@KINCDENJ@bad?5array?5new?5length@

; 141  :     {

  00011	c7 01 00 00 00
	00		 mov	 DWORD PTR [ecx], OFFSET ??_7bad_array_new_length@std@@6B@

; 142  :     }

  00017	c3		 ret	 0
??0bad_array_new_length@std@@QAE@XZ ENDP		; std::bad_array_new_length::bad_array_new_length
_TEXT	ENDS
; Function compile flags: /Ogtp
; File C:\Program Files (x86)\Microsoft Visual Studio\2019\Community\VC\Tools\MSVC\14.27.29110\include\vcruntime_exception.h
;	COMDAT ??_Gbad_alloc@std@@UAEPAXI@Z
_TEXT	SEGMENT
___flags$ = 8						; size = 4
??_Gbad_alloc@std@@UAEPAXI@Z PROC			; std::bad_alloc::`scalar deleting destructor', COMDAT
; _this$ = ecx
  00000	55		 push	 ebp
  00001	8b ec		 mov	 ebp, esp

; 89   :     {

  00003	56		 push	 esi
  00004	8b f1		 mov	 esi, ecx

; 90   :         __std_exception_destroy(&_Data);

  00006	8d 46 04	 lea	 eax, DWORD PTR [esi+4]
  00009	c7 06 00 00 00
	00		 mov	 DWORD PTR [esi], OFFSET ??_7exception@std@@6B@
  0000f	50		 push	 eax
  00010	e8 00 00 00 00	 call	 ___std_exception_destroy
  00015	83 c4 04	 add	 esp, 4
  00018	f6 45 08 01	 test	 BYTE PTR ___flags$[ebp], 1
  0001c	74 0b		 je	 SHORT $LN9@scalar
  0001e	6a 0c		 push	 12			; 0000000cH
  00020	56		 push	 esi
  00021	e8 00 00 00 00	 call	 ??3@YAXPAXI@Z		; operator delete
  00026	83 c4 08	 add	 esp, 8
$LN9@scalar:
  00029	8b c6		 mov	 eax, esi
  0002b	5e		 pop	 esi
  0002c	5d		 pop	 ebp
  0002d	c2 04 00	 ret	 4
??_Gbad_alloc@std@@UAEPAXI@Z ENDP			; std::bad_alloc::`scalar deleting destructor'
_TEXT	ENDS
; Function compile flags: /Ogtp
; File C:\Program Files (x86)\Microsoft Visual Studio\2019\Community\VC\Tools\MSVC\14.27.29110\include\vcruntime_exception.h
;	COMDAT ??0bad_alloc@std@@QAE@ABV01@@Z
_TEXT	SEGMENT
___that$ = 8						; size = 4
??0bad_alloc@std@@QAE@ABV01@@Z PROC			; std::bad_alloc::bad_alloc, COMDAT
; _this$ = ecx
  00000	55		 push	 ebp
  00001	8b ec		 mov	 ebp, esp

; 72   :     {

  00003	56		 push	 esi
  00004	8b f1		 mov	 esi, ecx
  00006	0f 57 c0	 xorps	 xmm0, xmm0

; 71   :         : _Data()

  00009	8d 46 04	 lea	 eax, DWORD PTR [esi+4]

; 73   :         __std_exception_copy(&_Other._Data, &_Data);

  0000c	50		 push	 eax
  0000d	c7 06 00 00 00
	00		 mov	 DWORD PTR [esi], OFFSET ??_7exception@std@@6B@
  00013	66 0f d6 00	 movq	 QWORD PTR [eax], xmm0
  00017	8b 45 08	 mov	 eax, DWORD PTR ___that$[ebp]
  0001a	83 c0 04	 add	 eax, 4
  0001d	50		 push	 eax
  0001e	e8 00 00 00 00	 call	 ___std_exception_copy
  00023	83 c4 08	 add	 esp, 8
  00026	c7 06 00 00 00
	00		 mov	 DWORD PTR [esi], OFFSET ??_7bad_alloc@std@@6B@
  0002c	8b c6		 mov	 eax, esi
  0002e	5e		 pop	 esi
  0002f	5d		 pop	 ebp
  00030	c2 04 00	 ret	 4
??0bad_alloc@std@@QAE@ABV01@@Z ENDP			; std::bad_alloc::bad_alloc
_TEXT	ENDS
; Function compile flags: /Ogtp
; File C:\Program Files (x86)\Microsoft Visual Studio\2019\Community\VC\Tools\MSVC\14.27.29110\include\vcruntime_exception.h
;	COMDAT ??_Gexception@std@@UAEPAXI@Z
_TEXT	SEGMENT
___flags$ = 8						; size = 4
??_Gexception@std@@UAEPAXI@Z PROC			; std::exception::`scalar deleting destructor', COMDAT
; _this$ = ecx
  00000	55		 push	 ebp
  00001	8b ec		 mov	 ebp, esp

; 89   :     {

  00003	56		 push	 esi
  00004	8b f1		 mov	 esi, ecx

; 90   :         __std_exception_destroy(&_Data);

  00006	8d 46 04	 lea	 eax, DWORD PTR [esi+4]
  00009	c7 06 00 00 00
	00		 mov	 DWORD PTR [esi], OFFSET ??_7exception@std@@6B@
  0000f	50		 push	 eax
  00010	e8 00 00 00 00	 call	 ___std_exception_destroy
  00015	83 c4 04	 add	 esp, 4
  00018	f6 45 08 01	 test	 BYTE PTR ___flags$[ebp], 1
  0001c	74 0b		 je	 SHORT $LN6@scalar
  0001e	6a 0c		 push	 12			; 0000000cH
  00020	56		 push	 esi
  00021	e8 00 00 00 00	 call	 ??3@YAXPAXI@Z		; operator delete
  00026	83 c4 08	 add	 esp, 8
$LN6@scalar:
  00029	8b c6		 mov	 eax, esi
  0002b	5e		 pop	 esi
  0002c	5d		 pop	 ebp
  0002d	c2 04 00	 ret	 4
??_Gexception@std@@UAEPAXI@Z ENDP			; std::exception::`scalar deleting destructor'
_TEXT	ENDS
; Function compile flags: /Ogtp
; File C:\Program Files (x86)\Microsoft Visual Studio\2019\Community\VC\Tools\MSVC\14.27.29110\include\vcruntime_exception.h
;	COMDAT ?what@exception@std@@UBEPBDXZ
_TEXT	SEGMENT
?what@exception@std@@UBEPBDXZ PROC			; std::exception::what, COMDAT
; _this$ = ecx

; 95   :         return _Data._What ? _Data._What : "Unknown exception";

  00000	8b 49 04	 mov	 ecx, DWORD PTR [ecx+4]
  00003	b8 00 00 00 00	 mov	 eax, OFFSET ??_C@_0BC@EOODALEL@Unknown?5exception@
  00008	85 c9		 test	 ecx, ecx
  0000a	0f 45 c1	 cmovne	 eax, ecx

; 96   :     }

  0000d	c3		 ret	 0
?what@exception@std@@UBEPBDXZ ENDP			; std::exception::what
_TEXT	ENDS
; Function compile flags: /Ogtp
; File C:\Program Files (x86)\Microsoft Visual Studio\2019\Community\VC\Tools\MSVC\14.27.29110\include\vcruntime_exception.h
;	COMDAT ??1exception@std@@UAE@XZ
_TEXT	SEGMENT
??1exception@std@@UAE@XZ PROC				; std::exception::~exception, COMDAT
; _this$ = ecx

; 90   :         __std_exception_destroy(&_Data);

  00000	8d 41 04	 lea	 eax, DWORD PTR [ecx+4]
  00003	c7 01 00 00 00
	00		 mov	 DWORD PTR [ecx], OFFSET ??_7exception@std@@6B@
  00009	50		 push	 eax
  0000a	e8 00 00 00 00	 call	 ___std_exception_destroy
  0000f	59		 pop	 ecx

; 91   :     }

  00010	c3		 ret	 0
??1exception@std@@UAE@XZ ENDP				; std::exception::~exception
_TEXT	ENDS
; Function compile flags: /Ogtp
; File C:\Program Files (x86)\Microsoft Visual Studio\2019\Community\VC\Tools\MSVC\14.27.29110\include\vcruntime_exception.h
;	COMDAT ??0exception@std@@QAE@ABV01@@Z
_TEXT	SEGMENT
__Other$ = 8						; size = 4
??0exception@std@@QAE@ABV01@@Z PROC			; std::exception::exception, COMDAT
; _this$ = ecx

; 72   :     {

  00000	55		 push	 ebp
  00001	8b ec		 mov	 ebp, esp
  00003	56		 push	 esi
  00004	8b f1		 mov	 esi, ecx
  00006	0f 57 c0	 xorps	 xmm0, xmm0
  00009	8d 46 04	 lea	 eax, DWORD PTR [esi+4]

; 73   :         __std_exception_copy(&_Other._Data, &_Data);

  0000c	50		 push	 eax
  0000d	c7 06 00 00 00
	00		 mov	 DWORD PTR [esi], OFFSET ??_7exception@std@@6B@
  00013	66 0f d6 00	 movq	 QWORD PTR [eax], xmm0
  00017	8b 45 08	 mov	 eax, DWORD PTR __Other$[ebp]
  0001a	83 c0 04	 add	 eax, 4
  0001d	50		 push	 eax
  0001e	e8 00 00 00 00	 call	 ___std_exception_copy
  00023	83 c4 08	 add	 esp, 8

; 74   :     }

  00026	8b c6		 mov	 eax, esi
  00028	5e		 pop	 esi
  00029	5d		 pop	 ebp
  0002a	c2 04 00	 ret	 4
??0exception@std@@QAE@ABV01@@Z ENDP			; std::exception::exception
_TEXT	ENDS
; Function compile flags: /Ogtp
; File C:\DS Project\DS Files\Source\ClientSource\extern\include\d3dx8math.h
;	COMDAT ??0D3DXVECTOR4@@QAE@XZ
_TEXT	SEGMENT
??0D3DXVECTOR4@@QAE@XZ PROC				; D3DXVECTOR4::D3DXVECTOR4, COMDAT
; _this$ = ecx

; 133  :     D3DXVECTOR4() {};

  00000	8b c1		 mov	 eax, ecx
  00002	c3		 ret	 0
??0D3DXVECTOR4@@QAE@XZ ENDP				; D3DXVECTOR4::D3DXVECTOR4
_TEXT	ENDS
; Function compile flags: /Ogtp
; File C:\DS Project\DS Files\Source\ClientSource\extern\include\d3dx8math.h
;	COMDAT ??0D3DXVECTOR3@@QAE@XZ
_TEXT	SEGMENT
??0D3DXVECTOR3@@QAE@XZ PROC				; D3DXVECTOR3::D3DXVECTOR3, COMDAT
; _this$ = ecx

; 89   :     D3DXVECTOR3() {};

  00000	8b c1		 mov	 eax, ecx
  00002	c3		 ret	 0
??0D3DXVECTOR3@@QAE@XZ ENDP				; D3DXVECTOR3::D3DXVECTOR3
_TEXT	ENDS
; Function compile flags: /Ogtp
;	COMDAT ??_H@YGXPAXIIP6EPAX0@Z@Z
_TEXT	SEGMENT
___t$ = 8						; size = 4
___s$ = 12						; size = 4
___n$ = 16						; size = 4
___f$ = 20						; size = 4
??_H@YGXPAXIIP6EPAX0@Z@Z PROC				; `vector constructor iterator', COMDAT
  00000	55		 push	 ebp
  00001	8b ec		 mov	 ebp, esp
  00003	56		 push	 esi
  00004	8b 75 10	 mov	 esi, DWORD PTR ___n$[ebp]
  00007	85 f6		 test	 esi, esi
  00009	74 16		 je	 SHORT $LN6@vector
  0000b	53		 push	 ebx
  0000c	8b 5d 14	 mov	 ebx, DWORD PTR ___f$[ebp]
  0000f	57		 push	 edi
  00010	8b 7d 08	 mov	 edi, DWORD PTR ___t$[ebp]
$LL2@vector:
  00013	8b cf		 mov	 ecx, edi
  00015	ff d3		 call	 ebx
  00017	03 7d 0c	 add	 edi, DWORD PTR ___s$[ebp]
  0001a	83 ee 01	 sub	 esi, 1
  0001d	75 f4		 jne	 SHORT $LL2@vector
  0001f	5f		 pop	 edi
  00020	5b		 pop	 ebx
$LN6@vector:
  00021	5e		 pop	 esi
  00022	5d		 pop	 ebp
  00023	c2 10 00	 ret	 16			; 00000010H
??_H@YGXPAXIIP6EPAX0@Z@Z ENDP				; `vector constructor iterator'
_TEXT	ENDS
END
