; Listing generated by Microsoft (R) Optimizing Compiler Version 19.27.29112.0 

	TITLE	C:\DS Project\DS Files\Source\ClientSource\Client\EterLib\GrpShadowTexture.cpp
	.686P
	.XMM
	include listing.inc
	.model	flat

INCLUDELIB LIBCMT
INCLUDELIB OLDNAMES

PUBLIC	??_H@YGXPAXIIP6EPAX0@Z@Z			; `vector constructor iterator'
PUBLIC	??0D3DXMATRIX@@QAE@XZ				; D3DXMATRIX::D3DXMATRIX
PUBLIC	??0CGraphicShadowTexture@@QAE@XZ		; CGraphicShadowTexture::CGraphicShadowTexture
PUBLIC	??1CGraphicShadowTexture@@UAE@XZ		; CGraphicShadowTexture::~CGraphicShadowTexture
PUBLIC	?Destroy@CGraphicShadowTexture@@QAEXXZ		; CGraphicShadowTexture::Destroy
PUBLIC	?Create@CGraphicShadowTexture@@QAE_NHH@Z	; CGraphicShadowTexture::Create
PUBLIC	?Begin@CGraphicShadowTexture@@QAEXXZ		; CGraphicShadowTexture::Begin
PUBLIC	?End@CGraphicShadowTexture@@QAEXXZ		; CGraphicShadowTexture::End
PUBLIC	?Set@CGraphicShadowTexture@@QBEXH@Z		; CGraphicShadowTexture::Set
PUBLIC	?GetLightVPMatrixReference@CGraphicShadowTexture@@QBEABUD3DXMATRIX@@XZ ; CGraphicShadowTexture::GetLightVPMatrixReference
PUBLIC	?GetD3DTexture@CGraphicShadowTexture@@QBEPAUIDirect3DTexture8@@XZ ; CGraphicShadowTexture::GetD3DTexture
PUBLIC	?Initialize@CGraphicShadowTexture@@IAEXXZ	; CGraphicShadowTexture::Initialize
PUBLIC	??_GCGraphicShadowTexture@@UAEPAXI@Z		; CGraphicShadowTexture::`scalar deleting destructor'
PUBLIC	??_7CGraphicShadowTexture@@6B@			; CGraphicShadowTexture::`vftable'
PUBLIC	?ms_singleton@?$CSingleton@VCStateManager@@@@0PAVCStateManager@@A ; CSingleton<CStateManager>::ms_singleton
PUBLIC	??_R4CGraphicShadowTexture@@6B@			; CGraphicShadowTexture::`RTTI Complete Object Locator'
PUBLIC	??_R0?AVCGraphicShadowTexture@@@8		; CGraphicShadowTexture `RTTI Type Descriptor'
PUBLIC	??_R3CGraphicShadowTexture@@8			; CGraphicShadowTexture::`RTTI Class Hierarchy Descriptor'
PUBLIC	??_R2CGraphicShadowTexture@@8			; CGraphicShadowTexture::`RTTI Base Class Array'
PUBLIC	??_R1A@?0A@EA@CGraphicShadowTexture@@8		; CGraphicShadowTexture::`RTTI Base Class Descriptor at (0,-1,0,64)'
PUBLIC	??_R1A@?0A@EA@CGraphicTexture@@8		; CGraphicTexture::`RTTI Base Class Descriptor at (0,-1,0,64)'
PUBLIC	??_R0?AVCGraphicTexture@@@8			; CGraphicTexture `RTTI Type Descriptor'
PUBLIC	??_R3CGraphicTexture@@8				; CGraphicTexture::`RTTI Class Hierarchy Descriptor'
PUBLIC	??_R2CGraphicTexture@@8				; CGraphicTexture::`RTTI Base Class Array'
PUBLIC	??_R1A@?0A@EA@CGraphicBase@@8			; CGraphicBase::`RTTI Base Class Descriptor at (0,-1,0,64)'
PUBLIC	??_R0?AVCGraphicBase@@@8			; CGraphicBase `RTTI Type Descriptor'
PUBLIC	??_R3CGraphicBase@@8				; CGraphicBase::`RTTI Class Hierarchy Descriptor'
PUBLIC	??_R2CGraphicBase@@8				; CGraphicBase::`RTTI Base Class Array'
EXTRN	??3@YAXPAXI@Z:PROC				; operator delete
EXTRN	_D3DXMatrixMultiply@12:PROC
EXTRN	?IsEmpty@CGraphicTexture@@UBE_NXZ:PROC		; CGraphicTexture::IsEmpty
EXTRN	??0CGraphicTexture@@IAE@XZ:PROC			; CGraphicTexture::CGraphicTexture
EXTRN	??1CGraphicTexture@@MAE@XZ:PROC			; CGraphicTexture::~CGraphicTexture
EXTRN	?Destroy@CGraphicTexture@@IAEXXZ:PROC		; CGraphicTexture::Destroy
EXTRN	?Initialize@CGraphicTexture@@IAEXXZ:PROC	; CGraphicTexture::Initialize
EXTRN	??_ECGraphicShadowTexture@@UAEPAXI@Z:PROC	; CGraphicShadowTexture::`vector deleting destructor'
EXTRN	?SaveRenderState@CStateManager@@QAEXW4_D3DRENDERSTATETYPE@@K@Z:PROC ; CStateManager::SaveRenderState
EXTRN	?RestoreRenderState@CStateManager@@QAEXW4_D3DRENDERSTATETYPE@@@Z:PROC ; CStateManager::RestoreRenderState
EXTRN	?SetTexture@CStateManager@@QAEXKPAUIDirect3DBaseTexture8@@@Z:PROC ; CStateManager::SetTexture
EXTRN	?SaveTextureStageState@CStateManager@@QAEXKW4_D3DTEXTURESTAGESTATETYPE@@K@Z:PROC ; CStateManager::SaveTextureStageState
EXTRN	?RestoreTextureStageState@CStateManager@@QAEXKW4_D3DTEXTURESTAGESTATETYPE@@@Z:PROC ; CStateManager::RestoreTextureStageState
EXTRN	@__security_check_cookie@4:PROC
EXTRN	___CxxFrameHandler3:PROC
EXTRN	??_7type_info@@6B@:QWORD			; type_info::`vftable'
EXTRN	?ms_matView@CGraphicBase@@1UD3DXMATRIX@@A:BYTE	; CGraphicBase::ms_matView
EXTRN	?ms_matProj@CGraphicBase@@1UD3DXMATRIX@@A:BYTE	; CGraphicBase::ms_matProj
EXTRN	?ms_lpd3dDevice@CGraphicBase@@1PAUIDirect3DDevice8@@A:DWORD ; CGraphicBase::ms_lpd3dDevice
EXTRN	___security_cookie:DWORD
EXTRN	__fltused:DWORD
;	COMDAT ?ms_singleton@?$CSingleton@VCStateManager@@@@0PAVCStateManager@@A
_BSS	SEGMENT
?ms_singleton@?$CSingleton@VCStateManager@@@@0PAVCStateManager@@A DD 01H DUP (?) ; CSingleton<CStateManager>::ms_singleton
_BSS	ENDS
;	COMDAT ??_R2CGraphicBase@@8
rdata$r	SEGMENT
??_R2CGraphicBase@@8 DD FLAT:??_R1A@?0A@EA@CGraphicBase@@8 ; CGraphicBase::`RTTI Base Class Array'
rdata$r	ENDS
;	COMDAT ??_R3CGraphicBase@@8
rdata$r	SEGMENT
??_R3CGraphicBase@@8 DD 00H				; CGraphicBase::`RTTI Class Hierarchy Descriptor'
	DD	00H
	DD	01H
	DD	FLAT:??_R2CGraphicBase@@8
rdata$r	ENDS
;	COMDAT ??_R0?AVCGraphicBase@@@8
data$r	SEGMENT
??_R0?AVCGraphicBase@@@8 DD FLAT:??_7type_info@@6B@	; CGraphicBase `RTTI Type Descriptor'
	DD	00H
	DB	'.?AVCGraphicBase@@', 00H
data$r	ENDS
;	COMDAT ??_R1A@?0A@EA@CGraphicBase@@8
rdata$r	SEGMENT
??_R1A@?0A@EA@CGraphicBase@@8 DD FLAT:??_R0?AVCGraphicBase@@@8 ; CGraphicBase::`RTTI Base Class Descriptor at (0,-1,0,64)'
	DD	00H
	DD	00H
	DD	0ffffffffH
	DD	00H
	DD	040H
	DD	FLAT:??_R3CGraphicBase@@8
rdata$r	ENDS
;	COMDAT ??_R2CGraphicTexture@@8
rdata$r	SEGMENT
??_R2CGraphicTexture@@8 DD FLAT:??_R1A@?0A@EA@CGraphicTexture@@8 ; CGraphicTexture::`RTTI Base Class Array'
	DD	FLAT:??_R1A@?0A@EA@CGraphicBase@@8
rdata$r	ENDS
;	COMDAT ??_R3CGraphicTexture@@8
rdata$r	SEGMENT
??_R3CGraphicTexture@@8 DD 00H				; CGraphicTexture::`RTTI Class Hierarchy Descriptor'
	DD	00H
	DD	02H
	DD	FLAT:??_R2CGraphicTexture@@8
rdata$r	ENDS
;	COMDAT ??_R0?AVCGraphicTexture@@@8
data$r	SEGMENT
??_R0?AVCGraphicTexture@@@8 DD FLAT:??_7type_info@@6B@	; CGraphicTexture `RTTI Type Descriptor'
	DD	00H
	DB	'.?AVCGraphicTexture@@', 00H
data$r	ENDS
;	COMDAT ??_R1A@?0A@EA@CGraphicTexture@@8
rdata$r	SEGMENT
??_R1A@?0A@EA@CGraphicTexture@@8 DD FLAT:??_R0?AVCGraphicTexture@@@8 ; CGraphicTexture::`RTTI Base Class Descriptor at (0,-1,0,64)'
	DD	01H
	DD	00H
	DD	0ffffffffH
	DD	00H
	DD	040H
	DD	FLAT:??_R3CGraphicTexture@@8
rdata$r	ENDS
;	COMDAT ??_R1A@?0A@EA@CGraphicShadowTexture@@8
rdata$r	SEGMENT
??_R1A@?0A@EA@CGraphicShadowTexture@@8 DD FLAT:??_R0?AVCGraphicShadowTexture@@@8 ; CGraphicShadowTexture::`RTTI Base Class Descriptor at (0,-1,0,64)'
	DD	02H
	DD	00H
	DD	0ffffffffH
	DD	00H
	DD	040H
	DD	FLAT:??_R3CGraphicShadowTexture@@8
rdata$r	ENDS
;	COMDAT ??_R2CGraphicShadowTexture@@8
rdata$r	SEGMENT
??_R2CGraphicShadowTexture@@8 DD FLAT:??_R1A@?0A@EA@CGraphicShadowTexture@@8 ; CGraphicShadowTexture::`RTTI Base Class Array'
	DD	FLAT:??_R1A@?0A@EA@CGraphicTexture@@8
	DD	FLAT:??_R1A@?0A@EA@CGraphicBase@@8
rdata$r	ENDS
;	COMDAT ??_R3CGraphicShadowTexture@@8
rdata$r	SEGMENT
??_R3CGraphicShadowTexture@@8 DD 00H			; CGraphicShadowTexture::`RTTI Class Hierarchy Descriptor'
	DD	00H
	DD	03H
	DD	FLAT:??_R2CGraphicShadowTexture@@8
rdata$r	ENDS
;	COMDAT ??_R0?AVCGraphicShadowTexture@@@8
data$r	SEGMENT
??_R0?AVCGraphicShadowTexture@@@8 DD FLAT:??_7type_info@@6B@ ; CGraphicShadowTexture `RTTI Type Descriptor'
	DD	00H
	DB	'.?AVCGraphicShadowTexture@@', 00H
data$r	ENDS
;	COMDAT ??_R4CGraphicShadowTexture@@6B@
rdata$r	SEGMENT
??_R4CGraphicShadowTexture@@6B@ DD 00H			; CGraphicShadowTexture::`RTTI Complete Object Locator'
	DD	00H
	DD	00H
	DD	FLAT:??_R0?AVCGraphicShadowTexture@@@8
	DD	FLAT:??_R3CGraphicShadowTexture@@8
rdata$r	ENDS
;	COMDAT ??_7CGraphicShadowTexture@@6B@
CONST	SEGMENT
??_7CGraphicShadowTexture@@6B@ DD FLAT:??_R4CGraphicShadowTexture@@6B@ ; CGraphicShadowTexture::`vftable'
	DD	FLAT:??_ECGraphicShadowTexture@@UAEPAXI@Z
	DD	FLAT:?IsEmpty@CGraphicTexture@@UBE_NXZ
CONST	ENDS
;	COMDAT xdata$x
xdata$x	SEGMENT
__ehfuncinfo$??1CGraphicShadowTexture@@UAE@XZ DD 019930522H
	DD	00H
	DD	00H
	DD	2 DUP(00H)
	DD	2 DUP(00H)
	DD	00H
	DD	05H
xdata$x	ENDS
;	COMDAT xdata$x
xdata$x	SEGMENT
__unwindtable$??0CGraphicShadowTexture@@QAE@XZ DD 0ffffffffH
	DD	FLAT:__unwindfunclet$??0CGraphicShadowTexture@@QAE@XZ$0
__ehfuncinfo$??0CGraphicShadowTexture@@QAE@XZ DD 019930522H
	DD	01H
	DD	FLAT:__unwindtable$??0CGraphicShadowTexture@@QAE@XZ
	DD	2 DUP(00H)
	DD	2 DUP(00H)
	DD	00H
	DD	01H
xdata$x	ENDS
; Function compile flags: /Ogtp
;	COMDAT ??_GCGraphicShadowTexture@@UAEPAXI@Z
_TEXT	SEGMENT
___flags$ = 8						; size = 4
??_GCGraphicShadowTexture@@UAEPAXI@Z PROC		; CGraphicShadowTexture::`scalar deleting destructor', COMDAT
; _this$ = ecx
  00000	55		 push	 ebp
  00001	8b ec		 mov	 ebp, esp
  00003	56		 push	 esi
  00004	8b f1		 mov	 esi, ecx
  00006	e8 00 00 00 00	 call	 ??1CGraphicShadowTexture@@UAE@XZ ; CGraphicShadowTexture::~CGraphicShadowTexture
  0000b	f6 45 08 01	 test	 BYTE PTR ___flags$[ebp], 1
  0000f	74 0e		 je	 SHORT $LN4@scalar
  00011	68 80 00 00 00	 push	 128			; 00000080H
  00016	56		 push	 esi
  00017	e8 00 00 00 00	 call	 ??3@YAXPAXI@Z		; operator delete
  0001c	83 c4 08	 add	 esp, 8
$LN4@scalar:
  0001f	8b c6		 mov	 eax, esi
  00021	5e		 pop	 esi
  00022	5d		 pop	 ebp
  00023	c2 04 00	 ret	 4
??_GCGraphicShadowTexture@@UAEPAXI@Z ENDP		; CGraphicShadowTexture::`scalar deleting destructor'
_TEXT	ENDS
; Function compile flags: /Ogtp
; File C:\DS Project\DS Files\Source\ClientSource\Client\EterLib\GrpShadowTexture.cpp
;	COMDAT ?Initialize@CGraphicShadowTexture@@IAEXXZ
_TEXT	SEGMENT
?Initialize@CGraphicShadowTexture@@IAEXXZ PROC		; CGraphicShadowTexture::Initialize, COMDAT
; _this$ = ecx

; 173  : {

  00000	56		 push	 esi
  00001	8b f1		 mov	 esi, ecx

; 174  : 	CGraphicTexture::Initialize();

  00003	e8 00 00 00 00	 call	 ?Initialize@CGraphicTexture@@IAEXXZ ; CGraphicTexture::Initialize

; 175  : 
; 176  : 	m_lpd3dShadowSurface = NULL;

  00008	c7 46 70 00 00
	00 00		 mov	 DWORD PTR [esi+112], 0

; 177  : 	m_lpd3dDepthSurface = NULL;

  0000f	c7 46 74 00 00
	00 00		 mov	 DWORD PTR [esi+116], 0

; 178  : 	m_lpd3dOldBackBufferSurface = NULL;

  00016	c7 46 78 00 00
	00 00		 mov	 DWORD PTR [esi+120], 0

; 179  : 	m_lpd3dOldDepthBufferSurface = NULL;

  0001d	c7 46 7c 00 00
	00 00		 mov	 DWORD PTR [esi+124], 0

; 180  : 	m_lpd3dShadowTexture = NULL;

  00024	c7 46 6c 00 00
	00 00		 mov	 DWORD PTR [esi+108], 0
  0002b	5e		 pop	 esi

; 181  : }

  0002c	c3		 ret	 0
?Initialize@CGraphicShadowTexture@@IAEXXZ ENDP		; CGraphicShadowTexture::Initialize
_TEXT	ENDS
; Function compile flags: /Ogtp
; File C:\DS Project\DS Files\Source\ClientSource\Client\EterLib\GrpShadowTexture.cpp
;	COMDAT ?GetD3DTexture@CGraphicShadowTexture@@QBEPAUIDirect3DTexture8@@XZ
_TEXT	SEGMENT
?GetD3DTexture@CGraphicShadowTexture@@QBEPAUIDirect3DTexture8@@XZ PROC ; CGraphicShadowTexture::GetD3DTexture, COMDAT
; _this$ = ecx

; 62   : 	return m_lpd3dShadowTexture;

  00000	8b 41 6c	 mov	 eax, DWORD PTR [ecx+108]

; 63   : }

  00003	c3		 ret	 0
?GetD3DTexture@CGraphicShadowTexture@@QBEPAUIDirect3DTexture8@@XZ ENDP ; CGraphicShadowTexture::GetD3DTexture
_TEXT	ENDS
; Function compile flags: /Ogtp
; File C:\DS Project\DS Files\Source\ClientSource\Client\EterLib\GrpShadowTexture.cpp
;	COMDAT ?GetLightVPMatrixReference@CGraphicShadowTexture@@QBEABUD3DXMATRIX@@XZ
_TEXT	SEGMENT
?GetLightVPMatrixReference@CGraphicShadowTexture@@QBEABUD3DXMATRIX@@XZ PROC ; CGraphicShadowTexture::GetLightVPMatrixReference, COMDAT
; _this$ = ecx

; 57   : 	return m_d3dLightVPMatrix;

  00000	8d 41 14	 lea	 eax, DWORD PTR [ecx+20]

; 58   : }

  00003	c3		 ret	 0
?GetLightVPMatrixReference@CGraphicShadowTexture@@QBEABUD3DXMATRIX@@XZ ENDP ; CGraphicShadowTexture::GetLightVPMatrixReference
_TEXT	ENDS
; Function compile flags: /Ogtp
; File C:\DS Project\DS Files\Source\ClientSource\Client\EterLib\GrpShadowTexture.cpp
;	COMDAT ?Set@CGraphicShadowTexture@@QBEXH@Z
_TEXT	SEGMENT
_stage$ = 8						; size = 4
?Set@CGraphicShadowTexture@@QBEXH@Z PROC		; CGraphicShadowTexture::Set, COMDAT
; _this$ = ecx

; 51   : {

  00000	55		 push	 ebp
  00001	8b ec		 mov	 ebp, esp

; 52   : 	STATEMANAGER.SetTexture(stage, m_lpd3dShadowTexture);

  00003	ff 71 6c	 push	 DWORD PTR [ecx+108]
  00006	8b 0d 00 00 00
	00		 mov	 ecx, DWORD PTR ?ms_singleton@?$CSingleton@VCStateManager@@@@0PAVCStateManager@@A ; CSingleton<CStateManager>::ms_singleton
  0000c	ff 75 08	 push	 DWORD PTR _stage$[ebp]
  0000f	e8 00 00 00 00	 call	 ?SetTexture@CStateManager@@QAEXKPAUIDirect3DBaseTexture8@@@Z ; CStateManager::SetTexture

; 53   : }

  00014	5d		 pop	 ebp
  00015	c2 04 00	 ret	 4
?Set@CGraphicShadowTexture@@QBEXH@Z ENDP		; CGraphicShadowTexture::Set
_TEXT	ENDS
; Function compile flags: /Ogtp
; File C:\DS Project\DS Files\Source\ClientSource\Client\EterLib\GrpShadowTexture.cpp
;	COMDAT ?End@CGraphicShadowTexture@@QAEXXZ
_TEXT	SEGMENT
?End@CGraphicShadowTexture@@QAEXXZ PROC			; CGraphicShadowTexture::End, COMDAT
; _this$ = ecx

; 125  : 	assert(m_lpd3dOldBackBufferSurface != NULL);
; 126  : 	assert(m_lpd3dOldDepthBufferSurface != NULL);
; 127  : 
; 128  : 	ms_lpd3dDevice->EndScene();

  00000	a1 00 00 00 00	 mov	 eax, DWORD PTR ?ms_lpd3dDevice@CGraphicBase@@1PAUIDirect3DDevice8@@A ; CGraphicBase::ms_lpd3dDevice
  00005	56		 push	 esi
  00006	50		 push	 eax
  00007	8b f1		 mov	 esi, ecx
  00009	8b 10		 mov	 edx, DWORD PTR [eax]
  0000b	ff 92 8c 00 00
	00		 call	 DWORD PTR [edx+140]

; 129  : 
; 130  : 	ms_lpd3dDevice->SetRenderTarget(m_lpd3dOldBackBufferSurface, m_lpd3dOldDepthBufferSurface);

  00011	a1 00 00 00 00	 mov	 eax, DWORD PTR ?ms_lpd3dDevice@CGraphicBase@@1PAUIDirect3DDevice8@@A ; CGraphicBase::ms_lpd3dDevice
  00016	ff 76 7c	 push	 DWORD PTR [esi+124]
  00019	ff 76 78	 push	 DWORD PTR [esi+120]
  0001c	8b 08		 mov	 ecx, DWORD PTR [eax]
  0001e	50		 push	 eax
  0001f	ff 51 7c	 call	 DWORD PTR [ecx+124]

; 131  : 	ms_lpd3dDevice->SetViewport(&m_d3dOldViewport);

  00022	8b 0d 00 00 00
	00		 mov	 ecx, DWORD PTR ?ms_lpd3dDevice@CGraphicBase@@1PAUIDirect3DDevice8@@A ; CGraphicBase::ms_lpd3dDevice
  00028	8d 46 54	 lea	 eax, DWORD PTR [esi+84]
  0002b	50		 push	 eax
  0002c	51		 push	 ecx
  0002d	8b 11		 mov	 edx, DWORD PTR [ecx]
  0002f	ff 92 a0 00 00
	00		 call	 DWORD PTR [edx+160]

; 132  : 
; 133  : 	m_lpd3dOldBackBufferSurface->Release();

  00035	8b 46 78	 mov	 eax, DWORD PTR [esi+120]
  00038	50		 push	 eax
  00039	8b 08		 mov	 ecx, DWORD PTR [eax]
  0003b	ff 51 08	 call	 DWORD PTR [ecx+8]

; 134  : 	m_lpd3dOldDepthBufferSurface->Release();

  0003e	8b 46 7c	 mov	 eax, DWORD PTR [esi+124]
  00041	50		 push	 eax
  00042	8b 08		 mov	 ecx, DWORD PTR [eax]
  00044	ff 51 08	 call	 DWORD PTR [ecx+8]

; 135  : 
; 136  : 	m_lpd3dOldBackBufferSurface = NULL;

  00047	c7 46 78 00 00
	00 00		 mov	 DWORD PTR [esi+120], 0

; 137  : 	m_lpd3dOldDepthBufferSurface = NULL;

  0004e	c7 46 7c 00 00
	00 00		 mov	 DWORD PTR [esi+124], 0

; 138  : 
; 139  : 	STATEMANAGER.RestoreRenderState(D3DRS_CULLMODE);

  00055	8b 0d 00 00 00
	00		 mov	 ecx, DWORD PTR ?ms_singleton@?$CSingleton@VCStateManager@@@@0PAVCStateManager@@A ; CSingleton<CStateManager>::ms_singleton
  0005b	6a 16		 push	 22			; 00000016H
  0005d	e8 00 00 00 00	 call	 ?RestoreRenderState@CStateManager@@QAEXW4_D3DRENDERSTATETYPE@@@Z ; CStateManager::RestoreRenderState

; 140  : 	STATEMANAGER.RestoreRenderState(D3DRS_ZFUNC);

  00062	8b 0d 00 00 00
	00		 mov	 ecx, DWORD PTR ?ms_singleton@?$CSingleton@VCStateManager@@@@0PAVCStateManager@@A ; CSingleton<CStateManager>::ms_singleton
  00068	6a 17		 push	 23			; 00000017H
  0006a	e8 00 00 00 00	 call	 ?RestoreRenderState@CStateManager@@QAEXW4_D3DRENDERSTATETYPE@@@Z ; CStateManager::RestoreRenderState

; 141  : 	STATEMANAGER.RestoreRenderState(D3DRS_ALPHABLENDENABLE);

  0006f	8b 0d 00 00 00
	00		 mov	 ecx, DWORD PTR ?ms_singleton@?$CSingleton@VCStateManager@@@@0PAVCStateManager@@A ; CSingleton<CStateManager>::ms_singleton
  00075	6a 1b		 push	 27			; 0000001bH
  00077	e8 00 00 00 00	 call	 ?RestoreRenderState@CStateManager@@QAEXW4_D3DRENDERSTATETYPE@@@Z ; CStateManager::RestoreRenderState

; 142  : 	STATEMANAGER.RestoreRenderState(D3DRS_ALPHATESTENABLE);

  0007c	8b 0d 00 00 00
	00		 mov	 ecx, DWORD PTR ?ms_singleton@?$CSingleton@VCStateManager@@@@0PAVCStateManager@@A ; CSingleton<CStateManager>::ms_singleton
  00082	6a 0f		 push	 15			; 0000000fH
  00084	e8 00 00 00 00	 call	 ?RestoreRenderState@CStateManager@@QAEXW4_D3DRENDERSTATETYPE@@@Z ; CStateManager::RestoreRenderState

; 143  : 	STATEMANAGER.RestoreRenderState(D3DRS_TEXTUREFACTOR);

  00089	8b 0d 00 00 00
	00		 mov	 ecx, DWORD PTR ?ms_singleton@?$CSingleton@VCStateManager@@@@0PAVCStateManager@@A ; CSingleton<CStateManager>::ms_singleton
  0008f	6a 3c		 push	 60			; 0000003cH
  00091	e8 00 00 00 00	 call	 ?RestoreRenderState@CStateManager@@QAEXW4_D3DRENDERSTATETYPE@@@Z ; CStateManager::RestoreRenderState

; 144  : 
; 145  : 	STATEMANAGER.RestoreTextureStageState(0, D3DTSS_COLORARG1);

  00096	8b 0d 00 00 00
	00		 mov	 ecx, DWORD PTR ?ms_singleton@?$CSingleton@VCStateManager@@@@0PAVCStateManager@@A ; CSingleton<CStateManager>::ms_singleton
  0009c	6a 02		 push	 2
  0009e	6a 00		 push	 0
  000a0	e8 00 00 00 00	 call	 ?RestoreTextureStageState@CStateManager@@QAEXKW4_D3DTEXTURESTAGESTATETYPE@@@Z ; CStateManager::RestoreTextureStageState

; 146  : 	STATEMANAGER.RestoreTextureStageState(0, D3DTSS_COLORARG2);

  000a5	8b 0d 00 00 00
	00		 mov	 ecx, DWORD PTR ?ms_singleton@?$CSingleton@VCStateManager@@@@0PAVCStateManager@@A ; CSingleton<CStateManager>::ms_singleton
  000ab	6a 03		 push	 3
  000ad	6a 00		 push	 0
  000af	e8 00 00 00 00	 call	 ?RestoreTextureStageState@CStateManager@@QAEXKW4_D3DTEXTURESTAGESTATETYPE@@@Z ; CStateManager::RestoreTextureStageState

; 147  : 	STATEMANAGER.RestoreTextureStageState(0, D3DTSS_COLOROP);

  000b4	8b 0d 00 00 00
	00		 mov	 ecx, DWORD PTR ?ms_singleton@?$CSingleton@VCStateManager@@@@0PAVCStateManager@@A ; CSingleton<CStateManager>::ms_singleton
  000ba	6a 01		 push	 1
  000bc	6a 00		 push	 0
  000be	e8 00 00 00 00	 call	 ?RestoreTextureStageState@CStateManager@@QAEXKW4_D3DTEXTURESTAGESTATETYPE@@@Z ; CStateManager::RestoreTextureStageState

; 148  : 	STATEMANAGER.RestoreTextureStageState(0, D3DTSS_ALPHAARG1);

  000c3	8b 0d 00 00 00
	00		 mov	 ecx, DWORD PTR ?ms_singleton@?$CSingleton@VCStateManager@@@@0PAVCStateManager@@A ; CSingleton<CStateManager>::ms_singleton
  000c9	6a 05		 push	 5
  000cb	6a 00		 push	 0
  000cd	e8 00 00 00 00	 call	 ?RestoreTextureStageState@CStateManager@@QAEXKW4_D3DTEXTURESTAGESTATETYPE@@@Z ; CStateManager::RestoreTextureStageState

; 149  : 	STATEMANAGER.RestoreTextureStageState(0, D3DTSS_ALPHAARG2);

  000d2	8b 0d 00 00 00
	00		 mov	 ecx, DWORD PTR ?ms_singleton@?$CSingleton@VCStateManager@@@@0PAVCStateManager@@A ; CSingleton<CStateManager>::ms_singleton
  000d8	6a 06		 push	 6
  000da	6a 00		 push	 0
  000dc	e8 00 00 00 00	 call	 ?RestoreTextureStageState@CStateManager@@QAEXKW4_D3DTEXTURESTAGESTATETYPE@@@Z ; CStateManager::RestoreTextureStageState

; 150  : 	STATEMANAGER.RestoreTextureStageState(0, D3DTSS_ALPHAOP);

  000e1	8b 0d 00 00 00
	00		 mov	 ecx, DWORD PTR ?ms_singleton@?$CSingleton@VCStateManager@@@@0PAVCStateManager@@A ; CSingleton<CStateManager>::ms_singleton
  000e7	6a 04		 push	 4
  000e9	6a 00		 push	 0
  000eb	e8 00 00 00 00	 call	 ?RestoreTextureStageState@CStateManager@@QAEXKW4_D3DTEXTURESTAGESTATETYPE@@@Z ; CStateManager::RestoreTextureStageState

; 151  : 
; 152  : 	STATEMANAGER.RestoreTextureStageState(0, D3DTSS_MINFILTER);

  000f0	8b 0d 00 00 00
	00		 mov	 ecx, DWORD PTR ?ms_singleton@?$CSingleton@VCStateManager@@@@0PAVCStateManager@@A ; CSingleton<CStateManager>::ms_singleton
  000f6	6a 11		 push	 17			; 00000011H
  000f8	6a 00		 push	 0
  000fa	e8 00 00 00 00	 call	 ?RestoreTextureStageState@CStateManager@@QAEXKW4_D3DTEXTURESTAGESTATETYPE@@@Z ; CStateManager::RestoreTextureStageState

; 153  : 	STATEMANAGER.RestoreTextureStageState(0, D3DTSS_MAGFILTER);

  000ff	8b 0d 00 00 00
	00		 mov	 ecx, DWORD PTR ?ms_singleton@?$CSingleton@VCStateManager@@@@0PAVCStateManager@@A ; CSingleton<CStateManager>::ms_singleton
  00105	6a 10		 push	 16			; 00000010H
  00107	6a 00		 push	 0
  00109	e8 00 00 00 00	 call	 ?RestoreTextureStageState@CStateManager@@QAEXKW4_D3DTEXTURESTAGESTATETYPE@@@Z ; CStateManager::RestoreTextureStageState

; 154  : 	STATEMANAGER.RestoreTextureStageState(0, D3DTSS_MIPFILTER);

  0010e	8b 0d 00 00 00
	00		 mov	 ecx, DWORD PTR ?ms_singleton@?$CSingleton@VCStateManager@@@@0PAVCStateManager@@A ; CSingleton<CStateManager>::ms_singleton
  00114	6a 12		 push	 18			; 00000012H
  00116	6a 00		 push	 0
  00118	e8 00 00 00 00	 call	 ?RestoreTextureStageState@CStateManager@@QAEXKW4_D3DTEXTURESTAGESTATETYPE@@@Z ; CStateManager::RestoreTextureStageState

; 155  : 	STATEMANAGER.RestoreTextureStageState(0, D3DTSS_ADDRESSU);

  0011d	6a 0d		 push	 13			; 0000000dH
  0011f	6a 00		 push	 0
  00121	8b 0d 00 00 00
	00		 mov	 ecx, DWORD PTR ?ms_singleton@?$CSingleton@VCStateManager@@@@0PAVCStateManager@@A ; CSingleton<CStateManager>::ms_singleton
  00127	e8 00 00 00 00	 call	 ?RestoreTextureStageState@CStateManager@@QAEXKW4_D3DTEXTURESTAGESTATETYPE@@@Z ; CStateManager::RestoreTextureStageState

; 156  : 	STATEMANAGER.RestoreTextureStageState(0, D3DTSS_ADDRESSV);

  0012c	8b 0d 00 00 00
	00		 mov	 ecx, DWORD PTR ?ms_singleton@?$CSingleton@VCStateManager@@@@0PAVCStateManager@@A ; CSingleton<CStateManager>::ms_singleton
  00132	6a 0e		 push	 14			; 0000000eH
  00134	6a 00		 push	 0
  00136	e8 00 00 00 00	 call	 ?RestoreTextureStageState@CStateManager@@QAEXKW4_D3DTEXTURESTAGESTATETYPE@@@Z ; CStateManager::RestoreTextureStageState

; 157  : 
; 158  : 	STATEMANAGER.RestoreTextureStageState(1, D3DTSS_COLORARG1);

  0013b	8b 0d 00 00 00
	00		 mov	 ecx, DWORD PTR ?ms_singleton@?$CSingleton@VCStateManager@@@@0PAVCStateManager@@A ; CSingleton<CStateManager>::ms_singleton
  00141	6a 02		 push	 2
  00143	6a 01		 push	 1
  00145	e8 00 00 00 00	 call	 ?RestoreTextureStageState@CStateManager@@QAEXKW4_D3DTEXTURESTAGESTATETYPE@@@Z ; CStateManager::RestoreTextureStageState

; 159  : 	STATEMANAGER.RestoreTextureStageState(1, D3DTSS_COLORARG2);

  0014a	8b 0d 00 00 00
	00		 mov	 ecx, DWORD PTR ?ms_singleton@?$CSingleton@VCStateManager@@@@0PAVCStateManager@@A ; CSingleton<CStateManager>::ms_singleton
  00150	6a 03		 push	 3
  00152	6a 01		 push	 1
  00154	e8 00 00 00 00	 call	 ?RestoreTextureStageState@CStateManager@@QAEXKW4_D3DTEXTURESTAGESTATETYPE@@@Z ; CStateManager::RestoreTextureStageState

; 160  : 	STATEMANAGER.RestoreTextureStageState(1, D3DTSS_COLOROP);

  00159	8b 0d 00 00 00
	00		 mov	 ecx, DWORD PTR ?ms_singleton@?$CSingleton@VCStateManager@@@@0PAVCStateManager@@A ; CSingleton<CStateManager>::ms_singleton
  0015f	6a 01		 push	 1
  00161	6a 01		 push	 1
  00163	e8 00 00 00 00	 call	 ?RestoreTextureStageState@CStateManager@@QAEXKW4_D3DTEXTURESTAGESTATETYPE@@@Z ; CStateManager::RestoreTextureStageState

; 161  : 	STATEMANAGER.RestoreTextureStageState(1, D3DTSS_ALPHAARG1);

  00168	8b 0d 00 00 00
	00		 mov	 ecx, DWORD PTR ?ms_singleton@?$CSingleton@VCStateManager@@@@0PAVCStateManager@@A ; CSingleton<CStateManager>::ms_singleton
  0016e	6a 05		 push	 5
  00170	6a 01		 push	 1
  00172	e8 00 00 00 00	 call	 ?RestoreTextureStageState@CStateManager@@QAEXKW4_D3DTEXTURESTAGESTATETYPE@@@Z ; CStateManager::RestoreTextureStageState

; 162  : 	STATEMANAGER.RestoreTextureStageState(1, D3DTSS_ALPHAARG2);

  00177	8b 0d 00 00 00
	00		 mov	 ecx, DWORD PTR ?ms_singleton@?$CSingleton@VCStateManager@@@@0PAVCStateManager@@A ; CSingleton<CStateManager>::ms_singleton
  0017d	6a 06		 push	 6
  0017f	6a 01		 push	 1
  00181	e8 00 00 00 00	 call	 ?RestoreTextureStageState@CStateManager@@QAEXKW4_D3DTEXTURESTAGESTATETYPE@@@Z ; CStateManager::RestoreTextureStageState

; 163  : 	STATEMANAGER.RestoreTextureStageState(1, D3DTSS_ALPHAOP);

  00186	8b 0d 00 00 00
	00		 mov	 ecx, DWORD PTR ?ms_singleton@?$CSingleton@VCStateManager@@@@0PAVCStateManager@@A ; CSingleton<CStateManager>::ms_singleton
  0018c	6a 04		 push	 4
  0018e	6a 01		 push	 1
  00190	e8 00 00 00 00	 call	 ?RestoreTextureStageState@CStateManager@@QAEXKW4_D3DTEXTURESTAGESTATETYPE@@@Z ; CStateManager::RestoreTextureStageState

; 164  : 
; 165  : 	STATEMANAGER.RestoreTextureStageState(1, D3DTSS_MINFILTER);

  00195	8b 0d 00 00 00
	00		 mov	 ecx, DWORD PTR ?ms_singleton@?$CSingleton@VCStateManager@@@@0PAVCStateManager@@A ; CSingleton<CStateManager>::ms_singleton
  0019b	6a 11		 push	 17			; 00000011H
  0019d	6a 01		 push	 1
  0019f	e8 00 00 00 00	 call	 ?RestoreTextureStageState@CStateManager@@QAEXKW4_D3DTEXTURESTAGESTATETYPE@@@Z ; CStateManager::RestoreTextureStageState

; 166  : 	STATEMANAGER.RestoreTextureStageState(1, D3DTSS_MAGFILTER);

  001a4	8b 0d 00 00 00
	00		 mov	 ecx, DWORD PTR ?ms_singleton@?$CSingleton@VCStateManager@@@@0PAVCStateManager@@A ; CSingleton<CStateManager>::ms_singleton
  001aa	6a 10		 push	 16			; 00000010H
  001ac	6a 01		 push	 1
  001ae	e8 00 00 00 00	 call	 ?RestoreTextureStageState@CStateManager@@QAEXKW4_D3DTEXTURESTAGESTATETYPE@@@Z ; CStateManager::RestoreTextureStageState

; 167  : 	STATEMANAGER.RestoreTextureStageState(1, D3DTSS_MIPFILTER);

  001b3	8b 0d 00 00 00
	00		 mov	 ecx, DWORD PTR ?ms_singleton@?$CSingleton@VCStateManager@@@@0PAVCStateManager@@A ; CSingleton<CStateManager>::ms_singleton
  001b9	6a 12		 push	 18			; 00000012H
  001bb	6a 01		 push	 1
  001bd	e8 00 00 00 00	 call	 ?RestoreTextureStageState@CStateManager@@QAEXKW4_D3DTEXTURESTAGESTATETYPE@@@Z ; CStateManager::RestoreTextureStageState

; 168  : 	STATEMANAGER.RestoreTextureStageState(1, D3DTSS_ADDRESSU);

  001c2	8b 0d 00 00 00
	00		 mov	 ecx, DWORD PTR ?ms_singleton@?$CSingleton@VCStateManager@@@@0PAVCStateManager@@A ; CSingleton<CStateManager>::ms_singleton
  001c8	6a 0d		 push	 13			; 0000000dH
  001ca	6a 01		 push	 1
  001cc	e8 00 00 00 00	 call	 ?RestoreTextureStageState@CStateManager@@QAEXKW4_D3DTEXTURESTAGESTATETYPE@@@Z ; CStateManager::RestoreTextureStageState

; 169  : 	STATEMANAGER.RestoreTextureStageState(1, D3DTSS_ADDRESSV);

  001d1	8b 0d 00 00 00
	00		 mov	 ecx, DWORD PTR ?ms_singleton@?$CSingleton@VCStateManager@@@@0PAVCStateManager@@A ; CSingleton<CStateManager>::ms_singleton
  001d7	6a 0e		 push	 14			; 0000000eH
  001d9	6a 01		 push	 1
  001db	e8 00 00 00 00	 call	 ?RestoreTextureStageState@CStateManager@@QAEXKW4_D3DTEXTURESTAGESTATETYPE@@@Z ; CStateManager::RestoreTextureStageState
  001e0	5e		 pop	 esi

; 170  : }

  001e1	c3		 ret	 0
?End@CGraphicShadowTexture@@QAEXXZ ENDP			; CGraphicShadowTexture::End
_TEXT	ENDS
; Function compile flags: /Ogtp
; File C:\DS Project\DS Files\Source\ClientSource\Client\EterLib\GrpShadowTexture.cpp
;	COMDAT ?Begin@CGraphicShadowTexture@@QAEXXZ
_TEXT	SEGMENT
_d3dViewport$ = -28					; size = 24
__$ArrayPad$ = -4					; size = 4
?Begin@CGraphicShadowTexture@@QAEXXZ PROC		; CGraphicShadowTexture::Begin, COMDAT
; _this$ = ecx

; 66   : {

  00000	55		 push	 ebp
  00001	8b ec		 mov	 ebp, esp
  00003	83 ec 1c	 sub	 esp, 28			; 0000001cH
  00006	a1 00 00 00 00	 mov	 eax, DWORD PTR ___security_cookie
  0000b	33 c5		 xor	 eax, ebp
  0000d	89 45 fc	 mov	 DWORD PTR __$ArrayPad$[ebp], eax
  00010	56		 push	 esi
  00011	8b f1		 mov	 esi, ecx

; 67   : 	D3DXMatrixMultiply(&m_d3dLightVPMatrix, &ms_matView, &ms_matProj);

  00013	68 00 00 00 00	 push	 OFFSET ?ms_matProj@CGraphicBase@@1UD3DXMATRIX@@A ; CGraphicBase::ms_matProj
  00018	68 00 00 00 00	 push	 OFFSET ?ms_matView@CGraphicBase@@1UD3DXMATRIX@@A ; CGraphicBase::ms_matView
  0001d	8d 46 14	 lea	 eax, DWORD PTR [esi+20]
  00020	50		 push	 eax
  00021	e8 00 00 00 00	 call	 _D3DXMatrixMultiply@12

; 68   : 
; 69   : 	ms_lpd3dDevice->GetRenderTarget(&m_lpd3dOldBackBufferSurface);

  00026	8b 15 00 00 00
	00		 mov	 edx, DWORD PTR ?ms_lpd3dDevice@CGraphicBase@@1PAUIDirect3DDevice8@@A ; CGraphicBase::ms_lpd3dDevice
  0002c	8d 46 78	 lea	 eax, DWORD PTR [esi+120]
  0002f	50		 push	 eax
  00030	52		 push	 edx
  00031	8b 0a		 mov	 ecx, DWORD PTR [edx]
  00033	ff 91 80 00 00
	00		 call	 DWORD PTR [ecx+128]

; 70   : 	ms_lpd3dDevice->GetDepthStencilSurface(&m_lpd3dOldDepthBufferSurface);

  00039	8b 0d 00 00 00
	00		 mov	 ecx, DWORD PTR ?ms_lpd3dDevice@CGraphicBase@@1PAUIDirect3DDevice8@@A ; CGraphicBase::ms_lpd3dDevice
  0003f	8d 46 7c	 lea	 eax, DWORD PTR [esi+124]
  00042	50		 push	 eax
  00043	51		 push	 ecx
  00044	8b 11		 mov	 edx, DWORD PTR [ecx]
  00046	ff 92 84 00 00
	00		 call	 DWORD PTR [edx+132]

; 71   : 	ms_lpd3dDevice->GetViewport(&m_d3dOldViewport);

  0004c	8b 0d 00 00 00
	00		 mov	 ecx, DWORD PTR ?ms_lpd3dDevice@CGraphicBase@@1PAUIDirect3DDevice8@@A ; CGraphicBase::ms_lpd3dDevice
  00052	8d 46 54	 lea	 eax, DWORD PTR [esi+84]
  00055	50		 push	 eax
  00056	51		 push	 ecx
  00057	8b 11		 mov	 edx, DWORD PTR [ecx]
  00059	ff 92 a4 00 00
	00		 call	 DWORD PTR [edx+164]

; 72   : 
; 73   : 	ms_lpd3dDevice->SetRenderTarget(m_lpd3dShadowSurface, m_lpd3dDepthSurface);

  0005f	a1 00 00 00 00	 mov	 eax, DWORD PTR ?ms_lpd3dDevice@CGraphicBase@@1PAUIDirect3DDevice8@@A ; CGraphicBase::ms_lpd3dDevice
  00064	ff 76 74	 push	 DWORD PTR [esi+116]
  00067	ff 76 70	 push	 DWORD PTR [esi+112]
  0006a	8b 08		 mov	 ecx, DWORD PTR [eax]
  0006c	50		 push	 eax
  0006d	ff 51 7c	 call	 DWORD PTR [ecx+124]

; 74   : 
; 75   : 	D3DVIEWPORT8 d3dViewport;
; 76   : 	d3dViewport.MinZ = 0.0f;
; 77   : 	d3dViewport.MaxZ = 1.0f;
; 78   : 	d3dViewport.X = 0;
; 79   : 	d3dViewport.Y = 0;
; 80   : 	d3dViewport.Width = m_width;

  00070	8b 46 08	 mov	 eax, DWORD PTR [esi+8]

; 81   : 	d3dViewport.Height = m_height;
; 82   : 
; 83   : 	ms_lpd3dDevice->SetViewport(&d3dViewport);

  00073	8d 55 e4	 lea	 edx, DWORD PTR _d3dViewport$[ebp]
  00076	89 45 ec	 mov	 DWORD PTR _d3dViewport$[ebp+8], eax
  00079	8b 46 0c	 mov	 eax, DWORD PTR [esi+12]
  0007c	89 45 f0	 mov	 DWORD PTR _d3dViewport$[ebp+12], eax
  0007f	a1 00 00 00 00	 mov	 eax, DWORD PTR ?ms_lpd3dDevice@CGraphicBase@@1PAUIDirect3DDevice8@@A ; CGraphicBase::ms_lpd3dDevice
  00084	c7 45 f4 00 00
	00 00		 mov	 DWORD PTR _d3dViewport$[ebp+16], 0
  0008b	c7 45 f8 00 00
	80 3f		 mov	 DWORD PTR _d3dViewport$[ebp+20], 1065353216 ; 3f800000H
  00092	c7 45 e4 00 00
	00 00		 mov	 DWORD PTR _d3dViewport$[ebp], 0
  00099	c7 45 e8 00 00
	00 00		 mov	 DWORD PTR _d3dViewport$[ebp+4], 0
  000a0	8b 08		 mov	 ecx, DWORD PTR [eax]
  000a2	52		 push	 edx
  000a3	50		 push	 eax
  000a4	ff 91 a0 00 00
	00		 call	 DWORD PTR [ecx+160]

; 84   : 	ms_lpd3dDevice->BeginScene();

  000aa	a1 00 00 00 00	 mov	 eax, DWORD PTR ?ms_lpd3dDevice@CGraphicBase@@1PAUIDirect3DDevice8@@A ; CGraphicBase::ms_lpd3dDevice
  000af	50		 push	 eax
  000b0	8b 08		 mov	 ecx, DWORD PTR [eax]
  000b2	ff 91 88 00 00
	00		 call	 DWORD PTR [ecx+136]

; 85   : 
; 86   : 	ms_lpd3dDevice->Clear(0L, NULL, D3DCLEAR_TARGET|D3DCLEAR_ZBUFFER, 0x00000000, 1.0f, 0L);

  000b8	a1 00 00 00 00	 mov	 eax, DWORD PTR ?ms_lpd3dDevice@CGraphicBase@@1PAUIDirect3DDevice8@@A ; CGraphicBase::ms_lpd3dDevice
  000bd	6a 00		 push	 0
  000bf	8b 08		 mov	 ecx, DWORD PTR [eax]
  000c1	51		 push	 ecx
  000c2	c7 04 24 00 00
	80 3f		 mov	 DWORD PTR [esp], 1065353216 ; 3f800000H
  000c9	6a 00		 push	 0
  000cb	6a 03		 push	 3
  000cd	6a 00		 push	 0
  000cf	6a 00		 push	 0
  000d1	50		 push	 eax
  000d2	ff 91 90 00 00
	00		 call	 DWORD PTR [ecx+144]

; 87   : 
; 88   : 	STATEMANAGER.SaveRenderState(D3DRS_CULLMODE, D3DCULL_NONE);

  000d8	8b 0d 00 00 00
	00		 mov	 ecx, DWORD PTR ?ms_singleton@?$CSingleton@VCStateManager@@@@0PAVCStateManager@@A ; CSingleton<CStateManager>::ms_singleton
  000de	6a 01		 push	 1
  000e0	6a 16		 push	 22			; 00000016H
  000e2	e8 00 00 00 00	 call	 ?SaveRenderState@CStateManager@@QAEXW4_D3DRENDERSTATETYPE@@K@Z ; CStateManager::SaveRenderState

; 89   : 	STATEMANAGER.SaveRenderState(D3DRS_ZFUNC, D3DCMP_LESSEQUAL);

  000e7	8b 0d 00 00 00
	00		 mov	 ecx, DWORD PTR ?ms_singleton@?$CSingleton@VCStateManager@@@@0PAVCStateManager@@A ; CSingleton<CStateManager>::ms_singleton
  000ed	6a 04		 push	 4
  000ef	6a 17		 push	 23			; 00000017H
  000f1	e8 00 00 00 00	 call	 ?SaveRenderState@CStateManager@@QAEXW4_D3DRENDERSTATETYPE@@K@Z ; CStateManager::SaveRenderState

; 90   : 	STATEMANAGER.SaveRenderState(D3DRS_ALPHABLENDENABLE, true);

  000f6	8b 0d 00 00 00
	00		 mov	 ecx, DWORD PTR ?ms_singleton@?$CSingleton@VCStateManager@@@@0PAVCStateManager@@A ; CSingleton<CStateManager>::ms_singleton
  000fc	6a 01		 push	 1
  000fe	6a 1b		 push	 27			; 0000001bH
  00100	e8 00 00 00 00	 call	 ?SaveRenderState@CStateManager@@QAEXW4_D3DRENDERSTATETYPE@@K@Z ; CStateManager::SaveRenderState

; 91   : 	STATEMANAGER.SaveRenderState(D3DRS_ALPHATESTENABLE, true);

  00105	8b 0d 00 00 00
	00		 mov	 ecx, DWORD PTR ?ms_singleton@?$CSingleton@VCStateManager@@@@0PAVCStateManager@@A ; CSingleton<CStateManager>::ms_singleton
  0010b	6a 01		 push	 1
  0010d	6a 0f		 push	 15			; 0000000fH
  0010f	e8 00 00 00 00	 call	 ?SaveRenderState@CStateManager@@QAEXW4_D3DRENDERSTATETYPE@@K@Z ; CStateManager::SaveRenderState

; 92   : 	STATEMANAGER.SaveRenderState(D3DRS_TEXTUREFACTOR, 0xbb000000);

  00114	8b 0d 00 00 00
	00		 mov	 ecx, DWORD PTR ?ms_singleton@?$CSingleton@VCStateManager@@@@0PAVCStateManager@@A ; CSingleton<CStateManager>::ms_singleton
  0011a	68 00 00 00 bb	 push	 -1157627904		; bb000000H
  0011f	6a 3c		 push	 60			; 0000003cH
  00121	e8 00 00 00 00	 call	 ?SaveRenderState@CStateManager@@QAEXW4_D3DRENDERSTATETYPE@@K@Z ; CStateManager::SaveRenderState

; 93   : 
; 94   : 	STATEMANAGER.SetTexture(0, NULL);

  00126	6a 00		 push	 0
  00128	8b 0d 00 00 00
	00		 mov	 ecx, DWORD PTR ?ms_singleton@?$CSingleton@VCStateManager@@@@0PAVCStateManager@@A ; CSingleton<CStateManager>::ms_singleton
  0012e	6a 00		 push	 0
  00130	e8 00 00 00 00	 call	 ?SetTexture@CStateManager@@QAEXKPAUIDirect3DBaseTexture8@@@Z ; CStateManager::SetTexture

; 95   : 	STATEMANAGER.SaveTextureStageState(0, D3DTSS_COLORARG1, D3DTA_TFACTOR);

  00135	8b 0d 00 00 00
	00		 mov	 ecx, DWORD PTR ?ms_singleton@?$CSingleton@VCStateManager@@@@0PAVCStateManager@@A ; CSingleton<CStateManager>::ms_singleton
  0013b	6a 03		 push	 3
  0013d	6a 02		 push	 2
  0013f	6a 00		 push	 0
  00141	e8 00 00 00 00	 call	 ?SaveTextureStageState@CStateManager@@QAEXKW4_D3DTEXTURESTAGESTATETYPE@@K@Z ; CStateManager::SaveTextureStageState

; 96   : 	STATEMANAGER.SaveTextureStageState(0, D3DTSS_COLORARG2, D3DTA_TEXTURE);

  00146	8b 0d 00 00 00
	00		 mov	 ecx, DWORD PTR ?ms_singleton@?$CSingleton@VCStateManager@@@@0PAVCStateManager@@A ; CSingleton<CStateManager>::ms_singleton
  0014c	6a 02		 push	 2
  0014e	6a 03		 push	 3
  00150	6a 00		 push	 0
  00152	e8 00 00 00 00	 call	 ?SaveTextureStageState@CStateManager@@QAEXKW4_D3DTEXTURESTAGESTATETYPE@@K@Z ; CStateManager::SaveTextureStageState

; 97   : 	STATEMANAGER.SaveTextureStageState(0, D3DTSS_COLOROP,   D3DTOP_MODULATE);

  00157	8b 0d 00 00 00
	00		 mov	 ecx, DWORD PTR ?ms_singleton@?$CSingleton@VCStateManager@@@@0PAVCStateManager@@A ; CSingleton<CStateManager>::ms_singleton
  0015d	6a 04		 push	 4
  0015f	6a 01		 push	 1
  00161	6a 00		 push	 0
  00163	e8 00 00 00 00	 call	 ?SaveTextureStageState@CStateManager@@QAEXKW4_D3DTEXTURESTAGESTATETYPE@@K@Z ; CStateManager::SaveTextureStageState

; 98   : 	STATEMANAGER.SaveTextureStageState(0, D3DTSS_ALPHAARG1, D3DTA_TFACTOR);

  00168	8b 0d 00 00 00
	00		 mov	 ecx, DWORD PTR ?ms_singleton@?$CSingleton@VCStateManager@@@@0PAVCStateManager@@A ; CSingleton<CStateManager>::ms_singleton
  0016e	6a 03		 push	 3
  00170	6a 05		 push	 5
  00172	6a 00		 push	 0
  00174	e8 00 00 00 00	 call	 ?SaveTextureStageState@CStateManager@@QAEXKW4_D3DTEXTURESTAGESTATETYPE@@K@Z ; CStateManager::SaveTextureStageState

; 99   : 	STATEMANAGER.SaveTextureStageState(0, D3DTSS_ALPHAARG2, D3DTA_TEXTURE);

  00179	8b 0d 00 00 00
	00		 mov	 ecx, DWORD PTR ?ms_singleton@?$CSingleton@VCStateManager@@@@0PAVCStateManager@@A ; CSingleton<CStateManager>::ms_singleton
  0017f	6a 02		 push	 2
  00181	6a 06		 push	 6
  00183	6a 00		 push	 0
  00185	e8 00 00 00 00	 call	 ?SaveTextureStageState@CStateManager@@QAEXKW4_D3DTEXTURESTAGESTATETYPE@@K@Z ; CStateManager::SaveTextureStageState

; 100  : 	STATEMANAGER.SaveTextureStageState(0, D3DTSS_ALPHAOP,   D3DTOP_MODULATE);

  0018a	8b 0d 00 00 00
	00		 mov	 ecx, DWORD PTR ?ms_singleton@?$CSingleton@VCStateManager@@@@0PAVCStateManager@@A ; CSingleton<CStateManager>::ms_singleton
  00190	6a 04		 push	 4
  00192	6a 04		 push	 4
  00194	6a 00		 push	 0
  00196	e8 00 00 00 00	 call	 ?SaveTextureStageState@CStateManager@@QAEXKW4_D3DTEXTURESTAGESTATETYPE@@K@Z ; CStateManager::SaveTextureStageState

; 101  : 
; 102  : 	STATEMANAGER.SaveTextureStageState(0, D3DTSS_MINFILTER, D3DTEXF_POINT);

  0019b	8b 0d 00 00 00
	00		 mov	 ecx, DWORD PTR ?ms_singleton@?$CSingleton@VCStateManager@@@@0PAVCStateManager@@A ; CSingleton<CStateManager>::ms_singleton
  001a1	6a 01		 push	 1
  001a3	6a 11		 push	 17			; 00000011H
  001a5	6a 00		 push	 0
  001a7	e8 00 00 00 00	 call	 ?SaveTextureStageState@CStateManager@@QAEXKW4_D3DTEXTURESTAGESTATETYPE@@K@Z ; CStateManager::SaveTextureStageState

; 103  : 	STATEMANAGER.SaveTextureStageState(0, D3DTSS_MAGFILTER, D3DTEXF_POINT);

  001ac	8b 0d 00 00 00
	00		 mov	 ecx, DWORD PTR ?ms_singleton@?$CSingleton@VCStateManager@@@@0PAVCStateManager@@A ; CSingleton<CStateManager>::ms_singleton
  001b2	6a 01		 push	 1
  001b4	6a 10		 push	 16			; 00000010H
  001b6	6a 00		 push	 0
  001b8	e8 00 00 00 00	 call	 ?SaveTextureStageState@CStateManager@@QAEXKW4_D3DTEXTURESTAGESTATETYPE@@K@Z ; CStateManager::SaveTextureStageState

; 104  : 	STATEMANAGER.SaveTextureStageState(0, D3DTSS_MIPFILTER, D3DTEXF_POINT);

  001bd	8b 0d 00 00 00
	00		 mov	 ecx, DWORD PTR ?ms_singleton@?$CSingleton@VCStateManager@@@@0PAVCStateManager@@A ; CSingleton<CStateManager>::ms_singleton
  001c3	6a 01		 push	 1
  001c5	6a 12		 push	 18			; 00000012H
  001c7	6a 00		 push	 0
  001c9	e8 00 00 00 00	 call	 ?SaveTextureStageState@CStateManager@@QAEXKW4_D3DTEXTURESTAGESTATETYPE@@K@Z ; CStateManager::SaveTextureStageState

; 105  : 	STATEMANAGER.SaveTextureStageState(0, D3DTSS_ADDRESSU, D3DTADDRESS_CLAMP);

  001ce	8b 0d 00 00 00
	00		 mov	 ecx, DWORD PTR ?ms_singleton@?$CSingleton@VCStateManager@@@@0PAVCStateManager@@A ; CSingleton<CStateManager>::ms_singleton
  001d4	6a 03		 push	 3
  001d6	6a 0d		 push	 13			; 0000000dH
  001d8	6a 00		 push	 0
  001da	e8 00 00 00 00	 call	 ?SaveTextureStageState@CStateManager@@QAEXKW4_D3DTEXTURESTAGESTATETYPE@@K@Z ; CStateManager::SaveTextureStageState

; 106  : 	STATEMANAGER.SaveTextureStageState(0, D3DTSS_ADDRESSV, D3DTADDRESS_CLAMP);

  001df	8b 0d 00 00 00
	00		 mov	 ecx, DWORD PTR ?ms_singleton@?$CSingleton@VCStateManager@@@@0PAVCStateManager@@A ; CSingleton<CStateManager>::ms_singleton
  001e5	6a 03		 push	 3
  001e7	6a 0e		 push	 14			; 0000000eH
  001e9	6a 00		 push	 0
  001eb	e8 00 00 00 00	 call	 ?SaveTextureStageState@CStateManager@@QAEXKW4_D3DTEXTURESTAGESTATETYPE@@K@Z ; CStateManager::SaveTextureStageState

; 107  : 
; 108  : 	STATEMANAGER.SetTexture(1, NULL);

  001f0	8b 0d 00 00 00
	00		 mov	 ecx, DWORD PTR ?ms_singleton@?$CSingleton@VCStateManager@@@@0PAVCStateManager@@A ; CSingleton<CStateManager>::ms_singleton
  001f6	6a 00		 push	 0
  001f8	6a 01		 push	 1
  001fa	e8 00 00 00 00	 call	 ?SetTexture@CStateManager@@QAEXKPAUIDirect3DBaseTexture8@@@Z ; CStateManager::SetTexture

; 109  : 	STATEMANAGER.SaveTextureStageState(1, D3DTSS_COLORARG1, D3DTA_CURRENT);

  001ff	8b 0d 00 00 00
	00		 mov	 ecx, DWORD PTR ?ms_singleton@?$CSingleton@VCStateManager@@@@0PAVCStateManager@@A ; CSingleton<CStateManager>::ms_singleton
  00205	6a 01		 push	 1
  00207	6a 02		 push	 2
  00209	6a 01		 push	 1
  0020b	e8 00 00 00 00	 call	 ?SaveTextureStageState@CStateManager@@QAEXKW4_D3DTEXTURESTAGESTATETYPE@@K@Z ; CStateManager::SaveTextureStageState

; 110  : 	STATEMANAGER.SaveTextureStageState(1, D3DTSS_COLORARG2, D3DTA_TEXTURE);

  00210	8b 0d 00 00 00
	00		 mov	 ecx, DWORD PTR ?ms_singleton@?$CSingleton@VCStateManager@@@@0PAVCStateManager@@A ; CSingleton<CStateManager>::ms_singleton
  00216	6a 02		 push	 2
  00218	6a 03		 push	 3
  0021a	6a 01		 push	 1
  0021c	e8 00 00 00 00	 call	 ?SaveTextureStageState@CStateManager@@QAEXKW4_D3DTEXTURESTAGESTATETYPE@@K@Z ; CStateManager::SaveTextureStageState

; 111  : 	STATEMANAGER.SaveTextureStageState(1, D3DTSS_COLOROP,   D3DTOP_SELECTARG1);

  00221	8b 0d 00 00 00
	00		 mov	 ecx, DWORD PTR ?ms_singleton@?$CSingleton@VCStateManager@@@@0PAVCStateManager@@A ; CSingleton<CStateManager>::ms_singleton
  00227	6a 02		 push	 2
  00229	6a 01		 push	 1
  0022b	6a 01		 push	 1
  0022d	e8 00 00 00 00	 call	 ?SaveTextureStageState@CStateManager@@QAEXKW4_D3DTEXTURESTAGESTATETYPE@@K@Z ; CStateManager::SaveTextureStageState

; 112  : 	STATEMANAGER.SaveTextureStageState(1, D3DTSS_ALPHAARG1, D3DTA_CURRENT);

  00232	8b 0d 00 00 00
	00		 mov	 ecx, DWORD PTR ?ms_singleton@?$CSingleton@VCStateManager@@@@0PAVCStateManager@@A ; CSingleton<CStateManager>::ms_singleton
  00238	6a 01		 push	 1
  0023a	6a 05		 push	 5
  0023c	6a 01		 push	 1
  0023e	e8 00 00 00 00	 call	 ?SaveTextureStageState@CStateManager@@QAEXKW4_D3DTEXTURESTAGESTATETYPE@@K@Z ; CStateManager::SaveTextureStageState

; 113  : 	STATEMANAGER.SaveTextureStageState(1, D3DTSS_ALPHAARG2, D3DTA_TEXTURE);

  00243	8b 0d 00 00 00
	00		 mov	 ecx, DWORD PTR ?ms_singleton@?$CSingleton@VCStateManager@@@@0PAVCStateManager@@A ; CSingleton<CStateManager>::ms_singleton
  00249	6a 02		 push	 2
  0024b	6a 06		 push	 6
  0024d	6a 01		 push	 1
  0024f	e8 00 00 00 00	 call	 ?SaveTextureStageState@CStateManager@@QAEXKW4_D3DTEXTURESTAGESTATETYPE@@K@Z ; CStateManager::SaveTextureStageState

; 114  : 	STATEMANAGER.SaveTextureStageState(1, D3DTSS_ALPHAOP,   D3DTOP_SELECTARG1);

  00254	8b 0d 00 00 00
	00		 mov	 ecx, DWORD PTR ?ms_singleton@?$CSingleton@VCStateManager@@@@0PAVCStateManager@@A ; CSingleton<CStateManager>::ms_singleton
  0025a	6a 02		 push	 2
  0025c	6a 04		 push	 4
  0025e	6a 01		 push	 1
  00260	e8 00 00 00 00	 call	 ?SaveTextureStageState@CStateManager@@QAEXKW4_D3DTEXTURESTAGESTATETYPE@@K@Z ; CStateManager::SaveTextureStageState

; 115  : 
; 116  : 	STATEMANAGER.SaveTextureStageState(1, D3DTSS_MINFILTER, D3DTEXF_POINT);

  00265	8b 0d 00 00 00
	00		 mov	 ecx, DWORD PTR ?ms_singleton@?$CSingleton@VCStateManager@@@@0PAVCStateManager@@A ; CSingleton<CStateManager>::ms_singleton
  0026b	6a 01		 push	 1
  0026d	6a 11		 push	 17			; 00000011H
  0026f	6a 01		 push	 1
  00271	e8 00 00 00 00	 call	 ?SaveTextureStageState@CStateManager@@QAEXKW4_D3DTEXTURESTAGESTATETYPE@@K@Z ; CStateManager::SaveTextureStageState

; 117  : 	STATEMANAGER.SaveTextureStageState(1, D3DTSS_MAGFILTER, D3DTEXF_POINT);

  00276	8b 0d 00 00 00
	00		 mov	 ecx, DWORD PTR ?ms_singleton@?$CSingleton@VCStateManager@@@@0PAVCStateManager@@A ; CSingleton<CStateManager>::ms_singleton
  0027c	6a 01		 push	 1
  0027e	6a 10		 push	 16			; 00000010H
  00280	6a 01		 push	 1
  00282	e8 00 00 00 00	 call	 ?SaveTextureStageState@CStateManager@@QAEXKW4_D3DTEXTURESTAGESTATETYPE@@K@Z ; CStateManager::SaveTextureStageState

; 118  : 	STATEMANAGER.SaveTextureStageState(1, D3DTSS_MIPFILTER, D3DTEXF_POINT);

  00287	8b 0d 00 00 00
	00		 mov	 ecx, DWORD PTR ?ms_singleton@?$CSingleton@VCStateManager@@@@0PAVCStateManager@@A ; CSingleton<CStateManager>::ms_singleton
  0028d	6a 01		 push	 1
  0028f	6a 12		 push	 18			; 00000012H
  00291	6a 01		 push	 1
  00293	e8 00 00 00 00	 call	 ?SaveTextureStageState@CStateManager@@QAEXKW4_D3DTEXTURESTAGESTATETYPE@@K@Z ; CStateManager::SaveTextureStageState

; 119  : 	STATEMANAGER.SaveTextureStageState(1, D3DTSS_ADDRESSU, D3DTADDRESS_CLAMP);

  00298	8b 0d 00 00 00
	00		 mov	 ecx, DWORD PTR ?ms_singleton@?$CSingleton@VCStateManager@@@@0PAVCStateManager@@A ; CSingleton<CStateManager>::ms_singleton
  0029e	6a 03		 push	 3
  002a0	6a 0d		 push	 13			; 0000000dH
  002a2	6a 01		 push	 1
  002a4	e8 00 00 00 00	 call	 ?SaveTextureStageState@CStateManager@@QAEXKW4_D3DTEXTURESTAGESTATETYPE@@K@Z ; CStateManager::SaveTextureStageState

; 120  : 	STATEMANAGER.SaveTextureStageState(1, D3DTSS_ADDRESSV, D3DTADDRESS_CLAMP);

  002a9	8b 0d 00 00 00
	00		 mov	 ecx, DWORD PTR ?ms_singleton@?$CSingleton@VCStateManager@@@@0PAVCStateManager@@A ; CSingleton<CStateManager>::ms_singleton
  002af	6a 03		 push	 3
  002b1	6a 0e		 push	 14			; 0000000eH
  002b3	6a 01		 push	 1
  002b5	e8 00 00 00 00	 call	 ?SaveTextureStageState@CStateManager@@QAEXKW4_D3DTEXTURESTAGESTATETYPE@@K@Z ; CStateManager::SaveTextureStageState

; 121  : }

  002ba	8b 4d fc	 mov	 ecx, DWORD PTR __$ArrayPad$[ebp]
  002bd	33 cd		 xor	 ecx, ebp
  002bf	5e		 pop	 esi
  002c0	e8 00 00 00 00	 call	 @__security_check_cookie@4
  002c5	8b e5		 mov	 esp, ebp
  002c7	5d		 pop	 ebp
  002c8	c3		 ret	 0
?Begin@CGraphicShadowTexture@@QAEXXZ ENDP		; CGraphicShadowTexture::Begin
_TEXT	ENDS
; Function compile flags: /Ogtp
; File C:\DS Project\DS Files\Source\ClientSource\Client\EterLib\GrpShadowTexture.cpp
;	COMDAT ?Create@CGraphicShadowTexture@@QAE_NHH@Z
_TEXT	SEGMENT
_width$ = 8						; size = 4
_height$ = 12						; size = 4
?Create@CGraphicShadowTexture@@QAE_NHH@Z PROC		; CGraphicShadowTexture::Create, COMDAT
; _this$ = ecx

; 32   : {

  00000	55		 push	 ebp
  00001	8b ec		 mov	 ebp, esp
  00003	53		 push	 ebx
  00004	56		 push	 esi
  00005	57		 push	 edi
  00006	8b f9		 mov	 edi, ecx

; 33   : 	Destroy();

  00008	e8 00 00 00 00	 call	 ?Destroy@CGraphicShadowTexture@@QAEXXZ ; CGraphicShadowTexture::Destroy

; 34   : 
; 35   : 	m_width = width;
; 36   : 	m_height = height;

  0000d	8b 55 0c	 mov	 edx, DWORD PTR _height$[ebp]

; 37   : 
; 38   : 	if (FAILED(ms_lpd3dDevice->CreateTexture(m_width, m_height, 1, D3DUSAGE_RENDERTARGET, D3DFMT_A8R8G8B8, D3DPOOL_DEFAULT, &m_lpd3dShadowTexture)))

  00010	8d 5f 6c	 lea	 ebx, DWORD PTR [edi+108]
  00013	8b 75 08	 mov	 esi, DWORD PTR _width$[ebp]
  00016	53		 push	 ebx
  00017	6a 00		 push	 0
  00019	6a 15		 push	 21			; 00000015H
  0001b	6a 01		 push	 1
  0001d	89 77 08	 mov	 DWORD PTR [edi+8], esi
  00020	89 57 0c	 mov	 DWORD PTR [edi+12], edx
  00023	a1 00 00 00 00	 mov	 eax, DWORD PTR ?ms_lpd3dDevice@CGraphicBase@@1PAUIDirect3DDevice8@@A ; CGraphicBase::ms_lpd3dDevice
  00028	6a 01		 push	 1
  0002a	52		 push	 edx
  0002b	56		 push	 esi
  0002c	8b 08		 mov	 ecx, DWORD PTR [eax]
  0002e	50		 push	 eax
  0002f	ff 51 50	 call	 DWORD PTR [ecx+80]
  00032	85 c0		 test	 eax, eax
  00034	78 39		 js	 SHORT $LN6@Create

; 39   : 		return false;
; 40   : 
; 41   : 	if (FAILED(m_lpd3dShadowTexture->GetSurfaceLevel(0, &m_lpd3dShadowSurface)))

  00036	8b 0b		 mov	 ecx, DWORD PTR [ebx]
  00038	8d 47 70	 lea	 eax, DWORD PTR [edi+112]
  0003b	50		 push	 eax
  0003c	6a 00		 push	 0
  0003e	51		 push	 ecx
  0003f	8b 11		 mov	 edx, DWORD PTR [ecx]
  00041	ff 52 3c	 call	 DWORD PTR [edx+60]
  00044	85 c0		 test	 eax, eax
  00046	78 27		 js	 SHORT $LN6@Create

; 42   : 		return false;
; 43   : 
; 44   : 	if (FAILED(ms_lpd3dDevice->CreateDepthStencilSurface(m_width, m_height, D3DFMT_D16, D3DMULTISAMPLE_NONE, &m_lpd3dDepthSurface)))

  00048	8b 0d 00 00 00
	00		 mov	 ecx, DWORD PTR ?ms_lpd3dDevice@CGraphicBase@@1PAUIDirect3DDevice8@@A ; CGraphicBase::ms_lpd3dDevice
  0004e	8d 47 74	 lea	 eax, DWORD PTR [edi+116]
  00051	50		 push	 eax
  00052	6a 00		 push	 0
  00054	6a 50		 push	 80			; 00000050H
  00056	ff 77 0c	 push	 DWORD PTR [edi+12]
  00059	8b 11		 mov	 edx, DWORD PTR [ecx]
  0005b	ff 77 08	 push	 DWORD PTR [edi+8]
  0005e	51		 push	 ecx
  0005f	ff 52 68	 call	 DWORD PTR [edx+104]
  00062	85 c0		 test	 eax, eax
  00064	78 09		 js	 SHORT $LN6@Create

; 45   : 		return false;
; 46   : 
; 47   : 	return true;
; 48   : }

  00066	5f		 pop	 edi
  00067	5e		 pop	 esi
  00068	b0 01		 mov	 al, 1
  0006a	5b		 pop	 ebx
  0006b	5d		 pop	 ebp
  0006c	c2 08 00	 ret	 8
$LN6@Create:
  0006f	5f		 pop	 edi
  00070	5e		 pop	 esi
  00071	32 c0		 xor	 al, al
  00073	5b		 pop	 ebx
  00074	5d		 pop	 ebp
  00075	c2 08 00	 ret	 8
?Create@CGraphicShadowTexture@@QAE_NHH@Z ENDP		; CGraphicShadowTexture::Create
_TEXT	ENDS
; Function compile flags: /Ogtp
; File C:\DS Project\DS Files\Source\ClientSource\Client\EterLib\GrpShadowTexture.cpp
;	COMDAT ?Destroy@CGraphicShadowTexture@@QAEXXZ
_TEXT	SEGMENT
?Destroy@CGraphicShadowTexture@@QAEXXZ PROC		; CGraphicShadowTexture::Destroy, COMDAT
; _this$ = ecx

; 7    : {

  00000	56		 push	 esi
  00001	8b f1		 mov	 esi, ecx

; 8    : 	CGraphicTexture::Destroy();

  00003	e8 00 00 00 00	 call	 ?Destroy@CGraphicTexture@@IAEXXZ ; CGraphicTexture::Destroy

; 9    : 
; 10   : 	if (m_lpd3dShadowSurface)

  00008	8b 4e 70	 mov	 ecx, DWORD PTR [esi+112]
  0000b	85 c9		 test	 ecx, ecx
  0000d	74 0d		 je	 SHORT $LN2@Destroy

; 11   : 	{
; 12   : 		m_lpd3dShadowSurface->Release();

  0000f	8b 01		 mov	 eax, DWORD PTR [ecx]
  00011	51		 push	 ecx
  00012	ff 50 08	 call	 DWORD PTR [eax+8]

; 13   : 		m_lpd3dShadowSurface = NULL;

  00015	c7 46 70 00 00
	00 00		 mov	 DWORD PTR [esi+112], 0
$LN2@Destroy:

; 14   : 	}
; 15   : 
; 16   : 	if (m_lpd3dDepthSurface)

  0001c	8b 4e 74	 mov	 ecx, DWORD PTR [esi+116]
  0001f	85 c9		 test	 ecx, ecx
  00021	74 0d		 je	 SHORT $LN3@Destroy

; 17   : 	{
; 18   : 		m_lpd3dDepthSurface->Release();

  00023	8b 01		 mov	 eax, DWORD PTR [ecx]
  00025	51		 push	 ecx
  00026	ff 50 08	 call	 DWORD PTR [eax+8]

; 19   : 		m_lpd3dDepthSurface = NULL;

  00029	c7 46 74 00 00
	00 00		 mov	 DWORD PTR [esi+116], 0
$LN3@Destroy:

; 20   : 	}
; 21   : 
; 22   : 	if (m_lpd3dShadowTexture)

  00030	8b 4e 6c	 mov	 ecx, DWORD PTR [esi+108]
  00033	85 c9		 test	 ecx, ecx
  00035	74 0d		 je	 SHORT $LN4@Destroy

; 23   : 	{
; 24   : 		m_lpd3dShadowTexture->Release();

  00037	8b 01		 mov	 eax, DWORD PTR [ecx]
  00039	51		 push	 ecx
  0003a	ff 50 08	 call	 DWORD PTR [eax+8]

; 25   : 		m_lpd3dShadowTexture = NULL;

  0003d	c7 46 6c 00 00
	00 00		 mov	 DWORD PTR [esi+108], 0
$LN4@Destroy:

; 26   : 	}
; 27   : 
; 28   : 	Initialize();

  00044	8b ce		 mov	 ecx, esi
  00046	5e		 pop	 esi
  00047	e9 00 00 00 00	 jmp	 ?Initialize@CGraphicShadowTexture@@IAEXXZ ; CGraphicShadowTexture::Initialize
?Destroy@CGraphicShadowTexture@@QAEXXZ ENDP		; CGraphicShadowTexture::Destroy
_TEXT	ENDS
; Function compile flags: /Ogtp
; File C:\DS Project\DS Files\Source\ClientSource\Client\EterLib\GrpShadowTexture.cpp
;	COMDAT ??1CGraphicShadowTexture@@UAE@XZ
_TEXT	SEGMENT
__$EHRec$ = -12						; size = 12
??1CGraphicShadowTexture@@UAE@XZ PROC			; CGraphicShadowTexture::~CGraphicShadowTexture, COMDAT
; _this$ = ecx

; 189  : {

  00000	55		 push	 ebp
  00001	8b ec		 mov	 ebp, esp
  00003	6a ff		 push	 -1
  00005	68 00 00 00 00	 push	 __ehhandler$??1CGraphicShadowTexture@@UAE@XZ
  0000a	64 a1 00 00 00
	00		 mov	 eax, DWORD PTR fs:0
  00010	50		 push	 eax
  00011	56		 push	 esi
  00012	a1 00 00 00 00	 mov	 eax, DWORD PTR ___security_cookie
  00017	33 c5		 xor	 eax, ebp
  00019	50		 push	 eax
  0001a	8d 45 f4	 lea	 eax, DWORD PTR __$EHRec$[ebp]
  0001d	64 a3 00 00 00
	00		 mov	 DWORD PTR fs:0, eax
  00023	8b f1		 mov	 esi, ecx
  00025	c7 06 00 00 00
	00		 mov	 DWORD PTR [esi], OFFSET ??_7CGraphicShadowTexture@@6B@

; 190  : 	Destroy();

  0002b	e8 00 00 00 00	 call	 ?Destroy@CGraphicShadowTexture@@QAEXXZ ; CGraphicShadowTexture::Destroy

; 191  : }

  00030	8b ce		 mov	 ecx, esi
  00032	e8 00 00 00 00	 call	 ??1CGraphicTexture@@MAE@XZ ; CGraphicTexture::~CGraphicTexture
  00037	8b 4d f4	 mov	 ecx, DWORD PTR __$EHRec$[ebp]
  0003a	64 89 0d 00 00
	00 00		 mov	 DWORD PTR fs:0, ecx
  00041	59		 pop	 ecx
  00042	5e		 pop	 esi
  00043	8b e5		 mov	 esp, ebp
  00045	5d		 pop	 ebp
  00046	c3		 ret	 0
  00047	cc		 int	 3
  00048	cc		 int	 3
  00049	cc		 int	 3
  0004a	cc		 int	 3
  0004b	cc		 int	 3
_TEXT	ENDS
;	COMDAT text$x
text$x	SEGMENT
__ehhandler$??1CGraphicShadowTexture@@UAE@XZ:
  00000	90		 npad	 1
  00001	90		 npad	 1
  00002	8b 54 24 08	 mov	 edx, DWORD PTR [esp+8]
  00006	8d 42 0c	 lea	 eax, DWORD PTR [edx+12]
  00009	8b 4a f8	 mov	 ecx, DWORD PTR [edx-8]
  0000c	33 c8		 xor	 ecx, eax
  0000e	e8 00 00 00 00	 call	 @__security_check_cookie@4
  00013	b8 00 00 00 00	 mov	 eax, OFFSET __ehfuncinfo$??1CGraphicShadowTexture@@UAE@XZ
  00018	e9 00 00 00 00	 jmp	 ___CxxFrameHandler3
text$x	ENDS
??1CGraphicShadowTexture@@UAE@XZ ENDP			; CGraphicShadowTexture::~CGraphicShadowTexture
; Function compile flags: /Ogtp
; File C:\DS Project\DS Files\Source\ClientSource\Client\EterLib\GrpShadowTexture.cpp
;	COMDAT ??0CGraphicShadowTexture@@QAE@XZ
_TEXT	SEGMENT
_this$ = -16						; size = 4
__$EHRec$ = -12						; size = 12
??0CGraphicShadowTexture@@QAE@XZ PROC			; CGraphicShadowTexture::CGraphicShadowTexture, COMDAT
; _this$ = ecx

; 184  : {

  00000	55		 push	 ebp
  00001	8b ec		 mov	 ebp, esp
  00003	6a ff		 push	 -1
  00005	68 00 00 00 00	 push	 __ehhandler$??0CGraphicShadowTexture@@QAE@XZ
  0000a	64 a1 00 00 00
	00		 mov	 eax, DWORD PTR fs:0
  00010	50		 push	 eax
  00011	51		 push	 ecx
  00012	56		 push	 esi
  00013	a1 00 00 00 00	 mov	 eax, DWORD PTR ___security_cookie
  00018	33 c5		 xor	 eax, ebp
  0001a	50		 push	 eax
  0001b	8d 45 f4	 lea	 eax, DWORD PTR __$EHRec$[ebp]
  0001e	64 a3 00 00 00
	00		 mov	 DWORD PTR fs:0, eax
  00024	8b f1		 mov	 esi, ecx
  00026	89 75 f0	 mov	 DWORD PTR _this$[ebp], esi
  00029	e8 00 00 00 00	 call	 ??0CGraphicTexture@@IAE@XZ ; CGraphicTexture::CGraphicTexture

; 185  : 	Initialize();

  0002e	8b ce		 mov	 ecx, esi
  00030	c7 45 fc 00 00
	00 00		 mov	 DWORD PTR __$EHRec$[ebp+8], 0
  00037	c7 06 00 00 00
	00		 mov	 DWORD PTR [esi], OFFSET ??_7CGraphicShadowTexture@@6B@
  0003d	e8 00 00 00 00	 call	 ?Initialize@CGraphicShadowTexture@@IAEXXZ ; CGraphicShadowTexture::Initialize

; 186  : }

  00042	8b c6		 mov	 eax, esi
  00044	8b 4d f4	 mov	 ecx, DWORD PTR __$EHRec$[ebp]
  00047	64 89 0d 00 00
	00 00		 mov	 DWORD PTR fs:0, ecx
  0004e	59		 pop	 ecx
  0004f	5e		 pop	 esi
  00050	8b e5		 mov	 esp, ebp
  00052	5d		 pop	 ebp
  00053	c3		 ret	 0
_TEXT	ENDS
;	COMDAT text$x
text$x	SEGMENT
__unwindfunclet$??0CGraphicShadowTexture@@QAE@XZ$0:
  00000	8b 4d f0	 mov	 ecx, DWORD PTR _this$[ebp]
  00003	e9 00 00 00 00	 jmp	 ??1CGraphicTexture@@MAE@XZ ; CGraphicTexture::~CGraphicTexture
  00008	cc		 int	 3
  00009	cc		 int	 3
  0000a	cc		 int	 3
  0000b	cc		 int	 3
  0000c	cc		 int	 3
__ehhandler$??0CGraphicShadowTexture@@QAE@XZ:
  0000d	90		 npad	 1
  0000e	90		 npad	 1
  0000f	8b 54 24 08	 mov	 edx, DWORD PTR [esp+8]
  00013	8d 42 0c	 lea	 eax, DWORD PTR [edx+12]
  00016	8b 4a f4	 mov	 ecx, DWORD PTR [edx-12]
  00019	33 c8		 xor	 ecx, eax
  0001b	e8 00 00 00 00	 call	 @__security_check_cookie@4
  00020	b8 00 00 00 00	 mov	 eax, OFFSET __ehfuncinfo$??0CGraphicShadowTexture@@QAE@XZ
  00025	e9 00 00 00 00	 jmp	 ___CxxFrameHandler3
text$x	ENDS
??0CGraphicShadowTexture@@QAE@XZ ENDP			; CGraphicShadowTexture::CGraphicShadowTexture
; Function compile flags: /Ogtp
; File C:\DS Project\DS Files\Source\ClientSource\extern\include\d3dx8math.h
;	COMDAT ??0D3DXMATRIX@@QAE@XZ
_TEXT	SEGMENT
??0D3DXMATRIX@@QAE@XZ PROC				; D3DXMATRIX::D3DXMATRIX, COMDAT
; _this$ = ecx

; 177  :     D3DXMATRIX() {};

  00000	8b c1		 mov	 eax, ecx
  00002	c3		 ret	 0
??0D3DXMATRIX@@QAE@XZ ENDP				; D3DXMATRIX::D3DXMATRIX
_TEXT	ENDS
; Function compile flags: /Ogtp
;	COMDAT ??_H@YGXPAXIIP6EPAX0@Z@Z
_TEXT	SEGMENT
___t$ = 8						; size = 4
___s$ = 12						; size = 4
___n$ = 16						; size = 4
___f$ = 20						; size = 4
??_H@YGXPAXIIP6EPAX0@Z@Z PROC				; `vector constructor iterator', COMDAT
  00000	55		 push	 ebp
  00001	8b ec		 mov	 ebp, esp
  00003	56		 push	 esi
  00004	8b 75 10	 mov	 esi, DWORD PTR ___n$[ebp]
  00007	85 f6		 test	 esi, esi
  00009	74 16		 je	 SHORT $LN6@vector
  0000b	53		 push	 ebx
  0000c	8b 5d 14	 mov	 ebx, DWORD PTR ___f$[ebp]
  0000f	57		 push	 edi
  00010	8b 7d 08	 mov	 edi, DWORD PTR ___t$[ebp]
$LL2@vector:
  00013	8b cf		 mov	 ecx, edi
  00015	ff d3		 call	 ebx
  00017	03 7d 0c	 add	 edi, DWORD PTR ___s$[ebp]
  0001a	83 ee 01	 sub	 esi, 1
  0001d	75 f4		 jne	 SHORT $LL2@vector
  0001f	5f		 pop	 edi
  00020	5b		 pop	 ebx
$LN6@vector:
  00021	5e		 pop	 esi
  00022	5d		 pop	 ebp
  00023	c2 10 00	 ret	 16			; 00000010H
??_H@YGXPAXIIP6EPAX0@Z@Z ENDP				; `vector constructor iterator'
_TEXT	ENDS
END
