; Listing generated by Microsoft (R) Optimizing Compiler Version 19.27.29112.0 

	TITLE	C:\DS Project\DS Files\Source\ClientSource\Client\EterLib\GrpScreen.cpp
	.686P
	.XMM
	include listing.inc
	.model	flat

INCLUDELIB LIBCMT
INCLUDELIB OLDNAMES

PUBLIC	?ms_diffuseColor@CScreen@@1KA			; CScreen::ms_diffuseColor
PUBLIC	?ms_clearColor@CScreen@@1KA			; CScreen::ms_clearColor
PUBLIC	?ms_clearStencil@CScreen@@1KA			; CScreen::ms_clearStencil
PUBLIC	?ms_clearDepth@CScreen@@1MA			; CScreen::ms_clearDepth
_BSS	SEGMENT
?ms_clearColor@CScreen@@1KA DD 01H DUP (?)		; CScreen::ms_clearColor
?ms_clearStencil@CScreen@@1KA DD 01H DUP (?)		; CScreen::ms_clearStencil
_BSS	ENDS
_DATA	SEGMENT
?ms_diffuseColor@CScreen@@1KA DD 0ffffffffH		; CScreen::ms_diffuseColor
?ms_clearDepth@CScreen@@1MA DD 03f800000r	; 1	; CScreen::ms_clearDepth
_DATA	ENDS
PUBLIC	??_H@YGXPAXIIP6EPAX0@Z@Z			; `vector constructor iterator'
PUBLIC	??0D3DXVECTOR3@@QAE@XZ				; D3DXVECTOR3::D3DXVECTOR3
PUBLIC	??0D3DXMATRIX@@QAE@XZ				; D3DXMATRIX::D3DXMATRIX
PUBLIC	??0D3DXPLANE@@QAE@XZ				; D3DXPLANE::D3DXPLANE
PUBLIC	??0exception@std@@QAE@ABV01@@Z			; std::exception::exception
PUBLIC	??1exception@std@@UAE@XZ			; std::exception::~exception
PUBLIC	?what@exception@std@@UBEPBDXZ			; std::exception::what
PUBLIC	??_Gexception@std@@UAEPAXI@Z			; std::exception::`scalar deleting destructor'
PUBLIC	??0bad_alloc@std@@QAE@ABV01@@Z			; std::bad_alloc::bad_alloc
PUBLIC	??_Gbad_alloc@std@@UAEPAXI@Z			; std::bad_alloc::`scalar deleting destructor'
PUBLIC	??0bad_array_new_length@std@@QAE@XZ		; std::bad_array_new_length::bad_array_new_length
PUBLIC	??1bad_array_new_length@std@@UAE@XZ		; std::bad_array_new_length::~bad_array_new_length
PUBLIC	??0bad_array_new_length@std@@QAE@ABV01@@Z	; std::bad_array_new_length::bad_array_new_length
PUBLIC	??_Gbad_array_new_length@std@@UAEPAXI@Z		; std::bad_array_new_length::`scalar deleting destructor'
PUBLIC	?_Throw_bad_array_new_length@std@@YAXXZ		; std::_Throw_bad_array_new_length
PUBLIC	??$_Deallocate@$07$0A@@std@@YAXPAXI@Z		; std::_Deallocate<8,0>
PUBLIC	??$_Allocate@$07U_Default_allocate_traits@std@@$0A@@std@@YAPAXI@Z ; std::_Allocate<8,std::_Default_allocate_traits,0>
PUBLIC	??$_Allocate_manually_vector_aligned@U_Default_allocate_traits@std@@@std@@YAPAXI@Z ; std::_Allocate_manually_vector_aligned<std::_Default_allocate_traits>
PUBLIC	??0SPDTVertex@@QAE@XZ				; SPDTVertex::SPDTVertex
PUBLIC	??0CScreen@@QAE@XZ				; CScreen::CScreen
PUBLIC	??1CScreen@@UAE@XZ				; CScreen::~CScreen
PUBLIC	?ClearDepthBuffer@CScreen@@QAEXXZ		; CScreen::ClearDepthBuffer
PUBLIC	?Clear@CScreen@@QAEXXZ				; CScreen::Clear
PUBLIC	?Begin@CScreen@@QAE_NXZ				; CScreen::Begin
PUBLIC	?End@CScreen@@QAEXXZ				; CScreen::End
PUBLIC	?Show@CScreen@@QAEXPAUHWND__@@@Z		; CScreen::Show
PUBLIC	?Show@CScreen@@QAEXPAUtagRECT@@@Z		; CScreen::Show
PUBLIC	?Show@CScreen@@QAEXPAUtagRECT@@PAUHWND__@@@Z	; CScreen::Show
PUBLIC	?RenderLine2d@CScreen@@QAEXMMMMM@Z		; CScreen::RenderLine2d
PUBLIC	?RenderBox2d@CScreen@@QAEXMMMMM@Z		; CScreen::RenderBox2d
PUBLIC	?RenderBar2d@CScreen@@QAEXMMMMM@Z		; CScreen::RenderBar2d
PUBLIC	?RenderGradationBar2d@CScreen@@QAEXMMMMKKM@Z	; CScreen::RenderGradationBar2d
PUBLIC	?RenderCircle2d@CScreen@@QAEXMMMMH@Z		; CScreen::RenderCircle2d
PUBLIC	?RenderCircle3d@CScreen@@QAEXMMMMH@Z		; CScreen::RenderCircle3d
PUBLIC	?RenderLine3d@CScreen@@QAEXMMMMMM@Z		; CScreen::RenderLine3d
PUBLIC	?RenderBox3d@CScreen@@QAEXMMMMMM@Z		; CScreen::RenderBox3d
PUBLIC	?RenderBar3d@CScreen@@QAEXMMMMMM@Z		; CScreen::RenderBar3d
PUBLIC	?RenderBar3d@CScreen@@QAEXPBUD3DXVECTOR3@@@Z	; CScreen::RenderBar3d
PUBLIC	?RenderGradationBar3d@CScreen@@QAEXMMMMMMKK@Z	; CScreen::RenderGradationBar3d
PUBLIC	?RenderLineCube@CScreen@@QAEXMMMMMM@Z		; CScreen::RenderLineCube
PUBLIC	?RenderCube@CScreen@@QAEXMMMMMM@Z		; CScreen::RenderCube
PUBLIC	?RenderCube@CScreen@@QAEXMMMMMMUD3DXMATRIX@@@Z	; CScreen::RenderCube
PUBLIC	?RenderTextureBox@CScreen@@QAEXMMMMMMMMM@Z	; CScreen::RenderTextureBox
PUBLIC	?RenderBillboard@CScreen@@QAEXPAUD3DXVECTOR3@@AAUD3DXCOLOR@@@Z ; CScreen::RenderBillboard
PUBLIC	?DrawMinorGrid@CScreen@@QAEXMMMMMMM@Z		; CScreen::DrawMinorGrid
PUBLIC	?DrawGrid@CScreen@@QAEXMMMMMMMMM@Z		; CScreen::DrawGrid
PUBLIC	?RenderD3DXMesh@CScreen@@QAEXPAUID3DXMesh@@PBUD3DXMATRIX@@MMMMW4_D3DFILLMODE@@@Z ; CScreen::RenderD3DXMesh
PUBLIC	?RenderSphere@CScreen@@QAEXPBUD3DXMATRIX@@MMMMW4_D3DFILLMODE@@@Z ; CScreen::RenderSphere
PUBLIC	?RenderCylinder@CScreen@@QAEXPBUD3DXMATRIX@@MMMMMW4_D3DFILLMODE@@@Z ; CScreen::RenderCylinder
PUBLIC	?SetColorOperation@CScreen@@QAEXXZ		; CScreen::SetColorOperation
PUBLIC	?SetDiffuseOperation@CScreen@@QAEXXZ		; CScreen::SetDiffuseOperation
PUBLIC	?SetBlendOperation@CScreen@@QAEXXZ		; CScreen::SetBlendOperation
PUBLIC	?SetOneColorOperation@CScreen@@QAEXAAUD3DXCOLOR@@@Z ; CScreen::SetOneColorOperation
PUBLIC	?SetAddColorOperation@CScreen@@QAEXAAUD3DXCOLOR@@@Z ; CScreen::SetAddColorOperation
PUBLIC	?SetDiffuseColor@CScreen@@QAEXK@Z		; CScreen::SetDiffuseColor
PUBLIC	?SetDiffuseColor@CScreen@@QAEXMMMM@Z		; CScreen::SetDiffuseColor
PUBLIC	?SetClearColor@CScreen@@QAEXMMMM@Z		; CScreen::SetClearColor
PUBLIC	?SetClearDepth@CScreen@@QAEXM@Z			; CScreen::SetClearDepth
PUBLIC	?SetClearStencil@CScreen@@QAEXK@Z		; CScreen::SetClearStencil
PUBLIC	?SetCursorPosition@CScreen@@QAEXHHHH@Z		; CScreen::SetCursorPosition
PUBLIC	?GetCursorPosition@CScreen@@QAE_NPAM00@Z	; CScreen::GetCursorPosition
PUBLIC	?GetCursorXYPosition@CScreen@@QAE_NPAM0@Z	; CScreen::GetCursorXYPosition
PUBLIC	?GetCursorZPosition@CScreen@@QAE_NPAM@Z		; CScreen::GetCursorZPosition
PUBLIC	?GetPickingPosition@CScreen@@QAEXMPAM00@Z	; CScreen::GetPickingPosition
PUBLIC	?ProjectPosition@CScreen@@QAEXMMMPAM0@Z		; CScreen::ProjectPosition
PUBLIC	?ProjectPosition@CScreen@@QAEXMMMPAM00@Z	; CScreen::ProjectPosition
PUBLIC	?UnprojectPosition@CScreen@@QAEXMMMPAM00@Z	; CScreen::UnprojectPosition
PUBLIC	?IsLostDevice@CScreen@@QAEHXZ			; CScreen::IsLostDevice
PUBLIC	?RestoreDevice@CScreen@@QAEHXZ			; CScreen::RestoreDevice
PUBLIC	?BuildViewFrustum@CScreen@@QAEXXZ		; CScreen::BuildViewFrustum
PUBLIC	?Identity@CScreen@@SAXXZ			; CScreen::Identity
PUBLIC	??_GCScreen@@UAEPAXI@Z				; CScreen::`scalar deleting destructor'
PUBLIC	??1?$vector@UD3DXVECTOR3@@V?$allocator@UD3DXVECTOR3@@@std@@@std@@QAE@XZ ; std::vector<D3DXVECTOR3,std::allocator<D3DXVECTOR3> >::~vector<D3DXVECTOR3,std::allocator<D3DXVECTOR3> >
PUBLIC	?resize@?$vector@UD3DXVECTOR3@@V?$allocator@UD3DXVECTOR3@@@std@@@std@@QAEXI@Z ; std::vector<D3DXVECTOR3,std::allocator<D3DXVECTOR3> >::resize
PUBLIC	?_Xlength@?$vector@UD3DXVECTOR3@@V?$allocator@UD3DXVECTOR3@@@std@@@std@@CAXXZ ; std::vector<D3DXVECTOR3,std::allocator<D3DXVECTOR3> >::_Xlength
PUBLIC	??1CD3DXMeshRenderingOption@@UAE@XZ		; CD3DXMeshRenderingOption::~CD3DXMeshRenderingOption
PUBLIC	??_GCD3DXMeshRenderingOption@@UAEPAXI@Z		; CD3DXMeshRenderingOption::`scalar deleting destructor'
PUBLIC	??$_Destroy_range@V?$allocator@UD3DXVECTOR3@@@std@@@std@@YAXPAUD3DXVECTOR3@@QAU1@AAV?$allocator@UD3DXVECTOR3@@@0@@Z ; std::_Destroy_range<std::allocator<D3DXVECTOR3> >
PUBLIC	??$_Resize_reallocate@U_Value_init_tag@std@@@?$vector@UD3DXVECTOR3@@V?$allocator@UD3DXVECTOR3@@@std@@@std@@AAEXIABU_Value_init_tag@1@@Z ; std::vector<D3DXVECTOR3,std::allocator<D3DXVECTOR3> >::_Resize_reallocate<std::_Value_init_tag>
PUBLIC	??$_Uninitialized_value_construct_n@V?$allocator@UD3DXVECTOR3@@@std@@@std@@YAPAUD3DXVECTOR3@@PAU1@IAAV?$allocator@UD3DXVECTOR3@@@0@@Z ; std::_Uninitialized_value_construct_n<std::allocator<D3DXVECTOR3> >
PUBLIC	??$_Uninitialized_move@PAUD3DXVECTOR3@@V?$allocator@UD3DXVECTOR3@@@std@@@std@@YAPAUD3DXVECTOR3@@QAU1@0PAU1@AAV?$allocator@UD3DXVECTOR3@@@0@@Z ; std::_Uninitialized_move<D3DXVECTOR3 *,std::allocator<D3DXVECTOR3> >
PUBLIC	??_7exception@std@@6B@				; std::exception::`vftable'
PUBLIC	??_C@_0BC@EOODALEL@Unknown?5exception@		; `string'
PUBLIC	??_7bad_alloc@std@@6B@				; std::bad_alloc::`vftable'
PUBLIC	??_7bad_array_new_length@std@@6B@		; std::bad_array_new_length::`vftable'
PUBLIC	??_C@_0BF@KINCDENJ@bad?5array?5new?5length@	; `string'
PUBLIC	__TI3?AVbad_array_new_length@std@@
PUBLIC	__CTA3?AVbad_array_new_length@std@@
PUBLIC	??_R0?AVbad_array_new_length@std@@@8		; std::bad_array_new_length `RTTI Type Descriptor'
PUBLIC	__CT??_R0?AVbad_array_new_length@std@@@8??0bad_array_new_length@std@@QAE@ABV01@@Z12
PUBLIC	??_R0?AVbad_alloc@std@@@8			; std::bad_alloc `RTTI Type Descriptor'
PUBLIC	__CT??_R0?AVbad_alloc@std@@@8??0bad_alloc@std@@QAE@ABV01@@Z12
PUBLIC	??_R0?AVexception@std@@@8			; std::exception `RTTI Type Descriptor'
PUBLIC	__CT??_R0?AVexception@std@@@8??0exception@std@@QAE@ABV01@@Z12
PUBLIC	??_R4exception@std@@6B@				; std::exception::`RTTI Complete Object Locator'
PUBLIC	??_R3exception@std@@8				; std::exception::`RTTI Class Hierarchy Descriptor'
PUBLIC	??_R2exception@std@@8				; std::exception::`RTTI Base Class Array'
PUBLIC	??_R1A@?0A@EA@exception@std@@8			; std::exception::`RTTI Base Class Descriptor at (0,-1,0,64)'
PUBLIC	??_R4bad_alloc@std@@6B@				; std::bad_alloc::`RTTI Complete Object Locator'
PUBLIC	??_R3bad_alloc@std@@8				; std::bad_alloc::`RTTI Class Hierarchy Descriptor'
PUBLIC	??_R2bad_alloc@std@@8				; std::bad_alloc::`RTTI Base Class Array'
PUBLIC	??_R1A@?0A@EA@bad_alloc@std@@8			; std::bad_alloc::`RTTI Base Class Descriptor at (0,-1,0,64)'
PUBLIC	??_R4bad_array_new_length@std@@6B@		; std::bad_array_new_length::`RTTI Complete Object Locator'
PUBLIC	??_R3bad_array_new_length@std@@8		; std::bad_array_new_length::`RTTI Class Hierarchy Descriptor'
PUBLIC	??_R2bad_array_new_length@std@@8		; std::bad_array_new_length::`RTTI Base Class Array'
PUBLIC	??_R1A@?0A@EA@bad_array_new_length@std@@8	; std::bad_array_new_length::`RTTI Base Class Descriptor at (0,-1,0,64)'
PUBLIC	?ms_frustum@CScreen@@1VFrustum@@A		; CScreen::ms_frustum
PUBLIC	??_7CScreen@@6B@				; CScreen::`vftable'
PUBLIC	?ms_singleton@?$CSingleton@VCCameraManager@@@@0PAVCCameraManager@@A ; CSingleton<CCameraManager>::ms_singleton
PUBLIC	?ms_singleton@?$CSingleton@VCStateManager@@@@0PAVCStateManager@@A ; CSingleton<CStateManager>::ms_singleton
PUBLIC	??_7CD3DXMeshRenderingOption@@6B@		; CD3DXMeshRenderingOption::`vftable'
PUBLIC	??_C@_0BD@HBCJANMB@BeginScene?5FAILED?6@	; `string'
PUBLIC	??_C@_0BA@FOIKENOD@vector?5too?5long@		; `string'
PUBLIC	??_R4CScreen@@6B@				; CScreen::`RTTI Complete Object Locator'
PUBLIC	??_R0?AVCScreen@@@8				; CScreen `RTTI Type Descriptor'
PUBLIC	??_R3CScreen@@8					; CScreen::`RTTI Class Hierarchy Descriptor'
PUBLIC	??_R2CScreen@@8					; CScreen::`RTTI Base Class Array'
PUBLIC	??_R1A@?0A@EA@CScreen@@8			; CScreen::`RTTI Base Class Descriptor at (0,-1,0,64)'
PUBLIC	??_R1A@?0A@EA@CGraphicCollisionObject@@8	; CGraphicCollisionObject::`RTTI Base Class Descriptor at (0,-1,0,64)'
PUBLIC	??_R0?AVCGraphicCollisionObject@@@8		; CGraphicCollisionObject `RTTI Type Descriptor'
PUBLIC	??_R3CGraphicCollisionObject@@8			; CGraphicCollisionObject::`RTTI Class Hierarchy Descriptor'
PUBLIC	??_R2CGraphicCollisionObject@@8			; CGraphicCollisionObject::`RTTI Base Class Array'
PUBLIC	??_R1A@?0A@EA@CGraphicBase@@8			; CGraphicBase::`RTTI Base Class Descriptor at (0,-1,0,64)'
PUBLIC	??_R0?AVCGraphicBase@@@8			; CGraphicBase `RTTI Type Descriptor'
PUBLIC	??_R3CGraphicBase@@8				; CGraphicBase::`RTTI Class Hierarchy Descriptor'
PUBLIC	??_R2CGraphicBase@@8				; CGraphicBase::`RTTI Base Class Array'
PUBLIC	??_R4CD3DXMeshRenderingOption@@6B@		; CD3DXMeshRenderingOption::`RTTI Complete Object Locator'
PUBLIC	??_R0?AVCD3DXMeshRenderingOption@@@8		; CD3DXMeshRenderingOption `RTTI Type Descriptor'
PUBLIC	??_R3CD3DXMeshRenderingOption@@8		; CD3DXMeshRenderingOption::`RTTI Class Hierarchy Descriptor'
PUBLIC	??_R2CD3DXMeshRenderingOption@@8		; CD3DXMeshRenderingOption::`RTTI Base Class Array'
PUBLIC	??_R1A@?0A@EA@CD3DXMeshRenderingOption@@8	; CD3DXMeshRenderingOption::`RTTI Base Class Descriptor at (0,-1,0,64)'
PUBLIC	__real@3f000000
PUBLIC	__real@3f800000
PUBLIC	__real@40c90fdb
PUBLIC	__real@437f0000
PUBLIC	__real@47480000
PUBLIC	__real@4caba950
PUBLIC	__xmm@80000000800000008000000080000000
EXTRN	??2@YAPAXI@Z:PROC				; operator new
EXTRN	??3@YAXPAXI@Z:PROC				; operator delete
EXTRN	__invalid_parameter_noinfo_noreturn:PROC
EXTRN	_D3DXVec3Normalize@8:PROC
EXTRN	_D3DXVec3TransformCoord@12:PROC
EXTRN	_D3DXVec3Project@24:PROC
EXTRN	_D3DXVec3Unproject@24:PROC
EXTRN	_D3DXMatrixMultiply@12:PROC
EXTRN	_D3DXMatrixScaling@16:PROC
EXTRN	_D3DXMatrixTranslation@16:PROC
EXTRN	___std_exception_copy:PROC
EXTRN	___std_exception_destroy:PROC
EXTRN	??_Eexception@std@@UAEPAXI@Z:PROC		; std::exception::`vector deleting destructor'
EXTRN	??_Ebad_alloc@std@@UAEPAXI@Z:PROC		; std::bad_alloc::`vector deleting destructor'
EXTRN	??_Ebad_array_new_length@std@@UAEPAXI@Z:PROC	; std::bad_array_new_length::`vector deleting destructor'
EXTRN	?_Xlength_error@std@@YAXPBD@Z:PROC		; std::_Xlength_error
EXTRN	?Tracenf@@YAXPBDZZ:PROC				; Tracenf
EXTRN	?GetDesktopD3DDisplayModer@D3D_CAdapterInfo@@QAEAAU_D3DDISPLAYMODE@@XZ:PROC ; D3D_CAdapterInfo::GetDesktopD3DDisplayModer
EXTRN	?GetD3DAdapterInfop@D3D_CDisplayModeAutoDetector@@QAEPAVD3D_CAdapterInfo@@I@Z:PROC ; D3D_CDisplayModeAutoDetector::GetD3DAdapterInfop
EXTRN	?GetColor@CGraphicBase@@QAEKMMMM@Z:PROC		; CGraphicBase::GetColor
EXTRN	?ResetFaceCount@CGraphicBase@@QAEXXZ:PROC	; CGraphicBase::ResetFaceCount
EXTRN	?SetDefaultIndexBuffer@CGraphicBase@@SAXI@Z:PROC ; CGraphicBase::SetDefaultIndexBuffer
EXTRN	?SetPDTStream@CGraphicBase@@SA_NPAUSPDTVertexRaw@@I@Z:PROC ; CGraphicBase::SetPDTStream
EXTRN	?SetPDTStream@CGraphicBase@@SA_NPAUSPDTVertex@@I@Z:PROC ; CGraphicBase::SetPDTStream
EXTRN	??0CGraphicCollisionObject@@QAE@XZ:PROC		; CGraphicCollisionObject::CGraphicCollisionObject
EXTRN	??1CGraphicCollisionObject@@UAE@XZ:PROC		; CGraphicCollisionObject::~CGraphicCollisionObject
EXTRN	?IntersectTriangle@CGraphicCollisionObject@@IAE_NABUD3DXVECTOR3@@0000PAM11@Z:PROC ; CGraphicCollisionObject::IntersectTriangle
EXTRN	?BuildViewFrustum2@Frustum@@QAEXAAUD3DXMATRIX@@MMMMABUD3DXVECTOR3@@1@Z:PROC ; Frustum::BuildViewFrustum2
EXTRN	??_ECScreen@@UAEPAXI@Z:PROC			; CScreen::`vector deleting destructor'
EXTRN	?GetCurrentCamera@CCameraManager@@QAEPAVCCamera@@XZ:PROC ; CCameraManager::GetCurrentCamera
EXTRN	?SetDefaultState@CStateManager@@QAEXXZ:PROC	; CStateManager::SetDefaultState
EXTRN	?BeginScene@CStateManager@@QAE_NXZ:PROC		; CStateManager::BeginScene
EXTRN	?EndScene@CStateManager@@QAEXXZ:PROC		; CStateManager::EndScene
EXTRN	?SetRenderState@CStateManager@@QAEXW4_D3DRENDERSTATETYPE@@K@Z:PROC ; CStateManager::SetRenderState
EXTRN	?SetTexture@CStateManager@@QAEXKPAUIDirect3DBaseTexture8@@@Z:PROC ; CStateManager::SetTexture
EXTRN	?SaveTextureStageState@CStateManager@@QAEXKW4_D3DTEXTURESTAGESTATETYPE@@K@Z:PROC ; CStateManager::SaveTextureStageState
EXTRN	?RestoreTextureStageState@CStateManager@@QAEXKW4_D3DTEXTURESTAGESTATETYPE@@@Z:PROC ; CStateManager::RestoreTextureStageState
EXTRN	?SetTextureStageState@CStateManager@@QAEXKW4_D3DTEXTURESTAGESTATETYPE@@K@Z:PROC ; CStateManager::SetTextureStageState
EXTRN	?SetVertexShader@CStateManager@@QAEXK@Z:PROC	; CStateManager::SetVertexShader
EXTRN	?SaveTransform@CStateManager@@QAEXW4_D3DTRANSFORMSTATETYPE@@PBU_D3DMATRIX@@@Z:PROC ; CStateManager::SaveTransform
EXTRN	?RestoreTransform@CStateManager@@QAEXW4_D3DTRANSFORMSTATETYPE@@@Z:PROC ; CStateManager::RestoreTransform
EXTRN	?SetTransform@CStateManager@@QAEXW4_D3DTRANSFORMSTATETYPE@@PBU_D3DMATRIX@@@Z:PROC ; CStateManager::SetTransform
EXTRN	?SetStreamSource@CStateManager@@QAEXIPAUIDirect3DVertexBuffer8@@I@Z:PROC ; CStateManager::SetStreamSource
EXTRN	?SetIndices@CStateManager@@QAEXPAUIDirect3DIndexBuffer8@@I@Z:PROC ; CStateManager::SetIndices
EXTRN	?DrawPrimitive@CStateManager@@QAEJW4_D3DPRIMITIVETYPE@@II@Z:PROC ; CStateManager::DrawPrimitive
EXTRN	?DrawIndexedPrimitive@CStateManager@@QAEJW4_D3DPRIMITIVETYPE@@IIII@Z:PROC ; CStateManager::DrawIndexedPrimitive
EXTRN	??_ECD3DXMeshRenderingOption@@UAEPAXI@Z:PROC	; CD3DXMeshRenderingOption::`vector deleting destructor'
EXTRN	@__security_check_cookie@4:PROC
EXTRN	__CxxThrowException@8:PROC
EXTRN	___CxxFrameHandler3:PROC
EXTRN	__ftoui3:PROC
EXTRN	__libm_sse2_cos_precise:PROC
EXTRN	__libm_sse2_sin_precise:PROC
EXTRN	??_7type_info@@6B@:QWORD			; type_info::`vftable'
EXTRN	?ms_matIdentity@CGraphicBase@@1UD3DXMATRIX@@A:BYTE ; CGraphicBase::ms_matIdentity
EXTRN	?ms_matView@CGraphicBase@@1UD3DXMATRIX@@A:BYTE	; CGraphicBase::ms_matView
EXTRN	?ms_matProj@CGraphicBase@@1UD3DXMATRIX@@A:BYTE	; CGraphicBase::ms_matProj
EXTRN	?ms_matInverseView@CGraphicBase@@1UD3DXMATRIX@@A:BYTE ; CGraphicBase::ms_matInverseView
EXTRN	?ms_matWorld@CGraphicBase@@1UD3DXMATRIX@@A:BYTE	; CGraphicBase::ms_matWorld
EXTRN	?ms_lpSphereMesh@CGraphicBase@@1PAUID3DXMesh@@A:DWORD ; CGraphicBase::ms_lpSphereMesh
EXTRN	?ms_lpCylinderMesh@CGraphicBase@@1PAUID3DXMesh@@A:DWORD ; CGraphicBase::ms_lpCylinderMesh
EXTRN	?ms_iD3DAdapterInfo@CGraphicBase@@1IA:DWORD	; CGraphicBase::ms_iD3DAdapterInfo
EXTRN	?ms_kD3DDetector@CGraphicBase@@1VD3D_CDisplayModeAutoDetector@@A:BYTE ; CGraphicBase::ms_kD3DDetector
EXTRN	?ms_lpd3d@CGraphicBase@@1PAUIDirect3D8@@A:DWORD	; CGraphicBase::ms_lpd3d
EXTRN	?ms_lpd3dDevice@CGraphicBase@@1PAUIDirect3DDevice8@@A:DWORD ; CGraphicBase::ms_lpd3dDevice
EXTRN	?ms_lpd3dMatStack@CGraphicBase@@1PAUID3DXMatrixStack@@A:DWORD ; CGraphicBase::ms_lpd3dMatStack
EXTRN	?ms_Viewport@CGraphicBase@@1U_D3DVIEWPORT8@@A:BYTE ; CGraphicBase::ms_Viewport
EXTRN	?ms_d3dPresentParameter@CGraphicBase@@1U_D3DPRESENT_PARAMETERS_@@A:BYTE ; CGraphicBase::ms_d3dPresentParameter
EXTRN	?ms_vtPickRayOrig@CGraphicBase@@1UD3DXVECTOR3@@A:BYTE ; CGraphicBase::ms_vtPickRayOrig
EXTRN	?ms_vtPickRayDir@CGraphicBase@@1UD3DXVECTOR3@@A:BYTE ; CGraphicBase::ms_vtPickRayDir
EXTRN	?ms_fFieldOfView@CGraphicBase@@1MA:DWORD	; CGraphicBase::ms_fFieldOfView
EXTRN	?ms_fAspect@CGraphicBase@@1MA:DWORD		; CGraphicBase::ms_fAspect
EXTRN	?ms_fNearY@CGraphicBase@@1MA:DWORD		; CGraphicBase::ms_fNearY
EXTRN	?ms_fFarY@CGraphicBase@@1MA:DWORD		; CGraphicBase::ms_fFarY
EXTRN	?ms_Ray@CGraphicBase@@1VCRay@@A:BYTE		; CGraphicBase::ms_Ray
EXTRN	?GRAPHICS_CAPS_CAN_NOT_DRAW_LINE@@3_NA:BYTE	; GRAPHICS_CAPS_CAN_NOT_DRAW_LINE
EXTRN	?g_isBrowserMode@@3_NA:BYTE			; g_isBrowserMode
EXTRN	?g_rcBrowser@@3UtagRECT@@A:BYTE			; g_rcBrowser
EXTRN	___security_cookie:DWORD
EXTRN	__fltused:DWORD
_BSS	SEGMENT
?ms_frustum@CScreen@@1VFrustum@@A DB 074H DUP (?)	; CScreen::ms_frustum
_BSS	ENDS
;	COMDAT ?ms_singleton@?$CSingleton@VCCameraManager@@@@0PAVCCameraManager@@A
_BSS	SEGMENT
?ms_singleton@?$CSingleton@VCCameraManager@@@@0PAVCCameraManager@@A DD 01H DUP (?) ; CSingleton<CCameraManager>::ms_singleton
_BSS	ENDS
;	COMDAT ?ms_singleton@?$CSingleton@VCStateManager@@@@0PAVCStateManager@@A
_BSS	SEGMENT
?ms_singleton@?$CSingleton@VCStateManager@@@@0PAVCStateManager@@A DD 01H DUP (?) ; CSingleton<CStateManager>::ms_singleton
_BSS	ENDS
;	COMDAT __xmm@80000000800000008000000080000000
CONST	SEGMENT
__xmm@80000000800000008000000080000000 DB 00H, 00H, 00H, 080H, 00H, 00H, 00H
	DB	080H, 00H, 00H, 00H, 080H, 00H, 00H, 00H, 080H
CONST	ENDS
;	COMDAT __real@4caba950
CONST	SEGMENT
__real@4caba950 DD 04caba950r			; 9e+07
CONST	ENDS
;	COMDAT __real@47480000
CONST	SEGMENT
__real@47480000 DD 047480000r			; 51200
CONST	ENDS
;	COMDAT __real@437f0000
CONST	SEGMENT
__real@437f0000 DD 0437f0000r			; 255
CONST	ENDS
;	COMDAT __real@40c90fdb
CONST	SEGMENT
__real@40c90fdb DD 040c90fdbr			; 6.28319
CONST	ENDS
;	COMDAT __real@3f800000
CONST	SEGMENT
__real@3f800000 DD 03f800000r			; 1
CONST	ENDS
;	COMDAT __real@3f000000
CONST	SEGMENT
__real@3f000000 DD 03f000000r			; 0.5
CONST	ENDS
;	COMDAT ??_R1A@?0A@EA@CD3DXMeshRenderingOption@@8
rdata$r	SEGMENT
??_R1A@?0A@EA@CD3DXMeshRenderingOption@@8 DD FLAT:??_R0?AVCD3DXMeshRenderingOption@@@8 ; CD3DXMeshRenderingOption::`RTTI Base Class Descriptor at (0,-1,0,64)'
	DD	03H
	DD	00H
	DD	0ffffffffH
	DD	00H
	DD	040H
	DD	FLAT:??_R3CD3DXMeshRenderingOption@@8
rdata$r	ENDS
;	COMDAT ??_R2CD3DXMeshRenderingOption@@8
rdata$r	SEGMENT
??_R2CD3DXMeshRenderingOption@@8 DD FLAT:??_R1A@?0A@EA@CD3DXMeshRenderingOption@@8 ; CD3DXMeshRenderingOption::`RTTI Base Class Array'
	DD	FLAT:??_R1A@?0A@EA@CScreen@@8
	DD	FLAT:??_R1A@?0A@EA@CGraphicCollisionObject@@8
	DD	FLAT:??_R1A@?0A@EA@CGraphicBase@@8
rdata$r	ENDS
;	COMDAT ??_R3CD3DXMeshRenderingOption@@8
rdata$r	SEGMENT
??_R3CD3DXMeshRenderingOption@@8 DD 00H			; CD3DXMeshRenderingOption::`RTTI Class Hierarchy Descriptor'
	DD	00H
	DD	04H
	DD	FLAT:??_R2CD3DXMeshRenderingOption@@8
rdata$r	ENDS
;	COMDAT ??_R0?AVCD3DXMeshRenderingOption@@@8
data$r	SEGMENT
??_R0?AVCD3DXMeshRenderingOption@@@8 DD FLAT:??_7type_info@@6B@ ; CD3DXMeshRenderingOption `RTTI Type Descriptor'
	DD	00H
	DB	'.?AVCD3DXMeshRenderingOption@@', 00H
data$r	ENDS
;	COMDAT ??_R4CD3DXMeshRenderingOption@@6B@
rdata$r	SEGMENT
??_R4CD3DXMeshRenderingOption@@6B@ DD 00H		; CD3DXMeshRenderingOption::`RTTI Complete Object Locator'
	DD	00H
	DD	00H
	DD	FLAT:??_R0?AVCD3DXMeshRenderingOption@@@8
	DD	FLAT:??_R3CD3DXMeshRenderingOption@@8
rdata$r	ENDS
;	COMDAT ??_R2CGraphicBase@@8
rdata$r	SEGMENT
??_R2CGraphicBase@@8 DD FLAT:??_R1A@?0A@EA@CGraphicBase@@8 ; CGraphicBase::`RTTI Base Class Array'
rdata$r	ENDS
;	COMDAT ??_R3CGraphicBase@@8
rdata$r	SEGMENT
??_R3CGraphicBase@@8 DD 00H				; CGraphicBase::`RTTI Class Hierarchy Descriptor'
	DD	00H
	DD	01H
	DD	FLAT:??_R2CGraphicBase@@8
rdata$r	ENDS
;	COMDAT ??_R0?AVCGraphicBase@@@8
data$r	SEGMENT
??_R0?AVCGraphicBase@@@8 DD FLAT:??_7type_info@@6B@	; CGraphicBase `RTTI Type Descriptor'
	DD	00H
	DB	'.?AVCGraphicBase@@', 00H
data$r	ENDS
;	COMDAT ??_R1A@?0A@EA@CGraphicBase@@8
rdata$r	SEGMENT
??_R1A@?0A@EA@CGraphicBase@@8 DD FLAT:??_R0?AVCGraphicBase@@@8 ; CGraphicBase::`RTTI Base Class Descriptor at (0,-1,0,64)'
	DD	00H
	DD	00H
	DD	0ffffffffH
	DD	00H
	DD	040H
	DD	FLAT:??_R3CGraphicBase@@8
rdata$r	ENDS
;	COMDAT ??_R2CGraphicCollisionObject@@8
rdata$r	SEGMENT
??_R2CGraphicCollisionObject@@8 DD FLAT:??_R1A@?0A@EA@CGraphicCollisionObject@@8 ; CGraphicCollisionObject::`RTTI Base Class Array'
	DD	FLAT:??_R1A@?0A@EA@CGraphicBase@@8
rdata$r	ENDS
;	COMDAT ??_R3CGraphicCollisionObject@@8
rdata$r	SEGMENT
??_R3CGraphicCollisionObject@@8 DD 00H			; CGraphicCollisionObject::`RTTI Class Hierarchy Descriptor'
	DD	00H
	DD	02H
	DD	FLAT:??_R2CGraphicCollisionObject@@8
rdata$r	ENDS
;	COMDAT ??_R0?AVCGraphicCollisionObject@@@8
data$r	SEGMENT
??_R0?AVCGraphicCollisionObject@@@8 DD FLAT:??_7type_info@@6B@ ; CGraphicCollisionObject `RTTI Type Descriptor'
	DD	00H
	DB	'.?AVCGraphicCollisionObject@@', 00H
data$r	ENDS
;	COMDAT ??_R1A@?0A@EA@CGraphicCollisionObject@@8
rdata$r	SEGMENT
??_R1A@?0A@EA@CGraphicCollisionObject@@8 DD FLAT:??_R0?AVCGraphicCollisionObject@@@8 ; CGraphicCollisionObject::`RTTI Base Class Descriptor at (0,-1,0,64)'
	DD	01H
	DD	00H
	DD	0ffffffffH
	DD	00H
	DD	040H
	DD	FLAT:??_R3CGraphicCollisionObject@@8
rdata$r	ENDS
;	COMDAT ??_R1A@?0A@EA@CScreen@@8
rdata$r	SEGMENT
??_R1A@?0A@EA@CScreen@@8 DD FLAT:??_R0?AVCScreen@@@8	; CScreen::`RTTI Base Class Descriptor at (0,-1,0,64)'
	DD	02H
	DD	00H
	DD	0ffffffffH
	DD	00H
	DD	040H
	DD	FLAT:??_R3CScreen@@8
rdata$r	ENDS
;	COMDAT ??_R2CScreen@@8
rdata$r	SEGMENT
??_R2CScreen@@8 DD FLAT:??_R1A@?0A@EA@CScreen@@8	; CScreen::`RTTI Base Class Array'
	DD	FLAT:??_R1A@?0A@EA@CGraphicCollisionObject@@8
	DD	FLAT:??_R1A@?0A@EA@CGraphicBase@@8
rdata$r	ENDS
;	COMDAT ??_R3CScreen@@8
rdata$r	SEGMENT
??_R3CScreen@@8 DD 00H					; CScreen::`RTTI Class Hierarchy Descriptor'
	DD	00H
	DD	03H
	DD	FLAT:??_R2CScreen@@8
rdata$r	ENDS
;	COMDAT ??_R0?AVCScreen@@@8
data$r	SEGMENT
??_R0?AVCScreen@@@8 DD FLAT:??_7type_info@@6B@		; CScreen `RTTI Type Descriptor'
	DD	00H
	DB	'.?AVCScreen@@', 00H
data$r	ENDS
;	COMDAT ??_R4CScreen@@6B@
rdata$r	SEGMENT
??_R4CScreen@@6B@ DD 00H				; CScreen::`RTTI Complete Object Locator'
	DD	00H
	DD	00H
	DD	FLAT:??_R0?AVCScreen@@@8
	DD	FLAT:??_R3CScreen@@8
rdata$r	ENDS
;	COMDAT ??_C@_0BA@FOIKENOD@vector?5too?5long@
CONST	SEGMENT
??_C@_0BA@FOIKENOD@vector?5too?5long@ DB 'vector too long', 00H ; `string'
CONST	ENDS
;	COMDAT ??_C@_0BD@HBCJANMB@BeginScene?5FAILED?6@
CONST	SEGMENT
??_C@_0BD@HBCJANMB@BeginScene?5FAILED?6@ DB 'BeginScene FAILED', 0aH, 00H ; `string'
CONST	ENDS
;	COMDAT ?sc_awFillRectIndices@?1??GetCursorZPosition@CScreen@@QAE_NPAM@Z@4QBGB
CONST	SEGMENT
?sc_awFillRectIndices@?1??GetCursorZPosition@CScreen@@QAE_NPAM@Z@4QBGB DW 00H ; `CScreen::GetCursorZPosition'::`2'::sc_awFillRectIndices
	DW	02H
	DW	01H
	DW	02H
	DW	03H
	DW	01H
CONST	ENDS
;	COMDAT ?sc_awFillRectIndices@?1??GetCursorXYPosition@CScreen@@QAE_NPAM0@Z@4QBGB
CONST	SEGMENT
?sc_awFillRectIndices@?1??GetCursorXYPosition@CScreen@@QAE_NPAM0@Z@4QBGB DW 00H ; `CScreen::GetCursorXYPosition'::`2'::sc_awFillRectIndices
	DW	02H
	DW	01H
	DW	02H
	DW	03H
	DW	01H
CONST	ENDS
;	COMDAT ??_7CD3DXMeshRenderingOption@@6B@
CONST	SEGMENT
??_7CD3DXMeshRenderingOption@@6B@ DD FLAT:??_R4CD3DXMeshRenderingOption@@6B@ ; CD3DXMeshRenderingOption::`vftable'
	DD	FLAT:??_ECD3DXMeshRenderingOption@@UAEPAXI@Z
CONST	ENDS
;	COMDAT ??_7CScreen@@6B@
CONST	SEGMENT
??_7CScreen@@6B@ DD FLAT:??_R4CScreen@@6B@		; CScreen::`vftable'
	DD	FLAT:??_ECScreen@@UAEPAXI@Z
CONST	ENDS
;	COMDAT ??_R1A@?0A@EA@bad_array_new_length@std@@8
rdata$r	SEGMENT
??_R1A@?0A@EA@bad_array_new_length@std@@8 DD FLAT:??_R0?AVbad_array_new_length@std@@@8 ; std::bad_array_new_length::`RTTI Base Class Descriptor at (0,-1,0,64)'
	DD	02H
	DD	00H
	DD	0ffffffffH
	DD	00H
	DD	040H
	DD	FLAT:??_R3bad_array_new_length@std@@8
rdata$r	ENDS
;	COMDAT ??_R2bad_array_new_length@std@@8
rdata$r	SEGMENT
??_R2bad_array_new_length@std@@8 DD FLAT:??_R1A@?0A@EA@bad_array_new_length@std@@8 ; std::bad_array_new_length::`RTTI Base Class Array'
	DD	FLAT:??_R1A@?0A@EA@bad_alloc@std@@8
	DD	FLAT:??_R1A@?0A@EA@exception@std@@8
rdata$r	ENDS
;	COMDAT ??_R3bad_array_new_length@std@@8
rdata$r	SEGMENT
??_R3bad_array_new_length@std@@8 DD 00H			; std::bad_array_new_length::`RTTI Class Hierarchy Descriptor'
	DD	00H
	DD	03H
	DD	FLAT:??_R2bad_array_new_length@std@@8
rdata$r	ENDS
;	COMDAT ??_R4bad_array_new_length@std@@6B@
rdata$r	SEGMENT
??_R4bad_array_new_length@std@@6B@ DD 00H		; std::bad_array_new_length::`RTTI Complete Object Locator'
	DD	00H
	DD	00H
	DD	FLAT:??_R0?AVbad_array_new_length@std@@@8
	DD	FLAT:??_R3bad_array_new_length@std@@8
rdata$r	ENDS
;	COMDAT ??_R1A@?0A@EA@bad_alloc@std@@8
rdata$r	SEGMENT
??_R1A@?0A@EA@bad_alloc@std@@8 DD FLAT:??_R0?AVbad_alloc@std@@@8 ; std::bad_alloc::`RTTI Base Class Descriptor at (0,-1,0,64)'
	DD	01H
	DD	00H
	DD	0ffffffffH
	DD	00H
	DD	040H
	DD	FLAT:??_R3bad_alloc@std@@8
rdata$r	ENDS
;	COMDAT ??_R2bad_alloc@std@@8
rdata$r	SEGMENT
??_R2bad_alloc@std@@8 DD FLAT:??_R1A@?0A@EA@bad_alloc@std@@8 ; std::bad_alloc::`RTTI Base Class Array'
	DD	FLAT:??_R1A@?0A@EA@exception@std@@8
rdata$r	ENDS
;	COMDAT ??_R3bad_alloc@std@@8
rdata$r	SEGMENT
??_R3bad_alloc@std@@8 DD 00H				; std::bad_alloc::`RTTI Class Hierarchy Descriptor'
	DD	00H
	DD	02H
	DD	FLAT:??_R2bad_alloc@std@@8
rdata$r	ENDS
;	COMDAT ??_R4bad_alloc@std@@6B@
rdata$r	SEGMENT
??_R4bad_alloc@std@@6B@ DD 00H				; std::bad_alloc::`RTTI Complete Object Locator'
	DD	00H
	DD	00H
	DD	FLAT:??_R0?AVbad_alloc@std@@@8
	DD	FLAT:??_R3bad_alloc@std@@8
rdata$r	ENDS
;	COMDAT ??_R1A@?0A@EA@exception@std@@8
rdata$r	SEGMENT
??_R1A@?0A@EA@exception@std@@8 DD FLAT:??_R0?AVexception@std@@@8 ; std::exception::`RTTI Base Class Descriptor at (0,-1,0,64)'
	DD	00H
	DD	00H
	DD	0ffffffffH
	DD	00H
	DD	040H
	DD	FLAT:??_R3exception@std@@8
rdata$r	ENDS
;	COMDAT ??_R2exception@std@@8
rdata$r	SEGMENT
??_R2exception@std@@8 DD FLAT:??_R1A@?0A@EA@exception@std@@8 ; std::exception::`RTTI Base Class Array'
rdata$r	ENDS
;	COMDAT ??_R3exception@std@@8
rdata$r	SEGMENT
??_R3exception@std@@8 DD 00H				; std::exception::`RTTI Class Hierarchy Descriptor'
	DD	00H
	DD	01H
	DD	FLAT:??_R2exception@std@@8
rdata$r	ENDS
;	COMDAT ??_R4exception@std@@6B@
rdata$r	SEGMENT
??_R4exception@std@@6B@ DD 00H				; std::exception::`RTTI Complete Object Locator'
	DD	00H
	DD	00H
	DD	FLAT:??_R0?AVexception@std@@@8
	DD	FLAT:??_R3exception@std@@8
rdata$r	ENDS
;	COMDAT __CT??_R0?AVexception@std@@@8??0exception@std@@QAE@ABV01@@Z12
xdata$x	SEGMENT
__CT??_R0?AVexception@std@@@8??0exception@std@@QAE@ABV01@@Z12 DD 00H
	DD	FLAT:??_R0?AVexception@std@@@8
	DD	00H
	DD	0ffffffffH
	ORG $+4
	DD	0cH
	DD	FLAT:??0exception@std@@QAE@ABV01@@Z
xdata$x	ENDS
;	COMDAT ??_R0?AVexception@std@@@8
data$r	SEGMENT
??_R0?AVexception@std@@@8 DD FLAT:??_7type_info@@6B@	; std::exception `RTTI Type Descriptor'
	DD	00H
	DB	'.?AVexception@std@@', 00H
data$r	ENDS
;	COMDAT __CT??_R0?AVbad_alloc@std@@@8??0bad_alloc@std@@QAE@ABV01@@Z12
xdata$x	SEGMENT
__CT??_R0?AVbad_alloc@std@@@8??0bad_alloc@std@@QAE@ABV01@@Z12 DD 010H
	DD	FLAT:??_R0?AVbad_alloc@std@@@8
	DD	00H
	DD	0ffffffffH
	ORG $+4
	DD	0cH
	DD	FLAT:??0bad_alloc@std@@QAE@ABV01@@Z
xdata$x	ENDS
;	COMDAT ??_R0?AVbad_alloc@std@@@8
data$r	SEGMENT
??_R0?AVbad_alloc@std@@@8 DD FLAT:??_7type_info@@6B@	; std::bad_alloc `RTTI Type Descriptor'
	DD	00H
	DB	'.?AVbad_alloc@std@@', 00H
data$r	ENDS
;	COMDAT __CT??_R0?AVbad_array_new_length@std@@@8??0bad_array_new_length@std@@QAE@ABV01@@Z12
xdata$x	SEGMENT
__CT??_R0?AVbad_array_new_length@std@@@8??0bad_array_new_length@std@@QAE@ABV01@@Z12 DD 00H
	DD	FLAT:??_R0?AVbad_array_new_length@std@@@8
	DD	00H
	DD	0ffffffffH
	ORG $+4
	DD	0cH
	DD	FLAT:??0bad_array_new_length@std@@QAE@ABV01@@Z
xdata$x	ENDS
;	COMDAT ??_R0?AVbad_array_new_length@std@@@8
data$r	SEGMENT
??_R0?AVbad_array_new_length@std@@@8 DD FLAT:??_7type_info@@6B@ ; std::bad_array_new_length `RTTI Type Descriptor'
	DD	00H
	DB	'.?AVbad_array_new_length@std@@', 00H
data$r	ENDS
;	COMDAT __CTA3?AVbad_array_new_length@std@@
xdata$x	SEGMENT
__CTA3?AVbad_array_new_length@std@@ DD 03H
	DD	FLAT:__CT??_R0?AVbad_array_new_length@std@@@8??0bad_array_new_length@std@@QAE@ABV01@@Z12
	DD	FLAT:__CT??_R0?AVbad_alloc@std@@@8??0bad_alloc@std@@QAE@ABV01@@Z12
	DD	FLAT:__CT??_R0?AVexception@std@@@8??0exception@std@@QAE@ABV01@@Z12
xdata$x	ENDS
;	COMDAT __TI3?AVbad_array_new_length@std@@
xdata$x	SEGMENT
__TI3?AVbad_array_new_length@std@@ DD 00H
	DD	FLAT:??1bad_array_new_length@std@@UAE@XZ
	DD	00H
	DD	FLAT:__CTA3?AVbad_array_new_length@std@@
xdata$x	ENDS
;	COMDAT ??_C@_0BF@KINCDENJ@bad?5array?5new?5length@
CONST	SEGMENT
??_C@_0BF@KINCDENJ@bad?5array?5new?5length@ DB 'bad array new length', 00H ; `string'
CONST	ENDS
;	COMDAT ??_7bad_array_new_length@std@@6B@
CONST	SEGMENT
??_7bad_array_new_length@std@@6B@ DD FLAT:??_R4bad_array_new_length@std@@6B@ ; std::bad_array_new_length::`vftable'
	DD	FLAT:??_Ebad_array_new_length@std@@UAEPAXI@Z
	DD	FLAT:?what@exception@std@@UBEPBDXZ
CONST	ENDS
;	COMDAT ??_7bad_alloc@std@@6B@
CONST	SEGMENT
??_7bad_alloc@std@@6B@ DD FLAT:??_R4bad_alloc@std@@6B@	; std::bad_alloc::`vftable'
	DD	FLAT:??_Ebad_alloc@std@@UAEPAXI@Z
	DD	FLAT:?what@exception@std@@UBEPBDXZ
CONST	ENDS
;	COMDAT ??_C@_0BC@EOODALEL@Unknown?5exception@
CONST	SEGMENT
??_C@_0BC@EOODALEL@Unknown?5exception@ DB 'Unknown exception', 00H ; `string'
CONST	ENDS
;	COMDAT ??_7exception@std@@6B@
CONST	SEGMENT
??_7exception@std@@6B@ DD FLAT:??_R4exception@std@@6B@	; std::exception::`vftable'
	DD	FLAT:??_Eexception@std@@UAEPAXI@Z
	DD	FLAT:?what@exception@std@@UBEPBDXZ
CONST	ENDS
;	COMDAT xdata$x
xdata$x	SEGMENT
__ehfuncinfo$??1CD3DXMeshRenderingOption@@UAE@XZ DD 019930522H
	DD	00H
	DD	00H
	DD	2 DUP(00H)
	DD	2 DUP(00H)
	DD	00H
	DD	05H
xdata$x	ENDS
;	COMDAT xdata$x
xdata$x	SEGMENT
__unwindtable$??0CD3DXMeshRenderingOption@@QAE@W4_D3DFILLMODE@@ABUD3DXMATRIX@@@Z DD 0ffffffffH
	DD	FLAT:__unwindfunclet$??0CD3DXMeshRenderingOption@@QAE@W4_D3DFILLMODE@@ABUD3DXMATRIX@@@Z$0
__ehfuncinfo$??0CD3DXMeshRenderingOption@@QAE@W4_D3DFILLMODE@@ABUD3DXMATRIX@@@Z DD 019930522H
	DD	01H
	DD	FLAT:__unwindtable$??0CD3DXMeshRenderingOption@@QAE@W4_D3DFILLMODE@@ABUD3DXMATRIX@@@Z
	DD	2 DUP(00H)
	DD	2 DUP(00H)
	DD	00H
	DD	01H
xdata$x	ENDS
;	COMDAT xdata$x
xdata$x	SEGMENT
__unwindtable$?RenderD3DXMesh@CScreen@@QAEXPAUID3DXMesh@@PBUD3DXMATRIX@@MMMMW4_D3DFILLMODE@@@Z DD 0ffffffffH
	DD	FLAT:__unwindfunclet$?RenderD3DXMesh@CScreen@@QAEXPAUID3DXMesh@@PBUD3DXMATRIX@@MMMMW4_D3DFILLMODE@@@Z$1
	DD	0ffffffffH
	DD	FLAT:__unwindfunclet$?RenderD3DXMesh@CScreen@@QAEXPAUID3DXMesh@@PBUD3DXMATRIX@@MMMMW4_D3DFILLMODE@@@Z$0
__ehfuncinfo$?RenderD3DXMesh@CScreen@@QAEXPAUID3DXMesh@@PBUD3DXMATRIX@@MMMMW4_D3DFILLMODE@@@Z DD 019930522H
	DD	02H
	DD	FLAT:__unwindtable$?RenderD3DXMesh@CScreen@@QAEXPAUID3DXMesh@@PBUD3DXMATRIX@@MMMMW4_D3DFILLMODE@@@Z
	DD	2 DUP(00H)
	DD	2 DUP(00H)
	DD	00H
	DD	01H
xdata$x	ENDS
;	COMDAT xdata$x
xdata$x	SEGMENT
__unwindtable$?RenderCircle3d@CScreen@@QAEXMMMMH@Z DD 0ffffffffH
	DD	FLAT:__unwindfunclet$?RenderCircle3d@CScreen@@QAEXMMMMH@Z$0
__ehfuncinfo$?RenderCircle3d@CScreen@@QAEXMMMMH@Z DD 019930522H
	DD	01H
	DD	FLAT:__unwindtable$?RenderCircle3d@CScreen@@QAEXMMMMH@Z
	DD	2 DUP(00H)
	DD	2 DUP(00H)
	DD	00H
	DD	01H
xdata$x	ENDS
;	COMDAT xdata$x
xdata$x	SEGMENT
__unwindtable$?RenderCircle2d@CScreen@@QAEXMMMMH@Z DD 0ffffffffH
	DD	FLAT:__unwindfunclet$?RenderCircle2d@CScreen@@QAEXMMMMH@Z$0
__ehfuncinfo$?RenderCircle2d@CScreen@@QAEXMMMMH@Z DD 019930522H
	DD	01H
	DD	FLAT:__unwindtable$?RenderCircle2d@CScreen@@QAEXMMMMH@Z
	DD	2 DUP(00H)
	DD	2 DUP(00H)
	DD	00H
	DD	01H
xdata$x	ENDS
; Function compile flags: /Ogtp
; File C:\Program Files (x86)\Microsoft Visual Studio\2019\Community\VC\Tools\MSVC\14.27.29110\include\xmemory
;	COMDAT ??$_Uninitialized_move@PAUD3DXVECTOR3@@V?$allocator@UD3DXVECTOR3@@@std@@@std@@YAPAUD3DXVECTOR3@@QAU1@0PAU1@AAV?$allocator@UD3DXVECTOR3@@@0@@Z
_TEXT	SEGMENT
__First$ = 8						; size = 4
__Last$ = 12						; size = 4
__Dest$ = 16						; size = 4
__Al$ = 20						; size = 4
??$_Uninitialized_move@PAUD3DXVECTOR3@@V?$allocator@UD3DXVECTOR3@@@std@@@std@@YAPAUD3DXVECTOR3@@QAU1@0PAU1@AAV?$allocator@UD3DXVECTOR3@@@0@@Z PROC ; std::_Uninitialized_move<D3DXVECTOR3 *,std::allocator<D3DXVECTOR3> >, COMDAT

; 1647 :     const _InIt _First, const _InIt _Last, _Alloc_ptr_t<_Alloc> _Dest, _Alloc& _Al) {

  00000	55		 push	 ebp
  00001	8b ec		 mov	 ebp, esp

; 1648 :     // move [_First, _Last) to raw _Dest, using _Al
; 1649 :     // note: only called internally from elsewhere in the STL
; 1650 :     using _Ptrval     = typename _Alloc::value_type*;
; 1651 :     auto _UFirst      = _Get_unwrapped(_First);
; 1652 :     const auto _ULast = _Get_unwrapped(_Last);
; 1653 :     if constexpr (conjunction_v<bool_constant<_Ptr_move_cat<decltype(_UFirst), _Ptrval>::_Really_trivial>,
; 1654 :                       _Uses_default_construct<_Alloc, _Ptrval, decltype(_STD move(*_UFirst))>>) {
; 1655 :         _Copy_memmove(_UFirst, _ULast, _Unfancy(_Dest));
; 1656 :         return _Dest + (_ULast - _UFirst);
; 1657 :     } else {
; 1658 :         _Uninitialized_backout_al<_Alloc> _Backout{_Dest, _Al};
; 1659 :         for (; _UFirst != _ULast; ++_UFirst) {

  00003	8b 4d 08	 mov	 ecx, DWORD PTR __First$[ebp]

; 1497 :     _Uninitialized_backout_al(pointer _Dest, _Alloc& _Al_) : _First(_Dest), _Last(_Dest), _Al(_Al_) {}

  00006	8b 45 10	 mov	 eax, DWORD PTR __Dest$[ebp]

; 1647 :     const _InIt _First, const _InIt _Last, _Alloc_ptr_t<_Alloc> _Dest, _Alloc& _Al) {

  00009	56		 push	 esi

; 1648 :     // move [_First, _Last) to raw _Dest, using _Al
; 1649 :     // note: only called internally from elsewhere in the STL
; 1650 :     using _Ptrval     = typename _Alloc::value_type*;
; 1651 :     auto _UFirst      = _Get_unwrapped(_First);
; 1652 :     const auto _ULast = _Get_unwrapped(_Last);
; 1653 :     if constexpr (conjunction_v<bool_constant<_Ptr_move_cat<decltype(_UFirst), _Ptrval>::_Really_trivial>,
; 1654 :                       _Uses_default_construct<_Alloc, _Ptrval, decltype(_STD move(*_UFirst))>>) {
; 1655 :         _Copy_memmove(_UFirst, _ULast, _Unfancy(_Dest));
; 1656 :         return _Dest + (_ULast - _UFirst);
; 1657 :     } else {
; 1658 :         _Uninitialized_backout_al<_Alloc> _Backout{_Dest, _Al};
; 1659 :         for (; _UFirst != _ULast; ++_UFirst) {

  0000a	8b 75 0c	 mov	 esi, DWORD PTR __Last$[ebp]
  0000d	3b ce		 cmp	 ecx, esi
  0000f	74 18		 je	 SHORT $LN3@Uninitiali
$LL4@Uninitiali:

; 694  :         ::new (const_cast<void*>(static_cast<const volatile void*>(_Ptr))) _Objty(_STD forward<_Types>(_Args)...);

  00011	f3 0f 7e 01	 movq	 xmm0, QWORD PTR [ecx]
  00015	66 0f d6 00	 movq	 QWORD PTR [eax], xmm0
  00019	8b 51 08	 mov	 edx, DWORD PTR [ecx+8]

; 1509 :         ++_Last;

  0001c	83 c1 0c	 add	 ecx, 12			; 0000000cH

; 694  :         ::new (const_cast<void*>(static_cast<const volatile void*>(_Ptr))) _Objty(_STD forward<_Types>(_Args)...);

  0001f	89 50 08	 mov	 DWORD PTR [eax+8], edx

; 1509 :         ++_Last;

  00022	83 c0 0c	 add	 eax, 12			; 0000000cH

; 1648 :     // move [_First, _Last) to raw _Dest, using _Al
; 1649 :     // note: only called internally from elsewhere in the STL
; 1650 :     using _Ptrval     = typename _Alloc::value_type*;
; 1651 :     auto _UFirst      = _Get_unwrapped(_First);
; 1652 :     const auto _ULast = _Get_unwrapped(_Last);
; 1653 :     if constexpr (conjunction_v<bool_constant<_Ptr_move_cat<decltype(_UFirst), _Ptrval>::_Really_trivial>,
; 1654 :                       _Uses_default_construct<_Alloc, _Ptrval, decltype(_STD move(*_UFirst))>>) {
; 1655 :         _Copy_memmove(_UFirst, _ULast, _Unfancy(_Dest));
; 1656 :         return _Dest + (_ULast - _UFirst);
; 1657 :     } else {
; 1658 :         _Uninitialized_backout_al<_Alloc> _Backout{_Dest, _Al};
; 1659 :         for (; _UFirst != _ULast; ++_UFirst) {

  00025	3b ce		 cmp	 ecx, esi
  00027	75 e8		 jne	 SHORT $LL4@Uninitiali
$LN3@Uninitiali:
  00029	5e		 pop	 esi

; 1660 :             _Backout._Emplace_back(_STD move(*_UFirst));
; 1661 :         }
; 1662 : 
; 1663 :         return _Backout._Release();
; 1664 :     }
; 1665 : }

  0002a	5d		 pop	 ebp
  0002b	c3		 ret	 0
??$_Uninitialized_move@PAUD3DXVECTOR3@@V?$allocator@UD3DXVECTOR3@@@std@@@std@@YAPAUD3DXVECTOR3@@QAU1@0PAU1@AAV?$allocator@UD3DXVECTOR3@@@0@@Z ENDP ; std::_Uninitialized_move<D3DXVECTOR3 *,std::allocator<D3DXVECTOR3> >
_TEXT	ENDS
; Function compile flags: /Ogtp
; File C:\Program Files (x86)\Microsoft Visual Studio\2019\Community\VC\Tools\MSVC\14.27.29110\include\xmemory
;	COMDAT ??$_Uninitialized_value_construct_n@V?$allocator@UD3DXVECTOR3@@@std@@@std@@YAPAUD3DXVECTOR3@@PAU1@IAAV?$allocator@UD3DXVECTOR3@@@0@@Z
_TEXT	SEGMENT
__First$ = 8						; size = 4
__Count$ = 12						; size = 4
__Al$ = 16						; size = 4
??$_Uninitialized_value_construct_n@V?$allocator@UD3DXVECTOR3@@@std@@@std@@YAPAUD3DXVECTOR3@@PAU1@IAAV?$allocator@UD3DXVECTOR3@@@0@@Z PROC ; std::_Uninitialized_value_construct_n<std::allocator<D3DXVECTOR3> >, COMDAT

; 1824 :     _Alloc_ptr_t<_Alloc> _First, _Alloc_size_t<_Alloc> _Count, _Alloc& _Al) {

  00000	55		 push	 ebp
  00001	8b ec		 mov	 ebp, esp

; 1825 :     // value-initialize _Count objects to raw _First, using _Al
; 1826 :     using _Ptrty = typename _Alloc::value_type*;
; 1827 :     if constexpr (_Use_memset_value_construct_v<_Ptrty> && _Uses_default_construct<_Alloc, _Ptrty>::value) {
; 1828 :         auto _PFirst = _Unfancy(_First);
; 1829 :         _Zero_range(_PFirst, _PFirst + _Count);
; 1830 :         return _First + _Count;
; 1831 :     } else {
; 1832 :         _Uninitialized_backout_al<_Alloc> _Backout{_First, _Al};
; 1833 :         for (; 0 < _Count; --_Count) {

  00003	8b 45 0c	 mov	 eax, DWORD PTR __Count$[ebp]

; 1497 :     _Uninitialized_backout_al(pointer _Dest, _Alloc& _Al_) : _First(_Dest), _Last(_Dest), _Al(_Al_) {}

  00006	8b 4d 08	 mov	 ecx, DWORD PTR __First$[ebp]

; 1825 :     // value-initialize _Count objects to raw _First, using _Al
; 1826 :     using _Ptrty = typename _Alloc::value_type*;
; 1827 :     if constexpr (_Use_memset_value_construct_v<_Ptrty> && _Uses_default_construct<_Alloc, _Ptrty>::value) {
; 1828 :         auto _PFirst = _Unfancy(_First);
; 1829 :         _Zero_range(_PFirst, _PFirst + _Count);
; 1830 :         return _First + _Count;
; 1831 :     } else {
; 1832 :         _Uninitialized_backout_al<_Alloc> _Backout{_First, _Al};
; 1833 :         for (; 0 < _Count; --_Count) {

  00009	85 c0		 test	 eax, eax
  0000b	74 08		 je	 SHORT $LN16@Uninitiali
  0000d	8d 04 40	 lea	 eax, DWORD PTR [eax+eax*2]
  00010	8d 04 81	 lea	 eax, DWORD PTR [ecx+eax*4]

; 1838 :     }
; 1839 : }

  00013	5d		 pop	 ebp
  00014	c3		 ret	 0
$LN16@Uninitiali:

; 1834 :             _Backout._Emplace_back();
; 1835 :         }
; 1836 : 
; 1837 :         return _Backout._Release();

  00015	8b c1		 mov	 eax, ecx

; 1838 :     }
; 1839 : }

  00017	5d		 pop	 ebp
  00018	c3		 ret	 0
??$_Uninitialized_value_construct_n@V?$allocator@UD3DXVECTOR3@@@std@@@std@@YAPAUD3DXVECTOR3@@PAU1@IAAV?$allocator@UD3DXVECTOR3@@@0@@Z ENDP ; std::_Uninitialized_value_construct_n<std::allocator<D3DXVECTOR3> >
_TEXT	ENDS
; Function compile flags: /Ogtp
; File C:\Program Files (x86)\Microsoft Visual Studio\2019\Community\VC\Tools\MSVC\14.27.29110\include\vector
; File C:\Program Files (x86)\Microsoft Visual Studio\2019\Community\VC\Tools\MSVC\14.27.29110\include\xmemory
; File C:\Program Files (x86)\Microsoft Visual Studio\2019\Community\VC\Tools\MSVC\14.27.29110\include\vector
; File C:\Program Files (x86)\Microsoft Visual Studio\2019\Community\VC\Tools\MSVC\14.27.29110\include\xmemory
; File C:\Program Files (x86)\Microsoft Visual Studio\2019\Community\VC\Tools\MSVC\14.27.29110\include\vector
; File C:\Program Files (x86)\Microsoft Visual Studio\2019\Community\VC\Tools\MSVC\14.27.29110\include\xmemory
; File C:\Program Files (x86)\Microsoft Visual Studio\2019\Community\VC\Tools\MSVC\14.27.29110\include\vector
; File C:\Program Files (x86)\Microsoft Visual Studio\2019\Community\VC\Tools\MSVC\14.27.29110\include\xmemory
; File C:\Program Files (x86)\Microsoft Visual Studio\2019\Community\VC\Tools\MSVC\14.27.29110\include\vector
;	COMDAT ??$_Resize_reallocate@U_Value_init_tag@std@@@?$vector@UD3DXVECTOR3@@V?$allocator@UD3DXVECTOR3@@@std@@@std@@AAEXIABU_Value_init_tag@1@@Z
_TEXT	SEGMENT
tv319 = 8						; size = 4
__Newsize$ = 8						; size = 4
__Val$ = 12						; size = 4
??$_Resize_reallocate@U_Value_init_tag@std@@@?$vector@UD3DXVECTOR3@@V?$allocator@UD3DXVECTOR3@@@std@@@std@@AAEXIABU_Value_init_tag@1@@Z PROC ; std::vector<D3DXVECTOR3,std::allocator<D3DXVECTOR3> >::_Resize_reallocate<std::_Value_init_tag>, COMDAT
; _this$ = ecx

; 1182 :     void _Resize_reallocate(const size_type _Newsize, const _Ty2& _Val) {

  00000	55		 push	 ebp
  00001	8b ec		 mov	 ebp, esp
  00003	53		 push	 ebx
  00004	56		 push	 esi

; 1183 :         if (_Newsize > max_size()) {

  00005	8b 75 08	 mov	 esi, DWORD PTR __Newsize$[ebp]
  00008	57		 push	 edi
  00009	8b f9		 mov	 edi, ecx
  0000b	81 fe 55 55 55
	15		 cmp	 esi, 357913941		; 15555555H
  00011	0f 87 9c 00 00
	00		 ja	 $LN36@Resize_rea

; 1494 :         return static_cast<size_type>(_My_data._Myend - _My_data._Myfirst);

  00017	8b 4f 08	 mov	 ecx, DWORD PTR [edi+8]
  0001a	b8 ab aa aa 2a	 mov	 eax, 715827883		; 2aaaaaabH
  0001f	2b 0f		 sub	 ecx, DWORD PTR [edi]
  00021	f7 e9		 imul	 ecx

; 1619 :         if (_Oldcapacity > max_size() - _Oldcapacity / 2) {

  00023	b8 55 55 55 15	 mov	 eax, 357913941		; 15555555H

; 1494 :         return static_cast<size_type>(_My_data._Myend - _My_data._Myfirst);

  00028	d1 fa		 sar	 edx, 1
  0002a	8b ca		 mov	 ecx, edx
  0002c	c1 e9 1f	 shr	 ecx, 31			; 0000001fH
  0002f	03 ca		 add	 ecx, edx

; 1619 :         if (_Oldcapacity > max_size() - _Oldcapacity / 2) {

  00031	8b d1		 mov	 edx, ecx
  00033	d1 ea		 shr	 edx, 1
  00035	2b c2		 sub	 eax, edx
  00037	3b c8		 cmp	 ecx, eax
  00039	77 10		 ja	 SHORT $LN34@Resize_rea

; 1620 :             return _Newsize; // geometric growth would overflow
; 1621 :         }
; 1622 : 
; 1623 :         const size_type _Geometric = _Oldcapacity + _Oldcapacity / 2;

  0003b	8d 04 0a	 lea	 eax, DWORD PTR [edx+ecx]

; 1624 : 
; 1625 :         if (_Geometric < _Newsize) {

  0003e	3b c6		 cmp	 eax, esi
  00040	72 09		 jb	 SHORT $LN34@Resize_rea
; File C:\Program Files (x86)\Microsoft Visual Studio\2019\Community\VC\Tools\MSVC\14.27.29110\include\xmemory

; 60   :         if (_Count > _Max_possible) {

  00042	3d 55 55 55 15	 cmp	 eax, 357913941		; 15555555H
  00047	77 6f		 ja	 SHORT $LN37@Resize_rea
  00049	eb 02		 jmp	 SHORT $LN18@Resize_rea
$LN34@Resize_rea:

; 62   :         }
; 63   :     }
; 64   : 
; 65   :     return _Count * _Ty_size;

  0004b	8b c6		 mov	 eax, esi
$LN18@Resize_rea:
  0004d	8d 04 40	 lea	 eax, DWORD PTR [eax+eax*2]
  00050	c1 e0 02	 shl	 eax, 2

; 807  :         return static_cast<_Ty*>(_Allocate<_New_alignof<_Ty>>(_Get_size_of_n<sizeof(_Ty)>(_Count)));

  00053	50		 push	 eax

; 65   :     return _Count * _Ty_size;

  00054	89 45 08	 mov	 DWORD PTR tv319[ebp], eax

; 807  :         return static_cast<_Ty*>(_Allocate<_New_alignof<_Ty>>(_Get_size_of_n<sizeof(_Ty)>(_Count)));

  00057	e8 00 00 00 00	 call	 ??$_Allocate@$07U_Default_allocate_traits@std@@$0A@@std@@YAPAXI@Z ; std::_Allocate<8,std::_Default_allocate_traits,0>
; File C:\Program Files (x86)\Microsoft Visual Studio\2019\Community\VC\Tools\MSVC\14.27.29110\include\vector

; 1597 :         _Uninitialized_move(_First, _Last, _Dest, _Getal());

  0005c	57		 push	 edi
; File C:\Program Files (x86)\Microsoft Visual Studio\2019\Community\VC\Tools\MSVC\14.27.29110\include\xmemory

; 807  :         return static_cast<_Ty*>(_Allocate<_New_alignof<_Ty>>(_Get_size_of_n<sizeof(_Ty)>(_Count)));

  0005d	8b d8		 mov	 ebx, eax
; File C:\Program Files (x86)\Microsoft Visual Studio\2019\Community\VC\Tools\MSVC\14.27.29110\include\vector

; 1597 :         _Uninitialized_move(_First, _Last, _Dest, _Getal());

  0005f	53		 push	 ebx
  00060	ff 77 04	 push	 DWORD PTR [edi+4]
  00063	ff 37		 push	 DWORD PTR [edi]
  00065	e8 00 00 00 00	 call	 ??$_Uninitialized_move@PAUD3DXVECTOR3@@V?$allocator@UD3DXVECTOR3@@@std@@@std@@YAPAUD3DXVECTOR3@@QAU1@0PAU1@AAV?$allocator@UD3DXVECTOR3@@@0@@Z ; std::_Uninitialized_move<D3DXVECTOR3 *,std::allocator<D3DXVECTOR3> >

; 1675 :         if (_Myfirst) { // destroy and deallocate old array

  0006a	8b 07		 mov	 eax, DWORD PTR [edi]

; 1597 :         _Uninitialized_move(_First, _Last, _Dest, _Getal());

  0006c	83 c4 14	 add	 esp, 20			; 00000014H

; 1675 :         if (_Myfirst) { // destroy and deallocate old array

  0006f	85 c0		 test	 eax, eax
  00071	74 26		 je	 SHORT $LN29@Resize_rea

; 1676 :             _Destroy(_Myfirst, _Mylast);
; 1677 :             _Getal().deallocate(_Myfirst, static_cast<size_type>(_Myend - _Myfirst));

  00073	8b 4f 08	 mov	 ecx, DWORD PTR [edi+8]
  00076	2b c8		 sub	 ecx, eax
  00078	b8 ab aa aa 2a	 mov	 eax, 715827883		; 2aaaaaabH
  0007d	f7 e9		 imul	 ecx
  0007f	d1 fa		 sar	 edx, 1
  00081	8b c2		 mov	 eax, edx
  00083	c1 e8 1f	 shr	 eax, 31			; 0000001fH
  00086	03 c2		 add	 eax, edx
; File C:\Program Files (x86)\Microsoft Visual Studio\2019\Community\VC\Tools\MSVC\14.27.29110\include\xmemory

; 803  :         _Deallocate<_New_alignof<_Ty>>(_Ptr, sizeof(_Ty) * _Count);

  00088	8d 04 40	 lea	 eax, DWORD PTR [eax+eax*2]
  0008b	c1 e0 02	 shl	 eax, 2
  0008e	50		 push	 eax
  0008f	ff 37		 push	 DWORD PTR [edi]
  00091	e8 00 00 00 00	 call	 ??$_Deallocate@$07$0A@@std@@YAXPAXI@Z ; std::_Deallocate<8,0>
  00096	83 c4 08	 add	 esp, 8
$LN29@Resize_rea:
; File C:\Program Files (x86)\Microsoft Visual Studio\2019\Community\VC\Tools\MSVC\14.27.29110\include\vector

; 1681 :         _Mylast  = _Newvec + _Newsize;

  00099	8d 04 76	 lea	 eax, DWORD PTR [esi+esi*2]
  0009c	89 1f		 mov	 DWORD PTR [edi], ebx
  0009e	8d 04 83	 lea	 eax, DWORD PTR [ebx+eax*4]
  000a1	89 47 04	 mov	 DWORD PTR [edi+4], eax

; 1682 :         _Myend   = _Newvec + _Newcapacity;

  000a4	8b 45 08	 mov	 eax, DWORD PTR tv319[ebp]
  000a7	03 c3		 add	 eax, ebx
  000a9	89 47 08	 mov	 DWORD PTR [edi+8], eax
  000ac	5f		 pop	 edi
  000ad	5e		 pop	 esi
  000ae	5b		 pop	 ebx

; 1208 :     }

  000af	5d		 pop	 ebp
  000b0	c2 08 00	 ret	 8
$LN36@Resize_rea:

; 1184 :             _Xlength();

  000b3	e8 00 00 00 00	 call	 ?_Xlength@?$vector@UD3DXVECTOR3@@V?$allocator@UD3DXVECTOR3@@@std@@@std@@CAXXZ ; std::vector<D3DXVECTOR3,std::allocator<D3DXVECTOR3> >::_Xlength
$LN37@Resize_rea:
; File C:\Program Files (x86)\Microsoft Visual Studio\2019\Community\VC\Tools\MSVC\14.27.29110\include\xmemory

; 61   :             _Throw_bad_array_new_length(); // multiply overflow

  000b8	e8 00 00 00 00	 call	 ?_Throw_bad_array_new_length@std@@YAXXZ ; std::_Throw_bad_array_new_length
$LN33@Resize_rea:
  000bd	cc		 int	 3
??$_Resize_reallocate@U_Value_init_tag@std@@@?$vector@UD3DXVECTOR3@@V?$allocator@UD3DXVECTOR3@@@std@@@std@@AAEXIABU_Value_init_tag@1@@Z ENDP ; std::vector<D3DXVECTOR3,std::allocator<D3DXVECTOR3> >::_Resize_reallocate<std::_Value_init_tag>
_TEXT	ENDS
; Function compile flags: /Ogtp
; File C:\Program Files (x86)\Microsoft Visual Studio\2019\Community\VC\Tools\MSVC\14.27.29110\include\xmemory
;	COMDAT ??$_Destroy_range@V?$allocator@UD3DXVECTOR3@@@std@@@std@@YAXPAUD3DXVECTOR3@@QAU1@AAV?$allocator@UD3DXVECTOR3@@@0@@Z
_TEXT	SEGMENT
__First$ = 8						; size = 4
__Last$ = 12						; size = 4
__Al$ = 16						; size = 4
??$_Destroy_range@V?$allocator@UD3DXVECTOR3@@@std@@@std@@YAXPAUD3DXVECTOR3@@QAU1@AAV?$allocator@UD3DXVECTOR3@@@0@@Z PROC ; std::_Destroy_range<std::allocator<D3DXVECTOR3> >, COMDAT

; 956  :     // note that this is an optimization for debug mode codegen; in release mode the BE removes all of this
; 957  :     using _Ty = typename _Alloc::value_type;
; 958  :     if _CONSTEXPR_IF (!conjunction_v<is_trivially_destructible<_Ty>, _Uses_default_destroy<_Alloc, _Ty*>>) {
; 959  :         for (; _First != _Last; ++_First) {
; 960  :             allocator_traits<_Alloc>::destroy(_Al, _Unfancy(_First));
; 961  :         }
; 962  :     }
; 963  : }

  00000	c2 00 00	 ret	 0
??$_Destroy_range@V?$allocator@UD3DXVECTOR3@@@std@@@std@@YAXPAUD3DXVECTOR3@@QAU1@AAV?$allocator@UD3DXVECTOR3@@@0@@Z ENDP ; std::_Destroy_range<std::allocator<D3DXVECTOR3> >
_TEXT	ENDS
; Function compile flags: /Ogtp
;	COMDAT ??_GCD3DXMeshRenderingOption@@UAEPAXI@Z
_TEXT	SEGMENT
___flags$ = 8						; size = 4
??_GCD3DXMeshRenderingOption@@UAEPAXI@Z PROC		; CD3DXMeshRenderingOption::`scalar deleting destructor', COMDAT
; _this$ = ecx
  00000	55		 push	 ebp
  00001	8b ec		 mov	 ebp, esp
  00003	56		 push	 esi
  00004	8b f1		 mov	 esi, ecx
  00006	e8 00 00 00 00	 call	 ??1CD3DXMeshRenderingOption@@UAE@XZ ; CD3DXMeshRenderingOption::~CD3DXMeshRenderingOption
  0000b	f6 45 08 01	 test	 BYTE PTR ___flags$[ebp], 1
  0000f	74 0b		 je	 SHORT $LN4@scalar
  00011	6a 08		 push	 8
  00013	56		 push	 esi
  00014	e8 00 00 00 00	 call	 ??3@YAXPAXI@Z		; operator delete
  00019	83 c4 08	 add	 esp, 8
$LN4@scalar:
  0001c	8b c6		 mov	 eax, esi
  0001e	5e		 pop	 esi
  0001f	5d		 pop	 ebp
  00020	c2 04 00	 ret	 4
??_GCD3DXMeshRenderingOption@@UAEPAXI@Z ENDP		; CD3DXMeshRenderingOption::`scalar deleting destructor'
_TEXT	ENDS
; Function compile flags: /Ogtp
; File C:\DS Project\DS Files\Source\ClientSource\Client\EterLib\GrpScreen.cpp
;	COMDAT ??1CD3DXMeshRenderingOption@@UAE@XZ
_TEXT	SEGMENT
__$EHRec$ = -12						; size = 12
??1CD3DXMeshRenderingOption@@UAE@XZ PROC		; CD3DXMeshRenderingOption::~CD3DXMeshRenderingOption, COMDAT
; _this$ = ecx

; 331  : 	{

  00000	55		 push	 ebp
  00001	8b ec		 mov	 ebp, esp
  00003	6a ff		 push	 -1
  00005	68 00 00 00 00	 push	 __ehhandler$??1CD3DXMeshRenderingOption@@UAE@XZ
  0000a	64 a1 00 00 00
	00		 mov	 eax, DWORD PTR fs:0
  00010	50		 push	 eax
  00011	56		 push	 esi
  00012	a1 00 00 00 00	 mov	 eax, DWORD PTR ___security_cookie
  00017	33 c5		 xor	 eax, ebp
  00019	50		 push	 eax
  0001a	8d 45 f4	 lea	 eax, DWORD PTR __$EHRec$[ebp]
  0001d	64 a3 00 00 00
	00		 mov	 DWORD PTR fs:0, eax
  00023	8b f1		 mov	 esi, ecx

; 332  : 		ms_lpd3dDevice->SetVertexShader(m_dwVS);

  00025	ff 76 04	 push	 DWORD PTR [esi+4]
  00028	c7 06 00 00 00
	00		 mov	 DWORD PTR [esi], OFFSET ??_7CD3DXMeshRenderingOption@@6B@
  0002e	a1 00 00 00 00	 mov	 eax, DWORD PTR ?ms_lpd3dDevice@CGraphicBase@@1PAUIDirect3DDevice8@@A ; CGraphicBase::ms_lpd3dDevice
  00033	50		 push	 eax
  00034	8b 10		 mov	 edx, DWORD PTR [eax]
  00036	ff 92 30 01 00
	00		 call	 DWORD PTR [edx+304]

; 333  : 
; 334  : 		STATEMANAGER.RestoreTransform(D3DTS_WORLD);

  0003c	8b 0d 00 00 00
	00		 mov	 ecx, DWORD PTR ?ms_singleton@?$CSingleton@VCStateManager@@@@0PAVCStateManager@@A ; CSingleton<CStateManager>::ms_singleton
  00042	68 00 01 00 00	 push	 256			; 00000100H
  00047	e8 00 00 00 00	 call	 ?RestoreTransform@CStateManager@@QAEXW4_D3DTRANSFORMSTATETYPE@@@Z ; CStateManager::RestoreTransform

; 335  : 		STATEMANAGER.RestoreTextureStageState(0, D3DTSS_COLORARG1);

  0004c	8b 0d 00 00 00
	00		 mov	 ecx, DWORD PTR ?ms_singleton@?$CSingleton@VCStateManager@@@@0PAVCStateManager@@A ; CSingleton<CStateManager>::ms_singleton
  00052	6a 02		 push	 2
  00054	6a 00		 push	 0
  00056	e8 00 00 00 00	 call	 ?RestoreTextureStageState@CStateManager@@QAEXKW4_D3DTEXTURESTAGESTATETYPE@@@Z ; CStateManager::RestoreTextureStageState

; 336  : 		STATEMANAGER.RestoreTextureStageState(0, D3DTSS_COLOROP);

  0005b	8b 0d 00 00 00
	00		 mov	 ecx, DWORD PTR ?ms_singleton@?$CSingleton@VCStateManager@@@@0PAVCStateManager@@A ; CSingleton<CStateManager>::ms_singleton
  00061	6a 01		 push	 1
  00063	6a 00		 push	 0
  00065	e8 00 00 00 00	 call	 ?RestoreTextureStageState@CStateManager@@QAEXKW4_D3DTEXTURESTAGESTATETYPE@@@Z ; CStateManager::RestoreTextureStageState

; 337  : 		STATEMANAGER.RestoreTextureStageState(0, D3DTSS_ALPHAOP);

  0006a	8b 0d 00 00 00
	00		 mov	 ecx, DWORD PTR ?ms_singleton@?$CSingleton@VCStateManager@@@@0PAVCStateManager@@A ; CSingleton<CStateManager>::ms_singleton
  00070	6a 04		 push	 4
  00072	6a 00		 push	 0
  00074	e8 00 00 00 00	 call	 ?RestoreTextureStageState@CStateManager@@QAEXKW4_D3DTEXTURESTAGESTATETYPE@@@Z ; CStateManager::RestoreTextureStageState

; 338  : 		STATEMANAGER.SetRenderState(D3DRS_FILLMODE, D3DFILL_SOLID);

  00079	8b 0d 00 00 00
	00		 mov	 ecx, DWORD PTR ?ms_singleton@?$CSingleton@VCStateManager@@@@0PAVCStateManager@@A ; CSingleton<CStateManager>::ms_singleton
  0007f	6a 03		 push	 3
  00081	6a 08		 push	 8
  00083	e8 00 00 00 00	 call	 ?SetRenderState@CStateManager@@QAEXW4_D3DRENDERSTATETYPE@@K@Z ; CStateManager::SetRenderState

; 339  : 	}

  00088	8b ce		 mov	 ecx, esi
  0008a	e8 00 00 00 00	 call	 ??1CScreen@@UAE@XZ	; CScreen::~CScreen
  0008f	8b 4d f4	 mov	 ecx, DWORD PTR __$EHRec$[ebp]
  00092	64 89 0d 00 00
	00 00		 mov	 DWORD PTR fs:0, ecx
  00099	59		 pop	 ecx
  0009a	5e		 pop	 esi
  0009b	8b e5		 mov	 esp, ebp
  0009d	5d		 pop	 ebp
  0009e	c3		 ret	 0
  0009f	cc		 int	 3
  000a0	cc		 int	 3
  000a1	cc		 int	 3
  000a2	cc		 int	 3
  000a3	cc		 int	 3
_TEXT	ENDS
;	COMDAT text$x
text$x	SEGMENT
__ehhandler$??1CD3DXMeshRenderingOption@@UAE@XZ:
  00000	90		 npad	 1
  00001	90		 npad	 1
  00002	8b 54 24 08	 mov	 edx, DWORD PTR [esp+8]
  00006	8d 42 0c	 lea	 eax, DWORD PTR [edx+12]
  00009	8b 4a f8	 mov	 ecx, DWORD PTR [edx-8]
  0000c	33 c8		 xor	 ecx, eax
  0000e	e8 00 00 00 00	 call	 @__security_check_cookie@4
  00013	b8 00 00 00 00	 mov	 eax, OFFSET __ehfuncinfo$??1CD3DXMeshRenderingOption@@UAE@XZ
  00018	e9 00 00 00 00	 jmp	 ___CxxFrameHandler3
text$x	ENDS
??1CD3DXMeshRenderingOption@@UAE@XZ ENDP		; CD3DXMeshRenderingOption::~CD3DXMeshRenderingOption
; Function compile flags: /Ogtp
; File C:\Program Files (x86)\Microsoft Visual Studio\2019\Community\VC\Tools\MSVC\14.27.29110\include\vector
;	COMDAT ?_Xlength@?$vector@UD3DXVECTOR3@@V?$allocator@UD3DXVECTOR3@@@std@@@std@@CAXXZ
_TEXT	SEGMENT
?_Xlength@?$vector@UD3DXVECTOR3@@V?$allocator@UD3DXVECTOR3@@@std@@@std@@CAXXZ PROC ; std::vector<D3DXVECTOR3,std::allocator<D3DXVECTOR3> >::_Xlength, COMDAT

; 1704 :         _Xlength_error("vector too long");

  00000	68 00 00 00 00	 push	 OFFSET ??_C@_0BA@FOIKENOD@vector?5too?5long@
  00005	e8 00 00 00 00	 call	 ?_Xlength_error@std@@YAXPBD@Z ; std::_Xlength_error
$LN3@Xlength:
  0000a	cc		 int	 3
?_Xlength@?$vector@UD3DXVECTOR3@@V?$allocator@UD3DXVECTOR3@@@std@@@std@@CAXXZ ENDP ; std::vector<D3DXVECTOR3,std::allocator<D3DXVECTOR3> >::_Xlength
_TEXT	ENDS
; Function compile flags: /Ogtp
; File C:\Program Files (x86)\Microsoft Visual Studio\2019\Community\VC\Tools\MSVC\14.27.29110\include\vector
;	COMDAT ?resize@?$vector@UD3DXVECTOR3@@V?$allocator@UD3DXVECTOR3@@@std@@@std@@QAEXI@Z
_TEXT	SEGMENT
__Newsize$ = 8						; size = 4
$T1 = 11						; size = 1
?resize@?$vector@UD3DXVECTOR3@@V?$allocator@UD3DXVECTOR3@@@std@@@std@@QAEXI@Z PROC ; std::vector<D3DXVECTOR3,std::allocator<D3DXVECTOR3> >::resize, COMDAT
; _this$ = ecx

; 1240 :     void resize(_CRT_GUARDOVERFLOW const size_type _Newsize) {

  00000	55		 push	 ebp
  00001	8b ec		 mov	 ebp, esp
  00003	53		 push	 ebx
  00004	56		 push	 esi

; 1216 :         if (_Newsize < _Oldsize) { // trim

  00005	8b 75 08	 mov	 esi, DWORD PTR __Newsize$[ebp]
  00008	b8 ab aa aa 2a	 mov	 eax, 715827883		; 2aaaaaabH

; 1240 :     void resize(_CRT_GUARDOVERFLOW const size_type _Newsize) {

  0000d	57		 push	 edi
  0000e	8b f9		 mov	 edi, ecx

; 1215 :         const auto _Oldsize = static_cast<size_type>(_Mylast - _Myfirst);

  00010	8b 57 04	 mov	 edx, DWORD PTR [edi+4]
  00013	8b 0f		 mov	 ecx, DWORD PTR [edi]
  00015	2b d1		 sub	 edx, ecx
  00017	f7 ea		 imul	 edx
  00019	d1 fa		 sar	 edx, 1
  0001b	8b da		 mov	 ebx, edx
  0001d	c1 eb 1f	 shr	 ebx, 31			; 0000001fH
  00020	03 da		 add	 ebx, edx

; 1216 :         if (_Newsize < _Oldsize) { // trim

  00022	3b f3		 cmp	 esi, ebx
  00024	73 10		 jae	 SHORT $LN4@resize

; 1217 :             const pointer _Newlast = _Myfirst + _Newsize;

  00026	8d 04 76	 lea	 eax, DWORD PTR [esi+esi*2]
  00029	8d 04 81	 lea	 eax, DWORD PTR [ecx+eax*4]

; 1241 :         // trim or append value-initialized elements, provide strong guarantee
; 1242 :         _Resize(_Newsize, _Value_init_tag{});
; 1243 :     }

  0002c	89 47 04	 mov	 DWORD PTR [edi+4], eax
  0002f	5f		 pop	 edi
  00030	5e		 pop	 esi
  00031	5b		 pop	 ebx
  00032	5d		 pop	 ebp
  00033	c2 04 00	 ret	 4
$LN4@resize:

; 1224 :         if (_Newsize > _Oldsize) { // append

  00036	76 3e		 jbe	 SHORT $LN5@resize

; 1225 :             const auto _Oldcapacity = static_cast<size_type>(_My_data._Myend - _Myfirst);

  00038	8b 4f 08	 mov	 ecx, DWORD PTR [edi+8]
  0003b	b8 ab aa aa 2a	 mov	 eax, 715827883		; 2aaaaaabH
  00040	2b 0f		 sub	 ecx, DWORD PTR [edi]
  00042	f7 e9		 imul	 ecx
  00044	d1 fa		 sar	 edx, 1
  00046	8b c2		 mov	 eax, edx
  00048	c1 e8 1f	 shr	 eax, 31			; 0000001fH
  0004b	03 c2		 add	 eax, edx

; 1226 :             if (_Newsize > _Oldcapacity) { // reallocate

  0004d	3b f0		 cmp	 esi, eax
  0004f	76 13		 jbe	 SHORT $LN6@resize

; 1227 :                 _Resize_reallocate(_Newsize, _Val);

  00051	8d 45 0b	 lea	 eax, DWORD PTR $T1[ebp]
  00054	8b cf		 mov	 ecx, edi
  00056	50		 push	 eax
  00057	56		 push	 esi
  00058	e8 00 00 00 00	 call	 ??$_Resize_reallocate@U_Value_init_tag@std@@@?$vector@UD3DXVECTOR3@@V?$allocator@UD3DXVECTOR3@@@std@@@std@@AAEXIABU_Value_init_tag@1@@Z ; std::vector<D3DXVECTOR3,std::allocator<D3DXVECTOR3> >::_Resize_reallocate<std::_Value_init_tag>
  0005d	5f		 pop	 edi

; 1241 :         // trim or append value-initialized elements, provide strong guarantee
; 1242 :         _Resize(_Newsize, _Value_init_tag{});
; 1243 :     }

  0005e	5e		 pop	 esi
  0005f	5b		 pop	 ebx
  00060	5d		 pop	 ebp
  00061	c2 04 00	 ret	 4
$LN6@resize:

; 1583 :         return _Uninitialized_value_construct_n(_Dest, _Count, _Getal());

  00064	57		 push	 edi

; 1232 :             _Mylast                = _Ufill(_Oldlast, _Newsize - _Oldsize, _Val);

  00065	2b f3		 sub	 esi, ebx

; 1583 :         return _Uninitialized_value_construct_n(_Dest, _Count, _Getal());

  00067	56		 push	 esi
  00068	ff 77 04	 push	 DWORD PTR [edi+4]
  0006b	e8 00 00 00 00	 call	 ??$_Uninitialized_value_construct_n@V?$allocator@UD3DXVECTOR3@@@std@@@std@@YAPAUD3DXVECTOR3@@PAU1@IAAV?$allocator@UD3DXVECTOR3@@@0@@Z ; std::_Uninitialized_value_construct_n<std::allocator<D3DXVECTOR3> >
  00070	83 c4 0c	 add	 esp, 12			; 0000000cH

; 1241 :         // trim or append value-initialized elements, provide strong guarantee
; 1242 :         _Resize(_Newsize, _Value_init_tag{});
; 1243 :     }

  00073	89 47 04	 mov	 DWORD PTR [edi+4], eax
$LN5@resize:
  00076	5f		 pop	 edi
  00077	5e		 pop	 esi
  00078	5b		 pop	 ebx
  00079	5d		 pop	 ebp
  0007a	c2 04 00	 ret	 4
?resize@?$vector@UD3DXVECTOR3@@V?$allocator@UD3DXVECTOR3@@@std@@@std@@QAEXI@Z ENDP ; std::vector<D3DXVECTOR3,std::allocator<D3DXVECTOR3> >::resize
_TEXT	ENDS
; Function compile flags: /Ogtp
; File C:\Program Files (x86)\Microsoft Visual Studio\2019\Community\VC\Tools\MSVC\14.27.29110\include\vector
; File C:\Program Files (x86)\Microsoft Visual Studio\2019\Community\VC\Tools\MSVC\14.27.29110\include\xmemory
; File C:\Program Files (x86)\Microsoft Visual Studio\2019\Community\VC\Tools\MSVC\14.27.29110\include\vector
; File C:\Program Files (x86)\Microsoft Visual Studio\2019\Community\VC\Tools\MSVC\14.27.29110\include\xmemory
; File C:\Program Files (x86)\Microsoft Visual Studio\2019\Community\VC\Tools\MSVC\14.27.29110\include\vector
;	COMDAT ??1?$vector@UD3DXVECTOR3@@V?$allocator@UD3DXVECTOR3@@@std@@@std@@QAE@XZ
_TEXT	SEGMENT
??1?$vector@UD3DXVECTOR3@@V?$allocator@UD3DXVECTOR3@@@std@@@std@@QAE@XZ PROC ; std::vector<D3DXVECTOR3,std::allocator<D3DXVECTOR3> >::~vector<D3DXVECTOR3,std::allocator<D3DXVECTOR3> >, COMDAT
; _this$ = ecx

; 672  :     ~vector() noexcept {

  00000	56		 push	 esi
  00001	8b f1		 mov	 esi, ecx

; 1693 :         if (_Myfirst) { // destroy and deallocate old array

  00003	8b 0e		 mov	 ecx, DWORD PTR [esi]
  00005	85 c9		 test	 ecx, ecx
  00007	74 39		 je	 SHORT $LN4@vector

; 1694 :             _Destroy(_Myfirst, _Mylast);
; 1695 :             _Getal().deallocate(_Myfirst, static_cast<size_type>(_Myend - _Myfirst));

  00009	8b 56 08	 mov	 edx, DWORD PTR [esi+8]
  0000c	b8 ab aa aa 2a	 mov	 eax, 715827883		; 2aaaaaabH
  00011	2b d1		 sub	 edx, ecx
  00013	f7 ea		 imul	 edx
  00015	d1 fa		 sar	 edx, 1
  00017	8b c2		 mov	 eax, edx
  00019	c1 e8 1f	 shr	 eax, 31			; 0000001fH
  0001c	03 c2		 add	 eax, edx
; File C:\Program Files (x86)\Microsoft Visual Studio\2019\Community\VC\Tools\MSVC\14.27.29110\include\xmemory

; 803  :         _Deallocate<_New_alignof<_Ty>>(_Ptr, sizeof(_Ty) * _Count);

  0001e	8d 04 40	 lea	 eax, DWORD PTR [eax+eax*2]
  00021	c1 e0 02	 shl	 eax, 2
  00024	50		 push	 eax
  00025	51		 push	 ecx
  00026	e8 00 00 00 00	 call	 ??$_Deallocate@$07$0A@@std@@YAXPAXI@Z ; std::_Deallocate<8,0>
; File C:\Program Files (x86)\Microsoft Visual Studio\2019\Community\VC\Tools\MSVC\14.27.29110\include\vector

; 1697 :             _Myfirst = pointer();

  0002b	c7 06 00 00 00
	00		 mov	 DWORD PTR [esi], 0
; File C:\Program Files (x86)\Microsoft Visual Studio\2019\Community\VC\Tools\MSVC\14.27.29110\include\xmemory

; 803  :         _Deallocate<_New_alignof<_Ty>>(_Ptr, sizeof(_Ty) * _Count);

  00031	83 c4 08	 add	 esp, 8
; File C:\Program Files (x86)\Microsoft Visual Studio\2019\Community\VC\Tools\MSVC\14.27.29110\include\vector

; 1698 :             _Mylast  = pointer();

  00034	c7 46 04 00 00
	00 00		 mov	 DWORD PTR [esi+4], 0

; 1699 :             _Myend   = pointer();

  0003b	c7 46 08 00 00
	00 00		 mov	 DWORD PTR [esi+8], 0
$LN4@vector:
  00042	5e		 pop	 esi

; 673  :         _Tidy();
; 674  : #if _ITERATOR_DEBUG_LEVEL != 0
; 675  :         auto&& _Alproxy = _GET_PROXY_ALLOCATOR(_Alty, _Getal());
; 676  :         _Delete_plain_internal(_Alproxy, _STD exchange(_Mypair._Myval2._Myproxy, nullptr));
; 677  : #endif // _ITERATOR_DEBUG_LEVEL != 0
; 678  :     }

  00043	c3		 ret	 0
??1?$vector@UD3DXVECTOR3@@V?$allocator@UD3DXVECTOR3@@@std@@@std@@QAE@XZ ENDP ; std::vector<D3DXVECTOR3,std::allocator<D3DXVECTOR3> >::~vector<D3DXVECTOR3,std::allocator<D3DXVECTOR3> >
_TEXT	ENDS
; Function compile flags: /Ogtp
;	COMDAT ??_GCScreen@@UAEPAXI@Z
_TEXT	SEGMENT
___flags$ = 8						; size = 4
??_GCScreen@@UAEPAXI@Z PROC				; CScreen::`scalar deleting destructor', COMDAT
; _this$ = ecx
  00000	55		 push	 ebp
  00001	8b ec		 mov	 ebp, esp
  00003	56		 push	 esi
  00004	8b f1		 mov	 esi, ecx
  00006	e8 00 00 00 00	 call	 ??1CScreen@@UAE@XZ	; CScreen::~CScreen
  0000b	f6 45 08 01	 test	 BYTE PTR ___flags$[ebp], 1
  0000f	74 0b		 je	 SHORT $LN4@scalar
  00011	6a 04		 push	 4
  00013	56		 push	 esi
  00014	e8 00 00 00 00	 call	 ??3@YAXPAXI@Z		; operator delete
  00019	83 c4 08	 add	 esp, 8
$LN4@scalar:
  0001c	8b c6		 mov	 eax, esi
  0001e	5e		 pop	 esi
  0001f	5d		 pop	 ebp
  00020	c2 04 00	 ret	 4
??_GCScreen@@UAEPAXI@Z ENDP				; CScreen::`scalar deleting destructor'
_TEXT	ENDS
; Function compile flags: /Ogtp
; File C:\DS Project\DS Files\Source\ClientSource\Client\EterLib\GrpScreen.cpp
;	COMDAT ?Identity@CScreen@@SAXXZ
_TEXT	SEGMENT
?Identity@CScreen@@SAXXZ PROC				; CScreen::Identity, COMDAT

; 832  : 	STATEMANAGER.SetTransform(D3DTS_WORLD, &ms_matIdentity);

  00000	8b 0d 00 00 00
	00		 mov	 ecx, DWORD PTR ?ms_singleton@?$CSingleton@VCStateManager@@@@0PAVCStateManager@@A ; CSingleton<CStateManager>::ms_singleton
  00006	68 00 00 00 00	 push	 OFFSET ?ms_matIdentity@CGraphicBase@@1UD3DXMATRIX@@A ; CGraphicBase::ms_matIdentity
  0000b	68 00 01 00 00	 push	 256			; 00000100H
  00010	e8 00 00 00 00	 call	 ?SetTransform@CStateManager@@QAEXW4_D3DTRANSFORMSTATETYPE@@PBU_D3DMATRIX@@@Z ; CStateManager::SetTransform

; 833  : }

  00015	c3		 ret	 0
?Identity@CScreen@@SAXXZ ENDP				; CScreen::Identity
_TEXT	ENDS
; Function compile flags: /Ogtp
; File C:\DS Project\DS Files\Source\ClientSource\Client\EterLib\GrpScreen.cpp
; File C:\DS Project\DS Files\Source\ClientSource\extern\include\d3dx8math.inl
; File C:\DS Project\DS Files\Source\ClientSource\Client\EterLib\GrpScreen.cpp
; File C:\DS Project\DS Files\Source\ClientSource\extern\include\d3dx8math.inl
; File C:\DS Project\DS Files\Source\ClientSource\Client\EterLib\GrpScreen.cpp
;	COMDAT ?BuildViewFrustum@CScreen@@QAEXXZ
_TEXT	SEGMENT
$T1 = -68						; size = 64
__$ArrayPad$ = -4					; size = 4
?BuildViewFrustum@CScreen@@QAEXXZ PROC			; CScreen::BuildViewFrustum, COMDAT
; _this$ = ecx

; 845  : {

  00000	55		 push	 ebp
  00001	8b ec		 mov	 ebp, esp
  00003	83 ec 44	 sub	 esp, 68			; 00000044H
  00006	a1 00 00 00 00	 mov	 eax, DWORD PTR ___security_cookie
  0000b	33 c5		 xor	 eax, ebp
  0000d	89 45 fc	 mov	 DWORD PTR __$ArrayPad$[ebp], eax

; 846  : 	const D3DXVECTOR3& c_rv3Eye=CCameraManager::Instance().GetCurrentCamera()->GetEye();

  00010	8b 0d 00 00 00
	00		 mov	 ecx, DWORD PTR ?ms_singleton@?$CSingleton@VCCameraManager@@@@0PAVCCameraManager@@A ; CSingleton<CCameraManager>::ms_singleton
  00016	56		 push	 esi
  00017	57		 push	 edi
  00018	e8 00 00 00 00	 call	 ?GetCurrentCamera@CCameraManager@@QAEPAVCCamera@@XZ ; CCameraManager::GetCurrentCamera

; 847  : 	const D3DXVECTOR3& c_rv3View=CCameraManager::Instance().GetCurrentCamera()->GetView();

  0001d	8b 0d 00 00 00
	00		 mov	 ecx, DWORD PTR ?ms_singleton@?$CSingleton@VCCameraManager@@@@0PAVCCameraManager@@A ; CSingleton<CCameraManager>::ms_singleton
  00023	8d 78 30	 lea	 edi, DWORD PTR [eax+48]
  00026	e8 00 00 00 00	 call	 ?GetCurrentCamera@CCameraManager@@QAEPAVCCamera@@XZ ; CCameraManager::GetCurrentCamera
; File C:\DS Project\DS Files\Source\ClientSource\extern\include\d3dx8math.inl

; 580  :     D3DXMatrixMultiply(&matT, this, &mat);

  0002b	68 00 00 00 00	 push	 OFFSET ?ms_matProj@CGraphicBase@@1UD3DXMATRIX@@A ; CGraphicBase::ms_matProj
  00030	68 00 00 00 00	 push	 OFFSET ?ms_matView@CGraphicBase@@1UD3DXMATRIX@@A ; CGraphicBase::ms_matView
; File C:\DS Project\DS Files\Source\ClientSource\Client\EterLib\GrpScreen.cpp

; 847  : 	const D3DXVECTOR3& c_rv3View=CCameraManager::Instance().GetCurrentCamera()->GetView();

  00035	8d 70 54	 lea	 esi, DWORD PTR [eax+84]
; File C:\DS Project\DS Files\Source\ClientSource\extern\include\d3dx8math.inl

; 580  :     D3DXMatrixMultiply(&matT, this, &mat);

  00038	8d 45 bc	 lea	 eax, DWORD PTR $T1[ebp]
  0003b	50		 push	 eax
  0003c	e8 00 00 00 00	 call	 _D3DXMatrixMultiply@12
; File C:\DS Project\DS Files\Source\ClientSource\Client\EterLib\GrpScreen.cpp

; 848  : 	 ms_frustum.BuildViewFrustum2(

  00041	f3 0f 10 05 00
	00 00 00	 movss	 xmm0, DWORD PTR ?ms_fAspect@CGraphicBase@@1MA
  00049	8d 45 bc	 lea	 eax, DWORD PTR $T1[ebp]
  0004c	56		 push	 esi
  0004d	57		 push	 edi
  0004e	83 ec 10	 sub	 esp, 16			; 00000010H
  00051	b9 00 00 00 00	 mov	 ecx, OFFSET ?ms_frustum@CScreen@@1VFrustum@@A ; CScreen::ms_frustum
  00056	f3 0f 11 44 24
	0c		 movss	 DWORD PTR [esp+12], xmm0
  0005c	f3 0f 10 05 00
	00 00 00	 movss	 xmm0, DWORD PTR ?ms_fFieldOfView@CGraphicBase@@1MA
  00064	f3 0f 11 44 24
	08		 movss	 DWORD PTR [esp+8], xmm0
  0006a	f3 0f 10 05 00
	00 00 00	 movss	 xmm0, DWORD PTR ?ms_fFarY@CGraphicBase@@1MA
  00072	f3 0f 11 44 24
	04		 movss	 DWORD PTR [esp+4], xmm0
  00078	f3 0f 10 05 00
	00 00 00	 movss	 xmm0, DWORD PTR ?ms_fNearY@CGraphicBase@@1MA
  00080	f3 0f 11 04 24	 movss	 DWORD PTR [esp], xmm0
  00085	50		 push	 eax
  00086	e8 00 00 00 00	 call	 ?BuildViewFrustum2@Frustum@@QAEXAAUD3DXMATRIX@@MMMMABUD3DXVECTOR3@@1@Z ; Frustum::BuildViewFrustum2

; 849  : 		 ms_matView*ms_matProj,
; 850  : 		 ms_fNearY,
; 851  : 		 ms_fFarY,
; 852  : 		 ms_fFieldOfView,
; 853  : 		 ms_fAspect,
; 854  : 		 c_rv3Eye, c_rv3View);
; 855  : }

  0008b	8b 4d fc	 mov	 ecx, DWORD PTR __$ArrayPad$[ebp]
  0008e	5f		 pop	 edi
  0008f	33 cd		 xor	 ecx, ebp
  00091	5e		 pop	 esi
  00092	e8 00 00 00 00	 call	 @__security_check_cookie@4
  00097	8b e5		 mov	 esp, ebp
  00099	5d		 pop	 ebp
  0009a	c3		 ret	 0
?BuildViewFrustum@CScreen@@QAEXXZ ENDP			; CScreen::BuildViewFrustum
_TEXT	ENDS
; Function compile flags: /Ogtp
; File C:\DS Project\DS Files\Source\ClientSource\Client\EterLib\GrpScreen.cpp
;	COMDAT ?RestoreDevice@CScreen@@QAEHXZ
_TEXT	SEGMENT
_iD3DAdapterInfo$1$ = -4				; size = 4
?RestoreDevice@CScreen@@QAEHXZ PROC			; CScreen::RestoreDevice, COMDAT
; _this$ = ecx

; 640  : {

  00000	55		 push	 ebp
  00001	8b ec		 mov	 ebp, esp
  00003	51		 push	 ecx
  00004	53		 push	 ebx
  00005	56		 push	 esi

; 641  : 	if (!ms_lpd3dDevice)

  00006	8b 35 00 00 00
	00		 mov	 esi, DWORD PTR ?ms_lpd3dDevice@CGraphicBase@@1PAUIDirect3DDevice8@@A ; CGraphicBase::ms_lpd3dDevice
  0000c	57		 push	 edi
  0000d	85 f6		 test	 esi, esi
  0000f	74 7f		 je	 SHORT $LN10@RestoreDev

; 642  : 		return FALSE;
; 643  : 
; 644  : 	UINT iD3DAdapterInfo = ms_iD3DAdapterInfo;

  00011	a1 00 00 00 00	 mov	 eax, DWORD PTR ?ms_iD3DAdapterInfo@CGraphicBase@@1IA ; CGraphicBase::ms_iD3DAdapterInfo

; 645  : 	IDirect3D8 & rkD3D = *ms_lpd3d;

  00016	8b 1d 00 00 00
	00		 mov	 ebx, DWORD PTR ?ms_lpd3d@CGraphicBase@@1PAUIDirect3D8@@A ; CGraphicBase::ms_lpd3d
  0001c	89 45 fc	 mov	 DWORD PTR _iD3DAdapterInfo$1$[ebp], eax

; 646  : 	IDirect3DDevice8 & rkD3DDev = *ms_lpd3dDevice;
; 647  : 	D3DPRESENT_PARAMETERS & rkD3DPP = ms_d3dPresentParameter;
; 648  : 	D3D_CDisplayModeAutoDetector & rkD3DDetector = ms_kD3DDetector;
; 649  : 
; 650  : 	HRESULT hrTestCooperativeLevel = rkD3DDev.TestCooperativeLevel();

  0001f	8b 06		 mov	 eax, DWORD PTR [esi]
  00021	56		 push	 esi
  00022	ff 50 0c	 call	 DWORD PTR [eax+12]

; 651  : 
; 652  : 	if (FAILED(hrTestCooperativeLevel))

  00025	85 c0		 test	 eax, eax
  00027	79 5b		 jns	 SHORT $LN5@RestoreDev

; 653  : 	{
; 654  : 		if (D3DERR_DEVICELOST == hrTestCooperativeLevel)

  00029	3d 68 08 76 88	 cmp	 eax, -2005530520	; 88760868H
  0002e	74 60		 je	 SHORT $LN10@RestoreDev

; 655  : 		{
; 656  : 			return FALSE;
; 657  : 		}
; 658  : 
; 659  : 		if (D3DERR_DEVICENOTRESET == hrTestCooperativeLevel)

  00030	3d 69 08 76 88	 cmp	 eax, -2005530519	; 88760869H
  00035	75 4d		 jne	 SHORT $LN5@RestoreDev

; 660  : 		{
; 661  : 			D3D_CAdapterInfo* pkD3DAdapterInfo = rkD3DDetector.GetD3DAdapterInfop(ms_iD3DAdapterInfo);

  00037	ff 35 00 00 00
	00		 push	 DWORD PTR ?ms_iD3DAdapterInfo@CGraphicBase@@1IA ; CGraphicBase::ms_iD3DAdapterInfo
  0003d	b9 00 00 00 00	 mov	 ecx, OFFSET ?ms_kD3DDetector@CGraphicBase@@1VD3D_CDisplayModeAutoDetector@@A ; CGraphicBase::ms_kD3DDetector
  00042	e8 00 00 00 00	 call	 ?GetD3DAdapterInfop@D3D_CDisplayModeAutoDetector@@QAEPAVD3D_CAdapterInfo@@I@Z ; D3D_CDisplayModeAutoDetector::GetD3DAdapterInfop

; 662  : 
; 663  : 			if (!pkD3DAdapterInfo)

  00047	85 c0		 test	 eax, eax
  00049	74 45		 je	 SHORT $LN10@RestoreDev

; 664  : 				return FALSE;
; 665  : 
; 666  : 			D3DDISPLAYMODE & rkD3DDMDesktop = pkD3DAdapterInfo->GetDesktopD3DDisplayModer();

  0004b	8b c8		 mov	 ecx, eax
  0004d	e8 00 00 00 00	 call	 ?GetDesktopD3DDisplayModer@D3D_CAdapterInfo@@QAEAAU_D3DDISPLAYMODE@@XZ ; D3D_CAdapterInfo::GetDesktopD3DDisplayModer

; 667  : 
; 668  : 			if (FAILED(rkD3D.GetAdapterDisplayMode(iD3DAdapterInfo, &rkD3DDMDesktop)))

  00052	8b 0b		 mov	 ecx, DWORD PTR [ebx]
  00054	8b f8		 mov	 edi, eax
  00056	57		 push	 edi
  00057	ff 75 fc	 push	 DWORD PTR _iD3DAdapterInfo$1$[ebp]
  0005a	53		 push	 ebx
  0005b	ff 51 20	 call	 DWORD PTR [ecx+32]
  0005e	85 c0		 test	 eax, eax
  00060	78 2e		 js	 SHORT $LN10@RestoreDev

; 669  : 				return FALSE;
; 670  : 
; 671  : 			rkD3DPP.BackBufferFormat = rkD3DDMDesktop.Format;

  00062	8b 47 0c	 mov	 eax, DWORD PTR [edi+12]
  00065	a3 08 00 00 00	 mov	 DWORD PTR ?ms_d3dPresentParameter@CGraphicBase@@1U_D3DPRESENT_PARAMETERS_@@A+8, eax

; 672  : 
; 673  : 			HRESULT hrReset = rkD3DDev.Reset(&rkD3DPP);

  0006a	8b 06		 mov	 eax, DWORD PTR [esi]
  0006c	68 00 00 00 00	 push	 OFFSET ?ms_d3dPresentParameter@CGraphicBase@@1U_D3DPRESENT_PARAMETERS_@@A ; CGraphicBase::ms_d3dPresentParameter
  00071	56		 push	 esi
  00072	ff 50 38	 call	 DWORD PTR [eax+56]

; 674  : 
; 675  : 			if (FAILED(hrReset))

  00075	85 c0		 test	 eax, eax
  00077	78 17		 js	 SHORT $LN10@RestoreDev

; 676  : 			{
; 677  : 				return FALSE;
; 678  : 			}
; 679  : 
; 680  : 			STATEMANAGER.SetDefaultState();

  00079	8b 0d 00 00 00
	00		 mov	 ecx, DWORD PTR ?ms_singleton@?$CSingleton@VCStateManager@@@@0PAVCStateManager@@A ; CSingleton<CStateManager>::ms_singleton
  0007f	e8 00 00 00 00	 call	 ?SetDefaultState@CStateManager@@QAEXXZ ; CStateManager::SetDefaultState
$LN5@RestoreDev:

; 681  : 		}
; 682  : 	}
; 683  : 
; 684  : 	return TRUE;
; 685  : 
; 686  : }

  00084	5f		 pop	 edi
  00085	5e		 pop	 esi
  00086	b8 01 00 00 00	 mov	 eax, 1
  0008b	5b		 pop	 ebx
  0008c	8b e5		 mov	 esp, ebp
  0008e	5d		 pop	 ebp
  0008f	c3		 ret	 0
$LN10@RestoreDev:
  00090	5f		 pop	 edi
  00091	5e		 pop	 esi
  00092	33 c0		 xor	 eax, eax
  00094	5b		 pop	 ebx
  00095	8b e5		 mov	 esp, ebp
  00097	5d		 pop	 ebp
  00098	c3		 ret	 0
?RestoreDevice@CScreen@@QAEHXZ ENDP			; CScreen::RestoreDevice
_TEXT	ENDS
; Function compile flags: /Ogtp
; File C:\DS Project\DS Files\Source\ClientSource\Client\EterLib\GrpScreen.cpp
;	COMDAT ?IsLostDevice@CScreen@@QAEHXZ
_TEXT	SEGMENT
?IsLostDevice@CScreen@@QAEHXZ PROC			; CScreen::IsLostDevice, COMDAT
; _this$ = ecx

; 628  : 	if (!ms_lpd3dDevice)

  00000	8b 0d 00 00 00
	00		 mov	 ecx, DWORD PTR ?ms_lpd3dDevice@CGraphicBase@@1PAUIDirect3DDevice8@@A ; CGraphicBase::ms_lpd3dDevice
  00006	85 c9		 test	 ecx, ecx
  00008	74 0d		 je	 SHORT $LN5@IsLostDevi

; 629  : 		return TRUE;
; 630  : 
; 631  : 	IDirect3DDevice8 & rkD3DDev = *ms_lpd3dDevice;
; 632  : 	HRESULT hrTestCooperativeLevel = rkD3DDev.TestCooperativeLevel();

  0000a	8b 01		 mov	 eax, DWORD PTR [ecx]
  0000c	51		 push	 ecx
  0000d	ff 50 0c	 call	 DWORD PTR [eax+12]

; 633  : 	if (FAILED(hrTestCooperativeLevel))

  00010	85 c0		 test	 eax, eax
  00012	78 03		 js	 SHORT $LN5@IsLostDevi

; 635  : 
; 636  : 	return FALSE;

  00014	33 c0		 xor	 eax, eax

; 637  : }

  00016	c3		 ret	 0
$LN5@IsLostDevi:

; 634  : 		return TRUE;

  00017	b8 01 00 00 00	 mov	 eax, 1

; 637  : }

  0001c	c3		 ret	 0
?IsLostDevice@CScreen@@QAEHXZ ENDP			; CScreen::IsLostDevice
_TEXT	ENDS
; Function compile flags: /Ogtp
; File C:\DS Project\DS Files\Source\ClientSource\Client\EterLib\GrpScreen.cpp
; File C:\DS Project\DS Files\Source\ClientSource\extern\include\d3dx8math.inl
; File C:\DS Project\DS Files\Source\ClientSource\Client\EterLib\GrpScreen.cpp
; File C:\DS Project\DS Files\Source\ClientSource\extern\include\d3dx8math.inl
; File C:\DS Project\DS Files\Source\ClientSource\Client\EterLib\GrpScreen.cpp
; File C:\DS Project\DS Files\Source\ClientSource\extern\include\d3dx8math.inl
; File C:\DS Project\DS Files\Source\ClientSource\Client\EterLib\GrpScreen.cpp
; File C:\DS Project\DS Files\Source\ClientSource\extern\include\d3dx8math.inl
; File C:\DS Project\DS Files\Source\ClientSource\Client\EterLib\GrpScreen.cpp
; File C:\DS Project\DS Files\Source\ClientSource\extern\include\d3dx8math.inl
; File C:\DS Project\DS Files\Source\ClientSource\Client\EterLib\GrpScreen.cpp
;	COMDAT ?UnprojectPosition@CScreen@@QAEXMMMPAM00@Z
_TEXT	SEGMENT
_Output$ = -28						; size = 12
_Input$ = -16						; size = 12
__$ArrayPad$ = -4					; size = 4
_x$ = 8							; size = 4
_y$ = 12						; size = 4
_z$ = 16						; size = 4
_pfX$ = 20						; size = 4
_pfY$ = 24						; size = 4
_pfZ$ = 28						; size = 4
?UnprojectPosition@CScreen@@QAEXMMMPAM00@Z PROC		; CScreen::UnprojectPosition, COMDAT
; _this$ = ecx

; 768  : {

  00000	55		 push	 ebp
  00001	8b ec		 mov	 ebp, esp
  00003	83 ec 1c	 sub	 esp, 28			; 0000001cH
  00006	a1 00 00 00 00	 mov	 eax, DWORD PTR ___security_cookie
  0000b	33 c5		 xor	 eax, ebp
  0000d	89 45 fc	 mov	 DWORD PTR __$ArrayPad$[ebp], eax
; File C:\DS Project\DS Files\Source\ClientSource\extern\include\d3dx8math.inl

; 180  :     x = fx;

  00010	f3 0f 10 45 08	 movss	 xmm0, DWORD PTR _x$[ebp]
; File C:\DS Project\DS Files\Source\ClientSource\Client\EterLib\GrpScreen.cpp

; 771  : 	D3DXVec3Unproject(&Output, &Input, &ms_Viewport, &ms_matProj, &ms_matView, &ms_matWorld);

  00015	8d 45 f0	 lea	 eax, DWORD PTR _Input$[ebp]
  00018	53		 push	 ebx
  00019	8b 5d 1c	 mov	 ebx, DWORD PTR _pfZ$[ebp]
  0001c	56		 push	 esi
  0001d	8b 75 14	 mov	 esi, DWORD PTR _pfX$[ebp]
  00020	57		 push	 edi
  00021	8b 7d 18	 mov	 edi, DWORD PTR _pfY$[ebp]
  00024	68 00 00 00 00	 push	 OFFSET ?ms_matWorld@CGraphicBase@@1UD3DXMATRIX@@A ; CGraphicBase::ms_matWorld
  00029	68 00 00 00 00	 push	 OFFSET ?ms_matView@CGraphicBase@@1UD3DXMATRIX@@A ; CGraphicBase::ms_matView
  0002e	68 00 00 00 00	 push	 OFFSET ?ms_matProj@CGraphicBase@@1UD3DXMATRIX@@A ; CGraphicBase::ms_matProj
; File C:\DS Project\DS Files\Source\ClientSource\extern\include\d3dx8math.inl

; 180  :     x = fx;

  00033	f3 0f 11 45 f0	 movss	 DWORD PTR _Input$[ebp], xmm0

; 181  :     y = fy;

  00038	f3 0f 10 45 0c	 movss	 xmm0, DWORD PTR _y$[ebp]
; File C:\DS Project\DS Files\Source\ClientSource\Client\EterLib\GrpScreen.cpp

; 771  : 	D3DXVec3Unproject(&Output, &Input, &ms_Viewport, &ms_matProj, &ms_matView, &ms_matWorld);

  0003d	68 00 00 00 00	 push	 OFFSET ?ms_Viewport@CGraphicBase@@1U_D3DVIEWPORT8@@A ; CGraphicBase::ms_Viewport
  00042	50		 push	 eax
; File C:\DS Project\DS Files\Source\ClientSource\extern\include\d3dx8math.inl

; 181  :     y = fy;

  00043	f3 0f 11 45 f4	 movss	 DWORD PTR _Input$[ebp+4], xmm0
; File C:\DS Project\DS Files\Source\ClientSource\Client\EterLib\GrpScreen.cpp

; 771  : 	D3DXVec3Unproject(&Output, &Input, &ms_Viewport, &ms_matProj, &ms_matView, &ms_matWorld);

  00048	8d 45 e4	 lea	 eax, DWORD PTR _Output$[ebp]
; File C:\DS Project\DS Files\Source\ClientSource\extern\include\d3dx8math.inl

; 182  :     z = fz;

  0004b	f3 0f 10 45 10	 movss	 xmm0, DWORD PTR _z$[ebp]
; File C:\DS Project\DS Files\Source\ClientSource\Client\EterLib\GrpScreen.cpp

; 771  : 	D3DXVec3Unproject(&Output, &Input, &ms_Viewport, &ms_matProj, &ms_matView, &ms_matWorld);

  00050	50		 push	 eax
; File C:\DS Project\DS Files\Source\ClientSource\extern\include\d3dx8math.inl

; 182  :     z = fz;

  00051	f3 0f 11 45 f8	 movss	 DWORD PTR _Input$[ebp+8], xmm0
; File C:\DS Project\DS Files\Source\ClientSource\Client\EterLib\GrpScreen.cpp

; 771  : 	D3DXVec3Unproject(&Output, &Input, &ms_Viewport, &ms_matProj, &ms_matView, &ms_matWorld);

  00056	e8 00 00 00 00	 call	 _D3DXVec3Unproject@24

; 772  : 
; 773  : 	*pfX = Output.x;

  0005b	f3 0f 10 45 e4	 movss	 xmm0, DWORD PTR _Output$[ebp]

; 774  : 	*pfY = Output.y;
; 775  : 	*pfZ = Output.z;
; 776  : }

  00060	8b 4d fc	 mov	 ecx, DWORD PTR __$ArrayPad$[ebp]
  00063	f3 0f 11 06	 movss	 DWORD PTR [esi], xmm0
  00067	33 cd		 xor	 ecx, ebp
  00069	f3 0f 10 45 e8	 movss	 xmm0, DWORD PTR _Output$[ebp+4]
  0006e	f3 0f 11 07	 movss	 DWORD PTR [edi], xmm0
  00072	f3 0f 10 45 ec	 movss	 xmm0, DWORD PTR _Output$[ebp+8]
  00077	5f		 pop	 edi
  00078	5e		 pop	 esi
  00079	f3 0f 11 03	 movss	 DWORD PTR [ebx], xmm0
  0007d	5b		 pop	 ebx
  0007e	e8 00 00 00 00	 call	 @__security_check_cookie@4
  00083	8b e5		 mov	 esp, ebp
  00085	5d		 pop	 ebp
  00086	c2 18 00	 ret	 24			; 00000018H
?UnprojectPosition@CScreen@@QAEXMMMPAM00@Z ENDP		; CScreen::UnprojectPosition
_TEXT	ENDS
; Function compile flags: /Ogtp
; File C:\DS Project\DS Files\Source\ClientSource\Client\EterLib\GrpScreen.cpp
; File C:\DS Project\DS Files\Source\ClientSource\extern\include\d3dx8math.inl
; File C:\DS Project\DS Files\Source\ClientSource\Client\EterLib\GrpScreen.cpp
; File C:\DS Project\DS Files\Source\ClientSource\extern\include\d3dx8math.inl
; File C:\DS Project\DS Files\Source\ClientSource\Client\EterLib\GrpScreen.cpp
; File C:\DS Project\DS Files\Source\ClientSource\extern\include\d3dx8math.inl
; File C:\DS Project\DS Files\Source\ClientSource\Client\EterLib\GrpScreen.cpp
; File C:\DS Project\DS Files\Source\ClientSource\extern\include\d3dx8math.inl
; File C:\DS Project\DS Files\Source\ClientSource\Client\EterLib\GrpScreen.cpp
; File C:\DS Project\DS Files\Source\ClientSource\extern\include\d3dx8math.inl
; File C:\DS Project\DS Files\Source\ClientSource\Client\EterLib\GrpScreen.cpp
;	COMDAT ?ProjectPosition@CScreen@@QAEXMMMPAM00@Z
_TEXT	SEGMENT
_Output$ = -28						; size = 12
_Input$ = -16						; size = 12
__$ArrayPad$ = -4					; size = 4
_x$ = 8							; size = 4
_y$ = 12						; size = 4
_z$ = 16						; size = 4
_pfX$ = 20						; size = 4
_pfY$ = 24						; size = 4
_pfZ$ = 28						; size = 4
?ProjectPosition@CScreen@@QAEXMMMPAM00@Z PROC		; CScreen::ProjectPosition, COMDAT
; _this$ = ecx

; 757  : {

  00000	55		 push	 ebp
  00001	8b ec		 mov	 ebp, esp
  00003	83 ec 1c	 sub	 esp, 28			; 0000001cH
  00006	a1 00 00 00 00	 mov	 eax, DWORD PTR ___security_cookie
  0000b	33 c5		 xor	 eax, ebp
  0000d	89 45 fc	 mov	 DWORD PTR __$ArrayPad$[ebp], eax
; File C:\DS Project\DS Files\Source\ClientSource\extern\include\d3dx8math.inl

; 180  :     x = fx;

  00010	f3 0f 10 45 08	 movss	 xmm0, DWORD PTR _x$[ebp]
; File C:\DS Project\DS Files\Source\ClientSource\Client\EterLib\GrpScreen.cpp

; 760  : 	D3DXVec3Project(&Output, &Input, &ms_Viewport, &ms_matProj, &ms_matView, &ms_matWorld);

  00015	8d 45 f0	 lea	 eax, DWORD PTR _Input$[ebp]
  00018	53		 push	 ebx
  00019	8b 5d 1c	 mov	 ebx, DWORD PTR _pfZ$[ebp]
  0001c	56		 push	 esi
  0001d	8b 75 14	 mov	 esi, DWORD PTR _pfX$[ebp]
  00020	57		 push	 edi
  00021	8b 7d 18	 mov	 edi, DWORD PTR _pfY$[ebp]
  00024	68 00 00 00 00	 push	 OFFSET ?ms_matWorld@CGraphicBase@@1UD3DXMATRIX@@A ; CGraphicBase::ms_matWorld
  00029	68 00 00 00 00	 push	 OFFSET ?ms_matView@CGraphicBase@@1UD3DXMATRIX@@A ; CGraphicBase::ms_matView
  0002e	68 00 00 00 00	 push	 OFFSET ?ms_matProj@CGraphicBase@@1UD3DXMATRIX@@A ; CGraphicBase::ms_matProj
; File C:\DS Project\DS Files\Source\ClientSource\extern\include\d3dx8math.inl

; 180  :     x = fx;

  00033	f3 0f 11 45 f0	 movss	 DWORD PTR _Input$[ebp], xmm0

; 181  :     y = fy;

  00038	f3 0f 10 45 0c	 movss	 xmm0, DWORD PTR _y$[ebp]
; File C:\DS Project\DS Files\Source\ClientSource\Client\EterLib\GrpScreen.cpp

; 760  : 	D3DXVec3Project(&Output, &Input, &ms_Viewport, &ms_matProj, &ms_matView, &ms_matWorld);

  0003d	68 00 00 00 00	 push	 OFFSET ?ms_Viewport@CGraphicBase@@1U_D3DVIEWPORT8@@A ; CGraphicBase::ms_Viewport
  00042	50		 push	 eax
; File C:\DS Project\DS Files\Source\ClientSource\extern\include\d3dx8math.inl

; 181  :     y = fy;

  00043	f3 0f 11 45 f4	 movss	 DWORD PTR _Input$[ebp+4], xmm0
; File C:\DS Project\DS Files\Source\ClientSource\Client\EterLib\GrpScreen.cpp

; 760  : 	D3DXVec3Project(&Output, &Input, &ms_Viewport, &ms_matProj, &ms_matView, &ms_matWorld);

  00048	8d 45 e4	 lea	 eax, DWORD PTR _Output$[ebp]
; File C:\DS Project\DS Files\Source\ClientSource\extern\include\d3dx8math.inl

; 182  :     z = fz;

  0004b	f3 0f 10 45 10	 movss	 xmm0, DWORD PTR _z$[ebp]
; File C:\DS Project\DS Files\Source\ClientSource\Client\EterLib\GrpScreen.cpp

; 760  : 	D3DXVec3Project(&Output, &Input, &ms_Viewport, &ms_matProj, &ms_matView, &ms_matWorld);

  00050	50		 push	 eax
; File C:\DS Project\DS Files\Source\ClientSource\extern\include\d3dx8math.inl

; 182  :     z = fz;

  00051	f3 0f 11 45 f8	 movss	 DWORD PTR _Input$[ebp+8], xmm0
; File C:\DS Project\DS Files\Source\ClientSource\Client\EterLib\GrpScreen.cpp

; 760  : 	D3DXVec3Project(&Output, &Input, &ms_Viewport, &ms_matProj, &ms_matView, &ms_matWorld);

  00056	e8 00 00 00 00	 call	 _D3DXVec3Project@24

; 761  : 
; 762  : 	*pfX = Output.x;

  0005b	f3 0f 10 45 e4	 movss	 xmm0, DWORD PTR _Output$[ebp]

; 763  : 	*pfY = Output.y;
; 764  : 	*pfZ = Output.z;
; 765  : }

  00060	8b 4d fc	 mov	 ecx, DWORD PTR __$ArrayPad$[ebp]
  00063	f3 0f 11 06	 movss	 DWORD PTR [esi], xmm0
  00067	33 cd		 xor	 ecx, ebp
  00069	f3 0f 10 45 e8	 movss	 xmm0, DWORD PTR _Output$[ebp+4]
  0006e	f3 0f 11 07	 movss	 DWORD PTR [edi], xmm0
  00072	f3 0f 10 45 ec	 movss	 xmm0, DWORD PTR _Output$[ebp+8]
  00077	5f		 pop	 edi
  00078	5e		 pop	 esi
  00079	f3 0f 11 03	 movss	 DWORD PTR [ebx], xmm0
  0007d	5b		 pop	 ebx
  0007e	e8 00 00 00 00	 call	 @__security_check_cookie@4
  00083	8b e5		 mov	 esp, ebp
  00085	5d		 pop	 ebp
  00086	c2 18 00	 ret	 24			; 00000018H
?ProjectPosition@CScreen@@QAEXMMMPAM00@Z ENDP		; CScreen::ProjectPosition
_TEXT	ENDS
; Function compile flags: /Ogtp
; File C:\DS Project\DS Files\Source\ClientSource\Client\EterLib\GrpScreen.cpp
; File C:\DS Project\DS Files\Source\ClientSource\extern\include\d3dx8math.inl
; File C:\DS Project\DS Files\Source\ClientSource\Client\EterLib\GrpScreen.cpp
; File C:\DS Project\DS Files\Source\ClientSource\extern\include\d3dx8math.inl
; File C:\DS Project\DS Files\Source\ClientSource\Client\EterLib\GrpScreen.cpp
; File C:\DS Project\DS Files\Source\ClientSource\extern\include\d3dx8math.inl
; File C:\DS Project\DS Files\Source\ClientSource\Client\EterLib\GrpScreen.cpp
; File C:\DS Project\DS Files\Source\ClientSource\extern\include\d3dx8math.inl
; File C:\DS Project\DS Files\Source\ClientSource\Client\EterLib\GrpScreen.cpp
; File C:\DS Project\DS Files\Source\ClientSource\extern\include\d3dx8math.inl
; File C:\DS Project\DS Files\Source\ClientSource\Client\EterLib\GrpScreen.cpp
;	COMDAT ?ProjectPosition@CScreen@@QAEXMMMPAM0@Z
_TEXT	SEGMENT
_Output$ = -28						; size = 12
_Input$ = -16						; size = 12
__$ArrayPad$ = -4					; size = 4
_x$ = 8							; size = 4
_y$ = 12						; size = 4
_z$ = 16						; size = 4
_pfX$ = 20						; size = 4
_pfY$ = 24						; size = 4
?ProjectPosition@CScreen@@QAEXMMMPAM0@Z PROC		; CScreen::ProjectPosition, COMDAT
; _this$ = ecx

; 747  : {

  00000	55		 push	 ebp
  00001	8b ec		 mov	 ebp, esp
  00003	83 ec 1c	 sub	 esp, 28			; 0000001cH
  00006	a1 00 00 00 00	 mov	 eax, DWORD PTR ___security_cookie
  0000b	33 c5		 xor	 eax, ebp
  0000d	89 45 fc	 mov	 DWORD PTR __$ArrayPad$[ebp], eax
; File C:\DS Project\DS Files\Source\ClientSource\extern\include\d3dx8math.inl

; 180  :     x = fx;

  00010	f3 0f 10 45 08	 movss	 xmm0, DWORD PTR _x$[ebp]
; File C:\DS Project\DS Files\Source\ClientSource\Client\EterLib\GrpScreen.cpp

; 750  : 	D3DXVec3Project(&Output, &Input, &ms_Viewport, &ms_matProj, &ms_matView, &ms_matWorld);

  00015	8d 45 f0	 lea	 eax, DWORD PTR _Input$[ebp]
  00018	56		 push	 esi
  00019	8b 75 14	 mov	 esi, DWORD PTR _pfX$[ebp]
  0001c	57		 push	 edi
  0001d	8b 7d 18	 mov	 edi, DWORD PTR _pfY$[ebp]
  00020	68 00 00 00 00	 push	 OFFSET ?ms_matWorld@CGraphicBase@@1UD3DXMATRIX@@A ; CGraphicBase::ms_matWorld
  00025	68 00 00 00 00	 push	 OFFSET ?ms_matView@CGraphicBase@@1UD3DXMATRIX@@A ; CGraphicBase::ms_matView
  0002a	68 00 00 00 00	 push	 OFFSET ?ms_matProj@CGraphicBase@@1UD3DXMATRIX@@A ; CGraphicBase::ms_matProj
; File C:\DS Project\DS Files\Source\ClientSource\extern\include\d3dx8math.inl

; 180  :     x = fx;

  0002f	f3 0f 11 45 f0	 movss	 DWORD PTR _Input$[ebp], xmm0

; 181  :     y = fy;

  00034	f3 0f 10 45 0c	 movss	 xmm0, DWORD PTR _y$[ebp]
; File C:\DS Project\DS Files\Source\ClientSource\Client\EterLib\GrpScreen.cpp

; 750  : 	D3DXVec3Project(&Output, &Input, &ms_Viewport, &ms_matProj, &ms_matView, &ms_matWorld);

  00039	68 00 00 00 00	 push	 OFFSET ?ms_Viewport@CGraphicBase@@1U_D3DVIEWPORT8@@A ; CGraphicBase::ms_Viewport
  0003e	50		 push	 eax
; File C:\DS Project\DS Files\Source\ClientSource\extern\include\d3dx8math.inl

; 181  :     y = fy;

  0003f	f3 0f 11 45 f4	 movss	 DWORD PTR _Input$[ebp+4], xmm0
; File C:\DS Project\DS Files\Source\ClientSource\Client\EterLib\GrpScreen.cpp

; 750  : 	D3DXVec3Project(&Output, &Input, &ms_Viewport, &ms_matProj, &ms_matView, &ms_matWorld);

  00044	8d 45 e4	 lea	 eax, DWORD PTR _Output$[ebp]
; File C:\DS Project\DS Files\Source\ClientSource\extern\include\d3dx8math.inl

; 182  :     z = fz;

  00047	f3 0f 10 45 10	 movss	 xmm0, DWORD PTR _z$[ebp]
; File C:\DS Project\DS Files\Source\ClientSource\Client\EterLib\GrpScreen.cpp

; 750  : 	D3DXVec3Project(&Output, &Input, &ms_Viewport, &ms_matProj, &ms_matView, &ms_matWorld);

  0004c	50		 push	 eax
; File C:\DS Project\DS Files\Source\ClientSource\extern\include\d3dx8math.inl

; 182  :     z = fz;

  0004d	f3 0f 11 45 f8	 movss	 DWORD PTR _Input$[ebp+8], xmm0
; File C:\DS Project\DS Files\Source\ClientSource\Client\EterLib\GrpScreen.cpp

; 750  : 	D3DXVec3Project(&Output, &Input, &ms_Viewport, &ms_matProj, &ms_matView, &ms_matWorld);

  00052	e8 00 00 00 00	 call	 _D3DXVec3Project@24

; 751  : 
; 752  : 	*pfX = Output.x;

  00057	f3 0f 10 45 e4	 movss	 xmm0, DWORD PTR _Output$[ebp]

; 753  : 	*pfY = Output.y;
; 754  : }

  0005c	8b 4d fc	 mov	 ecx, DWORD PTR __$ArrayPad$[ebp]
  0005f	f3 0f 11 06	 movss	 DWORD PTR [esi], xmm0
  00063	33 cd		 xor	 ecx, ebp
  00065	f3 0f 10 45 e8	 movss	 xmm0, DWORD PTR _Output$[ebp+4]
  0006a	f3 0f 11 07	 movss	 DWORD PTR [edi], xmm0
  0006e	5f		 pop	 edi
  0006f	5e		 pop	 esi
  00070	e8 00 00 00 00	 call	 @__security_check_cookie@4
  00075	8b e5		 mov	 esp, ebp
  00077	5d		 pop	 ebp
  00078	c2 14 00	 ret	 20			; 00000014H
?ProjectPosition@CScreen@@QAEXMMMPAM0@Z ENDP		; CScreen::ProjectPosition
_TEXT	ENDS
; Function compile flags: /Ogtp
; File C:\DS Project\DS Files\Source\ClientSource\Client\EterLib\GrpScreen.cpp
;	COMDAT ?GetPickingPosition@CScreen@@QAEXMPAM00@Z
_TEXT	SEGMENT
_t$ = 8							; size = 4
_x$ = 12						; size = 4
_y$ = 16						; size = 4
_z$ = 20						; size = 4
?GetPickingPosition@CScreen@@QAEXMPAM00@Z PROC		; CScreen::GetPickingPosition, COMDAT
; _this$ = ecx

; 583  : {

  00000	55		 push	 ebp
  00001	8b ec		 mov	 ebp, esp

; 584  : 	*x = ms_vtPickRayOrig.x + ms_vtPickRayDir.x * t;

  00003	f3 0f 10 05 00
	00 00 00	 movss	 xmm0, DWORD PTR ?ms_vtPickRayDir@CGraphicBase@@1UD3DXVECTOR3@@A
  0000b	f3 0f 10 4d 08	 movss	 xmm1, DWORD PTR _t$[ebp]
  00010	8b 45 0c	 mov	 eax, DWORD PTR _x$[ebp]
  00013	f3 0f 59 c1	 mulss	 xmm0, xmm1
  00017	f3 0f 58 05 00
	00 00 00	 addss	 xmm0, DWORD PTR ?ms_vtPickRayOrig@CGraphicBase@@1UD3DXVECTOR3@@A
  0001f	f3 0f 11 00	 movss	 DWORD PTR [eax], xmm0

; 585  : 	*y = ms_vtPickRayOrig.y + ms_vtPickRayDir.y * t;

  00023	f3 0f 10 05 04
	00 00 00	 movss	 xmm0, DWORD PTR ?ms_vtPickRayDir@CGraphicBase@@1UD3DXVECTOR3@@A+4
  0002b	8b 45 10	 mov	 eax, DWORD PTR _y$[ebp]
  0002e	f3 0f 59 c1	 mulss	 xmm0, xmm1
  00032	f3 0f 58 05 04
	00 00 00	 addss	 xmm0, DWORD PTR ?ms_vtPickRayOrig@CGraphicBase@@1UD3DXVECTOR3@@A+4
  0003a	f3 0f 11 00	 movss	 DWORD PTR [eax], xmm0

; 586  : 	*z = ms_vtPickRayOrig.z + ms_vtPickRayDir.z * t;

  0003e	f3 0f 10 05 08
	00 00 00	 movss	 xmm0, DWORD PTR ?ms_vtPickRayDir@CGraphicBase@@1UD3DXVECTOR3@@A+8
  00046	8b 45 14	 mov	 eax, DWORD PTR _z$[ebp]
  00049	f3 0f 59 c1	 mulss	 xmm0, xmm1
  0004d	f3 0f 58 05 08
	00 00 00	 addss	 xmm0, DWORD PTR ?ms_vtPickRayOrig@CGraphicBase@@1UD3DXVECTOR3@@A+8
  00055	f3 0f 11 00	 movss	 DWORD PTR [eax], xmm0

; 587  : }

  00059	5d		 pop	 ebp
  0005a	c2 10 00	 ret	 16			; 00000010H
?GetPickingPosition@CScreen@@QAEXMPAM00@Z ENDP		; CScreen::GetPickingPosition
_TEXT	ENDS
; Function compile flags: /Ogtp
; File C:\DS Project\DS Files\Source\ClientSource\Client\EterLib\GrpScreen.cpp
; File C:\DS Project\DS Files\Source\ClientSource\extern\include\d3dx8math.inl
; File C:\DS Project\DS Files\Source\ClientSource\Client\EterLib\GrpScreen.cpp
; File C:\DS Project\DS Files\Source\ClientSource\extern\include\d3dx8math.inl
; File C:\DS Project\DS Files\Source\ClientSource\Client\EterLib\GrpScreen.cpp
; File C:\DS Project\DS Files\Source\ClientSource\extern\include\d3dx8math.inl
; File C:\DS Project\DS Files\Source\ClientSource\Client\EterLib\GrpScreen.cpp
; File C:\DS Project\DS Files\Source\ClientSource\extern\include\d3dx8math.inl
; File C:\DS Project\DS Files\Source\ClientSource\Client\EterLib\GrpScreen.cpp
; File C:\DS Project\DS Files\Source\ClientSource\extern\include\d3dx8math.inl
; File C:\DS Project\DS Files\Source\ClientSource\Client\EterLib\GrpScreen.cpp
;	COMDAT ?GetCursorZPosition@CScreen@@QAE_NPAM@Z
_TEXT	SEGMENT
_u$ = -76						; size = 4
_v$ = -72						; size = 4
_t$ = -68						; size = 4
$T1 = -64						; size = 12
$T2 = -64						; size = 12
$T3 = -64						; size = 12
$T4 = -64						; size = 12
_v3Eye$ = -64						; size = 12
_posVertices$ = -52					; size = 48
__$ArrayPad$ = -4					; size = 4
_pz$ = 8						; size = 4
?GetCursorZPosition@CScreen@@QAE_NPAM@Z PROC		; CScreen::GetCursorZPosition, COMDAT
; _this$ = ecx

; 555  : {

  00000	55		 push	 ebp
  00001	8b ec		 mov	 ebp, esp
  00003	83 ec 4c	 sub	 esp, 76			; 0000004cH
  00006	a1 00 00 00 00	 mov	 eax, DWORD PTR ___security_cookie
  0000b	33 c5		 xor	 eax, ebp
  0000d	89 45 fc	 mov	 DWORD PTR __$ArrayPad$[ebp], eax
  00010	53		 push	 ebx
  00011	8b 5d 08	 mov	 ebx, DWORD PTR _pz$[ebp]
  00014	56		 push	 esi
  00015	57		 push	 edi
  00016	8b f9		 mov	 edi, ecx

; 556  : 	D3DXVECTOR3 v3Eye = CCameraManager::Instance().GetCurrentCamera()->GetEye();

  00018	8b 0d 00 00 00
	00		 mov	 ecx, DWORD PTR ?ms_singleton@?$CSingleton@VCCameraManager@@@@0PAVCCameraManager@@A ; CSingleton<CCameraManager>::ms_singleton
  0001e	e8 00 00 00 00	 call	 ?GetCurrentCamera@CCameraManager@@QAEPAVCCamera@@XZ ; CCameraManager::GetCurrentCamera

; 559  : 	posVertices[0] = TPosition(v3Eye.x-90000000.0f, 0.0f, v3Eye.z+90000000.0f);

  00023	f3 0f 10 1d 00
	00 00 00	 movss	 xmm3, DWORD PTR __real@4caba950
  0002b	0f 57 ed	 xorps	 xmm5, xmm5
; File C:\DS Project\DS Files\Source\ClientSource\extern\include\d3dx8math.inl

; 180  :     x = fx;

  0002e	be 02 00 00 00	 mov	 esi, OFFSET ?sc_awFillRectIndices@?1??GetCursorZPosition@CScreen@@QAE_NPAM@Z@4QBGB+2
; File C:\DS Project\DS Files\Source\ClientSource\Client\EterLib\GrpScreen.cpp

; 556  : 	D3DXVECTOR3 v3Eye = CCameraManager::Instance().GetCurrentCamera()->GetEye();

  00033	f3 0f 7e 40 30	 movq	 xmm0, QWORD PTR [eax+48]
  00038	8b 40 38	 mov	 eax, DWORD PTR [eax+56]
  0003b	66 0f d6 45 c0	 movq	 QWORD PTR _v3Eye$[ebp], xmm0

; 559  : 	posVertices[0] = TPosition(v3Eye.x-90000000.0f, 0.0f, v3Eye.z+90000000.0f);

  00040	f3 0f 10 75 c0	 movss	 xmm6, DWORD PTR _v3Eye$[ebp]
  00045	89 45 c8	 mov	 DWORD PTR _v3Eye$[ebp+8], eax
  00048	0f 28 ce	 movaps	 xmm1, xmm6
  0004b	f3 0f 10 65 c8	 movss	 xmm4, DWORD PTR _v3Eye$[ebp+8]
  00050	f3 0f 5c cb	 subss	 xmm1, xmm3
  00054	0f 28 d4	 movaps	 xmm2, xmm4

; 561  : 	posVertices[2] = TPosition(v3Eye.x+90000000.0f, 0.0f, v3Eye.z+90000000.0f);

  00057	f3 0f 58 f3	 addss	 xmm6, xmm3
  0005b	f3 0f 58 d3	 addss	 xmm2, xmm3
  0005f	f3 0f 5c e3	 subss	 xmm4, xmm3
  00063	0f 28 c1	 movaps	 xmm0, xmm1
  00066	0f 14 cd	 unpcklps xmm1, xmm5
  00069	0f 14 c5	 unpcklps xmm0, xmm5
; File C:\DS Project\DS Files\Source\ClientSource\extern\include\d3dx8math.inl

; 182  :     z = fz;

  0006c	f3 0f 11 55 c8	 movss	 DWORD PTR $T4[ebp+8], xmm2
; File C:\DS Project\DS Files\Source\ClientSource\Client\EterLib\GrpScreen.cpp

; 559  : 	posVertices[0] = TPosition(v3Eye.x-90000000.0f, 0.0f, v3Eye.z+90000000.0f);

  00071	8b 45 c8	 mov	 eax, DWORD PTR $T4[ebp+8]
  00074	89 45 d4	 mov	 DWORD PTR _posVertices$[ebp+8], eax
; File C:\DS Project\DS Files\Source\ClientSource\extern\include\d3dx8math.inl

; 182  :     z = fz;

  00077	f3 0f 11 65 c8	 movss	 DWORD PTR $T3[ebp+8], xmm4
; File C:\DS Project\DS Files\Source\ClientSource\Client\EterLib\GrpScreen.cpp

; 560  : 	posVertices[1] = TPosition(v3Eye.x-90000000.0f, 0.0f, v3Eye.z-90000000.0f);

  0007c	8b 45 c8	 mov	 eax, DWORD PTR $T3[ebp+8]
  0007f	66 0f d6 45 cc	 movq	 QWORD PTR _posVertices$[ebp], xmm0

; 561  : 	posVertices[2] = TPosition(v3Eye.x+90000000.0f, 0.0f, v3Eye.z+90000000.0f);

  00084	0f 28 c6	 movaps	 xmm0, xmm6
  00087	89 45 e0	 mov	 DWORD PTR _posVertices$[ebp+20], eax
; File C:\DS Project\DS Files\Source\ClientSource\extern\include\d3dx8math.inl

; 182  :     z = fz;

  0008a	f3 0f 11 55 c8	 movss	 DWORD PTR $T2[ebp+8], xmm2
; File C:\DS Project\DS Files\Source\ClientSource\Client\EterLib\GrpScreen.cpp

; 561  : 	posVertices[2] = TPosition(v3Eye.x+90000000.0f, 0.0f, v3Eye.z+90000000.0f);

  0008f	8b 45 c8	 mov	 eax, DWORD PTR $T2[ebp+8]
  00092	0f 14 c5	 unpcklps xmm0, xmm5
  00095	89 45 ec	 mov	 DWORD PTR _posVertices$[ebp+32], eax
; File C:\DS Project\DS Files\Source\ClientSource\extern\include\d3dx8math.inl

; 182  :     z = fz;

  00098	f3 0f 11 65 c8	 movss	 DWORD PTR $T1[ebp+8], xmm4
; File C:\DS Project\DS Files\Source\ClientSource\Client\EterLib\GrpScreen.cpp

; 562  : 	posVertices[3] = TPosition(v3Eye.x+90000000.0f, 0.0f, v3Eye.z-90000000.0f);

  0009d	8b 45 c8	 mov	 eax, DWORD PTR $T1[ebp+8]
  000a0	0f 14 f5	 unpcklps xmm6, xmm5
  000a3	66 0f d6 4d d8	 movq	 QWORD PTR _posVertices$[ebp+12], xmm1
  000a8	66 0f d6 45 e4	 movq	 QWORD PTR _posVertices$[ebp+24], xmm0
  000ad	66 0f d6 75 f0	 movq	 QWORD PTR _posVertices$[ebp+36], xmm6
  000b2	89 45 f8	 mov	 DWORD PTR _posVertices$[ebp+44], eax
$LL4@GetCursorZ:

; 568  : 	{
; 569  : 		if (IntersectTriangle(ms_vtPickRayOrig, ms_vtPickRayDir,

  000b5	8d 45 bc	 lea	 eax, DWORD PTR _t$[ebp]
  000b8	50		 push	 eax
  000b9	8d 45 b8	 lea	 eax, DWORD PTR _v$[ebp]
  000bc	50		 push	 eax
  000bd	8d 45 b4	 lea	 eax, DWORD PTR _u$[ebp]
  000c0	50		 push	 eax
  000c1	0f b7 46 02	 movzx	 eax, WORD PTR [esi+2]
  000c5	8d 4d cc	 lea	 ecx, DWORD PTR _posVertices$[ebp]
  000c8	8d 04 40	 lea	 eax, DWORD PTR [eax+eax*2]
  000cb	8d 04 81	 lea	 eax, DWORD PTR [ecx+eax*4]
  000ce	50		 push	 eax
  000cf	0f b7 06	 movzx	 eax, WORD PTR [esi]
  000d2	8d 04 40	 lea	 eax, DWORD PTR [eax+eax*2]
  000d5	8d 04 81	 lea	 eax, DWORD PTR [ecx+eax*4]
  000d8	50		 push	 eax
  000d9	0f b7 46 fe	 movzx	 eax, WORD PTR [esi-2]
  000dd	8d 04 40	 lea	 eax, DWORD PTR [eax+eax*2]
  000e0	8d 04 81	 lea	 eax, DWORD PTR [ecx+eax*4]
  000e3	8b cf		 mov	 ecx, edi
  000e5	50		 push	 eax
  000e6	68 00 00 00 00	 push	 OFFSET ?ms_vtPickRayDir@CGraphicBase@@1UD3DXVECTOR3@@A ; CGraphicBase::ms_vtPickRayDir
  000eb	68 00 00 00 00	 push	 OFFSET ?ms_vtPickRayOrig@CGraphicBase@@1UD3DXVECTOR3@@A ; CGraphicBase::ms_vtPickRayOrig
  000f0	e8 00 00 00 00	 call	 ?IntersectTriangle@CGraphicCollisionObject@@IAE_NABUD3DXVECTOR3@@0000PAM11@Z ; CGraphicCollisionObject::IntersectTriangle
  000f5	84 c0		 test	 al, al
  000f7	75 1e		 jne	 SHORT $LN21@GetCursorZ

; 563  : 
; 564  : 	static const WORD sc_awFillRectIndices[6] = { 0, 2, 1, 2, 3, 1, };
; 565  : 
; 566  : 	float u, v, t;
; 567  : 	for (int i = 0; i < 2; ++i)

  000f9	83 c6 06	 add	 esi, 6
  000fc	81 fe 0e 00 00
	00		 cmp	 esi, OFFSET ?sc_awFillRectIndices@?1??GetCursorZPosition@CScreen@@QAE_NPAM@Z@4QBGB+14
  00102	7c b1		 jl	 SHORT $LL4@GetCursorZ

; 577  : 		}
; 578  : 	}
; 579  : 	return false;
; 580  : }

  00104	5f		 pop	 edi
  00105	5e		 pop	 esi
  00106	5b		 pop	 ebx
  00107	8b 4d fc	 mov	 ecx, DWORD PTR __$ArrayPad$[ebp]
  0010a	33 cd		 xor	 ecx, ebp
  0010c	e8 00 00 00 00	 call	 @__security_check_cookie@4
  00111	8b e5		 mov	 esp, ebp
  00113	5d		 pop	 ebp
  00114	c2 04 00	 ret	 4
$LN21@GetCursorZ:

; 570  : 							 posVertices[sc_awFillRectIndices[i*3+0]],
; 571  : 							 posVertices[sc_awFillRectIndices[i*3+1]],
; 572  : 							 posVertices[sc_awFillRectIndices[i*3+2]],
; 573  : 							 &u, &v, &t))
; 574  : 		{
; 575  : 			*pz = ms_vtPickRayOrig.z + ms_vtPickRayDir.z * t;

  00117	f3 0f 10 05 08
	00 00 00	 movss	 xmm0, DWORD PTR ?ms_vtPickRayDir@CGraphicBase@@1UD3DXVECTOR3@@A+8

; 576  : 			return true;

  0011f	b0 01		 mov	 al, 1
  00121	f3 0f 59 45 bc	 mulss	 xmm0, DWORD PTR _t$[ebp]

; 577  : 		}
; 578  : 	}
; 579  : 	return false;
; 580  : }

  00126	8b 4d fc	 mov	 ecx, DWORD PTR __$ArrayPad$[ebp]
  00129	5f		 pop	 edi
  0012a	5e		 pop	 esi
  0012b	f3 0f 58 05 08
	00 00 00	 addss	 xmm0, DWORD PTR ?ms_vtPickRayOrig@CGraphicBase@@1UD3DXVECTOR3@@A+8
  00133	33 cd		 xor	 ecx, ebp
  00135	f3 0f 11 03	 movss	 DWORD PTR [ebx], xmm0
  00139	5b		 pop	 ebx
  0013a	e8 00 00 00 00	 call	 @__security_check_cookie@4
  0013f	8b e5		 mov	 esp, ebp
  00141	5d		 pop	 ebp
  00142	c2 04 00	 ret	 4
?GetCursorZPosition@CScreen@@QAE_NPAM@Z ENDP		; CScreen::GetCursorZPosition
_TEXT	ENDS
; Function compile flags: /Ogtp
; File C:\DS Project\DS Files\Source\ClientSource\Client\EterLib\GrpScreen.cpp
; File C:\DS Project\DS Files\Source\ClientSource\extern\include\d3dx8math.inl
; File C:\DS Project\DS Files\Source\ClientSource\Client\EterLib\GrpScreen.cpp
; File C:\DS Project\DS Files\Source\ClientSource\extern\include\d3dx8math.inl
; File C:\DS Project\DS Files\Source\ClientSource\Client\EterLib\GrpScreen.cpp
; File C:\DS Project\DS Files\Source\ClientSource\extern\include\d3dx8math.inl
; File C:\DS Project\DS Files\Source\ClientSource\Client\EterLib\GrpScreen.cpp
; File C:\DS Project\DS Files\Source\ClientSource\extern\include\d3dx8math.inl
; File C:\DS Project\DS Files\Source\ClientSource\Client\EterLib\GrpScreen.cpp
; File C:\DS Project\DS Files\Source\ClientSource\extern\include\d3dx8math.inl
; File C:\DS Project\DS Files\Source\ClientSource\Client\EterLib\GrpScreen.cpp
;	COMDAT ?GetCursorXYPosition@CScreen@@QAE_NPAM0@Z
_TEXT	SEGMENT
_u$ = -80						; size = 4
_v$ = -76						; size = 4
_py$GSCopy$1$ = -72					; size = 4
_t$ = -68						; size = 4
$T1 = -64						; size = 12
$T2 = -64						; size = 12
$T3 = -64						; size = 12
$T4 = -64						; size = 12
_v3Eye$ = -64						; size = 12
_posVertices$ = -52					; size = 48
__$ArrayPad$ = -4					; size = 4
_px$ = 8						; size = 4
_py$ = 12						; size = 4
?GetCursorXYPosition@CScreen@@QAE_NPAM0@Z PROC		; CScreen::GetCursorXYPosition, COMDAT
; _this$ = ecx

; 526  : {

  00000	55		 push	 ebp
  00001	8b ec		 mov	 ebp, esp
  00003	83 ec 50	 sub	 esp, 80			; 00000050H
  00006	a1 00 00 00 00	 mov	 eax, DWORD PTR ___security_cookie
  0000b	33 c5		 xor	 eax, ebp
  0000d	89 45 fc	 mov	 DWORD PTR __$ArrayPad$[ebp], eax
  00010	8b 45 0c	 mov	 eax, DWORD PTR _py$[ebp]
  00013	53		 push	 ebx
  00014	8b 5d 08	 mov	 ebx, DWORD PTR _px$[ebp]
  00017	56		 push	 esi
  00018	57		 push	 edi
  00019	8b f9		 mov	 edi, ecx
  0001b	89 45 b8	 mov	 DWORD PTR _py$GSCopy$1$[ebp], eax

; 527  : 	D3DXVECTOR3 v3Eye = CCameraManager::Instance().GetCurrentCamera()->GetEye();

  0001e	8b 0d 00 00 00
	00		 mov	 ecx, DWORD PTR ?ms_singleton@?$CSingleton@VCCameraManager@@@@0PAVCCameraManager@@A ; CSingleton<CCameraManager>::ms_singleton
  00024	e8 00 00 00 00	 call	 ?GetCurrentCamera@CCameraManager@@QAEPAVCCamera@@XZ ; CCameraManager::GetCurrentCamera

; 530  : 	posVertices[0] = TPosition(v3Eye.x-90000000.0f, v3Eye.y+90000000.0f, 0.0f);

  00029	f3 0f 10 15 00
	00 00 00	 movss	 xmm2, DWORD PTR __real@4caba950
; File C:\DS Project\DS Files\Source\ClientSource\extern\include\d3dx8math.inl

; 180  :     x = fx;

  00031	be 02 00 00 00	 mov	 esi, OFFSET ?sc_awFillRectIndices@?1??GetCursorXYPosition@CScreen@@QAE_NPAM0@Z@4QBGB+2
; File C:\DS Project\DS Files\Source\ClientSource\Client\EterLib\GrpScreen.cpp

; 527  : 	D3DXVECTOR3 v3Eye = CCameraManager::Instance().GetCurrentCamera()->GetEye();

  00036	f3 0f 7e 40 30	 movq	 xmm0, QWORD PTR [eax+48]
  0003b	8b 40 38	 mov	 eax, DWORD PTR [eax+56]
  0003e	66 0f d6 45 c0	 movq	 QWORD PTR _v3Eye$[ebp], xmm0

; 530  : 	posVertices[0] = TPosition(v3Eye.x-90000000.0f, v3Eye.y+90000000.0f, 0.0f);

  00043	f3 0f 10 6d c0	 movss	 xmm5, DWORD PTR _v3Eye$[ebp]
  00048	f3 0f 10 65 c4	 movss	 xmm4, DWORD PTR _v3Eye$[ebp+4]
  0004d	0f 28 cd	 movaps	 xmm1, xmm5
  00050	f3 0f 5c ca	 subss	 xmm1, xmm2
  00054	89 45 c8	 mov	 DWORD PTR _v3Eye$[ebp+8], eax
  00057	0f 28 dc	 movaps	 xmm3, xmm4
; File C:\DS Project\DS Files\Source\ClientSource\extern\include\d3dx8math.inl

; 182  :     z = fz;

  0005a	c7 45 c8 00 00
	00 00		 mov	 DWORD PTR $T4[ebp+8], 0
; File C:\DS Project\DS Files\Source\ClientSource\Client\EterLib\GrpScreen.cpp

; 530  : 	posVertices[0] = TPosition(v3Eye.x-90000000.0f, v3Eye.y+90000000.0f, 0.0f);

  00061	8b 45 c8	 mov	 eax, DWORD PTR $T4[ebp+8]
  00064	f3 0f 58 da	 addss	 xmm3, xmm2

; 532  : 	posVertices[2] = TPosition(v3Eye.x+90000000.0f, v3Eye.y+90000000.0f, 0.0f);

  00068	f3 0f 58 ea	 addss	 xmm5, xmm2
  0006c	89 45 d4	 mov	 DWORD PTR _posVertices$[ebp+8], eax
  0006f	f3 0f 5c e2	 subss	 xmm4, xmm2
; File C:\DS Project\DS Files\Source\ClientSource\extern\include\d3dx8math.inl

; 182  :     z = fz;

  00073	c7 45 c8 00 00
	00 00		 mov	 DWORD PTR $T3[ebp+8], 0
; File C:\DS Project\DS Files\Source\ClientSource\Client\EterLib\GrpScreen.cpp

; 531  : 	posVertices[1] = TPosition(v3Eye.x-90000000.0f, v3Eye.y-90000000.0f, 0.0f);

  0007a	8b 45 c8	 mov	 eax, DWORD PTR $T3[ebp+8]
  0007d	0f 28 c1	 movaps	 xmm0, xmm1
  00080	89 45 e0	 mov	 DWORD PTR _posVertices$[ebp+20], eax
  00083	0f 14 c3	 unpcklps xmm0, xmm3
  00086	66 0f d6 45 cc	 movq	 QWORD PTR _posVertices$[ebp], xmm0

; 532  : 	posVertices[2] = TPosition(v3Eye.x+90000000.0f, v3Eye.y+90000000.0f, 0.0f);

  0008b	0f 28 c5	 movaps	 xmm0, xmm5
; File C:\DS Project\DS Files\Source\ClientSource\extern\include\d3dx8math.inl

; 182  :     z = fz;

  0008e	c7 45 c8 00 00
	00 00		 mov	 DWORD PTR $T2[ebp+8], 0
; File C:\DS Project\DS Files\Source\ClientSource\Client\EterLib\GrpScreen.cpp

; 532  : 	posVertices[2] = TPosition(v3Eye.x+90000000.0f, v3Eye.y+90000000.0f, 0.0f);

  00095	8b 45 c8	 mov	 eax, DWORD PTR $T2[ebp+8]
  00098	0f 14 cc	 unpcklps xmm1, xmm4
  0009b	0f 14 c3	 unpcklps xmm0, xmm3
  0009e	89 45 ec	 mov	 DWORD PTR _posVertices$[ebp+32], eax
; File C:\DS Project\DS Files\Source\ClientSource\extern\include\d3dx8math.inl

; 182  :     z = fz;

  000a1	c7 45 c8 00 00
	00 00		 mov	 DWORD PTR $T1[ebp+8], 0
; File C:\DS Project\DS Files\Source\ClientSource\Client\EterLib\GrpScreen.cpp

; 533  : 	posVertices[3] = TPosition(v3Eye.x+90000000.0f, v3Eye.y-90000000.0f, 0.0f);

  000a8	8b 45 c8	 mov	 eax, DWORD PTR $T1[ebp+8]
  000ab	0f 14 ec	 unpcklps xmm5, xmm4
  000ae	66 0f d6 4d d8	 movq	 QWORD PTR _posVertices$[ebp+12], xmm1
  000b3	66 0f d6 45 e4	 movq	 QWORD PTR _posVertices$[ebp+24], xmm0
  000b8	66 0f d6 6d f0	 movq	 QWORD PTR _posVertices$[ebp+36], xmm5
  000bd	89 45 f8	 mov	 DWORD PTR _posVertices$[ebp+44], eax
$LL4@GetCursorX:

; 539  : 	{
; 540  : 		if (IntersectTriangle(ms_vtPickRayOrig, ms_vtPickRayDir,

  000c0	8d 45 bc	 lea	 eax, DWORD PTR _t$[ebp]
  000c3	50		 push	 eax
  000c4	8d 45 b4	 lea	 eax, DWORD PTR _v$[ebp]
  000c7	50		 push	 eax
  000c8	8d 45 b0	 lea	 eax, DWORD PTR _u$[ebp]
  000cb	50		 push	 eax
  000cc	0f b7 46 02	 movzx	 eax, WORD PTR [esi+2]
  000d0	8d 4d cc	 lea	 ecx, DWORD PTR _posVertices$[ebp]
  000d3	8d 04 40	 lea	 eax, DWORD PTR [eax+eax*2]
  000d6	8d 04 81	 lea	 eax, DWORD PTR [ecx+eax*4]
  000d9	50		 push	 eax
  000da	0f b7 06	 movzx	 eax, WORD PTR [esi]
  000dd	8d 04 40	 lea	 eax, DWORD PTR [eax+eax*2]
  000e0	8d 04 81	 lea	 eax, DWORD PTR [ecx+eax*4]
  000e3	50		 push	 eax
  000e4	0f b7 46 fe	 movzx	 eax, WORD PTR [esi-2]
  000e8	8d 04 40	 lea	 eax, DWORD PTR [eax+eax*2]
  000eb	8d 04 81	 lea	 eax, DWORD PTR [ecx+eax*4]
  000ee	8b cf		 mov	 ecx, edi
  000f0	50		 push	 eax
  000f1	68 00 00 00 00	 push	 OFFSET ?ms_vtPickRayDir@CGraphicBase@@1UD3DXVECTOR3@@A ; CGraphicBase::ms_vtPickRayDir
  000f6	68 00 00 00 00	 push	 OFFSET ?ms_vtPickRayOrig@CGraphicBase@@1UD3DXVECTOR3@@A ; CGraphicBase::ms_vtPickRayOrig
  000fb	e8 00 00 00 00	 call	 ?IntersectTriangle@CGraphicCollisionObject@@IAE_NABUD3DXVECTOR3@@0000PAM11@Z ; CGraphicCollisionObject::IntersectTriangle
  00100	84 c0		 test	 al, al
  00102	75 1e		 jne	 SHORT $LN21@GetCursorX

; 534  : 
; 535  : 	static const WORD sc_awFillRectIndices[6] = { 0, 2, 1, 2, 3, 1, };
; 536  : 
; 537  : 	float u, v, t;
; 538  : 	for (int i = 0; i < 2; ++i)

  00104	83 c6 06	 add	 esi, 6
  00107	81 fe 0e 00 00
	00		 cmp	 esi, OFFSET ?sc_awFillRectIndices@?1??GetCursorXYPosition@CScreen@@QAE_NPAM0@Z@4QBGB+14
  0010d	7c b1		 jl	 SHORT $LL4@GetCursorX

; 548  : 			return true;
; 549  : 		}
; 550  : 	}
; 551  : 	return false;
; 552  : }

  0010f	5f		 pop	 edi
  00110	5e		 pop	 esi
  00111	5b		 pop	 ebx
  00112	8b 4d fc	 mov	 ecx, DWORD PTR __$ArrayPad$[ebp]
  00115	33 cd		 xor	 ecx, ebp
  00117	e8 00 00 00 00	 call	 @__security_check_cookie@4
  0011c	8b e5		 mov	 esp, ebp
  0011e	5d		 pop	 ebp
  0011f	c2 08 00	 ret	 8
$LN21@GetCursorX:

; 541  : 							 posVertices[sc_awFillRectIndices[i*3+0]],
; 542  : 							 posVertices[sc_awFillRectIndices[i*3+1]],
; 543  : 							 posVertices[sc_awFillRectIndices[i*3+2]],
; 544  : 							 &u, &v, &t))
; 545  : 		{
; 546  : 			*px = ms_vtPickRayOrig.x + ms_vtPickRayDir.x * t;

  00122	f3 0f 10 05 00
	00 00 00	 movss	 xmm0, DWORD PTR ?ms_vtPickRayDir@CGraphicBase@@1UD3DXVECTOR3@@A
  0012a	f3 0f 59 45 bc	 mulss	 xmm0, DWORD PTR _t$[ebp]

; 547  : 			*py = ms_vtPickRayOrig.y + ms_vtPickRayDir.y * t;

  0012f	8b 45 b8	 mov	 eax, DWORD PTR _py$GSCopy$1$[ebp]

; 548  : 			return true;
; 549  : 		}
; 550  : 	}
; 551  : 	return false;
; 552  : }

  00132	8b 4d fc	 mov	 ecx, DWORD PTR __$ArrayPad$[ebp]
  00135	5f		 pop	 edi
  00136	f3 0f 58 05 00
	00 00 00	 addss	 xmm0, DWORD PTR ?ms_vtPickRayOrig@CGraphicBase@@1UD3DXVECTOR3@@A
  0013e	5e		 pop	 esi
  0013f	33 cd		 xor	 ecx, ebp
  00141	f3 0f 11 03	 movss	 DWORD PTR [ebx], xmm0
  00145	f3 0f 10 05 04
	00 00 00	 movss	 xmm0, DWORD PTR ?ms_vtPickRayDir@CGraphicBase@@1UD3DXVECTOR3@@A+4
  0014d	f3 0f 59 45 bc	 mulss	 xmm0, DWORD PTR _t$[ebp]
  00152	5b		 pop	 ebx
  00153	f3 0f 58 05 04
	00 00 00	 addss	 xmm0, DWORD PTR ?ms_vtPickRayOrig@CGraphicBase@@1UD3DXVECTOR3@@A+4
  0015b	f3 0f 11 00	 movss	 DWORD PTR [eax], xmm0
  0015f	b0 01		 mov	 al, 1
  00161	e8 00 00 00 00	 call	 @__security_check_cookie@4
  00166	8b e5		 mov	 esp, ebp
  00168	5d		 pop	 ebp
  00169	c2 08 00	 ret	 8
?GetCursorXYPosition@CScreen@@QAE_NPAM0@Z ENDP		; CScreen::GetCursorXYPosition
_TEXT	ENDS
; Function compile flags: /Ogtp
; File C:\DS Project\DS Files\Source\ClientSource\Client\EterLib\GrpScreen.cpp
;	COMDAT ?GetCursorPosition@CScreen@@QAE_NPAM00@Z
_TEXT	SEGMENT
_px$ = 8						; size = 4
_py$ = 12						; size = 4
_pz$ = 16						; size = 4
?GetCursorPosition@CScreen@@QAE_NPAM00@Z PROC		; CScreen::GetCursorPosition, COMDAT
; _this$ = ecx

; 518  : {

  00000	55		 push	 ebp
  00001	8b ec		 mov	 ebp, esp
  00003	56		 push	 esi

; 519  : 	if (!GetCursorXYPosition(px, py)) return false;

  00004	ff 75 0c	 push	 DWORD PTR _py$[ebp]
  00007	8b f1		 mov	 esi, ecx
  00009	ff 75 08	 push	 DWORD PTR _px$[ebp]
  0000c	e8 00 00 00 00	 call	 ?GetCursorXYPosition@CScreen@@QAE_NPAM0@Z ; CScreen::GetCursorXYPosition
  00011	84 c0		 test	 al, al
  00013	74 15		 je	 SHORT $LN5@GetCursorP

; 520  : 	if (!GetCursorZPosition(pz)) return false;

  00015	ff 75 10	 push	 DWORD PTR _pz$[ebp]
  00018	8b ce		 mov	 ecx, esi
  0001a	e8 00 00 00 00	 call	 ?GetCursorZPosition@CScreen@@QAE_NPAM@Z ; CScreen::GetCursorZPosition
  0001f	84 c0		 test	 al, al
  00021	74 07		 je	 SHORT $LN5@GetCursorP

; 521  : 
; 522  : 	return true;

  00023	b0 01		 mov	 al, 1
  00025	5e		 pop	 esi

; 523  : }

  00026	5d		 pop	 ebp
  00027	c2 0c 00	 ret	 12			; 0000000cH
$LN5@GetCursorP:

; 520  : 	if (!GetCursorZPosition(pz)) return false;

  0002a	32 c0		 xor	 al, al
  0002c	5e		 pop	 esi

; 523  : }

  0002d	5d		 pop	 ebp
  0002e	c2 0c 00	 ret	 12			; 0000000cH
?GetCursorPosition@CScreen@@QAE_NPAM00@Z ENDP		; CScreen::GetCursorPosition
_TEXT	ENDS
; Function compile flags: /Ogtp
; File C:\DS Project\DS Files\Source\ClientSource\Client\EterLib\GrpScreen.cpp
; File C:\DS Project\DS Files\Source\ClientSource\Client\EterLib\Ray.h
; File C:\DS Project\DS Files\Source\ClientSource\Client\EterLib\GrpScreen.cpp
; File C:\DS Project\DS Files\Source\ClientSource\Client\EterLib\Ray.h
; File C:\DS Project\DS Files\Source\ClientSource\Client\EterLib\GrpScreen.cpp
; File C:\DS Project\DS Files\Source\ClientSource\Client\EterLib\Ray.h
; File C:\DS Project\DS Files\Source\ClientSource\Client\EterLib\GrpScreen.cpp
; File C:\DS Project\DS Files\Source\ClientSource\extern\include\d3dx8math.inl
; File C:\DS Project\DS Files\Source\ClientSource\Client\EterLib\GrpScreen.cpp
; File C:\DS Project\DS Files\Source\ClientSource\Client\EterLib\Ray.h
; File C:\DS Project\DS Files\Source\ClientSource\Client\EterLib\GrpScreen.cpp
; File C:\DS Project\DS Files\Source\ClientSource\Client\EterLib\Ray.h
; File C:\DS Project\DS Files\Source\ClientSource\Client\EterLib\GrpScreen.cpp
; File C:\DS Project\DS Files\Source\ClientSource\Client\EterLib\Ray.h
; File C:\DS Project\DS Files\Source\ClientSource\Client\EterLib\GrpScreen.cpp
; File C:\DS Project\DS Files\Source\ClientSource\extern\include\d3dx8math.inl
; File C:\DS Project\DS Files\Source\ClientSource\Client\EterLib\Ray.h
; File C:\DS Project\DS Files\Source\ClientSource\extern\include\d3dx8math.inl
; File C:\DS Project\DS Files\Source\ClientSource\Client\EterLib\Ray.h
; File C:\DS Project\DS Files\Source\ClientSource\extern\include\d3dx8math.inl
; File C:\DS Project\DS Files\Source\ClientSource\Client\EterLib\Ray.h
; File C:\DS Project\DS Files\Source\ClientSource\extern\include\d3dx8math.inl
; File C:\DS Project\DS Files\Source\ClientSource\Client\EterLib\Ray.h
; File C:\DS Project\DS Files\Source\ClientSource\extern\include\d3dx8math.inl
; File C:\DS Project\DS Files\Source\ClientSource\Client\EterLib\Ray.h
; File C:\DS Project\DS Files\Source\ClientSource\Client\EterLib\GrpScreen.cpp
;	COMDAT ?SetCursorPosition@CScreen@@QAEXHHHH@Z
_TEXT	SEGMENT
tv609 = 8						; size = 4
_x$ = 8							; size = 4
_y$ = 12						; size = 4
tv606 = 16						; size = 4
_hres$ = 16						; size = 4
_vres$ = 20						; size = 4
?SetCursorPosition@CScreen@@QAEXHHHH@Z PROC		; CScreen::SetCursorPosition, COMDAT
; _this$ = ecx

; 488  : {

  00000	55		 push	 ebp
  00001	8b ec		 mov	 ebp, esp
  00003	66 0f 6e 7d 08	 movd	 xmm7, DWORD PTR _x$[ebp]
  00008	66 0f 6e 45 10	 movd	 xmm0, DWORD PTR _hres$[ebp]
  0000d	66 0f 6e 6d 0c	 movd	 xmm5, DWORD PTR _y$[ebp]

; 490  : 	v.x = -(((2.0f * x) / hres) - 1) / ms_matProj._11;

  00012	0f 5b c0	 cvtdq2ps xmm0, xmm0
; File C:\DS Project\DS Files\Source\ClientSource\Client\EterLib\Ray.h

; 29   : 			D3DXVec3Normalize(&m_v3Direction, &m_v3Direction);

  00015	68 18 00 00 00	 push	 OFFSET ?ms_Ray@CGraphicBase@@1VCRay@@A+24
  0001a	68 18 00 00 00	 push	 OFFSET ?ms_Ray@CGraphicBase@@1VCRay@@A+24
; File C:\DS Project\DS Files\Source\ClientSource\Client\EterLib\GrpScreen.cpp

; 490  : 	v.x = -(((2.0f * x) / hres) - 1) / ms_matProj._11;

  0001f	0f 5b ff	 cvtdq2ps xmm7, xmm7

; 491  : 	v.y = (((2.0f * y) / vres) - 1) / ms_matProj._22;

  00022	0f 5b ed	 cvtdq2ps xmm5, xmm5
  00025	f3 0f 58 ff	 addss	 xmm7, xmm7
  00029	f3 0f 58 ed	 addss	 xmm5, xmm5

; 492  : 	v.z = 1.0f;
; 493  : 
; 494  :     D3DXMATRIX matViewInverse=ms_matInverseView;

  0002d	0f 10 1d 00 00
	00 00		 movups	 xmm3, XMMWORD PTR ?ms_matInverseView@CGraphicBase@@1UD3DXMATRIX@@A
  00034	0f 10 15 10 00
	00 00		 movups	 xmm2, XMMWORD PTR ?ms_matInverseView@CGraphicBase@@1UD3DXMATRIX@@A+16
  0003b	f3 0f 5e f8	 divss	 xmm7, xmm0
  0003f	66 0f 6e 45 14	 movd	 xmm0, DWORD PTR _vres$[ebp]
  00044	0f 5b c0	 cvtdq2ps xmm0, xmm0
  00047	f3 0f 5c 3d 00
	00 00 00	 subss	 xmm7, DWORD PTR __real@3f800000
  0004f	f3 0f 5e e8	 divss	 xmm5, xmm0
  00053	0f 57 3d 00 00
	00 00		 xorps	 xmm7, DWORD PTR __xmm@80000000800000008000000080000000
  0005a	f3 0f 5c 2d 00
	00 00 00	 subss	 xmm5, DWORD PTR __real@3f800000
  00062	f3 0f 5e 3d 00
	00 00 00	 divss	 xmm7, DWORD PTR ?ms_matProj@CGraphicBase@@1UD3DXMATRIX@@A
  0006a	f3 0f 5e 2d 14
	00 00 00	 divss	 xmm5, DWORD PTR ?ms_matProj@CGraphicBase@@1UD3DXMATRIX@@A+20
  00072	0f 10 25 20 00
	00 00		 movups	 xmm4, XMMWORD PTR ?ms_matInverseView@CGraphicBase@@1UD3DXMATRIX@@A+32
  00079	0f 28 cd	 movaps	 xmm1, xmm5
  0007c	f3 0f 11 6d 08	 movss	 DWORD PTR tv609[ebp], xmm5
  00081	f3 0f 59 ca	 mulss	 xmm1, xmm2

; 497  :     ms_vtPickRayDir.x = v.x * matViewInverse._11 +

  00085	0f 28 c7	 movaps	 xmm0, xmm7
  00088	f3 0f 59 c3	 mulss	 xmm0, xmm3
  0008c	0f 10 35 30 00
	00 00		 movups	 xmm6, XMMWORD PTR ?ms_matInverseView@CGraphicBase@@1UD3DXMATRIX@@A+48
  00093	f3 0f 58 c8	 addss	 xmm1, xmm0
  00097	0f 28 c2	 movaps	 xmm0, xmm2
  0009a	0f c6 c2 55	 shufps	 xmm0, xmm2, 85		; 00000055H
  0009e	f3 0f 59 e8	 mulss	 xmm5, xmm0

; 501  :     ms_vtPickRayDir.y = v.x * matViewInverse._12 +

  000a2	0f 28 c3	 movaps	 xmm0, xmm3
  000a5	0f c6 c3 55	 shufps	 xmm0, xmm3, 85		; 00000055H
  000a9	f3 0f 58 cc	 addss	 xmm1, xmm4
  000ad	0f c6 d2 aa	 shufps	 xmm2, xmm2, 170		; 000000aaH

; 505  :     ms_vtPickRayDir.z = v.x * matViewInverse._13 +

  000b1	0f c6 db aa	 shufps	 xmm3, xmm3, 170		; 000000aaH

; 506  : 						v.y * matViewInverse._23 +
; 507  : 						v.z * matViewInverse._33;
; 508  : 
; 509  :     ms_vtPickRayOrig.x = matViewInverse._41;

  000b5	f3 0f 11 35 00
	00 00 00	 movss	 DWORD PTR ?ms_vtPickRayOrig@CGraphicBase@@1UD3DXVECTOR3@@A, xmm6
; File C:\DS Project\DS Files\Source\ClientSource\Client\EterLib\Ray.h

; 22   : 			m_v3Start = v3Start;

  000bd	f3 0f 11 35 00
	00 00 00	 movss	 DWORD PTR ?ms_Ray@CGraphicBase@@1VCRay@@A, xmm6
; File C:\DS Project\DS Files\Source\ClientSource\Client\EterLib\GrpScreen.cpp

; 497  :     ms_vtPickRayDir.x = v.x * matViewInverse._11 +

  000c5	f3 0f 11 4d 10	 movss	 DWORD PTR tv606[ebp], xmm1
  000ca	f3 0f 11 0d 00
	00 00 00	 movss	 DWORD PTR ?ms_vtPickRayDir@CGraphicBase@@1UD3DXVECTOR3@@A, xmm1

; 501  :     ms_vtPickRayDir.y = v.x * matViewInverse._12 +

  000d2	0f 28 cf	 movaps	 xmm1, xmm7
  000d5	f3 0f 59 c8	 mulss	 xmm1, xmm0
  000d9	0f 28 c4	 movaps	 xmm0, xmm4
  000dc	0f c6 c4 55	 shufps	 xmm0, xmm4, 85		; 00000055H

; 505  :     ms_vtPickRayDir.z = v.x * matViewInverse._13 +

  000e0	f3 0f 59 fb	 mulss	 xmm7, xmm3
  000e4	f3 0f 58 e9	 addss	 xmm5, xmm1
  000e8	0f c6 e4 aa	 shufps	 xmm4, xmm4, 170		; 000000aaH

; 510  :     ms_vtPickRayOrig.y = matViewInverse._42;

  000ec	0f 28 ce	 movaps	 xmm1, xmm6
  000ef	0f c6 ce 55	 shufps	 xmm1, xmm6, 85		; 00000055H
  000f3	f3 0f 11 0d 04
	00 00 00	 movss	 DWORD PTR ?ms_vtPickRayOrig@CGraphicBase@@1UD3DXVECTOR3@@A+4, xmm1
; File C:\DS Project\DS Files\Source\ClientSource\Client\EterLib\Ray.h

; 22   : 			m_v3Start = v3Start;

  000fb	f3 0f 11 0d 04
	00 00 00	 movss	 DWORD PTR ?ms_Ray@CGraphicBase@@1VCRay@@A+4, xmm1
  00103	f3 0f 10 0d 00
	00 00 00	 movss	 xmm1, DWORD PTR __xmm@80000000800000008000000080000000
; File C:\DS Project\DS Files\Source\ClientSource\Client\EterLib\GrpScreen.cpp

; 501  :     ms_vtPickRayDir.y = v.x * matViewInverse._12 +

  0010b	f3 0f 58 e8	 addss	 xmm5, xmm0
  0010f	f3 0f 10 45 08	 movss	 xmm0, DWORD PTR tv609[ebp]
  00114	f3 0f 59 c2	 mulss	 xmm0, xmm2
  00118	f3 0f 11 2d 04
	00 00 00	 movss	 DWORD PTR ?ms_vtPickRayDir@CGraphicBase@@1UD3DXVECTOR3@@A+4, xmm5
; File C:\DS Project\DS Files\Source\ClientSource\extern\include\d3dx8math.inl

; 180  :     x = fx;

  00120	0f 57 e9	 xorps	 xmm5, xmm1
; File C:\DS Project\DS Files\Source\ClientSource\Client\EterLib\GrpScreen.cpp

; 505  :     ms_vtPickRayDir.z = v.x * matViewInverse._13 +

  00123	0f 28 d0	 movaps	 xmm2, xmm0
; File C:\DS Project\DS Files\Source\ClientSource\Client\EterLib\Ray.h

; 28   : 			m_v3Direction = v3Dir;

  00126	f3 0f 11 2d 1c
	00 00 00	 movss	 DWORD PTR ?ms_Ray@CGraphicBase@@1VCRay@@A+28, xmm5
; File C:\DS Project\DS Files\Source\ClientSource\Client\EterLib\GrpScreen.cpp

; 505  :     ms_vtPickRayDir.z = v.x * matViewInverse._13 +

  0012e	f3 0f 58 d7	 addss	 xmm2, xmm7

; 511  :     ms_vtPickRayOrig.z = matViewInverse._43;

  00132	0f 28 c6	 movaps	 xmm0, xmm6
  00135	0f c6 c6 aa	 shufps	 xmm0, xmm6, 170		; 000000aaH
  00139	f3 0f 11 05 08
	00 00 00	 movss	 DWORD PTR ?ms_vtPickRayOrig@CGraphicBase@@1UD3DXVECTOR3@@A+8, xmm0
; File C:\DS Project\DS Files\Source\ClientSource\Client\EterLib\Ray.h

; 22   : 			m_v3Start = v3Start;

  00141	f3 0f 11 05 08
	00 00 00	 movss	 DWORD PTR ?ms_Ray@CGraphicBase@@1VCRay@@A+8, xmm0
  00149	f3 0f 10 45 10	 movss	 xmm0, DWORD PTR tv606[ebp]
; File C:\DS Project\DS Files\Source\ClientSource\Client\EterLib\GrpScreen.cpp

; 505  :     ms_vtPickRayDir.z = v.x * matViewInverse._13 +

  0014e	f3 0f 58 d4	 addss	 xmm2, xmm4
; File C:\DS Project\DS Files\Source\ClientSource\Client\EterLib\Ray.h

; 22   : 			m_v3Start = v3Start;

  00152	0f 57 c1	 xorps	 xmm0, xmm1

; 28   : 			m_v3Direction = v3Dir;

  00155	f3 0f 11 05 18
	00 00 00	 movss	 DWORD PTR ?ms_Ray@CGraphicBase@@1VCRay@@A+24, xmm0
; File C:\DS Project\DS Files\Source\ClientSource\Client\EterLib\GrpScreen.cpp

; 505  :     ms_vtPickRayDir.z = v.x * matViewInverse._13 +

  0015d	f3 0f 11 15 08
	00 00 00	 movss	 DWORD PTR ?ms_vtPickRayDir@CGraphicBase@@1UD3DXVECTOR3@@A+8, xmm2
; File C:\DS Project\DS Files\Source\ClientSource\extern\include\d3dx8math.inl

; 181  :     y = fy;

  00165	0f 57 d1	 xorps	 xmm2, xmm1
; File C:\DS Project\DS Files\Source\ClientSource\Client\EterLib\Ray.h

; 28   : 			m_v3Direction = v3Dir;

  00168	f3 0f 11 15 20
	00 00 00	 movss	 DWORD PTR ?ms_Ray@CGraphicBase@@1VCRay@@A+32, xmm2

; 29   : 			D3DXVec3Normalize(&m_v3Direction, &m_v3Direction);

  00170	e8 00 00 00 00	 call	 _D3DXVec3Normalize@8

; 30   : 			m_fRayRange = fRayRange;

  00175	f3 0f 10 0d 00
	00 00 00	 movss	 xmm1, DWORD PTR __real@47480000
; File C:\DS Project\DS Files\Source\ClientSource\extern\include\d3dx8math.inl

; 283  :     return D3DXVECTOR3(f * v.x, f * v.y, f * v.z);

  0017d	f3 0f 10 05 18
	00 00 00	 movss	 xmm0, DWORD PTR ?ms_Ray@CGraphicBase@@1VCRay@@A+24
  00185	f3 0f 59 c1	 mulss	 xmm0, xmm1
; File C:\DS Project\DS Files\Source\ClientSource\Client\EterLib\Ray.h

; 30   : 			m_fRayRange = fRayRange;

  00189	c7 05 24 00 00
	00 00 00 48 47	 mov	 DWORD PTR ?ms_Ray@CGraphicBase@@1VCRay@@A+36, 1195900928 ; 47480000H
; File C:\DS Project\DS Files\Source\ClientSource\extern\include\d3dx8math.inl

; 257  :     return D3DXVECTOR3(x + v.x, y + v.y, z + v.z);

  00193	f3 0f 58 05 00
	00 00 00	 addss	 xmm0, DWORD PTR ?ms_Ray@CGraphicBase@@1VCRay@@A
; File C:\DS Project\DS Files\Source\ClientSource\Client\EterLib\Ray.h

; 31   : 			m_v3End = m_v3Start + m_fRayRange * m_v3Direction;

  0019b	f3 0f 11 05 0c
	00 00 00	 movss	 DWORD PTR ?ms_Ray@CGraphicBase@@1VCRay@@A+12, xmm0
; File C:\DS Project\DS Files\Source\ClientSource\extern\include\d3dx8math.inl

; 283  :     return D3DXVECTOR3(f * v.x, f * v.y, f * v.z);

  001a3	f3 0f 10 05 1c
	00 00 00	 movss	 xmm0, DWORD PTR ?ms_Ray@CGraphicBase@@1VCRay@@A+28
  001ab	f3 0f 59 c1	 mulss	 xmm0, xmm1

; 257  :     return D3DXVECTOR3(x + v.x, y + v.y, z + v.z);

  001af	f3 0f 58 05 04
	00 00 00	 addss	 xmm0, DWORD PTR ?ms_Ray@CGraphicBase@@1VCRay@@A+4
; File C:\DS Project\DS Files\Source\ClientSource\Client\EterLib\Ray.h

; 31   : 			m_v3End = m_v3Start + m_fRayRange * m_v3Direction;

  001b7	f3 0f 11 05 10
	00 00 00	 movss	 DWORD PTR ?ms_Ray@CGraphicBase@@1VCRay@@A+16, xmm0
; File C:\DS Project\DS Files\Source\ClientSource\extern\include\d3dx8math.inl

; 283  :     return D3DXVECTOR3(f * v.x, f * v.y, f * v.z);

  001bf	f3 0f 10 05 20
	00 00 00	 movss	 xmm0, DWORD PTR ?ms_Ray@CGraphicBase@@1VCRay@@A+32
  001c7	f3 0f 59 c1	 mulss	 xmm0, xmm1

; 257  :     return D3DXVECTOR3(x + v.x, y + v.y, z + v.z);

  001cb	f3 0f 58 05 08
	00 00 00	 addss	 xmm0, DWORD PTR ?ms_Ray@CGraphicBase@@1VCRay@@A+8
; File C:\DS Project\DS Files\Source\ClientSource\Client\EterLib\Ray.h

; 31   : 			m_v3End = m_v3Start + m_fRayRange * m_v3Direction;

  001d3	f3 0f 11 05 14
	00 00 00	 movss	 DWORD PTR ?ms_Ray@CGraphicBase@@1VCRay@@A+20, xmm0
; File C:\DS Project\DS Files\Source\ClientSource\Client\EterLib\GrpScreen.cpp

; 515  : }

  001db	5d		 pop	 ebp
  001dc	c2 10 00	 ret	 16			; 00000010H
?SetCursorPosition@CScreen@@QAEXHHHH@Z ENDP		; CScreen::SetCursorPosition
_TEXT	ENDS
; Function compile flags: /Ogtp
; File C:\DS Project\DS Files\Source\ClientSource\Client\EterLib\GrpScreen.cpp
;	COMDAT ?SetClearStencil@CScreen@@QAEXK@Z
_TEXT	SEGMENT
_stencil$ = 8						; size = 4
?SetClearStencil@CScreen@@QAEXK@Z PROC			; CScreen::SetClearStencil, COMDAT
; _this$ = ecx

; 610  : {

  00000	55		 push	 ebp
  00001	8b ec		 mov	 ebp, esp

; 611  : 	ms_clearStencil = stencil;

  00003	8b 45 08	 mov	 eax, DWORD PTR _stencil$[ebp]
  00006	a3 00 00 00 00	 mov	 DWORD PTR ?ms_clearStencil@CScreen@@1KA, eax ; CScreen::ms_clearStencil

; 612  : }

  0000b	5d		 pop	 ebp
  0000c	c2 04 00	 ret	 4
?SetClearStencil@CScreen@@QAEXK@Z ENDP			; CScreen::SetClearStencil
_TEXT	ENDS
; Function compile flags: /Ogtp
; File C:\DS Project\DS Files\Source\ClientSource\Client\EterLib\GrpScreen.cpp
;	COMDAT ?SetClearDepth@CScreen@@QAEXM@Z
_TEXT	SEGMENT
_depth$ = 8						; size = 4
?SetClearDepth@CScreen@@QAEXM@Z PROC			; CScreen::SetClearDepth, COMDAT
; _this$ = ecx

; 605  : {

  00000	55		 push	 ebp
  00001	8b ec		 mov	 ebp, esp

; 606  : 	ms_clearDepth = depth;

  00003	f3 0f 10 45 08	 movss	 xmm0, DWORD PTR _depth$[ebp]
  00008	f3 0f 11 05 00
	00 00 00	 movss	 DWORD PTR ?ms_clearDepth@CScreen@@1MA, xmm0

; 607  : }

  00010	5d		 pop	 ebp
  00011	c2 04 00	 ret	 4
?SetClearDepth@CScreen@@QAEXM@Z ENDP			; CScreen::SetClearDepth
_TEXT	ENDS
; Function compile flags: /Ogtp
; File C:\DS Project\DS Files\Source\ClientSource\Client\EterLib\GrpScreen.cpp
;	COMDAT ?SetClearColor@CScreen@@QAEXMMMM@Z
_TEXT	SEGMENT
_r$ = 8							; size = 4
_g$ = 12						; size = 4
_b$ = 16						; size = 4
_a$ = 20						; size = 4
?SetClearColor@CScreen@@QAEXMMMM@Z PROC			; CScreen::SetClearColor, COMDAT
; _this$ = ecx

; 600  : {

  00000	55		 push	 ebp
  00001	8b ec		 mov	 ebp, esp

; 601  : 	ms_clearColor = GetColor(r, g, b, a);

  00003	f3 0f 10 45 14	 movss	 xmm0, DWORD PTR _a$[ebp]
  00008	83 ec 10	 sub	 esp, 16			; 00000010H
  0000b	f3 0f 11 44 24
	0c		 movss	 DWORD PTR [esp+12], xmm0
  00011	f3 0f 10 45 10	 movss	 xmm0, DWORD PTR _b$[ebp]
  00016	f3 0f 11 44 24
	08		 movss	 DWORD PTR [esp+8], xmm0
  0001c	f3 0f 10 45 0c	 movss	 xmm0, DWORD PTR _g$[ebp]
  00021	f3 0f 11 44 24
	04		 movss	 DWORD PTR [esp+4], xmm0
  00027	f3 0f 10 45 08	 movss	 xmm0, DWORD PTR _r$[ebp]
  0002c	f3 0f 11 04 24	 movss	 DWORD PTR [esp], xmm0
  00031	e8 00 00 00 00	 call	 ?GetColor@CGraphicBase@@QAEKMMMM@Z ; CGraphicBase::GetColor
  00036	a3 00 00 00 00	 mov	 DWORD PTR ?ms_clearColor@CScreen@@1KA, eax ; CScreen::ms_clearColor

; 602  : }

  0003b	5d		 pop	 ebp
  0003c	c2 10 00	 ret	 16			; 00000010H
?SetClearColor@CScreen@@QAEXMMMM@Z ENDP			; CScreen::SetClearColor
_TEXT	ENDS
; Function compile flags: /Ogtp
; File C:\DS Project\DS Files\Source\ClientSource\Client\EterLib\GrpScreen.cpp
;	COMDAT ?SetDiffuseColor@CScreen@@QAEXMMMM@Z
_TEXT	SEGMENT
_r$ = 8							; size = 4
_g$ = 12						; size = 4
_b$ = 16						; size = 4
_a$ = 20						; size = 4
?SetDiffuseColor@CScreen@@QAEXMMMM@Z PROC		; CScreen::SetDiffuseColor, COMDAT
; _this$ = ecx

; 595  : {

  00000	55		 push	 ebp
  00001	8b ec		 mov	 ebp, esp

; 596  : 	ms_diffuseColor = GetColor(r, g, b, a);

  00003	f3 0f 10 45 14	 movss	 xmm0, DWORD PTR _a$[ebp]
  00008	83 ec 10	 sub	 esp, 16			; 00000010H
  0000b	f3 0f 11 44 24
	0c		 movss	 DWORD PTR [esp+12], xmm0
  00011	f3 0f 10 45 10	 movss	 xmm0, DWORD PTR _b$[ebp]
  00016	f3 0f 11 44 24
	08		 movss	 DWORD PTR [esp+8], xmm0
  0001c	f3 0f 10 45 0c	 movss	 xmm0, DWORD PTR _g$[ebp]
  00021	f3 0f 11 44 24
	04		 movss	 DWORD PTR [esp+4], xmm0
  00027	f3 0f 10 45 08	 movss	 xmm0, DWORD PTR _r$[ebp]
  0002c	f3 0f 11 04 24	 movss	 DWORD PTR [esp], xmm0
  00031	e8 00 00 00 00	 call	 ?GetColor@CGraphicBase@@QAEKMMMM@Z ; CGraphicBase::GetColor
  00036	a3 00 00 00 00	 mov	 DWORD PTR ?ms_diffuseColor@CScreen@@1KA, eax ; CScreen::ms_diffuseColor

; 597  : }

  0003b	5d		 pop	 ebp
  0003c	c2 10 00	 ret	 16			; 00000010H
?SetDiffuseColor@CScreen@@QAEXMMMM@Z ENDP		; CScreen::SetDiffuseColor
_TEXT	ENDS
; Function compile flags: /Ogtp
; File C:\DS Project\DS Files\Source\ClientSource\Client\EterLib\GrpScreen.cpp
;	COMDAT ?SetDiffuseColor@CScreen@@QAEXK@Z
_TEXT	SEGMENT
_diffuseColor$ = 8					; size = 4
?SetDiffuseColor@CScreen@@QAEXK@Z PROC			; CScreen::SetDiffuseColor, COMDAT
; _this$ = ecx

; 590  : {

  00000	55		 push	 ebp
  00001	8b ec		 mov	 ebp, esp

; 591  : 	ms_diffuseColor = diffuseColor;

  00003	8b 45 08	 mov	 eax, DWORD PTR _diffuseColor$[ebp]
  00006	a3 00 00 00 00	 mov	 DWORD PTR ?ms_diffuseColor@CScreen@@1KA, eax ; CScreen::ms_diffuseColor

; 592  : }

  0000b	5d		 pop	 ebp
  0000c	c2 04 00	 ret	 4
?SetDiffuseColor@CScreen@@QAEXK@Z ENDP			; CScreen::SetDiffuseColor
_TEXT	ENDS
; Function compile flags: /Ogtp
; File C:\DS Project\DS Files\Source\ClientSource\Client\EterLib\GrpScreen.cpp
; File C:\DS Project\DS Files\Source\ClientSource\extern\include\d3dx8math.inl
; File C:\DS Project\DS Files\Source\ClientSource\Client\EterLib\GrpScreen.cpp
; File C:\DS Project\DS Files\Source\ClientSource\extern\include\d3dx8math.inl
; File C:\DS Project\DS Files\Source\ClientSource\Client\EterLib\GrpScreen.cpp
; File C:\DS Project\DS Files\Source\ClientSource\extern\include\d3dx8math.inl
; File C:\DS Project\DS Files\Source\ClientSource\Client\EterLib\GrpScreen.cpp
;	COMDAT ?SetAddColorOperation@CScreen@@QAEXAAUD3DXCOLOR@@@Z
_TEXT	SEGMENT
_dwR$1$ = 8						; size = 4
_rColor$ = 8						; size = 4
?SetAddColorOperation@CScreen@@QAEXAAUD3DXCOLOR@@@Z PROC ; CScreen::SetAddColorOperation, COMDAT
; _this$ = ecx

; 823  : {

  00000	55		 push	 ebp
  00001	8b ec		 mov	 ebp, esp
; File C:\DS Project\DS Files\Source\ClientSource\extern\include\d3dx8math.inl

; 931  :     DWORD dwR = r >= 1.0f ? 0xff : r <= 0.0f ? 0x00 : (DWORD) (r * 255.0f + 0.5f);

  00003	f3 0f 10 1d 00
	00 00 00	 movss	 xmm3, DWORD PTR __real@437f0000
  0000b	0f 57 c9	 xorps	 xmm1, xmm1
  0000e	f3 0f 10 25 00
	00 00 00	 movss	 xmm4, DWORD PTR __real@3f000000
; File C:\DS Project\DS Files\Source\ClientSource\Client\EterLib\GrpScreen.cpp

; 823  : {

  00016	53		 push	 ebx
  00017	56		 push	 esi
  00018	57		 push	 edi
; File C:\DS Project\DS Files\Source\ClientSource\extern\include\d3dx8math.inl

; 931  :     DWORD dwR = r >= 1.0f ? 0xff : r <= 0.0f ? 0x00 : (DWORD) (r * 255.0f + 0.5f);

  00019	8b 7d 08	 mov	 edi, DWORD PTR _rColor$[ebp]
  0001c	f3 0f 10 07	 movss	 xmm0, DWORD PTR [edi]
  00020	0f 2f 05 00 00
	00 00		 comiss	 xmm0, DWORD PTR __real@3f800000
  00027	72 09		 jb	 SHORT $LN7@SetAddColo
  00029	c7 45 08 ff 00
	00 00		 mov	 DWORD PTR _dwR$1$[ebp], 255 ; 000000ffH
  00030	eb 31		 jmp	 SHORT $LN6@SetAddColo
$LN7@SetAddColo:
  00032	0f 2f c8	 comiss	 xmm1, xmm0
  00035	72 09		 jb	 SHORT $LN5@SetAddColo
  00037	c7 45 08 00 00
	00 00		 mov	 DWORD PTR _dwR$1$[ebp], 0
  0003e	eb 23		 jmp	 SHORT $LN6@SetAddColo
$LN5@SetAddColo:
  00040	f3 0f 59 c3	 mulss	 xmm0, xmm3
  00044	f3 0f 58 c4	 addss	 xmm0, xmm4
  00048	e8 00 00 00 00	 call	 __ftoui3
  0004d	f3 0f 10 1d 00
	00 00 00	 movss	 xmm3, DWORD PTR __real@437f0000
  00055	0f 57 c9	 xorps	 xmm1, xmm1
  00058	f3 0f 10 25 00
	00 00 00	 movss	 xmm4, DWORD PTR __real@3f000000
  00060	89 45 08	 mov	 DWORD PTR _dwR$1$[ebp], eax
$LN6@SetAddColo:

; 932  :     DWORD dwG = g >= 1.0f ? 0xff : g <= 0.0f ? 0x00 : (DWORD) (g * 255.0f + 0.5f);

  00063	f3 0f 10 47 04	 movss	 xmm0, DWORD PTR [edi+4]
  00068	0f 2f 05 00 00
	00 00		 comiss	 xmm0, DWORD PTR __real@3f800000
  0006f	72 07		 jb	 SHORT $LN11@SetAddColo
  00071	bb ff 00 00 00	 mov	 ebx, 255		; 000000ffH
  00076	eb 18		 jmp	 SHORT $LN10@SetAddColo
$LN11@SetAddColo:
  00078	0f 2f c8	 comiss	 xmm1, xmm0
  0007b	72 04		 jb	 SHORT $LN9@SetAddColo
  0007d	33 db		 xor	 ebx, ebx
  0007f	eb 0f		 jmp	 SHORT $LN10@SetAddColo
$LN9@SetAddColo:
  00081	f3 0f 59 c3	 mulss	 xmm0, xmm3
  00085	f3 0f 58 c4	 addss	 xmm0, xmm4
  00089	e8 00 00 00 00	 call	 __ftoui3
  0008e	8b d8		 mov	 ebx, eax
$LN10@SetAddColo:

; 933  :     DWORD dwB = b >= 1.0f ? 0xff : b <= 0.0f ? 0x00 : (DWORD) (b * 255.0f + 0.5f);

  00090	f3 0f 10 47 08	 movss	 xmm0, DWORD PTR [edi+8]
  00095	0f 57 c9	 xorps	 xmm1, xmm1
  00098	0f 2f 05 00 00
	00 00		 comiss	 xmm0, DWORD PTR __real@3f800000
  0009f	72 07		 jb	 SHORT $LN15@SetAddColo
  000a1	be ff 00 00 00	 mov	 esi, 255		; 000000ffH
  000a6	eb 23		 jmp	 SHORT $LN14@SetAddColo
$LN15@SetAddColo:
  000a8	0f 2f c8	 comiss	 xmm1, xmm0
  000ab	72 04		 jb	 SHORT $LN13@SetAddColo
  000ad	33 f6		 xor	 esi, esi
  000af	eb 1a		 jmp	 SHORT $LN14@SetAddColo
$LN13@SetAddColo:
  000b1	f3 0f 59 05 00
	00 00 00	 mulss	 xmm0, DWORD PTR __real@437f0000
  000b9	f3 0f 58 05 00
	00 00 00	 addss	 xmm0, DWORD PTR __real@3f000000
  000c1	e8 00 00 00 00	 call	 __ftoui3
  000c6	8b f0		 mov	 esi, eax
  000c8	0f 57 c9	 xorps	 xmm1, xmm1
$LN14@SetAddColo:

; 934  :     DWORD dwA = a >= 1.0f ? 0xff : a <= 0.0f ? 0x00 : (DWORD) (a * 255.0f + 0.5f);

  000cb	f3 0f 10 47 0c	 movss	 xmm0, DWORD PTR [edi+12]
  000d0	0f 2f 05 00 00
	00 00		 comiss	 xmm0, DWORD PTR __real@3f800000
  000d7	72 07		 jb	 SHORT $LN19@SetAddColo
  000d9	b8 ff 00 00 00	 mov	 eax, 255		; 000000ffH
  000de	eb 1e		 jmp	 SHORT $LN18@SetAddColo
$LN19@SetAddColo:
  000e0	0f 2f c8	 comiss	 xmm1, xmm0
  000e3	72 04		 jb	 SHORT $LN17@SetAddColo
  000e5	33 c0		 xor	 eax, eax
  000e7	eb 15		 jmp	 SHORT $LN18@SetAddColo
$LN17@SetAddColo:
  000e9	f3 0f 59 05 00
	00 00 00	 mulss	 xmm0, DWORD PTR __real@437f0000
  000f1	f3 0f 58 05 00
	00 00 00	 addss	 xmm0, DWORD PTR __real@3f000000
  000f9	e8 00 00 00 00	 call	 __ftoui3
$LN18@SetAddColo:
; File C:\DS Project\DS Files\Source\ClientSource\Client\EterLib\GrpScreen.cpp

; 824  : 	STATEMANAGER.SetRenderState(D3DRS_TEXTUREFACTOR, rColor);

  000fe	8b 0d 00 00 00
	00		 mov	 ecx, DWORD PTR ?ms_singleton@?$CSingleton@VCStateManager@@@@0PAVCStateManager@@A ; CSingleton<CStateManager>::ms_singleton
; File C:\DS Project\DS Files\Source\ClientSource\extern\include\d3dx8math.inl

; 936  :     return (dwA << 24) | (dwR << 16) | (dwG << 8) | dwB;

  00104	c1 e0 08	 shl	 eax, 8
  00107	0b 45 08	 or	 eax, DWORD PTR _dwR$1$[ebp]
  0010a	c1 e0 08	 shl	 eax, 8
  0010d	0b c3		 or	 eax, ebx
  0010f	c1 e0 08	 shl	 eax, 8
  00112	0b c6		 or	 eax, esi
; File C:\DS Project\DS Files\Source\ClientSource\Client\EterLib\GrpScreen.cpp

; 824  : 	STATEMANAGER.SetRenderState(D3DRS_TEXTUREFACTOR, rColor);

  00114	50		 push	 eax
  00115	6a 3c		 push	 60			; 0000003cH
  00117	e8 00 00 00 00	 call	 ?SetRenderState@CStateManager@@QAEXW4_D3DRENDERSTATETYPE@@K@Z ; CStateManager::SetRenderState

; 825  : 	STATEMANAGER.SetTextureStageState(0, D3DTSS_COLORARG1, D3DTA_TEXTURE);

  0011c	8b 0d 00 00 00
	00		 mov	 ecx, DWORD PTR ?ms_singleton@?$CSingleton@VCStateManager@@@@0PAVCStateManager@@A ; CSingleton<CStateManager>::ms_singleton
  00122	6a 02		 push	 2
  00124	6a 02		 push	 2
  00126	6a 00		 push	 0
  00128	e8 00 00 00 00	 call	 ?SetTextureStageState@CStateManager@@QAEXKW4_D3DTEXTURESTAGESTATETYPE@@K@Z ; CStateManager::SetTextureStageState

; 826  : 	STATEMANAGER.SetTextureStageState(0, D3DTSS_COLORARG2, D3DTA_TFACTOR);

  0012d	8b 0d 00 00 00
	00		 mov	 ecx, DWORD PTR ?ms_singleton@?$CSingleton@VCStateManager@@@@0PAVCStateManager@@A ; CSingleton<CStateManager>::ms_singleton
  00133	6a 03		 push	 3
  00135	6a 03		 push	 3
  00137	6a 00		 push	 0
  00139	e8 00 00 00 00	 call	 ?SetTextureStageState@CStateManager@@QAEXKW4_D3DTEXTURESTAGESTATETYPE@@K@Z ; CStateManager::SetTextureStageState

; 827  : 	STATEMANAGER.SetTextureStageState(0, D3DTSS_COLOROP, D3DTOP_ADD);

  0013e	8b 0d 00 00 00
	00		 mov	 ecx, DWORD PTR ?ms_singleton@?$CSingleton@VCStateManager@@@@0PAVCStateManager@@A ; CSingleton<CStateManager>::ms_singleton
  00144	6a 07		 push	 7
  00146	6a 01		 push	 1
  00148	6a 00		 push	 0
  0014a	e8 00 00 00 00	 call	 ?SetTextureStageState@CStateManager@@QAEXKW4_D3DTEXTURESTAGESTATETYPE@@K@Z ; CStateManager::SetTextureStageState
  0014f	5f		 pop	 edi
  00150	5e		 pop	 esi
  00151	5b		 pop	 ebx

; 828  : }

  00152	5d		 pop	 ebp
  00153	c2 04 00	 ret	 4
?SetAddColorOperation@CScreen@@QAEXAAUD3DXCOLOR@@@Z ENDP ; CScreen::SetAddColorOperation
_TEXT	ENDS
; Function compile flags: /Ogtp
; File C:\DS Project\DS Files\Source\ClientSource\Client\EterLib\GrpScreen.cpp
; File C:\DS Project\DS Files\Source\ClientSource\extern\include\d3dx8math.inl
; File C:\DS Project\DS Files\Source\ClientSource\Client\EterLib\GrpScreen.cpp
; File C:\DS Project\DS Files\Source\ClientSource\extern\include\d3dx8math.inl
; File C:\DS Project\DS Files\Source\ClientSource\Client\EterLib\GrpScreen.cpp
;	COMDAT ?SetOneColorOperation@CScreen@@QAEXAAUD3DXCOLOR@@@Z
_TEXT	SEGMENT
_rColor$ = 8						; size = 4
?SetOneColorOperation@CScreen@@QAEXAAUD3DXCOLOR@@@Z PROC ; CScreen::SetOneColorOperation, COMDAT
; _this$ = ecx

; 813  : {

  00000	55		 push	 ebp
  00001	8b ec		 mov	 ebp, esp

; 814  : 	STATEMANAGER.SetTexture(0, NULL);

  00003	8b 0d 00 00 00
	00		 mov	 ecx, DWORD PTR ?ms_singleton@?$CSingleton@VCStateManager@@@@0PAVCStateManager@@A ; CSingleton<CStateManager>::ms_singleton
  00009	53		 push	 ebx
  0000a	56		 push	 esi
  0000b	57		 push	 edi
  0000c	6a 00		 push	 0
  0000e	6a 00		 push	 0
  00010	e8 00 00 00 00	 call	 ?SetTexture@CStateManager@@QAEXKPAUIDirect3DBaseTexture8@@@Z ; CStateManager::SetTexture

; 815  : 	STATEMANAGER.SetTexture(1, NULL);

  00015	8b 0d 00 00 00
	00		 mov	 ecx, DWORD PTR ?ms_singleton@?$CSingleton@VCStateManager@@@@0PAVCStateManager@@A ; CSingleton<CStateManager>::ms_singleton
  0001b	6a 00		 push	 0
  0001d	6a 01		 push	 1
  0001f	e8 00 00 00 00	 call	 ?SetTexture@CStateManager@@QAEXKPAUIDirect3DBaseTexture8@@@Z ; CStateManager::SetTexture
; File C:\DS Project\DS Files\Source\ClientSource\extern\include\d3dx8math.inl

; 931  :     DWORD dwR = r >= 1.0f ? 0xff : r <= 0.0f ? 0x00 : (DWORD) (r * 255.0f + 0.5f);

  00024	8b 75 08	 mov	 esi, DWORD PTR _rColor$[ebp]
  00027	0f 57 c9	 xorps	 xmm1, xmm1
  0002a	f3 0f 10 1d 00
	00 00 00	 movss	 xmm3, DWORD PTR __real@437f0000
  00032	f3 0f 10 25 00
	00 00 00	 movss	 xmm4, DWORD PTR __real@3f000000
  0003a	f3 0f 10 06	 movss	 xmm0, DWORD PTR [esi]
  0003e	0f 2f 05 00 00
	00 00		 comiss	 xmm0, DWORD PTR __real@3f800000
  00045	72 07		 jb	 SHORT $LN7@SetOneColo
  00047	bb ff 00 00 00	 mov	 ebx, 255		; 000000ffH
  0004c	eb 2b		 jmp	 SHORT $LN6@SetOneColo
$LN7@SetOneColo:
  0004e	0f 2f c8	 comiss	 xmm1, xmm0
  00051	72 04		 jb	 SHORT $LN5@SetOneColo
  00053	33 db		 xor	 ebx, ebx
  00055	eb 22		 jmp	 SHORT $LN6@SetOneColo
$LN5@SetOneColo:
  00057	f3 0f 59 c3	 mulss	 xmm0, xmm3
  0005b	f3 0f 58 c4	 addss	 xmm0, xmm4
  0005f	e8 00 00 00 00	 call	 __ftoui3
  00064	f3 0f 10 1d 00
	00 00 00	 movss	 xmm3, DWORD PTR __real@437f0000
  0006c	8b d8		 mov	 ebx, eax
  0006e	f3 0f 10 25 00
	00 00 00	 movss	 xmm4, DWORD PTR __real@3f000000
  00076	0f 57 c9	 xorps	 xmm1, xmm1
$LN6@SetOneColo:

; 932  :     DWORD dwG = g >= 1.0f ? 0xff : g <= 0.0f ? 0x00 : (DWORD) (g * 255.0f + 0.5f);

  00079	f3 0f 10 46 04	 movss	 xmm0, DWORD PTR [esi+4]
  0007e	0f 2f 05 00 00
	00 00		 comiss	 xmm0, DWORD PTR __real@3f800000
  00085	72 07		 jb	 SHORT $LN11@SetOneColo
  00087	bf ff 00 00 00	 mov	 edi, 255		; 000000ffH
  0008c	eb 18		 jmp	 SHORT $LN10@SetOneColo
$LN11@SetOneColo:
  0008e	0f 2f c8	 comiss	 xmm1, xmm0
  00091	72 04		 jb	 SHORT $LN9@SetOneColo
  00093	33 ff		 xor	 edi, edi
  00095	eb 0f		 jmp	 SHORT $LN10@SetOneColo
$LN9@SetOneColo:
  00097	f3 0f 59 c3	 mulss	 xmm0, xmm3
  0009b	f3 0f 58 c4	 addss	 xmm0, xmm4
  0009f	e8 00 00 00 00	 call	 __ftoui3
  000a4	8b f8		 mov	 edi, eax
$LN10@SetOneColo:

; 933  :     DWORD dwB = b >= 1.0f ? 0xff : b <= 0.0f ? 0x00 : (DWORD) (b * 255.0f + 0.5f);

  000a6	f3 0f 10 46 08	 movss	 xmm0, DWORD PTR [esi+8]
  000ab	0f 57 c9	 xorps	 xmm1, xmm1
  000ae	0f 2f 05 00 00
	00 00		 comiss	 xmm0, DWORD PTR __real@3f800000
  000b5	72 07		 jb	 SHORT $LN15@SetOneColo
  000b7	be ff 00 00 00	 mov	 esi, 255		; 000000ffH
  000bc	eb 23		 jmp	 SHORT $LN14@SetOneColo
$LN15@SetOneColo:
  000be	0f 2f c8	 comiss	 xmm1, xmm0
  000c1	72 04		 jb	 SHORT $LN13@SetOneColo
  000c3	33 f6		 xor	 esi, esi
  000c5	eb 1a		 jmp	 SHORT $LN14@SetOneColo
$LN13@SetOneColo:
  000c7	f3 0f 59 05 00
	00 00 00	 mulss	 xmm0, DWORD PTR __real@437f0000
  000cf	f3 0f 58 05 00
	00 00 00	 addss	 xmm0, DWORD PTR __real@3f000000
  000d7	e8 00 00 00 00	 call	 __ftoui3
  000dc	8b f0		 mov	 esi, eax
  000de	0f 57 c9	 xorps	 xmm1, xmm1
$LN14@SetOneColo:

; 934  :     DWORD dwA = a >= 1.0f ? 0xff : a <= 0.0f ? 0x00 : (DWORD) (a * 255.0f + 0.5f);

  000e1	8b 45 08	 mov	 eax, DWORD PTR _rColor$[ebp]
  000e4	f3 0f 10 40 0c	 movss	 xmm0, DWORD PTR [eax+12]
  000e9	0f 2f 05 00 00
	00 00		 comiss	 xmm0, DWORD PTR __real@3f800000
  000f0	72 07		 jb	 SHORT $LN19@SetOneColo
  000f2	b8 ff 00 00 00	 mov	 eax, 255		; 000000ffH
  000f7	eb 1e		 jmp	 SHORT $LN18@SetOneColo
$LN19@SetOneColo:
  000f9	0f 2f c8	 comiss	 xmm1, xmm0
  000fc	72 04		 jb	 SHORT $LN17@SetOneColo
  000fe	33 c0		 xor	 eax, eax
  00100	eb 15		 jmp	 SHORT $LN18@SetOneColo
$LN17@SetOneColo:
  00102	f3 0f 59 05 00
	00 00 00	 mulss	 xmm0, DWORD PTR __real@437f0000
  0010a	f3 0f 58 05 00
	00 00 00	 addss	 xmm0, DWORD PTR __real@3f000000
  00112	e8 00 00 00 00	 call	 __ftoui3
$LN18@SetOneColo:
; File C:\DS Project\DS Files\Source\ClientSource\Client\EterLib\GrpScreen.cpp

; 817  : 	STATEMANAGER.SetRenderState(D3DRS_TEXTUREFACTOR, rColor);

  00117	8b 0d 00 00 00
	00		 mov	 ecx, DWORD PTR ?ms_singleton@?$CSingleton@VCStateManager@@@@0PAVCStateManager@@A ; CSingleton<CStateManager>::ms_singleton
; File C:\DS Project\DS Files\Source\ClientSource\extern\include\d3dx8math.inl

; 936  :     return (dwA << 24) | (dwR << 16) | (dwG << 8) | dwB;

  0011d	c1 e0 08	 shl	 eax, 8
  00120	0b c3		 or	 eax, ebx
  00122	c1 e0 08	 shl	 eax, 8
  00125	0b c7		 or	 eax, edi
  00127	c1 e0 08	 shl	 eax, 8
  0012a	0b c6		 or	 eax, esi
; File C:\DS Project\DS Files\Source\ClientSource\Client\EterLib\GrpScreen.cpp

; 817  : 	STATEMANAGER.SetRenderState(D3DRS_TEXTUREFACTOR, rColor);

  0012c	50		 push	 eax
  0012d	6a 3c		 push	 60			; 0000003cH
  0012f	e8 00 00 00 00	 call	 ?SetRenderState@CStateManager@@QAEXW4_D3DRENDERSTATETYPE@@K@Z ; CStateManager::SetRenderState

; 818  : 	STATEMANAGER.SetTextureStageState(0, D3DTSS_COLORARG1, D3DTA_TFACTOR);

  00134	8b 0d 00 00 00
	00		 mov	 ecx, DWORD PTR ?ms_singleton@?$CSingleton@VCStateManager@@@@0PAVCStateManager@@A ; CSingleton<CStateManager>::ms_singleton
  0013a	6a 03		 push	 3
  0013c	6a 02		 push	 2
  0013e	6a 00		 push	 0
  00140	e8 00 00 00 00	 call	 ?SetTextureStageState@CStateManager@@QAEXKW4_D3DTEXTURESTAGESTATETYPE@@K@Z ; CStateManager::SetTextureStageState

; 819  : 	STATEMANAGER.SetTextureStageState(0, D3DTSS_COLOROP, D3DTOP_SELECTARG1);

  00145	8b 0d 00 00 00
	00		 mov	 ecx, DWORD PTR ?ms_singleton@?$CSingleton@VCStateManager@@@@0PAVCStateManager@@A ; CSingleton<CStateManager>::ms_singleton
  0014b	6a 02		 push	 2
  0014d	6a 01		 push	 1
  0014f	6a 00		 push	 0
  00151	e8 00 00 00 00	 call	 ?SetTextureStageState@CStateManager@@QAEXKW4_D3DTEXTURESTAGESTATETYPE@@K@Z ; CStateManager::SetTextureStageState
  00156	5f		 pop	 edi
  00157	5e		 pop	 esi
  00158	5b		 pop	 ebx

; 820  : }

  00159	5d		 pop	 ebp
  0015a	c2 04 00	 ret	 4
?SetOneColorOperation@CScreen@@QAEXAAUD3DXCOLOR@@@Z ENDP ; CScreen::SetOneColorOperation
_TEXT	ENDS
; Function compile flags: /Ogtp
; File C:\DS Project\DS Files\Source\ClientSource\Client\EterLib\GrpScreen.cpp
;	COMDAT ?SetBlendOperation@CScreen@@QAEXXZ
_TEXT	SEGMENT
?SetBlendOperation@CScreen@@QAEXXZ PROC			; CScreen::SetBlendOperation, COMDAT
; _this$ = ecx

; 801  : 	STATEMANAGER.SetTexture(0, NULL);

  00000	8b 0d 00 00 00
	00		 mov	 ecx, DWORD PTR ?ms_singleton@?$CSingleton@VCStateManager@@@@0PAVCStateManager@@A ; CSingleton<CStateManager>::ms_singleton
  00006	6a 00		 push	 0
  00008	6a 00		 push	 0
  0000a	e8 00 00 00 00	 call	 ?SetTexture@CStateManager@@QAEXKPAUIDirect3DBaseTexture8@@@Z ; CStateManager::SetTexture

; 802  : 	STATEMANAGER.SetTextureStageState(0, D3DTSS_COLORARG1,	D3DTA_TEXTURE);

  0000f	8b 0d 00 00 00
	00		 mov	 ecx, DWORD PTR ?ms_singleton@?$CSingleton@VCStateManager@@@@0PAVCStateManager@@A ; CSingleton<CStateManager>::ms_singleton
  00015	6a 02		 push	 2
  00017	6a 02		 push	 2
  00019	6a 00		 push	 0
  0001b	e8 00 00 00 00	 call	 ?SetTextureStageState@CStateManager@@QAEXKW4_D3DTEXTURESTAGESTATETYPE@@K@Z ; CStateManager::SetTextureStageState

; 803  : 	STATEMANAGER.SetTextureStageState(0, D3DTSS_COLORARG2,	D3DTA_CURRENT);

  00020	8b 0d 00 00 00
	00		 mov	 ecx, DWORD PTR ?ms_singleton@?$CSingleton@VCStateManager@@@@0PAVCStateManager@@A ; CSingleton<CStateManager>::ms_singleton
  00026	6a 01		 push	 1
  00028	6a 03		 push	 3
  0002a	6a 00		 push	 0
  0002c	e8 00 00 00 00	 call	 ?SetTextureStageState@CStateManager@@QAEXKW4_D3DTEXTURESTAGESTATETYPE@@K@Z ; CStateManager::SetTextureStageState

; 804  : 	STATEMANAGER.SetTextureStageState(0, D3DTSS_COLOROP,	D3DTOP_MODULATE);

  00031	8b 0d 00 00 00
	00		 mov	 ecx, DWORD PTR ?ms_singleton@?$CSingleton@VCStateManager@@@@0PAVCStateManager@@A ; CSingleton<CStateManager>::ms_singleton
  00037	6a 04		 push	 4
  00039	6a 01		 push	 1
  0003b	6a 00		 push	 0
  0003d	e8 00 00 00 00	 call	 ?SetTextureStageState@CStateManager@@QAEXKW4_D3DTEXTURESTAGESTATETYPE@@K@Z ; CStateManager::SetTextureStageState

; 805  : 	STATEMANAGER.SetTextureStageState(0, D3DTSS_ALPHAARG1,	D3DTA_TEXTURE);

  00042	8b 0d 00 00 00
	00		 mov	 ecx, DWORD PTR ?ms_singleton@?$CSingleton@VCStateManager@@@@0PAVCStateManager@@A ; CSingleton<CStateManager>::ms_singleton
  00048	6a 02		 push	 2
  0004a	6a 05		 push	 5
  0004c	6a 00		 push	 0
  0004e	e8 00 00 00 00	 call	 ?SetTextureStageState@CStateManager@@QAEXKW4_D3DTEXTURESTAGESTATETYPE@@K@Z ; CStateManager::SetTextureStageState

; 806  : 	STATEMANAGER.SetTextureStageState(0, D3DTSS_ALPHAARG2,	D3DTA_CURRENT);

  00053	8b 0d 00 00 00
	00		 mov	 ecx, DWORD PTR ?ms_singleton@?$CSingleton@VCStateManager@@@@0PAVCStateManager@@A ; CSingleton<CStateManager>::ms_singleton
  00059	6a 01		 push	 1
  0005b	6a 06		 push	 6
  0005d	6a 00		 push	 0
  0005f	e8 00 00 00 00	 call	 ?SetTextureStageState@CStateManager@@QAEXKW4_D3DTEXTURESTAGESTATETYPE@@K@Z ; CStateManager::SetTextureStageState

; 807  : 	STATEMANAGER.SetTextureStageState(0, D3DTSS_ALPHAOP,	D3DTOP_MODULATE);

  00064	8b 0d 00 00 00
	00		 mov	 ecx, DWORD PTR ?ms_singleton@?$CSingleton@VCStateManager@@@@0PAVCStateManager@@A ; CSingleton<CStateManager>::ms_singleton
  0006a	6a 04		 push	 4
  0006c	6a 04		 push	 4
  0006e	6a 00		 push	 0
  00070	e8 00 00 00 00	 call	 ?SetTextureStageState@CStateManager@@QAEXKW4_D3DTEXTURESTAGESTATETYPE@@K@Z ; CStateManager::SetTextureStageState

; 808  : 	STATEMANAGER.SetTextureStageState(1, D3DTSS_COLOROP,	D3DTOP_DISABLE);

  00075	8b 0d 00 00 00
	00		 mov	 ecx, DWORD PTR ?ms_singleton@?$CSingleton@VCStateManager@@@@0PAVCStateManager@@A ; CSingleton<CStateManager>::ms_singleton
  0007b	6a 01		 push	 1
  0007d	6a 01		 push	 1
  0007f	6a 01		 push	 1
  00081	e8 00 00 00 00	 call	 ?SetTextureStageState@CStateManager@@QAEXKW4_D3DTEXTURESTAGESTATETYPE@@K@Z ; CStateManager::SetTextureStageState

; 809  : 	STATEMANAGER.SetTextureStageState(1, D3DTSS_ALPHAOP,	D3DTOP_DISABLE);

  00086	8b 0d 00 00 00
	00		 mov	 ecx, DWORD PTR ?ms_singleton@?$CSingleton@VCStateManager@@@@0PAVCStateManager@@A ; CSingleton<CStateManager>::ms_singleton
  0008c	6a 01		 push	 1
  0008e	6a 04		 push	 4
  00090	6a 01		 push	 1
  00092	e8 00 00 00 00	 call	 ?SetTextureStageState@CStateManager@@QAEXKW4_D3DTEXTURESTAGESTATETYPE@@K@Z ; CStateManager::SetTextureStageState

; 810  : }

  00097	c3		 ret	 0
?SetBlendOperation@CScreen@@QAEXXZ ENDP			; CScreen::SetBlendOperation
_TEXT	ENDS
; Function compile flags: /Ogtp
; File C:\DS Project\DS Files\Source\ClientSource\Client\EterLib\GrpScreen.cpp
;	COMDAT ?SetDiffuseOperation@CScreen@@QAEXXZ
_TEXT	SEGMENT
?SetDiffuseOperation@CScreen@@QAEXXZ PROC		; CScreen::SetDiffuseOperation, COMDAT
; _this$ = ecx

; 790  : 	STATEMANAGER.SetTexture(0, NULL);

  00000	8b 0d 00 00 00
	00		 mov	 ecx, DWORD PTR ?ms_singleton@?$CSingleton@VCStateManager@@@@0PAVCStateManager@@A ; CSingleton<CStateManager>::ms_singleton
  00006	6a 00		 push	 0
  00008	6a 00		 push	 0
  0000a	e8 00 00 00 00	 call	 ?SetTexture@CStateManager@@QAEXKPAUIDirect3DBaseTexture8@@@Z ; CStateManager::SetTexture

; 791  : 	STATEMANAGER.SetTextureStageState(0, D3DTSS_COLORARG1,	D3DTA_TEXTURE);

  0000f	8b 0d 00 00 00
	00		 mov	 ecx, DWORD PTR ?ms_singleton@?$CSingleton@VCStateManager@@@@0PAVCStateManager@@A ; CSingleton<CStateManager>::ms_singleton
  00015	6a 02		 push	 2
  00017	6a 02		 push	 2
  00019	6a 00		 push	 0
  0001b	e8 00 00 00 00	 call	 ?SetTextureStageState@CStateManager@@QAEXKW4_D3DTEXTURESTAGESTATETYPE@@K@Z ; CStateManager::SetTextureStageState

; 792  : 	STATEMANAGER.SetTextureStageState(0, D3DTSS_COLORARG2,	D3DTA_DIFFUSE);

  00020	8b 0d 00 00 00
	00		 mov	 ecx, DWORD PTR ?ms_singleton@?$CSingleton@VCStateManager@@@@0PAVCStateManager@@A ; CSingleton<CStateManager>::ms_singleton
  00026	6a 00		 push	 0
  00028	6a 03		 push	 3
  0002a	6a 00		 push	 0
  0002c	e8 00 00 00 00	 call	 ?SetTextureStageState@CStateManager@@QAEXKW4_D3DTEXTURESTAGESTATETYPE@@K@Z ; CStateManager::SetTextureStageState

; 793  : 	STATEMANAGER.SetTextureStageState(0, D3DTSS_COLOROP,	D3DTOP_MODULATE);

  00031	8b 0d 00 00 00
	00		 mov	 ecx, DWORD PTR ?ms_singleton@?$CSingleton@VCStateManager@@@@0PAVCStateManager@@A ; CSingleton<CStateManager>::ms_singleton
  00037	6a 04		 push	 4
  00039	6a 01		 push	 1
  0003b	6a 00		 push	 0
  0003d	e8 00 00 00 00	 call	 ?SetTextureStageState@CStateManager@@QAEXKW4_D3DTEXTURESTAGESTATETYPE@@K@Z ; CStateManager::SetTextureStageState

; 794  : 
; 795  : 	STATEMANAGER.SetTextureStageState(1, D3DTSS_COLOROP,	D3DTOP_DISABLE);

  00042	8b 0d 00 00 00
	00		 mov	 ecx, DWORD PTR ?ms_singleton@?$CSingleton@VCStateManager@@@@0PAVCStateManager@@A ; CSingleton<CStateManager>::ms_singleton
  00048	6a 01		 push	 1
  0004a	6a 01		 push	 1
  0004c	6a 01		 push	 1
  0004e	e8 00 00 00 00	 call	 ?SetTextureStageState@CStateManager@@QAEXKW4_D3DTEXTURESTAGESTATETYPE@@K@Z ; CStateManager::SetTextureStageState

; 796  : 	STATEMANAGER.SetTextureStageState(1, D3DTSS_ALPHAOP,	D3DTOP_DISABLE);

  00053	8b 0d 00 00 00
	00		 mov	 ecx, DWORD PTR ?ms_singleton@?$CSingleton@VCStateManager@@@@0PAVCStateManager@@A ; CSingleton<CStateManager>::ms_singleton
  00059	6a 01		 push	 1
  0005b	6a 04		 push	 4
  0005d	6a 01		 push	 1
  0005f	e8 00 00 00 00	 call	 ?SetTextureStageState@CStateManager@@QAEXKW4_D3DTEXTURESTAGESTATETYPE@@K@Z ; CStateManager::SetTextureStageState

; 797  : }

  00064	c3		 ret	 0
?SetDiffuseOperation@CScreen@@QAEXXZ ENDP		; CScreen::SetDiffuseOperation
_TEXT	ENDS
; Function compile flags: /Ogtp
; File C:\DS Project\DS Files\Source\ClientSource\Client\EterLib\GrpScreen.cpp
;	COMDAT ?SetColorOperation@CScreen@@QAEXXZ
_TEXT	SEGMENT
?SetColorOperation@CScreen@@QAEXXZ PROC			; CScreen::SetColorOperation, COMDAT
; _this$ = ecx

; 780  : 	STATEMANAGER.SetTexture(0, NULL);

  00000	8b 0d 00 00 00
	00		 mov	 ecx, DWORD PTR ?ms_singleton@?$CSingleton@VCStateManager@@@@0PAVCStateManager@@A ; CSingleton<CStateManager>::ms_singleton
  00006	6a 00		 push	 0
  00008	6a 00		 push	 0
  0000a	e8 00 00 00 00	 call	 ?SetTexture@CStateManager@@QAEXKPAUIDirect3DBaseTexture8@@@Z ; CStateManager::SetTexture

; 781  : 	STATEMANAGER.SetTextureStageState(0, D3DTSS_COLORARG1,	D3DTA_DIFFUSE);

  0000f	8b 0d 00 00 00
	00		 mov	 ecx, DWORD PTR ?ms_singleton@?$CSingleton@VCStateManager@@@@0PAVCStateManager@@A ; CSingleton<CStateManager>::ms_singleton
  00015	6a 00		 push	 0
  00017	6a 02		 push	 2
  00019	6a 00		 push	 0
  0001b	e8 00 00 00 00	 call	 ?SetTextureStageState@CStateManager@@QAEXKW4_D3DTEXTURESTAGESTATETYPE@@K@Z ; CStateManager::SetTextureStageState

; 782  : 	STATEMANAGER.SetTextureStageState(0, D3DTSS_COLOROP,	D3DTOP_SELECTARG1);

  00020	8b 0d 00 00 00
	00		 mov	 ecx, DWORD PTR ?ms_singleton@?$CSingleton@VCStateManager@@@@0PAVCStateManager@@A ; CSingleton<CStateManager>::ms_singleton
  00026	6a 02		 push	 2
  00028	6a 01		 push	 1
  0002a	6a 00		 push	 0
  0002c	e8 00 00 00 00	 call	 ?SetTextureStageState@CStateManager@@QAEXKW4_D3DTEXTURESTAGESTATETYPE@@K@Z ; CStateManager::SetTextureStageState

; 783  : 	STATEMANAGER.SetTextureStageState(0, D3DTSS_ALPHAOP,	D3DTOP_DISABLE);

  00031	8b 0d 00 00 00
	00		 mov	 ecx, DWORD PTR ?ms_singleton@?$CSingleton@VCStateManager@@@@0PAVCStateManager@@A ; CSingleton<CStateManager>::ms_singleton
  00037	6a 01		 push	 1
  00039	6a 04		 push	 4
  0003b	6a 00		 push	 0
  0003d	e8 00 00 00 00	 call	 ?SetTextureStageState@CStateManager@@QAEXKW4_D3DTEXTURESTAGESTATETYPE@@K@Z ; CStateManager::SetTextureStageState

; 784  : 	STATEMANAGER.SetTextureStageState(1, D3DTSS_COLOROP,	D3DTOP_DISABLE);

  00042	8b 0d 00 00 00
	00		 mov	 ecx, DWORD PTR ?ms_singleton@?$CSingleton@VCStateManager@@@@0PAVCStateManager@@A ; CSingleton<CStateManager>::ms_singleton
  00048	6a 01		 push	 1
  0004a	6a 01		 push	 1
  0004c	6a 01		 push	 1
  0004e	e8 00 00 00 00	 call	 ?SetTextureStageState@CStateManager@@QAEXKW4_D3DTEXTURESTAGESTATETYPE@@K@Z ; CStateManager::SetTextureStageState

; 785  : 	STATEMANAGER.SetTextureStageState(1, D3DTSS_ALPHAOP,	D3DTOP_DISABLE);

  00053	8b 0d 00 00 00
	00		 mov	 ecx, DWORD PTR ?ms_singleton@?$CSingleton@VCStateManager@@@@0PAVCStateManager@@A ; CSingleton<CStateManager>::ms_singleton
  00059	6a 01		 push	 1
  0005b	6a 04		 push	 4
  0005d	6a 01		 push	 1
  0005f	e8 00 00 00 00	 call	 ?SetTextureStageState@CStateManager@@QAEXKW4_D3DTEXTURESTAGESTATETYPE@@K@Z ; CStateManager::SetTextureStageState

; 786  : }

  00064	c3		 ret	 0
?SetColorOperation@CScreen@@QAEXXZ ENDP			; CScreen::SetColorOperation
_TEXT	ENDS
; Function compile flags: /Ogtp
; File C:\DS Project\DS Files\Source\ClientSource\Client\EterLib\GrpScreen.cpp
;	COMDAT ?RenderCylinder@CScreen@@QAEXPBUD3DXMATRIX@@MMMMMW4_D3DFILLMODE@@@Z
_TEXT	SEGMENT
_c_pmatWorld$ = 8					; size = 4
_fx$ = 12						; size = 4
_fy$ = 16						; size = 4
_fz$ = 20						; size = 4
_fRadius$ = 24						; size = 4
___formal$ = 28						; size = 4
_d3dFillMode$ = 32					; size = 4
?RenderCylinder@CScreen@@QAEXPBUD3DXMATRIX@@MMMMMW4_D3DFILLMODE@@@Z PROC ; CScreen::RenderCylinder, COMDAT
; _this$ = ecx

; 375  : {

  00000	55		 push	 ebp
  00001	8b ec		 mov	 ebp, esp

; 376  : 	RenderD3DXMesh(ms_lpCylinderMesh, c_pmatWorld, fx, fy, fz, fRadius, d3dFillMode);

  00003	ff 75 20	 push	 DWORD PTR _d3dFillMode$[ebp]
  00006	f3 0f 10 45 18	 movss	 xmm0, DWORD PTR _fRadius$[ebp]
  0000b	83 ec 10	 sub	 esp, 16			; 00000010H
  0000e	f3 0f 11 44 24
	0c		 movss	 DWORD PTR [esp+12], xmm0
  00014	f3 0f 10 45 14	 movss	 xmm0, DWORD PTR _fz$[ebp]
  00019	f3 0f 11 44 24
	08		 movss	 DWORD PTR [esp+8], xmm0
  0001f	f3 0f 10 45 10	 movss	 xmm0, DWORD PTR _fy$[ebp]
  00024	f3 0f 11 44 24
	04		 movss	 DWORD PTR [esp+4], xmm0
  0002a	f3 0f 10 45 0c	 movss	 xmm0, DWORD PTR _fx$[ebp]
  0002f	f3 0f 11 04 24	 movss	 DWORD PTR [esp], xmm0
  00034	ff 75 08	 push	 DWORD PTR _c_pmatWorld$[ebp]
  00037	ff 35 00 00 00
	00		 push	 DWORD PTR ?ms_lpCylinderMesh@CGraphicBase@@1PAUID3DXMesh@@A ; CGraphicBase::ms_lpCylinderMesh
  0003d	e8 00 00 00 00	 call	 ?RenderD3DXMesh@CScreen@@QAEXPAUID3DXMesh@@PBUD3DXMATRIX@@MMMMW4_D3DFILLMODE@@@Z ; CScreen::RenderD3DXMesh

; 377  : }

  00042	5d		 pop	 ebp
  00043	c2 1c 00	 ret	 28			; 0000001cH
?RenderCylinder@CScreen@@QAEXPBUD3DXMATRIX@@MMMMMW4_D3DFILLMODE@@@Z ENDP ; CScreen::RenderCylinder
_TEXT	ENDS
; Function compile flags: /Ogtp
; File C:\DS Project\DS Files\Source\ClientSource\Client\EterLib\GrpScreen.cpp
;	COMDAT ?RenderSphere@CScreen@@QAEXPBUD3DXMATRIX@@MMMMW4_D3DFILLMODE@@@Z
_TEXT	SEGMENT
_c_pmatWorld$ = 8					; size = 4
_fx$ = 12						; size = 4
_fy$ = 16						; size = 4
_fz$ = 20						; size = 4
_fRadius$ = 24						; size = 4
_d3dFillMode$ = 28					; size = 4
?RenderSphere@CScreen@@QAEXPBUD3DXMATRIX@@MMMMW4_D3DFILLMODE@@@Z PROC ; CScreen::RenderSphere, COMDAT
; _this$ = ecx

; 370  : {

  00000	55		 push	 ebp
  00001	8b ec		 mov	 ebp, esp

; 371  : 	RenderD3DXMesh(ms_lpSphereMesh, c_pmatWorld, fx, fy, fz, fRadius, d3dFillMode);

  00003	ff 75 1c	 push	 DWORD PTR _d3dFillMode$[ebp]
  00006	f3 0f 10 45 18	 movss	 xmm0, DWORD PTR _fRadius$[ebp]
  0000b	83 ec 10	 sub	 esp, 16			; 00000010H
  0000e	f3 0f 11 44 24
	0c		 movss	 DWORD PTR [esp+12], xmm0
  00014	f3 0f 10 45 14	 movss	 xmm0, DWORD PTR _fz$[ebp]
  00019	f3 0f 11 44 24
	08		 movss	 DWORD PTR [esp+8], xmm0
  0001f	f3 0f 10 45 10	 movss	 xmm0, DWORD PTR _fy$[ebp]
  00024	f3 0f 11 44 24
	04		 movss	 DWORD PTR [esp+4], xmm0
  0002a	f3 0f 10 45 0c	 movss	 xmm0, DWORD PTR _fx$[ebp]
  0002f	f3 0f 11 04 24	 movss	 DWORD PTR [esp], xmm0
  00034	ff 75 08	 push	 DWORD PTR _c_pmatWorld$[ebp]
  00037	ff 35 00 00 00
	00		 push	 DWORD PTR ?ms_lpSphereMesh@CGraphicBase@@1PAUID3DXMesh@@A ; CGraphicBase::ms_lpSphereMesh
  0003d	e8 00 00 00 00	 call	 ?RenderD3DXMesh@CScreen@@QAEXPAUID3DXMesh@@PBUD3DXMATRIX@@MMMMW4_D3DFILLMODE@@@Z ; CScreen::RenderD3DXMesh

; 372  : }

  00042	5d		 pop	 ebp
  00043	c2 18 00	 ret	 24			; 00000018H
?RenderSphere@CScreen@@QAEXPBUD3DXMATRIX@@MMMMW4_D3DFILLMODE@@@Z ENDP ; CScreen::RenderSphere
_TEXT	ENDS
; Function compile flags: /Ogtp
; File C:\DS Project\DS Files\Source\ClientSource\Client\EterLib\GrpScreen.cpp
; File C:\DS Project\DS Files\Source\ClientSource\extern\include\d3dx8math.inl
; File C:\DS Project\DS Files\Source\ClientSource\Client\EterLib\GrpScreen.cpp
; File C:\DS Project\DS Files\Source\ClientSource\extern\include\d3dx8math.inl
; File C:\DS Project\DS Files\Source\ClientSource\Client\EterLib\GrpScreen.cpp
;	COMDAT ?RenderD3DXMesh@CScreen@@QAEXPAUID3DXMesh@@PBUD3DXMATRIX@@MMMMW4_D3DFILLMODE@@@Z
_TEXT	SEGMENT
_SetRenderingOption$ = -292				; size = 8
_lpVertexBuffer$ = -284					; size = 4
_lpIndexBuffer$ = -280					; size = 4
_d3dFillMode$GSCopy$1$ = -276				; size = 4
_matScaling$ = -272					; size = 64
_matTranslation$ = -208					; size = 64
$T2 = -144						; size = 64
_matWorld$ = -80					; size = 64
__$ArrayPad$ = -16					; size = 4
__$EHRec$ = -12						; size = 12
_lpMesh$ = 8						; size = 4
_c_pmatWorld$ = 12					; size = 4
_fx$ = 16						; size = 4
_fy$ = 20						; size = 4
_fz$ = 24						; size = 4
_fRadius$ = 28						; size = 4
_d3dFillMode$ = 32					; size = 4
?RenderD3DXMesh@CScreen@@QAEXPAUID3DXMesh@@PBUD3DXMATRIX@@MMMMW4_D3DFILLMODE@@@Z PROC ; CScreen::RenderD3DXMesh, COMDAT
; _this$ = ecx

; 343  : {

  00000	55		 push	 ebp
  00001	8b ec		 mov	 ebp, esp
  00003	6a ff		 push	 -1
  00005	68 00 00 00 00	 push	 __ehhandler$?RenderD3DXMesh@CScreen@@QAEXPAUID3DXMesh@@PBUD3DXMATRIX@@MMMMW4_D3DFILLMODE@@@Z
  0000a	64 a1 00 00 00
	00		 mov	 eax, DWORD PTR fs:0
  00010	50		 push	 eax
  00011	81 ec 18 01 00
	00		 sub	 esp, 280		; 00000118H
  00017	a1 00 00 00 00	 mov	 eax, DWORD PTR ___security_cookie
  0001c	33 c5		 xor	 eax, ebp
  0001e	89 45 f0	 mov	 DWORD PTR __$ArrayPad$[ebp], eax
  00021	56		 push	 esi
  00022	57		 push	 edi
  00023	50		 push	 eax
  00024	8d 45 f4	 lea	 eax, DWORD PTR __$EHRec$[ebp]
  00027	64 a3 00 00 00
	00		 mov	 DWORD PTR fs:0, eax

; 344  : 	D3DXMATRIX matTranslation;
; 345  : 	D3DXMATRIX matScaling;
; 346  : 
; 347  : 	D3DXMatrixTranslation(&matTranslation, fx, fy, fz);

  0002d	f3 0f 10 45 18	 movss	 xmm0, DWORD PTR _fz$[ebp]
  00032	83 ec 0c	 sub	 esp, 12			; 0000000cH
  00035	8b 45 20	 mov	 eax, DWORD PTR _d3dFillMode$[ebp]
  00038	8b 7d 08	 mov	 edi, DWORD PTR _lpMesh$[ebp]
  0003b	8b 75 0c	 mov	 esi, DWORD PTR _c_pmatWorld$[ebp]
  0003e	f3 0f 11 44 24
	08		 movss	 DWORD PTR [esp+8], xmm0
  00044	f3 0f 10 45 14	 movss	 xmm0, DWORD PTR _fy$[ebp]
  00049	f3 0f 11 44 24
	04		 movss	 DWORD PTR [esp+4], xmm0
  0004f	f3 0f 10 45 10	 movss	 xmm0, DWORD PTR _fx$[ebp]
  00054	89 85 ec fe ff
	ff		 mov	 DWORD PTR _d3dFillMode$GSCopy$1$[ebp], eax
  0005a	8d 85 30 ff ff
	ff		 lea	 eax, DWORD PTR _matTranslation$[ebp]
  00060	f3 0f 11 04 24	 movss	 DWORD PTR [esp], xmm0
  00065	50		 push	 eax
  00066	e8 00 00 00 00	 call	 _D3DXMatrixTranslation@16

; 348  : 	D3DXMatrixScaling(&matScaling, fRadius, fRadius, fRadius);

  0006b	f3 0f 10 45 1c	 movss	 xmm0, DWORD PTR _fRadius$[ebp]
  00070	8d 85 f0 fe ff
	ff		 lea	 eax, DWORD PTR _matScaling$[ebp]
  00076	83 ec 0c	 sub	 esp, 12			; 0000000cH
  00079	f3 0f 11 44 24
	08		 movss	 DWORD PTR [esp+8], xmm0
  0007f	f3 0f 11 44 24
	04		 movss	 DWORD PTR [esp+4], xmm0
  00085	f3 0f 11 04 24	 movss	 DWORD PTR [esp], xmm0
  0008a	50		 push	 eax
  0008b	e8 00 00 00 00	 call	 _D3DXMatrixScaling@16
; File C:\DS Project\DS Files\Source\ClientSource\extern\include\d3dx8math.inl

; 580  :     D3DXMatrixMultiply(&matT, this, &mat);

  00090	8d 85 30 ff ff
	ff		 lea	 eax, DWORD PTR _matTranslation$[ebp]
  00096	50		 push	 eax
  00097	8d 85 f0 fe ff
	ff		 lea	 eax, DWORD PTR _matScaling$[ebp]
  0009d	50		 push	 eax
  0009e	8d 85 70 ff ff
	ff		 lea	 eax, DWORD PTR $T2[ebp]
  000a4	50		 push	 eax
  000a5	e8 00 00 00 00	 call	 _D3DXMatrixMultiply@12
; File C:\DS Project\DS Files\Source\ClientSource\Client\EterLib\GrpScreen.cpp

; 351  : 	matWorld = matScaling * matTranslation;

  000aa	0f 10 85 70 ff
	ff ff		 movups	 xmm0, XMMWORD PTR $T2[ebp]
  000b1	0f 11 45 b0	 movups	 XMMWORD PTR _matWorld$[ebp], xmm0
  000b5	0f 10 45 80	 movups	 xmm0, XMMWORD PTR $T2[ebp+16]
  000b9	0f 11 45 c0	 movups	 XMMWORD PTR _matWorld$[ebp+16], xmm0
  000bd	0f 10 45 90	 movups	 xmm0, XMMWORD PTR $T2[ebp+32]
  000c1	0f 11 45 d0	 movups	 XMMWORD PTR _matWorld$[ebp+32], xmm0
  000c5	0f 10 45 a0	 movups	 xmm0, XMMWORD PTR $T2[ebp+48]
  000c9	0f 11 45 e0	 movups	 XMMWORD PTR _matWorld$[ebp+48], xmm0

; 352  : 
; 353  : 	if (c_pmatWorld)

  000cd	85 f6		 test	 esi, esi
  000cf	74 0b		 je	 SHORT $LN2@RenderD3DX
; File C:\DS Project\DS Files\Source\ClientSource\extern\include\d3dx8math.inl

; 512  :     D3DXMatrixMultiply(this, this, &mat);

  000d1	56		 push	 esi
  000d2	8d 45 b0	 lea	 eax, DWORD PTR _matWorld$[ebp]
  000d5	50		 push	 eax
  000d6	50		 push	 eax
  000d7	e8 00 00 00 00	 call	 _D3DXMatrixMultiply@12
$LN2@RenderD3DX:
; File C:\DS Project\DS Files\Source\ClientSource\Client\EterLib\GrpScreen.cpp

; 316  : 	CD3DXMeshRenderingOption(D3DFILLMODE d3dFillMode, const D3DXMATRIX & c_rmatWorld)

  000dc	8d 8d dc fe ff
	ff		 lea	 ecx, DWORD PTR _SetRenderingOption$[ebp]
  000e2	e8 00 00 00 00	 call	 ??0CScreen@@QAE@XZ	; CScreen::CScreen

; 317  : 	{
; 318  : 		ms_lpd3dDevice->GetVertexShader(&m_dwVS);

  000e7	a1 00 00 00 00	 mov	 eax, DWORD PTR ?ms_lpd3dDevice@CGraphicBase@@1PAUIDirect3DDevice8@@A ; CGraphicBase::ms_lpd3dDevice
  000ec	8d 95 e0 fe ff
	ff		 lea	 edx, DWORD PTR _SetRenderingOption$[ebp+4]
  000f2	c7 85 dc fe ff
	ff 00 00 00 00	 mov	 DWORD PTR _SetRenderingOption$[ebp], OFFSET ??_7CD3DXMeshRenderingOption@@6B@
  000fc	52		 push	 edx
  000fd	50		 push	 eax
  000fe	8b 08		 mov	 ecx, DWORD PTR [eax]
  00100	c7 45 fc 00 00
	00 00		 mov	 DWORD PTR __$EHRec$[ebp+8], 0
  00107	ff 91 34 01 00
	00		 call	 DWORD PTR [ecx+308]

; 319  : 
; 320  : 		STATEMANAGER.SaveTextureStageState(0, D3DTSS_COLORARG1, D3DTA_TFACTOR);

  0010d	8b 0d 00 00 00
	00		 mov	 ecx, DWORD PTR ?ms_singleton@?$CSingleton@VCStateManager@@@@0PAVCStateManager@@A ; CSingleton<CStateManager>::ms_singleton
  00113	6a 03		 push	 3
  00115	6a 02		 push	 2
  00117	6a 00		 push	 0
  00119	e8 00 00 00 00	 call	 ?SaveTextureStageState@CStateManager@@QAEXKW4_D3DTEXTURESTAGESTATETYPE@@K@Z ; CStateManager::SaveTextureStageState

; 321  : 		STATEMANAGER.SaveTextureStageState(0, D3DTSS_COLOROP, D3DTOP_SELECTARG1);

  0011e	8b 0d 00 00 00
	00		 mov	 ecx, DWORD PTR ?ms_singleton@?$CSingleton@VCStateManager@@@@0PAVCStateManager@@A ; CSingleton<CStateManager>::ms_singleton
  00124	6a 02		 push	 2
  00126	6a 01		 push	 1
  00128	6a 00		 push	 0
  0012a	e8 00 00 00 00	 call	 ?SaveTextureStageState@CStateManager@@QAEXKW4_D3DTEXTURESTAGESTATETYPE@@K@Z ; CStateManager::SaveTextureStageState

; 322  : 		STATEMANAGER.SaveTextureStageState(0, D3DTSS_ALPHAOP, D3DTOP_DISABLE);

  0012f	8b 0d 00 00 00
	00		 mov	 ecx, DWORD PTR ?ms_singleton@?$CSingleton@VCStateManager@@@@0PAVCStateManager@@A ; CSingleton<CStateManager>::ms_singleton
  00135	6a 01		 push	 1
  00137	6a 04		 push	 4
  00139	6a 00		 push	 0
  0013b	e8 00 00 00 00	 call	 ?SaveTextureStageState@CStateManager@@QAEXKW4_D3DTEXTURESTAGESTATETYPE@@K@Z ; CStateManager::SaveTextureStageState

; 323  : 		STATEMANAGER.SetRenderState(D3DRS_FILLMODE, d3dFillMode);

  00140	ff b5 ec fe ff
	ff		 push	 DWORD PTR _d3dFillMode$GSCopy$1$[ebp]
  00146	8b 0d 00 00 00
	00		 mov	 ecx, DWORD PTR ?ms_singleton@?$CSingleton@VCStateManager@@@@0PAVCStateManager@@A ; CSingleton<CStateManager>::ms_singleton
  0014c	6a 08		 push	 8
  0014e	e8 00 00 00 00	 call	 ?SetRenderState@CStateManager@@QAEXW4_D3DRENDERSTATETYPE@@K@Z ; CStateManager::SetRenderState

; 324  : 		STATEMANAGER.SaveTransform(D3DTS_WORLD, &c_rmatWorld);

  00153	8b 0d 00 00 00
	00		 mov	 ecx, DWORD PTR ?ms_singleton@?$CSingleton@VCStateManager@@@@0PAVCStateManager@@A ; CSingleton<CStateManager>::ms_singleton
  00159	8d 45 b0	 lea	 eax, DWORD PTR _matWorld$[ebp]
  0015c	50		 push	 eax
  0015d	68 00 01 00 00	 push	 256			; 00000100H
  00162	e8 00 00 00 00	 call	 ?SaveTransform@CStateManager@@QAEXW4_D3DTRANSFORMSTATETYPE@@PBU_D3DMATRIX@@@Z ; CStateManager::SaveTransform

; 325  : 
; 326  : 		STATEMANAGER.SetTexture(0, NULL);

  00167	8b 0d 00 00 00
	00		 mov	 ecx, DWORD PTR ?ms_singleton@?$CSingleton@VCStateManager@@@@0PAVCStateManager@@A ; CSingleton<CStateManager>::ms_singleton
  0016d	6a 00		 push	 0
  0016f	6a 00		 push	 0
  00171	e8 00 00 00 00	 call	 ?SetTexture@CStateManager@@QAEXKPAUIDirect3DBaseTexture8@@@Z ; CStateManager::SetTexture

; 327  : 		STATEMANAGER.SetTexture(1, NULL);

  00176	8b 0d 00 00 00
	00		 mov	 ecx, DWORD PTR ?ms_singleton@?$CSingleton@VCStateManager@@@@0PAVCStateManager@@A ; CSingleton<CStateManager>::ms_singleton
  0017c	6a 00		 push	 0
  0017e	6a 01		 push	 1
  00180	e8 00 00 00 00	 call	 ?SetTexture@CStateManager@@QAEXKPAUIDirect3DBaseTexture8@@@Z ; CStateManager::SetTexture

; 354  : 	{
; 355  : 		matWorld *= *c_pmatWorld;
; 356  : 	}
; 357  : 
; 358  : 	CD3DXMeshRenderingOption SetRenderingOption(d3dFillMode, matWorld);
; 359  : 	LPDIRECT3DINDEXBUFFER8 lpIndexBuffer;
; 360  : 	LPDIRECT3DVERTEXBUFFER8 lpVertexBuffer;
; 361  : 	lpMesh->GetIndexBuffer(&lpIndexBuffer);

  00185	8b 07		 mov	 eax, DWORD PTR [edi]
  00187	8d 8d e8 fe ff
	ff		 lea	 ecx, DWORD PTR _lpIndexBuffer$[ebp]
  0018d	51		 push	 ecx
  0018e	57		 push	 edi
  0018f	c7 45 fc 01 00
	00 00		 mov	 DWORD PTR __$EHRec$[ebp+8], 1
  00196	ff 50 34	 call	 DWORD PTR [eax+52]

; 362  : 	lpMesh->GetVertexBuffer(&lpVertexBuffer);

  00199	8b 07		 mov	 eax, DWORD PTR [edi]
  0019b	8d 8d e4 fe ff
	ff		 lea	 ecx, DWORD PTR _lpVertexBuffer$[ebp]
  001a1	51		 push	 ecx
  001a2	57		 push	 edi
  001a3	ff 50 30	 call	 DWORD PTR [eax+48]

; 363  : 	STATEMANAGER.SetVertexShader(lpMesh->GetFVF());

  001a6	8b 07		 mov	 eax, DWORD PTR [edi]
  001a8	57		 push	 edi
  001a9	ff 50 18	 call	 DWORD PTR [eax+24]
  001ac	8b 0d 00 00 00
	00		 mov	 ecx, DWORD PTR ?ms_singleton@?$CSingleton@VCStateManager@@@@0PAVCStateManager@@A ; CSingleton<CStateManager>::ms_singleton
  001b2	50		 push	 eax
  001b3	e8 00 00 00 00	 call	 ?SetVertexShader@CStateManager@@QAEXK@Z ; CStateManager::SetVertexShader

; 364  : 	STATEMANAGER.SetIndices(lpIndexBuffer, 0);

  001b8	8b 0d 00 00 00
	00		 mov	 ecx, DWORD PTR ?ms_singleton@?$CSingleton@VCStateManager@@@@0PAVCStateManager@@A ; CSingleton<CStateManager>::ms_singleton
  001be	6a 00		 push	 0
  001c0	ff b5 e8 fe ff
	ff		 push	 DWORD PTR _lpIndexBuffer$[ebp]
  001c6	e8 00 00 00 00	 call	 ?SetIndices@CStateManager@@QAEXPAUIDirect3DIndexBuffer8@@I@Z ; CStateManager::SetIndices

; 365  : 	STATEMANAGER.SetStreamSource(0, lpVertexBuffer, 24);

  001cb	8b 0d 00 00 00
	00		 mov	 ecx, DWORD PTR ?ms_singleton@?$CSingleton@VCStateManager@@@@0PAVCStateManager@@A ; CSingleton<CStateManager>::ms_singleton
  001d1	6a 18		 push	 24			; 00000018H
  001d3	ff b5 e4 fe ff
	ff		 push	 DWORD PTR _lpVertexBuffer$[ebp]
  001d9	6a 00		 push	 0
  001db	e8 00 00 00 00	 call	 ?SetStreamSource@CStateManager@@QAEXIPAUIDirect3DVertexBuffer8@@I@Z ; CStateManager::SetStreamSource

; 366  : 	STATEMANAGER.DrawIndexedPrimitive(D3DPT_TRIANGLELIST, 0, lpMesh->GetNumVertices(), 0, lpMesh->GetNumFaces());

  001e0	8b 07		 mov	 eax, DWORD PTR [edi]
  001e2	57		 push	 edi
  001e3	ff 50 10	 call	 DWORD PTR [eax+16]
  001e6	50		 push	 eax
  001e7	8b 07		 mov	 eax, DWORD PTR [edi]
  001e9	6a 00		 push	 0
  001eb	57		 push	 edi
  001ec	ff 50 14	 call	 DWORD PTR [eax+20]
  001ef	50		 push	 eax
  001f0	6a 00		 push	 0
  001f2	6a 04		 push	 4
  001f4	8b 0d 00 00 00
	00		 mov	 ecx, DWORD PTR ?ms_singleton@?$CSingleton@VCStateManager@@@@0PAVCStateManager@@A ; CSingleton<CStateManager>::ms_singleton
  001fa	e8 00 00 00 00	 call	 ?DrawIndexedPrimitive@CStateManager@@QAEJW4_D3DPRIMITIVETYPE@@IIII@Z ; CStateManager::DrawIndexedPrimitive

; 367  : }

  001ff	8d 8d dc fe ff
	ff		 lea	 ecx, DWORD PTR _SetRenderingOption$[ebp]
  00205	e8 00 00 00 00	 call	 ??1CD3DXMeshRenderingOption@@UAE@XZ ; CD3DXMeshRenderingOption::~CD3DXMeshRenderingOption
  0020a	8b 4d f4	 mov	 ecx, DWORD PTR __$EHRec$[ebp]
  0020d	64 89 0d 00 00
	00 00		 mov	 DWORD PTR fs:0, ecx
  00214	59		 pop	 ecx
  00215	5f		 pop	 edi
  00216	5e		 pop	 esi
  00217	8b 4d f0	 mov	 ecx, DWORD PTR __$ArrayPad$[ebp]
  0021a	33 cd		 xor	 ecx, ebp
  0021c	e8 00 00 00 00	 call	 @__security_check_cookie@4
  00221	8b e5		 mov	 esp, ebp
  00223	5d		 pop	 ebp
  00224	c2 1c 00	 ret	 28			; 0000001cH
_TEXT	ENDS
;	COMDAT text$x
text$x	SEGMENT
__unwindfunclet$?RenderD3DXMesh@CScreen@@QAEXPAUID3DXMesh@@PBUD3DXMATRIX@@MMMMW4_D3DFILLMODE@@@Z$1:
  00000	8d 8d dc fe ff
	ff		 lea	 ecx, DWORD PTR _SetRenderingOption$[ebp]
  00006	e9 00 00 00 00	 jmp	 ??1CScreen@@UAE@XZ	; CScreen::~CScreen
__unwindfunclet$?RenderD3DXMesh@CScreen@@QAEXPAUID3DXMesh@@PBUD3DXMATRIX@@MMMMW4_D3DFILLMODE@@@Z$0:
  0000b	8d 8d dc fe ff
	ff		 lea	 ecx, DWORD PTR _SetRenderingOption$[ebp]
  00011	e9 00 00 00 00	 jmp	 ??1CD3DXMeshRenderingOption@@UAE@XZ ; CD3DXMeshRenderingOption::~CD3DXMeshRenderingOption
  00016	cc		 int	 3
  00017	cc		 int	 3
  00018	cc		 int	 3
  00019	cc		 int	 3
  0001a	cc		 int	 3
__ehhandler$?RenderD3DXMesh@CScreen@@QAEXPAUID3DXMesh@@PBUD3DXMATRIX@@MMMMW4_D3DFILLMODE@@@Z:
  0001b	90		 npad	 1
  0001c	90		 npad	 1
  0001d	8b 54 24 08	 mov	 edx, DWORD PTR [esp+8]
  00021	8d 42 0c	 lea	 eax, DWORD PTR [edx+12]
  00024	8b 8a dc fe ff
	ff		 mov	 ecx, DWORD PTR [edx-292]
  0002a	33 c8		 xor	 ecx, eax
  0002c	e8 00 00 00 00	 call	 @__security_check_cookie@4
  00031	8b 4a fc	 mov	 ecx, DWORD PTR [edx-4]
  00034	33 c8		 xor	 ecx, eax
  00036	e8 00 00 00 00	 call	 @__security_check_cookie@4
  0003b	b8 00 00 00 00	 mov	 eax, OFFSET __ehfuncinfo$?RenderD3DXMesh@CScreen@@QAEXPAUID3DXMesh@@PBUD3DXMATRIX@@MMMMW4_D3DFILLMODE@@@Z
  00040	e9 00 00 00 00	 jmp	 ___CxxFrameHandler3
text$x	ENDS
?RenderD3DXMesh@CScreen@@QAEXPAUID3DXMesh@@PBUD3DXMATRIX@@MMMMW4_D3DFILLMODE@@@Z ENDP ; CScreen::RenderD3DXMesh
; Function compile flags: /Ogtp
; File C:\DS Project\DS Files\Source\ClientSource\Client\EterLib\GrpScreen.cpp
;	COMDAT ?DrawGrid@CScreen@@QAEXMMMMMMMMM@Z
_TEXT	SEGMENT
_xMin$ = 8						; size = 4
_yMin$ = 12						; size = 4
_xMax$ = 16						; size = 4
_yMax$ = 20						; size = 4
_xmajorStep$ = 24					; size = 4
_x$1$ = 28						; size = 4
_ymajorStep$ = 28					; size = 4
_x$2$ = 32						; size = 4
_xminorStep$ = 32					; size = 4
_y$2$ = 36						; size = 4
_y$1$ = 36						; size = 4
_yminorStep$ = 36					; size = 4
_zPos$ = 40						; size = 4
?DrawGrid@CScreen@@QAEXMMMMMMMMM@Z PROC			; CScreen::DrawGrid, COMDAT
; _this$ = ecx

; 456  : {

  00000	55		 push	 ebp
  00001	8b ec		 mov	 ebp, esp

; 457  : 	xMin*=xminorStep;

  00003	f3 0f 10 4d 20	 movss	 xmm1, DWORD PTR _xminorStep$[ebp]
  00008	f3 0f 10 45 08	 movss	 xmm0, DWORD PTR _xMin$[ebp]

; 458  : 	xMax*=xminorStep;
; 459  : 	yMin*=yminorStep;

  0000d	f3 0f 10 55 0c	 movss	 xmm2, DWORD PTR _yMin$[ebp]
  00012	f3 0f 59 c1	 mulss	 xmm0, xmm1
  00016	56		 push	 esi

; 460  : 	yMax*=yminorStep;
; 461  : 	xmajorStep*=xminorStep;
; 462  : 	ymajorStep*=yminorStep;
; 463  : 
; 464  : 	float x, y;
; 465  : 
; 466  : 	SetDiffuseColor(0.5f, 0.5f, 0.5f);

  00017	83 ec 10	 sub	 esp, 16			; 00000010H
  0001a	8b f1		 mov	 esi, ecx
  0001c	f3 0f 11 45 08	 movss	 DWORD PTR _xMin$[ebp], xmm0
  00021	f3 0f 10 45 10	 movss	 xmm0, DWORD PTR _xMax$[ebp]
  00026	f3 0f 59 c1	 mulss	 xmm0, xmm1
  0002a	c7 44 24 0c 00
	00 80 3f	 mov	 DWORD PTR [esp+12], 1065353216 ; 3f800000H
  00032	c7 44 24 08 00
	00 00 3f	 mov	 DWORD PTR [esp+8], 1056964608 ; 3f000000H
  0003a	c7 44 24 04 00
	00 00 3f	 mov	 DWORD PTR [esp+4], 1056964608 ; 3f000000H
  00042	f3 0f 11 45 10	 movss	 DWORD PTR _xMax$[ebp], xmm0
  00047	f3 0f 10 45 24	 movss	 xmm0, DWORD PTR _yminorStep$[ebp]
  0004c	f3 0f 59 d0	 mulss	 xmm2, xmm0
  00050	c7 04 24 00 00
	00 3f		 mov	 DWORD PTR [esp], 1056964608 ; 3f000000H
  00057	f3 0f 11 55 0c	 movss	 DWORD PTR _yMin$[ebp], xmm2
  0005c	f3 0f 10 55 14	 movss	 xmm2, DWORD PTR _yMax$[ebp]
  00061	f3 0f 59 d0	 mulss	 xmm2, xmm0
  00065	f3 0f 11 55 14	 movss	 DWORD PTR _yMax$[ebp], xmm2
  0006a	f3 0f 10 55 18	 movss	 xmm2, DWORD PTR _xmajorStep$[ebp]
  0006f	f3 0f 59 d1	 mulss	 xmm2, xmm1
  00073	f3 0f 10 4d 1c	 movss	 xmm1, DWORD PTR _ymajorStep$[ebp]
  00078	f3 0f 59 c8	 mulss	 xmm1, xmm0
  0007c	f3 0f 11 55 18	 movss	 DWORD PTR _xmajorStep$[ebp], xmm2
  00081	f3 0f 11 4d 1c	 movss	 DWORD PTR _ymajorStep$[ebp], xmm1
  00086	e8 00 00 00 00	 call	 ?SetDiffuseColor@CScreen@@QAEXMMMM@Z ; CScreen::SetDiffuseColor

; 467  : 	DrawMinorGrid(xMin, yMin, xMax, yMax, xminorStep, yminorStep, zPos);

  0008b	f3 0f 10 45 28	 movss	 xmm0, DWORD PTR _zPos$[ebp]
  00090	83 ec 1c	 sub	 esp, 28			; 0000001cH
  00093	8b ce		 mov	 ecx, esi
  00095	f3 0f 11 44 24
	18		 movss	 DWORD PTR [esp+24], xmm0
  0009b	f3 0f 10 45 24	 movss	 xmm0, DWORD PTR _yminorStep$[ebp]
  000a0	f3 0f 11 44 24
	14		 movss	 DWORD PTR [esp+20], xmm0
  000a6	f3 0f 10 45 20	 movss	 xmm0, DWORD PTR _xminorStep$[ebp]
  000ab	f3 0f 11 44 24
	10		 movss	 DWORD PTR [esp+16], xmm0
  000b1	f3 0f 10 45 14	 movss	 xmm0, DWORD PTR _yMax$[ebp]
  000b6	f3 0f 11 44 24
	0c		 movss	 DWORD PTR [esp+12], xmm0
  000bc	f3 0f 10 45 10	 movss	 xmm0, DWORD PTR _xMax$[ebp]
  000c1	f3 0f 11 44 24
	08		 movss	 DWORD PTR [esp+8], xmm0
  000c7	f3 0f 10 45 0c	 movss	 xmm0, DWORD PTR _yMin$[ebp]
  000cc	f3 0f 11 44 24
	04		 movss	 DWORD PTR [esp+4], xmm0
  000d2	f3 0f 10 45 08	 movss	 xmm0, DWORD PTR _xMin$[ebp]
  000d7	f3 0f 11 04 24	 movss	 DWORD PTR [esp], xmm0
  000dc	e8 00 00 00 00	 call	 ?DrawMinorGrid@CScreen@@QAEXMMMMMMM@Z ; CScreen::DrawMinorGrid

; 468  : 
; 469  : 	SetDiffuseColor(0.7f, 0.7f, 0.7f);

  000e1	83 ec 10	 sub	 esp, 16			; 00000010H
  000e4	8b ce		 mov	 ecx, esi
  000e6	c7 44 24 0c 00
	00 80 3f	 mov	 DWORD PTR [esp+12], 1065353216 ; 3f800000H
  000ee	c7 44 24 08 33
	33 33 3f	 mov	 DWORD PTR [esp+8], 1060320051 ; 3f333333H
  000f6	c7 44 24 04 33
	33 33 3f	 mov	 DWORD PTR [esp+4], 1060320051 ; 3f333333H
  000fe	c7 04 24 33 33
	33 3f		 mov	 DWORD PTR [esp], 1060320051 ; 3f333333H
  00105	e8 00 00 00 00	 call	 ?SetDiffuseColor@CScreen@@QAEXMMMM@Z ; CScreen::SetDiffuseColor
  0010a	0f 57 c0	 xorps	 xmm0, xmm0
  0010d	0f 57 c9	 xorps	 xmm1, xmm1

; 470  : 	for (y = 0.0f; y >= yMin; y -= ymajorStep)

  00110	0f 2f 45 0c	 comiss	 xmm0, DWORD PTR _yMin$[ebp]
  00114	f3 0f 11 45 20	 movss	 DWORD PTR _x$2$[ebp], xmm0
  00119	f3 0f 11 4d 24	 movss	 DWORD PTR _y$1$[ebp], xmm1
  0011e	72 4e		 jb	 SHORT $LN3@DrawGrid
$LL4@DrawGrid:

; 471  : 		RenderLine2d(xMin, y, xMax, y, zPos);

  00120	f3 0f 10 45 28	 movss	 xmm0, DWORD PTR _zPos$[ebp]
  00125	83 ec 14	 sub	 esp, 20			; 00000014H
  00128	8b ce		 mov	 ecx, esi
  0012a	f3 0f 11 44 24
	10		 movss	 DWORD PTR [esp+16], xmm0
  00130	f3 0f 10 45 10	 movss	 xmm0, DWORD PTR _xMax$[ebp]
  00135	f3 0f 11 4c 24
	0c		 movss	 DWORD PTR [esp+12], xmm1
  0013b	f3 0f 11 44 24
	08		 movss	 DWORD PTR [esp+8], xmm0
  00141	f3 0f 10 45 08	 movss	 xmm0, DWORD PTR _xMin$[ebp]
  00146	f3 0f 11 4c 24
	04		 movss	 DWORD PTR [esp+4], xmm1
  0014c	f3 0f 11 04 24	 movss	 DWORD PTR [esp], xmm0
  00151	e8 00 00 00 00	 call	 ?RenderLine2d@CScreen@@QAEXMMMMM@Z ; CScreen::RenderLine2d
  00156	f3 0f 10 4d 24	 movss	 xmm1, DWORD PTR _y$1$[ebp]
  0015b	f3 0f 5c 4d 1c	 subss	 xmm1, DWORD PTR _ymajorStep$[ebp]
  00160	0f 2f 4d 0c	 comiss	 xmm1, DWORD PTR _yMin$[ebp]
  00164	f3 0f 11 4d 24	 movss	 DWORD PTR _y$1$[ebp], xmm1
  00169	73 b5		 jae	 SHORT $LL4@DrawGrid
  0016b	0f 57 c0	 xorps	 xmm0, xmm0
$LN3@DrawGrid:

; 472  : 
; 473  : 	for (y = 0.0f; y <= yMax; y += ymajorStep)

  0016e	f3 0f 10 55 14	 movss	 xmm2, DWORD PTR _yMax$[ebp]
  00173	0f 57 c9	 xorps	 xmm1, xmm1
  00176	0f 2f d0	 comiss	 xmm2, xmm0
  00179	f3 0f 11 4d 24	 movss	 DWORD PTR _y$2$[ebp], xmm1
  0017e	72 52		 jb	 SHORT $LN6@DrawGrid
$LL7@DrawGrid:

; 474  : 		RenderLine2d(xMin, y, xMax, y, zPos);

  00180	f3 0f 10 45 28	 movss	 xmm0, DWORD PTR _zPos$[ebp]
  00185	83 ec 14	 sub	 esp, 20			; 00000014H
  00188	8b ce		 mov	 ecx, esi
  0018a	f3 0f 11 44 24
	10		 movss	 DWORD PTR [esp+16], xmm0
  00190	f3 0f 10 45 10	 movss	 xmm0, DWORD PTR _xMax$[ebp]
  00195	f3 0f 11 4c 24
	0c		 movss	 DWORD PTR [esp+12], xmm1
  0019b	f3 0f 11 44 24
	08		 movss	 DWORD PTR [esp+8], xmm0
  001a1	f3 0f 10 45 08	 movss	 xmm0, DWORD PTR _xMin$[ebp]
  001a6	f3 0f 11 4c 24
	04		 movss	 DWORD PTR [esp+4], xmm1
  001ac	f3 0f 11 04 24	 movss	 DWORD PTR [esp], xmm0
  001b1	e8 00 00 00 00	 call	 ?RenderLine2d@CScreen@@QAEXMMMMM@Z ; CScreen::RenderLine2d
  001b6	f3 0f 10 4d 24	 movss	 xmm1, DWORD PTR _y$2$[ebp]
  001bb	f3 0f 58 4d 1c	 addss	 xmm1, DWORD PTR _ymajorStep$[ebp]
  001c0	f3 0f 10 55 14	 movss	 xmm2, DWORD PTR _yMax$[ebp]
  001c5	0f 2f d1	 comiss	 xmm2, xmm1
  001c8	f3 0f 11 4d 24	 movss	 DWORD PTR _y$2$[ebp], xmm1
  001cd	73 b1		 jae	 SHORT $LL7@DrawGrid
  001cf	0f 57 c0	 xorps	 xmm0, xmm0
$LN6@DrawGrid:

; 475  : 
; 476  : 	for (x = 0.0f; x >= xMin; x -= xmajorStep)

  001d2	0f 2f 45 08	 comiss	 xmm0, DWORD PTR _xMin$[ebp]
  001d6	0f 57 c9	 xorps	 xmm1, xmm1
  001d9	f3 0f 11 4d 1c	 movss	 DWORD PTR _x$1$[ebp], xmm1
  001de	72 4e		 jb	 SHORT $LN9@DrawGrid
$LL10@DrawGrid:

; 477  : 		RenderLine2d(x, yMin, x, yMax, zPos);

  001e0	f3 0f 10 45 28	 movss	 xmm0, DWORD PTR _zPos$[ebp]
  001e5	83 ec 14	 sub	 esp, 20			; 00000014H
  001e8	8b ce		 mov	 ecx, esi
  001ea	f3 0f 11 44 24
	10		 movss	 DWORD PTR [esp+16], xmm0
  001f0	f3 0f 10 45 0c	 movss	 xmm0, DWORD PTR _yMin$[ebp]
  001f5	f3 0f 11 54 24
	0c		 movss	 DWORD PTR [esp+12], xmm2
  001fb	f3 0f 11 4c 24
	08		 movss	 DWORD PTR [esp+8], xmm1
  00201	f3 0f 11 44 24
	04		 movss	 DWORD PTR [esp+4], xmm0
  00207	f3 0f 11 0c 24	 movss	 DWORD PTR [esp], xmm1
  0020c	e8 00 00 00 00	 call	 ?RenderLine2d@CScreen@@QAEXMMMMM@Z ; CScreen::RenderLine2d
  00211	f3 0f 10 4d 1c	 movss	 xmm1, DWORD PTR _x$1$[ebp]
  00216	f3 0f 5c 4d 18	 subss	 xmm1, DWORD PTR _xmajorStep$[ebp]
  0021b	f3 0f 10 55 14	 movss	 xmm2, DWORD PTR _yMax$[ebp]
  00220	0f 2f 4d 08	 comiss	 xmm1, DWORD PTR _xMin$[ebp]
  00224	f3 0f 11 4d 1c	 movss	 DWORD PTR _x$1$[ebp], xmm1
  00229	73 b5		 jae	 SHORT $LL10@DrawGrid
  0022b	0f 57 c0	 xorps	 xmm0, xmm0
$LN9@DrawGrid:

; 478  : 
; 479  : 	for (x = 0.0f; x <= yMax; x += xmajorStep)

  0022e	f3 0f 10 4d 14	 movss	 xmm1, DWORD PTR _yMax$[ebp]
  00233	0f 2f c8	 comiss	 xmm1, xmm0
  00236	72 52		 jb	 SHORT $LN12@DrawGrid
  00238	0f 1f 84 00 00
	00 00 00	 npad	 8
$LL13@DrawGrid:

; 480  : 		RenderLine2d(x, yMin, x, yMax, zPos);

  00240	f3 0f 10 55 28	 movss	 xmm2, DWORD PTR _zPos$[ebp]
  00245	83 ec 14	 sub	 esp, 20			; 00000014H
  00248	8b ce		 mov	 ecx, esi
  0024a	f3 0f 11 54 24
	10		 movss	 DWORD PTR [esp+16], xmm2
  00250	f3 0f 11 4c 24
	0c		 movss	 DWORD PTR [esp+12], xmm1
  00256	f3 0f 10 4d 0c	 movss	 xmm1, DWORD PTR _yMin$[ebp]
  0025b	f3 0f 11 44 24
	08		 movss	 DWORD PTR [esp+8], xmm0
  00261	f3 0f 11 4c 24
	04		 movss	 DWORD PTR [esp+4], xmm1
  00267	f3 0f 11 04 24	 movss	 DWORD PTR [esp], xmm0
  0026c	e8 00 00 00 00	 call	 ?RenderLine2d@CScreen@@QAEXMMMMM@Z ; CScreen::RenderLine2d
  00271	f3 0f 10 45 20	 movss	 xmm0, DWORD PTR _x$2$[ebp]
  00276	f3 0f 58 45 18	 addss	 xmm0, DWORD PTR _xmajorStep$[ebp]
  0027b	f3 0f 10 4d 14	 movss	 xmm1, DWORD PTR _yMax$[ebp]
  00280	0f 2f c8	 comiss	 xmm1, xmm0
  00283	f3 0f 11 45 20	 movss	 DWORD PTR _x$2$[ebp], xmm0
  00288	73 b6		 jae	 SHORT $LL13@DrawGrid
$LN12@DrawGrid:

; 481  : 
; 482  : 	SetDiffuseColor(1.0f, 1.0f, 1.0f);

  0028a	83 ec 10	 sub	 esp, 16			; 00000010H
  0028d	8b ce		 mov	 ecx, esi
  0028f	c7 44 24 0c 00
	00 80 3f	 mov	 DWORD PTR [esp+12], 1065353216 ; 3f800000H
  00297	c7 44 24 08 00
	00 80 3f	 mov	 DWORD PTR [esp+8], 1065353216 ; 3f800000H
  0029f	c7 44 24 04 00
	00 80 3f	 mov	 DWORD PTR [esp+4], 1065353216 ; 3f800000H
  002a7	c7 04 24 00 00
	80 3f		 mov	 DWORD PTR [esp], 1065353216 ; 3f800000H
  002ae	e8 00 00 00 00	 call	 ?SetDiffuseColor@CScreen@@QAEXMMMM@Z ; CScreen::SetDiffuseColor

; 483  : 	RenderLine2d(xMin, 0.0f, xMax, 0.0f, zPos);

  002b3	f3 0f 10 45 28	 movss	 xmm0, DWORD PTR _zPos$[ebp]
  002b8	83 ec 14	 sub	 esp, 20			; 00000014H
  002bb	8b ce		 mov	 ecx, esi
  002bd	f3 0f 11 44 24
	10		 movss	 DWORD PTR [esp+16], xmm0
  002c3	f3 0f 10 45 10	 movss	 xmm0, DWORD PTR _xMax$[ebp]
  002c8	c7 44 24 0c 00
	00 00 00	 mov	 DWORD PTR [esp+12], 0
  002d0	f3 0f 11 44 24
	08		 movss	 DWORD PTR [esp+8], xmm0
  002d6	f3 0f 10 45 08	 movss	 xmm0, DWORD PTR _xMin$[ebp]
  002db	c7 44 24 04 00
	00 00 00	 mov	 DWORD PTR [esp+4], 0
  002e3	f3 0f 11 04 24	 movss	 DWORD PTR [esp], xmm0
  002e8	e8 00 00 00 00	 call	 ?RenderLine2d@CScreen@@QAEXMMMMM@Z ; CScreen::RenderLine2d

; 484  : 	RenderLine2d(0.0f, yMin, 0.0f, yMax, zPos);

  002ed	f3 0f 10 45 28	 movss	 xmm0, DWORD PTR _zPos$[ebp]
  002f2	83 ec 14	 sub	 esp, 20			; 00000014H
  002f5	8b ce		 mov	 ecx, esi
  002f7	f3 0f 11 44 24
	10		 movss	 DWORD PTR [esp+16], xmm0
  002fd	f3 0f 10 45 14	 movss	 xmm0, DWORD PTR _yMax$[ebp]
  00302	f3 0f 11 44 24
	0c		 movss	 DWORD PTR [esp+12], xmm0
  00308	f3 0f 10 45 0c	 movss	 xmm0, DWORD PTR _yMin$[ebp]
  0030d	c7 44 24 08 00
	00 00 00	 mov	 DWORD PTR [esp+8], 0
  00315	f3 0f 11 44 24
	04		 movss	 DWORD PTR [esp+4], xmm0
  0031b	c7 04 24 00 00
	00 00		 mov	 DWORD PTR [esp], 0
  00322	e8 00 00 00 00	 call	 ?RenderLine2d@CScreen@@QAEXMMMMM@Z ; CScreen::RenderLine2d
  00327	5e		 pop	 esi

; 485  : }

  00328	5d		 pop	 ebp
  00329	c2 24 00	 ret	 36			; 00000024H
?DrawGrid@CScreen@@QAEXMMMMMMMMM@Z ENDP			; CScreen::DrawGrid
_TEXT	ENDS
; Function compile flags: /Ogtp
; File C:\DS Project\DS Files\Source\ClientSource\Client\EterLib\GrpScreen.cpp
;	COMDAT ?DrawMinorGrid@CScreen@@QAEXMMMMMMM@Z
_TEXT	SEGMENT
_y$1$ = -4						; size = 4
_xMin$ = 8						; size = 4
_yMin$ = 12						; size = 4
_xMax$ = 16						; size = 4
_yMax$ = 20						; size = 4
_xminorStep$ = 24					; size = 4
_yminorStep$ = 28					; size = 4
_zPos$ = 32						; size = 4
?DrawMinorGrid@CScreen@@QAEXMMMMMMM@Z PROC		; CScreen::DrawMinorGrid, COMDAT
; _this$ = ecx

; 445  : {

  00000	55		 push	 ebp
  00001	8b ec		 mov	 ebp, esp
  00003	51		 push	 ecx

; 446  : 	float x, y;
; 447  : 
; 448  : 	for (y = yMin; y <= yMax; y += yminorStep)

  00004	f3 0f 10 5d 0c	 movss	 xmm3, DWORD PTR _yMin$[ebp]
  00009	f3 0f 10 55 14	 movss	 xmm2, DWORD PTR _yMax$[ebp]
  0000e	0f 28 c3	 movaps	 xmm0, xmm3
  00011	0f 2f d3	 comiss	 xmm2, xmm3
  00014	56		 push	 esi
  00015	8b f1		 mov	 esi, ecx
  00017	f3 0f 11 5d fc	 movss	 DWORD PTR _y$1$[ebp], xmm3
  0001c	72 56		 jb	 SHORT $LN3@DrawMinorG
  0001e	66 90		 npad	 2
$LL4@DrawMinorG:

; 449  : 		RenderLine2d(xMin, y, xMax, y, zPos);

  00020	f3 0f 10 4d 20	 movss	 xmm1, DWORD PTR _zPos$[ebp]
  00025	83 ec 14	 sub	 esp, 20			; 00000014H
  00028	8b ce		 mov	 ecx, esi
  0002a	f3 0f 11 4c 24
	10		 movss	 DWORD PTR [esp+16], xmm1
  00030	f3 0f 10 4d 10	 movss	 xmm1, DWORD PTR _xMax$[ebp]
  00035	f3 0f 11 44 24
	0c		 movss	 DWORD PTR [esp+12], xmm0
  0003b	f3 0f 11 4c 24
	08		 movss	 DWORD PTR [esp+8], xmm1
  00041	f3 0f 11 44 24
	04		 movss	 DWORD PTR [esp+4], xmm0
  00047	f3 0f 10 45 08	 movss	 xmm0, DWORD PTR _xMin$[ebp]
  0004c	f3 0f 11 04 24	 movss	 DWORD PTR [esp], xmm0
  00051	e8 00 00 00 00	 call	 ?RenderLine2d@CScreen@@QAEXMMMMM@Z ; CScreen::RenderLine2d
  00056	f3 0f 10 45 fc	 movss	 xmm0, DWORD PTR _y$1$[ebp]
  0005b	f3 0f 58 45 1c	 addss	 xmm0, DWORD PTR _yminorStep$[ebp]
  00060	f3 0f 10 55 14	 movss	 xmm2, DWORD PTR _yMax$[ebp]
  00065	0f 2f d0	 comiss	 xmm2, xmm0
  00068	f3 0f 11 45 fc	 movss	 DWORD PTR _y$1$[ebp], xmm0
  0006d	73 b1		 jae	 SHORT $LL4@DrawMinorG
  0006f	f3 0f 10 5d 0c	 movss	 xmm3, DWORD PTR _yMin$[ebp]
$LN3@DrawMinorG:

; 450  : 
; 451  : 	for (x = xMin; x <= xMax; x += xminorStep)

  00074	f3 0f 10 45 08	 movss	 xmm0, DWORD PTR _xMin$[ebp]
  00079	f3 0f 10 4d 10	 movss	 xmm1, DWORD PTR _xMax$[ebp]
  0007e	0f 2f c8	 comiss	 xmm1, xmm0
  00081	72 4f		 jb	 SHORT $LN6@DrawMinorG
$LL7@DrawMinorG:

; 452  : 		RenderLine2d(x, yMin, x, yMax, zPos);

  00083	f3 0f 10 4d 20	 movss	 xmm1, DWORD PTR _zPos$[ebp]
  00088	83 ec 14	 sub	 esp, 20			; 00000014H
  0008b	8b ce		 mov	 ecx, esi
  0008d	f3 0f 11 4c 24
	10		 movss	 DWORD PTR [esp+16], xmm1
  00093	f3 0f 11 54 24
	0c		 movss	 DWORD PTR [esp+12], xmm2
  00099	f3 0f 11 44 24
	08		 movss	 DWORD PTR [esp+8], xmm0
  0009f	f3 0f 11 5c 24
	04		 movss	 DWORD PTR [esp+4], xmm3
  000a5	f3 0f 11 04 24	 movss	 DWORD PTR [esp], xmm0
  000aa	e8 00 00 00 00	 call	 ?RenderLine2d@CScreen@@QAEXMMMMM@Z ; CScreen::RenderLine2d
  000af	f3 0f 10 45 08	 movss	 xmm0, DWORD PTR _xMin$[ebp]
  000b4	f3 0f 58 45 18	 addss	 xmm0, DWORD PTR _xminorStep$[ebp]
  000b9	f3 0f 10 4d 10	 movss	 xmm1, DWORD PTR _xMax$[ebp]
  000be	f3 0f 10 55 14	 movss	 xmm2, DWORD PTR _yMax$[ebp]
  000c3	f3 0f 10 5d 0c	 movss	 xmm3, DWORD PTR _yMin$[ebp]
  000c8	0f 2f c8	 comiss	 xmm1, xmm0
  000cb	f3 0f 11 45 08	 movss	 DWORD PTR _xMin$[ebp], xmm0
  000d0	73 b1		 jae	 SHORT $LL7@DrawMinorG
$LN6@DrawMinorG:
  000d2	5e		 pop	 esi

; 453  : }

  000d3	8b e5		 mov	 esp, ebp
  000d5	5d		 pop	 ebp
  000d6	c2 1c 00	 ret	 28			; 0000001cH
?DrawMinorGrid@CScreen@@QAEXMMMMMMM@Z ENDP		; CScreen::DrawMinorGrid
_TEXT	ENDS
; Function compile flags: /Ogtp
; File C:\DS Project\DS Files\Source\ClientSource\Client\EterLib\GrpScreen.cpp
; File C:\DS Project\DS Files\Source\ClientSource\extern\include\d3dx8math.inl
; File C:\DS Project\DS Files\Source\ClientSource\Client\EterLib\GrpScreen.cpp
; File C:\DS Project\DS Files\Source\ClientSource\extern\include\d3dx8math.inl
; File C:\DS Project\DS Files\Source\ClientSource\Client\EterLib\GrpScreen.cpp
; File C:\DS Project\DS Files\Source\ClientSource\extern\include\d3dx8math.inl
; File C:\DS Project\DS Files\Source\ClientSource\Client\EterLib\GrpScreen.cpp
; File C:\DS Project\DS Files\Source\ClientSource\extern\include\d3dx8math.inl
; File C:\DS Project\DS Files\Source\ClientSource\Client\EterLib\GrpScreen.cpp
; File C:\DS Project\DS Files\Source\ClientSource\extern\include\d3dx8math.inl
; File C:\DS Project\DS Files\Source\ClientSource\Client\EterLib\GrpScreen.cpp
; File C:\DS Project\DS Files\Source\ClientSource\extern\include\d3dx8math.inl
; File C:\DS Project\DS Files\Source\ClientSource\Client\EterLib\GrpScreen.cpp
; File C:\DS Project\DS Files\Source\ClientSource\extern\include\d3dx8math.inl
; File C:\DS Project\DS Files\Source\ClientSource\Client\EterLib\GrpScreen.cpp
; File C:\DS Project\DS Files\Source\ClientSource\extern\include\d3dx8math.inl
; File C:\DS Project\DS Files\Source\ClientSource\Client\EterLib\GrpScreen.cpp
; File C:\DS Project\DS Files\Source\ClientSource\extern\include\d3dx8math.inl
; File C:\DS Project\DS Files\Source\ClientSource\Client\EterLib\GrpScreen.cpp
; File C:\DS Project\DS Files\Source\ClientSource\extern\include\d3dx8math.inl
; File C:\DS Project\DS Files\Source\ClientSource\Client\EterLib\GrpScreen.cpp
; File C:\DS Project\DS Files\Source\ClientSource\extern\include\d3dx8math.inl
; File C:\DS Project\DS Files\Source\ClientSource\Client\EterLib\GrpScreen.cpp
; File C:\DS Project\DS Files\Source\ClientSource\extern\include\d3dx8math.inl
; File C:\DS Project\DS Files\Source\ClientSource\Client\EterLib\GrpScreen.cpp
; File C:\DS Project\DS Files\Source\ClientSource\extern\include\d3dx8math.inl
; File C:\DS Project\DS Files\Source\ClientSource\Client\EterLib\GrpScreen.cpp
; File C:\DS Project\DS Files\Source\ClientSource\extern\include\d3dx8math.inl
; File C:\DS Project\DS Files\Source\ClientSource\Client\EterLib\GrpScreen.cpp
; File C:\DS Project\DS Files\Source\ClientSource\extern\include\d3dx8math.inl
; File C:\DS Project\DS Files\Source\ClientSource\Client\EterLib\GrpScreen.cpp
; File C:\DS Project\DS Files\Source\ClientSource\extern\include\d3dx8math.inl
; File C:\DS Project\DS Files\Source\ClientSource\Client\EterLib\GrpScreen.cpp
; File C:\DS Project\DS Files\Source\ClientSource\extern\include\d3dx8math.inl
; File C:\DS Project\DS Files\Source\ClientSource\Client\EterLib\GrpScreen.cpp
; File C:\DS Project\DS Files\Source\ClientSource\extern\include\d3dx8math.inl
; File C:\DS Project\DS Files\Source\ClientSource\Client\EterLib\GrpScreen.cpp
; File C:\DS Project\DS Files\Source\ClientSource\extern\include\d3dx8math.inl
; File C:\DS Project\DS Files\Source\ClientSource\Client\EterLib\GrpScreen.cpp
;	COMDAT ?RenderBillboard@CScreen@@QAEXPAUD3DXVECTOR3@@AAUD3DXCOLOR@@@Z
_TEXT	SEGMENT
$T5 = -120						; size = 12
$T6 = -120						; size = 12
$T7 = -120						; size = 12
$T8 = -120						; size = 12
_Position$GSCopy$1$ = -108				; size = 4
_dwR$1$ = -104						; size = 4
_dwR$1$ = -104						; size = 4
_dwR$1$ = -104						; size = 4
_vertices$ = -100					; size = 96
__$ArrayPad$ = -4					; size = 4
_Position$ = 8						; size = 4
_Color$ = 12						; size = 4
?RenderBillboard@CScreen@@QAEXPAUD3DXVECTOR3@@AAUD3DXCOLOR@@@Z PROC ; CScreen::RenderBillboard, COMDAT
; _this$ = ecx

; 415  : {

  00000	55		 push	 ebp
  00001	8b ec		 mov	 ebp, esp
  00003	83 ec 78	 sub	 esp, 120		; 00000078H
  00006	a1 00 00 00 00	 mov	 eax, DWORD PTR ___security_cookie
  0000b	33 c5		 xor	 eax, ebp
  0000d	89 45 fc	 mov	 DWORD PTR __$ArrayPad$[ebp], eax
  00010	8b 45 08	 mov	 eax, DWORD PTR _Position$[ebp]
; File C:\DS Project\DS Files\Source\ClientSource\extern\include\d3dx8math.inl

; 931  :     DWORD dwR = r >= 1.0f ? 0xff : r <= 0.0f ? 0x00 : (DWORD) (r * 255.0f + 0.5f);

  00013	f3 0f 10 1d 00
	00 00 00	 movss	 xmm3, DWORD PTR __real@3f000000
; File C:\DS Project\DS Files\Source\ClientSource\Client\EterLib\GrpScreen.cpp

; 415  : {

  0001b	53		 push	 ebx
  0001c	56		 push	 esi
; File C:\DS Project\DS Files\Source\ClientSource\extern\include\d3dx8math.inl

; 182  :     z = fz;

  0001d	f3 0f 10 40 08	 movss	 xmm0, DWORD PTR [eax+8]

; 931  :     DWORD dwR = r >= 1.0f ? 0xff : r <= 0.0f ? 0x00 : (DWORD) (r * 255.0f + 0.5f);

  00022	8b 75 0c	 mov	 esi, DWORD PTR _Color$[ebp]

; 181  :     y = fy;

  00025	f3 0f 10 48 04	 movss	 xmm1, DWORD PTR [eax+4]
  0002a	f3 0f 10 10	 movss	 xmm2, DWORD PTR [eax]

; 182  :     z = fz;

  0002e	f3 0f 11 45 90	 movss	 DWORD PTR $T8[ebp+8], xmm0

; 931  :     DWORD dwR = r >= 1.0f ? 0xff : r <= 0.0f ? 0x00 : (DWORD) (r * 255.0f + 0.5f);

  00033	f3 0f 10 06	 movss	 xmm0, DWORD PTR [esi]
  00037	0f 2f 05 00 00
	00 00		 comiss	 xmm0, DWORD PTR __real@3f800000
; File C:\DS Project\DS Files\Source\ClientSource\Client\EterLib\GrpScreen.cpp

; 415  : {

  0003e	89 45 94	 mov	 DWORD PTR _Position$GSCopy$1$[ebp], eax

; 419  : 	vertices[0].position = TPosition(Position[0].x, Position[0].y, Position[0].z);

  00041	8b 45 90	 mov	 eax, DWORD PTR $T8[ebp+8]
  00044	57		 push	 edi
  00045	89 45 a4	 mov	 DWORD PTR _vertices$[ebp+8], eax
  00048	0f 14 d1	 unpcklps xmm2, xmm1
; File C:\DS Project\DS Files\Source\ClientSource\extern\include\d3dx8math.inl

; 931  :     DWORD dwR = r >= 1.0f ? 0xff : r <= 0.0f ? 0x00 : (DWORD) (r * 255.0f + 0.5f);

  0004b	0f 57 c9	 xorps	 xmm1, xmm1
; File C:\DS Project\DS Files\Source\ClientSource\Client\EterLib\GrpScreen.cpp

; 419  : 	vertices[0].position = TPosition(Position[0].x, Position[0].y, Position[0].z);

  0004e	66 0f d6 55 9c	 movq	 QWORD PTR _vertices$[ebp], xmm2
; File C:\DS Project\DS Files\Source\ClientSource\extern\include\d3dx8math.inl

; 931  :     DWORD dwR = r >= 1.0f ? 0xff : r <= 0.0f ? 0x00 : (DWORD) (r * 255.0f + 0.5f);

  00053	f3 0f 10 15 00
	00 00 00	 movss	 xmm2, DWORD PTR __real@437f0000
  0005b	72 09		 jb	 SHORT $LN14@RenderBill
  0005d	c7 45 98 ff 00
	00 00		 mov	 DWORD PTR _dwR$1$[ebp], 255 ; 000000ffH
  00064	eb 31		 jmp	 SHORT $LN13@RenderBill
$LN14@RenderBill:
  00066	0f 2f c8	 comiss	 xmm1, xmm0
  00069	72 09		 jb	 SHORT $LN12@RenderBill
  0006b	c7 45 98 00 00
	00 00		 mov	 DWORD PTR _dwR$1$[ebp], 0
  00072	eb 23		 jmp	 SHORT $LN13@RenderBill
$LN12@RenderBill:
  00074	f3 0f 59 c2	 mulss	 xmm0, xmm2
  00078	f3 0f 58 c3	 addss	 xmm0, xmm3
  0007c	e8 00 00 00 00	 call	 __ftoui3
  00081	f3 0f 10 15 00
	00 00 00	 movss	 xmm2, DWORD PTR __real@437f0000
  00089	0f 57 c9	 xorps	 xmm1, xmm1
  0008c	f3 0f 10 1d 00
	00 00 00	 movss	 xmm3, DWORD PTR __real@3f000000
  00094	89 45 98	 mov	 DWORD PTR _dwR$1$[ebp], eax
$LN13@RenderBill:

; 932  :     DWORD dwG = g >= 1.0f ? 0xff : g <= 0.0f ? 0x00 : (DWORD) (g * 255.0f + 0.5f);

  00097	f3 0f 10 46 04	 movss	 xmm0, DWORD PTR [esi+4]
  0009c	0f 2f 05 00 00
	00 00		 comiss	 xmm0, DWORD PTR __real@3f800000
  000a3	72 07		 jb	 SHORT $LN18@RenderBill
  000a5	bb ff 00 00 00	 mov	 ebx, 255		; 000000ffH
  000aa	eb 18		 jmp	 SHORT $LN17@RenderBill
$LN18@RenderBill:
  000ac	0f 2f c8	 comiss	 xmm1, xmm0
  000af	72 04		 jb	 SHORT $LN16@RenderBill
  000b1	33 db		 xor	 ebx, ebx
  000b3	eb 0f		 jmp	 SHORT $LN17@RenderBill
$LN16@RenderBill:
  000b5	f3 0f 59 c2	 mulss	 xmm0, xmm2
  000b9	f3 0f 58 c3	 addss	 xmm0, xmm3
  000bd	e8 00 00 00 00	 call	 __ftoui3
  000c2	8b d8		 mov	 ebx, eax
$LN17@RenderBill:

; 933  :     DWORD dwB = b >= 1.0f ? 0xff : b <= 0.0f ? 0x00 : (DWORD) (b * 255.0f + 0.5f);

  000c4	f3 0f 10 4e 08	 movss	 xmm1, DWORD PTR [esi+8]
  000c9	0f 57 c0	 xorps	 xmm0, xmm0
  000cc	0f 2f 0d 00 00
	00 00		 comiss	 xmm1, DWORD PTR __real@3f800000
  000d3	72 07		 jb	 SHORT $LN22@RenderBill
  000d5	bf ff 00 00 00	 mov	 edi, 255		; 000000ffH
  000da	eb 26		 jmp	 SHORT $LN21@RenderBill
$LN22@RenderBill:
  000dc	0f 2f c1	 comiss	 xmm0, xmm1
  000df	72 04		 jb	 SHORT $LN20@RenderBill
  000e1	33 ff		 xor	 edi, edi
  000e3	eb 1d		 jmp	 SHORT $LN21@RenderBill
$LN20@RenderBill:
  000e5	0f 28 c1	 movaps	 xmm0, xmm1
  000e8	f3 0f 59 05 00
	00 00 00	 mulss	 xmm0, DWORD PTR __real@437f0000
  000f0	f3 0f 58 05 00
	00 00 00	 addss	 xmm0, DWORD PTR __real@3f000000
  000f8	e8 00 00 00 00	 call	 __ftoui3
  000fd	8b f8		 mov	 edi, eax
  000ff	0f 57 c0	 xorps	 xmm0, xmm0
$LN21@RenderBill:

; 934  :     DWORD dwA = a >= 1.0f ? 0xff : a <= 0.0f ? 0x00 : (DWORD) (a * 255.0f + 0.5f);

  00102	f3 0f 10 4e 0c	 movss	 xmm1, DWORD PTR [esi+12]
  00107	0f 2f 0d 00 00
	00 00		 comiss	 xmm1, DWORD PTR __real@3f800000
  0010e	72 07		 jb	 SHORT $LN26@RenderBill
  00110	b8 ff 00 00 00	 mov	 eax, 255		; 000000ffH
  00115	eb 21		 jmp	 SHORT $LN25@RenderBill
$LN26@RenderBill:
  00117	0f 2f c1	 comiss	 xmm0, xmm1
  0011a	72 04		 jb	 SHORT $LN24@RenderBill
  0011c	33 c0		 xor	 eax, eax
  0011e	eb 18		 jmp	 SHORT $LN25@RenderBill
$LN24@RenderBill:
  00120	0f 28 c1	 movaps	 xmm0, xmm1
  00123	f3 0f 59 05 00
	00 00 00	 mulss	 xmm0, DWORD PTR __real@437f0000
  0012b	f3 0f 58 05 00
	00 00 00	 addss	 xmm0, DWORD PTR __real@3f000000
  00133	e8 00 00 00 00	 call	 __ftoui3
$LN25@RenderBill:

; 936  :     return (dwA << 24) | (dwR << 16) | (dwG << 8) | dwB;

  00138	c1 e0 08	 shl	 eax, 8
  0013b	0b 45 98	 or	 eax, DWORD PTR _dwR$1$[ebp]
  0013e	c1 e0 08	 shl	 eax, 8
  00141	0b c3		 or	 eax, ebx
; File C:\DS Project\DS Files\Source\ClientSource\Client\EterLib\GrpScreen.cpp

; 421  : 	vertices[0].texCoord = TTextureCoordinate(0, 0);

  00143	c7 45 ac 00 00
	00 00		 mov	 DWORD PTR _vertices$[ebp+16], 0
; File C:\DS Project\DS Files\Source\ClientSource\extern\include\d3dx8math.inl

; 936  :     return (dwA << 24) | (dwR << 16) | (dwG << 8) | dwB;

  0014a	c1 e0 08	 shl	 eax, 8
  0014d	0b c7		 or	 eax, edi
; File C:\DS Project\DS Files\Source\ClientSource\Client\EterLib\GrpScreen.cpp

; 421  : 	vertices[0].texCoord = TTextureCoordinate(0, 0);

  0014f	c7 45 b0 00 00
	00 00		 mov	 DWORD PTR _vertices$[ebp+20], 0
  00156	89 45 a8	 mov	 DWORD PTR _vertices$[ebp+12], eax
; File C:\DS Project\DS Files\Source\ClientSource\extern\include\d3dx8math.inl

; 180  :     x = fx;

  00159	8b 45 94	 mov	 eax, DWORD PTR _Position$GSCopy$1$[ebp]

; 182  :     z = fz;

  0015c	f3 0f 10 40 14	 movss	 xmm0, DWORD PTR [eax+20]
  00161	f3 0f 10 48 10	 movss	 xmm1, DWORD PTR [eax+16]
  00166	f3 0f 10 50 0c	 movss	 xmm2, DWORD PTR [eax+12]
  0016b	f3 0f 11 45 90	 movss	 DWORD PTR $T7[ebp+8], xmm0

; 931  :     DWORD dwR = r >= 1.0f ? 0xff : r <= 0.0f ? 0x00 : (DWORD) (r * 255.0f + 0.5f);

  00170	f3 0f 10 06	 movss	 xmm0, DWORD PTR [esi]
  00174	0f 2f 05 00 00
	00 00		 comiss	 xmm0, DWORD PTR __real@3f800000
; File C:\DS Project\DS Files\Source\ClientSource\Client\EterLib\GrpScreen.cpp

; 423  : 	vertices[1].position = TPosition(Position[1].x, Position[1].y, Position[1].z);

  0017b	8b 45 90	 mov	 eax, DWORD PTR $T7[ebp+8]
  0017e	89 45 bc	 mov	 DWORD PTR _vertices$[ebp+32], eax
  00181	0f 14 d1	 unpcklps xmm2, xmm1
; File C:\DS Project\DS Files\Source\ClientSource\extern\include\d3dx8math.inl

; 931  :     DWORD dwR = r >= 1.0f ? 0xff : r <= 0.0f ? 0x00 : (DWORD) (r * 255.0f + 0.5f);

  00184	0f 57 c9	 xorps	 xmm1, xmm1
; File C:\DS Project\DS Files\Source\ClientSource\Client\EterLib\GrpScreen.cpp

; 423  : 	vertices[1].position = TPosition(Position[1].x, Position[1].y, Position[1].z);

  00187	66 0f d6 55 b4	 movq	 QWORD PTR _vertices$[ebp+24], xmm2
; File C:\DS Project\DS Files\Source\ClientSource\extern\include\d3dx8math.inl

; 931  :     DWORD dwR = r >= 1.0f ? 0xff : r <= 0.0f ? 0x00 : (DWORD) (r * 255.0f + 0.5f);

  0018c	72 09		 jb	 SHORT $LN36@RenderBill
  0018e	c7 45 98 ff 00
	00 00		 mov	 DWORD PTR _dwR$1$[ebp], 255 ; 000000ffH
  00195	eb 29		 jmp	 SHORT $LN35@RenderBill
$LN36@RenderBill:
  00197	0f 2f c8	 comiss	 xmm1, xmm0
  0019a	72 09		 jb	 SHORT $LN34@RenderBill
  0019c	c7 45 98 00 00
	00 00		 mov	 DWORD PTR _dwR$1$[ebp], 0
  001a3	eb 1b		 jmp	 SHORT $LN35@RenderBill
$LN34@RenderBill:
  001a5	f3 0f 59 05 00
	00 00 00	 mulss	 xmm0, DWORD PTR __real@437f0000
  001ad	f3 0f 58 05 00
	00 00 00	 addss	 xmm0, DWORD PTR __real@3f000000
  001b5	e8 00 00 00 00	 call	 __ftoui3
  001ba	89 45 98	 mov	 DWORD PTR _dwR$1$[ebp], eax
  001bd	0f 57 c9	 xorps	 xmm1, xmm1
$LN35@RenderBill:

; 932  :     DWORD dwG = g >= 1.0f ? 0xff : g <= 0.0f ? 0x00 : (DWORD) (g * 255.0f + 0.5f);

  001c0	f3 0f 10 46 04	 movss	 xmm0, DWORD PTR [esi+4]
  001c5	0f 2f 05 00 00
	00 00		 comiss	 xmm0, DWORD PTR __real@3f800000
  001cc	72 07		 jb	 SHORT $LN40@RenderBill
  001ce	bb ff 00 00 00	 mov	 ebx, 255		; 000000ffH
  001d3	eb 20		 jmp	 SHORT $LN39@RenderBill
$LN40@RenderBill:
  001d5	0f 2f c8	 comiss	 xmm1, xmm0
  001d8	72 04		 jb	 SHORT $LN38@RenderBill
  001da	33 db		 xor	 ebx, ebx
  001dc	eb 17		 jmp	 SHORT $LN39@RenderBill
$LN38@RenderBill:
  001de	f3 0f 59 05 00
	00 00 00	 mulss	 xmm0, DWORD PTR __real@437f0000
  001e6	f3 0f 58 05 00
	00 00 00	 addss	 xmm0, DWORD PTR __real@3f000000
  001ee	e8 00 00 00 00	 call	 __ftoui3
  001f3	8b d8		 mov	 ebx, eax
$LN39@RenderBill:

; 933  :     DWORD dwB = b >= 1.0f ? 0xff : b <= 0.0f ? 0x00 : (DWORD) (b * 255.0f + 0.5f);

  001f5	f3 0f 10 4e 08	 movss	 xmm1, DWORD PTR [esi+8]
  001fa	0f 57 c0	 xorps	 xmm0, xmm0
  001fd	0f 2f 0d 00 00
	00 00		 comiss	 xmm1, DWORD PTR __real@3f800000
  00204	72 07		 jb	 SHORT $LN44@RenderBill
  00206	bf ff 00 00 00	 mov	 edi, 255		; 000000ffH
  0020b	eb 26		 jmp	 SHORT $LN43@RenderBill
$LN44@RenderBill:
  0020d	0f 2f c1	 comiss	 xmm0, xmm1
  00210	72 04		 jb	 SHORT $LN42@RenderBill
  00212	33 ff		 xor	 edi, edi
  00214	eb 1d		 jmp	 SHORT $LN43@RenderBill
$LN42@RenderBill:
  00216	0f 28 c1	 movaps	 xmm0, xmm1
  00219	f3 0f 59 05 00
	00 00 00	 mulss	 xmm0, DWORD PTR __real@437f0000
  00221	f3 0f 58 05 00
	00 00 00	 addss	 xmm0, DWORD PTR __real@3f000000
  00229	e8 00 00 00 00	 call	 __ftoui3
  0022e	8b f8		 mov	 edi, eax
  00230	0f 57 c0	 xorps	 xmm0, xmm0
$LN43@RenderBill:

; 934  :     DWORD dwA = a >= 1.0f ? 0xff : a <= 0.0f ? 0x00 : (DWORD) (a * 255.0f + 0.5f);

  00233	f3 0f 10 4e 0c	 movss	 xmm1, DWORD PTR [esi+12]
  00238	0f 2f 0d 00 00
	00 00		 comiss	 xmm1, DWORD PTR __real@3f800000
  0023f	72 07		 jb	 SHORT $LN48@RenderBill
  00241	b8 ff 00 00 00	 mov	 eax, 255		; 000000ffH
  00246	eb 21		 jmp	 SHORT $LN47@RenderBill
$LN48@RenderBill:
  00248	0f 2f c1	 comiss	 xmm0, xmm1
  0024b	72 04		 jb	 SHORT $LN46@RenderBill
  0024d	33 c0		 xor	 eax, eax
  0024f	eb 18		 jmp	 SHORT $LN47@RenderBill
$LN46@RenderBill:
  00251	0f 28 c1	 movaps	 xmm0, xmm1
  00254	f3 0f 59 05 00
	00 00 00	 mulss	 xmm0, DWORD PTR __real@437f0000
  0025c	f3 0f 58 05 00
	00 00 00	 addss	 xmm0, DWORD PTR __real@3f000000
  00264	e8 00 00 00 00	 call	 __ftoui3
$LN47@RenderBill:

; 936  :     return (dwA << 24) | (dwR << 16) | (dwG << 8) | dwB;

  00269	c1 e0 08	 shl	 eax, 8
  0026c	0b 45 98	 or	 eax, DWORD PTR _dwR$1$[ebp]
  0026f	c1 e0 08	 shl	 eax, 8
  00272	0b c3		 or	 eax, ebx
; File C:\DS Project\DS Files\Source\ClientSource\Client\EterLib\GrpScreen.cpp

; 425  : 	vertices[1].texCoord = TTextureCoordinate(1, 0);

  00274	c7 45 c4 00 00
	80 3f		 mov	 DWORD PTR _vertices$[ebp+40], 1065353216 ; 3f800000H
; File C:\DS Project\DS Files\Source\ClientSource\extern\include\d3dx8math.inl

; 936  :     return (dwA << 24) | (dwR << 16) | (dwG << 8) | dwB;

  0027b	c1 e0 08	 shl	 eax, 8
  0027e	0b c7		 or	 eax, edi
; File C:\DS Project\DS Files\Source\ClientSource\Client\EterLib\GrpScreen.cpp

; 425  : 	vertices[1].texCoord = TTextureCoordinate(1, 0);

  00280	c7 45 c8 00 00
	00 00		 mov	 DWORD PTR _vertices$[ebp+44], 0
  00287	89 45 c0	 mov	 DWORD PTR _vertices$[ebp+36], eax
; File C:\DS Project\DS Files\Source\ClientSource\extern\include\d3dx8math.inl

; 180  :     x = fx;

  0028a	8b 45 94	 mov	 eax, DWORD PTR _Position$GSCopy$1$[ebp]

; 182  :     z = fz;

  0028d	f3 0f 10 40 20	 movss	 xmm0, DWORD PTR [eax+32]
  00292	f3 0f 10 48 1c	 movss	 xmm1, DWORD PTR [eax+28]
  00297	f3 0f 10 50 18	 movss	 xmm2, DWORD PTR [eax+24]
  0029c	f3 0f 11 45 90	 movss	 DWORD PTR $T6[ebp+8], xmm0

; 931  :     DWORD dwR = r >= 1.0f ? 0xff : r <= 0.0f ? 0x00 : (DWORD) (r * 255.0f + 0.5f);

  002a1	f3 0f 10 06	 movss	 xmm0, DWORD PTR [esi]
  002a5	0f 2f 05 00 00
	00 00		 comiss	 xmm0, DWORD PTR __real@3f800000
; File C:\DS Project\DS Files\Source\ClientSource\Client\EterLib\GrpScreen.cpp

; 427  : 	vertices[2].position = TPosition(Position[2].x, Position[2].y, Position[2].z);

  002ac	8b 45 90	 mov	 eax, DWORD PTR $T6[ebp+8]
  002af	89 45 d4	 mov	 DWORD PTR _vertices$[ebp+56], eax
  002b2	0f 14 d1	 unpcklps xmm2, xmm1
; File C:\DS Project\DS Files\Source\ClientSource\extern\include\d3dx8math.inl

; 931  :     DWORD dwR = r >= 1.0f ? 0xff : r <= 0.0f ? 0x00 : (DWORD) (r * 255.0f + 0.5f);

  002b5	0f 57 c9	 xorps	 xmm1, xmm1
; File C:\DS Project\DS Files\Source\ClientSource\Client\EterLib\GrpScreen.cpp

; 427  : 	vertices[2].position = TPosition(Position[2].x, Position[2].y, Position[2].z);

  002b8	66 0f d6 55 cc	 movq	 QWORD PTR _vertices$[ebp+48], xmm2
; File C:\DS Project\DS Files\Source\ClientSource\extern\include\d3dx8math.inl

; 931  :     DWORD dwR = r >= 1.0f ? 0xff : r <= 0.0f ? 0x00 : (DWORD) (r * 255.0f + 0.5f);

  002bd	72 09		 jb	 SHORT $LN58@RenderBill
  002bf	c7 45 98 ff 00
	00 00		 mov	 DWORD PTR _dwR$1$[ebp], 255 ; 000000ffH
  002c6	eb 29		 jmp	 SHORT $LN57@RenderBill
$LN58@RenderBill:
  002c8	0f 2f c8	 comiss	 xmm1, xmm0
  002cb	72 09		 jb	 SHORT $LN56@RenderBill
  002cd	c7 45 98 00 00
	00 00		 mov	 DWORD PTR _dwR$1$[ebp], 0
  002d4	eb 1b		 jmp	 SHORT $LN57@RenderBill
$LN56@RenderBill:
  002d6	f3 0f 59 05 00
	00 00 00	 mulss	 xmm0, DWORD PTR __real@437f0000
  002de	f3 0f 58 05 00
	00 00 00	 addss	 xmm0, DWORD PTR __real@3f000000
  002e6	e8 00 00 00 00	 call	 __ftoui3
  002eb	89 45 98	 mov	 DWORD PTR _dwR$1$[ebp], eax
  002ee	0f 57 c9	 xorps	 xmm1, xmm1
$LN57@RenderBill:

; 932  :     DWORD dwG = g >= 1.0f ? 0xff : g <= 0.0f ? 0x00 : (DWORD) (g * 255.0f + 0.5f);

  002f1	f3 0f 10 46 04	 movss	 xmm0, DWORD PTR [esi+4]
  002f6	0f 2f 05 00 00
	00 00		 comiss	 xmm0, DWORD PTR __real@3f800000
  002fd	72 07		 jb	 SHORT $LN62@RenderBill
  002ff	bb ff 00 00 00	 mov	 ebx, 255		; 000000ffH
  00304	eb 20		 jmp	 SHORT $LN61@RenderBill
$LN62@RenderBill:
  00306	0f 2f c8	 comiss	 xmm1, xmm0
  00309	72 04		 jb	 SHORT $LN60@RenderBill
  0030b	33 db		 xor	 ebx, ebx
  0030d	eb 17		 jmp	 SHORT $LN61@RenderBill
$LN60@RenderBill:
  0030f	f3 0f 59 05 00
	00 00 00	 mulss	 xmm0, DWORD PTR __real@437f0000
  00317	f3 0f 58 05 00
	00 00 00	 addss	 xmm0, DWORD PTR __real@3f000000
  0031f	e8 00 00 00 00	 call	 __ftoui3
  00324	8b d8		 mov	 ebx, eax
$LN61@RenderBill:

; 933  :     DWORD dwB = b >= 1.0f ? 0xff : b <= 0.0f ? 0x00 : (DWORD) (b * 255.0f + 0.5f);

  00326	f3 0f 10 4e 08	 movss	 xmm1, DWORD PTR [esi+8]
  0032b	0f 57 c0	 xorps	 xmm0, xmm0
  0032e	0f 2f 0d 00 00
	00 00		 comiss	 xmm1, DWORD PTR __real@3f800000
  00335	72 07		 jb	 SHORT $LN66@RenderBill
  00337	bf ff 00 00 00	 mov	 edi, 255		; 000000ffH
  0033c	eb 26		 jmp	 SHORT $LN65@RenderBill
$LN66@RenderBill:
  0033e	0f 2f c1	 comiss	 xmm0, xmm1
  00341	72 04		 jb	 SHORT $LN64@RenderBill
  00343	33 ff		 xor	 edi, edi
  00345	eb 1d		 jmp	 SHORT $LN65@RenderBill
$LN64@RenderBill:
  00347	0f 28 c1	 movaps	 xmm0, xmm1
  0034a	f3 0f 59 05 00
	00 00 00	 mulss	 xmm0, DWORD PTR __real@437f0000
  00352	f3 0f 58 05 00
	00 00 00	 addss	 xmm0, DWORD PTR __real@3f000000
  0035a	e8 00 00 00 00	 call	 __ftoui3
  0035f	8b f8		 mov	 edi, eax
  00361	0f 57 c0	 xorps	 xmm0, xmm0
$LN65@RenderBill:

; 934  :     DWORD dwA = a >= 1.0f ? 0xff : a <= 0.0f ? 0x00 : (DWORD) (a * 255.0f + 0.5f);

  00364	f3 0f 10 4e 0c	 movss	 xmm1, DWORD PTR [esi+12]
  00369	0f 2f 0d 00 00
	00 00		 comiss	 xmm1, DWORD PTR __real@3f800000
  00370	72 07		 jb	 SHORT $LN70@RenderBill
  00372	b8 ff 00 00 00	 mov	 eax, 255		; 000000ffH
  00377	eb 21		 jmp	 SHORT $LN69@RenderBill
$LN70@RenderBill:
  00379	0f 2f c1	 comiss	 xmm0, xmm1
  0037c	72 04		 jb	 SHORT $LN68@RenderBill
  0037e	33 c0		 xor	 eax, eax
  00380	eb 18		 jmp	 SHORT $LN69@RenderBill
$LN68@RenderBill:
  00382	0f 28 c1	 movaps	 xmm0, xmm1
  00385	f3 0f 59 05 00
	00 00 00	 mulss	 xmm0, DWORD PTR __real@437f0000
  0038d	f3 0f 58 05 00
	00 00 00	 addss	 xmm0, DWORD PTR __real@3f000000
  00395	e8 00 00 00 00	 call	 __ftoui3
$LN69@RenderBill:

; 936  :     return (dwA << 24) | (dwR << 16) | (dwG << 8) | dwB;

  0039a	c1 e0 08	 shl	 eax, 8
  0039d	0b 45 98	 or	 eax, DWORD PTR _dwR$1$[ebp]
  003a0	c1 e0 08	 shl	 eax, 8
  003a3	0b c3		 or	 eax, ebx
; File C:\DS Project\DS Files\Source\ClientSource\Client\EterLib\GrpScreen.cpp

; 429  : 	vertices[2].texCoord = TTextureCoordinate(0, 1);

  003a5	c7 45 dc 00 00
	00 00		 mov	 DWORD PTR _vertices$[ebp+64], 0
; File C:\DS Project\DS Files\Source\ClientSource\extern\include\d3dx8math.inl

; 936  :     return (dwA << 24) | (dwR << 16) | (dwG << 8) | dwB;

  003ac	c1 e0 08	 shl	 eax, 8
  003af	0b c7		 or	 eax, edi
; File C:\DS Project\DS Files\Source\ClientSource\Client\EterLib\GrpScreen.cpp

; 429  : 	vertices[2].texCoord = TTextureCoordinate(0, 1);

  003b1	c7 45 e0 00 00
	80 3f		 mov	 DWORD PTR _vertices$[ebp+68], 1065353216 ; 3f800000H
  003b8	89 45 d8	 mov	 DWORD PTR _vertices$[ebp+60], eax
; File C:\DS Project\DS Files\Source\ClientSource\extern\include\d3dx8math.inl

; 180  :     x = fx;

  003bb	8b 45 94	 mov	 eax, DWORD PTR _Position$GSCopy$1$[ebp]

; 182  :     z = fz;

  003be	f3 0f 10 40 2c	 movss	 xmm0, DWORD PTR [eax+44]
  003c3	f3 0f 10 48 28	 movss	 xmm1, DWORD PTR [eax+40]
  003c8	f3 0f 10 50 24	 movss	 xmm2, DWORD PTR [eax+36]
  003cd	f3 0f 11 45 90	 movss	 DWORD PTR $T5[ebp+8], xmm0

; 931  :     DWORD dwR = r >= 1.0f ? 0xff : r <= 0.0f ? 0x00 : (DWORD) (r * 255.0f + 0.5f);

  003d2	f3 0f 10 06	 movss	 xmm0, DWORD PTR [esi]
  003d6	0f 2f 05 00 00
	00 00		 comiss	 xmm0, DWORD PTR __real@3f800000
; File C:\DS Project\DS Files\Source\ClientSource\Client\EterLib\GrpScreen.cpp

; 431  : 	vertices[3].position = TPosition(Position[3].x, Position[3].y, Position[3].z);

  003dd	8b 45 90	 mov	 eax, DWORD PTR $T5[ebp+8]
  003e0	89 45 ec	 mov	 DWORD PTR _vertices$[ebp+80], eax
  003e3	0f 14 d1	 unpcklps xmm2, xmm1
; File C:\DS Project\DS Files\Source\ClientSource\extern\include\d3dx8math.inl

; 931  :     DWORD dwR = r >= 1.0f ? 0xff : r <= 0.0f ? 0x00 : (DWORD) (r * 255.0f + 0.5f);

  003e6	0f 57 c9	 xorps	 xmm1, xmm1
; File C:\DS Project\DS Files\Source\ClientSource\Client\EterLib\GrpScreen.cpp

; 431  : 	vertices[3].position = TPosition(Position[3].x, Position[3].y, Position[3].z);

  003e9	66 0f d6 55 e4	 movq	 QWORD PTR _vertices$[ebp+72], xmm2
; File C:\DS Project\DS Files\Source\ClientSource\extern\include\d3dx8math.inl

; 931  :     DWORD dwR = r >= 1.0f ? 0xff : r <= 0.0f ? 0x00 : (DWORD) (r * 255.0f + 0.5f);

  003ee	72 07		 jb	 SHORT $LN80@RenderBill
  003f0	bb ff 00 00 00	 mov	 ebx, 255		; 000000ffH
  003f5	eb 23		 jmp	 SHORT $LN79@RenderBill
$LN80@RenderBill:
  003f7	0f 2f c8	 comiss	 xmm1, xmm0
  003fa	72 04		 jb	 SHORT $LN78@RenderBill
  003fc	33 db		 xor	 ebx, ebx
  003fe	eb 1a		 jmp	 SHORT $LN79@RenderBill
$LN78@RenderBill:
  00400	f3 0f 59 05 00
	00 00 00	 mulss	 xmm0, DWORD PTR __real@437f0000
  00408	f3 0f 58 05 00
	00 00 00	 addss	 xmm0, DWORD PTR __real@3f000000
  00410	e8 00 00 00 00	 call	 __ftoui3
  00415	8b d8		 mov	 ebx, eax
  00417	0f 57 c9	 xorps	 xmm1, xmm1
$LN79@RenderBill:

; 932  :     DWORD dwG = g >= 1.0f ? 0xff : g <= 0.0f ? 0x00 : (DWORD) (g * 255.0f + 0.5f);

  0041a	f3 0f 10 46 04	 movss	 xmm0, DWORD PTR [esi+4]
  0041f	0f 2f 05 00 00
	00 00		 comiss	 xmm0, DWORD PTR __real@3f800000
  00426	72 07		 jb	 SHORT $LN84@RenderBill
  00428	bf ff 00 00 00	 mov	 edi, 255		; 000000ffH
  0042d	eb 20		 jmp	 SHORT $LN83@RenderBill
$LN84@RenderBill:
  0042f	0f 2f c8	 comiss	 xmm1, xmm0
  00432	72 04		 jb	 SHORT $LN82@RenderBill
  00434	33 ff		 xor	 edi, edi
  00436	eb 17		 jmp	 SHORT $LN83@RenderBill
$LN82@RenderBill:
  00438	f3 0f 59 05 00
	00 00 00	 mulss	 xmm0, DWORD PTR __real@437f0000
  00440	f3 0f 58 05 00
	00 00 00	 addss	 xmm0, DWORD PTR __real@3f000000
  00448	e8 00 00 00 00	 call	 __ftoui3
  0044d	8b f8		 mov	 edi, eax
$LN83@RenderBill:

; 933  :     DWORD dwB = b >= 1.0f ? 0xff : b <= 0.0f ? 0x00 : (DWORD) (b * 255.0f + 0.5f);

  0044f	f3 0f 10 4e 08	 movss	 xmm1, DWORD PTR [esi+8]
  00454	0f 57 c0	 xorps	 xmm0, xmm0
  00457	0f 2f 0d 00 00
	00 00		 comiss	 xmm1, DWORD PTR __real@3f800000
  0045e	72 07		 jb	 SHORT $LN88@RenderBill
  00460	be ff 00 00 00	 mov	 esi, 255		; 000000ffH
  00465	eb 26		 jmp	 SHORT $LN87@RenderBill
$LN88@RenderBill:
  00467	0f 2f c1	 comiss	 xmm0, xmm1
  0046a	72 04		 jb	 SHORT $LN86@RenderBill
  0046c	33 f6		 xor	 esi, esi
  0046e	eb 1d		 jmp	 SHORT $LN87@RenderBill
$LN86@RenderBill:
  00470	f3 0f 59 0d 00
	00 00 00	 mulss	 xmm1, DWORD PTR __real@437f0000
  00478	f3 0f 58 0d 00
	00 00 00	 addss	 xmm1, DWORD PTR __real@3f000000
  00480	0f 28 c1	 movaps	 xmm0, xmm1
  00483	e8 00 00 00 00	 call	 __ftoui3
  00488	8b f0		 mov	 esi, eax
  0048a	0f 57 c0	 xorps	 xmm0, xmm0
$LN87@RenderBill:

; 934  :     DWORD dwA = a >= 1.0f ? 0xff : a <= 0.0f ? 0x00 : (DWORD) (a * 255.0f + 0.5f);

  0048d	8b 45 0c	 mov	 eax, DWORD PTR _Color$[ebp]
  00490	f3 0f 10 48 0c	 movss	 xmm1, DWORD PTR [eax+12]
  00495	0f 2f 0d 00 00
	00 00		 comiss	 xmm1, DWORD PTR __real@3f800000
  0049c	72 07		 jb	 SHORT $LN92@RenderBill
  0049e	b8 ff 00 00 00	 mov	 eax, 255		; 000000ffH
  004a3	eb 21		 jmp	 SHORT $LN91@RenderBill
$LN92@RenderBill:
  004a5	0f 2f c1	 comiss	 xmm0, xmm1
  004a8	72 04		 jb	 SHORT $LN90@RenderBill
  004aa	33 c0		 xor	 eax, eax
  004ac	eb 18		 jmp	 SHORT $LN91@RenderBill
$LN90@RenderBill:
  004ae	f3 0f 59 0d 00
	00 00 00	 mulss	 xmm1, DWORD PTR __real@437f0000
  004b6	f3 0f 58 0d 00
	00 00 00	 addss	 xmm1, DWORD PTR __real@3f000000
  004be	0f 28 c1	 movaps	 xmm0, xmm1
  004c1	e8 00 00 00 00	 call	 __ftoui3
$LN91@RenderBill:
; File C:\DS Project\DS Files\Source\ClientSource\Client\EterLib\GrpScreen.cpp

; 435  : 	STATEMANAGER.SetVertexShader(D3DFVF_XYZ|D3DFVF_DIFFUSE|D3DFVF_TEX1);

  004c6	8b 0d 00 00 00
	00		 mov	 ecx, DWORD PTR ?ms_singleton@?$CSingleton@VCStateManager@@@@0PAVCStateManager@@A ; CSingleton<CStateManager>::ms_singleton
; File C:\DS Project\DS Files\Source\ClientSource\extern\include\d3dx8math.inl

; 936  :     return (dwA << 24) | (dwR << 16) | (dwG << 8) | dwB;

  004cc	c1 e0 08	 shl	 eax, 8
  004cf	0b c3		 or	 eax, ebx
; File C:\DS Project\DS Files\Source\ClientSource\Client\EterLib\GrpScreen.cpp

; 433  : 	vertices[3].texCoord = TTextureCoordinate(1, 1);

  004d1	c7 45 f4 00 00
	80 3f		 mov	 DWORD PTR _vertices$[ebp+88], 1065353216 ; 3f800000H
; File C:\DS Project\DS Files\Source\ClientSource\extern\include\d3dx8math.inl

; 936  :     return (dwA << 24) | (dwR << 16) | (dwG << 8) | dwB;

  004d8	c1 e0 08	 shl	 eax, 8
  004db	0b c7		 or	 eax, edi
; File C:\DS Project\DS Files\Source\ClientSource\Client\EterLib\GrpScreen.cpp

; 433  : 	vertices[3].texCoord = TTextureCoordinate(1, 1);

  004dd	c7 45 f8 00 00
	80 3f		 mov	 DWORD PTR _vertices$[ebp+92], 1065353216 ; 3f800000H
; File C:\DS Project\DS Files\Source\ClientSource\extern\include\d3dx8math.inl

; 936  :     return (dwA << 24) | (dwR << 16) | (dwG << 8) | dwB;

  004e4	c1 e0 08	 shl	 eax, 8
  004e7	0b c6		 or	 eax, esi
; File C:\DS Project\DS Files\Source\ClientSource\Client\EterLib\GrpScreen.cpp

; 435  : 	STATEMANAGER.SetVertexShader(D3DFVF_XYZ|D3DFVF_DIFFUSE|D3DFVF_TEX1);

  004e9	68 42 01 00 00	 push	 322			; 00000142H
  004ee	89 45 f0	 mov	 DWORD PTR _vertices$[ebp+84], eax
  004f1	e8 00 00 00 00	 call	 ?SetVertexShader@CStateManager@@QAEXK@Z ; CStateManager::SetVertexShader

; 436  : 
; 437  : 	// 2004.11.18.myevan.DrawIndexPrimitiveUP -> DynamicVertexBuffer
; 438  : 	SetDefaultIndexBuffer(DEFAULT_IB_FILL_RECT);

  004f6	6a 05		 push	 5
  004f8	e8 00 00 00 00	 call	 ?SetDefaultIndexBuffer@CGraphicBase@@SAXI@Z ; CGraphicBase::SetDefaultIndexBuffer

; 439  : 	if (SetPDTStream(vertices, 4))

  004fd	8d 45 9c	 lea	 eax, DWORD PTR _vertices$[ebp]
  00500	6a 04		 push	 4
  00502	50		 push	 eax
  00503	e8 00 00 00 00	 call	 ?SetPDTStream@CGraphicBase@@SA_NPAUSPDTVertex@@I@Z ; CGraphicBase::SetPDTStream
  00508	83 c4 0c	 add	 esp, 12			; 0000000cH
  0050b	5f		 pop	 edi
  0050c	5e		 pop	 esi
  0050d	5b		 pop	 ebx
  0050e	84 c0		 test	 al, al
  00510	74 15		 je	 SHORT $LN2@RenderBill

; 440  : 		STATEMANAGER.DrawIndexedPrimitive(D3DPT_TRIANGLELIST, 0, 4, 0, 2);

  00512	8b 0d 00 00 00
	00		 mov	 ecx, DWORD PTR ?ms_singleton@?$CSingleton@VCStateManager@@@@0PAVCStateManager@@A ; CSingleton<CStateManager>::ms_singleton
  00518	6a 02		 push	 2
  0051a	6a 00		 push	 0
  0051c	6a 04		 push	 4
  0051e	6a 00		 push	 0
  00520	6a 04		 push	 4
  00522	e8 00 00 00 00	 call	 ?DrawIndexedPrimitive@CStateManager@@QAEJW4_D3DPRIMITIVETYPE@@IIII@Z ; CStateManager::DrawIndexedPrimitive
$LN2@RenderBill:

; 441  : 	//OLD: STATEMANAGER.DrawIndexedPrimitiveUP(D3DPT_TRIANGLELIST, 0, 4, 2, &ms_fillRectIdxVector[0], D3DFMT_INDEX16, vertices, sizeof(TPDTVertex));
; 442  : }

  00527	8b 4d fc	 mov	 ecx, DWORD PTR __$ArrayPad$[ebp]
  0052a	33 cd		 xor	 ecx, ebp
  0052c	e8 00 00 00 00	 call	 @__security_check_cookie@4
  00531	8b e5		 mov	 esp, ebp
  00533	5d		 pop	 ebp
  00534	c2 08 00	 ret	 8
?RenderBillboard@CScreen@@QAEXPAUD3DXVECTOR3@@AAUD3DXCOLOR@@@Z ENDP ; CScreen::RenderBillboard
_TEXT	ENDS
; Function compile flags: /Ogtp
; File C:\DS Project\DS Files\Source\ClientSource\Client\EterLib\GrpScreen.cpp
; File C:\DS Project\DS Files\Source\ClientSource\extern\include\d3dx8math.inl
; File C:\DS Project\DS Files\Source\ClientSource\Client\EterLib\GrpScreen.cpp
; File C:\DS Project\DS Files\Source\ClientSource\extern\include\d3dx8math.inl
; File C:\DS Project\DS Files\Source\ClientSource\Client\EterLib\GrpScreen.cpp
; File C:\DS Project\DS Files\Source\ClientSource\extern\include\d3dx8math.inl
; File C:\DS Project\DS Files\Source\ClientSource\Client\EterLib\GrpScreen.cpp
; File C:\DS Project\DS Files\Source\ClientSource\extern\include\d3dx8math.inl
; File C:\DS Project\DS Files\Source\ClientSource\Client\EterLib\GrpScreen.cpp
; File C:\DS Project\DS Files\Source\ClientSource\extern\include\d3dx8math.inl
; File C:\DS Project\DS Files\Source\ClientSource\Client\EterLib\GrpScreen.cpp
; File C:\DS Project\DS Files\Source\ClientSource\extern\include\d3dx8math.inl
; File C:\DS Project\DS Files\Source\ClientSource\Client\EterLib\GrpScreen.cpp
;	COMDAT ?RenderTextureBox@CScreen@@QAEXMMMMMMMMM@Z
_TEXT	SEGMENT
$T5 = -112						; size = 12
$T6 = -112						; size = 12
$T7 = -112						; size = 12
$T8 = -112						; size = 12
_vertices$ = -100					; size = 96
__$ArrayPad$ = -4					; size = 4
_sx$ = 8						; size = 4
_sy$ = 12						; size = 4
_ex$ = 16						; size = 4
_ey$ = 20						; size = 4
_z$ = 24						; size = 4
_su$ = 28						; size = 4
_sv$ = 32						; size = 4
_eu$ = 36						; size = 4
_ev$ = 40						; size = 4
?RenderTextureBox@CScreen@@QAEXMMMMMMMMM@Z PROC		; CScreen::RenderTextureBox, COMDAT
; _this$ = ecx

; 380  : {

  00000	55		 push	 ebp
  00001	8b ec		 mov	 ebp, esp
  00003	83 ec 70	 sub	 esp, 112		; 00000070H
  00006	a1 00 00 00 00	 mov	 eax, DWORD PTR ___security_cookie
  0000b	33 c5		 xor	 eax, ebp
  0000d	89 45 fc	 mov	 DWORD PTR __$ArrayPad$[ebp], eax
  00010	f3 0f 10 65 08	 movss	 xmm4, DWORD PTR _sx$[ebp]
; File C:\DS Project\DS Files\Source\ClientSource\extern\include\d3dx8math.inl

; 181  :     y = fy;

  00015	f3 0f 10 55 0c	 movss	 xmm2, DWORD PTR _sy$[ebp]
; File C:\DS Project\DS Files\Source\ClientSource\Client\EterLib\GrpScreen.cpp

; 385  : 	vertices[0].position = TPosition(sx, sy, z);

  0001a	0f 28 c4	 movaps	 xmm0, xmm4
; File C:\DS Project\DS Files\Source\ClientSource\extern\include\d3dx8math.inl

; 182  :     z = fz;

  0001d	f3 0f 10 6d 18	 movss	 xmm5, DWORD PTR _z$[ebp]
; File C:\DS Project\DS Files\Source\ClientSource\Client\EterLib\GrpScreen.cpp

; 380  : {

  00022	f3 0f 10 75 10	 movss	 xmm6, DWORD PTR _ex$[ebp]

; 386  : 	vertices[0].diffuse = ms_diffuseColor;
; 387  : 	vertices[0].texCoord = TTextureCoordinate(su, sv);

  00027	f3 0f 10 4d 20	 movss	 xmm1, DWORD PTR _sv$[ebp]
  0002c	8b 0d 00 00 00
	00		 mov	 ecx, DWORD PTR ?ms_diffuseColor@CScreen@@1KA ; CScreen::ms_diffuseColor
  00032	f3 0f 10 5d 1c	 movss	 xmm3, DWORD PTR _su$[ebp]
  00037	0f 14 c2	 unpcklps xmm0, xmm2
  0003a	66 0f d6 45 9c	 movq	 QWORD PTR _vertices$[ebp], xmm0

; 389  : 	vertices[1].position = TPosition(ex, sy, z);

  0003f	0f 28 c6	 movaps	 xmm0, xmm6
; File C:\DS Project\DS Files\Source\ClientSource\extern\include\d3dx8math.inl

; 182  :     z = fz;

  00042	f3 0f 11 6d 98	 movss	 DWORD PTR $T8[ebp+8], xmm5
; File C:\DS Project\DS Files\Source\ClientSource\Client\EterLib\GrpScreen.cpp

; 385  : 	vertices[0].position = TPosition(sx, sy, z);

  00047	8b 45 98	 mov	 eax, DWORD PTR $T8[ebp+8]
  0004a	89 45 a4	 mov	 DWORD PTR _vertices$[ebp+8], eax
; File C:\DS Project\DS Files\Source\ClientSource\extern\include\d3dx8math.inl

; 182  :     z = fz;

  0004d	f3 0f 11 6d 98	 movss	 DWORD PTR $T7[ebp+8], xmm5
; File C:\DS Project\DS Files\Source\ClientSource\Client\EterLib\GrpScreen.cpp

; 389  : 	vertices[1].position = TPosition(ex, sy, z);

  00052	8b 45 98	 mov	 eax, DWORD PTR $T7[ebp+8]
  00055	0f 14 c2	 unpcklps xmm0, xmm2

; 390  : 	vertices[1].diffuse = ms_diffuseColor;
; 391  : 	vertices[1].texCoord = TTextureCoordinate(eu, sv);

  00058	f3 0f 10 55 24	 movss	 xmm2, DWORD PTR _eu$[ebp]
  0005d	f3 0f 11 4d b0	 movss	 DWORD PTR _vertices$[ebp+20], xmm1
  00062	89 45 bc	 mov	 DWORD PTR _vertices$[ebp+32], eax
  00065	f3 0f 11 4d c8	 movss	 DWORD PTR _vertices$[ebp+44], xmm1
; File C:\DS Project\DS Files\Source\ClientSource\extern\include\d3dx8math.inl

; 181  :     y = fy;

  0006a	f3 0f 10 4d 14	 movss	 xmm1, DWORD PTR _ey$[ebp]

; 182  :     z = fz;

  0006f	f3 0f 11 6d 98	 movss	 DWORD PTR $T6[ebp+8], xmm5
; File C:\DS Project\DS Files\Source\ClientSource\Client\EterLib\GrpScreen.cpp

; 393  : 	vertices[2].position = TPosition(sx, ey, z);

  00074	8b 45 98	 mov	 eax, DWORD PTR $T6[ebp+8]
  00077	66 0f d6 45 b4	 movq	 QWORD PTR _vertices$[ebp+24], xmm0

; 394  : 	vertices[2].diffuse = ms_diffuseColor;
; 395  : 	vertices[2].texCoord = TTextureCoordinate(su, ev);

  0007c	f3 0f 10 45 28	 movss	 xmm0, DWORD PTR _ev$[ebp]
  00081	89 4d a8	 mov	 DWORD PTR _vertices$[ebp+12], ecx
  00084	89 4d c0	 mov	 DWORD PTR _vertices$[ebp+36], ecx
  00087	0f 14 e1	 unpcklps xmm4, xmm1
  0008a	89 45 d4	 mov	 DWORD PTR _vertices$[ebp+56], eax
  0008d	89 4d d8	 mov	 DWORD PTR _vertices$[ebp+60], ecx
; File C:\DS Project\DS Files\Source\ClientSource\extern\include\d3dx8math.inl

; 182  :     z = fz;

  00090	f3 0f 11 6d 98	 movss	 DWORD PTR $T5[ebp+8], xmm5
; File C:\DS Project\DS Files\Source\ClientSource\Client\EterLib\GrpScreen.cpp

; 397  : 	vertices[3].position = TPosition(ex, ey, z);

  00095	8b 45 98	 mov	 eax, DWORD PTR $T5[ebp+8]
  00098	0f 14 f1	 unpcklps xmm6, xmm1

; 398  : 	vertices[3].diffuse = ms_diffuseColor;

  0009b	89 4d f0	 mov	 DWORD PTR _vertices$[ebp+84], ecx

; 399  : 	vertices[3].texCoord = TTextureCoordinate(eu, ev);
; 400  : 
; 401  : #ifdef WORLD_EDITOR
; 402  : 	STATEMANAGER.SetTransform(D3DTS_WORLD, ms_lpd3dMatStack->GetTop());
; 403  : #endif
; 404  : 	STATEMANAGER.SetVertexShader(D3DFVF_XYZ|D3DFVF_DIFFUSE|D3DFVF_TEX1);

  0009e	8b 0d 00 00 00
	00		 mov	 ecx, DWORD PTR ?ms_singleton@?$CSingleton@VCStateManager@@@@0PAVCStateManager@@A ; CSingleton<CStateManager>::ms_singleton
  000a4	68 42 01 00 00	 push	 322			; 00000142H
  000a9	f3 0f 11 5d ac	 movss	 DWORD PTR _vertices$[ebp+16], xmm3
  000ae	f3 0f 11 55 c4	 movss	 DWORD PTR _vertices$[ebp+40], xmm2
  000b3	66 0f d6 65 cc	 movq	 QWORD PTR _vertices$[ebp+48], xmm4
  000b8	f3 0f 11 5d dc	 movss	 DWORD PTR _vertices$[ebp+64], xmm3
  000bd	f3 0f 11 45 e0	 movss	 DWORD PTR _vertices$[ebp+68], xmm0
  000c2	66 0f d6 75 e4	 movq	 QWORD PTR _vertices$[ebp+72], xmm6
  000c7	89 45 ec	 mov	 DWORD PTR _vertices$[ebp+80], eax
  000ca	f3 0f 11 55 f4	 movss	 DWORD PTR _vertices$[ebp+88], xmm2
  000cf	f3 0f 11 45 f8	 movss	 DWORD PTR _vertices$[ebp+92], xmm0
  000d4	e8 00 00 00 00	 call	 ?SetVertexShader@CStateManager@@QAEXK@Z ; CStateManager::SetVertexShader

; 405  : 
; 406  : 	// 2004.11.18.myevan.DrawIndexPrimitiveUP -> DynamicVertexBuffer
; 407  : 	SetDefaultIndexBuffer(DEFAULT_IB_FILL_RECT);

  000d9	6a 05		 push	 5
  000db	e8 00 00 00 00	 call	 ?SetDefaultIndexBuffer@CGraphicBase@@SAXI@Z ; CGraphicBase::SetDefaultIndexBuffer

; 408  : 	if (SetPDTStream(vertices, 4))

  000e0	8d 45 9c	 lea	 eax, DWORD PTR _vertices$[ebp]
  000e3	6a 04		 push	 4
  000e5	50		 push	 eax
  000e6	e8 00 00 00 00	 call	 ?SetPDTStream@CGraphicBase@@SA_NPAUSPDTVertex@@I@Z ; CGraphicBase::SetPDTStream
  000eb	83 c4 0c	 add	 esp, 12			; 0000000cH
  000ee	84 c0		 test	 al, al
  000f0	74 15		 je	 SHORT $LN2@RenderText

; 409  : 		STATEMANAGER.DrawIndexedPrimitive(D3DPT_TRIANGLELIST, 0, 4, 0, 2);

  000f2	8b 0d 00 00 00
	00		 mov	 ecx, DWORD PTR ?ms_singleton@?$CSingleton@VCStateManager@@@@0PAVCStateManager@@A ; CSingleton<CStateManager>::ms_singleton
  000f8	6a 02		 push	 2
  000fa	6a 00		 push	 0
  000fc	6a 04		 push	 4
  000fe	6a 00		 push	 0
  00100	6a 04		 push	 4
  00102	e8 00 00 00 00	 call	 ?DrawIndexedPrimitive@CStateManager@@QAEJW4_D3DPRIMITIVETYPE@@IIII@Z ; CStateManager::DrawIndexedPrimitive
$LN2@RenderText:

; 410  : 	//OLD: STATEMANAGER.DrawIndexedPrimitiveUP(D3DPT_TRIANGLELIST, 0, 4, 2, &ms_fillRectIdxVector[0], D3DFMT_INDEX16, vertices, sizeof(TPDTVertex));
; 411  : }

  00107	8b 4d fc	 mov	 ecx, DWORD PTR __$ArrayPad$[ebp]
  0010a	33 cd		 xor	 ecx, ebp
  0010c	e8 00 00 00 00	 call	 @__security_check_cookie@4
  00111	8b e5		 mov	 esp, ebp
  00113	5d		 pop	 ebp
  00114	c2 24 00	 ret	 36			; 00000024H
?RenderTextureBox@CScreen@@QAEXMMMMMMMMM@Z ENDP		; CScreen::RenderTextureBox
_TEXT	ENDS
; Function compile flags: /Ogtp
; File C:\DS Project\DS Files\Source\ClientSource\Client\EterLib\GrpScreen.cpp
; File C:\DS Project\DS Files\Source\ClientSource\extern\include\d3dx8math.inl
; File C:\DS Project\DS Files\Source\ClientSource\Client\EterLib\GrpScreen.cpp
; File C:\DS Project\DS Files\Source\ClientSource\extern\include\d3dx8math.inl
; File C:\DS Project\DS Files\Source\ClientSource\Client\EterLib\GrpScreen.cpp
; File C:\DS Project\DS Files\Source\ClientSource\extern\include\d3dx8math.inl
; File C:\DS Project\DS Files\Source\ClientSource\Client\EterLib\GrpScreen.cpp
; File C:\DS Project\DS Files\Source\ClientSource\extern\include\d3dx8math.inl
; File C:\DS Project\DS Files\Source\ClientSource\Client\EterLib\GrpScreen.cpp
; File C:\DS Project\DS Files\Source\ClientSource\extern\include\d3dx8math.inl
; File C:\DS Project\DS Files\Source\ClientSource\Client\EterLib\GrpScreen.cpp
; File C:\DS Project\DS Files\Source\ClientSource\extern\include\d3dx8math.inl
; File C:\DS Project\DS Files\Source\ClientSource\Client\EterLib\GrpScreen.cpp
;	COMDAT ?RenderCube@CScreen@@QAEXMMMMMMUD3DXMATRIX@@@Z
_TEXT	SEGMENT
$T1 = -328						; size = 12
$T2 = -316						; size = 12
_v3Center$$sroa$458$1$ = -304				; size = 4
_v3Center$$sroa$455$1$ = -300				; size = 4
_v3Center$$sroa$456$1$ = -296				; size = 4
_vertices$ = -292					; size = 192
_v3Vertex$ = -100					; size = 96
__$ArrayPad$ = -4					; size = 4
_sx$ = 8						; size = 4
_sy$ = 12						; size = 4
_sz$ = 16						; size = 4
_ex$ = 20						; size = 4
_ey$ = 24						; size = 4
_ez$ = 28						; size = 4
_matRotation$ = 32					; size = 64
?RenderCube@CScreen@@QAEXMMMMMMUD3DXMATRIX@@@Z PROC	; CScreen::RenderCube, COMDAT
; _this$ = ecx

; 192  : {

  00000	55		 push	 ebp
  00001	8b ec		 mov	 ebp, esp
  00003	81 ec 48 01 00
	00		 sub	 esp, 328		; 00000148H
  00009	a1 00 00 00 00	 mov	 eax, DWORD PTR ___security_cookie
  0000e	33 c5		 xor	 eax, ebp
  00010	89 45 fc	 mov	 DWORD PTR __$ArrayPad$[ebp], eax

; 193  : 	D3DXVECTOR3 v3Center = D3DXVECTOR3((sx + ex) * 0.5f, (sy + ey) * 0.5f, (sz + ez) * 0.5f);

  00013	f3 0f 10 55 0c	 movss	 xmm2, DWORD PTR _sy$[ebp]
  00018	f3 0f 10 6d 08	 movss	 xmm5, DWORD PTR _sx$[ebp]
  0001d	0f 28 ca	 movaps	 xmm1, xmm2
  00020	f3 0f 10 65 18	 movss	 xmm4, DWORD PTR _ey$[ebp]
  00025	0f 28 fd	 movaps	 xmm7, xmm5
  00028	f3 0f 10 75 14	 movss	 xmm6, DWORD PTR _ex$[ebp]
  0002d	f3 0f 58 cc	 addss	 xmm1, xmm4
  00031	f3 0f 10 05 00
	00 00 00	 movss	 xmm0, DWORD PTR __real@3f000000
  00039	f3 0f 58 fe	 addss	 xmm7, xmm6
  0003d	f3 0f 10 5d 1c	 movss	 xmm3, DWORD PTR _ez$[ebp]
  00042	53		 push	 ebx
  00043	56		 push	 esi
  00044	f3 0f 59 c8	 mulss	 xmm1, xmm0
  00048	8d 75 9c	 lea	 esi, DWORD PTR _v3Vertex$[ebp]
  0004b	bb 08 00 00 00	 mov	 ebx, 8
  00050	f3 0f 59 f8	 mulss	 xmm7, xmm0
  00054	57		 push	 edi
  00055	f3 0f 11 8d d4
	fe ff ff	 movss	 DWORD PTR _v3Center$$sroa$455$1$[ebp], xmm1
  0005d	8d bd e0 fe ff
	ff		 lea	 edi, DWORD PTR _vertices$[ebp+4]
  00063	f3 0f 10 4d 10	 movss	 xmm1, DWORD PTR _sz$[ebp]
  00068	f3 0f 11 bd d8
	fe ff ff	 movss	 DWORD PTR _v3Center$$sroa$456$1$[ebp], xmm7
  00070	0f 28 f9	 movaps	 xmm7, xmm1
  00073	f3 0f 58 fb	 addss	 xmm7, xmm3
; File C:\DS Project\DS Files\Source\ClientSource\extern\include\d3dx8math.inl

; 182  :     z = fz;

  00077	f3 0f 11 5d d4	 movss	 DWORD PTR _v3Vertex$[ebp+56], xmm3
  0007c	f3 0f 11 5d e0	 movss	 DWORD PTR _v3Vertex$[ebp+68], xmm3
  00081	f3 0f 11 5d ec	 movss	 DWORD PTR _v3Vertex$[ebp+80], xmm3
  00086	f3 0f 11 5d f8	 movss	 DWORD PTR _v3Vertex$[ebp+92], xmm3

; 180  :     x = fx;

  0008b	f3 0f 11 6d 9c	 movss	 DWORD PTR _v3Vertex$[ebp], xmm5
; File C:\DS Project\DS Files\Source\ClientSource\Client\EterLib\GrpScreen.cpp

; 193  : 	D3DXVECTOR3 v3Center = D3DXVECTOR3((sx + ex) * 0.5f, (sy + ey) * 0.5f, (sz + ez) * 0.5f);

  00090	f3 0f 59 f8	 mulss	 xmm7, xmm0
; File C:\DS Project\DS Files\Source\ClientSource\extern\include\d3dx8math.inl

; 181  :     y = fy;

  00094	f3 0f 11 55 a0	 movss	 DWORD PTR _v3Vertex$[ebp+4], xmm2

; 182  :     z = fz;

  00099	f3 0f 11 4d a4	 movss	 DWORD PTR _v3Vertex$[ebp+8], xmm1
; File C:\DS Project\DS Files\Source\ClientSource\Client\EterLib\GrpScreen.cpp

; 193  : 	D3DXVECTOR3 v3Center = D3DXVECTOR3((sx + ex) * 0.5f, (sy + ey) * 0.5f, (sz + ez) * 0.5f);

  0009e	f3 0f 11 bd d0
	fe ff ff	 movss	 DWORD PTR _v3Center$$sroa$458$1$[ebp], xmm7
  000a6	f3 0f 10 bd d8
	fe ff ff	 movss	 xmm7, DWORD PTR _v3Center$$sroa$456$1$[ebp]
  000ae	f3 0f 10 9d d0
	fe ff ff	 movss	 xmm3, DWORD PTR _v3Center$$sroa$458$1$[ebp]
; File C:\DS Project\DS Files\Source\ClientSource\extern\include\d3dx8math.inl

; 180  :     x = fx;

  000b6	f3 0f 11 75 a8	 movss	 DWORD PTR _v3Vertex$[ebp+12], xmm6

; 181  :     y = fy;

  000bb	f3 0f 11 55 ac	 movss	 DWORD PTR _v3Vertex$[ebp+16], xmm2

; 182  :     z = fz;

  000c0	f3 0f 11 4d b0	 movss	 DWORD PTR _v3Vertex$[ebp+20], xmm1

; 180  :     x = fx;

  000c5	f3 0f 11 6d b4	 movss	 DWORD PTR _v3Vertex$[ebp+24], xmm5

; 181  :     y = fy;

  000ca	f3 0f 11 65 b8	 movss	 DWORD PTR _v3Vertex$[ebp+28], xmm4

; 182  :     z = fz;

  000cf	f3 0f 11 4d bc	 movss	 DWORD PTR _v3Vertex$[ebp+32], xmm1

; 180  :     x = fx;

  000d4	f3 0f 11 75 c0	 movss	 DWORD PTR _v3Vertex$[ebp+36], xmm6

; 181  :     y = fy;

  000d9	f3 0f 11 65 c4	 movss	 DWORD PTR _v3Vertex$[ebp+40], xmm4

; 182  :     z = fz;

  000de	f3 0f 11 4d c8	 movss	 DWORD PTR _v3Vertex$[ebp+44], xmm1

; 180  :     x = fx;

  000e3	f3 0f 11 6d cc	 movss	 DWORD PTR _v3Vertex$[ebp+48], xmm5

; 181  :     y = fy;

  000e8	f3 0f 11 55 d0	 movss	 DWORD PTR _v3Vertex$[ebp+52], xmm2

; 180  :     x = fx;

  000ed	f3 0f 11 75 d8	 movss	 DWORD PTR _v3Vertex$[ebp+60], xmm6

; 181  :     y = fy;

  000f2	f3 0f 11 55 dc	 movss	 DWORD PTR _v3Vertex$[ebp+64], xmm2

; 180  :     x = fx;

  000f7	f3 0f 11 6d e4	 movss	 DWORD PTR _v3Vertex$[ebp+72], xmm5

; 181  :     y = fy;

  000fc	f3 0f 11 65 e8	 movss	 DWORD PTR _v3Vertex$[ebp+76], xmm4

; 180  :     x = fx;

  00101	f3 0f 11 75 f0	 movss	 DWORD PTR _v3Vertex$[ebp+84], xmm6

; 181  :     y = fy;

  00106	f3 0f 11 65 f4	 movss	 DWORD PTR _v3Vertex$[ebp+88], xmm4
  0010b	0f 1f 44 00 00	 npad	 5
$LL4@RenderCube:

; 263  :     return D3DXVECTOR3(x - v.x, y - v.y, z - v.z);

  00110	f3 0f 10 16	 movss	 xmm2, DWORD PTR [esi]
  00114	f3 0f 10 4e 04	 movss	 xmm1, DWORD PTR [esi+4]
  00119	f3 0f 5c d7	 subss	 xmm2, xmm7
  0011d	f3 0f 10 46 08	 movss	 xmm0, DWORD PTR [esi+8]
  00122	f3 0f 5c 8d d4
	fe ff ff	 subss	 xmm1, DWORD PTR _v3Center$$sroa$455$1$[ebp]
  0012a	f3 0f 5c c3	 subss	 xmm0, xmm3
; File C:\DS Project\DS Files\Source\ClientSource\Client\EterLib\GrpScreen.cpp

; 209  : 		v3Vertex[i] = v3Vertex[i] - v3Center;

  0012e	0f 14 d1	 unpcklps xmm2, xmm1
; File C:\DS Project\DS Files\Source\ClientSource\extern\include\d3dx8math.inl

; 182  :     z = fz;

  00131	f3 0f 11 85 cc
	fe ff ff	 movss	 DWORD PTR $T2[ebp+8], xmm0
; File C:\DS Project\DS Files\Source\ClientSource\Client\EterLib\GrpScreen.cpp

; 209  : 		v3Vertex[i] = v3Vertex[i] - v3Center;

  00139	8b 85 cc fe ff
	ff		 mov	 eax, DWORD PTR $T2[ebp+8]
  0013f	66 0f d6 16	 movq	 QWORD PTR [esi], xmm2
  00143	89 46 08	 mov	 DWORD PTR [esi+8], eax

; 210  : 		D3DXVec3TransformCoord(&v3Vertex[i], &v3Vertex[i], &matRotation);

  00146	8d 45 20	 lea	 eax, DWORD PTR _matRotation$[ebp]
  00149	50		 push	 eax
  0014a	56		 push	 esi
  0014b	56		 push	 esi
  0014c	e8 00 00 00 00	 call	 _D3DXVec3TransformCoord@12
; File C:\DS Project\DS Files\Source\ClientSource\extern\include\d3dx8math.inl

; 257  :     return D3DXVECTOR3(x + v.x, y + v.y, z + v.z);

  00151	f3 0f 10 4e 04	 movss	 xmm1, DWORD PTR [esi+4]
  00156	f3 0f 10 bd d8
	fe ff ff	 movss	 xmm7, DWORD PTR _v3Center$$sroa$456$1$[ebp]
  0015e	f3 0f 10 46 08	 movss	 xmm0, DWORD PTR [esi+8]
  00163	0f 28 d7	 movaps	 xmm2, xmm7
  00166	f3 0f 58 16	 addss	 xmm2, DWORD PTR [esi]
  0016a	f3 0f 10 9d d0
	fe ff ff	 movss	 xmm3, DWORD PTR _v3Center$$sroa$458$1$[ebp]
  00172	f3 0f 58 8d d4
	fe ff ff	 addss	 xmm1, DWORD PTR _v3Center$$sroa$455$1$[ebp]
  0017a	f3 0f 58 c3	 addss	 xmm0, xmm3
; File C:\DS Project\DS Files\Source\ClientSource\Client\EterLib\GrpScreen.cpp

; 216  : 		vertices[i].u = 0.0f; vertices[i].v = 0.0f;

  0017e	c7 47 0c 00 00
	00 00		 mov	 DWORD PTR [edi+12], 0
  00185	c7 47 10 00 00
	00 00		 mov	 DWORD PTR [edi+16], 0
  0018c	0f 14 d1	 unpcklps xmm2, xmm1
  0018f	66 0f d6 16	 movq	 QWORD PTR [esi], xmm2
; File C:\DS Project\DS Files\Source\ClientSource\extern\include\d3dx8math.inl

; 182  :     z = fz;

  00193	f3 0f 11 85 c0
	fe ff ff	 movss	 DWORD PTR $T1[ebp+8], xmm0
; File C:\DS Project\DS Files\Source\ClientSource\Client\EterLib\GrpScreen.cpp

; 211  : 		v3Vertex[i] = v3Vertex[i] + v3Center;

  0019b	8b 85 c0 fe ff
	ff		 mov	 eax, DWORD PTR $T1[ebp+8]
  001a1	89 46 08	 mov	 DWORD PTR [esi+8], eax

; 212  : 		vertices[i].px = v3Vertex[i].x;

  001a4	8b 06		 mov	 eax, DWORD PTR [esi]
  001a6	89 47 fc	 mov	 DWORD PTR [edi-4], eax

; 213  : 		vertices[i].py = v3Vertex[i].y;

  001a9	8b 46 04	 mov	 eax, DWORD PTR [esi+4]
  001ac	89 07		 mov	 DWORD PTR [edi], eax

; 214  : 		vertices[i].pz = v3Vertex[i].z;

  001ae	8b 46 08	 mov	 eax, DWORD PTR [esi+8]
  001b1	83 c6 0c	 add	 esi, 12			; 0000000cH
  001b4	89 47 04	 mov	 DWORD PTR [edi+4], eax

; 215  : 		vertices[i].diffuse = ms_diffuseColor;

  001b7	a1 00 00 00 00	 mov	 eax, DWORD PTR ?ms_diffuseColor@CScreen@@1KA ; CScreen::ms_diffuseColor
  001bc	89 47 08	 mov	 DWORD PTR [edi+8], eax
  001bf	83 c7 18	 add	 edi, 24			; 00000018H
  001c2	83 eb 01	 sub	 ebx, 1
  001c5	0f 85 45 ff ff
	ff		 jne	 $LL4@RenderCube

; 217  : 	}
; 218  : 
; 219  : 	if (SetPDTStream(vertices, 8))

  001cb	8d 85 dc fe ff
	ff		 lea	 eax, DWORD PTR _vertices$[ebp]
  001d1	6a 08		 push	 8
  001d3	50		 push	 eax
  001d4	e8 00 00 00 00	 call	 ?SetPDTStream@CGraphicBase@@SA_NPAUSPDTVertexRaw@@I@Z ; CGraphicBase::SetPDTStream
  001d9	83 c4 08	 add	 esp, 8
  001dc	5f		 pop	 edi
  001dd	5e		 pop	 esi
  001de	5b		 pop	 ebx
  001df	84 c0		 test	 al, al
  001e1	74 69		 je	 SHORT $LN5@RenderCube

; 220  : 	{
; 221  : 		STATEMANAGER.SetTexture(0, NULL);

  001e3	8b 0d 00 00 00
	00		 mov	 ecx, DWORD PTR ?ms_singleton@?$CSingleton@VCStateManager@@@@0PAVCStateManager@@A ; CSingleton<CStateManager>::ms_singleton
  001e9	6a 00		 push	 0
  001eb	6a 00		 push	 0
  001ed	e8 00 00 00 00	 call	 ?SetTexture@CStateManager@@QAEXKPAUIDirect3DBaseTexture8@@@Z ; CStateManager::SetTexture

; 222  : 		STATEMANAGER.SetTexture(1, NULL);

  001f2	8b 0d 00 00 00
	00		 mov	 ecx, DWORD PTR ?ms_singleton@?$CSingleton@VCStateManager@@@@0PAVCStateManager@@A ; CSingleton<CStateManager>::ms_singleton
  001f8	6a 00		 push	 0
  001fa	6a 01		 push	 1
  001fc	e8 00 00 00 00	 call	 ?SetTexture@CStateManager@@QAEXKPAUIDirect3DBaseTexture8@@@Z ; CStateManager::SetTexture

; 223  : 		STATEMANAGER.SetVertexShader(D3DFVF_XYZ|D3DFVF_DIFFUSE|D3DFVF_TEX1);

  00201	8b 0d 00 00 00
	00		 mov	 ecx, DWORD PTR ?ms_singleton@?$CSingleton@VCStateManager@@@@0PAVCStateManager@@A ; CSingleton<CStateManager>::ms_singleton
  00207	68 42 01 00 00	 push	 322			; 00000142H
  0020c	e8 00 00 00 00	 call	 ?SetVertexShader@CStateManager@@QAEXK@Z ; CStateManager::SetVertexShader

; 224  : 		STATEMANAGER.SetTransform(D3DTS_WORLD, ms_lpd3dMatStack->GetTop());

  00211	a1 00 00 00 00	 mov	 eax, DWORD PTR ?ms_lpd3dMatStack@CGraphicBase@@1PAUID3DXMatrixStack@@A ; CGraphicBase::ms_lpd3dMatStack
  00216	50		 push	 eax
  00217	8b 08		 mov	 ecx, DWORD PTR [eax]
  00219	ff 51 44	 call	 DWORD PTR [ecx+68]
  0021c	8b 0d 00 00 00
	00		 mov	 ecx, DWORD PTR ?ms_singleton@?$CSingleton@VCStateManager@@@@0PAVCStateManager@@A ; CSingleton<CStateManager>::ms_singleton
  00222	50		 push	 eax
  00223	68 00 01 00 00	 push	 256			; 00000100H
  00228	e8 00 00 00 00	 call	 ?SetTransform@CStateManager@@QAEXW4_D3DTRANSFORMSTATETYPE@@PBU_D3DMATRIX@@@Z ; CStateManager::SetTransform

; 225  : 
; 226  : 		SetDefaultIndexBuffer(DEFAULT_IB_FILL_CUBE);

  0022d	6a 06		 push	 6
  0022f	e8 00 00 00 00	 call	 ?SetDefaultIndexBuffer@CGraphicBase@@SAXI@Z ; CGraphicBase::SetDefaultIndexBuffer

; 227  : 		STATEMANAGER.DrawIndexedPrimitive(D3DPT_TRIANGLELIST, 0, 8, 0, 4*3);

  00234	8b 0d 00 00 00
	00		 mov	 ecx, DWORD PTR ?ms_singleton@?$CSingleton@VCStateManager@@@@0PAVCStateManager@@A ; CSingleton<CStateManager>::ms_singleton
  0023a	83 c4 04	 add	 esp, 4
  0023d	6a 0c		 push	 12			; 0000000cH
  0023f	6a 00		 push	 0
  00241	6a 08		 push	 8
  00243	6a 00		 push	 0
  00245	6a 04		 push	 4
  00247	e8 00 00 00 00	 call	 ?DrawIndexedPrimitive@CStateManager@@QAEJW4_D3DPRIMITIVETYPE@@IIII@Z ; CStateManager::DrawIndexedPrimitive
$LN5@RenderCube:

; 228  : 	}
; 229  : }

  0024c	8b 4d fc	 mov	 ecx, DWORD PTR __$ArrayPad$[ebp]
  0024f	33 cd		 xor	 ecx, ebp
  00251	e8 00 00 00 00	 call	 @__security_check_cookie@4
  00256	8b e5		 mov	 esp, ebp
  00258	5d		 pop	 ebp
  00259	c2 58 00	 ret	 88			; 00000058H
?RenderCube@CScreen@@QAEXMMMMMMUD3DXMATRIX@@@Z ENDP	; CScreen::RenderCube
_TEXT	ENDS
; Function compile flags: /Ogtp
; File C:\DS Project\DS Files\Source\ClientSource\Client\EterLib\GrpScreen.cpp
;	COMDAT ?RenderCube@CScreen@@QAEXMMMMMM@Z
_TEXT	SEGMENT
_vertices$ = -196					; size = 192
__$ArrayPad$ = -4					; size = 4
_sx$ = 8						; size = 4
_sy$ = 12						; size = 4
_sz$ = 16						; size = 4
_ex$ = 20						; size = 4
_ey$ = 24						; size = 4
_ez$ = 28						; size = 4
?RenderCube@CScreen@@QAEXMMMMMM@Z PROC			; CScreen::RenderCube, COMDAT
; _this$ = ecx

; 165  : {

  00000	55		 push	 ebp
  00001	8b ec		 mov	 ebp, esp
  00003	81 ec c4 00 00
	00		 sub	 esp, 196		; 000000c4H
  00009	a1 00 00 00 00	 mov	 eax, DWORD PTR ___security_cookie
  0000e	33 c5		 xor	 eax, ebp
  00010	89 45 fc	 mov	 DWORD PTR __$ArrayPad$[ebp], eax

; 166  : 	SPDTVertexRaw vertices[8] =
; 167  : 	{
; 168  : 		{ sx, sy, sz, ms_diffuseColor, 0.0f, 0.0f  },

  00013	a1 00 00 00 00	 mov	 eax, DWORD PTR ?ms_diffuseColor@CScreen@@1KA ; CScreen::ms_diffuseColor
  00018	f3 0f 10 6d 08	 movss	 xmm5, DWORD PTR _sx$[ebp]
  0001d	f3 0f 10 5d 0c	 movss	 xmm3, DWORD PTR _sy$[ebp]
  00022	f3 0f 10 4d 10	 movss	 xmm1, DWORD PTR _sz$[ebp]

; 169  : 		{ ex, sy, sz, ms_diffuseColor, 0.0f, 0.0f  },

  00027	f3 0f 10 65 14	 movss	 xmm4, DWORD PTR _ex$[ebp]

; 170  : 		{ sx, ey, sz, ms_diffuseColor, 0.0f, 0.0f  },

  0002c	f3 0f 10 55 18	 movss	 xmm2, DWORD PTR _ey$[ebp]

; 171  : 		{ ex, ey, sz, ms_diffuseColor, 0.0f, 0.0f  },
; 172  : 		{ sx, sy, ez, ms_diffuseColor, 0.0f, 0.0f  },

  00031	f3 0f 10 45 1c	 movss	 xmm0, DWORD PTR _ez$[ebp]
  00036	89 85 48 ff ff
	ff		 mov	 DWORD PTR _vertices$[ebp+12], eax
  0003c	89 85 60 ff ff
	ff		 mov	 DWORD PTR _vertices$[ebp+36], eax
  00042	89 85 78 ff ff
	ff		 mov	 DWORD PTR _vertices$[ebp+60], eax
  00048	89 45 90	 mov	 DWORD PTR _vertices$[ebp+84], eax
  0004b	89 45 a8	 mov	 DWORD PTR _vertices$[ebp+108], eax

; 173  : 		{ ex, sy, ez, ms_diffuseColor, 0.0f, 0.0f  },

  0004e	89 45 c0	 mov	 DWORD PTR _vertices$[ebp+132], eax

; 174  : 		{ sx, ey, ez, ms_diffuseColor, 0.0f, 0.0f  },

  00051	89 45 d8	 mov	 DWORD PTR _vertices$[ebp+156], eax

; 175  : 		{ ex, ey, ez, ms_diffuseColor, 0.0f, 0.0f  },

  00054	89 45 f0	 mov	 DWORD PTR _vertices$[ebp+180], eax

; 176  : 	};
; 177  : 
; 178  : 
; 179  : 	if (SetPDTStream(vertices, 8))

  00057	8d 85 3c ff ff
	ff		 lea	 eax, DWORD PTR _vertices$[ebp]
  0005d	6a 08		 push	 8
  0005f	50		 push	 eax
  00060	f3 0f 11 ad 3c
	ff ff ff	 movss	 DWORD PTR _vertices$[ebp], xmm5
  00068	f3 0f 11 9d 40
	ff ff ff	 movss	 DWORD PTR _vertices$[ebp+4], xmm3
  00070	f3 0f 11 8d 44
	ff ff ff	 movss	 DWORD PTR _vertices$[ebp+8], xmm1
  00078	c7 85 4c ff ff
	ff 00 00 00 00	 mov	 DWORD PTR _vertices$[ebp+16], 0
  00082	c7 85 50 ff ff
	ff 00 00 00 00	 mov	 DWORD PTR _vertices$[ebp+20], 0
  0008c	f3 0f 11 a5 54
	ff ff ff	 movss	 DWORD PTR _vertices$[ebp+24], xmm4
  00094	f3 0f 11 9d 58
	ff ff ff	 movss	 DWORD PTR _vertices$[ebp+28], xmm3
  0009c	f3 0f 11 8d 5c
	ff ff ff	 movss	 DWORD PTR _vertices$[ebp+32], xmm1
  000a4	c7 85 64 ff ff
	ff 00 00 00 00	 mov	 DWORD PTR _vertices$[ebp+40], 0
  000ae	c7 85 68 ff ff
	ff 00 00 00 00	 mov	 DWORD PTR _vertices$[ebp+44], 0
  000b8	f3 0f 11 ad 6c
	ff ff ff	 movss	 DWORD PTR _vertices$[ebp+48], xmm5
  000c0	f3 0f 11 95 70
	ff ff ff	 movss	 DWORD PTR _vertices$[ebp+52], xmm2
  000c8	f3 0f 11 8d 74
	ff ff ff	 movss	 DWORD PTR _vertices$[ebp+56], xmm1
  000d0	c7 85 7c ff ff
	ff 00 00 00 00	 mov	 DWORD PTR _vertices$[ebp+64], 0
  000da	c7 45 80 00 00
	00 00		 mov	 DWORD PTR _vertices$[ebp+68], 0
  000e1	f3 0f 11 65 84	 movss	 DWORD PTR _vertices$[ebp+72], xmm4
  000e6	f3 0f 11 55 88	 movss	 DWORD PTR _vertices$[ebp+76], xmm2
  000eb	f3 0f 11 4d 8c	 movss	 DWORD PTR _vertices$[ebp+80], xmm1
  000f0	c7 45 94 00 00
	00 00		 mov	 DWORD PTR _vertices$[ebp+88], 0
  000f7	c7 45 98 00 00
	00 00		 mov	 DWORD PTR _vertices$[ebp+92], 0
  000fe	f3 0f 11 6d 9c	 movss	 DWORD PTR _vertices$[ebp+96], xmm5
  00103	f3 0f 11 5d a0	 movss	 DWORD PTR _vertices$[ebp+100], xmm3
  00108	f3 0f 11 45 a4	 movss	 DWORD PTR _vertices$[ebp+104], xmm0
  0010d	c7 45 ac 00 00
	00 00		 mov	 DWORD PTR _vertices$[ebp+112], 0
  00114	c7 45 b0 00 00
	00 00		 mov	 DWORD PTR _vertices$[ebp+116], 0
  0011b	f3 0f 11 65 b4	 movss	 DWORD PTR _vertices$[ebp+120], xmm4
  00120	f3 0f 11 5d b8	 movss	 DWORD PTR _vertices$[ebp+124], xmm3
  00125	f3 0f 11 45 bc	 movss	 DWORD PTR _vertices$[ebp+128], xmm0
  0012a	c7 45 c4 00 00
	00 00		 mov	 DWORD PTR _vertices$[ebp+136], 0
  00131	c7 45 c8 00 00
	00 00		 mov	 DWORD PTR _vertices$[ebp+140], 0
  00138	f3 0f 11 6d cc	 movss	 DWORD PTR _vertices$[ebp+144], xmm5
  0013d	f3 0f 11 55 d0	 movss	 DWORD PTR _vertices$[ebp+148], xmm2
  00142	f3 0f 11 45 d4	 movss	 DWORD PTR _vertices$[ebp+152], xmm0
  00147	c7 45 dc 00 00
	00 00		 mov	 DWORD PTR _vertices$[ebp+160], 0
  0014e	c7 45 e0 00 00
	00 00		 mov	 DWORD PTR _vertices$[ebp+164], 0
  00155	f3 0f 11 65 e4	 movss	 DWORD PTR _vertices$[ebp+168], xmm4
  0015a	f3 0f 11 55 e8	 movss	 DWORD PTR _vertices$[ebp+172], xmm2
  0015f	f3 0f 11 45 ec	 movss	 DWORD PTR _vertices$[ebp+176], xmm0
  00164	c7 45 f4 00 00
	00 00		 mov	 DWORD PTR _vertices$[ebp+184], 0
  0016b	c7 45 f8 00 00
	00 00		 mov	 DWORD PTR _vertices$[ebp+188], 0
  00172	e8 00 00 00 00	 call	 ?SetPDTStream@CGraphicBase@@SA_NPAUSPDTVertexRaw@@I@Z ; CGraphicBase::SetPDTStream
  00177	83 c4 08	 add	 esp, 8
  0017a	84 c0		 test	 al, al
  0017c	74 69		 je	 SHORT $LN2@RenderCube

; 180  : 	{
; 181  : 		STATEMANAGER.SetTexture(0, NULL);

  0017e	8b 0d 00 00 00
	00		 mov	 ecx, DWORD PTR ?ms_singleton@?$CSingleton@VCStateManager@@@@0PAVCStateManager@@A ; CSingleton<CStateManager>::ms_singleton
  00184	6a 00		 push	 0
  00186	6a 00		 push	 0
  00188	e8 00 00 00 00	 call	 ?SetTexture@CStateManager@@QAEXKPAUIDirect3DBaseTexture8@@@Z ; CStateManager::SetTexture

; 182  : 		STATEMANAGER.SetTexture(1, NULL);

  0018d	8b 0d 00 00 00
	00		 mov	 ecx, DWORD PTR ?ms_singleton@?$CSingleton@VCStateManager@@@@0PAVCStateManager@@A ; CSingleton<CStateManager>::ms_singleton
  00193	6a 00		 push	 0
  00195	6a 01		 push	 1
  00197	e8 00 00 00 00	 call	 ?SetTexture@CStateManager@@QAEXKPAUIDirect3DBaseTexture8@@@Z ; CStateManager::SetTexture

; 183  : 		STATEMANAGER.SetVertexShader(D3DFVF_XYZ|D3DFVF_DIFFUSE|D3DFVF_TEX1);

  0019c	8b 0d 00 00 00
	00		 mov	 ecx, DWORD PTR ?ms_singleton@?$CSingleton@VCStateManager@@@@0PAVCStateManager@@A ; CSingleton<CStateManager>::ms_singleton
  001a2	68 42 01 00 00	 push	 322			; 00000142H
  001a7	e8 00 00 00 00	 call	 ?SetVertexShader@CStateManager@@QAEXK@Z ; CStateManager::SetVertexShader

; 184  : 		STATEMANAGER.SetTransform(D3DTS_WORLD, ms_lpd3dMatStack->GetTop());

  001ac	a1 00 00 00 00	 mov	 eax, DWORD PTR ?ms_lpd3dMatStack@CGraphicBase@@1PAUID3DXMatrixStack@@A ; CGraphicBase::ms_lpd3dMatStack
  001b1	50		 push	 eax
  001b2	8b 08		 mov	 ecx, DWORD PTR [eax]
  001b4	ff 51 44	 call	 DWORD PTR [ecx+68]
  001b7	8b 0d 00 00 00
	00		 mov	 ecx, DWORD PTR ?ms_singleton@?$CSingleton@VCStateManager@@@@0PAVCStateManager@@A ; CSingleton<CStateManager>::ms_singleton
  001bd	50		 push	 eax
  001be	68 00 01 00 00	 push	 256			; 00000100H
  001c3	e8 00 00 00 00	 call	 ?SetTransform@CStateManager@@QAEXW4_D3DTRANSFORMSTATETYPE@@PBU_D3DMATRIX@@@Z ; CStateManager::SetTransform

; 185  : 
; 186  : 		SetDefaultIndexBuffer(DEFAULT_IB_FILL_CUBE);

  001c8	6a 06		 push	 6
  001ca	e8 00 00 00 00	 call	 ?SetDefaultIndexBuffer@CGraphicBase@@SAXI@Z ; CGraphicBase::SetDefaultIndexBuffer

; 187  : 		STATEMANAGER.DrawIndexedPrimitive(D3DPT_TRIANGLELIST, 0, 8, 0, 4*3);

  001cf	8b 0d 00 00 00
	00		 mov	 ecx, DWORD PTR ?ms_singleton@?$CSingleton@VCStateManager@@@@0PAVCStateManager@@A ; CSingleton<CStateManager>::ms_singleton
  001d5	83 c4 04	 add	 esp, 4
  001d8	6a 0c		 push	 12			; 0000000cH
  001da	6a 00		 push	 0
  001dc	6a 08		 push	 8
  001de	6a 00		 push	 0
  001e0	6a 04		 push	 4
  001e2	e8 00 00 00 00	 call	 ?DrawIndexedPrimitive@CStateManager@@QAEJW4_D3DPRIMITIVETYPE@@IIII@Z ; CStateManager::DrawIndexedPrimitive
$LN2@RenderCube:

; 188  : 	}
; 189  : }

  001e7	8b 4d fc	 mov	 ecx, DWORD PTR __$ArrayPad$[ebp]
  001ea	33 cd		 xor	 ecx, ebp
  001ec	e8 00 00 00 00	 call	 @__security_check_cookie@4
  001f1	8b e5		 mov	 esp, ebp
  001f3	5d		 pop	 ebp
  001f4	c2 18 00	 ret	 24			; 00000018H
?RenderCube@CScreen@@QAEXMMMMMM@Z ENDP			; CScreen::RenderCube
_TEXT	ENDS
; Function compile flags: /Ogtp
; File C:\DS Project\DS Files\Source\ClientSource\Client\EterLib\GrpScreen.cpp
;	COMDAT ?RenderLineCube@CScreen@@QAEXMMMMMM@Z
_TEXT	SEGMENT
_vertices$ = -196					; size = 192
__$ArrayPad$ = -4					; size = 4
_sx$ = 8						; size = 4
_sy$ = 12						; size = 4
_sz$ = 16						; size = 4
_ex$ = 20						; size = 4
_ey$ = 24						; size = 4
_ez$ = 28						; size = 4
?RenderLineCube@CScreen@@QAEXMMMMMM@Z PROC		; CScreen::RenderLineCube, COMDAT
; _this$ = ecx

; 138  : {

  00000	55		 push	 ebp
  00001	8b ec		 mov	 ebp, esp
  00003	81 ec c4 00 00
	00		 sub	 esp, 196		; 000000c4H
  00009	a1 00 00 00 00	 mov	 eax, DWORD PTR ___security_cookie
  0000e	33 c5		 xor	 eax, ebp
  00010	89 45 fc	 mov	 DWORD PTR __$ArrayPad$[ebp], eax

; 139  : 	SPDTVertexRaw vertices[8] =
; 140  : 	{
; 141  : 		{ sx, sy, sz, ms_diffuseColor, 0.0f, 0.0f },

  00013	a1 00 00 00 00	 mov	 eax, DWORD PTR ?ms_diffuseColor@CScreen@@1KA ; CScreen::ms_diffuseColor
  00018	f3 0f 10 6d 08	 movss	 xmm5, DWORD PTR _sx$[ebp]
  0001d	f3 0f 10 5d 0c	 movss	 xmm3, DWORD PTR _sy$[ebp]
  00022	f3 0f 10 4d 10	 movss	 xmm1, DWORD PTR _sz$[ebp]

; 142  : 		{ ex, sy, sz, ms_diffuseColor, 0.0f, 0.0f },

  00027	f3 0f 10 65 14	 movss	 xmm4, DWORD PTR _ex$[ebp]

; 143  : 		{ sx, ey, sz, ms_diffuseColor, 0.0f, 0.0f },

  0002c	f3 0f 10 55 18	 movss	 xmm2, DWORD PTR _ey$[ebp]

; 144  : 		{ ex, ey, sz, ms_diffuseColor, 0.0f, 0.0f },
; 145  : 		{ sx, sy, ez, ms_diffuseColor, 0.0f, 0.0f },

  00031	f3 0f 10 45 1c	 movss	 xmm0, DWORD PTR _ez$[ebp]
  00036	89 85 48 ff ff
	ff		 mov	 DWORD PTR _vertices$[ebp+12], eax
  0003c	89 85 60 ff ff
	ff		 mov	 DWORD PTR _vertices$[ebp+36], eax
  00042	89 85 78 ff ff
	ff		 mov	 DWORD PTR _vertices$[ebp+60], eax
  00048	89 45 90	 mov	 DWORD PTR _vertices$[ebp+84], eax
  0004b	89 45 a8	 mov	 DWORD PTR _vertices$[ebp+108], eax

; 146  : 		{ ex, sy, ez, ms_diffuseColor, 0.0f, 0.0f },

  0004e	89 45 c0	 mov	 DWORD PTR _vertices$[ebp+132], eax

; 147  : 		{ sx, ey, ez, ms_diffuseColor, 0.0f, 0.0f },

  00051	89 45 d8	 mov	 DWORD PTR _vertices$[ebp+156], eax

; 148  : 		{ ex, ey, ez, ms_diffuseColor, 0.0f, 0.0f },

  00054	89 45 f0	 mov	 DWORD PTR _vertices$[ebp+180], eax

; 149  : 	};
; 150  : 
; 151  : 
; 152  : 	if (SetPDTStream(vertices, 8))

  00057	8d 85 3c ff ff
	ff		 lea	 eax, DWORD PTR _vertices$[ebp]
  0005d	6a 08		 push	 8
  0005f	50		 push	 eax
  00060	f3 0f 11 ad 3c
	ff ff ff	 movss	 DWORD PTR _vertices$[ebp], xmm5
  00068	f3 0f 11 9d 40
	ff ff ff	 movss	 DWORD PTR _vertices$[ebp+4], xmm3
  00070	f3 0f 11 8d 44
	ff ff ff	 movss	 DWORD PTR _vertices$[ebp+8], xmm1
  00078	c7 85 4c ff ff
	ff 00 00 00 00	 mov	 DWORD PTR _vertices$[ebp+16], 0
  00082	c7 85 50 ff ff
	ff 00 00 00 00	 mov	 DWORD PTR _vertices$[ebp+20], 0
  0008c	f3 0f 11 a5 54
	ff ff ff	 movss	 DWORD PTR _vertices$[ebp+24], xmm4
  00094	f3 0f 11 9d 58
	ff ff ff	 movss	 DWORD PTR _vertices$[ebp+28], xmm3
  0009c	f3 0f 11 8d 5c
	ff ff ff	 movss	 DWORD PTR _vertices$[ebp+32], xmm1
  000a4	c7 85 64 ff ff
	ff 00 00 00 00	 mov	 DWORD PTR _vertices$[ebp+40], 0
  000ae	c7 85 68 ff ff
	ff 00 00 00 00	 mov	 DWORD PTR _vertices$[ebp+44], 0
  000b8	f3 0f 11 ad 6c
	ff ff ff	 movss	 DWORD PTR _vertices$[ebp+48], xmm5
