; Listing generated by Microsoft (R) Optimizing Compiler Version 19.27.29112.0 

	TITLE	C:\DS Project\DS Files\Source\ClientSource\Client\EterLib\GrpTextInstance.cpp
	.686P
	.XMM
	include listing.inc
	.model	flat

INCLUDELIB LIBCMT
INCLUDELIB OLDNAMES

PUBLIC	??_7?$CDynamicPool@VCGraphicTextInstance@@@@6B@	; CDynamicPool<CGraphicTextInstance>::`vftable'
PUBLIC	??_G?$CDynamicPool@VCGraphicTextInstance@@@@UAEPAXI@Z ; CDynamicPool<CGraphicTextInstance>::`scalar deleting destructor'
PUBLIC	??_R4?$CDynamicPool@VCGraphicTextInstance@@@@6B@ ; CDynamicPool<CGraphicTextInstance>::`RTTI Complete Object Locator'
PUBLIC	??_R0?AV?$CDynamicPool@VCGraphicTextInstance@@@@@8 ; CDynamicPool<CGraphicTextInstance> `RTTI Type Descriptor'
PUBLIC	??_R3?$CDynamicPool@VCGraphicTextInstance@@@@8	; CDynamicPool<CGraphicTextInstance>::`RTTI Class Hierarchy Descriptor'
PUBLIC	??_R2?$CDynamicPool@VCGraphicTextInstance@@@@8	; CDynamicPool<CGraphicTextInstance>::`RTTI Base Class Array'
PUBLIC	??_R1A@?0A@EA@?$CDynamicPool@VCGraphicTextInstance@@@@8 ; CDynamicPool<CGraphicTextInstance>::`RTTI Base Class Descriptor at (0,-1,0,64)'
EXTRN	??_E?$CDynamicPool@VCGraphicTextInstance@@@@UAEPAXI@Z:PROC ; CDynamicPool<CGraphicTextInstance>::`vector deleting destructor'
EXTRN	??_7type_info@@6B@:QWORD			; type_info::`vftable'
CONST	SEGMENT
?c_FillRectIndices@@3QBGB DW 00H			; c_FillRectIndices
	DW	02H
	DW	01H
	DW	02H
	DW	03H
	DW	01H
CONST	ENDS
;	COMDAT ??_R1A@?0A@EA@?$CDynamicPool@VCGraphicTextInstance@@@@8
rdata$r	SEGMENT
??_R1A@?0A@EA@?$CDynamicPool@VCGraphicTextInstance@@@@8 DD FLAT:??_R0?AV?$CDynamicPool@VCGraphicTextInstance@@@@@8 ; CDynamicPool<CGraphicTextInstance>::`RTTI Base Class Descriptor at (0,-1,0,64)'
	DD	00H
	DD	00H
	DD	0ffffffffH
	DD	00H
	DD	040H
	DD	FLAT:??_R3?$CDynamicPool@VCGraphicTextInstance@@@@8
rdata$r	ENDS
;	COMDAT ??_R2?$CDynamicPool@VCGraphicTextInstance@@@@8
rdata$r	SEGMENT
??_R2?$CDynamicPool@VCGraphicTextInstance@@@@8 DD FLAT:??_R1A@?0A@EA@?$CDynamicPool@VCGraphicTextInstance@@@@8 ; CDynamicPool<CGraphicTextInstance>::`RTTI Base Class Array'
rdata$r	ENDS
;	COMDAT ??_R3?$CDynamicPool@VCGraphicTextInstance@@@@8
rdata$r	SEGMENT
??_R3?$CDynamicPool@VCGraphicTextInstance@@@@8 DD 00H	; CDynamicPool<CGraphicTextInstance>::`RTTI Class Hierarchy Descriptor'
	DD	00H
	DD	01H
	DD	FLAT:??_R2?$CDynamicPool@VCGraphicTextInstance@@@@8
rdata$r	ENDS
;	COMDAT ??_R0?AV?$CDynamicPool@VCGraphicTextInstance@@@@@8
data$r	SEGMENT
??_R0?AV?$CDynamicPool@VCGraphicTextInstance@@@@@8 DD FLAT:??_7type_info@@6B@ ; CDynamicPool<CGraphicTextInstance> `RTTI Type Descriptor'
	DD	00H
	DB	'.?AV?$CDynamicPool@VCGraphicTextInstance@@@@', 00H
data$r	ENDS
;	COMDAT ??_R4?$CDynamicPool@VCGraphicTextInstance@@@@6B@
rdata$r	SEGMENT
??_R4?$CDynamicPool@VCGraphicTextInstance@@@@6B@ DD 00H	; CDynamicPool<CGraphicTextInstance>::`RTTI Complete Object Locator'
	DD	00H
	DD	00H
	DD	FLAT:??_R0?AV?$CDynamicPool@VCGraphicTextInstance@@@@@8
	DD	FLAT:??_R3?$CDynamicPool@VCGraphicTextInstance@@@@8
rdata$r	ENDS
;	COMDAT ??_7?$CDynamicPool@VCGraphicTextInstance@@@@6B@
CONST	SEGMENT
??_7?$CDynamicPool@VCGraphicTextInstance@@@@6B@ DD FLAT:??_R4?$CDynamicPool@VCGraphicTextInstance@@@@6B@ ; CDynamicPool<CGraphicTextInstance>::`vftable'
	DD	FLAT:??_E?$CDynamicPool@VCGraphicTextInstance@@@@UAEPAXI@Z
CONST	ENDS
PUBLIC	??_H@YGXPAXIIP6EPAX0@Z@Z			; `vector constructor iterator'
PUBLIC	___local_stdio_printf_options
PUBLIC	_snprintf
PUBLIC	??0exception@std@@QAE@ABV01@@Z			; std::exception::exception
PUBLIC	??1exception@std@@UAE@XZ			; std::exception::~exception
PUBLIC	?what@exception@std@@UBEPBDXZ			; std::exception::what
PUBLIC	??_Gexception@std@@UAEPAXI@Z			; std::exception::`scalar deleting destructor'
PUBLIC	??0bad_alloc@std@@QAE@ABV01@@Z			; std::bad_alloc::bad_alloc
PUBLIC	??_Gbad_alloc@std@@UAEPAXI@Z			; std::bad_alloc::`scalar deleting destructor'
PUBLIC	??0bad_array_new_length@std@@QAE@XZ		; std::bad_array_new_length::bad_array_new_length
PUBLIC	??1bad_array_new_length@std@@UAE@XZ		; std::bad_array_new_length::~bad_array_new_length
PUBLIC	??0bad_array_new_length@std@@QAE@ABV01@@Z	; std::bad_array_new_length::bad_array_new_length
PUBLIC	??_Gbad_array_new_length@std@@UAEPAXI@Z		; std::bad_array_new_length::`scalar deleting destructor'
PUBLIC	?_Throw_bad_array_new_length@std@@YAXXZ		; std::_Throw_bad_array_new_length
PUBLIC	?_Xlen_string@std@@YAXXZ			; std::_Xlen_string
PUBLIC	??1?$basic_string@DU?$char_traits@D@std@@V?$allocator@D@2@@std@@QAE@XZ ; std::basic_string<char,std::char_traits<char>,std::allocator<char> >::~basic_string<char,std::char_traits<char>,std::allocator<char> >
PUBLIC	?assign@?$basic_string@DU?$char_traits@D@std@@V?$allocator@D@2@@std@@QAEAAV12@QBDI@Z ; std::basic_string<char,std::char_traits<char>,std::allocator<char> >::assign
PUBLIC	??1?$basic_string@_WU?$char_traits@_W@std@@V?$allocator@_W@2@@std@@QAE@XZ ; std::basic_string<wchar_t,std::char_traits<wchar_t>,std::allocator<wchar_t> >::~basic_string<wchar_t,std::char_traits<wchar_t>,std::allocator<wchar_t> >
PUBLIC	??4?$basic_string@_WU?$char_traits@_W@std@@V?$allocator@_W@2@@std@@QAEAAV01@ABV01@@Z ; std::basic_string<wchar_t,std::char_traits<wchar_t>,std::allocator<wchar_t> >::operator=
PUBLIC	?append@?$basic_string@_WU?$char_traits@_W@std@@V?$allocator@_W@2@@std@@QAEAAV12@I_W@Z ; std::basic_string<wchar_t,std::char_traits<wchar_t>,std::allocator<wchar_t> >::append
PUBLIC	?assign@?$basic_string@_WU?$char_traits@_W@std@@V?$allocator@_W@2@@std@@QAEAAV12@QB_WI@Z ; std::basic_string<wchar_t,std::char_traits<wchar_t>,std::allocator<wchar_t> >::assign
PUBLIC	??$_Traits_compare@U?$char_traits@D@std@@@std@@YAHQBDI0I@Z ; std::_Traits_compare<std::char_traits<char> >
PUBLIC	??$_Destroy_in_place@PA_W@std@@YAXAAPA_W@Z	; std::_Destroy_in_place<wchar_t *>
PUBLIC	??$_Destroy_in_place@PAD@std@@YAXAAPAD@Z	; std::_Destroy_in_place<char *>
PUBLIC	??$_Pocca@V?$allocator@D@std@@@std@@YAXAAV?$allocator@D@0@ABV10@@Z ; std::_Pocca<std::allocator<char> >
PUBLIC	??$_Construct_in_place@PADABQAD@std@@YAXAAPADABQAD@Z ; std::_Construct_in_place<char *,char * const &>
PUBLIC	??$_Deallocate@$07$0A@@std@@YAXPAXI@Z		; std::_Deallocate<8,0>
PUBLIC	??$_Allocate@$07U_Default_allocate_traits@std@@$0A@@std@@YAPAXI@Z ; std::_Allocate<8,std::_Default_allocate_traits,0>
PUBLIC	??$_Construct_in_place@PA_WABQA_W@std@@YAXAAPA_WABQA_W@Z ; std::_Construct_in_place<wchar_t *,wchar_t * const &>
PUBLIC	??$_Allocate_manually_vector_aligned@U_Default_allocate_traits@std@@@std@@YAPAXI@Z ; std::_Allocate_manually_vector_aligned<std::_Default_allocate_traits>
PUBLIC	??0SPDTVertex@@QAE@XZ				; SPDTVertex::SPDTVertex
PUBLIC	?Hyperlink_UpdateMousePos@CGraphicTextInstance@@SAXHH@Z ; CGraphicTextInstance::Hyperlink_UpdateMousePos
PUBLIC	?Hyperlink_GetText@CGraphicTextInstance@@SAHPADH@Z ; CGraphicTextInstance::Hyperlink_GetText
PUBLIC	??0CGraphicTextInstance@@QAE@XZ			; CGraphicTextInstance::CGraphicTextInstance
PUBLIC	??1CGraphicTextInstance@@UAE@XZ			; CGraphicTextInstance::~CGraphicTextInstance
PUBLIC	?Destroy@CGraphicTextInstance@@QAEXXZ		; CGraphicTextInstance::Destroy
PUBLIC	?Update@CGraphicTextInstance@@QAEXXZ		; CGraphicTextInstance::Update
PUBLIC	?Render@CGraphicTextInstance@@QAEXPAUtagRECT@@@Z ; CGraphicTextInstance::Render
PUBLIC	?ShowCursor@CGraphicTextInstance@@QAEXXZ	; CGraphicTextInstance::ShowCursor
PUBLIC	?HideCursor@CGraphicTextInstance@@QAEXXZ	; CGraphicTextInstance::HideCursor
PUBLIC	?ShowOutLine@CGraphicTextInstance@@QAEXXZ	; CGraphicTextInstance::ShowOutLine
PUBLIC	?HideOutLine@CGraphicTextInstance@@QAEXXZ	; CGraphicTextInstance::HideOutLine
PUBLIC	?SetColor@CGraphicTextInstance@@QAEXK@Z		; CGraphicTextInstance::SetColor
PUBLIC	?SetColor@CGraphicTextInstance@@QAEXMMMM@Z	; CGraphicTextInstance::SetColor
PUBLIC	?SetOutLineColor@CGraphicTextInstance@@QAEXK@Z	; CGraphicTextInstance::SetOutLineColor
PUBLIC	?SetOutLineColor@CGraphicTextInstance@@QAEXMMMM@Z ; CGraphicTextInstance::SetOutLineColor
PUBLIC	?SetHorizonalAlign@CGraphicTextInstance@@QAEXH@Z ; CGraphicTextInstance::SetHorizonalAlign
PUBLIC	?SetVerticalAlign@CGraphicTextInstance@@QAEXH@Z	; CGraphicTextInstance::SetVerticalAlign
PUBLIC	?SetMax@CGraphicTextInstance@@QAEXH@Z		; CGraphicTextInstance::SetMax
PUBLIC	?SetTextPointer@CGraphicTextInstance@@QAEXPAVCGraphicText@@@Z ; CGraphicTextInstance::SetTextPointer
PUBLIC	?SetValueString@CGraphicTextInstance@@QAEXABV?$basic_string@DU?$char_traits@D@std@@V?$allocator@D@2@@std@@@Z ; CGraphicTextInstance::SetValueString
PUBLIC	?SetValue@CGraphicTextInstance@@QAEXPBDI@Z	; CGraphicTextInstance::SetValue
PUBLIC	?SetPosition@CGraphicTextInstance@@QAEXMMM@Z	; CGraphicTextInstance::SetPosition
PUBLIC	?SetSecret@CGraphicTextInstance@@QAEX_N@Z	; CGraphicTextInstance::SetSecret
PUBLIC	?SetOutline@CGraphicTextInstance@@QAEX_N@Z	; CGraphicTextInstance::SetOutline
PUBLIC	?SetFeather@CGraphicTextInstance@@QAEX_N@Z	; CGraphicTextInstance::SetFeather
PUBLIC	?SetMultiLine@CGraphicTextInstance@@QAEX_N@Z	; CGraphicTextInstance::SetMultiLine
PUBLIC	?SetLimitWidth@CGraphicTextInstance@@QAEXM@Z	; CGraphicTextInstance::SetLimitWidth
PUBLIC	?GetTextSize@CGraphicTextInstance@@QAEXPAH0@Z	; CGraphicTextInstance::GetTextSize
PUBLIC	?GetValueStringReference@CGraphicTextInstance@@QAEABV?$basic_string@DU?$char_traits@D@std@@V?$allocator@D@2@@std@@XZ ; CGraphicTextInstance::GetValueStringReference
PUBLIC	?GetTextLineCount@CGraphicTextInstance@@QAEGXZ	; CGraphicTextInstance::GetTextLineCount
PUBLIC	?PixelPositionToCharacterPosition@CGraphicTextInstance@@QAEHH@Z ; CGraphicTextInstance::PixelPositionToCharacterPosition
PUBLIC	?GetHorizontalAlign@CGraphicTextInstance@@QAEHXZ ; CGraphicTextInstance::GetHorizontalAlign
PUBLIC	?__Initialize@CGraphicTextInstance@@IAEXXZ	; CGraphicTextInstance::__Initialize
PUBLIC	?__DrawCharacter@CGraphicTextInstance@@IAEHPAVCGraphicFontTexture@@G_WK@Z ; CGraphicTextInstance::__DrawCharacter
PUBLIC	?__GetTextPos@CGraphicTextInstance@@IAEXKPAM0@Z	; CGraphicTextInstance::__GetTextPos
PUBLIC	??1SHyperlink@CGraphicTextInstance@@QAE@XZ	; CGraphicTextInstance::SHyperlink::~SHyperlink
PUBLIC	??1?$CRef@VCGraphicText@@@@QAE@XZ		; CRef<CGraphicText>::~CRef<CGraphicText>
PUBLIC	??1?$vector@PAUSCharacterInfomation@CGraphicFontTexture@@V?$allocator@PAUSCharacterInfomation@CGraphicFontTexture@@@std@@@std@@QAE@XZ ; std::vector<CGraphicFontTexture::SCharacterInfomation *,std::allocator<CGraphicFontTexture::SCharacterInfomation *> >::~vector<CGraphicFontTexture::SCharacterInfomation *,std::allocator<CGraphicFontTexture::SCharacterInfomation *> >
PUBLIC	?_Xlength@?$vector@PAUSCharacterInfomation@CGraphicFontTexture@@V?$allocator@PAUSCharacterInfomation@CGraphicFontTexture@@@std@@@std@@CAXXZ ; std::vector<CGraphicFontTexture::SCharacterInfomation *,std::allocator<CGraphicFontTexture::SCharacterInfomation *> >::_Xlength
PUBLIC	??1?$vector@KV?$allocator@K@std@@@std@@QAE@XZ	; std::vector<unsigned long,std::allocator<unsigned long> >::~vector<unsigned long,std::allocator<unsigned long> >
PUBLIC	?_Xlength@?$vector@KV?$allocator@K@std@@@std@@CAXXZ ; std::vector<unsigned long,std::allocator<unsigned long> >::_Xlength
PUBLIC	?deallocate@?$allocator@USHyperlink@CGraphicTextInstance@@@std@@QAEXQAUSHyperlink@CGraphicTextInstance@@I@Z ; std::allocator<CGraphicTextInstance::SHyperlink>::deallocate
PUBLIC	??1?$vector@USHyperlink@CGraphicTextInstance@@V?$allocator@USHyperlink@CGraphicTextInstance@@@std@@@std@@QAE@XZ ; std::vector<CGraphicTextInstance::SHyperlink,std::allocator<CGraphicTextInstance::SHyperlink> >::~vector<CGraphicTextInstance::SHyperlink,std::allocator<CGraphicTextInstance::SHyperlink> >
PUBLIC	?_Destroy@?$vector@USHyperlink@CGraphicTextInstance@@V?$allocator@USHyperlink@CGraphicTextInstance@@@std@@@std@@AAEXPAUSHyperlink@CGraphicTextInstance@@0@Z ; std::vector<CGraphicTextInstance::SHyperlink,std::allocator<CGraphicTextInstance::SHyperlink> >::_Destroy
PUBLIC	?_Xlength@?$vector@USHyperlink@CGraphicTextInstance@@V?$allocator@USHyperlink@CGraphicTextInstance@@@std@@@std@@CAXXZ ; std::vector<CGraphicTextInstance::SHyperlink,std::allocator<CGraphicTextInstance::SHyperlink> >::_Xlength
PUBLIC	??1?$vector@USEmoji@CGraphicTextInstance@@V?$allocator@USEmoji@CGraphicTextInstance@@@std@@@std@@QAE@XZ ; std::vector<CGraphicTextInstance::SEmoji,std::allocator<CGraphicTextInstance::SEmoji> >::~vector<CGraphicTextInstance::SEmoji,std::allocator<CGraphicTextInstance::SEmoji> >
PUBLIC	?_Xlength@?$vector@USEmoji@CGraphicTextInstance@@V?$allocator@USEmoji@CGraphicTextInstance@@@std@@@std@@CAXXZ ; std::vector<CGraphicTextInstance::SEmoji,std::allocator<CGraphicTextInstance::SEmoji> >::_Xlength
PUBLIC	?CreateSystem@CGraphicTextInstance@@SAXI@Z	; CGraphicTextInstance::CreateSystem
PUBLIC	?DestroySystem@CGraphicTextInstance@@SAXXZ	; CGraphicTextInstance::DestroySystem
PUBLIC	?New@CGraphicTextInstance@@SAPAV1@XZ		; CGraphicTextInstance::New
PUBLIC	?Delete@CGraphicTextInstance@@SAXPAV1@@Z	; CGraphicTextInstance::Delete
PUBLIC	??_GCGraphicTextInstance@@UAEPAXI@Z		; CGraphicTextInstance::`scalar deleting destructor'
PUBLIC	?FindToken@@YAPBDPBD0@Z				; FindToken
PUBLIC	?ReadToken@@YAHPBD@Z				; ReadToken
PUBLIC	??1?$CDynamicPool@VCGraphicTextInstance@@@@UAE@XZ ; CDynamicPool<CGraphicTextInstance>::~CDynamicPool<CGraphicTextInstance>
PUBLIC	?Delete@?$CDynamicPool@VCGraphicTextInstance@@@@KAXPAVCGraphicTextInstance@@@Z ; CDynamicPool<CGraphicTextInstance>::Delete
PUBLIC	?_Reallocate_exactly@?$vector@PAVCGraphicTextInstance@@V?$allocator@PAVCGraphicTextInstance@@@std@@@std@@AAEXI@Z ; std::vector<CGraphicTextInstance *,std::allocator<CGraphicTextInstance *> >::_Reallocate_exactly
PUBLIC	?_Xlength@?$vector@PAVCGraphicTextInstance@@V?$allocator@PAVCGraphicTextInstance@@@std@@@std@@CAXXZ ; std::vector<CGraphicTextInstance *,std::allocator<CGraphicTextInstance *> >::_Xlength
PUBLIC	?isNumberic@@YA_ND@Z				; isNumberic
PUBLIC	?IsValidToken@@YA_NPBD@Z			; IsValidToken
PUBLIC	??$_Emplace_reallocate@ABUSEmoji@CGraphicTextInstance@@@?$vector@USEmoji@CGraphicTextInstance@@V?$allocator@USEmoji@CGraphicTextInstance@@@std@@@std@@QAEPAUSEmoji@CGraphicTextInstance@@QAU23@ABU23@@Z ; std::vector<CGraphicTextInstance::SEmoji,std::allocator<CGraphicTextInstance::SEmoji> >::_Emplace_reallocate<CGraphicTextInstance::SEmoji const &>
PUBLIC	??$construct@USHyperlink@CGraphicTextInstance@@ABU12@@?$_Default_allocator_traits@V?$allocator@USHyperlink@CGraphicTextInstance@@@std@@@std@@SAXAAV?$allocator@USHyperlink@CGraphicTextInstance@@@1@QAUSHyperlink@CGraphicTextInstance@@ABU34@@Z ; std::_Default_allocator_traits<std::allocator<CGraphicTextInstance::SHyperlink> >::construct<CGraphicTextInstance::SHyperlink,CGraphicTextInstance::SHyperlink const &>
PUBLIC	??$_Emplace_reallocate@ABUSHyperlink@CGraphicTextInstance@@@?$vector@USHyperlink@CGraphicTextInstance@@V?$allocator@USHyperlink@CGraphicTextInstance@@@std@@@std@@QAEPAUSHyperlink@CGraphicTextInstance@@QAU23@ABU23@@Z ; std::vector<CGraphicTextInstance::SHyperlink,std::allocator<CGraphicTextInstance::SHyperlink> >::_Emplace_reallocate<CGraphicTextInstance::SHyperlink const &>
PUBLIC	??$_Emplace_reallocate@ABK@?$vector@KV?$allocator@K@std@@@std@@QAEPAKQAKABK@Z ; std::vector<unsigned long,std::allocator<unsigned long> >::_Emplace_reallocate<unsigned long const &>
PUBLIC	??$_Emplace_reallocate@ABQAUSCharacterInfomation@CGraphicFontTexture@@@?$vector@PAUSCharacterInfomation@CGraphicFontTexture@@V?$allocator@PAUSCharacterInfomation@CGraphicFontTexture@@@std@@@std@@QAEPAPAUSCharacterInfomation@CGraphicFontTexture@@QAPAU23@ABQAU23@@Z ; std::vector<CGraphicFontTexture::SCharacterInfomation *,std::allocator<CGraphicFontTexture::SCharacterInfomation *> >::_Emplace_reallocate<CGraphicFontTexture::SCharacterInfomation * const &>
PUBLIC	??$_Emplace_reallocate@ABQAVCGraphicTextInstance@@@?$vector@PAVCGraphicTextInstance@@V?$allocator@PAVCGraphicTextInstance@@@std@@@std@@QAEPAPAVCGraphicTextInstance@@QAPAV2@ABQAV2@@Z ; std::vector<CGraphicTextInstance *,std::allocator<CGraphicTextInstance *> >::_Emplace_reallocate<CGraphicTextInstance * const &>
PUBLIC	??$_Destroy_range@V?$allocator@USEmoji@CGraphicTextInstance@@@std@@@std@@YAXPAUSEmoji@CGraphicTextInstance@@QAU12@AAV?$allocator@USEmoji@CGraphicTextInstance@@@0@@Z ; std::_Destroy_range<std::allocator<CGraphicTextInstance::SEmoji> >
PUBLIC	??$_Destroy_range@V?$allocator@USHyperlink@CGraphicTextInstance@@@std@@@std@@YAXPAUSHyperlink@CGraphicTextInstance@@QAU12@AAV?$allocator@USHyperlink@CGraphicTextInstance@@@0@@Z ; std::_Destroy_range<std::allocator<CGraphicTextInstance::SHyperlink> >
PUBLIC	??$_Destroy_range@V?$allocator@K@std@@@std@@YAXPAKQAKAAV?$allocator@K@0@@Z ; std::_Destroy_range<std::allocator<unsigned long> >
PUBLIC	??$_Destroy_range@V?$allocator@PAUSCharacterInfomation@CGraphicFontTexture@@@std@@@std@@YAXPAPAUSCharacterInfomation@CGraphicFontTexture@@QAPAU12@AAV?$allocator@PAUSCharacterInfomation@CGraphicFontTexture@@@0@@Z ; std::_Destroy_range<std::allocator<CGraphicFontTexture::SCharacterInfomation *> >
PUBLIC	??$_Pocca@V?$allocator@_W@std@@@std@@YAXAAV?$allocator@_W@0@ABV10@@Z ; std::_Pocca<std::allocator<wchar_t> >
PUBLIC	??$_Destroy_range@V?$allocator@PAVCGraphicTextInstance@@@std@@@std@@YAXPAPAVCGraphicTextInstance@@QAPAV1@AAV?$allocator@PAVCGraphicTextInstance@@@0@@Z ; std::_Destroy_range<std::allocator<CGraphicTextInstance *> >
PUBLIC	??$_Uninitialized_move@PAPAVCGraphicTextInstance@@V?$allocator@PAVCGraphicTextInstance@@@std@@@std@@YAPAPAVCGraphicTextInstance@@QAPAV1@0PAPAV1@AAV?$allocator@PAVCGraphicTextInstance@@@0@@Z ; std::_Uninitialized_move<CGraphicTextInstance * *,std::allocator<CGraphicTextInstance *> >
PUBLIC	??$_Copy_memmove@PAPAVCGraphicTextInstance@@PAPAV1@@std@@YAPAPAVCGraphicTextInstance@@PAPAV1@00@Z ; std::_Copy_memmove<CGraphicTextInstance * *,CGraphicTextInstance * *>
PUBLIC	??$_Uninitialized_move@PAUSEmoji@CGraphicTextInstance@@V?$allocator@USEmoji@CGraphicTextInstance@@@std@@@std@@YAPAUSEmoji@CGraphicTextInstance@@QAU12@0PAU12@AAV?$allocator@USEmoji@CGraphicTextInstance@@@0@@Z ; std::_Uninitialized_move<CGraphicTextInstance::SEmoji *,std::allocator<CGraphicTextInstance::SEmoji> >
PUBLIC	??$_Uninitialized_move@PAUSHyperlink@CGraphicTextInstance@@V?$allocator@USHyperlink@CGraphicTextInstance@@@std@@@std@@YAPAUSHyperlink@CGraphicTextInstance@@QAU12@0PAU12@AAV?$allocator@USHyperlink@CGraphicTextInstance@@@0@@Z ; std::_Uninitialized_move<CGraphicTextInstance::SHyperlink *,std::allocator<CGraphicTextInstance::SHyperlink> >
PUBLIC	??$_Uninitialized_move@PAKV?$allocator@K@std@@@std@@YAPAKQAK0PAKAAV?$allocator@K@0@@Z ; std::_Uninitialized_move<unsigned long *,std::allocator<unsigned long> >
PUBLIC	??$_Uninitialized_move@PAPAUSCharacterInfomation@CGraphicFontTexture@@V?$allocator@PAUSCharacterInfomation@CGraphicFontTexture@@@std@@@std@@YAPAPAUSCharacterInfomation@CGraphicFontTexture@@QAPAU12@0PAPAU12@AAV?$allocator@PAUSCharacterInfomation@CGraphicFontTexture@@@0@@Z ; std::_Uninitialized_move<CGraphicFontTexture::SCharacterInfomation * *,std::allocator<CGraphicFontTexture::SCharacterInfomation *> >
PUBLIC	??$_Copy_memmove@PAKPAK@std@@YAPAKPAK00@Z	; std::_Copy_memmove<unsigned long *,unsigned long *>
PUBLIC	??$_Copy_memmove@PAPAUSCharacterInfomation@CGraphicFontTexture@@PAPAU12@@std@@YAPAPAUSCharacterInfomation@CGraphicFontTexture@@PAPAU12@00@Z ; std::_Copy_memmove<CGraphicFontTexture::SCharacterInfomation * *,CGraphicFontTexture::SCharacterInfomation * *>
PUBLIC	?_OptionsStorage@?1??__local_stdio_printf_options@@9@4_KA ; `__local_stdio_printf_options'::`2'::_OptionsStorage
PUBLIC	??_7exception@std@@6B@				; std::exception::`vftable'
PUBLIC	??_C@_0BC@EOODALEL@Unknown?5exception@		; `string'
PUBLIC	??_7bad_alloc@std@@6B@				; std::bad_alloc::`vftable'
PUBLIC	??_7bad_array_new_length@std@@6B@		; std::bad_array_new_length::`vftable'
PUBLIC	??_C@_0BF@KINCDENJ@bad?5array?5new?5length@	; `string'
PUBLIC	__TI3?AVbad_array_new_length@std@@
PUBLIC	__CTA3?AVbad_array_new_length@std@@
PUBLIC	??_R0?AVbad_array_new_length@std@@@8		; std::bad_array_new_length `RTTI Type Descriptor'
PUBLIC	__CT??_R0?AVbad_array_new_length@std@@@8??0bad_array_new_length@std@@QAE@ABV01@@Z12
PUBLIC	??_R0?AVbad_alloc@std@@@8			; std::bad_alloc `RTTI Type Descriptor'
PUBLIC	__CT??_R0?AVbad_alloc@std@@@8??0bad_alloc@std@@QAE@ABV01@@Z12
PUBLIC	??_R0?AVexception@std@@@8			; std::exception `RTTI Type Descriptor'
PUBLIC	__CT??_R0?AVexception@std@@@8??0exception@std@@QAE@ABV01@@Z12
PUBLIC	??_C@_0BA@JFNIOLAK@string?5too?5long@		; `string'
PUBLIC	??_R4exception@std@@6B@				; std::exception::`RTTI Complete Object Locator'
PUBLIC	??_R3exception@std@@8				; std::exception::`RTTI Class Hierarchy Descriptor'
PUBLIC	??_R2exception@std@@8				; std::exception::`RTTI Base Class Array'
PUBLIC	??_R1A@?0A@EA@exception@std@@8			; std::exception::`RTTI Base Class Descriptor at (0,-1,0,64)'
PUBLIC	??_R4bad_alloc@std@@6B@				; std::bad_alloc::`RTTI Complete Object Locator'
PUBLIC	??_R3bad_alloc@std@@8				; std::bad_alloc::`RTTI Class Hierarchy Descriptor'
PUBLIC	??_R2bad_alloc@std@@8				; std::bad_alloc::`RTTI Base Class Array'
PUBLIC	??_R1A@?0A@EA@bad_alloc@std@@8			; std::bad_alloc::`RTTI Base Class Descriptor at (0,-1,0,64)'
PUBLIC	??_R4bad_array_new_length@std@@6B@		; std::bad_array_new_length::`RTTI Complete Object Locator'
PUBLIC	??_R3bad_array_new_length@std@@8		; std::bad_array_new_length::`RTTI Class Hierarchy Descriptor'
PUBLIC	??_R2bad_array_new_length@std@@8		; std::bad_array_new_length::`RTTI Base Class Array'
PUBLIC	??_R1A@?0A@EA@bad_array_new_length@std@@8	; std::bad_array_new_length::`RTTI Base Class Descriptor at (0,-1,0,64)'
PUBLIC	?ms_kPool@CGraphicTextInstance@@2V?$CDynamicPool@VCGraphicTextInstance@@@@A ; CGraphicTextInstance::ms_kPool
PUBLIC	??_7CGraphicTextInstance@@6B@			; CGraphicTextInstance::`vftable'
PUBLIC	?ms_singleton@?$CSingleton@VCStateManager@@@@0PAVCStateManager@@A ; CSingleton<CStateManager>::ms_singleton
PUBLIC	?ms_singleton@?$CSingleton@VCResourceManager@@@@0PAVCResourceManager@@A ; CSingleton<CResourceManager>::ms_singleton
PUBLIC	??_C@_11LOCGONAA@@				; `string'
PUBLIC	??_C@_0DG@FOMBDJDA@CGraphicTextInstance?3?3Update?5?9?5@ ; `string'
PUBLIC	??_C@_0BC@DJBDGBIO@icon?1emoji?1?$CFs?4png@	; `string'
PUBLIC	??_C@_0BC@NDOKGGPB@trying?5to?5load?5?$CFs@	; `string'
PUBLIC	??_C@_00CNPNBAHC@@				; `string'
PUBLIC	??_C@_0BA@FOIKENOD@vector?5too?5long@		; `string'
PUBLIC	??_R4CGraphicTextInstance@@6B@			; CGraphicTextInstance::`RTTI Complete Object Locator'
PUBLIC	??_R0?AVCGraphicTextInstance@@@8		; CGraphicTextInstance `RTTI Type Descriptor'
PUBLIC	??_R3CGraphicTextInstance@@8			; CGraphicTextInstance::`RTTI Class Hierarchy Descriptor'
PUBLIC	??_R2CGraphicTextInstance@@8			; CGraphicTextInstance::`RTTI Base Class Array'
PUBLIC	??_R1A@?0A@EA@CGraphicTextInstance@@8		; CGraphicTextInstance::`RTTI Base Class Descriptor at (0,-1,0,64)'
PUBLIC	__real@3f000000
PUBLIC	__real@3f800000
PUBLIC	__real@40000000
PUBLIC	__real@401c000000000000
PUBLIC	__real@437f0000
EXTRN	??2@YAPAXI@Z:PROC				; operator new
EXTRN	??3@YAXPAXI@Z:PROC				; operator delete
EXTRN	_atexit:PROC
EXTRN	___report_rangecheckfailure:PROC
EXTRN	___std_terminate:PROC
EXTRN	__invalid_parameter_noinfo_noreturn:PROC
EXTRN	___stdio_common_vsprintf:PROC
EXTRN	___std_exception_copy:PROC
EXTRN	___std_exception_destroy:PROC
EXTRN	??_Eexception@std@@UAEPAXI@Z:PROC		; std::exception::`vector deleting destructor'
EXTRN	??_Ebad_alloc@std@@UAEPAXI@Z:PROC		; std::bad_alloc::`vector deleting destructor'
EXTRN	??_Ebad_array_new_length@std@@UAEPAXI@Z:PROC	; std::bad_array_new_length::`vector deleting destructor'
EXTRN	?_Xlength_error@std@@YAXPBD@Z:PROC		; std::_Xlength_error
EXTRN	?Tracef@@YAXPBDZZ:PROC				; Tracef
EXTRN	?TraceError@@YAXPBDZZ:PROC			; TraceError
EXTRN	?AddReference@CReferenceObject@@QAEXXZ:PROC	; CReferenceObject::AddReference
EXTRN	?Release@CReferenceObject@@QAEXXZ:PROC		; CReferenceObject::Release
EXTRN	?IsEmpty@CResource@@QBE_NXZ:PROC		; CResource::IsEmpty
EXTRN	?SetDefaultIndexBuffer@CGraphicBase@@SAXI@Z:PROC ; CGraphicBase::SetDefaultIndexBuffer
EXTRN	?SetPDTStream@CGraphicBase@@SA_NPAUSPDTVertex@@I@Z:PROC ; CGraphicBase::SetPDTStream
EXTRN	?GetD3DTexture@CGraphicTexture@@QBEPAUIDirect3DTexture8@@XZ:PROC ; CGraphicTexture::GetD3DTexture
EXTRN	?SelectTexture@CGraphicFontTexture@@QAEXK@Z:PROC ; CGraphicFontTexture::SelectTexture
EXTRN	?UpdateTexture@CGraphicFontTexture@@QAE_NXZ:PROC ; CGraphicFontTexture::UpdateTexture
EXTRN	?GetCharacterInfomation@CGraphicFontTexture@@QAEPAUSCharacterInfomation@1@G_W@Z:PROC ; CGraphicFontTexture::GetCharacterInfomation
EXTRN	?GetFontTexturePointer@CGraphicText@@QAEPAVCGraphicFontTexture@@XZ:PROC ; CGraphicText::GetFontTexturePointer
EXTRN	?GetWidth@CGraphicImage@@QBEHXZ:PROC		; CGraphicImage::GetWidth
EXTRN	?Render@CGraphicImageInstance@@QAEXXZ:PROC	; CGraphicImageInstance::Render
EXTRN	?SetPosition@CGraphicImageInstance@@QAEXMM@Z:PROC ; CGraphicImageInstance::SetPosition
EXTRN	?SetImagePointer@CGraphicImageInstance@@QAEXPAVCGraphicImage@@@Z:PROC ; CGraphicImageInstance::SetImagePointer
EXTRN	?GetHeight@CGraphicImageInstance@@QAEHXZ:PROC	; CGraphicImageInstance::GetHeight
EXTRN	?New@CGraphicImageInstance@@SAPAV1@XZ:PROC	; CGraphicImageInstance::New
EXTRN	?Delete@CGraphicImageInstance@@SAXPAV1@@Z:PROC	; CGraphicImageInstance::Delete
EXTRN	??_ECGraphicTextInstance@@UAEPAXI@Z:PROC	; CGraphicTextInstance::`vector deleting destructor'
EXTRN	?SaveRenderState@CStateManager@@QAEXW4_D3DRENDERSTATETYPE@@K@Z:PROC ; CStateManager::SaveRenderState
EXTRN	?RestoreRenderState@CStateManager@@QAEXW4_D3DRENDERSTATETYPE@@@Z:PROC ; CStateManager::RestoreRenderState
EXTRN	?SetRenderState@CStateManager@@QAEXW4_D3DRENDERSTATETYPE@@K@Z:PROC ; CStateManager::SetRenderState
EXTRN	?SetTexture@CStateManager@@QAEXKPAUIDirect3DBaseTexture8@@@Z:PROC ; CStateManager::SetTexture
EXTRN	?SetTextureStageState@CStateManager@@QAEXKW4_D3DTEXTURESTAGESTATETYPE@@K@Z:PROC ; CStateManager::SetTextureStageState
EXTRN	?SetVertexShader@CStateManager@@QAEXK@Z:PROC	; CStateManager::SetVertexShader
EXTRN	?DrawPrimitive@CStateManager@@QAEJW4_D3DPRIMITIVETYPE@@II@Z:PROC ; CStateManager::DrawPrimitive
EXTRN	?DrawIndexedPrimitive@CStateManager@@QAEJW4_D3DPRIMITIVETYPE@@IIII@Z:PROC ; CStateManager::DrawIndexedPrimitive
EXTRN	?DrawIndexedPrimitiveUP@CStateManager@@QAEJW4_D3DPRIMITIVETYPE@@IIIPBXW4_D3DFORMAT@@1I@Z:PROC ; CStateManager::DrawIndexedPrimitiveUP
EXTRN	?GetRenderState@CStateManager@@QAEKW4_D3DRENDERSTATETYPE@@@Z:PROC ; CStateManager::GetRenderState
EXTRN	?GetCurPos@CIME@@SAHXZ:PROC			; CIME::GetCurPos
EXTRN	?GetCompLen@CIME@@SAHXZ:PROC			; CIME::GetCompLen
EXTRN	?GetULBegin@CIME@@SAHXZ:PROC			; CIME::GetULBegin
EXTRN	?GetULEnd@CIME@@SAHXZ:PROC			; CIME::GetULEnd
EXTRN	?GetTextTag@@YAHPB_WHAAHAAV?$basic_string@_WU?$char_traits@_W@std@@V?$allocator@_W@2@@std@@@Z:PROC ; GetTextTag
EXTRN	?Ymir_WideCharToMultiByte@@YAHIKPB_WHPADHPBDPAH@Z:PROC ; Ymir_WideCharToMultiByte
EXTRN	?Ymir_MultiByteToWideChar@@YAHIKPBDHPA_WH@Z:PROC ; Ymir_MultiByteToWideChar
EXTRN	?Arabic_ConvSymbol@@YA_W_W@Z:PROC		; Arabic_ConvSymbol
EXTRN	?Arabic_IsInSymbol@@YA_N_W@Z:PROC		; Arabic_IsInSymbol
EXTRN	?Arabic_IsInPresentation@@YA_N_W@Z:PROC		; Arabic_IsInPresentation
EXTRN	?Arabic_HasPresentation@@YA_NPA_WH@Z:PROC	; Arabic_HasPresentation
EXTRN	?Arabic_MakeShape@@YAIPA_WI0I@Z:PROC		; Arabic_MakeShape
EXTRN	?GetResourcePointer@CResourceManager@@QAEPAVCResource@@PBD@Z:PROC ; CResourceManager::GetResourcePointer
EXTRN	?IsFileExist@CResourceManager@@QAE_NPBD@Z:PROC	; CResourceManager::IsFileExist
EXTRN	?GetDefaultCodePage@@YAKXZ:PROC			; GetDefaultCodePage
EXTRN	@__security_check_cookie@4:PROC
EXTRN	__CxxThrowException@8:PROC
EXTRN	___CxxFrameHandler3:PROC
EXTRN	__alloca_probe_16:PROC
EXTRN	__ftoui3:PROC
EXTRN	_memchr:PROC
EXTRN	_memcpy:PROC
EXTRN	_memmove:PROC
EXTRN	___security_cookie:DWORD
EXTRN	__fltused:DWORD
;	COMDAT ?_OptionsStorage@?1??__local_stdio_printf_options@@9@4_KA
_BSS	SEGMENT
?_OptionsStorage@?1??__local_stdio_printf_options@@9@4_KA DQ 01H DUP (?) ; `__local_stdio_printf_options'::`2'::_OptionsStorage
_BSS	ENDS
;	COMDAT ?ms_singleton@?$CSingleton@VCStateManager@@@@0PAVCStateManager@@A
_BSS	SEGMENT
?ms_singleton@?$CSingleton@VCStateManager@@@@0PAVCStateManager@@A DD 01H DUP (?) ; CSingleton<CStateManager>::ms_singleton
_BSS	ENDS
;	COMDAT ?ms_singleton@?$CSingleton@VCResourceManager@@@@0PAVCResourceManager@@A
_BSS	SEGMENT
?ms_singleton@?$CSingleton@VCResourceManager@@@@0PAVCResourceManager@@A DD 01H DUP (?) ; CSingleton<CResourceManager>::ms_singleton
_BSS	ENDS
_BSS	SEGMENT
?gs_mx@@3HA DD	01H DUP (?)				; gs_mx
?gs_my@@3HA DD	01H DUP (?)				; gs_my
_BSS	ENDS
CRT$XCU	SEGMENT
??ms_kPool$initializer$@CGraphicTextInstance@@2P6AXXZA@@3P6AXXZA DD FLAT:??__E?ms_kPool@CGraphicTextInstance@@2V?$CDynamicPool@VCGraphicTextInstance@@@@A@@YAXXZ ; ??ms_kPool$initializer$@CGraphicTextInstance@@2P6AXXZA@@3P6AXXZA
CRT$XCU	ENDS
;	COMDAT __real@437f0000
CONST	SEGMENT
__real@437f0000 DD 0437f0000r			; 255
CONST	ENDS
;	COMDAT __real@401c000000000000
CONST	SEGMENT
__real@401c000000000000 DQ 0401c000000000000r	; 7
CONST	ENDS
;	COMDAT __real@40000000
CONST	SEGMENT
__real@40000000 DD 040000000r			; 2
CONST	ENDS
;	COMDAT __real@3f800000
CONST	SEGMENT
__real@3f800000 DD 03f800000r			; 1
CONST	ENDS
;	COMDAT __real@3f000000
CONST	SEGMENT
__real@3f000000 DD 03f000000r			; 0.5
CONST	ENDS
;	COMDAT ??_R1A@?0A@EA@CGraphicTextInstance@@8
rdata$r	SEGMENT
??_R1A@?0A@EA@CGraphicTextInstance@@8 DD FLAT:??_R0?AVCGraphicTextInstance@@@8 ; CGraphicTextInstance::`RTTI Base Class Descriptor at (0,-1,0,64)'
	DD	00H
	DD	00H
	DD	0ffffffffH
	DD	00H
	DD	040H
	DD	FLAT:??_R3CGraphicTextInstance@@8
rdata$r	ENDS
;	COMDAT ??_R2CGraphicTextInstance@@8
rdata$r	SEGMENT
??_R2CGraphicTextInstance@@8 DD FLAT:??_R1A@?0A@EA@CGraphicTextInstance@@8 ; CGraphicTextInstance::`RTTI Base Class Array'
rdata$r	ENDS
;	COMDAT ??_R3CGraphicTextInstance@@8
rdata$r	SEGMENT
??_R3CGraphicTextInstance@@8 DD 00H			; CGraphicTextInstance::`RTTI Class Hierarchy Descriptor'
	DD	00H
	DD	01H
	DD	FLAT:??_R2CGraphicTextInstance@@8
rdata$r	ENDS
;	COMDAT ??_R0?AVCGraphicTextInstance@@@8
data$r	SEGMENT
??_R0?AVCGraphicTextInstance@@@8 DD FLAT:??_7type_info@@6B@ ; CGraphicTextInstance `RTTI Type Descriptor'
	DD	00H
	DB	'.?AVCGraphicTextInstance@@', 00H
data$r	ENDS
;	COMDAT ??_R4CGraphicTextInstance@@6B@
rdata$r	SEGMENT
??_R4CGraphicTextInstance@@6B@ DD 00H			; CGraphicTextInstance::`RTTI Complete Object Locator'
	DD	00H
	DD	00H
	DD	FLAT:??_R0?AVCGraphicTextInstance@@@8
	DD	FLAT:??_R3CGraphicTextInstance@@8
rdata$r	ENDS
;	COMDAT ??_C@_0BA@FOIKENOD@vector?5too?5long@
CONST	SEGMENT
??_C@_0BA@FOIKENOD@vector?5too?5long@ DB 'vector too long', 00H ; `string'
CONST	ENDS
;	COMDAT ??_C@_00CNPNBAHC@@
CONST	SEGMENT
??_C@_00CNPNBAHC@@ DB 00H				; `string'
CONST	ENDS
;	COMDAT ??_C@_0BC@NDOKGGPB@trying?5to?5load?5?$CFs@
CONST	SEGMENT
??_C@_0BC@NDOKGGPB@trying?5to?5load?5?$CFs@ DB 'trying to load %s', 00H ; `string'
CONST	ENDS
;	COMDAT ??_C@_0BC@DJBDGBIO@icon?1emoji?1?$CFs?4png@
CONST	SEGMENT
??_C@_0BC@DJBDGBIO@icon?1emoji?1?$CFs?4png@ DB 'icon/emoji/%s.png', 00H ; `string'
CONST	ENDS
;	COMDAT ??_C@_0DG@FOMBDJDA@CGraphicTextInstance?3?3Update?5?9?5@
CONST	SEGMENT
??_C@_0DG@FOMBDJDA@CGraphicTextInstance?3?3Update?5?9?5@ DB 'CGraphicText'
	DB	'Instance::Update - Font has not been set', 0aH, 00H ; `string'
CONST	ENDS
;	COMDAT ??_C@_11LOCGONAA@@
CONST	SEGMENT
??_C@_11LOCGONAA@@ DB 00H, 00H				; `string'
CONST	ENDS
;	COMDAT ??_7CGraphicTextInstance@@6B@
CONST	SEGMENT
??_7CGraphicTextInstance@@6B@ DD FLAT:??_R4CGraphicTextInstance@@6B@ ; CGraphicTextInstance::`vftable'
	DD	FLAT:??_ECGraphicTextInstance@@UAEPAXI@Z
CONST	ENDS
_DATA	SEGMENT
?ms_kPool@CGraphicTextInstance@@2V?$CDynamicPool@VCGraphicTextInstance@@@@A DD FLAT:??_7?$CDynamicPool@VCGraphicTextInstance@@@@6B@ ; CGraphicTextInstance::ms_kPool
	DD	00H
	DD	00H
	DD	00H
	DD	00H
	DD	00H
	DD	00H
	DD	00H
	DD	00H
?gs_hyperlinkText@@3V?$basic_string@_WU?$char_traits@_W@std@@V?$allocator@_W@2@@std@@A DW 00H ; gs_hyperlinkText
	DB	18 DUP(00H)
	DD	07H
_DATA	ENDS
;	COMDAT ??_R1A@?0A@EA@bad_array_new_length@std@@8
rdata$r	SEGMENT
??_R1A@?0A@EA@bad_array_new_length@std@@8 DD FLAT:??_R0?AVbad_array_new_length@std@@@8 ; std::bad_array_new_length::`RTTI Base Class Descriptor at (0,-1,0,64)'
	DD	02H
	DD	00H
	DD	0ffffffffH
	DD	00H
	DD	040H
	DD	FLAT:??_R3bad_array_new_length@std@@8
rdata$r	ENDS
;	COMDAT ??_R2bad_array_new_length@std@@8
rdata$r	SEGMENT
??_R2bad_array_new_length@std@@8 DD FLAT:??_R1A@?0A@EA@bad_array_new_length@std@@8 ; std::bad_array_new_length::`RTTI Base Class Array'
	DD	FLAT:??_R1A@?0A@EA@bad_alloc@std@@8
	DD	FLAT:??_R1A@?0A@EA@exception@std@@8
rdata$r	ENDS
;	COMDAT ??_R3bad_array_new_length@std@@8
rdata$r	SEGMENT
??_R3bad_array_new_length@std@@8 DD 00H			; std::bad_array_new_length::`RTTI Class Hierarchy Descriptor'
	DD	00H
	DD	03H
	DD	FLAT:??_R2bad_array_new_length@std@@8
rdata$r	ENDS
;	COMDAT ??_R4bad_array_new_length@std@@6B@
rdata$r	SEGMENT
??_R4bad_array_new_length@std@@6B@ DD 00H		; std::bad_array_new_length::`RTTI Complete Object Locator'
	DD	00H
	DD	00H
	DD	FLAT:??_R0?AVbad_array_new_length@std@@@8
	DD	FLAT:??_R3bad_array_new_length@std@@8
rdata$r	ENDS
;	COMDAT ??_R1A@?0A@EA@bad_alloc@std@@8
rdata$r	SEGMENT
??_R1A@?0A@EA@bad_alloc@std@@8 DD FLAT:??_R0?AVbad_alloc@std@@@8 ; std::bad_alloc::`RTTI Base Class Descriptor at (0,-1,0,64)'
	DD	01H
	DD	00H
	DD	0ffffffffH
	DD	00H
	DD	040H
	DD	FLAT:??_R3bad_alloc@std@@8
rdata$r	ENDS
;	COMDAT ??_R2bad_alloc@std@@8
rdata$r	SEGMENT
??_R2bad_alloc@std@@8 DD FLAT:??_R1A@?0A@EA@bad_alloc@std@@8 ; std::bad_alloc::`RTTI Base Class Array'
	DD	FLAT:??_R1A@?0A@EA@exception@std@@8
rdata$r	ENDS
;	COMDAT ??_R3bad_alloc@std@@8
rdata$r	SEGMENT
??_R3bad_alloc@std@@8 DD 00H				; std::bad_alloc::`RTTI Class Hierarchy Descriptor'
	DD	00H
	DD	02H
	DD	FLAT:??_R2bad_alloc@std@@8
rdata$r	ENDS
;	COMDAT ??_R4bad_alloc@std@@6B@
rdata$r	SEGMENT
??_R4bad_alloc@std@@6B@ DD 00H				; std::bad_alloc::`RTTI Complete Object Locator'
	DD	00H
	DD	00H
	DD	FLAT:??_R0?AVbad_alloc@std@@@8
	DD	FLAT:??_R3bad_alloc@std@@8
rdata$r	ENDS
;	COMDAT ??_R1A@?0A@EA@exception@std@@8
rdata$r	SEGMENT
??_R1A@?0A@EA@exception@std@@8 DD FLAT:??_R0?AVexception@std@@@8 ; std::exception::`RTTI Base Class Descriptor at (0,-1,0,64)'
	DD	00H
	DD	00H
	DD	0ffffffffH
	DD	00H
	DD	040H
	DD	FLAT:??_R3exception@std@@8
rdata$r	ENDS
;	COMDAT ??_R2exception@std@@8
rdata$r	SEGMENT
??_R2exception@std@@8 DD FLAT:??_R1A@?0A@EA@exception@std@@8 ; std::exception::`RTTI Base Class Array'
rdata$r	ENDS
;	COMDAT ??_R3exception@std@@8
rdata$r	SEGMENT
??_R3exception@std@@8 DD 00H				; std::exception::`RTTI Class Hierarchy Descriptor'
	DD	00H
	DD	01H
	DD	FLAT:??_R2exception@std@@8
rdata$r	ENDS
;	COMDAT ??_R4exception@std@@6B@
rdata$r	SEGMENT
??_R4exception@std@@6B@ DD 00H				; std::exception::`RTTI Complete Object Locator'
	DD	00H
	DD	00H
	DD	FLAT:??_R0?AVexception@std@@@8
	DD	FLAT:??_R3exception@std@@8
rdata$r	ENDS
;	COMDAT ??_C@_0BA@JFNIOLAK@string?5too?5long@
CONST	SEGMENT
??_C@_0BA@JFNIOLAK@string?5too?5long@ DB 'string too long', 00H ; `string'
CONST	ENDS
;	COMDAT __CT??_R0?AVexception@std@@@8??0exception@std@@QAE@ABV01@@Z12
xdata$x	SEGMENT
__CT??_R0?AVexception@std@@@8??0exception@std@@QAE@ABV01@@Z12 DD 00H
	DD	FLAT:??_R0?AVexception@std@@@8
	DD	00H
	DD	0ffffffffH
	ORG $+4
	DD	0cH
	DD	FLAT:??0exception@std@@QAE@ABV01@@Z
xdata$x	ENDS
;	COMDAT ??_R0?AVexception@std@@@8
data$r	SEGMENT
??_R0?AVexception@std@@@8 DD FLAT:??_7type_info@@6B@	; std::exception `RTTI Type Descriptor'
	DD	00H
	DB	'.?AVexception@std@@', 00H
data$r	ENDS
;	COMDAT __CT??_R0?AVbad_alloc@std@@@8??0bad_alloc@std@@QAE@ABV01@@Z12
xdata$x	SEGMENT
__CT??_R0?AVbad_alloc@std@@@8??0bad_alloc@std@@QAE@ABV01@@Z12 DD 010H
	DD	FLAT:??_R0?AVbad_alloc@std@@@8
	DD	00H
	DD	0ffffffffH
	ORG $+4
	DD	0cH
	DD	FLAT:??0bad_alloc@std@@QAE@ABV01@@Z
xdata$x	ENDS
;	COMDAT ??_R0?AVbad_alloc@std@@@8
data$r	SEGMENT
??_R0?AVbad_alloc@std@@@8 DD FLAT:??_7type_info@@6B@	; std::bad_alloc `RTTI Type Descriptor'
	DD	00H
	DB	'.?AVbad_alloc@std@@', 00H
data$r	ENDS
;	COMDAT __CT??_R0?AVbad_array_new_length@std@@@8??0bad_array_new_length@std@@QAE@ABV01@@Z12
xdata$x	SEGMENT
__CT??_R0?AVbad_array_new_length@std@@@8??0bad_array_new_length@std@@QAE@ABV01@@Z12 DD 00H
	DD	FLAT:??_R0?AVbad_array_new_length@std@@@8
	DD	00H
	DD	0ffffffffH
	ORG $+4
	DD	0cH
	DD	FLAT:??0bad_array_new_length@std@@QAE@ABV01@@Z
xdata$x	ENDS
;	COMDAT ??_R0?AVbad_array_new_length@std@@@8
data$r	SEGMENT
??_R0?AVbad_array_new_length@std@@@8 DD FLAT:??_7type_info@@6B@ ; std::bad_array_new_length `RTTI Type Descriptor'
	DD	00H
	DB	'.?AVbad_array_new_length@std@@', 00H
data$r	ENDS
;	COMDAT __CTA3?AVbad_array_new_length@std@@
xdata$x	SEGMENT
__CTA3?AVbad_array_new_length@std@@ DD 03H
	DD	FLAT:__CT??_R0?AVbad_array_new_length@std@@@8??0bad_array_new_length@std@@QAE@ABV01@@Z12
	DD	FLAT:__CT??_R0?AVbad_alloc@std@@@8??0bad_alloc@std@@QAE@ABV01@@Z12
	DD	FLAT:__CT??_R0?AVexception@std@@@8??0exception@std@@QAE@ABV01@@Z12
xdata$x	ENDS
;	COMDAT __TI3?AVbad_array_new_length@std@@
xdata$x	SEGMENT
__TI3?AVbad_array_new_length@std@@ DD 00H
	DD	FLAT:??1bad_array_new_length@std@@UAE@XZ
	DD	00H
	DD	FLAT:__CTA3?AVbad_array_new_length@std@@
xdata$x	ENDS
;	COMDAT ??_C@_0BF@KINCDENJ@bad?5array?5new?5length@
CONST	SEGMENT
??_C@_0BF@KINCDENJ@bad?5array?5new?5length@ DB 'bad array new length', 00H ; `string'
CONST	ENDS
;	COMDAT ??_7bad_array_new_length@std@@6B@
CONST	SEGMENT
??_7bad_array_new_length@std@@6B@ DD FLAT:??_R4bad_array_new_length@std@@6B@ ; std::bad_array_new_length::`vftable'
	DD	FLAT:??_Ebad_array_new_length@std@@UAEPAXI@Z
	DD	FLAT:?what@exception@std@@UBEPBDXZ
CONST	ENDS
;	COMDAT ??_7bad_alloc@std@@6B@
CONST	SEGMENT
??_7bad_alloc@std@@6B@ DD FLAT:??_R4bad_alloc@std@@6B@	; std::bad_alloc::`vftable'
	DD	FLAT:??_Ebad_alloc@std@@UAEPAXI@Z
	DD	FLAT:?what@exception@std@@UBEPBDXZ
CONST	ENDS
;	COMDAT ??_C@_0BC@EOODALEL@Unknown?5exception@
CONST	SEGMENT
??_C@_0BC@EOODALEL@Unknown?5exception@ DB 'Unknown exception', 00H ; `string'
CONST	ENDS
;	COMDAT ??_7exception@std@@6B@
CONST	SEGMENT
??_7exception@std@@6B@ DD FLAT:??_R4exception@std@@6B@	; std::exception::`vftable'
	DD	FLAT:??_Eexception@std@@UAEPAXI@Z
	DD	FLAT:?what@exception@std@@UBEPBDXZ
CONST	ENDS
;	COMDAT xdata$x
xdata$x	SEGMENT
__catchsym$??$_Emplace_reallocate@ABUSHyperlink@CGraphicTextInstance@@@?$vector@USHyperlink@CGraphicTextInstance@@V?$allocator@USHyperlink@CGraphicTextInstance@@@std@@@std@@QAEPAUSHyperlink@CGraphicTextInstance@@QAU23@ABU23@@Z$2 DD 040H
	DD	00H
	DD	00H
	DD	FLAT:__catch$??$_Emplace_reallocate@ABUSHyperlink@CGraphicTextInstance@@@?$vector@USHyperlink@CGraphicTextInstance@@V?$allocator@USHyperlink@CGraphicTextInstance@@@std@@@std@@QAEPAUSHyperlink@CGraphicTextInstance@@QAU23@ABU23@@Z$0
__unwindtable$??$_Emplace_reallocate@ABUSHyperlink@CGraphicTextInstance@@@?$vector@USHyperlink@CGraphicTextInstance@@V?$allocator@USHyperlink@CGraphicTextInstance@@@std@@@std@@QAEPAUSHyperlink@CGraphicTextInstance@@QAU23@ABU23@@Z DD 0ffffffffH
	DD	00H
	DD	0ffffffffH
	DD	00H
__tryblocktable$??$_Emplace_reallocate@ABUSHyperlink@CGraphicTextInstance@@@?$vector@USHyperlink@CGraphicTextInstance@@V?$allocator@USHyperlink@CGraphicTextInstance@@@std@@@std@@QAEPAUSHyperlink@CGraphicTextInstance@@QAU23@ABU23@@Z DD 00H
	DD	00H
	DD	01H
	DD	01H
	DD	FLAT:__catchsym$??$_Emplace_reallocate@ABUSHyperlink@CGraphicTextInstance@@@?$vector@USHyperlink@CGraphicTextInstance@@V?$allocator@USHyperlink@CGraphicTextInstance@@@std@@@std@@QAEPAUSHyperlink@CGraphicTextInstance@@QAU23@ABU23@@Z$2
__ehfuncinfo$??$_Emplace_reallocate@ABUSHyperlink@CGraphicTextInstance@@@?$vector@USHyperlink@CGraphicTextInstance@@V?$allocator@USHyperlink@CGraphicTextInstance@@@std@@@std@@QAEPAUSHyperlink@CGraphicTextInstance@@QAU23@ABU23@@Z DD 019930522H
	DD	02H
	DD	FLAT:__unwindtable$??$_Emplace_reallocate@ABUSHyperlink@CGraphicTextInstance@@@?$vector@USHyperlink@CGraphicTextInstance@@V?$allocator@USHyperlink@CGraphicTextInstance@@@std@@@std@@QAEPAUSHyperlink@CGraphicTextInstance@@QAU23@ABU23@@Z
	DD	01H
	DD	FLAT:__tryblocktable$??$_Emplace_reallocate@ABUSHyperlink@CGraphicTextInstance@@@?$vector@USHyperlink@CGraphicTextInstance@@V?$allocator@USHyperlink@CGraphicTextInstance@@@std@@@std@@QAEPAUSHyperlink@CGraphicTextInstance@@QAU23@ABU23@@Z
	DD	2 DUP(00H)
	DD	00H
	DD	01H
xdata$x	ENDS
;	COMDAT xdata$x
xdata$x	SEGMENT
__unwindtable$?Alloc@?$CDynamicPool@VCGraphicTextInstance@@@@QAEPAVCGraphicTextInstance@@XZ DD 0ffffffffH
	DD	FLAT:__unwindfunclet$?Alloc@?$CDynamicPool@VCGraphicTextInstance@@@@QAEPAVCGraphicTextInstance@@XZ$0
__ehfuncinfo$?Alloc@?$CDynamicPool@VCGraphicTextInstance@@@@QAEPAVCGraphicTextInstance@@XZ DD 019930522H
	DD	01H
	DD	FLAT:__unwindtable$?Alloc@?$CDynamicPool@VCGraphicTextInstance@@@@QAEPAVCGraphicTextInstance@@XZ
	DD	2 DUP(00H)
	DD	2 DUP(00H)
	DD	00H
	DD	01H
xdata$x	ENDS
;	COMDAT xdata$x
xdata$x	SEGMENT
__unwindtable$?New@CGraphicTextInstance@@SAPAV1@XZ DD 0ffffffffH
	DD	FLAT:__unwindfunclet$?New@CGraphicTextInstance@@SAPAV1@XZ$0
__ehfuncinfo$?New@CGraphicTextInstance@@SAPAV1@XZ DD 019930522H
	DD	01H
	DD	FLAT:__unwindtable$?New@CGraphicTextInstance@@SAPAV1@XZ
	DD	2 DUP(00H)
	DD	2 DUP(00H)
	DD	00H
	DD	01H
xdata$x	ENDS
;	COMDAT xdata$x
xdata$x	SEGMENT
__ehfuncinfo$??1?$CRef@VCGraphicText@@@@QAE@XZ DD 019930522H
	DD	00H
	DD	00H
	DD	2 DUP(00H)
	DD	2 DUP(00H)
	DD	00H
	DD	05H
xdata$x	ENDS
;	COMDAT xdata$x
xdata$x	SEGMENT
__ehfuncinfo$?Update@CGraphicTextInstance@@QAEXXZ DD 019930522H
	DD	05H
	DD	FLAT:__unwindtable$?Update@CGraphicTextInstance@@QAEXXZ
	DD	2 DUP(00H)
	DD	2 DUP(00H)
	DD	00H
	DD	01H
__unwindtable$?Update@CGraphicTextInstance@@QAEXXZ DD 0ffffffffH
	DD	FLAT:__unwindfunclet$?Update@CGraphicTextInstance@@QAEXXZ$0
	DD	00H
	DD	FLAT:__unwindfunclet$?Update@CGraphicTextInstance@@QAEXXZ$1
	DD	0ffffffffH
	DD	FLAT:__unwindfunclet$?Update@CGraphicTextInstance@@QAEXXZ$2
	DD	02H
	DD	FLAT:__unwindfunclet$?Update@CGraphicTextInstance@@QAEXXZ$3
	DD	03H
	DD	FLAT:__unwindfunclet$?Update@CGraphicTextInstance@@QAEXXZ$4
xdata$x	ENDS
;	COMDAT xdata$x
xdata$x	SEGMENT
__unwindtable$??1CGraphicTextInstance@@UAE@XZ DD 0ffffffffH
	DD	FLAT:___std_terminate
__ehfuncinfo$??1CGraphicTextInstance@@UAE@XZ DD 019930522H
	DD	01H
	DD	FLAT:__unwindtable$??1CGraphicTextInstance@@UAE@XZ
	DD	2 DUP(00H)
	DD	2 DUP(00H)
	DD	00H
	DD	05H
xdata$x	ENDS
;	COMDAT xdata$x
xdata$x	SEGMENT
__ehfuncinfo$??0CGraphicTextInstance@@QAE@XZ DD 019930522H
	DD	06H
	DD	FLAT:__unwindtable$??0CGraphicTextInstance@@QAE@XZ
	DD	2 DUP(00H)
	DD	2 DUP(00H)
	DD	00H
	DD	01H
__unwindtable$??0CGraphicTextInstance@@QAE@XZ DD 0ffffffffH
	DD	FLAT:__unwindfunclet$??0CGraphicTextInstance@@QAE@XZ$0
	DD	00H
	DD	FLAT:__unwindfunclet$??0CGraphicTextInstance@@QAE@XZ$1
	DD	01H
	DD	FLAT:__unwindfunclet$??0CGraphicTextInstance@@QAE@XZ$2
	DD	02H
	DD	FLAT:__unwindfunclet$??0CGraphicTextInstance@@QAE@XZ$3
	DD	03H
	DD	FLAT:__unwindfunclet$??0CGraphicTextInstance@@QAE@XZ$4
	DD	04H
	DD	FLAT:__unwindfunclet$??0CGraphicTextInstance@@QAE@XZ$5
xdata$x	ENDS
CRT$XCU	SEGMENT
?gs_hyperlinkText$initializer$@@3P6AXXZA DD FLAT:??__Egs_hyperlinkText@@YAXXZ ; gs_hyperlinkText$initializer$
CRT$XCU	ENDS
; Function compile flags: /Ogtp
; File C:\Program Files (x86)\Microsoft Visual Studio\2019\Community\VC\Tools\MSVC\14.27.29110\include\xutility
;	COMDAT ??$_Copy_memmove@PAPAUSCharacterInfomation@CGraphicFontTexture@@PAPAU12@@std@@YAPAPAUSCharacterInfomation@CGraphicFontTexture@@PAPAU12@00@Z
_TEXT	SEGMENT
__First$ = 8						; size = 4
__Last$ = 12						; size = 4
__Dest$ = 16						; size = 4
??$_Copy_memmove@PAPAUSCharacterInfomation@CGraphicFontTexture@@PAPAU12@@std@@YAPAPAUSCharacterInfomation@CGraphicFontTexture@@PAPAU12@00@Z PROC ; std::_Copy_memmove<CGraphicFontTexture::SCharacterInfomation * *,CGraphicFontTexture::SCharacterInfomation * *>, COMDAT

; 4113 : _OutIt _Copy_memmove(_InIt _First, _InIt _Last, _OutIt _Dest) {

  00000	55		 push	 ebp
  00001	8b ec		 mov	 ebp, esp

; 4114 :     const char* const _First_ch = const_cast<const char*>(reinterpret_cast<const volatile char*>(_First));
; 4115 :     const char* const _Last_ch  = const_cast<const char*>(reinterpret_cast<const volatile char*>(_Last));
; 4116 :     char* const _Dest_ch        = const_cast<char*>(reinterpret_cast<volatile char*>(_Dest));
; 4117 :     const auto _Count           = static_cast<size_t>(_Last_ch - _First_ch);

  00003	8b 45 08	 mov	 eax, DWORD PTR __First$[ebp]
  00006	56		 push	 esi

; 4118 :     _CSTD memmove(_Dest_ch, _First_ch, _Count);

  00007	8b 75 10	 mov	 esi, DWORD PTR __Dest$[ebp]
  0000a	57		 push	 edi
  0000b	8b 7d 0c	 mov	 edi, DWORD PTR __Last$[ebp]
  0000e	2b f8		 sub	 edi, eax
  00010	57		 push	 edi
  00011	50		 push	 eax
  00012	56		 push	 esi
  00013	e8 00 00 00 00	 call	 _memmove
  00018	83 c4 0c	 add	 esp, 12			; 0000000cH

; 4119 :     return reinterpret_cast<_OutIt>(_Dest_ch + _Count);

  0001b	8d 04 37	 lea	 eax, DWORD PTR [edi+esi]
  0001e	5f		 pop	 edi
  0001f	5e		 pop	 esi

; 4120 : }

  00020	5d		 pop	 ebp
  00021	c3		 ret	 0
??$_Copy_memmove@PAPAUSCharacterInfomation@CGraphicFontTexture@@PAPAU12@@std@@YAPAPAUSCharacterInfomation@CGraphicFontTexture@@PAPAU12@00@Z ENDP ; std::_Copy_memmove<CGraphicFontTexture::SCharacterInfomation * *,CGraphicFontTexture::SCharacterInfomation * *>
_TEXT	ENDS
; Function compile flags: /Ogtp
; File C:\Program Files (x86)\Microsoft Visual Studio\2019\Community\VC\Tools\MSVC\14.27.29110\include\xutility
;	COMDAT ??$_Copy_memmove@PAKPAK@std@@YAPAKPAK00@Z
_TEXT	SEGMENT
__First$ = 8						; size = 4
__Last$ = 12						; size = 4
__Dest$ = 16						; size = 4
??$_Copy_memmove@PAKPAK@std@@YAPAKPAK00@Z PROC		; std::_Copy_memmove<unsigned long *,unsigned long *>, COMDAT

; 4113 : _OutIt _Copy_memmove(_InIt _First, _InIt _Last, _OutIt _Dest) {

  00000	55		 push	 ebp
  00001	8b ec		 mov	 ebp, esp

; 4114 :     const char* const _First_ch = const_cast<const char*>(reinterpret_cast<const volatile char*>(_First));
; 4115 :     const char* const _Last_ch  = const_cast<const char*>(reinterpret_cast<const volatile char*>(_Last));
; 4116 :     char* const _Dest_ch        = const_cast<char*>(reinterpret_cast<volatile char*>(_Dest));
; 4117 :     const auto _Count           = static_cast<size_t>(_Last_ch - _First_ch);

  00003	8b 45 08	 mov	 eax, DWORD PTR __First$[ebp]
  00006	56		 push	 esi

; 4118 :     _CSTD memmove(_Dest_ch, _First_ch, _Count);

  00007	8b 75 10	 mov	 esi, DWORD PTR __Dest$[ebp]
  0000a	57		 push	 edi
  0000b	8b 7d 0c	 mov	 edi, DWORD PTR __Last$[ebp]
  0000e	2b f8		 sub	 edi, eax
  00010	57		 push	 edi
  00011	50		 push	 eax
  00012	56		 push	 esi
  00013	e8 00 00 00 00	 call	 _memmove
  00018	83 c4 0c	 add	 esp, 12			; 0000000cH

; 4119 :     return reinterpret_cast<_OutIt>(_Dest_ch + _Count);

  0001b	8d 04 37	 lea	 eax, DWORD PTR [edi+esi]
  0001e	5f		 pop	 edi
  0001f	5e		 pop	 esi

; 4120 : }

  00020	5d		 pop	 ebp
  00021	c3		 ret	 0
??$_Copy_memmove@PAKPAK@std@@YAPAKPAK00@Z ENDP		; std::_Copy_memmove<unsigned long *,unsigned long *>
_TEXT	ENDS
; Function compile flags: /Ogtp
; File C:\Program Files (x86)\Microsoft Visual Studio\2019\Community\VC\Tools\MSVC\14.27.29110\include\xmemory
;	COMDAT ??$_Uninitialized_move@PAPAUSCharacterInfomation@CGraphicFontTexture@@V?$allocator@PAUSCharacterInfomation@CGraphicFontTexture@@@std@@@std@@YAPAPAUSCharacterInfomation@CGraphicFontTexture@@QAPAU12@0PAPAU12@AAV?$allocator@PAUSCharacterInfomation@CGraphicFontTexture@@@0@@Z
_TEXT	SEGMENT
__First$ = 8						; size = 4
__Last$ = 12						; size = 4
__Dest$ = 16						; size = 4
__Al$ = 20						; size = 4
??$_Uninitialized_move@PAPAUSCharacterInfomation@CGraphicFontTexture@@V?$allocator@PAUSCharacterInfomation@CGraphicFontTexture@@@std@@@std@@YAPAPAUSCharacterInfomation@CGraphicFontTexture@@QAPAU12@0PAPAU12@AAV?$allocator@PAUSCharacterInfomation@CGraphicFontTexture@@@0@@Z PROC ; std::_Uninitialized_move<CGraphicFontTexture::SCharacterInfomation * *,std::allocator<CGraphicFontTexture::SCharacterInfomation *> >, COMDAT

; 1647 :     const _InIt _First, const _InIt _Last, _Alloc_ptr_t<_Alloc> _Dest, _Alloc& _Al) {

  00000	55		 push	 ebp
  00001	8b ec		 mov	 ebp, esp
  00003	53		 push	 ebx

; 1648 :     // move [_First, _Last) to raw _Dest, using _Al
; 1649 :     // note: only called internally from elsewhere in the STL
; 1650 :     using _Ptrval     = typename _Alloc::value_type*;
; 1651 :     auto _UFirst      = _Get_unwrapped(_First);
; 1652 :     const auto _ULast = _Get_unwrapped(_Last);
; 1653 :     if constexpr (conjunction_v<bool_constant<_Ptr_move_cat<decltype(_UFirst), _Ptrval>::_Really_trivial>,
; 1654 :                       _Uses_default_construct<_Alloc, _Ptrval, decltype(_STD move(*_UFirst))>>) {
; 1655 :         _Copy_memmove(_UFirst, _ULast, _Unfancy(_Dest));

  00004	8b 5d 10	 mov	 ebx, DWORD PTR __Dest$[ebp]
  00007	57		 push	 edi
  00008	8b 7d 0c	 mov	 edi, DWORD PTR __Last$[ebp]
  0000b	53		 push	 ebx
  0000c	57		 push	 edi
  0000d	ff 75 08	 push	 DWORD PTR __First$[ebp]
  00010	e8 00 00 00 00	 call	 ??$_Copy_memmove@PAPAUSCharacterInfomation@CGraphicFontTexture@@PAPAU12@@std@@YAPAPAUSCharacterInfomation@CGraphicFontTexture@@PAPAU12@00@Z ; std::_Copy_memmove<CGraphicFontTexture::SCharacterInfomation * *,CGraphicFontTexture::SCharacterInfomation * *>

; 1656 :         return _Dest + (_ULast - _UFirst);

  00015	2b 7d 08	 sub	 edi, DWORD PTR __First$[ebp]
  00018	83 c4 0c	 add	 esp, 12			; 0000000cH
  0001b	c1 ff 02	 sar	 edi, 2
  0001e	8d 04 bb	 lea	 eax, DWORD PTR [ebx+edi*4]
  00021	5f		 pop	 edi
  00022	5b		 pop	 ebx

; 1657 :     } else {
; 1658 :         _Uninitialized_backout_al<_Alloc> _Backout{_Dest, _Al};
; 1659 :         for (; _UFirst != _ULast; ++_UFirst) {
; 1660 :             _Backout._Emplace_back(_STD move(*_UFirst));
; 1661 :         }
; 1662 : 
; 1663 :         return _Backout._Release();
; 1664 :     }
; 1665 : }

  00023	5d		 pop	 ebp
  00024	c3		 ret	 0
??$_Uninitialized_move@PAPAUSCharacterInfomation@CGraphicFontTexture@@V?$allocator@PAUSCharacterInfomation@CGraphicFontTexture@@@std@@@std@@YAPAPAUSCharacterInfomation@CGraphicFontTexture@@QAPAU12@0PAPAU12@AAV?$allocator@PAUSCharacterInfomation@CGraphicFontTexture@@@0@@Z ENDP ; std::_Uninitialized_move<CGraphicFontTexture::SCharacterInfomation * *,std::allocator<CGraphicFontTexture::SCharacterInfomation *> >
_TEXT	ENDS
; Function compile flags: /Ogtp
; File C:\Program Files (x86)\Microsoft Visual Studio\2019\Community\VC\Tools\MSVC\14.27.29110\include\xmemory
;	COMDAT ??$_Uninitialized_move@PAKV?$allocator@K@std@@@std@@YAPAKQAK0PAKAAV?$allocator@K@0@@Z
_TEXT	SEGMENT
__First$ = 8						; size = 4
__Last$ = 12						; size = 4
__Dest$ = 16						; size = 4
__Al$ = 20						; size = 4
??$_Uninitialized_move@PAKV?$allocator@K@std@@@std@@YAPAKQAK0PAKAAV?$allocator@K@0@@Z PROC ; std::_Uninitialized_move<unsigned long *,std::allocator<unsigned long> >, COMDAT

; 1647 :     const _InIt _First, const _InIt _Last, _Alloc_ptr_t<_Alloc> _Dest, _Alloc& _Al) {

  00000	55		 push	 ebp
  00001	8b ec		 mov	 ebp, esp
  00003	53		 push	 ebx

; 1648 :     // move [_First, _Last) to raw _Dest, using _Al
; 1649 :     // note: only called internally from elsewhere in the STL
; 1650 :     using _Ptrval     = typename _Alloc::value_type*;
; 1651 :     auto _UFirst      = _Get_unwrapped(_First);
; 1652 :     const auto _ULast = _Get_unwrapped(_Last);
; 1653 :     if constexpr (conjunction_v<bool_constant<_Ptr_move_cat<decltype(_UFirst), _Ptrval>::_Really_trivial>,
; 1654 :                       _Uses_default_construct<_Alloc, _Ptrval, decltype(_STD move(*_UFirst))>>) {
; 1655 :         _Copy_memmove(_UFirst, _ULast, _Unfancy(_Dest));

  00004	8b 5d 10	 mov	 ebx, DWORD PTR __Dest$[ebp]
  00007	57		 push	 edi
  00008	8b 7d 0c	 mov	 edi, DWORD PTR __Last$[ebp]
  0000b	53		 push	 ebx
  0000c	57		 push	 edi
  0000d	ff 75 08	 push	 DWORD PTR __First$[ebp]
  00010	e8 00 00 00 00	 call	 ??$_Copy_memmove@PAKPAK@std@@YAPAKPAK00@Z ; std::_Copy_memmove<unsigned long *,unsigned long *>

; 1656 :         return _Dest + (_ULast - _UFirst);

  00015	2b 7d 08	 sub	 edi, DWORD PTR __First$[ebp]
  00018	83 c4 0c	 add	 esp, 12			; 0000000cH
  0001b	c1 ff 02	 sar	 edi, 2
  0001e	8d 04 bb	 lea	 eax, DWORD PTR [ebx+edi*4]
  00021	5f		 pop	 edi
  00022	5b		 pop	 ebx

; 1657 :     } else {
; 1658 :         _Uninitialized_backout_al<_Alloc> _Backout{_Dest, _Al};
; 1659 :         for (; _UFirst != _ULast; ++_UFirst) {
; 1660 :             _Backout._Emplace_back(_STD move(*_UFirst));
; 1661 :         }
; 1662 : 
; 1663 :         return _Backout._Release();
; 1664 :     }
; 1665 : }

  00023	5d		 pop	 ebp
  00024	c3		 ret	 0
??$_Uninitialized_move@PAKV?$allocator@K@std@@@std@@YAPAKQAK0PAKAAV?$allocator@K@0@@Z ENDP ; std::_Uninitialized_move<unsigned long *,std::allocator<unsigned long> >
_TEXT	ENDS
; Function compile flags: /Ogtp
; File C:\Program Files (x86)\Microsoft Visual Studio\2019\Community\VC\Tools\MSVC\14.27.29110\include\xmemory
; File C:\Program Files (x86)\Microsoft Visual Studio\2019\Community\VC\Tools\MSVC\14.27.29110\include\xstring
; File C:\Program Files (x86)\Microsoft Visual Studio\2019\Community\VC\Tools\MSVC\14.27.29110\include\xmemory
; File C:\Program Files (x86)\Microsoft Visual Studio\2019\Community\VC\Tools\MSVC\14.27.29110\include\xstring
; File C:\Program Files (x86)\Microsoft Visual Studio\2019\Community\VC\Tools\MSVC\14.27.29110\include\xmemory
; File C:\Program Files (x86)\Microsoft Visual Studio\2019\Community\VC\Tools\MSVC\14.27.29110\include\xstring
; File C:\Program Files (x86)\Microsoft Visual Studio\2019\Community\VC\Tools\MSVC\14.27.29110\include\xmemory
;	COMDAT ??$_Uninitialized_move@PAUSHyperlink@CGraphicTextInstance@@V?$allocator@USHyperlink@CGraphicTextInstance@@@std@@@std@@YAPAUSHyperlink@CGraphicTextInstance@@QAU12@0PAU12@AAV?$allocator@USHyperlink@CGraphicTextInstance@@@0@@Z
_TEXT	SEGMENT
__First$ = 8						; size = 4
__Last$ = 12						; size = 4
__Dest$ = 16						; size = 4
__Al$ = 20						; size = 4
??$_Uninitialized_move@PAUSHyperlink@CGraphicTextInstance@@V?$allocator@USHyperlink@CGraphicTextInstance@@@std@@@std@@YAPAUSHyperlink@CGraphicTextInstance@@QAU12@0PAU12@AAV?$allocator@USHyperlink@CGraphicTextInstance@@@0@@Z PROC ; std::_Uninitialized_move<CGraphicTextInstance::SHyperlink *,std::allocator<CGraphicTextInstance::SHyperlink> >, COMDAT

; 1647 :     const _InIt _First, const _InIt _Last, _Alloc_ptr_t<_Alloc> _Dest, _Alloc& _Al) {

  00000	55		 push	 ebp
  00001	8b ec		 mov	 ebp, esp

; 1659 :         for (; _UFirst != _ULast; ++_UFirst) {

  00003	8b 4d 08	 mov	 ecx, DWORD PTR __First$[ebp]
  00006	56		 push	 esi

; 1497 :     _Uninitialized_backout_al(pointer _Dest, _Alloc& _Al_) : _First(_Dest), _Last(_Dest), _Al(_Al_) {}

  00007	8b 75 10	 mov	 esi, DWORD PTR __Dest$[ebp]

; 1647 :     const _InIt _First, const _InIt _Last, _Alloc_ptr_t<_Alloc> _Dest, _Alloc& _Al) {

  0000a	57		 push	 edi

; 1659 :         for (; _UFirst != _ULast; ++_UFirst) {

  0000b	8b 7d 0c	 mov	 edi, DWORD PTR __Last$[ebp]
  0000e	3b cf		 cmp	 ecx, edi
  00010	74 5f		 je	 SHORT $LN3@Uninitiali

; 1497 :     _Uninitialized_backout_al(pointer _Dest, _Alloc& _Al_) : _First(_Dest), _Last(_Dest), _Al(_Al_) {}

  00012	8b d6		 mov	 edx, esi
  00014	8d 41 18	 lea	 eax, DWORD PTR [ecx+24]
  00017	2b d1		 sub	 edx, ecx
  00019	0f 1f 80 00 00
	00 00		 npad	 7
$LL4@Uninitiali:
  00020	0f b7 48 e8	 movzx	 ecx, WORD PTR [eax-24]

; 1509 :         ++_Last;

  00024	8d 40 1c	 lea	 eax, DWORD PTR [eax+28]
  00027	66 89 0e	 mov	 WORD PTR [esi], cx
  0002a	0f b7 48 ce	 movzx	 ecx, WORD PTR [eax-50]
  0002e	66 89 4e 02	 mov	 WORD PTR [esi+2], cx
; File C:\Program Files (x86)\Microsoft Visual Studio\2019\Community\VC\Tools\MSVC\14.27.29110\include\xstring

; 4296 :         _Traits::assign(_Mypair._Myval2._Bx._Buf[0], _Elem());

  00032	33 c9		 xor	 ecx, ecx

; 2124 :     _String_val() : _Bx(), _Mysize(0), _Myres(0) {}

  00034	c7 46 14 00 00
	00 00		 mov	 DWORD PTR [esi+20], 0
  0003b	c7 44 02 e4 00
	00 00 00	 mov	 DWORD PTR [edx+eax-28], 0

; 2606 :         _CSTD memcpy(_My_data_mem, _Right_data_mem, _Memcpy_val_size);

  00043	0f 10 40 d0	 movups	 xmm0, XMMWORD PTR [eax-48]
  00047	0f 11 46 04	 movups	 XMMWORD PTR [esi+4], xmm0
  0004b	f3 0f 7e 40 e0	 movq	 xmm0, QWORD PTR [eax-32]
  00050	66 0f d6 46 14	 movq	 QWORD PTR [esi+20], xmm0
; File C:\Program Files (x86)\Microsoft Visual Studio\2019\Community\VC\Tools\MSVC\14.27.29110\include\xmemory

; 1509 :         ++_Last;

  00055	83 c6 1c	 add	 esi, 28			; 0000001cH
; File C:\Program Files (x86)\Microsoft Visual Studio\2019\Community\VC\Tools\MSVC\14.27.29110\include\xstring

; 4296 :         _Traits::assign(_Mypair._Myval2._Bx._Buf[0], _Elem());

  00058	66 89 48 d0	 mov	 WORD PTR [eax-48], cx
; File C:\Program Files (x86)\Microsoft Visual Studio\2019\Community\VC\Tools\MSVC\14.27.29110\include\xmemory

; 1659 :         for (; _UFirst != _ULast; ++_UFirst) {

  0005c	8d 48 e8	 lea	 ecx, DWORD PTR [eax-24]
; File C:\Program Files (x86)\Microsoft Visual Studio\2019\Community\VC\Tools\MSVC\14.27.29110\include\xstring

; 4293 :         _Mypair._Myval2._Mysize = 0;

  0005f	c7 40 e0 00 00
	00 00		 mov	 DWORD PTR [eax-32], 0

; 4294 :         _Mypair._Myval2._Myres  = _BUF_SIZE - 1;

  00066	c7 40 e4 07 00
	00 00		 mov	 DWORD PTR [eax-28], 7
; File C:\Program Files (x86)\Microsoft Visual Studio\2019\Community\VC\Tools\MSVC\14.27.29110\include\xmemory

; 1659 :         for (; _UFirst != _ULast; ++_UFirst) {

  0006d	3b cf		 cmp	 ecx, edi
  0006f	75 af		 jne	 SHORT $LL4@Uninitiali
$LN3@Uninitiali:

; 1503 :         _Destroy_range(_First, _Last, _Al);

  00071	ff 75 14	 push	 DWORD PTR __Al$[ebp]
  00074	56		 push	 esi
  00075	56		 push	 esi
  00076	e8 00 00 00 00	 call	 ??$_Destroy_range@V?$allocator@USHyperlink@CGraphicTextInstance@@@std@@@std@@YAXPAUSHyperlink@CGraphicTextInstance@@QAU12@AAV?$allocator@USHyperlink@CGraphicTextInstance@@@0@@Z ; std::_Destroy_range<std::allocator<CGraphicTextInstance::SHyperlink> >
  0007b	83 c4 0c	 add	 esp, 12			; 0000000cH

; 1660 :             _Backout._Emplace_back(_STD move(*_UFirst));
; 1661 :         }
; 1662 : 
; 1663 :         return _Backout._Release();

  0007e	8b c6		 mov	 eax, esi
  00080	5f		 pop	 edi
  00081	5e		 pop	 esi

; 1664 :     }
; 1665 : }

  00082	5d		 pop	 ebp
  00083	c3		 ret	 0
??$_Uninitialized_move@PAUSHyperlink@CGraphicTextInstance@@V?$allocator@USHyperlink@CGraphicTextInstance@@@std@@@std@@YAPAUSHyperlink@CGraphicTextInstance@@QAU12@0PAU12@AAV?$allocator@USHyperlink@CGraphicTextInstance@@@0@@Z ENDP ; std::_Uninitialized_move<CGraphicTextInstance::SHyperlink *,std::allocator<CGraphicTextInstance::SHyperlink> >
_TEXT	ENDS
; Function compile flags: /Ogtp
; File C:\Program Files (x86)\Microsoft Visual Studio\2019\Community\VC\Tools\MSVC\14.27.29110\include\xmemory
;	COMDAT ??$_Uninitialized_move@PAUSEmoji@CGraphicTextInstance@@V?$allocator@USEmoji@CGraphicTextInstance@@@std@@@std@@YAPAUSEmoji@CGraphicTextInstance@@QAU12@0PAU12@AAV?$allocator@USEmoji@CGraphicTextInstance@@@0@@Z
_TEXT	SEGMENT
__First$ = 8						; size = 4
__Last$ = 12						; size = 4
__Dest$ = 16						; size = 4
__Al$ = 20						; size = 4
??$_Uninitialized_move@PAUSEmoji@CGraphicTextInstance@@V?$allocator@USEmoji@CGraphicTextInstance@@@std@@@std@@YAPAUSEmoji@CGraphicTextInstance@@QAU12@0PAU12@AAV?$allocator@USEmoji@CGraphicTextInstance@@@0@@Z PROC ; std::_Uninitialized_move<CGraphicTextInstance::SEmoji *,std::allocator<CGraphicTextInstance::SEmoji> >, COMDAT

; 1647 :     const _InIt _First, const _InIt _Last, _Alloc_ptr_t<_Alloc> _Dest, _Alloc& _Al) {

  00000	55		 push	 ebp
  00001	8b ec		 mov	 ebp, esp

; 1648 :     // move [_First, _Last) to raw _Dest, using _Al
; 1649 :     // note: only called internally from elsewhere in the STL
; 1650 :     using _Ptrval     = typename _Alloc::value_type*;
; 1651 :     auto _UFirst      = _Get_unwrapped(_First);
; 1652 :     const auto _ULast = _Get_unwrapped(_Last);
; 1653 :     if constexpr (conjunction_v<bool_constant<_Ptr_move_cat<decltype(_UFirst), _Ptrval>::_Really_trivial>,
; 1654 :                       _Uses_default_construct<_Alloc, _Ptrval, decltype(_STD move(*_UFirst))>>) {
; 1655 :         _Copy_memmove(_UFirst, _ULast, _Unfancy(_Dest));
; 1656 :         return _Dest + (_ULast - _UFirst);
; 1657 :     } else {
; 1658 :         _Uninitialized_backout_al<_Alloc> _Backout{_Dest, _Al};
; 1659 :         for (; _UFirst != _ULast; ++_UFirst) {

  00003	8b 4d 08	 mov	 ecx, DWORD PTR __First$[ebp]

; 1497 :     _Uninitialized_backout_al(pointer _Dest, _Alloc& _Al_) : _First(_Dest), _Last(_Dest), _Al(_Al_) {}

  00006	8b 45 10	 mov	 eax, DWORD PTR __Dest$[ebp]

; 1647 :     const _InIt _First, const _InIt _Last, _Alloc_ptr_t<_Alloc> _Dest, _Alloc& _Al) {

  00009	56		 push	 esi

; 1648 :     // move [_First, _Last) to raw _Dest, using _Al
; 1649 :     // note: only called internally from elsewhere in the STL
; 1650 :     using _Ptrval     = typename _Alloc::value_type*;
; 1651 :     auto _UFirst      = _Get_unwrapped(_First);
; 1652 :     const auto _ULast = _Get_unwrapped(_Last);
; 1653 :     if constexpr (conjunction_v<bool_constant<_Ptr_move_cat<decltype(_UFirst), _Ptrval>::_Really_trivial>,
; 1654 :                       _Uses_default_construct<_Alloc, _Ptrval, decltype(_STD move(*_UFirst))>>) {
; 1655 :         _Copy_memmove(_UFirst, _ULast, _Unfancy(_Dest));
; 1656 :         return _Dest + (_ULast - _UFirst);
; 1657 :     } else {
; 1658 :         _Uninitialized_backout_al<_Alloc> _Backout{_Dest, _Al};
; 1659 :         for (; _UFirst != _ULast; ++_UFirst) {

  0000a	8b 75 0c	 mov	 esi, DWORD PTR __Last$[ebp]
  0000d	3b ce		 cmp	 ecx, esi
  0000f	74 14		 je	 SHORT $LN3@Uninitiali
$LL4@Uninitiali:

; 1508 :         allocator_traits<_Alloc>::construct(_Al, _Unfancy(_Last), _STD forward<_Types>(_Vals)...);

  00011	8b 11		 mov	 edx, DWORD PTR [ecx]
  00013	89 10		 mov	 DWORD PTR [eax], edx
  00015	8b 51 04	 mov	 edx, DWORD PTR [ecx+4]

; 1509 :         ++_Last;

  00018	83 c1 08	 add	 ecx, 8
  0001b	89 50 04	 mov	 DWORD PTR [eax+4], edx
  0001e	83 c0 08	 add	 eax, 8

; 1648 :     // move [_First, _Last) to raw _Dest, using _Al
; 1649 :     // note: only called internally from elsewhere in the STL
; 1650 :     using _Ptrval     = typename _Alloc::value_type*;
; 1651 :     auto _UFirst      = _Get_unwrapped(_First);
; 1652 :     const auto _ULast = _Get_unwrapped(_Last);
; 1653 :     if constexpr (conjunction_v<bool_constant<_Ptr_move_cat<decltype(_UFirst), _Ptrval>::_Really_trivial>,
; 1654 :                       _Uses_default_construct<_Alloc, _Ptrval, decltype(_STD move(*_UFirst))>>) {
; 1655 :         _Copy_memmove(_UFirst, _ULast, _Unfancy(_Dest));
; 1656 :         return _Dest + (_ULast - _UFirst);
; 1657 :     } else {
; 1658 :         _Uninitialized_backout_al<_Alloc> _Backout{_Dest, _Al};
; 1659 :         for (; _UFirst != _ULast; ++_UFirst) {

  00021	3b ce		 cmp	 ecx, esi
  00023	75 ec		 jne	 SHORT $LL4@Uninitiali
$LN3@Uninitiali:
  00025	5e		 pop	 esi

; 1660 :             _Backout._Emplace_back(_STD move(*_UFirst));
; 1661 :         }
; 1662 : 
; 1663 :         return _Backout._Release();
; 1664 :     }
; 1665 : }

  00026	5d		 pop	 ebp
  00027	c3		 ret	 0
??$_Uninitialized_move@PAUSEmoji@CGraphicTextInstance@@V?$allocator@USEmoji@CGraphicTextInstance@@@std@@@std@@YAPAUSEmoji@CGraphicTextInstance@@QAU12@0PAU12@AAV?$allocator@USEmoji@CGraphicTextInstance@@@0@@Z ENDP ; std::_Uninitialized_move<CGraphicTextInstance::SEmoji *,std::allocator<CGraphicTextInstance::SEmoji> >
_TEXT	ENDS
; Function compile flags: /Ogtp
; File C:\Program Files (x86)\Microsoft Visual Studio\2019\Community\VC\Tools\MSVC\14.27.29110\include\xutility
;	COMDAT ??$_Copy_memmove@PAPAVCGraphicTextInstance@@PAPAV1@@std@@YAPAPAVCGraphicTextInstance@@PAPAV1@00@Z
_TEXT	SEGMENT
__First$ = 8						; size = 4
__Last$ = 12						; size = 4
__Dest$ = 16						; size = 4
??$_Copy_memmove@PAPAVCGraphicTextInstance@@PAPAV1@@std@@YAPAPAVCGraphicTextInstance@@PAPAV1@00@Z PROC ; std::_Copy_memmove<CGraphicTextInstance * *,CGraphicTextInstance * *>, COMDAT

; 4113 : _OutIt _Copy_memmove(_InIt _First, _InIt _Last, _OutIt _Dest) {

  00000	55		 push	 ebp
  00001	8b ec		 mov	 ebp, esp

; 4114 :     const char* const _First_ch = const_cast<const char*>(reinterpret_cast<const volatile char*>(_First));
; 4115 :     const char* const _Last_ch  = const_cast<const char*>(reinterpret_cast<const volatile char*>(_Last));
; 4116 :     char* const _Dest_ch        = const_cast<char*>(reinterpret_cast<volatile char*>(_Dest));
; 4117 :     const auto _Count           = static_cast<size_t>(_Last_ch - _First_ch);

  00003	8b 45 08	 mov	 eax, DWORD PTR __First$[ebp]
  00006	56		 push	 esi

; 4118 :     _CSTD memmove(_Dest_ch, _First_ch, _Count);

  00007	8b 75 10	 mov	 esi, DWORD PTR __Dest$[ebp]
  0000a	57		 push	 edi
  0000b	8b 7d 0c	 mov	 edi, DWORD PTR __Last$[ebp]
  0000e	2b f8		 sub	 edi, eax
  00010	57		 push	 edi
  00011	50		 push	 eax
  00012	56		 push	 esi
  00013	e8 00 00 00 00	 call	 _memmove
  00018	83 c4 0c	 add	 esp, 12			; 0000000cH

; 4119 :     return reinterpret_cast<_OutIt>(_Dest_ch + _Count);

  0001b	8d 04 37	 lea	 eax, DWORD PTR [edi+esi]
  0001e	5f		 pop	 edi
  0001f	5e		 pop	 esi

; 4120 : }

  00020	5d		 pop	 ebp
  00021	c3		 ret	 0
??$_Copy_memmove@PAPAVCGraphicTextInstance@@PAPAV1@@std@@YAPAPAVCGraphicTextInstance@@PAPAV1@00@Z ENDP ; std::_Copy_memmove<CGraphicTextInstance * *,CGraphicTextInstance * *>
_TEXT	ENDS
; Function compile flags: /Ogtp
; File C:\Program Files (x86)\Microsoft Visual Studio\2019\Community\VC\Tools\MSVC\14.27.29110\include\xmemory
;	COMDAT ??$_Uninitialized_move@PAPAVCGraphicTextInstance@@V?$allocator@PAVCGraphicTextInstance@@@std@@@std@@YAPAPAVCGraphicTextInstance@@QAPAV1@0PAPAV1@AAV?$allocator@PAVCGraphicTextInstance@@@0@@Z
_TEXT	SEGMENT
__First$ = 8						; size = 4
__Last$ = 12						; size = 4
__Dest$ = 16						; size = 4
__Al$ = 20						; size = 4
??$_Uninitialized_move@PAPAVCGraphicTextInstance@@V?$allocator@PAVCGraphicTextInstance@@@std@@@std@@YAPAPAVCGraphicTextInstance@@QAPAV1@0PAPAV1@AAV?$allocator@PAVCGraphicTextInstance@@@0@@Z PROC ; std::_Uninitialized_move<CGraphicTextInstance * *,std::allocator<CGraphicTextInstance *> >, COMDAT

; 1647 :     const _InIt _First, const _InIt _Last, _Alloc_ptr_t<_Alloc> _Dest, _Alloc& _Al) {

  00000	55		 push	 ebp
  00001	8b ec		 mov	 ebp, esp
  00003	53		 push	 ebx

; 1648 :     // move [_First, _Last) to raw _Dest, using _Al
; 1649 :     // note: only called internally from elsewhere in the STL
; 1650 :     using _Ptrval     = typename _Alloc::value_type*;
; 1651 :     auto _UFirst      = _Get_unwrapped(_First);
; 1652 :     const auto _ULast = _Get_unwrapped(_Last);
; 1653 :     if constexpr (conjunction_v<bool_constant<_Ptr_move_cat<decltype(_UFirst), _Ptrval>::_Really_trivial>,
; 1654 :                       _Uses_default_construct<_Alloc, _Ptrval, decltype(_STD move(*_UFirst))>>) {
; 1655 :         _Copy_memmove(_UFirst, _ULast, _Unfancy(_Dest));

  00004	8b 5d 10	 mov	 ebx, DWORD PTR __Dest$[ebp]
  00007	57		 push	 edi
  00008	8b 7d 0c	 mov	 edi, DWORD PTR __Last$[ebp]
  0000b	53		 push	 ebx
  0000c	57		 push	 edi
  0000d	ff 75 08	 push	 DWORD PTR __First$[ebp]
  00010	e8 00 00 00 00	 call	 ??$_Copy_memmove@PAPAVCGraphicTextInstance@@PAPAV1@@std@@YAPAPAVCGraphicTextInstance@@PAPAV1@00@Z ; std::_Copy_memmove<CGraphicTextInstance * *,CGraphicTextInstance * *>

; 1656 :         return _Dest + (_ULast - _UFirst);

  00015	2b 7d 08	 sub	 edi, DWORD PTR __First$[ebp]
  00018	83 c4 0c	 add	 esp, 12			; 0000000cH
  0001b	c1 ff 02	 sar	 edi, 2
  0001e	8d 04 bb	 lea	 eax, DWORD PTR [ebx+edi*4]
  00021	5f		 pop	 edi
  00022	5b		 pop	 ebx

; 1657 :     } else {
; 1658 :         _Uninitialized_backout_al<_Alloc> _Backout{_Dest, _Al};
; 1659 :         for (; _UFirst != _ULast; ++_UFirst) {
; 1660 :             _Backout._Emplace_back(_STD move(*_UFirst));
; 1661 :         }
; 1662 : 
; 1663 :         return _Backout._Release();
; 1664 :     }
; 1665 : }

  00023	5d		 pop	 ebp
  00024	c3		 ret	 0
??$_Uninitialized_move@PAPAVCGraphicTextInstance@@V?$allocator@PAVCGraphicTextInstance@@@std@@@std@@YAPAPAVCGraphicTextInstance@@QAPAV1@0PAPAV1@AAV?$allocator@PAVCGraphicTextInstance@@@0@@Z ENDP ; std::_Uninitialized_move<CGraphicTextInstance * *,std::allocator<CGraphicTextInstance *> >
_TEXT	ENDS
; Function compile flags: /Ogtp
; File C:\Program Files (x86)\Microsoft Visual Studio\2019\Community\VC\Tools\MSVC\14.27.29110\include\xmemory
;	COMDAT ??$_Destroy_range@V?$allocator@PAVCGraphicTextInstance@@@std@@@std@@YAXPAPAVCGraphicTextInstance@@QAPAV1@AAV?$allocator@PAVCGraphicTextInstance@@@0@@Z
_TEXT	SEGMENT
__First$ = 8						; size = 4
__Last$ = 12						; size = 4
__Al$ = 16						; size = 4
??$_Destroy_range@V?$allocator@PAVCGraphicTextInstance@@@std@@@std@@YAXPAPAVCGraphicTextInstance@@QAPAV1@AAV?$allocator@PAVCGraphicTextInstance@@@0@@Z PROC ; std::_Destroy_range<std::allocator<CGraphicTextInstance *> >, COMDAT

; 956  :     // note that this is an optimization for debug mode codegen; in release mode the BE removes all of this
; 957  :     using _Ty = typename _Alloc::value_type;
; 958  :     if _CONSTEXPR_IF (!conjunction_v<is_trivially_destructible<_Ty>, _Uses_default_destroy<_Alloc, _Ty*>>) {
; 959  :         for (; _First != _Last; ++_First) {
; 960  :             allocator_traits<_Alloc>::destroy(_Al, _Unfancy(_First));
; 961  :         }
; 962  :     }
; 963  : }

  00000	c2 00 00	 ret	 0
??$_Destroy_range@V?$allocator@PAVCGraphicTextInstance@@@std@@@std@@YAXPAPAVCGraphicTextInstance@@QAPAV1@AAV?$allocator@PAVCGraphicTextInstance@@@0@@Z ENDP ; std::_Destroy_range<std::allocator<CGraphicTextInstance *> >
_TEXT	ENDS
; Function compile flags: /Ogtp
; File C:\Program Files (x86)\Microsoft Visual Studio\2019\Community\VC\Tools\MSVC\14.27.29110\include\xmemory
;	COMDAT ??$_Pocca@V?$allocator@_W@std@@@std@@YAXAAV?$allocator@_W@0@ABV10@@Z
_TEXT	SEGMENT
__Left$ = 8						; size = 4
__Right$ = 12						; size = 4
??$_Pocca@V?$allocator@_W@std@@@std@@YAXAAV?$allocator@_W@0@ABV10@@Z PROC ; std::_Pocca<std::allocator<wchar_t> >, COMDAT

; 879  :     if constexpr (allocator_traits<_Alloc>::propagate_on_container_copy_assignment::value) {
; 880  :         _Left = _Right;
; 881  :     }
; 882  : }

  00000	c2 00 00	 ret	 0
??$_Pocca@V?$allocator@_W@std@@@std@@YAXAAV?$allocator@_W@0@ABV10@@Z ENDP ; std::_Pocca<std::allocator<wchar_t> >
_TEXT	ENDS
; Function compile flags: /Ogtp
; File C:\Program Files (x86)\Microsoft Visual Studio\2019\Community\VC\Tools\MSVC\14.27.29110\include\xmemory
;	COMDAT ??$_Destroy_range@V?$allocator@PAUSCharacterInfomation@CGraphicFontTexture@@@std@@@std@@YAXPAPAUSCharacterInfomation@CGraphicFontTexture@@QAPAU12@AAV?$allocator@PAUSCharacterInfomation@CGraphicFontTexture@@@0@@Z
_TEXT	SEGMENT
__First$ = 8						; size = 4
__Last$ = 12						; size = 4
__Al$ = 16						; size = 4
??$_Destroy_range@V?$allocator@PAUSCharacterInfomation@CGraphicFontTexture@@@std@@@std@@YAXPAPAUSCharacterInfomation@CGraphicFontTexture@@QAPAU12@AAV?$allocator@PAUSCharacterInfomation@CGraphicFontTexture@@@0@@Z PROC ; std::_Destroy_range<std::allocator<CGraphicFontTexture::SCharacterInfomation *> >, COMDAT

; 956  :     // note that this is an optimization for debug mode codegen; in release mode the BE removes all of this
; 957  :     using _Ty = typename _Alloc::value_type;
; 958  :     if _CONSTEXPR_IF (!conjunction_v<is_trivially_destructible<_Ty>, _Uses_default_destroy<_Alloc, _Ty*>>) {
; 959  :         for (; _First != _Last; ++_First) {
; 960  :             allocator_traits<_Alloc>::destroy(_Al, _Unfancy(_First));
; 961  :         }
; 962  :     }
; 963  : }

  00000	c2 00 00	 ret	 0
??$_Destroy_range@V?$allocator@PAUSCharacterInfomation@CGraphicFontTexture@@@std@@@std@@YAXPAPAUSCharacterInfomation@CGraphicFontTexture@@QAPAU12@AAV?$allocator@PAUSCharacterInfomation@CGraphicFontTexture@@@0@@Z ENDP ; std::_Destroy_range<std::allocator<CGraphicFontTexture::SCharacterInfomation *> >
_TEXT	ENDS
; Function compile flags: /Ogtp
; File C:\Program Files (x86)\Microsoft Visual Studio\2019\Community\VC\Tools\MSVC\14.27.29110\include\xmemory
;	COMDAT ??$_Destroy_range@V?$allocator@K@std@@@std@@YAXPAKQAKAAV?$allocator@K@0@@Z
_TEXT	SEGMENT
__First$ = 8						; size = 4
__Last$ = 12						; size = 4
__Al$ = 16						; size = 4
??$_Destroy_range@V?$allocator@K@std@@@std@@YAXPAKQAKAAV?$allocator@K@0@@Z PROC ; std::_Destroy_range<std::allocator<unsigned long> >, COMDAT

; 956  :     // note that this is an optimization for debug mode codegen; in release mode the BE removes all of this
; 957  :     using _Ty = typename _Alloc::value_type;
; 958  :     if _CONSTEXPR_IF (!conjunction_v<is_trivially_destructible<_Ty>, _Uses_default_destroy<_Alloc, _Ty*>>) {
; 959  :         for (; _First != _Last; ++_First) {
; 960  :             allocator_traits<_Alloc>::destroy(_Al, _Unfancy(_First));
; 961  :         }
; 962  :     }
; 963  : }

  00000	c2 00 00	 ret	 0
??$_Destroy_range@V?$allocator@K@std@@@std@@YAXPAKQAKAAV?$allocator@K@0@@Z ENDP ; std::_Destroy_range<std::allocator<unsigned long> >
_TEXT	ENDS
; Function compile flags: /Ogtp
; File C:\Program Files (x86)\Microsoft Visual Studio\2019\Community\VC\Tools\MSVC\14.27.29110\include\xmemory
; File C:\Program Files (x86)\Microsoft Visual Studio\2019\Community\VC\Tools\MSVC\14.27.29110\include\xstring
; File C:\Program Files (x86)\Microsoft Visual Studio\2019\Community\VC\Tools\MSVC\14.27.29110\include\xmemory
; File C:\Program Files (x86)\Microsoft Visual Studio\2019\Community\VC\Tools\MSVC\14.27.29110\include\xstring
; File C:\Program Files (x86)\Microsoft Visual Studio\2019\Community\VC\Tools\MSVC\14.27.29110\include\xmemory
;	COMDAT ??$_Destroy_range@V?$allocator@USHyperlink@CGraphicTextInstance@@@std@@@std@@YAXPAUSHyperlink@CGraphicTextInstance@@QAU12@AAV?$allocator@USHyperlink@CGraphicTextInstance@@@0@@Z
_TEXT	SEGMENT
__First$ = 8						; size = 4
__Last$ = 12						; size = 4
__Al$ = 16						; size = 4
??$_Destroy_range@V?$allocator@USHyperlink@CGraphicTextInstance@@@std@@@std@@YAXPAUSHyperlink@CGraphicTextInstance@@QAU12@AAV?$allocator@USHyperlink@CGraphicTextInstance@@@0@@Z PROC ; std::_Destroy_range<std::allocator<CGraphicTextInstance::SHyperlink> >, COMDAT

; 955  : void _Destroy_range(_Alloc_ptr_t<_Alloc> _First, const _Alloc_ptr_t<_Alloc> _Last, _Alloc& _Al) noexcept {

  00000	55		 push	 ebp
  00001	8b ec		 mov	 ebp, esp
  00003	56		 push	 esi

; 959  :         for (; _First != _Last; ++_First) {

  00004	8b 75 08	 mov	 esi, DWORD PTR __First$[ebp]
  00007	57		 push	 edi
  00008	8b 7d 0c	 mov	 edi, DWORD PTR __Last$[ebp]
  0000b	3b f7		 cmp	 esi, edi
  0000d	74 3a		 je	 SHORT $LN3@Destroy_ra
  0000f	83 c6 18	 add	 esi, 24			; 00000018H
$LL4@Destroy_ra:
; File C:\Program Files (x86)\Microsoft Visual Studio\2019\Community\VC\Tools\MSVC\14.27.29110\include\xstring

; 2153 :         return _BUF_SIZE <= _Myres;

  00012	8b 06		 mov	 eax, DWORD PTR [esi]
  00014	83 f8 08	 cmp	 eax, 8

; 4301 :         if (_Mypair._Myval2._Large_string_engaged()) {

  00017	72 13		 jb	 SHORT $LN18@Destroy_ra
; File C:\Program Files (x86)\Microsoft Visual Studio\2019\Community\VC\Tools\MSVC\14.27.29110\include\xmemory

; 803  :         _Deallocate<_New_alignof<_Ty>>(_Ptr, sizeof(_Ty) * _Count);

  00019	8d 04 45 02 00
	00 00		 lea	 eax, DWORD PTR [eax*2+2]
  00020	50		 push	 eax
  00021	ff 76 ec	 push	 DWORD PTR [esi-20]
  00024	e8 00 00 00 00	 call	 ??$_Deallocate@$07$0A@@std@@YAXPAXI@Z ; std::_Deallocate<8,0>
  00029	83 c4 08	 add	 esp, 8
$LN18@Destroy_ra:
; File C:\Program Files (x86)\Microsoft Visual Studio\2019\Community\VC\Tools\MSVC\14.27.29110\include\xstring

; 4311 :         _Traits::assign(_Mypair._Myval2._Bx._Buf[0], _Elem());

  0002c	33 c0		 xor	 eax, eax
  0002e	c7 46 fc 00 00
	00 00		 mov	 DWORD PTR [esi-4], 0
  00035	66 89 46 ec	 mov	 WORD PTR [esi-20], ax
  00039	c7 06 07 00 00
	00		 mov	 DWORD PTR [esi], 7
; File C:\Program Files (x86)\Microsoft Visual Studio\2019\Community\VC\Tools\MSVC\14.27.29110\include\xmemory

; 959  :         for (; _First != _Last; ++_First) {

  0003f	83 c6 1c	 add	 esi, 28			; 0000001cH
  00042	8d 46 e8	 lea	 eax, DWORD PTR [esi-24]
  00045	3b c7		 cmp	 eax, edi
  00047	75 c9		 jne	 SHORT $LL4@Destroy_ra
$LN3@Destroy_ra:
  00049	5f		 pop	 edi

; 960  :             allocator_traits<_Alloc>::destroy(_Al, _Unfancy(_First));
; 961  :         }
; 962  :     }
; 963  : }

  0004a	5e		 pop	 esi
  0004b	5d		 pop	 ebp
  0004c	c3		 ret	 0
??$_Destroy_range@V?$allocator@USHyperlink@CGraphicTextInstance@@@std@@@std@@YAXPAUSHyperlink@CGraphicTextInstance@@QAU12@AAV?$allocator@USHyperlink@CGraphicTextInstance@@@0@@Z ENDP ; std::_Destroy_range<std::allocator<CGraphicTextInstance::SHyperlink> >
_TEXT	ENDS
; Function compile flags: /Ogtp
; File C:\Program Files (x86)\Microsoft Visual Studio\2019\Community\VC\Tools\MSVC\14.27.29110\include\xmemory
;	COMDAT ??$_Destroy_range@V?$allocator@USEmoji@CGraphicTextInstance@@@std@@@std@@YAXPAUSEmoji@CGraphicTextInstance@@QAU12@AAV?$allocator@USEmoji@CGraphicTextInstance@@@0@@Z
_TEXT	SEGMENT
__First$ = 8						; size = 4
__Last$ = 12						; size = 4
__Al$ = 16						; size = 4
??$_Destroy_range@V?$allocator@USEmoji@CGraphicTextInstance@@@std@@@std@@YAXPAUSEmoji@CGraphicTextInstance@@QAU12@AAV?$allocator@USEmoji@CGraphicTextInstance@@@0@@Z PROC ; std::_Destroy_range<std::allocator<CGraphicTextInstance::SEmoji> >, COMDAT

; 956  :     // note that this is an optimization for debug mode codegen; in release mode the BE removes all of this
; 957  :     using _Ty = typename _Alloc::value_type;
; 958  :     if _CONSTEXPR_IF (!conjunction_v<is_trivially_destructible<_Ty>, _Uses_default_destroy<_Alloc, _Ty*>>) {
; 959  :         for (; _First != _Last; ++_First) {
; 960  :             allocator_traits<_Alloc>::destroy(_Al, _Unfancy(_First));
; 961  :         }
; 962  :     }
; 963  : }

  00000	c2 00 00	 ret	 0
??$_Destroy_range@V?$allocator@USEmoji@CGraphicTextInstance@@@std@@@std@@YAXPAUSEmoji@CGraphicTextInstance@@QAU12@AAV?$allocator@USEmoji@CGraphicTextInstance@@@0@@Z ENDP ; std::_Destroy_range<std::allocator<CGraphicTextInstance::SEmoji> >
_TEXT	ENDS
; Function compile flags: /Ogtp
; File C:\Program Files (x86)\Microsoft Visual Studio\2019\Community\VC\Tools\MSVC\14.27.29110\include\vector
; File C:\Program Files (x86)\Microsoft Visual Studio\2019\Community\VC\Tools\MSVC\14.27.29110\include\xmemory
; File C:\Program Files (x86)\Microsoft Visual Studio\2019\Community\VC\Tools\MSVC\14.27.29110\include\vector
; File C:\Program Files (x86)\Microsoft Visual Studio\2019\Community\VC\Tools\MSVC\14.27.29110\include\xmemory
; File C:\Program Files (x86)\Microsoft Visual Studio\2019\Community\VC\Tools\MSVC\14.27.29110\include\vector
; File C:\Program Files (x86)\Microsoft Visual Studio\2019\Community\VC\Tools\MSVC\14.27.29110\include\xmemory
; File C:\Program Files (x86)\Microsoft Visual Studio\2019\Community\VC\Tools\MSVC\14.27.29110\include\vector
; File C:\Program Files (x86)\Microsoft Visual Studio\2019\Community\VC\Tools\MSVC\14.27.29110\include\xmemory
; File C:\Program Files (x86)\Microsoft Visual Studio\2019\Community\VC\Tools\MSVC\14.27.29110\include\vector
; File C:\Program Files (x86)\Microsoft Visual Studio\2019\Community\VC\Tools\MSVC\14.27.29110\include\xmemory
; File C:\Program Files (x86)\Microsoft Visual Studio\2019\Community\VC\Tools\MSVC\14.27.29110\include\vector
;	COMDAT ??$_Emplace_reallocate@ABQAVCGraphicTextInstance@@@?$vector@PAVCGraphicTextInstance@@V?$allocator@PAVCGraphicTextInstance@@@std@@@std@@QAEPAPAVCGraphicTextInstance@@QAPAV2@ABQAV2@@Z
_TEXT	SEGMENT
tv436 = -12						; size = 4
__Newsize$1$ = -8					; size = 4
tv435 = -4						; size = 4
__Whereptr$ = 8						; size = 4
_<_Val_0>$ = 12						; size = 4
??$_Emplace_reallocate@ABQAVCGraphicTextInstance@@@?$vector@PAVCGraphicTextInstance@@V?$allocator@PAVCGraphicTextInstance@@@std@@@std@@QAEPAPAVCGraphicTextInstance@@QAPAV2@ABQAV2@@Z PROC ; std::vector<CGraphicTextInstance *,std::allocator<CGraphicTextInstance *> >::_Emplace_reallocate<CGraphicTextInstance * const &>, COMDAT
; _this$ = ecx

; 725  :     pointer _Emplace_reallocate(const pointer _Whereptr, _Valty&&... _Val) {

  00000	55		 push	 ebp
  00001	8b ec		 mov	 ebp, esp
  00003	83 ec 0c	 sub	 esp, 12			; 0000000cH
  00006	53		 push	 ebx

; 726  :         // reallocate and insert by perfectly forwarding _Val at _Whereptr
; 727  :         _Alty& _Al        = _Getal();
; 728  :         auto& _My_data    = _Mypair._Myval2;
; 729  :         pointer& _Myfirst = _My_data._Myfirst;
; 730  :         pointer& _Mylast  = _My_data._Mylast;
; 731  : 
; 732  :         _STL_INTERNAL_CHECK(_Mylast == _My_data._Myend); // check that we have no unused capacity
; 733  : 
; 734  :         const auto _Whereoff = static_cast<size_type>(_Whereptr - _Myfirst);

  00007	8b 5d 08	 mov	 ebx, DWORD PTR __Whereptr$[ebp]
  0000a	56		 push	 esi
  0000b	8b f1		 mov	 esi, ecx
  0000d	57		 push	 edi
  0000e	8b 16		 mov	 edx, DWORD PTR [esi]
  00010	2b da		 sub	 ebx, edx

; 735  :         const auto _Oldsize  = static_cast<size_type>(_Mylast - _Myfirst);

  00012	8b 46 04	 mov	 eax, DWORD PTR [esi+4]
  00015	2b c2		 sub	 eax, edx
  00017	c1 fb 02	 sar	 ebx, 2
  0001a	c1 f8 02	 sar	 eax, 2

; 736  : 
; 737  :         if (_Oldsize == max_size()) {

  0001d	3d ff ff ff 3f	 cmp	 eax, 1073741823		; 3fffffffH
  00022	0f 84 be 00 00
	00		 je	 $LN39@Emplace_re

; 1494 :         return static_cast<size_type>(_My_data._Myend - _My_data._Myfirst);

  00028	8b 4e 08	 mov	 ecx, DWORD PTR [esi+8]

; 739  :         }
; 740  : 
; 741  :         const size_type _Newsize     = _Oldsize + 1;

  0002b	8d 78 01	 lea	 edi, DWORD PTR [eax+1]

; 1494 :         return static_cast<size_type>(_My_data._Myend - _My_data._Myfirst);

  0002e	2b ca		 sub	 ecx, edx

; 739  :         }
; 740  : 
; 741  :         const size_type _Newsize     = _Oldsize + 1;

  00030	89 7d f8	 mov	 DWORD PTR __Newsize$1$[ebp], edi

; 1494 :         return static_cast<size_type>(_My_data._Myend - _My_data._Myfirst);

  00033	c1 f9 02	 sar	 ecx, 2

; 1619 :         if (_Oldcapacity > max_size() - _Oldcapacity / 2) {

  00036	b8 ff ff ff 3f	 mov	 eax, 1073741823		; 3fffffffH
  0003b	8b d1		 mov	 edx, ecx
  0003d	d1 ea		 shr	 edx, 1
  0003f	2b c2		 sub	 eax, edx
  00041	3b c8		 cmp	 ecx, eax
  00043	76 04		 jbe	 SHORT $LN12@Emplace_re

; 1620 :             return _Newsize; // geometric growth would overflow

  00045	8b c7		 mov	 eax, edi
  00047	eb 08		 jmp	 SHORT $LN13@Emplace_re
$LN12@Emplace_re:

; 1621 :         }
; 1622 : 
; 1623 :         const size_type _Geometric = _Oldcapacity + _Oldcapacity / 2;

  00049	8d 04 0a	 lea	 eax, DWORD PTR [edx+ecx]

; 1624 : 
; 1625 :         if (_Geometric < _Newsize) {

  0004c	3b c7		 cmp	 eax, edi
  0004e	0f 42 c7	 cmovb	 eax, edi
$LN13@Emplace_re:
; File C:\Program Files (x86)\Microsoft Visual Studio\2019\Community\VC\Tools\MSVC\14.27.29110\include\xmemory

; 60   :         if (_Count > _Max_possible) {

  00051	3d ff ff ff 3f	 cmp	 eax, 1073741823		; 3fffffffH
  00056	0f 87 8f 00 00
	00		 ja	 $LN40@Emplace_re

; 62   :         }
; 63   :     }
; 64   : 
; 65   :     return _Count * _Ty_size;

  0005c	c1 e0 02	 shl	 eax, 2

; 807  :         return static_cast<_Ty*>(_Allocate<_New_alignof<_Ty>>(_Get_size_of_n<sizeof(_Ty)>(_Count)));

  0005f	50		 push	 eax

; 65   :     return _Count * _Ty_size;

  00060	89 45 f4	 mov	 DWORD PTR tv436[ebp], eax

; 807  :         return static_cast<_Ty*>(_Allocate<_New_alignof<_Ty>>(_Get_size_of_n<sizeof(_Ty)>(_Count)));

  00063	e8 00 00 00 00	 call	 ??$_Allocate@$07U_Default_allocate_traits@std@@$0A@@std@@YAPAXI@Z ; std::_Allocate<8,std::_Default_allocate_traits,0>
; File C:\Program Files (x86)\Microsoft Visual Studio\2019\Community\VC\Tools\MSVC\14.27.29110\include\vector

; 749  :         _Alty_traits::construct(_Al, _Unfancy(_Newvec + _Whereoff), _STD forward<_Valty>(_Val)...);

  00068	8b 4d 0c	 mov	 ecx, DWORD PTR _<_Val_0>$[ebp]
; File C:\Program Files (x86)\Microsoft Visual Studio\2019\Community\VC\Tools\MSVC\14.27.29110\include\xmemory

; 807  :         return static_cast<_Ty*>(_Allocate<_New_alignof<_Ty>>(_Get_size_of_n<sizeof(_Ty)>(_Count)));

  0006b	8b f8		 mov	 edi, eax
; File C:\Program Files (x86)\Microsoft Visual Studio\2019\Community\VC\Tools\MSVC\14.27.29110\include\vector

; 749  :         _Alty_traits::construct(_Al, _Unfancy(_Newvec + _Whereoff), _STD forward<_Valty>(_Val)...);

  0006d	8d 04 9f	 lea	 eax, DWORD PTR [edi+ebx*4]
; File C:\Program Files (x86)\Microsoft Visual Studio\2019\Community\VC\Tools\MSVC\14.27.29110\include\xmemory

; 807  :         return static_cast<_Ty*>(_Allocate<_New_alignof<_Ty>>(_Get_size_of_n<sizeof(_Ty)>(_Count)));

  00070	83 c4 04	 add	 esp, 4
; File C:\Program Files (x86)\Microsoft Visual Studio\2019\Community\VC\Tools\MSVC\14.27.29110\include\vector

; 752  :         if (_Whereptr == _Mylast) { // at back, provide strong guarantee

  00073	8b 5d 08	 mov	 ebx, DWORD PTR __Whereptr$[ebp]
  00076	89 45 fc	 mov	 DWORD PTR tv435[ebp], eax
  00079	8b 09		 mov	 ecx, DWORD PTR [ecx]
  0007b	89 08		 mov	 DWORD PTR [eax], ecx
  0007d	8b 56 04	 mov	 edx, DWORD PTR [esi+4]
  00080	8b 0e		 mov	 ecx, DWORD PTR [esi]
  00082	3b da		 cmp	 ebx, edx
  00084	75 07		 jne	 SHORT $LN4@Emplace_re

; 753  :             _Umove_if_noexcept(_Myfirst, _Mylast, _Newvec);
; 754  :         } else { // provide basic guarantee

  00086	8b 5d fc	 mov	 ebx, DWORD PTR tv435[ebp]

; 1597 :         _Uninitialized_move(_First, _Last, _Dest, _Getal());

  00089	8b c7		 mov	 eax, edi

; 753  :             _Umove_if_noexcept(_Myfirst, _Mylast, _Newvec);
; 754  :         } else { // provide basic guarantee

  0008b	eb 17		 jmp	 SHORT $LN5@Emplace_re
$LN4@Emplace_re:

; 1592 :         return _Uninitialized_move(_First, _Last, _Dest, _Getal());

  0008d	56		 push	 esi
  0008e	57		 push	 edi
  0008f	53		 push	 ebx
  00090	51		 push	 ecx
  00091	e8 00 00 00 00	 call	 ??$_Uninitialized_move@PAPAVCGraphicTextInstance@@V?$allocator@PAVCGraphicTextInstance@@@std@@@std@@YAPAPAVCGraphicTextInstance@@QAPAV1@0PAPAV1@AAV?$allocator@PAVCGraphicTextInstance@@@0@@Z ; std::_Uninitialized_move<CGraphicTextInstance * *,std::allocator<CGraphicTextInstance *> >
  00096	8b 56 04	 mov	 edx, DWORD PTR [esi+4]
  00099	8b cb		 mov	 ecx, ebx

; 755  :             _Umove(_Myfirst, _Whereptr, _Newvec);
; 756  :             _Constructed_first = _Newvec;
; 757  :             _Umove(_Whereptr, _Mylast, _Newvec + _Whereoff + 1);

  0009b	8b 5d fc	 mov	 ebx, DWORD PTR tv435[ebp]

; 1592 :         return _Uninitialized_move(_First, _Last, _Dest, _Getal());

  0009e	83 c4 10	 add	 esp, 16			; 00000010H

; 755  :             _Umove(_Myfirst, _Whereptr, _Newvec);
; 756  :             _Constructed_first = _Newvec;
; 757  :             _Umove(_Whereptr, _Mylast, _Newvec + _Whereoff + 1);

  000a1	8d 43 04	 lea	 eax, DWORD PTR [ebx+4]
$LN5@Emplace_re:
  000a4	56		 push	 esi
  000a5	50		 push	 eax
  000a6	52		 push	 edx
  000a7	51		 push	 ecx
  000a8	e8 00 00 00 00	 call	 ??$_Uninitialized_move@PAPAVCGraphicTextInstance@@V?$allocator@PAVCGraphicTextInstance@@@std@@@std@@YAPAPAVCGraphicTextInstance@@QAPAV1@0PAPAV1@AAV?$allocator@PAVCGraphicTextInstance@@@0@@Z ; std::_Uninitialized_move<CGraphicTextInstance * *,std::allocator<CGraphicTextInstance *> >

; 1675 :         if (_Myfirst) { // destroy and deallocate old array

  000ad	8b 0e		 mov	 ecx, DWORD PTR [esi]

; 755  :             _Umove(_Myfirst, _Whereptr, _Newvec);
; 756  :             _Constructed_first = _Newvec;
; 757  :             _Umove(_Whereptr, _Mylast, _Newvec + _Whereoff + 1);

  000af	83 c4 10	 add	 esp, 16			; 00000010H

; 1675 :         if (_Myfirst) { // destroy and deallocate old array

  000b2	85 c9		 test	 ecx, ecx
  000b4	74 12		 je	 SHORT $LN33@Emplace_re

; 1676 :             _Destroy(_Myfirst, _Mylast);
; 1677 :             _Getal().deallocate(_Myfirst, static_cast<size_type>(_Myend - _Myfirst));

  000b6	8b 46 08	 mov	 eax, DWORD PTR [esi+8]
  000b9	2b c1		 sub	 eax, ecx
; File C:\Program Files (x86)\Microsoft Visual Studio\2019\Community\VC\Tools\MSVC\14.27.29110\include\xmemory

; 803  :         _Deallocate<_New_alignof<_Ty>>(_Ptr, sizeof(_Ty) * _Count);

  000bb	83 e0 fc	 and	 eax, -4			; fffffffcH
  000be	50		 push	 eax
  000bf	51		 push	 ecx
  000c0	e8 00 00 00 00	 call	 ??$_Deallocate@$07$0A@@std@@YAXPAXI@Z ; std::_Deallocate<8,0>
  000c5	83 c4 08	 add	 esp, 8
$LN33@Emplace_re:
; File C:\Program Files (x86)\Microsoft Visual Studio\2019\Community\VC\Tools\MSVC\14.27.29110\include\vector

; 1681 :         _Mylast  = _Newvec + _Newsize;

  000c8	8b 4d f8	 mov	 ecx, DWORD PTR __Newsize$1$[ebp]

; 758  :         }
; 759  :         _CATCH_ALL
; 760  :         _Destroy(_Constructed_first, _Constructed_last);
; 761  :         _Al.deallocate(_Newvec, _Newcapacity);
; 762  :         _RERAISE;
; 763  :         _CATCH_END
; 764  : 
; 765  :         _Change_array(_Newvec, _Newsize, _Newcapacity);
; 766  :         return _Newvec + _Whereoff;

  000cb	8b c3		 mov	 eax, ebx

; 1680 :         _Myfirst = _Newvec;

  000cd	89 3e		 mov	 DWORD PTR [esi], edi

; 1681 :         _Mylast  = _Newvec + _Newsize;

  000cf	8d 0c 8f	 lea	 ecx, DWORD PTR [edi+ecx*4]
  000d2	89 4e 04	 mov	 DWORD PTR [esi+4], ecx

; 1682 :         _Myend   = _Newvec + _Newcapacity;

  000d5	8b 4d f4	 mov	 ecx, DWORD PTR tv436[ebp]
  000d8	03 cf		 add	 ecx, edi

; 758  :         }
; 759  :         _CATCH_ALL
; 760  :         _Destroy(_Constructed_first, _Constructed_last);
; 761  :         _Al.deallocate(_Newvec, _Newcapacity);
; 762  :         _RERAISE;
; 763  :         _CATCH_END
; 764  : 
; 765  :         _Change_array(_Newvec, _Newsize, _Newcapacity);
; 766  :         return _Newvec + _Whereoff;

  000da	5f		 pop	 edi

; 1682 :         _Myend   = _Newvec + _Newcapacity;

  000db	89 4e 08	 mov	 DWORD PTR [esi+8], ecx

; 758  :         }
; 759  :         _CATCH_ALL
; 760  :         _Destroy(_Constructed_first, _Constructed_last);
; 761  :         _Al.deallocate(_Newvec, _Newcapacity);
; 762  :         _RERAISE;
; 763  :         _CATCH_END
; 764  : 
; 765  :         _Change_array(_Newvec, _Newsize, _Newcapacity);
; 766  :         return _Newvec + _Whereoff;

  000de	5e		 pop	 esi
  000df	5b		 pop	 ebx

; 767  :     }

  000e0	8b e5		 mov	 esp, ebp
  000e2	5d		 pop	 ebp
  000e3	c2 08 00	 ret	 8
$LN39@Emplace_re:

; 738  :             _Xlength();

  000e6	e8 00 00 00 00	 call	 ?_Xlength@?$vector@PAVCGraphicTextInstance@@V?$allocator@PAVCGraphicTextInstance@@@std@@@std@@CAXXZ ; std::vector<CGraphicTextInstance *,std::allocator<CGraphicTextInstance *> >::_Xlength
$LN40@Emplace_re:
; File C:\Program Files (x86)\Microsoft Visual Studio\2019\Community\VC\Tools\MSVC\14.27.29110\include\xmemory

; 61   :             _Throw_bad_array_new_length(); // multiply overflow

  000eb	e8 00 00 00 00	 call	 ?_Throw_bad_array_new_length@std@@YAXXZ ; std::_Throw_bad_array_new_length
$LN37@Emplace_re:
  000f0	cc		 int	 3
??$_Emplace_reallocate@ABQAVCGraphicTextInstance@@@?$vector@PAVCGraphicTextInstance@@V?$allocator@PAVCGraphicTextInstance@@@std@@@std@@QAEPAPAVCGraphicTextInstance@@QAPAV2@ABQAV2@@Z ENDP ; std::vector<CGraphicTextInstance *,std::allocator<CGraphicTextInstance *> >::_Emplace_reallocate<CGraphicTextInstance * const &>
_TEXT	ENDS
; Function compile flags: /Ogtp
; File C:\Program Files (x86)\Microsoft Visual Studio\2019\Community\VC\Tools\MSVC\14.27.29110\include\vector
; File C:\Program Files (x86)\Microsoft Visual Studio\2019\Community\VC\Tools\MSVC\14.27.29110\include\xmemory
; File C:\Program Files (x86)\Microsoft Visual Studio\2019\Community\VC\Tools\MSVC\14.27.29110\include\vector
; File C:\Program Files (x86)\Microsoft Visual Studio\2019\Community\VC\Tools\MSVC\14.27.29110\include\xmemory
; File C:\Program Files (x86)\Microsoft Visual Studio\2019\Community\VC\Tools\MSVC\14.27.29110\include\vector
; File C:\Program Files (x86)\Microsoft Visual Studio\2019\Community\VC\Tools\MSVC\14.27.29110\include\xmemory
; File C:\Program Files (x86)\Microsoft Visual Studio\2019\Community\VC\Tools\MSVC\14.27.29110\include\vector
; File C:\Program Files (x86)\Microsoft Visual Studio\2019\Community\VC\Tools\MSVC\14.27.29110\include\xmemory
; File C:\Program Files (x86)\Microsoft Visual Studio\2019\Community\VC\Tools\MSVC\14.27.29110\include\vector
; File C:\Program Files (x86)\Microsoft Visual Studio\2019\Community\VC\Tools\MSVC\14.27.29110\include\xmemory
; File C:\Program Files (x86)\Microsoft Visual Studio\2019\Community\VC\Tools\MSVC\14.27.29110\include\vector
;	COMDAT ??$_Emplace_reallocate@ABQAUSCharacterInfomation@CGraphicFontTexture@@@?$vector@PAUSCharacterInfomation@CGraphicFontTexture@@V?$allocator@PAUSCharacterInfomation@CGraphicFontTexture@@@std@@@std@@QAEPAPAUSCharacterInfomation@CGraphicFontTexture@@QAPAU23@ABQAU23@@Z
_TEXT	SEGMENT
tv436 = -12						; size = 4
__Newsize$1$ = -8					; size = 4
tv435 = -4						; size = 4
__Whereptr$ = 8						; size = 4
_<_Val_0>$ = 12						; size = 4
??$_Emplace_reallocate@ABQAUSCharacterInfomation@CGraphicFontTexture@@@?$vector@PAUSCharacterInfomation@CGraphicFontTexture@@V?$allocator@PAUSCharacterInfomation@CGraphicFontTexture@@@std@@@std@@QAEPAPAUSCharacterInfomation@CGraphicFontTexture@@QAPAU23@ABQAU23@@Z PROC ; std::vector<CGraphicFontTexture::SCharacterInfomation *,std::allocator<CGraphicFontTexture::SCharacterInfomation *> >::_Emplace_reallocate<CGraphicFontTexture::SCharacterInfomation * const &>, COMDAT
; _this$ = ecx

; 725  :     pointer _Emplace_reallocate(const pointer _Whereptr, _Valty&&... _Val) {

  00000	55		 push	 ebp
  00001	8b ec		 mov	 ebp, esp
  00003	83 ec 0c	 sub	 esp, 12			; 0000000cH
  00006	53		 push	 ebx

; 726  :         // reallocate and insert by perfectly forwarding _Val at _Whereptr
; 727  :         _Alty& _Al        = _Getal();
; 728  :         auto& _My_data    = _Mypair._Myval2;
; 729  :         pointer& _Myfirst = _My_data._Myfirst;
; 730  :         pointer& _Mylast  = _My_data._Mylast;
; 731  : 
; 732  :         _STL_INTERNAL_CHECK(_Mylast == _My_data._Myend); // check that we have no unused capacity
; 733  : 
; 734  :         const auto _Whereoff = static_cast<size_type>(_Whereptr - _Myfirst);

  00007	8b 5d 08	 mov	 ebx, DWORD PTR __Whereptr$[ebp]
  0000a	56		 push	 esi
  0000b	8b f1		 mov	 esi, ecx
  0000d	57		 push	 edi
  0000e	8b 16		 mov	 edx, DWORD PTR [esi]
  00010	2b da		 sub	 ebx, edx

; 735  :         const auto _Oldsize  = static_cast<size_type>(_Mylast - _Myfirst);

  00012	8b 46 04	 mov	 eax, DWORD PTR [esi+4]
  00015	2b c2		 sub	 eax, edx
  00017	c1 fb 02	 sar	 ebx, 2
  0001a	c1 f8 02	 sar	 eax, 2

; 736  : 
; 737  :         if (_Oldsize == max_size()) {

  0001d	3d ff ff ff 3f	 cmp	 eax, 1073741823		; 3fffffffH
  00022	0f 84 be 00 00
	00		 je	 $LN39@Emplace_re

; 1494 :         return static_cast<size_type>(_My_data._Myend - _My_data._Myfirst);

  00028	8b 4e 08	 mov	 ecx, DWORD PTR [esi+8]

; 739  :         }
; 740  : 
; 741  :         const size_type _Newsize     = _Oldsize + 1;

  0002b	8d 78 01	 lea	 edi, DWORD PTR [eax+1]

; 1494 :         return static_cast<size_type>(_My_data._Myend - _My_data._Myfirst);

  0002e	2b ca		 sub	 ecx, edx

; 739  :         }
; 740  : 
; 741  :         const size_type _Newsize     = _Oldsize + 1;

  00030	89 7d f8	 mov	 DWORD PTR __Newsize$1$[ebp], edi

; 1494 :         return static_cast<size_type>(_My_data._Myend - _My_data._Myfirst);

  00033	c1 f9 02	 sar	 ecx, 2

; 1619 :         if (_Oldcapacity > max_size() - _Oldcapacity / 2) {

  00036	b8 ff ff ff 3f	 mov	 eax, 1073741823		; 3fffffffH
  0003b	8b d1		 mov	 edx, ecx
  0003d	d1 ea		 shr	 edx, 1
  0003f	2b c2		 sub	 eax, edx
  00041	3b c8		 cmp	 ecx, eax
  00043	76 04		 jbe	 SHORT $LN12@Emplace_re

; 1620 :             return _Newsize; // geometric growth would overflow

  00045	8b c7		 mov	 eax, edi
  00047	eb 08		 jmp	 SHORT $LN13@Emplace_re
$LN12@Emplace_re:

; 1621 :         }
; 1622 : 
; 1623 :         const size_type _Geometric = _Oldcapacity + _Oldcapacity / 2;

  00049	8d 04 0a	 lea	 eax, DWORD PTR [edx+ecx]

; 1624 : 
; 1625 :         if (_Geometric < _Newsize) {

  0004c	3b c7		 cmp	 eax, edi
  0004e	0f 42 c7	 cmovb	 eax, edi
$LN13@Emplace_re:
; File C:\Program Files (x86)\Microsoft Visual Studio\2019\Community\VC\Tools\MSVC\14.27.29110\include\xmemory

; 60   :         if (_Count > _Max_possible) {

  00051	3d ff ff ff 3f	 cmp	 eax, 1073741823		; 3fffffffH
  00056	0f 87 8f 00 00
	00		 ja	 $LN40@Emplace_re

; 62   :         }
; 63   :     }
; 64   : 
; 65   :     return _Count * _Ty_size;

  0005c	c1 e0 02	 shl	 eax, 2

; 807  :         return static_cast<_Ty*>(_Allocate<_New_alignof<_Ty>>(_Get_size_of_n<sizeof(_Ty)>(_Count)));

  0005f	50		 push	 eax

; 65   :     return _Count * _Ty_size;

  00060	89 45 f4	 mov	 DWORD PTR tv436[ebp], eax

; 807  :         return static_cast<_Ty*>(_Allocate<_New_alignof<_Ty>>(_Get_size_of_n<sizeof(_Ty)>(_Count)));

  00063	e8 00 00 00 00	 call	 ??$_Allocate@$07U_Default_allocate_traits@std@@$0A@@std@@YAPAXI@Z ; std::_Allocate<8,std::_Default_allocate_traits,0>
; File C:\Program Files (x86)\Microsoft Visual Studio\2019\Community\VC\Tools\MSVC\14.27.29110\include\vector

; 749  :         _Alty_traits::construct(_Al, _Unfancy(_Newvec + _Whereoff), _STD forward<_Valty>(_Val)...);

  00068	8b 4d 0c	 mov	 ecx, DWORD PTR _<_Val_0>$[ebp]
; File C:\Program Files (x86)\Microsoft Visual Studio\2019\Community\VC\Tools\MSVC\14.27.29110\include\xmemory

; 807  :         return static_cast<_Ty*>(_Allocate<_New_alignof<_Ty>>(_Get_size_of_n<sizeof(_Ty)>(_Count)));

  0006b	8b f8		 mov	 edi, eax
; File C:\Program Files (x86)\Microsoft Visual Studio\2019\Community\VC\Tools\MSVC\14.27.29110\include\vector

; 749  :         _Alty_traits::construct(_Al, _Unfancy(_Newvec + _Whereoff), _STD forward<_Valty>(_Val)...);

  0006d	8d 04 9f	 lea	 eax, DWORD PTR [edi+ebx*4]
; File C:\Program Files (x86)\Microsoft Visual Studio\2019\Community\VC\Tools\MSVC\14.27.29110\include\xmemory

; 807  :         return static_cast<_Ty*>(_Allocate<_New_alignof<_Ty>>(_Get_size_of_n<sizeof(_Ty)>(_Count)));

  00070	83 c4 04	 add	 esp, 4
; File C:\Program Files (x86)\Microsoft Visual Studio\2019\Community\VC\Tools\MSVC\14.27.29110\include\vector

; 752  :         if (_Whereptr == _Mylast) { // at back, provide strong guarantee

  00073	8b 5d 08	 mov	 ebx, DWORD PTR __Whereptr$[ebp]
  00076	89 45 fc	 mov	 DWORD PTR tv435[ebp], eax
  00079	8b 09		 mov	 ecx, DWORD PTR [ecx]
  0007b	89 08		 mov	 DWORD PTR [eax], ecx
  0007d	8b 56 04	 mov	 edx, DWORD PTR [esi+4]
  00080	8b 0e		 mov	 ecx, DWORD PTR [esi]
  00082	3b da		 cmp	 ebx, edx
  00084	75 07		 jne	 SHORT $LN4@Emplace_re

; 753  :             _Umove_if_noexcept(_Myfirst, _Mylast, _Newvec);
; 754  :         } else { // provide basic guarantee

  00086	8b 5d fc	 mov	 ebx, DWORD PTR tv435[ebp]

; 1597 :         _Uninitialized_move(_First, _Last, _Dest, _Getal());

  00089	8b c7		 mov	 eax, edi

; 753  :             _Umove_if_noexcept(_Myfirst, _Mylast, _Newvec);
; 754  :         } else { // provide basic guarantee

  0008b	eb 17		 jmp	 SHORT $LN5@Emplace_re
$LN4@Emplace_re:

; 1592 :         return _Uninitialized_move(_First, _Last, _Dest, _Getal());

  0008d	56		 push	 esi
  0008e	57		 push	 edi
  0008f	53		 push	 ebx
  00090	51		 push	 ecx
  00091	e8 00 00 00 00	 call	 ??$_Uninitialized_move@PAPAUSCharacterInfomation@CGraphicFontTexture@@V?$allocator@PAUSCharacterInfomation@CGraphicFontTexture@@@std@@@std@@YAPAPAUSCharacterInfomation@CGraphicFontTexture@@QAPAU12@0PAPAU12@AAV?$allocator@PAUSCharacterInfomation@CGraphicFontTexture@@@0@@Z ; std::_Uninitialized_move<CGraphicFontTexture::SCharacterInfomation * *,std::allocator<CGraphicFontTexture::SCharacterInfomation *> >
  00096	8b 56 04	 mov	 edx, DWORD PTR [esi+4]
  00099	8b cb		 mov	 ecx, ebx

; 755  :             _Umove(_Myfirst, _Whereptr, _Newvec);
; 756  :             _Constructed_first = _Newvec;
; 757  :             _Umove(_Whereptr, _Mylast, _Newvec + _Whereoff + 1);

  0009b	8b 5d fc	 mov	 ebx, DWORD PTR tv435[ebp]

; 1592 :         return _Uninitialized_move(_First, _Last, _Dest, _Getal());

  0009e	83 c4 10	 add	 esp, 16			; 00000010H

; 755  :             _Umove(_Myfirst, _Whereptr, _Newvec);
; 756  :             _Constructed_first = _Newvec;
; 757  :             _Umove(_Whereptr, _Mylast, _Newvec + _Whereoff + 1);

  000a1	8d 43 04	 lea	 eax, DWORD PTR [ebx+4]
$LN5@Emplace_re:
  000a4	56		 push	 esi
  000a5	50		 push	 eax
  000a6	52		 push	 edx
  000a7	51		 push	 ecx
  000a8	e8 00 00 00 00	 call	 ??$_Uninitialized_move@PAPAUSCharacterInfomation@CGraphicFontTexture@@V?$allocator@PAUSCharacterInfomation@CGraphicFontTexture@@@std@@@std@@YAPAPAUSCharacterInfomation@CGraphicFontTexture@@QAPAU12@0PAPAU12@AAV?$allocator@PAUSCharacterInfomation@CGraphicFontTexture@@@0@@Z ; std::_Uninitialized_move<CGraphicFontTexture::SCharacterInfomation * *,std::allocator<CGraphicFontTexture::SCharacterInfomation *> >

; 1675 :         if (_Myfirst) { // destroy and deallocate old array

  000ad	8b 0e		 mov	 ecx, DWORD PTR [esi]

; 755  :             _Umove(_Myfirst, _Whereptr, _Newvec);
; 756  :             _Constructed_first = _Newvec;
; 757  :             _Umove(_Whereptr, _Mylast, _Newvec + _Whereoff + 1);

  000af	83 c4 10	 add	 esp, 16			; 00000010H

; 1675 :         if (_Myfirst) { // destroy and deallocate old array

  000b2	85 c9		 test	 ecx, ecx
  000b4	74 12		 je	 SHORT $LN33@Emplace_re

; 1676 :             _Destroy(_Myfirst, _Mylast);
; 1677 :             _Getal().deallocate(_Myfirst, static_cast<size_type>(_Myend - _Myfirst));

  000b6	8b 46 08	 mov	 eax, DWORD PTR [esi+8]
  000b9	2b c1		 sub	 eax, ecx
; File C:\Program Files (x86)\Microsoft Visual Studio\2019\Community\VC\Tools\MSVC\14.27.29110\include\xmemory

; 803  :         _Deallocate<_New_alignof<_Ty>>(_Ptr, sizeof(_Ty) * _Count);

  000bb	83 e0 fc	 and	 eax, -4			; fffffffcH
  000be	50		 push	 eax
  000bf	51		 push	 ecx
  000c0	e8 00 00 00 00	 call	 ??$_Deallocate@$07$0A@@std@@YAXPAXI@Z ; std::_Deallocate<8,0>
  000c5	83 c4 08	 add	 esp, 8
$LN33@Emplace_re:
; File C:\Program Files (x86)\Microsoft Visual Studio\2019\Community\VC\Tools\MSVC\14.27.29110\include\vector

; 1681 :         _Mylast  = _Newvec + _Newsize;

  000c8	8b 4d f8	 mov	 ecx, DWORD PTR __Newsize$1$[ebp]

; 758  :         }
; 759  :         _CATCH_ALL
; 760  :         _Destroy(_Constructed_first, _Constructed_last);
; 761  :         _Al.deallocate(_Newvec, _Newcapacity);
; 762  :         _RERAISE;
; 763  :         _CATCH_END
; 764  : 
; 765  :         _Change_array(_Newvec, _Newsize, _Newcapacity);
; 766  :         return _Newvec + _Whereoff;

  000cb	8b c3		 mov	 eax, ebx

; 1680 :         _Myfirst = _Newvec;

  000cd	89 3e		 mov	 DWORD PTR [esi], edi

; 1681 :         _Mylast  = _Newvec + _Newsize;

  000cf	8d 0c 8f	 lea	 ecx, DWORD PTR [edi+ecx*4]
  000d2	89 4e 04	 mov	 DWORD PTR [esi+4], ecx

; 1682 :         _Myend   = _Newvec + _Newcapacity;

  000d5	8b 4d f4	 mov	 ecx, DWORD PTR tv436[ebp]
  000d8	03 cf		 add	 ecx, edi

; 758  :         }
; 759  :         _CATCH_ALL
; 760  :         _Destroy(_Constructed_first, _Constructed_last);
; 761  :         _Al.deallocate(_Newvec, _Newcapacity);
; 762  :         _RERAISE;
; 763  :         _CATCH_END
; 764  : 
; 765  :         _Change_array(_Newvec, _Newsize, _Newcapacity);
; 766  :         return _Newvec + _Whereoff;

  000da	5f		 pop	 edi

; 1682 :         _Myend   = _Newvec + _Newcapacity;

  000db	89 4e 08	 mov	 DWORD PTR [esi+8], ecx

; 758  :         }
; 759  :         _CATCH_ALL
; 760  :         _Destroy(_Constructed_first, _Constructed_last);
; 761  :         _Al.deallocate(_Newvec, _Newcapacity);
; 762  :         _RERAISE;
; 763  :         _CATCH_END
; 764  : 
; 765  :         _Change_array(_Newvec, _Newsize, _Newcapacity);
; 766  :         return _Newvec + _Whereoff;

  000de	5e		 pop	 esi
  000df	5b		 pop	 ebx

; 767  :     }

  000e0	8b e5		 mov	 esp, ebp
  000e2	5d		 pop	 ebp
  000e3	c2 08 00	 ret	 8
$LN39@Emplace_re:

; 738  :             _Xlength();

  000e6	e8 00 00 00 00	 call	 ?_Xlength@?$vector@PAUSCharacterInfomation@CGraphicFontTexture@@V?$allocator@PAUSCharacterInfomation@CGraphicFontTexture@@@std@@@std@@CAXXZ ; std::vector<CGraphicFontTexture::SCharacterInfomation *,std::allocator<CGraphicFontTexture::SCharacterInfomation *> >::_Xlength
$LN40@Emplace_re:
; File C:\Program Files (x86)\Microsoft Visual Studio\2019\Community\VC\Tools\MSVC\14.27.29110\include\xmemory

; 61   :             _Throw_bad_array_new_length(); // multiply overflow

  000eb	e8 00 00 00 00	 call	 ?_Throw_bad_array_new_length@std@@YAXXZ ; std::_Throw_bad_array_new_length
$LN37@Emplace_re:
  000f0	cc		 int	 3
??$_Emplace_reallocate@ABQAUSCharacterInfomation@CGraphicFontTexture@@@?$vector@PAUSCharacterInfomation@CGraphicFontTexture@@V?$allocator@PAUSCharacterInfomation@CGraphicFontTexture@@@std@@@std@@QAEPAPAUSCharacterInfomation@CGraphicFontTexture@@QAPAU23@ABQAU23@@Z ENDP ; std::vector<CGraphicFontTexture::SCharacterInfomation *,std::allocator<CGraphicFontTexture::SCharacterInfomation *> >::_Emplace_reallocate<CGraphicFontTexture::SCharacterInfomation * const &>
_TEXT	ENDS
; Function compile flags: /Ogtp
; File C:\Program Files (x86)\Microsoft Visual Studio\2019\Community\VC\Tools\MSVC\14.27.29110\include\vector
; File C:\Program Files (x86)\Microsoft Visual Studio\2019\Community\VC\Tools\MSVC\14.27.29110\include\xmemory
; File C:\Program Files (x86)\Microsoft Visual Studio\2019\Community\VC\Tools\MSVC\14.27.29110\include\vector
; File C:\Program Files (x86)\Microsoft Visual Studio\2019\Community\VC\Tools\MSVC\14.27.29110\include\xmemory
; File C:\Program Files (x86)\Microsoft Visual Studio\2019\Community\VC\Tools\MSVC\14.27.29110\include\vector
; File C:\Program Files (x86)\Microsoft Visual Studio\2019\Community\VC\Tools\MSVC\14.27.29110\include\xmemory
; File C:\Program Files (x86)\Microsoft Visual Studio\2019\Community\VC\Tools\MSVC\14.27.29110\include\vector
; File C:\Program Files (x86)\Microsoft Visual Studio\2019\Community\VC\Tools\MSVC\14.27.29110\include\xmemory
; File C:\Program Files (x86)\Microsoft Visual Studio\2019\Community\VC\Tools\MSVC\14.27.29110\include\vector
; File C:\Program Files (x86)\Microsoft Visual Studio\2019\Community\VC\Tools\MSVC\14.27.29110\include\xmemory
; File C:\Program Files (x86)\Microsoft Visual Studio\2019\Community\VC\Tools\MSVC\14.27.29110\include\vector
;	COMDAT ??$_Emplace_reallocate@ABK@?$vector@KV?$allocator@K@std@@@std@@QAEPAKQAKABK@Z
_TEXT	SEGMENT
tv436 = -12						; size = 4
__Newsize$1$ = -8					; size = 4
tv435 = -4						; size = 4
__Whereptr$ = 8						; size = 4
_<_Val_0>$ = 12						; size = 4
??$_Emplace_reallocate@ABK@?$vector@KV?$allocator@K@std@@@std@@QAEPAKQAKABK@Z PROC ; std::vector<unsigned long,std::allocator<unsigned long> >::_Emplace_reallocate<unsigned long const &>, COMDAT
; _this$ = ecx

; 725  :     pointer _Emplace_reallocate(const pointer _Whereptr, _Valty&&... _Val) {

  00000	55		 push	 ebp
  00001	8b ec		 mov	 ebp, esp
  00003	83 ec 0c	 sub	 esp, 12			; 0000000cH
  00006	53		 push	 ebx

; 726  :         // reallocate and insert by perfectly forwarding _Val at _Whereptr
; 727  :         _Alty& _Al        = _Getal();
; 728  :         auto& _My_data    = _Mypair._Myval2;
; 729  :         pointer& _Myfirst = _My_data._Myfirst;
; 730  :         pointer& _Mylast  = _My_data._Mylast;
; 731  : 
; 732  :         _STL_INTERNAL_CHECK(_Mylast == _My_data._Myend); // check that we have no unused capacity
; 733  : 
; 734  :         const auto _Whereoff = static_cast<size_type>(_Whereptr - _Myfirst);

  00007	8b 5d 08	 mov	 ebx, DWORD PTR __Whereptr$[ebp]
  0000a	56		 push	 esi
  0000b	8b f1		 mov	 esi, ecx
  0000d	57		 push	 edi
  0000e	8b 16		 mov	 edx, DWORD PTR [esi]
  00010	2b da		 sub	 ebx, edx

; 735  :         const auto _Oldsize  = static_cast<size_type>(_Mylast - _Myfirst);

  00012	8b 46 04	 mov	 eax, DWORD PTR [esi+4]
  00015	2b c2		 sub	 eax, edx
  00017	c1 fb 02	 sar	 ebx, 2
  0001a	c1 f8 02	 sar	 eax, 2

; 736  : 
; 737  :         if (_Oldsize == max_size()) {

  0001d	3d ff ff ff 3f	 cmp	 eax, 1073741823		; 3fffffffH
  00022	0f 84 be 00 00
	00		 je	 $LN39@Emplace_re

; 1494 :         return static_cast<size_type>(_My_data._Myend - _My_data._Myfirst);

  00028	8b 4e 08	 mov	 ecx, DWORD PTR [esi+8]

; 739  :         }
; 740  : 
; 741  :         const size_type _Newsize     = _Oldsize + 1;

  0002b	8d 78 01	 lea	 edi, DWORD PTR [eax+1]

; 1494 :         return static_cast<size_type>(_My_data._Myend - _My_data._Myfirst);

  0002e	2b ca		 sub	 ecx, edx

; 739  :         }
; 740  : 
; 741  :         const size_type _Newsize     = _Oldsize + 1;

  00030	89 7d f8	 mov	 DWORD PTR __Newsize$1$[ebp], edi

; 1494 :         return static_cast<size_type>(_My_data._Myend - _My_data._Myfirst);

  00033	c1 f9 02	 sar	 ecx, 2

; 1619 :         if (_Oldcapacity > max_size() - _Oldcapacity / 2) {

  00036	b8 ff ff ff 3f	 mov	 eax, 1073741823		; 3fffffffH
  0003b	8b d1		 mov	 edx, ecx
  0003d	d1 ea		 shr	 edx, 1
  0003f	2b c2		 sub	 eax, edx
  00041	3b c8		 cmp	 ecx, eax
  00043	76 04		 jbe	 SHORT $LN12@Emplace_re

; 1620 :             return _Newsize; // geometric growth would overflow

  00045	8b c7		 mov	 eax, edi
  00047	eb 08		 jmp	 SHORT $LN13@Emplace_re
$LN12@Emplace_re:

; 1621 :         }
; 1622 : 
; 1623 :         const size_type _Geometric = _Oldcapacity + _Oldcapacity / 2;

  00049	8d 04 0a	 lea	 eax, DWORD PTR [edx+ecx]

; 1624 : 
; 1625 :         if (_Geometric < _Newsize) {

  0004c	3b c7		 cmp	 eax, edi
  0004e	0f 42 c7	 cmovb	 eax, edi
$LN13@Emplace_re:
; File C:\Program Files (x86)\Microsoft Visual Studio\2019\Community\VC\Tools\MSVC\14.27.29110\include\xmemory

; 60   :         if (_Count > _Max_possible) {

  00051	3d ff ff ff 3f	 cmp	 eax, 1073741823		; 3fffffffH
  00056	0f 87 8f 00 00
	00		 ja	 $LN40@Emplace_re

; 62   :         }
; 63   :     }
; 64   : 
; 65   :     return _Count * _Ty_size;

  0005c	c1 e0 02	 shl	 eax, 2

; 807  :         return static_cast<_Ty*>(_Allocate<_New_alignof<_Ty>>(_Get_size_of_n<sizeof(_Ty)>(_Count)));

  0005f	50		 push	 eax

; 65   :     return _Count * _Ty_size;

  00060	89 45 f4	 mov	 DWORD PTR tv436[ebp], eax

; 807  :         return static_cast<_Ty*>(_Allocate<_New_alignof<_Ty>>(_Get_size_of_n<sizeof(_Ty)>(_Count)));

  00063	e8 00 00 00 00	 call	 ??$_Allocate@$07U_Default_allocate_traits@std@@$0A@@std@@YAPAXI@Z ; std::_Allocate<8,std::_Default_allocate_traits,0>
; File C:\Program Files (x86)\Microsoft Visual Studio\2019\Community\VC\Tools\MSVC\14.27.29110\include\vector

; 749  :         _Alty_traits::construct(_Al, _Unfancy(_Newvec + _Whereoff), _STD forward<_Valty>(_Val)...);

  00068	8b 4d 0c	 mov	 ecx, DWORD PTR _<_Val_0>$[ebp]
; File C:\Program Files (x86)\Microsoft Visual Studio\2019\Community\VC\Tools\MSVC\14.27.29110\include\xmemory

; 807  :         return static_cast<_Ty*>(_Allocate<_New_alignof<_Ty>>(_Get_size_of_n<sizeof(_Ty)>(_Count)));

  0006b	8b f8		 mov	 edi, eax
; File C:\Program Files (x86)\Microsoft Visual Studio\2019\Community\VC\Tools\MSVC\14.27.29110\include\vector

; 749  :         _Alty_traits::construct(_Al, _Unfancy(_Newvec + _Whereoff), _STD forward<_Valty>(_Val)...);

  0006d	8d 04 9f	 lea	 eax, DWORD PTR [edi+ebx*4]
; File C:\Program Files (x86)\Microsoft Visual Studio\2019\Community\VC\Tools\MSVC\14.27.29110\include\xmemory

; 807  :         return static_cast<_Ty*>(_Allocate<_New_alignof<_Ty>>(_Get_size_of_n<sizeof(_Ty)>(_Count)));

  00070	83 c4 04	 add	 esp, 4
; File C:\Program Files (x86)\Microsoft Visual Studio\2019\Community\VC\Tools\MSVC\14.27.29110\include\vector

; 752  :         if (_Whereptr == _Mylast) { // at back, provide strong guarantee

  00073	8b 5d 08	 mov	 ebx, DWORD PTR __Whereptr$[ebp]
  00076	89 45 fc	 mov	 DWORD PTR tv435[ebp], eax
  00079	8b 09		 mov	 ecx, DWORD PTR [ecx]
  0007b	89 08		 mov	 DWORD PTR [eax], ecx
  0007d	8b 56 04	 mov	 edx, DWORD PTR [esi+4]
  00080	8b 0e		 mov	 ecx, DWORD PTR [esi]
  00082	3b da		 cmp	 ebx, edx
  00084	75 07		 jne	 SHORT $LN4@Emplace_re

; 753  :             _Umove_if_noexcept(_Myfirst, _Mylast, _Newvec);
; 754  :         } else { // provide basic guarantee

  00086	8b 5d fc	 mov	 ebx, DWORD PTR tv435[ebp]

; 1597 :         _Uninitialized_move(_First, _Last, _Dest, _Getal());

  00089	8b c7		 mov	 eax, edi

; 753  :             _Umove_if_noexcept(_Myfirst, _Mylast, _Newvec);
; 754  :         } else { // provide basic guarantee

  0008b	eb 17		 jmp	 SHORT $LN5@Emplace_re
$LN4@Emplace_re:

; 1592 :         return _Uninitialized_move(_First, _Last, _Dest, _Getal());

  0008d	56		 push	 esi
  0008e	57		 push	 edi
  0008f	53		 push	 ebx
  00090	51		 push	 ecx
  00091	e8 00 00 00 00	 call	 ??$_Uninitialized_move@PAKV?$allocator@K@std@@@std@@YAPAKQAK0PAKAAV?$allocator@K@0@@Z ; std::_Uninitialized_move<unsigned long *,std::allocator<unsigned long> >
  00096	8b 56 04	 mov	 edx, DWORD PTR [esi+4]
  00099	8b cb		 mov	 ecx, ebx

; 755  :             _Umove(_Myfirst, _Whereptr, _Newvec);
; 756  :             _Constructed_first = _Newvec;
; 757  :             _Umove(_Whereptr, _Mylast, _Newvec + _Whereoff + 1);

  0009b	8b 5d fc	 mov	 ebx, DWORD PTR tv435[ebp]

; 1592 :         return _Uninitialized_move(_First, _Last, _Dest, _Getal());

  0009e	83 c4 10	 add	 esp, 16			; 00000010H

; 755  :             _Umove(_Myfirst, _Whereptr, _Newvec);
; 756  :             _Constructed_first = _Newvec;
; 757  :             _Umove(_Whereptr, _Mylast, _Newvec + _Whereoff + 1);

  000a1	8d 43 04	 lea	 eax, DWORD PTR [ebx+4]
$LN5@Emplace_re:
  000a4	56		 push	 esi
  000a5	50		 push	 eax
  000a6	52		 push	 edx
  000a7	51		 push	 ecx
  000a8	e8 00 00 00 00	 call	 ??$_Uninitialized_move@PAKV?$allocator@K@std@@@std@@YAPAKQAK0PAKAAV?$allocator@K@0@@Z ; std::_Uninitialized_move<unsigned long *,std::allocator<unsigned long> >

; 1675 :         if (_Myfirst) { // destroy and deallocate old array

  000ad	8b 0e		 mov	 ecx, DWORD PTR [esi]

; 755  :             _Umove(_Myfirst, _Whereptr, _Newvec);
; 756  :             _Constructed_first = _Newvec;
; 757  :             _Umove(_Whereptr, _Mylast, _Newvec + _Whereoff + 1);

  000af	83 c4 10	 add	 esp, 16			; 00000010H

; 1675 :         if (_Myfirst) { // destroy and deallocate old array

  000b2	85 c9		 test	 ecx, ecx
  000b4	74 12		 je	 SHORT $LN33@Emplace_re

; 1676 :             _Destroy(_Myfirst, _Mylast);
; 1677 :             _Getal().deallocate(_Myfirst, static_cast<size_type>(_Myend - _Myfirst));

  000b6	8b 46 08	 mov	 eax, DWORD PTR [esi+8]
  000b9	2b c1		 sub	 eax, ecx
; File C:\Program Files (x86)\Microsoft Visual Studio\2019\Community\VC\Tools\MSVC\14.27.29110\include\xmemory

; 803  :         _Deallocate<_New_alignof<_Ty>>(_Ptr, sizeof(_Ty) * _Count);

  000bb	83 e0 fc	 and	 eax, -4			; fffffffcH
  000be	50		 push	 eax
  000bf	51		 push	 ecx
  000c0	e8 00 00 00 00	 call	 ??$_Deallocate@$07$0A@@std@@YAXPAXI@Z ; std::_Deallocate<8,0>
  000c5	83 c4 08	 add	 esp, 8
$LN33@Emplace_re:
; File C:\Program Files (x86)\Microsoft Visual Studio\2019\Community\VC\Tools\MSVC\14.27.29110\include\vector

; 1681 :         _Mylast  = _Newvec + _Newsize;

  000c8	8b 4d f8	 mov	 ecx, DWORD PTR __Newsize$1$[ebp]

; 758  :         }
; 759  :         _CATCH_ALL
; 760  :         _Destroy(_Constructed_first, _Constructed_last);
; 761  :         _Al.deallocate(_Newvec, _Newcapacity);
; 762  :         _RERAISE;
; 763  :         _CATCH_END
; 764  : 
; 765  :         _Change_array(_Newvec, _Newsize, _Newcapacity);
; 766  :         return _Newvec + _Whereoff;

  000cb	8b c3		 mov	 eax, ebx

; 1680 :         _Myfirst = _Newvec;

  000cd	89 3e		 mov	 DWORD PTR [esi], edi

; 1681 :         _Mylast  = _Newvec + _Newsize;

  000cf	8d 0c 8f	 lea	 ecx, DWORD PTR [edi+ecx*4]
  000d2	89 4e 04	 mov	 DWORD PTR [esi+4], ecx

; 1682 :         _Myend   = _Newvec + _Newcapacity;

  000d5	8b 4d f4	 mov	 ecx, DWORD PTR tv436[ebp]
  000d8	03 cf		 add	 ecx, edi

; 758  :         }
; 759  :         _CATCH_ALL
; 760  :         _Destroy(_Constructed_first, _Constructed_last);
; 761  :         _Al.deallocate(_Newvec, _Newcapacity);
; 762  :         _RERAISE;
; 763  :         _CATCH_END
; 764  : 
; 765  :         _Change_array(_Newvec, _Newsize, _Newcapacity);
; 766  :         return _Newvec + _Whereoff;

  000da	5f		 pop	 edi

; 1682 :         _Myend   = _Newvec + _Newcapacity;

  000db	89 4e 08	 mov	 DWORD PTR [esi+8], ecx

; 758  :         }
; 759  :         _CATCH_ALL
; 760  :         _Destroy(_Constructed_first, _Constructed_last);
; 761  :         _Al.deallocate(_Newvec, _Newcapacity);
; 762  :         _RERAISE;
; 763  :         _CATCH_END
; 764  : 
; 765  :         _Change_array(_Newvec, _Newsize, _Newcapacity);
; 766  :         return _Newvec + _Whereoff;

  000de	5e		 pop	 esi
  000df	5b		 pop	 ebx

; 767  :     }

  000e0	8b e5		 mov	 esp, ebp
  000e2	5d		 pop	 ebp
  000e3	c2 08 00	 ret	 8
$LN39@Emplace_re:

; 738  :             _Xlength();

  000e6	e8 00 00 00 00	 call	 ?_Xlength@?$vector@KV?$allocator@K@std@@@std@@CAXXZ ; std::vector<unsigned long,std::allocator<unsigned long> >::_Xlength
$LN40@Emplace_re:
; File C:\Program Files (x86)\Microsoft Visual Studio\2019\Community\VC\Tools\MSVC\14.27.29110\include\xmemory

; 61   :             _Throw_bad_array_new_length(); // multiply overflow

  000eb	e8 00 00 00 00	 call	 ?_Throw_bad_array_new_length@std@@YAXXZ ; std::_Throw_bad_array_new_length
$LN37@Emplace_re:
  000f0	cc		 int	 3
??$_Emplace_reallocate@ABK@?$vector@KV?$allocator@K@std@@@std@@QAEPAKQAKABK@Z ENDP ; std::vector<unsigned long,std::allocator<unsigned long> >::_Emplace_reallocate<unsigned long const &>
_TEXT	ENDS
; Function compile flags: /Ogtp
; File C:\Program Files (x86)\Microsoft Visual Studio\2019\Community\VC\Tools\MSVC\14.27.29110\include\vector
; File C:\Program Files (x86)\Microsoft Visual Studio\2019\Community\VC\Tools\MSVC\14.27.29110\include\xmemory
; File C:\Program Files (x86)\Microsoft Visual Studio\2019\Community\VC\Tools\MSVC\14.27.29110\include\vector
; File C:\Program Files (x86)\Microsoft Visual Studio\2019\Community\VC\Tools\MSVC\14.27.29110\include\xmemory
; File C:\Program Files (x86)\Microsoft Visual Studio\2019\Community\VC\Tools\MSVC\14.27.29110\include\vector
; File C:\Program Files (x86)\Microsoft Visual Studio\2019\Community\VC\Tools\MSVC\14.27.29110\include\xmemory
; File C:\Program Files (x86)\Microsoft Visual Studio\2019\Community\VC\Tools\MSVC\14.27.29110\include\vector
; File C:\Program Files (x86)\Microsoft Visual Studio\2019\Community\VC\Tools\MSVC\14.27.29110\include\xmemory
; File C:\Program Files (x86)\Microsoft Visual Studio\2019\Community\VC\Tools\MSVC\14.27.29110\include\vector
; File C:\Program Files (x86)\Microsoft Visual Studio\2019\Community\VC\Tools\MSVC\14.27.29110\include\xmemory
; File C:\Program Files (x86)\Microsoft Visual Studio\2019\Community\VC\Tools\MSVC\14.27.29110\include\vector
;	COMDAT ??$_Emplace_reallocate@ABUSHyperlink@CGraphicTextInstance@@@?$vector@USHyperlink@CGraphicTextInstance@@V?$allocator@USHyperlink@CGraphicTextInstance@@@std@@@std@@QAEPAUSHyperlink@CGraphicTextInstance@@QAU23@ABU23@@Z
_TEXT	SEGMENT
__Newvec$ = -44						; size = 4
_this$ = -40						; size = 4
tv379 = -36						; size = 4
tv380 = -32						; size = 4
__Newsize$1$ = -28					; size = 4
__Newcapacity$ = -24					; size = 4
__Whereoff$1$ = -20					; size = 4
__Constructed_last$ = -20				; size = 4
__$EHRec$ = -16						; size = 16
__Whereptr$ = 8						; size = 4
_<_Val_0>$ = 12						; size = 4
??$_Emplace_reallocate@ABUSHyperlink@CGraphicTextInstance@@@?$vector@USHyperlink@CGraphicTextInstance@@V?$allocator@USHyperlink@CGraphicTextInstance@@@std@@@std@@QAEPAUSHyperlink@CGraphicTextInstance@@QAU23@ABU23@@Z PROC ; std::vector<CGraphicTextInstance::SHyperlink,std::allocator<CGraphicTextInstance::SHyperlink> >::_Emplace_reallocate<CGraphicTextInstance::SHyperlink const &>, COMDAT
; _this$ = ecx

; 725  :     pointer _Emplace_reallocate(const pointer _Whereptr, _Valty&&... _Val) {

  00000	55		 push	 ebp
  00001	8b ec		 mov	 ebp, esp
  00003	6a ff		 push	 -1
  00005	68 00 00 00 00	 push	 __ehhandler$??$_Emplace_reallocate@ABUSHyperlink@CGraphicTextInstance@@@?$vector@USHyperlink@CGraphicTextInstance@@V?$allocator@USHyperlink@CGraphicTextInstance@@@std@@@std@@QAEPAUSHyperlink@CGraphicTextInstance@@QAU23@ABU23@@Z
  0000a	64 a1 00 00 00
	00		 mov	 eax, DWORD PTR fs:0
  00010	50		 push	 eax
  00011	83 ec 20	 sub	 esp, 32			; 00000020H
  00014	53		 push	 ebx
  00015	56		 push	 esi
  00016	57		 push	 edi
  00017	a1 00 00 00 00	 mov	 eax, DWORD PTR ___security_cookie
  0001c	33 c5		 xor	 eax, ebp
  0001e	50		 push	 eax
  0001f	8d 45 f4	 lea	 eax, DWORD PTR __$EHRec$[ebp+4]
  00022	64 a3 00 00 00
	00		 mov	 DWORD PTR fs:0, eax
  00028	89 65 f0	 mov	 DWORD PTR __$EHRec$[ebp], esp
  0002b	8b f9		 mov	 edi, ecx
  0002d	89 7d d8	 mov	 DWORD PTR _this$[ebp], edi

; 726  :         // reallocate and insert by perfectly forwarding _Val at _Whereptr
; 727  :         _Alty& _Al        = _Getal();
; 728  :         auto& _My_data    = _Mypair._Myval2;
; 729  :         pointer& _Myfirst = _My_data._Myfirst;
; 730  :         pointer& _Mylast  = _My_data._Mylast;
; 731  : 
; 732  :         _STL_INTERNAL_CHECK(_Mylast == _My_data._Myend); // check that we have no unused capacity
; 733  : 
; 734  :         const auto _Whereoff = static_cast<size_type>(_Whereptr - _Myfirst);

  00030	8b 1f		 mov	 ebx, DWORD PTR [edi]
  00032	b8 93 24 49 92	 mov	 eax, -1840700269	; 92492493H
  00037	8b 75 08	 mov	 esi, DWORD PTR __Whereptr$[ebp]

; 735  :         const auto _Oldsize  = static_cast<size_type>(_Mylast - _Myfirst);

  0003a	8b 4f 04	 mov	 ecx, DWORD PTR [edi+4]
  0003d	2b f3		 sub	 esi, ebx
  0003f	f7 ee		 imul	 esi
  00041	2b cb		 sub	 ecx, ebx
  00043	03 d6		 add	 edx, esi
  00045	c1 fa 04	 sar	 edx, 4
  00048	8b c2		 mov	 eax, edx
  0004a	c1 e8 1f	 shr	 eax, 31			; 0000001fH
  0004d	03 c2		 add	 eax, edx
  0004f	89 45 ec	 mov	 DWORD PTR __Whereoff$1$[ebp], eax
  00052	b8 93 24 49 92	 mov	 eax, -1840700269	; 92492493H
  00057	f7 e9		 imul	 ecx
  00059	03 d1		 add	 edx, ecx
  0005b	c1 fa 04	 sar	 edx, 4
  0005e	8b f2		 mov	 esi, edx
  00060	c1 ee 1f	 shr	 esi, 31			; 0000001fH
  00063	03 f2		 add	 esi, edx

; 736  : 
; 737  :         if (_Oldsize == max_size()) {

  00065	81 fe 49 92 24
	09		 cmp	 esi, 153391689		; 09249249H
  0006b	0f 84 56 01 00
	00		 je	 $LN42@Emplace_re

; 1494 :         return static_cast<size_type>(_My_data._Myend - _My_data._Myfirst);

  00071	8b 4f 08	 mov	 ecx, DWORD PTR [edi+8]
  00074	b8 93 24 49 92	 mov	 eax, -1840700269	; 92492493H
  00079	2b cb		 sub	 ecx, ebx

; 739  :         }
; 740  : 
; 741  :         const size_type _Newsize     = _Oldsize + 1;

  0007b	46		 inc	 esi

; 1494 :         return static_cast<size_type>(_My_data._Myend - _My_data._Myfirst);

  0007c	f7 e9		 imul	 ecx

; 1619 :         if (_Oldcapacity > max_size() - _Oldcapacity / 2) {

  0007e	b8 49 92 24 09	 mov	 eax, 153391689		; 09249249H

; 739  :         }
; 740  : 
; 741  :         const size_type _Newsize     = _Oldsize + 1;

  00083	89 75 e4	 mov	 DWORD PTR __Newsize$1$[ebp], esi

; 1494 :         return static_cast<size_type>(_My_data._Myend - _My_data._Myfirst);

  00086	03 d1		 add	 edx, ecx
  00088	c1 fa 04	 sar	 edx, 4
  0008b	8b ca		 mov	 ecx, edx
  0008d	c1 e9 1f	 shr	 ecx, 31			; 0000001fH
  00090	03 ca		 add	 ecx, edx

; 1619 :         if (_Oldcapacity > max_size() - _Oldcapacity / 2) {

  00092	8b d1		 mov	 edx, ecx
  00094	d1 ea		 shr	 edx, 1
  00096	2b c2		 sub	 eax, edx
  00098	3b c8		 cmp	 ecx, eax
  0009a	76 07		 jbe	 SHORT $LN12@Emplace_re

; 1620 :             return _Newsize; // geometric growth would overflow

  0009c	8b c6		 mov	 eax, esi
  0009e	89 75 e8	 mov	 DWORD PTR __Newcapacity$[ebp], esi
  000a1	eb 0b		 jmp	 SHORT $LN13@Emplace_re
$LN12@Emplace_re:

; 1621 :         }
; 1622 : 
; 1623 :         const size_type _Geometric = _Oldcapacity + _Oldcapacity / 2;

  000a3	8d 04 0a	 lea	 eax, DWORD PTR [edx+ecx]

; 1624 : 
; 1625 :         if (_Geometric < _Newsize) {

  000a6	3b c6		 cmp	 eax, esi
  000a8	0f 42 c6	 cmovb	 eax, esi
  000ab	89 45 e8	 mov	 DWORD PTR __Newcapacity$[ebp], eax
$LN13@Emplace_re:
; File C:\Program Files (x86)\Microsoft Visual Studio\2019\Community\VC\Tools\MSVC\14.27.29110\include\xmemory

; 60   :         if (_Count > _Max_possible) {

  000ae	3d 49 92 24 09	 cmp	 eax, 153391689		; 09249249H
  000b3	0f 87 13 01 00
	00		 ja	 $LN43@Emplace_re

; 62   :         }
; 63   :     }
; 64   : 
; 65   :     return _Count * _Ty_size;

  000b9	8d 0c c5 00 00
	00 00		 lea	 ecx, DWORD PTR [eax*8]
  000c0	2b c8		 sub	 ecx, eax
  000c2	c1 e1 02	 shl	 ecx, 2

; 807  :         return static_cast<_Ty*>(_Allocate<_New_alignof<_Ty>>(_Get_size_of_n<sizeof(_Ty)>(_Count)));

  000c5	51		 push	 ecx

; 65   :     return _Count * _Ty_size;

  000c6	89 4d e0	 mov	 DWORD PTR tv380[ebp], ecx

; 807  :         return static_cast<_Ty*>(_Allocate<_New_alignof<_Ty>>(_Get_size_of_n<sizeof(_Ty)>(_Count)));

  000c9	e8 00 00 00 00	 call	 ??$_Allocate@$07U_Default_allocate_traits@std@@$0A@@std@@YAPAXI@Z ; std::_Allocate<8,std::_Default_allocate_traits,0>
; File C:\Program Files (x86)\Microsoft Visual Studio\2019\Community\VC\Tools\MSVC\14.27.29110\include\vector

; 745  :         const pointer _Constructed_last = _Newvec + _Whereoff + 1;

  000ce	8b 4d ec	 mov	 ecx, DWORD PTR __Whereoff$1$[ebp]
; File C:\Program Files (x86)\Microsoft Visual Studio\2019\Community\VC\Tools\MSVC\14.27.29110\include\xmemory

; 807  :         return static_cast<_Ty*>(_Allocate<_New_alignof<_Ty>>(_Get_size_of_n<sizeof(_Ty)>(_Count)));

  000d1	8b d8		 mov	 ebx, eax
; File C:\Program Files (x86)\Microsoft Visual Studio\2019\Community\VC\Tools\MSVC\14.27.29110\include\vector

; 749  :         _Alty_traits::construct(_Al, _Unfancy(_Newvec + _Whereoff), _STD forward<_Valty>(_Val)...);

  000d3	ff 75 0c	 push	 DWORD PTR _<_Val_0>$[ebp]
; File C:\Program Files (x86)\Microsoft Visual Studio\2019\Community\VC\Tools\MSVC\14.27.29110\include\xmemory

; 807  :         return static_cast<_Ty*>(_Allocate<_New_alignof<_Ty>>(_Get_size_of_n<sizeof(_Ty)>(_Count)));

  000d6	89 5d d4	 mov	 DWORD PTR __Newvec$[ebp], ebx
; File C:\Program Files (x86)\Microsoft Visual Studio\2019\Community\VC\Tools\MSVC\14.27.29110\include\vector

; 748  :         _TRY_BEGIN

  000d9	c7 45 fc 00 00
	00 00		 mov	 DWORD PTR __$EHRec$[ebp+12], 0
  000e0	8d 04 cd 00 00
	00 00		 lea	 eax, DWORD PTR [ecx*8]
  000e7	2b c1		 sub	 eax, ecx
  000e9	8d 0c 83	 lea	 ecx, DWORD PTR [ebx+eax*4]

; 749  :         _Alty_traits::construct(_Al, _Unfancy(_Newvec + _Whereoff), _STD forward<_Valty>(_Val)...);

  000ec	51		 push	 ecx
  000ed	8d 41 1c	 lea	 eax, DWORD PTR [ecx+28]
  000f0	89 4d dc	 mov	 DWORD PTR tv379[ebp], ecx
  000f3	57		 push	 edi
  000f4	89 45 ec	 mov	 DWORD PTR __Constructed_last$[ebp], eax
  000f7	e8 00 00 00 00	 call	 ??$construct@USHyperlink@CGraphicTextInstance@@ABU12@@?$_Default_allocator_traits@V?$allocator@USHyperlink@CGraphicTextInstance@@@std@@@std@@SAXAAV?$allocator@USHyperlink@CGraphicTextInstance@@@1@QAUSHyperlink@CGraphicTextInstance@@ABU34@@Z ; std::_Default_allocator_traits<std::allocator<CGraphicTextInstance::SHyperlink> >::construct<CGraphicTextInstance::SHyperlink,CGraphicTextInstance::SHyperlink const &>

; 750  :         _Constructed_first = _Newvec + _Whereoff;
; 751  : 
; 752  :         if (_Whereptr == _Mylast) { // at back, provide strong guarantee

  000fc	8b 47 04	 mov	 eax, DWORD PTR [edi+4]
  000ff	83 c4 10	 add	 esp, 16			; 00000010H
  00102	8b 55 08	 mov	 edx, DWORD PTR __Whereptr$[ebp]
  00105	8b 0f		 mov	 ecx, DWORD PTR [edi]
  00107	3b d0		 cmp	 edx, eax
  00109	75 04		 jne	 SHORT $LN4@Emplace_re

; 1597 :         _Uninitialized_move(_First, _Last, _Dest, _Getal());

  0010b	8b d3		 mov	 edx, ebx

; 753  :             _Umove_if_noexcept(_Myfirst, _Mylast, _Newvec);
; 754  :         } else { // provide basic guarantee

  0010d	eb 15		 jmp	 SHORT $LN5@Emplace_re
$LN4@Emplace_re:

; 1592 :         return _Uninitialized_move(_First, _Last, _Dest, _Getal());

  0010f	57		 push	 edi
  00110	53		 push	 ebx
  00111	52		 push	 edx
  00112	51		 push	 ecx
  00113	e8 00 00 00 00	 call	 ??$_Uninitialized_move@PAUSHyperlink@CGraphicTextInstance@@V?$allocator@USHyperlink@CGraphicTextInstance@@@std@@@std@@YAPAUSHyperlink@CGraphicTextInstance@@QAU12@0PAU12@AAV?$allocator@USHyperlink@CGraphicTextInstance@@@0@@Z ; std::_Uninitialized_move<CGraphicTextInstance::SHyperlink *,std::allocator<CGraphicTextInstance::SHyperlink> >
  00118	8b 4d 08	 mov	 ecx, DWORD PTR __Whereptr$[ebp]
  0011b	83 c4 10	 add	 esp, 16			; 00000010H
  0011e	8b 47 04	 mov	 eax, DWORD PTR [edi+4]
  00121	8b 55 ec	 mov	 edx, DWORD PTR __Constructed_last$[ebp]
$LN5@Emplace_re:

; 755  :             _Umove(_Myfirst, _Whereptr, _Newvec);
; 756  :             _Constructed_first = _Newvec;
; 757  :             _Umove(_Whereptr, _Mylast, _Newvec + _Whereoff + 1);

  00124	57		 push	 edi
  00125	52		 push	 edx
  00126	50		 push	 eax
  00127	51		 push	 ecx
  00128	e8 00 00 00 00	 call	 ??$_Uninitialized_move@PAUSHyperlink@CGraphicTextInstance@@V?$allocator@USHyperlink@CGraphicTextInstance@@@std@@@std@@YAPAUSHyperlink@CGraphicTextInstance@@QAU12@0PAU12@AAV?$allocator@USHyperlink@CGraphicTextInstance@@@0@@Z ; std::_Uninitialized_move<CGraphicTextInstance::SHyperlink *,std::allocator<CGraphicTextInstance::SHyperlink> >

; 1675 :         if (_Myfirst) { // destroy and deallocate old array

  0012d	8b 0f		 mov	 ecx, DWORD PTR [edi]

; 755  :             _Umove(_Myfirst, _Whereptr, _Newvec);
; 756  :             _Constructed_first = _Newvec;
; 757  :             _Umove(_Whereptr, _Mylast, _Newvec + _Whereoff + 1);

  0012f	83 c4 10	 add	 esp, 16			; 00000010H

; 1675 :         if (_Myfirst) { // destroy and deallocate old array

  00132	85 c9		 test	 ecx, ecx
  00134	74 3d		 je	 SHORT $LN33@Emplace_re

; 1612 :         _Destroy_range(_First, _Last, _Getal());

  00136	57		 push	 edi
  00137	ff 77 04	 push	 DWORD PTR [edi+4]
  0013a	51		 push	 ecx
  0013b	e8 00 00 00 00	 call	 ??$_Destroy_range@V?$allocator@USHyperlink@CGraphicTextInstance@@@std@@@std@@YAXPAUSHyperlink@CGraphicTextInstance@@QAU12@AAV?$allocator@USHyperlink@CGraphicTextInstance@@@0@@Z ; std::_Destroy_range<std::allocator<CGraphicTextInstance::SHyperlink> >

; 1677 :             _Getal().deallocate(_Myfirst, static_cast<size_type>(_Myend - _Myfirst));

  00140	8b 37		 mov	 esi, DWORD PTR [edi]
  00142	b8 93 24 49 92	 mov	 eax, -1840700269	; 92492493H
  00147	8b 4f 08	 mov	 ecx, DWORD PTR [edi+8]
  0014a	2b ce		 sub	 ecx, esi
  0014c	f7 e9		 imul	 ecx
  0014e	03 d1		 add	 edx, ecx
  00150	c1 fa 04	 sar	 edx, 4
  00153	8b ca		 mov	 ecx, edx
  00155	c1 e9 1f	 shr	 ecx, 31			; 0000001fH
  00158	03 ca		 add	 ecx, edx
; File C:\Program Files (x86)\Microsoft Visual Studio\2019\Community\VC\Tools\MSVC\14.27.29110\include\xmemory

; 803  :         _Deallocate<_New_alignof<_Ty>>(_Ptr, sizeof(_Ty) * _Count);

  0015a	8d 04 cd 00 00
	00 00		 lea	 eax, DWORD PTR [ecx*8]
  00161	2b c1		 sub	 eax, ecx
  00163	c1 e0 02	 shl	 eax, 2
  00166	50		 push	 eax
  00167	56		 push	 esi
  00168	e8 00 00 00 00	 call	 ??$_Deallocate@$07$0A@@std@@YAXPAXI@Z ; std::_Deallocate<8,0>
  0016d	8b 75 e4	 mov	 esi, DWORD PTR __Newsize$1$[ebp]
  00170	83 c4 14	 add	 esp, 20			; 00000014H
$LN33@Emplace_re:
; File C:\Program Files (x86)\Microsoft Visual Studio\2019\Community\VC\Tools\MSVC\14.27.29110\include\vector

; 766  :         return _Newvec + _Whereoff;

  00173	8b 45 dc	 mov	 eax, DWORD PTR tv379[ebp]

; 1681 :         _Mylast  = _Newvec + _Newsize;

  00176	8d 0c f5 00 00
	00 00		 lea	 ecx, DWORD PTR [esi*8]
  0017d	2b ce		 sub	 ecx, esi
  0017f	89 1f		 mov	 DWORD PTR [edi], ebx
  00181	8d 0c 8b	 lea	 ecx, DWORD PTR [ebx+ecx*4]
  00184	89 4f 04	 mov	 DWORD PTR [edi+4], ecx

; 1682 :         _Myend   = _Newvec + _Newcapacity;

  00187	8b 4d e0	 mov	 ecx, DWORD PTR tv380[ebp]
  0018a	03 cb		 add	 ecx, ebx
  0018c	89 4f 08	 mov	 DWORD PTR [edi+8], ecx

; 767  :     }

  0018f	8b 4d f4	 mov	 ecx, DWORD PTR __$EHRec$[ebp+4]
  00192	64 89 0d 00 00
	00 00		 mov	 DWORD PTR fs:0, ecx
  00199	59		 pop	 ecx
  0019a	5f		 pop	 edi
  0019b	5e		 pop	 esi
  0019c	5b		 pop	 ebx
  0019d	8b e5		 mov	 esp, ebp
  0019f	5d		 pop	 ebp
  001a0	c2 08 00	 ret	 8
__catch$??$_Emplace_reallocate@ABUSHyperlink@CGraphicTextInstance@@@?$vector@USHyperlink@CGraphicTextInstance@@V?$allocator@USHyperlink@CGraphicTextInstance@@@std@@@std@@QAEPAUSHyperlink@CGraphicTextInstance@@QAU23@ABU23@@Z$0:

; 758  :         }
; 759  :         _CATCH_ALL
; 760  :         _Destroy(_Constructed_first, _Constructed_last);

  001a3	8b 45 ec	 mov	 eax, DWORD PTR __Constructed_last$[ebp]
  001a6	8b 4d d8	 mov	 ecx, DWORD PTR _this$[ebp]
  001a9	50		 push	 eax
  001aa	50		 push	 eax
  001ab	e8 00 00 00 00	 call	 ?_Destroy@?$vector@USHyperlink@CGraphicTextInstance@@V?$allocator@USHyperlink@CGraphicTextInstance@@@std@@@std@@AAEXPAUSHyperlink@CGraphicTextInstance@@0@Z ; std::vector<CGraphicTextInstance::SHyperlink,std::allocator<CGraphicTextInstance::SHyperlink> >::_Destroy

; 761  :         _Al.deallocate(_Newvec, _Newcapacity);

  001b0	ff 75 e8	 push	 DWORD PTR __Newcapacity$[ebp]
  001b3	8b 4d d8	 mov	 ecx, DWORD PTR _this$[ebp]
  001b6	ff 75 d4	 push	 DWORD PTR __Newvec$[ebp]
  001b9	e8 00 00 00 00	 call	 ?deallocate@?$allocator@USHyperlink@CGraphicTextInstance@@@std@@QAEXQAUSHyperlink@CGraphicTextInstance@@I@Z ; std::allocator<CGraphicTextInstance::SHyperlink>::deallocate

; 762  :         _RERAISE;

  001be	6a 00		 push	 0
  001c0	6a 00		 push	 0
  001c2	e8 00 00 00 00	 call	 __CxxThrowException@8
$LN42@Emplace_re:

; 738  :             _Xlength();

  001c7	e8 00 00 00 00	 call	 ?_Xlength@?$vector@USHyperlink@CGraphicTextInstance@@V?$allocator@USHyperlink@CGraphicTextInstance@@@std@@@std@@CAXXZ ; std::vector<CGraphicTextInstance::SHyperlink,std::allocator<CGraphicTextInstance::SHyperlink> >::_Xlength
$LN43@Emplace_re:
; File C:\Program Files (x86)\Microsoft Visual Studio\2019\Community\VC\Tools\MSVC\14.27.29110\include\xmemory

; 61   :             _Throw_bad_array_new_length(); // multiply overflow

  001cc	e8 00 00 00 00	 call	 ?_Throw_bad_array_new_length@std@@YAXXZ ; std::_Throw_bad_array_new_length
$LN40@Emplace_re:
  001d1	cc		 int	 3
  001d2	cc		 int	 3
  001d3	cc		 int	 3
  001d4	cc		 int	 3
  001d5	cc		 int	 3
  001d6	cc		 int	 3
_TEXT	ENDS
;	COMDAT text$x
text$x	SEGMENT
__ehhandler$??$_Emplace_reallocate@ABUSHyperlink@CGraphicTextInstance@@@?$vector@USHyperlink@CGraphicTextInstance@@V?$allocator@USHyperlink@CGraphicTextInstance@@@std@@@std@@QAEPAUSHyperlink@CGraphicTextInstance@@QAU23@ABU23@@Z:
  00000	90		 npad	 1
  00001	90		 npad	 1
  00002	8b 54 24 08	 mov	 edx, DWORD PTR [esp+8]
  00006	8d 42 0c	 lea	 eax, DWORD PTR [edx+12]
  00009	8b 4a d0	 mov	 ecx, DWORD PTR [edx-48]
  0000c	33 c8		 xor	 ecx, eax
  0000e	e8 00 00 00 00	 call	 @__security_check_cookie@4
  00013	b8 00 00 00 00	 mov	 eax, OFFSET __ehfuncinfo$??$_Emplace_reallocate@ABUSHyperlink@CGraphicTextInstance@@@?$vector@USHyperlink@CGraphicTextInstance@@V?$allocator@USHyperlink@CGraphicTextInstance@@@std@@@std@@QAEPAUSHyperlink@CGraphicTextInstance@@QAU23@ABU23@@Z
  00018	e9 00 00 00 00	 jmp	 ___CxxFrameHandler3
text$x	ENDS
??$_Emplace_reallocate@ABUSHyperlink@CGraphicTextInstance@@@?$vector@USHyperlink@CGraphicTextInstance@@V?$allocator@USHyperlink@CGraphicTextInstance@@@std@@@std@@QAEPAUSHyperlink@CGraphicTextInstance@@QAU23@ABU23@@Z ENDP ; std::vector<CGraphicTextInstance::SHyperlink,std::allocator<CGraphicTextInstance::SHyperlink> >::_Emplace_reallocate<CGraphicTextInstance::SHyperlink const &>
; Function compile flags: /Ogtp
; File C:\Program Files (x86)\Microsoft Visual Studio\2019\Community\VC\Tools\MSVC\14.27.29110\include\xmemory
; File C:\Program Files (x86)\Microsoft Visual Studio\2019\Community\VC\Tools\MSVC\14.27.29110\include\xstring
; File C:\Program Files (x86)\Windows Kits\10\Include\10.0.18362.0\ucrt\wchar.h
; File C:\Program Files (x86)\Microsoft Visual Studio\2019\Community\VC\Tools\MSVC\14.27.29110\include\xstring
; File C:\Program Files (x86)\Microsoft Visual Studio\2019\Community\VC\Tools\MSVC\14.27.29110\include\xmemory
; File C:\Program Files (x86)\Microsoft Visual Studio\2019\Community\VC\Tools\MSVC\14.27.29110\include\xstring
; File C:\Program Files (x86)\Microsoft Visual Studio\2019\Community\VC\Tools\MSVC\14.27.29110\include\utility
; File C:\Program Files (x86)\Microsoft Visual Studio\2019\Community\VC\Tools\MSVC\14.27.29110\include\xstring
; File C:\Program Files (x86)\Microsoft Visual Studio\2019\Community\VC\Tools\MSVC\14.27.29110\include\xmemory
; File C:\Program Files (x86)\Microsoft Visual Studio\2019\Community\VC\Tools\MSVC\14.27.29110\include\xstring
; File C:\Program Files (x86)\Windows Kits\10\Include\10.0.18362.0\ucrt\wchar.h
; File C:\Program Files (x86)\Microsoft Visual Studio\2019\Community\VC\Tools\MSVC\14.27.29110\include\xstring
; File C:\Program Files (x86)\Windows Kits\10\Include\10.0.18362.0\ucrt\wchar.h
; File C:\Program Files (x86)\Microsoft Visual Studio\2019\Community\VC\Tools\MSVC\14.27.29110\include\xstring
; File C:\Program Files (x86)\Microsoft Visual Studio\2019\Community\VC\Tools\MSVC\14.27.29110\include\xmemory
;	COMDAT ??$construct@USHyperlink@CGraphicTextInstance@@ABU12@@?$_Default_allocator_traits@V?$allocator@USHyperlink@CGraphicTextInstance@@@std@@@std@@SAXAAV?$allocator@USHyperlink@CGraphicTextInstance@@@1@QAUSHyperlink@CGraphicTextInstance@@ABU34@@Z
_TEXT	SEGMENT
__New_capacity$1$ = -4					; size = 4
___formal$ = 8						; size = 4
__New_array$1 = 12					; size = 4
__Ptr$ = 12						; size = 4
__Right_size$1$ = 16					; size = 4
_<_Args_0>$ = 16					; size = 4
??$construct@USHyperlink@CGraphicTextInstance@@ABU12@@?$_Default_allocator_traits@V?$allocator@USHyperlink@CGraphicTextInstance@@@std@@@std@@SAXAAV?$allocator@USHyperlink@CGraphicTextInstance@@@1@QAUSHyperlink@CGraphicTextInstance@@ABU34@@Z PROC ; std::_Default_allocator_traits<std::allocator<CGraphicTextInstance::SHyperlink> >::construct<CGraphicTextInstance::SHyperlink,CGraphicTextInstance::SHyperlink const &>, COMDAT

; 693  :     static void construct(_Alloc&, _Objty* const _Ptr, _Types&&... _Args) {

  00000	55		 push	 ebp
  00001	8b ec		 mov	 ebp, esp
  00003	51		 push	 ecx
  00004	8b 55 10	 mov	 edx, DWORD PTR _<_Args_0>$[ebp]
  00007	8b 4d 0c	 mov	 ecx, DWORD PTR __Ptr$[ebp]
  0000a	53		 push	 ebx
  0000b	57		 push	 edi
  0000c	0f b7 02	 movzx	 eax, WORD PTR [edx]
  0000f	8d 79 04	 lea	 edi, DWORD PTR [ecx+4]
  00012	66 89 01	 mov	 WORD PTR [ecx], ax
; File C:\Program Files (x86)\Microsoft Visual Studio\2019\Community\VC\Tools\MSVC\14.27.29110\include\xstring

; 2655 :         auto& _Right_data             = _Right._Mypair._Myval2;

  00015	8d 5a 04	 lea	 ebx, DWORD PTR [edx+4]
  00018	0f b7 42 02	 movzx	 eax, WORD PTR [edx+2]
  0001c	66 89 41 02	 mov	 WORD PTR [ecx+2], ax

; 2124 :     _String_val() : _Bx(), _Mysize(0), _Myres(0) {}

  00020	c7 47 10 00 00
	00 00		 mov	 DWORD PTR [edi+16], 0
  00027	c7 47 14 00 00
	00 00		 mov	 DWORD PTR [edi+20], 0

; 2153 :         return _BUF_SIZE <= _Myres;

  0002e	83 7b 14 08	 cmp	 DWORD PTR [ebx+20], 8

; 2656 :         const size_type _Right_size   = _Right_data._Mysize;

  00032	8b 43 10	 mov	 eax, DWORD PTR [ebx+16]
  00035	89 45 10	 mov	 DWORD PTR __Right_size$1$[ebp], eax

; 2145 :         if (_Large_string_engaged()) {

  00038	72 02		 jb	 SHORT $LN16@construct

; 2146 :             _Result = _Unfancy(_Bx._Ptr);

  0003a	8b 1b		 mov	 ebx, DWORD PTR [ebx]
$LN16@construct:

; 2659 :         if (_Right_size < _BUF_SIZE) { // stay small, don't allocate

  0003c	83 f8 08	 cmp	 eax, 8
  0003f	73 16		 jae	 SHORT $LN13@construct
; File C:\Program Files (x86)\Windows Kits\10\Include\10.0.18362.0\ucrt\wchar.h

; 233  :         return (wchar_t*)memcpy(_S1, _S2, _N*sizeof(wchar_t));

  00041	0f 10 03	 movups	 xmm0, XMMWORD PTR [ebx]
  00044	0f 11 07	 movups	 XMMWORD PTR [edi], xmm0
; File C:\Program Files (x86)\Microsoft Visual Studio\2019\Community\VC\Tools\MSVC\14.27.29110\include\xstring

; 2661 :             _My_data._Mysize = _Right_size;

  00047	89 47 10	 mov	 DWORD PTR [edi+16], eax

; 2662 :             _My_data._Myres  = _BUF_SIZE - 1;

  0004a	c7 47 14 07 00
	00 00		 mov	 DWORD PTR [edi+20], 7
  00051	5f		 pop	 edi
; File C:\Program Files (x86)\Microsoft Visual Studio\2019\Community\VC\Tools\MSVC\14.27.29110\include\xmemory

; 695  :     }

  00052	5b		 pop	 ebx
  00053	8b e5		 mov	 esp, ebp
  00055	5d		 pop	 ebp
  00056	c3		 ret	 0
$LN13@construct:
; File C:\Program Files (x86)\Microsoft Visual Studio\2019\Community\VC\Tools\MSVC\14.27.29110\include\xstring

; 2667 :         const size_type _New_capacity = (_STD min)(_Right_size | _ALLOC_MASK, max_size());

  00057	83 c8 07	 or	 eax, 7
; File C:\Program Files (x86)\Microsoft Visual Studio\2019\Community\VC\Tools\MSVC\14.27.29110\include\utility

; 69   :     return _Right < _Left ? _Right : _Left;

  0005a	b9 fe ff ff 7f	 mov	 ecx, 2147483646		; 7ffffffeH
  0005f	3b c1		 cmp	 eax, ecx
  00061	0f 47 c1	 cmova	 eax, ecx
  00064	89 45 fc	 mov	 DWORD PTR __New_capacity$1$[ebp], eax
; File C:\Program Files (x86)\Microsoft Visual Studio\2019\Community\VC\Tools\MSVC\14.27.29110\include\xstring

; 2668 :         const pointer _New_array      = _Al.allocate(_New_capacity + 1); // throws

  00067	40		 inc	 eax
; File C:\Program Files (x86)\Microsoft Visual Studio\2019\Community\VC\Tools\MSVC\14.27.29110\include\xmemory

; 60   :         if (_Count > _Max_possible) {

  00068	3d ff ff ff 7f	 cmp	 eax, 2147483647		; 7fffffffH
  0006d	77 40		 ja	 SHORT $LN42@construct

; 62   :         }
; 63   :     }
; 64   : 
; 65   :     return _Count * _Ty_size;

  0006f	03 c0		 add	 eax, eax
  00071	56		 push	 esi

; 807  :         return static_cast<_Ty*>(_Allocate<_New_alignof<_Ty>>(_Get_size_of_n<sizeof(_Ty)>(_Count)));

  00072	50		 push	 eax
  00073	e8 00 00 00 00	 call	 ??$_Allocate@$07U_Default_allocate_traits@std@@$0A@@std@@YAPAXI@Z ; std::_Allocate<8,std::_Default_allocate_traits,0>
; File C:\Program Files (x86)\Microsoft Visual Studio\2019\Community\VC\Tools\MSVC\14.27.29110\include\xstring

; 2668 :         const pointer _New_array      = _Al.allocate(_New_capacity + 1); // throws

  00078	8b f0		 mov	 esi, eax

; 2669 :         _Construct_in_place(_My_data._Bx._Ptr, _New_array);

  0007a	8d 45 0c	 lea	 eax, DWORD PTR __New_array$1[ebp]
  0007d	50		 push	 eax
  0007e	57		 push	 edi
  0007f	89 75 0c	 mov	 DWORD PTR __New_array$1[ebp], esi
  00082	e8 00 00 00 00	 call	 ??$_Construct_in_place@PA_WABQA_W@std@@YAXAAPA_WABQA_W@Z ; std::_Construct_in_place<wchar_t *,wchar_t * const &>
; File C:\Program Files (x86)\Windows Kits\10\Include\10.0.18362.0\ucrt\wchar.h

; 233  :         return (wchar_t*)memcpy(_S1, _S2, _N*sizeof(wchar_t));

  00087	8b 4d 10	 mov	 ecx, DWORD PTR __Right_size$1$[ebp]
  0008a	8d 0c 4d 02 00
	00 00		 lea	 ecx, DWORD PTR [ecx*2+2]
  00091	51		 push	 ecx
  00092	53		 push	 ebx
  00093	56		 push	 esi
  00094	e8 00 00 00 00	 call	 _memcpy
; File C:\Program Files (x86)\Microsoft Visual Studio\2019\Community\VC\Tools\MSVC\14.27.29110\include\xstring

; 2671 :         _My_data._Mysize = _Right_size;

  00099	8b 45 10	 mov	 eax, DWORD PTR __Right_size$1$[ebp]
; File C:\Program Files (x86)\Windows Kits\10\Include\10.0.18362.0\ucrt\wchar.h

; 233  :         return (wchar_t*)memcpy(_S1, _S2, _N*sizeof(wchar_t));

  0009c	83 c4 18	 add	 esp, 24			; 00000018H
; File C:\Program Files (x86)\Microsoft Visual Studio\2019\Community\VC\Tools\MSVC\14.27.29110\include\xstring

; 2671 :         _My_data._Mysize = _Right_size;

  0009f	89 47 10	 mov	 DWORD PTR [edi+16], eax

; 2672 :         _My_data._Myres  = _New_capacity;

  000a2	8b 45 fc	 mov	 eax, DWORD PTR __New_capacity$1$[ebp]
  000a5	89 47 14	 mov	 DWORD PTR [edi+20], eax
  000a8	5e		 pop	 esi
  000a9	5f		 pop	 edi
; File C:\Program Files (x86)\Microsoft Visual Studio\2019\Community\VC\Tools\MSVC\14.27.29110\include\xmemory

; 695  :     }

  000aa	5b		 pop	 ebx
  000ab	8b e5		 mov	 esp, ebp
  000ad	5d		 pop	 ebp
  000ae	c3		 ret	 0
$LN42@construct:

; 61   :             _Throw_bad_array_new_length(); // multiply overflow

  000af	e8 00 00 00 00	 call	 ?_Throw_bad_array_new_length@std@@YAXXZ ; std::_Throw_bad_array_new_length
$LN40@construct:
  000b4	cc		 int	 3
??$construct@USHyperlink@CGraphicTextInstance@@ABU12@@?$_Default_allocator_traits@V?$allocator@USHyperlink@CGraphicTextInstance@@@std@@@std@@SAXAAV?$allocator@USHyperlink@CGraphicTextInstance@@@1@QAUSHyperlink@CGraphicTextInstance@@ABU34@@Z ENDP ; std::_Default_allocator_traits<std::allocator<CGraphicTextInstance::SHyperlink> >::construct<CGraphicTextInstance::SHyperlink,CGraphicTextInstance::SHyperlink const &>
_TEXT	ENDS
; Function compile flags: /Ogtp
; File C:\Program Files (x86)\Microsoft Visual Studio\2019\Community\VC\Tools\MSVC\14.27.29110\include\vector
; File C:\Program Files (x86)\Microsoft Visual Studio\2019\Community\VC\Tools\MSVC\14.27.29110\include\xmemory
; File C:\Program Files (x86)\Microsoft Visual Studio\2019\Community\VC\Tools\MSVC\14.27.29110\include\vector
; File C:\Program Files (x86)\Microsoft Visual Studio\2019\Community\VC\Tools\MSVC\14.27.29110\include\xmemory
; File C:\Program Files (x86)\Microsoft Visual Studio\2019\Community\VC\Tools\MSVC\14.27.29110\include\vector
; File C:\Program Files (x86)\Microsoft Visual Studio\2019\Community\VC\Tools\MSVC\14.27.29110\include\xmemory
; File C:\Program Files (x86)\Microsoft Visual Studio\2019\Community\VC\Tools\MSVC\14.27.29110\include\vector
; File C:\Program Files (x86)\Microsoft Visual Studio\2019\Community\VC\Tools\MSVC\14.27.29110\include\xmemory
; File C:\Program Files (x86)\Microsoft Visual Studio\2019\Community\VC\Tools\MSVC\14.27.29110\include\vector
; File C:\Program Files (x86)\Microsoft Visual Studio\2019\Community\VC\Tools\MSVC\14.27.29110\include\xmemory
; File C:\Program Files (x86)\Microsoft Visual Studio\2019\Community\VC\Tools\MSVC\14.27.29110\include\vector
;	COMDAT ??$_Emplace_reallocate@ABUSEmoji@CGraphicTextInstance@@@?$vector@USEmoji@CGraphicTextInstance@@V?$allocator@USEmoji@CGraphicTextInstance@@@std@@@std@@QAEPAUSEmoji@CGraphicTextInstance@@QAU23@ABU23@@Z
_TEXT	SEGMENT
tv436 = -12						; size = 4
__Newsize$1$ = -8					; size = 4
tv435 = -4						; size = 4
__Whereptr$ = 8						; size = 4
_<_Val_0>$ = 12						; size = 4
??$_Emplace_reallocate@ABUSEmoji@CGraphicTextInstance@@@?$vector@USEmoji@CGraphicTextInstance@@V?$allocator@USEmoji@CGraphicTextInstance@@@std@@@std@@QAEPAUSEmoji@CGraphicTextInstance@@QAU23@ABU23@@Z PROC ; std::vector<CGraphicTextInstance::SEmoji,std::allocator<CGraphicTextInstance::SEmoji> >::_Emplace_reallocate<CGraphicTextInstance::SEmoji const &>, COMDAT
; _this$ = ecx

; 725  :     pointer _Emplace_reallocate(const pointer _Whereptr, _Valty&&... _Val) {

  00000	55		 push	 ebp
  00001	8b ec		 mov	 ebp, esp
  00003	83 ec 0c	 sub	 esp, 12			; 0000000cH
  00006	53		 push	 ebx

; 726  :         // reallocate and insert by perfectly forwarding _Val at _Whereptr
; 727  :         _Alty& _Al        = _Getal();
; 728  :         auto& _My_data    = _Mypair._Myval2;
; 729  :         pointer& _Myfirst = _My_data._Myfirst;
; 730  :         pointer& _Mylast  = _My_data._Mylast;
; 731  : 
; 732  :         _STL_INTERNAL_CHECK(_Mylast == _My_data._Myend); // check that we have no unused capacity
; 733  : 
; 734  :         const auto _Whereoff = static_cast<size_type>(_Whereptr - _Myfirst);

  00007	8b 5d 08	 mov	 ebx, DWORD PTR __Whereptr$[ebp]
  0000a	56		 push	 esi
  0000b	8b f1		 mov	 esi, ecx
  0000d	57		 push	 edi
  0000e	8b 16		 mov	 edx, DWORD PTR [esi]
  00010	2b da		 sub	 ebx, edx

; 735  :         const auto _Oldsize  = static_cast<size_type>(_Mylast - _Myfirst);

  00012	8b 46 04	 mov	 eax, DWORD PTR [esi+4]
  00015	2b c2		 sub	 eax, edx
  00017	c1 fb 03	 sar	 ebx, 3
  0001a	c1 f8 03	 sar	 eax, 3

; 736  : 
; 737  :         if (_Oldsize == max_size()) {

  0001d	3d ff ff ff 1f	 cmp	 eax, 536870911		; 1fffffffH
  00022	0f 84 c4 00 00
	00		 je	 $LN39@Emplace_re

; 1494 :         return static_cast<size_type>(_My_data._Myend - _My_data._Myfirst);

  00028	8b 4e 08	 mov	 ecx, DWORD PTR [esi+8]

; 739  :         }
; 740  : 
; 741  :         const size_type _Newsize     = _Oldsize + 1;

  0002b	8d 78 01	 lea	 edi, DWORD PTR [eax+1]

; 1494 :         return static_cast<size_type>(_My_data._Myend - _My_data._Myfirst);

  0002e	2b ca		 sub	 ecx, edx

; 739  :         }
; 740  : 
; 741  :         const size_type _Newsize     = _Oldsize + 1;

  00030	89 7d f8	 mov	 DWORD PTR __Newsize$1$[ebp], edi

; 1494 :         return static_cast<size_type>(_My_data._Myend - _My_data._Myfirst);

  00033	c1 f9 03	 sar	 ecx, 3

; 1619 :         if (_Oldcapacity > max_size() - _Oldcapacity / 2) {

  00036	b8 ff ff ff 1f	 mov	 eax, 536870911		; 1fffffffH
  0003b	8b d1		 mov	 edx, ecx
  0003d	d1 ea		 shr	 edx, 1
  0003f	2b c2		 sub	 eax, edx
  00041	3b c8		 cmp	 ecx, eax
  00043	76 04		 jbe	 SHORT $LN12@Emplace_re

; 1620 :             return _Newsize; // geometric growth would overflow

  00045	8b c7		 mov	 eax, edi
  00047	eb 08		 jmp	 SHORT $LN13@Emplace_re
$LN12@Emplace_re:

; 1621 :         }
; 1622 : 
; 1623 :         const size_type _Geometric = _Oldcapacity + _Oldcapacity / 2;

  00049	8d 04 0a	 lea	 eax, DWORD PTR [edx+ecx]

; 1624 : 
; 1625 :         if (_Geometric < _Newsize) {

  0004c	3b c7		 cmp	 eax, edi
  0004e	0f 42 c7	 cmovb	 eax, edi
$LN13@Emplace_re:
; File C:\Program Files (x86)\Microsoft Visual Studio\2019\Community\VC\Tools\MSVC\14.27.29110\include\xmemory

; 60   :         if (_Count > _Max_possible) {

  00051	3d ff ff ff 1f	 cmp	 eax, 536870911		; 1fffffffH
  00056	0f 87 95 00 00
	00		 ja	 $LN40@Emplace_re

; 62   :         }
; 63   :     }
; 64   : 
; 65   :     return _Count * _Ty_size;

  0005c	c1 e0 03	 shl	 eax, 3

; 807  :         return static_cast<_Ty*>(_Allocate<_New_alignof<_Ty>>(_Get_size_of_n<sizeof(_Ty)>(_Count)));

  0005f	50		 push	 eax

; 65   :     return _Count * _Ty_size;

  00060	89 45 f4	 mov	 DWORD PTR tv436[ebp], eax

; 807  :         return static_cast<_Ty*>(_Allocate<_New_alignof<_Ty>>(_Get_size_of_n<sizeof(_Ty)>(_Count)));

  00063	e8 00 00 00 00	 call	 ??$_Allocate@$07U_Default_allocate_traits@std@@$0A@@std@@YAPAXI@Z ; std::_Allocate<8,std::_Default_allocate_traits,0>
; File C:\Program Files (x86)\Microsoft Visual Studio\2019\Community\VC\Tools\MSVC\14.27.29110\include\vector

; 749  :         _Alty_traits::construct(_Al, _Unfancy(_Newvec + _Whereoff), _STD forward<_Valty>(_Val)...);

  00068	8b 55 0c	 mov	 edx, DWORD PTR _<_Val_0>$[ebp]
; File C:\Program Files (x86)\Microsoft Visual Studio\2019\Community\VC\Tools\MSVC\14.27.29110\include\xmemory

; 807  :         return static_cast<_Ty*>(_Allocate<_New_alignof<_Ty>>(_Get_size_of_n<sizeof(_Ty)>(_Count)));

  0006b	8b f8		 mov	 edi, eax
; File C:\Program Files (x86)\Microsoft Visual Studio\2019\Community\VC\Tools\MSVC\14.27.29110\include\vector

; 749  :         _Alty_traits::construct(_Al, _Unfancy(_Newvec + _Whereoff), _STD forward<_Valty>(_Val)...);

  0006d	8d 04 df	 lea	 eax, DWORD PTR [edi+ebx*8]
; File C:\Program Files (x86)\Microsoft Visual Studio\2019\Community\VC\Tools\MSVC\14.27.29110\include\xmemory

; 807  :         return static_cast<_Ty*>(_Allocate<_New_alignof<_Ty>>(_Get_size_of_n<sizeof(_Ty)>(_Count)));

  00070	83 c4 04	 add	 esp, 4
; File C:\Program Files (x86)\Microsoft Visual Studio\2019\Community\VC\Tools\MSVC\14.27.29110\include\vector

; 752  :         if (_Whereptr == _Mylast) { // at back, provide strong guarantee

  00073	8b 5d 08	 mov	 ebx, DWORD PTR __Whereptr$[ebp]
  00076	89 45 fc	 mov	 DWORD PTR tv435[ebp], eax
  00079	8b 0a		 mov	 ecx, DWORD PTR [edx]
  0007b	89 08		 mov	 DWORD PTR [eax], ecx
  0007d	8b 4a 04	 mov	 ecx, DWORD PTR [edx+4]
  00080	89 48 04	 mov	 DWORD PTR [eax+4], ecx
  00083	8b 56 04	 mov	 edx, DWORD PTR [esi+4]
  00086	8b 0e		 mov	 ecx, DWORD PTR [esi]
  00088	3b da		 cmp	 ebx, edx
  0008a	75 07		 jne	 SHORT $LN4@Emplace_re

; 753  :             _Umove_if_noexcept(_Myfirst, _Mylast, _Newvec);
; 754  :         } else { // provide basic guarantee

  0008c	8b 5d fc	 mov	 ebx, DWORD PTR tv435[ebp]

; 1597 :         _Uninitialized_move(_First, _Last, _Dest, _Getal());

  0008f	8b c7		 mov	 eax, edi

; 753  :             _Umove_if_noexcept(_Myfirst, _Mylast, _Newvec);
; 754  :         } else { // provide basic guarantee

  00091	eb 17		 jmp	 SHORT $LN5@Emplace_re
$LN4@Emplace_re:

; 1592 :         return _Uninitialized_move(_First, _Last, _Dest, _Getal());

  00093	56		 push	 esi
  00094	57		 push	 edi
  00095	53		 push	 ebx
  00096	51		 push	 ecx
  00097	e8 00 00 00 00	 call	 ??$_Uninitialized_move@PAUSEmoji@CGraphicTextInstance@@V?$allocator@USEmoji@CGraphicTextInstance@@@std@@@std@@YAPAUSEmoji@CGraphicTextInstance@@QAU12@0PAU12@AAV?$allocator@USEmoji@CGraphicTextInstance@@@0@@Z ; std::_Uninitialized_move<CGraphicTextInstance::SEmoji *,std::allocator<CGraphicTextInstance::SEmoji> >
  0009c	8b 56 04	 mov	 edx, DWORD PTR [esi+4]
  0009f	8b cb		 mov	 ecx, ebx

; 755  :             _Umove(_Myfirst, _Whereptr, _Newvec);
; 756  :             _Constructed_first = _Newvec;
; 757  :             _Umove(_Whereptr, _Mylast, _Newvec + _Whereoff + 1);

  000a1	8b 5d fc	 mov	 ebx, DWORD PTR tv435[ebp]

; 1592 :         return _Uninitialized_move(_First, _Last, _Dest, _Getal());

  000a4	83 c4 10	 add	 esp, 16			; 00000010H

; 755  :             _Umove(_Myfirst, _Whereptr, _Newvec);
; 756  :             _Constructed_first = _Newvec;
; 757  :             _Umove(_Whereptr, _Mylast, _Newvec + _Whereoff + 1);

  000a7	8d 43 08	 lea	 eax, DWORD PTR [ebx+8]
$LN5@Emplace_re:
  000aa	56		 push	 esi
  000ab	50		 push	 eax
  000ac	52		 push	 edx
  000ad	51		 push	 ecx
  000ae	e8 00 00 00 00	 call	 ??$_Uninitialized_move@PAUSEmoji@CGraphicTextInstance@@V?$allocator@USEmoji@CGraphicTextInstance@@@std@@@std@@YAPAUSEmoji@CGraphicTextInstance@@QAU12@0PAU12@AAV?$allocator@USEmoji@CGraphicTextInstance@@@0@@Z ; std::_Uninitialized_move<CGraphicTextInstance::SEmoji *,std::allocator<CGraphicTextInstance::SEmoji> >

; 1675 :         if (_Myfirst) { // destroy and deallocate old array

  000b3	8b 0e		 mov	 ecx, DWORD PTR [esi]

; 755  :             _Umove(_Myfirst, _Whereptr, _Newvec);
; 756  :             _Constructed_first = _Newvec;
; 757  :             _Umove(_Whereptr, _Mylast, _Newvec + _Whereoff + 1);

  000b5	83 c4 10	 add	 esp, 16			; 00000010H

; 1675 :         if (_Myfirst) { // destroy and deallocate old array

  000b8	85 c9		 test	 ecx, ecx
  000ba	74 12		 je	 SHORT $LN33@Emplace_re

; 1676 :             _Destroy(_Myfirst, _Mylast);
; 1677 :             _Getal().deallocate(_Myfirst, static_cast<size_type>(_Myend - _Myfirst));

  000bc	8b 46 08	 mov	 eax, DWORD PTR [esi+8]
  000bf	2b c1		 sub	 eax, ecx
; File C:\Program Files (x86)\Microsoft Visual Studio\2019\Community\VC\Tools\MSVC\14.27.29110\include\xmemory

; 803  :         _Deallocate<_New_alignof<_Ty>>(_Ptr, sizeof(_Ty) * _Count);

  000c1	83 e0 f8	 and	 eax, -8			; fffffff8H
  000c4	50		 push	 eax
  000c5	51		 push	 ecx
  000c6	e8 00 00 00 00	 call	 ??$_Deallocate@$07$0A@@std@@YAXPAXI@Z ; std::_Deallocate<8,0>
  000cb	83 c4 08	 add	 esp, 8
$LN33@Emplace_re:
; File C:\Program Files (x86)\Microsoft Visual Studio\2019\Community\VC\Tools\MSVC\14.27.29110\include\vector

; 1681 :         _Mylast  = _Newvec + _Newsize;

  000ce	8b 4d f8	 mov	 ecx, DWORD PTR __Newsize$1$[ebp]

; 758  :         }
; 759  :         _CATCH_ALL
; 760  :         _Destroy(_Constructed_first, _Constructed_last);
; 761  :         _Al.deallocate(_Newvec, _Newcapacity);
; 762  :         _RERAISE;
; 763  :         _CATCH_END
; 764  : 
; 765  :         _Change_array(_Newvec, _Newsize, _Newcapacity);
; 766  :         return _Newvec + _Whereoff;

  000d1	8b c3		 mov	 eax, ebx

; 1680 :         _Myfirst = _Newvec;

  000d3	89 3e		 mov	 DWORD PTR [esi], edi

; 1681 :         _Mylast  = _Newvec + _Newsize;

  000d5	8d 0c cf	 lea	 ecx, DWORD PTR [edi+ecx*8]
  000d8	89 4e 04	 mov	 DWORD PTR [esi+4], ecx

; 1682 :         _Myend   = _Newvec + _Newcapacity;

  000db	8b 4d f4	 mov	 ecx, DWORD PTR tv436[ebp]
  000de	03 cf		 add	 ecx, edi

; 758  :         }
; 759  :         _CATCH_ALL
; 760  :         _Destroy(_Constructed_first, _Constructed_last);
; 761  :         _Al.deallocate(_Newvec, _Newcapacity);
; 762  :         _RERAISE;
; 763  :         _CATCH_END
; 764  : 
; 765  :         _Change_array(_Newvec, _Newsize, _Newcapacity);
; 766  :         return _Newvec + _Whereoff;

  000e0	5f		 pop	 edi

; 1682 :         _Myend   = _Newvec + _Newcapacity;

  000e1	89 4e 08	 mov	 DWORD PTR [esi+8], ecx

; 758  :         }
; 759  :         _CATCH_ALL
; 760  :         _Destroy(_Constructed_first, _Constructed_last);
; 761  :         _Al.deallocate(_Newvec, _Newcapacity);
; 762  :         _RERAISE;
; 763  :         _CATCH_END
; 764  : 
; 765  :         _Change_array(_Newvec, _Newsize, _Newcapacity);
; 766  :         return _Newvec + _Whereoff;

  000e4	5e		 pop	 esi
  000e5	5b		 pop	 ebx

; 767  :     }

  000e6	8b e5		 mov	 esp, ebp
  000e8	5d		 pop	 ebp
  000e9	c2 08 00	 ret	 8
$LN39@Emplace_re:

; 738  :             _Xlength();

  000ec	e8 00 00 00 00	 call	 ?_Xlength@?$vector@USEmoji@CGraphicTextInstance@@V?$allocator@USEmoji@CGraphicTextInstance@@@std@@@std@@CAXXZ ; std::vector<CGraphicTextInstance::SEmoji,std::allocator<CGraphicTextInstance::SEmoji> >::_Xlength
$LN40@Emplace_re:
; File C:\Program Files (x86)\Microsoft Visual Studio\2019\Community\VC\Tools\MSVC\14.27.29110\include\xmemory

; 61   :             _Throw_bad_array_new_length(); // multiply overflow

  000f1	e8 00 00 00 00	 call	 ?_Throw_bad_array_new_length@std@@YAXXZ ; std::_Throw_bad_array_new_length
$LN37@Emplace_re:
  000f6	cc		 int	 3
??$_Emplace_reallocate@ABUSEmoji@CGraphicTextInstance@@@?$vector@USEmoji@CGraphicTextInstance@@V?$allocator@USEmoji@CGraphicTextInstance@@@std@@@std@@QAEPAUSEmoji@CGraphicTextInstance@@QAU23@ABU23@@Z ENDP ; std::vector<CGraphicTextInstance::SEmoji,std::allocator<CGraphicTextInstance::SEmoji> >::_Emplace_reallocate<CGraphicTextInstance::SEmoji const &>
_TEXT	ENDS
; Function compile flags: /Ogtp
; File C:\DS Project\DS Files\Source\ClientSource\Client\EterLib\GrpTextInstance.cpp
;	COMDAT ?IsValidToken@@YA_NPBD@Z
_TEXT	SEGMENT
_iter$ = 8						; size = 4
?IsValidToken@@YA_NPBD@Z PROC				; IsValidToken, COMDAT

; 90   : {

  00000	55		 push	 ebp
  00001	8b ec		 mov	 ebp, esp
  00003	56		 push	 esi

; 91   : 	return	iter[0]=='@' &&

  00004	8b 75 08	 mov	 esi, DWORD PTR _iter$[ebp]
  00007	80 3e 40	 cmp	 BYTE PTR [esi], 64	; 00000040H
  0000a	75 49		 jne	 SHORT $LN3@IsValidTok
  0000c	0f b6 46 01	 movzx	 eax, BYTE PTR [esi+1]
  00010	50		 push	 eax
  00011	e8 00 00 00 00	 call	 ?isNumberic@@YA_ND@Z	; isNumberic
  00016	83 c4 04	 add	 esp, 4
  00019	84 c0		 test	 al, al
  0001b	74 38		 je	 SHORT $LN3@IsValidTok
  0001d	0f b6 46 02	 movzx	 eax, BYTE PTR [esi+2]
  00021	50		 push	 eax
  00022	e8 00 00 00 00	 call	 ?isNumberic@@YA_ND@Z	; isNumberic
  00027	83 c4 04	 add	 esp, 4
  0002a	84 c0		 test	 al, al
  0002c	74 27		 je	 SHORT $LN3@IsValidTok
  0002e	0f b6 46 03	 movzx	 eax, BYTE PTR [esi+3]
  00032	50		 push	 eax
  00033	e8 00 00 00 00	 call	 ?isNumberic@@YA_ND@Z	; isNumberic
  00038	83 c4 04	 add	 esp, 4
  0003b	84 c0		 test	 al, al
  0003d	74 16		 je	 SHORT $LN3@IsValidTok
  0003f	0f b6 46 04	 movzx	 eax, BYTE PTR [esi+4]
  00043	50		 push	 eax
  00044	e8 00 00 00 00	 call	 ?isNumberic@@YA_ND@Z	; isNumberic
  00049	83 c4 04	 add	 esp, 4
  0004c	84 c0		 test	 al, al
  0004e	74 05		 je	 SHORT $LN3@IsValidTok
  00050	b0 01		 mov	 al, 1
  00052	5e		 pop	 esi

; 92   : 		isNumberic(iter[1]) &&
; 93   : 		isNumberic(iter[2]) &&
; 94   : 		isNumberic(iter[3]) &&
; 95   : 		isNumberic(iter[4]);
; 96   : }

  00053	5d		 pop	 ebp
  00054	c3		 ret	 0
$LN3@IsValidTok:

; 91   : 	return	iter[0]=='@' &&

  00055	32 c0		 xor	 al, al
  00057	5e		 pop	 esi

; 92   : 		isNumberic(iter[1]) &&
; 93   : 		isNumberic(iter[2]) &&
; 94   : 		isNumberic(iter[3]) &&
; 95   : 		isNumberic(iter[4]);
; 96   : }

  00058	5d		 pop	 ebp
  00059	c3		 ret	 0
?IsValidToken@@YA_NPBD@Z ENDP				; IsValidToken
_TEXT	ENDS
; Function compile flags: /Ogtp
; File C:\DS Project\DS Files\Source\ClientSource\Client\EterLib\GrpTextInstance.cpp
;	COMDAT ?isNumberic@@YA_ND@Z
_TEXT	SEGMENT
_chr$ = 8						; size = 1
?isNumberic@@YA_ND@Z PROC				; isNumberic, COMDAT

; 83   : {

  00000	55		 push	 ebp
  00001	8b ec		 mov	 ebp, esp

; 84   : 	if (chr >= '0' && chr <= '9')

  00003	8a 45 08	 mov	 al, BYTE PTR _chr$[ebp]
  00006	2c 30		 sub	 al, 48			; 00000030H
  00008	3c 09		 cmp	 al, 9
  0000a	0f 96 c0	 setbe	 al

; 85   : 		return true;
; 86   : 	return false;
; 87   : }

  0000d	5d		 pop	 ebp
  0000e	c3		 ret	 0
?isNumberic@@YA_ND@Z ENDP				; isNumberic
_TEXT	ENDS
; Function compile flags: /Ogtp
; File C:\Program Files (x86)\Microsoft Visual Studio\2019\Community\VC\Tools\MSVC\14.27.29110\include\xstring
; File C:\Program Files (x86)\Microsoft Visual Studio\2019\Community\VC\Tools\MSVC\14.27.29110\include\xmemory
; File C:\Program Files (x86)\Microsoft Visual Studio\2019\Community\VC\Tools\MSVC\14.27.29110\include\xstring
;	COMDAT ??__Fgs_hyperlinkText@@YAXXZ
text$yd	SEGMENT
??__Fgs_hyperlinkText@@YAXXZ PROC			; `dynamic atexit destructor for 'gs_hyperlinkText'', COMDAT

; 2153 :         return _BUF_SIZE <= _Myres;

  00000	83 3d 14 00 00
	00 08		 cmp	 DWORD PTR ?gs_hyperlinkText@@3V?$basic_string@_WU?$char_traits@_W@std@@V?$allocator@_W@2@@std@@A+20, 8

; 4301 :         if (_Mypair._Myval2._Large_string_engaged()) {

  00007	72 28		 jb	 SHORT $LN7@dynamic

; 4302 :             const pointer _Ptr = _Mypair._Myval2._Bx._Ptr;

  00009	56		 push	 esi
  0000a	8b 35 00 00 00
	00		 mov	 esi, DWORD PTR ?gs_hyperlinkText@@3V?$basic_string@_WU?$char_traits@_W@std@@V?$allocator@_W@2@@std@@A

; 4303 :             auto& _Al          = _Getal();
; 4304 :             _Destroy_in_place(_Mypair._Myval2._Bx._Ptr);

  00010	68 00 00 00 00	 push	 OFFSET ?gs_hyperlinkText@@3V?$basic_string@_WU?$char_traits@_W@std@@V?$allocator@_W@2@@std@@A
  00015	e8 00 00 00 00	 call	 ??$_Destroy_in_place@PA_W@std@@YAXAAPA_W@Z ; std::_Destroy_in_place<wchar_t *>
; File C:\Program Files (x86)\Microsoft Visual Studio\2019\Community\VC\Tools\MSVC\14.27.29110\include\xmemory

; 803  :         _Deallocate<_New_alignof<_Ty>>(_Ptr, sizeof(_Ty) * _Count);

  0001a	a1 14 00 00 00	 mov	 eax, DWORD PTR ?gs_hyperlinkText@@3V?$basic_string@_WU?$char_traits@_W@std@@V?$allocator@_W@2@@std@@A+20
  0001f	8d 04 45 02 00
	00 00		 lea	 eax, DWORD PTR [eax*2+2]
  00026	50		 push	 eax
  00027	56		 push	 esi
  00028	e8 00 00 00 00	 call	 ??$_Deallocate@$07$0A@@std@@YAXPAXI@Z ; std::_Deallocate<8,0>
  0002d	83 c4 0c	 add	 esp, 12			; 0000000cH
  00030	5e		 pop	 esi
$LN7@dynamic:
; File C:\Program Files (x86)\Microsoft Visual Studio\2019\Community\VC\Tools\MSVC\14.27.29110\include\xstring

; 4311 :         _Traits::assign(_Mypair._Myval2._Bx._Buf[0], _Elem());

  00031	33 c0		 xor	 eax, eax
  00033	c7 05 10 00 00
	00 00 00 00 00	 mov	 DWORD PTR ?gs_hyperlinkText@@3V?$basic_string@_WU?$char_traits@_W@std@@V?$allocator@_W@2@@std@@A+16, 0
  0003d	c7 05 14 00 00
	00 07 00 00 00	 mov	 DWORD PTR ?gs_hyperlinkText@@3V?$basic_string@_WU?$char_traits@_W@std@@V?$allocator@_W@2@@std@@A+20, 7
  00047	66 a3 00 00 00
	00		 mov	 WORD PTR ?gs_hyperlinkText@@3V?$basic_string@_WU?$char_traits@_W@std@@V?$allocator@_W@2@@std@@A, ax
  0004d	c3		 ret	 0
??__Fgs_hyperlinkText@@YAXXZ ENDP			; `dynamic atexit destructor for 'gs_hyperlinkText''
text$yd	ENDS
; Function compile flags: /Ogtp
; File C:\DS Project\DS Files\Source\ClientSource\Client\EterLib\GrpTextInstance.cpp
;	COMDAT ??__Egs_hyperlinkText@@YAXXZ
text$di	SEGMENT
??__Egs_hyperlinkText@@YAXXZ PROC			; `dynamic initializer for 'gs_hyperlinkText'', COMDAT

; 22   : static std::wstring gs_hyperlinkText;

  00000	68 00 00 00 00	 push	 OFFSET ??__Fgs_hyperlinkText@@YAXXZ ; `dynamic atexit destructor for 'gs_hyperlinkText''
  00005	e8 00 00 00 00	 call	 _atexit
  0000a	59		 pop	 ecx
  0000b	c3		 ret	 0
??__Egs_hyperlinkText@@YAXXZ ENDP			; `dynamic initializer for 'gs_hyperlinkText''
text$di	ENDS
; Function compile flags: /Ogtp
;	COMDAT ??__F?ms_kPool@CGraphicTextInstance@@2V?$CDynamicPool@VCGraphicTextInstance@@@@A@@YAXXZ
text$yd	SEGMENT
??__F?ms_kPool@CGraphicTextInstance@@2V?$CDynamicPool@VCGraphicTextInstance@@@@A@@YAXXZ PROC ; `dynamic atexit destructor for 'CGraphicTextInstance::ms_kPool'', COMDAT
  00000	b9 00 00 00 00	 mov	 ecx, OFFSET ?ms_kPool@CGraphicTextInstance@@2V?$CDynamicPool@VCGraphicTextInstance@@@@A ; CGraphicTextInstance::ms_kPool
  00005	e9 00 00 00 00	 jmp	 ??1?$CDynamicPool@VCGraphicTextInstance@@@@UAE@XZ ; CDynamicPool<CGraphicTextInstance>::~CDynamicPool<CGraphicTextInstance>
??__F?ms_kPool@CGraphicTextInstance@@2V?$CDynamicPool@VCGraphicTextInstance@@@@A@@YAXXZ ENDP ; `dynamic atexit destructor for 'CGraphicTextInstance::ms_kPool''
text$yd	ENDS
; Function compile flags: /Ogtp
; File C:\DS Project\DS Files\Source\ClientSource\Client\EterLib\GrpTextInstance.cpp
;	COMDAT ??__E?ms_kPool@CGraphicTextInstance@@2V?$CDynamicPool@VCGraphicTextInstance@@@@A@@YAXXZ
text$di	SEGMENT
??__E?ms_kPool@CGraphicTextInstance@@2V?$CDynamicPool@VCGraphicTextInstance@@@@A@@YAXXZ PROC ; `dynamic initializer for 'CGraphicTextInstance::ms_kPool'', COMDAT

; 17   : CDynamicPool<CGraphicTextInstance>		CGraphicTextInstance::ms_kPool;

  00000	68 00 00 00 00	 push	 OFFSET ??__F?ms_kPool@CGraphicTextInstance@@2V?$CDynamicPool@VCGraphicTextInstance@@@@A@@YAXXZ ; `dynamic atexit destructor for 'CGraphicTextInstance::ms_kPool''
  00005	e8 00 00 00 00	 call	 _atexit
  0000a	59		 pop	 ecx
  0000b	c3		 ret	 0
??__E?ms_kPool@CGraphicTextInstance@@2V?$CDynamicPool@VCGraphicTextInstance@@@@A@@YAXXZ ENDP ; `dynamic initializer for 'CGraphicTextInstance::ms_kPool''
text$di	ENDS
; Function compile flags: /Ogtp
;	COMDAT ??_G?$CDynamicPool@VCGraphicTextInstance@@@@UAEPAXI@Z
_TEXT	SEGMENT
___flags$ = 8						; size = 4
??_G?$CDynamicPool@VCGraphicTextInstance@@@@UAEPAXI@Z PROC ; CDynamicPool<CGraphicTextInstance>::`scalar deleting destructor', COMDAT
; _this$ = ecx
  00000	55		 push	 ebp
  00001	8b ec		 mov	 ebp, esp
  00003	56		 push	 esi
  00004	8b f1		 mov	 esi, ecx
  00006	e8 00 00 00 00	 call	 ??1?$CDynamicPool@VCGraphicTextInstance@@@@UAE@XZ ; CDynamicPool<CGraphicTextInstance>::~CDynamicPool<CGraphicTextInstance>
  0000b	f6 45 08 01	 test	 BYTE PTR ___flags$[ebp], 1
  0000f	74 0b		 je	 SHORT $LN4@scalar
  00011	6a 24		 push	 36			; 00000024H
  00013	56		 push	 esi
  00014	e8 00 00 00 00	 call	 ??3@YAXPAXI@Z		; operator delete
  00019	83 c4 08	 add	 esp, 8
$LN4@scalar:
  0001c	8b c6		 mov	 eax, esi
  0001e	5e		 pop	 esi
  0001f	5d		 pop	 ebp
  00020	c2 04 00	 ret	 4
??_G?$CDynamicPool@VCGraphicTextInstance@@@@UAEPAXI@Z ENDP ; CDynamicPool<CGraphicTextInstance>::`scalar deleting destructor'
_TEXT	ENDS
; Function compile flags: /Ogtp
; File C:\Program Files (x86)\Microsoft Visual Studio\2019\Community\VC\Tools\MSVC\14.27.29110\include\vector
;	COMDAT ?_Xlength@?$vector@PAVCGraphicTextInstance@@V?$allocator@PAVCGraphicTextInstance@@@std@@@std@@CAXXZ
_TEXT	SEGMENT
?_Xlength@?$vector@PAVCGraphicTextInstance@@V?$allocator@PAVCGraphicTextInstance@@@std@@@std@@CAXXZ PROC ; std::vector<CGraphicTextInstance *,std::allocator<CGraphicTextInstance *> >::_Xlength, COMDAT

; 1704 :         _Xlength_error("vector too long");

  00000	68 00 00 00 00	 push	 OFFSET ??_C@_0BA@FOIKENOD@vector?5too?5long@
  00005	e8 00 00 00 00	 call	 ?_Xlength_error@std@@YAXPBD@Z ; std::_Xlength_error
$LN3@Xlength:
  0000a	cc		 int	 3
?_Xlength@?$vector@PAVCGraphicTextInstance@@V?$allocator@PAVCGraphicTextInstance@@@std@@@std@@CAXXZ ENDP ; std::vector<CGraphicTextInstance *,std::allocator<CGraphicTextInstance *> >::_Xlength
_TEXT	ENDS
; Function compile flags: /Ogtp
; File C:\Program Files (x86)\Microsoft Visual Studio\2019\Community\VC\Tools\MSVC\14.27.29110\include\vector
; File C:\Program Files (x86)\Microsoft Visual Studio\2019\Community\VC\Tools\MSVC\14.27.29110\include\xmemory
; File C:\Program Files (x86)\Microsoft Visual Studio\2019\Community\VC\Tools\MSVC\14.27.29110\include\vector
; File C:\Program Files (x86)\Microsoft Visual Studio\2019\Community\VC\Tools\MSVC\14.27.29110\include\xmemory
; File C:\Program Files (x86)\Microsoft Visual Studio\2019\Community\VC\Tools\MSVC\14.27.29110\include\vector
; File C:\Program Files (x86)\Microsoft Visual Studio\2019\Community\VC\Tools\MSVC\14.27.29110\include\xmemory
; File C:\Program Files (x86)\Microsoft Visual Studio\2019\Community\VC\Tools\MSVC\14.27.29110\include\vector
; File C:\Program Files (x86)\Microsoft Visual Studio\2019\Community\VC\Tools\MSVC\14.27.29110\include\xmemory
; File C:\Program Files (x86)\Microsoft Visual Studio\2019\Community\VC\Tools\MSVC\14.27.29110\include\vector
; File C:\Program Files (x86)\Microsoft Visual Studio\2019\Community\VC\Tools\MSVC\14.27.29110\include\xmemory
; File C:\Program Files (x86)\Microsoft Visual Studio\2019\Community\VC\Tools\MSVC\14.27.29110\include\vector
;	COMDAT ?_Reallocate_exactly@?$vector@PAVCGraphicTextInstance@@V?$allocator@PAVCGraphicTextInstance@@@std@@@std@@AAEXI@Z
_TEXT	SEGMENT
tv254 = 8						; size = 4
__Newcapacity$ = 8					; size = 4
?_Reallocate_exactly@?$vector@PAVCGraphicTextInstance@@V?$allocator@PAVCGraphicTextInstance@@@std@@@std@@AAEXI@Z PROC ; std::vector<CGraphicTextInstance *,std::allocator<CGraphicTextInstance *> >::_Reallocate_exactly, COMDAT
; _this$ = ecx

; 1251 :     void _Reallocate_exactly(const size_type _Newcapacity) {

  00000	55		 push	 ebp
  00001	8b ec		 mov	 ebp, esp
; File C:\Program Files (x86)\Microsoft Visual Studio\2019\Community\VC\Tools\MSVC\14.27.29110\include\xmemory

; 60   :         if (_Count > _Max_possible) {

  00003	8b 45 08	 mov	 eax, DWORD PTR __Newcapacity$[ebp]
; File C:\Program Files (x86)\Microsoft Visual Studio\2019\Community\VC\Tools\MSVC\14.27.29110\include\vector

; 1251 :     void _Reallocate_exactly(const size_type _Newcapacity) {

  00006	53		 push	 ebx
  00007	56		 push	 esi
  00008	8b f1		 mov	 esi, ecx
  0000a	57		 push	 edi

; 1252 :         // set capacity to _Newcapacity (without geometric growth), provide strong guarantee
; 1253 :         auto& _My_data    = _Mypair._Myval2;
; 1254 :         pointer& _Myfirst = _My_data._Myfirst;
; 1255 :         pointer& _Mylast  = _My_data._Mylast;
; 1256 : 
; 1257 :         const auto _Size = static_cast<size_type>(_Mylast - _Myfirst);

  0000b	8b 7e 04	 mov	 edi, DWORD PTR [esi+4]
  0000e	2b 3e		 sub	 edi, DWORD PTR [esi]
  00010	c1 ff 02	 sar	 edi, 2
; File C:\Program Files (x86)\Microsoft Visual Studio\2019\Community\VC\Tools\MSVC\14.27.29110\include\xmemory

; 60   :         if (_Count > _Max_possible) {

  00013	3d ff ff ff 3f	 cmp	 eax, 1073741823		; 3fffffffH
  00018	77 4c		 ja	 SHORT $LN26@Reallocate

; 62   :         }
; 63   :     }
; 64   : 
; 65   :     return _Count * _Ty_size;

  0001a	c1 e0 02	 shl	 eax, 2

; 807  :         return static_cast<_Ty*>(_Allocate<_New_alignof<_Ty>>(_Get_size_of_n<sizeof(_Ty)>(_Count)));

  0001d	50		 push	 eax

; 65   :     return _Count * _Ty_size;

  0001e	89 45 08	 mov	 DWORD PTR tv254[ebp], eax

; 807  :         return static_cast<_Ty*>(_Allocate<_New_alignof<_Ty>>(_Get_size_of_n<sizeof(_Ty)>(_Count)));

  00021	e8 00 00 00 00	 call	 ??$_Allocate@$07U_Default_allocate_traits@std@@$0A@@std@@YAPAXI@Z ; std::_Allocate<8,std::_Default_allocate_traits,0>
; File C:\Program Files (x86)\Microsoft Visual Studio\2019\Community\VC\Tools\MSVC\14.27.29110\include\vector

; 1597 :         _Uninitialized_move(_First, _Last, _Dest, _Getal());

  00026	56		 push	 esi
; File C:\Program Files (x86)\Microsoft Visual Studio\2019\Community\VC\Tools\MSVC\14.27.29110\include\xmemory

; 807  :         return static_cast<_Ty*>(_Allocate<_New_alignof<_Ty>>(_Get_size_of_n<sizeof(_Ty)>(_Count)));

  00027	8b d8		 mov	 ebx, eax
; File C:\Program Files (x86)\Microsoft Visual Studio\2019\Community\VC\Tools\MSVC\14.27.29110\include\vector

; 1597 :         _Uninitialized_move(_First, _Last, _Dest, _Getal());

  00029	53		 push	 ebx
  0002a	ff 76 04	 push	 DWORD PTR [esi+4]
  0002d	ff 36		 push	 DWORD PTR [esi]
  0002f	e8 00 00 00 00	 call	 ??$_Uninitialized_move@PAPAVCGraphicTextInstance@@V?$allocator@PAVCGraphicTextInstance@@@std@@@std@@YAPAPAVCGraphicTextInstance@@QAPAV1@0PAPAV1@AAV?$allocator@PAVCGraphicTextInstance@@@0@@Z ; std::_Uninitialized_move<CGraphicTextInstance * *,std::allocator<CGraphicTextInstance *> >

; 1675 :         if (_Myfirst) { // destroy and deallocate old array

  00034	8b 0e		 mov	 ecx, DWORD PTR [esi]

; 1597 :         _Uninitialized_move(_First, _Last, _Dest, _Getal());

  00036	83 c4 14	 add	 esp, 20			; 00000014H

; 1675 :         if (_Myfirst) { // destroy and deallocate old array

  00039	85 c9		 test	 ecx, ecx
  0003b	74 12		 je	 SHORT $LN20@Reallocate

; 1676 :             _Destroy(_Myfirst, _Mylast);
; 1677 :             _Getal().deallocate(_Myfirst, static_cast<size_type>(_Myend - _Myfirst));

  0003d	8b 46 08	 mov	 eax, DWORD PTR [esi+8]
  00040	2b c1		 sub	 eax, ecx
; File C:\Program Files (x86)\Microsoft Visual Studio\2019\Community\VC\Tools\MSVC\14.27.29110\include\xmemory

; 803  :         _Deallocate<_New_alignof<_Ty>>(_Ptr, sizeof(_Ty) * _Count);

  00042	83 e0 fc	 and	 eax, -4			; fffffffcH
  00045	50		 push	 eax
  00046	51		 push	 ecx
  00047	e8 00 00 00 00	 call	 ??$_Deallocate@$07$0A@@std@@YAXPAXI@Z ; std::_Deallocate<8,0>
  0004c	83 c4 08	 add	 esp, 8
$LN20@Reallocate:
; File C:\Program Files (x86)\Microsoft Visual Studio\2019\Community\VC\Tools\MSVC\14.27.29110\include\vector

; 1681 :         _Mylast  = _Newvec + _Newsize;

  0004f	8d 04 bb	 lea	 eax, DWORD PTR [ebx+edi*4]
  00052	89 1e		 mov	 DWORD PTR [esi], ebx
  00054	89 46 04	 mov	 DWORD PTR [esi+4], eax

; 1682 :         _Myend   = _Newvec + _Newcapacity;

  00057	8b 45 08	 mov	 eax, DWORD PTR tv254[ebp]
  0005a	03 c3		 add	 eax, ebx
  0005c	5f		 pop	 edi
  0005d	89 46 08	 mov	 DWORD PTR [esi+8], eax
  00060	5e		 pop	 esi
  00061	5b		 pop	 ebx

; 1269 :     }

  00062	5d		 pop	 ebp
  00063	c2 04 00	 ret	 4
$LN26@Reallocate:
; File C:\Program Files (x86)\Microsoft Visual Studio\2019\Community\VC\Tools\MSVC\14.27.29110\include\xmemory

; 61   :             _Throw_bad_array_new_length(); // multiply overflow

  00066	e8 00 00 00 00	 call	 ?_Throw_bad_array_new_length@std@@YAXXZ ; std::_Throw_bad_array_new_length
$LN24@Reallocate:
  0006b	cc		 int	 3
?_Reallocate_exactly@?$vector@PAVCGraphicTextInstance@@V?$allocator@PAVCGraphicTextInstance@@@std@@@std@@AAEXI@Z ENDP ; std::vector<CGraphicTextInstance *,std::allocator<CGraphicTextInstance *> >::_Reallocate_exactly
_TEXT	ENDS
; Function compile flags: /Ogtp
; File C:\DS Project\DS Files\Source\ClientSource\Client\EterLib\Pool.h
;	COMDAT ?Delete@?$CDynamicPool@VCGraphicTextInstance@@@@KAXPAVCGraphicTextInstance@@@Z
_TEXT	SEGMENT
_pkData$ = 8						; size = 4
?Delete@?$CDynamicPool@VCGraphicTextInstance@@@@KAXPAVCGraphicTextInstance@@@Z PROC ; CDynamicPool<CGraphicTextInstance>::Delete, COMDAT

; 109  : 		{

  00000	55		 push	 ebp
  00001	8b ec		 mov	 ebp, esp

; 110  : 			delete pkData;

  00003	8b 4d 08	 mov	 ecx, DWORD PTR _pkData$[ebp]
  00006	85 c9		 test	 ecx, ecx
  00008	74 06		 je	 SHORT $LN3@Delete
  0000a	8b 01		 mov	 eax, DWORD PTR [ecx]
  0000c	6a 01		 push	 1
  0000e	ff 10		 call	 DWORD PTR [eax]
$LN3@Delete:

; 111  : 		}

  00010	5d		 pop	 ebp
  00011	c3		 ret	 0
?Delete@?$CDynamicPool@VCGraphicTextInstance@@@@KAXPAVCGraphicTextInstance@@@Z ENDP ; CDynamicPool<CGraphicTextInstance>::Delete
_TEXT	ENDS
; Function compile flags: /Ogtp
; File C:\DS Project\DS Files\Source\ClientSource\Client\EterLib\Pool.h
; File C:\Program Files (x86)\Microsoft Visual Studio\2019\Community\VC\Tools\MSVC\14.27.29110\include\vector
; File C:\Program Files (x86)\Microsoft Visual Studio\2019\Community\VC\Tools\MSVC\14.27.29110\include\xmemory
; File C:\Program Files (x86)\Microsoft Visual Studio\2019\Community\VC\Tools\MSVC\14.27.29110\include\vector
; File C:\Program Files (x86)\Microsoft Visual Studio\2019\Community\VC\Tools\MSVC\14.27.29110\include\xmemory
; File C:\Program Files (x86)\Microsoft Visual Studio\2019\Community\VC\Tools\MSVC\14.27.29110\include\vector
; File C:\Program Files (x86)\Microsoft Visual Studio\2019\Community\VC\Tools\MSVC\14.27.29110\include\xmemory
; File C:\Program Files (x86)\Microsoft Visual Studio\2019\Community\VC\Tools\MSVC\14.27.29110\include\vector
; File C:\Program Files (x86)\Microsoft Visual Studio\2019\Community\VC\Tools\MSVC\14.27.29110\include\xmemory
; File C:\Program Files (x86)\Microsoft Visual Studio\2019\Community\VC\Tools\MSVC\14.27.29110\include\vector
; File C:\DS Project\DS Files\Source\ClientSource\Client\EterLib\Pool.h
;	COMDAT ??1?$CDynamicPool@VCGraphicTextInstance@@@@UAE@XZ
_TEXT	SEGMENT
??1?$CDynamicPool@VCGraphicTextInstance@@@@UAE@XZ PROC	; CDynamicPool<CGraphicTextInstance>::~CDynamicPool<CGraphicTextInstance>, COMDAT
; _this$ = ecx

; 18   : 		{

  00000	56		 push	 esi
  00001	8b f1		 mov	 esi, ecx
  00003	c7 06 00 00 00
	00		 mov	 DWORD PTR [esi], OFFSET ??_7?$CDynamicPool@VCGraphicTextInstance@@@@6B@
; File C:\Program Files (x86)\Microsoft Visual Studio\2019\Community\VC\Tools\MSVC\14.27.29110\include\vector

; 1693 :         if (_Myfirst) { // destroy and deallocate old array

  00009	8b 4e 10	 mov	 ecx, DWORD PTR [esi+16]
  0000c	85 c9		 test	 ecx, ecx
  0000e	74 27		 je	 SHORT $LN6@CDynamicPo

; 1694 :             _Destroy(_Myfirst, _Mylast);
; 1695 :             _Getal().deallocate(_Myfirst, static_cast<size_type>(_Myend - _Myfirst));

  00010	8b 46 18	 mov	 eax, DWORD PTR [esi+24]
  00013	2b c1		 sub	 eax, ecx
; File C:\Program Files (x86)\Microsoft Visual Studio\2019\Community\VC\Tools\MSVC\14.27.29110\include\xmemory

; 803  :         _Deallocate<_New_alignof<_Ty>>(_Ptr, sizeof(_Ty) * _Count);

  00015	83 e0 fc	 and	 eax, -4			; fffffffcH
  00018	50		 push	 eax
  00019	51		 push	 ecx
  0001a	e8 00 00 00 00	 call	 ??$_Deallocate@$07$0A@@std@@YAXPAXI@Z ; std::_Deallocate<8,0>
; File C:\Program Files (x86)\Microsoft Visual Studio\2019\Community\VC\Tools\MSVC\14.27.29110\include\vector

; 1697 :             _Myfirst = pointer();

  0001f	c7 46 10 00 00
	00 00		 mov	 DWORD PTR [esi+16], 0
; File C:\Program Files (x86)\Microsoft Visual Studio\2019\Community\VC\Tools\MSVC\14.27.29110\include\xmemory

; 803  :         _Deallocate<_New_alignof<_Ty>>(_Ptr, sizeof(_Ty) * _Count);

  00026	83 c4 08	 add	 esp, 8
; File C:\Program Files (x86)\Microsoft Visual Studio\2019\Community\VC\Tools\MSVC\14.27.29110\include\vector

; 1698 :             _Mylast  = pointer();

  00029	c7 46 14 00 00
	00 00		 mov	 DWORD PTR [esi+20], 0

; 1699 :             _Myend   = pointer();

  00030	c7 46 18 00 00
	00 00		 mov	 DWORD PTR [esi+24], 0
$LN6@CDynamicPo:

; 1693 :         if (_Myfirst) { // destroy and deallocate old array

  00037	8b 4e 04	 mov	 ecx, DWORD PTR [esi+4]
  0003a	85 c9		 test	 ecx, ecx
  0003c	74 27		 je	 SHORT $LN13@CDynamicPo

; 1694 :             _Destroy(_Myfirst, _Mylast);
; 1695 :             _Getal().deallocate(_Myfirst, static_cast<size_type>(_Myend - _Myfirst));

  0003e	8b 46 0c	 mov	 eax, DWORD PTR [esi+12]
  00041	2b c1		 sub	 eax, ecx
; File C:\Program Files (x86)\Microsoft Visual Studio\2019\Community\VC\Tools\MSVC\14.27.29110\include\xmemory

; 803  :         _Deallocate<_New_alignof<_Ty>>(_Ptr, sizeof(_Ty) * _Count);

  00043	83 e0 fc	 and	 eax, -4			; fffffffcH
  00046	50		 push	 eax
  00047	51		 push	 ecx
  00048	e8 00 00 00 00	 call	 ??$_Deallocate@$07$0A@@std@@YAXPAXI@Z ; std::_Deallocate<8,0>
; File C:\Program Files (x86)\Microsoft Visual Studio\2019\Community\VC\Tools\MSVC\14.27.29110\include\vector

; 1697 :             _Myfirst = pointer();

  0004d	c7 46 04 00 00
	00 00		 mov	 DWORD PTR [esi+4], 0
; File C:\Program Files (x86)\Microsoft Visual Studio\2019\Community\VC\Tools\MSVC\14.27.29110\include\xmemory

; 803  :         _Deallocate<_New_alignof<_Ty>>(_Ptr, sizeof(_Ty) * _Count);

  00054	83 c4 08	 add	 esp, 8
; File C:\Program Files (x86)\Microsoft Visual Studio\2019\Community\VC\Tools\MSVC\14.27.29110\include\vector

; 1698 :             _Mylast  = pointer();

  00057	c7 46 08 00 00
	00 00		 mov	 DWORD PTR [esi+8], 0

; 1699 :             _Myend   = pointer();

  0005e	c7 46 0c 00 00
	00 00		 mov	 DWORD PTR [esi+12], 0
$LN13@CDynamicPo:
  00065	5e		 pop	 esi
; File C:\DS Project\DS Files\Source\ClientSource\Client\EterLib\Pool.h

; 26   : 		}

  00066	c3		 ret	 0
??1?$CDynamicPool@VCGraphicTextInstance@@@@UAE@XZ ENDP	; CDynamicPool<CGraphicTextInstance>::~CDynamicPool<CGraphicTextInstance>
_TEXT	ENDS
; Function compile flags: /Ogtp
; File C:\DS Project\DS Files\Source\ClientSource\Client\EterLib\GrpTextInstance.cpp
;	COMDAT ?ReadToken@@YAHPBD@Z
_TEXT	SEGMENT
_token$ = 8						; size = 4
?ReadToken@@YAHPBD@Z PROC				; ReadToken, COMDAT

; 118  : {

  00000	55		 push	 ebp
  00001	8b ec		 mov	 ebp, esp

; 119  : 	int nRet = (token[1]-'0')*1000 + (token[2]-'0')*100 + (token[3]-'0')*10 + (token[4]-'0');

  00003	8b 55 08	 mov	 edx, DWORD PTR _token$[ebp]
  00006	0f be 42 01	 movsx	 eax, BYTE PTR [edx+1]
  0000a	8d 0c 80	 lea	 ecx, DWORD PTR [eax+eax*4]
  0000d	0f be 42 02	 movsx	 eax, BYTE PTR [edx+2]
  00011	8d 04 48	 lea	 eax, DWORD PTR [eax+ecx*2]
  00014	8d 0c 80	 lea	 ecx, DWORD PTR [eax+eax*4]
  00017	0f be 42 03	 movsx	 eax, BYTE PTR [edx+3]
  0001b	8d 04 48	 lea	 eax, DWORD PTR [eax+ecx*2]
  0001e	8d 0c 80	 lea	 ecx, DWORD PTR [eax+eax*4]
  00021	0f be 42 04	 movsx	 eax, BYTE PTR [edx+4]
  00025	8d 04 48	 lea	 eax, DWORD PTR [eax+ecx*2]

; 120  : 	if (nRet == 9999)

  00028	b9 e9 fd 00 00	 mov	 ecx, 65001		; 0000fde9H
  0002d	05 b0 2f ff ff	 add	 eax, -53328		; ffff2fb0H
  00032	3d 0f 27 00 00	 cmp	 eax, 9999		; 0000270fH
  00037	0f 44 c1	 cmove	 eax, ecx

; 121  : 		return CP_UTF8;
; 122  : 	return nRet;
; 123  : }

  0003a	5d		 pop	 ebp
  0003b	c3		 ret	 0
?ReadToken@@YAHPBD@Z ENDP				; ReadToken
_TEXT	ENDS
; Function compile flags: /Ogtp
; File C:\DS Project\DS Files\Source\ClientSource\Client\EterLib\GrpTextInstance.cpp
; File C:\Program Files (x86)\Microsoft Visual Studio\2019\Community\VC\Tools\MSVC\14.27.29110\include\xutility
; File C:\DS Project\DS Files\Source\ClientSource\Client\EterLib\GrpTextInstance.cpp
;	COMDAT ?FindToken@@YAPBDPBD0@Z
_TEXT	SEGMENT
_begin$ = 8						; size = 4
_end$ = 12						; size = 4
?FindToken@@YAPBDPBD0@Z PROC				; FindToken, COMDAT

; 99   : {

  00000	55		 push	 ebp
  00001	8b ec		 mov	 ebp, esp
  00003	56		 push	 esi

; 100  : 	while(begin < end)

  00004	8b 75 08	 mov	 esi, DWORD PTR _begin$[ebp]
  00007	57		 push	 edi
  00008	8b 7d 0c	 mov	 edi, DWORD PTR _end$[ebp]
  0000b	3b f7		 cmp	 esi, edi
  0000d	73 33		 jae	 SHORT $LN18@FindToken
  0000f	90		 npad	 1
$LL2@FindToken:
; File C:\Program Files (x86)\Microsoft Visual Studio\2019\Community\VC\Tools\MSVC\14.27.29110\include\xutility

; 5154 :     _First =

  00010	8b c7		 mov	 eax, edi
  00012	2b c6		 sub	 eax, esi
  00014	50		 push	 eax
  00015	6a 40		 push	 64			; 00000040H
  00017	56		 push	 esi
  00018	e8 00 00 00 00	 call	 _memchr
  0001d	83 c4 0c	 add	 esp, 12			; 0000000cH

; 5155 :         static_cast<_InIt>(_CSTD memchr(_First, static_cast<unsigned char>(_Val), static_cast<size_t>(_Last - _First)));
; 5156 :     return _First ? _First : _Last;

  00020	8b f7		 mov	 esi, edi
  00022	85 c0		 test	 eax, eax
  00024	0f 45 f0	 cmovne	 esi, eax
; File C:\DS Project\DS Files\Source\ClientSource\Client\EterLib\GrpTextInstance.cpp

; 104  : 		if(end-begin>5 && IsValidToken(begin))

  00027	8b c7		 mov	 eax, edi
  00029	2b c6		 sub	 eax, esi
  0002b	83 f8 05	 cmp	 eax, 5
  0002e	7e 0d		 jle	 SHORT $LN4@FindToken
  00030	56		 push	 esi
  00031	e8 00 00 00 00	 call	 ?IsValidToken@@YA_NPBD@Z ; IsValidToken
  00036	83 c4 04	 add	 esp, 4
  00039	84 c0		 test	 al, al
  0003b	75 0b		 jne	 SHORT $LN15@FindToken
$LN4@FindToken:

; 107  : 		}
; 108  : 		else
; 109  : 		{
; 110  : 			++begin;

  0003d	46		 inc	 esi
  0003e	3b f7		 cmp	 esi, edi
  00040	72 ce		 jb	 SHORT $LL2@FindToken
$LN18@FindToken:

; 111  : 		}
; 112  : 	}
; 113  : 
; 114  : 	return end;

  00042	8b c7		 mov	 eax, edi
  00044	5f		 pop	 edi

; 115  : }

  00045	5e		 pop	 esi
  00046	5d		 pop	 ebp
  00047	c3		 ret	 0
$LN15@FindToken:
  00048	5f		 pop	 edi

; 105  : 		{
; 106  : 			return begin;

  00049	8b c6		 mov	 eax, esi

; 115  : }

  0004b	5e		 pop	 esi
  0004c	5d		 pop	 ebp
  0004d	c3		 ret	 0
?FindToken@@YAPBDPBD0@Z ENDP				; FindToken
_TEXT	ENDS
; Function compile flags: /Ogtp
;	COMDAT ??_GCGraphicTextInstance@@UAEPAXI@Z
_TEXT	SEGMENT
___flags$ = 8						; size = 4
??_GCGraphicTextInstance@@UAEPAXI@Z PROC		; CGraphicTextInstance::`scalar deleting destructor', COMDAT
; _this$ = ecx
  00000	55		 push	 ebp
  00001	8b ec		 mov	 ebp, esp
  00003	56		 push	 esi
  00004	8b f1		 mov	 esi, ecx
  00006	e8 00 00 00 00	 call	 ??1CGraphicTextInstance@@UAE@XZ ; CGraphicTextInstance::~CGraphicTextInstance
  0000b	f6 45 08 01	 test	 BYTE PTR ___flags$[ebp], 1
  0000f	74 0b		 je	 SHORT $LN4@scalar
  00011	6a 7c		 push	 124			; 0000007cH
  00013	56		 push	 esi
  00014	e8 00 00 00 00	 call	 ??3@YAXPAXI@Z		; operator delete
  00019	83 c4 08	 add	 esp, 8
$LN4@scalar:
  0001c	8b c6		 mov	 eax, esi
  0001e	5e		 pop	 esi
  0001f	5d		 pop	 ebp
  00020	c2 04 00	 ret	 4
??_GCGraphicTextInstance@@UAEPAXI@Z ENDP		; CGraphicTextInstance::`scalar deleting destructor'
_TEXT	ENDS
; Function compile flags: /Ogtp
; File C:\DS Project\DS Files\Source\ClientSource\Client\EterLib\GrpTextInstance.cpp
; File C:\Program Files (x86)\Microsoft Visual Studio\2019\Community\VC\Tools\MSVC\14.27.29110\include\vector
; File C:\DS Project\DS Files\Source\ClientSource\Client\EterLib\GrpTextInstance.cpp
; File C:\Program Files (x86)\Microsoft Visual Studio\2019\Community\VC\Tools\MSVC\14.27.29110\include\vector
; File C:\DS Project\DS Files\Source\ClientSource\Client\EterLib\GrpTextInstance.cpp
; File C:\Program Files (x86)\Microsoft Visual Studio\2019\Community\VC\Tools\MSVC\14.27.29110\include\vector
; File C:\DS Project\DS Files\Source\ClientSource\Client\EterLib\GrpTextInstance.cpp
;	COMDAT ?Delete@CGraphicTextInstance@@SAXPAV1@@Z
_TEXT	SEGMENT
_pkData$ = 8						; size = 4
_pkInst$ = 8						; size = 4
?Delete@CGraphicTextInstance@@SAXPAV1@@Z PROC		; CGraphicTextInstance::Delete, COMDAT

; 958  : {

  00000	55		 push	 ebp
  00001	8b ec		 mov	 ebp, esp
  00003	56		 push	 esi

; 959  : 	pkInst->Destroy();

  00004	8b 75 08	 mov	 esi, DWORD PTR _pkInst$[ebp]
  00007	8b ce		 mov	 ecx, esi
  00009	e8 00 00 00 00	 call	 ?Destroy@CGraphicTextInstance@@QAEXXZ ; CGraphicTextInstance::Destroy
; File C:\Program Files (x86)\Microsoft Visual Studio\2019\Community\VC\Tools\MSVC\14.27.29110\include\vector

; 704  :         if (_Mylast != _My_data._Myend) {

  0000e	a1 14 00 00 00	 mov	 eax, DWORD PTR ?ms_kPool@CGraphicTextInstance@@2V?$CDynamicPool@VCGraphicTextInstance@@@@A+20
; File C:\DS Project\DS Files\Source\ClientSource\Client\EterLib\GrpTextInstance.cpp

; 960  : 	ms_kPool.Free(pkInst);

  00013	89 75 08	 mov	 DWORD PTR _pkData$[ebp], esi
; File C:\Program Files (x86)\Microsoft Visual Studio\2019\Community\VC\Tools\MSVC\14.27.29110\include\vector

; 704  :         if (_Mylast != _My_data._Myend) {

  00016	3b 05 18 00 00
	00		 cmp	 eax, DWORD PTR ?ms_kPool@CGraphicTextInstance@@2V?$CDynamicPool@VCGraphicTextInstance@@@@A+24
  0001c	74 0c		 je	 SHORT $LN8@Delete

; 687  :         _Alty_traits::construct(_Getal(), _Unfancy(_Mylast), _STD forward<_Valty>(_Val)...);

  0001e	89 30		 mov	 DWORD PTR [eax], esi

; 688  :         _Orphan_range(_Mylast, _Mylast);
; 689  :         _Ty& _Result = *_Mylast;
; 690  :         ++_Mylast;

  00020	83 05 14 00 00
	00 04		 add	 DWORD PTR ?ms_kPool@CGraphicTextInstance@@2V?$CDynamicPool@VCGraphicTextInstance@@@@A+20, 4
  00027	5e		 pop	 esi
; File C:\DS Project\DS Files\Source\ClientSource\Client\EterLib\GrpTextInstance.cpp

; 961  : }

  00028	5d		 pop	 ebp
  00029	c3		 ret	 0
$LN8@Delete:
; File C:\Program Files (x86)\Microsoft Visual Studio\2019\Community\VC\Tools\MSVC\14.27.29110\include\vector

; 708  :         _Ty& _Result = *_Emplace_reallocate(_Mylast, _STD forward<_Valty>(_Val)...);

  0002a	8d 4d 08	 lea	 ecx, DWORD PTR _pkData$[ebp]
  0002d	51		 push	 ecx
  0002e	50		 push	 eax
  0002f	b9 10 00 00 00	 mov	 ecx, OFFSET ?ms_kPool@CGraphicTextInstance@@2V?$CDynamicPool@VCGraphicTextInstance@@@@A+16
  00034	e8 00 00 00 00	 call	 ??$_Emplace_reallocate@ABQAVCGraphicTextInstance@@@?$vector@PAVCGraphicTextInstance@@V?$allocator@PAVCGraphicTextInstance@@@std@@@std@@QAEPAPAVCGraphicTextInstance@@QAPAV2@ABQAV2@@Z ; std::vector<CGraphicTextInstance *,std::allocator<CGraphicTextInstance *> >::_Emplace_reallocate<CGraphicTextInstance * const &>
  00039	5e		 pop	 esi
; File C:\DS Project\DS Files\Source\ClientSource\Client\EterLib\GrpTextInstance.cpp

; 961  : }

  0003a	5d		 pop	 ebp
  0003b	c3		 ret	 0
?Delete@CGraphicTextInstance@@SAXPAV1@@Z ENDP		; CGraphicTextInstance::Delete
_TEXT	ENDS
; Function compile flags: /Ogtp
; File C:\DS Project\DS Files\Source\ClientSource\Client\EterLib\GrpTextInstance.cpp
; File C:\DS Project\DS Files\Source\ClientSource\Client\EterLib\Pool.h
; File C:\Program Files (x86)\Microsoft Visual Studio\2019\Community\VC\Tools\MSVC\14.27.29110\include\vector
; File C:\DS Project\DS Files\Source\ClientSource\Client\EterLib\Pool.h
; File C:\Program Files (x86)\Microsoft Visual Studio\2019\Community\VC\Tools\MSVC\14.27.29110\include\vector
; File C:\DS Project\DS Files\Source\ClientSource\Client\EterLib\GrpTextInstance.cpp
; File C:\Program Files (x86)\Microsoft Visual Studio\2019\Community\VC\Tools\MSVC\14.27.29110\include\vector
; File C:\DS Project\DS Files\Source\ClientSource\Client\EterLib\Pool.h
; File C:\DS Project\DS Files\Source\ClientSource\Client\EterLib\GrpTextInstance.cpp
; File C:\Program Files (x86)\Microsoft Visual Studio\2019\Community\VC\Tools\MSVC\14.27.29110\include\vector
; File C:\DS Project\DS Files\Source\ClientSource\Client\EterLib\Pool.h
; File C:\DS Project\DS Files\Source\ClientSource\Client\EterLib\GrpTextInstance.cpp
; File C:\DS Project\DS Files\Source\ClientSource\Client\EterLib\Pool.h
; File C:\Program Files (x86)\Microsoft Visual Studio\2019\Community\VC\Tools\MSVC\14.27.29110\include\vector
; File C:\DS Project\DS Files\Source\ClientSource\Client\EterLib\GrpTextInstance.cpp
;	COMDAT ?New@CGraphicTextInstance@@SAPAV1@XZ
_TEXT	SEGMENT
$T2 = -16						; size = 4
_pkNewData$3 = -16					; size = 4
__$EHRec$ = -12						; size = 12
?New@CGraphicTextInstance@@SAPAV1@XZ PROC		; CGraphicTextInstance::New, COMDAT

; 953  : {

  00000	55		 push	 ebp
  00001	8b ec		 mov	 ebp, esp
  00003	6a ff		 push	 -1
  00005	68 00 00 00 00	 push	 __ehhandler$?New@CGraphicTextInstance@@SAPAV1@XZ
  0000a	64 a1 00 00 00
	00		 mov	 eax, DWORD PTR fs:0
  00010	50		 push	 eax
  00011	51		 push	 ecx
  00012	56		 push	 esi
  00013	a1 00 00 00 00	 mov	 eax, DWORD PTR ___security_cookie
  00018	33 c5		 xor	 eax, ebp
  0001a	50		 push	 eax
  0001b	8d 45 f4	 lea	 eax, DWORD PTR __$EHRec$[ebp]
  0001e	64 a3 00 00 00
	00		 mov	 DWORD PTR fs:0, eax
; File C:\DS Project\DS Files\Source\ClientSource\Client\EterLib\Pool.h

; 63   : 			if (m_kVct_pkFree.empty())

  00024	8b 0d 14 00 00
	00		 mov	 ecx, DWORD PTR ?ms_kPool@CGraphicTextInstance@@2V?$CDynamicPool@VCGraphicTextInstance@@@@A+20
  0002a	39 0d 10 00 00
	00		 cmp	 DWORD PTR ?ms_kPool@CGraphicTextInstance@@2V?$CDynamicPool@VCGraphicTextInstance@@@@A+16, ecx
  00030	0f 85 84 00 00
	00		 jne	 $LN4@New

; 65   : 				T* pkNewData=new T;

  00036	6a 7c		 push	 124			; 0000007cH
  00038	e8 00 00 00 00	 call	 ??2@YAPAXI@Z		; operator new
  0003d	83 c4 04	 add	 esp, 4
  00040	89 45 f0	 mov	 DWORD PTR $T2[ebp], eax
  00043	c7 45 fc 00 00
	00 00		 mov	 DWORD PTR __$EHRec$[ebp+8], 0
  0004a	85 c0		 test	 eax, eax
  0004c	74 0b		 je	 SHORT $LN6@New
  0004e	8b c8		 mov	 ecx, eax
  00050	e8 00 00 00 00	 call	 ??0CGraphicTextInstance@@QAE@XZ ; CGraphicTextInstance::CGraphicTextInstance
  00055	8b f0		 mov	 esi, eax
  00057	eb 02		 jmp	 SHORT $LN7@New
$LN6@New:
  00059	33 f6		 xor	 esi, esi
$LN7@New:
; File C:\Program Files (x86)\Microsoft Visual Studio\2019\Community\VC\Tools\MSVC\14.27.29110\include\vector

; 704  :         if (_Mylast != _My_data._Myend) {

  0005b	a1 08 00 00 00	 mov	 eax, DWORD PTR ?ms_kPool@CGraphicTextInstance@@2V?$CDynamicPool@VCGraphicTextInstance@@@@A+8
; File C:\DS Project\DS Files\Source\ClientSource\Client\EterLib\Pool.h

; 65   : 				T* pkNewData=new T;

  00060	c7 45 fc ff ff
	ff ff		 mov	 DWORD PTR __$EHRec$[ebp+8], -1
  00067	89 75 f0	 mov	 DWORD PTR _pkNewData$3[ebp], esi
; File C:\Program Files (x86)\Microsoft Visual Studio\2019\Community\VC\Tools\MSVC\14.27.29110\include\vector

; 704  :         if (_Mylast != _My_data._Myend) {

  0006a	3b 05 0c 00 00
	00		 cmp	 eax, DWORD PTR ?ms_kPool@CGraphicTextInstance@@2V?$CDynamicPool@VCGraphicTextInstance@@@@A+12
  00070	74 21		 je	 SHORT $LN14@New

; 687  :         _Alty_traits::construct(_Getal(), _Unfancy(_Mylast), _STD forward<_Valty>(_Val)...);

  00072	89 30		 mov	 DWORD PTR [eax], esi
; File C:\DS Project\DS Files\Source\ClientSource\Client\EterLib\GrpTextInstance.cpp

; 954  : 	return ms_kPool.Alloc();

  00074	8b c6		 mov	 eax, esi
; File C:\Program Files (x86)\Microsoft Visual Studio\2019\Community\VC\Tools\MSVC\14.27.29110\include\vector

; 690  :         ++_Mylast;

  00076	83 05 08 00 00
	00 04		 add	 DWORD PTR ?ms_kPool@CGraphicTextInstance@@2V?$CDynamicPool@VCGraphicTextInstance@@@@A+8, 4
; File C:\DS Project\DS Files\Source\ClientSource\Client\EterLib\Pool.h

; 67   : 				++m_uUsedCapacity;

  0007d	ff 05 20 00 00
	00		 inc	 DWORD PTR ?ms_kPool@CGraphicTextInstance@@2V?$CDynamicPool@VCGraphicTextInstance@@@@A+32
; File C:\DS Project\DS Files\Source\ClientSource\Client\EterLib\GrpTextInstance.cpp

; 955  : }

  00083	8b 4d f4	 mov	 ecx, DWORD PTR __$EHRec$[ebp]
  00086	64 89 0d 00 00
	00 00		 mov	 DWORD PTR fs:0, ecx
  0008d	59		 pop	 ecx
  0008e	5e		 pop	 esi
  0008f	8b e5		 mov	 esp, ebp
  00091	5d		 pop	 ebp
  00092	c3		 ret	 0
$LN14@New:
; File C:\Program Files (x86)\Microsoft Visual Studio\2019\Community\VC\Tools\MSVC\14.27.29110\include\vector

; 708  :         _Ty& _Result = *_Emplace_reallocate(_Mylast, _STD forward<_Valty>(_Val)...);

  00093	8d 4d f0	 lea	 ecx, DWORD PTR _pkNewData$3[ebp]
  00096	51		 push	 ecx
  00097	50		 push	 eax
  00098	b9 04 00 00 00	 mov	 ecx, OFFSET ?ms_kPool@CGraphicTextInstance@@2V?$CDynamicPool@VCGraphicTextInstance@@@@A+4
  0009d	e8 00 00 00 00	 call	 ??$_Emplace_reallocate@ABQAVCGraphicTextInstance@@@?$vector@PAVCGraphicTextInstance@@V?$allocator@PAVCGraphicTextInstance@@@std@@@std@@QAEPAPAVCGraphicTextInstance@@QAPAV2@ABQAV2@@Z ; std::vector<CGraphicTextInstance *,std::allocator<CGraphicTextInstance *> >::_Emplace_reallocate<CGraphicTextInstance * const &>
; File C:\DS Project\DS Files\Source\ClientSource\Client\EterLib\Pool.h

; 67   : 				++m_uUsedCapacity;

  000a2	ff 05 20 00 00
	00		 inc	 DWORD PTR ?ms_kPool@CGraphicTextInstance@@2V?$CDynamicPool@VCGraphicTextInstance@@@@A+32
; File C:\DS Project\DS Files\Source\ClientSource\Client\EterLib\GrpTextInstance.cpp

; 954  : 	return ms_kPool.Alloc();

  000a8	8b c6		 mov	 eax, esi

; 955  : }

  000aa	8b 4d f4	 mov	 ecx, DWORD PTR __$EHRec$[ebp]
  000ad	64 89 0d 00 00
	00 00		 mov	 DWORD PTR fs:0, ecx
  000b4	59		 pop	 ecx
  000b5	5e		 pop	 esi
  000b6	8b e5		 mov	 esp, ebp
  000b8	5d		 pop	 ebp
  000b9	c3		 ret	 0
$LN4@New:
; File C:\DS Project\DS Files\Source\ClientSource\Client\EterLib\Pool.h

; 71   : 			T* pkFreeData=m_kVct_pkFree.back();

  000ba	8b 41 fc	 mov	 eax, DWORD PTR [ecx-4]
; File C:\Program Files (x86)\Microsoft Visual Studio\2019\Community\VC\Tools\MSVC\14.27.29110\include\vector

; 1559 :         return _My_data._Mylast[-1];

  000bd	83 c1 fc	 add	 ecx, -4			; fffffffcH

; 1338 :         --_Mylast;

  000c0	89 0d 14 00 00
	00		 mov	 DWORD PTR ?ms_kPool@CGraphicTextInstance@@2V?$CDynamicPool@VCGraphicTextInstance@@@@A+20, ecx
; File C:\DS Project\DS Files\Source\ClientSource\Client\EterLib\GrpTextInstance.cpp

; 955  : }

  000c6	8b 4d f4	 mov	 ecx, DWORD PTR __$EHRec$[ebp]
  000c9	64 89 0d 00 00
	00 00		 mov	 DWORD PTR fs:0, ecx
  000d0	59		 pop	 ecx
  000d1	5e		 pop	 esi
  000d2	8b e5		 mov	 esp, ebp
  000d4	5d		 pop	 ebp
  000d5	c3		 ret	 0
_TEXT	ENDS
;	COMDAT text$x
text$x	SEGMENT
__unwindfunclet$?New@CGraphicTextInstance@@SAPAV1@XZ$0:
  00000	6a 7c		 push	 124			; 0000007cH
  00002	8b 45 f0	 mov	 eax, DWORD PTR $T2[ebp]
  00005	50		 push	 eax
  00006	e8 00 00 00 00	 call	 ??3@YAXPAXI@Z		; operator delete
  0000b	83 c4 08	 add	 esp, 8
  0000e	c3		 ret	 0
  0000f	cc		 int	 3
  00010	cc		 int	 3
  00011	cc		 int	 3
  00012	cc		 int	 3
  00013	cc		 int	 3
__ehhandler$?New@CGraphicTextInstance@@SAPAV1@XZ:
  00014	90		 npad	 1
  00015	90		 npad	 1
  00016	8b 54 24 08	 mov	 edx, DWORD PTR [esp+8]
  0001a	8d 42 0c	 lea	 eax, DWORD PTR [edx+12]
  0001d	8b 4a f4	 mov	 ecx, DWORD PTR [edx-12]
  00020	33 c8		 xor	 ecx, eax
  00022	e8 00 00 00 00	 call	 @__security_check_cookie@4
  00027	b8 00 00 00 00	 mov	 eax, OFFSET __ehfuncinfo$?New@CGraphicTextInstance@@SAPAV1@XZ
  0002c	e9 00 00 00 00	 jmp	 ___CxxFrameHandler3
text$x	ENDS
?New@CGraphicTextInstance@@SAPAV1@XZ ENDP		; CGraphicTextInstance::New
; Function compile flags: /Ogtp
; File C:\DS Project\DS Files\Source\ClientSource\Client\EterLib\GrpTextInstance.cpp
; File C:\Program Files (x86)\Microsoft Visual Studio\2019\Community\VC\Tools\MSVC\14.27.29110\include\algorithm
; File C:\DS Project\DS Files\Source\ClientSource\Client\EterLib\GrpTextInstance.cpp
; File C:\Program Files (x86)\Microsoft Visual Studio\2019\Community\VC\Tools\MSVC\14.27.29110\include\algorithm
; File C:\DS Project\DS Files\Source\ClientSource\Client\EterLib\Pool.h
; File C:\Program Files (x86)\Microsoft Visual Studio\2019\Community\VC\Tools\MSVC\14.27.29110\include\algorithm
; File C:\DS Project\DS Files\Source\ClientSource\Client\EterLib\Pool.h
; File C:\DS Project\DS Files\Source\ClientSource\Client\EterLib\GrpTextInstance.cpp
; File C:\DS Project\DS Files\Source\ClientSource\Client\EterLib\Pool.h
; File C:\DS Project\DS Files\Source\ClientSource\Client\EterLib\GrpTextInstance.cpp
;	COMDAT ?DestroySystem@CGraphicTextInstance@@SAXXZ
_TEXT	SEGMENT
?DestroySystem@CGraphicTextInstance@@SAXXZ PROC		; CGraphicTextInstance::DestroySystem, COMDAT

; 948  : {

  00000	56		 push	 esi
; File C:\Program Files (x86)\Microsoft Visual Studio\2019\Community\VC\Tools\MSVC\14.27.29110\include\algorithm

; 235  :     for (; _UFirst != _ULast; ++_UFirst) {

  00001	8b 35 04 00 00
	00		 mov	 esi, DWORD PTR ?ms_kPool@CGraphicTextInstance@@2V?$CDynamicPool@VCGraphicTextInstance@@@@A+4
; File C:\DS Project\DS Files\Source\ClientSource\Client\EterLib\GrpTextInstance.cpp

; 948  : {

  00007	57		 push	 edi
; File C:\Program Files (x86)\Microsoft Visual Studio\2019\Community\VC\Tools\MSVC\14.27.29110\include\algorithm

; 234  :     const auto _ULast = _Get_unwrapped(_Last);

  00008	8b 3d 08 00 00
	00		 mov	 edi, DWORD PTR ?ms_kPool@CGraphicTextInstance@@2V?$CDynamicPool@VCGraphicTextInstance@@@@A+8

; 235  :     for (; _UFirst != _ULast; ++_UFirst) {

  0000e	3b f7		 cmp	 esi, edi
  00010	74 2a		 je	 SHORT $LN30@DestroySys
$LL20@DestroySys:
; File C:\DS Project\DS Files\Source\ClientSource\Client\EterLib\Pool.h

; 110  : 			delete pkData;

  00012	8b 0e		 mov	 ecx, DWORD PTR [esi]
  00014	85 c9		 test	 ecx, ecx
  00016	74 06		 je	 SHORT $LN18@DestroySys
  00018	8b 01		 mov	 eax, DWORD PTR [ecx]
  0001a	6a 01		 push	 1
  0001c	ff 10		 call	 DWORD PTR [eax]
$LN18@DestroySys:
; File C:\Program Files (x86)\Microsoft Visual Studio\2019\Community\VC\Tools\MSVC\14.27.29110\include\algorithm

; 235  :     for (; _UFirst != _ULast; ++_UFirst) {

  0001e	83 c6 04	 add	 esi, 4
  00021	3b f7		 cmp	 esi, edi
  00023	75 ed		 jne	 SHORT $LL20@DestroySys
; File C:\DS Project\DS Files\Source\ClientSource\Client\EterLib\Pool.h

; 51   : 			m_kVct_pkData.clear();

  00025	a1 04 00 00 00	 mov	 eax, DWORD PTR ?ms_kPool@CGraphicTextInstance@@2V?$CDynamicPool@VCGraphicTextInstance@@@@A+4
  0002a	a3 08 00 00 00	 mov	 DWORD PTR ?ms_kPool@CGraphicTextInstance@@2V?$CDynamicPool@VCGraphicTextInstance@@@@A+8, eax
; File C:\DS Project\DS Files\Source\ClientSource\Client\EterLib\GrpTextInstance.cpp

; 950  : }

  0002f	a1 10 00 00 00	 mov	 eax, DWORD PTR ?ms_kPool@CGraphicTextInstance@@2V?$CDynamicPool@VCGraphicTextInstance@@@@A+16
  00034	5f		 pop	 edi
  00035	a3 14 00 00 00	 mov	 DWORD PTR ?ms_kPool@CGraphicTextInstance@@2V?$CDynamicPool@VCGraphicTextInstance@@@@A+20, eax
  0003a	5e		 pop	 esi
  0003b	c3		 ret	 0
$LN30@DestroySys:
  0003c	a1 10 00 00 00	 mov	 eax, DWORD PTR ?ms_kPool@CGraphicTextInstance@@2V?$CDynamicPool@VCGraphicTextInstance@@@@A+16
  00041	5f		 pop	 edi
; File C:\DS Project\DS Files\Source\ClientSource\Client\EterLib\Pool.h

; 51   : 			m_kVct_pkData.clear();

  00042	89 35 08 00 00
	00		 mov	 DWORD PTR ?ms_kPool@CGraphicTextInstance@@2V?$CDynamicPool@VCGraphicTextInstance@@@@A+8, esi
; File C:\DS Project\DS Files\Source\ClientSource\Client\EterLib\GrpTextInstance.cpp

; 950  : }

  00048	a3 14 00 00 00	 mov	 DWORD PTR ?ms_kPool@CGraphicTextInstance@@2V?$CDynamicPool@VCGraphicTextInstance@@@@A+20, eax
  0004d	5e		 pop	 esi
  0004e	c3		 ret	 0
?DestroySystem@CGraphicTextInstance@@SAXXZ ENDP		; CGraphicTextInstance::DestroySystem
_TEXT	ENDS
; Function compile flags: /Ogtp
; File C:\DS Project\DS Files\Source\ClientSource\Client\EterLib\GrpTextInstance.cpp
; File C:\Program Files (x86)\Microsoft Visual Studio\2019\Community\VC\Tools\MSVC\14.27.29110\include\vector
; File C:\DS Project\DS Files\Source\ClientSource\Client\EterLib\GrpTextInstance.cpp
; File C:\DS Project\DS Files\Source\ClientSource\Client\EterLib\Pool.h
; File C:\Program Files (x86)\Microsoft Visual Studio\2019\Community\VC\Tools\MSVC\14.27.29110\include\vector
; File C:\DS Project\DS Files\Source\ClientSource\Client\EterLib\Pool.h
; File C:\Program Files (x86)\Microsoft Visual Studio\2019\Community\VC\Tools\MSVC\14.27.29110\include\vector
; File C:\DS Project\DS Files\Source\ClientSource\Client\EterLib\GrpTextInstance.cpp
; File C:\Program Files (x86)\Microsoft Visual Studio\2019\Community\VC\Tools\MSVC\14.27.29110\include\vector
; File C:\DS Project\DS Files\Source\ClientSource\Client\EterLib\GrpTextInstance.cpp
;	COMDAT ?CreateSystem@CGraphicTextInstance@@SAXI@Z
_TEXT	SEGMENT
_uCapacity$ = 8						; size = 4
?CreateSystem@CGraphicTextInstance@@SAXI@Z PROC		; CGraphicTextInstance::CreateSystem, COMDAT

; 943  : {

  00000	55		 push	 ebp
  00001	8b ec		 mov	 ebp, esp
; File C:\Program Files (x86)\Microsoft Visual Studio\2019\Community\VC\Tools\MSVC\14.27.29110\include\vector

; 1494 :         return static_cast<size_type>(_My_data._Myend - _My_data._Myfirst);

  00003	a1 0c 00 00 00	 mov	 eax, DWORD PTR ?ms_kPool@CGraphicTextInstance@@2V?$CDynamicPool@VCGraphicTextInstance@@@@A+12
  00008	2b 05 04 00 00
	00		 sub	 eax, DWORD PTR ?ms_kPool@CGraphicTextInstance@@2V?$CDynamicPool@VCGraphicTextInstance@@@@A+4
; File C:\DS Project\DS Files\Source\ClientSource\Client\EterLib\GrpTextInstance.cpp

; 943  : {

  0000e	56		 push	 esi
; File C:\DS Project\DS Files\Source\ClientSource\Client\EterLib\Pool.h

; 57   : 			m_uInitCapacity=uCapacity;

  0000f	8b 75 08	 mov	 esi, DWORD PTR _uCapacity$[ebp]
; File C:\Program Files (x86)\Microsoft Visual Studio\2019\Community\VC\Tools\MSVC\14.27.29110\include\vector

; 1494 :         return static_cast<size_type>(_My_data._Myend - _My_data._Myfirst);

  00012	c1 f8 02	 sar	 eax, 2
; File C:\DS Project\DS Files\Source\ClientSource\Client\EterLib\Pool.h

; 57   : 			m_uInitCapacity=uCapacity;

  00015	89 35 1c 00 00
	00		 mov	 DWORD PTR ?ms_kPool@CGraphicTextInstance@@2V?$CDynamicPool@VCGraphicTextInstance@@@@A+28, esi
; File C:\Program Files (x86)\Microsoft Visual Studio\2019\Community\VC\Tools\MSVC\14.27.29110\include\vector

; 1306 :         if (_Newcapacity > capacity()) { // something to do (reserve() never shrinks)

  0001b	3b f0		 cmp	 esi, eax
  0001d	76 13		 jbe	 SHORT $LN6@CreateSyst

; 1307 :             if (_Newcapacity > max_size()) {

  0001f	81 fe ff ff ff
	3f		 cmp	 esi, 1073741823		; 3fffffffH
  00025	77 33		 ja	 SHORT $LN19@CreateSyst

; 1309 :             }
; 1310 : 
; 1311 :             _Reallocate_exactly(_Newcapacity);

  00027	56		 push	 esi
  00028	b9 04 00 00 00	 mov	 ecx, OFFSET ?ms_kPool@CGraphicTextInstance@@2V?$CDynamicPool@VCGraphicTextInstance@@@@A+4
  0002d	e8 00 00 00 00	 call	 ?_Reallocate_exactly@?$vector@PAVCGraphicTextInstance@@V?$allocator@PAVCGraphicTextInstance@@@std@@@std@@AAEXI@Z ; std::vector<CGraphicTextInstance *,std::allocator<CGraphicTextInstance *> >::_Reallocate_exactly
$LN6@CreateSyst:

; 1494 :         return static_cast<size_type>(_My_data._Myend - _My_data._Myfirst);

  00032	a1 18 00 00 00	 mov	 eax, DWORD PTR ?ms_kPool@CGraphicTextInstance@@2V?$CDynamicPool@VCGraphicTextInstance@@@@A+24
  00037	2b 05 10 00 00
	00		 sub	 eax, DWORD PTR ?ms_kPool@CGraphicTextInstance@@2V?$CDynamicPool@VCGraphicTextInstance@@@@A+16
  0003d	c1 f8 02	 sar	 eax, 2

; 1306 :         if (_Newcapacity > capacity()) { // something to do (reserve() never shrinks)

  00040	3b f0		 cmp	 esi, eax
  00042	76 13		 jbe	 SHORT $LN13@CreateSyst

; 1307 :             if (_Newcapacity > max_size()) {

  00044	81 fe ff ff ff
	3f		 cmp	 esi, 1073741823		; 3fffffffH
  0004a	77 0e		 ja	 SHORT $LN19@CreateSyst

; 1309 :             }
; 1310 : 
; 1311 :             _Reallocate_exactly(_Newcapacity);

  0004c	56		 push	 esi
  0004d	b9 10 00 00 00	 mov	 ecx, OFFSET ?ms_kPool@CGraphicTextInstance@@2V?$CDynamicPool@VCGraphicTextInstance@@@@A+16
  00052	e8 00 00 00 00	 call	 ?_Reallocate_exactly@?$vector@PAVCGraphicTextInstance@@V?$allocator@PAVCGraphicTextInstance@@@std@@@std@@AAEXI@Z ; std::vector<CGraphicTextInstance *,std::allocator<CGraphicTextInstance *> >::_Reallocate_exactly
$LN13@CreateSyst:
  00057	5e		 pop	 esi
; File C:\DS Project\DS Files\Source\ClientSource\Client\EterLib\GrpTextInstance.cpp

; 945  : }

  00058	5d		 pop	 ebp
  00059	c3		 ret	 0
$LN19@CreateSyst:
; File C:\Program Files (x86)\Microsoft Visual Studio\2019\Community\VC\Tools\MSVC\14.27.29110\include\vector

; 1308 :                 _Xlength();

  0005a	e8 00 00 00 00	 call	 ?_Xlength@?$vector@PAVCGraphicTextInstance@@V?$allocator@PAVCGraphicTextInstance@@@std@@@std@@CAXXZ ; std::vector<CGraphicTextInstance *,std::allocator<CGraphicTextInstance *> >::_Xlength
$LN20@CreateSyst:
  0005f	cc		 int	 3
?CreateSystem@CGraphicTextInstance@@SAXI@Z ENDP		; CGraphicTextInstance::CreateSystem
_TEXT	ENDS
; Function compile flags: /Ogtp
; File C:\Program Files (x86)\Microsoft Visual Studio\2019\Community\VC\Tools\MSVC\14.27.29110\include\vector
;	COMDAT ?_Xlength@?$vector@USEmoji@CGraphicTextInstance@@V?$allocator@USEmoji@CGraphicTextInstance@@@std@@@std@@CAXXZ
_TEXT	SEGMENT
?_Xlength@?$vector@USEmoji@CGraphicTextInstance@@V?$allocator@USEmoji@CGraphicTextInstance@@@std@@@std@@CAXXZ PROC ; std::vector<CGraphicTextInstance::SEmoji,std::allocator<CGraphicTextInstance::SEmoji> >::_Xlength, COMDAT

; 1704 :         _Xlength_error("vector too long");

  00000	68 00 00 00 00	 push	 OFFSET ??_C@_0BA@FOIKENOD@vector?5too?5long@
  00005	e8 00 00 00 00	 call	 ?_Xlength_error@std@@YAXPBD@Z ; std::_Xlength_error
$LN3@Xlength:
  0000a	cc		 int	 3
?_Xlength@?$vector@USEmoji@CGraphicTextInstance@@V?$allocator@USEmoji@CGraphicTextInstance@@@std@@@std@@CAXXZ ENDP ; std::vector<CGraphicTextInstance::SEmoji,std::allocator<CGraphicTextInstance::SEmoji> >::_Xlength
_TEXT	ENDS
; Function compile flags: /Ogtp
; File C:\Program Files (x86)\Microsoft Visual Studio\2019\Community\VC\Tools\MSVC\14.27.29110\include\vector
; File C:\Program Files (x86)\Microsoft Visual Studio\2019\Community\VC\Tools\MSVC\14.27.29110\include\xmemory
; File C:\Program Files (x86)\Microsoft Visual Studio\2019\Community\VC\Tools\MSVC\14.27.29110\include\vector
; File C:\Program Files (x86)\Microsoft Visual Studio\2019\Community\VC\Tools\MSVC\14.27.29110\include\xmemory
; File C:\Program Files (x86)\Microsoft Visual Studio\2019\Community\VC\Tools\MSVC\14.27.29110\include\vector
;	COMDAT ??1?$vector@USEmoji@CGraphicTextInstance@@V?$allocator@USEmoji@CGraphicTextInstance@@@std@@@std@@QAE@XZ
_TEXT	SEGMENT
??1?$vector@USEmoji@CGraphicTextInstance@@V?$allocator@USEmoji@CGraphicTextInstance@@@std@@@std@@QAE@XZ PROC ; std::vector<CGraphicTextInstance::SEmoji,std::allocator<CGraphicTextInstance::SEmoji> >::~vector<CGraphicTextInstance::SEmoji,std::allocator<CGraphicTextInstance::SEmoji> >, COMDAT
; _this$ = ecx

; 672  :     ~vector() noexcept {

  00000	56		 push	 esi
  00001	8b f1		 mov	 esi, ecx

; 1693 :         if (_Myfirst) { // destroy and deallocate old array

  00003	8b 0e		 mov	 ecx, DWORD PTR [esi]
  00005	85 c9		 test	 ecx, ecx
  00007	74 26		 je	 SHORT $LN4@vector

; 1694 :             _Destroy(_Myfirst, _Mylast);
; 1695 :             _Getal().deallocate(_Myfirst, static_cast<size_type>(_Myend - _Myfirst));

  00009	8b 46 08	 mov	 eax, DWORD PTR [esi+8]
  0000c	2b c1		 sub	 eax, ecx
; File C:\Program Files (x86)\Microsoft Visual Studio\2019\Community\VC\Tools\MSVC\14.27.29110\include\xmemory

; 803  :         _Deallocate<_New_alignof<_Ty>>(_Ptr, sizeof(_Ty) * _Count);

  0000e	83 e0 f8	 and	 eax, -8			; fffffff8H
  00011	50		 push	 eax
  00012	51		 push	 ecx
  00013	e8 00 00 00 00	 call	 ??$_Deallocate@$07$0A@@std@@YAXPAXI@Z ; std::_Deallocate<8,0>
; File C:\Program Files (x86)\Microsoft Visual Studio\2019\Community\VC\Tools\MSVC\14.27.29110\include\vector

; 1697 :             _Myfirst = pointer();

  00018	c7 06 00 00 00
	00		 mov	 DWORD PTR [esi], 0
; File C:\Program Files (x86)\Microsoft Visual Studio\2019\Community\VC\Tools\MSVC\14.27.29110\include\xmemory

; 803  :         _Deallocate<_New_alignof<_Ty>>(_Ptr, sizeof(_Ty) * _Count);

  0001e	83 c4 08	 add	 esp, 8
; File C:\Program Files (x86)\Microsoft Visual Studio\2019\Community\VC\Tools\MSVC\14.27.29110\include\vector

; 1698 :             _Mylast  = pointer();

  00021	c7 46 04 00 00
	00 00		 mov	 DWORD PTR [esi+4], 0

; 1699 :             _Myend   = pointer();

  00028	c7 46 08 00 00
	00 00		 mov	 DWORD PTR [esi+8], 0
$LN4@vector:
  0002f	5e		 pop	 esi

; 673  :         _Tidy();
; 674  : #if _ITERATOR_DEBUG_LEVEL != 0
; 675  :         auto&& _Alproxy = _GET_PROXY_ALLOCATOR(_Alty, _Getal());
; 676  :         _Delete_plain_internal(_Alproxy, _STD exchange(_Mypair._Myval2._Myproxy, nullptr));
; 677  : #endif // _ITERATOR_DEBUG_LEVEL != 0
; 678  :     }

  00030	c3		 ret	 0
??1?$vector@USEmoji@CGraphicTextInstance@@V?$allocator@USEmoji@CGraphicTextInstance@@@std@@@std@@QAE@XZ ENDP ; std::vector<CGraphicTextInstance::SEmoji,std::allocator<CGraphicTextInstance::SEmoji> >::~vector<CGraphicTextInstance::SEmoji,std::allocator<CGraphicTextInstance::SEmoji> >
_TEXT	ENDS
; Function compile flags: /Ogtp
; File C:\Program Files (x86)\Microsoft Visual Studio\2019\Community\VC\Tools\MSVC\14.27.29110\include\vector
;	COMDAT ?_Xlength@?$vector@USHyperlink@CGraphicTextInstance@@V?$allocator@USHyperlink@CGraphicTextInstance@@@std@@@std@@CAXXZ
_TEXT	SEGMENT
?_Xlength@?$vector@USHyperlink@CGraphicTextInstance@@V?$allocator@USHyperlink@CGraphicTextInstance@@@std@@@std@@CAXXZ PROC ; std::vector<CGraphicTextInstance::SHyperlink,std::allocator<CGraphicTextInstance::SHyperlink> >::_Xlength, COMDAT

; 1704 :         _Xlength_error("vector too long");

  00000	68 00 00 00 00	 push	 OFFSET ??_C@_0BA@FOIKENOD@vector?5too?5long@
  00005	e8 00 00 00 00	 call	 ?_Xlength_error@std@@YAXPBD@Z ; std::_Xlength_error
$LN3@Xlength:
  0000a	cc		 int	 3
?_Xlength@?$vector@USHyperlink@CGraphicTextInstance@@V?$allocator@USHyperlink@CGraphicTextInstance@@@std@@@std@@CAXXZ ENDP ; std::vector<CGraphicTextInstance::SHyperlink,std::allocator<CGraphicTextInstance::SHyperlink> >::_Xlength
_TEXT	ENDS
; Function compile flags: /Ogtp
; File C:\Program Files (x86)\Microsoft Visual Studio\2019\Community\VC\Tools\MSVC\14.27.29110\include\vector
;	COMDAT ?_Destroy@?$vector@USHyperlink@CGraphicTextInstance@@V?$allocator@USHyperlink@CGraphicTextInstance@@@std@@@std@@AAEXPAUSHyperlink@CGraphicTextInstance@@0@Z
_TEXT	SEGMENT
__First$ = 8						; size = 4
__Last$ = 12						; size = 4
?_Destroy@?$vector@USHyperlink@CGraphicTextInstance@@V?$allocator@USHyperlink@CGraphicTextInstance@@@std@@@std@@AAEXPAUSHyperlink@CGraphicTextInstance@@0@Z PROC ; std::vector<CGraphicTextInstance::SHyperlink,std::allocator<CGraphicTextInstance::SHyperlink> >::_Destroy, COMDAT
; _this$ = ecx

; 1611 :     void _Destroy(pointer _First, pointer _Last) { // destroy [_First, _Last) using allocator

  00000	55		 push	 ebp
  00001	8b ec		 mov	 ebp, esp

; 1612 :         _Destroy_range(_First, _Last, _Getal());

  00003	51		 push	 ecx
  00004	ff 75 0c	 push	 DWORD PTR __Last$[ebp]
  00007	ff 75 08	 push	 DWORD PTR __First$[ebp]
  0000a	e8 00 00 00 00	 call	 ??$_Destroy_range@V?$allocator@USHyperlink@CGraphicTextInstance@@@std@@@std@@YAXPAUSHyperlink@CGraphicTextInstance@@QAU12@AAV?$allocator@USHyperlink@CGraphicTextInstance@@@0@@Z ; std::_Destroy_range<std::allocator<CGraphicTextInstance::SHyperlink> >
  0000f	83 c4 0c	 add	 esp, 12			; 0000000cH

; 1613 :     }

  00012	5d		 pop	 ebp
  00013	c2 08 00	 ret	 8
?_Destroy@?$vector@USHyperlink@CGraphicTextInstance@@V?$allocator@USHyperlink@CGraphicTextInstance@@@std@@@std@@AAEXPAUSHyperlink@CGraphicTextInstance@@0@Z ENDP ; std::vector<CGraphicTextInstance::SHyperlink,std::allocator<CGraphicTextInstance::SHyperlink> >::_Destroy
_TEXT	ENDS
; Function compile flags: /Ogtp
; File C:\Program Files (x86)\Microsoft Visual Studio\2019\Community\VC\Tools\MSVC\14.27.29110\include\vector
; File C:\Program Files (x86)\Microsoft Visual Studio\2019\Community\VC\Tools\MSVC\14.27.29110\include\xmemory
; File C:\Program Files (x86)\Microsoft Visual Studio\2019\Community\VC\Tools\MSVC\14.27.29110\include\vector
; File C:\Program Files (x86)\Microsoft Visual Studio\2019\Community\VC\Tools\MSVC\14.27.29110\include\xmemory
; File C:\Program Files (x86)\Microsoft Visual Studio\2019\Community\VC\Tools\MSVC\14.27.29110\include\vector
;	COMDAT ??1?$vector@USHyperlink@CGraphicTextInstance@@V?$allocator@USHyperlink@CGraphicTextInstance@@@std@@@std@@QAE@XZ
_TEXT	SEGMENT
??1?$vector@USHyperlink@CGraphicTextInstance@@V?$allocator@USHyperlink@CGraphicTextInstance@@@std@@@std@@QAE@XZ PROC ; std::vector<CGraphicTextInstance::SHyperlink,std::allocator<CGraphicTextInstance::SHyperlink> >::~vector<CGraphicTextInstance::SHyperlink,std::allocator<CGraphicTextInstance::SHyperlink> >, COMDAT
; _this$ = ecx

; 672  :     ~vector() noexcept {

  00000	57		 push	 edi
  00001	8b f9		 mov	 edi, ecx

; 1693 :         if (_Myfirst) { // destroy and deallocate old array

  00003	8b 07		 mov	 eax, DWORD PTR [edi]
  00005	85 c0		 test	 eax, eax
  00007	74 4d		 je	 SHORT $LN4@vector

; 1612 :         _Destroy_range(_First, _Last, _Getal());

  00009	57		 push	 edi
  0000a	ff 77 04	 push	 DWORD PTR [edi+4]
  0000d	50		 push	 eax
  0000e	e8 00 00 00 00	 call	 ??$_Destroy_range@V?$allocator@USHyperlink@CGraphicTextInstance@@@std@@@std@@YAXPAUSHyperlink@CGraphicTextInstance@@QAU12@AAV?$allocator@USHyperlink@CGraphicTextInstance@@@0@@Z ; std::_Destroy_range<std::allocator<CGraphicTextInstance::SHyperlink> >

; 1695 :             _Getal().deallocate(_Myfirst, static_cast<size_type>(_Myend - _Myfirst));

  00013	8b 4f 08	 mov	 ecx, DWORD PTR [edi+8]
  00016	b8 93 24 49 92	 mov	 eax, -1840700269	; 92492493H
  0001b	2b 0f		 sub	 ecx, DWORD PTR [edi]
  0001d	f7 e9		 imul	 ecx
  0001f	03 d1		 add	 edx, ecx
  00021	c1 fa 04	 sar	 edx, 4
  00024	8b ca		 mov	 ecx, edx
  00026	c1 e9 1f	 shr	 ecx, 31			; 0000001fH
  00029	03 ca		 add	 ecx, edx
; File C:\Program Files (x86)\Microsoft Visual Studio\2019\Community\VC\Tools\MSVC\14.27.29110\include\xmemory

; 803  :         _Deallocate<_New_alignof<_Ty>>(_Ptr, sizeof(_Ty) * _Count);

  0002b	8d 04 cd 00 00
	00 00		 lea	 eax, DWORD PTR [ecx*8]
  00032	2b c1		 sub	 eax, ecx
  00034	c1 e0 02	 shl	 eax, 2
  00037	50		 push	 eax
  00038	ff 37		 push	 DWORD PTR [edi]
  0003a	e8 00 00 00 00	 call	 ??$_Deallocate@$07$0A@@std@@YAXPAXI@Z ; std::_Deallocate<8,0>
; File C:\Program Files (x86)\Microsoft Visual Studio\2019\Community\VC\Tools\MSVC\14.27.29110\include\vector

; 1697 :             _Myfirst = pointer();

  0003f	c7 07 00 00 00
	00		 mov	 DWORD PTR [edi], 0
; File C:\Program Files (x86)\Microsoft Visual Studio\2019\Community\VC\Tools\MSVC\14.27.29110\include\xmemory

; 803  :         _Deallocate<_New_alignof<_Ty>>(_Ptr, sizeof(_Ty) * _Count);

  00045	83 c4 14	 add	 esp, 20			; 00000014H
; File C:\Program Files (x86)\Microsoft Visual Studio\2019\Community\VC\Tools\MSVC\14.27.29110\include\vector

; 1698 :             _Mylast  = pointer();

  00048	c7 47 04 00 00
	00 00		 mov	 DWORD PTR [edi+4], 0

; 1699 :             _Myend   = pointer();

  0004f	c7 47 08 00 00
	00 00		 mov	 DWORD PTR [edi+8], 0
$LN4@vector:
  00056	5f		 pop	 edi

; 673  :         _Tidy();
; 674  : #if _ITERATOR_DEBUG_LEVEL != 0
; 675  :         auto&& _Alproxy = _GET_PROXY_ALLOCATOR(_Alty, _Getal());
; 676  :         _Delete_plain_internal(_Alproxy, _STD exchange(_Mypair._Myval2._Myproxy, nullptr));
; 677  : #endif // _ITERATOR_DEBUG_LEVEL != 0
; 678  :     }

  00057	c3		 ret	 0
??1?$vector@USHyperlink@CGraphicTextInstance@@V?$allocator@USHyperlink@CGraphicTextInstance@@@std@@@std@@QAE@XZ ENDP ; std::vector<CGraphicTextInstance::SHyperlink,std::allocator<CGraphicTextInstance::SHyperlink> >::~vector<CGraphicTextInstance::SHyperlink,std::allocator<CGraphicTextInstance::SHyperlink> >
_TEXT	ENDS
; Function compile flags: /Ogtp
; File C:\Program Files (x86)\Microsoft Visual Studio\2019\Community\VC\Tools\MSVC\14.27.29110\include\xmemory
;	COMDAT ?deallocate@?$allocator@USHyperlink@CGraphicTextInstance@@@std@@QAEXQAUSHyperlink@CGraphicTextInstance@@I@Z
_TEXT	SEGMENT
__Ptr$ = 8						; size = 4
__Count$ = 12						; size = 4
?deallocate@?$allocator@USHyperlink@CGraphicTextInstance@@@std@@QAEXQAUSHyperlink@CGraphicTextInstance@@I@Z PROC ; std::allocator<CGraphicTextInstance::SHyperlink>::deallocate, COMDAT
; _this$ = ecx

; 801  :     void deallocate(_Ty* const _Ptr, const size_t _Count) {

  00000	55		 push	 ebp
  00001	8b ec		 mov	 ebp, esp

; 802  :         // no overflow check on the following multiply; we assume _Allocate did that check
; 803  :         _Deallocate<_New_alignof<_Ty>>(_Ptr, sizeof(_Ty) * _Count);

  00003	8b 45 0c	 mov	 eax, DWORD PTR __Count$[ebp]
  00006	8d 0c c5 00 00
	00 00		 lea	 ecx, DWORD PTR [eax*8]
  0000d	2b c8		 sub	 ecx, eax
  0000f	c1 e1 02	 shl	 ecx, 2
  00012	51		 push	 ecx
  00013	ff 75 08	 push	 DWORD PTR __Ptr$[ebp]
  00016	e8 00 00 00 00	 call	 ??$_Deallocate@$07$0A@@std@@YAXPAXI@Z ; std::_Deallocate<8,0>
  0001b	83 c4 08	 add	 esp, 8

; 804  :     }

  0001e	5d		 pop	 ebp
  0001f	c2 08 00	 ret	 8
?deallocate@?$allocator@USHyperlink@CGraphicTextInstance@@@std@@QAEXQAUSHyperlink@CGraphicTextInstance@@I@Z ENDP ; std::allocator<CGraphicTextInstance::SHyperlink>::deallocate
_TEXT	ENDS
; Function compile flags: /Ogtp
; File C:\Program Files (x86)\Microsoft Visual Studio\2019\Community\VC\Tools\MSVC\14.27.29110\include\vector
;	COMDAT ?_Xlength@?$vector@KV?$allocator@K@std@@@std@@CAXXZ
_TEXT	SEGMENT
?_Xlength@?$vector@KV?$allocator@K@std@@@std@@CAXXZ PROC ; std::vector<unsigned long,std::allocator<unsigned long> >::_Xlength, COMDAT

; 1704 :         _Xlength_error("vector too long");

  00000	68 00 00 00 00	 push	 OFFSET ??_C@_0BA@FOIKENOD@vector?5too?5long@
  00005	e8 00 00 00 00	 call	 ?_Xlength_error@std@@YAXPBD@Z ; std::_Xlength_error
$LN3@Xlength:
  0000a	cc		 int	 3
?_Xlength@?$vector@KV?$allocator@K@std@@@std@@CAXXZ ENDP ; std::vector<unsigned long,std::allocator<unsigned long> >::_Xlength
_TEXT	ENDS
; Function compile flags: /Ogtp
; File C:\Program Files (x86)\Microsoft Visual Studio\2019\Community\VC\Tools\MSVC\14.27.29110\include\vector
; File C:\Program Files (x86)\Microsoft Visual Studio\2019\Community\VC\Tools\MSVC\14.27.29110\include\xmemory
; File C:\Program Files (x86)\Microsoft Visual Studio\2019\Community\VC\Tools\MSVC\14.27.29110\include\vector
; File C:\Program Files (x86)\Microsoft Visual Studio\2019\Community\VC\Tools\MSVC\14.27.29110\include\xmemory
; File C:\Program Files (x86)\Microsoft Visual Studio\2019\Community\VC\Tools\MSVC\14.27.29110\include\vector
;	COMDAT ??1?$vector@KV?$allocator@K@std@@@std@@QAE@XZ
_TEXT	SEGMENT
??1?$vector@KV?$allocator@K@std@@@std@@QAE@XZ PROC	; std::vector<unsigned long,std::allocator<unsigned long> >::~vector<unsigned long,std::allocator<unsigned long> >, COMDAT
; _this$ = ecx

; 672  :     ~vector() noexcept {

  00000	56		 push	 esi
  00001	8b f1		 mov	 esi, ecx

; 1693 :         if (_Myfirst) { // destroy and deallocate old array

  00003	8b 0e		 mov	 ecx, DWORD PTR [esi]
  00005	85 c9		 test	 ecx, ecx
  00007	74 26		 je	 SHORT $LN4@vector

; 1694 :             _Destroy(_Myfirst, _Mylast);
; 1695 :             _Getal().deallocate(_Myfirst, static_cast<size_type>(_Myend - _Myfirst));

  00009	8b 46 08	 mov	 eax, DWORD PTR [esi+8]
  0000c	2b c1		 sub	 eax, ecx
; File C:\Program Files (x86)\Microsoft Visual Studio\2019\Community\VC\Tools\MSVC\14.27.29110\include\xmemory

; 803  :         _Deallocate<_New_alignof<_Ty>>(_Ptr, sizeof(_Ty) * _Count);

  0000e	83 e0 fc	 and	 eax, -4			; fffffffcH
  00011	50		 push	 eax
  00012	51		 push	 ecx
  00013	e8 00 00 00 00	 call	 ??$_Deallocate@$07$0A@@std@@YAXPAXI@Z ; std::_Deallocate<8,0>
; File C:\Program Files (x86)\Microsoft Visual Studio\2019\Community\VC\Tools\MSVC\14.27.29110\include\vector

; 1697 :             _Myfirst = pointer();

  00018	c7 06 00 00 00
	00		 mov	 DWORD PTR [esi], 0
; File C:\Program Files (x86)\Microsoft Visual Studio\2019\Community\VC\Tools\MSVC\14.27.29110\include\xmemory

; 803  :         _Deallocate<_New_alignof<_Ty>>(_Ptr, sizeof(_Ty) * _Count);

  0001e	83 c4 08	 add	 esp, 8
; File C:\Program Files (x86)\Microsoft Visual Studio\2019\Community\VC\Tools\MSVC\14.27.29110\include\vector

; 1698 :             _Mylast  = pointer();

  00021	c7 46 04 00 00
	00 00		 mov	 DWORD PTR [esi+4], 0

; 1699 :             _Myend   = pointer();

  00028	c7 46 08 00 00
	00 00		 mov	 DWORD PTR [esi+8], 0
$LN4@vector:
  0002f	5e		 pop	 esi

; 673  :         _Tidy();
; 674  : #if _ITERATOR_DEBUG_LEVEL != 0
; 675  :         auto&& _Alproxy = _GET_PROXY_ALLOCATOR(_Alty, _Getal());
; 676  :         _Delete_plain_internal(_Alproxy, _STD exchange(_Mypair._Myval2._Myproxy, nullptr));
; 677  : #endif // _ITERATOR_DEBUG_LEVEL != 0
; 678  :     }

  00030	c3		 ret	 0
??1?$vector@KV?$allocator@K@std@@@std@@QAE@XZ ENDP	; std::vector<unsigned long,std::allocator<unsigned long> >::~vector<unsigned long,std::allocator<unsigned long> >
_TEXT	ENDS
; Function compile flags: /Ogtp
; File C:\Program Files (x86)\Microsoft Visual Studio\2019\Community\VC\Tools\MSVC\14.27.29110\include\vector
;	COMDAT ?_Xlength@?$vector@PAUSCharacterInfomation@CGraphicFontTexture@@V?$allocator@PAUSCharacterInfomation@CGraphicFontTexture@@@std@@@std@@CAXXZ
_TEXT	SEGMENT
?_Xlength@?$vector@PAUSCharacterInfomation@CGraphicFontTexture@@V?$allocator@PAUSCharacterInfomation@CGraphicFontTexture@@@std@@@std@@CAXXZ PROC ; std::vector<CGraphicFontTexture::SCharacterInfomation *,std::allocator<CGraphicFontTexture::SCharacterInfomation *> >::_Xlength, COMDAT

; 1704 :         _Xlength_error("vector too long");

  00000	68 00 00 00 00	 push	 OFFSET ??_C@_0BA@FOIKENOD@vector?5too?5long@
  00005	e8 00 00 00 00	 call	 ?_Xlength_error@std@@YAXPBD@Z ; std::_Xlength_error
$LN3@Xlength:
  0000a	cc		 int	 3
?_Xlength@?$vector@PAUSCharacterInfomation@CGraphicFontTexture@@V?$allocator@PAUSCharacterInfomation@CGraphicFontTexture@@@std@@@std@@CAXXZ ENDP ; std::vector<CGraphicFontTexture::SCharacterInfomation *,std::allocator<CGraphicFontTexture::SCharacterInfomation *> >::_Xlength
_TEXT	ENDS
; Function compile flags: /Ogtp
; File C:\Program Files (x86)\Microsoft Visual Studio\2019\Community\VC\Tools\MSVC\14.27.29110\include\vector
; File C:\Program Files (x86)\Microsoft Visual Studio\2019\Community\VC\Tools\MSVC\14.27.29110\include\xmemory
; File C:\Program Files (x86)\Microsoft Visual Studio\2019\Community\VC\Tools\MSVC\14.27.29110\include\vector
; File C:\Program Files (x86)\Microsoft Visual Studio\2019\Community\VC\Tools\MSVC\14.27.29110\include\xmemory
; File C:\Program Files (x86)\Microsoft Visual Studio\2019\Community\VC\Tools\MSVC\14.27.29110\include\vector
;	COMDAT ??1?$vector@PAUSCharacterInfomation@CGraphicFontTexture@@V?$allocator@PAUSCharacterInfomation@CGraphicFontTexture@@@std@@@std@@QAE@XZ
_TEXT	SEGMENT
??1?$vector@PAUSCharacterInfomation@CGraphicFontTexture@@V?$allocator@PAUSCharacterInfomation@CGraphicFontTexture@@@std@@@std@@QAE@XZ PROC ; std::vector<CGraphicFontTexture::SCharacterInfomation *,std::allocator<CGraphicFontTexture::SCharacterInfomation *> >::~vector<CGraphicFontTexture::SCharacterInfomation *,std::allocator<CGraphicFontTexture::SCharacterInfomation *> >, COMDAT
; _this$ = ecx

; 672  :     ~vector() noexcept {

  00000	56		 push	 esi
  00001	8b f1		 mov	 esi, ecx

; 1693 :         if (_Myfirst) { // destroy and deallocate old array

  00003	8b 0e		 mov	 ecx, DWORD PTR [esi]
  00005	85 c9		 test	 ecx, ecx
  00007	74 26		 je	 SHORT $LN4@vector

; 1694 :             _Destroy(_Myfirst, _Mylast);
; 1695 :             _Getal().deallocate(_Myfirst, static_cast<size_type>(_Myend - _Myfirst));

  00009	8b 46 08	 mov	 eax, DWORD PTR [esi+8]
  0000c	2b c1		 sub	 eax, ecx
; File C:\Program Files (x86)\Microsoft Visual Studio\2019\Community\VC\Tools\MSVC\14.27.29110\include\xmemory

; 803  :         _Deallocate<_New_alignof<_Ty>>(_Ptr, sizeof(_Ty) * _Count);

  0000e	83 e0 fc	 and	 eax, -4			; fffffffcH
  00011	50		 push	 eax
  00012	51		 push	 ecx
  00013	e8 00 00 00 00	 call	 ??$_Deallocate@$07$0A@@std@@YAXPAXI@Z ; std::_Deallocate<8,0>
; File C:\Program Files (x86)\Microsoft Visual Studio\2019\Community\VC\Tools\MSVC\14.27.29110\include\vector

; 1697 :             _Myfirst = pointer();

  00018	c7 06 00 00 00
	00		 mov	 DWORD PTR [esi], 0
; File C:\Program Files (x86)\Microsoft Visual Studio\2019\Community\VC\Tools\MSVC\14.27.29110\include\xmemory

; 803  :         _Deallocate<_New_alignof<_Ty>>(_Ptr, sizeof(_Ty) * _Count);

  0001e	83 c4 08	 add	 esp, 8
; File C:\Program Files (x86)\Microsoft Visual Studio\2019\Community\VC\Tools\MSVC\14.27.29110\include\vector

; 1698 :             _Mylast  = pointer();

  00021	c7 46 04 00 00
	00 00		 mov	 DWORD PTR [esi+4], 0

; 1699 :             _Myend   = pointer();

  00028	c7 46 08 00 00
	00 00		 mov	 DWORD PTR [esi+8], 0
$LN4@vector:
  0002f	5e		 pop	 esi

; 673  :         _Tidy();
; 674  : #if _ITERATOR_DEBUG_LEVEL != 0
; 675  :         auto&& _Alproxy = _GET_PROXY_ALLOCATOR(_Alty, _Getal());
; 676  :         _Delete_plain_internal(_Alproxy, _STD exchange(_Mypair._Myval2._Myproxy, nullptr));
; 677  : #endif // _ITERATOR_DEBUG_LEVEL != 0
; 678  :     }

  00030	c3		 ret	 0
??1?$vector@PAUSCharacterInfomation@CGraphicFontTexture@@V?$allocator@PAUSCharacterInfomation@CGraphicFontTexture@@@std@@@std@@QAE@XZ ENDP ; std::vector<CGraphicFontTexture::SCharacterInfomation *,std::allocator<CGraphicFontTexture::SCharacterInfomation *> >::~vector<CGraphicFontTexture::SCharacterInfomation *,std::allocator<CGraphicFontTexture::SCharacterInfomation *> >
_TEXT	ENDS
; Function compile flags: /Ogtp
; File C:\DS Project\DS Files\Source\ClientSource\Client\EterLib\Ref.h
;	COMDAT ??1?$CRef@VCGraphicText@@@@QAE@XZ
_TEXT	SEGMENT
__$EHRec$ = -12						; size = 12
??1?$CRef@VCGraphicText@@@@QAE@XZ PROC			; CRef<CGraphicText>::~CRef<CGraphicText>, COMDAT
; _this$ = ecx

; 37   : 		{

  00000	55		 push	 ebp
  00001	8b ec		 mov	 ebp, esp
  00003	6a ff		 push	 -1
  00005	68 00 00 00 00	 push	 __ehhandler$??1?$CRef@VCGraphicText@@@@QAE@XZ
  0000a	64 a1 00 00 00
	00		 mov	 eax, DWORD PTR fs:0
  00010	50		 push	 eax
  00011	56		 push	 esi
  00012	a1 00 00 00 00	 mov	 eax, DWORD PTR ___security_cookie
  00017	33 c5		 xor	 eax, ebp
  00019	50		 push	 eax
  0001a	8d 45 f4	 lea	 eax, DWORD PTR __$EHRec$[ebp]
  0001d	64 a3 00 00 00
	00		 mov	 DWORD PTR fs:0, eax
  00023	8b f1		 mov	 esi, ecx

; 53   : 			if (m_pObject)

  00025	8b 0e		 mov	 ecx, DWORD PTR [esi]
  00027	85 c9		 test	 ecx, ecx
  00029	74 0b		 je	 SHORT $LN4@CRef

; 54   : 			{
; 55   : 				m_pObject->Release();

  0002b	e8 00 00 00 00	 call	 ?Release@CReferenceObject@@QAEXXZ ; CReferenceObject::Release

; 56   : 				m_pObject = NULL;

  00030	c7 06 00 00 00
	00		 mov	 DWORD PTR [esi], 0
$LN4@CRef:

; 38   : 			Clear();
; 39   : 		}

  00036	8b 4d f4	 mov	 ecx, DWORD PTR __$EHRec$[ebp]
  00039	64 89 0d 00 00
	00 00		 mov	 DWORD PTR fs:0, ecx
  00040	59		 pop	 ecx
  00041	5e		 pop	 esi
  00042	8b e5		 mov	 esp, ebp
  00044	5d		 pop	 ebp
  00045	c3		 ret	 0
  00046	cc		 int	 3
  00047	cc		 int	 3
  00048	cc		 int	 3
  00049	cc		 int	 3
  0004a	cc		 int	 3
_TEXT	ENDS
;	COMDAT text$x
text$x	SEGMENT
__ehhandler$??1?$CRef@VCGraphicText@@@@QAE@XZ:
  00000	90		 npad	 1
  00001	90		 npad	 1
  00002	8b 54 24 08	 mov	 edx, DWORD PTR [esp+8]
  00006	8d 42 0c	 lea	 eax, DWORD PTR [edx+12]
  00009	8b 4a f8	 mov	 ecx, DWORD PTR [edx-8]
  0000c	33 c8		 xor	 ecx, eax
  0000e	e8 00 00 00 00	 call	 @__security_check_cookie@4
  00013	b8 00 00 00 00	 mov	 eax, OFFSET __ehfuncinfo$??1?$CRef@VCGraphicText@@@@QAE@XZ
  00018	e9 00 00 00 00	 jmp	 ___CxxFrameHandler3
text$x	ENDS
??1?$CRef@VCGraphicText@@@@QAE@XZ ENDP			; CRef<CGraphicText>::~CRef<CGraphicText>
; Function compile flags: /Ogtp
; File C:\Program Files (x86)\Microsoft Visual Studio\2019\Community\VC\Tools\MSVC\14.27.29110\include\xstring
; File C:\Program Files (x86)\Microsoft Visual Studio\2019\Community\VC\Tools\MSVC\14.27.29110\include\xmemory
; File C:\Program Files (x86)\Microsoft Visual Studio\2019\Community\VC\Tools\MSVC\14.27.29110\include\xstring
;	COMDAT ??1SHyperlink@CGraphicTextInstance@@QAE@XZ
_TEXT	SEGMENT
??1SHyperlink@CGraphicTextInstance@@QAE@XZ PROC		; CGraphicTextInstance::SHyperlink::~SHyperlink, COMDAT
; _this$ = ecx

; 2153 :         return _BUF_SIZE <= _Myres;

  00000	56		 push	 esi
  00001	8b f1		 mov	 esi, ecx
  00003	8b 46 18	 mov	 eax, DWORD PTR [esi+24]
  00006	83 f8 08	 cmp	 eax, 8

; 4301 :         if (_Mypair._Myval2._Large_string_engaged()) {

  00009	72 13		 jb	 SHORT $LN7@SHyperlink
; File C:\Program Files (x86)\Microsoft Visual Studio\2019\Community\VC\Tools\MSVC\14.27.29110\include\xmemory

; 803  :         _Deallocate<_New_alignof<_Ty>>(_Ptr, sizeof(_Ty) * _Count);

  0000b	8d 04 45 02 00
	00 00		 lea	 eax, DWORD PTR [eax*2+2]
  00012	50		 push	 eax
  00013	ff 76 04	 push	 DWORD PTR [esi+4]
  00016	e8 00 00 00 00	 call	 ??$_Deallocate@$07$0A@@std@@YAXPAXI@Z ; std::_Deallocate<8,0>
  0001b	83 c4 08	 add	 esp, 8
$LN7@SHyperlink:
; File C:\Program Files (x86)\Microsoft Visual Studio\2019\Community\VC\Tools\MSVC\14.27.29110\include\xstring

; 4311 :         _Traits::assign(_Mypair._Myval2._Bx._Buf[0], _Elem());

  0001e	33 c0		 xor	 eax, eax
  00020	c7 46 14 00 00
	00 00		 mov	 DWORD PTR [esi+20], 0
  00027	c7 46 18 07 00
	00 00		 mov	 DWORD PTR [esi+24], 7
  0002e	66 89 46 04	 mov	 WORD PTR [esi+4], ax
  00032	5e		 pop	 esi
  00033	c3		 ret	 0
??1SHyperlink@CGraphicTextInstance@@QAE@XZ ENDP		; CGraphicTextInstance::SHyperlink::~SHyperlink
_TEXT	ENDS
; Function compile flags: /Ogtp
; File C:\DS Project\DS Files\Source\ClientSource\Client\EterLib\GrpTextInstance.cpp
; File C:\Program Files (x86)\Microsoft Visual Studio\2019\Community\VC\Tools\MSVC\14.27.29110\include\vector
; File C:\DS Project\DS Files\Source\ClientSource\Client\EterLib\GrpTextInstance.cpp
; File C:\Program Files (x86)\Microsoft Visual Studio\2019\Community\VC\Tools\MSVC\14.27.29110\include\vector
; File C:\DS Project\DS Files\Source\ClientSource\Client\EterLib\GrpTextInstance.cpp
;	COMDAT ?__GetTextPos@CGraphicTextInstance@@IAEXKPAM0@Z
_TEXT	SEGMENT
_index$ = 8						; size = 4
_x$ = 12						; size = 4
_y$ = 16						; size = 4
?__GetTextPos@CGraphicTextInstance@@IAEXKPAM0@Z PROC	; CGraphicTextInstance::__GetTextPos, COMDAT
; _this$ = ecx

; 59   : {

  00000	55		 push	 ebp
  00001	8b ec		 mov	 ebp, esp
  00003	56		 push	 esi
; File C:\Program Files (x86)\Microsoft Visual Studio\2019\Community\VC\Tools\MSVC\14.27.29110\include\vector

; 1484 :         return static_cast<size_type>(_My_data._Mylast - _My_data._Myfirst);

  00004	8b 71 50	 mov	 esi, DWORD PTR [ecx+80]
  00007	0f 57 c9	 xorps	 xmm1, xmm1
; File C:\DS Project\DS Files\Source\ClientSource\Client\EterLib\GrpTextInstance.cpp

; 59   : {

  0000a	57		 push	 edi
; File C:\Program Files (x86)\Microsoft Visual Studio\2019\Community\VC\Tools\MSVC\14.27.29110\include\vector

; 1484 :         return static_cast<size_type>(_My_data._Mylast - _My_data._Myfirst);

  0000b	8b 79 4c	 mov	 edi, DWORD PTR [ecx+76]
  0000e	0f 57 db	 xorps	 xmm3, xmm3
  00011	2b f7		 sub	 esi, edi
  00013	0f 57 d2	 xorps	 xmm2, xmm2
  00016	c1 fe 02	 sar	 esi, 2
; File C:\DS Project\DS Files\Source\ClientSource\Client\EterLib\GrpTextInstance.cpp

; 60   : 	index = min(index, m_pCharInfoVector.size());

  00019	39 75 08	 cmp	 DWORD PTR _index$[ebp], esi
  0001c	0f 42 75 08	 cmovb	 esi, DWORD PTR _index$[ebp]
  00020	33 d2		 xor	 edx, edx

; 61   : 
; 62   : 	float sx = 0;
; 63   : 	float sy = 0;
; 64   : 	float fFontMaxHeight = 0;
; 65   : 
; 66   : 	for(DWORD i=0; i<index; ++i)

  00022	85 f6		 test	 esi, esi
  00024	74 47		 je	 SHORT $LN3@GetTextPos

; 67   : 	{
; 68   : 		if (sx+float(m_pCharInfoVector[i]->width) > m_fLimitWidth)

  00026	f3 0f 10 61 14	 movss	 xmm4, DWORD PTR [ecx+20]
  0002b	0f 1f 44 00 00	 npad	 5
$LL4@GetTextPos:
  00030	8b 0c 97	 mov	 ecx, DWORD PTR [edi+edx*4]
  00033	0f bf 41 02	 movsx	 eax, WORD PTR [ecx+2]
  00037	66 0f 6e c0	 movd	 xmm0, eax
  0003b	0f 5b c0	 cvtdq2ps xmm0, xmm0
  0003e	f3 0f 58 c1	 addss	 xmm0, xmm1
  00042	0f 2f c4	 comiss	 xmm0, xmm4
  00045	76 0a		 jbe	 SHORT $LN5@GetTextPos

; 69   : 		{
; 70   : 			sx = 0;
; 71   : 			sy += fFontMaxHeight;

  00047	0f 28 c2	 movaps	 xmm0, xmm2
  0004a	0f 57 c9	 xorps	 xmm1, xmm1
  0004d	f3 0f 58 d8	 addss	 xmm3, xmm0
$LN5@GetTextPos:

; 72   : 		}
; 73   : 
; 74   : 		sx += float(m_pCharInfoVector[i]->advance);
; 75   : 		fFontMaxHeight = max(float(m_pCharInfoVector[i]->height), fFontMaxHeight);

  00051	0f bf 41 04	 movsx	 eax, WORD PTR [ecx+4]
  00055	42		 inc	 edx
  00056	f3 0f 58 49 18	 addss	 xmm1, DWORD PTR [ecx+24]
  0005b	66 0f 6e c0	 movd	 xmm0, eax
  0005f	0f 5b c0	 cvtdq2ps xmm0, xmm0
  00062	f3 0f 5f c2	 maxss	 xmm0, xmm2
  00066	0f 28 d0	 movaps	 xmm2, xmm0
  00069	3b d6		 cmp	 edx, esi
  0006b	72 c3		 jb	 SHORT $LL4@GetTextPos
$LN3@GetTextPos:

; 76   : 	}
; 77   : 
; 78   : 	*x = sx;

  0006d	8b 45 0c	 mov	 eax, DWORD PTR _x$[ebp]

; 79   : 	*y = sy;

  00070	5f		 pop	 edi
  00071	5e		 pop	 esi
  00072	f3 0f 11 08	 movss	 DWORD PTR [eax], xmm1
  00076	8b 45 10	 mov	 eax, DWORD PTR _y$[ebp]
  00079	f3 0f 11 18	 movss	 DWORD PTR [eax], xmm3

; 80   : }

  0007d	5d		 pop	 ebp
  0007e	c2 0c 00	 ret	 12			; 0000000cH
?__GetTextPos@CGraphicTextInstance@@IAEXKPAM0@Z ENDP	; CGraphicTextInstance::__GetTextPos
_TEXT	ENDS
; Function compile flags: /Ogtp
; File C:\DS Project\DS Files\Source\ClientSource\Client\EterLib\GrpTextInstance.cpp
; File C:\Program Files (x86)\Microsoft Visual Studio\2019\Community\VC\Tools\MSVC\14.27.29110\include\vector
; File C:\DS Project\DS Files\Source\ClientSource\Client\EterLib\GrpTextInstance.cpp
; File C:\Program Files (x86)\Microsoft Visual Studio\2019\Community\VC\Tools\MSVC\14.27.29110\include\vector
; File C:\DS Project\DS Files\Source\ClientSource\Client\EterLib\GrpTextInstance.cpp
; File C:\Program Files (x86)\Microsoft Visual Studio\2019\Community\VC\Tools\MSVC\14.27.29110\include\vector
; File C:\DS Project\DS Files\Source\ClientSource\Client\EterLib\GrpTextInstance.cpp
;	COMDAT ?__DrawCharacter@CGraphicTextInstance@@IAEHPAVCGraphicFontTexture@@G_WK@Z
_TEXT	SEGMENT
_pFontTexture$ = 8					; size = 4
_codePage$ = 12						; size = 2
_text$ = 16						; size = 2
_pInsCharInfo$ = 16					; size = 4
_dwColor$ = 20						; size = 4
?__DrawCharacter@CGraphicTextInstance@@IAEHPAVCGraphicFontTexture@@G_WK@Z PROC ; CGraphicTextInstance::__DrawCharacter, COMDAT
; _this$ = ecx

; 42   : {

  00000	55		 push	 ebp
  00001	8b ec		 mov	 ebp, esp
  00003	53		 push	 ebx
  00004	57		 push	 edi

; 43   : 	CGraphicFontTexture::TCharacterInfomation* pInsCharInfo = pFontTexture->GetCharacterInfomation(codePage, text);

  00005	ff 75 10	 push	 DWORD PTR _text$[ebp]
  00008	8b d9		 mov	 ebx, ecx
  0000a	8b 4d 08	 mov	 ecx, DWORD PTR _pFontTexture$[ebp]
  0000d	ff 75 0c	 push	 DWORD PTR _codePage$[ebp]
  00010	e8 00 00 00 00	 call	 ?GetCharacterInfomation@CGraphicFontTexture@@QAEPAUSCharacterInfomation@1@G_W@Z ; CGraphicFontTexture::GetCharacterInfomation
  00015	8b f8		 mov	 edi, eax
  00017	89 7d 10	 mov	 DWORD PTR _pInsCharInfo$[ebp], edi

; 44   : 
; 45   : 	if (pInsCharInfo)

  0001a	85 ff		 test	 edi, edi
  0001c	74 78		 je	 SHORT $LN2@DrawCharac
; File C:\Program Files (x86)\Microsoft Visual Studio\2019\Community\VC\Tools\MSVC\14.27.29110\include\vector

; 704  :         if (_Mylast != _My_data._Myend) {

  0001e	8b 53 5c	 mov	 edx, DWORD PTR [ebx+92]
; File C:\DS Project\DS Files\Source\ClientSource\Client\EterLib\GrpTextInstance.cpp

; 47   : 		m_dwColorInfoVector.push_back(dwColor);

  00021	8d 4b 58	 lea	 ecx, DWORD PTR [ebx+88]
; File C:\Program Files (x86)\Microsoft Visual Studio\2019\Community\VC\Tools\MSVC\14.27.29110\include\vector

; 704  :         if (_Mylast != _My_data._Myend) {

  00024	3b 51 08	 cmp	 edx, DWORD PTR [ecx+8]
  00027	74 0b		 je	 SHORT $LN9@DrawCharac

; 687  :         _Alty_traits::construct(_Getal(), _Unfancy(_Mylast), _STD forward<_Valty>(_Val)...);

  00029	8b 45 14	 mov	 eax, DWORD PTR _dwColor$[ebp]
  0002c	89 02		 mov	 DWORD PTR [edx], eax

; 688  :         _Orphan_range(_Mylast, _Mylast);
; 689  :         _Ty& _Result = *_Mylast;
; 690  :         ++_Mylast;

  0002e	83 41 04 04	 add	 DWORD PTR [ecx+4], 4

; 705  :             return _Emplace_back_with_unused_capacity(_STD forward<_Valty>(_Val)...);

  00032	eb 0a		 jmp	 SHORT $LN8@DrawCharac
$LN9@DrawCharac:

; 706  :         }
; 707  : 
; 708  :         _Ty& _Result = *_Emplace_reallocate(_Mylast, _STD forward<_Valty>(_Val)...);

  00034	8d 45 14	 lea	 eax, DWORD PTR _dwColor$[ebp]
  00037	50		 push	 eax
  00038	52		 push	 edx
  00039	e8 00 00 00 00	 call	 ??$_Emplace_reallocate@ABK@?$vector@KV?$allocator@K@std@@@std@@QAEPAKQAKABK@Z ; std::vector<unsigned long,std::allocator<unsigned long> >::_Emplace_reallocate<unsigned long const &>
$LN8@DrawCharac:

; 704  :         if (_Mylast != _My_data._Myend) {

  0003e	8b 43 50	 mov	 eax, DWORD PTR [ebx+80]
; File C:\DS Project\DS Files\Source\ClientSource\Client\EterLib\GrpTextInstance.cpp

; 48   : 		m_pCharInfoVector.push_back(pInsCharInfo);

  00041	8d 4b 4c	 lea	 ecx, DWORD PTR [ebx+76]
; File C:\Program Files (x86)\Microsoft Visual Studio\2019\Community\VC\Tools\MSVC\14.27.29110\include\vector

; 704  :         if (_Mylast != _My_data._Myend) {

  00044	3b 41 08	 cmp	 eax, DWORD PTR [ecx+8]
  00047	74 08		 je	 SHORT $LN16@DrawCharac

; 687  :         _Alty_traits::construct(_Getal(), _Unfancy(_Mylast), _STD forward<_Valty>(_Val)...);

  00049	89 38		 mov	 DWORD PTR [eax], edi

; 688  :         _Orphan_range(_Mylast, _Mylast);
; 689  :         _Ty& _Result = *_Mylast;
; 690  :         ++_Mylast;

  0004b	83 41 04 04	 add	 DWORD PTR [ecx+4], 4

; 705  :             return _Emplace_back_with_unused_capacity(_STD forward<_Valty>(_Val)...);

  0004f	eb 0a		 jmp	 SHORT $LN15@DrawCharac
$LN16@DrawCharac:

; 706  :         }
; 707  : 
; 708  :         _Ty& _Result = *_Emplace_reallocate(_Mylast, _STD forward<_Valty>(_Val)...);

  00051	8d 55 10	 lea	 edx, DWORD PTR _pInsCharInfo$[ebp]
  00054	52		 push	 edx
  00055	50		 push	 eax
  00056	e8 00 00 00 00	 call	 ??$_Emplace_reallocate@ABQAUSCharacterInfomation@CGraphicFontTexture@@@?$vector@PAUSCharacterInfomation@CGraphicFontTexture@@V?$allocator@PAUSCharacterInfomation@CGraphicFontTexture@@@std@@@std@@QAEPAPAUSCharacterInfomation@CGraphicFontTexture@@QAPAU23@ABQAU23@@Z ; std::vector<CGraphicFontTexture::SCharacterInfomation *,std::allocator<CGraphicFontTexture::SCharacterInfomation *> >::_Emplace_reallocate<CGraphicFontTexture::SCharacterInfomation * const &>
$LN15@DrawCharac:
; File C:\DS Project\DS Files\Source\ClientSource\Client\EterLib\GrpTextInstance.cpp

; 50   : 		m_textWidth += pInsCharInfo->advance;

  0005b	0f b7 43 0c	 movzx	 eax, WORD PTR [ebx+12]

; 51   : 		m_textHeight = max(pInsCharInfo->height, m_textHeight);

  0005f	0f b7 4b 0e	 movzx	 ecx, WORD PTR [ebx+14]
  00063	56		 push	 esi
  00064	66 0f 6e c0	 movd	 xmm0, eax
  00068	0f 5b c0	 cvtdq2ps xmm0, xmm0
  0006b	f3 0f 58 47 18	 addss	 xmm0, DWORD PTR [edi+24]
  00070	f3 0f 2c c0	 cvttss2si eax, xmm0
  00074	66 89 43 0c	 mov	 WORD PTR [ebx+12], ax
  00078	8b c1		 mov	 eax, ecx
  0007a	0f bf 77 04	 movsx	 esi, WORD PTR [edi+4]
  0007e	3b f1		 cmp	 esi, ecx
  00080	0f b7 d6	 movzx	 edx, si

; 52   : 		return pInsCharInfo->advance;

  00083	5e		 pop	 esi
  00084	0f 4e d0	 cmovle	 edx, eax
  00087	66 89 53 0e	 mov	 WORD PTR [ebx+14], dx
  0008b	f3 0f 2c 47 18	 cvttss2si eax, DWORD PTR [edi+24]
  00090	5f		 pop	 edi

; 56   : }

  00091	5b		 pop	 ebx
  00092	5d		 pop	 ebp
  00093	c2 10 00	 ret	 16			; 00000010H
$LN2@DrawCharac:
  00096	5f		 pop	 edi

; 53   : 	}
; 54   : 
; 55   : 	return 0;

  00097	33 c0		 xor	 eax, eax

; 56   : }

  00099	5b		 pop	 ebx
  0009a	5d		 pop	 ebp
  0009b	c2 10 00	 ret	 16			; 00000010H
?__DrawCharacter@CGraphicTextInstance@@IAEHPAVCGraphicFontTexture@@G_WK@Z ENDP ; CGraphicTextInstance::__DrawCharacter
_TEXT	ENDS
; Function compile flags: /Ogtp
; File C:\DS Project\DS Files\Source\ClientSource\Client\EterLib\GrpTextInstance.cpp
; File C:\DS Project\DS Files\Source\ClientSource\Client\EterLib\Ref.h
; File C:\DS Project\DS Files\Source\ClientSource\Client\EterLib\GrpTextInstance.cpp
;	COMDAT ?__Initialize@CGraphicTextInstance@@IAEXXZ
_TEXT	SEGMENT
?__Initialize@CGraphicTextInstance@@IAEXXZ PROC		; CGraphicTextInstance::__Initialize, COMDAT
; _this$ = ecx

; 1146 : {

  00000	56		 push	 esi
  00001	8b f1		 mov	 esi, ecx
; File C:\DS Project\DS Files\Source\ClientSource\Client\EterLib\Ref.h

; 67   : 			CReferenceObject* pOldObject = m_pObject;

  00003	8b 4e 48	 mov	 ecx, DWORD PTR [esi+72]

; 68   : 
; 69   : 			m_pObject = pObject;

  00006	c7 46 48 00 00
	00 00		 mov	 DWORD PTR [esi+72], 0

; 70   : 
; 71   : 			if (m_pObject)
; 72   : 				m_pObject->AddReference();
; 73   : 
; 74   : 			if (pOldObject)

  0000d	85 c9		 test	 ecx, ecx
  0000f	74 05		 je	 SHORT $LN7@Initialize

; 75   : 				pOldObject->Release();

  00011	e8 00 00 00 00	 call	 ?Release@CReferenceObject@@QAEXXZ ; CReferenceObject::Release
$LN7@Initialize:
; File C:\DS Project\DS Files\Source\ClientSource\Client\EterLib\GrpTextInstance.cpp

; 1164 : 	m_textWidth = 0;

  00016	33 c0		 xor	 eax, eax
  00018	c7 46 10 01 10
	00 00		 mov	 DWORD PTR [esi+16], 4097 ; 00001001H
  0001f	c7 46 14 00 00
	c8 44		 mov	 DWORD PTR [esi+20], 1153957888 ; 44c80000H
  00026	c7 46 18 00 00
	00 00		 mov	 DWORD PTR [esi+24], 0
  0002d	c7 46 1c 00 00
	00 3f		 mov	 DWORD PTR [esi+28], 1056964608 ; 3f000000H
  00034	c6 46 44 00	 mov	 BYTE PTR [esi+68], 0
  00038	89 46 0c	 mov	 DWORD PTR [esi+12], eax

; 1165 : 	m_textHeight = 0;
; 1166 : 
; 1167 : 	m_v3Position.x = m_v3Position.y = m_v3Position.z = 0.0f;

  0003b	89 46 40	 mov	 DWORD PTR [esi+64], eax
  0003e	89 46 3c	 mov	 DWORD PTR [esi+60], eax
  00041	89 46 38	 mov	 DWORD PTR [esi+56], eax

; 1168 : 
; 1169 : 	m_dwOutLineColor=0xff000000;

  00044	c7 46 08 00 00
	00 ff		 mov	 DWORD PTR [esi+8], -16777216 ; ff000000H
  0004b	5e		 pop	 esi

; 1170 : }

  0004c	c3		 ret	 0
?__Initialize@CGraphicTextInstance@@IAEXXZ ENDP		; CGraphicTextInstance::__Initialize
_TEXT	ENDS
; Function compile flags: /Ogtp
; File C:\DS Project\DS Files\Source\ClientSource\Client\EterLib\GrpTextInstance.cpp
;	COMDAT ?GetHorizontalAlign@CGraphicTextInstance@@QAEHXZ
_TEXT	SEGMENT
?GetHorizontalAlign@CGraphicTextInstance@@QAEHXZ PROC	; CGraphicTextInstance::GetHorizontalAlign, COMDAT
; _this$ = ecx

; 1142 : 	return m_hAlign;

  00000	0f b6 41 10	 movzx	 eax, BYTE PTR [ecx+16]

; 1143 : }

  00004	c3		 ret	 0
?GetHorizontalAlign@CGraphicTextInstance@@QAEHXZ ENDP	; CGraphicTextInstance::GetHorizontalAlign
_TEXT	ENDS
; Function compile flags: /Ogtp
; File C:\DS Project\DS Files\Source\ClientSource\Client\EterLib\GrpTextInstance.cpp
; File C:\Program Files (x86)\Microsoft Visual Studio\2019\Community\VC\Tools\MSVC\14.27.29110\include\vector
; File C:\DS Project\DS Files\Source\ClientSource\Client\EterLib\GrpTextInstance.cpp
; File C:\Program Files (x86)\Microsoft Visual Studio\2019\Community\VC\Tools\MSVC\14.27.29110\include\vector
; File C:\DS Project\DS Files\Source\ClientSource\Client\EterLib\GrpTextInstance.cpp
; File C:\Program Files (x86)\Microsoft Visual Studio\2019\Community\VC\Tools\MSVC\14.27.29110\include\vector
; File C:\DS Project\DS Files\Source\ClientSource\Client\EterLib\GrpTextInstance.cpp
;	COMDAT ?PixelPositionToCharacterPosition@CGraphicTextInstance@@QAEHH@Z
_TEXT	SEGMENT
_iPixelPosition$ = 8					; size = 4
?PixelPositionToCharacterPosition@CGraphicTextInstance@@QAEHH@Z PROC ; CGraphicTextInstance::PixelPositionToCharacterPosition, COMDAT
; _this$ = ecx

; 1126 : {

  00000	55		 push	 ebp
  00001	8b ec		 mov	 ebp, esp
; File C:\Program Files (x86)\Microsoft Visual Studio\2019\Community\VC\Tools\MSVC\14.27.29110\include\vector

; 1484 :         return static_cast<size_type>(_My_data._Mylast - _My_data._Myfirst);

  00003	8b 51 4c	 mov	 edx, DWORD PTR [ecx+76]
; File C:\DS Project\DS Files\Source\ClientSource\Client\EterLib\GrpTextInstance.cpp

; 1128 : 	for (int i = 0; i < (int)m_pCharInfoVector.size(); ++i)

  00006	33 c0		 xor	 eax, eax
  00008	53		 push	 ebx
  00009	56		 push	 esi
  0000a	57		 push	 edi
; File C:\Program Files (x86)\Microsoft Visual Studio\2019\Community\VC\Tools\MSVC\14.27.29110\include\vector

; 1484 :         return static_cast<size_type>(_My_data._Mylast - _My_data._Myfirst);

  0000b	8b 79 50	 mov	 edi, DWORD PTR [ecx+80]
; File C:\DS Project\DS Files\Source\ClientSource\Client\EterLib\GrpTextInstance.cpp

; 1127 : 	int icurPosition = 0;

  0000e	33 f6		 xor	 esi, esi
; File C:\Program Files (x86)\Microsoft Visual Studio\2019\Community\VC\Tools\MSVC\14.27.29110\include\vector

; 1484 :         return static_cast<size_type>(_My_data._Mylast - _My_data._Myfirst);

  00010	2b fa		 sub	 edi, edx
  00012	c1 ff 02	 sar	 edi, 2
; File C:\DS Project\DS Files\Source\ClientSource\Client\EterLib\GrpTextInstance.cpp

; 1128 : 	for (int i = 0; i < (int)m_pCharInfoVector.size(); ++i)

  00015	85 ff		 test	 edi, edi
  00017	7e 1b		 jle	 SHORT $LN3@PixelPosit
  00019	8b 5d 08	 mov	 ebx, DWORD PTR _iPixelPosition$[ebp]
  0001c	0f 1f 40 00	 npad	 4
$LL4@PixelPosit:

; 1129 : 	{
; 1130 : 		CGraphicFontTexture::TCharacterInfomation* pCurCharInfo = m_pCharInfoVector[i];
; 1131 : 		icurPosition += pCurCharInfo->width;

  00020	8b 0a		 mov	 ecx, DWORD PTR [edx]
  00022	0f bf 49 02	 movsx	 ecx, WORD PTR [ecx+2]
  00026	03 f1		 add	 esi, ecx

; 1132 : 
; 1133 : 		if (iPixelPosition < icurPosition)

  00028	3b de		 cmp	 ebx, esi
  0002a	7c 0b		 jl	 SHORT $LN1@PixelPosit

; 1128 : 	for (int i = 0; i < (int)m_pCharInfoVector.size(); ++i)

  0002c	40		 inc	 eax
  0002d	83 c2 04	 add	 edx, 4
  00030	3b c7		 cmp	 eax, edi
  00032	7c ec		 jl	 SHORT $LL4@PixelPosit
$LN3@PixelPosit:

; 1134 : 			return i;
; 1135 : 	}
; 1136 : 
; 1137 : 	return -1;

  00034	83 c8 ff	 or	 eax, -1
$LN1@PixelPosit:
  00037	5f		 pop	 edi

; 1138 : }

  00038	5e		 pop	 esi
  00039	5b		 pop	 ebx
  0003a	5d		 pop	 ebp
  0003b	c2 04 00	 ret	 4
?PixelPositionToCharacterPosition@CGraphicTextInstance@@QAEHH@Z ENDP ; CGraphicTextInstance::PixelPositionToCharacterPosition
_TEXT	ENDS
; Function compile flags: /Ogtp
; File C:\DS Project\DS Files\Source\ClientSource\Client\EterLib\GrpTextInstance.cpp
; File C:\Program Files (x86)\Microsoft Visual Studio\2019\Community\VC\Tools\MSVC\14.27.29110\include\vector
; File C:\DS Project\DS Files\Source\ClientSource\Client\EterLib\GrpTextInstance.cpp
; File C:\Program Files (x86)\Microsoft Visual Studio\2019\Community\VC\Tools\MSVC\14.27.29110\include\vector
; File C:\DS Project\DS Files\Source\ClientSource\Client\EterLib\GrpTextInstance.cpp
; File C:\Program Files (x86)\Microsoft Visual Studio\2019\Community\VC\Tools\MSVC\14.27.29110\include\vector
; File C:\DS Project\DS Files\Source\ClientSource\Client\EterLib\GrpTextInstance.cpp
; File C:\Program Files (x86)\Microsoft Visual Studio\2019\Community\VC\Tools\MSVC\14.27.29110\include\vector
; File C:\DS Project\DS Files\Source\ClientSource\Client\EterLib\GrpTextInstance.cpp
;	COMDAT ?GetTextLineCount@CGraphicTextInstance@@QAEGXZ
_TEXT	SEGMENT
?GetTextLineCount@CGraphicTextInstance@@QAEGXZ PROC	; CGraphicTextInstance::GetTextLineCount, COMDAT
; _this$ = ecx
; File C:\Program Files (x86)\Microsoft Visual Studio\2019\Community\VC\Tools\MSVC\14.27.29110\include\vector

; 42   :     _Vector_const_iterator(_Tptr _Parg, const _Container_base* _Pvector) noexcept : _Ptr(_Parg) {

  00000	8b 41 4c	 mov	 eax, DWORD PTR [ecx+76]
  00003	0f 57 c0	 xorps	 xmm0, xmm0
  00006	8b 51 50	 mov	 edx, DWORD PTR [ecx+80]
; File C:\DS Project\DS Files\Source\ClientSource\Client\EterLib\GrpTextInstance.cpp

; 1093 : {

  00009	57		 push	 edi

; 1094 : 	CGraphicFontTexture::TCharacterInfomation* pCurCharInfo;
; 1095 : 	CGraphicFontTexture::TPCharacterInfomationVector::iterator itor;
; 1096 : 
; 1097 : 	float fx = 0.0f;
; 1098 : 	WORD wLineCount = 1;

  0000a	bf 01 00 00 00	 mov	 edi, 1
; File C:\Program Files (x86)\Microsoft Visual Studio\2019\Community\VC\Tools\MSVC\14.27.29110\include\vector

