; Listing generated by Microsoft (R) Optimizing Compiler Version 19.27.29112.0 

	TITLE	C:\DS Project\DS Files\Source\ClientSource\Client\EterLib\GrpTexture.cpp
	.686P
	.XMM
	include listing.inc
	.model	flat

INCLUDELIB LIBCMT
INCLUDELIB OLDNAMES

PUBLIC	??_H@YGXPAXIIP6EPAX0@Z@Z			; `vector constructor iterator'
PUBLIC	?IsEmpty@CGraphicTexture@@UBE_NXZ		; CGraphicTexture::IsEmpty
PUBLIC	?GetWidth@CGraphicTexture@@QBEHXZ		; CGraphicTexture::GetWidth
PUBLIC	?GetHeight@CGraphicTexture@@QBEHXZ		; CGraphicTexture::GetHeight
PUBLIC	?SetTextureStage@CGraphicTexture@@QBEXH@Z	; CGraphicTexture::SetTextureStage
PUBLIC	?GetD3DTexture@CGraphicTexture@@QBEPAUIDirect3DTexture8@@XZ ; CGraphicTexture::GetD3DTexture
PUBLIC	?DestroyDeviceObjects@CGraphicTexture@@QAEXXZ	; CGraphicTexture::DestroyDeviceObjects
PUBLIC	??0CGraphicTexture@@IAE@XZ			; CGraphicTexture::CGraphicTexture
PUBLIC	??1CGraphicTexture@@MAE@XZ			; CGraphicTexture::~CGraphicTexture
PUBLIC	?Destroy@CGraphicTexture@@IAEXXZ		; CGraphicTexture::Destroy
PUBLIC	?Initialize@CGraphicTexture@@IAEXXZ		; CGraphicTexture::Initialize
PUBLIC	??_GCGraphicTexture@@MAEPAXI@Z			; CGraphicTexture::`scalar deleting destructor'
PUBLIC	??_7CGraphicTexture@@6B@			; CGraphicTexture::`vftable'
PUBLIC	?ms_singleton@?$CSingleton@VCStateManager@@@@0PAVCStateManager@@A ; CSingleton<CStateManager>::ms_singleton
PUBLIC	??_R4CGraphicTexture@@6B@			; CGraphicTexture::`RTTI Complete Object Locator'
PUBLIC	??_R0?AVCGraphicTexture@@@8			; CGraphicTexture `RTTI Type Descriptor'
PUBLIC	??_R3CGraphicTexture@@8				; CGraphicTexture::`RTTI Class Hierarchy Descriptor'
PUBLIC	??_R2CGraphicTexture@@8				; CGraphicTexture::`RTTI Base Class Array'
PUBLIC	??_R1A@?0A@EA@CGraphicTexture@@8		; CGraphicTexture::`RTTI Base Class Descriptor at (0,-1,0,64)'
PUBLIC	??_R1A@?0A@EA@CGraphicBase@@8			; CGraphicBase::`RTTI Base Class Descriptor at (0,-1,0,64)'
PUBLIC	??_R0?AVCGraphicBase@@@8			; CGraphicBase `RTTI Type Descriptor'
PUBLIC	??_R3CGraphicBase@@8				; CGraphicBase::`RTTI Class Hierarchy Descriptor'
PUBLIC	??_R2CGraphicBase@@8				; CGraphicBase::`RTTI Base Class Array'
EXTRN	??3@YAXPAXI@Z:PROC				; operator delete
EXTRN	??0CGraphicBase@@QAE@XZ:PROC			; CGraphicBase::CGraphicBase
EXTRN	??1CGraphicBase@@UAE@XZ:PROC			; CGraphicBase::~CGraphicBase
EXTRN	??_ECGraphicTexture@@MAEPAXI@Z:PROC		; CGraphicTexture::`vector deleting destructor'
EXTRN	?SetTexture@CStateManager@@QAEXKPAUIDirect3DBaseTexture8@@@Z:PROC ; CStateManager::SetTexture
EXTRN	??_7type_info@@6B@:QWORD			; type_info::`vftable'
;	COMDAT ?ms_singleton@?$CSingleton@VCStateManager@@@@0PAVCStateManager@@A
_BSS	SEGMENT
?ms_singleton@?$CSingleton@VCStateManager@@@@0PAVCStateManager@@A DD 01H DUP (?) ; CSingleton<CStateManager>::ms_singleton
_BSS	ENDS
;	COMDAT ??_R2CGraphicBase@@8
rdata$r	SEGMENT
??_R2CGraphicBase@@8 DD FLAT:??_R1A@?0A@EA@CGraphicBase@@8 ; CGraphicBase::`RTTI Base Class Array'
rdata$r	ENDS
;	COMDAT ??_R3CGraphicBase@@8
rdata$r	SEGMENT
??_R3CGraphicBase@@8 DD 00H				; CGraphicBase::`RTTI Class Hierarchy Descriptor'
	DD	00H
	DD	01H
	DD	FLAT:??_R2CGraphicBase@@8
rdata$r	ENDS
;	COMDAT ??_R0?AVCGraphicBase@@@8
data$r	SEGMENT
??_R0?AVCGraphicBase@@@8 DD FLAT:??_7type_info@@6B@	; CGraphicBase `RTTI Type Descriptor'
	DD	00H
	DB	'.?AVCGraphicBase@@', 00H
data$r	ENDS
;	COMDAT ??_R1A@?0A@EA@CGraphicBase@@8
rdata$r	SEGMENT
??_R1A@?0A@EA@CGraphicBase@@8 DD FLAT:??_R0?AVCGraphicBase@@@8 ; CGraphicBase::`RTTI Base Class Descriptor at (0,-1,0,64)'
	DD	00H
	DD	00H
	DD	0ffffffffH
	DD	00H
	DD	040H
	DD	FLAT:??_R3CGraphicBase@@8
rdata$r	ENDS
;	COMDAT ??_R1A@?0A@EA@CGraphicTexture@@8
rdata$r	SEGMENT
??_R1A@?0A@EA@CGraphicTexture@@8 DD FLAT:??_R0?AVCGraphicTexture@@@8 ; CGraphicTexture::`RTTI Base Class Descriptor at (0,-1,0,64)'
	DD	01H
	DD	00H
	DD	0ffffffffH
	DD	00H
	DD	040H
	DD	FLAT:??_R3CGraphicTexture@@8
rdata$r	ENDS
;	COMDAT ??_R2CGraphicTexture@@8
rdata$r	SEGMENT
??_R2CGraphicTexture@@8 DD FLAT:??_R1A@?0A@EA@CGraphicTexture@@8 ; CGraphicTexture::`RTTI Base Class Array'
	DD	FLAT:??_R1A@?0A@EA@CGraphicBase@@8
rdata$r	ENDS
;	COMDAT ??_R3CGraphicTexture@@8
rdata$r	SEGMENT
??_R3CGraphicTexture@@8 DD 00H				; CGraphicTexture::`RTTI Class Hierarchy Descriptor'
	DD	00H
	DD	02H
	DD	FLAT:??_R2CGraphicTexture@@8
rdata$r	ENDS
;	COMDAT ??_R0?AVCGraphicTexture@@@8
data$r	SEGMENT
??_R0?AVCGraphicTexture@@@8 DD FLAT:??_7type_info@@6B@	; CGraphicTexture `RTTI Type Descriptor'
	DD	00H
	DB	'.?AVCGraphicTexture@@', 00H
data$r	ENDS
;	COMDAT ??_R4CGraphicTexture@@6B@
rdata$r	SEGMENT
??_R4CGraphicTexture@@6B@ DD 00H			; CGraphicTexture::`RTTI Complete Object Locator'
	DD	00H
	DD	00H
	DD	FLAT:??_R0?AVCGraphicTexture@@@8
	DD	FLAT:??_R3CGraphicTexture@@8
rdata$r	ENDS
;	COMDAT ??_7CGraphicTexture@@6B@
CONST	SEGMENT
??_7CGraphicTexture@@6B@ DD FLAT:??_R4CGraphicTexture@@6B@ ; CGraphicTexture::`vftable'
	DD	FLAT:??_ECGraphicTexture@@MAEPAXI@Z
	DD	FLAT:?IsEmpty@CGraphicTexture@@UBE_NXZ
CONST	ENDS
; Function compile flags: /Ogtp
;	COMDAT ??_GCGraphicTexture@@MAEPAXI@Z
_TEXT	SEGMENT
___flags$ = 8						; size = 4
??_GCGraphicTexture@@MAEPAXI@Z PROC			; CGraphicTexture::`scalar deleting destructor', COMDAT
; _this$ = ecx
  00000	55		 push	 ebp
  00001	8b ec		 mov	 ebp, esp
  00003	56		 push	 esi
  00004	8b f1		 mov	 esi, ecx
  00006	e8 00 00 00 00	 call	 ??1CGraphicTexture@@MAE@XZ ; CGraphicTexture::~CGraphicTexture
  0000b	f6 45 08 01	 test	 BYTE PTR ___flags$[ebp], 1
  0000f	74 0b		 je	 SHORT $LN4@scalar
  00011	6a 14		 push	 20			; 00000014H
  00013	56		 push	 esi
  00014	e8 00 00 00 00	 call	 ??3@YAXPAXI@Z		; operator delete
  00019	83 c4 08	 add	 esp, 8
$LN4@scalar:
  0001c	8b c6		 mov	 eax, esi
  0001e	5e		 pop	 esi
  0001f	5d		 pop	 ebp
  00020	c2 04 00	 ret	 4
??_GCGraphicTexture@@MAEPAXI@Z ENDP			; CGraphicTexture::`scalar deleting destructor'
_TEXT	ENDS
; Function compile flags: /Ogtp
; File C:\DS Project\DS Files\Source\ClientSource\Client\EterLib\GrpTexture.cpp
;	COMDAT ?Initialize@CGraphicTexture@@IAEXXZ
_TEXT	SEGMENT
?Initialize@CGraphicTexture@@IAEXXZ PROC		; CGraphicTexture::Initialize, COMDAT
; _this$ = ecx

; 20   : 	m_lpd3dTexture = NULL;

  00000	c7 41 10 00 00
	00 00		 mov	 DWORD PTR [ecx+16], 0

; 21   : 	m_width = 0;

  00007	c7 41 08 00 00
	00 00		 mov	 DWORD PTR [ecx+8], 0

; 22   : 	m_height = 0;

  0000e	c7 41 0c 00 00
	00 00		 mov	 DWORD PTR [ecx+12], 0

; 23   : 	m_bEmpty = true;

  00015	c6 41 04 01	 mov	 BYTE PTR [ecx+4], 1

; 24   : }

  00019	c3		 ret	 0
?Initialize@CGraphicTexture@@IAEXXZ ENDP		; CGraphicTexture::Initialize
_TEXT	ENDS
; Function compile flags: /Ogtp
; File C:\DS Project\DS Files\Source\ClientSource\Client\EterLib\GrpTexture.cpp
;	COMDAT ?Destroy@CGraphicTexture@@IAEXXZ
_TEXT	SEGMENT
?Destroy@CGraphicTexture@@IAEXXZ PROC			; CGraphicTexture::Destroy, COMDAT
; _this$ = ecx

; 12   : {

  00000	56		 push	 esi
  00001	8b f1		 mov	 esi, ecx

; 13   : 	DestroyDeviceObjects();

  00003	e8 00 00 00 00	 call	 ?DestroyDeviceObjects@CGraphicTexture@@QAEXXZ ; CGraphicTexture::DestroyDeviceObjects

; 14   : 
; 15   : 	Initialize();

  00008	8b ce		 mov	 ecx, esi
  0000a	5e		 pop	 esi
  0000b	e9 00 00 00 00	 jmp	 ?Initialize@CGraphicTexture@@IAEXXZ ; CGraphicTexture::Initialize
?Destroy@CGraphicTexture@@IAEXXZ ENDP			; CGraphicTexture::Destroy
_TEXT	ENDS
; Function compile flags: /Ogtp
; File C:\DS Project\DS Files\Source\ClientSource\Client\EterLib\GrpTexture.cpp
;	COMDAT ??1CGraphicTexture@@MAE@XZ
_TEXT	SEGMENT
??1CGraphicTexture@@MAE@XZ PROC				; CGraphicTexture::~CGraphicTexture, COMDAT
; _this$ = ecx

; 58   : {

  00000	c7 01 00 00 00
	00		 mov	 DWORD PTR [ecx], OFFSET ??_7CGraphicTexture@@6B@

; 59   : }

  00006	e9 00 00 00 00	 jmp	 ??1CGraphicBase@@UAE@XZ	; CGraphicBase::~CGraphicBase
??1CGraphicTexture@@MAE@XZ ENDP				; CGraphicTexture::~CGraphicTexture
_TEXT	ENDS
; Function compile flags: /Ogtp
; File C:\DS Project\DS Files\Source\ClientSource\Client\EterLib\GrpTexture.cpp
;	COMDAT ??0CGraphicTexture@@IAE@XZ
_TEXT	SEGMENT
_this$ = -4						; size = 4
??0CGraphicTexture@@IAE@XZ PROC				; CGraphicTexture::CGraphicTexture, COMDAT
; _this$ = ecx

; 53   : {

  00000	55		 push	 ebp
  00001	8b ec		 mov	 ebp, esp
  00003	51		 push	 ecx
  00004	56		 push	 esi
  00005	8b f1		 mov	 esi, ecx
  00007	89 75 fc	 mov	 DWORD PTR _this$[ebp], esi
  0000a	e8 00 00 00 00	 call	 ??0CGraphicBase@@QAE@XZ	; CGraphicBase::CGraphicBase

; 54   : 	Initialize();

  0000f	8b ce		 mov	 ecx, esi
  00011	c7 06 00 00 00
	00		 mov	 DWORD PTR [esi], OFFSET ??_7CGraphicTexture@@6B@
  00017	e8 00 00 00 00	 call	 ?Initialize@CGraphicTexture@@IAEXXZ ; CGraphicTexture::Initialize

; 55   : }

  0001c	8b c6		 mov	 eax, esi
  0001e	5e		 pop	 esi
  0001f	8b e5		 mov	 esp, ebp
  00021	5d		 pop	 ebp
  00022	c3		 ret	 0
??0CGraphicTexture@@IAE@XZ ENDP				; CGraphicTexture::CGraphicTexture
_TEXT	ENDS
; Function compile flags: /Ogtp
; File C:\DS Project\DS Files\Source\ClientSource\Client\EterLib\GrpTexture.cpp
; File C:\DS Project\DS Files\Source\ClientSource\Client\eterBase\Stl.h
; File C:\DS Project\DS Files\Source\ClientSource\Client\EterLib\GrpTexture.cpp
;	COMDAT ?DestroyDeviceObjects@CGraphicTexture@@QAEXXZ
_TEXT	SEGMENT
?DestroyDeviceObjects@CGraphicTexture@@QAEXXZ PROC	; CGraphicTexture::DestroyDeviceObjects, COMDAT
; _this$ = ecx

; 7    : {

  00000	56		 push	 esi
  00001	8b f1		 mov	 esi, ecx
; File C:\DS Project\DS Files\Source\ClientSource\Client\eterBase\Stl.h

; 138  : 	if (!rpObject)

  00003	8b 56 10	 mov	 edx, DWORD PTR [esi+16]
  00006	85 d2		 test	 edx, edx
  00008	74 0d		 je	 SHORT $LN3@DestroyDev

; 139  : 		return;
; 140  : 
; 141  : 	rpObject->Release();

  0000a	8b 02		 mov	 eax, DWORD PTR [edx]
  0000c	52		 push	 edx
  0000d	ff 50 08	 call	 DWORD PTR [eax+8]

; 142  : 	rpObject = NULL;

  00010	c7 46 10 00 00
	00 00		 mov	 DWORD PTR [esi+16], 0
$LN3@DestroyDev:
  00017	5e		 pop	 esi
; File C:\DS Project\DS Files\Source\ClientSource\Client\EterLib\GrpTexture.cpp

; 9    : }

  00018	c3		 ret	 0
?DestroyDeviceObjects@CGraphicTexture@@QAEXXZ ENDP	; CGraphicTexture::DestroyDeviceObjects
_TEXT	ENDS
; Function compile flags: /Ogtp
; File C:\DS Project\DS Files\Source\ClientSource\Client\EterLib\GrpTexture.cpp
;	COMDAT ?GetD3DTexture@CGraphicTexture@@QBEPAUIDirect3DTexture8@@XZ
_TEXT	SEGMENT
?GetD3DTexture@CGraphicTexture@@QBEPAUIDirect3DTexture8@@XZ PROC ; CGraphicTexture::GetD3DTexture, COMDAT
; _this$ = ecx

; 39   : 	return m_lpd3dTexture;

  00000	8b 41 10	 mov	 eax, DWORD PTR [ecx+16]

; 40   : }

  00003	c3		 ret	 0
?GetD3DTexture@CGraphicTexture@@QBEPAUIDirect3DTexture8@@XZ ENDP ; CGraphicTexture::GetD3DTexture
_TEXT	ENDS
; Function compile flags: /Ogtp
; File C:\DS Project\DS Files\Source\ClientSource\Client\EterLib\GrpTexture.cpp
;	COMDAT ?SetTextureStage@CGraphicTexture@@QBEXH@Z
_TEXT	SEGMENT
_stage$ = 8						; size = 4
?SetTextureStage@CGraphicTexture@@QBEXH@Z PROC		; CGraphicTexture::SetTextureStage, COMDAT
; _this$ = ecx

; 32   : {

  00000	55		 push	 ebp
  00001	8b ec		 mov	 ebp, esp

; 33   : 	assert(ms_lpd3dDevice != NULL);
; 34   : 	STATEMANAGER.SetTexture(stage, m_lpd3dTexture);

  00003	ff 71 10	 push	 DWORD PTR [ecx+16]
  00006	8b 0d 00 00 00
	00		 mov	 ecx, DWORD PTR ?ms_singleton@?$CSingleton@VCStateManager@@@@0PAVCStateManager@@A ; CSingleton<CStateManager>::ms_singleton
  0000c	ff 75 08	 push	 DWORD PTR _stage$[ebp]
  0000f	e8 00 00 00 00	 call	 ?SetTexture@CStateManager@@QAEXKPAUIDirect3DBaseTexture8@@@Z ; CStateManager::SetTexture

; 35   : }

  00014	5d		 pop	 ebp
  00015	c2 04 00	 ret	 4
?SetTextureStage@CGraphicTexture@@QBEXH@Z ENDP		; CGraphicTexture::SetTextureStage
_TEXT	ENDS
; Function compile flags: /Ogtp
; File C:\DS Project\DS Files\Source\ClientSource\Client\EterLib\GrpTexture.cpp
;	COMDAT ?GetHeight@CGraphicTexture@@QBEHXZ
_TEXT	SEGMENT
?GetHeight@CGraphicTexture@@QBEHXZ PROC			; CGraphicTexture::GetHeight, COMDAT
; _this$ = ecx

; 49   : 	return m_height;

  00000	8b 41 0c	 mov	 eax, DWORD PTR [ecx+12]

; 50   : }

  00003	c3		 ret	 0
?GetHeight@CGraphicTexture@@QBEHXZ ENDP			; CGraphicTexture::GetHeight
_TEXT	ENDS
; Function compile flags: /Ogtp
; File C:\DS Project\DS Files\Source\ClientSource\Client\EterLib\GrpTexture.cpp
;	COMDAT ?GetWidth@CGraphicTexture@@QBEHXZ
_TEXT	SEGMENT
?GetWidth@CGraphicTexture@@QBEHXZ PROC			; CGraphicTexture::GetWidth, COMDAT
; _this$ = ecx

; 44   : 	return m_width;

  00000	8b 41 08	 mov	 eax, DWORD PTR [ecx+8]

; 45   : }

  00003	c3		 ret	 0
?GetWidth@CGraphicTexture@@QBEHXZ ENDP			; CGraphicTexture::GetWidth
_TEXT	ENDS
; Function compile flags: /Ogtp
; File C:\DS Project\DS Files\Source\ClientSource\Client\EterLib\GrpTexture.cpp
;	COMDAT ?IsEmpty@CGraphicTexture@@UBE_NXZ
_TEXT	SEGMENT
?IsEmpty@CGraphicTexture@@UBE_NXZ PROC			; CGraphicTexture::IsEmpty, COMDAT
; _this$ = ecx

; 28   : 	return m_bEmpty;

  00000	8a 41 04	 mov	 al, BYTE PTR [ecx+4]

; 29   : }

  00003	c3		 ret	 0
?IsEmpty@CGraphicTexture@@UBE_NXZ ENDP			; CGraphicTexture::IsEmpty
_TEXT	ENDS
; Function compile flags: /Ogtp
;	COMDAT ??_H@YGXPAXIIP6EPAX0@Z@Z
_TEXT	SEGMENT
___t$ = 8						; size = 4
___s$ = 12						; size = 4
___n$ = 16						; size = 4
___f$ = 20						; size = 4
??_H@YGXPAXIIP6EPAX0@Z@Z PROC				; `vector constructor iterator', COMDAT
  00000	55		 push	 ebp
  00001	8b ec		 mov	 ebp, esp
  00003	56		 push	 esi
  00004	8b 75 10	 mov	 esi, DWORD PTR ___n$[ebp]
  00007	85 f6		 test	 esi, esi
  00009	74 16		 je	 SHORT $LN6@vector
  0000b	53		 push	 ebx
  0000c	8b 5d 14	 mov	 ebx, DWORD PTR ___f$[ebp]
  0000f	57		 push	 edi
  00010	8b 7d 08	 mov	 edi, DWORD PTR ___t$[ebp]
$LL2@vector:
  00013	8b cf		 mov	 ecx, edi
  00015	ff d3		 call	 ebx
  00017	03 7d 0c	 add	 edi, DWORD PTR ___s$[ebp]
  0001a	83 ee 01	 sub	 esi, 1
  0001d	75 f4		 jne	 SHORT $LL2@vector
  0001f	5f		 pop	 edi
  00020	5b		 pop	 ebx
$LN6@vector:
  00021	5e		 pop	 esi
  00022	5d		 pop	 ebp
  00023	c2 10 00	 ret	 16			; 00000010H
??_H@YGXPAXIIP6EPAX0@Z@Z ENDP				; `vector constructor iterator'
_TEXT	ENDS
END
