; Listing generated by Microsoft (R) Optimizing Compiler Version 19.27.29112.0 

	TITLE	C:\DS Project\DS Files\Source\ClientSource\Client\EterLib\GrpVertexShader.cpp
	.686P
	.XMM
	include listing.inc
	.model	flat

INCLUDELIB LIBCMT
INCLUDELIB OLDNAMES

PUBLIC	??_H@YGXPAXIIP6EPAX0@Z@Z			; `vector constructor iterator'
PUBLIC	??0CVertexShader@@QAE@XZ			; CVertexShader::CVertexShader
PUBLIC	??1CVertexShader@@UAE@XZ			; CVertexShader::~CVertexShader
PUBLIC	?Destroy@CVertexShader@@QAEXXZ			; CVertexShader::Destroy
PUBLIC	?CreateFromDiskFile@CVertexShader@@QAE_NPBDPBK@Z ; CVertexShader::CreateFromDiskFile
PUBLIC	?Set@CVertexShader@@QAEXXZ			; CVertexShader::Set
PUBLIC	?Initialize@CVertexShader@@IAEXXZ		; CVertexShader::Initialize
PUBLIC	??_GCVertexShader@@UAEPAXI@Z			; CVertexShader::`scalar deleting destructor'
PUBLIC	??_7CVertexShader@@6B@				; CVertexShader::`vftable'
PUBLIC	?ms_singleton@?$CSingleton@VCStateManager@@@@0PAVCStateManager@@A ; CSingleton<CStateManager>::ms_singleton
PUBLIC	??_R4CVertexShader@@6B@				; CVertexShader::`RTTI Complete Object Locator'
PUBLIC	??_R0?AVCVertexShader@@@8			; CVertexShader `RTTI Type Descriptor'
PUBLIC	??_R3CVertexShader@@8				; CVertexShader::`RTTI Class Hierarchy Descriptor'
PUBLIC	??_R2CVertexShader@@8				; CVertexShader::`RTTI Base Class Array'
PUBLIC	??_R1A@?0A@EA@CVertexShader@@8			; CVertexShader::`RTTI Base Class Descriptor at (0,-1,0,64)'
PUBLIC	??_R1A@?0A@EA@CGraphicBase@@8			; CGraphicBase::`RTTI Base Class Descriptor at (0,-1,0,64)'
PUBLIC	??_R0?AVCGraphicBase@@@8			; CGraphicBase `RTTI Type Descriptor'
PUBLIC	??_R3CGraphicBase@@8				; CGraphicBase::`RTTI Class Hierarchy Descriptor'
PUBLIC	??_R2CGraphicBase@@8				; CGraphicBase::`RTTI Base Class Array'
EXTRN	??3@YAXPAXI@Z:PROC				; operator delete
EXTRN	_D3DXAssembleShaderFromFileA@20:PROC
EXTRN	??0CGraphicBase@@QAE@XZ:PROC			; CGraphicBase::CGraphicBase
EXTRN	??1CGraphicBase@@UAE@XZ:PROC			; CGraphicBase::~CGraphicBase
EXTRN	??_ECVertexShader@@UAEPAXI@Z:PROC		; CVertexShader::`vector deleting destructor'
EXTRN	??0CDirect3DXBuffer@@QAE@PAUID3DXBuffer@@@Z:PROC ; CDirect3DXBuffer::CDirect3DXBuffer
EXTRN	??1CDirect3DXBuffer@@UAE@XZ:PROC		; CDirect3DXBuffer::~CDirect3DXBuffer
EXTRN	?GetPointer@CDirect3DXBuffer@@QAEPAXXZ:PROC	; CDirect3DXBuffer::GetPointer
EXTRN	?SetVertexShader@CStateManager@@QAEXK@Z:PROC	; CStateManager::SetVertexShader
EXTRN	@__security_check_cookie@4:PROC
EXTRN	___CxxFrameHandler3:PROC
EXTRN	??_7type_info@@6B@:QWORD			; type_info::`vftable'
EXTRN	?ms_lpd3dDevice@CGraphicBase@@1PAUIDirect3DDevice8@@A:DWORD ; CGraphicBase::ms_lpd3dDevice
EXTRN	___security_cookie:DWORD
;	COMDAT ?ms_singleton@?$CSingleton@VCStateManager@@@@0PAVCStateManager@@A
_BSS	SEGMENT
?ms_singleton@?$CSingleton@VCStateManager@@@@0PAVCStateManager@@A DD 01H DUP (?) ; CSingleton<CStateManager>::ms_singleton
_BSS	ENDS
;	COMDAT ??_R2CGraphicBase@@8
rdata$r	SEGMENT
??_R2CGraphicBase@@8 DD FLAT:??_R1A@?0A@EA@CGraphicBase@@8 ; CGraphicBase::`RTTI Base Class Array'
rdata$r	ENDS
;	COMDAT ??_R3CGraphicBase@@8
rdata$r	SEGMENT
??_R3CGraphicBase@@8 DD 00H				; CGraphicBase::`RTTI Class Hierarchy Descriptor'
	DD	00H
	DD	01H
	DD	FLAT:??_R2CGraphicBase@@8
rdata$r	ENDS
;	COMDAT ??_R0?AVCGraphicBase@@@8
data$r	SEGMENT
??_R0?AVCGraphicBase@@@8 DD FLAT:??_7type_info@@6B@	; CGraphicBase `RTTI Type Descriptor'
	DD	00H
	DB	'.?AVCGraphicBase@@', 00H
data$r	ENDS
;	COMDAT ??_R1A@?0A@EA@CGraphicBase@@8
rdata$r	SEGMENT
??_R1A@?0A@EA@CGraphicBase@@8 DD FLAT:??_R0?AVCGraphicBase@@@8 ; CGraphicBase::`RTTI Base Class Descriptor at (0,-1,0,64)'
	DD	00H
	DD	00H
	DD	0ffffffffH
	DD	00H
	DD	040H
	DD	FLAT:??_R3CGraphicBase@@8
rdata$r	ENDS
;	COMDAT ??_R1A@?0A@EA@CVertexShader@@8
rdata$r	SEGMENT
??_R1A@?0A@EA@CVertexShader@@8 DD FLAT:??_R0?AVCVertexShader@@@8 ; CVertexShader::`RTTI Base Class Descriptor at (0,-1,0,64)'
	DD	01H
	DD	00H
	DD	0ffffffffH
	DD	00H
	DD	040H
	DD	FLAT:??_R3CVertexShader@@8
rdata$r	ENDS
;	COMDAT ??_R2CVertexShader@@8
rdata$r	SEGMENT
??_R2CVertexShader@@8 DD FLAT:??_R1A@?0A@EA@CVertexShader@@8 ; CVertexShader::`RTTI Base Class Array'
	DD	FLAT:??_R1A@?0A@EA@CGraphicBase@@8
rdata$r	ENDS
;	COMDAT ??_R3CVertexShader@@8
rdata$r	SEGMENT
??_R3CVertexShader@@8 DD 00H				; CVertexShader::`RTTI Class Hierarchy Descriptor'
	DD	00H
	DD	02H
	DD	FLAT:??_R2CVertexShader@@8
rdata$r	ENDS
;	COMDAT ??_R0?AVCVertexShader@@@8
data$r	SEGMENT
??_R0?AVCVertexShader@@@8 DD FLAT:??_7type_info@@6B@	; CVertexShader `RTTI Type Descriptor'
	DD	00H
	DB	'.?AVCVertexShader@@', 00H
data$r	ENDS
;	COMDAT ??_R4CVertexShader@@6B@
rdata$r	SEGMENT
??_R4CVertexShader@@6B@ DD 00H				; CVertexShader::`RTTI Complete Object Locator'
	DD	00H
	DD	00H
	DD	FLAT:??_R0?AVCVertexShader@@@8
	DD	FLAT:??_R3CVertexShader@@8
rdata$r	ENDS
;	COMDAT ??_7CVertexShader@@6B@
CONST	SEGMENT
??_7CVertexShader@@6B@ DD FLAT:??_R4CVertexShader@@6B@	; CVertexShader::`vftable'
	DD	FLAT:??_ECVertexShader@@UAEPAXI@Z
CONST	ENDS
;	COMDAT xdata$x
xdata$x	SEGMENT
__unwindtable$?CreateFromDiskFile@CVertexShader@@QAE_NPBDPBK@Z DD 0ffffffffH
	DD	FLAT:__unwindfunclet$?CreateFromDiskFile@CVertexShader@@QAE_NPBDPBK@Z$0
	DD	00H
	DD	FLAT:__unwindfunclet$?CreateFromDiskFile@CVertexShader@@QAE_NPBDPBK@Z$1
__ehfuncinfo$?CreateFromDiskFile@CVertexShader@@QAE_NPBDPBK@Z DD 019930522H
	DD	02H
	DD	FLAT:__unwindtable$?CreateFromDiskFile@CVertexShader@@QAE_NPBDPBK@Z
	DD	2 DUP(00H)
	DD	2 DUP(00H)
	DD	00H
	DD	01H
xdata$x	ENDS
;	COMDAT xdata$x
xdata$x	SEGMENT
__ehfuncinfo$??1CVertexShader@@UAE@XZ DD 019930522H
	DD	00H
	DD	00H
	DD	2 DUP(00H)
	DD	2 DUP(00H)
	DD	00H
	DD	05H
xdata$x	ENDS
; Function compile flags: /Ogtp
;	COMDAT ??_GCVertexShader@@UAEPAXI@Z
_TEXT	SEGMENT
___flags$ = 8						; size = 4
??_GCVertexShader@@UAEPAXI@Z PROC			; CVertexShader::`scalar deleting destructor', COMDAT
; _this$ = ecx
  00000	55		 push	 ebp
  00001	8b ec		 mov	 ebp, esp
  00003	56		 push	 esi
  00004	8b f1		 mov	 esi, ecx
  00006	e8 00 00 00 00	 call	 ??1CVertexShader@@UAE@XZ ; CVertexShader::~CVertexShader
  0000b	f6 45 08 01	 test	 BYTE PTR ___flags$[ebp], 1
  0000f	74 0b		 je	 SHORT $LN4@scalar
  00011	6a 08		 push	 8
  00013	56		 push	 esi
  00014	e8 00 00 00 00	 call	 ??3@YAXPAXI@Z		; operator delete
  00019	83 c4 08	 add	 esp, 8
$LN4@scalar:
  0001c	8b c6		 mov	 eax, esi
  0001e	5e		 pop	 esi
  0001f	5d		 pop	 ebp
  00020	c2 04 00	 ret	 4
??_GCVertexShader@@UAEPAXI@Z ENDP			; CVertexShader::`scalar deleting destructor'
_TEXT	ENDS
; Function compile flags: /Ogtp
; File C:\DS Project\DS Files\Source\ClientSource\Client\EterLib\GrpVertexShader.cpp
;	COMDAT ?Initialize@CVertexShader@@IAEXXZ
_TEXT	SEGMENT
?Initialize@CVertexShader@@IAEXXZ PROC			; CVertexShader::Initialize, COMDAT
; _this$ = ecx

; 18   : 	m_handle=0;

  00000	c7 41 04 00 00
	00 00		 mov	 DWORD PTR [ecx+4], 0

; 19   : }

  00007	c3		 ret	 0
?Initialize@CVertexShader@@IAEXXZ ENDP			; CVertexShader::Initialize
_TEXT	ENDS
; Function compile flags: /Ogtp
; File C:\DS Project\DS Files\Source\ClientSource\Client\EterLib\GrpVertexShader.cpp
;	COMDAT ?Set@CVertexShader@@QAEXXZ
_TEXT	SEGMENT
?Set@CVertexShader@@QAEXXZ PROC				; CVertexShader::Set, COMDAT
; _this$ = ecx

; 56   : 	STATEMANAGER.SetVertexShader(m_handle);

  00000	ff 71 04	 push	 DWORD PTR [ecx+4]
  00003	8b 0d 00 00 00
	00		 mov	 ecx, DWORD PTR ?ms_singleton@?$CSingleton@VCStateManager@@@@0PAVCStateManager@@A ; CSingleton<CStateManager>::ms_singleton
  00009	e8 00 00 00 00	 call	 ?SetVertexShader@CStateManager@@QAEXK@Z ; CStateManager::SetVertexShader

; 57   : }

  0000e	c3		 ret	 0
?Set@CVertexShader@@QAEXXZ ENDP				; CVertexShader::Set
_TEXT	ENDS
; Function compile flags: /Ogtp
; File C:\DS Project\DS Files\Source\ClientSource\Client\EterLib\GrpVertexShader.cpp
;	COMDAT ?CreateFromDiskFile@CVertexShader@@QAE_NPBDPBK@Z
_TEXT	SEGMENT
_errorBuffer$ = -36					; size = 8
_shaderBuffer$ = -28					; size = 8
_lpd3dxErrorBuffer$ = -20				; size = 4
_lpd3dxShaderBuffer$ = -16				; size = 4
__$EHRec$ = -12						; size = 12
_c_szFileName$ = 8					; size = 4
_c_pdwVertexDecl$ = 12					; size = 4
?CreateFromDiskFile@CVertexShader@@QAE_NPBDPBK@Z PROC	; CVertexShader::CreateFromDiskFile, COMDAT
; _this$ = ecx

; 33   : {

  00000	55		 push	 ebp
  00001	8b ec		 mov	 ebp, esp
  00003	6a ff		 push	 -1
  00005	68 00 00 00 00	 push	 __ehhandler$?CreateFromDiskFile@CVertexShader@@QAE_NPBDPBK@Z
  0000a	64 a1 00 00 00
	00		 mov	 eax, DWORD PTR fs:0
  00010	50		 push	 eax
  00011	83 ec 18	 sub	 esp, 24			; 00000018H
  00014	53		 push	 ebx
  00015	56		 push	 esi
  00016	57		 push	 edi
  00017	a1 00 00 00 00	 mov	 eax, DWORD PTR ___security_cookie
  0001c	33 c5		 xor	 eax, ebp
  0001e	50		 push	 eax
  0001f	8d 45 f4	 lea	 eax, DWORD PTR __$EHRec$[ebp]
  00022	64 a3 00 00 00
	00		 mov	 DWORD PTR fs:0, eax
  00028	8b f9		 mov	 edi, ecx

; 34   : 	Destroy();

  0002a	e8 00 00 00 00	 call	 ?Destroy@CVertexShader@@QAEXXZ ; CVertexShader::Destroy

; 35   : 
; 36   : 	LPD3DXBUFFER lpd3dxShaderBuffer;
; 37   : 	LPD3DXBUFFER lpd3dxErrorBuffer;
; 38   : 
; 39   : 	if (FAILED(

  0002f	8d 45 ec	 lea	 eax, DWORD PTR _lpd3dxErrorBuffer$[ebp]
  00032	50		 push	 eax
  00033	8d 45 f0	 lea	 eax, DWORD PTR _lpd3dxShaderBuffer$[ebp]
  00036	50		 push	 eax
  00037	6a 00		 push	 0
  00039	6a 00		 push	 0
  0003b	ff 75 08	 push	 DWORD PTR _c_szFileName$[ebp]
  0003e	e8 00 00 00 00	 call	 _D3DXAssembleShaderFromFileA@20
  00043	85 c0		 test	 eax, eax
  00045	79 16		 jns	 SHORT $LN2@CreateFrom

; 40   : 		D3DXAssembleShaderFromFile(c_szFileName, 0, NULL, &lpd3dxShaderBuffer, &lpd3dxErrorBuffer)
; 41   : 	)) return false;

  00047	32 c0		 xor	 al, al

; 52   : }

  00049	8b 4d f4	 mov	 ecx, DWORD PTR __$EHRec$[ebp]
  0004c	64 89 0d 00 00
	00 00		 mov	 DWORD PTR fs:0, ecx
  00053	59		 pop	 ecx
  00054	5f		 pop	 edi
  00055	5e		 pop	 esi
  00056	5b		 pop	 ebx
  00057	8b e5		 mov	 esp, ebp
  00059	5d		 pop	 ebp
  0005a	c2 08 00	 ret	 8
$LN2@CreateFrom:

; 42   : 
; 43   : 	CDirect3DXBuffer shaderBuffer(lpd3dxShaderBuffer);

  0005d	ff 75 f0	 push	 DWORD PTR _lpd3dxShaderBuffer$[ebp]
  00060	8d 4d e4	 lea	 ecx, DWORD PTR _shaderBuffer$[ebp]
  00063	e8 00 00 00 00	 call	 ??0CDirect3DXBuffer@@QAE@PAUID3DXBuffer@@@Z ; CDirect3DXBuffer::CDirect3DXBuffer

; 44   : 	CDirect3DXBuffer errorBuffer(lpd3dxErrorBuffer);

  00068	ff 75 ec	 push	 DWORD PTR _lpd3dxErrorBuffer$[ebp]
  0006b	8d 4d dc	 lea	 ecx, DWORD PTR _errorBuffer$[ebp]
  0006e	c7 45 fc 00 00
	00 00		 mov	 DWORD PTR __$EHRec$[ebp+8], 0
  00075	e8 00 00 00 00	 call	 ??0CDirect3DXBuffer@@QAE@PAUID3DXBuffer@@@Z ; CDirect3DXBuffer::CDirect3DXBuffer

; 45   : 
; 46   : 	if (FAILED(

  0007a	a1 00 00 00 00	 mov	 eax, DWORD PTR ?ms_lpd3dDevice@CGraphicBase@@1PAUIDirect3DDevice8@@A ; CGraphicBase::ms_lpd3dDevice
  0007f	8d 4d e4	 lea	 ecx, DWORD PTR _shaderBuffer$[ebp]
  00082	6a 00		 push	 0
  00084	c6 45 fc 01	 mov	 BYTE PTR __$EHRec$[ebp+8], 1
  00088	8b 30		 mov	 esi, DWORD PTR [eax]
  0008a	8d 47 04	 lea	 eax, DWORD PTR [edi+4]
  0008d	50		 push	 eax
  0008e	e8 00 00 00 00	 call	 ?GetPointer@CDirect3DXBuffer@@QAEPAXXZ ; CDirect3DXBuffer::GetPointer
  00093	50		 push	 eax
  00094	ff 75 0c	 push	 DWORD PTR _c_pdwVertexDecl$[ebp]
  00097	ff 35 00 00 00
	00		 push	 DWORD PTR ?ms_lpd3dDevice@CGraphicBase@@1PAUIDirect3DDevice8@@A ; CGraphicBase::ms_lpd3dDevice
  0009d	ff 96 2c 01 00
	00		 call	 DWORD PTR [esi+300]
  000a3	85 c0		 test	 eax, eax

; 47   : 		ms_lpd3dDevice->CreateVertexShader(c_pdwVertexDecl, (DWORD*)shaderBuffer.GetPointer(), &m_handle, 0 )
; 48   : 		))
; 49   : 		return false;
; 50   : 
; 51   : 	return true;

  000a5	8d 4d dc	 lea	 ecx, DWORD PTR _errorBuffer$[ebp]
  000a8	0f 99 c3	 setns	 bl
  000ab	e8 00 00 00 00	 call	 ??1CDirect3DXBuffer@@UAE@XZ ; CDirect3DXBuffer::~CDirect3DXBuffer
  000b0	8d 4d e4	 lea	 ecx, DWORD PTR _shaderBuffer$[ebp]
  000b3	e8 00 00 00 00	 call	 ??1CDirect3DXBuffer@@UAE@XZ ; CDirect3DXBuffer::~CDirect3DXBuffer
  000b8	8a c3		 mov	 al, bl

; 52   : }

  000ba	8b 4d f4	 mov	 ecx, DWORD PTR __$EHRec$[ebp]
  000bd	64 89 0d 00 00
	00 00		 mov	 DWORD PTR fs:0, ecx
  000c4	59		 pop	 ecx
  000c5	5f		 pop	 edi
  000c6	5e		 pop	 esi
  000c7	5b		 pop	 ebx
  000c8	8b e5		 mov	 esp, ebp
  000ca	5d		 pop	 ebp
  000cb	c2 08 00	 ret	 8
_TEXT	ENDS
;	COMDAT text$x
text$x	SEGMENT
__unwindfunclet$?CreateFromDiskFile@CVertexShader@@QAE_NPBDPBK@Z$0:
  00000	8d 4d e4	 lea	 ecx, DWORD PTR _shaderBuffer$[ebp]
  00003	e9 00 00 00 00	 jmp	 ??1CDirect3DXBuffer@@UAE@XZ ; CDirect3DXBuffer::~CDirect3DXBuffer
__unwindfunclet$?CreateFromDiskFile@CVertexShader@@QAE_NPBDPBK@Z$1:
  00008	8d 4d dc	 lea	 ecx, DWORD PTR _errorBuffer$[ebp]
  0000b	e9 00 00 00 00	 jmp	 ??1CDirect3DXBuffer@@UAE@XZ ; CDirect3DXBuffer::~CDirect3DXBuffer
  00010	cc		 int	 3
  00011	cc		 int	 3
  00012	cc		 int	 3
  00013	cc		 int	 3
  00014	cc		 int	 3
__ehhandler$?CreateFromDiskFile@CVertexShader@@QAE_NPBDPBK@Z:
  00015	90		 npad	 1
  00016	90		 npad	 1
  00017	8b 54 24 08	 mov	 edx, DWORD PTR [esp+8]
  0001b	8d 42 0c	 lea	 eax, DWORD PTR [edx+12]
  0001e	8b 4a d8	 mov	 ecx, DWORD PTR [edx-40]
  00021	33 c8		 xor	 ecx, eax
  00023	e8 00 00 00 00	 call	 @__security_check_cookie@4
  00028	b8 00 00 00 00	 mov	 eax, OFFSET __ehfuncinfo$?CreateFromDiskFile@CVertexShader@@QAE_NPBDPBK@Z
  0002d	e9 00 00 00 00	 jmp	 ___CxxFrameHandler3
text$x	ENDS
?CreateFromDiskFile@CVertexShader@@QAE_NPBDPBK@Z ENDP	; CVertexShader::CreateFromDiskFile
; Function compile flags: /Ogtp
; File C:\DS Project\DS Files\Source\ClientSource\Client\EterLib\GrpVertexShader.cpp
;	COMDAT ?Destroy@CVertexShader@@QAEXXZ
_TEXT	SEGMENT
?Destroy@CVertexShader@@QAEXXZ PROC			; CVertexShader::Destroy, COMDAT
; _this$ = ecx

; 22   : {

  00000	56		 push	 esi
  00001	8b f1		 mov	 esi, ecx

; 23   : 	if (m_handle)

  00003	8b 4e 04	 mov	 ecx, DWORD PTR [esi+4]
  00006	85 c9		 test	 ecx, ecx
  00008	74 1b		 je	 SHORT $LN2@Destroy

; 24   : 	{
; 25   : 		if (ms_lpd3dDevice)

  0000a	8b 15 00 00 00
	00		 mov	 edx, DWORD PTR ?ms_lpd3dDevice@CGraphicBase@@1PAUIDirect3DDevice8@@A ; CGraphicBase::ms_lpd3dDevice
  00010	85 d2		 test	 edx, edx
  00012	74 0a		 je	 SHORT $LN3@Destroy

; 26   : 			ms_lpd3dDevice->DeleteVertexShader(m_handle);

  00014	8b 02		 mov	 eax, DWORD PTR [edx]
  00016	51		 push	 ecx
  00017	52		 push	 edx
  00018	ff 90 38 01 00
	00		 call	 DWORD PTR [eax+312]
$LN3@Destroy:

; 27   : 
; 28   : 		m_handle = 0;

  0001e	c7 46 04 00 00
	00 00		 mov	 DWORD PTR [esi+4], 0
$LN2@Destroy:
  00025	5e		 pop	 esi

; 29   : 	}
; 30   : }

  00026	c3		 ret	 0
?Destroy@CVertexShader@@QAEXXZ ENDP			; CVertexShader::Destroy
_TEXT	ENDS
; Function compile flags: /Ogtp
; File C:\DS Project\DS Files\Source\ClientSource\Client\EterLib\GrpVertexShader.cpp
;	COMDAT ??1CVertexShader@@UAE@XZ
_TEXT	SEGMENT
__$EHRec$ = -12						; size = 12
??1CVertexShader@@UAE@XZ PROC				; CVertexShader::~CVertexShader, COMDAT
; _this$ = ecx

; 12   : {

  00000	55		 push	 ebp
  00001	8b ec		 mov	 ebp, esp
  00003	6a ff		 push	 -1
  00005	68 00 00 00 00	 push	 __ehhandler$??1CVertexShader@@UAE@XZ
  0000a	64 a1 00 00 00
	00		 mov	 eax, DWORD PTR fs:0
  00010	50		 push	 eax
  00011	56		 push	 esi
  00012	a1 00 00 00 00	 mov	 eax, DWORD PTR ___security_cookie
  00017	33 c5		 xor	 eax, ebp
  00019	50		 push	 eax
  0001a	8d 45 f4	 lea	 eax, DWORD PTR __$EHRec$[ebp]
  0001d	64 a3 00 00 00
	00		 mov	 DWORD PTR fs:0, eax
  00023	8b f1		 mov	 esi, ecx
  00025	c7 06 00 00 00
	00		 mov	 DWORD PTR [esi], OFFSET ??_7CVertexShader@@6B@

; 13   : 	Destroy();

  0002b	e8 00 00 00 00	 call	 ?Destroy@CVertexShader@@QAEXXZ ; CVertexShader::Destroy

; 14   : }

  00030	8b ce		 mov	 ecx, esi
  00032	e8 00 00 00 00	 call	 ??1CGraphicBase@@UAE@XZ	; CGraphicBase::~CGraphicBase
  00037	8b 4d f4	 mov	 ecx, DWORD PTR __$EHRec$[ebp]
  0003a	64 89 0d 00 00
	00 00		 mov	 DWORD PTR fs:0, ecx
  00041	59		 pop	 ecx
  00042	5e		 pop	 esi
  00043	8b e5		 mov	 esp, ebp
  00045	5d		 pop	 ebp
  00046	c3		 ret	 0
  00047	cc		 int	 3
  00048	cc		 int	 3
  00049	cc		 int	 3
  0004a	cc		 int	 3
  0004b	cc		 int	 3
_TEXT	ENDS
;	COMDAT text$x
text$x	SEGMENT
__ehhandler$??1CVertexShader@@UAE@XZ:
  00000	90		 npad	 1
  00001	90		 npad	 1
  00002	8b 54 24 08	 mov	 edx, DWORD PTR [esp+8]
  00006	8d 42 0c	 lea	 eax, DWORD PTR [edx+12]
  00009	8b 4a f8	 mov	 ecx, DWORD PTR [edx-8]
  0000c	33 c8		 xor	 ecx, eax
  0000e	e8 00 00 00 00	 call	 @__security_check_cookie@4
  00013	b8 00 00 00 00	 mov	 eax, OFFSET __ehfuncinfo$??1CVertexShader@@UAE@XZ
  00018	e9 00 00 00 00	 jmp	 ___CxxFrameHandler3
text$x	ENDS
??1CVertexShader@@UAE@XZ ENDP				; CVertexShader::~CVertexShader
; Function compile flags: /Ogtp
; File C:\DS Project\DS Files\Source\ClientSource\Client\EterLib\GrpVertexShader.cpp
;	COMDAT ??0CVertexShader@@QAE@XZ
_TEXT	SEGMENT
_this$ = -4						; size = 4
??0CVertexShader@@QAE@XZ PROC				; CVertexShader::CVertexShader, COMDAT
; _this$ = ecx

; 7    : {

  00000	55		 push	 ebp
  00001	8b ec		 mov	 ebp, esp
  00003	51		 push	 ecx
  00004	56		 push	 esi
  00005	8b f1		 mov	 esi, ecx
  00007	89 75 fc	 mov	 DWORD PTR _this$[ebp], esi
  0000a	e8 00 00 00 00	 call	 ??0CGraphicBase@@QAE@XZ	; CGraphicBase::CGraphicBase

; 8    : 	Initialize();

  0000f	8b ce		 mov	 ecx, esi
  00011	c7 06 00 00 00
	00		 mov	 DWORD PTR [esi], OFFSET ??_7CVertexShader@@6B@
  00017	e8 00 00 00 00	 call	 ?Initialize@CVertexShader@@IAEXXZ ; CVertexShader::Initialize

; 9    : }

  0001c	8b c6		 mov	 eax, esi
  0001e	5e		 pop	 esi
  0001f	8b e5		 mov	 esp, ebp
  00021	5d		 pop	 ebp
  00022	c3		 ret	 0
??0CVertexShader@@QAE@XZ ENDP				; CVertexShader::CVertexShader
_TEXT	ENDS
; Function compile flags: /Ogtp
;	COMDAT ??_H@YGXPAXIIP6EPAX0@Z@Z
_TEXT	SEGMENT
___t$ = 8						; size = 4
___s$ = 12						; size = 4
___n$ = 16						; size = 4
___f$ = 20						; size = 4
??_H@YGXPAXIIP6EPAX0@Z@Z PROC				; `vector constructor iterator', COMDAT
  00000	55		 push	 ebp
  00001	8b ec		 mov	 ebp, esp
  00003	56		 push	 esi
  00004	8b 75 10	 mov	 esi, DWORD PTR ___n$[ebp]
  00007	85 f6		 test	 esi, esi
  00009	74 16		 je	 SHORT $LN6@vector
  0000b	53		 push	 ebx
  0000c	8b 5d 14	 mov	 ebx, DWORD PTR ___f$[ebp]
  0000f	57		 push	 edi
  00010	8b 7d 08	 mov	 edi, DWORD PTR ___t$[ebp]
$LL2@vector:
  00013	8b cf		 mov	 ecx, edi
  00015	ff d3		 call	 ebx
  00017	03 7d 0c	 add	 edi, DWORD PTR ___s$[ebp]
  0001a	83 ee 01	 sub	 esi, 1
  0001d	75 f4		 jne	 SHORT $LL2@vector
  0001f	5f		 pop	 edi
  00020	5b		 pop	 ebx
$LN6@vector:
  00021	5e		 pop	 esi
  00022	5d		 pop	 ebp
  00023	c2 10 00	 ret	 16			; 00000010H
??_H@YGXPAXIIP6EPAX0@Z@Z ENDP				; `vector constructor iterator'
_TEXT	ENDS
END
