; Listing generated by Microsoft (R) Optimizing Compiler Version 19.27.29112.0 

	TITLE	C:\DS Project\DS Files\Source\ClientSource\Client\EterLib\GrpVertexBufferDynamic.cpp
	.686P
	.XMM
	include listing.inc
	.model	flat

INCLUDELIB LIBCMT
INCLUDELIB OLDNAMES

PUBLIC	??0CDynamicVertexBuffer@@QAE@XZ			; CDynamicVertexBuffer::CDynamicVertexBuffer
PUBLIC	??1CDynamicVertexBuffer@@UAE@XZ			; CDynamicVertexBuffer::~CDynamicVertexBuffer
PUBLIC	?Create@CDynamicVertexBuffer@@QAE_NHH@Z		; CDynamicVertexBuffer::Create
PUBLIC	??_GCDynamicVertexBuffer@@UAEPAXI@Z		; CDynamicVertexBuffer::`scalar deleting destructor'
PUBLIC	??_7CDynamicVertexBuffer@@6B@			; CDynamicVertexBuffer::`vftable'
PUBLIC	??_R4CDynamicVertexBuffer@@6B@			; CDynamicVertexBuffer::`RTTI Complete Object Locator'
PUBLIC	??_R0?AVCDynamicVertexBuffer@@@8		; CDynamicVertexBuffer `RTTI Type Descriptor'
PUBLIC	??_R3CDynamicVertexBuffer@@8			; CDynamicVertexBuffer::`RTTI Class Hierarchy Descriptor'
PUBLIC	??_R2CDynamicVertexBuffer@@8			; CDynamicVertexBuffer::`RTTI Base Class Array'
PUBLIC	??_R1A@?0A@EA@CDynamicVertexBuffer@@8		; CDynamicVertexBuffer::`RTTI Base Class Descriptor at (0,-1,0,64)'
PUBLIC	??_R1A@?0A@EA@CGraphicVertexBuffer@@8		; CGraphicVertexBuffer::`RTTI Base Class Descriptor at (0,-1,0,64)'
PUBLIC	??_R0?AVCGraphicVertexBuffer@@@8		; CGraphicVertexBuffer `RTTI Type Descriptor'
PUBLIC	??_R3CGraphicVertexBuffer@@8			; CGraphicVertexBuffer::`RTTI Class Hierarchy Descriptor'
PUBLIC	??_R2CGraphicVertexBuffer@@8			; CGraphicVertexBuffer::`RTTI Base Class Array'
PUBLIC	??_R1A@?0A@EA@CGraphicBase@@8			; CGraphicBase::`RTTI Base Class Descriptor at (0,-1,0,64)'
PUBLIC	??_R0?AVCGraphicBase@@@8			; CGraphicBase `RTTI Type Descriptor'
PUBLIC	??_R3CGraphicBase@@8				; CGraphicBase::`RTTI Class Hierarchy Descriptor'
PUBLIC	??_R2CGraphicBase@@8				; CGraphicBase::`RTTI Base Class Array'
EXTRN	??3@YAXPAXI@Z:PROC				; operator delete
EXTRN	??0CGraphicVertexBuffer@@QAE@XZ:PROC		; CGraphicVertexBuffer::CGraphicVertexBuffer
EXTRN	??1CGraphicVertexBuffer@@UAE@XZ:PROC		; CGraphicVertexBuffer::~CGraphicVertexBuffer
EXTRN	?Create@CGraphicVertexBuffer@@UAE_NHKKW4_D3DPOOL@@@Z:PROC ; CGraphicVertexBuffer::Create
EXTRN	?Lock@CGraphicVertexBuffer@@UAE_NPAPAX@Z:PROC	; CGraphicVertexBuffer::Lock
EXTRN	??_ECDynamicVertexBuffer@@UAEPAXI@Z:PROC	; CDynamicVertexBuffer::`vector deleting destructor'
EXTRN	??_7type_info@@6B@:QWORD			; type_info::`vftable'
;	COMDAT ??_R2CGraphicBase@@8
rdata$r	SEGMENT
??_R2CGraphicBase@@8 DD FLAT:??_R1A@?0A@EA@CGraphicBase@@8 ; CGraphicBase::`RTTI Base Class Array'
rdata$r	ENDS
;	COMDAT ??_R3CGraphicBase@@8
rdata$r	SEGMENT
??_R3CGraphicBase@@8 DD 00H				; CGraphicBase::`RTTI Class Hierarchy Descriptor'
	DD	00H
	DD	01H
	DD	FLAT:??_R2CGraphicBase@@8
rdata$r	ENDS
;	COMDAT ??_R0?AVCGraphicBase@@@8
data$r	SEGMENT
??_R0?AVCGraphicBase@@@8 DD FLAT:??_7type_info@@6B@	; CGraphicBase `RTTI Type Descriptor'
	DD	00H
	DB	'.?AVCGraphicBase@@', 00H
data$r	ENDS
;	COMDAT ??_R1A@?0A@EA@CGraphicBase@@8
rdata$r	SEGMENT
??_R1A@?0A@EA@CGraphicBase@@8 DD FLAT:??_R0?AVCGraphicBase@@@8 ; CGraphicBase::`RTTI Base Class Descriptor at (0,-1,0,64)'
	DD	00H
	DD	00H
	DD	0ffffffffH
	DD	00H
	DD	040H
	DD	FLAT:??_R3CGraphicBase@@8
rdata$r	ENDS
;	COMDAT ??_R2CGraphicVertexBuffer@@8
rdata$r	SEGMENT
??_R2CGraphicVertexBuffer@@8 DD FLAT:??_R1A@?0A@EA@CGraphicVertexBuffer@@8 ; CGraphicVertexBuffer::`RTTI Base Class Array'
	DD	FLAT:??_R1A@?0A@EA@CGraphicBase@@8
rdata$r	ENDS
;	COMDAT ??_R3CGraphicVertexBuffer@@8
rdata$r	SEGMENT
??_R3CGraphicVertexBuffer@@8 DD 00H			; CGraphicVertexBuffer::`RTTI Class Hierarchy Descriptor'
	DD	00H
	DD	02H
	DD	FLAT:??_R2CGraphicVertexBuffer@@8
rdata$r	ENDS
;	COMDAT ??_R0?AVCGraphicVertexBuffer@@@8
data$r	SEGMENT
??_R0?AVCGraphicVertexBuffer@@@8 DD FLAT:??_7type_info@@6B@ ; CGraphicVertexBuffer `RTTI Type Descriptor'
	DD	00H
	DB	'.?AVCGraphicVertexBuffer@@', 00H
data$r	ENDS
;	COMDAT ??_R1A@?0A@EA@CGraphicVertexBuffer@@8
rdata$r	SEGMENT
??_R1A@?0A@EA@CGraphicVertexBuffer@@8 DD FLAT:??_R0?AVCGraphicVertexBuffer@@@8 ; CGraphicVertexBuffer::`RTTI Base Class Descriptor at (0,-1,0,64)'
	DD	01H
	DD	00H
	DD	0ffffffffH
	DD	00H
	DD	040H
	DD	FLAT:??_R3CGraphicVertexBuffer@@8
rdata$r	ENDS
;	COMDAT ??_R1A@?0A@EA@CDynamicVertexBuffer@@8
rdata$r	SEGMENT
??_R1A@?0A@EA@CDynamicVertexBuffer@@8 DD FLAT:??_R0?AVCDynamicVertexBuffer@@@8 ; CDynamicVertexBuffer::`RTTI Base Class Descriptor at (0,-1,0,64)'
	DD	02H
	DD	00H
	DD	0ffffffffH
	DD	00H
	DD	040H
	DD	FLAT:??_R3CDynamicVertexBuffer@@8
rdata$r	ENDS
;	COMDAT ??_R2CDynamicVertexBuffer@@8
rdata$r	SEGMENT
??_R2CDynamicVertexBuffer@@8 DD FLAT:??_R1A@?0A@EA@CDynamicVertexBuffer@@8 ; CDynamicVertexBuffer::`RTTI Base Class Array'
	DD	FLAT:??_R1A@?0A@EA@CGraphicVertexBuffer@@8
	DD	FLAT:??_R1A@?0A@EA@CGraphicBase@@8
rdata$r	ENDS
;	COMDAT ??_R3CDynamicVertexBuffer@@8
rdata$r	SEGMENT
??_R3CDynamicVertexBuffer@@8 DD 00H			; CDynamicVertexBuffer::`RTTI Class Hierarchy Descriptor'
	DD	00H
	DD	03H
	DD	FLAT:??_R2CDynamicVertexBuffer@@8
rdata$r	ENDS
;	COMDAT ??_R0?AVCDynamicVertexBuffer@@@8
data$r	SEGMENT
??_R0?AVCDynamicVertexBuffer@@@8 DD FLAT:??_7type_info@@6B@ ; CDynamicVertexBuffer `RTTI Type Descriptor'
	DD	00H
	DB	'.?AVCDynamicVertexBuffer@@', 00H
data$r	ENDS
;	COMDAT ??_R4CDynamicVertexBuffer@@6B@
rdata$r	SEGMENT
??_R4CDynamicVertexBuffer@@6B@ DD 00H			; CDynamicVertexBuffer::`RTTI Complete Object Locator'
	DD	00H
	DD	00H
	DD	FLAT:??_R0?AVCDynamicVertexBuffer@@@8
	DD	FLAT:??_R3CDynamicVertexBuffer@@8
rdata$r	ENDS
;	COMDAT ??_7CDynamicVertexBuffer@@6B@
CONST	SEGMENT
??_7CDynamicVertexBuffer@@6B@ DD FLAT:??_R4CDynamicVertexBuffer@@6B@ ; CDynamicVertexBuffer::`vftable'
	DD	FLAT:??_ECDynamicVertexBuffer@@UAEPAXI@Z
	DD	FLAT:?Create@CGraphicVertexBuffer@@UAE_NHKKW4_D3DPOOL@@@Z
	DD	FLAT:?Lock@CGraphicVertexBuffer@@UAE_NPAPAX@Z
CONST	ENDS
; Function compile flags: /Ogtp
;	COMDAT ??_GCDynamicVertexBuffer@@UAEPAXI@Z
_TEXT	SEGMENT
___flags$ = 8						; size = 4
??_GCDynamicVertexBuffer@@UAEPAXI@Z PROC		; CDynamicVertexBuffer::`scalar deleting destructor', COMDAT
; _this$ = ecx
  00000	55		 push	 ebp
  00001	8b ec		 mov	 ebp, esp
  00003	56		 push	 esi
  00004	8b f1		 mov	 esi, ecx
  00006	e8 00 00 00 00	 call	 ??1CDynamicVertexBuffer@@UAE@XZ ; CDynamicVertexBuffer::~CDynamicVertexBuffer
  0000b	f6 45 08 01	 test	 BYTE PTR ___flags$[ebp], 1
  0000f	74 0b		 je	 SHORT $LN4@scalar
  00011	6a 28		 push	 40			; 00000028H
  00013	56		 push	 esi
  00014	e8 00 00 00 00	 call	 ??3@YAXPAXI@Z		; operator delete
  00019	83 c4 08	 add	 esp, 8
$LN4@scalar:
  0001c	8b c6		 mov	 eax, esi
  0001e	5e		 pop	 esi
  0001f	5d		 pop	 ebp
  00020	c2 04 00	 ret	 4
??_GCDynamicVertexBuffer@@UAEPAXI@Z ENDP		; CDynamicVertexBuffer::`scalar deleting destructor'
_TEXT	ENDS
; Function compile flags: /Ogtp
; File C:\DS Project\DS Files\Source\ClientSource\Client\EterLib\GrpVertexBufferDynamic.cpp
;	COMDAT ?Create@CDynamicVertexBuffer@@QAE_NHH@Z
_TEXT	SEGMENT
_vtxCount$ = 8						; size = 4
_fvf$ = 12						; size = 4
?Create@CDynamicVertexBuffer@@QAE_NHH@Z PROC		; CDynamicVertexBuffer::Create, COMDAT
; _this$ = ecx

; 5    : {

  00000	55		 push	 ebp
  00001	8b ec		 mov	 ebp, esp

; 6    : 	if (m_lpd3dVB)

  00003	83 79 04 00	 cmp	 DWORD PTR [ecx+4], 0
  00007	8b 45 08	 mov	 eax, DWORD PTR _vtxCount$[ebp]
  0000a	8b 55 0c	 mov	 edx, DWORD PTR _fvf$[ebp]
  0000d	74 10		 je	 SHORT $LN4@Create

; 7    : 	{
; 8    : 		if (m_fvf == fvf)

  0000f	39 51 24	 cmp	 DWORD PTR [ecx+36], edx
  00012	75 0b		 jne	 SHORT $LN4@Create

; 9    : 		{
; 10   : 			if (m_vtxCount >= vtxCount)

  00014	39 41 20	 cmp	 DWORD PTR [ecx+32], eax
  00017	7c 06		 jl	 SHORT $LN4@Create

; 11   : 				return true;

  00019	b0 01		 mov	 al, 1

; 19   : }

  0001b	5d		 pop	 ebp
  0001c	c2 08 00	 ret	 8
$LN4@Create:

; 12   : 		}
; 13   : 	}
; 14   : 
; 15   : 	m_vtxCount = vtxCount;
; 16   : 	m_fvf = fvf;
; 17   : 
; 18   : 	return CGraphicVertexBuffer::Create(m_vtxCount, m_fvf, D3DUSAGE_DYNAMIC, D3DPOOL_SYSTEMMEM);

  0001f	6a 02		 push	 2
  00021	68 00 02 00 00	 push	 512			; 00000200H
  00026	52		 push	 edx
  00027	50		 push	 eax
  00028	89 41 20	 mov	 DWORD PTR [ecx+32], eax
  0002b	89 51 24	 mov	 DWORD PTR [ecx+36], edx
  0002e	e8 00 00 00 00	 call	 ?Create@CGraphicVertexBuffer@@UAE_NHKKW4_D3DPOOL@@@Z ; CGraphicVertexBuffer::Create

; 19   : }

  00033	5d		 pop	 ebp
  00034	c2 08 00	 ret	 8
?Create@CDynamicVertexBuffer@@QAE_NHH@Z ENDP		; CDynamicVertexBuffer::Create
_TEXT	ENDS
; Function compile flags: /Ogtp
; File C:\DS Project\DS Files\Source\ClientSource\Client\EterLib\GrpVertexBufferDynamic.cpp
;	COMDAT ??1CDynamicVertexBuffer@@UAE@XZ
_TEXT	SEGMENT
??1CDynamicVertexBuffer@@UAE@XZ PROC			; CDynamicVertexBuffer::~CDynamicVertexBuffer, COMDAT
; _this$ = ecx

; 28   : {

  00000	c7 01 00 00 00
	00		 mov	 DWORD PTR [ecx], OFFSET ??_7CDynamicVertexBuffer@@6B@

; 29   : }

  00006	e9 00 00 00 00	 jmp	 ??1CGraphicVertexBuffer@@UAE@XZ ; CGraphicVertexBuffer::~CGraphicVertexBuffer
??1CDynamicVertexBuffer@@UAE@XZ ENDP			; CDynamicVertexBuffer::~CDynamicVertexBuffer
_TEXT	ENDS
; Function compile flags: /Ogtp
; File C:\DS Project\DS Files\Source\ClientSource\Client\EterLib\GrpVertexBufferDynamic.cpp
;	COMDAT ??0CDynamicVertexBuffer@@QAE@XZ
_TEXT	SEGMENT
_this$ = -4						; size = 4
??0CDynamicVertexBuffer@@QAE@XZ PROC			; CDynamicVertexBuffer::CDynamicVertexBuffer, COMDAT
; _this$ = ecx

; 22   : {

  00000	55		 push	 ebp
  00001	8b ec		 mov	 ebp, esp
  00003	51		 push	 ecx
  00004	56		 push	 esi
  00005	8b f1		 mov	 esi, ecx
  00007	89 75 fc	 mov	 DWORD PTR _this$[ebp], esi
  0000a	e8 00 00 00 00	 call	 ??0CGraphicVertexBuffer@@QAE@XZ ; CGraphicVertexBuffer::CGraphicVertexBuffer
  0000f	c7 06 00 00 00
	00		 mov	 DWORD PTR [esi], OFFSET ??_7CDynamicVertexBuffer@@6B@

; 23   : 	m_vtxCount = 0;
; 24   : 	m_fvf = 0;
; 25   : }

  00015	8b c6		 mov	 eax, esi
  00017	c7 46 20 00 00
	00 00		 mov	 DWORD PTR [esi+32], 0
  0001e	c7 46 24 00 00
	00 00		 mov	 DWORD PTR [esi+36], 0
  00025	5e		 pop	 esi
  00026	8b e5		 mov	 esp, ebp
  00028	5d		 pop	 ebp
  00029	c3		 ret	 0
??0CDynamicVertexBuffer@@QAE@XZ ENDP			; CDynamicVertexBuffer::CDynamicVertexBuffer
_TEXT	ENDS
END
