; Listing generated by Microsoft (R) Optimizing Compiler Version 19.27.29112.0 

	TITLE	C:\DS Project\DS Files\Source\ClientSource\Client\EterLib\IME.cpp
	.686P
	.XMM
	include listing.inc
	.model	flat

INCLUDELIB LIBCMT
INCLUDELIB OLDNAMES

PUBLIC	?_ImmLockIMC@CIME@@1P6GPAU__MIDL___MIDL_itf_dimm_0000_0012@@PAUHIMC__@@@ZA ; CIME::_ImmLockIMC
PUBLIC	?_ImmUnlockIMC@CIME@@1P6GHPAUHIMC__@@@ZA	; CIME::_ImmUnlockIMC
PUBLIC	?_ImmLockIMCC@CIME@@1P6GPAXPAUHIMCC__@@@ZA	; CIME::_ImmLockIMCC
PUBLIC	?_ImmUnlockIMCC@CIME@@1P6GHPAUHIMCC__@@@ZA	; CIME::_ImmUnlockIMCC
PUBLIC	?_GetReadingString@CIME@@1P6GIPAUHIMC__@@IPA_WPAH2PAI@ZA ; CIME::_GetReadingString
PUBLIC	?_ShowReadingWindow@CIME@@1P6GHPAUHIMC__@@H@ZA	; CIME::_ShowReadingWindow
PUBLIC	?ms_bInitialized@CIME@@2_NA			; CIME::ms_bInitialized
PUBLIC	?ms_bDisableIMECompletely@CIME@@2_NA		; CIME::ms_bDisableIMECompletely
PUBLIC	?ms_bUILessMode@CIME@@2_NA			; CIME::ms_bUILessMode
PUBLIC	?ms_bImeEnabled@CIME@@2_NA			; CIME::ms_bImeEnabled
PUBLIC	?ms_bCaptureInput@CIME@@2_NA			; CIME::ms_bCaptureInput
PUBLIC	?ms_bChineseIME@CIME@@2_NA			; CIME::ms_bChineseIME
PUBLIC	?ms_bUseIMMCandidate@CIME@@2_NA			; CIME::ms_bUseIMMCandidate
PUBLIC	?ms_hWnd@CIME@@2PAUHWND__@@A			; CIME::ms_hWnd
PUBLIC	?ms_hklCurrent@CIME@@2PAUHKL__@@A		; CIME::ms_hklCurrent
PUBLIC	?ms_szKeyboardLayout@CIME@@2PADA		; CIME::ms_szKeyboardLayout
PUBLIC	?ms_stOSVI@CIME@@2U_OSVERSIONINFOA@@A		; CIME::ms_stOSVI
PUBLIC	?ms_hImm32Dll@CIME@@2PAUHINSTANCE__@@A		; CIME::ms_hImm32Dll
PUBLIC	?ms_hCurrentImeDll@CIME@@2PAUHINSTANCE__@@A	; CIME::ms_hCurrentImeDll
PUBLIC	?ms_dwImeState@CIME@@2KA			; CIME::ms_dwImeState
PUBLIC	?ms_adwId@CIME@@2PAKA				; CIME::ms_adwId
PUBLIC	?ms_dwIMELevel@CIME@@2KA			; CIME::ms_dwIMELevel
PUBLIC	?ms_dwIMELevelSaved@CIME@@2KA			; CIME::ms_dwIMELevelSaved
PUBLIC	?ms_bCandidateList@CIME@@2_NA			; CIME::ms_bCandidateList
PUBLIC	?ms_dwCandidateCount@CIME@@2KA			; CIME::ms_dwCandidateCount
PUBLIC	?ms_bVerticalCandidate@CIME@@2_NA		; CIME::ms_bVerticalCandidate
PUBLIC	?ms_iCandListIndexBase@CIME@@2HA		; CIME::ms_iCandListIndexBase
PUBLIC	?ms_wszCandidate@CIME@@2PAY0BAA@_WA		; CIME::ms_wszCandidate
PUBLIC	?ms_dwCandidateSelection@CIME@@2KA		; CIME::ms_dwCandidateSelection
PUBLIC	?ms_dwCandidatePageSize@CIME@@2KA		; CIME::ms_dwCandidatePageSize
PUBLIC	?ms_bReadingInformation@CIME@@2_NA		; CIME::ms_bReadingInformation
PUBLIC	?ms_iReadingError@CIME@@2HA			; CIME::ms_iReadingError
PUBLIC	?ms_bHorizontalReading@CIME@@2_NA		; CIME::ms_bHorizontalReading
PUBLIC	?ms_wszCurrentIndicator@CIME@@2PA_WA		; CIME::ms_wszCurrentIndicator
PUBLIC	?ms_pEvent@CIME@@2PAVIIMEEventSink@@A		; CIME::ms_pEvent
PUBLIC	?m_wText@CIME@@2PA_WA				; CIME::m_wText
PUBLIC	?ms_compLen@CIME@@2HA				; CIME::ms_compLen
PUBLIC	?ms_curpos@CIME@@2HA				; CIME::ms_curpos
PUBLIC	?ms_lastpos@CIME@@2HA				; CIME::ms_lastpos
PUBLIC	?ms_ulbegin@CIME@@2HA				; CIME::ms_ulbegin
PUBLIC	?ms_ulend@CIME@@2HA				; CIME::ms_ulend
PUBLIC	?ms_uOutputCodePage@CIME@@2IA			; CIME::ms_uOutputCodePage
PUBLIC	?ms_uInputCodePage@CIME@@2IA			; CIME::ms_uInputCodePage
PUBLIC	?s_aszIndicator@@3PAY02_WA			; s_aszIndicator
PUBLIC	?gs_codePage@@3KA				; gs_codePage
PUBLIC	?m_tm@CTsfUiLessMode@@1PAUITfThreadMgrEx@@A	; CTsfUiLessMode::m_tm
PUBLIC	?m_dwUIElementSinkCookie@CTsfUiLessMode@@1KA	; CTsfUiLessMode::m_dwUIElementSinkCookie
PUBLIC	?m_dwAlpnSinkCookie@CTsfUiLessMode@@1KA		; CTsfUiLessMode::m_dwAlpnSinkCookie
PUBLIC	?m_dwOpenModeSinkCookie@CTsfUiLessMode@@1KA	; CTsfUiLessMode::m_dwOpenModeSinkCookie
PUBLIC	?m_dwConvModeSinkCookie@CTsfUiLessMode@@1KA	; CTsfUiLessMode::m_dwConvModeSinkCookie
PUBLIC	?m_TsfSink@CTsfUiLessMode@@1PAVCUIElementSink@1@A ; CTsfUiLessMode::m_TsfSink
PUBLIC	?m_nCandidateRefCount@CTsfUiLessMode@@1HA	; CTsfUiLessMode::m_nCandidateRefCount
_BSS	SEGMENT
?_ImmLockIMC@CIME@@1P6GPAU__MIDL___MIDL_itf_dimm_0000_0012@@PAUHIMC__@@@ZA DD 01H DUP (?) ; CIME::_ImmLockIMC
?_ImmUnlockIMC@CIME@@1P6GHPAUHIMC__@@@ZA DD 01H DUP (?)	; CIME::_ImmUnlockIMC
?_ImmLockIMCC@CIME@@1P6GPAXPAUHIMCC__@@@ZA DD 01H DUP (?) ; CIME::_ImmLockIMCC
?_ImmUnlockIMCC@CIME@@1P6GHPAUHIMCC__@@@ZA DD 01H DUP (?) ; CIME::_ImmUnlockIMCC
?_GetReadingString@CIME@@1P6GIPAUHIMC__@@IPA_WPAH2PAI@ZA DD 01H DUP (?) ; CIME::_GetReadingString
?_ShowReadingWindow@CIME@@1P6GHPAUHIMC__@@H@ZA DD 01H DUP (?) ; CIME::_ShowReadingWindow
?ms_bInitialized@CIME@@2_NA DB 01H DUP (?)		; CIME::ms_bInitialized
	ALIGN	4

?ms_bDisableIMECompletely@CIME@@2_NA DB 01H DUP (?)	; CIME::ms_bDisableIMECompletely
	ALIGN	4

?ms_bUILessMode@CIME@@2_NA DB 01H DUP (?)		; CIME::ms_bUILessMode
	ALIGN	4

?ms_bImeEnabled@CIME@@2_NA DB 01H DUP (?)		; CIME::ms_bImeEnabled
	ALIGN	4

?ms_bCaptureInput@CIME@@2_NA DB 01H DUP (?)		; CIME::ms_bCaptureInput
	ALIGN	4

?ms_bChineseIME@CIME@@2_NA DB 01H DUP (?)		; CIME::ms_bChineseIME
	ALIGN	4

?ms_bUseIMMCandidate@CIME@@2_NA DB 01H DUP (?)		; CIME::ms_bUseIMMCandidate
	ALIGN	4

?ms_hWnd@CIME@@2PAUHWND__@@A DD 01H DUP (?)		; CIME::ms_hWnd
?ms_hklCurrent@CIME@@2PAUHKL__@@A DD 01H DUP (?)	; CIME::ms_hklCurrent
?ms_szKeyboardLayout@CIME@@2PADA DB 0aH DUP (?)		; CIME::ms_szKeyboardLayout
	ALIGN	4

?ms_stOSVI@CIME@@2U_OSVERSIONINFOA@@A DB 094H DUP (?)	; CIME::ms_stOSVI
?ms_hImm32Dll@CIME@@2PAUHINSTANCE__@@A DD 01H DUP (?)	; CIME::ms_hImm32Dll
?ms_hCurrentImeDll@CIME@@2PAUHINSTANCE__@@A DD 01H DUP (?) ; CIME::ms_hCurrentImeDll
?ms_dwImeState@CIME@@2KA DD 01H DUP (?)			; CIME::ms_dwImeState
?ms_adwId@CIME@@2PAKA DD 02H DUP (?)			; CIME::ms_adwId
?ms_dwIMELevel@CIME@@2KA DD 01H DUP (?)			; CIME::ms_dwIMELevel
?ms_dwIMELevelSaved@CIME@@2KA DD 01H DUP (?)		; CIME::ms_dwIMELevelSaved
?ms_bCandidateList@CIME@@2_NA DB 01H DUP (?)		; CIME::ms_bCandidateList
	ALIGN	4

?ms_dwCandidateCount@CIME@@2KA DD 01H DUP (?)		; CIME::ms_dwCandidateCount
?ms_bVerticalCandidate@CIME@@2_NA DB 01H DUP (?)	; CIME::ms_bVerticalCandidate
	ALIGN	4

?ms_iCandListIndexBase@CIME@@2HA DD 01H DUP (?)		; CIME::ms_iCandListIndexBase
?ms_wszCandidate@CIME@@2PAY0BAA@_WA DW 0a00H DUP (?)	; CIME::ms_wszCandidate
?ms_dwCandidateSelection@CIME@@2KA DD 01H DUP (?)	; CIME::ms_dwCandidateSelection
?ms_dwCandidatePageSize@CIME@@2KA DD 01H DUP (?)	; CIME::ms_dwCandidatePageSize
?ms_bReadingInformation@CIME@@2_NA DB 01H DUP (?)	; CIME::ms_bReadingInformation
	ALIGN	4

?ms_iReadingError@CIME@@2HA DD 01H DUP (?)		; CIME::ms_iReadingError
?ms_bHorizontalReading@CIME@@2_NA DB 01H DUP (?)	; CIME::ms_bHorizontalReading
	ALIGN	4

?ms_wszCurrentIndicator@CIME@@2PA_WA DD 01H DUP (?)	; CIME::ms_wszCurrentIndicator
?ms_pEvent@CIME@@2PAVIIMEEventSink@@A DD 01H DUP (?)	; CIME::ms_pEvent
?m_wText@CIME@@2PA_WA DW 0400H DUP (?)			; CIME::m_wText
?ms_compLen@CIME@@2HA DD 01H DUP (?)			; CIME::ms_compLen
?ms_curpos@CIME@@2HA DD 01H DUP (?)			; CIME::ms_curpos
?ms_lastpos@CIME@@2HA DD 01H DUP (?)			; CIME::ms_lastpos
?ms_ulbegin@CIME@@2HA DD 01H DUP (?)			; CIME::ms_ulbegin
?ms_ulend@CIME@@2HA DD 01H DUP (?)			; CIME::ms_ulend
?ms_uOutputCodePage@CIME@@2IA DD 01H DUP (?)		; CIME::ms_uOutputCodePage
?ms_uInputCodePage@CIME@@2IA DD 01H DUP (?)		; CIME::ms_uInputCodePage
?gs_codePage@@3KA DD 01H DUP (?)			; gs_codePage
?m_tm@CTsfUiLessMode@@1PAUITfThreadMgrEx@@A DD 01H DUP (?) ; CTsfUiLessMode::m_tm
?m_TsfSink@CTsfUiLessMode@@1PAVCUIElementSink@1@A DD 01H DUP (?) ; CTsfUiLessMode::m_TsfSink
?m_nCandidateRefCount@CTsfUiLessMode@@1HA DD 01H DUP (?) ; CTsfUiLessMode::m_nCandidateRefCount
_BSS	ENDS
_DATA	SEGMENT
?s_aszIndicator@@3PAY02_WA DB 'E', 00H, 'n', 00H, 00H, 00H ; s_aszIndicator
	DB	080H, '{', 00H, 00H
	ORG $+2
	DB	'A~', 00H, 00H
	ORG $+2
	DB	00H, 0acH, 00H, 00H
	ORG $+2
	DB	'B0', 00H, 00H
	ORG $+2
	ORG $+2
?m_dwUIElementSinkCookie@CTsfUiLessMode@@1KA DD 0ffffffffH ; CTsfUiLessMode::m_dwUIElementSinkCookie
?m_dwAlpnSinkCookie@CTsfUiLessMode@@1KA DD 0ffffffffH	; CTsfUiLessMode::m_dwAlpnSinkCookie
?m_dwOpenModeSinkCookie@CTsfUiLessMode@@1KA DD 0ffffffffH ; CTsfUiLessMode::m_dwOpenModeSinkCookie
?m_dwConvModeSinkCookie@CTsfUiLessMode@@1KA DD 0ffffffffH ; CTsfUiLessMode::m_dwConvModeSinkCookie
_DATA	ENDS
PUBLIC	___local_stdio_printf_options
PUBLIC	_sprintf
PUBLIC	??0exception@std@@QAE@ABV01@@Z			; std::exception::exception
PUBLIC	??1exception@std@@UAE@XZ			; std::exception::~exception
PUBLIC	?what@exception@std@@UBEPBDXZ			; std::exception::what
PUBLIC	??_Gexception@std@@UAEPAXI@Z			; std::exception::`scalar deleting destructor'
PUBLIC	??0bad_alloc@std@@QAE@ABV01@@Z			; std::bad_alloc::bad_alloc
PUBLIC	??_Gbad_alloc@std@@UAEPAXI@Z			; std::bad_alloc::`scalar deleting destructor'
PUBLIC	??0bad_array_new_length@std@@QAE@XZ		; std::bad_array_new_length::bad_array_new_length
PUBLIC	??1bad_array_new_length@std@@UAE@XZ		; std::bad_array_new_length::~bad_array_new_length
PUBLIC	??0bad_array_new_length@std@@QAE@ABV01@@Z	; std::bad_array_new_length::bad_array_new_length
PUBLIC	??_Gbad_array_new_length@std@@UAEPAXI@Z		; std::bad_array_new_length::`scalar deleting destructor'
PUBLIC	?_Throw_bad_array_new_length@std@@YAXXZ		; std::_Throw_bad_array_new_length
PUBLIC	?_Xlen_string@std@@YAXXZ			; std::_Xlen_string
PUBLIC	??1?$basic_string@DU?$char_traits@D@std@@V?$allocator@D@2@@std@@QAE@XZ ; std::basic_string<char,std::char_traits<char>,std::allocator<char> >::~basic_string<char,std::char_traits<char>,std::allocator<char> >
PUBLIC	?append@?$basic_string@DU?$char_traits@D@std@@V?$allocator@D@2@@std@@QAEAAV12@QBDI@Z ; std::basic_string<char,std::char_traits<char>,std::allocator<char> >::append
PUBLIC	??1?$basic_string@_WU?$char_traits@_W@std@@V?$allocator@_W@2@@std@@QAE@XZ ; std::basic_string<wchar_t,std::char_traits<wchar_t>,std::allocator<wchar_t> >::~basic_string<wchar_t,std::char_traits<wchar_t>,std::allocator<wchar_t> >
PUBLIC	??$_Destroy_in_place@PA_W@std@@YAXAAPA_W@Z	; std::_Destroy_in_place<wchar_t *>
PUBLIC	??$_Destroy_in_place@PAD@std@@YAXAAPAD@Z	; std::_Destroy_in_place<char *>
PUBLIC	??$_Construct_in_place@PADABQAD@std@@YAXAAPADABQAD@Z ; std::_Construct_in_place<char *,char * const &>
PUBLIC	??$_Deallocate@$07$0A@@std@@YAXPAXI@Z		; std::_Deallocate<8,0>
PUBLIC	??$_Allocate@$07U_Default_allocate_traits@std@@$0A@@std@@YAPAXI@Z ; std::_Allocate<8,std::_Default_allocate_traits,0>
PUBLIC	??$_Allocate_manually_vector_aligned@U_Default_allocate_traits@std@@@std@@YAPAXI@Z ; std::_Allocate_manually_vector_aligned<std::_Default_allocate_traits>
PUBLIC	??0CIME@@QAE@XZ					; CIME::CIME
PUBLIC	??1CIME@@UAE@XZ					; CIME::~CIME
PUBLIC	?Initialize@CIME@@QAE_NPAUHWND__@@@Z		; CIME::Initialize
PUBLIC	?Uninitialize@CIME@@QAEXXZ			; CIME::Uninitialize
PUBLIC	?Clear@CIME@@SAXXZ				; CIME::Clear
PUBLIC	?SetMax@CIME@@QAEXH@Z				; CIME::SetMax
PUBLIC	?SetUserMax@CIME@@QAEXH@Z			; CIME::SetUserMax
PUBLIC	?SetText@CIME@@QAEXPBDH@Z			; CIME::SetText
PUBLIC	?GetText@CIME@@QAEHAAV?$basic_string@DU?$char_traits@D@std@@V?$allocator@D@2@@std@@_N@Z ; CIME::GetText
PUBLIC	?GetCodePageText@CIME@@QAEPBDXZ			; CIME::GetCodePageText
PUBLIC	?GetCodePage@CIME@@QAEHXZ			; CIME::GetCodePage
PUBLIC	?GetCandidateCount@CIME@@QAEHXZ			; CIME::GetCandidateCount
PUBLIC	?GetCandidatePageCount@CIME@@QAEHXZ		; CIME::GetCandidatePageCount
PUBLIC	?GetCandidate@CIME@@QAEHKAAV?$basic_string@DU?$char_traits@D@std@@V?$allocator@D@2@@std@@@Z ; CIME::GetCandidate
PUBLIC	?GetCandidateSelection@CIME@@QAEHXZ		; CIME::GetCandidateSelection
PUBLIC	?GetReading@CIME@@QAEHAAV?$basic_string@DU?$char_traits@D@std@@V?$allocator@D@2@@std@@@Z ; CIME::GetReading
PUBLIC	?GetReadingError@CIME@@QAEHXZ			; CIME::GetReadingError
PUBLIC	?SetInputMode@CIME@@QAEXK@Z			; CIME::SetInputMode
PUBLIC	?GetInputMode@CIME@@QAEKXZ			; CIME::GetInputMode
PUBLIC	?IsIMEEnabled@CIME@@QAE_NXZ			; CIME::IsIMEEnabled
PUBLIC	?EnableIME@CIME@@QAEX_N@Z			; CIME::EnableIME
PUBLIC	?DisableIME@CIME@@QAEXXZ			; CIME::DisableIME
PUBLIC	?EnableCaptureInput@CIME@@QAEXXZ		; CIME::EnableCaptureInput
PUBLIC	?DisableCaptureInput@CIME@@QAEXXZ		; CIME::DisableCaptureInput
PUBLIC	?IsCaptureEnabled@CIME@@QAE_NXZ			; CIME::IsCaptureEnabled
PUBLIC	?SetNumberMode@CIME@@QAEXXZ			; CIME::SetNumberMode
PUBLIC	?SetStringMode@CIME@@QAEXXZ			; CIME::SetStringMode
PUBLIC	?__IsWritable@CIME@@QAE_N_W@Z			; CIME::__IsWritable
PUBLIC	?AddExceptKey@CIME@@QAEX_W@Z			; CIME::AddExceptKey
PUBLIC	?ClearExceptKey@CIME@@QAEXXZ			; CIME::ClearExceptKey
PUBLIC	?PasteTextFromClipBoard@CIME@@QAEXXZ		; CIME::PasteTextFromClipBoard
PUBLIC	?EnablePaste@CIME@@QAEX_N@Z			; CIME::EnablePaste
PUBLIC	?PasteString@CIME@@QAEXPBD@Z			; CIME::PasteString
PUBLIC	?FinalizeString@CIME@@SAX_N@Z			; CIME::FinalizeString
PUBLIC	?UseDefaultIME@CIME@@QAEXXZ			; CIME::UseDefaultIME
PUBLIC	?GetCurPos@CIME@@SAHXZ				; CIME::GetCurPos
PUBLIC	?GetCompLen@CIME@@SAHXZ				; CIME::GetCompLen
PUBLIC	?GetULBegin@CIME@@SAHXZ				; CIME::GetULBegin
PUBLIC	?GetULEnd@CIME@@SAHXZ				; CIME::GetULEnd
PUBLIC	?CloseCandidateList@CIME@@SAXXZ			; CIME::CloseCandidateList
PUBLIC	?CloseReadingInformation@CIME@@SAXXZ		; CIME::CloseReadingInformation
PUBLIC	?ChangeInputLanguage@CIME@@SAXXZ		; CIME::ChangeInputLanguage
PUBLIC	?ChangeInputLanguageWorker@CIME@@SAXXZ		; CIME::ChangeInputLanguageWorker
PUBLIC	?WMInputLanguage@CIME@@QAEJPAUHWND__@@IIJ@Z	; CIME::WMInputLanguage
PUBLIC	?WMStartComposition@CIME@@QAEJPAUHWND__@@IIJ@Z	; CIME::WMStartComposition
PUBLIC	?WMComposition@CIME@@QAEJPAUHWND__@@IIJ@Z	; CIME::WMComposition
PUBLIC	?WMEndComposition@CIME@@QAEJPAUHWND__@@IIJ@Z	; CIME::WMEndComposition
PUBLIC	?WMNotify@CIME@@QAEJPAUHWND__@@IIJ@Z		; CIME::WMNotify
PUBLIC	?WMChar@CIME@@QAEJPAUHWND__@@IIJ@Z		; CIME::WMChar
PUBLIC	?IncCurPos@CIME@@IAEXXZ				; CIME::IncCurPos
PUBLIC	?DecCurPos@CIME@@IAEXXZ				; CIME::DecCurPos
PUBLIC	?SetCurPos@CIME@@IAEXH@Z			; CIME::SetCurPos
PUBLIC	?DelCurPos@CIME@@IAEXXZ				; CIME::DelCurPos
PUBLIC	?CheckInputLocale@CIME@@KAXXZ			; CIME::CheckInputLocale
PUBLIC	?CheckToggleState@CIME@@KAXXZ			; CIME::CheckToggleState
PUBLIC	?SetSupportLevel@CIME@@KAXK@Z			; CIME::SetSupportLevel
PUBLIC	?InsertString@CIME@@IAEXPA_WH@Z			; CIME::InsertString
PUBLIC	?OnChar@CIME@@IAEX_W@Z				; CIME::OnChar
PUBLIC	?GetCodePageFromLang@CIME@@IAEIG@Z		; CIME::GetCodePageFromLang
PUBLIC	?ResultProcess@CIME@@IAEXPAUHIMC__@@@Z		; CIME::ResultProcess
PUBLIC	?CompositionProcessBuilding@CIME@@IAEXPAUHIMC__@@@Z ; CIME::CompositionProcessBuilding
PUBLIC	?CompositionProcess@CIME@@IAEXPAUHIMC__@@@Z	; CIME::CompositionProcess
PUBLIC	?AttributeProcess@CIME@@IAEXPAUHIMC__@@@Z	; CIME::AttributeProcess
PUBLIC	?CandidateProcess@CIME@@IAEXPAUHIMC__@@@Z	; CIME::CandidateProcess
PUBLIC	?ReadingProcess@CIME@@IAEXPAUHIMC__@@@Z		; CIME::ReadingProcess
PUBLIC	?IsMax@CIME@@IAE_NPB_WH@Z			; CIME::IsMax
PUBLIC	?GetImeId@CIME@@IAEKI@Z				; CIME::GetImeId
PUBLIC	?GetReadingWindowOrientation@CIME@@IAE_NXZ	; CIME::GetReadingWindowOrientation
PUBLIC	?SetupImeApi@CIME@@KAXXZ			; CIME::SetupImeApi
PUBLIC	?resize@?$vector@_WV?$allocator@_W@std@@@std@@QAEXI@Z ; std::vector<wchar_t,std::allocator<wchar_t> >::resize
PUBLIC	?_Xlength@?$vector@_WV?$allocator@_W@std@@@std@@CAXXZ ; std::vector<wchar_t,std::allocator<wchar_t> >::_Xlength
PUBLIC	??_GCIME@@UAEPAXI@Z				; CIME::`scalar deleting destructor'
PUBLIC	??0CUIElementSink@CTsfUiLessMode@@QAE@XZ	; CTsfUiLessMode::CUIElementSink::CUIElementSink
PUBLIC	??1CUIElementSink@CTsfUiLessMode@@QAE@XZ	; CTsfUiLessMode::CUIElementSink::~CUIElementSink
PUBLIC	?QueryInterface@CUIElementSink@CTsfUiLessMode@@UAGJABU_GUID@@PAPAX@Z ; CTsfUiLessMode::CUIElementSink::QueryInterface
PUBLIC	?AddRef@CUIElementSink@CTsfUiLessMode@@UAGKXZ	; CTsfUiLessMode::CUIElementSink::AddRef
PUBLIC	?Release@CUIElementSink@CTsfUiLessMode@@UAGKXZ	; CTsfUiLessMode::CUIElementSink::Release
PUBLIC	?BeginUIElement@CUIElementSink@CTsfUiLessMode@@UAGJKPAH@Z ; CTsfUiLessMode::CUIElementSink::BeginUIElement
PUBLIC	?UpdateUIElement@CUIElementSink@CTsfUiLessMode@@UAGJK@Z ; CTsfUiLessMode::CUIElementSink::UpdateUIElement
PUBLIC	?EndUIElement@CUIElementSink@CTsfUiLessMode@@UAGJK@Z ; CTsfUiLessMode::CUIElementSink::EndUIElement
PUBLIC	?OnActivated@CUIElementSink@CTsfUiLessMode@@UAGJKGABU_GUID@@00PAUHKL__@@K@Z ; CTsfUiLessMode::CUIElementSink::OnActivated
PUBLIC	?OnChange@CUIElementSink@CTsfUiLessMode@@UAGJABU_GUID@@@Z ; CTsfUiLessMode::CUIElementSink::OnChange
PUBLIC	?MakeReadingInformationString@CTsfUiLessMode@@KAXPAUITfReadingInformationUIElement@@@Z ; CTsfUiLessMode::MakeReadingInformationString
PUBLIC	?MakeCandidateStrings@CTsfUiLessMode@@KAXPAUITfCandidateListUIElement@@@Z ; CTsfUiLessMode::MakeCandidateStrings
PUBLIC	?GetUIElement@CTsfUiLessMode@@KAPAUITfUIElement@@K@Z ; CTsfUiLessMode::GetUIElement
PUBLIC	?GetCompartments@CTsfUiLessMode@@KAHPAPAUITfCompartmentMgr@@PAPAUITfCompartment@@1@Z ; CTsfUiLessMode::GetCompartments
PUBLIC	?SetupCompartmentSinks@CTsfUiLessMode@@KAHHPAUITfCompartment@@0@Z ; CTsfUiLessMode::SetupCompartmentSinks
PUBLIC	?SetupSinks@CTsfUiLessMode@@SAHXZ		; CTsfUiLessMode::SetupSinks
PUBLIC	?ReleaseSinks@CTsfUiLessMode@@SAXXZ		; CTsfUiLessMode::ReleaseSinks
PUBLIC	?CurrentInputLocaleIsIme@CTsfUiLessMode@@SAHXZ	; CTsfUiLessMode::CurrentInputLocaleIsIme
PUBLIC	?UpdateImeState@CTsfUiLessMode@@SAXH@Z		; CTsfUiLessMode::UpdateImeState
PUBLIC	?EnableUiUpdates@CTsfUiLessMode@@SAX_N@Z	; CTsfUiLessMode::EnableUiUpdates
PUBLIC	??1?$vector@EV?$allocator@E@std@@@std@@QAE@XZ	; std::vector<unsigned char,std::allocator<unsigned char> >::~vector<unsigned char,std::allocator<unsigned char> >
PUBLIC	?_Xlength@?$vector@EV?$allocator@E@std@@@std@@CAXXZ ; std::vector<unsigned char,std::allocator<unsigned char> >::_Xlength
PUBLIC	??$assign@PA_W$0A@@?$vector@_WV?$allocator@_W@std@@@std@@QAEXPA_W0@Z ; std::vector<wchar_t,std::allocator<wchar_t> >::assign<wchar_t *,0>
PUBLIC	??$_Emplace_reallocate@AB_W@?$vector@_WV?$allocator@_W@std@@@std@@QAEPA_WQA_WAB_W@Z ; std::vector<wchar_t,std::allocator<wchar_t> >::_Emplace_reallocate<wchar_t const &>
PUBLIC	??$_Destroy_range@V?$allocator@_W@std@@@std@@YAXPA_WQA_WAAV?$allocator@_W@0@@Z ; std::_Destroy_range<std::allocator<wchar_t> >
PUBLIC	??$_Destroy_range@V?$allocator@E@std@@@std@@YAXPAEQAEAAV?$allocator@E@0@@Z ; std::_Destroy_range<std::allocator<unsigned char> >
PUBLIC	??$_Resize_reallocate@U_Value_init_tag@std@@@?$vector@EV?$allocator@E@std@@@std@@AAEXIABU_Value_init_tag@1@@Z ; std::vector<unsigned char,std::allocator<unsigned char> >::_Resize_reallocate<std::_Value_init_tag>
PUBLIC	??$_Resize_reallocate@U_Value_init_tag@std@@@?$vector@_WV?$allocator@_W@std@@@std@@AAEXIABU_Value_init_tag@1@@Z ; std::vector<wchar_t,std::allocator<wchar_t> >::_Resize_reallocate<std::_Value_init_tag>
PUBLIC	??$_Uninitialized_value_construct_n@V?$allocator@E@std@@@std@@YAPAEPAEIAAV?$allocator@E@0@@Z ; std::_Uninitialized_value_construct_n<std::allocator<unsigned char> >
PUBLIC	??$_Uninitialized_move@PA_WV?$allocator@_W@std@@@std@@YAPA_WQA_W0PA_WAAV?$allocator@_W@0@@Z ; std::_Uninitialized_move<wchar_t *,std::allocator<wchar_t> >
PUBLIC	??$_Uninitialized_value_construct_n@V?$allocator@_W@std@@@std@@YAPA_WPA_WIAAV?$allocator@_W@0@@Z ; std::_Uninitialized_value_construct_n<std::allocator<wchar_t> >
PUBLIC	??$_Copy_memmove@PA_WPA_W@std@@YAPA_WPA_W00@Z	; std::_Copy_memmove<wchar_t *,wchar_t *>
PUBLIC	??$_Refancy@PA_W$0A@@std@@YAPA_WPA_W@Z		; std::_Refancy<wchar_t *,0>
PUBLIC	??$_Zero_range@PAE@std@@YAPAEQAE0@Z		; std::_Zero_range<unsigned char *>
PUBLIC	??$_Zero_range@PA_W@std@@YAPA_WQA_W0@Z		; std::_Zero_range<wchar_t *>
PUBLIC	??$_Uninitialized_move@PAEV?$allocator@E@std@@@std@@YAPAEQAE0PAEAAV?$allocator@E@0@@Z ; std::_Uninitialized_move<unsigned char *,std::allocator<unsigned char> >
PUBLIC	??$_Copy_memmove@PAEPAE@std@@YAPAEPAE00@Z	; std::_Copy_memmove<unsigned char *,unsigned char *>
PUBLIC	?QueryInterface@CUIElementSink@CTsfUiLessMode@@W3AGJABU_GUID@@PAPAX@Z ; [thunk]:CTsfUiLessMode::CUIElementSink::QueryInterface`adjustor{4}'
PUBLIC	?AddRef@CUIElementSink@CTsfUiLessMode@@W3AGKXZ	; [thunk]:CTsfUiLessMode::CUIElementSink::AddRef`adjustor{4}'
PUBLIC	?Release@CUIElementSink@CTsfUiLessMode@@W3AGKXZ	; [thunk]:CTsfUiLessMode::CUIElementSink::Release`adjustor{4}'
PUBLIC	?QueryInterface@CUIElementSink@CTsfUiLessMode@@W7AGJABU_GUID@@PAPAX@Z ; [thunk]:CTsfUiLessMode::CUIElementSink::QueryInterface`adjustor{8}'
PUBLIC	?AddRef@CUIElementSink@CTsfUiLessMode@@W7AGKXZ	; [thunk]:CTsfUiLessMode::CUIElementSink::AddRef`adjustor{8}'
PUBLIC	?Release@CUIElementSink@CTsfUiLessMode@@W7AGKXZ	; [thunk]:CTsfUiLessMode::CUIElementSink::Release`adjustor{8}'
PUBLIC	?_OptionsStorage@?1??__local_stdio_printf_options@@9@4_KA ; `__local_stdio_printf_options'::`2'::_OptionsStorage
PUBLIC	??_7exception@std@@6B@				; std::exception::`vftable'
PUBLIC	??_C@_0BC@EOODALEL@Unknown?5exception@		; `string'
PUBLIC	??_7bad_alloc@std@@6B@				; std::bad_alloc::`vftable'
PUBLIC	??_7bad_array_new_length@std@@6B@		; std::bad_array_new_length::`vftable'
PUBLIC	??_C@_0BF@KINCDENJ@bad?5array?5new?5length@	; `string'
PUBLIC	__TI3?AVbad_array_new_length@std@@
PUBLIC	__CTA3?AVbad_array_new_length@std@@
PUBLIC	??_R0?AVbad_array_new_length@std@@@8		; std::bad_array_new_length `RTTI Type Descriptor'
PUBLIC	__CT??_R0?AVbad_array_new_length@std@@@8??0bad_array_new_length@std@@QAE@ABV01@@Z12
PUBLIC	??_R0?AVbad_alloc@std@@@8			; std::bad_alloc `RTTI Type Descriptor'
PUBLIC	__CT??_R0?AVbad_alloc@std@@@8??0bad_alloc@std@@QAE@ABV01@@Z12
PUBLIC	??_R0?AVexception@std@@@8			; std::exception `RTTI Type Descriptor'
PUBLIC	__CT??_R0?AVexception@std@@@8??0exception@std@@QAE@ABV01@@Z12
PUBLIC	??_C@_0BA@JFNIOLAK@string?5too?5long@		; `string'
PUBLIC	??_R4exception@std@@6B@				; std::exception::`RTTI Complete Object Locator'
PUBLIC	??_R3exception@std@@8				; std::exception::`RTTI Class Hierarchy Descriptor'
PUBLIC	??_R2exception@std@@8				; std::exception::`RTTI Base Class Array'
PUBLIC	??_R1A@?0A@EA@exception@std@@8			; std::exception::`RTTI Base Class Descriptor at (0,-1,0,64)'
PUBLIC	??_R4bad_alloc@std@@6B@				; std::bad_alloc::`RTTI Complete Object Locator'
PUBLIC	??_R3bad_alloc@std@@8				; std::bad_alloc::`RTTI Class Hierarchy Descriptor'
PUBLIC	??_R2bad_alloc@std@@8				; std::bad_alloc::`RTTI Base Class Array'
PUBLIC	??_R1A@?0A@EA@bad_alloc@std@@8			; std::bad_alloc::`RTTI Base Class Descriptor at (0,-1,0,64)'
PUBLIC	??_R4bad_array_new_length@std@@6B@		; std::bad_array_new_length::`RTTI Complete Object Locator'
PUBLIC	??_R3bad_array_new_length@std@@8		; std::bad_array_new_length::`RTTI Class Hierarchy Descriptor'
PUBLIC	??_R2bad_array_new_length@std@@8		; std::bad_array_new_length::`RTTI Base Class Array'
PUBLIC	??_R1A@?0A@EA@bad_array_new_length@std@@8	; std::bad_array_new_length::`RTTI Base Class Descriptor at (0,-1,0,64)'
PUBLIC	?ms_wstrReading@CIME@@2V?$vector@_WV?$allocator@_W@std@@@std@@A ; CIME::ms_wstrReading
PUBLIC	??_7CIME@@6B@					; CIME::`vftable'
PUBLIC	??_7CUIElementSink@CTsfUiLessMode@@6BITfUIElementSink@@@ ; CTsfUiLessMode::CUIElementSink::`vftable'
PUBLIC	??_7CUIElementSink@CTsfUiLessMode@@6BITfInputProcessorProfileActivationSink@@@ ; CTsfUiLessMode::CUIElementSink::`vftable'
PUBLIC	??_7CUIElementSink@CTsfUiLessMode@@6BITfCompartmentEventSink@@@ ; CTsfUiLessMode::CUIElementSink::`vftable'
PUBLIC	__GUID_aa80e801_2021_11d2_93e0_0060b067b86e
PUBLIC	??_C@_0L@LPOFADGE@?2imm32?4dll@			; `string'
PUBLIC	??_C@_0L@JGAMEFKO@ImmLockIMC@			; `string'
PUBLIC	??_C@_0N@PDIACEGP@ImmUnlockIMC@			; `string'
PUBLIC	??_C@_0M@OKKMJOGM@ImmLockIMCC@			; `string'
PUBLIC	??_C@_0O@GKKOACL@ImmUnlockIMCC@			; `string'
PUBLIC	??_C@_0BL@MBEANDFB@ImmDisableTextFrameService@	; `string'
PUBLIC	??_C@_05JKJMOPAK@?$EA?$CF04d@			; `string'
PUBLIC	??_C@_05EFEJGKEJ@?$EA9999@			; `string'
PUBLIC	??_C@_11LOCGONAA@@				; `string'
PUBLIC	??_C@_0N@FFMHCBAD@TINTLGNT?4IME@		; `string'
PUBLIC	??_C@_0N@JMLDIBIB@CINTLGNT?4IME@		; `string'
PUBLIC	??_C@_0N@FHDFFBN@MSTCIPHA?4IME@			; `string'
PUBLIC	??_C@_0N@JFHOELJF@PINTLGNT?4IME@		; `string'
PUBLIC	??_C@_0N@ONOBNHOE@MSSCIPYA?4IME@		; `string'
PUBLIC	??_C@_01KICIPPFI@?2@				; `string'
PUBLIC	??_C@_0CL@PCFEMFCF@software?2microsoft?2windows?2curr@ ; `string'
PUBLIC	??_C@_07DEJAPC@MSTCIPH@				; `string'
PUBLIC	??_C@_08LMKCILHO@TINTLGNT@			; `string'
PUBLIC	??_C@_0BB@KFOMJFEN@Keyboard?5Mapping@		; `string'
PUBLIC	??_C@_0N@EMABPIGL@QQPINYIN?4IME@		; `string'
PUBLIC	??_C@_0M@IPABOCGB@SOGOUPY?4IME@			; `string'
PUBLIC	??_C@_0BC@KLAKFCEJ@GOOGLEPINYIN2?4IME@		; `string'
PUBLIC	??_C@_0BB@EOIFCLLM@GetReadingString@		; `string'
PUBLIC	??_C@_0BC@MEELNKEC@ShowReadingWindow@		; `string'
PUBLIC	__GUID_3e90ade3_7594_4cb0_bb58_69628f5f458c
PUBLIC	__GUID_4ea48a35_60ae_446f_8fd6_e6a8d82459f7
PUBLIC	__GUID_ea1ea136_19df_11d7_a6d2_00065b84435c
PUBLIC	__GUID_71c6e74e_0f28_11d8_a82a_00065b84435c
PUBLIC	__GUID_743abd5f_f26d_48df_8cc5_238492419b64
PUBLIC	__GUID_ea1ea139_19df_11d7_a6d2_00065b84435c
PUBLIC	__GUID_ea1ea138_19df_11d7_a6d2_00065b84435c
PUBLIC	__GUID_ea1ea135_19df_11d7_a6d2_00065b84435c
PUBLIC	__GUID_1f02b6c5_7842_4ee6_8a0b_9a24183a95ca
PUBLIC	__GUID_71c6e74c_0f28_11d8_a82a_00065b84435c
PUBLIC	??_C@_0BA@FOIKENOD@vector?5too?5long@		; `string'
PUBLIC	??_R0?AUIUnknown@@@8				; IUnknown `RTTI Type Descriptor'
PUBLIC	??_R3IUnknown@@8				; IUnknown::`RTTI Class Hierarchy Descriptor'
PUBLIC	??_R2IUnknown@@8				; IUnknown::`RTTI Base Class Array'
PUBLIC	??_R1A@?0A@EA@IUnknown@@8			; IUnknown::`RTTI Base Class Descriptor at (0,-1,0,64)'
PUBLIC	??_R4CIME@@6B@					; CIME::`RTTI Complete Object Locator'
PUBLIC	??_R0?AVCIME@@@8				; CIME `RTTI Type Descriptor'
PUBLIC	??_R3CIME@@8					; CIME::`RTTI Class Hierarchy Descriptor'
PUBLIC	??_R2CIME@@8					; CIME::`RTTI Base Class Array'
PUBLIC	??_R1A@?0A@EA@CIME@@8				; CIME::`RTTI Base Class Descriptor at (0,-1,0,64)'
PUBLIC	??_R0?AUITfCompartmentEventSink@@@8		; ITfCompartmentEventSink `RTTI Type Descriptor'
PUBLIC	??_R3ITfCompartmentEventSink@@8			; ITfCompartmentEventSink::`RTTI Class Hierarchy Descriptor'
PUBLIC	??_R2ITfCompartmentEventSink@@8			; ITfCompartmentEventSink::`RTTI Base Class Array'
PUBLIC	??_R1A@?0A@EA@ITfCompartmentEventSink@@8	; ITfCompartmentEventSink::`RTTI Base Class Descriptor at (0,-1,0,64)'
PUBLIC	??_R0?AUITfInputProcessorProfileActivationSink@@@8 ; ITfInputProcessorProfileActivationSink `RTTI Type Descriptor'
PUBLIC	??_R3ITfInputProcessorProfileActivationSink@@8	; ITfInputProcessorProfileActivationSink::`RTTI Class Hierarchy Descriptor'
PUBLIC	??_R2ITfInputProcessorProfileActivationSink@@8	; ITfInputProcessorProfileActivationSink::`RTTI Base Class Array'
PUBLIC	??_R1A@?0A@EA@ITfInputProcessorProfileActivationSink@@8 ; ITfInputProcessorProfileActivationSink::`RTTI Base Class Descriptor at (0,-1,0,64)'
PUBLIC	??_R0?AUITfUIElementSink@@@8			; ITfUIElementSink `RTTI Type Descriptor'
PUBLIC	??_R3ITfUIElementSink@@8			; ITfUIElementSink::`RTTI Class Hierarchy Descriptor'
PUBLIC	??_R2ITfUIElementSink@@8			; ITfUIElementSink::`RTTI Base Class Array'
PUBLIC	??_R1A@?0A@EA@ITfUIElementSink@@8		; ITfUIElementSink::`RTTI Base Class Descriptor at (0,-1,0,64)'
PUBLIC	??_R4CUIElementSink@CTsfUiLessMode@@6BITfUIElementSink@@@ ; CTsfUiLessMode::CUIElementSink::`RTTI Complete Object Locator'
PUBLIC	??_R0?AVCUIElementSink@CTsfUiLessMode@@@8	; CTsfUiLessMode::CUIElementSink `RTTI Type Descriptor'
PUBLIC	??_R3CUIElementSink@CTsfUiLessMode@@8		; CTsfUiLessMode::CUIElementSink::`RTTI Class Hierarchy Descriptor'
PUBLIC	??_R2CUIElementSink@CTsfUiLessMode@@8		; CTsfUiLessMode::CUIElementSink::`RTTI Base Class Array'
PUBLIC	??_R1A@?0A@EA@CUIElementSink@CTsfUiLessMode@@8	; CTsfUiLessMode::CUIElementSink::`RTTI Base Class Descriptor at (0,-1,0,64)'
PUBLIC	??_R1A@?0A@EC@IUnknown@@8			; IUnknown::`RTTI Base Class Descriptor at (0,-1,0,66)'
PUBLIC	??_R13?0A@EA@ITfInputProcessorProfileActivationSink@@8 ; ITfInputProcessorProfileActivationSink::`RTTI Base Class Descriptor at (4,-1,0,64)'
PUBLIC	??_R13?0A@EC@IUnknown@@8			; IUnknown::`RTTI Base Class Descriptor at (4,-1,0,66)'
PUBLIC	??_R17?0A@EA@ITfCompartmentEventSink@@8		; ITfCompartmentEventSink::`RTTI Base Class Descriptor at (8,-1,0,64)'
PUBLIC	??_R17?0A@EC@IUnknown@@8			; IUnknown::`RTTI Base Class Descriptor at (8,-1,0,66)'
PUBLIC	??_R4CUIElementSink@CTsfUiLessMode@@6BITfInputProcessorProfileActivationSink@@@ ; CTsfUiLessMode::CUIElementSink::`RTTI Complete Object Locator'
PUBLIC	??_R4CUIElementSink@CTsfUiLessMode@@6BITfCompartmentEventSink@@@ ; CTsfUiLessMode::CUIElementSink::`RTTI Complete Object Locator'
EXTRN	??2@YAPAXI@Z:PROC				; operator new
EXTRN	??3@YAXPAXI@Z:PROC				; operator delete
EXTRN	_atexit:PROC
EXTRN	___std_terminate:PROC
EXTRN	__invalid_parameter_noinfo_noreturn:PROC
EXTRN	_free:PROC
EXTRN	_malloc:PROC
EXTRN	_iswdigit:PROC
EXTRN	_towlower:PROC
EXTRN	__stricmp:PROC
EXTRN	__imp__GetSystemDirectoryA@8:PROC
EXTRN	__imp__GetVersionExA@4:PROC
EXTRN	__imp__FreeLibrary@4:PROC
EXTRN	__imp__GetProcAddress@8:PROC
EXTRN	__imp__LoadLibraryA@4:PROC
EXTRN	__imp__GlobalUnlock@4:PROC
EXTRN	__imp__GlobalLock@4:PROC
EXTRN	__imp__lstrlenW@4:PROC
EXTRN	__imp__GetKeyboardLayoutNameA@4:PROC
EXTRN	__imp__GetKeyboardLayout@4:PROC
EXTRN	__imp__DefWindowProcA@16:PROC
EXTRN	__imp__OpenClipboard@4:PROC
EXTRN	__imp__CloseClipboard@0:PROC
EXTRN	__imp__GetClipboardData@4:PROC
EXTRN	__imp__CharNextW@4:PROC
EXTRN	__imp__MultiByteToWideChar@24:PROC
EXTRN	__imp__WideCharToMultiByte@32:PROC
EXTRN	__imp__CompareStringA@24:PROC
EXTRN	__imp__GetLocaleInfoA@16:PROC
EXTRN	_GetFileVersionInfoSizeA@8:PROC
EXTRN	_GetFileVersionInfoA@16:PROC
EXTRN	_VerQueryValueA@16:PROC
EXTRN	__imp__RegCloseKey@4:PROC
EXTRN	__imp__RegOpenKeyExA@20:PROC
EXTRN	__imp__RegQueryValueExA@24:PROC
EXTRN	_ImmGetIMEFileNameA@12:PROC
EXTRN	_ImmIsIME@4:PROC
EXTRN	_ImmGetContext@4:PROC
EXTRN	_ImmReleaseContext@8:PROC
EXTRN	_ImmAssociateContext@8:PROC
EXTRN	_ImmGetCompositionStringW@16:PROC
EXTRN	_ImmSetCompositionStringW@24:PROC
EXTRN	_ImmGetCandidateListW@16:PROC
EXTRN	_ImmGetConversionStatus@12:PROC
EXTRN	_ImmSetConversionStatus@12:PROC
EXTRN	_ImmGetOpenStatus@4:PROC
EXTRN	_ImmNotifyIME@16:PROC
EXTRN	__imp__CoUninitialize@0:PROC
EXTRN	__imp__CoInitializeEx@8:PROC
EXTRN	__imp__CoCreateInstance@20:PROC
EXTRN	___stdio_common_vsprintf:PROC
EXTRN	___std_exception_copy:PROC
EXTRN	___std_exception_destroy:PROC
EXTRN	??_Eexception@std@@UAEPAXI@Z:PROC		; std::exception::`vector deleting destructor'
EXTRN	??_Ebad_alloc@std@@UAEPAXI@Z:PROC		; std::bad_alloc::`vector deleting destructor'
EXTRN	??_Ebad_array_new_length@std@@UAEPAXI@Z:PROC	; std::bad_array_new_length::`vector deleting destructor'
EXTRN	?_Xlength_error@std@@YAXPBD@Z:PROC		; std::_Xlength_error
EXTRN	??_ECIME@@UAEPAXI@Z:PROC			; CIME::`vector deleting destructor'
EXTRN	?GetTextTagOutputString@@YA?AV?$basic_string@_WU?$char_traits@_W@std@@V?$allocator@_W@2@@std@@PB_WH@Z:PROC ; GetTextTagOutputString
EXTRN	?GetTextTagOutputLen@@YAHPB_WH@Z:PROC		; GetTextTagOutputLen
EXTRN	?FindColorTagEndPosition@@YAHPB_WH@Z:PROC	; FindColorTagEndPosition
EXTRN	?FindColorTagStartPosition@@YAHPB_WH@Z:PROC	; FindColorTagStartPosition
EXTRN	?GetTextTagInternalPosFromRenderPos@@YAHPB_WHH@Z:PROC ; GetTextTagInternalPosFromRenderPos
EXTRN	?MIN@@YAHHH@Z:PROC				; MIN
EXTRN	__imp__SysFreeString@4:PROC
EXTRN	__imp__VariantClear@4:PROC
EXTRN	?GetDefaultCodePage@@YAKXZ:PROC			; GetDefaultCodePage
EXTRN	?ReadToken@@YAHPBD@Z:PROC			; ReadToken
EXTRN	?FindToken@@YAPBDPBD0@Z:PROC			; FindToken
EXTRN	@__security_check_cookie@4:PROC
EXTRN	__CxxThrowException@8:PROC
EXTRN	___CxxFrameHandler3:PROC
EXTRN	__alloca_probe_16:PROC
EXTRN	_memcpy:PROC
EXTRN	_memmove:PROC
EXTRN	_memset:PROC
EXTRN	_IID_IUnknown:BYTE
EXTRN	??_7type_info@@6B@:QWORD			; type_info::`vftable'
EXTRN	_CLSID_TF_ThreadMgr:BYTE
EXTRN	_CLSID_TF_InputProcessorProfiles:BYTE
EXTRN	_GUID_COMPARTMENT_KEYBOARD_OPENCLOSE:BYTE
EXTRN	_GUID_TFCAT_TIP_KEYBOARD:BYTE
EXTRN	_IID_ITfCompartmentEventSink:BYTE
EXTRN	_IID_ITfCompartmentMgr:BYTE
EXTRN	_IID_ITfSource:BYTE
EXTRN	___security_cookie:DWORD
;	COMDAT ?_OptionsStorage@?1??__local_stdio_printf_options@@9@4_KA
_BSS	SEGMENT
?_OptionsStorage@?1??__local_stdio_printf_options@@9@4_KA DQ 01H DUP (?) ; `__local_stdio_printf_options'::`2'::_OptionsStorage
_BSS	ENDS
_BSS	SEGMENT
?ms_wstrReading@CIME@@2V?$vector@_WV?$allocator@_W@std@@@std@@A DB 0cH DUP (?) ; CIME::ms_wstrReading
	ALIGN	8

?g_disableCicero@@3VCDisableCicero@@A DQ 01H DUP (?)	; g_disableCicero
_BSS	ENDS
;	COMDAT ?szCodePage@?1??GetCodePageText@CIME@@QAEPBDXZ@4PADA
_BSS	SEGMENT
?szCodePage@?1??GetCodePageText@CIME@@QAEPBDXZ@4PADA DB 010H DUP (?) ; `CIME::GetCodePageText'::`2'::szCodePage
_BSS	ENDS
;	COMDAT ?s_bProcessing@?1??FinalizeString@CIME@@SAX_N@Z@4_NA
_BSS	SEGMENT
?s_bProcessing@?1??FinalizeString@CIME@@SAX_N@Z@4_NA DB 01H DUP (?) ; `CIME::FinalizeString'::`2'::s_bProcessing
_BSS	ENDS
;	COMDAT ?hklPrev@?1??GetImeId@CIME@@IAEKI@Z@4PAUHKL__@@A
_BSS	SEGMENT
?hklPrev@?1??GetImeId@CIME@@IAEKI@Z@4PAUHKL__@@A DD 01H DUP (?) ; `CIME::GetImeId'::`2'::hklPrev
_BSS	ENDS
;	COMDAT ?s_hklPrev@?1??CheckInputLocale@CIME@@KAXXZ@4PAUHKL__@@A
_BSS	SEGMENT
?s_hklPrev@?1??CheckInputLocale@CIME@@KAXXZ@4PAUHKL__@@A DD 01H DUP (?) ; `CIME::CheckInputLocale'::`2'::s_hklPrev
_BSS	ENDS
CRT$XCU	SEGMENT
??ms_wstrReading$initializer$@CIME@@2P6AXXZA@@3P6AXXZA DD FLAT:??__E?ms_wstrReading@CIME@@2V?$vector@_WV?$allocator@_W@std@@@std@@A@@YAXXZ ; ??ms_wstrReading$initializer$@CIME@@2P6AXXZA@@3P6AXXZA
CRT$XCU	ENDS
;	COMDAT ??_R4CUIElementSink@CTsfUiLessMode@@6BITfCompartmentEventSink@@@
rdata$r	SEGMENT
??_R4CUIElementSink@CTsfUiLessMode@@6BITfCompartmentEventSink@@@ DD 00H ; CTsfUiLessMode::CUIElementSink::`RTTI Complete Object Locator'
	DD	08H
	DD	00H
	DD	FLAT:??_R0?AVCUIElementSink@CTsfUiLessMode@@@8
	DD	FLAT:??_R3CUIElementSink@CTsfUiLessMode@@8
rdata$r	ENDS
;	COMDAT ??_R4CUIElementSink@CTsfUiLessMode@@6BITfInputProcessorProfileActivationSink@@@
rdata$r	SEGMENT
??_R4CUIElementSink@CTsfUiLessMode@@6BITfInputProcessorProfileActivationSink@@@ DD 00H ; CTsfUiLessMode::CUIElementSink::`RTTI Complete Object Locator'
	DD	04H
	DD	00H
	DD	FLAT:??_R0?AVCUIElementSink@CTsfUiLessMode@@@8
	DD	FLAT:??_R3CUIElementSink@CTsfUiLessMode@@8
rdata$r	ENDS
;	COMDAT ??_R17?0A@EC@IUnknown@@8
rdata$r	SEGMENT
??_R17?0A@EC@IUnknown@@8 DD FLAT:??_R0?AUIUnknown@@@8	; IUnknown::`RTTI Base Class Descriptor at (8,-1,0,66)'
	DD	00H
	DD	08H
	DD	0ffffffffH
	DD	00H
	DD	042H
	DD	FLAT:??_R3IUnknown@@8
rdata$r	ENDS
;	COMDAT ??_R17?0A@EA@ITfCompartmentEventSink@@8
rdata$r	SEGMENT
??_R17?0A@EA@ITfCompartmentEventSink@@8 DD FLAT:??_R0?AUITfCompartmentEventSink@@@8 ; ITfCompartmentEventSink::`RTTI Base Class Descriptor at (8,-1,0,64)'
	DD	01H
	DD	08H
	DD	0ffffffffH
	DD	00H
	DD	040H
	DD	FLAT:??_R3ITfCompartmentEventSink@@8
rdata$r	ENDS
;	COMDAT ??_R13?0A@EC@IUnknown@@8
rdata$r	SEGMENT
??_R13?0A@EC@IUnknown@@8 DD FLAT:??_R0?AUIUnknown@@@8	; IUnknown::`RTTI Base Class Descriptor at (4,-1,0,66)'
	DD	00H
	DD	04H
	DD	0ffffffffH
	DD	00H
	DD	042H
	DD	FLAT:??_R3IUnknown@@8
rdata$r	ENDS
;	COMDAT ??_R13?0A@EA@ITfInputProcessorProfileActivationSink@@8
rdata$r	SEGMENT
??_R13?0A@EA@ITfInputProcessorProfileActivationSink@@8 DD FLAT:??_R0?AUITfInputProcessorProfileActivationSink@@@8 ; ITfInputProcessorProfileActivationSink::`RTTI Base Class Descriptor at (4,-1,0,64)'
	DD	01H
	DD	04H
	DD	0ffffffffH
	DD	00H
	DD	040H
	DD	FLAT:??_R3ITfInputProcessorProfileActivationSink@@8
rdata$r	ENDS
;	COMDAT ??_R1A@?0A@EC@IUnknown@@8
rdata$r	SEGMENT
??_R1A@?0A@EC@IUnknown@@8 DD FLAT:??_R0?AUIUnknown@@@8	; IUnknown::`RTTI Base Class Descriptor at (0,-1,0,66)'
	DD	00H
	DD	00H
	DD	0ffffffffH
	DD	00H
	DD	042H
	DD	FLAT:??_R3IUnknown@@8
rdata$r	ENDS
;	COMDAT ??_R1A@?0A@EA@CUIElementSink@CTsfUiLessMode@@8
rdata$r	SEGMENT
??_R1A@?0A@EA@CUIElementSink@CTsfUiLessMode@@8 DD FLAT:??_R0?AVCUIElementSink@CTsfUiLessMode@@@8 ; CTsfUiLessMode::CUIElementSink::`RTTI Base Class Descriptor at (0,-1,0,64)'
	DD	06H
	DD	00H
	DD	0ffffffffH
	DD	00H
	DD	040H
	DD	FLAT:??_R3CUIElementSink@CTsfUiLessMode@@8
rdata$r	ENDS
;	COMDAT ??_R2CUIElementSink@CTsfUiLessMode@@8
rdata$r	SEGMENT
??_R2CUIElementSink@CTsfUiLessMode@@8 DD FLAT:??_R1A@?0A@EA@CUIElementSink@CTsfUiLessMode@@8 ; CTsfUiLessMode::CUIElementSink::`RTTI Base Class Array'
	DD	FLAT:??_R1A@?0A@EA@ITfUIElementSink@@8
	DD	FLAT:??_R1A@?0A@EC@IUnknown@@8
	DD	FLAT:??_R13?0A@EA@ITfInputProcessorProfileActivationSink@@8
	DD	FLAT:??_R13?0A@EC@IUnknown@@8
	DD	FLAT:??_R17?0A@EA@ITfCompartmentEventSink@@8
	DD	FLAT:??_R17?0A@EC@IUnknown@@8
rdata$r	ENDS
;	COMDAT ??_R3CUIElementSink@CTsfUiLessMode@@8
rdata$r	SEGMENT
??_R3CUIElementSink@CTsfUiLessMode@@8 DD 00H		; CTsfUiLessMode::CUIElementSink::`RTTI Class Hierarchy Descriptor'
	DD	05H
	DD	07H
	DD	FLAT:??_R2CUIElementSink@CTsfUiLessMode@@8
rdata$r	ENDS
;	COMDAT ??_R0?AVCUIElementSink@CTsfUiLessMode@@@8
data$r	SEGMENT
??_R0?AVCUIElementSink@CTsfUiLessMode@@@8 DD FLAT:??_7type_info@@6B@ ; CTsfUiLessMode::CUIElementSink `RTTI Type Descriptor'
	DD	00H
	DB	'.?AVCUIElementSink@CTsfUiLessMode@@', 00H
data$r	ENDS
;	COMDAT ??_R4CUIElementSink@CTsfUiLessMode@@6BITfUIElementSink@@@
rdata$r	SEGMENT
??_R4CUIElementSink@CTsfUiLessMode@@6BITfUIElementSink@@@ DD 00H ; CTsfUiLessMode::CUIElementSink::`RTTI Complete Object Locator'
	DD	00H
	DD	00H
	DD	FLAT:??_R0?AVCUIElementSink@CTsfUiLessMode@@@8
	DD	FLAT:??_R3CUIElementSink@CTsfUiLessMode@@8
rdata$r	ENDS
;	COMDAT ??_R1A@?0A@EA@ITfUIElementSink@@8
rdata$r	SEGMENT
??_R1A@?0A@EA@ITfUIElementSink@@8 DD FLAT:??_R0?AUITfUIElementSink@@@8 ; ITfUIElementSink::`RTTI Base Class Descriptor at (0,-1,0,64)'
	DD	01H
	DD	00H
	DD	0ffffffffH
	DD	00H
	DD	040H
	DD	FLAT:??_R3ITfUIElementSink@@8
rdata$r	ENDS
;	COMDAT ??_R2ITfUIElementSink@@8
rdata$r	SEGMENT
??_R2ITfUIElementSink@@8 DD FLAT:??_R1A@?0A@EA@ITfUIElementSink@@8 ; ITfUIElementSink::`RTTI Base Class Array'
	DD	FLAT:??_R1A@?0A@EA@IUnknown@@8
rdata$r	ENDS
;	COMDAT ??_R3ITfUIElementSink@@8
rdata$r	SEGMENT
??_R3ITfUIElementSink@@8 DD 00H				; ITfUIElementSink::`RTTI Class Hierarchy Descriptor'
	DD	00H
	DD	02H
	DD	FLAT:??_R2ITfUIElementSink@@8
rdata$r	ENDS
;	COMDAT ??_R0?AUITfUIElementSink@@@8
data$r	SEGMENT
??_R0?AUITfUIElementSink@@@8 DD FLAT:??_7type_info@@6B@	; ITfUIElementSink `RTTI Type Descriptor'
	DD	00H
	DB	'.?AUITfUIElementSink@@', 00H
data$r	ENDS
;	COMDAT ??_R1A@?0A@EA@ITfInputProcessorProfileActivationSink@@8
rdata$r	SEGMENT
??_R1A@?0A@EA@ITfInputProcessorProfileActivationSink@@8 DD FLAT:??_R0?AUITfInputProcessorProfileActivationSink@@@8 ; ITfInputProcessorProfileActivationSink::`RTTI Base Class Descriptor at (0,-1,0,64)'
	DD	01H
	DD	00H
	DD	0ffffffffH
	DD	00H
	DD	040H
	DD	FLAT:??_R3ITfInputProcessorProfileActivationSink@@8
rdata$r	ENDS
;	COMDAT ??_R2ITfInputProcessorProfileActivationSink@@8
rdata$r	SEGMENT
??_R2ITfInputProcessorProfileActivationSink@@8 DD FLAT:??_R1A@?0A@EA@ITfInputProcessorProfileActivationSink@@8 ; ITfInputProcessorProfileActivationSink::`RTTI Base Class Array'
	DD	FLAT:??_R1A@?0A@EA@IUnknown@@8
rdata$r	ENDS
;	COMDAT ??_R3ITfInputProcessorProfileActivationSink@@8
rdata$r	SEGMENT
??_R3ITfInputProcessorProfileActivationSink@@8 DD 00H	; ITfInputProcessorProfileActivationSink::`RTTI Class Hierarchy Descriptor'
	DD	00H
	DD	02H
	DD	FLAT:??_R2ITfInputProcessorProfileActivationSink@@8
rdata$r	ENDS
;	COMDAT ??_R0?AUITfInputProcessorProfileActivationSink@@@8
data$r	SEGMENT
??_R0?AUITfInputProcessorProfileActivationSink@@@8 DD FLAT:??_7type_info@@6B@ ; ITfInputProcessorProfileActivationSink `RTTI Type Descriptor'
	DD	00H
	DB	'.?AUITfInputProcessorProfileActivationSink@@', 00H
data$r	ENDS
;	COMDAT ??_R1A@?0A@EA@ITfCompartmentEventSink@@8
rdata$r	SEGMENT
??_R1A@?0A@EA@ITfCompartmentEventSink@@8 DD FLAT:??_R0?AUITfCompartmentEventSink@@@8 ; ITfCompartmentEventSink::`RTTI Base Class Descriptor at (0,-1,0,64)'
	DD	01H
	DD	00H
	DD	0ffffffffH
	DD	00H
	DD	040H
	DD	FLAT:??_R3ITfCompartmentEventSink@@8
rdata$r	ENDS
;	COMDAT ??_R2ITfCompartmentEventSink@@8
rdata$r	SEGMENT
??_R2ITfCompartmentEventSink@@8 DD FLAT:??_R1A@?0A@EA@ITfCompartmentEventSink@@8 ; ITfCompartmentEventSink::`RTTI Base Class Array'
	DD	FLAT:??_R1A@?0A@EA@IUnknown@@8
rdata$r	ENDS
;	COMDAT ??_R3ITfCompartmentEventSink@@8
rdata$r	SEGMENT
??_R3ITfCompartmentEventSink@@8 DD 00H			; ITfCompartmentEventSink::`RTTI Class Hierarchy Descriptor'
	DD	00H
	DD	02H
	DD	FLAT:??_R2ITfCompartmentEventSink@@8
rdata$r	ENDS
;	COMDAT ??_R0?AUITfCompartmentEventSink@@@8
data$r	SEGMENT
??_R0?AUITfCompartmentEventSink@@@8 DD FLAT:??_7type_info@@6B@ ; ITfCompartmentEventSink `RTTI Type Descriptor'
	DD	00H
	DB	'.?AUITfCompartmentEventSink@@', 00H
data$r	ENDS
;	COMDAT ??_R1A@?0A@EA@CIME@@8
rdata$r	SEGMENT
??_R1A@?0A@EA@CIME@@8 DD FLAT:??_R0?AVCIME@@@8		; CIME::`RTTI Base Class Descriptor at (0,-1,0,64)'
	DD	00H
	DD	00H
	DD	0ffffffffH
	DD	00H
	DD	040H
	DD	FLAT:??_R3CIME@@8
rdata$r	ENDS
;	COMDAT ??_R2CIME@@8
rdata$r	SEGMENT
??_R2CIME@@8 DD	FLAT:??_R1A@?0A@EA@CIME@@8		; CIME::`RTTI Base Class Array'
rdata$r	ENDS
;	COMDAT ??_R3CIME@@8
rdata$r	SEGMENT
??_R3CIME@@8 DD	00H					; CIME::`RTTI Class Hierarchy Descriptor'
	DD	00H
	DD	01H
	DD	FLAT:??_R2CIME@@8
rdata$r	ENDS
;	COMDAT ??_R0?AVCIME@@@8
data$r	SEGMENT
??_R0?AVCIME@@@8 DD FLAT:??_7type_info@@6B@		; CIME `RTTI Type Descriptor'
	DD	00H
	DB	'.?AVCIME@@', 00H
data$r	ENDS
;	COMDAT ??_R4CIME@@6B@
rdata$r	SEGMENT
??_R4CIME@@6B@ DD 00H					; CIME::`RTTI Complete Object Locator'
	DD	00H
	DD	00H
	DD	FLAT:??_R0?AVCIME@@@8
	DD	FLAT:??_R3CIME@@8
rdata$r	ENDS
;	COMDAT ??_R1A@?0A@EA@IUnknown@@8
rdata$r	SEGMENT
??_R1A@?0A@EA@IUnknown@@8 DD FLAT:??_R0?AUIUnknown@@@8	; IUnknown::`RTTI Base Class Descriptor at (0,-1,0,64)'
	DD	00H
	DD	00H
	DD	0ffffffffH
	DD	00H
	DD	040H
	DD	FLAT:??_R3IUnknown@@8
rdata$r	ENDS
;	COMDAT ??_R2IUnknown@@8
rdata$r	SEGMENT
??_R2IUnknown@@8 DD FLAT:??_R1A@?0A@EA@IUnknown@@8	; IUnknown::`RTTI Base Class Array'
rdata$r	ENDS
;	COMDAT ??_R3IUnknown@@8
rdata$r	SEGMENT
??_R3IUnknown@@8 DD 00H					; IUnknown::`RTTI Class Hierarchy Descriptor'
	DD	00H
	DD	01H
	DD	FLAT:??_R2IUnknown@@8
rdata$r	ENDS
;	COMDAT ??_R0?AUIUnknown@@@8
data$r	SEGMENT
??_R0?AUIUnknown@@@8 DD FLAT:??_7type_info@@6B@		; IUnknown `RTTI Type Descriptor'
	DD	00H
	DB	'.?AUIUnknown@@', 00H
data$r	ENDS
;	COMDAT ??_C@_0BA@FOIKENOD@vector?5too?5long@
CONST	SEGMENT
??_C@_0BA@FOIKENOD@vector?5too?5long@ DB 'vector too long', 00H ; `string'
CONST	ENDS
;	COMDAT ?_GUID_COMPARTMENT_KEYBOARD_INPUTMODE_CONVERSION@?1??GetCompartments@CTsfUiLessMode@@KAHPAPAUITfCompartmentMgr@@PAPAUITfCompartment@@1@Z@4U_GUID@@A
_DATA	SEGMENT
?_GUID_COMPARTMENT_KEYBOARD_INPUTMODE_CONVERSION@?1??GetCompartments@CTsfUiLessMode@@KAHPAPAUITfCompartmentMgr@@PAPAUITfCompartment@@1@Z@4U_GUID@@A DD 0ccf05dd8H ; `CTsfUiLessMode::GetCompartments'::`2'::_GUID_COMPARTMENT_KEYBOARD_INPUTMODE_CONVERSION
	DW	04a87H
	DW	011d7H
	DB	0a6H
	DB	0e2H
	DB	00H
	DB	06H
	DB	05bH
	DB	084H
	DB	043H
	DB	05cH
_DATA	ENDS
;	COMDAT __GUID_71c6e74c_0f28_11d8_a82a_00065b84435c
CONST	SEGMENT
__GUID_71c6e74c_0f28_11d8_a82a_00065b84435c DD 071c6e74cH
	DW	0f28H
	DW	011d8H
	DB	0a8H
	DB	02aH
	DB	00H
	DB	06H
	DB	05bH
	DB	084H
	DB	043H
	DB	05cH
CONST	ENDS
;	COMDAT __GUID_1f02b6c5_7842_4ee6_8a0b_9a24183a95ca
CONST	SEGMENT
__GUID_1f02b6c5_7842_4ee6_8a0b_9a24183a95ca DD 01f02b6c5H
	DW	07842H
	DW	04ee6H
	DB	08aH
	DB	0bH
	DB	09aH
	DB	024H
	DB	018H
	DB	03aH
	DB	095H
	DB	0caH
CONST	ENDS
;	COMDAT __GUID_ea1ea135_19df_11d7_a6d2_00065b84435c
CONST	SEGMENT
__GUID_ea1ea135_19df_11d7_a6d2_00065b84435c DD 0ea1ea135H
	DW	019dfH
	DW	011d7H
	DB	0a6H
	DB	0d2H
	DB	00H
	DB	06H
	DB	05bH
	DB	084H
	DB	043H
	DB	05cH
CONST	ENDS
;	COMDAT ?TF_PROFILE_DAYI@?1??OnActivated@CUIElementSink@CTsfUiLessMode@@UAGJKGABU_GUID@@00PAUHKL__@@K@Z@4U4@A
_DATA	SEGMENT
?TF_PROFILE_DAYI@?1??OnActivated@CUIElementSink@CTsfUiLessMode@@UAGJKGABU_GUID@@00PAUHKL__@@K@Z@4U4@A DD 037b2c25H ; `CTsfUiLessMode::CUIElementSink::OnActivated'::`2'::TF_PROFILE_DAYI
	DW	0480cH
	DW	04d7fH
	DB	0b0H
	DB	027H
	DB	0d6H
	DB	0caH
	DB	06bH
	DB	069H
	DB	078H
	DB	08aH
_DATA	ENDS
;	COMDAT __GUID_ea1ea138_19df_11d7_a6d2_00065b84435c
CONST	SEGMENT
__GUID_ea1ea138_19df_11d7_a6d2_00065b84435c DD 0ea1ea138H
	DW	019dfH
	DW	011d7H
	DB	0a6H
	DB	0d2H
	DB	00H
	DB	06H
	DB	05bH
	DB	084H
	DB	043H
	DB	05cH
CONST	ENDS
;	COMDAT __GUID_ea1ea139_19df_11d7_a6d2_00065b84435c
CONST	SEGMENT
__GUID_ea1ea139_19df_11d7_a6d2_00065b84435c DD 0ea1ea139H
	DW	019dfH
	DW	011d7H
	DB	0a6H
	DB	0d2H
	DB	00H
	DB	06H
	DB	05bH
	DB	084H
	DB	043H
	DB	05cH
CONST	ENDS
;	COMDAT __GUID_743abd5f_f26d_48df_8cc5_238492419b64
CONST	SEGMENT
__GUID_743abd5f_f26d_48df_8cc5_238492419b64 DD 0743abd5fH
	DW	0f26dH
	DW	048dfH
	DB	08cH
	DB	0c5H
	DB	023H
	DB	084H
	DB	092H
	DB	041H
	DB	09bH
	DB	064H
CONST	ENDS
;	COMDAT __GUID_71c6e74e_0f28_11d8_a82a_00065b84435c
CONST	SEGMENT
__GUID_71c6e74e_0f28_11d8_a82a_00065b84435c DD 071c6e74eH
	DW	0f28H
	DW	011d8H
	DB	0a8H
	DB	02aH
	DB	00H
	DB	06H
	DB	05bH
	DB	084H
	DB	043H
	DB	05cH
CONST	ENDS
;	COMDAT __GUID_ea1ea136_19df_11d7_a6d2_00065b84435c
CONST	SEGMENT
__GUID_ea1ea136_19df_11d7_a6d2_00065b84435c DD 0ea1ea136H
	DW	019dfH
	DW	011d7H
	DB	0a6H
	DB	0d2H
	DB	00H
	DB	06H
	DB	05bH
	DB	084H
	DB	043H
	DB	05cH
CONST	ENDS
;	COMDAT __GUID_4ea48a35_60ae_446f_8fd6_e6a8d82459f7
CONST	SEGMENT
__GUID_4ea48a35_60ae_446f_8fd6_e6a8d82459f7 DD 04ea48a35H
	DW	060aeH
	DW	0446fH
	DB	08fH
	DB	0d6H
	DB	0e6H
	DB	0a8H
	DB	0d8H
	DB	024H
	DB	059H
	DB	0f7H
CONST	ENDS
;	COMDAT __GUID_3e90ade3_7594_4cb0_bb58_69628f5f458c
CONST	SEGMENT
__GUID_3e90ade3_7594_4cb0_bb58_69628f5f458c DD 03e90ade3H
	DW	07594H
	DW	04cb0H
	DB	0bbH
	DB	058H
	DB	069H
	DB	062H
	DB	08fH
	DB	05fH
	DB	045H
	DB	08cH
CONST	ENDS
;	COMDAT ?s_uPrevCodePage@?1??CheckInputLocale@CIME@@KAXXZ@4IA
_DATA	SEGMENT
?s_uPrevCodePage@?1??CheckInputLocale@CIME@@KAXXZ@4IA DD 0ffffH ; `CIME::CheckInputLocale'::`2'::s_uPrevCodePage
_DATA	ENDS
;	COMDAT ??_C@_0BC@MEELNKEC@ShowReadingWindow@
CONST	SEGMENT
??_C@_0BC@MEELNKEC@ShowReadingWindow@ DB 'ShowReadingWindow', 00H ; `string'
CONST	ENDS
;	COMDAT ??_C@_0BB@EOIFCLLM@GetReadingString@
CONST	SEGMENT
??_C@_0BB@EOIFCLLM@GetReadingString@ DB 'GetReadingString', 00H ; `string'
CONST	ENDS
;	COMDAT ??_C@_0BC@KLAKFCEJ@GOOGLEPINYIN2?4IME@
CONST	SEGMENT
??_C@_0BC@KLAKFCEJ@GOOGLEPINYIN2?4IME@ DB 'GOOGLEPINYIN2.IME', 00H ; `string'
CONST	ENDS
;	COMDAT ??_C@_0M@IPABOCGB@SOGOUPY?4IME@
CONST	SEGMENT
??_C@_0M@IPABOCGB@SOGOUPY?4IME@ DB 'SOGOUPY.IME', 00H	; `string'
CONST	ENDS
;	COMDAT ??_C@_0N@EMABPIGL@QQPINYIN?4IME@
CONST	SEGMENT
??_C@_0N@EMABPIGL@QQPINYIN?4IME@ DB 'QQPINYIN.IME', 00H	; `string'
CONST	ENDS
;	COMDAT ??_C@_0BB@KFOMJFEN@Keyboard?5Mapping@
CONST	SEGMENT
??_C@_0BB@KFOMJFEN@Keyboard?5Mapping@ DB 'Keyboard Mapping', 00H ; `string'
CONST	ENDS
;	COMDAT ??_C@_08LMKCILHO@TINTLGNT@
CONST	SEGMENT
??_C@_08LMKCILHO@TINTLGNT@ DB 'TINTLGNT', 00H		; `string'
CONST	ENDS
;	COMDAT ??_C@_07DEJAPC@MSTCIPH@
CONST	SEGMENT
??_C@_07DEJAPC@MSTCIPH@ DB 'MSTCIPH', 00H		; `string'
CONST	ENDS
;	COMDAT ??_C@_0CL@PCFEMFCF@software?2microsoft?2windows?2curr@
CONST	SEGMENT
??_C@_0CL@PCFEMFCF@software?2microsoft?2windows?2curr@ DB 'software\micro'
	DB	'soft\windows\currentversion\', 00H		; `string'
CONST	ENDS
;	COMDAT ??_C@_01KICIPPFI@?2@
CONST	SEGMENT
??_C@_01KICIPPFI@?2@ DB '\', 00H			; `string'
CONST	ENDS
;	COMDAT ??_C@_0N@ONOBNHOE@MSSCIPYA?4IME@
CONST	SEGMENT
??_C@_0N@ONOBNHOE@MSSCIPYA?4IME@ DB 'MSSCIPYA.IME', 00H	; `string'
CONST	ENDS
;	COMDAT ??_C@_0N@JFHOELJF@PINTLGNT?4IME@
CONST	SEGMENT
??_C@_0N@JFHOELJF@PINTLGNT?4IME@ DB 'PINTLGNT.IME', 00H	; `string'
CONST	ENDS
;	COMDAT ??_C@_0N@FHDFFBN@MSTCIPHA?4IME@
CONST	SEGMENT
??_C@_0N@FHDFFBN@MSTCIPHA?4IME@ DB 'MSTCIPHA.IME', 00H	; `string'
CONST	ENDS
;	COMDAT ??_C@_0N@JMLDIBIB@CINTLGNT?4IME@
CONST	SEGMENT
??_C@_0N@JMLDIBIB@CINTLGNT?4IME@ DB 'CINTLGNT.IME', 00H	; `string'
CONST	ENDS
;	COMDAT ??_C@_0N@FFMHCBAD@TINTLGNT?4IME@
CONST	SEGMENT
??_C@_0N@FFMHCBAD@TINTLGNT?4IME@ DB 'TINTLGNT.IME', 00H	; `string'
CONST	ENDS
;	COMDAT ??_C@_11LOCGONAA@@
CONST	SEGMENT
??_C@_11LOCGONAA@@ DB 00H, 00H				; `string'
CONST	ENDS
;	COMDAT ??_C@_05EFEJGKEJ@?$EA9999@
CONST	SEGMENT
??_C@_05EFEJGKEJ@?$EA9999@ DB '@9999', 00H		; `string'
CONST	ENDS
;	COMDAT ??_C@_05JKJMOPAK@?$EA?$CF04d@
CONST	SEGMENT
??_C@_05JKJMOPAK@?$EA?$CF04d@ DB '@%04d', 00H		; `string'
CONST	ENDS
;	COMDAT ??_C@_0BL@MBEANDFB@ImmDisableTextFrameService@
CONST	SEGMENT
??_C@_0BL@MBEANDFB@ImmDisableTextFrameService@ DB 'ImmDisableTextFrameSer'
	DB	'vice', 00H					; `string'
CONST	ENDS
;	COMDAT ??_C@_0O@GKKOACL@ImmUnlockIMCC@
CONST	SEGMENT
??_C@_0O@GKKOACL@ImmUnlockIMCC@ DB 'ImmUnlockIMCC', 00H	; `string'
CONST	ENDS
;	COMDAT ??_C@_0M@OKKMJOGM@ImmLockIMCC@
CONST	SEGMENT
??_C@_0M@OKKMJOGM@ImmLockIMCC@ DB 'ImmLockIMCC', 00H	; `string'
CONST	ENDS
;	COMDAT ??_C@_0N@PDIACEGP@ImmUnlockIMC@
CONST	SEGMENT
??_C@_0N@PDIACEGP@ImmUnlockIMC@ DB 'ImmUnlockIMC', 00H	; `string'
CONST	ENDS
;	COMDAT ??_C@_0L@JGAMEFKO@ImmLockIMC@
CONST	SEGMENT
??_C@_0L@JGAMEFKO@ImmLockIMC@ DB 'ImmLockIMC', 00H	; `string'
CONST	ENDS
;	COMDAT ??_C@_0L@LPOFADGE@?2imm32?4dll@
CONST	SEGMENT
??_C@_0L@LPOFADGE@?2imm32?4dll@ DB '\imm32.dll', 00H	; `string'
CONST	ENDS
;	COMDAT __GUID_aa80e801_2021_11d2_93e0_0060b067b86e
CONST	SEGMENT
__GUID_aa80e801_2021_11d2_93e0_0060b067b86e DD 0aa80e801H
	DW	02021H
	DW	011d2H
	DB	093H
	DB	0e0H
	DB	00H
	DB	060H
	DB	0b0H
	DB	067H
	DB	0b8H
	DB	06eH
CONST	ENDS
;	COMDAT ??_7CUIElementSink@CTsfUiLessMode@@6BITfCompartmentEventSink@@@
CONST	SEGMENT
??_7CUIElementSink@CTsfUiLessMode@@6BITfCompartmentEventSink@@@ DD FLAT:??_R4CUIElementSink@CTsfUiLessMode@@6BITfCompartmentEventSink@@@ ; CTsfUiLessMode::CUIElementSink::`vftable'
	DD	FLAT:?QueryInterface@CUIElementSink@CTsfUiLessMode@@W7AGJABU_GUID@@PAPAX@Z
	DD	FLAT:?AddRef@CUIElementSink@CTsfUiLessMode@@W7AGKXZ
	DD	FLAT:?Release@CUIElementSink@CTsfUiLessMode@@W7AGKXZ
	DD	FLAT:?OnChange@CUIElementSink@CTsfUiLessMode@@UAGJABU_GUID@@@Z
CONST	ENDS
;	COMDAT ??_7CUIElementSink@CTsfUiLessMode@@6BITfInputProcessorProfileActivationSink@@@
CONST	SEGMENT
??_7CUIElementSink@CTsfUiLessMode@@6BITfInputProcessorProfileActivationSink@@@ DD FLAT:??_R4CUIElementSink@CTsfUiLessMode@@6BITfInputProcessorProfileActivationSink@@@ ; CTsfUiLessMode::CUIElementSink::`vftable'
	DD	FLAT:?QueryInterface@CUIElementSink@CTsfUiLessMode@@W3AGJABU_GUID@@PAPAX@Z
	DD	FLAT:?AddRef@CUIElementSink@CTsfUiLessMode@@W3AGKXZ
	DD	FLAT:?Release@CUIElementSink@CTsfUiLessMode@@W3AGKXZ
	DD	FLAT:?OnActivated@CUIElementSink@CTsfUiLessMode@@UAGJKGABU_GUID@@00PAUHKL__@@K@Z
CONST	ENDS
;	COMDAT ??_7CUIElementSink@CTsfUiLessMode@@6BITfUIElementSink@@@
CONST	SEGMENT
??_7CUIElementSink@CTsfUiLessMode@@6BITfUIElementSink@@@ DD FLAT:??_R4CUIElementSink@CTsfUiLessMode@@6BITfUIElementSink@@@ ; CTsfUiLessMode::CUIElementSink::`vftable'
	DD	FLAT:?QueryInterface@CUIElementSink@CTsfUiLessMode@@UAGJABU_GUID@@PAPAX@Z
	DD	FLAT:?AddRef@CUIElementSink@CTsfUiLessMode@@UAGKXZ
	DD	FLAT:?Release@CUIElementSink@CTsfUiLessMode@@UAGKXZ
	DD	FLAT:?BeginUIElement@CUIElementSink@CTsfUiLessMode@@UAGJKPAH@Z
	DD	FLAT:?UpdateUIElement@CUIElementSink@CTsfUiLessMode@@UAGJK@Z
	DD	FLAT:?EndUIElement@CUIElementSink@CTsfUiLessMode@@UAGJK@Z
CONST	ENDS
;	COMDAT ??_7CIME@@6B@
CONST	SEGMENT
??_7CIME@@6B@ DD FLAT:??_R4CIME@@6B@			; CIME::`vftable'
	DD	FLAT:??_ECIME@@UAEPAXI@Z
CONST	ENDS
;	COMDAT ??_R1A@?0A@EA@bad_array_new_length@std@@8
rdata$r	SEGMENT
??_R1A@?0A@EA@bad_array_new_length@std@@8 DD FLAT:??_R0?AVbad_array_new_length@std@@@8 ; std::bad_array_new_length::`RTTI Base Class Descriptor at (0,-1,0,64)'
	DD	02H
	DD	00H
	DD	0ffffffffH
	DD	00H
	DD	040H
	DD	FLAT:??_R3bad_array_new_length@std@@8
rdata$r	ENDS
;	COMDAT ??_R2bad_array_new_length@std@@8
rdata$r	SEGMENT
??_R2bad_array_new_length@std@@8 DD FLAT:??_R1A@?0A@EA@bad_array_new_length@std@@8 ; std::bad_array_new_length::`RTTI Base Class Array'
	DD	FLAT:??_R1A@?0A@EA@bad_alloc@std@@8
	DD	FLAT:??_R1A@?0A@EA@exception@std@@8
rdata$r	ENDS
;	COMDAT ??_R3bad_array_new_length@std@@8
rdata$r	SEGMENT
??_R3bad_array_new_length@std@@8 DD 00H			; std::bad_array_new_length::`RTTI Class Hierarchy Descriptor'
	DD	00H
	DD	03H
	DD	FLAT:??_R2bad_array_new_length@std@@8
rdata$r	ENDS
;	COMDAT ??_R4bad_array_new_length@std@@6B@
rdata$r	SEGMENT
??_R4bad_array_new_length@std@@6B@ DD 00H		; std::bad_array_new_length::`RTTI Complete Object Locator'
	DD	00H
	DD	00H
	DD	FLAT:??_R0?AVbad_array_new_length@std@@@8
	DD	FLAT:??_R3bad_array_new_length@std@@8
rdata$r	ENDS
;	COMDAT ??_R1A@?0A@EA@bad_alloc@std@@8
rdata$r	SEGMENT
??_R1A@?0A@EA@bad_alloc@std@@8 DD FLAT:??_R0?AVbad_alloc@std@@@8 ; std::bad_alloc::`RTTI Base Class Descriptor at (0,-1,0,64)'
	DD	01H
	DD	00H
	DD	0ffffffffH
	DD	00H
	DD	040H
	DD	FLAT:??_R3bad_alloc@std@@8
rdata$r	ENDS
;	COMDAT ??_R2bad_alloc@std@@8
rdata$r	SEGMENT
??_R2bad_alloc@std@@8 DD FLAT:??_R1A@?0A@EA@bad_alloc@std@@8 ; std::bad_alloc::`RTTI Base Class Array'
	DD	FLAT:??_R1A@?0A@EA@exception@std@@8
rdata$r	ENDS
;	COMDAT ??_R3bad_alloc@std@@8
rdata$r	SEGMENT
??_R3bad_alloc@std@@8 DD 00H				; std::bad_alloc::`RTTI Class Hierarchy Descriptor'
	DD	00H
	DD	02H
	DD	FLAT:??_R2bad_alloc@std@@8
rdata$r	ENDS
;	COMDAT ??_R4bad_alloc@std@@6B@
rdata$r	SEGMENT
??_R4bad_alloc@std@@6B@ DD 00H				; std::bad_alloc::`RTTI Complete Object Locator'
	DD	00H
	DD	00H
	DD	FLAT:??_R0?AVbad_alloc@std@@@8
	DD	FLAT:??_R3bad_alloc@std@@8
rdata$r	ENDS
;	COMDAT ??_R1A@?0A@EA@exception@std@@8
rdata$r	SEGMENT
??_R1A@?0A@EA@exception@std@@8 DD FLAT:??_R0?AVexception@std@@@8 ; std::exception::`RTTI Base Class Descriptor at (0,-1,0,64)'
	DD	00H
	DD	00H
	DD	0ffffffffH
	DD	00H
	DD	040H
	DD	FLAT:??_R3exception@std@@8
rdata$r	ENDS
;	COMDAT ??_R2exception@std@@8
rdata$r	SEGMENT
??_R2exception@std@@8 DD FLAT:??_R1A@?0A@EA@exception@std@@8 ; std::exception::`RTTI Base Class Array'
rdata$r	ENDS
;	COMDAT ??_R3exception@std@@8
rdata$r	SEGMENT
??_R3exception@std@@8 DD 00H				; std::exception::`RTTI Class Hierarchy Descriptor'
	DD	00H
	DD	01H
	DD	FLAT:??_R2exception@std@@8
rdata$r	ENDS
;	COMDAT ??_R4exception@std@@6B@
rdata$r	SEGMENT
??_R4exception@std@@6B@ DD 00H				; std::exception::`RTTI Complete Object Locator'
	DD	00H
	DD	00H
	DD	FLAT:??_R0?AVexception@std@@@8
	DD	FLAT:??_R3exception@std@@8
rdata$r	ENDS
;	COMDAT ??_C@_0BA@JFNIOLAK@string?5too?5long@
CONST	SEGMENT
??_C@_0BA@JFNIOLAK@string?5too?5long@ DB 'string too long', 00H ; `string'
CONST	ENDS
;	COMDAT __CT??_R0?AVexception@std@@@8??0exception@std@@QAE@ABV01@@Z12
xdata$x	SEGMENT
__CT??_R0?AVexception@std@@@8??0exception@std@@QAE@ABV01@@Z12 DD 00H
	DD	FLAT:??_R0?AVexception@std@@@8
	DD	00H
	DD	0ffffffffH
	ORG $+4
	DD	0cH
	DD	FLAT:??0exception@std@@QAE@ABV01@@Z
xdata$x	ENDS
;	COMDAT ??_R0?AVexception@std@@@8
data$r	SEGMENT
??_R0?AVexception@std@@@8 DD FLAT:??_7type_info@@6B@	; std::exception `RTTI Type Descriptor'
	DD	00H
	DB	'.?AVexception@std@@', 00H
data$r	ENDS
;	COMDAT __CT??_R0?AVbad_alloc@std@@@8??0bad_alloc@std@@QAE@ABV01@@Z12
xdata$x	SEGMENT
__CT??_R0?AVbad_alloc@std@@@8??0bad_alloc@std@@QAE@ABV01@@Z12 DD 010H
	DD	FLAT:??_R0?AVbad_alloc@std@@@8
	DD	00H
	DD	0ffffffffH
	ORG $+4
	DD	0cH
	DD	FLAT:??0bad_alloc@std@@QAE@ABV01@@Z
xdata$x	ENDS
;	COMDAT ??_R0?AVbad_alloc@std@@@8
data$r	SEGMENT
??_R0?AVbad_alloc@std@@@8 DD FLAT:??_7type_info@@6B@	; std::bad_alloc `RTTI Type Descriptor'
	DD	00H
	DB	'.?AVbad_alloc@std@@', 00H
data$r	ENDS
;	COMDAT __CT??_R0?AVbad_array_new_length@std@@@8??0bad_array_new_length@std@@QAE@ABV01@@Z12
xdata$x	SEGMENT
__CT??_R0?AVbad_array_new_length@std@@@8??0bad_array_new_length@std@@QAE@ABV01@@Z12 DD 00H
	DD	FLAT:??_R0?AVbad_array_new_length@std@@@8
	DD	00H
	DD	0ffffffffH
	ORG $+4
	DD	0cH
	DD	FLAT:??0bad_array_new_length@std@@QAE@ABV01@@Z
xdata$x	ENDS
;	COMDAT ??_R0?AVbad_array_new_length@std@@@8
data$r	SEGMENT
??_R0?AVbad_array_new_length@std@@@8 DD FLAT:??_7type_info@@6B@ ; std::bad_array_new_length `RTTI Type Descriptor'
	DD	00H
	DB	'.?AVbad_array_new_length@std@@', 00H
data$r	ENDS
;	COMDAT __CTA3?AVbad_array_new_length@std@@
xdata$x	SEGMENT
__CTA3?AVbad_array_new_length@std@@ DD 03H
	DD	FLAT:__CT??_R0?AVbad_array_new_length@std@@@8??0bad_array_new_length@std@@QAE@ABV01@@Z12
	DD	FLAT:__CT??_R0?AVbad_alloc@std@@@8??0bad_alloc@std@@QAE@ABV01@@Z12
	DD	FLAT:__CT??_R0?AVexception@std@@@8??0exception@std@@QAE@ABV01@@Z12
xdata$x	ENDS
;	COMDAT __TI3?AVbad_array_new_length@std@@
xdata$x	SEGMENT
__TI3?AVbad_array_new_length@std@@ DD 00H
	DD	FLAT:??1bad_array_new_length@std@@UAE@XZ
	DD	00H
	DD	FLAT:__CTA3?AVbad_array_new_length@std@@
xdata$x	ENDS
;	COMDAT ??_C@_0BF@KINCDENJ@bad?5array?5new?5length@
CONST	SEGMENT
??_C@_0BF@KINCDENJ@bad?5array?5new?5length@ DB 'bad array new length', 00H ; `string'
CONST	ENDS
;	COMDAT ??_7bad_array_new_length@std@@6B@
CONST	SEGMENT
??_7bad_array_new_length@std@@6B@ DD FLAT:??_R4bad_array_new_length@std@@6B@ ; std::bad_array_new_length::`vftable'
	DD	FLAT:??_Ebad_array_new_length@std@@UAEPAXI@Z
	DD	FLAT:?what@exception@std@@UBEPBDXZ
CONST	ENDS
;	COMDAT ??_7bad_alloc@std@@6B@
CONST	SEGMENT
??_7bad_alloc@std@@6B@ DD FLAT:??_R4bad_alloc@std@@6B@	; std::bad_alloc::`vftable'
	DD	FLAT:??_Ebad_alloc@std@@UAEPAXI@Z
	DD	FLAT:?what@exception@std@@UBEPBDXZ
CONST	ENDS
;	COMDAT ??_C@_0BC@EOODALEL@Unknown?5exception@
CONST	SEGMENT
??_C@_0BC@EOODALEL@Unknown?5exception@ DB 'Unknown exception', 00H ; `string'
CONST	ENDS
;	COMDAT ??_7exception@std@@6B@
CONST	SEGMENT
??_7exception@std@@6B@ DD FLAT:??_R4exception@std@@6B@	; std::exception::`vftable'
	DD	FLAT:??_Eexception@std@@UAEPAXI@Z
	DD	FLAT:?what@exception@std@@UBEPBDXZ
CONST	ENDS
;	COMDAT xdata$x
xdata$x	SEGMENT
__unwindtable$??__Fg_disableCicero@@YAXXZ DD 0ffffffffH
	DD	FLAT:___std_terminate
__ehfuncinfo$??__Fg_disableCicero@@YAXXZ DD 019930522H
	DD	01H
	DD	FLAT:__unwindtable$??__Fg_disableCicero@@YAXXZ
	DD	2 DUP(00H)
	DD	2 DUP(00H)
	DD	00H
	DD	01H
xdata$x	ENDS
;	COMDAT xdata$x
xdata$x	SEGMENT
__ehfuncinfo$??1CDisableCicero@@QAE@XZ DD 019930522H
	DD	00H
	DD	00H
	DD	2 DUP(00H)
	DD	2 DUP(00H)
	DD	00H
	DD	05H
xdata$x	ENDS
;	COMDAT xdata$x
xdata$x	SEGMENT
__unwindtable$?IsMax@CIME@@IAE_NPB_WH@Z DD 0ffffffffH
	DD	FLAT:__unwindfunclet$?IsMax@CIME@@IAE_NPB_WH@Z$0
__ehfuncinfo$?IsMax@CIME@@IAE_NPB_WH@Z DD 019930522H
	DD	01H
	DD	FLAT:__unwindtable$?IsMax@CIME@@IAE_NPB_WH@Z
	DD	2 DUP(00H)
	DD	2 DUP(00H)
	DD	00H
	DD	01H
xdata$x	ENDS
;	COMDAT xdata$x
xdata$x	SEGMENT
__unwindtable$?CandidateProcess@CIME@@IAEXPAUHIMC__@@@Z DD 0ffffffffH
	DD	FLAT:__unwindfunclet$?CandidateProcess@CIME@@IAEXPAUHIMC__@@@Z$0
__ehfuncinfo$?CandidateProcess@CIME@@IAEXPAUHIMC__@@@Z DD 019930522H
	DD	01H
	DD	FLAT:__unwindtable$?CandidateProcess@CIME@@IAEXPAUHIMC__@@@Z
	DD	2 DUP(00H)
	DD	2 DUP(00H)
	DD	00H
	DD	01H
xdata$x	ENDS
;	COMDAT xdata$x
xdata$x	SEGMENT
__unwindtable$?PasteTextFromClipBoard@CIME@@QAEXXZ DD 0ffffffffH
	DD	FLAT:__unwindfunclet$?PasteTextFromClipBoard@CIME@@QAEXXZ$0
__ehfuncinfo$?PasteTextFromClipBoard@CIME@@QAEXXZ DD 019930522H
	DD	01H
	DD	FLAT:__unwindtable$?PasteTextFromClipBoard@CIME@@QAEXXZ
	DD	2 DUP(00H)
	DD	2 DUP(00H)
	DD	00H
	DD	01H
xdata$x	ENDS
CRT$XCU	SEGMENT
?g_disableCicero$initializer$@@3P6AXXZA DD FLAT:??__Eg_disableCicero@@YAXXZ ; g_disableCicero$initializer$
CRT$XCU	ENDS
; Function compile flags: /Odsp
;	COMDAT ?Release@CUIElementSink@CTsfUiLessMode@@W7AGKXZ
_TEXT	SEGMENT
?Release@CUIElementSink@CTsfUiLessMode@@W7AGKXZ PROC	; [thunk]:CTsfUiLessMode::CUIElementSink::Release`adjustor{8}', COMDAT
  00000	83 6c 24 04 08	 sub	 DWORD PTR [esp+4], 8
  00005	e9 00 00 00 00	 jmp	 ?Release@CUIElementSink@CTsfUiLessMode@@UAGKXZ ; CTsfUiLessMode::CUIElementSink::Release
?Release@CUIElementSink@CTsfUiLessMode@@W7AGKXZ ENDP	; [thunk]:CTsfUiLessMode::CUIElementSink::Release`adjustor{8}'
_TEXT	ENDS
; Function compile flags: /Odsp
;	COMDAT ?AddRef@CUIElementSink@CTsfUiLessMode@@W7AGKXZ
_TEXT	SEGMENT
?AddRef@CUIElementSink@CTsfUiLessMode@@W7AGKXZ PROC	; [thunk]:CTsfUiLessMode::CUIElementSink::AddRef`adjustor{8}', COMDAT
  00000	83 6c 24 04 08	 sub	 DWORD PTR [esp+4], 8
  00005	e9 00 00 00 00	 jmp	 ?AddRef@CUIElementSink@CTsfUiLessMode@@UAGKXZ ; CTsfUiLessMode::CUIElementSink::AddRef
?AddRef@CUIElementSink@CTsfUiLessMode@@W7AGKXZ ENDP	; [thunk]:CTsfUiLessMode::CUIElementSink::AddRef`adjustor{8}'
_TEXT	ENDS
; Function compile flags: /Odsp
;	COMDAT ?QueryInterface@CUIElementSink@CTsfUiLessMode@@W7AGJABU_GUID@@PAPAX@Z
_TEXT	SEGMENT
?QueryInterface@CUIElementSink@CTsfUiLessMode@@W7AGJABU_GUID@@PAPAX@Z PROC ; [thunk]:CTsfUiLessMode::CUIElementSink::QueryInterface`adjustor{8}', COMDAT
  00000	83 6c 24 04 08	 sub	 DWORD PTR [esp+4], 8
  00005	e9 00 00 00 00	 jmp	 ?QueryInterface@CUIElementSink@CTsfUiLessMode@@UAGJABU_GUID@@PAPAX@Z ; CTsfUiLessMode::CUIElementSink::QueryInterface
?QueryInterface@CUIElementSink@CTsfUiLessMode@@W7AGJABU_GUID@@PAPAX@Z ENDP ; [thunk]:CTsfUiLessMode::CUIElementSink::QueryInterface`adjustor{8}'
_TEXT	ENDS
; Function compile flags: /Odsp
;	COMDAT ?Release@CUIElementSink@CTsfUiLessMode@@W3AGKXZ
_TEXT	SEGMENT
?Release@CUIElementSink@CTsfUiLessMode@@W3AGKXZ PROC	; [thunk]:CTsfUiLessMode::CUIElementSink::Release`adjustor{4}', COMDAT
  00000	83 6c 24 04 04	 sub	 DWORD PTR [esp+4], 4
  00005	e9 00 00 00 00	 jmp	 ?Release@CUIElementSink@CTsfUiLessMode@@UAGKXZ ; CTsfUiLessMode::CUIElementSink::Release
?Release@CUIElementSink@CTsfUiLessMode@@W3AGKXZ ENDP	; [thunk]:CTsfUiLessMode::CUIElementSink::Release`adjustor{4}'
_TEXT	ENDS
; Function compile flags: /Odsp
;	COMDAT ?AddRef@CUIElementSink@CTsfUiLessMode@@W3AGKXZ
_TEXT	SEGMENT
?AddRef@CUIElementSink@CTsfUiLessMode@@W3AGKXZ PROC	; [thunk]:CTsfUiLessMode::CUIElementSink::AddRef`adjustor{4}', COMDAT
  00000	83 6c 24 04 04	 sub	 DWORD PTR [esp+4], 4
  00005	e9 00 00 00 00	 jmp	 ?AddRef@CUIElementSink@CTsfUiLessMode@@UAGKXZ ; CTsfUiLessMode::CUIElementSink::AddRef
?AddRef@CUIElementSink@CTsfUiLessMode@@W3AGKXZ ENDP	; [thunk]:CTsfUiLessMode::CUIElementSink::AddRef`adjustor{4}'
_TEXT	ENDS
; Function compile flags: /Odsp
;	COMDAT ?QueryInterface@CUIElementSink@CTsfUiLessMode@@W3AGJABU_GUID@@PAPAX@Z
_TEXT	SEGMENT
?QueryInterface@CUIElementSink@CTsfUiLessMode@@W3AGJABU_GUID@@PAPAX@Z PROC ; [thunk]:CTsfUiLessMode::CUIElementSink::QueryInterface`adjustor{4}', COMDAT
  00000	83 6c 24 04 04	 sub	 DWORD PTR [esp+4], 4
  00005	e9 00 00 00 00	 jmp	 ?QueryInterface@CUIElementSink@CTsfUiLessMode@@UAGJABU_GUID@@PAPAX@Z ; CTsfUiLessMode::CUIElementSink::QueryInterface
?QueryInterface@CUIElementSink@CTsfUiLessMode@@W3AGJABU_GUID@@PAPAX@Z ENDP ; [thunk]:CTsfUiLessMode::CUIElementSink::QueryInterface`adjustor{4}'
_TEXT	ENDS
; Function compile flags: /Ogtp
; File C:\Program Files (x86)\Microsoft Visual Studio\2019\Community\VC\Tools\MSVC\14.27.29110\include\xutility
;	COMDAT ??$_Copy_memmove@PAEPAE@std@@YAPAEPAE00@Z
_TEXT	SEGMENT
__First$ = 8						; size = 4
__Last$ = 12						; size = 4
__Dest$ = 16						; size = 4
??$_Copy_memmove@PAEPAE@std@@YAPAEPAE00@Z PROC		; std::_Copy_memmove<unsigned char *,unsigned char *>, COMDAT

; 4113 : _OutIt _Copy_memmove(_InIt _First, _InIt _Last, _OutIt _Dest) {

  00000	55		 push	 ebp
  00001	8b ec		 mov	 ebp, esp

; 4114 :     const char* const _First_ch = const_cast<const char*>(reinterpret_cast<const volatile char*>(_First));
; 4115 :     const char* const _Last_ch  = const_cast<const char*>(reinterpret_cast<const volatile char*>(_Last));
; 4116 :     char* const _Dest_ch        = const_cast<char*>(reinterpret_cast<volatile char*>(_Dest));
; 4117 :     const auto _Count           = static_cast<size_t>(_Last_ch - _First_ch);

  00003	8b 45 08	 mov	 eax, DWORD PTR __First$[ebp]
  00006	56		 push	 esi

; 4118 :     _CSTD memmove(_Dest_ch, _First_ch, _Count);

  00007	8b 75 10	 mov	 esi, DWORD PTR __Dest$[ebp]
  0000a	57		 push	 edi
  0000b	8b 7d 0c	 mov	 edi, DWORD PTR __Last$[ebp]
  0000e	2b f8		 sub	 edi, eax
  00010	57		 push	 edi
  00011	50		 push	 eax
  00012	56		 push	 esi
  00013	e8 00 00 00 00	 call	 _memmove
  00018	83 c4 0c	 add	 esp, 12			; 0000000cH

; 4119 :     return reinterpret_cast<_OutIt>(_Dest_ch + _Count);

  0001b	8d 04 37	 lea	 eax, DWORD PTR [edi+esi]
  0001e	5f		 pop	 edi
  0001f	5e		 pop	 esi

; 4120 : }

  00020	5d		 pop	 ebp
  00021	c3		 ret	 0
??$_Copy_memmove@PAEPAE@std@@YAPAEPAE00@Z ENDP		; std::_Copy_memmove<unsigned char *,unsigned char *>
_TEXT	ENDS
; Function compile flags: /Ogtp
; File C:\Program Files (x86)\Microsoft Visual Studio\2019\Community\VC\Tools\MSVC\14.27.29110\include\xmemory
;	COMDAT ??$_Uninitialized_move@PAEV?$allocator@E@std@@@std@@YAPAEQAE0PAEAAV?$allocator@E@0@@Z
_TEXT	SEGMENT
__First$ = 8						; size = 4
__Last$ = 12						; size = 4
__Dest$ = 16						; size = 4
__Al$ = 20						; size = 4
??$_Uninitialized_move@PAEV?$allocator@E@std@@@std@@YAPAEQAE0PAEAAV?$allocator@E@0@@Z PROC ; std::_Uninitialized_move<unsigned char *,std::allocator<unsigned char> >, COMDAT

; 1647 :     const _InIt _First, const _InIt _Last, _Alloc_ptr_t<_Alloc> _Dest, _Alloc& _Al) {

  00000	55		 push	 ebp
  00001	8b ec		 mov	 ebp, esp
  00003	57		 push	 edi

; 1648 :     // move [_First, _Last) to raw _Dest, using _Al
; 1649 :     // note: only called internally from elsewhere in the STL
; 1650 :     using _Ptrval     = typename _Alloc::value_type*;
; 1651 :     auto _UFirst      = _Get_unwrapped(_First);
; 1652 :     const auto _ULast = _Get_unwrapped(_Last);
; 1653 :     if constexpr (conjunction_v<bool_constant<_Ptr_move_cat<decltype(_UFirst), _Ptrval>::_Really_trivial>,
; 1654 :                       _Uses_default_construct<_Alloc, _Ptrval, decltype(_STD move(*_UFirst))>>) {
; 1655 :         _Copy_memmove(_UFirst, _ULast, _Unfancy(_Dest));

  00004	ff 75 10	 push	 DWORD PTR __Dest$[ebp]
  00007	8b 7d 0c	 mov	 edi, DWORD PTR __Last$[ebp]
  0000a	57		 push	 edi
  0000b	ff 75 08	 push	 DWORD PTR __First$[ebp]
  0000e	e8 00 00 00 00	 call	 ??$_Copy_memmove@PAEPAE@std@@YAPAEPAE00@Z ; std::_Copy_memmove<unsigned char *,unsigned char *>

; 1656 :         return _Dest + (_ULast - _UFirst);

  00013	2b 7d 08	 sub	 edi, DWORD PTR __First$[ebp]
  00016	83 c4 0c	 add	 esp, 12			; 0000000cH
  00019	03 7d 10	 add	 edi, DWORD PTR __Dest$[ebp]
  0001c	8b c7		 mov	 eax, edi
  0001e	5f		 pop	 edi

; 1657 :     } else {
; 1658 :         _Uninitialized_backout_al<_Alloc> _Backout{_Dest, _Al};
; 1659 :         for (; _UFirst != _ULast; ++_UFirst) {
; 1660 :             _Backout._Emplace_back(_STD move(*_UFirst));
; 1661 :         }
; 1662 : 
; 1663 :         return _Backout._Release();
; 1664 :     }
; 1665 : }

  0001f	5d		 pop	 ebp
  00020	c3		 ret	 0
??$_Uninitialized_move@PAEV?$allocator@E@std@@@std@@YAPAEQAE0PAEAAV?$allocator@E@0@@Z ENDP ; std::_Uninitialized_move<unsigned char *,std::allocator<unsigned char> >
_TEXT	ENDS
; Function compile flags: /Ogtp
; File C:\Program Files (x86)\Microsoft Visual Studio\2019\Community\VC\Tools\MSVC\14.27.29110\include\xmemory
;	COMDAT ??$_Zero_range@PA_W@std@@YAPA_WQA_W0@Z
_TEXT	SEGMENT
__First$ = 8						; size = 4
__Last$ = 12						; size = 4
??$_Zero_range@PA_W@std@@YAPA_WQA_W0@Z PROC		; std::_Zero_range<wchar_t *>, COMDAT

; 1814 : _Ptr _Zero_range(const _Ptr _First, const _Ptr _Last) { // fill [_First, _Last) with zeroes

  00000	55		 push	 ebp
  00001	8b ec		 mov	 ebp, esp

; 1815 :     char* const _First_ch = reinterpret_cast<char*>(_First);
; 1816 :     char* const _Last_ch  = reinterpret_cast<char*>(_Last);
; 1817 :     _CSTD memset(_First_ch, 0, static_cast<size_t>(_Last_ch - _First_ch));

  00003	8b 55 08	 mov	 edx, DWORD PTR __First$[ebp]
  00006	8b 4d 0c	 mov	 ecx, DWORD PTR __Last$[ebp]
  00009	2b ca		 sub	 ecx, edx
  0000b	51		 push	 ecx
  0000c	6a 00		 push	 0
  0000e	52		 push	 edx
  0000f	e8 00 00 00 00	 call	 _memset

; 1818 :     return _Last;

  00014	8b 45 0c	 mov	 eax, DWORD PTR __Last$[ebp]
  00017	83 c4 0c	 add	 esp, 12			; 0000000cH

; 1819 : }

  0001a	5d		 pop	 ebp
  0001b	c3		 ret	 0
??$_Zero_range@PA_W@std@@YAPA_WQA_W0@Z ENDP		; std::_Zero_range<wchar_t *>
_TEXT	ENDS
; Function compile flags: /Ogtp
; File C:\Program Files (x86)\Microsoft Visual Studio\2019\Community\VC\Tools\MSVC\14.27.29110\include\xmemory
;	COMDAT ??$_Zero_range@PAE@std@@YAPAEQAE0@Z
_TEXT	SEGMENT
__First$ = 8						; size = 4
__Last$ = 12						; size = 4
??$_Zero_range@PAE@std@@YAPAEQAE0@Z PROC		; std::_Zero_range<unsigned char *>, COMDAT

; 1814 : _Ptr _Zero_range(const _Ptr _First, const _Ptr _Last) { // fill [_First, _Last) with zeroes

  00000	55		 push	 ebp
  00001	8b ec		 mov	 ebp, esp

; 1815 :     char* const _First_ch = reinterpret_cast<char*>(_First);
; 1816 :     char* const _Last_ch  = reinterpret_cast<char*>(_Last);
; 1817 :     _CSTD memset(_First_ch, 0, static_cast<size_t>(_Last_ch - _First_ch));

  00003	8b 55 08	 mov	 edx, DWORD PTR __First$[ebp]
  00006	8b 4d 0c	 mov	 ecx, DWORD PTR __Last$[ebp]
  00009	2b ca		 sub	 ecx, edx
  0000b	51		 push	 ecx
  0000c	6a 00		 push	 0
  0000e	52		 push	 edx
  0000f	e8 00 00 00 00	 call	 _memset

; 1818 :     return _Last;

  00014	8b 45 0c	 mov	 eax, DWORD PTR __Last$[ebp]
  00017	83 c4 0c	 add	 esp, 12			; 0000000cH

; 1819 : }

  0001a	5d		 pop	 ebp
  0001b	c3		 ret	 0
??$_Zero_range@PAE@std@@YAPAEQAE0@Z ENDP		; std::_Zero_range<unsigned char *>
_TEXT	ENDS
; Function compile flags: /Ogtp
; File C:\Program Files (x86)\Microsoft Visual Studio\2019\Community\VC\Tools\MSVC\14.27.29110\include\xmemory
;	COMDAT ??$_Refancy@PA_W$0A@@std@@YAPA_WPA_W@Z
_TEXT	SEGMENT
__Ptr$ = 8						; size = 4
??$_Refancy@PA_W$0A@@std@@YAPA_WPA_W@Z PROC		; std::_Refancy<wchar_t *,0>, COMDAT

; 261  : _Pointer _Refancy(_Pointer _Ptr) noexcept {

  00000	55		 push	 ebp
  00001	8b ec		 mov	 ebp, esp

; 262  :     return _Ptr;

  00003	8b 45 08	 mov	 eax, DWORD PTR __Ptr$[ebp]

; 263  : }

  00006	5d		 pop	 ebp
  00007	c3		 ret	 0
??$_Refancy@PA_W$0A@@std@@YAPA_WPA_W@Z ENDP		; std::_Refancy<wchar_t *,0>
_TEXT	ENDS
; Function compile flags: /Ogtp
; File C:\Program Files (x86)\Microsoft Visual Studio\2019\Community\VC\Tools\MSVC\14.27.29110\include\xutility
;	COMDAT ??$_Copy_memmove@PA_WPA_W@std@@YAPA_WPA_W00@Z
_TEXT	SEGMENT
__First$ = 8						; size = 4
__Last$ = 12						; size = 4
__Dest$ = 16						; size = 4
??$_Copy_memmove@PA_WPA_W@std@@YAPA_WPA_W00@Z PROC	; std::_Copy_memmove<wchar_t *,wchar_t *>, COMDAT

; 4113 : _OutIt _Copy_memmove(_InIt _First, _InIt _Last, _OutIt _Dest) {

  00000	55		 push	 ebp
  00001	8b ec		 mov	 ebp, esp

; 4114 :     const char* const _First_ch = const_cast<const char*>(reinterpret_cast<const volatile char*>(_First));
; 4115 :     const char* const _Last_ch  = const_cast<const char*>(reinterpret_cast<const volatile char*>(_Last));
; 4116 :     char* const _Dest_ch        = const_cast<char*>(reinterpret_cast<volatile char*>(_Dest));
; 4117 :     const auto _Count           = static_cast<size_t>(_Last_ch - _First_ch);

  00003	8b 45 08	 mov	 eax, DWORD PTR __First$[ebp]
  00006	56		 push	 esi

; 4118 :     _CSTD memmove(_Dest_ch, _First_ch, _Count);

  00007	8b 75 10	 mov	 esi, DWORD PTR __Dest$[ebp]
  0000a	57		 push	 edi
  0000b	8b 7d 0c	 mov	 edi, DWORD PTR __Last$[ebp]
  0000e	2b f8		 sub	 edi, eax
  00010	57		 push	 edi
  00011	50		 push	 eax
  00012	56		 push	 esi
  00013	e8 00 00 00 00	 call	 _memmove
  00018	83 c4 0c	 add	 esp, 12			; 0000000cH

; 4119 :     return reinterpret_cast<_OutIt>(_Dest_ch + _Count);

  0001b	8d 04 37	 lea	 eax, DWORD PTR [edi+esi]
  0001e	5f		 pop	 edi
  0001f	5e		 pop	 esi

; 4120 : }

  00020	5d		 pop	 ebp
  00021	c3		 ret	 0
??$_Copy_memmove@PA_WPA_W@std@@YAPA_WPA_W00@Z ENDP	; std::_Copy_memmove<wchar_t *,wchar_t *>
_TEXT	ENDS
; Function compile flags: /Ogtp
; File C:\Program Files (x86)\Microsoft Visual Studio\2019\Community\VC\Tools\MSVC\14.27.29110\include\xmemory
;	COMDAT ??$_Uninitialized_value_construct_n@V?$allocator@_W@std@@@std@@YAPA_WPA_WIAAV?$allocator@_W@0@@Z
_TEXT	SEGMENT
__First$ = 8						; size = 4
__Count$ = 12						; size = 4
__Al$ = 16						; size = 4
??$_Uninitialized_value_construct_n@V?$allocator@_W@std@@@std@@YAPA_WPA_WIAAV?$allocator@_W@0@@Z PROC ; std::_Uninitialized_value_construct_n<std::allocator<wchar_t> >, COMDAT

; 1824 :     _Alloc_ptr_t<_Alloc> _First, _Alloc_size_t<_Alloc> _Count, _Alloc& _Al) {

  00000	55		 push	 ebp
  00001	8b ec		 mov	 ebp, esp

; 1825 :     // value-initialize _Count objects to raw _First, using _Al
; 1826 :     using _Ptrty = typename _Alloc::value_type*;
; 1827 :     if constexpr (_Use_memset_value_construct_v<_Ptrty> && _Uses_default_construct<_Alloc, _Ptrty>::value) {
; 1828 :         auto _PFirst = _Unfancy(_First);
; 1829 :         _Zero_range(_PFirst, _PFirst + _Count);

  00003	8b 4d 08	 mov	 ecx, DWORD PTR __First$[ebp]
  00006	8b 45 0c	 mov	 eax, DWORD PTR __Count$[ebp]
  00009	56		 push	 esi
  0000a	8d 34 41	 lea	 esi, DWORD PTR [ecx+eax*2]
  0000d	56		 push	 esi
  0000e	51		 push	 ecx
  0000f	e8 00 00 00 00	 call	 ??$_Zero_range@PA_W@std@@YAPA_WQA_W0@Z ; std::_Zero_range<wchar_t *>
  00014	83 c4 08	 add	 esp, 8

; 1830 :         return _First + _Count;

  00017	8b c6		 mov	 eax, esi
  00019	5e		 pop	 esi

; 1831 :     } else {
; 1832 :         _Uninitialized_backout_al<_Alloc> _Backout{_First, _Al};
; 1833 :         for (; 0 < _Count; --_Count) {
; 1834 :             _Backout._Emplace_back();
; 1835 :         }
; 1836 : 
; 1837 :         return _Backout._Release();
; 1838 :     }
; 1839 : }

  0001a	5d		 pop	 ebp
  0001b	c3		 ret	 0
??$_Uninitialized_value_construct_n@V?$allocator@_W@std@@@std@@YAPA_WPA_WIAAV?$allocator@_W@0@@Z ENDP ; std::_Uninitialized_value_construct_n<std::allocator<wchar_t> >
_TEXT	ENDS
; Function compile flags: /Ogtp
; File C:\Program Files (x86)\Microsoft Visual Studio\2019\Community\VC\Tools\MSVC\14.27.29110\include\xmemory
;	COMDAT ??$_Uninitialized_move@PA_WV?$allocator@_W@std@@@std@@YAPA_WQA_W0PA_WAAV?$allocator@_W@0@@Z
_TEXT	SEGMENT
__First$ = 8						; size = 4
__Last$ = 12						; size = 4
__Dest$ = 16						; size = 4
__Al$ = 20						; size = 4
??$_Uninitialized_move@PA_WV?$allocator@_W@std@@@std@@YAPA_WQA_W0PA_WAAV?$allocator@_W@0@@Z PROC ; std::_Uninitialized_move<wchar_t *,std::allocator<wchar_t> >, COMDAT

; 1647 :     const _InIt _First, const _InIt _Last, _Alloc_ptr_t<_Alloc> _Dest, _Alloc& _Al) {

  00000	55		 push	 ebp
  00001	8b ec		 mov	 ebp, esp
  00003	53		 push	 ebx

; 1648 :     // move [_First, _Last) to raw _Dest, using _Al
; 1649 :     // note: only called internally from elsewhere in the STL
; 1650 :     using _Ptrval     = typename _Alloc::value_type*;
; 1651 :     auto _UFirst      = _Get_unwrapped(_First);
; 1652 :     const auto _ULast = _Get_unwrapped(_Last);
; 1653 :     if constexpr (conjunction_v<bool_constant<_Ptr_move_cat<decltype(_UFirst), _Ptrval>::_Really_trivial>,
; 1654 :                       _Uses_default_construct<_Alloc, _Ptrval, decltype(_STD move(*_UFirst))>>) {
; 1655 :         _Copy_memmove(_UFirst, _ULast, _Unfancy(_Dest));

  00004	8b 5d 10	 mov	 ebx, DWORD PTR __Dest$[ebp]
  00007	57		 push	 edi
  00008	8b 7d 0c	 mov	 edi, DWORD PTR __Last$[ebp]
  0000b	53		 push	 ebx
  0000c	57		 push	 edi
  0000d	ff 75 08	 push	 DWORD PTR __First$[ebp]
  00010	e8 00 00 00 00	 call	 ??$_Copy_memmove@PA_WPA_W@std@@YAPA_WPA_W00@Z ; std::_Copy_memmove<wchar_t *,wchar_t *>

; 1656 :         return _Dest + (_ULast - _UFirst);

  00015	2b 7d 08	 sub	 edi, DWORD PTR __First$[ebp]
  00018	83 c4 0c	 add	 esp, 12			; 0000000cH
  0001b	d1 ff		 sar	 edi, 1
  0001d	8d 04 7b	 lea	 eax, DWORD PTR [ebx+edi*2]
  00020	5f		 pop	 edi
  00021	5b		 pop	 ebx

; 1657 :     } else {
; 1658 :         _Uninitialized_backout_al<_Alloc> _Backout{_Dest, _Al};
; 1659 :         for (; _UFirst != _ULast; ++_UFirst) {
; 1660 :             _Backout._Emplace_back(_STD move(*_UFirst));
; 1661 :         }
; 1662 : 
; 1663 :         return _Backout._Release();
; 1664 :     }
; 1665 : }

  00022	5d		 pop	 ebp
  00023	c3		 ret	 0
??$_Uninitialized_move@PA_WV?$allocator@_W@std@@@std@@YAPA_WQA_W0PA_WAAV?$allocator@_W@0@@Z ENDP ; std::_Uninitialized_move<wchar_t *,std::allocator<wchar_t> >
_TEXT	ENDS
; Function compile flags: /Ogtp
; File C:\Program Files (x86)\Microsoft Visual Studio\2019\Community\VC\Tools\MSVC\14.27.29110\include\xmemory
;	COMDAT ??$_Uninitialized_value_construct_n@V?$allocator@E@std@@@std@@YAPAEPAEIAAV?$allocator@E@0@@Z
_TEXT	SEGMENT
__First$ = 8						; size = 4
__Count$ = 12						; size = 4
__Al$ = 16						; size = 4
??$_Uninitialized_value_construct_n@V?$allocator@E@std@@@std@@YAPAEPAEIAAV?$allocator@E@0@@Z PROC ; std::_Uninitialized_value_construct_n<std::allocator<unsigned char> >, COMDAT

; 1824 :     _Alloc_ptr_t<_Alloc> _First, _Alloc_size_t<_Alloc> _Count, _Alloc& _Al) {

  00000	55		 push	 ebp
  00001	8b ec		 mov	 ebp, esp

; 1825 :     // value-initialize _Count objects to raw _First, using _Al
; 1826 :     using _Ptrty = typename _Alloc::value_type*;
; 1827 :     if constexpr (_Use_memset_value_construct_v<_Ptrty> && _Uses_default_construct<_Alloc, _Ptrty>::value) {
; 1828 :         auto _PFirst = _Unfancy(_First);
; 1829 :         _Zero_range(_PFirst, _PFirst + _Count);

  00003	8b 4d 08	 mov	 ecx, DWORD PTR __First$[ebp]
  00006	56		 push	 esi
  00007	8b 75 0c	 mov	 esi, DWORD PTR __Count$[ebp]
  0000a	03 f1		 add	 esi, ecx
  0000c	56		 push	 esi
  0000d	51		 push	 ecx
  0000e	e8 00 00 00 00	 call	 ??$_Zero_range@PAE@std@@YAPAEQAE0@Z ; std::_Zero_range<unsigned char *>
  00013	83 c4 08	 add	 esp, 8

; 1830 :         return _First + _Count;

  00016	8b c6		 mov	 eax, esi
  00018	5e		 pop	 esi

; 1831 :     } else {
; 1832 :         _Uninitialized_backout_al<_Alloc> _Backout{_First, _Al};
; 1833 :         for (; 0 < _Count; --_Count) {
; 1834 :             _Backout._Emplace_back();
; 1835 :         }
; 1836 : 
; 1837 :         return _Backout._Release();
; 1838 :     }
; 1839 : }

  00019	5d		 pop	 ebp
  0001a	c3		 ret	 0
??$_Uninitialized_value_construct_n@V?$allocator@E@std@@@std@@YAPAEPAEIAAV?$allocator@E@0@@Z ENDP ; std::_Uninitialized_value_construct_n<std::allocator<unsigned char> >
_TEXT	ENDS
; Function compile flags: /Ogtp
; File C:\Program Files (x86)\Microsoft Visual Studio\2019\Community\VC\Tools\MSVC\14.27.29110\include\vector
; File C:\Program Files (x86)\Microsoft Visual Studio\2019\Community\VC\Tools\MSVC\14.27.29110\include\xmemory
; File C:\Program Files (x86)\Microsoft Visual Studio\2019\Community\VC\Tools\MSVC\14.27.29110\include\vector
; File C:\Program Files (x86)\Microsoft Visual Studio\2019\Community\VC\Tools\MSVC\14.27.29110\include\xmemory
; File C:\Program Files (x86)\Microsoft Visual Studio\2019\Community\VC\Tools\MSVC\14.27.29110\include\vector
; File C:\Program Files (x86)\Microsoft Visual Studio\2019\Community\VC\Tools\MSVC\14.27.29110\include\xmemory
; File C:\Program Files (x86)\Microsoft Visual Studio\2019\Community\VC\Tools\MSVC\14.27.29110\include\vector
; File C:\Program Files (x86)\Microsoft Visual Studio\2019\Community\VC\Tools\MSVC\14.27.29110\include\xmemory
; File C:\Program Files (x86)\Microsoft Visual Studio\2019\Community\VC\Tools\MSVC\14.27.29110\include\vector
;	COMDAT ??$_Resize_reallocate@U_Value_init_tag@std@@@?$vector@_WV?$allocator@_W@std@@@std@@AAEXIABU_Value_init_tag@1@@Z
_TEXT	SEGMENT
tv346 = -4						; size = 4
__Newvec$1$ = 8						; size = 4
__Newsize$ = 8						; size = 4
__Val$ = 12						; size = 4
??$_Resize_reallocate@U_Value_init_tag@std@@@?$vector@_WV?$allocator@_W@std@@@std@@AAEXIABU_Value_init_tag@1@@Z PROC ; std::vector<wchar_t,std::allocator<wchar_t> >::_Resize_reallocate<std::_Value_init_tag>, COMDAT
; _this$ = ecx

; 1182 :     void _Resize_reallocate(const size_type _Newsize, const _Ty2& _Val) {

  00000	55		 push	 ebp
  00001	8b ec		 mov	 ebp, esp
  00003	51		 push	 ecx
  00004	53		 push	 ebx
  00005	56		 push	 esi
  00006	57		 push	 edi

; 1183 :         if (_Newsize > max_size()) {

  00007	8b 7d 08	 mov	 edi, DWORD PTR __Newsize$[ebp]
  0000a	8b f1		 mov	 esi, ecx
  0000c	81 ff ff ff ff
	7f		 cmp	 edi, 2147483647		; 7fffffffH
  00012	0f 87 8f 00 00
	00		 ja	 $LN36@Resize_rea

; 1494 :         return static_cast<size_type>(_My_data._Myend - _My_data._Myfirst);

  00018	8b 4e 08	 mov	 ecx, DWORD PTR [esi+8]

; 1619 :         if (_Oldcapacity > max_size() - _Oldcapacity / 2) {

  0001b	b8 ff ff ff 7f	 mov	 eax, 2147483647		; 7fffffffH

; 1494 :         return static_cast<size_type>(_My_data._Myend - _My_data._Myfirst);

  00020	2b 0e		 sub	 ecx, DWORD PTR [esi]

; 1185 :         }
; 1186 : 
; 1187 :         auto& _My_data    = _Mypair._Myval2;
; 1188 :         pointer& _Myfirst = _My_data._Myfirst;
; 1189 :         pointer& _Mylast  = _My_data._Mylast;
; 1190 : 
; 1191 :         const auto _Oldsize          = static_cast<size_type>(_Mylast - _Myfirst);

  00022	8b 5e 04	 mov	 ebx, DWORD PTR [esi+4]
  00025	2b 1e		 sub	 ebx, DWORD PTR [esi]

; 1494 :         return static_cast<size_type>(_My_data._Myend - _My_data._Myfirst);

  00027	d1 f9		 sar	 ecx, 1

; 1619 :         if (_Oldcapacity > max_size() - _Oldcapacity / 2) {

  00029	8b d1		 mov	 edx, ecx

; 1185 :         }
; 1186 : 
; 1187 :         auto& _My_data    = _Mypair._Myval2;
; 1188 :         pointer& _Myfirst = _My_data._Myfirst;
; 1189 :         pointer& _Mylast  = _My_data._Mylast;
; 1190 : 
; 1191 :         const auto _Oldsize          = static_cast<size_type>(_Mylast - _Myfirst);

  0002b	d1 fb		 sar	 ebx, 1

; 1619 :         if (_Oldcapacity > max_size() - _Oldcapacity / 2) {

  0002d	d1 ea		 shr	 edx, 1
  0002f	2b c2		 sub	 eax, edx
  00031	3b c8		 cmp	 ecx, eax
  00033	77 10		 ja	 SHORT $LN34@Resize_rea

; 1620 :             return _Newsize; // geometric growth would overflow
; 1621 :         }
; 1622 : 
; 1623 :         const size_type _Geometric = _Oldcapacity + _Oldcapacity / 2;

  00035	8d 04 0a	 lea	 eax, DWORD PTR [edx+ecx]

; 1624 : 
; 1625 :         if (_Geometric < _Newsize) {

  00038	3b c7		 cmp	 eax, edi
  0003a	72 09		 jb	 SHORT $LN34@Resize_rea
; File C:\Program Files (x86)\Microsoft Visual Studio\2019\Community\VC\Tools\MSVC\14.27.29110\include\xmemory

; 60   :         if (_Count > _Max_possible) {

  0003c	3d ff ff ff 7f	 cmp	 eax, 2147483647		; 7fffffffH
  00041	77 69		 ja	 SHORT $LN37@Resize_rea
  00043	eb 02		 jmp	 SHORT $LN18@Resize_rea
$LN34@Resize_rea:

; 62   :         }
; 63   :     }
; 64   : 
; 65   :     return _Count * _Ty_size;

  00045	8b c7		 mov	 eax, edi
$LN18@Resize_rea:
  00047	03 c0		 add	 eax, eax

; 807  :         return static_cast<_Ty*>(_Allocate<_New_alignof<_Ty>>(_Get_size_of_n<sizeof(_Ty)>(_Count)));

  00049	50		 push	 eax

; 65   :     return _Count * _Ty_size;

  0004a	89 45 fc	 mov	 DWORD PTR tv346[ebp], eax

; 807  :         return static_cast<_Ty*>(_Allocate<_New_alignof<_Ty>>(_Get_size_of_n<sizeof(_Ty)>(_Count)));

  0004d	e8 00 00 00 00	 call	 ??$_Allocate@$07U_Default_allocate_traits@std@@$0A@@std@@YAPAXI@Z ; std::_Allocate<8,std::_Default_allocate_traits,0>
; File C:\Program Files (x86)\Microsoft Visual Studio\2019\Community\VC\Tools\MSVC\14.27.29110\include\vector

; 1199 :         _Appended_last = _Ufill(_Appended_first, _Newsize - _Oldsize, _Val);

  00052	8b cf		 mov	 ecx, edi
; File C:\Program Files (x86)\Microsoft Visual Studio\2019\Community\VC\Tools\MSVC\14.27.29110\include\xmemory

; 807  :         return static_cast<_Ty*>(_Allocate<_New_alignof<_Ty>>(_Get_size_of_n<sizeof(_Ty)>(_Count)));

  00054	89 45 08	 mov	 DWORD PTR __Newvec$1$[ebp], eax
; File C:\Program Files (x86)\Microsoft Visual Studio\2019\Community\VC\Tools\MSVC\14.27.29110\include\vector

; 1199 :         _Appended_last = _Ufill(_Appended_first, _Newsize - _Oldsize, _Val);

  00057	2b cb		 sub	 ecx, ebx

; 1583 :         return _Uninitialized_value_construct_n(_Dest, _Count, _Getal());

  00059	56		 push	 esi
  0005a	51		 push	 ecx

; 1192 :         const size_type _Newcapacity = _Calculate_growth(_Newsize);
; 1193 : 
; 1194 :         const pointer _Newvec         = _Getal().allocate(_Newcapacity);
; 1195 :         const pointer _Appended_first = _Newvec + _Oldsize;

  0005b	8d 0c 58	 lea	 ecx, DWORD PTR [eax+ebx*2]

; 1583 :         return _Uninitialized_value_construct_n(_Dest, _Count, _Getal());

  0005e	51		 push	 ecx
  0005f	e8 00 00 00 00	 call	 ??$_Uninitialized_value_construct_n@V?$allocator@_W@std@@@std@@YAPA_WPA_WIAAV?$allocator@_W@0@@Z ; std::_Uninitialized_value_construct_n<std::allocator<wchar_t> >

; 1597 :         _Uninitialized_move(_First, _Last, _Dest, _Getal());

  00064	8b 5d 08	 mov	 ebx, DWORD PTR __Newvec$1$[ebp]
  00067	56		 push	 esi
  00068	53		 push	 ebx
  00069	ff 76 04	 push	 DWORD PTR [esi+4]
  0006c	ff 36		 push	 DWORD PTR [esi]
  0006e	e8 00 00 00 00	 call	 ??$_Uninitialized_move@PA_WV?$allocator@_W@std@@@std@@YAPA_WQA_W0PA_WAAV?$allocator@_W@0@@Z ; std::_Uninitialized_move<wchar_t *,std::allocator<wchar_t> >

; 1675 :         if (_Myfirst) { // destroy and deallocate old array

  00073	8b 0e		 mov	 ecx, DWORD PTR [esi]

; 1597 :         _Uninitialized_move(_First, _Last, _Dest, _Getal());

  00075	83 c4 20	 add	 esp, 32			; 00000020H

; 1675 :         if (_Myfirst) { // destroy and deallocate old array

  00078	85 c9		 test	 ecx, ecx
  0007a	74 12		 je	 SHORT $LN29@Resize_rea

; 1676 :             _Destroy(_Myfirst, _Mylast);
; 1677 :             _Getal().deallocate(_Myfirst, static_cast<size_type>(_Myend - _Myfirst));

  0007c	8b 46 08	 mov	 eax, DWORD PTR [esi+8]
  0007f	2b c1		 sub	 eax, ecx
; File C:\Program Files (x86)\Microsoft Visual Studio\2019\Community\VC\Tools\MSVC\14.27.29110\include\xmemory

; 803  :         _Deallocate<_New_alignof<_Ty>>(_Ptr, sizeof(_Ty) * _Count);

  00081	83 e0 fe	 and	 eax, -2			; fffffffeH
  00084	50		 push	 eax
  00085	51		 push	 ecx
  00086	e8 00 00 00 00	 call	 ??$_Deallocate@$07$0A@@std@@YAXPAXI@Z ; std::_Deallocate<8,0>
  0008b	83 c4 08	 add	 esp, 8
$LN29@Resize_rea:
; File C:\Program Files (x86)\Microsoft Visual Studio\2019\Community\VC\Tools\MSVC\14.27.29110\include\vector

; 1681 :         _Mylast  = _Newvec + _Newsize;

  0008e	8d 04 7b	 lea	 eax, DWORD PTR [ebx+edi*2]
  00091	89 1e		 mov	 DWORD PTR [esi], ebx
  00093	89 46 04	 mov	 DWORD PTR [esi+4], eax

; 1682 :         _Myend   = _Newvec + _Newcapacity;

  00096	8b 45 fc	 mov	 eax, DWORD PTR tv346[ebp]
  00099	03 c3		 add	 eax, ebx
  0009b	5f		 pop	 edi
  0009c	89 46 08	 mov	 DWORD PTR [esi+8], eax
  0009f	5e		 pop	 esi
  000a0	5b		 pop	 ebx

; 1208 :     }

  000a1	8b e5		 mov	 esp, ebp
  000a3	5d		 pop	 ebp
  000a4	c2 08 00	 ret	 8
$LN36@Resize_rea:

; 1184 :             _Xlength();

  000a7	e8 00 00 00 00	 call	 ?_Xlength@?$vector@_WV?$allocator@_W@std@@@std@@CAXXZ ; std::vector<wchar_t,std::allocator<wchar_t> >::_Xlength
$LN37@Resize_rea:
; File C:\Program Files (x86)\Microsoft Visual Studio\2019\Community\VC\Tools\MSVC\14.27.29110\include\xmemory

; 61   :             _Throw_bad_array_new_length(); // multiply overflow

  000ac	e8 00 00 00 00	 call	 ?_Throw_bad_array_new_length@std@@YAXXZ ; std::_Throw_bad_array_new_length
$LN33@Resize_rea:
  000b1	cc		 int	 3
??$_Resize_reallocate@U_Value_init_tag@std@@@?$vector@_WV?$allocator@_W@std@@@std@@AAEXIABU_Value_init_tag@1@@Z ENDP ; std::vector<wchar_t,std::allocator<wchar_t> >::_Resize_reallocate<std::_Value_init_tag>
_TEXT	ENDS
; Function compile flags: /Ogtp
; File C:\Program Files (x86)\Microsoft Visual Studio\2019\Community\VC\Tools\MSVC\14.27.29110\include\vector
; File C:\Program Files (x86)\Microsoft Visual Studio\2019\Community\VC\Tools\MSVC\14.27.29110\include\xmemory
; File C:\Program Files (x86)\Microsoft Visual Studio\2019\Community\VC\Tools\MSVC\14.27.29110\include\vector
; File C:\Program Files (x86)\Microsoft Visual Studio\2019\Community\VC\Tools\MSVC\14.27.29110\include\xmemory
; File C:\Program Files (x86)\Microsoft Visual Studio\2019\Community\VC\Tools\MSVC\14.27.29110\include\vector
;	COMDAT ??$_Resize_reallocate@U_Value_init_tag@std@@@?$vector@EV?$allocator@E@std@@@std@@AAEXIABU_Value_init_tag@1@@Z
_TEXT	SEGMENT
__Oldsize$1$ = -4					; size = 4
__Newvec$1$ = 8						; size = 4
__Newsize$ = 8						; size = 4
__Val$ = 12						; size = 4
??$_Resize_reallocate@U_Value_init_tag@std@@@?$vector@EV?$allocator@E@std@@@std@@AAEXIABU_Value_init_tag@1@@Z PROC ; std::vector<unsigned char,std::allocator<unsigned char> >::_Resize_reallocate<std::_Value_init_tag>, COMDAT
; _this$ = ecx

; 1182 :     void _Resize_reallocate(const size_type _Newsize, const _Ty2& _Val) {

  00000	55		 push	 ebp
  00001	8b ec		 mov	 ebp, esp
  00003	51		 push	 ecx
  00004	53		 push	 ebx
  00005	56		 push	 esi
  00006	57		 push	 edi

; 1183 :         if (_Newsize > max_size()) {

  00007	8b 7d 08	 mov	 edi, DWORD PTR __Newsize$[ebp]
  0000a	8b f1		 mov	 esi, ecx
  0000c	81 ff ff ff ff
	7f		 cmp	 edi, 2147483647		; 7fffffffH
  00012	0f 87 83 00 00
	00		 ja	 $LN30@Resize_rea

; 1185 :         }
; 1186 : 
; 1187 :         auto& _My_data    = _Mypair._Myval2;
; 1188 :         pointer& _Myfirst = _My_data._Myfirst;
; 1189 :         pointer& _Mylast  = _My_data._Mylast;
; 1190 : 
; 1191 :         const auto _Oldsize          = static_cast<size_type>(_Mylast - _Myfirst);

  00018	8b 4e 04	 mov	 ecx, DWORD PTR [esi+4]

; 1619 :         if (_Oldcapacity > max_size() - _Oldcapacity / 2) {

  0001b	b8 ff ff ff 7f	 mov	 eax, 2147483647		; 7fffffffH

; 1185 :         }
; 1186 : 
; 1187 :         auto& _My_data    = _Mypair._Myval2;
; 1188 :         pointer& _Myfirst = _My_data._Myfirst;
; 1189 :         pointer& _Mylast  = _My_data._Mylast;
; 1190 : 
; 1191 :         const auto _Oldsize          = static_cast<size_type>(_Mylast - _Myfirst);

  00020	2b 0e		 sub	 ecx, DWORD PTR [esi]
  00022	89 4d fc	 mov	 DWORD PTR __Oldsize$1$[ebp], ecx

; 1494 :         return static_cast<size_type>(_My_data._Myend - _My_data._Myfirst);

  00025	8b 4e 08	 mov	 ecx, DWORD PTR [esi+8]
  00028	2b 0e		 sub	 ecx, DWORD PTR [esi]

; 1619 :         if (_Oldcapacity > max_size() - _Oldcapacity / 2) {

  0002a	8b d1		 mov	 edx, ecx
  0002c	d1 ea		 shr	 edx, 1
  0002e	2b c2		 sub	 eax, edx
  00030	3b c8		 cmp	 ecx, eax
  00032	76 04		 jbe	 SHORT $LN10@Resize_rea

; 1620 :             return _Newsize; // geometric growth would overflow

  00034	8b df		 mov	 ebx, edi
  00036	eb 08		 jmp	 SHORT $LN11@Resize_rea
$LN10@Resize_rea:

; 1621 :         }
; 1622 : 
; 1623 :         const size_type _Geometric = _Oldcapacity + _Oldcapacity / 2;

  00038	8d 1c 0a	 lea	 ebx, DWORD PTR [edx+ecx]

; 1624 : 
; 1625 :         if (_Geometric < _Newsize) {

  0003b	3b df		 cmp	 ebx, edi
  0003d	0f 42 df	 cmovb	 ebx, edi
$LN11@Resize_rea:
; File C:\Program Files (x86)\Microsoft Visual Studio\2019\Community\VC\Tools\MSVC\14.27.29110\include\xmemory

; 807  :         return static_cast<_Ty*>(_Allocate<_New_alignof<_Ty>>(_Get_size_of_n<sizeof(_Ty)>(_Count)));

  00040	53		 push	 ebx
  00041	e8 00 00 00 00	 call	 ??$_Allocate@$07U_Default_allocate_traits@std@@$0A@@std@@YAPAXI@Z ; std::_Allocate<8,std::_Default_allocate_traits,0>
; File C:\Program Files (x86)\Microsoft Visual Studio\2019\Community\VC\Tools\MSVC\14.27.29110\include\vector

; 1199 :         _Appended_last = _Ufill(_Appended_first, _Newsize - _Oldsize, _Val);

  00046	8b 55 fc	 mov	 edx, DWORD PTR __Oldsize$1$[ebp]
  00049	8b cf		 mov	 ecx, edi
  0004b	2b ca		 sub	 ecx, edx
  0004d	89 45 08	 mov	 DWORD PTR __Newvec$1$[ebp], eax

; 1583 :         return _Uninitialized_value_construct_n(_Dest, _Count, _Getal());

  00050	56		 push	 esi
  00051	51		 push	 ecx

; 1192 :         const size_type _Newcapacity = _Calculate_growth(_Newsize);
; 1193 : 
; 1194 :         const pointer _Newvec         = _Getal().allocate(_Newcapacity);
; 1195 :         const pointer _Appended_first = _Newvec + _Oldsize;

  00052	8d 0c 10	 lea	 ecx, DWORD PTR [eax+edx]

; 1583 :         return _Uninitialized_value_construct_n(_Dest, _Count, _Getal());

  00055	51		 push	 ecx
  00056	e8 00 00 00 00	 call	 ??$_Uninitialized_value_construct_n@V?$allocator@E@std@@@std@@YAPAEPAEIAAV?$allocator@E@0@@Z ; std::_Uninitialized_value_construct_n<std::allocator<unsigned char> >

; 1597 :         _Uninitialized_move(_First, _Last, _Dest, _Getal());

  0005b	56		 push	 esi
  0005c	ff 75 08	 push	 DWORD PTR __Newvec$1$[ebp]
  0005f	ff 76 04	 push	 DWORD PTR [esi+4]
  00062	ff 36		 push	 DWORD PTR [esi]
  00064	e8 00 00 00 00	 call	 ??$_Uninitialized_move@PAEV?$allocator@E@std@@@std@@YAPAEQAE0PAEAAV?$allocator@E@0@@Z ; std::_Uninitialized_move<unsigned char *,std::allocator<unsigned char> >

; 1675 :         if (_Myfirst) { // destroy and deallocate old array

  00069	8b 0e		 mov	 ecx, DWORD PTR [esi]

; 1597 :         _Uninitialized_move(_First, _Last, _Dest, _Getal());

  0006b	83 c4 20	 add	 esp, 32			; 00000020H

; 1675 :         if (_Myfirst) { // destroy and deallocate old array

  0006e	85 c9		 test	 ecx, ecx
  00070	74 0f		 je	 SHORT $LN24@Resize_rea

; 1676 :             _Destroy(_Myfirst, _Mylast);
; 1677 :             _Getal().deallocate(_Myfirst, static_cast<size_type>(_Myend - _Myfirst));

  00072	8b 46 08	 mov	 eax, DWORD PTR [esi+8]
  00075	2b c1		 sub	 eax, ecx
; File C:\Program Files (x86)\Microsoft Visual Studio\2019\Community\VC\Tools\MSVC\14.27.29110\include\xmemory

; 803  :         _Deallocate<_New_alignof<_Ty>>(_Ptr, sizeof(_Ty) * _Count);

  00077	50		 push	 eax
  00078	51		 push	 ecx
  00079	e8 00 00 00 00	 call	 ??$_Deallocate@$07$0A@@std@@YAXPAXI@Z ; std::_Deallocate<8,0>
  0007e	83 c4 08	 add	 esp, 8
$LN24@Resize_rea:
; File C:\Program Files (x86)\Microsoft Visual Studio\2019\Community\VC\Tools\MSVC\14.27.29110\include\vector

; 1680 :         _Myfirst = _Newvec;

  00081	8b 4d 08	 mov	 ecx, DWORD PTR __Newvec$1$[ebp]
  00084	89 0e		 mov	 DWORD PTR [esi], ecx

; 1681 :         _Mylast  = _Newvec + _Newsize;

  00086	8d 04 39	 lea	 eax, DWORD PTR [ecx+edi]
  00089	89 46 04	 mov	 DWORD PTR [esi+4], eax

; 1682 :         _Myend   = _Newvec + _Newcapacity;

  0008c	8d 04 19	 lea	 eax, DWORD PTR [ecx+ebx]
  0008f	5f		 pop	 edi
  00090	89 46 08	 mov	 DWORD PTR [esi+8], eax
  00093	5e		 pop	 esi
  00094	5b		 pop	 ebx

; 1200 :         _Umove_if_noexcept(_Myfirst, _Mylast, _Newvec);
; 1201 :         _CATCH_ALL
; 1202 :         _Destroy(_Appended_first, _Appended_last);
; 1203 :         _Getal().deallocate(_Newvec, _Newcapacity);
; 1204 :         _RERAISE;
; 1205 :         _CATCH_END
; 1206 : 
; 1207 :         _Change_array(_Newvec, _Newsize, _Newcapacity);
; 1208 :     }

  00095	8b e5		 mov	 esp, ebp
  00097	5d		 pop	 ebp
  00098	c2 08 00	 ret	 8
$LN30@Resize_rea:

; 1184 :             _Xlength();

  0009b	e8 00 00 00 00	 call	 ?_Xlength@?$vector@EV?$allocator@E@std@@@std@@CAXXZ ; std::vector<unsigned char,std::allocator<unsigned char> >::_Xlength
$LN28@Resize_rea:
  000a0	cc		 int	 3
??$_Resize_reallocate@U_Value_init_tag@std@@@?$vector@EV?$allocator@E@std@@@std@@AAEXIABU_Value_init_tag@1@@Z ENDP ; std::vector<unsigned char,std::allocator<unsigned char> >::_Resize_reallocate<std::_Value_init_tag>
_TEXT	ENDS
; Function compile flags: /Ogtp
; File C:\Program Files (x86)\Microsoft Visual Studio\2019\Community\VC\Tools\MSVC\14.27.29110\include\xmemory
;	COMDAT ??$_Destroy_range@V?$allocator@E@std@@@std@@YAXPAEQAEAAV?$allocator@E@0@@Z
_TEXT	SEGMENT
__First$ = 8						; size = 4
__Last$ = 12						; size = 4
__Al$ = 16						; size = 4
??$_Destroy_range@V?$allocator@E@std@@@std@@YAXPAEQAEAAV?$allocator@E@0@@Z PROC ; std::_Destroy_range<std::allocator<unsigned char> >, COMDAT

; 956  :     // note that this is an optimization for debug mode codegen; in release mode the BE removes all of this
; 957  :     using _Ty = typename _Alloc::value_type;
; 958  :     if _CONSTEXPR_IF (!conjunction_v<is_trivially_destructible<_Ty>, _Uses_default_destroy<_Alloc, _Ty*>>) {
; 959  :         for (; _First != _Last; ++_First) {
; 960  :             allocator_traits<_Alloc>::destroy(_Al, _Unfancy(_First));
; 961  :         }
; 962  :     }
; 963  : }

  00000	c2 00 00	 ret	 0
??$_Destroy_range@V?$allocator@E@std@@@std@@YAXPAEQAEAAV?$allocator@E@0@@Z ENDP ; std::_Destroy_range<std::allocator<unsigned char> >
_TEXT	ENDS
; Function compile flags: /Ogtp
; File C:\Program Files (x86)\Microsoft Visual Studio\2019\Community\VC\Tools\MSVC\14.27.29110\include\xmemory
;	COMDAT ??$_Destroy_range@V?$allocator@_W@std@@@std@@YAXPA_WQA_WAAV?$allocator@_W@0@@Z
_TEXT	SEGMENT
__First$ = 8						; size = 4
__Last$ = 12						; size = 4
__Al$ = 16						; size = 4
??$_Destroy_range@V?$allocator@_W@std@@@std@@YAXPA_WQA_WAAV?$allocator@_W@0@@Z PROC ; std::_Destroy_range<std::allocator<wchar_t> >, COMDAT

; 956  :     // note that this is an optimization for debug mode codegen; in release mode the BE removes all of this
; 957  :     using _Ty = typename _Alloc::value_type;
; 958  :     if _CONSTEXPR_IF (!conjunction_v<is_trivially_destructible<_Ty>, _Uses_default_destroy<_Alloc, _Ty*>>) {
; 959  :         for (; _First != _Last; ++_First) {
; 960  :             allocator_traits<_Alloc>::destroy(_Al, _Unfancy(_First));
; 961  :         }
; 962  :     }
; 963  : }

  00000	c2 00 00	 ret	 0
??$_Destroy_range@V?$allocator@_W@std@@@std@@YAXPA_WQA_WAAV?$allocator@_W@0@@Z ENDP ; std::_Destroy_range<std::allocator<wchar_t> >
_TEXT	ENDS
; Function compile flags: /Ogtp
; File C:\Program Files (x86)\Microsoft Visual Studio\2019\Community\VC\Tools\MSVC\14.27.29110\include\vector
; File C:\Program Files (x86)\Microsoft Visual Studio\2019\Community\VC\Tools\MSVC\14.27.29110\include\xmemory
; File C:\Program Files (x86)\Microsoft Visual Studio\2019\Community\VC\Tools\MSVC\14.27.29110\include\vector
; File C:\Program Files (x86)\Microsoft Visual Studio\2019\Community\VC\Tools\MSVC\14.27.29110\include\xmemory
; File C:\Program Files (x86)\Microsoft Visual Studio\2019\Community\VC\Tools\MSVC\14.27.29110\include\vector
; File C:\Program Files (x86)\Microsoft Visual Studio\2019\Community\VC\Tools\MSVC\14.27.29110\include\xmemory
; File C:\Program Files (x86)\Microsoft Visual Studio\2019\Community\VC\Tools\MSVC\14.27.29110\include\vector
; File C:\Program Files (x86)\Microsoft Visual Studio\2019\Community\VC\Tools\MSVC\14.27.29110\include\xmemory
; File C:\Program Files (x86)\Microsoft Visual Studio\2019\Community\VC\Tools\MSVC\14.27.29110\include\vector
; File C:\Program Files (x86)\Microsoft Visual Studio\2019\Community\VC\Tools\MSVC\14.27.29110\include\xmemory
; File C:\Program Files (x86)\Microsoft Visual Studio\2019\Community\VC\Tools\MSVC\14.27.29110\include\vector
;	COMDAT ??$_Emplace_reallocate@AB_W@?$vector@_WV?$allocator@_W@std@@@std@@QAEPA_WQA_WAB_W@Z
_TEXT	SEGMENT
tv436 = -12						; size = 4
__Newsize$1$ = -8					; size = 4
tv435 = -4						; size = 4
__Whereptr$ = 8						; size = 4
_<_Val_0>$ = 12						; size = 4
??$_Emplace_reallocate@AB_W@?$vector@_WV?$allocator@_W@std@@@std@@QAEPA_WQA_WAB_W@Z PROC ; std::vector<wchar_t,std::allocator<wchar_t> >::_Emplace_reallocate<wchar_t const &>, COMDAT
; _this$ = ecx

; 725  :     pointer _Emplace_reallocate(const pointer _Whereptr, _Valty&&... _Val) {

  00000	55		 push	 ebp
  00001	8b ec		 mov	 ebp, esp
  00003	83 ec 0c	 sub	 esp, 12			; 0000000cH
  00006	53		 push	 ebx

; 726  :         // reallocate and insert by perfectly forwarding _Val at _Whereptr
; 727  :         _Alty& _Al        = _Getal();
; 728  :         auto& _My_data    = _Mypair._Myval2;
; 729  :         pointer& _Myfirst = _My_data._Myfirst;
; 730  :         pointer& _Mylast  = _My_data._Mylast;
; 731  : 
; 732  :         _STL_INTERNAL_CHECK(_Mylast == _My_data._Myend); // check that we have no unused capacity
; 733  : 
; 734  :         const auto _Whereoff = static_cast<size_type>(_Whereptr - _Myfirst);

  00007	8b 5d 08	 mov	 ebx, DWORD PTR __Whereptr$[ebp]
  0000a	56		 push	 esi
  0000b	8b f1		 mov	 esi, ecx
  0000d	57		 push	 edi
  0000e	8b 16		 mov	 edx, DWORD PTR [esi]
  00010	2b da		 sub	 ebx, edx

; 735  :         const auto _Oldsize  = static_cast<size_type>(_Mylast - _Myfirst);

  00012	8b 46 04	 mov	 eax, DWORD PTR [esi+4]
  00015	2b c2		 sub	 eax, edx
  00017	d1 fb		 sar	 ebx, 1
  00019	d1 f8		 sar	 eax, 1

; 736  : 
; 737  :         if (_Oldsize == max_size()) {

  0001b	3d ff ff ff 7f	 cmp	 eax, 2147483647		; 7fffffffH
  00020	0f 84 be 00 00
	00		 je	 $LN39@Emplace_re

; 1494 :         return static_cast<size_type>(_My_data._Myend - _My_data._Myfirst);

  00026	8b 4e 08	 mov	 ecx, DWORD PTR [esi+8]

; 739  :         }
; 740  : 
; 741  :         const size_type _Newsize     = _Oldsize + 1;

  00029	8d 78 01	 lea	 edi, DWORD PTR [eax+1]

; 1494 :         return static_cast<size_type>(_My_data._Myend - _My_data._Myfirst);

  0002c	2b ca		 sub	 ecx, edx

; 739  :         }
; 740  : 
; 741  :         const size_type _Newsize     = _Oldsize + 1;

  0002e	89 7d f8	 mov	 DWORD PTR __Newsize$1$[ebp], edi

; 1494 :         return static_cast<size_type>(_My_data._Myend - _My_data._Myfirst);

  00031	d1 f9		 sar	 ecx, 1

; 1619 :         if (_Oldcapacity > max_size() - _Oldcapacity / 2) {

  00033	b8 ff ff ff 7f	 mov	 eax, 2147483647		; 7fffffffH
  00038	8b d1		 mov	 edx, ecx
  0003a	d1 ea		 shr	 edx, 1
  0003c	2b c2		 sub	 eax, edx
  0003e	3b c8		 cmp	 ecx, eax
  00040	76 04		 jbe	 SHORT $LN12@Emplace_re

; 1620 :             return _Newsize; // geometric growth would overflow

  00042	8b c7		 mov	 eax, edi
  00044	eb 08		 jmp	 SHORT $LN13@Emplace_re
$LN12@Emplace_re:

; 1621 :         }
; 1622 : 
; 1623 :         const size_type _Geometric = _Oldcapacity + _Oldcapacity / 2;

  00046	8d 04 0a	 lea	 eax, DWORD PTR [edx+ecx]

; 1624 : 
; 1625 :         if (_Geometric < _Newsize) {

  00049	3b c7		 cmp	 eax, edi
  0004b	0f 42 c7	 cmovb	 eax, edi
$LN13@Emplace_re:
; File C:\Program Files (x86)\Microsoft Visual Studio\2019\Community\VC\Tools\MSVC\14.27.29110\include\xmemory

; 60   :         if (_Count > _Max_possible) {

  0004e	3d ff ff ff 7f	 cmp	 eax, 2147483647		; 7fffffffH
  00053	0f 87 90 00 00
	00		 ja	 $LN40@Emplace_re

; 62   :         }
; 63   :     }
; 64   : 
; 65   :     return _Count * _Ty_size;

  00059	03 c0		 add	 eax, eax

; 807  :         return static_cast<_Ty*>(_Allocate<_New_alignof<_Ty>>(_Get_size_of_n<sizeof(_Ty)>(_Count)));

  0005b	50		 push	 eax

; 65   :     return _Count * _Ty_size;

  0005c	89 45 f4	 mov	 DWORD PTR tv436[ebp], eax

; 807  :         return static_cast<_Ty*>(_Allocate<_New_alignof<_Ty>>(_Get_size_of_n<sizeof(_Ty)>(_Count)));

  0005f	e8 00 00 00 00	 call	 ??$_Allocate@$07U_Default_allocate_traits@std@@$0A@@std@@YAPAXI@Z ; std::_Allocate<8,std::_Default_allocate_traits,0>
; File C:\Program Files (x86)\Microsoft Visual Studio\2019\Community\VC\Tools\MSVC\14.27.29110\include\vector

; 749  :         _Alty_traits::construct(_Al, _Unfancy(_Newvec + _Whereoff), _STD forward<_Valty>(_Val)...);

  00064	8b 4d 0c	 mov	 ecx, DWORD PTR _<_Val_0>$[ebp]
; File C:\Program Files (x86)\Microsoft Visual Studio\2019\Community\VC\Tools\MSVC\14.27.29110\include\xmemory

; 807  :         return static_cast<_Ty*>(_Allocate<_New_alignof<_Ty>>(_Get_size_of_n<sizeof(_Ty)>(_Count)));

  00067	8b f8		 mov	 edi, eax
; File C:\Program Files (x86)\Microsoft Visual Studio\2019\Community\VC\Tools\MSVC\14.27.29110\include\vector

; 749  :         _Alty_traits::construct(_Al, _Unfancy(_Newvec + _Whereoff), _STD forward<_Valty>(_Val)...);

  00069	8d 04 5f	 lea	 eax, DWORD PTR [edi+ebx*2]
; File C:\Program Files (x86)\Microsoft Visual Studio\2019\Community\VC\Tools\MSVC\14.27.29110\include\xmemory

; 807  :         return static_cast<_Ty*>(_Allocate<_New_alignof<_Ty>>(_Get_size_of_n<sizeof(_Ty)>(_Count)));

  0006c	83 c4 04	 add	 esp, 4
; File C:\Program Files (x86)\Microsoft Visual Studio\2019\Community\VC\Tools\MSVC\14.27.29110\include\vector

; 752  :         if (_Whereptr == _Mylast) { // at back, provide strong guarantee

  0006f	8b 5d 08	 mov	 ebx, DWORD PTR __Whereptr$[ebp]
  00072	89 45 fc	 mov	 DWORD PTR tv435[ebp], eax
  00075	66 8b 09	 mov	 cx, WORD PTR [ecx]
  00078	66 89 08	 mov	 WORD PTR [eax], cx
  0007b	8b 56 04	 mov	 edx, DWORD PTR [esi+4]
  0007e	8b 0e		 mov	 ecx, DWORD PTR [esi]
  00080	3b da		 cmp	 ebx, edx
  00082	75 07		 jne	 SHORT $LN4@Emplace_re

; 753  :             _Umove_if_noexcept(_Myfirst, _Mylast, _Newvec);
; 754  :         } else { // provide basic guarantee

  00084	8b 5d fc	 mov	 ebx, DWORD PTR tv435[ebp]

; 1597 :         _Uninitialized_move(_First, _Last, _Dest, _Getal());

  00087	8b c7		 mov	 eax, edi

; 753  :             _Umove_if_noexcept(_Myfirst, _Mylast, _Newvec);
; 754  :         } else { // provide basic guarantee

  00089	eb 17		 jmp	 SHORT $LN5@Emplace_re
$LN4@Emplace_re:

; 1592 :         return _Uninitialized_move(_First, _Last, _Dest, _Getal());

  0008b	56		 push	 esi
  0008c	57		 push	 edi
  0008d	53		 push	 ebx
  0008e	51		 push	 ecx
  0008f	e8 00 00 00 00	 call	 ??$_Uninitialized_move@PA_WV?$allocator@_W@std@@@std@@YAPA_WQA_W0PA_WAAV?$allocator@_W@0@@Z ; std::_Uninitialized_move<wchar_t *,std::allocator<wchar_t> >
  00094	8b 56 04	 mov	 edx, DWORD PTR [esi+4]
  00097	8b cb		 mov	 ecx, ebx

; 755  :             _Umove(_Myfirst, _Whereptr, _Newvec);
; 756  :             _Constructed_first = _Newvec;
; 757  :             _Umove(_Whereptr, _Mylast, _Newvec + _Whereoff + 1);

  00099	8b 5d fc	 mov	 ebx, DWORD PTR tv435[ebp]

; 1592 :         return _Uninitialized_move(_First, _Last, _Dest, _Getal());

  0009c	83 c4 10	 add	 esp, 16			; 00000010H

; 755  :             _Umove(_Myfirst, _Whereptr, _Newvec);
; 756  :             _Constructed_first = _Newvec;
; 757  :             _Umove(_Whereptr, _Mylast, _Newvec + _Whereoff + 1);

  0009f	8d 43 02	 lea	 eax, DWORD PTR [ebx+2]
$LN5@Emplace_re:
  000a2	56		 push	 esi
  000a3	50		 push	 eax
  000a4	52		 push	 edx
  000a5	51		 push	 ecx
  000a6	e8 00 00 00 00	 call	 ??$_Uninitialized_move@PA_WV?$allocator@_W@std@@@std@@YAPA_WQA_W0PA_WAAV?$allocator@_W@0@@Z ; std::_Uninitialized_move<wchar_t *,std::allocator<wchar_t> >

; 1675 :         if (_Myfirst) { // destroy and deallocate old array

  000ab	8b 0e		 mov	 ecx, DWORD PTR [esi]

; 755  :             _Umove(_Myfirst, _Whereptr, _Newvec);
; 756  :             _Constructed_first = _Newvec;
; 757  :             _Umove(_Whereptr, _Mylast, _Newvec + _Whereoff + 1);

  000ad	83 c4 10	 add	 esp, 16			; 00000010H

; 1675 :         if (_Myfirst) { // destroy and deallocate old array

  000b0	85 c9		 test	 ecx, ecx
  000b2	74 12		 je	 SHORT $LN33@Emplace_re

; 1676 :             _Destroy(_Myfirst, _Mylast);
; 1677 :             _Getal().deallocate(_Myfirst, static_cast<size_type>(_Myend - _Myfirst));

  000b4	8b 46 08	 mov	 eax, DWORD PTR [esi+8]
  000b7	2b c1		 sub	 eax, ecx
; File C:\Program Files (x86)\Microsoft Visual Studio\2019\Community\VC\Tools\MSVC\14.27.29110\include\xmemory

; 803  :         _Deallocate<_New_alignof<_Ty>>(_Ptr, sizeof(_Ty) * _Count);

  000b9	83 e0 fe	 and	 eax, -2			; fffffffeH
  000bc	50		 push	 eax
  000bd	51		 push	 ecx
  000be	e8 00 00 00 00	 call	 ??$_Deallocate@$07$0A@@std@@YAXPAXI@Z ; std::_Deallocate<8,0>
  000c3	83 c4 08	 add	 esp, 8
$LN33@Emplace_re:
; File C:\Program Files (x86)\Microsoft Visual Studio\2019\Community\VC\Tools\MSVC\14.27.29110\include\vector

; 1681 :         _Mylast  = _Newvec + _Newsize;

  000c6	8b 4d f8	 mov	 ecx, DWORD PTR __Newsize$1$[ebp]

; 758  :         }
; 759  :         _CATCH_ALL
; 760  :         _Destroy(_Constructed_first, _Constructed_last);
; 761  :         _Al.deallocate(_Newvec, _Newcapacity);
; 762  :         _RERAISE;
; 763  :         _CATCH_END
; 764  : 
; 765  :         _Change_array(_Newvec, _Newsize, _Newcapacity);
; 766  :         return _Newvec + _Whereoff;

  000c9	8b c3		 mov	 eax, ebx

; 1680 :         _Myfirst = _Newvec;

  000cb	89 3e		 mov	 DWORD PTR [esi], edi

; 1681 :         _Mylast  = _Newvec + _Newsize;

  000cd	8d 0c 4f	 lea	 ecx, DWORD PTR [edi+ecx*2]
  000d0	89 4e 04	 mov	 DWORD PTR [esi+4], ecx

; 1682 :         _Myend   = _Newvec + _Newcapacity;

  000d3	8b 4d f4	 mov	 ecx, DWORD PTR tv436[ebp]
  000d6	03 cf		 add	 ecx, edi

; 758  :         }
; 759  :         _CATCH_ALL
; 760  :         _Destroy(_Constructed_first, _Constructed_last);
; 761  :         _Al.deallocate(_Newvec, _Newcapacity);
; 762  :         _RERAISE;
; 763  :         _CATCH_END
; 764  : 
; 765  :         _Change_array(_Newvec, _Newsize, _Newcapacity);
; 766  :         return _Newvec + _Whereoff;

  000d8	5f		 pop	 edi

; 1682 :         _Myend   = _Newvec + _Newcapacity;

  000d9	89 4e 08	 mov	 DWORD PTR [esi+8], ecx

; 758  :         }
; 759  :         _CATCH_ALL
; 760  :         _Destroy(_Constructed_first, _Constructed_last);
; 761  :         _Al.deallocate(_Newvec, _Newcapacity);
; 762  :         _RERAISE;
; 763  :         _CATCH_END
; 764  : 
; 765  :         _Change_array(_Newvec, _Newsize, _Newcapacity);
; 766  :         return _Newvec + _Whereoff;

  000dc	5e		 pop	 esi
  000dd	5b		 pop	 ebx

; 767  :     }

  000de	8b e5		 mov	 esp, ebp
  000e0	5d		 pop	 ebp
  000e1	c2 08 00	 ret	 8
$LN39@Emplace_re:

; 738  :             _Xlength();

  000e4	e8 00 00 00 00	 call	 ?_Xlength@?$vector@_WV?$allocator@_W@std@@@std@@CAXXZ ; std::vector<wchar_t,std::allocator<wchar_t> >::_Xlength
$LN40@Emplace_re:
; File C:\Program Files (x86)\Microsoft Visual Studio\2019\Community\VC\Tools\MSVC\14.27.29110\include\xmemory

; 61   :             _Throw_bad_array_new_length(); // multiply overflow

  000e9	e8 00 00 00 00	 call	 ?_Throw_bad_array_new_length@std@@YAXXZ ; std::_Throw_bad_array_new_length
$LN37@Emplace_re:
  000ee	cc		 int	 3
??$_Emplace_reallocate@AB_W@?$vector@_WV?$allocator@_W@std@@@std@@QAEPA_WQA_WAB_W@Z ENDP ; std::vector<wchar_t,std::allocator<wchar_t> >::_Emplace_reallocate<wchar_t const &>
_TEXT	ENDS
; Function compile flags: /Ogtp
; File C:\DS Project\DS Files\Source\ClientSource\Client\EterLib\IME.cpp
;	COMDAT ?_strtoul@@YAKPBDPAPADH@Z
_TEXT	SEGMENT
_psz$ = 8						; size = 4
___formal$ = 12						; size = 4
___formal$ = 16						; size = 4
?_strtoul@@YAKPBDPAPADH@Z PROC				; _strtoul, COMDAT

; 1420 : {

  00000	55		 push	 ebp
  00001	8b ec		 mov	 ebp, esp
  00003	56		 push	 esi

; 1421 : 	if ( !psz )

  00004	8b 75 08	 mov	 esi, DWORD PTR _psz$[ebp]
  00007	85 f6		 test	 esi, esi
  00009	75 05		 jne	 SHORT $LN6@strtoul

; 1422 : 		return 0;

  0000b	33 c0		 xor	 eax, eax
  0000d	5e		 pop	 esi

; 1451 : }

  0000e	5d		 pop	 ebp
  0000f	c3		 ret	 0
$LN6@strtoul:
  00010	53		 push	 ebx

; 1423 : 
; 1424 : 	ULONG ulRet = 0;
; 1425 : 	if ( psz[0] == '0' && ( psz[1] == 'x' || psz[1] == 'X' ) )

  00011	8a 1e		 mov	 bl, BYTE PTR [esi]
  00013	33 d2		 xor	 edx, edx
  00015	80 fb 30	 cmp	 bl, 48			; 00000030H
  00018	75 54		 jne	 SHORT $LN18@strtoul
  0001a	8a 46 01	 mov	 al, BYTE PTR [esi+1]
  0001d	3c 78		 cmp	 al, 120			; 00000078H
  0001f	74 04		 je	 SHORT $LN9@strtoul
  00021	3c 58		 cmp	 al, 88			; 00000058H
  00023	75 4d		 jne	 SHORT $LL4@strtoul
$LN9@strtoul:

; 1426 : 	{
; 1427 : 		psz += 2;
; 1428 : 		ULONG ul = 0;
; 1429 : 		while ( *psz )

  00025	8a 4e 02	 mov	 cl, BYTE PTR [esi+2]
  00028	83 c6 02	 add	 esi, 2
  0002b	84 c9		 test	 cl, cl
  0002d	74 5d		 je	 SHORT $LN26@strtoul
  0002f	90		 npad	 1
$LL2@strtoul:

; 1430 : 		{
; 1431 : 			if ( '0' <= *psz && *psz <= '9' )

  00030	8d 41 d0	 lea	 eax, DWORD PTR [ecx-48]
  00033	3c 09		 cmp	 al, 9
  00035	77 08		 ja	 SHORT $LN10@strtoul

; 1432 : 				ul = *psz - '0';

  00037	0f be c1	 movsx	 eax, cl
  0003a	83 e8 30	 sub	 eax, 48			; 00000030H
  0003d	eb 1c		 jmp	 SHORT $LN15@strtoul
$LN10@strtoul:

; 1433 : 			else if ( 'A' <= *psz && *psz <= 'F' )

  0003f	8d 41 bf	 lea	 eax, DWORD PTR [ecx-65]
  00042	3c 05		 cmp	 al, 5
  00044	77 08		 ja	 SHORT $LN12@strtoul

; 1434 : 				ul = *psz - 'A' + 10;

  00046	0f be c1	 movsx	 eax, cl
  00049	83 e8 37	 sub	 eax, 55			; 00000037H
  0004c	eb 0d		 jmp	 SHORT $LN15@strtoul
$LN12@strtoul:

; 1435 : 			else if ( 'a' <= *psz && *psz <= 'f' )

  0004e	8d 41 9f	 lea	 eax, DWORD PTR [ecx-97]
  00051	3c 05		 cmp	 al, 5
  00053	77 37		 ja	 SHORT $LN26@strtoul

; 1436 : 				ul = *psz - 'a' + 10;

  00055	0f be c1	 movsx	 eax, cl
  00058	83 e8 57	 sub	 eax, 87			; 00000057H
$LN15@strtoul:

; 1437 : 			else
; 1438 : 				break;
; 1439 : 			ulRet = ulRet * 16 + ul;
; 1440 : 			psz++;

  0005b	8a 4e 01	 mov	 cl, BYTE PTR [esi+1]
  0005e	46		 inc	 esi
  0005f	c1 e2 04	 shl	 edx, 4
  00062	03 d0		 add	 edx, eax
  00064	84 c9		 test	 cl, cl
  00066	75 c8		 jne	 SHORT $LL2@strtoul

; 1448 : 		}
; 1449 : 	}
; 1450 : 	return ulRet;

  00068	5b		 pop	 ebx
  00069	8b c2		 mov	 eax, edx
  0006b	5e		 pop	 esi

; 1451 : }

  0006c	5d		 pop	 ebp
  0006d	c3		 ret	 0
$LN18@strtoul:

; 1441 : 		}
; 1442 : 	}
; 1443 : 	else {
; 1444 : 		while ( *psz && ( '0' <= *psz && *psz <= '9' ) )

  0006e	84 db		 test	 bl, bl
  00070	74 1a		 je	 SHORT $LN26@strtoul
$LL4@strtoul:
  00072	8d 43 d0	 lea	 eax, DWORD PTR [ebx-48]
  00075	3c 09		 cmp	 al, 9
  00077	77 13		 ja	 SHORT $LN26@strtoul

; 1445 : 		{
; 1446 : 			ulRet = ulRet * 10 + ( *psz - '0' );
; 1447 : 			psz++;

  00079	46		 inc	 esi
  0007a	0f be c3	 movsx	 eax, bl
  0007d	8d 14 92	 lea	 edx, DWORD PTR [edx+edx*4]
  00080	8d 52 e8	 lea	 edx, DWORD PTR [edx-24]
  00083	8a 1e		 mov	 bl, BYTE PTR [esi]
  00085	8d 14 50	 lea	 edx, DWORD PTR [eax+edx*2]
  00088	84 db		 test	 bl, bl
  0008a	75 e6		 jne	 SHORT $LL4@strtoul
$LN26@strtoul:

; 1448 : 		}
; 1449 : 	}
; 1450 : 	return ulRet;

  0008c	5b		 pop	 ebx
  0008d	8b c2		 mov	 eax, edx
  0008f	5e		 pop	 esi

; 1451 : }

  00090	5d		 pop	 ebp
  00091	c3		 ret	 0
?_strtoul@@YAKPBDPAPADH@Z ENDP				; _strtoul
_TEXT	ENDS
; Function compile flags: /Ogtp
; File C:\Program Files (x86)\Microsoft Visual Studio\2019\Community\VC\Tools\MSVC\14.27.29110\include\vector
; File C:\Program Files (x86)\Microsoft Visual Studio\2019\Community\VC\Tools\MSVC\14.27.29110\include\xutility
; File C:\Program Files (x86)\Microsoft Visual Studio\2019\Community\VC\Tools\MSVC\14.27.29110\include\vector
; File C:\Program Files (x86)\Microsoft Visual Studio\2019\Community\VC\Tools\MSVC\14.27.29110\include\xutility
; File C:\Program Files (x86)\Microsoft Visual Studio\2019\Community\VC\Tools\MSVC\14.27.29110\include\vector
; File C:\Program Files (x86)\Microsoft Visual Studio\2019\Community\VC\Tools\MSVC\14.27.29110\include\xmemory
; File C:\Program Files (x86)\Microsoft Visual Studio\2019\Community\VC\Tools\MSVC\14.27.29110\include\vector
; File C:\Program Files (x86)\Microsoft Visual Studio\2019\Community\VC\Tools\MSVC\14.27.29110\include\xmemory
; File C:\Program Files (x86)\Microsoft Visual Studio\2019\Community\VC\Tools\MSVC\14.27.29110\include\vector
; File C:\Program Files (x86)\Microsoft Visual Studio\2019\Community\VC\Tools\MSVC\14.27.29110\include\xmemory
; File C:\Program Files (x86)\Microsoft Visual Studio\2019\Community\VC\Tools\MSVC\14.27.29110\include\vector
; File C:\Program Files (x86)\Microsoft Visual Studio\2019\Community\VC\Tools\MSVC\14.27.29110\include\xmemory
; File C:\Program Files (x86)\Microsoft Visual Studio\2019\Community\VC\Tools\MSVC\14.27.29110\include\vector
;	COMDAT ??$assign@PA_W$0A@@?$vector@_WV?$allocator@_W@std@@@std@@QAEXPA_W0@Z
_TEXT	SEGMENT
__First$ = 8						; size = 4
__Last$ = 12						; size = 4
??$assign@PA_W$0A@@?$vector@_WV?$allocator@_W@std@@@std@@QAEXPA_W0@Z PROC ; std::vector<wchar_t,std::allocator<wchar_t> >::assign<wchar_t *,0>, COMDAT
; _this$ = ecx

; 1140 :     void assign(_Iter _First, _Iter _Last) {

  00000	55		 push	 ebp
  00001	8b ec		 mov	 ebp, esp
; File C:\Program Files (x86)\Microsoft Visual Studio\2019\Community\VC\Tools\MSVC\14.27.29110\include\xutility

; 1724 :         return _Last - _First; // assume the iterator will do debug checking

  00003	8b 45 0c	 mov	 eax, DWORD PTR __Last$[ebp]
; File C:\Program Files (x86)\Microsoft Visual Studio\2019\Community\VC\Tools\MSVC\14.27.29110\include\vector

; 1140 :     void assign(_Iter _First, _Iter _Last) {

  00006	56		 push	 esi
  00007	57		 push	 edi
  00008	8b f9		 mov	 edi, ecx
; File C:\Program Files (x86)\Microsoft Visual Studio\2019\Community\VC\Tools\MSVC\14.27.29110\include\xutility

; 1724 :         return _Last - _First; // assume the iterator will do debug checking

  0000a	8b f0		 mov	 esi, eax
  0000c	2b 75 08	 sub	 esi, DWORD PTR __First$[ebp]
  0000f	d1 fe		 sar	 esi, 1
; File C:\Program Files (x86)\Microsoft Visual Studio\2019\Community\VC\Tools\MSVC\14.27.29110\include\vector

; 1107 :             const auto _Oldcapacity = static_cast<size_type>(_Myend - _Myfirst);

  00011	8b 4f 08	 mov	 ecx, DWORD PTR [edi+8]
  00014	8b 17		 mov	 edx, DWORD PTR [edi]
  00016	2b ca		 sub	 ecx, edx
  00018	d1 f9		 sar	 ecx, 1

; 1108 :             if (_Newsize > _Oldcapacity) {

  0001a	3b f1		 cmp	 esi, ecx
  0001c	76 6b		 jbe	 SHORT $LN28@assign

; 1285 :         if (_Newsize > max_size()) {

  0001e	81 fe ff ff ff
	7f		 cmp	 esi, 2147483647		; 7fffffffH
  00024	77 7f		 ja	 SHORT $LN34@assign
  00026	53		 push	 ebx

; 1619 :         if (_Oldcapacity > max_size() - _Oldcapacity / 2) {

  00027	8b d9		 mov	 ebx, ecx
  00029	b8 ff ff ff 7f	 mov	 eax, 2147483647		; 7fffffffH
  0002e	d1 eb		 shr	 ebx, 1
  00030	2b c3		 sub	 eax, ebx
  00032	3b c8		 cmp	 ecx, eax
  00034	77 0a		 ja	 SHORT $LN14@assign

; 1620 :             return _Newsize; // geometric growth would overflow
; 1621 :         }
; 1622 : 
; 1623 :         const size_type _Geometric = _Oldcapacity + _Oldcapacity / 2;

  00036	8d 04 0b	 lea	 eax, DWORD PTR [ebx+ecx]

; 1624 : 
; 1625 :         if (_Geometric < _Newsize) {

  00039	3b c6		 cmp	 eax, esi
  0003b	0f 42 c6	 cmovb	 eax, esi
  0003e	8b f0		 mov	 esi, eax
$LN14@assign:
  00040	5b		 pop	 ebx

; 1291 :         if (_Myfirst) { // destroy and deallocate old array

  00041	85 d2		 test	 edx, edx
  00043	74 21		 je	 SHORT $LN10@assign
; File C:\Program Files (x86)\Microsoft Visual Studio\2019\Community\VC\Tools\MSVC\14.27.29110\include\xmemory

; 803  :         _Deallocate<_New_alignof<_Ty>>(_Ptr, sizeof(_Ty) * _Count);

  00045	8d 04 09	 lea	 eax, DWORD PTR [ecx+ecx]
  00048	50		 push	 eax
  00049	52		 push	 edx
  0004a	e8 00 00 00 00	 call	 ??$_Deallocate@$07$0A@@std@@YAXPAXI@Z ; std::_Deallocate<8,0>
; File C:\Program Files (x86)\Microsoft Visual Studio\2019\Community\VC\Tools\MSVC\14.27.29110\include\vector

; 1295 :             _Myfirst = pointer();

  0004f	c7 07 00 00 00
	00		 mov	 DWORD PTR [edi], 0
; File C:\Program Files (x86)\Microsoft Visual Studio\2019\Community\VC\Tools\MSVC\14.27.29110\include\xmemory

; 803  :         _Deallocate<_New_alignof<_Ty>>(_Ptr, sizeof(_Ty) * _Count);

  00055	83 c4 08	 add	 esp, 8
; File C:\Program Files (x86)\Microsoft Visual Studio\2019\Community\VC\Tools\MSVC\14.27.29110\include\vector

; 1296 :             _Mylast  = pointer();

  00058	c7 47 04 00 00
	00 00		 mov	 DWORD PTR [edi+4], 0

; 1297 :             _Myend   = pointer();

  0005f	c7 47 08 00 00
	00 00		 mov	 DWORD PTR [edi+8], 0
$LN10@assign:
; File C:\Program Files (x86)\Microsoft Visual Studio\2019\Community\VC\Tools\MSVC\14.27.29110\include\xmemory

; 60   :         if (_Count > _Max_possible) {

  00066	81 fe ff ff ff
	7f		 cmp	 esi, 2147483647		; 7fffffffH
  0006c	77 3c		 ja	 SHORT $LN35@assign

; 62   :         }
; 63   :     }
; 64   : 
; 65   :     return _Count * _Ty_size;

  0006e	03 f6		 add	 esi, esi

; 807  :         return static_cast<_Ty*>(_Allocate<_New_alignof<_Ty>>(_Get_size_of_n<sizeof(_Ty)>(_Count)));

  00070	56		 push	 esi
  00071	e8 00 00 00 00	 call	 ??$_Allocate@$07U_Default_allocate_traits@std@@$0A@@std@@YAPAXI@Z ; std::_Allocate<8,std::_Default_allocate_traits,0>
  00076	8b d0		 mov	 edx, eax
  00078	83 c4 04	 add	 esp, 4
; File C:\Program Files (x86)\Microsoft Visual Studio\2019\Community\VC\Tools\MSVC\14.27.29110\include\vector

; 1645 :         _Myend             = _Newvec + _Newcapacity;

  0007b	8b 45 0c	 mov	 eax, DWORD PTR __Last$[ebp]
  0007e	89 17		 mov	 DWORD PTR [edi], edx
  00080	89 57 04	 mov	 DWORD PTR [edi+4], edx
  00083	8d 0c 16	 lea	 ecx, DWORD PTR [esi+edx]
  00086	89 4f 08	 mov	 DWORD PTR [edi+8], ecx
$LN28@assign:

; 1112 :             _Mylast = _Refancy<pointer>(_Copy_memmove(_First, _Last, _Unfancy(_Myfirst)));

  00089	52		 push	 edx
  0008a	50		 push	 eax
  0008b	ff 75 08	 push	 DWORD PTR __First$[ebp]
  0008e	e8 00 00 00 00	 call	 ??$_Copy_memmove@PA_WPA_W@std@@YAPA_WPA_W00@Z ; std::_Copy_memmove<wchar_t *,wchar_t *>
  00093	50		 push	 eax
  00094	e8 00 00 00 00	 call	 ??$_Refancy@PA_W$0A@@std@@YAPA_WPA_W@Z ; std::_Refancy<wchar_t *,0>
  00099	83 c4 10	 add	 esp, 16			; 00000010H
  0009c	89 47 04	 mov	 DWORD PTR [edi+4], eax
  0009f	5f		 pop	 edi
  000a0	5e		 pop	 esi

; 1143 :     }

  000a1	5d		 pop	 ebp
  000a2	c2 08 00	 ret	 8
$LN34@assign:

; 1286 :             _Xlength();

  000a5	e8 00 00 00 00	 call	 ?_Xlength@?$vector@_WV?$allocator@_W@std@@@std@@CAXXZ ; std::vector<wchar_t,std::allocator<wchar_t> >::_Xlength
$LN35@assign:
; File C:\Program Files (x86)\Microsoft Visual Studio\2019\Community\VC\Tools\MSVC\14.27.29110\include\xmemory

; 61   :             _Throw_bad_array_new_length(); // multiply overflow

  000aa	e8 00 00 00 00	 call	 ?_Throw_bad_array_new_length@std@@YAXXZ ; std::_Throw_bad_array_new_length
$LN32@assign:
  000af	cc		 int	 3
??$assign@PA_W$0A@@?$vector@_WV?$allocator@_W@std@@@std@@QAEXPA_W0@Z ENDP ; std::vector<wchar_t,std::allocator<wchar_t> >::assign<wchar_t *,0>
_TEXT	ENDS
; Function compile flags: /Ogtp
; File C:\Program Files (x86)\Microsoft Visual Studio\2019\Community\VC\Tools\MSVC\14.27.29110\include\vector
;	COMDAT ?_Xlength@?$vector@EV?$allocator@E@std@@@std@@CAXXZ
_TEXT	SEGMENT
?_Xlength@?$vector@EV?$allocator@E@std@@@std@@CAXXZ PROC ; std::vector<unsigned char,std::allocator<unsigned char> >::_Xlength, COMDAT

; 1704 :         _Xlength_error("vector too long");

  00000	68 00 00 00 00	 push	 OFFSET ??_C@_0BA@FOIKENOD@vector?5too?5long@
  00005	e8 00 00 00 00	 call	 ?_Xlength_error@std@@YAXPBD@Z ; std::_Xlength_error
$LN3@Xlength:
  0000a	cc		 int	 3
?_Xlength@?$vector@EV?$allocator@E@std@@@std@@CAXXZ ENDP ; std::vector<unsigned char,std::allocator<unsigned char> >::_Xlength
_TEXT	ENDS
; Function compile flags: /Ogtp
; File C:\Program Files (x86)\Microsoft Visual Studio\2019\Community\VC\Tools\MSVC\14.27.29110\include\vector
; File C:\Program Files (x86)\Microsoft Visual Studio\2019\Community\VC\Tools\MSVC\14.27.29110\include\xmemory
; File C:\Program Files (x86)\Microsoft Visual Studio\2019\Community\VC\Tools\MSVC\14.27.29110\include\vector
; File C:\Program Files (x86)\Microsoft Visual Studio\2019\Community\VC\Tools\MSVC\14.27.29110\include\xmemory
; File C:\Program Files (x86)\Microsoft Visual Studio\2019\Community\VC\Tools\MSVC\14.27.29110\include\vector
;	COMDAT ??1?$vector@EV?$allocator@E@std@@@std@@QAE@XZ
_TEXT	SEGMENT
??1?$vector@EV?$allocator@E@std@@@std@@QAE@XZ PROC	; std::vector<unsigned char,std::allocator<unsigned char> >::~vector<unsigned char,std::allocator<unsigned char> >, COMDAT
; _this$ = ecx

; 672  :     ~vector() noexcept {

  00000	56		 push	 esi
  00001	8b f1		 mov	 esi, ecx

; 1693 :         if (_Myfirst) { // destroy and deallocate old array

  00003	8b 0e		 mov	 ecx, DWORD PTR [esi]
  00005	85 c9		 test	 ecx, ecx
  00007	74 23		 je	 SHORT $LN4@vector

; 1694 :             _Destroy(_Myfirst, _Mylast);
; 1695 :             _Getal().deallocate(_Myfirst, static_cast<size_type>(_Myend - _Myfirst));

  00009	8b 46 08	 mov	 eax, DWORD PTR [esi+8]
  0000c	2b c1		 sub	 eax, ecx
; File C:\Program Files (x86)\Microsoft Visual Studio\2019\Community\VC\Tools\MSVC\14.27.29110\include\xmemory

; 803  :         _Deallocate<_New_alignof<_Ty>>(_Ptr, sizeof(_Ty) * _Count);

  0000e	50		 push	 eax
  0000f	51		 push	 ecx
  00010	e8 00 00 00 00	 call	 ??$_Deallocate@$07$0A@@std@@YAXPAXI@Z ; std::_Deallocate<8,0>
; File C:\Program Files (x86)\Microsoft Visual Studio\2019\Community\VC\Tools\MSVC\14.27.29110\include\vector

; 1697 :             _Myfirst = pointer();

  00015	c7 06 00 00 00
	00		 mov	 DWORD PTR [esi], 0
; File C:\Program Files (x86)\Microsoft Visual Studio\2019\Community\VC\Tools\MSVC\14.27.29110\include\xmemory

; 803  :         _Deallocate<_New_alignof<_Ty>>(_Ptr, sizeof(_Ty) * _Count);

  0001b	83 c4 08	 add	 esp, 8
; File C:\Program Files (x86)\Microsoft Visual Studio\2019\Community\VC\Tools\MSVC\14.27.29110\include\vector

; 1698 :             _Mylast  = pointer();

  0001e	c7 46 04 00 00
	00 00		 mov	 DWORD PTR [esi+4], 0

; 1699 :             _Myend   = pointer();

  00025	c7 46 08 00 00
	00 00		 mov	 DWORD PTR [esi+8], 0
$LN4@vector:
  0002c	5e		 pop	 esi

; 673  :         _Tidy();
; 674  : #if _ITERATOR_DEBUG_LEVEL != 0
; 675  :         auto&& _Alproxy = _GET_PROXY_ALLOCATOR(_Alty, _Getal());
; 676  :         _Delete_plain_internal(_Alproxy, _STD exchange(_Mypair._Myval2._Myproxy, nullptr));
; 677  : #endif // _ITERATOR_DEBUG_LEVEL != 0
; 678  :     }

  0002d	c3		 ret	 0
??1?$vector@EV?$allocator@E@std@@@std@@QAE@XZ ENDP	; std::vector<unsigned char,std::allocator<unsigned char> >::~vector<unsigned char,std::allocator<unsigned char> >
_TEXT	ENDS
; Function compile flags: /Ogtp
; File C:\DS Project\DS Files\Source\ClientSource\Client\EterLib\IME.cpp
;	COMDAT ??__Fg_disableCicero@@YAXXZ
text$yd	SEGMENT
__$EHRec$ = -12						; size = 12
??__Fg_disableCicero@@YAXXZ PROC			; `dynamic atexit destructor for 'g_disableCicero'', COMDAT
  00000	55		 push	 ebp
  00001	8b ec		 mov	 ebp, esp
  00003	6a ff		 push	 -1
  00005	68 00 00 00 00	 push	 __ehhandler$??__Fg_disableCicero@@YAXXZ
  0000a	64 a1 00 00 00
	00		 mov	 eax, DWORD PTR fs:0
  00010	50		 push	 eax
  00011	a1 00 00 00 00	 mov	 eax, DWORD PTR ___security_cookie
  00016	33 c5		 xor	 eax, ebp
  00018	50		 push	 eax
  00019	8d 45 f4	 lea	 eax, DWORD PTR __$EHRec$[ebp]
  0001c	64 a3 00 00 00
	00		 mov	 DWORD PTR fs:0, eax

; 244  : 		if ( m_ptim )

  00022	8b 0d 00 00 00
	00		 mov	 ecx, DWORD PTR ?g_disableCicero@@3VCDisableCicero@@A

; 221  : 	{

  00028	c7 45 fc 00 00
	00 00		 mov	 DWORD PTR __$EHRec$[ebp+8], 0

; 244  : 		if ( m_ptim )

  0002f	85 c9		 test	 ecx, ecx
  00031	74 10		 je	 SHORT $LN7@dynamic

; 245  : 		{
; 246  : 			m_ptim->Release();

  00033	8b 01		 mov	 eax, DWORD PTR [ecx]
  00035	51		 push	 ecx
  00036	ff 50 08	 call	 DWORD PTR [eax+8]

; 247  : 			m_ptim = NULL;

  00039	c7 05 00 00 00
	00 00 00 00 00	 mov	 DWORD PTR ?g_disableCicero@@3VCDisableCicero@@A, 0
$LN7@dynamic:

; 248  : 		}
; 249  : 		if ( m_bComInit )

  00043	80 3d 04 00 00
	00 00		 cmp	 BYTE PTR ?g_disableCicero@@3VCDisableCicero@@A+4, 0
  0004a	74 06		 je	 SHORT $LN10@dynamic

; 250  : 			CoUninitialize();

  0004c	ff 15 00 00 00
	00		 call	 DWORD PTR __imp__CoUninitialize@0
$LN10@dynamic:

; 251  : 		m_bComInit = false;

  00052	c6 05 04 00 00
	00 00		 mov	 BYTE PTR ?g_disableCicero@@3VCDisableCicero@@A+4, 0
  00059	8b 4d f4	 mov	 ecx, DWORD PTR __$EHRec$[ebp]
  0005c	64 89 0d 00 00
	00 00		 mov	 DWORD PTR fs:0, ecx
  00063	59		 pop	 ecx
  00064	8b e5		 mov	 esp, ebp
  00066	5d		 pop	 ebp
  00067	c3		 ret	 0
  00068	cc		 int	 3
  00069	cc		 int	 3
  0006a	cc		 int	 3
  0006b	cc		 int	 3
  0006c	cc		 int	 3
text$yd	ENDS
;	COMDAT text$x
text$x	SEGMENT
__ehhandler$??__Fg_disableCicero@@YAXXZ:
  00000	90		 npad	 1
  00001	90		 npad	 1
  00002	8b 54 24 08	 mov	 edx, DWORD PTR [esp+8]
  00006	8d 42 0c	 lea	 eax, DWORD PTR [edx+12]
  00009	8b 4a fc	 mov	 ecx, DWORD PTR [edx-4]
  0000c	33 c8		 xor	 ecx, eax
  0000e	e8 00 00 00 00	 call	 @__security_check_cookie@4
  00013	b8 00 00 00 00	 mov	 eax, OFFSET __ehfuncinfo$??__Fg_disableCicero@@YAXXZ
  00018	e9 00 00 00 00	 jmp	 ___CxxFrameHandler3
text$x	ENDS
??__Fg_disableCicero@@YAXXZ ENDP			; `dynamic atexit destructor for 'g_disableCicero''
; Function compile flags: /Ogtp
; File C:\DS Project\DS Files\Source\ClientSource\Client\EterLib\IME.cpp
;	COMDAT ??__Eg_disableCicero@@YAXXZ
text$di	SEGMENT
??__Eg_disableCicero@@YAXXZ PROC			; `dynamic initializer for 'g_disableCicero'', COMDAT

; 272  : static CDisableCicero g_disableCicero;

  00000	68 00 00 00 00	 push	 OFFSET ??__Fg_disableCicero@@YAXXZ ; `dynamic atexit destructor for 'g_disableCicero''
  00005	e8 00 00 00 00	 call	 _atexit
  0000a	59		 pop	 ecx
  0000b	c3		 ret	 0
??__Eg_disableCicero@@YAXXZ ENDP			; `dynamic initializer for 'g_disableCicero''
text$di	ENDS
; Function compile flags: /Ogtp
; File C:\DS Project\DS Files\Source\ClientSource\Client\EterLib\IME.cpp
;	COMDAT ?EnableUiUpdates@CTsfUiLessMode@@SAX_N@Z
_TEXT	SEGMENT
_srcTm$ = -4						; size = 4
_bEnable$ = 8						; size = 1
?EnableUiUpdates@CTsfUiLessMode@@SAX_N@Z PROC		; CTsfUiLessMode::EnableUiUpdates, COMDAT

; 2019 : {

  00000	55		 push	 ebp
  00001	8b ec		 mov	 ebp, esp
  00003	51		 push	 ecx

; 2020 : 	if ( m_tm == NULL ||
; 2021 : 		 ( bEnable && m_dwUIElementSinkCookie != TF_INVALID_COOKIE )  ||

  00004	8b 0d 00 00 00
	00		 mov	 ecx, DWORD PTR ?m_tm@CTsfUiLessMode@@1PAUITfThreadMgrEx@@A ; CTsfUiLessMode::m_tm
  0000a	85 c9		 test	 ecx, ecx
  0000c	74 7e		 je	 SHORT $LN3@EnableUiUp
  0000e	53		 push	 ebx
  0000f	8a 5d 08	 mov	 bl, BYTE PTR _bEnable$[ebp]
  00012	84 db		 test	 bl, bl
  00014	74 0b		 je	 SHORT $LN9@EnableUiUp
  00016	83 3d 00 00 00
	00 ff		 cmp	 DWORD PTR ?m_dwUIElementSinkCookie@CTsfUiLessMode@@1KA, -1 ; CTsfUiLessMode::m_dwUIElementSinkCookie
  0001d	75 6c		 jne	 SHORT $LN10@EnableUiUp
  0001f	eb 09		 jmp	 SHORT $LN2@EnableUiUp
$LN9@EnableUiUp:
  00021	83 3d 00 00 00
	00 ff		 cmp	 DWORD PTR ?m_dwUIElementSinkCookie@CTsfUiLessMode@@1KA, -1 ; CTsfUiLessMode::m_dwUIElementSinkCookie
  00028	74 61		 je	 SHORT $LN10@EnableUiUp
$LN2@EnableUiUp:

; 2022 : 		 ( !bEnable && m_dwUIElementSinkCookie == TF_INVALID_COOKIE ) )
; 2023 : 	{
; 2024 : 		return;
; 2025 : 	}
; 2026 : 	ITfSource *srcTm = NULL;
; 2027 : 	HRESULT hr = E_FAIL;
; 2028 : 	if (SUCCEEDED(hr = m_tm->QueryInterface(__uuidof(ITfSource), (void **)&srcTm)))

  0002a	8d 55 fc	 lea	 edx, DWORD PTR _srcTm$[ebp]
  0002d	c7 45 fc 00 00
	00 00		 mov	 DWORD PTR _srcTm$[ebp], 0
  00034	8b 01		 mov	 eax, DWORD PTR [ecx]
  00036	52		 push	 edx
  00037	68 00 00 00 00	 push	 OFFSET __GUID_4ea48a35_60ae_446f_8fd6_e6a8d82459f7
  0003c	51		 push	 ecx
  0003d	ff 10		 call	 DWORD PTR [eax]
  0003f	85 c0		 test	 eax, eax
  00041	78 48		 js	 SHORT $LN10@EnableUiUp

; 2029 : 	{
; 2030 : 		if ( bEnable )

  00043	8b 45 fc	 mov	 eax, DWORD PTR _srcTm$[ebp]
  00046	8b 08		 mov	 ecx, DWORD PTR [eax]
  00048	84 db		 test	 bl, bl
  0004a	74 22		 je	 SHORT $LN6@EnableUiUp

; 2031 : 		{
; 2032 : 			hr = srcTm->AdviseSink(__uuidof(ITfUIElementSink), (ITfUIElementSink*)m_TsfSink, &m_dwUIElementSinkCookie);

  0004c	68 00 00 00 00	 push	 OFFSET ?m_dwUIElementSinkCookie@CTsfUiLessMode@@1KA ; CTsfUiLessMode::m_dwUIElementSinkCookie
  00051	ff 35 00 00 00
	00		 push	 DWORD PTR ?m_TsfSink@CTsfUiLessMode@@1PAVCUIElementSink@1@A ; CTsfUiLessMode::m_TsfSink
  00057	68 00 00 00 00	 push	 OFFSET __GUID_ea1ea136_19df_11d7_a6d2_00065b84435c
  0005c	50		 push	 eax
  0005d	ff 51 0c	 call	 DWORD PTR [ecx+12]

; 2037 : 			m_dwUIElementSinkCookie = TF_INVALID_COOKIE;
; 2038 : 		}
; 2039 : 		srcTm->Release();

  00060	8b 45 fc	 mov	 eax, DWORD PTR _srcTm$[ebp]
  00063	50		 push	 eax
  00064	8b 08		 mov	 ecx, DWORD PTR [eax]
  00066	ff 51 08	 call	 DWORD PTR [ecx+8]
  00069	5b		 pop	 ebx

; 2040 : 	}
; 2041 : }

  0006a	8b e5		 mov	 esp, ebp
  0006c	5d		 pop	 ebp
  0006d	c3		 ret	 0
$LN6@EnableUiUp:

; 2033 : 		}
; 2034 : 		else
; 2035 : 		{
; 2036 : 			hr = srcTm->UnadviseSink(m_dwUIElementSinkCookie);

  0006e	ff 35 00 00 00
	00		 push	 DWORD PTR ?m_dwUIElementSinkCookie@CTsfUiLessMode@@1KA ; CTsfUiLessMode::m_dwUIElementSinkCookie
  00074	50		 push	 eax
  00075	ff 51 10	 call	 DWORD PTR [ecx+16]

; 2037 : 			m_dwUIElementSinkCookie = TF_INVALID_COOKIE;
; 2038 : 		}
; 2039 : 		srcTm->Release();

  00078	8b 45 fc	 mov	 eax, DWORD PTR _srcTm$[ebp]
  0007b	c7 05 00 00 00
	00 ff ff ff ff	 mov	 DWORD PTR ?m_dwUIElementSinkCookie@CTsfUiLessMode@@1KA, -1 ; CTsfUiLessMode::m_dwUIElementSinkCookie
  00085	50		 push	 eax
  00086	8b 08		 mov	 ecx, DWORD PTR [eax]
  00088	ff 51 08	 call	 DWORD PTR [ecx+8]
$LN10@EnableUiUp:
  0008b	5b		 pop	 ebx
$LN3@EnableUiUp:

; 2040 : 	}
; 2041 : }

  0008c	8b e5		 mov	 esp, ebp
  0008e	5d		 pop	 ebp
  0008f	c3		 ret	 0
?EnableUiUpdates@CTsfUiLessMode@@SAX_N@Z ENDP		; CTsfUiLessMode::EnableUiUpdates
_TEXT	ENDS
; Function compile flags: /Ogtp
; File C:\DS Project\DS Files\Source\ClientSource\Client\EterLib\IME.cpp
;	COMDAT ?UpdateImeState@CTsfUiLessMode@@SAXH@Z
_TEXT	SEGMENT
_valConvMode$1 = -44					; size = 16
_valOpenMode$2 = -28					; size = 16
_pcm$ = -12						; size = 4
_pTfConvMode$ = -8					; size = 4
_pTfOpenMode$ = -4					; size = 4
_bResetCompartmentEventSink$ = 8			; size = 4
?UpdateImeState@CTsfUiLessMode@@SAXH@Z PROC		; CTsfUiLessMode::UpdateImeState, COMDAT

; 1804 : {

  00000	55		 push	 ebp
  00001	8b ec		 mov	 ebp, esp
  00003	83 ec 2c	 sub	 esp, 44			; 0000002cH

; 1805 : 	ITfCompartmentMgr* pcm;
; 1806 : 	ITfCompartment* pTfOpenMode = NULL;
; 1807 : 	ITfCompartment* pTfConvMode = NULL;
; 1808 : 	if ( GetCompartments( &pcm, &pTfOpenMode, &pTfConvMode ) )

  00006	8d 45 f8	 lea	 eax, DWORD PTR _pTfConvMode$[ebp]
  00009	c7 45 fc 00 00
	00 00		 mov	 DWORD PTR _pTfOpenMode$[ebp], 0
  00010	50		 push	 eax
  00011	8d 45 fc	 lea	 eax, DWORD PTR _pTfOpenMode$[ebp]
  00014	c7 45 f8 00 00
	00 00		 mov	 DWORD PTR _pTfConvMode$[ebp], 0
  0001b	50		 push	 eax
  0001c	8d 45 f4	 lea	 eax, DWORD PTR _pcm$[ebp]
  0001f	50		 push	 eax
  00020	e8 00 00 00 00	 call	 ?GetCompartments@CTsfUiLessMode@@KAHPAPAUITfCompartmentMgr@@PAPAUITfCompartment@@1@Z ; CTsfUiLessMode::GetCompartments
  00025	83 c4 0c	 add	 esp, 12			; 0000000cH
  00028	85 c0		 test	 eax, eax
  0002a	0f 84 8e 00 00
	00		 je	 $LN2@UpdateImeS

; 1809 : 	{
; 1810 : 		VARIANT valOpenMode;
; 1811 : 		VARIANT valConvMode;
; 1812 : 		pTfOpenMode->GetValue( &valOpenMode );

  00030	53		 push	 ebx
  00031	57		 push	 edi
  00032	8b 7d fc	 mov	 edi, DWORD PTR _pTfOpenMode$[ebp]
  00035	8d 4d e4	 lea	 ecx, DWORD PTR _valOpenMode$2[ebp]
  00038	51		 push	 ecx
  00039	57		 push	 edi
  0003a	8b 07		 mov	 eax, DWORD PTR [edi]
  0003c	ff 50 10	 call	 DWORD PTR [eax+16]

; 1813 : 		pTfConvMode->GetValue( &valConvMode );

  0003f	8b 5d f8	 mov	 ebx, DWORD PTR _pTfConvMode$[ebp]
  00042	8d 4d d4	 lea	 ecx, DWORD PTR _valConvMode$1[ebp]
  00045	51		 push	 ecx
  00046	53		 push	 ebx
  00047	8b 03		 mov	 eax, DWORD PTR [ebx]
  00049	ff 50 10	 call	 DWORD PTR [eax+16]

; 1814 : 		if ( valOpenMode.vt == VT_I4 )

  0004c	66 83 7d e4 03	 cmp	 WORD PTR _valOpenMode$2[ebp], 3
  00051	75 2e		 jne	 SHORT $LN5@UpdateImeS

; 1815 : 		{
; 1816 : 			if ( CIME::ms_bChineseIME )

  00053	80 3d 00 00 00
	00 00		 cmp	 BYTE PTR ?ms_bChineseIME@CIME@@2_NA, 0 ; CIME::ms_bChineseIME
  0005a	74 18		 je	 SHORT $LN4@UpdateImeS

; 1817 : 			{
; 1818 : 				CIME::ms_dwImeState = valOpenMode.lVal != 0 && valConvMode.lVal != 0 ? IMEUI_STATE_ON : IMEUI_STATE_ENGLISH;

  0005c	83 7d ec 00	 cmp	 DWORD PTR _valOpenMode$2[ebp+8], 0
  00060	74 0b		 je	 SHORT $LN8@UpdateImeS
  00062	83 7d dc 00	 cmp	 DWORD PTR _valConvMode$1[ebp+8], 0
  00066	b8 01 00 00 00	 mov	 eax, 1
  0006b	75 0f		 jne	 SHORT $LN9@UpdateImeS
$LN8@UpdateImeS:
  0006d	b8 02 00 00 00	 mov	 eax, 2

; 1819 : 			}

  00072	eb 08		 jmp	 SHORT $LN9@UpdateImeS
$LN4@UpdateImeS:

; 1820 : 			else
; 1821 : 			{
; 1822 : 				CIME::ms_dwImeState = valOpenMode.lVal != 0 ? IMEUI_STATE_ON : IMEUI_STATE_OFF;

  00074	33 c0		 xor	 eax, eax
  00076	39 45 ec	 cmp	 DWORD PTR _valOpenMode$2[ebp+8], eax
  00079	0f 95 c0	 setne	 al
$LN9@UpdateImeS:

; 1823 : 			}
; 1824 : 		}
; 1825 : 		VariantClear( &valOpenMode );

  0007c	a3 00 00 00 00	 mov	 DWORD PTR ?ms_dwImeState@CIME@@2KA, eax ; CIME::ms_dwImeState
$LN5@UpdateImeS:
  00081	8d 45 e4	 lea	 eax, DWORD PTR _valOpenMode$2[ebp]
  00084	50		 push	 eax
  00085	ff 15 00 00 00
	00		 call	 DWORD PTR __imp__VariantClear@4

; 1826 : 		VariantClear( &valConvMode );

  0008b	8d 45 d4	 lea	 eax, DWORD PTR _valConvMode$1[ebp]
  0008e	50		 push	 eax
  0008f	ff 15 00 00 00
	00		 call	 DWORD PTR __imp__VariantClear@4

; 1827 : 
; 1828 : 		if ( bResetCompartmentEventSink )

  00095	83 7d 08 00	 cmp	 DWORD PTR _bResetCompartmentEventSink$[ebp], 0
  00099	74 0c		 je	 SHORT $LN6@UpdateImeS

; 1829 : 		{
; 1830 : 			SetupCompartmentSinks( FALSE, pTfOpenMode, pTfConvMode );	// Reset compartment sinks

  0009b	53		 push	 ebx
  0009c	57		 push	 edi
  0009d	6a 00		 push	 0
  0009f	e8 00 00 00 00	 call	 ?SetupCompartmentSinks@CTsfUiLessMode@@KAHHPAUITfCompartment@@0@Z ; CTsfUiLessMode::SetupCompartmentSinks
  000a4	83 c4 0c	 add	 esp, 12			; 0000000cH
$LN6@UpdateImeS:

; 1831 : 		}
; 1832 : 		pTfOpenMode->Release();

  000a7	8b 07		 mov	 eax, DWORD PTR [edi]
  000a9	57		 push	 edi
  000aa	ff 50 08	 call	 DWORD PTR [eax+8]

; 1833 : 		pTfConvMode->Release();

  000ad	8b 03		 mov	 eax, DWORD PTR [ebx]
  000af	53		 push	 ebx
  000b0	ff 50 08	 call	 DWORD PTR [eax+8]

; 1834 : 		pcm->Release();

  000b3	8b 45 f4	 mov	 eax, DWORD PTR _pcm$[ebp]
  000b6	50		 push	 eax
  000b7	8b 08		 mov	 ecx, DWORD PTR [eax]
  000b9	ff 51 08	 call	 DWORD PTR [ecx+8]
  000bc	5f		 pop	 edi
  000bd	5b		 pop	 ebx
$LN2@UpdateImeS:

; 1835 : 	}
; 1836 : }

  000be	8b e5		 mov	 esp, ebp
  000c0	5d		 pop	 ebp
  000c1	c3		 ret	 0
?UpdateImeState@CTsfUiLessMode@@SAXH@Z ENDP		; CTsfUiLessMode::UpdateImeState
_TEXT	ENDS
; Function compile flags: /Ogtp
; File C:\DS Project\DS Files\Source\ClientSource\Client\EterLib\IME.cpp
;	COMDAT ?CurrentInputLocaleIsIme@CTsfUiLessMode@@SAHXZ
_TEXT	SEGMENT
_pProfiles$ = -84					; size = 4
_pProfileMgr$1 = -80					; size = 4
_tip$2 = -76						; size = 72
__$ArrayPad$ = -4					; size = 4
?CurrentInputLocaleIsIme@CTsfUiLessMode@@SAHXZ PROC	; CTsfUiLessMode::CurrentInputLocaleIsIme, COMDAT

; 1990 : {

  00000	55		 push	 ebp
  00001	8b ec		 mov	 ebp, esp
  00003	83 ec 54	 sub	 esp, 84			; 00000054H
  00006	a1 00 00 00 00	 mov	 eax, DWORD PTR ___security_cookie
  0000b	33 c5		 xor	 eax, ebp
  0000d	89 45 fc	 mov	 DWORD PTR __$ArrayPad$[ebp], eax
  00010	56		 push	 esi

; 1991 : 	BOOL ret = FALSE;
; 1992 : 	HRESULT hr;
; 1993 : 
; 1994 : 	ITfInputProcessorProfiles *pProfiles;
; 1995 : 	hr = CoCreateInstance(CLSID_TF_InputProcessorProfiles, NULL, CLSCTX_INPROC_SERVER, __uuidof(ITfInputProcessorProfiles), (LPVOID*)&pProfiles);

  00011	8d 45 ac	 lea	 eax, DWORD PTR _pProfiles$[ebp]
  00014	33 f6		 xor	 esi, esi
  00016	50		 push	 eax
  00017	68 00 00 00 00	 push	 OFFSET __GUID_1f02b6c5_7842_4ee6_8a0b_9a24183a95ca
  0001c	6a 01		 push	 1
  0001e	56		 push	 esi
  0001f	68 00 00 00 00	 push	 OFFSET _CLSID_TF_InputProcessorProfiles
  00024	ff 15 00 00 00
	00		 call	 DWORD PTR __imp__CoCreateInstance@20

; 1996 : 	if (SUCCEEDED(hr))

  0002a	85 c0		 test	 eax, eax
  0002c	78 43		 js	 SHORT $LN6@CurrentInp

; 1997 : 	{
; 1998 : 		ITfInputProcessorProfileMgr *pProfileMgr;
; 1999 : 		hr = pProfiles->QueryInterface(__uuidof(ITfInputProcessorProfileMgr), (LPVOID*)&pProfileMgr);

  0002e	8b 45 ac	 mov	 eax, DWORD PTR _pProfiles$[ebp]
  00031	8d 55 b0	 lea	 edx, DWORD PTR _pProfileMgr$1[ebp]
  00034	52		 push	 edx
  00035	68 00 00 00 00	 push	 OFFSET __GUID_71c6e74c_0f28_11d8_a82a_00065b84435c
  0003a	50		 push	 eax
  0003b	8b 08		 mov	 ecx, DWORD PTR [eax]
  0003d	ff 11		 call	 DWORD PTR [ecx]

; 2000 : 		if (SUCCEEDED(hr))

  0003f	85 c0		 test	 eax, eax
  00041	78 25		 js	 SHORT $LN3@CurrentInp

; 2001 : 		{
; 2002 : 			TF_INPUTPROCESSORPROFILE tip;
; 2003 : 			hr = pProfileMgr->GetActiveProfile( GUID_TFCAT_TIP_KEYBOARD, &tip );

  00043	8b 45 b0	 mov	 eax, DWORD PTR _pProfileMgr$1[ebp]
  00046	8d 55 b4	 lea	 edx, DWORD PTR _tip$2[ebp]
  00049	52		 push	 edx
  0004a	68 00 00 00 00	 push	 OFFSET _GUID_TFCAT_TIP_KEYBOARD
  0004f	50		 push	 eax
  00050	8b 08		 mov	 ecx, DWORD PTR [eax]
  00052	ff 51 28	 call	 DWORD PTR [ecx+40]

; 2004 : 			if (SUCCEEDED(hr))

  00055	85 c0		 test	 eax, eax
  00057	78 06		 js	 SHORT $LN4@CurrentInp

; 2005 : 			{
; 2006 : 				ret = ( tip.dwProfileType & TF_PROFILETYPE_INPUTPROCESSOR ) != 0;

  00059	8b 75 b4	 mov	 esi, DWORD PTR _tip$2[ebp]
  0005c	83 e6 01	 and	 esi, 1
$LN4@CurrentInp:

; 2007 : 			}
; 2008 : 			pProfileMgr->Release();

  0005f	8b 45 b0	 mov	 eax, DWORD PTR _pProfileMgr$1[ebp]
  00062	50		 push	 eax
  00063	8b 08		 mov	 ecx, DWORD PTR [eax]
  00065	ff 51 08	 call	 DWORD PTR [ecx+8]
$LN3@CurrentInp:

; 2009 : 		}
; 2010 : 		pProfiles->Release();

  00068	8b 4d ac	 mov	 ecx, DWORD PTR _pProfiles$[ebp]
  0006b	51		 push	 ecx
  0006c	8b 11		 mov	 edx, DWORD PTR [ecx]
  0006e	ff 52 08	 call	 DWORD PTR [edx+8]
$LN6@CurrentInp:

; 2011 : 	}
; 2012 : 	return ret;
; 2013 : }

  00071	8b 4d fc	 mov	 ecx, DWORD PTR __$ArrayPad$[ebp]
  00074	8b c6		 mov	 eax, esi
  00076	33 cd		 xor	 ecx, ebp
  00078	5e		 pop	 esi
  00079	e8 00 00 00 00	 call	 @__security_check_cookie@4
  0007e	8b e5		 mov	 esp, ebp
  00080	5d		 pop	 ebp
  00081	c3		 ret	 0
?CurrentInputLocaleIsIme@CTsfUiLessMode@@SAHXZ ENDP	; CTsfUiLessMode::CurrentInputLocaleIsIme
_TEXT	ENDS
; Function compile flags: /Ogtp
; File C:\DS Project\DS Files\Source\ClientSource\Client\EterLib\IME.cpp
;	COMDAT ?ReleaseSinks@CTsfUiLessMode@@SAXXZ
_TEXT	SEGMENT
_source$ = -4						; size = 4
?ReleaseSinks@CTsfUiLessMode@@SAXXZ PROC		; CTsfUiLessMode::ReleaseSinks, COMDAT

; 1624 : {

  00000	55		 push	 ebp
  00001	8b ec		 mov	 ebp, esp
  00003	51		 push	 ecx

; 1625 : 	HRESULT hr;
; 1626 : 	ITfSource *source;
; 1627 : 
; 1628 : 	// Remove all sinks
; 1629 : 	if ( m_tm && SUCCEEDED(m_tm->QueryInterface(__uuidof(ITfSource), (void **)&source)))

  00004	8b 0d 00 00 00
	00		 mov	 ecx, DWORD PTR ?m_tm@CTsfUiLessMode@@1PAUITfThreadMgrEx@@A ; CTsfUiLessMode::m_tm
  0000a	85 c9		 test	 ecx, ecx
  0000c	0f 84 86 00 00
	00		 je	 $LN4@ReleaseSin
  00012	8b 01		 mov	 eax, DWORD PTR [ecx]
  00014	8d 55 fc	 lea	 edx, DWORD PTR _source$[ebp]
  00017	52		 push	 edx
  00018	68 00 00 00 00	 push	 OFFSET __GUID_4ea48a35_60ae_446f_8fd6_e6a8d82459f7
  0001d	51		 push	 ecx
  0001e	ff 10		 call	 DWORD PTR [eax]
  00020	85 c0		 test	 eax, eax
  00022	78 74		 js	 SHORT $LN4@ReleaseSin

; 1630 : 	{
; 1631 :         hr = source->UnadviseSink(m_dwUIElementSinkCookie);

  00024	8b 45 fc	 mov	 eax, DWORD PTR _source$[ebp]
  00027	ff 35 00 00 00
	00		 push	 DWORD PTR ?m_dwUIElementSinkCookie@CTsfUiLessMode@@1KA ; CTsfUiLessMode::m_dwUIElementSinkCookie
  0002d	50		 push	 eax
  0002e	8b 08		 mov	 ecx, DWORD PTR [eax]
  00030	ff 51 10	 call	 DWORD PTR [ecx+16]

; 1632 : 		hr = source->UnadviseSink(m_dwAlpnSinkCookie);

  00033	8b 45 fc	 mov	 eax, DWORD PTR _source$[ebp]
  00036	ff 35 00 00 00
	00		 push	 DWORD PTR ?m_dwAlpnSinkCookie@CTsfUiLessMode@@1KA ; CTsfUiLessMode::m_dwAlpnSinkCookie
  0003c	50		 push	 eax
  0003d	8b 08		 mov	 ecx, DWORD PTR [eax]
  0003f	ff 51 10	 call	 DWORD PTR [ecx+16]

; 1633 :         source->Release();

  00042	8b 45 fc	 mov	 eax, DWORD PTR _source$[ebp]
  00045	50		 push	 eax
  00046	8b 08		 mov	 ecx, DWORD PTR [eax]
  00048	ff 51 08	 call	 DWORD PTR [ecx+8]

; 1634 : 		SetupCompartmentSinks(TRUE);	// Remove all compartment sinks

  0004b	6a 00		 push	 0
  0004d	6a 00		 push	 0
  0004f	6a 01		 push	 1
  00051	e8 00 00 00 00	 call	 ?SetupCompartmentSinks@CTsfUiLessMode@@KAHHPAUITfCompartment@@0@Z ; CTsfUiLessMode::SetupCompartmentSinks

; 1635 : 		m_tm->Deactivate();

  00056	a1 00 00 00 00	 mov	 eax, DWORD PTR ?m_tm@CTsfUiLessMode@@1PAUITfThreadMgrEx@@A ; CTsfUiLessMode::m_tm
  0005b	83 c4 0c	 add	 esp, 12			; 0000000cH
  0005e	8b 08		 mov	 ecx, DWORD PTR [eax]
  00060	50		 push	 eax
  00061	ff 51 10	 call	 DWORD PTR [ecx+16]

; 1636 : 		SAFE_RELEASE(m_tm);

  00064	8b 0d 00 00 00
	00		 mov	 ecx, DWORD PTR ?m_tm@CTsfUiLessMode@@1PAUITfThreadMgrEx@@A ; CTsfUiLessMode::m_tm
  0006a	85 c9		 test	 ecx, ecx
  0006c	74 10		 je	 SHORT $LN3@ReleaseSin
  0006e	8b 01		 mov	 eax, DWORD PTR [ecx]
  00070	51		 push	 ecx
  00071	ff 50 08	 call	 DWORD PTR [eax+8]
  00074	c7 05 00 00 00
	00 00 00 00 00	 mov	 DWORD PTR ?m_tm@CTsfUiLessMode@@1PAUITfThreadMgrEx@@A, 0 ; CTsfUiLessMode::m_tm
$LN3@ReleaseSin:

; 1637 : 		SAFE_RELEASE(m_TsfSink);

  0007e	8b 0d 00 00 00
	00		 mov	 ecx, DWORD PTR ?m_TsfSink@CTsfUiLessMode@@1PAVCUIElementSink@1@A ; CTsfUiLessMode::m_TsfSink
  00084	85 c9		 test	 ecx, ecx
  00086	74 10		 je	 SHORT $LN4@ReleaseSin
  00088	8b 01		 mov	 eax, DWORD PTR [ecx]
  0008a	51		 push	 ecx
  0008b	ff 50 08	 call	 DWORD PTR [eax+8]
  0008e	c7 05 00 00 00
	00 00 00 00 00	 mov	 DWORD PTR ?m_TsfSink@CTsfUiLessMode@@1PAVCUIElementSink@1@A, 0 ; CTsfUiLessMode::m_TsfSink
$LN4@ReleaseSin:

; 1638 : 	}
; 1639 : }

  00098	8b e5		 mov	 esp, ebp
  0009a	5d		 pop	 ebp
  0009b	c3		 ret	 0
?ReleaseSinks@CTsfUiLessMode@@SAXXZ ENDP		; CTsfUiLessMode::ReleaseSinks
_TEXT	ENDS
; Function compile flags: /Ogtp
; File C:\DS Project\DS Files\Source\ClientSource\Client\EterLib\IME.cpp
;	COMDAT ?SetupSinks@CTsfUiLessMode@@SAHXZ
_TEXT	SEGMENT
_cid$ = -8						; size = 4
_srcTm$1 = -4						; size = 4
$T2 = -4						; size = 4
?SetupSinks@CTsfUiLessMode@@SAHXZ PROC			; CTsfUiLessMode::SetupSinks, COMDAT

; 1576 : {

  00000	55		 push	 ebp
  00001	8b ec		 mov	 ebp, esp
  00003	83 ec 08	 sub	 esp, 8

; 1577 : 	// ITfThreadMgrEx is available on Vista or later.
; 1578 : 	HRESULT hr;
; 1579 :     hr = CoCreateInstance(CLSID_TF_ThreadMgr,

  00006	68 00 00 00 00	 push	 OFFSET ?m_tm@CTsfUiLessMode@@1PAUITfThreadMgrEx@@A ; CTsfUiLessMode::m_tm
  0000b	68 00 00 00 00	 push	 OFFSET __GUID_3e90ade3_7594_4cb0_bb58_69628f5f458c
  00010	6a 01		 push	 1
  00012	6a 00		 push	 0
  00014	68 00 00 00 00	 push	 OFFSET _CLSID_TF_ThreadMgr
  00019	ff 15 00 00 00
	00		 call	 DWORD PTR __imp__CoCreateInstance@20

; 1580 :                           NULL,
; 1581 :                           CLSCTX_INPROC_SERVER,
; 1582 :                           __uuidof(ITfThreadMgrEx),
; 1583 :                           (void**)&m_tm);
; 1584 : 
; 1585 :     if (hr != S_OK)

  0001f	85 c0		 test	 eax, eax
  00021	0f 85 d6 00 00
	00		 jne	 $LN15@SetupSinks

; 1586 :     {
; 1587 :         return FALSE;
; 1588 :     }
; 1589 : 
; 1590 :     // ready to start interacting
; 1591 : 	TfClientId cid;	// not used
; 1592 :     if (FAILED(m_tm->ActivateEx(&cid, TF_TMAE_UIELEMENTENABLEDONLY)))

  00027	a1 00 00 00 00	 mov	 eax, DWORD PTR ?m_tm@CTsfUiLessMode@@1PAUITfThreadMgrEx@@A ; CTsfUiLessMode::m_tm
  0002c	8d 55 f8	 lea	 edx, DWORD PTR _cid$[ebp]
  0002f	6a 04		 push	 4
  00031	52		 push	 edx
  00032	50		 push	 eax
  00033	8b 08		 mov	 ecx, DWORD PTR [eax]
  00035	ff 51 38	 call	 DWORD PTR [ecx+56]
  00038	85 c0		 test	 eax, eax
  0003a	0f 88 bd 00 00
	00		 js	 $LN15@SetupSinks

; 1595 :     }
; 1596 : 
; 1597 : 	// Setup sinks
; 1598 : 	BOOL bRc = FALSE;

  00040	56		 push	 esi

; 1599 :     m_TsfSink = new CUIElementSink();

  00041	6a 10		 push	 16			; 00000010H
  00043	33 f6		 xor	 esi, esi
  00045	e8 00 00 00 00	 call	 ??2@YAPAXI@Z		; operator new
  0004a	83 c4 04	 add	 esp, 4
  0004d	89 45 fc	 mov	 DWORD PTR $T2[ebp], eax
  00050	85 c0		 test	 eax, eax
  00052	0f 84 98 00 00
	00		 je	 $LN10@SetupSinks
  00058	8b c8		 mov	 ecx, eax
  0005a	e8 00 00 00 00	 call	 ??0CUIElementSink@CTsfUiLessMode@@QAE@XZ ; CTsfUiLessMode::CUIElementSink::CUIElementSink
  0005f	a3 00 00 00 00	 mov	 DWORD PTR ?m_TsfSink@CTsfUiLessMode@@1PAVCUIElementSink@1@A, eax ; CTsfUiLessMode::m_TsfSink
  00064	85 c0		 test	 eax, eax

; 1600 : 	if (m_TsfSink)

  00066	0f 84 8a 00 00
	00		 je	 $LN5@SetupSinks

; 1601 : 	{
; 1602 : 		ITfSource *srcTm;
; 1603 : 		if (SUCCEEDED(hr = m_tm->QueryInterface(__uuidof(ITfSource), (void **)&srcTm)))

  0006c	a1 00 00 00 00	 mov	 eax, DWORD PTR ?m_tm@CTsfUiLessMode@@1PAUITfThreadMgrEx@@A ; CTsfUiLessMode::m_tm
  00071	8d 55 fc	 lea	 edx, DWORD PTR _srcTm$1[ebp]
  00074	52		 push	 edx
  00075	68 00 00 00 00	 push	 OFFSET __GUID_4ea48a35_60ae_446f_8fd6_e6a8d82459f7
  0007a	50		 push	 eax
  0007b	8b 08		 mov	 ecx, DWORD PTR [eax]
  0007d	ff 11		 call	 DWORD PTR [ecx]
  0007f	85 c0		 test	 eax, eax
  00081	78 73		 js	 SHORT $LN5@SetupSinks

; 1604 : 		{
; 1605 : 			// Sink for reading window change
; 1606 : 			if (SUCCEEDED(hr = srcTm->AdviseSink(__uuidof(ITfUIElementSink), (ITfUIElementSink*)m_TsfSink, &m_dwUIElementSinkCookie)))

  00083	8b 45 fc	 mov	 eax, DWORD PTR _srcTm$1[ebp]
  00086	68 00 00 00 00	 push	 OFFSET ?m_dwUIElementSinkCookie@CTsfUiLessMode@@1KA ; CTsfUiLessMode::m_dwUIElementSinkCookie
  0008b	ff 35 00 00 00
	00		 push	 DWORD PTR ?m_TsfSink@CTsfUiLessMode@@1PAVCUIElementSink@1@A ; CTsfUiLessMode::m_TsfSink
  00091	8b 08		 mov	 ecx, DWORD PTR [eax]
  00093	68 00 00 00 00	 push	 OFFSET __GUID_ea1ea136_19df_11d7_a6d2_00065b84435c
  00098	50		 push	 eax
  00099	ff 51 0c	 call	 DWORD PTR [ecx+12]
  0009c	85 c0		 test	 eax, eax
  0009e	78 40		 js	 SHORT $LN8@SetupSinks

; 1607 : 			{
; 1608 : 				// Sink for input locale change
; 1609 : 				if (SUCCEEDED(hr = srcTm->AdviseSink(__uuidof(ITfInputProcessorProfileActivationSink), (ITfInputProcessorProfileActivationSink*)m_TsfSink, &m_dwAlpnSinkCookie)))

  000a0	a1 00 00 00 00	 mov	 eax, DWORD PTR ?m_TsfSink@CTsfUiLessMode@@1PAVCUIElementSink@1@A ; CTsfUiLessMode::m_TsfSink
  000a5	85 c0		 test	 eax, eax
  000a7	74 05		 je	 SHORT $LN12@SetupSinks
  000a9	8d 50 04	 lea	 edx, DWORD PTR [eax+4]
  000ac	eb 02		 jmp	 SHORT $LN13@SetupSinks
$LN12@SetupSinks:
  000ae	33 d2		 xor	 edx, edx
$LN13@SetupSinks:
  000b0	8b 45 fc	 mov	 eax, DWORD PTR _srcTm$1[ebp]
  000b3	68 00 00 00 00	 push	 OFFSET ?m_dwAlpnSinkCookie@CTsfUiLessMode@@1KA ; CTsfUiLessMode::m_dwAlpnSinkCookie
  000b8	52		 push	 edx
  000b9	68 00 00 00 00	 push	 OFFSET __GUID_71c6e74e_0f28_11d8_a82a_00065b84435c
  000be	8b 08		 mov	 ecx, DWORD PTR [eax]
  000c0	50		 push	 eax
  000c1	ff 51 0c	 call	 DWORD PTR [ecx+12]
  000c4	85 c0		 test	 eax, eax
  000c6	78 18		 js	 SHORT $LN8@SetupSinks

; 1610 : 				{
; 1611 : 					if (SetupCompartmentSinks())	// Setup compartment sinks for the first time

  000c8	6a 00		 push	 0
  000ca	6a 00		 push	 0
  000cc	6a 00		 push	 0
  000ce	e8 00 00 00 00	 call	 ?SetupCompartmentSinks@CTsfUiLessMode@@KAHHPAUITfCompartment@@0@Z ; CTsfUiLessMode::SetupCompartmentSinks
  000d3	83 c4 0c	 add	 esp, 12			; 0000000cH
  000d6	b9 01 00 00 00	 mov	 ecx, 1
  000db	85 c0		 test	 eax, eax
  000dd	0f 45 f1	 cmovne	 esi, ecx
$LN8@SetupSinks:

; 1612 : 					{
; 1613 : 						bRc = TRUE;
; 1614 : 					}
; 1615 : 				}
; 1616 : 			}
; 1617 : 			srcTm->Release();

  000e0	8b 45 fc	 mov	 eax, DWORD PTR _srcTm$1[ebp]
  000e3	50		 push	 eax
  000e4	8b 08		 mov	 ecx, DWORD PTR [eax]
  000e6	ff 51 08	 call	 DWORD PTR [ecx+8]

; 1618 : 		}
; 1619 : 	}
; 1620 : 	return bRc;

  000e9	8b c6		 mov	 eax, esi
  000eb	5e		 pop	 esi

; 1621 : }

  000ec	8b e5		 mov	 esp, ebp
  000ee	5d		 pop	 ebp
  000ef	c3		 ret	 0
$LN10@SetupSinks:

; 1599 :     m_TsfSink = new CUIElementSink();

  000f0	89 35 00 00 00
	00		 mov	 DWORD PTR ?m_TsfSink@CTsfUiLessMode@@1PAVCUIElementSink@1@A, esi ; CTsfUiLessMode::m_TsfSink
$LN5@SetupSinks:

; 1618 : 		}
; 1619 : 	}
; 1620 : 	return bRc;

  000f6	8b c6		 mov	 eax, esi
  000f8	5e		 pop	 esi

; 1621 : }

  000f9	8b e5		 mov	 esp, ebp
  000fb	5d		 pop	 ebp
  000fc	c3		 ret	 0
$LN15@SetupSinks:

; 1593 :     {
; 1594 :         return FALSE;

  000fd	33 c0		 xor	 eax, eax

; 1621 : }

  000ff	8b e5		 mov	 esp, ebp
  00101	5d		 pop	 ebp
  00102	c3		 ret	 0
?SetupSinks@CTsfUiLessMode@@SAHXZ ENDP			; CTsfUiLessMode::SetupSinks
_TEXT	ENDS
; Function compile flags: /Ogtp
; File C:\DS Project\DS Files\Source\ClientSource\Client\EterLib\IME.cpp
;	COMDAT ?SetupCompartmentSinks@CTsfUiLessMode@@KAHHPAUITfCompartment@@0@Z
_TEXT	SEGMENT
_bRc$1$ = -16						; size = 4
_pcm$ = -12						; size = 4
_srcOpenMode$ = -8					; size = 4
_bLocalCompartments$1$ = -1				; size = 1
_bRemoveOnly$ = 8					; size = 4
_srcConvMode$1 = 12					; size = 4
_pTfOpenMode$ = 12					; size = 4
_pTfConvMode$ = 16					; size = 4
?SetupCompartmentSinks@CTsfUiLessMode@@KAHHPAUITfCompartment@@0@Z PROC ; CTsfUiLessMode::SetupCompartmentSinks, COMDAT

; 2077 : {

  00000	55		 push	 ebp
  00001	8b ec		 mov	 ebp, esp
  00003	83 ec 10	 sub	 esp, 16			; 00000010H
  00006	53		 push	 ebx
  00007	56		 push	 esi

; 2078 : 	bool bLocalCompartments = false;
; 2079 : 	ITfCompartmentMgr* pcm = NULL;
; 2080 : 	BOOL bRc = FALSE;
; 2081 : 	HRESULT hr = E_FAIL;
; 2082 : 
; 2083 : 	if ( !pTfOpenMode && !pTfConvMode )

  00008	8b 75 0c	 mov	 esi, DWORD PTR _pTfOpenMode$[ebp]
  0000b	57		 push	 edi
  0000c	33 ff		 xor	 edi, edi
  0000e	c6 45 ff 00	 mov	 BYTE PTR _bLocalCompartments$1$[ebp], 0
  00012	89 7d f4	 mov	 DWORD PTR _pcm$[ebp], edi
  00015	89 7d f0	 mov	 DWORD PTR _bRc$1$[ebp], edi
  00018	85 f6		 test	 esi, esi
  0001a	75 2f		 jne	 SHORT $LN19@SetupCompa
  0001c	39 7d 10	 cmp	 DWORD PTR _pTfConvMode$[ebp], edi
  0001f	0f 85 3c 01 00
	00		 jne	 $LN4@SetupCompa

; 2084 : 	{
; 2085 : 		bLocalCompartments = true;
; 2086 : 		GetCompartments( &pcm, &pTfOpenMode, &pTfConvMode );

  00025	8d 45 10	 lea	 eax, DWORD PTR _pTfConvMode$[ebp]
  00028	c6 45 ff 01	 mov	 BYTE PTR _bLocalCompartments$1$[ebp], 1
  0002c	50		 push	 eax
  0002d	8d 45 0c	 lea	 eax, DWORD PTR _pTfOpenMode$[ebp]
  00030	50		 push	 eax
  00031	8d 45 f4	 lea	 eax, DWORD PTR _pcm$[ebp]
  00034	50		 push	 eax
  00035	e8 00 00 00 00	 call	 ?GetCompartments@CTsfUiLessMode@@KAHPAPAUITfCompartmentMgr@@PAPAUITfCompartment@@1@Z ; CTsfUiLessMode::GetCompartments

; 2087 : 	}
; 2088 : 	if ( !( pTfOpenMode && pTfConvMode ) )

  0003a	8b 75 0c	 mov	 esi, DWORD PTR _pTfOpenMode$[ebp]
  0003d	83 c4 0c	 add	 esp, 12			; 0000000cH
  00040	85 f6		 test	 esi, esi
  00042	0f 84 19 01 00
	00		 je	 $LN4@SetupCompa
  00048	8b 7d f4	 mov	 edi, DWORD PTR _pcm$[ebp]
$LN19@SetupCompa:
  0004b	8b 5d 10	 mov	 ebx, DWORD PTR _pTfConvMode$[ebp]
  0004e	85 db		 test	 ebx, ebx
  00050	0f 84 0b 01 00
	00		 je	 $LN4@SetupCompa

; 2089 : 	{
; 2090 : 		// Invalid parameters or GetCompartments() has failed.
; 2091 : 		return FALSE;
; 2092 : 	}
; 2093 : 	ITfSource *srcOpenMode = NULL;
; 2094 : 	if (SUCCEEDED(hr = pTfOpenMode->QueryInterface( IID_ITfSource, (void**)&srcOpenMode )))

  00056	8d 4d f8	 lea	 ecx, DWORD PTR _srcOpenMode$[ebp]
  00059	c7 45 f8 00 00
	00 00		 mov	 DWORD PTR _srcOpenMode$[ebp], 0
  00060	8b 06		 mov	 eax, DWORD PTR [esi]
  00062	51		 push	 ecx
  00063	68 00 00 00 00	 push	 OFFSET _IID_ITfSource
  00068	56		 push	 esi
  00069	ff 10		 call	 DWORD PTR [eax]
  0006b	85 c0		 test	 eax, eax
  0006d	0f 88 cc 00 00
	00		 js	 $LN5@SetupCompa

; 2095 : 	{
; 2096 : 		// Remove existing sink for open mode
; 2097 : 		if ( m_dwOpenModeSinkCookie != TF_INVALID_COOKIE )

  00073	8b 15 00 00 00
	00		 mov	 edx, DWORD PTR ?m_dwOpenModeSinkCookie@CTsfUiLessMode@@1KA ; CTsfUiLessMode::m_dwOpenModeSinkCookie
  00079	83 fa ff	 cmp	 edx, -1
  0007c	74 14		 je	 SHORT $LN6@SetupCompa

; 2098 : 		{
; 2099 : 			srcOpenMode->UnadviseSink( m_dwOpenModeSinkCookie );

  0007e	8b 45 f8	 mov	 eax, DWORD PTR _srcOpenMode$[ebp]
  00081	52		 push	 edx
  00082	50		 push	 eax
  00083	8b 08		 mov	 ecx, DWORD PTR [eax]
  00085	ff 51 10	 call	 DWORD PTR [ecx+16]

; 2100 : 			m_dwOpenModeSinkCookie = TF_INVALID_COOKIE;

  00088	c7 05 00 00 00
	00 ff ff ff ff	 mov	 DWORD PTR ?m_dwOpenModeSinkCookie@CTsfUiLessMode@@1KA, -1 ; CTsfUiLessMode::m_dwOpenModeSinkCookie
$LN6@SetupCompa:

; 2101 : 		}
; 2102 : 		// Setup sink for open mode (toggle state) change
; 2103 : 		if ( bRemoveOnly || SUCCEEDED(hr = srcOpenMode->AdviseSink( IID_ITfCompartmentEventSink, (ITfCompartmentEventSink*)m_TsfSink, &m_dwOpenModeSinkCookie )))

  00092	83 7d 08 00	 cmp	 DWORD PTR _bRemoveOnly$[ebp], 0
  00096	75 28		 jne	 SHORT $LN8@SetupCompa
  00098	a1 00 00 00 00	 mov	 eax, DWORD PTR ?m_TsfSink@CTsfUiLessMode@@1PAVCUIElementSink@1@A ; CTsfUiLessMode::m_TsfSink
  0009d	85 c0		 test	 eax, eax
  0009f	74 05		 je	 SHORT $LN15@SetupCompa
  000a1	8d 50 08	 lea	 edx, DWORD PTR [eax+8]
  000a4	eb 02		 jmp	 SHORT $LN16@SetupCompa
$LN15@SetupCompa:
  000a6	33 d2		 xor	 edx, edx
$LN16@SetupCompa:
  000a8	8b 45 f8	 mov	 eax, DWORD PTR _srcOpenMode$[ebp]
  000ab	68 00 00 00 00	 push	 OFFSET ?m_dwOpenModeSinkCookie@CTsfUiLessMode@@1KA ; CTsfUiLessMode::m_dwOpenModeSinkCookie
  000b0	52		 push	 edx
  000b1	68 00 00 00 00	 push	 OFFSET _IID_ITfCompartmentEventSink
  000b6	8b 08		 mov	 ecx, DWORD PTR [eax]
  000b8	50		 push	 eax
  000b9	ff 51 0c	 call	 DWORD PTR [ecx+12]
  000bc	85 c0		 test	 eax, eax
  000be	78 76		 js	 SHORT $LN9@SetupCompa
$LN8@SetupCompa:

; 2104 : 		{
; 2105 : 			ITfSource *srcConvMode = NULL;
; 2106 : 			if (SUCCEEDED(hr = pTfConvMode->QueryInterface( IID_ITfSource, (void**)&srcConvMode )))

  000c0	8d 4d 0c	 lea	 ecx, DWORD PTR _srcConvMode$1[ebp]
  000c3	c7 45 0c 00 00
	00 00		 mov	 DWORD PTR _srcConvMode$1[ebp], 0
  000ca	8b 03		 mov	 eax, DWORD PTR [ebx]
  000cc	51		 push	 ecx
  000cd	68 00 00 00 00	 push	 OFFSET _IID_ITfSource
  000d2	53		 push	 ebx
  000d3	ff 10		 call	 DWORD PTR [eax]
  000d5	85 c0		 test	 eax, eax
  000d7	78 5d		 js	 SHORT $LN9@SetupCompa

; 2107 : 			{
; 2108 : 				// Remove existing sink for open mode
; 2109 : 				if ( m_dwConvModeSinkCookie != TF_INVALID_COOKIE )

  000d9	8b 15 00 00 00
	00		 mov	 edx, DWORD PTR ?m_dwConvModeSinkCookie@CTsfUiLessMode@@1KA ; CTsfUiLessMode::m_dwConvModeSinkCookie
  000df	83 fa ff	 cmp	 edx, -1
  000e2	74 14		 je	 SHORT $LN10@SetupCompa

; 2110 : 				{
; 2111 : 					srcConvMode->UnadviseSink( m_dwConvModeSinkCookie );

  000e4	8b 45 0c	 mov	 eax, DWORD PTR _srcConvMode$1[ebp]
  000e7	52		 push	 edx
  000e8	50		 push	 eax
  000e9	8b 08		 mov	 ecx, DWORD PTR [eax]
  000eb	ff 51 10	 call	 DWORD PTR [ecx+16]

; 2112 : 					m_dwConvModeSinkCookie = TF_INVALID_COOKIE;

  000ee	c7 05 00 00 00
	00 ff ff ff ff	 mov	 DWORD PTR ?m_dwConvModeSinkCookie@CTsfUiLessMode@@1KA, -1 ; CTsfUiLessMode::m_dwConvModeSinkCookie
$LN10@SetupCompa:

; 2113 : 				}
; 2114 : 				// Setup sink for open mode (toggle state) change
; 2115 : 				if ( bRemoveOnly || SUCCEEDED(hr = srcConvMode->AdviseSink( IID_ITfCompartmentEventSink, (ITfCompartmentEventSink*)m_TsfSink, &m_dwConvModeSinkCookie )))

  000f8	83 7d 08 00	 cmp	 DWORD PTR _bRemoveOnly$[ebp], 0
  000fc	75 28		 jne	 SHORT $LN12@SetupCompa
  000fe	a1 00 00 00 00	 mov	 eax, DWORD PTR ?m_TsfSink@CTsfUiLessMode@@1PAVCUIElementSink@1@A ; CTsfUiLessMode::m_TsfSink
  00103	85 c0		 test	 eax, eax
  00105	74 05		 je	 SHORT $LN17@SetupCompa
  00107	8d 50 08	 lea	 edx, DWORD PTR [eax+8]
  0010a	eb 02		 jmp	 SHORT $LN18@SetupCompa
$LN17@SetupCompa:
  0010c	33 d2		 xor	 edx, edx
$LN18@SetupCompa:
  0010e	8b 45 0c	 mov	 eax, DWORD PTR _srcConvMode$1[ebp]
  00111	68 00 00 00 00	 push	 OFFSET ?m_dwConvModeSinkCookie@CTsfUiLessMode@@1KA ; CTsfUiLessMode::m_dwConvModeSinkCookie
  00116	52		 push	 edx
  00117	68 00 00 00 00	 push	 OFFSET _IID_ITfCompartmentEventSink
  0011c	8b 08		 mov	 ecx, DWORD PTR [eax]
  0011e	50		 push	 eax
  0011f	ff 51 0c	 call	 DWORD PTR [ecx+12]
  00122	85 c0		 test	 eax, eax
  00124	78 07		 js	 SHORT $LN11@SetupCompa
$LN12@SetupCompa:

; 2116 : 				{
; 2117 : 					bRc = TRUE;

  00126	c7 45 f0 01 00
	00 00		 mov	 DWORD PTR _bRc$1$[ebp], 1
$LN11@SetupCompa:

; 2118 : 				}
; 2119 : 				srcConvMode->Release();

  0012d	8b 45 0c	 mov	 eax, DWORD PTR _srcConvMode$1[ebp]
  00130	50		 push	 eax
  00131	8b 08		 mov	 ecx, DWORD PTR [eax]
  00133	ff 51 08	 call	 DWORD PTR [ecx+8]
$LN9@SetupCompa:

; 2120 : 			}
; 2121 : 		}
; 2122 : 		srcOpenMode->Release();

  00136	8b 45 f8	 mov	 eax, DWORD PTR _srcOpenMode$[ebp]
  00139	50		 push	 eax
  0013a	8b 08		 mov	 ecx, DWORD PTR [eax]
  0013c	ff 51 08	 call	 DWORD PTR [ecx+8]
$LN5@SetupCompa:

; 2123 : 	}
; 2124 : 	if ( bLocalCompartments )

  0013f	80 7d ff 00	 cmp	 BYTE PTR _bLocalCompartments$1$[ebp], 0
  00143	74 12		 je	 SHORT $LN13@SetupCompa

; 2125 : 	{
; 2126 : 		pTfOpenMode->Release();

  00145	8b 06		 mov	 eax, DWORD PTR [esi]
  00147	56		 push	 esi
  00148	ff 50 08	 call	 DWORD PTR [eax+8]

; 2127 : 		pTfConvMode->Release();

  0014b	8b 0b		 mov	 ecx, DWORD PTR [ebx]
  0014d	53		 push	 ebx
  0014e	ff 51 08	 call	 DWORD PTR [ecx+8]

; 2128 : 		pcm->Release();

  00151	8b 0f		 mov	 ecx, DWORD PTR [edi]
  00153	57		 push	 edi
  00154	ff 51 08	 call	 DWORD PTR [ecx+8]
$LN13@SetupCompa:

; 2129 : 	}
; 2130 : 	return bRc;

  00157	8b 45 f0	 mov	 eax, DWORD PTR _bRc$1$[ebp]
  0015a	5f		 pop	 edi

; 2131 : }

  0015b	5e		 pop	 esi
  0015c	5b		 pop	 ebx
  0015d	8b e5		 mov	 esp, ebp
  0015f	5d		 pop	 ebp
  00160	c3		 ret	 0
$LN4@SetupCompa:
  00161	5f		 pop	 edi
  00162	5e		 pop	 esi
  00163	33 c0		 xor	 eax, eax
  00165	5b		 pop	 ebx
  00166	8b e5		 mov	 esp, ebp
  00168	5d		 pop	 ebp
  00169	c3		 ret	 0
?SetupCompartmentSinks@CTsfUiLessMode@@KAHHPAUITfCompartment@@0@Z ENDP ; CTsfUiLessMode::SetupCompartmentSinks
_TEXT	ENDS
; Function compile flags: /Ogtp
; File C:\DS Project\DS Files\Source\ClientSource\Client\EterLib\IME.cpp
;	COMDAT ?GetCompartments@CTsfUiLessMode@@KAHPAPAUITfCompartmentMgr@@PAPAUITfCompartment@@1@Z
_TEXT	SEGMENT
_pTfConvMode$ = -12					; size = 4
_pTfOpenMode$ = -8					; size = 4
_pcm$ = -4						; size = 4
_ppcm$ = 8						; size = 4
_ppTfOpenMode$ = 12					; size = 4
_ppTfConvMode$ = 16					; size = 4
?GetCompartments@CTsfUiLessMode@@KAHPAPAUITfCompartmentMgr@@PAPAUITfCompartment@@1@Z PROC ; CTsfUiLessMode::GetCompartments, COMDAT

; 2046 : {

  00000	55		 push	 ebp
  00001	8b ec		 mov	 ebp, esp
  00003	83 ec 0c	 sub	 esp, 12			; 0000000cH

; 2047 : 	ITfCompartmentMgr* pcm = NULL;
; 2048 : 	ITfCompartment* pTfOpenMode = NULL;
; 2049 : 	ITfCompartment* pTfConvMode = NULL;
; 2050 : 
; 2051 : 	static GUID _GUID_COMPARTMENT_KEYBOARD_INPUTMODE_CONVERSION = { 0xCCF05DD8, 0x4A87, 0x11D7, 0xA6, 0xE2, 0x00, 0x06, 0x5B, 0x84, 0x43, 0x5C };
; 2052 : 
; 2053 : 	HRESULT hr;
; 2054 : 	if (SUCCEEDED(hr = m_tm->QueryInterface( IID_ITfCompartmentMgr, (void**)&pcm )))

  00006	a1 00 00 00 00	 mov	 eax, DWORD PTR ?m_tm@CTsfUiLessMode@@1PAUITfThreadMgrEx@@A ; CTsfUiLessMode::m_tm
  0000b	8d 55 fc	 lea	 edx, DWORD PTR _pcm$[ebp]
  0000e	52		 push	 edx
  0000f	c7 45 fc 00 00
	00 00		 mov	 DWORD PTR _pcm$[ebp], 0
  00016	c7 45 f8 00 00
	00 00		 mov	 DWORD PTR _pTfOpenMode$[ebp], 0
  0001d	c7 45 f4 00 00
	00 00		 mov	 DWORD PTR _pTfConvMode$[ebp], 0
  00024	8b 08		 mov	 ecx, DWORD PTR [eax]
  00026	68 00 00 00 00	 push	 OFFSET _IID_ITfCompartmentMgr
  0002b	50		 push	 eax
  0002c	ff 11		 call	 DWORD PTR [ecx]
  0002e	85 c0		 test	 eax, eax
  00030	78 5f		 js	 SHORT $LN2@GetCompart

; 2055 : 	{
; 2056 : 		if (SUCCEEDED(hr = pcm->GetCompartment( GUID_COMPARTMENT_KEYBOARD_OPENCLOSE, &pTfOpenMode )))

  00032	8b 45 fc	 mov	 eax, DWORD PTR _pcm$[ebp]
  00035	8d 55 f8	 lea	 edx, DWORD PTR _pTfOpenMode$[ebp]
  00038	52		 push	 edx
  00039	68 00 00 00 00	 push	 OFFSET _GUID_COMPARTMENT_KEYBOARD_OPENCLOSE
  0003e	50		 push	 eax
  0003f	8b 08		 mov	 ecx, DWORD PTR [eax]
  00041	ff 51 0c	 call	 DWORD PTR [ecx+12]
  00044	85 c0		 test	 eax, eax
  00046	78 40		 js	 SHORT $LN3@GetCompart

; 2057 : 		{
; 2058 : 			if (SUCCEEDED(hr = pcm->GetCompartment( _GUID_COMPARTMENT_KEYBOARD_INPUTMODE_CONVERSION, &pTfConvMode )))

  00048	8b 45 fc	 mov	 eax, DWORD PTR _pcm$[ebp]
  0004b	8d 55 f4	 lea	 edx, DWORD PTR _pTfConvMode$[ebp]
  0004e	52		 push	 edx
  0004f	68 00 00 00 00	 push	 OFFSET ?_GUID_COMPARTMENT_KEYBOARD_INPUTMODE_CONVERSION@?1??GetCompartments@CTsfUiLessMode@@KAHPAPAUITfCompartmentMgr@@PAPAUITfCompartment@@1@Z@4U_GUID@@A
  00054	50		 push	 eax
  00055	8b 08		 mov	 ecx, DWORD PTR [eax]
  00057	ff 51 0c	 call	 DWORD PTR [ecx+12]
  0005a	85 c0		 test	 eax, eax
  0005c	78 21		 js	 SHORT $LN4@GetCompart

; 2059 : 			{
; 2060 : 				*ppcm = pcm;

  0005e	8b 4d 08	 mov	 ecx, DWORD PTR _ppcm$[ebp]
  00061	8b 45 fc	 mov	 eax, DWORD PTR _pcm$[ebp]
  00064	89 01		 mov	 DWORD PTR [ecx], eax

; 2061 : 				*ppTfOpenMode = pTfOpenMode;

  00066	8b 4d 0c	 mov	 ecx, DWORD PTR _ppTfOpenMode$[ebp]
  00069	8b 45 f8	 mov	 eax, DWORD PTR _pTfOpenMode$[ebp]
  0006c	89 01		 mov	 DWORD PTR [ecx], eax

; 2062 : 				*ppTfConvMode = pTfConvMode;

  0006e	8b 4d 10	 mov	 ecx, DWORD PTR _ppTfConvMode$[ebp]
  00071	8b 45 f4	 mov	 eax, DWORD PTR _pTfConvMode$[ebp]
  00074	89 01		 mov	 DWORD PTR [ecx], eax

; 2063 : 				return TRUE;

  00076	b8 01 00 00 00	 mov	 eax, 1

; 2070 : }

  0007b	8b e5		 mov	 esp, ebp
  0007d	5d		 pop	 ebp
  0007e	c3		 ret	 0
$LN4@GetCompart:

; 2064 : 			}
; 2065 : 			pTfOpenMode->Release();

  0007f	8b 45 f8	 mov	 eax, DWORD PTR _pTfOpenMode$[ebp]
  00082	50		 push	 eax
  00083	8b 08		 mov	 ecx, DWORD PTR [eax]
  00085	ff 51 08	 call	 DWORD PTR [ecx+8]
$LN3@GetCompart:

; 2066 : 		}
; 2067 : 		pcm->Release();

  00088	8b 45 fc	 mov	 eax, DWORD PTR _pcm$[ebp]
  0008b	50		 push	 eax
  0008c	8b 08		 mov	 ecx, DWORD PTR [eax]
  0008e	ff 51 08	 call	 DWORD PTR [ecx+8]
$LN2@GetCompart:

; 2068 : 	}
; 2069 : 	return FALSE;

  00091	33 c0		 xor	 eax, eax

; 2070 : }

  00093	8b e5		 mov	 esp, ebp
  00095	5d		 pop	 ebp
  00096	c3		 ret	 0
?GetCompartments@CTsfUiLessMode@@KAHPAPAUITfCompartmentMgr@@PAPAUITfCompartment@@1@Z ENDP ; CTsfUiLessMode::GetCompartments
_TEXT	ENDS
; Function compile flags: /Ogtp
; File C:\DS Project\DS Files\Source\ClientSource\Client\EterLib\IME.cpp
;	COMDAT ?GetUIElement@CTsfUiLessMode@@KAPAUITfUIElement@@K@Z
_TEXT	SEGMENT
_puiem$ = -8						; size = 4
_pElement$ = -4						; size = 4
_dwUIElementId$ = 8					; size = 4
?GetUIElement@CTsfUiLessMode@@KAPAUITfUIElement@@K@Z PROC ; CTsfUiLessMode::GetUIElement, COMDAT

; 1976 : {

  00000	55		 push	 ebp
  00001	8b ec		 mov	 ebp, esp
  00003	83 ec 08	 sub	 esp, 8

; 1977 :     ITfUIElementMgr *puiem;
; 1978 :     ITfUIElement *pElement = NULL;
; 1979 : 
; 1980 :     if (SUCCEEDED(m_tm->QueryInterface(__uuidof(ITfUIElementMgr), (void **)&puiem)))

  00006	a1 00 00 00 00	 mov	 eax, DWORD PTR ?m_tm@CTsfUiLessMode@@1PAUITfThreadMgrEx@@A ; CTsfUiLessMode::m_tm
  0000b	8d 55 f8	 lea	 edx, DWORD PTR _puiem$[ebp]
  0000e	52		 push	 edx
  0000f	c7 45 fc 00 00
	00 00		 mov	 DWORD PTR _pElement$[ebp], 0
  00016	68 00 00 00 00	 push	 OFFSET __GUID_ea1ea135_19df_11d7_a6d2_00065b84435c
  0001b	8b 08		 mov	 ecx, DWORD PTR [eax]
  0001d	50		 push	 eax
  0001e	ff 11		 call	 DWORD PTR [ecx]
  00020	85 c0		 test	 eax, eax
  00022	78 19		 js	 SHORT $LN4@GetUIEleme

; 1981 :     {
; 1982 :         puiem->GetUIElement(dwUIElementId, &pElement);

  00024	8b 45 f8	 mov	 eax, DWORD PTR _puiem$[ebp]
  00027	8d 55 fc	 lea	 edx, DWORD PTR _pElement$[ebp]
  0002a	52		 push	 edx
  0002b	ff 75 08	 push	 DWORD PTR _dwUIElementId$[ebp]
  0002e	8b 08		 mov	 ecx, DWORD PTR [eax]
  00030	50		 push	 eax
  00031	ff 51 18	 call	 DWORD PTR [ecx+24]

; 1983 :         puiem->Release();

  00034	8b 45 f8	 mov	 eax, DWORD PTR _puiem$[ebp]
  00037	50		 push	 eax
  00038	8b 08		 mov	 ecx, DWORD PTR [eax]
  0003a	ff 51 08	 call	 DWORD PTR [ecx+8]
$LN4@GetUIEleme:

; 1984 :     }
; 1985 : 
; 1986 :     return pElement;
; 1987 : }

  0003d	8b 45 fc	 mov	 eax, DWORD PTR _pElement$[ebp]
  00040	8b e5		 mov	 esp, ebp
  00042	5d		 pop	 ebp
  00043	c3		 ret	 0
?GetUIElement@CTsfUiLessMode@@KAPAUITfUIElement@@K@Z ENDP ; CTsfUiLessMode::GetUIElement
_TEXT	ENDS
; Function compile flags: /Ogtp
; File C:\DS Project\DS Files\Source\ClientSource\Client\EterLib\IME.cpp
;	COMDAT ?MakeCandidateStrings@CTsfUiLessMode@@KAXPAUITfCandidateListUIElement@@@Z
_TEXT	SEGMENT
_bstr$ = -28						; size = 4
_uCurrentPage$ = -24					; size = 4
_uIndex$ = -20						; size = 4
_IndexList$1$ = -16					; size = 4
tv309 = -12						; size = 4
_uCount$ = -8						; size = 4
_uPageCnt$ = -4						; size = 4
_pcandidate$ = 8					; size = 4
?MakeCandidateStrings@CTsfUiLessMode@@KAXPAUITfCandidateListUIElement@@@Z PROC ; CTsfUiLessMode::MakeCandidateStrings, COMDAT

; 1916 : {

  00000	55		 push	 ebp
  00001	8b ec		 mov	 ebp, esp
  00003	83 ec 1c	 sub	 esp, 28			; 0000001cH
  00006	53		 push	 ebx
  00007	56		 push	 esi
  00008	57		 push	 edi

; 1917 : 	UINT uIndex = 0;
; 1918 : 	UINT uCount = 0;
; 1919 : 	UINT uCurrentPage = 0;
; 1920 : 	UINT *IndexList = NULL;
; 1921 : 	UINT uPageCnt = 0;
; 1922 : 	DWORD dwPageStart = 0;
; 1923 : 	DWORD dwPageSize = 0;
; 1924 : 	BSTR bstr;
; 1925 : 
; 1926 : 	pcandidate->GetSelection(&uIndex);

  00009	8b 7d 08	 mov	 edi, DWORD PTR _pcandidate$[ebp]
  0000c	8d 4d ec	 lea	 ecx, DWORD PTR _uIndex$[ebp]
  0000f	33 c0		 xor	 eax, eax
  00011	c7 45 ec 00 00
	00 00		 mov	 DWORD PTR _uIndex$[ebp], 0
  00018	89 45 f0	 mov	 DWORD PTR _IndexList$1$[ebp], eax
  0001b	33 f6		 xor	 esi, esi
  0001d	89 45 fc	 mov	 DWORD PTR _uPageCnt$[ebp], eax
  00020	33 db		 xor	 ebx, ebx
  00022	8b 07		 mov	 eax, DWORD PTR [edi]
  00024	51		 push	 ecx
  00025	57		 push	 edi
  00026	c7 45 f8 00 00
	00 00		 mov	 DWORD PTR _uCount$[ebp], 0
  0002d	c7 45 e8 00 00
	00 00		 mov	 DWORD PTR _uCurrentPage$[ebp], 0
  00034	ff 50 28	 call	 DWORD PTR [eax+40]

; 1927 : 	pcandidate->GetCount(&uCount);

  00037	8b 07		 mov	 eax, DWORD PTR [edi]
  00039	8d 4d f8	 lea	 ecx, DWORD PTR _uCount$[ebp]
  0003c	51		 push	 ecx
  0003d	57		 push	 edi
  0003e	ff 50 24	 call	 DWORD PTR [eax+36]

; 1928 : 	pcandidate->GetCurrentPage(&uCurrentPage);

  00041	8b 07		 mov	 eax, DWORD PTR [edi]
  00043	8d 4d e8	 lea	 ecx, DWORD PTR _uCurrentPage$[ebp]
  00046	51		 push	 ecx
  00047	57		 push	 edi
  00048	ff 50 38	 call	 DWORD PTR [eax+56]

; 1929 : 	CIME::ms_dwCandidateSelection = (DWORD)uIndex;

  0004b	8b 45 ec	 mov	 eax, DWORD PTR _uIndex$[ebp]

; 1930 : 	CIME::ms_dwCandidateCount = (DWORD)uCount;
; 1931 : 	CIME::ms_bCandidateList = true;
; 1932 : 
; 1933 : 	pcandidate->GetPageIndex(NULL, 0, &uPageCnt);

  0004e	8d 4d fc	 lea	 ecx, DWORD PTR _uPageCnt$[ebp]
  00051	51		 push	 ecx
  00052	a3 00 00 00 00	 mov	 DWORD PTR ?ms_dwCandidateSelection@CIME@@2KA, eax ; CIME::ms_dwCandidateSelection
  00057	8b 45 f8	 mov	 eax, DWORD PTR _uCount$[ebp]
  0005a	53		 push	 ebx
  0005b	a3 00 00 00 00	 mov	 DWORD PTR ?ms_dwCandidateCount@CIME@@2KA, eax ; CIME::ms_dwCandidateCount
  00060	c6 05 00 00 00
	00 01		 mov	 BYTE PTR ?ms_bCandidateList@CIME@@2_NA, 1 ; CIME::ms_bCandidateList
  00067	8b 07		 mov	 eax, DWORD PTR [edi]
  00069	53		 push	 ebx
  0006a	57		 push	 edi
  0006b	ff 50 30	 call	 DWORD PTR [eax+48]

; 1934 : 	if(uPageCnt > 0)

  0006e	8b 45 fc	 mov	 eax, DWORD PTR _uPageCnt$[ebp]
  00071	85 c0		 test	 eax, eax
  00073	74 46		 je	 SHORT $LN15@MakeCandid

; 1935 : 	{
; 1936 : 		IndexList = (UINT *) malloc(sizeof(UINT)*uPageCnt);

  00075	c1 e0 02	 shl	 eax, 2
  00078	50		 push	 eax
  00079	e8 00 00 00 00	 call	 _malloc
  0007e	83 c4 04	 add	 esp, 4
  00081	89 45 f0	 mov	 DWORD PTR _IndexList$1$[ebp], eax

; 1937 : 		if(IndexList)

  00084	85 c0		 test	 eax, eax
  00086	74 33		 je	 SHORT $LN15@MakeCandid

; 1938 : 		{
; 1939 : 			pcandidate->GetPageIndex(IndexList, uPageCnt, &uPageCnt);

  00088	8b 0f		 mov	 ecx, DWORD PTR [edi]
  0008a	8d 55 fc	 lea	 edx, DWORD PTR _uPageCnt$[ebp]
  0008d	52		 push	 edx
  0008e	ff 75 fc	 push	 DWORD PTR _uPageCnt$[ebp]
  00091	50		 push	 eax
  00092	57		 push	 edi
  00093	ff 51 30	 call	 DWORD PTR [ecx+48]

; 1940 : 			dwPageStart = IndexList[uCurrentPage];

  00096	8b 4d e8	 mov	 ecx, DWORD PTR _uCurrentPage$[ebp]
  00099	8b 45 f0	 mov	 eax, DWORD PTR _IndexList$1$[ebp]
  0009c	8b 34 88	 mov	 esi, DWORD PTR [eax+ecx*4]
  0009f	8d 1c 88	 lea	 ebx, DWORD PTR [eax+ecx*4]

; 1941 : 			dwPageSize = (uCurrentPage < uPageCnt-1) ?

  000a2	8b 45 fc	 mov	 eax, DWORD PTR _uPageCnt$[ebp]
  000a5	48		 dec	 eax
  000a6	3b c8		 cmp	 ecx, eax
  000a8	73 0c		 jae	 SHORT $LN14@MakeCandid
  000aa	8b 5b 04	 mov	 ebx, DWORD PTR [ebx+4]
  000ad	39 5d f8	 cmp	 DWORD PTR _uCount$[ebp], ebx
  000b0	0f 42 5d f8	 cmovb	 ebx, DWORD PTR _uCount$[ebp]
  000b4	eb 03		 jmp	 SHORT $LN30@MakeCandid
$LN14@MakeCandid:
  000b6	8b 5d f8	 mov	 ebx, DWORD PTR _uCount$[ebp]
$LN30@MakeCandid:

; 1942 : 				min(uCount, IndexList[uCurrentPage+1]) - dwPageStart:
; 1943 : 				uCount - dwPageStart;
; 1944 : 		}
; 1945 : 	}
; 1946 : 
; 1947 : 	CIME::ms_dwCandidatePageSize = min(dwPageSize, CIME::MAX_CANDLIST);

  000b9	2b de		 sub	 ebx, esi
$LN15@MakeCandid:
  000bb	bf 0a 00 00 00	 mov	 edi, 10			; 0000000aH

; 1948 : 	CIME::ms_dwCandidateSelection = CIME::ms_dwCandidateSelection - dwPageStart;
; 1949 : 
; 1950 : 	memset(&CIME::ms_wszCandidate, 0, sizeof(CIME::ms_wszCandidate));

  000c0	68 00 14 00 00	 push	 5120			; 00001400H
  000c5	3b df		 cmp	 ebx, edi
  000c7	6a 00		 push	 0
  000c9	0f 42 fb	 cmovb	 edi, ebx
  000cc	29 35 00 00 00
	00		 sub	 DWORD PTR ?ms_dwCandidateSelection@CIME@@2KA, esi ; CIME::ms_dwCandidateSelection
  000d2	68 00 00 00 00	 push	 OFFSET ?ms_wszCandidate@CIME@@2PAY0BAA@_WA ; CIME::ms_wszCandidate
  000d7	89 3d 00 00 00
	00		 mov	 DWORD PTR ?ms_dwCandidatePageSize@CIME@@2KA, edi ; CIME::ms_dwCandidatePageSize
  000dd	e8 00 00 00 00	 call	 _memset
  000e2	83 c4 0c	 add	 esp, 12			; 0000000cH

; 1951 : 	for (UINT i = dwPageStart, j = 0; (DWORD)i < CIME::ms_dwCandidateCount && j < CIME::ms_dwCandidatePageSize; i++, j++)

  000e5	33 db		 xor	 ebx, ebx
  000e7	3b 35 00 00 00
	00		 cmp	 esi, DWORD PTR ?ms_dwCandidateCount@CIME@@2KA ; CIME::ms_dwCandidateCount
  000ed	73 61		 jae	 SHORT $LN29@MakeCandid

; 1942 : 				min(uCount, IndexList[uCurrentPage+1]) - dwPageStart:
; 1943 : 				uCount - dwPageStart;
; 1944 : 		}
; 1945 : 	}
; 1946 : 
; 1947 : 	CIME::ms_dwCandidatePageSize = min(dwPageSize, CIME::MAX_CANDLIST);

  000ef	c7 45 f4 00 00
	00 00		 mov	 DWORD PTR tv309[ebp], OFFSET ?ms_wszCandidate@CIME@@2PAY0BAA@_WA ; CIME::ms_wszCandidate
$LL4@MakeCandid:

; 1951 : 	for (UINT i = dwPageStart, j = 0; (DWORD)i < CIME::ms_dwCandidateCount && j < CIME::ms_dwCandidatePageSize; i++, j++)

  000f6	3b df		 cmp	 ebx, edi
  000f8	73 56		 jae	 SHORT $LN29@MakeCandid

; 1952 : 	{
; 1953 : 		if (SUCCEEDED(pcandidate->GetString( i, &bstr )))

  000fa	8b 4d 08	 mov	 ecx, DWORD PTR _pcandidate$[ebp]
  000fd	8d 55 e4	 lea	 edx, DWORD PTR _bstr$[ebp]
  00100	52		 push	 edx
  00101	56		 push	 esi
  00102	51		 push	 ecx
  00103	8b 01		 mov	 eax, DWORD PTR [ecx]
  00105	ff 50 2c	 call	 DWORD PTR [eax+44]
  00108	85 c0		 test	 eax, eax
  0010a	78 2b		 js	 SHORT $LN2@MakeCandid

; 1954 : 		{
; 1955 : 			if(bstr)

  0010c	8b 7d e4	 mov	 edi, DWORD PTR _bstr$[ebp]
  0010f	85 ff		 test	 edi, edi
  00111	74 24		 je	 SHORT $LN2@MakeCandid

; 1956 : 			{
; 1957 : 				wcscpy( CIME::ms_wszCandidate[j], bstr );

  00113	8b 55 f4	 mov	 edx, DWORD PTR tv309[ebp]
  00116	8b c7		 mov	 eax, edi
  00118	2b d7		 sub	 edx, edi
  0011a	66 0f 1f 44 00
	00		 npad	 6
$LL16@MakeCandid:
  00120	0f b7 08	 movzx	 ecx, WORD PTR [eax]
  00123	8d 40 02	 lea	 eax, DWORD PTR [eax+2]
  00126	66 89 4c 02 fe	 mov	 WORD PTR [edx+eax-2], cx
  0012b	66 85 c9	 test	 cx, cx
  0012e	75 f0		 jne	 SHORT $LL16@MakeCandid

; 1958 : 				SysFreeString(bstr);

  00130	57		 push	 edi
  00131	ff 15 00 00 00
	00		 call	 DWORD PTR __imp__SysFreeString@4
$LN2@MakeCandid:

; 1951 : 	for (UINT i = dwPageStart, j = 0; (DWORD)i < CIME::ms_dwCandidateCount && j < CIME::ms_dwCandidatePageSize; i++, j++)

  00137	81 45 f4 00 02
	00 00		 add	 DWORD PTR tv309[ebp], 512 ; 00000200H
  0013e	46		 inc	 esi
  0013f	43		 inc	 ebx
  00140	3b 35 00 00 00
	00		 cmp	 esi, DWORD PTR ?ms_dwCandidateCount@CIME@@2KA ; CIME::ms_dwCandidateCount
  00146	73 08		 jae	 SHORT $LN29@MakeCandid
  00148	8b 3d 00 00 00
	00		 mov	 edi, DWORD PTR ?ms_dwCandidatePageSize@CIME@@2KA ; CIME::ms_dwCandidatePageSize
  0014e	eb a6		 jmp	 SHORT $LL4@MakeCandid
$LN29@MakeCandid:

; 1959 : 			}
; 1960 : 		}
; 1961 : 	}
; 1962 : 	//OutputDebugStringW( L"\n" );
; 1963 : 
; 1964 : 	if (GETPRIMLANG() == LANG_KOREAN)

  00150	a1 00 00 00 00	 mov	 eax, DWORD PTR ?ms_hklCurrent@CIME@@2PAUHKL__@@A ; CIME::ms_hklCurrent
  00155	83 c9 ff	 or	 ecx, -1
  00158	25 ff 03 00 00	 and	 eax, 1023		; 000003ffH
  0015d	83 f8 12	 cmp	 eax, 18			; 00000012H
  00160	a1 00 00 00 00	 mov	 eax, DWORD PTR ?ms_dwCandidateSelection@CIME@@2KA ; CIME::ms_dwCandidateSelection

; 1965 : 	{
; 1966 : 		CIME::ms_dwCandidateSelection = (DWORD)-1;
; 1967 : 	}
; 1968 : 
; 1969 : 	if(IndexList)

  00165	5f		 pop	 edi
  00166	0f 44 c1	 cmove	 eax, ecx
  00169	a3 00 00 00 00	 mov	 DWORD PTR ?ms_dwCandidateSelection@CIME@@2KA, eax ; CIME::ms_dwCandidateSelection
  0016e	8b 45 f0	 mov	 eax, DWORD PTR _IndexList$1$[ebp]
  00171	5e		 pop	 esi
  00172	5b		 pop	 ebx
  00173	85 c0		 test	 eax, eax
  00175	74 09		 je	 SHORT $LN10@MakeCandid

; 1970 : 	{
; 1971 : 		free(IndexList);

  00177	50		 push	 eax
  00178	e8 00 00 00 00	 call	 _free
  0017d	83 c4 04	 add	 esp, 4
$LN10@MakeCandid:

; 1972 : 	}
; 1973 : }

  00180	8b e5		 mov	 esp, ebp
  00182	5d		 pop	 ebp
  00183	c3		 ret	 0
?MakeCandidateStrings@CTsfUiLessMode@@KAXPAUITfCandidateListUIElement@@@Z ENDP ; CTsfUiLessMode::MakeCandidateStrings
_TEXT	ENDS
; Function compile flags: /Ogtp
; File C:\DS Project\DS Files\Source\ClientSource\Client\EterLib\IME.cpp
; File C:\Program Files (x86)\Microsoft Visual Studio\2019\Community\VC\Tools\MSVC\14.27.29110\include\vector
; File C:\DS Project\DS Files\Source\ClientSource\Client\EterLib\IME.cpp
; File C:\Program Files (x86)\Microsoft Visual Studio\2019\Community\VC\Tools\MSVC\14.27.29110\include\vector
; File C:\DS Project\DS Files\Source\ClientSource\Client\EterLib\IME.cpp
; File C:\Program Files (x86)\Microsoft Visual Studio\2019\Community\VC\Tools\MSVC\14.27.29110\include\vector
; File C:\DS Project\DS Files\Source\ClientSource\Client\EterLib\IME.cpp
; File C:\Program Files (x86)\Microsoft Visual Studio\2019\Community\VC\Tools\MSVC\14.27.29110\include\vector
; File C:\DS Project\DS Files\Source\ClientSource\Client\EterLib\IME.cpp
; File C:\Program Files (x86)\Microsoft Visual Studio\2019\Community\VC\Tools\MSVC\14.27.29110\include\vector
; File C:\DS Project\DS Files\Source\ClientSource\Client\EterLib\IME.cpp
; File C:\Program Files (x86)\Microsoft Visual Studio\2019\Community\VC\Tools\MSVC\14.27.29110\include\vector
; File C:\DS Project\DS Files\Source\ClientSource\Client\EterLib\IME.cpp
;	COMDAT ?MakeReadingInformationString@CTsfUiLessMode@@KAXPAUITfReadingInformationUIElement@@@Z
_TEXT	SEGMENT
_dwFlags$ = -24						; size = 4
_cchMax$ = -20						; size = 4
_i$1$ = -16						; size = 4
_pszSource$1$ = -12					; size = 4
_fVertical$ = -8					; size = 4
_uErrorIndex$ = -4					; size = 4
_bstr$ = 8						; size = 4
_preading$ = 8						; size = 4
?MakeReadingInformationString@CTsfUiLessMode@@KAXPAUITfReadingInformationUIElement@@@Z PROC ; CTsfUiLessMode::MakeReadingInformationString, COMDAT

; 1864 : {

  00000	55		 push	 ebp
  00001	8b ec		 mov	 ebp, esp
  00003	83 ec 18	 sub	 esp, 24			; 00000018H
; File C:\Program Files (x86)\Microsoft Visual Studio\2019\Community\VC\Tools\MSVC\14.27.29110\include\vector

; 1215 :         const auto _Oldsize = static_cast<size_type>(_Mylast - _Myfirst);

  00006	8b 15 04 00 00
	00		 mov	 edx, DWORD PTR ?ms_wstrReading@CIME@@2V?$vector@_WV?$allocator@_W@std@@@std@@A+4
; File C:\DS Project\DS Files\Source\ClientSource\Client\EterLib\IME.cpp

; 1871 : 	preading->GetUpdatedFlags(&dwFlags);

  0000c	8d 4d e8	 lea	 ecx, DWORD PTR _dwFlags$[ebp]
; File C:\Program Files (x86)\Microsoft Visual Studio\2019\Community\VC\Tools\MSVC\14.27.29110\include\vector

; 1215 :         const auto _Oldsize = static_cast<size_type>(_Mylast - _Myfirst);

  0000f	8b c2		 mov	 eax, edx
; File C:\DS Project\DS Files\Source\ClientSource\Client\EterLib\IME.cpp

; 1866 : 	UINT uErrorIndex = 0;

  00011	c7 45 fc 00 00
	00 00		 mov	 DWORD PTR _uErrorIndex$[ebp], 0
; File C:\Program Files (x86)\Microsoft Visual Studio\2019\Community\VC\Tools\MSVC\14.27.29110\include\vector

; 1215 :         const auto _Oldsize = static_cast<size_type>(_Mylast - _Myfirst);

  00018	2b 05 00 00 00
	00		 sub	 eax, DWORD PTR ?ms_wstrReading@CIME@@2V?$vector@_WV?$allocator@_W@std@@@std@@A
; File C:\DS Project\DS Files\Source\ClientSource\Client\EterLib\IME.cpp

; 1864 : {

  0001e	56		 push	 esi

; 1871 : 	preading->GetUpdatedFlags(&dwFlags);

  0001f	8b 75 08	 mov	 esi, DWORD PTR _preading$[ebp]
; File C:\Program Files (x86)\Microsoft Visual Studio\2019\Community\VC\Tools\MSVC\14.27.29110\include\vector

; 1215 :         const auto _Oldsize = static_cast<size_type>(_Mylast - _Myfirst);

  00022	d1 f8		 sar	 eax, 1
; File C:\DS Project\DS Files\Source\ClientSource\Client\EterLib\IME.cpp

; 1871 : 	preading->GetUpdatedFlags(&dwFlags);

  00024	51		 push	 ecx
; File C:\Program Files (x86)\Microsoft Visual Studio\2019\Community\VC\Tools\MSVC\14.27.29110\include\vector

; 1216 :         if (_Newsize < _Oldsize) { // trim

  00025	0f 45 15 00 00
	00 00		 cmovne	 edx, DWORD PTR ?ms_wstrReading@CIME@@2V?$vector@_WV?$allocator@_W@std@@@std@@A
  0002c	89 15 04 00 00
	00		 mov	 DWORD PTR ?ms_wstrReading@CIME@@2V?$vector@_WV?$allocator@_W@std@@@std@@A+4, edx
; File C:\DS Project\DS Files\Source\ClientSource\Client\EterLib\IME.cpp

; 1871 : 	preading->GetUpdatedFlags(&dwFlags);

  00032	8b 06		 mov	 eax, DWORD PTR [esi]
  00034	56		 push	 esi
  00035	ff 50 1c	 call	 DWORD PTR [eax+28]

; 1872 : 	preading->GetMaxReadingStringLength(&cchMax);

  00038	8b 06		 mov	 eax, DWORD PTR [esi]
  0003a	8d 4d ec	 lea	 ecx, DWORD PTR _cchMax$[ebp]
  0003d	51		 push	 ecx
  0003e	56		 push	 esi
  0003f	ff 50 28	 call	 DWORD PTR [eax+40]

; 1873 : 	preading->GetErrorIndex(&uErrorIndex);	// errorIndex is zero-based

  00042	8b 06		 mov	 eax, DWORD PTR [esi]
  00044	8d 4d fc	 lea	 ecx, DWORD PTR _uErrorIndex$[ebp]
  00047	51		 push	 ecx
  00048	56		 push	 esi
  00049	ff 50 2c	 call	 DWORD PTR [eax+44]

; 1874 : 	preading->IsVerticalOrderPreferred(&fVertical);

  0004c	8b 06		 mov	 eax, DWORD PTR [esi]
  0004e	8d 4d f8	 lea	 ecx, DWORD PTR _fVertical$[ebp]
  00051	51		 push	 ecx
  00052	56		 push	 esi
  00053	ff 50 30	 call	 DWORD PTR [eax+48]

; 1875 : 	CIME::ms_iReadingError = (int)uErrorIndex;
; 1876 : 	CIME::ms_bHorizontalReading = !fVertical;

  00056	83 7d f8 00	 cmp	 DWORD PTR _fVertical$[ebp], 0

; 1877 : 	CIME::ms_bReadingInformation = true;
; 1878 : 	BSTR bstr;
; 1879 : 	if (SUCCEEDED(preading->GetString(&bstr)))

  0005a	8d 4d 08	 lea	 ecx, DWORD PTR _bstr$[ebp]
  0005d	8b 45 fc	 mov	 eax, DWORD PTR _uErrorIndex$[ebp]
  00060	a3 00 00 00 00	 mov	 DWORD PTR ?ms_iReadingError@CIME@@2HA, eax ; CIME::ms_iReadingError
  00065	0f 94 05 00 00
	00 00		 sete	 BYTE PTR ?ms_bHorizontalReading@CIME@@2_NA ; CIME::ms_bHorizontalReading
  0006c	c6 05 00 00 00
	00 01		 mov	 BYTE PTR ?ms_bReadingInformation@CIME@@2_NA, 1 ; CIME::ms_bReadingInformation
  00073	8b 06		 mov	 eax, DWORD PTR [esi]
  00075	51		 push	 ecx
  00076	56		 push	 esi
  00077	ff 50 24	 call	 DWORD PTR [eax+36]
  0007a	85 c0		 test	 eax, eax
  0007c	0f 88 bb 00 00
	00		 js	 $LN6@MakeReadin

; 1880 : 	{
; 1881 : 		if (bstr)

  00082	8b 45 08	 mov	 eax, DWORD PTR _bstr$[ebp]
  00085	85 c0		 test	 eax, eax
  00087	0f 84 b0 00 00
	00		 je	 $LN6@MakeReadin

; 1882 : 		{
; 1883 : 			CIME::ms_wstrReading.assign( (wchar_t *) bstr, (wchar_t *) bstr+lstrlenW(bstr) );

  0008d	50		 push	 eax
  0008e	ff 15 00 00 00
	00		 call	 DWORD PTR __imp__lstrlenW@4
  00094	8b 4d 08	 mov	 ecx, DWORD PTR _bstr$[ebp]
  00097	8d 04 41	 lea	 eax, DWORD PTR [ecx+eax*2]
  0009a	50		 push	 eax
  0009b	51		 push	 ecx
  0009c	b9 00 00 00 00	 mov	 ecx, OFFSET ?ms_wstrReading@CIME@@2V?$vector@_WV?$allocator@_W@std@@@std@@A ; CIME::ms_wstrReading
  000a1	e8 00 00 00 00	 call	 ??$assign@PA_W$0A@@?$vector@_WV?$allocator@_W@std@@@std@@QAEXPA_W0@Z ; std::vector<wchar_t,std::allocator<wchar_t> >::assign<wchar_t *,0>

; 1885 : 			if ( fVertical )

  000a6	83 7d f8 00	 cmp	 DWORD PTR _fVertical$[ebp], 0
; File C:\Program Files (x86)\Microsoft Visual Studio\2019\Community\VC\Tools\MSVC\14.27.29110\include\vector

; 1504 :         return _My_data._Myfirst[_Pos];

  000aa	8b 0d 00 00 00
	00		 mov	 ecx, DWORD PTR ?ms_wstrReading@CIME@@2V?$vector@_WV?$allocator@_W@std@@@std@@A
  000b0	89 4d f4	 mov	 DWORD PTR _pszSource$1$[ebp], ecx
; File C:\DS Project\DS Files\Source\ClientSource\Client\EterLib\IME.cpp

; 1885 : 			if ( fVertical )

  000b3	74 7f		 je	 SHORT $LN3@MakeReadin

; 1886 : 			{
; 1887 : 				CIME::ms_dwCandidatePageSize = CIME::MAX_CANDLIST;
; 1888 : 				// ms_iReadingError is used only in horizontal window, and has to be -1 if there's no error.
; 1889 : 				CIME::ms_dwCandidateSelection = CIME::ms_iReadingError ? CIME::ms_iReadingError - 1 : (DWORD)-1;

  000b5	a1 00 00 00 00	 mov	 eax, DWORD PTR ?ms_iReadingError@CIME@@2HA ; CIME::ms_iReadingError
  000ba	c7 05 00 00 00
	00 0a 00 00 00	 mov	 DWORD PTR ?ms_dwCandidatePageSize@CIME@@2KA, 10 ; CIME::ms_dwCandidatePageSize, 0000000aH
  000c4	85 c0		 test	 eax, eax
  000c6	74 03		 je	 SHORT $LN10@MakeReadin
  000c8	48		 dec	 eax
  000c9	eb 03		 jmp	 SHORT $LN11@MakeReadin
$LN10@MakeReadin:
  000cb	83 c8 ff	 or	 eax, -1
$LN11@MakeReadin:

; 1890 : 				CIME::ms_dwCandidateCount = cchMax;

  000ce	a3 00 00 00 00	 mov	 DWORD PTR ?ms_dwCandidateSelection@CIME@@2KA, eax ; CIME::ms_dwCandidateSelection

; 1891 : 				// for vertical reading window, copy each character to g_szCandidate array.
; 1892 : 				for ( UINT i = 0; i < cchMax; i++ )

  000d3	33 d2		 xor	 edx, edx
  000d5	8b 45 ec	 mov	 eax, DWORD PTR _cchMax$[ebp]
  000d8	a3 00 00 00 00	 mov	 DWORD PTR ?ms_dwCandidateCount@CIME@@2KA, eax ; CIME::ms_dwCandidateCount
  000dd	89 55 f0	 mov	 DWORD PTR _i$1$[ebp], edx
  000e0	85 c0		 test	 eax, eax
  000e2	74 50		 je	 SHORT $LN3@MakeReadin

; 1890 : 				CIME::ms_dwCandidateCount = cchMax;

  000e4	53		 push	 ebx
  000e5	be 00 00 00 00	 mov	 esi, OFFSET ?ms_wszCandidate@CIME@@2PAY0BAA@_WA ; CIME::ms_wszCandidate
  000ea	57		 push	 edi
  000eb	0f 1f 44 00 00	 npad	 5
$LL4@MakeReadin:

; 1893 : 				{
; 1894 : 					LPWSTR pszDest = CIME::ms_wszCandidate[i];
; 1895 : 					if ( *pszSource )

  000f0	66 83 39 00	 cmp	 WORD PTR [ecx], 0
  000f4	8b c6		 mov	 eax, esi
  000f6	74 26		 je	 SHORT $LN8@MakeReadin

; 1896 : 					{
; 1897 : 						LPWSTR pszNextSrc = CharNextW(pszSource);

  000f8	51		 push	 ecx
  000f9	ff 15 00 00 00
	00		 call	 DWORD PTR __imp__CharNextW@4
  000ff	8b f8		 mov	 edi, eax

; 1898 : 						SIZE_T size = (LPSTR)pszNextSrc - (LPSTR)pszSource;

  00101	8b 45 f4	 mov	 eax, DWORD PTR _pszSource$1$[ebp]
  00104	8b df		 mov	 ebx, edi
  00106	2b d8		 sub	 ebx, eax

; 1899 : 						CopyMemory( pszDest, pszSource, size );

  00108	53		 push	 ebx
  00109	50		 push	 eax
  0010a	56		 push	 esi
  0010b	e8 00 00 00 00	 call	 _memcpy
  00110	8b 55 f0	 mov	 edx, DWORD PTR _i$1$[ebp]

; 1900 : 						pszSource = pszNextSrc;
; 1901 : 						pszDest += size;

  00113	8d 04 5e	 lea	 eax, DWORD PTR [esi+ebx*2]
  00116	8b cf		 mov	 ecx, edi
  00118	83 c4 0c	 add	 esp, 12			; 0000000cH
  0011b	89 4d f4	 mov	 DWORD PTR _pszSource$1$[ebp], ecx
$LN8@MakeReadin:

; 1902 : 					}
; 1903 : 					*pszDest = 0;

  0011e	33 ff		 xor	 edi, edi
  00120	42		 inc	 edx
  00121	66 89 38	 mov	 WORD PTR [eax], di
  00124	81 c6 00 02 00
	00		 add	 esi, 512		; 00000200H
  0012a	89 55 f0	 mov	 DWORD PTR _i$1$[ebp], edx
  0012d	3b 55 ec	 cmp	 edx, DWORD PTR _cchMax$[ebp]
  00130	72 be		 jb	 SHORT $LL4@MakeReadin
  00132	5f		 pop	 edi
  00133	5b		 pop	 ebx
$LN3@MakeReadin:

; 1904 : 				}
; 1905 : 			}
; 1906 : 			//else
; 1907 : 			//{
; 1908 : 			//	CIME::ms_wszCandidate[0][0] = L' ';	// hack to make rendering happen
; 1909 : 			//}
; 1910 : 			SysFreeString(bstr);

  00134	ff 75 08	 push	 DWORD PTR _bstr$[ebp]
  00137	ff 15 00 00 00
	00		 call	 DWORD PTR __imp__SysFreeString@4
$LN6@MakeReadin:
  0013d	5e		 pop	 esi

; 1911 : 		}
; 1912 : 	}
; 1913 : }

  0013e	8b e5		 mov	 esp, ebp
  00140	5d		 pop	 ebp
  00141	c3		 ret	 0
?MakeReadingInformationString@CTsfUiLessMode@@KAXPAUITfReadingInformationUIElement@@@Z ENDP ; CTsfUiLessMode::MakeReadingInformationString
_TEXT	ENDS
; Function compile flags: /Ogtp
; File C:\DS Project\DS Files\Source\ClientSource\Client\EterLib\IME.cpp
;	COMDAT ?OnChange@CUIElementSink@CTsfUiLessMode@@UAGJABU_GUID@@@Z
_TEXT	SEGMENT
_this$ = 8						; size = 4
_rguid$ = 12						; size = 4
?OnChange@CUIElementSink@CTsfUiLessMode@@UAGJABU_GUID@@@Z PROC ; CTsfUiLessMode::CUIElementSink::OnChange, COMDAT

; 1859 : 	UpdateImeState();

  00000	6a 00		 push	 0
  00002	e8 00 00 00 00	 call	 ?UpdateImeState@CTsfUiLessMode@@SAXH@Z ; CTsfUiLessMode::UpdateImeState
  00007	83 c4 04	 add	 esp, 4

; 1860 :     return S_OK;

  0000a	33 c0		 xor	 eax, eax

; 1861 : }

  0000c	c2 08 00	 ret	 8
?OnChange@CUIElementSink@CTsfUiLessMode@@UAGJABU_GUID@@@Z ENDP ; CTsfUiLessMode::CUIElementSink::OnChange
_TEXT	ENDS
; Function compile flags: /Ogtp
; File C:\DS Project\DS Files\Source\ClientSource\Client\EterLib\IME.cpp
; File C:\Program Files (x86)\Windows Kits\10\Include\10.0.18362.0\shared\guiddef.h
; File C:\DS Project\DS Files\Source\ClientSource\Client\EterLib\IME.cpp
; File C:\Program Files (x86)\Windows Kits\10\Include\10.0.18362.0\shared\guiddef.h
; File C:\DS Project\DS Files\Source\ClientSource\Client\EterLib\IME.cpp
; File C:\Program Files (x86)\Windows Kits\10\Include\10.0.18362.0\shared\guiddef.h
; File C:\DS Project\DS Files\Source\ClientSource\Client\EterLib\IME.cpp
;	COMDAT ?OnActivated@CUIElementSink@CTsfUiLessMode@@UAGJKGABU_GUID@@00PAUHKL__@@K@Z
_TEXT	SEGMENT
_this$ = 8						; size = 4
_dwProfileType$ = 12					; size = 4
_langid$ = 16						; size = 2
_clsid$ = 20						; size = 4
_catid$ = 24						; size = 4
_guidProfile$ = 28					; size = 4
_hkl$ = 32						; size = 4
_dwFlags$ = 36						; size = 4
?OnActivated@CUIElementSink@CTsfUiLessMode@@UAGJKGABU_GUID@@00PAUHKL__@@K@Z PROC ; CTsfUiLessMode::CUIElementSink::OnActivated, COMDAT

; 1840 : {

  00000	55		 push	 ebp
  00001	8b ec		 mov	 ebp, esp
; File C:\Program Files (x86)\Windows Kits\10\Include\10.0.18362.0\shared\guiddef.h

; 161  :     return !memcmp(&rguid1, &rguid2, sizeof(GUID));

  00003	8b 55 1c	 mov	 edx, DWORD PTR _guidProfile$[ebp]
  00006	b9 00 00 00 00	 mov	 ecx, OFFSET ?TF_PROFILE_DAYI@?1??OnActivated@CUIElementSink@CTsfUiLessMode@@UAGJKGABU_GUID@@00PAUHKL__@@K@Z@4U4@A
; File C:\DS Project\DS Files\Source\ClientSource\Client\EterLib\IME.cpp

; 1840 : {

  0000b	56		 push	 esi
; File C:\Program Files (x86)\Windows Kits\10\Include\10.0.18362.0\shared\guiddef.h

; 161  :     return !memcmp(&rguid1, &rguid2, sizeof(GUID));

  0000c	be 0c 00 00 00	 mov	 esi, 12			; 0000000cH
$LL15@OnActivate:
  00011	8b 01		 mov	 eax, DWORD PTR [ecx]
  00013	3b 02		 cmp	 eax, DWORD PTR [edx]
  00015	75 0f		 jne	 SHORT $LN14@OnActivate
  00017	83 c1 04	 add	 ecx, 4
  0001a	83 c2 04	 add	 edx, 4
  0001d	83 ee 04	 sub	 esi, 4
  00020	73 ef		 jae	 SHORT $LL15@OnActivate
  00022	33 c0		 xor	 eax, eax
  00024	eb 05		 jmp	 SHORT $LN16@OnActivate
$LN14@OnActivate:
  00026	b8 01 00 00 00	 mov	 eax, 1
$LN16@OnActivate:
  0002b	8b 4d 18	 mov	 ecx, DWORD PTR _catid$[ebp]
  0002e	ba 00 00 00 00	 mov	 edx, OFFSET _GUID_TFCAT_TIP_KEYBOARD
; File C:\DS Project\DS Files\Source\ClientSource\Client\EterLib\IME.cpp

; 1842 : 	CIME::ms_iCandListIndexBase = IsEqualGUID( TF_PROFILE_DAYI, guidProfile ) ? 0 : 1;

  00033	a3 00 00 00 00	 mov	 DWORD PTR ?ms_iCandListIndexBase@CIME@@2HA, eax ; CIME::ms_iCandListIndexBase
; File C:\Program Files (x86)\Windows Kits\10\Include\10.0.18362.0\shared\guiddef.h

; 161  :     return !memcmp(&rguid1, &rguid2, sizeof(GUID));

  00038	be 0c 00 00 00	 mov	 esi, 12			; 0000000cH
  0003d	0f 1f 00	 npad	 3
$LL18@OnActivate:
  00040	8b 01		 mov	 eax, DWORD PTR [ecx]
  00042	3b 02		 cmp	 eax, DWORD PTR [edx]
  00044	75 71		 jne	 SHORT $LN20@OnActivate
  00046	83 c1 04	 add	 ecx, 4
  00049	83 c2 04	 add	 edx, 4
  0004c	83 ee 04	 sub	 esi, 4
  0004f	73 ef		 jae	 SHORT $LL18@OnActivate
; File C:\DS Project\DS Files\Source\ClientSource\Client\EterLib\IME.cpp

; 1843 : 	if ( IsEqualIID( catid, GUID_TFCAT_TIP_KEYBOARD ) && ( dwFlags & TF_IPSINK_FLAG_ACTIVE ) )

  00051	f6 45 24 01	 test	 BYTE PTR _dwFlags$[ebp], 1
  00055	74 60		 je	 SHORT $LN20@OnActivate

; 1844 : 	{
; 1845 : 		CIME::ms_bChineseIME = ( dwProfileType & TF_PROFILETYPE_INPUTPROCESSOR ) && langid == LANG_CHT;

  00057	8b 45 0c	 mov	 eax, DWORD PTR _dwProfileType$[ebp]
  0005a	83 e0 01	 and	 eax, 1
  0005d	74 28		 je	 SHORT $LN6@OnActivate
  0005f	b9 04 04 00 00	 mov	 ecx, 1028		; 00000404H
  00064	66 39 4d 10	 cmp	 WORD PTR _langid$[ebp], cx
  00068	75 1d		 jne	 SHORT $LN6@OnActivate

; 1847 : 		{
; 1848 : 			UpdateImeState(TRUE);

  0006a	6a 01		 push	 1
  0006c	c6 05 00 00 00
	00 01		 mov	 BYTE PTR ?ms_bChineseIME@CIME@@2_NA, 1 ; CIME::ms_bChineseIME
  00073	e8 00 00 00 00	 call	 ?UpdateImeState@CTsfUiLessMode@@SAXH@Z ; CTsfUiLessMode::UpdateImeState
  00078	83 c4 04	 add	 esp, 4

; 1852 : 		CIME::ChangeInputLanguage();

  0007b	e8 00 00 00 00	 call	 ?ChangeInputLanguage@CIME@@SAXXZ ; CIME::ChangeInputLanguage

; 1853 : 	}
; 1854 :     return S_OK;
; 1855 : }

  00080	33 c0		 xor	 eax, eax
  00082	5e		 pop	 esi
  00083	5d		 pop	 ebp
  00084	c2 20 00	 ret	 32			; 00000020H
$LN6@OnActivate:

; 1846 : 		if ( dwProfileType & TF_PROFILETYPE_INPUTPROCESSOR )

  00087	c6 05 00 00 00
	00 00		 mov	 BYTE PTR ?ms_bChineseIME@CIME@@2_NA, 0 ; CIME::ms_bChineseIME
  0008e	85 c0		 test	 eax, eax
  00090	74 16		 je	 SHORT $LN3@OnActivate

; 1847 : 		{
; 1848 : 			UpdateImeState(TRUE);

  00092	6a 01		 push	 1
  00094	e8 00 00 00 00	 call	 ?UpdateImeState@CTsfUiLessMode@@SAXH@Z ; CTsfUiLessMode::UpdateImeState
  00099	83 c4 04	 add	 esp, 4

; 1852 : 		CIME::ChangeInputLanguage();

  0009c	e8 00 00 00 00	 call	 ?ChangeInputLanguage@CIME@@SAXXZ ; CIME::ChangeInputLanguage

; 1853 : 	}
; 1854 :     return S_OK;
; 1855 : }

  000a1	33 c0		 xor	 eax, eax
  000a3	5e		 pop	 esi
  000a4	5d		 pop	 ebp
  000a5	c2 20 00	 ret	 32			; 00000020H
$LN3@OnActivate:

; 1849 : 		}
; 1850 : 		else
; 1851 : 			CIME::ms_dwImeState = IMEUI_STATE_OFF;

  000a8	c7 05 00 00 00
	00 00 00 00 00	 mov	 DWORD PTR ?ms_dwImeState@CIME@@2KA, 0 ; CIME::ms_dwImeState

; 1852 : 		CIME::ChangeInputLanguage();

  000b2	e8 00 00 00 00	 call	 ?ChangeInputLanguage@CIME@@SAXXZ ; CIME::ChangeInputLanguage
$LN20@OnActivate:

; 1853 : 	}
; 1854 :     return S_OK;
; 1855 : }

  000b7	33 c0		 xor	 eax, eax
  000b9	5e		 pop	 esi
  000ba	5d		 pop	 ebp
  000bb	c2 20 00	 ret	 32			; 00000020H
?OnActivated@CUIElementSink@CTsfUiLessMode@@UAGJKGABU_GUID@@00PAUHKL__@@K@Z ENDP ; CTsfUiLessMode::CUIElementSink::OnActivated
_TEXT	ENDS
; Function compile flags: /Ogtp
; File C:\DS Project\DS Files\Source\ClientSource\Client\EterLib\IME.cpp
;	COMDAT ?EndUIElement@CUIElementSink@CTsfUiLessMode@@UAGJK@Z
_TEXT	SEGMENT
_pcandidate$ = -4					; size = 4
_this$ = 8						; size = 4
_preading$ = 12						; size = 4
_dwUIElementId$ = 12					; size = 4
?EndUIElement@CUIElementSink@CTsfUiLessMode@@UAGJK@Z PROC ; CTsfUiLessMode::CUIElementSink::EndUIElement, COMDAT

; 1772 : {

  00000	55		 push	 ebp
  00001	8b ec		 mov	 ebp, esp
  00003	51		 push	 ecx
  00004	56		 push	 esi

; 1773 :     ITfUIElement *pElement = GetUIElement(dwUIElementId);

  00005	ff 75 0c	 push	 DWORD PTR _dwUIElementId$[ebp]
  00008	e8 00 00 00 00	 call	 ?GetUIElement@CTsfUiLessMode@@KAPAUITfUIElement@@K@Z ; CTsfUiLessMode::GetUIElement
  0000d	8b f0		 mov	 esi, eax
  0000f	83 c4 04	 add	 esp, 4

; 1774 :     if (!pElement)

  00012	85 f6		 test	 esi, esi
  00014	75 0c		 jne	 SHORT $LN2@EndUIEleme

; 1775 :         return E_INVALIDARG;

  00016	b8 57 00 07 80	 mov	 eax, -2147024809	; 80070057H
  0001b	5e		 pop	 esi

; 1801 : }

  0001c	8b e5		 mov	 esp, ebp
  0001e	5d		 pop	 ebp
  0001f	c2 08 00	 ret	 8
$LN2@EndUIEleme:

; 1776 : 
; 1777 : 	//BSTR bstrDesc;
; 1778 : 	//OutputDebugStringW(L"ENDUI: ");
; 1779 : 	//pElement->GetDescription(&bstrDesc);
; 1780 : 	//OutputDebugStringW(bstrDesc);
; 1781 : 	//OutputDebugStringW(L"\n");
; 1782 : 
; 1783 : 	ITfReadingInformationUIElement   *preading = NULL;
; 1784 : 	if (SUCCEEDED(pElement->QueryInterface(__uuidof(ITfReadingInformationUIElement), (void **)&preading)))

  00022	8d 4d 0c	 lea	 ecx, DWORD PTR _preading$[ebp]
  00025	c7 45 0c 00 00
	00 00		 mov	 DWORD PTR _preading$[ebp], 0
  0002c	8b 06		 mov	 eax, DWORD PTR [esi]
  0002e	51		 push	 ecx
  0002f	68 00 00 00 00	 push	 OFFSET __GUID_ea1ea139_19df_11d7_a6d2_00065b84435c
  00034	56		 push	 esi
  00035	ff 10		 call	 DWORD PTR [eax]
  00037	85 c0		 test	 eax, eax
  00039	78 0e		 js	 SHORT $LN3@EndUIEleme

; 1785 :     {
; 1786 : 		CIME::CloseReadingInformation();

  0003b	e8 00 00 00 00	 call	 ?CloseReadingInformation@CIME@@SAXXZ ; CIME::CloseReadingInformation

; 1787 :         preading->Release();

  00040	8b 45 0c	 mov	 eax, DWORD PTR _preading$[ebp]
  00043	50		 push	 eax
  00044	8b 08		 mov	 ecx, DWORD PTR [eax]
  00046	ff 51 08	 call	 DWORD PTR [ecx+8]
$LN3@EndUIEleme:

; 1788 :     }
; 1789 : 
; 1790 : 	ITfCandidateListUIElement   *pcandidate = NULL;
; 1791 : 	if (SUCCEEDED(pElement->QueryInterface(__uuidof(ITfCandidateListUIElement), (void **)&pcandidate)))

  00049	8d 4d fc	 lea	 ecx, DWORD PTR _pcandidate$[ebp]
  0004c	c7 45 fc 00 00
	00 00		 mov	 DWORD PTR _pcandidate$[ebp], 0
  00053	8b 06		 mov	 eax, DWORD PTR [esi]
  00055	51		 push	 ecx
  00056	68 00 00 00 00	 push	 OFFSET __GUID_ea1ea138_19df_11d7_a6d2_00065b84435c
  0005b	56		 push	 esi
  0005c	ff 10		 call	 DWORD PTR [eax]
  0005e	85 c0		 test	 eax, eax
  00060	78 17		 js	 SHORT $LN4@EndUIEleme

; 1792 : 	{
; 1793 : 		m_nCandidateRefCount--;

  00062	83 2d 00 00 00
	00 01		 sub	 DWORD PTR ?m_nCandidateRefCount@CTsfUiLessMode@@1HA, 1 ; CTsfUiLessMode::m_nCandidateRefCount

; 1794 : 		if (m_nCandidateRefCount == 0)

  00069	75 05		 jne	 SHORT $LN5@EndUIEleme

; 1795 : 			CIME::CloseCandidateList();

  0006b	e8 00 00 00 00	 call	 ?CloseCandidateList@CIME@@SAXXZ ; CIME::CloseCandidateList
$LN5@EndUIEleme:

; 1796 : 		pcandidate->Release();

  00070	8b 45 fc	 mov	 eax, DWORD PTR _pcandidate$[ebp]
  00073	50		 push	 eax
  00074	8b 08		 mov	 ecx, DWORD PTR [eax]
  00076	ff 51 08	 call	 DWORD PTR [ecx+8]
$LN4@EndUIEleme:

; 1797 : 	}
; 1798 : 
; 1799 :     pElement->Release();

  00079	8b 06		 mov	 eax, DWORD PTR [esi]
  0007b	56		 push	 esi
  0007c	ff 50 08	 call	 DWORD PTR [eax+8]

; 1800 :     return S_OK;

  0007f	33 c0		 xor	 eax, eax
  00081	5e		 pop	 esi

; 1801 : }

  00082	8b e5		 mov	 esp, ebp
  00084	5d		 pop	 ebp
  00085	c2 08 00	 ret	 8
?EndUIElement@CUIElementSink@CTsfUiLessMode@@UAGJK@Z ENDP ; CTsfUiLessMode::CUIElementSink::EndUIElement
_TEXT	ENDS
; Function compile flags: /Ogtp
; File C:\DS Project\DS Files\Source\ClientSource\Client\EterLib\IME.cpp
;	COMDAT ?UpdateUIElement@CUIElementSink@CTsfUiLessMode@@UAGJK@Z
_TEXT	SEGMENT
_pcandidate$ = -4					; size = 4
_this$ = 8						; size = 4
_preading$ = 12						; size = 4
_dwUIElementId$ = 12					; size = 4
?UpdateUIElement@CUIElementSink@CTsfUiLessMode@@UAGJK@Z PROC ; CTsfUiLessMode::CUIElementSink::UpdateUIElement, COMDAT

; 1738 : {

  00000	55		 push	 ebp
  00001	8b ec		 mov	 ebp, esp
  00003	51		 push	 ecx
  00004	56		 push	 esi

; 1739 :     ITfUIElement *pElement = GetUIElement(dwUIElementId);

  00005	ff 75 0c	 push	 DWORD PTR _dwUIElementId$[ebp]
  00008	e8 00 00 00 00	 call	 ?GetUIElement@CTsfUiLessMode@@KAPAUITfUIElement@@K@Z ; CTsfUiLessMode::GetUIElement
  0000d	8b f0		 mov	 esi, eax
  0000f	83 c4 04	 add	 esp, 4

; 1740 :     if (!pElement)

  00012	85 f6		 test	 esi, esi
  00014	75 0c		 jne	 SHORT $LN2@UpdateUIEl

; 1741 :         return E_INVALIDARG;

  00016	b8 57 00 07 80	 mov	 eax, -2147024809	; 80070057H
  0001b	5e		 pop	 esi

; 1769 : }

  0001c	8b e5		 mov	 esp, ebp
  0001e	5d		 pop	 ebp
  0001f	c2 08 00	 ret	 8
$LN2@UpdateUIEl:

; 1742 : 
; 1743 :     ITfReadingInformationUIElement   *preading = NULL;
; 1744 :     ITfCandidateListUIElement		*pcandidate = NULL;
; 1745 : 
; 1746 : 	//BSTR bstrDesc;
; 1747 : 	//pElement->GetDescription(&bstrDesc);
; 1748 : 	//OutputDebugStringW(L"UPDATEUI: ");
; 1749 : 	//OutputDebugStringW(bstrDesc);
; 1750 : 	//OutputDebugStringW(L"\n");
; 1751 : 
; 1752 : 	if (SUCCEEDED(pElement->QueryInterface(__uuidof(ITfReadingInformationUIElement), (void **)&preading)))

  00022	8d 4d 0c	 lea	 ecx, DWORD PTR _preading$[ebp]
  00025	c7 45 0c 00 00
	00 00		 mov	 DWORD PTR _preading$[ebp], 0
  0002c	51		 push	 ecx
  0002d	c7 45 fc 00 00
	00 00		 mov	 DWORD PTR _pcandidate$[ebp], 0
  00034	8b 06		 mov	 eax, DWORD PTR [esi]
  00036	68 00 00 00 00	 push	 OFFSET __GUID_ea1ea139_19df_11d7_a6d2_00065b84435c
  0003b	56		 push	 esi
  0003c	ff 10		 call	 DWORD PTR [eax]
  0003e	85 c0		 test	 eax, eax
  00040	78 1f		 js	 SHORT $LN3@UpdateUIEl

; 1753 :     {
; 1754 : 		MakeReadingInformationString(preading);

  00042	ff 75 0c	 push	 DWORD PTR _preading$[ebp]
  00045	e8 00 00 00 00	 call	 ?MakeReadingInformationString@CTsfUiLessMode@@KAXPAUITfReadingInformationUIElement@@@Z ; CTsfUiLessMode::MakeReadingInformationString

; 1755 : 		if(CIME::ms_pEvent)

  0004a	8b 0d 00 00 00
	00		 mov	 ecx, DWORD PTR ?ms_pEvent@CIME@@2PAVIIMEEventSink@@A ; CIME::ms_pEvent
  00050	83 c4 04	 add	 esp, 4
  00053	85 c9		 test	 ecx, ecx
  00055	74 05		 je	 SHORT $LN5@UpdateUIEl

; 1756 : 			CIME::ms_pEvent->OnOpenReadingWnd();

  00057	8b 01		 mov	 eax, DWORD PTR [ecx]
  00059	ff 50 14	 call	 DWORD PTR [eax+20]
$LN5@UpdateUIEl:

; 1757 :         preading->Release();

  0005c	8b 45 0c	 mov	 eax, DWORD PTR _preading$[ebp]

; 1758 :     }

  0005f	eb 2f		 jmp	 SHORT $LN9@UpdateUIEl
$LN3@UpdateUIEl:

; 1759 : 	else if (SUCCEEDED(pElement->QueryInterface(__uuidof(ITfCandidateListUIElement), (void **)&pcandidate)))

  00061	8b 06		 mov	 eax, DWORD PTR [esi]
  00063	8d 4d fc	 lea	 ecx, DWORD PTR _pcandidate$[ebp]
  00066	51		 push	 ecx
  00067	68 00 00 00 00	 push	 OFFSET __GUID_ea1ea138_19df_11d7_a6d2_00065b84435c
  0006c	56		 push	 esi
  0006d	ff 10		 call	 DWORD PTR [eax]
  0006f	85 c0		 test	 eax, eax
  00071	78 23		 js	 SHORT $LN6@UpdateUIEl

; 1760 : 	{
; 1761 : 		MakeCandidateStrings(pcandidate);

  00073	ff 75 fc	 push	 DWORD PTR _pcandidate$[ebp]
  00076	e8 00 00 00 00	 call	 ?MakeCandidateStrings@CTsfUiLessMode@@KAXPAUITfCandidateListUIElement@@@Z ; CTsfUiLessMode::MakeCandidateStrings

; 1762 : 		if(CIME::ms_pEvent)

  0007b	8b 0d 00 00 00
	00		 mov	 ecx, DWORD PTR ?ms_pEvent@CIME@@2PAVIIMEEventSink@@A ; CIME::ms_pEvent
  00081	83 c4 04	 add	 esp, 4
  00084	85 c9		 test	 ecx, ecx
  00086	74 05		 je	 SHORT $LN7@UpdateUIEl

; 1763 : 			CIME::ms_pEvent->OnOpenCandidateList();

  00088	8b 01		 mov	 eax, DWORD PTR [ecx]
  0008a	ff 50 0c	 call	 DWORD PTR [eax+12]
$LN7@UpdateUIEl:

; 1764 : 		pcandidate->Release();

  0008d	8b 45 fc	 mov	 eax, DWORD PTR _pcandidate$[ebp]
$LN9@UpdateUIEl:

; 1765 :     }
; 1766 : 
; 1767 :     pElement->Release();

  00090	8b 08		 mov	 ecx, DWORD PTR [eax]
  00092	50		 push	 eax
  00093	ff 51 08	 call	 DWORD PTR [ecx+8]
$LN6@UpdateUIEl:
  00096	8b 06		 mov	 eax, DWORD PTR [esi]
  00098	56		 push	 esi
  00099	ff 50 08	 call	 DWORD PTR [eax+8]

; 1768 :     return S_OK;

  0009c	33 c0		 xor	 eax, eax
  0009e	5e		 pop	 esi

; 1769 : }

  0009f	8b e5		 mov	 esp, ebp
  000a1	5d		 pop	 ebp
  000a2	c2 08 00	 ret	 8
?UpdateUIElement@CUIElementSink@CTsfUiLessMode@@UAGJK@Z ENDP ; CTsfUiLessMode::CUIElementSink::UpdateUIElement
_TEXT	ENDS
; Function compile flags: /Ogtp
; File C:\DS Project\DS Files\Source\ClientSource\Client\EterLib\IME.cpp
;	COMDAT ?BeginUIElement@CUIElementSink@CTsfUiLessMode@@UAGJKPAH@Z
_TEXT	SEGMENT
_pcandidate$ = -4					; size = 4
_this$ = 8						; size = 4
_preading$ = 12						; size = 4
_dwUIElementId$ = 12					; size = 4
_pbShow$ = 16						; size = 4
?BeginUIElement@CUIElementSink@CTsfUiLessMode@@UAGJKPAH@Z PROC ; CTsfUiLessMode::CUIElementSink::BeginUIElement, COMDAT

; 1702 : {

  00000	55		 push	 ebp
  00001	8b ec		 mov	 ebp, esp
  00003	51		 push	 ecx
  00004	56		 push	 esi

; 1703 :     ITfUIElement *pElement = GetUIElement(dwUIElementId);

  00005	ff 75 0c	 push	 DWORD PTR _dwUIElementId$[ebp]
  00008	e8 00 00 00 00	 call	 ?GetUIElement@CTsfUiLessMode@@KAPAUITfUIElement@@K@Z ; CTsfUiLessMode::GetUIElement
  0000d	8b f0		 mov	 esi, eax
  0000f	83 c4 04	 add	 esp, 4

; 1704 :     if (!pElement)

  00012	85 f6		 test	 esi, esi
  00014	75 0c		 jne	 SHORT $LN2@BeginUIEle

; 1705 :         return E_INVALIDARG;

  00016	b8 57 00 07 80	 mov	 eax, -2147024809	; 80070057H
  0001b	5e		 pop	 esi

; 1735 : }

  0001c	8b e5		 mov	 esp, ebp
  0001e	5d		 pop	 ebp
  0001f	c2 0c 00	 ret	 12			; 0000000cH
$LN2@BeginUIEle:

; 1706 : 
; 1707 :     ITfReadingInformationUIElement   *preading = NULL;
; 1708 : 	ITfCandidateListUIElement		*pcandidate = NULL;
; 1709 : 	*pbShow = FALSE;

  00022	8b 45 10	 mov	 eax, DWORD PTR _pbShow$[ebp]

; 1710 : 
; 1711 : 	//BSTR bstrDesc;
; 1712 : 	//OutputDebugStringW(L"BEGINUI: ");
; 1713 : 	//pElement->GetDescription(&bstrDesc);
; 1714 : 	//OutputDebugStringW(bstrDesc);
; 1715 : 	//OutputDebugStringW(L"\n");
; 1716 : 
; 1717 : 	if (SUCCEEDED(pElement->QueryInterface(__uuidof(ITfReadingInformationUIElement), (void **)&preading)))

  00025	8d 4d 0c	 lea	 ecx, DWORD PTR _preading$[ebp]
  00028	51		 push	 ecx
  00029	c7 45 0c 00 00
	00 00		 mov	 DWORD PTR _preading$[ebp], 0
  00030	c7 45 fc 00 00
	00 00		 mov	 DWORD PTR _pcandidate$[ebp], 0
  00037	c7 00 00 00 00
	00		 mov	 DWORD PTR [eax], 0
  0003d	8b 06		 mov	 eax, DWORD PTR [esi]
  0003f	68 00 00 00 00	 push	 OFFSET __GUID_ea1ea139_19df_11d7_a6d2_00065b84435c
  00044	56		 push	 esi
  00045	ff 10		 call	 DWORD PTR [eax]
  00047	85 c0		 test	 eax, eax
  00049	78 1f		 js	 SHORT $LN3@BeginUIEle

; 1718 :     {
; 1719 : 		MakeReadingInformationString(preading);

  0004b	ff 75 0c	 push	 DWORD PTR _preading$[ebp]
  0004e	e8 00 00 00 00	 call	 ?MakeReadingInformationString@CTsfUiLessMode@@KAXPAUITfReadingInformationUIElement@@@Z ; CTsfUiLessMode::MakeReadingInformationString

; 1720 : 		if(CIME::ms_pEvent)

  00053	8b 0d 00 00 00
	00		 mov	 ecx, DWORD PTR ?ms_pEvent@CIME@@2PAVIIMEEventSink@@A ; CIME::ms_pEvent
  00059	83 c4 04	 add	 esp, 4
  0005c	85 c9		 test	 ecx, ecx
  0005e	74 05		 je	 SHORT $LN5@BeginUIEle

; 1721 : 			CIME::ms_pEvent->OnOpenReadingWnd();

  00060	8b 01		 mov	 eax, DWORD PTR [ecx]
  00062	ff 50 14	 call	 DWORD PTR [eax+20]
$LN5@BeginUIEle:

; 1722 :         preading->Release();

  00065	8b 45 0c	 mov	 eax, DWORD PTR _preading$[ebp]

; 1723 :     }

  00068	eb 35		 jmp	 SHORT $LN9@BeginUIEle
$LN3@BeginUIEle:

; 1724 : 	else if (SUCCEEDED(pElement->QueryInterface(__uuidof(ITfCandidateListUIElement), (void **)&pcandidate)))

  0006a	8b 06		 mov	 eax, DWORD PTR [esi]
  0006c	8d 4d fc	 lea	 ecx, DWORD PTR _pcandidate$[ebp]
  0006f	51		 push	 ecx
  00070	68 00 00 00 00	 push	 OFFSET __GUID_ea1ea138_19df_11d7_a6d2_00065b84435c
  00075	56		 push	 esi
  00076	ff 10		 call	 DWORD PTR [eax]
  00078	85 c0		 test	 eax, eax
  0007a	78 29		 js	 SHORT $LN6@BeginUIEle

; 1725 : 	{
; 1726 : 		m_nCandidateRefCount++;
; 1727 : 		MakeCandidateStrings(pcandidate);

  0007c	ff 75 fc	 push	 DWORD PTR _pcandidate$[ebp]
  0007f	ff 05 00 00 00
	00		 inc	 DWORD PTR ?m_nCandidateRefCount@CTsfUiLessMode@@1HA ; CTsfUiLessMode::m_nCandidateRefCount
  00085	e8 00 00 00 00	 call	 ?MakeCandidateStrings@CTsfUiLessMode@@KAXPAUITfCandidateListUIElement@@@Z ; CTsfUiLessMode::MakeCandidateStrings

; 1728 : 		if(CIME::ms_pEvent)

  0008a	8b 0d 00 00 00
	00		 mov	 ecx, DWORD PTR ?ms_pEvent@CIME@@2PAVIIMEEventSink@@A ; CIME::ms_pEvent
  00090	83 c4 04	 add	 esp, 4
  00093	85 c9		 test	 ecx, ecx
  00095	74 05		 je	 SHORT $LN7@BeginUIEle

; 1729 : 			CIME::ms_pEvent->OnOpenCandidateList();

  00097	8b 01		 mov	 eax, DWORD PTR [ecx]
  00099	ff 50 0c	 call	 DWORD PTR [eax+12]
$LN7@BeginUIEle:

; 1730 : 		pcandidate->Release();

  0009c	8b 45 fc	 mov	 eax, DWORD PTR _pcandidate$[ebp]
$LN9@BeginUIEle:

; 1731 :     }
; 1732 : 
; 1733 :     pElement->Release();

  0009f	8b 08		 mov	 ecx, DWORD PTR [eax]
  000a1	50		 push	 eax
  000a2	ff 51 08	 call	 DWORD PTR [ecx+8]
$LN6@BeginUIEle:
  000a5	8b 06		 mov	 eax, DWORD PTR [esi]
  000a7	56		 push	 esi
  000a8	ff 50 08	 call	 DWORD PTR [eax+8]

; 1734 :     return S_OK;

  000ab	33 c0		 xor	 eax, eax
  000ad	5e		 pop	 esi

; 1735 : }

  000ae	8b e5		 mov	 esp, ebp
  000b0	5d		 pop	 ebp
  000b1	c2 0c 00	 ret	 12			; 0000000cH
?BeginUIElement@CUIElementSink@CTsfUiLessMode@@UAGJKPAH@Z ENDP ; CTsfUiLessMode::CUIElementSink::BeginUIElement
_TEXT	ENDS
; Function compile flags: /Ogtp
; File C:\DS Project\DS Files\Source\ClientSource\Client\EterLib\IME.cpp
;	COMDAT ?Release@CUIElementSink@CTsfUiLessMode@@UAGKXZ
_TEXT	SEGMENT
_this$ = 8						; size = 4
?Release@CUIElementSink@CTsfUiLessMode@@UAGKXZ PROC	; CTsfUiLessMode::CUIElementSink::Release, COMDAT

; 1690 : {

  00000	55		 push	 ebp
  00001	8b ec		 mov	 ebp, esp
  00003	56		 push	 esi

; 1691 :     LONG cr = --_cRef;

  00004	8b 75 08	 mov	 esi, DWORD PTR _this$[ebp]
  00007	57		 push	 edi
  00008	83 46 0c ff	 add	 DWORD PTR [esi+12], -1
  0000c	8b 7e 0c	 mov	 edi, DWORD PTR [esi+12]

; 1692 : 
; 1693 :     if (_cRef == 0)

  0000f	75 12		 jne	 SHORT $LN9@Release
  00011	8b ce		 mov	 ecx, esi
  00013	e8 00 00 00 00	 call	 ??1CUIElementSink@CTsfUiLessMode@@QAE@XZ ; CTsfUiLessMode::CUIElementSink::~CUIElementSink
  00018	6a 10		 push	 16			; 00000010H
  0001a	56		 push	 esi
  0001b	e8 00 00 00 00	 call	 ??3@YAXPAXI@Z		; operator delete
  00020	83 c4 08	 add	 esp, 8
$LN9@Release:

; 1694 :     {
; 1695 :         delete this;
; 1696 :     }
; 1697 : 
; 1698 :     return cr;
; 1699 : }

  00023	8b c7		 mov	 eax, edi
  00025	5f		 pop	 edi
  00026	5e		 pop	 esi
  00027	5d		 pop	 ebp
  00028	c2 04 00	 ret	 4
?Release@CUIElementSink@CTsfUiLessMode@@UAGKXZ ENDP	; CTsfUiLessMode::CUIElementSink::Release
_TEXT	ENDS
; Function compile flags: /Ogtp
; File C:\DS Project\DS Files\Source\ClientSource\Client\EterLib\IME.cpp
;	COMDAT ?AddRef@CUIElementSink@CTsfUiLessMode@@UAGKXZ
_TEXT	SEGMENT
_this$ = 8						; size = 4
?AddRef@CUIElementSink@CTsfUiLessMode@@UAGKXZ PROC	; CTsfUiLessMode::CUIElementSink::AddRef, COMDAT

; 1685 : {

  00000	55		 push	 ebp
  00001	8b ec		 mov	 ebp, esp

; 1686 :     return ++_cRef;

  00003	8b 4d 08	 mov	 ecx, DWORD PTR _this$[ebp]
  00006	8b 41 0c	 mov	 eax, DWORD PTR [ecx+12]
  00009	40		 inc	 eax
  0000a	89 41 0c	 mov	 DWORD PTR [ecx+12], eax

; 1687 : }

  0000d	5d		 pop	 ebp
  0000e	c2 04 00	 ret	 4
?AddRef@CUIElementSink@CTsfUiLessMode@@UAGKXZ ENDP	; CTsfUiLessMode::CUIElementSink::AddRef
_TEXT	ENDS
; Function compile flags: /Ogtp
; File C:\DS Project\DS Files\Source\ClientSource\Client\EterLib\IME.cpp
; File C:\Program Files (x86)\Windows Kits\10\Include\10.0.18362.0\shared\guiddef.h
; File C:\DS Project\DS Files\Source\ClientSource\Client\EterLib\IME.cpp
; File C:\Program Files (x86)\Windows Kits\10\Include\10.0.18362.0\shared\guiddef.h
; File C:\DS Project\DS Files\Source\ClientSource\Client\EterLib\IME.cpp
; File C:\Program Files (x86)\Windows Kits\10\Include\10.0.18362.0\shared\guiddef.h
; File C:\DS Project\DS Files\Source\ClientSource\Client\EterLib\IME.cpp
; File C:\Program Files (x86)\Windows Kits\10\Include\10.0.18362.0\shared\guiddef.h
; File C:\DS Project\DS Files\Source\ClientSource\Client\EterLib\IME.cpp
; File C:\Program Files (x86)\Windows Kits\10\Include\10.0.18362.0\shared\guiddef.h
; File C:\DS Project\DS Files\Source\ClientSource\Client\EterLib\IME.cpp
;	COMDAT ?QueryInterface@CUIElementSink@CTsfUiLessMode@@UAGJABU_GUID@@PAPAX@Z
_TEXT	SEGMENT
_this$ = 8						; size = 4
_riid$ = 12						; size = 4
_ppvObj$ = 16						; size = 4
?QueryInterface@CUIElementSink@CTsfUiLessMode@@UAGJABU_GUID@@PAPAX@Z PROC ; CTsfUiLessMode::CUIElementSink::QueryInterface, COMDAT

; 1652 : {

  00000	55		 push	 ebp
  00001	8b ec		 mov	 ebp, esp
  00003	53		 push	 ebx
  00004	8b 5d 10	 mov	 ebx, DWORD PTR _ppvObj$[ebp]

; 1653 :     if (ppvObj == NULL)

  00007	85 db		 test	 ebx, ebx
  00009	75 0a		 jne	 SHORT $LN2@QueryInter

; 1654 :         return E_INVALIDARG;

  0000b	b8 57 00 07 80	 mov	 eax, -2147024809	; 80070057H
  00010	5b		 pop	 ebx

; 1682 : }

  00011	5d		 pop	 ebp
  00012	c2 0c 00	 ret	 12			; 0000000cH
$LN2@QueryInter:
; File C:\Program Files (x86)\Windows Kits\10\Include\10.0.18362.0\shared\guiddef.h

; 161  :     return !memcmp(&rguid1, &rguid2, sizeof(GUID));

  00015	8b 55 0c	 mov	 edx, DWORD PTR _riid$[ebp]
  00018	8b ca		 mov	 ecx, edx
  0001a	56		 push	 esi
  0001b	57		 push	 edi
; File C:\DS Project\DS Files\Source\ClientSource\Client\EterLib\IME.cpp

; 1656 :     *ppvObj = NULL;

  0001c	c7 03 00 00 00
	00		 mov	 DWORD PTR [ebx], 0
; File C:\Program Files (x86)\Windows Kits\10\Include\10.0.18362.0\shared\guiddef.h

; 161  :     return !memcmp(&rguid1, &rguid2, sizeof(GUID));

  00022	be 00 00 00 00	 mov	 esi, OFFSET _IID_IUnknown
  00027	bf 0c 00 00 00	 mov	 edi, 12			; 0000000cH
  0002c	0f 1f 40 00	 npad	 4
$LL25@QueryInter:
  00030	8b 01		 mov	 eax, DWORD PTR [ecx]
  00032	3b 06		 cmp	 eax, DWORD PTR [esi]
  00034	75 12		 jne	 SHORT $LN3@QueryInter
  00036	83 c1 04	 add	 ecx, 4
  00039	83 c6 04	 add	 esi, 4
  0003c	83 ef 04	 sub	 edi, 4
  0003f	73 ef		 jae	 SHORT $LL25@QueryInter
; File C:\DS Project\DS Files\Source\ClientSource\Client\EterLib\IME.cpp

; 1660 :         *ppvObj = reinterpret_cast<IUnknown *>(this);

  00041	8b 55 08	 mov	 edx, DWORD PTR _this$[ebp]
  00044	8b ca		 mov	 ecx, edx

; 1661 : 	}

  00046	eb 77		 jmp	 SHORT $LN9@QueryInter
$LN3@QueryInter:
; File C:\Program Files (x86)\Windows Kits\10\Include\10.0.18362.0\shared\guiddef.h

; 161  :     return !memcmp(&rguid1, &rguid2, sizeof(GUID));

  00048	8b ca		 mov	 ecx, edx
  0004a	be 00 00 00 00	 mov	 esi, OFFSET __GUID_ea1ea136_19df_11d7_a6d2_00065b84435c
  0004f	bf 0c 00 00 00	 mov	 edi, 12			; 0000000cH
$LL27@QueryInter:
  00054	8b 01		 mov	 eax, DWORD PTR [ecx]
  00056	3b 06		 cmp	 eax, DWORD PTR [esi]
  00058	75 12		 jne	 SHORT $LN5@QueryInter
  0005a	83 c1 04	 add	 ecx, 4
  0005d	83 c6 04	 add	 esi, 4
  00060	83 ef 04	 sub	 edi, 4
  00063	73 ef		 jae	 SHORT $LL27@QueryInter
; File C:\DS Project\DS Files\Source\ClientSource\Client\EterLib\IME.cpp

; 1664 :         *ppvObj = (ITfUIElementSink *)this;

  00065	8b 55 08	 mov	 edx, DWORD PTR _this$[ebp]
  00068	8b ca		 mov	 ecx, edx

; 1665 :     }

  0006a	eb 53		 jmp	 SHORT $LN9@QueryInter
$LN5@QueryInter:
; File C:\Program Files (x86)\Windows Kits\10\Include\10.0.18362.0\shared\guiddef.h

; 161  :     return !memcmp(&rguid1, &rguid2, sizeof(GUID));

  0006c	8b ca		 mov	 ecx, edx
  0006e	be 00 00 00 00	 mov	 esi, OFFSET __GUID_71c6e74e_0f28_11d8_a82a_00065b84435c
  00073	bf 0c 00 00 00	 mov	 edi, 12			; 0000000cH
$LL29@QueryInter:
  00078	8b 01		 mov	 eax, DWORD PTR [ecx]
  0007a	3b 06		 cmp	 eax, DWORD PTR [esi]
  0007c	75 13		 jne	 SHORT $LN7@QueryInter
  0007e	83 c1 04	 add	 ecx, 4
  00081	83 c6 04	 add	 esi, 4
  00084	83 ef 04	 sub	 edi, 4
  00087	73 ef		 jae	 SHORT $LL29@QueryInter
; File C:\DS Project\DS Files\Source\ClientSource\Client\EterLib\IME.cpp

; 1668 : 		*ppvObj = (ITfInputProcessorProfileActivationSink*)this;

  00089	8b 55 08	 mov	 edx, DWORD PTR _this$[ebp]
  0008c	8d 42 04	 lea	 eax, DWORD PTR [edx+4]

; 1669 : 	}

  0008f	eb 26		 jmp	 SHORT $LN34@QueryInter
$LN7@QueryInter:
; File C:\Program Files (x86)\Windows Kits\10\Include\10.0.18362.0\shared\guiddef.h

; 161  :     return !memcmp(&rguid1, &rguid2, sizeof(GUID));

  00091	b9 00 00 00 00	 mov	 ecx, OFFSET __GUID_743abd5f_f26d_48df_8cc5_238492419b64
  00096	be 0c 00 00 00	 mov	 esi, 12			; 0000000cH
  0009b	0f 1f 44 00 00	 npad	 5
$LL31@QueryInter:
  000a0	8b 02		 mov	 eax, DWORD PTR [edx]
  000a2	3b 01		 cmp	 eax, DWORD PTR [ecx]
  000a4	75 2e		 jne	 SHORT $LN10@QueryInter
  000a6	83 c2 04	 add	 edx, 4
  000a9	83 c1 04	 add	 ecx, 4
  000ac	83 ee 04	 sub	 esi, 4
  000af	73 ef		 jae	 SHORT $LL31@QueryInter
; File C:\DS Project\DS Files\Source\ClientSource\Client\EterLib\IME.cpp

; 1672 : 		*ppvObj = (ITfCompartmentEventSink*)this;

  000b1	8b 55 08	 mov	 edx, DWORD PTR _this$[ebp]
  000b4	8d 42 08	 lea	 eax, DWORD PTR [edx+8]
$LN34@QueryInter:

; 1673 : 	}
; 1674 : 
; 1675 :     if (*ppvObj)

  000b7	8b ca		 mov	 ecx, edx
  000b9	f7 d9		 neg	 ecx
  000bb	1b c9		 sbb	 ecx, ecx
  000bd	23 c8		 and	 ecx, eax
$LN9@QueryInter:
  000bf	89 0b		 mov	 DWORD PTR [ebx], ecx
  000c1	85 c9		 test	 ecx, ecx
  000c3	74 0f		 je	 SHORT $LN10@QueryInter

; 1676 :     {
; 1677 :         AddRef();

  000c5	8b 02		 mov	 eax, DWORD PTR [edx]
  000c7	52		 push	 edx
  000c8	ff 50 04	 call	 DWORD PTR [eax+4]
  000cb	5f		 pop	 edi
  000cc	5e		 pop	 esi

; 1678 :         return S_OK;

  000cd	33 c0		 xor	 eax, eax
  000cf	5b		 pop	 ebx

; 1682 : }

  000d0	5d		 pop	 ebp
  000d1	c2 0c 00	 ret	 12			; 0000000cH
$LN10@QueryInter:
  000d4	5f		 pop	 edi
  000d5	5e		 pop	 esi

; 1679 :     }
; 1680 : 
; 1681 :     return E_NOINTERFACE;

  000d6	b8 02 40 00 80	 mov	 eax, -2147467262	; 80004002H
  000db	5b		 pop	 ebx

; 1682 : }

  000dc	5d		 pop	 ebp
  000dd	c2 0c 00	 ret	 12			; 0000000cH
?QueryInterface@CUIElementSink@CTsfUiLessMode@@UAGJABU_GUID@@PAPAX@Z ENDP ; CTsfUiLessMode::CUIElementSink::QueryInterface
_TEXT	ENDS
; Function compile flags: /Ogtp
; File C:\DS Project\DS Files\Source\ClientSource\Client\EterLib\IME.cpp
;	COMDAT ??1CUIElementSink@CTsfUiLessMode@@QAE@XZ
_TEXT	SEGMENT
??1CUIElementSink@CTsfUiLessMode@@QAE@XZ PROC		; CTsfUiLessMode::CUIElementSink::~CUIElementSink, COMDAT
; _this$ = ecx

; 1648 : {

  00000	c7 01 00 00 00
	00		 mov	 DWORD PTR [ecx], OFFSET ??_7CUIElementSink@CTsfUiLessMode@@6BITfUIElementSink@@@
  00006	c7 41 04 00 00
	00 00		 mov	 DWORD PTR [ecx+4], OFFSET ??_7CUIElementSink@CTsfUiLessMode@@6BITfInputProcessorProfileActivationSink@@@
  0000d	c7 41 08 00 00
	00 00		 mov	 DWORD PTR [ecx+8], OFFSET ??_7CUIElementSink@CTsfUiLessMode@@6BITfCompartmentEventSink@@@

; 1649 : }

  00014	c3		 ret	 0
??1CUIElementSink@CTsfUiLessMode@@QAE@XZ ENDP		; CTsfUiLessMode::CUIElementSink::~CUIElementSink
_TEXT	ENDS
; Function compile flags: /Ogtp
; File C:\DS Project\DS Files\Source\ClientSource\Client\EterLib\IME.cpp
;	COMDAT ??0CUIElementSink@CTsfUiLessMode@@QAE@XZ
_TEXT	SEGMENT
??0CUIElementSink@CTsfUiLessMode@@QAE@XZ PROC		; CTsfUiLessMode::CUIElementSink::CUIElementSink, COMDAT
; _this$ = ecx

; 1642 : {

  00000	c7 01 00 00 00
	00		 mov	 DWORD PTR [ecx], OFFSET ??_7CUIElementSink@CTsfUiLessMode@@6BITfUIElementSink@@@

; 1643 :     _cRef = 1;
; 1644 : }

  00006	8b c1		 mov	 eax, ecx
  00008	c7 41 04 00 00
	00 00		 mov	 DWORD PTR [ecx+4], OFFSET ??_7CUIElementSink@CTsfUiLessMode@@6BITfInputProcessorProfileActivationSink@@@
  0000f	c7 41 08 00 00
	00 00		 mov	 DWORD PTR [ecx+8], OFFSET ??_7CUIElementSink@CTsfUiLessMode@@6BITfCompartmentEventSink@@@
  00016	c7 41 0c 01 00
	00 00		 mov	 DWORD PTR [ecx+12], 1
  0001d	c3		 ret	 0
??0CUIElementSink@CTsfUiLessMode@@QAE@XZ ENDP		; CTsfUiLessMode::CUIElementSink::CUIElementSink
_TEXT	ENDS
; Function compile flags: /Ogtp
; File C:\Program Files (x86)\Microsoft Visual Studio\2019\Community\VC\Tools\MSVC\14.27.29110\include\vector
; File C:\Program Files (x86)\Microsoft Visual Studio\2019\Community\VC\Tools\MSVC\14.27.29110\include\xmemory
; File C:\Program Files (x86)\Microsoft Visual Studio\2019\Community\VC\Tools\MSVC\14.27.29110\include\vector
;	COMDAT ??__F?ms_wstrReading@CIME@@2V?$vector@_WV?$allocator@_W@std@@@std@@A@@YAXXZ
text$yd	SEGMENT
??__F?ms_wstrReading@CIME@@2V?$vector@_WV?$allocator@_W@std@@@std@@A@@YAXXZ PROC ; `dynamic atexit destructor for 'CIME::ms_wstrReading'', COMDAT

; 1693 :         if (_Myfirst) { // destroy and deallocate old array

  00000	8b 0d 00 00 00
	00		 mov	 ecx, DWORD PTR ?ms_wstrReading@CIME@@2V?$vector@_WV?$allocator@_W@std@@@std@@A
  00006	85 c9		 test	 ecx, ecx
  00008	74 32		 je	 SHORT $LN6@ms_wstrRea

; 1694 :             _Destroy(_Myfirst, _Mylast);
; 1695 :             _Getal().deallocate(_Myfirst, static_cast<size_type>(_Myend - _Myfirst));

  0000a	a1 08 00 00 00	 mov	 eax, DWORD PTR ?ms_wstrReading@CIME@@2V?$vector@_WV?$allocator@_W@std@@@std@@A+8
  0000f	2b c1		 sub	 eax, ecx
; File C:\Program Files (x86)\Microsoft Visual Studio\2019\Community\VC\Tools\MSVC\14.27.29110\include\xmemory

; 803  :         _Deallocate<_New_alignof<_Ty>>(_Ptr, sizeof(_Ty) * _Count);

  00011	83 e0 fe	 and	 eax, -2			; fffffffeH
  00014	50		 push	 eax
  00015	51		 push	 ecx
  00016	e8 00 00 00 00	 call	 ??$_Deallocate@$07$0A@@std@@YAXPAXI@Z ; std::_Deallocate<8,0>
  0001b	83 c4 08	 add	 esp, 8
; File C:\Program Files (x86)\Microsoft Visual Studio\2019\Community\VC\Tools\MSVC\14.27.29110\include\vector

; 1697 :             _Myfirst = pointer();

  0001e	c7 05 00 00 00
	00 00 00 00 00	 mov	 DWORD PTR ?ms_wstrReading@CIME@@2V?$vector@_WV?$allocator@_W@std@@@std@@A, 0

; 1698 :             _Mylast  = pointer();

  00028	c7 05 04 00 00
	00 00 00 00 00	 mov	 DWORD PTR ?ms_wstrReading@CIME@@2V?$vector@_WV?$allocator@_W@std@@@std@@A+4, 0

; 1699 :             _Myend   = pointer();

  00032	c7 05 08 00 00
	00 00 00 00 00	 mov	 DWORD PTR ?ms_wstrReading@CIME@@2V?$vector@_WV?$allocator@_W@std@@@std@@A+8, 0
$LN6@ms_wstrRea:
  0003c	c3		 ret	 0
??__F?ms_wstrReading@CIME@@2V?$vector@_WV?$allocator@_W@std@@@std@@A@@YAXXZ ENDP ; `dynamic atexit destructor for 'CIME::ms_wstrReading''
text$yd	ENDS
; Function compile flags: /Ogtp
; File C:\DS Project\DS Files\Source\ClientSource\Client\EterLib\IME.cpp
;	COMDAT ??__E?ms_wstrReading@CIME@@2V?$vector@_WV?$allocator@_W@std@@@std@@A@@YAXXZ
text$di	SEGMENT
??__E?ms_wstrReading@CIME@@2V?$vector@_WV?$allocator@_W@std@@@std@@A@@YAXXZ PROC ; `dynamic initializer for 'CIME::ms_wstrReading'', COMDAT

; 120  : std::vector<wchar_t>	CIME::ms_wstrReading;

  00000	68 00 00 00 00	 push	 OFFSET ??__F?ms_wstrReading@CIME@@2V?$vector@_WV?$allocator@_W@std@@@std@@A@@YAXXZ ; `dynamic atexit destructor for 'CIME::ms_wstrReading''
  00005	e8 00 00 00 00	 call	 _atexit
  0000a	59		 pop	 ecx
  0000b	c3		 ret	 0
??__E?ms_wstrReading@CIME@@2V?$vector@_WV?$allocator@_W@std@@@std@@A@@YAXXZ ENDP ; `dynamic initializer for 'CIME::ms_wstrReading''
text$di	ENDS
; Function compile flags: /Ogtp
;	COMDAT ??_GCIME@@UAEPAXI@Z
_TEXT	SEGMENT
___flags$ = 8						; size = 4
??_GCIME@@UAEPAXI@Z PROC				; CIME::`scalar deleting destructor', COMDAT
; _this$ = ecx
  00000	55		 push	 ebp
  00001	8b ec		 mov	 ebp, esp
  00003	56		 push	 esi
  00004	8b f1		 mov	 esi, ecx
  00006	e8 00 00 00 00	 call	 ??1CIME@@UAE@XZ		; CIME::~CIME
  0000b	f6 45 08 01	 test	 BYTE PTR ___flags$[ebp], 1
  0000f	74 0e		 je	 SHORT $LN4@scalar
  00011	68 24 08 00 00	 push	 2084			; 00000824H
  00016	56		 push	 esi
  00017	e8 00 00 00 00	 call	 ??3@YAXPAXI@Z		; operator delete
  0001c	83 c4 08	 add	 esp, 8
$LN4@scalar:
  0001f	8b c6		 mov	 eax, esi
  00021	5e		 pop	 esi
  00022	5d		 pop	 ebp
  00023	c2 04 00	 ret	 4
??_GCIME@@UAEPAXI@Z ENDP				; CIME::`scalar deleting destructor'
_TEXT	ENDS
; Function compile flags: /Ogtp
; File C:\Program Files (x86)\Microsoft Visual Studio\2019\Community\VC\Tools\MSVC\14.27.29110\include\vector
;	COMDAT ?_Xlength@?$vector@_WV?$allocator@_W@std@@@std@@CAXXZ
_TEXT	SEGMENT
?_Xlength@?$vector@_WV?$allocator@_W@std@@@std@@CAXXZ PROC ; std::vector<wchar_t,std::allocator<wchar_t> >::_Xlength, COMDAT

; 1704 :         _Xlength_error("vector too long");

  00000	68 00 00 00 00	 push	 OFFSET ??_C@_0BA@FOIKENOD@vector?5too?5long@
  00005	e8 00 00 00 00	 call	 ?_Xlength_error@std@@YAXPBD@Z ; std::_Xlength_error
$LN3@Xlength:
  0000a	cc		 int	 3
?_Xlength@?$vector@_WV?$allocator@_W@std@@@std@@CAXXZ ENDP ; std::vector<wchar_t,std::allocator<wchar_t> >::_Xlength
_TEXT	ENDS
; Function compile flags: /Ogtp
; File C:\Program Files (x86)\Microsoft Visual Studio\2019\Community\VC\Tools\MSVC\14.27.29110\include\vector
;	COMDAT ?resize@?$vector@_WV?$allocator@_W@std@@@std@@QAEXI@Z
_TEXT	SEGMENT
__Newsize$ = 8						; size = 4
$T1 = 11						; size = 1
?resize@?$vector@_WV?$allocator@_W@std@@@std@@QAEXI@Z PROC ; std::vector<wchar_t,std::allocator<wchar_t> >::resize, COMDAT
; _this$ = ecx

; 1240 :     void resize(_CRT_GUARDOVERFLOW const size_type _Newsize) {

  00000	55		 push	 ebp
  00001	8b ec		 mov	 ebp, esp
  00003	56		 push	 esi
  00004	8b f1		 mov	 esi, ecx

; 1216 :         if (_Newsize < _Oldsize) { // trim

  00006	8b 4d 08	 mov	 ecx, DWORD PTR __Newsize$[ebp]

; 1240 :     void resize(_CRT_GUARDOVERFLOW const size_type _Newsize) {

  00009	57		 push	 edi

; 1215 :         const auto _Oldsize = static_cast<size_type>(_Mylast - _Myfirst);

  0000a	8b 56 04	 mov	 edx, DWORD PTR [esi+4]
  0000d	8b 3e		 mov	 edi, DWORD PTR [esi]
  0000f	2b d7		 sub	 edx, edi
  00011	d1 fa		 sar	 edx, 1

; 1216 :         if (_Newsize < _Oldsize) { // trim

  00013	3b ca		 cmp	 ecx, edx
  00015	73 0c		 jae	 SHORT $LN4@resize

; 1217 :             const pointer _Newlast = _Myfirst + _Newsize;

  00017	8d 04 4f	 lea	 eax, DWORD PTR [edi+ecx*2]
  0001a	5f		 pop	 edi

; 1241 :         // trim or append value-initialized elements, provide strong guarantee
; 1242 :         _Resize(_Newsize, _Value_init_tag{});
; 1243 :     }

  0001b	89 46 04	 mov	 DWORD PTR [esi+4], eax
  0001e	5e		 pop	 esi
  0001f	5d		 pop	 ebp
  00020	c2 04 00	 ret	 4
$LN4@resize:

; 1224 :         if (_Newsize > _Oldsize) { // append

  00023	76 2f		 jbe	 SHORT $LN5@resize

; 1225 :             const auto _Oldcapacity = static_cast<size_type>(_My_data._Myend - _Myfirst);

  00025	8b 46 08	 mov	 eax, DWORD PTR [esi+8]
  00028	2b c7		 sub	 eax, edi
  0002a	d1 f8		 sar	 eax, 1

; 1226 :             if (_Newsize > _Oldcapacity) { // reallocate

  0002c	3b c8		 cmp	 ecx, eax
  0002e	76 12		 jbe	 SHORT $LN6@resize

; 1227 :                 _Resize_reallocate(_Newsize, _Val);

  00030	8d 45 0b	 lea	 eax, DWORD PTR $T1[ebp]
  00033	50		 push	 eax
  00034	51		 push	 ecx
  00035	8b ce		 mov	 ecx, esi
  00037	e8 00 00 00 00	 call	 ??$_Resize_reallocate@U_Value_init_tag@std@@@?$vector@_WV?$allocator@_W@std@@@std@@AAEXIABU_Value_init_tag@1@@Z ; std::vector<wchar_t,std::allocator<wchar_t> >::_Resize_reallocate<std::_Value_init_tag>
  0003c	5f		 pop	 edi

; 1241 :         // trim or append value-initialized elements, provide strong guarantee
; 1242 :         _Resize(_Newsize, _Value_init_tag{});
; 1243 :     }

  0003d	5e		 pop	 esi
  0003e	5d		 pop	 ebp
  0003f	c2 04 00	 ret	 4
$LN6@resize:

; 1583 :         return _Uninitialized_value_construct_n(_Dest, _Count, _Getal());

  00042	56		 push	 esi

; 1232 :             _Mylast                = _Ufill(_Oldlast, _Newsize - _Oldsize, _Val);

  00043	2b ca		 sub	 ecx, edx

; 1583 :         return _Uninitialized_value_construct_n(_Dest, _Count, _Getal());

  00045	51		 push	 ecx
  00046	ff 76 04	 push	 DWORD PTR [esi+4]
  00049	e8 00 00 00 00	 call	 ??$_Uninitialized_value_construct_n@V?$allocator@_W@std@@@std@@YAPA_WPA_WIAAV?$allocator@_W@0@@Z ; std::_Uninitialized_value_construct_n<std::allocator<wchar_t> >
  0004e	83 c4 0c	 add	 esp, 12			; 0000000cH

; 1241 :         // trim or append value-initialized elements, provide strong guarantee
; 1242 :         _Resize(_Newsize, _Value_init_tag{});
; 1243 :     }

  00051	89 46 04	 mov	 DWORD PTR [esi+4], eax
$LN5@resize:
  00054	5f		 pop	 edi
  00055	5e		 pop	 esi
  00056	5d		 pop	 ebp
  00057	c2 04 00	 ret	 4
?resize@?$vector@_WV?$allocator@_W@std@@@std@@QAEXI@Z ENDP ; std::vector<wchar_t,std::allocator<wchar_t> >::resize
_TEXT	ENDS
; Function compile flags: /Ogtp
; File C:\DS Project\DS Files\Source\ClientSource\Client\EterLib\IME.cpp
;	COMDAT ?SetupImeApi@CIME@@KAXXZ
_TEXT	SEGMENT
_szImeFile$ = -268					; size = 261
__$ArrayPad$ = -4					; size = 4
?SetupImeApi@CIME@@KAXXZ PROC				; CIME::SetupImeApi, COMDAT

; 1389 : {

  00000	55		 push	 ebp
  00001	8b ec		 mov	 ebp, esp
  00003	81 ec 0c 01 00
	00		 sub	 esp, 268		; 0000010cH
  00009	a1 00 00 00 00	 mov	 eax, DWORD PTR ___security_cookie
  0000e	33 c5		 xor	 eax, ebp
  00010	89 45 fc	 mov	 DWORD PTR __$ArrayPad$[ebp], eax

; 1390 :     char szImeFile[MAX_PATH + 1];
; 1391 : 
; 1392 : 	_GetReadingString = NULL;
; 1393 :     _ShowReadingWindow = NULL;
; 1394 : 	ms_bUseIMMCandidate = false;
; 1395 : 
; 1396 : 	if(ImmGetIMEFileNameA(ms_hklCurrent, szImeFile, COUNTOF(szImeFile) - 1) == 0)

  00013	68 04 01 00 00	 push	 260			; 00000104H
  00018	8d 85 f4 fe ff
	ff		 lea	 eax, DWORD PTR _szImeFile$[ebp]
  0001e	c7 05 00 00 00
	00 00 00 00 00	 mov	 DWORD PTR ?_GetReadingString@CIME@@1P6GIPAUHIMC__@@IPA_WPAH2PAI@ZA, 0 ; CIME::_GetReadingString
  00028	50		 push	 eax
  00029	ff 35 00 00 00
	00		 push	 DWORD PTR ?ms_hklCurrent@CIME@@2PAUHKL__@@A ; CIME::ms_hklCurrent
  0002f	c7 05 00 00 00
	00 00 00 00 00	 mov	 DWORD PTR ?_ShowReadingWindow@CIME@@1P6GHPAUHIMC__@@H@ZA, 0 ; CIME::_ShowReadingWindow
  00039	c6 05 00 00 00
	00 00		 mov	 BYTE PTR ?ms_bUseIMMCandidate@CIME@@2_NA, 0 ; CIME::ms_bUseIMMCandidate
  00040	e8 00 00 00 00	 call	 _ImmGetIMEFileNameA@12
  00045	85 c0		 test	 eax, eax
  00047	0f 84 dd 00 00
	00		 je	 $LN9@SetupImeAp

; 1397 : 		return;
; 1398 : 	if(stricmp(szImeFile, CHS_IMEFILENAME_QQPINYIN) == 0 || stricmp(szImeFile, CHS_IMEFILENAME_SOGOUPY) == 0 || stricmp(szImeFile, CHS_IMEFILENAME_GOOGLEPINYIN2) == 0)

  0004d	8d 85 f4 fe ff
	ff		 lea	 eax, DWORD PTR _szImeFile$[ebp]
  00053	68 00 00 00 00	 push	 OFFSET ??_C@_0N@EMABPIGL@QQPINYIN?4IME@
  00058	50		 push	 eax
  00059	e8 00 00 00 00	 call	 __stricmp
  0005e	83 c4 08	 add	 esp, 8
  00061	85 c0		 test	 eax, eax
  00063	74 30		 je	 SHORT $LN4@SetupImeAp
  00065	8d 85 f4 fe ff
	ff		 lea	 eax, DWORD PTR _szImeFile$[ebp]
  0006b	68 00 00 00 00	 push	 OFFSET ??_C@_0M@IPABOCGB@SOGOUPY?4IME@
  00070	50		 push	 eax
  00071	e8 00 00 00 00	 call	 __stricmp
  00076	83 c4 08	 add	 esp, 8
  00079	85 c0		 test	 eax, eax
  0007b	74 18		 je	 SHORT $LN4@SetupImeAp
  0007d	8d 85 f4 fe ff
	ff		 lea	 eax, DWORD PTR _szImeFile$[ebp]
  00083	68 00 00 00 00	 push	 OFFSET ??_C@_0BC@KLAKFCEJ@GOOGLEPINYIN2?4IME@
  00088	50		 push	 eax
  00089	e8 00 00 00 00	 call	 __stricmp
  0008e	83 c4 08	 add	 esp, 8
  00091	85 c0		 test	 eax, eax
  00093	75 07		 jne	 SHORT $LN3@SetupImeAp
$LN4@SetupImeAp:

; 1399 : 		ms_bUseIMMCandidate = true;

  00095	c6 05 00 00 00
	00 01		 mov	 BYTE PTR ?ms_bUseIMMCandidate@CIME@@2_NA, 1 ; CIME::ms_bUseIMMCandidate
$LN3@SetupImeAp:

; 1400 : 	if (ms_bUILessMode)

  0009c	80 3d 00 00 00
	00 00		 cmp	 BYTE PTR ?ms_bUILessMode@CIME@@2_NA, 0 ; CIME::ms_bUILessMode
  000a3	0f 85 81 00 00
	00		 jne	 $LN9@SetupImeAp

; 1401 : 		return;
; 1402 : 	SAFE_FREE_LIBRARY(ms_hCurrentImeDll);

  000a9	a1 00 00 00 00	 mov	 eax, DWORD PTR ?ms_hCurrentImeDll@CIME@@2PAUHINSTANCE__@@A ; CIME::ms_hCurrentImeDll
  000ae	85 c0		 test	 eax, eax
  000b0	74 11		 je	 SHORT $LN6@SetupImeAp
  000b2	50		 push	 eax
  000b3	ff 15 00 00 00
	00		 call	 DWORD PTR __imp__FreeLibrary@4
  000b9	c7 05 00 00 00
	00 00 00 00 00	 mov	 DWORD PTR ?ms_hCurrentImeDll@CIME@@2PAUHINSTANCE__@@A, 0 ; CIME::ms_hCurrentImeDll
$LN6@SetupImeAp:

; 1403 : 	ms_hCurrentImeDll = LoadLibraryA(szImeFile);

  000c3	8d 85 f4 fe ff
	ff		 lea	 eax, DWORD PTR _szImeFile$[ebp]
  000c9	50		 push	 eax
  000ca	ff 15 00 00 00
	00		 call	 DWORD PTR __imp__LoadLibraryA@4
  000d0	a3 00 00 00 00	 mov	 DWORD PTR ?ms_hCurrentImeDll@CIME@@2PAUHINSTANCE__@@A, eax ; CIME::ms_hCurrentImeDll

; 1404 : 
; 1405 : 	if (ms_hCurrentImeDll) {

  000d5	85 c0		 test	 eax, eax
  000d7	74 51		 je	 SHORT $LN9@SetupImeAp

; 1406 : 		_GetReadingString = (UINT (WINAPI*)(HIMC, UINT, LPWSTR, PINT, BOOL*, PUINT)) (GetProcAddress(ms_hCurrentImeDll, "GetReadingString"));

  000d9	56		 push	 esi
  000da	8b 35 00 00 00
	00		 mov	 esi, DWORD PTR __imp__GetProcAddress@8
  000e0	68 00 00 00 00	 push	 OFFSET ??_C@_0BB@EOIFCLLM@GetReadingString@
  000e5	50		 push	 eax
  000e6	ff d6		 call	 esi

; 1407 : 		_ShowReadingWindow =(BOOL (WINAPI*)(HIMC, BOOL)) (GetProcAddress(ms_hCurrentImeDll, "ShowReadingWindow"));

  000e8	68 00 00 00 00	 push	 OFFSET ??_C@_0BC@MEELNKEC@ShowReadingWindow@
  000ed	ff 35 00 00 00
	00		 push	 DWORD PTR ?ms_hCurrentImeDll@CIME@@2PAUHINSTANCE__@@A ; CIME::ms_hCurrentImeDll
  000f3	a3 00 00 00 00	 mov	 DWORD PTR ?_GetReadingString@CIME@@1P6GIPAUHIMC__@@IPA_WPAH2PAI@ZA, eax ; CIME::_GetReadingString
  000f8	ff d6		 call	 esi
  000fa	a3 00 00 00 00	 mov	 DWORD PTR ?_ShowReadingWindow@CIME@@1P6GHPAUHIMC__@@H@ZA, eax ; CIME::_ShowReadingWindow

; 1408 : 
; 1409 : 		if(_ShowReadingWindow) {

  000ff	85 c0		 test	 eax, eax
  00101	74 26		 je	 SHORT $LN11@SetupImeAp

; 1410 : 			HIMC hImc = ImmGetContext(ms_hWnd);

  00103	ff 35 00 00 00
	00		 push	 DWORD PTR ?ms_hWnd@CIME@@2PAUHWND__@@A ; CIME::ms_hWnd
  00109	e8 00 00 00 00	 call	 _ImmGetContext@4
  0010e	8b f0		 mov	 esi, eax

; 1411 : 			if(hImc) {

  00110	85 f6		 test	 esi, esi
  00112	74 15		 je	 SHORT $LN11@SetupImeAp

; 1412 : 				_ShowReadingWindow(hImc, false);

  00114	6a 00		 push	 0
  00116	56		 push	 esi
  00117	ff 15 00 00 00
	00		 call	 DWORD PTR ?_ShowReadingWindow@CIME@@1P6GHPAUHIMC__@@H@ZA ; CIME::_ShowReadingWindow

; 1413 : 				ImmReleaseContext(ms_hWnd, hImc);

  0011d	56		 push	 esi
  0011e	ff 35 00 00 00
	00		 push	 DWORD PTR ?ms_hWnd@CIME@@2PAUHWND__@@A ; CIME::ms_hWnd
  00124	e8 00 00 00 00	 call	 _ImmReleaseContext@8
$LN11@SetupImeAp:
  00129	5e		 pop	 esi
$LN9@SetupImeAp:

; 1414 : 			}
; 1415 : 		}
; 1416 : 	}
; 1417 : }

  0012a	8b 4d fc	 mov	 ecx, DWORD PTR __$ArrayPad$[ebp]
  0012d	33 cd		 xor	 ecx, ebp
  0012f	e8 00 00 00 00	 call	 @__security_check_cookie@4
  00134	8b e5		 mov	 esp, ebp
  00136	5d		 pop	 ebp
  00137	c3		 ret	 0
?SetupImeApi@CIME@@KAXXZ ENDP				; CIME::SetupImeApi
_TEXT	ENDS
; Function compile flags: /Ogtp
; File C:\DS Project\DS Files\Source\ClientSource\Client\EterLib\IME.cpp
;	COMDAT ?GetReadingWindowOrientation@CIME@@IAE_NXZ
_TEXT	SEGMENT
_dwType$1 = -284					; size = 4
_dwMapping$2 = -280					; size = 4
_dwSize$3 = -276					; size = 4
_hKey$4 = -272						; size = 4
_bHorizontalReading$1$ = -265				; size = 1
_szRegPath$5 = -264					; size = 260
__$ArrayPad$ = -4					; size = 4
?GetReadingWindowOrientation@CIME@@IAE_NXZ PROC		; CIME::GetReadingWindowOrientation, COMDAT
; _this$ = ecx

; 1355 : {

  00000	55		 push	 ebp
  00001	8b ec		 mov	 ebp, esp
  00003	81 ec 1c 01 00
	00		 sub	 esp, 284		; 0000011cH
  00009	a1 00 00 00 00	 mov	 eax, DWORD PTR ___security_cookie
  0000e	33 c5		 xor	 eax, ebp
  00010	89 45 fc	 mov	 DWORD PTR __$ArrayPad$[ebp], eax

; 1356 :     bool bHorizontalReading = (ms_hklCurrent == _CHS_HKL) || (ms_hklCurrent == _CHT_HKL_NEW_CHANG_JIE) || (ms_adwId[0] == 0);

  00013	a1 00 00 00 00	 mov	 eax, DWORD PTR ?ms_hklCurrent@CIME@@2PAUHKL__@@A ; CIME::ms_hklCurrent
  00018	53		 push	 ebx
  00019	3d 04 08 0e e0	 cmp	 eax, -535951356		; e00e0804H
  0001e	0f 84 aa 01 00
	00		 je	 $LN10@GetReading
  00024	3d 04 04 09 e0	 cmp	 eax, -536280060		; e0090404H
  00029	0f 84 9f 01 00
	00		 je	 $LN10@GetReading
  0002f	8b 1d 00 00 00
	00		 mov	 ebx, DWORD PTR ?ms_adwId@CIME@@2PAKA
  00035	85 db		 test	 ebx, ebx
  00037	0f 84 91 01 00
	00		 je	 $LN10@GetReading
  0003d	32 c9		 xor	 cl, cl

; 1357 :     if(!bHorizontalReading && (GETLANG() == LANG_CHT))

  0003f	ba 04 04 00 00	 mov	 edx, 1028		; 00000404H
  00044	88 8d f7 fe ff
	ff		 mov	 BYTE PTR _bHorizontalReading$1$[ebp], cl
  0004a	66 3b c2	 cmp	 ax, dx
  0004d	0f 85 6a 01 00
	00		 jne	 $LN16@GetReading

; 1358 :     {
; 1359 :         char szRegPath[MAX_PATH];
; 1360 :         HKEY hKey;
; 1361 :         DWORD dwVer = ms_adwId[0] & 0xFFFF0000;
; 1362 :         strcpy(szRegPath, "software\\microsoft\\windows\\currentversion\\");

  00053	0f 10 05 00 00
	00 00		 movups	 xmm0, XMMWORD PTR ??_C@_0CL@PCFEMFCF@software?2microsoft?2windows?2curr@
  0005a	66 a1 28 00 00
	00		 mov	 ax, WORD PTR ??_C@_0CL@PCFEMFCF@software?2microsoft?2windows?2curr@+40
  00060	81 e3 00 00 ff
	ff		 and	 ebx, -65536		; ffff0000H
  00066	66 89 85 20 ff
	ff ff		 mov	 WORD PTR _szRegPath$5[ebp+40], ax

; 1363 :         strcat(szRegPath, (dwVer >= MAKEIMEVERSION(5, 1)) ? "MSTCIPH" : "TINTLGNT");

  0006d	81 fb 00 00 01
	05		 cmp	 ebx, 83951616		; 05010000H
  00073	a0 2a 00 00 00	 mov	 al, BYTE PTR ??_C@_0CL@PCFEMFCF@software?2microsoft?2windows?2curr@+42
  00078	ba 00 00 00 00	 mov	 edx, OFFSET ??_C@_07DEJAPC@MSTCIPH@
  0007d	0f 11 85 f8 fe
	ff ff		 movups	 XMMWORD PTR _szRegPath$5[ebp], xmm0
  00084	88 85 22 ff ff
	ff		 mov	 BYTE PTR _szRegPath$5[ebp+42], al
  0008a	b8 00 00 00 00	 mov	 eax, OFFSET ??_C@_08LMKCILHO@TINTLGNT@
  0008f	0f 10 05 10 00
	00 00		 movups	 xmm0, XMMWORD PTR ??_C@_0CL@PCFEMFCF@software?2microsoft?2windows?2curr@+16
  00096	56		 push	 esi
  00097	0f 42 d0	 cmovb	 edx, eax
  0009a	0f 11 85 08 ff
	ff ff		 movups	 XMMWORD PTR _szRegPath$5[ebp+16], xmm0
  000a1	8b f2		 mov	 esi, edx
  000a3	f3 0f 7e 05 20
	00 00 00	 movq	 xmm0, QWORD PTR ??_C@_0CL@PCFEMFCF@software?2microsoft?2windows?2curr@+32
  000ab	57		 push	 edi
  000ac	66 0f d6 85 18
	ff ff ff	 movq	 QWORD PTR _szRegPath$5[ebp+32], xmm0
$LL13@GetReading:
  000b4	8a 02		 mov	 al, BYTE PTR [edx]
  000b6	42		 inc	 edx
  000b7	84 c0		 test	 al, al
  000b9	75 f9		 jne	 SHORT $LL13@GetReading
  000bb	8d bd f8 fe ff
	ff		 lea	 edi, DWORD PTR _szRegPath$5[ebp]
  000c1	2b d6		 sub	 edx, esi
  000c3	4f		 dec	 edi
$LL14@GetReading:
  000c4	8a 47 01	 mov	 al, BYTE PTR [edi+1]
  000c7	47		 inc	 edi
  000c8	84 c0		 test	 al, al
  000ca	75 f8		 jne	 SHORT $LL14@GetReading
  000cc	8b ca		 mov	 ecx, edx

; 1364 :         LONG lRc = RegOpenKeyExA(HKEY_CURRENT_USER, szRegPath, 0, KEY_READ, &hKey);

  000ce	8d 85 f0 fe ff
	ff		 lea	 eax, DWORD PTR _hKey$4[ebp]
  000d4	c1 e9 02	 shr	 ecx, 2
  000d7	f3 a5		 rep movsd
  000d9	50		 push	 eax
  000da	68 19 00 02 00	 push	 131097			; 00020019H
  000df	6a 00		 push	 0
  000e1	8b ca		 mov	 ecx, edx
  000e3	8d 85 f8 fe ff
	ff		 lea	 eax, DWORD PTR _szRegPath$5[ebp]
  000e9	83 e1 03	 and	 ecx, 3
  000ec	50		 push	 eax
  000ed	f3 a4		 rep movsb
  000ef	68 01 00 00 80	 push	 -2147483647		; 80000001H
  000f4	ff 15 00 00 00
	00		 call	 DWORD PTR __imp__RegOpenKeyExA@20
  000fa	5f		 pop	 edi
  000fb	5e		 pop	 esi

; 1365 :         if (lRc == ERROR_SUCCESS)

  000fc	85 c0		 test	 eax, eax
  000fe	0f 85 a4 00 00
	00		 jne	 $LN15@GetReading

; 1366 :         {
; 1367 :             DWORD dwSize = sizeof(DWORD), dwMapping, dwType;
; 1368 :             lRc = RegQueryValueExA(hKey, "Keyboard Mapping", NULL, &dwType, (PBYTE)&dwMapping, &dwSize);

  00104	8d 85 ec fe ff
	ff		 lea	 eax, DWORD PTR _dwSize$3[ebp]
  0010a	c7 85 ec fe ff
	ff 04 00 00 00	 mov	 DWORD PTR _dwSize$3[ebp], 4
  00114	50		 push	 eax
  00115	8d 85 e8 fe ff
	ff		 lea	 eax, DWORD PTR _dwMapping$2[ebp]
  0011b	50		 push	 eax
  0011c	8d 85 e4 fe ff
	ff		 lea	 eax, DWORD PTR _dwType$1[ebp]
  00122	50		 push	 eax
  00123	6a 00		 push	 0
  00125	68 00 00 00 00	 push	 OFFSET ??_C@_0BB@KFOMJFEN@Keyboard?5Mapping@
  0012a	ff b5 f0 fe ff
	ff		 push	 DWORD PTR _hKey$4[ebp]
  00130	ff 15 00 00 00
	00		 call	 DWORD PTR __imp__RegQueryValueExA@24

; 1369 :             if (lRc == ERROR_SUCCESS)

  00136	85 c0		 test	 eax, eax
  00138	75 4b		 jne	 SHORT $LN19@GetReading

; 1370 :             {
; 1371 :                 if ((dwVer <= MAKEIMEVERSION(5, 0) &&
; 1372 :                        ((BYTE)dwMapping == 0x22 || (BYTE)dwMapping == 0x23))
; 1373 :                      ||

  0013a	8b 85 e8 fe ff
	ff		 mov	 eax, DWORD PTR _dwMapping$2[ebp]
  00140	81 fb 00 00 00
	05		 cmp	 ebx, 83886080		; 05000000H
  00146	77 08		 ja	 SHORT $LN7@GetReading
  00148	3c 22		 cmp	 al, 34			; 00000022H
  0014a	74 1a		 je	 SHORT $LN6@GetReading
  0014c	3c 23		 cmp	 al, 35			; 00000023H
  0014e	74 16		 je	 SHORT $LN6@GetReading
$LN7@GetReading:
  00150	81 fb 00 00 01
	05		 cmp	 ebx, 83951616		; 05010000H
  00156	74 08		 je	 SHORT $LN8@GetReading
  00158	81 fb 00 00 02
	05		 cmp	 ebx, 84017152		; 05020000H
  0015e	75 25		 jne	 SHORT $LN19@GetReading
$LN8@GetReading:
  00160	2c 22		 sub	 al, 34			; 00000022H
  00162	3c 02		 cmp	 al, 2
  00164	77 1f		 ja	 SHORT $LN19@GetReading
$LN6@GetReading:

; 1374 :                      ((dwVer == MAKEIMEVERSION(5, 1) || dwVer == MAKEIMEVERSION(5, 2)) &&
; 1375 :                        (BYTE)dwMapping >= 0x22 && (BYTE)dwMapping <= 0x24)
; 1376 :                   )
; 1377 :                 {
; 1378 :                     bHorizontalReading = true;
; 1379 :                 }
; 1380 :             }
; 1381 :             RegCloseKey(hKey);

  00166	ff b5 f0 fe ff
	ff		 push	 DWORD PTR _hKey$4[ebp]
  0016c	b3 01		 mov	 bl, 1
  0016e	ff 15 00 00 00
	00		 call	 DWORD PTR __imp__RegCloseKey@4

; 1382 :         }
; 1383 :     }
; 1384 : 
; 1385 : 	return bHorizontalReading;

  00174	8a c3		 mov	 al, bl
  00176	5b		 pop	 ebx

; 1386 : }

  00177	8b 4d fc	 mov	 ecx, DWORD PTR __$ArrayPad$[ebp]
  0017a	33 cd		 xor	 ecx, ebp
  0017c	e8 00 00 00 00	 call	 @__security_check_cookie@4
  00181	8b e5		 mov	 esp, ebp
  00183	5d		 pop	 ebp
  00184	c3		 ret	 0
$LN19@GetReading:

; 1374 :                      ((dwVer == MAKEIMEVERSION(5, 1) || dwVer == MAKEIMEVERSION(5, 2)) &&
; 1375 :                        (BYTE)dwMapping >= 0x22 && (BYTE)dwMapping <= 0x24)
; 1376 :                   )
; 1377 :                 {
; 1378 :                     bHorizontalReading = true;
; 1379 :                 }
; 1380 :             }
; 1381 :             RegCloseKey(hKey);

  00185	ff b5 f0 fe ff
	ff		 push	 DWORD PTR _hKey$4[ebp]
  0018b	8a 9d f7 fe ff
	ff		 mov	 bl, BYTE PTR _bHorizontalReading$1$[ebp]
  00191	ff 15 00 00 00
	00		 call	 DWORD PTR __imp__RegCloseKey@4

; 1382 :         }
; 1383 :     }
; 1384 : 
; 1385 : 	return bHorizontalReading;

  00197	8a c3		 mov	 al, bl
  00199	5b		 pop	 ebx

; 1386 : }

  0019a	8b 4d fc	 mov	 ecx, DWORD PTR __$ArrayPad$[ebp]
  0019d	33 cd		 xor	 ecx, ebp
  0019f	e8 00 00 00 00	 call	 @__security_check_cookie@4
  001a4	8b e5		 mov	 esp, ebp
  001a6	5d		 pop	 ebp
  001a7	c3		 ret	 0
$LN15@GetReading:

; 1382 :         }
; 1383 :     }
; 1384 : 
; 1385 : 	return bHorizontalReading;

  001a8	8a 85 f7 fe ff
	ff		 mov	 al, BYTE PTR _bHorizontalReading$1$[ebp]
  001ae	5b		 pop	 ebx

; 1386 : }

  001af	8b 4d fc	 mov	 ecx, DWORD PTR __$ArrayPad$[ebp]
  001b2	33 cd		 xor	 ecx, ebp
  001b4	e8 00 00 00 00	 call	 @__security_check_cookie@4
  001b9	8b e5		 mov	 esp, ebp
  001bb	5d		 pop	 ebp
  001bc	c3		 ret	 0
$LN16@GetReading:

; 1382 :         }
; 1383 :     }
; 1384 : 
; 1385 : 	return bHorizontalReading;

  001bd	8a c1		 mov	 al, cl
  001bf	5b		 pop	 ebx

; 1386 : }

  001c0	8b 4d fc	 mov	 ecx, DWORD PTR __$ArrayPad$[ebp]
  001c3	33 cd		 xor	 ecx, ebp
  001c5	e8 00 00 00 00	 call	 @__security_check_cookie@4
  001ca	8b e5		 mov	 esp, ebp
  001cc	5d		 pop	 ebp
  001cd	c3		 ret	 0
$LN10@GetReading:
  001ce	8b 4d fc	 mov	 ecx, DWORD PTR __$ArrayPad$[ebp]
  001d1	b0 01		 mov	 al, 1
  001d3	33 cd		 xor	 ecx, ebp
  001d5	5b		 pop	 ebx
  001d6	e8 00 00 00 00	 call	 @__security_check_cookie@4
  001db	8b e5		 mov	 esp, ebp
  001dd	5d		 pop	 ebp
  001de	c3		 ret	 0
?GetReadingWindowOrientation@CIME@@IAE_NXZ ENDP		; CIME::GetReadingWindowOrientation
_TEXT	ENDS
; Function compile flags: /Ogtp
; File C:\DS Project\DS Files\Source\ClientSource\Client\EterLib\IME.cpp
;	COMDAT ?GetImeId@CIME@@IAEKI@Z
_TEXT	SEGMENT
_cbVerData$1 = -1044					; size = 4
_lpVerData$2 = -1040					; size = 4
_lpVerBuffer$1$ = -1036					; size = 4
_dwVerHandle$ = -1032					; size = 4
_szTmp$ = -1028						; size = 1024
__$ArrayPad$ = -4					; size = 4
_uIndex$ = 8						; size = 4
?GetImeId@CIME@@IAEKI@Z PROC				; CIME::GetImeId, COMDAT
; _this$ = ecx

; 1266 : {

  00000	55		 push	 ebp
  00001	8b ec		 mov	 ebp, esp
  00003	81 ec 14 04 00
	00		 sub	 esp, 1044		; 00000414H
  00009	a1 00 00 00 00	 mov	 eax, DWORD PTR ___security_cookie
  0000e	33 c5		 xor	 eax, ebp
  00010	89 45 fc	 mov	 DWORD PTR __$ArrayPad$[ebp], eax
  00013	53		 push	 ebx
  00014	56		 push	 esi
  00015	57		 push	 edi

; 1267 : 	static HKL hklPrev = 0;
; 1268 :     char szTmp[1024];
; 1269 : 
; 1270 : 	if (uIndex >= COUNTOF(ms_adwId))

  00016	8b 7d 08	 mov	 edi, DWORD PTR _uIndex$[ebp]
  00019	83 ff 02	 cmp	 edi, 2
  0001c	0f 83 2b 02 00
	00		 jae	 $LN17@GetImeId

; 1271 : 		return 0;
; 1272 : 	HKL hkl = ms_hklCurrent;

  00022	8b 0d 00 00 00
	00		 mov	 ecx, DWORD PTR ?ms_hklCurrent@CIME@@2PAUHKL__@@A ; CIME::ms_hklCurrent

; 1273 : 	if(hklPrev == hkl)

  00028	39 0d 00 00 00
	00		 cmp	 DWORD PTR ?hklPrev@?1??GetImeId@CIME@@IAEKI@Z@4PAUHKL__@@A, ecx
  0002e	0f 84 67 02 00
	00		 je	 $LN18@GetImeId

; 1274 : 		return ms_adwId[uIndex];
; 1275 : 	hklPrev = hkl;
; 1276 : 
; 1277 : 	DWORD dwLang = ((DWORD)hkl & 0xffff);
; 1278 : 
; 1279 : 	if ( ms_bUILessMode && GETLANG() == LANG_CHT ) {

  00034	80 3d 00 00 00
	00 00		 cmp	 BYTE PTR ?ms_bUILessMode@CIME@@2_NA, 0 ; CIME::ms_bUILessMode
  0003b	b8 04 04 00 00	 mov	 eax, 1028		; 00000404H
  00040	89 0d 00 00 00
	00		 mov	 DWORD PTR ?hklPrev@?1??GetImeId@CIME@@IAEKI@Z@4PAUHKL__@@A, ecx
  00046	74 23		 je	 SHORT $LN4@GetImeId
  00048	66 3b c8	 cmp	 cx, ax
  0004b	75 1e		 jne	 SHORT $LN4@GetImeId

; 1280 : 		// In case of Vista, artifitial value is returned so that it's not considered as older IME.
; 1281 : 		ms_adwId[0] = IMEID_CHT_VER_VISTA;

  0004d	c7 05 00 00 00
	00 04 04 00 07	 mov	 DWORD PTR ?ms_adwId@CIME@@2PAKA, 117441540 ; 07000404H

; 1282 : 		ms_adwId[1] = 0;
; 1283 : 		return ms_adwId[0];

  00057	b8 04 04 00 07	 mov	 eax, 117441540		; 07000404H
  0005c	c7 05 04 00 00
	00 00 00 00 00	 mov	 DWORD PTR ?ms_adwId@CIME@@2PAKA+4, 0
  00066	e9 e4 01 00 00	 jmp	 $LN1@GetImeId
$LN4@GetImeId:

; 1284 : 	}
; 1285 : 
; 1286 : 	if (!((ms_hklCurrent == _CHT_HKL_NEW_PHONETIC) || (ms_hklCurrent == _CHT_HKL_NEW_CHANG_JIE) || (ms_hklCurrent == _CHT_HKL_NEW_QUICK) || (ms_hklCurrent == _CHT_HKL_HK_CANTONESE) || (ms_hklCurrent == _CHS_HKL))) {

  0006b	81 f9 04 04 08
	e0		 cmp	 ecx, -536345596		; e0080404H
  00071	74 24		 je	 SHORT $LN5@GetImeId
  00073	81 f9 04 04 09
	e0		 cmp	 ecx, -536280060		; e0090404H
  00079	74 1c		 je	 SHORT $LN5@GetImeId
  0007b	81 f9 04 04 0a
	e0		 cmp	 ecx, -536214524		; e00a0404H
  00081	74 14		 je	 SHORT $LN5@GetImeId
  00083	81 f9 04 04 0b
	e0		 cmp	 ecx, -536148988		; e00b0404H
  00089	74 0c		 je	 SHORT $LN5@GetImeId
  0008b	81 f9 04 08 0e
	e0		 cmp	 ecx, -535951356		; e00e0804H
  00091	0f 85 a2 01 00
	00		 jne	 $LN12@GetImeId
$LN5@GetImeId:

; 1287 : 		ms_adwId[0] = ms_adwId[1] = 0;
; 1288 :         return 0;
; 1289 : 	}
; 1290 : 
; 1291 : 	if (!ImmGetIMEFileNameA(ms_hklCurrent, szTmp, (sizeof(szTmp) / sizeof(szTmp[0])) - 1)) {

  00097	68 ff 03 00 00	 push	 1023			; 000003ffH
  0009c	8d 85 fc fb ff
	ff		 lea	 eax, DWORD PTR _szTmp$[ebp]
  000a2	50		 push	 eax
  000a3	51		 push	 ecx
  000a4	e8 00 00 00 00	 call	 _ImmGetIMEFileNameA@12
  000a9	85 c0		 test	 eax, eax
  000ab	0f 84 88 01 00
	00		 je	 $LN12@GetImeId

; 1292 : 		ms_adwId[0] = ms_adwId[1] = 0;
; 1293 :         return 0;
; 1294 : 	}
; 1295 : 
; 1296 :     if (!_GetReadingString)

  000b1	83 3d 00 00 00
	00 00		 cmp	 DWORD PTR ?_GetReadingString@CIME@@1P6GIPAUHIMC__@@IPA_WPAH2PAI@ZA, 0 ; CIME::_GetReadingString
  000b8	0f 85 a0 00 00
	00		 jne	 $LN8@GetImeId

; 1297 : 	{
; 1298 :         if ((CompareStringA(LCID_INVARIANT, NORM_IGNORECASE, szTmp, -1, CHT_IMEFILENAME1, -1) != CSTR_EQUAL) &&
; 1299 :             (CompareStringA(LCID_INVARIANT, NORM_IGNORECASE, szTmp, -1, CHT_IMEFILENAME2, -1) != CSTR_EQUAL) &&
; 1300 :             (CompareStringA(LCID_INVARIANT, NORM_IGNORECASE, szTmp, -1, CHT_IMEFILENAME3, -1) != CSTR_EQUAL) &&
; 1301 :             (CompareStringA(LCID_INVARIANT, NORM_IGNORECASE, szTmp, -1, CHS_IMEFILENAME1, -1) != CSTR_EQUAL) &&

  000be	8b 35 00 00 00
	00		 mov	 esi, DWORD PTR __imp__CompareStringA@24
  000c4	8d 85 fc fb ff
	ff		 lea	 eax, DWORD PTR _szTmp$[ebp]
  000ca	6a ff		 push	 -1
  000cc	68 00 00 00 00	 push	 OFFSET ??_C@_0N@FFMHCBAD@TINTLGNT?4IME@
  000d1	6a ff		 push	 -1
  000d3	50		 push	 eax
  000d4	6a 01		 push	 1
  000d6	68 09 04 00 00	 push	 1033			; 00000409H
  000db	ff d6		 call	 esi
  000dd	83 f8 02	 cmp	 eax, 2
  000e0	74 7c		 je	 SHORT $LN8@GetImeId
  000e2	6a ff		 push	 -1
  000e4	68 00 00 00 00	 push	 OFFSET ??_C@_0N@JMLDIBIB@CINTLGNT?4IME@
  000e9	6a ff		 push	 -1
  000eb	8d 85 fc fb ff
	ff		 lea	 eax, DWORD PTR _szTmp$[ebp]
  000f1	50		 push	 eax
  000f2	6a 01		 push	 1
  000f4	68 09 04 00 00	 push	 1033			; 00000409H
  000f9	ff d6		 call	 esi
  000fb	83 f8 02	 cmp	 eax, 2
  000fe	74 5e		 je	 SHORT $LN8@GetImeId
  00100	6a ff		 push	 -1
  00102	68 00 00 00 00	 push	 OFFSET ??_C@_0N@FHDFFBN@MSTCIPHA?4IME@
  00107	6a ff		 push	 -1
  00109	8d 85 fc fb ff
	ff		 lea	 eax, DWORD PTR _szTmp$[ebp]
  0010f	50		 push	 eax
  00110	6a 01		 push	 1
  00112	68 09 04 00 00	 push	 1033			; 00000409H
  00117	ff d6		 call	 esi
  00119	83 f8 02	 cmp	 eax, 2
  0011c	74 40		 je	 SHORT $LN8@GetImeId
  0011e	6a ff		 push	 -1
  00120	68 00 00 00 00	 push	 OFFSET ??_C@_0N@JFHOELJF@PINTLGNT?4IME@
  00125	6a ff		 push	 -1
  00127	8d 85 fc fb ff
	ff		 lea	 eax, DWORD PTR _szTmp$[ebp]
  0012d	50		 push	 eax
  0012e	6a 01		 push	 1
  00130	68 09 04 00 00	 push	 1033			; 00000409H
  00135	ff d6		 call	 esi
  00137	83 f8 02	 cmp	 eax, 2
  0013a	74 22		 je	 SHORT $LN8@GetImeId
  0013c	6a ff		 push	 -1
  0013e	68 00 00 00 00	 push	 OFFSET ??_C@_0N@ONOBNHOE@MSSCIPYA?4IME@
  00143	6a ff		 push	 -1
  00145	8d 85 fc fb ff
	ff		 lea	 eax, DWORD PTR _szTmp$[ebp]
  0014b	50		 push	 eax
  0014c	6a 01		 push	 1
  0014e	68 09 04 00 00	 push	 1033			; 00000409H
  00153	ff d6		 call	 esi
  00155	83 f8 02	 cmp	 eax, 2
  00158	0f 85 db 00 00
	00		 jne	 $LN12@GetImeId
$LN8@GetImeId:

; 1302 :             (CompareStringA(LCID_INVARIANT, NORM_IGNORECASE, szTmp, -1, CHS_IMEFILENAME2, -1) != CSTR_EQUAL))
; 1303 : 		{
; 1304 : 			ms_adwId[0] = ms_adwId[1] = 0;
; 1305 : 	        return 0;
; 1306 :         }
; 1307 :     }
; 1308 : 
; 1309 :     DWORD   dwVerHandle;
; 1310 :     DWORD   dwVerSize = GetFileVersionInfoSize(szTmp, &dwVerHandle);

  0015e	8d 85 f8 fb ff
	ff		 lea	 eax, DWORD PTR _dwVerHandle$[ebp]
  00164	50		 push	 eax
  00165	8d 85 fc fb ff
	ff		 lea	 eax, DWORD PTR _szTmp$[ebp]
  0016b	50		 push	 eax
  0016c	e8 00 00 00 00	 call	 _GetFileVersionInfoSizeA@8

; 1311 : 	LANGID	langId = LOWORD(ms_hklCurrent);

  00171	0f b7 35 00 00
	00 00		 movzx	 esi, WORD PTR ?ms_hklCurrent@CIME@@2PAUHKL__@@A
  00178	8b d8		 mov	 ebx, eax

; 1312 : 
; 1313 :     if (dwVerSize)

  0017a	85 db		 test	 ebx, ebx
  0017c	0f 84 b7 00 00
	00		 je	 $LN12@GetImeId

; 1314 : 	{
; 1315 :         LPVOID lpVerBuffer = alloca(dwVerSize);

  00182	e8 00 00 00 00	 call	 __alloca_probe_16
  00187	8b c4		 mov	 eax, esp

; 1316 : 
; 1317 :         if (GetFileVersionInfo(szTmp, dwVerHandle, dwVerSize, lpVerBuffer))

  00189	50		 push	 eax
  0018a	53		 push	 ebx
  0018b	ff b5 f8 fb ff
	ff		 push	 DWORD PTR _dwVerHandle$[ebp]
  00191	89 85 f4 fb ff
	ff		 mov	 DWORD PTR _lpVerBuffer$1$[ebp], eax
  00197	8d 85 fc fb ff
	ff		 lea	 eax, DWORD PTR _szTmp$[ebp]
  0019d	50		 push	 eax
  0019e	e8 00 00 00 00	 call	 _GetFileVersionInfoA@16
  001a3	85 c0		 test	 eax, eax
  001a5	0f 84 8e 00 00
	00		 je	 $LN12@GetImeId

; 1318 : 		{
; 1319 : 			LPVOID  lpVerData;
; 1320 : 			UINT    cbVerData;
; 1321 : 
; 1322 :             if(VerQueryValue(lpVerBuffer, "\\", &lpVerData, &cbVerData))

  001ab	8d 85 ec fb ff
	ff		 lea	 eax, DWORD PTR _cbVerData$1[ebp]
  001b1	50		 push	 eax
  001b2	8d 85 f0 fb ff
	ff		 lea	 eax, DWORD PTR _lpVerData$2[ebp]
  001b8	50		 push	 eax
  001b9	68 00 00 00 00	 push	 OFFSET ??_C@_01KICIPPFI@?2@
  001be	ff b5 f4 fb ff
	ff		 push	 DWORD PTR _lpVerBuffer$1$[ebp]
  001c4	e8 00 00 00 00	 call	 _VerQueryValueA@16
