; Listing generated by Microsoft (R) Optimizing Compiler Version 19.27.29112.0 

	TITLE	C:\DS Project\DS Files\Source\ClientSource\Client\EterLib\NetDatagram.cpp
	.686P
	.XMM
	include listing.inc
	.model	flat

INCLUDELIB LIBCMT
INCLUDELIB OLDNAMES

PUBLIC	??0CNetworkDatagram@@QAE@XZ			; CNetworkDatagram::CNetworkDatagram
PUBLIC	??1CNetworkDatagram@@UAE@XZ			; CNetworkDatagram::~CNetworkDatagram
PUBLIC	?Destroy@CNetworkDatagram@@QAEXXZ		; CNetworkDatagram::Destroy
PUBLIC	?Create@CNetworkDatagram@@QAE_NI@Z		; CNetworkDatagram::Create
PUBLIC	?Update@CNetworkDatagram@@QAEXXZ		; CNetworkDatagram::Update
PUBLIC	?CanRecv@CNetworkDatagram@@QAE_NXZ		; CNetworkDatagram::CanRecv
PUBLIC	?PeekRecvFrom@CNetworkDatagram@@QAEHIPAXPAUsockaddr_in@@@Z ; CNetworkDatagram::PeekRecvFrom
PUBLIC	?RecvFrom@CNetworkDatagram@@QAEHIPAXPAUsockaddr_in@@@Z ; CNetworkDatagram::RecvFrom
PUBLIC	?SendTo@CNetworkDatagram@@QAEHIPBXABUsockaddr_in@@@Z ; CNetworkDatagram::SendTo
PUBLIC	?__Initialize@CNetworkDatagram@@AAEXXZ		; CNetworkDatagram::__Initialize
PUBLIC	??_GCNetworkDatagram@@UAEPAXI@Z			; CNetworkDatagram::`scalar deleting destructor'
PUBLIC	??_7CNetworkDatagram@@6B@			; CNetworkDatagram::`vftable'
PUBLIC	??_R4CNetworkDatagram@@6B@			; CNetworkDatagram::`RTTI Complete Object Locator'
PUBLIC	??_R0?AVCNetworkDatagram@@@8			; CNetworkDatagram `RTTI Type Descriptor'
PUBLIC	??_R3CNetworkDatagram@@8			; CNetworkDatagram::`RTTI Class Hierarchy Descriptor'
PUBLIC	??_R2CNetworkDatagram@@8			; CNetworkDatagram::`RTTI Base Class Array'
PUBLIC	??_R1A@?0A@EA@CNetworkDatagram@@8		; CNetworkDatagram::`RTTI Base Class Descriptor at (0,-1,0,64)'
EXTRN	??3@YAXPAXI@Z:PROC				; operator delete
EXTRN	___WSAFDIsSet@8:PROC
EXTRN	_bind@12:PROC
EXTRN	_closesocket@4:PROC
EXTRN	_ioctlsocket@12:PROC
EXTRN	_htons@4:PROC
EXTRN	_recvfrom@24:PROC
EXTRN	_select@20:PROC
EXTRN	_sendto@24:PROC
EXTRN	_socket@12:PROC
EXTRN	??_ECNetworkDatagram@@UAEPAXI@Z:PROC		; CNetworkDatagram::`vector deleting destructor'
EXTRN	@__security_check_cookie@4:PROC
EXTRN	??_7type_info@@6B@:QWORD			; type_info::`vftable'
EXTRN	___security_cookie:DWORD
;	COMDAT ??_R1A@?0A@EA@CNetworkDatagram@@8
rdata$r	SEGMENT
??_R1A@?0A@EA@CNetworkDatagram@@8 DD FLAT:??_R0?AVCNetworkDatagram@@@8 ; CNetworkDatagram::`RTTI Base Class Descriptor at (0,-1,0,64)'
	DD	00H
	DD	00H
	DD	0ffffffffH
	DD	00H
	DD	040H
	DD	FLAT:??_R3CNetworkDatagram@@8
rdata$r	ENDS
;	COMDAT ??_R2CNetworkDatagram@@8
rdata$r	SEGMENT
??_R2CNetworkDatagram@@8 DD FLAT:??_R1A@?0A@EA@CNetworkDatagram@@8 ; CNetworkDatagram::`RTTI Base Class Array'
rdata$r	ENDS
;	COMDAT ??_R3CNetworkDatagram@@8
rdata$r	SEGMENT
??_R3CNetworkDatagram@@8 DD 00H				; CNetworkDatagram::`RTTI Class Hierarchy Descriptor'
	DD	00H
	DD	01H
	DD	FLAT:??_R2CNetworkDatagram@@8
rdata$r	ENDS
;	COMDAT ??_R0?AVCNetworkDatagram@@@8
data$r	SEGMENT
??_R0?AVCNetworkDatagram@@@8 DD FLAT:??_7type_info@@6B@	; CNetworkDatagram `RTTI Type Descriptor'
	DD	00H
	DB	'.?AVCNetworkDatagram@@', 00H
data$r	ENDS
;	COMDAT ??_R4CNetworkDatagram@@6B@
rdata$r	SEGMENT
??_R4CNetworkDatagram@@6B@ DD 00H			; CNetworkDatagram::`RTTI Complete Object Locator'
	DD	00H
	DD	00H
	DD	FLAT:??_R0?AVCNetworkDatagram@@@8
	DD	FLAT:??_R3CNetworkDatagram@@8
rdata$r	ENDS
;	COMDAT ??_7CNetworkDatagram@@6B@
CONST	SEGMENT
??_7CNetworkDatagram@@6B@ DD FLAT:??_R4CNetworkDatagram@@6B@ ; CNetworkDatagram::`vftable'
	DD	FLAT:??_ECNetworkDatagram@@UAEPAXI@Z
CONST	ENDS
; Function compile flags: /Ogtp
;	COMDAT ??_GCNetworkDatagram@@UAEPAXI@Z
_TEXT	SEGMENT
___flags$ = 8						; size = 4
??_GCNetworkDatagram@@UAEPAXI@Z PROC			; CNetworkDatagram::`scalar deleting destructor', COMDAT
; _this$ = ecx
  00000	55		 push	 ebp
  00001	8b ec		 mov	 ebp, esp
  00003	56		 push	 esi
  00004	8b f1		 mov	 esi, ecx
  00006	e8 00 00 00 00	 call	 ??1CNetworkDatagram@@UAE@XZ ; CNetworkDatagram::~CNetworkDatagram
  0000b	f6 45 08 01	 test	 BYTE PTR ___flags$[ebp], 1
  0000f	74 0e		 je	 SHORT $LN4@scalar
  00011	68 10 02 00 00	 push	 528			; 00000210H
  00016	56		 push	 esi
  00017	e8 00 00 00 00	 call	 ??3@YAXPAXI@Z		; operator delete
  0001c	83 c4 08	 add	 esp, 8
$LN4@scalar:
  0001f	8b c6		 mov	 eax, esi
  00021	5e		 pop	 esi
  00022	5d		 pop	 ebp
  00023	c2 04 00	 ret	 4
??_GCNetworkDatagram@@UAEPAXI@Z ENDP			; CNetworkDatagram::`scalar deleting destructor'
_TEXT	ENDS
; Function compile flags: /Ogtp
; File C:\DS Project\DS Files\Source\ClientSource\Client\EterLib\NetDatagram.cpp
;	COMDAT ?__Initialize@CNetworkDatagram@@AAEXXZ
_TEXT	SEGMENT
?__Initialize@CNetworkDatagram@@AAEXXZ PROC		; CNetworkDatagram::__Initialize, COMDAT
; _this$ = ecx

; 98   : 	m_sock=INVALID_SOCKET;

  00000	c7 41 04 ff ff
	ff ff		 mov	 DWORD PTR [ecx+4], -1

; 99   : }

  00007	c3		 ret	 0
?__Initialize@CNetworkDatagram@@AAEXXZ ENDP		; CNetworkDatagram::__Initialize
_TEXT	ENDS
; Function compile flags: /Ogtp
; File C:\DS Project\DS Files\Source\ClientSource\Client\EterLib\NetDatagram.cpp
;	COMDAT ?SendTo@CNetworkDatagram@@QAEHIPBXABUsockaddr_in@@@Z
_TEXT	SEGMENT
_uBufLen$ = 8						; size = 4
_c_pvBuf$ = 12						; size = 4
_c_rkSockAddrIn$ = 16					; size = 4
?SendTo@CNetworkDatagram@@QAEHIPBXABUsockaddr_in@@@Z PROC ; CNetworkDatagram::SendTo, COMDAT
; _this$ = ecx

; 91   : {

  00000	55		 push	 ebp
  00001	8b ec		 mov	 ebp, esp

; 92   : 	return sendto(m_sock, (const char *)c_pvBuf, uBufLen, 0, (PSOCKADDR)&c_rkSockAddrIn, sizeof(SOCKADDR_IN));

  00003	6a 10		 push	 16			; 00000010H
  00005	ff 75 10	 push	 DWORD PTR _c_rkSockAddrIn$[ebp]
  00008	6a 00		 push	 0
  0000a	ff 75 08	 push	 DWORD PTR _uBufLen$[ebp]
  0000d	ff 75 0c	 push	 DWORD PTR _c_pvBuf$[ebp]
  00010	ff 71 04	 push	 DWORD PTR [ecx+4]
  00013	e8 00 00 00 00	 call	 _sendto@24

; 93   : }

  00018	5d		 pop	 ebp
  00019	c2 0c 00	 ret	 12			; 0000000cH
?SendTo@CNetworkDatagram@@QAEHIPBXABUsockaddr_in@@@Z ENDP ; CNetworkDatagram::SendTo
_TEXT	ENDS
; Function compile flags: /Ogtp
; File C:\DS Project\DS Files\Source\ClientSource\Client\EterLib\NetDatagram.cpp
;	COMDAT ?RecvFrom@CNetworkDatagram@@QAEHIPAXPAUsockaddr_in@@@Z
_TEXT	SEGMENT
_nSockAddrInLen$ = -4					; size = 4
_uBufLen$ = 8						; size = 4
_pvBuf$ = 12						; size = 4
_pkSockAddrIn$ = 16					; size = 4
?RecvFrom@CNetworkDatagram@@QAEHIPAXPAUsockaddr_in@@@Z PROC ; CNetworkDatagram::RecvFrom, COMDAT
; _this$ = ecx

; 85   : {

  00000	55		 push	 ebp
  00001	8b ec		 mov	 ebp, esp
  00003	51		 push	 ecx

; 86   : 	int nSockAddrInLen=sizeof(SOCKADDR_IN);
; 87   : 	return recvfrom(m_sock, (char*)pvBuf, uBufLen, 0, (PSOCKADDR)pkSockAddrIn, &nSockAddrInLen);

  00004	8d 45 fc	 lea	 eax, DWORD PTR _nSockAddrInLen$[ebp]
  00007	c7 45 fc 10 00
	00 00		 mov	 DWORD PTR _nSockAddrInLen$[ebp], 16 ; 00000010H
  0000e	50		 push	 eax
  0000f	ff 75 10	 push	 DWORD PTR _pkSockAddrIn$[ebp]
  00012	6a 00		 push	 0
  00014	ff 75 08	 push	 DWORD PTR _uBufLen$[ebp]
  00017	ff 75 0c	 push	 DWORD PTR _pvBuf$[ebp]
  0001a	ff 71 04	 push	 DWORD PTR [ecx+4]
  0001d	e8 00 00 00 00	 call	 _recvfrom@24

; 88   : }

  00022	8b e5		 mov	 esp, ebp
  00024	5d		 pop	 ebp
  00025	c2 0c 00	 ret	 12			; 0000000cH
?RecvFrom@CNetworkDatagram@@QAEHIPAXPAUsockaddr_in@@@Z ENDP ; CNetworkDatagram::RecvFrom
_TEXT	ENDS
; Function compile flags: /Ogtp
; File C:\DS Project\DS Files\Source\ClientSource\Client\EterLib\NetDatagram.cpp
;	COMDAT ?PeekRecvFrom@CNetworkDatagram@@QAEHIPAXPAUsockaddr_in@@@Z
_TEXT	SEGMENT
_nSockAddrInLen$ = -4					; size = 4
_uBufLen$ = 8						; size = 4
_pvBuf$ = 12						; size = 4
_pkSockAddrIn$ = 16					; size = 4
?PeekRecvFrom@CNetworkDatagram@@QAEHIPAXPAUsockaddr_in@@@Z PROC ; CNetworkDatagram::PeekRecvFrom, COMDAT
; _this$ = ecx

; 79   : {

  00000	55		 push	 ebp
  00001	8b ec		 mov	 ebp, esp
  00003	51		 push	 ecx

; 80   : 	int nSockAddrInLen=sizeof(SOCKADDR_IN);
; 81   : 	return recvfrom(m_sock, (char*)pvBuf, uBufLen, MSG_PEEK, (PSOCKADDR)pkSockAddrIn, &nSockAddrInLen);

  00004	8d 45 fc	 lea	 eax, DWORD PTR _nSockAddrInLen$[ebp]
  00007	c7 45 fc 10 00
	00 00		 mov	 DWORD PTR _nSockAddrInLen$[ebp], 16 ; 00000010H
  0000e	50		 push	 eax
  0000f	ff 75 10	 push	 DWORD PTR _pkSockAddrIn$[ebp]
  00012	6a 02		 push	 2
  00014	ff 75 08	 push	 DWORD PTR _uBufLen$[ebp]
  00017	ff 75 0c	 push	 DWORD PTR _pvBuf$[ebp]
  0001a	ff 71 04	 push	 DWORD PTR [ecx+4]
  0001d	e8 00 00 00 00	 call	 _recvfrom@24

; 82   : }

  00022	8b e5		 mov	 esp, ebp
  00024	5d		 pop	 ebp
  00025	c2 0c 00	 ret	 12			; 0000000cH
?PeekRecvFrom@CNetworkDatagram@@QAEHIPAXPAUsockaddr_in@@@Z ENDP ; CNetworkDatagram::PeekRecvFrom
_TEXT	ENDS
; Function compile flags: /Ogtp
; File C:\DS Project\DS Files\Source\ClientSource\Client\EterLib\NetDatagram.cpp
;	COMDAT ?CanRecv@CNetworkDatagram@@QAE_NXZ
_TEXT	SEGMENT
?CanRecv@CNetworkDatagram@@QAE_NXZ PROC			; CNetworkDatagram::CanRecv, COMDAT
; _this$ = ecx

; 71   : 	if (FD_ISSET(m_sock, &m_fdsRecv))

  00000	8d 41 08	 lea	 eax, DWORD PTR [ecx+8]
  00003	50		 push	 eax
  00004	ff 71 04	 push	 DWORD PTR [ecx+4]
  00007	e8 00 00 00 00	 call	 ___WSAFDIsSet@8
  0000c	85 c0		 test	 eax, eax
  0000e	0f 95 c0	 setne	 al

; 72   : 		return true;
; 73   : 
; 74   : 	return false;
; 75   : }

  00011	c3		 ret	 0
?CanRecv@CNetworkDatagram@@QAE_NXZ ENDP			; CNetworkDatagram::CanRecv
_TEXT	ENDS
; Function compile flags: /Ogtp
; File C:\DS Project\DS Files\Source\ClientSource\Client\EterLib\NetDatagram.cpp
;	COMDAT ?Update@CNetworkDatagram@@QAEXXZ
_TEXT	SEGMENT
_delay$ = -8						; size = 8
?Update@CNetworkDatagram@@QAEXXZ PROC			; CNetworkDatagram::Update, COMDAT
; _this$ = ecx

; 49   : {

  00000	55		 push	 ebp
  00001	8b ec		 mov	 ebp, esp
  00003	83 ec 08	 sub	 esp, 8
  00006	56		 push	 esi

; 50   : 	if (m_sock == INVALID_SOCKET)

  00007	8b 71 04	 mov	 esi, DWORD PTR [ecx+4]
  0000a	83 fe ff	 cmp	 esi, -1
  0000d	74 3d		 je	 SHORT $LN11@Update

; 51   : 		return;
; 52   : 
; 53   : 	FD_ZERO(&m_fdsRecv);
; 54   : 	FD_ZERO(&m_fdsSend);

  0000f	8d 81 0c 01 00
	00		 lea	 eax, DWORD PTR [ecx+268]
  00015	8d 51 08	 lea	 edx, DWORD PTR [ecx+8]
  00018	c7 00 00 00 00
	00		 mov	 DWORD PTR [eax], 0

; 55   : 
; 56   : 	FD_SET(m_sock, &m_fdsRecv);

  0001e	89 71 0c	 mov	 DWORD PTR [ecx+12], esi
  00021	c7 02 01 00 00
	00		 mov	 DWORD PTR [edx], 1

; 57   : 	FD_SET(m_sock, &m_fdsSend);

  00027	89 b1 10 01 00
	00		 mov	 DWORD PTR [ecx+272], esi

; 58   : 
; 59   : 	TIMEVAL delay;
; 60   : 
; 61   : 	delay.tv_sec = 0;
; 62   : 	delay.tv_usec = 0;
; 63   : 
; 64   : 	if (select(0, &m_fdsRecv, &m_fdsSend, NULL, &delay) == SOCKET_ERROR)

  0002d	8d 4d f8	 lea	 ecx, DWORD PTR _delay$[ebp]
  00030	ff 00		 inc	 DWORD PTR [eax]
  00032	51		 push	 ecx
  00033	6a 00		 push	 0
  00035	50		 push	 eax
  00036	52		 push	 edx
  00037	6a 00		 push	 0
  00039	c7 45 f8 00 00
	00 00		 mov	 DWORD PTR _delay$[ebp], 0
  00040	c7 45 fc 00 00
	00 00		 mov	 DWORD PTR _delay$[ebp+4], 0
  00047	e8 00 00 00 00	 call	 _select@20
$LN11@Update:
  0004c	5e		 pop	 esi

; 65   : 		return;
; 66   : }

  0004d	8b e5		 mov	 esp, ebp
  0004f	5d		 pop	 ebp
  00050	c3		 ret	 0
?Update@CNetworkDatagram@@QAEXXZ ENDP			; CNetworkDatagram::Update
_TEXT	ENDS
; Function compile flags: /Ogtp
; File C:\DS Project\DS Files\Source\ClientSource\Client\EterLib\NetDatagram.cpp
;	COMDAT ?Create@CNetworkDatagram@@QAE_NI@Z
_TEXT	SEGMENT
_arg$ = -24						; size = 4
_sockAddrIn$ = -20					; size = 16
__$ArrayPad$ = -4					; size = 4
_uPort$ = 8						; size = 4
?Create@CNetworkDatagram@@QAE_NI@Z PROC			; CNetworkDatagram::Create, COMDAT
; _this$ = ecx

; 25   : {

  00000	55		 push	 ebp
  00001	8b ec		 mov	 ebp, esp
  00003	83 ec 18	 sub	 esp, 24			; 00000018H
  00006	a1 00 00 00 00	 mov	 eax, DWORD PTR ___security_cookie
  0000b	33 c5		 xor	 eax, ebp
  0000d	89 45 fc	 mov	 DWORD PTR __$ArrayPad$[ebp], eax
  00010	56		 push	 esi

; 26   : 	assert(INVALID_SOCKET==m_sock);
; 27   : 	m_sock = socket(AF_INET, SOCK_DGRAM, 0);

  00011	6a 00		 push	 0
  00013	6a 02		 push	 2
  00015	6a 02		 push	 2
  00017	8b f1		 mov	 esi, ecx
  00019	e8 00 00 00 00	 call	 _socket@12

; 28   : 
; 29   : 	DWORD arg = 1;
; 30   : 	ioctlsocket(m_sock, FIONBIO, &arg);	// Non-blocking mode

  0001e	8d 4d e8	 lea	 ecx, DWORD PTR _arg$[ebp]
  00021	89 46 04	 mov	 DWORD PTR [esi+4], eax
  00024	51		 push	 ecx
  00025	68 7e 66 04 80	 push	 -2147195266		; 8004667eH
  0002a	50		 push	 eax
  0002b	c7 45 e8 01 00
	00 00		 mov	 DWORD PTR _arg$[ebp], 1
  00032	e8 00 00 00 00	 call	 _ioctlsocket@12

; 31   : 
; 32   : 	SOCKADDR_IN sockAddrIn;
; 33   : 	memset(&sockAddrIn, 0, sizeof(SOCKADDR_IN));
; 34   : 	sockAddrIn.sin_family = AF_INET;
; 35   : 	sockAddrIn.sin_addr.s_addr = INADDR_ANY;
; 36   : 	sockAddrIn.sin_port = htons(uPort);

  00037	ff 75 08	 push	 DWORD PTR _uPort$[ebp]
  0003a	0f 57 c0	 xorps	 xmm0, xmm0
  0003d	c7 45 f0 00 00
	00 00		 mov	 DWORD PTR _sockAddrIn$[ebp+4], 0
  00044	b8 02 00 00 00	 mov	 eax, 2
  00049	66 0f 13 45 f4	 movlpd	 QWORD PTR _sockAddrIn$[ebp+8], xmm0
  0004e	66 89 45 ec	 mov	 WORD PTR _sockAddrIn$[ebp], ax
  00052	e8 00 00 00 00	 call	 _htons@4
  00057	66 89 45 ee	 mov	 WORD PTR _sockAddrIn$[ebp+2], ax

; 37   : 
; 38   : 	if (SOCKET_ERROR == bind(m_sock, (PSOCKADDR)&sockAddrIn, sizeof(SOCKADDR_IN)))

  0005b	8d 45 ec	 lea	 eax, DWORD PTR _sockAddrIn$[ebp]
  0005e	6a 10		 push	 16			; 00000010H
  00060	50		 push	 eax
  00061	ff 76 04	 push	 DWORD PTR [esi+4]
  00064	e8 00 00 00 00	 call	 _bind@12

; 39   : 	{
; 40   : 		return false;
; 41   : 	}
; 42   : 
; 43   : 	return true;
; 44   : }

  00069	8b 4d fc	 mov	 ecx, DWORD PTR __$ArrayPad$[ebp]
  0006c	83 f8 ff	 cmp	 eax, -1
  0006f	5e		 pop	 esi
  00070	0f 95 c0	 setne	 al
  00073	33 cd		 xor	 ecx, ebp
  00075	e8 00 00 00 00	 call	 @__security_check_cookie@4
  0007a	8b e5		 mov	 esp, ebp
  0007c	5d		 pop	 ebp
  0007d	c2 04 00	 ret	 4
?Create@CNetworkDatagram@@QAE_NI@Z ENDP			; CNetworkDatagram::Create
_TEXT	ENDS
; Function compile flags: /Ogtp
; File C:\DS Project\DS Files\Source\ClientSource\Client\EterLib\NetDatagram.cpp
;	COMDAT ?Destroy@CNetworkDatagram@@QAEXXZ
_TEXT	SEGMENT
?Destroy@CNetworkDatagram@@QAEXXZ PROC			; CNetworkDatagram::Destroy, COMDAT
; _this$ = ecx

; 15   : {

  00000	56		 push	 esi
  00001	8b f1		 mov	 esi, ecx

; 16   : 	if (INVALID_SOCKET==m_sock)

  00003	8b 46 04	 mov	 eax, DWORD PTR [esi+4]
  00006	83 f8 ff	 cmp	 eax, -1
  00009	74 0e		 je	 SHORT $LN1@Destroy

; 17   : 		return;
; 18   : 
; 19   : 	closesocket(m_sock);

  0000b	50		 push	 eax
  0000c	e8 00 00 00 00	 call	 _closesocket@4

; 20   : 
; 21   : 	__Initialize();

  00011	8b ce		 mov	 ecx, esi
  00013	5e		 pop	 esi
  00014	e9 00 00 00 00	 jmp	 ?__Initialize@CNetworkDatagram@@AAEXXZ ; CNetworkDatagram::__Initialize
$LN1@Destroy:
  00019	5e		 pop	 esi

; 22   : }

  0001a	c3		 ret	 0
?Destroy@CNetworkDatagram@@QAEXXZ ENDP			; CNetworkDatagram::Destroy
_TEXT	ENDS
; Function compile flags: /Ogtp
; File C:\DS Project\DS Files\Source\ClientSource\Client\EterLib\NetDatagram.cpp
;	COMDAT ??1CNetworkDatagram@@UAE@XZ
_TEXT	SEGMENT
??1CNetworkDatagram@@UAE@XZ PROC			; CNetworkDatagram::~CNetworkDatagram, COMDAT
; _this$ = ecx

; 10   : {

  00000	c7 01 00 00 00
	00		 mov	 DWORD PTR [ecx], OFFSET ??_7CNetworkDatagram@@6B@

; 11   : 	Destroy();

  00006	e9 00 00 00 00	 jmp	 ?Destroy@CNetworkDatagram@@QAEXXZ ; CNetworkDatagram::Destroy
??1CNetworkDatagram@@UAE@XZ ENDP			; CNetworkDatagram::~CNetworkDatagram
_TEXT	ENDS
; Function compile flags: /Ogtp
; File C:\DS Project\DS Files\Source\ClientSource\Client\EterLib\NetDatagram.cpp
;	COMDAT ??0CNetworkDatagram@@QAE@XZ
_TEXT	SEGMENT
??0CNetworkDatagram@@QAE@XZ PROC			; CNetworkDatagram::CNetworkDatagram, COMDAT
; _this$ = ecx

; 5    : {

  00000	56		 push	 esi
  00001	8b f1		 mov	 esi, ecx
  00003	c7 06 00 00 00
	00		 mov	 DWORD PTR [esi], OFFSET ??_7CNetworkDatagram@@6B@

; 6    : 	__Initialize();

  00009	e8 00 00 00 00	 call	 ?__Initialize@CNetworkDatagram@@AAEXXZ ; CNetworkDatagram::__Initialize

; 7    : }

  0000e	8b c6		 mov	 eax, esi
  00010	5e		 pop	 esi
  00011	c3		 ret	 0
??0CNetworkDatagram@@QAE@XZ ENDP			; CNetworkDatagram::CNetworkDatagram
_TEXT	ENDS
END
