; Listing generated by Microsoft (R) Optimizing Compiler Version 19.27.29112.0 

	TITLE	C:\DS Project\DS Files\Source\ClientSource\Client\EterLib\NetDevice.cpp
	.686P
	.XMM
	include listing.inc
	.model	flat

INCLUDELIB LIBCMT
INCLUDELIB OLDNAMES

PUBLIC	??0CNetworkDevice@@QAE@XZ			; CNetworkDevice::CNetworkDevice
PUBLIC	??1CNetworkDevice@@UAE@XZ			; CNetworkDevice::~CNetworkDevice
PUBLIC	?Destroy@CNetworkDevice@@QAEXXZ			; CNetworkDevice::Destroy
PUBLIC	?Create@CNetworkDevice@@QAE_NXZ			; CNetworkDevice::Create
PUBLIC	?Initialize@CNetworkDevice@@IAEXXZ		; CNetworkDevice::Initialize
PUBLIC	??_GCNetworkDevice@@UAEPAXI@Z			; CNetworkDevice::`scalar deleting destructor'
PUBLIC	??_7CNetworkDevice@@6B@				; CNetworkDevice::`vftable'
PUBLIC	??_R4CNetworkDevice@@6B@			; CNetworkDevice::`RTTI Complete Object Locator'
PUBLIC	??_R0?AVCNetworkDevice@@@8			; CNetworkDevice `RTTI Type Descriptor'
PUBLIC	??_R3CNetworkDevice@@8				; CNetworkDevice::`RTTI Class Hierarchy Descriptor'
PUBLIC	??_R2CNetworkDevice@@8				; CNetworkDevice::`RTTI Base Class Array'
PUBLIC	??_R1A@?0A@EA@CNetworkDevice@@8			; CNetworkDevice::`RTTI Base Class Descriptor at (0,-1,0,64)'
EXTRN	??3@YAXPAXI@Z:PROC				; operator delete
EXTRN	_WSAStartup@8:PROC
EXTRN	_WSACleanup@0:PROC
EXTRN	??_ECNetworkDevice@@UAEPAXI@Z:PROC		; CNetworkDevice::`vector deleting destructor'
EXTRN	@__security_check_cookie@4:PROC
EXTRN	??_7type_info@@6B@:QWORD			; type_info::`vftable'
EXTRN	___security_cookie:DWORD
;	COMDAT ??_R1A@?0A@EA@CNetworkDevice@@8
rdata$r	SEGMENT
??_R1A@?0A@EA@CNetworkDevice@@8 DD FLAT:??_R0?AVCNetworkDevice@@@8 ; CNetworkDevice::`RTTI Base Class Descriptor at (0,-1,0,64)'
	DD	00H
	DD	00H
	DD	0ffffffffH
	DD	00H
	DD	040H
	DD	FLAT:??_R3CNetworkDevice@@8
rdata$r	ENDS
;	COMDAT ??_R2CNetworkDevice@@8
rdata$r	SEGMENT
??_R2CNetworkDevice@@8 DD FLAT:??_R1A@?0A@EA@CNetworkDevice@@8 ; CNetworkDevice::`RTTI Base Class Array'
rdata$r	ENDS
;	COMDAT ??_R3CNetworkDevice@@8
rdata$r	SEGMENT
??_R3CNetworkDevice@@8 DD 00H				; CNetworkDevice::`RTTI Class Hierarchy Descriptor'
	DD	00H
	DD	01H
	DD	FLAT:??_R2CNetworkDevice@@8
rdata$r	ENDS
;	COMDAT ??_R0?AVCNetworkDevice@@@8
data$r	SEGMENT
??_R0?AVCNetworkDevice@@@8 DD FLAT:??_7type_info@@6B@	; CNetworkDevice `RTTI Type Descriptor'
	DD	00H
	DB	'.?AVCNetworkDevice@@', 00H
data$r	ENDS
;	COMDAT ??_R4CNetworkDevice@@6B@
rdata$r	SEGMENT
??_R4CNetworkDevice@@6B@ DD 00H				; CNetworkDevice::`RTTI Complete Object Locator'
	DD	00H
	DD	00H
	DD	FLAT:??_R0?AVCNetworkDevice@@@8
	DD	FLAT:??_R3CNetworkDevice@@8
rdata$r	ENDS
;	COMDAT ??_7CNetworkDevice@@6B@
CONST	SEGMENT
??_7CNetworkDevice@@6B@ DD FLAT:??_R4CNetworkDevice@@6B@ ; CNetworkDevice::`vftable'
	DD	FLAT:??_ECNetworkDevice@@UAEPAXI@Z
CONST	ENDS
; Function compile flags: /Ogtp
;	COMDAT ??_GCNetworkDevice@@UAEPAXI@Z
_TEXT	SEGMENT
___flags$ = 8						; size = 4
??_GCNetworkDevice@@UAEPAXI@Z PROC			; CNetworkDevice::`scalar deleting destructor', COMDAT
; _this$ = ecx
  00000	55		 push	 ebp
  00001	8b ec		 mov	 ebp, esp
  00003	56		 push	 esi
  00004	8b f1		 mov	 esi, ecx
  00006	e8 00 00 00 00	 call	 ??1CNetworkDevice@@UAE@XZ ; CNetworkDevice::~CNetworkDevice
  0000b	f6 45 08 01	 test	 BYTE PTR ___flags$[ebp], 1
  0000f	74 0b		 je	 SHORT $LN4@scalar
  00011	6a 08		 push	 8
  00013	56		 push	 esi
  00014	e8 00 00 00 00	 call	 ??3@YAXPAXI@Z		; operator delete
  00019	83 c4 08	 add	 esp, 8
$LN4@scalar:
  0001c	8b c6		 mov	 eax, esi
  0001e	5e		 pop	 esi
  0001f	5d		 pop	 ebp
  00020	c2 04 00	 ret	 4
??_GCNetworkDevice@@UAEPAXI@Z ENDP			; CNetworkDevice::`scalar deleting destructor'
_TEXT	ENDS
; Function compile flags: /Ogtp
; File C:\DS Project\DS Files\Source\ClientSource\Client\EterLib\NetDevice.cpp
;	COMDAT ?Initialize@CNetworkDevice@@IAEXXZ
_TEXT	SEGMENT
?Initialize@CNetworkDevice@@IAEXXZ PROC			; CNetworkDevice::Initialize, COMDAT
; _this$ = ecx

; 16   : 	m_isWSA=false;

  00000	c6 41 04 00	 mov	 BYTE PTR [ecx+4], 0

; 17   : }

  00004	c3		 ret	 0
?Initialize@CNetworkDevice@@IAEXXZ ENDP			; CNetworkDevice::Initialize
_TEXT	ENDS
; Function compile flags: /Ogtp
; File C:\DS Project\DS Files\Source\ClientSource\Client\EterLib\NetDevice.cpp
;	COMDAT ?Create@CNetworkDevice@@QAE_NXZ
_TEXT	SEGMENT
_wsaData$ = -404					; size = 400
__$ArrayPad$ = -4					; size = 4
?Create@CNetworkDevice@@QAE_NXZ PROC			; CNetworkDevice::Create, COMDAT
; _this$ = ecx

; 29   : {

  00000	55		 push	 ebp
  00001	8b ec		 mov	 ebp, esp
  00003	81 ec 94 01 00
	00		 sub	 esp, 404		; 00000194H
  00009	a1 00 00 00 00	 mov	 eax, DWORD PTR ___security_cookie
  0000e	33 c5		 xor	 eax, ebp
  00010	89 45 fc	 mov	 DWORD PTR __$ArrayPad$[ebp], eax
  00013	56		 push	 esi
  00014	8b f1		 mov	 esi, ecx

; 30   : 	Destroy();

  00016	e8 00 00 00 00	 call	 ?Destroy@CNetworkDevice@@QAEXXZ ; CNetworkDevice::Destroy

; 31   : 
; 32   : 	Initialize();

  0001b	8b ce		 mov	 ecx, esi
  0001d	e8 00 00 00 00	 call	 ?Initialize@CNetworkDevice@@IAEXXZ ; CNetworkDevice::Initialize

; 33   : 
; 34   : 	WSADATA wsaData;
; 35   : 	if (WSAStartup(MAKEWORD(1, 1), &wsaData)!=0)

  00022	8d 85 6c fe ff
	ff		 lea	 eax, DWORD PTR _wsaData$[ebp]
  00028	50		 push	 eax
  00029	68 01 01 00 00	 push	 257			; 00000101H
  0002e	e8 00 00 00 00	 call	 _WSAStartup@8
  00033	85 c0		 test	 eax, eax
  00035	74 11		 je	 SHORT $LN2@Create

; 36   : 		return false;

  00037	32 c0		 xor	 al, al
  00039	5e		 pop	 esi

; 37   : 
; 38   : 	m_isWSA=true;
; 39   : 
; 40   : 	return true;
; 41   : }

  0003a	8b 4d fc	 mov	 ecx, DWORD PTR __$ArrayPad$[ebp]
  0003d	33 cd		 xor	 ecx, ebp
  0003f	e8 00 00 00 00	 call	 @__security_check_cookie@4
  00044	8b e5		 mov	 esp, ebp
  00046	5d		 pop	 ebp
  00047	c3		 ret	 0
$LN2@Create:
  00048	8b 4d fc	 mov	 ecx, DWORD PTR __$ArrayPad$[ebp]
  0004b	b0 01		 mov	 al, 1
  0004d	c6 46 04 01	 mov	 BYTE PTR [esi+4], 1
  00051	33 cd		 xor	 ecx, ebp
  00053	5e		 pop	 esi
  00054	e8 00 00 00 00	 call	 @__security_check_cookie@4
  00059	8b e5		 mov	 esp, ebp
  0005b	5d		 pop	 ebp
  0005c	c3		 ret	 0
?Create@CNetworkDevice@@QAE_NXZ ENDP			; CNetworkDevice::Create
_TEXT	ENDS
; Function compile flags: /Ogtp
; File C:\DS Project\DS Files\Source\ClientSource\Client\EterLib\NetDevice.cpp
;	COMDAT ?Destroy@CNetworkDevice@@QAEXXZ
_TEXT	SEGMENT
?Destroy@CNetworkDevice@@QAEXXZ PROC			; CNetworkDevice::Destroy, COMDAT
; _this$ = ecx

; 20   : {

  00000	56		 push	 esi
  00001	8b f1		 mov	 esi, ecx

; 21   : 	if (m_isWSA)

  00003	80 7e 04 00	 cmp	 BYTE PTR [esi+4], 0
  00007	74 09		 je	 SHORT $LN2@Destroy

; 22   : 	{
; 23   : 		WSACleanup();

  00009	e8 00 00 00 00	 call	 _WSACleanup@0

; 24   : 		m_isWSA=false;

  0000e	c6 46 04 00	 mov	 BYTE PTR [esi+4], 0
$LN2@Destroy:

; 25   : 	}
; 26   : }

  00012	5e		 pop	 esi
  00013	c3		 ret	 0
?Destroy@CNetworkDevice@@QAEXXZ ENDP			; CNetworkDevice::Destroy
_TEXT	ENDS
; Function compile flags: /Ogtp
; File C:\DS Project\DS Files\Source\ClientSource\Client\EterLib\NetDevice.cpp
;	COMDAT ??1CNetworkDevice@@UAE@XZ
_TEXT	SEGMENT
??1CNetworkDevice@@UAE@XZ PROC				; CNetworkDevice::~CNetworkDevice, COMDAT
; _this$ = ecx

; 10   : {

  00000	c7 01 00 00 00
	00		 mov	 DWORD PTR [ecx], OFFSET ??_7CNetworkDevice@@6B@

; 11   : 	Destroy();

  00006	e9 00 00 00 00	 jmp	 ?Destroy@CNetworkDevice@@QAEXXZ ; CNetworkDevice::Destroy
??1CNetworkDevice@@UAE@XZ ENDP				; CNetworkDevice::~CNetworkDevice
_TEXT	ENDS
; Function compile flags: /Ogtp
; File C:\DS Project\DS Files\Source\ClientSource\Client\EterLib\NetDevice.cpp
;	COMDAT ??0CNetworkDevice@@QAE@XZ
_TEXT	SEGMENT
??0CNetworkDevice@@QAE@XZ PROC				; CNetworkDevice::CNetworkDevice, COMDAT
; _this$ = ecx

; 5    : {

  00000	56		 push	 esi
  00001	8b f1		 mov	 esi, ecx
  00003	c7 06 00 00 00
	00		 mov	 DWORD PTR [esi], OFFSET ??_7CNetworkDevice@@6B@

; 6    : 	Initialize();

  00009	e8 00 00 00 00	 call	 ?Initialize@CNetworkDevice@@IAEXXZ ; CNetworkDevice::Initialize

; 7    : }

  0000e	8b c6		 mov	 eax, esi
  00010	5e		 pop	 esi
  00011	c3		 ret	 0
??0CNetworkDevice@@QAE@XZ ENDP				; CNetworkDevice::CNetworkDevice
_TEXT	ENDS
END
