; Listing generated by Microsoft (R) Optimizing Compiler Version 19.27.29112.0 

	TITLE	C:\DS Project\DS Files\Source\ClientSource\Client\EterLib\ResourceManager.cpp
	.686P
	.XMM
	include listing.inc
	.model	flat

INCLUDELIB LIBCMT
INCLUDELIB OLDNAMES

PUBLIC	?m_totalKB@FDumpPrint@@2MA			; FDumpPrint::m_totalKB
PUBLIC	?g_iLoadingDelayTime@@3HA			; g_iLoadingDelayTime
_BSS	SEGMENT
?m_totalKB@FDumpPrint@@2MA DD 01H DUP (?)		; FDumpPrint::m_totalKB
_BSS	ENDS
_DATA	SEGMENT
?g_iLoadingDelayTime@@3HA DD 014H			; g_iLoadingDelayTime
_DATA	ENDS
CONST	SEGMENT
?piecewise_construct@std@@3Upiecewise_construct_t@1@B	ORG $+1 ; std::piecewise_construct
CONST	ENDS
PUBLIC	___local_stdio_printf_options
PUBLIC	_fprintf
PUBLIC	??0exception@std@@QAE@ABV01@@Z			; std::exception::exception
PUBLIC	??1exception@std@@UAE@XZ			; std::exception::~exception
PUBLIC	?what@exception@std@@UBEPBDXZ			; std::exception::what
PUBLIC	??_Gexception@std@@UAEPAXI@Z			; std::exception::`scalar deleting destructor'
PUBLIC	??0bad_alloc@std@@QAE@ABV01@@Z			; std::bad_alloc::bad_alloc
PUBLIC	??_Gbad_alloc@std@@UAEPAXI@Z			; std::bad_alloc::`scalar deleting destructor'
PUBLIC	??0bad_array_new_length@std@@QAE@XZ		; std::bad_array_new_length::bad_array_new_length
PUBLIC	??1bad_array_new_length@std@@UAE@XZ		; std::bad_array_new_length::~bad_array_new_length
PUBLIC	??0bad_array_new_length@std@@QAE@ABV01@@Z	; std::bad_array_new_length::bad_array_new_length
PUBLIC	??_Gbad_array_new_length@std@@UAEPAXI@Z		; std::bad_array_new_length::`scalar deleting destructor'
PUBLIC	?_Throw_bad_array_new_length@std@@YAXXZ		; std::_Throw_bad_array_new_length
PUBLIC	?_Xlen_string@std@@YAXXZ			; std::_Xlen_string
PUBLIC	??0?$basic_string@DU?$char_traits@D@std@@V?$allocator@D@2@@std@@QAE@ABV01@@Z ; std::basic_string<char,std::char_traits<char>,std::allocator<char> >::basic_string<char,std::char_traits<char>,std::allocator<char> >
PUBLIC	??1?$basic_string@DU?$char_traits@D@std@@V?$allocator@D@2@@std@@QAE@XZ ; std::basic_string<char,std::char_traits<char>,std::allocator<char> >::~basic_string<char,std::char_traits<char>,std::allocator<char> >
PUBLIC	?assign@?$basic_string@DU?$char_traits@D@std@@V?$allocator@D@2@@std@@QAEAAV12@QBDI@Z ; std::basic_string<char,std::char_traits<char>,std::allocator<char> >::assign
PUBLIC	?_Throw_tree_length_error@std@@YAXXZ		; std::_Throw_tree_length_error
PUBLIC	??$_Traits_compare@U?$char_traits@D@std@@@std@@YAHQBDI0I@Z ; std::_Traits_compare<std::char_traits<char> >
PUBLIC	??$_Destroy_in_place@PAD@std@@YAXAAPAD@Z	; std::_Destroy_in_place<char *>
PUBLIC	??$_Construct_in_place@PADABQAD@std@@YAXAAPADABQAD@Z ; std::_Construct_in_place<char *,char * const &>
PUBLIC	??$_Deallocate@$07$0A@@std@@YAXPAXI@Z		; std::_Deallocate<8,0>
PUBLIC	??$_Allocate@$07U_Default_allocate_traits@std@@$0A@@std@@YAPAXI@Z ; std::_Allocate<8,std::_Default_allocate_traits,0>
PUBLIC	??$_Allocate_manually_vector_aligned@U_Default_allocate_traits@std@@@std@@YAPAXI@Z ; std::_Allocate_manually_vector_aligned<std::_Default_allocate_traits>
PUBLIC	??1?$CSingleton@VCResourceManager@@@@UAE@XZ	; CSingleton<CResourceManager>::~CSingleton<CResourceManager>
PUBLIC	??_G?$CSingleton@VCResourceManager@@@@UAEPAXI@Z	; CSingleton<CResourceManager>::`scalar deleting destructor'
PUBLIC	??0CResourceManager@@QAE@XZ			; CResourceManager::CResourceManager
PUBLIC	??1CResourceManager@@UAE@XZ			; CResourceManager::~CResourceManager
PUBLIC	?LoadStaticCache@CResourceManager@@QAEXPBD@Z	; CResourceManager::LoadStaticCache
PUBLIC	?DestroyDeletingList@CResourceManager@@QAEXXZ	; CResourceManager::DestroyDeletingList
PUBLIC	?Destroy@CResourceManager@@QAEXXZ		; CResourceManager::Destroy
PUBLIC	?InsertResourcePointer@CResourceManager@@QAEPAVCResource@@KPAV2@@Z ; CResourceManager::InsertResourcePointer
PUBLIC	?FindResourcePointer@CResourceManager@@QAEPAVCResource@@K@Z ; CResourceManager::FindResourcePointer
PUBLIC	?GetResourcePointer@CResourceManager@@QAEPAVCResource@@PBD@Z ; CResourceManager::GetResourcePointer
PUBLIC	?GetTypeResourcePointer@CResourceManager@@QAEPAVCResource@@PBDH@Z ; CResourceManager::GetTypeResourcePointer
PUBLIC	?isResourcePointerData@CResourceManager@@QAE_NK@Z ; CResourceManager::isResourcePointerData
PUBLIC	?RegisterResourceNewFunctionPointer@CResourceManager@@QAEXPBDP6APAVCResource@@0@Z@Z ; CResourceManager::RegisterResourceNewFunctionPointer
PUBLIC	?RegisterResourceNewFunctionByTypePointer@CResourceManager@@QAEXHP6APAVCResource@@PBD@Z@Z ; CResourceManager::RegisterResourceNewFunctionByTypePointer
PUBLIC	?DumpFileListToTextFile@CResourceManager@@QAEXPBD@Z ; CResourceManager::DumpFileListToTextFile
PUBLIC	?IsFileExist@CResourceManager@@QAE_NPBD@Z	; CResourceManager::IsFileExist
PUBLIC	?Update@CResourceManager@@QAEXXZ		; CResourceManager::Update
PUBLIC	?ReserveDeletingResource@CResourceManager@@QAEXPAVCResource@@@Z ; CResourceManager::ReserveDeletingResource
PUBLIC	?ProcessBackgroundLoading@CResourceManager@@QAEXXZ ; CResourceManager::ProcessBackgroundLoading
PUBLIC	?PushBackgroundLoadingSet@CResourceManager@@QAEXAAV?$set@V?$basic_string@DU?$char_traits@D@std@@V?$allocator@D@2@@std@@U?$less@V?$basic_string@DU?$char_traits@D@std@@V?$allocator@D@2@@std@@@2@V?$allocator@V?$basic_string@DU?$char_traits@D@std@@V?$allocator@D@2@@std@@@2@@std@@@Z ; CResourceManager::PushBackgroundLoadingSet
PUBLIC	?__DestroyDeletingResourceMap@CResourceManager@@IAEXXZ ; CResourceManager::__DestroyDeletingResourceMap
PUBLIC	?__DestroyResourceMap@CResourceManager@@IAEXXZ	; CResourceManager::__DestroyResourceMap
PUBLIC	?__DestroyCacheMap@CResourceManager@@IAEXXZ	; CResourceManager::__DestroyCacheMap
PUBLIC	?__GetFileCRC@CResourceManager@@IAEKPBDPAPBD@Z	; CResourceManager::__GetFileCRC
PUBLIC	??1?$_Tree@V?$_Tmap_traits@KPAVCResource@@U?$less@K@std@@V?$allocator@U?$pair@$$CBKPAVCResource@@@std@@@3@$0A@@std@@@std@@QAE@XZ ; std::_Tree<std::_Tmap_traits<unsigned long,CResource *,std::less<unsigned long>,std::allocator<std::pair<unsigned long const ,CResource *> >,0> >::~_Tree<std::_Tmap_traits<unsigned long,CResource *,std::less<unsigned long>,std::allocator<std::pair<unsigned long const ,CResource *> >,0> >
PUBLIC	?clear@?$_Tree@V?$_Tmap_traits@KPAVCResource@@U?$less@K@std@@V?$allocator@U?$pair@$$CBKPAVCResource@@@std@@@3@$0A@@std@@@std@@QAEXXZ ; std::_Tree<std::_Tmap_traits<unsigned long,CResource *,std::less<unsigned long>,std::allocator<std::pair<unsigned long const ,CResource *> >,0> >::clear
PUBLIC	?_Insert_node@?$_Tree_val@U?$_Tree_simple_types@U?$pair@$$CBKPAVCResource@@@std@@@std@@@std@@QAEPAU?$_Tree_node@U?$pair@$$CBKPAVCResource@@@std@@PAX@2@U?$_Tree_id@PAU?$_Tree_node@U?$pair@$$CBKPAVCResource@@@std@@PAX@std@@@2@QAU32@@Z ; std::_Tree_val<std::_Tree_simple_types<std::pair<unsigned long const ,CResource *> > >::_Insert_node
PUBLIC	??1?$map@KPAVCResource@@U?$less@K@std@@V?$allocator@U?$pair@$$CBKPAVCResource@@@std@@@3@@std@@QAE@XZ ; std::map<unsigned long,CResource *,std::less<unsigned long>,std::allocator<std::pair<unsigned long const ,CResource *> > >::~map<unsigned long,CResource *,std::less<unsigned long>,std::allocator<std::pair<unsigned long const ,CResource *> > >
PUBLIC	?find@?$_Tree@V?$_Tmap_traits@V?$basic_string@DU?$char_traits@D@std@@V?$allocator@D@2@@std@@P6APAVCResource@@PBD@ZU?$less@V?$basic_string@DU?$char_traits@D@std@@V?$allocator@D@2@@std@@@2@V?$allocator@U?$pair@$$CBV?$basic_string@DU?$char_traits@D@std@@V?$allocator@D@2@@std@@P6APAVCResource@@PBD@Z@std@@@2@$0A@@std@@@std@@QAE?AV?$_Tree_iterator@V?$_Tree_val@U?$_Tree_simple_types@U?$pair@$$CBV?$basic_string@DU?$char_traits@D@std@@V?$allocator@D@2@@std@@P6APAVCResource@@PBD@Z@std@@@std@@@std@@@2@ABV?$basic_string@DU?$char_traits@D@std@@V?$allocator@D@2@@2@@Z ; std::_Tree<std::_Tmap_traits<std::basic_string<char,std::char_traits<char>,std::allocator<char> >,CResource * (__cdecl*)(char const *),std::less<std::basic_string<char,std::char_traits<char>,std::allocator<char> > >,std::allocator<std::pair<std::basic_string<char,std::char_traits<char>,std::allocator<char> > const ,CResource * (__cdecl*)(char const *)> >,0> >::find
PUBLIC	?_Insert_node@?$_Tree_val@U?$_Tree_simple_types@U?$pair@$$CBV?$basic_string@DU?$char_traits@D@std@@V?$allocator@D@2@@std@@P6APAVCResource@@PBD@Z@std@@@std@@@std@@QAEPAU?$_Tree_node@U?$pair@$$CBV?$basic_string@DU?$char_traits@D@std@@V?$allocator@D@2@@std@@P6APAVCResource@@PBD@Z@std@@PAX@2@U?$_Tree_id@PAU?$_Tree_node@U?$pair@$$CBV?$basic_string@DU?$char_traits@D@std@@V?$allocator@D@2@@std@@P6APAVCResource@@PBD@Z@std@@PAX@std@@@2@QAU32@@Z ; std::_Tree_val<std::_Tree_simple_types<std::pair<std::basic_string<char,std::char_traits<char>,std::allocator<char> > const ,CResource * (__cdecl*)(char const *)> > >::_Insert_node
PUBLIC	??1?$map@V?$basic_string@DU?$char_traits@D@std@@V?$allocator@D@2@@std@@P6APAVCResource@@PBD@ZU?$less@V?$basic_string@DU?$char_traits@D@std@@V?$allocator@D@2@@std@@@2@V?$allocator@U?$pair@$$CBV?$basic_string@DU?$char_traits@D@std@@V?$allocator@D@2@@std@@P6APAVCResource@@PBD@Z@std@@@2@@std@@QAE@XZ ; std::map<std::basic_string<char,std::char_traits<char>,std::allocator<char> >,CResource * (__cdecl*)(char const *),std::less<std::basic_string<char,std::char_traits<char>,std::allocator<char> > >,std::allocator<std::pair<std::basic_string<char,std::char_traits<char>,std::allocator<char> > const ,CResource * (__cdecl*)(char const *)> > >::~map<std::basic_string<char,std::char_traits<char>,std::allocator<char> >,CResource * (__cdecl*)(char const *),std::less<std::basic_string<char,std::char_traits<char>,std::allocator<char> > >,std::allocator<std::pair<std::basic_string<char,std::char_traits<char>,std::allocator<char> > const ,CResource * (__cdecl*)(char const *)> > >
PUBLIC	??1?$_Tree@V?$_Tmap_traits@HP6APAVCResource@@PBD@ZU?$less@H@std@@V?$allocator@U?$pair@$$CBHP6APAVCResource@@PBD@Z@std@@@3@$0A@@std@@@std@@QAE@XZ ; std::_Tree<std::_Tmap_traits<int,CResource * (__cdecl*)(char const *),std::less<int>,std::allocator<std::pair<int const ,CResource * (__cdecl*)(char const *)> >,0> >::~_Tree<std::_Tmap_traits<int,CResource * (__cdecl*)(char const *),std::less<int>,std::allocator<std::pair<int const ,CResource * (__cdecl*)(char const *)> >,0> >
PUBLIC	?_Insert_node@?$_Tree_val@U?$_Tree_simple_types@U?$pair@$$CBHP6APAVCResource@@PBD@Z@std@@@std@@@std@@QAEPAU?$_Tree_node@U?$pair@$$CBHP6APAVCResource@@PBD@Z@std@@PAX@2@U?$_Tree_id@PAU?$_Tree_node@U?$pair@$$CBHP6APAVCResource@@PBD@Z@std@@PAX@std@@@2@QAU32@@Z ; std::_Tree_val<std::_Tree_simple_types<std::pair<int const ,CResource * (__cdecl*)(char const *)> > >::_Insert_node
PUBLIC	??1?$map@HP6APAVCResource@@PBD@ZU?$less@H@std@@V?$allocator@U?$pair@$$CBHP6APAVCResource@@PBD@Z@std@@@3@@std@@QAE@XZ ; std::map<int,CResource * (__cdecl*)(char const *),std::less<int>,std::allocator<std::pair<int const ,CResource * (__cdecl*)(char const *)> > >::~map<int,CResource * (__cdecl*)(char const *),std::less<int>,std::allocator<std::pair<int const ,CResource * (__cdecl*)(char const *)> > >
PUBLIC	??1?$_Tree@V?$_Tmap_traits@PAVCResource@@KU?$less@PAVCResource@@@std@@V?$allocator@U?$pair@QAVCResource@@K@std@@@3@$0A@@std@@@std@@QAE@XZ ; std::_Tree<std::_Tmap_traits<CResource *,unsigned long,std::less<CResource *>,std::allocator<std::pair<CResource * const,unsigned long> >,0> >::~_Tree<std::_Tmap_traits<CResource *,unsigned long,std::less<CResource *>,std::allocator<std::pair<CResource * const,unsigned long> >,0> >
PUBLIC	?_Lrotate@?$_Tree_val@U?$_Tree_simple_types@U?$pair@QAVCResource@@K@std@@@std@@@std@@QAEXPAU?$_Tree_node@U?$pair@QAVCResource@@K@std@@PAX@2@@Z ; std::_Tree_val<std::_Tree_simple_types<std::pair<CResource * const,unsigned long> > >::_Lrotate
PUBLIC	?_Rrotate@?$_Tree_val@U?$_Tree_simple_types@U?$pair@QAVCResource@@K@std@@@std@@@std@@QAEXPAU?$_Tree_node@U?$pair@QAVCResource@@K@std@@PAX@2@@Z ; std::_Tree_val<std::_Tree_simple_types<std::pair<CResource * const,unsigned long> > >::_Rrotate
PUBLIC	?_Extract@?$_Tree_val@U?$_Tree_simple_types@U?$pair@QAVCResource@@K@std@@@std@@@std@@QAEPAU?$_Tree_node@U?$pair@QAVCResource@@K@std@@PAX@2@V?$_Tree_unchecked_const_iterator@V?$_Tree_val@U?$_Tree_simple_types@U?$pair@QAVCResource@@K@std@@@std@@@std@@U_Iterator_base0@2@@2@@Z ; std::_Tree_val<std::_Tree_simple_types<std::pair<CResource * const,unsigned long> > >::_Extract
PUBLIC	?_Insert_node@?$_Tree_val@U?$_Tree_simple_types@U?$pair@QAVCResource@@K@std@@@std@@@std@@QAEPAU?$_Tree_node@U?$pair@QAVCResource@@K@std@@PAX@2@U?$_Tree_id@PAU?$_Tree_node@U?$pair@QAVCResource@@K@std@@PAX@std@@@2@QAU32@@Z ; std::_Tree_val<std::_Tree_simple_types<std::pair<CResource * const,unsigned long> > >::_Insert_node
PUBLIC	??1?$map@PAVCResource@@KU?$less@PAVCResource@@@std@@V?$allocator@U?$pair@QAVCResource@@K@std@@@3@@std@@QAE@XZ ; std::map<CResource *,unsigned long,std::less<CResource *>,std::allocator<std::pair<CResource * const,unsigned long> > >::~map<CResource *,unsigned long,std::less<CResource *>,std::allocator<std::pair<CResource * const,unsigned long> > >
PUBLIC	?erase@?$_Tree@V?$_Tmap_traits@KV?$basic_string@DU?$char_traits@D@std@@V?$allocator@D@2@@std@@U?$less@K@2@V?$allocator@U?$pair@$$CBKV?$basic_string@DU?$char_traits@D@std@@V?$allocator@D@2@@std@@@std@@@2@$0A@@std@@@std@@QAEIABK@Z ; std::_Tree<std::_Tmap_traits<unsigned long,std::basic_string<char,std::char_traits<char>,std::allocator<char> >,std::less<unsigned long>,std::allocator<std::pair<unsigned long const ,std::basic_string<char,std::char_traits<char>,std::allocator<char> > > >,0> >::erase
PUBLIC	?_Lrotate@?$_Tree_val@U?$_Tree_simple_types@U?$pair@$$CBKV?$basic_string@DU?$char_traits@D@std@@V?$allocator@D@2@@std@@@std@@@std@@@std@@QAEXPAU?$_Tree_node@U?$pair@$$CBKV?$basic_string@DU?$char_traits@D@std@@V?$allocator@D@2@@std@@@std@@PAX@2@@Z ; std::_Tree_val<std::_Tree_simple_types<std::pair<unsigned long const ,std::basic_string<char,std::char_traits<char>,std::allocator<char> > > > >::_Lrotate
PUBLIC	?_Rrotate@?$_Tree_val@U?$_Tree_simple_types@U?$pair@$$CBKV?$basic_string@DU?$char_traits@D@std@@V?$allocator@D@2@@std@@@std@@@std@@@std@@QAEXPAU?$_Tree_node@U?$pair@$$CBKV?$basic_string@DU?$char_traits@D@std@@V?$allocator@D@2@@std@@@std@@PAX@2@@Z ; std::_Tree_val<std::_Tree_simple_types<std::pair<unsigned long const ,std::basic_string<char,std::char_traits<char>,std::allocator<char> > > > >::_Rrotate
PUBLIC	?_Extract@?$_Tree_val@U?$_Tree_simple_types@U?$pair@$$CBKV?$basic_string@DU?$char_traits@D@std@@V?$allocator@D@2@@std@@@std@@@std@@@std@@QAEPAU?$_Tree_node@U?$pair@$$CBKV?$basic_string@DU?$char_traits@D@std@@V?$allocator@D@2@@std@@@std@@PAX@2@V?$_Tree_unchecked_const_iterator@V?$_Tree_val@U?$_Tree_simple_types@U?$pair@$$CBKV?$basic_string@DU?$char_traits@D@std@@V?$allocator@D@2@@std@@@std@@@std@@@std@@U_Iterator_base0@2@@2@@Z ; std::_Tree_val<std::_Tree_simple_types<std::pair<unsigned long const ,std::basic_string<char,std::char_traits<char>,std::allocator<char> > > > >::_Extract
PUBLIC	?_Insert_node@?$_Tree_val@U?$_Tree_simple_types@U?$pair@$$CBKV?$basic_string@DU?$char_traits@D@std@@V?$allocator@D@2@@std@@@std@@@std@@@std@@QAEPAU?$_Tree_node@U?$pair@$$CBKV?$basic_string@DU?$char_traits@D@std@@V?$allocator@D@2@@std@@@std@@PAX@2@U?$_Tree_id@PAU?$_Tree_node@U?$pair@$$CBKV?$basic_string@DU?$char_traits@D@std@@V?$allocator@D@2@@std@@@std@@PAX@std@@@2@QAU32@@Z ; std::_Tree_val<std::_Tree_simple_types<std::pair<unsigned long const ,std::basic_string<char,std::char_traits<char>,std::allocator<char> > > > >::_Insert_node
PUBLIC	??1?$map@KV?$basic_string@DU?$char_traits@D@std@@V?$allocator@D@2@@std@@U?$less@K@2@V?$allocator@U?$pair@$$CBKV?$basic_string@DU?$char_traits@D@std@@V?$allocator@D@2@@std@@@std@@@2@@std@@QAE@XZ ; std::map<unsigned long,std::basic_string<char,std::char_traits<char>,std::allocator<char> >,std::less<unsigned long>,std::allocator<std::pair<unsigned long const ,std::basic_string<char,std::char_traits<char>,std::allocator<char> > > > >::~map<unsigned long,std::basic_string<char,std::char_traits<char>,std::allocator<char> >,std::less<unsigned long>,std::allocator<std::pair<unsigned long const ,std::basic_string<char,std::char_traits<char>,std::allocator<char> > > > >
PUBLIC	??1?$_Tree@V?$_Tmap_traits@JPAVCResource@@U?$less@J@std@@V?$allocator@U?$pair@$$CBJPAVCResource@@@std@@@3@$0A@@std@@@std@@QAE@XZ ; std::_Tree<std::_Tmap_traits<long,CResource *,std::less<long>,std::allocator<std::pair<long const ,CResource *> >,0> >::~_Tree<std::_Tmap_traits<long,CResource *,std::less<long>,std::allocator<std::pair<long const ,CResource *> >,0> >
PUBLIC	?_Lrotate@?$_Tree_val@U?$_Tree_simple_types@U?$pair@$$CBJPAVCResource@@@std@@@std@@@std@@QAEXPAU?$_Tree_node@U?$pair@$$CBJPAVCResource@@@std@@PAX@2@@Z ; std::_Tree_val<std::_Tree_simple_types<std::pair<long const ,CResource *> > >::_Lrotate
PUBLIC	?_Rrotate@?$_Tree_val@U?$_Tree_simple_types@U?$pair@$$CBJPAVCResource@@@std@@@std@@@std@@QAEXPAU?$_Tree_node@U?$pair@$$CBJPAVCResource@@@std@@PAX@2@@Z ; std::_Tree_val<std::_Tree_simple_types<std::pair<long const ,CResource *> > >::_Rrotate
PUBLIC	?_Extract@?$_Tree_val@U?$_Tree_simple_types@U?$pair@$$CBJPAVCResource@@@std@@@std@@@std@@QAEPAU?$_Tree_node@U?$pair@$$CBJPAVCResource@@@std@@PAX@2@V?$_Tree_unchecked_const_iterator@V?$_Tree_val@U?$_Tree_simple_types@U?$pair@$$CBJPAVCResource@@@std@@@std@@@std@@U_Iterator_base0@2@@2@@Z ; std::_Tree_val<std::_Tree_simple_types<std::pair<long const ,CResource *> > >::_Extract
PUBLIC	?_Insert_node@?$_Tree_val@U?$_Tree_simple_types@U?$pair@$$CBJPAVCResource@@@std@@@std@@@std@@QAEPAU?$_Tree_node@U?$pair@$$CBJPAVCResource@@@std@@PAX@2@U?$_Tree_id@PAU?$_Tree_node@U?$pair@$$CBJPAVCResource@@@std@@PAX@std@@@2@QAU32@@Z ; std::_Tree_val<std::_Tree_simple_types<std::pair<long const ,CResource *> > >::_Insert_node
PUBLIC	??_GCResourceManager@@UAEPAXI@Z			; CResourceManager::`scalar deleting destructor'
PUBLIC	??$insert@$0A@$0A@@?$_Tree@V?$_Tmap_traits@KPAVCResource@@U?$less@K@std@@V?$allocator@U?$pair@$$CBKPAVCResource@@@std@@@3@$0A@@std@@@std@@QAE?AU?$pair@V?$_Tree_iterator@V?$_Tree_val@U?$_Tree_simple_types@U?$pair@$$CBKPAVCResource@@@std@@@std@@@std@@@std@@_N@1@$$QAU?$pair@$$CBKPAVCResource@@@1@@Z ; std::_Tree<std::_Tmap_traits<unsigned long,CResource *,std::less<unsigned long>,std::allocator<std::pair<unsigned long const ,CResource *> >,0> >::insert<0,0>
PUBLIC	??E?$_Tree_unchecked_const_iterator@V?$_Tree_val@U?$_Tree_simple_types@U?$pair@$$CBKV?$basic_string@DU?$char_traits@D@std@@V?$allocator@D@2@@std@@@std@@@std@@@std@@U_Iterator_base0@2@@std@@QAEAAV01@XZ ; std::_Tree_unchecked_const_iterator<std::_Tree_val<std::_Tree_simple_types<std::pair<unsigned long const ,std::basic_string<char,std::char_traits<char>,std::allocator<char> > > > >,std::_Iterator_base0>::operator++
PUBLIC	??1?$pair@$$CBKV?$basic_string@DU?$char_traits@D@std@@V?$allocator@D@2@@std@@@std@@QAE@XZ ; std::pair<unsigned long const ,std::basic_string<char,std::char_traits<char>,std::allocator<char> > >::~pair<unsigned long const ,std::basic_string<char,std::char_traits<char>,std::allocator<char> > >
PUBLIC	??E?$_Tree_unchecked_const_iterator@V?$_Tree_val@U?$_Tree_simple_types@U?$pair@$$CBJPAVCResource@@@std@@@std@@@std@@U_Iterator_base0@2@@std@@QAEAAV01@XZ ; std::_Tree_unchecked_const_iterator<std::_Tree_val<std::_Tree_simple_types<std::pair<long const ,CResource *> > >,std::_Iterator_base0>::operator++
PUBLIC	??E?$_Tree_unchecked_const_iterator@V?$_Tree_val@U?$_Tree_simple_types@U?$pair@QAVCResource@@K@std@@@std@@@std@@U_Iterator_base0@2@@std@@QAEAAV01@XZ ; std::_Tree_unchecked_const_iterator<std::_Tree_val<std::_Tree_simple_types<std::pair<CResource * const,unsigned long> > >,std::_Iterator_base0>::operator++
PUBLIC	?__ConvertPathName@@YAHPBDPADH@Z		; __ConvertPathName
PUBLIC	?DumpKBCompare@@YA_NABUSDumpData@@0@Z		; DumpKBCompare
PUBLIC	?DumpCostCompare@@YA_NABUSDumpData@@0@Z		; DumpCostCompare
PUBLIC	??1?$vector@USDumpData@@V?$allocator@USDumpData@@@std@@@std@@QAE@XZ ; std::vector<SDumpData,std::allocator<SDumpData> >::~vector<SDumpData,std::allocator<SDumpData> >
PUBLIC	?_Xlength@?$vector@USDumpData@@V?$allocator@USDumpData@@@std@@@std@@CAXXZ ; std::vector<SDumpData,std::allocator<SDumpData> >::_Xlength
PUBLIC	??$_Emplace_reallocate@ABUSDumpData@@@?$vector@USDumpData@@V?$allocator@USDumpData@@@std@@@std@@QAEPAUSDumpData@@QAU2@ABU2@@Z ; std::vector<SDumpData,std::allocator<SDumpData> >::_Emplace_reallocate<SDumpData const &>
PUBLIC	??$_Erase_tree@V?$allocator@U?$_Tree_node@U?$pair@QAVCResource@@K@std@@PAX@std@@@std@@@?$_Tree_val@U?$_Tree_simple_types@U?$pair@QAVCResource@@K@std@@@std@@@std@@QAEXAAV?$allocator@U?$_Tree_node@U?$pair@QAVCResource@@K@std@@PAX@std@@@1@PAU?$_Tree_node@U?$pair@QAVCResource@@K@std@@PAX@1@@Z ; std::_Tree_val<std::_Tree_simple_types<std::pair<CResource * const,unsigned long> > >::_Erase_tree<std::allocator<std::_Tree_node<std::pair<CResource * const,unsigned long>,void *> > >
PUBLIC	??$_Erase_tree@V?$allocator@U?$_Tree_node@U?$pair@$$CBKPAVCResource@@@std@@PAX@std@@@std@@@?$_Tree_val@U?$_Tree_simple_types@U?$pair@$$CBKPAVCResource@@@std@@@std@@@std@@QAEXAAV?$allocator@U?$_Tree_node@U?$pair@$$CBKPAVCResource@@@std@@PAX@std@@@1@PAU?$_Tree_node@U?$pair@$$CBKPAVCResource@@@std@@PAX@1@@Z ; std::_Tree_val<std::_Tree_simple_types<std::pair<unsigned long const ,CResource *> > >::_Erase_tree<std::allocator<std::_Tree_node<std::pair<unsigned long const ,CResource *>,void *> > >
PUBLIC	??$_Destroy_range@V?$allocator@USDumpData@@@std@@@std@@YAXPAUSDumpData@@QAU1@AAV?$allocator@USDumpData@@@0@@Z ; std::_Destroy_range<std::allocator<SDumpData> >
PUBLIC	??$_Erase_tree@V?$allocator@U?$_Tree_node@U?$pair@$$CBKV?$basic_string@DU?$char_traits@D@std@@V?$allocator@D@2@@std@@@std@@PAX@std@@@std@@@?$_Tree_val@U?$_Tree_simple_types@U?$pair@$$CBKV?$basic_string@DU?$char_traits@D@std@@V?$allocator@D@2@@std@@@std@@@std@@@std@@QAEXAAV?$allocator@U?$_Tree_node@U?$pair@$$CBKV?$basic_string@DU?$char_traits@D@std@@V?$allocator@D@2@@std@@@std@@PAX@std@@@1@PAU?$_Tree_node@U?$pair@$$CBKV?$basic_string@DU?$char_traits@D@std@@V?$allocator@D@2@@std@@@std@@PAX@1@@Z ; std::_Tree_val<std::_Tree_simple_types<std::pair<unsigned long const ,std::basic_string<char,std::char_traits<char>,std::allocator<char> > > > >::_Erase_tree<std::allocator<std::_Tree_node<std::pair<unsigned long const ,std::basic_string<char,std::char_traits<char>,std::allocator<char> > >,void *> > >
PUBLIC	??$_Sort_unchecked@PAUSDumpData@@P6A_NABU1@0@Z@std@@YAXPAUSDumpData@@0HP6A_NABU1@1@Z@Z ; std::_Sort_unchecked<SDumpData *,bool (__cdecl*)(SDumpData const &,SDumpData const &)>
PUBLIC	??$_Erase_tree@V?$allocator@U?$_Tree_node@U?$pair@$$CBJPAVCResource@@@std@@PAX@std@@@std@@@?$_Tree_val@U?$_Tree_simple_types@U?$pair@$$CBJPAVCResource@@@std@@@std@@@std@@QAEXAAV?$allocator@U?$_Tree_node@U?$pair@$$CBJPAVCResource@@@std@@PAX@std@@@1@PAU?$_Tree_node@U?$pair@$$CBJPAVCResource@@@std@@PAX@1@@Z ; std::_Tree_val<std::_Tree_simple_types<std::pair<long const ,CResource *> > >::_Erase_tree<std::allocator<std::_Tree_node<std::pair<long const ,CResource *>,void *> > >
PUBLIC	??$_Find_lower_bound@K@?$_Tree@V?$_Tmap_traits@KV?$basic_string@DU?$char_traits@D@std@@V?$allocator@D@2@@std@@U?$less@K@2@V?$allocator@U?$pair@$$CBKV?$basic_string@DU?$char_traits@D@std@@V?$allocator@D@2@@std@@@std@@@2@$0A@@std@@@std@@IBE?AU?$_Tree_find_result@PAU?$_Tree_node@U?$pair@$$CBKV?$basic_string@DU?$char_traits@D@std@@V?$allocator@D@2@@std@@@std@@PAX@std@@@1@ABK@Z ; std::_Tree<std::_Tmap_traits<unsigned long,std::basic_string<char,std::char_traits<char>,std::allocator<char> >,std::less<unsigned long>,std::allocator<std::pair<unsigned long const ,std::basic_string<char,std::char_traits<char>,std::allocator<char> > > >,0> >::_Find_lower_bound<unsigned long>
PUBLIC	??$_Find_lower_bound@H@?$_Tree@V?$_Tmap_traits@HP6APAVCResource@@PBD@ZU?$less@H@std@@V?$allocator@U?$pair@$$CBHP6APAVCResource@@PBD@Z@std@@@3@$0A@@std@@@std@@IBE?AU?$_Tree_find_result@PAU?$_Tree_node@U?$pair@$$CBHP6APAVCResource@@PBD@Z@std@@PAX@std@@@1@ABH@Z ; std::_Tree<std::_Tmap_traits<int,CResource * (__cdecl*)(char const *),std::less<int>,std::allocator<std::pair<int const ,CResource * (__cdecl*)(char const *)> >,0> >::_Find_lower_bound<int>
PUBLIC	??1?$_Alloc_construct_ptr@V?$allocator@U?$_Tree_node@U?$pair@$$CBHP6APAVCResource@@PBD@Z@std@@PAX@std@@@std@@@std@@QAE@XZ ; std::_Alloc_construct_ptr<std::allocator<std::_Tree_node<std::pair<int const ,CResource * (__cdecl*)(char const *)>,void *> > >::~_Alloc_construct_ptr<std::allocator<std::_Tree_node<std::pair<int const ,CResource * (__cdecl*)(char const *)>,void *> > >
PUBLIC	??$_Erase_tree@V?$allocator@U?$_Tree_node@U?$pair@$$CBHP6APAVCResource@@PBD@Z@std@@PAX@std@@@std@@@?$_Tree_val@U?$_Tree_simple_types@U?$pair@$$CBHP6APAVCResource@@PBD@Z@std@@@std@@@std@@QAEXAAV?$allocator@U?$_Tree_node@U?$pair@$$CBHP6APAVCResource@@PBD@Z@std@@PAX@std@@@1@PAU?$_Tree_node@U?$pair@$$CBHP6APAVCResource@@PBD@Z@std@@PAX@1@@Z ; std::_Tree_val<std::_Tree_simple_types<std::pair<int const ,CResource * (__cdecl*)(char const *)> > >::_Erase_tree<std::allocator<std::_Tree_node<std::pair<int const ,CResource * (__cdecl*)(char const *)>,void *> > >
PUBLIC	??$_Find_lower_bound@V?$basic_string@DU?$char_traits@D@std@@V?$allocator@D@2@@std@@@?$_Tree@V?$_Tmap_traits@V?$basic_string@DU?$char_traits@D@std@@V?$allocator@D@2@@std@@P6APAVCResource@@PBD@ZU?$less@V?$basic_string@DU?$char_traits@D@std@@V?$allocator@D@2@@std@@@2@V?$allocator@U?$pair@$$CBV?$basic_string@DU?$char_traits@D@std@@V?$allocator@D@2@@std@@P6APAVCResource@@PBD@Z@std@@@2@$0A@@std@@@std@@IBE?AU?$_Tree_find_result@PAU?$_Tree_node@U?$pair@$$CBV?$basic_string@DU?$char_traits@D@std@@V?$allocator@D@2@@std@@P6APAVCResource@@PBD@Z@std@@PAX@std@@@1@ABV?$basic_string@DU?$char_traits@D@std@@V?$allocator@D@2@@1@@Z ; std::_Tree<std::_Tmap_traits<std::basic_string<char,std::char_traits<char>,std::allocator<char> >,CResource * (__cdecl*)(char const *),std::less<std::basic_string<char,std::char_traits<char>,std::allocator<char> > >,std::allocator<std::pair<std::basic_string<char,std::char_traits<char>,std::allocator<char> > const ,CResource * (__cdecl*)(char const *)> >,0> >::_Find_lower_bound<std::basic_string<char,std::char_traits<char>,std::allocator<char> > >
PUBLIC	??1?$_Alloc_construct_ptr@V?$allocator@U?$_Tree_node@U?$pair@$$CBV?$basic_string@DU?$char_traits@D@std@@V?$allocator@D@2@@std@@P6APAVCResource@@PBD@Z@std@@PAX@std@@@std@@@std@@QAE@XZ ; std::_Alloc_construct_ptr<std::allocator<std::_Tree_node<std::pair<std::basic_string<char,std::char_traits<char>,std::allocator<char> > const ,CResource * (__cdecl*)(char const *)>,void *> > >::~_Alloc_construct_ptr<std::allocator<std::_Tree_node<std::pair<std::basic_string<char,std::char_traits<char>,std::allocator<char> > const ,CResource * (__cdecl*)(char const *)>,void *> > >
PUBLIC	??$_Erase_tree@V?$allocator@U?$_Tree_node@U?$pair@$$CBV?$basic_string@DU?$char_traits@D@std@@V?$allocator@D@2@@std@@P6APAVCResource@@PBD@Z@std@@PAX@std@@@std@@@?$_Tree_val@U?$_Tree_simple_types@U?$pair@$$CBV?$basic_string@DU?$char_traits@D@std@@V?$allocator@D@2@@std@@P6APAVCResource@@PBD@Z@std@@@std@@@std@@QAEXAAV?$allocator@U?$_Tree_node@U?$pair@$$CBV?$basic_string@DU?$char_traits@D@std@@V?$allocator@D@2@@std@@P6APAVCResource@@PBD@Z@std@@PAX@std@@@1@PAU?$_Tree_node@U?$pair@$$CBV?$basic_string@DU?$char_traits@D@std@@V?$allocator@D@2@@std@@P6APAVCResource@@PBD@Z@std@@PAX@1@@Z ; std::_Tree_val<std::_Tree_simple_types<std::pair<std::basic_string<char,std::char_traits<char>,std::allocator<char> > const ,CResource * (__cdecl*)(char const *)> > >::_Erase_tree<std::allocator<std::_Tree_node<std::pair<std::basic_string<char,std::char_traits<char>,std::allocator<char> > const ,CResource * (__cdecl*)(char const *)>,void *> > >
PUBLIC	??$_Find_lower_bound@K@?$_Tree@V?$_Tmap_traits@KPAVCResource@@U?$less@K@std@@V?$allocator@U?$pair@$$CBKPAVCResource@@@std@@@3@$0A@@std@@@std@@IBE?AU?$_Tree_find_result@PAU?$_Tree_node@U?$pair@$$CBKPAVCResource@@@std@@PAX@std@@@1@ABK@Z ; std::_Tree<std::_Tmap_traits<unsigned long,CResource *,std::less<unsigned long>,std::allocator<std::pair<unsigned long const ,CResource *> >,0> >::_Find_lower_bound<unsigned long>
PUBLIC	??$_Construct_in_place@PAU?$_Tree_node@U?$pair@$$CBJPAVCResource@@@std@@PAX@std@@ABQAU12@@std@@YAXAAPAU?$_Tree_node@U?$pair@$$CBJPAVCResource@@@std@@PAX@0@ABQAU10@@Z ; std::_Construct_in_place<std::_Tree_node<std::pair<long const ,CResource *>,void *> *,std::_Tree_node<std::pair<long const ,CResource *>,void *> * const &>
PUBLIC	??$_Construct_in_place@PAU?$_Tree_node@U?$pair@$$CBKV?$basic_string@DU?$char_traits@D@std@@V?$allocator@D@2@@std@@@std@@PAX@std@@ABQAU12@@std@@YAXAAPAU?$_Tree_node@U?$pair@$$CBKV?$basic_string@DU?$char_traits@D@std@@V?$allocator@D@2@@std@@@std@@PAX@0@ABQAU10@@Z ; std::_Construct_in_place<std::_Tree_node<std::pair<unsigned long const ,std::basic_string<char,std::char_traits<char>,std::allocator<char> > >,void *> *,std::_Tree_node<std::pair<unsigned long const ,std::basic_string<char,std::char_traits<char>,std::allocator<char> > >,void *> * const &>
PUBLIC	??$_Construct_in_place@PAU?$_Tree_node@U?$pair@QAVCResource@@K@std@@PAX@std@@ABQAU12@@std@@YAXAAPAU?$_Tree_node@U?$pair@QAVCResource@@K@std@@PAX@0@ABQAU10@@Z ; std::_Construct_in_place<std::_Tree_node<std::pair<CResource * const,unsigned long>,void *> *,std::_Tree_node<std::pair<CResource * const,unsigned long>,void *> * const &>
PUBLIC	??$_Construct_in_place@PAU?$_Tree_node@U?$pair@$$CBHP6APAVCResource@@PBD@Z@std@@PAX@std@@ABQAU12@@std@@YAXAAPAU?$_Tree_node@U?$pair@$$CBHP6APAVCResource@@PBD@Z@std@@PAX@0@ABQAU10@@Z ; std::_Construct_in_place<std::_Tree_node<std::pair<int const ,CResource * (__cdecl*)(char const *)>,void *> *,std::_Tree_node<std::pair<int const ,CResource * (__cdecl*)(char const *)>,void *> * const &>
PUBLIC	??$_Construct_in_place@PAU?$_Tree_node@U?$pair@$$CBV?$basic_string@DU?$char_traits@D@std@@V?$allocator@D@2@@std@@P6APAVCResource@@PBD@Z@std@@PAX@std@@ABQAU12@@std@@YAXAAPAU?$_Tree_node@U?$pair@$$CBV?$basic_string@DU?$char_traits@D@std@@V?$allocator@D@2@@std@@P6APAVCResource@@PBD@Z@std@@PAX@0@ABQAU10@@Z ; std::_Construct_in_place<std::_Tree_node<std::pair<std::basic_string<char,std::char_traits<char>,std::allocator<char> > const ,CResource * (__cdecl*)(char const *)>,void *> *,std::_Tree_node<std::pair<std::basic_string<char,std::char_traits<char>,std::allocator<char> > const ,CResource * (__cdecl*)(char const *)>,void *> * const &>
PUBLIC	??$_Construct_in_place@PAU?$_Tree_node@U?$pair@$$CBKPAVCResource@@@std@@PAX@std@@ABQAU12@@std@@YAXAAPAU?$_Tree_node@U?$pair@$$CBKPAVCResource@@@std@@PAX@0@ABQAU10@@Z ; std::_Construct_in_place<std::_Tree_node<std::pair<unsigned long const ,CResource *>,void *> *,std::_Tree_node<std::pair<unsigned long const ,CResource *>,void *> * const &>
PUBLIC	??$_Destroy_in_place@PAU?$_Tree_node@U?$pair@$$CBV?$basic_string@DU?$char_traits@D@std@@V?$allocator@D@2@@std@@P6APAVCResource@@PBD@Z@std@@PAX@std@@@std@@YAXAAPAU?$_Tree_node@U?$pair@$$CBV?$basic_string@DU?$char_traits@D@std@@V?$allocator@D@2@@std@@P6APAVCResource@@PBD@Z@std@@PAX@0@@Z ; std::_Destroy_in_place<std::_Tree_node<std::pair<std::basic_string<char,std::char_traits<char>,std::allocator<char> > const ,CResource * (__cdecl*)(char const *)>,void *> *>
PUBLIC	??$_Destroy_in_place@PAU?$_Tree_node@U?$pair@$$CBHP6APAVCResource@@PBD@Z@std@@PAX@std@@@std@@YAXAAPAU?$_Tree_node@U?$pair@$$CBHP6APAVCResource@@PBD@Z@std@@PAX@0@@Z ; std::_Destroy_in_place<std::_Tree_node<std::pair<int const ,CResource * (__cdecl*)(char const *)>,void *> *>
PUBLIC	??$_Uninitialized_move@PAUSDumpData@@V?$allocator@USDumpData@@@std@@@std@@YAPAUSDumpData@@QAU1@0PAU1@AAV?$allocator@USDumpData@@@0@@Z ; std::_Uninitialized_move<SDumpData *,std::allocator<SDumpData> >
PUBLIC	??1?$_Alloc_construct_ptr@V?$allocator@U?$_Tree_node@U?$pair@$$CBKPAVCResource@@@std@@PAX@std@@@std@@@std@@QAE@XZ ; std::_Alloc_construct_ptr<std::allocator<std::_Tree_node<std::pair<unsigned long const ,CResource *>,void *> > >::~_Alloc_construct_ptr<std::allocator<std::_Tree_node<std::pair<unsigned long const ,CResource *>,void *> > >
PUBLIC	??1?$_Alloc_construct_ptr@V?$allocator@U?$_Tree_node@U?$pair@$$CBKV?$basic_string@DU?$char_traits@D@std@@V?$allocator@D@2@@std@@@std@@PAX@std@@@std@@@std@@QAE@XZ ; std::_Alloc_construct_ptr<std::allocator<std::_Tree_node<std::pair<unsigned long const ,std::basic_string<char,std::char_traits<char>,std::allocator<char> > >,void *> > >::~_Alloc_construct_ptr<std::allocator<std::_Tree_node<std::pair<unsigned long const ,std::basic_string<char,std::char_traits<char>,std::allocator<char> > >,void *> > >
PUBLIC	??1?$_Alloc_construct_ptr@V?$allocator@U?$_Tree_node@U?$pair@$$CBJPAVCResource@@@std@@PAX@std@@@std@@@std@@QAE@XZ ; std::_Alloc_construct_ptr<std::allocator<std::_Tree_node<std::pair<long const ,CResource *>,void *> > >::~_Alloc_construct_ptr<std::allocator<std::_Tree_node<std::pair<long const ,CResource *>,void *> > >
PUBLIC	??$_Make_heap_unchecked@PAUSDumpData@@P6A_NABU1@0@Z@std@@YAXPAUSDumpData@@0P6A_NABU1@1@Z@Z ; std::_Make_heap_unchecked<SDumpData *,bool (__cdecl*)(SDumpData const &,SDumpData const &)>
PUBLIC	??$_Partition_by_median_guess_unchecked@PAUSDumpData@@P6A_NABU1@0@Z@std@@YA?AU?$pair@PAUSDumpData@@PAU1@@0@PAUSDumpData@@0P6A_NABU2@1@Z@Z ; std::_Partition_by_median_guess_unchecked<SDumpData *,bool (__cdecl*)(SDumpData const &,SDumpData const &)>
PUBLIC	??1?$_Alloc_construct_ptr@V?$allocator@U?$_Tree_node@U?$pair@QAVCResource@@K@std@@PAX@std@@@std@@@std@@QAE@XZ ; std::_Alloc_construct_ptr<std::allocator<std::_Tree_node<std::pair<CResource * const,unsigned long>,void *> > >::~_Alloc_construct_ptr<std::allocator<std::_Tree_node<std::pair<CResource * const,unsigned long>,void *> > >
PUBLIC	??$_Destroy_in_place@PAU?$_Tree_node@U?$pair@$$CBJPAVCResource@@@std@@PAX@std@@@std@@YAXAAPAU?$_Tree_node@U?$pair@$$CBJPAVCResource@@@std@@PAX@0@@Z ; std::_Destroy_in_place<std::_Tree_node<std::pair<long const ,CResource *>,void *> *>
PUBLIC	??$_Destroy_in_place@PAU?$_Tree_node@U?$pair@$$CBKV?$basic_string@DU?$char_traits@D@std@@V?$allocator@D@2@@std@@@std@@PAX@std@@@std@@YAXAAPAU?$_Tree_node@U?$pair@$$CBKV?$basic_string@DU?$char_traits@D@std@@V?$allocator@D@2@@std@@@std@@PAX@0@@Z ; std::_Destroy_in_place<std::_Tree_node<std::pair<unsigned long const ,std::basic_string<char,std::char_traits<char>,std::allocator<char> > >,void *> *>
PUBLIC	??$_Destroy_in_place@PAU?$_Tree_node@U?$pair@QAVCResource@@K@std@@PAX@std@@@std@@YAXAAPAU?$_Tree_node@U?$pair@QAVCResource@@K@std@@PAX@0@@Z ; std::_Destroy_in_place<std::_Tree_node<std::pair<CResource * const,unsigned long>,void *> *>
PUBLIC	??$_Construct_in_place@PAU?$_Tree_node@U?$pair@$$CBHP6APAVCResource@@PBD@Z@std@@PAX@std@@AAPAU12@@std@@YAXAAPAU?$_Tree_node@U?$pair@$$CBHP6APAVCResource@@PBD@Z@std@@PAX@0@0@Z ; std::_Construct_in_place<std::_Tree_node<std::pair<int const ,CResource * (__cdecl*)(char const *)>,void *> *,std::_Tree_node<std::pair<int const ,CResource * (__cdecl*)(char const *)>,void *> * &>
PUBLIC	??$_Construct_in_place@PAU?$_Tree_node@U?$pair@$$CBV?$basic_string@DU?$char_traits@D@std@@V?$allocator@D@2@@std@@P6APAVCResource@@PBD@Z@std@@PAX@std@@AAPAU12@@std@@YAXAAPAU?$_Tree_node@U?$pair@$$CBV?$basic_string@DU?$char_traits@D@std@@V?$allocator@D@2@@std@@P6APAVCResource@@PBD@Z@std@@PAX@0@0@Z ; std::_Construct_in_place<std::_Tree_node<std::pair<std::basic_string<char,std::char_traits<char>,std::allocator<char> > const ,CResource * (__cdecl*)(char const *)>,void *> *,std::_Tree_node<std::pair<std::basic_string<char,std::char_traits<char>,std::allocator<char> > const ,CResource * (__cdecl*)(char const *)>,void *> * &>
PUBLIC	??$_Destroy_in_place@PAU?$_Tree_node@U?$pair@$$CBKPAVCResource@@@std@@PAX@std@@@std@@YAXAAPAU?$_Tree_node@U?$pair@$$CBKPAVCResource@@@std@@PAX@0@@Z ; std::_Destroy_in_place<std::_Tree_node<std::pair<unsigned long const ,CResource *>,void *> *>
PUBLIC	??$_Copy_memmove@PAUSDumpData@@PAU1@@std@@YAPAUSDumpData@@PAU1@00@Z ; std::_Copy_memmove<SDumpData *,SDumpData *>
PUBLIC	??$?MDU?$char_traits@D@std@@V?$allocator@D@1@@std@@YA_NABV?$basic_string@DU?$char_traits@D@std@@V?$allocator@D@2@@0@0@Z ; std::operator<<char,std::char_traits<char>,std::allocator<char> >
PUBLIC	??$_Construct_in_place@PAU?$_Tree_node@U?$pair@$$CBKPAVCResource@@@std@@PAX@std@@AAPAU12@@std@@YAXAAPAU?$_Tree_node@U?$pair@$$CBKPAVCResource@@@std@@PAX@0@0@Z ; std::_Construct_in_place<std::_Tree_node<std::pair<unsigned long const ,CResource *>,void *> *,std::_Tree_node<std::pair<unsigned long const ,CResource *>,void *> * &>
PUBLIC	??$_Construct_in_place@PAU?$_Tree_node@U?$pair@$$CBKV?$basic_string@DU?$char_traits@D@std@@V?$allocator@D@2@@std@@@std@@PAX@std@@AAPAU12@@std@@YAXAAPAU?$_Tree_node@U?$pair@$$CBKV?$basic_string@DU?$char_traits@D@std@@V?$allocator@D@2@@std@@@std@@PAX@0@0@Z ; std::_Construct_in_place<std::_Tree_node<std::pair<unsigned long const ,std::basic_string<char,std::char_traits<char>,std::allocator<char> > >,void *> *,std::_Tree_node<std::pair<unsigned long const ,std::basic_string<char,std::char_traits<char>,std::allocator<char> > >,void *> * &>
PUBLIC	??$_Construct_in_place@PAU?$_Tree_node@U?$pair@$$CBJPAVCResource@@@std@@PAX@std@@AAPAU12@@std@@YAXAAPAU?$_Tree_node@U?$pair@$$CBJPAVCResource@@@std@@PAX@0@0@Z ; std::_Construct_in_place<std::_Tree_node<std::pair<long const ,CResource *>,void *> *,std::_Tree_node<std::pair<long const ,CResource *>,void *> * &>
PUBLIC	??$_Pop_heap_hole_by_index@PAUSDumpData@@U1@P6A_NABU1@0@Z@std@@YAXPAUSDumpData@@HH$$QAU1@P6A_NABU1@2@Z@Z ; std::_Pop_heap_hole_by_index<SDumpData *,SDumpData,bool (__cdecl*)(SDumpData const &,SDumpData const &)>
PUBLIC	??$_Construct_in_place@PAU?$_Tree_node@U?$pair@QAVCResource@@K@std@@PAX@std@@AAPAU12@@std@@YAXAAPAU?$_Tree_node@U?$pair@QAVCResource@@K@std@@PAX@0@0@Z ; std::_Construct_in_place<std::_Tree_node<std::pair<CResource * const,unsigned long>,void *> *,std::_Tree_node<std::pair<CResource * const,unsigned long>,void *> * &>
PUBLIC	??$?0ABH$$Z$$V@?$pair@$$CBHP6APAVCResource@@PBD@Z@std@@QAE@Upiecewise_construct_t@1@V?$tuple@ABH@1@V?$tuple@$$V@1@@Z ; std::pair<int const ,CResource * (__cdecl*)(char const *)>::pair<int const ,CResource * (__cdecl*)(char const *)><int const &>
PUBLIC	??$?0$$QAV?$basic_string@DU?$char_traits@D@std@@V?$allocator@D@2@@std@@$$Z$$V@?$pair@$$CBV?$basic_string@DU?$char_traits@D@std@@V?$allocator@D@2@@std@@P6APAVCResource@@PBD@Z@std@@QAE@Upiecewise_construct_t@1@V?$tuple@$$QAV?$basic_string@DU?$char_traits@D@std@@V?$allocator@D@2@@std@@@1@V?$tuple@$$V@1@@Z ; std::pair<std::basic_string<char,std::char_traits<char>,std::allocator<char> > const ,CResource * (__cdecl*)(char const *)>::pair<std::basic_string<char,std::char_traits<char>,std::allocator<char> > const ,CResource * (__cdecl*)(char const *)><std::basic_string<char,std::char_traits<char>,std::allocator<char> > &&>
PUBLIC	??$_Copy_backward_memmove@PAUSDumpData@@PAU1@@std@@YAPAUSDumpData@@PAU1@00@Z ; std::_Copy_backward_memmove<SDumpData *,SDumpData *>
PUBLIC	??$_Med3_unchecked@PAUSDumpData@@P6A_NABU1@0@Z@std@@YAXPAUSDumpData@@00P6A_NABU1@1@Z@Z ; std::_Med3_unchecked<SDumpData *,bool (__cdecl*)(SDumpData const &,SDumpData const &)>
PUBLIC	??$?0V?$tuple@ABH@std@@V?$tuple@$$V@1@$0A@$$Z$S@?$pair@$$CBHP6APAVCResource@@PBD@Z@std@@QAE@AAV?$tuple@ABH@1@AAV?$tuple@$$V@1@U?$integer_sequence@I$0A@@1@U?$integer_sequence@I$S@1@@Z ; std::pair<int const ,CResource * (__cdecl*)(char const *)>::pair<int const ,CResource * (__cdecl*)(char const *)><std::tuple<int const &>,std::tuple<>,0>
PUBLIC	??$?0V?$tuple@$$QAV?$basic_string@DU?$char_traits@D@std@@V?$allocator@D@2@@std@@@std@@V?$tuple@$$V@1@$0A@$$Z$S@?$pair@$$CBV?$basic_string@DU?$char_traits@D@std@@V?$allocator@D@2@@std@@P6APAVCResource@@PBD@Z@std@@QAE@AAV?$tuple@$$QAV?$basic_string@DU?$char_traits@D@std@@V?$allocator@D@2@@std@@@1@AAV?$tuple@$$V@1@U?$integer_sequence@I$0A@@1@U?$integer_sequence@I$S@1@@Z ; std::pair<std::basic_string<char,std::char_traits<char>,std::allocator<char> > const ,CResource * (__cdecl*)(char const *)>::pair<std::basic_string<char,std::char_traits<char>,std::allocator<char> > const ,CResource * (__cdecl*)(char const *)><std::tuple<std::basic_string<char,std::char_traits<char>,std::allocator<char> > &&>,std::tuple<>,0>
PUBLIC	?_OptionsStorage@?1??__local_stdio_printf_options@@9@4_KA ; `__local_stdio_printf_options'::`2'::_OptionsStorage
PUBLIC	??_7exception@std@@6B@				; std::exception::`vftable'
PUBLIC	??_C@_0BC@EOODALEL@Unknown?5exception@		; `string'
PUBLIC	??_7bad_alloc@std@@6B@				; std::bad_alloc::`vftable'
PUBLIC	??_7bad_array_new_length@std@@6B@		; std::bad_array_new_length::`vftable'
PUBLIC	??_C@_0BF@KINCDENJ@bad?5array?5new?5length@	; `string'
PUBLIC	__TI3?AVbad_array_new_length@std@@
PUBLIC	__CTA3?AVbad_array_new_length@std@@
PUBLIC	??_R0?AVbad_array_new_length@std@@@8		; std::bad_array_new_length `RTTI Type Descriptor'
PUBLIC	__CT??_R0?AVbad_array_new_length@std@@@8??0bad_array_new_length@std@@QAE@ABV01@@Z12
PUBLIC	??_R0?AVbad_alloc@std@@@8			; std::bad_alloc `RTTI Type Descriptor'
PUBLIC	__CT??_R0?AVbad_alloc@std@@@8??0bad_alloc@std@@QAE@ABV01@@Z12
PUBLIC	??_R0?AVexception@std@@@8			; std::exception `RTTI Type Descriptor'
PUBLIC	__CT??_R0?AVexception@std@@@8??0exception@std@@QAE@ABV01@@Z12
PUBLIC	??_C@_0BA@JFNIOLAK@string?5too?5long@		; `string'
PUBLIC	??_C@_0BB@GCADKGJO@map?1set?5too?5long@		; `string'
PUBLIC	??_R4exception@std@@6B@				; std::exception::`RTTI Complete Object Locator'
PUBLIC	??_R3exception@std@@8				; std::exception::`RTTI Class Hierarchy Descriptor'
PUBLIC	??_R2exception@std@@8				; std::exception::`RTTI Base Class Array'
PUBLIC	??_R1A@?0A@EA@exception@std@@8			; std::exception::`RTTI Base Class Descriptor at (0,-1,0,64)'
PUBLIC	??_R4bad_alloc@std@@6B@				; std::bad_alloc::`RTTI Complete Object Locator'
PUBLIC	??_R3bad_alloc@std@@8				; std::bad_alloc::`RTTI Class Hierarchy Descriptor'
PUBLIC	??_R2bad_alloc@std@@8				; std::bad_alloc::`RTTI Base Class Array'
PUBLIC	??_R1A@?0A@EA@bad_alloc@std@@8			; std::bad_alloc::`RTTI Base Class Descriptor at (0,-1,0,64)'
PUBLIC	??_R4bad_array_new_length@std@@6B@		; std::bad_array_new_length::`RTTI Complete Object Locator'
PUBLIC	??_R3bad_array_new_length@std@@8		; std::bad_array_new_length::`RTTI Class Hierarchy Descriptor'
PUBLIC	??_R2bad_array_new_length@std@@8		; std::bad_array_new_length::`RTTI Base Class Array'
PUBLIC	??_R1A@?0A@EA@bad_array_new_length@std@@8	; std::bad_array_new_length::`RTTI Base Class Descriptor at (0,-1,0,64)'
PUBLIC	?ms_singleton@?$CSingleton@VCEterPackManager@@@@0PAVCEterPackManager@@A ; CSingleton<CEterPackManager>::ms_singleton
PUBLIC	?ms_singleton@?$CSingleton@VCResourceManager@@@@0PAVCResourceManager@@A ; CSingleton<CResourceManager>::ms_singleton
PUBLIC	??_7?$CSingleton@VCResourceManager@@@@6B@	; CSingleton<CResourceManager>::`vftable'
PUBLIC	?ms_loadingThread@CResourceManager@@1VCFileLoaderThread@@A ; CResourceManager::ms_loadingThread
PUBLIC	??_7CResourceManager@@6B@			; CResourceManager::`vftable'
PUBLIC	??_C@_0CO@DICKOBGD@CResourceManager?3?3LoadStaticCac@ ; `string'
PUBLIC	??_C@_0DC@JIBACBGM@CResourceManager?3?3__DestroyDele@ ; `string'
PUBLIC	??_C@_0CK@GGPMOLNJ@CResourceManager?3?3__DestroyReso@ ; `string'
PUBLIC	??_C@_0DM@HFOFINBK@CResource?3?3InsertResourcePointe@ ; `string'
PUBLIC	??_C@_0DJ@NILLFGHO@ResourceManager?3?3GetResourcePoi@ ; `string'
PUBLIC	??_C@_0DG@LGINPHCP@CResourceManager?3?3GetResourcePo@ ; `string'
PUBLIC	??_C@_09COBKJKAL@?$CF6?41f?5?$CFs?6@		; `string'
PUBLIC	??_C@_08IGNPNJLM@?$CF?94d?5?$CFs?6@		; `string'
PUBLIC	??_C@_04DLFHDFGL@?4sub@				; `string'
PUBLIC	??_C@_02JDPG@rb@				; `string'
PUBLIC	??_C@_01NOFIACDB@w@				; `string'
PUBLIC	??_C@_0O@LJOLOKII@total?3?5?$CF?42fmb@		; `string'
PUBLIC	??_C@_0BA@FOIKENOD@vector?5too?5long@		; `string'
PUBLIC	??_R4CResourceManager@@6B@			; CResourceManager::`RTTI Complete Object Locator'
PUBLIC	??_R0?AVCResourceManager@@@8			; CResourceManager `RTTI Type Descriptor'
PUBLIC	??_R3CResourceManager@@8			; CResourceManager::`RTTI Class Hierarchy Descriptor'
PUBLIC	??_R2CResourceManager@@8			; CResourceManager::`RTTI Base Class Array'
PUBLIC	??_R1A@?0A@EA@CResourceManager@@8		; CResourceManager::`RTTI Base Class Descriptor at (0,-1,0,64)'
PUBLIC	??_R1A@?0A@EA@?$CSingleton@VCResourceManager@@@@8 ; CSingleton<CResourceManager>::`RTTI Base Class Descriptor at (0,-1,0,64)'
PUBLIC	??_R0?AV?$CSingleton@VCResourceManager@@@@@8	; CSingleton<CResourceManager> `RTTI Type Descriptor'
PUBLIC	??_R3?$CSingleton@VCResourceManager@@@@8	; CSingleton<CResourceManager>::`RTTI Class Hierarchy Descriptor'
PUBLIC	??_R2?$CSingleton@VCResourceManager@@@@8	; CSingleton<CResourceManager>::`RTTI Base Class Array'
PUBLIC	??_R4?$CSingleton@VCResourceManager@@@@6B@	; CSingleton<CResourceManager>::`RTTI Complete Object Locator'
PUBLIC	__real@3a800000
EXTRN	??2@YAPAXI@Z:PROC				; operator new
EXTRN	??3@YAXPAXI@Z:PROC				; operator delete
EXTRN	??_V@YAXPAX@Z:PROC				; operator delete[]
EXTRN	_atexit:PROC
EXTRN	__invalid_parameter_noinfo_noreturn:PROC
EXTRN	_strrchr:PROC
EXTRN	__strnicmp:PROC
EXTRN	_strncpy:PROC
EXTRN	_fclose:PROC
EXTRN	_fopen:PROC
EXTRN	_fseek:PROC
EXTRN	_ftell:PROC
EXTRN	___stdio_common_vfprintf:PROC
EXTRN	___std_exception_copy:PROC
EXTRN	___std_exception_destroy:PROC
EXTRN	??_Eexception@std@@UAEPAXI@Z:PROC		; std::exception::`vector deleting destructor'
EXTRN	??_Ebad_alloc@std@@UAEPAXI@Z:PROC		; std::bad_alloc::`vector deleting destructor'
EXTRN	??_Ebad_array_new_length@std@@UAEPAXI@Z:PROC	; std::bad_array_new_length::`vector deleting destructor'
EXTRN	?_Xlength_error@std@@YAXPBD@Z:PROC		; std::_Xlength_error
EXTRN	?Lognf@@YAXIPBDZZ:PROC				; Lognf
EXTRN	?Tracenf@@YAXPBDZZ:PROC				; Tracenf
EXTRN	?TraceError@@YAXPBDZZ:PROC			; TraceError
EXTRN	?GetCRC32@@YAKPBDI@Z:PROC			; GetCRC32
EXTRN	?ELTimer_GetMSec@@YAKXZ:PROC			; ELTimer_GetMSec
EXTRN	?korean_tolower@@YADD@Z:PROC			; korean_tolower
EXTRN	??1CMappedFile@@UAE@XZ:PROC			; CMappedFile::~CMappedFile
EXTRN	?isExist@CEterPackManager@@QAE_NPBD@Z:PROC	; CEterPackManager::isExist
EXTRN	?AddReference@CReferenceObject@@QAEXXZ:PROC	; CReferenceObject::AddReference
EXTRN	?AddReferenceOnly@CReferenceObject@@QAEXXZ:PROC	; CReferenceObject::AddReferenceOnly
EXTRN	?Release@CReferenceObject@@QAEXXZ:PROC		; CReferenceObject::Release
EXTRN	?canDestroy@CReferenceObject@@QAE_NXZ:PROC	; CReferenceObject::canDestroy
EXTRN	?Clear@CResource@@QAEXXZ:PROC			; CResource::Clear
EXTRN	?SetDeleteImmediately@CResource@@SAX_N@Z:PROC	; CResource::SetDeleteImmediately
EXTRN	?IsData@CResource@@QBE_NXZ:PROC			; CResource::IsData
EXTRN	?IsEmpty@CResource@@QBE_NXZ:PROC		; CResource::IsEmpty
EXTRN	?IsType@CResource@@QAE_NK@Z:PROC		; CResource::IsType
EXTRN	??0CFileLoaderThread@@QAE@XZ:PROC		; CFileLoaderThread::CFileLoaderThread
EXTRN	??1CFileLoaderThread@@QAE@XZ:PROC		; CFileLoaderThread::~CFileLoaderThread
EXTRN	?Request@CFileLoaderThread@@QAEXAAV?$basic_string@DU?$char_traits@D@std@@V?$allocator@D@2@@std@@@Z:PROC ; CFileLoaderThread::Request
EXTRN	?Fetch@CFileLoaderThread@@QAE_NPAPAUSData@1@@Z:PROC ; CFileLoaderThread::Fetch
EXTRN	??_E?$CSingleton@VCResourceManager@@@@UAEPAXI@Z:PROC ; CSingleton<CResourceManager>::`vector deleting destructor'
EXTRN	??_ECResourceManager@@UAEPAXI@Z:PROC		; CResourceManager::`vector deleting destructor'
EXTRN	?Type@CGraphicImage@@SAKXZ:PROC			; CGraphicImage::Type
EXTRN	?GetWidth@CGraphicImage@@QBEHXZ:PROC		; CGraphicImage::GetWidth
EXTRN	?GetHeight@CGraphicImage@@QBEHXZ:PROC		; CGraphicImage::GetHeight
EXTRN	@__security_check_cookie@4:PROC
EXTRN	__CxxThrowException@8:PROC
EXTRN	___CxxFrameHandler3:PROC
EXTRN	_memcpy:PROC
EXTRN	_memmove:PROC
EXTRN	??_7type_info@@6B@:QWORD			; type_info::`vftable'
EXTRN	___security_cookie:DWORD
EXTRN	__fltused:DWORD
;	COMDAT ?_OptionsStorage@?1??__local_stdio_printf_options@@9@4_KA
_BSS	SEGMENT
?_OptionsStorage@?1??__local_stdio_printf_options@@9@4_KA DQ 01H DUP (?) ; `__local_stdio_printf_options'::`2'::_OptionsStorage
_BSS	ENDS
;	COMDAT ?ms_singleton@?$CSingleton@VCEterPackManager@@@@0PAVCEterPackManager@@A
_BSS	SEGMENT
?ms_singleton@?$CSingleton@VCEterPackManager@@@@0PAVCEterPackManager@@A DD 01H DUP (?) ; CSingleton<CEterPackManager>::ms_singleton
_BSS	ENDS
;	COMDAT ?ms_singleton@?$CSingleton@VCResourceManager@@@@0PAVCResourceManager@@A
_BSS	SEGMENT
?ms_singleton@?$CSingleton@VCResourceManager@@@@0PAVCResourceManager@@A DD 01H DUP (?) ; CSingleton<CResourceManager>::ms_singleton
_BSS	ENDS
_BSS	SEGMENT
?ms_loadingThread@CResourceManager@@1VCFileLoaderThread@@A DB 070H DUP (?) ; CResourceManager::ms_loadingThread
_BSS	ENDS
;	COMDAT ?s_szFileExt@?BB@??GetTypeResourcePointer@CResourceManager@@QAEPAVCResource@@PBDH@Z@4PADA
_BSS	SEGMENT
?s_szFileExt@?BB@??GetTypeResourcePointer@CResourceManager@@QAEPAVCResource@@PBDH@Z@4PADA DB 09H DUP (?) ; `CResourceManager::GetTypeResourcePointer'::`17'::s_szFileExt
_BSS	ENDS
;	COMDAT ?s_szFileExt@?9??GetResourcePointer@CResourceManager@@QAEPAVCResource@@PBD@Z@4PADA
_BSS	SEGMENT
?s_szFileExt@?9??GetResourcePointer@CResourceManager@@QAEPAVCResource@@PBD@Z@4PADA DB 09H DUP (?) ; `CResourceManager::GetResourcePointer'::`10'::s_szFileExt
_BSS	ENDS
;	COMDAT ?s_szFullPathFileName@?1??__GetFileCRC@CResourceManager@@IAEKPBDPAPBD@Z@4PADA
_BSS	SEGMENT
?s_szFullPathFileName@?1??__GetFileCRC@CResourceManager@@IAEKPBDPAPBD@Z@4PADA DB 0104H DUP (?) ; `CResourceManager::__GetFileCRC'::`2'::s_szFullPathFileName
_BSS	ENDS
CRT$XCU	SEGMENT
??ms_loadingThread$initializer$@CResourceManager@@1P6AXXZA@@3P6AXXZA DD FLAT:??__E?ms_loadingThread@CResourceManager@@1VCFileLoaderThread@@A@@YAXXZ ; ??ms_loadingThread$initializer$@CResourceManager@@1P6AXXZA@@3P6AXXZA
CRT$XCU	ENDS
;	COMDAT __real@3a800000
CONST	SEGMENT
__real@3a800000 DD 03a800000r			; 0.000976562
CONST	ENDS
;	COMDAT ??_R4?$CSingleton@VCResourceManager@@@@6B@
rdata$r	SEGMENT
??_R4?$CSingleton@VCResourceManager@@@@6B@ DD 00H	; CSingleton<CResourceManager>::`RTTI Complete Object Locator'
	DD	00H
	DD	00H
	DD	FLAT:??_R0?AV?$CSingleton@VCResourceManager@@@@@8
	DD	FLAT:??_R3?$CSingleton@VCResourceManager@@@@8
rdata$r	ENDS
;	COMDAT ??_R2?$CSingleton@VCResourceManager@@@@8
rdata$r	SEGMENT
??_R2?$CSingleton@VCResourceManager@@@@8 DD FLAT:??_R1A@?0A@EA@?$CSingleton@VCResourceManager@@@@8 ; CSingleton<CResourceManager>::`RTTI Base Class Array'
rdata$r	ENDS
;	COMDAT ??_R3?$CSingleton@VCResourceManager@@@@8
rdata$r	SEGMENT
??_R3?$CSingleton@VCResourceManager@@@@8 DD 00H		; CSingleton<CResourceManager>::`RTTI Class Hierarchy Descriptor'
	DD	00H
	DD	01H
	DD	FLAT:??_R2?$CSingleton@VCResourceManager@@@@8
rdata$r	ENDS
;	COMDAT ??_R0?AV?$CSingleton@VCResourceManager@@@@@8
data$r	SEGMENT
??_R0?AV?$CSingleton@VCResourceManager@@@@@8 DD FLAT:??_7type_info@@6B@ ; CSingleton<CResourceManager> `RTTI Type Descriptor'
	DD	00H
	DB	'.?AV?$CSingleton@VCResourceManager@@@@', 00H
data$r	ENDS
;	COMDAT ??_R1A@?0A@EA@?$CSingleton@VCResourceManager@@@@8
rdata$r	SEGMENT
??_R1A@?0A@EA@?$CSingleton@VCResourceManager@@@@8 DD FLAT:??_R0?AV?$CSingleton@VCResourceManager@@@@@8 ; CSingleton<CResourceManager>::`RTTI Base Class Descriptor at (0,-1,0,64)'
	DD	00H
	DD	00H
	DD	0ffffffffH
	DD	00H
	DD	040H
	DD	FLAT:??_R3?$CSingleton@VCResourceManager@@@@8
rdata$r	ENDS
;	COMDAT ??_R1A@?0A@EA@CResourceManager@@8
rdata$r	SEGMENT
??_R1A@?0A@EA@CResourceManager@@8 DD FLAT:??_R0?AVCResourceManager@@@8 ; CResourceManager::`RTTI Base Class Descriptor at (0,-1,0,64)'
	DD	01H
	DD	00H
	DD	0ffffffffH
	DD	00H
	DD	040H
	DD	FLAT:??_R3CResourceManager@@8
rdata$r	ENDS
;	COMDAT ??_R2CResourceManager@@8
rdata$r	SEGMENT
??_R2CResourceManager@@8 DD FLAT:??_R1A@?0A@EA@CResourceManager@@8 ; CResourceManager::`RTTI Base Class Array'
	DD	FLAT:??_R1A@?0A@EA@?$CSingleton@VCResourceManager@@@@8
rdata$r	ENDS
;	COMDAT ??_R3CResourceManager@@8
rdata$r	SEGMENT
??_R3CResourceManager@@8 DD 00H				; CResourceManager::`RTTI Class Hierarchy Descriptor'
	DD	00H
	DD	02H
	DD	FLAT:??_R2CResourceManager@@8
rdata$r	ENDS
;	COMDAT ??_R0?AVCResourceManager@@@8
data$r	SEGMENT
??_R0?AVCResourceManager@@@8 DD FLAT:??_7type_info@@6B@	; CResourceManager `RTTI Type Descriptor'
	DD	00H
	DB	'.?AVCResourceManager@@', 00H
data$r	ENDS
;	COMDAT ??_R4CResourceManager@@6B@
rdata$r	SEGMENT
??_R4CResourceManager@@6B@ DD 00H			; CResourceManager::`RTTI Complete Object Locator'
	DD	00H
	DD	00H
	DD	FLAT:??_R0?AVCResourceManager@@@8
	DD	FLAT:??_R3CResourceManager@@8
rdata$r	ENDS
;	COMDAT ??_C@_0BA@FOIKENOD@vector?5too?5long@
CONST	SEGMENT
??_C@_0BA@FOIKENOD@vector?5too?5long@ DB 'vector too long', 00H ; `string'
CONST	ENDS
;	COMDAT ??_C@_0O@LJOLOKII@total?3?5?$CF?42fmb@
CONST	SEGMENT
??_C@_0O@LJOLOKII@total?3?5?$CF?42fmb@ DB 'total: %.2fmb', 00H ; `string'
CONST	ENDS
;	COMDAT ??_C@_01NOFIACDB@w@
CONST	SEGMENT
??_C@_01NOFIACDB@w@ DB 'w', 00H				; `string'
CONST	ENDS
;	COMDAT ??_C@_02JDPG@rb@
CONST	SEGMENT
??_C@_02JDPG@rb@ DB 'rb', 00H				; `string'
CONST	ENDS
;	COMDAT ??_C@_04DLFHDFGL@?4sub@
CONST	SEGMENT
??_C@_04DLFHDFGL@?4sub@ DB '.sub', 00H			; `string'
CONST	ENDS
;	COMDAT ??_C@_08IGNPNJLM@?$CF?94d?5?$CFs?6@
CONST	SEGMENT
??_C@_08IGNPNJLM@?$CF?94d?5?$CFs?6@ DB '%-4d %s', 0aH, 00H ; `string'
CONST	ENDS
;	COMDAT ??_C@_09COBKJKAL@?$CF6?41f?5?$CFs?6@
CONST	SEGMENT
??_C@_09COBKJKAL@?$CF6?41f?5?$CFs?6@ DB '%6.1f %s', 0aH, 00H ; `string'
CONST	ENDS
;	COMDAT ??_C@_0DG@LGINPHCP@CResourceManager?3?3GetResourcePo@
CONST	SEGMENT
??_C@_0DG@LGINPHCP@CResourceManager?3?3GetResourcePo@ DB 'CResourceManage'
	DB	'r::GetResourcePointer: filename error!', 00H ; `string'
CONST	ENDS
;	COMDAT ??_C@_0DJ@NILLFGHO@ResourceManager?3?3GetResourcePoi@
CONST	SEGMENT
??_C@_0DJ@NILLFGHO@ResourceManager?3?3GetResourcePoi@ DB 'ResourceManager'
	DB	'::GetResourcePointer: NOT SUPPORT FILE %s', 00H ; `string'
CONST	ENDS
;	COMDAT ??_C@_0DM@HFOFINBK@CResource?3?3InsertResourcePointe@
CONST	SEGMENT
??_C@_0DM@HFOFINBK@CResource?3?3InsertResourcePointe@ DB 'CResource::Inse'
	DB	'rtResourcePointer: %s is already registered', 0aH, 00H ; `string'
CONST	ENDS
;	COMDAT ??_C@_0CK@GGPMOLNJ@CResourceManager?3?3__DestroyReso@
CONST	SEGMENT
??_C@_0CK@GGPMOLNJ@CResourceManager?3?3__DestroyReso@ DB 'CResourceManage'
	DB	'r::__DestroyResourceMap %d', 00H		; `string'
CONST	ENDS
;	COMDAT ??_C@_0DC@JIBACBGM@CResourceManager?3?3__DestroyDele@
CONST	SEGMENT
??_C@_0DC@JIBACBGM@CResourceManager?3?3__DestroyDele@ DB 'CResourceManage'
	DB	'r::__DestroyDeletingResourceMap %d', 00H	; `string'
CONST	ENDS
;	COMDAT ??_C@_0CO@DICKOBGD@CResourceManager?3?3LoadStaticCac@
CONST	SEGMENT
??_C@_0CO@DICKOBGD@CResourceManager?3?3LoadStaticCac@ DB 'CResourceManage'
	DB	'r::LoadStaticCache %s - FAILED', 00H	; `string'
CONST	ENDS
;	COMDAT ??_7CResourceManager@@6B@
CONST	SEGMENT
??_7CResourceManager@@6B@ DD FLAT:??_R4CResourceManager@@6B@ ; CResourceManager::`vftable'
	DD	FLAT:??_ECResourceManager@@UAEPAXI@Z
CONST	ENDS
;	COMDAT ??_7?$CSingleton@VCResourceManager@@@@6B@
CONST	SEGMENT
??_7?$CSingleton@VCResourceManager@@@@6B@ DD FLAT:??_R4?$CSingleton@VCResourceManager@@@@6B@ ; CSingleton<CResourceManager>::`vftable'
	DD	FLAT:??_E?$CSingleton@VCResourceManager@@@@UAEPAXI@Z
CONST	ENDS
;	COMDAT ??_R1A@?0A@EA@bad_array_new_length@std@@8
rdata$r	SEGMENT
??_R1A@?0A@EA@bad_array_new_length@std@@8 DD FLAT:??_R0?AVbad_array_new_length@std@@@8 ; std::bad_array_new_length::`RTTI Base Class Descriptor at (0,-1,0,64)'
	DD	02H
	DD	00H
	DD	0ffffffffH
	DD	00H
	DD	040H
	DD	FLAT:??_R3bad_array_new_length@std@@8
rdata$r	ENDS
;	COMDAT ??_R2bad_array_new_length@std@@8
rdata$r	SEGMENT
??_R2bad_array_new_length@std@@8 DD FLAT:??_R1A@?0A@EA@bad_array_new_length@std@@8 ; std::bad_array_new_length::`RTTI Base Class Array'
	DD	FLAT:??_R1A@?0A@EA@bad_alloc@std@@8
	DD	FLAT:??_R1A@?0A@EA@exception@std@@8
rdata$r	ENDS
;	COMDAT ??_R3bad_array_new_length@std@@8
rdata$r	SEGMENT
??_R3bad_array_new_length@std@@8 DD 00H			; std::bad_array_new_length::`RTTI Class Hierarchy Descriptor'
	DD	00H
	DD	03H
	DD	FLAT:??_R2bad_array_new_length@std@@8
rdata$r	ENDS
;	COMDAT ??_R4bad_array_new_length@std@@6B@
rdata$r	SEGMENT
??_R4bad_array_new_length@std@@6B@ DD 00H		; std::bad_array_new_length::`RTTI Complete Object Locator'
	DD	00H
	DD	00H
	DD	FLAT:??_R0?AVbad_array_new_length@std@@@8
	DD	FLAT:??_R3bad_array_new_length@std@@8
rdata$r	ENDS
;	COMDAT ??_R1A@?0A@EA@bad_alloc@std@@8
rdata$r	SEGMENT
??_R1A@?0A@EA@bad_alloc@std@@8 DD FLAT:??_R0?AVbad_alloc@std@@@8 ; std::bad_alloc::`RTTI Base Class Descriptor at (0,-1,0,64)'
	DD	01H
	DD	00H
	DD	0ffffffffH
	DD	00H
	DD	040H
	DD	FLAT:??_R3bad_alloc@std@@8
rdata$r	ENDS
;	COMDAT ??_R2bad_alloc@std@@8
rdata$r	SEGMENT
??_R2bad_alloc@std@@8 DD FLAT:??_R1A@?0A@EA@bad_alloc@std@@8 ; std::bad_alloc::`RTTI Base Class Array'
	DD	FLAT:??_R1A@?0A@EA@exception@std@@8
rdata$r	ENDS
;	COMDAT ??_R3bad_alloc@std@@8
rdata$r	SEGMENT
??_R3bad_alloc@std@@8 DD 00H				; std::bad_alloc::`RTTI Class Hierarchy Descriptor'
	DD	00H
	DD	02H
	DD	FLAT:??_R2bad_alloc@std@@8
rdata$r	ENDS
;	COMDAT ??_R4bad_alloc@std@@6B@
rdata$r	SEGMENT
??_R4bad_alloc@std@@6B@ DD 00H				; std::bad_alloc::`RTTI Complete Object Locator'
	DD	00H
	DD	00H
	DD	FLAT:??_R0?AVbad_alloc@std@@@8
	DD	FLAT:??_R3bad_alloc@std@@8
rdata$r	ENDS
;	COMDAT ??_R1A@?0A@EA@exception@std@@8
rdata$r	SEGMENT
??_R1A@?0A@EA@exception@std@@8 DD FLAT:??_R0?AVexception@std@@@8 ; std::exception::`RTTI Base Class Descriptor at (0,-1,0,64)'
	DD	00H
	DD	00H
	DD	0ffffffffH
	DD	00H
	DD	040H
	DD	FLAT:??_R3exception@std@@8
rdata$r	ENDS
;	COMDAT ??_R2exception@std@@8
rdata$r	SEGMENT
??_R2exception@std@@8 DD FLAT:??_R1A@?0A@EA@exception@std@@8 ; std::exception::`RTTI Base Class Array'
rdata$r	ENDS
;	COMDAT ??_R3exception@std@@8
rdata$r	SEGMENT
??_R3exception@std@@8 DD 00H				; std::exception::`RTTI Class Hierarchy Descriptor'
	DD	00H
	DD	01H
	DD	FLAT:??_R2exception@std@@8
rdata$r	ENDS
;	COMDAT ??_R4exception@std@@6B@
rdata$r	SEGMENT
??_R4exception@std@@6B@ DD 00H				; std::exception::`RTTI Complete Object Locator'
	DD	00H
	DD	00H
	DD	FLAT:??_R0?AVexception@std@@@8
	DD	FLAT:??_R3exception@std@@8
rdata$r	ENDS
;	COMDAT ??_C@_0BB@GCADKGJO@map?1set?5too?5long@
CONST	SEGMENT
??_C@_0BB@GCADKGJO@map?1set?5too?5long@ DB 'map/set too long', 00H ; `string'
CONST	ENDS
;	COMDAT ??_C@_0BA@JFNIOLAK@string?5too?5long@
CONST	SEGMENT
??_C@_0BA@JFNIOLAK@string?5too?5long@ DB 'string too long', 00H ; `string'
CONST	ENDS
;	COMDAT __CT??_R0?AVexception@std@@@8??0exception@std@@QAE@ABV01@@Z12
xdata$x	SEGMENT
__CT??_R0?AVexception@std@@@8??0exception@std@@QAE@ABV01@@Z12 DD 00H
	DD	FLAT:??_R0?AVexception@std@@@8
	DD	00H
	DD	0ffffffffH
	ORG $+4
	DD	0cH
	DD	FLAT:??0exception@std@@QAE@ABV01@@Z
xdata$x	ENDS
;	COMDAT ??_R0?AVexception@std@@@8
data$r	SEGMENT
??_R0?AVexception@std@@@8 DD FLAT:??_7type_info@@6B@	; std::exception `RTTI Type Descriptor'
	DD	00H
	DB	'.?AVexception@std@@', 00H
data$r	ENDS
;	COMDAT __CT??_R0?AVbad_alloc@std@@@8??0bad_alloc@std@@QAE@ABV01@@Z12
xdata$x	SEGMENT
__CT??_R0?AVbad_alloc@std@@@8??0bad_alloc@std@@QAE@ABV01@@Z12 DD 010H
	DD	FLAT:??_R0?AVbad_alloc@std@@@8
	DD	00H
	DD	0ffffffffH
	ORG $+4
	DD	0cH
	DD	FLAT:??0bad_alloc@std@@QAE@ABV01@@Z
xdata$x	ENDS
;	COMDAT ??_R0?AVbad_alloc@std@@@8
data$r	SEGMENT
??_R0?AVbad_alloc@std@@@8 DD FLAT:??_7type_info@@6B@	; std::bad_alloc `RTTI Type Descriptor'
	DD	00H
	DB	'.?AVbad_alloc@std@@', 00H
data$r	ENDS
;	COMDAT __CT??_R0?AVbad_array_new_length@std@@@8??0bad_array_new_length@std@@QAE@ABV01@@Z12
xdata$x	SEGMENT
__CT??_R0?AVbad_array_new_length@std@@@8??0bad_array_new_length@std@@QAE@ABV01@@Z12 DD 00H
	DD	FLAT:??_R0?AVbad_array_new_length@std@@@8
	DD	00H
	DD	0ffffffffH
	ORG $+4
	DD	0cH
	DD	FLAT:??0bad_array_new_length@std@@QAE@ABV01@@Z
xdata$x	ENDS
;	COMDAT ??_R0?AVbad_array_new_length@std@@@8
data$r	SEGMENT
??_R0?AVbad_array_new_length@std@@@8 DD FLAT:??_7type_info@@6B@ ; std::bad_array_new_length `RTTI Type Descriptor'
	DD	00H
	DB	'.?AVbad_array_new_length@std@@', 00H
data$r	ENDS
;	COMDAT __CTA3?AVbad_array_new_length@std@@
xdata$x	SEGMENT
__CTA3?AVbad_array_new_length@std@@ DD 03H
	DD	FLAT:__CT??_R0?AVbad_array_new_length@std@@@8??0bad_array_new_length@std@@QAE@ABV01@@Z12
	DD	FLAT:__CT??_R0?AVbad_alloc@std@@@8??0bad_alloc@std@@QAE@ABV01@@Z12
	DD	FLAT:__CT??_R0?AVexception@std@@@8??0exception@std@@QAE@ABV01@@Z12
xdata$x	ENDS
;	COMDAT __TI3?AVbad_array_new_length@std@@
xdata$x	SEGMENT
__TI3?AVbad_array_new_length@std@@ DD 00H
	DD	FLAT:??1bad_array_new_length@std@@UAE@XZ
	DD	00H
	DD	FLAT:__CTA3?AVbad_array_new_length@std@@
xdata$x	ENDS
;	COMDAT ??_C@_0BF@KINCDENJ@bad?5array?5new?5length@
CONST	SEGMENT
??_C@_0BF@KINCDENJ@bad?5array?5new?5length@ DB 'bad array new length', 00H ; `string'
CONST	ENDS
;	COMDAT ??_7bad_array_new_length@std@@6B@
CONST	SEGMENT
??_7bad_array_new_length@std@@6B@ DD FLAT:??_R4bad_array_new_length@std@@6B@ ; std::bad_array_new_length::`vftable'
	DD	FLAT:??_Ebad_array_new_length@std@@UAEPAXI@Z
	DD	FLAT:?what@exception@std@@UBEPBDXZ
CONST	ENDS
;	COMDAT ??_7bad_alloc@std@@6B@
CONST	SEGMENT
??_7bad_alloc@std@@6B@ DD FLAT:??_R4bad_alloc@std@@6B@	; std::bad_alloc::`vftable'
	DD	FLAT:??_Ebad_alloc@std@@UAEPAXI@Z
	DD	FLAT:?what@exception@std@@UBEPBDXZ
CONST	ENDS
;	COMDAT ??_C@_0BC@EOODALEL@Unknown?5exception@
CONST	SEGMENT
??_C@_0BC@EOODALEL@Unknown?5exception@ DB 'Unknown exception', 00H ; `string'
CONST	ENDS
;	COMDAT ??_7exception@std@@6B@
CONST	SEGMENT
??_7exception@std@@6B@ DD FLAT:??_R4exception@std@@6B@	; std::exception::`vftable'
	DD	FLAT:??_Eexception@std@@UAEPAXI@Z
	DD	FLAT:?what@exception@std@@UBEPBDXZ
CONST	ENDS
;	COMDAT xdata$x
xdata$x	SEGMENT
__unwindtable$??$?0U?$pair@QAVCResource@@K@std@@@?$_Tree_temp_node@V?$allocator@U?$_Tree_node@U?$pair@QAVCResource@@K@std@@PAX@std@@@std@@@std@@QAE@AAV?$allocator@U?$_Tree_node@U?$pair@QAVCResource@@K@std@@PAX@std@@@1@PAU?$_Tree_node@U?$pair@QAVCResource@@K@std@@PAX@1@$$QAU?$pair@QAVCResource@@K@1@@Z DD 0ffffffffH
	DD	FLAT:__unwindfunclet$??$?0U?$pair@QAVCResource@@K@std@@@?$_Tree_temp_node@V?$allocator@U?$_Tree_node@U?$pair@QAVCResource@@K@std@@PAX@std@@@std@@@std@@QAE@AAV?$allocator@U?$_Tree_node@U?$pair@QAVCResource@@K@std@@PAX@std@@@1@PAU?$_Tree_node@U?$pair@QAVCResource@@K@std@@PAX@1@$$QAU?$pair@QAVCResource@@K@1@@Z$1
__ehfuncinfo$??$?0U?$pair@QAVCResource@@K@std@@@?$_Tree_temp_node@V?$allocator@U?$_Tree_node@U?$pair@QAVCResource@@K@std@@PAX@std@@@std@@@std@@QAE@AAV?$allocator@U?$_Tree_node@U?$pair@QAVCResource@@K@std@@PAX@std@@@1@PAU?$_Tree_node@U?$pair@QAVCResource@@K@std@@PAX@1@$$QAU?$pair@QAVCResource@@K@1@@Z DD 019930522H
	DD	01H
	DD	FLAT:__unwindtable$??$?0U?$pair@QAVCResource@@K@std@@@?$_Tree_temp_node@V?$allocator@U?$_Tree_node@U?$pair@QAVCResource@@K@std@@PAX@std@@@std@@@std@@QAE@AAV?$allocator@U?$_Tree_node@U?$pair@QAVCResource@@K@std@@PAX@std@@@1@PAU?$_Tree_node@U?$pair@QAVCResource@@K@std@@PAX@1@$$QAU?$pair@QAVCResource@@K@1@@Z
	DD	2 DUP(00H)
	DD	2 DUP(00H)
	DD	00H
	DD	01H
xdata$x	ENDS
;	COMDAT xdata$x
xdata$x	SEGMENT
__unwindtable$??0?$_Tree_temp_node_alloc@V?$allocator@U?$_Tree_node@U?$pair@QAVCResource@@K@std@@PAX@std@@@std@@@std@@QAE@AAV?$allocator@U?$_Tree_node@U?$pair@QAVCResource@@K@std@@PAX@std@@@1@@Z DD 0ffffffffH
	DD	FLAT:__unwindfunclet$??0?$_Tree_temp_node_alloc@V?$allocator@U?$_Tree_node@U?$pair@QAVCResource@@K@std@@PAX@std@@@std@@@std@@QAE@AAV?$allocator@U?$_Tree_node@U?$pair@QAVCResource@@K@std@@PAX@std@@@1@@Z$0
__ehfuncinfo$??0?$_Tree_temp_node_alloc@V?$allocator@U?$_Tree_node@U?$pair@QAVCResource@@K@std@@PAX@std@@@std@@@std@@QAE@AAV?$allocator@U?$_Tree_node@U?$pair@QAVCResource@@K@std@@PAX@std@@@1@@Z DD 019930522H
	DD	01H
	DD	FLAT:__unwindtable$??0?$_Tree_temp_node_alloc@V?$allocator@U?$_Tree_node@U?$pair@QAVCResource@@K@std@@PAX@std@@@std@@@std@@QAE@AAV?$allocator@U?$_Tree_node@U?$pair@QAVCResource@@K@std@@PAX@std@@@1@@Z
	DD	2 DUP(00H)
	DD	2 DUP(00H)
	DD	00H
	DD	01H
xdata$x	ENDS
;	COMDAT xdata$x
xdata$x	SEGMENT
__unwindtable$??$?0U?$pair@$$CBJPAVCResource@@@std@@@?$_Tree_temp_node@V?$allocator@U?$_Tree_node@U?$pair@$$CBJPAVCResource@@@std@@PAX@std@@@std@@@std@@QAE@AAV?$allocator@U?$_Tree_node@U?$pair@$$CBJPAVCResource@@@std@@PAX@std@@@1@PAU?$_Tree_node@U?$pair@$$CBJPAVCResource@@@std@@PAX@1@$$QAU?$pair@$$CBJPAVCResource@@@1@@Z DD 0ffffffffH
	DD	FLAT:__unwindfunclet$??$?0U?$pair@$$CBJPAVCResource@@@std@@@?$_Tree_temp_node@V?$allocator@U?$_Tree_node@U?$pair@$$CBJPAVCResource@@@std@@PAX@std@@@std@@@std@@QAE@AAV?$allocator@U?$_Tree_node@U?$pair@$$CBJPAVCResource@@@std@@PAX@std@@@1@PAU?$_Tree_node@U?$pair@$$CBJPAVCResource@@@std@@PAX@1@$$QAU?$pair@$$CBJPAVCResource@@@1@@Z$1
__ehfuncinfo$??$?0U?$pair@$$CBJPAVCResource@@@std@@@?$_Tree_temp_node@V?$allocator@U?$_Tree_node@U?$pair@$$CBJPAVCResource@@@std@@PAX@std@@@std@@@std@@QAE@AAV?$allocator@U?$_Tree_node@U?$pair@$$CBJPAVCResource@@@std@@PAX@std@@@1@PAU?$_Tree_node@U?$pair@$$CBJPAVCResource@@@std@@PAX@1@$$QAU?$pair@$$CBJPAVCResource@@@1@@Z DD 019930522H
	DD	01H
	DD	FLAT:__unwindtable$??$?0U?$pair@$$CBJPAVCResource@@@std@@@?$_Tree_temp_node@V?$allocator@U?$_Tree_node@U?$pair@$$CBJPAVCResource@@@std@@PAX@std@@@std@@@std@@QAE@AAV?$allocator@U?$_Tree_node@U?$pair@$$CBJPAVCResource@@@std@@PAX@std@@@1@PAU?$_Tree_node@U?$pair@$$CBJPAVCResource@@@std@@PAX@1@$$QAU?$pair@$$CBJPAVCResource@@@1@@Z
	DD	2 DUP(00H)
	DD	2 DUP(00H)
	DD	00H
	DD	01H
xdata$x	ENDS
;	COMDAT xdata$x
xdata$x	SEGMENT
__unwindtable$??0?$_Tree_temp_node_alloc@V?$allocator@U?$_Tree_node@U?$pair@$$CBJPAVCResource@@@std@@PAX@std@@@std@@@std@@QAE@AAV?$allocator@U?$_Tree_node@U?$pair@$$CBJPAVCResource@@@std@@PAX@std@@@1@@Z DD 0ffffffffH
	DD	FLAT:__unwindfunclet$??0?$_Tree_temp_node_alloc@V?$allocator@U?$_Tree_node@U?$pair@$$CBJPAVCResource@@@std@@PAX@std@@@std@@@std@@QAE@AAV?$allocator@U?$_Tree_node@U?$pair@$$CBJPAVCResource@@@std@@PAX@std@@@1@@Z$0
__ehfuncinfo$??0?$_Tree_temp_node_alloc@V?$allocator@U?$_Tree_node@U?$pair@$$CBJPAVCResource@@@std@@PAX@std@@@std@@@std@@QAE@AAV?$allocator@U?$_Tree_node@U?$pair@$$CBJPAVCResource@@@std@@PAX@std@@@1@@Z DD 019930522H
	DD	01H
	DD	FLAT:__unwindtable$??0?$_Tree_temp_node_alloc@V?$allocator@U?$_Tree_node@U?$pair@$$CBJPAVCResource@@@std@@PAX@std@@@std@@@std@@QAE@AAV?$allocator@U?$_Tree_node@U?$pair@$$CBJPAVCResource@@@std@@PAX@std@@@1@@Z
	DD	2 DUP(00H)
	DD	2 DUP(00H)
	DD	00H
	DD	01H
xdata$x	ENDS
;	COMDAT xdata$x
xdata$x	SEGMENT
__unwindtable$??$?0U?$pair@$$CBKV?$basic_string@DU?$char_traits@D@std@@V?$allocator@D@2@@std@@@std@@@?$_Tree_temp_node@V?$allocator@U?$_Tree_node@U?$pair@$$CBKV?$basic_string@DU?$char_traits@D@std@@V?$allocator@D@2@@std@@@std@@PAX@std@@@std@@@std@@QAE@AAV?$allocator@U?$_Tree_node@U?$pair@$$CBKV?$basic_string@DU?$char_traits@D@std@@V?$allocator@D@2@@std@@@std@@PAX@std@@@1@PAU?$_Tree_node@U?$pair@$$CBKV?$basic_string@DU?$char_traits@D@std@@V?$allocator@D@2@@std@@@std@@PAX@1@$$QAU?$pair@$$CBKV?$basic_string@DU?$char_traits@D@std@@V?$allocator@D@2@@std@@@1@@Z DD 0ffffffffH
	DD	FLAT:__unwindfunclet$??$?0U?$pair@$$CBKV?$basic_string@DU?$char_traits@D@std@@V?$allocator@D@2@@std@@@std@@@?$_Tree_temp_node@V?$allocator@U?$_Tree_node@U?$pair@$$CBKV?$basic_string@DU?$char_traits@D@std@@V?$allocator@D@2@@std@@@std@@PAX@std@@@std@@@std@@QAE@AAV?$allocator@U?$_Tree_node@U?$pair@$$CBKV?$basic_string@DU?$char_traits@D@std@@V?$allocator@D@2@@std@@@std@@PAX@std@@@1@PAU?$_Tree_node@U?$pair@$$CBKV?$basic_string@DU?$char_traits@D@std@@V?$allocator@D@2@@std@@@std@@PAX@1@$$QAU?$pair@$$CBKV?$basic_string@DU?$char_traits@D@std@@V?$allocator@D@2@@std@@@1@@Z$1
__ehfuncinfo$??$?0U?$pair@$$CBKV?$basic_string@DU?$char_traits@D@std@@V?$allocator@D@2@@std@@@std@@@?$_Tree_temp_node@V?$allocator@U?$_Tree_node@U?$pair@$$CBKV?$basic_string@DU?$char_traits@D@std@@V?$allocator@D@2@@std@@@std@@PAX@std@@@std@@@std@@QAE@AAV?$allocator@U?$_Tree_node@U?$pair@$$CBKV?$basic_string@DU?$char_traits@D@std@@V?$allocator@D@2@@std@@@std@@PAX@std@@@1@PAU?$_Tree_node@U?$pair@$$CBKV?$basic_string@DU?$char_traits@D@std@@V?$allocator@D@2@@std@@@std@@PAX@1@$$QAU?$pair@$$CBKV?$basic_string@DU?$char_traits@D@std@@V?$allocator@D@2@@std@@@1@@Z DD 019930522H
	DD	01H
	DD	FLAT:__unwindtable$??$?0U?$pair@$$CBKV?$basic_string@DU?$char_traits@D@std@@V?$allocator@D@2@@std@@@std@@@?$_Tree_temp_node@V?$allocator@U?$_Tree_node@U?$pair@$$CBKV?$basic_string@DU?$char_traits@D@std@@V?$allocator@D@2@@std@@@std@@PAX@std@@@std@@@std@@QAE@AAV?$allocator@U?$_Tree_node@U?$pair@$$CBKV?$basic_string@DU?$char_traits@D@std@@V?$allocator@D@2@@std@@@std@@PAX@std@@@1@PAU?$_Tree_node@U?$pair@$$CBKV?$basic_string@DU?$char_traits@D@std@@V?$allocator@D@2@@std@@@std@@PAX@1@$$QAU?$pair@$$CBKV?$basic_string@DU?$char_traits@D@std@@V?$allocator@D@2@@std@@@1@@Z
	DD	2 DUP(00H)
	DD	2 DUP(00H)
	DD	00H
	DD	01H
xdata$x	ENDS
;	COMDAT xdata$x
xdata$x	SEGMENT
__unwindtable$??0?$_Tree_temp_node_alloc@V?$allocator@U?$_Tree_node@U?$pair@$$CBKV?$basic_string@DU?$char_traits@D@std@@V?$allocator@D@2@@std@@@std@@PAX@std@@@std@@@std@@QAE@AAV?$allocator@U?$_Tree_node@U?$pair@$$CBKV?$basic_string@DU?$char_traits@D@std@@V?$allocator@D@2@@std@@@std@@PAX@std@@@1@@Z DD 0ffffffffH
	DD	FLAT:__unwindfunclet$??0?$_Tree_temp_node_alloc@V?$allocator@U?$_Tree_node@U?$pair@$$CBKV?$basic_string@DU?$char_traits@D@std@@V?$allocator@D@2@@std@@@std@@PAX@std@@@std@@@std@@QAE@AAV?$allocator@U?$_Tree_node@U?$pair@$$CBKV?$basic_string@DU?$char_traits@D@std@@V?$allocator@D@2@@std@@@std@@PAX@std@@@1@@Z$0
__ehfuncinfo$??0?$_Tree_temp_node_alloc@V?$allocator@U?$_Tree_node@U?$pair@$$CBKV?$basic_string@DU?$char_traits@D@std@@V?$allocator@D@2@@std@@@std@@PAX@std@@@std@@@std@@QAE@AAV?$allocator@U?$_Tree_node@U?$pair@$$CBKV?$basic_string@DU?$char_traits@D@std@@V?$allocator@D@2@@std@@@std@@PAX@std@@@1@@Z DD 019930522H
	DD	01H
	DD	FLAT:__unwindtable$??0?$_Tree_temp_node_alloc@V?$allocator@U?$_Tree_node@U?$pair@$$CBKV?$basic_string@DU?$char_traits@D@std@@V?$allocator@D@2@@std@@@std@@PAX@std@@@std@@@std@@QAE@AAV?$allocator@U?$_Tree_node@U?$pair@$$CBKV?$basic_string@DU?$char_traits@D@std@@V?$allocator@D@2@@std@@@std@@PAX@std@@@1@@Z
	DD	2 DUP(00H)
	DD	2 DUP(00H)
	DD	00H
	DD	01H
xdata$x	ENDS
;	COMDAT xdata$x
xdata$x	SEGMENT
__unwindtable$??$?0U?$pair@$$CBKPAVCResource@@@std@@@?$_Tree_temp_node@V?$allocator@U?$_Tree_node@U?$pair@$$CBKPAVCResource@@@std@@PAX@std@@@std@@@std@@QAE@AAV?$allocator@U?$_Tree_node@U?$pair@$$CBKPAVCResource@@@std@@PAX@std@@@1@PAU?$_Tree_node@U?$pair@$$CBKPAVCResource@@@std@@PAX@1@$$QAU?$pair@$$CBKPAVCResource@@@1@@Z DD 0ffffffffH
	DD	FLAT:__unwindfunclet$??$?0U?$pair@$$CBKPAVCResource@@@std@@@?$_Tree_temp_node@V?$allocator@U?$_Tree_node@U?$pair@$$CBKPAVCResource@@@std@@PAX@std@@@std@@@std@@QAE@AAV?$allocator@U?$_Tree_node@U?$pair@$$CBKPAVCResource@@@std@@PAX@std@@@1@PAU?$_Tree_node@U?$pair@$$CBKPAVCResource@@@std@@PAX@1@$$QAU?$pair@$$CBKPAVCResource@@@1@@Z$1
__ehfuncinfo$??$?0U?$pair@$$CBKPAVCResource@@@std@@@?$_Tree_temp_node@V?$allocator@U?$_Tree_node@U?$pair@$$CBKPAVCResource@@@std@@PAX@std@@@std@@@std@@QAE@AAV?$allocator@U?$_Tree_node@U?$pair@$$CBKPAVCResource@@@std@@PAX@std@@@1@PAU?$_Tree_node@U?$pair@$$CBKPAVCResource@@@std@@PAX@1@$$QAU?$pair@$$CBKPAVCResource@@@1@@Z DD 019930522H
	DD	01H
	DD	FLAT:__unwindtable$??$?0U?$pair@$$CBKPAVCResource@@@std@@@?$_Tree_temp_node@V?$allocator@U?$_Tree_node@U?$pair@$$CBKPAVCResource@@@std@@PAX@std@@@std@@@std@@QAE@AAV?$allocator@U?$_Tree_node@U?$pair@$$CBKPAVCResource@@@std@@PAX@std@@@1@PAU?$_Tree_node@U?$pair@$$CBKPAVCResource@@@std@@PAX@1@$$QAU?$pair@$$CBKPAVCResource@@@1@@Z
	DD	2 DUP(00H)
	DD	2 DUP(00H)
	DD	00H
	DD	01H
xdata$x	ENDS
;	COMDAT xdata$x
xdata$x	SEGMENT
__unwindtable$??0?$_Tree_temp_node_alloc@V?$allocator@U?$_Tree_node@U?$pair@$$CBKPAVCResource@@@std@@PAX@std@@@std@@@std@@QAE@AAV?$allocator@U?$_Tree_node@U?$pair@$$CBKPAVCResource@@@std@@PAX@std@@@1@@Z DD 0ffffffffH
	DD	FLAT:__unwindfunclet$??0?$_Tree_temp_node_alloc@V?$allocator@U?$_Tree_node@U?$pair@$$CBKPAVCResource@@@std@@PAX@std@@@std@@@std@@QAE@AAV?$allocator@U?$_Tree_node@U?$pair@$$CBKPAVCResource@@@std@@PAX@std@@@1@@Z$0
__ehfuncinfo$??0?$_Tree_temp_node_alloc@V?$allocator@U?$_Tree_node@U?$pair@$$CBKPAVCResource@@@std@@PAX@std@@@std@@@std@@QAE@AAV?$allocator@U?$_Tree_node@U?$pair@$$CBKPAVCResource@@@std@@PAX@std@@@1@@Z DD 019930522H
	DD	01H
	DD	FLAT:__unwindtable$??0?$_Tree_temp_node_alloc@V?$allocator@U?$_Tree_node@U?$pair@$$CBKPAVCResource@@@std@@PAX@std@@@std@@@std@@QAE@AAV?$allocator@U?$_Tree_node@U?$pair@$$CBKPAVCResource@@@std@@PAX@std@@@1@@Z
	DD	2 DUP(00H)
	DD	2 DUP(00H)
	DD	00H
	DD	01H
xdata$x	ENDS
;	COMDAT xdata$x
xdata$x	SEGMENT
__unwindtable$??$?0ABUpiecewise_construct_t@std@@V?$tuple@$$QAV?$basic_string@DU?$char_traits@D@std@@V?$allocator@D@2@@std@@@1@V?$tuple@$$V@1@@?$_Tree_temp_node@V?$allocator@U?$_Tree_node@U?$pair@$$CBV?$basic_string@DU?$char_traits@D@std@@V?$allocator@D@2@@std@@P6APAVCResource@@PBD@Z@std@@PAX@std@@@std@@@std@@QAE@AAV?$allocator@U?$_Tree_node@U?$pair@$$CBV?$basic_string@DU?$char_traits@D@std@@V?$allocator@D@2@@std@@P6APAVCResource@@PBD@Z@std@@PAX@std@@@1@PAU?$_Tree_node@U?$pair@$$CBV?$basic_string@DU?$char_traits@D@std@@V?$allocator@D@2@@std@@P6APAVCResource@@PBD@Z@std@@PAX@1@ABUpiecewise_construct_t@1@$$QAV?$tuple@$$QAV?$basic_string@DU?$char_traits@D@std@@V?$allocator@D@2@@std@@@1@$$QAV?$tuple@$$V@1@@Z DD 0ffffffffH
	DD	FLAT:__unwindfunclet$??$?0ABUpiecewise_construct_t@std@@V?$tuple@$$QAV?$basic_string@DU?$char_traits@D@std@@V?$allocator@D@2@@std@@@1@V?$tuple@$$V@1@@?$_Tree_temp_node@V?$allocator@U?$_Tree_node@U?$pair@$$CBV?$basic_string@DU?$char_traits@D@std@@V?$allocator@D@2@@std@@P6APAVCResource@@PBD@Z@std@@PAX@std@@@std@@@std@@QAE@AAV?$allocator@U?$_Tree_node@U?$pair@$$CBV?$basic_string@DU?$char_traits@D@std@@V?$allocator@D@2@@std@@P6APAVCResource@@PBD@Z@std@@PAX@std@@@1@PAU?$_Tree_node@U?$pair@$$CBV?$basic_string@DU?$char_traits@D@std@@V?$allocator@D@2@@std@@P6APAVCResource@@PBD@Z@std@@PAX@1@ABUpiecewise_construct_t@1@$$QAV?$tuple@$$QAV?$basic_string@DU?$char_traits@D@std@@V?$allocator@D@2@@std@@@1@$$QAV?$tuple@$$V@1@@Z$1
__ehfuncinfo$??$?0ABUpiecewise_construct_t@std@@V?$tuple@$$QAV?$basic_string@DU?$char_traits@D@std@@V?$allocator@D@2@@std@@@1@V?$tuple@$$V@1@@?$_Tree_temp_node@V?$allocator@U?$_Tree_node@U?$pair@$$CBV?$basic_string@DU?$char_traits@D@std@@V?$allocator@D@2@@std@@P6APAVCResource@@PBD@Z@std@@PAX@std@@@std@@@std@@QAE@AAV?$allocator@U?$_Tree_node@U?$pair@$$CBV?$basic_string@DU?$char_traits@D@std@@V?$allocator@D@2@@std@@P6APAVCResource@@PBD@Z@std@@PAX@std@@@1@PAU?$_Tree_node@U?$pair@$$CBV?$basic_string@DU?$char_traits@D@std@@V?$allocator@D@2@@std@@P6APAVCResource@@PBD@Z@std@@PAX@1@ABUpiecewise_construct_t@1@$$QAV?$tuple@$$QAV?$basic_string@DU?$char_traits@D@std@@V?$allocator@D@2@@std@@@1@$$QAV?$tuple@$$V@1@@Z DD 019930522H
	DD	01H
	DD	FLAT:__unwindtable$??$?0ABUpiecewise_construct_t@std@@V?$tuple@$$QAV?$basic_string@DU?$char_traits@D@std@@V?$allocator@D@2@@std@@@1@V?$tuple@$$V@1@@?$_Tree_temp_node@V?$allocator@U?$_Tree_node@U?$pair@$$CBV?$basic_string@DU?$char_traits@D@std@@V?$allocator@D@2@@std@@P6APAVCResource@@PBD@Z@std@@PAX@std@@@std@@@std@@QAE@AAV?$allocator@U?$_Tree_node@U?$pair@$$CBV?$basic_string@DU?$char_traits@D@std@@V?$allocator@D@2@@std@@P6APAVCResource@@PBD@Z@std@@PAX@std@@@1@PAU?$_Tree_node@U?$pair@$$CBV?$basic_string@DU?$char_traits@D@std@@V?$allocator@D@2@@std@@P6APAVCResource@@PBD@Z@std@@PAX@1@ABUpiecewise_construct_t@1@$$QAV?$tuple@$$QAV?$basic_string@DU?$char_traits@D@std@@V?$allocator@D@2@@std@@@1@$$QAV?$tuple@$$V@1@@Z
	DD	2 DUP(00H)
	DD	2 DUP(00H)
	DD	00H
	DD	01H
xdata$x	ENDS
;	COMDAT xdata$x
xdata$x	SEGMENT
__unwindtable$??0?$_Tree_temp_node_alloc@V?$allocator@U?$_Tree_node@U?$pair@$$CBV?$basic_string@DU?$char_traits@D@std@@V?$allocator@D@2@@std@@P6APAVCResource@@PBD@Z@std@@PAX@std@@@std@@@std@@QAE@AAV?$allocator@U?$_Tree_node@U?$pair@$$CBV?$basic_string@DU?$char_traits@D@std@@V?$allocator@D@2@@std@@P6APAVCResource@@PBD@Z@std@@PAX@std@@@1@@Z DD 0ffffffffH
	DD	FLAT:__unwindfunclet$??0?$_Tree_temp_node_alloc@V?$allocator@U?$_Tree_node@U?$pair@$$CBV?$basic_string@DU?$char_traits@D@std@@V?$allocator@D@2@@std@@P6APAVCResource@@PBD@Z@std@@PAX@std@@@std@@@std@@QAE@AAV?$allocator@U?$_Tree_node@U?$pair@$$CBV?$basic_string@DU?$char_traits@D@std@@V?$allocator@D@2@@std@@P6APAVCResource@@PBD@Z@std@@PAX@std@@@1@@Z$0
__ehfuncinfo$??0?$_Tree_temp_node_alloc@V?$allocator@U?$_Tree_node@U?$pair@$$CBV?$basic_string@DU?$char_traits@D@std@@V?$allocator@D@2@@std@@P6APAVCResource@@PBD@Z@std@@PAX@std@@@std@@@std@@QAE@AAV?$allocator@U?$_Tree_node@U?$pair@$$CBV?$basic_string@DU?$char_traits@D@std@@V?$allocator@D@2@@std@@P6APAVCResource@@PBD@Z@std@@PAX@std@@@1@@Z DD 019930522H
	DD	01H
	DD	FLAT:__unwindtable$??0?$_Tree_temp_node_alloc@V?$allocator@U?$_Tree_node@U?$pair@$$CBV?$basic_string@DU?$char_traits@D@std@@V?$allocator@D@2@@std@@P6APAVCResource@@PBD@Z@std@@PAX@std@@@std@@@std@@QAE@AAV?$allocator@U?$_Tree_node@U?$pair@$$CBV?$basic_string@DU?$char_traits@D@std@@V?$allocator@D@2@@std@@P6APAVCResource@@PBD@Z@std@@PAX@std@@@1@@Z
	DD	2 DUP(00H)
	DD	2 DUP(00H)
	DD	00H
	DD	01H
xdata$x	ENDS
;	COMDAT xdata$x
xdata$x	SEGMENT
__unwindtable$??$?0ABUpiecewise_construct_t@std@@V?$tuple@ABH@1@V?$tuple@$$V@1@@?$_Tree_temp_node@V?$allocator@U?$_Tree_node@U?$pair@$$CBHP6APAVCResource@@PBD@Z@std@@PAX@std@@@std@@@std@@QAE@AAV?$allocator@U?$_Tree_node@U?$pair@$$CBHP6APAVCResource@@PBD@Z@std@@PAX@std@@@1@PAU?$_Tree_node@U?$pair@$$CBHP6APAVCResource@@PBD@Z@std@@PAX@1@ABUpiecewise_construct_t@1@$$QAV?$tuple@ABH@1@$$QAV?$tuple@$$V@1@@Z DD 0ffffffffH
	DD	FLAT:__unwindfunclet$??$?0ABUpiecewise_construct_t@std@@V?$tuple@ABH@1@V?$tuple@$$V@1@@?$_Tree_temp_node@V?$allocator@U?$_Tree_node@U?$pair@$$CBHP6APAVCResource@@PBD@Z@std@@PAX@std@@@std@@@std@@QAE@AAV?$allocator@U?$_Tree_node@U?$pair@$$CBHP6APAVCResource@@PBD@Z@std@@PAX@std@@@1@PAU?$_Tree_node@U?$pair@$$CBHP6APAVCResource@@PBD@Z@std@@PAX@1@ABUpiecewise_construct_t@1@$$QAV?$tuple@ABH@1@$$QAV?$tuple@$$V@1@@Z$1
__ehfuncinfo$??$?0ABUpiecewise_construct_t@std@@V?$tuple@ABH@1@V?$tuple@$$V@1@@?$_Tree_temp_node@V?$allocator@U?$_Tree_node@U?$pair@$$CBHP6APAVCResource@@PBD@Z@std@@PAX@std@@@std@@@std@@QAE@AAV?$allocator@U?$_Tree_node@U?$pair@$$CBHP6APAVCResource@@PBD@Z@std@@PAX@std@@@1@PAU?$_Tree_node@U?$pair@$$CBHP6APAVCResource@@PBD@Z@std@@PAX@1@ABUpiecewise_construct_t@1@$$QAV?$tuple@ABH@1@$$QAV?$tuple@$$V@1@@Z DD 019930522H
	DD	01H
	DD	FLAT:__unwindtable$??$?0ABUpiecewise_construct_t@std@@V?$tuple@ABH@1@V?$tuple@$$V@1@@?$_Tree_temp_node@V?$allocator@U?$_Tree_node@U?$pair@$$CBHP6APAVCResource@@PBD@Z@std@@PAX@std@@@std@@@std@@QAE@AAV?$allocator@U?$_Tree_node@U?$pair@$$CBHP6APAVCResource@@PBD@Z@std@@PAX@std@@@1@PAU?$_Tree_node@U?$pair@$$CBHP6APAVCResource@@PBD@Z@std@@PAX@1@ABUpiecewise_construct_t@1@$$QAV?$tuple@ABH@1@$$QAV?$tuple@$$V@1@@Z
	DD	2 DUP(00H)
	DD	2 DUP(00H)
	DD	00H
	DD	01H
xdata$x	ENDS
;	COMDAT xdata$x
xdata$x	SEGMENT
__unwindtable$??0?$_Tree_temp_node_alloc@V?$allocator@U?$_Tree_node@U?$pair@$$CBHP6APAVCResource@@PBD@Z@std@@PAX@std@@@std@@@std@@QAE@AAV?$allocator@U?$_Tree_node@U?$pair@$$CBHP6APAVCResource@@PBD@Z@std@@PAX@std@@@1@@Z DD 0ffffffffH
	DD	FLAT:__unwindfunclet$??0?$_Tree_temp_node_alloc@V?$allocator@U?$_Tree_node@U?$pair@$$CBHP6APAVCResource@@PBD@Z@std@@PAX@std@@@std@@@std@@QAE@AAV?$allocator@U?$_Tree_node@U?$pair@$$CBHP6APAVCResource@@PBD@Z@std@@PAX@std@@@1@@Z$0
__ehfuncinfo$??0?$_Tree_temp_node_alloc@V?$allocator@U?$_Tree_node@U?$pair@$$CBHP6APAVCResource@@PBD@Z@std@@PAX@std@@@std@@@std@@QAE@AAV?$allocator@U?$_Tree_node@U?$pair@$$CBHP6APAVCResource@@PBD@Z@std@@PAX@std@@@1@@Z DD 019930522H
	DD	01H
	DD	FLAT:__unwindtable$??0?$_Tree_temp_node_alloc@V?$allocator@U?$_Tree_node@U?$pair@$$CBHP6APAVCResource@@PBD@Z@std@@PAX@std@@@std@@@std@@QAE@AAV?$allocator@U?$_Tree_node@U?$pair@$$CBHP6APAVCResource@@PBD@Z@std@@PAX@std@@@1@@Z
	DD	2 DUP(00H)
	DD	2 DUP(00H)
	DD	00H
	DD	01H
xdata$x	ENDS
;	COMDAT xdata$x
xdata$x	SEGMENT
__unwindtable$??$_Emplace@U?$pair@QAVCResource@@K@std@@@?$_Tree@V?$_Tmap_traits@PAVCResource@@KU?$less@PAVCResource@@@std@@V?$allocator@U?$pair@QAVCResource@@K@std@@@3@$0A@@std@@@std@@IAE?AU?$pair@PAU?$_Tree_node@U?$pair@QAVCResource@@K@std@@PAX@std@@_N@1@$$QAU?$pair@QAVCResource@@K@1@@Z DD 0ffffffffH
	DD	FLAT:__unwindfunclet$??$_Emplace@U?$pair@QAVCResource@@K@std@@@?$_Tree@V?$_Tmap_traits@PAVCResource@@KU?$less@PAVCResource@@@std@@V?$allocator@U?$pair@QAVCResource@@K@std@@@3@$0A@@std@@@std@@IAE?AU?$pair@PAU?$_Tree_node@U?$pair@QAVCResource@@K@std@@PAX@std@@_N@1@$$QAU?$pair@QAVCResource@@K@1@@Z$2
__ehfuncinfo$??$_Emplace@U?$pair@QAVCResource@@K@std@@@?$_Tree@V?$_Tmap_traits@PAVCResource@@KU?$less@PAVCResource@@@std@@V?$allocator@U?$pair@QAVCResource@@K@std@@@3@$0A@@std@@@std@@IAE?AU?$pair@PAU?$_Tree_node@U?$pair@QAVCResource@@K@std@@PAX@std@@_N@1@$$QAU?$pair@QAVCResource@@K@1@@Z DD 019930522H
	DD	01H
	DD	FLAT:__unwindtable$??$_Emplace@U?$pair@QAVCResource@@K@std@@@?$_Tree@V?$_Tmap_traits@PAVCResource@@KU?$less@PAVCResource@@@std@@V?$allocator@U?$pair@QAVCResource@@K@std@@@3@$0A@@std@@@std@@IAE?AU?$pair@PAU?$_Tree_node@U?$pair@QAVCResource@@K@std@@PAX@std@@_N@1@$$QAU?$pair@QAVCResource@@K@1@@Z
	DD	2 DUP(00H)
	DD	2 DUP(00H)
	DD	00H
	DD	01H
xdata$x	ENDS
;	COMDAT xdata$x
xdata$x	SEGMENT
__unwindtable$??$_Emplace@U?$pair@$$CBJPAVCResource@@@std@@@?$_Tree@V?$_Tmap_traits@JPAVCResource@@U?$less@J@std@@V?$allocator@U?$pair@$$CBJPAVCResource@@@std@@@3@$0A@@std@@@std@@IAE?AU?$pair@PAU?$_Tree_node@U?$pair@$$CBJPAVCResource@@@std@@PAX@std@@_N@1@$$QAU?$pair@$$CBJPAVCResource@@@1@@Z DD 0ffffffffH
	DD	FLAT:__unwindfunclet$??$_Emplace@U?$pair@$$CBJPAVCResource@@@std@@@?$_Tree@V?$_Tmap_traits@JPAVCResource@@U?$less@J@std@@V?$allocator@U?$pair@$$CBJPAVCResource@@@std@@@3@$0A@@std@@@std@@IAE?AU?$pair@PAU?$_Tree_node@U?$pair@$$CBJPAVCResource@@@std@@PAX@std@@_N@1@$$QAU?$pair@$$CBJPAVCResource@@@1@@Z$2
__ehfuncinfo$??$_Emplace@U?$pair@$$CBJPAVCResource@@@std@@@?$_Tree@V?$_Tmap_traits@JPAVCResource@@U?$less@J@std@@V?$allocator@U?$pair@$$CBJPAVCResource@@@std@@@3@$0A@@std@@@std@@IAE?AU?$pair@PAU?$_Tree_node@U?$pair@$$CBJPAVCResource@@@std@@PAX@std@@_N@1@$$QAU?$pair@$$CBJPAVCResource@@@1@@Z DD 019930522H
	DD	01H
	DD	FLAT:__unwindtable$??$_Emplace@U?$pair@$$CBJPAVCResource@@@std@@@?$_Tree@V?$_Tmap_traits@JPAVCResource@@U?$less@J@std@@V?$allocator@U?$pair@$$CBJPAVCResource@@@std@@@3@$0A@@std@@@std@@IAE?AU?$pair@PAU?$_Tree_node@U?$pair@$$CBJPAVCResource@@@std@@PAX@std@@_N@1@$$QAU?$pair@$$CBJPAVCResource@@@1@@Z
	DD	2 DUP(00H)
	DD	2 DUP(00H)
	DD	00H
	DD	01H
xdata$x	ENDS
;	COMDAT xdata$x
xdata$x	SEGMENT
__unwindtable$??$_Emplace@U?$pair@$$CBKV?$basic_string@DU?$char_traits@D@std@@V?$allocator@D@2@@std@@@std@@@?$_Tree@V?$_Tmap_traits@KV?$basic_string@DU?$char_traits@D@std@@V?$allocator@D@2@@std@@U?$less@K@2@V?$allocator@U?$pair@$$CBKV?$basic_string@DU?$char_traits@D@std@@V?$allocator@D@2@@std@@@std@@@2@$0A@@std@@@std@@IAE?AU?$pair@PAU?$_Tree_node@U?$pair@$$CBKV?$basic_string@DU?$char_traits@D@std@@V?$allocator@D@2@@std@@@std@@PAX@std@@_N@1@$$QAU?$pair@$$CBKV?$basic_string@DU?$char_traits@D@std@@V?$allocator@D@2@@std@@@1@@Z DD 0ffffffffH
	DD	FLAT:__unwindfunclet$??$_Emplace@U?$pair@$$CBKV?$basic_string@DU?$char_traits@D@std@@V?$allocator@D@2@@std@@@std@@@?$_Tree@V?$_Tmap_traits@KV?$basic_string@DU?$char_traits@D@std@@V?$allocator@D@2@@std@@U?$less@K@2@V?$allocator@U?$pair@$$CBKV?$basic_string@DU?$char_traits@D@std@@V?$allocator@D@2@@std@@@std@@@2@$0A@@std@@@std@@IAE?AU?$pair@PAU?$_Tree_node@U?$pair@$$CBKV?$basic_string@DU?$char_traits@D@std@@V?$allocator@D@2@@std@@@std@@PAX@std@@_N@1@$$QAU?$pair@$$CBKV?$basic_string@DU?$char_traits@D@std@@V?$allocator@D@2@@std@@@1@@Z$2
__ehfuncinfo$??$_Emplace@U?$pair@$$CBKV?$basic_string@DU?$char_traits@D@std@@V?$allocator@D@2@@std@@@std@@@?$_Tree@V?$_Tmap_traits@KV?$basic_string@DU?$char_traits@D@std@@V?$allocator@D@2@@std@@U?$less@K@2@V?$allocator@U?$pair@$$CBKV?$basic_string@DU?$char_traits@D@std@@V?$allocator@D@2@@std@@@std@@@2@$0A@@std@@@std@@IAE?AU?$pair@PAU?$_Tree_node@U?$pair@$$CBKV?$basic_string@DU?$char_traits@D@std@@V?$allocator@D@2@@std@@@std@@PAX@std@@_N@1@$$QAU?$pair@$$CBKV?$basic_string@DU?$char_traits@D@std@@V?$allocator@D@2@@std@@@1@@Z DD 019930522H
	DD	01H
	DD	FLAT:__unwindtable$??$_Emplace@U?$pair@$$CBKV?$basic_string@DU?$char_traits@D@std@@V?$allocator@D@2@@std@@@std@@@?$_Tree@V?$_Tmap_traits@KV?$basic_string@DU?$char_traits@D@std@@V?$allocator@D@2@@std@@U?$less@K@2@V?$allocator@U?$pair@$$CBKV?$basic_string@DU?$char_traits@D@std@@V?$allocator@D@2@@std@@@std@@@2@$0A@@std@@@std@@IAE?AU?$pair@PAU?$_Tree_node@U?$pair@$$CBKV?$basic_string@DU?$char_traits@D@std@@V?$allocator@D@2@@std@@@std@@PAX@std@@_N@1@$$QAU?$pair@$$CBKV?$basic_string@DU?$char_traits@D@std@@V?$allocator@D@2@@std@@@1@@Z
	DD	2 DUP(00H)
	DD	2 DUP(00H)
	DD	00H
	DD	01H
xdata$x	ENDS
;	COMDAT xdata$x
xdata$x	SEGMENT
__unwindtable$??$_Emplace@U?$pair@$$CBKPAVCResource@@@std@@@?$_Tree@V?$_Tmap_traits@KPAVCResource@@U?$less@K@std@@V?$allocator@U?$pair@$$CBKPAVCResource@@@std@@@3@$0A@@std@@@std@@IAE?AU?$pair@PAU?$_Tree_node@U?$pair@$$CBKPAVCResource@@@std@@PAX@std@@_N@1@$$QAU?$pair@$$CBKPAVCResource@@@1@@Z DD 0ffffffffH
	DD	FLAT:__unwindfunclet$??$_Emplace@U?$pair@$$CBKPAVCResource@@@std@@@?$_Tree@V?$_Tmap_traits@KPAVCResource@@U?$less@K@std@@V?$allocator@U?$pair@$$CBKPAVCResource@@@std@@@3@$0A@@std@@@std@@IAE?AU?$pair@PAU?$_Tree_node@U?$pair@$$CBKPAVCResource@@@std@@PAX@std@@_N@1@$$QAU?$pair@$$CBKPAVCResource@@@1@@Z$2
__ehfuncinfo$??$_Emplace@U?$pair@$$CBKPAVCResource@@@std@@@?$_Tree@V?$_Tmap_traits@KPAVCResource@@U?$less@K@std@@V?$allocator@U?$pair@$$CBKPAVCResource@@@std@@@3@$0A@@std@@@std@@IAE?AU?$pair@PAU?$_Tree_node@U?$pair@$$CBKPAVCResource@@@std@@PAX@std@@_N@1@$$QAU?$pair@$$CBKPAVCResource@@@1@@Z DD 019930522H
	DD	01H
	DD	FLAT:__unwindtable$??$_Emplace@U?$pair@$$CBKPAVCResource@@@std@@@?$_Tree@V?$_Tmap_traits@KPAVCResource@@U?$less@K@std@@V?$allocator@U?$pair@$$CBKPAVCResource@@@std@@@3@$0A@@std@@@std@@IAE?AU?$pair@PAU?$_Tree_node@U?$pair@$$CBKPAVCResource@@@std@@PAX@std@@_N@1@$$QAU?$pair@$$CBKPAVCResource@@@1@@Z
	DD	2 DUP(00H)
	DD	2 DUP(00H)
	DD	00H
	DD	01H
xdata$x	ENDS
;	COMDAT xdata$x
xdata$x	SEGMENT
__unwindtable$??$_Try_emplace@V?$basic_string@DU?$char_traits@D@std@@V?$allocator@D@2@@std@@$$V@?$map@V?$basic_string@DU?$char_traits@D@std@@V?$allocator@D@2@@std@@P6APAVCResource@@PBD@ZU?$less@V?$basic_string@DU?$char_traits@D@std@@V?$allocator@D@2@@std@@@2@V?$allocator@U?$pair@$$CBV?$basic_string@DU?$char_traits@D@std@@V?$allocator@D@2@@std@@P6APAVCResource@@PBD@Z@std@@@2@@std@@AAE?AU?$pair@PAU?$_Tree_node@U?$pair@$$CBV?$basic_string@DU?$char_traits@D@std@@V?$allocator@D@2@@std@@P6APAVCResource@@PBD@Z@std@@PAX@std@@_N@1@$$QAV?$basic_string@DU?$char_traits@D@std@@V?$allocator@D@2@@1@@Z DD 0ffffffffH
	DD	FLAT:__unwindfunclet$??$_Try_emplace@V?$basic_string@DU?$char_traits@D@std@@V?$allocator@D@2@@std@@$$V@?$map@V?$basic_string@DU?$char_traits@D@std@@V?$allocator@D@2@@std@@P6APAVCResource@@PBD@ZU?$less@V?$basic_string@DU?$char_traits@D@std@@V?$allocator@D@2@@std@@@2@V?$allocator@U?$pair@$$CBV?$basic_string@DU?$char_traits@D@std@@V?$allocator@D@2@@std@@P6APAVCResource@@PBD@Z@std@@@2@@std@@AAE?AU?$pair@PAU?$_Tree_node@U?$pair@$$CBV?$basic_string@DU?$char_traits@D@std@@V?$allocator@D@2@@std@@P6APAVCResource@@PBD@Z@std@@PAX@std@@_N@1@$$QAV?$basic_string@DU?$char_traits@D@std@@V?$allocator@D@2@@1@@Z$2
__ehfuncinfo$??$_Try_emplace@V?$basic_string@DU?$char_traits@D@std@@V?$allocator@D@2@@std@@$$V@?$map@V?$basic_string@DU?$char_traits@D@std@@V?$allocator@D@2@@std@@P6APAVCResource@@PBD@ZU?$less@V?$basic_string@DU?$char_traits@D@std@@V?$allocator@D@2@@std@@@2@V?$allocator@U?$pair@$$CBV?$basic_string@DU?$char_traits@D@std@@V?$allocator@D@2@@std@@P6APAVCResource@@PBD@Z@std@@@2@@std@@AAE?AU?$pair@PAU?$_Tree_node@U?$pair@$$CBV?$basic_string@DU?$char_traits@D@std@@V?$allocator@D@2@@std@@P6APAVCResource@@PBD@Z@std@@PAX@std@@_N@1@$$QAV?$basic_string@DU?$char_traits@D@std@@V?$allocator@D@2@@1@@Z DD 019930522H
	DD	01H
	DD	FLAT:__unwindtable$??$_Try_emplace@V?$basic_string@DU?$char_traits@D@std@@V?$allocator@D@2@@std@@$$V@?$map@V?$basic_string@DU?$char_traits@D@std@@V?$allocator@D@2@@std@@P6APAVCResource@@PBD@ZU?$less@V?$basic_string@DU?$char_traits@D@std@@V?$allocator@D@2@@std@@@2@V?$allocator@U?$pair@$$CBV?$basic_string@DU?$char_traits@D@std@@V?$allocator@D@2@@std@@P6APAVCResource@@PBD@Z@std@@@2@@std@@AAE?AU?$pair@PAU?$_Tree_node@U?$pair@$$CBV?$basic_string@DU?$char_traits@D@std@@V?$allocator@D@2@@std@@P6APAVCResource@@PBD@Z@std@@PAX@std@@_N@1@$$QAV?$basic_string@DU?$char_traits@D@std@@V?$allocator@D@2@@1@@Z
	DD	2 DUP(00H)
	DD	2 DUP(00H)
	DD	00H
	DD	01H
xdata$x	ENDS
;	COMDAT xdata$x
xdata$x	SEGMENT
__unwindtable$??$_Try_emplace@ABH$$V@?$map@HP6APAVCResource@@PBD@ZU?$less@H@std@@V?$allocator@U?$pair@$$CBHP6APAVCResource@@PBD@Z@std@@@3@@std@@AAE?AU?$pair@PAU?$_Tree_node@U?$pair@$$CBHP6APAVCResource@@PBD@Z@std@@PAX@std@@_N@1@ABH@Z DD 0ffffffffH
	DD	FLAT:__unwindfunclet$??$_Try_emplace@ABH$$V@?$map@HP6APAVCResource@@PBD@ZU?$less@H@std@@V?$allocator@U?$pair@$$CBHP6APAVCResource@@PBD@Z@std@@@3@@std@@AAE?AU?$pair@PAU?$_Tree_node@U?$pair@$$CBHP6APAVCResource@@PBD@Z@std@@PAX@std@@_N@1@ABH@Z$2
__ehfuncinfo$??$_Try_emplace@ABH$$V@?$map@HP6APAVCResource@@PBD@ZU?$less@H@std@@V?$allocator@U?$pair@$$CBHP6APAVCResource@@PBD@Z@std@@@3@@std@@AAE?AU?$pair@PAU?$_Tree_node@U?$pair@$$CBHP6APAVCResource@@PBD@Z@std@@PAX@std@@_N@1@ABH@Z DD 019930522H
	DD	01H
	DD	FLAT:__unwindtable$??$_Try_emplace@ABH$$V@?$map@HP6APAVCResource@@PBD@ZU?$less@H@std@@V?$allocator@U?$pair@$$CBHP6APAVCResource@@PBD@Z@std@@@3@@std@@AAE?AU?$pair@PAU?$_Tree_node@U?$pair@$$CBHP6APAVCResource@@PBD@Z@std@@PAX@std@@_N@1@ABH@Z
	DD	2 DUP(00H)
	DD	2 DUP(00H)
	DD	00H
	DD	01H
xdata$x	ENDS
;	COMDAT xdata$x
xdata$x	SEGMENT
__unwindtable$??$insert@$0A@$0A@@?$_Tree@V?$_Tmap_traits@PAVCResource@@KU?$less@PAVCResource@@@std@@V?$allocator@U?$pair@QAVCResource@@K@std@@@3@$0A@@std@@@std@@QAE?AU?$pair@V?$_Tree_iterator@V?$_Tree_val@U?$_Tree_simple_types@U?$pair@QAVCResource@@K@std@@@std@@@std@@@std@@_N@1@$$QAU?$pair@QAVCResource@@K@1@@Z DD 0ffffffffH
	DD	FLAT:__unwindfunclet$??$insert@$0A@$0A@@?$_Tree@V?$_Tmap_traits@PAVCResource@@KU?$less@PAVCResource@@@std@@V?$allocator@U?$pair@QAVCResource@@K@std@@@3@$0A@@std@@@std@@QAE?AU?$pair@V?$_Tree_iterator@V?$_Tree_val@U?$_Tree_simple_types@U?$pair@QAVCResource@@K@std@@@std@@@std@@@std@@_N@1@$$QAU?$pair@QAVCResource@@K@1@@Z$2
__ehfuncinfo$??$insert@$0A@$0A@@?$_Tree@V?$_Tmap_traits@PAVCResource@@KU?$less@PAVCResource@@@std@@V?$allocator@U?$pair@QAVCResource@@K@std@@@3@$0A@@std@@@std@@QAE?AU?$pair@V?$_Tree_iterator@V?$_Tree_val@U?$_Tree_simple_types@U?$pair@QAVCResource@@K@std@@@std@@@std@@@std@@_N@1@$$QAU?$pair@QAVCResource@@K@1@@Z DD 019930522H
	DD	01H
	DD	FLAT:__unwindtable$??$insert@$0A@$0A@@?$_Tree@V?$_Tmap_traits@PAVCResource@@KU?$less@PAVCResource@@@std@@V?$allocator@U?$pair@QAVCResource@@K@std@@@3@$0A@@std@@@std@@QAE?AU?$pair@V?$_Tree_iterator@V?$_Tree_val@U?$_Tree_simple_types@U?$pair@QAVCResource@@K@std@@@std@@@std@@@std@@_N@1@$$QAU?$pair@QAVCResource@@K@1@@Z
	DD	2 DUP(00H)
	DD	2 DUP(00H)
	DD	00H
	DD	01H
xdata$x	ENDS
;	COMDAT xdata$x
xdata$x	SEGMENT
__unwindtable$??$insert@$0A@$0A@@?$_Tree@V?$_Tmap_traits@JPAVCResource@@U?$less@J@std@@V?$allocator@U?$pair@$$CBJPAVCResource@@@std@@@3@$0A@@std@@@std@@QAE?AU?$pair@V?$_Tree_iterator@V?$_Tree_val@U?$_Tree_simple_types@U?$pair@$$CBJPAVCResource@@@std@@@std@@@std@@@std@@_N@1@$$QAU?$pair@$$CBJPAVCResource@@@1@@Z DD 0ffffffffH
	DD	FLAT:__unwindfunclet$??$insert@$0A@$0A@@?$_Tree@V?$_Tmap_traits@JPAVCResource@@U?$less@J@std@@V?$allocator@U?$pair@$$CBJPAVCResource@@@std@@@3@$0A@@std@@@std@@QAE?AU?$pair@V?$_Tree_iterator@V?$_Tree_val@U?$_Tree_simple_types@U?$pair@$$CBJPAVCResource@@@std@@@std@@@std@@@std@@_N@1@$$QAU?$pair@$$CBJPAVCResource@@@1@@Z$2
__ehfuncinfo$??$insert@$0A@$0A@@?$_Tree@V?$_Tmap_traits@JPAVCResource@@U?$less@J@std@@V?$allocator@U?$pair@$$CBJPAVCResource@@@std@@@3@$0A@@std@@@std@@QAE?AU?$pair@V?$_Tree_iterator@V?$_Tree_val@U?$_Tree_simple_types@U?$pair@$$CBJPAVCResource@@@std@@@std@@@std@@@std@@_N@1@$$QAU?$pair@$$CBJPAVCResource@@@1@@Z DD 019930522H
	DD	01H
	DD	FLAT:__unwindtable$??$insert@$0A@$0A@@?$_Tree@V?$_Tmap_traits@JPAVCResource@@U?$less@J@std@@V?$allocator@U?$pair@$$CBJPAVCResource@@@std@@@3@$0A@@std@@@std@@QAE?AU?$pair@V?$_Tree_iterator@V?$_Tree_val@U?$_Tree_simple_types@U?$pair@$$CBJPAVCResource@@@std@@@std@@@std@@@std@@_N@1@$$QAU?$pair@$$CBJPAVCResource@@@1@@Z
	DD	2 DUP(00H)
	DD	2 DUP(00H)
	DD	00H
	DD	01H
xdata$x	ENDS
;	COMDAT xdata$x
xdata$x	SEGMENT
__unwindtable$??$insert@$0A@$0A@@?$_Tree@V?$_Tmap_traits@KV?$basic_string@DU?$char_traits@D@std@@V?$allocator@D@2@@std@@U?$less@K@2@V?$allocator@U?$pair@$$CBKV?$basic_string@DU?$char_traits@D@std@@V?$allocator@D@2@@std@@@std@@@2@$0A@@std@@@std@@QAE?AU?$pair@V?$_Tree_iterator@V?$_Tree_val@U?$_Tree_simple_types@U?$pair@$$CBKV?$basic_string@DU?$char_traits@D@std@@V?$allocator@D@2@@std@@@std@@@std@@@std@@@std@@_N@1@$$QAU?$pair@$$CBKV?$basic_string@DU?$char_traits@D@std@@V?$allocator@D@2@@std@@@1@@Z DD 0ffffffffH
	DD	FLAT:__unwindfunclet$??$insert@$0A@$0A@@?$_Tree@V?$_Tmap_traits@KV?$basic_string@DU?$char_traits@D@std@@V?$allocator@D@2@@std@@U?$less@K@2@V?$allocator@U?$pair@$$CBKV?$basic_string@DU?$char_traits@D@std@@V?$allocator@D@2@@std@@@std@@@2@$0A@@std@@@std@@QAE?AU?$pair@V?$_Tree_iterator@V?$_Tree_val@U?$_Tree_simple_types@U?$pair@$$CBKV?$basic_string@DU?$char_traits@D@std@@V?$allocator@D@2@@std@@@std@@@std@@@std@@@std@@_N@1@$$QAU?$pair@$$CBKV?$basic_string@DU?$char_traits@D@std@@V?$allocator@D@2@@std@@@1@@Z$2
__ehfuncinfo$??$insert@$0A@$0A@@?$_Tree@V?$_Tmap_traits@KV?$basic_string@DU?$char_traits@D@std@@V?$allocator@D@2@@std@@U?$less@K@2@V?$allocator@U?$pair@$$CBKV?$basic_string@DU?$char_traits@D@std@@V?$allocator@D@2@@std@@@std@@@2@$0A@@std@@@std@@QAE?AU?$pair@V?$_Tree_iterator@V?$_Tree_val@U?$_Tree_simple_types@U?$pair@$$CBKV?$basic_string@DU?$char_traits@D@std@@V?$allocator@D@2@@std@@@std@@@std@@@std@@@std@@_N@1@$$QAU?$pair@$$CBKV?$basic_string@DU?$char_traits@D@std@@V?$allocator@D@2@@std@@@1@@Z DD 019930522H
	DD	01H
	DD	FLAT:__unwindtable$??$insert@$0A@$0A@@?$_Tree@V?$_Tmap_traits@KV?$basic_string@DU?$char_traits@D@std@@V?$allocator@D@2@@std@@U?$less@K@2@V?$allocator@U?$pair@$$CBKV?$basic_string@DU?$char_traits@D@std@@V?$allocator@D@2@@std@@@std@@@2@$0A@@std@@@std@@QAE?AU?$pair@V?$_Tree_iterator@V?$_Tree_val@U?$_Tree_simple_types@U?$pair@$$CBKV?$basic_string@DU?$char_traits@D@std@@V?$allocator@D@2@@std@@@std@@@std@@@std@@@std@@_N@1@$$QAU?$pair@$$CBKV?$basic_string@DU?$char_traits@D@std@@V?$allocator@D@2@@std@@@1@@Z
	DD	2 DUP(00H)
	DD	2 DUP(00H)
	DD	00H
	DD	01H
xdata$x	ENDS
;	COMDAT xdata$x
xdata$x	SEGMENT
__unwindtable$??$insert@$0A@$0A@@?$_Tree@V?$_Tmap_traits@KPAVCResource@@U?$less@K@std@@V?$allocator@U?$pair@$$CBKPAVCResource@@@std@@@3@$0A@@std@@@std@@QAE?AU?$pair@V?$_Tree_iterator@V?$_Tree_val@U?$_Tree_simple_types@U?$pair@$$CBKPAVCResource@@@std@@@std@@@std@@@std@@_N@1@$$QAU?$pair@$$CBKPAVCResource@@@1@@Z DD 0ffffffffH
	DD	FLAT:__unwindfunclet$??$insert@$0A@$0A@@?$_Tree@V?$_Tmap_traits@KPAVCResource@@U?$less@K@std@@V?$allocator@U?$pair@$$CBKPAVCResource@@@std@@@3@$0A@@std@@@std@@QAE?AU?$pair@V?$_Tree_iterator@V?$_Tree_val@U?$_Tree_simple_types@U?$pair@$$CBKPAVCResource@@@std@@@std@@@std@@@std@@_N@1@$$QAU?$pair@$$CBKPAVCResource@@@1@@Z$2
__ehfuncinfo$??$insert@$0A@$0A@@?$_Tree@V?$_Tmap_traits@KPAVCResource@@U?$less@K@std@@V?$allocator@U?$pair@$$CBKPAVCResource@@@std@@@3@$0A@@std@@@std@@QAE?AU?$pair@V?$_Tree_iterator@V?$_Tree_val@U?$_Tree_simple_types@U?$pair@$$CBKPAVCResource@@@std@@@std@@@std@@@std@@_N@1@$$QAU?$pair@$$CBKPAVCResource@@@1@@Z DD 019930522H
	DD	01H
	DD	FLAT:__unwindtable$??$insert@$0A@$0A@@?$_Tree@V?$_Tmap_traits@KPAVCResource@@U?$less@K@std@@V?$allocator@U?$pair@$$CBKPAVCResource@@@std@@@3@$0A@@std@@@std@@QAE?AU?$pair@V?$_Tree_iterator@V?$_Tree_val@U?$_Tree_simple_types@U?$pair@$$CBKPAVCResource@@@std@@@std@@@std@@@std@@_N@1@$$QAU?$pair@$$CBKPAVCResource@@@1@@Z
	DD	2 DUP(00H)
	DD	2 DUP(00H)
	DD	00H
	DD	01H
xdata$x	ENDS
;	COMDAT xdata$x
xdata$x	SEGMENT
__unwindtable$??A?$map@HP6APAVCResource@@PBD@ZU?$less@H@std@@V?$allocator@U?$pair@$$CBHP6APAVCResource@@PBD@Z@std@@@3@@std@@QAEAAP6APAVCResource@@PBD@ZABH@Z DD 0ffffffffH
	DD	FLAT:__unwindfunclet$??A?$map@HP6APAVCResource@@PBD@ZU?$less@H@std@@V?$allocator@U?$pair@$$CBHP6APAVCResource@@PBD@Z@std@@@3@@std@@QAEAAP6APAVCResource@@PBD@ZABH@Z$2
__ehfuncinfo$??A?$map@HP6APAVCResource@@PBD@ZU?$less@H@std@@V?$allocator@U?$pair@$$CBHP6APAVCResource@@PBD@Z@std@@@3@@std@@QAEAAP6APAVCResource@@PBD@ZABH@Z DD 019930522H
	DD	01H
	DD	FLAT:__unwindtable$??A?$map@HP6APAVCResource@@PBD@ZU?$less@H@std@@V?$allocator@U?$pair@$$CBHP6APAVCResource@@PBD@Z@std@@@3@@std@@QAEAAP6APAVCResource@@PBD@ZABH@Z
	DD	2 DUP(00H)
	DD	2 DUP(00H)
	DD	00H
	DD	01H
xdata$x	ENDS
;	COMDAT xdata$x
xdata$x	SEGMENT
__unwindtable$??A?$map@V?$basic_string@DU?$char_traits@D@std@@V?$allocator@D@2@@std@@P6APAVCResource@@PBD@ZU?$less@V?$basic_string@DU?$char_traits@D@std@@V?$allocator@D@2@@std@@@2@V?$allocator@U?$pair@$$CBV?$basic_string@DU?$char_traits@D@std@@V?$allocator@D@2@@std@@P6APAVCResource@@PBD@Z@std@@@2@@std@@QAEAAP6APAVCResource@@PBD@Z$$QAV?$basic_string@DU?$char_traits@D@std@@V?$allocator@D@2@@1@@Z DD 0ffffffffH
	DD	FLAT:__unwindfunclet$??A?$map@V?$basic_string@DU?$char_traits@D@std@@V?$allocator@D@2@@std@@P6APAVCResource@@PBD@ZU?$less@V?$basic_string@DU?$char_traits@D@std@@V?$allocator@D@2@@std@@@2@V?$allocator@U?$pair@$$CBV?$basic_string@DU?$char_traits@D@std@@V?$allocator@D@2@@std@@P6APAVCResource@@PBD@Z@std@@@2@@std@@QAEAAP6APAVCResource@@PBD@Z$$QAV?$basic_string@DU?$char_traits@D@std@@V?$allocator@D@2@@1@@Z$2
__ehfuncinfo$??A?$map@V?$basic_string@DU?$char_traits@D@std@@V?$allocator@D@2@@std@@P6APAVCResource@@PBD@ZU?$less@V?$basic_string@DU?$char_traits@D@std@@V?$allocator@D@2@@std@@@2@V?$allocator@U?$pair@$$CBV?$basic_string@DU?$char_traits@D@std@@V?$allocator@D@2@@std@@P6APAVCResource@@PBD@Z@std@@@2@@std@@QAEAAP6APAVCResource@@PBD@Z$$QAV?$basic_string@DU?$char_traits@D@std@@V?$allocator@D@2@@1@@Z DD 019930522H
	DD	01H
	DD	FLAT:__unwindtable$??A?$map@V?$basic_string@DU?$char_traits@D@std@@V?$allocator@D@2@@std@@P6APAVCResource@@PBD@ZU?$less@V?$basic_string@DU?$char_traits@D@std@@V?$allocator@D@2@@std@@@2@V?$allocator@U?$pair@$$CBV?$basic_string@DU?$char_traits@D@std@@V?$allocator@D@2@@std@@P6APAVCResource@@PBD@Z@std@@@2@@std@@QAEAAP6APAVCResource@@PBD@Z$$QAV?$basic_string@DU?$char_traits@D@std@@V?$allocator@D@2@@1@@Z
	DD	2 DUP(00H)
	DD	2 DUP(00H)
	DD	00H
	DD	01H
xdata$x	ENDS
;	COMDAT xdata$x
xdata$x	SEGMENT
__unwindtable$?PushBackgroundLoadingSet@CResourceManager@@QAEXAAV?$set@V?$basic_string@DU?$char_traits@D@std@@V?$allocator@D@2@@std@@U?$less@V?$basic_string@DU?$char_traits@D@std@@V?$allocator@D@2@@std@@@2@V?$allocator@V?$basic_string@DU?$char_traits@D@std@@V?$allocator@D@2@@std@@@2@@std@@@Z DD 0ffffffffH
	DD	FLAT:__unwindfunclet$?PushBackgroundLoadingSet@CResourceManager@@QAEXAAV?$set@V?$basic_string@DU?$char_traits@D@std@@V?$allocator@D@2@@std@@U?$less@V?$basic_string@DU?$char_traits@D@std@@V?$allocator@D@2@@std@@@2@V?$allocator@V?$basic_string@DU?$char_traits@D@std@@V?$allocator@D@2@@std@@@2@@std@@@Z$0
	DD	00H
	DD	FLAT:__unwindfunclet$?PushBackgroundLoadingSet@CResourceManager@@QAEXAAV?$set@V?$basic_string@DU?$char_traits@D@std@@V?$allocator@D@2@@std@@U?$less@V?$basic_string@DU?$char_traits@D@std@@V?$allocator@D@2@@std@@@2@V?$allocator@V?$basic_string@DU?$char_traits@D@std@@V?$allocator@D@2@@std@@@2@@std@@@Z$4
__ehfuncinfo$?PushBackgroundLoadingSet@CResourceManager@@QAEXAAV?$set@V?$basic_string@DU?$char_traits@D@std@@V?$allocator@D@2@@std@@U?$less@V?$basic_string@DU?$char_traits@D@std@@V?$allocator@D@2@@std@@@2@V?$allocator@V?$basic_string@DU?$char_traits@D@std@@V?$allocator@D@2@@std@@@2@@std@@@Z DD 019930522H
	DD	02H
	DD	FLAT:__unwindtable$?PushBackgroundLoadingSet@CResourceManager@@QAEXAAV?$set@V?$basic_string@DU?$char_traits@D@std@@V?$allocator@D@2@@std@@U?$less@V?$basic_string@DU?$char_traits@D@std@@V?$allocator@D@2@@std@@@2@V?$allocator@V?$basic_string@DU?$char_traits@D@std@@V?$allocator@D@2@@std@@@2@@std@@@Z
	DD	2 DUP(00H)
	DD	2 DUP(00H)
	DD	00H
	DD	01H
xdata$x	ENDS
;	COMDAT xdata$x
xdata$x	SEGMENT
__unwindtable$?ProcessBackgroundLoading@CResourceManager@@QAEXXZ DD 0ffffffffH
	DD	FLAT:__unwindfunclet$?ProcessBackgroundLoading@CResourceManager@@QAEXXZ$0
	DD	00H
	DD	FLAT:__unwindfunclet$?ProcessBackgroundLoading@CResourceManager@@QAEXXZ$6
	DD	0ffffffffH
	DD	FLAT:__unwindfunclet$?ProcessBackgroundLoading@CResourceManager@@QAEXXZ$19
__ehfuncinfo$?ProcessBackgroundLoading@CResourceManager@@QAEXXZ DD 019930522H
	DD	03H
	DD	FLAT:__unwindtable$?ProcessBackgroundLoading@CResourceManager@@QAEXXZ
	DD	2 DUP(00H)
	DD	2 DUP(00H)
	DD	00H
	DD	01H
xdata$x	ENDS
;	COMDAT xdata$x
xdata$x	SEGMENT
__unwindtable$?ReserveDeletingResource@CResourceManager@@QAEXPAVCResource@@@Z DD 0ffffffffH
	DD	FLAT:__unwindfunclet$?ReserveDeletingResource@CResourceManager@@QAEXPAVCResource@@@Z$2
__ehfuncinfo$?ReserveDeletingResource@CResourceManager@@QAEXPAVCResource@@@Z DD 019930522H
	DD	01H
	DD	FLAT:__unwindtable$?ReserveDeletingResource@CResourceManager@@QAEXPAVCResource@@@Z
	DD	2 DUP(00H)
	DD	2 DUP(00H)
	DD	00H
	DD	01H
xdata$x	ENDS
;	COMDAT xdata$x
xdata$x	SEGMENT
__unwindtable$?DumpFileListToTextFile@CResourceManager@@QAEXPBD@Z DD 0ffffffffH
	DD	FLAT:__unwindfunclet$?DumpFileListToTextFile@CResourceManager@@QAEXPBD@Z$0
__ehfuncinfo$?DumpFileListToTextFile@CResourceManager@@QAEXPBD@Z DD 019930522H
	DD	01H
	DD	FLAT:__unwindtable$?DumpFileListToTextFile@CResourceManager@@QAEXPBD@Z
	DD	2 DUP(00H)
	DD	2 DUP(00H)
	DD	00H
	DD	01H
xdata$x	ENDS
;	COMDAT xdata$x
xdata$x	SEGMENT
__unwindtable$?RegisterResourceNewFunctionByTypePointer@CResourceManager@@QAEXHP6APAVCResource@@PBD@Z@Z DD 0ffffffffH
	DD	FLAT:__unwindfunclet$?RegisterResourceNewFunctionByTypePointer@CResourceManager@@QAEXHP6APAVCResource@@PBD@Z@Z$2
__ehfuncinfo$?RegisterResourceNewFunctionByTypePointer@CResourceManager@@QAEXHP6APAVCResource@@PBD@Z@Z DD 019930522H
	DD	01H
	DD	FLAT:__unwindtable$?RegisterResourceNewFunctionByTypePointer@CResourceManager@@QAEXHP6APAVCResource@@PBD@Z@Z
	DD	2 DUP(00H)
	DD	2 DUP(00H)
	DD	00H
	DD	01H
xdata$x	ENDS
;	COMDAT xdata$x
xdata$x	SEGMENT
__unwindtable$?RegisterResourceNewFunctionPointer@CResourceManager@@QAEXPBDP6APAVCResource@@0@Z@Z DD 0ffffffffH
	DD	FLAT:__unwindfunclet$?RegisterResourceNewFunctionPointer@CResourceManager@@QAEXPBDP6APAVCResource@@0@Z@Z$0
	DD	00H
	DD	FLAT:__unwindfunclet$?RegisterResourceNewFunctionPointer@CResourceManager@@QAEXPBDP6APAVCResource@@0@Z@Z$3
__ehfuncinfo$?RegisterResourceNewFunctionPointer@CResourceManager@@QAEXPBDP6APAVCResource@@0@Z@Z DD 019930522H
	DD	02H
	DD	FLAT:__unwindtable$?RegisterResourceNewFunctionPointer@CResourceManager@@QAEXPBDP6APAVCResource@@0@Z@Z
	DD	2 DUP(00H)
	DD	2 DUP(00H)
	DD	00H
	DD	01H
xdata$x	ENDS
;	COMDAT xdata$x
xdata$x	SEGMENT
__ehfuncinfo$??1CResourceManager@@UAE@XZ DD 019930522H
	DD	00H
	DD	00H
	DD	2 DUP(00H)
	DD	2 DUP(00H)
	DD	00H
	DD	05H
xdata$x	ENDS
;	COMDAT xdata$x
xdata$x	SEGMENT
__ehfuncinfo$??0CResourceManager@@QAE@XZ DD 019930522H
	DD	08H
	DD	FLAT:__unwindtable$??0CResourceManager@@QAE@XZ
	DD	2 DUP(00H)
	DD	2 DUP(00H)
	DD	00H
	DD	01H
__unwindtable$??0CResourceManager@@QAE@XZ DD 0ffffffffH
	DD	FLAT:__unwindfunclet$??0CResourceManager@@QAE@XZ$0
	DD	00H
	DD	FLAT:__unwindfunclet$??0CResourceManager@@QAE@XZ$1
	DD	01H
	DD	FLAT:__unwindfunclet$??0CResourceManager@@QAE@XZ$2
	DD	02H
	DD	FLAT:__unwindfunclet$??0CResourceManager@@QAE@XZ$3
	DD	03H
	DD	FLAT:__unwindfunclet$??0CResourceManager@@QAE@XZ$4
	DD	04H
	DD	FLAT:__unwindfunclet$??0CResourceManager@@QAE@XZ$5
	DD	05H
	DD	FLAT:__unwindfunclet$??0CResourceManager@@QAE@XZ$6
	DD	06H
	DD	FLAT:__unwindfunclet$??0CResourceManager@@QAE@XZ$7
xdata$x	ENDS
; Function compile flags: /Ogtp
; File C:\Program Files (x86)\Microsoft Visual Studio\2019\Community\VC\Tools\MSVC\14.27.29110\include\tuple
; File C:\Program Files (x86)\Microsoft Visual Studio\2019\Community\VC\Tools\MSVC\14.27.29110\include\xstring
; File C:\Program Files (x86)\Microsoft Visual Studio\2019\Community\VC\Tools\MSVC\14.27.29110\include\tuple
;	COMDAT ??$?0V?$tuple@$$QAV?$basic_string@DU?$char_traits@D@std@@V?$allocator@D@2@@std@@@std@@V?$tuple@$$V@1@$0A@$$Z$S@?$pair@$$CBV?$basic_string@DU?$char_traits@D@std@@V?$allocator@D@2@@std@@P6APAVCResource@@PBD@Z@std@@QAE@AAV?$tuple@$$QAV?$basic_string@DU?$char_traits@D@std@@V?$allocator@D@2@@std@@@1@AAV?$tuple@$$V@1@U?$integer_sequence@I$0A@@1@U?$integer_sequence@I$S@1@@Z
_TEXT	SEGMENT
_this$ = -4						; size = 4
__Val1$ = 8						; size = 4
__Val2$ = 12						; size = 4
___formal$ = 16						; size = 1
___formal$ = 20						; size = 1
??$?0V?$tuple@$$QAV?$basic_string@DU?$char_traits@D@std@@V?$allocator@D@2@@std@@@std@@V?$tuple@$$V@1@$0A@$$Z$S@?$pair@$$CBV?$basic_string@DU?$char_traits@D@std@@V?$allocator@D@2@@std@@P6APAVCResource@@PBD@Z@std@@QAE@AAV?$tuple@$$QAV?$basic_string@DU?$char_traits@D@std@@V?$allocator@D@2@@std@@@1@AAV?$tuple@$$V@1@U?$integer_sequence@I$0A@@1@U?$integer_sequence@I$S@1@@Z PROC ; std::pair<std::basic_string<char,std::char_traits<char>,std::allocator<char> > const ,CResource * (__cdecl*)(char const *)>::pair<std::basic_string<char,std::char_traits<char>,std::allocator<char> > const ,CResource * (__cdecl*)(char const *)><std::tuple<std::basic_string<char,std::char_traits<char>,std::allocator<char> > &&>,std::tuple<>,0>, COMDAT
; _this$ = ecx

; 975  :     : first(_STD get<_Indexes1>(_STD move(_Val1))...), second(_STD get<_Indexes2>(_STD move(_Val2))...) {}

  00000	55		 push	 ebp
  00001	8b ec		 mov	 ebp, esp
  00003	51		 push	 ecx
  00004	8b 45 08	 mov	 eax, DWORD PTR __Val1$[ebp]
  00007	89 4d fc	 mov	 DWORD PTR _this$[ebp], ecx
  0000a	8b 00		 mov	 eax, DWORD PTR [eax]
; File C:\Program Files (x86)\Microsoft Visual Studio\2019\Community\VC\Tools\MSVC\14.27.29110\include\xstring

; 2124 :     _String_val() : _Bx(), _Mysize(0), _Myres(0) {}

  0000c	c7 41 10 00 00
	00 00		 mov	 DWORD PTR [ecx+16], 0
  00013	c7 41 14 00 00
	00 00		 mov	 DWORD PTR [ecx+20], 0

; 2606 :         _CSTD memcpy(_My_data_mem, _Right_data_mem, _Memcpy_val_size);

  0001a	0f 10 00	 movups	 xmm0, XMMWORD PTR [eax]
  0001d	0f 11 01	 movups	 XMMWORD PTR [ecx], xmm0
  00020	f3 0f 7e 40 10	 movq	 xmm0, QWORD PTR [eax+16]
  00025	66 0f d6 41 10	 movq	 QWORD PTR [ecx+16], xmm0

; 4293 :         _Mypair._Myval2._Mysize = 0;

  0002a	c7 40 10 00 00
	00 00		 mov	 DWORD PTR [eax+16], 0

; 4294 :         _Mypair._Myval2._Myres  = _BUF_SIZE - 1;

  00031	c7 40 14 0f 00
	00 00		 mov	 DWORD PTR [eax+20], 15	; 0000000fH

; 4295 :         // the _Traits::assign is last so the codegen doesn't think the char write can alias this
; 4296 :         _Traits::assign(_Mypair._Myval2._Bx._Buf[0], _Elem());

  00038	c6 00 00	 mov	 BYTE PTR [eax], 0
; File C:\Program Files (x86)\Microsoft Visual Studio\2019\Community\VC\Tools\MSVC\14.27.29110\include\tuple

; 975  :     : first(_STD get<_Indexes1>(_STD move(_Val1))...), second(_STD get<_Indexes2>(_STD move(_Val2))...) {}

  0003b	8b c1		 mov	 eax, ecx
  0003d	c7 41 18 00 00
	00 00		 mov	 DWORD PTR [ecx+24], 0
  00044	8b e5		 mov	 esp, ebp
  00046	5d		 pop	 ebp
  00047	c2 10 00	 ret	 16			; 00000010H
??$?0V?$tuple@$$QAV?$basic_string@DU?$char_traits@D@std@@V?$allocator@D@2@@std@@@std@@V?$tuple@$$V@1@$0A@$$Z$S@?$pair@$$CBV?$basic_string@DU?$char_traits@D@std@@V?$allocator@D@2@@std@@P6APAVCResource@@PBD@Z@std@@QAE@AAV?$tuple@$$QAV?$basic_string@DU?$char_traits@D@std@@V?$allocator@D@2@@std@@@1@AAV?$tuple@$$V@1@U?$integer_sequence@I$0A@@1@U?$integer_sequence@I$S@1@@Z ENDP ; std::pair<std::basic_string<char,std::char_traits<char>,std::allocator<char> > const ,CResource * (__cdecl*)(char const *)>::pair<std::basic_string<char,std::char_traits<char>,std::allocator<char> > const ,CResource * (__cdecl*)(char const *)><std::tuple<std::basic_string<char,std::char_traits<char>,std::allocator<char> > &&>,std::tuple<>,0>
_TEXT	ENDS
; Function compile flags: /Ogtp
; File C:\Program Files (x86)\Microsoft Visual Studio\2019\Community\VC\Tools\MSVC\14.27.29110\include\tuple
;	COMDAT ??$?0V?$tuple@ABH@std@@V?$tuple@$$V@1@$0A@$$Z$S@?$pair@$$CBHP6APAVCResource@@PBD@Z@std@@QAE@AAV?$tuple@ABH@1@AAV?$tuple@$$V@1@U?$integer_sequence@I$0A@@1@U?$integer_sequence@I$S@1@@Z
_TEXT	SEGMENT
__Val1$ = 8						; size = 4
__Val2$ = 12						; size = 4
___formal$ = 16						; size = 1
___formal$ = 20						; size = 1
??$?0V?$tuple@ABH@std@@V?$tuple@$$V@1@$0A@$$Z$S@?$pair@$$CBHP6APAVCResource@@PBD@Z@std@@QAE@AAV?$tuple@ABH@1@AAV?$tuple@$$V@1@U?$integer_sequence@I$0A@@1@U?$integer_sequence@I$S@1@@Z PROC ; std::pair<int const ,CResource * (__cdecl*)(char const *)>::pair<int const ,CResource * (__cdecl*)(char const *)><std::tuple<int const &>,std::tuple<>,0>, COMDAT
; _this$ = ecx

; 975  :     : first(_STD get<_Indexes1>(_STD move(_Val1))...), second(_STD get<_Indexes2>(_STD move(_Val2))...) {}

  00000	55		 push	 ebp
  00001	8b ec		 mov	 ebp, esp
  00003	8b 45 08	 mov	 eax, DWORD PTR __Val1$[ebp]
  00006	8b 00		 mov	 eax, DWORD PTR [eax]
  00008	8b 00		 mov	 eax, DWORD PTR [eax]
  0000a	89 01		 mov	 DWORD PTR [ecx], eax
  0000c	8b c1		 mov	 eax, ecx
  0000e	c7 41 04 00 00
	00 00		 mov	 DWORD PTR [ecx+4], 0
  00015	5d		 pop	 ebp
  00016	c2 10 00	 ret	 16			; 00000010H
??$?0V?$tuple@ABH@std@@V?$tuple@$$V@1@$0A@$$Z$S@?$pair@$$CBHP6APAVCResource@@PBD@Z@std@@QAE@AAV?$tuple@ABH@1@AAV?$tuple@$$V@1@U?$integer_sequence@I$0A@@1@U?$integer_sequence@I$S@1@@Z ENDP ; std::pair<int const ,CResource * (__cdecl*)(char const *)>::pair<int const ,CResource * (__cdecl*)(char const *)><std::tuple<int const &>,std::tuple<>,0>
_TEXT	ENDS
; Function compile flags: /Ogtp
; File C:\Program Files (x86)\Microsoft Visual Studio\2019\Community\VC\Tools\MSVC\14.27.29110\include\algorithm
; File C:\Program Files (x86)\Microsoft Visual Studio\2019\Community\VC\Tools\MSVC\14.27.29110\include\utility
; File C:\Program Files (x86)\Microsoft Visual Studio\2019\Community\VC\Tools\MSVC\14.27.29110\include\algorithm
; File C:\Program Files (x86)\Microsoft Visual Studio\2019\Community\VC\Tools\MSVC\14.27.29110\include\utility
; File C:\Program Files (x86)\Microsoft Visual Studio\2019\Community\VC\Tools\MSVC\14.27.29110\include\algorithm
; File C:\Program Files (x86)\Microsoft Visual Studio\2019\Community\VC\Tools\MSVC\14.27.29110\include\utility
; File C:\Program Files (x86)\Microsoft Visual Studio\2019\Community\VC\Tools\MSVC\14.27.29110\include\algorithm
; File C:\Program Files (x86)\Microsoft Visual Studio\2019\Community\VC\Tools\MSVC\14.27.29110\include\utility
; File C:\Program Files (x86)\Microsoft Visual Studio\2019\Community\VC\Tools\MSVC\14.27.29110\include\algorithm
;	COMDAT ??$_Med3_unchecked@PAUSDumpData@@P6A_NABU1@0@Z@std@@YAXPAUSDumpData@@00P6A_NABU1@1@Z@Z
_TEXT	SEGMENT
__First$ = 8						; size = 4
__Mid$ = 12						; size = 4
__Last$ = 16						; size = 4
__Pred$ = 20						; size = 4
??$_Med3_unchecked@PAUSDumpData@@P6A_NABU1@0@Z@std@@YAXPAUSDumpData@@00P6A_NABU1@1@Z@Z PROC ; std::_Med3_unchecked<SDumpData *,bool (__cdecl*)(SDumpData const &,SDumpData const &)>, COMDAT

; 4003 : _CONSTEXPR20 void _Med3_unchecked(_RanIt _First, _RanIt _Mid, _RanIt _Last, _Pr _Pred) {

  00000	55		 push	 ebp
  00001	8b ec		 mov	 ebp, esp
  00003	53		 push	 ebx

; 4004 :     // sort median of three elements to middle
; 4005 :     if (_DEBUG_LT_PRED(_Pred, *_Mid, *_First)) {

  00004	8b 5d 14	 mov	 ebx, DWORD PTR __Pred$[ebp]
  00007	56		 push	 esi
  00008	8b 75 0c	 mov	 esi, DWORD PTR __Mid$[ebp]
  0000b	57		 push	 edi
  0000c	8b 7d 08	 mov	 edi, DWORD PTR __First$[ebp]
  0000f	57		 push	 edi
  00010	56		 push	 esi
  00011	ff d3		 call	 ebx
  00013	83 c4 08	 add	 esp, 8
  00016	84 c0		 test	 al, al
  00018	74 1c		 je	 SHORT $LN9@Med3_unche
; File C:\Program Files (x86)\Microsoft Visual Studio\2019\Community\VC\Tools\MSVC\14.27.29110\include\utility

; 107  :     _Left    = _STD move(_Right);

  0001a	f3 0f 7e 07	 movq	 xmm0, QWORD PTR [edi]
  0001e	f3 0f 7e 0e	 movq	 xmm1, QWORD PTR [esi]
  00022	8b 4e 08	 mov	 ecx, DWORD PTR [esi+8]
  00025	66 0f d6 06	 movq	 QWORD PTR [esi], xmm0
  00029	8b 47 08	 mov	 eax, DWORD PTR [edi+8]
  0002c	89 46 08	 mov	 DWORD PTR [esi+8], eax

; 108  :     _Right   = _STD move(_Tmp);

  0002f	66 0f d6 0f	 movq	 QWORD PTR [edi], xmm1
  00033	89 4f 08	 mov	 DWORD PTR [edi+8], ecx
$LN9@Med3_unche:
; File C:\Program Files (x86)\Microsoft Visual Studio\2019\Community\VC\Tools\MSVC\14.27.29110\include\algorithm

; 4009 :     if (_DEBUG_LT_PRED(_Pred, *_Last, *_Mid)) { // swap middle and last, then test first again

  00036	56		 push	 esi
  00037	ff 75 10	 push	 DWORD PTR __Last$[ebp]
  0003a	ff d3		 call	 ebx
  0003c	83 c4 08	 add	 esp, 8
  0003f	84 c0		 test	 al, al
  00041	74 46		 je	 SHORT $LN17@Med3_unche
; File C:\Program Files (x86)\Microsoft Visual Studio\2019\Community\VC\Tools\MSVC\14.27.29110\include\utility

; 106  :     _Ty _Tmp = _STD move(_Left);

  00043	8b 55 10	 mov	 edx, DWORD PTR __Last$[ebp]

; 107  :     _Left    = _STD move(_Right);

  00046	f3 0f 7e 06	 movq	 xmm0, QWORD PTR [esi]
; File C:\Program Files (x86)\Microsoft Visual Studio\2019\Community\VC\Tools\MSVC\14.27.29110\include\algorithm

; 4012 :         if (_DEBUG_LT_PRED(_Pred, *_Mid, *_First)) {

  0004a	57		 push	 edi
  0004b	56		 push	 esi
; File C:\Program Files (x86)\Microsoft Visual Studio\2019\Community\VC\Tools\MSVC\14.27.29110\include\utility

; 106  :     _Ty _Tmp = _STD move(_Left);

  0004c	f3 0f 7e 0a	 movq	 xmm1, QWORD PTR [edx]
  00050	8b 4a 08	 mov	 ecx, DWORD PTR [edx+8]

; 107  :     _Left    = _STD move(_Right);

  00053	66 0f d6 02	 movq	 QWORD PTR [edx], xmm0
  00057	8b 46 08	 mov	 eax, DWORD PTR [esi+8]
  0005a	89 42 08	 mov	 DWORD PTR [edx+8], eax

; 108  :     _Right   = _STD move(_Tmp);

  0005d	66 0f d6 0e	 movq	 QWORD PTR [esi], xmm1
  00061	89 4e 08	 mov	 DWORD PTR [esi+8], ecx
; File C:\Program Files (x86)\Microsoft Visual Studio\2019\Community\VC\Tools\MSVC\14.27.29110\include\algorithm

; 4012 :         if (_DEBUG_LT_PRED(_Pred, *_Mid, *_First)) {

  00064	ff d3		 call	 ebx
  00066	83 c4 08	 add	 esp, 8
  00069	84 c0		 test	 al, al
  0006b	74 1c		 je	 SHORT $LN17@Med3_unche
; File C:\Program Files (x86)\Microsoft Visual Studio\2019\Community\VC\Tools\MSVC\14.27.29110\include\utility

; 107  :     _Left    = _STD move(_Right);

  0006d	f3 0f 7e 07	 movq	 xmm0, QWORD PTR [edi]
  00071	f3 0f 7e 0e	 movq	 xmm1, QWORD PTR [esi]
  00075	8b 4e 08	 mov	 ecx, DWORD PTR [esi+8]
  00078	66 0f d6 06	 movq	 QWORD PTR [esi], xmm0
  0007c	8b 47 08	 mov	 eax, DWORD PTR [edi+8]
  0007f	89 46 08	 mov	 DWORD PTR [esi+8], eax

; 108  :     _Right   = _STD move(_Tmp);

  00082	66 0f d6 0f	 movq	 QWORD PTR [edi], xmm1
  00086	89 4f 08	 mov	 DWORD PTR [edi+8], ecx
$LN17@Med3_unche:
  00089	5f		 pop	 edi
; File C:\Program Files (x86)\Microsoft Visual Studio\2019\Community\VC\Tools\MSVC\14.27.29110\include\algorithm

; 4016 : }

  0008a	5e		 pop	 esi
  0008b	5b		 pop	 ebx
  0008c	5d		 pop	 ebp
  0008d	c3		 ret	 0
??$_Med3_unchecked@PAUSDumpData@@P6A_NABU1@0@Z@std@@YAXPAUSDumpData@@00P6A_NABU1@1@Z@Z ENDP ; std::_Med3_unchecked<SDumpData *,bool (__cdecl*)(SDumpData const &,SDumpData const &)>
_TEXT	ENDS
; Function compile flags: /Ogtp
; File C:\Program Files (x86)\Microsoft Visual Studio\2019\Community\VC\Tools\MSVC\14.27.29110\include\xutility
;	COMDAT ??$_Copy_backward_memmove@PAUSDumpData@@PAU1@@std@@YAPAUSDumpData@@PAU1@00@Z
_TEXT	SEGMENT
__First$ = 8						; size = 4
__Last$ = 12						; size = 4
__Dest$ = 16						; size = 4
??$_Copy_backward_memmove@PAUSDumpData@@PAU1@@std@@YAPAUSDumpData@@PAU1@00@Z PROC ; std::_Copy_backward_memmove<SDumpData *,SDumpData *>, COMDAT

; 4284 : _BidIt2 _Copy_backward_memmove(_BidIt1 _First, _BidIt1 _Last, _BidIt2 _Dest) {

  00000	55		 push	 ebp
  00001	8b ec		 mov	 ebp, esp

; 4285 :     // implement copy_backward-like function as memmove
; 4286 :     const char* const _First_ch = const_cast<const char*>(reinterpret_cast<const volatile char*>(_First));
; 4287 :     const char* const _Last_ch  = const_cast<const char*>(reinterpret_cast<const volatile char*>(_Last));
; 4288 :     char* const _Dest_ch        = const_cast<char*>(reinterpret_cast<volatile char*>(_Dest));
; 4289 :     const auto _Count           = static_cast<size_t>(_Last_ch - _First_ch);

  00003	8b 45 08	 mov	 eax, DWORD PTR __First$[ebp]
  00006	8b 4d 0c	 mov	 ecx, DWORD PTR __Last$[ebp]
  00009	2b c8		 sub	 ecx, eax

; 4290 :     return static_cast<_BidIt2>(_CSTD memmove(_Dest_ch - _Count, _First_ch, _Count));

  0000b	51		 push	 ecx
  0000c	50		 push	 eax
  0000d	8b 45 10	 mov	 eax, DWORD PTR __Dest$[ebp]
  00010	2b c1		 sub	 eax, ecx
  00012	50		 push	 eax
  00013	e8 00 00 00 00	 call	 _memmove
  00018	83 c4 0c	 add	 esp, 12			; 0000000cH

; 4291 : }

  0001b	5d		 pop	 ebp
  0001c	c3		 ret	 0
??$_Copy_backward_memmove@PAUSDumpData@@PAU1@@std@@YAPAUSDumpData@@PAU1@00@Z ENDP ; std::_Copy_backward_memmove<SDumpData *,SDumpData *>
_TEXT	ENDS
; Function compile flags: /Ogtp
; File C:\Program Files (x86)\Microsoft Visual Studio\2019\Community\VC\Tools\MSVC\14.27.29110\include\tuple
;	COMDAT ??$?0$$QAV?$basic_string@DU?$char_traits@D@std@@V?$allocator@D@2@@std@@$$Z$$V@?$pair@$$CBV?$basic_string@DU?$char_traits@D@std@@V?$allocator@D@2@@std@@P6APAVCResource@@PBD@Z@std@@QAE@Upiecewise_construct_t@1@V?$tuple@$$QAV?$basic_string@DU?$char_traits@D@std@@V?$allocator@D@2@@std@@@1@V?$tuple@$$V@1@@Z
_TEXT	SEGMENT
$T1 = -8						; size = 1
_this$ = -8						; size = 4
$T2 = -4						; size = 1
___formal$ = 8						; size = 1
__Val1$ = 12						; size = 4
__Val2$ = 16						; size = 1
??$?0$$QAV?$basic_string@DU?$char_traits@D@std@@V?$allocator@D@2@@std@@$$Z$$V@?$pair@$$CBV?$basic_string@DU?$char_traits@D@std@@V?$allocator@D@2@@std@@P6APAVCResource@@PBD@Z@std@@QAE@Upiecewise_construct_t@1@V?$tuple@$$QAV?$basic_string@DU?$char_traits@D@std@@V?$allocator@D@2@@std@@@1@V?$tuple@$$V@1@@Z PROC ; std::pair<std::basic_string<char,std::char_traits<char>,std::allocator<char> > const ,CResource * (__cdecl*)(char const *)>::pair<std::basic_string<char,std::char_traits<char>,std::allocator<char> > const ,CResource * (__cdecl*)(char const *)><std::basic_string<char,std::char_traits<char>,std::allocator<char> > &&>, COMDAT
; _this$ = ecx

; 981  :     : pair(_Val1, _Val2, index_sequence_for<_Types1...>{}, index_sequence_for<_Types2...>{}) {}

  00000	55		 push	 ebp
  00001	8b ec		 mov	 ebp, esp
  00003	83 ec 08	 sub	 esp, 8
  00006	56		 push	 esi
  00007	8b f1		 mov	 esi, ecx
  00009	8d 45 10	 lea	 eax, DWORD PTR __Val2$[ebp]
  0000c	89 75 f8	 mov	 DWORD PTR _this$[ebp], esi
  0000f	c6 45 fc 00	 mov	 BYTE PTR $T2[ebp], 0
  00013	ff 75 fc	 push	 DWORD PTR $T2[ebp]
  00016	c6 45 f8 00	 mov	 BYTE PTR $T1[ebp], 0
  0001a	ff 75 f8	 push	 DWORD PTR $T1[ebp]
  0001d	50		 push	 eax
  0001e	8d 45 0c	 lea	 eax, DWORD PTR __Val1$[ebp]
  00021	50		 push	 eax
  00022	e8 00 00 00 00	 call	 ??$?0V?$tuple@$$QAV?$basic_string@DU?$char_traits@D@std@@V?$allocator@D@2@@std@@@std@@V?$tuple@$$V@1@$0A@$$Z$S@?$pair@$$CBV?$basic_string@DU?$char_traits@D@std@@V?$allocator@D@2@@std@@P6APAVCResource@@PBD@Z@std@@QAE@AAV?$tuple@$$QAV?$basic_string@DU?$char_traits@D@std@@V?$allocator@D@2@@std@@@1@AAV?$tuple@$$V@1@U?$integer_sequence@I$0A@@1@U?$integer_sequence@I$S@1@@Z ; std::pair<std::basic_string<char,std::char_traits<char>,std::allocator<char> > const ,CResource * (__cdecl*)(char const *)>::pair<std::basic_string<char,std::char_traits<char>,std::allocator<char> > const ,CResource * (__cdecl*)(char const *)><std::tuple<std::basic_string<char,std::char_traits<char>,std::allocator<char> > &&>,std::tuple<>,0>
  00027	8b c6		 mov	 eax, esi
  00029	5e		 pop	 esi
  0002a	8b e5		 mov	 esp, ebp
  0002c	5d		 pop	 ebp
  0002d	c2 0c 00	 ret	 12			; 0000000cH
??$?0$$QAV?$basic_string@DU?$char_traits@D@std@@V?$allocator@D@2@@std@@$$Z$$V@?$pair@$$CBV?$basic_string@DU?$char_traits@D@std@@V?$allocator@D@2@@std@@P6APAVCResource@@PBD@Z@std@@QAE@Upiecewise_construct_t@1@V?$tuple@$$QAV?$basic_string@DU?$char_traits@D@std@@V?$allocator@D@2@@std@@@1@V?$tuple@$$V@1@@Z ENDP ; std::pair<std::basic_string<char,std::char_traits<char>,std::allocator<char> > const ,CResource * (__cdecl*)(char const *)>::pair<std::basic_string<char,std::char_traits<char>,std::allocator<char> > const ,CResource * (__cdecl*)(char const *)><std::basic_string<char,std::char_traits<char>,std::allocator<char> > &&>
_TEXT	ENDS
; Function compile flags: /Ogtp
; File C:\Program Files (x86)\Microsoft Visual Studio\2019\Community\VC\Tools\MSVC\14.27.29110\include\tuple
;	COMDAT ??$?0ABH$$Z$$V@?$pair@$$CBHP6APAVCResource@@PBD@Z@std@@QAE@Upiecewise_construct_t@1@V?$tuple@ABH@1@V?$tuple@$$V@1@@Z
_TEXT	SEGMENT
$T1 = -8						; size = 1
$T2 = -4						; size = 1
___formal$ = 8						; size = 1
__Val1$ = 12						; size = 4
__Val2$ = 16						; size = 1
??$?0ABH$$Z$$V@?$pair@$$CBHP6APAVCResource@@PBD@Z@std@@QAE@Upiecewise_construct_t@1@V?$tuple@ABH@1@V?$tuple@$$V@1@@Z PROC ; std::pair<int const ,CResource * (__cdecl*)(char const *)>::pair<int const ,CResource * (__cdecl*)(char const *)><int const &>, COMDAT
; _this$ = ecx

; 981  :     : pair(_Val1, _Val2, index_sequence_for<_Types1...>{}, index_sequence_for<_Types2...>{}) {}

  00000	55		 push	 ebp
  00001	8b ec		 mov	 ebp, esp
  00003	83 ec 08	 sub	 esp, 8
  00006	56		 push	 esi
  00007	c6 45 fc 00	 mov	 BYTE PTR $T2[ebp], 0
  0000b	8d 45 10	 lea	 eax, DWORD PTR __Val2$[ebp]
  0000e	ff 75 fc	 push	 DWORD PTR $T2[ebp]
  00011	c6 45 f8 00	 mov	 BYTE PTR $T1[ebp], 0
  00015	8b f1		 mov	 esi, ecx
  00017	ff 75 f8	 push	 DWORD PTR $T1[ebp]
  0001a	50		 push	 eax
  0001b	8d 45 0c	 lea	 eax, DWORD PTR __Val1$[ebp]
  0001e	50		 push	 eax
  0001f	e8 00 00 00 00	 call	 ??$?0V?$tuple@ABH@std@@V?$tuple@$$V@1@$0A@$$Z$S@?$pair@$$CBHP6APAVCResource@@PBD@Z@std@@QAE@AAV?$tuple@ABH@1@AAV?$tuple@$$V@1@U?$integer_sequence@I$0A@@1@U?$integer_sequence@I$S@1@@Z ; std::pair<int const ,CResource * (__cdecl*)(char const *)>::pair<int const ,CResource * (__cdecl*)(char const *)><std::tuple<int const &>,std::tuple<>,0>
  00024	8b c6		 mov	 eax, esi
  00026	5e		 pop	 esi
  00027	8b e5		 mov	 esp, ebp
  00029	5d		 pop	 ebp
  0002a	c2 0c 00	 ret	 12			; 0000000cH
??$?0ABH$$Z$$V@?$pair@$$CBHP6APAVCResource@@PBD@Z@std@@QAE@Upiecewise_construct_t@1@V?$tuple@ABH@1@V?$tuple@$$V@1@@Z ENDP ; std::pair<int const ,CResource * (__cdecl*)(char const *)>::pair<int const ,CResource * (__cdecl*)(char const *)><int const &>
_TEXT	ENDS
; Function compile flags: /Ogtp
; File C:\Program Files (x86)\Microsoft Visual Studio\2019\Community\VC\Tools\MSVC\14.27.29110\include\xmemory
;	COMDAT ??$_Construct_in_place@PAU?$_Tree_node@U?$pair@QAVCResource@@K@std@@PAX@std@@AAPAU12@@std@@YAXAAPAU?$_Tree_node@U?$pair@QAVCResource@@K@std@@PAX@0@0@Z
_TEXT	SEGMENT
__Obj$ = 8						; size = 4
_<_Args_0>$ = 12					; size = 4
??$_Construct_in_place@PAU?$_Tree_node@U?$pair@QAVCResource@@K@std@@PAX@std@@AAPAU12@@std@@YAXAAPAU?$_Tree_node@U?$pair@QAVCResource@@K@std@@PAX@0@0@Z PROC ; std::_Construct_in_place<std::_Tree_node<std::pair<CResource * const,unsigned long>,void *> *,std::_Tree_node<std::pair<CResource * const,unsigned long>,void *> * &>, COMDAT

; 228  : void _Construct_in_place(_Ty& _Obj, _Types&&... _Args) noexcept(is_nothrow_constructible_v<_Ty, _Types...>) {

  00000	55		 push	 ebp
  00001	8b ec		 mov	 ebp, esp

; 229  :     ::new (const_cast<void*>(static_cast<const volatile void*>(_STD addressof(_Obj))))

  00003	8b 45 0c	 mov	 eax, DWORD PTR _<_Args_0>$[ebp]
  00006	8b 08		 mov	 ecx, DWORD PTR [eax]
  00008	8b 45 08	 mov	 eax, DWORD PTR __Obj$[ebp]
  0000b	89 08		 mov	 DWORD PTR [eax], ecx

; 230  :         _Ty(_STD forward<_Types>(_Args)...);
; 231  : }

  0000d	5d		 pop	 ebp
  0000e	c3		 ret	 0
??$_Construct_in_place@PAU?$_Tree_node@U?$pair@QAVCResource@@K@std@@PAX@std@@AAPAU12@@std@@YAXAAPAU?$_Tree_node@U?$pair@QAVCResource@@K@std@@PAX@0@0@Z ENDP ; std::_Construct_in_place<std::_Tree_node<std::pair<CResource * const,unsigned long>,void *> *,std::_Tree_node<std::pair<CResource * const,unsigned long>,void *> * &>
_TEXT	ENDS
; Function compile flags: /Ogtp
; File C:\Program Files (x86)\Microsoft Visual Studio\2019\Community\VC\Tools\MSVC\14.27.29110\include\algorithm
;	COMDAT ??$_Pop_heap_hole_by_index@PAUSDumpData@@U1@P6A_NABU1@0@Z@std@@YAXPAUSDumpData@@HH$$QAU1@P6A_NABU1@2@Z@Z
_TEXT	SEGMENT
tv164 = -8						; size = 4
__Max_sequence_non_leaf$1$ = -4				; size = 4
__First$ = 8						; size = 4
__Top$1$ = 12						; size = 4
__Hole$ = 12						; size = 4
tv152 = 16						; size = 4
__Bottom$ = 16						; size = 4
__Val$ = 20						; size = 4
__Pred$ = 24						; size = 4
??$_Pop_heap_hole_by_index@PAUSDumpData@@U1@P6A_NABU1@0@Z@std@@YAXPAUSDumpData@@HH$$QAU1@P6A_NABU1@2@Z@Z PROC ; std::_Pop_heap_hole_by_index<SDumpData *,SDumpData,bool (__cdecl*)(SDumpData const &,SDumpData const &)>, COMDAT

; 3354 :     _RanIt _First, _Iter_diff_t<_RanIt> _Hole, _Iter_diff_t<_RanIt> _Bottom, _Ty&& _Val, _Pr _Pred) {

  00000	55		 push	 ebp
  00001	8b ec		 mov	 ebp, esp
  00003	83 ec 08	 sub	 esp, 8

; 3355 :     // percolate _Hole to _Bottom, then push _Val, using _Pred
; 3356 :     _STL_INTERNAL_CHECK(_Bottom != 0);
; 3357 :     using _Diff      = _Iter_diff_t<_RanIt>;
; 3358 :     const _Diff _Top = _Hole;
; 3359 :     _Diff _Idx       = _Hole;
; 3360 : 
; 3361 :     // Check whether _Idx can have a child before calculating that child's index, since
; 3362 :     // calculating the child's index can trigger integer overflows
; 3363 :     const _Diff _Max_sequence_non_leaf = (_Bottom - 1) >> 1; // shift for codegen

  00006	8b 4d 10	 mov	 ecx, DWORD PTR __Bottom$[ebp]
  00009	53		 push	 ebx

; 3364 :     while (_Idx < _Max_sequence_non_leaf) { // move _Hole down to larger child

  0000a	8b 5d 08	 mov	 ebx, DWORD PTR __First$[ebp]
  0000d	56		 push	 esi
  0000e	8d 41 ff	 lea	 eax, DWORD PTR [ecx-1]
  00011	89 45 f8	 mov	 DWORD PTR tv164[ebp], eax
  00014	d1 f8		 sar	 eax, 1
  00016	57		 push	 edi
  00017	8b 7d 0c	 mov	 edi, DWORD PTR __Hole$[ebp]
  0001a	8b f7		 mov	 esi, edi
  0001c	89 7d 0c	 mov	 DWORD PTR __Top$1$[ebp], edi
  0001f	89 45 fc	 mov	 DWORD PTR __Max_sequence_non_leaf$1$[ebp], eax
  00022	3b f8		 cmp	 edi, eax
  00024	7d 4e		 jge	 SHORT $LN3@Pop_heap_h
  00026	66 66 0f 1f 84
	00 00 00 00 00	 npad	 10
$LL2@Pop_heap_h:

; 3365 :         _Idx = 2 * _Idx + 2;

  00030	8d 34 75 02 00
	00 00		 lea	 esi, DWORD PTR [esi*2+2]

; 3366 :         if (_DEBUG_LT_PRED(_Pred, *(_First + _Idx), *(_First + (_Idx - 1)))) {

  00037	8d 04 76	 lea	 eax, DWORD PTR [esi+esi*2]
  0003a	8d 0c 83	 lea	 ecx, DWORD PTR [ebx+eax*4]
  0003d	8d 41 f4	 lea	 eax, DWORD PTR [ecx-12]
  00040	50		 push	 eax
  00041	51		 push	 ecx
  00042	ff 55 18	 call	 DWORD PTR __Pred$[ebp]
  00045	83 c4 08	 add	 esp, 8
  00048	84 c0		 test	 al, al
  0004a	74 01		 je	 SHORT $LN4@Pop_heap_h

; 3367 :             --_Idx;

  0004c	4e		 dec	 esi
$LN4@Pop_heap_h:

; 3368 :         }
; 3369 :         *(_First + _Hole) = _STD move(*(_First + _Idx));

  0004d	8d 04 76	 lea	 eax, DWORD PTR [esi+esi*2]
  00050	f3 0f 7e 04 83	 movq	 xmm0, QWORD PTR [ebx+eax*4]
  00055	8d 14 83	 lea	 edx, DWORD PTR [ebx+eax*4]
  00058	8d 04 7f	 lea	 eax, DWORD PTR [edi+edi*2]

; 3370 :         _Hole             = _Idx;

  0005b	8b fe		 mov	 edi, esi
  0005d	8d 0c 83	 lea	 ecx, DWORD PTR [ebx+eax*4]
  00060	66 0f d6 01	 movq	 QWORD PTR [ecx], xmm0
  00064	8b 42 08	 mov	 eax, DWORD PTR [edx+8]
  00067	89 41 08	 mov	 DWORD PTR [ecx+8], eax
  0006a	8b 45 fc	 mov	 eax, DWORD PTR __Max_sequence_non_leaf$1$[ebp]
  0006d	3b f0		 cmp	 esi, eax
  0006f	7c bf		 jl	 SHORT $LL2@Pop_heap_h
  00071	8b 4d 10	 mov	 ecx, DWORD PTR __Bottom$[ebp]
$LN3@Pop_heap_h:

; 3371 :     }
; 3372 : 
; 3373 :     if (_Idx == _Max_sequence_non_leaf && _Bottom % 2 == 0) { // only child at bottom, move _Hole down to it

  00074	3b f0		 cmp	 esi, eax
  00076	75 24		 jne	 SHORT $LN5@Pop_heap_h
  00078	f6 c1 01	 test	 cl, 1
  0007b	75 1f		 jne	 SHORT $LN5@Pop_heap_h

; 3374 :         *(_First + _Hole) = _STD move(*(_First + (_Bottom - 1)));

  0007d	8d 04 49	 lea	 eax, DWORD PTR [ecx+ecx*2]
  00080	f3 0f 7e 44 83
	f4		 movq	 xmm0, QWORD PTR [ebx+eax*4-12]
  00086	8d 14 83	 lea	 edx, DWORD PTR [ebx+eax*4]
  00089	8d 04 7f	 lea	 eax, DWORD PTR [edi+edi*2]

; 3375 :         _Hole             = _Bottom - 1;

  0008c	8b 7d f8	 mov	 edi, DWORD PTR tv164[ebp]
  0008f	8d 0c 83	 lea	 ecx, DWORD PTR [ebx+eax*4]
  00092	66 0f d6 01	 movq	 QWORD PTR [ecx], xmm0
  00096	8b 42 fc	 mov	 eax, DWORD PTR [edx-4]
  00099	89 41 08	 mov	 DWORD PTR [ecx+8], eax
$LN5@Pop_heap_h:

; 3321 :          _Top < _Hole && _DEBUG_LT_PRED(_Pred, *(_First + _Idx), _Val); //

  0009c	39 7d 0c	 cmp	 DWORD PTR __Top$1$[ebp], edi
  0009f	7d 3a		 jge	 SHORT $LN20@Pop_heap_h
$LL10@Pop_heap_h:
  000a1	ff 75 14	 push	 DWORD PTR __Val$[ebp]
  000a4	8d 77 ff	 lea	 esi, DWORD PTR [edi-1]
  000a7	d1 fe		 sar	 esi, 1
  000a9	8d 04 76	 lea	 eax, DWORD PTR [esi+esi*2]
  000ac	8d 04 83	 lea	 eax, DWORD PTR [ebx+eax*4]
  000af	50		 push	 eax
  000b0	89 45 10	 mov	 DWORD PTR tv152[ebp], eax
  000b3	ff 55 18	 call	 DWORD PTR __Pred$[ebp]
  000b6	83 c4 08	 add	 esp, 8
  000b9	84 c0		 test	 al, al
  000bb	74 1e		 je	 SHORT $LN20@Pop_heap_h

; 3322 :          _Idx = (_Hole - 1) >> 1) { // shift for codegen
; 3323 :         // move _Hole up to parent
; 3324 :         *(_First + _Hole) = _STD move(*(_First + _Idx));

  000bd	8d 04 7f	 lea	 eax, DWORD PTR [edi+edi*2]

; 3325 :         _Hole             = _Idx;

  000c0	8b fe		 mov	 edi, esi
  000c2	8d 0c 83	 lea	 ecx, DWORD PTR [ebx+eax*4]
  000c5	8b 45 10	 mov	 eax, DWORD PTR tv152[ebp]
  000c8	f3 0f 7e 00	 movq	 xmm0, QWORD PTR [eax]
  000cc	66 0f d6 01	 movq	 QWORD PTR [ecx], xmm0
  000d0	8b 40 08	 mov	 eax, DWORD PTR [eax+8]
  000d3	89 41 08	 mov	 DWORD PTR [ecx+8], eax
  000d6	39 75 0c	 cmp	 DWORD PTR __Top$1$[ebp], esi
  000d9	7c c6		 jl	 SHORT $LL10@Pop_heap_h
$LN20@Pop_heap_h:

; 3326 :     }
; 3327 : 
; 3328 :     *(_First + _Hole) = _STD move(_Val); // drop _Val into final hole

  000db	8d 04 7f	 lea	 eax, DWORD PTR [edi+edi*2]
  000de	8d 0c 83	 lea	 ecx, DWORD PTR [ebx+eax*4]
  000e1	8b 45 14	 mov	 eax, DWORD PTR __Val$[ebp]
  000e4	5f		 pop	 edi
  000e5	5e		 pop	 esi
  000e6	5b		 pop	 ebx
  000e7	f3 0f 7e 00	 movq	 xmm0, QWORD PTR [eax]
  000eb	66 0f d6 01	 movq	 QWORD PTR [ecx], xmm0
  000ef	8b 40 08	 mov	 eax, DWORD PTR [eax+8]
  000f2	89 41 08	 mov	 DWORD PTR [ecx+8], eax

; 3376 :     }
; 3377 : 
; 3378 :     _Push_heap_by_index(_First, _Hole, _Top, _STD move(_Val), _Pred);
; 3379 : }

  000f5	8b e5		 mov	 esp, ebp
  000f7	5d		 pop	 ebp
  000f8	c3		 ret	 0
??$_Pop_heap_hole_by_index@PAUSDumpData@@U1@P6A_NABU1@0@Z@std@@YAXPAUSDumpData@@HH$$QAU1@P6A_NABU1@2@Z@Z ENDP ; std::_Pop_heap_hole_by_index<SDumpData *,SDumpData,bool (__cdecl*)(SDumpData const &,SDumpData const &)>
_TEXT	ENDS
; Function compile flags: /Ogtp
; File C:\Program Files (x86)\Microsoft Visual Studio\2019\Community\VC\Tools\MSVC\14.27.29110\include\xmemory
;	COMDAT ??$_Construct_in_place@PAU?$_Tree_node@U?$pair@$$CBJPAVCResource@@@std@@PAX@std@@AAPAU12@@std@@YAXAAPAU?$_Tree_node@U?$pair@$$CBJPAVCResource@@@std@@PAX@0@0@Z
_TEXT	SEGMENT
__Obj$ = 8						; size = 4
_<_Args_0>$ = 12					; size = 4
??$_Construct_in_place@PAU?$_Tree_node@U?$pair@$$CBJPAVCResource@@@std@@PAX@std@@AAPAU12@@std@@YAXAAPAU?$_Tree_node@U?$pair@$$CBJPAVCResource@@@std@@PAX@0@0@Z PROC ; std::_Construct_in_place<std::_Tree_node<std::pair<long const ,CResource *>,void *> *,std::_Tree_node<std::pair<long const ,CResource *>,void *> * &>, COMDAT

; 228  : void _Construct_in_place(_Ty& _Obj, _Types&&... _Args) noexcept(is_nothrow_constructible_v<_Ty, _Types...>) {

  00000	55		 push	 ebp
  00001	8b ec		 mov	 ebp, esp

; 229  :     ::new (const_cast<void*>(static_cast<const volatile void*>(_STD addressof(_Obj))))

  00003	8b 45 0c	 mov	 eax, DWORD PTR _<_Args_0>$[ebp]
  00006	8b 08		 mov	 ecx, DWORD PTR [eax]
  00008	8b 45 08	 mov	 eax, DWORD PTR __Obj$[ebp]
  0000b	89 08		 mov	 DWORD PTR [eax], ecx

; 230  :         _Ty(_STD forward<_Types>(_Args)...);
; 231  : }

  0000d	5d		 pop	 ebp
  0000e	c3		 ret	 0
??$_Construct_in_place@PAU?$_Tree_node@U?$pair@$$CBJPAVCResource@@@std@@PAX@std@@AAPAU12@@std@@YAXAAPAU?$_Tree_node@U?$pair@$$CBJPAVCResource@@@std@@PAX@0@0@Z ENDP ; std::_Construct_in_place<std::_Tree_node<std::pair<long const ,CResource *>,void *> *,std::_Tree_node<std::pair<long const ,CResource *>,void *> * &>
_TEXT	ENDS
; Function compile flags: /Ogtp
; File C:\Program Files (x86)\Microsoft Visual Studio\2019\Community\VC\Tools\MSVC\14.27.29110\include\xmemory
;	COMDAT ??$_Construct_in_place@PAU?$_Tree_node@U?$pair@$$CBKV?$basic_string@DU?$char_traits@D@std@@V?$allocator@D@2@@std@@@std@@PAX@std@@AAPAU12@@std@@YAXAAPAU?$_Tree_node@U?$pair@$$CBKV?$basic_string@DU?$char_traits@D@std@@V?$allocator@D@2@@std@@@std@@PAX@0@0@Z
_TEXT	SEGMENT
__Obj$ = 8						; size = 4
_<_Args_0>$ = 12					; size = 4
??$_Construct_in_place@PAU?$_Tree_node@U?$pair@$$CBKV?$basic_string@DU?$char_traits@D@std@@V?$allocator@D@2@@std@@@std@@PAX@std@@AAPAU12@@std@@YAXAAPAU?$_Tree_node@U?$pair@$$CBKV?$basic_string@DU?$char_traits@D@std@@V?$allocator@D@2@@std@@@std@@PAX@0@0@Z PROC ; std::_Construct_in_place<std::_Tree_node<std::pair<unsigned long const ,std::basic_string<char,std::char_traits<char>,std::allocator<char> > >,void *> *,std::_Tree_node<std::pair<unsigned long const ,std::basic_string<char,std::char_traits<char>,std::allocator<char> > >,void *> * &>, COMDAT

; 228  : void _Construct_in_place(_Ty& _Obj, _Types&&... _Args) noexcept(is_nothrow_constructible_v<_Ty, _Types...>) {

  00000	55		 push	 ebp
  00001	8b ec		 mov	 ebp, esp

; 229  :     ::new (const_cast<void*>(static_cast<const volatile void*>(_STD addressof(_Obj))))

  00003	8b 45 0c	 mov	 eax, DWORD PTR _<_Args_0>$[ebp]
  00006	8b 08		 mov	 ecx, DWORD PTR [eax]
  00008	8b 45 08	 mov	 eax, DWORD PTR __Obj$[ebp]
  0000b	89 08		 mov	 DWORD PTR [eax], ecx

; 230  :         _Ty(_STD forward<_Types>(_Args)...);
; 231  : }

  0000d	5d		 pop	 ebp
  0000e	c3		 ret	 0
??$_Construct_in_place@PAU?$_Tree_node@U?$pair@$$CBKV?$basic_string@DU?$char_traits@D@std@@V?$allocator@D@2@@std@@@std@@PAX@std@@AAPAU12@@std@@YAXAAPAU?$_Tree_node@U?$pair@$$CBKV?$basic_string@DU?$char_traits@D@std@@V?$allocator@D@2@@std@@@std@@PAX@0@0@Z ENDP ; std::_Construct_in_place<std::_Tree_node<std::pair<unsigned long const ,std::basic_string<char,std::char_traits<char>,std::allocator<char> > >,void *> *,std::_Tree_node<std::pair<unsigned long const ,std::basic_string<char,std::char_traits<char>,std::allocator<char> > >,void *> * &>
_TEXT	ENDS
; Function compile flags: /Ogtp
; File C:\Program Files (x86)\Microsoft Visual Studio\2019\Community\VC\Tools\MSVC\14.27.29110\include\xmemory
;	COMDAT ??$_Construct_in_place@PAU?$_Tree_node@U?$pair@$$CBKPAVCResource@@@std@@PAX@std@@AAPAU12@@std@@YAXAAPAU?$_Tree_node@U?$pair@$$CBKPAVCResource@@@std@@PAX@0@0@Z
_TEXT	SEGMENT
__Obj$ = 8						; size = 4
_<_Args_0>$ = 12					; size = 4
??$_Construct_in_place@PAU?$_Tree_node@U?$pair@$$CBKPAVCResource@@@std@@PAX@std@@AAPAU12@@std@@YAXAAPAU?$_Tree_node@U?$pair@$$CBKPAVCResource@@@std@@PAX@0@0@Z PROC ; std::_Construct_in_place<std::_Tree_node<std::pair<unsigned long const ,CResource *>,void *> *,std::_Tree_node<std::pair<unsigned long const ,CResource *>,void *> * &>, COMDAT

; 228  : void _Construct_in_place(_Ty& _Obj, _Types&&... _Args) noexcept(is_nothrow_constructible_v<_Ty, _Types...>) {

  00000	55		 push	 ebp
  00001	8b ec		 mov	 ebp, esp

; 229  :     ::new (const_cast<void*>(static_cast<const volatile void*>(_STD addressof(_Obj))))

  00003	8b 45 0c	 mov	 eax, DWORD PTR _<_Args_0>$[ebp]
  00006	8b 08		 mov	 ecx, DWORD PTR [eax]
  00008	8b 45 08	 mov	 eax, DWORD PTR __Obj$[ebp]
  0000b	89 08		 mov	 DWORD PTR [eax], ecx

; 230  :         _Ty(_STD forward<_Types>(_Args)...);
; 231  : }

  0000d	5d		 pop	 ebp
  0000e	c3		 ret	 0
??$_Construct_in_place@PAU?$_Tree_node@U?$pair@$$CBKPAVCResource@@@std@@PAX@std@@AAPAU12@@std@@YAXAAPAU?$_Tree_node@U?$pair@$$CBKPAVCResource@@@std@@PAX@0@0@Z ENDP ; std::_Construct_in_place<std::_Tree_node<std::pair<unsigned long const ,CResource *>,void *> *,std::_Tree_node<std::pair<unsigned long const ,CResource *>,void *> * &>
_TEXT	ENDS
; Function compile flags: /Ogtp
; File C:\Program Files (x86)\Microsoft Visual Studio\2019\Community\VC\Tools\MSVC\14.27.29110\include\xstring
;	COMDAT ??$?MDU?$char_traits@D@std@@V?$allocator@D@1@@std@@YA_NABV?$basic_string@DU?$char_traits@D@std@@V?$allocator@D@2@@0@0@Z
_TEXT	SEGMENT
__Left$ = 8						; size = 4
__Right$ = 12						; size = 4
??$?MDU?$char_traits@D@std@@V?$allocator@D@1@@std@@YA_NABV?$basic_string@DU?$char_traits@D@std@@V?$allocator@D@2@@0@0@Z PROC ; std::operator<<char,std::char_traits<char>,std::allocator<char> >, COMDAT

; 4502 :     const basic_string<_Elem, _Traits, _Alloc>& _Left, const basic_string<_Elem, _Traits, _Alloc>& _Right) noexcept {

  00000	55		 push	 ebp
  00001	8b ec		 mov	 ebp, esp

; 2144 :         const value_type* _Result = _Bx._Buf;

  00003	8b 45 0c	 mov	 eax, DWORD PTR __Right$[ebp]
  00006	8b d0		 mov	 edx, eax

; 2153 :         return _BUF_SIZE <= _Myres;

  00008	83 78 14 10	 cmp	 DWORD PTR [eax+20], 16	; 00000010H

; 2145 :         if (_Large_string_engaged()) {

  0000c	72 02		 jb	 SHORT $LN6@operator

; 2146 :             _Result = _Unfancy(_Bx._Ptr);

  0000e	8b 10		 mov	 edx, DWORD PTR [eax]
$LN6@operator:

; 2144 :         const value_type* _Result = _Bx._Buf;

  00010	8b 4d 08	 mov	 ecx, DWORD PTR __Left$[ebp]
  00013	56		 push	 esi
  00014	8b f1		 mov	 esi, ecx

; 2153 :         return _BUF_SIZE <= _Myres;

  00016	83 79 14 10	 cmp	 DWORD PTR [ecx+20], 16	; 00000010H

; 2145 :         if (_Large_string_engaged()) {

  0001a	72 02		 jb	 SHORT $LN11@operator

; 2146 :             _Result = _Unfancy(_Bx._Ptr);

  0001c	8b 31		 mov	 esi, DWORD PTR [ecx]
$LN11@operator:

; 4129 :         return _Traits_compare<_Traits>(_Mypair._Myval2._Myptr(), _Mypair._Myval2._Mysize,

  0001e	ff 70 10	 push	 DWORD PTR [eax+16]
  00021	52		 push	 edx
  00022	ff 71 10	 push	 DWORD PTR [ecx+16]
  00025	56		 push	 esi
  00026	e8 00 00 00 00	 call	 ??$_Traits_compare@U?$char_traits@D@std@@@std@@YAHQBDI0I@Z ; std::_Traits_compare<std::char_traits<char> >
  0002b	83 c4 10	 add	 esp, 16			; 00000010H

; 4503 :     return _Left.compare(_Right) < 0;

  0002e	c1 e8 1f	 shr	 eax, 31			; 0000001fH
  00031	5e		 pop	 esi

; 4504 : }

  00032	5d		 pop	 ebp
  00033	c3		 ret	 0
??$?MDU?$char_traits@D@std@@V?$allocator@D@1@@std@@YA_NABV?$basic_string@DU?$char_traits@D@std@@V?$allocator@D@2@@0@0@Z ENDP ; std::operator<<char,std::char_traits<char>,std::allocator<char> >
_TEXT	ENDS
; Function compile flags: /Ogtp
; File C:\Program Files (x86)\Microsoft Visual Studio\2019\Community\VC\Tools\MSVC\14.27.29110\include\xutility
;	COMDAT ??$_Copy_memmove@PAUSDumpData@@PAU1@@std@@YAPAUSDumpData@@PAU1@00@Z
_TEXT	SEGMENT
__First$ = 8						; size = 4
__Last$ = 12						; size = 4
__Dest$ = 16						; size = 4
??$_Copy_memmove@PAUSDumpData@@PAU1@@std@@YAPAUSDumpData@@PAU1@00@Z PROC ; std::_Copy_memmove<SDumpData *,SDumpData *>, COMDAT

; 4113 : _OutIt _Copy_memmove(_InIt _First, _InIt _Last, _OutIt _Dest) {

  00000	55		 push	 ebp
  00001	8b ec		 mov	 ebp, esp

; 4114 :     const char* const _First_ch = const_cast<const char*>(reinterpret_cast<const volatile char*>(_First));
; 4115 :     const char* const _Last_ch  = const_cast<const char*>(reinterpret_cast<const volatile char*>(_Last));
; 4116 :     char* const _Dest_ch        = const_cast<char*>(reinterpret_cast<volatile char*>(_Dest));
; 4117 :     const auto _Count           = static_cast<size_t>(_Last_ch - _First_ch);

  00003	8b 45 08	 mov	 eax, DWORD PTR __First$[ebp]
  00006	56		 push	 esi

; 4118 :     _CSTD memmove(_Dest_ch, _First_ch, _Count);

  00007	8b 75 10	 mov	 esi, DWORD PTR __Dest$[ebp]
  0000a	57		 push	 edi
  0000b	8b 7d 0c	 mov	 edi, DWORD PTR __Last$[ebp]
  0000e	2b f8		 sub	 edi, eax
  00010	57		 push	 edi
  00011	50		 push	 eax
  00012	56		 push	 esi
  00013	e8 00 00 00 00	 call	 _memmove
  00018	83 c4 0c	 add	 esp, 12			; 0000000cH

; 4119 :     return reinterpret_cast<_OutIt>(_Dest_ch + _Count);

  0001b	8d 04 37	 lea	 eax, DWORD PTR [edi+esi]
  0001e	5f		 pop	 edi
  0001f	5e		 pop	 esi

; 4120 : }

  00020	5d		 pop	 ebp
  00021	c3		 ret	 0
??$_Copy_memmove@PAUSDumpData@@PAU1@@std@@YAPAUSDumpData@@PAU1@00@Z ENDP ; std::_Copy_memmove<SDumpData *,SDumpData *>
_TEXT	ENDS
; Function compile flags: /Ogtp
; File C:\Program Files (x86)\Microsoft Visual Studio\2019\Community\VC\Tools\MSVC\14.27.29110\include\xmemory
;	COMDAT ??$_Destroy_in_place@PAU?$_Tree_node@U?$pair@$$CBKPAVCResource@@@std@@PAX@std@@@std@@YAXAAPAU?$_Tree_node@U?$pair@$$CBKPAVCResource@@@std@@PAX@0@@Z
_TEXT	SEGMENT
__Obj$ = 8						; size = 4
??$_Destroy_in_place@PAU?$_Tree_node@U?$pair@$$CBKPAVCResource@@@std@@PAX@std@@@std@@YAXAAPAU?$_Tree_node@U?$pair@$$CBKPAVCResource@@@std@@PAX@0@@Z PROC ; std::_Destroy_in_place<std::_Tree_node<std::pair<unsigned long const ,CResource *>,void *> *>, COMDAT

; 268  :     _Obj.~_Ty();
; 269  : }

  00000	c2 00 00	 ret	 0
??$_Destroy_in_place@PAU?$_Tree_node@U?$pair@$$CBKPAVCResource@@@std@@PAX@std@@@std@@YAXAAPAU?$_Tree_node@U?$pair@$$CBKPAVCResource@@@std@@PAX@0@@Z ENDP ; std::_Destroy_in_place<std::_Tree_node<std::pair<unsigned long const ,CResource *>,void *> *>
_TEXT	ENDS
; Function compile flags: /Ogtp
; File C:\Program Files (x86)\Microsoft Visual Studio\2019\Community\VC\Tools\MSVC\14.27.29110\include\xmemory
;	COMDAT ??$_Construct_in_place@PAU?$_Tree_node@U?$pair@$$CBV?$basic_string@DU?$char_traits@D@std@@V?$allocator@D@2@@std@@P6APAVCResource@@PBD@Z@std@@PAX@std@@AAPAU12@@std@@YAXAAPAU?$_Tree_node@U?$pair@$$CBV?$basic_string@DU?$char_traits@D@std@@V?$allocator@D@2@@std@@P6APAVCResource@@PBD@Z@std@@PAX@0@0@Z
_TEXT	SEGMENT
__Obj$ = 8						; size = 4
_<_Args_0>$ = 12					; size = 4
??$_Construct_in_place@PAU?$_Tree_node@U?$pair@$$CBV?$basic_string@DU?$char_traits@D@std@@V?$allocator@D@2@@std@@P6APAVCResource@@PBD@Z@std@@PAX@std@@AAPAU12@@std@@YAXAAPAU?$_Tree_node@U?$pair@$$CBV?$basic_string@DU?$char_traits@D@std@@V?$allocator@D@2@@std@@P6APAVCResource@@PBD@Z@std@@PAX@0@0@Z PROC ; std::_Construct_in_place<std::_Tree_node<std::pair<std::basic_string<char,std::char_traits<char>,std::allocator<char> > const ,CResource * (__cdecl*)(char const *)>,void *> *,std::_Tree_node<std::pair<std::basic_string<char,std::char_traits<char>,std::allocator<char> > const ,CResource * (__cdecl*)(char const *)>,void *> * &>, COMDAT

; 228  : void _Construct_in_place(_Ty& _Obj, _Types&&... _Args) noexcept(is_nothrow_constructible_v<_Ty, _Types...>) {

  00000	55		 push	 ebp
  00001	8b ec		 mov	 ebp, esp

; 229  :     ::new (const_cast<void*>(static_cast<const volatile void*>(_STD addressof(_Obj))))

  00003	8b 45 0c	 mov	 eax, DWORD PTR _<_Args_0>$[ebp]
  00006	8b 08		 mov	 ecx, DWORD PTR [eax]
  00008	8b 45 08	 mov	 eax, DWORD PTR __Obj$[ebp]
  0000b	89 08		 mov	 DWORD PTR [eax], ecx

; 230  :         _Ty(_STD forward<_Types>(_Args)...);
; 231  : }

  0000d	5d		 pop	 ebp
  0000e	c3		 ret	 0
??$_Construct_in_place@PAU?$_Tree_node@U?$pair@$$CBV?$basic_string@DU?$char_traits@D@std@@V?$allocator@D@2@@std@@P6APAVCResource@@PBD@Z@std@@PAX@std@@AAPAU12@@std@@YAXAAPAU?$_Tree_node@U?$pair@$$CBV?$basic_string@DU?$char_traits@D@std@@V?$allocator@D@2@@std@@P6APAVCResource@@PBD@Z@std@@PAX@0@0@Z ENDP ; std::_Construct_in_place<std::_Tree_node<std::pair<std::basic_string<char,std::char_traits<char>,std::allocator<char> > const ,CResource * (__cdecl*)(char const *)>,void *> *,std::_Tree_node<std::pair<std::basic_string<char,std::char_traits<char>,std::allocator<char> > const ,CResource * (__cdecl*)(char const *)>,void *> * &>
_TEXT	ENDS
; Function compile flags: /Ogtp
; File C:\Program Files (x86)\Microsoft Visual Studio\2019\Community\VC\Tools\MSVC\14.27.29110\include\xmemory
;	COMDAT ??$_Construct_in_place@PAU?$_Tree_node@U?$pair@$$CBHP6APAVCResource@@PBD@Z@std@@PAX@std@@AAPAU12@@std@@YAXAAPAU?$_Tree_node@U?$pair@$$CBHP6APAVCResource@@PBD@Z@std@@PAX@0@0@Z
_TEXT	SEGMENT
__Obj$ = 8						; size = 4
_<_Args_0>$ = 12					; size = 4
??$_Construct_in_place@PAU?$_Tree_node@U?$pair@$$CBHP6APAVCResource@@PBD@Z@std@@PAX@std@@AAPAU12@@std@@YAXAAPAU?$_Tree_node@U?$pair@$$CBHP6APAVCResource@@PBD@Z@std@@PAX@0@0@Z PROC ; std::_Construct_in_place<std::_Tree_node<std::pair<int const ,CResource * (__cdecl*)(char const *)>,void *> *,std::_Tree_node<std::pair<int const ,CResource * (__cdecl*)(char const *)>,void *> * &>, COMDAT

; 228  : void _Construct_in_place(_Ty& _Obj, _Types&&... _Args) noexcept(is_nothrow_constructible_v<_Ty, _Types...>) {

  00000	55		 push	 ebp
  00001	8b ec		 mov	 ebp, esp

; 229  :     ::new (const_cast<void*>(static_cast<const volatile void*>(_STD addressof(_Obj))))

  00003	8b 45 0c	 mov	 eax, DWORD PTR _<_Args_0>$[ebp]
  00006	8b 08		 mov	 ecx, DWORD PTR [eax]
  00008	8b 45 08	 mov	 eax, DWORD PTR __Obj$[ebp]
  0000b	89 08		 mov	 DWORD PTR [eax], ecx

; 230  :         _Ty(_STD forward<_Types>(_Args)...);
; 231  : }

  0000d	5d		 pop	 ebp
  0000e	c3		 ret	 0
??$_Construct_in_place@PAU?$_Tree_node@U?$pair@$$CBHP6APAVCResource@@PBD@Z@std@@PAX@std@@AAPAU12@@std@@YAXAAPAU?$_Tree_node@U?$pair@$$CBHP6APAVCResource@@PBD@Z@std@@PAX@0@0@Z ENDP ; std::_Construct_in_place<std::_Tree_node<std::pair<int const ,CResource * (__cdecl*)(char const *)>,void *> *,std::_Tree_node<std::pair<int const ,CResource * (__cdecl*)(char const *)>,void *> * &>
_TEXT	ENDS
; Function compile flags: /Ogtp
; File C:\Program Files (x86)\Microsoft Visual Studio\2019\Community\VC\Tools\MSVC\14.27.29110\include\xmemory
;	COMDAT ??$_Destroy_in_place@PAU?$_Tree_node@U?$pair@QAVCResource@@K@std@@PAX@std@@@std@@YAXAAPAU?$_Tree_node@U?$pair@QAVCResource@@K@std@@PAX@0@@Z
_TEXT	SEGMENT
__Obj$ = 8						; size = 4
??$_Destroy_in_place@PAU?$_Tree_node@U?$pair@QAVCResource@@K@std@@PAX@std@@@std@@YAXAAPAU?$_Tree_node@U?$pair@QAVCResource@@K@std@@PAX@0@@Z PROC ; std::_Destroy_in_place<std::_Tree_node<std::pair<CResource * const,unsigned long>,void *> *>, COMDAT

; 268  :     _Obj.~_Ty();
; 269  : }

  00000	c2 00 00	 ret	 0
??$_Destroy_in_place@PAU?$_Tree_node@U?$pair@QAVCResource@@K@std@@PAX@std@@@std@@YAXAAPAU?$_Tree_node@U?$pair@QAVCResource@@K@std@@PAX@0@@Z ENDP ; std::_Destroy_in_place<std::_Tree_node<std::pair<CResource * const,unsigned long>,void *> *>
_TEXT	ENDS
; Function compile flags: /Ogtp
; File C:\Program Files (x86)\Microsoft Visual Studio\2019\Community\VC\Tools\MSVC\14.27.29110\include\xmemory
;	COMDAT ??$_Destroy_in_place@PAU?$_Tree_node@U?$pair@$$CBKV?$basic_string@DU?$char_traits@D@std@@V?$allocator@D@2@@std@@@std@@PAX@std@@@std@@YAXAAPAU?$_Tree_node@U?$pair@$$CBKV?$basic_string@DU?$char_traits@D@std@@V?$allocator@D@2@@std@@@std@@PAX@0@@Z
_TEXT	SEGMENT
__Obj$ = 8						; size = 4
??$_Destroy_in_place@PAU?$_Tree_node@U?$pair@$$CBKV?$basic_string@DU?$char_traits@D@std@@V?$allocator@D@2@@std@@@std@@PAX@std@@@std@@YAXAAPAU?$_Tree_node@U?$pair@$$CBKV?$basic_string@DU?$char_traits@D@std@@V?$allocator@D@2@@std@@@std@@PAX@0@@Z PROC ; std::_Destroy_in_place<std::_Tree_node<std::pair<unsigned long const ,std::basic_string<char,std::char_traits<char>,std::allocator<char> > >,void *> *>, COMDAT

; 268  :     _Obj.~_Ty();
; 269  : }

  00000	c2 00 00	 ret	 0
??$_Destroy_in_place@PAU?$_Tree_node@U?$pair@$$CBKV?$basic_string@DU?$char_traits@D@std@@V?$allocator@D@2@@std@@@std@@PAX@std@@@std@@YAXAAPAU?$_Tree_node@U?$pair@$$CBKV?$basic_string@DU?$char_traits@D@std@@V?$allocator@D@2@@std@@@std@@PAX@0@@Z ENDP ; std::_Destroy_in_place<std::_Tree_node<std::pair<unsigned long const ,std::basic_string<char,std::char_traits<char>,std::allocator<char> > >,void *> *>
_TEXT	ENDS
; Function compile flags: /Ogtp
; File C:\Program Files (x86)\Microsoft Visual Studio\2019\Community\VC\Tools\MSVC\14.27.29110\include\xmemory
;	COMDAT ??$_Destroy_in_place@PAU?$_Tree_node@U?$pair@$$CBJPAVCResource@@@std@@PAX@std@@@std@@YAXAAPAU?$_Tree_node@U?$pair@$$CBJPAVCResource@@@std@@PAX@0@@Z
_TEXT	SEGMENT
__Obj$ = 8						; size = 4
??$_Destroy_in_place@PAU?$_Tree_node@U?$pair@$$CBJPAVCResource@@@std@@PAX@std@@@std@@YAXAAPAU?$_Tree_node@U?$pair@$$CBJPAVCResource@@@std@@PAX@0@@Z PROC ; std::_Destroy_in_place<std::_Tree_node<std::pair<long const ,CResource *>,void *> *>, COMDAT

; 268  :     _Obj.~_Ty();
; 269  : }

  00000	c2 00 00	 ret	 0
??$_Destroy_in_place@PAU?$_Tree_node@U?$pair@$$CBJPAVCResource@@@std@@PAX@std@@@std@@YAXAAPAU?$_Tree_node@U?$pair@$$CBJPAVCResource@@@std@@PAX@0@@Z ENDP ; std::_Destroy_in_place<std::_Tree_node<std::pair<long const ,CResource *>,void *> *>
_TEXT	ENDS
; Function compile flags: /Ogtp
; File C:\Program Files (x86)\Microsoft Visual Studio\2019\Community\VC\Tools\MSVC\14.27.29110\include\xmemory
;	COMDAT ??1?$_Alloc_construct_ptr@V?$allocator@U?$_Tree_node@U?$pair@QAVCResource@@K@std@@PAX@std@@@std@@@std@@QAE@XZ
_TEXT	SEGMENT
??1?$_Alloc_construct_ptr@V?$allocator@U?$_Tree_node@U?$pair@QAVCResource@@K@std@@PAX@std@@@std@@@std@@QAE@XZ PROC ; std::_Alloc_construct_ptr<std::allocator<std::_Tree_node<std::pair<CResource * const,unsigned long>,void *> > >::~_Alloc_construct_ptr<std::allocator<std::_Tree_node<std::pair<CResource * const,unsigned long>,void *> > >, COMDAT
; _this$ = ecx

; 1052 :         if (_Ptr) {

  00000	8b 41 04	 mov	 eax, DWORD PTR [ecx+4]
  00003	85 c0		 test	 eax, eax
  00005	74 0b		 je	 SHORT $LN2@Alloc_cons

; 803  :         _Deallocate<_New_alignof<_Ty>>(_Ptr, sizeof(_Ty) * _Count);

  00007	6a 18		 push	 24			; 00000018H
  00009	50		 push	 eax
  0000a	e8 00 00 00 00	 call	 ??$_Deallocate@$07$0A@@std@@YAXPAXI@Z ; std::_Deallocate<8,0>
  0000f	83 c4 08	 add	 esp, 8
$LN2@Alloc_cons:

; 1053 :             _Al.deallocate(_Ptr, 1);
; 1054 :         }
; 1055 :     }

  00012	c3		 ret	 0
??1?$_Alloc_construct_ptr@V?$allocator@U?$_Tree_node@U?$pair@QAVCResource@@K@std@@PAX@std@@@std@@@std@@QAE@XZ ENDP ; std::_Alloc_construct_ptr<std::allocator<std::_Tree_node<std::pair<CResource * const,unsigned long>,void *> > >::~_Alloc_construct_ptr<std::allocator<std::_Tree_node<std::pair<CResource * const,unsigned long>,void *> > >
_TEXT	ENDS
; Function compile flags: /Ogtp
; File C:\Program Files (x86)\Microsoft Visual Studio\2019\Community\VC\Tools\MSVC\14.27.29110\include\algorithm
; File C:\Program Files (x86)\Microsoft Visual Studio\2019\Community\VC\Tools\MSVC\14.27.29110\include\utility
; File C:\Program Files (x86)\Microsoft Visual Studio\2019\Community\VC\Tools\MSVC\14.27.29110\include\algorithm
; File C:\Program Files (x86)\Microsoft Visual Studio\2019\Community\VC\Tools\MSVC\14.27.29110\include\utility
; File C:\Program Files (x86)\Microsoft Visual Studio\2019\Community\VC\Tools\MSVC\14.27.29110\include\algorithm
; File C:\Program Files (x86)\Microsoft Visual Studio\2019\Community\VC\Tools\MSVC\14.27.29110\include\utility
; File C:\Program Files (x86)\Microsoft Visual Studio\2019\Community\VC\Tools\MSVC\14.27.29110\include\algorithm
; File C:\Program Files (x86)\Microsoft Visual Studio\2019\Community\VC\Tools\MSVC\14.27.29110\include\utility
; File C:\Program Files (x86)\Microsoft Visual Studio\2019\Community\VC\Tools\MSVC\14.27.29110\include\algorithm
; File C:\Program Files (x86)\Microsoft Visual Studio\2019\Community\VC\Tools\MSVC\14.27.29110\include\utility
; File C:\Program Files (x86)\Microsoft Visual Studio\2019\Community\VC\Tools\MSVC\14.27.29110\include\algorithm
; File C:\Program Files (x86)\Microsoft Visual Studio\2019\Community\VC\Tools\MSVC\14.27.29110\include\utility
; File C:\Program Files (x86)\Microsoft Visual Studio\2019\Community\VC\Tools\MSVC\14.27.29110\include\algorithm
; File C:\Program Files (x86)\Microsoft Visual Studio\2019\Community\VC\Tools\MSVC\14.27.29110\include\utility
; File C:\Program Files (x86)\Microsoft Visual Studio\2019\Community\VC\Tools\MSVC\14.27.29110\include\algorithm
; File C:\Program Files (x86)\Microsoft Visual Studio\2019\Community\VC\Tools\MSVC\14.27.29110\include\utility
; File C:\Program Files (x86)\Microsoft Visual Studio\2019\Community\VC\Tools\MSVC\14.27.29110\include\algorithm
; File C:\Program Files (x86)\Microsoft Visual Studio\2019\Community\VC\Tools\MSVC\14.27.29110\include\utility
; File C:\Program Files (x86)\Microsoft Visual Studio\2019\Community\VC\Tools\MSVC\14.27.29110\include\algorithm
; File C:\Program Files (x86)\Microsoft Visual Studio\2019\Community\VC\Tools\MSVC\14.27.29110\include\utility
; File C:\Program Files (x86)\Microsoft Visual Studio\2019\Community\VC\Tools\MSVC\14.27.29110\include\algorithm
; File C:\Program Files (x86)\Microsoft Visual Studio\2019\Community\VC\Tools\MSVC\14.27.29110\include\utility
; File C:\Program Files (x86)\Microsoft Visual Studio\2019\Community\VC\Tools\MSVC\14.27.29110\include\algorithm
; File C:\Program Files (x86)\Microsoft Visual Studio\2019\Community\VC\Tools\MSVC\14.27.29110\include\utility
; File C:\Program Files (x86)\Microsoft Visual Studio\2019\Community\VC\Tools\MSVC\14.27.29110\include\algorithm
; File C:\Program Files (x86)\Microsoft Visual Studio\2019\Community\VC\Tools\MSVC\14.27.29110\include\utility
; File C:\Program Files (x86)\Microsoft Visual Studio\2019\Community\VC\Tools\MSVC\14.27.29110\include\algorithm
; File C:\Program Files (x86)\Microsoft Visual Studio\2019\Community\VC\Tools\MSVC\14.27.29110\include\utility
; File C:\Program Files (x86)\Microsoft Visual Studio\2019\Community\VC\Tools\MSVC\14.27.29110\include\algorithm
;	COMDAT ??$_Partition_by_median_guess_unchecked@PAUSDumpData@@P6A_NABU1@0@Z@std@@YA?AU?$pair@PAUSDumpData@@PAU1@@0@PAUSDumpData@@0P6A_NABU2@1@Z@Z
_TEXT	SEGMENT
tv460 = -12						; size = 4
$T1 = -12						; size = 4
__Last$1$ = -12						; size = 4
__Gfirst$1$ = -12					; size = 4
$T2 = -8						; size = 4
__Glast$1$ = -8						; size = 4
__Plast$1$ = -4						; size = 4
___$ReturnUdt$ = 8					; size = 4
__First$ = 12						; size = 4
__Last$ = 16						; size = 4
__Pred$ = 20						; size = 4
??$_Partition_by_median_guess_unchecked@PAUSDumpData@@P6A_NABU1@0@Z@std@@YA?AU?$pair@PAUSDumpData@@PAU1@@0@PAUSDumpData@@0P6A_NABU2@1@Z@Z PROC ; std::_Partition_by_median_guess_unchecked<SDumpData *,bool (__cdecl*)(SDumpData const &,SDumpData const &)>, COMDAT

; 4036 : _CONSTEXPR20 pair<_RanIt, _RanIt> _Partition_by_median_guess_unchecked(_RanIt _First, _RanIt _Last, _Pr _Pred) {

  00000	55		 push	 ebp
  00001	8b ec		 mov	 ebp, esp
  00003	83 ec 0c	 sub	 esp, 12			; 0000000cH
  00006	53		 push	 ebx

; 4037 :     // partition [_First, _Last), using _Pred
; 4038 :     _RanIt _Mid = _First + ((_Last - _First) >> 1); // shift for codegen

  00007	8b 5d 10	 mov	 ebx, DWORD PTR __Last$[ebp]
  0000a	b8 ab aa aa 2a	 mov	 eax, 715827883		; 2aaaaaabH
  0000f	56		 push	 esi
  00010	57		 push	 edi
  00011	8b 7d 0c	 mov	 edi, DWORD PTR __First$[ebp]
  00014	8b cb		 mov	 ecx, ebx
  00016	2b cf		 sub	 ecx, edi

; 4039 :     _Guess_median_unchecked(_First, _Mid, _Prev_iter(_Last), _Pred);

  00018	83 c3 f4	 add	 ebx, -12		; fffffff4H
  0001b	f7 e9		 imul	 ecx

; 4022 :     const _Diff _Count = _Last - _First;

  0001d	b8 ab aa aa 2a	 mov	 eax, 715827883		; 2aaaaaabH

; 4039 :     _Guess_median_unchecked(_First, _Mid, _Prev_iter(_Last), _Pred);

  00022	89 5d f4	 mov	 DWORD PTR __Last$1$[ebp], ebx
  00025	d1 fa		 sar	 edx, 1
  00027	8b ca		 mov	 ecx, edx
  00029	c1 e9 1f	 shr	 ecx, 31			; 0000001fH
  0002c	03 ca		 add	 ecx, edx
  0002e	d1 f9		 sar	 ecx, 1
  00030	8d 0c 49	 lea	 ecx, DWORD PTR [ecx+ecx*2]
  00033	8d 34 8f	 lea	 esi, DWORD PTR [edi+ecx*4]

; 4022 :     const _Diff _Count = _Last - _First;

  00036	8b cb		 mov	 ecx, ebx
  00038	2b cf		 sub	 ecx, edi

; 4023 :     if (40 < _Count) { // Tukey's ninther

  0003a	8b 7d 14	 mov	 edi, DWORD PTR __Pred$[ebp]
  0003d	f7 e9		 imul	 ecx
  0003f	8b 4d 0c	 mov	 ecx, DWORD PTR __First$[ebp]
  00042	d1 fa		 sar	 edx, 1
  00044	8b c2		 mov	 eax, edx
  00046	c1 e8 1f	 shr	 eax, 31			; 0000001fH
  00049	03 c2		 add	 eax, edx
  0004b	83 f8 28	 cmp	 eax, 40			; 00000028H
  0004e	7e 59		 jle	 SHORT $LN35@Partition_

; 4024 :         const _Diff _Step     = (_Count + 1) >> 3; // +1 can't overflow because range was made inclusive in caller
; 4025 :         const _Diff _Two_step = _Step << 1; // note: intentionally discards low-order bit
; 4026 :         _Med3_unchecked(_First, _First + _Step, _First + _Two_step, _Pred);

  00050	ff 75 14	 push	 DWORD PTR __Pred$[ebp]
  00053	40		 inc	 eax
  00054	c1 f8 03	 sar	 eax, 3
  00057	8d 1c 40	 lea	 ebx, DWORD PTR [eax+eax*2]
  0005a	8d 3c 40	 lea	 edi, DWORD PTR [eax+eax*2]
  0005d	c1 e3 03	 shl	 ebx, 3
  00060	c1 e7 02	 shl	 edi, 2
  00063	8d 04 0b	 lea	 eax, DWORD PTR [ebx+ecx]
  00066	8d 14 0f	 lea	 edx, DWORD PTR [edi+ecx]
  00069	50		 push	 eax
  0006a	52		 push	 edx
  0006b	51		 push	 ecx
  0006c	89 55 f8	 mov	 DWORD PTR $T2[ebp], edx
  0006f	e8 00 00 00 00	 call	 ??$_Med3_unchecked@PAUSDumpData@@P6A_NABU1@0@Z@std@@YAXPAUSDumpData@@00P6A_NABU1@1@Z@Z ; std::_Med3_unchecked<SDumpData *,bool (__cdecl*)(SDumpData const &,SDumpData const &)>

; 4027 :         _Med3_unchecked(_Mid - _Step, _Mid, _Mid + _Step, _Pred);

  00074	ff 75 14	 push	 DWORD PTR __Pred$[ebp]
  00077	8d 04 37	 lea	 eax, DWORD PTR [edi+esi]
  0007a	50		 push	 eax
  0007b	8b c6		 mov	 eax, esi
  0007d	2b c7		 sub	 eax, edi
  0007f	56		 push	 esi
  00080	50		 push	 eax
  00081	e8 00 00 00 00	 call	 ??$_Med3_unchecked@PAUSDumpData@@P6A_NABU1@0@Z@std@@YAXPAUSDumpData@@00P6A_NABU1@1@Z@Z ; std::_Med3_unchecked<SDumpData *,bool (__cdecl*)(SDumpData const &,SDumpData const &)>

; 4028 :         _Med3_unchecked(_Last - _Two_step, _Last - _Step, _Last, _Pred);

  00086	8b 4d f4	 mov	 ecx, DWORD PTR __Last$1$[ebp]
  00089	8b c1		 mov	 eax, ecx
  0008b	2b c7		 sub	 eax, edi
  0008d	8b 7d 14	 mov	 edi, DWORD PTR __Pred$[ebp]
  00090	57		 push	 edi
  00091	51		 push	 ecx
  00092	50		 push	 eax
  00093	2b cb		 sub	 ecx, ebx
  00095	89 45 f4	 mov	 DWORD PTR $T1[ebp], eax
  00098	51		 push	 ecx
  00099	e8 00 00 00 00	 call	 ??$_Med3_unchecked@PAUSDumpData@@P6A_NABU1@0@Z@std@@YAXPAUSDumpData@@00P6A_NABU1@1@Z@Z ; std::_Med3_unchecked<SDumpData *,bool (__cdecl*)(SDumpData const &,SDumpData const &)>

; 4029 :         _Med3_unchecked(_First + _Step, _Mid, _Last - _Step, _Pred);
; 4030 :     } else {

  0009e	8b 45 f4	 mov	 eax, DWORD PTR $T1[ebp]
  000a1	83 c4 30	 add	 esp, 48			; 00000030H
  000a4	8b 4d f8	 mov	 ecx, DWORD PTR $T2[ebp]
  000a7	eb 02		 jmp	 SHORT $LN36@Partition_
$LN35@Partition_:

; 4031 :         _Med3_unchecked(_First, _Mid, _Last, _Pred);

  000a9	8b c3		 mov	 eax, ebx
$LN36@Partition_:

; 4040 :     _RanIt _Pfirst = _Mid;

  000ab	57		 push	 edi
  000ac	50		 push	 eax
  000ad	56		 push	 esi
  000ae	51		 push	 ecx
  000af	e8 00 00 00 00	 call	 ??$_Med3_unchecked@PAUSDumpData@@P6A_NABU1@0@Z@std@@YAXPAUSDumpData@@00P6A_NABU1@1@Z@Z ; std::_Med3_unchecked<SDumpData *,bool (__cdecl*)(SDumpData const &,SDumpData const &)>
  000b4	83 c4 10	 add	 esp, 16			; 00000010H

; 4041 :     _RanIt _Plast  = _Next_iter(_Pfirst);

  000b7	8d 5e 0c	 lea	 ebx, DWORD PTR [esi+12]
  000ba	89 5d fc	 mov	 DWORD PTR __Plast$1$[ebp], ebx

; 4042 : 
; 4043 :     while (_First < _Pfirst && !_DEBUG_LT_PRED(_Pred, *_Prev_iter(_Pfirst), *_Pfirst)
; 4044 :            && !_Pred(*_Pfirst, *_Prev_iter(_Pfirst))) {

  000bd	39 75 0c	 cmp	 DWORD PTR __First$[ebp], esi
  000c0	73 2b		 jae	 SHORT $LN70@Partition_
  000c2	8b 5d 0c	 mov	 ebx, DWORD PTR __First$[ebp]
$LL2@Partition_:
  000c5	8d 46 f4	 lea	 eax, DWORD PTR [esi-12]
  000c8	56		 push	 esi
  000c9	50		 push	 eax
  000ca	89 45 f4	 mov	 DWORD PTR tv460[ebp], eax
  000cd	ff d7		 call	 edi
  000cf	83 c4 08	 add	 esp, 8
  000d2	84 c0		 test	 al, al
  000d4	75 14		 jne	 SHORT $LN94@Partition_
  000d6	ff 75 f4	 push	 DWORD PTR tv460[ebp]
  000d9	56		 push	 esi
  000da	ff d7		 call	 edi
  000dc	83 c4 08	 add	 esp, 8
  000df	84 c0		 test	 al, al
  000e1	75 07		 jne	 SHORT $LN94@Partition_

; 4045 :         --_Pfirst;

  000e3	8b 75 f4	 mov	 esi, DWORD PTR tv460[ebp]
  000e6	3b de		 cmp	 ebx, esi
  000e8	72 db		 jb	 SHORT $LL2@Partition_
$LN94@Partition_:
  000ea	8b 5d fc	 mov	 ebx, DWORD PTR __Plast$1$[ebp]
$LN70@Partition_:

; 4046 :     }
; 4047 : 
; 4048 :     while (_Plast < _Last && !_DEBUG_LT_PRED(_Pred, *_Plast, *_Pfirst) && !_Pred(*_Pfirst, *_Plast)) {

  000ed	8b 45 10	 mov	 eax, DWORD PTR __Last$[ebp]
  000f0	3b d8		 cmp	 ebx, eax
  000f2	73 28		 jae	 SHORT $LN5@Partition_
$LL4@Partition_:
  000f4	56		 push	 esi
  000f5	53		 push	 ebx
  000f6	ff d7		 call	 edi
  000f8	83 c4 08	 add	 esp, 8
  000fb	84 c0		 test	 al, al
  000fd	75 17		 jne	 SHORT $LN99@Partition_
  000ff	53		 push	 ebx
  00100	56		 push	 esi
  00101	ff d7		 call	 edi
  00103	83 c4 08	 add	 esp, 8
  00106	84 c0		 test	 al, al
  00108	8b 45 10	 mov	 eax, DWORD PTR __Last$[ebp]
  0010b	75 0c		 jne	 SHORT $LN95@Partition_

; 4049 :         ++_Plast;

  0010d	83 c3 0c	 add	 ebx, 12			; 0000000cH
  00110	3b d8		 cmp	 ebx, eax
  00112	72 e0		 jb	 SHORT $LL4@Partition_

; 4046 :     }
; 4047 : 
; 4048 :     while (_Plast < _Last && !_DEBUG_LT_PRED(_Pred, *_Plast, *_Pfirst) && !_Pred(*_Pfirst, *_Plast)) {

  00114	eb 03		 jmp	 SHORT $LN95@Partition_
$LN99@Partition_:
  00116	8b 45 10	 mov	 eax, DWORD PTR __Last$[ebp]
$LN95@Partition_:
  00119	89 5d fc	 mov	 DWORD PTR __Plast$1$[ebp], ebx
$LN5@Partition_:

; 4050 :     }
; 4051 : 
; 4052 :     _RanIt _Gfirst = _Plast;

  0011c	8b fb		 mov	 edi, ebx

; 4053 :     _RanIt _Glast  = _Pfirst;

  0011e	8b d6		 mov	 edx, esi
$LN103@Partition_:

; 4056 :         for (; _Gfirst < _Last; ++_Gfirst) {

  00120	89 55 f8	 mov	 DWORD PTR __Glast$1$[ebp], edx
$LN102@Partition_:
  00123	89 7d f4	 mov	 DWORD PTR __Gfirst$1$[ebp], edi
$LL6@Partition_:
  00126	3b f8		 cmp	 edi, eax
  00128	73 52		 jae	 SHORT $LN74@Partition_
  0012a	66 0f 1f 44 00
	00		 npad	 6
$LL11@Partition_:

; 4057 :             if (_DEBUG_LT_PRED(_Pred, *_Pfirst, *_Gfirst)) {

  00130	57		 push	 edi
  00131	56		 push	 esi
  00132	ff 55 14	 call	 DWORD PTR __Pred$[ebp]
  00135	83 c4 08	 add	 esp, 8
  00138	84 c0		 test	 al, al
  0013a	75 2f		 jne	 SHORT $LN9@Partition_

; 4058 :             } else if (_Pred(*_Gfirst, *_Pfirst)) {

  0013c	56		 push	 esi
  0013d	57		 push	 edi
  0013e	ff 55 14	 call	 DWORD PTR __Pred$[ebp]
  00141	83 c4 08	 add	 esp, 8
  00144	84 c0		 test	 al, al
  00146	75 2b		 jne	 SHORT $LN96@Partition_

; 4059 :                 break;
; 4060 :             } else if (_Plast != _Gfirst) {

  00148	3b df		 cmp	 ebx, edi
  0014a	74 1c		 je	 SHORT $LN19@Partition_
; File C:\Program Files (x86)\Microsoft Visual Studio\2019\Community\VC\Tools\MSVC\14.27.29110\include\utility

; 107  :     _Left    = _STD move(_Right);

  0014c	f3 0f 7e 07	 movq	 xmm0, QWORD PTR [edi]
  00150	f3 0f 7e 0b	 movq	 xmm1, QWORD PTR [ebx]
  00154	8b 4b 08	 mov	 ecx, DWORD PTR [ebx+8]
  00157	66 0f d6 03	 movq	 QWORD PTR [ebx], xmm0
  0015b	8b 47 08	 mov	 eax, DWORD PTR [edi+8]
  0015e	89 43 08	 mov	 DWORD PTR [ebx+8], eax

; 108  :     _Right   = _STD move(_Tmp);

  00161	66 0f d6 0f	 movq	 QWORD PTR [edi], xmm1
  00165	89 4f 08	 mov	 DWORD PTR [edi+8], ecx
$LN19@Partition_:
; File C:\Program Files (x86)\Microsoft Visual Studio\2019\Community\VC\Tools\MSVC\14.27.29110\include\algorithm

; 4056 :         for (; _Gfirst < _Last; ++_Gfirst) {

  00168	83 c3 0c	 add	 ebx, 12			; 0000000cH
$LN9@Partition_:
  0016b	83 c7 0c	 add	 edi, 12			; 0000000cH
  0016e	3b 7d 10	 cmp	 edi, DWORD PTR __Last$[ebp]
  00171	72 bd		 jb	 SHORT $LL11@Partition_
$LN96@Partition_:
  00173	8b 55 f8	 mov	 edx, DWORD PTR __Glast$1$[ebp]
  00176	89 5d fc	 mov	 DWORD PTR __Plast$1$[ebp], ebx
  00179	89 7d f4	 mov	 DWORD PTR __Gfirst$1$[ebp], edi
$LN74@Partition_:

; 4068 :         for (; _First < _Glast; --_Glast) {

  0017c	8b 45 0c	 mov	 eax, DWORD PTR __First$[ebp]
  0017f	3b d0		 cmp	 edx, eax
  00181	76 68		 jbe	 SHORT $LN101@Partition_
  00183	8b 5d f8	 mov	 ebx, DWORD PTR __Glast$1$[ebp]
  00186	8d 7b f4	 lea	 edi, DWORD PTR [ebx-12]
  00189	0f 1f 80 00 00
	00 00		 npad	 7
$LL14@Partition_:

; 4069 :             if (_DEBUG_LT_PRED(_Pred, *_Prev_iter(_Glast), *_Pfirst)) {

  00190	56		 push	 esi
  00191	57		 push	 edi
  00192	ff 55 14	 call	 DWORD PTR __Pred$[ebp]
  00195	83 c4 08	 add	 esp, 8
  00198	84 c0		 test	 al, al
  0019a	75 2f		 jne	 SHORT $LN12@Partition_

; 4070 :             } else if (_Pred(*_Pfirst, *_Prev_iter(_Glast))) {

  0019c	57		 push	 edi
  0019d	56		 push	 esi
  0019e	ff 55 14	 call	 DWORD PTR __Pred$[ebp]
  001a1	83 c4 08	 add	 esp, 8
  001a4	84 c0		 test	 al, al
  001a6	75 32		 jne	 SHORT $LN100@Partition_

; 4071 :                 break;
; 4072 :             } else if (--_Pfirst != _Prev_iter(_Glast)) {

  001a8	83 ee 0c	 sub	 esi, 12			; 0000000cH
  001ab	3b f7		 cmp	 esi, edi
  001ad	74 1c		 je	 SHORT $LN12@Partition_
; File C:\Program Files (x86)\Microsoft Visual Studio\2019\Community\VC\Tools\MSVC\14.27.29110\include\utility

; 107  :     _Left    = _STD move(_Right);

  001af	f3 0f 7e 07	 movq	 xmm0, QWORD PTR [edi]
  001b3	f3 0f 7e 0e	 movq	 xmm1, QWORD PTR [esi]
  001b7	8b 4e 08	 mov	 ecx, DWORD PTR [esi+8]
  001ba	66 0f d6 06	 movq	 QWORD PTR [esi], xmm0
  001be	8b 47 08	 mov	 eax, DWORD PTR [edi+8]
  001c1	89 46 08	 mov	 DWORD PTR [esi+8], eax

; 108  :     _Right   = _STD move(_Tmp);

  001c4	66 0f d6 0f	 movq	 QWORD PTR [edi], xmm1
  001c8	89 4f 08	 mov	 DWORD PTR [edi+8], ecx
$LN12@Partition_:
; File C:\Program Files (x86)\Microsoft Visual Studio\2019\Community\VC\Tools\MSVC\14.27.29110\include\algorithm

; 4068 :         for (; _First < _Glast; --_Glast) {

  001cb	8b 45 0c	 mov	 eax, DWORD PTR __First$[ebp]
  001ce	83 eb 0c	 sub	 ebx, 12			; 0000000cH
  001d1	83 ef 0c	 sub	 edi, 12			; 0000000cH
  001d4	3b c3		 cmp	 eax, ebx
  001d6	72 b8		 jb	 SHORT $LL14@Partition_

; 4070 :             } else if (_Pred(*_Pfirst, *_Prev_iter(_Glast))) {

  001d8	eb 03		 jmp	 SHORT $LN97@Partition_
$LN100@Partition_:
  001da	8b 45 0c	 mov	 eax, DWORD PTR __First$[ebp]
$LN97@Partition_:
  001dd	8b 7d f4	 mov	 edi, DWORD PTR __Gfirst$1$[ebp]
  001e0	89 5d f8	 mov	 DWORD PTR __Glast$1$[ebp], ebx
  001e3	8b 55 f8	 mov	 edx, DWORD PTR __Glast$1$[ebp]

; 4073 :                 _STD iter_swap(_Pfirst, _Prev_iter(_Glast));
; 4074 :             }
; 4075 :         }
; 4076 : 
; 4077 :         if (_Glast == _First && _Gfirst == _Last) {

  001e6	3b d0		 cmp	 edx, eax
  001e8	8b 5d fc	 mov	 ebx, DWORD PTR __Plast$1$[ebp]
$LN101@Partition_:
  001eb	75 59		 jne	 SHORT $LN27@Partition_
  001ed	3b 7d 10	 cmp	 edi, DWORD PTR __Last$[ebp]
  001f0	0f 84 d0 00 00
	00		 je	 $LN76@Partition_

; 4079 :         }
; 4080 : 
; 4081 :         if (_Glast == _First) { // no room at bottom, rotate pivot upward
; 4082 :             if (_Plast != _Gfirst) {

  001f6	3b df		 cmp	 ebx, edi
  001f8	74 1c		 je	 SHORT $LN51@Partition_
; File C:\Program Files (x86)\Microsoft Visual Studio\2019\Community\VC\Tools\MSVC\14.27.29110\include\utility

; 107  :     _Left    = _STD move(_Right);

  001fa	f3 0f 7e 03	 movq	 xmm0, QWORD PTR [ebx]
  001fe	f3 0f 7e 0e	 movq	 xmm1, QWORD PTR [esi]
  00202	8b 4e 08	 mov	 ecx, DWORD PTR [esi+8]
  00205	66 0f d6 06	 movq	 QWORD PTR [esi], xmm0
  00209	8b 43 08	 mov	 eax, DWORD PTR [ebx+8]
  0020c	89 46 08	 mov	 DWORD PTR [esi+8], eax

; 108  :     _Right   = _STD move(_Tmp);

  0020f	66 0f d6 0b	 movq	 QWORD PTR [ebx], xmm1
  00213	89 4b 08	 mov	 DWORD PTR [ebx+8], ecx
$LN51@Partition_:

; 107  :     _Left    = _STD move(_Right);

  00216	f3 0f 7e 07	 movq	 xmm0, QWORD PTR [edi]
; File C:\Program Files (x86)\Microsoft Visual Studio\2019\Community\VC\Tools\MSVC\14.27.29110\include\algorithm

; 4086 :             ++_Plast;

  0021a	83 c3 0c	 add	 ebx, 12			; 0000000cH
; File C:\Program Files (x86)\Microsoft Visual Studio\2019\Community\VC\Tools\MSVC\14.27.29110\include\utility

; 106  :     _Ty _Tmp = _STD move(_Left);

  0021d	f3 0f 7e 0e	 movq	 xmm1, QWORD PTR [esi]
  00221	8b 4e 08	 mov	 ecx, DWORD PTR [esi+8]

; 107  :     _Left    = _STD move(_Right);

  00224	66 0f d6 06	 movq	 QWORD PTR [esi], xmm0
  00228	8b 47 08	 mov	 eax, DWORD PTR [edi+8]
  0022b	89 46 08	 mov	 DWORD PTR [esi+8], eax
; File C:\Program Files (x86)\Microsoft Visual Studio\2019\Community\VC\Tools\MSVC\14.27.29110\include\algorithm

; 4088 :             ++_Pfirst;

  0022e	83 c6 0c	 add	 esi, 12			; 0000000cH

; 4089 :             ++_Gfirst;

  00231	8b 45 10	 mov	 eax, DWORD PTR __Last$[ebp]
; File C:\Program Files (x86)\Microsoft Visual Studio\2019\Community\VC\Tools\MSVC\14.27.29110\include\utility

; 108  :     _Right   = _STD move(_Tmp);

  00234	66 0f d6 0f	 movq	 QWORD PTR [edi], xmm1
  00238	89 4f 08	 mov	 DWORD PTR [edi+8], ecx
; File C:\Program Files (x86)\Microsoft Visual Studio\2019\Community\VC\Tools\MSVC\14.27.29110\include\algorithm

; 4089 :             ++_Gfirst;

  0023b	83 c7 0c	 add	 edi, 12			; 0000000cH
  0023e	89 5d fc	 mov	 DWORD PTR __Plast$1$[ebp], ebx
  00241	e9 dd fe ff ff	 jmp	 $LN102@Partition_
$LN27@Partition_:

; 4090 :         } else if (_Gfirst == _Last) { // no room at top, rotate pivot downward

  00246	83 c2 f4	 add	 edx, -12		; fffffff4H
  00249	89 55 f8	 mov	 DWORD PTR __Glast$1$[ebp], edx
  0024c	3b 7d 10	 cmp	 edi, DWORD PTR __Last$[ebp]
  0024f	75 4e		 jne	 SHORT $LN30@Partition_

; 4091 :             if (--_Glast != --_Pfirst) {

  00251	83 ee 0c	 sub	 esi, 12			; 0000000cH
  00254	3b d6		 cmp	 edx, esi
  00256	74 1c		 je	 SHORT $LN59@Partition_
; File C:\Program Files (x86)\Microsoft Visual Studio\2019\Community\VC\Tools\MSVC\14.27.29110\include\utility

; 107  :     _Left    = _STD move(_Right);

  00258	f3 0f 7e 06	 movq	 xmm0, QWORD PTR [esi]
  0025c	f3 0f 7e 0a	 movq	 xmm1, QWORD PTR [edx]
  00260	8b 4a 08	 mov	 ecx, DWORD PTR [edx+8]
  00263	66 0f d6 02	 movq	 QWORD PTR [edx], xmm0
  00267	8b 46 08	 mov	 eax, DWORD PTR [esi+8]
  0026a	89 42 08	 mov	 DWORD PTR [edx+8], eax

; 108  :     _Right   = _STD move(_Tmp);

  0026d	66 0f d6 0e	 movq	 QWORD PTR [esi], xmm1
  00271	89 4e 08	 mov	 DWORD PTR [esi+8], ecx
$LN59@Partition_:

; 107  :     _Left    = _STD move(_Right);

  00274	f3 0f 7e 43 f4	 movq	 xmm0, QWORD PTR [ebx-12]
; File C:\Program Files (x86)\Microsoft Visual Studio\2019\Community\VC\Tools\MSVC\14.27.29110\include\algorithm

; 4095 :             _STD iter_swap(_Pfirst, --_Plast);

  00279	83 eb 0c	 sub	 ebx, 12			; 0000000cH
; File C:\Program Files (x86)\Microsoft Visual Studio\2019\Community\VC\Tools\MSVC\14.27.29110\include\utility

; 106  :     _Ty _Tmp = _STD move(_Left);

  0027c	f3 0f 7e 0e	 movq	 xmm1, QWORD PTR [esi]
  00280	8b 4e 08	 mov	 ecx, DWORD PTR [esi+8]

; 107  :     _Left    = _STD move(_Right);

  00283	66 0f d6 06	 movq	 QWORD PTR [esi], xmm0
  00287	8b 43 08	 mov	 eax, DWORD PTR [ebx+8]
  0028a	89 46 08	 mov	 DWORD PTR [esi+8], eax
; File C:\Program Files (x86)\Microsoft Visual Studio\2019\Community\VC\Tools\MSVC\14.27.29110\include\algorithm

; 4096 :         } else {

  0028d	8b 45 10	 mov	 eax, DWORD PTR __Last$[ebp]
; File C:\Program Files (x86)\Microsoft Visual Studio\2019\Community\VC\Tools\MSVC\14.27.29110\include\utility

; 108  :     _Right   = _STD move(_Tmp);

  00290	66 0f d6 0b	 movq	 QWORD PTR [ebx], xmm1
; File C:\Program Files (x86)\Microsoft Visual Studio\2019\Community\VC\Tools\MSVC\14.27.29110\include\algorithm

; 4095 :             _STD iter_swap(_Pfirst, --_Plast);

  00294	89 5d fc	 mov	 DWORD PTR __Plast$1$[ebp], ebx
; File C:\Program Files (x86)\Microsoft Visual Studio\2019\Community\VC\Tools\MSVC\14.27.29110\include\utility

; 108  :     _Right   = _STD move(_Tmp);

  00297	89 4b 08	 mov	 DWORD PTR [ebx+8], ecx
; File C:\Program Files (x86)\Microsoft Visual Studio\2019\Community\VC\Tools\MSVC\14.27.29110\include\algorithm

; 4096 :         } else {

  0029a	e9 87 fe ff ff	 jmp	 $LL6@Partition_
$LN30@Partition_:
; File C:\Program Files (x86)\Microsoft Visual Studio\2019\Community\VC\Tools\MSVC\14.27.29110\include\utility

; 106  :     _Ty _Tmp = _STD move(_Left);

  0029f	f3 0f 7e 0f	 movq	 xmm1, QWORD PTR [edi]
  002a3	8b 4f 08	 mov	 ecx, DWORD PTR [edi+8]

; 107  :     _Left    = _STD move(_Right);

  002a6	f3 0f 7e 02	 movq	 xmm0, QWORD PTR [edx]
  002aa	66 0f d6 07	 movq	 QWORD PTR [edi], xmm0
  002ae	8b 42 08	 mov	 eax, DWORD PTR [edx+8]
  002b1	89 47 08	 mov	 DWORD PTR [edi+8], eax
; File C:\Program Files (x86)\Microsoft Visual Studio\2019\Community\VC\Tools\MSVC\14.27.29110\include\algorithm

; 4098 :             ++_Gfirst;

  002b4	83 c7 0c	 add	 edi, 12			; 0000000cH

; 4100 :     }

  002b7	8b 45 10	 mov	 eax, DWORD PTR __Last$[ebp]
; File C:\Program Files (x86)\Microsoft Visual Studio\2019\Community\VC\Tools\MSVC\14.27.29110\include\utility

; 108  :     _Right   = _STD move(_Tmp);

  002ba	66 0f d6 0a	 movq	 QWORD PTR [edx], xmm1
  002be	89 4a 08	 mov	 DWORD PTR [edx+8], ecx
; File C:\Program Files (x86)\Microsoft Visual Studio\2019\Community\VC\Tools\MSVC\14.27.29110\include\algorithm

; 4100 :     }

  002c1	e9 5a fe ff ff	 jmp	 $LN103@Partition_
$LN76@Partition_:
; File C:\Program Files (x86)\Microsoft Visual Studio\2019\Community\VC\Tools\MSVC\14.27.29110\include\utility

; 192  :         : first(_STD forward<_Other1>(_Val1)), second(_STD forward<_Other2>(_Val2)) {}

  002c6	8b 45 08	 mov	 eax, DWORD PTR ___$ReturnUdt$[ebp]
; File C:\Program Files (x86)\Microsoft Visual Studio\2019\Community\VC\Tools\MSVC\14.27.29110\include\algorithm

; 4078 :             return pair<_RanIt, _RanIt>(_Pfirst, _Plast);

  002c9	5f		 pop	 edi
; File C:\Program Files (x86)\Microsoft Visual Studio\2019\Community\VC\Tools\MSVC\14.27.29110\include\utility

; 192  :         : first(_STD forward<_Other1>(_Val1)), second(_STD forward<_Other2>(_Val2)) {}

  002ca	89 30		 mov	 DWORD PTR [eax], esi
; File C:\Program Files (x86)\Microsoft Visual Studio\2019\Community\VC\Tools\MSVC\14.27.29110\include\algorithm

; 4078 :             return pair<_RanIt, _RanIt>(_Pfirst, _Plast);

  002cc	5e		 pop	 esi
; File C:\Program Files (x86)\Microsoft Visual Studio\2019\Community\VC\Tools\MSVC\14.27.29110\include\utility

; 192  :         : first(_STD forward<_Other1>(_Val1)), second(_STD forward<_Other2>(_Val2)) {}

  002cd	89 58 04	 mov	 DWORD PTR [eax+4], ebx
; File C:\Program Files (x86)\Microsoft Visual Studio\2019\Community\VC\Tools\MSVC\14.27.29110\include\algorithm

; 4078 :             return pair<_RanIt, _RanIt>(_Pfirst, _Plast);

  002d0	5b		 pop	 ebx

; 4101 : }

  002d1	8b e5		 mov	 esp, ebp
  002d3	5d		 pop	 ebp
  002d4	c3		 ret	 0
??$_Partition_by_median_guess_unchecked@PAUSDumpData@@P6A_NABU1@0@Z@std@@YA?AU?$pair@PAUSDumpData@@PAU1@@0@PAUSDumpData@@0P6A_NABU2@1@Z@Z ENDP ; std::_Partition_by_median_guess_unchecked<SDumpData *,bool (__cdecl*)(SDumpData const &,SDumpData const &)>
_TEXT	ENDS
; Function compile flags: /Ogtp
; File C:\Program Files (x86)\Microsoft Visual Studio\2019\Community\VC\Tools\MSVC\14.27.29110\include\algorithm
;	COMDAT ??$_Make_heap_unchecked@PAUSDumpData@@P6A_NABU1@0@Z@std@@YAXPAUSDumpData@@0P6A_NABU1@1@Z@Z
_TEXT	SEGMENT
__Val$1 = -28						; size = 12
tv168 = -16						; size = 4
tv178 = -12						; size = 4
tv195 = -8						; size = 4
__Bottom$1$ = -4					; size = 4
__Max_sequence_non_leaf$1$ = 8				; size = 4
__First$ = 8						; size = 4
__Hole$1$ = 12						; size = 4
__Last$ = 12						; size = 4
__Pred$ = 16						; size = 4
??$_Make_heap_unchecked@PAUSDumpData@@P6A_NABU1@0@Z@std@@YAXPAUSDumpData@@0P6A_NABU1@1@Z@Z PROC ; std::_Make_heap_unchecked<SDumpData *,bool (__cdecl*)(SDumpData const &,SDumpData const &)>, COMDAT

; 3416 : _CONSTEXPR20 void _Make_heap_unchecked(_RanIt _First, _RanIt _Last, _Pr _Pred) {

  00000	55		 push	 ebp
  00001	8b ec		 mov	 ebp, esp
  00003	83 ec 1c	 sub	 esp, 28			; 0000001cH

; 3417 :     // make nontrivial [_First, _Last) into a heap, using _Pred
; 3418 :     using _Diff   = _Iter_diff_t<_RanIt>;
; 3419 :     _Diff _Bottom = _Last - _First;

  00006	8b 4d 0c	 mov	 ecx, DWORD PTR __Last$[ebp]
  00009	b8 ab aa aa 2a	 mov	 eax, 715827883		; 2aaaaaabH
  0000e	53		 push	 ebx
  0000f	8b 5d 08	 mov	 ebx, DWORD PTR __First$[ebp]
  00012	2b cb		 sub	 ecx, ebx
  00014	f7 e9		 imul	 ecx
  00016	d1 fa		 sar	 edx, 1
  00018	8b c2		 mov	 eax, edx
  0001a	c1 e8 1f	 shr	 eax, 31			; 0000001fH
  0001d	03 c2		 add	 eax, edx

; 3420 :     for (_Diff _Hole = _Bottom >> 1; 0 < _Hole;) { // shift for codegen

  0001f	8b c8		 mov	 ecx, eax
  00021	89 45 fc	 mov	 DWORD PTR __Bottom$1$[ebp], eax
  00024	d1 f9		 sar	 ecx, 1
  00026	85 c9		 test	 ecx, ecx
  00028	0f 8e 08 01 00
	00		 jle	 $LN3@Make_heap_

; 3417 :     // make nontrivial [_First, _Last) into a heap, using _Pred
; 3418 :     using _Diff   = _Iter_diff_t<_RanIt>;
; 3419 :     _Diff _Bottom = _Last - _First;

  0002e	48		 dec	 eax
  0002f	8b d0		 mov	 edx, eax
  00031	89 45 f8	 mov	 DWORD PTR tv195[ebp], eax
  00034	d1 fa		 sar	 edx, 1
  00036	8d 04 49	 lea	 eax, DWORD PTR [ecx+ecx*2]
  00039	56		 push	 esi
  0003a	89 55 08	 mov	 DWORD PTR __Max_sequence_non_leaf$1$[ebp], edx
  0003d	8d 04 83	 lea	 eax, DWORD PTR [ebx+eax*4]
  00040	57		 push	 edi
$LL2@Make_heap_:

; 3421 :         // reheap top half, bottom to top
; 3422 :         --_Hole;
; 3423 :         _Iter_value_t<_RanIt> _Val = _STD move(*(_First + _Hole));

  00041	f3 0f 7e 40 f4	 movq	 xmm0, QWORD PTR [eax-12]
  00046	83 e8 0c	 sub	 eax, 12			; 0000000cH
  00049	49		 dec	 ecx
  0004a	89 45 f0	 mov	 DWORD PTR tv168[ebp], eax
  0004d	89 4d 0c	 mov	 DWORD PTR __Hole$1$[ebp], ecx

; 3424 :         _Pop_heap_hole_by_index(_First, _Hole, _Bottom, _STD move(_Val), _Pred);

  00050	8b f9		 mov	 edi, ecx
  00052	66 0f d6 45 e4	 movq	 QWORD PTR __Val$1[ebp], xmm0

; 3359 :     _Diff _Idx       = _Hole;

  00057	8b f1		 mov	 esi, ecx

; 3421 :         // reheap top half, bottom to top
; 3422 :         --_Hole;
; 3423 :         _Iter_value_t<_RanIt> _Val = _STD move(*(_First + _Hole));

  00059	8b 40 08	 mov	 eax, DWORD PTR [eax+8]
  0005c	89 45 ec	 mov	 DWORD PTR __Val$1[ebp+8], eax

; 3364 :     while (_Idx < _Max_sequence_non_leaf) { // move _Hole down to larger child

  0005f	3b ca		 cmp	 ecx, edx
  00061	7d 41		 jge	 SHORT $LN8@Make_heap_
$LL7@Make_heap_:

; 3365 :         _Idx = 2 * _Idx + 2;

  00063	8d 34 75 02 00
	00 00		 lea	 esi, DWORD PTR [esi*2+2]

; 3366 :         if (_DEBUG_LT_PRED(_Pred, *(_First + _Idx), *(_First + (_Idx - 1)))) {

  0006a	8d 04 76	 lea	 eax, DWORD PTR [esi+esi*2]
  0006d	8d 0c 83	 lea	 ecx, DWORD PTR [ebx+eax*4]
  00070	8d 41 f4	 lea	 eax, DWORD PTR [ecx-12]
  00073	50		 push	 eax
  00074	51		 push	 ecx
  00075	ff 55 10	 call	 DWORD PTR __Pred$[ebp]
  00078	83 c4 08	 add	 esp, 8
  0007b	84 c0		 test	 al, al
  0007d	74 01		 je	 SHORT $LN9@Make_heap_

; 3367 :             --_Idx;

  0007f	4e		 dec	 esi
$LN9@Make_heap_:

; 3368 :         }
; 3369 :         *(_First + _Hole) = _STD move(*(_First + _Idx));

  00080	8d 04 76	 lea	 eax, DWORD PTR [esi+esi*2]
  00083	f3 0f 7e 04 83	 movq	 xmm0, QWORD PTR [ebx+eax*4]
  00088	8d 14 83	 lea	 edx, DWORD PTR [ebx+eax*4]
  0008b	8d 04 7f	 lea	 eax, DWORD PTR [edi+edi*2]

; 3370 :         _Hole             = _Idx;

  0008e	8b fe		 mov	 edi, esi
  00090	8d 0c 83	 lea	 ecx, DWORD PTR [ebx+eax*4]
  00093	66 0f d6 01	 movq	 QWORD PTR [ecx], xmm0
  00097	8b 42 08	 mov	 eax, DWORD PTR [edx+8]
  0009a	8b 55 08	 mov	 edx, DWORD PTR __Max_sequence_non_leaf$1$[ebp]
  0009d	89 41 08	 mov	 DWORD PTR [ecx+8], eax
  000a0	3b f2		 cmp	 esi, edx
  000a2	7c bf		 jl	 SHORT $LL7@Make_heap_
$LN8@Make_heap_:

; 3371 :     }
; 3372 : 
; 3373 :     if (_Idx == _Max_sequence_non_leaf && _Bottom % 2 == 0) { // only child at bottom, move _Hole down to it

  000a4	3b f2		 cmp	 esi, edx
  000a6	75 26		 jne	 SHORT $LN10@Make_heap_
  000a8	8b 45 fc	 mov	 eax, DWORD PTR __Bottom$1$[ebp]
  000ab	a8 01		 test	 al, 1
  000ad	75 1f		 jne	 SHORT $LN10@Make_heap_

; 3374 :         *(_First + _Hole) = _STD move(*(_First + (_Bottom - 1)));

  000af	8d 04 40	 lea	 eax, DWORD PTR [eax+eax*2]
  000b2	f3 0f 7e 44 83
	f4		 movq	 xmm0, QWORD PTR [ebx+eax*4-12]
  000b8	8d 14 83	 lea	 edx, DWORD PTR [ebx+eax*4]
  000bb	8d 04 7f	 lea	 eax, DWORD PTR [edi+edi*2]

; 3375 :         _Hole             = _Bottom - 1;

  000be	8b 7d f8	 mov	 edi, DWORD PTR tv195[ebp]
  000c1	8d 0c 83	 lea	 ecx, DWORD PTR [ebx+eax*4]
  000c4	66 0f d6 01	 movq	 QWORD PTR [ecx], xmm0
  000c8	8b 42 fc	 mov	 eax, DWORD PTR [edx-4]
  000cb	89 41 08	 mov	 DWORD PTR [ecx+8], eax
$LN10@Make_heap_:

; 3321 :          _Top < _Hole && _DEBUG_LT_PRED(_Pred, *(_First + _Idx), _Val); //

  000ce	39 7d 0c	 cmp	 DWORD PTR __Hole$1$[ebp], edi
  000d1	7d 3b		 jge	 SHORT $LN30@Make_heap_
$LL15@Make_heap_:

; 3320 :     for (_Diff _Idx = (_Hole - 1) >> 1; // shift for codegen

  000d3	8d 77 ff	 lea	 esi, DWORD PTR [edi-1]
  000d6	d1 fe		 sar	 esi, 1

; 3321 :          _Top < _Hole && _DEBUG_LT_PRED(_Pred, *(_First + _Idx), _Val); //

  000d8	8d 4d e4	 lea	 ecx, DWORD PTR __Val$1[ebp]
  000db	51		 push	 ecx
  000dc	8d 04 76	 lea	 eax, DWORD PTR [esi+esi*2]
  000df	8d 04 83	 lea	 eax, DWORD PTR [ebx+eax*4]
  000e2	50		 push	 eax
  000e3	89 45 f4	 mov	 DWORD PTR tv178[ebp], eax
  000e6	ff 55 10	 call	 DWORD PTR __Pred$[ebp]
  000e9	83 c4 08	 add	 esp, 8
  000ec	84 c0		 test	 al, al
  000ee	74 1e		 je	 SHORT $LN30@Make_heap_

; 3322 :          _Idx = (_Hole - 1) >> 1) { // shift for codegen
; 3323 :         // move _Hole up to parent
; 3324 :         *(_First + _Hole) = _STD move(*(_First + _Idx));

  000f0	8d 04 7f	 lea	 eax, DWORD PTR [edi+edi*2]

; 3325 :         _Hole             = _Idx;

  000f3	8b fe		 mov	 edi, esi
  000f5	8d 0c 83	 lea	 ecx, DWORD PTR [ebx+eax*4]
  000f8	8b 45 f4	 mov	 eax, DWORD PTR tv178[ebp]
  000fb	f3 0f 7e 00	 movq	 xmm0, QWORD PTR [eax]
  000ff	66 0f d6 01	 movq	 QWORD PTR [ecx], xmm0
  00103	8b 40 08	 mov	 eax, DWORD PTR [eax+8]
  00106	89 41 08	 mov	 DWORD PTR [ecx+8], eax
  00109	39 75 0c	 cmp	 DWORD PTR __Hole$1$[ebp], esi
  0010c	7c c5		 jl	 SHORT $LL15@Make_heap_
$LN30@Make_heap_:

; 3326 :     }
; 3327 : 
; 3328 :     *(_First + _Hole) = _STD move(_Val); // drop _Val into final hole

  0010e	f3 0f 7e 45 e4	 movq	 xmm0, QWORD PTR __Val$1[ebp]
  00113	8d 04 7f	 lea	 eax, DWORD PTR [edi+edi*2]

; 3420 :     for (_Diff _Hole = _Bottom >> 1; 0 < _Hole;) { // shift for codegen

  00116	8b 55 08	 mov	 edx, DWORD PTR __Max_sequence_non_leaf$1$[ebp]

; 3328 :     *(_First + _Hole) = _STD move(_Val); // drop _Val into final hole

  00119	8d 0c 83	 lea	 ecx, DWORD PTR [ebx+eax*4]
  0011c	8b 45 ec	 mov	 eax, DWORD PTR __Val$1[ebp+8]
  0011f	66 0f d6 01	 movq	 QWORD PTR [ecx], xmm0
  00123	89 41 08	 mov	 DWORD PTR [ecx+8], eax

; 3420 :     for (_Diff _Hole = _Bottom >> 1; 0 < _Hole;) { // shift for codegen

  00126	8b 4d 0c	 mov	 ecx, DWORD PTR __Hole$1$[ebp]
  00129	8b 45 f0	 mov	 eax, DWORD PTR tv168[ebp]
  0012c	85 c9		 test	 ecx, ecx
  0012e	0f 8f 0d ff ff
	ff		 jg	 $LL2@Make_heap_
  00134	5f		 pop	 edi
  00135	5e		 pop	 esi
$LN3@Make_heap_:
  00136	5b		 pop	 ebx

; 3425 :     }
; 3426 : }

  00137	8b e5		 mov	 esp, ebp
  00139	5d		 pop	 ebp
  0013a	c3		 ret	 0
??$_Make_heap_unchecked@PAUSDumpData@@P6A_NABU1@0@Z@std@@YAXPAUSDumpData@@0P6A_NABU1@1@Z@Z ENDP ; std::_Make_heap_unchecked<SDumpData *,bool (__cdecl*)(SDumpData const &,SDumpData const &)>
_TEXT	ENDS
; Function compile flags: /Ogtp
; File C:\Program Files (x86)\Microsoft Visual Studio\2019\Community\VC\Tools\MSVC\14.27.29110\include\xmemory
;	COMDAT ??1?$_Alloc_construct_ptr@V?$allocator@U?$_Tree_node@U?$pair@$$CBJPAVCResource@@@std@@PAX@std@@@std@@@std@@QAE@XZ
_TEXT	SEGMENT
??1?$_Alloc_construct_ptr@V?$allocator@U?$_Tree_node@U?$pair@$$CBJPAVCResource@@@std@@PAX@std@@@std@@@std@@QAE@XZ PROC ; std::_Alloc_construct_ptr<std::allocator<std::_Tree_node<std::pair<long const ,CResource *>,void *> > >::~_Alloc_construct_ptr<std::allocator<std::_Tree_node<std::pair<long const ,CResource *>,void *> > >, COMDAT
; _this$ = ecx

; 1052 :         if (_Ptr) {

  00000	8b 41 04	 mov	 eax, DWORD PTR [ecx+4]
  00003	85 c0		 test	 eax, eax
  00005	74 0b		 je	 SHORT $LN2@Alloc_cons

; 803  :         _Deallocate<_New_alignof<_Ty>>(_Ptr, sizeof(_Ty) * _Count);

  00007	6a 18		 push	 24			; 00000018H
  00009	50		 push	 eax
  0000a	e8 00 00 00 00	 call	 ??$_Deallocate@$07$0A@@std@@YAXPAXI@Z ; std::_Deallocate<8,0>
  0000f	83 c4 08	 add	 esp, 8
$LN2@Alloc_cons:

; 1053 :             _Al.deallocate(_Ptr, 1);
; 1054 :         }
; 1055 :     }

  00012	c3		 ret	 0
??1?$_Alloc_construct_ptr@V?$allocator@U?$_Tree_node@U?$pair@$$CBJPAVCResource@@@std@@PAX@std@@@std@@@std@@QAE@XZ ENDP ; std::_Alloc_construct_ptr<std::allocator<std::_Tree_node<std::pair<long const ,CResource *>,void *> > >::~_Alloc_construct_ptr<std::allocator<std::_Tree_node<std::pair<long const ,CResource *>,void *> > >
_TEXT	ENDS
; Function compile flags: /Ogtp
; File C:\Program Files (x86)\Microsoft Visual Studio\2019\Community\VC\Tools\MSVC\14.27.29110\include\xmemory
;	COMDAT ??1?$_Alloc_construct_ptr@V?$allocator@U?$_Tree_node@U?$pair@$$CBKV?$basic_string@DU?$char_traits@D@std@@V?$allocator@D@2@@std@@@std@@PAX@std@@@std@@@std@@QAE@XZ
_TEXT	SEGMENT
??1?$_Alloc_construct_ptr@V?$allocator@U?$_Tree_node@U?$pair@$$CBKV?$basic_string@DU?$char_traits@D@std@@V?$allocator@D@2@@std@@@std@@PAX@std@@@std@@@std@@QAE@XZ PROC ; std::_Alloc_construct_ptr<std::allocator<std::_Tree_node<std::pair<unsigned long const ,std::basic_string<char,std::char_traits<char>,std::allocator<char> > >,void *> > >::~_Alloc_construct_ptr<std::allocator<std::_Tree_node<std::pair<unsigned long const ,std::basic_string<char,std::char_traits<char>,std::allocator<char> > >,void *> > >, COMDAT
; _this$ = ecx

; 1052 :         if (_Ptr) {

  00000	8b 41 04	 mov	 eax, DWORD PTR [ecx+4]
  00003	85 c0		 test	 eax, eax
  00005	74 0b		 je	 SHORT $LN2@Alloc_cons

; 803  :         _Deallocate<_New_alignof<_Ty>>(_Ptr, sizeof(_Ty) * _Count);

  00007	6a 2c		 push	 44			; 0000002cH
  00009	50		 push	 eax
  0000a	e8 00 00 00 00	 call	 ??$_Deallocate@$07$0A@@std@@YAXPAXI@Z ; std::_Deallocate<8,0>
  0000f	83 c4 08	 add	 esp, 8
$LN2@Alloc_cons:

; 1053 :             _Al.deallocate(_Ptr, 1);
; 1054 :         }
; 1055 :     }

  00012	c3		 ret	 0
??1?$_Alloc_construct_ptr@V?$allocator@U?$_Tree_node@U?$pair@$$CBKV?$basic_string@DU?$char_traits@D@std@@V?$allocator@D@2@@std@@@std@@PAX@std@@@std@@@std@@QAE@XZ ENDP ; std::_Alloc_construct_ptr<std::allocator<std::_Tree_node<std::pair<unsigned long const ,std::basic_string<char,std::char_traits<char>,std::allocator<char> > >,void *> > >::~_Alloc_construct_ptr<std::allocator<std::_Tree_node<std::pair<unsigned long const ,std::basic_string<char,std::char_traits<char>,std::allocator<char> > >,void *> > >
_TEXT	ENDS
; Function compile flags: /Ogtp
; File C:\Program Files (x86)\Microsoft Visual Studio\2019\Community\VC\Tools\MSVC\14.27.29110\include\xmemory
;	COMDAT ??1?$_Alloc_construct_ptr@V?$allocator@U?$_Tree_node@U?$pair@$$CBKPAVCResource@@@std@@PAX@std@@@std@@@std@@QAE@XZ
_TEXT	SEGMENT
??1?$_Alloc_construct_ptr@V?$allocator@U?$_Tree_node@U?$pair@$$CBKPAVCResource@@@std@@PAX@std@@@std@@@std@@QAE@XZ PROC ; std::_Alloc_construct_ptr<std::allocator<std::_Tree_node<std::pair<unsigned long const ,CResource *>,void *> > >::~_Alloc_construct_ptr<std::allocator<std::_Tree_node<std::pair<unsigned long const ,CResource *>,void *> > >, COMDAT
; _this$ = ecx

; 1052 :         if (_Ptr) {

  00000	8b 41 04	 mov	 eax, DWORD PTR [ecx+4]
  00003	85 c0		 test	 eax, eax
  00005	74 0b		 je	 SHORT $LN2@Alloc_cons

; 803  :         _Deallocate<_New_alignof<_Ty>>(_Ptr, sizeof(_Ty) * _Count);

  00007	6a 18		 push	 24			; 00000018H
  00009	50		 push	 eax
  0000a	e8 00 00 00 00	 call	 ??$_Deallocate@$07$0A@@std@@YAXPAXI@Z ; std::_Deallocate<8,0>
  0000f	83 c4 08	 add	 esp, 8
$LN2@Alloc_cons:

; 1053 :             _Al.deallocate(_Ptr, 1);
; 1054 :         }
; 1055 :     }

  00012	c3		 ret	 0
??1?$_Alloc_construct_ptr@V?$allocator@U?$_Tree_node@U?$pair@$$CBKPAVCResource@@@std@@PAX@std@@@std@@@std@@QAE@XZ ENDP ; std::_Alloc_construct_ptr<std::allocator<std::_Tree_node<std::pair<unsigned long const ,CResource *>,void *> > >::~_Alloc_construct_ptr<std::allocator<std::_Tree_node<std::pair<unsigned long const ,CResource *>,void *> > >
_TEXT	ENDS
; Function compile flags: /Ogtp
; File C:\Program Files (x86)\Microsoft Visual Studio\2019\Community\VC\Tools\MSVC\14.27.29110\include\xmemory
;	COMDAT ??$_Uninitialized_move@PAUSDumpData@@V?$allocator@USDumpData@@@std@@@std@@YAPAUSDumpData@@QAU1@0PAU1@AAV?$allocator@USDumpData@@@0@@Z
_TEXT	SEGMENT
__First$ = 8						; size = 4
__Last$ = 12						; size = 4
__Dest$ = 16						; size = 4
__Al$ = 20						; size = 4
??$_Uninitialized_move@PAUSDumpData@@V?$allocator@USDumpData@@@std@@@std@@YAPAUSDumpData@@QAU1@0PAU1@AAV?$allocator@USDumpData@@@0@@Z PROC ; std::_Uninitialized_move<SDumpData *,std::allocator<SDumpData> >, COMDAT

; 1647 :     const _InIt _First, const _InIt _Last, _Alloc_ptr_t<_Alloc> _Dest, _Alloc& _Al) {

  00000	55		 push	 ebp
  00001	8b ec		 mov	 ebp, esp
  00003	53		 push	 ebx

; 1648 :     // move [_First, _Last) to raw _Dest, using _Al
; 1649 :     // note: only called internally from elsewhere in the STL
; 1650 :     using _Ptrval     = typename _Alloc::value_type*;
; 1651 :     auto _UFirst      = _Get_unwrapped(_First);
; 1652 :     const auto _ULast = _Get_unwrapped(_Last);
; 1653 :     if constexpr (conjunction_v<bool_constant<_Ptr_move_cat<decltype(_UFirst), _Ptrval>::_Really_trivial>,
; 1654 :                       _Uses_default_construct<_Alloc, _Ptrval, decltype(_STD move(*_UFirst))>>) {
; 1655 :         _Copy_memmove(_UFirst, _ULast, _Unfancy(_Dest));

  00004	8b 5d 10	 mov	 ebx, DWORD PTR __Dest$[ebp]
  00007	57		 push	 edi
  00008	8b 7d 0c	 mov	 edi, DWORD PTR __Last$[ebp]
  0000b	53		 push	 ebx
  0000c	57		 push	 edi
  0000d	ff 75 08	 push	 DWORD PTR __First$[ebp]
  00010	e8 00 00 00 00	 call	 ??$_Copy_memmove@PAUSDumpData@@PAU1@@std@@YAPAUSDumpData@@PAU1@00@Z ; std::_Copy_memmove<SDumpData *,SDumpData *>

; 1656 :         return _Dest + (_ULast - _UFirst);

  00015	2b 7d 08	 sub	 edi, DWORD PTR __First$[ebp]
  00018	b8 ab aa aa 2a	 mov	 eax, 715827883		; 2aaaaaabH
  0001d	f7 ef		 imul	 edi
  0001f	83 c4 0c	 add	 esp, 12			; 0000000cH
  00022	d1 fa		 sar	 edx, 1
  00024	8b c2		 mov	 eax, edx
  00026	c1 e8 1f	 shr	 eax, 31			; 0000001fH
  00029	03 c2		 add	 eax, edx
  0002b	5f		 pop	 edi
  0002c	8d 04 40	 lea	 eax, DWORD PTR [eax+eax*2]
  0002f	8d 04 83	 lea	 eax, DWORD PTR [ebx+eax*4]
  00032	5b		 pop	 ebx

; 1657 :     } else {
; 1658 :         _Uninitialized_backout_al<_Alloc> _Backout{_Dest, _Al};
; 1659 :         for (; _UFirst != _ULast; ++_UFirst) {
; 1660 :             _Backout._Emplace_back(_STD move(*_UFirst));
; 1661 :         }
; 1662 : 
; 1663 :         return _Backout._Release();
; 1664 :     }
; 1665 : }

  00033	5d		 pop	 ebp
  00034	c3		 ret	 0
??$_Uninitialized_move@PAUSDumpData@@V?$allocator@USDumpData@@@std@@@std@@YAPAUSDumpData@@QAU1@0PAU1@AAV?$allocator@USDumpData@@@0@@Z ENDP ; std::_Uninitialized_move<SDumpData *,std::allocator<SDumpData> >
_TEXT	ENDS
; Function compile flags: /Ogtp
; File C:\Program Files (x86)\Microsoft Visual Studio\2019\Community\VC\Tools\MSVC\14.27.29110\include\xmemory
;	COMDAT ??$_Destroy_in_place@PAU?$_Tree_node@U?$pair@$$CBHP6APAVCResource@@PBD@Z@std@@PAX@std@@@std@@YAXAAPAU?$_Tree_node@U?$pair@$$CBHP6APAVCResource@@PBD@Z@std@@PAX@0@@Z
_TEXT	SEGMENT
__Obj$ = 8						; size = 4
??$_Destroy_in_place@PAU?$_Tree_node@U?$pair@$$CBHP6APAVCResource@@PBD@Z@std@@PAX@std@@@std@@YAXAAPAU?$_Tree_node@U?$pair@$$CBHP6APAVCResource@@PBD@Z@std@@PAX@0@@Z PROC ; std::_Destroy_in_place<std::_Tree_node<std::pair<int const ,CResource * (__cdecl*)(char const *)>,void *> *>, COMDAT

; 268  :     _Obj.~_Ty();
; 269  : }

  00000	c2 00 00	 ret	 0
??$_Destroy_in_place@PAU?$_Tree_node@U?$pair@$$CBHP6APAVCResource@@PBD@Z@std@@PAX@std@@@std@@YAXAAPAU?$_Tree_node@U?$pair@$$CBHP6APAVCResource@@PBD@Z@std@@PAX@0@@Z ENDP ; std::_Destroy_in_place<std::_Tree_node<std::pair<int const ,CResource * (__cdecl*)(char const *)>,void *> *>
_TEXT	ENDS
; Function compile flags: /Ogtp
; File C:\Program Files (x86)\Microsoft Visual Studio\2019\Community\VC\Tools\MSVC\14.27.29110\include\xmemory
;	COMDAT ??$_Destroy_in_place@PAU?$_Tree_node@U?$pair@$$CBV?$basic_string@DU?$char_traits@D@std@@V?$allocator@D@2@@std@@P6APAVCResource@@PBD@Z@std@@PAX@std@@@std@@YAXAAPAU?$_Tree_node@U?$pair@$$CBV?$basic_string@DU?$char_traits@D@std@@V?$allocator@D@2@@std@@P6APAVCResource@@PBD@Z@std@@PAX@0@@Z
_TEXT	SEGMENT
__Obj$ = 8						; size = 4
??$_Destroy_in_place@PAU?$_Tree_node@U?$pair@$$CBV?$basic_string@DU?$char_traits@D@std@@V?$allocator@D@2@@std@@P6APAVCResource@@PBD@Z@std@@PAX@std@@@std@@YAXAAPAU?$_Tree_node@U?$pair@$$CBV?$basic_string@DU?$char_traits@D@std@@V?$allocator@D@2@@std@@P6APAVCResource@@PBD@Z@std@@PAX@0@@Z PROC ; std::_Destroy_in_place<std::_Tree_node<std::pair<std::basic_string<char,std::char_traits<char>,std::allocator<char> > const ,CResource * (__cdecl*)(char const *)>,void *> *>, COMDAT

; 268  :     _Obj.~_Ty();
; 269  : }

  00000	c2 00 00	 ret	 0
??$_Destroy_in_place@PAU?$_Tree_node@U?$pair@$$CBV?$basic_string@DU?$char_traits@D@std@@V?$allocator@D@2@@std@@P6APAVCResource@@PBD@Z@std@@PAX@std@@@std@@YAXAAPAU?$_Tree_node@U?$pair@$$CBV?$basic_string@DU?$char_traits@D@std@@V?$allocator@D@2@@std@@P6APAVCResource@@PBD@Z@std@@PAX@0@@Z ENDP ; std::_Destroy_in_place<std::_Tree_node<std::pair<std::basic_string<char,std::char_traits<char>,std::allocator<char> > const ,CResource * (__cdecl*)(char const *)>,void *> *>
_TEXT	ENDS
; Function compile flags: /Ogtp
; File C:\Program Files (x86)\Microsoft Visual Studio\2019\Community\VC\Tools\MSVC\14.27.29110\include\xmemory
;	COMDAT ??$_Construct_in_place@PAU?$_Tree_node@U?$pair@$$CBKPAVCResource@@@std@@PAX@std@@ABQAU12@@std@@YAXAAPAU?$_Tree_node@U?$pair@$$CBKPAVCResource@@@std@@PAX@0@ABQAU10@@Z
_TEXT	SEGMENT
__Obj$ = 8						; size = 4
_<_Args_0>$ = 12					; size = 4
??$_Construct_in_place@PAU?$_Tree_node@U?$pair@$$CBKPAVCResource@@@std@@PAX@std@@ABQAU12@@std@@YAXAAPAU?$_Tree_node@U?$pair@$$CBKPAVCResource@@@std@@PAX@0@ABQAU10@@Z PROC ; std::_Construct_in_place<std::_Tree_node<std::pair<unsigned long const ,CResource *>,void *> *,std::_Tree_node<std::pair<unsigned long const ,CResource *>,void *> * const &>, COMDAT

; 228  : void _Construct_in_place(_Ty& _Obj, _Types&&... _Args) noexcept(is_nothrow_constructible_v<_Ty, _Types...>) {

  00000	55		 push	 ebp
  00001	8b ec		 mov	 ebp, esp

; 229  :     ::new (const_cast<void*>(static_cast<const volatile void*>(_STD addressof(_Obj))))

  00003	8b 45 0c	 mov	 eax, DWORD PTR _<_Args_0>$[ebp]
  00006	8b 08		 mov	 ecx, DWORD PTR [eax]
  00008	8b 45 08	 mov	 eax, DWORD PTR __Obj$[ebp]
  0000b	89 08		 mov	 DWORD PTR [eax], ecx

; 230  :         _Ty(_STD forward<_Types>(_Args)...);
; 231  : }

  0000d	5d		 pop	 ebp
  0000e	c3		 ret	 0
??$_Construct_in_place@PAU?$_Tree_node@U?$pair@$$CBKPAVCResource@@@std@@PAX@std@@ABQAU12@@std@@YAXAAPAU?$_Tree_node@U?$pair@$$CBKPAVCResource@@@std@@PAX@0@ABQAU10@@Z ENDP ; std::_Construct_in_place<std::_Tree_node<std::pair<unsigned long const ,CResource *>,void *> *,std::_Tree_node<std::pair<unsigned long const ,CResource *>,void *> * const &>
_TEXT	ENDS
; Function compile flags: /Ogtp
; File C:\Program Files (x86)\Microsoft Visual Studio\2019\Community\VC\Tools\MSVC\14.27.29110\include\xmemory
;	COMDAT ??$_Construct_in_place@PAU?$_Tree_node@U?$pair@$$CBV?$basic_string@DU?$char_traits@D@std@@V?$allocator@D@2@@std@@P6APAVCResource@@PBD@Z@std@@PAX@std@@ABQAU12@@std@@YAXAAPAU?$_Tree_node@U?$pair@$$CBV?$basic_string@DU?$char_traits@D@std@@V?$allocator@D@2@@std@@P6APAVCResource@@PBD@Z@std@@PAX@0@ABQAU10@@Z
_TEXT	SEGMENT
__Obj$ = 8						; size = 4
_<_Args_0>$ = 12					; size = 4
??$_Construct_in_place@PAU?$_Tree_node@U?$pair@$$CBV?$basic_string@DU?$char_traits@D@std@@V?$allocator@D@2@@std@@P6APAVCResource@@PBD@Z@std@@PAX@std@@ABQAU12@@std@@YAXAAPAU?$_Tree_node@U?$pair@$$CBV?$basic_string@DU?$char_traits@D@std@@V?$allocator@D@2@@std@@P6APAVCResource@@PBD@Z@std@@PAX@0@ABQAU10@@Z PROC ; std::_Construct_in_place<std::_Tree_node<std::pair<std::basic_string<char,std::char_traits<char>,std::allocator<char> > const ,CResource * (__cdecl*)(char const *)>,void *> *,std::_Tree_node<std::pair<std::basic_string<char,std::char_traits<char>,std::allocator<char> > const ,CResource * (__cdecl*)(char const *)>,void *> * const &>, COMDAT

; 228  : void _Construct_in_place(_Ty& _Obj, _Types&&... _Args) noexcept(is_nothrow_constructible_v<_Ty, _Types...>) {

  00000	55		 push	 ebp
  00001	8b ec		 mov	 ebp, esp

; 229  :     ::new (const_cast<void*>(static_cast<const volatile void*>(_STD addressof(_Obj))))

  00003	8b 45 0c	 mov	 eax, DWORD PTR _<_Args_0>$[ebp]
  00006	8b 08		 mov	 ecx, DWORD PTR [eax]
  00008	8b 45 08	 mov	 eax, DWORD PTR __Obj$[ebp]
  0000b	89 08		 mov	 DWORD PTR [eax], ecx

; 230  :         _Ty(_STD forward<_Types>(_Args)...);
; 231  : }

  0000d	5d		 pop	 ebp
  0000e	c3		 ret	 0
??$_Construct_in_place@PAU?$_Tree_node@U?$pair@$$CBV?$basic_string@DU?$char_traits@D@std@@V?$allocator@D@2@@std@@P6APAVCResource@@PBD@Z@std@@PAX@std@@ABQAU12@@std@@YAXAAPAU?$_Tree_node@U?$pair@$$CBV?$basic_string@DU?$char_traits@D@std@@V?$allocator@D@2@@std@@P6APAVCResource@@PBD@Z@std@@PAX@0@ABQAU10@@Z ENDP ; std::_Construct_in_place<std::_Tree_node<std::pair<std::basic_string<char,std::char_traits<char>,std::allocator<char> > const ,CResource * (__cdecl*)(char const *)>,void *> *,std::_Tree_node<std::pair<std::basic_string<char,std::char_traits<char>,std::allocator<char> > const ,CResource * (__cdecl*)(char const *)>,void *> * const &>
_TEXT	ENDS
; Function compile flags: /Ogtp
; File C:\Program Files (x86)\Microsoft Visual Studio\2019\Community\VC\Tools\MSVC\14.27.29110\include\xmemory
;	COMDAT ??$_Construct_in_place@PAU?$_Tree_node@U?$pair@$$CBHP6APAVCResource@@PBD@Z@std@@PAX@std@@ABQAU12@@std@@YAXAAPAU?$_Tree_node@U?$pair@$$CBHP6APAVCResource@@PBD@Z@std@@PAX@0@ABQAU10@@Z
_TEXT	SEGMENT
__Obj$ = 8						; size = 4
_<_Args_0>$ = 12					; size = 4
??$_Construct_in_place@PAU?$_Tree_node@U?$pair@$$CBHP6APAVCResource@@PBD@Z@std@@PAX@std@@ABQAU12@@std@@YAXAAPAU?$_Tree_node@U?$pair@$$CBHP6APAVCResource@@PBD@Z@std@@PAX@0@ABQAU10@@Z PROC ; std::_Construct_in_place<std::_Tree_node<std::pair<int const ,CResource * (__cdecl*)(char const *)>,void *> *,std::_Tree_node<std::pair<int const ,CResource * (__cdecl*)(char const *)>,void *> * const &>, COMDAT

; 228  : void _Construct_in_place(_Ty& _Obj, _Types&&... _Args) noexcept(is_nothrow_constructible_v<_Ty, _Types...>) {

  00000	55		 push	 ebp
  00001	8b ec		 mov	 ebp, esp

; 229  :     ::new (const_cast<void*>(static_cast<const volatile void*>(_STD addressof(_Obj))))

  00003	8b 45 0c	 mov	 eax, DWORD PTR _<_Args_0>$[ebp]
  00006	8b 08		 mov	 ecx, DWORD PTR [eax]
  00008	8b 45 08	 mov	 eax, DWORD PTR __Obj$[ebp]
  0000b	89 08		 mov	 DWORD PTR [eax], ecx

; 230  :         _Ty(_STD forward<_Types>(_Args)...);
; 231  : }

  0000d	5d		 pop	 ebp
  0000e	c3		 ret	 0
??$_Construct_in_place@PAU?$_Tree_node@U?$pair@$$CBHP6APAVCResource@@PBD@Z@std@@PAX@std@@ABQAU12@@std@@YAXAAPAU?$_Tree_node@U?$pair@$$CBHP6APAVCResource@@PBD@Z@std@@PAX@0@ABQAU10@@Z ENDP ; std::_Construct_in_place<std::_Tree_node<std::pair<int const ,CResource * (__cdecl*)(char const *)>,void *> *,std::_Tree_node<std::pair<int const ,CResource * (__cdecl*)(char const *)>,void *> * const &>
_TEXT	ENDS
; Function compile flags: /Ogtp
; File C:\Program Files (x86)\Microsoft Visual Studio\2019\Community\VC\Tools\MSVC\14.27.29110\include\xmemory
;	COMDAT ??$_Construct_in_place@PAU?$_Tree_node@U?$pair@QAVCResource@@K@std@@PAX@std@@ABQAU12@@std@@YAXAAPAU?$_Tree_node@U?$pair@QAVCResource@@K@std@@PAX@0@ABQAU10@@Z
_TEXT	SEGMENT
__Obj$ = 8						; size = 4
_<_Args_0>$ = 12					; size = 4
??$_Construct_in_place@PAU?$_Tree_node@U?$pair@QAVCResource@@K@std@@PAX@std@@ABQAU12@@std@@YAXAAPAU?$_Tree_node@U?$pair@QAVCResource@@K@std@@PAX@0@ABQAU10@@Z PROC ; std::_Construct_in_place<std::_Tree_node<std::pair<CResource * const,unsigned long>,void *> *,std::_Tree_node<std::pair<CResource * const,unsigned long>,void *> * const &>, COMDAT

; 228  : void _Construct_in_place(_Ty& _Obj, _Types&&... _Args) noexcept(is_nothrow_constructible_v<_Ty, _Types...>) {

  00000	55		 push	 ebp
  00001	8b ec		 mov	 ebp, esp

; 229  :     ::new (const_cast<void*>(static_cast<const volatile void*>(_STD addressof(_Obj))))

  00003	8b 45 0c	 mov	 eax, DWORD PTR _<_Args_0>$[ebp]
  00006	8b 08		 mov	 ecx, DWORD PTR [eax]
  00008	8b 45 08	 mov	 eax, DWORD PTR __Obj$[ebp]
  0000b	89 08		 mov	 DWORD PTR [eax], ecx

; 230  :         _Ty(_STD forward<_Types>(_Args)...);
; 231  : }

  0000d	5d		 pop	 ebp
  0000e	c3		 ret	 0
??$_Construct_in_place@PAU?$_Tree_node@U?$pair@QAVCResource@@K@std@@PAX@std@@ABQAU12@@std@@YAXAAPAU?$_Tree_node@U?$pair@QAVCResource@@K@std@@PAX@0@ABQAU10@@Z ENDP ; std::_Construct_in_place<std::_Tree_node<std::pair<CResource * const,unsigned long>,void *> *,std::_Tree_node<std::pair<CResource * const,unsigned long>,void *> * const &>
_TEXT	ENDS
; Function compile flags: /Ogtp
; File C:\Program Files (x86)\Microsoft Visual Studio\2019\Community\VC\Tools\MSVC\14.27.29110\include\xmemory
;	COMDAT ??$_Construct_in_place@PAU?$_Tree_node@U?$pair@$$CBKV?$basic_string@DU?$char_traits@D@std@@V?$allocator@D@2@@std@@@std@@PAX@std@@ABQAU12@@std@@YAXAAPAU?$_Tree_node@U?$pair@$$CBKV?$basic_string@DU?$char_traits@D@std@@V?$allocator@D@2@@std@@@std@@PAX@0@ABQAU10@@Z
_TEXT	SEGMENT
__Obj$ = 8						; size = 4
_<_Args_0>$ = 12					; size = 4
??$_Construct_in_place@PAU?$_Tree_node@U?$pair@$$CBKV?$basic_string@DU?$char_traits@D@std@@V?$allocator@D@2@@std@@@std@@PAX@std@@ABQAU12@@std@@YAXAAPAU?$_Tree_node@U?$pair@$$CBKV?$basic_string@DU?$char_traits@D@std@@V?$allocator@D@2@@std@@@std@@PAX@0@ABQAU10@@Z PROC ; std::_Construct_in_place<std::_Tree_node<std::pair<unsigned long const ,std::basic_string<char,std::char_traits<char>,std::allocator<char> > >,void *> *,std::_Tree_node<std::pair<unsigned long const ,std::basic_string<char,std::char_traits<char>,std::allocator<char> > >,void *> * const &>, COMDAT

; 228  : void _Construct_in_place(_Ty& _Obj, _Types&&... _Args) noexcept(is_nothrow_constructible_v<_Ty, _Types...>) {

  00000	55		 push	 ebp
  00001	8b ec		 mov	 ebp, esp

; 229  :     ::new (const_cast<void*>(static_cast<const volatile void*>(_STD addressof(_Obj))))

  00003	8b 45 0c	 mov	 eax, DWORD PTR _<_Args_0>$[ebp]
  00006	8b 08		 mov	 ecx, DWORD PTR [eax]
  00008	8b 45 08	 mov	 eax, DWORD PTR __Obj$[ebp]
  0000b	89 08		 mov	 DWORD PTR [eax], ecx

; 230  :         _Ty(_STD forward<_Types>(_Args)...);
; 231  : }

  0000d	5d		 pop	 ebp
  0000e	c3		 ret	 0
??$_Construct_in_place@PAU?$_Tree_node@U?$pair@$$CBKV?$basic_string@DU?$char_traits@D@std@@V?$allocator@D@2@@std@@@std@@PAX@std@@ABQAU12@@std@@YAXAAPAU?$_Tree_node@U?$pair@$$CBKV?$basic_string@DU?$char_traits@D@std@@V?$allocator@D@2@@std@@@std@@PAX@0@ABQAU10@@Z ENDP ; std::_Construct_in_place<std::_Tree_node<std::pair<unsigned long const ,std::basic_string<char,std::char_traits<char>,std::allocator<char> > >,void *> *,std::_Tree_node<std::pair<unsigned long const ,std::basic_string<char,std::char_traits<char>,std::allocator<char> > >,void *> * const &>
_TEXT	ENDS
; Function compile flags: /Ogtp
; File C:\Program Files (x86)\Microsoft Visual Studio\2019\Community\VC\Tools\MSVC\14.27.29110\include\xmemory
;	COMDAT ??$_Construct_in_place@PAU?$_Tree_node@U?$pair@$$CBJPAVCResource@@@std@@PAX@std@@ABQAU12@@std@@YAXAAPAU?$_Tree_node@U?$pair@$$CBJPAVCResource@@@std@@PAX@0@ABQAU10@@Z
_TEXT	SEGMENT
__Obj$ = 8						; size = 4
_<_Args_0>$ = 12					; size = 4
??$_Construct_in_place@PAU?$_Tree_node@U?$pair@$$CBJPAVCResource@@@std@@PAX@std@@ABQAU12@@std@@YAXAAPAU?$_Tree_node@U?$pair@$$CBJPAVCResource@@@std@@PAX@0@ABQAU10@@Z PROC ; std::_Construct_in_place<std::_Tree_node<std::pair<long const ,CResource *>,void *> *,std::_Tree_node<std::pair<long const ,CResource *>,void *> * const &>, COMDAT

; 228  : void _Construct_in_place(_Ty& _Obj, _Types&&... _Args) noexcept(is_nothrow_constructible_v<_Ty, _Types...>) {

  00000	55		 push	 ebp
  00001	8b ec		 mov	 ebp, esp

; 229  :     ::new (const_cast<void*>(static_cast<const volatile void*>(_STD addressof(_Obj))))

  00003	8b 45 0c	 mov	 eax, DWORD PTR _<_Args_0>$[ebp]
  00006	8b 08		 mov	 ecx, DWORD PTR [eax]
  00008	8b 45 08	 mov	 eax, DWORD PTR __Obj$[ebp]
  0000b	89 08		 mov	 DWORD PTR [eax], ecx

; 230  :         _Ty(_STD forward<_Types>(_Args)...);
; 231  : }

  0000d	5d		 pop	 ebp
  0000e	c3		 ret	 0
??$_Construct_in_place@PAU?$_Tree_node@U?$pair@$$CBJPAVCResource@@@std@@PAX@std@@ABQAU12@@std@@YAXAAPAU?$_Tree_node@U?$pair@$$CBJPAVCResource@@@std@@PAX@0@ABQAU10@@Z ENDP ; std::_Construct_in_place<std::_Tree_node<std::pair<long const ,CResource *>,void *> *,std::_Tree_node<std::pair<long const ,CResource *>,void *> * const &>
_TEXT	ENDS
; Function compile flags: /Ogtp
; File C:\Program Files (x86)\Microsoft Visual Studio\2019\Community\VC\Tools\MSVC\14.27.29110\include\xtree
; File C:\Program Files (x86)\Microsoft Visual Studio\2019\Community\VC\Tools\MSVC\14.27.29110\include\xstddef
; File C:\Program Files (x86)\Microsoft Visual Studio\2019\Community\VC\Tools\MSVC\14.27.29110\include\xtree
; File C:\Program Files (x86)\Microsoft Visual Studio\2019\Community\VC\Tools\MSVC\14.27.29110\include\xstddef
; File C:\Program Files (x86)\Microsoft Visual Studio\2019\Community\VC\Tools\MSVC\14.27.29110\include\xtree
;	COMDAT ??$_Find_lower_bound@K@?$_Tree@V?$_Tmap_traits@KPAVCResource@@U?$less@K@std@@V?$allocator@U?$pair@$$CBKPAVCResource@@@std@@@3@$0A@@std@@@std@@IBE?AU?$_Tree_find_result@PAU?$_Tree_node@U?$pair@$$CBKPAVCResource@@@std@@PAX@std@@@1@ABK@Z
_TEXT	SEGMENT
___$ReturnUdt$ = 8					; size = 4
__Keyval$ = 12						; size = 4
??$_Find_lower_bound@K@?$_Tree@V?$_Tmap_traits@KPAVCResource@@U?$less@K@std@@V?$allocator@U?$pair@$$CBKPAVCResource@@@std@@@3@$0A@@std@@@std@@IBE?AU?$_Tree_find_result@PAU?$_Tree_node@U?$pair@$$CBKPAVCResource@@@std@@PAX@std@@@1@ABK@Z PROC ; std::_Tree<std::_Tmap_traits<unsigned long,CResource *,std::less<unsigned long>,std::allocator<std::pair<unsigned long const ,CResource *> >,0> >::_Find_lower_bound<unsigned long>, COMDAT
; _this$ = ecx

; 1699 :     _Tree_find_result<_Nodeptr> _Find_lower_bound(const _Keyty& _Keyval) const {

  00000	55		 push	 ebp
  00001	8b ec		 mov	 ebp, esp

; 1700 :         const auto _Scary = _Get_scary();
; 1701 :         _Tree_find_result<_Nodeptr> _Result{{_Scary->_Myhead->_Parent, _Tree_child::_Right}, _Scary->_Myhead};

  00003	8b 09		 mov	 ecx, DWORD PTR [ecx]
  00005	8b 55 08	 mov	 edx, DWORD PTR ___$ReturnUdt$[ebp]
  00008	8b 41 04	 mov	 eax, DWORD PTR [ecx+4]
  0000b	89 02		 mov	 DWORD PTR [edx], eax
  0000d	c7 42 04 00 00
	00 00		 mov	 DWORD PTR [edx+4], 0
  00014	89 4a 08	 mov	 DWORD PTR [edx+8], ecx

; 1702 :         _Nodeptr _Trynode = _Result._Location._Parent;
; 1703 :         while (!_Trynode->_Isnil) {

  00017	80 78 0d 00	 cmp	 BYTE PTR [eax+13], 0
  0001b	75 28		 jne	 SHORT $LN12@Find_lower
; File C:\Program Files (x86)\Microsoft Visual Studio\2019\Community\VC\Tools\MSVC\14.27.29110\include\xstddef

; 127  :         return _Left < _Right;

  0001d	8b 4d 0c	 mov	 ecx, DWORD PTR __Keyval$[ebp]
  00020	56		 push	 esi
  00021	8b 31		 mov	 esi, DWORD PTR [ecx]
$LL2@Find_lower:
; File C:\Program Files (x86)\Microsoft Visual Studio\2019\Community\VC\Tools\MSVC\14.27.29110\include\xtree

; 1704 :             _Result._Location._Parent = _Trynode;

  00023	89 02		 mov	 DWORD PTR [edx], eax
; File C:\Program Files (x86)\Microsoft Visual Studio\2019\Community\VC\Tools\MSVC\14.27.29110\include\xstddef

; 127  :         return _Left < _Right;

  00025	39 70 10	 cmp	 DWORD PTR [eax+16], esi
; File C:\Program Files (x86)\Microsoft Visual Studio\2019\Community\VC\Tools\MSVC\14.27.29110\include\xtree

; 1705 :             if (_DEBUG_LT_PRED(_Getcomp(), _Traits::_Kfn(_Trynode->_Myval), _Keyval)) {

  00028	73 07		 jae	 SHORT $LN4@Find_lower

; 1706 :                 _Result._Location._Child = _Tree_child::_Right;
; 1707 :                 _Trynode                 = _Trynode->_Right;

  0002a	8b 40 08	 mov	 eax, DWORD PTR [eax+8]
  0002d	33 c9		 xor	 ecx, ecx

; 1708 :             } else {

  0002f	eb 0a		 jmp	 SHORT $LN5@Find_lower
$LN4@Find_lower:

; 1709 :                 _Result._Location._Child = _Tree_child::_Left;
; 1710 :                 _Result._Bound           = _Trynode;

  00031	89 42 08	 mov	 DWORD PTR [edx+8], eax

; 1711 :                 _Trynode                 = _Trynode->_Left;

  00034	b9 01 00 00 00	 mov	 ecx, 1
  00039	8b 00		 mov	 eax, DWORD PTR [eax]
$LN5@Find_lower:

; 1702 :         _Nodeptr _Trynode = _Result._Location._Parent;
; 1703 :         while (!_Trynode->_Isnil) {

  0003b	89 4a 04	 mov	 DWORD PTR [edx+4], ecx
  0003e	80 78 0d 00	 cmp	 BYTE PTR [eax+13], 0
  00042	74 df		 je	 SHORT $LL2@Find_lower

; 1712 :             }
; 1713 :         }
; 1714 : 
; 1715 :         return _Result;

  00044	5e		 pop	 esi
$LN12@Find_lower:

; 1716 :     }

  00045	8b c2		 mov	 eax, edx
  00047	5d		 pop	 ebp
  00048	c2 08 00	 ret	 8
??$_Find_lower_bound@K@?$_Tree@V?$_Tmap_traits@KPAVCResource@@U?$less@K@std@@V?$allocator@U?$pair@$$CBKPAVCResource@@@std@@@3@$0A@@std@@@std@@IBE?AU?$_Tree_find_result@PAU?$_Tree_node@U?$pair@$$CBKPAVCResource@@@std@@PAX@std@@@1@ABK@Z ENDP ; std::_Tree<std::_Tmap_traits<unsigned long,CResource *,std::less<unsigned long>,std::allocator<std::pair<unsigned long const ,CResource *> >,0> >::_Find_lower_bound<unsigned long>
_TEXT	ENDS
; Function compile flags: /Ogtp
; File C:\Program Files (x86)\Microsoft Visual Studio\2019\Community\VC\Tools\MSVC\14.27.29110\include\xtree
; File C:\Program Files (x86)\Microsoft Visual Studio\2019\Community\VC\Tools\MSVC\14.27.29110\include\utility
; File C:\Program Files (x86)\Microsoft Visual Studio\2019\Community\VC\Tools\MSVC\14.27.29110\include\xstring
; File C:\Program Files (x86)\Microsoft Visual Studio\2019\Community\VC\Tools\MSVC\14.27.29110\include\xmemory
; File C:\Program Files (x86)\Microsoft Visual Studio\2019\Community\VC\Tools\MSVC\14.27.29110\include\xstring
; File C:\Program Files (x86)\Microsoft Visual Studio\2019\Community\VC\Tools\MSVC\14.27.29110\include\xmemory
; File C:\Program Files (x86)\Microsoft Visual Studio\2019\Community\VC\Tools\MSVC\14.27.29110\include\xtree
; File C:\Program Files (x86)\Microsoft Visual Studio\2019\Community\VC\Tools\MSVC\14.27.29110\include\xmemory
; File C:\Program Files (x86)\Microsoft Visual Studio\2019\Community\VC\Tools\MSVC\14.27.29110\include\xtree
;	COMDAT ??$_Erase_tree@V?$allocator@U?$_Tree_node@U?$pair@$$CBV?$basic_string@DU?$char_traits@D@std@@V?$allocator@D@2@@std@@P6APAVCResource@@PBD@Z@std@@PAX@std@@@std@@@?$_Tree_val@U?$_Tree_simple_types@U?$pair@$$CBV?$basic_string@DU?$char_traits@D@std@@V?$allocator@D@2@@std@@P6APAVCResource@@PBD@Z@std@@@std@@@std@@QAEXAAV?$allocator@U?$_Tree_node@U?$pair@$$CBV?$basic_string@DU?$char_traits@D@std@@V?$allocator@D@2@@std@@P6APAVCResource@@PBD@Z@std@@PAX@std@@@1@PAU?$_Tree_node@U?$pair@$$CBV?$basic_string@DU?$char_traits@D@std@@V?$allocator@D@2@@std@@P6APAVCResource@@PBD@Z@std@@PAX@1@@Z
_TEXT	SEGMENT
_this$1$ = -4						; size = 4
__Al$ = 8						; size = 4
__Rootnode$ = 12					; size = 4
??$_Erase_tree@V?$allocator@U?$_Tree_node@U?$pair@$$CBV?$basic_string@DU?$char_traits@D@std@@V?$allocator@D@2@@std@@P6APAVCResource@@PBD@Z@std@@PAX@std@@@std@@@?$_Tree_val@U?$_Tree_simple_types@U?$pair@$$CBV?$basic_string@DU?$char_traits@D@std@@V?$allocator@D@2@@std@@P6APAVCResource@@PBD@Z@std@@@std@@@std@@QAEXAAV?$allocator@U?$_Tree_node@U?$pair@$$CBV?$basic_string@DU?$char_traits@D@std@@V?$allocator@D@2@@std@@P6APAVCResource@@PBD@Z@std@@PAX@std@@@1@PAU?$_Tree_node@U?$pair@$$CBV?$basic_string@DU?$char_traits@D@std@@V?$allocator@D@2@@std@@P6APAVCResource@@PBD@Z@std@@PAX@1@@Z PROC ; std::_Tree_val<std::_Tree_simple_types<std::pair<std::basic_string<char,std::char_traits<char>,std::allocator<char> > const ,CResource * (__cdecl*)(char const *)> > >::_Erase_tree<std::allocator<std::_Tree_node<std::pair<std::basic_string<char,std::char_traits<char>,std::allocator<char> > const ,CResource * (__cdecl*)(char const *)>,void *> > >, COMDAT
; _this$ = ecx

; 742  :     void _Erase_tree(_Alnode& _Al, _Nodeptr _Rootnode) noexcept {

  00000	55		 push	 ebp
  00001	8b ec		 mov	 ebp, esp
  00003	51		 push	 ecx
  00004	57		 push	 edi

; 743  :         while (!_Rootnode->_Isnil) { // free subtrees, then node

  00005	8b 7d 0c	 mov	 edi, DWORD PTR __Rootnode$[ebp]
  00008	8b c1		 mov	 eax, ecx
  0000a	89 45 fc	 mov	 DWORD PTR _this$1$[ebp], eax
  0000d	80 7f 0d 00	 cmp	 BYTE PTR [edi+13], 0
  00011	75 51		 jne	 SHORT $LN3@Erase_tree
  00013	53		 push	 ebx
  00014	8b 5d 08	 mov	 ebx, DWORD PTR __Al$[ebp]
  00017	56		 push	 esi
$LL2@Erase_tree:

; 744  :             _Erase_tree(_Al, _Rootnode->_Right);

  00018	ff 77 08	 push	 DWORD PTR [edi+8]
  0001b	8b c8		 mov	 ecx, eax
  0001d	53		 push	 ebx
  0001e	e8 00 00 00 00	 call	 ??$_Erase_tree@V?$allocator@U?$_Tree_node@U?$pair@$$CBV?$basic_string@DU?$char_traits@D@std@@V?$allocator@D@2@@std@@P6APAVCResource@@PBD@Z@std@@PAX@std@@@std@@@?$_Tree_val@U?$_Tree_simple_types@U?$pair@$$CBV?$basic_string@DU?$char_traits@D@std@@V?$allocator@D@2@@std@@P6APAVCResource@@PBD@Z@std@@@std@@@std@@QAEXAAV?$allocator@U?$_Tree_node@U?$pair@$$CBV?$basic_string@DU?$char_traits@D@std@@V?$allocator@D@2@@std@@P6APAVCResource@@PBD@Z@std@@PAX@std@@@1@PAU?$_Tree_node@U?$pair@$$CBV?$basic_string@DU?$char_traits@D@std@@V?$allocator@D@2@@std@@P6APAVCResource@@PBD@Z@std@@PAX@1@@Z ; std::_Tree_val<std::_Tree_simple_types<std::pair<std::basic_string<char,std::char_traits<char>,std::allocator<char> > const ,CResource * (__cdecl*)(char const *)> > >::_Erase_tree<std::allocator<std::_Tree_node<std::pair<std::basic_string<char,std::char_traits<char>,std::allocator<char> > const ,CResource * (__cdecl*)(char const *)>,void *> > >
; File C:\Program Files (x86)\Microsoft Visual Studio\2019\Community\VC\Tools\MSVC\14.27.29110\include\utility

; 599  :     _Ty _Old_val = static_cast<_Ty&&>(_Val);

  00023	8b f7		 mov	 esi, edi

; 600  :     _Val         = static_cast<_Other&&>(_New_val);

  00025	8b 3f		 mov	 edi, DWORD PTR [edi]
; File C:\Program Files (x86)\Microsoft Visual Studio\2019\Community\VC\Tools\MSVC\14.27.29110\include\xstring

; 2153 :         return _BUF_SIZE <= _Myres;

  00027	8b 46 24	 mov	 eax, DWORD PTR [esi+36]
  0002a	83 f8 10	 cmp	 eax, 16			; 00000010H

; 4301 :         if (_Mypair._Myval2._Large_string_engaged()) {

  0002d	72 0d		 jb	 SHORT $LN21@Erase_tree

; 4302 :             const pointer _Ptr = _Mypair._Myval2._Bx._Ptr;
; 4303 :             auto& _Al          = _Getal();
; 4304 :             _Destroy_in_place(_Mypair._Myval2._Bx._Ptr);
; 4305 :             _Al.deallocate(_Ptr, _Mypair._Myval2._Myres + 1);

  0002f	40		 inc	 eax
; File C:\Program Files (x86)\Microsoft Visual Studio\2019\Community\VC\Tools\MSVC\14.27.29110\include\xmemory

; 803  :         _Deallocate<_New_alignof<_Ty>>(_Ptr, sizeof(_Ty) * _Count);

  00030	50		 push	 eax
  00031	ff 76 10	 push	 DWORD PTR [esi+16]
  00034	e8 00 00 00 00	 call	 ??$_Deallocate@$07$0A@@std@@YAXPAXI@Z ; std::_Deallocate<8,0>
  00039	83 c4 08	 add	 esp, 8
$LN21@Erase_tree:

; 689  :         _Deallocate<_New_alignof<value_type>>(_Ptr, sizeof(value_type) * _Count);

  0003c	6a 2c		 push	 44			; 0000002cH
  0003e	56		 push	 esi
; File C:\Program Files (x86)\Microsoft Visual Studio\2019\Community\VC\Tools\MSVC\14.27.29110\include\xstring

; 4308 :         _Mypair._Myval2._Mysize = 0;

  0003f	c7 46 20 00 00
	00 00		 mov	 DWORD PTR [esi+32], 0

; 4309 :         _Mypair._Myval2._Myres  = _BUF_SIZE - 1;

  00046	c7 46 24 0f 00
	00 00		 mov	 DWORD PTR [esi+36], 15	; 0000000fH

; 4310 :         // the _Traits::assign is last so the codegen doesn't think the char write can alias this
; 4311 :         _Traits::assign(_Mypair._Myval2._Bx._Buf[0], _Elem());

  0004d	c6 46 10 00	 mov	 BYTE PTR [esi+16], 0
; File C:\Program Files (x86)\Microsoft Visual Studio\2019\Community\VC\Tools\MSVC\14.27.29110\include\xmemory

; 689  :         _Deallocate<_New_alignof<value_type>>(_Ptr, sizeof(value_type) * _Count);

  00051	e8 00 00 00 00	 call	 ??$_Deallocate@$07$0A@@std@@YAXPAXI@Z ; std::_Deallocate<8,0>
; File C:\Program Files (x86)\Microsoft Visual Studio\2019\Community\VC\Tools\MSVC\14.27.29110\include\xtree

; 743  :         while (!_Rootnode->_Isnil) { // free subtrees, then node

  00056	8b 45 fc	 mov	 eax, DWORD PTR _this$1$[ebp]
; File C:\Program Files (x86)\Microsoft Visual Studio\2019\Community\VC\Tools\MSVC\14.27.29110\include\xmemory

; 689  :         _Deallocate<_New_alignof<value_type>>(_Ptr, sizeof(value_type) * _Count);

  00059	83 c4 08	 add	 esp, 8
; File C:\Program Files (x86)\Microsoft Visual Studio\2019\Community\VC\Tools\MSVC\14.27.29110\include\xtree

; 743  :         while (!_Rootnode->_Isnil) { // free subtrees, then node

  0005c	80 7f 0d 00	 cmp	 BYTE PTR [edi+13], 0
  00060	74 b6		 je	 SHORT $LL2@Erase_tree
  00062	5e		 pop	 esi
  00063	5b		 pop	 ebx
$LN3@Erase_tree:
  00064	5f		 pop	 edi

; 745  :             _Alnode::value_type::_Freenode(_Al, _STD exchange(_Rootnode, _Rootnode->_Left));
; 746  :         }
; 747  :     }

  00065	8b e5		 mov	 esp, ebp
  00067	5d		 pop	 ebp
  00068	c2 08 00	 ret	 8
??$_Erase_tree@V?$allocator@U?$_Tree_node@U?$pair@$$CBV?$basic_string@DU?$char_traits@D@std@@V?$allocator@D@2@@std@@P6APAVCResource@@PBD@Z@std@@PAX@std@@@std@@@?$_Tree_val@U?$_Tree_simple_types@U?$pair@$$CBV?$basic_string@DU?$char_traits@D@std@@V?$allocator@D@2@@std@@P6APAVCResource@@PBD@Z@std@@@std@@@std@@QAEXAAV?$allocator@U?$_Tree_node@U?$pair@$$CBV?$basic_string@DU?$char_traits@D@std@@V?$allocator@D@2@@std@@P6APAVCResource@@PBD@Z@std@@PAX@std@@@1@PAU?$_Tree_node@U?$pair@$$CBV?$basic_string@DU?$char_traits@D@std@@V?$allocator@D@2@@std@@P6APAVCResource@@PBD@Z@std@@PAX@1@@Z ENDP ; std::_Tree_val<std::_Tree_simple_types<std::pair<std::basic_string<char,std::char_traits<char>,std::allocator<char> > const ,CResource * (__cdecl*)(char const *)> > >::_Erase_tree<std::allocator<std::_Tree_node<std::pair<std::basic_string<char,std::char_traits<char>,std::allocator<char> > const ,CResource * (__cdecl*)(char const *)>,void *> > >
_TEXT	ENDS
; Function compile flags: /Ogtp
; File C:\Program Files (x86)\Microsoft Visual Studio\2019\Community\VC\Tools\MSVC\14.27.29110\include\xmemory
;	COMDAT ??1?$_Alloc_construct_ptr@V?$allocator@U?$_Tree_node@U?$pair@$$CBV?$basic_string@DU?$char_traits@D@std@@V?$allocator@D@2@@std@@P6APAVCResource@@PBD@Z@std@@PAX@std@@@std@@@std@@QAE@XZ
_TEXT	SEGMENT
??1?$_Alloc_construct_ptr@V?$allocator@U?$_Tree_node@U?$pair@$$CBV?$basic_string@DU?$char_traits@D@std@@V?$allocator@D@2@@std@@P6APAVCResource@@PBD@Z@std@@PAX@std@@@std@@@std@@QAE@XZ PROC ; std::_Alloc_construct_ptr<std::allocator<std::_Tree_node<std::pair<std::basic_string<char,std::char_traits<char>,std::allocator<char> > const ,CResource * (__cdecl*)(char const *)>,void *> > >::~_Alloc_construct_ptr<std::allocator<std::_Tree_node<std::pair<std::basic_string<char,std::char_traits<char>,std::allocator<char> > const ,CResource * (__cdecl*)(char const *)>,void *> > >, COMDAT
; _this$ = ecx

; 1052 :         if (_Ptr) {

  00000	8b 41 04	 mov	 eax, DWORD PTR [ecx+4]
  00003	85 c0		 test	 eax, eax
  00005	74 0b		 je	 SHORT $LN2@Alloc_cons

; 803  :         _Deallocate<_New_alignof<_Ty>>(_Ptr, sizeof(_Ty) * _Count);

  00007	6a 2c		 push	 44			; 0000002cH
  00009	50		 push	 eax
  0000a	e8 00 00 00 00	 call	 ??$_Deallocate@$07$0A@@std@@YAXPAXI@Z ; std::_Deallocate<8,0>
  0000f	83 c4 08	 add	 esp, 8
$LN2@Alloc_cons:

; 1053 :             _Al.deallocate(_Ptr, 1);
; 1054 :         }
; 1055 :     }

  00012	c3		 ret	 0
??1?$_Alloc_construct_ptr@V?$allocator@U?$_Tree_node@U?$pair@$$CBV?$basic_string@DU?$char_traits@D@std@@V?$allocator@D@2@@std@@P6APAVCResource@@PBD@Z@std@@PAX@std@@@std@@@std@@QAE@XZ ENDP ; std::_Alloc_construct_ptr<std::allocator<std::_Tree_node<std::pair<std::basic_string<char,std::char_traits<char>,std::allocator<char> > const ,CResource * (__cdecl*)(char const *)>,void *> > >::~_Alloc_construct_ptr<std::allocator<std::_Tree_node<std::pair<std::basic_string<char,std::char_traits<char>,std::allocator<char> > const ,CResource * (__cdecl*)(char const *)>,void *> > >
_TEXT	ENDS
; Function compile flags: /Ogtp
; File C:\Program Files (x86)\Microsoft Visual Studio\2019\Community\VC\Tools\MSVC\14.27.29110\include\xtree
; File C:\Program Files (x86)\Microsoft Visual Studio\2019\Community\VC\Tools\MSVC\14.27.29110\include\xstddef
; File C:\Program Files (x86)\Microsoft Visual Studio\2019\Community\VC\Tools\MSVC\14.27.29110\include\xtree
;	COMDAT ??$_Find_lower_bound@V?$basic_string@DU?$char_traits@D@std@@V?$allocator@D@2@@std@@@?$_Tree@V?$_Tmap_traits@V?$basic_string@DU?$char_traits@D@std@@V?$allocator@D@2@@std@@P6APAVCResource@@PBD@ZU?$less@V?$basic_string@DU?$char_traits@D@std@@V?$allocator@D@2@@std@@@2@V?$allocator@U?$pair@$$CBV?$basic_string@DU?$char_traits@D@std@@V?$allocator@D@2@@std@@P6APAVCResource@@PBD@Z@std@@@2@$0A@@std@@@std@@IBE?AU?$_Tree_find_result@PAU?$_Tree_node@U?$pair@$$CBV?$basic_string@DU?$char_traits@D@std@@V?$allocator@D@2@@std@@P6APAVCResource@@PBD@Z@std@@PAX@std@@@1@ABV?$basic_string@DU?$char_traits@D@std@@V?$allocator@D@2@@1@@Z
_TEXT	SEGMENT
___$ReturnUdt$ = 8					; size = 4
__Keyval$ = 12						; size = 4
??$_Find_lower_bound@V?$basic_string@DU?$char_traits@D@std@@V?$allocator@D@2@@std@@@?$_Tree@V?$_Tmap_traits@V?$basic_string@DU?$char_traits@D@std@@V?$allocator@D@2@@std@@P6APAVCResource@@PBD@ZU?$less@V?$basic_string@DU?$char_traits@D@std@@V?$allocator@D@2@@std@@@2@V?$allocator@U?$pair@$$CBV?$basic_string@DU?$char_traits@D@std@@V?$allocator@D@2@@std@@P6APAVCResource@@PBD@Z@std@@@2@$0A@@std@@@std@@IBE?AU?$_Tree_find_result@PAU?$_Tree_node@U?$pair@$$CBV?$basic_string@DU?$char_traits@D@std@@V?$allocator@D@2@@std@@P6APAVCResource@@PBD@Z@std@@PAX@std@@@1@ABV?$basic_string@DU?$char_traits@D@std@@V?$allocator@D@2@@1@@Z PROC ; std::_Tree<std::_Tmap_traits<std::basic_string<char,std::char_traits<char>,std::allocator<char> >,CResource * (__cdecl*)(char const *),std::less<std::basic_string<char,std::char_traits<char>,std::allocator<char> > >,std::allocator<std::pair<std::basic_string<char,std::char_traits<char>,std::allocator<char> > const ,CResource * (__cdecl*)(char const *)> >,0> >::_Find_lower_bound<std::basic_string<char,std::char_traits<char>,std::allocator<char> > >, COMDAT
; _this$ = ecx

; 1699 :     _Tree_find_result<_Nodeptr> _Find_lower_bound(const _Keyty& _Keyval) const {

  00000	55		 push	 ebp
  00001	8b ec		 mov	 ebp, esp

; 1700 :         const auto _Scary = _Get_scary();
; 1701 :         _Tree_find_result<_Nodeptr> _Result{{_Scary->_Myhead->_Parent, _Tree_child::_Right}, _Scary->_Myhead};

  00003	8b 01		 mov	 eax, DWORD PTR [ecx]
  00005	56		 push	 esi
  00006	57		 push	 edi
  00007	8b 7d 08	 mov	 edi, DWORD PTR ___$ReturnUdt$[ebp]
  0000a	8b 70 04	 mov	 esi, DWORD PTR [eax+4]
  0000d	89 37		 mov	 DWORD PTR [edi], esi

; 1702 :         _Nodeptr _Trynode = _Result._Location._Parent;
; 1703 :         while (!_Trynode->_Isnil) {

  0000f	80 7e 0d 00	 cmp	 BYTE PTR [esi+13], 0
  00013	c7 47 04 00 00
	00 00		 mov	 DWORD PTR [edi+4], 0
  0001a	89 47 08	 mov	 DWORD PTR [edi+8], eax
  0001d	75 32		 jne	 SHORT $LN12@Find_lower
  0001f	53		 push	 ebx
  00020	8b 5d 0c	 mov	 ebx, DWORD PTR __Keyval$[ebp]
$LL2@Find_lower:

; 1705 :             if (_DEBUG_LT_PRED(_Getcomp(), _Traits::_Kfn(_Trynode->_Myval), _Keyval)) {

  00023	8d 46 10	 lea	 eax, DWORD PTR [esi+16]
  00026	89 37		 mov	 DWORD PTR [edi], esi
; File C:\Program Files (x86)\Microsoft Visual Studio\2019\Community\VC\Tools\MSVC\14.27.29110\include\xstddef

; 127  :         return _Left < _Right;

  00028	53		 push	 ebx
  00029	50		 push	 eax
  0002a	e8 00 00 00 00	 call	 ??$?MDU?$char_traits@D@std@@V?$allocator@D@1@@std@@YA_NABV?$basic_string@DU?$char_traits@D@std@@V?$allocator@D@2@@0@0@Z ; std::operator<<char,std::char_traits<char>,std::allocator<char> >
  0002f	83 c4 08	 add	 esp, 8
; File C:\Program Files (x86)\Microsoft Visual Studio\2019\Community\VC\Tools\MSVC\14.27.29110\include\xtree

; 1705 :             if (_DEBUG_LT_PRED(_Getcomp(), _Traits::_Kfn(_Trynode->_Myval), _Keyval)) {

  00032	84 c0		 test	 al, al
  00034	74 07		 je	 SHORT $LN4@Find_lower

; 1706 :                 _Result._Location._Child = _Tree_child::_Right;
; 1707 :                 _Trynode                 = _Trynode->_Right;

  00036	8b 76 08	 mov	 esi, DWORD PTR [esi+8]
  00039	33 c0		 xor	 eax, eax

; 1708 :             } else {

  0003b	eb 0a		 jmp	 SHORT $LN5@Find_lower
$LN4@Find_lower:

; 1709 :                 _Result._Location._Child = _Tree_child::_Left;
; 1710 :                 _Result._Bound           = _Trynode;

  0003d	89 77 08	 mov	 DWORD PTR [edi+8], esi

; 1711 :                 _Trynode                 = _Trynode->_Left;

  00040	b8 01 00 00 00	 mov	 eax, 1
  00045	8b 36		 mov	 esi, DWORD PTR [esi]
$LN5@Find_lower:

; 1702 :         _Nodeptr _Trynode = _Result._Location._Parent;
; 1703 :         while (!_Trynode->_Isnil) {

  00047	89 47 04	 mov	 DWORD PTR [edi+4], eax
  0004a	80 7e 0d 00	 cmp	 BYTE PTR [esi+13], 0
  0004e	74 d3		 je	 SHORT $LL2@Find_lower

; 1712 :             }
; 1713 :         }
; 1714 : 
; 1715 :         return _Result;

  00050	5b		 pop	 ebx
$LN12@Find_lower:

; 1716 :     }

  00051	8b c7		 mov	 eax, edi
  00053	5f		 pop	 edi
  00054	5e		 pop	 esi
  00055	5d		 pop	 ebp
  00056	c2 08 00	 ret	 8
??$_Find_lower_bound@V?$basic_string@DU?$char_traits@D@std@@V?$allocator@D@2@@std@@@?$_Tree@V?$_Tmap_traits@V?$basic_string@DU?$char_traits@D@std@@V?$allocator@D@2@@std@@P6APAVCResource@@PBD@ZU?$less@V?$basic_string@DU?$char_traits@D@std@@V?$allocator@D@2@@std@@@2@V?$allocator@U?$pair@$$CBV?$basic_string@DU?$char_traits@D@std@@V?$allocator@D@2@@std@@P6APAVCResource@@PBD@Z@std@@@2@$0A@@std@@@std@@IBE?AU?$_Tree_find_result@PAU?$_Tree_node@U?$pair@$$CBV?$basic_string@DU?$char_traits@D@std@@V?$allocator@D@2@@std@@P6APAVCResource@@PBD@Z@std@@PAX@std@@@1@ABV?$basic_string@DU?$char_traits@D@std@@V?$allocator@D@2@@1@@Z ENDP ; std::_Tree<std::_Tmap_traits<std::basic_string<char,std::char_traits<char>,std::allocator<char> >,CResource * (__cdecl*)(char const *),std::less<std::basic_string<char,std::char_traits<char>,std::allocator<char> > >,std::allocator<std::pair<std::basic_string<char,std::char_traits<char>,std::allocator<char> > const ,CResource * (__cdecl*)(char const *)> >,0> >::_Find_lower_bound<std::basic_string<char,std::char_traits<char>,std::allocator<char> > >
_TEXT	ENDS
; Function compile flags: /Ogtp
; File C:\Program Files (x86)\Microsoft Visual Studio\2019\Community\VC\Tools\MSVC\14.27.29110\include\xtree
; File C:\Program Files (x86)\Microsoft Visual Studio\2019\Community\VC\Tools\MSVC\14.27.29110\include\utility
; File C:\Program Files (x86)\Microsoft Visual Studio\2019\Community\VC\Tools\MSVC\14.27.29110\include\xmemory
; File C:\Program Files (x86)\Microsoft Visual Studio\2019\Community\VC\Tools\MSVC\14.27.29110\include\xtree
;	COMDAT ??$_Erase_tree@V?$allocator@U?$_Tree_node@U?$pair@$$CBHP6APAVCResource@@PBD@Z@std@@PAX@std@@@std@@@?$_Tree_val@U?$_Tree_simple_types@U?$pair@$$CBHP6APAVCResource@@PBD@Z@std@@@std@@@std@@QAEXAAV?$allocator@U?$_Tree_node@U?$pair@$$CBHP6APAVCResource@@PBD@Z@std@@PAX@std@@@1@PAU?$_Tree_node@U?$pair@$$CBHP6APAVCResource@@PBD@Z@std@@PAX@1@@Z
_TEXT	SEGMENT
__Al$ = 8						; size = 4
__Rootnode$ = 12					; size = 4
??$_Erase_tree@V?$allocator@U?$_Tree_node@U?$pair@$$CBHP6APAVCResource@@PBD@Z@std@@PAX@std@@@std@@@?$_Tree_val@U?$_Tree_simple_types@U?$pair@$$CBHP6APAVCResource@@PBD@Z@std@@@std@@@std@@QAEXAAV?$allocator@U?$_Tree_node@U?$pair@$$CBHP6APAVCResource@@PBD@Z@std@@PAX@std@@@1@PAU?$_Tree_node@U?$pair@$$CBHP6APAVCResource@@PBD@Z@std@@PAX@1@@Z PROC ; std::_Tree_val<std::_Tree_simple_types<std::pair<int const ,CResource * (__cdecl*)(char const *)> > >::_Erase_tree<std::allocator<std::_Tree_node<std::pair<int const ,CResource * (__cdecl*)(char const *)>,void *> > >, COMDAT
; _this$ = ecx

; 742  :     void _Erase_tree(_Alnode& _Al, _Nodeptr _Rootnode) noexcept {

  00000	55		 push	 ebp
  00001	8b ec		 mov	 ebp, esp
  00003	53		 push	 ebx
  00004	56		 push	 esi

; 743  :         while (!_Rootnode->_Isnil) { // free subtrees, then node

  00005	8b 75 0c	 mov	 esi, DWORD PTR __Rootnode$[ebp]
  00008	8b d9		 mov	 ebx, ecx
  0000a	80 7e 0d 00	 cmp	 BYTE PTR [esi+13], 0
  0000e	75 25		 jne	 SHORT $LN3@Erase_tree
  00010	57		 push	 edi
  00011	8b 7d 08	 mov	 edi, DWORD PTR __Al$[ebp]
$LL2@Erase_tree:

; 744  :             _Erase_tree(_Al, _Rootnode->_Right);

  00014	ff 76 08	 push	 DWORD PTR [esi+8]
  00017	8b cb		 mov	 ecx, ebx
  00019	57		 push	 edi
  0001a	e8 00 00 00 00	 call	 ??$_Erase_tree@V?$allocator@U?$_Tree_node@U?$pair@$$CBHP6APAVCResource@@PBD@Z@std@@PAX@std@@@std@@@?$_Tree_val@U?$_Tree_simple_types@U?$pair@$$CBHP6APAVCResource@@PBD@Z@std@@@std@@@std@@QAEXAAV?$allocator@U?$_Tree_node@U?$pair@$$CBHP6APAVCResource@@PBD@Z@std@@PAX@std@@@1@PAU?$_Tree_node@U?$pair@$$CBHP6APAVCResource@@PBD@Z@std@@PAX@1@@Z ; std::_Tree_val<std::_Tree_simple_types<std::pair<int const ,CResource * (__cdecl*)(char const *)> > >::_Erase_tree<std::allocator<std::_Tree_node<std::pair<int const ,CResource * (__cdecl*)(char const *)>,void *> > >
; File C:\Program Files (x86)\Microsoft Visual Studio\2019\Community\VC\Tools\MSVC\14.27.29110\include\utility

; 599  :     _Ty _Old_val = static_cast<_Ty&&>(_Val);

  0001f	8b c6		 mov	 eax, esi

; 600  :     _Val         = static_cast<_Other&&>(_New_val);

  00021	8b 36		 mov	 esi, DWORD PTR [esi]
; File C:\Program Files (x86)\Microsoft Visual Studio\2019\Community\VC\Tools\MSVC\14.27.29110\include\xmemory

; 689  :         _Deallocate<_New_alignof<value_type>>(_Ptr, sizeof(value_type) * _Count);

  00023	6a 18		 push	 24			; 00000018H
  00025	50		 push	 eax
  00026	e8 00 00 00 00	 call	 ??$_Deallocate@$07$0A@@std@@YAXPAXI@Z ; std::_Deallocate<8,0>
  0002b	83 c4 08	 add	 esp, 8
; File C:\Program Files (x86)\Microsoft Visual Studio\2019\Community\VC\Tools\MSVC\14.27.29110\include\xtree

; 743  :         while (!_Rootnode->_Isnil) { // free subtrees, then node

  0002e	80 7e 0d 00	 cmp	 BYTE PTR [esi+13], 0
  00032	74 e0		 je	 SHORT $LL2@Erase_tree
  00034	5f		 pop	 edi
$LN3@Erase_tree:
  00035	5e		 pop	 esi

; 745  :             _Alnode::value_type::_Freenode(_Al, _STD exchange(_Rootnode, _Rootnode->_Left));
; 746  :         }
; 747  :     }

  00036	5b		 pop	 ebx
  00037	5d		 pop	 ebp
  00038	c2 08 00	 ret	 8
??$_Erase_tree@V?$allocator@U?$_Tree_node@U?$pair@$$CBHP6APAVCResource@@PBD@Z@std@@PAX@std@@@std@@@?$_Tree_val@U?$_Tree_simple_types@U?$pair@$$CBHP6APAVCResource@@PBD@Z@std@@@std@@@std@@QAEXAAV?$allocator@U?$_Tree_node@U?$pair@$$CBHP6APAVCResource@@PBD@Z@std@@PAX@std@@@1@PAU?$_Tree_node@U?$pair@$$CBHP6APAVCResource@@PBD@Z@std@@PAX@1@@Z ENDP ; std::_Tree_val<std::_Tree_simple_types<std::pair<int const ,CResource * (__cdecl*)(char const *)> > >::_Erase_tree<std::allocator<std::_Tree_node<std::pair<int const ,CResource * (__cdecl*)(char const *)>,void *> > >
_TEXT	ENDS
; Function compile flags: /Ogtp
; File C:\Program Files (x86)\Microsoft Visual Studio\2019\Community\VC\Tools\MSVC\14.27.29110\include\xmemory
;	COMDAT ??1?$_Alloc_construct_ptr@V?$allocator@U?$_Tree_node@U?$pair@$$CBHP6APAVCResource@@PBD@Z@std@@PAX@std@@@std@@@std@@QAE@XZ
_TEXT	SEGMENT
??1?$_Alloc_construct_ptr@V?$allocator@U?$_Tree_node@U?$pair@$$CBHP6APAVCResource@@PBD@Z@std@@PAX@std@@@std@@@std@@QAE@XZ PROC ; std::_Alloc_construct_ptr<std::allocator<std::_Tree_node<std::pair<int const ,CResource * (__cdecl*)(char const *)>,void *> > >::~_Alloc_construct_ptr<std::allocator<std::_Tree_node<std::pair<int const ,CResource * (__cdecl*)(char const *)>,void *> > >, COMDAT
; _this$ = ecx

; 1052 :         if (_Ptr) {

  00000	8b 41 04	 mov	 eax, DWORD PTR [ecx+4]
  00003	85 c0		 test	 eax, eax
  00005	74 0b		 je	 SHORT $LN2@Alloc_cons

; 803  :         _Deallocate<_New_alignof<_Ty>>(_Ptr, sizeof(_Ty) * _Count);

  00007	6a 18		 push	 24			; 00000018H
  00009	50		 push	 eax
  0000a	e8 00 00 00 00	 call	 ??$_Deallocate@$07$0A@@std@@YAXPAXI@Z ; std::_Deallocate<8,0>
  0000f	83 c4 08	 add	 esp, 8
$LN2@Alloc_cons:

; 1053 :             _Al.deallocate(_Ptr, 1);
; 1054 :         }
; 1055 :     }

  00012	c3		 ret	 0
??1?$_Alloc_construct_ptr@V?$allocator@U?$_Tree_node@U?$pair@$$CBHP6APAVCResource@@PBD@Z@std@@PAX@std@@@std@@@std@@QAE@XZ ENDP ; std::_Alloc_construct_ptr<std::allocator<std::_Tree_node<std::pair<int const ,CResource * (__cdecl*)(char const *)>,void *> > >::~_Alloc_construct_ptr<std::allocator<std::_Tree_node<std::pair<int const ,CResource * (__cdecl*)(char const *)>,void *> > >
_TEXT	ENDS
; Function compile flags: /Ogtp
; File C:\Program Files (x86)\Microsoft Visual Studio\2019\Community\VC\Tools\MSVC\14.27.29110\include\xtree
; File C:\Program Files (x86)\Microsoft Visual Studio\2019\Community\VC\Tools\MSVC\14.27.29110\include\xstddef
; File C:\Program Files (x86)\Microsoft Visual Studio\2019\Community\VC\Tools\MSVC\14.27.29110\include\xtree
; File C:\Program Files (x86)\Microsoft Visual Studio\2019\Community\VC\Tools\MSVC\14.27.29110\include\xstddef
; File C:\Program Files (x86)\Microsoft Visual Studio\2019\Community\VC\Tools\MSVC\14.27.29110\include\xtree
;	COMDAT ??$_Find_lower_bound@H@?$_Tree@V?$_Tmap_traits@HP6APAVCResource@@PBD@ZU?$less@H@std@@V?$allocator@U?$pair@$$CBHP6APAVCResource@@PBD@Z@std@@@3@$0A@@std@@@std@@IBE?AU?$_Tree_find_result@PAU?$_Tree_node@U?$pair@$$CBHP6APAVCResource@@PBD@Z@std@@PAX@std@@@1@ABH@Z
_TEXT	SEGMENT
___$ReturnUdt$ = 8					; size = 4
__Keyval$ = 12						; size = 4
??$_Find_lower_bound@H@?$_Tree@V?$_Tmap_traits@HP6APAVCResource@@PBD@ZU?$less@H@std@@V?$allocator@U?$pair@$$CBHP6APAVCResource@@PBD@Z@std@@@3@$0A@@std@@@std@@IBE?AU?$_Tree_find_result@PAU?$_Tree_node@U?$pair@$$CBHP6APAVCResource@@PBD@Z@std@@PAX@std@@@1@ABH@Z PROC ; std::_Tree<std::_Tmap_traits<int,CResource * (__cdecl*)(char const *),std::less<int>,std::allocator<std::pair<int const ,CResource * (__cdecl*)(char const *)> >,0> >::_Find_lower_bound<int>, COMDAT
; _this$ = ecx

; 1699 :     _Tree_find_result<_Nodeptr> _Find_lower_bound(const _Keyty& _Keyval) const {

  00000	55		 push	 ebp
  00001	8b ec		 mov	 ebp, esp

; 1700 :         const auto _Scary = _Get_scary();
; 1701 :         _Tree_find_result<_Nodeptr> _Result{{_Scary->_Myhead->_Parent, _Tree_child::_Right}, _Scary->_Myhead};

  00003	8b 09		 mov	 ecx, DWORD PTR [ecx]
  00005	8b 55 08	 mov	 edx, DWORD PTR ___$ReturnUdt$[ebp]
  00008	8b 41 04	 mov	 eax, DWORD PTR [ecx+4]
  0000b	89 02		 mov	 DWORD PTR [edx], eax
  0000d	c7 42 04 00 00
	00 00		 mov	 DWORD PTR [edx+4], 0
  00014	89 4a 08	 mov	 DWORD PTR [edx+8], ecx

; 1702 :         _Nodeptr _Trynode = _Result._Location._Parent;
; 1703 :         while (!_Trynode->_Isnil) {

  00017	80 78 0d 00	 cmp	 BYTE PTR [eax+13], 0
  0001b	75 28		 jne	 SHORT $LN12@Find_lower
; File C:\Program Files (x86)\Microsoft Visual Studio\2019\Community\VC\Tools\MSVC\14.27.29110\include\xstddef

; 127  :         return _Left < _Right;

  0001d	8b 4d 0c	 mov	 ecx, DWORD PTR __Keyval$[ebp]
  00020	56		 push	 esi
  00021	8b 31		 mov	 esi, DWORD PTR [ecx]
$LL2@Find_lower:
; File C:\Program Files (x86)\Microsoft Visual Studio\2019\Community\VC\Tools\MSVC\14.27.29110\include\xtree

; 1704 :             _Result._Location._Parent = _Trynode;

  00023	89 02		 mov	 DWORD PTR [edx], eax
; File C:\Program Files (x86)\Microsoft Visual Studio\2019\Community\VC\Tools\MSVC\14.27.29110\include\xstddef

; 127  :         return _Left < _Right;

  00025	39 70 10	 cmp	 DWORD PTR [eax+16], esi
; File C:\Program Files (x86)\Microsoft Visual Studio\2019\Community\VC\Tools\MSVC\14.27.29110\include\xtree

; 1705 :             if (_DEBUG_LT_PRED(_Getcomp(), _Traits::_Kfn(_Trynode->_Myval), _Keyval)) {

  00028	7d 07		 jge	 SHORT $LN4@Find_lower

; 1706 :                 _Result._Location._Child = _Tree_child::_Right;
; 1707 :                 _Trynode                 = _Trynode->_Right;

  0002a	8b 40 08	 mov	 eax, DWORD PTR [eax+8]
  0002d	33 c9		 xor	 ecx, ecx

; 1708 :             } else {

  0002f	eb 0a		 jmp	 SHORT $LN5@Find_lower
$LN4@Find_lower:

; 1709 :                 _Result._Location._Child = _Tree_child::_Left;
; 1710 :                 _Result._Bound           = _Trynode;

  00031	89 42 08	 mov	 DWORD PTR [edx+8], eax

; 1711 :                 _Trynode                 = _Trynode->_Left;

  00034	b9 01 00 00 00	 mov	 ecx, 1
  00039	8b 00		 mov	 eax, DWORD PTR [eax]
$LN5@Find_lower:

; 1702 :         _Nodeptr _Trynode = _Result._Location._Parent;
; 1703 :         while (!_Trynode->_Isnil) {

  0003b	89 4a 04	 mov	 DWORD PTR [edx+4], ecx
  0003e	80 78 0d 00	 cmp	 BYTE PTR [eax+13], 0
  00042	74 df		 je	 SHORT $LL2@Find_lower

; 1712 :             }
; 1713 :         }
; 1714 : 
; 1715 :         return _Result;

  00044	5e		 pop	 esi
$LN12@Find_lower:

; 1716 :     }

  00045	8b c2		 mov	 eax, edx
  00047	5d		 pop	 ebp
  00048	c2 08 00	 ret	 8
??$_Find_lower_bound@H@?$_Tree@V?$_Tmap_traits@HP6APAVCResource@@PBD@ZU?$less@H@std@@V?$allocator@U?$pair@$$CBHP6APAVCResource@@PBD@Z@std@@@3@$0A@@std@@@std@@IBE?AU?$_Tree_find_result@PAU?$_Tree_node@U?$pair@$$CBHP6APAVCResource@@PBD@Z@std@@PAX@std@@@1@ABH@Z ENDP ; std::_Tree<std::_Tmap_traits<int,CResource * (__cdecl*)(char const *),std::less<int>,std::allocator<std::pair<int const ,CResource * (__cdecl*)(char const *)> >,0> >::_Find_lower_bound<int>
_TEXT	ENDS
; Function compile flags: /Ogtp
; File C:\Program Files (x86)\Microsoft Visual Studio\2019\Community\VC\Tools\MSVC\14.27.29110\include\xtree
; File C:\Program Files (x86)\Microsoft Visual Studio\2019\Community\VC\Tools\MSVC\14.27.29110\include\xstddef
; File C:\Program Files (x86)\Microsoft Visual Studio\2019\Community\VC\Tools\MSVC\14.27.29110\include\xtree
; File C:\Program Files (x86)\Microsoft Visual Studio\2019\Community\VC\Tools\MSVC\14.27.29110\include\xstddef
; File C:\Program Files (x86)\Microsoft Visual Studio\2019\Community\VC\Tools\MSVC\14.27.29110\include\xtree
;	COMDAT ??$_Find_lower_bound@K@?$_Tree@V?$_Tmap_traits@KV?$basic_string@DU?$char_traits@D@std@@V?$allocator@D@2@@std@@U?$less@K@2@V?$allocator@U?$pair@$$CBKV?$basic_string@DU?$char_traits@D@std@@V?$allocator@D@2@@std@@@std@@@2@$0A@@std@@@std@@IBE?AU?$_Tree_find_result@PAU?$_Tree_node@U?$pair@$$CBKV?$basic_string@DU?$char_traits@D@std@@V?$allocator@D@2@@std@@@std@@PAX@std@@@1@ABK@Z
_TEXT	SEGMENT
___$ReturnUdt$ = 8					; size = 4
__Keyval$ = 12						; size = 4
??$_Find_lower_bound@K@?$_Tree@V?$_Tmap_traits@KV?$basic_string@DU?$char_traits@D@std@@V?$allocator@D@2@@std@@U?$less@K@2@V?$allocator@U?$pair@$$CBKV?$basic_string@DU?$char_traits@D@std@@V?$allocator@D@2@@std@@@std@@@2@$0A@@std@@@std@@IBE?AU?$_Tree_find_result@PAU?$_Tree_node@U?$pair@$$CBKV?$basic_string@DU?$char_traits@D@std@@V?$allocator@D@2@@std@@@std@@PAX@std@@@1@ABK@Z PROC ; std::_Tree<std::_Tmap_traits<unsigned long,std::basic_string<char,std::char_traits<char>,std::allocator<char> >,std::less<unsigned long>,std::allocator<std::pair<unsigned long const ,std::basic_string<char,std::char_traits<char>,std::allocator<char> > > >,0> >::_Find_lower_bound<unsigned long>, COMDAT
; _this$ = ecx

; 1699 :     _Tree_find_result<_Nodeptr> _Find_lower_bound(const _Keyty& _Keyval) const {

  00000	55		 push	 ebp
  00001	8b ec		 mov	 ebp, esp

; 1700 :         const auto _Scary = _Get_scary();
; 1701 :         _Tree_find_result<_Nodeptr> _Result{{_Scary->_Myhead->_Parent, _Tree_child::_Right}, _Scary->_Myhead};

  00003	8b 09		 mov	 ecx, DWORD PTR [ecx]
  00005	8b 55 08	 mov	 edx, DWORD PTR ___$ReturnUdt$[ebp]
  00008	8b 41 04	 mov	 eax, DWORD PTR [ecx+4]
  0000b	89 02		 mov	 DWORD PTR [edx], eax
  0000d	c7 42 04 00 00
	00 00		 mov	 DWORD PTR [edx+4], 0
  00014	89 4a 08	 mov	 DWORD PTR [edx+8], ecx

; 1702 :         _Nodeptr _Trynode = _Result._Location._Parent;
; 1703 :         while (!_Trynode->_Isnil) {

  00017	80 78 0d 00	 cmp	 BYTE PTR [eax+13], 0
  0001b	75 28		 jne	 SHORT $LN12@Find_lower
; File C:\Program Files (x86)\Microsoft Visual Studio\2019\Community\VC\Tools\MSVC\14.27.29110\include\xstddef

; 127  :         return _Left < _Right;

  0001d	8b 4d 0c	 mov	 ecx, DWORD PTR __Keyval$[ebp]
  00020	56		 push	 esi
  00021	8b 31		 mov	 esi, DWORD PTR [ecx]
$LL2@Find_lower:
; File C:\Program Files (x86)\Microsoft Visual Studio\2019\Community\VC\Tools\MSVC\14.27.29110\include\xtree

; 1704 :             _Result._Location._Parent = _Trynode;

  00023	89 02		 mov	 DWORD PTR [edx], eax
; File C:\Program Files (x86)\Microsoft Visual Studio\2019\Community\VC\Tools\MSVC\14.27.29110\include\xstddef

; 127  :         return _Left < _Right;

  00025	39 70 10	 cmp	 DWORD PTR [eax+16], esi
; File C:\Program Files (x86)\Microsoft Visual Studio\2019\Community\VC\Tools\MSVC\14.27.29110\include\xtree

; 1705 :             if (_DEBUG_LT_PRED(_Getcomp(), _Traits::_Kfn(_Trynode->_Myval), _Keyval)) {

  00028	73 07		 jae	 SHORT $LN4@Find_lower

; 1706 :                 _Result._Location._Child = _Tree_child::_Right;
; 1707 :                 _Trynode                 = _Trynode->_Right;

  0002a	8b 40 08	 mov	 eax, DWORD PTR [eax+8]
  0002d	33 c9		 xor	 ecx, ecx

; 1708 :             } else {

  0002f	eb 0a		 jmp	 SHORT $LN5@Find_lower
$LN4@Find_lower:

; 1709 :                 _Result._Location._Child = _Tree_child::_Left;
; 1710 :                 _Result._Bound           = _Trynode;

  00031	89 42 08	 mov	 DWORD PTR [edx+8], eax

; 1711 :                 _Trynode                 = _Trynode->_Left;

  00034	b9 01 00 00 00	 mov	 ecx, 1
  00039	8b 00		 mov	 eax, DWORD PTR [eax]
$LN5@Find_lower:

; 1702 :         _Nodeptr _Trynode = _Result._Location._Parent;
; 1703 :         while (!_Trynode->_Isnil) {

  0003b	89 4a 04	 mov	 DWORD PTR [edx+4], ecx
  0003e	80 78 0d 00	 cmp	 BYTE PTR [eax+13], 0
  00042	74 df		 je	 SHORT $LL2@Find_lower

; 1712 :             }
; 1713 :         }
; 1714 : 
; 1715 :         return _Result;

  00044	5e		 pop	 esi
$LN12@Find_lower:

; 1716 :     }

  00045	8b c2		 mov	 eax, edx
  00047	5d		 pop	 ebp
  00048	c2 08 00	 ret	 8
??$_Find_lower_bound@K@?$_Tree@V?$_Tmap_traits@KV?$basic_string@DU?$char_traits@D@std@@V?$allocator@D@2@@std@@U?$less@K@2@V?$allocator@U?$pair@$$CBKV?$basic_string@DU?$char_traits@D@std@@V?$allocator@D@2@@std@@@std@@@2@$0A@@std@@@std@@IBE?AU?$_Tree_find_result@PAU?$_Tree_node@U?$pair@$$CBKV?$basic_string@DU?$char_traits@D@std@@V?$allocator@D@2@@std@@@std@@PAX@std@@@1@ABK@Z ENDP ; std::_Tree<std::_Tmap_traits<unsigned long,std::basic_string<char,std::char_traits<char>,std::allocator<char> >,std::less<unsigned long>,std::allocator<std::pair<unsigned long const ,std::basic_string<char,std::char_traits<char>,std::allocator<char> > > >,0> >::_Find_lower_bound<unsigned long>
_TEXT	ENDS
; Function compile flags: /Ogtp
; File C:\Program Files (x86)\Microsoft Visual Studio\2019\Community\VC\Tools\MSVC\14.27.29110\include\xtree
; File C:\Program Files (x86)\Microsoft Visual Studio\2019\Community\VC\Tools\MSVC\14.27.29110\include\utility
; File C:\Program Files (x86)\Microsoft Visual Studio\2019\Community\VC\Tools\MSVC\14.27.29110\include\xmemory
; File C:\Program Files (x86)\Microsoft Visual Studio\2019\Community\VC\Tools\MSVC\14.27.29110\include\xtree
;	COMDAT ??$_Erase_tree@V?$allocator@U?$_Tree_node@U?$pair@$$CBJPAVCResource@@@std@@PAX@std@@@std@@@?$_Tree_val@U?$_Tree_simple_types@U?$pair@$$CBJPAVCResource@@@std@@@std@@@std@@QAEXAAV?$allocator@U?$_Tree_node@U?$pair@$$CBJPAVCResource@@@std@@PAX@std@@@1@PAU?$_Tree_node@U?$pair@$$CBJPAVCResource@@@std@@PAX@1@@Z
_TEXT	SEGMENT
__Al$ = 8						; size = 4
__Rootnode$ = 12					; size = 4
??$_Erase_tree@V?$allocator@U?$_Tree_node@U?$pair@$$CBJPAVCResource@@@std@@PAX@std@@@std@@@?$_Tree_val@U?$_Tree_simple_types@U?$pair@$$CBJPAVCResource@@@std@@@std@@@std@@QAEXAAV?$allocator@U?$_Tree_node@U?$pair@$$CBJPAVCResource@@@std@@PAX@std@@@1@PAU?$_Tree_node@U?$pair@$$CBJPAVCResource@@@std@@PAX@1@@Z PROC ; std::_Tree_val<std::_Tree_simple_types<std::pair<long const ,CResource *> > >::_Erase_tree<std::allocator<std::_Tree_node<std::pair<long const ,CResource *>,void *> > >, COMDAT
; _this$ = ecx

; 742  :     void _Erase_tree(_Alnode& _Al, _Nodeptr _Rootnode) noexcept {

  00000	55		 push	 ebp
  00001	8b ec		 mov	 ebp, esp
  00003	53		 push	 ebx
  00004	56		 push	 esi

; 743  :         while (!_Rootnode->_Isnil) { // free subtrees, then node

  00005	8b 75 0c	 mov	 esi, DWORD PTR __Rootnode$[ebp]
  00008	8b d9		 mov	 ebx, ecx
  0000a	80 7e 0d 00	 cmp	 BYTE PTR [esi+13], 0
  0000e	75 25		 jne	 SHORT $LN3@Erase_tree
  00010	57		 push	 edi
  00011	8b 7d 08	 mov	 edi, DWORD PTR __Al$[ebp]
$LL2@Erase_tree:

; 744  :             _Erase_tree(_Al, _Rootnode->_Right);

  00014	ff 76 08	 push	 DWORD PTR [esi+8]
  00017	8b cb		 mov	 ecx, ebx
  00019	57		 push	 edi
  0001a	e8 00 00 00 00	 call	 ??$_Erase_tree@V?$allocator@U?$_Tree_node@U?$pair@$$CBJPAVCResource@@@std@@PAX@std@@@std@@@?$_Tree_val@U?$_Tree_simple_types@U?$pair@$$CBJPAVCResource@@@std@@@std@@@std@@QAEXAAV?$allocator@U?$_Tree_node@U?$pair@$$CBJPAVCResource@@@std@@PAX@std@@@1@PAU?$_Tree_node@U?$pair@$$CBJPAVCResource@@@std@@PAX@1@@Z ; std::_Tree_val<std::_Tree_simple_types<std::pair<long const ,CResource *> > >::_Erase_tree<std::allocator<std::_Tree_node<std::pair<long const ,CResource *>,void *> > >
; File C:\Program Files (x86)\Microsoft Visual Studio\2019\Community\VC\Tools\MSVC\14.27.29110\include\utility

; 599  :     _Ty _Old_val = static_cast<_Ty&&>(_Val);

  0001f	8b c6		 mov	 eax, esi

; 600  :     _Val         = static_cast<_Other&&>(_New_val);

  00021	8b 36		 mov	 esi, DWORD PTR [esi]
; File C:\Program Files (x86)\Microsoft Visual Studio\2019\Community\VC\Tools\MSVC\14.27.29110\include\xmemory

; 689  :         _Deallocate<_New_alignof<value_type>>(_Ptr, sizeof(value_type) * _Count);

  00023	6a 18		 push	 24			; 00000018H
  00025	50		 push	 eax
  00026	e8 00 00 00 00	 call	 ??$_Deallocate@$07$0A@@std@@YAXPAXI@Z ; std::_Deallocate<8,0>
  0002b	83 c4 08	 add	 esp, 8
; File C:\Program Files (x86)\Microsoft Visual Studio\2019\Community\VC\Tools\MSVC\14.27.29110\include\xtree

; 743  :         while (!_Rootnode->_Isnil) { // free subtrees, then node

  0002e	80 7e 0d 00	 cmp	 BYTE PTR [esi+13], 0
  00032	74 e0		 je	 SHORT $LL2@Erase_tree
  00034	5f		 pop	 edi
$LN3@Erase_tree:
  00035	5e		 pop	 esi

; 745  :             _Alnode::value_type::_Freenode(_Al, _STD exchange(_Rootnode, _Rootnode->_Left));
; 746  :         }
; 747  :     }

  00036	5b		 pop	 ebx
  00037	5d		 pop	 ebp
  00038	c2 08 00	 ret	 8
??$_Erase_tree@V?$allocator@U?$_Tree_node@U?$pair@$$CBJPAVCResource@@@std@@PAX@std@@@std@@@?$_Tree_val@U?$_Tree_simple_types@U?$pair@$$CBJPAVCResource@@@std@@@std@@@std@@QAEXAAV?$allocator@U?$_Tree_node@U?$pair@$$CBJPAVCResource@@@std@@PAX@std@@@1@PAU?$_Tree_node@U?$pair@$$CBJPAVCResource@@@std@@PAX@1@@Z ENDP ; std::_Tree_val<std::_Tree_simple_types<std::pair<long const ,CResource *> > >::_Erase_tree<std::allocator<std::_Tree_node<std::pair<long const ,CResource *>,void *> > >
_TEXT	ENDS
; Function compile flags: /Ogtp
; File C:\Program Files (x86)\Microsoft Visual Studio\2019\Community\VC\Tools\MSVC\14.27.29110\include\algorithm
; File C:\Program Files (x86)\Microsoft Visual Studio\2019\Community\VC\Tools\MSVC\14.27.29110\include\xutility
; File C:\Program Files (x86)\Microsoft Visual Studio\2019\Community\VC\Tools\MSVC\14.27.29110\include\algorithm
; File C:\Program Files (x86)\Microsoft Visual Studio\2019\Community\VC\Tools\MSVC\14.27.29110\include\xutility
; File C:\Program Files (x86)\Microsoft Visual Studio\2019\Community\VC\Tools\MSVC\14.27.29110\include\algorithm
;	COMDAT ??$_Sort_unchecked@PAUSDumpData@@P6A_NABU1@0@Z@std@@YAXPAUSDumpData@@0HP6A_NABU1@1@Z@Z
_TEXT	SEGMENT
__Val$1 = -20						; size = 12
__Val$2 = -20						; size = 12
__Mid$3 = -8						; size = 8
__Next$1$ = -4						; size = 4
tv261 = 8						; size = 4
__First$ = 8						; size = 4
tv260 = 12						; size = 4
__Last$ = 12						; size = 4
__Ideal$ = 16						; size = 4
__Pred$ = 20						; size = 4
??$_Sort_unchecked@PAUSDumpData@@P6A_NABU1@0@Z@std@@YAXPAUSDumpData@@0HP6A_NABU1@1@Z@Z PROC ; std::_Sort_unchecked<SDumpData *,bool (__cdecl*)(SDumpData const &,SDumpData const &)>, COMDAT

; 4104 : _CONSTEXPR20 void _Sort_unchecked(_RanIt _First, _RanIt _Last, _Iter_diff_t<_RanIt> _Ideal, _Pr _Pred) {

  00000	55		 push	 ebp
  00001	8b ec		 mov	 ebp, esp
  00003	83 ec 14	 sub	 esp, 20			; 00000014H
  00006	53		 push	 ebx

; 4105 :     // order [_First, _Last), using _Pred
; 4106 :     for (;;) {
; 4107 :         if (_Last - _First <= _ISORT_MAX) { // small

  00007	8b 5d 08	 mov	 ebx, DWORD PTR __First$[ebp]
  0000a	56		 push	 esi
  0000b	8b 75 0c	 mov	 esi, DWORD PTR __Last$[ebp]
  0000e	8b c6		 mov	 eax, esi
  00010	2b c3		 sub	 eax, ebx
  00012	57		 push	 edi
  00013	8b 7d 14	 mov	 edi, DWORD PTR __Pred$[ebp]
  00016	3d 8c 01 00 00	 cmp	 eax, 396		; 0000018cH
  0001b	0f 8c 90 00 00
	00		 jl	 $LN40@Sort_unche
$LL2@Sort_unche:

; 4108 :             _Insertion_sort_unchecked(_First, _Last, _Pred);
; 4109 :             return;
; 4110 :         }
; 4111 : 
; 4112 :         if (_Ideal <= 0) { // heap sort if too many divisions

  00021	83 7d 10 00	 cmp	 DWORD PTR __Ideal$[ebp], 0
  00025	57		 push	 edi
  00026	56		 push	 esi
  00027	53		 push	 ebx
  00028	0f 8e eb 00 00
	00		 jle	 $LN41@Sort_unche

; 4114 :             _Sort_heap_unchecked(_First, _Last, _Pred);
; 4115 :             return;
; 4116 :         }
; 4117 : 
; 4118 :         // divide and conquer by quicksort
; 4119 :         auto _Mid = _Partition_by_median_guess_unchecked(_First, _Last, _Pred);

  0002e	8d 45 f8	 lea	 eax, DWORD PTR __Mid$3[ebp]
  00031	50		 push	 eax
  00032	e8 00 00 00 00	 call	 ??$_Partition_by_median_guess_unchecked@PAUSDumpData@@P6A_NABU1@0@Z@std@@YA?AU?$pair@PAUSDumpData@@PAU1@@0@PAUSDumpData@@0P6A_NABU2@1@Z@Z ; std::_Partition_by_median_guess_unchecked<SDumpData *,bool (__cdecl*)(SDumpData const &,SDumpData const &)>

; 4120 : 
; 4121 :         _Ideal = (_Ideal >> 1) + (_Ideal >> 2); // allow 1.5 log2(N) divisions

  00037	8b 4d 10	 mov	 ecx, DWORD PTR __Ideal$[ebp]
  0003a	83 c4 10	 add	 esp, 16			; 00000010H
  0003d	8b c1		 mov	 eax, ecx
  0003f	d1 f9		 sar	 ecx, 1
  00041	c1 f8 02	 sar	 eax, 2
  00044	03 c8		 add	 ecx, eax

; 4122 : 
; 4123 :         if (_Mid.first - _First < _Last - _Mid.second) { // loop on second half

  00046	b8 ab aa aa 2a	 mov	 eax, 715827883		; 2aaaaaabH
  0004b	89 4d 10	 mov	 DWORD PTR __Ideal$[ebp], ecx
  0004e	8b ce		 mov	 ecx, esi
  00050	2b 4d fc	 sub	 ecx, DWORD PTR __Mid$3[ebp+4]
