; Listing generated by Microsoft (R) Optimizing Compiler Version 19.27.29112.0 

	TITLE	C:\DS Project\DS Files\Source\ClientSource\Client\EterLib\ScreenFilter.cpp
	.686P
	.XMM
	include listing.inc
	.model	flat

INCLUDELIB LIBCMT
INCLUDELIB OLDNAMES

PUBLIC	??_H@YGXPAXIIP6EPAX0@Z@Z			; `vector constructor iterator'
PUBLIC	??0CScreenFilter@@QAE@XZ			; CScreenFilter::CScreenFilter
PUBLIC	??1CScreenFilter@@UAE@XZ			; CScreenFilter::~CScreenFilter
PUBLIC	?SetEnable@CScreenFilter@@QAEXH@Z		; CScreenFilter::SetEnable
PUBLIC	?SetBlendType@CScreenFilter@@QAEXEE@Z		; CScreenFilter::SetBlendType
PUBLIC	?SetColor@CScreenFilter@@QAEXABUD3DXCOLOR@@@Z	; CScreenFilter::SetColor
PUBLIC	?Render@CScreenFilter@@QAEXXZ			; CScreenFilter::Render
PUBLIC	??_GCScreenFilter@@UAEPAXI@Z			; CScreenFilter::`scalar deleting destructor'
PUBLIC	??_7CScreenFilter@@6B@				; CScreenFilter::`vftable'
PUBLIC	?ms_singleton@?$CSingleton@VCStateManager@@@@0PAVCStateManager@@A ; CSingleton<CStateManager>::ms_singleton
PUBLIC	??_R4CScreenFilter@@6B@				; CScreenFilter::`RTTI Complete Object Locator'
PUBLIC	??_R0?AVCScreenFilter@@@8			; CScreenFilter `RTTI Type Descriptor'
PUBLIC	??_R3CScreenFilter@@8				; CScreenFilter::`RTTI Class Hierarchy Descriptor'
PUBLIC	??_R2CScreenFilter@@8				; CScreenFilter::`RTTI Base Class Array'
PUBLIC	??_R1A@?0A@EA@CScreenFilter@@8			; CScreenFilter::`RTTI Base Class Descriptor at (0,-1,0,64)'
PUBLIC	??_R1A@?0A@EA@CScreen@@8			; CScreen::`RTTI Base Class Descriptor at (0,-1,0,64)'
PUBLIC	??_R0?AVCScreen@@@8				; CScreen `RTTI Type Descriptor'
PUBLIC	??_R3CScreen@@8					; CScreen::`RTTI Class Hierarchy Descriptor'
PUBLIC	??_R2CScreen@@8					; CScreen::`RTTI Base Class Array'
PUBLIC	??_R1A@?0A@EA@CGraphicCollisionObject@@8	; CGraphicCollisionObject::`RTTI Base Class Descriptor at (0,-1,0,64)'
PUBLIC	??_R0?AVCGraphicCollisionObject@@@8		; CGraphicCollisionObject `RTTI Type Descriptor'
PUBLIC	??_R3CGraphicCollisionObject@@8			; CGraphicCollisionObject::`RTTI Class Hierarchy Descriptor'
PUBLIC	??_R2CGraphicCollisionObject@@8			; CGraphicCollisionObject::`RTTI Base Class Array'
PUBLIC	??_R1A@?0A@EA@CGraphicBase@@8			; CGraphicBase::`RTTI Base Class Descriptor at (0,-1,0,64)'
PUBLIC	??_R0?AVCGraphicBase@@@8			; CGraphicBase `RTTI Type Descriptor'
PUBLIC	??_R3CGraphicBase@@8				; CGraphicBase::`RTTI Class Hierarchy Descriptor'
PUBLIC	??_R2CGraphicBase@@8				; CGraphicBase::`RTTI Base Class Array'
EXTRN	??3@YAXPAXI@Z:PROC				; operator delete
EXTRN	?SetOrtho2D@CGraphicBase@@QAEXMMM@Z:PROC	; CGraphicBase::SetOrtho2D
EXTRN	??0CScreen@@QAE@XZ:PROC				; CScreen::CScreen
EXTRN	??1CScreen@@UAE@XZ:PROC				; CScreen::~CScreen
EXTRN	?RenderBar2d@CScreen@@QAEXMMMMM@Z:PROC		; CScreen::RenderBar2d
EXTRN	?SetDiffuseColor@CScreen@@QAEXMMMM@Z:PROC	; CScreen::SetDiffuseColor
EXTRN	??_ECScreenFilter@@UAEPAXI@Z:PROC		; CScreenFilter::`vector deleting destructor'
EXTRN	?SaveRenderState@CStateManager@@QAEXW4_D3DRENDERSTATETYPE@@K@Z:PROC ; CStateManager::SaveRenderState
EXTRN	?RestoreRenderState@CStateManager@@QAEXW4_D3DRENDERSTATETYPE@@@Z:PROC ; CStateManager::RestoreRenderState
EXTRN	?SaveTransform@CStateManager@@QAEXW4_D3DTRANSFORMSTATETYPE@@PBU_D3DMATRIX@@@Z:PROC ; CStateManager::SaveTransform
EXTRN	?RestoreTransform@CStateManager@@QAEXW4_D3DTRANSFORMSTATETYPE@@@Z:PROC ; CStateManager::RestoreTransform
EXTRN	?SetTransform@CStateManager@@QAEXW4_D3DTRANSFORMSTATETYPE@@PBU_D3DMATRIX@@@Z:PROC ; CStateManager::SetTransform
EXTRN	??_7type_info@@6B@:QWORD			; type_info::`vftable'
EXTRN	?ms_matIdentity@CGraphicBase@@1UD3DXMATRIX@@A:BYTE ; CGraphicBase::ms_matIdentity
EXTRN	?ms_iWidth@CGraphicBase@@1HA:DWORD		; CGraphicBase::ms_iWidth
EXTRN	?ms_iHeight@CGraphicBase@@1HA:DWORD		; CGraphicBase::ms_iHeight
EXTRN	__fltused:DWORD
;	COMDAT ?ms_singleton@?$CSingleton@VCStateManager@@@@0PAVCStateManager@@A
_BSS	SEGMENT
?ms_singleton@?$CSingleton@VCStateManager@@@@0PAVCStateManager@@A DD 01H DUP (?) ; CSingleton<CStateManager>::ms_singleton
_BSS	ENDS
;	COMDAT ??_R2CGraphicBase@@8
rdata$r	SEGMENT
??_R2CGraphicBase@@8 DD FLAT:??_R1A@?0A@EA@CGraphicBase@@8 ; CGraphicBase::`RTTI Base Class Array'
rdata$r	ENDS
;	COMDAT ??_R3CGraphicBase@@8
rdata$r	SEGMENT
??_R3CGraphicBase@@8 DD 00H				; CGraphicBase::`RTTI Class Hierarchy Descriptor'
	DD	00H
	DD	01H
	DD	FLAT:??_R2CGraphicBase@@8
rdata$r	ENDS
;	COMDAT ??_R0?AVCGraphicBase@@@8
data$r	SEGMENT
??_R0?AVCGraphicBase@@@8 DD FLAT:??_7type_info@@6B@	; CGraphicBase `RTTI Type Descriptor'
	DD	00H
	DB	'.?AVCGraphicBase@@', 00H
data$r	ENDS
;	COMDAT ??_R1A@?0A@EA@CGraphicBase@@8
rdata$r	SEGMENT
??_R1A@?0A@EA@CGraphicBase@@8 DD FLAT:??_R0?AVCGraphicBase@@@8 ; CGraphicBase::`RTTI Base Class Descriptor at (0,-1,0,64)'
	DD	00H
	DD	00H
	DD	0ffffffffH
	DD	00H
	DD	040H
	DD	FLAT:??_R3CGraphicBase@@8
rdata$r	ENDS
;	COMDAT ??_R2CGraphicCollisionObject@@8
rdata$r	SEGMENT
??_R2CGraphicCollisionObject@@8 DD FLAT:??_R1A@?0A@EA@CGraphicCollisionObject@@8 ; CGraphicCollisionObject::`RTTI Base Class Array'
	DD	FLAT:??_R1A@?0A@EA@CGraphicBase@@8
rdata$r	ENDS
;	COMDAT ??_R3CGraphicCollisionObject@@8
rdata$r	SEGMENT
??_R3CGraphicCollisionObject@@8 DD 00H			; CGraphicCollisionObject::`RTTI Class Hierarchy Descriptor'
	DD	00H
	DD	02H
	DD	FLAT:??_R2CGraphicCollisionObject@@8
rdata$r	ENDS
;	COMDAT ??_R0?AVCGraphicCollisionObject@@@8
data$r	SEGMENT
??_R0?AVCGraphicCollisionObject@@@8 DD FLAT:??_7type_info@@6B@ ; CGraphicCollisionObject `RTTI Type Descriptor'
	DD	00H
	DB	'.?AVCGraphicCollisionObject@@', 00H
data$r	ENDS
;	COMDAT ??_R1A@?0A@EA@CGraphicCollisionObject@@8
rdata$r	SEGMENT
??_R1A@?0A@EA@CGraphicCollisionObject@@8 DD FLAT:??_R0?AVCGraphicCollisionObject@@@8 ; CGraphicCollisionObject::`RTTI Base Class Descriptor at (0,-1,0,64)'
	DD	01H
	DD	00H
	DD	0ffffffffH
	DD	00H
	DD	040H
	DD	FLAT:??_R3CGraphicCollisionObject@@8
rdata$r	ENDS
;	COMDAT ??_R2CScreen@@8
rdata$r	SEGMENT
??_R2CScreen@@8 DD FLAT:??_R1A@?0A@EA@CScreen@@8	; CScreen::`RTTI Base Class Array'
	DD	FLAT:??_R1A@?0A@EA@CGraphicCollisionObject@@8
	DD	FLAT:??_R1A@?0A@EA@CGraphicBase@@8
rdata$r	ENDS
;	COMDAT ??_R3CScreen@@8
rdata$r	SEGMENT
??_R3CScreen@@8 DD 00H					; CScreen::`RTTI Class Hierarchy Descriptor'
	DD	00H
	DD	03H
	DD	FLAT:??_R2CScreen@@8
rdata$r	ENDS
;	COMDAT ??_R0?AVCScreen@@@8
data$r	SEGMENT
??_R0?AVCScreen@@@8 DD FLAT:??_7type_info@@6B@		; CScreen `RTTI Type Descriptor'
	DD	00H
	DB	'.?AVCScreen@@', 00H
data$r	ENDS
;	COMDAT ??_R1A@?0A@EA@CScreen@@8
rdata$r	SEGMENT
??_R1A@?0A@EA@CScreen@@8 DD FLAT:??_R0?AVCScreen@@@8	; CScreen::`RTTI Base Class Descriptor at (0,-1,0,64)'
	DD	02H
	DD	00H
	DD	0ffffffffH
	DD	00H
	DD	040H
	DD	FLAT:??_R3CScreen@@8
rdata$r	ENDS
;	COMDAT ??_R1A@?0A@EA@CScreenFilter@@8
rdata$r	SEGMENT
??_R1A@?0A@EA@CScreenFilter@@8 DD FLAT:??_R0?AVCScreenFilter@@@8 ; CScreenFilter::`RTTI Base Class Descriptor at (0,-1,0,64)'
	DD	03H
	DD	00H
	DD	0ffffffffH
	DD	00H
	DD	040H
	DD	FLAT:??_R3CScreenFilter@@8
rdata$r	ENDS
;	COMDAT ??_R2CScreenFilter@@8
rdata$r	SEGMENT
??_R2CScreenFilter@@8 DD FLAT:??_R1A@?0A@EA@CScreenFilter@@8 ; CScreenFilter::`RTTI Base Class Array'
	DD	FLAT:??_R1A@?0A@EA@CScreen@@8
	DD	FLAT:??_R1A@?0A@EA@CGraphicCollisionObject@@8
	DD	FLAT:??_R1A@?0A@EA@CGraphicBase@@8
rdata$r	ENDS
;	COMDAT ??_R3CScreenFilter@@8
rdata$r	SEGMENT
??_R3CScreenFilter@@8 DD 00H				; CScreenFilter::`RTTI Class Hierarchy Descriptor'
	DD	00H
	DD	04H
	DD	FLAT:??_R2CScreenFilter@@8
rdata$r	ENDS
;	COMDAT ??_R0?AVCScreenFilter@@@8
data$r	SEGMENT
??_R0?AVCScreenFilter@@@8 DD FLAT:??_7type_info@@6B@	; CScreenFilter `RTTI Type Descriptor'
	DD	00H
	DB	'.?AVCScreenFilter@@', 00H
data$r	ENDS
;	COMDAT ??_R4CScreenFilter@@6B@
rdata$r	SEGMENT
??_R4CScreenFilter@@6B@ DD 00H				; CScreenFilter::`RTTI Complete Object Locator'
	DD	00H
	DD	00H
	DD	FLAT:??_R0?AVCScreenFilter@@@8
	DD	FLAT:??_R3CScreenFilter@@8
rdata$r	ENDS
;	COMDAT ??_7CScreenFilter@@6B@
CONST	SEGMENT
??_7CScreenFilter@@6B@ DD FLAT:??_R4CScreenFilter@@6B@	; CScreenFilter::`vftable'
	DD	FLAT:??_ECScreenFilter@@UAEPAXI@Z
CONST	ENDS
; Function compile flags: /Ogtp
;	COMDAT ??_GCScreenFilter@@UAEPAXI@Z
_TEXT	SEGMENT
___flags$ = 8						; size = 4
??_GCScreenFilter@@UAEPAXI@Z PROC			; CScreenFilter::`scalar deleting destructor', COMDAT
; _this$ = ecx
  00000	55		 push	 ebp
  00001	8b ec		 mov	 ebp, esp
  00003	56		 push	 esi
  00004	8b f1		 mov	 esi, ecx
  00006	e8 00 00 00 00	 call	 ??1CScreenFilter@@UAE@XZ ; CScreenFilter::~CScreenFilter
  0000b	f6 45 08 01	 test	 BYTE PTR ___flags$[ebp], 1
  0000f	74 0b		 je	 SHORT $LN4@scalar
  00011	6a 1c		 push	 28			; 0000001cH
  00013	56		 push	 esi
  00014	e8 00 00 00 00	 call	 ??3@YAXPAXI@Z		; operator delete
  00019	83 c4 08	 add	 esp, 8
$LN4@scalar:
  0001c	8b c6		 mov	 eax, esi
  0001e	5e		 pop	 esi
  0001f	5d		 pop	 ebp
  00020	c2 04 00	 ret	 4
??_GCScreenFilter@@UAEPAXI@Z ENDP			; CScreenFilter::`scalar deleting destructor'
_TEXT	ENDS
; Function compile flags: /Ogtp
; File C:\DS Project\DS Files\Source\ClientSource\Client\EterLib\ScreenFilter.cpp
;	COMDAT ?Render@CScreenFilter@@QAEXXZ
_TEXT	SEGMENT
?Render@CScreenFilter@@QAEXXZ PROC			; CScreenFilter::Render, COMDAT
; _this$ = ecx

; 6    : {

  00000	56		 push	 esi
  00001	8b f1		 mov	 esi, ecx

; 7    : 	if (!m_bEnable)

  00003	83 7e 04 00	 cmp	 DWORD PTR [esi+4], 0
  00007	0f 84 35 01 00
	00		 je	 $LN1@Render

; 8    : 		return;
; 9    : 
; 10   : 	STATEMANAGER.SaveTransform(D3DTS_PROJECTION, &ms_matIdentity);

  0000d	8b 0d 00 00 00
	00		 mov	 ecx, DWORD PTR ?ms_singleton@?$CSingleton@VCStateManager@@@@0PAVCStateManager@@A ; CSingleton<CStateManager>::ms_singleton
  00013	68 00 00 00 00	 push	 OFFSET ?ms_matIdentity@CGraphicBase@@1UD3DXMATRIX@@A ; CGraphicBase::ms_matIdentity
  00018	6a 03		 push	 3
  0001a	e8 00 00 00 00	 call	 ?SaveTransform@CStateManager@@QAEXW4_D3DTRANSFORMSTATETYPE@@PBU_D3DMATRIX@@@Z ; CStateManager::SaveTransform

; 11   :  	STATEMANAGER.SaveTransform(D3DTS_VIEW, &ms_matIdentity);

  0001f	8b 0d 00 00 00
	00		 mov	 ecx, DWORD PTR ?ms_singleton@?$CSingleton@VCStateManager@@@@0PAVCStateManager@@A ; CSingleton<CStateManager>::ms_singleton
  00025	68 00 00 00 00	 push	 OFFSET ?ms_matIdentity@CGraphicBase@@1UD3DXMATRIX@@A ; CGraphicBase::ms_matIdentity
  0002a	6a 02		 push	 2
  0002c	e8 00 00 00 00	 call	 ?SaveTransform@CStateManager@@QAEXW4_D3DTRANSFORMSTATETYPE@@PBU_D3DMATRIX@@@Z ; CStateManager::SaveTransform

; 12   :  	STATEMANAGER.SetTransform(D3DTS_WORLD, &ms_matIdentity);

  00031	8b 0d 00 00 00
	00		 mov	 ecx, DWORD PTR ?ms_singleton@?$CSingleton@VCStateManager@@@@0PAVCStateManager@@A ; CSingleton<CStateManager>::ms_singleton
  00037	68 00 00 00 00	 push	 OFFSET ?ms_matIdentity@CGraphicBase@@1UD3DXMATRIX@@A ; CGraphicBase::ms_matIdentity
  0003c	68 00 01 00 00	 push	 256			; 00000100H
  00041	e8 00 00 00 00	 call	 ?SetTransform@CStateManager@@QAEXW4_D3DTRANSFORMSTATETYPE@@PBU_D3DMATRIX@@@Z ; CStateManager::SetTransform

; 13   : 	STATEMANAGER.SaveRenderState(D3DRS_ALPHABLENDENABLE, TRUE);

  00046	8b 0d 00 00 00
	00		 mov	 ecx, DWORD PTR ?ms_singleton@?$CSingleton@VCStateManager@@@@0PAVCStateManager@@A ; CSingleton<CStateManager>::ms_singleton
  0004c	6a 01		 push	 1
  0004e	6a 1b		 push	 27			; 0000001bH
  00050	e8 00 00 00 00	 call	 ?SaveRenderState@CStateManager@@QAEXW4_D3DRENDERSTATETYPE@@K@Z ; CStateManager::SaveRenderState

; 14   : 	STATEMANAGER.SaveRenderState(D3DRS_SRCBLEND, m_bySrcType);

  00055	0f b6 46 08	 movzx	 eax, BYTE PTR [esi+8]
  00059	8b 0d 00 00 00
	00		 mov	 ecx, DWORD PTR ?ms_singleton@?$CSingleton@VCStateManager@@@@0PAVCStateManager@@A ; CSingleton<CStateManager>::ms_singleton
  0005f	50		 push	 eax
  00060	6a 13		 push	 19			; 00000013H
  00062	e8 00 00 00 00	 call	 ?SaveRenderState@CStateManager@@QAEXW4_D3DRENDERSTATETYPE@@K@Z ; CStateManager::SaveRenderState

; 15   : 	STATEMANAGER.SaveRenderState(D3DRS_DESTBLEND, m_byDestType);

  00067	0f b6 46 09	 movzx	 eax, BYTE PTR [esi+9]
  0006b	8b 0d 00 00 00
	00		 mov	 ecx, DWORD PTR ?ms_singleton@?$CSingleton@VCStateManager@@@@0PAVCStateManager@@A ; CSingleton<CStateManager>::ms_singleton
  00071	50		 push	 eax
  00072	6a 14		 push	 20			; 00000014H
  00074	e8 00 00 00 00	 call	 ?SaveRenderState@CStateManager@@QAEXW4_D3DRENDERSTATETYPE@@K@Z ; CStateManager::SaveRenderState
  00079	66 0f 6e 05 00
	00 00 00	 movd	 xmm0, DWORD PTR ?ms_iHeight@CGraphicBase@@1HA ; CGraphicBase::ms_iHeight

; 16   : 
; 17   : 	SetOrtho2D(CScreen::ms_iWidth, CScreen::ms_iHeight, 400.0f);

  00081	83 ec 0c	 sub	 esp, 12			; 0000000cH
  00084	0f 5b c0	 cvtdq2ps xmm0, xmm0
  00087	8b ce		 mov	 ecx, esi
  00089	c7 44 24 08 00
	00 c8 43	 mov	 DWORD PTR [esp+8], 1137180672 ; 43c80000H
  00091	f3 0f 11 44 24
	04		 movss	 DWORD PTR [esp+4], xmm0
  00097	66 0f 6e 05 00
	00 00 00	 movd	 xmm0, DWORD PTR ?ms_iWidth@CGraphicBase@@1HA ; CGraphicBase::ms_iWidth
  0009f	0f 5b c0	 cvtdq2ps xmm0, xmm0
  000a2	f3 0f 11 04 24	 movss	 DWORD PTR [esp], xmm0
  000a7	e8 00 00 00 00	 call	 ?SetOrtho2D@CGraphicBase@@QAEXMMM@Z ; CGraphicBase::SetOrtho2D

; 18   : 	SetDiffuseColor(m_Color.r, m_Color.g, m_Color.b, m_Color.a);

  000ac	0f 10 46 0c	 movups	 xmm0, XMMWORD PTR [esi+12]
  000b0	83 ec 10	 sub	 esp, 16			; 00000010H
  000b3	8b ce		 mov	 ecx, esi
  000b5	0f 11 04 24	 movups	 XMMWORD PTR [esp], xmm0
  000b9	e8 00 00 00 00	 call	 ?SetDiffuseColor@CScreen@@QAEXMMMM@Z ; CScreen::SetDiffuseColor
  000be	66 0f 6e 05 00
	00 00 00	 movd	 xmm0, DWORD PTR ?ms_iHeight@CGraphicBase@@1HA ; CGraphicBase::ms_iHeight

; 19   : 	RenderBar2d(0, 0, CScreen::ms_iWidth, CScreen::ms_iHeight);

  000c6	83 ec 14	 sub	 esp, 20			; 00000014H
  000c9	0f 5b c0	 cvtdq2ps xmm0, xmm0
  000cc	8b ce		 mov	 ecx, esi
  000ce	c7 44 24 10 00
	00 00 00	 mov	 DWORD PTR [esp+16], 0
  000d6	f3 0f 11 44 24
	0c		 movss	 DWORD PTR [esp+12], xmm0
  000dc	66 0f 6e 05 00
	00 00 00	 movd	 xmm0, DWORD PTR ?ms_iWidth@CGraphicBase@@1HA ; CGraphicBase::ms_iWidth
  000e4	0f 5b c0	 cvtdq2ps xmm0, xmm0
  000e7	f3 0f 11 44 24
	08		 movss	 DWORD PTR [esp+8], xmm0
  000ed	c7 44 24 04 00
	00 00 00	 mov	 DWORD PTR [esp+4], 0
  000f5	c7 04 24 00 00
	00 00		 mov	 DWORD PTR [esp], 0
  000fc	e8 00 00 00 00	 call	 ?RenderBar2d@CScreen@@QAEXMMMMM@Z ; CScreen::RenderBar2d

; 20   : 
; 21   : 	STATEMANAGER.RestoreRenderState(D3DRS_ALPHABLENDENABLE);

  00101	8b 0d 00 00 00
	00		 mov	 ecx, DWORD PTR ?ms_singleton@?$CSingleton@VCStateManager@@@@0PAVCStateManager@@A ; CSingleton<CStateManager>::ms_singleton
  00107	6a 1b		 push	 27			; 0000001bH
  00109	e8 00 00 00 00	 call	 ?RestoreRenderState@CStateManager@@QAEXW4_D3DRENDERSTATETYPE@@@Z ; CStateManager::RestoreRenderState

; 22   : 	STATEMANAGER.RestoreRenderState(D3DRS_SRCBLEND);

  0010e	8b 0d 00 00 00
	00		 mov	 ecx, DWORD PTR ?ms_singleton@?$CSingleton@VCStateManager@@@@0PAVCStateManager@@A ; CSingleton<CStateManager>::ms_singleton
  00114	6a 13		 push	 19			; 00000013H
  00116	e8 00 00 00 00	 call	 ?RestoreRenderState@CStateManager@@QAEXW4_D3DRENDERSTATETYPE@@@Z ; CStateManager::RestoreRenderState

; 23   : 	STATEMANAGER.RestoreRenderState(D3DRS_DESTBLEND);

  0011b	8b 0d 00 00 00
	00		 mov	 ecx, DWORD PTR ?ms_singleton@?$CSingleton@VCStateManager@@@@0PAVCStateManager@@A ; CSingleton<CStateManager>::ms_singleton
  00121	6a 14		 push	 20			; 00000014H
  00123	e8 00 00 00 00	 call	 ?RestoreRenderState@CStateManager@@QAEXW4_D3DRENDERSTATETYPE@@@Z ; CStateManager::RestoreRenderState

; 24   :  	STATEMANAGER.RestoreTransform(D3DTS_VIEW);

  00128	8b 0d 00 00 00
	00		 mov	 ecx, DWORD PTR ?ms_singleton@?$CSingleton@VCStateManager@@@@0PAVCStateManager@@A ; CSingleton<CStateManager>::ms_singleton
  0012e	6a 02		 push	 2
  00130	e8 00 00 00 00	 call	 ?RestoreTransform@CStateManager@@QAEXW4_D3DTRANSFORMSTATETYPE@@@Z ; CStateManager::RestoreTransform

; 25   : 	STATEMANAGER.RestoreTransform(D3DTS_PROJECTION);

  00135	8b 0d 00 00 00
	00		 mov	 ecx, DWORD PTR ?ms_singleton@?$CSingleton@VCStateManager@@@@0PAVCStateManager@@A ; CSingleton<CStateManager>::ms_singleton
  0013b	6a 03		 push	 3
  0013d	e8 00 00 00 00	 call	 ?RestoreTransform@CStateManager@@QAEXW4_D3DTRANSFORMSTATETYPE@@@Z ; CStateManager::RestoreTransform
$LN1@Render:

; 26   : }

  00142	5e		 pop	 esi
  00143	c3		 ret	 0
?Render@CScreenFilter@@QAEXXZ ENDP			; CScreenFilter::Render
_TEXT	ENDS
; Function compile flags: /Ogtp
; File C:\DS Project\DS Files\Source\ClientSource\Client\EterLib\ScreenFilter.cpp
;	COMDAT ?SetColor@CScreenFilter@@QAEXABUD3DXCOLOR@@@Z
_TEXT	SEGMENT
_c_rColor$ = 8						; size = 4
?SetColor@CScreenFilter@@QAEXABUD3DXCOLOR@@@Z PROC	; CScreenFilter::SetColor, COMDAT
; _this$ = ecx

; 39   : {

  00000	55		 push	 ebp
  00001	8b ec		 mov	 ebp, esp

; 40   : 	m_Color = c_rColor;

  00003	8b 45 08	 mov	 eax, DWORD PTR _c_rColor$[ebp]
  00006	0f 10 00	 movups	 xmm0, XMMWORD PTR [eax]
  00009	0f 11 41 0c	 movups	 XMMWORD PTR [ecx+12], xmm0

; 41   : }

  0000d	5d		 pop	 ebp
  0000e	c2 04 00	 ret	 4
?SetColor@CScreenFilter@@QAEXABUD3DXCOLOR@@@Z ENDP	; CScreenFilter::SetColor
_TEXT	ENDS
; Function compile flags: /Ogtp
; File C:\DS Project\DS Files\Source\ClientSource\Client\EterLib\ScreenFilter.cpp
;	COMDAT ?SetBlendType@CScreenFilter@@QAEXEE@Z
_TEXT	SEGMENT
_bySrcType$ = 8						; size = 1
_byDestType$ = 12					; size = 1
?SetBlendType@CScreenFilter@@QAEXEE@Z PROC		; CScreenFilter::SetBlendType, COMDAT
; _this$ = ecx

; 34   : {

  00000	55		 push	 ebp
  00001	8b ec		 mov	 ebp, esp

; 35   : 	m_bySrcType = bySrcType;

  00003	8a 45 08	 mov	 al, BYTE PTR _bySrcType$[ebp]
  00006	88 41 08	 mov	 BYTE PTR [ecx+8], al

; 36   : 	m_byDestType = byDestType;

  00009	8a 45 0c	 mov	 al, BYTE PTR _byDestType$[ebp]
  0000c	88 41 09	 mov	 BYTE PTR [ecx+9], al

; 37   : }

  0000f	5d		 pop	 ebp
  00010	c2 08 00	 ret	 8
?SetBlendType@CScreenFilter@@QAEXEE@Z ENDP		; CScreenFilter::SetBlendType
_TEXT	ENDS
; Function compile flags: /Ogtp
; File C:\DS Project\DS Files\Source\ClientSource\Client\EterLib\ScreenFilter.cpp
;	COMDAT ?SetEnable@CScreenFilter@@QAEXH@Z
_TEXT	SEGMENT
___formal$ = 8						; size = 4
?SetEnable@CScreenFilter@@QAEXH@Z PROC			; CScreenFilter::SetEnable, COMDAT
; _this$ = ecx

; 30   : 	m_bEnable = FALSE;

  00000	c7 41 04 00 00
	00 00		 mov	 DWORD PTR [ecx+4], 0

; 31   : }

  00007	c2 04 00	 ret	 4
?SetEnable@CScreenFilter@@QAEXH@Z ENDP			; CScreenFilter::SetEnable
_TEXT	ENDS
; Function compile flags: /Ogtp
; File C:\DS Project\DS Files\Source\ClientSource\Client\EterLib\ScreenFilter.cpp
;	COMDAT ??1CScreenFilter@@UAE@XZ
_TEXT	SEGMENT
??1CScreenFilter@@UAE@XZ PROC				; CScreenFilter::~CScreenFilter, COMDAT
; _this$ = ecx

; 51   : {

  00000	c7 01 00 00 00
	00		 mov	 DWORD PTR [ecx], OFFSET ??_7CScreenFilter@@6B@

; 52   : }

  00006	e9 00 00 00 00	 jmp	 ??1CScreen@@UAE@XZ	; CScreen::~CScreen
??1CScreenFilter@@UAE@XZ ENDP				; CScreenFilter::~CScreenFilter
_TEXT	ENDS
; Function compile flags: /Ogtp
; File C:\DS Project\DS Files\Source\ClientSource\Client\EterLib\ScreenFilter.cpp
;	COMDAT ??0CScreenFilter@@QAE@XZ
_TEXT	SEGMENT
_this$ = -4						; size = 4
??0CScreenFilter@@QAE@XZ PROC				; CScreenFilter::CScreenFilter, COMDAT
; _this$ = ecx

; 44   : {

  00000	55		 push	 ebp
  00001	8b ec		 mov	 ebp, esp
  00003	51		 push	 ecx
  00004	56		 push	 esi
  00005	8b f1		 mov	 esi, ecx
  00007	89 75 fc	 mov	 DWORD PTR _this$[ebp], esi
  0000a	e8 00 00 00 00	 call	 ??0CScreen@@QAE@XZ	; CScreen::CScreen
  0000f	0f 57 c0	 xorps	 xmm0, xmm0
  00012	c7 06 00 00 00
	00		 mov	 DWORD PTR [esi], OFFSET ??_7CScreenFilter@@6B@

; 45   : 	m_bEnable = FALSE;

  00018	c7 46 04 00 00
	00 00		 mov	 DWORD PTR [esi+4], 0

; 46   : 	m_bySrcType = D3DBLEND_SRCALPHA;
; 47   : 	m_byDestType = D3DBLEND_INVSRCALPHA;
; 48   : 	m_Color = D3DXCOLOR(0.0f, 0.0f, 0.0f, 0.0f);
; 49   : }

  0001f	8b c6		 mov	 eax, esi
  00021	66 c7 46 08 05
	06		 mov	 WORD PTR [esi+8], 1541	; 00000605H
  00027	0f 11 46 0c	 movups	 XMMWORD PTR [esi+12], xmm0
  0002b	5e		 pop	 esi
  0002c	8b e5		 mov	 esp, ebp
  0002e	5d		 pop	 ebp
  0002f	c3		 ret	 0
??0CScreenFilter@@QAE@XZ ENDP				; CScreenFilter::CScreenFilter
_TEXT	ENDS
; Function compile flags: /Ogtp
;	COMDAT ??_H@YGXPAXIIP6EPAX0@Z@Z
_TEXT	SEGMENT
___t$ = 8						; size = 4
___s$ = 12						; size = 4
___n$ = 16						; size = 4
___f$ = 20						; size = 4
??_H@YGXPAXIIP6EPAX0@Z@Z PROC				; `vector constructor iterator', COMDAT
  00000	55		 push	 ebp
  00001	8b ec		 mov	 ebp, esp
  00003	56		 push	 esi
  00004	8b 75 10	 mov	 esi, DWORD PTR ___n$[ebp]
  00007	85 f6		 test	 esi, esi
  00009	74 16		 je	 SHORT $LN6@vector
  0000b	53		 push	 ebx
  0000c	8b 5d 14	 mov	 ebx, DWORD PTR ___f$[ebp]
  0000f	57		 push	 edi
  00010	8b 7d 08	 mov	 edi, DWORD PTR ___t$[ebp]
$LL2@vector:
  00013	8b cf		 mov	 ecx, edi
  00015	ff d3		 call	 ebx
  00017	03 7d 0c	 add	 edi, DWORD PTR ___s$[ebp]
  0001a	83 ee 01	 sub	 esi, 1
  0001d	75 f4		 jne	 SHORT $LL2@vector
  0001f	5f		 pop	 edi
  00020	5b		 pop	 ebx
$LN6@vector:
  00021	5e		 pop	 esi
  00022	5d		 pop	 ebp
  00023	c2 10 00	 ret	 16			; 00000010H
??_H@YGXPAXIIP6EPAX0@Z@Z ENDP				; `vector constructor iterator'
_TEXT	ENDS
END
