; Listing generated by Microsoft (R) Optimizing Compiler Version 19.27.29112.0 

	TITLE	C:\DS Project\DS Files\Source\ClientSource\Client\EterLib\SkyBox.cpp
	.686P
	.XMM
	include listing.inc
	.model	flat

INCLUDELIB LIBCMT
INCLUDELIB OLDNAMES

CONST	SEGMENT
?piecewise_construct@std@@3Upiecewise_construct_t@1@B	ORG $+1 ; std::piecewise_construct
CONST	ENDS
PUBLIC	??_H@YGXPAXIIP6EPAX0@Z@Z			; `vector constructor iterator'
PUBLIC	??0D3DXVECTOR2@@QAE@XZ				; D3DXVECTOR2::D3DXVECTOR2
PUBLIC	??0D3DXVECTOR3@@QAE@XZ				; D3DXVECTOR3::D3DXVECTOR3
PUBLIC	??0D3DXMATRIX@@QAE@XZ				; D3DXMATRIX::D3DXMATRIX
PUBLIC	??0exception@std@@QAE@ABV01@@Z			; std::exception::exception
PUBLIC	??1exception@std@@UAE@XZ			; std::exception::~exception
PUBLIC	?what@exception@std@@UBEPBDXZ			; std::exception::what
PUBLIC	??_Gexception@std@@UAEPAXI@Z			; std::exception::`scalar deleting destructor'
PUBLIC	??0bad_alloc@std@@QAE@ABV01@@Z			; std::bad_alloc::bad_alloc
PUBLIC	??_Gbad_alloc@std@@UAEPAXI@Z			; std::bad_alloc::`scalar deleting destructor'
PUBLIC	??0bad_array_new_length@std@@QAE@XZ		; std::bad_array_new_length::bad_array_new_length
PUBLIC	??1bad_array_new_length@std@@UAE@XZ		; std::bad_array_new_length::~bad_array_new_length
PUBLIC	??0bad_array_new_length@std@@QAE@ABV01@@Z	; std::bad_array_new_length::bad_array_new_length
PUBLIC	??_Gbad_array_new_length@std@@UAEPAXI@Z		; std::bad_array_new_length::`scalar deleting destructor'
PUBLIC	?_Throw_bad_array_new_length@std@@YAXXZ		; std::_Throw_bad_array_new_length
PUBLIC	?_Xlen_string@std@@YAXXZ			; std::_Xlen_string
PUBLIC	??0?$basic_string@DU?$char_traits@D@std@@V?$allocator@D@2@@std@@QAE@ABV01@@Z ; std::basic_string<char,std::char_traits<char>,std::allocator<char> >::basic_string<char,std::char_traits<char>,std::allocator<char> >
PUBLIC	??1?$basic_string@DU?$char_traits@D@std@@V?$allocator@D@2@@std@@QAE@XZ ; std::basic_string<char,std::char_traits<char>,std::allocator<char> >::~basic_string<char,std::char_traits<char>,std::allocator<char> >
PUBLIC	?assign@?$basic_string@DU?$char_traits@D@std@@V?$allocator@D@2@@std@@QAEAAV12@QBD@Z ; std::basic_string<char,std::char_traits<char>,std::allocator<char> >::assign
PUBLIC	?_Throw_tree_length_error@std@@YAXXZ		; std::_Throw_tree_length_error
PUBLIC	??$_Destroy_in_place@PAD@std@@YAXAAPAD@Z	; std::_Destroy_in_place<char *>
PUBLIC	??$_Construct_in_place@PADABQAD@std@@YAXAAPADABQAD@Z ; std::_Construct_in_place<char *,char * const &>
PUBLIC	??$_Deallocate@$07$0A@@std@@YAXPAXI@Z		; std::_Deallocate<8,0>
PUBLIC	??$_Allocate@$07U_Default_allocate_traits@std@@$0A@@std@@YAPAXI@Z ; std::_Allocate<8,std::_Default_allocate_traits,0>
PUBLIC	??$_Allocate_manually_vector_aligned@U_Default_allocate_traits@std@@@std@@YAPAXI@Z ; std::_Allocate_manually_vector_aligned<std::_Default_allocate_traits>
PUBLIC	??0SPDTVertex@@QAE@XZ				; SPDTVertex::SPDTVertex
PUBLIC	??0CSkyObjectQuad@@QAE@XZ			; CSkyObjectQuad::CSkyObjectQuad
PUBLIC	??1CSkyObjectQuad@@UAE@XZ			; CSkyObjectQuad::~CSkyObjectQuad
PUBLIC	?Clear@CSkyObjectQuad@@QAEXABEABM111@Z		; CSkyObjectQuad::Clear
PUBLIC	?SetSrcColor@CSkyObjectQuad@@QAEXABEABM111@Z	; CSkyObjectQuad::SetSrcColor
PUBLIC	?SetTransition@CSkyObjectQuad@@QAEXABEABM111K@Z	; CSkyObjectQuad::SetTransition
PUBLIC	?SetVertex@CSkyObjectQuad@@QAEXABEABUSPDTVertex@@@Z ; CSkyObjectQuad::SetVertex
PUBLIC	?StartTransition@CSkyObjectQuad@@QAEXXZ		; CSkyObjectQuad::StartTransition
PUBLIC	?Update@CSkyObjectQuad@@QAE_NXZ			; CSkyObjectQuad::Update
PUBLIC	?Render@CSkyObjectQuad@@QAEXXZ			; CSkyObjectQuad::Render
PUBLIC	??_GCSkyObjectQuad@@UAEPAXI@Z			; CSkyObjectQuad::`scalar deleting destructor'
PUBLIC	??0CSkyObject@@QAE@XZ				; CSkyObject::CSkyObject
PUBLIC	??1CSkyObject@@UAE@XZ				; CSkyObject::~CSkyObject
PUBLIC	?Destroy@CSkyObject@@UAEXXZ			; CSkyObject::Destroy
PUBLIC	?Render@CSkyObject@@UAEXXZ			; CSkyObject::Render
PUBLIC	?Update@CSkyObject@@UAEXXZ			; CSkyObject::Update
PUBLIC	?StartTransition@CSkyObject@@UAEXXZ		; CSkyObject::StartTransition
PUBLIC	?GenerateTexture@CSkyObject@@IAEPAVCGraphicImageInstance@@PBD@Z ; CSkyObject::GenerateTexture
PUBLIC	?DeleteTexture@CSkyObject@@IAEXPAVCGraphicImageInstance@@@Z ; CSkyObject::DeleteTexture
PUBLIC	?deallocate@?$allocator@VCSkyObjectQuad@@@std@@QAEXQAVCSkyObjectQuad@@I@Z ; std::allocator<CSkyObjectQuad>::deallocate
PUBLIC	?resize@?$vector@VCSkyObjectQuad@@V?$allocator@VCSkyObjectQuad@@@std@@@std@@QAEXI@Z ; std::vector<CSkyObjectQuad,std::allocator<CSkyObjectQuad> >::resize
PUBLIC	?_Destroy@?$vector@VCSkyObjectQuad@@V?$allocator@VCSkyObjectQuad@@@std@@@std@@AAEXPAVCSkyObjectQuad@@0@Z ; std::vector<CSkyObjectQuad,std::allocator<CSkyObjectQuad> >::_Destroy
PUBLIC	?_Xlength@?$vector@VCSkyObjectQuad@@V?$allocator@VCSkyObjectQuad@@@std@@@std@@CAXXZ ; std::vector<CSkyObjectQuad,std::allocator<CSkyObjectQuad> >::_Xlength
PUBLIC	?_Xrange@?$vector@VCSkyObjectQuad@@V?$allocator@VCSkyObjectQuad@@@std@@@std@@CAXXZ ; std::vector<CSkyObjectQuad,std::allocator<CSkyObjectQuad> >::_Xrange
PUBLIC	?_Getal@?$vector@VCSkyObjectQuad@@V?$allocator@VCSkyObjectQuad@@@std@@@std@@AAEAAV?$allocator@VCSkyObjectQuad@@@2@XZ ; std::vector<CSkyObjectQuad,std::allocator<CSkyObjectQuad> >::_Getal
PUBLIC	?StartTransition@TSkyObjectFace@CSkyObject@@QAEXXZ ; CSkyObject::TSkyObjectFace::StartTransition
PUBLIC	?Update@TSkyObjectFace@CSkyObject@@QAE_NXZ	; CSkyObject::TSkyObjectFace::Update
PUBLIC	?Render@TSkyObjectFace@CSkyObject@@QAEXXZ	; CSkyObject::TSkyObjectFace::Render
PUBLIC	??0TSkyObjectFace@CSkyObject@@QAE@XZ		; CSkyObject::TSkyObjectFace::TSkyObjectFace
PUBLIC	??1TSkyObjectFace@CSkyObject@@QAE@XZ		; CSkyObject::TSkyObjectFace::~TSkyObjectFace
PUBLIC	?_Insert_node@?$_Tree_val@U?$_Tree_simple_types@U?$pair@$$CBV?$basic_string@DU?$char_traits@D@std@@V?$allocator@D@2@@std@@PAVCGraphicImageInstance@@@std@@@std@@@std@@QAEPAU?$_Tree_node@U?$pair@$$CBV?$basic_string@DU?$char_traits@D@std@@V?$allocator@D@2@@std@@PAVCGraphicImageInstance@@@std@@PAX@2@U?$_Tree_id@PAU?$_Tree_node@U?$pair@$$CBV?$basic_string@DU?$char_traits@D@std@@V?$allocator@D@2@@std@@PAVCGraphicImageInstance@@@std@@PAX@std@@@2@QAU32@@Z ; std::_Tree_val<std::_Tree_simple_types<std::pair<std::basic_string<char,std::char_traits<char>,std::allocator<char> > const ,CGraphicImageInstance *> > >::_Insert_node
PUBLIC	??A?$map@V?$basic_string@DU?$char_traits@D@std@@V?$allocator@D@2@@std@@PAVCGraphicImageInstance@@U?$less@V?$basic_string@DU?$char_traits@D@std@@V?$allocator@D@2@@std@@@2@V?$allocator@U?$pair@$$CBV?$basic_string@DU?$char_traits@D@std@@V?$allocator@D@2@@std@@PAVCGraphicImageInstance@@@std@@@2@@std@@QAEAAPAVCGraphicImageInstance@@ABV?$basic_string@DU?$char_traits@D@std@@V?$allocator@D@2@@1@@Z ; std::map<std::basic_string<char,std::char_traits<char>,std::allocator<char> >,CGraphicImageInstance *,std::less<std::basic_string<char,std::char_traits<char>,std::allocator<char> > >,std::allocator<std::pair<std::basic_string<char,std::char_traits<char>,std::allocator<char> > const ,CGraphicImageInstance *> > >::operator[]
PUBLIC	??1?$map@V?$basic_string@DU?$char_traits@D@std@@V?$allocator@D@2@@std@@PAVCGraphicImageInstance@@U?$less@V?$basic_string@DU?$char_traits@D@std@@V?$allocator@D@2@@std@@@2@V?$allocator@U?$pair@$$CBV?$basic_string@DU?$char_traits@D@std@@V?$allocator@D@2@@std@@PAVCGraphicImageInstance@@@std@@@2@@std@@QAE@XZ ; std::map<std::basic_string<char,std::char_traits<char>,std::allocator<char> >,CGraphicImageInstance *,std::less<std::basic_string<char,std::char_traits<char>,std::allocator<char> > >,std::allocator<std::pair<std::basic_string<char,std::char_traits<char>,std::allocator<char> > const ,CGraphicImageInstance *> > >::~map<std::basic_string<char,std::char_traits<char>,std::allocator<char> >,CGraphicImageInstance *,std::less<std::basic_string<char,std::char_traits<char>,std::allocator<char> > >,std::allocator<std::pair<std::basic_string<char,std::char_traits<char>,std::allocator<char> > const ,CGraphicImageInstance *> > >
PUBLIC	??_GCSkyObject@@UAEPAXI@Z			; CSkyObject::`scalar deleting destructor'
PUBLIC	??0CSkyBox@@QAE@XZ				; CSkyBox::CSkyBox
PUBLIC	??1CSkyBox@@UAE@XZ				; CSkyBox::~CSkyBox
PUBLIC	?Update@CSkyBox@@UAEXXZ				; CSkyBox::Update
PUBLIC	?Render@CSkyBox@@UAEXXZ				; CSkyBox::Render
PUBLIC	?RenderCloud@CSkyBox@@QAEXXZ			; CSkyBox::RenderCloud
PUBLIC	?Destroy@CSkyBox@@UAEXXZ			; CSkyBox::Destroy
PUBLIC	?Unload@CSkyBox@@QAEXXZ				; CSkyBox::Unload
PUBLIC	?SetSkyBoxScale@CSkyBox@@QAEXABUD3DXVECTOR3@@@Z	; CSkyBox::SetSkyBoxScale
PUBLIC	?SetGradientLevel@CSkyBox@@QAEXEE@Z		; CSkyBox::SetGradientLevel
PUBLIC	?SetFaceTexture@CSkyBox@@QAEXPBDH@Z		; CSkyBox::SetFaceTexture
PUBLIC	?SetCloudTexture@CSkyBox@@QAEXPBD@Z		; CSkyBox::SetCloudTexture
PUBLIC	?SetCloudScale@CSkyBox@@QAEXABUD3DXVECTOR2@@@Z	; CSkyBox::SetCloudScale
PUBLIC	?SetCloudHeight@CSkyBox@@QAEXM@Z		; CSkyBox::SetCloudHeight
PUBLIC	?SetCloudTextureScale@CSkyBox@@QAEXABUD3DXVECTOR2@@@Z ; CSkyBox::SetCloudTextureScale
PUBLIC	?SetCloudScrollSpeed@CSkyBox@@QAEXABUD3DXVECTOR2@@@Z ; CSkyBox::SetCloudScrollSpeed
PUBLIC	?SetCloudColor@CSkyBox@@QAEXABUTGradientColor@@0ABK@Z ; CSkyBox::SetCloudColor
PUBLIC	?Refresh@CSkyBox@@QAEXXZ			; CSkyBox::Refresh
PUBLIC	?SetSkyColor@CSkyBox@@QAEXABV?$vector@UTGradientColor@@V?$allocator@UTGradientColor@@@std@@@std@@0J@Z ; CSkyBox::SetSkyColor
PUBLIC	?StartTransition@CSkyBox@@UAEXXZ		; CSkyBox::StartTransition
PUBLIC	?SetSkyObjectQuadVertical@CSkyBox@@IAEXPAV?$vector@VCSkyObjectQuad@@V?$allocator@VCSkyObjectQuad@@@std@@@std@@PBUD3DXVECTOR2@@@Z ; CSkyBox::SetSkyObjectQuadVertical
PUBLIC	?SetSkyObjectQuadHorizon@CSkyBox@@IAEXPAV?$vector@VCSkyObjectQuad@@V?$allocator@VCSkyObjectQuad@@@std@@@std@@PBUD3DXVECTOR3@@@Z ; CSkyBox::SetSkyObjectQuadHorizon
PUBLIC	??_GCSkyBox@@UAEPAXI@Z				; CSkyBox::`scalar deleting destructor'
PUBLIC	??1?$pair@$$CBV?$basic_string@DU?$char_traits@D@std@@V?$allocator@D@2@@std@@PAVCGraphicImageInstance@@@std@@QAE@XZ ; std::pair<std::basic_string<char,std::char_traits<char>,std::allocator<char> > const ,CGraphicImageInstance *>::~pair<std::basic_string<char,std::char_traits<char>,std::allocator<char> > const ,CGraphicImageInstance *>
PUBLIC	??$insert@$0A@$0A@@?$_Tree@V?$_Tmap_traits@V?$basic_string@DU?$char_traits@D@std@@V?$allocator@D@2@@std@@PAVCGraphicImageInstance@@U?$less@V?$basic_string@DU?$char_traits@D@std@@V?$allocator@D@2@@std@@@2@V?$allocator@U?$pair@$$CBV?$basic_string@DU?$char_traits@D@std@@V?$allocator@D@2@@std@@PAVCGraphicImageInstance@@@std@@@2@$0A@@std@@@std@@QAE?AU?$pair@V?$_Tree_iterator@V?$_Tree_val@U?$_Tree_simple_types@U?$pair@$$CBV?$basic_string@DU?$char_traits@D@std@@V?$allocator@D@2@@std@@PAVCGraphicImageInstance@@@std@@@std@@@std@@@std@@_N@1@$$QAU?$pair@$$CBV?$basic_string@DU?$char_traits@D@std@@V?$allocator@D@2@@std@@PAVCGraphicImageInstance@@@1@@Z ; std::_Tree<std::_Tmap_traits<std::basic_string<char,std::char_traits<char>,std::allocator<char> >,CGraphicImageInstance *,std::less<std::basic_string<char,std::char_traits<char>,std::allocator<char> > >,std::allocator<std::pair<std::basic_string<char,std::char_traits<char>,std::allocator<char> > const ,CGraphicImageInstance *> >,0> >::insert<0,0>
PUBLIC	??$_Erase_tree@V?$allocator@U?$_Tree_node@U?$pair@$$CBV?$basic_string@DU?$char_traits@D@std@@V?$allocator@D@2@@std@@PAVCGraphicImageInstance@@@std@@PAX@std@@@std@@@?$_Tree_val@U?$_Tree_simple_types@U?$pair@$$CBV?$basic_string@DU?$char_traits@D@std@@V?$allocator@D@2@@std@@PAVCGraphicImageInstance@@@std@@@std@@@std@@QAEXAAV?$allocator@U?$_Tree_node@U?$pair@$$CBV?$basic_string@DU?$char_traits@D@std@@V?$allocator@D@2@@std@@PAVCGraphicImageInstance@@@std@@PAX@std@@@1@PAU?$_Tree_node@U?$pair@$$CBV?$basic_string@DU?$char_traits@D@std@@V?$allocator@D@2@@std@@PAVCGraphicImageInstance@@@std@@PAX@1@@Z ; std::_Tree_val<std::_Tree_simple_types<std::pair<std::basic_string<char,std::char_traits<char>,std::allocator<char> > const ,CGraphicImageInstance *> > >::_Erase_tree<std::allocator<std::_Tree_node<std::pair<std::basic_string<char,std::char_traits<char>,std::allocator<char> > const ,CGraphicImageInstance *>,void *> > >
PUBLIC	??$_Destroy_range@V?$allocator@VCSkyObjectQuad@@@std@@@std@@YAXPAVCSkyObjectQuad@@QAV1@AAV?$allocator@VCSkyObjectQuad@@@0@@Z ; std::_Destroy_range<std::allocator<CSkyObjectQuad> >
PUBLIC	??$_Find_lower_bound@V?$basic_string@DU?$char_traits@D@std@@V?$allocator@D@2@@std@@@?$_Tree@V?$_Tmap_traits@V?$basic_string@DU?$char_traits@D@std@@V?$allocator@D@2@@std@@PAVCGraphicImageInstance@@U?$less@V?$basic_string@DU?$char_traits@D@std@@V?$allocator@D@2@@std@@@2@V?$allocator@U?$pair@$$CBV?$basic_string@DU?$char_traits@D@std@@V?$allocator@D@2@@std@@PAVCGraphicImageInstance@@@std@@@2@$0A@@std@@@std@@IBE?AU?$_Tree_find_result@PAU?$_Tree_node@U?$pair@$$CBV?$basic_string@DU?$char_traits@D@std@@V?$allocator@D@2@@std@@PAVCGraphicImageInstance@@@std@@PAX@std@@@1@ABV?$basic_string@DU?$char_traits@D@std@@V?$allocator@D@2@@1@@Z ; std::_Tree<std::_Tmap_traits<std::basic_string<char,std::char_traits<char>,std::allocator<char> >,CGraphicImageInstance *,std::less<std::basic_string<char,std::char_traits<char>,std::allocator<char> > >,std::allocator<std::pair<std::basic_string<char,std::char_traits<char>,std::allocator<char> > const ,CGraphicImageInstance *> >,0> >::_Find_lower_bound<std::basic_string<char,std::char_traits<char>,std::allocator<char> > >
PUBLIC	??1?$_Alloc_construct_ptr@V?$allocator@U?$_Tree_node@U?$pair@$$CBV?$basic_string@DU?$char_traits@D@std@@V?$allocator@D@2@@std@@PAVCGraphicImageInstance@@@std@@PAX@std@@@std@@@std@@QAE@XZ ; std::_Alloc_construct_ptr<std::allocator<std::_Tree_node<std::pair<std::basic_string<char,std::char_traits<char>,std::allocator<char> > const ,CGraphicImageInstance *>,void *> > >::~_Alloc_construct_ptr<std::allocator<std::_Tree_node<std::pair<std::basic_string<char,std::char_traits<char>,std::allocator<char> > const ,CGraphicImageInstance *>,void *> > >
PUBLIC	??1?$_Tree_temp_node_alloc@V?$allocator@U?$_Tree_node@U?$pair@$$CBV?$basic_string@DU?$char_traits@D@std@@V?$allocator@D@2@@std@@PAVCGraphicImageInstance@@@std@@PAX@std@@@std@@@std@@QAE@XZ ; std::_Tree_temp_node_alloc<std::allocator<std::_Tree_node<std::pair<std::basic_string<char,std::char_traits<char>,std::allocator<char> > const ,CGraphicImageInstance *>,void *> > >::~_Tree_temp_node_alloc<std::allocator<std::_Tree_node<std::pair<std::basic_string<char,std::char_traits<char>,std::allocator<char> > const ,CGraphicImageInstance *>,void *> > >
PUBLIC	??$_Resize_reallocate@U_Value_init_tag@std@@@?$vector@VCSkyObjectQuad@@V?$allocator@VCSkyObjectQuad@@@std@@@std@@AAEXIABU_Value_init_tag@1@@Z ; std::vector<CSkyObjectQuad,std::allocator<CSkyObjectQuad> >::_Resize_reallocate<std::_Value_init_tag>
PUBLIC	??$_Construct_in_place@PAU?$_Tree_node@U?$pair@$$CBV?$basic_string@DU?$char_traits@D@std@@V?$allocator@D@2@@std@@PAVCGraphicImageInstance@@@std@@PAX@std@@ABQAU12@@std@@YAXAAPAU?$_Tree_node@U?$pair@$$CBV?$basic_string@DU?$char_traits@D@std@@V?$allocator@D@2@@std@@PAVCGraphicImageInstance@@@std@@PAX@0@ABQAU10@@Z ; std::_Construct_in_place<std::_Tree_node<std::pair<std::basic_string<char,std::char_traits<char>,std::allocator<char> > const ,CGraphicImageInstance *>,void *> *,std::_Tree_node<std::pair<std::basic_string<char,std::char_traits<char>,std::allocator<char> > const ,CGraphicImageInstance *>,void *> * const &>
PUBLIC	??$_Destroy_in_place@PAU?$_Tree_node@U?$pair@$$CBV?$basic_string@DU?$char_traits@D@std@@V?$allocator@D@2@@std@@PAVCGraphicImageInstance@@@std@@PAX@std@@@std@@YAXAAPAU?$_Tree_node@U?$pair@$$CBV?$basic_string@DU?$char_traits@D@std@@V?$allocator@D@2@@std@@PAVCGraphicImageInstance@@@std@@PAX@0@@Z ; std::_Destroy_in_place<std::_Tree_node<std::pair<std::basic_string<char,std::char_traits<char>,std::allocator<char> > const ,CGraphicImageInstance *>,void *> *>
PUBLIC	??$_Uninitialized_value_construct_n@V?$allocator@VCSkyObjectQuad@@@std@@@std@@YAPAVCSkyObjectQuad@@PAV1@IAAV?$allocator@VCSkyObjectQuad@@@0@@Z ; std::_Uninitialized_value_construct_n<std::allocator<CSkyObjectQuad> >
PUBLIC	??$_Construct_in_place@PAU?$_Tree_node@U?$pair@$$CBV?$basic_string@DU?$char_traits@D@std@@V?$allocator@D@2@@std@@PAVCGraphicImageInstance@@@std@@PAX@std@@AAPAU12@@std@@YAXAAPAU?$_Tree_node@U?$pair@$$CBV?$basic_string@DU?$char_traits@D@std@@V?$allocator@D@2@@std@@PAVCGraphicImageInstance@@@std@@PAX@0@0@Z ; std::_Construct_in_place<std::_Tree_node<std::pair<std::basic_string<char,std::char_traits<char>,std::allocator<char> > const ,CGraphicImageInstance *>,void *> *,std::_Tree_node<std::pair<std::basic_string<char,std::char_traits<char>,std::allocator<char> > const ,CGraphicImageInstance *>,void *> * &>
PUBLIC	??1?$_Uninitialized_backout_al@V?$allocator@VCSkyObjectQuad@@@std@@@std@@QAE@XZ ; std::_Uninitialized_backout_al<std::allocator<CSkyObjectQuad> >::~_Uninitialized_backout_al<std::allocator<CSkyObjectQuad> >
PUBLIC	??$?MDU?$char_traits@D@std@@V?$allocator@D@1@@std@@YA_NABV?$basic_string@DU?$char_traits@D@std@@V?$allocator@D@2@@0@0@Z ; std::operator<<char,std::char_traits<char>,std::allocator<char> >
PUBLIC	??$_Uninitialized_move@PAVCSkyObjectQuad@@V?$allocator@VCSkyObjectQuad@@@std@@@std@@YAPAVCSkyObjectQuad@@QAV1@0PAV1@AAV?$allocator@VCSkyObjectQuad@@@0@@Z ; std::_Uninitialized_move<CSkyObjectQuad *,std::allocator<CSkyObjectQuad> >
PUBLIC	??$?0ABV?$basic_string@DU?$char_traits@D@std@@V?$allocator@D@2@@std@@$$Z$$V@?$pair@$$CBV?$basic_string@DU?$char_traits@D@std@@V?$allocator@D@2@@std@@PAVCGraphicImageInstance@@@std@@QAE@Upiecewise_construct_t@1@V?$tuple@ABV?$basic_string@DU?$char_traits@D@std@@V?$allocator@D@2@@std@@@1@V?$tuple@$$V@1@@Z ; std::pair<std::basic_string<char,std::char_traits<char>,std::allocator<char> > const ,CGraphicImageInstance *>::pair<std::basic_string<char,std::char_traits<char>,std::allocator<char> > const ,CGraphicImageInstance *><std::basic_string<char,std::char_traits<char>,std::allocator<char> > const &>
PUBLIC	??$?0V?$tuple@ABV?$basic_string@DU?$char_traits@D@std@@V?$allocator@D@2@@std@@@std@@V?$tuple@$$V@1@$0A@$$Z$S@?$pair@$$CBV?$basic_string@DU?$char_traits@D@std@@V?$allocator@D@2@@std@@PAVCGraphicImageInstance@@@std@@QAE@AAV?$tuple@ABV?$basic_string@DU?$char_traits@D@std@@V?$allocator@D@2@@std@@@1@AAV?$tuple@$$V@1@U?$integer_sequence@I$0A@@1@U?$integer_sequence@I$S@1@@Z ; std::pair<std::basic_string<char,std::char_traits<char>,std::allocator<char> > const ,CGraphicImageInstance *>::pair<std::basic_string<char,std::char_traits<char>,std::allocator<char> > const ,CGraphicImageInstance *><std::tuple<std::basic_string<char,std::char_traits<char>,std::allocator<char> > const &>,std::tuple<>,0>
PUBLIC	??_7exception@std@@6B@				; std::exception::`vftable'
PUBLIC	??_C@_0BC@EOODALEL@Unknown?5exception@		; `string'
PUBLIC	??_7bad_alloc@std@@6B@				; std::bad_alloc::`vftable'
PUBLIC	??_7bad_array_new_length@std@@6B@		; std::bad_array_new_length::`vftable'
PUBLIC	??_C@_0BF@KINCDENJ@bad?5array?5new?5length@	; `string'
PUBLIC	__TI3?AVbad_array_new_length@std@@
PUBLIC	__CTA3?AVbad_array_new_length@std@@
PUBLIC	??_R0?AVbad_array_new_length@std@@@8		; std::bad_array_new_length `RTTI Type Descriptor'
PUBLIC	__CT??_R0?AVbad_array_new_length@std@@@8??0bad_array_new_length@std@@QAE@ABV01@@Z12
PUBLIC	??_R0?AVbad_alloc@std@@@8			; std::bad_alloc `RTTI Type Descriptor'
PUBLIC	__CT??_R0?AVbad_alloc@std@@@8??0bad_alloc@std@@QAE@ABV01@@Z12
PUBLIC	??_R0?AVexception@std@@@8			; std::exception `RTTI Type Descriptor'
PUBLIC	__CT??_R0?AVexception@std@@@8??0exception@std@@QAE@ABV01@@Z12
PUBLIC	??_C@_0BA@JFNIOLAK@string?5too?5long@		; `string'
PUBLIC	??_C@_0BB@GCADKGJO@map?1set?5too?5long@		; `string'
PUBLIC	??_R4exception@std@@6B@				; std::exception::`RTTI Complete Object Locator'
PUBLIC	??_R3exception@std@@8				; std::exception::`RTTI Class Hierarchy Descriptor'
PUBLIC	??_R2exception@std@@8				; std::exception::`RTTI Base Class Array'
PUBLIC	??_R1A@?0A@EA@exception@std@@8			; std::exception::`RTTI Base Class Descriptor at (0,-1,0,64)'
PUBLIC	??_R4bad_alloc@std@@6B@				; std::bad_alloc::`RTTI Complete Object Locator'
PUBLIC	??_R3bad_alloc@std@@8				; std::bad_alloc::`RTTI Class Hierarchy Descriptor'
PUBLIC	??_R2bad_alloc@std@@8				; std::bad_alloc::`RTTI Base Class Array'
PUBLIC	??_R1A@?0A@EA@bad_alloc@std@@8			; std::bad_alloc::`RTTI Base Class Descriptor at (0,-1,0,64)'
PUBLIC	??_R4bad_array_new_length@std@@6B@		; std::bad_array_new_length::`RTTI Complete Object Locator'
PUBLIC	??_R3bad_array_new_length@std@@8		; std::bad_array_new_length::`RTTI Class Hierarchy Descriptor'
PUBLIC	??_R2bad_array_new_length@std@@8		; std::bad_array_new_length::`RTTI Base Class Array'
PUBLIC	??_R1A@?0A@EA@bad_array_new_length@std@@8	; std::bad_array_new_length::`RTTI Base Class Descriptor at (0,-1,0,64)'
PUBLIC	??_7CSkyObjectQuad@@6B@				; CSkyObjectQuad::`vftable'
PUBLIC	??_7CSkyObject@@6B@				; CSkyObject::`vftable'
PUBLIC	??_7CSkyBox@@6B@				; CSkyBox::`vftable'
PUBLIC	?ms_singleton@?$CSingleton@VCCameraManager@@@@0PAVCCameraManager@@A ; CSingleton<CCameraManager>::ms_singleton
PUBLIC	?ms_singleton@?$CSingleton@VCStateManager@@@@0PAVCStateManager@@A ; CSingleton<CStateManager>::ms_singleton
PUBLIC	?ms_singleton@?$CSingleton@VCResourceManager@@@@0PAVCResourceManager@@A ; CSingleton<CResourceManager>::ms_singleton
PUBLIC	?ms_singleton@?$CSingleton@VCTimer@@@@0PAVCTimer@@A ; CSingleton<CTimer>::ms_singleton
PUBLIC	??_C@_05HJNNLMDJ@front@				; `string'
PUBLIC	??_C@_04JFCNHLLM@back@				; `string'
PUBLIC	??_C@_04GOOOJOPP@left@				; `string'
PUBLIC	??_C@_05DHJDAOHK@right@				; `string'
PUBLIC	??_C@_03FGFCOCMD@top@				; `string'
PUBLIC	??_C@_06PMMPCIPB@bottom@			; `string'
PUBLIC	??_C@_0BJ@DHFDPMIM@invalid?5vector?5subscript@	; `string'
PUBLIC	??_C@_0BA@FOIKENOD@vector?5too?5long@		; `string'
PUBLIC	??_R4CSkyObjectQuad@@6B@			; CSkyObjectQuad::`RTTI Complete Object Locator'
PUBLIC	??_R0?AVCSkyObjectQuad@@@8			; CSkyObjectQuad `RTTI Type Descriptor'
PUBLIC	??_R3CSkyObjectQuad@@8				; CSkyObjectQuad::`RTTI Class Hierarchy Descriptor'
PUBLIC	??_R2CSkyObjectQuad@@8				; CSkyObjectQuad::`RTTI Base Class Array'
PUBLIC	??_R1A@?0A@EA@CSkyObjectQuad@@8			; CSkyObjectQuad::`RTTI Base Class Descriptor at (0,-1,0,64)'
PUBLIC	??_R4CSkyObject@@6B@				; CSkyObject::`RTTI Complete Object Locator'
PUBLIC	??_R0?AVCSkyObject@@@8				; CSkyObject `RTTI Type Descriptor'
PUBLIC	??_R3CSkyObject@@8				; CSkyObject::`RTTI Class Hierarchy Descriptor'
PUBLIC	??_R2CSkyObject@@8				; CSkyObject::`RTTI Base Class Array'
PUBLIC	??_R1A@?0A@EA@CSkyObject@@8			; CSkyObject::`RTTI Base Class Descriptor at (0,-1,0,64)'
PUBLIC	??_R1A@?0A@EA@CScreen@@8			; CScreen::`RTTI Base Class Descriptor at (0,-1,0,64)'
PUBLIC	??_R0?AVCScreen@@@8				; CScreen `RTTI Type Descriptor'
PUBLIC	??_R3CScreen@@8					; CScreen::`RTTI Class Hierarchy Descriptor'
PUBLIC	??_R2CScreen@@8					; CScreen::`RTTI Base Class Array'
PUBLIC	??_R1A@?0A@EA@CGraphicCollisionObject@@8	; CGraphicCollisionObject::`RTTI Base Class Descriptor at (0,-1,0,64)'
PUBLIC	??_R0?AVCGraphicCollisionObject@@@8		; CGraphicCollisionObject `RTTI Type Descriptor'
PUBLIC	??_R3CGraphicCollisionObject@@8			; CGraphicCollisionObject::`RTTI Class Hierarchy Descriptor'
PUBLIC	??_R2CGraphicCollisionObject@@8			; CGraphicCollisionObject::`RTTI Base Class Array'
PUBLIC	??_R1A@?0A@EA@CGraphicBase@@8			; CGraphicBase::`RTTI Base Class Descriptor at (0,-1,0,64)'
PUBLIC	??_R0?AVCGraphicBase@@@8			; CGraphicBase `RTTI Type Descriptor'
PUBLIC	??_R3CGraphicBase@@8				; CGraphicBase::`RTTI Class Hierarchy Descriptor'
PUBLIC	??_R2CGraphicBase@@8				; CGraphicBase::`RTTI Base Class Array'
PUBLIC	??_R4CSkyBox@@6B@				; CSkyBox::`RTTI Complete Object Locator'
PUBLIC	??_R0?AVCSkyBox@@@8				; CSkyBox `RTTI Type Descriptor'
PUBLIC	??_R3CSkyBox@@8					; CSkyBox::`RTTI Class Hierarchy Descriptor'
PUBLIC	??_R2CSkyBox@@8					; CSkyBox::`RTTI Base Class Array'
PUBLIC	??_R1A@?0A@EA@CSkyBox@@8			; CSkyBox::`RTTI Base Class Descriptor at (0,-1,0,64)'
PUBLIC	__real@3a83126f
PUBLIC	__real@3f000000
PUBLIC	__real@3f800000
PUBLIC	__real@bf800000
PUBLIC	__xmm@3f8000003f8000003f800000bf800000
PUBLIC	__xmm@41f00000000000000000000000000000
PUBLIC	__xmm@80000000800000008000000080000000
PUBLIC	__xmm@bf8000003f8000003f8000003f800000
PUBLIC	__xmm@bf800000bf800000bf8000003f800000
EXTRN	??_L@YGXPAXIIP6EX0@Z1@Z:PROC			; `eh vector constructor iterator'
EXTRN	??_M@YGXPAXIIP6EX0@Z@Z:PROC			; `eh vector destructor iterator'
EXTRN	__purecall:PROC
EXTRN	??2@YAPAXI@Z:PROC				; operator new
EXTRN	??3@YAXPAXI@Z:PROC				; operator delete
EXTRN	__invalid_parameter_noinfo_noreturn:PROC
EXTRN	_D3DXMatrixScaling@16:PROC
EXTRN	_D3DXMatrixPerspectiveFovRH@20:PROC
EXTRN	___std_exception_copy:PROC
EXTRN	___std_exception_destroy:PROC
EXTRN	??_Eexception@std@@UAEPAXI@Z:PROC		; std::exception::`vector deleting destructor'
EXTRN	??_Ebad_alloc@std@@UAEPAXI@Z:PROC		; std::bad_alloc::`vector deleting destructor'
EXTRN	??_Ebad_array_new_length@std@@UAEPAXI@Z:PROC	; std::bad_array_new_length::`vector deleting destructor'
EXTRN	?_Xlength_error@std@@YAXPBD@Z:PROC		; std::_Xlength_error
EXTRN	?_Xout_of_range@std@@YAXPBD@Z:PROC		; std::_Xout_of_range
EXTRN	?SetPDTStream@CGraphicBase@@SA_NPAUSPDTVertex@@I@Z:PROC ; CGraphicBase::SetPDTStream
EXTRN	??0CScreen@@QAE@XZ:PROC				; CScreen::CScreen
EXTRN	??1CScreen@@UAE@XZ:PROC				; CScreen::~CScreen
EXTRN	?IsType@CResource@@QAE_NK@Z:PROC		; CResource::IsType
EXTRN	?GetD3DTexture@CGraphicTexture@@QBEPAUIDirect3DTexture8@@XZ:PROC ; CGraphicTexture::GetD3DTexture
EXTRN	?Type@CGraphicImage@@SAKXZ:PROC			; CGraphicImage::Type
EXTRN	??0CGraphicImageInstance@@QAE@XZ:PROC		; CGraphicImageInstance::CGraphicImageInstance
EXTRN	??1CGraphicImageInstance@@UAE@XZ:PROC		; CGraphicImageInstance::~CGraphicImageInstance
EXTRN	?SetImagePointer@CGraphicImageInstance@@QAEXPAVCGraphicImage@@@Z:PROC ; CGraphicImageInstance::SetImagePointer
EXTRN	?GetTexturePointer@CGraphicImageInstance@@QAEPAVCGraphicTexture@@XZ:PROC ; CGraphicImageInstance::GetTexturePointer
EXTRN	?GetTextureReference@CGraphicImageInstance@@QBEABVCGraphicTexture@@XZ:PROC ; CGraphicImageInstance::GetTextureReference
EXTRN	?New@CGraphicImageInstance@@SAPAV1@XZ:PROC	; CGraphicImageInstance::New
EXTRN	?Delete@CGraphicImageInstance@@SAXPAV1@@Z:PROC	; CGraphicImageInstance::Delete
EXTRN	??0CColorTransitionHelper@@QAE@XZ:PROC		; CColorTransitionHelper::CColorTransitionHelper
EXTRN	??1CColorTransitionHelper@@QAE@XZ:PROC		; CColorTransitionHelper::~CColorTransitionHelper
EXTRN	?Clear@CColorTransitionHelper@@QAEXABM000@Z:PROC ; CColorTransitionHelper::Clear
EXTRN	?SetSrcColor@CColorTransitionHelper@@QAEXABM000@Z:PROC ; CColorTransitionHelper::SetSrcColor
EXTRN	?SetTransition@CColorTransitionHelper@@QAEXABM000ABK@Z:PROC ; CColorTransitionHelper::SetTransition
EXTRN	?GetCurColor@CColorTransitionHelper@@QAEABKXZ:PROC ; CColorTransitionHelper::GetCurColor
EXTRN	?StartTransition@CColorTransitionHelper@@QAEXXZ:PROC ; CColorTransitionHelper::StartTransition
EXTRN	?Update@CColorTransitionHelper@@QAE_NXZ:PROC	; CColorTransitionHelper::Update
EXTRN	??_ECSkyObjectQuad@@UAEPAXI@Z:PROC		; CSkyObjectQuad::`vector deleting destructor'
EXTRN	??_ECSkyObject@@UAEPAXI@Z:PROC			; CSkyObject::`vector deleting destructor'
EXTRN	??_ECSkyBox@@UAEPAXI@Z:PROC			; CSkyBox::`vector deleting destructor'
EXTRN	?GetCurrentCamera@CCameraManager@@QAEPAVCCamera@@XZ:PROC ; CCameraManager::GetCurrentCamera
EXTRN	?SaveRenderState@CStateManager@@QAEXW4_D3DRENDERSTATETYPE@@K@Z:PROC ; CStateManager::SaveRenderState
EXTRN	?RestoreRenderState@CStateManager@@QAEXW4_D3DRENDERSTATETYPE@@@Z:PROC ; CStateManager::RestoreRenderState
EXTRN	?SetTexture@CStateManager@@QAEXKPAUIDirect3DBaseTexture8@@@Z:PROC ; CStateManager::SetTexture
EXTRN	?SaveTextureStageState@CStateManager@@QAEXKW4_D3DTEXTURESTAGESTATETYPE@@K@Z:PROC ; CStateManager::SaveTextureStageState
EXTRN	?RestoreTextureStageState@CStateManager@@QAEXKW4_D3DTEXTURESTAGESTATETYPE@@@Z:PROC ; CStateManager::RestoreTextureStageState
EXTRN	?SetTextureStageState@CStateManager@@QAEXKW4_D3DTEXTURESTAGESTATETYPE@@K@Z:PROC ; CStateManager::SetTextureStageState
EXTRN	?SetVertexShader@CStateManager@@QAEXK@Z:PROC	; CStateManager::SetVertexShader
EXTRN	?SaveTransform@CStateManager@@QAEXW4_D3DTRANSFORMSTATETYPE@@PBU_D3DMATRIX@@@Z:PROC ; CStateManager::SaveTransform
EXTRN	?RestoreTransform@CStateManager@@QAEXW4_D3DTRANSFORMSTATETYPE@@@Z:PROC ; CStateManager::RestoreTransform
EXTRN	?SetTransform@CStateManager@@QAEXW4_D3DTRANSFORMSTATETYPE@@PBU_D3DMATRIX@@@Z:PROC ; CStateManager::SetTransform
EXTRN	?DrawPrimitive@CStateManager@@QAEJW4_D3DPRIMITIVETYPE@@II@Z:PROC ; CStateManager::DrawPrimitive
EXTRN	?GetResourcePointer@CResourceManager@@QAEPAVCResource@@PBD@Z:PROC ; CResourceManager::GetResourcePointer
EXTRN	?GetCurrentMillisecond@CTimer@@QAEKXZ:PROC	; CTimer::GetCurrentMillisecond
EXTRN	@__security_check_cookie@4:PROC
EXTRN	__CxxThrowException@8:PROC
EXTRN	___CxxFrameHandler3:PROC
EXTRN	_memcpy:PROC
EXTRN	_memmove:PROC
EXTRN	_memset:PROC
EXTRN	??_7type_info@@6B@:QWORD			; type_info::`vftable'
EXTRN	___security_cookie:DWORD
EXTRN	__fltused:DWORD
;	COMDAT ?ms_singleton@?$CSingleton@VCCameraManager@@@@0PAVCCameraManager@@A
_BSS	SEGMENT
?ms_singleton@?$CSingleton@VCCameraManager@@@@0PAVCCameraManager@@A DD 01H DUP (?) ; CSingleton<CCameraManager>::ms_singleton
_BSS	ENDS
;	COMDAT ?ms_singleton@?$CSingleton@VCStateManager@@@@0PAVCStateManager@@A
_BSS	SEGMENT
?ms_singleton@?$CSingleton@VCStateManager@@@@0PAVCStateManager@@A DD 01H DUP (?) ; CSingleton<CStateManager>::ms_singleton
_BSS	ENDS
;	COMDAT ?ms_singleton@?$CSingleton@VCResourceManager@@@@0PAVCResourceManager@@A
_BSS	SEGMENT
?ms_singleton@?$CSingleton@VCResourceManager@@@@0PAVCResourceManager@@A DD 01H DUP (?) ; CSingleton<CResourceManager>::ms_singleton
_BSS	ENDS
;	COMDAT ?ms_singleton@?$CSingleton@VCTimer@@@@0PAVCTimer@@A
_BSS	SEGMENT
?ms_singleton@?$CSingleton@VCTimer@@@@0PAVCTimer@@A DD 01H DUP (?) ; CSingleton<CTimer>::ms_singleton
_BSS	ENDS
;	COMDAT __xmm@bf800000bf800000bf8000003f800000
CONST	SEGMENT
__xmm@bf800000bf800000bf8000003f800000 DB 00H, 00H, 080H, '?', 00H, 00H, 080H
	DB	0bfH, 00H, 00H, 080H, 0bfH, 00H, 00H, 080H, 0bfH
CONST	ENDS
;	COMDAT __xmm@bf8000003f8000003f8000003f800000
CONST	SEGMENT
__xmm@bf8000003f8000003f8000003f800000 DB 00H, 00H, 080H, '?', 00H, 00H, 080H
	DB	'?', 00H, 00H, 080H, '?', 00H, 00H, 080H, 0bfH
CONST	ENDS
;	COMDAT __xmm@80000000800000008000000080000000
CONST	SEGMENT
__xmm@80000000800000008000000080000000 DB 00H, 00H, 00H, 080H, 00H, 00H, 00H
	DB	080H, 00H, 00H, 00H, 080H, 00H, 00H, 00H, 080H
CONST	ENDS
;	COMDAT __xmm@41f00000000000000000000000000000
CONST	SEGMENT
__xmm@41f00000000000000000000000000000 DB 00H, 00H, 00H, 00H, 00H, 00H, 00H
	DB	00H, 00H, 00H, 00H, 00H, 00H, 00H, 0f0H, 'A'
CONST	ENDS
;	COMDAT __xmm@3f8000003f8000003f800000bf800000
CONST	SEGMENT
__xmm@3f8000003f8000003f800000bf800000 DB 00H, 00H, 080H, 0bfH, 00H, 00H, 080H
	DB	'?', 00H, 00H, 080H, '?', 00H, 00H, 080H, '?'
CONST	ENDS
;	COMDAT __real@bf800000
CONST	SEGMENT
__real@bf800000 DD 0bf800000r			; -1
CONST	ENDS
;	COMDAT __real@3f800000
CONST	SEGMENT
__real@3f800000 DD 03f800000r			; 1
CONST	ENDS
;	COMDAT __real@3f000000
CONST	SEGMENT
__real@3f000000 DD 03f000000r			; 0.5
CONST	ENDS
;	COMDAT __real@3a83126f
CONST	SEGMENT
__real@3a83126f DD 03a83126fr			; 0.001
CONST	ENDS
;	COMDAT ??_R1A@?0A@EA@CSkyBox@@8
rdata$r	SEGMENT
??_R1A@?0A@EA@CSkyBox@@8 DD FLAT:??_R0?AVCSkyBox@@@8	; CSkyBox::`RTTI Base Class Descriptor at (0,-1,0,64)'
	DD	04H
	DD	00H
	DD	0ffffffffH
	DD	00H
	DD	040H
	DD	FLAT:??_R3CSkyBox@@8
rdata$r	ENDS
;	COMDAT ??_R2CSkyBox@@8
rdata$r	SEGMENT
??_R2CSkyBox@@8 DD FLAT:??_R1A@?0A@EA@CSkyBox@@8	; CSkyBox::`RTTI Base Class Array'
	DD	FLAT:??_R1A@?0A@EA@CSkyObject@@8
	DD	FLAT:??_R1A@?0A@EA@CScreen@@8
	DD	FLAT:??_R1A@?0A@EA@CGraphicCollisionObject@@8
	DD	FLAT:??_R1A@?0A@EA@CGraphicBase@@8
rdata$r	ENDS
;	COMDAT ??_R3CSkyBox@@8
rdata$r	SEGMENT
??_R3CSkyBox@@8 DD 00H					; CSkyBox::`RTTI Class Hierarchy Descriptor'
	DD	00H
	DD	05H
	DD	FLAT:??_R2CSkyBox@@8
rdata$r	ENDS
;	COMDAT ??_R0?AVCSkyBox@@@8
data$r	SEGMENT
??_R0?AVCSkyBox@@@8 DD FLAT:??_7type_info@@6B@		; CSkyBox `RTTI Type Descriptor'
	DD	00H
	DB	'.?AVCSkyBox@@', 00H
data$r	ENDS
;	COMDAT ??_R4CSkyBox@@6B@
rdata$r	SEGMENT
??_R4CSkyBox@@6B@ DD 00H				; CSkyBox::`RTTI Complete Object Locator'
	DD	00H
	DD	00H
	DD	FLAT:??_R0?AVCSkyBox@@@8
	DD	FLAT:??_R3CSkyBox@@8
rdata$r	ENDS
;	COMDAT ??_R2CGraphicBase@@8
rdata$r	SEGMENT
??_R2CGraphicBase@@8 DD FLAT:??_R1A@?0A@EA@CGraphicBase@@8 ; CGraphicBase::`RTTI Base Class Array'
rdata$r	ENDS
;	COMDAT ??_R3CGraphicBase@@8
rdata$r	SEGMENT
??_R3CGraphicBase@@8 DD 00H				; CGraphicBase::`RTTI Class Hierarchy Descriptor'
	DD	00H
	DD	01H
	DD	FLAT:??_R2CGraphicBase@@8
rdata$r	ENDS
;	COMDAT ??_R0?AVCGraphicBase@@@8
data$r	SEGMENT
??_R0?AVCGraphicBase@@@8 DD FLAT:??_7type_info@@6B@	; CGraphicBase `RTTI Type Descriptor'
	DD	00H
	DB	'.?AVCGraphicBase@@', 00H
data$r	ENDS
;	COMDAT ??_R1A@?0A@EA@CGraphicBase@@8
rdata$r	SEGMENT
??_R1A@?0A@EA@CGraphicBase@@8 DD FLAT:??_R0?AVCGraphicBase@@@8 ; CGraphicBase::`RTTI Base Class Descriptor at (0,-1,0,64)'
	DD	00H
	DD	00H
	DD	0ffffffffH
	DD	00H
	DD	040H
	DD	FLAT:??_R3CGraphicBase@@8
rdata$r	ENDS
;	COMDAT ??_R2CGraphicCollisionObject@@8
rdata$r	SEGMENT
??_R2CGraphicCollisionObject@@8 DD FLAT:??_R1A@?0A@EA@CGraphicCollisionObject@@8 ; CGraphicCollisionObject::`RTTI Base Class Array'
	DD	FLAT:??_R1A@?0A@EA@CGraphicBase@@8
rdata$r	ENDS
;	COMDAT ??_R3CGraphicCollisionObject@@8
rdata$r	SEGMENT
??_R3CGraphicCollisionObject@@8 DD 00H			; CGraphicCollisionObject::`RTTI Class Hierarchy Descriptor'
	DD	00H
	DD	02H
	DD	FLAT:??_R2CGraphicCollisionObject@@8
rdata$r	ENDS
;	COMDAT ??_R0?AVCGraphicCollisionObject@@@8
data$r	SEGMENT
??_R0?AVCGraphicCollisionObject@@@8 DD FLAT:??_7type_info@@6B@ ; CGraphicCollisionObject `RTTI Type Descriptor'
	DD	00H
	DB	'.?AVCGraphicCollisionObject@@', 00H
data$r	ENDS
;	COMDAT ??_R1A@?0A@EA@CGraphicCollisionObject@@8
rdata$r	SEGMENT
??_R1A@?0A@EA@CGraphicCollisionObject@@8 DD FLAT:??_R0?AVCGraphicCollisionObject@@@8 ; CGraphicCollisionObject::`RTTI Base Class Descriptor at (0,-1,0,64)'
	DD	01H
	DD	00H
	DD	0ffffffffH
	DD	00H
	DD	040H
	DD	FLAT:??_R3CGraphicCollisionObject@@8
rdata$r	ENDS
;	COMDAT ??_R2CScreen@@8
rdata$r	SEGMENT
??_R2CScreen@@8 DD FLAT:??_R1A@?0A@EA@CScreen@@8	; CScreen::`RTTI Base Class Array'
	DD	FLAT:??_R1A@?0A@EA@CGraphicCollisionObject@@8
	DD	FLAT:??_R1A@?0A@EA@CGraphicBase@@8
rdata$r	ENDS
;	COMDAT ??_R3CScreen@@8
rdata$r	SEGMENT
??_R3CScreen@@8 DD 00H					; CScreen::`RTTI Class Hierarchy Descriptor'
	DD	00H
	DD	03H
	DD	FLAT:??_R2CScreen@@8
rdata$r	ENDS
;	COMDAT ??_R0?AVCScreen@@@8
data$r	SEGMENT
??_R0?AVCScreen@@@8 DD FLAT:??_7type_info@@6B@		; CScreen `RTTI Type Descriptor'
	DD	00H
	DB	'.?AVCScreen@@', 00H
data$r	ENDS
;	COMDAT ??_R1A@?0A@EA@CScreen@@8
rdata$r	SEGMENT
??_R1A@?0A@EA@CScreen@@8 DD FLAT:??_R0?AVCScreen@@@8	; CScreen::`RTTI Base Class Descriptor at (0,-1,0,64)'
	DD	02H
	DD	00H
	DD	0ffffffffH
	DD	00H
	DD	040H
	DD	FLAT:??_R3CScreen@@8
rdata$r	ENDS
;	COMDAT ??_R1A@?0A@EA@CSkyObject@@8
rdata$r	SEGMENT
??_R1A@?0A@EA@CSkyObject@@8 DD FLAT:??_R0?AVCSkyObject@@@8 ; CSkyObject::`RTTI Base Class Descriptor at (0,-1,0,64)'
	DD	03H
	DD	00H
	DD	0ffffffffH
	DD	00H
	DD	040H
	DD	FLAT:??_R3CSkyObject@@8
rdata$r	ENDS
;	COMDAT ??_R2CSkyObject@@8
rdata$r	SEGMENT
??_R2CSkyObject@@8 DD FLAT:??_R1A@?0A@EA@CSkyObject@@8	; CSkyObject::`RTTI Base Class Array'
	DD	FLAT:??_R1A@?0A@EA@CScreen@@8
	DD	FLAT:??_R1A@?0A@EA@CGraphicCollisionObject@@8
	DD	FLAT:??_R1A@?0A@EA@CGraphicBase@@8
rdata$r	ENDS
;	COMDAT ??_R3CSkyObject@@8
rdata$r	SEGMENT
??_R3CSkyObject@@8 DD 00H				; CSkyObject::`RTTI Class Hierarchy Descriptor'
	DD	00H
	DD	04H
	DD	FLAT:??_R2CSkyObject@@8
rdata$r	ENDS
;	COMDAT ??_R0?AVCSkyObject@@@8
data$r	SEGMENT
??_R0?AVCSkyObject@@@8 DD FLAT:??_7type_info@@6B@	; CSkyObject `RTTI Type Descriptor'
	DD	00H
	DB	'.?AVCSkyObject@@', 00H
data$r	ENDS
;	COMDAT ??_R4CSkyObject@@6B@
rdata$r	SEGMENT
??_R4CSkyObject@@6B@ DD 00H				; CSkyObject::`RTTI Complete Object Locator'
	DD	00H
	DD	00H
	DD	FLAT:??_R0?AVCSkyObject@@@8
	DD	FLAT:??_R3CSkyObject@@8
rdata$r	ENDS
;	COMDAT ??_R1A@?0A@EA@CSkyObjectQuad@@8
rdata$r	SEGMENT
??_R1A@?0A@EA@CSkyObjectQuad@@8 DD FLAT:??_R0?AVCSkyObjectQuad@@@8 ; CSkyObjectQuad::`RTTI Base Class Descriptor at (0,-1,0,64)'
	DD	00H
	DD	00H
	DD	0ffffffffH
	DD	00H
	DD	040H
	DD	FLAT:??_R3CSkyObjectQuad@@8
rdata$r	ENDS
;	COMDAT ??_R2CSkyObjectQuad@@8
rdata$r	SEGMENT
??_R2CSkyObjectQuad@@8 DD FLAT:??_R1A@?0A@EA@CSkyObjectQuad@@8 ; CSkyObjectQuad::`RTTI Base Class Array'
rdata$r	ENDS
;	COMDAT ??_R3CSkyObjectQuad@@8
rdata$r	SEGMENT
??_R3CSkyObjectQuad@@8 DD 00H				; CSkyObjectQuad::`RTTI Class Hierarchy Descriptor'
	DD	00H
	DD	01H
	DD	FLAT:??_R2CSkyObjectQuad@@8
rdata$r	ENDS
;	COMDAT ??_R0?AVCSkyObjectQuad@@@8
data$r	SEGMENT
??_R0?AVCSkyObjectQuad@@@8 DD FLAT:??_7type_info@@6B@	; CSkyObjectQuad `RTTI Type Descriptor'
	DD	00H
	DB	'.?AVCSkyObjectQuad@@', 00H
data$r	ENDS
;	COMDAT ??_R4CSkyObjectQuad@@6B@
rdata$r	SEGMENT
??_R4CSkyObjectQuad@@6B@ DD 00H				; CSkyObjectQuad::`RTTI Complete Object Locator'
	DD	00H
	DD	00H
	DD	FLAT:??_R0?AVCSkyObjectQuad@@@8
	DD	FLAT:??_R3CSkyObjectQuad@@8
rdata$r	ENDS
;	COMDAT ??_C@_0BA@FOIKENOD@vector?5too?5long@
CONST	SEGMENT
??_C@_0BA@FOIKENOD@vector?5too?5long@ DB 'vector too long', 00H ; `string'
CONST	ENDS
;	COMDAT ??_C@_0BJ@DHFDPMIM@invalid?5vector?5subscript@
CONST	SEGMENT
??_C@_0BJ@DHFDPMIM@invalid?5vector?5subscript@ DB 'invalid vector subscri'
	DB	'pt', 00H					; `string'
CONST	ENDS
;	COMDAT ??_C@_06PMMPCIPB@bottom@
CONST	SEGMENT
??_C@_06PMMPCIPB@bottom@ DB 'bottom', 00H		; `string'
CONST	ENDS
;	COMDAT ??_C@_03FGFCOCMD@top@
CONST	SEGMENT
??_C@_03FGFCOCMD@top@ DB 'top', 00H			; `string'
CONST	ENDS
;	COMDAT ??_C@_05DHJDAOHK@right@
CONST	SEGMENT
??_C@_05DHJDAOHK@right@ DB 'right', 00H			; `string'
CONST	ENDS
;	COMDAT ??_C@_04GOOOJOPP@left@
CONST	SEGMENT
??_C@_04GOOOJOPP@left@ DB 'left', 00H			; `string'
CONST	ENDS
;	COMDAT ??_C@_04JFCNHLLM@back@
CONST	SEGMENT
??_C@_04JFCNHLLM@back@ DB 'back', 00H			; `string'
CONST	ENDS
;	COMDAT ??_C@_05HJNNLMDJ@front@
CONST	SEGMENT
??_C@_05HJNNLMDJ@front@ DB 'front', 00H			; `string'
CONST	ENDS
;	COMDAT ??_7CSkyBox@@6B@
CONST	SEGMENT
??_7CSkyBox@@6B@ DD FLAT:??_R4CSkyBox@@6B@		; CSkyBox::`vftable'
	DD	FLAT:??_ECSkyBox@@UAEPAXI@Z
	DD	FLAT:?Destroy@CSkyBox@@UAEXXZ
	DD	FLAT:?Render@CSkyBox@@UAEXXZ
	DD	FLAT:?Update@CSkyBox@@UAEXXZ
	DD	FLAT:?StartTransition@CSkyBox@@UAEXXZ
CONST	ENDS
;	COMDAT ??_7CSkyObject@@6B@
CONST	SEGMENT
??_7CSkyObject@@6B@ DD FLAT:??_R4CSkyObject@@6B@	; CSkyObject::`vftable'
	DD	FLAT:??_ECSkyObject@@UAEPAXI@Z
	DD	FLAT:__purecall
	DD	FLAT:__purecall
	DD	FLAT:__purecall
	DD	FLAT:?StartTransition@CSkyObject@@UAEXXZ
CONST	ENDS
;	COMDAT ??_7CSkyObjectQuad@@6B@
CONST	SEGMENT
??_7CSkyObjectQuad@@6B@ DD FLAT:??_R4CSkyObjectQuad@@6B@ ; CSkyObjectQuad::`vftable'
	DD	FLAT:??_ECSkyObjectQuad@@UAEPAXI@Z
CONST	ENDS
;	COMDAT ??_R1A@?0A@EA@bad_array_new_length@std@@8
rdata$r	SEGMENT
??_R1A@?0A@EA@bad_array_new_length@std@@8 DD FLAT:??_R0?AVbad_array_new_length@std@@@8 ; std::bad_array_new_length::`RTTI Base Class Descriptor at (0,-1,0,64)'
	DD	02H
	DD	00H
	DD	0ffffffffH
	DD	00H
	DD	040H
	DD	FLAT:??_R3bad_array_new_length@std@@8
rdata$r	ENDS
;	COMDAT ??_R2bad_array_new_length@std@@8
rdata$r	SEGMENT
??_R2bad_array_new_length@std@@8 DD FLAT:??_R1A@?0A@EA@bad_array_new_length@std@@8 ; std::bad_array_new_length::`RTTI Base Class Array'
	DD	FLAT:??_R1A@?0A@EA@bad_alloc@std@@8
	DD	FLAT:??_R1A@?0A@EA@exception@std@@8
rdata$r	ENDS
;	COMDAT ??_R3bad_array_new_length@std@@8
rdata$r	SEGMENT
??_R3bad_array_new_length@std@@8 DD 00H			; std::bad_array_new_length::`RTTI Class Hierarchy Descriptor'
	DD	00H
	DD	03H
	DD	FLAT:??_R2bad_array_new_length@std@@8
rdata$r	ENDS
;	COMDAT ??_R4bad_array_new_length@std@@6B@
rdata$r	SEGMENT
??_R4bad_array_new_length@std@@6B@ DD 00H		; std::bad_array_new_length::`RTTI Complete Object Locator'
	DD	00H
	DD	00H
	DD	FLAT:??_R0?AVbad_array_new_length@std@@@8
	DD	FLAT:??_R3bad_array_new_length@std@@8
rdata$r	ENDS
;	COMDAT ??_R1A@?0A@EA@bad_alloc@std@@8
rdata$r	SEGMENT
??_R1A@?0A@EA@bad_alloc@std@@8 DD FLAT:??_R0?AVbad_alloc@std@@@8 ; std::bad_alloc::`RTTI Base Class Descriptor at (0,-1,0,64)'
	DD	01H
	DD	00H
	DD	0ffffffffH
	DD	00H
	DD	040H
	DD	FLAT:??_R3bad_alloc@std@@8
rdata$r	ENDS
;	COMDAT ??_R2bad_alloc@std@@8
rdata$r	SEGMENT
??_R2bad_alloc@std@@8 DD FLAT:??_R1A@?0A@EA@bad_alloc@std@@8 ; std::bad_alloc::`RTTI Base Class Array'
	DD	FLAT:??_R1A@?0A@EA@exception@std@@8
rdata$r	ENDS
;	COMDAT ??_R3bad_alloc@std@@8
rdata$r	SEGMENT
??_R3bad_alloc@std@@8 DD 00H				; std::bad_alloc::`RTTI Class Hierarchy Descriptor'
	DD	00H
	DD	02H
	DD	FLAT:??_R2bad_alloc@std@@8
rdata$r	ENDS
;	COMDAT ??_R4bad_alloc@std@@6B@
rdata$r	SEGMENT
??_R4bad_alloc@std@@6B@ DD 00H				; std::bad_alloc::`RTTI Complete Object Locator'
	DD	00H
	DD	00H
	DD	FLAT:??_R0?AVbad_alloc@std@@@8
	DD	FLAT:??_R3bad_alloc@std@@8
rdata$r	ENDS
;	COMDAT ??_R1A@?0A@EA@exception@std@@8
rdata$r	SEGMENT
??_R1A@?0A@EA@exception@std@@8 DD FLAT:??_R0?AVexception@std@@@8 ; std::exception::`RTTI Base Class Descriptor at (0,-1,0,64)'
	DD	00H
	DD	00H
	DD	0ffffffffH
	DD	00H
	DD	040H
	DD	FLAT:??_R3exception@std@@8
rdata$r	ENDS
;	COMDAT ??_R2exception@std@@8
rdata$r	SEGMENT
??_R2exception@std@@8 DD FLAT:??_R1A@?0A@EA@exception@std@@8 ; std::exception::`RTTI Base Class Array'
rdata$r	ENDS
;	COMDAT ??_R3exception@std@@8
rdata$r	SEGMENT
??_R3exception@std@@8 DD 00H				; std::exception::`RTTI Class Hierarchy Descriptor'
	DD	00H
	DD	01H
	DD	FLAT:??_R2exception@std@@8
rdata$r	ENDS
;	COMDAT ??_R4exception@std@@6B@
rdata$r	SEGMENT
??_R4exception@std@@6B@ DD 00H				; std::exception::`RTTI Complete Object Locator'
	DD	00H
	DD	00H
	DD	FLAT:??_R0?AVexception@std@@@8
	DD	FLAT:??_R3exception@std@@8
rdata$r	ENDS
;	COMDAT ??_C@_0BB@GCADKGJO@map?1set?5too?5long@
CONST	SEGMENT
??_C@_0BB@GCADKGJO@map?1set?5too?5long@ DB 'map/set too long', 00H ; `string'
CONST	ENDS
;	COMDAT ??_C@_0BA@JFNIOLAK@string?5too?5long@
CONST	SEGMENT
??_C@_0BA@JFNIOLAK@string?5too?5long@ DB 'string too long', 00H ; `string'
CONST	ENDS
;	COMDAT __CT??_R0?AVexception@std@@@8??0exception@std@@QAE@ABV01@@Z12
xdata$x	SEGMENT
__CT??_R0?AVexception@std@@@8??0exception@std@@QAE@ABV01@@Z12 DD 00H
	DD	FLAT:??_R0?AVexception@std@@@8
	DD	00H
	DD	0ffffffffH
	ORG $+4
	DD	0cH
	DD	FLAT:??0exception@std@@QAE@ABV01@@Z
xdata$x	ENDS
;	COMDAT ??_R0?AVexception@std@@@8
data$r	SEGMENT
??_R0?AVexception@std@@@8 DD FLAT:??_7type_info@@6B@	; std::exception `RTTI Type Descriptor'
	DD	00H
	DB	'.?AVexception@std@@', 00H
data$r	ENDS
;	COMDAT __CT??_R0?AVbad_alloc@std@@@8??0bad_alloc@std@@QAE@ABV01@@Z12
xdata$x	SEGMENT
__CT??_R0?AVbad_alloc@std@@@8??0bad_alloc@std@@QAE@ABV01@@Z12 DD 010H
	DD	FLAT:??_R0?AVbad_alloc@std@@@8
	DD	00H
	DD	0ffffffffH
	ORG $+4
	DD	0cH
	DD	FLAT:??0bad_alloc@std@@QAE@ABV01@@Z
xdata$x	ENDS
;	COMDAT ??_R0?AVbad_alloc@std@@@8
data$r	SEGMENT
??_R0?AVbad_alloc@std@@@8 DD FLAT:??_7type_info@@6B@	; std::bad_alloc `RTTI Type Descriptor'
	DD	00H
	DB	'.?AVbad_alloc@std@@', 00H
data$r	ENDS
;	COMDAT __CT??_R0?AVbad_array_new_length@std@@@8??0bad_array_new_length@std@@QAE@ABV01@@Z12
xdata$x	SEGMENT
__CT??_R0?AVbad_array_new_length@std@@@8??0bad_array_new_length@std@@QAE@ABV01@@Z12 DD 00H
	DD	FLAT:??_R0?AVbad_array_new_length@std@@@8
	DD	00H
	DD	0ffffffffH
	ORG $+4
	DD	0cH
	DD	FLAT:??0bad_array_new_length@std@@QAE@ABV01@@Z
xdata$x	ENDS
;	COMDAT ??_R0?AVbad_array_new_length@std@@@8
data$r	SEGMENT
??_R0?AVbad_array_new_length@std@@@8 DD FLAT:??_7type_info@@6B@ ; std::bad_array_new_length `RTTI Type Descriptor'
	DD	00H
	DB	'.?AVbad_array_new_length@std@@', 00H
data$r	ENDS
;	COMDAT __CTA3?AVbad_array_new_length@std@@
xdata$x	SEGMENT
__CTA3?AVbad_array_new_length@std@@ DD 03H
	DD	FLAT:__CT??_R0?AVbad_array_new_length@std@@@8??0bad_array_new_length@std@@QAE@ABV01@@Z12
	DD	FLAT:__CT??_R0?AVbad_alloc@std@@@8??0bad_alloc@std@@QAE@ABV01@@Z12
	DD	FLAT:__CT??_R0?AVexception@std@@@8??0exception@std@@QAE@ABV01@@Z12
xdata$x	ENDS
;	COMDAT __TI3?AVbad_array_new_length@std@@
xdata$x	SEGMENT
__TI3?AVbad_array_new_length@std@@ DD 00H
	DD	FLAT:??1bad_array_new_length@std@@UAE@XZ
	DD	00H
	DD	FLAT:__CTA3?AVbad_array_new_length@std@@
xdata$x	ENDS
;	COMDAT ??_C@_0BF@KINCDENJ@bad?5array?5new?5length@
CONST	SEGMENT
??_C@_0BF@KINCDENJ@bad?5array?5new?5length@ DB 'bad array new length', 00H ; `string'
CONST	ENDS
;	COMDAT ??_7bad_array_new_length@std@@6B@
CONST	SEGMENT
??_7bad_array_new_length@std@@6B@ DD FLAT:??_R4bad_array_new_length@std@@6B@ ; std::bad_array_new_length::`vftable'
	DD	FLAT:??_Ebad_array_new_length@std@@UAEPAXI@Z
	DD	FLAT:?what@exception@std@@UBEPBDXZ
CONST	ENDS
;	COMDAT ??_7bad_alloc@std@@6B@
CONST	SEGMENT
??_7bad_alloc@std@@6B@ DD FLAT:??_R4bad_alloc@std@@6B@	; std::bad_alloc::`vftable'
	DD	FLAT:??_Ebad_alloc@std@@UAEPAXI@Z
	DD	FLAT:?what@exception@std@@UBEPBDXZ
CONST	ENDS
;	COMDAT ??_C@_0BC@EOODALEL@Unknown?5exception@
CONST	SEGMENT
??_C@_0BC@EOODALEL@Unknown?5exception@ DB 'Unknown exception', 00H ; `string'
CONST	ENDS
;	COMDAT ??_7exception@std@@6B@
CONST	SEGMENT
??_7exception@std@@6B@ DD FLAT:??_R4exception@std@@6B@	; std::exception::`vftable'
	DD	FLAT:??_Eexception@std@@UAEPAXI@Z
	DD	FLAT:?what@exception@std@@UBEPBDXZ
CONST	ENDS
;	COMDAT xdata$x
xdata$x	SEGMENT
__unwindtable$??$?0U?$pair@$$CBV?$basic_string@DU?$char_traits@D@std@@V?$allocator@D@2@@std@@PAVCGraphicImageInstance@@@std@@@?$_Tree_temp_node@V?$allocator@U?$_Tree_node@U?$pair@$$CBV?$basic_string@DU?$char_traits@D@std@@V?$allocator@D@2@@std@@PAVCGraphicImageInstance@@@std@@PAX@std@@@std@@@std@@QAE@AAV?$allocator@U?$_Tree_node@U?$pair@$$CBV?$basic_string@DU?$char_traits@D@std@@V?$allocator@D@2@@std@@PAVCGraphicImageInstance@@@std@@PAX@std@@@1@PAU?$_Tree_node@U?$pair@$$CBV?$basic_string@DU?$char_traits@D@std@@V?$allocator@D@2@@std@@PAVCGraphicImageInstance@@@std@@PAX@1@$$QAU?$pair@$$CBV?$basic_string@DU?$char_traits@D@std@@V?$allocator@D@2@@std@@PAVCGraphicImageInstance@@@1@@Z DD 0ffffffffH
	DD	FLAT:__unwindfunclet$??$?0U?$pair@$$CBV?$basic_string@DU?$char_traits@D@std@@V?$allocator@D@2@@std@@PAVCGraphicImageInstance@@@std@@@?$_Tree_temp_node@V?$allocator@U?$_Tree_node@U?$pair@$$CBV?$basic_string@DU?$char_traits@D@std@@V?$allocator@D@2@@std@@PAVCGraphicImageInstance@@@std@@PAX@std@@@std@@@std@@QAE@AAV?$allocator@U?$_Tree_node@U?$pair@$$CBV?$basic_string@DU?$char_traits@D@std@@V?$allocator@D@2@@std@@PAVCGraphicImageInstance@@@std@@PAX@std@@@1@PAU?$_Tree_node@U?$pair@$$CBV?$basic_string@DU?$char_traits@D@std@@V?$allocator@D@2@@std@@PAVCGraphicImageInstance@@@std@@PAX@1@$$QAU?$pair@$$CBV?$basic_string@DU?$char_traits@D@std@@V?$allocator@D@2@@std@@PAVCGraphicImageInstance@@@1@@Z$1
	DD	0ffffffffH
	DD	FLAT:__unwindfunclet$??$?0U?$pair@$$CBV?$basic_string@DU?$char_traits@D@std@@V?$allocator@D@2@@std@@PAVCGraphicImageInstance@@@std@@@?$_Tree_temp_node@V?$allocator@U?$_Tree_node@U?$pair@$$CBV?$basic_string@DU?$char_traits@D@std@@V?$allocator@D@2@@std@@PAVCGraphicImageInstance@@@std@@PAX@std@@@std@@@std@@QAE@AAV?$allocator@U?$_Tree_node@U?$pair@$$CBV?$basic_string@DU?$char_traits@D@std@@V?$allocator@D@2@@std@@PAVCGraphicImageInstance@@@std@@PAX@std@@@1@PAU?$_Tree_node@U?$pair@$$CBV?$basic_string@DU?$char_traits@D@std@@V?$allocator@D@2@@std@@PAVCGraphicImageInstance@@@std@@PAX@1@$$QAU?$pair@$$CBV?$basic_string@DU?$char_traits@D@std@@V?$allocator@D@2@@std@@PAVCGraphicImageInstance@@@1@@Z$0
__ehfuncinfo$??$?0U?$pair@$$CBV?$basic_string@DU?$char_traits@D@std@@V?$allocator@D@2@@std@@PAVCGraphicImageInstance@@@std@@@?$_Tree_temp_node@V?$allocator@U?$_Tree_node@U?$pair@$$CBV?$basic_string@DU?$char_traits@D@std@@V?$allocator@D@2@@std@@PAVCGraphicImageInstance@@@std@@PAX@std@@@std@@@std@@QAE@AAV?$allocator@U?$_Tree_node@U?$pair@$$CBV?$basic_string@DU?$char_traits@D@std@@V?$allocator@D@2@@std@@PAVCGraphicImageInstance@@@std@@PAX@std@@@1@PAU?$_Tree_node@U?$pair@$$CBV?$basic_string@DU?$char_traits@D@std@@V?$allocator@D@2@@std@@PAVCGraphicImageInstance@@@std@@PAX@1@$$QAU?$pair@$$CBV?$basic_string@DU?$char_traits@D@std@@V?$allocator@D@2@@std@@PAVCGraphicImageInstance@@@1@@Z DD 019930522H
	DD	02H
	DD	FLAT:__unwindtable$??$?0U?$pair@$$CBV?$basic_string@DU?$char_traits@D@std@@V?$allocator@D@2@@std@@PAVCGraphicImageInstance@@@std@@@?$_Tree_temp_node@V?$allocator@U?$_Tree_node@U?$pair@$$CBV?$basic_string@DU?$char_traits@D@std@@V?$allocator@D@2@@std@@PAVCGraphicImageInstance@@@std@@PAX@std@@@std@@@std@@QAE@AAV?$allocator@U?$_Tree_node@U?$pair@$$CBV?$basic_string@DU?$char_traits@D@std@@V?$allocator@D@2@@std@@PAVCGraphicImageInstance@@@std@@PAX@std@@@1@PAU?$_Tree_node@U?$pair@$$CBV?$basic_string@DU?$char_traits@D@std@@V?$allocator@D@2@@std@@PAVCGraphicImageInstance@@@std@@PAX@1@$$QAU?$pair@$$CBV?$basic_string@DU?$char_traits@D@std@@V?$allocator@D@2@@std@@PAVCGraphicImageInstance@@@1@@Z
	DD	2 DUP(00H)
	DD	2 DUP(00H)
	DD	00H
	DD	01H
xdata$x	ENDS
;	COMDAT xdata$x
xdata$x	SEGMENT
__unwindtable$??$_Uninitialized_value_construct_n@V?$allocator@VCSkyObjectQuad@@@std@@@std@@YAPAVCSkyObjectQuad@@PAV1@IAAV?$allocator@VCSkyObjectQuad@@@0@@Z DD 0ffffffffH
	DD	FLAT:__unwindfunclet$??$_Uninitialized_value_construct_n@V?$allocator@VCSkyObjectQuad@@@std@@@std@@YAPAVCSkyObjectQuad@@PAV1@IAAV?$allocator@VCSkyObjectQuad@@@0@@Z$0
__ehfuncinfo$??$_Uninitialized_value_construct_n@V?$allocator@VCSkyObjectQuad@@@std@@@std@@YAPAVCSkyObjectQuad@@PAV1@IAAV?$allocator@VCSkyObjectQuad@@@0@@Z DD 019930522H
	DD	01H
	DD	FLAT:__unwindtable$??$_Uninitialized_value_construct_n@V?$allocator@VCSkyObjectQuad@@@std@@@std@@YAPAVCSkyObjectQuad@@PAV1@IAAV?$allocator@VCSkyObjectQuad@@@0@@Z
	DD	2 DUP(00H)
	DD	2 DUP(00H)
	DD	00H
	DD	01H
xdata$x	ENDS
;	COMDAT xdata$x
xdata$x	SEGMENT
__catchsym$??$_Resize_reallocate@U_Value_init_tag@std@@@?$vector@VCSkyObjectQuad@@V?$allocator@VCSkyObjectQuad@@@std@@@std@@AAEXIABU_Value_init_tag@1@@Z$2 DD 040H
	DD	00H
	DD	00H
	DD	FLAT:__catch$??$_Resize_reallocate@U_Value_init_tag@std@@@?$vector@VCSkyObjectQuad@@V?$allocator@VCSkyObjectQuad@@@std@@@std@@AAEXIABU_Value_init_tag@1@@Z$0
__unwindtable$??$_Resize_reallocate@U_Value_init_tag@std@@@?$vector@VCSkyObjectQuad@@V?$allocator@VCSkyObjectQuad@@@std@@@std@@AAEXIABU_Value_init_tag@1@@Z DD 0ffffffffH
	DD	00H
	DD	0ffffffffH
	DD	00H
__tryblocktable$??$_Resize_reallocate@U_Value_init_tag@std@@@?$vector@VCSkyObjectQuad@@V?$allocator@VCSkyObjectQuad@@@std@@@std@@AAEXIABU_Value_init_tag@1@@Z DD 00H
	DD	00H
	DD	01H
	DD	01H
	DD	FLAT:__catchsym$??$_Resize_reallocate@U_Value_init_tag@std@@@?$vector@VCSkyObjectQuad@@V?$allocator@VCSkyObjectQuad@@@std@@@std@@AAEXIABU_Value_init_tag@1@@Z$2
__ehfuncinfo$??$_Resize_reallocate@U_Value_init_tag@std@@@?$vector@VCSkyObjectQuad@@V?$allocator@VCSkyObjectQuad@@@std@@@std@@AAEXIABU_Value_init_tag@1@@Z DD 019930522H
	DD	02H
	DD	FLAT:__unwindtable$??$_Resize_reallocate@U_Value_init_tag@std@@@?$vector@VCSkyObjectQuad@@V?$allocator@VCSkyObjectQuad@@@std@@@std@@AAEXIABU_Value_init_tag@1@@Z
	DD	01H
	DD	FLAT:__tryblocktable$??$_Resize_reallocate@U_Value_init_tag@std@@@?$vector@VCSkyObjectQuad@@V?$allocator@VCSkyObjectQuad@@@std@@@std@@AAEXIABU_Value_init_tag@1@@Z
	DD	2 DUP(00H)
	DD	00H
	DD	01H
xdata$x	ENDS
;	COMDAT xdata$x
xdata$x	SEGMENT
__unwindtable$??$?0ABUpiecewise_construct_t@std@@V?$tuple@ABV?$basic_string@DU?$char_traits@D@std@@V?$allocator@D@2@@std@@@1@V?$tuple@$$V@1@@?$_Tree_temp_node@V?$allocator@U?$_Tree_node@U?$pair@$$CBV?$basic_string@DU?$char_traits@D@std@@V?$allocator@D@2@@std@@PAVCGraphicImageInstance@@@std@@PAX@std@@@std@@@std@@QAE@AAV?$allocator@U?$_Tree_node@U?$pair@$$CBV?$basic_string@DU?$char_traits@D@std@@V?$allocator@D@2@@std@@PAVCGraphicImageInstance@@@std@@PAX@std@@@1@PAU?$_Tree_node@U?$pair@$$CBV?$basic_string@DU?$char_traits@D@std@@V?$allocator@D@2@@std@@PAVCGraphicImageInstance@@@std@@PAX@1@ABUpiecewise_construct_t@1@$$QAV?$tuple@ABV?$basic_string@DU?$char_traits@D@std@@V?$allocator@D@2@@std@@@1@$$QAV?$tuple@$$V@1@@Z DD 0ffffffffH
	DD	FLAT:__unwindfunclet$??$?0ABUpiecewise_construct_t@std@@V?$tuple@ABV?$basic_string@DU?$char_traits@D@std@@V?$allocator@D@2@@std@@@1@V?$tuple@$$V@1@@?$_Tree_temp_node@V?$allocator@U?$_Tree_node@U?$pair@$$CBV?$basic_string@DU?$char_traits@D@std@@V?$allocator@D@2@@std@@PAVCGraphicImageInstance@@@std@@PAX@std@@@std@@@std@@QAE@AAV?$allocator@U?$_Tree_node@U?$pair@$$CBV?$basic_string@DU?$char_traits@D@std@@V?$allocator@D@2@@std@@PAVCGraphicImageInstance@@@std@@PAX@std@@@1@PAU?$_Tree_node@U?$pair@$$CBV?$basic_string@DU?$char_traits@D@std@@V?$allocator@D@2@@std@@PAVCGraphicImageInstance@@@std@@PAX@1@ABUpiecewise_construct_t@1@$$QAV?$tuple@ABV?$basic_string@DU?$char_traits@D@std@@V?$allocator@D@2@@std@@@1@$$QAV?$tuple@$$V@1@@Z$1
	DD	0ffffffffH
	DD	FLAT:__unwindfunclet$??$?0ABUpiecewise_construct_t@std@@V?$tuple@ABV?$basic_string@DU?$char_traits@D@std@@V?$allocator@D@2@@std@@@1@V?$tuple@$$V@1@@?$_Tree_temp_node@V?$allocator@U?$_Tree_node@U?$pair@$$CBV?$basic_string@DU?$char_traits@D@std@@V?$allocator@D@2@@std@@PAVCGraphicImageInstance@@@std@@PAX@std@@@std@@@std@@QAE@AAV?$allocator@U?$_Tree_node@U?$pair@$$CBV?$basic_string@DU?$char_traits@D@std@@V?$allocator@D@2@@std@@PAVCGraphicImageInstance@@@std@@PAX@std@@@1@PAU?$_Tree_node@U?$pair@$$CBV?$basic_string@DU?$char_traits@D@std@@V?$allocator@D@2@@std@@PAVCGraphicImageInstance@@@std@@PAX@1@ABUpiecewise_construct_t@1@$$QAV?$tuple@ABV?$basic_string@DU?$char_traits@D@std@@V?$allocator@D@2@@std@@@1@$$QAV?$tuple@$$V@1@@Z$0
__ehfuncinfo$??$?0ABUpiecewise_construct_t@std@@V?$tuple@ABV?$basic_string@DU?$char_traits@D@std@@V?$allocator@D@2@@std@@@1@V?$tuple@$$V@1@@?$_Tree_temp_node@V?$allocator@U?$_Tree_node@U?$pair@$$CBV?$basic_string@DU?$char_traits@D@std@@V?$allocator@D@2@@std@@PAVCGraphicImageInstance@@@std@@PAX@std@@@std@@@std@@QAE@AAV?$allocator@U?$_Tree_node@U?$pair@$$CBV?$basic_string@DU?$char_traits@D@std@@V?$allocator@D@2@@std@@PAVCGraphicImageInstance@@@std@@PAX@std@@@1@PAU?$_Tree_node@U?$pair@$$CBV?$basic_string@DU?$char_traits@D@std@@V?$allocator@D@2@@std@@PAVCGraphicImageInstance@@@std@@PAX@1@ABUpiecewise_construct_t@1@$$QAV?$tuple@ABV?$basic_string@DU?$char_traits@D@std@@V?$allocator@D@2@@std@@@1@$$QAV?$tuple@$$V@1@@Z DD 019930522H
	DD	02H
	DD	FLAT:__unwindtable$??$?0ABUpiecewise_construct_t@std@@V?$tuple@ABV?$basic_string@DU?$char_traits@D@std@@V?$allocator@D@2@@std@@@1@V?$tuple@$$V@1@@?$_Tree_temp_node@V?$allocator@U?$_Tree_node@U?$pair@$$CBV?$basic_string@DU?$char_traits@D@std@@V?$allocator@D@2@@std@@PAVCGraphicImageInstance@@@std@@PAX@std@@@std@@@std@@QAE@AAV?$allocator@U?$_Tree_node@U?$pair@$$CBV?$basic_string@DU?$char_traits@D@std@@V?$allocator@D@2@@std@@PAVCGraphicImageInstance@@@std@@PAX@std@@@1@PAU?$_Tree_node@U?$pair@$$CBV?$basic_string@DU?$char_traits@D@std@@V?$allocator@D@2@@std@@PAVCGraphicImageInstance@@@std@@PAX@1@ABUpiecewise_construct_t@1@$$QAV?$tuple@ABV?$basic_string@DU?$char_traits@D@std@@V?$allocator@D@2@@std@@@1@$$QAV?$tuple@$$V@1@@Z
	DD	2 DUP(00H)
	DD	2 DUP(00H)
	DD	00H
	DD	01H
xdata$x	ENDS
;	COMDAT xdata$x
xdata$x	SEGMENT
__unwindtable$??0?$_Tree_temp_node_alloc@V?$allocator@U?$_Tree_node@U?$pair@$$CBV?$basic_string@DU?$char_traits@D@std@@V?$allocator@D@2@@std@@PAVCGraphicImageInstance@@@std@@PAX@std@@@std@@@std@@QAE@AAV?$allocator@U?$_Tree_node@U?$pair@$$CBV?$basic_string@DU?$char_traits@D@std@@V?$allocator@D@2@@std@@PAVCGraphicImageInstance@@@std@@PAX@std@@@1@@Z DD 0ffffffffH
	DD	FLAT:__unwindfunclet$??0?$_Tree_temp_node_alloc@V?$allocator@U?$_Tree_node@U?$pair@$$CBV?$basic_string@DU?$char_traits@D@std@@V?$allocator@D@2@@std@@PAVCGraphicImageInstance@@@std@@PAX@std@@@std@@@std@@QAE@AAV?$allocator@U?$_Tree_node@U?$pair@$$CBV?$basic_string@DU?$char_traits@D@std@@V?$allocator@D@2@@std@@PAVCGraphicImageInstance@@@std@@PAX@std@@@1@@Z$0
__ehfuncinfo$??0?$_Tree_temp_node_alloc@V?$allocator@U?$_Tree_node@U?$pair@$$CBV?$basic_string@DU?$char_traits@D@std@@V?$allocator@D@2@@std@@PAVCGraphicImageInstance@@@std@@PAX@std@@@std@@@std@@QAE@AAV?$allocator@U?$_Tree_node@U?$pair@$$CBV?$basic_string@DU?$char_traits@D@std@@V?$allocator@D@2@@std@@PAVCGraphicImageInstance@@@std@@PAX@std@@@1@@Z DD 019930522H
	DD	01H
	DD	FLAT:__unwindtable$??0?$_Tree_temp_node_alloc@V?$allocator@U?$_Tree_node@U?$pair@$$CBV?$basic_string@DU?$char_traits@D@std@@V?$allocator@D@2@@std@@PAVCGraphicImageInstance@@@std@@PAX@std@@@std@@@std@@QAE@AAV?$allocator@U?$_Tree_node@U?$pair@$$CBV?$basic_string@DU?$char_traits@D@std@@V?$allocator@D@2@@std@@PAVCGraphicImageInstance@@@std@@PAX@std@@@1@@Z
	DD	2 DUP(00H)
	DD	2 DUP(00H)
	DD	00H
	DD	01H
xdata$x	ENDS
;	COMDAT xdata$x
xdata$x	SEGMENT
__unwindtable$??$_Emplace@U?$pair@$$CBV?$basic_string@DU?$char_traits@D@std@@V?$allocator@D@2@@std@@PAVCGraphicImageInstance@@@std@@@?$_Tree@V?$_Tmap_traits@V?$basic_string@DU?$char_traits@D@std@@V?$allocator@D@2@@std@@PAVCGraphicImageInstance@@U?$less@V?$basic_string@DU?$char_traits@D@std@@V?$allocator@D@2@@std@@@2@V?$allocator@U?$pair@$$CBV?$basic_string@DU?$char_traits@D@std@@V?$allocator@D@2@@std@@PAVCGraphicImageInstance@@@std@@@2@$0A@@std@@@std@@IAE?AU?$pair@PAU?$_Tree_node@U?$pair@$$CBV?$basic_string@DU?$char_traits@D@std@@V?$allocator@D@2@@std@@PAVCGraphicImageInstance@@@std@@PAX@std@@_N@1@$$QAU?$pair@$$CBV?$basic_string@DU?$char_traits@D@std@@V?$allocator@D@2@@std@@PAVCGraphicImageInstance@@@1@@Z DD 0ffffffffH
	DD	FLAT:__unwindfunclet$??$_Emplace@U?$pair@$$CBV?$basic_string@DU?$char_traits@D@std@@V?$allocator@D@2@@std@@PAVCGraphicImageInstance@@@std@@@?$_Tree@V?$_Tmap_traits@V?$basic_string@DU?$char_traits@D@std@@V?$allocator@D@2@@std@@PAVCGraphicImageInstance@@U?$less@V?$basic_string@DU?$char_traits@D@std@@V?$allocator@D@2@@std@@@2@V?$allocator@U?$pair@$$CBV?$basic_string@DU?$char_traits@D@std@@V?$allocator@D@2@@std@@PAVCGraphicImageInstance@@@std@@@2@$0A@@std@@@std@@IAE?AU?$pair@PAU?$_Tree_node@U?$pair@$$CBV?$basic_string@DU?$char_traits@D@std@@V?$allocator@D@2@@std@@PAVCGraphicImageInstance@@@std@@PAX@std@@_N@1@$$QAU?$pair@$$CBV?$basic_string@DU?$char_traits@D@std@@V?$allocator@D@2@@std@@PAVCGraphicImageInstance@@@1@@Z$2
	DD	0ffffffffH
	DD	FLAT:__unwindfunclet$??$_Emplace@U?$pair@$$CBV?$basic_string@DU?$char_traits@D@std@@V?$allocator@D@2@@std@@PAVCGraphicImageInstance@@@std@@@?$_Tree@V?$_Tmap_traits@V?$basic_string@DU?$char_traits@D@std@@V?$allocator@D@2@@std@@PAVCGraphicImageInstance@@U?$less@V?$basic_string@DU?$char_traits@D@std@@V?$allocator@D@2@@std@@@2@V?$allocator@U?$pair@$$CBV?$basic_string@DU?$char_traits@D@std@@V?$allocator@D@2@@std@@PAVCGraphicImageInstance@@@std@@@2@$0A@@std@@@std@@IAE?AU?$pair@PAU?$_Tree_node@U?$pair@$$CBV?$basic_string@DU?$char_traits@D@std@@V?$allocator@D@2@@std@@PAVCGraphicImageInstance@@@std@@PAX@std@@_N@1@$$QAU?$pair@$$CBV?$basic_string@DU?$char_traits@D@std@@V?$allocator@D@2@@std@@PAVCGraphicImageInstance@@@1@@Z$1
__ehfuncinfo$??$_Emplace@U?$pair@$$CBV?$basic_string@DU?$char_traits@D@std@@V?$allocator@D@2@@std@@PAVCGraphicImageInstance@@@std@@@?$_Tree@V?$_Tmap_traits@V?$basic_string@DU?$char_traits@D@std@@V?$allocator@D@2@@std@@PAVCGraphicImageInstance@@U?$less@V?$basic_string@DU?$char_traits@D@std@@V?$allocator@D@2@@std@@@2@V?$allocator@U?$pair@$$CBV?$basic_string@DU?$char_traits@D@std@@V?$allocator@D@2@@std@@PAVCGraphicImageInstance@@@std@@@2@$0A@@std@@@std@@IAE?AU?$pair@PAU?$_Tree_node@U?$pair@$$CBV?$basic_string@DU?$char_traits@D@std@@V?$allocator@D@2@@std@@PAVCGraphicImageInstance@@@std@@PAX@std@@_N@1@$$QAU?$pair@$$CBV?$basic_string@DU?$char_traits@D@std@@V?$allocator@D@2@@std@@PAVCGraphicImageInstance@@@1@@Z DD 019930522H
	DD	02H
	DD	FLAT:__unwindtable$??$_Emplace@U?$pair@$$CBV?$basic_string@DU?$char_traits@D@std@@V?$allocator@D@2@@std@@PAVCGraphicImageInstance@@@std@@@?$_Tree@V?$_Tmap_traits@V?$basic_string@DU?$char_traits@D@std@@V?$allocator@D@2@@std@@PAVCGraphicImageInstance@@U?$less@V?$basic_string@DU?$char_traits@D@std@@V?$allocator@D@2@@std@@@2@V?$allocator@U?$pair@$$CBV?$basic_string@DU?$char_traits@D@std@@V?$allocator@D@2@@std@@PAVCGraphicImageInstance@@@std@@@2@$0A@@std@@@std@@IAE?AU?$pair@PAU?$_Tree_node@U?$pair@$$CBV?$basic_string@DU?$char_traits@D@std@@V?$allocator@D@2@@std@@PAVCGraphicImageInstance@@@std@@PAX@std@@_N@1@$$QAU?$pair@$$CBV?$basic_string@DU?$char_traits@D@std@@V?$allocator@D@2@@std@@PAVCGraphicImageInstance@@@1@@Z
	DD	2 DUP(00H)
	DD	2 DUP(00H)
	DD	00H
	DD	01H
xdata$x	ENDS
;	COMDAT xdata$x
xdata$x	SEGMENT
__unwindtable$??$_Try_emplace@ABV?$basic_string@DU?$char_traits@D@std@@V?$allocator@D@2@@std@@$$V@?$map@V?$basic_string@DU?$char_traits@D@std@@V?$allocator@D@2@@std@@PAVCGraphicImageInstance@@U?$less@V?$basic_string@DU?$char_traits@D@std@@V?$allocator@D@2@@std@@@2@V?$allocator@U?$pair@$$CBV?$basic_string@DU?$char_traits@D@std@@V?$allocator@D@2@@std@@PAVCGraphicImageInstance@@@std@@@2@@std@@AAE?AU?$pair@PAU?$_Tree_node@U?$pair@$$CBV?$basic_string@DU?$char_traits@D@std@@V?$allocator@D@2@@std@@PAVCGraphicImageInstance@@@std@@PAX@std@@_N@1@ABV?$basic_string@DU?$char_traits@D@std@@V?$allocator@D@2@@1@@Z DD 0ffffffffH
	DD	FLAT:__unwindfunclet$??$_Try_emplace@ABV?$basic_string@DU?$char_traits@D@std@@V?$allocator@D@2@@std@@$$V@?$map@V?$basic_string@DU?$char_traits@D@std@@V?$allocator@D@2@@std@@PAVCGraphicImageInstance@@U?$less@V?$basic_string@DU?$char_traits@D@std@@V?$allocator@D@2@@std@@@2@V?$allocator@U?$pair@$$CBV?$basic_string@DU?$char_traits@D@std@@V?$allocator@D@2@@std@@PAVCGraphicImageInstance@@@std@@@2@@std@@AAE?AU?$pair@PAU?$_Tree_node@U?$pair@$$CBV?$basic_string@DU?$char_traits@D@std@@V?$allocator@D@2@@std@@PAVCGraphicImageInstance@@@std@@PAX@std@@_N@1@ABV?$basic_string@DU?$char_traits@D@std@@V?$allocator@D@2@@1@@Z$2
	DD	0ffffffffH
	DD	FLAT:__unwindfunclet$??$_Try_emplace@ABV?$basic_string@DU?$char_traits@D@std@@V?$allocator@D@2@@std@@$$V@?$map@V?$basic_string@DU?$char_traits@D@std@@V?$allocator@D@2@@std@@PAVCGraphicImageInstance@@U?$less@V?$basic_string@DU?$char_traits@D@std@@V?$allocator@D@2@@std@@@2@V?$allocator@U?$pair@$$CBV?$basic_string@DU?$char_traits@D@std@@V?$allocator@D@2@@std@@PAVCGraphicImageInstance@@@std@@@2@@std@@AAE?AU?$pair@PAU?$_Tree_node@U?$pair@$$CBV?$basic_string@DU?$char_traits@D@std@@V?$allocator@D@2@@std@@PAVCGraphicImageInstance@@@std@@PAX@std@@_N@1@ABV?$basic_string@DU?$char_traits@D@std@@V?$allocator@D@2@@1@@Z$1
__ehfuncinfo$??$_Try_emplace@ABV?$basic_string@DU?$char_traits@D@std@@V?$allocator@D@2@@std@@$$V@?$map@V?$basic_string@DU?$char_traits@D@std@@V?$allocator@D@2@@std@@PAVCGraphicImageInstance@@U?$less@V?$basic_string@DU?$char_traits@D@std@@V?$allocator@D@2@@std@@@2@V?$allocator@U?$pair@$$CBV?$basic_string@DU?$char_traits@D@std@@V?$allocator@D@2@@std@@PAVCGraphicImageInstance@@@std@@@2@@std@@AAE?AU?$pair@PAU?$_Tree_node@U?$pair@$$CBV?$basic_string@DU?$char_traits@D@std@@V?$allocator@D@2@@std@@PAVCGraphicImageInstance@@@std@@PAX@std@@_N@1@ABV?$basic_string@DU?$char_traits@D@std@@V?$allocator@D@2@@1@@Z DD 019930522H
	DD	02H
	DD	FLAT:__unwindtable$??$_Try_emplace@ABV?$basic_string@DU?$char_traits@D@std@@V?$allocator@D@2@@std@@$$V@?$map@V?$basic_string@DU?$char_traits@D@std@@V?$allocator@D@2@@std@@PAVCGraphicImageInstance@@U?$less@V?$basic_string@DU?$char_traits@D@std@@V?$allocator@D@2@@std@@@2@V?$allocator@U?$pair@$$CBV?$basic_string@DU?$char_traits@D@std@@V?$allocator@D@2@@std@@PAVCGraphicImageInstance@@@std@@@2@@std@@AAE?AU?$pair@PAU?$_Tree_node@U?$pair@$$CBV?$basic_string@DU?$char_traits@D@std@@V?$allocator@D@2@@std@@PAVCGraphicImageInstance@@@std@@PAX@std@@_N@1@ABV?$basic_string@DU?$char_traits@D@std@@V?$allocator@D@2@@1@@Z
	DD	2 DUP(00H)
	DD	2 DUP(00H)
	DD	00H
	DD	01H
xdata$x	ENDS
;	COMDAT xdata$x
xdata$x	SEGMENT
__unwindtable$??$insert@$0A@$0A@@?$_Tree@V?$_Tmap_traits@V?$basic_string@DU?$char_traits@D@std@@V?$allocator@D@2@@std@@PAVCGraphicImageInstance@@U?$less@V?$basic_string@DU?$char_traits@D@std@@V?$allocator@D@2@@std@@@2@V?$allocator@U?$pair@$$CBV?$basic_string@DU?$char_traits@D@std@@V?$allocator@D@2@@std@@PAVCGraphicImageInstance@@@std@@@2@$0A@@std@@@std@@QAE?AU?$pair@V?$_Tree_iterator@V?$_Tree_val@U?$_Tree_simple_types@U?$pair@$$CBV?$basic_string@DU?$char_traits@D@std@@V?$allocator@D@2@@std@@PAVCGraphicImageInstance@@@std@@@std@@@std@@@std@@_N@1@$$QAU?$pair@$$CBV?$basic_string@DU?$char_traits@D@std@@V?$allocator@D@2@@std@@PAVCGraphicImageInstance@@@1@@Z DD 0ffffffffH
	DD	FLAT:__unwindfunclet$??$insert@$0A@$0A@@?$_Tree@V?$_Tmap_traits@V?$basic_string@DU?$char_traits@D@std@@V?$allocator@D@2@@std@@PAVCGraphicImageInstance@@U?$less@V?$basic_string@DU?$char_traits@D@std@@V?$allocator@D@2@@std@@@2@V?$allocator@U?$pair@$$CBV?$basic_string@DU?$char_traits@D@std@@V?$allocator@D@2@@std@@PAVCGraphicImageInstance@@@std@@@2@$0A@@std@@@std@@QAE?AU?$pair@V?$_Tree_iterator@V?$_Tree_val@U?$_Tree_simple_types@U?$pair@$$CBV?$basic_string@DU?$char_traits@D@std@@V?$allocator@D@2@@std@@PAVCGraphicImageInstance@@@std@@@std@@@std@@@std@@_N@1@$$QAU?$pair@$$CBV?$basic_string@DU?$char_traits@D@std@@V?$allocator@D@2@@std@@PAVCGraphicImageInstance@@@1@@Z$2
	DD	0ffffffffH
	DD	FLAT:__unwindfunclet$??$insert@$0A@$0A@@?$_Tree@V?$_Tmap_traits@V?$basic_string@DU?$char_traits@D@std@@V?$allocator@D@2@@std@@PAVCGraphicImageInstance@@U?$less@V?$basic_string@DU?$char_traits@D@std@@V?$allocator@D@2@@std@@@2@V?$allocator@U?$pair@$$CBV?$basic_string@DU?$char_traits@D@std@@V?$allocator@D@2@@std@@PAVCGraphicImageInstance@@@std@@@2@$0A@@std@@@std@@QAE?AU?$pair@V?$_Tree_iterator@V?$_Tree_val@U?$_Tree_simple_types@U?$pair@$$CBV?$basic_string@DU?$char_traits@D@std@@V?$allocator@D@2@@std@@PAVCGraphicImageInstance@@@std@@@std@@@std@@@std@@_N@1@$$QAU?$pair@$$CBV?$basic_string@DU?$char_traits@D@std@@V?$allocator@D@2@@std@@PAVCGraphicImageInstance@@@1@@Z$1
__ehfuncinfo$??$insert@$0A@$0A@@?$_Tree@V?$_Tmap_traits@V?$basic_string@DU?$char_traits@D@std@@V?$allocator@D@2@@std@@PAVCGraphicImageInstance@@U?$less@V?$basic_string@DU?$char_traits@D@std@@V?$allocator@D@2@@std@@@2@V?$allocator@U?$pair@$$CBV?$basic_string@DU?$char_traits@D@std@@V?$allocator@D@2@@std@@PAVCGraphicImageInstance@@@std@@@2@$0A@@std@@@std@@QAE?AU?$pair@V?$_Tree_iterator@V?$_Tree_val@U?$_Tree_simple_types@U?$pair@$$CBV?$basic_string@DU?$char_traits@D@std@@V?$allocator@D@2@@std@@PAVCGraphicImageInstance@@@std@@@std@@@std@@@std@@_N@1@$$QAU?$pair@$$CBV?$basic_string@DU?$char_traits@D@std@@V?$allocator@D@2@@std@@PAVCGraphicImageInstance@@@1@@Z DD 019930522H
	DD	02H
	DD	FLAT:__unwindtable$??$insert@$0A@$0A@@?$_Tree@V?$_Tmap_traits@V?$basic_string@DU?$char_traits@D@std@@V?$allocator@D@2@@std@@PAVCGraphicImageInstance@@U?$less@V?$basic_string@DU?$char_traits@D@std@@V?$allocator@D@2@@std@@@2@V?$allocator@U?$pair@$$CBV?$basic_string@DU?$char_traits@D@std@@V?$allocator@D@2@@std@@PAVCGraphicImageInstance@@@std@@@2@$0A@@std@@@std@@QAE?AU?$pair@V?$_Tree_iterator@V?$_Tree_val@U?$_Tree_simple_types@U?$pair@$$CBV?$basic_string@DU?$char_traits@D@std@@V?$allocator@D@2@@std@@PAVCGraphicImageInstance@@@std@@@std@@@std@@@std@@_N@1@$$QAU?$pair@$$CBV?$basic_string@DU?$char_traits@D@std@@V?$allocator@D@2@@std@@PAVCGraphicImageInstance@@@1@@Z
	DD	2 DUP(00H)
	DD	2 DUP(00H)
	DD	00H
	DD	01H
xdata$x	ENDS
;	COMDAT xdata$x
xdata$x	SEGMENT
__unwindtable$?SetCloudTexture@CSkyBox@@QAEXPBD@Z DD 0ffffffffH
	DD	FLAT:__unwindfunclet$?SetCloudTexture@CSkyBox@@QAEXPBD@Z$1
__ehfuncinfo$?SetCloudTexture@CSkyBox@@QAEXPBD@Z DD 019930522H
	DD	01H
	DD	FLAT:__unwindtable$?SetCloudTexture@CSkyBox@@QAEXPBD@Z
	DD	2 DUP(00H)
	DD	2 DUP(00H)
	DD	00H
	DD	01H
xdata$x	ENDS
;	COMDAT xdata$x
xdata$x	SEGMENT
__unwindtable$?SetFaceTexture@CSkyBox@@QAEXPBDH@Z DD 0ffffffffH
	DD	FLAT:__unwindfunclet$?SetFaceTexture@CSkyBox@@QAEXPBDH@Z$1
__ehfuncinfo$?SetFaceTexture@CSkyBox@@QAEXPBDH@Z DD 019930522H
	DD	01H
	DD	FLAT:__unwindtable$?SetFaceTexture@CSkyBox@@QAEXPBDH@Z
	DD	2 DUP(00H)
	DD	2 DUP(00H)
	DD	00H
	DD	01H
xdata$x	ENDS
;	COMDAT xdata$x
xdata$x	SEGMENT
__unwindtable$?Render@CSkyBox@@UAEXXZ DD 0ffffffffH
	DD	FLAT:__unwindfunclet$?Render@CSkyBox@@UAEXXZ$2
	DD	0ffffffffH
	DD	FLAT:__unwindfunclet$?Render@CSkyBox@@UAEXXZ$1
__ehfuncinfo$?Render@CSkyBox@@UAEXXZ DD 019930522H
	DD	02H
	DD	FLAT:__unwindtable$?Render@CSkyBox@@UAEXXZ
	DD	2 DUP(00H)
	DD	2 DUP(00H)
	DD	00H
	DD	01H
xdata$x	ENDS
;	COMDAT xdata$x
xdata$x	SEGMENT
__ehfuncinfo$??1CSkyBox@@UAE@XZ DD 019930522H
	DD	00H
	DD	00H
	DD	2 DUP(00H)
	DD	2 DUP(00H)
	DD	00H
	DD	05H
xdata$x	ENDS
;	COMDAT xdata$x
xdata$x	SEGMENT
__unwindtable$??0CSkyBox@@QAE@XZ DD 0ffffffffH
	DD	FLAT:__unwindfunclet$??0CSkyBox@@QAE@XZ$0
__ehfuncinfo$??0CSkyBox@@QAE@XZ DD 019930522H
	DD	01H
	DD	FLAT:__unwindtable$??0CSkyBox@@QAE@XZ
	DD	2 DUP(00H)
	DD	2 DUP(00H)
	DD	00H
	DD	01H
xdata$x	ENDS
;	COMDAT xdata$x
xdata$x	SEGMENT
__unwindtable$??A?$map@V?$basic_string@DU?$char_traits@D@std@@V?$allocator@D@2@@std@@PAVCGraphicImageInstance@@U?$less@V?$basic_string@DU?$char_traits@D@std@@V?$allocator@D@2@@std@@@2@V?$allocator@U?$pair@$$CBV?$basic_string@DU?$char_traits@D@std@@V?$allocator@D@2@@std@@PAVCGraphicImageInstance@@@std@@@2@@std@@QAEAAPAVCGraphicImageInstance@@ABV?$basic_string@DU?$char_traits@D@std@@V?$allocator@D@2@@1@@Z DD 0ffffffffH
	DD	FLAT:__unwindfunclet$??A?$map@V?$basic_string@DU?$char_traits@D@std@@V?$allocator@D@2@@std@@PAVCGraphicImageInstance@@U?$less@V?$basic_string@DU?$char_traits@D@std@@V?$allocator@D@2@@std@@@2@V?$allocator@U?$pair@$$CBV?$basic_string@DU?$char_traits@D@std@@V?$allocator@D@2@@std@@PAVCGraphicImageInstance@@@std@@@2@@std@@QAEAAPAVCGraphicImageInstance@@ABV?$basic_string@DU?$char_traits@D@std@@V?$allocator@D@2@@1@@Z$2
	DD	0ffffffffH
	DD	FLAT:__unwindfunclet$??A?$map@V?$basic_string@DU?$char_traits@D@std@@V?$allocator@D@2@@std@@PAVCGraphicImageInstance@@U?$less@V?$basic_string@DU?$char_traits@D@std@@V?$allocator@D@2@@std@@@2@V?$allocator@U?$pair@$$CBV?$basic_string@DU?$char_traits@D@std@@V?$allocator@D@2@@std@@PAVCGraphicImageInstance@@@std@@@2@@std@@QAEAAPAVCGraphicImageInstance@@ABV?$basic_string@DU?$char_traits@D@std@@V?$allocator@D@2@@1@@Z$1
__ehfuncinfo$??A?$map@V?$basic_string@DU?$char_traits@D@std@@V?$allocator@D@2@@std@@PAVCGraphicImageInstance@@U?$less@V?$basic_string@DU?$char_traits@D@std@@V?$allocator@D@2@@std@@@2@V?$allocator@U?$pair@$$CBV?$basic_string@DU?$char_traits@D@std@@V?$allocator@D@2@@std@@PAVCGraphicImageInstance@@@std@@@2@@std@@QAEAAPAVCGraphicImageInstance@@ABV?$basic_string@DU?$char_traits@D@std@@V?$allocator@D@2@@1@@Z DD 019930522H
	DD	02H
	DD	FLAT:__unwindtable$??A?$map@V?$basic_string@DU?$char_traits@D@std@@V?$allocator@D@2@@std@@PAVCGraphicImageInstance@@U?$less@V?$basic_string@DU?$char_traits@D@std@@V?$allocator@D@2@@std@@@2@V?$allocator@U?$pair@$$CBV?$basic_string@DU?$char_traits@D@std@@V?$allocator@D@2@@std@@PAVCGraphicImageInstance@@@std@@@2@@std@@QAEAAPAVCGraphicImageInstance@@ABV?$basic_string@DU?$char_traits@D@std@@V?$allocator@D@2@@1@@Z
	DD	2 DUP(00H)
	DD	2 DUP(00H)
	DD	00H
	DD	01H
xdata$x	ENDS
;	COMDAT xdata$x
xdata$x	SEGMENT
__ehfuncinfo$??0CSkyObject@@QAE@XZ DD 019930522H
	DD	05H
	DD	FLAT:__unwindtable$??0CSkyObject@@QAE@XZ
	DD	2 DUP(00H)
	DD	2 DUP(00H)
	DD	00H
	DD	01H
__unwindtable$??0CSkyObject@@QAE@XZ DD 0ffffffffH
	DD	FLAT:__unwindfunclet$??0CSkyObject@@QAE@XZ$0
	DD	00H
	DD	FLAT:__unwindfunclet$??0CSkyObject@@QAE@XZ$1
	DD	01H
	DD	FLAT:__unwindfunclet$??0CSkyObject@@QAE@XZ$2
	DD	02H
	DD	FLAT:__unwindfunclet$??0CSkyObject@@QAE@XZ$3
	DD	03H
	DD	FLAT:__unwindfunclet$??0CSkyObject@@QAE@XZ$4
xdata$x	ENDS
;	COMDAT xdata$x
xdata$x	SEGMENT
__ehfuncinfo$??1CSkyObjectQuad@@UAE@XZ DD 019930522H
	DD	00H
	DD	00H
	DD	2 DUP(00H)
	DD	2 DUP(00H)
	DD	00H
	DD	05H
xdata$x	ENDS
; Function compile flags: /Ogtp
; File C:\Program Files (x86)\Microsoft Visual Studio\2019\Community\VC\Tools\MSVC\14.27.29110\include\tuple
;	COMDAT ??$?0V?$tuple@ABV?$basic_string@DU?$char_traits@D@std@@V?$allocator@D@2@@std@@@std@@V?$tuple@$$V@1@$0A@$$Z$S@?$pair@$$CBV?$basic_string@DU?$char_traits@D@std@@V?$allocator@D@2@@std@@PAVCGraphicImageInstance@@@std@@QAE@AAV?$tuple@ABV?$basic_string@DU?$char_traits@D@std@@V?$allocator@D@2@@std@@@1@AAV?$tuple@$$V@1@U?$integer_sequence@I$0A@@1@U?$integer_sequence@I$S@1@@Z
_TEXT	SEGMENT
_this$ = -4						; size = 4
__Val1$ = 8						; size = 4
__Val2$ = 12						; size = 4
___formal$ = 16						; size = 1
___formal$ = 20						; size = 1
??$?0V?$tuple@ABV?$basic_string@DU?$char_traits@D@std@@V?$allocator@D@2@@std@@@std@@V?$tuple@$$V@1@$0A@$$Z$S@?$pair@$$CBV?$basic_string@DU?$char_traits@D@std@@V?$allocator@D@2@@std@@PAVCGraphicImageInstance@@@std@@QAE@AAV?$tuple@ABV?$basic_string@DU?$char_traits@D@std@@V?$allocator@D@2@@std@@@1@AAV?$tuple@$$V@1@U?$integer_sequence@I$0A@@1@U?$integer_sequence@I$S@1@@Z PROC ; std::pair<std::basic_string<char,std::char_traits<char>,std::allocator<char> > const ,CGraphicImageInstance *>::pair<std::basic_string<char,std::char_traits<char>,std::allocator<char> > const ,CGraphicImageInstance *><std::tuple<std::basic_string<char,std::char_traits<char>,std::allocator<char> > const &>,std::tuple<>,0>, COMDAT
; _this$ = ecx

; 975  :     : first(_STD get<_Indexes1>(_STD move(_Val1))...), second(_STD get<_Indexes2>(_STD move(_Val2))...) {}

  00000	55		 push	 ebp
  00001	8b ec		 mov	 ebp, esp
  00003	51		 push	 ecx
  00004	8b 45 08	 mov	 eax, DWORD PTR __Val1$[ebp]
  00007	56		 push	 esi
  00008	8b f1		 mov	 esi, ecx
  0000a	89 75 fc	 mov	 DWORD PTR _this$[ebp], esi
  0000d	ff 30		 push	 DWORD PTR [eax]
  0000f	e8 00 00 00 00	 call	 ??0?$basic_string@DU?$char_traits@D@std@@V?$allocator@D@2@@std@@QAE@ABV01@@Z ; std::basic_string<char,std::char_traits<char>,std::allocator<char> >::basic_string<char,std::char_traits<char>,std::allocator<char> >
  00014	c7 46 18 00 00
	00 00		 mov	 DWORD PTR [esi+24], 0
  0001b	8b c6		 mov	 eax, esi
  0001d	5e		 pop	 esi
  0001e	8b e5		 mov	 esp, ebp
  00020	5d		 pop	 ebp
  00021	c2 10 00	 ret	 16			; 00000010H
??$?0V?$tuple@ABV?$basic_string@DU?$char_traits@D@std@@V?$allocator@D@2@@std@@@std@@V?$tuple@$$V@1@$0A@$$Z$S@?$pair@$$CBV?$basic_string@DU?$char_traits@D@std@@V?$allocator@D@2@@std@@PAVCGraphicImageInstance@@@std@@QAE@AAV?$tuple@ABV?$basic_string@DU?$char_traits@D@std@@V?$allocator@D@2@@std@@@1@AAV?$tuple@$$V@1@U?$integer_sequence@I$0A@@1@U?$integer_sequence@I$S@1@@Z ENDP ; std::pair<std::basic_string<char,std::char_traits<char>,std::allocator<char> > const ,CGraphicImageInstance *>::pair<std::basic_string<char,std::char_traits<char>,std::allocator<char> > const ,CGraphicImageInstance *><std::tuple<std::basic_string<char,std::char_traits<char>,std::allocator<char> > const &>,std::tuple<>,0>
_TEXT	ENDS
; Function compile flags: /Ogtp
; File C:\Program Files (x86)\Microsoft Visual Studio\2019\Community\VC\Tools\MSVC\14.27.29110\include\tuple
;	COMDAT ??$?0ABV?$basic_string@DU?$char_traits@D@std@@V?$allocator@D@2@@std@@$$Z$$V@?$pair@$$CBV?$basic_string@DU?$char_traits@D@std@@V?$allocator@D@2@@std@@PAVCGraphicImageInstance@@@std@@QAE@Upiecewise_construct_t@1@V?$tuple@ABV?$basic_string@DU?$char_traits@D@std@@V?$allocator@D@2@@std@@@1@V?$tuple@$$V@1@@Z
_TEXT	SEGMENT
$T1 = -8						; size = 1
_this$ = -8						; size = 4
$T2 = -4						; size = 1
___formal$ = 8						; size = 1
__Val1$ = 12						; size = 4
__Val2$ = 16						; size = 1
??$?0ABV?$basic_string@DU?$char_traits@D@std@@V?$allocator@D@2@@std@@$$Z$$V@?$pair@$$CBV?$basic_string@DU?$char_traits@D@std@@V?$allocator@D@2@@std@@PAVCGraphicImageInstance@@@std@@QAE@Upiecewise_construct_t@1@V?$tuple@ABV?$basic_string@DU?$char_traits@D@std@@V?$allocator@D@2@@std@@@1@V?$tuple@$$V@1@@Z PROC ; std::pair<std::basic_string<char,std::char_traits<char>,std::allocator<char> > const ,CGraphicImageInstance *>::pair<std::basic_string<char,std::char_traits<char>,std::allocator<char> > const ,CGraphicImageInstance *><std::basic_string<char,std::char_traits<char>,std::allocator<char> > const &>, COMDAT
; _this$ = ecx

; 981  :     : pair(_Val1, _Val2, index_sequence_for<_Types1...>{}, index_sequence_for<_Types2...>{}) {}

  00000	55		 push	 ebp
  00001	8b ec		 mov	 ebp, esp
  00003	83 ec 08	 sub	 esp, 8
  00006	56		 push	 esi
  00007	8b f1		 mov	 esi, ecx
  00009	8d 45 10	 lea	 eax, DWORD PTR __Val2$[ebp]
  0000c	89 75 f8	 mov	 DWORD PTR _this$[ebp], esi
  0000f	c6 45 fc 00	 mov	 BYTE PTR $T2[ebp], 0
  00013	ff 75 fc	 push	 DWORD PTR $T2[ebp]
  00016	c6 45 f8 00	 mov	 BYTE PTR $T1[ebp], 0
  0001a	ff 75 f8	 push	 DWORD PTR $T1[ebp]
  0001d	50		 push	 eax
  0001e	8d 45 0c	 lea	 eax, DWORD PTR __Val1$[ebp]
  00021	50		 push	 eax
  00022	e8 00 00 00 00	 call	 ??$?0V?$tuple@ABV?$basic_string@DU?$char_traits@D@std@@V?$allocator@D@2@@std@@@std@@V?$tuple@$$V@1@$0A@$$Z$S@?$pair@$$CBV?$basic_string@DU?$char_traits@D@std@@V?$allocator@D@2@@std@@PAVCGraphicImageInstance@@@std@@QAE@AAV?$tuple@ABV?$basic_string@DU?$char_traits@D@std@@V?$allocator@D@2@@std@@@1@AAV?$tuple@$$V@1@U?$integer_sequence@I$0A@@1@U?$integer_sequence@I$S@1@@Z ; std::pair<std::basic_string<char,std::char_traits<char>,std::allocator<char> > const ,CGraphicImageInstance *>::pair<std::basic_string<char,std::char_traits<char>,std::allocator<char> > const ,CGraphicImageInstance *><std::tuple<std::basic_string<char,std::char_traits<char>,std::allocator<char> > const &>,std::tuple<>,0>
  00027	8b c6		 mov	 eax, esi
  00029	5e		 pop	 esi
  0002a	8b e5		 mov	 esp, ebp
  0002c	5d		 pop	 ebp
  0002d	c2 0c 00	 ret	 12			; 0000000cH
??$?0ABV?$basic_string@DU?$char_traits@D@std@@V?$allocator@D@2@@std@@$$Z$$V@?$pair@$$CBV?$basic_string@DU?$char_traits@D@std@@V?$allocator@D@2@@std@@PAVCGraphicImageInstance@@@std@@QAE@Upiecewise_construct_t@1@V?$tuple@ABV?$basic_string@DU?$char_traits@D@std@@V?$allocator@D@2@@std@@@1@V?$tuple@$$V@1@@Z ENDP ; std::pair<std::basic_string<char,std::char_traits<char>,std::allocator<char> > const ,CGraphicImageInstance *>::pair<std::basic_string<char,std::char_traits<char>,std::allocator<char> > const ,CGraphicImageInstance *><std::basic_string<char,std::char_traits<char>,std::allocator<char> > const &>
_TEXT	ENDS
; Function compile flags: /Ogtp
; File C:\Program Files (x86)\Microsoft Visual Studio\2019\Community\VC\Tools\MSVC\14.27.29110\include\xmemory
;	COMDAT ??$_Uninitialized_move@PAVCSkyObjectQuad@@V?$allocator@VCSkyObjectQuad@@@std@@@std@@YAPAVCSkyObjectQuad@@QAV1@0PAV1@AAV?$allocator@VCSkyObjectQuad@@@0@@Z
_TEXT	SEGMENT
__First$ = 8						; size = 4
__Last$ = 12						; size = 4
tv409 = 16						; size = 4
__Dest$ = 16						; size = 4
__Al$ = 20						; size = 4
??$_Uninitialized_move@PAVCSkyObjectQuad@@V?$allocator@VCSkyObjectQuad@@@std@@@std@@YAPAVCSkyObjectQuad@@QAV1@0PAV1@AAV?$allocator@VCSkyObjectQuad@@@0@@Z PROC ; std::_Uninitialized_move<CSkyObjectQuad *,std::allocator<CSkyObjectQuad> >, COMDAT

; 1647 :     const _InIt _First, const _InIt _Last, _Alloc_ptr_t<_Alloc> _Dest, _Alloc& _Al) {

  00000	55		 push	 ebp
  00001	8b ec		 mov	 ebp, esp

; 1648 :     // move [_First, _Last) to raw _Dest, using _Al
; 1649 :     // note: only called internally from elsewhere in the STL
; 1650 :     using _Ptrval     = typename _Alloc::value_type*;
; 1651 :     auto _UFirst      = _Get_unwrapped(_First);
; 1652 :     const auto _ULast = _Get_unwrapped(_Last);
; 1653 :     if constexpr (conjunction_v<bool_constant<_Ptr_move_cat<decltype(_UFirst), _Ptrval>::_Really_trivial>,
; 1654 :                       _Uses_default_construct<_Alloc, _Ptrval, decltype(_STD move(*_UFirst))>>) {
; 1655 :         _Copy_memmove(_UFirst, _ULast, _Unfancy(_Dest));
; 1656 :         return _Dest + (_ULast - _UFirst);
; 1657 :     } else {
; 1658 :         _Uninitialized_backout_al<_Alloc> _Backout{_Dest, _Al};
; 1659 :         for (; _UFirst != _ULast; ++_UFirst) {

  00003	8b 4d 08	 mov	 ecx, DWORD PTR __First$[ebp]
  00006	53		 push	 ebx

; 1497 :     _Uninitialized_backout_al(pointer _Dest, _Alloc& _Al_) : _First(_Dest), _Last(_Dest), _Al(_Al_) {}

  00007	8b 5d 10	 mov	 ebx, DWORD PTR __Dest$[ebp]

; 1648 :     // move [_First, _Last) to raw _Dest, using _Al
; 1649 :     // note: only called internally from elsewhere in the STL
; 1650 :     using _Ptrval     = typename _Alloc::value_type*;
; 1651 :     auto _UFirst      = _Get_unwrapped(_First);
; 1652 :     const auto _ULast = _Get_unwrapped(_Last);
; 1653 :     if constexpr (conjunction_v<bool_constant<_Ptr_move_cat<decltype(_UFirst), _Ptrval>::_Really_trivial>,
; 1654 :                       _Uses_default_construct<_Alloc, _Ptrval, decltype(_STD move(*_UFirst))>>) {
; 1655 :         _Copy_memmove(_UFirst, _ULast, _Unfancy(_Dest));
; 1656 :         return _Dest + (_ULast - _UFirst);
; 1657 :     } else {
; 1658 :         _Uninitialized_backout_al<_Alloc> _Backout{_Dest, _Al};
; 1659 :         for (; _UFirst != _ULast; ++_UFirst) {

  0000a	3b 4d 0c	 cmp	 ecx, DWORD PTR __Last$[ebp]
  0000d	74 7e		 je	 SHORT $LN3@Uninitiali

; 1497 :     _Uninitialized_backout_al(pointer _Dest, _Alloc& _Al_) : _First(_Dest), _Last(_Dest), _Al(_Al_) {}

  0000f	56		 push	 esi
  00010	8b f3		 mov	 esi, ebx
  00012	8d 53 6c	 lea	 edx, DWORD PTR [ebx+108]
  00015	2b f1		 sub	 esi, ecx
  00017	8d 41 64	 lea	 eax, DWORD PTR [ecx+100]
  0001a	57		 push	 edi
  0001b	89 75 10	 mov	 DWORD PTR tv409[ebp], esi
  0001e	66 90		 npad	 2
$LL4@Uninitiali:
  00020	c7 03 00 00 00
	00		 mov	 DWORD PTR [ebx], OFFSET ??_7CSkyObjectQuad@@6B@
  00026	8b fa		 mov	 edi, edx
  00028	0f 10 40 a0	 movups	 xmm0, XMMWORD PTR [eax-96]

; 1509 :         ++_Last;

  0002c	81 c3 2c 01 00
	00		 add	 ebx, 300		; 0000012cH
  00032	0f 11 42 98	 movups	 XMMWORD PTR [edx-104], xmm0
  00036	0f 10 40 b0	 movups	 xmm0, XMMWORD PTR [eax-80]
  0003a	0f 11 42 a8	 movups	 XMMWORD PTR [edx-88], xmm0
  0003e	0f 10 40 c0	 movups	 xmm0, XMMWORD PTR [eax-64]
  00042	0f 11 42 b8	 movups	 XMMWORD PTR [edx-72], xmm0
  00046	0f 10 40 d0	 movups	 xmm0, XMMWORD PTR [eax-48]
  0004a	0f 11 42 c8	 movups	 XMMWORD PTR [edx-56], xmm0
  0004e	0f 10 40 e0	 movups	 xmm0, XMMWORD PTR [eax-32]
  00052	0f 11 42 d8	 movups	 XMMWORD PTR [edx-40], xmm0
  00056	0f 10 40 f0	 movups	 xmm0, XMMWORD PTR [eax-16]
  0005a	0f 11 42 e8	 movups	 XMMWORD PTR [edx-24], xmm0
  0005e	8b 08		 mov	 ecx, DWORD PTR [eax]
  00060	81 c2 2c 01 00
	00		 add	 edx, 300		; 0000012cH
  00066	89 0c 06	 mov	 DWORD PTR [esi+eax], ecx
  00069	8b 48 04	 mov	 ecx, DWORD PTR [eax+4]
  0006c	89 4c 06 04	 mov	 DWORD PTR [esi+eax+4], ecx
  00070	8d 70 08	 lea	 esi, DWORD PTR [eax+8]
  00073	b9 30 00 00 00	 mov	 ecx, 48			; 00000030H
  00078	8d 80 2c 01 00
	00		 lea	 eax, DWORD PTR [eax+300]
  0007e	f3 a5		 rep movsd

; 1648 :     // move [_First, _Last) to raw _Dest, using _Al
; 1649 :     // note: only called internally from elsewhere in the STL
; 1650 :     using _Ptrval     = typename _Alloc::value_type*;
; 1651 :     auto _UFirst      = _Get_unwrapped(_First);
; 1652 :     const auto _ULast = _Get_unwrapped(_Last);
; 1653 :     if constexpr (conjunction_v<bool_constant<_Ptr_move_cat<decltype(_UFirst), _Ptrval>::_Really_trivial>,
; 1654 :                       _Uses_default_construct<_Alloc, _Ptrval, decltype(_STD move(*_UFirst))>>) {
; 1655 :         _Copy_memmove(_UFirst, _ULast, _Unfancy(_Dest));
; 1656 :         return _Dest + (_ULast - _UFirst);
; 1657 :     } else {
; 1658 :         _Uninitialized_backout_al<_Alloc> _Backout{_Dest, _Al};
; 1659 :         for (; _UFirst != _ULast; ++_UFirst) {

  00080	8b 75 10	 mov	 esi, DWORD PTR tv409[ebp]
  00083	8d 48 9c	 lea	 ecx, DWORD PTR [eax-100]
  00086	3b 4d 0c	 cmp	 ecx, DWORD PTR __Last$[ebp]
  00089	75 95		 jne	 SHORT $LL4@Uninitiali
  0008b	5f		 pop	 edi
  0008c	5e		 pop	 esi
$LN3@Uninitiali:

; 1503 :         _Destroy_range(_First, _Last, _Al);

  0008d	ff 75 14	 push	 DWORD PTR __Al$[ebp]
  00090	53		 push	 ebx
  00091	53		 push	 ebx
  00092	e8 00 00 00 00	 call	 ??$_Destroy_range@V?$allocator@VCSkyObjectQuad@@@std@@@std@@YAXPAVCSkyObjectQuad@@QAV1@AAV?$allocator@VCSkyObjectQuad@@@0@@Z ; std::_Destroy_range<std::allocator<CSkyObjectQuad> >
  00097	83 c4 0c	 add	 esp, 12			; 0000000cH

; 1660 :             _Backout._Emplace_back(_STD move(*_UFirst));
; 1661 :         }
; 1662 : 
; 1663 :         return _Backout._Release();

  0009a	8b c3		 mov	 eax, ebx
  0009c	5b		 pop	 ebx

; 1664 :     }
; 1665 : }

  0009d	5d		 pop	 ebp
  0009e	c3		 ret	 0
??$_Uninitialized_move@PAVCSkyObjectQuad@@V?$allocator@VCSkyObjectQuad@@@std@@@std@@YAPAVCSkyObjectQuad@@QAV1@0PAV1@AAV?$allocator@VCSkyObjectQuad@@@0@@Z ENDP ; std::_Uninitialized_move<CSkyObjectQuad *,std::allocator<CSkyObjectQuad> >
_TEXT	ENDS
; Function compile flags: /Ogtp
; File C:\Program Files (x86)\Microsoft Visual Studio\2019\Community\VC\Tools\MSVC\14.27.29110\include\xstring
; File C:\Program Files (x86)\Microsoft Visual Studio\2019\Community\VC\Tools\MSVC\14.27.29110\include\utility
; File C:\Program Files (x86)\Microsoft Visual Studio\2019\Community\VC\Tools\MSVC\14.27.29110\include\xstring
; File C:\Program Files (x86)\Microsoft Visual Studio\2019\Community\VC\Tools\MSVC\14.27.29110\include\utility
; File C:\Program Files (x86)\Microsoft Visual Studio\2019\Community\VC\Tools\MSVC\14.27.29110\include\xstring
;	COMDAT ??$?MDU?$char_traits@D@std@@V?$allocator@D@1@@std@@YA_NABV?$basic_string@DU?$char_traits@D@std@@V?$allocator@D@2@@0@0@Z
_TEXT	SEGMENT
__Left$ = 8						; size = 4
__Right$ = 12						; size = 4
??$?MDU?$char_traits@D@std@@V?$allocator@D@1@@std@@YA_NABV?$basic_string@DU?$char_traits@D@std@@V?$allocator@D@2@@0@0@Z PROC ; std::operator<<char,std::char_traits<char>,std::allocator<char> >, COMDAT

; 4502 :     const basic_string<_Elem, _Traits, _Alloc>& _Left, const basic_string<_Elem, _Traits, _Alloc>& _Right) noexcept {

  00000	55		 push	 ebp
  00001	8b ec		 mov	 ebp, esp

; 2144 :         const value_type* _Result = _Bx._Buf;

  00003	8b 45 0c	 mov	 eax, DWORD PTR __Right$[ebp]
  00006	8b c8		 mov	 ecx, eax

; 2153 :         return _BUF_SIZE <= _Myres;

  00008	83 78 14 10	 cmp	 DWORD PTR [eax+20], 16	; 00000010H

; 2145 :         if (_Large_string_engaged()) {

  0000c	72 02		 jb	 SHORT $LN6@operator

; 2146 :             _Result = _Unfancy(_Bx._Ptr);

  0000e	8b 08		 mov	 ecx, DWORD PTR [eax]
$LN6@operator:
  00010	53		 push	 ebx
  00011	56		 push	 esi

; 2144 :         const value_type* _Result = _Bx._Buf;

  00012	8b 75 08	 mov	 esi, DWORD PTR __Left$[ebp]
  00015	8b d6		 mov	 edx, esi
  00017	57		 push	 edi

; 2153 :         return _BUF_SIZE <= _Myres;

  00018	83 7e 14 10	 cmp	 DWORD PTR [esi+20], 16	; 00000010H

; 2145 :         if (_Large_string_engaged()) {

  0001c	72 02		 jb	 SHORT $LN11@operator

; 2146 :             _Result = _Unfancy(_Bx._Ptr);

  0001e	8b 16		 mov	 edx, DWORD PTR [esi]
$LN11@operator:

; 4129 :         return _Traits_compare<_Traits>(_Mypair._Myval2._Myptr(), _Mypair._Myval2._Mysize,

  00020	8b 5e 10	 mov	 ebx, DWORD PTR [esi+16]
; File C:\Program Files (x86)\Microsoft Visual Studio\2019\Community\VC\Tools\MSVC\14.27.29110\include\utility

; 69   :     return _Right < _Left ? _Right : _Left;

  00023	8b f3		 mov	 esi, ebx
; File C:\Program Files (x86)\Microsoft Visual Studio\2019\Community\VC\Tools\MSVC\14.27.29110\include\xstring

; 4129 :         return _Traits_compare<_Traits>(_Mypair._Myval2._Myptr(), _Mypair._Myval2._Mysize,

  00025	8b 78 10	 mov	 edi, DWORD PTR [eax+16]
; File C:\Program Files (x86)\Microsoft Visual Studio\2019\Community\VC\Tools\MSVC\14.27.29110\include\utility

; 69   :     return _Right < _Left ? _Right : _Left;

  00028	3b fb		 cmp	 edi, ebx
  0002a	0f 42 f7	 cmovb	 esi, edi
; File C:\Program Files (x86)\Microsoft Visual Studio\2019\Community\VC\Tools\MSVC\14.27.29110\include\xstring

; 301  :         return _CSTD memcmp(_First1, _First2, _Count);

  0002d	83 ee 04	 sub	 esi, 4
  00030	72 11		 jb	 SHORT $LN26@operator
$LL27@operator:
  00032	8b 02		 mov	 eax, DWORD PTR [edx]
  00034	3b 01		 cmp	 eax, DWORD PTR [ecx]
  00036	75 10		 jne	 SHORT $LN25@operator
  00038	83 c2 04	 add	 edx, 4
  0003b	83 c1 04	 add	 ecx, 4
  0003e	83 ee 04	 sub	 esi, 4
  00041	73 ef		 jae	 SHORT $LL27@operator
$LN26@operator:
  00043	83 fe fc	 cmp	 esi, -4			; fffffffcH
  00046	74 34		 je	 SHORT $LN24@operator
$LN25@operator:
  00048	8a 02		 mov	 al, BYTE PTR [edx]
  0004a	3a 01		 cmp	 al, BYTE PTR [ecx]
  0004c	75 27		 jne	 SHORT $LN28@operator
  0004e	83 fe fd	 cmp	 esi, -3			; fffffffdH
  00051	74 29		 je	 SHORT $LN24@operator
  00053	8a 42 01	 mov	 al, BYTE PTR [edx+1]
  00056	3a 41 01	 cmp	 al, BYTE PTR [ecx+1]
  00059	75 1a		 jne	 SHORT $LN28@operator
  0005b	83 fe fe	 cmp	 esi, -2			; fffffffeH
  0005e	74 1c		 je	 SHORT $LN24@operator
  00060	8a 42 02	 mov	 al, BYTE PTR [edx+2]
  00063	3a 41 02	 cmp	 al, BYTE PTR [ecx+2]
  00066	75 0d		 jne	 SHORT $LN28@operator
  00068	83 fe ff	 cmp	 esi, -1
  0006b	74 0f		 je	 SHORT $LN24@operator
  0006d	8a 42 03	 mov	 al, BYTE PTR [edx+3]
  00070	3a 41 03	 cmp	 al, BYTE PTR [ecx+3]
  00073	74 07		 je	 SHORT $LN24@operator
$LN28@operator:
  00075	1b c0		 sbb	 eax, eax
  00077	83 c8 01	 or	 eax, 1
  0007a	eb 02		 jmp	 SHORT $LN29@operator
$LN24@operator:
  0007c	33 c0		 xor	 eax, eax
$LN29@operator:

; 513  :     if (_Ans != 0) {

  0007e	85 c0		 test	 eax, eax
  00080	75 13		 jne	 SHORT $LN18@operator

; 514  :         return _Ans;
; 515  :     }
; 516  : 
; 517  :     if (_Left_size < _Right_size) {

  00082	3b fb		 cmp	 edi, ebx
  00084	76 0b		 jbe	 SHORT $LN30@operator

; 4503 :     return _Left.compare(_Right) < 0;

  00086	5f		 pop	 edi

; 518  :         return -1;

  00087	83 c8 ff	 or	 eax, -1

; 4503 :     return _Left.compare(_Right) < 0;

  0008a	5e		 pop	 esi
  0008b	c1 e8 1f	 shr	 eax, 31			; 0000001fH
  0008e	5b		 pop	 ebx

; 4504 : }

  0008f	5d		 pop	 ebp
  00090	c3		 ret	 0
$LN30@operator:

; 521  :     if (_Left_size > _Right_size) {

  00091	1b c0		 sbb	 eax, eax
  00093	f7 d8		 neg	 eax
$LN18@operator:

; 4503 :     return _Left.compare(_Right) < 0;

  00095	5f		 pop	 edi
  00096	5e		 pop	 esi
  00097	c1 e8 1f	 shr	 eax, 31			; 0000001fH
  0009a	5b		 pop	 ebx

; 4504 : }

  0009b	5d		 pop	 ebp
  0009c	c3		 ret	 0
??$?MDU?$char_traits@D@std@@V?$allocator@D@1@@std@@YA_NABV?$basic_string@DU?$char_traits@D@std@@V?$allocator@D@2@@0@0@Z ENDP ; std::operator<<char,std::char_traits<char>,std::allocator<char> >
_TEXT	ENDS
; Function compile flags: /Ogtp
; File C:\Program Files (x86)\Microsoft Visual Studio\2019\Community\VC\Tools\MSVC\14.27.29110\include\xmemory
;	COMDAT ??1?$_Uninitialized_backout_al@V?$allocator@VCSkyObjectQuad@@@std@@@std@@QAE@XZ
_TEXT	SEGMENT
??1?$_Uninitialized_backout_al@V?$allocator@VCSkyObjectQuad@@@std@@@std@@QAE@XZ PROC ; std::_Uninitialized_backout_al<std::allocator<CSkyObjectQuad> >::~_Uninitialized_backout_al<std::allocator<CSkyObjectQuad> >, COMDAT
; _this$ = ecx

; 1503 :         _Destroy_range(_First, _Last, _Al);

  00000	ff 71 08	 push	 DWORD PTR [ecx+8]
  00003	ff 71 04	 push	 DWORD PTR [ecx+4]
  00006	ff 31		 push	 DWORD PTR [ecx]
  00008	e8 00 00 00 00	 call	 ??$_Destroy_range@V?$allocator@VCSkyObjectQuad@@@std@@@std@@YAXPAVCSkyObjectQuad@@QAV1@AAV?$allocator@VCSkyObjectQuad@@@0@@Z ; std::_Destroy_range<std::allocator<CSkyObjectQuad> >
  0000d	83 c4 0c	 add	 esp, 12			; 0000000cH

; 1504 :     }

  00010	c3		 ret	 0
??1?$_Uninitialized_backout_al@V?$allocator@VCSkyObjectQuad@@@std@@@std@@QAE@XZ ENDP ; std::_Uninitialized_backout_al<std::allocator<CSkyObjectQuad> >::~_Uninitialized_backout_al<std::allocator<CSkyObjectQuad> >
_TEXT	ENDS
; Function compile flags: /Ogtp
; File C:\Program Files (x86)\Microsoft Visual Studio\2019\Community\VC\Tools\MSVC\14.27.29110\include\xmemory
;	COMDAT ??$_Construct_in_place@PAU?$_Tree_node@U?$pair@$$CBV?$basic_string@DU?$char_traits@D@std@@V?$allocator@D@2@@std@@PAVCGraphicImageInstance@@@std@@PAX@std@@AAPAU12@@std@@YAXAAPAU?$_Tree_node@U?$pair@$$CBV?$basic_string@DU?$char_traits@D@std@@V?$allocator@D@2@@std@@PAVCGraphicImageInstance@@@std@@PAX@0@0@Z
_TEXT	SEGMENT
__Obj$ = 8						; size = 4
_<_Args_0>$ = 12					; size = 4
??$_Construct_in_place@PAU?$_Tree_node@U?$pair@$$CBV?$basic_string@DU?$char_traits@D@std@@V?$allocator@D@2@@std@@PAVCGraphicImageInstance@@@std@@PAX@std@@AAPAU12@@std@@YAXAAPAU?$_Tree_node@U?$pair@$$CBV?$basic_string@DU?$char_traits@D@std@@V?$allocator@D@2@@std@@PAVCGraphicImageInstance@@@std@@PAX@0@0@Z PROC ; std::_Construct_in_place<std::_Tree_node<std::pair<std::basic_string<char,std::char_traits<char>,std::allocator<char> > const ,CGraphicImageInstance *>,void *> *,std::_Tree_node<std::pair<std::basic_string<char,std::char_traits<char>,std::allocator<char> > const ,CGraphicImageInstance *>,void *> * &>, COMDAT

; 228  : void _Construct_in_place(_Ty& _Obj, _Types&&... _Args) noexcept(is_nothrow_constructible_v<_Ty, _Types...>) {

  00000	55		 push	 ebp
  00001	8b ec		 mov	 ebp, esp

; 229  :     ::new (const_cast<void*>(static_cast<const volatile void*>(_STD addressof(_Obj))))

  00003	8b 45 0c	 mov	 eax, DWORD PTR _<_Args_0>$[ebp]
  00006	8b 08		 mov	 ecx, DWORD PTR [eax]
  00008	8b 45 08	 mov	 eax, DWORD PTR __Obj$[ebp]
  0000b	89 08		 mov	 DWORD PTR [eax], ecx

; 230  :         _Ty(_STD forward<_Types>(_Args)...);
; 231  : }

  0000d	5d		 pop	 ebp
  0000e	c3		 ret	 0
??$_Construct_in_place@PAU?$_Tree_node@U?$pair@$$CBV?$basic_string@DU?$char_traits@D@std@@V?$allocator@D@2@@std@@PAVCGraphicImageInstance@@@std@@PAX@std@@AAPAU12@@std@@YAXAAPAU?$_Tree_node@U?$pair@$$CBV?$basic_string@DU?$char_traits@D@std@@V?$allocator@D@2@@std@@PAVCGraphicImageInstance@@@std@@PAX@0@0@Z ENDP ; std::_Construct_in_place<std::_Tree_node<std::pair<std::basic_string<char,std::char_traits<char>,std::allocator<char> > const ,CGraphicImageInstance *>,void *> *,std::_Tree_node<std::pair<std::basic_string<char,std::char_traits<char>,std::allocator<char> > const ,CGraphicImageInstance *>,void *> * &>
_TEXT	ENDS
; Function compile flags: /Ogtp
; File C:\Program Files (x86)\Microsoft Visual Studio\2019\Community\VC\Tools\MSVC\14.27.29110\include\xmemory
;	COMDAT ??$_Uninitialized_value_construct_n@V?$allocator@VCSkyObjectQuad@@@std@@@std@@YAPAVCSkyObjectQuad@@PAV1@IAAV?$allocator@VCSkyObjectQuad@@@0@@Z
_TEXT	SEGMENT
__Backout$2 = -24					; size = 12
__$EHRec$ = -12						; size = 12
__First$ = 8						; size = 4
__Count$ = 12						; size = 4
__Al$ = 16						; size = 4
??$_Uninitialized_value_construct_n@V?$allocator@VCSkyObjectQuad@@@std@@@std@@YAPAVCSkyObjectQuad@@PAV1@IAAV?$allocator@VCSkyObjectQuad@@@0@@Z PROC ; std::_Uninitialized_value_construct_n<std::allocator<CSkyObjectQuad> >, COMDAT

; 1824 :     _Alloc_ptr_t<_Alloc> _First, _Alloc_size_t<_Alloc> _Count, _Alloc& _Al) {

  00000	55		 push	 ebp
  00001	8b ec		 mov	 ebp, esp
  00003	6a ff		 push	 -1
  00005	68 00 00 00 00	 push	 __ehhandler$??$_Uninitialized_value_construct_n@V?$allocator@VCSkyObjectQuad@@@std@@@std@@YAPAVCSkyObjectQuad@@PAV1@IAAV?$allocator@VCSkyObjectQuad@@@0@@Z
  0000a	64 a1 00 00 00
	00		 mov	 eax, DWORD PTR fs:0
  00010	50		 push	 eax
  00011	83 ec 0c	 sub	 esp, 12			; 0000000cH
  00014	53		 push	 ebx
  00015	56		 push	 esi
  00016	57		 push	 edi
  00017	a1 00 00 00 00	 mov	 eax, DWORD PTR ___security_cookie
  0001c	33 c5		 xor	 eax, ebp
  0001e	50		 push	 eax
  0001f	8d 45 f4	 lea	 eax, DWORD PTR __$EHRec$[ebp]
  00022	64 a3 00 00 00
	00		 mov	 DWORD PTR fs:0, eax

; 1497 :     _Uninitialized_backout_al(pointer _Dest, _Alloc& _Al_) : _First(_Dest), _Last(_Dest), _Al(_Al_) {}

  00028	8b 7d 08	 mov	 edi, DWORD PTR __First$[ebp]
  0002b	8b 5d 10	 mov	 ebx, DWORD PTR __Al$[ebp]
  0002e	89 7d e8	 mov	 DWORD PTR __Backout$2[ebp], edi
  00031	89 7d ec	 mov	 DWORD PTR __Backout$2[ebp+4], edi
  00034	89 5d f0	 mov	 DWORD PTR __Backout$2[ebp+8], ebx

; 1825 :     // value-initialize _Count objects to raw _First, using _Al
; 1826 :     using _Ptrty = typename _Alloc::value_type*;
; 1827 :     if constexpr (_Use_memset_value_construct_v<_Ptrty> && _Uses_default_construct<_Alloc, _Ptrty>::value) {
; 1828 :         auto _PFirst = _Unfancy(_First);
; 1829 :         _Zero_range(_PFirst, _PFirst + _Count);
; 1830 :         return _First + _Count;
; 1831 :     } else {
; 1832 :         _Uninitialized_backout_al<_Alloc> _Backout{_First, _Al};
; 1833 :         for (; 0 < _Count; --_Count) {

  00037	8b 75 0c	 mov	 esi, DWORD PTR __Count$[ebp]
  0003a	c7 45 fc 00 00
	00 00		 mov	 DWORD PTR __$EHRec$[ebp+8], 0
  00041	85 f6		 test	 esi, esi
  00043	74 15		 je	 SHORT $LN3@Uninitiali
$LL4@Uninitiali:

; 694  :         ::new (const_cast<void*>(static_cast<const volatile void*>(_Ptr))) _Objty(_STD forward<_Types>(_Args)...);

  00045	8b cf		 mov	 ecx, edi
  00047	e8 00 00 00 00	 call	 ??0CSkyObjectQuad@@QAE@XZ ; CSkyObjectQuad::CSkyObjectQuad

; 1509 :         ++_Last;

  0004c	81 c7 2c 01 00
	00		 add	 edi, 300		; 0000012cH
  00052	89 7d ec	 mov	 DWORD PTR __Backout$2[ebp+4], edi

; 1825 :     // value-initialize _Count objects to raw _First, using _Al
; 1826 :     using _Ptrty = typename _Alloc::value_type*;
; 1827 :     if constexpr (_Use_memset_value_construct_v<_Ptrty> && _Uses_default_construct<_Alloc, _Ptrty>::value) {
; 1828 :         auto _PFirst = _Unfancy(_First);
; 1829 :         _Zero_range(_PFirst, _PFirst + _Count);
; 1830 :         return _First + _Count;
; 1831 :     } else {
; 1832 :         _Uninitialized_backout_al<_Alloc> _Backout{_First, _Al};
; 1833 :         for (; 0 < _Count; --_Count) {

  00055	83 ee 01	 sub	 esi, 1
  00058	75 eb		 jne	 SHORT $LL4@Uninitiali
$LN3@Uninitiali:

; 1503 :         _Destroy_range(_First, _Last, _Al);

  0005a	53		 push	 ebx
  0005b	57		 push	 edi
  0005c	57		 push	 edi
  0005d	e8 00 00 00 00	 call	 ??$_Destroy_range@V?$allocator@VCSkyObjectQuad@@@std@@@std@@YAXPAVCSkyObjectQuad@@QAV1@AAV?$allocator@VCSkyObjectQuad@@@0@@Z ; std::_Destroy_range<std::allocator<CSkyObjectQuad> >
  00062	83 c4 0c	 add	 esp, 12			; 0000000cH

; 1834 :             _Backout._Emplace_back();
; 1835 :         }
; 1836 : 
; 1837 :         return _Backout._Release();

  00065	8b c7		 mov	 eax, edi

; 1838 :     }
; 1839 : }

  00067	8b 4d f4	 mov	 ecx, DWORD PTR __$EHRec$[ebp]
  0006a	64 89 0d 00 00
	00 00		 mov	 DWORD PTR fs:0, ecx
  00071	59		 pop	 ecx
  00072	5f		 pop	 edi
  00073	5e		 pop	 esi
  00074	5b		 pop	 ebx
  00075	8b e5		 mov	 esp, ebp
  00077	5d		 pop	 ebp
  00078	c3		 ret	 0
_TEXT	ENDS
;	COMDAT text$x
text$x	SEGMENT
__unwindfunclet$??$_Uninitialized_value_construct_n@V?$allocator@VCSkyObjectQuad@@@std@@@std@@YAPAVCSkyObjectQuad@@PAV1@IAAV?$allocator@VCSkyObjectQuad@@@0@@Z$0:
  00000	8d 4d e8	 lea	 ecx, DWORD PTR __Backout$2[ebp]
  00003	e9 00 00 00 00	 jmp	 ??1?$_Uninitialized_backout_al@V?$allocator@VCSkyObjectQuad@@@std@@@std@@QAE@XZ ; std::_Uninitialized_backout_al<std::allocator<CSkyObjectQuad> >::~_Uninitialized_backout_al<std::allocator<CSkyObjectQuad> >
  00008	cc		 int	 3
  00009	cc		 int	 3
  0000a	cc		 int	 3
  0000b	cc		 int	 3
  0000c	cc		 int	 3
__ehhandler$??$_Uninitialized_value_construct_n@V?$allocator@VCSkyObjectQuad@@@std@@@std@@YAPAVCSkyObjectQuad@@PAV1@IAAV?$allocator@VCSkyObjectQuad@@@0@@Z:
  0000d	90		 npad	 1
  0000e	90		 npad	 1
  0000f	8b 54 24 08	 mov	 edx, DWORD PTR [esp+8]
  00013	8d 42 0c	 lea	 eax, DWORD PTR [edx+12]
  00016	8b 4a e4	 mov	 ecx, DWORD PTR [edx-28]
  00019	33 c8		 xor	 ecx, eax
  0001b	e8 00 00 00 00	 call	 @__security_check_cookie@4
  00020	b8 00 00 00 00	 mov	 eax, OFFSET __ehfuncinfo$??$_Uninitialized_value_construct_n@V?$allocator@VCSkyObjectQuad@@@std@@@std@@YAPAVCSkyObjectQuad@@PAV1@IAAV?$allocator@VCSkyObjectQuad@@@0@@Z
  00025	e9 00 00 00 00	 jmp	 ___CxxFrameHandler3
text$x	ENDS
??$_Uninitialized_value_construct_n@V?$allocator@VCSkyObjectQuad@@@std@@@std@@YAPAVCSkyObjectQuad@@PAV1@IAAV?$allocator@VCSkyObjectQuad@@@0@@Z ENDP ; std::_Uninitialized_value_construct_n<std::allocator<CSkyObjectQuad> >
; Function compile flags: /Ogtp
; File C:\Program Files (x86)\Microsoft Visual Studio\2019\Community\VC\Tools\MSVC\14.27.29110\include\xmemory
;	COMDAT ??$_Destroy_in_place@PAU?$_Tree_node@U?$pair@$$CBV?$basic_string@DU?$char_traits@D@std@@V?$allocator@D@2@@std@@PAVCGraphicImageInstance@@@std@@PAX@std@@@std@@YAXAAPAU?$_Tree_node@U?$pair@$$CBV?$basic_string@DU?$char_traits@D@std@@V?$allocator@D@2@@std@@PAVCGraphicImageInstance@@@std@@PAX@0@@Z
_TEXT	SEGMENT
__Obj$ = 8						; size = 4
??$_Destroy_in_place@PAU?$_Tree_node@U?$pair@$$CBV?$basic_string@DU?$char_traits@D@std@@V?$allocator@D@2@@std@@PAVCGraphicImageInstance@@@std@@PAX@std@@@std@@YAXAAPAU?$_Tree_node@U?$pair@$$CBV?$basic_string@DU?$char_traits@D@std@@V?$allocator@D@2@@std@@PAVCGraphicImageInstance@@@std@@PAX@0@@Z PROC ; std::_Destroy_in_place<std::_Tree_node<std::pair<std::basic_string<char,std::char_traits<char>,std::allocator<char> > const ,CGraphicImageInstance *>,void *> *>, COMDAT

; 268  :     _Obj.~_Ty();
; 269  : }

  00000	c2 00 00	 ret	 0
??$_Destroy_in_place@PAU?$_Tree_node@U?$pair@$$CBV?$basic_string@DU?$char_traits@D@std@@V?$allocator@D@2@@std@@PAVCGraphicImageInstance@@@std@@PAX@std@@@std@@YAXAAPAU?$_Tree_node@U?$pair@$$CBV?$basic_string@DU?$char_traits@D@std@@V?$allocator@D@2@@std@@PAVCGraphicImageInstance@@@std@@PAX@0@@Z ENDP ; std::_Destroy_in_place<std::_Tree_node<std::pair<std::basic_string<char,std::char_traits<char>,std::allocator<char> > const ,CGraphicImageInstance *>,void *> *>
_TEXT	ENDS
; Function compile flags: /Ogtp
; File C:\Program Files (x86)\Microsoft Visual Studio\2019\Community\VC\Tools\MSVC\14.27.29110\include\xmemory
;	COMDAT ??$_Construct_in_place@PAU?$_Tree_node@U?$pair@$$CBV?$basic_string@DU?$char_traits@D@std@@V?$allocator@D@2@@std@@PAVCGraphicImageInstance@@@std@@PAX@std@@ABQAU12@@std@@YAXAAPAU?$_Tree_node@U?$pair@$$CBV?$basic_string@DU?$char_traits@D@std@@V?$allocator@D@2@@std@@PAVCGraphicImageInstance@@@std@@PAX@0@ABQAU10@@Z
_TEXT	SEGMENT
__Obj$ = 8						; size = 4
_<_Args_0>$ = 12					; size = 4
??$_Construct_in_place@PAU?$_Tree_node@U?$pair@$$CBV?$basic_string@DU?$char_traits@D@std@@V?$allocator@D@2@@std@@PAVCGraphicImageInstance@@@std@@PAX@std@@ABQAU12@@std@@YAXAAPAU?$_Tree_node@U?$pair@$$CBV?$basic_string@DU?$char_traits@D@std@@V?$allocator@D@2@@std@@PAVCGraphicImageInstance@@@std@@PAX@0@ABQAU10@@Z PROC ; std::_Construct_in_place<std::_Tree_node<std::pair<std::basic_string<char,std::char_traits<char>,std::allocator<char> > const ,CGraphicImageInstance *>,void *> *,std::_Tree_node<std::pair<std::basic_string<char,std::char_traits<char>,std::allocator<char> > const ,CGraphicImageInstance *>,void *> * const &>, COMDAT

; 228  : void _Construct_in_place(_Ty& _Obj, _Types&&... _Args) noexcept(is_nothrow_constructible_v<_Ty, _Types...>) {

  00000	55		 push	 ebp
  00001	8b ec		 mov	 ebp, esp

; 229  :     ::new (const_cast<void*>(static_cast<const volatile void*>(_STD addressof(_Obj))))

  00003	8b 45 0c	 mov	 eax, DWORD PTR _<_Args_0>$[ebp]
  00006	8b 08		 mov	 ecx, DWORD PTR [eax]
  00008	8b 45 08	 mov	 eax, DWORD PTR __Obj$[ebp]
  0000b	89 08		 mov	 DWORD PTR [eax], ecx

; 230  :         _Ty(_STD forward<_Types>(_Args)...);
; 231  : }

  0000d	5d		 pop	 ebp
  0000e	c3		 ret	 0
??$_Construct_in_place@PAU?$_Tree_node@U?$pair@$$CBV?$basic_string@DU?$char_traits@D@std@@V?$allocator@D@2@@std@@PAVCGraphicImageInstance@@@std@@PAX@std@@ABQAU12@@std@@YAXAAPAU?$_Tree_node@U?$pair@$$CBV?$basic_string@DU?$char_traits@D@std@@V?$allocator@D@2@@std@@PAVCGraphicImageInstance@@@std@@PAX@0@ABQAU10@@Z ENDP ; std::_Construct_in_place<std::_Tree_node<std::pair<std::basic_string<char,std::char_traits<char>,std::allocator<char> > const ,CGraphicImageInstance *>,void *> *,std::_Tree_node<std::pair<std::basic_string<char,std::char_traits<char>,std::allocator<char> > const ,CGraphicImageInstance *>,void *> * const &>
_TEXT	ENDS
; Function compile flags: /Ogtp
; File C:\Program Files (x86)\Microsoft Visual Studio\2019\Community\VC\Tools\MSVC\14.27.29110\include\vector
; File C:\Program Files (x86)\Microsoft Visual Studio\2019\Community\VC\Tools\MSVC\14.27.29110\include\xmemory
; File C:\Program Files (x86)\Microsoft Visual Studio\2019\Community\VC\Tools\MSVC\14.27.29110\include\vector
; File C:\Program Files (x86)\Microsoft Visual Studio\2019\Community\VC\Tools\MSVC\14.27.29110\include\xmemory
; File C:\Program Files (x86)\Microsoft Visual Studio\2019\Community\VC\Tools\MSVC\14.27.29110\include\vector
; File C:\Program Files (x86)\Microsoft Visual Studio\2019\Community\VC\Tools\MSVC\14.27.29110\include\xmemory
; File C:\Program Files (x86)\Microsoft Visual Studio\2019\Community\VC\Tools\MSVC\14.27.29110\include\vector
; File C:\Program Files (x86)\Microsoft Visual Studio\2019\Community\VC\Tools\MSVC\14.27.29110\include\xmemory
; File C:\Program Files (x86)\Microsoft Visual Studio\2019\Community\VC\Tools\MSVC\14.27.29110\include\vector
; File C:\Program Files (x86)\Microsoft Visual Studio\2019\Community\VC\Tools\MSVC\14.27.29110\include\xmemory
; File C:\Program Files (x86)\Microsoft Visual Studio\2019\Community\VC\Tools\MSVC\14.27.29110\include\vector
;	COMDAT ??$_Resize_reallocate@U_Value_init_tag@std@@@?$vector@VCSkyObjectQuad@@V?$allocator@VCSkyObjectQuad@@@std@@@std@@AAEXIABU_Value_init_tag@1@@Z
_TEXT	SEGMENT
_this$ = -32						; size = 4
tv331 = -28						; size = 4
__Oldsize$1$ = -24					; size = 4
__Appended_first$ = -24					; size = 4
__Newvec$ = -20						; size = 4
__$EHRec$ = -16						; size = 16
__Newcapacity$ = 8					; size = 4
__Newsize$ = 8						; size = 4
__Val$ = 12						; size = 4
??$_Resize_reallocate@U_Value_init_tag@std@@@?$vector@VCSkyObjectQuad@@V?$allocator@VCSkyObjectQuad@@@std@@@std@@AAEXIABU_Value_init_tag@1@@Z PROC ; std::vector<CSkyObjectQuad,std::allocator<CSkyObjectQuad> >::_Resize_reallocate<std::_Value_init_tag>, COMDAT
; _this$ = ecx

; 1182 :     void _Resize_reallocate(const size_type _Newsize, const _Ty2& _Val) {

  00000	55		 push	 ebp
  00001	8b ec		 mov	 ebp, esp
  00003	6a ff		 push	 -1
  00005	68 00 00 00 00	 push	 __ehhandler$??$_Resize_reallocate@U_Value_init_tag@std@@@?$vector@VCSkyObjectQuad@@V?$allocator@VCSkyObjectQuad@@@std@@@std@@AAEXIABU_Value_init_tag@1@@Z
  0000a	64 a1 00 00 00
	00		 mov	 eax, DWORD PTR fs:0
  00010	50		 push	 eax
  00011	83 ec 14	 sub	 esp, 20			; 00000014H
  00014	53		 push	 ebx
  00015	56		 push	 esi
  00016	57		 push	 edi
  00017	a1 00 00 00 00	 mov	 eax, DWORD PTR ___security_cookie
  0001c	33 c5		 xor	 eax, ebp
  0001e	50		 push	 eax
  0001f	8d 45 f4	 lea	 eax, DWORD PTR __$EHRec$[ebp+4]
  00022	64 a3 00 00 00
	00		 mov	 DWORD PTR fs:0, eax
  00028	89 65 f0	 mov	 DWORD PTR __$EHRec$[ebp], esp
  0002b	8b f9		 mov	 edi, ecx
  0002d	89 7d e0	 mov	 DWORD PTR _this$[ebp], edi

; 1183 :         if (_Newsize > max_size()) {

  00030	8b 5d 08	 mov	 ebx, DWORD PTR __Newsize$[ebp]
  00033	81 fb 0d 74 da
	00		 cmp	 ebx, 14316557		; 00da740dH
  00039	0f 87 30 01 00
	00		 ja	 $LN39@Resize_rea

; 1185 :         }
; 1186 : 
; 1187 :         auto& _My_data    = _Mypair._Myval2;
; 1188 :         pointer& _Myfirst = _My_data._Myfirst;
; 1189 :         pointer& _Mylast  = _My_data._Mylast;
; 1190 : 
; 1191 :         const auto _Oldsize          = static_cast<size_type>(_Mylast - _Myfirst);

  0003f	8b 4f 04	 mov	 ecx, DWORD PTR [edi+4]
  00042	b8 b5 81 4e 1b	 mov	 eax, 458129845		; 1b4e81b5H
  00047	2b 0f		 sub	 ecx, DWORD PTR [edi]
  00049	f7 e9		 imul	 ecx

; 1494 :         return static_cast<size_type>(_My_data._Myend - _My_data._Myfirst);

  0004b	8b 4f 08	 mov	 ecx, DWORD PTR [edi+8]
  0004e	2b 0f		 sub	 ecx, DWORD PTR [edi]

; 1185 :         }
; 1186 : 
; 1187 :         auto& _My_data    = _Mypair._Myval2;
; 1188 :         pointer& _Myfirst = _My_data._Myfirst;
; 1189 :         pointer& _Mylast  = _My_data._Mylast;
; 1190 : 
; 1191 :         const auto _Oldsize          = static_cast<size_type>(_Mylast - _Myfirst);

  00050	c1 fa 05	 sar	 edx, 5
  00053	8b c2		 mov	 eax, edx
  00055	c1 e8 1f	 shr	 eax, 31			; 0000001fH
  00058	03 c2		 add	 eax, edx
  0005a	89 45 e8	 mov	 DWORD PTR __Oldsize$1$[ebp], eax

; 1494 :         return static_cast<size_type>(_My_data._Myend - _My_data._Myfirst);

  0005d	b8 b5 81 4e 1b	 mov	 eax, 458129845		; 1b4e81b5H
  00062	f7 e9		 imul	 ecx

; 1619 :         if (_Oldcapacity > max_size() - _Oldcapacity / 2) {

  00064	b8 0d 74 da 00	 mov	 eax, 14316557		; 00da740dH

; 1494 :         return static_cast<size_type>(_My_data._Myend - _My_data._Myfirst);

  00069	c1 fa 05	 sar	 edx, 5
  0006c	8b ca		 mov	 ecx, edx
  0006e	c1 e9 1f	 shr	 ecx, 31			; 0000001fH
  00071	03 ca		 add	 ecx, edx

; 1619 :         if (_Oldcapacity > max_size() - _Oldcapacity / 2) {

  00073	8b d1		 mov	 edx, ecx
  00075	d1 ea		 shr	 edx, 1
  00077	2b c2		 sub	 eax, edx
  00079	3b c8		 cmp	 ecx, eax
  0007b	77 17		 ja	 SHORT $LN37@Resize_rea

; 1620 :             return _Newsize; // geometric growth would overflow
; 1621 :         }
; 1622 : 
; 1623 :         const size_type _Geometric = _Oldcapacity + _Oldcapacity / 2;

  0007d	8d 04 0a	 lea	 eax, DWORD PTR [edx+ecx]

; 1624 : 
; 1625 :         if (_Geometric < _Newsize) {

  00080	3b c3		 cmp	 eax, ebx
  00082	72 10		 jb	 SHORT $LN37@Resize_rea

; 1626 :             return _Newsize; // geometric growth would be insufficient
; 1627 :         }
; 1628 : 
; 1629 :         return _Geometric; // geometric growth is sufficient

  00084	89 45 08	 mov	 DWORD PTR __Newcapacity$[ebp], eax
; File C:\Program Files (x86)\Microsoft Visual Studio\2019\Community\VC\Tools\MSVC\14.27.29110\include\xmemory

; 60   :         if (_Count > _Max_possible) {

  00087	3d 0d 74 da 00	 cmp	 eax, 14316557		; 00da740dH
  0008c	0f 87 e2 00 00
	00		 ja	 $LN40@Resize_rea
  00092	eb 05		 jmp	 SHORT $LN18@Resize_rea
$LN37@Resize_rea:

; 62   :         }
; 63   :     }
; 64   : 
; 65   :     return _Count * _Ty_size;

  00094	8b c3		 mov	 eax, ebx
  00096	89 45 08	 mov	 DWORD PTR __Newcapacity$[ebp], eax
$LN18@Resize_rea:
  00099	69 c0 2c 01 00
	00		 imul	 eax, eax, 300

; 807  :         return static_cast<_Ty*>(_Allocate<_New_alignof<_Ty>>(_Get_size_of_n<sizeof(_Ty)>(_Count)));

  0009f	50		 push	 eax

; 65   :     return _Count * _Ty_size;

  000a0	89 45 e4	 mov	 DWORD PTR tv331[ebp], eax

; 807  :         return static_cast<_Ty*>(_Allocate<_New_alignof<_Ty>>(_Get_size_of_n<sizeof(_Ty)>(_Count)));

  000a3	e8 00 00 00 00	 call	 ??$_Allocate@$07U_Default_allocate_traits@std@@$0A@@std@@YAPAXI@Z ; std::_Allocate<8,std::_Default_allocate_traits,0>
; File C:\Program Files (x86)\Microsoft Visual Studio\2019\Community\VC\Tools\MSVC\14.27.29110\include\vector

; 1195 :         const pointer _Appended_first = _Newvec + _Oldsize;

  000a8	8b 55 e8	 mov	 edx, DWORD PTR __Oldsize$1$[ebp]
; File C:\Program Files (x86)\Microsoft Visual Studio\2019\Community\VC\Tools\MSVC\14.27.29110\include\xmemory

; 807  :         return static_cast<_Ty*>(_Allocate<_New_alignof<_Ty>>(_Get_size_of_n<sizeof(_Ty)>(_Count)));

  000ab	8b f0		 mov	 esi, eax
; File C:\Program Files (x86)\Microsoft Visual Studio\2019\Community\VC\Tools\MSVC\14.27.29110\include\vector

; 1195 :         const pointer _Appended_first = _Newvec + _Oldsize;

  000ad	69 ca 2c 01 00
	00		 imul	 ecx, edx, 300

; 1199 :         _Appended_last = _Ufill(_Appended_first, _Newsize - _Oldsize, _Val);

  000b3	8b c3		 mov	 eax, ebx

; 1583 :         return _Uninitialized_value_construct_n(_Dest, _Count, _Getal());

  000b5	57		 push	 edi

; 1199 :         _Appended_last = _Ufill(_Appended_first, _Newsize - _Oldsize, _Val);

  000b6	2b c2		 sub	 eax, edx
; File C:\Program Files (x86)\Microsoft Visual Studio\2019\Community\VC\Tools\MSVC\14.27.29110\include\xmemory

; 807  :         return static_cast<_Ty*>(_Allocate<_New_alignof<_Ty>>(_Get_size_of_n<sizeof(_Ty)>(_Count)));

  000b8	89 75 ec	 mov	 DWORD PTR __Newvec$[ebp], esi
; File C:\Program Files (x86)\Microsoft Visual Studio\2019\Community\VC\Tools\MSVC\14.27.29110\include\vector

; 1583 :         return _Uninitialized_value_construct_n(_Dest, _Count, _Getal());

  000bb	50		 push	 eax

; 1196 :         pointer _Appended_last        = _Appended_first;
; 1197 : 
; 1198 :         _TRY_BEGIN

  000bc	c7 45 fc 00 00
	00 00		 mov	 DWORD PTR __$EHRec$[ebp+12], 0
  000c3	03 ce		 add	 ecx, esi

; 1583 :         return _Uninitialized_value_construct_n(_Dest, _Count, _Getal());

  000c5	51		 push	 ecx

; 1195 :         const pointer _Appended_first = _Newvec + _Oldsize;

  000c6	89 4d e8	 mov	 DWORD PTR __Appended_first$[ebp], ecx

; 1583 :         return _Uninitialized_value_construct_n(_Dest, _Count, _Getal());

  000c9	e8 00 00 00 00	 call	 ??$_Uninitialized_value_construct_n@V?$allocator@VCSkyObjectQuad@@@std@@@std@@YAPAVCSkyObjectQuad@@PAV1@IAAV?$allocator@VCSkyObjectQuad@@@0@@Z ; std::_Uninitialized_value_construct_n<std::allocator<CSkyObjectQuad> >
  000ce	83 c4 10	 add	 esp, 16			; 00000010H

; 1597 :         _Uninitialized_move(_First, _Last, _Dest, _Getal());

  000d1	57		 push	 edi
  000d2	56		 push	 esi
  000d3	ff 77 04	 push	 DWORD PTR [edi+4]
  000d6	ff 37		 push	 DWORD PTR [edi]
  000d8	e8 00 00 00 00	 call	 ??$_Uninitialized_move@PAVCSkyObjectQuad@@V?$allocator@VCSkyObjectQuad@@@std@@@std@@YAPAVCSkyObjectQuad@@QAV1@0PAV1@AAV?$allocator@VCSkyObjectQuad@@@0@@Z ; std::_Uninitialized_move<CSkyObjectQuad *,std::allocator<CSkyObjectQuad> >

; 1675 :         if (_Myfirst) { // destroy and deallocate old array

  000dd	8b 0f		 mov	 ecx, DWORD PTR [edi]

; 1597 :         _Uninitialized_move(_First, _Last, _Dest, _Getal());

  000df	83 c4 10	 add	 esp, 16			; 00000010H

; 1675 :         if (_Myfirst) { // destroy and deallocate old array

  000e2	85 c9		 test	 ecx, ecx
  000e4	74 35		 je	 SHORT $LN29@Resize_rea

; 1612 :         _Destroy_range(_First, _Last, _Getal());

  000e6	57		 push	 edi
  000e7	ff 77 04	 push	 DWORD PTR [edi+4]
  000ea	51		 push	 ecx
  000eb	e8 00 00 00 00	 call	 ??$_Destroy_range@V?$allocator@VCSkyObjectQuad@@@std@@@std@@YAXPAVCSkyObjectQuad@@QAV1@AAV?$allocator@VCSkyObjectQuad@@@0@@Z ; std::_Destroy_range<std::allocator<CSkyObjectQuad> >

; 1677 :             _Getal().deallocate(_Myfirst, static_cast<size_type>(_Myend - _Myfirst));

  000f0	8b 37		 mov	 esi, DWORD PTR [edi]
  000f2	b8 b5 81 4e 1b	 mov	 eax, 458129845		; 1b4e81b5H
  000f7	8b 4f 08	 mov	 ecx, DWORD PTR [edi+8]
  000fa	2b ce		 sub	 ecx, esi
  000fc	f7 e9		 imul	 ecx
  000fe	c1 fa 05	 sar	 edx, 5
  00101	8b c2		 mov	 eax, edx
  00103	c1 e8 1f	 shr	 eax, 31			; 0000001fH
  00106	03 c2		 add	 eax, edx
; File C:\Program Files (x86)\Microsoft Visual Studio\2019\Community\VC\Tools\MSVC\14.27.29110\include\xmemory

; 803  :         _Deallocate<_New_alignof<_Ty>>(_Ptr, sizeof(_Ty) * _Count);

  00108	69 c0 2c 01 00
	00		 imul	 eax, eax, 300
  0010e	50		 push	 eax
  0010f	56		 push	 esi
  00110	e8 00 00 00 00	 call	 ??$_Deallocate@$07$0A@@std@@YAXPAXI@Z ; std::_Deallocate<8,0>
  00115	8b 75 ec	 mov	 esi, DWORD PTR __Newvec$[ebp]
  00118	83 c4 14	 add	 esp, 20			; 00000014H
$LN29@Resize_rea:
; File C:\Program Files (x86)\Microsoft Visual Studio\2019\Community\VC\Tools\MSVC\14.27.29110\include\vector

; 1681 :         _Mylast  = _Newvec + _Newsize;

  0011b	69 c3 2c 01 00
	00		 imul	 eax, ebx, 300
  00121	89 37		 mov	 DWORD PTR [edi], esi
  00123	03 c6		 add	 eax, esi
  00125	89 47 04	 mov	 DWORD PTR [edi+4], eax

; 1682 :         _Myend   = _Newvec + _Newcapacity;

  00128	8b 45 e4	 mov	 eax, DWORD PTR tv331[ebp]
  0012b	03 c6		 add	 eax, esi
  0012d	89 47 08	 mov	 DWORD PTR [edi+8], eax

; 1208 :     }

  00130	8b 4d f4	 mov	 ecx, DWORD PTR __$EHRec$[ebp+4]
  00133	64 89 0d 00 00
	00 00		 mov	 DWORD PTR fs:0, ecx
  0013a	59		 pop	 ecx
  0013b	5f		 pop	 edi
  0013c	5e		 pop	 esi
  0013d	5b		 pop	 ebx
  0013e	8b e5		 mov	 esp, ebp
  00140	5d		 pop	 ebp
  00141	c2 08 00	 ret	 8
__catch$??$_Resize_reallocate@U_Value_init_tag@std@@@?$vector@VCSkyObjectQuad@@V?$allocator@VCSkyObjectQuad@@@std@@@std@@AAEXIABU_Value_init_tag@1@@Z$0:

; 1200 :         _Umove_if_noexcept(_Myfirst, _Mylast, _Newvec);
; 1201 :         _CATCH_ALL
; 1202 :         _Destroy(_Appended_first, _Appended_last);

  00144	8b 45 e8	 mov	 eax, DWORD PTR __Appended_first$[ebp]
  00147	8b 4d e0	 mov	 ecx, DWORD PTR _this$[ebp]
  0014a	50		 push	 eax
  0014b	50		 push	 eax
  0014c	e8 00 00 00 00	 call	 ?_Destroy@?$vector@VCSkyObjectQuad@@V?$allocator@VCSkyObjectQuad@@@std@@@std@@AAEXPAVCSkyObjectQuad@@0@Z ; std::vector<CSkyObjectQuad,std::allocator<CSkyObjectQuad> >::_Destroy

; 1203 :         _Getal().deallocate(_Newvec, _Newcapacity);

  00151	ff 75 08	 push	 DWORD PTR __Newcapacity$[ebp]
  00154	8b 4d e0	 mov	 ecx, DWORD PTR _this$[ebp]
  00157	ff 75 ec	 push	 DWORD PTR __Newvec$[ebp]
  0015a	e8 00 00 00 00	 call	 ?_Getal@?$vector@VCSkyObjectQuad@@V?$allocator@VCSkyObjectQuad@@@std@@@std@@AAEAAV?$allocator@VCSkyObjectQuad@@@2@XZ ; std::vector<CSkyObjectQuad,std::allocator<CSkyObjectQuad> >::_Getal
  0015f	8b c8		 mov	 ecx, eax
  00161	e8 00 00 00 00	 call	 ?deallocate@?$allocator@VCSkyObjectQuad@@@std@@QAEXQAVCSkyObjectQuad@@I@Z ; std::allocator<CSkyObjectQuad>::deallocate

; 1204 :         _RERAISE;

  00166	6a 00		 push	 0
  00168	6a 00		 push	 0
  0016a	e8 00 00 00 00	 call	 __CxxThrowException@8
$LN39@Resize_rea:

; 1184 :             _Xlength();

  0016f	e8 00 00 00 00	 call	 ?_Xlength@?$vector@VCSkyObjectQuad@@V?$allocator@VCSkyObjectQuad@@@std@@@std@@CAXXZ ; std::vector<CSkyObjectQuad,std::allocator<CSkyObjectQuad> >::_Xlength
$LN40@Resize_rea:
; File C:\Program Files (x86)\Microsoft Visual Studio\2019\Community\VC\Tools\MSVC\14.27.29110\include\xmemory

; 61   :             _Throw_bad_array_new_length(); // multiply overflow

  00174	e8 00 00 00 00	 call	 ?_Throw_bad_array_new_length@std@@YAXXZ ; std::_Throw_bad_array_new_length
$LN36@Resize_rea:
  00179	cc		 int	 3
  0017a	cc		 int	 3
  0017b	cc		 int	 3
  0017c	cc		 int	 3
  0017d	cc		 int	 3
  0017e	cc		 int	 3
_TEXT	ENDS
;	COMDAT text$x
text$x	SEGMENT
__ehhandler$??$_Resize_reallocate@U_Value_init_tag@std@@@?$vector@VCSkyObjectQuad@@V?$allocator@VCSkyObjectQuad@@@std@@@std@@AAEXIABU_Value_init_tag@1@@Z:
  00000	90		 npad	 1
  00001	90		 npad	 1
  00002	8b 54 24 08	 mov	 edx, DWORD PTR [esp+8]
  00006	8d 42 0c	 lea	 eax, DWORD PTR [edx+12]
  00009	8b 4a dc	 mov	 ecx, DWORD PTR [edx-36]
  0000c	33 c8		 xor	 ecx, eax
  0000e	e8 00 00 00 00	 call	 @__security_check_cookie@4
  00013	b8 00 00 00 00	 mov	 eax, OFFSET __ehfuncinfo$??$_Resize_reallocate@U_Value_init_tag@std@@@?$vector@VCSkyObjectQuad@@V?$allocator@VCSkyObjectQuad@@@std@@@std@@AAEXIABU_Value_init_tag@1@@Z
  00018	e9 00 00 00 00	 jmp	 ___CxxFrameHandler3
text$x	ENDS
??$_Resize_reallocate@U_Value_init_tag@std@@@?$vector@VCSkyObjectQuad@@V?$allocator@VCSkyObjectQuad@@@std@@@std@@AAEXIABU_Value_init_tag@1@@Z ENDP ; std::vector<CSkyObjectQuad,std::allocator<CSkyObjectQuad> >::_Resize_reallocate<std::_Value_init_tag>
; Function compile flags: /Ogtp
; File C:\Program Files (x86)\Microsoft Visual Studio\2019\Community\VC\Tools\MSVC\14.27.29110\include\xmemory
;	COMDAT ??1?$_Tree_temp_node_alloc@V?$allocator@U?$_Tree_node@U?$pair@$$CBV?$basic_string@DU?$char_traits@D@std@@V?$allocator@D@2@@std@@PAVCGraphicImageInstance@@@std@@PAX@std@@@std@@@std@@QAE@XZ
_TEXT	SEGMENT
??1?$_Tree_temp_node_alloc@V?$allocator@U?$_Tree_node@U?$pair@$$CBV?$basic_string@DU?$char_traits@D@std@@V?$allocator@D@2@@std@@PAVCGraphicImageInstance@@@std@@PAX@std@@@std@@@std@@QAE@XZ PROC ; std::_Tree_temp_node_alloc<std::allocator<std::_Tree_node<std::pair<std::basic_string<char,std::char_traits<char>,std::allocator<char> > const ,CGraphicImageInstance *>,void *> > >::~_Tree_temp_node_alloc<std::allocator<std::_Tree_node<std::pair<std::basic_string<char,std::char_traits<char>,std::allocator<char> > const ,CGraphicImageInstance *>,void *> > >, COMDAT
; _this$ = ecx

; 1052 :         if (_Ptr) {

  00000	8b 41 04	 mov	 eax, DWORD PTR [ecx+4]
  00003	85 c0		 test	 eax, eax
  00005	74 0b		 je	 SHORT $LN4@Tree_temp_

; 803  :         _Deallocate<_New_alignof<_Ty>>(_Ptr, sizeof(_Ty) * _Count);

  00007	6a 2c		 push	 44			; 0000002cH
  00009	50		 push	 eax
  0000a	e8 00 00 00 00	 call	 ??$_Deallocate@$07$0A@@std@@YAXPAXI@Z ; std::_Deallocate<8,0>
  0000f	83 c4 08	 add	 esp, 8
$LN4@Tree_temp_:
  00012	c3		 ret	 0
??1?$_Tree_temp_node_alloc@V?$allocator@U?$_Tree_node@U?$pair@$$CBV?$basic_string@DU?$char_traits@D@std@@V?$allocator@D@2@@std@@PAVCGraphicImageInstance@@@std@@PAX@std@@@std@@@std@@QAE@XZ ENDP ; std::_Tree_temp_node_alloc<std::allocator<std::_Tree_node<std::pair<std::basic_string<char,std::char_traits<char>,std::allocator<char> > const ,CGraphicImageInstance *>,void *> > >::~_Tree_temp_node_alloc<std::allocator<std::_Tree_node<std::pair<std::basic_string<char,std::char_traits<char>,std::allocator<char> > const ,CGraphicImageInstance *>,void *> > >
_TEXT	ENDS
; Function compile flags: /Ogtp
; File C:\Program Files (x86)\Microsoft Visual Studio\2019\Community\VC\Tools\MSVC\14.27.29110\include\xmemory
;	COMDAT ??1?$_Alloc_construct_ptr@V?$allocator@U?$_Tree_node@U?$pair@$$CBV?$basic_string@DU?$char_traits@D@std@@V?$allocator@D@2@@std@@PAVCGraphicImageInstance@@@std@@PAX@std@@@std@@@std@@QAE@XZ
_TEXT	SEGMENT
??1?$_Alloc_construct_ptr@V?$allocator@U?$_Tree_node@U?$pair@$$CBV?$basic_string@DU?$char_traits@D@std@@V?$allocator@D@2@@std@@PAVCGraphicImageInstance@@@std@@PAX@std@@@std@@@std@@QAE@XZ PROC ; std::_Alloc_construct_ptr<std::allocator<std::_Tree_node<std::pair<std::basic_string<char,std::char_traits<char>,std::allocator<char> > const ,CGraphicImageInstance *>,void *> > >::~_Alloc_construct_ptr<std::allocator<std::_Tree_node<std::pair<std::basic_string<char,std::char_traits<char>,std::allocator<char> > const ,CGraphicImageInstance *>,void *> > >, COMDAT
; _this$ = ecx

; 1052 :         if (_Ptr) {

  00000	8b 41 04	 mov	 eax, DWORD PTR [ecx+4]
  00003	85 c0		 test	 eax, eax
  00005	74 0b		 je	 SHORT $LN2@Alloc_cons

; 803  :         _Deallocate<_New_alignof<_Ty>>(_Ptr, sizeof(_Ty) * _Count);

  00007	6a 2c		 push	 44			; 0000002cH
  00009	50		 push	 eax
  0000a	e8 00 00 00 00	 call	 ??$_Deallocate@$07$0A@@std@@YAXPAXI@Z ; std::_Deallocate<8,0>
  0000f	83 c4 08	 add	 esp, 8
$LN2@Alloc_cons:

; 1053 :             _Al.deallocate(_Ptr, 1);
; 1054 :         }
; 1055 :     }

  00012	c3		 ret	 0
??1?$_Alloc_construct_ptr@V?$allocator@U?$_Tree_node@U?$pair@$$CBV?$basic_string@DU?$char_traits@D@std@@V?$allocator@D@2@@std@@PAVCGraphicImageInstance@@@std@@PAX@std@@@std@@@std@@QAE@XZ ENDP ; std::_Alloc_construct_ptr<std::allocator<std::_Tree_node<std::pair<std::basic_string<char,std::char_traits<char>,std::allocator<char> > const ,CGraphicImageInstance *>,void *> > >::~_Alloc_construct_ptr<std::allocator<std::_Tree_node<std::pair<std::basic_string<char,std::char_traits<char>,std::allocator<char> > const ,CGraphicImageInstance *>,void *> > >
_TEXT	ENDS
; Function compile flags: /Ogtp
; File C:\Program Files (x86)\Microsoft Visual Studio\2019\Community\VC\Tools\MSVC\14.27.29110\include\xtree
; File C:\Program Files (x86)\Microsoft Visual Studio\2019\Community\VC\Tools\MSVC\14.27.29110\include\xstddef
; File C:\Program Files (x86)\Microsoft Visual Studio\2019\Community\VC\Tools\MSVC\14.27.29110\include\xtree
;	COMDAT ??$_Find_lower_bound@V?$basic_string@DU?$char_traits@D@std@@V?$allocator@D@2@@std@@@?$_Tree@V?$_Tmap_traits@V?$basic_string@DU?$char_traits@D@std@@V?$allocator@D@2@@std@@PAVCGraphicImageInstance@@U?$less@V?$basic_string@DU?$char_traits@D@std@@V?$allocator@D@2@@std@@@2@V?$allocator@U?$pair@$$CBV?$basic_string@DU?$char_traits@D@std@@V?$allocator@D@2@@std@@PAVCGraphicImageInstance@@@std@@@2@$0A@@std@@@std@@IBE?AU?$_Tree_find_result@PAU?$_Tree_node@U?$pair@$$CBV?$basic_string@DU?$char_traits@D@std@@V?$allocator@D@2@@std@@PAVCGraphicImageInstance@@@std@@PAX@std@@@1@ABV?$basic_string@DU?$char_traits@D@std@@V?$allocator@D@2@@1@@Z
_TEXT	SEGMENT
___$ReturnUdt$ = 8					; size = 4
__Keyval$ = 12						; size = 4
??$_Find_lower_bound@V?$basic_string@DU?$char_traits@D@std@@V?$allocator@D@2@@std@@@?$_Tree@V?$_Tmap_traits@V?$basic_string@DU?$char_traits@D@std@@V?$allocator@D@2@@std@@PAVCGraphicImageInstance@@U?$less@V?$basic_string@DU?$char_traits@D@std@@V?$allocator@D@2@@std@@@2@V?$allocator@U?$pair@$$CBV?$basic_string@DU?$char_traits@D@std@@V?$allocator@D@2@@std@@PAVCGraphicImageInstance@@@std@@@2@$0A@@std@@@std@@IBE?AU?$_Tree_find_result@PAU?$_Tree_node@U?$pair@$$CBV?$basic_string@DU?$char_traits@D@std@@V?$allocator@D@2@@std@@PAVCGraphicImageInstance@@@std@@PAX@std@@@1@ABV?$basic_string@DU?$char_traits@D@std@@V?$allocator@D@2@@1@@Z PROC ; std::_Tree<std::_Tmap_traits<std::basic_string<char,std::char_traits<char>,std::allocator<char> >,CGraphicImageInstance *,std::less<std::basic_string<char,std::char_traits<char>,std::allocator<char> > >,std::allocator<std::pair<std::basic_string<char,std::char_traits<char>,std::allocator<char> > const ,CGraphicImageInstance *> >,0> >::_Find_lower_bound<std::basic_string<char,std::char_traits<char>,std::allocator<char> > >, COMDAT
; _this$ = ecx

; 1699 :     _Tree_find_result<_Nodeptr> _Find_lower_bound(const _Keyty& _Keyval) const {

  00000	55		 push	 ebp
  00001	8b ec		 mov	 ebp, esp

; 1700 :         const auto _Scary = _Get_scary();
; 1701 :         _Tree_find_result<_Nodeptr> _Result{{_Scary->_Myhead->_Parent, _Tree_child::_Right}, _Scary->_Myhead};

  00003	8b 01		 mov	 eax, DWORD PTR [ecx]
  00005	56		 push	 esi
  00006	57		 push	 edi
  00007	8b 7d 08	 mov	 edi, DWORD PTR ___$ReturnUdt$[ebp]
  0000a	8b 70 04	 mov	 esi, DWORD PTR [eax+4]
  0000d	89 37		 mov	 DWORD PTR [edi], esi

; 1702 :         _Nodeptr _Trynode = _Result._Location._Parent;
; 1703 :         while (!_Trynode->_Isnil) {

  0000f	80 7e 0d 00	 cmp	 BYTE PTR [esi+13], 0
  00013	c7 47 04 00 00
	00 00		 mov	 DWORD PTR [edi+4], 0
  0001a	89 47 08	 mov	 DWORD PTR [edi+8], eax
  0001d	75 32		 jne	 SHORT $LN12@Find_lower
  0001f	53		 push	 ebx
  00020	8b 5d 0c	 mov	 ebx, DWORD PTR __Keyval$[ebp]
$LL2@Find_lower:

; 1705 :             if (_DEBUG_LT_PRED(_Getcomp(), _Traits::_Kfn(_Trynode->_Myval), _Keyval)) {

  00023	8d 46 10	 lea	 eax, DWORD PTR [esi+16]
  00026	89 37		 mov	 DWORD PTR [edi], esi
; File C:\Program Files (x86)\Microsoft Visual Studio\2019\Community\VC\Tools\MSVC\14.27.29110\include\xstddef

; 127  :         return _Left < _Right;

  00028	53		 push	 ebx
  00029	50		 push	 eax
  0002a	e8 00 00 00 00	 call	 ??$?MDU?$char_traits@D@std@@V?$allocator@D@1@@std@@YA_NABV?$basic_string@DU?$char_traits@D@std@@V?$allocator@D@2@@0@0@Z ; std::operator<<char,std::char_traits<char>,std::allocator<char> >
  0002f	83 c4 08	 add	 esp, 8
; File C:\Program Files (x86)\Microsoft Visual Studio\2019\Community\VC\Tools\MSVC\14.27.29110\include\xtree

; 1705 :             if (_DEBUG_LT_PRED(_Getcomp(), _Traits::_Kfn(_Trynode->_Myval), _Keyval)) {

  00032	84 c0		 test	 al, al
  00034	74 07		 je	 SHORT $LN4@Find_lower

; 1706 :                 _Result._Location._Child = _Tree_child::_Right;
; 1707 :                 _Trynode                 = _Trynode->_Right;

  00036	8b 76 08	 mov	 esi, DWORD PTR [esi+8]
  00039	33 c0		 xor	 eax, eax

; 1708 :             } else {

  0003b	eb 0a		 jmp	 SHORT $LN5@Find_lower
$LN4@Find_lower:

; 1709 :                 _Result._Location._Child = _Tree_child::_Left;
; 1710 :                 _Result._Bound           = _Trynode;

  0003d	89 77 08	 mov	 DWORD PTR [edi+8], esi

; 1711 :                 _Trynode                 = _Trynode->_Left;

  00040	b8 01 00 00 00	 mov	 eax, 1
  00045	8b 36		 mov	 esi, DWORD PTR [esi]
$LN5@Find_lower:

; 1702 :         _Nodeptr _Trynode = _Result._Location._Parent;
; 1703 :         while (!_Trynode->_Isnil) {

  00047	89 47 04	 mov	 DWORD PTR [edi+4], eax
  0004a	80 7e 0d 00	 cmp	 BYTE PTR [esi+13], 0
  0004e	74 d3		 je	 SHORT $LL2@Find_lower

; 1712 :             }
; 1713 :         }
; 1714 : 
; 1715 :         return _Result;

  00050	5b		 pop	 ebx
$LN12@Find_lower:

; 1716 :     }

  00051	8b c7		 mov	 eax, edi
  00053	5f		 pop	 edi
  00054	5e		 pop	 esi
  00055	5d		 pop	 ebp
  00056	c2 08 00	 ret	 8
??$_Find_lower_bound@V?$basic_string@DU?$char_traits@D@std@@V?$allocator@D@2@@std@@@?$_Tree@V?$_Tmap_traits@V?$basic_string@DU?$char_traits@D@std@@V?$allocator@D@2@@std@@PAVCGraphicImageInstance@@U?$less@V?$basic_string@DU?$char_traits@D@std@@V?$allocator@D@2@@std@@@2@V?$allocator@U?$pair@$$CBV?$basic_string@DU?$char_traits@D@std@@V?$allocator@D@2@@std@@PAVCGraphicImageInstance@@@std@@@2@$0A@@std@@@std@@IBE?AU?$_Tree_find_result@PAU?$_Tree_node@U?$pair@$$CBV?$basic_string@DU?$char_traits@D@std@@V?$allocator@D@2@@std@@PAVCGraphicImageInstance@@@std@@PAX@std@@@1@ABV?$basic_string@DU?$char_traits@D@std@@V?$allocator@D@2@@1@@Z ENDP ; std::_Tree<std::_Tmap_traits<std::basic_string<char,std::char_traits<char>,std::allocator<char> >,CGraphicImageInstance *,std::less<std::basic_string<char,std::char_traits<char>,std::allocator<char> > >,std::allocator<std::pair<std::basic_string<char,std::char_traits<char>,std::allocator<char> > const ,CGraphicImageInstance *> >,0> >::_Find_lower_bound<std::basic_string<char,std::char_traits<char>,std::allocator<char> > >
_TEXT	ENDS
; Function compile flags: /Ogtp
; File C:\Program Files (x86)\Microsoft Visual Studio\2019\Community\VC\Tools\MSVC\14.27.29110\include\xmemory
;	COMDAT ??$_Destroy_range@V?$allocator@VCSkyObjectQuad@@@std@@@std@@YAXPAVCSkyObjectQuad@@QAV1@AAV?$allocator@VCSkyObjectQuad@@@0@@Z
_TEXT	SEGMENT
__First$ = 8						; size = 4
__Last$ = 12						; size = 4
__Al$ = 16						; size = 4
??$_Destroy_range@V?$allocator@VCSkyObjectQuad@@@std@@@std@@YAXPAVCSkyObjectQuad@@QAV1@AAV?$allocator@VCSkyObjectQuad@@@0@@Z PROC ; std::_Destroy_range<std::allocator<CSkyObjectQuad> >, COMDAT

; 955  : void _Destroy_range(_Alloc_ptr_t<_Alloc> _First, const _Alloc_ptr_t<_Alloc> _Last, _Alloc& _Al) noexcept {

  00000	55		 push	 ebp
  00001	8b ec		 mov	 ebp, esp
  00003	56		 push	 esi

; 956  :     // note that this is an optimization for debug mode codegen; in release mode the BE removes all of this
; 957  :     using _Ty = typename _Alloc::value_type;
; 958  :     if _CONSTEXPR_IF (!conjunction_v<is_trivially_destructible<_Ty>, _Uses_default_destroy<_Alloc, _Ty*>>) {
; 959  :         for (; _First != _Last; ++_First) {

  00004	8b 75 08	 mov	 esi, DWORD PTR __First$[ebp]
  00007	57		 push	 edi
  00008	8b 7d 0c	 mov	 edi, DWORD PTR __Last$[ebp]
  0000b	3b f7		 cmp	 esi, edi
  0000d	74 13		 je	 SHORT $LN3@Destroy_ra
  0000f	90		 npad	 1
$LL4@Destroy_ra:

; 699  :         _Ptr->~_Uty();

  00010	8b 06		 mov	 eax, DWORD PTR [esi]
  00012	8b ce		 mov	 ecx, esi
  00014	6a 00		 push	 0
  00016	ff 10		 call	 DWORD PTR [eax]

; 956  :     // note that this is an optimization for debug mode codegen; in release mode the BE removes all of this
; 957  :     using _Ty = typename _Alloc::value_type;
; 958  :     if _CONSTEXPR_IF (!conjunction_v<is_trivially_destructible<_Ty>, _Uses_default_destroy<_Alloc, _Ty*>>) {
; 959  :         for (; _First != _Last; ++_First) {

  00018	81 c6 2c 01 00
	00		 add	 esi, 300		; 0000012cH
  0001e	3b f7		 cmp	 esi, edi
  00020	75 ee		 jne	 SHORT $LL4@Destroy_ra
$LN3@Destroy_ra:
  00022	5f		 pop	 edi

; 960  :             allocator_traits<_Alloc>::destroy(_Al, _Unfancy(_First));
; 961  :         }
; 962  :     }
; 963  : }

  00023	5e		 pop	 esi
  00024	5d		 pop	 ebp
  00025	c3		 ret	 0
??$_Destroy_range@V?$allocator@VCSkyObjectQuad@@@std@@@std@@YAXPAVCSkyObjectQuad@@QAV1@AAV?$allocator@VCSkyObjectQuad@@@0@@Z ENDP ; std::_Destroy_range<std::allocator<CSkyObjectQuad> >
_TEXT	ENDS
; Function compile flags: /Ogtp
; File C:\Program Files (x86)\Microsoft Visual Studio\2019\Community\VC\Tools\MSVC\14.27.29110\include\xtree
; File C:\Program Files (x86)\Microsoft Visual Studio\2019\Community\VC\Tools\MSVC\14.27.29110\include\utility
; File C:\Program Files (x86)\Microsoft Visual Studio\2019\Community\VC\Tools\MSVC\14.27.29110\include\xstring
; File C:\Program Files (x86)\Microsoft Visual Studio\2019\Community\VC\Tools\MSVC\14.27.29110\include\xmemory
; File C:\Program Files (x86)\Microsoft Visual Studio\2019\Community\VC\Tools\MSVC\14.27.29110\include\xstring
; File C:\Program Files (x86)\Microsoft Visual Studio\2019\Community\VC\Tools\MSVC\14.27.29110\include\xmemory
; File C:\Program Files (x86)\Microsoft Visual Studio\2019\Community\VC\Tools\MSVC\14.27.29110\include\xtree
; File C:\Program Files (x86)\Microsoft Visual Studio\2019\Community\VC\Tools\MSVC\14.27.29110\include\xmemory
; File C:\Program Files (x86)\Microsoft Visual Studio\2019\Community\VC\Tools\MSVC\14.27.29110\include\xtree
;	COMDAT ??$_Erase_tree@V?$allocator@U?$_Tree_node@U?$pair@$$CBV?$basic_string@DU?$char_traits@D@std@@V?$allocator@D@2@@std@@PAVCGraphicImageInstance@@@std@@PAX@std@@@std@@@?$_Tree_val@U?$_Tree_simple_types@U?$pair@$$CBV?$basic_string@DU?$char_traits@D@std@@V?$allocator@D@2@@std@@PAVCGraphicImageInstance@@@std@@@std@@@std@@QAEXAAV?$allocator@U?$_Tree_node@U?$pair@$$CBV?$basic_string@DU?$char_traits@D@std@@V?$allocator@D@2@@std@@PAVCGraphicImageInstance@@@std@@PAX@std@@@1@PAU?$_Tree_node@U?$pair@$$CBV?$basic_string@DU?$char_traits@D@std@@V?$allocator@D@2@@std@@PAVCGraphicImageInstance@@@std@@PAX@1@@Z
_TEXT	SEGMENT
_this$1$ = -4						; size = 4
__Al$ = 8						; size = 4
__Rootnode$ = 12					; size = 4
??$_Erase_tree@V?$allocator@U?$_Tree_node@U?$pair@$$CBV?$basic_string@DU?$char_traits@D@std@@V?$allocator@D@2@@std@@PAVCGraphicImageInstance@@@std@@PAX@std@@@std@@@?$_Tree_val@U?$_Tree_simple_types@U?$pair@$$CBV?$basic_string@DU?$char_traits@D@std@@V?$allocator@D@2@@std@@PAVCGraphicImageInstance@@@std@@@std@@@std@@QAEXAAV?$allocator@U?$_Tree_node@U?$pair@$$CBV?$basic_string@DU?$char_traits@D@std@@V?$allocator@D@2@@std@@PAVCGraphicImageInstance@@@std@@PAX@std@@@1@PAU?$_Tree_node@U?$pair@$$CBV?$basic_string@DU?$char_traits@D@std@@V?$allocator@D@2@@std@@PAVCGraphicImageInstance@@@std@@PAX@1@@Z PROC ; std::_Tree_val<std::_Tree_simple_types<std::pair<std::basic_string<char,std::char_traits<char>,std::allocator<char> > const ,CGraphicImageInstance *> > >::_Erase_tree<std::allocator<std::_Tree_node<std::pair<std::basic_string<char,std::char_traits<char>,std::allocator<char> > const ,CGraphicImageInstance *>,void *> > >, COMDAT
; _this$ = ecx

; 742  :     void _Erase_tree(_Alnode& _Al, _Nodeptr _Rootnode) noexcept {

  00000	55		 push	 ebp
  00001	8b ec		 mov	 ebp, esp
  00003	51		 push	 ecx
  00004	57		 push	 edi

; 743  :         while (!_Rootnode->_Isnil) { // free subtrees, then node

  00005	8b 7d 0c	 mov	 edi, DWORD PTR __Rootnode$[ebp]
  00008	8b c1		 mov	 eax, ecx
  0000a	89 45 fc	 mov	 DWORD PTR _this$1$[ebp], eax
  0000d	80 7f 0d 00	 cmp	 BYTE PTR [edi+13], 0
  00011	75 51		 jne	 SHORT $LN3@Erase_tree
  00013	53		 push	 ebx
  00014	8b 5d 08	 mov	 ebx, DWORD PTR __Al$[ebp]
  00017	56		 push	 esi
$LL2@Erase_tree:

; 744  :             _Erase_tree(_Al, _Rootnode->_Right);

  00018	ff 77 08	 push	 DWORD PTR [edi+8]
  0001b	8b c8		 mov	 ecx, eax
  0001d	53		 push	 ebx
  0001e	e8 00 00 00 00	 call	 ??$_Erase_tree@V?$allocator@U?$_Tree_node@U?$pair@$$CBV?$basic_string@DU?$char_traits@D@std@@V?$allocator@D@2@@std@@PAVCGraphicImageInstance@@@std@@PAX@std@@@std@@@?$_Tree_val@U?$_Tree_simple_types@U?$pair@$$CBV?$basic_string@DU?$char_traits@D@std@@V?$allocator@D@2@@std@@PAVCGraphicImageInstance@@@std@@@std@@@std@@QAEXAAV?$allocator@U?$_Tree_node@U?$pair@$$CBV?$basic_string@DU?$char_traits@D@std@@V?$allocator@D@2@@std@@PAVCGraphicImageInstance@@@std@@PAX@std@@@1@PAU?$_Tree_node@U?$pair@$$CBV?$basic_string@DU?$char_traits@D@std@@V?$allocator@D@2@@std@@PAVCGraphicImageInstance@@@std@@PAX@1@@Z ; std::_Tree_val<std::_Tree_simple_types<std::pair<std::basic_string<char,std::char_traits<char>,std::allocator<char> > const ,CGraphicImageInstance *> > >::_Erase_tree<std::allocator<std::_Tree_node<std::pair<std::basic_string<char,std::char_traits<char>,std::allocator<char> > const ,CGraphicImageInstance *>,void *> > >
; File C:\Program Files (x86)\Microsoft Visual Studio\2019\Community\VC\Tools\MSVC\14.27.29110\include\utility

; 599  :     _Ty _Old_val = static_cast<_Ty&&>(_Val);

  00023	8b f7		 mov	 esi, edi

; 600  :     _Val         = static_cast<_Other&&>(_New_val);

  00025	8b 3f		 mov	 edi, DWORD PTR [edi]
; File C:\Program Files (x86)\Microsoft Visual Studio\2019\Community\VC\Tools\MSVC\14.27.29110\include\xstring

; 2153 :         return _BUF_SIZE <= _Myres;

  00027	8b 46 24	 mov	 eax, DWORD PTR [esi+36]
  0002a	83 f8 10	 cmp	 eax, 16			; 00000010H

; 4301 :         if (_Mypair._Myval2._Large_string_engaged()) {

  0002d	72 0d		 jb	 SHORT $LN21@Erase_tree

; 4302 :             const pointer _Ptr = _Mypair._Myval2._Bx._Ptr;
; 4303 :             auto& _Al          = _Getal();
; 4304 :             _Destroy_in_place(_Mypair._Myval2._Bx._Ptr);
; 4305 :             _Al.deallocate(_Ptr, _Mypair._Myval2._Myres + 1);

  0002f	40		 inc	 eax
; File C:\Program Files (x86)\Microsoft Visual Studio\2019\Community\VC\Tools\MSVC\14.27.29110\include\xmemory

; 803  :         _Deallocate<_New_alignof<_Ty>>(_Ptr, sizeof(_Ty) * _Count);

  00030	50		 push	 eax
  00031	ff 76 10	 push	 DWORD PTR [esi+16]
  00034	e8 00 00 00 00	 call	 ??$_Deallocate@$07$0A@@std@@YAXPAXI@Z ; std::_Deallocate<8,0>
  00039	83 c4 08	 add	 esp, 8
$LN21@Erase_tree:

; 689  :         _Deallocate<_New_alignof<value_type>>(_Ptr, sizeof(value_type) * _Count);

  0003c	6a 2c		 push	 44			; 0000002cH
  0003e	56		 push	 esi
; File C:\Program Files (x86)\Microsoft Visual Studio\2019\Community\VC\Tools\MSVC\14.27.29110\include\xstring

; 4308 :         _Mypair._Myval2._Mysize = 0;

  0003f	c7 46 20 00 00
	00 00		 mov	 DWORD PTR [esi+32], 0

; 4309 :         _Mypair._Myval2._Myres  = _BUF_SIZE - 1;

  00046	c7 46 24 0f 00
	00 00		 mov	 DWORD PTR [esi+36], 15	; 0000000fH

; 4310 :         // the _Traits::assign is last so the codegen doesn't think the char write can alias this
; 4311 :         _Traits::assign(_Mypair._Myval2._Bx._Buf[0], _Elem());

  0004d	c6 46 10 00	 mov	 BYTE PTR [esi+16], 0
; File C:\Program Files (x86)\Microsoft Visual Studio\2019\Community\VC\Tools\MSVC\14.27.29110\include\xmemory

; 689  :         _Deallocate<_New_alignof<value_type>>(_Ptr, sizeof(value_type) * _Count);

  00051	e8 00 00 00 00	 call	 ??$_Deallocate@$07$0A@@std@@YAXPAXI@Z ; std::_Deallocate<8,0>
; File C:\Program Files (x86)\Microsoft Visual Studio\2019\Community\VC\Tools\MSVC\14.27.29110\include\xtree

; 743  :         while (!_Rootnode->_Isnil) { // free subtrees, then node

  00056	8b 45 fc	 mov	 eax, DWORD PTR _this$1$[ebp]
; File C:\Program Files (x86)\Microsoft Visual Studio\2019\Community\VC\Tools\MSVC\14.27.29110\include\xmemory

; 689  :         _Deallocate<_New_alignof<value_type>>(_Ptr, sizeof(value_type) * _Count);

  00059	83 c4 08	 add	 esp, 8
; File C:\Program Files (x86)\Microsoft Visual Studio\2019\Community\VC\Tools\MSVC\14.27.29110\include\xtree

; 743  :         while (!_Rootnode->_Isnil) { // free subtrees, then node

  0005c	80 7f 0d 00	 cmp	 BYTE PTR [edi+13], 0
  00060	74 b6		 je	 SHORT $LL2@Erase_tree
  00062	5e		 pop	 esi
  00063	5b		 pop	 ebx
$LN3@Erase_tree:
  00064	5f		 pop	 edi

; 745  :             _Alnode::value_type::_Freenode(_Al, _STD exchange(_Rootnode, _Rootnode->_Left));
; 746  :         }
; 747  :     }

  00065	8b e5		 mov	 esp, ebp
  00067	5d		 pop	 ebp
  00068	c2 08 00	 ret	 8
??$_Erase_tree@V?$allocator@U?$_Tree_node@U?$pair@$$CBV?$basic_string@DU?$char_traits@D@std@@V?$allocator@D@2@@std@@PAVCGraphicImageInstance@@@std@@PAX@std@@@std@@@?$_Tree_val@U?$_Tree_simple_types@U?$pair@$$CBV?$basic_string@DU?$char_traits@D@std@@V?$allocator@D@2@@std@@PAVCGraphicImageInstance@@@std@@@std@@@std@@QAEXAAV?$allocator@U?$_Tree_node@U?$pair@$$CBV?$basic_string@DU?$char_traits@D@std@@V?$allocator@D@2@@std@@PAVCGraphicImageInstance@@@std@@PAX@std@@@1@PAU?$_Tree_node@U?$pair@$$CBV?$basic_string@DU?$char_traits@D@std@@V?$allocator@D@2@@std@@PAVCGraphicImageInstance@@@std@@PAX@1@@Z ENDP ; std::_Tree_val<std::_Tree_simple_types<std::pair<std::basic_string<char,std::char_traits<char>,std::allocator<char> > const ,CGraphicImageInstance *> > >::_Erase_tree<std::allocator<std::_Tree_node<std::pair<std::basic_string<char,std::char_traits<char>,std::allocator<char> > const ,CGraphicImageInstance *>,void *> > >
_TEXT	ENDS
; Function compile flags: /Ogtp
; File C:\Program Files (x86)\Microsoft Visual Studio\2019\Community\VC\Tools\MSVC\14.27.29110\include\xtree
; File C:\Program Files (x86)\Microsoft Visual Studio\2019\Community\VC\Tools\MSVC\14.27.29110\include\xstddef
; File C:\Program Files (x86)\Microsoft Visual Studio\2019\Community\VC\Tools\MSVC\14.27.29110\include\xtree
; File C:\Program Files (x86)\Microsoft Visual Studio\2019\Community\VC\Tools\MSVC\14.27.29110\include\utility
; File C:\Program Files (x86)\Microsoft Visual Studio\2019\Community\VC\Tools\MSVC\14.27.29110\include\xtree
; File C:\Program Files (x86)\Microsoft Visual Studio\2019\Community\VC\Tools\MSVC\14.27.29110\include\xmemory
; File C:\Program Files (x86)\Microsoft Visual Studio\2019\Community\VC\Tools\MSVC\14.27.29110\include\xtree
; File C:\Program Files (x86)\Microsoft Visual Studio\2019\Community\VC\Tools\MSVC\14.27.29110\include\xmemory
; File C:\DS Project\DS Files\Source\ClientSource\Client\EterLib\SkyBox.cpp
; File C:\Program Files (x86)\Microsoft Visual Studio\2019\Community\VC\Tools\MSVC\14.27.29110\include\xtree
; File C:\DS Project\DS Files\Source\ClientSource\Client\EterLib\SkyBox.cpp
; File C:\Program Files (x86)\Microsoft Visual Studio\2019\Community\VC\Tools\MSVC\14.27.29110\include\xtree
; File C:\DS Project\DS Files\Source\ClientSource\Client\EterLib\SkyBox.cpp
; File C:\Program Files (x86)\Microsoft Visual Studio\2019\Community\VC\Tools\MSVC\14.27.29110\include\xtree
; File C:\Program Files (x86)\Microsoft Visual Studio\2019\Community\VC\Tools\MSVC\14.27.29110\include\utility
; File C:\Program Files (x86)\Microsoft Visual Studio\2019\Community\VC\Tools\MSVC\14.27.29110\include\xtree
;	COMDAT ??$insert@$0A@$0A@@?$_Tree@V?$_Tmap_traits@V?$basic_string@DU?$char_traits@D@std@@V?$allocator@D@2@@std@@PAVCGraphicImageInstance@@U?$less@V?$basic_string@DU?$char_traits@D@std@@V?$allocator@D@2@@std@@@2@V?$allocator@U?$pair@$$CBV?$basic_string@DU?$char_traits@D@std@@V?$allocator@D@2@@std@@PAVCGraphicImageInstance@@@std@@@2@$0A@@std@@@std@@QAE?AU?$pair@V?$_Tree_iterator@V?$_Tree_val@U?$_Tree_simple_types@U?$pair@$$CBV?$basic_string@DU?$char_traits@D@std@@V?$allocator@D@2@@std@@PAVCGraphicImageInstance@@@std@@@std@@@std@@@std@@_N@1@$$QAU?$pair@$$CBV?$basic_string@DU?$char_traits@D@std@@V?$allocator@D@2@@std@@PAVCGraphicImageInstance@@@1@@Z
_TEXT	SEGMENT
__Loc$2 = -40						; size = 12
$T3 = -28						; size = 12
$T4 = -24						; size = 8
__Myhead$ = -16						; size = 4
__$EHRec$ = -12						; size = 12
___$ReturnUdt$ = 8					; size = 4
__Val$ = 12						; size = 4
??$insert@$0A@$0A@@?$_Tree@V?$_Tmap_traits@V?$basic_string@DU?$char_traits@D@std@@V?$allocator@D@2@@std@@PAVCGraphicImageInstance@@U?$less@V?$basic_string@DU?$char_traits@D@std@@V?$allocator@D@2@@std@@@2@V?$allocator@U?$pair@$$CBV?$basic_string@DU?$char_traits@D@std@@V?$allocator@D@2@@std@@PAVCGraphicImageInstance@@@std@@@2@$0A@@std@@@std@@QAE?AU?$pair@V?$_Tree_iterator@V?$_Tree_val@U?$_Tree_simple_types@U?$pair@$$CBV?$basic_string@DU?$char_traits@D@std@@V?$allocator@D@2@@std@@PAVCGraphicImageInstance@@@std@@@std@@@std@@@std@@_N@1@$$QAU?$pair@$$CBV?$basic_string@DU?$char_traits@D@std@@V?$allocator@D@2@@std@@PAVCGraphicImageInstance@@@1@@Z PROC ; std::_Tree<std::_Tmap_traits<std::basic_string<char,std::char_traits<char>,std::allocator<char> >,CGraphicImageInstance *,std::less<std::basic_string<char,std::char_traits<char>,std::allocator<char> > >,std::allocator<std::pair<std::basic_string<char,std::char_traits<char>,std::allocator<char> > const ,CGraphicImageInstance *> >,0> >::insert<0,0>, COMDAT
; _this$ = ecx

; 1343 :     pair<iterator, bool> insert(value_type&& _Val) {

  00000	55		 push	 ebp
  00001	8b ec		 mov	 ebp, esp
  00003	6a ff		 push	 -1
  00005	68 00 00 00 00	 push	 __ehhandler$??$insert@$0A@$0A@@?$_Tree@V?$_Tmap_traits@V?$basic_string@DU?$char_traits@D@std@@V?$allocator@D@2@@std@@PAVCGraphicImageInstance@@U?$less@V?$basic_string@DU?$char_traits@D@std@@V?$allocator@D@2@@std@@@2@V?$allocator@U?$pair@$$CBV?$basic_string@DU?$char_traits@D@std@@V?$allocator@D@2@@std@@PAVCGraphicImageInstance@@@std@@@2@$0A@@std@@@std@@QAE?AU?$pair@V?$_Tree_iterator@V?$_Tree_val@U?$_Tree_simple_types@U?$pair@$$CBV?$basic_string@DU?$char_traits@D@std@@V?$allocator@D@2@@std@@PAVCGraphicImageInstance@@@std@@@std@@@std@@@std@@_N@1@$$QAU?$pair@$$CBV?$basic_string@DU?$char_traits@D@std@@V?$allocator@D@2@@std@@PAVCGraphicImageInstance@@@1@@Z
  0000a	64 a1 00 00 00
	00		 mov	 eax, DWORD PTR fs:0
  00010	50		 push	 eax
  00011	83 ec 1c	 sub	 esp, 28			; 0000001cH
  00014	53		 push	 ebx
  00015	56		 push	 esi
  00016	57		 push	 edi
  00017	a1 00 00 00 00	 mov	 eax, DWORD PTR ___security_cookie
  0001c	33 c5		 xor	 eax, ebp
  0001e	50		 push	 eax
  0001f	8d 45 f4	 lea	 eax, DWORD PTR __$EHRec$[ebp]
  00022	64 a3 00 00 00
	00		 mov	 DWORD PTR fs:0, eax
  00028	8b d9		 mov	 ebx, ecx

; 1009 :             _Loc                = _Find_lower_bound(_Keyval);

  0002a	8b 7d 0c	 mov	 edi, DWORD PTR __Val$[ebp]
  0002d	8d 45 e4	 lea	 eax, DWORD PTR $T3[ebp]
  00030	57		 push	 edi
  00031	50		 push	 eax
  00032	e8 00 00 00 00	 call	 ??$_Find_lower_bound@V?$basic_string@DU?$char_traits@D@std@@V?$allocator@D@2@@std@@@?$_Tree@V?$_Tmap_traits@V?$basic_string@DU?$char_traits@D@std@@V?$allocator@D@2@@std@@PAVCGraphicImageInstance@@U?$less@V?$basic_string@DU?$char_traits@D@std@@V?$allocator@D@2@@std@@@2@V?$allocator@U?$pair@$$CBV?$basic_string@DU?$char_traits@D@std@@V?$allocator@D@2@@std@@PAVCGraphicImageInstance@@@std@@@2@$0A@@std@@@std@@IBE?AU?$_Tree_find_result@PAU?$_Tree_node@U?$pair@$$CBV?$basic_string@DU?$char_traits@D@std@@V?$allocator@D@2@@std@@PAVCGraphicImageInstance@@@std@@PAX@std@@@1@ABV?$basic_string@DU?$char_traits@D@std@@V?$allocator@D@2@@1@@Z ; std::_Tree<std::_Tmap_traits<std::basic_string<char,std::char_traits<char>,std::allocator<char> >,CGraphicImageInstance *,std::less<std::basic_string<char,std::char_traits<char>,std::allocator<char> > >,std::allocator<std::pair<std::basic_string<char,std::char_traits<char>,std::allocator<char> > const ,CGraphicImageInstance *> >,0> >::_Find_lower_bound<std::basic_string<char,std::char_traits<char>,std::allocator<char> > >
  00037	8b 70 08	 mov	 esi, DWORD PTR [eax+8]
  0003a	f3 0f 7e 00	 movq	 xmm0, QWORD PTR [eax]
  0003e	66 0f d6 45 d8	 movq	 QWORD PTR __Loc$2[ebp], xmm0

; 1695 :         return !_Bound->_Isnil && !_DEBUG_LT_PRED(_Getcomp(), _Keyval, _Traits::_Kfn(_Bound->_Myval));

  00043	80 7e 0d 00	 cmp	 BYTE PTR [esi+13], 0
  00047	75 18		 jne	 SHORT $LN4@insert
  00049	8d 46 10	 lea	 eax, DWORD PTR [esi+16]
; File C:\Program Files (x86)\Microsoft Visual Studio\2019\Community\VC\Tools\MSVC\14.27.29110\include\xstddef

; 127  :         return _Left < _Right;

  0004c	50		 push	 eax
  0004d	57		 push	 edi
  0004e	e8 00 00 00 00	 call	 ??$?MDU?$char_traits@D@std@@V?$allocator@D@1@@std@@YA_NABV?$basic_string@DU?$char_traits@D@std@@V?$allocator@D@2@@0@0@Z ; std::operator<<char,std::char_traits<char>,std::allocator<char> >
  00053	83 c4 08	 add	 esp, 8
; File C:\Program Files (x86)\Microsoft Visual Studio\2019\Community\VC\Tools\MSVC\14.27.29110\include\xtree

; 1695 :         return !_Bound->_Isnil && !_DEBUG_LT_PRED(_Getcomp(), _Keyval, _Traits::_Kfn(_Bound->_Myval));

  00056	84 c0		 test	 al, al
  00058	75 07		 jne	 SHORT $LN4@insert
; File C:\Program Files (x86)\Microsoft Visual Studio\2019\Community\VC\Tools\MSVC\14.27.29110\include\utility

; 192  :         : first(_STD forward<_Other1>(_Val1)), second(_STD forward<_Other2>(_Val2)) {}

  0005a	32 c9		 xor	 cl, cl
; File C:\Program Files (x86)\Microsoft Visual Studio\2019\Community\VC\Tools\MSVC\14.27.29110\include\xtree

; 1011 :                 return {_Loc._Bound, false};

  0005c	e9 8c 00 00 00	 jmp	 $LN78@insert
$LN4@insert:

; 1719 :         if (max_size() == _Get_scary()->_Mysize) {

  00061	81 7b 04 5d 74
	d1 05		 cmp	 DWORD PTR [ebx+4], 97612893 ; 05d1745dH
  00068	0f 84 9b 00 00
	00		 je	 $LN92@insert

; 1015 :             _Inserted = _Tree_temp_node<_Alnode>(_Getal(), _Scary->_Myhead, _STD forward<_Valtys>(_Vals)...)._Release();

  0006e	8b 03		 mov	 eax, DWORD PTR [ebx]
  00070	89 45 f0	 mov	 DWORD PTR __Myhead$[ebp], eax
; File C:\Program Files (x86)\Microsoft Visual Studio\2019\Community\VC\Tools\MSVC\14.27.29110\include\xmemory

; 1040 :     explicit _Alloc_construct_ptr(_Alloc& _Al_) : _Al(_Al_), _Ptr(nullptr) {}

  00073	89 5d e8	 mov	 DWORD PTR $T4[ebp], ebx

; 807  :         return static_cast<_Ty*>(_Allocate<_New_alignof<_Ty>>(_Get_size_of_n<sizeof(_Ty)>(_Count)));

  00076	6a 2c		 push	 44			; 0000002cH
; File C:\Program Files (x86)\Microsoft Visual Studio\2019\Community\VC\Tools\MSVC\14.27.29110\include\xtree

; 784  :     explicit _Tree_temp_node_alloc(_Alnode& _Al_) : _Alloc_construct_ptr<_Alnode>(_Al_) {

  00078	c7 45 fc 00 00
	00 00		 mov	 DWORD PTR __$EHRec$[ebp+8], 0
; File C:\Program Files (x86)\Microsoft Visual Studio\2019\Community\VC\Tools\MSVC\14.27.29110\include\xmemory

; 1047 :         _Ptr = nullptr; // if allocate throws, prevents double-free

  0007f	c7 45 ec 00 00
	00 00		 mov	 DWORD PTR $T4[ebp+4], 0

; 807  :         return static_cast<_Ty*>(_Allocate<_New_alignof<_Ty>>(_Get_size_of_n<sizeof(_Ty)>(_Count)));

  00086	e8 00 00 00 00	 call	 ??$_Allocate@$07U_Default_allocate_traits@std@@$0A@@std@@YAPAXI@Z ; std::_Allocate<8,std::_Default_allocate_traits,0>

; 1048 :         _Ptr = _Al.allocate(1);

  0008b	8b f8		 mov	 edi, eax

; 807  :         return static_cast<_Ty*>(_Allocate<_New_alignof<_Ty>>(_Get_size_of_n<sizeof(_Ty)>(_Count)));

  0008d	83 c4 04	 add	 esp, 4

; 1048 :         _Ptr = _Al.allocate(1);

  00090	89 7d ec	 mov	 DWORD PTR $T4[ebp+4], edi
; File C:\DS Project\DS Files\Source\ClientSource\Client\EterLib\SkyBox.cpp

  00093	ff 75 0c	 push	 DWORD PTR __Val$[ebp]
  00096	8d 4f 10	 lea	 ecx, DWORD PTR [edi+16]
; File C:\Program Files (x86)\Microsoft Visual Studio\2019\Community\VC\Tools\MSVC\14.27.29110\include\xtree

; 805  :         : _Tree_temp_node_alloc<_Alnode>(_Al_) {

  00099	c7 45 fc 01 00
	00 00		 mov	 DWORD PTR __$EHRec$[ebp+8], 1
; File C:\DS Project\DS Files\Source\ClientSource\Client\EterLib\SkyBox.cpp

  000a0	e8 00 00 00 00	 call	 ??0?$basic_string@DU?$char_traits@D@std@@V?$allocator@D@2@@std@@QAE@ABV01@@Z ; std::basic_string<char,std::char_traits<char>,std::allocator<char> >::basic_string<char,std::char_traits<char>,std::allocator<char> >
  000a5	8b 45 0c	 mov	 eax, DWORD PTR __Val$[ebp]
  000a8	8b 48 18	 mov	 ecx, DWORD PTR [eax+24]
; File C:\Program Files (x86)\Microsoft Visual Studio\2019\Community\VC\Tools\MSVC\14.27.29110\include\xtree

; 807  :         _Construct_in_place(this->_Ptr->_Left, _Myhead);

  000ab	8d 45 f0	 lea	 eax, DWORD PTR __Myhead$[ebp]
  000ae	50		 push	 eax
  000af	57		 push	 edi
; File C:\DS Project\DS Files\Source\ClientSource\Client\EterLib\SkyBox.cpp

  000b0	89 4f 28	 mov	 DWORD PTR [edi+40], ecx
; File C:\Program Files (x86)\Microsoft Visual Studio\2019\Community\VC\Tools\MSVC\14.27.29110\include\xtree

; 807  :         _Construct_in_place(this->_Ptr->_Left, _Myhead);

  000b3	e8 00 00 00 00	 call	 ??$_Construct_in_place@PAU?$_Tree_node@U?$pair@$$CBV?$basic_string@DU?$char_traits@D@std@@V?$allocator@D@2@@std@@PAVCGraphicImageInstance@@@std@@PAX@std@@AAPAU12@@std@@YAXAAPAU?$_Tree_node@U?$pair@$$CBV?$basic_string@DU?$char_traits@D@std@@V?$allocator@D@2@@std@@PAVCGraphicImageInstance@@@std@@PAX@0@0@Z ; std::_Construct_in_place<std::_Tree_node<std::pair<std::basic_string<char,std::char_traits<char>,std::allocator<char> > const ,CGraphicImageInstance *>,void *> *,std::_Tree_node<std::pair<std::basic_string<char,std::char_traits<char>,std::allocator<char> > const ,CGraphicImageInstance *>,void *> * &>

; 808  :         _Construct_in_place(this->_Ptr->_Parent, _Myhead);

  000b8	8d 45 f0	 lea	 eax, DWORD PTR __Myhead$[ebp]
  000bb	50		 push	 eax
  000bc	8d 47 04	 lea	 eax, DWORD PTR [edi+4]
  000bf	50		 push	 eax
  000c0	e8 00 00 00 00	 call	 ??$_Construct_in_place@PAU?$_Tree_node@U?$pair@$$CBV?$basic_string@DU?$char_traits@D@std@@V?$allocator@D@2@@std@@PAVCGraphicImageInstance@@@std@@PAX@std@@AAPAU12@@std@@YAXAAPAU?$_Tree_node@U?$pair@$$CBV?$basic_string@DU?$char_traits@D@std@@V?$allocator@D@2@@std@@PAVCGraphicImageInstance@@@std@@PAX@0@0@Z ; std::_Construct_in_place<std::_Tree_node<std::pair<std::basic_string<char,std::char_traits<char>,std::allocator<char> > const ,CGraphicImageInstance *>,void *> *,std::_Tree_node<std::pair<std::basic_string<char,std::char_traits<char>,std::allocator<char> > const ,CGraphicImageInstance *>,void *> * &>

; 809  :         _Construct_in_place(this->_Ptr->_Right, _Myhead);

  000c5	8d 45 f0	 lea	 eax, DWORD PTR __Myhead$[ebp]
  000c8	50		 push	 eax
  000c9	8d 47 08	 lea	 eax, DWORD PTR [edi+8]
  000cc	50		 push	 eax
  000cd	e8 00 00 00 00	 call	 ??$_Construct_in_place@PAU?$_Tree_node@U?$pair@$$CBV?$basic_string@DU?$char_traits@D@std@@V?$allocator@D@2@@std@@PAVCGraphicImageInstance@@@std@@PAX@std@@AAPAU12@@std@@YAXAAPAU?$_Tree_node@U?$pair@$$CBV?$basic_string@DU?$char_traits@D@std@@V?$allocator@D@2@@std@@PAVCGraphicImageInstance@@@std@@PAX@0@0@Z ; std::_Construct_in_place<std::_Tree_node<std::pair<std::basic_string<char,std::char_traits<char>,std::allocator<char> > const ,CGraphicImageInstance *>,void *> *,std::_Tree_node<std::pair<std::basic_string<char,std::char_traits<char>,std::allocator<char> > const ,CGraphicImageInstance *>,void *> * &>
  000d2	83 c4 18	 add	 esp, 24			; 00000018H

; 810  :         this->_Ptr->_Color = _Red;

  000d5	66 c7 47 0c 00
	00		 mov	 WORD PTR [edi+12], 0

; 1034 :         return {_Scary->_Insert_node(_Loc._Location, _Inserted), true};

  000db	8b cb		 mov	 ecx, ebx
  000dd	57		 push	 edi
  000de	ff 75 dc	 push	 DWORD PTR __Loc$2[ebp+4]
  000e1	ff 75 d8	 push	 DWORD PTR __Loc$2[ebp]
  000e4	e8 00 00 00 00	 call	 ?_Insert_node@?$_Tree_val@U?$_Tree_simple_types@U?$pair@$$CBV?$basic_string@DU?$char_traits@D@std@@V?$allocator@D@2@@std@@PAVCGraphicImageInstance@@@std@@@std@@@std@@QAEPAU?$_Tree_node@U?$pair@$$CBV?$basic_string@DU?$char_traits@D@std@@V?$allocator@D@2@@std@@PAVCGraphicImageInstance@@@std@@PAX@2@U?$_Tree_id@PAU?$_Tree_node@U?$pair@$$CBV?$basic_string@DU?$char_traits@D@std@@V?$allocator@D@2@@std@@PAVCGraphicImageInstance@@@std@@PAX@std@@@2@QAU32@@Z ; std::_Tree_val<std::_Tree_simple_types<std::pair<std::basic_string<char,std::char_traits<char>,std::allocator<char> > const ,CGraphicImageInstance *> > >::_Insert_node
; File C:\Program Files (x86)\Microsoft Visual Studio\2019\Community\VC\Tools\MSVC\14.27.29110\include\utility

; 192  :         : first(_STD forward<_Other1>(_Val1)), second(_STD forward<_Other2>(_Val2)) {}

  000e9	8b f0		 mov	 esi, eax
  000eb	b1 01		 mov	 cl, 1
$LN78@insert:
  000ed	8b 45 08	 mov	 eax, DWORD PTR ___$ReturnUdt$[ebp]
  000f0	89 30		 mov	 DWORD PTR [eax], esi
  000f2	88 48 04	 mov	 BYTE PTR [eax+4], cl
; File C:\Program Files (x86)\Microsoft Visual Studio\2019\Community\VC\Tools\MSVC\14.27.29110\include\xtree

; 1346 :     }

  000f5	8b 4d f4	 mov	 ecx, DWORD PTR __$EHRec$[ebp]
  000f8	64 89 0d 00 00
	00 00		 mov	 DWORD PTR fs:0, ecx
  000ff	59		 pop	 ecx
  00100	5f		 pop	 edi
  00101	5e		 pop	 esi
  00102	5b		 pop	 ebx
  00103	8b e5		 mov	 esp, ebp
  00105	5d		 pop	 ebp
  00106	c2 08 00	 ret	 8
$LN92@insert:

; 1720 :             _Throw_tree_length_error();

  00109	e8 00 00 00 00	 call	 ?_Throw_tree_length_error@std@@YAXXZ ; std::_Throw_tree_length_error
$LN90@insert:
  0010e	cc		 int	 3
_TEXT	ENDS
;	COMDAT text$x
text$x	SEGMENT
__unwindfunclet$??$insert@$0A@$0A@@?$_Tree@V?$_Tmap_traits@V?$basic_string@DU?$char_traits@D@std@@V?$allocator@D@2@@std@@PAVCGraphicImageInstance@@U?$less@V?$basic_string@DU?$char_traits@D@std@@V?$allocator@D@2@@std@@@2@V?$allocator@U?$pair@$$CBV?$basic_string@DU?$char_traits@D@std@@V?$allocator@D@2@@std@@PAVCGraphicImageInstance@@@std@@@2@$0A@@std@@@std@@QAE?AU?$pair@V?$_Tree_iterator@V?$_Tree_val@U?$_Tree_simple_types@U?$pair@$$CBV?$basic_string@DU?$char_traits@D@std@@V?$allocator@D@2@@std@@PAVCGraphicImageInstance@@@std@@@std@@@std@@@std@@_N@1@$$QAU?$pair@$$CBV?$basic_string@DU?$char_traits@D@std@@V?$allocator@D@2@@std@@PAVCGraphicImageInstance@@@1@@Z$2:
  00000	8d 4d e8	 lea	 ecx, DWORD PTR $T4[ebp]
  00003	e9 00 00 00 00	 jmp	 ??1?$_Alloc_construct_ptr@V?$allocator@U?$_Tree_node@U?$pair@$$CBV?$basic_string@DU?$char_traits@D@std@@V?$allocator@D@2@@std@@PAVCGraphicImageInstance@@@std@@PAX@std@@@std@@@std@@QAE@XZ ; std::_Alloc_construct_ptr<std::allocator<std::_Tree_node<std::pair<std::basic_string<char,std::char_traits<char>,std::allocator<char> > const ,CGraphicImageInstance *>,void *> > >::~_Alloc_construct_ptr<std::allocator<std::_Tree_node<std::pair<std::basic_string<char,std::char_traits<char>,std::allocator<char> > const ,CGraphicImageInstance *>,void *> > >
__unwindfunclet$??$insert@$0A@$0A@@?$_Tree@V?$_Tmap_traits@V?$basic_string@DU?$char_traits@D@std@@V?$allocator@D@2@@std@@PAVCGraphicImageInstance@@U?$less@V?$basic_string@DU?$char_traits@D@std@@V?$allocator@D@2@@std@@@2@V?$allocator@U?$pair@$$CBV?$basic_string@DU?$char_traits@D@std@@V?$allocator@D@2@@std@@PAVCGraphicImageInstance@@@std@@@2@$0A@@std@@@std@@QAE?AU?$pair@V?$_Tree_iterator@V?$_Tree_val@U?$_Tree_simple_types@U?$pair@$$CBV?$basic_string@DU?$char_traits@D@std@@V?$allocator@D@2@@std@@PAVCGraphicImageInstance@@@std@@@std@@@std@@@std@@_N@1@$$QAU?$pair@$$CBV?$basic_string@DU?$char_traits@D@std@@V?$allocator@D@2@@std@@PAVCGraphicImageInstance@@@1@@Z$1:
  00008	8d 4d e8	 lea	 ecx, DWORD PTR $T4[ebp]
  0000b	e9 00 00 00 00	 jmp	 ??1?$_Tree_temp_node_alloc@V?$allocator@U?$_Tree_node@U?$pair@$$CBV?$basic_string@DU?$char_traits@D@std@@V?$allocator@D@2@@std@@PAVCGraphicImageInstance@@@std@@PAX@std@@@std@@@std@@QAE@XZ
  00010	cc		 int	 3
  00011	cc		 int	 3
  00012	cc		 int	 3
  00013	cc		 int	 3
  00014	cc		 int	 3
__ehhandler$??$insert@$0A@$0A@@?$_Tree@V?$_Tmap_traits@V?$basic_string@DU?$char_traits@D@std@@V?$allocator@D@2@@std@@PAVCGraphicImageInstance@@U?$less@V?$basic_string@DU?$char_traits@D@std@@V?$allocator@D@2@@std@@@2@V?$allocator@U?$pair@$$CBV?$basic_string@DU?$char_traits@D@std@@V?$allocator@D@2@@std@@PAVCGraphicImageInstance@@@std@@@2@$0A@@std@@@std@@QAE?AU?$pair@V?$_Tree_iterator@V?$_Tree_val@U?$_Tree_simple_types@U?$pair@$$CBV?$basic_string@DU?$char_traits@D@std@@V?$allocator@D@2@@std@@PAVCGraphicImageInstance@@@std@@@std@@@std@@@std@@_N@1@$$QAU?$pair@$$CBV?$basic_string@DU?$char_traits@D@std@@V?$allocator@D@2@@std@@PAVCGraphicImageInstance@@@1@@Z:
  00015	90		 npad	 1
  00016	90		 npad	 1
  00017	8b 54 24 08	 mov	 edx, DWORD PTR [esp+8]
  0001b	8d 42 0c	 lea	 eax, DWORD PTR [edx+12]
  0001e	8b 4a d4	 mov	 ecx, DWORD PTR [edx-44]
  00021	33 c8		 xor	 ecx, eax
  00023	e8 00 00 00 00	 call	 @__security_check_cookie@4
  00028	b8 00 00 00 00	 mov	 eax, OFFSET __ehfuncinfo$??$insert@$0A@$0A@@?$_Tree@V?$_Tmap_traits@V?$basic_string@DU?$char_traits@D@std@@V?$allocator@D@2@@std@@PAVCGraphicImageInstance@@U?$less@V?$basic_string@DU?$char_traits@D@std@@V?$allocator@D@2@@std@@@2@V?$allocator@U?$pair@$$CBV?$basic_string@DU?$char_traits@D@std@@V?$allocator@D@2@@std@@PAVCGraphicImageInstance@@@std@@@2@$0A@@std@@@std@@QAE?AU?$pair@V?$_Tree_iterator@V?$_Tree_val@U?$_Tree_simple_types@U?$pair@$$CBV?$basic_string@DU?$char_traits@D@std@@V?$allocator@D@2@@std@@PAVCGraphicImageInstance@@@std@@@std@@@std@@@std@@_N@1@$$QAU?$pair@$$CBV?$basic_string@DU?$char_traits@D@std@@V?$allocator@D@2@@std@@PAVCGraphicImageInstance@@@1@@Z
  0002d	e9 00 00 00 00	 jmp	 ___CxxFrameHandler3
text$x	ENDS
??$insert@$0A@$0A@@?$_Tree@V?$_Tmap_traits@V?$basic_string@DU?$char_traits@D@std@@V?$allocator@D@2@@std@@PAVCGraphicImageInstance@@U?$less@V?$basic_string@DU?$char_traits@D@std@@V?$allocator@D@2@@std@@@2@V?$allocator@U?$pair@$$CBV?$basic_string@DU?$char_traits@D@std@@V?$allocator@D@2@@std@@PAVCGraphicImageInstance@@@std@@@2@$0A@@std@@@std@@QAE?AU?$pair@V?$_Tree_iterator@V?$_Tree_val@U?$_Tree_simple_types@U?$pair@$$CBV?$basic_string@DU?$char_traits@D@std@@V?$allocator@D@2@@std@@PAVCGraphicImageInstance@@@std@@@std@@@std@@@std@@_N@1@$$QAU?$pair@$$CBV?$basic_string@DU?$char_traits@D@std@@V?$allocator@D@2@@std@@PAVCGraphicImageInstance@@@1@@Z ENDP ; std::_Tree<std::_Tmap_traits<std::basic_string<char,std::char_traits<char>,std::allocator<char> >,CGraphicImageInstance *,std::less<std::basic_string<char,std::char_traits<char>,std::allocator<char> > >,std::allocator<std::pair<std::basic_string<char,std::char_traits<char>,std::allocator<char> > const ,CGraphicImageInstance *> >,0> >::insert<0,0>
; Function compile flags: /Ogtp
; File C:\Program Files (x86)\Microsoft Visual Studio\2019\Community\VC\Tools\MSVC\14.27.29110\include\xstring
; File C:\Program Files (x86)\Microsoft Visual Studio\2019\Community\VC\Tools\MSVC\14.27.29110\include\xmemory
; File C:\Program Files (x86)\Microsoft Visual Studio\2019\Community\VC\Tools\MSVC\14.27.29110\include\xstring
;	COMDAT ??1?$pair@$$CBV?$basic_string@DU?$char_traits@D@std@@V?$allocator@D@2@@std@@PAVCGraphicImageInstance@@@std@@QAE@XZ
_TEXT	SEGMENT
??1?$pair@$$CBV?$basic_string@DU?$char_traits@D@std@@V?$allocator@D@2@@std@@PAVCGraphicImageInstance@@@std@@QAE@XZ PROC ; std::pair<std::basic_string<char,std::char_traits<char>,std::allocator<char> > const ,CGraphicImageInstance *>::~pair<std::basic_string<char,std::char_traits<char>,std::allocator<char> > const ,CGraphicImageInstance *>, COMDAT
; _this$ = ecx

; 2153 :         return _BUF_SIZE <= _Myres;

  00000	56		 push	 esi
  00001	8b f1		 mov	 esi, ecx
  00003	8b 46 14	 mov	 eax, DWORD PTR [esi+20]
  00006	83 f8 10	 cmp	 eax, 16			; 00000010H

; 4301 :         if (_Mypair._Myval2._Large_string_engaged()) {

  00009	72 0c		 jb	 SHORT $LN7@pair

; 4302 :             const pointer _Ptr = _Mypair._Myval2._Bx._Ptr;
; 4303 :             auto& _Al          = _Getal();
; 4304 :             _Destroy_in_place(_Mypair._Myval2._Bx._Ptr);
; 4305 :             _Al.deallocate(_Ptr, _Mypair._Myval2._Myres + 1);

  0000b	40		 inc	 eax
; File C:\Program Files (x86)\Microsoft Visual Studio\2019\Community\VC\Tools\MSVC\14.27.29110\include\xmemory

; 803  :         _Deallocate<_New_alignof<_Ty>>(_Ptr, sizeof(_Ty) * _Count);

  0000c	50		 push	 eax
  0000d	ff 36		 push	 DWORD PTR [esi]
  0000f	e8 00 00 00 00	 call	 ??$_Deallocate@$07$0A@@std@@YAXPAXI@Z ; std::_Deallocate<8,0>
  00014	83 c4 08	 add	 esp, 8
$LN7@pair:
; File C:\Program Files (x86)\Microsoft Visual Studio\2019\Community\VC\Tools\MSVC\14.27.29110\include\xstring

; 4308 :         _Mypair._Myval2._Mysize = 0;

  00017	c7 46 10 00 00
	00 00		 mov	 DWORD PTR [esi+16], 0

; 4309 :         _Mypair._Myval2._Myres  = _BUF_SIZE - 1;

  0001e	c7 46 14 0f 00
	00 00		 mov	 DWORD PTR [esi+20], 15	; 0000000fH

; 4310 :         // the _Traits::assign is last so the codegen doesn't think the char write can alias this
; 4311 :         _Traits::assign(_Mypair._Myval2._Bx._Buf[0], _Elem());

  00025	c6 06 00	 mov	 BYTE PTR [esi], 0
  00028	5e		 pop	 esi
  00029	c3		 ret	 0
??1?$pair@$$CBV?$basic_string@DU?$char_traits@D@std@@V?$allocator@D@2@@std@@PAVCGraphicImageInstance@@@std@@QAE@XZ ENDP ; std::pair<std::basic_string<char,std::char_traits<char>,std::allocator<char> > const ,CGraphicImageInstance *>::~pair<std::basic_string<char,std::char_traits<char>,std::allocator<char> > const ,CGraphicImageInstance *>
_TEXT	ENDS
; Function compile flags: /Ogtp
;	COMDAT ??_GCSkyBox@@UAEPAXI@Z
_TEXT	SEGMENT
___flags$ = 8						; size = 4
??_GCSkyBox@@UAEPAXI@Z PROC				; CSkyBox::`scalar deleting destructor', COMDAT
; _this$ = ecx
  00000	55		 push	 ebp
  00001	8b ec		 mov	 ebp, esp
  00003	56		 push	 esi
  00004	8b f1		 mov	 esi, ecx
  00006	e8 00 00 00 00	 call	 ??1CSkyBox@@UAE@XZ	; CSkyBox::~CSkyBox
  0000b	f6 45 08 01	 test	 BYTE PTR ___flags$[ebp], 1
  0000f	74 0e		 je	 SHORT $LN4@scalar
  00011	68 80 03 00 00	 push	 896			; 00000380H
  00016	56		 push	 esi
  00017	e8 00 00 00 00	 call	 ??3@YAXPAXI@Z		; operator delete
  0001c	83 c4 08	 add	 esp, 8
$LN4@scalar:
  0001f	8b c6		 mov	 eax, esi
  00021	5e		 pop	 esi
  00022	5d		 pop	 ebp
  00023	c2 04 00	 ret	 4
??_GCSkyBox@@UAEPAXI@Z ENDP				; CSkyBox::`scalar deleting destructor'
_TEXT	ENDS
; Function compile flags: /Ogtp
; File C:\DS Project\DS Files\Source\ClientSource\Client\EterLib\SkyBox.cpp
; File C:\Program Files (x86)\Microsoft Visual Studio\2019\Community\VC\Tools\MSVC\14.27.29110\include\vector
; File C:\DS Project\DS Files\Source\ClientSource\Client\EterLib\SkyBox.cpp
; File C:\Program Files (x86)\Microsoft Visual Studio\2019\Community\VC\Tools\MSVC\14.27.29110\include\vector
; File C:\DS Project\DS Files\Source\ClientSource\Client\EterLib\SkyBox.cpp
; File C:\Program Files (x86)\Microsoft Visual Studio\2019\Community\VC\Tools\MSVC\14.27.29110\include\vector
; File C:\DS Project\DS Files\Source\ClientSource\Client\EterLib\SkyBox.cpp
; File C:\Program Files (x86)\Microsoft Visual Studio\2019\Community\VC\Tools\MSVC\14.27.29110\include\vector
; File C:\DS Project\DS Files\Source\ClientSource\Client\EterLib\SkyBox.cpp
; File C:\Program Files (x86)\Microsoft Visual Studio\2019\Community\VC\Tools\MSVC\14.27.29110\include\vector
; File C:\DS Project\DS Files\Source\ClientSource\Client\EterLib\SkyBox.cpp
;	COMDAT ?SetSkyObjectQuadHorizon@CSkyBox@@IAEXPAV?$vector@VCSkyObjectQuad@@V?$allocator@VCSkyObjectQuad@@@std@@@std@@PBUD3DXVECTOR3@@@Z
_TEXT	SEGMENT
_aPDTVertex$ = -24					; size = 24
_pSkyObjectQuadVector$ = 8				; size = 4
$T1 = 11						; size = 1
$T2 = 11						; size = 1
$T3 = 11						; size = 1
$T4 = 11						; size = 1
_c_pv3QuadPoints$ = 12					; size = 4
?SetSkyObjectQuadHorizon@CSkyBox@@IAEXPAV?$vector@VCSkyObjectQuad@@V?$allocator@VCSkyObjectQuad@@@std@@@std@@PBUD3DXVECTOR3@@@Z PROC ; CSkyBox::SetSkyObjectQuadHorizon, COMDAT
; _this$ = ecx

; 403  : {

  00000	55		 push	 ebp
  00001	8b ec		 mov	 ebp, esp
  00003	83 ec 18	 sub	 esp, 24			; 00000018H
  00006	56		 push	 esi
; File C:\Program Files (x86)\Microsoft Visual Studio\2019\Community\VC\Tools\MSVC\14.27.29110\include\vector

; 1386 :         pointer& _Mylast  = _My_data._Mylast;

  00007	8b 75 08	 mov	 esi, DWORD PTR _pSkyObjectQuadVector$[ebp]
; File C:\DS Project\DS Files\Source\ClientSource\Client\EterLib\SkyBox.cpp

; 403  : {

  0000a	57		 push	 edi
; File C:\Program Files (x86)\Microsoft Visual Studio\2019\Community\VC\Tools\MSVC\14.27.29110\include\vector

; 1612 :         _Destroy_range(_First, _Last, _Getal());

  0000b	56		 push	 esi
  0000c	ff 76 04	 push	 DWORD PTR [esi+4]
  0000f	ff 36		 push	 DWORD PTR [esi]
  00011	e8 00 00 00 00	 call	 ??$_Destroy_range@V?$allocator@VCSkyObjectQuad@@@std@@@std@@YAXPAVCSkyObjectQuad@@QAV1@AAV?$allocator@VCSkyObjectQuad@@@0@@Z ; std::_Destroy_range<std::allocator<CSkyObjectQuad> >

; 1390 :         _Mylast = _Myfirst;

  00016	8b 06		 mov	 eax, DWORD PTR [esi]

; 1612 :         _Destroy_range(_First, _Last, _Getal());

  00018	83 c4 0c	 add	 esp, 12			; 0000000cH
; File C:\DS Project\DS Files\Source\ClientSource\Client\EterLib\SkyBox.cpp

; 405  : 	pSkyObjectQuadVector->resize(1);

  0001b	8b ce		 mov	 ecx, esi
; File C:\Program Files (x86)\Microsoft Visual Studio\2019\Community\VC\Tools\MSVC\14.27.29110\include\vector

; 1390 :         _Mylast = _Myfirst;

  0001d	89 46 04	 mov	 DWORD PTR [esi+4], eax
; File C:\DS Project\DS Files\Source\ClientSource\Client\EterLib\SkyBox.cpp

; 405  : 	pSkyObjectQuadVector->resize(1);

  00020	6a 01		 push	 1
  00022	e8 00 00 00 00	 call	 ?resize@?$vector@VCSkyObjectQuad@@V?$allocator@VCSkyObjectQuad@@@std@@@std@@QAEXI@Z ; std::vector<CSkyObjectQuad,std::allocator<CSkyObjectQuad> >::resize
; File C:\Program Files (x86)\Microsoft Visual Studio\2019\Community\VC\Tools\MSVC\14.27.29110\include\vector

; 1519 :         if (static_cast<size_type>(_My_data._Mylast - _My_data._Myfirst) <= _Pos) {

  00027	8b 4e 04	 mov	 ecx, DWORD PTR [esi+4]
  0002a	b8 b5 81 4e 1b	 mov	 eax, 458129845		; 1b4e81b5H
  0002f	8b 3e		 mov	 edi, DWORD PTR [esi]
  00031	2b cf		 sub	 ecx, edi
  00033	f7 e9		 imul	 ecx
  00035	c1 fa 05	 sar	 edx, 5
  00038	8b c2		 mov	 eax, edx
  0003a	c1 e8 1f	 shr	 eax, 31			; 0000001fH
  0003d	03 c2		 add	 eax, edx
  0003f	0f 84 c0 00 00
	00		 je	 $LN13@SetSkyObje
; File C:\DS Project\DS Files\Source\ClientSource\Client\EterLib\SkyBox.cpp

; 412  : 	rSkyObjectQuad.SetVertex(0, aPDTVertex);

  00045	8b 75 0c	 mov	 esi, DWORD PTR _c_pv3QuadPoints$[ebp]
  00048	8b cf		 mov	 ecx, edi
  0004a	c7 45 f8 00 00
	00 00		 mov	 DWORD PTR _aPDTVertex$[ebp+16], 0
  00051	c7 45 fc 00 00
	80 3f		 mov	 DWORD PTR _aPDTVertex$[ebp+20], 1065353216 ; 3f800000H
  00058	c6 45 0b 00	 mov	 BYTE PTR $T4[ebp], 0
  0005c	8b 46 08	 mov	 eax, DWORD PTR [esi+8]
  0005f	f3 0f 7e 06	 movq	 xmm0, QWORD PTR [esi]
  00063	89 45 f0	 mov	 DWORD PTR _aPDTVertex$[ebp+8], eax
  00066	8d 45 e8	 lea	 eax, DWORD PTR _aPDTVertex$[ebp]
  00069	50		 push	 eax
  0006a	8d 45 0b	 lea	 eax, DWORD PTR $T4[ebp]
  0006d	66 0f d6 45 e8	 movq	 QWORD PTR _aPDTVertex$[ebp], xmm0
  00072	50		 push	 eax
  00073	e8 00 00 00 00	 call	 ?SetVertex@CSkyObjectQuad@@QAEXABEABUSPDTVertex@@@Z ; CSkyObjectQuad::SetVertex

; 413  : 
; 414  : 	aPDTVertex.position		= c_pv3QuadPoints[1];

  00078	8b 46 14	 mov	 eax, DWORD PTR [esi+20]

; 415  : 	aPDTVertex.texCoord.x	= 0.0f;
; 416  : 	aPDTVertex.texCoord.y	= 0.0f;
; 417  : 	rSkyObjectQuad.SetVertex(1, aPDTVertex);

  0007b	8b cf		 mov	 ecx, edi
  0007d	f3 0f 7e 46 0c	 movq	 xmm0, QWORD PTR [esi+12]
  00082	89 45 f0	 mov	 DWORD PTR _aPDTVertex$[ebp+8], eax
  00085	8d 45 e8	 lea	 eax, DWORD PTR _aPDTVertex$[ebp]
  00088	50		 push	 eax
  00089	8d 45 0b	 lea	 eax, DWORD PTR $T3[ebp]
  0008c	66 0f d6 45 e8	 movq	 QWORD PTR _aPDTVertex$[ebp], xmm0
  00091	50		 push	 eax
  00092	c7 45 fc 00 00
	00 00		 mov	 DWORD PTR _aPDTVertex$[ebp+20], 0
  00099	c6 45 0b 01	 mov	 BYTE PTR $T3[ebp], 1
  0009d	e8 00 00 00 00	 call	 ?SetVertex@CSkyObjectQuad@@QAEXABEABUSPDTVertex@@@Z ; CSkyObjectQuad::SetVertex

; 418  : 
; 419  : 	aPDTVertex.position		= c_pv3QuadPoints[2];

  000a2	8b 46 20	 mov	 eax, DWORD PTR [esi+32]

; 420  : 	aPDTVertex.texCoord.x	= 1.0f;
; 421  : 	aPDTVertex.texCoord.y	= 1.0f;
; 422  : 	rSkyObjectQuad.SetVertex(2, aPDTVertex);

  000a5	8b cf		 mov	 ecx, edi
  000a7	f3 0f 7e 46 18	 movq	 xmm0, QWORD PTR [esi+24]
  000ac	89 45 f0	 mov	 DWORD PTR _aPDTVertex$[ebp+8], eax
  000af	8d 45 e8	 lea	 eax, DWORD PTR _aPDTVertex$[ebp]
  000b2	50		 push	 eax
  000b3	8d 45 0b	 lea	 eax, DWORD PTR $T2[ebp]
  000b6	66 0f d6 45 e8	 movq	 QWORD PTR _aPDTVertex$[ebp], xmm0
  000bb	50		 push	 eax
  000bc	c7 45 f8 00 00
	80 3f		 mov	 DWORD PTR _aPDTVertex$[ebp+16], 1065353216 ; 3f800000H
  000c3	c7 45 fc 00 00
	80 3f		 mov	 DWORD PTR _aPDTVertex$[ebp+20], 1065353216 ; 3f800000H
  000ca	c6 45 0b 02	 mov	 BYTE PTR $T2[ebp], 2
  000ce	e8 00 00 00 00	 call	 ?SetVertex@CSkyObjectQuad@@QAEXABEABUSPDTVertex@@@Z ; CSkyObjectQuad::SetVertex

; 423  : 
; 424  : 	aPDTVertex.position		= c_pv3QuadPoints[3];

  000d3	8b 46 2c	 mov	 eax, DWORD PTR [esi+44]

; 425  : 	aPDTVertex.texCoord.x	= 1.0f;
; 426  : 	aPDTVertex.texCoord.y	= 0.0f;
; 427  : 	rSkyObjectQuad.SetVertex(3, aPDTVertex);

  000d6	8b cf		 mov	 ecx, edi
  000d8	f3 0f 7e 46 24	 movq	 xmm0, QWORD PTR [esi+36]
  000dd	89 45 f0	 mov	 DWORD PTR _aPDTVertex$[ebp+8], eax
  000e0	8d 45 e8	 lea	 eax, DWORD PTR _aPDTVertex$[ebp]
  000e3	50		 push	 eax
  000e4	8d 45 0b	 lea	 eax, DWORD PTR $T1[ebp]
  000e7	66 0f d6 45 e8	 movq	 QWORD PTR _aPDTVertex$[ebp], xmm0
  000ec	50		 push	 eax
  000ed	c7 45 fc 00 00
	00 00		 mov	 DWORD PTR _aPDTVertex$[ebp+20], 0
  000f4	c6 45 0b 03	 mov	 BYTE PTR $T1[ebp], 3
  000f8	e8 00 00 00 00	 call	 ?SetVertex@CSkyObjectQuad@@QAEXABEABUSPDTVertex@@@Z ; CSkyObjectQuad::SetVertex
  000fd	5f		 pop	 edi
  000fe	5e		 pop	 esi

; 428  : }

  000ff	8b e5		 mov	 esp, ebp
  00101	5d		 pop	 ebp
  00102	c2 08 00	 ret	 8
$LN13@SetSkyObje:
; File C:\Program Files (x86)\Microsoft Visual Studio\2019\Community\VC\Tools\MSVC\14.27.29110\include\vector

; 1520 :             _Xrange();

  00105	e8 00 00 00 00	 call	 ?_Xrange@?$vector@VCSkyObjectQuad@@V?$allocator@VCSkyObjectQuad@@@std@@@std@@CAXXZ ; std::vector<CSkyObjectQuad,std::allocator<CSkyObjectQuad> >::_Xrange
$LN11@SetSkyObje:
  0010a	cc		 int	 3
?SetSkyObjectQuadHorizon@CSkyBox@@IAEXPAV?$vector@VCSkyObjectQuad@@V?$allocator@VCSkyObjectQuad@@@std@@@std@@PBUD3DXVECTOR3@@@Z ENDP ; CSkyBox::SetSkyObjectQuadHorizon
_TEXT	ENDS
; Function compile flags: /Ogtp
; File C:\DS Project\DS Files\Source\ClientSource\Client\EterLib\SkyBox.cpp
; File C:\Program Files (x86)\Microsoft Visual Studio\2019\Community\VC\Tools\MSVC\14.27.29110\include\vector
; File C:\DS Project\DS Files\Source\ClientSource\Client\EterLib\SkyBox.cpp
; File C:\Program Files (x86)\Microsoft Visual Studio\2019\Community\VC\Tools\MSVC\14.27.29110\include\vector
; File C:\DS Project\DS Files\Source\ClientSource\Client\EterLib\SkyBox.cpp
; File C:\Program Files (x86)\Microsoft Visual Studio\2019\Community\VC\Tools\MSVC\14.27.29110\include\vector
; File C:\DS Project\DS Files\Source\ClientSource\Client\EterLib\SkyBox.cpp
; File C:\Program Files (x86)\Microsoft Visual Studio\2019\Community\VC\Tools\MSVC\14.27.29110\include\vector
; File C:\DS Project\DS Files\Source\ClientSource\Client\EterLib\SkyBox.cpp
; File C:\Program Files (x86)\Microsoft Visual Studio\2019\Community\VC\Tools\MSVC\14.27.29110\include\vector
; File C:\DS Project\DS Files\Source\ClientSource\Client\EterLib\SkyBox.cpp
; File C:\Program Files (x86)\Microsoft Visual Studio\2019\Community\VC\Tools\MSVC\14.27.29110\include\vector
; File C:\DS Project\DS Files\Source\ClientSource\Client\EterLib\SkyBox.cpp
; File C:\Program Files (x86)\Microsoft Visual Studio\2019\Community\VC\Tools\MSVC\14.27.29110\include\vector
; File C:\DS Project\DS Files\Source\ClientSource\Client\EterLib\SkyBox.cpp
; File C:\Program Files (x86)\Microsoft Visual Studio\2019\Community\VC\Tools\MSVC\14.27.29110\include\vector
; File C:\DS Project\DS Files\Source\ClientSource\Client\EterLib\SkyBox.cpp
; File C:\Program Files (x86)\Microsoft Visual Studio\2019\Community\VC\Tools\MSVC\14.27.29110\include\vector
; File C:\DS Project\DS Files\Source\ClientSource\Client\EterLib\SkyBox.cpp
; File C:\Program Files (x86)\Microsoft Visual Studio\2019\Community\VC\Tools\MSVC\14.27.29110\include\vector
; File C:\DS Project\DS Files\Source\ClientSource\Client\EterLib\SkyBox.cpp
; File C:\Program Files (x86)\Microsoft Visual Studio\2019\Community\VC\Tools\MSVC\14.27.29110\include\vector
; File C:\DS Project\DS Files\Source\ClientSource\Client\EterLib\SkyBox.cpp
; File C:\Program Files (x86)\Microsoft Visual Studio\2019\Community\VC\Tools\MSVC\14.27.29110\include\vector
; File C:\DS Project\DS Files\Source\ClientSource\Client\EterLib\SkyBox.cpp
;	COMDAT ?SetSkyObjectQuadVertical@CSkyBox@@IAEXPAV?$vector@VCSkyObjectQuad@@V?$allocator@VCSkyObjectQuad@@@std@@@std@@PBUD3DXVECTOR2@@@Z
_TEXT	SEGMENT
_aPDTVertex$ = -52					; size = 24
tv739 = -28						; size = 4
tv729 = -24						; size = 4
tv745 = -20						; size = 4
_rSkyObjectQuad$1$ = -20				; size = 4
tv746 = -16						; size = 4
_rSkyObjectQuad$1$ = -16				; size = 4
_dwIndex$1$ = -12					; size = 4
_this$1$ = -8						; size = 4
tv773 = -2						; size = 1
$T1 = -2						; size = 1
$T2 = -2						; size = 1
$T3 = -2						; size = 1
$T4 = -2						; size = 1
$T5 = -2						; size = 1
$T6 = -2						; size = 1
$T7 = -2						; size = 1
$T8 = -2						; size = 1
_ucY$2$ = -1						; size = 1
_ucY$1$ = -1						; size = 1
_pSkyObjectQuadVector$ = 8				; size = 4
_c_pv2QuadPoints$ = 12					; size = 4
?SetSkyObjectQuadVertical@CSkyBox@@IAEXPAV?$vector@VCSkyObjectQuad@@V?$allocator@VCSkyObjectQuad@@@std@@@std@@PBUD3DXVECTOR2@@@Z PROC ; CSkyBox::SetSkyObjectQuadVertical, COMDAT
; _this$ = ecx

; 321  : {

  00000	55		 push	 ebp
  00001	8b ec		 mov	 ebp, esp
  00003	83 ec 34	 sub	 esp, 52			; 00000034H
  00006	56		 push	 esi
; File C:\Program Files (x86)\Microsoft Visual Studio\2019\Community\VC\Tools\MSVC\14.27.29110\include\vector

; 1612 :         _Destroy_range(_First, _Last, _Getal());

  00007	8b 75 08	 mov	 esi, DWORD PTR _pSkyObjectQuadVector$[ebp]
; File C:\DS Project\DS Files\Source\ClientSource\Client\EterLib\SkyBox.cpp

; 321  : {

  0000a	57		 push	 edi
; File C:\Program Files (x86)\Microsoft Visual Studio\2019\Community\VC\Tools\MSVC\14.27.29110\include\vector

; 1612 :         _Destroy_range(_First, _Last, _Getal());

  0000b	56		 push	 esi
; File C:\DS Project\DS Files\Source\ClientSource\Client\EterLib\SkyBox.cpp

; 321  : {

  0000c	89 4d f8	 mov	 DWORD PTR _this$1$[ebp], ecx

; 322  : 	TPDTVertex aPDTVertex;
; 323  : 
; 324  : 	DWORD dwIndex = 0;

  0000f	33 ff		 xor	 edi, edi
; File C:\Program Files (x86)\Microsoft Visual Studio\2019\Community\VC\Tools\MSVC\14.27.29110\include\vector

; 1612 :         _Destroy_range(_First, _Last, _Getal());

  00011	ff 76 04	 push	 DWORD PTR [esi+4]
  00014	ff 36		 push	 DWORD PTR [esi]
  00016	e8 00 00 00 00	 call	 ??$_Destroy_range@V?$allocator@VCSkyObjectQuad@@@std@@@std@@YAXPAVCSkyObjectQuad@@QAV1@AAV?$allocator@VCSkyObjectQuad@@@0@@Z ; std::_Destroy_range<std::allocator<CSkyObjectQuad> >

; 1390 :         _Mylast = _Myfirst;

  0001b	8b 06		 mov	 eax, DWORD PTR [esi]

; 1612 :         _Destroy_range(_First, _Last, _Getal());

  0001d	83 c4 0c	 add	 esp, 12			; 0000000cH

; 1390 :         _Mylast = _Myfirst;

  00020	89 46 04	 mov	 DWORD PTR [esi+4], eax
; File C:\DS Project\DS Files\Source\ClientSource\Client\EterLib\SkyBox.cpp

; 327  : 	pSkyObjectQuadVector->resize(m_ucVirticalGradientLevelUpper + m_ucVirticalGradientLevelLower);

  00023	8b 45 f8	 mov	 eax, DWORD PTR _this$1$[ebp]
  00026	0f b6 88 15 02
	00 00		 movzx	 ecx, BYTE PTR [eax+533]
  0002d	0f b6 80 14 02
	00 00		 movzx	 eax, BYTE PTR [eax+532]
  00034	03 c8		 add	 ecx, eax
  00036	51		 push	 ecx
  00037	8b ce		 mov	 ecx, esi
  00039	e8 00 00 00 00	 call	 ?resize@?$vector@VCSkyObjectQuad@@V?$allocator@VCSkyObjectQuad@@@std@@@std@@QAEXI@Z ; std::vector<CSkyObjectQuad,std::allocator<CSkyObjectQuad> >::resize

; 328  : 
; 329  : 	unsigned char ucY;
; 330  : 	for (ucY = 0; ucY < m_ucVirticalGradientLevelUpper; ++ucY)

  0003e	8b 45 f8	 mov	 eax, DWORD PTR _this$1$[ebp]
  00041	f3 0f 10 1d 00
	00 00 00	 movss	 xmm3, DWORD PTR __real@3f000000
  00049	c6 45 ff 00	 mov	 BYTE PTR _ucY$1$[ebp], 0
  0004d	80 b8 14 02 00
	00 00		 cmp	 BYTE PTR [eax+532], 0
  00054	0f 86 00 02 00
	00		 jbe	 $LN3@SetSkyObje
  0005a	89 7d f0	 mov	 DWORD PTR tv746[ebp], edi
  0005d	0f 1f 00	 npad	 3
$LL4@SetSkyObje:
; File C:\Program Files (x86)\Microsoft Visual Studio\2019\Community\VC\Tools\MSVC\14.27.29110\include\vector

; 1519 :         if (static_cast<size_type>(_My_data._Mylast - _My_data._Myfirst) <= _Pos) {

  00060	8b 4e 04	 mov	 ecx, DWORD PTR [esi+4]
  00063	b8 b5 81 4e 1b	 mov	 eax, 458129845		; 1b4e81b5H
  00068	2b 0e		 sub	 ecx, DWORD PTR [esi]
  0006a	f7 e9		 imul	 ecx
  0006c	c1 fa 05	 sar	 edx, 5
  0006f	8b c2		 mov	 eax, edx
  00071	c1 e8 1f	 shr	 eax, 31			; 0000001fH
  00074	03 c2		 add	 eax, edx
  00076	3b c7		 cmp	 eax, edi
  00078	0f 86 68 04 00
	00		 jbe	 $LN23@SetSkyObje
; File C:\DS Project\DS Files\Source\ClientSource\Client\EterLib\SkyBox.cpp

; 332  : 		CSkyObjectQuad & rSkyObjectQuad = pSkyObjectQuadVector->at(dwIndex++);

  0007e	8b 45 0c	 mov	 eax, DWORD PTR _c_pv2QuadPoints$[ebp]
  00081	47		 inc	 edi
; File C:\Program Files (x86)\Microsoft Visual Studio\2019\Community\VC\Tools\MSVC\14.27.29110\include\vector

; 1523 :         return _My_data._Myfirst[_Pos];

  00082	8b 0e		 mov	 ecx, DWORD PTR [esi]
; File C:\DS Project\DS Files\Source\ClientSource\Client\EterLib\SkyBox.cpp

; 332  : 		CSkyObjectQuad & rSkyObjectQuad = pSkyObjectQuadVector->at(dwIndex++);

  00084	89 7d f4	 mov	 DWORD PTR _dwIndex$1$[ebp], edi

; 333  : 
; 334  : 		aPDTVertex.position.x = c_pv2QuadPoints[0].x;
; 335  : 		aPDTVertex.position.y = c_pv2QuadPoints[0].y;
; 336  : 		aPDTVertex.position.z = 1.0f - (float)(ucY + 1)/ (float)(m_ucVirticalGradientLevelUpper);

  00087	0f b6 7d ff	 movzx	 edi, BYTE PTR _ucY$1$[ebp]
  0008b	f3 0f 10 00	 movss	 xmm0, DWORD PTR [eax]
  0008f	f3 0f 11 45 cc	 movss	 DWORD PTR _aPDTVertex$[ebp], xmm0
  00094	f3 0f 10 40 04	 movss	 xmm0, DWORD PTR [eax+4]
  00099	8b 45 f8	 mov	 eax, DWORD PTR _this$1$[ebp]
  0009c	8d 77 01	 lea	 esi, DWORD PTR [edi+1]
  0009f	f3 0f 11 45 d0	 movss	 DWORD PTR _aPDTVertex$[ebp+4], xmm0
  000a4	66 0f 6e ce	 movd	 xmm1, esi
  000a8	0f 5b c9	 cvtdq2ps xmm1, xmm1
  000ab	0f b6 80 14 02
	00 00		 movzx	 eax, BYTE PTR [eax+532]
; File C:\Program Files (x86)\Microsoft Visual Studio\2019\Community\VC\Tools\MSVC\14.27.29110\include\vector

; 1523 :         return _My_data._Myfirst[_Pos];

  000b2	8b 55 f0	 mov	 edx, DWORD PTR tv746[ebp]
  000b5	03 ca		 add	 ecx, edx
; File C:\DS Project\DS Files\Source\ClientSource\Client\EterLib\SkyBox.cpp

; 332  : 		CSkyObjectQuad & rSkyObjectQuad = pSkyObjectQuadVector->at(dwIndex++);

  000b7	81 c2 2c 01 00
	00		 add	 edx, 300		; 0000012cH
; File C:\Program Files (x86)\Microsoft Visual Studio\2019\Community\VC\Tools\MSVC\14.27.29110\include\vector

; 1523 :         return _My_data._Myfirst[_Pos];

  000bd	89 4d ec	 mov	 DWORD PTR _rSkyObjectQuad$1$[ebp], ecx
; File C:\DS Project\DS Files\Source\ClientSource\Client\EterLib\SkyBox.cpp

; 332  : 		CSkyObjectQuad & rSkyObjectQuad = pSkyObjectQuadVector->at(dwIndex++);

  000c0	89 55 f0	 mov	 DWORD PTR tv746[ebp], edx
  000c3	66 0f 6e c0	 movd	 xmm0, eax

; 337  : 		aPDTVertex.texCoord.x = 0.0f;
; 338  : 		aPDTVertex.texCoord.y = (float)(ucY + 1)/ (float)(m_ucVirticalGradientLevelUpper) * 0.5f;
; 339  : 		rSkyObjectQuad.SetVertex(0 , aPDTVertex);

  000c7	8d 45 cc	 lea	 eax, DWORD PTR _aPDTVertex$[ebp]
  000ca	0f 5b c0	 cvtdq2ps xmm0, xmm0
  000cd	50		 push	 eax
  000ce	8d 45 fe	 lea	 eax, DWORD PTR $T8[ebp]
  000d1	c7 45 dc 00 00
	00 00		 mov	 DWORD PTR _aPDTVertex$[ebp+16], 0
  000d8	50		 push	 eax
  000d9	c6 45 fe 00	 mov	 BYTE PTR $T8[ebp], 0
  000dd	f3 0f 5e c8	 divss	 xmm1, xmm0
  000e1	f3 0f 10 05 00
	00 00 00	 movss	 xmm0, DWORD PTR __real@3f800000
  000e9	f3 0f 5c c1	 subss	 xmm0, xmm1
  000ed	f3 0f 59 cb	 mulss	 xmm1, xmm3
  000f1	f3 0f 11 4d e0	 movss	 DWORD PTR _aPDTVertex$[ebp+20], xmm1
  000f6	f3 0f 11 45 d4	 movss	 DWORD PTR _aPDTVertex$[ebp+8], xmm0
  000fb	e8 00 00 00 00	 call	 ?SetVertex@CSkyObjectQuad@@QAEXABEABUSPDTVertex@@@Z ; CSkyObjectQuad::SetVertex

; 340  : 		aPDTVertex.position.x = c_pv2QuadPoints[0].x;

  00100	8b 45 0c	 mov	 eax, DWORD PTR _c_pv2QuadPoints$[ebp]
  00103	66 0f 6e cf	 movd	 xmm1, edi

; 341  : 		aPDTVertex.position.y = c_pv2QuadPoints[0].y;
; 342  : 		aPDTVertex.position.z = 1.0f - (float)(ucY) / (float)(m_ucVirticalGradientLevelUpper);

  00107	0f 5b c9	 cvtdq2ps xmm1, xmm1

; 343  : 		aPDTVertex.texCoord.x = 0.0f;
; 344  : 		aPDTVertex.texCoord.y = (float)(ucY)/ (float)(m_ucVirticalGradientLevelUpper) * 0.5f;
; 345  : 		rSkyObjectQuad.SetVertex(1, aPDTVertex);

  0010a	8b 4d ec	 mov	 ecx, DWORD PTR _rSkyObjectQuad$1$[ebp]
  0010d	c6 45 fe 01	 mov	 BYTE PTR $T7[ebp], 1
  00111	f3 0f 10 00	 movss	 xmm0, DWORD PTR [eax]
  00115	f3 0f 11 45 cc	 movss	 DWORD PTR _aPDTVertex$[ebp], xmm0
  0011a	f3 0f 10 40 04	 movss	 xmm0, DWORD PTR [eax+4]
  0011f	8b 45 f8	 mov	 eax, DWORD PTR _this$1$[ebp]
  00122	f3 0f 11 45 d0	 movss	 DWORD PTR _aPDTVertex$[ebp+4], xmm0
  00127	0f b6 80 14 02
	00 00		 movzx	 eax, BYTE PTR [eax+532]
  0012e	66 0f 6e c0	 movd	 xmm0, eax
  00132	8d 45 cc	 lea	 eax, DWORD PTR _aPDTVertex$[ebp]
  00135	0f 5b c0	 cvtdq2ps xmm0, xmm0
  00138	50		 push	 eax
  00139	8d 45 fe	 lea	 eax, DWORD PTR $T7[ebp]
  0013c	50		 push	 eax
  0013d	f3 0f 5e c8	 divss	 xmm1, xmm0
  00141	f3 0f 10 05 00
	00 00 00	 movss	 xmm0, DWORD PTR __real@3f800000
  00149	f3 0f 5c c1	 subss	 xmm0, xmm1
  0014d	f3 0f 59 0d 00
	00 00 00	 mulss	 xmm1, DWORD PTR __real@3f000000
  00155	f3 0f 11 4d e0	 movss	 DWORD PTR _aPDTVertex$[ebp+20], xmm1
  0015a	f3 0f 11 45 d4	 movss	 DWORD PTR _aPDTVertex$[ebp+8], xmm0
  0015f	e8 00 00 00 00	 call	 ?SetVertex@CSkyObjectQuad@@QAEXABEABUSPDTVertex@@@Z ; CSkyObjectQuad::SetVertex

; 346  : 		aPDTVertex.position.x = c_pv2QuadPoints[1].x;

  00164	8b 45 0c	 mov	 eax, DWORD PTR _c_pv2QuadPoints$[ebp]
  00167	66 0f 6e ce	 movd	 xmm1, esi

; 347  : 		aPDTVertex.position.y = c_pv2QuadPoints[1].y;
; 348  : 		aPDTVertex.position.z = 1.0f - (float)(ucY + 1) / (float)(m_ucVirticalGradientLevelUpper);

  0016b	0f 5b c9	 cvtdq2ps xmm1, xmm1

; 349  : 		aPDTVertex.texCoord.x = 1.0f;

  0016e	c7 45 dc 00 00
	80 3f		 mov	 DWORD PTR _aPDTVertex$[ebp+16], 1065353216 ; 3f800000H

; 350  : 		aPDTVertex.texCoord.y = (float)(ucY + 1)/ (float)(m_ucVirticalGradientLevelUpper) * 0.5f;
; 351  : 		rSkyObjectQuad.SetVertex(2, aPDTVertex);

  00175	c6 45 fe 02	 mov	 BYTE PTR $T6[ebp], 2
  00179	f3 0f 10 40 08	 movss	 xmm0, DWORD PTR [eax+8]
  0017e	f3 0f 11 45 cc	 movss	 DWORD PTR _aPDTVertex$[ebp], xmm0
  00183	f3 0f 10 40 0c	 movss	 xmm0, DWORD PTR [eax+12]
  00188	8b 45 f8	 mov	 eax, DWORD PTR _this$1$[ebp]
  0018b	f3 0f 11 45 d0	 movss	 DWORD PTR _aPDTVertex$[ebp+4], xmm0
  00190	0f b6 80 14 02
	00 00		 movzx	 eax, BYTE PTR [eax+532]
  00197	66 0f 6e c0	 movd	 xmm0, eax
  0019b	8d 45 cc	 lea	 eax, DWORD PTR _aPDTVertex$[ebp]
  0019e	0f 5b c0	 cvtdq2ps xmm0, xmm0
  001a1	50		 push	 eax
  001a2	8d 45 fe	 lea	 eax, DWORD PTR $T6[ebp]
  001a5	50		 push	 eax
  001a6	f3 0f 5e c8	 divss	 xmm1, xmm0
  001aa	f3 0f 10 05 00
	00 00 00	 movss	 xmm0, DWORD PTR __real@3f800000
  001b2	f3 0f 5c c1	 subss	 xmm0, xmm1
  001b6	f3 0f 59 0d 00
	00 00 00	 mulss	 xmm1, DWORD PTR __real@3f000000
  001be	f3 0f 11 4d e0	 movss	 DWORD PTR _aPDTVertex$[ebp+20], xmm1
  001c3	f3 0f 11 45 d4	 movss	 DWORD PTR _aPDTVertex$[ebp+8], xmm0
  001c8	8b 4d ec	 mov	 ecx, DWORD PTR _rSkyObjectQuad$1$[ebp]
  001cb	e8 00 00 00 00	 call	 ?SetVertex@CSkyObjectQuad@@QAEXABEABUSPDTVertex@@@Z ; CSkyObjectQuad::SetVertex

; 352  : 		aPDTVertex.position.x = c_pv2QuadPoints[1].x;

  001d0	8b 45 0c	 mov	 eax, DWORD PTR _c_pv2QuadPoints$[ebp]
  001d3	66 0f 6e cf	 movd	 xmm1, edi

; 353  : 		aPDTVertex.position.y = c_pv2QuadPoints[1].y;
; 354  : 		aPDTVertex.position.z = 1.0f - (float)(ucY) / (float)(m_ucVirticalGradientLevelUpper);

  001d7	0f 5b c9	 cvtdq2ps xmm1, xmm1

; 355  : 		aPDTVertex.texCoord.x = 1.0f;
; 356  : 		aPDTVertex.texCoord.y = (float)(ucY)/ (float)(m_ucVirticalGradientLevelUpper) * 0.5f;
; 357  : 		rSkyObjectQuad.SetVertex(3, aPDTVertex);

  001da	8b 4d ec	 mov	 ecx, DWORD PTR _rSkyObjectQuad$1$[ebp]
  001dd	c6 45 fe 03	 mov	 BYTE PTR $T5[ebp], 3
  001e1	f3 0f 10 40 08	 movss	 xmm0, DWORD PTR [eax+8]
  001e6	f3 0f 11 45 cc	 movss	 DWORD PTR _aPDTVertex$[ebp], xmm0
  001eb	f3 0f 10 40 0c	 movss	 xmm0, DWORD PTR [eax+12]
  001f0	8b 45 f8	 mov	 eax, DWORD PTR _this$1$[ebp]
  001f3	f3 0f 11 45 d0	 movss	 DWORD PTR _aPDTVertex$[ebp+4], xmm0
  001f8	0f b6 80 14 02
	00 00		 movzx	 eax, BYTE PTR [eax+532]
  001ff	66 0f 6e c0	 movd	 xmm0, eax
  00203	8d 45 cc	 lea	 eax, DWORD PTR _aPDTVertex$[ebp]
  00206	0f 5b c0	 cvtdq2ps xmm0, xmm0
  00209	50		 push	 eax
  0020a	8d 45 fe	 lea	 eax, DWORD PTR $T5[ebp]
  0020d	50		 push	 eax
  0020e	f3 0f 5e c8	 divss	 xmm1, xmm0
  00212	f3 0f 10 05 00
	00 00 00	 movss	 xmm0, DWORD PTR __real@3f800000
  0021a	f3 0f 5c c1	 subss	 xmm0, xmm1
  0021e	f3 0f 59 0d 00
	00 00 00	 mulss	 xmm1, DWORD PTR __real@3f000000
  00226	f3 0f 11 4d e0	 movss	 DWORD PTR _aPDTVertex$[ebp+20], xmm1
  0022b	f3 0f 11 45 d4	 movss	 DWORD PTR _aPDTVertex$[ebp+8], xmm0
  00230	e8 00 00 00 00	 call	 ?SetVertex@CSkyObjectQuad@@QAEXABEABUSPDTVertex@@@Z ; CSkyObjectQuad::SetVertex
  00235	8a 4d ff	 mov	 cl, BYTE PTR _ucY$1$[ebp]
  00238	8b 45 f8	 mov	 eax, DWORD PTR _this$1$[ebp]
  0023b	fe c1		 inc	 cl
  0023d	f3 0f 10 1d 00
	00 00 00	 movss	 xmm3, DWORD PTR __real@3f000000
  00245	8b 75 08	 mov	 esi, DWORD PTR _pSkyObjectQuadVector$[ebp]
  00248	8b 7d f4	 mov	 edi, DWORD PTR _dwIndex$1$[ebp]
  0024b	88 4d ff	 mov	 BYTE PTR _ucY$1$[ebp], cl
  0024e	3a 88 14 02 00
	00		 cmp	 cl, BYTE PTR [eax+532]
  00254	0f 82 06 fe ff
	ff		 jb	 $LL4@SetSkyObje
$LN3@SetSkyObje:

; 358  : 	}
; 359  : 	for (ucY = 0; ucY < m_ucVirticalGradientLevelLower; ++ucY)

  0025a	8a 80 15 02 00
	00		 mov	 al, BYTE PTR [eax+533]
  00260	c6 45 ff 00	 mov	 BYTE PTR _ucY$2$[ebp], 0
  00264	88 45 fe	 mov	 BYTE PTR tv773[ebp], al
  00267	84 c0		 test	 al, al
  00269	0f 84 6f 02 00
	00		 je	 $LN6@SetSkyObje
  0026f	69 c7 2c 01 00
	00		 imul	 eax, edi, 300
  00275	89 45 ec	 mov	 DWORD PTR tv745[ebp], eax
  00278	0f 1f 84 00 00
	00 00 00	 npad	 8
$LL7@SetSkyObje:
; File C:\Program Files (x86)\Microsoft Visual Studio\2019\Community\VC\Tools\MSVC\14.27.29110\include\vector

; 1519 :         if (static_cast<size_type>(_My_data._Mylast - _My_data._Myfirst) <= _Pos) {

  00280	8b 4e 04	 mov	 ecx, DWORD PTR [esi+4]
  00283	b8 b5 81 4e 1b	 mov	 eax, 458129845		; 1b4e81b5H
  00288	2b 0e		 sub	 ecx, DWORD PTR [esi]
  0028a	f7 e9		 imul	 ecx
  0028c	c1 fa 05	 sar	 edx, 5
  0028f	8b c2		 mov	 eax, edx
  00291	c1 e8 1f	 shr	 eax, 31			; 0000001fH
  00294	03 c2		 add	 eax, edx
  00296	3b c7		 cmp	 eax, edi
  00298	0f 86 48 02 00
	00		 jbe	 $LN23@SetSkyObje
; File C:\DS Project\DS Files\Source\ClientSource\Client\EterLib\SkyBox.cpp

; 361  : 		CSkyObjectQuad & rSkyObjectQuad = pSkyObjectQuadVector->at(dwIndex++);

  0029e	8b 45 0c	 mov	 eax, DWORD PTR _c_pv2QuadPoints$[ebp]
  002a1	47		 inc	 edi
; File C:\Program Files (x86)\Microsoft Visual Studio\2019\Community\VC\Tools\MSVC\14.27.29110\include\vector

; 1523 :         return _My_data._Myfirst[_Pos];

  002a2	8b 0e		 mov	 ecx, DWORD PTR [esi]
; File C:\DS Project\DS Files\Source\ClientSource\Client\EterLib\SkyBox.cpp

; 361  : 		CSkyObjectQuad & rSkyObjectQuad = pSkyObjectQuadVector->at(dwIndex++);

  002a4	89 7d f4	 mov	 DWORD PTR _dwIndex$1$[ebp], edi

; 362  : 
; 363  : 		aPDTVertex.position.x = c_pv2QuadPoints[0].x;
; 364  : 		aPDTVertex.position.y = c_pv2QuadPoints[0].y;
; 365  : 		aPDTVertex.position.z = -(float)(ucY + 1)/ (float)(m_ucVirticalGradientLevelLower);

  002a7	0f b6 7d ff	 movzx	 edi, BYTE PTR _ucY$2$[ebp]
  002ab	f3 0f 10 00	 movss	 xmm0, DWORD PTR [eax]
  002af	f3 0f 11 45 cc	 movss	 DWORD PTR _aPDTVertex$[ebp], xmm0
  002b4	f3 0f 10 40 04	 movss	 xmm0, DWORD PTR [eax+4]
  002b9	0f b6 45 fe	 movzx	 eax, BYTE PTR tv773[ebp]
  002bd	8d 77 01	 lea	 esi, DWORD PTR [edi+1]
  002c0	66 0f 6e d6	 movd	 xmm2, esi
  002c4	f3 0f 11 45 d0	 movss	 DWORD PTR _aPDTVertex$[ebp+4], xmm0
  002c9	0f 5b d2	 cvtdq2ps xmm2, xmm2
; File C:\Program Files (x86)\Microsoft Visual Studio\2019\Community\VC\Tools\MSVC\14.27.29110\include\vector

; 1523 :         return _My_data._Myfirst[_Pos];

  002cc	8b 55 ec	 mov	 edx, DWORD PTR tv745[ebp]
  002cf	03 ca		 add	 ecx, edx
; File C:\DS Project\DS Files\Source\ClientSource\Client\EterLib\SkyBox.cpp

; 361  : 		CSkyObjectQuad & rSkyObjectQuad = pSkyObjectQuadVector->at(dwIndex++);

  002d1	81 c2 2c 01 00
	00		 add	 edx, 300		; 0000012cH
; File C:\Program Files (x86)\Microsoft Visual Studio\2019\Community\VC\Tools\MSVC\14.27.29110\include\vector

; 1523 :         return _My_data._Myfirst[_Pos];

  002d7	89 4d f0	 mov	 DWORD PTR _rSkyObjectQuad$1$[ebp], ecx
; File C:\DS Project\DS Files\Source\ClientSource\Client\EterLib\SkyBox.cpp

; 361  : 		CSkyObjectQuad & rSkyObjectQuad = pSkyObjectQuadVector->at(dwIndex++);

  002da	89 55 ec	 mov	 DWORD PTR tv745[ebp], edx

; 366  : 		aPDTVertex.texCoord.x = 0.0f;

  002dd	c7 45 dc 00 00
	00 00		 mov	 DWORD PTR _aPDTVertex$[ebp+16], 0
  002e4	66 0f 6e c0	 movd	 xmm0, eax

; 367  : 		aPDTVertex.texCoord.y = 0.5f + (float)(ucY + 1)/ (float)(m_ucVirticalGradientLevelUpper) * 0.5f;

  002e8	8b 45 f8	 mov	 eax, DWORD PTR _this$1$[ebp]
  002eb	0f 28 ca	 movaps	 xmm1, xmm2
  002ee	0f 57 0d 00 00
	00 00		 xorps	 xmm1, DWORD PTR __xmm@80000000800000008000000080000000
  002f5	0f 5b c0	 cvtdq2ps xmm0, xmm0

; 368  : 		rSkyObjectQuad.SetVertex(0, aPDTVertex);

  002f8	c6 45 fe 00	 mov	 BYTE PTR $T4[ebp], 0
  002fc	0f b6 80 14 02
	00 00		 movzx	 eax, BYTE PTR [eax+532]
  00303	f3 0f 11 4d e8	 movss	 DWORD PTR tv729[ebp], xmm1
  00308	f3 0f 5e c8	 divss	 xmm1, xmm0
  0030c	66 0f 6e c0	 movd	 xmm0, eax
  00310	8d 45 cc	 lea	 eax, DWORD PTR _aPDTVertex$[ebp]
  00313	0f 5b c0	 cvtdq2ps xmm0, xmm0
  00316	50		 push	 eax
  00317	8d 45 fe	 lea	 eax, DWORD PTR $T4[ebp]
  0031a	50		 push	 eax
  0031b	f3 0f 11 4d d4	 movss	 DWORD PTR _aPDTVertex$[ebp+8], xmm1
  00320	0f 28 ca	 movaps	 xmm1, xmm2
  00323	f3 0f 5e c8	 divss	 xmm1, xmm0
  00327	f3 0f 59 cb	 mulss	 xmm1, xmm3
  0032b	f3 0f 58 cb	 addss	 xmm1, xmm3
  0032f	f3 0f 11 4d e0	 movss	 DWORD PTR _aPDTVertex$[ebp+20], xmm1
  00334	e8 00 00 00 00	 call	 ?SetVertex@CSkyObjectQuad@@QAEXABEABUSPDTVertex@@@Z ; CSkyObjectQuad::SetVertex

; 369  : 		aPDTVertex.position.x = c_pv2QuadPoints[0].x;

  00339	8b 45 0c	 mov	 eax, DWORD PTR _c_pv2QuadPoints$[ebp]

; 370  : 		aPDTVertex.position.y = c_pv2QuadPoints[0].y;
; 371  : 		aPDTVertex.position.z = -(float)(ucY) / (float)(m_ucVirticalGradientLevelLower);

  0033c	8b 4d f8	 mov	 ecx, DWORD PTR _this$1$[ebp]
  0033f	66 0f 6e d7	 movd	 xmm2, edi
  00343	0f 5b d2	 cvtdq2ps xmm2, xmm2

; 372  : 		aPDTVertex.texCoord.x = 0.0f;
; 373  : 		aPDTVertex.texCoord.y = 0.5f + (float)(ucY)/ (float)(m_ucVirticalGradientLevelUpper) * 0.5f;
; 374  : 		rSkyObjectQuad.SetVertex(1, aPDTVertex);

  00346	c6 45 fe 01	 mov	 BYTE PTR $T3[ebp], 1
  0034a	f3 0f 10 00	 movss	 xmm0, DWORD PTR [eax]
  0034e	f3 0f 11 45 cc	 movss	 DWORD PTR _aPDTVertex$[ebp], xmm0
  00353	0f 28 ca	 movaps	 xmm1, xmm2
  00356	f3 0f 10 40 04	 movss	 xmm0, DWORD PTR [eax+4]
  0035b	0f b6 81 15 02
	00 00		 movzx	 eax, BYTE PTR [ecx+533]
  00362	0f 57 0d 00 00
	00 00		 xorps	 xmm1, DWORD PTR __xmm@80000000800000008000000080000000
  00369	f3 0f 11 45 d0	 movss	 DWORD PTR _aPDTVertex$[ebp+4], xmm0
  0036e	f3 0f 11 4d e4	 movss	 DWORD PTR tv739[ebp], xmm1
  00373	66 0f 6e c0	 movd	 xmm0, eax
  00377	0f b6 81 14 02
	00 00		 movzx	 eax, BYTE PTR [ecx+532]
  0037e	0f 5b c0	 cvtdq2ps xmm0, xmm0
  00381	8b 4d f0	 mov	 ecx, DWORD PTR _rSkyObjectQuad$1$[ebp]
  00384	f3 0f 5e c8	 divss	 xmm1, xmm0
  00388	66 0f 6e c0	 movd	 xmm0, eax
  0038c	8d 45 cc	 lea	 eax, DWORD PTR _aPDTVertex$[ebp]
  0038f	0f 5b c0	 cvtdq2ps xmm0, xmm0
  00392	50		 push	 eax
  00393	8d 45 fe	 lea	 eax, DWORD PTR $T3[ebp]
  00396	50		 push	 eax
  00397	f3 0f 11 4d d4	 movss	 DWORD PTR _aPDTVertex$[ebp+8], xmm1
  0039c	0f 28 ca	 movaps	 xmm1, xmm2
  0039f	f3 0f 5e c8	 divss	 xmm1, xmm0
  003a3	f3 0f 59 0d 00
	00 00 00	 mulss	 xmm1, DWORD PTR __real@3f000000
  003ab	f3 0f 58 0d 00
	00 00 00	 addss	 xmm1, DWORD PTR __real@3f000000
  003b3	f3 0f 11 4d e0	 movss	 DWORD PTR _aPDTVertex$[ebp+20], xmm1
  003b8	e8 00 00 00 00	 call	 ?SetVertex@CSkyObjectQuad@@QAEXABEABUSPDTVertex@@@Z ; CSkyObjectQuad::SetVertex

; 375  : 		aPDTVertex.position.x = c_pv2QuadPoints[1].x;

  003bd	8b 45 0c	 mov	 eax, DWORD PTR _c_pv2QuadPoints$[ebp]

; 376  : 		aPDTVertex.position.y = c_pv2QuadPoints[1].y;
; 377  : 		aPDTVertex.position.z = -(float)(ucY + 1) / (float)(m_ucVirticalGradientLevelLower);

  003c0	8b 4d f8	 mov	 ecx, DWORD PTR _this$1$[ebp]
  003c3	f3 0f 10 40 08	 movss	 xmm0, DWORD PTR [eax+8]
  003c8	f3 0f 11 45 cc	 movss	 DWORD PTR _aPDTVertex$[ebp], xmm0
  003cd	f3 0f 10 40 0c	 movss	 xmm0, DWORD PTR [eax+12]
  003d2	0f b6 81 15 02
	00 00		 movzx	 eax, BYTE PTR [ecx+533]
  003d9	f3 0f 11 45 d0	 movss	 DWORD PTR _aPDTVertex$[ebp+4], xmm0
  003de	66 0f 6e c0	 movd	 xmm0, eax
  003e2	0f 5b c0	 cvtdq2ps xmm0, xmm0
  003e5	f3 0f 10 4d e8	 movss	 xmm1, DWORD PTR tv729[ebp]
  003ea	f3 0f 5e c8	 divss	 xmm1, xmm0

; 378  : 		aPDTVertex.texCoord.x = 1.0f;
; 379  : 		aPDTVertex.texCoord.y = 0.5f + (float)(ucY + 1)/ (float)(m_ucVirticalGradientLevelUpper) * 0.5f;

  003ee	0f b6 81 14 02
	00 00		 movzx	 eax, BYTE PTR [ecx+532]

; 380  : 		rSkyObjectQuad.SetVertex(2, aPDTVertex);

  003f5	8b 4d f0	 mov	 ecx, DWORD PTR _rSkyObjectQuad$1$[ebp]
  003f8	c7 45 dc 00 00
	80 3f		 mov	 DWORD PTR _aPDTVertex$[ebp+16], 1065353216 ; 3f800000H
  003ff	c6 45 fe 02	 mov	 BYTE PTR $T2[ebp], 2
  00403	66 0f 6e c0	 movd	 xmm0, eax
  00407	8d 45 cc	 lea	 eax, DWORD PTR _aPDTVertex$[ebp]
  0040a	f3 0f 11 4d d4	 movss	 DWORD PTR _aPDTVertex$[ebp+8], xmm1
  0040f	66 0f 6e ce	 movd	 xmm1, esi
  00413	0f 5b c9	 cvtdq2ps xmm1, xmm1
  00416	50		 push	 eax
  00417	8d 45 fe	 lea	 eax, DWORD PTR $T2[ebp]
  0041a	50		 push	 eax
  0041b	0f 5b c0	 cvtdq2ps xmm0, xmm0
  0041e	f3 0f 5e c8	 divss	 xmm1, xmm0
  00422	f3 0f 59 0d 00
	00 00 00	 mulss	 xmm1, DWORD PTR __real@3f000000
  0042a	f3 0f 58 0d 00
	00 00 00	 addss	 xmm1, DWORD PTR __real@3f000000
  00432	f3 0f 11 4d e0	 movss	 DWORD PTR _aPDTVertex$[ebp+20], xmm1
  00437	e8 00 00 00 00	 call	 ?SetVertex@CSkyObjectQuad@@QAEXABEABUSPDTVertex@@@Z ; CSkyObjectQuad::SetVertex

; 381  : 		aPDTVertex.position.x = c_pv2QuadPoints[1].x;

  0043c	8b 45 0c	 mov	 eax, DWORD PTR _c_pv2QuadPoints$[ebp]

; 382  : 		aPDTVertex.position.y = c_pv2QuadPoints[1].y;
; 383  : 		aPDTVertex.position.z = -(float)(ucY) / (float)(m_ucVirticalGradientLevelLower);

  0043f	8b 4d f8	 mov	 ecx, DWORD PTR _this$1$[ebp]
  00442	f3 0f 10 4d e4	 movss	 xmm1, DWORD PTR tv739[ebp]

; 384  : 		aPDTVertex.texCoord.x = 1.0f;
; 385  : 		aPDTVertex.texCoord.y = 0.5f + (float)(ucY)/ (float)(m_ucVirticalGradientLevelUpper) * 0.5f;
; 386  : 		rSkyObjectQuad.SetVertex(3, aPDTVertex);

  00447	c6 45 fe 03	 mov	 BYTE PTR $T1[ebp], 3
  0044b	f3 0f 10 40 08	 movss	 xmm0, DWORD PTR [eax+8]
  00450	f3 0f 11 45 cc	 movss	 DWORD PTR _aPDTVertex$[ebp], xmm0
  00455	f3 0f 10 40 0c	 movss	 xmm0, DWORD PTR [eax+12]
  0045a	0f b6 81 15 02
	00 00		 movzx	 eax, BYTE PTR [ecx+533]
  00461	f3 0f 11 45 d0	 movss	 DWORD PTR _aPDTVertex$[ebp+4], xmm0
  00466	66 0f 6e c0	 movd	 xmm0, eax
  0046a	0f 5b c0	 cvtdq2ps xmm0, xmm0
  0046d	0f b6 81 14 02
	00 00		 movzx	 eax, BYTE PTR [ecx+532]
  00474	8b 4d f0	 mov	 ecx, DWORD PTR _rSkyObjectQuad$1$[ebp]
  00477	f3 0f 5e c8	 divss	 xmm1, xmm0
  0047b	66 0f 6e c0	 movd	 xmm0, eax
  0047f	8d 45 cc	 lea	 eax, DWORD PTR _aPDTVertex$[ebp]
  00482	f3 0f 11 4d d4	 movss	 DWORD PTR _aPDTVertex$[ebp+8], xmm1
  00487	66 0f 6e cf	 movd	 xmm1, edi
  0048b	0f 5b c9	 cvtdq2ps xmm1, xmm1
  0048e	50		 push	 eax
  0048f	8d 45 fe	 lea	 eax, DWORD PTR $T1[ebp]
  00492	50		 push	 eax
  00493	0f 5b c0	 cvtdq2ps xmm0, xmm0
  00496	f3 0f 5e c8	 divss	 xmm1, xmm0
  0049a	f3 0f 59 0d 00
	00 00 00	 mulss	 xmm1, DWORD PTR __real@3f000000
  004a2	f3 0f 58 0d 00
	00 00 00	 addss	 xmm1, DWORD PTR __real@3f000000
  004aa	f3 0f 11 4d e0	 movss	 DWORD PTR _aPDTVertex$[ebp+20], xmm1
  004af	e8 00 00 00 00	 call	 ?SetVertex@CSkyObjectQuad@@QAEXABEABUSPDTVertex@@@Z ; CSkyObjectQuad::SetVertex
  004b4	8b 45 f8	 mov	 eax, DWORD PTR _this$1$[ebp]
  004b7	8a 4d ff	 mov	 cl, BYTE PTR _ucY$2$[ebp]
  004ba	f3 0f 10 1d 00
	00 00 00	 movss	 xmm3, DWORD PTR __real@3f000000
  004c2	fe c1		 inc	 cl
  004c4	8b 75 08	 mov	 esi, DWORD PTR _pSkyObjectQuadVector$[ebp]
  004c7	8a 80 15 02 00
	00		 mov	 al, BYTE PTR [eax+533]
  004cd	8b 7d f4	 mov	 edi, DWORD PTR _dwIndex$1$[ebp]
  004d0	88 4d ff	 mov	 BYTE PTR _ucY$2$[ebp], cl
  004d3	88 45 fe	 mov	 BYTE PTR tv773[ebp], al
  004d6	3a c8		 cmp	 cl, al
  004d8	0f 82 a2 fd ff
	ff		 jb	 $LL7@SetSkyObje
$LN6@SetSkyObje:
  004de	5f		 pop	 edi

; 388  : }

  004df	5e		 pop	 esi
  004e0	8b e5		 mov	 esp, ebp
  004e2	5d		 pop	 ebp
  004e3	c2 08 00	 ret	 8
$LN23@SetSkyObje:
; File C:\Program Files (x86)\Microsoft Visual Studio\2019\Community\VC\Tools\MSVC\14.27.29110\include\vector

; 1520 :             _Xrange();

  004e6	e8 00 00 00 00	 call	 ?_Xrange@?$vector@VCSkyObjectQuad@@V?$allocator@VCSkyObjectQuad@@@std@@@std@@CAXXZ ; std::vector<CSkyObjectQuad,std::allocator<CSkyObjectQuad> >::_Xrange
$LN30@SetSkyObje:
  004eb	cc		 int	 3
?SetSkyObjectQuadVertical@CSkyBox@@IAEXPAV?$vector@VCSkyObjectQuad@@V?$allocator@VCSkyObjectQuad@@@std@@@std@@PBUD3DXVECTOR2@@@Z ENDP ; CSkyBox::SetSkyObjectQuadVertical
_TEXT	ENDS
; Function compile flags: /Ogtp
; File C:\DS Project\DS Files\Source\ClientSource\Client\EterLib\SkyBox.cpp
;	COMDAT ?StartTransition@CSkyBox@@UAEXXZ
_TEXT	SEGMENT
?StartTransition@CSkyBox@@UAEXXZ PROC			; CSkyBox::StartTransition, COMDAT
; _this$ = ecx

; 786  : {

  00000	53		 push	 ebx
  00001	8b d9		 mov	 ebx, ecx
  00003	56		 push	 esi
  00004	57		 push	 edi

; 787  : 	m_bTransitionStarted = true;

  00005	bf 06 00 00 00	 mov	 edi, 6
  0000a	c6 83 f0 01 00
	00 01		 mov	 BYTE PTR [ebx+496], 1
  00011	8d b3 18 02 00
	00		 lea	 esi, DWORD PTR [ebx+536]
$LL4@StartTrans:

; 788  : 	for (unsigned char ucj = 0; ucj < 6; ++ucj)
; 789  : 		m_Faces[ucj].StartTransition();

  00017	8b ce		 mov	 ecx, esi
  00019	e8 00 00 00 00	 call	 ?StartTransition@TSkyObjectFace@CSkyObject@@QAEXXZ ; CSkyObject::TSkyObjectFace::StartTransition
  0001e	83 c6 3c	 add	 esi, 60			; 0000003cH
  00021	83 ef 01	 sub	 edi, 1
  00024	75 f1		 jne	 SHORT $LL4@StartTrans

; 790  : 	m_FaceCloud.StartTransition();

  00026	5f		 pop	 edi
  00027	5e		 pop	 esi
  00028	8d 4b 04	 lea	 ecx, DWORD PTR [ebx+4]
  0002b	5b		 pop	 ebx
  0002c	e9 00 00 00 00	 jmp	 ?StartTransition@TSkyObjectFace@CSkyObject@@QAEXXZ ; CSkyObject::TSkyObjectFace::StartTransition
?StartTransition@CSkyBox@@UAEXXZ ENDP			; CSkyBox::StartTransition
_TEXT	ENDS
; Function compile flags: /Ogtp
; File C:\DS Project\DS Files\Source\ClientSource\Client\EterLib\SkyBox.cpp
; File C:\Program Files (x86)\Microsoft Visual Studio\2019\Community\VC\Tools\MSVC\14.27.29110\include\vector
; File C:\DS Project\DS Files\Source\ClientSource\Client\EterLib\SkyBox.cpp
; File C:\Program Files (x86)\Microsoft Visual Studio\2019\Community\VC\Tools\MSVC\14.27.29110\include\vector
; File C:\DS Project\DS Files\Source\ClientSource\Client\EterLib\SkyBox.cpp
; File C:\Program Files (x86)\Microsoft Visual Studio\2019\Community\VC\Tools\MSVC\14.27.29110\include\vector
; File C:\DS Project\DS Files\Source\ClientSource\Client\EterLib\SkyBox.cpp
; File C:\Program Files (x86)\Microsoft Visual Studio\2019\Community\VC\Tools\MSVC\14.27.29110\include\vector
; File C:\DS Project\DS Files\Source\ClientSource\Client\EterLib\SkyBox.cpp
; File C:\Program Files (x86)\Microsoft Visual Studio\2019\Community\VC\Tools\MSVC\14.27.29110\include\vector
; File C:\DS Project\DS Files\Source\ClientSource\Client\EterLib\SkyBox.cpp
; File C:\Program Files (x86)\Microsoft Visual Studio\2019\Community\VC\Tools\MSVC\14.27.29110\include\vector
; File C:\DS Project\DS Files\Source\ClientSource\Client\EterLib\SkyBox.cpp
; File C:\Program Files (x86)\Microsoft Visual Studio\2019\Community\VC\Tools\MSVC\14.27.29110\include\vector
; File C:\DS Project\DS Files\Source\ClientSource\Client\EterLib\SkyBox.cpp
; File C:\Program Files (x86)\Microsoft Visual Studio\2019\Community\VC\Tools\MSVC\14.27.29110\include\vector
; File C:\DS Project\DS Files\Source\ClientSource\Client\EterLib\SkyBox.cpp
; File C:\Program Files (x86)\Microsoft Visual Studio\2019\Community\VC\Tools\MSVC\14.27.29110\include\vector
; File C:\DS Project\DS Files\Source\ClientSource\Client\EterLib\SkyBox.cpp
; File C:\Program Files (x86)\Microsoft Visual Studio\2019\Community\VC\Tools\MSVC\14.27.29110\include\vector
; File C:\DS Project\DS Files\Source\ClientSource\Client\EterLib\SkyBox.cpp
; File C:\Program Files (x86)\Microsoft Visual Studio\2019\Community\VC\Tools\MSVC\14.27.29110\include\vector
; File C:\DS Project\DS Files\Source\ClientSource\Client\EterLib\SkyBox.cpp
; File C:\Program Files (x86)\Microsoft Visual Studio\2019\Community\VC\Tools\MSVC\14.27.29110\include\vector
; File C:\DS Project\DS Files\Source\ClientSource\Client\EterLib\SkyBox.cpp
; File C:\Program Files (x86)\Microsoft Visual Studio\2019\Community\VC\Tools\MSVC\14.27.29110\include\vector
; File C:\DS Project\DS Files\Source\ClientSource\Client\EterLib\SkyBox.cpp
; File C:\Program Files (x86)\Microsoft Visual Studio\2019\Community\VC\Tools\MSVC\14.27.29110\include\vector
; File C:\DS Project\DS Files\Source\ClientSource\Client\EterLib\SkyBox.cpp
; File C:\Program Files (x86)\Microsoft Visual Studio\2019\Community\VC\Tools\MSVC\14.27.29110\include\vector
; File C:\DS Project\DS Files\Source\ClientSource\Client\EterLib\SkyBox.cpp
; File C:\Program Files (x86)\Microsoft Visual Studio\2019\Community\VC\Tools\MSVC\14.27.29110\include\vector
; File C:\DS Project\DS Files\Source\ClientSource\Client\EterLib\SkyBox.cpp
; File C:\Program Files (x86)\Microsoft Visual Studio\2019\Community\VC\Tools\MSVC\14.27.29110\include\vector
; File C:\DS Project\DS Files\Source\ClientSource\Client\EterLib\SkyBox.cpp
; File C:\Program Files (x86)\Microsoft Visual Studio\2019\Community\VC\Tools\MSVC\14.27.29110\include\vector
; File C:\DS Project\DS Files\Source\ClientSource\Client\EterLib\SkyBox.cpp
; File C:\Program Files (x86)\Microsoft Visual Studio\2019\Community\VC\Tools\MSVC\14.27.29110\include\vector
; File C:\DS Project\DS Files\Source\ClientSource\Client\EterLib\SkyBox.cpp
; File C:\Program Files (x86)\Microsoft Visual Studio\2019\Community\VC\Tools\MSVC\14.27.29110\include\vector
; File C:\DS Project\DS Files\Source\ClientSource\Client\EterLib\SkyBox.cpp
; File C:\Program Files (x86)\Microsoft Visual Studio\2019\Community\VC\Tools\MSVC\14.27.29110\include\vector
; File C:\DS Project\DS Files\Source\ClientSource\Client\EterLib\SkyBox.cpp
; File C:\Program Files (x86)\Microsoft Visual Studio\2019\Community\VC\Tools\MSVC\14.27.29110\include\vector
; File C:\DS Project\DS Files\Source\ClientSource\Client\EterLib\SkyBox.cpp
; File C:\Program Files (x86)\Microsoft Visual Studio\2019\Community\VC\Tools\MSVC\14.27.29110\include\vector
; File C:\DS Project\DS Files\Source\ClientSource\Client\EterLib\SkyBox.cpp
;	COMDAT ?SetSkyColor@CSkyBox@@QAEXABV?$vector@UTGradientColor@@V?$allocator@UTGradientColor@@@std@@@std@@0J@Z
_TEXT	SEGMENT
tv2449 = -24						; size = 4
_this$1$ = -20						; size = 4
tv2425 = -16						; size = 4
_uck$2$ = -16						; size = 4
_uck$1$ = -16						; size = 4
tv2409 = -12						; size = 4
tv2405 = -12						; size = 4
_ulVectorGradientColornum$1$ = -12			; size = 4
$T1 = -8						; size = 1
$T2 = -8						; size = 1
$T3 = -8						; size = 1
$T4 = -7						; size = 1
$T5 = -7						; size = 1
$T6 = -7						; size = 1
$T7 = -6						; size = 1
$T8 = -6						; size = 1
$T9 = -6						; size = 1
$T10 = -5						; size = 1
$T11 = -5						; size = 1
$T12 = -5						; size = 1
$T13 = -4						; size = 1
$T14 = -4						; size = 1
$T15 = -4						; size = 1
$T16 = -3						; size = 1
$T17 = -3						; size = 1
$T18 = -3						; size = 1
$T19 = -2						; size = 1
$T20 = -2						; size = 1
$T21 = -2						; size = 1
$T22 = -1						; size = 1
$T23 = -1						; size = 1
_c_rColorVector$ = 8					; size = 4
$T24 = 11						; size = 1
_c_rNextColorVector$ = 12				; size = 4
_lTransitionTime$ = 16					; size = 4
?SetSkyColor@CSkyBox@@QAEXABV?$vector@UTGradientColor@@V?$allocator@UTGradientColor@@@std@@@std@@0J@Z PROC ; CSkyBox::SetSkyColor, COMDAT
; _this$ = ecx

; 619  : {

  00000	55		 push	 ebp
  00001	8b ec		 mov	 ebp, esp
  00003	83 ec 18	 sub	 esp, 24			; 00000018H
  00006	53		 push	 ebx
  00007	56		 push	 esi

; 620  : 	unsigned long ulVectorGradientColornum = 0;
; 621  : 	unsigned long uck;
; 622  : 	for (unsigned char ucj = 0; ucj < 4; ++ucj)

  00008	bb 04 00 00 00	 mov	 ebx, 4
  0000d	89 4d ec	 mov	 DWORD PTR _this$1$[ebp], ecx
  00010	57		 push	 edi
  00011	8d b1 48 02 00
	00		 lea	 esi, DWORD PTR [ecx+584]
  00017	89 5d e8	 mov	 DWORD PTR tv2449[ebp], ebx
  0001a	66 0f 1f 44 00
	00		 npad	 6
$LL4@SetSkyColo:
; File C:\Program Files (x86)\Microsoft Visual Studio\2019\Community\VC\Tools\MSVC\14.27.29110\include\vector

; 1484 :         return static_cast<size_type>(_My_data._Mylast - _My_data._Myfirst);

  00020	8b 3e		 mov	 edi, DWORD PTR [esi]
; File C:\DS Project\DS Files\Source\ClientSource\Client\EterLib\SkyBox.cpp

; 625  : 		ulVectorGradientColornum = 0;

  00022	33 c9		 xor	 ecx, ecx
  00024	89 4d f4	 mov	 DWORD PTR _ulVectorGradientColornum$1$[ebp], ecx
; File C:\Program Files (x86)\Microsoft Visual Studio\2019\Community\VC\Tools\MSVC\14.27.29110\include\vector

; 1484 :         return static_cast<size_type>(_My_data._Mylast - _My_data._Myfirst);

  00027	b8 b5 81 4e 1b	 mov	 eax, 458129845		; 1b4e81b5H
  0002c	8b 4e 04	 mov	 ecx, DWORD PTR [esi+4]
  0002f	2b cf		 sub	 ecx, edi
  00031	f7 e9		 imul	 ecx
  00033	c1 fa 05	 sar	 edx, 5
  00036	8b c2		 mov	 eax, edx
  00038	c1 e8 1f	 shr	 eax, 31			; 0000001fH
  0003b	03 c2		 add	 eax, edx
; File C:\DS Project\DS Files\Source\ClientSource\Client\EterLib\SkyBox.cpp

; 626  : 		for (uck = 0; uck < aFace.m_SkyObjectQuadVector.size(); ++uck)

  0003d	0f 84 73 01 00
	00		 je	 $LN2@SetSkyColo

; 630  : 			aSkyObjectQuad.SetSrcColor(0,

  00043	33 db		 xor	 ebx, ebx
  00045	c6 45 ff 00	 mov	 BYTE PTR $T23[ebp], 0
  00049	33 c0		 xor	 eax, eax

; 631  : 				c_rColorVector[ulVectorGradientColornum].m_SecondColor.r,
; 632  : 				c_rColorVector[ulVectorGradientColornum].m_SecondColor.g,
; 633  : 				c_rColorVector[ulVectorGradientColornum].m_SecondColor.b,
; 634  : 				c_rColorVector[ulVectorGradientColornum].m_SecondColor.a);
; 635  : 			aSkyObjectQuad.SetTransition(0,

  0004b	c6 45 fe 00	 mov	 BYTE PTR $T21[ebp], 0

; 636  : 				c_rNextColorVector[ulVectorGradientColornum].m_SecondColor.r,
; 637  : 				c_rNextColorVector[ulVectorGradientColornum].m_SecondColor.g,
; 638  : 				c_rNextColorVector[ulVectorGradientColornum].m_SecondColor.b,
; 639  : 				c_rNextColorVector[ulVectorGradientColornum].m_SecondColor.a,
; 640  : 				lTransitionTime);
; 641  : 			aSkyObjectQuad.SetSrcColor(1,

  0004f	c6 45 fd 01	 mov	 BYTE PTR $T18[ebp], 1

; 642  : 				c_rColorVector[ulVectorGradientColornum].m_FirstColor.r,
; 643  : 				c_rColorVector[ulVectorGradientColornum].m_FirstColor.g,
; 644  : 				c_rColorVector[ulVectorGradientColornum].m_FirstColor.b,
; 645  : 				c_rColorVector[ulVectorGradientColornum].m_FirstColor.a);
; 646  : 			aSkyObjectQuad.SetTransition(1,

  00053	c6 45 fc 01	 mov	 BYTE PTR $T15[ebp], 1

; 647  : 				c_rNextColorVector[ulVectorGradientColornum].m_FirstColor.r,
; 648  : 				c_rNextColorVector[ulVectorGradientColornum].m_FirstColor.g,
; 649  : 				c_rNextColorVector[ulVectorGradientColornum].m_FirstColor.b,
; 650  : 				c_rNextColorVector[ulVectorGradientColornum].m_FirstColor.a,
; 651  : 				lTransitionTime);
; 652  : 			aSkyObjectQuad.SetSrcColor(2,

  00057	c6 45 fb 02	 mov	 BYTE PTR $T12[ebp], 2

; 653  : 				c_rColorVector[ulVectorGradientColornum].m_SecondColor.r,
; 654  : 				c_rColorVector[ulVectorGradientColornum].m_SecondColor.g,
; 655  : 				c_rColorVector[ulVectorGradientColornum].m_SecondColor.b,
; 656  : 				c_rColorVector[ulVectorGradientColornum].m_SecondColor.a);
; 657  : 			aSkyObjectQuad.SetTransition(2,

  0005b	c6 45 fa 02	 mov	 BYTE PTR $T9[ebp], 2

; 658  : 				c_rNextColorVector[ulVectorGradientColornum].m_SecondColor.r,
; 659  : 				c_rNextColorVector[ulVectorGradientColornum].m_SecondColor.g,
; 660  : 				c_rNextColorVector[ulVectorGradientColornum].m_SecondColor.b,
; 661  : 				c_rNextColorVector[ulVectorGradientColornum].m_SecondColor.a,
; 662  : 				lTransitionTime);
; 663  : 			aSkyObjectQuad.SetSrcColor(3,

  0005f	c6 45 f9 03	 mov	 BYTE PTR $T6[ebp], 3

; 664  : 				c_rColorVector[ulVectorGradientColornum].m_FirstColor.r,
; 665  : 				c_rColorVector[ulVectorGradientColornum].m_FirstColor.g,
; 666  : 				c_rColorVector[ulVectorGradientColornum].m_FirstColor.b,
; 667  : 				c_rColorVector[ulVectorGradientColornum].m_FirstColor.a);
; 668  : 			aSkyObjectQuad.SetTransition(3,

  00063	c6 45 f8 03	 mov	 BYTE PTR $T3[ebp], 3
  00067	89 45 f0	 mov	 DWORD PTR tv2425[ebp], eax
  0006a	66 0f 1f 44 00
	00		 npad	 6
$LL7@SetSkyColo:
; File C:\Program Files (x86)\Microsoft Visual Studio\2019\Community\VC\Tools\MSVC\14.27.29110\include\vector

; 1504 :         return _My_data._Myfirst[_Pos];

  00070	03 f8		 add	 edi, eax
; File C:\DS Project\DS Files\Source\ClientSource\Client\EterLib\SkyBox.cpp

; 630  : 			aSkyObjectQuad.SetSrcColor(0,

  00072	8b 45 08	 mov	 eax, DWORD PTR _c_rColorVector$[ebp]
  00075	8b 08		 mov	 ecx, DWORD PTR [eax]
  00077	03 cb		 add	 ecx, ebx
  00079	8d 41 1c	 lea	 eax, DWORD PTR [ecx+28]
  0007c	50		 push	 eax
  0007d	8d 41 18	 lea	 eax, DWORD PTR [ecx+24]
  00080	50		 push	 eax
  00081	8d 41 14	 lea	 eax, DWORD PTR [ecx+20]
  00084	50		 push	 eax
  00085	8d 41 10	 lea	 eax, DWORD PTR [ecx+16]
  00088	8b cf		 mov	 ecx, edi
  0008a	50		 push	 eax
  0008b	8d 45 ff	 lea	 eax, DWORD PTR $T23[ebp]
  0008e	50		 push	 eax
  0008f	e8 00 00 00 00	 call	 ?SetSrcColor@CSkyObjectQuad@@QAEXABEABM111@Z ; CSkyObjectQuad::SetSrcColor

; 631  : 				c_rColorVector[ulVectorGradientColornum].m_SecondColor.r,
; 632  : 				c_rColorVector[ulVectorGradientColornum].m_SecondColor.g,
; 633  : 				c_rColorVector[ulVectorGradientColornum].m_SecondColor.b,
; 634  : 				c_rColorVector[ulVectorGradientColornum].m_SecondColor.a);
; 635  : 			aSkyObjectQuad.SetTransition(0,

  00094	8b 4d 0c	 mov	 ecx, DWORD PTR _c_rNextColorVector$[ebp]
  00097	ff 75 10	 push	 DWORD PTR _lTransitionTime$[ebp]
  0009a	8b 09		 mov	 ecx, DWORD PTR [ecx]
  0009c	03 cb		 add	 ecx, ebx
  0009e	8d 41 1c	 lea	 eax, DWORD PTR [ecx+28]
  000a1	50		 push	 eax
  000a2	8d 41 18	 lea	 eax, DWORD PTR [ecx+24]
  000a5	50		 push	 eax
  000a6	8d 41 14	 lea	 eax, DWORD PTR [ecx+20]
  000a9	50		 push	 eax
  000aa	8d 41 10	 lea	 eax, DWORD PTR [ecx+16]
  000ad	8b cf		 mov	 ecx, edi
  000af	50		 push	 eax
  000b0	8d 45 fe	 lea	 eax, DWORD PTR $T21[ebp]
  000b3	50		 push	 eax
  000b4	e8 00 00 00 00	 call	 ?SetTransition@CSkyObjectQuad@@QAEXABEABM111K@Z ; CSkyObjectQuad::SetTransition

; 636  : 				c_rNextColorVector[ulVectorGradientColornum].m_SecondColor.r,
; 637  : 				c_rNextColorVector[ulVectorGradientColornum].m_SecondColor.g,
; 638  : 				c_rNextColorVector[ulVectorGradientColornum].m_SecondColor.b,
; 639  : 				c_rNextColorVector[ulVectorGradientColornum].m_SecondColor.a,
; 640  : 				lTransitionTime);
; 641  : 			aSkyObjectQuad.SetSrcColor(1,

  000b9	8b 4d 08	 mov	 ecx, DWORD PTR _c_rColorVector$[ebp]
  000bc	8b 09		 mov	 ecx, DWORD PTR [ecx]
  000be	03 cb		 add	 ecx, ebx
  000c0	8d 41 0c	 lea	 eax, DWORD PTR [ecx+12]
  000c3	50		 push	 eax
  000c4	8d 41 08	 lea	 eax, DWORD PTR [ecx+8]
  000c7	50		 push	 eax
  000c8	8d 41 04	 lea	 eax, DWORD PTR [ecx+4]
  000cb	50		 push	 eax
  000cc	51		 push	 ecx
  000cd	8d 45 fd	 lea	 eax, DWORD PTR $T18[ebp]
  000d0	8b cf		 mov	 ecx, edi
  000d2	50		 push	 eax
  000d3	e8 00 00 00 00	 call	 ?SetSrcColor@CSkyObjectQuad@@QAEXABEABM111@Z ; CSkyObjectQuad::SetSrcColor

; 642  : 				c_rColorVector[ulVectorGradientColornum].m_FirstColor.r,
; 643  : 				c_rColorVector[ulVectorGradientColornum].m_FirstColor.g,
; 644  : 				c_rColorVector[ulVectorGradientColornum].m_FirstColor.b,
; 645  : 				c_rColorVector[ulVectorGradientColornum].m_FirstColor.a);
; 646  : 			aSkyObjectQuad.SetTransition(1,

  000d8	8b 4d 0c	 mov	 ecx, DWORD PTR _c_rNextColorVector$[ebp]
  000db	ff 75 10	 push	 DWORD PTR _lTransitionTime$[ebp]
  000de	8b 09		 mov	 ecx, DWORD PTR [ecx]
  000e0	03 cb		 add	 ecx, ebx
  000e2	8d 41 0c	 lea	 eax, DWORD PTR [ecx+12]
  000e5	50		 push	 eax
  000e6	8d 41 08	 lea	 eax, DWORD PTR [ecx+8]
  000e9	50		 push	 eax
  000ea	8d 41 04	 lea	 eax, DWORD PTR [ecx+4]
  000ed	50		 push	 eax
  000ee	51		 push	 ecx
  000ef	8d 45 fc	 lea	 eax, DWORD PTR $T15[ebp]
  000f2	8b cf		 mov	 ecx, edi
  000f4	50		 push	 eax
  000f5	e8 00 00 00 00	 call	 ?SetTransition@CSkyObjectQuad@@QAEXABEABM111K@Z ; CSkyObjectQuad::SetTransition

; 647  : 				c_rNextColorVector[ulVectorGradientColornum].m_FirstColor.r,
; 648  : 				c_rNextColorVector[ulVectorGradientColornum].m_FirstColor.g,
; 649  : 				c_rNextColorVector[ulVectorGradientColornum].m_FirstColor.b,
; 650  : 				c_rNextColorVector[ulVectorGradientColornum].m_FirstColor.a,
; 651  : 				lTransitionTime);
; 652  : 			aSkyObjectQuad.SetSrcColor(2,

  000fa	8b 4d 08	 mov	 ecx, DWORD PTR _c_rColorVector$[ebp]
  000fd	8b 09		 mov	 ecx, DWORD PTR [ecx]
  000ff	03 cb		 add	 ecx, ebx
  00101	8d 41 1c	 lea	 eax, DWORD PTR [ecx+28]
  00104	50		 push	 eax
  00105	8d 41 18	 lea	 eax, DWORD PTR [ecx+24]
  00108	50		 push	 eax
  00109	8d 41 14	 lea	 eax, DWORD PTR [ecx+20]
  0010c	50		 push	 eax
  0010d	8d 41 10	 lea	 eax, DWORD PTR [ecx+16]
  00110	8b cf		 mov	 ecx, edi
  00112	50		 push	 eax
  00113	8d 45 fb	 lea	 eax, DWORD PTR $T12[ebp]
  00116	50		 push	 eax
  00117	e8 00 00 00 00	 call	 ?SetSrcColor@CSkyObjectQuad@@QAEXABEABM111@Z ; CSkyObjectQuad::SetSrcColor

; 653  : 				c_rColorVector[ulVectorGradientColornum].m_SecondColor.r,
; 654  : 				c_rColorVector[ulVectorGradientColornum].m_SecondColor.g,
; 655  : 				c_rColorVector[ulVectorGradientColornum].m_SecondColor.b,
; 656  : 				c_rColorVector[ulVectorGradientColornum].m_SecondColor.a);
; 657  : 			aSkyObjectQuad.SetTransition(2,

  0011c	8b 4d 0c	 mov	 ecx, DWORD PTR _c_rNextColorVector$[ebp]
  0011f	ff 75 10	 push	 DWORD PTR _lTransitionTime$[ebp]
  00122	8b 09		 mov	 ecx, DWORD PTR [ecx]
  00124	03 cb		 add	 ecx, ebx
  00126	8d 41 1c	 lea	 eax, DWORD PTR [ecx+28]
  00129	50		 push	 eax
  0012a	8d 41 18	 lea	 eax, DWORD PTR [ecx+24]
  0012d	50		 push	 eax
  0012e	8d 41 14	 lea	 eax, DWORD PTR [ecx+20]
  00131	50		 push	 eax
  00132	8d 41 10	 lea	 eax, DWORD PTR [ecx+16]
  00135	8b cf		 mov	 ecx, edi
  00137	50		 push	 eax
  00138	8d 45 fa	 lea	 eax, DWORD PTR $T9[ebp]
  0013b	50		 push	 eax
  0013c	e8 00 00 00 00	 call	 ?SetTransition@CSkyObjectQuad@@QAEXABEABM111K@Z ; CSkyObjectQuad::SetTransition

; 658  : 				c_rNextColorVector[ulVectorGradientColornum].m_SecondColor.r,
; 659  : 				c_rNextColorVector[ulVectorGradientColornum].m_SecondColor.g,
; 660  : 				c_rNextColorVector[ulVectorGradientColornum].m_SecondColor.b,
; 661  : 				c_rNextColorVector[ulVectorGradientColornum].m_SecondColor.a,
; 662  : 				lTransitionTime);
; 663  : 			aSkyObjectQuad.SetSrcColor(3,

  00141	8b 4d 08	 mov	 ecx, DWORD PTR _c_rColorVector$[ebp]
  00144	8b 09		 mov	 ecx, DWORD PTR [ecx]
  00146	03 cb		 add	 ecx, ebx
  00148	8d 41 0c	 lea	 eax, DWORD PTR [ecx+12]
  0014b	50		 push	 eax
  0014c	8d 41 08	 lea	 eax, DWORD PTR [ecx+8]
  0014f	50		 push	 eax
  00150	8d 41 04	 lea	 eax, DWORD PTR [ecx+4]
  00153	50		 push	 eax
  00154	51		 push	 ecx
  00155	8d 45 f9	 lea	 eax, DWORD PTR $T6[ebp]
  00158	8b cf		 mov	 ecx, edi
  0015a	50		 push	 eax
  0015b	e8 00 00 00 00	 call	 ?SetSrcColor@CSkyObjectQuad@@QAEXABEABM111@Z ; CSkyObjectQuad::SetSrcColor

; 664  : 				c_rColorVector[ulVectorGradientColornum].m_FirstColor.r,
; 665  : 				c_rColorVector[ulVectorGradientColornum].m_FirstColor.g,
; 666  : 				c_rColorVector[ulVectorGradientColornum].m_FirstColor.b,
; 667  : 				c_rColorVector[ulVectorGradientColornum].m_FirstColor.a);
; 668  : 			aSkyObjectQuad.SetTransition(3,

  00160	8b 4d 0c	 mov	 ecx, DWORD PTR _c_rNextColorVector$[ebp]
  00163	ff 75 10	 push	 DWORD PTR _lTransitionTime$[ebp]
  00166	8b 11		 mov	 edx, DWORD PTR [ecx]
  00168	8b cf		 mov	 ecx, edi
  0016a	03 d3		 add	 edx, ebx
  0016c	8d 42 0c	 lea	 eax, DWORD PTR [edx+12]
  0016f	50		 push	 eax
  00170	8d 42 08	 lea	 eax, DWORD PTR [edx+8]
  00173	50		 push	 eax
  00174	8d 42 04	 lea	 eax, DWORD PTR [edx+4]
  00177	50		 push	 eax
  00178	52		 push	 edx
  00179	8d 45 f8	 lea	 eax, DWORD PTR $T3[ebp]
  0017c	50		 push	 eax
  0017d	e8 00 00 00 00	 call	 ?SetTransition@CSkyObjectQuad@@QAEXABEABM111K@Z ; CSkyObjectQuad::SetTransition
; File C:\Program Files (x86)\Microsoft Visual Studio\2019\Community\VC\Tools\MSVC\14.27.29110\include\vector

; 1484 :         return static_cast<size_type>(_My_data._Mylast - _My_data._Myfirst);

  00182	8b 4e 04	 mov	 ecx, DWORD PTR [esi+4]
  00185	b8 b5 81 4e 1b	 mov	 eax, 458129845		; 1b4e81b5H
  0018a	8b 3e		 mov	 edi, DWORD PTR [esi]
; File C:\DS Project\DS Files\Source\ClientSource\Client\EterLib\SkyBox.cpp

; 675  : 			ulVectorGradientColornum++;

  0018c	83 c3 20	 add	 ebx, 32			; 00000020H
  0018f	ff 45 f4	 inc	 DWORD PTR _ulVectorGradientColornum$1$[ebp]
; File C:\Program Files (x86)\Microsoft Visual Studio\2019\Community\VC\Tools\MSVC\14.27.29110\include\vector

; 1484 :         return static_cast<size_type>(_My_data._Mylast - _My_data._Myfirst);

  00192	2b cf		 sub	 ecx, edi
; File C:\DS Project\DS Files\Source\ClientSource\Client\EterLib\SkyBox.cpp

; 675  : 			ulVectorGradientColornum++;

  00194	81 45 f0 2c 01
	00 00		 add	 DWORD PTR tv2425[ebp], 300 ; 0000012cH
; File C:\Program Files (x86)\Microsoft Visual Studio\2019\Community\VC\Tools\MSVC\14.27.29110\include\vector

; 1484 :         return static_cast<size_type>(_My_data._Mylast - _My_data._Myfirst);

  0019b	f7 e9		 imul	 ecx
  0019d	c1 fa 05	 sar	 edx, 5
  001a0	8b c2		 mov	 eax, edx
  001a2	c1 e8 1f	 shr	 eax, 31			; 0000001fH
  001a5	03 c2		 add	 eax, edx
; File C:\DS Project\DS Files\Source\ClientSource\Client\EterLib\SkyBox.cpp

; 626  : 		for (uck = 0; uck < aFace.m_SkyObjectQuadVector.size(); ++uck)

  001a7	39 45 f4	 cmp	 DWORD PTR _ulVectorGradientColornum$1$[ebp], eax
  001aa	8b 45 f0	 mov	 eax, DWORD PTR tv2425[ebp]
  001ad	0f 82 bd fe ff
	ff		 jb	 $LL7@SetSkyColo
  001b3	8b 5d e8	 mov	 ebx, DWORD PTR tv2449[ebp]
$LN2@SetSkyColo:

; 620  : 	unsigned long ulVectorGradientColornum = 0;
; 621  : 	unsigned long uck;
; 622  : 	for (unsigned char ucj = 0; ucj < 4; ++ucj)

  001b6	83 c6 3c	 add	 esi, 60			; 0000003cH
  001b9	83 eb 01	 sub	 ebx, 1
  001bc	89 5d e8	 mov	 DWORD PTR tv2449[ebp], ebx
  001bf	0f 85 5b fe ff
	ff		 jne	 $LL4@SetSkyColo
; File C:\Program Files (x86)\Microsoft Visual Studio\2019\Community\VC\Tools\MSVC\14.27.29110\include\vector

; 1484 :         return static_cast<size_type>(_My_data._Mylast - _My_data._Myfirst);

  001c5	8b 75 ec	 mov	 esi, DWORD PTR _this$1$[ebp]
; File C:\DS Project\DS Files\Source\ClientSource\Client\EterLib\SkyBox.cpp

; 683  : 	for (uck = 0; uck < aFaceTop.m_SkyObjectQuadVector.size(); ++uck)

  001c8	33 c9		 xor	 ecx, ecx
  001ca	8b 5d 08	 mov	 ebx, DWORD PTR _c_rColorVector$[ebp]
; File C:\Program Files (x86)\Microsoft Visual Studio\2019\Community\VC\Tools\MSVC\14.27.29110\include\vector

; 1484 :         return static_cast<size_type>(_My_data._Mylast - _My_data._Myfirst);

  001cd	b8 b5 81 4e 1b	 mov	 eax, 458129845		; 1b4e81b5H
; File C:\DS Project\DS Files\Source\ClientSource\Client\EterLib\SkyBox.cpp

; 683  : 	for (uck = 0; uck < aFaceTop.m_SkyObjectQuadVector.size(); ++uck)

  001d2	89 4d f0	 mov	 DWORD PTR _uck$1$[ebp], ecx
; File C:\Program Files (x86)\Microsoft Visual Studio\2019\Community\VC\Tools\MSVC\14.27.29110\include\vector

; 1484 :         return static_cast<size_type>(_My_data._Mylast - _My_data._Myfirst);

  001d5	8b 8e 3c 03 00
	00		 mov	 ecx, DWORD PTR [esi+828]
  001db	2b 8e 38 03 00
	00		 sub	 ecx, DWORD PTR [esi+824]
  001e1	f7 e9		 imul	 ecx
  001e3	c1 fa 05	 sar	 edx, 5
  001e6	8b c2		 mov	 eax, edx
  001e8	c1 e8 1f	 shr	 eax, 31			; 0000001fH
  001eb	03 c2		 add	 eax, edx
; File C:\DS Project\DS Files\Source\ClientSource\Client\EterLib\SkyBox.cpp

; 683  : 	for (uck = 0; uck < aFaceTop.m_SkyObjectQuadVector.size(); ++uck)

  001ed	0f 84 4b 01 00
	00		 je	 $LN9@SetSkyColo
; File C:\Program Files (x86)\Microsoft Visual Studio\2019\Community\VC\Tools\MSVC\14.27.29110\include\vector

; 1483 :         auto& _My_data = _Mypair._Myval2;

  001f3	8b 7d 10	 mov	 edi, DWORD PTR _lTransitionTime$[ebp]
  001f6	33 c0		 xor	 eax, eax
; File C:\DS Project\DS Files\Source\ClientSource\Client\EterLib\SkyBox.cpp

; 687  : 		aSkyObjectQuad.SetSrcColor(0,

  001f8	c6 45 f8 00	 mov	 BYTE PTR $T2[ebp], 0

; 688  : 			c_rColorVector[ulVectorGradientColornum].m_FirstColor.r,
; 689  : 			c_rColorVector[ulVectorGradientColornum].m_FirstColor.g,
; 690  : 			c_rColorVector[ulVectorGradientColornum].m_FirstColor.b,
; 691  : 			c_rColorVector[ulVectorGradientColornum].m_FirstColor.a);
; 692  : 		aSkyObjectQuad.SetTransition(0,

  001fc	c6 45 f9 00	 mov	 BYTE PTR $T5[ebp], 0

; 693  : 			c_rNextColorVector[ulVectorGradientColornum].m_FirstColor.r,
; 694  : 			c_rNextColorVector[ulVectorGradientColornum].m_FirstColor.g,
; 695  : 			c_rNextColorVector[ulVectorGradientColornum].m_FirstColor.b,
; 696  : 			c_rNextColorVector[ulVectorGradientColornum].m_FirstColor.a,
; 697  : 			lTransitionTime);
; 698  : 		aSkyObjectQuad.SetSrcColor(1,

  00200	c6 45 fa 01	 mov	 BYTE PTR $T8[ebp], 1

; 699  : 			c_rColorVector[ulVectorGradientColornum].m_FirstColor.r,
; 700  : 			c_rColorVector[ulVectorGradientColornum].m_FirstColor.g,
; 701  : 			c_rColorVector[ulVectorGradientColornum].m_FirstColor.b,
; 702  : 			c_rColorVector[ulVectorGradientColornum].m_FirstColor.a);
; 703  : 		aSkyObjectQuad.SetTransition(1,

  00204	c6 45 fb 01	 mov	 BYTE PTR $T11[ebp], 1

; 704  : 			c_rNextColorVector[ulVectorGradientColornum].m_FirstColor.r,
; 705  : 			c_rNextColorVector[ulVectorGradientColornum].m_FirstColor.g,
; 706  : 			c_rNextColorVector[ulVectorGradientColornum].m_FirstColor.b,
; 707  : 			c_rNextColorVector[ulVectorGradientColornum].m_FirstColor.a,
; 708  : 			lTransitionTime);
; 709  : 		aSkyObjectQuad.SetSrcColor(2,

  00208	c6 45 fc 02	 mov	 BYTE PTR $T14[ebp], 2

; 710  : 			c_rColorVector[ulVectorGradientColornum].m_FirstColor.r,
; 711  : 			c_rColorVector[ulVectorGradientColornum].m_FirstColor.g,
; 712  : 			c_rColorVector[ulVectorGradientColornum].m_FirstColor.b,
; 713  : 			c_rColorVector[ulVectorGradientColornum].m_FirstColor.a);
; 714  : 		aSkyObjectQuad.SetTransition(2,

  0020c	c6 45 fd 02	 mov	 BYTE PTR $T17[ebp], 2

; 715  : 			c_rNextColorVector[ulVectorGradientColornum].m_FirstColor.r,
; 716  : 			c_rNextColorVector[ulVectorGradientColornum].m_FirstColor.g,
; 717  : 			c_rNextColorVector[ulVectorGradientColornum].m_FirstColor.b,
; 718  : 			c_rNextColorVector[ulVectorGradientColornum].m_FirstColor.a,
; 719  : 			lTransitionTime);
; 720  : 		aSkyObjectQuad.SetSrcColor(3,

  00210	c6 45 fe 03	 mov	 BYTE PTR $T20[ebp], 3

; 721  : 			c_rColorVector[ulVectorGradientColornum].m_FirstColor.r,
; 722  : 			c_rColorVector[ulVectorGradientColornum].m_FirstColor.g,
; 723  : 			c_rColorVector[ulVectorGradientColornum].m_FirstColor.b,
; 724  : 			c_rColorVector[ulVectorGradientColornum].m_FirstColor.a);
; 725  : 		aSkyObjectQuad.SetTransition(3,

  00214	c6 45 ff 03	 mov	 BYTE PTR $T22[ebp], 3
; File C:\Program Files (x86)\Microsoft Visual Studio\2019\Community\VC\Tools\MSVC\14.27.29110\include\vector

; 1483 :         auto& _My_data = _Mypair._Myval2;

  00218	89 45 f4	 mov	 DWORD PTR tv2409[ebp], eax
  0021b	0f 1f 44 00 00	 npad	 5
$LL10@SetSkyColo:
; File C:\DS Project\DS Files\Source\ClientSource\Client\EterLib\SkyBox.cpp

; 687  : 		aSkyObjectQuad.SetSrcColor(0,

  00220	8b 0b		 mov	 ecx, DWORD PTR [ebx]
; File C:\Program Files (x86)\Microsoft Visual Studio\2019\Community\VC\Tools\MSVC\14.27.29110\include\vector

; 1504 :         return _My_data._Myfirst[_Pos];

  00222	8b b6 38 03 00
	00		 mov	 esi, DWORD PTR [esi+824]
  00228	03 f0		 add	 esi, eax
; File C:\DS Project\DS Files\Source\ClientSource\Client\EterLib\SkyBox.cpp

; 687  : 		aSkyObjectQuad.SetSrcColor(0,

  0022a	8d 41 0c	 lea	 eax, DWORD PTR [ecx+12]
  0022d	50		 push	 eax
  0022e	8d 41 08	 lea	 eax, DWORD PTR [ecx+8]
  00231	50		 push	 eax
  00232	8d 41 04	 lea	 eax, DWORD PTR [ecx+4]
  00235	50		 push	 eax
  00236	51		 push	 ecx
  00237	8d 45 f8	 lea	 eax, DWORD PTR $T2[ebp]
  0023a	8b ce		 mov	 ecx, esi
  0023c	50		 push	 eax
  0023d	e8 00 00 00 00	 call	 ?SetSrcColor@CSkyObjectQuad@@QAEXABEABM111@Z ; CSkyObjectQuad::SetSrcColor

; 688  : 			c_rColorVector[ulVectorGradientColornum].m_FirstColor.r,
; 689  : 			c_rColorVector[ulVectorGradientColornum].m_FirstColor.g,
; 690  : 			c_rColorVector[ulVectorGradientColornum].m_FirstColor.b,
; 691  : 			c_rColorVector[ulVectorGradientColornum].m_FirstColor.a);
; 692  : 		aSkyObjectQuad.SetTransition(0,

  00242	8b 45 0c	 mov	 eax, DWORD PTR _c_rNextColorVector$[ebp]
  00245	57		 push	 edi
  00246	8b 08		 mov	 ecx, DWORD PTR [eax]
  00248	8d 41 0c	 lea	 eax, DWORD PTR [ecx+12]
  0024b	50		 push	 eax
  0024c	8d 41 08	 lea	 eax, DWORD PTR [ecx+8]
  0024f	50		 push	 eax
  00250	8d 41 04	 lea	 eax, DWORD PTR [ecx+4]
  00253	50		 push	 eax
  00254	51		 push	 ecx
  00255	8d 45 f9	 lea	 eax, DWORD PTR $T5[ebp]
  00258	8b ce		 mov	 ecx, esi
  0025a	50		 push	 eax
  0025b	e8 00 00 00 00	 call	 ?SetTransition@CSkyObjectQuad@@QAEXABEABM111K@Z ; CSkyObjectQuad::SetTransition

; 693  : 			c_rNextColorVector[ulVectorGradientColornum].m_FirstColor.r,
; 694  : 			c_rNextColorVector[ulVectorGradientColornum].m_FirstColor.g,
; 695  : 			c_rNextColorVector[ulVectorGradientColornum].m_FirstColor.b,
; 696  : 			c_rNextColorVector[ulVectorGradientColornum].m_FirstColor.a,
; 697  : 			lTransitionTime);
; 698  : 		aSkyObjectQuad.SetSrcColor(1,

  00260	8b 0b		 mov	 ecx, DWORD PTR [ebx]
  00262	8d 41 0c	 lea	 eax, DWORD PTR [ecx+12]
  00265	50		 push	 eax
  00266	8d 41 08	 lea	 eax, DWORD PTR [ecx+8]
  00269	50		 push	 eax
  0026a	8d 41 04	 lea	 eax, DWORD PTR [ecx+4]
  0026d	50		 push	 eax
  0026e	51		 push	 ecx
  0026f	8d 45 fa	 lea	 eax, DWORD PTR $T8[ebp]
  00272	8b ce		 mov	 ecx, esi
  00274	50		 push	 eax
  00275	e8 00 00 00 00	 call	 ?SetSrcColor@CSkyObjectQuad@@QAEXABEABM111@Z ; CSkyObjectQuad::SetSrcColor

; 699  : 			c_rColorVector[ulVectorGradientColornum].m_FirstColor.r,
; 700  : 			c_rColorVector[ulVectorGradientColornum].m_FirstColor.g,
; 701  : 			c_rColorVector[ulVectorGradientColornum].m_FirstColor.b,
; 702  : 			c_rColorVector[ulVectorGradientColornum].m_FirstColor.a);
; 703  : 		aSkyObjectQuad.SetTransition(1,

  0027a	8b 45 0c	 mov	 eax, DWORD PTR _c_rNextColorVector$[ebp]
  0027d	57		 push	 edi
  0027e	8b 08		 mov	 ecx, DWORD PTR [eax]
  00280	8d 41 0c	 lea	 eax, DWORD PTR [ecx+12]
  00283	50		 push	 eax
  00284	8d 41 08	 lea	 eax, DWORD PTR [ecx+8]
  00287	50		 push	 eax
  00288	8d 41 04	 lea	 eax, DWORD PTR [ecx+4]
  0028b	50		 push	 eax
  0028c	51		 push	 ecx
  0028d	8d 45 fb	 lea	 eax, DWORD PTR $T11[ebp]
  00290	8b ce		 mov	 ecx, esi
  00292	50		 push	 eax
  00293	e8 00 00 00 00	 call	 ?SetTransition@CSkyObjectQuad@@QAEXABEABM111K@Z ; CSkyObjectQuad::SetTransition

; 704  : 			c_rNextColorVector[ulVectorGradientColornum].m_FirstColor.r,
; 705  : 			c_rNextColorVector[ulVectorGradientColornum].m_FirstColor.g,
; 706  : 			c_rNextColorVector[ulVectorGradientColornum].m_FirstColor.b,
; 707  : 			c_rNextColorVector[ulVectorGradientColornum].m_FirstColor.a,
; 708  : 			lTransitionTime);
; 709  : 		aSkyObjectQuad.SetSrcColor(2,

  00298	8b 0b		 mov	 ecx, DWORD PTR [ebx]
  0029a	8d 41 0c	 lea	 eax, DWORD PTR [ecx+12]
  0029d	50		 push	 eax
  0029e	8d 41 08	 lea	 eax, DWORD PTR [ecx+8]
  002a1	50		 push	 eax
  002a2	8d 41 04	 lea	 eax, DWORD PTR [ecx+4]
  002a5	50		 push	 eax
  002a6	51		 push	 ecx
  002a7	8d 45 fc	 lea	 eax, DWORD PTR $T14[ebp]
  002aa	8b ce		 mov	 ecx, esi
  002ac	50		 push	 eax
  002ad	e8 00 00 00 00	 call	 ?SetSrcColor@CSkyObjectQuad@@QAEXABEABM111@Z ; CSkyObjectQuad::SetSrcColor

; 710  : 			c_rColorVector[ulVectorGradientColornum].m_FirstColor.r,
; 711  : 			c_rColorVector[ulVectorGradientColornum].m_FirstColor.g,
; 712  : 			c_rColorVector[ulVectorGradientColornum].m_FirstColor.b,
; 713  : 			c_rColorVector[ulVectorGradientColornum].m_FirstColor.a);
; 714  : 		aSkyObjectQuad.SetTransition(2,

  002b2	8b 45 0c	 mov	 eax, DWORD PTR _c_rNextColorVector$[ebp]
  002b5	57		 push	 edi
  002b6	8b 08		 mov	 ecx, DWORD PTR [eax]
  002b8	8d 41 0c	 lea	 eax, DWORD PTR [ecx+12]
  002bb	50		 push	 eax
  002bc	8d 41 08	 lea	 eax, DWORD PTR [ecx+8]
  002bf	50		 push	 eax
  002c0	8d 41 04	 lea	 eax, DWORD PTR [ecx+4]
  002c3	50		 push	 eax
  002c4	51		 push	 ecx
  002c5	8d 45 fd	 lea	 eax, DWORD PTR $T17[ebp]
  002c8	8b ce		 mov	 ecx, esi
  002ca	50		 push	 eax
  002cb	e8 00 00 00 00	 call	 ?SetTransition@CSkyObjectQuad@@QAEXABEABM111K@Z ; CSkyObjectQuad::SetTransition

; 715  : 			c_rNextColorVector[ulVectorGradientColornum].m_FirstColor.r,
; 716  : 			c_rNextColorVector[ulVectorGradientColornum].m_FirstColor.g,
; 717  : 			c_rNextColorVector[ulVectorGradientColornum].m_FirstColor.b,
; 718  : 			c_rNextColorVector[ulVectorGradientColornum].m_FirstColor.a,
; 719  : 			lTransitionTime);
; 720  : 		aSkyObjectQuad.SetSrcColor(3,

  002d0	8b 0b		 mov	 ecx, DWORD PTR [ebx]
  002d2	8d 41 0c	 lea	 eax, DWORD PTR [ecx+12]
  002d5	50		 push	 eax
  002d6	8d 41 08	 lea	 eax, DWORD PTR [ecx+8]
  002d9	50		 push	 eax
  002da	8d 41 04	 lea	 eax, DWORD PTR [ecx+4]
  002dd	50		 push	 eax
  002de	51		 push	 ecx
  002df	8d 45 fe	 lea	 eax, DWORD PTR $T20[ebp]
  002e2	8b ce		 mov	 ecx, esi
  002e4	50		 push	 eax
  002e5	e8 00 00 00 00	 call	 ?SetSrcColor@CSkyObjectQuad@@QAEXABEABM111@Z ; CSkyObjectQuad::SetSrcColor

; 721  : 			c_rColorVector[ulVectorGradientColornum].m_FirstColor.r,
; 722  : 			c_rColorVector[ulVectorGradientColornum].m_FirstColor.g,
; 723  : 			c_rColorVector[ulVectorGradientColornum].m_FirstColor.b,
; 724  : 			c_rColorVector[ulVectorGradientColornum].m_FirstColor.a);
; 725  : 		aSkyObjectQuad.SetTransition(3,

  002ea	8b 45 0c	 mov	 eax, DWORD PTR _c_rNextColorVector$[ebp]
  002ed	8b ce		 mov	 ecx, esi
  002ef	57		 push	 edi
  002f0	8b 10		 mov	 edx, DWORD PTR [eax]
  002f2	8d 42 0c	 lea	 eax, DWORD PTR [edx+12]
  002f5	50		 push	 eax
  002f6	8d 42 08	 lea	 eax, DWORD PTR [edx+8]
  002f9	50		 push	 eax
  002fa	8d 42 04	 lea	 eax, DWORD PTR [edx+4]
  002fd	50		 push	 eax
  002fe	52		 push	 edx
  002ff	8d 45 ff	 lea	 eax, DWORD PTR $T22[ebp]
  00302	50		 push	 eax
  00303	e8 00 00 00 00	 call	 ?SetTransition@CSkyObjectQuad@@QAEXABEABM111K@Z ; CSkyObjectQuad::SetTransition
; File C:\Program Files (x86)\Microsoft Visual Studio\2019\Community\VC\Tools\MSVC\14.27.29110\include\vector

; 1484 :         return static_cast<size_type>(_My_data._Mylast - _My_data._Myfirst);

  00308	8b 75 ec	 mov	 esi, DWORD PTR _this$1$[ebp]
  0030b	b8 b5 81 4e 1b	 mov	 eax, 458129845		; 1b4e81b5H
; File C:\DS Project\DS Files\Source\ClientSource\Client\EterLib\SkyBox.cpp

; 683  : 	for (uck = 0; uck < aFaceTop.m_SkyObjectQuadVector.size(); ++uck)

  00310	ff 45 f0	 inc	 DWORD PTR _uck$1$[ebp]
  00313	81 45 f4 2c 01
	00 00		 add	 DWORD PTR tv2409[ebp], 300 ; 0000012cH
; File C:\Program Files (x86)\Microsoft Visual Studio\2019\Community\VC\Tools\MSVC\14.27.29110\include\vector

; 1484 :         return static_cast<size_type>(_My_data._Mylast - _My_data._Myfirst);

  0031a	8b 8e 3c 03 00
	00		 mov	 ecx, DWORD PTR [esi+828]
  00320	2b 8e 38 03 00
	00		 sub	 ecx, DWORD PTR [esi+824]
  00326	f7 e9		 imul	 ecx
  00328	c1 fa 05	 sar	 edx, 5
  0032b	8b c2		 mov	 eax, edx
  0032d	c1 e8 1f	 shr	 eax, 31			; 0000001fH
  00330	03 c2		 add	 eax, edx
; File C:\DS Project\DS Files\Source\ClientSource\Client\EterLib\SkyBox.cpp

; 683  : 	for (uck = 0; uck < aFaceTop.m_SkyObjectQuadVector.size(); ++uck)

  00332	39 45 f0	 cmp	 DWORD PTR _uck$1$[ebp], eax
  00335	8b 45 f4	 mov	 eax, DWORD PTR tv2409[ebp]
  00338	0f 82 e2 fe ff
	ff		 jb	 $LL10@SetSkyColo
$LN9@SetSkyColo:
; File C:\Program Files (x86)\Microsoft Visual Studio\2019\Community\VC\Tools\MSVC\14.27.29110\include\vector

; 1484 :         return static_cast<size_type>(_My_data._Mylast - _My_data._Myfirst);

  0033e	8b 7b 04	 mov	 edi, DWORD PTR [ebx+4]
; File C:\DS Project\DS Files\Source\ClientSource\Client\EterLib\SkyBox.cpp

; 734  : 	for (uck = 0; uck < aFaceBottom.m_SkyObjectQuadVector.size(); ++uck)

  00341	33 c9		 xor	 ecx, ecx
; File C:\Program Files (x86)\Microsoft Visual Studio\2019\Community\VC\Tools\MSVC\14.27.29110\include\vector

; 1484 :         return static_cast<size_type>(_My_data._Mylast - _My_data._Myfirst);

  00343	2b 3b		 sub	 edi, DWORD PTR [ebx]
  00345	b8 b5 81 4e 1b	 mov	 eax, 458129845		; 1b4e81b5H
; File C:\DS Project\DS Files\Source\ClientSource\Client\EterLib\SkyBox.cpp

; 734  : 	for (uck = 0; uck < aFaceBottom.m_SkyObjectQuadVector.size(); ++uck)

  0034a	89 4d f0	 mov	 DWORD PTR _uck$2$[ebp], ecx
; File C:\Program Files (x86)\Microsoft Visual Studio\2019\Community\VC\Tools\MSVC\14.27.29110\include\vector

; 1484 :         return static_cast<size_type>(_My_data._Mylast - _My_data._Myfirst);

  0034d	8b 8e 78 03 00
	00		 mov	 ecx, DWORD PTR [esi+888]
  00353	2b 8e 74 03 00
	00		 sub	 ecx, DWORD PTR [esi+884]
  00359	f7 e9		 imul	 ecx
  0035b	c1 fa 05	 sar	 edx, 5
  0035e	8b c2		 mov	 eax, edx
  00360	c1 e8 1f	 shr	 eax, 31			; 0000001fH
  00363	03 c2		 add	 eax, edx
; File C:\DS Project\DS Files\Source\ClientSource\Client\EterLib\SkyBox.cpp

; 734  : 	for (uck = 0; uck < aFaceBottom.m_SkyObjectQuadVector.size(); ++uck)

  00365	0f 84 79 01 00
	00		 je	 $LN12@SetSkyColo

; 738  : 		aSkyObjectQuad.SetSrcColor(0,

  0036b	83 e7 e0	 and	 edi, -32		; ffffffe0H
  0036e	c6 45 0b 00	 mov	 BYTE PTR $T24[ebp], 0
  00372	83 ef 20	 sub	 edi, 32			; 00000020H

; 739  : 			c_rColorVector[ulVectorGradientColornum].m_SecondColor.r,
; 740  : 			c_rColorVector[ulVectorGradientColornum].m_SecondColor.g,
; 741  : 			c_rColorVector[ulVectorGradientColornum].m_SecondColor.b,
; 742  : 			c_rColorVector[ulVectorGradientColornum].m_SecondColor.a);
; 743  : 		aSkyObjectQuad.SetTransition(0,

  00375	c6 45 f8 00	 mov	 BYTE PTR $T1[ebp], 0
; File C:\Program Files (x86)\Microsoft Visual Studio\2019\Community\VC\Tools\MSVC\14.27.29110\include\vector

; 1484 :         return static_cast<size_type>(_My_data._Mylast - _My_data._Myfirst);

  00379	33 c0		 xor	 eax, eax
; File C:\DS Project\DS Files\Source\ClientSource\Client\EterLib\SkyBox.cpp

; 749  : 		aSkyObjectQuad.SetSrcColor(1,

  0037b	c6 45 f9 01	 mov	 BYTE PTR $T4[ebp], 1

; 750  : 			c_rColorVector[ulVectorGradientColornum].m_SecondColor.r,
; 751  : 			c_rColorVector[ulVectorGradientColornum].m_SecondColor.g,
; 752  : 			c_rColorVector[ulVectorGradientColornum].m_SecondColor.b,
; 753  : 			c_rColorVector[ulVectorGradientColornum].m_SecondColor.a);
; 754  : 		aSkyObjectQuad.SetTransition(1,

  0037f	c6 45 fa 01	 mov	 BYTE PTR $T7[ebp], 1

; 755  : 			c_rNextColorVector[ulVectorGradientColornum].m_SecondColor.r,
; 756  : 			c_rNextColorVector[ulVectorGradientColornum].m_SecondColor.g,
; 757  : 			c_rNextColorVector[ulVectorGradientColornum].m_SecondColor.b,
; 758  : 			c_rNextColorVector[ulVectorGradientColornum].m_SecondColor.a,
; 759  : 			lTransitionTime);
; 760  : 		aSkyObjectQuad.SetSrcColor(2,

  00383	c6 45 fb 02	 mov	 BYTE PTR $T10[ebp], 2

; 761  : 			c_rColorVector[ulVectorGradientColornum].m_SecondColor.r,
; 762  : 			c_rColorVector[ulVectorGradientColornum].m_SecondColor.g,
; 763  : 			c_rColorVector[ulVectorGradientColornum].m_SecondColor.b,
; 764  : 			c_rColorVector[ulVectorGradientColornum].m_SecondColor.a);
; 765  : 		aSkyObjectQuad.SetTransition(2,

  00387	c6 45 fc 02	 mov	 BYTE PTR $T13[ebp], 2

; 766  : 			c_rNextColorVector[ulVectorGradientColornum].m_SecondColor.r,
; 767  : 			c_rNextColorVector[ulVectorGradientColornum].m_SecondColor.g,
; 768  : 			c_rNextColorVector[ulVectorGradientColornum].m_SecondColor.b,
; 769  : 			c_rNextColorVector[ulVectorGradientColornum].m_SecondColor.a,
; 770  : 			lTransitionTime);
; 771  : 		aSkyObjectQuad.SetSrcColor(3,

  0038b	c6 45 fd 03	 mov	 BYTE PTR $T16[ebp], 3

; 772  : 			c_rColorVector[ulVectorGradientColornum].m_SecondColor.r,
; 773  : 			c_rColorVector[ulVectorGradientColornum].m_SecondColor.g,
; 774  : 			c_rColorVector[ulVectorGradientColornum].m_SecondColor.b,
; 775  : 			c_rColorVector[ulVectorGradientColornum].m_SecondColor.a);
; 776  : 		aSkyObjectQuad.SetTransition(3,

  0038f	c6 45 fe 03	 mov	 BYTE PTR $T19[ebp], 3
; File C:\Program Files (x86)\Microsoft Visual Studio\2019\Community\VC\Tools\MSVC\14.27.29110\include\vector

; 1484 :         return static_cast<size_type>(_My_data._Mylast - _My_data._Myfirst);

  00393	89 45 f4	 mov	 DWORD PTR tv2405[ebp], eax
$LL13@SetSkyColo:
; File C:\DS Project\DS Files\Source\ClientSource\Client\EterLib\SkyBox.cpp

; 738  : 		aSkyObjectQuad.SetSrcColor(0,

  00396	8b 0b		 mov	 ecx, DWORD PTR [ebx]
; File C:\Program Files (x86)\Microsoft Visual Studio\2019\Community\VC\Tools\MSVC\14.27.29110\include\vector

; 1504 :         return _My_data._Myfirst[_Pos];

  00398	8b b6 74 03 00
	00		 mov	 esi, DWORD PTR [esi+884]
; File C:\DS Project\DS Files\Source\ClientSource\Client\EterLib\SkyBox.cpp

; 738  : 		aSkyObjectQuad.SetSrcColor(0,

  0039e	03 cf		 add	 ecx, edi
; File C:\Program Files (x86)\Microsoft Visual Studio\2019\Community\VC\Tools\MSVC\14.27.29110\include\vector

; 1504 :         return _My_data._Myfirst[_Pos];

  003a0	03 f0		 add	 esi, eax
; File C:\DS Project\DS Files\Source\ClientSource\Client\EterLib\SkyBox.cpp

; 738  : 		aSkyObjectQuad.SetSrcColor(0,

  003a2	8d 41 1c	 lea	 eax, DWORD PTR [ecx+28]
  003a5	50		 push	 eax
  003a6	8d 41 18	 lea	 eax, DWORD PTR [ecx+24]
  003a9	50		 push	 eax
  003aa	8d 41 14	 lea	 eax, DWORD PTR [ecx+20]
  003ad	50		 push	 eax
  003ae	8d 41 10	 lea	 eax, DWORD PTR [ecx+16]
  003b1	8b ce		 mov	 ecx, esi
  003b3	50		 push	 eax
  003b4	8d 45 0b	 lea	 eax, DWORD PTR $T24[ebp]
  003b7	50		 push	 eax
  003b8	e8 00 00 00 00	 call	 ?SetSrcColor@CSkyObjectQuad@@QAEXABEABM111@Z ; CSkyObjectQuad::SetSrcColor

; 739  : 			c_rColorVector[ulVectorGradientColornum].m_SecondColor.r,
; 740  : 			c_rColorVector[ulVectorGradientColornum].m_SecondColor.g,
; 741  : 			c_rColorVector[ulVectorGradientColornum].m_SecondColor.b,
; 742  : 			c_rColorVector[ulVectorGradientColornum].m_SecondColor.a);
; 743  : 		aSkyObjectQuad.SetTransition(0,

  003bd	8b 4d 0c	 mov	 ecx, DWORD PTR _c_rNextColorVector$[ebp]
  003c0	ff 75 10	 push	 DWORD PTR _lTransitionTime$[ebp]
  003c3	8b 09		 mov	 ecx, DWORD PTR [ecx]
  003c5	03 cf		 add	 ecx, edi
  003c7	8d 41 1c	 lea	 eax, DWORD PTR [ecx+28]
  003ca	50		 push	 eax
  003cb	8d 41 18	 lea	 eax, DWORD PTR [ecx+24]
  003ce	50		 push	 eax
  003cf	8d 41 14	 lea	 eax, DWORD PTR [ecx+20]
  003d2	50		 push	 eax
  003d3	8d 41 10	 lea	 eax, DWORD PTR [ecx+16]
  003d6	8b ce		 mov	 ecx, esi
  003d8	50		 push	 eax
  003d9	8d 45 f8	 lea	 eax, DWORD PTR $T1[ebp]
  003dc	50		 push	 eax
  003dd	e8 00 00 00 00	 call	 ?SetTransition@CSkyObjectQuad@@QAEXABEABM111K@Z ; CSkyObjectQuad::SetTransition

; 749  : 		aSkyObjectQuad.SetSrcColor(1,

  003e2	8b 0b		 mov	 ecx, DWORD PTR [ebx]
  003e4	03 cf		 add	 ecx, edi
  003e6	8d 41 1c	 lea	 eax, DWORD PTR [ecx+28]
  003e9	50		 push	 eax
  003ea	8d 41 18	 lea	 eax, DWORD PTR [ecx+24]
  003ed	50		 push	 eax
  003ee	8d 41 14	 lea	 eax, DWORD PTR [ecx+20]
  003f1	50		 push	 eax
  003f2	8d 41 10	 lea	 eax, DWORD PTR [ecx+16]
  003f5	8b ce		 mov	 ecx, esi
  003f7	50		 push	 eax
  003f8	8d 45 f9	 lea	 eax, DWORD PTR $T4[ebp]
  003fb	50		 push	 eax
  003fc	e8 00 00 00 00	 call	 ?SetSrcColor@CSkyObjectQuad@@QAEXABEABM111@Z ; CSkyObjectQuad::SetSrcColor

; 750  : 			c_rColorVector[ulVectorGradientColornum].m_SecondColor.r,
; 751  : 			c_rColorVector[ulVectorGradientColornum].m_SecondColor.g,
; 752  : 			c_rColorVector[ulVectorGradientColornum].m_SecondColor.b,
; 753  : 			c_rColorVector[ulVectorGradientColornum].m_SecondColor.a);
; 754  : 		aSkyObjectQuad.SetTransition(1,

  00401	8b 4d 0c	 mov	 ecx, DWORD PTR _c_rNextColorVector$[ebp]
  00404	ff 75 10	 push	 DWORD PTR _lTransitionTime$[ebp]
  00407	8b 09		 mov	 ecx, DWORD PTR [ecx]
  00409	03 cf		 add	 ecx, edi
  0040b	8d 41 1c	 lea	 eax, DWORD PTR [ecx+28]
  0040e	50		 push	 eax
  0040f	8d 41 18	 lea	 eax, DWORD PTR [ecx+24]
  00412	50		 push	 eax
  00413	8d 41 14	 lea	 eax, DWORD PTR [ecx+20]
  00416	50		 push	 eax
  00417	8d 41 10	 lea	 eax, DWORD PTR [ecx+16]
  0041a	8b ce		 mov	 ecx, esi
  0041c	50		 push	 eax
  0041d	8d 45 fa	 lea	 eax, DWORD PTR $T7[ebp]
  00420	50		 push	 eax
  00421	e8 00 00 00 00	 call	 ?SetTransition@CSkyObjectQuad@@QAEXABEABM111K@Z ; CSkyObjectQuad::SetTransition

; 755  : 			c_rNextColorVector[ulVectorGradientColornum].m_SecondColor.r,
; 756  : 			c_rNextColorVector[ulVectorGradientColornum].m_SecondColor.g,
; 757  : 			c_rNextColorVector[ulVectorGradientColornum].m_SecondColor.b,
; 758  : 			c_rNextColorVector[ulVectorGradientColornum].m_SecondColor.a,
; 759  : 			lTransitionTime);
; 760  : 		aSkyObjectQuad.SetSrcColor(2,

  00426	8b 0b		 mov	 ecx, DWORD PTR [ebx]
  00428	03 cf		 add	 ecx, edi
  0042a	8d 41 1c	 lea	 eax, DWORD PTR [ecx+28]
  0042d	50		 push	 eax
  0042e	8d 41 18	 lea	 eax, DWORD PTR [ecx+24]
  00431	50		 push	 eax
  00432	8d 41 14	 lea	 eax, DWORD PTR [ecx+20]
  00435	50		 push	 eax
  00436	8d 41 10	 lea	 eax, DWORD PTR [ecx+16]
  00439	8b ce		 mov	 ecx, esi
  0043b	50		 push	 eax
  0043c	8d 45 fb	 lea	 eax, DWORD PTR $T10[ebp]
  0043f	50		 push	 eax
  00440	e8 00 00 00 00	 call	 ?SetSrcColor@CSkyObjectQuad@@QAEXABEABM111@Z ; CSkyObjectQuad::SetSrcColor

; 761  : 			c_rColorVector[ulVectorGradientColornum].m_SecondColor.r,
; 762  : 			c_rColorVector[ulVectorGradientColornum].m_SecondColor.g,
; 763  : 			c_rColorVector[ulVectorGradientColornum].m_SecondColor.b,
; 764  : 			c_rColorVector[ulVectorGradientColornum].m_SecondColor.a);
; 765  : 		aSkyObjectQuad.SetTransition(2,

  00445	8b 4d 0c	 mov	 ecx, DWORD PTR _c_rNextColorVector$[ebp]
  00448	ff 75 10	 push	 DWORD PTR _lTransitionTime$[ebp]
  0044b	8b 09		 mov	 ecx, DWORD PTR [ecx]
  0044d	03 cf		 add	 ecx, edi
  0044f	8d 41 1c	 lea	 eax, DWORD PTR [ecx+28]
  00452	50		 push	 eax
  00453	8d 41 18	 lea	 eax, DWORD PTR [ecx+24]
  00456	50		 push	 eax
  00457	8d 41 14	 lea	 eax, DWORD PTR [ecx+20]
  0045a	50		 push	 eax
  0045b	8d 41 10	 lea	 eax, DWORD PTR [ecx+16]
  0045e	8b ce		 mov	 ecx, esi
  00460	50		 push	 eax
  00461	8d 45 fc	 lea	 eax, DWORD PTR $T13[ebp]
  00464	50		 push	 eax
  00465	e8 00 00 00 00	 call	 ?SetTransition@CSkyObjectQuad@@QAEXABEABM111K@Z ; CSkyObjectQuad::SetTransition

; 766  : 			c_rNextColorVector[ulVectorGradientColornum].m_SecondColor.r,
; 767  : 			c_rNextColorVector[ulVectorGradientColornum].m_SecondColor.g,
; 768  : 			c_rNextColorVector[ulVectorGradientColornum].m_SecondColor.b,
; 769  : 			c_rNextColorVector[ulVectorGradientColornum].m_SecondColor.a,
; 770  : 			lTransitionTime);
; 771  : 		aSkyObjectQuad.SetSrcColor(3,

  0046a	8b 0b		 mov	 ecx, DWORD PTR [ebx]
  0046c	03 cf		 add	 ecx, edi
  0046e	8d 41 1c	 lea	 eax, DWORD PTR [ecx+28]
  00471	50		 push	 eax
  00472	8d 41 18	 lea	 eax, DWORD PTR [ecx+24]
  00475	50		 push	 eax
  00476	8d 41 14	 lea	 eax, DWORD PTR [ecx+20]
  00479	50		 push	 eax
  0047a	8d 41 10	 lea	 eax, DWORD PTR [ecx+16]
  0047d	8b ce		 mov	 ecx, esi
  0047f	50		 push	 eax
  00480	8d 45 fd	 lea	 eax, DWORD PTR $T16[ebp]
  00483	50		 push	 eax
  00484	e8 00 00 00 00	 call	 ?SetSrcColor@CSkyObjectQuad@@QAEXABEABM111@Z ; CSkyObjectQuad::SetSrcColor

; 772  : 			c_rColorVector[ulVectorGradientColornum].m_SecondColor.r,
; 773  : 			c_rColorVector[ulVectorGradientColornum].m_SecondColor.g,
; 774  : 			c_rColorVector[ulVectorGradientColornum].m_SecondColor.b,
; 775  : 			c_rColorVector[ulVectorGradientColornum].m_SecondColor.a);
; 776  : 		aSkyObjectQuad.SetTransition(3,

  00489	8b 4d 0c	 mov	 ecx, DWORD PTR _c_rNextColorVector$[ebp]
  0048c	ff 75 10	 push	 DWORD PTR _lTransitionTime$[ebp]
  0048f	8b 11		 mov	 edx, DWORD PTR [ecx]
  00491	8b ce		 mov	 ecx, esi
  00493	03 d7		 add	 edx, edi
  00495	8d 42 1c	 lea	 eax, DWORD PTR [edx+28]
  00498	50		 push	 eax
  00499	8d 42 18	 lea	 eax, DWORD PTR [edx+24]
  0049c	50		 push	 eax
  0049d	8d 42 14	 lea	 eax, DWORD PTR [edx+20]
  004a0	50		 push	 eax
  004a1	8d 42 10	 lea	 eax, DWORD PTR [edx+16]
  004a4	50		 push	 eax
  004a5	8d 45 fe	 lea	 eax, DWORD PTR $T19[ebp]
  004a8	50		 push	 eax
  004a9	e8 00 00 00 00	 call	 ?SetTransition@CSkyObjectQuad@@QAEXABEABM111K@Z ; CSkyObjectQuad::SetTransition
; File C:\Program Files (x86)\Microsoft Visual Studio\2019\Community\VC\Tools\MSVC\14.27.29110\include\vector

; 1484 :         return static_cast<size_type>(_My_data._Mylast - _My_data._Myfirst);

  004ae	8b 75 ec	 mov	 esi, DWORD PTR _this$1$[ebp]
  004b1	b8 b5 81 4e 1b	 mov	 eax, 458129845		; 1b4e81b5H
; File C:\DS Project\DS Files\Source\ClientSource\Client\EterLib\SkyBox.cpp

; 734  : 	for (uck = 0; uck < aFaceBottom.m_SkyObjectQuadVector.size(); ++uck)

  004b6	ff 45 f0	 inc	 DWORD PTR _uck$2$[ebp]
  004b9	81 45 f4 2c 01
	00 00		 add	 DWORD PTR tv2405[ebp], 300 ; 0000012cH
; File C:\Program Files (x86)\Microsoft Visual Studio\2019\Community\VC\Tools\MSVC\14.27.29110\include\vector

; 1484 :         return static_cast<size_type>(_My_data._Mylast - _My_data._Myfirst);

  004c0	8b 8e 78 03 00
	00		 mov	 ecx, DWORD PTR [esi+888]
  004c6	2b 8e 74 03 00
	00		 sub	 ecx, DWORD PTR [esi+884]
  004cc	f7 e9		 imul	 ecx
  004ce	c1 fa 05	 sar	 edx, 5
  004d1	8b c2		 mov	 eax, edx
  004d3	c1 e8 1f	 shr	 eax, 31			; 0000001fH
  004d6	03 c2		 add	 eax, edx
; File C:\DS Project\DS Files\Source\ClientSource\Client\EterLib\SkyBox.cpp

; 734  : 	for (uck = 0; uck < aFaceBottom.m_SkyObjectQuadVector.size(); ++uck)

  004d8	39 45 f0	 cmp	 DWORD PTR _uck$2$[ebp], eax
  004db	8b 45 f4	 mov	 eax, DWORD PTR tv2405[ebp]
  004de	0f 82 b2 fe ff
	ff		 jb	 $LL13@SetSkyColo
$LN12@SetSkyColo:
  004e4	5f		 pop	 edi

; 777  : 			c_rNextColorVector[ulVectorGradientColornum].m_SecondColor.r,
; 778  : 			c_rNextColorVector[ulVectorGradientColornum].m_SecondColor.g,
; 779  : 			c_rNextColorVector[ulVectorGradientColornum].m_SecondColor.b,
; 780  : 			c_rNextColorVector[ulVectorGradientColornum].m_SecondColor.a,
; 781  : 			lTransitionTime);
; 782  : 	}
; 783  : }

  004e5	5e		 pop	 esi
  004e6	5b		 pop	 ebx
  004e7	8b e5		 mov	 esp, ebp
  004e9	5d		 pop	 ebp
  004ea	c2 0c 00	 ret	 12			; 0000000cH
?SetSkyColor@CSkyBox@@QAEXABV?$vector@UTGradientColor@@V?$allocator@UTGradientColor@@@std@@@std@@0J@Z ENDP ; CSkyBox::SetSkyColor
_TEXT	ENDS
; Function compile flags: /Ogtp
; File C:\DS Project\DS Files\Source\ClientSource\Client\EterLib\SkyBox.cpp
; File C:\DS Project\DS Files\Source\ClientSource\extern\include\d3dx8math.inl
; File C:\DS Project\DS Files\Source\ClientSource\Client\EterLib\SkyBox.cpp
; File C:\DS Project\DS Files\Source\ClientSource\extern\include\d3dx8math.inl
; File C:\DS Project\DS Files\Source\ClientSource\Client\EterLib\SkyBox.cpp
; File C:\DS Project\DS Files\Source\ClientSource\extern\include\d3dx8math.inl
; File C:\DS Project\DS Files\Source\ClientSource\Client\EterLib\SkyBox.cpp
; File C:\DS Project\DS Files\Source\ClientSource\extern\include\d3dx8math.inl
; File C:\DS Project\DS Files\Source\ClientSource\Client\EterLib\SkyBox.cpp
; File C:\Program Files (x86)\Microsoft Visual Studio\2019\Community\VC\Tools\MSVC\14.27.29110\include\xstring
; File C:\DS Project\DS Files\Source\ClientSource\Client\EterLib\SkyBox.cpp
; File C:\Program Files (x86)\Microsoft Visual Studio\2019\Community\VC\Tools\MSVC\14.27.29110\include\xstring
; File C:\DS Project\DS Files\Source\ClientSource\Client\EterLib\SkyBox.cpp
