; Listing generated by Microsoft (R) Optimizing Compiler Version 19.27.29112.0 

	TITLE	C:\DS Project\DS Files\Source\ClientSource\Client\EterLib\TargaResource.cpp
	.686P
	.XMM
	include listing.inc
	.model	flat

INCLUDELIB LIBCMT
INCLUDELIB OLDNAMES

PUBLIC	?Type@CTargaResource@@SAKXZ			; CTargaResource::Type
PUBLIC	??0CTargaResource@@QAE@PBD@Z			; CTargaResource::CTargaResource
PUBLIC	??1CTargaResource@@UAE@XZ			; CTargaResource::~CTargaResource
PUBLIC	?GetMemPtr@CTargaResource@@QAEPAKXZ		; CTargaResource::GetMemPtr
PUBLIC	?GetRect@CTargaResource@@QAEXAAK0@Z		; CTargaResource::GetRect
PUBLIC	?GetTgaHeader@CTargaResource@@QAEAAUTGA_HEADER@@XZ ; CTargaResource::GetTgaHeader
PUBLIC	?OnLoad@CTargaResource@@MAE_NHPBX@Z		; CTargaResource::OnLoad
PUBLIC	?OnClear@CTargaResource@@MAEXXZ			; CTargaResource::OnClear
PUBLIC	?OnIsEmpty@CTargaResource@@MBE_NXZ		; CTargaResource::OnIsEmpty
PUBLIC	?OnIsType@CTargaResource@@MAE_NK@Z		; CTargaResource::OnIsType
PUBLIC	??_GCTargaResource@@UAEPAXI@Z			; CTargaResource::`scalar deleting destructor'
PUBLIC	??_7CTargaResource@@6B@				; CTargaResource::`vftable'
PUBLIC	??_C@_0P@NDEBAEPK@CTargaResource@		; `string'
PUBLIC	??_R4CTargaResource@@6B@			; CTargaResource::`RTTI Complete Object Locator'
PUBLIC	??_R0?AVCTargaResource@@@8			; CTargaResource `RTTI Type Descriptor'
PUBLIC	??_R3CTargaResource@@8				; CTargaResource::`RTTI Class Hierarchy Descriptor'
PUBLIC	??_R2CTargaResource@@8				; CTargaResource::`RTTI Base Class Array'
PUBLIC	??_R1A@?0A@EA@CTargaResource@@8			; CTargaResource::`RTTI Base Class Descriptor at (0,-1,0,64)'
PUBLIC	??_R1A@?0A@EA@CResource@@8			; CResource::`RTTI Base Class Descriptor at (0,-1,0,64)'
PUBLIC	??_R0?AVCResource@@@8				; CResource `RTTI Type Descriptor'
PUBLIC	??_R3CResource@@8				; CResource::`RTTI Class Hierarchy Descriptor'
PUBLIC	??_R2CResource@@8				; CResource::`RTTI Base Class Array'
PUBLIC	??_R1A@?0A@EA@CReferenceObject@@8		; CReferenceObject::`RTTI Base Class Descriptor at (0,-1,0,64)'
PUBLIC	??_R0?AVCReferenceObject@@@8			; CReferenceObject `RTTI Type Descriptor'
PUBLIC	??_R3CReferenceObject@@8			; CReferenceObject::`RTTI Class Hierarchy Descriptor'
PUBLIC	??_R2CReferenceObject@@8			; CReferenceObject::`RTTI Base Class Array'
EXTRN	??3@YAXPAXI@Z:PROC				; operator delete
EXTRN	__Init_thread_header:PROC
EXTRN	__Init_thread_abort:PROC
EXTRN	__Init_thread_footer:PROC
EXTRN	?StringToType@CResource@@SAKPBD@Z:PROC		; CResource::StringToType
EXTRN	?CreateDeviceObjects@CResource@@UAE_NXZ:PROC	; CResource::CreateDeviceObjects
EXTRN	?DestroyDeviceObjects@CResource@@UAEXXZ:PROC	; CResource::DestroyDeviceObjects
EXTRN	??0CResource@@QAE@PBD@Z:PROC			; CResource::CResource
EXTRN	??1CResource@@UAE@XZ:PROC			; CResource::~CResource
EXTRN	?OnIsType@CResource@@MAE_NK@Z:PROC		; CResource::OnIsType
EXTRN	?OnConstruct@CResource@@MAEXXZ:PROC		; CResource::OnConstruct
EXTRN	?OnSelfDestruct@CResource@@MAEXXZ:PROC		; CResource::OnSelfDestruct
EXTRN	?Clear@CImage@@QAEXK@Z:PROC			; CImage::Clear
EXTRN	?GetWidth@CImage@@QBEHXZ:PROC			; CImage::GetWidth
EXTRN	?GetHeight@CImage@@QBEHXZ:PROC			; CImage::GetHeight
EXTRN	?GetBasePointer@CImage@@QAEPAKXZ:PROC		; CImage::GetBasePointer
EXTRN	?IsEmpty@CImage@@QBE_NXZ:PROC			; CImage::IsEmpty
EXTRN	??0CTGAImage@@QAE@XZ:PROC			; CTGAImage::CTGAImage
EXTRN	??1CTGAImage@@UAE@XZ:PROC			; CTGAImage::~CTGAImage
EXTRN	?GetHeader@CTGAImage@@QAEAAUTGA_HEADER@@XZ:PROC	; CTGAImage::GetHeader
EXTRN	??_ECTargaResource@@UAEPAXI@Z:PROC		; CTargaResource::`vector deleting destructor'
EXTRN	@__security_check_cookie@4:PROC
EXTRN	___CxxFrameHandler3:PROC
EXTRN	__Init_thread_epoch:DWORD
EXTRN	??_7type_info@@6B@:QWORD			; type_info::`vftable'
EXTRN	___security_cookie:DWORD
EXTRN	__tls_array:DWORD
EXTRN	__tls_index:DWORD
;	COMDAT ?s_type@?1??Type@CTargaResource@@SAKXZ@4KA
_BSS	SEGMENT
?s_type@?1??Type@CTargaResource@@SAKXZ@4KA DD 01H DUP (?) ; `CTargaResource::Type'::`2'::s_type
_BSS	ENDS
;	COMDAT ?$TSS0@?1??Type@CTargaResource@@SAKXZ@4HA
_BSS	SEGMENT
?$TSS0@?1??Type@CTargaResource@@SAKXZ@4HA DD 01H DUP (?) ; `CTargaResource::Type'::`2'::$TSS0
_BSS	ENDS
;	COMDAT ??_R2CReferenceObject@@8
rdata$r	SEGMENT
??_R2CReferenceObject@@8 DD FLAT:??_R1A@?0A@EA@CReferenceObject@@8 ; CReferenceObject::`RTTI Base Class Array'
rdata$r	ENDS
;	COMDAT ??_R3CReferenceObject@@8
rdata$r	SEGMENT
??_R3CReferenceObject@@8 DD 00H				; CReferenceObject::`RTTI Class Hierarchy Descriptor'
	DD	00H
	DD	01H
	DD	FLAT:??_R2CReferenceObject@@8
rdata$r	ENDS
;	COMDAT ??_R0?AVCReferenceObject@@@8
data$r	SEGMENT
??_R0?AVCReferenceObject@@@8 DD FLAT:??_7type_info@@6B@	; CReferenceObject `RTTI Type Descriptor'
	DD	00H
	DB	'.?AVCReferenceObject@@', 00H
data$r	ENDS
;	COMDAT ??_R1A@?0A@EA@CReferenceObject@@8
rdata$r	SEGMENT
??_R1A@?0A@EA@CReferenceObject@@8 DD FLAT:??_R0?AVCReferenceObject@@@8 ; CReferenceObject::`RTTI Base Class Descriptor at (0,-1,0,64)'
	DD	00H
	DD	00H
	DD	0ffffffffH
	DD	00H
	DD	040H
	DD	FLAT:??_R3CReferenceObject@@8
rdata$r	ENDS
;	COMDAT ??_R2CResource@@8
rdata$r	SEGMENT
??_R2CResource@@8 DD FLAT:??_R1A@?0A@EA@CResource@@8	; CResource::`RTTI Base Class Array'
	DD	FLAT:??_R1A@?0A@EA@CReferenceObject@@8
rdata$r	ENDS
;	COMDAT ??_R3CResource@@8
rdata$r	SEGMENT
??_R3CResource@@8 DD 00H				; CResource::`RTTI Class Hierarchy Descriptor'
	DD	00H
	DD	02H
	DD	FLAT:??_R2CResource@@8
rdata$r	ENDS
;	COMDAT ??_R0?AVCResource@@@8
data$r	SEGMENT
??_R0?AVCResource@@@8 DD FLAT:??_7type_info@@6B@	; CResource `RTTI Type Descriptor'
	DD	00H
	DB	'.?AVCResource@@', 00H
data$r	ENDS
;	COMDAT ??_R1A@?0A@EA@CResource@@8
rdata$r	SEGMENT
??_R1A@?0A@EA@CResource@@8 DD FLAT:??_R0?AVCResource@@@8 ; CResource::`RTTI Base Class Descriptor at (0,-1,0,64)'
	DD	01H
	DD	00H
	DD	0ffffffffH
	DD	00H
	DD	040H
	DD	FLAT:??_R3CResource@@8
rdata$r	ENDS
;	COMDAT ??_R1A@?0A@EA@CTargaResource@@8
rdata$r	SEGMENT
??_R1A@?0A@EA@CTargaResource@@8 DD FLAT:??_R0?AVCTargaResource@@@8 ; CTargaResource::`RTTI Base Class Descriptor at (0,-1,0,64)'
	DD	02H
	DD	00H
	DD	0ffffffffH
	DD	00H
	DD	040H
	DD	FLAT:??_R3CTargaResource@@8
rdata$r	ENDS
;	COMDAT ??_R2CTargaResource@@8
rdata$r	SEGMENT
??_R2CTargaResource@@8 DD FLAT:??_R1A@?0A@EA@CTargaResource@@8 ; CTargaResource::`RTTI Base Class Array'
	DD	FLAT:??_R1A@?0A@EA@CResource@@8
	DD	FLAT:??_R1A@?0A@EA@CReferenceObject@@8
rdata$r	ENDS
;	COMDAT ??_R3CTargaResource@@8
rdata$r	SEGMENT
??_R3CTargaResource@@8 DD 00H				; CTargaResource::`RTTI Class Hierarchy Descriptor'
	DD	00H
	DD	03H
	DD	FLAT:??_R2CTargaResource@@8
rdata$r	ENDS
;	COMDAT ??_R0?AVCTargaResource@@@8
data$r	SEGMENT
??_R0?AVCTargaResource@@@8 DD FLAT:??_7type_info@@6B@	; CTargaResource `RTTI Type Descriptor'
	DD	00H
	DB	'.?AVCTargaResource@@', 00H
data$r	ENDS
;	COMDAT ??_R4CTargaResource@@6B@
rdata$r	SEGMENT
??_R4CTargaResource@@6B@ DD 00H				; CTargaResource::`RTTI Complete Object Locator'
	DD	00H
	DD	00H
	DD	FLAT:??_R0?AVCTargaResource@@@8
	DD	FLAT:??_R3CTargaResource@@8
rdata$r	ENDS
;	COMDAT ??_C@_0P@NDEBAEPK@CTargaResource@
CONST	SEGMENT
??_C@_0P@NDEBAEPK@CTargaResource@ DB 'CTargaResource', 00H ; `string'
CONST	ENDS
;	COMDAT ??_7CTargaResource@@6B@
CONST	SEGMENT
??_7CTargaResource@@6B@ DD FLAT:??_R4CTargaResource@@6B@ ; CTargaResource::`vftable'
	DD	FLAT:??_ECTargaResource@@UAEPAXI@Z
	DD	FLAT:?OnConstruct@CResource@@MAEXXZ
	DD	FLAT:?OnSelfDestruct@CResource@@MAEXXZ
	DD	FLAT:?CreateDeviceObjects@CResource@@UAE_NXZ
	DD	FLAT:?DestroyDeviceObjects@CResource@@UAEXXZ
	DD	FLAT:?OnLoad@CTargaResource@@MAE_NHPBX@Z
	DD	FLAT:?OnClear@CTargaResource@@MAEXXZ
	DD	FLAT:?OnIsEmpty@CTargaResource@@MBE_NXZ
	DD	FLAT:?OnIsType@CTargaResource@@MAE_NK@Z
CONST	ENDS
;	COMDAT xdata$x
xdata$x	SEGMENT
__unwindtable$??0CTargaResource@@QAE@PBD@Z DD 0ffffffffH
	DD	FLAT:__unwindfunclet$??0CTargaResource@@QAE@PBD@Z$0
__ehfuncinfo$??0CTargaResource@@QAE@PBD@Z DD 019930522H
	DD	01H
	DD	FLAT:__unwindtable$??0CTargaResource@@QAE@PBD@Z
	DD	2 DUP(00H)
	DD	2 DUP(00H)
	DD	00H
	DD	01H
xdata$x	ENDS
;	COMDAT xdata$x
xdata$x	SEGMENT
__unwindtable$?Type@CTargaResource@@SAKXZ DD 0ffffffffH
	DD	FLAT:__unwindfunclet$?Type@CTargaResource@@SAKXZ$0
__ehfuncinfo$?Type@CTargaResource@@SAKXZ DD 019930522H
	DD	01H
	DD	FLAT:__unwindtable$?Type@CTargaResource@@SAKXZ
	DD	2 DUP(00H)
	DD	2 DUP(00H)
	DD	00H
	DD	01H
xdata$x	ENDS
; Function compile flags: /Ogtp
;	COMDAT ??_GCTargaResource@@UAEPAXI@Z
_TEXT	SEGMENT
___flags$ = 8						; size = 4
??_GCTargaResource@@UAEPAXI@Z PROC			; CTargaResource::`scalar deleting destructor', COMDAT
; _this$ = ecx
  00000	55		 push	 ebp
  00001	8b ec		 mov	 ebp, esp
  00003	56		 push	 esi
  00004	8b f1		 mov	 esi, ecx
  00006	e8 00 00 00 00	 call	 ??1CTargaResource@@UAE@XZ ; CTargaResource::~CTargaResource
  0000b	f6 45 08 01	 test	 BYTE PTR ___flags$[ebp], 1
  0000f	74 0b		 je	 SHORT $LN4@scalar
  00011	6a 70		 push	 112			; 00000070H
  00013	56		 push	 esi
  00014	e8 00 00 00 00	 call	 ??3@YAXPAXI@Z		; operator delete
  00019	83 c4 08	 add	 esp, 8
$LN4@scalar:
  0001c	8b c6		 mov	 eax, esi
  0001e	5e		 pop	 esi
  0001f	5d		 pop	 ebp
  00020	c2 04 00	 ret	 4
??_GCTargaResource@@UAEPAXI@Z ENDP			; CTargaResource::`scalar deleting destructor'
_TEXT	ENDS
; Function compile flags: /Ogtp
; File C:\DS Project\DS Files\Source\ClientSource\Client\EterLib\TargaResource.cpp
;	COMDAT ?OnIsType@CTargaResource@@MAE_NK@Z
_TEXT	SEGMENT
_type$ = 8						; size = 4
?OnIsType@CTargaResource@@MAE_NK@Z PROC			; CTargaResource::OnIsType, COMDAT
; _this$ = ecx

; 19   : {

  00000	55		 push	 ebp
  00001	8b ec		 mov	 ebp, esp
  00003	56		 push	 esi
  00004	8b f1		 mov	 esi, ecx

; 20   : 	if (CTargaResource::Type() == type)

  00006	e8 00 00 00 00	 call	 ?Type@CTargaResource@@SAKXZ ; CTargaResource::Type
  0000b	8b 55 08	 mov	 edx, DWORD PTR _type$[ebp]
  0000e	3b c2		 cmp	 eax, edx
  00010	75 07		 jne	 SHORT $LN2@OnIsType

; 21   : 		return true;

  00012	b0 01		 mov	 al, 1
  00014	5e		 pop	 esi

; 24   : }

  00015	5d		 pop	 ebp
  00016	c2 04 00	 ret	 4
$LN2@OnIsType:

; 22   : 
; 23   : 	return CResource::OnIsType(type);

  00019	52		 push	 edx
  0001a	8b ce		 mov	 ecx, esi
  0001c	e8 00 00 00 00	 call	 ?OnIsType@CResource@@MAE_NK@Z ; CResource::OnIsType
  00021	5e		 pop	 esi

; 24   : }

  00022	5d		 pop	 ebp
  00023	c2 04 00	 ret	 4
?OnIsType@CTargaResource@@MAE_NK@Z ENDP			; CTargaResource::OnIsType
_TEXT	ENDS
; Function compile flags: /Ogtp
; File C:\DS Project\DS Files\Source\ClientSource\Client\EterLib\TargaResource.cpp
;	COMDAT ?OnIsEmpty@CTargaResource@@MBE_NXZ
_TEXT	SEGMENT
?OnIsEmpty@CTargaResource@@MBE_NXZ PROC			; CTargaResource::OnIsEmpty, COMDAT
; _this$ = ecx

; 38   : 	return image.IsEmpty();

  00000	83 c1 2c	 add	 ecx, 44			; 0000002cH
  00003	e9 00 00 00 00	 jmp	 ?IsEmpty@CImage@@QBE_NXZ ; CImage::IsEmpty
?OnIsEmpty@CTargaResource@@MBE_NXZ ENDP			; CTargaResource::OnIsEmpty
_TEXT	ENDS
; Function compile flags: /Ogtp
; File C:\DS Project\DS Files\Source\ClientSource\Client\EterLib\TargaResource.cpp
;	COMDAT ?OnClear@CTargaResource@@MAEXXZ
_TEXT	SEGMENT
?OnClear@CTargaResource@@MAEXXZ PROC			; CTargaResource::OnClear, COMDAT
; _this$ = ecx

; 33   : 	image.Clear();

  00000	6a 00		 push	 0
  00002	83 c1 2c	 add	 ecx, 44			; 0000002cH
  00005	e8 00 00 00 00	 call	 ?Clear@CImage@@QAEXK@Z	; CImage::Clear

; 34   : }

  0000a	c3		 ret	 0
?OnClear@CTargaResource@@MAEXXZ ENDP			; CTargaResource::OnClear
_TEXT	ENDS
; Function compile flags: /Ogtp
; File C:\DS Project\DS Files\Source\ClientSource\Client\EterLib\TargaResource.cpp
;	COMDAT ?OnLoad@CTargaResource@@MAE_NHPBX@Z
_TEXT	SEGMENT
_iSize$ = 8						; size = 4
_c_pvBuf$ = 12						; size = 4
?OnLoad@CTargaResource@@MAE_NHPBX@Z PROC		; CTargaResource::OnLoad, COMDAT
; _this$ = ecx

; 27   : {

  00000	55		 push	 ebp
  00001	8b ec		 mov	 ebp, esp

; 28   : 	return image.LoadFromMemory(iSize, static_cast<const BYTE *>(c_pvBuf));

  00003	8b 41 2c	 mov	 eax, DWORD PTR [ecx+44]
  00006	83 c1 2c	 add	 ecx, 44			; 0000002cH
  00009	8b 40 08	 mov	 eax, DWORD PTR [eax+8]

; 29   : }

  0000c	5d		 pop	 ebp

; 28   : 	return image.LoadFromMemory(iSize, static_cast<const BYTE *>(c_pvBuf));

  0000d	ff e0		 jmp	 eax
?OnLoad@CTargaResource@@MAE_NHPBX@Z ENDP		; CTargaResource::OnLoad
_TEXT	ENDS
; Function compile flags: /Ogtp
; File C:\DS Project\DS Files\Source\ClientSource\Client\EterLib\TargaResource.cpp
;	COMDAT ?GetTgaHeader@CTargaResource@@QAEAAUTGA_HEADER@@XZ
_TEXT	SEGMENT
?GetTgaHeader@CTargaResource@@QAEAAUTGA_HEADER@@XZ PROC	; CTargaResource::GetTgaHeader, COMDAT
; _this$ = ecx

; 54   : 	return image.GetHeader();

  00000	83 c1 2c	 add	 ecx, 44			; 0000002cH
  00003	e9 00 00 00 00	 jmp	 ?GetHeader@CTGAImage@@QAEAAUTGA_HEADER@@XZ ; CTGAImage::GetHeader
?GetTgaHeader@CTargaResource@@QAEAAUTGA_HEADER@@XZ ENDP	; CTargaResource::GetTgaHeader
_TEXT	ENDS
; Function compile flags: /Ogtp
; File C:\DS Project\DS Files\Source\ClientSource\Client\EterLib\TargaResource.cpp
;	COMDAT ?GetRect@CTargaResource@@QAEXAAK0@Z
_TEXT	SEGMENT
_w$ = 8							; size = 4
_h$ = 12						; size = 4
?GetRect@CTargaResource@@QAEXAAK0@Z PROC		; CTargaResource::GetRect, COMDAT
; _this$ = ecx

; 42   : {

  00000	55		 push	 ebp
  00001	8b ec		 mov	 ebp, esp
  00003	56		 push	 esi

; 43   : 	w = image.GetWidth();

  00004	8d 71 2c	 lea	 esi, DWORD PTR [ecx+44]
  00007	8b ce		 mov	 ecx, esi
  00009	e8 00 00 00 00	 call	 ?GetWidth@CImage@@QBEHXZ ; CImage::GetWidth
  0000e	8b 55 08	 mov	 edx, DWORD PTR _w$[ebp]

; 44   : 	h = image.GetHeight();

  00011	8b ce		 mov	 ecx, esi
  00013	89 02		 mov	 DWORD PTR [edx], eax
  00015	e8 00 00 00 00	 call	 ?GetHeight@CImage@@QBEHXZ ; CImage::GetHeight
  0001a	8b 4d 0c	 mov	 ecx, DWORD PTR _h$[ebp]
  0001d	5e		 pop	 esi
  0001e	89 01		 mov	 DWORD PTR [ecx], eax

; 45   : }

  00020	5d		 pop	 ebp
  00021	c2 08 00	 ret	 8
?GetRect@CTargaResource@@QAEXAAK0@Z ENDP		; CTargaResource::GetRect
_TEXT	ENDS
; Function compile flags: /Ogtp
; File C:\DS Project\DS Files\Source\ClientSource\Client\EterLib\TargaResource.cpp
;	COMDAT ?GetMemPtr@CTargaResource@@QAEPAKXZ
_TEXT	SEGMENT
?GetMemPtr@CTargaResource@@QAEPAKXZ PROC		; CTargaResource::GetMemPtr, COMDAT
; _this$ = ecx

; 49   : 	return image.GetBasePointer();

  00000	83 c1 2c	 add	 ecx, 44			; 0000002cH
  00003	e9 00 00 00 00	 jmp	 ?GetBasePointer@CImage@@QAEPAKXZ ; CImage::GetBasePointer
?GetMemPtr@CTargaResource@@QAEPAKXZ ENDP		; CTargaResource::GetMemPtr
_TEXT	ENDS
; Function compile flags: /Ogtp
; File C:\DS Project\DS Files\Source\ClientSource\Client\EterLib\TargaResource.cpp
;	COMDAT ??1CTargaResource@@UAE@XZ
_TEXT	SEGMENT
??1CTargaResource@@UAE@XZ PROC				; CTargaResource::~CTargaResource, COMDAT
; _this$ = ecx

; 9    : {

  00000	56		 push	 esi
  00001	8b f1		 mov	 esi, ecx

; 10   : }

  00003	8d 4e 2c	 lea	 ecx, DWORD PTR [esi+44]
  00006	c7 06 00 00 00
	00		 mov	 DWORD PTR [esi], OFFSET ??_7CTargaResource@@6B@
  0000c	e8 00 00 00 00	 call	 ??1CTGAImage@@UAE@XZ	; CTGAImage::~CTGAImage
  00011	8b ce		 mov	 ecx, esi
  00013	5e		 pop	 esi
  00014	e9 00 00 00 00	 jmp	 ??1CResource@@UAE@XZ	; CResource::~CResource
??1CTargaResource@@UAE@XZ ENDP				; CTargaResource::~CTargaResource
_TEXT	ENDS
; Function compile flags: /Ogtp
; File C:\DS Project\DS Files\Source\ClientSource\Client\EterLib\TargaResource.cpp
;	COMDAT ??0CTargaResource@@QAE@PBD@Z
_TEXT	SEGMENT
_this$ = -16						; size = 4
__$EHRec$ = -12						; size = 12
_c_pszFileName$ = 8					; size = 4
??0CTargaResource@@QAE@PBD@Z PROC			; CTargaResource::CTargaResource, COMDAT
; _this$ = ecx

; 5    : {

  00000	55		 push	 ebp
  00001	8b ec		 mov	 ebp, esp
  00003	6a ff		 push	 -1
  00005	68 00 00 00 00	 push	 __ehhandler$??0CTargaResource@@QAE@PBD@Z
  0000a	64 a1 00 00 00
	00		 mov	 eax, DWORD PTR fs:0
  00010	50		 push	 eax
  00011	51		 push	 ecx
  00012	56		 push	 esi
  00013	a1 00 00 00 00	 mov	 eax, DWORD PTR ___security_cookie
  00018	33 c5		 xor	 eax, ebp
  0001a	50		 push	 eax
  0001b	8d 45 f4	 lea	 eax, DWORD PTR __$EHRec$[ebp]
  0001e	64 a3 00 00 00
	00		 mov	 DWORD PTR fs:0, eax
  00024	8b f1		 mov	 esi, ecx
  00026	89 75 f0	 mov	 DWORD PTR _this$[ebp], esi

; 4    : CTargaResource::CTargaResource(const char * c_pszFileName) : CResource(c_pszFileName)

  00029	ff 75 08	 push	 DWORD PTR _c_pszFileName$[ebp]
  0002c	e8 00 00 00 00	 call	 ??0CResource@@QAE@PBD@Z	; CResource::CResource

; 5    : {

  00031	8d 4e 2c	 lea	 ecx, DWORD PTR [esi+44]
  00034	c7 45 fc 00 00
	00 00		 mov	 DWORD PTR __$EHRec$[ebp+8], 0
  0003b	c7 06 00 00 00
	00		 mov	 DWORD PTR [esi], OFFSET ??_7CTargaResource@@6B@
  00041	e8 00 00 00 00	 call	 ??0CTGAImage@@QAE@XZ	; CTGAImage::CTGAImage

; 6    : }

  00046	8b c6		 mov	 eax, esi
  00048	8b 4d f4	 mov	 ecx, DWORD PTR __$EHRec$[ebp]
  0004b	64 89 0d 00 00
	00 00		 mov	 DWORD PTR fs:0, ecx
  00052	59		 pop	 ecx
  00053	5e		 pop	 esi
  00054	8b e5		 mov	 esp, ebp
  00056	5d		 pop	 ebp
  00057	c2 04 00	 ret	 4
_TEXT	ENDS
;	COMDAT text$x
text$x	SEGMENT
__unwindfunclet$??0CTargaResource@@QAE@PBD@Z$0:
  00000	8b 4d f0	 mov	 ecx, DWORD PTR _this$[ebp]
  00003	e9 00 00 00 00	 jmp	 ??1CResource@@UAE@XZ	; CResource::~CResource
  00008	cc		 int	 3
  00009	cc		 int	 3
  0000a	cc		 int	 3
  0000b	cc		 int	 3
  0000c	cc		 int	 3
__ehhandler$??0CTargaResource@@QAE@PBD@Z:
  0000d	90		 npad	 1
  0000e	90		 npad	 1
  0000f	8b 54 24 08	 mov	 edx, DWORD PTR [esp+8]
  00013	8d 42 0c	 lea	 eax, DWORD PTR [edx+12]
  00016	8b 4a f4	 mov	 ecx, DWORD PTR [edx-12]
  00019	33 c8		 xor	 ecx, eax
  0001b	e8 00 00 00 00	 call	 @__security_check_cookie@4
  00020	b8 00 00 00 00	 mov	 eax, OFFSET __ehfuncinfo$??0CTargaResource@@QAE@PBD@Z
  00025	e9 00 00 00 00	 jmp	 ___CxxFrameHandler3
text$x	ENDS
??0CTargaResource@@QAE@PBD@Z ENDP			; CTargaResource::CTargaResource
; Function compile flags: /Ogtp
; File C:\DS Project\DS Files\Source\ClientSource\Client\EterLib\TargaResource.cpp
;	COMDAT ?Type@CTargaResource@@SAKXZ
_TEXT	SEGMENT
__$EHRec$ = -12						; size = 12
?Type@CTargaResource@@SAKXZ PROC			; CTargaResource::Type, COMDAT

; 13   : {

  00000	55		 push	 ebp
  00001	8b ec		 mov	 ebp, esp
  00003	6a ff		 push	 -1
  00005	68 00 00 00 00	 push	 __ehhandler$?Type@CTargaResource@@SAKXZ
  0000a	64 a1 00 00 00
	00		 mov	 eax, DWORD PTR fs:0
  00010	50		 push	 eax
  00011	a1 00 00 00 00	 mov	 eax, DWORD PTR ___security_cookie
  00016	33 c5		 xor	 eax, ebp
  00018	50		 push	 eax
  00019	8d 45 f4	 lea	 eax, DWORD PTR __$EHRec$[ebp]
  0001c	64 a3 00 00 00
	00		 mov	 DWORD PTR fs:0, eax

; 14   : 	static TType s_type = StringToType("CTargaResource");

  00022	64 a1 00 00 00
	00		 mov	 eax, DWORD PTR fs:__tls_array
  00028	8b 0d 00 00 00
	00		 mov	 ecx, DWORD PTR __tls_index
  0002e	8b 0c 88	 mov	 ecx, DWORD PTR [eax+ecx*4]
  00031	a1 00 00 00 00	 mov	 eax, DWORD PTR ?$TSS0@?1??Type@CTargaResource@@SAKXZ@4HA
  00036	3b 81 00 00 00
	00		 cmp	 eax, DWORD PTR __Init_thread_epoch[ecx]
  0003c	7f 14		 jg	 SHORT $LN9@Type
$LN5@Type:

; 15   : 	return s_type;
; 16   : }

  0003e	a1 00 00 00 00	 mov	 eax, DWORD PTR ?s_type@?1??Type@CTargaResource@@SAKXZ@4KA
  00043	8b 4d f4	 mov	 ecx, DWORD PTR __$EHRec$[ebp]
  00046	64 89 0d 00 00
	00 00		 mov	 DWORD PTR fs:0, ecx
  0004d	59		 pop	 ecx
  0004e	8b e5		 mov	 esp, ebp
  00050	5d		 pop	 ebp
  00051	c3		 ret	 0
$LN9@Type:

; 14   : 	static TType s_type = StringToType("CTargaResource");

  00052	68 00 00 00 00	 push	 OFFSET ?$TSS0@?1??Type@CTargaResource@@SAKXZ@4HA
  00057	e8 00 00 00 00	 call	 __Init_thread_header
  0005c	83 c4 04	 add	 esp, 4
  0005f	83 3d 00 00 00
	00 ff		 cmp	 DWORD PTR ?$TSS0@?1??Type@CTargaResource@@SAKXZ@4HA, -1
  00066	75 d6		 jne	 SHORT $LN5@Type
  00068	68 00 00 00 00	 push	 OFFSET ??_C@_0P@NDEBAEPK@CTargaResource@
  0006d	c7 45 fc 00 00
	00 00		 mov	 DWORD PTR __$EHRec$[ebp+8], 0
  00074	e8 00 00 00 00	 call	 ?StringToType@CResource@@SAKPBD@Z ; CResource::StringToType
  00079	68 00 00 00 00	 push	 OFFSET ?$TSS0@?1??Type@CTargaResource@@SAKXZ@4HA
  0007e	a3 00 00 00 00	 mov	 DWORD PTR ?s_type@?1??Type@CTargaResource@@SAKXZ@4KA, eax
  00083	e8 00 00 00 00	 call	 __Init_thread_footer
  00088	83 c4 08	 add	 esp, 8
  0008b	eb b1		 jmp	 SHORT $LN5@Type
_TEXT	ENDS
;	COMDAT text$x
text$x	SEGMENT
__unwindfunclet$?Type@CTargaResource@@SAKXZ$0:
  00000	68 00 00 00 00	 push	 OFFSET ?$TSS0@?1??Type@CTargaResource@@SAKXZ@4HA
  00005	e8 00 00 00 00	 call	 __Init_thread_abort
  0000a	59		 pop	 ecx
  0000b	c3		 ret	 0
  0000c	cc		 int	 3
  0000d	cc		 int	 3
  0000e	cc		 int	 3
  0000f	cc		 int	 3
  00010	cc		 int	 3
__ehhandler$?Type@CTargaResource@@SAKXZ:
  00011	90		 npad	 1
  00012	90		 npad	 1
  00013	8b 54 24 08	 mov	 edx, DWORD PTR [esp+8]
  00017	8d 42 0c	 lea	 eax, DWORD PTR [edx+12]
  0001a	8b 4a fc	 mov	 ecx, DWORD PTR [edx-4]
  0001d	33 c8		 xor	 ecx, eax
  0001f	e8 00 00 00 00	 call	 @__security_check_cookie@4
  00024	b8 00 00 00 00	 mov	 eax, OFFSET __ehfuncinfo$?Type@CTargaResource@@SAKXZ
  00029	e9 00 00 00 00	 jmp	 ___CxxFrameHandler3
text$x	ENDS
?Type@CTargaResource@@SAKXZ ENDP			; CTargaResource::Type
END
