; Listing generated by Microsoft (R) Optimizing Compiler Version 19.27.29112.0 

	TITLE	C:\DS Project\DS Files\Source\ClientSource\Client\PRTerrainLib\TextureSet.cpp
	.686P
	.XMM
	include listing.inc
	.model	flat

INCLUDELIB LIBCMT
INCLUDELIB OLDNAMES

CONST	SEGMENT
?piecewise_construct@std@@3Upiecewise_construct_t@1@B	ORG $+1 ; std::piecewise_construct
CONST	ENDS
PUBLIC	___local_stdio_printf_options
PUBLIC	_fprintf
PUBLIC	__snprintf
PUBLIC	??0exception@std@@QAE@ABV01@@Z			; std::exception::exception
PUBLIC	??1exception@std@@UAE@XZ			; std::exception::~exception
PUBLIC	?what@exception@std@@UBEPBDXZ			; std::exception::what
PUBLIC	??_Gexception@std@@UAEPAXI@Z			; std::exception::`scalar deleting destructor'
PUBLIC	??0bad_alloc@std@@QAE@ABV01@@Z			; std::bad_alloc::bad_alloc
PUBLIC	??_Gbad_alloc@std@@UAEPAXI@Z			; std::bad_alloc::`scalar deleting destructor'
PUBLIC	??0bad_array_new_length@std@@QAE@XZ		; std::bad_array_new_length::bad_array_new_length
PUBLIC	??1bad_array_new_length@std@@UAE@XZ		; std::bad_array_new_length::~bad_array_new_length
PUBLIC	??0bad_array_new_length@std@@QAE@ABV01@@Z	; std::bad_array_new_length::bad_array_new_length
PUBLIC	??_Gbad_array_new_length@std@@UAEPAXI@Z		; std::bad_array_new_length::`scalar deleting destructor'
PUBLIC	?_Throw_bad_array_new_length@std@@YAXXZ		; std::_Throw_bad_array_new_length
PUBLIC	?_Xlen_string@std@@YAXXZ			; std::_Xlen_string
PUBLIC	??1?$basic_string@DU?$char_traits@D@std@@V?$allocator@D@2@@std@@QAE@XZ ; std::basic_string<char,std::char_traits<char>,std::allocator<char> >::~basic_string<char,std::char_traits<char>,std::allocator<char> >
PUBLIC	?assign@?$basic_string@DU?$char_traits@D@std@@V?$allocator@D@2@@std@@QAEAAV12@QBDI@Z ; std::basic_string<char,std::char_traits<char>,std::allocator<char> >::assign
PUBLIC	?_Throw_tree_length_error@std@@YAXXZ		; std::_Throw_tree_length_error
PUBLIC	??$_Traits_compare@U?$char_traits@D@std@@@std@@YAHQBDI0I@Z ; std::_Traits_compare<std::char_traits<char> >
PUBLIC	??$_Destroy_in_place@PAD@std@@YAXAAPAD@Z	; std::_Destroy_in_place<char *>
PUBLIC	??$_Pocca@V?$allocator@D@std@@@std@@YAXAAV?$allocator@D@0@ABV10@@Z ; std::_Pocca<std::allocator<char> >
PUBLIC	??$_Construct_in_place@PADABQAD@std@@YAXAAPADABQAD@Z ; std::_Construct_in_place<char *,char * const &>
PUBLIC	??$_Deallocate@$07$0A@@std@@YAXPAXI@Z		; std::_Deallocate<8,0>
PUBLIC	??$_Allocate@$07U_Default_allocate_traits@std@@$0A@@std@@YAPAXI@Z ; std::_Allocate<8,std::_Default_allocate_traits,0>
PUBLIC	??$_Allocate_manually_vector_aligned@U_Default_allocate_traits@std@@@std@@YAPAXI@Z ; std::_Allocate_manually_vector_aligned<std::_Default_allocate_traits>
PUBLIC	??_GCGraphicImageInstance@@UAEPAXI@Z		; CGraphicImageInstance::`scalar deleting destructor'
PUBLIC	??1STerrainTexture@@QAE@XZ			; STerrainTexture::~STerrainTexture
PUBLIC	??0STerrainTexture@@QAE@ABU0@@Z			; STerrainTexture::STerrainTexture
PUBLIC	??0CTextureSet@@QAE@XZ				; CTextureSet::CTextureSet
PUBLIC	??1CTextureSet@@UAE@XZ				; CTextureSet::~CTextureSet
PUBLIC	?Initialize@CTextureSet@@QAEXXZ			; CTextureSet::Initialize
PUBLIC	?Clear@CTextureSet@@QAEXXZ			; CTextureSet::Clear
PUBLIC	?Create@CTextureSet@@QAEXXZ			; CTextureSet::Create
PUBLIC	?Load@CTextureSet@@QAE_NPBDM@Z			; CTextureSet::Load
PUBLIC	?Save@CTextureSet@@QAE_NPBD@Z			; CTextureSet::Save
PUBLIC	?GetTextureCount@CTextureSet@@QAEKXZ		; CTextureSet::GetTextureCount
PUBLIC	?GetTexture@CTextureSet@@QAEAAUSTerrainTexture@@K@Z ; CTextureSet::GetTexture
PUBLIC	?RemoveTexture@CTextureSet@@QAE_NK@Z		; CTextureSet::RemoveTexture
PUBLIC	?SetTexture@CTextureSet@@QAE_NKPBDMMMM_NGGM@Z	; CTextureSet::SetTexture
PUBLIC	?Reload@CTextureSet@@QAEXM@Z			; CTextureSet::Reload
PUBLIC	?AddTexture@CTextureSet@@QAE_NPBDMMMM_NGGM@Z	; CTextureSet::AddTexture
PUBLIC	?AddEmptyTexture@CTextureSet@@IAEXXZ		; CTextureSet::AddEmptyTexture
PUBLIC	?deallocate@?$allocator@USTerrainTexture@@@std@@QAEXQAUSTerrainTexture@@I@Z ; std::allocator<STerrainTexture>::deallocate
PUBLIC	??1?$vector@USTerrainTexture@@V?$allocator@USTerrainTexture@@@std@@@std@@QAE@XZ ; std::vector<STerrainTexture,std::allocator<STerrainTexture> >::~vector<STerrainTexture,std::allocator<STerrainTexture> >
PUBLIC	?_Reallocate_exactly@?$vector@USTerrainTexture@@V?$allocator@USTerrainTexture@@@std@@@std@@AAEXI@Z ; std::vector<STerrainTexture,std::allocator<STerrainTexture> >::_Reallocate_exactly
PUBLIC	?_Destroy@?$vector@USTerrainTexture@@V?$allocator@USTerrainTexture@@@std@@@std@@AAEXPAUSTerrainTexture@@0@Z ; std::vector<STerrainTexture,std::allocator<STerrainTexture> >::_Destroy
PUBLIC	?_Change_array@?$vector@USTerrainTexture@@V?$allocator@USTerrainTexture@@@std@@@std@@AAEXQAUSTerrainTexture@@II@Z ; std::vector<STerrainTexture,std::allocator<STerrainTexture> >::_Change_array
PUBLIC	?_Xlength@?$vector@USTerrainTexture@@V?$allocator@USTerrainTexture@@@std@@@std@@CAXXZ ; std::vector<STerrainTexture,std::allocator<STerrainTexture> >::_Xlength
PUBLIC	?_Getal@?$vector@USTerrainTexture@@V?$allocator@USTerrainTexture@@@std@@@std@@AAEAAV?$allocator@USTerrainTexture@@@2@XZ ; std::vector<STerrainTexture,std::allocator<STerrainTexture> >::_Getal
PUBLIC	??_GCTextureSet@@UAEPAXI@Z			; CTextureSet::`scalar deleting destructor'
PUBLIC	?_Insert_node@?$_Tree_val@U?$_Tree_simple_types@U?$pair@$$CBV?$basic_string@DU?$char_traits@D@std@@V?$allocator@D@2@@std@@V?$vector@V?$basic_string@DU?$char_traits@D@std@@V?$allocator@D@2@@std@@V?$allocator@V?$basic_string@DU?$char_traits@D@std@@V?$allocator@D@2@@std@@@2@@2@@std@@@std@@@std@@QAEPAU?$_Tree_node@U?$pair@$$CBV?$basic_string@DU?$char_traits@D@std@@V?$allocator@D@2@@std@@V?$vector@V?$basic_string@DU?$char_traits@D@std@@V?$allocator@D@2@@std@@V?$allocator@V?$basic_string@DU?$char_traits@D@std@@V?$allocator@D@2@@std@@@2@@2@@std@@PAX@2@U?$_Tree_id@PAU?$_Tree_node@U?$pair@$$CBV?$basic_string@DU?$char_traits@D@std@@V?$allocator@D@2@@std@@V?$vector@V?$basic_string@DU?$char_traits@D@std@@V?$allocator@D@2@@std@@V?$allocator@V?$basic_string@DU?$char_traits@D@std@@V?$allocator@D@2@@std@@@2@@2@@std@@PAX@std@@@2@QAU32@@Z ; std::_Tree_val<std::_Tree_simple_types<std::pair<std::basic_string<char,std::char_traits<char>,std::allocator<char> > const ,std::vector<std::basic_string<char,std::char_traits<char>,std::allocator<char> >,std::allocator<std::basic_string<char,std::char_traits<char>,std::allocator<char> > > > > > >::_Insert_node
PUBLIC	??1?$map@V?$basic_string@DU?$char_traits@D@std@@V?$allocator@D@2@@std@@V?$vector@V?$basic_string@DU?$char_traits@D@std@@V?$allocator@D@2@@std@@V?$allocator@V?$basic_string@DU?$char_traits@D@std@@V?$allocator@D@2@@std@@@2@@2@U?$less@V?$basic_string@DU?$char_traits@D@std@@V?$allocator@D@2@@std@@@2@V?$allocator@U?$pair@$$CBV?$basic_string@DU?$char_traits@D@std@@V?$allocator@D@2@@std@@V?$vector@V?$basic_string@DU?$char_traits@D@std@@V?$allocator@D@2@@std@@V?$allocator@V?$basic_string@DU?$char_traits@D@std@@V?$allocator@D@2@@std@@@2@@2@@std@@@2@@std@@QAE@XZ ; std::map<std::basic_string<char,std::char_traits<char>,std::allocator<char> >,std::vector<std::basic_string<char,std::char_traits<char>,std::allocator<char> >,std::allocator<std::basic_string<char,std::char_traits<char>,std::allocator<char> > > >,std::less<std::basic_string<char,std::char_traits<char>,std::allocator<char> > >,std::allocator<std::pair<std::basic_string<char,std::char_traits<char>,std::allocator<char> > const ,std::vector<std::basic_string<char,std::char_traits<char>,std::allocator<char> >,std::allocator<std::basic_string<char,std::char_traits<char>,std::allocator<char> > > > > > >::~map<std::basic_string<char,std::char_traits<char>,std::allocator<char> >,std::vector<std::basic_string<char,std::char_traits<char>,std::allocator<char> >,std::allocator<std::basic_string<char,std::char_traits<char>,std::allocator<char> > > >,std::less<std::basic_string<char,std::char_traits<char>,std::allocator<char> > >,std::allocator<std::pair<std::basic_string<char,std::char_traits<char>,std::allocator<char> > const ,std::vector<std::basic_string<char,std::char_traits<char>,std::allocator<char> >,std::allocator<std::basic_string<char,std::char_traits<char>,std::allocator<char> > > > > > >
PUBLIC	??1?$pair@$$CBV?$basic_string@DU?$char_traits@D@std@@V?$allocator@D@2@@std@@V?$vector@V?$basic_string@DU?$char_traits@D@std@@V?$allocator@D@2@@std@@V?$allocator@V?$basic_string@DU?$char_traits@D@std@@V?$allocator@D@2@@std@@@2@@2@@std@@QAE@XZ ; std::pair<std::basic_string<char,std::char_traits<char>,std::allocator<char> > const ,std::vector<std::basic_string<char,std::char_traits<char>,std::allocator<char> >,std::allocator<std::basic_string<char,std::char_traits<char>,std::allocator<char> > > > >::~pair<std::basic_string<char,std::char_traits<char>,std::allocator<char> > const ,std::vector<std::basic_string<char,std::char_traits<char>,std::allocator<char> >,std::allocator<std::basic_string<char,std::char_traits<char>,std::allocator<char> > > > >
PUBLIC	??$_Emplace_reallocate@ABUSTerrainTexture@@@?$vector@USTerrainTexture@@V?$allocator@USTerrainTexture@@@std@@@std@@QAEPAUSTerrainTexture@@QAU2@ABU2@@Z ; std::vector<STerrainTexture,std::allocator<STerrainTexture> >::_Emplace_reallocate<STerrainTexture const &>
PUBLIC	??$_Destroy_range@V?$allocator@USTerrainTexture@@@std@@@std@@YAXPAUSTerrainTexture@@QAU1@AAV?$allocator@USTerrainTexture@@@0@@Z ; std::_Destroy_range<std::allocator<STerrainTexture> >
PUBLIC	??$_Uninitialized_copy@PAUSTerrainTexture@@V?$allocator@USTerrainTexture@@@std@@@std@@YAPAUSTerrainTexture@@QAU1@0PAU1@AAV?$allocator@USTerrainTexture@@@0@@Z ; std::_Uninitialized_copy<STerrainTexture *,std::allocator<STerrainTexture> >
PUBLIC	??$_Find_lower_bound@V?$basic_string@DU?$char_traits@D@std@@V?$allocator@D@2@@std@@@?$_Tree@V?$_Tmap_traits@V?$basic_string@DU?$char_traits@D@std@@V?$allocator@D@2@@std@@V?$vector@V?$basic_string@DU?$char_traits@D@std@@V?$allocator@D@2@@std@@V?$allocator@V?$basic_string@DU?$char_traits@D@std@@V?$allocator@D@2@@std@@@2@@2@U?$less@V?$basic_string@DU?$char_traits@D@std@@V?$allocator@D@2@@std@@@2@V?$allocator@U?$pair@$$CBV?$basic_string@DU?$char_traits@D@std@@V?$allocator@D@2@@std@@V?$vector@V?$basic_string@DU?$char_traits@D@std@@V?$allocator@D@2@@std@@V?$allocator@V?$basic_string@DU?$char_traits@D@std@@V?$allocator@D@2@@std@@@2@@2@@std@@@2@$0A@@std@@@std@@IBE?AU?$_Tree_find_result@PAU?$_Tree_node@U?$pair@$$CBV?$basic_string@DU?$char_traits@D@std@@V?$allocator@D@2@@std@@V?$vector@V?$basic_string@DU?$char_traits@D@std@@V?$allocator@D@2@@std@@V?$allocator@V?$basic_string@DU?$char_traits@D@std@@V?$allocator@D@2@@std@@@2@@2@@std@@PAX@std@@@1@ABV?$basic_string@DU?$char_traits@D@std@@V?$allocator@D@2@@1@@Z ; std::_Tree<std::_Tmap_traits<std::basic_string<char,std::char_traits<char>,std::allocator<char> >,std::vector<std::basic_string<char,std::char_traits<char>,std::allocator<char> >,std::allocator<std::basic_string<char,std::char_traits<char>,std::allocator<char> > > >,std::less<std::basic_string<char,std::char_traits<char>,std::allocator<char> > >,std::allocator<std::pair<std::basic_string<char,std::char_traits<char>,std::allocator<char> > const ,std::vector<std::basic_string<char,std::char_traits<char>,std::allocator<char> >,std::allocator<std::basic_string<char,std::char_traits<char>,std::allocator<char> > > > > >,0> >::_Find_lower_bound<std::basic_string<char,std::char_traits<char>,std::allocator<char> > >
PUBLIC	??1?$_Alloc_construct_ptr@V?$allocator@U?$_Tree_node@U?$pair@$$CBV?$basic_string@DU?$char_traits@D@std@@V?$allocator@D@2@@std@@V?$vector@V?$basic_string@DU?$char_traits@D@std@@V?$allocator@D@2@@std@@V?$allocator@V?$basic_string@DU?$char_traits@D@std@@V?$allocator@D@2@@std@@@2@@2@@std@@PAX@std@@@std@@@std@@QAE@XZ ; std::_Alloc_construct_ptr<std::allocator<std::_Tree_node<std::pair<std::basic_string<char,std::char_traits<char>,std::allocator<char> > const ,std::vector<std::basic_string<char,std::char_traits<char>,std::allocator<char> >,std::allocator<std::basic_string<char,std::char_traits<char>,std::allocator<char> > > > >,void *> > >::~_Alloc_construct_ptr<std::allocator<std::_Tree_node<std::pair<std::basic_string<char,std::char_traits<char>,std::allocator<char> > const ,std::vector<std::basic_string<char,std::char_traits<char>,std::allocator<char> >,std::allocator<std::basic_string<char,std::char_traits<char>,std::allocator<char> > > > >,void *> > >
PUBLIC	??$_Erase_tree@V?$allocator@U?$_Tree_node@U?$pair@$$CBV?$basic_string@DU?$char_traits@D@std@@V?$allocator@D@2@@std@@V?$vector@V?$basic_string@DU?$char_traits@D@std@@V?$allocator@D@2@@std@@V?$allocator@V?$basic_string@DU?$char_traits@D@std@@V?$allocator@D@2@@std@@@2@@2@@std@@PAX@std@@@std@@@?$_Tree_val@U?$_Tree_simple_types@U?$pair@$$CBV?$basic_string@DU?$char_traits@D@std@@V?$allocator@D@2@@std@@V?$vector@V?$basic_string@DU?$char_traits@D@std@@V?$allocator@D@2@@std@@V?$allocator@V?$basic_string@DU?$char_traits@D@std@@V?$allocator@D@2@@std@@@2@@2@@std@@@std@@@std@@QAEXAAV?$allocator@U?$_Tree_node@U?$pair@$$CBV?$basic_string@DU?$char_traits@D@std@@V?$allocator@D@2@@std@@V?$vector@V?$basic_string@DU?$char_traits@D@std@@V?$allocator@D@2@@std@@V?$allocator@V?$basic_string@DU?$char_traits@D@std@@V?$allocator@D@2@@std@@@2@@2@@std@@PAX@std@@@1@PAU?$_Tree_node@U?$pair@$$CBV?$basic_string@DU?$char_traits@D@std@@V?$allocator@D@2@@std@@V?$vector@V?$basic_string@DU?$char_traits@D@std@@V?$allocator@D@2@@std@@V?$allocator@V?$basic_string@DU?$char_traits@D@std@@V?$allocator@D@2@@std@@@2@@2@@std@@PAX@1@@Z ; std::_Tree_val<std::_Tree_simple_types<std::pair<std::basic_string<char,std::char_traits<char>,std::allocator<char> > const ,std::vector<std::basic_string<char,std::char_traits<char>,std::allocator<char> >,std::allocator<std::basic_string<char,std::char_traits<char>,std::allocator<char> > > > > > >::_Erase_tree<std::allocator<std::_Tree_node<std::pair<std::basic_string<char,std::char_traits<char>,std::allocator<char> > const ,std::vector<std::basic_string<char,std::char_traits<char>,std::allocator<char> >,std::allocator<std::basic_string<char,std::char_traits<char>,std::allocator<char> > > > >,void *> > >
PUBLIC	??$_Resize_reallocate@U_Value_init_tag@std@@@?$vector@USTerrainTexture@@V?$allocator@USTerrainTexture@@@std@@@std@@AAEXIABU_Value_init_tag@1@@Z ; std::vector<STerrainTexture,std::allocator<STerrainTexture> >::_Resize_reallocate<std::_Value_init_tag>
PUBLIC	??$_Construct_in_place@PAU?$_Tree_node@U?$pair@$$CBV?$basic_string@DU?$char_traits@D@std@@V?$allocator@D@2@@std@@V?$vector@V?$basic_string@DU?$char_traits@D@std@@V?$allocator@D@2@@std@@V?$allocator@V?$basic_string@DU?$char_traits@D@std@@V?$allocator@D@2@@std@@@2@@2@@std@@PAX@std@@ABQAU12@@std@@YAXAAPAU?$_Tree_node@U?$pair@$$CBV?$basic_string@DU?$char_traits@D@std@@V?$allocator@D@2@@std@@V?$vector@V?$basic_string@DU?$char_traits@D@std@@V?$allocator@D@2@@std@@V?$allocator@V?$basic_string@DU?$char_traits@D@std@@V?$allocator@D@2@@std@@@2@@2@@std@@PAX@0@ABQAU10@@Z ; std::_Construct_in_place<std::_Tree_node<std::pair<std::basic_string<char,std::char_traits<char>,std::allocator<char> > const ,std::vector<std::basic_string<char,std::char_traits<char>,std::allocator<char> >,std::allocator<std::basic_string<char,std::char_traits<char>,std::allocator<char> > > > >,void *> *,std::_Tree_node<std::pair<std::basic_string<char,std::char_traits<char>,std::allocator<char> > const ,std::vector<std::basic_string<char,std::char_traits<char>,std::allocator<char> >,std::allocator<std::basic_string<char,std::char_traits<char>,std::allocator<char> > > > >,void *> * const &>
PUBLIC	??1?$_Uninitialized_backout_al@V?$allocator@USTerrainTexture@@@std@@@std@@QAE@XZ ; std::_Uninitialized_backout_al<std::allocator<STerrainTexture> >::~_Uninitialized_backout_al<std::allocator<STerrainTexture> >
PUBLIC	??$_Destroy_in_place@PAU?$_Tree_node@U?$pair@$$CBV?$basic_string@DU?$char_traits@D@std@@V?$allocator@D@2@@std@@V?$vector@V?$basic_string@DU?$char_traits@D@std@@V?$allocator@D@2@@std@@V?$allocator@V?$basic_string@DU?$char_traits@D@std@@V?$allocator@D@2@@std@@@2@@2@@std@@PAX@std@@@std@@YAXAAPAU?$_Tree_node@U?$pair@$$CBV?$basic_string@DU?$char_traits@D@std@@V?$allocator@D@2@@std@@V?$vector@V?$basic_string@DU?$char_traits@D@std@@V?$allocator@D@2@@std@@V?$allocator@V?$basic_string@DU?$char_traits@D@std@@V?$allocator@D@2@@std@@@2@@2@@std@@PAX@0@@Z ; std::_Destroy_in_place<std::_Tree_node<std::pair<std::basic_string<char,std::char_traits<char>,std::allocator<char> > const ,std::vector<std::basic_string<char,std::char_traits<char>,std::allocator<char> >,std::allocator<std::basic_string<char,std::char_traits<char>,std::allocator<char> > > > >,void *> *>
PUBLIC	??$_Uninitialized_move@PAUSTerrainTexture@@V?$allocator@USTerrainTexture@@@std@@@std@@YAPAUSTerrainTexture@@QAU1@0PAU1@AAV?$allocator@USTerrainTexture@@@0@@Z ; std::_Uninitialized_move<STerrainTexture *,std::allocator<STerrainTexture> >
PUBLIC	??$_Uninitialized_value_construct_n@V?$allocator@USTerrainTexture@@@std@@@std@@YAPAUSTerrainTexture@@PAU1@IAAV?$allocator@USTerrainTexture@@@0@@Z ; std::_Uninitialized_value_construct_n<std::allocator<STerrainTexture> >
PUBLIC	??$_Construct_in_place@PAU?$_Tree_node@U?$pair@$$CBV?$basic_string@DU?$char_traits@D@std@@V?$allocator@D@2@@std@@V?$vector@V?$basic_string@DU?$char_traits@D@std@@V?$allocator@D@2@@std@@V?$allocator@V?$basic_string@DU?$char_traits@D@std@@V?$allocator@D@2@@std@@@2@@2@@std@@PAX@std@@AAPAU12@@std@@YAXAAPAU?$_Tree_node@U?$pair@$$CBV?$basic_string@DU?$char_traits@D@std@@V?$allocator@D@2@@std@@V?$vector@V?$basic_string@DU?$char_traits@D@std@@V?$allocator@D@2@@std@@V?$allocator@V?$basic_string@DU?$char_traits@D@std@@V?$allocator@D@2@@std@@@2@@2@@std@@PAX@0@0@Z ; std::_Construct_in_place<std::_Tree_node<std::pair<std::basic_string<char,std::char_traits<char>,std::allocator<char> > const ,std::vector<std::basic_string<char,std::char_traits<char>,std::allocator<char> >,std::allocator<std::basic_string<char,std::char_traits<char>,std::allocator<char> > > > >,void *> *,std::_Tree_node<std::pair<std::basic_string<char,std::char_traits<char>,std::allocator<char> > const ,std::vector<std::basic_string<char,std::char_traits<char>,std::allocator<char> >,std::allocator<std::basic_string<char,std::char_traits<char>,std::allocator<char> > > > >,void *> * &>
PUBLIC	??$?MDU?$char_traits@D@std@@V?$allocator@D@1@@std@@YA_NABV?$basic_string@DU?$char_traits@D@std@@V?$allocator@D@2@@0@0@Z ; std::operator<<char,std::char_traits<char>,std::allocator<char> >
PUBLIC	??$_Destroy_range@V?$allocator@V?$basic_string@DU?$char_traits@D@std@@V?$allocator@D@2@@std@@@std@@@std@@YAXPAV?$basic_string@DU?$char_traits@D@std@@V?$allocator@D@2@@0@QAV10@AAV?$allocator@V?$basic_string@DU?$char_traits@D@std@@V?$allocator@D@2@@std@@@0@@Z ; std::_Destroy_range<std::allocator<std::basic_string<char,std::char_traits<char>,std::allocator<char> > > >
PUBLIC	??$?0$$QAV?$basic_string@DU?$char_traits@D@std@@V?$allocator@D@2@@std@@$$Z$$V@?$pair@$$CBV?$basic_string@DU?$char_traits@D@std@@V?$allocator@D@2@@std@@V?$vector@V?$basic_string@DU?$char_traits@D@std@@V?$allocator@D@2@@std@@V?$allocator@V?$basic_string@DU?$char_traits@D@std@@V?$allocator@D@2@@std@@@2@@2@@std@@QAE@Upiecewise_construct_t@1@V?$tuple@$$QAV?$basic_string@DU?$char_traits@D@std@@V?$allocator@D@2@@std@@@1@V?$tuple@$$V@1@@Z ; std::pair<std::basic_string<char,std::char_traits<char>,std::allocator<char> > const ,std::vector<std::basic_string<char,std::char_traits<char>,std::allocator<char> >,std::allocator<std::basic_string<char,std::char_traits<char>,std::allocator<char> > > > >::pair<std::basic_string<char,std::char_traits<char>,std::allocator<char> > const ,std::vector<std::basic_string<char,std::char_traits<char>,std::allocator<char> >,std::allocator<std::basic_string<char,std::char_traits<char>,std::allocator<char> > > > ><std::basic_string<char,std::char_traits<char>,std::allocator<char> > &&>
PUBLIC	??$?0V?$tuple@$$QAV?$basic_string@DU?$char_traits@D@std@@V?$allocator@D@2@@std@@@std@@V?$tuple@$$V@1@$0A@$$Z$S@?$pair@$$CBV?$basic_string@DU?$char_traits@D@std@@V?$allocator@D@2@@std@@V?$vector@V?$basic_string@DU?$char_traits@D@std@@V?$allocator@D@2@@std@@V?$allocator@V?$basic_string@DU?$char_traits@D@std@@V?$allocator@D@2@@std@@@2@@2@@std@@QAE@AAV?$tuple@$$QAV?$basic_string@DU?$char_traits@D@std@@V?$allocator@D@2@@std@@@1@AAV?$tuple@$$V@1@U?$integer_sequence@I$0A@@1@U?$integer_sequence@I$S@1@@Z ; std::pair<std::basic_string<char,std::char_traits<char>,std::allocator<char> > const ,std::vector<std::basic_string<char,std::char_traits<char>,std::allocator<char> >,std::allocator<std::basic_string<char,std::char_traits<char>,std::allocator<char> > > > >::pair<std::basic_string<char,std::char_traits<char>,std::allocator<char> > const ,std::vector<std::basic_string<char,std::char_traits<char>,std::allocator<char> >,std::allocator<std::basic_string<char,std::char_traits<char>,std::allocator<char> > > > ><std::tuple<std::basic_string<char,std::char_traits<char>,std::allocator<char> > &&>,std::tuple<>,0>
PUBLIC	?_OptionsStorage@?1??__local_stdio_printf_options@@9@4_KA ; `__local_stdio_printf_options'::`2'::_OptionsStorage
PUBLIC	??_7exception@std@@6B@				; std::exception::`vftable'
PUBLIC	??_C@_0BC@EOODALEL@Unknown?5exception@		; `string'
PUBLIC	??_7bad_alloc@std@@6B@				; std::bad_alloc::`vftable'
PUBLIC	??_7bad_array_new_length@std@@6B@		; std::bad_array_new_length::`vftable'
PUBLIC	??_C@_0BF@KINCDENJ@bad?5array?5new?5length@	; `string'
PUBLIC	__TI3?AVbad_array_new_length@std@@
PUBLIC	__CTA3?AVbad_array_new_length@std@@
PUBLIC	??_R0?AVbad_array_new_length@std@@@8		; std::bad_array_new_length `RTTI Type Descriptor'
PUBLIC	__CT??_R0?AVbad_array_new_length@std@@@8??0bad_array_new_length@std@@QAE@ABV01@@Z12
PUBLIC	??_R0?AVbad_alloc@std@@@8			; std::bad_alloc `RTTI Type Descriptor'
PUBLIC	__CT??_R0?AVbad_alloc@std@@@8??0bad_alloc@std@@QAE@ABV01@@Z12
PUBLIC	??_R0?AVexception@std@@@8			; std::exception `RTTI Type Descriptor'
PUBLIC	__CT??_R0?AVexception@std@@@8??0exception@std@@QAE@ABV01@@Z12
PUBLIC	??_C@_0BA@JFNIOLAK@string?5too?5long@		; `string'
PUBLIC	??_C@_0BB@GCADKGJO@map?1set?5too?5long@		; `string'
PUBLIC	?ms_singleton@?$CSingleton@VCResourceManager@@@@0PAVCResourceManager@@A ; CSingleton<CResourceManager>::ms_singleton
PUBLIC	??_R4exception@std@@6B@				; std::exception::`RTTI Complete Object Locator'
PUBLIC	??_R3exception@std@@8				; std::exception::`RTTI Class Hierarchy Descriptor'
PUBLIC	??_R2exception@std@@8				; std::exception::`RTTI Base Class Array'
PUBLIC	??_R1A@?0A@EA@exception@std@@8			; std::exception::`RTTI Base Class Descriptor at (0,-1,0,64)'
PUBLIC	??_R4bad_alloc@std@@6B@				; std::bad_alloc::`RTTI Complete Object Locator'
PUBLIC	??_R3bad_alloc@std@@8				; std::bad_alloc::`RTTI Class Hierarchy Descriptor'
PUBLIC	??_R2bad_alloc@std@@8				; std::bad_alloc::`RTTI Base Class Array'
PUBLIC	??_R1A@?0A@EA@bad_alloc@std@@8			; std::bad_alloc::`RTTI Base Class Descriptor at (0,-1,0,64)'
PUBLIC	??_R4bad_array_new_length@std@@6B@		; std::bad_array_new_length::`RTTI Complete Object Locator'
PUBLIC	??_R3bad_array_new_length@std@@8		; std::bad_array_new_length::`RTTI Class Hierarchy Descriptor'
PUBLIC	??_R2bad_array_new_length@std@@8		; std::bad_array_new_length::`RTTI Base Class Array'
PUBLIC	??_R1A@?0A@EA@bad_array_new_length@std@@8	; std::bad_array_new_length::`RTTI Base Class Descriptor at (0,-1,0,64)'
PUBLIC	??_7CGraphicImageInstance@@6B@			; CGraphicImageInstance::`vftable'
PUBLIC	??_7CTextureSet@@6B@				; CTextureSet::`vftable'
PUBLIC	??_C@_0BP@PGALBFBK@d?3?1ymir?5work?1special?1error?4tga@ ; `string'
PUBLIC	??_C@_0CC@NFEEIIKK@TextureSet?3?3Load?5?3?5cannot?5load?5@ ; `string'
PUBLIC	??_C@_0L@FLIBEPMB@textureset@			; `string'
PUBLIC	??_C@_0DL@HIELGKBC@TextureSet?3?3Load?5?3?5syntax?5error@ ; `string'
PUBLIC	??_C@_0N@MMECMGAI@texturecount@			; `string'
PUBLIC	??_C@_0DN@FCLAEMJC@TextureSet?3?3Load?5?3?5syntax?5error@ ; `string'
PUBLIC	??_C@_0M@NDPMIDHE@texture?$CF03d@		; `string'
PUBLIC	??_C@_0DF@CFOIFDDM@CTextureSet?3?3Load?5?3?5SetTexture?5@ ; `string'
PUBLIC	??_C@_0FF@IFFABLMH@CTextureSet?3?3SetTexture?5?3?5Index@ ; `string'
PUBLIC	??_C@_0DF@JOIEGDLH@CTerrainImpl?3?3GenerateTexture?5?3@ ; `string'
PUBLIC	??_C@_0CG@GCCGCFA@You?5cannot?5add?5more?5than?5255?5te@ ; `string'
PUBLIC	??_C@_09OINHJNMP@Duplicate@			; `string'
PUBLIC	??_C@_0CJ@ELAAMMOC@Texture?5of?5the?5same?5name?5alread@ ; `string'
PUBLIC	??_C@_0DL@BLPPCNGA@CTerrainImpl?3?3GenerateTexture?5?3@ ; `string'
PUBLIC	??_C@_01NOFIACDB@w@				; `string'
PUBLIC	??_C@_0M@MPCHGPBP@TextureSet?6@			; `string'
PUBLIC	??_C@_01EEMJAFIK@?6@				; `string'
PUBLIC	??_C@_0BC@GGJBGKJP@TextureCount?5?$CFld?6@	; `string'
PUBLIC	??_C@_0BD@BJELLKNB@Start?5Texture?$CF03d?6@	; `string'
PUBLIC	??_C@_09BMPLDMAP@?5?5?5?5?$CC?$CFs?$CC?6@	; `string'
PUBLIC	??_C@_07ELCCFBHK@?5?5?5?5?$CFf?6@		; `string'
PUBLIC	??_C@_07EIKGIFBE@?5?5?5?5?$CFd?6@		; `string'
PUBLIC	??_C@_08PFAGAKKH@?5?5?5?5?$CFhu?6@		; `string'
PUBLIC	??_C@_0BB@GNLMPHOK@End?5Texture?$CF03d?6@	; `string'
PUBLIC	??_C@_0BA@FOIKENOD@vector?5too?5long@		; `string'
PUBLIC	??_R4CGraphicImageInstance@@6B@			; CGraphicImageInstance::`RTTI Complete Object Locator'
PUBLIC	??_R0?AVCGraphicImageInstance@@@8		; CGraphicImageInstance `RTTI Type Descriptor'
PUBLIC	??_R3CGraphicImageInstance@@8			; CGraphicImageInstance::`RTTI Class Hierarchy Descriptor'
PUBLIC	??_R2CGraphicImageInstance@@8			; CGraphicImageInstance::`RTTI Base Class Array'
PUBLIC	??_R1A@?0A@EA@CGraphicImageInstance@@8		; CGraphicImageInstance::`RTTI Base Class Descriptor at (0,-1,0,64)'
PUBLIC	??_R4CTextureSet@@6B@				; CTextureSet::`RTTI Complete Object Locator'
PUBLIC	??_R0?AVCTextureSet@@@8				; CTextureSet `RTTI Type Descriptor'
PUBLIC	??_R3CTextureSet@@8				; CTextureSet::`RTTI Class Hierarchy Descriptor'
PUBLIC	??_R2CTextureSet@@8				; CTextureSet::`RTTI Base Class Array'
PUBLIC	??_R1A@?0A@EA@CTextureSet@@8			; CTextureSet::`RTTI Base Class Descriptor at (0,-1,0,64)'
PUBLIC	__xmm@00000000000000004080000040800000
PUBLIC	__xmm@80000000800000008000000080000000
EXTRN	??2@YAPAXI@Z:PROC				; operator new
EXTRN	??3@YAXPAXI@Z:PROC				; operator delete
EXTRN	__invalid_parameter_noinfo_noreturn:PROC
EXTRN	_atof:PROC
EXTRN	_atol:PROC
EXTRN	__atoi64:PROC
EXTRN	_D3DXMatrixScaling@16:PROC
EXTRN	_fclose:PROC
EXTRN	_fopen:PROC
EXTRN	___stdio_common_vfprintf:PROC
EXTRN	___stdio_common_vsprintf:PROC
EXTRN	___std_exception_copy:PROC
EXTRN	___std_exception_destroy:PROC
EXTRN	??_Eexception@std@@UAEPAXI@Z:PROC		; std::exception::`vector deleting destructor'
EXTRN	??_Ebad_alloc@std@@UAEPAXI@Z:PROC		; std::bad_alloc::`vector deleting destructor'
EXTRN	??_Ebad_array_new_length@std@@UAEPAXI@Z:PROC	; std::bad_array_new_length::`vector deleting destructor'
EXTRN	?_Xlength_error@std@@YAXPBD@Z:PROC		; std::_Xlength_error
EXTRN	?TraceError@@YAXPBDZZ:PROC			; TraceError
EXTRN	?LogBox@@YAXPBD0PAUHWND__@@@Z:PROC		; LogBox
EXTRN	?LoadMultipleTextData@@YA_NPBDAAV?$map@V?$basic_string@DU?$char_traits@D@std@@V?$allocator@D@2@@std@@V?$vector@V?$basic_string@DU?$char_traits@D@std@@V?$allocator@D@2@@std@@V?$allocator@V?$basic_string@DU?$char_traits@D@std@@V?$allocator@D@2@@std@@@2@@2@U?$less@V?$basic_string@DU?$char_traits@D@std@@V?$allocator@D@2@@std@@@2@V?$allocator@U?$pair@$$CBV?$basic_string@DU?$char_traits@D@std@@V?$allocator@D@2@@std@@V?$vector@V?$basic_string@DU?$char_traits@D@std@@V?$allocator@D@2@@std@@V?$allocator@V?$basic_string@DU?$char_traits@D@std@@V?$allocator@D@2@@std@@@2@@2@@std@@@2@@std@@@Z:PROC ; LoadMultipleTextData
EXTRN	?AddReference@CReferenceObject@@QAEXXZ:PROC	; CReferenceObject::AddReference
EXTRN	?Release@CReferenceObject@@QAEXXZ:PROC		; CReferenceObject::Release
EXTRN	?IsType@CResource@@QAE_NK@Z:PROC		; CResource::IsType
EXTRN	?GetResourcePointer@CResourceManager@@QAEPAVCResource@@PBD@Z:PROC ; CResourceManager::GetResourcePointer
EXTRN	?GetD3DTexture@CGraphicTexture@@QBEPAUIDirect3DTexture8@@XZ:PROC ; CGraphicTexture::GetD3DTexture
EXTRN	?Type@CGraphicImage@@SAKXZ:PROC			; CGraphicImage::Type
EXTRN	??0CGraphicImageInstance@@QAE@XZ:PROC		; CGraphicImageInstance::CGraphicImageInstance
EXTRN	??1CGraphicImageInstance@@UAE@XZ:PROC		; CGraphicImageInstance::~CGraphicImageInstance
EXTRN	?Destroy@CGraphicImageInstance@@QAEXXZ:PROC	; CGraphicImageInstance::Destroy
EXTRN	?SetImagePointer@CGraphicImageInstance@@QAEXPAVCGraphicImage@@@Z:PROC ; CGraphicImageInstance::SetImagePointer
EXTRN	?ReloadImagePointer@CGraphicImageInstance@@QAEXPAVCGraphicImage@@@Z:PROC ; CGraphicImageInstance::ReloadImagePointer
EXTRN	?GetTexturePointer@CGraphicImageInstance@@QAEPAVCGraphicTexture@@XZ:PROC ; CGraphicImageInstance::GetTexturePointer
EXTRN	?OnRender@CGraphicImageInstance@@MAEXXZ:PROC	; CGraphicImageInstance::OnRender
EXTRN	?OnSetImagePointer@CGraphicImageInstance@@MAEXXZ:PROC ; CGraphicImageInstance::OnSetImagePointer
EXTRN	?OnIsType@CGraphicImageInstance@@MAEHK@Z:PROC	; CGraphicImageInstance::OnIsType
EXTRN	??_ECGraphicImageInstance@@UAEPAXI@Z:PROC	; CGraphicImageInstance::`vector deleting destructor'
EXTRN	??_ECTextureSet@@UAEPAXI@Z:PROC			; CTextureSet::`vector deleting destructor'
EXTRN	@__security_check_cookie@4:PROC
EXTRN	__CxxThrowException@8:PROC
EXTRN	___CxxFrameHandler3:PROC
EXTRN	_memcpy:PROC
EXTRN	_memmove:PROC
EXTRN	??_7type_info@@6B@:QWORD			; type_info::`vftable'
EXTRN	___security_cookie:DWORD
EXTRN	__fltused:DWORD
;	COMDAT ?_OptionsStorage@?1??__local_stdio_printf_options@@9@4_KA
_BSS	SEGMENT
?_OptionsStorage@?1??__local_stdio_printf_options@@9@4_KA DQ 01H DUP (?) ; `__local_stdio_printf_options'::`2'::_OptionsStorage
_BSS	ENDS
;	COMDAT ?ms_singleton@?$CSingleton@VCResourceManager@@@@0PAVCResourceManager@@A
_BSS	SEGMENT
?ms_singleton@?$CSingleton@VCResourceManager@@@@0PAVCResourceManager@@A DD 01H DUP (?) ; CSingleton<CResourceManager>::ms_singleton
_BSS	ENDS
;	COMDAT __xmm@80000000800000008000000080000000
CONST	SEGMENT
__xmm@80000000800000008000000080000000 DB 00H, 00H, 00H, 080H, 00H, 00H, 00H
	DB	080H, 00H, 00H, 00H, 080H, 00H, 00H, 00H, 080H
CONST	ENDS
;	COMDAT __xmm@00000000000000004080000040800000
CONST	SEGMENT
__xmm@00000000000000004080000040800000 DB 00H, 00H, 080H, '@', 00H, 00H, 080H
	DB	'@', 00H, 00H, 00H, 00H, 00H, 00H, 00H, 00H
CONST	ENDS
;	COMDAT ??_R1A@?0A@EA@CTextureSet@@8
rdata$r	SEGMENT
??_R1A@?0A@EA@CTextureSet@@8 DD FLAT:??_R0?AVCTextureSet@@@8 ; CTextureSet::`RTTI Base Class Descriptor at (0,-1,0,64)'
	DD	00H
	DD	00H
	DD	0ffffffffH
	DD	00H
	DD	040H
	DD	FLAT:??_R3CTextureSet@@8
rdata$r	ENDS
;	COMDAT ??_R2CTextureSet@@8
rdata$r	SEGMENT
??_R2CTextureSet@@8 DD FLAT:??_R1A@?0A@EA@CTextureSet@@8 ; CTextureSet::`RTTI Base Class Array'
rdata$r	ENDS
;	COMDAT ??_R3CTextureSet@@8
rdata$r	SEGMENT
??_R3CTextureSet@@8 DD 00H				; CTextureSet::`RTTI Class Hierarchy Descriptor'
	DD	00H
	DD	01H
	DD	FLAT:??_R2CTextureSet@@8
rdata$r	ENDS
;	COMDAT ??_R0?AVCTextureSet@@@8
data$r	SEGMENT
??_R0?AVCTextureSet@@@8 DD FLAT:??_7type_info@@6B@	; CTextureSet `RTTI Type Descriptor'
	DD	00H
	DB	'.?AVCTextureSet@@', 00H
data$r	ENDS
;	COMDAT ??_R4CTextureSet@@6B@
rdata$r	SEGMENT
??_R4CTextureSet@@6B@ DD 00H				; CTextureSet::`RTTI Complete Object Locator'
	DD	00H
	DD	00H
	DD	FLAT:??_R0?AVCTextureSet@@@8
	DD	FLAT:??_R3CTextureSet@@8
rdata$r	ENDS
;	COMDAT ??_R1A@?0A@EA@CGraphicImageInstance@@8
rdata$r	SEGMENT
??_R1A@?0A@EA@CGraphicImageInstance@@8 DD FLAT:??_R0?AVCGraphicImageInstance@@@8 ; CGraphicImageInstance::`RTTI Base Class Descriptor at (0,-1,0,64)'
	DD	00H
	DD	00H
	DD	0ffffffffH
	DD	00H
	DD	040H
	DD	FLAT:??_R3CGraphicImageInstance@@8
rdata$r	ENDS
;	COMDAT ??_R2CGraphicImageInstance@@8
rdata$r	SEGMENT
??_R2CGraphicImageInstance@@8 DD FLAT:??_R1A@?0A@EA@CGraphicImageInstance@@8 ; CGraphicImageInstance::`RTTI Base Class Array'
rdata$r	ENDS
;	COMDAT ??_R3CGraphicImageInstance@@8
rdata$r	SEGMENT
??_R3CGraphicImageInstance@@8 DD 00H			; CGraphicImageInstance::`RTTI Class Hierarchy Descriptor'
	DD	00H
	DD	01H
	DD	FLAT:??_R2CGraphicImageInstance@@8
rdata$r	ENDS
;	COMDAT ??_R0?AVCGraphicImageInstance@@@8
data$r	SEGMENT
??_R0?AVCGraphicImageInstance@@@8 DD FLAT:??_7type_info@@6B@ ; CGraphicImageInstance `RTTI Type Descriptor'
	DD	00H
	DB	'.?AVCGraphicImageInstance@@', 00H
data$r	ENDS
;	COMDAT ??_R4CGraphicImageInstance@@6B@
rdata$r	SEGMENT
??_R4CGraphicImageInstance@@6B@ DD 00H			; CGraphicImageInstance::`RTTI Complete Object Locator'
	DD	00H
	DD	00H
	DD	FLAT:??_R0?AVCGraphicImageInstance@@@8
	DD	FLAT:??_R3CGraphicImageInstance@@8
rdata$r	ENDS
;	COMDAT ??_C@_0BA@FOIKENOD@vector?5too?5long@
CONST	SEGMENT
??_C@_0BA@FOIKENOD@vector?5too?5long@ DB 'vector too long', 00H ; `string'
CONST	ENDS
;	COMDAT ??_C@_0BB@GNLMPHOK@End?5Texture?$CF03d?6@
CONST	SEGMENT
??_C@_0BB@GNLMPHOK@End?5Texture?$CF03d?6@ DB 'End Texture%03d', 0aH, 00H ; `string'
CONST	ENDS
;	COMDAT ??_C@_08PFAGAKKH@?5?5?5?5?$CFhu?6@
CONST	SEGMENT
??_C@_08PFAGAKKH@?5?5?5?5?$CFhu?6@ DB '    %hu', 0aH, 00H ; `string'
CONST	ENDS
;	COMDAT ??_C@_07EIKGIFBE@?5?5?5?5?$CFd?6@
CONST	SEGMENT
??_C@_07EIKGIFBE@?5?5?5?5?$CFd?6@ DB '    %d', 0aH, 00H	; `string'
CONST	ENDS
;	COMDAT ??_C@_07ELCCFBHK@?5?5?5?5?$CFf?6@
CONST	SEGMENT
??_C@_07ELCCFBHK@?5?5?5?5?$CFf?6@ DB '    %f', 0aH, 00H	; `string'
CONST	ENDS
;	COMDAT ??_C@_09BMPLDMAP@?5?5?5?5?$CC?$CFs?$CC?6@
CONST	SEGMENT
??_C@_09BMPLDMAP@?5?5?5?5?$CC?$CFs?$CC?6@ DB '    "%s"', 0aH, 00H ; `string'
CONST	ENDS
;	COMDAT ??_C@_0BD@BJELLKNB@Start?5Texture?$CF03d?6@
CONST	SEGMENT
??_C@_0BD@BJELLKNB@Start?5Texture?$CF03d?6@ DB 'Start Texture%03d', 0aH, 00H ; `string'
CONST	ENDS
;	COMDAT ??_C@_0BC@GGJBGKJP@TextureCount?5?$CFld?6@
CONST	SEGMENT
??_C@_0BC@GGJBGKJP@TextureCount?5?$CFld?6@ DB 'TextureCount %ld', 0aH, 00H ; `string'
CONST	ENDS
;	COMDAT ??_C@_01EEMJAFIK@?6@
CONST	SEGMENT
??_C@_01EEMJAFIK@?6@ DB 0aH, 00H			; `string'
CONST	ENDS
;	COMDAT ??_C@_0M@MPCHGPBP@TextureSet?6@
CONST	SEGMENT
??_C@_0M@MPCHGPBP@TextureSet?6@ DB 'TextureSet', 0aH, 00H ; `string'
CONST	ENDS
;	COMDAT ??_C@_01NOFIACDB@w@
CONST	SEGMENT
??_C@_01NOFIACDB@w@ DB 'w', 00H				; `string'
CONST	ENDS
;	COMDAT ??_C@_0DL@BLPPCNGA@CTerrainImpl?3?3GenerateTexture?5?3@
CONST	SEGMENT
??_C@_0DL@BLPPCNGA@CTerrainImpl?3?3GenerateTexture?5?3@ DB 'CTerrainImpl:'
	DB	':GenerateTexture : It''s not an image file. %s', 00H ; `string'
CONST	ENDS
;	COMDAT ??_C@_0CJ@ELAAMMOC@Texture?5of?5the?5same?5name?5alread@
CONST	SEGMENT
??_C@_0CJ@ELAAMMOC@Texture?5of?5the?5same?5name?5alread@ DB 'Texture of t'
	DB	'he same name already exists.', 00H		; `string'
CONST	ENDS
;	COMDAT ??_C@_09OINHJNMP@Duplicate@
CONST	SEGMENT
??_C@_09OINHJNMP@Duplicate@ DB 'Duplicate', 00H		; `string'
CONST	ENDS
;	COMDAT ??_C@_0CG@GCCGCFA@You?5cannot?5add?5more?5than?5255?5te@
CONST	SEGMENT
??_C@_0CG@GCCGCFA@You?5cannot?5add?5more?5than?5255?5te@ DB 'You cannot a'
	DB	'dd more than 255 texture.', 00H		; `string'
CONST	ENDS
;	COMDAT ??_C@_0DF@JOIEGDLH@CTerrainImpl?3?3GenerateTexture?5?3@
CONST	SEGMENT
??_C@_0DF@JOIEGDLH@CTerrainImpl?3?3GenerateTexture?5?3@ DB 'CTerrainImpl:'
	DB	':GenerateTexture : %s is NOT Image File', 00H ; `string'
CONST	ENDS
;	COMDAT ??_C@_0FF@IFFABLMH@CTextureSet?3?3SetTexture?5?3?5Index@
CONST	SEGMENT
??_C@_0FF@IFFABLMH@CTextureSet?3?3SetTexture?5?3?5Index@ DB 'CTextureSet:'
	DB	':SetTexture : Index Error : Index(%d) is Larger than TextureS'
	DB	'et Size(%d)', 00H				; `string'
CONST	ENDS
;	COMDAT ??_C@_0DF@CFOIFDDM@CTextureSet?3?3Load?5?3?5SetTexture?5@
CONST	SEGMENT
??_C@_0DF@CFOIFDDM@CTextureSet?3?3Load?5?3?5SetTexture?5@ DB 'CTextureSet'
	DB	'::Load : SetTexture failed : Filename: %s', 00H ; `string'
CONST	ENDS
;	COMDAT ??_C@_0M@NDPMIDHE@texture?$CF03d@
CONST	SEGMENT
??_C@_0M@NDPMIDHE@texture?$CF03d@ DB 'texture%03d', 00H	; `string'
CONST	ENDS
;	COMDAT ??_C@_0DN@FCLAEMJC@TextureSet?3?3Load?5?3?5syntax?5error@
CONST	SEGMENT
??_C@_0DN@FCLAEMJC@TextureSet?3?3Load?5?3?5syntax?5error@ DB 'TextureSet:'
	DB	':Load : syntax error, TextureCount (filename: %s)', 00H ; `string'
CONST	ENDS
;	COMDAT ??_C@_0N@MMECMGAI@texturecount@
CONST	SEGMENT
??_C@_0N@MMECMGAI@texturecount@ DB 'texturecount', 00H	; `string'
CONST	ENDS
;	COMDAT ??_C@_0DL@HIELGKBC@TextureSet?3?3Load?5?3?5syntax?5error@
CONST	SEGMENT
??_C@_0DL@HIELGKBC@TextureSet?3?3Load?5?3?5syntax?5error@ DB 'TextureSet:'
	DB	':Load : syntax error, TextureSet (filename: %s)', 00H ; `string'
CONST	ENDS
;	COMDAT ??_C@_0L@FLIBEPMB@textureset@
CONST	SEGMENT
??_C@_0L@FLIBEPMB@textureset@ DB 'textureset', 00H	; `string'
CONST	ENDS
;	COMDAT ??_C@_0CC@NFEEIIKK@TextureSet?3?3Load?5?3?5cannot?5load?5@
CONST	SEGMENT
??_C@_0CC@NFEEIIKK@TextureSet?3?3Load?5?3?5cannot?5load?5@ DB 'TextureSet'
	DB	'::Load : cannot load %s', 00H		; `string'
CONST	ENDS
;	COMDAT ??_C@_0BP@PGALBFBK@d?3?1ymir?5work?1special?1error?4tga@
CONST	SEGMENT
??_C@_0BP@PGALBFBK@d?3?1ymir?5work?1special?1error?4tga@ DB 'd:/ymir work'
	DB	'/special/error.tga', 00H			; `string'
CONST	ENDS
;	COMDAT ??_7CTextureSet@@6B@
CONST	SEGMENT
??_7CTextureSet@@6B@ DD FLAT:??_R4CTextureSet@@6B@	; CTextureSet::`vftable'
	DD	FLAT:??_ECTextureSet@@UAEPAXI@Z
CONST	ENDS
;	COMDAT ??_7CGraphicImageInstance@@6B@
CONST	SEGMENT
??_7CGraphicImageInstance@@6B@ DD FLAT:??_R4CGraphicImageInstance@@6B@ ; CGraphicImageInstance::`vftable'
	DD	FLAT:??_ECGraphicImageInstance@@UAEPAXI@Z
	DD	FLAT:?OnRender@CGraphicImageInstance@@MAEXXZ
	DD	FLAT:?OnSetImagePointer@CGraphicImageInstance@@MAEXXZ
	DD	FLAT:?OnIsType@CGraphicImageInstance@@MAEHK@Z
CONST	ENDS
;	COMDAT ??_R1A@?0A@EA@bad_array_new_length@std@@8
rdata$r	SEGMENT
??_R1A@?0A@EA@bad_array_new_length@std@@8 DD FLAT:??_R0?AVbad_array_new_length@std@@@8 ; std::bad_array_new_length::`RTTI Base Class Descriptor at (0,-1,0,64)'
	DD	02H
	DD	00H
	DD	0ffffffffH
	DD	00H
	DD	040H
	DD	FLAT:??_R3bad_array_new_length@std@@8
rdata$r	ENDS
;	COMDAT ??_R2bad_array_new_length@std@@8
rdata$r	SEGMENT
??_R2bad_array_new_length@std@@8 DD FLAT:??_R1A@?0A@EA@bad_array_new_length@std@@8 ; std::bad_array_new_length::`RTTI Base Class Array'
	DD	FLAT:??_R1A@?0A@EA@bad_alloc@std@@8
	DD	FLAT:??_R1A@?0A@EA@exception@std@@8
rdata$r	ENDS
;	COMDAT ??_R3bad_array_new_length@std@@8
rdata$r	SEGMENT
??_R3bad_array_new_length@std@@8 DD 00H			; std::bad_array_new_length::`RTTI Class Hierarchy Descriptor'
	DD	00H
	DD	03H
	DD	FLAT:??_R2bad_array_new_length@std@@8
rdata$r	ENDS
;	COMDAT ??_R4bad_array_new_length@std@@6B@
rdata$r	SEGMENT
??_R4bad_array_new_length@std@@6B@ DD 00H		; std::bad_array_new_length::`RTTI Complete Object Locator'
	DD	00H
	DD	00H
	DD	FLAT:??_R0?AVbad_array_new_length@std@@@8
	DD	FLAT:??_R3bad_array_new_length@std@@8
rdata$r	ENDS
;	COMDAT ??_R1A@?0A@EA@bad_alloc@std@@8
rdata$r	SEGMENT
??_R1A@?0A@EA@bad_alloc@std@@8 DD FLAT:??_R0?AVbad_alloc@std@@@8 ; std::bad_alloc::`RTTI Base Class Descriptor at (0,-1,0,64)'
	DD	01H
	DD	00H
	DD	0ffffffffH
	DD	00H
	DD	040H
	DD	FLAT:??_R3bad_alloc@std@@8
rdata$r	ENDS
;	COMDAT ??_R2bad_alloc@std@@8
rdata$r	SEGMENT
??_R2bad_alloc@std@@8 DD FLAT:??_R1A@?0A@EA@bad_alloc@std@@8 ; std::bad_alloc::`RTTI Base Class Array'
	DD	FLAT:??_R1A@?0A@EA@exception@std@@8
rdata$r	ENDS
;	COMDAT ??_R3bad_alloc@std@@8
rdata$r	SEGMENT
??_R3bad_alloc@std@@8 DD 00H				; std::bad_alloc::`RTTI Class Hierarchy Descriptor'
	DD	00H
	DD	02H
	DD	FLAT:??_R2bad_alloc@std@@8
rdata$r	ENDS
;	COMDAT ??_R4bad_alloc@std@@6B@
rdata$r	SEGMENT
??_R4bad_alloc@std@@6B@ DD 00H				; std::bad_alloc::`RTTI Complete Object Locator'
	DD	00H
	DD	00H
	DD	FLAT:??_R0?AVbad_alloc@std@@@8
	DD	FLAT:??_R3bad_alloc@std@@8
rdata$r	ENDS
;	COMDAT ??_R1A@?0A@EA@exception@std@@8
rdata$r	SEGMENT
??_R1A@?0A@EA@exception@std@@8 DD FLAT:??_R0?AVexception@std@@@8 ; std::exception::`RTTI Base Class Descriptor at (0,-1,0,64)'
	DD	00H
	DD	00H
	DD	0ffffffffH
	DD	00H
	DD	040H
	DD	FLAT:??_R3exception@std@@8
rdata$r	ENDS
;	COMDAT ??_R2exception@std@@8
rdata$r	SEGMENT
??_R2exception@std@@8 DD FLAT:??_R1A@?0A@EA@exception@std@@8 ; std::exception::`RTTI Base Class Array'
rdata$r	ENDS
;	COMDAT ??_R3exception@std@@8
rdata$r	SEGMENT
??_R3exception@std@@8 DD 00H				; std::exception::`RTTI Class Hierarchy Descriptor'
	DD	00H
	DD	01H
	DD	FLAT:??_R2exception@std@@8
rdata$r	ENDS
;	COMDAT ??_R4exception@std@@6B@
rdata$r	SEGMENT
??_R4exception@std@@6B@ DD 00H				; std::exception::`RTTI Complete Object Locator'
	DD	00H
	DD	00H
	DD	FLAT:??_R0?AVexception@std@@@8
	DD	FLAT:??_R3exception@std@@8
rdata$r	ENDS
;	COMDAT ??_C@_0BB@GCADKGJO@map?1set?5too?5long@
CONST	SEGMENT
??_C@_0BB@GCADKGJO@map?1set?5too?5long@ DB 'map/set too long', 00H ; `string'
CONST	ENDS
;	COMDAT ??_C@_0BA@JFNIOLAK@string?5too?5long@
CONST	SEGMENT
??_C@_0BA@JFNIOLAK@string?5too?5long@ DB 'string too long', 00H ; `string'
CONST	ENDS
;	COMDAT __CT??_R0?AVexception@std@@@8??0exception@std@@QAE@ABV01@@Z12
xdata$x	SEGMENT
__CT??_R0?AVexception@std@@@8??0exception@std@@QAE@ABV01@@Z12 DD 00H
	DD	FLAT:??_R0?AVexception@std@@@8
	DD	00H
	DD	0ffffffffH
	ORG $+4
	DD	0cH
	DD	FLAT:??0exception@std@@QAE@ABV01@@Z
xdata$x	ENDS
;	COMDAT ??_R0?AVexception@std@@@8
data$r	SEGMENT
??_R0?AVexception@std@@@8 DD FLAT:??_7type_info@@6B@	; std::exception `RTTI Type Descriptor'
	DD	00H
	DB	'.?AVexception@std@@', 00H
data$r	ENDS
;	COMDAT __CT??_R0?AVbad_alloc@std@@@8??0bad_alloc@std@@QAE@ABV01@@Z12
xdata$x	SEGMENT
__CT??_R0?AVbad_alloc@std@@@8??0bad_alloc@std@@QAE@ABV01@@Z12 DD 010H
	DD	FLAT:??_R0?AVbad_alloc@std@@@8
	DD	00H
	DD	0ffffffffH
	ORG $+4
	DD	0cH
	DD	FLAT:??0bad_alloc@std@@QAE@ABV01@@Z
xdata$x	ENDS
;	COMDAT ??_R0?AVbad_alloc@std@@@8
data$r	SEGMENT
??_R0?AVbad_alloc@std@@@8 DD FLAT:??_7type_info@@6B@	; std::bad_alloc `RTTI Type Descriptor'
	DD	00H
	DB	'.?AVbad_alloc@std@@', 00H
data$r	ENDS
;	COMDAT __CT??_R0?AVbad_array_new_length@std@@@8??0bad_array_new_length@std@@QAE@ABV01@@Z12
xdata$x	SEGMENT
__CT??_R0?AVbad_array_new_length@std@@@8??0bad_array_new_length@std@@QAE@ABV01@@Z12 DD 00H
	DD	FLAT:??_R0?AVbad_array_new_length@std@@@8
	DD	00H
	DD	0ffffffffH
	ORG $+4
	DD	0cH
	DD	FLAT:??0bad_array_new_length@std@@QAE@ABV01@@Z
xdata$x	ENDS
;	COMDAT ??_R0?AVbad_array_new_length@std@@@8
data$r	SEGMENT
??_R0?AVbad_array_new_length@std@@@8 DD FLAT:??_7type_info@@6B@ ; std::bad_array_new_length `RTTI Type Descriptor'
	DD	00H
	DB	'.?AVbad_array_new_length@std@@', 00H
data$r	ENDS
;	COMDAT __CTA3?AVbad_array_new_length@std@@
xdata$x	SEGMENT
__CTA3?AVbad_array_new_length@std@@ DD 03H
	DD	FLAT:__CT??_R0?AVbad_array_new_length@std@@@8??0bad_array_new_length@std@@QAE@ABV01@@Z12
	DD	FLAT:__CT??_R0?AVbad_alloc@std@@@8??0bad_alloc@std@@QAE@ABV01@@Z12
	DD	FLAT:__CT??_R0?AVexception@std@@@8??0exception@std@@QAE@ABV01@@Z12
xdata$x	ENDS
;	COMDAT __TI3?AVbad_array_new_length@std@@
xdata$x	SEGMENT
__TI3?AVbad_array_new_length@std@@ DD 00H
	DD	FLAT:??1bad_array_new_length@std@@UAE@XZ
	DD	00H
	DD	FLAT:__CTA3?AVbad_array_new_length@std@@
xdata$x	ENDS
;	COMDAT ??_C@_0BF@KINCDENJ@bad?5array?5new?5length@
CONST	SEGMENT
??_C@_0BF@KINCDENJ@bad?5array?5new?5length@ DB 'bad array new length', 00H ; `string'
CONST	ENDS
;	COMDAT ??_7bad_array_new_length@std@@6B@
CONST	SEGMENT
??_7bad_array_new_length@std@@6B@ DD FLAT:??_R4bad_array_new_length@std@@6B@ ; std::bad_array_new_length::`vftable'
	DD	FLAT:??_Ebad_array_new_length@std@@UAEPAXI@Z
	DD	FLAT:?what@exception@std@@UBEPBDXZ
CONST	ENDS
;	COMDAT ??_7bad_alloc@std@@6B@
CONST	SEGMENT
??_7bad_alloc@std@@6B@ DD FLAT:??_R4bad_alloc@std@@6B@	; std::bad_alloc::`vftable'
	DD	FLAT:??_Ebad_alloc@std@@UAEPAXI@Z
	DD	FLAT:?what@exception@std@@UBEPBDXZ
CONST	ENDS
;	COMDAT ??_C@_0BC@EOODALEL@Unknown?5exception@
CONST	SEGMENT
??_C@_0BC@EOODALEL@Unknown?5exception@ DB 'Unknown exception', 00H ; `string'
CONST	ENDS
;	COMDAT ??_7exception@std@@6B@
CONST	SEGMENT
??_7exception@std@@6B@ DD FLAT:??_R4exception@std@@6B@	; std::exception::`vftable'
	DD	FLAT:??_Eexception@std@@UAEPAXI@Z
	DD	FLAT:?what@exception@std@@UBEPBDXZ
CONST	ENDS
;	COMDAT xdata$x
xdata$x	SEGMENT
__unwindtable$??$construct@USTerrainTexture@@$$V@?$_Default_allocator_traits@V?$allocator@USTerrainTexture@@@std@@@std@@SAXAAV?$allocator@USTerrainTexture@@@1@QAUSTerrainTexture@@@Z DD 0ffffffffH
	DD	FLAT:__unwindfunclet$??$construct@USTerrainTexture@@$$V@?$_Default_allocator_traits@V?$allocator@USTerrainTexture@@@std@@@std@@SAXAAV?$allocator@USTerrainTexture@@@1@QAUSTerrainTexture@@@Z$0
__ehfuncinfo$??$construct@USTerrainTexture@@$$V@?$_Default_allocator_traits@V?$allocator@USTerrainTexture@@@std@@@std@@SAXAAV?$allocator@USTerrainTexture@@@1@QAUSTerrainTexture@@@Z DD 019930522H
	DD	01H
	DD	FLAT:__unwindtable$??$construct@USTerrainTexture@@$$V@?$_Default_allocator_traits@V?$allocator@USTerrainTexture@@@std@@@std@@SAXAAV?$allocator@USTerrainTexture@@@1@QAUSTerrainTexture@@@Z
	DD	2 DUP(00H)
	DD	2 DUP(00H)
	DD	00H
	DD	01H
xdata$x	ENDS
;	COMDAT xdata$x
xdata$x	SEGMENT
__unwindtable$??$_Emplace_back@$$V@?$_Uninitialized_backout_al@V?$allocator@USTerrainTexture@@@std@@@std@@QAEXXZ DD 0ffffffffH
	DD	FLAT:__unwindfunclet$??$_Emplace_back@$$V@?$_Uninitialized_backout_al@V?$allocator@USTerrainTexture@@@std@@@std@@QAEXXZ$0
__ehfuncinfo$??$_Emplace_back@$$V@?$_Uninitialized_backout_al@V?$allocator@USTerrainTexture@@@std@@@std@@QAEXXZ DD 019930522H
	DD	01H
	DD	FLAT:__unwindtable$??$_Emplace_back@$$V@?$_Uninitialized_backout_al@V?$allocator@USTerrainTexture@@@std@@@std@@QAEXXZ
	DD	2 DUP(00H)
	DD	2 DUP(00H)
	DD	00H
	DD	01H
xdata$x	ENDS
;	COMDAT xdata$x
xdata$x	SEGMENT
__unwindtable$??$_Uninitialized_value_construct_n@V?$allocator@USTerrainTexture@@@std@@@std@@YAPAUSTerrainTexture@@PAU1@IAAV?$allocator@USTerrainTexture@@@0@@Z DD 0ffffffffH
	DD	FLAT:__unwindfunclet$??$_Uninitialized_value_construct_n@V?$allocator@USTerrainTexture@@@std@@@std@@YAPAUSTerrainTexture@@PAU1@IAAV?$allocator@USTerrainTexture@@@0@@Z$0
	DD	00H
	DD	FLAT:__unwindfunclet$??$_Uninitialized_value_construct_n@V?$allocator@USTerrainTexture@@@std@@@std@@YAPAUSTerrainTexture@@PAU1@IAAV?$allocator@USTerrainTexture@@@0@@Z$1
__ehfuncinfo$??$_Uninitialized_value_construct_n@V?$allocator@USTerrainTexture@@@std@@@std@@YAPAUSTerrainTexture@@PAU1@IAAV?$allocator@USTerrainTexture@@@0@@Z DD 019930522H
	DD	02H
	DD	FLAT:__unwindtable$??$_Uninitialized_value_construct_n@V?$allocator@USTerrainTexture@@@std@@@std@@YAPAUSTerrainTexture@@PAU1@IAAV?$allocator@USTerrainTexture@@@0@@Z
	DD	2 DUP(00H)
	DD	2 DUP(00H)
	DD	00H
	DD	01H
xdata$x	ENDS
;	COMDAT xdata$x
xdata$x	SEGMENT
__unwindtable$??$_Uninitialized_move@PAUSTerrainTexture@@V?$allocator@USTerrainTexture@@@std@@@std@@YAPAUSTerrainTexture@@QAU1@0PAU1@AAV?$allocator@USTerrainTexture@@@0@@Z DD 0ffffffffH
	DD	FLAT:__unwindfunclet$??$_Uninitialized_move@PAUSTerrainTexture@@V?$allocator@USTerrainTexture@@@std@@@std@@YAPAUSTerrainTexture@@QAU1@0PAU1@AAV?$allocator@USTerrainTexture@@@0@@Z$0
__ehfuncinfo$??$_Uninitialized_move@PAUSTerrainTexture@@V?$allocator@USTerrainTexture@@@std@@@std@@YAPAUSTerrainTexture@@QAU1@0PAU1@AAV?$allocator@USTerrainTexture@@@0@@Z DD 019930522H
	DD	01H
	DD	FLAT:__unwindtable$??$_Uninitialized_move@PAUSTerrainTexture@@V?$allocator@USTerrainTexture@@@std@@@std@@YAPAUSTerrainTexture@@QAU1@0PAU1@AAV?$allocator@USTerrainTexture@@@0@@Z
	DD	2 DUP(00H)
	DD	2 DUP(00H)
	DD	00H
	DD	01H
xdata$x	ENDS
;	COMDAT xdata$x
xdata$x	SEGMENT
__catchsym$??$_Resize_reallocate@U_Value_init_tag@std@@@?$vector@USTerrainTexture@@V?$allocator@USTerrainTexture@@@std@@@std@@AAEXIABU_Value_init_tag@1@@Z$2 DD 040H
	DD	00H
	DD	00H
	DD	FLAT:__catch$??$_Resize_reallocate@U_Value_init_tag@std@@@?$vector@USTerrainTexture@@V?$allocator@USTerrainTexture@@@std@@@std@@AAEXIABU_Value_init_tag@1@@Z$0
__unwindtable$??$_Resize_reallocate@U_Value_init_tag@std@@@?$vector@USTerrainTexture@@V?$allocator@USTerrainTexture@@@std@@@std@@AAEXIABU_Value_init_tag@1@@Z DD 0ffffffffH
	DD	00H
	DD	0ffffffffH
	DD	00H
__tryblocktable$??$_Resize_reallocate@U_Value_init_tag@std@@@?$vector@USTerrainTexture@@V?$allocator@USTerrainTexture@@@std@@@std@@AAEXIABU_Value_init_tag@1@@Z DD 00H
	DD	00H
	DD	01H
	DD	01H
	DD	FLAT:__catchsym$??$_Resize_reallocate@U_Value_init_tag@std@@@?$vector@USTerrainTexture@@V?$allocator@USTerrainTexture@@@std@@@std@@AAEXIABU_Value_init_tag@1@@Z$2
__ehfuncinfo$??$_Resize_reallocate@U_Value_init_tag@std@@@?$vector@USTerrainTexture@@V?$allocator@USTerrainTexture@@@std@@@std@@AAEXIABU_Value_init_tag@1@@Z DD 019930522H
	DD	02H
	DD	FLAT:__unwindtable$??$_Resize_reallocate@U_Value_init_tag@std@@@?$vector@USTerrainTexture@@V?$allocator@USTerrainTexture@@@std@@@std@@AAEXIABU_Value_init_tag@1@@Z
	DD	01H
	DD	FLAT:__tryblocktable$??$_Resize_reallocate@U_Value_init_tag@std@@@?$vector@USTerrainTexture@@V?$allocator@USTerrainTexture@@@std@@@std@@AAEXIABU_Value_init_tag@1@@Z
	DD	2 DUP(00H)
	DD	00H
	DD	01H
xdata$x	ENDS
;	COMDAT xdata$x
xdata$x	SEGMENT
__unwindtable$??$?0ABUpiecewise_construct_t@std@@V?$tuple@$$QAV?$basic_string@DU?$char_traits@D@std@@V?$allocator@D@2@@std@@@1@V?$tuple@$$V@1@@?$_Tree_temp_node@V?$allocator@U?$_Tree_node@U?$pair@$$CBV?$basic_string@DU?$char_traits@D@std@@V?$allocator@D@2@@std@@V?$vector@V?$basic_string@DU?$char_traits@D@std@@V?$allocator@D@2@@std@@V?$allocator@V?$basic_string@DU?$char_traits@D@std@@V?$allocator@D@2@@std@@@2@@2@@std@@PAX@std@@@std@@@std@@QAE@AAV?$allocator@U?$_Tree_node@U?$pair@$$CBV?$basic_string@DU?$char_traits@D@std@@V?$allocator@D@2@@std@@V?$vector@V?$basic_string@DU?$char_traits@D@std@@V?$allocator@D@2@@std@@V?$allocator@V?$basic_string@DU?$char_traits@D@std@@V?$allocator@D@2@@std@@@2@@2@@std@@PAX@std@@@1@PAU?$_Tree_node@U?$pair@$$CBV?$basic_string@DU?$char_traits@D@std@@V?$allocator@D@2@@std@@V?$vector@V?$basic_string@DU?$char_traits@D@std@@V?$allocator@D@2@@std@@V?$allocator@V?$basic_string@DU?$char_traits@D@std@@V?$allocator@D@2@@std@@@2@@2@@std@@PAX@1@ABUpiecewise_construct_t@1@$$QAV?$tuple@$$QAV?$basic_string@DU?$char_traits@D@std@@V?$allocator@D@2@@std@@@1@$$QAV?$tuple@$$V@1@@Z DD 0ffffffffH
	DD	FLAT:__unwindfunclet$??$?0ABUpiecewise_construct_t@std@@V?$tuple@$$QAV?$basic_string@DU?$char_traits@D@std@@V?$allocator@D@2@@std@@@1@V?$tuple@$$V@1@@?$_Tree_temp_node@V?$allocator@U?$_Tree_node@U?$pair@$$CBV?$basic_string@DU?$char_traits@D@std@@V?$allocator@D@2@@std@@V?$vector@V?$basic_string@DU?$char_traits@D@std@@V?$allocator@D@2@@std@@V?$allocator@V?$basic_string@DU?$char_traits@D@std@@V?$allocator@D@2@@std@@@2@@2@@std@@PAX@std@@@std@@@std@@QAE@AAV?$allocator@U?$_Tree_node@U?$pair@$$CBV?$basic_string@DU?$char_traits@D@std@@V?$allocator@D@2@@std@@V?$vector@V?$basic_string@DU?$char_traits@D@std@@V?$allocator@D@2@@std@@V?$allocator@V?$basic_string@DU?$char_traits@D@std@@V?$allocator@D@2@@std@@@2@@2@@std@@PAX@std@@@1@PAU?$_Tree_node@U?$pair@$$CBV?$basic_string@DU?$char_traits@D@std@@V?$allocator@D@2@@std@@V?$vector@V?$basic_string@DU?$char_traits@D@std@@V?$allocator@D@2@@std@@V?$allocator@V?$basic_string@DU?$char_traits@D@std@@V?$allocator@D@2@@std@@@2@@2@@std@@PAX@1@ABUpiecewise_construct_t@1@$$QAV?$tuple@$$QAV?$basic_string@DU?$char_traits@D@std@@V?$allocator@D@2@@std@@@1@$$QAV?$tuple@$$V@1@@Z$1
__ehfuncinfo$??$?0ABUpiecewise_construct_t@std@@V?$tuple@$$QAV?$basic_string@DU?$char_traits@D@std@@V?$allocator@D@2@@std@@@1@V?$tuple@$$V@1@@?$_Tree_temp_node@V?$allocator@U?$_Tree_node@U?$pair@$$CBV?$basic_string@DU?$char_traits@D@std@@V?$allocator@D@2@@std@@V?$vector@V?$basic_string@DU?$char_traits@D@std@@V?$allocator@D@2@@std@@V?$allocator@V?$basic_string@DU?$char_traits@D@std@@V?$allocator@D@2@@std@@@2@@2@@std@@PAX@std@@@std@@@std@@QAE@AAV?$allocator@U?$_Tree_node@U?$pair@$$CBV?$basic_string@DU?$char_traits@D@std@@V?$allocator@D@2@@std@@V?$vector@V?$basic_string@DU?$char_traits@D@std@@V?$allocator@D@2@@std@@V?$allocator@V?$basic_string@DU?$char_traits@D@std@@V?$allocator@D@2@@std@@@2@@2@@std@@PAX@std@@@1@PAU?$_Tree_node@U?$pair@$$CBV?$basic_string@DU?$char_traits@D@std@@V?$allocator@D@2@@std@@V?$vector@V?$basic_string@DU?$char_traits@D@std@@V?$allocator@D@2@@std@@V?$allocator@V?$basic_string@DU?$char_traits@D@std@@V?$allocator@D@2@@std@@@2@@2@@std@@PAX@1@ABUpiecewise_construct_t@1@$$QAV?$tuple@$$QAV?$basic_string@DU?$char_traits@D@std@@V?$allocator@D@2@@std@@@1@$$QAV?$tuple@$$V@1@@Z DD 019930522H
	DD	01H
	DD	FLAT:__unwindtable$??$?0ABUpiecewise_construct_t@std@@V?$tuple@$$QAV?$basic_string@DU?$char_traits@D@std@@V?$allocator@D@2@@std@@@1@V?$tuple@$$V@1@@?$_Tree_temp_node@V?$allocator@U?$_Tree_node@U?$pair@$$CBV?$basic_string@DU?$char_traits@D@std@@V?$allocator@D@2@@std@@V?$vector@V?$basic_string@DU?$char_traits@D@std@@V?$allocator@D@2@@std@@V?$allocator@V?$basic_string@DU?$char_traits@D@std@@V?$allocator@D@2@@std@@@2@@2@@std@@PAX@std@@@std@@@std@@QAE@AAV?$allocator@U?$_Tree_node@U?$pair@$$CBV?$basic_string@DU?$char_traits@D@std@@V?$allocator@D@2@@std@@V?$vector@V?$basic_string@DU?$char_traits@D@std@@V?$allocator@D@2@@std@@V?$allocator@V?$basic_string@DU?$char_traits@D@std@@V?$allocator@D@2@@std@@@2@@2@@std@@PAX@std@@@1@PAU?$_Tree_node@U?$pair@$$CBV?$basic_string@DU?$char_traits@D@std@@V?$allocator@D@2@@std@@V?$vector@V?$basic_string@DU?$char_traits@D@std@@V?$allocator@D@2@@std@@V?$allocator@V?$basic_string@DU?$char_traits@D@std@@V?$allocator@D@2@@std@@@2@@2@@std@@PAX@1@ABUpiecewise_construct_t@1@$$QAV?$tuple@$$QAV?$basic_string@DU?$char_traits@D@std@@V?$allocator@D@2@@std@@@1@$$QAV?$tuple@$$V@1@@Z
	DD	2 DUP(00H)
	DD	2 DUP(00H)
	DD	00H
	DD	01H
xdata$x	ENDS
;	COMDAT xdata$x
xdata$x	SEGMENT
__unwindtable$??0?$_Tree_temp_node_alloc@V?$allocator@U?$_Tree_node@U?$pair@$$CBV?$basic_string@DU?$char_traits@D@std@@V?$allocator@D@2@@std@@V?$vector@V?$basic_string@DU?$char_traits@D@std@@V?$allocator@D@2@@std@@V?$allocator@V?$basic_string@DU?$char_traits@D@std@@V?$allocator@D@2@@std@@@2@@2@@std@@PAX@std@@@std@@@std@@QAE@AAV?$allocator@U?$_Tree_node@U?$pair@$$CBV?$basic_string@DU?$char_traits@D@std@@V?$allocator@D@2@@std@@V?$vector@V?$basic_string@DU?$char_traits@D@std@@V?$allocator@D@2@@std@@V?$allocator@V?$basic_string@DU?$char_traits@D@std@@V?$allocator@D@2@@std@@@2@@2@@std@@PAX@std@@@1@@Z DD 0ffffffffH
	DD	FLAT:__unwindfunclet$??0?$_Tree_temp_node_alloc@V?$allocator@U?$_Tree_node@U?$pair@$$CBV?$basic_string@DU?$char_traits@D@std@@V?$allocator@D@2@@std@@V?$vector@V?$basic_string@DU?$char_traits@D@std@@V?$allocator@D@2@@std@@V?$allocator@V?$basic_string@DU?$char_traits@D@std@@V?$allocator@D@2@@std@@@2@@2@@std@@PAX@std@@@std@@@std@@QAE@AAV?$allocator@U?$_Tree_node@U?$pair@$$CBV?$basic_string@DU?$char_traits@D@std@@V?$allocator@D@2@@std@@V?$vector@V?$basic_string@DU?$char_traits@D@std@@V?$allocator@D@2@@std@@V?$allocator@V?$basic_string@DU?$char_traits@D@std@@V?$allocator@D@2@@std@@@2@@2@@std@@PAX@std@@@1@@Z$0
__ehfuncinfo$??0?$_Tree_temp_node_alloc@V?$allocator@U?$_Tree_node@U?$pair@$$CBV?$basic_string@DU?$char_traits@D@std@@V?$allocator@D@2@@std@@V?$vector@V?$basic_string@DU?$char_traits@D@std@@V?$allocator@D@2@@std@@V?$allocator@V?$basic_string@DU?$char_traits@D@std@@V?$allocator@D@2@@std@@@2@@2@@std@@PAX@std@@@std@@@std@@QAE@AAV?$allocator@U?$_Tree_node@U?$pair@$$CBV?$basic_string@DU?$char_traits@D@std@@V?$allocator@D@2@@std@@V?$vector@V?$basic_string@DU?$char_traits@D@std@@V?$allocator@D@2@@std@@V?$allocator@V?$basic_string@DU?$char_traits@D@std@@V?$allocator@D@2@@std@@@2@@2@@std@@PAX@std@@@1@@Z DD 019930522H
	DD	01H
	DD	FLAT:__unwindtable$??0?$_Tree_temp_node_alloc@V?$allocator@U?$_Tree_node@U?$pair@$$CBV?$basic_string@DU?$char_traits@D@std@@V?$allocator@D@2@@std@@V?$vector@V?$basic_string@DU?$char_traits@D@std@@V?$allocator@D@2@@std@@V?$allocator@V?$basic_string@DU?$char_traits@D@std@@V?$allocator@D@2@@std@@@2@@2@@std@@PAX@std@@@std@@@std@@QAE@AAV?$allocator@U?$_Tree_node@U?$pair@$$CBV?$basic_string@DU?$char_traits@D@std@@V?$allocator@D@2@@std@@V?$vector@V?$basic_string@DU?$char_traits@D@std@@V?$allocator@D@2@@std@@V?$allocator@V?$basic_string@DU?$char_traits@D@std@@V?$allocator@D@2@@std@@@2@@2@@std@@PAX@std@@@1@@Z
	DD	2 DUP(00H)
	DD	2 DUP(00H)
	DD	00H
	DD	01H
xdata$x	ENDS
;	COMDAT xdata$x
xdata$x	SEGMENT
__unwindtable$??$_Uninitialized_copy@PAUSTerrainTexture@@V?$allocator@USTerrainTexture@@@std@@@std@@YAPAUSTerrainTexture@@QAU1@0PAU1@AAV?$allocator@USTerrainTexture@@@0@@Z DD 0ffffffffH
	DD	FLAT:__unwindfunclet$??$_Uninitialized_copy@PAUSTerrainTexture@@V?$allocator@USTerrainTexture@@@std@@@std@@YAPAUSTerrainTexture@@QAU1@0PAU1@AAV?$allocator@USTerrainTexture@@@0@@Z$0
__ehfuncinfo$??$_Uninitialized_copy@PAUSTerrainTexture@@V?$allocator@USTerrainTexture@@@std@@@std@@YAPAUSTerrainTexture@@QAU1@0PAU1@AAV?$allocator@USTerrainTexture@@@0@@Z DD 019930522H
	DD	01H
	DD	FLAT:__unwindtable$??$_Uninitialized_copy@PAUSTerrainTexture@@V?$allocator@USTerrainTexture@@@std@@@std@@YAPAUSTerrainTexture@@QAU1@0PAU1@AAV?$allocator@USTerrainTexture@@@0@@Z
	DD	2 DUP(00H)
	DD	2 DUP(00H)
	DD	00H
	DD	01H
xdata$x	ENDS
;	COMDAT xdata$x
xdata$x	SEGMENT
__catchsym$??$_Emplace_reallocate@ABUSTerrainTexture@@@?$vector@USTerrainTexture@@V?$allocator@USTerrainTexture@@@std@@@std@@QAEPAUSTerrainTexture@@QAU2@ABU2@@Z$2 DD 040H
	DD	00H
	DD	00H
	DD	FLAT:__catch$??$_Emplace_reallocate@ABUSTerrainTexture@@@?$vector@USTerrainTexture@@V?$allocator@USTerrainTexture@@@std@@@std@@QAEPAUSTerrainTexture@@QAU2@ABU2@@Z$0
__unwindtable$??$_Emplace_reallocate@ABUSTerrainTexture@@@?$vector@USTerrainTexture@@V?$allocator@USTerrainTexture@@@std@@@std@@QAEPAUSTerrainTexture@@QAU2@ABU2@@Z DD 0ffffffffH
	DD	00H
	DD	0ffffffffH
	DD	00H
__tryblocktable$??$_Emplace_reallocate@ABUSTerrainTexture@@@?$vector@USTerrainTexture@@V?$allocator@USTerrainTexture@@@std@@@std@@QAEPAUSTerrainTexture@@QAU2@ABU2@@Z DD 00H
	DD	00H
	DD	01H
	DD	01H
	DD	FLAT:__catchsym$??$_Emplace_reallocate@ABUSTerrainTexture@@@?$vector@USTerrainTexture@@V?$allocator@USTerrainTexture@@@std@@@std@@QAEPAUSTerrainTexture@@QAU2@ABU2@@Z$2
__ehfuncinfo$??$_Emplace_reallocate@ABUSTerrainTexture@@@?$vector@USTerrainTexture@@V?$allocator@USTerrainTexture@@@std@@@std@@QAEPAUSTerrainTexture@@QAU2@ABU2@@Z DD 019930522H
	DD	02H
	DD	FLAT:__unwindtable$??$_Emplace_reallocate@ABUSTerrainTexture@@@?$vector@USTerrainTexture@@V?$allocator@USTerrainTexture@@@std@@@std@@QAEPAUSTerrainTexture@@QAU2@ABU2@@Z
	DD	01H
	DD	FLAT:__tryblocktable$??$_Emplace_reallocate@ABUSTerrainTexture@@@?$vector@USTerrainTexture@@V?$allocator@USTerrainTexture@@@std@@@std@@QAEPAUSTerrainTexture@@QAU2@ABU2@@Z
	DD	2 DUP(00H)
	DD	00H
	DD	01H
xdata$x	ENDS
;	COMDAT xdata$x
xdata$x	SEGMENT
__unwindtable$??$_Try_emplace@V?$basic_string@DU?$char_traits@D@std@@V?$allocator@D@2@@std@@$$V@?$map@V?$basic_string@DU?$char_traits@D@std@@V?$allocator@D@2@@std@@V?$vector@V?$basic_string@DU?$char_traits@D@std@@V?$allocator@D@2@@std@@V?$allocator@V?$basic_string@DU?$char_traits@D@std@@V?$allocator@D@2@@std@@@2@@2@U?$less@V?$basic_string@DU?$char_traits@D@std@@V?$allocator@D@2@@std@@@2@V?$allocator@U?$pair@$$CBV?$basic_string@DU?$char_traits@D@std@@V?$allocator@D@2@@std@@V?$vector@V?$basic_string@DU?$char_traits@D@std@@V?$allocator@D@2@@std@@V?$allocator@V?$basic_string@DU?$char_traits@D@std@@V?$allocator@D@2@@std@@@2@@2@@std@@@2@@std@@AAE?AU?$pair@PAU?$_Tree_node@U?$pair@$$CBV?$basic_string@DU?$char_traits@D@std@@V?$allocator@D@2@@std@@V?$vector@V?$basic_string@DU?$char_traits@D@std@@V?$allocator@D@2@@std@@V?$allocator@V?$basic_string@DU?$char_traits@D@std@@V?$allocator@D@2@@std@@@2@@2@@std@@PAX@std@@_N@1@$$QAV?$basic_string@DU?$char_traits@D@std@@V?$allocator@D@2@@1@@Z DD 0ffffffffH
	DD	FLAT:__unwindfunclet$??$_Try_emplace@V?$basic_string@DU?$char_traits@D@std@@V?$allocator@D@2@@std@@$$V@?$map@V?$basic_string@DU?$char_traits@D@std@@V?$allocator@D@2@@std@@V?$vector@V?$basic_string@DU?$char_traits@D@std@@V?$allocator@D@2@@std@@V?$allocator@V?$basic_string@DU?$char_traits@D@std@@V?$allocator@D@2@@std@@@2@@2@U?$less@V?$basic_string@DU?$char_traits@D@std@@V?$allocator@D@2@@std@@@2@V?$allocator@U?$pair@$$CBV?$basic_string@DU?$char_traits@D@std@@V?$allocator@D@2@@std@@V?$vector@V?$basic_string@DU?$char_traits@D@std@@V?$allocator@D@2@@std@@V?$allocator@V?$basic_string@DU?$char_traits@D@std@@V?$allocator@D@2@@std@@@2@@2@@std@@@2@@std@@AAE?AU?$pair@PAU?$_Tree_node@U?$pair@$$CBV?$basic_string@DU?$char_traits@D@std@@V?$allocator@D@2@@std@@V?$vector@V?$basic_string@DU?$char_traits@D@std@@V?$allocator@D@2@@std@@V?$allocator@V?$basic_string@DU?$char_traits@D@std@@V?$allocator@D@2@@std@@@2@@2@@std@@PAX@std@@_N@1@$$QAV?$basic_string@DU?$char_traits@D@std@@V?$allocator@D@2@@1@@Z$2
__ehfuncinfo$??$_Try_emplace@V?$basic_string@DU?$char_traits@D@std@@V?$allocator@D@2@@std@@$$V@?$map@V?$basic_string@DU?$char_traits@D@std@@V?$allocator@D@2@@std@@V?$vector@V?$basic_string@DU?$char_traits@D@std@@V?$allocator@D@2@@std@@V?$allocator@V?$basic_string@DU?$char_traits@D@std@@V?$allocator@D@2@@std@@@2@@2@U?$less@V?$basic_string@DU?$char_traits@D@std@@V?$allocator@D@2@@std@@@2@V?$allocator@U?$pair@$$CBV?$basic_string@DU?$char_traits@D@std@@V?$allocator@D@2@@std@@V?$vector@V?$basic_string@DU?$char_traits@D@std@@V?$allocator@D@2@@std@@V?$allocator@V?$basic_string@DU?$char_traits@D@std@@V?$allocator@D@2@@std@@@2@@2@@std@@@2@@std@@AAE?AU?$pair@PAU?$_Tree_node@U?$pair@$$CBV?$basic_string@DU?$char_traits@D@std@@V?$allocator@D@2@@std@@V?$vector@V?$basic_string@DU?$char_traits@D@std@@V?$allocator@D@2@@std@@V?$allocator@V?$basic_string@DU?$char_traits@D@std@@V?$allocator@D@2@@std@@@2@@2@@std@@PAX@std@@_N@1@$$QAV?$basic_string@DU?$char_traits@D@std@@V?$allocator@D@2@@1@@Z DD 019930522H
	DD	01H
	DD	FLAT:__unwindtable$??$_Try_emplace@V?$basic_string@DU?$char_traits@D@std@@V?$allocator@D@2@@std@@$$V@?$map@V?$basic_string@DU?$char_traits@D@std@@V?$allocator@D@2@@std@@V?$vector@V?$basic_string@DU?$char_traits@D@std@@V?$allocator@D@2@@std@@V?$allocator@V?$basic_string@DU?$char_traits@D@std@@V?$allocator@D@2@@std@@@2@@2@U?$less@V?$basic_string@DU?$char_traits@D@std@@V?$allocator@D@2@@std@@@2@V?$allocator@U?$pair@$$CBV?$basic_string@DU?$char_traits@D@std@@V?$allocator@D@2@@std@@V?$vector@V?$basic_string@DU?$char_traits@D@std@@V?$allocator@D@2@@std@@V?$allocator@V?$basic_string@DU?$char_traits@D@std@@V?$allocator@D@2@@std@@@2@@2@@std@@@2@@std@@AAE?AU?$pair@PAU?$_Tree_node@U?$pair@$$CBV?$basic_string@DU?$char_traits@D@std@@V?$allocator@D@2@@std@@V?$vector@V?$basic_string@DU?$char_traits@D@std@@V?$allocator@D@2@@std@@V?$allocator@V?$basic_string@DU?$char_traits@D@std@@V?$allocator@D@2@@std@@@2@@2@@std@@PAX@std@@_N@1@$$QAV?$basic_string@DU?$char_traits@D@std@@V?$allocator@D@2@@1@@Z
	DD	2 DUP(00H)
	DD	2 DUP(00H)
	DD	00H
	DD	01H
xdata$x	ENDS
;	COMDAT xdata$x
xdata$x	SEGMENT
__unwindtable$??A?$map@V?$basic_string@DU?$char_traits@D@std@@V?$allocator@D@2@@std@@V?$vector@V?$basic_string@DU?$char_traits@D@std@@V?$allocator@D@2@@std@@V?$allocator@V?$basic_string@DU?$char_traits@D@std@@V?$allocator@D@2@@std@@@2@@2@U?$less@V?$basic_string@DU?$char_traits@D@std@@V?$allocator@D@2@@std@@@2@V?$allocator@U?$pair@$$CBV?$basic_string@DU?$char_traits@D@std@@V?$allocator@D@2@@std@@V?$vector@V?$basic_string@DU?$char_traits@D@std@@V?$allocator@D@2@@std@@V?$allocator@V?$basic_string@DU?$char_traits@D@std@@V?$allocator@D@2@@std@@@2@@2@@std@@@2@@std@@QAEAAV?$vector@V?$basic_string@DU?$char_traits@D@std@@V?$allocator@D@2@@std@@V?$allocator@V?$basic_string@DU?$char_traits@D@std@@V?$allocator@D@2@@std@@@2@@1@$$QAV?$basic_string@DU?$char_traits@D@std@@V?$allocator@D@2@@1@@Z DD 0ffffffffH
	DD	FLAT:__unwindfunclet$??A?$map@V?$basic_string@DU?$char_traits@D@std@@V?$allocator@D@2@@std@@V?$vector@V?$basic_string@DU?$char_traits@D@std@@V?$allocator@D@2@@std@@V?$allocator@V?$basic_string@DU?$char_traits@D@std@@V?$allocator@D@2@@std@@@2@@2@U?$less@V?$basic_string@DU?$char_traits@D@std@@V?$allocator@D@2@@std@@@2@V?$allocator@U?$pair@$$CBV?$basic_string@DU?$char_traits@D@std@@V?$allocator@D@2@@std@@V?$vector@V?$basic_string@DU?$char_traits@D@std@@V?$allocator@D@2@@std@@V?$allocator@V?$basic_string@DU?$char_traits@D@std@@V?$allocator@D@2@@std@@@2@@2@@std@@@2@@std@@QAEAAV?$vector@V?$basic_string@DU?$char_traits@D@std@@V?$allocator@D@2@@std@@V?$allocator@V?$basic_string@DU?$char_traits@D@std@@V?$allocator@D@2@@std@@@2@@1@$$QAV?$basic_string@DU?$char_traits@D@std@@V?$allocator@D@2@@1@@Z$2
__ehfuncinfo$??A?$map@V?$basic_string@DU?$char_traits@D@std@@V?$allocator@D@2@@std@@V?$vector@V?$basic_string@DU?$char_traits@D@std@@V?$allocator@D@2@@std@@V?$allocator@V?$basic_string@DU?$char_traits@D@std@@V?$allocator@D@2@@std@@@2@@2@U?$less@V?$basic_string@DU?$char_traits@D@std@@V?$allocator@D@2@@std@@@2@V?$allocator@U?$pair@$$CBV?$basic_string@DU?$char_traits@D@std@@V?$allocator@D@2@@std@@V?$vector@V?$basic_string@DU?$char_traits@D@std@@V?$allocator@D@2@@std@@V?$allocator@V?$basic_string@DU?$char_traits@D@std@@V?$allocator@D@2@@std@@@2@@2@@std@@@2@@std@@QAEAAV?$vector@V?$basic_string@DU?$char_traits@D@std@@V?$allocator@D@2@@std@@V?$allocator@V?$basic_string@DU?$char_traits@D@std@@V?$allocator@D@2@@std@@@2@@1@$$QAV?$basic_string@DU?$char_traits@D@std@@V?$allocator@D@2@@1@@Z DD 019930522H
	DD	01H
	DD	FLAT:__unwindtable$??A?$map@V?$basic_string@DU?$char_traits@D@std@@V?$allocator@D@2@@std@@V?$vector@V?$basic_string@DU?$char_traits@D@std@@V?$allocator@D@2@@std@@V?$allocator@V?$basic_string@DU?$char_traits@D@std@@V?$allocator@D@2@@std@@@2@@2@U?$less@V?$basic_string@DU?$char_traits@D@std@@V?$allocator@D@2@@std@@@2@V?$allocator@U?$pair@$$CBV?$basic_string@DU?$char_traits@D@std@@V?$allocator@D@2@@std@@V?$vector@V?$basic_string@DU?$char_traits@D@std@@V?$allocator@D@2@@std@@V?$allocator@V?$basic_string@DU?$char_traits@D@std@@V?$allocator@D@2@@std@@@2@@2@@std@@@2@@std@@QAEAAV?$vector@V?$basic_string@DU?$char_traits@D@std@@V?$allocator@D@2@@std@@V?$allocator@V?$basic_string@DU?$char_traits@D@std@@V?$allocator@D@2@@std@@@2@@1@$$QAV?$basic_string@DU?$char_traits@D@std@@V?$allocator@D@2@@1@@Z
	DD	2 DUP(00H)
	DD	2 DUP(00H)
	DD	00H
	DD	01H
xdata$x	ENDS
;	COMDAT xdata$x
xdata$x	SEGMENT
__catchsym$?_Reallocate_exactly@?$vector@USTerrainTexture@@V?$allocator@USTerrainTexture@@@std@@@std@@AAEXI@Z$2 DD 040H
	DD	00H
	DD	00H
	DD	FLAT:__catch$?_Reallocate_exactly@?$vector@USTerrainTexture@@V?$allocator@USTerrainTexture@@@std@@@std@@AAEXI@Z$0
__unwindtable$?_Reallocate_exactly@?$vector@USTerrainTexture@@V?$allocator@USTerrainTexture@@@std@@@std@@AAEXI@Z DD 0ffffffffH
	DD	00H
	DD	0ffffffffH
	DD	00H
__tryblocktable$?_Reallocate_exactly@?$vector@USTerrainTexture@@V?$allocator@USTerrainTexture@@@std@@@std@@AAEXI@Z DD 00H
	DD	00H
	DD	01H
	DD	01H
	DD	FLAT:__catchsym$?_Reallocate_exactly@?$vector@USTerrainTexture@@V?$allocator@USTerrainTexture@@@std@@@std@@AAEXI@Z$2
__ehfuncinfo$?_Reallocate_exactly@?$vector@USTerrainTexture@@V?$allocator@USTerrainTexture@@@std@@@std@@AAEXI@Z DD 019930522H
	DD	02H
	DD	FLAT:__unwindtable$?_Reallocate_exactly@?$vector@USTerrainTexture@@V?$allocator@USTerrainTexture@@@std@@@std@@AAEXI@Z
	DD	01H
	DD	FLAT:__tryblocktable$?_Reallocate_exactly@?$vector@USTerrainTexture@@V?$allocator@USTerrainTexture@@@std@@@std@@AAEXI@Z
	DD	2 DUP(00H)
	DD	00H
	DD	01H
xdata$x	ENDS
;	COMDAT xdata$x
xdata$x	SEGMENT
__unwindtable$?AddEmptyTexture@CTextureSet@@IAEXXZ DD 0ffffffffH
	DD	FLAT:__unwindfunclet$?AddEmptyTexture@CTextureSet@@IAEXXZ$1
	DD	0ffffffffH
	DD	FLAT:__unwindfunclet$?AddEmptyTexture@CTextureSet@@IAEXXZ$0
__ehfuncinfo$?AddEmptyTexture@CTextureSet@@IAEXXZ DD 019930522H
	DD	02H
	DD	FLAT:__unwindtable$?AddEmptyTexture@CTextureSet@@IAEXXZ
	DD	2 DUP(00H)
	DD	2 DUP(00H)
	DD	00H
	DD	01H
xdata$x	ENDS
;	COMDAT xdata$x
xdata$x	SEGMENT
__ehfuncinfo$?Load@CTextureSet@@QAE_NPBDM@Z DD 019930522H
	DD	0dH
	DD	FLAT:__unwindtable$?Load@CTextureSet@@QAE_NPBDM@Z
	DD	2 DUP(00H)
	DD	2 DUP(00H)
	DD	00H
	DD	01H
__unwindtable$?Load@CTextureSet@@QAE_NPBDM@Z DD 0ffffffffH
	DD	FLAT:__unwindfunclet$?Load@CTextureSet@@QAE_NPBDM@Z$0
	DD	00H
	DD	FLAT:__unwindfunclet$?Load@CTextureSet@@QAE_NPBDM@Z$3
	DD	01H
	DD	FLAT:__unwindfunclet$?Load@CTextureSet@@QAE_NPBDM@Z$19
	DD	00H
	DD	FLAT:__unwindfunclet$?Load@CTextureSet@@QAE_NPBDM@Z$5
	DD	03H
	DD	FLAT:__unwindfunclet$?Load@CTextureSet@@QAE_NPBDM@Z$26
	DD	00H
	DD	FLAT:__unwindfunclet$?Load@CTextureSet@@QAE_NPBDM@Z$6
	DD	05H
	DD	FLAT:__unwindfunclet$?Load@CTextureSet@@QAE_NPBDM@Z$7
	DD	06H
	DD	FLAT:__unwindfunclet$?Load@CTextureSet@@QAE_NPBDM@Z$8
	DD	07H
	DD	FLAT:__unwindfunclet$?Load@CTextureSet@@QAE_NPBDM@Z$9
	DD	08H
	DD	FLAT:__unwindfunclet$?Load@CTextureSet@@QAE_NPBDM@Z$10
	DD	09H
	DD	FLAT:__unwindfunclet$?Load@CTextureSet@@QAE_NPBDM@Z$11
	DD	0aH
	DD	FLAT:__unwindfunclet$?Load@CTextureSet@@QAE_NPBDM@Z$12
	DD	0bH
	DD	FLAT:__unwindfunclet$?Load@CTextureSet@@QAE_NPBDM@Z$13
xdata$x	ENDS
;	COMDAT xdata$x
xdata$x	SEGMENT
__ehfuncinfo$??1CTextureSet@@UAE@XZ DD 019930522H
	DD	00H
	DD	00H
	DD	2 DUP(00H)
	DD	2 DUP(00H)
	DD	00H
	DD	05H
xdata$x	ENDS
;	COMDAT xdata$x
xdata$x	SEGMENT
__unwindtable$??0CTextureSet@@QAE@XZ DD 0ffffffffH
	DD	FLAT:__unwindfunclet$??0CTextureSet@@QAE@XZ$0
	DD	00H
	DD	FLAT:__unwindfunclet$??0CTextureSet@@QAE@XZ$3
__ehfuncinfo$??0CTextureSet@@QAE@XZ DD 019930522H
	DD	02H
	DD	FLAT:__unwindtable$??0CTextureSet@@QAE@XZ
	DD	2 DUP(00H)
	DD	2 DUP(00H)
	DD	00H
	DD	01H
xdata$x	ENDS
;	COMDAT xdata$x
xdata$x	SEGMENT
__unwindtable$??0STerrainTexture@@QAE@ABU0@@Z DD 0ffffffffH
	DD	FLAT:__unwindfunclet$??0STerrainTexture@@QAE@ABU0@@Z$0
__ehfuncinfo$??0STerrainTexture@@QAE@ABU0@@Z DD 019930522H
	DD	01H
	DD	FLAT:__unwindtable$??0STerrainTexture@@QAE@ABU0@@Z
	DD	2 DUP(00H)
	DD	2 DUP(00H)
	DD	00H
	DD	01H
xdata$x	ENDS
;	COMDAT xdata$x
xdata$x	SEGMENT
__unwindtable$??0STerrainTexture@@QAE@XZ DD 0ffffffffH
	DD	FLAT:__unwindfunclet$??0STerrainTexture@@QAE@XZ$0
__ehfuncinfo$??0STerrainTexture@@QAE@XZ DD 019930522H
	DD	01H
	DD	FLAT:__unwindtable$??0STerrainTexture@@QAE@XZ
	DD	2 DUP(00H)
	DD	2 DUP(00H)
	DD	00H
	DD	01H
xdata$x	ENDS
;	COMDAT xdata$x
xdata$x	SEGMENT
__ehfuncinfo$??1?$CRef@VCGraphicImage@@@@QAE@XZ DD 019930522H
	DD	00H
	DD	00H
	DD	2 DUP(00H)
	DD	2 DUP(00H)
	DD	00H
	DD	05H
xdata$x	ENDS
; Function compile flags: /Ogtp
; File C:\Program Files (x86)\Microsoft Visual Studio\2019\Community\VC\Tools\MSVC\14.27.29110\include\tuple
; File C:\Program Files (x86)\Microsoft Visual Studio\2019\Community\VC\Tools\MSVC\14.27.29110\include\xstring
; File C:\Program Files (x86)\Microsoft Visual Studio\2019\Community\VC\Tools\MSVC\14.27.29110\include\tuple
; File C:\Program Files (x86)\Microsoft Visual Studio\2019\Community\VC\Tools\MSVC\14.27.29110\include\vector
; File C:\Program Files (x86)\Microsoft Visual Studio\2019\Community\VC\Tools\MSVC\14.27.29110\include\tuple
;	COMDAT ??$?0V?$tuple@$$QAV?$basic_string@DU?$char_traits@D@std@@V?$allocator@D@2@@std@@@std@@V?$tuple@$$V@1@$0A@$$Z$S@?$pair@$$CBV?$basic_string@DU?$char_traits@D@std@@V?$allocator@D@2@@std@@V?$vector@V?$basic_string@DU?$char_traits@D@std@@V?$allocator@D@2@@std@@V?$allocator@V?$basic_string@DU?$char_traits@D@std@@V?$allocator@D@2@@std@@@2@@2@@std@@QAE@AAV?$tuple@$$QAV?$basic_string@DU?$char_traits@D@std@@V?$allocator@D@2@@std@@@1@AAV?$tuple@$$V@1@U?$integer_sequence@I$0A@@1@U?$integer_sequence@I$S@1@@Z
_TEXT	SEGMENT
_this$ = -4						; size = 4
__Val1$ = 8						; size = 4
__Val2$ = 12						; size = 4
___formal$ = 16						; size = 1
___formal$ = 20						; size = 1
??$?0V?$tuple@$$QAV?$basic_string@DU?$char_traits@D@std@@V?$allocator@D@2@@std@@@std@@V?$tuple@$$V@1@$0A@$$Z$S@?$pair@$$CBV?$basic_string@DU?$char_traits@D@std@@V?$allocator@D@2@@std@@V?$vector@V?$basic_string@DU?$char_traits@D@std@@V?$allocator@D@2@@std@@V?$allocator@V?$basic_string@DU?$char_traits@D@std@@V?$allocator@D@2@@std@@@2@@2@@std@@QAE@AAV?$tuple@$$QAV?$basic_string@DU?$char_traits@D@std@@V?$allocator@D@2@@std@@@1@AAV?$tuple@$$V@1@U?$integer_sequence@I$0A@@1@U?$integer_sequence@I$S@1@@Z PROC ; std::pair<std::basic_string<char,std::char_traits<char>,std::allocator<char> > const ,std::vector<std::basic_string<char,std::char_traits<char>,std::allocator<char> >,std::allocator<std::basic_string<char,std::char_traits<char>,std::allocator<char> > > > >::pair<std::basic_string<char,std::char_traits<char>,std::allocator<char> > const ,std::vector<std::basic_string<char,std::char_traits<char>,std::allocator<char> >,std::allocator<std::basic_string<char,std::char_traits<char>,std::allocator<char> > > > ><std::tuple<std::basic_string<char,std::char_traits<char>,std::allocator<char> > &&>,std::tuple<>,0>, COMDAT
; _this$ = ecx

; 975  :     : first(_STD get<_Indexes1>(_STD move(_Val1))...), second(_STD get<_Indexes2>(_STD move(_Val2))...) {}

  00000	55		 push	 ebp
  00001	8b ec		 mov	 ebp, esp
  00003	51		 push	 ecx
  00004	8b 45 08	 mov	 eax, DWORD PTR __Val1$[ebp]
  00007	89 4d fc	 mov	 DWORD PTR _this$[ebp], ecx
  0000a	8b 00		 mov	 eax, DWORD PTR [eax]
; File C:\Program Files (x86)\Microsoft Visual Studio\2019\Community\VC\Tools\MSVC\14.27.29110\include\xstring

; 2124 :     _String_val() : _Bx(), _Mysize(0), _Myres(0) {}

  0000c	c7 41 10 00 00
	00 00		 mov	 DWORD PTR [ecx+16], 0
  00013	c7 41 14 00 00
	00 00		 mov	 DWORD PTR [ecx+20], 0

; 2606 :         _CSTD memcpy(_My_data_mem, _Right_data_mem, _Memcpy_val_size);

  0001a	0f 10 00	 movups	 xmm0, XMMWORD PTR [eax]
  0001d	0f 11 01	 movups	 XMMWORD PTR [ecx], xmm0
  00020	f3 0f 7e 40 10	 movq	 xmm0, QWORD PTR [eax+16]
  00025	66 0f d6 41 10	 movq	 QWORD PTR [ecx+16], xmm0

; 4293 :         _Mypair._Myval2._Mysize = 0;

  0002a	c7 40 10 00 00
	00 00		 mov	 DWORD PTR [eax+16], 0

; 4294 :         _Mypair._Myval2._Myres  = _BUF_SIZE - 1;

  00031	c7 40 14 0f 00
	00 00		 mov	 DWORD PTR [eax+20], 15	; 0000000fH

; 4295 :         // the _Traits::assign is last so the codegen doesn't think the char write can alias this
; 4296 :         _Traits::assign(_Mypair._Myval2._Bx._Buf[0], _Elem());

  00038	c6 00 00	 mov	 BYTE PTR [eax], 0
; File C:\Program Files (x86)\Microsoft Visual Studio\2019\Community\VC\Tools\MSVC\14.27.29110\include\tuple

; 975  :     : first(_STD get<_Indexes1>(_STD move(_Val1))...), second(_STD get<_Indexes2>(_STD move(_Val2))...) {}

  0003b	8b c1		 mov	 eax, ecx
; File C:\Program Files (x86)\Microsoft Visual Studio\2019\Community\VC\Tools\MSVC\14.27.29110\include\vector

; 375  :     _Vector_val() noexcept : _Myfirst(), _Mylast(), _Myend() {}

  0003d	c7 41 18 00 00
	00 00		 mov	 DWORD PTR [ecx+24], 0
  00044	c7 41 1c 00 00
	00 00		 mov	 DWORD PTR [ecx+28], 0
  0004b	c7 41 20 00 00
	00 00		 mov	 DWORD PTR [ecx+32], 0
; File C:\Program Files (x86)\Microsoft Visual Studio\2019\Community\VC\Tools\MSVC\14.27.29110\include\tuple

; 975  :     : first(_STD get<_Indexes1>(_STD move(_Val1))...), second(_STD get<_Indexes2>(_STD move(_Val2))...) {}

  00052	8b e5		 mov	 esp, ebp
  00054	5d		 pop	 ebp
  00055	c2 10 00	 ret	 16			; 00000010H
??$?0V?$tuple@$$QAV?$basic_string@DU?$char_traits@D@std@@V?$allocator@D@2@@std@@@std@@V?$tuple@$$V@1@$0A@$$Z$S@?$pair@$$CBV?$basic_string@DU?$char_traits@D@std@@V?$allocator@D@2@@std@@V?$vector@V?$basic_string@DU?$char_traits@D@std@@V?$allocator@D@2@@std@@V?$allocator@V?$basic_string@DU?$char_traits@D@std@@V?$allocator@D@2@@std@@@2@@2@@std@@QAE@AAV?$tuple@$$QAV?$basic_string@DU?$char_traits@D@std@@V?$allocator@D@2@@std@@@1@AAV?$tuple@$$V@1@U?$integer_sequence@I$0A@@1@U?$integer_sequence@I$S@1@@Z ENDP ; std::pair<std::basic_string<char,std::char_traits<char>,std::allocator<char> > const ,std::vector<std::basic_string<char,std::char_traits<char>,std::allocator<char> >,std::allocator<std::basic_string<char,std::char_traits<char>,std::allocator<char> > > > >::pair<std::basic_string<char,std::char_traits<char>,std::allocator<char> > const ,std::vector<std::basic_string<char,std::char_traits<char>,std::allocator<char> >,std::allocator<std::basic_string<char,std::char_traits<char>,std::allocator<char> > > > ><std::tuple<std::basic_string<char,std::char_traits<char>,std::allocator<char> > &&>,std::tuple<>,0>
_TEXT	ENDS
; Function compile flags: /Ogtp
; File C:\Program Files (x86)\Microsoft Visual Studio\2019\Community\VC\Tools\MSVC\14.27.29110\include\tuple
;	COMDAT ??$?0$$QAV?$basic_string@DU?$char_traits@D@std@@V?$allocator@D@2@@std@@$$Z$$V@?$pair@$$CBV?$basic_string@DU?$char_traits@D@std@@V?$allocator@D@2@@std@@V?$vector@V?$basic_string@DU?$char_traits@D@std@@V?$allocator@D@2@@std@@V?$allocator@V?$basic_string@DU?$char_traits@D@std@@V?$allocator@D@2@@std@@@2@@2@@std@@QAE@Upiecewise_construct_t@1@V?$tuple@$$QAV?$basic_string@DU?$char_traits@D@std@@V?$allocator@D@2@@std@@@1@V?$tuple@$$V@1@@Z
_TEXT	SEGMENT
$T1 = -8						; size = 1
_this$ = -8						; size = 4
$T2 = -4						; size = 1
___formal$ = 8						; size = 1
__Val1$ = 12						; size = 4
__Val2$ = 16						; size = 1
??$?0$$QAV?$basic_string@DU?$char_traits@D@std@@V?$allocator@D@2@@std@@$$Z$$V@?$pair@$$CBV?$basic_string@DU?$char_traits@D@std@@V?$allocator@D@2@@std@@V?$vector@V?$basic_string@DU?$char_traits@D@std@@V?$allocator@D@2@@std@@V?$allocator@V?$basic_string@DU?$char_traits@D@std@@V?$allocator@D@2@@std@@@2@@2@@std@@QAE@Upiecewise_construct_t@1@V?$tuple@$$QAV?$basic_string@DU?$char_traits@D@std@@V?$allocator@D@2@@std@@@1@V?$tuple@$$V@1@@Z PROC ; std::pair<std::basic_string<char,std::char_traits<char>,std::allocator<char> > const ,std::vector<std::basic_string<char,std::char_traits<char>,std::allocator<char> >,std::allocator<std::basic_string<char,std::char_traits<char>,std::allocator<char> > > > >::pair<std::basic_string<char,std::char_traits<char>,std::allocator<char> > const ,std::vector<std::basic_string<char,std::char_traits<char>,std::allocator<char> >,std::allocator<std::basic_string<char,std::char_traits<char>,std::allocator<char> > > > ><std::basic_string<char,std::char_traits<char>,std::allocator<char> > &&>, COMDAT
; _this$ = ecx

; 981  :     : pair(_Val1, _Val2, index_sequence_for<_Types1...>{}, index_sequence_for<_Types2...>{}) {}

  00000	55		 push	 ebp
  00001	8b ec		 mov	 ebp, esp
  00003	83 ec 08	 sub	 esp, 8
  00006	56		 push	 esi
  00007	8b f1		 mov	 esi, ecx
  00009	8d 45 10	 lea	 eax, DWORD PTR __Val2$[ebp]
  0000c	89 75 f8	 mov	 DWORD PTR _this$[ebp], esi
  0000f	c6 45 fc 00	 mov	 BYTE PTR $T2[ebp], 0
  00013	ff 75 fc	 push	 DWORD PTR $T2[ebp]
  00016	c6 45 f8 00	 mov	 BYTE PTR $T1[ebp], 0
  0001a	ff 75 f8	 push	 DWORD PTR $T1[ebp]
  0001d	50		 push	 eax
  0001e	8d 45 0c	 lea	 eax, DWORD PTR __Val1$[ebp]
  00021	50		 push	 eax
  00022	e8 00 00 00 00	 call	 ??$?0V?$tuple@$$QAV?$basic_string@DU?$char_traits@D@std@@V?$allocator@D@2@@std@@@std@@V?$tuple@$$V@1@$0A@$$Z$S@?$pair@$$CBV?$basic_string@DU?$char_traits@D@std@@V?$allocator@D@2@@std@@V?$vector@V?$basic_string@DU?$char_traits@D@std@@V?$allocator@D@2@@std@@V?$allocator@V?$basic_string@DU?$char_traits@D@std@@V?$allocator@D@2@@std@@@2@@2@@std@@QAE@AAV?$tuple@$$QAV?$basic_string@DU?$char_traits@D@std@@V?$allocator@D@2@@std@@@1@AAV?$tuple@$$V@1@U?$integer_sequence@I$0A@@1@U?$integer_sequence@I$S@1@@Z ; std::pair<std::basic_string<char,std::char_traits<char>,std::allocator<char> > const ,std::vector<std::basic_string<char,std::char_traits<char>,std::allocator<char> >,std::allocator<std::basic_string<char,std::char_traits<char>,std::allocator<char> > > > >::pair<std::basic_string<char,std::char_traits<char>,std::allocator<char> > const ,std::vector<std::basic_string<char,std::char_traits<char>,std::allocator<char> >,std::allocator<std::basic_string<char,std::char_traits<char>,std::allocator<char> > > > ><std::tuple<std::basic_string<char,std::char_traits<char>,std::allocator<char> > &&>,std::tuple<>,0>
  00027	8b c6		 mov	 eax, esi
  00029	5e		 pop	 esi
  0002a	8b e5		 mov	 esp, ebp
  0002c	5d		 pop	 ebp
  0002d	c2 0c 00	 ret	 12			; 0000000cH
??$?0$$QAV?$basic_string@DU?$char_traits@D@std@@V?$allocator@D@2@@std@@$$Z$$V@?$pair@$$CBV?$basic_string@DU?$char_traits@D@std@@V?$allocator@D@2@@std@@V?$vector@V?$basic_string@DU?$char_traits@D@std@@V?$allocator@D@2@@std@@V?$allocator@V?$basic_string@DU?$char_traits@D@std@@V?$allocator@D@2@@std@@@2@@2@@std@@QAE@Upiecewise_construct_t@1@V?$tuple@$$QAV?$basic_string@DU?$char_traits@D@std@@V?$allocator@D@2@@std@@@1@V?$tuple@$$V@1@@Z ENDP ; std::pair<std::basic_string<char,std::char_traits<char>,std::allocator<char> > const ,std::vector<std::basic_string<char,std::char_traits<char>,std::allocator<char> >,std::allocator<std::basic_string<char,std::char_traits<char>,std::allocator<char> > > > >::pair<std::basic_string<char,std::char_traits<char>,std::allocator<char> > const ,std::vector<std::basic_string<char,std::char_traits<char>,std::allocator<char> >,std::allocator<std::basic_string<char,std::char_traits<char>,std::allocator<char> > > > ><std::basic_string<char,std::char_traits<char>,std::allocator<char> > &&>
_TEXT	ENDS
; Function compile flags: /Ogtp
; File C:\Program Files (x86)\Microsoft Visual Studio\2019\Community\VC\Tools\MSVC\14.27.29110\include\xmemory
; File C:\Program Files (x86)\Microsoft Visual Studio\2019\Community\VC\Tools\MSVC\14.27.29110\include\xstring
; File C:\Program Files (x86)\Microsoft Visual Studio\2019\Community\VC\Tools\MSVC\14.27.29110\include\xmemory
; File C:\Program Files (x86)\Microsoft Visual Studio\2019\Community\VC\Tools\MSVC\14.27.29110\include\xstring
; File C:\Program Files (x86)\Microsoft Visual Studio\2019\Community\VC\Tools\MSVC\14.27.29110\include\xmemory
;	COMDAT ??$_Destroy_range@V?$allocator@V?$basic_string@DU?$char_traits@D@std@@V?$allocator@D@2@@std@@@std@@@std@@YAXPAV?$basic_string@DU?$char_traits@D@std@@V?$allocator@D@2@@0@QAV10@AAV?$allocator@V?$basic_string@DU?$char_traits@D@std@@V?$allocator@D@2@@std@@@0@@Z
_TEXT	SEGMENT
__First$ = 8						; size = 4
__Last$ = 12						; size = 4
__Al$ = 16						; size = 4
??$_Destroy_range@V?$allocator@V?$basic_string@DU?$char_traits@D@std@@V?$allocator@D@2@@std@@@std@@@std@@YAXPAV?$basic_string@DU?$char_traits@D@std@@V?$allocator@D@2@@0@QAV10@AAV?$allocator@V?$basic_string@DU?$char_traits@D@std@@V?$allocator@D@2@@std@@@0@@Z PROC ; std::_Destroy_range<std::allocator<std::basic_string<char,std::char_traits<char>,std::allocator<char> > > >, COMDAT

; 955  : void _Destroy_range(_Alloc_ptr_t<_Alloc> _First, const _Alloc_ptr_t<_Alloc> _Last, _Alloc& _Al) noexcept {

  00000	55		 push	 ebp
  00001	8b ec		 mov	 ebp, esp
  00003	56		 push	 esi

; 959  :         for (; _First != _Last; ++_First) {

  00004	8b 75 08	 mov	 esi, DWORD PTR __First$[ebp]
  00007	57		 push	 edi
  00008	8b 7d 0c	 mov	 edi, DWORD PTR __Last$[ebp]
  0000b	3b f7		 cmp	 esi, edi
  0000d	74 2d		 je	 SHORT $LN3@Destroy_ra
  0000f	90		 npad	 1
$LL4@Destroy_ra:
; File C:\Program Files (x86)\Microsoft Visual Studio\2019\Community\VC\Tools\MSVC\14.27.29110\include\xstring

; 2153 :         return _BUF_SIZE <= _Myres;

  00010	8b 46 14	 mov	 eax, DWORD PTR [esi+20]
  00013	83 f8 10	 cmp	 eax, 16			; 00000010H

; 4301 :         if (_Mypair._Myval2._Large_string_engaged()) {

  00016	72 0c		 jb	 SHORT $LN15@Destroy_ra

; 4302 :             const pointer _Ptr = _Mypair._Myval2._Bx._Ptr;
; 4303 :             auto& _Al          = _Getal();
; 4304 :             _Destroy_in_place(_Mypair._Myval2._Bx._Ptr);
; 4305 :             _Al.deallocate(_Ptr, _Mypair._Myval2._Myres + 1);

  00018	40		 inc	 eax
; File C:\Program Files (x86)\Microsoft Visual Studio\2019\Community\VC\Tools\MSVC\14.27.29110\include\xmemory

; 803  :         _Deallocate<_New_alignof<_Ty>>(_Ptr, sizeof(_Ty) * _Count);

  00019	50		 push	 eax
  0001a	ff 36		 push	 DWORD PTR [esi]
  0001c	e8 00 00 00 00	 call	 ??$_Deallocate@$07$0A@@std@@YAXPAXI@Z ; std::_Deallocate<8,0>
  00021	83 c4 08	 add	 esp, 8
$LN15@Destroy_ra:
; File C:\Program Files (x86)\Microsoft Visual Studio\2019\Community\VC\Tools\MSVC\14.27.29110\include\xstring

; 4308 :         _Mypair._Myval2._Mysize = 0;

  00024	c7 46 10 00 00
	00 00		 mov	 DWORD PTR [esi+16], 0

; 4309 :         _Mypair._Myval2._Myres  = _BUF_SIZE - 1;

  0002b	c7 46 14 0f 00
	00 00		 mov	 DWORD PTR [esi+20], 15	; 0000000fH

; 4310 :         // the _Traits::assign is last so the codegen doesn't think the char write can alias this
; 4311 :         _Traits::assign(_Mypair._Myval2._Bx._Buf[0], _Elem());

  00032	c6 06 00	 mov	 BYTE PTR [esi], 0
; File C:\Program Files (x86)\Microsoft Visual Studio\2019\Community\VC\Tools\MSVC\14.27.29110\include\xmemory

; 959  :         for (; _First != _Last; ++_First) {

  00035	83 c6 18	 add	 esi, 24			; 00000018H
  00038	3b f7		 cmp	 esi, edi
  0003a	75 d4		 jne	 SHORT $LL4@Destroy_ra
$LN3@Destroy_ra:
  0003c	5f		 pop	 edi

; 960  :             allocator_traits<_Alloc>::destroy(_Al, _Unfancy(_First));
; 961  :         }
; 962  :     }
; 963  : }

  0003d	5e		 pop	 esi
  0003e	5d		 pop	 ebp
  0003f	c3		 ret	 0
??$_Destroy_range@V?$allocator@V?$basic_string@DU?$char_traits@D@std@@V?$allocator@D@2@@std@@@std@@@std@@YAXPAV?$basic_string@DU?$char_traits@D@std@@V?$allocator@D@2@@0@QAV10@AAV?$allocator@V?$basic_string@DU?$char_traits@D@std@@V?$allocator@D@2@@std@@@0@@Z ENDP ; std::_Destroy_range<std::allocator<std::basic_string<char,std::char_traits<char>,std::allocator<char> > > >
_TEXT	ENDS
; Function compile flags: /Ogtp
; File C:\Program Files (x86)\Microsoft Visual Studio\2019\Community\VC\Tools\MSVC\14.27.29110\include\xstring
;	COMDAT ??$?MDU?$char_traits@D@std@@V?$allocator@D@1@@std@@YA_NABV?$basic_string@DU?$char_traits@D@std@@V?$allocator@D@2@@0@0@Z
_TEXT	SEGMENT
__Left$ = 8						; size = 4
__Right$ = 12						; size = 4
??$?MDU?$char_traits@D@std@@V?$allocator@D@1@@std@@YA_NABV?$basic_string@DU?$char_traits@D@std@@V?$allocator@D@2@@0@0@Z PROC ; std::operator<<char,std::char_traits<char>,std::allocator<char> >, COMDAT

; 4502 :     const basic_string<_Elem, _Traits, _Alloc>& _Left, const basic_string<_Elem, _Traits, _Alloc>& _Right) noexcept {

  00000	55		 push	 ebp
  00001	8b ec		 mov	 ebp, esp

; 2144 :         const value_type* _Result = _Bx._Buf;

  00003	8b 45 0c	 mov	 eax, DWORD PTR __Right$[ebp]
  00006	8b d0		 mov	 edx, eax

; 2153 :         return _BUF_SIZE <= _Myres;

  00008	83 78 14 10	 cmp	 DWORD PTR [eax+20], 16	; 00000010H

; 2145 :         if (_Large_string_engaged()) {

  0000c	72 02		 jb	 SHORT $LN6@operator

; 2146 :             _Result = _Unfancy(_Bx._Ptr);

  0000e	8b 10		 mov	 edx, DWORD PTR [eax]
$LN6@operator:

; 2144 :         const value_type* _Result = _Bx._Buf;

  00010	8b 4d 08	 mov	 ecx, DWORD PTR __Left$[ebp]
  00013	56		 push	 esi
  00014	8b f1		 mov	 esi, ecx

; 2153 :         return _BUF_SIZE <= _Myres;

  00016	83 79 14 10	 cmp	 DWORD PTR [ecx+20], 16	; 00000010H

; 2145 :         if (_Large_string_engaged()) {

  0001a	72 02		 jb	 SHORT $LN11@operator

; 2146 :             _Result = _Unfancy(_Bx._Ptr);

  0001c	8b 31		 mov	 esi, DWORD PTR [ecx]
$LN11@operator:

; 4129 :         return _Traits_compare<_Traits>(_Mypair._Myval2._Myptr(), _Mypair._Myval2._Mysize,

  0001e	ff 70 10	 push	 DWORD PTR [eax+16]
  00021	52		 push	 edx
  00022	ff 71 10	 push	 DWORD PTR [ecx+16]
  00025	56		 push	 esi
  00026	e8 00 00 00 00	 call	 ??$_Traits_compare@U?$char_traits@D@std@@@std@@YAHQBDI0I@Z ; std::_Traits_compare<std::char_traits<char> >
  0002b	83 c4 10	 add	 esp, 16			; 00000010H

; 4503 :     return _Left.compare(_Right) < 0;

  0002e	c1 e8 1f	 shr	 eax, 31			; 0000001fH
  00031	5e		 pop	 esi

; 4504 : }

  00032	5d		 pop	 ebp
  00033	c3		 ret	 0
??$?MDU?$char_traits@D@std@@V?$allocator@D@1@@std@@YA_NABV?$basic_string@DU?$char_traits@D@std@@V?$allocator@D@2@@0@0@Z ENDP ; std::operator<<char,std::char_traits<char>,std::allocator<char> >
_TEXT	ENDS
; Function compile flags: /Ogtp
; File C:\Program Files (x86)\Microsoft Visual Studio\2019\Community\VC\Tools\MSVC\14.27.29110\include\xmemory
;	COMDAT ??$_Construct_in_place@PAU?$_Tree_node@U?$pair@$$CBV?$basic_string@DU?$char_traits@D@std@@V?$allocator@D@2@@std@@V?$vector@V?$basic_string@DU?$char_traits@D@std@@V?$allocator@D@2@@std@@V?$allocator@V?$basic_string@DU?$char_traits@D@std@@V?$allocator@D@2@@std@@@2@@2@@std@@PAX@std@@AAPAU12@@std@@YAXAAPAU?$_Tree_node@U?$pair@$$CBV?$basic_string@DU?$char_traits@D@std@@V?$allocator@D@2@@std@@V?$vector@V?$basic_string@DU?$char_traits@D@std@@V?$allocator@D@2@@std@@V?$allocator@V?$basic_string@DU?$char_traits@D@std@@V?$allocator@D@2@@std@@@2@@2@@std@@PAX@0@0@Z
_TEXT	SEGMENT
__Obj$ = 8						; size = 4
_<_Args_0>$ = 12					; size = 4
??$_Construct_in_place@PAU?$_Tree_node@U?$pair@$$CBV?$basic_string@DU?$char_traits@D@std@@V?$allocator@D@2@@std@@V?$vector@V?$basic_string@DU?$char_traits@D@std@@V?$allocator@D@2@@std@@V?$allocator@V?$basic_string@DU?$char_traits@D@std@@V?$allocator@D@2@@std@@@2@@2@@std@@PAX@std@@AAPAU12@@std@@YAXAAPAU?$_Tree_node@U?$pair@$$CBV?$basic_string@DU?$char_traits@D@std@@V?$allocator@D@2@@std@@V?$vector@V?$basic_string@DU?$char_traits@D@std@@V?$allocator@D@2@@std@@V?$allocator@V?$basic_string@DU?$char_traits@D@std@@V?$allocator@D@2@@std@@@2@@2@@std@@PAX@0@0@Z PROC ; std::_Construct_in_place<std::_Tree_node<std::pair<std::basic_string<char,std::char_traits<char>,std::allocator<char> > const ,std::vector<std::basic_string<char,std::char_traits<char>,std::allocator<char> >,std::allocator<std::basic_string<char,std::char_traits<char>,std::allocator<char> > > > >,void *> *,std::_Tree_node<std::pair<std::basic_string<char,std::char_traits<char>,std::allocator<char> > const ,std::vector<std::basic_string<char,std::char_traits<char>,std::allocator<char> >,std::allocator<std::basic_string<char,std::char_traits<char>,std::allocator<char> > > > >,void *> * &>, COMDAT

; 228  : void _Construct_in_place(_Ty& _Obj, _Types&&... _Args) noexcept(is_nothrow_constructible_v<_Ty, _Types...>) {

  00000	55		 push	 ebp
  00001	8b ec		 mov	 ebp, esp

; 229  :     ::new (const_cast<void*>(static_cast<const volatile void*>(_STD addressof(_Obj))))

  00003	8b 45 0c	 mov	 eax, DWORD PTR _<_Args_0>$[ebp]
  00006	8b 08		 mov	 ecx, DWORD PTR [eax]
  00008	8b 45 08	 mov	 eax, DWORD PTR __Obj$[ebp]
  0000b	89 08		 mov	 DWORD PTR [eax], ecx

; 230  :         _Ty(_STD forward<_Types>(_Args)...);
; 231  : }

  0000d	5d		 pop	 ebp
  0000e	c3		 ret	 0
??$_Construct_in_place@PAU?$_Tree_node@U?$pair@$$CBV?$basic_string@DU?$char_traits@D@std@@V?$allocator@D@2@@std@@V?$vector@V?$basic_string@DU?$char_traits@D@std@@V?$allocator@D@2@@std@@V?$allocator@V?$basic_string@DU?$char_traits@D@std@@V?$allocator@D@2@@std@@@2@@2@@std@@PAX@std@@AAPAU12@@std@@YAXAAPAU?$_Tree_node@U?$pair@$$CBV?$basic_string@DU?$char_traits@D@std@@V?$allocator@D@2@@std@@V?$vector@V?$basic_string@DU?$char_traits@D@std@@V?$allocator@D@2@@std@@V?$allocator@V?$basic_string@DU?$char_traits@D@std@@V?$allocator@D@2@@std@@@2@@2@@std@@PAX@0@0@Z ENDP ; std::_Construct_in_place<std::_Tree_node<std::pair<std::basic_string<char,std::char_traits<char>,std::allocator<char> > const ,std::vector<std::basic_string<char,std::char_traits<char>,std::allocator<char> >,std::allocator<std::basic_string<char,std::char_traits<char>,std::allocator<char> > > > >,void *> *,std::_Tree_node<std::pair<std::basic_string<char,std::char_traits<char>,std::allocator<char> > const ,std::vector<std::basic_string<char,std::char_traits<char>,std::allocator<char> >,std::allocator<std::basic_string<char,std::char_traits<char>,std::allocator<char> > > > >,void *> * &>
_TEXT	ENDS
; Function compile flags: /Ogtp
; File C:\Program Files (x86)\Microsoft Visual Studio\2019\Community\VC\Tools\MSVC\14.27.29110\include\xmemory
; File C:\Program Files (x86)\Microsoft Visual Studio\2019\Community\VC\Tools\MSVC\14.27.29110\include\xstring
; File C:\DS Project\DS Files\Source\ClientSource\Client\PRTerrainLib\TextureSet.h
; File C:\Program Files (x86)\Microsoft Visual Studio\2019\Community\VC\Tools\MSVC\14.27.29110\include\xmemory
; File C:\DS Project\DS Files\Source\ClientSource\Client\PRTerrainLib\TextureSet.h
; File C:\Program Files (x86)\Microsoft Visual Studio\2019\Community\VC\Tools\MSVC\14.27.29110\include\xmemory
;	COMDAT ??$_Uninitialized_value_construct_n@V?$allocator@USTerrainTexture@@@std@@@std@@YAPAUSTerrainTexture@@PAU1@IAAV?$allocator@USTerrainTexture@@@0@@Z
_TEXT	SEGMENT
__Backout$2 = -24					; size = 12
__$EHRec$ = -12						; size = 12
$T3 = 8							; size = 4
__First$ = 8						; size = 4
__Count$ = 12						; size = 4
__Al$ = 16						; size = 4
??$_Uninitialized_value_construct_n@V?$allocator@USTerrainTexture@@@std@@@std@@YAPAUSTerrainTexture@@PAU1@IAAV?$allocator@USTerrainTexture@@@0@@Z PROC ; std::_Uninitialized_value_construct_n<std::allocator<STerrainTexture> >, COMDAT

; 1824 :     _Alloc_ptr_t<_Alloc> _First, _Alloc_size_t<_Alloc> _Count, _Alloc& _Al) {

  00000	55		 push	 ebp
  00001	8b ec		 mov	 ebp, esp
  00003	6a ff		 push	 -1
  00005	68 00 00 00 00	 push	 __ehhandler$??$_Uninitialized_value_construct_n@V?$allocator@USTerrainTexture@@@std@@@std@@YAPAUSTerrainTexture@@PAU1@IAAV?$allocator@USTerrainTexture@@@0@@Z
  0000a	64 a1 00 00 00
	00		 mov	 eax, DWORD PTR fs:0
  00010	50		 push	 eax
  00011	83 ec 0c	 sub	 esp, 12			; 0000000cH
  00014	53		 push	 ebx
  00015	56		 push	 esi
  00016	57		 push	 edi
  00017	a1 00 00 00 00	 mov	 eax, DWORD PTR ___security_cookie
  0001c	33 c5		 xor	 eax, ebp
  0001e	50		 push	 eax
  0001f	8d 45 f4	 lea	 eax, DWORD PTR __$EHRec$[ebp]
  00022	64 a3 00 00 00
	00		 mov	 DWORD PTR fs:0, eax

; 1497 :     _Uninitialized_backout_al(pointer _Dest, _Alloc& _Al_) : _First(_Dest), _Last(_Dest), _Al(_Al_) {}

  00028	8b 75 08	 mov	 esi, DWORD PTR __First$[ebp]
  0002b	8b 5d 10	 mov	 ebx, DWORD PTR __Al$[ebp]
  0002e	89 75 e8	 mov	 DWORD PTR __Backout$2[ebp], esi
  00031	89 75 ec	 mov	 DWORD PTR __Backout$2[ebp+4], esi
  00034	89 5d f0	 mov	 DWORD PTR __Backout$2[ebp+8], ebx

; 1825 :     // value-initialize _Count objects to raw _First, using _Al
; 1826 :     using _Ptrty = typename _Alloc::value_type*;
; 1827 :     if constexpr (_Use_memset_value_construct_v<_Ptrty> && _Uses_default_construct<_Alloc, _Ptrty>::value) {
; 1828 :         auto _PFirst = _Unfancy(_First);
; 1829 :         _Zero_range(_PFirst, _PFirst + _Count);
; 1830 :         return _First + _Count;
; 1831 :     } else {
; 1832 :         _Uninitialized_backout_al<_Alloc> _Backout{_First, _Al};
; 1833 :         for (; 0 < _Count; --_Count) {

  00037	8b 7d 0c	 mov	 edi, DWORD PTR __Count$[ebp]
  0003a	c7 45 fc 00 00
	00 00		 mov	 DWORD PTR __$EHRec$[ebp+8], 0
  00041	85 ff		 test	 edi, edi
  00043	74 5d		 je	 SHORT $LN3@Uninitiali
$LL4@Uninitiali:

; 694  :         ::new (const_cast<void*>(static_cast<const volatile void*>(_Ptr))) _Objty(_STD forward<_Types>(_Args)...);

  00045	89 75 08	 mov	 DWORD PTR $T3[ebp], esi
; File C:\Program Files (x86)\Microsoft Visual Studio\2019\Community\VC\Tools\MSVC\14.27.29110\include\xstring

; 4293 :         _Mypair._Myval2._Mysize = 0;

  00048	c7 46 10 00 00
	00 00		 mov	 DWORD PTR [esi+16], 0

; 4294 :         _Mypair._Myval2._Myres  = _BUF_SIZE - 1;

  0004f	c7 46 14 0f 00
	00 00		 mov	 DWORD PTR [esi+20], 15	; 0000000fH

; 4295 :         // the _Traits::assign is last so the codegen doesn't think the char write can alias this
; 4296 :         _Traits::assign(_Mypair._Myval2._Bx._Buf[0], _Elem());

  00056	c6 06 00	 mov	 BYTE PTR [esi], 0
; File C:\DS Project\DS Files\Source\ClientSource\Client\PRTerrainLib\TextureSet.h

; 16   : 	{

  00059	8d 4e 1c	 lea	 ecx, DWORD PTR [esi+28]
  0005c	c6 45 fc 01	 mov	 BYTE PTR __$EHRec$[ebp+8], 1
  00060	c7 46 18 00 00
	00 00		 mov	 DWORD PTR [esi+24], 0
  00067	e8 00 00 00 00	 call	 ??0CGraphicImageInstance@@QAE@XZ ; CGraphicImageInstance::CGraphicImageInstance
  0006c	33 c0		 xor	 eax, eax
  0006e	c7 46 3c 00 00
	80 40		 mov	 DWORD PTR [esi+60], 1082130432 ; 40800000H
  00075	c7 46 40 00 00
	80 40		 mov	 DWORD PTR [esi+64], 1082130432 ; 40800000H
  0007c	c7 46 44 00 00
	00 00		 mov	 DWORD PTR [esi+68], 0
  00083	c7 46 48 00 00
	00 00		 mov	 DWORD PTR [esi+72], 0
  0008a	c6 46 4c 01	 mov	 BYTE PTR [esi+76], 1
  0008e	89 46 4e	 mov	 DWORD PTR [esi+78], eax
; File C:\Program Files (x86)\Microsoft Visual Studio\2019\Community\VC\Tools\MSVC\14.27.29110\include\xmemory

; 1509 :         ++_Last;

  00091	81 c6 94 00 00
	00		 add	 esi, 148		; 00000094H
; File C:\DS Project\DS Files\Source\ClientSource\Client\PRTerrainLib\TextureSet.h

; 17   : 	}

  00097	88 45 fc	 mov	 BYTE PTR __$EHRec$[ebp+8], al
; File C:\Program Files (x86)\Microsoft Visual Studio\2019\Community\VC\Tools\MSVC\14.27.29110\include\xmemory

; 1509 :         ++_Last;

  0009a	89 75 ec	 mov	 DWORD PTR __Backout$2[ebp+4], esi

; 1825 :     // value-initialize _Count objects to raw _First, using _Al
; 1826 :     using _Ptrty = typename _Alloc::value_type*;
; 1827 :     if constexpr (_Use_memset_value_construct_v<_Ptrty> && _Uses_default_construct<_Alloc, _Ptrty>::value) {
; 1828 :         auto _PFirst = _Unfancy(_First);
; 1829 :         _Zero_range(_PFirst, _PFirst + _Count);
; 1830 :         return _First + _Count;
; 1831 :     } else {
; 1832 :         _Uninitialized_backout_al<_Alloc> _Backout{_First, _Al};
; 1833 :         for (; 0 < _Count; --_Count) {

  0009d	83 ef 01	 sub	 edi, 1
  000a0	75 a3		 jne	 SHORT $LL4@Uninitiali
$LN3@Uninitiali:

; 1503 :         _Destroy_range(_First, _Last, _Al);

  000a2	53		 push	 ebx
  000a3	56		 push	 esi
  000a4	56		 push	 esi
  000a5	e8 00 00 00 00	 call	 ??$_Destroy_range@V?$allocator@USTerrainTexture@@@std@@@std@@YAXPAUSTerrainTexture@@QAU1@AAV?$allocator@USTerrainTexture@@@0@@Z ; std::_Destroy_range<std::allocator<STerrainTexture> >
  000aa	83 c4 0c	 add	 esp, 12			; 0000000cH

; 1834 :             _Backout._Emplace_back();
; 1835 :         }
; 1836 : 
; 1837 :         return _Backout._Release();

  000ad	8b c6		 mov	 eax, esi

; 1838 :     }
; 1839 : }

  000af	8b 4d f4	 mov	 ecx, DWORD PTR __$EHRec$[ebp]
  000b2	64 89 0d 00 00
	00 00		 mov	 DWORD PTR fs:0, ecx
  000b9	59		 pop	 ecx
  000ba	5f		 pop	 edi
  000bb	5e		 pop	 esi
  000bc	5b		 pop	 ebx
  000bd	8b e5		 mov	 esp, ebp
  000bf	5d		 pop	 ebp
  000c0	c3		 ret	 0
_TEXT	ENDS
;	COMDAT text$x
text$x	SEGMENT
__unwindfunclet$??$_Uninitialized_value_construct_n@V?$allocator@USTerrainTexture@@@std@@@std@@YAPAUSTerrainTexture@@PAU1@IAAV?$allocator@USTerrainTexture@@@0@@Z$0:
  00000	8d 4d e8	 lea	 ecx, DWORD PTR __Backout$2[ebp]
  00003	e9 00 00 00 00	 jmp	 ??1?$_Uninitialized_backout_al@V?$allocator@USTerrainTexture@@@std@@@std@@QAE@XZ ; std::_Uninitialized_backout_al<std::allocator<STerrainTexture> >::~_Uninitialized_backout_al<std::allocator<STerrainTexture> >
__unwindfunclet$??$_Uninitialized_value_construct_n@V?$allocator@USTerrainTexture@@@std@@@std@@YAPAUSTerrainTexture@@PAU1@IAAV?$allocator@USTerrainTexture@@@0@@Z$1:
  00008	8b 4d 08	 mov	 ecx, DWORD PTR $T3[ebp]
  0000b	e9 00 00 00 00	 jmp	 ??1?$basic_string@DU?$char_traits@D@std@@V?$allocator@D@2@@std@@QAE@XZ ; std::basic_string<char,std::char_traits<char>,std::allocator<char> >::~basic_string<char,std::char_traits<char>,std::allocator<char> >
  00010	cc		 int	 3
  00011	cc		 int	 3
  00012	cc		 int	 3
  00013	cc		 int	 3
  00014	cc		 int	 3
__ehhandler$??$_Uninitialized_value_construct_n@V?$allocator@USTerrainTexture@@@std@@@std@@YAPAUSTerrainTexture@@PAU1@IAAV?$allocator@USTerrainTexture@@@0@@Z:
  00015	90		 npad	 1
  00016	90		 npad	 1
  00017	8b 54 24 08	 mov	 edx, DWORD PTR [esp+8]
  0001b	8d 42 0c	 lea	 eax, DWORD PTR [edx+12]
  0001e	8b 4a e4	 mov	 ecx, DWORD PTR [edx-28]
  00021	33 c8		 xor	 ecx, eax
  00023	e8 00 00 00 00	 call	 @__security_check_cookie@4
  00028	b8 00 00 00 00	 mov	 eax, OFFSET __ehfuncinfo$??$_Uninitialized_value_construct_n@V?$allocator@USTerrainTexture@@@std@@@std@@YAPAUSTerrainTexture@@PAU1@IAAV?$allocator@USTerrainTexture@@@0@@Z
  0002d	e9 00 00 00 00	 jmp	 ___CxxFrameHandler3
text$x	ENDS
??$_Uninitialized_value_construct_n@V?$allocator@USTerrainTexture@@@std@@@std@@YAPAUSTerrainTexture@@PAU1@IAAV?$allocator@USTerrainTexture@@@0@@Z ENDP ; std::_Uninitialized_value_construct_n<std::allocator<STerrainTexture> >
; Function compile flags: /Ogtp
; File C:\Program Files (x86)\Microsoft Visual Studio\2019\Community\VC\Tools\MSVC\14.27.29110\include\xmemory
;	COMDAT ??$_Uninitialized_move@PAUSTerrainTexture@@V?$allocator@USTerrainTexture@@@std@@@std@@YAPAUSTerrainTexture@@QAU1@0PAU1@AAV?$allocator@USTerrainTexture@@@0@@Z
_TEXT	SEGMENT
__Backout$2 = -24					; size = 12
__$EHRec$ = -12						; size = 12
__First$ = 8						; size = 4
__Last$ = 12						; size = 4
__Dest$ = 16						; size = 4
__Al$ = 20						; size = 4
??$_Uninitialized_move@PAUSTerrainTexture@@V?$allocator@USTerrainTexture@@@std@@@std@@YAPAUSTerrainTexture@@QAU1@0PAU1@AAV?$allocator@USTerrainTexture@@@0@@Z PROC ; std::_Uninitialized_move<STerrainTexture *,std::allocator<STerrainTexture> >, COMDAT

; 1647 :     const _InIt _First, const _InIt _Last, _Alloc_ptr_t<_Alloc> _Dest, _Alloc& _Al) {

  00000	55		 push	 ebp
  00001	8b ec		 mov	 ebp, esp
  00003	6a ff		 push	 -1
  00005	68 00 00 00 00	 push	 __ehhandler$??$_Uninitialized_move@PAUSTerrainTexture@@V?$allocator@USTerrainTexture@@@std@@@std@@YAPAUSTerrainTexture@@QAU1@0PAU1@AAV?$allocator@USTerrainTexture@@@0@@Z
  0000a	64 a1 00 00 00
	00		 mov	 eax, DWORD PTR fs:0
  00010	50		 push	 eax
  00011	83 ec 0c	 sub	 esp, 12			; 0000000cH
  00014	53		 push	 ebx
  00015	56		 push	 esi
  00016	57		 push	 edi
  00017	a1 00 00 00 00	 mov	 eax, DWORD PTR ___security_cookie
  0001c	33 c5		 xor	 eax, ebp
  0001e	50		 push	 eax
  0001f	8d 45 f4	 lea	 eax, DWORD PTR __$EHRec$[ebp]
  00022	64 a3 00 00 00
	00		 mov	 DWORD PTR fs:0, eax

; 1497 :     _Uninitialized_backout_al(pointer _Dest, _Alloc& _Al_) : _First(_Dest), _Last(_Dest), _Al(_Al_) {}

  00028	8b 7d 10	 mov	 edi, DWORD PTR __Dest$[ebp]
  0002b	8b 45 14	 mov	 eax, DWORD PTR __Al$[ebp]

; 1648 :     // move [_First, _Last) to raw _Dest, using _Al
; 1649 :     // note: only called internally from elsewhere in the STL
; 1650 :     using _Ptrval     = typename _Alloc::value_type*;
; 1651 :     auto _UFirst      = _Get_unwrapped(_First);

  0002e	8b 75 08	 mov	 esi, DWORD PTR __First$[ebp]

; 1497 :     _Uninitialized_backout_al(pointer _Dest, _Alloc& _Al_) : _First(_Dest), _Last(_Dest), _Al(_Al_) {}

  00031	89 7d e8	 mov	 DWORD PTR __Backout$2[ebp], edi
  00034	89 7d ec	 mov	 DWORD PTR __Backout$2[ebp+4], edi
  00037	89 45 f0	 mov	 DWORD PTR __Backout$2[ebp+8], eax

; 1652 :     const auto _ULast = _Get_unwrapped(_Last);
; 1653 :     if constexpr (conjunction_v<bool_constant<_Ptr_move_cat<decltype(_UFirst), _Ptrval>::_Really_trivial>,
; 1654 :                       _Uses_default_construct<_Alloc, _Ptrval, decltype(_STD move(*_UFirst))>>) {
; 1655 :         _Copy_memmove(_UFirst, _ULast, _Unfancy(_Dest));
; 1656 :         return _Dest + (_ULast - _UFirst);
; 1657 :     } else {
; 1658 :         _Uninitialized_backout_al<_Alloc> _Backout{_Dest, _Al};
; 1659 :         for (; _UFirst != _ULast; ++_UFirst) {

  0003a	8b 5d 0c	 mov	 ebx, DWORD PTR __Last$[ebp]
  0003d	c7 45 fc 00 00
	00 00		 mov	 DWORD PTR __$EHRec$[ebp+8], 0
  00044	3b f3		 cmp	 esi, ebx
  00046	74 1e		 je	 SHORT $LN3@Uninitiali
$LL4@Uninitiali:

; 694  :         ::new (const_cast<void*>(static_cast<const volatile void*>(_Ptr))) _Objty(_STD forward<_Types>(_Args)...);

  00048	56		 push	 esi
  00049	8b cf		 mov	 ecx, edi
  0004b	e8 00 00 00 00	 call	 ??0STerrainTexture@@QAE@ABU0@@Z

; 1509 :         ++_Last;

  00050	81 c7 94 00 00
	00		 add	 edi, 148		; 00000094H

; 1652 :     const auto _ULast = _Get_unwrapped(_Last);
; 1653 :     if constexpr (conjunction_v<bool_constant<_Ptr_move_cat<decltype(_UFirst), _Ptrval>::_Really_trivial>,
; 1654 :                       _Uses_default_construct<_Alloc, _Ptrval, decltype(_STD move(*_UFirst))>>) {
; 1655 :         _Copy_memmove(_UFirst, _ULast, _Unfancy(_Dest));
; 1656 :         return _Dest + (_ULast - _UFirst);
; 1657 :     } else {
; 1658 :         _Uninitialized_backout_al<_Alloc> _Backout{_Dest, _Al};
; 1659 :         for (; _UFirst != _ULast; ++_UFirst) {

  00056	81 c6 94 00 00
	00		 add	 esi, 148		; 00000094H

; 1509 :         ++_Last;

  0005c	89 7d ec	 mov	 DWORD PTR __Backout$2[ebp+4], edi

; 1652 :     const auto _ULast = _Get_unwrapped(_Last);
; 1653 :     if constexpr (conjunction_v<bool_constant<_Ptr_move_cat<decltype(_UFirst), _Ptrval>::_Really_trivial>,
; 1654 :                       _Uses_default_construct<_Alloc, _Ptrval, decltype(_STD move(*_UFirst))>>) {
; 1655 :         _Copy_memmove(_UFirst, _ULast, _Unfancy(_Dest));
; 1656 :         return _Dest + (_ULast - _UFirst);
; 1657 :     } else {
; 1658 :         _Uninitialized_backout_al<_Alloc> _Backout{_Dest, _Al};
; 1659 :         for (; _UFirst != _ULast; ++_UFirst) {

  0005f	3b f3		 cmp	 esi, ebx
  00061	75 e5		 jne	 SHORT $LL4@Uninitiali
  00063	8b 45 14	 mov	 eax, DWORD PTR __Al$[ebp]
$LN3@Uninitiali:

; 1503 :         _Destroy_range(_First, _Last, _Al);

  00066	50		 push	 eax
  00067	57		 push	 edi
  00068	57		 push	 edi
  00069	e8 00 00 00 00	 call	 ??$_Destroy_range@V?$allocator@USTerrainTexture@@@std@@@std@@YAXPAUSTerrainTexture@@QAU1@AAV?$allocator@USTerrainTexture@@@0@@Z ; std::_Destroy_range<std::allocator<STerrainTexture> >
  0006e	83 c4 0c	 add	 esp, 12			; 0000000cH

; 1660 :             _Backout._Emplace_back(_STD move(*_UFirst));
; 1661 :         }
; 1662 : 
; 1663 :         return _Backout._Release();

  00071	8b c7		 mov	 eax, edi

; 1664 :     }
; 1665 : }

  00073	8b 4d f4	 mov	 ecx, DWORD PTR __$EHRec$[ebp]
  00076	64 89 0d 00 00
	00 00		 mov	 DWORD PTR fs:0, ecx
  0007d	59		 pop	 ecx
  0007e	5f		 pop	 edi
  0007f	5e		 pop	 esi
  00080	5b		 pop	 ebx
  00081	8b e5		 mov	 esp, ebp
  00083	5d		 pop	 ebp
  00084	c3		 ret	 0
_TEXT	ENDS
;	COMDAT text$x
text$x	SEGMENT
__unwindfunclet$??$_Uninitialized_move@PAUSTerrainTexture@@V?$allocator@USTerrainTexture@@@std@@@std@@YAPAUSTerrainTexture@@QAU1@0PAU1@AAV?$allocator@USTerrainTexture@@@0@@Z$0:
  00000	8d 4d e8	 lea	 ecx, DWORD PTR __Backout$2[ebp]
  00003	e9 00 00 00 00	 jmp	 ??1?$_Uninitialized_backout_al@V?$allocator@USTerrainTexture@@@std@@@std@@QAE@XZ ; std::_Uninitialized_backout_al<std::allocator<STerrainTexture> >::~_Uninitialized_backout_al<std::allocator<STerrainTexture> >
  00008	cc		 int	 3
  00009	cc		 int	 3
  0000a	cc		 int	 3
  0000b	cc		 int	 3
  0000c	cc		 int	 3
__ehhandler$??$_Uninitialized_move@PAUSTerrainTexture@@V?$allocator@USTerrainTexture@@@std@@@std@@YAPAUSTerrainTexture@@QAU1@0PAU1@AAV?$allocator@USTerrainTexture@@@0@@Z:
  0000d	90		 npad	 1
  0000e	90		 npad	 1
  0000f	8b 54 24 08	 mov	 edx, DWORD PTR [esp+8]
  00013	8d 42 0c	 lea	 eax, DWORD PTR [edx+12]
  00016	8b 4a e4	 mov	 ecx, DWORD PTR [edx-28]
  00019	33 c8		 xor	 ecx, eax
  0001b	e8 00 00 00 00	 call	 @__security_check_cookie@4
  00020	b8 00 00 00 00	 mov	 eax, OFFSET __ehfuncinfo$??$_Uninitialized_move@PAUSTerrainTexture@@V?$allocator@USTerrainTexture@@@std@@@std@@YAPAUSTerrainTexture@@QAU1@0PAU1@AAV?$allocator@USTerrainTexture@@@0@@Z
  00025	e9 00 00 00 00	 jmp	 ___CxxFrameHandler3
text$x	ENDS
??$_Uninitialized_move@PAUSTerrainTexture@@V?$allocator@USTerrainTexture@@@std@@@std@@YAPAUSTerrainTexture@@QAU1@0PAU1@AAV?$allocator@USTerrainTexture@@@0@@Z ENDP ; std::_Uninitialized_move<STerrainTexture *,std::allocator<STerrainTexture> >
; Function compile flags: /Ogtp
; File C:\Program Files (x86)\Microsoft Visual Studio\2019\Community\VC\Tools\MSVC\14.27.29110\include\xmemory
;	COMDAT ??$_Destroy_in_place@PAU?$_Tree_node@U?$pair@$$CBV?$basic_string@DU?$char_traits@D@std@@V?$allocator@D@2@@std@@V?$vector@V?$basic_string@DU?$char_traits@D@std@@V?$allocator@D@2@@std@@V?$allocator@V?$basic_string@DU?$char_traits@D@std@@V?$allocator@D@2@@std@@@2@@2@@std@@PAX@std@@@std@@YAXAAPAU?$_Tree_node@U?$pair@$$CBV?$basic_string@DU?$char_traits@D@std@@V?$allocator@D@2@@std@@V?$vector@V?$basic_string@DU?$char_traits@D@std@@V?$allocator@D@2@@std@@V?$allocator@V?$basic_string@DU?$char_traits@D@std@@V?$allocator@D@2@@std@@@2@@2@@std@@PAX@0@@Z
_TEXT	SEGMENT
__Obj$ = 8						; size = 4
??$_Destroy_in_place@PAU?$_Tree_node@U?$pair@$$CBV?$basic_string@DU?$char_traits@D@std@@V?$allocator@D@2@@std@@V?$vector@V?$basic_string@DU?$char_traits@D@std@@V?$allocator@D@2@@std@@V?$allocator@V?$basic_string@DU?$char_traits@D@std@@V?$allocator@D@2@@std@@@2@@2@@std@@PAX@std@@@std@@YAXAAPAU?$_Tree_node@U?$pair@$$CBV?$basic_string@DU?$char_traits@D@std@@V?$allocator@D@2@@std@@V?$vector@V?$basic_string@DU?$char_traits@D@std@@V?$allocator@D@2@@std@@V?$allocator@V?$basic_string@DU?$char_traits@D@std@@V?$allocator@D@2@@std@@@2@@2@@std@@PAX@0@@Z PROC ; std::_Destroy_in_place<std::_Tree_node<std::pair<std::basic_string<char,std::char_traits<char>,std::allocator<char> > const ,std::vector<std::basic_string<char,std::char_traits<char>,std::allocator<char> >,std::allocator<std::basic_string<char,std::char_traits<char>,std::allocator<char> > > > >,void *> *>, COMDAT

; 268  :     _Obj.~_Ty();
; 269  : }

  00000	c2 00 00	 ret	 0
??$_Destroy_in_place@PAU?$_Tree_node@U?$pair@$$CBV?$basic_string@DU?$char_traits@D@std@@V?$allocator@D@2@@std@@V?$vector@V?$basic_string@DU?$char_traits@D@std@@V?$allocator@D@2@@std@@V?$allocator@V?$basic_string@DU?$char_traits@D@std@@V?$allocator@D@2@@std@@@2@@2@@std@@PAX@std@@@std@@YAXAAPAU?$_Tree_node@U?$pair@$$CBV?$basic_string@DU?$char_traits@D@std@@V?$allocator@D@2@@std@@V?$vector@V?$basic_string@DU?$char_traits@D@std@@V?$allocator@D@2@@std@@V?$allocator@V?$basic_string@DU?$char_traits@D@std@@V?$allocator@D@2@@std@@@2@@2@@std@@PAX@0@@Z ENDP ; std::_Destroy_in_place<std::_Tree_node<std::pair<std::basic_string<char,std::char_traits<char>,std::allocator<char> > const ,std::vector<std::basic_string<char,std::char_traits<char>,std::allocator<char> >,std::allocator<std::basic_string<char,std::char_traits<char>,std::allocator<char> > > > >,void *> *>
_TEXT	ENDS
; Function compile flags: /Ogtp
; File C:\Program Files (x86)\Microsoft Visual Studio\2019\Community\VC\Tools\MSVC\14.27.29110\include\xmemory
;	COMDAT ??1?$_Uninitialized_backout_al@V?$allocator@USTerrainTexture@@@std@@@std@@QAE@XZ
_TEXT	SEGMENT
??1?$_Uninitialized_backout_al@V?$allocator@USTerrainTexture@@@std@@@std@@QAE@XZ PROC ; std::_Uninitialized_backout_al<std::allocator<STerrainTexture> >::~_Uninitialized_backout_al<std::allocator<STerrainTexture> >, COMDAT
; _this$ = ecx

; 1503 :         _Destroy_range(_First, _Last, _Al);

  00000	ff 71 08	 push	 DWORD PTR [ecx+8]
  00003	ff 71 04	 push	 DWORD PTR [ecx+4]
  00006	ff 31		 push	 DWORD PTR [ecx]
  00008	e8 00 00 00 00	 call	 ??$_Destroy_range@V?$allocator@USTerrainTexture@@@std@@@std@@YAXPAUSTerrainTexture@@QAU1@AAV?$allocator@USTerrainTexture@@@0@@Z ; std::_Destroy_range<std::allocator<STerrainTexture> >
  0000d	83 c4 0c	 add	 esp, 12			; 0000000cH

; 1504 :     }

  00010	c3		 ret	 0
??1?$_Uninitialized_backout_al@V?$allocator@USTerrainTexture@@@std@@@std@@QAE@XZ ENDP ; std::_Uninitialized_backout_al<std::allocator<STerrainTexture> >::~_Uninitialized_backout_al<std::allocator<STerrainTexture> >
_TEXT	ENDS
; Function compile flags: /Ogtp
; File C:\Program Files (x86)\Microsoft Visual Studio\2019\Community\VC\Tools\MSVC\14.27.29110\include\xmemory
;	COMDAT ??$_Construct_in_place@PAU?$_Tree_node@U?$pair@$$CBV?$basic_string@DU?$char_traits@D@std@@V?$allocator@D@2@@std@@V?$vector@V?$basic_string@DU?$char_traits@D@std@@V?$allocator@D@2@@std@@V?$allocator@V?$basic_string@DU?$char_traits@D@std@@V?$allocator@D@2@@std@@@2@@2@@std@@PAX@std@@ABQAU12@@std@@YAXAAPAU?$_Tree_node@U?$pair@$$CBV?$basic_string@DU?$char_traits@D@std@@V?$allocator@D@2@@std@@V?$vector@V?$basic_string@DU?$char_traits@D@std@@V?$allocator@D@2@@std@@V?$allocator@V?$basic_string@DU?$char_traits@D@std@@V?$allocator@D@2@@std@@@2@@2@@std@@PAX@0@ABQAU10@@Z
_TEXT	SEGMENT
__Obj$ = 8						; size = 4
_<_Args_0>$ = 12					; size = 4
??$_Construct_in_place@PAU?$_Tree_node@U?$pair@$$CBV?$basic_string@DU?$char_traits@D@std@@V?$allocator@D@2@@std@@V?$vector@V?$basic_string@DU?$char_traits@D@std@@V?$allocator@D@2@@std@@V?$allocator@V?$basic_string@DU?$char_traits@D@std@@V?$allocator@D@2@@std@@@2@@2@@std@@PAX@std@@ABQAU12@@std@@YAXAAPAU?$_Tree_node@U?$pair@$$CBV?$basic_string@DU?$char_traits@D@std@@V?$allocator@D@2@@std@@V?$vector@V?$basic_string@DU?$char_traits@D@std@@V?$allocator@D@2@@std@@V?$allocator@V?$basic_string@DU?$char_traits@D@std@@V?$allocator@D@2@@std@@@2@@2@@std@@PAX@0@ABQAU10@@Z PROC ; std::_Construct_in_place<std::_Tree_node<std::pair<std::basic_string<char,std::char_traits<char>,std::allocator<char> > const ,std::vector<std::basic_string<char,std::char_traits<char>,std::allocator<char> >,std::allocator<std::basic_string<char,std::char_traits<char>,std::allocator<char> > > > >,void *> *,std::_Tree_node<std::pair<std::basic_string<char,std::char_traits<char>,std::allocator<char> > const ,std::vector<std::basic_string<char,std::char_traits<char>,std::allocator<char> >,std::allocator<std::basic_string<char,std::char_traits<char>,std::allocator<char> > > > >,void *> * const &>, COMDAT

; 228  : void _Construct_in_place(_Ty& _Obj, _Types&&... _Args) noexcept(is_nothrow_constructible_v<_Ty, _Types...>) {

  00000	55		 push	 ebp
  00001	8b ec		 mov	 ebp, esp

; 229  :     ::new (const_cast<void*>(static_cast<const volatile void*>(_STD addressof(_Obj))))

  00003	8b 45 0c	 mov	 eax, DWORD PTR _<_Args_0>$[ebp]
  00006	8b 08		 mov	 ecx, DWORD PTR [eax]
  00008	8b 45 08	 mov	 eax, DWORD PTR __Obj$[ebp]
  0000b	89 08		 mov	 DWORD PTR [eax], ecx

; 230  :         _Ty(_STD forward<_Types>(_Args)...);
; 231  : }

  0000d	5d		 pop	 ebp
  0000e	c3		 ret	 0
??$_Construct_in_place@PAU?$_Tree_node@U?$pair@$$CBV?$basic_string@DU?$char_traits@D@std@@V?$allocator@D@2@@std@@V?$vector@V?$basic_string@DU?$char_traits@D@std@@V?$allocator@D@2@@std@@V?$allocator@V?$basic_string@DU?$char_traits@D@std@@V?$allocator@D@2@@std@@@2@@2@@std@@PAX@std@@ABQAU12@@std@@YAXAAPAU?$_Tree_node@U?$pair@$$CBV?$basic_string@DU?$char_traits@D@std@@V?$allocator@D@2@@std@@V?$vector@V?$basic_string@DU?$char_traits@D@std@@V?$allocator@D@2@@std@@V?$allocator@V?$basic_string@DU?$char_traits@D@std@@V?$allocator@D@2@@std@@@2@@2@@std@@PAX@0@ABQAU10@@Z ENDP ; std::_Construct_in_place<std::_Tree_node<std::pair<std::basic_string<char,std::char_traits<char>,std::allocator<char> > const ,std::vector<std::basic_string<char,std::char_traits<char>,std::allocator<char> >,std::allocator<std::basic_string<char,std::char_traits<char>,std::allocator<char> > > > >,void *> *,std::_Tree_node<std::pair<std::basic_string<char,std::char_traits<char>,std::allocator<char> > const ,std::vector<std::basic_string<char,std::char_traits<char>,std::allocator<char> >,std::allocator<std::basic_string<char,std::char_traits<char>,std::allocator<char> > > > >,void *> * const &>
_TEXT	ENDS
; Function compile flags: /Ogtp
; File C:\Program Files (x86)\Microsoft Visual Studio\2019\Community\VC\Tools\MSVC\14.27.29110\include\vector
; File C:\Program Files (x86)\Microsoft Visual Studio\2019\Community\VC\Tools\MSVC\14.27.29110\include\xmemory
; File C:\Program Files (x86)\Microsoft Visual Studio\2019\Community\VC\Tools\MSVC\14.27.29110\include\vector
; File C:\Program Files (x86)\Microsoft Visual Studio\2019\Community\VC\Tools\MSVC\14.27.29110\include\xmemory
; File C:\Program Files (x86)\Microsoft Visual Studio\2019\Community\VC\Tools\MSVC\14.27.29110\include\vector
; File C:\Program Files (x86)\Microsoft Visual Studio\2019\Community\VC\Tools\MSVC\14.27.29110\include\xmemory
; File C:\Program Files (x86)\Microsoft Visual Studio\2019\Community\VC\Tools\MSVC\14.27.29110\include\vector
; File C:\Program Files (x86)\Microsoft Visual Studio\2019\Community\VC\Tools\MSVC\14.27.29110\include\xmemory
; File C:\Program Files (x86)\Microsoft Visual Studio\2019\Community\VC\Tools\MSVC\14.27.29110\include\vector
;	COMDAT ??$_Resize_reallocate@U_Value_init_tag@std@@@?$vector@USTerrainTexture@@V?$allocator@USTerrainTexture@@@std@@@std@@AAEXIABU_Value_init_tag@1@@Z
_TEXT	SEGMENT
_this$ = -32						; size = 4
__Appended_first$ = -28					; size = 4
__Oldsize$1$ = -24					; size = 4
__Appended_last$ = -24					; size = 4
__Newvec$ = -20						; size = 4
__$EHRec$ = -16						; size = 16
__Newcapacity$ = 8					; size = 4
__Newsize$ = 8						; size = 4
__Val$ = 12						; size = 4
??$_Resize_reallocate@U_Value_init_tag@std@@@?$vector@USTerrainTexture@@V?$allocator@USTerrainTexture@@@std@@@std@@AAEXIABU_Value_init_tag@1@@Z PROC ; std::vector<STerrainTexture,std::allocator<STerrainTexture> >::_Resize_reallocate<std::_Value_init_tag>, COMDAT
; _this$ = ecx

; 1182 :     void _Resize_reallocate(const size_type _Newsize, const _Ty2& _Val) {

  00000	55		 push	 ebp
  00001	8b ec		 mov	 ebp, esp
  00003	6a ff		 push	 -1
  00005	68 00 00 00 00	 push	 __ehhandler$??$_Resize_reallocate@U_Value_init_tag@std@@@?$vector@USTerrainTexture@@V?$allocator@USTerrainTexture@@@std@@@std@@AAEXIABU_Value_init_tag@1@@Z
  0000a	64 a1 00 00 00
	00		 mov	 eax, DWORD PTR fs:0
  00010	50		 push	 eax
  00011	83 ec 14	 sub	 esp, 20			; 00000014H
  00014	53		 push	 ebx
  00015	56		 push	 esi
  00016	57		 push	 edi
  00017	a1 00 00 00 00	 mov	 eax, DWORD PTR ___security_cookie
  0001c	33 c5		 xor	 eax, ebp
  0001e	50		 push	 eax
  0001f	8d 45 f4	 lea	 eax, DWORD PTR __$EHRec$[ebp+4]
  00022	64 a3 00 00 00
	00		 mov	 DWORD PTR fs:0, eax
  00028	89 65 f0	 mov	 DWORD PTR __$EHRec$[ebp], esp
  0002b	8b f9		 mov	 edi, ecx
  0002d	89 7d e0	 mov	 DWORD PTR _this$[ebp], edi

; 1183 :         if (_Newsize > max_size()) {

  00030	8b 5d 08	 mov	 ebx, DWORD PTR __Newsize$[ebp]
  00033	81 fb 91 cf ba
	01		 cmp	 ebx, 29020049		; 01bacf91H
  00039	0f 87 f1 00 00
	00		 ja	 $LN32@Resize_rea

; 1185 :         }
; 1186 : 
; 1187 :         auto& _My_data    = _Mypair._Myval2;
; 1188 :         pointer& _Myfirst = _My_data._Myfirst;
; 1189 :         pointer& _Mylast  = _My_data._Mylast;
; 1190 : 
; 1191 :         const auto _Oldsize          = static_cast<size_type>(_Mylast - _Myfirst);

  0003f	8b 4f 04	 mov	 ecx, DWORD PTR [edi+4]
  00042	b8 a7 c8 67 dd	 mov	 eax, -580400985		; dd67c8a7H
  00047	2b 0f		 sub	 ecx, DWORD PTR [edi]
  00049	f7 e9		 imul	 ecx
  0004b	03 d1		 add	 edx, ecx

; 1494 :         return static_cast<size_type>(_My_data._Myend - _My_data._Myfirst);

  0004d	8b 4f 08	 mov	 ecx, DWORD PTR [edi+8]
  00050	2b 0f		 sub	 ecx, DWORD PTR [edi]

; 1185 :         }
; 1186 : 
; 1187 :         auto& _My_data    = _Mypair._Myval2;
; 1188 :         pointer& _Myfirst = _My_data._Myfirst;
; 1189 :         pointer& _Mylast  = _My_data._Mylast;
; 1190 : 
; 1191 :         const auto _Oldsize          = static_cast<size_type>(_Mylast - _Myfirst);

  00052	c1 fa 07	 sar	 edx, 7
  00055	8b c2		 mov	 eax, edx
  00057	c1 e8 1f	 shr	 eax, 31			; 0000001fH
  0005a	03 c2		 add	 eax, edx
  0005c	89 45 e8	 mov	 DWORD PTR __Oldsize$1$[ebp], eax

; 1494 :         return static_cast<size_type>(_My_data._Myend - _My_data._Myfirst);

  0005f	b8 a7 c8 67 dd	 mov	 eax, -580400985		; dd67c8a7H
  00064	f7 e9		 imul	 ecx

; 1619 :         if (_Oldcapacity > max_size() - _Oldcapacity / 2) {

  00066	b8 91 cf ba 01	 mov	 eax, 29020049		; 01bacf91H

; 1494 :         return static_cast<size_type>(_My_data._Myend - _My_data._Myfirst);

  0006b	03 d1		 add	 edx, ecx
  0006d	c1 fa 07	 sar	 edx, 7
  00070	8b ca		 mov	 ecx, edx
  00072	c1 e9 1f	 shr	 ecx, 31			; 0000001fH
  00075	03 ca		 add	 ecx, edx

; 1619 :         if (_Oldcapacity > max_size() - _Oldcapacity / 2) {

  00077	8b d1		 mov	 edx, ecx
  00079	d1 ea		 shr	 edx, 1
  0007b	2b c2		 sub	 eax, edx
  0007d	3b c8		 cmp	 ecx, eax
  0007f	76 6f		 jbe	 SHORT $LN10@Resize_rea
$LN30@Resize_rea:
; File C:\Program Files (x86)\Microsoft Visual Studio\2019\Community\VC\Tools\MSVC\14.27.29110\include\xmemory

; 65   :     return _Count * _Ty_size;

  00081	8b f3		 mov	 esi, ebx
  00083	89 75 08	 mov	 DWORD PTR __Newcapacity$[ebp], esi
$LN18@Resize_rea:
  00086	69 c6 94 00 00
	00		 imul	 eax, esi, 148

; 807  :         return static_cast<_Ty*>(_Allocate<_New_alignof<_Ty>>(_Get_size_of_n<sizeof(_Ty)>(_Count)));

  0008c	50		 push	 eax
  0008d	e8 00 00 00 00	 call	 ??$_Allocate@$07U_Default_allocate_traits@std@@$0A@@std@@YAPAXI@Z ; std::_Allocate<8,std::_Default_allocate_traits,0>
; File C:\Program Files (x86)\Microsoft Visual Studio\2019\Community\VC\Tools\MSVC\14.27.29110\include\vector

; 1195 :         const pointer _Appended_first = _Newvec + _Oldsize;

  00092	8b 55 e8	 mov	 edx, DWORD PTR __Oldsize$1$[ebp]
  00095	69 ca 94 00 00
	00		 imul	 ecx, edx, 148
; File C:\Program Files (x86)\Microsoft Visual Studio\2019\Community\VC\Tools\MSVC\14.27.29110\include\xmemory

; 807  :         return static_cast<_Ty*>(_Allocate<_New_alignof<_Ty>>(_Get_size_of_n<sizeof(_Ty)>(_Count)));

  0009b	89 45 ec	 mov	 DWORD PTR __Newvec$[ebp], eax
; File C:\Program Files (x86)\Microsoft Visual Studio\2019\Community\VC\Tools\MSVC\14.27.29110\include\vector

; 1583 :         return _Uninitialized_value_construct_n(_Dest, _Count, _Getal());

  0009e	57		 push	 edi

; 1197 : 
; 1198 :         _TRY_BEGIN

  0009f	c7 45 fc 00 00
	00 00		 mov	 DWORD PTR __$EHRec$[ebp+12], 0
  000a6	03 c8		 add	 ecx, eax

; 1199 :         _Appended_last = _Ufill(_Appended_first, _Newsize - _Oldsize, _Val);

  000a8	8b c3		 mov	 eax, ebx
  000aa	2b c2		 sub	 eax, edx
  000ac	89 4d e4	 mov	 DWORD PTR __Appended_first$[ebp], ecx

; 1583 :         return _Uninitialized_value_construct_n(_Dest, _Count, _Getal());

  000af	50		 push	 eax
  000b0	51		 push	 ecx

; 1196 :         pointer _Appended_last        = _Appended_first;

  000b1	89 4d e8	 mov	 DWORD PTR __Appended_last$[ebp], ecx

; 1583 :         return _Uninitialized_value_construct_n(_Dest, _Count, _Getal());

  000b4	e8 00 00 00 00	 call	 ??$_Uninitialized_value_construct_n@V?$allocator@USTerrainTexture@@@std@@@std@@YAPAUSTerrainTexture@@PAU1@IAAV?$allocator@USTerrainTexture@@@0@@Z ; std::_Uninitialized_value_construct_n<std::allocator<STerrainTexture> >
  000b9	83 c4 10	 add	 esp, 16			; 00000010H

; 1199 :         _Appended_last = _Ufill(_Appended_first, _Newsize - _Oldsize, _Val);

  000bc	89 45 e8	 mov	 DWORD PTR __Appended_last$[ebp], eax

; 1602 :         _Uninitialized_copy(_First, _Last, _Dest, _Getal());

  000bf	57		 push	 edi
  000c0	ff 75 ec	 push	 DWORD PTR __Newvec$[ebp]
  000c3	ff 77 04	 push	 DWORD PTR [edi+4]
  000c6	ff 37		 push	 DWORD PTR [edi]
  000c8	e8 00 00 00 00	 call	 ??$_Uninitialized_copy@PAUSTerrainTexture@@V?$allocator@USTerrainTexture@@@std@@@std@@YAPAUSTerrainTexture@@QAU1@0PAU1@AAV?$allocator@USTerrainTexture@@@0@@Z ; std::_Uninitialized_copy<STerrainTexture *,std::allocator<STerrainTexture> >
  000cd	83 c4 10	 add	 esp, 16			; 00000010H

; 1205 :         _CATCH_END
; 1206 : 
; 1207 :         _Change_array(_Newvec, _Newsize, _Newcapacity);

  000d0	8b cf		 mov	 ecx, edi
  000d2	56		 push	 esi
  000d3	53		 push	 ebx
  000d4	ff 75 ec	 push	 DWORD PTR __Newvec$[ebp]
  000d7	e8 00 00 00 00	 call	 ?_Change_array@?$vector@USTerrainTexture@@V?$allocator@USTerrainTexture@@@std@@@std@@AAEXQAUSTerrainTexture@@II@Z ; std::vector<STerrainTexture,std::allocator<STerrainTexture> >::_Change_array

; 1208 :     }

  000dc	8b 4d f4	 mov	 ecx, DWORD PTR __$EHRec$[ebp+4]
  000df	64 89 0d 00 00
	00 00		 mov	 DWORD PTR fs:0, ecx
  000e6	59		 pop	 ecx
  000e7	5f		 pop	 edi
  000e8	5e		 pop	 esi
  000e9	5b		 pop	 ebx
  000ea	8b e5		 mov	 esp, ebp
  000ec	5d		 pop	 ebp
  000ed	c2 08 00	 ret	 8
$LN10@Resize_rea:

; 1623 :         const size_type _Geometric = _Oldcapacity + _Oldcapacity / 2;

  000f0	8d 34 0a	 lea	 esi, DWORD PTR [edx+ecx]

; 1624 : 
; 1625 :         if (_Geometric < _Newsize) {

  000f3	3b f3		 cmp	 esi, ebx
  000f5	72 8a		 jb	 SHORT $LN30@Resize_rea

; 1626 :             return _Newsize; // geometric growth would be insufficient
; 1627 :         }
; 1628 : 
; 1629 :         return _Geometric; // geometric growth is sufficient

  000f7	89 75 08	 mov	 DWORD PTR __Newcapacity$[ebp], esi
; File C:\Program Files (x86)\Microsoft Visual Studio\2019\Community\VC\Tools\MSVC\14.27.29110\include\xmemory

; 60   :         if (_Count > _Max_possible) {

  000fa	81 fe 91 cf ba
	01		 cmp	 esi, 29020049		; 01bacf91H
  00100	77 33		 ja	 SHORT $LN33@Resize_rea
  00102	eb 82		 jmp	 SHORT $LN18@Resize_rea
__catch$??$_Resize_reallocate@U_Value_init_tag@std@@@?$vector@USTerrainTexture@@V?$allocator@USTerrainTexture@@@std@@@std@@AAEXIABU_Value_init_tag@1@@Z$0:
; File C:\Program Files (x86)\Microsoft Visual Studio\2019\Community\VC\Tools\MSVC\14.27.29110\include\vector

; 1202 :         _Destroy(_Appended_first, _Appended_last);

  00104	ff 75 e8	 push	 DWORD PTR __Appended_last$[ebp]
  00107	8b 4d e0	 mov	 ecx, DWORD PTR _this$[ebp]
  0010a	ff 75 e4	 push	 DWORD PTR __Appended_first$[ebp]
  0010d	e8 00 00 00 00	 call	 ?_Destroy@?$vector@USTerrainTexture@@V?$allocator@USTerrainTexture@@@std@@@std@@AAEXPAUSTerrainTexture@@0@Z ; std::vector<STerrainTexture,std::allocator<STerrainTexture> >::_Destroy

; 1203 :         _Getal().deallocate(_Newvec, _Newcapacity);

  00112	ff 75 08	 push	 DWORD PTR __Newcapacity$[ebp]
  00115	8b 4d e0	 mov	 ecx, DWORD PTR _this$[ebp]
  00118	ff 75 ec	 push	 DWORD PTR __Newvec$[ebp]
  0011b	e8 00 00 00 00	 call	 ?_Getal@?$vector@USTerrainTexture@@V?$allocator@USTerrainTexture@@@std@@@std@@AAEAAV?$allocator@USTerrainTexture@@@2@XZ ; std::vector<STerrainTexture,std::allocator<STerrainTexture> >::_Getal
  00120	8b c8		 mov	 ecx, eax
  00122	e8 00 00 00 00	 call	 ?deallocate@?$allocator@USTerrainTexture@@@std@@QAEXQAUSTerrainTexture@@I@Z ; std::allocator<STerrainTexture>::deallocate

; 1204 :         _RERAISE;

  00127	6a 00		 push	 0
  00129	6a 00		 push	 0
  0012b	e8 00 00 00 00	 call	 __CxxThrowException@8
$LN32@Resize_rea:

; 1184 :             _Xlength();

  00130	e8 00 00 00 00	 call	 ?_Xlength@?$vector@USTerrainTexture@@V?$allocator@USTerrainTexture@@@std@@@std@@CAXXZ ; std::vector<STerrainTexture,std::allocator<STerrainTexture> >::_Xlength
$LN33@Resize_rea:
; File C:\Program Files (x86)\Microsoft Visual Studio\2019\Community\VC\Tools\MSVC\14.27.29110\include\xmemory

; 61   :             _Throw_bad_array_new_length(); // multiply overflow

  00135	e8 00 00 00 00	 call	 ?_Throw_bad_array_new_length@std@@YAXXZ ; std::_Throw_bad_array_new_length
$LN29@Resize_rea:
  0013a	cc		 int	 3
  0013b	cc		 int	 3
  0013c	cc		 int	 3
  0013d	cc		 int	 3
  0013e	cc		 int	 3
  0013f	cc		 int	 3
_TEXT	ENDS
;	COMDAT text$x
text$x	SEGMENT
__ehhandler$??$_Resize_reallocate@U_Value_init_tag@std@@@?$vector@USTerrainTexture@@V?$allocator@USTerrainTexture@@@std@@@std@@AAEXIABU_Value_init_tag@1@@Z:
  00000	90		 npad	 1
  00001	90		 npad	 1
  00002	8b 54 24 08	 mov	 edx, DWORD PTR [esp+8]
  00006	8d 42 0c	 lea	 eax, DWORD PTR [edx+12]
  00009	8b 4a dc	 mov	 ecx, DWORD PTR [edx-36]
  0000c	33 c8		 xor	 ecx, eax
  0000e	e8 00 00 00 00	 call	 @__security_check_cookie@4
  00013	b8 00 00 00 00	 mov	 eax, OFFSET __ehfuncinfo$??$_Resize_reallocate@U_Value_init_tag@std@@@?$vector@USTerrainTexture@@V?$allocator@USTerrainTexture@@@std@@@std@@AAEXIABU_Value_init_tag@1@@Z
  00018	e9 00 00 00 00	 jmp	 ___CxxFrameHandler3
text$x	ENDS
??$_Resize_reallocate@U_Value_init_tag@std@@@?$vector@USTerrainTexture@@V?$allocator@USTerrainTexture@@@std@@@std@@AAEXIABU_Value_init_tag@1@@Z ENDP ; std::vector<STerrainTexture,std::allocator<STerrainTexture> >::_Resize_reallocate<std::_Value_init_tag>
; Function compile flags: /Ogtp
; File C:\Program Files (x86)\Microsoft Visual Studio\2019\Community\VC\Tools\MSVC\14.27.29110\include\xtree
; File C:\Program Files (x86)\Microsoft Visual Studio\2019\Community\VC\Tools\MSVC\14.27.29110\include\utility
; File C:\Program Files (x86)\Microsoft Visual Studio\2019\Community\VC\Tools\MSVC\14.27.29110\include\xtree
; File C:\Program Files (x86)\Microsoft Visual Studio\2019\Community\VC\Tools\MSVC\14.27.29110\include\xmemory
; File C:\Program Files (x86)\Microsoft Visual Studio\2019\Community\VC\Tools\MSVC\14.27.29110\include\xtree
; File C:\Program Files (x86)\Microsoft Visual Studio\2019\Community\VC\Tools\MSVC\14.27.29110\include\xmemory
; File C:\Program Files (x86)\Microsoft Visual Studio\2019\Community\VC\Tools\MSVC\14.27.29110\include\xtree
;	COMDAT ??$_Erase_tree@V?$allocator@U?$_Tree_node@U?$pair@$$CBV?$basic_string@DU?$char_traits@D@std@@V?$allocator@D@2@@std@@V?$vector@V?$basic_string@DU?$char_traits@D@std@@V?$allocator@D@2@@std@@V?$allocator@V?$basic_string@DU?$char_traits@D@std@@V?$allocator@D@2@@std@@@2@@2@@std@@PAX@std@@@std@@@?$_Tree_val@U?$_Tree_simple_types@U?$pair@$$CBV?$basic_string@DU?$char_traits@D@std@@V?$allocator@D@2@@std@@V?$vector@V?$basic_string@DU?$char_traits@D@std@@V?$allocator@D@2@@std@@V?$allocator@V?$basic_string@DU?$char_traits@D@std@@V?$allocator@D@2@@std@@@2@@2@@std@@@std@@@std@@QAEXAAV?$allocator@U?$_Tree_node@U?$pair@$$CBV?$basic_string@DU?$char_traits@D@std@@V?$allocator@D@2@@std@@V?$vector@V?$basic_string@DU?$char_traits@D@std@@V?$allocator@D@2@@std@@V?$allocator@V?$basic_string@DU?$char_traits@D@std@@V?$allocator@D@2@@std@@@2@@2@@std@@PAX@std@@@1@PAU?$_Tree_node@U?$pair@$$CBV?$basic_string@DU?$char_traits@D@std@@V?$allocator@D@2@@std@@V?$vector@V?$basic_string@DU?$char_traits@D@std@@V?$allocator@D@2@@std@@V?$allocator@V?$basic_string@DU?$char_traits@D@std@@V?$allocator@D@2@@std@@@2@@2@@std@@PAX@1@@Z
_TEXT	SEGMENT
_this$1$ = -4						; size = 4
__Al$ = 8						; size = 4
__Rootnode$ = 12					; size = 4
??$_Erase_tree@V?$allocator@U?$_Tree_node@U?$pair@$$CBV?$basic_string@DU?$char_traits@D@std@@V?$allocator@D@2@@std@@V?$vector@V?$basic_string@DU?$char_traits@D@std@@V?$allocator@D@2@@std@@V?$allocator@V?$basic_string@DU?$char_traits@D@std@@V?$allocator@D@2@@std@@@2@@2@@std@@PAX@std@@@std@@@?$_Tree_val@U?$_Tree_simple_types@U?$pair@$$CBV?$basic_string@DU?$char_traits@D@std@@V?$allocator@D@2@@std@@V?$vector@V?$basic_string@DU?$char_traits@D@std@@V?$allocator@D@2@@std@@V?$allocator@V?$basic_string@DU?$char_traits@D@std@@V?$allocator@D@2@@std@@@2@@2@@std@@@std@@@std@@QAEXAAV?$allocator@U?$_Tree_node@U?$pair@$$CBV?$basic_string@DU?$char_traits@D@std@@V?$allocator@D@2@@std@@V?$vector@V?$basic_string@DU?$char_traits@D@std@@V?$allocator@D@2@@std@@V?$allocator@V?$basic_string@DU?$char_traits@D@std@@V?$allocator@D@2@@std@@@2@@2@@std@@PAX@std@@@1@PAU?$_Tree_node@U?$pair@$$CBV?$basic_string@DU?$char_traits@D@std@@V?$allocator@D@2@@std@@V?$vector@V?$basic_string@DU?$char_traits@D@std@@V?$allocator@D@2@@std@@V?$allocator@V?$basic_string@DU?$char_traits@D@std@@V?$allocator@D@2@@std@@@2@@2@@std@@PAX@1@@Z PROC ; std::_Tree_val<std::_Tree_simple_types<std::pair<std::basic_string<char,std::char_traits<char>,std::allocator<char> > const ,std::vector<std::basic_string<char,std::char_traits<char>,std::allocator<char> >,std::allocator<std::basic_string<char,std::char_traits<char>,std::allocator<char> > > > > > >::_Erase_tree<std::allocator<std::_Tree_node<std::pair<std::basic_string<char,std::char_traits<char>,std::allocator<char> > const ,std::vector<std::basic_string<char,std::char_traits<char>,std::allocator<char> >,std::allocator<std::basic_string<char,std::char_traits<char>,std::allocator<char> > > > >,void *> > >, COMDAT
; _this$ = ecx

; 742  :     void _Erase_tree(_Alnode& _Al, _Nodeptr _Rootnode) noexcept {

  00000	55		 push	 ebp
  00001	8b ec		 mov	 ebp, esp
  00003	51		 push	 ecx
  00004	56		 push	 esi

; 743  :         while (!_Rootnode->_Isnil) { // free subtrees, then node

  00005	8b 75 0c	 mov	 esi, DWORD PTR __Rootnode$[ebp]
  00008	8b c1		 mov	 eax, ecx
  0000a	89 45 fc	 mov	 DWORD PTR _this$1$[ebp], eax
  0000d	80 7e 0d 00	 cmp	 BYTE PTR [esi+13], 0
  00011	75 32		 jne	 SHORT $LN3@Erase_tree
  00013	53		 push	 ebx
  00014	8b 5d 08	 mov	 ebx, DWORD PTR __Al$[ebp]
  00017	57		 push	 edi
$LL2@Erase_tree:

; 744  :             _Erase_tree(_Al, _Rootnode->_Right);

  00018	ff 76 08	 push	 DWORD PTR [esi+8]
  0001b	8b c8		 mov	 ecx, eax
  0001d	53		 push	 ebx
  0001e	e8 00 00 00 00	 call	 ??$_Erase_tree@V?$allocator@U?$_Tree_node@U?$pair@$$CBV?$basic_string@DU?$char_traits@D@std@@V?$allocator@D@2@@std@@V?$vector@V?$basic_string@DU?$char_traits@D@std@@V?$allocator@D@2@@std@@V?$allocator@V?$basic_string@DU?$char_traits@D@std@@V?$allocator@D@2@@std@@@2@@2@@std@@PAX@std@@@std@@@?$_Tree_val@U?$_Tree_simple_types@U?$pair@$$CBV?$basic_string@DU?$char_traits@D@std@@V?$allocator@D@2@@std@@V?$vector@V?$basic_string@DU?$char_traits@D@std@@V?$allocator@D@2@@std@@V?$allocator@V?$basic_string@DU?$char_traits@D@std@@V?$allocator@D@2@@std@@@2@@2@@std@@@std@@@std@@QAEXAAV?$allocator@U?$_Tree_node@U?$pair@$$CBV?$basic_string@DU?$char_traits@D@std@@V?$allocator@D@2@@std@@V?$vector@V?$basic_string@DU?$char_traits@D@std@@V?$allocator@D@2@@std@@V?$allocator@V?$basic_string@DU?$char_traits@D@std@@V?$allocator@D@2@@std@@@2@@2@@std@@PAX@std@@@1@PAU?$_Tree_node@U?$pair@$$CBV?$basic_string@DU?$char_traits@D@std@@V?$allocator@D@2@@std@@V?$vector@V?$basic_string@DU?$char_traits@D@std@@V?$allocator@D@2@@std@@V?$allocator@V?$basic_string@DU?$char_traits@D@std@@V?$allocator@D@2@@std@@@2@@2@@std@@PAX@1@@Z ; std::_Tree_val<std::_Tree_simple_types<std::pair<std::basic_string<char,std::char_traits<char>,std::allocator<char> > const ,std::vector<std::basic_string<char,std::char_traits<char>,std::allocator<char> >,std::allocator<std::basic_string<char,std::char_traits<char>,std::allocator<char> > > > > > >::_Erase_tree<std::allocator<std::_Tree_node<std::pair<std::basic_string<char,std::char_traits<char>,std::allocator<char> > const ,std::vector<std::basic_string<char,std::char_traits<char>,std::allocator<char> >,std::allocator<std::basic_string<char,std::char_traits<char>,std::allocator<char> > > > >,void *> > >
; File C:\Program Files (x86)\Microsoft Visual Studio\2019\Community\VC\Tools\MSVC\14.27.29110\include\utility

; 599  :     _Ty _Old_val = static_cast<_Ty&&>(_Val);

  00023	8b fe		 mov	 edi, esi

; 600  :     _Val         = static_cast<_Other&&>(_New_val);

  00025	8b 36		 mov	 esi, DWORD PTR [esi]
; File C:\Program Files (x86)\Microsoft Visual Studio\2019\Community\VC\Tools\MSVC\14.27.29110\include\xtree

; 379  :         allocator_traits<_Alloc>::destroy(_Al, _STD addressof(_Ptr->_Myval));

  00027	8d 4f 10	 lea	 ecx, DWORD PTR [edi+16]
  0002a	e8 00 00 00 00	 call	 ??1?$pair@$$CBV?$basic_string@DU?$char_traits@D@std@@V?$allocator@D@2@@std@@V?$vector@V?$basic_string@DU?$char_traits@D@std@@V?$allocator@D@2@@std@@V?$allocator@V?$basic_string@DU?$char_traits@D@std@@V?$allocator@D@2@@std@@@2@@2@@std@@QAE@XZ
; File C:\Program Files (x86)\Microsoft Visual Studio\2019\Community\VC\Tools\MSVC\14.27.29110\include\xmemory

; 689  :         _Deallocate<_New_alignof<value_type>>(_Ptr, sizeof(value_type) * _Count);

  0002f	6a 34		 push	 52			; 00000034H
  00031	57		 push	 edi
  00032	e8 00 00 00 00	 call	 ??$_Deallocate@$07$0A@@std@@YAXPAXI@Z ; std::_Deallocate<8,0>
; File C:\Program Files (x86)\Microsoft Visual Studio\2019\Community\VC\Tools\MSVC\14.27.29110\include\xtree

; 743  :         while (!_Rootnode->_Isnil) { // free subtrees, then node

  00037	8b 45 fc	 mov	 eax, DWORD PTR _this$1$[ebp]
; File C:\Program Files (x86)\Microsoft Visual Studio\2019\Community\VC\Tools\MSVC\14.27.29110\include\xmemory

; 689  :         _Deallocate<_New_alignof<value_type>>(_Ptr, sizeof(value_type) * _Count);

  0003a	83 c4 08	 add	 esp, 8
; File C:\Program Files (x86)\Microsoft Visual Studio\2019\Community\VC\Tools\MSVC\14.27.29110\include\xtree

; 743  :         while (!_Rootnode->_Isnil) { // free subtrees, then node

  0003d	80 7e 0d 00	 cmp	 BYTE PTR [esi+13], 0
  00041	74 d5		 je	 SHORT $LL2@Erase_tree
  00043	5f		 pop	 edi
  00044	5b		 pop	 ebx
$LN3@Erase_tree:
  00045	5e		 pop	 esi

; 745  :             _Alnode::value_type::_Freenode(_Al, _STD exchange(_Rootnode, _Rootnode->_Left));
; 746  :         }
; 747  :     }

  00046	8b e5		 mov	 esp, ebp
  00048	5d		 pop	 ebp
  00049	c2 08 00	 ret	 8
??$_Erase_tree@V?$allocator@U?$_Tree_node@U?$pair@$$CBV?$basic_string@DU?$char_traits@D@std@@V?$allocator@D@2@@std@@V?$vector@V?$basic_string@DU?$char_traits@D@std@@V?$allocator@D@2@@std@@V?$allocator@V?$basic_string@DU?$char_traits@D@std@@V?$allocator@D@2@@std@@@2@@2@@std@@PAX@std@@@std@@@?$_Tree_val@U?$_Tree_simple_types@U?$pair@$$CBV?$basic_string@DU?$char_traits@D@std@@V?$allocator@D@2@@std@@V?$vector@V?$basic_string@DU?$char_traits@D@std@@V?$allocator@D@2@@std@@V?$allocator@V?$basic_string@DU?$char_traits@D@std@@V?$allocator@D@2@@std@@@2@@2@@std@@@std@@@std@@QAEXAAV?$allocator@U?$_Tree_node@U?$pair@$$CBV?$basic_string@DU?$char_traits@D@std@@V?$allocator@D@2@@std@@V?$vector@V?$basic_string@DU?$char_traits@D@std@@V?$allocator@D@2@@std@@V?$allocator@V?$basic_string@DU?$char_traits@D@std@@V?$allocator@D@2@@std@@@2@@2@@std@@PAX@std@@@1@PAU?$_Tree_node@U?$pair@$$CBV?$basic_string@DU?$char_traits@D@std@@V?$allocator@D@2@@std@@V?$vector@V?$basic_string@DU?$char_traits@D@std@@V?$allocator@D@2@@std@@V?$allocator@V?$basic_string@DU?$char_traits@D@std@@V?$allocator@D@2@@std@@@2@@2@@std@@PAX@1@@Z ENDP ; std::_Tree_val<std::_Tree_simple_types<std::pair<std::basic_string<char,std::char_traits<char>,std::allocator<char> > const ,std::vector<std::basic_string<char,std::char_traits<char>,std::allocator<char> >,std::allocator<std::basic_string<char,std::char_traits<char>,std::allocator<char> > > > > > >::_Erase_tree<std::allocator<std::_Tree_node<std::pair<std::basic_string<char,std::char_traits<char>,std::allocator<char> > const ,std::vector<std::basic_string<char,std::char_traits<char>,std::allocator<char> >,std::allocator<std::basic_string<char,std::char_traits<char>,std::allocator<char> > > > >,void *> > >
_TEXT	ENDS
; Function compile flags: /Ogtp
; File C:\Program Files (x86)\Microsoft Visual Studio\2019\Community\VC\Tools\MSVC\14.27.29110\include\xmemory
;	COMDAT ??1?$_Alloc_construct_ptr@V?$allocator@U?$_Tree_node@U?$pair@$$CBV?$basic_string@DU?$char_traits@D@std@@V?$allocator@D@2@@std@@V?$vector@V?$basic_string@DU?$char_traits@D@std@@V?$allocator@D@2@@std@@V?$allocator@V?$basic_string@DU?$char_traits@D@std@@V?$allocator@D@2@@std@@@2@@2@@std@@PAX@std@@@std@@@std@@QAE@XZ
_TEXT	SEGMENT
??1?$_Alloc_construct_ptr@V?$allocator@U?$_Tree_node@U?$pair@$$CBV?$basic_string@DU?$char_traits@D@std@@V?$allocator@D@2@@std@@V?$vector@V?$basic_string@DU?$char_traits@D@std@@V?$allocator@D@2@@std@@V?$allocator@V?$basic_string@DU?$char_traits@D@std@@V?$allocator@D@2@@std@@@2@@2@@std@@PAX@std@@@std@@@std@@QAE@XZ PROC ; std::_Alloc_construct_ptr<std::allocator<std::_Tree_node<std::pair<std::basic_string<char,std::char_traits<char>,std::allocator<char> > const ,std::vector<std::basic_string<char,std::char_traits<char>,std::allocator<char> >,std::allocator<std::basic_string<char,std::char_traits<char>,std::allocator<char> > > > >,void *> > >::~_Alloc_construct_ptr<std::allocator<std::_Tree_node<std::pair<std::basic_string<char,std::char_traits<char>,std::allocator<char> > const ,std::vector<std::basic_string<char,std::char_traits<char>,std::allocator<char> >,std::allocator<std::basic_string<char,std::char_traits<char>,std::allocator<char> > > > >,void *> > >, COMDAT
; _this$ = ecx

; 1052 :         if (_Ptr) {

  00000	8b 41 04	 mov	 eax, DWORD PTR [ecx+4]
  00003	85 c0		 test	 eax, eax
  00005	74 0b		 je	 SHORT $LN2@Alloc_cons

; 803  :         _Deallocate<_New_alignof<_Ty>>(_Ptr, sizeof(_Ty) * _Count);

  00007	6a 34		 push	 52			; 00000034H
  00009	50		 push	 eax
  0000a	e8 00 00 00 00	 call	 ??$_Deallocate@$07$0A@@std@@YAXPAXI@Z ; std::_Deallocate<8,0>
  0000f	83 c4 08	 add	 esp, 8
$LN2@Alloc_cons:

; 1053 :             _Al.deallocate(_Ptr, 1);
; 1054 :         }
; 1055 :     }

  00012	c3		 ret	 0
??1?$_Alloc_construct_ptr@V?$allocator@U?$_Tree_node@U?$pair@$$CBV?$basic_string@DU?$char_traits@D@std@@V?$allocator@D@2@@std@@V?$vector@V?$basic_string@DU?$char_traits@D@std@@V?$allocator@D@2@@std@@V?$allocator@V?$basic_string@DU?$char_traits@D@std@@V?$allocator@D@2@@std@@@2@@2@@std@@PAX@std@@@std@@@std@@QAE@XZ ENDP ; std::_Alloc_construct_ptr<std::allocator<std::_Tree_node<std::pair<std::basic_string<char,std::char_traits<char>,std::allocator<char> > const ,std::vector<std::basic_string<char,std::char_traits<char>,std::allocator<char> >,std::allocator<std::basic_string<char,std::char_traits<char>,std::allocator<char> > > > >,void *> > >::~_Alloc_construct_ptr<std::allocator<std::_Tree_node<std::pair<std::basic_string<char,std::char_traits<char>,std::allocator<char> > const ,std::vector<std::basic_string<char,std::char_traits<char>,std::allocator<char> >,std::allocator<std::basic_string<char,std::char_traits<char>,std::allocator<char> > > > >,void *> > >
_TEXT	ENDS
; Function compile flags: /Ogtp
; File C:\Program Files (x86)\Microsoft Visual Studio\2019\Community\VC\Tools\MSVC\14.27.29110\include\xtree
; File C:\Program Files (x86)\Microsoft Visual Studio\2019\Community\VC\Tools\MSVC\14.27.29110\include\xstddef
; File C:\Program Files (x86)\Microsoft Visual Studio\2019\Community\VC\Tools\MSVC\14.27.29110\include\xtree
;	COMDAT ??$_Find_lower_bound@V?$basic_string@DU?$char_traits@D@std@@V?$allocator@D@2@@std@@@?$_Tree@V?$_Tmap_traits@V?$basic_string@DU?$char_traits@D@std@@V?$allocator@D@2@@std@@V?$vector@V?$basic_string@DU?$char_traits@D@std@@V?$allocator@D@2@@std@@V?$allocator@V?$basic_string@DU?$char_traits@D@std@@V?$allocator@D@2@@std@@@2@@2@U?$less@V?$basic_string@DU?$char_traits@D@std@@V?$allocator@D@2@@std@@@2@V?$allocator@U?$pair@$$CBV?$basic_string@DU?$char_traits@D@std@@V?$allocator@D@2@@std@@V?$vector@V?$basic_string@DU?$char_traits@D@std@@V?$allocator@D@2@@std@@V?$allocator@V?$basic_string@DU?$char_traits@D@std@@V?$allocator@D@2@@std@@@2@@2@@std@@@2@$0A@@std@@@std@@IBE?AU?$_Tree_find_result@PAU?$_Tree_node@U?$pair@$$CBV?$basic_string@DU?$char_traits@D@std@@V?$allocator@D@2@@std@@V?$vector@V?$basic_string@DU?$char_traits@D@std@@V?$allocator@D@2@@std@@V?$allocator@V?$basic_string@DU?$char_traits@D@std@@V?$allocator@D@2@@std@@@2@@2@@std@@PAX@std@@@1@ABV?$basic_string@DU?$char_traits@D@std@@V?$allocator@D@2@@1@@Z
_TEXT	SEGMENT
___$ReturnUdt$ = 8					; size = 4
__Keyval$ = 12						; size = 4
??$_Find_lower_bound@V?$basic_string@DU?$char_traits@D@std@@V?$allocator@D@2@@std@@@?$_Tree@V?$_Tmap_traits@V?$basic_string@DU?$char_traits@D@std@@V?$allocator@D@2@@std@@V?$vector@V?$basic_string@DU?$char_traits@D@std@@V?$allocator@D@2@@std@@V?$allocator@V?$basic_string@DU?$char_traits@D@std@@V?$allocator@D@2@@std@@@2@@2@U?$less@V?$basic_string@DU?$char_traits@D@std@@V?$allocator@D@2@@std@@@2@V?$allocator@U?$pair@$$CBV?$basic_string@DU?$char_traits@D@std@@V?$allocator@D@2@@std@@V?$vector@V?$basic_string@DU?$char_traits@D@std@@V?$allocator@D@2@@std@@V?$allocator@V?$basic_string@DU?$char_traits@D@std@@V?$allocator@D@2@@std@@@2@@2@@std@@@2@$0A@@std@@@std@@IBE?AU?$_Tree_find_result@PAU?$_Tree_node@U?$pair@$$CBV?$basic_string@DU?$char_traits@D@std@@V?$allocator@D@2@@std@@V?$vector@V?$basic_string@DU?$char_traits@D@std@@V?$allocator@D@2@@std@@V?$allocator@V?$basic_string@DU?$char_traits@D@std@@V?$allocator@D@2@@std@@@2@@2@@std@@PAX@std@@@1@ABV?$basic_string@DU?$char_traits@D@std@@V?$allocator@D@2@@1@@Z PROC ; std::_Tree<std::_Tmap_traits<std::basic_string<char,std::char_traits<char>,std::allocator<char> >,std::vector<std::basic_string<char,std::char_traits<char>,std::allocator<char> >,std::allocator<std::basic_string<char,std::char_traits<char>,std::allocator<char> > > >,std::less<std::basic_string<char,std::char_traits<char>,std::allocator<char> > >,std::allocator<std::pair<std::basic_string<char,std::char_traits<char>,std::allocator<char> > const ,std::vector<std::basic_string<char,std::char_traits<char>,std::allocator<char> >,std::allocator<std::basic_string<char,std::char_traits<char>,std::allocator<char> > > > > >,0> >::_Find_lower_bound<std::basic_string<char,std::char_traits<char>,std::allocator<char> > >, COMDAT
; _this$ = ecx

; 1699 :     _Tree_find_result<_Nodeptr> _Find_lower_bound(const _Keyty& _Keyval) const {

  00000	55		 push	 ebp
  00001	8b ec		 mov	 ebp, esp

; 1700 :         const auto _Scary = _Get_scary();
; 1701 :         _Tree_find_result<_Nodeptr> _Result{{_Scary->_Myhead->_Parent, _Tree_child::_Right}, _Scary->_Myhead};

  00003	8b 01		 mov	 eax, DWORD PTR [ecx]
  00005	56		 push	 esi
  00006	57		 push	 edi
  00007	8b 7d 08	 mov	 edi, DWORD PTR ___$ReturnUdt$[ebp]
  0000a	8b 70 04	 mov	 esi, DWORD PTR [eax+4]
  0000d	89 37		 mov	 DWORD PTR [edi], esi

; 1702 :         _Nodeptr _Trynode = _Result._Location._Parent;
; 1703 :         while (!_Trynode->_Isnil) {

  0000f	80 7e 0d 00	 cmp	 BYTE PTR [esi+13], 0
  00013	c7 47 04 00 00
	00 00		 mov	 DWORD PTR [edi+4], 0
  0001a	89 47 08	 mov	 DWORD PTR [edi+8], eax
  0001d	75 32		 jne	 SHORT $LN12@Find_lower
  0001f	53		 push	 ebx
  00020	8b 5d 0c	 mov	 ebx, DWORD PTR __Keyval$[ebp]
$LL2@Find_lower:

; 1705 :             if (_DEBUG_LT_PRED(_Getcomp(), _Traits::_Kfn(_Trynode->_Myval), _Keyval)) {

  00023	8d 46 10	 lea	 eax, DWORD PTR [esi+16]
  00026	89 37		 mov	 DWORD PTR [edi], esi
; File C:\Program Files (x86)\Microsoft Visual Studio\2019\Community\VC\Tools\MSVC\14.27.29110\include\xstddef

; 127  :         return _Left < _Right;

  00028	53		 push	 ebx
  00029	50		 push	 eax
  0002a	e8 00 00 00 00	 call	 ??$?MDU?$char_traits@D@std@@V?$allocator@D@1@@std@@YA_NABV?$basic_string@DU?$char_traits@D@std@@V?$allocator@D@2@@0@0@Z ; std::operator<<char,std::char_traits<char>,std::allocator<char> >
  0002f	83 c4 08	 add	 esp, 8
; File C:\Program Files (x86)\Microsoft Visual Studio\2019\Community\VC\Tools\MSVC\14.27.29110\include\xtree

; 1705 :             if (_DEBUG_LT_PRED(_Getcomp(), _Traits::_Kfn(_Trynode->_Myval), _Keyval)) {

  00032	84 c0		 test	 al, al
  00034	74 07		 je	 SHORT $LN4@Find_lower

; 1706 :                 _Result._Location._Child = _Tree_child::_Right;
; 1707 :                 _Trynode                 = _Trynode->_Right;

  00036	8b 76 08	 mov	 esi, DWORD PTR [esi+8]
  00039	33 c0		 xor	 eax, eax

; 1708 :             } else {

  0003b	eb 0a		 jmp	 SHORT $LN5@Find_lower
$LN4@Find_lower:

; 1709 :                 _Result._Location._Child = _Tree_child::_Left;
; 1710 :                 _Result._Bound           = _Trynode;

  0003d	89 77 08	 mov	 DWORD PTR [edi+8], esi

; 1711 :                 _Trynode                 = _Trynode->_Left;

  00040	b8 01 00 00 00	 mov	 eax, 1
  00045	8b 36		 mov	 esi, DWORD PTR [esi]
$LN5@Find_lower:

; 1702 :         _Nodeptr _Trynode = _Result._Location._Parent;
; 1703 :         while (!_Trynode->_Isnil) {

  00047	89 47 04	 mov	 DWORD PTR [edi+4], eax
  0004a	80 7e 0d 00	 cmp	 BYTE PTR [esi+13], 0
  0004e	74 d3		 je	 SHORT $LL2@Find_lower

; 1712 :             }
; 1713 :         }
; 1714 : 
; 1715 :         return _Result;

  00050	5b		 pop	 ebx
$LN12@Find_lower:

; 1716 :     }

  00051	8b c7		 mov	 eax, edi
  00053	5f		 pop	 edi
  00054	5e		 pop	 esi
  00055	5d		 pop	 ebp
  00056	c2 08 00	 ret	 8
??$_Find_lower_bound@V?$basic_string@DU?$char_traits@D@std@@V?$allocator@D@2@@std@@@?$_Tree@V?$_Tmap_traits@V?$basic_string@DU?$char_traits@D@std@@V?$allocator@D@2@@std@@V?$vector@V?$basic_string@DU?$char_traits@D@std@@V?$allocator@D@2@@std@@V?$allocator@V?$basic_string@DU?$char_traits@D@std@@V?$allocator@D@2@@std@@@2@@2@U?$less@V?$basic_string@DU?$char_traits@D@std@@V?$allocator@D@2@@std@@@2@V?$allocator@U?$pair@$$CBV?$basic_string@DU?$char_traits@D@std@@V?$allocator@D@2@@std@@V?$vector@V?$basic_string@DU?$char_traits@D@std@@V?$allocator@D@2@@std@@V?$allocator@V?$basic_string@DU?$char_traits@D@std@@V?$allocator@D@2@@std@@@2@@2@@std@@@2@$0A@@std@@@std@@IBE?AU?$_Tree_find_result@PAU?$_Tree_node@U?$pair@$$CBV?$basic_string@DU?$char_traits@D@std@@V?$allocator@D@2@@std@@V?$vector@V?$basic_string@DU?$char_traits@D@std@@V?$allocator@D@2@@std@@V?$allocator@V?$basic_string@DU?$char_traits@D@std@@V?$allocator@D@2@@std@@@2@@2@@std@@PAX@std@@@1@ABV?$basic_string@DU?$char_traits@D@std@@V?$allocator@D@2@@1@@Z ENDP ; std::_Tree<std::_Tmap_traits<std::basic_string<char,std::char_traits<char>,std::allocator<char> >,std::vector<std::basic_string<char,std::char_traits<char>,std::allocator<char> >,std::allocator<std::basic_string<char,std::char_traits<char>,std::allocator<char> > > >,std::less<std::basic_string<char,std::char_traits<char>,std::allocator<char> > >,std::allocator<std::pair<std::basic_string<char,std::char_traits<char>,std::allocator<char> > const ,std::vector<std::basic_string<char,std::char_traits<char>,std::allocator<char> >,std::allocator<std::basic_string<char,std::char_traits<char>,std::allocator<char> > > > > >,0> >::_Find_lower_bound<std::basic_string<char,std::char_traits<char>,std::allocator<char> > >
_TEXT	ENDS
; Function compile flags: /Ogtp
; File C:\Program Files (x86)\Microsoft Visual Studio\2019\Community\VC\Tools\MSVC\14.27.29110\include\xmemory
;	COMDAT ??$_Uninitialized_copy@PAUSTerrainTexture@@V?$allocator@USTerrainTexture@@@std@@@std@@YAPAUSTerrainTexture@@QAU1@0PAU1@AAV?$allocator@USTerrainTexture@@@0@@Z
_TEXT	SEGMENT
__Backout$2 = -24					; size = 12
__$EHRec$ = -12						; size = 12
__First$ = 8						; size = 4
__Last$ = 12						; size = 4
__Dest$ = 16						; size = 4
__Al$ = 20						; size = 4
??$_Uninitialized_copy@PAUSTerrainTexture@@V?$allocator@USTerrainTexture@@@std@@@std@@YAPAUSTerrainTexture@@QAU1@0PAU1@AAV?$allocator@USTerrainTexture@@@0@@Z PROC ; std::_Uninitialized_copy<STerrainTexture *,std::allocator<STerrainTexture> >, COMDAT

; 1527 :     const _InIt _First, const _InIt _Last, _Alloc_ptr_t<_Alloc> _Dest, _Alloc& _Al) {

  00000	55		 push	 ebp
  00001	8b ec		 mov	 ebp, esp
  00003	6a ff		 push	 -1
  00005	68 00 00 00 00	 push	 __ehhandler$??$_Uninitialized_copy@PAUSTerrainTexture@@V?$allocator@USTerrainTexture@@@std@@@std@@YAPAUSTerrainTexture@@QAU1@0PAU1@AAV?$allocator@USTerrainTexture@@@0@@Z
  0000a	64 a1 00 00 00
	00		 mov	 eax, DWORD PTR fs:0
  00010	50		 push	 eax
  00011	83 ec 0c	 sub	 esp, 12			; 0000000cH
  00014	53		 push	 ebx
  00015	56		 push	 esi
  00016	57		 push	 edi
  00017	a1 00 00 00 00	 mov	 eax, DWORD PTR ___security_cookie
  0001c	33 c5		 xor	 eax, ebp
  0001e	50		 push	 eax
  0001f	8d 45 f4	 lea	 eax, DWORD PTR __$EHRec$[ebp]
  00022	64 a3 00 00 00
	00		 mov	 DWORD PTR fs:0, eax

; 1497 :     _Uninitialized_backout_al(pointer _Dest, _Alloc& _Al_) : _First(_Dest), _Last(_Dest), _Al(_Al_) {}

  00028	8b 7d 10	 mov	 edi, DWORD PTR __Dest$[ebp]
  0002b	8b 45 14	 mov	 eax, DWORD PTR __Al$[ebp]

; 1528 :     // copy [_First, _Last) to raw _Dest, using _Al
; 1529 :     // note: only called internally from elsewhere in the STL
; 1530 :     using _Ptrval = typename _Alloc::value_type*;
; 1531 : 
; 1532 :     auto _UFirst      = _Get_unwrapped(_First);

  0002e	8b 75 08	 mov	 esi, DWORD PTR __First$[ebp]

; 1497 :     _Uninitialized_backout_al(pointer _Dest, _Alloc& _Al_) : _First(_Dest), _Last(_Dest), _Al(_Al_) {}

  00031	89 7d e8	 mov	 DWORD PTR __Backout$2[ebp], edi
  00034	89 7d ec	 mov	 DWORD PTR __Backout$2[ebp+4], edi
  00037	89 45 f0	 mov	 DWORD PTR __Backout$2[ebp+8], eax

; 1533 :     const auto _ULast = _Get_unwrapped(_Last);
; 1534 : 
; 1535 :     if constexpr (conjunction_v<bool_constant<_Ptr_copy_cat<decltype(_UFirst), _Ptrval>::_Really_trivial>,
; 1536 :                       _Uses_default_construct<_Alloc, _Ptrval, decltype(*_UFirst)>>) {
; 1537 :         _Copy_memmove(_UFirst, _ULast, _Unfancy(_Dest));
; 1538 :         _Dest += _ULast - _UFirst;
; 1539 :     } else {
; 1540 :         _Uninitialized_backout_al<_Alloc> _Backout{_Dest, _Al};
; 1541 :         for (; _UFirst != _ULast; ++_UFirst) {

  0003a	8b 5d 0c	 mov	 ebx, DWORD PTR __Last$[ebp]
  0003d	c7 45 fc 00 00
	00 00		 mov	 DWORD PTR __$EHRec$[ebp+8], 0
  00044	3b f3		 cmp	 esi, ebx
  00046	74 1e		 je	 SHORT $LN3@Uninitiali
$LL4@Uninitiali:

; 694  :         ::new (const_cast<void*>(static_cast<const volatile void*>(_Ptr))) _Objty(_STD forward<_Types>(_Args)...);

  00048	56		 push	 esi
  00049	8b cf		 mov	 ecx, edi
  0004b	e8 00 00 00 00	 call	 ??0STerrainTexture@@QAE@ABU0@@Z

; 1509 :         ++_Last;

  00050	81 c7 94 00 00
	00		 add	 edi, 148		; 00000094H

; 1533 :     const auto _ULast = _Get_unwrapped(_Last);
; 1534 : 
; 1535 :     if constexpr (conjunction_v<bool_constant<_Ptr_copy_cat<decltype(_UFirst), _Ptrval>::_Really_trivial>,
; 1536 :                       _Uses_default_construct<_Alloc, _Ptrval, decltype(*_UFirst)>>) {
; 1537 :         _Copy_memmove(_UFirst, _ULast, _Unfancy(_Dest));
; 1538 :         _Dest += _ULast - _UFirst;
; 1539 :     } else {
; 1540 :         _Uninitialized_backout_al<_Alloc> _Backout{_Dest, _Al};
; 1541 :         for (; _UFirst != _ULast; ++_UFirst) {

  00056	81 c6 94 00 00
	00		 add	 esi, 148		; 00000094H

; 1509 :         ++_Last;

  0005c	89 7d ec	 mov	 DWORD PTR __Backout$2[ebp+4], edi

; 1533 :     const auto _ULast = _Get_unwrapped(_Last);
; 1534 : 
; 1535 :     if constexpr (conjunction_v<bool_constant<_Ptr_copy_cat<decltype(_UFirst), _Ptrval>::_Really_trivial>,
; 1536 :                       _Uses_default_construct<_Alloc, _Ptrval, decltype(*_UFirst)>>) {
; 1537 :         _Copy_memmove(_UFirst, _ULast, _Unfancy(_Dest));
; 1538 :         _Dest += _ULast - _UFirst;
; 1539 :     } else {
; 1540 :         _Uninitialized_backout_al<_Alloc> _Backout{_Dest, _Al};
; 1541 :         for (; _UFirst != _ULast; ++_UFirst) {

  0005f	3b f3		 cmp	 esi, ebx
  00061	75 e5		 jne	 SHORT $LL4@Uninitiali
  00063	8b 45 14	 mov	 eax, DWORD PTR __Al$[ebp]
$LN3@Uninitiali:

; 1503 :         _Destroy_range(_First, _Last, _Al);

  00066	50		 push	 eax
  00067	57		 push	 edi
  00068	57		 push	 edi
  00069	e8 00 00 00 00	 call	 ??$_Destroy_range@V?$allocator@USTerrainTexture@@@std@@@std@@YAXPAUSTerrainTexture@@QAU1@AAV?$allocator@USTerrainTexture@@@0@@Z ; std::_Destroy_range<std::allocator<STerrainTexture> >
  0006e	83 c4 0c	 add	 esp, 12			; 0000000cH

; 1542 :             _Backout._Emplace_back(*_UFirst);
; 1543 :         }
; 1544 : 
; 1545 :         _Dest = _Backout._Release();
; 1546 :     }
; 1547 : 
; 1548 :     return _Dest;

  00071	8b c7		 mov	 eax, edi

; 1549 : }

  00073	8b 4d f4	 mov	 ecx, DWORD PTR __$EHRec$[ebp]
  00076	64 89 0d 00 00
	00 00		 mov	 DWORD PTR fs:0, ecx
  0007d	59		 pop	 ecx
  0007e	5f		 pop	 edi
  0007f	5e		 pop	 esi
  00080	5b		 pop	 ebx
  00081	8b e5		 mov	 esp, ebp
  00083	5d		 pop	 ebp
  00084	c3		 ret	 0
_TEXT	ENDS
;	COMDAT text$x
text$x	SEGMENT
__unwindfunclet$??$_Uninitialized_copy@PAUSTerrainTexture@@V?$allocator@USTerrainTexture@@@std@@@std@@YAPAUSTerrainTexture@@QAU1@0PAU1@AAV?$allocator@USTerrainTexture@@@0@@Z$0:
  00000	8d 4d e8	 lea	 ecx, DWORD PTR __Backout$2[ebp]
  00003	e9 00 00 00 00	 jmp	 ??1?$_Uninitialized_backout_al@V?$allocator@USTerrainTexture@@@std@@@std@@QAE@XZ ; std::_Uninitialized_backout_al<std::allocator<STerrainTexture> >::~_Uninitialized_backout_al<std::allocator<STerrainTexture> >
  00008	cc		 int	 3
  00009	cc		 int	 3
  0000a	cc		 int	 3
  0000b	cc		 int	 3
  0000c	cc		 int	 3
__ehhandler$??$_Uninitialized_copy@PAUSTerrainTexture@@V?$allocator@USTerrainTexture@@@std@@@std@@YAPAUSTerrainTexture@@QAU1@0PAU1@AAV?$allocator@USTerrainTexture@@@0@@Z:
  0000d	90		 npad	 1
  0000e	90		 npad	 1
  0000f	8b 54 24 08	 mov	 edx, DWORD PTR [esp+8]
  00013	8d 42 0c	 lea	 eax, DWORD PTR [edx+12]
  00016	8b 4a e4	 mov	 ecx, DWORD PTR [edx-28]
  00019	33 c8		 xor	 ecx, eax
  0001b	e8 00 00 00 00	 call	 @__security_check_cookie@4
  00020	b8 00 00 00 00	 mov	 eax, OFFSET __ehfuncinfo$??$_Uninitialized_copy@PAUSTerrainTexture@@V?$allocator@USTerrainTexture@@@std@@@std@@YAPAUSTerrainTexture@@QAU1@0PAU1@AAV?$allocator@USTerrainTexture@@@0@@Z
  00025	e9 00 00 00 00	 jmp	 ___CxxFrameHandler3
text$x	ENDS
??$_Uninitialized_copy@PAUSTerrainTexture@@V?$allocator@USTerrainTexture@@@std@@@std@@YAPAUSTerrainTexture@@QAU1@0PAU1@AAV?$allocator@USTerrainTexture@@@0@@Z ENDP ; std::_Uninitialized_copy<STerrainTexture *,std::allocator<STerrainTexture> >
; Function compile flags: /Ogtp
; File C:\Program Files (x86)\Microsoft Visual Studio\2019\Community\VC\Tools\MSVC\14.27.29110\include\xmemory
; File C:\DS Project\DS Files\Source\ClientSource\Client\PRTerrainLib\TextureSet.h
; File C:\Program Files (x86)\Microsoft Visual Studio\2019\Community\VC\Tools\MSVC\14.27.29110\include\xstring
; File C:\Program Files (x86)\Microsoft Visual Studio\2019\Community\VC\Tools\MSVC\14.27.29110\include\xmemory
; File C:\Program Files (x86)\Microsoft Visual Studio\2019\Community\VC\Tools\MSVC\14.27.29110\include\xstring
; File C:\Program Files (x86)\Microsoft Visual Studio\2019\Community\VC\Tools\MSVC\14.27.29110\include\xmemory
;	COMDAT ??$_Destroy_range@V?$allocator@USTerrainTexture@@@std@@@std@@YAXPAUSTerrainTexture@@QAU1@AAV?$allocator@USTerrainTexture@@@0@@Z
_TEXT	SEGMENT
__First$ = 8						; size = 4
__Last$ = 12						; size = 4
__Al$ = 16						; size = 4
??$_Destroy_range@V?$allocator@USTerrainTexture@@@std@@@std@@YAXPAUSTerrainTexture@@QAU1@AAV?$allocator@USTerrainTexture@@@0@@Z PROC ; std::_Destroy_range<std::allocator<STerrainTexture> >, COMDAT

; 955  : void _Destroy_range(_Alloc_ptr_t<_Alloc> _First, const _Alloc_ptr_t<_Alloc> _Last, _Alloc& _Al) noexcept {

  00000	55		 push	 ebp
  00001	8b ec		 mov	 ebp, esp
  00003	56		 push	 esi

; 959  :         for (; _First != _Last; ++_First) {

  00004	8b 75 08	 mov	 esi, DWORD PTR __First$[ebp]
  00007	57		 push	 edi
  00008	8b 7d 0c	 mov	 edi, DWORD PTR __Last$[ebp]
  0000b	3b f7		 cmp	 esi, edi
  0000d	74 3d		 je	 SHORT $LN3@Destroy_ra
  0000f	83 c6 14	 add	 esi, 20			; 00000014H
$LL4@Destroy_ra:
; File C:\DS Project\DS Files\Source\ClientSource\Client\PRTerrainLib\TextureSet.h

; 21   : 	}

  00012	8d 4e 08	 lea	 ecx, DWORD PTR [esi+8]
  00015	e8 00 00 00 00	 call	 ??1CGraphicImageInstance@@UAE@XZ ; CGraphicImageInstance::~CGraphicImageInstance
; File C:\Program Files (x86)\Microsoft Visual Studio\2019\Community\VC\Tools\MSVC\14.27.29110\include\xstring

; 2153 :         return _BUF_SIZE <= _Myres;

  0001a	8b 06		 mov	 eax, DWORD PTR [esi]
  0001c	83 f8 10	 cmp	 eax, 16			; 00000010H

; 4301 :         if (_Mypair._Myval2._Large_string_engaged()) {

  0001f	72 0d		 jb	 SHORT $LN18@Destroy_ra

; 4302 :             const pointer _Ptr = _Mypair._Myval2._Bx._Ptr;
; 4303 :             auto& _Al          = _Getal();
; 4304 :             _Destroy_in_place(_Mypair._Myval2._Bx._Ptr);
; 4305 :             _Al.deallocate(_Ptr, _Mypair._Myval2._Myres + 1);

  00021	40		 inc	 eax
; File C:\Program Files (x86)\Microsoft Visual Studio\2019\Community\VC\Tools\MSVC\14.27.29110\include\xmemory

; 803  :         _Deallocate<_New_alignof<_Ty>>(_Ptr, sizeof(_Ty) * _Count);

  00022	50		 push	 eax
  00023	ff 76 ec	 push	 DWORD PTR [esi-20]
  00026	e8 00 00 00 00	 call	 ??$_Deallocate@$07$0A@@std@@YAXPAXI@Z ; std::_Deallocate<8,0>
  0002b	83 c4 08	 add	 esp, 8
$LN18@Destroy_ra:
; File C:\Program Files (x86)\Microsoft Visual Studio\2019\Community\VC\Tools\MSVC\14.27.29110\include\xstring

; 4308 :         _Mypair._Myval2._Mysize = 0;

  0002e	c7 46 fc 00 00
	00 00		 mov	 DWORD PTR [esi-4], 0

; 4309 :         _Mypair._Myval2._Myres  = _BUF_SIZE - 1;

  00035	c7 06 0f 00 00
	00		 mov	 DWORD PTR [esi], 15	; 0000000fH

; 4310 :         // the _Traits::assign is last so the codegen doesn't think the char write can alias this
; 4311 :         _Traits::assign(_Mypair._Myval2._Bx._Buf[0], _Elem());

  0003b	c6 46 ec 00	 mov	 BYTE PTR [esi-20], 0
; File C:\Program Files (x86)\Microsoft Visual Studio\2019\Community\VC\Tools\MSVC\14.27.29110\include\xmemory

; 959  :         for (; _First != _Last; ++_First) {

  0003f	81 c6 94 00 00
	00		 add	 esi, 148		; 00000094H
  00045	8d 46 ec	 lea	 eax, DWORD PTR [esi-20]
  00048	3b c7		 cmp	 eax, edi
  0004a	75 c6		 jne	 SHORT $LL4@Destroy_ra
$LN3@Destroy_ra:
  0004c	5f		 pop	 edi

; 960  :             allocator_traits<_Alloc>::destroy(_Al, _Unfancy(_First));
; 961  :         }
; 962  :     }
; 963  : }

  0004d	5e		 pop	 esi
  0004e	5d		 pop	 ebp
  0004f	c3		 ret	 0
??$_Destroy_range@V?$allocator@USTerrainTexture@@@std@@@std@@YAXPAUSTerrainTexture@@QAU1@AAV?$allocator@USTerrainTexture@@@0@@Z ENDP ; std::_Destroy_range<std::allocator<STerrainTexture> >
_TEXT	ENDS
; Function compile flags: /Ogtp
; File C:\Program Files (x86)\Microsoft Visual Studio\2019\Community\VC\Tools\MSVC\14.27.29110\include\vector
; File C:\Program Files (x86)\Microsoft Visual Studio\2019\Community\VC\Tools\MSVC\14.27.29110\include\xmemory
; File C:\Program Files (x86)\Microsoft Visual Studio\2019\Community\VC\Tools\MSVC\14.27.29110\include\vector
; File C:\Program Files (x86)\Microsoft Visual Studio\2019\Community\VC\Tools\MSVC\14.27.29110\include\xmemory
; File C:\Program Files (x86)\Microsoft Visual Studio\2019\Community\VC\Tools\MSVC\14.27.29110\include\vector
; File C:\Program Files (x86)\Microsoft Visual Studio\2019\Community\VC\Tools\MSVC\14.27.29110\include\xmemory
; File C:\Program Files (x86)\Microsoft Visual Studio\2019\Community\VC\Tools\MSVC\14.27.29110\include\vector
; File C:\Program Files (x86)\Microsoft Visual Studio\2019\Community\VC\Tools\MSVC\14.27.29110\include\xmemory
; File C:\Program Files (x86)\Microsoft Visual Studio\2019\Community\VC\Tools\MSVC\14.27.29110\include\vector
;	COMDAT ??$_Emplace_reallocate@ABUSTerrainTexture@@@?$vector@USTerrainTexture@@V?$allocator@USTerrainTexture@@@std@@@std@@QAEPAUSTerrainTexture@@QAU2@ABU2@@Z
_TEXT	SEGMENT
__Newvec$ = -44						; size = 4
_this$ = -40						; size = 4
__Oldsize$1$ = -36					; size = 4
__Newcapacity$ = -32					; size = 4
__Whereoff$1$ = -28					; size = 4
__Constructed_last$ = -28				; size = 4
tv278 = -24						; size = 4
__Constructed_first$ = -20				; size = 4
__$EHRec$ = -16						; size = 16
__Whereptr$ = 8						; size = 4
_<_Val_0>$ = 12						; size = 4
??$_Emplace_reallocate@ABUSTerrainTexture@@@?$vector@USTerrainTexture@@V?$allocator@USTerrainTexture@@@std@@@std@@QAEPAUSTerrainTexture@@QAU2@ABU2@@Z PROC ; std::vector<STerrainTexture,std::allocator<STerrainTexture> >::_Emplace_reallocate<STerrainTexture const &>, COMDAT
; _this$ = ecx

; 725  :     pointer _Emplace_reallocate(const pointer _Whereptr, _Valty&&... _Val) {

  00000	55		 push	 ebp
  00001	8b ec		 mov	 ebp, esp
  00003	6a ff		 push	 -1
  00005	68 00 00 00 00	 push	 __ehhandler$??$_Emplace_reallocate@ABUSTerrainTexture@@@?$vector@USTerrainTexture@@V?$allocator@USTerrainTexture@@@std@@@std@@QAEPAUSTerrainTexture@@QAU2@ABU2@@Z
  0000a	64 a1 00 00 00
	00		 mov	 eax, DWORD PTR fs:0
  00010	50		 push	 eax
  00011	83 ec 20	 sub	 esp, 32			; 00000020H
  00014	53		 push	 ebx
  00015	56		 push	 esi
  00016	57		 push	 edi
  00017	a1 00 00 00 00	 mov	 eax, DWORD PTR ___security_cookie
  0001c	33 c5		 xor	 eax, ebp
  0001e	50		 push	 eax
  0001f	8d 45 f4	 lea	 eax, DWORD PTR __$EHRec$[ebp+4]
  00022	64 a3 00 00 00
	00		 mov	 DWORD PTR fs:0, eax
  00028	89 65 f0	 mov	 DWORD PTR __$EHRec$[ebp], esp
  0002b	8b f9		 mov	 edi, ecx
  0002d	89 7d d8	 mov	 DWORD PTR _this$[ebp], edi

; 726  :         // reallocate and insert by perfectly forwarding _Val at _Whereptr
; 727  :         _Alty& _Al        = _Getal();
; 728  :         auto& _My_data    = _Mypair._Myval2;
; 729  :         pointer& _Myfirst = _My_data._Myfirst;
; 730  :         pointer& _Mylast  = _My_data._Mylast;
; 731  : 
; 732  :         _STL_INTERNAL_CHECK(_Mylast == _My_data._Myend); // check that we have no unused capacity
; 733  : 
; 734  :         const auto _Whereoff = static_cast<size_type>(_Whereptr - _Myfirst);

  00030	8b 75 08	 mov	 esi, DWORD PTR __Whereptr$[ebp]
  00033	b8 a7 c8 67 dd	 mov	 eax, -580400985		; dd67c8a7H
  00038	2b 37		 sub	 esi, DWORD PTR [edi]

; 735  :         const auto _Oldsize  = static_cast<size_type>(_Mylast - _Myfirst);

  0003a	8b 4f 04	 mov	 ecx, DWORD PTR [edi+4]
  0003d	2b 0f		 sub	 ecx, DWORD PTR [edi]
  0003f	f7 ee		 imul	 esi
  00041	03 d6		 add	 edx, esi
  00043	c1 fa 07	 sar	 edx, 7
  00046	8b c2		 mov	 eax, edx
  00048	c1 e8 1f	 shr	 eax, 31			; 0000001fH
  0004b	03 c2		 add	 eax, edx
  0004d	89 45 e4	 mov	 DWORD PTR __Whereoff$1$[ebp], eax
  00050	b8 a7 c8 67 dd	 mov	 eax, -580400985		; dd67c8a7H
  00055	f7 e9		 imul	 ecx
  00057	03 d1		 add	 edx, ecx
  00059	c1 fa 07	 sar	 edx, 7
  0005c	8b c2		 mov	 eax, edx
  0005e	c1 e8 1f	 shr	 eax, 31			; 0000001fH
  00061	03 c2		 add	 eax, edx
  00063	89 45 dc	 mov	 DWORD PTR __Oldsize$1$[ebp], eax

; 736  : 
; 737  :         if (_Oldsize == max_size()) {

  00066	3d 91 cf ba 01	 cmp	 eax, 29020049		; 01bacf91H
  0006b	0f 84 0b 01 00
	00		 je	 $LN38@Emplace_re

; 1494 :         return static_cast<size_type>(_My_data._Myend - _My_data._Myfirst);

  00071	8b 4f 08	 mov	 ecx, DWORD PTR [edi+8]

; 739  :         }
; 740  : 
; 741  :         const size_type _Newsize     = _Oldsize + 1;

  00074	8d 58 01	 lea	 ebx, DWORD PTR [eax+1]

; 1494 :         return static_cast<size_type>(_My_data._Myend - _My_data._Myfirst);

  00077	2b 0f		 sub	 ecx, DWORD PTR [edi]
  00079	b8 a7 c8 67 dd	 mov	 eax, -580400985		; dd67c8a7H
  0007e	f7 e9		 imul	 ecx

; 1619 :         if (_Oldcapacity > max_size() - _Oldcapacity / 2) {

  00080	b8 91 cf ba 01	 mov	 eax, 29020049		; 01bacf91H

; 1494 :         return static_cast<size_type>(_My_data._Myend - _My_data._Myfirst);

  00085	03 d1		 add	 edx, ecx
  00087	c1 fa 07	 sar	 edx, 7
  0008a	8b ca		 mov	 ecx, edx
  0008c	c1 e9 1f	 shr	 ecx, 31			; 0000001fH
  0008f	03 ca		 add	 ecx, edx

; 1619 :         if (_Oldcapacity > max_size() - _Oldcapacity / 2) {

  00091	8b d1		 mov	 edx, ecx
  00093	d1 ea		 shr	 edx, 1
  00095	2b c2		 sub	 eax, edx
  00097	3b c8		 cmp	 ecx, eax
  00099	76 07		 jbe	 SHORT $LN12@Emplace_re

; 1620 :             return _Newsize; // geometric growth would overflow

  0009b	8b f3		 mov	 esi, ebx
  0009d	89 5d e0	 mov	 DWORD PTR __Newcapacity$[ebp], ebx
  000a0	eb 0b		 jmp	 SHORT $LN13@Emplace_re
$LN12@Emplace_re:

; 1621 :         }
; 1622 : 
; 1623 :         const size_type _Geometric = _Oldcapacity + _Oldcapacity / 2;

  000a2	8d 34 0a	 lea	 esi, DWORD PTR [edx+ecx]

; 1624 : 
; 1625 :         if (_Geometric < _Newsize) {

  000a5	3b f3		 cmp	 esi, ebx
  000a7	0f 42 f3	 cmovb	 esi, ebx
  000aa	89 75 e0	 mov	 DWORD PTR __Newcapacity$[ebp], esi
$LN13@Emplace_re:
; File C:\Program Files (x86)\Microsoft Visual Studio\2019\Community\VC\Tools\MSVC\14.27.29110\include\xmemory

; 60   :         if (_Count > _Max_possible) {

  000ad	81 fe 91 cf ba
	01		 cmp	 esi, 29020049		; 01bacf91H
  000b3	0f 87 c8 00 00
	00		 ja	 $LN39@Emplace_re

; 62   :         }
; 63   :     }
; 64   : 
; 65   :     return _Count * _Ty_size;

  000b9	69 c6 94 00 00
	00		 imul	 eax, esi, 148

; 807  :         return static_cast<_Ty*>(_Allocate<_New_alignof<_Ty>>(_Get_size_of_n<sizeof(_Ty)>(_Count)));

  000bf	50		 push	 eax
  000c0	e8 00 00 00 00	 call	 ??$_Allocate@$07U_Default_allocate_traits@std@@$0A@@std@@YAPAXI@Z ; std::_Allocate<8,std::_Default_allocate_traits,0>
  000c5	8b d8		 mov	 ebx, eax
; File C:\Program Files (x86)\Microsoft Visual Studio\2019\Community\VC\Tools\MSVC\14.27.29110\include\vector

; 748  :         _TRY_BEGIN

  000c7	c7 45 fc 00 00
	00 00		 mov	 DWORD PTR __$EHRec$[ebp+12], 0
  000ce	69 45 e4 94 00
	00 00		 imul	 eax, DWORD PTR __Whereoff$1$[ebp], 148
; File C:\Program Files (x86)\Microsoft Visual Studio\2019\Community\VC\Tools\MSVC\14.27.29110\include\xmemory

; 807  :         return static_cast<_Ty*>(_Allocate<_New_alignof<_Ty>>(_Get_size_of_n<sizeof(_Ty)>(_Count)));

  000d5	83 c4 04	 add	 esp, 4
  000d8	89 5d d4	 mov	 DWORD PTR __Newvec$[ebp], ebx

; 694  :         ::new (const_cast<void*>(static_cast<const volatile void*>(_Ptr))) _Objty(_STD forward<_Types>(_Args)...);

  000db	ff 75 0c	 push	 DWORD PTR _<_Val_0>$[ebp]
; File C:\Program Files (x86)\Microsoft Visual Studio\2019\Community\VC\Tools\MSVC\14.27.29110\include\vector

; 745  :         const pointer _Constructed_last = _Newvec + _Whereoff + 1;

  000de	03 c3		 add	 eax, ebx
  000e0	89 45 e8	 mov	 DWORD PTR tv278[ebp], eax
  000e3	8d 88 94 00 00
	00		 lea	 ecx, DWORD PTR [eax+148]
  000e9	89 4d e4	 mov	 DWORD PTR __Constructed_last$[ebp], ecx

; 746  :         pointer _Constructed_first      = _Constructed_last;

  000ec	89 4d ec	 mov	 DWORD PTR __Constructed_first$[ebp], ecx
; File C:\Program Files (x86)\Microsoft Visual Studio\2019\Community\VC\Tools\MSVC\14.27.29110\include\xmemory

; 694  :         ::new (const_cast<void*>(static_cast<const volatile void*>(_Ptr))) _Objty(_STD forward<_Types>(_Args)...);

  000ef	8b c8		 mov	 ecx, eax
  000f1	e8 00 00 00 00	 call	 ??0STerrainTexture@@QAE@ABU0@@Z
; File C:\Program Files (x86)\Microsoft Visual Studio\2019\Community\VC\Tools\MSVC\14.27.29110\include\vector

; 750  :         _Constructed_first = _Newvec + _Whereoff;

  000f6	8b 45 e8	 mov	 eax, DWORD PTR tv278[ebp]

; 751  : 
; 752  :         if (_Whereptr == _Mylast) { // at back, provide strong guarantee

  000f9	8b 4f 04	 mov	 ecx, DWORD PTR [edi+4]
  000fc	8b 55 08	 mov	 edx, DWORD PTR __Whereptr$[ebp]
  000ff	89 45 ec	 mov	 DWORD PTR __Constructed_first$[ebp], eax
  00102	8b 07		 mov	 eax, DWORD PTR [edi]
  00104	57		 push	 edi
  00105	53		 push	 ebx
  00106	3b d1		 cmp	 edx, ecx
  00108	75 09		 jne	 SHORT $LN4@Emplace_re

; 1602 :         _Uninitialized_copy(_First, _Last, _Dest, _Getal());

  0010a	51		 push	 ecx
  0010b	50		 push	 eax
  0010c	e8 00 00 00 00	 call	 ??$_Uninitialized_copy@PAUSTerrainTexture@@V?$allocator@USTerrainTexture@@@std@@@std@@YAPAUSTerrainTexture@@QAU1@0PAU1@AAV?$allocator@USTerrainTexture@@@0@@Z ; std::_Uninitialized_copy<STerrainTexture *,std::allocator<STerrainTexture> >

; 753  :             _Umove_if_noexcept(_Myfirst, _Mylast, _Newvec);
; 754  :         } else { // provide basic guarantee

  00111	eb 1c		 jmp	 SHORT $LN36@Emplace_re
$LN4@Emplace_re:

; 1592 :         return _Uninitialized_move(_First, _Last, _Dest, _Getal());

  00113	52		 push	 edx
  00114	50		 push	 eax
  00115	e8 00 00 00 00	 call	 ??$_Uninitialized_move@PAUSTerrainTexture@@V?$allocator@USTerrainTexture@@@std@@@std@@YAPAUSTerrainTexture@@QAU1@0PAU1@AAV?$allocator@USTerrainTexture@@@0@@Z ; std::_Uninitialized_move<STerrainTexture *,std::allocator<STerrainTexture> >
  0011a	83 c4 10	 add	 esp, 16			; 00000010H

; 755  :             _Umove(_Myfirst, _Whereptr, _Newvec);
; 756  :             _Constructed_first = _Newvec;

  0011d	89 5d ec	 mov	 DWORD PTR __Constructed_first$[ebp], ebx

; 1592 :         return _Uninitialized_move(_First, _Last, _Dest, _Getal());

  00120	57		 push	 edi
  00121	ff 75 e4	 push	 DWORD PTR __Constructed_last$[ebp]
  00124	ff 77 04	 push	 DWORD PTR [edi+4]
  00127	ff 75 08	 push	 DWORD PTR __Whereptr$[ebp]
  0012a	e8 00 00 00 00	 call	 ??$_Uninitialized_move@PAUSTerrainTexture@@V?$allocator@USTerrainTexture@@@std@@@std@@YAPAUSTerrainTexture@@QAU1@0PAU1@AAV?$allocator@USTerrainTexture@@@0@@Z ; std::_Uninitialized_move<STerrainTexture *,std::allocator<STerrainTexture> >
$LN36@Emplace_re:

; 763  :         _CATCH_END
; 764  : 
; 765  :         _Change_array(_Newvec, _Newsize, _Newcapacity);

  0012f	8b 45 dc	 mov	 eax, DWORD PTR __Oldsize$1$[ebp]
  00132	83 c4 10	 add	 esp, 16			; 00000010H
  00135	40		 inc	 eax
  00136	8b cf		 mov	 ecx, edi
  00138	56		 push	 esi
  00139	50		 push	 eax
  0013a	53		 push	 ebx
  0013b	e8 00 00 00 00	 call	 ?_Change_array@?$vector@USTerrainTexture@@V?$allocator@USTerrainTexture@@@std@@@std@@AAEXQAUSTerrainTexture@@II@Z ; std::vector<STerrainTexture,std::allocator<STerrainTexture> >::_Change_array

; 766  :         return _Newvec + _Whereoff;

  00140	8b 45 e8	 mov	 eax, DWORD PTR tv278[ebp]

; 767  :     }

  00143	8b 4d f4	 mov	 ecx, DWORD PTR __$EHRec$[ebp+4]
  00146	64 89 0d 00 00
	00 00		 mov	 DWORD PTR fs:0, ecx
  0014d	59		 pop	 ecx
  0014e	5f		 pop	 edi
  0014f	5e		 pop	 esi
  00150	5b		 pop	 ebx
  00151	8b e5		 mov	 esp, ebp
  00153	5d		 pop	 ebp
  00154	c2 08 00	 ret	 8
__catch$??$_Emplace_reallocate@ABUSTerrainTexture@@@?$vector@USTerrainTexture@@V?$allocator@USTerrainTexture@@@std@@@std@@QAEPAUSTerrainTexture@@QAU2@ABU2@@Z$0:

; 757  :             _Umove(_Whereptr, _Mylast, _Newvec + _Whereoff + 1);
; 758  :         }
; 759  :         _CATCH_ALL
; 760  :         _Destroy(_Constructed_first, _Constructed_last);

  00157	ff 75 e4	 push	 DWORD PTR __Constructed_last$[ebp]
  0015a	8b 4d d8	 mov	 ecx, DWORD PTR _this$[ebp]
  0015d	ff 75 ec	 push	 DWORD PTR __Constructed_first$[ebp]
  00160	e8 00 00 00 00	 call	 ?_Destroy@?$vector@USTerrainTexture@@V?$allocator@USTerrainTexture@@@std@@@std@@AAEXPAUSTerrainTexture@@0@Z ; std::vector<STerrainTexture,std::allocator<STerrainTexture> >::_Destroy

; 761  :         _Al.deallocate(_Newvec, _Newcapacity);

  00165	ff 75 e0	 push	 DWORD PTR __Newcapacity$[ebp]
  00168	8b 4d d8	 mov	 ecx, DWORD PTR _this$[ebp]
  0016b	ff 75 d4	 push	 DWORD PTR __Newvec$[ebp]
  0016e	e8 00 00 00 00	 call	 ?deallocate@?$allocator@USTerrainTexture@@@std@@QAEXQAUSTerrainTexture@@I@Z ; std::allocator<STerrainTexture>::deallocate

; 762  :         _RERAISE;

  00173	6a 00		 push	 0
  00175	6a 00		 push	 0
  00177	e8 00 00 00 00	 call	 __CxxThrowException@8
$LN38@Emplace_re:

; 738  :             _Xlength();

  0017c	e8 00 00 00 00	 call	 ?_Xlength@?$vector@USTerrainTexture@@V?$allocator@USTerrainTexture@@@std@@@std@@CAXXZ ; std::vector<STerrainTexture,std::allocator<STerrainTexture> >::_Xlength
$LN39@Emplace_re:
; File C:\Program Files (x86)\Microsoft Visual Studio\2019\Community\VC\Tools\MSVC\14.27.29110\include\xmemory

; 61   :             _Throw_bad_array_new_length(); // multiply overflow

  00181	e8 00 00 00 00	 call	 ?_Throw_bad_array_new_length@std@@YAXXZ ; std::_Throw_bad_array_new_length
$LN35@Emplace_re:
  00186	cc		 int	 3
  00187	cc		 int	 3
  00188	cc		 int	 3
  00189	cc		 int	 3
  0018a	cc		 int	 3
  0018b	cc		 int	 3
_TEXT	ENDS
;	COMDAT text$x
text$x	SEGMENT
__ehhandler$??$_Emplace_reallocate@ABUSTerrainTexture@@@?$vector@USTerrainTexture@@V?$allocator@USTerrainTexture@@@std@@@std@@QAEPAUSTerrainTexture@@QAU2@ABU2@@Z:
  00000	90		 npad	 1
  00001	90		 npad	 1
  00002	8b 54 24 08	 mov	 edx, DWORD PTR [esp+8]
  00006	8d 42 0c	 lea	 eax, DWORD PTR [edx+12]
  00009	8b 4a d0	 mov	 ecx, DWORD PTR [edx-48]
  0000c	33 c8		 xor	 ecx, eax
  0000e	e8 00 00 00 00	 call	 @__security_check_cookie@4
  00013	b8 00 00 00 00	 mov	 eax, OFFSET __ehfuncinfo$??$_Emplace_reallocate@ABUSTerrainTexture@@@?$vector@USTerrainTexture@@V?$allocator@USTerrainTexture@@@std@@@std@@QAEPAUSTerrainTexture@@QAU2@ABU2@@Z
  00018	e9 00 00 00 00	 jmp	 ___CxxFrameHandler3
text$x	ENDS
??$_Emplace_reallocate@ABUSTerrainTexture@@@?$vector@USTerrainTexture@@V?$allocator@USTerrainTexture@@@std@@@std@@QAEPAUSTerrainTexture@@QAU2@ABU2@@Z ENDP ; std::vector<STerrainTexture,std::allocator<STerrainTexture> >::_Emplace_reallocate<STerrainTexture const &>
; Function compile flags: /Ogtp
; File C:\Program Files (x86)\Microsoft Visual Studio\2019\Community\VC\Tools\MSVC\14.27.29110\include\vector
; File C:\Program Files (x86)\Microsoft Visual Studio\2019\Community\VC\Tools\MSVC\14.27.29110\include\xmemory
; File C:\Program Files (x86)\Microsoft Visual Studio\2019\Community\VC\Tools\MSVC\14.27.29110\include\vector
; File C:\Program Files (x86)\Microsoft Visual Studio\2019\Community\VC\Tools\MSVC\14.27.29110\include\xmemory
; File C:\Program Files (x86)\Microsoft Visual Studio\2019\Community\VC\Tools\MSVC\14.27.29110\include\vector
; File C:\Program Files (x86)\Microsoft Visual Studio\2019\Community\VC\Tools\MSVC\14.27.29110\include\xstring
; File C:\Program Files (x86)\Microsoft Visual Studio\2019\Community\VC\Tools\MSVC\14.27.29110\include\xmemory
; File C:\Program Files (x86)\Microsoft Visual Studio\2019\Community\VC\Tools\MSVC\14.27.29110\include\xstring
;	COMDAT ??1?$pair@$$CBV?$basic_string@DU?$char_traits@D@std@@V?$allocator@D@2@@std@@V?$vector@V?$basic_string@DU?$char_traits@D@std@@V?$allocator@D@2@@std@@V?$allocator@V?$basic_string@DU?$char_traits@D@std@@V?$allocator@D@2@@std@@@2@@2@@std@@QAE@XZ
_TEXT	SEGMENT
??1?$pair@$$CBV?$basic_string@DU?$char_traits@D@std@@V?$allocator@D@2@@std@@V?$vector@V?$basic_string@DU?$char_traits@D@std@@V?$allocator@D@2@@std@@V?$allocator@V?$basic_string@DU?$char_traits@D@std@@V?$allocator@D@2@@std@@@2@@2@@std@@QAE@XZ PROC ; std::pair<std::basic_string<char,std::char_traits<char>,std::allocator<char> > const ,std::vector<std::basic_string<char,std::char_traits<char>,std::allocator<char> >,std::allocator<std::basic_string<char,std::char_traits<char>,std::allocator<char> > > > >::~pair<std::basic_string<char,std::char_traits<char>,std::allocator<char> > const ,std::vector<std::basic_string<char,std::char_traits<char>,std::allocator<char> >,std::allocator<std::basic_string<char,std::char_traits<char>,std::allocator<char> > > > >, COMDAT
; _this$ = ecx
; File C:\Program Files (x86)\Microsoft Visual Studio\2019\Community\VC\Tools\MSVC\14.27.29110\include\vector

; 1693 :         if (_Myfirst) { // destroy and deallocate old array

  00000	53		 push	 ebx
  00001	57		 push	 edi
  00002	8b f9		 mov	 edi, ecx
  00004	8b 47 18	 mov	 eax, DWORD PTR [edi+24]
  00007	8d 5f 18	 lea	 ebx, DWORD PTR [edi+24]
  0000a	85 c0		 test	 eax, eax
  0000c	74 45		 je	 SHORT $LN6@pair

; 1612 :         _Destroy_range(_First, _Last, _Getal());

  0000e	53		 push	 ebx
  0000f	ff 73 04	 push	 DWORD PTR [ebx+4]
  00012	50		 push	 eax
  00013	e8 00 00 00 00	 call	 ??$_Destroy_range@V?$allocator@V?$basic_string@DU?$char_traits@D@std@@V?$allocator@D@2@@std@@@std@@@std@@YAXPAV?$basic_string@DU?$char_traits@D@std@@V?$allocator@D@2@@0@QAV10@AAV?$allocator@V?$basic_string@DU?$char_traits@D@std@@V?$allocator@D@2@@std@@@0@@Z ; std::_Destroy_range<std::allocator<std::basic_string<char,std::char_traits<char>,std::allocator<char> > > >

; 1695 :             _Getal().deallocate(_Myfirst, static_cast<size_type>(_Myend - _Myfirst));

  00018	8b 4b 08	 mov	 ecx, DWORD PTR [ebx+8]
  0001b	b8 ab aa aa 2a	 mov	 eax, 715827883		; 2aaaaaabH
  00020	2b 0b		 sub	 ecx, DWORD PTR [ebx]
  00022	f7 e9		 imul	 ecx
  00024	c1 fa 02	 sar	 edx, 2
  00027	8b c2		 mov	 eax, edx
  00029	c1 e8 1f	 shr	 eax, 31			; 0000001fH
  0002c	03 c2		 add	 eax, edx
; File C:\Program Files (x86)\Microsoft Visual Studio\2019\Community\VC\Tools\MSVC\14.27.29110\include\xmemory

; 803  :         _Deallocate<_New_alignof<_Ty>>(_Ptr, sizeof(_Ty) * _Count);

  0002e	8d 04 40	 lea	 eax, DWORD PTR [eax+eax*2]
  00031	c1 e0 03	 shl	 eax, 3
  00034	50		 push	 eax
  00035	ff 33		 push	 DWORD PTR [ebx]
  00037	e8 00 00 00 00	 call	 ??$_Deallocate@$07$0A@@std@@YAXPAXI@Z ; std::_Deallocate<8,0>
; File C:\Program Files (x86)\Microsoft Visual Studio\2019\Community\VC\Tools\MSVC\14.27.29110\include\vector

; 1697 :             _Myfirst = pointer();

  0003c	c7 03 00 00 00
	00		 mov	 DWORD PTR [ebx], 0
; File C:\Program Files (x86)\Microsoft Visual Studio\2019\Community\VC\Tools\MSVC\14.27.29110\include\xmemory

; 803  :         _Deallocate<_New_alignof<_Ty>>(_Ptr, sizeof(_Ty) * _Count);

  00042	83 c4 14	 add	 esp, 20			; 00000014H
; File C:\Program Files (x86)\Microsoft Visual Studio\2019\Community\VC\Tools\MSVC\14.27.29110\include\vector

; 1698 :             _Mylast  = pointer();

  00045	c7 43 04 00 00
	00 00		 mov	 DWORD PTR [ebx+4], 0

; 1699 :             _Myend   = pointer();

  0004c	c7 43 08 00 00
	00 00		 mov	 DWORD PTR [ebx+8], 0
$LN6@pair:
; File C:\Program Files (x86)\Microsoft Visual Studio\2019\Community\VC\Tools\MSVC\14.27.29110\include\xstring

; 2153 :         return _BUF_SIZE <= _Myres;

  00053	8b 47 14	 mov	 eax, DWORD PTR [edi+20]
  00056	83 f8 10	 cmp	 eax, 16			; 00000010H

; 4301 :         if (_Mypair._Myval2._Large_string_engaged()) {

  00059	72 0c		 jb	 SHORT $LN16@pair

; 4302 :             const pointer _Ptr = _Mypair._Myval2._Bx._Ptr;
; 4303 :             auto& _Al          = _Getal();
; 4304 :             _Destroy_in_place(_Mypair._Myval2._Bx._Ptr);
; 4305 :             _Al.deallocate(_Ptr, _Mypair._Myval2._Myres + 1);

  0005b	40		 inc	 eax
; File C:\Program Files (x86)\Microsoft Visual Studio\2019\Community\VC\Tools\MSVC\14.27.29110\include\xmemory

; 803  :         _Deallocate<_New_alignof<_Ty>>(_Ptr, sizeof(_Ty) * _Count);

  0005c	50		 push	 eax
  0005d	ff 37		 push	 DWORD PTR [edi]
  0005f	e8 00 00 00 00	 call	 ??$_Deallocate@$07$0A@@std@@YAXPAXI@Z ; std::_Deallocate<8,0>
  00064	83 c4 08	 add	 esp, 8
$LN16@pair:
; File C:\Program Files (x86)\Microsoft Visual Studio\2019\Community\VC\Tools\MSVC\14.27.29110\include\xstring

; 4308 :         _Mypair._Myval2._Mysize = 0;

  00067	c7 47 10 00 00
	00 00		 mov	 DWORD PTR [edi+16], 0

; 4309 :         _Mypair._Myval2._Myres  = _BUF_SIZE - 1;

  0006e	c7 47 14 0f 00
	00 00		 mov	 DWORD PTR [edi+20], 15	; 0000000fH

; 4310 :         // the _Traits::assign is last so the codegen doesn't think the char write can alias this
; 4311 :         _Traits::assign(_Mypair._Myval2._Bx._Buf[0], _Elem());

  00075	c6 07 00	 mov	 BYTE PTR [edi], 0
  00078	5f		 pop	 edi
  00079	5b		 pop	 ebx
  0007a	c3		 ret	 0
??1?$pair@$$CBV?$basic_string@DU?$char_traits@D@std@@V?$allocator@D@2@@std@@V?$vector@V?$basic_string@DU?$char_traits@D@std@@V?$allocator@D@2@@std@@V?$allocator@V?$basic_string@DU?$char_traits@D@std@@V?$allocator@D@2@@std@@@2@@2@@std@@QAE@XZ ENDP ; std::pair<std::basic_string<char,std::char_traits<char>,std::allocator<char> > const ,std::vector<std::basic_string<char,std::char_traits<char>,std::allocator<char> >,std::allocator<std::basic_string<char,std::char_traits<char>,std::allocator<char> > > > >::~pair<std::basic_string<char,std::char_traits<char>,std::allocator<char> > const ,std::vector<std::basic_string<char,std::char_traits<char>,std::allocator<char> >,std::allocator<std::basic_string<char,std::char_traits<char>,std::allocator<char> > > > >
_TEXT	ENDS
; Function compile flags: /Ogtp
; File C:\Program Files (x86)\Microsoft Visual Studio\2019\Community\VC\Tools\MSVC\14.27.29110\include\xtree
; File C:\Program Files (x86)\Microsoft Visual Studio\2019\Community\VC\Tools\MSVC\14.27.29110\include\xmemory
;	COMDAT ??1?$map@V?$basic_string@DU?$char_traits@D@std@@V?$allocator@D@2@@std@@V?$vector@V?$basic_string@DU?$char_traits@D@std@@V?$allocator@D@2@@std@@V?$allocator@V?$basic_string@DU?$char_traits@D@std@@V?$allocator@D@2@@std@@@2@@2@U?$less@V?$basic_string@DU?$char_traits@D@std@@V?$allocator@D@2@@std@@@2@V?$allocator@U?$pair@$$CBV?$basic_string@DU?$char_traits@D@std@@V?$allocator@D@2@@std@@V?$vector@V?$basic_string@DU?$char_traits@D@std@@V?$allocator@D@2@@std@@V?$allocator@V?$basic_string@DU?$char_traits@D@std@@V?$allocator@D@2@@std@@@2@@2@@std@@@2@@std@@QAE@XZ
_TEXT	SEGMENT
??1?$map@V?$basic_string@DU?$char_traits@D@std@@V?$allocator@D@2@@std@@V?$vector@V?$basic_string@DU?$char_traits@D@std@@V?$allocator@D@2@@std@@V?$allocator@V?$basic_string@DU?$char_traits@D@std@@V?$allocator@D@2@@std@@@2@@2@U?$less@V?$basic_string@DU?$char_traits@D@std@@V?$allocator@D@2@@std@@@2@V?$allocator@U?$pair@$$CBV?$basic_string@DU?$char_traits@D@std@@V?$allocator@D@2@@std@@V?$vector@V?$basic_string@DU?$char_traits@D@std@@V?$allocator@D@2@@std@@V?$allocator@V?$basic_string@DU?$char_traits@D@std@@V?$allocator@D@2@@std@@@2@@2@@std@@@2@@std@@QAE@XZ PROC ; std::map<std::basic_string<char,std::char_traits<char>,std::allocator<char> >,std::vector<std::basic_string<char,std::char_traits<char>,std::allocator<char> >,std::allocator<std::basic_string<char,std::char_traits<char>,std::allocator<char> > > >,std::less<std::basic_string<char,std::char_traits<char>,std::allocator<char> > >,std::allocator<std::pair<std::basic_string<char,std::char_traits<char>,std::allocator<char> > const ,std::vector<std::basic_string<char,std::char_traits<char>,std::allocator<char> >,std::allocator<std::basic_string<char,std::char_traits<char>,std::allocator<char> > > > > > >::~map<std::basic_string<char,std::char_traits<char>,std::allocator<char> >,std::vector<std::basic_string<char,std::char_traits<char>,std::allocator<char> >,std::allocator<std::basic_string<char,std::char_traits<char>,std::allocator<char> > > >,std::less<std::basic_string<char,std::char_traits<char>,std::allocator<char> > >,std::allocator<std::pair<std::basic_string<char,std::char_traits<char>,std::allocator<char> > const ,std::vector<std::basic_string<char,std::char_traits<char>,std::allocator<char> >,std::allocator<std::basic_string<char,std::char_traits<char>,std::allocator<char> > > > > > >, COMDAT
; _this$ = ecx
; File C:\Program Files (x86)\Microsoft Visual Studio\2019\Community\VC\Tools\MSVC\14.27.29110\include\xtree

; 752  :         _Erase_tree(_Al, _Myhead->_Parent);

  00000	56		 push	 esi
  00001	8b f1		 mov	 esi, ecx
  00003	8b 06		 mov	 eax, DWORD PTR [esi]
  00005	ff 70 04	 push	 DWORD PTR [eax+4]
  00008	56		 push	 esi
  00009	e8 00 00 00 00	 call	 ??$_Erase_tree@V?$allocator@U?$_Tree_node@U?$pair@$$CBV?$basic_string@DU?$char_traits@D@std@@V?$allocator@D@2@@std@@V?$vector@V?$basic_string@DU?$char_traits@D@std@@V?$allocator@D@2@@std@@V?$allocator@V?$basic_string@DU?$char_traits@D@std@@V?$allocator@D@2@@std@@@2@@2@@std@@PAX@std@@@std@@@?$_Tree_val@U?$_Tree_simple_types@U?$pair@$$CBV?$basic_string@DU?$char_traits@D@std@@V?$allocator@D@2@@std@@V?$vector@V?$basic_string@DU?$char_traits@D@std@@V?$allocator@D@2@@std@@V?$allocator@V?$basic_string@DU?$char_traits@D@std@@V?$allocator@D@2@@std@@@2@@2@@std@@@std@@@std@@QAEXAAV?$allocator@U?$_Tree_node@U?$pair@$$CBV?$basic_string@DU?$char_traits@D@std@@V?$allocator@D@2@@std@@V?$vector@V?$basic_string@DU?$char_traits@D@std@@V?$allocator@D@2@@std@@V?$allocator@V?$basic_string@DU?$char_traits@D@std@@V?$allocator@D@2@@std@@@2@@2@@std@@PAX@std@@@1@PAU?$_Tree_node@U?$pair@$$CBV?$basic_string@DU?$char_traits@D@std@@V?$allocator@D@2@@std@@V?$vector@V?$basic_string@DU?$char_traits@D@std@@V?$allocator@D@2@@std@@V?$allocator@V?$basic_string@DU?$char_traits@D@std@@V?$allocator@D@2@@std@@@2@@2@@std@@PAX@1@@Z ; std::_Tree_val<std::_Tree_simple_types<std::pair<std::basic_string<char,std::char_traits<char>,std::allocator<char> > const ,std::vector<std::basic_string<char,std::char_traits<char>,std::allocator<char> >,std::allocator<std::basic_string<char,std::char_traits<char>,std::allocator<char> > > > > > >::_Erase_tree<std::allocator<std::_Tree_node<std::pair<std::basic_string<char,std::char_traits<char>,std::allocator<char> > const ,std::vector<std::basic_string<char,std::char_traits<char>,std::allocator<char> >,std::allocator<std::basic_string<char,std::char_traits<char>,std::allocator<char> > > > >,void *> > >
; File C:\Program Files (x86)\Microsoft Visual Studio\2019\Community\VC\Tools\MSVC\14.27.29110\include\xmemory

; 689  :         _Deallocate<_New_alignof<value_type>>(_Ptr, sizeof(value_type) * _Count);

  0000e	6a 34		 push	 52			; 00000034H
  00010	ff 36		 push	 DWORD PTR [esi]
  00012	e8 00 00 00 00	 call	 ??$_Deallocate@$07$0A@@std@@YAXPAXI@Z ; std::_Deallocate<8,0>
  00017	83 c4 08	 add	 esp, 8
  0001a	5e		 pop	 esi
  0001b	c3		 ret	 0
??1?$map@V?$basic_string@DU?$char_traits@D@std@@V?$allocator@D@2@@std@@V?$vector@V?$basic_string@DU?$char_traits@D@std@@V?$allocator@D@2@@std@@V?$allocator@V?$basic_string@DU?$char_traits@D@std@@V?$allocator@D@2@@std@@@2@@2@U?$less@V?$basic_string@DU?$char_traits@D@std@@V?$allocator@D@2@@std@@@2@V?$allocator@U?$pair@$$CBV?$basic_string@DU?$char_traits@D@std@@V?$allocator@D@2@@std@@V?$vector@V?$basic_string@DU?$char_traits@D@std@@V?$allocator@D@2@@std@@V?$allocator@V?$basic_string@DU?$char_traits@D@std@@V?$allocator@D@2@@std@@@2@@2@@std@@@2@@std@@QAE@XZ ENDP ; std::map<std::basic_string<char,std::char_traits<char>,std::allocator<char> >,std::vector<std::basic_string<char,std::char_traits<char>,std::allocator<char> >,std::allocator<std::basic_string<char,std::char_traits<char>,std::allocator<char> > > >,std::less<std::basic_string<char,std::char_traits<char>,std::allocator<char> > >,std::allocator<std::pair<std::basic_string<char,std::char_traits<char>,std::allocator<char> > const ,std::vector<std::basic_string<char,std::char_traits<char>,std::allocator<char> >,std::allocator<std::basic_string<char,std::char_traits<char>,std::allocator<char> > > > > > >::~map<std::basic_string<char,std::char_traits<char>,std::allocator<char> >,std::vector<std::basic_string<char,std::char_traits<char>,std::allocator<char> >,std::allocator<std::basic_string<char,std::char_traits<char>,std::allocator<char> > > >,std::less<std::basic_string<char,std::char_traits<char>,std::allocator<char> > >,std::allocator<std::pair<std::basic_string<char,std::char_traits<char>,std::allocator<char> > const ,std::vector<std::basic_string<char,std::char_traits<char>,std::allocator<char> >,std::allocator<std::basic_string<char,std::char_traits<char>,std::allocator<char> > > > > > >
_TEXT	ENDS
; Function compile flags: /Ogtp
; File C:\Program Files (x86)\Microsoft Visual Studio\2019\Community\VC\Tools\MSVC\14.27.29110\include\xtree
;	COMDAT ?_Insert_node@?$_Tree_val@U?$_Tree_simple_types@U?$pair@$$CBV?$basic_string@DU?$char_traits@D@std@@V?$allocator@D@2@@std@@V?$vector@V?$basic_string@DU?$char_traits@D@std@@V?$allocator@D@2@@std@@V?$allocator@V?$basic_string@DU?$char_traits@D@std@@V?$allocator@D@2@@std@@@2@@2@@std@@@std@@@std@@QAEPAU?$_Tree_node@U?$pair@$$CBV?$basic_string@DU?$char_traits@D@std@@V?$allocator@D@2@@std@@V?$vector@V?$basic_string@DU?$char_traits@D@std@@V?$allocator@D@2@@std@@V?$allocator@V?$basic_string@DU?$char_traits@D@std@@V?$allocator@D@2@@std@@@2@@2@@std@@PAX@2@U?$_Tree_id@PAU?$_Tree_node@U?$pair@$$CBV?$basic_string@DU?$char_traits@D@std@@V?$allocator@D@2@@std@@V?$vector@V?$basic_string@DU?$char_traits@D@std@@V?$allocator@D@2@@std@@V?$allocator@V?$basic_string@DU?$char_traits@D@std@@V?$allocator@D@2@@std@@@2@@2@@std@@PAX@std@@@2@QAU32@@Z
_TEXT	SEGMENT
__Head$1$ = -8						; size = 4
_this$1$ = -4						; size = 4
__Loc$ = 8						; size = 8
__Newnode$ = 16						; size = 4
?_Insert_node@?$_Tree_val@U?$_Tree_simple_types@U?$pair@$$CBV?$basic_string@DU?$char_traits@D@std@@V?$allocator@D@2@@std@@V?$vector@V?$basic_string@DU?$char_traits@D@std@@V?$allocator@D@2@@std@@V?$allocator@V?$basic_string@DU?$char_traits@D@std@@V?$allocator@D@2@@std@@@2@@2@@std@@@std@@@std@@QAEPAU?$_Tree_node@U?$pair@$$CBV?$basic_string@DU?$char_traits@D@std@@V?$allocator@D@2@@std@@V?$vector@V?$basic_string@DU?$char_traits@D@std@@V?$allocator@D@2@@std@@V?$allocator@V?$basic_string@DU?$char_traits@D@std@@V?$allocator@D@2@@std@@@2@@2@@std@@PAX@2@U?$_Tree_id@PAU?$_Tree_node@U?$pair@$$CBV?$basic_string@DU?$char_traits@D@std@@V?$allocator@D@2@@std@@V?$vector@V?$basic_string@DU?$char_traits@D@std@@V?$allocator@D@2@@std@@V?$allocator@V?$basic_string@DU?$char_traits@D@std@@V?$allocator@D@2@@std@@@2@@2@@std@@PAX@std@@@2@QAU32@@Z PROC ; std::_Tree_val<std::_Tree_simple_types<std::pair<std::basic_string<char,std::char_traits<char>,std::allocator<char> > const ,std::vector<std::basic_string<char,std::char_traits<char>,std::allocator<char> >,std::allocator<std::basic_string<char,std::char_traits<char>,std::allocator<char> > > > > > >::_Insert_node, COMDAT
; _this$ = ecx

; 644  :     _Nodeptr _Insert_node(const _Tree_id<_Nodeptr> _Loc, const _Nodeptr _Newnode) noexcept {

  00000	55		 push	 ebp
  00001	8b ec		 mov	 ebp, esp
  00003	83 ec 08	 sub	 esp, 8

; 645  :         ++_Mysize;
; 646  :         const auto _Head  = _Myhead;
; 647  :         _Newnode->_Parent = _Loc._Parent;

  00006	8b 55 08	 mov	 edx, DWORD PTR __Loc$[ebp]
  00009	8b c1		 mov	 eax, ecx
  0000b	89 45 fc	 mov	 DWORD PTR _this$1$[ebp], eax
  0000e	8b 08		 mov	 ecx, DWORD PTR [eax]
  00010	ff 40 04	 inc	 DWORD PTR [eax+4]
  00013	8b 45 10	 mov	 eax, DWORD PTR __Newnode$[ebp]
  00016	89 4d f8	 mov	 DWORD PTR __Head$1$[ebp], ecx
  00019	89 50 04	 mov	 DWORD PTR [eax+4], edx

; 648  :         if (_Loc._Parent == _Head) { // first node in tree, just set head values

  0001c	3b d1		 cmp	 edx, ecx
  0001e	75 12		 jne	 SHORT $LN5@Insert_nod

; 649  :             _Head->_Left     = _Newnode;

  00020	89 01		 mov	 DWORD PTR [ecx], eax

; 650  :             _Head->_Parent   = _Newnode;

  00022	89 41 04	 mov	 DWORD PTR [ecx+4], eax

; 651  :             _Head->_Right    = _Newnode;

  00025	89 41 08	 mov	 DWORD PTR [ecx+8], eax

; 652  :             _Newnode->_Color = _Black; // the root is black

  00028	c6 40 0c 01	 mov	 BYTE PTR [eax+12], 1

; 711  :     }

  0002c	8b e5		 mov	 esp, ebp
  0002e	5d		 pop	 ebp
  0002f	c2 0c 00	 ret	 12			; 0000000cH
$LN5@Insert_nod:

; 653  :             return _Newnode;
; 654  :         }
; 655  : 
; 656  :         _STL_INTERNAL_CHECK(_Loc._Child != _Tree_child::_Unused);
; 657  :         if (_Loc._Child == _Tree_child::_Right) { // add to right of _Loc._Parent

  00032	83 7d 0c 00	 cmp	 DWORD PTR __Loc$[ebp+4], 0
  00036	75 0d		 jne	 SHORT $LN6@Insert_nod

; 658  :             _STL_INTERNAL_CHECK(_Loc._Parent->_Right->_Isnil);
; 659  :             _Loc._Parent->_Right = _Newnode;

  00038	89 42 08	 mov	 DWORD PTR [edx+8], eax

; 660  :             if (_Loc._Parent == _Head->_Right) { // remember rightmost node

  0003b	3b 51 08	 cmp	 edx, DWORD PTR [ecx+8]
  0003e	75 0d		 jne	 SHORT $LN9@Insert_nod

; 661  :                 _Head->_Right = _Newnode;

  00040	89 41 08	 mov	 DWORD PTR [ecx+8], eax

; 662  :             }
; 663  :         } else { // add to left of _Loc._Parent

  00043	eb 08		 jmp	 SHORT $LN9@Insert_nod
$LN6@Insert_nod:

; 664  :             _STL_INTERNAL_CHECK(_Loc._Parent->_Left->_Isnil);
; 665  :             _Loc._Parent->_Left = _Newnode;

  00045	89 02		 mov	 DWORD PTR [edx], eax

; 666  :             if (_Loc._Parent == _Head->_Left) { // remember leftmost node

  00047	3b 11		 cmp	 edx, DWORD PTR [ecx]
  00049	75 02		 jne	 SHORT $LN9@Insert_nod

; 667  :                 _Head->_Left = _Newnode;

  0004b	89 01		 mov	 DWORD PTR [ecx], eax
$LN9@Insert_nod:

; 668  :             }
; 669  :         }
; 670  : 
; 671  :         for (_Nodeptr _Pnode = _Newnode; _Pnode->_Parent->_Color == _Red;) {

  0004d	8b d0		 mov	 edx, eax
  0004f	8b 40 04	 mov	 eax, DWORD PTR [eax+4]
  00052	80 78 0c 00	 cmp	 BYTE PTR [eax+12], 0
  00056	0f 85 99 01 00
	00		 jne	 $LN3@Insert_nod
  0005c	53		 push	 ebx
  0005d	56		 push	 esi
  0005e	57		 push	 edi
  0005f	90		 npad	 1
$LL2@Insert_nod:

; 672  :             if (_Pnode->_Parent == _Pnode->_Parent->_Parent->_Left) { // fixup red-red in left subtree

  00060	8b 4a 04	 mov	 ecx, DWORD PTR [edx+4]
  00063	8d 7a 04	 lea	 edi, DWORD PTR [edx+4]
  00066	8b 71 04	 mov	 esi, DWORD PTR [ecx+4]
  00069	8d 59 04	 lea	 ebx, DWORD PTR [ecx+4]
  0006c	8b 06		 mov	 eax, DWORD PTR [esi]
  0006e	3b c8		 cmp	 ecx, eax
  00070	0f 85 ba 00 00
	00		 jne	 $LN10@Insert_nod

; 673  :                 const auto _Parent_sibling = _Pnode->_Parent->_Parent->_Right;

  00076	8b 46 08	 mov	 eax, DWORD PTR [esi+8]

; 674  :                 if (_Parent_sibling->_Color == _Red) { // parent's sibling has two red children, blacken both

  00079	80 78 0c 00	 cmp	 BYTE PTR [eax+12], 0
  0007d	0f 84 b3 00 00
	00		 je	 $LN53@Insert_nod

; 675  :                     _Pnode->_Parent->_Color          = _Black;
; 676  :                     _Parent_sibling->_Color          = _Black;
; 677  :                     _Pnode->_Parent->_Parent->_Color = _Red;
; 678  :                     _Pnode                           = _Pnode->_Parent->_Parent;
; 679  :                 } else { // parent's sibling has red and black children
; 680  :                     if (_Pnode == _Pnode->_Parent->_Right) { // rotate right child to left

  00083	8b 71 08	 mov	 esi, DWORD PTR [ecx+8]
  00086	3b d6		 cmp	 edx, esi
  00088	75 47		 jne	 SHORT $LN51@Insert_nod

; 460  :         _Wherenode->_Right = _Pnode->_Left;

  0008a	8b 06		 mov	 eax, DWORD PTR [esi]

; 681  :                         _Pnode = _Pnode->_Parent;

  0008c	8b d1		 mov	 edx, ecx

; 460  :         _Wherenode->_Right = _Pnode->_Left;

  0008e	89 42 08	 mov	 DWORD PTR [edx+8], eax

; 461  : 
; 462  :         if (!_Pnode->_Left->_Isnil) {

  00091	8b 06		 mov	 eax, DWORD PTR [esi]
  00093	80 78 0d 00	 cmp	 BYTE PTR [eax+13], 0
  00097	75 03		 jne	 SHORT $LN20@Insert_nod

; 463  :             _Pnode->_Left->_Parent = _Wherenode;

  00099	89 50 04	 mov	 DWORD PTR [eax+4], edx
$LN20@Insert_nod:

; 464  :         }
; 465  : 
; 466  :         _Pnode->_Parent = _Wherenode->_Parent;

  0009c	8b 03		 mov	 eax, DWORD PTR [ebx]
  0009e	89 46 04	 mov	 DWORD PTR [esi+4], eax

; 467  : 
; 468  :         if (_Wherenode == _Myhead->_Parent) {

  000a1	8b 45 fc	 mov	 eax, DWORD PTR _this$1$[ebp]
  000a4	8b 00		 mov	 eax, DWORD PTR [eax]
  000a6	3b 50 04	 cmp	 edx, DWORD PTR [eax+4]
  000a9	75 0b		 jne	 SHORT $LN21@Insert_nod

; 469  :             _Myhead->_Parent = _Pnode;

  000ab	89 70 04	 mov	 DWORD PTR [eax+4], esi

; 477  :         _Wherenode->_Parent = _Pnode;

  000ae	8b fb		 mov	 edi, ebx
  000b0	89 16		 mov	 DWORD PTR [esi], edx
  000b2	89 33		 mov	 DWORD PTR [ebx], esi
  000b4	eb 1d		 jmp	 SHORT $LN49@Insert_nod
$LN21@Insert_nod:

; 470  :         } else if (_Wherenode == _Wherenode->_Parent->_Left) {

  000b6	8b 03		 mov	 eax, DWORD PTR [ebx]
  000b8	3b 10		 cmp	 edx, DWORD PTR [eax]
  000ba	75 0a		 jne	 SHORT $LN23@Insert_nod

; 471  :             _Wherenode->_Parent->_Left = _Pnode;

  000bc	89 30		 mov	 DWORD PTR [eax], esi

; 477  :         _Wherenode->_Parent = _Pnode;

  000be	8b fb		 mov	 edi, ebx
  000c0	89 16		 mov	 DWORD PTR [esi], edx
  000c2	89 33		 mov	 DWORD PTR [ebx], esi
  000c4	eb 0d		 jmp	 SHORT $LN49@Insert_nod
$LN23@Insert_nod:

; 473  :             _Wherenode->_Parent->_Right = _Pnode;

  000c6	89 70 08	 mov	 DWORD PTR [eax+8], esi

; 477  :         _Wherenode->_Parent = _Pnode;

  000c9	8b fb		 mov	 edi, ebx
  000cb	89 16		 mov	 DWORD PTR [esi], edx
  000cd	89 33		 mov	 DWORD PTR [ebx], esi
  000cf	eb 02		 jmp	 SHORT $LN49@Insert_nod
$LN51@Insert_nod:
  000d1	8b f1		 mov	 esi, ecx
$LN49@Insert_nod:

; 682  :                         _Lrotate(_Pnode);
; 683  :                     }
; 684  : 
; 685  :                     _Pnode->_Parent->_Color          = _Black; // propagate red up

  000d3	c6 46 0c 01	 mov	 BYTE PTR [esi+12], 1

; 686  :                     _Pnode->_Parent->_Parent->_Color = _Red;

  000d7	8b 07		 mov	 eax, DWORD PTR [edi]
  000d9	8b 40 04	 mov	 eax, DWORD PTR [eax+4]
  000dc	c6 40 0c 00	 mov	 BYTE PTR [eax+12], 0

; 687  :                     _Rrotate(_Pnode->_Parent->_Parent);

  000e0	8b 07		 mov	 eax, DWORD PTR [edi]
  000e2	8b 48 04	 mov	 ecx, DWORD PTR [eax+4]

; 481  :         _Nodeptr _Pnode   = _Wherenode->_Left;

  000e5	8b 31		 mov	 esi, DWORD PTR [ecx]

; 482  :         _Wherenode->_Left = _Pnode->_Right;

  000e7	8b 46 08	 mov	 eax, DWORD PTR [esi+8]
  000ea	89 01		 mov	 DWORD PTR [ecx], eax

; 483  : 
; 484  :         if (!_Pnode->_Right->_Isnil) {

  000ec	8b 46 08	 mov	 eax, DWORD PTR [esi+8]
  000ef	80 78 0d 00	 cmp	 BYTE PTR [eax+13], 0
  000f3	75 03		 jne	 SHORT $LN27@Insert_nod

; 485  :             _Pnode->_Right->_Parent = _Wherenode;

  000f5	89 48 04	 mov	 DWORD PTR [eax+4], ecx
$LN27@Insert_nod:

; 486  :         }
; 487  : 
; 488  :         _Pnode->_Parent = _Wherenode->_Parent;

  000f8	8b 41 04	 mov	 eax, DWORD PTR [ecx+4]
  000fb	89 46 04	 mov	 DWORD PTR [esi+4], eax

; 489  : 
; 490  :         if (_Wherenode == _Myhead->_Parent) {

  000fe	8b 45 fc	 mov	 eax, DWORD PTR _this$1$[ebp]
  00101	8b 00		 mov	 eax, DWORD PTR [eax]
  00103	3b 48 04	 cmp	 ecx, DWORD PTR [eax+4]
  00106	75 0b		 jne	 SHORT $LN28@Insert_nod

; 491  :             _Myhead->_Parent = _Pnode;

  00108	89 70 04	 mov	 DWORD PTR [eax+4], esi

; 496  :         }
; 497  : 
; 498  :         _Pnode->_Right      = _Wherenode;

  0010b	89 4e 08	 mov	 DWORD PTR [esi+8], ecx

; 688  :                 }
; 689  :             } else { // fixup red-red in right subtree

  0010e	e9 cc 00 00 00	 jmp	 $LN52@Insert_nod
$LN28@Insert_nod:

; 492  :         } else if (_Wherenode == _Wherenode->_Parent->_Right) {

  00113	8b 41 04	 mov	 eax, DWORD PTR [ecx+4]
  00116	3b 48 08	 cmp	 ecx, DWORD PTR [eax+8]
  00119	75 0b		 jne	 SHORT $LN30@Insert_nod

; 493  :             _Wherenode->_Parent->_Right = _Pnode;

  0011b	89 70 08	 mov	 DWORD PTR [eax+8], esi

; 496  :         }
; 497  : 
; 498  :         _Pnode->_Right      = _Wherenode;

  0011e	89 4e 08	 mov	 DWORD PTR [esi+8], ecx

; 688  :                 }
; 689  :             } else { // fixup red-red in right subtree

  00121	e9 b9 00 00 00	 jmp	 $LN52@Insert_nod
$LN30@Insert_nod:

; 495  :             _Wherenode->_Parent->_Left = _Pnode;

  00126	89 30		 mov	 DWORD PTR [eax], esi

; 496  :         }
; 497  : 
; 498  :         _Pnode->_Right      = _Wherenode;

  00128	89 4e 08	 mov	 DWORD PTR [esi+8], ecx

; 688  :                 }
; 689  :             } else { // fixup red-red in right subtree

  0012b	e9 af 00 00 00	 jmp	 $LN52@Insert_nod
$LN10@Insert_nod:

; 690  :                 const auto _Parent_sibling = _Pnode->_Parent->_Parent->_Left;
; 691  :                 if (_Parent_sibling->_Color == _Red) { // parent's sibling has two red children, blacken both

  00130	80 78 0c 00	 cmp	 BYTE PTR [eax+12], 0
  00134	75 1b		 jne	 SHORT $LN15@Insert_nod
$LN53@Insert_nod:

; 668  :             }
; 669  :         }
; 670  : 
; 671  :         for (_Nodeptr _Pnode = _Newnode; _Pnode->_Parent->_Color == _Red;) {

  00136	c6 41 0c 01	 mov	 BYTE PTR [ecx+12], 1
  0013a	c6 40 0c 01	 mov	 BYTE PTR [eax+12], 1
  0013e	8b 07		 mov	 eax, DWORD PTR [edi]
  00140	8b 40 04	 mov	 eax, DWORD PTR [eax+4]
  00143	c6 40 0c 00	 mov	 BYTE PTR [eax+12], 0
  00147	8b 07		 mov	 eax, DWORD PTR [edi]
  00149	8b 50 04	 mov	 edx, DWORD PTR [eax+4]
  0014c	e9 91 00 00 00	 jmp	 $LN46@Insert_nod
$LN15@Insert_nod:

; 692  :                     _Pnode->_Parent->_Color          = _Black;
; 693  :                     _Parent_sibling->_Color          = _Black;
; 694  :                     _Pnode->_Parent->_Parent->_Color = _Red;
; 695  :                     _Pnode                           = _Pnode->_Parent->_Parent;
; 696  :                 } else { // parent's sibling has red and black children
; 697  :                     if (_Pnode == _Pnode->_Parent->_Left) { // rotate left child to right

  00151	8b 01		 mov	 eax, DWORD PTR [ecx]
  00153	3b d0		 cmp	 edx, eax
  00155	75 3e		 jne	 SHORT $LN39@Insert_nod

; 698  :                         _Pnode = _Pnode->_Parent;

  00157	8b d1		 mov	 edx, ecx

; 481  :         _Nodeptr _Pnode   = _Wherenode->_Left;

  00159	8b c8		 mov	 ecx, eax

; 482  :         _Wherenode->_Left = _Pnode->_Right;

  0015b	8b 41 08	 mov	 eax, DWORD PTR [ecx+8]
  0015e	89 02		 mov	 DWORD PTR [edx], eax

; 483  : 
; 484  :         if (!_Pnode->_Right->_Isnil) {

  00160	8b 41 08	 mov	 eax, DWORD PTR [ecx+8]
  00163	80 78 0d 00	 cmp	 BYTE PTR [eax+13], 0
  00167	75 03		 jne	 SHORT $LN34@Insert_nod

; 485  :             _Pnode->_Right->_Parent = _Wherenode;

  00169	89 50 04	 mov	 DWORD PTR [eax+4], edx
$LN34@Insert_nod:

; 486  :         }
; 487  : 
; 488  :         _Pnode->_Parent = _Wherenode->_Parent;

  0016c	8b 03		 mov	 eax, DWORD PTR [ebx]
  0016e	89 41 04	 mov	 DWORD PTR [ecx+4], eax

; 489  : 
; 490  :         if (_Wherenode == _Myhead->_Parent) {

  00171	8b 45 fc	 mov	 eax, DWORD PTR _this$1$[ebp]
  00174	8b 00		 mov	 eax, DWORD PTR [eax]
  00176	3b 50 04	 cmp	 edx, DWORD PTR [eax+4]
  00179	75 05		 jne	 SHORT $LN35@Insert_nod

; 491  :             _Myhead->_Parent = _Pnode;

  0017b	89 48 04	 mov	 DWORD PTR [eax+4], ecx
  0017e	eb 0e		 jmp	 SHORT $LN38@Insert_nod
$LN35@Insert_nod:

; 492  :         } else if (_Wherenode == _Wherenode->_Parent->_Right) {

  00180	8b 03		 mov	 eax, DWORD PTR [ebx]
  00182	3b 50 08	 cmp	 edx, DWORD PTR [eax+8]
  00185	75 05		 jne	 SHORT $LN37@Insert_nod

; 493  :             _Wherenode->_Parent->_Right = _Pnode;

  00187	89 48 08	 mov	 DWORD PTR [eax+8], ecx

; 494  :         } else {

  0018a	eb 02		 jmp	 SHORT $LN38@Insert_nod
$LN37@Insert_nod:

; 495  :             _Wherenode->_Parent->_Left = _Pnode;

  0018c	89 08		 mov	 DWORD PTR [eax], ecx
$LN38@Insert_nod:

; 496  :         }
; 497  : 
; 498  :         _Pnode->_Right      = _Wherenode;

  0018e	89 51 08	 mov	 DWORD PTR [ecx+8], edx

; 499  :         _Wherenode->_Parent = _Pnode;

  00191	8b fb		 mov	 edi, ebx
  00193	89 0b		 mov	 DWORD PTR [ebx], ecx
$LN39@Insert_nod:

; 699  :                         _Rrotate(_Pnode);
; 700  :                     }
; 701  : 
; 702  :                     _Pnode->_Parent->_Color          = _Black; // propagate red up

  00195	c6 41 0c 01	 mov	 BYTE PTR [ecx+12], 1

; 703  :                     _Pnode->_Parent->_Parent->_Color = _Red;

  00199	8b 07		 mov	 eax, DWORD PTR [edi]
  0019b	8b 40 04	 mov	 eax, DWORD PTR [eax+4]
  0019e	c6 40 0c 00	 mov	 BYTE PTR [eax+12], 0

; 704  :                     _Lrotate(_Pnode->_Parent->_Parent);

  001a2	8b 07		 mov	 eax, DWORD PTR [edi]
  001a4	8b 48 04	 mov	 ecx, DWORD PTR [eax+4]

; 459  :         _Nodeptr _Pnode    = _Wherenode->_Right;

  001a7	8b 71 08	 mov	 esi, DWORD PTR [ecx+8]

; 460  :         _Wherenode->_Right = _Pnode->_Left;

  001aa	8b 06		 mov	 eax, DWORD PTR [esi]
  001ac	89 41 08	 mov	 DWORD PTR [ecx+8], eax

; 461  : 
; 462  :         if (!_Pnode->_Left->_Isnil) {

  001af	8b 06		 mov	 eax, DWORD PTR [esi]
  001b1	80 78 0d 00	 cmp	 BYTE PTR [eax+13], 0
  001b5	75 03		 jne	 SHORT $LN41@Insert_nod

; 463  :             _Pnode->_Left->_Parent = _Wherenode;

  001b7	89 48 04	 mov	 DWORD PTR [eax+4], ecx
$LN41@Insert_nod:

; 464  :         }
; 465  : 
; 466  :         _Pnode->_Parent = _Wherenode->_Parent;

  001ba	8b 41 04	 mov	 eax, DWORD PTR [ecx+4]
  001bd	89 46 04	 mov	 DWORD PTR [esi+4], eax

; 467  : 
; 468  :         if (_Wherenode == _Myhead->_Parent) {

  001c0	8b 45 fc	 mov	 eax, DWORD PTR _this$1$[ebp]
  001c3	8b 00		 mov	 eax, DWORD PTR [eax]
  001c5	3b 48 04	 cmp	 ecx, DWORD PTR [eax+4]
  001c8	75 05		 jne	 SHORT $LN42@Insert_nod

; 469  :             _Myhead->_Parent = _Pnode;

  001ca	89 70 04	 mov	 DWORD PTR [eax+4], esi
  001cd	eb 0e		 jmp	 SHORT $LN45@Insert_nod
$LN42@Insert_nod:

; 470  :         } else if (_Wherenode == _Wherenode->_Parent->_Left) {

  001cf	8b 41 04	 mov	 eax, DWORD PTR [ecx+4]
  001d2	3b 08		 cmp	 ecx, DWORD PTR [eax]
  001d4	75 04		 jne	 SHORT $LN44@Insert_nod

; 471  :             _Wherenode->_Parent->_Left = _Pnode;

  001d6	89 30		 mov	 DWORD PTR [eax], esi

; 472  :         } else {

  001d8	eb 03		 jmp	 SHORT $LN45@Insert_nod
$LN44@Insert_nod:

; 473  :             _Wherenode->_Parent->_Right = _Pnode;

  001da	89 70 08	 mov	 DWORD PTR [eax+8], esi
$LN45@Insert_nod:

; 474  :         }
; 475  : 
; 476  :         _Pnode->_Left       = _Wherenode;

  001dd	89 0e		 mov	 DWORD PTR [esi], ecx
$LN52@Insert_nod:

; 668  :             }
; 669  :         }
; 670  : 
; 671  :         for (_Nodeptr _Pnode = _Newnode; _Pnode->_Parent->_Color == _Red;) {

  001df	89 71 04	 mov	 DWORD PTR [ecx+4], esi
$LN46@Insert_nod:
  001e2	8b 42 04	 mov	 eax, DWORD PTR [edx+4]
  001e5	80 78 0c 00	 cmp	 BYTE PTR [eax+12], 0
  001e9	0f 84 71 fe ff
	ff		 je	 $LL2@Insert_nod
  001ef	8b 4d f8	 mov	 ecx, DWORD PTR __Head$1$[ebp]
  001f2	5f		 pop	 edi
  001f3	5e		 pop	 esi
  001f4	5b		 pop	 ebx
$LN3@Insert_nod:

; 705  :                 }
; 706  :             }
; 707  :         }
; 708  : 
; 709  :         _Head->_Parent->_Color = _Black; // root is always black

  001f5	8b 41 04	 mov	 eax, DWORD PTR [ecx+4]
  001f8	c6 40 0c 01	 mov	 BYTE PTR [eax+12], 1

; 710  :         return _Newnode;

  001fc	8b 45 10	 mov	 eax, DWORD PTR __Newnode$[ebp]

; 711  :     }

  001ff	8b e5		 mov	 esp, ebp
  00201	5d		 pop	 ebp
  00202	c2 0c 00	 ret	 12			; 0000000cH
?_Insert_node@?$_Tree_val@U?$_Tree_simple_types@U?$pair@$$CBV?$basic_string@DU?$char_traits@D@std@@V?$allocator@D@2@@std@@V?$vector@V?$basic_string@DU?$char_traits@D@std@@V?$allocator@D@2@@std@@V?$allocator@V?$basic_string@DU?$char_traits@D@std@@V?$allocator@D@2@@std@@@2@@2@@std@@@std@@@std@@QAEPAU?$_Tree_node@U?$pair@$$CBV?$basic_string@DU?$char_traits@D@std@@V?$allocator@D@2@@std@@V?$vector@V?$basic_string@DU?$char_traits@D@std@@V?$allocator@D@2@@std@@V?$allocator@V?$basic_string@DU?$char_traits@D@std@@V?$allocator@D@2@@std@@@2@@2@@std@@PAX@2@U?$_Tree_id@PAU?$_Tree_node@U?$pair@$$CBV?$basic_string@DU?$char_traits@D@std@@V?$allocator@D@2@@std@@V?$vector@V?$basic_string@DU?$char_traits@D@std@@V?$allocator@D@2@@std@@V?$allocator@V?$basic_string@DU?$char_traits@D@std@@V?$allocator@D@2@@std@@@2@@2@@std@@PAX@std@@@2@QAU32@@Z ENDP ; std::_Tree_val<std::_Tree_simple_types<std::pair<std::basic_string<char,std::char_traits<char>,std::allocator<char> > const ,std::vector<std::basic_string<char,std::char_traits<char>,std::allocator<char> >,std::allocator<std::basic_string<char,std::char_traits<char>,std::allocator<char> > > > > > >::_Insert_node
_TEXT	ENDS
; Function compile flags: /Ogtp
;	COMDAT ??_GCTextureSet@@UAEPAXI@Z
_TEXT	SEGMENT
___flags$ = 8						; size = 4
??_GCTextureSet@@UAEPAXI@Z PROC				; CTextureSet::`scalar deleting destructor', COMDAT
; _this$ = ecx
  00000	55		 push	 ebp
  00001	8b ec		 mov	 ebp, esp
  00003	56		 push	 esi
  00004	8b f1		 mov	 esi, ecx
  00006	e8 00 00 00 00	 call	 ??1CTextureSet@@UAE@XZ	; CTextureSet::~CTextureSet
  0000b	f6 45 08 01	 test	 BYTE PTR ___flags$[ebp], 1
  0000f	74 0e		 je	 SHORT $LN4@scalar
  00011	68 bc 00 00 00	 push	 188			; 000000bcH
  00016	56		 push	 esi
  00017	e8 00 00 00 00	 call	 ??3@YAXPAXI@Z		; operator delete
  0001c	83 c4 08	 add	 esp, 8
$LN4@scalar:
  0001f	8b c6		 mov	 eax, esi
  00021	5e		 pop	 esi
  00022	5d		 pop	 ebp
  00023	c2 04 00	 ret	 4
??_GCTextureSet@@UAEPAXI@Z ENDP				; CTextureSet::`scalar deleting destructor'
_TEXT	ENDS
; Function compile flags: /Ogtp
; File C:\Program Files (x86)\Microsoft Visual Studio\2019\Community\VC\Tools\MSVC\14.27.29110\include\vector
;	COMDAT ?_Getal@?$vector@USTerrainTexture@@V?$allocator@USTerrainTexture@@@std@@@std@@AAEAAV?$allocator@USTerrainTexture@@@2@XZ
_TEXT	SEGMENT
?_Getal@?$vector@USTerrainTexture@@V?$allocator@USTerrainTexture@@@std@@@std@@AAEAAV?$allocator@USTerrainTexture@@@2@XZ PROC ; std::vector<STerrainTexture,std::allocator<STerrainTexture> >::_Getal, COMDAT
; _this$ = ecx

; 1732 :         return _Mypair._Get_first();

  00000	8b c1		 mov	 eax, ecx

; 1733 :     }

  00002	c3		 ret	 0
?_Getal@?$vector@USTerrainTexture@@V?$allocator@USTerrainTexture@@@std@@@std@@AAEAAV?$allocator@USTerrainTexture@@@2@XZ ENDP ; std::vector<STerrainTexture,std::allocator<STerrainTexture> >::_Getal
_TEXT	ENDS
; Function compile flags: /Ogtp
; File C:\Program Files (x86)\Microsoft Visual Studio\2019\Community\VC\Tools\MSVC\14.27.29110\include\vector
;	COMDAT ?_Xlength@?$vector@USTerrainTexture@@V?$allocator@USTerrainTexture@@@std@@@std@@CAXXZ
_TEXT	SEGMENT
?_Xlength@?$vector@USTerrainTexture@@V?$allocator@USTerrainTexture@@@std@@@std@@CAXXZ PROC ; std::vector<STerrainTexture,std::allocator<STerrainTexture> >::_Xlength, COMDAT

; 1704 :         _Xlength_error("vector too long");

  00000	68 00 00 00 00	 push	 OFFSET ??_C@_0BA@FOIKENOD@vector?5too?5long@
  00005	e8 00 00 00 00	 call	 ?_Xlength_error@std@@YAXPBD@Z ; std::_Xlength_error
$LN3@Xlength:
  0000a	cc		 int	 3
?_Xlength@?$vector@USTerrainTexture@@V?$allocator@USTerrainTexture@@@std@@@std@@CAXXZ ENDP ; std::vector<STerrainTexture,std::allocator<STerrainTexture> >::_Xlength
_TEXT	ENDS
; Function compile flags: /Ogtp
; File C:\Program Files (x86)\Microsoft Visual Studio\2019\Community\VC\Tools\MSVC\14.27.29110\include\vector
; File C:\Program Files (x86)\Microsoft Visual Studio\2019\Community\VC\Tools\MSVC\14.27.29110\include\xmemory
; File C:\Program Files (x86)\Microsoft Visual Studio\2019\Community\VC\Tools\MSVC\14.27.29110\include\vector
;	COMDAT ?_Change_array@?$vector@USTerrainTexture@@V?$allocator@USTerrainTexture@@@std@@@std@@AAEXQAUSTerrainTexture@@II@Z
_TEXT	SEGMENT
__Newvec$ = 8						; size = 4
__Newsize$ = 12						; size = 4
__Newcapacity$ = 16					; size = 4
?_Change_array@?$vector@USTerrainTexture@@V?$allocator@USTerrainTexture@@@std@@@std@@AAEXQAUSTerrainTexture@@II@Z PROC ; std::vector<STerrainTexture,std::allocator<STerrainTexture> >::_Change_array, COMDAT
; _this$ = ecx

; 1666 :     void _Change_array(const pointer _Newvec, const size_type _Newsize, const size_type _Newcapacity) {

  00000	55		 push	 ebp
  00001	8b ec		 mov	 ebp, esp
  00003	57		 push	 edi
  00004	8b f9		 mov	 edi, ecx

; 1667 :         // orphan all iterators, discard old array, acquire new array
; 1668 :         auto& _My_data    = _Mypair._Myval2;
; 1669 :         pointer& _Myfirst = _My_data._Myfirst;
; 1670 :         pointer& _Mylast  = _My_data._Mylast;
; 1671 :         pointer& _Myend   = _My_data._Myend;
; 1672 : 
; 1673 :         _My_data._Orphan_all();
; 1674 : 
; 1675 :         if (_Myfirst) { // destroy and deallocate old array

  00006	8b 07		 mov	 eax, DWORD PTR [edi]
  00008	85 c0		 test	 eax, eax
  0000a	74 33		 je	 SHORT $LN2@Change_arr

; 1612 :         _Destroy_range(_First, _Last, _Getal());

  0000c	57		 push	 edi
  0000d	ff 77 04	 push	 DWORD PTR [edi+4]
  00010	50		 push	 eax
  00011	e8 00 00 00 00	 call	 ??$_Destroy_range@V?$allocator@USTerrainTexture@@@std@@@std@@YAXPAUSTerrainTexture@@QAU1@AAV?$allocator@USTerrainTexture@@@0@@Z ; std::_Destroy_range<std::allocator<STerrainTexture> >

; 1676 :             _Destroy(_Myfirst, _Mylast);
; 1677 :             _Getal().deallocate(_Myfirst, static_cast<size_type>(_Myend - _Myfirst));

  00016	8b 4f 08	 mov	 ecx, DWORD PTR [edi+8]
  00019	b8 a7 c8 67 dd	 mov	 eax, -580400985		; dd67c8a7H
  0001e	2b 0f		 sub	 ecx, DWORD PTR [edi]
  00020	f7 e9		 imul	 ecx
  00022	03 d1		 add	 edx, ecx
  00024	c1 fa 07	 sar	 edx, 7
  00027	8b c2		 mov	 eax, edx
  00029	c1 e8 1f	 shr	 eax, 31			; 0000001fH
  0002c	03 c2		 add	 eax, edx
; File C:\Program Files (x86)\Microsoft Visual Studio\2019\Community\VC\Tools\MSVC\14.27.29110\include\xmemory

; 803  :         _Deallocate<_New_alignof<_Ty>>(_Ptr, sizeof(_Ty) * _Count);

  0002e	69 c0 94 00 00
	00		 imul	 eax, eax, 148
  00034	50		 push	 eax
  00035	ff 37		 push	 DWORD PTR [edi]
  00037	e8 00 00 00 00	 call	 ??$_Deallocate@$07$0A@@std@@YAXPAXI@Z ; std::_Deallocate<8,0>
  0003c	83 c4 14	 add	 esp, 20			; 00000014H
$LN2@Change_arr:
; File C:\Program Files (x86)\Microsoft Visual Studio\2019\Community\VC\Tools\MSVC\14.27.29110\include\vector

; 1681 :         _Mylast  = _Newvec + _Newsize;

  0003f	69 45 0c 94 00
	00 00		 imul	 eax, DWORD PTR __Newsize$[ebp], 148
  00046	8b 4d 08	 mov	 ecx, DWORD PTR __Newvec$[ebp]
  00049	89 0f		 mov	 DWORD PTR [edi], ecx
  0004b	03 c1		 add	 eax, ecx
  0004d	89 47 04	 mov	 DWORD PTR [edi+4], eax

; 1682 :         _Myend   = _Newvec + _Newcapacity;

  00050	69 45 10 94 00
	00 00		 imul	 eax, DWORD PTR __Newcapacity$[ebp], 148
  00057	03 c1		 add	 eax, ecx
  00059	89 47 08	 mov	 DWORD PTR [edi+8], eax
  0005c	5f		 pop	 edi

; 1683 :     }

  0005d	5d		 pop	 ebp
  0005e	c2 0c 00	 ret	 12			; 0000000cH
?_Change_array@?$vector@USTerrainTexture@@V?$allocator@USTerrainTexture@@@std@@@std@@AAEXQAUSTerrainTexture@@II@Z ENDP ; std::vector<STerrainTexture,std::allocator<STerrainTexture> >::_Change_array
_TEXT	ENDS
; Function compile flags: /Ogtp
; File C:\Program Files (x86)\Microsoft Visual Studio\2019\Community\VC\Tools\MSVC\14.27.29110\include\vector
;	COMDAT ?_Destroy@?$vector@USTerrainTexture@@V?$allocator@USTerrainTexture@@@std@@@std@@AAEXPAUSTerrainTexture@@0@Z
_TEXT	SEGMENT
__First$ = 8						; size = 4
__Last$ = 12						; size = 4
?_Destroy@?$vector@USTerrainTexture@@V?$allocator@USTerrainTexture@@@std@@@std@@AAEXPAUSTerrainTexture@@0@Z PROC ; std::vector<STerrainTexture,std::allocator<STerrainTexture> >::_Destroy, COMDAT
; _this$ = ecx

; 1611 :     void _Destroy(pointer _First, pointer _Last) { // destroy [_First, _Last) using allocator

  00000	55		 push	 ebp
  00001	8b ec		 mov	 ebp, esp

; 1612 :         _Destroy_range(_First, _Last, _Getal());

  00003	51		 push	 ecx
  00004	ff 75 0c	 push	 DWORD PTR __Last$[ebp]
  00007	ff 75 08	 push	 DWORD PTR __First$[ebp]
  0000a	e8 00 00 00 00	 call	 ??$_Destroy_range@V?$allocator@USTerrainTexture@@@std@@@std@@YAXPAUSTerrainTexture@@QAU1@AAV?$allocator@USTerrainTexture@@@0@@Z ; std::_Destroy_range<std::allocator<STerrainTexture> >
  0000f	83 c4 0c	 add	 esp, 12			; 0000000cH

; 1613 :     }

  00012	5d		 pop	 ebp
  00013	c2 08 00	 ret	 8
?_Destroy@?$vector@USTerrainTexture@@V?$allocator@USTerrainTexture@@@std@@@std@@AAEXPAUSTerrainTexture@@0@Z ENDP ; std::vector<STerrainTexture,std::allocator<STerrainTexture> >::_Destroy
_TEXT	ENDS
; Function compile flags: /Ogtp
; File C:\Program Files (x86)\Microsoft Visual Studio\2019\Community\VC\Tools\MSVC\14.27.29110\include\vector
; File C:\Program Files (x86)\Microsoft Visual Studio\2019\Community\VC\Tools\MSVC\14.27.29110\include\xmemory
; File C:\Program Files (x86)\Microsoft Visual Studio\2019\Community\VC\Tools\MSVC\14.27.29110\include\vector
; File C:\Program Files (x86)\Microsoft Visual Studio\2019\Community\VC\Tools\MSVC\14.27.29110\include\xmemory
; File C:\Program Files (x86)\Microsoft Visual Studio\2019\Community\VC\Tools\MSVC\14.27.29110\include\vector
; File C:\Program Files (x86)\Microsoft Visual Studio\2019\Community\VC\Tools\MSVC\14.27.29110\include\xmemory
; File C:\Program Files (x86)\Microsoft Visual Studio\2019\Community\VC\Tools\MSVC\14.27.29110\include\vector
; File C:\Program Files (x86)\Microsoft Visual Studio\2019\Community\VC\Tools\MSVC\14.27.29110\include\xmemory
; File C:\Program Files (x86)\Microsoft Visual Studio\2019\Community\VC\Tools\MSVC\14.27.29110\include\vector
;	COMDAT ?_Reallocate_exactly@?$vector@USTerrainTexture@@V?$allocator@USTerrainTexture@@@std@@@std@@AAEXI@Z
_TEXT	SEGMENT
_this$ = -24						; size = 4
__Newvec$ = -20						; size = 4
__$EHRec$ = -16						; size = 16
__Newcapacity$ = 8					; size = 4
?_Reallocate_exactly@?$vector@USTerrainTexture@@V?$allocator@USTerrainTexture@@@std@@@std@@AAEXI@Z PROC ; std::vector<STerrainTexture,std::allocator<STerrainTexture> >::_Reallocate_exactly, COMDAT
; _this$ = ecx

; 1251 :     void _Reallocate_exactly(const size_type _Newcapacity) {

  00000	55		 push	 ebp
  00001	8b ec		 mov	 ebp, esp
  00003	6a ff		 push	 -1
  00005	68 00 00 00 00	 push	 __ehhandler$?_Reallocate_exactly@?$vector@USTerrainTexture@@V?$allocator@USTerrainTexture@@@std@@@std@@AAEXI@Z
  0000a	64 a1 00 00 00
	00		 mov	 eax, DWORD PTR fs:0
  00010	50		 push	 eax
  00011	83 ec 0c	 sub	 esp, 12			; 0000000cH
  00014	53		 push	 ebx
  00015	56		 push	 esi
  00016	57		 push	 edi
  00017	a1 00 00 00 00	 mov	 eax, DWORD PTR ___security_cookie
  0001c	33 c5		 xor	 eax, ebp
  0001e	50		 push	 eax
  0001f	8d 45 f4	 lea	 eax, DWORD PTR __$EHRec$[ebp+4]
  00022	64 a3 00 00 00
	00		 mov	 DWORD PTR fs:0, eax
  00028	89 65 f0	 mov	 DWORD PTR __$EHRec$[ebp], esp
  0002b	8b f9		 mov	 edi, ecx
  0002d	89 7d e8	 mov	 DWORD PTR _this$[ebp], edi

; 1257 :         const auto _Size = static_cast<size_type>(_Mylast - _Myfirst);

  00030	8b 77 04	 mov	 esi, DWORD PTR [edi+4]
  00033	b8 a7 c8 67 dd	 mov	 eax, -580400985		; dd67c8a7H
  00038	2b 37		 sub	 esi, DWORD PTR [edi]
  0003a	f7 ee		 imul	 esi
; File C:\Program Files (x86)\Microsoft Visual Studio\2019\Community\VC\Tools\MSVC\14.27.29110\include\xmemory

; 60   :         if (_Count > _Max_possible) {

  0003c	8b 45 08	 mov	 eax, DWORD PTR __Newcapacity$[ebp]
; File C:\Program Files (x86)\Microsoft Visual Studio\2019\Community\VC\Tools\MSVC\14.27.29110\include\vector

; 1257 :         const auto _Size = static_cast<size_type>(_Mylast - _Myfirst);

  0003f	03 d6		 add	 edx, esi
  00041	c1 fa 07	 sar	 edx, 7
  00044	8b da		 mov	 ebx, edx
  00046	c1 eb 1f	 shr	 ebx, 31			; 0000001fH
  00049	03 da		 add	 ebx, edx
; File C:\Program Files (x86)\Microsoft Visual Studio\2019\Community\VC\Tools\MSVC\14.27.29110\include\xmemory

; 60   :         if (_Count > _Max_possible) {

  0004b	3d 91 cf ba 01	 cmp	 eax, 29020049		; 01bacf91H
  00050	77 65		 ja	 SHORT $LN22@Reallocate

; 62   :         }
; 63   :     }
; 64   : 
; 65   :     return _Count * _Ty_size;

  00052	69 c0 94 00 00
	00		 imul	 eax, eax, 148

; 807  :         return static_cast<_Ty*>(_Allocate<_New_alignof<_Ty>>(_Get_size_of_n<sizeof(_Ty)>(_Count)));

  00058	50		 push	 eax
  00059	e8 00 00 00 00	 call	 ??$_Allocate@$07U_Default_allocate_traits@std@@$0A@@std@@YAPAXI@Z ; std::_Allocate<8,std::_Default_allocate_traits,0>
  0005e	8b f0		 mov	 esi, eax
; File C:\Program Files (x86)\Microsoft Visual Studio\2019\Community\VC\Tools\MSVC\14.27.29110\include\vector

; 1261 :         _TRY_BEGIN

  00060	c7 45 fc 00 00
	00 00		 mov	 DWORD PTR __$EHRec$[ebp+12], 0

; 1602 :         _Uninitialized_copy(_First, _Last, _Dest, _Getal());

  00067	57		 push	 edi
  00068	56		 push	 esi
  00069	ff 77 04	 push	 DWORD PTR [edi+4]
; File C:\Program Files (x86)\Microsoft Visual Studio\2019\Community\VC\Tools\MSVC\14.27.29110\include\xmemory

; 807  :         return static_cast<_Ty*>(_Allocate<_New_alignof<_Ty>>(_Get_size_of_n<sizeof(_Ty)>(_Count)));

  0006c	89 75 ec	 mov	 DWORD PTR __Newvec$[ebp], esi
; File C:\Program Files (x86)\Microsoft Visual Studio\2019\Community\VC\Tools\MSVC\14.27.29110\include\vector

; 1602 :         _Uninitialized_copy(_First, _Last, _Dest, _Getal());

  0006f	ff 37		 push	 DWORD PTR [edi]
  00071	e8 00 00 00 00	 call	 ??$_Uninitialized_copy@PAUSTerrainTexture@@V?$allocator@USTerrainTexture@@@std@@@std@@YAPAUSTerrainTexture@@QAU1@0PAU1@AAV?$allocator@USTerrainTexture@@@0@@Z ; std::_Uninitialized_copy<STerrainTexture *,std::allocator<STerrainTexture> >
  00076	83 c4 14	 add	 esp, 20			; 00000014H

; 1266 :         _CATCH_END
; 1267 : 
; 1268 :         _Change_array(_Newvec, _Size, _Newcapacity);

  00079	8b cf		 mov	 ecx, edi
  0007b	ff 75 08	 push	 DWORD PTR __Newcapacity$[ebp]
  0007e	53		 push	 ebx
  0007f	56		 push	 esi
  00080	e8 00 00 00 00	 call	 ?_Change_array@?$vector@USTerrainTexture@@V?$allocator@USTerrainTexture@@@std@@@std@@AAEXQAUSTerrainTexture@@II@Z ; std::vector<STerrainTexture,std::allocator<STerrainTexture> >::_Change_array

; 1269 :     }

  00085	8b 4d f4	 mov	 ecx, DWORD PTR __$EHRec$[ebp+4]
  00088	64 89 0d 00 00
	00 00		 mov	 DWORD PTR fs:0, ecx
  0008f	59		 pop	 ecx
  00090	5f		 pop	 edi
  00091	5e		 pop	 esi
  00092	5b		 pop	 ebx
  00093	8b e5		 mov	 esp, ebp
  00095	5d		 pop	 ebp
  00096	c2 04 00	 ret	 4
__catch$?_Reallocate_exactly@?$vector@USTerrainTexture@@V?$allocator@USTerrainTexture@@@std@@@std@@AAEXI@Z$0:

; 1262 :         _Umove_if_noexcept(_Myfirst, _Mylast, _Newvec);
; 1263 :         _CATCH_ALL
; 1264 :         _Getal().deallocate(_Newvec, _Newcapacity);

  00099	ff 75 08	 push	 DWORD PTR __Newcapacity$[ebp]
  0009c	8b 4d e8	 mov	 ecx, DWORD PTR _this$[ebp]
  0009f	ff 75 ec	 push	 DWORD PTR __Newvec$[ebp]
  000a2	e8 00 00 00 00	 call	 ?_Getal@?$vector@USTerrainTexture@@V?$allocator@USTerrainTexture@@@std@@@std@@AAEAAV?$allocator@USTerrainTexture@@@2@XZ ; std::vector<STerrainTexture,std::allocator<STerrainTexture> >::_Getal
  000a7	8b c8		 mov	 ecx, eax
  000a9	e8 00 00 00 00	 call	 ?deallocate@?$allocator@USTerrainTexture@@@std@@QAEXQAUSTerrainTexture@@I@Z ; std::allocator<STerrainTexture>::deallocate

; 1265 :         _RERAISE;

  000ae	6a 00		 push	 0
  000b0	6a 00		 push	 0
  000b2	e8 00 00 00 00	 call	 __CxxThrowException@8
$LN22@Reallocate:
; File C:\Program Files (x86)\Microsoft Visual Studio\2019\Community\VC\Tools\MSVC\14.27.29110\include\xmemory

; 61   :             _Throw_bad_array_new_length(); // multiply overflow

  000b7	e8 00 00 00 00	 call	 ?_Throw_bad_array_new_length@std@@YAXXZ ; std::_Throw_bad_array_new_length
$LN20@Reallocate:
  000bc	cc		 int	 3
  000bd	cc		 int	 3
  000be	cc		 int	 3
  000bf	cc		 int	 3
  000c0	cc		 int	 3
  000c1	cc		 int	 3
_TEXT	ENDS
;	COMDAT text$x
text$x	SEGMENT
__ehhandler$?_Reallocate_exactly@?$vector@USTerrainTexture@@V?$allocator@USTerrainTexture@@@std@@@std@@AAEXI@Z:
  00000	90		 npad	 1
  00001	90		 npad	 1
  00002	8b 54 24 08	 mov	 edx, DWORD PTR [esp+8]
  00006	8d 42 0c	 lea	 eax, DWORD PTR [edx+12]
  00009	8b 4a e4	 mov	 ecx, DWORD PTR [edx-28]
  0000c	33 c8		 xor	 ecx, eax
  0000e	e8 00 00 00 00	 call	 @__security_check_cookie@4
  00013	b8 00 00 00 00	 mov	 eax, OFFSET __ehfuncinfo$?_Reallocate_exactly@?$vector@USTerrainTexture@@V?$allocator@USTerrainTexture@@@std@@@std@@AAEXI@Z
  00018	e9 00 00 00 00	 jmp	 ___CxxFrameHandler3
text$x	ENDS
?_Reallocate_exactly@?$vector@USTerrainTexture@@V?$allocator@USTerrainTexture@@@std@@@std@@AAEXI@Z ENDP ; std::vector<STerrainTexture,std::allocator<STerrainTexture> >::_Reallocate_exactly
; Function compile flags: /Ogtp
; File C:\Program Files (x86)\Microsoft Visual Studio\2019\Community\VC\Tools\MSVC\14.27.29110\include\vector
; File C:\Program Files (x86)\Microsoft Visual Studio\2019\Community\VC\Tools\MSVC\14.27.29110\include\xmemory
; File C:\Program Files (x86)\Microsoft Visual Studio\2019\Community\VC\Tools\MSVC\14.27.29110\include\vector
; File C:\Program Files (x86)\Microsoft Visual Studio\2019\Community\VC\Tools\MSVC\14.27.29110\include\xmemory
; File C:\Program Files (x86)\Microsoft Visual Studio\2019\Community\VC\Tools\MSVC\14.27.29110\include\vector
;	COMDAT ??1?$vector@USTerrainTexture@@V?$allocator@USTerrainTexture@@@std@@@std@@QAE@XZ
_TEXT	SEGMENT
??1?$vector@USTerrainTexture@@V?$allocator@USTerrainTexture@@@std@@@std@@QAE@XZ PROC ; std::vector<STerrainTexture,std::allocator<STerrainTexture> >::~vector<STerrainTexture,std::allocator<STerrainTexture> >, COMDAT
; _this$ = ecx

; 672  :     ~vector() noexcept {

  00000	57		 push	 edi
  00001	8b f9		 mov	 edi, ecx

; 1693 :         if (_Myfirst) { // destroy and deallocate old array

  00003	8b 07		 mov	 eax, DWORD PTR [edi]
  00005	85 c0		 test	 eax, eax
  00007	74 47		 je	 SHORT $LN4@vector

; 1612 :         _Destroy_range(_First, _Last, _Getal());

  00009	57		 push	 edi
  0000a	ff 77 04	 push	 DWORD PTR [edi+4]
  0000d	50		 push	 eax
  0000e	e8 00 00 00 00	 call	 ??$_Destroy_range@V?$allocator@USTerrainTexture@@@std@@@std@@YAXPAUSTerrainTexture@@QAU1@AAV?$allocator@USTerrainTexture@@@0@@Z ; std::_Destroy_range<std::allocator<STerrainTexture> >

; 1695 :             _Getal().deallocate(_Myfirst, static_cast<size_type>(_Myend - _Myfirst));

  00013	8b 4f 08	 mov	 ecx, DWORD PTR [edi+8]
  00016	b8 a7 c8 67 dd	 mov	 eax, -580400985		; dd67c8a7H
  0001b	2b 0f		 sub	 ecx, DWORD PTR [edi]
  0001d	f7 e9		 imul	 ecx
  0001f	03 d1		 add	 edx, ecx
  00021	c1 fa 07	 sar	 edx, 7
  00024	8b c2		 mov	 eax, edx
  00026	c1 e8 1f	 shr	 eax, 31			; 0000001fH
  00029	03 c2		 add	 eax, edx
; File C:\Program Files (x86)\Microsoft Visual Studio\2019\Community\VC\Tools\MSVC\14.27.29110\include\xmemory

; 803  :         _Deallocate<_New_alignof<_Ty>>(_Ptr, sizeof(_Ty) * _Count);

  0002b	69 c0 94 00 00
	00		 imul	 eax, eax, 148
  00031	50		 push	 eax
  00032	ff 37		 push	 DWORD PTR [edi]
  00034	e8 00 00 00 00	 call	 ??$_Deallocate@$07$0A@@std@@YAXPAXI@Z ; std::_Deallocate<8,0>
; File C:\Program Files (x86)\Microsoft Visual Studio\2019\Community\VC\Tools\MSVC\14.27.29110\include\vector

; 1697 :             _Myfirst = pointer();

  00039	c7 07 00 00 00
	00		 mov	 DWORD PTR [edi], 0
; File C:\Program Files (x86)\Microsoft Visual Studio\2019\Community\VC\Tools\MSVC\14.27.29110\include\xmemory

; 803  :         _Deallocate<_New_alignof<_Ty>>(_Ptr, sizeof(_Ty) * _Count);

  0003f	83 c4 14	 add	 esp, 20			; 00000014H
; File C:\Program Files (x86)\Microsoft Visual Studio\2019\Community\VC\Tools\MSVC\14.27.29110\include\vector

; 1698 :             _Mylast  = pointer();

  00042	c7 47 04 00 00
	00 00		 mov	 DWORD PTR [edi+4], 0

; 1699 :             _Myend   = pointer();

  00049	c7 47 08 00 00
	00 00		 mov	 DWORD PTR [edi+8], 0
$LN4@vector:
  00050	5f		 pop	 edi

; 673  :         _Tidy();
; 674  : #if _ITERATOR_DEBUG_LEVEL != 0
; 675  :         auto&& _Alproxy = _GET_PROXY_ALLOCATOR(_Alty, _Getal());
; 676  :         _Delete_plain_internal(_Alproxy, _STD exchange(_Mypair._Myval2._Myproxy, nullptr));
; 677  : #endif // _ITERATOR_DEBUG_LEVEL != 0
; 678  :     }

  00051	c3		 ret	 0
??1?$vector@USTerrainTexture@@V?$allocator@USTerrainTexture@@@std@@@std@@QAE@XZ ENDP ; std::vector<STerrainTexture,std::allocator<STerrainTexture> >::~vector<STerrainTexture,std::allocator<STerrainTexture> >
_TEXT	ENDS
; Function compile flags: /Ogtp
; File C:\Program Files (x86)\Microsoft Visual Studio\2019\Community\VC\Tools\MSVC\14.27.29110\include\xmemory
;	COMDAT ?deallocate@?$allocator@USTerrainTexture@@@std@@QAEXQAUSTerrainTexture@@I@Z
_TEXT	SEGMENT
__Ptr$ = 8						; size = 4
__Count$ = 12						; size = 4
?deallocate@?$allocator@USTerrainTexture@@@std@@QAEXQAUSTerrainTexture@@I@Z PROC ; std::allocator<STerrainTexture>::deallocate, COMDAT
; _this$ = ecx

; 801  :     void deallocate(_Ty* const _Ptr, const size_t _Count) {

  00000	55		 push	 ebp
  00001	8b ec		 mov	 ebp, esp

; 802  :         // no overflow check on the following multiply; we assume _Allocate did that check
; 803  :         _Deallocate<_New_alignof<_Ty>>(_Ptr, sizeof(_Ty) * _Count);

  00003	69 45 0c 94 00
	00 00		 imul	 eax, DWORD PTR __Count$[ebp], 148
  0000a	50		 push	 eax
  0000b	ff 75 08	 push	 DWORD PTR __Ptr$[ebp]
  0000e	e8 00 00 00 00	 call	 ??$_Deallocate@$07$0A@@std@@YAXPAXI@Z ; std::_Deallocate<8,0>
  00013	83 c4 08	 add	 esp, 8

; 804  :     }

  00016	5d		 pop	 ebp
  00017	c2 08 00	 ret	 8
?deallocate@?$allocator@USTerrainTexture@@@std@@QAEXQAUSTerrainTexture@@I@Z ENDP ; std::allocator<STerrainTexture>::deallocate
_TEXT	ENDS
; Function compile flags: /Ogtp
; File C:\DS Project\DS Files\Source\ClientSource\Client\PRTerrainLib\TextureSet.cpp
; File C:\Program Files (x86)\Microsoft Visual Studio\2019\Community\VC\Tools\MSVC\14.27.29110\include\xstring
; File C:\DS Project\DS Files\Source\ClientSource\Client\PRTerrainLib\TextureSet.h
; File C:\Program Files (x86)\Microsoft Visual Studio\2019\Community\VC\Tools\MSVC\14.27.29110\include\vector
; File C:\DS Project\DS Files\Source\ClientSource\Client\PRTerrainLib\TextureSet.cpp
; File C:\Program Files (x86)\Microsoft Visual Studio\2019\Community\VC\Tools\MSVC\14.27.29110\include\vector
; File C:\Program Files (x86)\Microsoft Visual Studio\2019\Community\VC\Tools\MSVC\14.27.29110\include\xmemory
; File C:\Program Files (x86)\Microsoft Visual Studio\2019\Community\VC\Tools\MSVC\14.27.29110\include\vector
; File C:\DS Project\DS Files\Source\ClientSource\Client\PRTerrainLib\TextureSet.h
; File C:\Program Files (x86)\Microsoft Visual Studio\2019\Community\VC\Tools\MSVC\14.27.29110\include\xstring
; File C:\Program Files (x86)\Microsoft Visual Studio\2019\Community\VC\Tools\MSVC\14.27.29110\include\xmemory
; File C:\DS Project\DS Files\Source\ClientSource\Client\PRTerrainLib\TextureSet.cpp
;	COMDAT ?AddEmptyTexture@CTextureSet@@IAEXXZ
_TEXT	SEGMENT
_eraser$ = -164						; size = 148
__$ArrayPad$ = -16					; size = 4
__$EHRec$ = -12						; size = 12
?AddEmptyTexture@CTextureSet@@IAEXXZ PROC		; CTextureSet::AddEmptyTexture, COMDAT
; _this$ = ecx

; 106  : {

  00000	55		 push	 ebp
  00001	8b ec		 mov	 ebp, esp
  00003	6a ff		 push	 -1
  00005	68 00 00 00 00	 push	 __ehhandler$?AddEmptyTexture@CTextureSet@@IAEXXZ
  0000a	64 a1 00 00 00
	00		 mov	 eax, DWORD PTR fs:0
  00010	50		 push	 eax
  00011	81 ec 98 00 00
	00		 sub	 esp, 152		; 00000098H
  00017	a1 00 00 00 00	 mov	 eax, DWORD PTR ___security_cookie
  0001c	33 c5		 xor	 eax, ebp
  0001e	89 45 f0	 mov	 DWORD PTR __$ArrayPad$[ebp], eax
  00021	56		 push	 esi
  00022	50		 push	 eax
  00023	8d 45 f4	 lea	 eax, DWORD PTR __$EHRec$[ebp]
  00026	64 a3 00 00 00
	00		 mov	 DWORD PTR fs:0, eax
  0002c	8b f1		 mov	 esi, ecx
; File C:\Program Files (x86)\Microsoft Visual Studio\2019\Community\VC\Tools\MSVC\14.27.29110\include\xstring

; 4293 :         _Mypair._Myval2._Mysize = 0;

  0002e	c7 85 6c ff ff
	ff 00 00 00 00	 mov	 DWORD PTR _eraser$[ebp+16], 0

; 4294 :         _Mypair._Myval2._Myres  = _BUF_SIZE - 1;

  00038	c7 85 70 ff ff
	ff 0f 00 00 00	 mov	 DWORD PTR _eraser$[ebp+20], 15 ; 0000000fH

; 4295 :         // the _Traits::assign is last so the codegen doesn't think the char write can alias this
; 4296 :         _Traits::assign(_Mypair._Myval2._Bx._Buf[0], _Elem());

  00042	c6 85 5c ff ff
	ff 00		 mov	 BYTE PTR _eraser$[ebp], 0
; File C:\DS Project\DS Files\Source\ClientSource\Client\PRTerrainLib\TextureSet.h

; 16   : 	{

  00049	8d 8d 78 ff ff
	ff		 lea	 ecx, DWORD PTR _eraser$[ebp+28]
  0004f	c7 45 fc 00 00
	00 00		 mov	 DWORD PTR __$EHRec$[ebp+8], 0
  00056	c7 85 74 ff ff
	ff 00 00 00 00	 mov	 DWORD PTR _eraser$[ebp+24], 0
  00060	e8 00 00 00 00	 call	 ??0CGraphicImageInstance@@QAE@XZ ; CGraphicImageInstance::CGraphicImageInstance
  00065	0f 28 05 00 00
	00 00		 movaps	 xmm0, XMMWORD PTR __xmm@00000000000000004080000040800000
  0006c	33 c0		 xor	 eax, eax
  0006e	0f 11 45 98	 movups	 XMMWORD PTR _eraser$[ebp+60], xmm0
  00072	c6 45 a8 01	 mov	 BYTE PTR _eraser$[ebp+76], 1
  00076	89 45 aa	 mov	 DWORD PTR _eraser$[ebp+78], eax
; File C:\Program Files (x86)\Microsoft Visual Studio\2019\Community\VC\Tools\MSVC\14.27.29110\include\vector

; 704  :         if (_Mylast != _My_data._Myend) {

  00079	8b 46 08	 mov	 eax, DWORD PTR [esi+8]
  0007c	8d 8d 5c ff ff
	ff		 lea	 ecx, DWORD PTR _eraser$[ebp]
; File C:\DS Project\DS Files\Source\ClientSource\Client\PRTerrainLib\TextureSet.cpp

; 107  : 	TTerrainTexture eraser;

  00082	c7 45 fc 01 00
	00 00		 mov	 DWORD PTR __$EHRec$[ebp+8], 1
; File C:\Program Files (x86)\Microsoft Visual Studio\2019\Community\VC\Tools\MSVC\14.27.29110\include\vector

; 704  :         if (_Mylast != _My_data._Myend) {

  00089	51		 push	 ecx
  0008a	3b 46 0c	 cmp	 eax, DWORD PTR [esi+12]
  0008d	74 10		 je	 SHORT $LN20@AddEmptyTe
; File C:\Program Files (x86)\Microsoft Visual Studio\2019\Community\VC\Tools\MSVC\14.27.29110\include\xmemory

; 694  :         ::new (const_cast<void*>(static_cast<const volatile void*>(_Ptr))) _Objty(_STD forward<_Types>(_Args)...);

  0008f	8b c8		 mov	 ecx, eax
  00091	e8 00 00 00 00	 call	 ??0STerrainTexture@@QAE@ABU0@@Z
; File C:\Program Files (x86)\Microsoft Visual Studio\2019\Community\VC\Tools\MSVC\14.27.29110\include\vector

; 690  :         ++_Mylast;

  00096	81 46 08 94 00
	00 00		 add	 DWORD PTR [esi+8], 148	; 00000094H

; 705  :             return _Emplace_back_with_unused_capacity(_STD forward<_Valty>(_Val)...);

  0009d	eb 09		 jmp	 SHORT $LN19@AddEmptyTe
$LN20@AddEmptyTe:

; 706  :         }
; 707  : 
; 708  :         _Ty& _Result = *_Emplace_reallocate(_Mylast, _STD forward<_Valty>(_Val)...);

  0009f	50		 push	 eax
  000a0	8d 4e 04	 lea	 ecx, DWORD PTR [esi+4]
  000a3	e8 00 00 00 00	 call	 ??$_Emplace_reallocate@ABUSTerrainTexture@@@?$vector@USTerrainTexture@@V?$allocator@USTerrainTexture@@@std@@@std@@QAEPAUSTerrainTexture@@QAU2@ABU2@@Z ; std::vector<STerrainTexture,std::allocator<STerrainTexture> >::_Emplace_reallocate<STerrainTexture const &>
$LN19@AddEmptyTe:
; File C:\DS Project\DS Files\Source\ClientSource\Client\PRTerrainLib\TextureSet.h

; 21   : 	}

  000a8	8d 8d 78 ff ff
	ff		 lea	 ecx, DWORD PTR _eraser$[ebp+28]
  000ae	e8 00 00 00 00	 call	 ??1CGraphicImageInstance@@UAE@XZ ; CGraphicImageInstance::~CGraphicImageInstance
; File C:\Program Files (x86)\Microsoft Visual Studio\2019\Community\VC\Tools\MSVC\14.27.29110\include\xstring

; 2153 :         return _BUF_SIZE <= _Myres;

  000b3	8b 85 70 ff ff
	ff		 mov	 eax, DWORD PTR _eraser$[ebp+20]
  000b9	83 f8 10	 cmp	 eax, 16			; 00000010H

; 4301 :         if (_Mypair._Myval2._Large_string_engaged()) {

  000bc	72 10		 jb	 SHORT $LN33@AddEmptyTe

; 4302 :             const pointer _Ptr = _Mypair._Myval2._Bx._Ptr;
; 4303 :             auto& _Al          = _Getal();
; 4304 :             _Destroy_in_place(_Mypair._Myval2._Bx._Ptr);
; 4305 :             _Al.deallocate(_Ptr, _Mypair._Myval2._Myres + 1);

  000be	40		 inc	 eax
; File C:\Program Files (x86)\Microsoft Visual Studio\2019\Community\VC\Tools\MSVC\14.27.29110\include\xmemory

; 803  :         _Deallocate<_New_alignof<_Ty>>(_Ptr, sizeof(_Ty) * _Count);

  000bf	50		 push	 eax
  000c0	ff b5 5c ff ff
	ff		 push	 DWORD PTR _eraser$[ebp]
  000c6	e8 00 00 00 00	 call	 ??$_Deallocate@$07$0A@@std@@YAXPAXI@Z ; std::_Deallocate<8,0>
  000cb	83 c4 08	 add	 esp, 8
$LN33@AddEmptyTe:
; File C:\DS Project\DS Files\Source\ClientSource\Client\PRTerrainLib\TextureSet.cpp

; 109  : }

  000ce	8b 4d f4	 mov	 ecx, DWORD PTR __$EHRec$[ebp]
  000d1	64 89 0d 00 00
	00 00		 mov	 DWORD PTR fs:0, ecx
  000d8	59		 pop	 ecx
  000d9	5e		 pop	 esi
  000da	8b 4d f0	 mov	 ecx, DWORD PTR __$ArrayPad$[ebp]
  000dd	33 cd		 xor	 ecx, ebp
  000df	e8 00 00 00 00	 call	 @__security_check_cookie@4
  000e4	8b e5		 mov	 esp, ebp
  000e6	5d		 pop	 ebp
  000e7	c3		 ret	 0
_TEXT	ENDS
;	COMDAT text$x
text$x	SEGMENT
__unwindfunclet$?AddEmptyTexture@CTextureSet@@IAEXXZ$1:
  00000	8d 8d 5c ff ff
	ff		 lea	 ecx, DWORD PTR _eraser$[ebp]
  00006	e9 00 00 00 00	 jmp	 ??1?$basic_string@DU?$char_traits@D@std@@V?$allocator@D@2@@std@@QAE@XZ ; std::basic_string<char,std::char_traits<char>,std::allocator<char> >::~basic_string<char,std::char_traits<char>,std::allocator<char> >
__unwindfunclet$?AddEmptyTexture@CTextureSet@@IAEXXZ$0:
  0000b	8d 8d 5c ff ff
	ff		 lea	 ecx, DWORD PTR _eraser$[ebp]
  00011	e9 00 00 00 00	 jmp	 ??1STerrainTexture@@QAE@XZ ; STerrainTexture::~STerrainTexture
  00016	cc		 int	 3
  00017	cc		 int	 3
  00018	cc		 int	 3
  00019	cc		 int	 3
  0001a	cc		 int	 3
__ehhandler$?AddEmptyTexture@CTextureSet@@IAEXXZ:
  0001b	90		 npad	 1
  0001c	90		 npad	 1
  0001d	8b 54 24 08	 mov	 edx, DWORD PTR [esp+8]
  00021	8d 42 0c	 lea	 eax, DWORD PTR [edx+12]
  00024	8b 8a 60 ff ff
	ff		 mov	 ecx, DWORD PTR [edx-160]
  0002a	33 c8		 xor	 ecx, eax
  0002c	e8 00 00 00 00	 call	 @__security_check_cookie@4
  00031	8b 4a fc	 mov	 ecx, DWORD PTR [edx-4]
  00034	33 c8		 xor	 ecx, eax
  00036	e8 00 00 00 00	 call	 @__security_check_cookie@4
  0003b	b8 00 00 00 00	 mov	 eax, OFFSET __ehfuncinfo$?AddEmptyTexture@CTextureSet@@IAEXXZ
  00040	e9 00 00 00 00	 jmp	 ___CxxFrameHandler3
text$x	ENDS
?AddEmptyTexture@CTextureSet@@IAEXXZ ENDP		; CTextureSet::AddEmptyTexture
; Function compile flags: /Ogtp
; File C:\DS Project\DS Files\Source\ClientSource\Client\PRTerrainLib\TextureSet.cpp
; File C:\Program Files (x86)\Microsoft Visual Studio\2019\Community\VC\Tools\MSVC\14.27.29110\include\vector
; File C:\Program Files (x86)\Microsoft Visual Studio\2019\Community\VC\Tools\MSVC\14.27.29110\include\xstring
; File C:\DS Project\DS Files\Source\ClientSource\Client\PRTerrainLib\TextureSet.cpp
; File C:\Program Files (x86)\Microsoft Visual Studio\2019\Community\VC\Tools\MSVC\14.27.29110\include\xstring
; File C:\DS Project\DS Files\Source\ClientSource\Client\PRTerrainLib\TextureSet.cpp
; File C:\Program Files (x86)\Microsoft Visual Studio\2019\Community\VC\Tools\MSVC\14.27.29110\include\vector
; File C:\DS Project\DS Files\Source\ClientSource\Client\PRTerrainLib\TextureSet.cpp
; File C:\Program Files (x86)\Microsoft Visual Studio\2019\Community\VC\Tools\MSVC\14.27.29110\include\vector
; File C:\DS Project\DS Files\Source\ClientSource\Client\PRTerrainLib\TextureSet.cpp
; File C:\Program Files (x86)\Microsoft Visual Studio\2019\Community\VC\Tools\MSVC\14.27.29110\include\vector
; File C:\DS Project\DS Files\Source\ClientSource\Client\PRTerrainLib\TextureSet.cpp
; File C:\Program Files (x86)\Microsoft Visual Studio\2019\Community\VC\Tools\MSVC\14.27.29110\include\vector
; File C:\DS Project\DS Files\Source\ClientSource\Client\PRTerrainLib\TextureSet.cpp
; File C:\Program Files (x86)\Microsoft Visual Studio\2019\Community\VC\Tools\MSVC\14.27.29110\include\vector
; File C:\DS Project\DS Files\Source\ClientSource\Client\PRTerrainLib\TextureSet.cpp
; File C:\Program Files (x86)\Microsoft Visual Studio\2019\Community\VC\Tools\MSVC\14.27.29110\include\vector
; File C:\DS Project\DS Files\Source\ClientSource\Client\PRTerrainLib\TextureSet.cpp
; File C:\Program Files (x86)\Microsoft Visual Studio\2019\Community\VC\Tools\MSVC\14.27.29110\include\vector
; File C:\DS Project\DS Files\Source\ClientSource\Client\PRTerrainLib\TextureSet.cpp
; File C:\Program Files (x86)\Microsoft Visual Studio\2019\Community\VC\Tools\MSVC\14.27.29110\include\vector
; File C:\DS Project\DS Files\Source\ClientSource\Client\PRTerrainLib\TextureSet.cpp
; File C:\Program Files (x86)\Microsoft Visual Studio\2019\Community\VC\Tools\MSVC\14.27.29110\include\vector
; File C:\DS Project\DS Files\Source\ClientSource\Client\PRTerrainLib\TextureSet.cpp
; File C:\Program Files (x86)\Microsoft Visual Studio\2019\Community\VC\Tools\MSVC\14.27.29110\include\vector
; File C:\DS Project\DS Files\Source\ClientSource\Client\PRTerrainLib\TextureSet.cpp
;	COMDAT ?AddTexture@CTextureSet@@QAE_NPBDMMMM_NGGM@Z
_TEXT	SEGMENT
$T1 = -8						; size = 4
_this$1$ = -4						; size = 4
__Newcapacity$1$ = 8					; size = 4
_c_szFileName$ = 8					; size = 4
_fuScale$ = 12						; size = 4
_fvScale$ = 16						; size = 4
_fuOffset$ = 20						; size = 4
_fvOffset$ = 24						; size = 4
_bSplat$ = 28						; size = 1
_usBegin$ = 32						; size = 2
_usEnd$ = 36						; size = 2
_fTerrainTexCoordBase$ = 40				; size = 4
?AddTexture@CTextureSet@@QAE_NPBDMMMM_NGGM@Z PROC	; CTextureSet::AddTexture, COMDAT
; _this$ = ecx

; 194  : {

  00000	55		 push	 ebp
  00001	8b ec		 mov	 ebp, esp
  00003	83 ec 08	 sub	 esp, 8
  00006	56		 push	 esi
  00007	8b f1		 mov	 esi, ecx
  00009	89 75 fc	 mov	 DWORD PTR _this$1$[ebp], esi

; 195  : 	if (GetTextureCount() >= 256)

  0000c	e8 00 00 00 00	 call	 ?GetTextureCount@CTextureSet@@QAEKXZ ; CTextureSet::GetTextureCount
  00011	3d 00 01 00 00	 cmp	 eax, 256		; 00000100H
  00016	72 1a		 jb	 SHORT $LN5@AddTexture

; 196  : 	{
; 197  : 		LogBox("You cannot add more than 255 texture.");

  00018	6a 00		 push	 0
  0001a	6a 00		 push	 0
  0001c	68 00 00 00 00	 push	 OFFSET ??_C@_0CG@GCCGCFA@You?5cannot?5add?5more?5than?5255?5te@
  00021	e8 00 00 00 00	 call	 ?LogBox@@YAXPBD0PAUHWND__@@@Z ; LogBox
  00026	83 c4 0c	 add	 esp, 12			; 0000000cH

; 198  : 		return false;

  00029	32 c0		 xor	 al, al
  0002b	5e		 pop	 esi

; 234  : }

  0002c	8b e5		 mov	 esp, ebp
  0002e	5d		 pop	 ebp
  0002f	c2 24 00	 ret	 36			; 00000024H
$LN5@AddTexture:
  00032	53		 push	 ebx
  00033	57		 push	 edi

; 199  : 	}
; 200  : 
; 201  : 	for (unsigned long i = 1; i < GetTextureCount(); ++i)

  00034	8b ce		 mov	 ecx, esi
  00036	bf 01 00 00 00	 mov	 edi, 1
  0003b	e8 00 00 00 00	 call	 ?GetTextureCount@CTextureSet@@QAEKXZ ; CTextureSet::GetTextureCount
  00040	8b 5d 08	 mov	 ebx, DWORD PTR _c_szFileName$[ebp]
  00043	89 45 f8	 mov	 DWORD PTR $T1[ebp], eax
  00046	3b c7		 cmp	 eax, edi
  00048	76 42		 jbe	 SHORT $LN3@AddTexture
; File C:\Program Files (x86)\Microsoft Visual Studio\2019\Community\VC\Tools\MSVC\14.27.29110\include\vector

; 1504 :         return _My_data._Myfirst[_Pos];

  0004a	8b 76 04	 mov	 esi, DWORD PTR [esi+4]
  0004d	81 c6 94 00 00
	00		 add	 esi, 148		; 00000094H
$LL4@AddTexture:
; File C:\Program Files (x86)\Microsoft Visual Studio\2019\Community\VC\Tools\MSVC\14.27.29110\include\xstring

; 321  :         return _CSTD strlen(reinterpret_cast<const char*>(_First));

  00053	8b cb		 mov	 ecx, ebx
  00055	8d 51 01	 lea	 edx, DWORD PTR [ecx+1]
$LL45@AddTexture:
  00058	8a 01		 mov	 al, BYTE PTR [ecx]
  0005a	41		 inc	 ecx
  0005b	84 c0		 test	 al, al
  0005d	75 f9		 jne	 SHORT $LL45@AddTexture
  0005f	2b ca		 sub	 ecx, edx

; 2144 :         const value_type* _Result = _Bx._Buf;

  00061	8b c6		 mov	 eax, esi

; 2153 :         return _BUF_SIZE <= _Myres;

  00063	83 7e 14 10	 cmp	 DWORD PTR [esi+20], 16	; 00000010H

; 2145 :         if (_Large_string_engaged()) {

  00067	72 02		 jb	 SHORT $LN16@AddTexture

; 2146 :             _Result = _Unfancy(_Bx._Ptr);

  00069	8b 06		 mov	 eax, DWORD PTR [esi]
$LN16@AddTexture:

; 4151 :         return _Traits_compare<_Traits>(_Mypair._Myval2._Myptr(), _Mypair._Myval2._Mysize, _Ptr, _Traits::length(_Ptr));

  0006b	51		 push	 ecx
  0006c	53		 push	 ebx
  0006d	ff 76 10	 push	 DWORD PTR [esi+16]
  00070	50		 push	 eax
  00071	e8 00 00 00 00	 call	 ??$_Traits_compare@U?$char_traits@D@std@@@std@@YAHQBDI0I@Z ; std::_Traits_compare<std::char_traits<char> >
  00076	83 c4 10	 add	 esp, 16			; 00000010H
; File C:\DS Project\DS Files\Source\ClientSource\Client\PRTerrainLib\TextureSet.cpp

; 203  : 		if (0 == m_Textures[i].stFilename.compare(c_szFileName))

  00079	85 c0		 test	 eax, eax
  0007b	74 54		 je	 SHORT $LN41@AddTexture

; 199  : 	}
; 200  : 
; 201  : 	for (unsigned long i = 1; i < GetTextureCount(); ++i)

  0007d	47		 inc	 edi
  0007e	81 c6 94 00 00
	00		 add	 esi, 148		; 00000094H
  00084	3b 7d f8	 cmp	 edi, DWORD PTR $T1[ebp]
  00087	72 ca		 jb	 SHORT $LL4@AddTexture

; 203  : 		if (0 == m_Textures[i].stFilename.compare(c_szFileName))

  00089	8b 75 fc	 mov	 esi, DWORD PTR _this$1$[ebp]
$LN3@AddTexture:

; 207  : 		}
; 208  : 	}
; 209  : 
; 210  : 	CResource * pResource = CResourceManager::Instance().GetResourcePointer(c_szFileName);

  0008c	8b 0d 00 00 00
	00		 mov	 ecx, DWORD PTR ?ms_singleton@?$CSingleton@VCResourceManager@@@@0PAVCResourceManager@@A ; CSingleton<CResourceManager>::ms_singleton
  00092	53		 push	 ebx
  00093	e8 00 00 00 00	 call	 ?GetResourcePointer@CResourceManager@@QAEPAVCResource@@PBD@Z ; CResourceManager::GetResourcePointer
  00098	8b f8		 mov	 edi, eax

; 211  : 
; 212  : 	if (!pResource->IsType(CGraphicImage::Type()))

  0009a	e8 00 00 00 00	 call	 ?Type@CGraphicImage@@SAKXZ ; CGraphicImage::Type
  0009f	50		 push	 eax
  000a0	8b cf		 mov	 ecx, edi
  000a2	e8 00 00 00 00	 call	 ?IsType@CResource@@QAE_NK@Z ; CResource::IsType
  000a7	84 c0		 test	 al, al
  000a9	75 45		 jne	 SHORT $LN7@AddTexture
; File C:\Program Files (x86)\Microsoft Visual Studio\2019\Community\VC\Tools\MSVC\14.27.29110\include\xstring

; 2153 :         return _BUF_SIZE <= _Myres;

  000ab	83 7f 20 10	 cmp	 DWORD PTR [edi+32], 16	; 00000010H

; 3668 :         return _Mypair._Myval2._Myptr();

  000af	8d 47 0c	 lea	 eax, DWORD PTR [edi+12]

; 2145 :         if (_Large_string_engaged()) {

  000b2	72 02		 jb	 SHORT $LN25@AddTexture

; 2146 :             _Result = _Unfancy(_Bx._Ptr);

  000b4	8b 00		 mov	 eax, DWORD PTR [eax]
$LN25@AddTexture:
; File C:\DS Project\DS Files\Source\ClientSource\Client\PRTerrainLib\TextureSet.cpp

; 214  : 		LogBox("CTerrainImpl::GenerateTexture : It's not an image file. %s", pResource->GetFileName());

  000b6	6a 00		 push	 0
  000b8	50		 push	 eax
  000b9	68 00 00 00 00	 push	 OFFSET ??_C@_0DL@BLPPCNGA@CTerrainImpl?3?3GenerateTexture?5?3@
  000be	e8 00 00 00 00	 call	 ?LogBox@@YAXPBD0PAUHWND__@@@Z ; LogBox
  000c3	83 c4 0c	 add	 esp, 12			; 0000000cH

; 215  : 		return false;

  000c6	32 c0		 xor	 al, al
  000c8	5f		 pop	 edi
  000c9	5b		 pop	 ebx
  000ca	5e		 pop	 esi

; 234  : }

  000cb	8b e5		 mov	 esp, ebp
  000cd	5d		 pop	 ebp
  000ce	c2 24 00	 ret	 36			; 00000024H
$LN41@AddTexture:

; 204  : 		{
; 205  : 			LogBox("Texture of the same name already exists.", "Duplicate");

  000d1	6a 00		 push	 0
  000d3	68 00 00 00 00	 push	 OFFSET ??_C@_09OINHJNMP@Duplicate@
  000d8	68 00 00 00 00	 push	 OFFSET ??_C@_0CJ@ELAAMMOC@Texture?5of?5the?5same?5name?5alread@
  000dd	e8 00 00 00 00	 call	 ?LogBox@@YAXPBD0PAUHWND__@@@Z ; LogBox
  000e2	83 c4 0c	 add	 esp, 12			; 0000000cH

; 206  : 			return false;

  000e5	32 c0		 xor	 al, al
  000e7	5f		 pop	 edi
  000e8	5b		 pop	 ebx
  000e9	5e		 pop	 esi

; 234  : }

  000ea	8b e5		 mov	 esp, ebp
  000ec	5d		 pop	 ebp
  000ed	c2 24 00	 ret	 36			; 00000024H
$LN7@AddTexture:
; File C:\Program Files (x86)\Microsoft Visual Studio\2019\Community\VC\Tools\MSVC\14.27.29110\include\vector

; 1484 :         return static_cast<size_type>(_My_data._Mylast - _My_data._Myfirst);

  000f0	8b 4e 08	 mov	 ecx, DWORD PTR [esi+8]
  000f3	b8 a7 c8 67 dd	 mov	 eax, -580400985		; dd67c8a7H
  000f8	2b 4e 04	 sub	 ecx, DWORD PTR [esi+4]
  000fb	f7 e9		 imul	 ecx
  000fd	03 d1		 add	 edx, ecx

; 1494 :         return static_cast<size_type>(_My_data._Myend - _My_data._Myfirst);

  000ff	8b 4e 0c	 mov	 ecx, DWORD PTR [esi+12]
  00102	2b 4e 04	 sub	 ecx, DWORD PTR [esi+4]

; 1484 :         return static_cast<size_type>(_My_data._Mylast - _My_data._Myfirst);

  00105	c1 fa 07	 sar	 edx, 7
  00108	8b c2		 mov	 eax, edx
; File C:\DS Project\DS Files\Source\ClientSource\Client\PRTerrainLib\TextureSet.cpp

; 218  : 	m_Textures.reserve(m_Textures.size() + 1);

  0010a	42		 inc	 edx
; File C:\Program Files (x86)\Microsoft Visual Studio\2019\Community\VC\Tools\MSVC\14.27.29110\include\vector

; 1484 :         return static_cast<size_type>(_My_data._Mylast - _My_data._Myfirst);

  0010b	c1 e8 1f	 shr	 eax, 31			; 0000001fH
; File C:\DS Project\DS Files\Source\ClientSource\Client\PRTerrainLib\TextureSet.cpp

; 218  : 	m_Textures.reserve(m_Textures.size() + 1);

  0010e	03 c2		 add	 eax, edx
  00110	89 45 08	 mov	 DWORD PTR __Newcapacity$1$[ebp], eax
; File C:\Program Files (x86)\Microsoft Visual Studio\2019\Community\VC\Tools\MSVC\14.27.29110\include\vector

; 1494 :         return static_cast<size_type>(_My_data._Myend - _My_data._Myfirst);

  00113	b8 a7 c8 67 dd	 mov	 eax, -580400985		; dd67c8a7H
  00118	f7 e9		 imul	 ecx
  0011a	03 d1		 add	 edx, ecx

; 1306 :         if (_Newcapacity > capacity()) { // something to do (reserve() never shrinks)

  0011c	8b 4d 08	 mov	 ecx, DWORD PTR __Newcapacity$1$[ebp]

; 1494 :         return static_cast<size_type>(_My_data._Myend - _My_data._Myfirst);

  0011f	c1 fa 07	 sar	 edx, 7
  00122	8b c2		 mov	 eax, edx
  00124	c1 e8 1f	 shr	 eax, 31			; 0000001fH
  00127	03 c2		 add	 eax, edx

; 1306 :         if (_Newcapacity > capacity()) { // something to do (reserve() never shrinks)

  00129	3b c8		 cmp	 ecx, eax
  0012b	76 15		 jbe	 SHORT $LN32@AddTexture

; 1307 :             if (_Newcapacity > max_size()) {

  0012d	81 f9 91 cf ba
	01		 cmp	 ecx, 29020049		; 01bacf91H
  00133	0f 87 82 00 00
	00		 ja	 $LN50@AddTexture

; 1309 :             }
; 1310 : 
; 1311 :             _Reallocate_exactly(_Newcapacity);

  00139	51		 push	 ecx
  0013a	8d 4e 04	 lea	 ecx, DWORD PTR [esi+4]
  0013d	e8 00 00 00 00	 call	 ?_Reallocate_exactly@?$vector@USTerrainTexture@@V?$allocator@USTerrainTexture@@@std@@@std@@AAEXI@Z ; std::vector<STerrainTexture,std::allocator<STerrainTexture> >::_Reallocate_exactly
$LN32@AddTexture:
; File C:\DS Project\DS Files\Source\ClientSource\Client\PRTerrainLib\TextureSet.cpp

; 221  : 	AddEmptyTexture();

  00142	8b 4d fc	 mov	 ecx, DWORD PTR _this$1$[ebp]
  00145	e8 00 00 00 00	 call	 ?AddEmptyTexture@CTextureSet@@IAEXXZ ; CTextureSet::AddEmptyTexture

; 222  : 	SetTexture(m_Textures.size() - 1,

  0014a	f3 0f 10 45 28	 movss	 xmm0, DWORD PTR _fTerrainTexCoordBase$[ebp]
; File C:\Program Files (x86)\Microsoft Visual Studio\2019\Community\VC\Tools\MSVC\14.27.29110\include\vector

; 1484 :         return static_cast<size_type>(_My_data._Mylast - _My_data._Myfirst);

  0014f	b8 a7 c8 67 dd	 mov	 eax, -580400985		; dd67c8a7H
; File C:\DS Project\DS Files\Source\ClientSource\Client\PRTerrainLib\TextureSet.cpp

; 222  : 	SetTexture(m_Textures.size() - 1,

  00154	51		 push	 ecx
; File C:\Program Files (x86)\Microsoft Visual Studio\2019\Community\VC\Tools\MSVC\14.27.29110\include\vector

; 1484 :         return static_cast<size_type>(_My_data._Mylast - _My_data._Myfirst);

  00155	8b 4e 08	 mov	 ecx, DWORD PTR [esi+8]
  00158	2b 4e 04	 sub	 ecx, DWORD PTR [esi+4]
